   1              		.file	"dns.c"
   2              		.option nopic
   3              		.attribute arch, "rv32i2p0_m2p0_a2p0_f2p0_c2p0_b_p0p94"
   4              		.attribute unaligned_access, 0
   5              		.attribute stack_align, 16
   6              		.text
   7              	.Ltext0:
   8              		.cfi_sections	.debug_frame
   9              		.section	.text.dns_call_found,"ax",@progbits
  10              		.align	1
  12              	dns_call_found:
  13              	.LFB14:
  14              		.file 1 "C:/Users/stapi/OneDrive/Desktop/GD32VW553/V1_MQTT_OK/GD32VW55X_Wifi_BLE_SDK/GD32VW55x_REL
   1:C:/Users/stapi/OneDrive/Desktop/GD32VW553/V1_MQTT_OK/GD32VW55X_Wifi_BLE_SDK/GD32VW55x_RELEASE_V1.0.2/MSDK/lwip/lwip-2.1.2/src/core\dns.c **** /**
   2:C:/Users/stapi/OneDrive/Desktop/GD32VW553/V1_MQTT_OK/GD32VW55X_Wifi_BLE_SDK/GD32VW55x_RELEASE_V1.0.2/MSDK/lwip/lwip-2.1.2/src/core\dns.c ****  * @file
   3:C:/Users/stapi/OneDrive/Desktop/GD32VW553/V1_MQTT_OK/GD32VW55X_Wifi_BLE_SDK/GD32VW55x_RELEASE_V1.0.2/MSDK/lwip/lwip-2.1.2/src/core\dns.c ****  * DNS - host name to IP address resolver.
   4:C:/Users/stapi/OneDrive/Desktop/GD32VW553/V1_MQTT_OK/GD32VW55X_Wifi_BLE_SDK/GD32VW55x_RELEASE_V1.0.2/MSDK/lwip/lwip-2.1.2/src/core\dns.c ****  *
   5:C:/Users/stapi/OneDrive/Desktop/GD32VW553/V1_MQTT_OK/GD32VW55X_Wifi_BLE_SDK/GD32VW55x_RELEASE_V1.0.2/MSDK/lwip/lwip-2.1.2/src/core\dns.c ****  * @defgroup dns DNS
   6:C:/Users/stapi/OneDrive/Desktop/GD32VW553/V1_MQTT_OK/GD32VW55X_Wifi_BLE_SDK/GD32VW55x_RELEASE_V1.0.2/MSDK/lwip/lwip-2.1.2/src/core\dns.c ****  * @ingroup callbackstyle_api
   7:C:/Users/stapi/OneDrive/Desktop/GD32VW553/V1_MQTT_OK/GD32VW55X_Wifi_BLE_SDK/GD32VW55x_RELEASE_V1.0.2/MSDK/lwip/lwip-2.1.2/src/core\dns.c ****  *
   8:C:/Users/stapi/OneDrive/Desktop/GD32VW553/V1_MQTT_OK/GD32VW55X_Wifi_BLE_SDK/GD32VW55x_RELEASE_V1.0.2/MSDK/lwip/lwip-2.1.2/src/core\dns.c ****  * Implements a DNS host name to IP address resolver.
   9:C:/Users/stapi/OneDrive/Desktop/GD32VW553/V1_MQTT_OK/GD32VW55X_Wifi_BLE_SDK/GD32VW55x_RELEASE_V1.0.2/MSDK/lwip/lwip-2.1.2/src/core\dns.c ****  *
  10:C:/Users/stapi/OneDrive/Desktop/GD32VW553/V1_MQTT_OK/GD32VW55X_Wifi_BLE_SDK/GD32VW55x_RELEASE_V1.0.2/MSDK/lwip/lwip-2.1.2/src/core\dns.c ****  * The lwIP DNS resolver functions are used to lookup a host name and
  11:C:/Users/stapi/OneDrive/Desktop/GD32VW553/V1_MQTT_OK/GD32VW55X_Wifi_BLE_SDK/GD32VW55x_RELEASE_V1.0.2/MSDK/lwip/lwip-2.1.2/src/core\dns.c ****  * map it to a numerical IP address. It maintains a list of resolved
  12:C:/Users/stapi/OneDrive/Desktop/GD32VW553/V1_MQTT_OK/GD32VW55X_Wifi_BLE_SDK/GD32VW55x_RELEASE_V1.0.2/MSDK/lwip/lwip-2.1.2/src/core\dns.c ****  * hostnames that can be queried with the dns_lookup() function.
  13:C:/Users/stapi/OneDrive/Desktop/GD32VW553/V1_MQTT_OK/GD32VW55X_Wifi_BLE_SDK/GD32VW55x_RELEASE_V1.0.2/MSDK/lwip/lwip-2.1.2/src/core\dns.c ****  * New hostnames can be resolved using the dns_query() function.
  14:C:/Users/stapi/OneDrive/Desktop/GD32VW553/V1_MQTT_OK/GD32VW55X_Wifi_BLE_SDK/GD32VW55x_RELEASE_V1.0.2/MSDK/lwip/lwip-2.1.2/src/core\dns.c ****  *
  15:C:/Users/stapi/OneDrive/Desktop/GD32VW553/V1_MQTT_OK/GD32VW55X_Wifi_BLE_SDK/GD32VW55x_RELEASE_V1.0.2/MSDK/lwip/lwip-2.1.2/src/core\dns.c ****  * The lwIP version of the resolver also adds a non-blocking version of
  16:C:/Users/stapi/OneDrive/Desktop/GD32VW553/V1_MQTT_OK/GD32VW55X_Wifi_BLE_SDK/GD32VW55x_RELEASE_V1.0.2/MSDK/lwip/lwip-2.1.2/src/core\dns.c ****  * gethostbyname() that will work with a raw API application. This function
  17:C:/Users/stapi/OneDrive/Desktop/GD32VW553/V1_MQTT_OK/GD32VW55X_Wifi_BLE_SDK/GD32VW55x_RELEASE_V1.0.2/MSDK/lwip/lwip-2.1.2/src/core\dns.c ****  * checks for an IP address string first and converts it if it is valid.
  18:C:/Users/stapi/OneDrive/Desktop/GD32VW553/V1_MQTT_OK/GD32VW55X_Wifi_BLE_SDK/GD32VW55x_RELEASE_V1.0.2/MSDK/lwip/lwip-2.1.2/src/core\dns.c ****  * gethostbyname() then does a dns_lookup() to see if the name is
  19:C:/Users/stapi/OneDrive/Desktop/GD32VW553/V1_MQTT_OK/GD32VW55X_Wifi_BLE_SDK/GD32VW55x_RELEASE_V1.0.2/MSDK/lwip/lwip-2.1.2/src/core\dns.c ****  * already in the table. If so, the IP is returned. If not, a query is
  20:C:/Users/stapi/OneDrive/Desktop/GD32VW553/V1_MQTT_OK/GD32VW55X_Wifi_BLE_SDK/GD32VW55x_RELEASE_V1.0.2/MSDK/lwip/lwip-2.1.2/src/core\dns.c ****  * issued and the function returns with a ERR_INPROGRESS status. The app
  21:C:/Users/stapi/OneDrive/Desktop/GD32VW553/V1_MQTT_OK/GD32VW55X_Wifi_BLE_SDK/GD32VW55x_RELEASE_V1.0.2/MSDK/lwip/lwip-2.1.2/src/core\dns.c ****  * using the dns client must then go into a waiting state.
  22:C:/Users/stapi/OneDrive/Desktop/GD32VW553/V1_MQTT_OK/GD32VW55X_Wifi_BLE_SDK/GD32VW55x_RELEASE_V1.0.2/MSDK/lwip/lwip-2.1.2/src/core\dns.c ****  *
  23:C:/Users/stapi/OneDrive/Desktop/GD32VW553/V1_MQTT_OK/GD32VW55X_Wifi_BLE_SDK/GD32VW55x_RELEASE_V1.0.2/MSDK/lwip/lwip-2.1.2/src/core\dns.c ****  * Once a hostname has been resolved (or found to be non-existent),
  24:C:/Users/stapi/OneDrive/Desktop/GD32VW553/V1_MQTT_OK/GD32VW55X_Wifi_BLE_SDK/GD32VW55x_RELEASE_V1.0.2/MSDK/lwip/lwip-2.1.2/src/core\dns.c ****  * the resolver code calls a specified callback function (which
  25:C:/Users/stapi/OneDrive/Desktop/GD32VW553/V1_MQTT_OK/GD32VW55X_Wifi_BLE_SDK/GD32VW55x_RELEASE_V1.0.2/MSDK/lwip/lwip-2.1.2/src/core\dns.c ****  * must be implemented by the module that uses the resolver).
  26:C:/Users/stapi/OneDrive/Desktop/GD32VW553/V1_MQTT_OK/GD32VW55X_Wifi_BLE_SDK/GD32VW55x_RELEASE_V1.0.2/MSDK/lwip/lwip-2.1.2/src/core\dns.c ****  *
  27:C:/Users/stapi/OneDrive/Desktop/GD32VW553/V1_MQTT_OK/GD32VW55X_Wifi_BLE_SDK/GD32VW55x_RELEASE_V1.0.2/MSDK/lwip/lwip-2.1.2/src/core\dns.c ****  * Multicast DNS queries are supported for names ending on ".local".
  28:C:/Users/stapi/OneDrive/Desktop/GD32VW553/V1_MQTT_OK/GD32VW55X_Wifi_BLE_SDK/GD32VW55x_RELEASE_V1.0.2/MSDK/lwip/lwip-2.1.2/src/core\dns.c ****  * However, only "One-Shot Multicast DNS Queries" are supported (RFC 6762
  29:C:/Users/stapi/OneDrive/Desktop/GD32VW553/V1_MQTT_OK/GD32VW55X_Wifi_BLE_SDK/GD32VW55x_RELEASE_V1.0.2/MSDK/lwip/lwip-2.1.2/src/core\dns.c ****  * chapter 5.1), this is not a fully compliant implementation of continuous
  30:C:/Users/stapi/OneDrive/Desktop/GD32VW553/V1_MQTT_OK/GD32VW55X_Wifi_BLE_SDK/GD32VW55x_RELEASE_V1.0.2/MSDK/lwip/lwip-2.1.2/src/core\dns.c ****  * mDNS querying!
  31:C:/Users/stapi/OneDrive/Desktop/GD32VW553/V1_MQTT_OK/GD32VW55X_Wifi_BLE_SDK/GD32VW55x_RELEASE_V1.0.2/MSDK/lwip/lwip-2.1.2/src/core\dns.c ****  *
  32:C:/Users/stapi/OneDrive/Desktop/GD32VW553/V1_MQTT_OK/GD32VW55X_Wifi_BLE_SDK/GD32VW55x_RELEASE_V1.0.2/MSDK/lwip/lwip-2.1.2/src/core\dns.c ****  * All functions must be called from TCPIP thread.
  33:C:/Users/stapi/OneDrive/Desktop/GD32VW553/V1_MQTT_OK/GD32VW55X_Wifi_BLE_SDK/GD32VW55x_RELEASE_V1.0.2/MSDK/lwip/lwip-2.1.2/src/core\dns.c ****  *
  34:C:/Users/stapi/OneDrive/Desktop/GD32VW553/V1_MQTT_OK/GD32VW55X_Wifi_BLE_SDK/GD32VW55x_RELEASE_V1.0.2/MSDK/lwip/lwip-2.1.2/src/core\dns.c ****  * @see DNS_MAX_SERVERS
  35:C:/Users/stapi/OneDrive/Desktop/GD32VW553/V1_MQTT_OK/GD32VW55X_Wifi_BLE_SDK/GD32VW55x_RELEASE_V1.0.2/MSDK/lwip/lwip-2.1.2/src/core\dns.c ****  * @see LWIP_DHCP_MAX_DNS_SERVERS
  36:C:/Users/stapi/OneDrive/Desktop/GD32VW553/V1_MQTT_OK/GD32VW55X_Wifi_BLE_SDK/GD32VW55x_RELEASE_V1.0.2/MSDK/lwip/lwip-2.1.2/src/core\dns.c ****  * @see @ref netconn_common for thread-safe access.
  37:C:/Users/stapi/OneDrive/Desktop/GD32VW553/V1_MQTT_OK/GD32VW55X_Wifi_BLE_SDK/GD32VW55x_RELEASE_V1.0.2/MSDK/lwip/lwip-2.1.2/src/core\dns.c ****  */
  38:C:/Users/stapi/OneDrive/Desktop/GD32VW553/V1_MQTT_OK/GD32VW55X_Wifi_BLE_SDK/GD32VW55x_RELEASE_V1.0.2/MSDK/lwip/lwip-2.1.2/src/core\dns.c **** 
  39:C:/Users/stapi/OneDrive/Desktop/GD32VW553/V1_MQTT_OK/GD32VW55X_Wifi_BLE_SDK/GD32VW55x_RELEASE_V1.0.2/MSDK/lwip/lwip-2.1.2/src/core\dns.c **** /*
  40:C:/Users/stapi/OneDrive/Desktop/GD32VW553/V1_MQTT_OK/GD32VW55X_Wifi_BLE_SDK/GD32VW55x_RELEASE_V1.0.2/MSDK/lwip/lwip-2.1.2/src/core\dns.c ****  * Port to lwIP from uIP
  41:C:/Users/stapi/OneDrive/Desktop/GD32VW553/V1_MQTT_OK/GD32VW55X_Wifi_BLE_SDK/GD32VW55x_RELEASE_V1.0.2/MSDK/lwip/lwip-2.1.2/src/core\dns.c ****  * by Jim Pettinato April 2007
  42:C:/Users/stapi/OneDrive/Desktop/GD32VW553/V1_MQTT_OK/GD32VW55X_Wifi_BLE_SDK/GD32VW55x_RELEASE_V1.0.2/MSDK/lwip/lwip-2.1.2/src/core\dns.c ****  *
  43:C:/Users/stapi/OneDrive/Desktop/GD32VW553/V1_MQTT_OK/GD32VW55X_Wifi_BLE_SDK/GD32VW55x_RELEASE_V1.0.2/MSDK/lwip/lwip-2.1.2/src/core\dns.c ****  * security fixes and more by Simon Goldschmidt
  44:C:/Users/stapi/OneDrive/Desktop/GD32VW553/V1_MQTT_OK/GD32VW55X_Wifi_BLE_SDK/GD32VW55x_RELEASE_V1.0.2/MSDK/lwip/lwip-2.1.2/src/core\dns.c ****  *
  45:C:/Users/stapi/OneDrive/Desktop/GD32VW553/V1_MQTT_OK/GD32VW55X_Wifi_BLE_SDK/GD32VW55x_RELEASE_V1.0.2/MSDK/lwip/lwip-2.1.2/src/core\dns.c ****  * uIP version Copyright (c) 2002-2003, Adam Dunkels.
  46:C:/Users/stapi/OneDrive/Desktop/GD32VW553/V1_MQTT_OK/GD32VW55X_Wifi_BLE_SDK/GD32VW55x_RELEASE_V1.0.2/MSDK/lwip/lwip-2.1.2/src/core\dns.c ****  * All rights reserved.
  47:C:/Users/stapi/OneDrive/Desktop/GD32VW553/V1_MQTT_OK/GD32VW55X_Wifi_BLE_SDK/GD32VW55x_RELEASE_V1.0.2/MSDK/lwip/lwip-2.1.2/src/core\dns.c ****  *
  48:C:/Users/stapi/OneDrive/Desktop/GD32VW553/V1_MQTT_OK/GD32VW55X_Wifi_BLE_SDK/GD32VW55x_RELEASE_V1.0.2/MSDK/lwip/lwip-2.1.2/src/core\dns.c ****  * Redistribution and use in source and binary forms, with or without
  49:C:/Users/stapi/OneDrive/Desktop/GD32VW553/V1_MQTT_OK/GD32VW55X_Wifi_BLE_SDK/GD32VW55x_RELEASE_V1.0.2/MSDK/lwip/lwip-2.1.2/src/core\dns.c ****  * modification, are permitted provided that the following conditions
  50:C:/Users/stapi/OneDrive/Desktop/GD32VW553/V1_MQTT_OK/GD32VW55X_Wifi_BLE_SDK/GD32VW55x_RELEASE_V1.0.2/MSDK/lwip/lwip-2.1.2/src/core\dns.c ****  * are met:
  51:C:/Users/stapi/OneDrive/Desktop/GD32VW553/V1_MQTT_OK/GD32VW55X_Wifi_BLE_SDK/GD32VW55x_RELEASE_V1.0.2/MSDK/lwip/lwip-2.1.2/src/core\dns.c ****  * 1. Redistributions of source code must retain the above copyright
  52:C:/Users/stapi/OneDrive/Desktop/GD32VW553/V1_MQTT_OK/GD32VW55X_Wifi_BLE_SDK/GD32VW55x_RELEASE_V1.0.2/MSDK/lwip/lwip-2.1.2/src/core\dns.c ****  *    notice, this list of conditions and the following disclaimer.
  53:C:/Users/stapi/OneDrive/Desktop/GD32VW553/V1_MQTT_OK/GD32VW55X_Wifi_BLE_SDK/GD32VW55x_RELEASE_V1.0.2/MSDK/lwip/lwip-2.1.2/src/core\dns.c ****  * 2. Redistributions in binary form must reproduce the above copyright
  54:C:/Users/stapi/OneDrive/Desktop/GD32VW553/V1_MQTT_OK/GD32VW55X_Wifi_BLE_SDK/GD32VW55x_RELEASE_V1.0.2/MSDK/lwip/lwip-2.1.2/src/core\dns.c ****  *    notice, this list of conditions and the following disclaimer in the
  55:C:/Users/stapi/OneDrive/Desktop/GD32VW553/V1_MQTT_OK/GD32VW55X_Wifi_BLE_SDK/GD32VW55x_RELEASE_V1.0.2/MSDK/lwip/lwip-2.1.2/src/core\dns.c ****  *    documentation and/or other materials provided with the distribution.
  56:C:/Users/stapi/OneDrive/Desktop/GD32VW553/V1_MQTT_OK/GD32VW55X_Wifi_BLE_SDK/GD32VW55x_RELEASE_V1.0.2/MSDK/lwip/lwip-2.1.2/src/core\dns.c ****  * 3. The name of the author may not be used to endorse or promote
  57:C:/Users/stapi/OneDrive/Desktop/GD32VW553/V1_MQTT_OK/GD32VW55X_Wifi_BLE_SDK/GD32VW55x_RELEASE_V1.0.2/MSDK/lwip/lwip-2.1.2/src/core\dns.c ****  *    products derived from this software without specific prior
  58:C:/Users/stapi/OneDrive/Desktop/GD32VW553/V1_MQTT_OK/GD32VW55X_Wifi_BLE_SDK/GD32VW55x_RELEASE_V1.0.2/MSDK/lwip/lwip-2.1.2/src/core\dns.c ****  *    written permission.
  59:C:/Users/stapi/OneDrive/Desktop/GD32VW553/V1_MQTT_OK/GD32VW55X_Wifi_BLE_SDK/GD32VW55x_RELEASE_V1.0.2/MSDK/lwip/lwip-2.1.2/src/core\dns.c ****  *
  60:C:/Users/stapi/OneDrive/Desktop/GD32VW553/V1_MQTT_OK/GD32VW55X_Wifi_BLE_SDK/GD32VW55x_RELEASE_V1.0.2/MSDK/lwip/lwip-2.1.2/src/core\dns.c ****  * THIS SOFTWARE IS PROVIDED BY THE AUTHOR ``AS IS'' AND ANY EXPRESS
  61:C:/Users/stapi/OneDrive/Desktop/GD32VW553/V1_MQTT_OK/GD32VW55X_Wifi_BLE_SDK/GD32VW55x_RELEASE_V1.0.2/MSDK/lwip/lwip-2.1.2/src/core\dns.c ****  * OR IMPLIED WARRANTIES, INCLUDING, BUT NOT LIMITED TO, THE IMPLIED
  62:C:/Users/stapi/OneDrive/Desktop/GD32VW553/V1_MQTT_OK/GD32VW55X_Wifi_BLE_SDK/GD32VW55x_RELEASE_V1.0.2/MSDK/lwip/lwip-2.1.2/src/core\dns.c ****  * WARRANTIES OF MERCHANTABILITY AND FITNESS FOR A PARTICULAR PURPOSE
  63:C:/Users/stapi/OneDrive/Desktop/GD32VW553/V1_MQTT_OK/GD32VW55X_Wifi_BLE_SDK/GD32VW55x_RELEASE_V1.0.2/MSDK/lwip/lwip-2.1.2/src/core\dns.c ****  * ARE DISCLAIMED.  IN NO EVENT SHALL THE AUTHOR BE LIABLE FOR ANY
  64:C:/Users/stapi/OneDrive/Desktop/GD32VW553/V1_MQTT_OK/GD32VW55X_Wifi_BLE_SDK/GD32VW55x_RELEASE_V1.0.2/MSDK/lwip/lwip-2.1.2/src/core\dns.c ****  * DIRECT, INDIRECT, INCIDENTAL, SPECIAL, EXEMPLARY, OR CONSEQUENTIAL
  65:C:/Users/stapi/OneDrive/Desktop/GD32VW553/V1_MQTT_OK/GD32VW55X_Wifi_BLE_SDK/GD32VW55x_RELEASE_V1.0.2/MSDK/lwip/lwip-2.1.2/src/core\dns.c ****  * DAMAGES (INCLUDING, BUT NOT LIMITED TO, PROCUREMENT OF SUBSTITUTE
  66:C:/Users/stapi/OneDrive/Desktop/GD32VW553/V1_MQTT_OK/GD32VW55X_Wifi_BLE_SDK/GD32VW55x_RELEASE_V1.0.2/MSDK/lwip/lwip-2.1.2/src/core\dns.c ****  * GOODS OR SERVICES; LOSS OF USE, DATA, OR PROFITS; OR BUSINESS
  67:C:/Users/stapi/OneDrive/Desktop/GD32VW553/V1_MQTT_OK/GD32VW55X_Wifi_BLE_SDK/GD32VW55x_RELEASE_V1.0.2/MSDK/lwip/lwip-2.1.2/src/core\dns.c ****  * INTERRUPTION) HOWEVER CAUSED AND ON ANY THEORY OF LIABILITY,
  68:C:/Users/stapi/OneDrive/Desktop/GD32VW553/V1_MQTT_OK/GD32VW55X_Wifi_BLE_SDK/GD32VW55x_RELEASE_V1.0.2/MSDK/lwip/lwip-2.1.2/src/core\dns.c ****  * WHETHER IN CONTRACT, STRICT LIABILITY, OR TORT (INCLUDING
  69:C:/Users/stapi/OneDrive/Desktop/GD32VW553/V1_MQTT_OK/GD32VW55X_Wifi_BLE_SDK/GD32VW55x_RELEASE_V1.0.2/MSDK/lwip/lwip-2.1.2/src/core\dns.c ****  * NEGLIGENCE OR OTHERWISE) ARISING IN ANY WAY OUT OF THE USE OF THIS
  70:C:/Users/stapi/OneDrive/Desktop/GD32VW553/V1_MQTT_OK/GD32VW55X_Wifi_BLE_SDK/GD32VW55x_RELEASE_V1.0.2/MSDK/lwip/lwip-2.1.2/src/core\dns.c ****  * SOFTWARE, EVEN IF ADVISED OF THE POSSIBILITY OF SUCH DAMAGE.
  71:C:/Users/stapi/OneDrive/Desktop/GD32VW553/V1_MQTT_OK/GD32VW55X_Wifi_BLE_SDK/GD32VW55x_RELEASE_V1.0.2/MSDK/lwip/lwip-2.1.2/src/core\dns.c ****  */
  72:C:/Users/stapi/OneDrive/Desktop/GD32VW553/V1_MQTT_OK/GD32VW55X_Wifi_BLE_SDK/GD32VW55x_RELEASE_V1.0.2/MSDK/lwip/lwip-2.1.2/src/core\dns.c **** 
  73:C:/Users/stapi/OneDrive/Desktop/GD32VW553/V1_MQTT_OK/GD32VW55X_Wifi_BLE_SDK/GD32VW55x_RELEASE_V1.0.2/MSDK/lwip/lwip-2.1.2/src/core\dns.c **** /*-----------------------------------------------------------------------------
  74:C:/Users/stapi/OneDrive/Desktop/GD32VW553/V1_MQTT_OK/GD32VW55X_Wifi_BLE_SDK/GD32VW55x_RELEASE_V1.0.2/MSDK/lwip/lwip-2.1.2/src/core\dns.c ****  * RFC 1035 - Domain names - implementation and specification
  75:C:/Users/stapi/OneDrive/Desktop/GD32VW553/V1_MQTT_OK/GD32VW55X_Wifi_BLE_SDK/GD32VW55x_RELEASE_V1.0.2/MSDK/lwip/lwip-2.1.2/src/core\dns.c ****  * RFC 2181 - Clarifications to the DNS Specification
  76:C:/Users/stapi/OneDrive/Desktop/GD32VW553/V1_MQTT_OK/GD32VW55X_Wifi_BLE_SDK/GD32VW55x_RELEASE_V1.0.2/MSDK/lwip/lwip-2.1.2/src/core\dns.c ****  *----------------------------------------------------------------------------*/
  77:C:/Users/stapi/OneDrive/Desktop/GD32VW553/V1_MQTT_OK/GD32VW55X_Wifi_BLE_SDK/GD32VW55x_RELEASE_V1.0.2/MSDK/lwip/lwip-2.1.2/src/core\dns.c **** 
  78:C:/Users/stapi/OneDrive/Desktop/GD32VW553/V1_MQTT_OK/GD32VW55X_Wifi_BLE_SDK/GD32VW55x_RELEASE_V1.0.2/MSDK/lwip/lwip-2.1.2/src/core\dns.c **** /** @todo: define good default values (rfc compliance) */
  79:C:/Users/stapi/OneDrive/Desktop/GD32VW553/V1_MQTT_OK/GD32VW55X_Wifi_BLE_SDK/GD32VW55x_RELEASE_V1.0.2/MSDK/lwip/lwip-2.1.2/src/core\dns.c **** /** @todo: improve answer parsing, more checkings... */
  80:C:/Users/stapi/OneDrive/Desktop/GD32VW553/V1_MQTT_OK/GD32VW55X_Wifi_BLE_SDK/GD32VW55x_RELEASE_V1.0.2/MSDK/lwip/lwip-2.1.2/src/core\dns.c **** /** @todo: check RFC1035 - 7.3. Processing responses */
  81:C:/Users/stapi/OneDrive/Desktop/GD32VW553/V1_MQTT_OK/GD32VW55X_Wifi_BLE_SDK/GD32VW55x_RELEASE_V1.0.2/MSDK/lwip/lwip-2.1.2/src/core\dns.c **** /** @todo: one-shot mDNS: dual-stack fallback to another IP version */
  82:C:/Users/stapi/OneDrive/Desktop/GD32VW553/V1_MQTT_OK/GD32VW55X_Wifi_BLE_SDK/GD32VW55x_RELEASE_V1.0.2/MSDK/lwip/lwip-2.1.2/src/core\dns.c **** 
  83:C:/Users/stapi/OneDrive/Desktop/GD32VW553/V1_MQTT_OK/GD32VW55X_Wifi_BLE_SDK/GD32VW55x_RELEASE_V1.0.2/MSDK/lwip/lwip-2.1.2/src/core\dns.c **** /*-----------------------------------------------------------------------------
  84:C:/Users/stapi/OneDrive/Desktop/GD32VW553/V1_MQTT_OK/GD32VW55X_Wifi_BLE_SDK/GD32VW55x_RELEASE_V1.0.2/MSDK/lwip/lwip-2.1.2/src/core\dns.c ****  * Includes
  85:C:/Users/stapi/OneDrive/Desktop/GD32VW553/V1_MQTT_OK/GD32VW55X_Wifi_BLE_SDK/GD32VW55x_RELEASE_V1.0.2/MSDK/lwip/lwip-2.1.2/src/core\dns.c ****  *----------------------------------------------------------------------------*/
  86:C:/Users/stapi/OneDrive/Desktop/GD32VW553/V1_MQTT_OK/GD32VW55X_Wifi_BLE_SDK/GD32VW55x_RELEASE_V1.0.2/MSDK/lwip/lwip-2.1.2/src/core\dns.c **** 
  87:C:/Users/stapi/OneDrive/Desktop/GD32VW553/V1_MQTT_OK/GD32VW55X_Wifi_BLE_SDK/GD32VW55x_RELEASE_V1.0.2/MSDK/lwip/lwip-2.1.2/src/core\dns.c **** #include "lwip/opt.h"
  88:C:/Users/stapi/OneDrive/Desktop/GD32VW553/V1_MQTT_OK/GD32VW55X_Wifi_BLE_SDK/GD32VW55x_RELEASE_V1.0.2/MSDK/lwip/lwip-2.1.2/src/core\dns.c **** 
  89:C:/Users/stapi/OneDrive/Desktop/GD32VW553/V1_MQTT_OK/GD32VW55X_Wifi_BLE_SDK/GD32VW55x_RELEASE_V1.0.2/MSDK/lwip/lwip-2.1.2/src/core\dns.c **** #if LWIP_DNS /* don't build if not configured for use in lwipopts.h */
  90:C:/Users/stapi/OneDrive/Desktop/GD32VW553/V1_MQTT_OK/GD32VW55X_Wifi_BLE_SDK/GD32VW55x_RELEASE_V1.0.2/MSDK/lwip/lwip-2.1.2/src/core\dns.c **** 
  91:C:/Users/stapi/OneDrive/Desktop/GD32VW553/V1_MQTT_OK/GD32VW55X_Wifi_BLE_SDK/GD32VW55x_RELEASE_V1.0.2/MSDK/lwip/lwip-2.1.2/src/core\dns.c **** #include "lwip/def.h"
  92:C:/Users/stapi/OneDrive/Desktop/GD32VW553/V1_MQTT_OK/GD32VW55X_Wifi_BLE_SDK/GD32VW55x_RELEASE_V1.0.2/MSDK/lwip/lwip-2.1.2/src/core\dns.c **** #include "lwip/udp.h"
  93:C:/Users/stapi/OneDrive/Desktop/GD32VW553/V1_MQTT_OK/GD32VW55X_Wifi_BLE_SDK/GD32VW55x_RELEASE_V1.0.2/MSDK/lwip/lwip-2.1.2/src/core\dns.c **** #include "lwip/mem.h"
  94:C:/Users/stapi/OneDrive/Desktop/GD32VW553/V1_MQTT_OK/GD32VW55X_Wifi_BLE_SDK/GD32VW55x_RELEASE_V1.0.2/MSDK/lwip/lwip-2.1.2/src/core\dns.c **** #include "lwip/memp.h"
  95:C:/Users/stapi/OneDrive/Desktop/GD32VW553/V1_MQTT_OK/GD32VW55X_Wifi_BLE_SDK/GD32VW55x_RELEASE_V1.0.2/MSDK/lwip/lwip-2.1.2/src/core\dns.c **** #include "lwip/dns.h"
  96:C:/Users/stapi/OneDrive/Desktop/GD32VW553/V1_MQTT_OK/GD32VW55X_Wifi_BLE_SDK/GD32VW55x_RELEASE_V1.0.2/MSDK/lwip/lwip-2.1.2/src/core\dns.c **** #include "lwip/prot/dns.h"
  97:C:/Users/stapi/OneDrive/Desktop/GD32VW553/V1_MQTT_OK/GD32VW55X_Wifi_BLE_SDK/GD32VW55x_RELEASE_V1.0.2/MSDK/lwip/lwip-2.1.2/src/core\dns.c **** 
  98:C:/Users/stapi/OneDrive/Desktop/GD32VW553/V1_MQTT_OK/GD32VW55X_Wifi_BLE_SDK/GD32VW55x_RELEASE_V1.0.2/MSDK/lwip/lwip-2.1.2/src/core\dns.c **** #include <string.h>
  99:C:/Users/stapi/OneDrive/Desktop/GD32VW553/V1_MQTT_OK/GD32VW55X_Wifi_BLE_SDK/GD32VW55x_RELEASE_V1.0.2/MSDK/lwip/lwip-2.1.2/src/core\dns.c **** 
 100:C:/Users/stapi/OneDrive/Desktop/GD32VW553/V1_MQTT_OK/GD32VW55X_Wifi_BLE_SDK/GD32VW55x_RELEASE_V1.0.2/MSDK/lwip/lwip-2.1.2/src/core\dns.c **** /** Random generator function to create random TXIDs and source ports for queries */
 101:C:/Users/stapi/OneDrive/Desktop/GD32VW553/V1_MQTT_OK/GD32VW55X_Wifi_BLE_SDK/GD32VW55x_RELEASE_V1.0.2/MSDK/lwip/lwip-2.1.2/src/core\dns.c **** #ifndef DNS_RAND_TXID
 102:C:/Users/stapi/OneDrive/Desktop/GD32VW553/V1_MQTT_OK/GD32VW55X_Wifi_BLE_SDK/GD32VW55x_RELEASE_V1.0.2/MSDK/lwip/lwip-2.1.2/src/core\dns.c **** #if ((LWIP_DNS_SECURE & LWIP_DNS_SECURE_RAND_XID) != 0)
 103:C:/Users/stapi/OneDrive/Desktop/GD32VW553/V1_MQTT_OK/GD32VW55X_Wifi_BLE_SDK/GD32VW55x_RELEASE_V1.0.2/MSDK/lwip/lwip-2.1.2/src/core\dns.c **** #define DNS_RAND_TXID LWIP_RAND
 104:C:/Users/stapi/OneDrive/Desktop/GD32VW553/V1_MQTT_OK/GD32VW55X_Wifi_BLE_SDK/GD32VW55x_RELEASE_V1.0.2/MSDK/lwip/lwip-2.1.2/src/core\dns.c **** #else
 105:C:/Users/stapi/OneDrive/Desktop/GD32VW553/V1_MQTT_OK/GD32VW55X_Wifi_BLE_SDK/GD32VW55x_RELEASE_V1.0.2/MSDK/lwip/lwip-2.1.2/src/core\dns.c **** static u16_t dns_txid;
 106:C:/Users/stapi/OneDrive/Desktop/GD32VW553/V1_MQTT_OK/GD32VW55X_Wifi_BLE_SDK/GD32VW55x_RELEASE_V1.0.2/MSDK/lwip/lwip-2.1.2/src/core\dns.c **** #define DNS_RAND_TXID() (++dns_txid)
 107:C:/Users/stapi/OneDrive/Desktop/GD32VW553/V1_MQTT_OK/GD32VW55X_Wifi_BLE_SDK/GD32VW55x_RELEASE_V1.0.2/MSDK/lwip/lwip-2.1.2/src/core\dns.c **** #endif
 108:C:/Users/stapi/OneDrive/Desktop/GD32VW553/V1_MQTT_OK/GD32VW55X_Wifi_BLE_SDK/GD32VW55x_RELEASE_V1.0.2/MSDK/lwip/lwip-2.1.2/src/core\dns.c **** #endif
 109:C:/Users/stapi/OneDrive/Desktop/GD32VW553/V1_MQTT_OK/GD32VW55X_Wifi_BLE_SDK/GD32VW55x_RELEASE_V1.0.2/MSDK/lwip/lwip-2.1.2/src/core\dns.c **** 
 110:C:/Users/stapi/OneDrive/Desktop/GD32VW553/V1_MQTT_OK/GD32VW55X_Wifi_BLE_SDK/GD32VW55x_RELEASE_V1.0.2/MSDK/lwip/lwip-2.1.2/src/core\dns.c **** /** Limits the source port to be >= 1024 by default */
 111:C:/Users/stapi/OneDrive/Desktop/GD32VW553/V1_MQTT_OK/GD32VW55X_Wifi_BLE_SDK/GD32VW55x_RELEASE_V1.0.2/MSDK/lwip/lwip-2.1.2/src/core\dns.c **** #ifndef DNS_PORT_ALLOWED
 112:C:/Users/stapi/OneDrive/Desktop/GD32VW553/V1_MQTT_OK/GD32VW55X_Wifi_BLE_SDK/GD32VW55x_RELEASE_V1.0.2/MSDK/lwip/lwip-2.1.2/src/core\dns.c **** #define DNS_PORT_ALLOWED(port) ((port) >= 1024)
 113:C:/Users/stapi/OneDrive/Desktop/GD32VW553/V1_MQTT_OK/GD32VW55X_Wifi_BLE_SDK/GD32VW55x_RELEASE_V1.0.2/MSDK/lwip/lwip-2.1.2/src/core\dns.c **** #endif
 114:C:/Users/stapi/OneDrive/Desktop/GD32VW553/V1_MQTT_OK/GD32VW55X_Wifi_BLE_SDK/GD32VW55x_RELEASE_V1.0.2/MSDK/lwip/lwip-2.1.2/src/core\dns.c **** 
 115:C:/Users/stapi/OneDrive/Desktop/GD32VW553/V1_MQTT_OK/GD32VW55X_Wifi_BLE_SDK/GD32VW55x_RELEASE_V1.0.2/MSDK/lwip/lwip-2.1.2/src/core\dns.c **** /** DNS resource record max. TTL (one week as default) */
 116:C:/Users/stapi/OneDrive/Desktop/GD32VW553/V1_MQTT_OK/GD32VW55X_Wifi_BLE_SDK/GD32VW55x_RELEASE_V1.0.2/MSDK/lwip/lwip-2.1.2/src/core\dns.c **** #ifndef DNS_MAX_TTL
 117:C:/Users/stapi/OneDrive/Desktop/GD32VW553/V1_MQTT_OK/GD32VW55X_Wifi_BLE_SDK/GD32VW55x_RELEASE_V1.0.2/MSDK/lwip/lwip-2.1.2/src/core\dns.c **** #define DNS_MAX_TTL               604800
 118:C:/Users/stapi/OneDrive/Desktop/GD32VW553/V1_MQTT_OK/GD32VW55X_Wifi_BLE_SDK/GD32VW55x_RELEASE_V1.0.2/MSDK/lwip/lwip-2.1.2/src/core\dns.c **** #elif DNS_MAX_TTL > 0x7FFFFFFF
 119:C:/Users/stapi/OneDrive/Desktop/GD32VW553/V1_MQTT_OK/GD32VW55X_Wifi_BLE_SDK/GD32VW55x_RELEASE_V1.0.2/MSDK/lwip/lwip-2.1.2/src/core\dns.c **** #error DNS_MAX_TTL must be a positive 32-bit value
 120:C:/Users/stapi/OneDrive/Desktop/GD32VW553/V1_MQTT_OK/GD32VW55X_Wifi_BLE_SDK/GD32VW55x_RELEASE_V1.0.2/MSDK/lwip/lwip-2.1.2/src/core\dns.c **** #endif
 121:C:/Users/stapi/OneDrive/Desktop/GD32VW553/V1_MQTT_OK/GD32VW55X_Wifi_BLE_SDK/GD32VW55x_RELEASE_V1.0.2/MSDK/lwip/lwip-2.1.2/src/core\dns.c **** 
 122:C:/Users/stapi/OneDrive/Desktop/GD32VW553/V1_MQTT_OK/GD32VW55X_Wifi_BLE_SDK/GD32VW55x_RELEASE_V1.0.2/MSDK/lwip/lwip-2.1.2/src/core\dns.c **** #if DNS_TABLE_SIZE > 255
 123:C:/Users/stapi/OneDrive/Desktop/GD32VW553/V1_MQTT_OK/GD32VW55X_Wifi_BLE_SDK/GD32VW55x_RELEASE_V1.0.2/MSDK/lwip/lwip-2.1.2/src/core\dns.c **** #error DNS_TABLE_SIZE must fit into an u8_t
 124:C:/Users/stapi/OneDrive/Desktop/GD32VW553/V1_MQTT_OK/GD32VW55X_Wifi_BLE_SDK/GD32VW55x_RELEASE_V1.0.2/MSDK/lwip/lwip-2.1.2/src/core\dns.c **** #endif
 125:C:/Users/stapi/OneDrive/Desktop/GD32VW553/V1_MQTT_OK/GD32VW55X_Wifi_BLE_SDK/GD32VW55x_RELEASE_V1.0.2/MSDK/lwip/lwip-2.1.2/src/core\dns.c **** #if DNS_MAX_SERVERS > 255
 126:C:/Users/stapi/OneDrive/Desktop/GD32VW553/V1_MQTT_OK/GD32VW55X_Wifi_BLE_SDK/GD32VW55x_RELEASE_V1.0.2/MSDK/lwip/lwip-2.1.2/src/core\dns.c **** #error DNS_MAX_SERVERS must fit into an u8_t
 127:C:/Users/stapi/OneDrive/Desktop/GD32VW553/V1_MQTT_OK/GD32VW55X_Wifi_BLE_SDK/GD32VW55x_RELEASE_V1.0.2/MSDK/lwip/lwip-2.1.2/src/core\dns.c **** #endif
 128:C:/Users/stapi/OneDrive/Desktop/GD32VW553/V1_MQTT_OK/GD32VW55X_Wifi_BLE_SDK/GD32VW55x_RELEASE_V1.0.2/MSDK/lwip/lwip-2.1.2/src/core\dns.c **** 
 129:C:/Users/stapi/OneDrive/Desktop/GD32VW553/V1_MQTT_OK/GD32VW55X_Wifi_BLE_SDK/GD32VW55x_RELEASE_V1.0.2/MSDK/lwip/lwip-2.1.2/src/core\dns.c **** /* The number of parallel requests (i.e. calls to dns_gethostbyname
 130:C:/Users/stapi/OneDrive/Desktop/GD32VW553/V1_MQTT_OK/GD32VW55X_Wifi_BLE_SDK/GD32VW55x_RELEASE_V1.0.2/MSDK/lwip/lwip-2.1.2/src/core\dns.c ****  * that cannot be answered from the DNS table.
 131:C:/Users/stapi/OneDrive/Desktop/GD32VW553/V1_MQTT_OK/GD32VW55X_Wifi_BLE_SDK/GD32VW55x_RELEASE_V1.0.2/MSDK/lwip/lwip-2.1.2/src/core\dns.c ****  * This is set to the table size by default.
 132:C:/Users/stapi/OneDrive/Desktop/GD32VW553/V1_MQTT_OK/GD32VW55X_Wifi_BLE_SDK/GD32VW55x_RELEASE_V1.0.2/MSDK/lwip/lwip-2.1.2/src/core\dns.c ****  */
 133:C:/Users/stapi/OneDrive/Desktop/GD32VW553/V1_MQTT_OK/GD32VW55X_Wifi_BLE_SDK/GD32VW55x_RELEASE_V1.0.2/MSDK/lwip/lwip-2.1.2/src/core\dns.c **** #if ((LWIP_DNS_SECURE & LWIP_DNS_SECURE_NO_MULTIPLE_OUTSTANDING) != 0)
 134:C:/Users/stapi/OneDrive/Desktop/GD32VW553/V1_MQTT_OK/GD32VW55X_Wifi_BLE_SDK/GD32VW55x_RELEASE_V1.0.2/MSDK/lwip/lwip-2.1.2/src/core\dns.c **** #ifndef DNS_MAX_REQUESTS
 135:C:/Users/stapi/OneDrive/Desktop/GD32VW553/V1_MQTT_OK/GD32VW55X_Wifi_BLE_SDK/GD32VW55x_RELEASE_V1.0.2/MSDK/lwip/lwip-2.1.2/src/core\dns.c **** #define DNS_MAX_REQUESTS          DNS_TABLE_SIZE
 136:C:/Users/stapi/OneDrive/Desktop/GD32VW553/V1_MQTT_OK/GD32VW55X_Wifi_BLE_SDK/GD32VW55x_RELEASE_V1.0.2/MSDK/lwip/lwip-2.1.2/src/core\dns.c **** #else
 137:C:/Users/stapi/OneDrive/Desktop/GD32VW553/V1_MQTT_OK/GD32VW55X_Wifi_BLE_SDK/GD32VW55x_RELEASE_V1.0.2/MSDK/lwip/lwip-2.1.2/src/core\dns.c **** #if DNS_MAX_REQUESTS > 255
 138:C:/Users/stapi/OneDrive/Desktop/GD32VW553/V1_MQTT_OK/GD32VW55X_Wifi_BLE_SDK/GD32VW55x_RELEASE_V1.0.2/MSDK/lwip/lwip-2.1.2/src/core\dns.c **** #error DNS_MAX_REQUESTS must fit into an u8_t
 139:C:/Users/stapi/OneDrive/Desktop/GD32VW553/V1_MQTT_OK/GD32VW55X_Wifi_BLE_SDK/GD32VW55x_RELEASE_V1.0.2/MSDK/lwip/lwip-2.1.2/src/core\dns.c **** #endif
 140:C:/Users/stapi/OneDrive/Desktop/GD32VW553/V1_MQTT_OK/GD32VW55X_Wifi_BLE_SDK/GD32VW55x_RELEASE_V1.0.2/MSDK/lwip/lwip-2.1.2/src/core\dns.c **** #endif
 141:C:/Users/stapi/OneDrive/Desktop/GD32VW553/V1_MQTT_OK/GD32VW55X_Wifi_BLE_SDK/GD32VW55x_RELEASE_V1.0.2/MSDK/lwip/lwip-2.1.2/src/core\dns.c **** #else
 142:C:/Users/stapi/OneDrive/Desktop/GD32VW553/V1_MQTT_OK/GD32VW55X_Wifi_BLE_SDK/GD32VW55x_RELEASE_V1.0.2/MSDK/lwip/lwip-2.1.2/src/core\dns.c **** /* In this configuration, both arrays have to have the same size and are used
 143:C:/Users/stapi/OneDrive/Desktop/GD32VW553/V1_MQTT_OK/GD32VW55X_Wifi_BLE_SDK/GD32VW55x_RELEASE_V1.0.2/MSDK/lwip/lwip-2.1.2/src/core\dns.c ****  * like one entry (used/free) */
 144:C:/Users/stapi/OneDrive/Desktop/GD32VW553/V1_MQTT_OK/GD32VW55X_Wifi_BLE_SDK/GD32VW55x_RELEASE_V1.0.2/MSDK/lwip/lwip-2.1.2/src/core\dns.c **** #define DNS_MAX_REQUESTS          DNS_TABLE_SIZE
 145:C:/Users/stapi/OneDrive/Desktop/GD32VW553/V1_MQTT_OK/GD32VW55X_Wifi_BLE_SDK/GD32VW55x_RELEASE_V1.0.2/MSDK/lwip/lwip-2.1.2/src/core\dns.c **** #endif
 146:C:/Users/stapi/OneDrive/Desktop/GD32VW553/V1_MQTT_OK/GD32VW55X_Wifi_BLE_SDK/GD32VW55x_RELEASE_V1.0.2/MSDK/lwip/lwip-2.1.2/src/core\dns.c **** 
 147:C:/Users/stapi/OneDrive/Desktop/GD32VW553/V1_MQTT_OK/GD32VW55X_Wifi_BLE_SDK/GD32VW55x_RELEASE_V1.0.2/MSDK/lwip/lwip-2.1.2/src/core\dns.c **** /* The number of UDP source ports used in parallel */
 148:C:/Users/stapi/OneDrive/Desktop/GD32VW553/V1_MQTT_OK/GD32VW55X_Wifi_BLE_SDK/GD32VW55x_RELEASE_V1.0.2/MSDK/lwip/lwip-2.1.2/src/core\dns.c **** #if ((LWIP_DNS_SECURE & LWIP_DNS_SECURE_RAND_SRC_PORT) != 0)
 149:C:/Users/stapi/OneDrive/Desktop/GD32VW553/V1_MQTT_OK/GD32VW55X_Wifi_BLE_SDK/GD32VW55x_RELEASE_V1.0.2/MSDK/lwip/lwip-2.1.2/src/core\dns.c **** #ifndef DNS_MAX_SOURCE_PORTS
 150:C:/Users/stapi/OneDrive/Desktop/GD32VW553/V1_MQTT_OK/GD32VW55X_Wifi_BLE_SDK/GD32VW55x_RELEASE_V1.0.2/MSDK/lwip/lwip-2.1.2/src/core\dns.c **** #define DNS_MAX_SOURCE_PORTS      DNS_MAX_REQUESTS
 151:C:/Users/stapi/OneDrive/Desktop/GD32VW553/V1_MQTT_OK/GD32VW55X_Wifi_BLE_SDK/GD32VW55x_RELEASE_V1.0.2/MSDK/lwip/lwip-2.1.2/src/core\dns.c **** #else
 152:C:/Users/stapi/OneDrive/Desktop/GD32VW553/V1_MQTT_OK/GD32VW55X_Wifi_BLE_SDK/GD32VW55x_RELEASE_V1.0.2/MSDK/lwip/lwip-2.1.2/src/core\dns.c **** #if DNS_MAX_SOURCE_PORTS > 255
 153:C:/Users/stapi/OneDrive/Desktop/GD32VW553/V1_MQTT_OK/GD32VW55X_Wifi_BLE_SDK/GD32VW55x_RELEASE_V1.0.2/MSDK/lwip/lwip-2.1.2/src/core\dns.c **** #error DNS_MAX_SOURCE_PORTS must fit into an u8_t
 154:C:/Users/stapi/OneDrive/Desktop/GD32VW553/V1_MQTT_OK/GD32VW55X_Wifi_BLE_SDK/GD32VW55x_RELEASE_V1.0.2/MSDK/lwip/lwip-2.1.2/src/core\dns.c **** #endif
 155:C:/Users/stapi/OneDrive/Desktop/GD32VW553/V1_MQTT_OK/GD32VW55X_Wifi_BLE_SDK/GD32VW55x_RELEASE_V1.0.2/MSDK/lwip/lwip-2.1.2/src/core\dns.c **** #endif
 156:C:/Users/stapi/OneDrive/Desktop/GD32VW553/V1_MQTT_OK/GD32VW55X_Wifi_BLE_SDK/GD32VW55x_RELEASE_V1.0.2/MSDK/lwip/lwip-2.1.2/src/core\dns.c **** #else
 157:C:/Users/stapi/OneDrive/Desktop/GD32VW553/V1_MQTT_OK/GD32VW55X_Wifi_BLE_SDK/GD32VW55x_RELEASE_V1.0.2/MSDK/lwip/lwip-2.1.2/src/core\dns.c **** #ifdef DNS_MAX_SOURCE_PORTS
 158:C:/Users/stapi/OneDrive/Desktop/GD32VW553/V1_MQTT_OK/GD32VW55X_Wifi_BLE_SDK/GD32VW55x_RELEASE_V1.0.2/MSDK/lwip/lwip-2.1.2/src/core\dns.c **** #undef DNS_MAX_SOURCE_PORTS
 159:C:/Users/stapi/OneDrive/Desktop/GD32VW553/V1_MQTT_OK/GD32VW55X_Wifi_BLE_SDK/GD32VW55x_RELEASE_V1.0.2/MSDK/lwip/lwip-2.1.2/src/core\dns.c **** #endif
 160:C:/Users/stapi/OneDrive/Desktop/GD32VW553/V1_MQTT_OK/GD32VW55X_Wifi_BLE_SDK/GD32VW55x_RELEASE_V1.0.2/MSDK/lwip/lwip-2.1.2/src/core\dns.c **** #define DNS_MAX_SOURCE_PORTS      1
 161:C:/Users/stapi/OneDrive/Desktop/GD32VW553/V1_MQTT_OK/GD32VW55X_Wifi_BLE_SDK/GD32VW55x_RELEASE_V1.0.2/MSDK/lwip/lwip-2.1.2/src/core\dns.c **** #endif
 162:C:/Users/stapi/OneDrive/Desktop/GD32VW553/V1_MQTT_OK/GD32VW55X_Wifi_BLE_SDK/GD32VW55x_RELEASE_V1.0.2/MSDK/lwip/lwip-2.1.2/src/core\dns.c **** 
 163:C:/Users/stapi/OneDrive/Desktop/GD32VW553/V1_MQTT_OK/GD32VW55X_Wifi_BLE_SDK/GD32VW55x_RELEASE_V1.0.2/MSDK/lwip/lwip-2.1.2/src/core\dns.c **** #if LWIP_IPV4 && LWIP_IPV6
 164:C:/Users/stapi/OneDrive/Desktop/GD32VW553/V1_MQTT_OK/GD32VW55X_Wifi_BLE_SDK/GD32VW55x_RELEASE_V1.0.2/MSDK/lwip/lwip-2.1.2/src/core\dns.c **** #define LWIP_DNS_ADDRTYPE_IS_IPV6(t) (((t) == LWIP_DNS_ADDRTYPE_IPV6_IPV4) || ((t) == LWIP_DNS_ADDR
 165:C:/Users/stapi/OneDrive/Desktop/GD32VW553/V1_MQTT_OK/GD32VW55X_Wifi_BLE_SDK/GD32VW55x_RELEASE_V1.0.2/MSDK/lwip/lwip-2.1.2/src/core\dns.c **** #define LWIP_DNS_ADDRTYPE_MATCH_IP(t, ip) (IP_IS_V6_VAL(ip) ? LWIP_DNS_ADDRTYPE_IS_IPV6(t) : (!LWIP
 166:C:/Users/stapi/OneDrive/Desktop/GD32VW553/V1_MQTT_OK/GD32VW55X_Wifi_BLE_SDK/GD32VW55x_RELEASE_V1.0.2/MSDK/lwip/lwip-2.1.2/src/core\dns.c **** #define LWIP_DNS_ADDRTYPE_ARG(x) , x
 167:C:/Users/stapi/OneDrive/Desktop/GD32VW553/V1_MQTT_OK/GD32VW55X_Wifi_BLE_SDK/GD32VW55x_RELEASE_V1.0.2/MSDK/lwip/lwip-2.1.2/src/core\dns.c **** #define LWIP_DNS_ADDRTYPE_ARG_OR_ZERO(x) x
 168:C:/Users/stapi/OneDrive/Desktop/GD32VW553/V1_MQTT_OK/GD32VW55X_Wifi_BLE_SDK/GD32VW55x_RELEASE_V1.0.2/MSDK/lwip/lwip-2.1.2/src/core\dns.c **** #define LWIP_DNS_SET_ADDRTYPE(x, y) do { x = y; } while(0)
 169:C:/Users/stapi/OneDrive/Desktop/GD32VW553/V1_MQTT_OK/GD32VW55X_Wifi_BLE_SDK/GD32VW55x_RELEASE_V1.0.2/MSDK/lwip/lwip-2.1.2/src/core\dns.c **** #else
 170:C:/Users/stapi/OneDrive/Desktop/GD32VW553/V1_MQTT_OK/GD32VW55X_Wifi_BLE_SDK/GD32VW55x_RELEASE_V1.0.2/MSDK/lwip/lwip-2.1.2/src/core\dns.c **** #if LWIP_IPV6
 171:C:/Users/stapi/OneDrive/Desktop/GD32VW553/V1_MQTT_OK/GD32VW55X_Wifi_BLE_SDK/GD32VW55x_RELEASE_V1.0.2/MSDK/lwip/lwip-2.1.2/src/core\dns.c **** #define LWIP_DNS_ADDRTYPE_IS_IPV6(t) 1
 172:C:/Users/stapi/OneDrive/Desktop/GD32VW553/V1_MQTT_OK/GD32VW55X_Wifi_BLE_SDK/GD32VW55x_RELEASE_V1.0.2/MSDK/lwip/lwip-2.1.2/src/core\dns.c **** #else
 173:C:/Users/stapi/OneDrive/Desktop/GD32VW553/V1_MQTT_OK/GD32VW55X_Wifi_BLE_SDK/GD32VW55x_RELEASE_V1.0.2/MSDK/lwip/lwip-2.1.2/src/core\dns.c **** #define LWIP_DNS_ADDRTYPE_IS_IPV6(t) 0
 174:C:/Users/stapi/OneDrive/Desktop/GD32VW553/V1_MQTT_OK/GD32VW55X_Wifi_BLE_SDK/GD32VW55x_RELEASE_V1.0.2/MSDK/lwip/lwip-2.1.2/src/core\dns.c **** #endif
 175:C:/Users/stapi/OneDrive/Desktop/GD32VW553/V1_MQTT_OK/GD32VW55X_Wifi_BLE_SDK/GD32VW55x_RELEASE_V1.0.2/MSDK/lwip/lwip-2.1.2/src/core\dns.c **** #define LWIP_DNS_ADDRTYPE_MATCH_IP(t, ip) 1
 176:C:/Users/stapi/OneDrive/Desktop/GD32VW553/V1_MQTT_OK/GD32VW55X_Wifi_BLE_SDK/GD32VW55x_RELEASE_V1.0.2/MSDK/lwip/lwip-2.1.2/src/core\dns.c **** #define LWIP_DNS_ADDRTYPE_ARG(x)
 177:C:/Users/stapi/OneDrive/Desktop/GD32VW553/V1_MQTT_OK/GD32VW55X_Wifi_BLE_SDK/GD32VW55x_RELEASE_V1.0.2/MSDK/lwip/lwip-2.1.2/src/core\dns.c **** #define LWIP_DNS_ADDRTYPE_ARG_OR_ZERO(x) 0
 178:C:/Users/stapi/OneDrive/Desktop/GD32VW553/V1_MQTT_OK/GD32VW55X_Wifi_BLE_SDK/GD32VW55x_RELEASE_V1.0.2/MSDK/lwip/lwip-2.1.2/src/core\dns.c **** #define LWIP_DNS_SET_ADDRTYPE(x, y)
 179:C:/Users/stapi/OneDrive/Desktop/GD32VW553/V1_MQTT_OK/GD32VW55X_Wifi_BLE_SDK/GD32VW55x_RELEASE_V1.0.2/MSDK/lwip/lwip-2.1.2/src/core\dns.c **** #endif /* LWIP_IPV4 && LWIP_IPV6 */
 180:C:/Users/stapi/OneDrive/Desktop/GD32VW553/V1_MQTT_OK/GD32VW55X_Wifi_BLE_SDK/GD32VW55x_RELEASE_V1.0.2/MSDK/lwip/lwip-2.1.2/src/core\dns.c **** 
 181:C:/Users/stapi/OneDrive/Desktop/GD32VW553/V1_MQTT_OK/GD32VW55X_Wifi_BLE_SDK/GD32VW55x_RELEASE_V1.0.2/MSDK/lwip/lwip-2.1.2/src/core\dns.c **** #if LWIP_DNS_SUPPORT_MDNS_QUERIES
 182:C:/Users/stapi/OneDrive/Desktop/GD32VW553/V1_MQTT_OK/GD32VW55X_Wifi_BLE_SDK/GD32VW55x_RELEASE_V1.0.2/MSDK/lwip/lwip-2.1.2/src/core\dns.c **** #define LWIP_DNS_ISMDNS_ARG(x) , x
 183:C:/Users/stapi/OneDrive/Desktop/GD32VW553/V1_MQTT_OK/GD32VW55X_Wifi_BLE_SDK/GD32VW55x_RELEASE_V1.0.2/MSDK/lwip/lwip-2.1.2/src/core\dns.c **** #else
 184:C:/Users/stapi/OneDrive/Desktop/GD32VW553/V1_MQTT_OK/GD32VW55X_Wifi_BLE_SDK/GD32VW55x_RELEASE_V1.0.2/MSDK/lwip/lwip-2.1.2/src/core\dns.c **** #define LWIP_DNS_ISMDNS_ARG(x)
 185:C:/Users/stapi/OneDrive/Desktop/GD32VW553/V1_MQTT_OK/GD32VW55X_Wifi_BLE_SDK/GD32VW55x_RELEASE_V1.0.2/MSDK/lwip/lwip-2.1.2/src/core\dns.c **** #endif
 186:C:/Users/stapi/OneDrive/Desktop/GD32VW553/V1_MQTT_OK/GD32VW55X_Wifi_BLE_SDK/GD32VW55x_RELEASE_V1.0.2/MSDK/lwip/lwip-2.1.2/src/core\dns.c **** 
 187:C:/Users/stapi/OneDrive/Desktop/GD32VW553/V1_MQTT_OK/GD32VW55X_Wifi_BLE_SDK/GD32VW55x_RELEASE_V1.0.2/MSDK/lwip/lwip-2.1.2/src/core\dns.c **** /** DNS query message structure.
 188:C:/Users/stapi/OneDrive/Desktop/GD32VW553/V1_MQTT_OK/GD32VW55X_Wifi_BLE_SDK/GD32VW55x_RELEASE_V1.0.2/MSDK/lwip/lwip-2.1.2/src/core\dns.c ****     No packing needed: only used locally on the stack. */
 189:C:/Users/stapi/OneDrive/Desktop/GD32VW553/V1_MQTT_OK/GD32VW55X_Wifi_BLE_SDK/GD32VW55x_RELEASE_V1.0.2/MSDK/lwip/lwip-2.1.2/src/core\dns.c **** struct dns_query {
 190:C:/Users/stapi/OneDrive/Desktop/GD32VW553/V1_MQTT_OK/GD32VW55X_Wifi_BLE_SDK/GD32VW55x_RELEASE_V1.0.2/MSDK/lwip/lwip-2.1.2/src/core\dns.c ****   /* DNS query record starts with either a domain name or a pointer
 191:C:/Users/stapi/OneDrive/Desktop/GD32VW553/V1_MQTT_OK/GD32VW55X_Wifi_BLE_SDK/GD32VW55x_RELEASE_V1.0.2/MSDK/lwip/lwip-2.1.2/src/core\dns.c ****      to a name already present somewhere in the packet. */
 192:C:/Users/stapi/OneDrive/Desktop/GD32VW553/V1_MQTT_OK/GD32VW55X_Wifi_BLE_SDK/GD32VW55x_RELEASE_V1.0.2/MSDK/lwip/lwip-2.1.2/src/core\dns.c ****   u16_t type;
 193:C:/Users/stapi/OneDrive/Desktop/GD32VW553/V1_MQTT_OK/GD32VW55X_Wifi_BLE_SDK/GD32VW55x_RELEASE_V1.0.2/MSDK/lwip/lwip-2.1.2/src/core\dns.c ****   u16_t cls;
 194:C:/Users/stapi/OneDrive/Desktop/GD32VW553/V1_MQTT_OK/GD32VW55X_Wifi_BLE_SDK/GD32VW55x_RELEASE_V1.0.2/MSDK/lwip/lwip-2.1.2/src/core\dns.c **** };
 195:C:/Users/stapi/OneDrive/Desktop/GD32VW553/V1_MQTT_OK/GD32VW55X_Wifi_BLE_SDK/GD32VW55x_RELEASE_V1.0.2/MSDK/lwip/lwip-2.1.2/src/core\dns.c **** #define SIZEOF_DNS_QUERY 4
 196:C:/Users/stapi/OneDrive/Desktop/GD32VW553/V1_MQTT_OK/GD32VW55X_Wifi_BLE_SDK/GD32VW55x_RELEASE_V1.0.2/MSDK/lwip/lwip-2.1.2/src/core\dns.c **** 
 197:C:/Users/stapi/OneDrive/Desktop/GD32VW553/V1_MQTT_OK/GD32VW55X_Wifi_BLE_SDK/GD32VW55x_RELEASE_V1.0.2/MSDK/lwip/lwip-2.1.2/src/core\dns.c **** /** DNS answer message structure.
 198:C:/Users/stapi/OneDrive/Desktop/GD32VW553/V1_MQTT_OK/GD32VW55X_Wifi_BLE_SDK/GD32VW55x_RELEASE_V1.0.2/MSDK/lwip/lwip-2.1.2/src/core\dns.c ****     No packing needed: only used locally on the stack. */
 199:C:/Users/stapi/OneDrive/Desktop/GD32VW553/V1_MQTT_OK/GD32VW55X_Wifi_BLE_SDK/GD32VW55x_RELEASE_V1.0.2/MSDK/lwip/lwip-2.1.2/src/core\dns.c **** struct dns_answer {
 200:C:/Users/stapi/OneDrive/Desktop/GD32VW553/V1_MQTT_OK/GD32VW55X_Wifi_BLE_SDK/GD32VW55x_RELEASE_V1.0.2/MSDK/lwip/lwip-2.1.2/src/core\dns.c ****   /* DNS answer record starts with either a domain name or a pointer
 201:C:/Users/stapi/OneDrive/Desktop/GD32VW553/V1_MQTT_OK/GD32VW55X_Wifi_BLE_SDK/GD32VW55x_RELEASE_V1.0.2/MSDK/lwip/lwip-2.1.2/src/core\dns.c ****      to a name already present somewhere in the packet. */
 202:C:/Users/stapi/OneDrive/Desktop/GD32VW553/V1_MQTT_OK/GD32VW55X_Wifi_BLE_SDK/GD32VW55x_RELEASE_V1.0.2/MSDK/lwip/lwip-2.1.2/src/core\dns.c ****   u16_t type;
 203:C:/Users/stapi/OneDrive/Desktop/GD32VW553/V1_MQTT_OK/GD32VW55X_Wifi_BLE_SDK/GD32VW55x_RELEASE_V1.0.2/MSDK/lwip/lwip-2.1.2/src/core\dns.c ****   u16_t cls;
 204:C:/Users/stapi/OneDrive/Desktop/GD32VW553/V1_MQTT_OK/GD32VW55X_Wifi_BLE_SDK/GD32VW55x_RELEASE_V1.0.2/MSDK/lwip/lwip-2.1.2/src/core\dns.c ****   u32_t ttl;
 205:C:/Users/stapi/OneDrive/Desktop/GD32VW553/V1_MQTT_OK/GD32VW55X_Wifi_BLE_SDK/GD32VW55x_RELEASE_V1.0.2/MSDK/lwip/lwip-2.1.2/src/core\dns.c ****   u16_t len;
 206:C:/Users/stapi/OneDrive/Desktop/GD32VW553/V1_MQTT_OK/GD32VW55X_Wifi_BLE_SDK/GD32VW55x_RELEASE_V1.0.2/MSDK/lwip/lwip-2.1.2/src/core\dns.c **** };
 207:C:/Users/stapi/OneDrive/Desktop/GD32VW553/V1_MQTT_OK/GD32VW55X_Wifi_BLE_SDK/GD32VW55x_RELEASE_V1.0.2/MSDK/lwip/lwip-2.1.2/src/core\dns.c **** #define SIZEOF_DNS_ANSWER 10
 208:C:/Users/stapi/OneDrive/Desktop/GD32VW553/V1_MQTT_OK/GD32VW55X_Wifi_BLE_SDK/GD32VW55x_RELEASE_V1.0.2/MSDK/lwip/lwip-2.1.2/src/core\dns.c **** /* maximum allowed size for the struct due to non-packed */
 209:C:/Users/stapi/OneDrive/Desktop/GD32VW553/V1_MQTT_OK/GD32VW55X_Wifi_BLE_SDK/GD32VW55x_RELEASE_V1.0.2/MSDK/lwip/lwip-2.1.2/src/core\dns.c **** #define SIZEOF_DNS_ANSWER_ASSERT 12
 210:C:/Users/stapi/OneDrive/Desktop/GD32VW553/V1_MQTT_OK/GD32VW55X_Wifi_BLE_SDK/GD32VW55x_RELEASE_V1.0.2/MSDK/lwip/lwip-2.1.2/src/core\dns.c **** 
 211:C:/Users/stapi/OneDrive/Desktop/GD32VW553/V1_MQTT_OK/GD32VW55X_Wifi_BLE_SDK/GD32VW55x_RELEASE_V1.0.2/MSDK/lwip/lwip-2.1.2/src/core\dns.c **** /* DNS table entry states */
 212:C:/Users/stapi/OneDrive/Desktop/GD32VW553/V1_MQTT_OK/GD32VW55X_Wifi_BLE_SDK/GD32VW55x_RELEASE_V1.0.2/MSDK/lwip/lwip-2.1.2/src/core\dns.c **** typedef enum {
 213:C:/Users/stapi/OneDrive/Desktop/GD32VW553/V1_MQTT_OK/GD32VW55X_Wifi_BLE_SDK/GD32VW55x_RELEASE_V1.0.2/MSDK/lwip/lwip-2.1.2/src/core\dns.c ****   DNS_STATE_UNUSED           = 0,
 214:C:/Users/stapi/OneDrive/Desktop/GD32VW553/V1_MQTT_OK/GD32VW55X_Wifi_BLE_SDK/GD32VW55x_RELEASE_V1.0.2/MSDK/lwip/lwip-2.1.2/src/core\dns.c ****   DNS_STATE_NEW              = 1,
 215:C:/Users/stapi/OneDrive/Desktop/GD32VW553/V1_MQTT_OK/GD32VW55X_Wifi_BLE_SDK/GD32VW55x_RELEASE_V1.0.2/MSDK/lwip/lwip-2.1.2/src/core\dns.c ****   DNS_STATE_ASKING           = 2,
 216:C:/Users/stapi/OneDrive/Desktop/GD32VW553/V1_MQTT_OK/GD32VW55X_Wifi_BLE_SDK/GD32VW55x_RELEASE_V1.0.2/MSDK/lwip/lwip-2.1.2/src/core\dns.c ****   DNS_STATE_DONE             = 3
 217:C:/Users/stapi/OneDrive/Desktop/GD32VW553/V1_MQTT_OK/GD32VW55X_Wifi_BLE_SDK/GD32VW55x_RELEASE_V1.0.2/MSDK/lwip/lwip-2.1.2/src/core\dns.c **** } dns_state_enum_t;
 218:C:/Users/stapi/OneDrive/Desktop/GD32VW553/V1_MQTT_OK/GD32VW55X_Wifi_BLE_SDK/GD32VW55x_RELEASE_V1.0.2/MSDK/lwip/lwip-2.1.2/src/core\dns.c **** 
 219:C:/Users/stapi/OneDrive/Desktop/GD32VW553/V1_MQTT_OK/GD32VW55X_Wifi_BLE_SDK/GD32VW55x_RELEASE_V1.0.2/MSDK/lwip/lwip-2.1.2/src/core\dns.c **** /** DNS table entry */
 220:C:/Users/stapi/OneDrive/Desktop/GD32VW553/V1_MQTT_OK/GD32VW55X_Wifi_BLE_SDK/GD32VW55x_RELEASE_V1.0.2/MSDK/lwip/lwip-2.1.2/src/core\dns.c **** struct dns_table_entry {
 221:C:/Users/stapi/OneDrive/Desktop/GD32VW553/V1_MQTT_OK/GD32VW55X_Wifi_BLE_SDK/GD32VW55x_RELEASE_V1.0.2/MSDK/lwip/lwip-2.1.2/src/core\dns.c ****   u32_t ttl;
 222:C:/Users/stapi/OneDrive/Desktop/GD32VW553/V1_MQTT_OK/GD32VW55X_Wifi_BLE_SDK/GD32VW55x_RELEASE_V1.0.2/MSDK/lwip/lwip-2.1.2/src/core\dns.c ****   ip_addr_t ipaddr;
 223:C:/Users/stapi/OneDrive/Desktop/GD32VW553/V1_MQTT_OK/GD32VW55X_Wifi_BLE_SDK/GD32VW55x_RELEASE_V1.0.2/MSDK/lwip/lwip-2.1.2/src/core\dns.c ****   u16_t txid;
 224:C:/Users/stapi/OneDrive/Desktop/GD32VW553/V1_MQTT_OK/GD32VW55X_Wifi_BLE_SDK/GD32VW55x_RELEASE_V1.0.2/MSDK/lwip/lwip-2.1.2/src/core\dns.c ****   u8_t  state;
 225:C:/Users/stapi/OneDrive/Desktop/GD32VW553/V1_MQTT_OK/GD32VW55X_Wifi_BLE_SDK/GD32VW55x_RELEASE_V1.0.2/MSDK/lwip/lwip-2.1.2/src/core\dns.c ****   u8_t  server_idx;
 226:C:/Users/stapi/OneDrive/Desktop/GD32VW553/V1_MQTT_OK/GD32VW55X_Wifi_BLE_SDK/GD32VW55x_RELEASE_V1.0.2/MSDK/lwip/lwip-2.1.2/src/core\dns.c ****   u8_t  tmr;
 227:C:/Users/stapi/OneDrive/Desktop/GD32VW553/V1_MQTT_OK/GD32VW55X_Wifi_BLE_SDK/GD32VW55x_RELEASE_V1.0.2/MSDK/lwip/lwip-2.1.2/src/core\dns.c ****   u8_t  retries;
 228:C:/Users/stapi/OneDrive/Desktop/GD32VW553/V1_MQTT_OK/GD32VW55X_Wifi_BLE_SDK/GD32VW55x_RELEASE_V1.0.2/MSDK/lwip/lwip-2.1.2/src/core\dns.c ****   u8_t  seqno;
 229:C:/Users/stapi/OneDrive/Desktop/GD32VW553/V1_MQTT_OK/GD32VW55X_Wifi_BLE_SDK/GD32VW55x_RELEASE_V1.0.2/MSDK/lwip/lwip-2.1.2/src/core\dns.c **** #if ((LWIP_DNS_SECURE & LWIP_DNS_SECURE_RAND_SRC_PORT) != 0)
 230:C:/Users/stapi/OneDrive/Desktop/GD32VW553/V1_MQTT_OK/GD32VW55X_Wifi_BLE_SDK/GD32VW55x_RELEASE_V1.0.2/MSDK/lwip/lwip-2.1.2/src/core\dns.c ****   u8_t pcb_idx;
 231:C:/Users/stapi/OneDrive/Desktop/GD32VW553/V1_MQTT_OK/GD32VW55X_Wifi_BLE_SDK/GD32VW55x_RELEASE_V1.0.2/MSDK/lwip/lwip-2.1.2/src/core\dns.c **** #endif
 232:C:/Users/stapi/OneDrive/Desktop/GD32VW553/V1_MQTT_OK/GD32VW55X_Wifi_BLE_SDK/GD32VW55x_RELEASE_V1.0.2/MSDK/lwip/lwip-2.1.2/src/core\dns.c ****   char name[DNS_MAX_NAME_LENGTH];
 233:C:/Users/stapi/OneDrive/Desktop/GD32VW553/V1_MQTT_OK/GD32VW55X_Wifi_BLE_SDK/GD32VW55x_RELEASE_V1.0.2/MSDK/lwip/lwip-2.1.2/src/core\dns.c **** #if LWIP_IPV4 && LWIP_IPV6
 234:C:/Users/stapi/OneDrive/Desktop/GD32VW553/V1_MQTT_OK/GD32VW55X_Wifi_BLE_SDK/GD32VW55x_RELEASE_V1.0.2/MSDK/lwip/lwip-2.1.2/src/core\dns.c ****   u8_t reqaddrtype;
 235:C:/Users/stapi/OneDrive/Desktop/GD32VW553/V1_MQTT_OK/GD32VW55X_Wifi_BLE_SDK/GD32VW55x_RELEASE_V1.0.2/MSDK/lwip/lwip-2.1.2/src/core\dns.c **** #endif /* LWIP_IPV4 && LWIP_IPV6 */
 236:C:/Users/stapi/OneDrive/Desktop/GD32VW553/V1_MQTT_OK/GD32VW55X_Wifi_BLE_SDK/GD32VW55x_RELEASE_V1.0.2/MSDK/lwip/lwip-2.1.2/src/core\dns.c **** #if LWIP_DNS_SUPPORT_MDNS_QUERIES
 237:C:/Users/stapi/OneDrive/Desktop/GD32VW553/V1_MQTT_OK/GD32VW55X_Wifi_BLE_SDK/GD32VW55x_RELEASE_V1.0.2/MSDK/lwip/lwip-2.1.2/src/core\dns.c ****   u8_t is_mdns;
 238:C:/Users/stapi/OneDrive/Desktop/GD32VW553/V1_MQTT_OK/GD32VW55X_Wifi_BLE_SDK/GD32VW55x_RELEASE_V1.0.2/MSDK/lwip/lwip-2.1.2/src/core\dns.c **** #endif
 239:C:/Users/stapi/OneDrive/Desktop/GD32VW553/V1_MQTT_OK/GD32VW55X_Wifi_BLE_SDK/GD32VW55x_RELEASE_V1.0.2/MSDK/lwip/lwip-2.1.2/src/core\dns.c **** };
 240:C:/Users/stapi/OneDrive/Desktop/GD32VW553/V1_MQTT_OK/GD32VW55X_Wifi_BLE_SDK/GD32VW55x_RELEASE_V1.0.2/MSDK/lwip/lwip-2.1.2/src/core\dns.c **** 
 241:C:/Users/stapi/OneDrive/Desktop/GD32VW553/V1_MQTT_OK/GD32VW55X_Wifi_BLE_SDK/GD32VW55x_RELEASE_V1.0.2/MSDK/lwip/lwip-2.1.2/src/core\dns.c **** /** DNS request table entry: used when dns_gehostbyname cannot answer the
 242:C:/Users/stapi/OneDrive/Desktop/GD32VW553/V1_MQTT_OK/GD32VW55X_Wifi_BLE_SDK/GD32VW55x_RELEASE_V1.0.2/MSDK/lwip/lwip-2.1.2/src/core\dns.c ****  * request from the DNS table */
 243:C:/Users/stapi/OneDrive/Desktop/GD32VW553/V1_MQTT_OK/GD32VW55X_Wifi_BLE_SDK/GD32VW55x_RELEASE_V1.0.2/MSDK/lwip/lwip-2.1.2/src/core\dns.c **** struct dns_req_entry {
 244:C:/Users/stapi/OneDrive/Desktop/GD32VW553/V1_MQTT_OK/GD32VW55X_Wifi_BLE_SDK/GD32VW55x_RELEASE_V1.0.2/MSDK/lwip/lwip-2.1.2/src/core\dns.c ****   /* pointer to callback on DNS query done */
 245:C:/Users/stapi/OneDrive/Desktop/GD32VW553/V1_MQTT_OK/GD32VW55X_Wifi_BLE_SDK/GD32VW55x_RELEASE_V1.0.2/MSDK/lwip/lwip-2.1.2/src/core\dns.c ****   dns_found_callback found;
 246:C:/Users/stapi/OneDrive/Desktop/GD32VW553/V1_MQTT_OK/GD32VW55X_Wifi_BLE_SDK/GD32VW55x_RELEASE_V1.0.2/MSDK/lwip/lwip-2.1.2/src/core\dns.c ****   /* argument passed to the callback function */
 247:C:/Users/stapi/OneDrive/Desktop/GD32VW553/V1_MQTT_OK/GD32VW55X_Wifi_BLE_SDK/GD32VW55x_RELEASE_V1.0.2/MSDK/lwip/lwip-2.1.2/src/core\dns.c ****   void *arg;
 248:C:/Users/stapi/OneDrive/Desktop/GD32VW553/V1_MQTT_OK/GD32VW55X_Wifi_BLE_SDK/GD32VW55x_RELEASE_V1.0.2/MSDK/lwip/lwip-2.1.2/src/core\dns.c **** #if ((LWIP_DNS_SECURE & LWIP_DNS_SECURE_NO_MULTIPLE_OUTSTANDING) != 0)
 249:C:/Users/stapi/OneDrive/Desktop/GD32VW553/V1_MQTT_OK/GD32VW55X_Wifi_BLE_SDK/GD32VW55x_RELEASE_V1.0.2/MSDK/lwip/lwip-2.1.2/src/core\dns.c ****   u8_t dns_table_idx;
 250:C:/Users/stapi/OneDrive/Desktop/GD32VW553/V1_MQTT_OK/GD32VW55X_Wifi_BLE_SDK/GD32VW55x_RELEASE_V1.0.2/MSDK/lwip/lwip-2.1.2/src/core\dns.c **** #endif
 251:C:/Users/stapi/OneDrive/Desktop/GD32VW553/V1_MQTT_OK/GD32VW55X_Wifi_BLE_SDK/GD32VW55x_RELEASE_V1.0.2/MSDK/lwip/lwip-2.1.2/src/core\dns.c **** #if LWIP_IPV4 && LWIP_IPV6
 252:C:/Users/stapi/OneDrive/Desktop/GD32VW553/V1_MQTT_OK/GD32VW55X_Wifi_BLE_SDK/GD32VW55x_RELEASE_V1.0.2/MSDK/lwip/lwip-2.1.2/src/core\dns.c ****   u8_t reqaddrtype;
 253:C:/Users/stapi/OneDrive/Desktop/GD32VW553/V1_MQTT_OK/GD32VW55X_Wifi_BLE_SDK/GD32VW55x_RELEASE_V1.0.2/MSDK/lwip/lwip-2.1.2/src/core\dns.c **** #endif /* LWIP_IPV4 && LWIP_IPV6 */
 254:C:/Users/stapi/OneDrive/Desktop/GD32VW553/V1_MQTT_OK/GD32VW55X_Wifi_BLE_SDK/GD32VW55x_RELEASE_V1.0.2/MSDK/lwip/lwip-2.1.2/src/core\dns.c **** };
 255:C:/Users/stapi/OneDrive/Desktop/GD32VW553/V1_MQTT_OK/GD32VW55X_Wifi_BLE_SDK/GD32VW55x_RELEASE_V1.0.2/MSDK/lwip/lwip-2.1.2/src/core\dns.c **** 
 256:C:/Users/stapi/OneDrive/Desktop/GD32VW553/V1_MQTT_OK/GD32VW55X_Wifi_BLE_SDK/GD32VW55x_RELEASE_V1.0.2/MSDK/lwip/lwip-2.1.2/src/core\dns.c **** #if DNS_LOCAL_HOSTLIST
 257:C:/Users/stapi/OneDrive/Desktop/GD32VW553/V1_MQTT_OK/GD32VW55X_Wifi_BLE_SDK/GD32VW55x_RELEASE_V1.0.2/MSDK/lwip/lwip-2.1.2/src/core\dns.c **** 
 258:C:/Users/stapi/OneDrive/Desktop/GD32VW553/V1_MQTT_OK/GD32VW55X_Wifi_BLE_SDK/GD32VW55x_RELEASE_V1.0.2/MSDK/lwip/lwip-2.1.2/src/core\dns.c **** #if DNS_LOCAL_HOSTLIST_IS_DYNAMIC
 259:C:/Users/stapi/OneDrive/Desktop/GD32VW553/V1_MQTT_OK/GD32VW55X_Wifi_BLE_SDK/GD32VW55x_RELEASE_V1.0.2/MSDK/lwip/lwip-2.1.2/src/core\dns.c **** /** Local host-list. For hostnames in this list, no
 260:C:/Users/stapi/OneDrive/Desktop/GD32VW553/V1_MQTT_OK/GD32VW55X_Wifi_BLE_SDK/GD32VW55x_RELEASE_V1.0.2/MSDK/lwip/lwip-2.1.2/src/core\dns.c ****  *  external name resolution is performed */
 261:C:/Users/stapi/OneDrive/Desktop/GD32VW553/V1_MQTT_OK/GD32VW55X_Wifi_BLE_SDK/GD32VW55x_RELEASE_V1.0.2/MSDK/lwip/lwip-2.1.2/src/core\dns.c **** static struct local_hostlist_entry *local_hostlist_dynamic;
 262:C:/Users/stapi/OneDrive/Desktop/GD32VW553/V1_MQTT_OK/GD32VW55X_Wifi_BLE_SDK/GD32VW55x_RELEASE_V1.0.2/MSDK/lwip/lwip-2.1.2/src/core\dns.c **** #else /* DNS_LOCAL_HOSTLIST_IS_DYNAMIC */
 263:C:/Users/stapi/OneDrive/Desktop/GD32VW553/V1_MQTT_OK/GD32VW55X_Wifi_BLE_SDK/GD32VW55x_RELEASE_V1.0.2/MSDK/lwip/lwip-2.1.2/src/core\dns.c **** 
 264:C:/Users/stapi/OneDrive/Desktop/GD32VW553/V1_MQTT_OK/GD32VW55X_Wifi_BLE_SDK/GD32VW55x_RELEASE_V1.0.2/MSDK/lwip/lwip-2.1.2/src/core\dns.c **** /** Defining this allows the local_hostlist_static to be placed in a different
 265:C:/Users/stapi/OneDrive/Desktop/GD32VW553/V1_MQTT_OK/GD32VW55X_Wifi_BLE_SDK/GD32VW55x_RELEASE_V1.0.2/MSDK/lwip/lwip-2.1.2/src/core\dns.c ****  * linker section (e.g. FLASH) */
 266:C:/Users/stapi/OneDrive/Desktop/GD32VW553/V1_MQTT_OK/GD32VW55X_Wifi_BLE_SDK/GD32VW55x_RELEASE_V1.0.2/MSDK/lwip/lwip-2.1.2/src/core\dns.c **** #ifndef DNS_LOCAL_HOSTLIST_STORAGE_PRE
 267:C:/Users/stapi/OneDrive/Desktop/GD32VW553/V1_MQTT_OK/GD32VW55X_Wifi_BLE_SDK/GD32VW55x_RELEASE_V1.0.2/MSDK/lwip/lwip-2.1.2/src/core\dns.c **** #define DNS_LOCAL_HOSTLIST_STORAGE_PRE static
 268:C:/Users/stapi/OneDrive/Desktop/GD32VW553/V1_MQTT_OK/GD32VW55X_Wifi_BLE_SDK/GD32VW55x_RELEASE_V1.0.2/MSDK/lwip/lwip-2.1.2/src/core\dns.c **** #endif /* DNS_LOCAL_HOSTLIST_STORAGE_PRE */
 269:C:/Users/stapi/OneDrive/Desktop/GD32VW553/V1_MQTT_OK/GD32VW55X_Wifi_BLE_SDK/GD32VW55x_RELEASE_V1.0.2/MSDK/lwip/lwip-2.1.2/src/core\dns.c **** /** Defining this allows the local_hostlist_static to be placed in a different
 270:C:/Users/stapi/OneDrive/Desktop/GD32VW553/V1_MQTT_OK/GD32VW55X_Wifi_BLE_SDK/GD32VW55x_RELEASE_V1.0.2/MSDK/lwip/lwip-2.1.2/src/core\dns.c ****  * linker section (e.g. FLASH) */
 271:C:/Users/stapi/OneDrive/Desktop/GD32VW553/V1_MQTT_OK/GD32VW55X_Wifi_BLE_SDK/GD32VW55x_RELEASE_V1.0.2/MSDK/lwip/lwip-2.1.2/src/core\dns.c **** #ifndef DNS_LOCAL_HOSTLIST_STORAGE_POST
 272:C:/Users/stapi/OneDrive/Desktop/GD32VW553/V1_MQTT_OK/GD32VW55X_Wifi_BLE_SDK/GD32VW55x_RELEASE_V1.0.2/MSDK/lwip/lwip-2.1.2/src/core\dns.c **** #define DNS_LOCAL_HOSTLIST_STORAGE_POST
 273:C:/Users/stapi/OneDrive/Desktop/GD32VW553/V1_MQTT_OK/GD32VW55X_Wifi_BLE_SDK/GD32VW55x_RELEASE_V1.0.2/MSDK/lwip/lwip-2.1.2/src/core\dns.c **** #endif /* DNS_LOCAL_HOSTLIST_STORAGE_POST */
 274:C:/Users/stapi/OneDrive/Desktop/GD32VW553/V1_MQTT_OK/GD32VW55X_Wifi_BLE_SDK/GD32VW55x_RELEASE_V1.0.2/MSDK/lwip/lwip-2.1.2/src/core\dns.c **** DNS_LOCAL_HOSTLIST_STORAGE_PRE struct local_hostlist_entry local_hostlist_static[]
 275:C:/Users/stapi/OneDrive/Desktop/GD32VW553/V1_MQTT_OK/GD32VW55X_Wifi_BLE_SDK/GD32VW55x_RELEASE_V1.0.2/MSDK/lwip/lwip-2.1.2/src/core\dns.c ****   DNS_LOCAL_HOSTLIST_STORAGE_POST = DNS_LOCAL_HOSTLIST_INIT;
 276:C:/Users/stapi/OneDrive/Desktop/GD32VW553/V1_MQTT_OK/GD32VW55X_Wifi_BLE_SDK/GD32VW55x_RELEASE_V1.0.2/MSDK/lwip/lwip-2.1.2/src/core\dns.c **** 
 277:C:/Users/stapi/OneDrive/Desktop/GD32VW553/V1_MQTT_OK/GD32VW55X_Wifi_BLE_SDK/GD32VW55x_RELEASE_V1.0.2/MSDK/lwip/lwip-2.1.2/src/core\dns.c **** #endif /* DNS_LOCAL_HOSTLIST_IS_DYNAMIC */
 278:C:/Users/stapi/OneDrive/Desktop/GD32VW553/V1_MQTT_OK/GD32VW55X_Wifi_BLE_SDK/GD32VW55x_RELEASE_V1.0.2/MSDK/lwip/lwip-2.1.2/src/core\dns.c **** 
 279:C:/Users/stapi/OneDrive/Desktop/GD32VW553/V1_MQTT_OK/GD32VW55X_Wifi_BLE_SDK/GD32VW55x_RELEASE_V1.0.2/MSDK/lwip/lwip-2.1.2/src/core\dns.c **** static void dns_init_local(void);
 280:C:/Users/stapi/OneDrive/Desktop/GD32VW553/V1_MQTT_OK/GD32VW55X_Wifi_BLE_SDK/GD32VW55x_RELEASE_V1.0.2/MSDK/lwip/lwip-2.1.2/src/core\dns.c **** static err_t dns_lookup_local(const char *hostname, ip_addr_t *addr LWIP_DNS_ADDRTYPE_ARG(u8_t dns_
 281:C:/Users/stapi/OneDrive/Desktop/GD32VW553/V1_MQTT_OK/GD32VW55X_Wifi_BLE_SDK/GD32VW55x_RELEASE_V1.0.2/MSDK/lwip/lwip-2.1.2/src/core\dns.c **** #endif /* DNS_LOCAL_HOSTLIST */
 282:C:/Users/stapi/OneDrive/Desktop/GD32VW553/V1_MQTT_OK/GD32VW55X_Wifi_BLE_SDK/GD32VW55x_RELEASE_V1.0.2/MSDK/lwip/lwip-2.1.2/src/core\dns.c **** 
 283:C:/Users/stapi/OneDrive/Desktop/GD32VW553/V1_MQTT_OK/GD32VW55X_Wifi_BLE_SDK/GD32VW55x_RELEASE_V1.0.2/MSDK/lwip/lwip-2.1.2/src/core\dns.c **** 
 284:C:/Users/stapi/OneDrive/Desktop/GD32VW553/V1_MQTT_OK/GD32VW55X_Wifi_BLE_SDK/GD32VW55x_RELEASE_V1.0.2/MSDK/lwip/lwip-2.1.2/src/core\dns.c **** /* forward declarations */
 285:C:/Users/stapi/OneDrive/Desktop/GD32VW553/V1_MQTT_OK/GD32VW55X_Wifi_BLE_SDK/GD32VW55x_RELEASE_V1.0.2/MSDK/lwip/lwip-2.1.2/src/core\dns.c **** static void dns_recv(void *s, struct udp_pcb *pcb, struct pbuf *p, const ip_addr_t *addr, u16_t por
 286:C:/Users/stapi/OneDrive/Desktop/GD32VW553/V1_MQTT_OK/GD32VW55X_Wifi_BLE_SDK/GD32VW55x_RELEASE_V1.0.2/MSDK/lwip/lwip-2.1.2/src/core\dns.c **** static void dns_check_entries(void);
 287:C:/Users/stapi/OneDrive/Desktop/GD32VW553/V1_MQTT_OK/GD32VW55X_Wifi_BLE_SDK/GD32VW55x_RELEASE_V1.0.2/MSDK/lwip/lwip-2.1.2/src/core\dns.c **** static void dns_call_found(u8_t idx, ip_addr_t *addr);
 288:C:/Users/stapi/OneDrive/Desktop/GD32VW553/V1_MQTT_OK/GD32VW55X_Wifi_BLE_SDK/GD32VW55x_RELEASE_V1.0.2/MSDK/lwip/lwip-2.1.2/src/core\dns.c **** 
 289:C:/Users/stapi/OneDrive/Desktop/GD32VW553/V1_MQTT_OK/GD32VW55X_Wifi_BLE_SDK/GD32VW55x_RELEASE_V1.0.2/MSDK/lwip/lwip-2.1.2/src/core\dns.c **** /*-----------------------------------------------------------------------------
 290:C:/Users/stapi/OneDrive/Desktop/GD32VW553/V1_MQTT_OK/GD32VW55X_Wifi_BLE_SDK/GD32VW55x_RELEASE_V1.0.2/MSDK/lwip/lwip-2.1.2/src/core\dns.c ****  * Globals
 291:C:/Users/stapi/OneDrive/Desktop/GD32VW553/V1_MQTT_OK/GD32VW55X_Wifi_BLE_SDK/GD32VW55x_RELEASE_V1.0.2/MSDK/lwip/lwip-2.1.2/src/core\dns.c ****  *----------------------------------------------------------------------------*/
 292:C:/Users/stapi/OneDrive/Desktop/GD32VW553/V1_MQTT_OK/GD32VW55X_Wifi_BLE_SDK/GD32VW55x_RELEASE_V1.0.2/MSDK/lwip/lwip-2.1.2/src/core\dns.c **** 
 293:C:/Users/stapi/OneDrive/Desktop/GD32VW553/V1_MQTT_OK/GD32VW55X_Wifi_BLE_SDK/GD32VW55x_RELEASE_V1.0.2/MSDK/lwip/lwip-2.1.2/src/core\dns.c **** /* DNS variables */
 294:C:/Users/stapi/OneDrive/Desktop/GD32VW553/V1_MQTT_OK/GD32VW55X_Wifi_BLE_SDK/GD32VW55x_RELEASE_V1.0.2/MSDK/lwip/lwip-2.1.2/src/core\dns.c **** static struct udp_pcb        *dns_pcbs[DNS_MAX_SOURCE_PORTS];
 295:C:/Users/stapi/OneDrive/Desktop/GD32VW553/V1_MQTT_OK/GD32VW55X_Wifi_BLE_SDK/GD32VW55x_RELEASE_V1.0.2/MSDK/lwip/lwip-2.1.2/src/core\dns.c **** #if ((LWIP_DNS_SECURE & LWIP_DNS_SECURE_RAND_SRC_PORT) != 0)
 296:C:/Users/stapi/OneDrive/Desktop/GD32VW553/V1_MQTT_OK/GD32VW55X_Wifi_BLE_SDK/GD32VW55x_RELEASE_V1.0.2/MSDK/lwip/lwip-2.1.2/src/core\dns.c **** static u8_t                   dns_last_pcb_idx;
 297:C:/Users/stapi/OneDrive/Desktop/GD32VW553/V1_MQTT_OK/GD32VW55X_Wifi_BLE_SDK/GD32VW55x_RELEASE_V1.0.2/MSDK/lwip/lwip-2.1.2/src/core\dns.c **** #endif
 298:C:/Users/stapi/OneDrive/Desktop/GD32VW553/V1_MQTT_OK/GD32VW55X_Wifi_BLE_SDK/GD32VW55x_RELEASE_V1.0.2/MSDK/lwip/lwip-2.1.2/src/core\dns.c **** static u8_t                   dns_seqno;
 299:C:/Users/stapi/OneDrive/Desktop/GD32VW553/V1_MQTT_OK/GD32VW55X_Wifi_BLE_SDK/GD32VW55x_RELEASE_V1.0.2/MSDK/lwip/lwip-2.1.2/src/core\dns.c **** static struct dns_table_entry dns_table[DNS_TABLE_SIZE];
 300:C:/Users/stapi/OneDrive/Desktop/GD32VW553/V1_MQTT_OK/GD32VW55X_Wifi_BLE_SDK/GD32VW55x_RELEASE_V1.0.2/MSDK/lwip/lwip-2.1.2/src/core\dns.c **** static struct dns_req_entry   dns_requests[DNS_MAX_REQUESTS];
 301:C:/Users/stapi/OneDrive/Desktop/GD32VW553/V1_MQTT_OK/GD32VW55X_Wifi_BLE_SDK/GD32VW55x_RELEASE_V1.0.2/MSDK/lwip/lwip-2.1.2/src/core\dns.c **** static ip_addr_t              dns_servers[DNS_MAX_SERVERS];
 302:C:/Users/stapi/OneDrive/Desktop/GD32VW553/V1_MQTT_OK/GD32VW55X_Wifi_BLE_SDK/GD32VW55x_RELEASE_V1.0.2/MSDK/lwip/lwip-2.1.2/src/core\dns.c **** 
 303:C:/Users/stapi/OneDrive/Desktop/GD32VW553/V1_MQTT_OK/GD32VW55X_Wifi_BLE_SDK/GD32VW55x_RELEASE_V1.0.2/MSDK/lwip/lwip-2.1.2/src/core\dns.c **** #if LWIP_IPV4
 304:C:/Users/stapi/OneDrive/Desktop/GD32VW553/V1_MQTT_OK/GD32VW55X_Wifi_BLE_SDK/GD32VW55x_RELEASE_V1.0.2/MSDK/lwip/lwip-2.1.2/src/core\dns.c **** const ip_addr_t dns_mquery_v4group = DNS_MQUERY_IPV4_GROUP_INIT;
 305:C:/Users/stapi/OneDrive/Desktop/GD32VW553/V1_MQTT_OK/GD32VW55X_Wifi_BLE_SDK/GD32VW55x_RELEASE_V1.0.2/MSDK/lwip/lwip-2.1.2/src/core\dns.c **** #endif /* LWIP_IPV4 */
 306:C:/Users/stapi/OneDrive/Desktop/GD32VW553/V1_MQTT_OK/GD32VW55X_Wifi_BLE_SDK/GD32VW55x_RELEASE_V1.0.2/MSDK/lwip/lwip-2.1.2/src/core\dns.c **** #if LWIP_IPV6
 307:C:/Users/stapi/OneDrive/Desktop/GD32VW553/V1_MQTT_OK/GD32VW55X_Wifi_BLE_SDK/GD32VW55x_RELEASE_V1.0.2/MSDK/lwip/lwip-2.1.2/src/core\dns.c **** const ip_addr_t dns_mquery_v6group = DNS_MQUERY_IPV6_GROUP_INIT;
 308:C:/Users/stapi/OneDrive/Desktop/GD32VW553/V1_MQTT_OK/GD32VW55X_Wifi_BLE_SDK/GD32VW55x_RELEASE_V1.0.2/MSDK/lwip/lwip-2.1.2/src/core\dns.c **** #endif /* LWIP_IPV6 */
 309:C:/Users/stapi/OneDrive/Desktop/GD32VW553/V1_MQTT_OK/GD32VW55X_Wifi_BLE_SDK/GD32VW55x_RELEASE_V1.0.2/MSDK/lwip/lwip-2.1.2/src/core\dns.c **** 
 310:C:/Users/stapi/OneDrive/Desktop/GD32VW553/V1_MQTT_OK/GD32VW55X_Wifi_BLE_SDK/GD32VW55x_RELEASE_V1.0.2/MSDK/lwip/lwip-2.1.2/src/core\dns.c **** /**
 311:C:/Users/stapi/OneDrive/Desktop/GD32VW553/V1_MQTT_OK/GD32VW55X_Wifi_BLE_SDK/GD32VW55x_RELEASE_V1.0.2/MSDK/lwip/lwip-2.1.2/src/core\dns.c ****  * Initialize the resolver: set up the UDP pcb and configure the default server
 312:C:/Users/stapi/OneDrive/Desktop/GD32VW553/V1_MQTT_OK/GD32VW55X_Wifi_BLE_SDK/GD32VW55x_RELEASE_V1.0.2/MSDK/lwip/lwip-2.1.2/src/core\dns.c ****  * (if DNS_SERVER_ADDRESS is set).
 313:C:/Users/stapi/OneDrive/Desktop/GD32VW553/V1_MQTT_OK/GD32VW55X_Wifi_BLE_SDK/GD32VW55x_RELEASE_V1.0.2/MSDK/lwip/lwip-2.1.2/src/core\dns.c ****  */
 314:C:/Users/stapi/OneDrive/Desktop/GD32VW553/V1_MQTT_OK/GD32VW55X_Wifi_BLE_SDK/GD32VW55x_RELEASE_V1.0.2/MSDK/lwip/lwip-2.1.2/src/core\dns.c **** void
 315:C:/Users/stapi/OneDrive/Desktop/GD32VW553/V1_MQTT_OK/GD32VW55X_Wifi_BLE_SDK/GD32VW55x_RELEASE_V1.0.2/MSDK/lwip/lwip-2.1.2/src/core\dns.c **** dns_init(void)
 316:C:/Users/stapi/OneDrive/Desktop/GD32VW553/V1_MQTT_OK/GD32VW55X_Wifi_BLE_SDK/GD32VW55x_RELEASE_V1.0.2/MSDK/lwip/lwip-2.1.2/src/core\dns.c **** {
 317:C:/Users/stapi/OneDrive/Desktop/GD32VW553/V1_MQTT_OK/GD32VW55X_Wifi_BLE_SDK/GD32VW55x_RELEASE_V1.0.2/MSDK/lwip/lwip-2.1.2/src/core\dns.c **** #ifdef DNS_SERVER_ADDRESS
 318:C:/Users/stapi/OneDrive/Desktop/GD32VW553/V1_MQTT_OK/GD32VW55X_Wifi_BLE_SDK/GD32VW55x_RELEASE_V1.0.2/MSDK/lwip/lwip-2.1.2/src/core\dns.c ****   /* initialize default DNS server address */
 319:C:/Users/stapi/OneDrive/Desktop/GD32VW553/V1_MQTT_OK/GD32VW55X_Wifi_BLE_SDK/GD32VW55x_RELEASE_V1.0.2/MSDK/lwip/lwip-2.1.2/src/core\dns.c ****   ip_addr_t dnsserver;
 320:C:/Users/stapi/OneDrive/Desktop/GD32VW553/V1_MQTT_OK/GD32VW55X_Wifi_BLE_SDK/GD32VW55x_RELEASE_V1.0.2/MSDK/lwip/lwip-2.1.2/src/core\dns.c ****   DNS_SERVER_ADDRESS(&dnsserver);
 321:C:/Users/stapi/OneDrive/Desktop/GD32VW553/V1_MQTT_OK/GD32VW55X_Wifi_BLE_SDK/GD32VW55x_RELEASE_V1.0.2/MSDK/lwip/lwip-2.1.2/src/core\dns.c ****   dns_setserver(0, &dnsserver);
 322:C:/Users/stapi/OneDrive/Desktop/GD32VW553/V1_MQTT_OK/GD32VW55X_Wifi_BLE_SDK/GD32VW55x_RELEASE_V1.0.2/MSDK/lwip/lwip-2.1.2/src/core\dns.c **** #endif /* DNS_SERVER_ADDRESS */
 323:C:/Users/stapi/OneDrive/Desktop/GD32VW553/V1_MQTT_OK/GD32VW55X_Wifi_BLE_SDK/GD32VW55x_RELEASE_V1.0.2/MSDK/lwip/lwip-2.1.2/src/core\dns.c **** 
 324:C:/Users/stapi/OneDrive/Desktop/GD32VW553/V1_MQTT_OK/GD32VW55X_Wifi_BLE_SDK/GD32VW55x_RELEASE_V1.0.2/MSDK/lwip/lwip-2.1.2/src/core\dns.c ****   LWIP_ASSERT("sanity check SIZEOF_DNS_QUERY",
 325:C:/Users/stapi/OneDrive/Desktop/GD32VW553/V1_MQTT_OK/GD32VW55X_Wifi_BLE_SDK/GD32VW55x_RELEASE_V1.0.2/MSDK/lwip/lwip-2.1.2/src/core\dns.c ****               sizeof(struct dns_query) == SIZEOF_DNS_QUERY);
 326:C:/Users/stapi/OneDrive/Desktop/GD32VW553/V1_MQTT_OK/GD32VW55X_Wifi_BLE_SDK/GD32VW55x_RELEASE_V1.0.2/MSDK/lwip/lwip-2.1.2/src/core\dns.c ****   LWIP_ASSERT("sanity check SIZEOF_DNS_ANSWER",
 327:C:/Users/stapi/OneDrive/Desktop/GD32VW553/V1_MQTT_OK/GD32VW55X_Wifi_BLE_SDK/GD32VW55x_RELEASE_V1.0.2/MSDK/lwip/lwip-2.1.2/src/core\dns.c ****               sizeof(struct dns_answer) <= SIZEOF_DNS_ANSWER_ASSERT);
 328:C:/Users/stapi/OneDrive/Desktop/GD32VW553/V1_MQTT_OK/GD32VW55X_Wifi_BLE_SDK/GD32VW55x_RELEASE_V1.0.2/MSDK/lwip/lwip-2.1.2/src/core\dns.c **** 
 329:C:/Users/stapi/OneDrive/Desktop/GD32VW553/V1_MQTT_OK/GD32VW55X_Wifi_BLE_SDK/GD32VW55x_RELEASE_V1.0.2/MSDK/lwip/lwip-2.1.2/src/core\dns.c ****   LWIP_DEBUGF(DNS_DEBUG, ("dns_init: initializing\n"));
 330:C:/Users/stapi/OneDrive/Desktop/GD32VW553/V1_MQTT_OK/GD32VW55X_Wifi_BLE_SDK/GD32VW55x_RELEASE_V1.0.2/MSDK/lwip/lwip-2.1.2/src/core\dns.c **** 
 331:C:/Users/stapi/OneDrive/Desktop/GD32VW553/V1_MQTT_OK/GD32VW55X_Wifi_BLE_SDK/GD32VW55x_RELEASE_V1.0.2/MSDK/lwip/lwip-2.1.2/src/core\dns.c ****   /* if dns client not yet initialized... */
 332:C:/Users/stapi/OneDrive/Desktop/GD32VW553/V1_MQTT_OK/GD32VW55X_Wifi_BLE_SDK/GD32VW55x_RELEASE_V1.0.2/MSDK/lwip/lwip-2.1.2/src/core\dns.c **** #if ((LWIP_DNS_SECURE & LWIP_DNS_SECURE_RAND_SRC_PORT) == 0)
 333:C:/Users/stapi/OneDrive/Desktop/GD32VW553/V1_MQTT_OK/GD32VW55X_Wifi_BLE_SDK/GD32VW55x_RELEASE_V1.0.2/MSDK/lwip/lwip-2.1.2/src/core\dns.c ****   if (dns_pcbs[0] == NULL) {
 334:C:/Users/stapi/OneDrive/Desktop/GD32VW553/V1_MQTT_OK/GD32VW55X_Wifi_BLE_SDK/GD32VW55x_RELEASE_V1.0.2/MSDK/lwip/lwip-2.1.2/src/core\dns.c ****     dns_pcbs[0] = udp_new_ip_type(IPADDR_TYPE_ANY);
 335:C:/Users/stapi/OneDrive/Desktop/GD32VW553/V1_MQTT_OK/GD32VW55X_Wifi_BLE_SDK/GD32VW55x_RELEASE_V1.0.2/MSDK/lwip/lwip-2.1.2/src/core\dns.c ****     LWIP_ASSERT("dns_pcbs[0] != NULL", dns_pcbs[0] != NULL);
 336:C:/Users/stapi/OneDrive/Desktop/GD32VW553/V1_MQTT_OK/GD32VW55X_Wifi_BLE_SDK/GD32VW55x_RELEASE_V1.0.2/MSDK/lwip/lwip-2.1.2/src/core\dns.c **** 
 337:C:/Users/stapi/OneDrive/Desktop/GD32VW553/V1_MQTT_OK/GD32VW55X_Wifi_BLE_SDK/GD32VW55x_RELEASE_V1.0.2/MSDK/lwip/lwip-2.1.2/src/core\dns.c ****     /* initialize DNS table not needed (initialized to zero since it is a
 338:C:/Users/stapi/OneDrive/Desktop/GD32VW553/V1_MQTT_OK/GD32VW55X_Wifi_BLE_SDK/GD32VW55x_RELEASE_V1.0.2/MSDK/lwip/lwip-2.1.2/src/core\dns.c ****      * global variable) */
 339:C:/Users/stapi/OneDrive/Desktop/GD32VW553/V1_MQTT_OK/GD32VW55X_Wifi_BLE_SDK/GD32VW55x_RELEASE_V1.0.2/MSDK/lwip/lwip-2.1.2/src/core\dns.c ****     LWIP_ASSERT("For implicit initialization to work, DNS_STATE_UNUSED needs to be 0",
 340:C:/Users/stapi/OneDrive/Desktop/GD32VW553/V1_MQTT_OK/GD32VW55X_Wifi_BLE_SDK/GD32VW55x_RELEASE_V1.0.2/MSDK/lwip/lwip-2.1.2/src/core\dns.c ****                 DNS_STATE_UNUSED == 0);
 341:C:/Users/stapi/OneDrive/Desktop/GD32VW553/V1_MQTT_OK/GD32VW55X_Wifi_BLE_SDK/GD32VW55x_RELEASE_V1.0.2/MSDK/lwip/lwip-2.1.2/src/core\dns.c **** 
 342:C:/Users/stapi/OneDrive/Desktop/GD32VW553/V1_MQTT_OK/GD32VW55X_Wifi_BLE_SDK/GD32VW55x_RELEASE_V1.0.2/MSDK/lwip/lwip-2.1.2/src/core\dns.c ****     /* initialize DNS client */
 343:C:/Users/stapi/OneDrive/Desktop/GD32VW553/V1_MQTT_OK/GD32VW55X_Wifi_BLE_SDK/GD32VW55x_RELEASE_V1.0.2/MSDK/lwip/lwip-2.1.2/src/core\dns.c ****     udp_bind(dns_pcbs[0], IP_ANY_TYPE, 0);
 344:C:/Users/stapi/OneDrive/Desktop/GD32VW553/V1_MQTT_OK/GD32VW55X_Wifi_BLE_SDK/GD32VW55x_RELEASE_V1.0.2/MSDK/lwip/lwip-2.1.2/src/core\dns.c ****     udp_recv(dns_pcbs[0], dns_recv, NULL);
 345:C:/Users/stapi/OneDrive/Desktop/GD32VW553/V1_MQTT_OK/GD32VW55X_Wifi_BLE_SDK/GD32VW55x_RELEASE_V1.0.2/MSDK/lwip/lwip-2.1.2/src/core\dns.c ****   }
 346:C:/Users/stapi/OneDrive/Desktop/GD32VW553/V1_MQTT_OK/GD32VW55X_Wifi_BLE_SDK/GD32VW55x_RELEASE_V1.0.2/MSDK/lwip/lwip-2.1.2/src/core\dns.c **** #endif
 347:C:/Users/stapi/OneDrive/Desktop/GD32VW553/V1_MQTT_OK/GD32VW55X_Wifi_BLE_SDK/GD32VW55x_RELEASE_V1.0.2/MSDK/lwip/lwip-2.1.2/src/core\dns.c **** 
 348:C:/Users/stapi/OneDrive/Desktop/GD32VW553/V1_MQTT_OK/GD32VW55X_Wifi_BLE_SDK/GD32VW55x_RELEASE_V1.0.2/MSDK/lwip/lwip-2.1.2/src/core\dns.c **** #if DNS_LOCAL_HOSTLIST
 349:C:/Users/stapi/OneDrive/Desktop/GD32VW553/V1_MQTT_OK/GD32VW55X_Wifi_BLE_SDK/GD32VW55x_RELEASE_V1.0.2/MSDK/lwip/lwip-2.1.2/src/core\dns.c ****   dns_init_local();
 350:C:/Users/stapi/OneDrive/Desktop/GD32VW553/V1_MQTT_OK/GD32VW55X_Wifi_BLE_SDK/GD32VW55x_RELEASE_V1.0.2/MSDK/lwip/lwip-2.1.2/src/core\dns.c **** #endif
 351:C:/Users/stapi/OneDrive/Desktop/GD32VW553/V1_MQTT_OK/GD32VW55X_Wifi_BLE_SDK/GD32VW55x_RELEASE_V1.0.2/MSDK/lwip/lwip-2.1.2/src/core\dns.c **** }
 352:C:/Users/stapi/OneDrive/Desktop/GD32VW553/V1_MQTT_OK/GD32VW55X_Wifi_BLE_SDK/GD32VW55x_RELEASE_V1.0.2/MSDK/lwip/lwip-2.1.2/src/core\dns.c **** 
 353:C:/Users/stapi/OneDrive/Desktop/GD32VW553/V1_MQTT_OK/GD32VW55X_Wifi_BLE_SDK/GD32VW55x_RELEASE_V1.0.2/MSDK/lwip/lwip-2.1.2/src/core\dns.c **** /**
 354:C:/Users/stapi/OneDrive/Desktop/GD32VW553/V1_MQTT_OK/GD32VW55X_Wifi_BLE_SDK/GD32VW55x_RELEASE_V1.0.2/MSDK/lwip/lwip-2.1.2/src/core\dns.c ****  * @ingroup dns
 355:C:/Users/stapi/OneDrive/Desktop/GD32VW553/V1_MQTT_OK/GD32VW55X_Wifi_BLE_SDK/GD32VW55x_RELEASE_V1.0.2/MSDK/lwip/lwip-2.1.2/src/core\dns.c ****  * Initialize one of the DNS servers.
 356:C:/Users/stapi/OneDrive/Desktop/GD32VW553/V1_MQTT_OK/GD32VW55X_Wifi_BLE_SDK/GD32VW55x_RELEASE_V1.0.2/MSDK/lwip/lwip-2.1.2/src/core\dns.c ****  *
 357:C:/Users/stapi/OneDrive/Desktop/GD32VW553/V1_MQTT_OK/GD32VW55X_Wifi_BLE_SDK/GD32VW55x_RELEASE_V1.0.2/MSDK/lwip/lwip-2.1.2/src/core\dns.c ****  * @param numdns the index of the DNS server to set must be < DNS_MAX_SERVERS
 358:C:/Users/stapi/OneDrive/Desktop/GD32VW553/V1_MQTT_OK/GD32VW55X_Wifi_BLE_SDK/GD32VW55x_RELEASE_V1.0.2/MSDK/lwip/lwip-2.1.2/src/core\dns.c ****  * @param dnsserver IP address of the DNS server to set
 359:C:/Users/stapi/OneDrive/Desktop/GD32VW553/V1_MQTT_OK/GD32VW55X_Wifi_BLE_SDK/GD32VW55x_RELEASE_V1.0.2/MSDK/lwip/lwip-2.1.2/src/core\dns.c ****  */
 360:C:/Users/stapi/OneDrive/Desktop/GD32VW553/V1_MQTT_OK/GD32VW55X_Wifi_BLE_SDK/GD32VW55x_RELEASE_V1.0.2/MSDK/lwip/lwip-2.1.2/src/core\dns.c **** void
 361:C:/Users/stapi/OneDrive/Desktop/GD32VW553/V1_MQTT_OK/GD32VW55X_Wifi_BLE_SDK/GD32VW55x_RELEASE_V1.0.2/MSDK/lwip/lwip-2.1.2/src/core\dns.c **** dns_setserver(u8_t numdns, const ip_addr_t *dnsserver)
 362:C:/Users/stapi/OneDrive/Desktop/GD32VW553/V1_MQTT_OK/GD32VW55X_Wifi_BLE_SDK/GD32VW55x_RELEASE_V1.0.2/MSDK/lwip/lwip-2.1.2/src/core\dns.c **** {
 363:C:/Users/stapi/OneDrive/Desktop/GD32VW553/V1_MQTT_OK/GD32VW55X_Wifi_BLE_SDK/GD32VW55x_RELEASE_V1.0.2/MSDK/lwip/lwip-2.1.2/src/core\dns.c ****   if (numdns < DNS_MAX_SERVERS) {
 364:C:/Users/stapi/OneDrive/Desktop/GD32VW553/V1_MQTT_OK/GD32VW55X_Wifi_BLE_SDK/GD32VW55x_RELEASE_V1.0.2/MSDK/lwip/lwip-2.1.2/src/core\dns.c ****     if (dnsserver != NULL) {
 365:C:/Users/stapi/OneDrive/Desktop/GD32VW553/V1_MQTT_OK/GD32VW55X_Wifi_BLE_SDK/GD32VW55x_RELEASE_V1.0.2/MSDK/lwip/lwip-2.1.2/src/core\dns.c ****       dns_servers[numdns] = (*dnsserver);
 366:C:/Users/stapi/OneDrive/Desktop/GD32VW553/V1_MQTT_OK/GD32VW55X_Wifi_BLE_SDK/GD32VW55x_RELEASE_V1.0.2/MSDK/lwip/lwip-2.1.2/src/core\dns.c ****     } else {
 367:C:/Users/stapi/OneDrive/Desktop/GD32VW553/V1_MQTT_OK/GD32VW55X_Wifi_BLE_SDK/GD32VW55x_RELEASE_V1.0.2/MSDK/lwip/lwip-2.1.2/src/core\dns.c ****       dns_servers[numdns] = *IP_ADDR_ANY;
 368:C:/Users/stapi/OneDrive/Desktop/GD32VW553/V1_MQTT_OK/GD32VW55X_Wifi_BLE_SDK/GD32VW55x_RELEASE_V1.0.2/MSDK/lwip/lwip-2.1.2/src/core\dns.c ****     }
 369:C:/Users/stapi/OneDrive/Desktop/GD32VW553/V1_MQTT_OK/GD32VW55X_Wifi_BLE_SDK/GD32VW55x_RELEASE_V1.0.2/MSDK/lwip/lwip-2.1.2/src/core\dns.c ****   }
 370:C:/Users/stapi/OneDrive/Desktop/GD32VW553/V1_MQTT_OK/GD32VW55X_Wifi_BLE_SDK/GD32VW55x_RELEASE_V1.0.2/MSDK/lwip/lwip-2.1.2/src/core\dns.c **** }
 371:C:/Users/stapi/OneDrive/Desktop/GD32VW553/V1_MQTT_OK/GD32VW55X_Wifi_BLE_SDK/GD32VW55x_RELEASE_V1.0.2/MSDK/lwip/lwip-2.1.2/src/core\dns.c **** 
 372:C:/Users/stapi/OneDrive/Desktop/GD32VW553/V1_MQTT_OK/GD32VW55X_Wifi_BLE_SDK/GD32VW55x_RELEASE_V1.0.2/MSDK/lwip/lwip-2.1.2/src/core\dns.c **** /**
 373:C:/Users/stapi/OneDrive/Desktop/GD32VW553/V1_MQTT_OK/GD32VW55X_Wifi_BLE_SDK/GD32VW55x_RELEASE_V1.0.2/MSDK/lwip/lwip-2.1.2/src/core\dns.c ****  * @ingroup dns
 374:C:/Users/stapi/OneDrive/Desktop/GD32VW553/V1_MQTT_OK/GD32VW55X_Wifi_BLE_SDK/GD32VW55x_RELEASE_V1.0.2/MSDK/lwip/lwip-2.1.2/src/core\dns.c ****  * Obtain one of the currently configured DNS server.
 375:C:/Users/stapi/OneDrive/Desktop/GD32VW553/V1_MQTT_OK/GD32VW55X_Wifi_BLE_SDK/GD32VW55x_RELEASE_V1.0.2/MSDK/lwip/lwip-2.1.2/src/core\dns.c ****  *
 376:C:/Users/stapi/OneDrive/Desktop/GD32VW553/V1_MQTT_OK/GD32VW55X_Wifi_BLE_SDK/GD32VW55x_RELEASE_V1.0.2/MSDK/lwip/lwip-2.1.2/src/core\dns.c ****  * @param numdns the index of the DNS server
 377:C:/Users/stapi/OneDrive/Desktop/GD32VW553/V1_MQTT_OK/GD32VW55X_Wifi_BLE_SDK/GD32VW55x_RELEASE_V1.0.2/MSDK/lwip/lwip-2.1.2/src/core\dns.c ****  * @return IP address of the indexed DNS server or "ip_addr_any" if the DNS
 378:C:/Users/stapi/OneDrive/Desktop/GD32VW553/V1_MQTT_OK/GD32VW55X_Wifi_BLE_SDK/GD32VW55x_RELEASE_V1.0.2/MSDK/lwip/lwip-2.1.2/src/core\dns.c ****  *         server has not been configured.
 379:C:/Users/stapi/OneDrive/Desktop/GD32VW553/V1_MQTT_OK/GD32VW55X_Wifi_BLE_SDK/GD32VW55x_RELEASE_V1.0.2/MSDK/lwip/lwip-2.1.2/src/core\dns.c ****  */
 380:C:/Users/stapi/OneDrive/Desktop/GD32VW553/V1_MQTT_OK/GD32VW55X_Wifi_BLE_SDK/GD32VW55x_RELEASE_V1.0.2/MSDK/lwip/lwip-2.1.2/src/core\dns.c **** const ip_addr_t *
 381:C:/Users/stapi/OneDrive/Desktop/GD32VW553/V1_MQTT_OK/GD32VW55X_Wifi_BLE_SDK/GD32VW55x_RELEASE_V1.0.2/MSDK/lwip/lwip-2.1.2/src/core\dns.c **** dns_getserver(u8_t numdns)
 382:C:/Users/stapi/OneDrive/Desktop/GD32VW553/V1_MQTT_OK/GD32VW55X_Wifi_BLE_SDK/GD32VW55x_RELEASE_V1.0.2/MSDK/lwip/lwip-2.1.2/src/core\dns.c **** {
 383:C:/Users/stapi/OneDrive/Desktop/GD32VW553/V1_MQTT_OK/GD32VW55X_Wifi_BLE_SDK/GD32VW55x_RELEASE_V1.0.2/MSDK/lwip/lwip-2.1.2/src/core\dns.c ****   if (numdns < DNS_MAX_SERVERS) {
 384:C:/Users/stapi/OneDrive/Desktop/GD32VW553/V1_MQTT_OK/GD32VW55X_Wifi_BLE_SDK/GD32VW55x_RELEASE_V1.0.2/MSDK/lwip/lwip-2.1.2/src/core\dns.c ****     return &dns_servers[numdns];
 385:C:/Users/stapi/OneDrive/Desktop/GD32VW553/V1_MQTT_OK/GD32VW55X_Wifi_BLE_SDK/GD32VW55x_RELEASE_V1.0.2/MSDK/lwip/lwip-2.1.2/src/core\dns.c ****   } else {
 386:C:/Users/stapi/OneDrive/Desktop/GD32VW553/V1_MQTT_OK/GD32VW55X_Wifi_BLE_SDK/GD32VW55x_RELEASE_V1.0.2/MSDK/lwip/lwip-2.1.2/src/core\dns.c ****     return IP_ADDR_ANY;
 387:C:/Users/stapi/OneDrive/Desktop/GD32VW553/V1_MQTT_OK/GD32VW55X_Wifi_BLE_SDK/GD32VW55x_RELEASE_V1.0.2/MSDK/lwip/lwip-2.1.2/src/core\dns.c ****   }
 388:C:/Users/stapi/OneDrive/Desktop/GD32VW553/V1_MQTT_OK/GD32VW55X_Wifi_BLE_SDK/GD32VW55x_RELEASE_V1.0.2/MSDK/lwip/lwip-2.1.2/src/core\dns.c **** }
 389:C:/Users/stapi/OneDrive/Desktop/GD32VW553/V1_MQTT_OK/GD32VW55X_Wifi_BLE_SDK/GD32VW55x_RELEASE_V1.0.2/MSDK/lwip/lwip-2.1.2/src/core\dns.c **** 
 390:C:/Users/stapi/OneDrive/Desktop/GD32VW553/V1_MQTT_OK/GD32VW55X_Wifi_BLE_SDK/GD32VW55x_RELEASE_V1.0.2/MSDK/lwip/lwip-2.1.2/src/core\dns.c **** /**
 391:C:/Users/stapi/OneDrive/Desktop/GD32VW553/V1_MQTT_OK/GD32VW55X_Wifi_BLE_SDK/GD32VW55x_RELEASE_V1.0.2/MSDK/lwip/lwip-2.1.2/src/core\dns.c ****  * The DNS resolver client timer - handle retries and timeouts and should
 392:C:/Users/stapi/OneDrive/Desktop/GD32VW553/V1_MQTT_OK/GD32VW55X_Wifi_BLE_SDK/GD32VW55x_RELEASE_V1.0.2/MSDK/lwip/lwip-2.1.2/src/core\dns.c ****  * be called every DNS_TMR_INTERVAL milliseconds (every second by default).
 393:C:/Users/stapi/OneDrive/Desktop/GD32VW553/V1_MQTT_OK/GD32VW55X_Wifi_BLE_SDK/GD32VW55x_RELEASE_V1.0.2/MSDK/lwip/lwip-2.1.2/src/core\dns.c ****  */
 394:C:/Users/stapi/OneDrive/Desktop/GD32VW553/V1_MQTT_OK/GD32VW55X_Wifi_BLE_SDK/GD32VW55x_RELEASE_V1.0.2/MSDK/lwip/lwip-2.1.2/src/core\dns.c **** void
 395:C:/Users/stapi/OneDrive/Desktop/GD32VW553/V1_MQTT_OK/GD32VW55X_Wifi_BLE_SDK/GD32VW55x_RELEASE_V1.0.2/MSDK/lwip/lwip-2.1.2/src/core\dns.c **** dns_tmr(void)
 396:C:/Users/stapi/OneDrive/Desktop/GD32VW553/V1_MQTT_OK/GD32VW55X_Wifi_BLE_SDK/GD32VW55x_RELEASE_V1.0.2/MSDK/lwip/lwip-2.1.2/src/core\dns.c **** {
 397:C:/Users/stapi/OneDrive/Desktop/GD32VW553/V1_MQTT_OK/GD32VW55X_Wifi_BLE_SDK/GD32VW55x_RELEASE_V1.0.2/MSDK/lwip/lwip-2.1.2/src/core\dns.c ****   LWIP_DEBUGF(DNS_DEBUG, ("dns_tmr: dns_check_entries\n"));
 398:C:/Users/stapi/OneDrive/Desktop/GD32VW553/V1_MQTT_OK/GD32VW55X_Wifi_BLE_SDK/GD32VW55x_RELEASE_V1.0.2/MSDK/lwip/lwip-2.1.2/src/core\dns.c ****   dns_check_entries();
 399:C:/Users/stapi/OneDrive/Desktop/GD32VW553/V1_MQTT_OK/GD32VW55X_Wifi_BLE_SDK/GD32VW55x_RELEASE_V1.0.2/MSDK/lwip/lwip-2.1.2/src/core\dns.c **** }
 400:C:/Users/stapi/OneDrive/Desktop/GD32VW553/V1_MQTT_OK/GD32VW55X_Wifi_BLE_SDK/GD32VW55x_RELEASE_V1.0.2/MSDK/lwip/lwip-2.1.2/src/core\dns.c **** 
 401:C:/Users/stapi/OneDrive/Desktop/GD32VW553/V1_MQTT_OK/GD32VW55X_Wifi_BLE_SDK/GD32VW55x_RELEASE_V1.0.2/MSDK/lwip/lwip-2.1.2/src/core\dns.c **** #if DNS_LOCAL_HOSTLIST
 402:C:/Users/stapi/OneDrive/Desktop/GD32VW553/V1_MQTT_OK/GD32VW55X_Wifi_BLE_SDK/GD32VW55x_RELEASE_V1.0.2/MSDK/lwip/lwip-2.1.2/src/core\dns.c **** static void
 403:C:/Users/stapi/OneDrive/Desktop/GD32VW553/V1_MQTT_OK/GD32VW55X_Wifi_BLE_SDK/GD32VW55x_RELEASE_V1.0.2/MSDK/lwip/lwip-2.1.2/src/core\dns.c **** dns_init_local(void)
 404:C:/Users/stapi/OneDrive/Desktop/GD32VW553/V1_MQTT_OK/GD32VW55X_Wifi_BLE_SDK/GD32VW55x_RELEASE_V1.0.2/MSDK/lwip/lwip-2.1.2/src/core\dns.c **** {
 405:C:/Users/stapi/OneDrive/Desktop/GD32VW553/V1_MQTT_OK/GD32VW55X_Wifi_BLE_SDK/GD32VW55x_RELEASE_V1.0.2/MSDK/lwip/lwip-2.1.2/src/core\dns.c **** #if DNS_LOCAL_HOSTLIST_IS_DYNAMIC && defined(DNS_LOCAL_HOSTLIST_INIT)
 406:C:/Users/stapi/OneDrive/Desktop/GD32VW553/V1_MQTT_OK/GD32VW55X_Wifi_BLE_SDK/GD32VW55x_RELEASE_V1.0.2/MSDK/lwip/lwip-2.1.2/src/core\dns.c ****   size_t i;
 407:C:/Users/stapi/OneDrive/Desktop/GD32VW553/V1_MQTT_OK/GD32VW55X_Wifi_BLE_SDK/GD32VW55x_RELEASE_V1.0.2/MSDK/lwip/lwip-2.1.2/src/core\dns.c ****   struct local_hostlist_entry *entry;
 408:C:/Users/stapi/OneDrive/Desktop/GD32VW553/V1_MQTT_OK/GD32VW55X_Wifi_BLE_SDK/GD32VW55x_RELEASE_V1.0.2/MSDK/lwip/lwip-2.1.2/src/core\dns.c ****   /* Dynamic: copy entries from DNS_LOCAL_HOSTLIST_INIT to list */
 409:C:/Users/stapi/OneDrive/Desktop/GD32VW553/V1_MQTT_OK/GD32VW55X_Wifi_BLE_SDK/GD32VW55x_RELEASE_V1.0.2/MSDK/lwip/lwip-2.1.2/src/core\dns.c ****   struct local_hostlist_entry local_hostlist_init[] = DNS_LOCAL_HOSTLIST_INIT;
 410:C:/Users/stapi/OneDrive/Desktop/GD32VW553/V1_MQTT_OK/GD32VW55X_Wifi_BLE_SDK/GD32VW55x_RELEASE_V1.0.2/MSDK/lwip/lwip-2.1.2/src/core\dns.c ****   size_t namelen;
 411:C:/Users/stapi/OneDrive/Desktop/GD32VW553/V1_MQTT_OK/GD32VW55X_Wifi_BLE_SDK/GD32VW55x_RELEASE_V1.0.2/MSDK/lwip/lwip-2.1.2/src/core\dns.c ****   for (i = 0; i < LWIP_ARRAYSIZE(local_hostlist_init); i++) {
 412:C:/Users/stapi/OneDrive/Desktop/GD32VW553/V1_MQTT_OK/GD32VW55X_Wifi_BLE_SDK/GD32VW55x_RELEASE_V1.0.2/MSDK/lwip/lwip-2.1.2/src/core\dns.c ****     struct local_hostlist_entry *init_entry = &local_hostlist_init[i];
 413:C:/Users/stapi/OneDrive/Desktop/GD32VW553/V1_MQTT_OK/GD32VW55X_Wifi_BLE_SDK/GD32VW55x_RELEASE_V1.0.2/MSDK/lwip/lwip-2.1.2/src/core\dns.c ****     LWIP_ASSERT("invalid host name (NULL)", init_entry->name != NULL);
 414:C:/Users/stapi/OneDrive/Desktop/GD32VW553/V1_MQTT_OK/GD32VW55X_Wifi_BLE_SDK/GD32VW55x_RELEASE_V1.0.2/MSDK/lwip/lwip-2.1.2/src/core\dns.c ****     namelen = strlen(init_entry->name);
 415:C:/Users/stapi/OneDrive/Desktop/GD32VW553/V1_MQTT_OK/GD32VW55X_Wifi_BLE_SDK/GD32VW55x_RELEASE_V1.0.2/MSDK/lwip/lwip-2.1.2/src/core\dns.c ****     LWIP_ASSERT("namelen <= DNS_LOCAL_HOSTLIST_MAX_NAMELEN", namelen <= DNS_LOCAL_HOSTLIST_MAX_NAME
 416:C:/Users/stapi/OneDrive/Desktop/GD32VW553/V1_MQTT_OK/GD32VW55X_Wifi_BLE_SDK/GD32VW55x_RELEASE_V1.0.2/MSDK/lwip/lwip-2.1.2/src/core\dns.c ****     entry = (struct local_hostlist_entry *)memp_malloc(MEMP_LOCALHOSTLIST);
 417:C:/Users/stapi/OneDrive/Desktop/GD32VW553/V1_MQTT_OK/GD32VW55X_Wifi_BLE_SDK/GD32VW55x_RELEASE_V1.0.2/MSDK/lwip/lwip-2.1.2/src/core\dns.c ****     LWIP_ASSERT("mem-error in dns_init_local", entry != NULL);
 418:C:/Users/stapi/OneDrive/Desktop/GD32VW553/V1_MQTT_OK/GD32VW55X_Wifi_BLE_SDK/GD32VW55x_RELEASE_V1.0.2/MSDK/lwip/lwip-2.1.2/src/core\dns.c ****     if (entry != NULL) {
 419:C:/Users/stapi/OneDrive/Desktop/GD32VW553/V1_MQTT_OK/GD32VW55X_Wifi_BLE_SDK/GD32VW55x_RELEASE_V1.0.2/MSDK/lwip/lwip-2.1.2/src/core\dns.c ****       char *entry_name = (char *)entry + sizeof(struct local_hostlist_entry);
 420:C:/Users/stapi/OneDrive/Desktop/GD32VW553/V1_MQTT_OK/GD32VW55X_Wifi_BLE_SDK/GD32VW55x_RELEASE_V1.0.2/MSDK/lwip/lwip-2.1.2/src/core\dns.c ****       MEMCPY(entry_name, init_entry->name, namelen);
 421:C:/Users/stapi/OneDrive/Desktop/GD32VW553/V1_MQTT_OK/GD32VW55X_Wifi_BLE_SDK/GD32VW55x_RELEASE_V1.0.2/MSDK/lwip/lwip-2.1.2/src/core\dns.c ****       entry_name[namelen] = 0;
 422:C:/Users/stapi/OneDrive/Desktop/GD32VW553/V1_MQTT_OK/GD32VW55X_Wifi_BLE_SDK/GD32VW55x_RELEASE_V1.0.2/MSDK/lwip/lwip-2.1.2/src/core\dns.c ****       entry->name = entry_name;
 423:C:/Users/stapi/OneDrive/Desktop/GD32VW553/V1_MQTT_OK/GD32VW55X_Wifi_BLE_SDK/GD32VW55x_RELEASE_V1.0.2/MSDK/lwip/lwip-2.1.2/src/core\dns.c ****       entry->addr = init_entry->addr;
 424:C:/Users/stapi/OneDrive/Desktop/GD32VW553/V1_MQTT_OK/GD32VW55X_Wifi_BLE_SDK/GD32VW55x_RELEASE_V1.0.2/MSDK/lwip/lwip-2.1.2/src/core\dns.c ****       entry->next = local_hostlist_dynamic;
 425:C:/Users/stapi/OneDrive/Desktop/GD32VW553/V1_MQTT_OK/GD32VW55X_Wifi_BLE_SDK/GD32VW55x_RELEASE_V1.0.2/MSDK/lwip/lwip-2.1.2/src/core\dns.c ****       local_hostlist_dynamic = entry;
 426:C:/Users/stapi/OneDrive/Desktop/GD32VW553/V1_MQTT_OK/GD32VW55X_Wifi_BLE_SDK/GD32VW55x_RELEASE_V1.0.2/MSDK/lwip/lwip-2.1.2/src/core\dns.c ****     }
 427:C:/Users/stapi/OneDrive/Desktop/GD32VW553/V1_MQTT_OK/GD32VW55X_Wifi_BLE_SDK/GD32VW55x_RELEASE_V1.0.2/MSDK/lwip/lwip-2.1.2/src/core\dns.c ****   }
 428:C:/Users/stapi/OneDrive/Desktop/GD32VW553/V1_MQTT_OK/GD32VW55X_Wifi_BLE_SDK/GD32VW55x_RELEASE_V1.0.2/MSDK/lwip/lwip-2.1.2/src/core\dns.c **** #endif /* DNS_LOCAL_HOSTLIST_IS_DYNAMIC && defined(DNS_LOCAL_HOSTLIST_INIT) */
 429:C:/Users/stapi/OneDrive/Desktop/GD32VW553/V1_MQTT_OK/GD32VW55X_Wifi_BLE_SDK/GD32VW55x_RELEASE_V1.0.2/MSDK/lwip/lwip-2.1.2/src/core\dns.c **** }
 430:C:/Users/stapi/OneDrive/Desktop/GD32VW553/V1_MQTT_OK/GD32VW55X_Wifi_BLE_SDK/GD32VW55x_RELEASE_V1.0.2/MSDK/lwip/lwip-2.1.2/src/core\dns.c **** 
 431:C:/Users/stapi/OneDrive/Desktop/GD32VW553/V1_MQTT_OK/GD32VW55X_Wifi_BLE_SDK/GD32VW55x_RELEASE_V1.0.2/MSDK/lwip/lwip-2.1.2/src/core\dns.c **** /**
 432:C:/Users/stapi/OneDrive/Desktop/GD32VW553/V1_MQTT_OK/GD32VW55X_Wifi_BLE_SDK/GD32VW55x_RELEASE_V1.0.2/MSDK/lwip/lwip-2.1.2/src/core\dns.c ****  * @ingroup dns
 433:C:/Users/stapi/OneDrive/Desktop/GD32VW553/V1_MQTT_OK/GD32VW55X_Wifi_BLE_SDK/GD32VW55x_RELEASE_V1.0.2/MSDK/lwip/lwip-2.1.2/src/core\dns.c ****  * Iterate the local host-list for a hostname.
 434:C:/Users/stapi/OneDrive/Desktop/GD32VW553/V1_MQTT_OK/GD32VW55X_Wifi_BLE_SDK/GD32VW55x_RELEASE_V1.0.2/MSDK/lwip/lwip-2.1.2/src/core\dns.c ****  *
 435:C:/Users/stapi/OneDrive/Desktop/GD32VW553/V1_MQTT_OK/GD32VW55X_Wifi_BLE_SDK/GD32VW55x_RELEASE_V1.0.2/MSDK/lwip/lwip-2.1.2/src/core\dns.c ****  * @param iterator_fn a function that is called for every entry in the local host-list
 436:C:/Users/stapi/OneDrive/Desktop/GD32VW553/V1_MQTT_OK/GD32VW55X_Wifi_BLE_SDK/GD32VW55x_RELEASE_V1.0.2/MSDK/lwip/lwip-2.1.2/src/core\dns.c ****  * @param iterator_arg 3rd argument passed to iterator_fn
 437:C:/Users/stapi/OneDrive/Desktop/GD32VW553/V1_MQTT_OK/GD32VW55X_Wifi_BLE_SDK/GD32VW55x_RELEASE_V1.0.2/MSDK/lwip/lwip-2.1.2/src/core\dns.c ****  * @return the number of entries in the local host-list
 438:C:/Users/stapi/OneDrive/Desktop/GD32VW553/V1_MQTT_OK/GD32VW55X_Wifi_BLE_SDK/GD32VW55x_RELEASE_V1.0.2/MSDK/lwip/lwip-2.1.2/src/core\dns.c ****  */
 439:C:/Users/stapi/OneDrive/Desktop/GD32VW553/V1_MQTT_OK/GD32VW55X_Wifi_BLE_SDK/GD32VW55x_RELEASE_V1.0.2/MSDK/lwip/lwip-2.1.2/src/core\dns.c **** size_t
 440:C:/Users/stapi/OneDrive/Desktop/GD32VW553/V1_MQTT_OK/GD32VW55X_Wifi_BLE_SDK/GD32VW55x_RELEASE_V1.0.2/MSDK/lwip/lwip-2.1.2/src/core\dns.c **** dns_local_iterate(dns_found_callback iterator_fn, void *iterator_arg)
 441:C:/Users/stapi/OneDrive/Desktop/GD32VW553/V1_MQTT_OK/GD32VW55X_Wifi_BLE_SDK/GD32VW55x_RELEASE_V1.0.2/MSDK/lwip/lwip-2.1.2/src/core\dns.c **** {
 442:C:/Users/stapi/OneDrive/Desktop/GD32VW553/V1_MQTT_OK/GD32VW55X_Wifi_BLE_SDK/GD32VW55x_RELEASE_V1.0.2/MSDK/lwip/lwip-2.1.2/src/core\dns.c ****   size_t i;
 443:C:/Users/stapi/OneDrive/Desktop/GD32VW553/V1_MQTT_OK/GD32VW55X_Wifi_BLE_SDK/GD32VW55x_RELEASE_V1.0.2/MSDK/lwip/lwip-2.1.2/src/core\dns.c **** #if DNS_LOCAL_HOSTLIST_IS_DYNAMIC
 444:C:/Users/stapi/OneDrive/Desktop/GD32VW553/V1_MQTT_OK/GD32VW55X_Wifi_BLE_SDK/GD32VW55x_RELEASE_V1.0.2/MSDK/lwip/lwip-2.1.2/src/core\dns.c ****   struct local_hostlist_entry *entry = local_hostlist_dynamic;
 445:C:/Users/stapi/OneDrive/Desktop/GD32VW553/V1_MQTT_OK/GD32VW55X_Wifi_BLE_SDK/GD32VW55x_RELEASE_V1.0.2/MSDK/lwip/lwip-2.1.2/src/core\dns.c ****   i = 0;
 446:C:/Users/stapi/OneDrive/Desktop/GD32VW553/V1_MQTT_OK/GD32VW55X_Wifi_BLE_SDK/GD32VW55x_RELEASE_V1.0.2/MSDK/lwip/lwip-2.1.2/src/core\dns.c ****   while (entry != NULL) {
 447:C:/Users/stapi/OneDrive/Desktop/GD32VW553/V1_MQTT_OK/GD32VW55X_Wifi_BLE_SDK/GD32VW55x_RELEASE_V1.0.2/MSDK/lwip/lwip-2.1.2/src/core\dns.c ****     if (iterator_fn != NULL) {
 448:C:/Users/stapi/OneDrive/Desktop/GD32VW553/V1_MQTT_OK/GD32VW55X_Wifi_BLE_SDK/GD32VW55x_RELEASE_V1.0.2/MSDK/lwip/lwip-2.1.2/src/core\dns.c ****       iterator_fn(entry->name, &entry->addr, iterator_arg);
 449:C:/Users/stapi/OneDrive/Desktop/GD32VW553/V1_MQTT_OK/GD32VW55X_Wifi_BLE_SDK/GD32VW55x_RELEASE_V1.0.2/MSDK/lwip/lwip-2.1.2/src/core\dns.c ****     }
 450:C:/Users/stapi/OneDrive/Desktop/GD32VW553/V1_MQTT_OK/GD32VW55X_Wifi_BLE_SDK/GD32VW55x_RELEASE_V1.0.2/MSDK/lwip/lwip-2.1.2/src/core\dns.c ****     i++;
 451:C:/Users/stapi/OneDrive/Desktop/GD32VW553/V1_MQTT_OK/GD32VW55X_Wifi_BLE_SDK/GD32VW55x_RELEASE_V1.0.2/MSDK/lwip/lwip-2.1.2/src/core\dns.c ****     entry = entry->next;
 452:C:/Users/stapi/OneDrive/Desktop/GD32VW553/V1_MQTT_OK/GD32VW55X_Wifi_BLE_SDK/GD32VW55x_RELEASE_V1.0.2/MSDK/lwip/lwip-2.1.2/src/core\dns.c ****   }
 453:C:/Users/stapi/OneDrive/Desktop/GD32VW553/V1_MQTT_OK/GD32VW55X_Wifi_BLE_SDK/GD32VW55x_RELEASE_V1.0.2/MSDK/lwip/lwip-2.1.2/src/core\dns.c **** #else /* DNS_LOCAL_HOSTLIST_IS_DYNAMIC */
 454:C:/Users/stapi/OneDrive/Desktop/GD32VW553/V1_MQTT_OK/GD32VW55X_Wifi_BLE_SDK/GD32VW55x_RELEASE_V1.0.2/MSDK/lwip/lwip-2.1.2/src/core\dns.c ****   for (i = 0; i < LWIP_ARRAYSIZE(local_hostlist_static); i++) {
 455:C:/Users/stapi/OneDrive/Desktop/GD32VW553/V1_MQTT_OK/GD32VW55X_Wifi_BLE_SDK/GD32VW55x_RELEASE_V1.0.2/MSDK/lwip/lwip-2.1.2/src/core\dns.c ****     if (iterator_fn != NULL) {
 456:C:/Users/stapi/OneDrive/Desktop/GD32VW553/V1_MQTT_OK/GD32VW55X_Wifi_BLE_SDK/GD32VW55x_RELEASE_V1.0.2/MSDK/lwip/lwip-2.1.2/src/core\dns.c ****       iterator_fn(local_hostlist_static[i].name, &local_hostlist_static[i].addr, iterator_arg);
 457:C:/Users/stapi/OneDrive/Desktop/GD32VW553/V1_MQTT_OK/GD32VW55X_Wifi_BLE_SDK/GD32VW55x_RELEASE_V1.0.2/MSDK/lwip/lwip-2.1.2/src/core\dns.c ****     }
 458:C:/Users/stapi/OneDrive/Desktop/GD32VW553/V1_MQTT_OK/GD32VW55X_Wifi_BLE_SDK/GD32VW55x_RELEASE_V1.0.2/MSDK/lwip/lwip-2.1.2/src/core\dns.c ****   }
 459:C:/Users/stapi/OneDrive/Desktop/GD32VW553/V1_MQTT_OK/GD32VW55X_Wifi_BLE_SDK/GD32VW55x_RELEASE_V1.0.2/MSDK/lwip/lwip-2.1.2/src/core\dns.c **** #endif /* DNS_LOCAL_HOSTLIST_IS_DYNAMIC */
 460:C:/Users/stapi/OneDrive/Desktop/GD32VW553/V1_MQTT_OK/GD32VW55X_Wifi_BLE_SDK/GD32VW55x_RELEASE_V1.0.2/MSDK/lwip/lwip-2.1.2/src/core\dns.c ****   return i;
 461:C:/Users/stapi/OneDrive/Desktop/GD32VW553/V1_MQTT_OK/GD32VW55X_Wifi_BLE_SDK/GD32VW55x_RELEASE_V1.0.2/MSDK/lwip/lwip-2.1.2/src/core\dns.c **** }
 462:C:/Users/stapi/OneDrive/Desktop/GD32VW553/V1_MQTT_OK/GD32VW55X_Wifi_BLE_SDK/GD32VW55x_RELEASE_V1.0.2/MSDK/lwip/lwip-2.1.2/src/core\dns.c **** 
 463:C:/Users/stapi/OneDrive/Desktop/GD32VW553/V1_MQTT_OK/GD32VW55X_Wifi_BLE_SDK/GD32VW55x_RELEASE_V1.0.2/MSDK/lwip/lwip-2.1.2/src/core\dns.c **** /**
 464:C:/Users/stapi/OneDrive/Desktop/GD32VW553/V1_MQTT_OK/GD32VW55X_Wifi_BLE_SDK/GD32VW55x_RELEASE_V1.0.2/MSDK/lwip/lwip-2.1.2/src/core\dns.c ****  * @ingroup dns
 465:C:/Users/stapi/OneDrive/Desktop/GD32VW553/V1_MQTT_OK/GD32VW55X_Wifi_BLE_SDK/GD32VW55x_RELEASE_V1.0.2/MSDK/lwip/lwip-2.1.2/src/core\dns.c ****  * Scans the local host-list for a hostname.
 466:C:/Users/stapi/OneDrive/Desktop/GD32VW553/V1_MQTT_OK/GD32VW55X_Wifi_BLE_SDK/GD32VW55x_RELEASE_V1.0.2/MSDK/lwip/lwip-2.1.2/src/core\dns.c ****  *
 467:C:/Users/stapi/OneDrive/Desktop/GD32VW553/V1_MQTT_OK/GD32VW55X_Wifi_BLE_SDK/GD32VW55x_RELEASE_V1.0.2/MSDK/lwip/lwip-2.1.2/src/core\dns.c ****  * @param hostname Hostname to look for in the local host-list
 468:C:/Users/stapi/OneDrive/Desktop/GD32VW553/V1_MQTT_OK/GD32VW55X_Wifi_BLE_SDK/GD32VW55x_RELEASE_V1.0.2/MSDK/lwip/lwip-2.1.2/src/core\dns.c ****  * @param addr the first IP address for the hostname in the local host-list or
 469:C:/Users/stapi/OneDrive/Desktop/GD32VW553/V1_MQTT_OK/GD32VW55X_Wifi_BLE_SDK/GD32VW55x_RELEASE_V1.0.2/MSDK/lwip/lwip-2.1.2/src/core\dns.c ****  *         IPADDR_NONE if not found.
 470:C:/Users/stapi/OneDrive/Desktop/GD32VW553/V1_MQTT_OK/GD32VW55X_Wifi_BLE_SDK/GD32VW55x_RELEASE_V1.0.2/MSDK/lwip/lwip-2.1.2/src/core\dns.c ****  * @param dns_addrtype - LWIP_DNS_ADDRTYPE_IPV4_IPV6: try to resolve IPv4 (ATTENTION: no fallback h
 471:C:/Users/stapi/OneDrive/Desktop/GD32VW553/V1_MQTT_OK/GD32VW55X_Wifi_BLE_SDK/GD32VW55x_RELEASE_V1.0.2/MSDK/lwip/lwip-2.1.2/src/core\dns.c ****  *                     - LWIP_DNS_ADDRTYPE_IPV6_IPV4: try to resolve IPv6 (ATTENTION: no fallback h
 472:C:/Users/stapi/OneDrive/Desktop/GD32VW553/V1_MQTT_OK/GD32VW55X_Wifi_BLE_SDK/GD32VW55x_RELEASE_V1.0.2/MSDK/lwip/lwip-2.1.2/src/core\dns.c ****  *                     - LWIP_DNS_ADDRTYPE_IPV4: try to resolve IPv4 only
 473:C:/Users/stapi/OneDrive/Desktop/GD32VW553/V1_MQTT_OK/GD32VW55X_Wifi_BLE_SDK/GD32VW55x_RELEASE_V1.0.2/MSDK/lwip/lwip-2.1.2/src/core\dns.c ****  *                     - LWIP_DNS_ADDRTYPE_IPV6: try to resolve IPv6 only
 474:C:/Users/stapi/OneDrive/Desktop/GD32VW553/V1_MQTT_OK/GD32VW55X_Wifi_BLE_SDK/GD32VW55x_RELEASE_V1.0.2/MSDK/lwip/lwip-2.1.2/src/core\dns.c ****  * @return ERR_OK if found, ERR_ARG if not found
 475:C:/Users/stapi/OneDrive/Desktop/GD32VW553/V1_MQTT_OK/GD32VW55X_Wifi_BLE_SDK/GD32VW55x_RELEASE_V1.0.2/MSDK/lwip/lwip-2.1.2/src/core\dns.c ****  */
 476:C:/Users/stapi/OneDrive/Desktop/GD32VW553/V1_MQTT_OK/GD32VW55X_Wifi_BLE_SDK/GD32VW55x_RELEASE_V1.0.2/MSDK/lwip/lwip-2.1.2/src/core\dns.c **** err_t
 477:C:/Users/stapi/OneDrive/Desktop/GD32VW553/V1_MQTT_OK/GD32VW55X_Wifi_BLE_SDK/GD32VW55x_RELEASE_V1.0.2/MSDK/lwip/lwip-2.1.2/src/core\dns.c **** dns_local_lookup(const char *hostname, ip_addr_t *addr, u8_t dns_addrtype)
 478:C:/Users/stapi/OneDrive/Desktop/GD32VW553/V1_MQTT_OK/GD32VW55X_Wifi_BLE_SDK/GD32VW55x_RELEASE_V1.0.2/MSDK/lwip/lwip-2.1.2/src/core\dns.c **** {
 479:C:/Users/stapi/OneDrive/Desktop/GD32VW553/V1_MQTT_OK/GD32VW55X_Wifi_BLE_SDK/GD32VW55x_RELEASE_V1.0.2/MSDK/lwip/lwip-2.1.2/src/core\dns.c ****   LWIP_UNUSED_ARG(dns_addrtype);
 480:C:/Users/stapi/OneDrive/Desktop/GD32VW553/V1_MQTT_OK/GD32VW55X_Wifi_BLE_SDK/GD32VW55x_RELEASE_V1.0.2/MSDK/lwip/lwip-2.1.2/src/core\dns.c ****   return dns_lookup_local(hostname, addr LWIP_DNS_ADDRTYPE_ARG(dns_addrtype));
 481:C:/Users/stapi/OneDrive/Desktop/GD32VW553/V1_MQTT_OK/GD32VW55X_Wifi_BLE_SDK/GD32VW55x_RELEASE_V1.0.2/MSDK/lwip/lwip-2.1.2/src/core\dns.c **** }
 482:C:/Users/stapi/OneDrive/Desktop/GD32VW553/V1_MQTT_OK/GD32VW55X_Wifi_BLE_SDK/GD32VW55x_RELEASE_V1.0.2/MSDK/lwip/lwip-2.1.2/src/core\dns.c **** 
 483:C:/Users/stapi/OneDrive/Desktop/GD32VW553/V1_MQTT_OK/GD32VW55X_Wifi_BLE_SDK/GD32VW55x_RELEASE_V1.0.2/MSDK/lwip/lwip-2.1.2/src/core\dns.c **** /* Internal implementation for dns_local_lookup and dns_lookup */
 484:C:/Users/stapi/OneDrive/Desktop/GD32VW553/V1_MQTT_OK/GD32VW55X_Wifi_BLE_SDK/GD32VW55x_RELEASE_V1.0.2/MSDK/lwip/lwip-2.1.2/src/core\dns.c **** static err_t
 485:C:/Users/stapi/OneDrive/Desktop/GD32VW553/V1_MQTT_OK/GD32VW55X_Wifi_BLE_SDK/GD32VW55x_RELEASE_V1.0.2/MSDK/lwip/lwip-2.1.2/src/core\dns.c **** dns_lookup_local(const char *hostname, ip_addr_t *addr LWIP_DNS_ADDRTYPE_ARG(u8_t dns_addrtype))
 486:C:/Users/stapi/OneDrive/Desktop/GD32VW553/V1_MQTT_OK/GD32VW55X_Wifi_BLE_SDK/GD32VW55x_RELEASE_V1.0.2/MSDK/lwip/lwip-2.1.2/src/core\dns.c **** {
 487:C:/Users/stapi/OneDrive/Desktop/GD32VW553/V1_MQTT_OK/GD32VW55X_Wifi_BLE_SDK/GD32VW55x_RELEASE_V1.0.2/MSDK/lwip/lwip-2.1.2/src/core\dns.c **** #if DNS_LOCAL_HOSTLIST_IS_DYNAMIC
 488:C:/Users/stapi/OneDrive/Desktop/GD32VW553/V1_MQTT_OK/GD32VW55X_Wifi_BLE_SDK/GD32VW55x_RELEASE_V1.0.2/MSDK/lwip/lwip-2.1.2/src/core\dns.c ****   struct local_hostlist_entry *entry = local_hostlist_dynamic;
 489:C:/Users/stapi/OneDrive/Desktop/GD32VW553/V1_MQTT_OK/GD32VW55X_Wifi_BLE_SDK/GD32VW55x_RELEASE_V1.0.2/MSDK/lwip/lwip-2.1.2/src/core\dns.c ****   while (entry != NULL) {
 490:C:/Users/stapi/OneDrive/Desktop/GD32VW553/V1_MQTT_OK/GD32VW55X_Wifi_BLE_SDK/GD32VW55x_RELEASE_V1.0.2/MSDK/lwip/lwip-2.1.2/src/core\dns.c ****     if ((lwip_stricmp(entry->name, hostname) == 0) &&
 491:C:/Users/stapi/OneDrive/Desktop/GD32VW553/V1_MQTT_OK/GD32VW55X_Wifi_BLE_SDK/GD32VW55x_RELEASE_V1.0.2/MSDK/lwip/lwip-2.1.2/src/core\dns.c ****         LWIP_DNS_ADDRTYPE_MATCH_IP(dns_addrtype, entry->addr)) {
 492:C:/Users/stapi/OneDrive/Desktop/GD32VW553/V1_MQTT_OK/GD32VW55X_Wifi_BLE_SDK/GD32VW55x_RELEASE_V1.0.2/MSDK/lwip/lwip-2.1.2/src/core\dns.c ****       if (addr) {
 493:C:/Users/stapi/OneDrive/Desktop/GD32VW553/V1_MQTT_OK/GD32VW55X_Wifi_BLE_SDK/GD32VW55x_RELEASE_V1.0.2/MSDK/lwip/lwip-2.1.2/src/core\dns.c ****         ip_addr_copy(*addr, entry->addr);
 494:C:/Users/stapi/OneDrive/Desktop/GD32VW553/V1_MQTT_OK/GD32VW55X_Wifi_BLE_SDK/GD32VW55x_RELEASE_V1.0.2/MSDK/lwip/lwip-2.1.2/src/core\dns.c ****       }
 495:C:/Users/stapi/OneDrive/Desktop/GD32VW553/V1_MQTT_OK/GD32VW55X_Wifi_BLE_SDK/GD32VW55x_RELEASE_V1.0.2/MSDK/lwip/lwip-2.1.2/src/core\dns.c ****       return ERR_OK;
 496:C:/Users/stapi/OneDrive/Desktop/GD32VW553/V1_MQTT_OK/GD32VW55X_Wifi_BLE_SDK/GD32VW55x_RELEASE_V1.0.2/MSDK/lwip/lwip-2.1.2/src/core\dns.c ****     }
 497:C:/Users/stapi/OneDrive/Desktop/GD32VW553/V1_MQTT_OK/GD32VW55X_Wifi_BLE_SDK/GD32VW55x_RELEASE_V1.0.2/MSDK/lwip/lwip-2.1.2/src/core\dns.c ****     entry = entry->next;
 498:C:/Users/stapi/OneDrive/Desktop/GD32VW553/V1_MQTT_OK/GD32VW55X_Wifi_BLE_SDK/GD32VW55x_RELEASE_V1.0.2/MSDK/lwip/lwip-2.1.2/src/core\dns.c ****   }
 499:C:/Users/stapi/OneDrive/Desktop/GD32VW553/V1_MQTT_OK/GD32VW55X_Wifi_BLE_SDK/GD32VW55x_RELEASE_V1.0.2/MSDK/lwip/lwip-2.1.2/src/core\dns.c **** #else /* DNS_LOCAL_HOSTLIST_IS_DYNAMIC */
 500:C:/Users/stapi/OneDrive/Desktop/GD32VW553/V1_MQTT_OK/GD32VW55X_Wifi_BLE_SDK/GD32VW55x_RELEASE_V1.0.2/MSDK/lwip/lwip-2.1.2/src/core\dns.c ****   size_t i;
 501:C:/Users/stapi/OneDrive/Desktop/GD32VW553/V1_MQTT_OK/GD32VW55X_Wifi_BLE_SDK/GD32VW55x_RELEASE_V1.0.2/MSDK/lwip/lwip-2.1.2/src/core\dns.c ****   for (i = 0; i < LWIP_ARRAYSIZE(local_hostlist_static); i++) {
 502:C:/Users/stapi/OneDrive/Desktop/GD32VW553/V1_MQTT_OK/GD32VW55X_Wifi_BLE_SDK/GD32VW55x_RELEASE_V1.0.2/MSDK/lwip/lwip-2.1.2/src/core\dns.c ****     if ((lwip_stricmp(local_hostlist_static[i].name, hostname) == 0) &&
 503:C:/Users/stapi/OneDrive/Desktop/GD32VW553/V1_MQTT_OK/GD32VW55X_Wifi_BLE_SDK/GD32VW55x_RELEASE_V1.0.2/MSDK/lwip/lwip-2.1.2/src/core\dns.c ****         LWIP_DNS_ADDRTYPE_MATCH_IP(dns_addrtype, local_hostlist_static[i].addr)) {
 504:C:/Users/stapi/OneDrive/Desktop/GD32VW553/V1_MQTT_OK/GD32VW55X_Wifi_BLE_SDK/GD32VW55x_RELEASE_V1.0.2/MSDK/lwip/lwip-2.1.2/src/core\dns.c ****       if (addr) {
 505:C:/Users/stapi/OneDrive/Desktop/GD32VW553/V1_MQTT_OK/GD32VW55X_Wifi_BLE_SDK/GD32VW55x_RELEASE_V1.0.2/MSDK/lwip/lwip-2.1.2/src/core\dns.c ****         ip_addr_copy(*addr, local_hostlist_static[i].addr);
 506:C:/Users/stapi/OneDrive/Desktop/GD32VW553/V1_MQTT_OK/GD32VW55X_Wifi_BLE_SDK/GD32VW55x_RELEASE_V1.0.2/MSDK/lwip/lwip-2.1.2/src/core\dns.c ****       }
 507:C:/Users/stapi/OneDrive/Desktop/GD32VW553/V1_MQTT_OK/GD32VW55X_Wifi_BLE_SDK/GD32VW55x_RELEASE_V1.0.2/MSDK/lwip/lwip-2.1.2/src/core\dns.c ****       return ERR_OK;
 508:C:/Users/stapi/OneDrive/Desktop/GD32VW553/V1_MQTT_OK/GD32VW55X_Wifi_BLE_SDK/GD32VW55x_RELEASE_V1.0.2/MSDK/lwip/lwip-2.1.2/src/core\dns.c ****     }
 509:C:/Users/stapi/OneDrive/Desktop/GD32VW553/V1_MQTT_OK/GD32VW55X_Wifi_BLE_SDK/GD32VW55x_RELEASE_V1.0.2/MSDK/lwip/lwip-2.1.2/src/core\dns.c ****   }
 510:C:/Users/stapi/OneDrive/Desktop/GD32VW553/V1_MQTT_OK/GD32VW55X_Wifi_BLE_SDK/GD32VW55x_RELEASE_V1.0.2/MSDK/lwip/lwip-2.1.2/src/core\dns.c **** #endif /* DNS_LOCAL_HOSTLIST_IS_DYNAMIC */
 511:C:/Users/stapi/OneDrive/Desktop/GD32VW553/V1_MQTT_OK/GD32VW55X_Wifi_BLE_SDK/GD32VW55x_RELEASE_V1.0.2/MSDK/lwip/lwip-2.1.2/src/core\dns.c ****   return ERR_ARG;
 512:C:/Users/stapi/OneDrive/Desktop/GD32VW553/V1_MQTT_OK/GD32VW55X_Wifi_BLE_SDK/GD32VW55x_RELEASE_V1.0.2/MSDK/lwip/lwip-2.1.2/src/core\dns.c **** }
 513:C:/Users/stapi/OneDrive/Desktop/GD32VW553/V1_MQTT_OK/GD32VW55X_Wifi_BLE_SDK/GD32VW55x_RELEASE_V1.0.2/MSDK/lwip/lwip-2.1.2/src/core\dns.c **** 
 514:C:/Users/stapi/OneDrive/Desktop/GD32VW553/V1_MQTT_OK/GD32VW55X_Wifi_BLE_SDK/GD32VW55x_RELEASE_V1.0.2/MSDK/lwip/lwip-2.1.2/src/core\dns.c **** #if DNS_LOCAL_HOSTLIST_IS_DYNAMIC
 515:C:/Users/stapi/OneDrive/Desktop/GD32VW553/V1_MQTT_OK/GD32VW55X_Wifi_BLE_SDK/GD32VW55x_RELEASE_V1.0.2/MSDK/lwip/lwip-2.1.2/src/core\dns.c **** /**
 516:C:/Users/stapi/OneDrive/Desktop/GD32VW553/V1_MQTT_OK/GD32VW55X_Wifi_BLE_SDK/GD32VW55x_RELEASE_V1.0.2/MSDK/lwip/lwip-2.1.2/src/core\dns.c ****  * @ingroup dns
 517:C:/Users/stapi/OneDrive/Desktop/GD32VW553/V1_MQTT_OK/GD32VW55X_Wifi_BLE_SDK/GD32VW55x_RELEASE_V1.0.2/MSDK/lwip/lwip-2.1.2/src/core\dns.c ****  * Remove all entries from the local host-list for a specific hostname
 518:C:/Users/stapi/OneDrive/Desktop/GD32VW553/V1_MQTT_OK/GD32VW55X_Wifi_BLE_SDK/GD32VW55x_RELEASE_V1.0.2/MSDK/lwip/lwip-2.1.2/src/core\dns.c ****  * and/or IP address
 519:C:/Users/stapi/OneDrive/Desktop/GD32VW553/V1_MQTT_OK/GD32VW55X_Wifi_BLE_SDK/GD32VW55x_RELEASE_V1.0.2/MSDK/lwip/lwip-2.1.2/src/core\dns.c ****  *
 520:C:/Users/stapi/OneDrive/Desktop/GD32VW553/V1_MQTT_OK/GD32VW55X_Wifi_BLE_SDK/GD32VW55x_RELEASE_V1.0.2/MSDK/lwip/lwip-2.1.2/src/core\dns.c ****  * @param hostname hostname for which entries shall be removed from the local
 521:C:/Users/stapi/OneDrive/Desktop/GD32VW553/V1_MQTT_OK/GD32VW55X_Wifi_BLE_SDK/GD32VW55x_RELEASE_V1.0.2/MSDK/lwip/lwip-2.1.2/src/core\dns.c ****  *                 host-list
 522:C:/Users/stapi/OneDrive/Desktop/GD32VW553/V1_MQTT_OK/GD32VW55X_Wifi_BLE_SDK/GD32VW55x_RELEASE_V1.0.2/MSDK/lwip/lwip-2.1.2/src/core\dns.c ****  * @param addr address for which entries shall be removed from the local host-list
 523:C:/Users/stapi/OneDrive/Desktop/GD32VW553/V1_MQTT_OK/GD32VW55X_Wifi_BLE_SDK/GD32VW55x_RELEASE_V1.0.2/MSDK/lwip/lwip-2.1.2/src/core\dns.c ****  * @return the number of removed entries
 524:C:/Users/stapi/OneDrive/Desktop/GD32VW553/V1_MQTT_OK/GD32VW55X_Wifi_BLE_SDK/GD32VW55x_RELEASE_V1.0.2/MSDK/lwip/lwip-2.1.2/src/core\dns.c ****  */
 525:C:/Users/stapi/OneDrive/Desktop/GD32VW553/V1_MQTT_OK/GD32VW55X_Wifi_BLE_SDK/GD32VW55x_RELEASE_V1.0.2/MSDK/lwip/lwip-2.1.2/src/core\dns.c **** int
 526:C:/Users/stapi/OneDrive/Desktop/GD32VW553/V1_MQTT_OK/GD32VW55X_Wifi_BLE_SDK/GD32VW55x_RELEASE_V1.0.2/MSDK/lwip/lwip-2.1.2/src/core\dns.c **** dns_local_removehost(const char *hostname, const ip_addr_t *addr)
 527:C:/Users/stapi/OneDrive/Desktop/GD32VW553/V1_MQTT_OK/GD32VW55X_Wifi_BLE_SDK/GD32VW55x_RELEASE_V1.0.2/MSDK/lwip/lwip-2.1.2/src/core\dns.c **** {
 528:C:/Users/stapi/OneDrive/Desktop/GD32VW553/V1_MQTT_OK/GD32VW55X_Wifi_BLE_SDK/GD32VW55x_RELEASE_V1.0.2/MSDK/lwip/lwip-2.1.2/src/core\dns.c ****   int removed = 0;
 529:C:/Users/stapi/OneDrive/Desktop/GD32VW553/V1_MQTT_OK/GD32VW55X_Wifi_BLE_SDK/GD32VW55x_RELEASE_V1.0.2/MSDK/lwip/lwip-2.1.2/src/core\dns.c ****   struct local_hostlist_entry *entry = local_hostlist_dynamic;
 530:C:/Users/stapi/OneDrive/Desktop/GD32VW553/V1_MQTT_OK/GD32VW55X_Wifi_BLE_SDK/GD32VW55x_RELEASE_V1.0.2/MSDK/lwip/lwip-2.1.2/src/core\dns.c ****   struct local_hostlist_entry *last_entry = NULL;
 531:C:/Users/stapi/OneDrive/Desktop/GD32VW553/V1_MQTT_OK/GD32VW55X_Wifi_BLE_SDK/GD32VW55x_RELEASE_V1.0.2/MSDK/lwip/lwip-2.1.2/src/core\dns.c ****   while (entry != NULL) {
 532:C:/Users/stapi/OneDrive/Desktop/GD32VW553/V1_MQTT_OK/GD32VW55X_Wifi_BLE_SDK/GD32VW55x_RELEASE_V1.0.2/MSDK/lwip/lwip-2.1.2/src/core\dns.c ****     if (((hostname == NULL) || !lwip_stricmp(entry->name, hostname)) &&
 533:C:/Users/stapi/OneDrive/Desktop/GD32VW553/V1_MQTT_OK/GD32VW55X_Wifi_BLE_SDK/GD32VW55x_RELEASE_V1.0.2/MSDK/lwip/lwip-2.1.2/src/core\dns.c ****         ((addr == NULL) || ip_addr_cmp(&entry->addr, addr))) {
 534:C:/Users/stapi/OneDrive/Desktop/GD32VW553/V1_MQTT_OK/GD32VW55X_Wifi_BLE_SDK/GD32VW55x_RELEASE_V1.0.2/MSDK/lwip/lwip-2.1.2/src/core\dns.c ****       struct local_hostlist_entry *free_entry;
 535:C:/Users/stapi/OneDrive/Desktop/GD32VW553/V1_MQTT_OK/GD32VW55X_Wifi_BLE_SDK/GD32VW55x_RELEASE_V1.0.2/MSDK/lwip/lwip-2.1.2/src/core\dns.c ****       if (last_entry != NULL) {
 536:C:/Users/stapi/OneDrive/Desktop/GD32VW553/V1_MQTT_OK/GD32VW55X_Wifi_BLE_SDK/GD32VW55x_RELEASE_V1.0.2/MSDK/lwip/lwip-2.1.2/src/core\dns.c ****         last_entry->next = entry->next;
 537:C:/Users/stapi/OneDrive/Desktop/GD32VW553/V1_MQTT_OK/GD32VW55X_Wifi_BLE_SDK/GD32VW55x_RELEASE_V1.0.2/MSDK/lwip/lwip-2.1.2/src/core\dns.c ****       } else {
 538:C:/Users/stapi/OneDrive/Desktop/GD32VW553/V1_MQTT_OK/GD32VW55X_Wifi_BLE_SDK/GD32VW55x_RELEASE_V1.0.2/MSDK/lwip/lwip-2.1.2/src/core\dns.c ****         local_hostlist_dynamic = entry->next;
 539:C:/Users/stapi/OneDrive/Desktop/GD32VW553/V1_MQTT_OK/GD32VW55X_Wifi_BLE_SDK/GD32VW55x_RELEASE_V1.0.2/MSDK/lwip/lwip-2.1.2/src/core\dns.c ****       }
 540:C:/Users/stapi/OneDrive/Desktop/GD32VW553/V1_MQTT_OK/GD32VW55X_Wifi_BLE_SDK/GD32VW55x_RELEASE_V1.0.2/MSDK/lwip/lwip-2.1.2/src/core\dns.c ****       free_entry = entry;
 541:C:/Users/stapi/OneDrive/Desktop/GD32VW553/V1_MQTT_OK/GD32VW55X_Wifi_BLE_SDK/GD32VW55x_RELEASE_V1.0.2/MSDK/lwip/lwip-2.1.2/src/core\dns.c ****       entry = entry->next;
 542:C:/Users/stapi/OneDrive/Desktop/GD32VW553/V1_MQTT_OK/GD32VW55X_Wifi_BLE_SDK/GD32VW55x_RELEASE_V1.0.2/MSDK/lwip/lwip-2.1.2/src/core\dns.c ****       memp_free(MEMP_LOCALHOSTLIST, free_entry);
 543:C:/Users/stapi/OneDrive/Desktop/GD32VW553/V1_MQTT_OK/GD32VW55X_Wifi_BLE_SDK/GD32VW55x_RELEASE_V1.0.2/MSDK/lwip/lwip-2.1.2/src/core\dns.c ****       removed++;
 544:C:/Users/stapi/OneDrive/Desktop/GD32VW553/V1_MQTT_OK/GD32VW55X_Wifi_BLE_SDK/GD32VW55x_RELEASE_V1.0.2/MSDK/lwip/lwip-2.1.2/src/core\dns.c ****     } else {
 545:C:/Users/stapi/OneDrive/Desktop/GD32VW553/V1_MQTT_OK/GD32VW55X_Wifi_BLE_SDK/GD32VW55x_RELEASE_V1.0.2/MSDK/lwip/lwip-2.1.2/src/core\dns.c ****       last_entry = entry;
 546:C:/Users/stapi/OneDrive/Desktop/GD32VW553/V1_MQTT_OK/GD32VW55X_Wifi_BLE_SDK/GD32VW55x_RELEASE_V1.0.2/MSDK/lwip/lwip-2.1.2/src/core\dns.c ****       entry = entry->next;
 547:C:/Users/stapi/OneDrive/Desktop/GD32VW553/V1_MQTT_OK/GD32VW55X_Wifi_BLE_SDK/GD32VW55x_RELEASE_V1.0.2/MSDK/lwip/lwip-2.1.2/src/core\dns.c ****     }
 548:C:/Users/stapi/OneDrive/Desktop/GD32VW553/V1_MQTT_OK/GD32VW55X_Wifi_BLE_SDK/GD32VW55x_RELEASE_V1.0.2/MSDK/lwip/lwip-2.1.2/src/core\dns.c ****   }
 549:C:/Users/stapi/OneDrive/Desktop/GD32VW553/V1_MQTT_OK/GD32VW55X_Wifi_BLE_SDK/GD32VW55x_RELEASE_V1.0.2/MSDK/lwip/lwip-2.1.2/src/core\dns.c ****   return removed;
 550:C:/Users/stapi/OneDrive/Desktop/GD32VW553/V1_MQTT_OK/GD32VW55X_Wifi_BLE_SDK/GD32VW55x_RELEASE_V1.0.2/MSDK/lwip/lwip-2.1.2/src/core\dns.c **** }
 551:C:/Users/stapi/OneDrive/Desktop/GD32VW553/V1_MQTT_OK/GD32VW55X_Wifi_BLE_SDK/GD32VW55x_RELEASE_V1.0.2/MSDK/lwip/lwip-2.1.2/src/core\dns.c **** 
 552:C:/Users/stapi/OneDrive/Desktop/GD32VW553/V1_MQTT_OK/GD32VW55X_Wifi_BLE_SDK/GD32VW55x_RELEASE_V1.0.2/MSDK/lwip/lwip-2.1.2/src/core\dns.c **** /**
 553:C:/Users/stapi/OneDrive/Desktop/GD32VW553/V1_MQTT_OK/GD32VW55X_Wifi_BLE_SDK/GD32VW55x_RELEASE_V1.0.2/MSDK/lwip/lwip-2.1.2/src/core\dns.c ****  * @ingroup dns
 554:C:/Users/stapi/OneDrive/Desktop/GD32VW553/V1_MQTT_OK/GD32VW55X_Wifi_BLE_SDK/GD32VW55x_RELEASE_V1.0.2/MSDK/lwip/lwip-2.1.2/src/core\dns.c ****  * Add a hostname/IP address pair to the local host-list.
 555:C:/Users/stapi/OneDrive/Desktop/GD32VW553/V1_MQTT_OK/GD32VW55X_Wifi_BLE_SDK/GD32VW55x_RELEASE_V1.0.2/MSDK/lwip/lwip-2.1.2/src/core\dns.c ****  * Duplicates are not checked.
 556:C:/Users/stapi/OneDrive/Desktop/GD32VW553/V1_MQTT_OK/GD32VW55X_Wifi_BLE_SDK/GD32VW55x_RELEASE_V1.0.2/MSDK/lwip/lwip-2.1.2/src/core\dns.c ****  *
 557:C:/Users/stapi/OneDrive/Desktop/GD32VW553/V1_MQTT_OK/GD32VW55X_Wifi_BLE_SDK/GD32VW55x_RELEASE_V1.0.2/MSDK/lwip/lwip-2.1.2/src/core\dns.c ****  * @param hostname hostname of the new entry
 558:C:/Users/stapi/OneDrive/Desktop/GD32VW553/V1_MQTT_OK/GD32VW55X_Wifi_BLE_SDK/GD32VW55x_RELEASE_V1.0.2/MSDK/lwip/lwip-2.1.2/src/core\dns.c ****  * @param addr IP address of the new entry
 559:C:/Users/stapi/OneDrive/Desktop/GD32VW553/V1_MQTT_OK/GD32VW55X_Wifi_BLE_SDK/GD32VW55x_RELEASE_V1.0.2/MSDK/lwip/lwip-2.1.2/src/core\dns.c ****  * @return ERR_OK if succeeded or ERR_MEM on memory error
 560:C:/Users/stapi/OneDrive/Desktop/GD32VW553/V1_MQTT_OK/GD32VW55X_Wifi_BLE_SDK/GD32VW55x_RELEASE_V1.0.2/MSDK/lwip/lwip-2.1.2/src/core\dns.c ****  */
 561:C:/Users/stapi/OneDrive/Desktop/GD32VW553/V1_MQTT_OK/GD32VW55X_Wifi_BLE_SDK/GD32VW55x_RELEASE_V1.0.2/MSDK/lwip/lwip-2.1.2/src/core\dns.c **** err_t
 562:C:/Users/stapi/OneDrive/Desktop/GD32VW553/V1_MQTT_OK/GD32VW55X_Wifi_BLE_SDK/GD32VW55x_RELEASE_V1.0.2/MSDK/lwip/lwip-2.1.2/src/core\dns.c **** dns_local_addhost(const char *hostname, const ip_addr_t *addr)
 563:C:/Users/stapi/OneDrive/Desktop/GD32VW553/V1_MQTT_OK/GD32VW55X_Wifi_BLE_SDK/GD32VW55x_RELEASE_V1.0.2/MSDK/lwip/lwip-2.1.2/src/core\dns.c **** {
 564:C:/Users/stapi/OneDrive/Desktop/GD32VW553/V1_MQTT_OK/GD32VW55X_Wifi_BLE_SDK/GD32VW55x_RELEASE_V1.0.2/MSDK/lwip/lwip-2.1.2/src/core\dns.c ****   struct local_hostlist_entry *entry;
 565:C:/Users/stapi/OneDrive/Desktop/GD32VW553/V1_MQTT_OK/GD32VW55X_Wifi_BLE_SDK/GD32VW55x_RELEASE_V1.0.2/MSDK/lwip/lwip-2.1.2/src/core\dns.c ****   size_t namelen;
 566:C:/Users/stapi/OneDrive/Desktop/GD32VW553/V1_MQTT_OK/GD32VW55X_Wifi_BLE_SDK/GD32VW55x_RELEASE_V1.0.2/MSDK/lwip/lwip-2.1.2/src/core\dns.c ****   char *entry_name;
 567:C:/Users/stapi/OneDrive/Desktop/GD32VW553/V1_MQTT_OK/GD32VW55X_Wifi_BLE_SDK/GD32VW55x_RELEASE_V1.0.2/MSDK/lwip/lwip-2.1.2/src/core\dns.c ****   LWIP_ASSERT("invalid host name (NULL)", hostname != NULL);
 568:C:/Users/stapi/OneDrive/Desktop/GD32VW553/V1_MQTT_OK/GD32VW55X_Wifi_BLE_SDK/GD32VW55x_RELEASE_V1.0.2/MSDK/lwip/lwip-2.1.2/src/core\dns.c ****   namelen = strlen(hostname);
 569:C:/Users/stapi/OneDrive/Desktop/GD32VW553/V1_MQTT_OK/GD32VW55X_Wifi_BLE_SDK/GD32VW55x_RELEASE_V1.0.2/MSDK/lwip/lwip-2.1.2/src/core\dns.c ****   LWIP_ASSERT("namelen <= DNS_LOCAL_HOSTLIST_MAX_NAMELEN", namelen <= DNS_LOCAL_HOSTLIST_MAX_NAMELE
 570:C:/Users/stapi/OneDrive/Desktop/GD32VW553/V1_MQTT_OK/GD32VW55X_Wifi_BLE_SDK/GD32VW55x_RELEASE_V1.0.2/MSDK/lwip/lwip-2.1.2/src/core\dns.c ****   entry = (struct local_hostlist_entry *)memp_malloc(MEMP_LOCALHOSTLIST);
 571:C:/Users/stapi/OneDrive/Desktop/GD32VW553/V1_MQTT_OK/GD32VW55X_Wifi_BLE_SDK/GD32VW55x_RELEASE_V1.0.2/MSDK/lwip/lwip-2.1.2/src/core\dns.c ****   if (entry == NULL) {
 572:C:/Users/stapi/OneDrive/Desktop/GD32VW553/V1_MQTT_OK/GD32VW55X_Wifi_BLE_SDK/GD32VW55x_RELEASE_V1.0.2/MSDK/lwip/lwip-2.1.2/src/core\dns.c ****     return ERR_MEM;
 573:C:/Users/stapi/OneDrive/Desktop/GD32VW553/V1_MQTT_OK/GD32VW55X_Wifi_BLE_SDK/GD32VW55x_RELEASE_V1.0.2/MSDK/lwip/lwip-2.1.2/src/core\dns.c ****   }
 574:C:/Users/stapi/OneDrive/Desktop/GD32VW553/V1_MQTT_OK/GD32VW55X_Wifi_BLE_SDK/GD32VW55x_RELEASE_V1.0.2/MSDK/lwip/lwip-2.1.2/src/core\dns.c ****   entry_name = (char *)entry + sizeof(struct local_hostlist_entry);
 575:C:/Users/stapi/OneDrive/Desktop/GD32VW553/V1_MQTT_OK/GD32VW55X_Wifi_BLE_SDK/GD32VW55x_RELEASE_V1.0.2/MSDK/lwip/lwip-2.1.2/src/core\dns.c ****   MEMCPY(entry_name, hostname, namelen);
 576:C:/Users/stapi/OneDrive/Desktop/GD32VW553/V1_MQTT_OK/GD32VW55X_Wifi_BLE_SDK/GD32VW55x_RELEASE_V1.0.2/MSDK/lwip/lwip-2.1.2/src/core\dns.c ****   entry_name[namelen] = 0;
 577:C:/Users/stapi/OneDrive/Desktop/GD32VW553/V1_MQTT_OK/GD32VW55X_Wifi_BLE_SDK/GD32VW55x_RELEASE_V1.0.2/MSDK/lwip/lwip-2.1.2/src/core\dns.c ****   entry->name = entry_name;
 578:C:/Users/stapi/OneDrive/Desktop/GD32VW553/V1_MQTT_OK/GD32VW55X_Wifi_BLE_SDK/GD32VW55x_RELEASE_V1.0.2/MSDK/lwip/lwip-2.1.2/src/core\dns.c ****   ip_addr_copy(entry->addr, *addr);
 579:C:/Users/stapi/OneDrive/Desktop/GD32VW553/V1_MQTT_OK/GD32VW55X_Wifi_BLE_SDK/GD32VW55x_RELEASE_V1.0.2/MSDK/lwip/lwip-2.1.2/src/core\dns.c ****   entry->next = local_hostlist_dynamic;
 580:C:/Users/stapi/OneDrive/Desktop/GD32VW553/V1_MQTT_OK/GD32VW55X_Wifi_BLE_SDK/GD32VW55x_RELEASE_V1.0.2/MSDK/lwip/lwip-2.1.2/src/core\dns.c ****   local_hostlist_dynamic = entry;
 581:C:/Users/stapi/OneDrive/Desktop/GD32VW553/V1_MQTT_OK/GD32VW55X_Wifi_BLE_SDK/GD32VW55x_RELEASE_V1.0.2/MSDK/lwip/lwip-2.1.2/src/core\dns.c ****   return ERR_OK;
 582:C:/Users/stapi/OneDrive/Desktop/GD32VW553/V1_MQTT_OK/GD32VW55X_Wifi_BLE_SDK/GD32VW55x_RELEASE_V1.0.2/MSDK/lwip/lwip-2.1.2/src/core\dns.c **** }
 583:C:/Users/stapi/OneDrive/Desktop/GD32VW553/V1_MQTT_OK/GD32VW55X_Wifi_BLE_SDK/GD32VW55x_RELEASE_V1.0.2/MSDK/lwip/lwip-2.1.2/src/core\dns.c **** #endif /* DNS_LOCAL_HOSTLIST_IS_DYNAMIC*/
 584:C:/Users/stapi/OneDrive/Desktop/GD32VW553/V1_MQTT_OK/GD32VW55X_Wifi_BLE_SDK/GD32VW55x_RELEASE_V1.0.2/MSDK/lwip/lwip-2.1.2/src/core\dns.c **** #endif /* DNS_LOCAL_HOSTLIST */
 585:C:/Users/stapi/OneDrive/Desktop/GD32VW553/V1_MQTT_OK/GD32VW55X_Wifi_BLE_SDK/GD32VW55x_RELEASE_V1.0.2/MSDK/lwip/lwip-2.1.2/src/core\dns.c **** 
 586:C:/Users/stapi/OneDrive/Desktop/GD32VW553/V1_MQTT_OK/GD32VW55X_Wifi_BLE_SDK/GD32VW55x_RELEASE_V1.0.2/MSDK/lwip/lwip-2.1.2/src/core\dns.c **** /**
 587:C:/Users/stapi/OneDrive/Desktop/GD32VW553/V1_MQTT_OK/GD32VW55X_Wifi_BLE_SDK/GD32VW55x_RELEASE_V1.0.2/MSDK/lwip/lwip-2.1.2/src/core\dns.c ****  * @ingroup dns
 588:C:/Users/stapi/OneDrive/Desktop/GD32VW553/V1_MQTT_OK/GD32VW55X_Wifi_BLE_SDK/GD32VW55x_RELEASE_V1.0.2/MSDK/lwip/lwip-2.1.2/src/core\dns.c ****  * Look up a hostname in the array of known hostnames.
 589:C:/Users/stapi/OneDrive/Desktop/GD32VW553/V1_MQTT_OK/GD32VW55X_Wifi_BLE_SDK/GD32VW55x_RELEASE_V1.0.2/MSDK/lwip/lwip-2.1.2/src/core\dns.c ****  *
 590:C:/Users/stapi/OneDrive/Desktop/GD32VW553/V1_MQTT_OK/GD32VW55X_Wifi_BLE_SDK/GD32VW55x_RELEASE_V1.0.2/MSDK/lwip/lwip-2.1.2/src/core\dns.c ****  * @note This function only looks in the internal array of known
 591:C:/Users/stapi/OneDrive/Desktop/GD32VW553/V1_MQTT_OK/GD32VW55X_Wifi_BLE_SDK/GD32VW55x_RELEASE_V1.0.2/MSDK/lwip/lwip-2.1.2/src/core\dns.c ****  * hostnames, it does not send out a query for the hostname if none
 592:C:/Users/stapi/OneDrive/Desktop/GD32VW553/V1_MQTT_OK/GD32VW55X_Wifi_BLE_SDK/GD32VW55x_RELEASE_V1.0.2/MSDK/lwip/lwip-2.1.2/src/core\dns.c ****  * was found. The function dns_enqueue() can be used to send a query
 593:C:/Users/stapi/OneDrive/Desktop/GD32VW553/V1_MQTT_OK/GD32VW55X_Wifi_BLE_SDK/GD32VW55x_RELEASE_V1.0.2/MSDK/lwip/lwip-2.1.2/src/core\dns.c ****  * for a hostname.
 594:C:/Users/stapi/OneDrive/Desktop/GD32VW553/V1_MQTT_OK/GD32VW55X_Wifi_BLE_SDK/GD32VW55x_RELEASE_V1.0.2/MSDK/lwip/lwip-2.1.2/src/core\dns.c ****  *
 595:C:/Users/stapi/OneDrive/Desktop/GD32VW553/V1_MQTT_OK/GD32VW55X_Wifi_BLE_SDK/GD32VW55x_RELEASE_V1.0.2/MSDK/lwip/lwip-2.1.2/src/core\dns.c ****  * @param name the hostname to look up
 596:C:/Users/stapi/OneDrive/Desktop/GD32VW553/V1_MQTT_OK/GD32VW55X_Wifi_BLE_SDK/GD32VW55x_RELEASE_V1.0.2/MSDK/lwip/lwip-2.1.2/src/core\dns.c ****  * @param addr the hostname's IP address, as u32_t (instead of ip_addr_t to
 597:C:/Users/stapi/OneDrive/Desktop/GD32VW553/V1_MQTT_OK/GD32VW55X_Wifi_BLE_SDK/GD32VW55x_RELEASE_V1.0.2/MSDK/lwip/lwip-2.1.2/src/core\dns.c ****  *         better check for failure: != IPADDR_NONE) or IPADDR_NONE if the hostname
 598:C:/Users/stapi/OneDrive/Desktop/GD32VW553/V1_MQTT_OK/GD32VW55X_Wifi_BLE_SDK/GD32VW55x_RELEASE_V1.0.2/MSDK/lwip/lwip-2.1.2/src/core\dns.c ****  *         was not found in the cached dns_table.
 599:C:/Users/stapi/OneDrive/Desktop/GD32VW553/V1_MQTT_OK/GD32VW55X_Wifi_BLE_SDK/GD32VW55x_RELEASE_V1.0.2/MSDK/lwip/lwip-2.1.2/src/core\dns.c ****  * @return ERR_OK if found, ERR_ARG if not found
 600:C:/Users/stapi/OneDrive/Desktop/GD32VW553/V1_MQTT_OK/GD32VW55X_Wifi_BLE_SDK/GD32VW55x_RELEASE_V1.0.2/MSDK/lwip/lwip-2.1.2/src/core\dns.c ****  */
 601:C:/Users/stapi/OneDrive/Desktop/GD32VW553/V1_MQTT_OK/GD32VW55X_Wifi_BLE_SDK/GD32VW55x_RELEASE_V1.0.2/MSDK/lwip/lwip-2.1.2/src/core\dns.c **** static err_t
 602:C:/Users/stapi/OneDrive/Desktop/GD32VW553/V1_MQTT_OK/GD32VW55X_Wifi_BLE_SDK/GD32VW55x_RELEASE_V1.0.2/MSDK/lwip/lwip-2.1.2/src/core\dns.c **** dns_lookup(const char *name, ip_addr_t *addr LWIP_DNS_ADDRTYPE_ARG(u8_t dns_addrtype))
 603:C:/Users/stapi/OneDrive/Desktop/GD32VW553/V1_MQTT_OK/GD32VW55X_Wifi_BLE_SDK/GD32VW55x_RELEASE_V1.0.2/MSDK/lwip/lwip-2.1.2/src/core\dns.c **** {
 604:C:/Users/stapi/OneDrive/Desktop/GD32VW553/V1_MQTT_OK/GD32VW55X_Wifi_BLE_SDK/GD32VW55x_RELEASE_V1.0.2/MSDK/lwip/lwip-2.1.2/src/core\dns.c ****   u8_t i;
 605:C:/Users/stapi/OneDrive/Desktop/GD32VW553/V1_MQTT_OK/GD32VW55X_Wifi_BLE_SDK/GD32VW55x_RELEASE_V1.0.2/MSDK/lwip/lwip-2.1.2/src/core\dns.c **** #if DNS_LOCAL_HOSTLIST
 606:C:/Users/stapi/OneDrive/Desktop/GD32VW553/V1_MQTT_OK/GD32VW55X_Wifi_BLE_SDK/GD32VW55x_RELEASE_V1.0.2/MSDK/lwip/lwip-2.1.2/src/core\dns.c ****   if (dns_lookup_local(name, addr LWIP_DNS_ADDRTYPE_ARG(dns_addrtype)) == ERR_OK) {
 607:C:/Users/stapi/OneDrive/Desktop/GD32VW553/V1_MQTT_OK/GD32VW55X_Wifi_BLE_SDK/GD32VW55x_RELEASE_V1.0.2/MSDK/lwip/lwip-2.1.2/src/core\dns.c ****     return ERR_OK;
 608:C:/Users/stapi/OneDrive/Desktop/GD32VW553/V1_MQTT_OK/GD32VW55X_Wifi_BLE_SDK/GD32VW55x_RELEASE_V1.0.2/MSDK/lwip/lwip-2.1.2/src/core\dns.c ****   }
 609:C:/Users/stapi/OneDrive/Desktop/GD32VW553/V1_MQTT_OK/GD32VW55X_Wifi_BLE_SDK/GD32VW55x_RELEASE_V1.0.2/MSDK/lwip/lwip-2.1.2/src/core\dns.c **** #endif /* DNS_LOCAL_HOSTLIST */
 610:C:/Users/stapi/OneDrive/Desktop/GD32VW553/V1_MQTT_OK/GD32VW55X_Wifi_BLE_SDK/GD32VW55x_RELEASE_V1.0.2/MSDK/lwip/lwip-2.1.2/src/core\dns.c **** #ifdef DNS_LOOKUP_LOCAL_EXTERN
 611:C:/Users/stapi/OneDrive/Desktop/GD32VW553/V1_MQTT_OK/GD32VW55X_Wifi_BLE_SDK/GD32VW55x_RELEASE_V1.0.2/MSDK/lwip/lwip-2.1.2/src/core\dns.c ****   if (DNS_LOOKUP_LOCAL_EXTERN(name, addr, LWIP_DNS_ADDRTYPE_ARG_OR_ZERO(dns_addrtype)) == ERR_OK) {
 612:C:/Users/stapi/OneDrive/Desktop/GD32VW553/V1_MQTT_OK/GD32VW55X_Wifi_BLE_SDK/GD32VW55x_RELEASE_V1.0.2/MSDK/lwip/lwip-2.1.2/src/core\dns.c ****     return ERR_OK;
 613:C:/Users/stapi/OneDrive/Desktop/GD32VW553/V1_MQTT_OK/GD32VW55X_Wifi_BLE_SDK/GD32VW55x_RELEASE_V1.0.2/MSDK/lwip/lwip-2.1.2/src/core\dns.c ****   }
 614:C:/Users/stapi/OneDrive/Desktop/GD32VW553/V1_MQTT_OK/GD32VW55X_Wifi_BLE_SDK/GD32VW55x_RELEASE_V1.0.2/MSDK/lwip/lwip-2.1.2/src/core\dns.c **** #endif /* DNS_LOOKUP_LOCAL_EXTERN */
 615:C:/Users/stapi/OneDrive/Desktop/GD32VW553/V1_MQTT_OK/GD32VW55X_Wifi_BLE_SDK/GD32VW55x_RELEASE_V1.0.2/MSDK/lwip/lwip-2.1.2/src/core\dns.c **** 
 616:C:/Users/stapi/OneDrive/Desktop/GD32VW553/V1_MQTT_OK/GD32VW55X_Wifi_BLE_SDK/GD32VW55x_RELEASE_V1.0.2/MSDK/lwip/lwip-2.1.2/src/core\dns.c ****   /* Walk through name list, return entry if found. If not, return NULL. */
 617:C:/Users/stapi/OneDrive/Desktop/GD32VW553/V1_MQTT_OK/GD32VW55X_Wifi_BLE_SDK/GD32VW55x_RELEASE_V1.0.2/MSDK/lwip/lwip-2.1.2/src/core\dns.c ****   for (i = 0; i < DNS_TABLE_SIZE; ++i) {
 618:C:/Users/stapi/OneDrive/Desktop/GD32VW553/V1_MQTT_OK/GD32VW55X_Wifi_BLE_SDK/GD32VW55x_RELEASE_V1.0.2/MSDK/lwip/lwip-2.1.2/src/core\dns.c ****     if ((dns_table[i].state == DNS_STATE_DONE) &&
 619:C:/Users/stapi/OneDrive/Desktop/GD32VW553/V1_MQTT_OK/GD32VW55X_Wifi_BLE_SDK/GD32VW55x_RELEASE_V1.0.2/MSDK/lwip/lwip-2.1.2/src/core\dns.c ****         (lwip_strnicmp(name, dns_table[i].name, sizeof(dns_table[i].name)) == 0) &&
 620:C:/Users/stapi/OneDrive/Desktop/GD32VW553/V1_MQTT_OK/GD32VW55X_Wifi_BLE_SDK/GD32VW55x_RELEASE_V1.0.2/MSDK/lwip/lwip-2.1.2/src/core\dns.c ****         LWIP_DNS_ADDRTYPE_MATCH_IP(dns_addrtype, dns_table[i].ipaddr)) {
 621:C:/Users/stapi/OneDrive/Desktop/GD32VW553/V1_MQTT_OK/GD32VW55X_Wifi_BLE_SDK/GD32VW55x_RELEASE_V1.0.2/MSDK/lwip/lwip-2.1.2/src/core\dns.c ****       LWIP_DEBUGF(DNS_DEBUG, ("dns_lookup: \"%s\": found = ", name));
 622:C:/Users/stapi/OneDrive/Desktop/GD32VW553/V1_MQTT_OK/GD32VW55X_Wifi_BLE_SDK/GD32VW55x_RELEASE_V1.0.2/MSDK/lwip/lwip-2.1.2/src/core\dns.c ****       ip_addr_debug_print_val(DNS_DEBUG, dns_table[i].ipaddr);
 623:C:/Users/stapi/OneDrive/Desktop/GD32VW553/V1_MQTT_OK/GD32VW55X_Wifi_BLE_SDK/GD32VW55x_RELEASE_V1.0.2/MSDK/lwip/lwip-2.1.2/src/core\dns.c ****       LWIP_DEBUGF(DNS_DEBUG, ("\n"));
 624:C:/Users/stapi/OneDrive/Desktop/GD32VW553/V1_MQTT_OK/GD32VW55X_Wifi_BLE_SDK/GD32VW55x_RELEASE_V1.0.2/MSDK/lwip/lwip-2.1.2/src/core\dns.c ****       if (addr) {
 625:C:/Users/stapi/OneDrive/Desktop/GD32VW553/V1_MQTT_OK/GD32VW55X_Wifi_BLE_SDK/GD32VW55x_RELEASE_V1.0.2/MSDK/lwip/lwip-2.1.2/src/core\dns.c ****         ip_addr_copy(*addr, dns_table[i].ipaddr);
 626:C:/Users/stapi/OneDrive/Desktop/GD32VW553/V1_MQTT_OK/GD32VW55X_Wifi_BLE_SDK/GD32VW55x_RELEASE_V1.0.2/MSDK/lwip/lwip-2.1.2/src/core\dns.c ****       }
 627:C:/Users/stapi/OneDrive/Desktop/GD32VW553/V1_MQTT_OK/GD32VW55X_Wifi_BLE_SDK/GD32VW55x_RELEASE_V1.0.2/MSDK/lwip/lwip-2.1.2/src/core\dns.c ****       return ERR_OK;
 628:C:/Users/stapi/OneDrive/Desktop/GD32VW553/V1_MQTT_OK/GD32VW55X_Wifi_BLE_SDK/GD32VW55x_RELEASE_V1.0.2/MSDK/lwip/lwip-2.1.2/src/core\dns.c ****     }
 629:C:/Users/stapi/OneDrive/Desktop/GD32VW553/V1_MQTT_OK/GD32VW55X_Wifi_BLE_SDK/GD32VW55x_RELEASE_V1.0.2/MSDK/lwip/lwip-2.1.2/src/core\dns.c ****   }
 630:C:/Users/stapi/OneDrive/Desktop/GD32VW553/V1_MQTT_OK/GD32VW55X_Wifi_BLE_SDK/GD32VW55x_RELEASE_V1.0.2/MSDK/lwip/lwip-2.1.2/src/core\dns.c **** 
 631:C:/Users/stapi/OneDrive/Desktop/GD32VW553/V1_MQTT_OK/GD32VW55X_Wifi_BLE_SDK/GD32VW55x_RELEASE_V1.0.2/MSDK/lwip/lwip-2.1.2/src/core\dns.c ****   return ERR_ARG;
 632:C:/Users/stapi/OneDrive/Desktop/GD32VW553/V1_MQTT_OK/GD32VW55X_Wifi_BLE_SDK/GD32VW55x_RELEASE_V1.0.2/MSDK/lwip/lwip-2.1.2/src/core\dns.c **** }
 633:C:/Users/stapi/OneDrive/Desktop/GD32VW553/V1_MQTT_OK/GD32VW55X_Wifi_BLE_SDK/GD32VW55x_RELEASE_V1.0.2/MSDK/lwip/lwip-2.1.2/src/core\dns.c **** 
 634:C:/Users/stapi/OneDrive/Desktop/GD32VW553/V1_MQTT_OK/GD32VW55X_Wifi_BLE_SDK/GD32VW55x_RELEASE_V1.0.2/MSDK/lwip/lwip-2.1.2/src/core\dns.c **** /**
 635:C:/Users/stapi/OneDrive/Desktop/GD32VW553/V1_MQTT_OK/GD32VW55X_Wifi_BLE_SDK/GD32VW55x_RELEASE_V1.0.2/MSDK/lwip/lwip-2.1.2/src/core\dns.c ****  * Compare the "dotted" name "query" with the encoded name "response"
 636:C:/Users/stapi/OneDrive/Desktop/GD32VW553/V1_MQTT_OK/GD32VW55X_Wifi_BLE_SDK/GD32VW55x_RELEASE_V1.0.2/MSDK/lwip/lwip-2.1.2/src/core\dns.c ****  * to make sure an answer from the DNS server matches the current dns_table
 637:C:/Users/stapi/OneDrive/Desktop/GD32VW553/V1_MQTT_OK/GD32VW55X_Wifi_BLE_SDK/GD32VW55x_RELEASE_V1.0.2/MSDK/lwip/lwip-2.1.2/src/core\dns.c ****  * entry (otherwise, answers might arrive late for hostname not on the list
 638:C:/Users/stapi/OneDrive/Desktop/GD32VW553/V1_MQTT_OK/GD32VW55X_Wifi_BLE_SDK/GD32VW55x_RELEASE_V1.0.2/MSDK/lwip/lwip-2.1.2/src/core\dns.c ****  * any more).
 639:C:/Users/stapi/OneDrive/Desktop/GD32VW553/V1_MQTT_OK/GD32VW55X_Wifi_BLE_SDK/GD32VW55x_RELEASE_V1.0.2/MSDK/lwip/lwip-2.1.2/src/core\dns.c ****  *
 640:C:/Users/stapi/OneDrive/Desktop/GD32VW553/V1_MQTT_OK/GD32VW55X_Wifi_BLE_SDK/GD32VW55x_RELEASE_V1.0.2/MSDK/lwip/lwip-2.1.2/src/core\dns.c ****  * For now, this function compares case-insensitive to cope with all kinds of
 641:C:/Users/stapi/OneDrive/Desktop/GD32VW553/V1_MQTT_OK/GD32VW55X_Wifi_BLE_SDK/GD32VW55x_RELEASE_V1.0.2/MSDK/lwip/lwip-2.1.2/src/core\dns.c ****  * servers. This also means that "dns 0x20 bit encoding" must be checked
 642:C:/Users/stapi/OneDrive/Desktop/GD32VW553/V1_MQTT_OK/GD32VW55X_Wifi_BLE_SDK/GD32VW55x_RELEASE_V1.0.2/MSDK/lwip/lwip-2.1.2/src/core\dns.c ****  * externally, if we want to implement it.
 643:C:/Users/stapi/OneDrive/Desktop/GD32VW553/V1_MQTT_OK/GD32VW55X_Wifi_BLE_SDK/GD32VW55x_RELEASE_V1.0.2/MSDK/lwip/lwip-2.1.2/src/core\dns.c ****  * Currently, the request is sent exactly as passed in by he user request.
 644:C:/Users/stapi/OneDrive/Desktop/GD32VW553/V1_MQTT_OK/GD32VW55X_Wifi_BLE_SDK/GD32VW55x_RELEASE_V1.0.2/MSDK/lwip/lwip-2.1.2/src/core\dns.c ****  *
 645:C:/Users/stapi/OneDrive/Desktop/GD32VW553/V1_MQTT_OK/GD32VW55X_Wifi_BLE_SDK/GD32VW55x_RELEASE_V1.0.2/MSDK/lwip/lwip-2.1.2/src/core\dns.c ****  * @param query hostname (not encoded) from the dns_table
 646:C:/Users/stapi/OneDrive/Desktop/GD32VW553/V1_MQTT_OK/GD32VW55X_Wifi_BLE_SDK/GD32VW55x_RELEASE_V1.0.2/MSDK/lwip/lwip-2.1.2/src/core\dns.c ****  * @param p pbuf containing the encoded hostname in the DNS response
 647:C:/Users/stapi/OneDrive/Desktop/GD32VW553/V1_MQTT_OK/GD32VW55X_Wifi_BLE_SDK/GD32VW55x_RELEASE_V1.0.2/MSDK/lwip/lwip-2.1.2/src/core\dns.c ****  * @param start_offset offset into p where the name starts
 648:C:/Users/stapi/OneDrive/Desktop/GD32VW553/V1_MQTT_OK/GD32VW55X_Wifi_BLE_SDK/GD32VW55x_RELEASE_V1.0.2/MSDK/lwip/lwip-2.1.2/src/core\dns.c ****  * @return 0xFFFF: names differ, other: names equal -> offset behind name
 649:C:/Users/stapi/OneDrive/Desktop/GD32VW553/V1_MQTT_OK/GD32VW55X_Wifi_BLE_SDK/GD32VW55x_RELEASE_V1.0.2/MSDK/lwip/lwip-2.1.2/src/core\dns.c ****  */
 650:C:/Users/stapi/OneDrive/Desktop/GD32VW553/V1_MQTT_OK/GD32VW55X_Wifi_BLE_SDK/GD32VW55x_RELEASE_V1.0.2/MSDK/lwip/lwip-2.1.2/src/core\dns.c **** static u16_t
 651:C:/Users/stapi/OneDrive/Desktop/GD32VW553/V1_MQTT_OK/GD32VW55X_Wifi_BLE_SDK/GD32VW55x_RELEASE_V1.0.2/MSDK/lwip/lwip-2.1.2/src/core\dns.c **** dns_compare_name(const char *query, struct pbuf *p, u16_t start_offset)
 652:C:/Users/stapi/OneDrive/Desktop/GD32VW553/V1_MQTT_OK/GD32VW55X_Wifi_BLE_SDK/GD32VW55x_RELEASE_V1.0.2/MSDK/lwip/lwip-2.1.2/src/core\dns.c **** {
 653:C:/Users/stapi/OneDrive/Desktop/GD32VW553/V1_MQTT_OK/GD32VW55X_Wifi_BLE_SDK/GD32VW55x_RELEASE_V1.0.2/MSDK/lwip/lwip-2.1.2/src/core\dns.c ****   int n;
 654:C:/Users/stapi/OneDrive/Desktop/GD32VW553/V1_MQTT_OK/GD32VW55X_Wifi_BLE_SDK/GD32VW55x_RELEASE_V1.0.2/MSDK/lwip/lwip-2.1.2/src/core\dns.c ****   u16_t response_offset = start_offset;
 655:C:/Users/stapi/OneDrive/Desktop/GD32VW553/V1_MQTT_OK/GD32VW55X_Wifi_BLE_SDK/GD32VW55x_RELEASE_V1.0.2/MSDK/lwip/lwip-2.1.2/src/core\dns.c **** 
 656:C:/Users/stapi/OneDrive/Desktop/GD32VW553/V1_MQTT_OK/GD32VW55X_Wifi_BLE_SDK/GD32VW55x_RELEASE_V1.0.2/MSDK/lwip/lwip-2.1.2/src/core\dns.c ****   do {
 657:C:/Users/stapi/OneDrive/Desktop/GD32VW553/V1_MQTT_OK/GD32VW55X_Wifi_BLE_SDK/GD32VW55x_RELEASE_V1.0.2/MSDK/lwip/lwip-2.1.2/src/core\dns.c ****     n = pbuf_try_get_at(p, response_offset);
 658:C:/Users/stapi/OneDrive/Desktop/GD32VW553/V1_MQTT_OK/GD32VW55X_Wifi_BLE_SDK/GD32VW55x_RELEASE_V1.0.2/MSDK/lwip/lwip-2.1.2/src/core\dns.c ****     if ((n < 0) || (response_offset == 0xFFFF)) {
 659:C:/Users/stapi/OneDrive/Desktop/GD32VW553/V1_MQTT_OK/GD32VW55X_Wifi_BLE_SDK/GD32VW55x_RELEASE_V1.0.2/MSDK/lwip/lwip-2.1.2/src/core\dns.c ****       /* error or overflow */
 660:C:/Users/stapi/OneDrive/Desktop/GD32VW553/V1_MQTT_OK/GD32VW55X_Wifi_BLE_SDK/GD32VW55x_RELEASE_V1.0.2/MSDK/lwip/lwip-2.1.2/src/core\dns.c ****       return 0xFFFF;
 661:C:/Users/stapi/OneDrive/Desktop/GD32VW553/V1_MQTT_OK/GD32VW55X_Wifi_BLE_SDK/GD32VW55x_RELEASE_V1.0.2/MSDK/lwip/lwip-2.1.2/src/core\dns.c ****     }
 662:C:/Users/stapi/OneDrive/Desktop/GD32VW553/V1_MQTT_OK/GD32VW55X_Wifi_BLE_SDK/GD32VW55x_RELEASE_V1.0.2/MSDK/lwip/lwip-2.1.2/src/core\dns.c ****     response_offset++;
 663:C:/Users/stapi/OneDrive/Desktop/GD32VW553/V1_MQTT_OK/GD32VW55X_Wifi_BLE_SDK/GD32VW55x_RELEASE_V1.0.2/MSDK/lwip/lwip-2.1.2/src/core\dns.c ****     /** @see RFC 1035 - 4.1.4. Message compression */
 664:C:/Users/stapi/OneDrive/Desktop/GD32VW553/V1_MQTT_OK/GD32VW55X_Wifi_BLE_SDK/GD32VW55x_RELEASE_V1.0.2/MSDK/lwip/lwip-2.1.2/src/core\dns.c ****     if ((n & 0xc0) == 0xc0) {
 665:C:/Users/stapi/OneDrive/Desktop/GD32VW553/V1_MQTT_OK/GD32VW55X_Wifi_BLE_SDK/GD32VW55x_RELEASE_V1.0.2/MSDK/lwip/lwip-2.1.2/src/core\dns.c ****       /* Compressed name: cannot be equal since we don't send them */
 666:C:/Users/stapi/OneDrive/Desktop/GD32VW553/V1_MQTT_OK/GD32VW55X_Wifi_BLE_SDK/GD32VW55x_RELEASE_V1.0.2/MSDK/lwip/lwip-2.1.2/src/core\dns.c ****       return 0xFFFF;
 667:C:/Users/stapi/OneDrive/Desktop/GD32VW553/V1_MQTT_OK/GD32VW55X_Wifi_BLE_SDK/GD32VW55x_RELEASE_V1.0.2/MSDK/lwip/lwip-2.1.2/src/core\dns.c ****     } else {
 668:C:/Users/stapi/OneDrive/Desktop/GD32VW553/V1_MQTT_OK/GD32VW55X_Wifi_BLE_SDK/GD32VW55x_RELEASE_V1.0.2/MSDK/lwip/lwip-2.1.2/src/core\dns.c ****       /* Not compressed name */
 669:C:/Users/stapi/OneDrive/Desktop/GD32VW553/V1_MQTT_OK/GD32VW55X_Wifi_BLE_SDK/GD32VW55x_RELEASE_V1.0.2/MSDK/lwip/lwip-2.1.2/src/core\dns.c ****       while (n > 0) {
 670:C:/Users/stapi/OneDrive/Desktop/GD32VW553/V1_MQTT_OK/GD32VW55X_Wifi_BLE_SDK/GD32VW55x_RELEASE_V1.0.2/MSDK/lwip/lwip-2.1.2/src/core\dns.c ****         int c = pbuf_try_get_at(p, response_offset);
 671:C:/Users/stapi/OneDrive/Desktop/GD32VW553/V1_MQTT_OK/GD32VW55X_Wifi_BLE_SDK/GD32VW55x_RELEASE_V1.0.2/MSDK/lwip/lwip-2.1.2/src/core\dns.c ****         if (c < 0) {
 672:C:/Users/stapi/OneDrive/Desktop/GD32VW553/V1_MQTT_OK/GD32VW55X_Wifi_BLE_SDK/GD32VW55x_RELEASE_V1.0.2/MSDK/lwip/lwip-2.1.2/src/core\dns.c ****           return 0xFFFF;
 673:C:/Users/stapi/OneDrive/Desktop/GD32VW553/V1_MQTT_OK/GD32VW55X_Wifi_BLE_SDK/GD32VW55x_RELEASE_V1.0.2/MSDK/lwip/lwip-2.1.2/src/core\dns.c ****         }
 674:C:/Users/stapi/OneDrive/Desktop/GD32VW553/V1_MQTT_OK/GD32VW55X_Wifi_BLE_SDK/GD32VW55x_RELEASE_V1.0.2/MSDK/lwip/lwip-2.1.2/src/core\dns.c ****         if (lwip_tolower((*query)) != lwip_tolower((u8_t)c)) {
 675:C:/Users/stapi/OneDrive/Desktop/GD32VW553/V1_MQTT_OK/GD32VW55X_Wifi_BLE_SDK/GD32VW55x_RELEASE_V1.0.2/MSDK/lwip/lwip-2.1.2/src/core\dns.c ****           return 0xFFFF;
 676:C:/Users/stapi/OneDrive/Desktop/GD32VW553/V1_MQTT_OK/GD32VW55X_Wifi_BLE_SDK/GD32VW55x_RELEASE_V1.0.2/MSDK/lwip/lwip-2.1.2/src/core\dns.c ****         }
 677:C:/Users/stapi/OneDrive/Desktop/GD32VW553/V1_MQTT_OK/GD32VW55X_Wifi_BLE_SDK/GD32VW55x_RELEASE_V1.0.2/MSDK/lwip/lwip-2.1.2/src/core\dns.c ****         if (response_offset == 0xFFFF) {
 678:C:/Users/stapi/OneDrive/Desktop/GD32VW553/V1_MQTT_OK/GD32VW55X_Wifi_BLE_SDK/GD32VW55x_RELEASE_V1.0.2/MSDK/lwip/lwip-2.1.2/src/core\dns.c ****           /* would overflow */
 679:C:/Users/stapi/OneDrive/Desktop/GD32VW553/V1_MQTT_OK/GD32VW55X_Wifi_BLE_SDK/GD32VW55x_RELEASE_V1.0.2/MSDK/lwip/lwip-2.1.2/src/core\dns.c ****           return 0xFFFF;
 680:C:/Users/stapi/OneDrive/Desktop/GD32VW553/V1_MQTT_OK/GD32VW55X_Wifi_BLE_SDK/GD32VW55x_RELEASE_V1.0.2/MSDK/lwip/lwip-2.1.2/src/core\dns.c ****         }
 681:C:/Users/stapi/OneDrive/Desktop/GD32VW553/V1_MQTT_OK/GD32VW55X_Wifi_BLE_SDK/GD32VW55x_RELEASE_V1.0.2/MSDK/lwip/lwip-2.1.2/src/core\dns.c ****         response_offset++;
 682:C:/Users/stapi/OneDrive/Desktop/GD32VW553/V1_MQTT_OK/GD32VW55X_Wifi_BLE_SDK/GD32VW55x_RELEASE_V1.0.2/MSDK/lwip/lwip-2.1.2/src/core\dns.c ****         ++query;
 683:C:/Users/stapi/OneDrive/Desktop/GD32VW553/V1_MQTT_OK/GD32VW55X_Wifi_BLE_SDK/GD32VW55x_RELEASE_V1.0.2/MSDK/lwip/lwip-2.1.2/src/core\dns.c ****         --n;
 684:C:/Users/stapi/OneDrive/Desktop/GD32VW553/V1_MQTT_OK/GD32VW55X_Wifi_BLE_SDK/GD32VW55x_RELEASE_V1.0.2/MSDK/lwip/lwip-2.1.2/src/core\dns.c ****       }
 685:C:/Users/stapi/OneDrive/Desktop/GD32VW553/V1_MQTT_OK/GD32VW55X_Wifi_BLE_SDK/GD32VW55x_RELEASE_V1.0.2/MSDK/lwip/lwip-2.1.2/src/core\dns.c ****       ++query;
 686:C:/Users/stapi/OneDrive/Desktop/GD32VW553/V1_MQTT_OK/GD32VW55X_Wifi_BLE_SDK/GD32VW55x_RELEASE_V1.0.2/MSDK/lwip/lwip-2.1.2/src/core\dns.c ****     }
 687:C:/Users/stapi/OneDrive/Desktop/GD32VW553/V1_MQTT_OK/GD32VW55X_Wifi_BLE_SDK/GD32VW55x_RELEASE_V1.0.2/MSDK/lwip/lwip-2.1.2/src/core\dns.c ****     n = pbuf_try_get_at(p, response_offset);
 688:C:/Users/stapi/OneDrive/Desktop/GD32VW553/V1_MQTT_OK/GD32VW55X_Wifi_BLE_SDK/GD32VW55x_RELEASE_V1.0.2/MSDK/lwip/lwip-2.1.2/src/core\dns.c ****     if (n < 0) {
 689:C:/Users/stapi/OneDrive/Desktop/GD32VW553/V1_MQTT_OK/GD32VW55X_Wifi_BLE_SDK/GD32VW55x_RELEASE_V1.0.2/MSDK/lwip/lwip-2.1.2/src/core\dns.c ****       return 0xFFFF;
 690:C:/Users/stapi/OneDrive/Desktop/GD32VW553/V1_MQTT_OK/GD32VW55X_Wifi_BLE_SDK/GD32VW55x_RELEASE_V1.0.2/MSDK/lwip/lwip-2.1.2/src/core\dns.c ****     }
 691:C:/Users/stapi/OneDrive/Desktop/GD32VW553/V1_MQTT_OK/GD32VW55X_Wifi_BLE_SDK/GD32VW55x_RELEASE_V1.0.2/MSDK/lwip/lwip-2.1.2/src/core\dns.c ****   } while (n != 0);
 692:C:/Users/stapi/OneDrive/Desktop/GD32VW553/V1_MQTT_OK/GD32VW55X_Wifi_BLE_SDK/GD32VW55x_RELEASE_V1.0.2/MSDK/lwip/lwip-2.1.2/src/core\dns.c **** 
 693:C:/Users/stapi/OneDrive/Desktop/GD32VW553/V1_MQTT_OK/GD32VW55X_Wifi_BLE_SDK/GD32VW55x_RELEASE_V1.0.2/MSDK/lwip/lwip-2.1.2/src/core\dns.c ****   if (response_offset == 0xFFFF) {
 694:C:/Users/stapi/OneDrive/Desktop/GD32VW553/V1_MQTT_OK/GD32VW55X_Wifi_BLE_SDK/GD32VW55x_RELEASE_V1.0.2/MSDK/lwip/lwip-2.1.2/src/core\dns.c ****     /* would overflow */
 695:C:/Users/stapi/OneDrive/Desktop/GD32VW553/V1_MQTT_OK/GD32VW55X_Wifi_BLE_SDK/GD32VW55x_RELEASE_V1.0.2/MSDK/lwip/lwip-2.1.2/src/core\dns.c ****     return 0xFFFF;
 696:C:/Users/stapi/OneDrive/Desktop/GD32VW553/V1_MQTT_OK/GD32VW55X_Wifi_BLE_SDK/GD32VW55x_RELEASE_V1.0.2/MSDK/lwip/lwip-2.1.2/src/core\dns.c ****   }
 697:C:/Users/stapi/OneDrive/Desktop/GD32VW553/V1_MQTT_OK/GD32VW55X_Wifi_BLE_SDK/GD32VW55x_RELEASE_V1.0.2/MSDK/lwip/lwip-2.1.2/src/core\dns.c ****   return (u16_t)(response_offset + 1);
 698:C:/Users/stapi/OneDrive/Desktop/GD32VW553/V1_MQTT_OK/GD32VW55X_Wifi_BLE_SDK/GD32VW55x_RELEASE_V1.0.2/MSDK/lwip/lwip-2.1.2/src/core\dns.c **** }
 699:C:/Users/stapi/OneDrive/Desktop/GD32VW553/V1_MQTT_OK/GD32VW55X_Wifi_BLE_SDK/GD32VW55x_RELEASE_V1.0.2/MSDK/lwip/lwip-2.1.2/src/core\dns.c **** 
 700:C:/Users/stapi/OneDrive/Desktop/GD32VW553/V1_MQTT_OK/GD32VW55X_Wifi_BLE_SDK/GD32VW55x_RELEASE_V1.0.2/MSDK/lwip/lwip-2.1.2/src/core\dns.c **** /**
 701:C:/Users/stapi/OneDrive/Desktop/GD32VW553/V1_MQTT_OK/GD32VW55X_Wifi_BLE_SDK/GD32VW55x_RELEASE_V1.0.2/MSDK/lwip/lwip-2.1.2/src/core\dns.c ****  * Walk through a compact encoded DNS name and return the end of the name.
 702:C:/Users/stapi/OneDrive/Desktop/GD32VW553/V1_MQTT_OK/GD32VW55X_Wifi_BLE_SDK/GD32VW55x_RELEASE_V1.0.2/MSDK/lwip/lwip-2.1.2/src/core\dns.c ****  *
 703:C:/Users/stapi/OneDrive/Desktop/GD32VW553/V1_MQTT_OK/GD32VW55X_Wifi_BLE_SDK/GD32VW55x_RELEASE_V1.0.2/MSDK/lwip/lwip-2.1.2/src/core\dns.c ****  * @param p pbuf containing the name
 704:C:/Users/stapi/OneDrive/Desktop/GD32VW553/V1_MQTT_OK/GD32VW55X_Wifi_BLE_SDK/GD32VW55x_RELEASE_V1.0.2/MSDK/lwip/lwip-2.1.2/src/core\dns.c ****  * @param query_idx start index into p pointing to encoded DNS name in the DNS server response
 705:C:/Users/stapi/OneDrive/Desktop/GD32VW553/V1_MQTT_OK/GD32VW55X_Wifi_BLE_SDK/GD32VW55x_RELEASE_V1.0.2/MSDK/lwip/lwip-2.1.2/src/core\dns.c ****  * @return index to end of the name
 706:C:/Users/stapi/OneDrive/Desktop/GD32VW553/V1_MQTT_OK/GD32VW55X_Wifi_BLE_SDK/GD32VW55x_RELEASE_V1.0.2/MSDK/lwip/lwip-2.1.2/src/core\dns.c ****  */
 707:C:/Users/stapi/OneDrive/Desktop/GD32VW553/V1_MQTT_OK/GD32VW55X_Wifi_BLE_SDK/GD32VW55x_RELEASE_V1.0.2/MSDK/lwip/lwip-2.1.2/src/core\dns.c **** static u16_t
 708:C:/Users/stapi/OneDrive/Desktop/GD32VW553/V1_MQTT_OK/GD32VW55X_Wifi_BLE_SDK/GD32VW55x_RELEASE_V1.0.2/MSDK/lwip/lwip-2.1.2/src/core\dns.c **** dns_skip_name(struct pbuf *p, u16_t query_idx)
 709:C:/Users/stapi/OneDrive/Desktop/GD32VW553/V1_MQTT_OK/GD32VW55X_Wifi_BLE_SDK/GD32VW55x_RELEASE_V1.0.2/MSDK/lwip/lwip-2.1.2/src/core\dns.c **** {
 710:C:/Users/stapi/OneDrive/Desktop/GD32VW553/V1_MQTT_OK/GD32VW55X_Wifi_BLE_SDK/GD32VW55x_RELEASE_V1.0.2/MSDK/lwip/lwip-2.1.2/src/core\dns.c ****   int n;
 711:C:/Users/stapi/OneDrive/Desktop/GD32VW553/V1_MQTT_OK/GD32VW55X_Wifi_BLE_SDK/GD32VW55x_RELEASE_V1.0.2/MSDK/lwip/lwip-2.1.2/src/core\dns.c ****   u16_t offset = query_idx;
 712:C:/Users/stapi/OneDrive/Desktop/GD32VW553/V1_MQTT_OK/GD32VW55X_Wifi_BLE_SDK/GD32VW55x_RELEASE_V1.0.2/MSDK/lwip/lwip-2.1.2/src/core\dns.c **** 
 713:C:/Users/stapi/OneDrive/Desktop/GD32VW553/V1_MQTT_OK/GD32VW55X_Wifi_BLE_SDK/GD32VW55x_RELEASE_V1.0.2/MSDK/lwip/lwip-2.1.2/src/core\dns.c ****   do {
 714:C:/Users/stapi/OneDrive/Desktop/GD32VW553/V1_MQTT_OK/GD32VW55X_Wifi_BLE_SDK/GD32VW55x_RELEASE_V1.0.2/MSDK/lwip/lwip-2.1.2/src/core\dns.c ****     n = pbuf_try_get_at(p, offset++);
 715:C:/Users/stapi/OneDrive/Desktop/GD32VW553/V1_MQTT_OK/GD32VW55X_Wifi_BLE_SDK/GD32VW55x_RELEASE_V1.0.2/MSDK/lwip/lwip-2.1.2/src/core\dns.c ****     if ((n < 0) || (offset == 0)) {
 716:C:/Users/stapi/OneDrive/Desktop/GD32VW553/V1_MQTT_OK/GD32VW55X_Wifi_BLE_SDK/GD32VW55x_RELEASE_V1.0.2/MSDK/lwip/lwip-2.1.2/src/core\dns.c ****       return 0xFFFF;
 717:C:/Users/stapi/OneDrive/Desktop/GD32VW553/V1_MQTT_OK/GD32VW55X_Wifi_BLE_SDK/GD32VW55x_RELEASE_V1.0.2/MSDK/lwip/lwip-2.1.2/src/core\dns.c ****     }
 718:C:/Users/stapi/OneDrive/Desktop/GD32VW553/V1_MQTT_OK/GD32VW55X_Wifi_BLE_SDK/GD32VW55x_RELEASE_V1.0.2/MSDK/lwip/lwip-2.1.2/src/core\dns.c ****     /** @see RFC 1035 - 4.1.4. Message compression */
 719:C:/Users/stapi/OneDrive/Desktop/GD32VW553/V1_MQTT_OK/GD32VW55X_Wifi_BLE_SDK/GD32VW55x_RELEASE_V1.0.2/MSDK/lwip/lwip-2.1.2/src/core\dns.c ****     if ((n & 0xc0) == 0xc0) {
 720:C:/Users/stapi/OneDrive/Desktop/GD32VW553/V1_MQTT_OK/GD32VW55X_Wifi_BLE_SDK/GD32VW55x_RELEASE_V1.0.2/MSDK/lwip/lwip-2.1.2/src/core\dns.c ****       /* Compressed name: since we only want to skip it (not check it), stop here */
 721:C:/Users/stapi/OneDrive/Desktop/GD32VW553/V1_MQTT_OK/GD32VW55X_Wifi_BLE_SDK/GD32VW55x_RELEASE_V1.0.2/MSDK/lwip/lwip-2.1.2/src/core\dns.c ****       break;
 722:C:/Users/stapi/OneDrive/Desktop/GD32VW553/V1_MQTT_OK/GD32VW55X_Wifi_BLE_SDK/GD32VW55x_RELEASE_V1.0.2/MSDK/lwip/lwip-2.1.2/src/core\dns.c ****     } else {
 723:C:/Users/stapi/OneDrive/Desktop/GD32VW553/V1_MQTT_OK/GD32VW55X_Wifi_BLE_SDK/GD32VW55x_RELEASE_V1.0.2/MSDK/lwip/lwip-2.1.2/src/core\dns.c ****       /* Not compressed name */
 724:C:/Users/stapi/OneDrive/Desktop/GD32VW553/V1_MQTT_OK/GD32VW55X_Wifi_BLE_SDK/GD32VW55x_RELEASE_V1.0.2/MSDK/lwip/lwip-2.1.2/src/core\dns.c ****       if (offset + n >= p->tot_len) {
 725:C:/Users/stapi/OneDrive/Desktop/GD32VW553/V1_MQTT_OK/GD32VW55X_Wifi_BLE_SDK/GD32VW55x_RELEASE_V1.0.2/MSDK/lwip/lwip-2.1.2/src/core\dns.c ****         return 0xFFFF;
 726:C:/Users/stapi/OneDrive/Desktop/GD32VW553/V1_MQTT_OK/GD32VW55X_Wifi_BLE_SDK/GD32VW55x_RELEASE_V1.0.2/MSDK/lwip/lwip-2.1.2/src/core\dns.c ****       }
 727:C:/Users/stapi/OneDrive/Desktop/GD32VW553/V1_MQTT_OK/GD32VW55X_Wifi_BLE_SDK/GD32VW55x_RELEASE_V1.0.2/MSDK/lwip/lwip-2.1.2/src/core\dns.c ****       offset = (u16_t)(offset + n);
 728:C:/Users/stapi/OneDrive/Desktop/GD32VW553/V1_MQTT_OK/GD32VW55X_Wifi_BLE_SDK/GD32VW55x_RELEASE_V1.0.2/MSDK/lwip/lwip-2.1.2/src/core\dns.c ****     }
 729:C:/Users/stapi/OneDrive/Desktop/GD32VW553/V1_MQTT_OK/GD32VW55X_Wifi_BLE_SDK/GD32VW55x_RELEASE_V1.0.2/MSDK/lwip/lwip-2.1.2/src/core\dns.c ****     n = pbuf_try_get_at(p, offset);
 730:C:/Users/stapi/OneDrive/Desktop/GD32VW553/V1_MQTT_OK/GD32VW55X_Wifi_BLE_SDK/GD32VW55x_RELEASE_V1.0.2/MSDK/lwip/lwip-2.1.2/src/core\dns.c ****     if (n < 0) {
 731:C:/Users/stapi/OneDrive/Desktop/GD32VW553/V1_MQTT_OK/GD32VW55X_Wifi_BLE_SDK/GD32VW55x_RELEASE_V1.0.2/MSDK/lwip/lwip-2.1.2/src/core\dns.c ****       return 0xFFFF;
 732:C:/Users/stapi/OneDrive/Desktop/GD32VW553/V1_MQTT_OK/GD32VW55X_Wifi_BLE_SDK/GD32VW55x_RELEASE_V1.0.2/MSDK/lwip/lwip-2.1.2/src/core\dns.c ****     }
 733:C:/Users/stapi/OneDrive/Desktop/GD32VW553/V1_MQTT_OK/GD32VW55X_Wifi_BLE_SDK/GD32VW55x_RELEASE_V1.0.2/MSDK/lwip/lwip-2.1.2/src/core\dns.c ****   } while (n != 0);
 734:C:/Users/stapi/OneDrive/Desktop/GD32VW553/V1_MQTT_OK/GD32VW55X_Wifi_BLE_SDK/GD32VW55x_RELEASE_V1.0.2/MSDK/lwip/lwip-2.1.2/src/core\dns.c **** 
 735:C:/Users/stapi/OneDrive/Desktop/GD32VW553/V1_MQTT_OK/GD32VW55X_Wifi_BLE_SDK/GD32VW55x_RELEASE_V1.0.2/MSDK/lwip/lwip-2.1.2/src/core\dns.c ****   if (offset == 0xFFFF) {
 736:C:/Users/stapi/OneDrive/Desktop/GD32VW553/V1_MQTT_OK/GD32VW55X_Wifi_BLE_SDK/GD32VW55x_RELEASE_V1.0.2/MSDK/lwip/lwip-2.1.2/src/core\dns.c ****     return 0xFFFF;
 737:C:/Users/stapi/OneDrive/Desktop/GD32VW553/V1_MQTT_OK/GD32VW55X_Wifi_BLE_SDK/GD32VW55x_RELEASE_V1.0.2/MSDK/lwip/lwip-2.1.2/src/core\dns.c ****   }
 738:C:/Users/stapi/OneDrive/Desktop/GD32VW553/V1_MQTT_OK/GD32VW55X_Wifi_BLE_SDK/GD32VW55x_RELEASE_V1.0.2/MSDK/lwip/lwip-2.1.2/src/core\dns.c ****   return (u16_t)(offset + 1);
 739:C:/Users/stapi/OneDrive/Desktop/GD32VW553/V1_MQTT_OK/GD32VW55X_Wifi_BLE_SDK/GD32VW55x_RELEASE_V1.0.2/MSDK/lwip/lwip-2.1.2/src/core\dns.c **** }
 740:C:/Users/stapi/OneDrive/Desktop/GD32VW553/V1_MQTT_OK/GD32VW55X_Wifi_BLE_SDK/GD32VW55x_RELEASE_V1.0.2/MSDK/lwip/lwip-2.1.2/src/core\dns.c **** 
 741:C:/Users/stapi/OneDrive/Desktop/GD32VW553/V1_MQTT_OK/GD32VW55X_Wifi_BLE_SDK/GD32VW55x_RELEASE_V1.0.2/MSDK/lwip/lwip-2.1.2/src/core\dns.c **** /**
 742:C:/Users/stapi/OneDrive/Desktop/GD32VW553/V1_MQTT_OK/GD32VW55X_Wifi_BLE_SDK/GD32VW55x_RELEASE_V1.0.2/MSDK/lwip/lwip-2.1.2/src/core\dns.c ****  * Send a DNS query packet.
 743:C:/Users/stapi/OneDrive/Desktop/GD32VW553/V1_MQTT_OK/GD32VW55X_Wifi_BLE_SDK/GD32VW55x_RELEASE_V1.0.2/MSDK/lwip/lwip-2.1.2/src/core\dns.c ****  *
 744:C:/Users/stapi/OneDrive/Desktop/GD32VW553/V1_MQTT_OK/GD32VW55X_Wifi_BLE_SDK/GD32VW55x_RELEASE_V1.0.2/MSDK/lwip/lwip-2.1.2/src/core\dns.c ****  * @param idx the DNS table entry index for which to send a request
 745:C:/Users/stapi/OneDrive/Desktop/GD32VW553/V1_MQTT_OK/GD32VW55X_Wifi_BLE_SDK/GD32VW55x_RELEASE_V1.0.2/MSDK/lwip/lwip-2.1.2/src/core\dns.c ****  * @return ERR_OK if packet is sent; an err_t indicating the problem otherwise
 746:C:/Users/stapi/OneDrive/Desktop/GD32VW553/V1_MQTT_OK/GD32VW55X_Wifi_BLE_SDK/GD32VW55x_RELEASE_V1.0.2/MSDK/lwip/lwip-2.1.2/src/core\dns.c ****  */
 747:C:/Users/stapi/OneDrive/Desktop/GD32VW553/V1_MQTT_OK/GD32VW55X_Wifi_BLE_SDK/GD32VW55x_RELEASE_V1.0.2/MSDK/lwip/lwip-2.1.2/src/core\dns.c **** static err_t
 748:C:/Users/stapi/OneDrive/Desktop/GD32VW553/V1_MQTT_OK/GD32VW55X_Wifi_BLE_SDK/GD32VW55x_RELEASE_V1.0.2/MSDK/lwip/lwip-2.1.2/src/core\dns.c **** dns_send(u8_t idx)
 749:C:/Users/stapi/OneDrive/Desktop/GD32VW553/V1_MQTT_OK/GD32VW55X_Wifi_BLE_SDK/GD32VW55x_RELEASE_V1.0.2/MSDK/lwip/lwip-2.1.2/src/core\dns.c **** {
 750:C:/Users/stapi/OneDrive/Desktop/GD32VW553/V1_MQTT_OK/GD32VW55X_Wifi_BLE_SDK/GD32VW55x_RELEASE_V1.0.2/MSDK/lwip/lwip-2.1.2/src/core\dns.c ****   err_t err;
 751:C:/Users/stapi/OneDrive/Desktop/GD32VW553/V1_MQTT_OK/GD32VW55X_Wifi_BLE_SDK/GD32VW55x_RELEASE_V1.0.2/MSDK/lwip/lwip-2.1.2/src/core\dns.c ****   struct dns_hdr hdr;
 752:C:/Users/stapi/OneDrive/Desktop/GD32VW553/V1_MQTT_OK/GD32VW55X_Wifi_BLE_SDK/GD32VW55x_RELEASE_V1.0.2/MSDK/lwip/lwip-2.1.2/src/core\dns.c ****   struct dns_query qry;
 753:C:/Users/stapi/OneDrive/Desktop/GD32VW553/V1_MQTT_OK/GD32VW55X_Wifi_BLE_SDK/GD32VW55x_RELEASE_V1.0.2/MSDK/lwip/lwip-2.1.2/src/core\dns.c ****   struct pbuf *p;
 754:C:/Users/stapi/OneDrive/Desktop/GD32VW553/V1_MQTT_OK/GD32VW55X_Wifi_BLE_SDK/GD32VW55x_RELEASE_V1.0.2/MSDK/lwip/lwip-2.1.2/src/core\dns.c ****   u16_t query_idx, copy_len;
 755:C:/Users/stapi/OneDrive/Desktop/GD32VW553/V1_MQTT_OK/GD32VW55X_Wifi_BLE_SDK/GD32VW55x_RELEASE_V1.0.2/MSDK/lwip/lwip-2.1.2/src/core\dns.c ****   const char *hostname, *hostname_part;
 756:C:/Users/stapi/OneDrive/Desktop/GD32VW553/V1_MQTT_OK/GD32VW55X_Wifi_BLE_SDK/GD32VW55x_RELEASE_V1.0.2/MSDK/lwip/lwip-2.1.2/src/core\dns.c ****   u8_t n;
 757:C:/Users/stapi/OneDrive/Desktop/GD32VW553/V1_MQTT_OK/GD32VW55X_Wifi_BLE_SDK/GD32VW55x_RELEASE_V1.0.2/MSDK/lwip/lwip-2.1.2/src/core\dns.c ****   u8_t pcb_idx;
 758:C:/Users/stapi/OneDrive/Desktop/GD32VW553/V1_MQTT_OK/GD32VW55X_Wifi_BLE_SDK/GD32VW55x_RELEASE_V1.0.2/MSDK/lwip/lwip-2.1.2/src/core\dns.c ****   struct dns_table_entry *entry = &dns_table[idx];
 759:C:/Users/stapi/OneDrive/Desktop/GD32VW553/V1_MQTT_OK/GD32VW55X_Wifi_BLE_SDK/GD32VW55x_RELEASE_V1.0.2/MSDK/lwip/lwip-2.1.2/src/core\dns.c **** 
 760:C:/Users/stapi/OneDrive/Desktop/GD32VW553/V1_MQTT_OK/GD32VW55X_Wifi_BLE_SDK/GD32VW55x_RELEASE_V1.0.2/MSDK/lwip/lwip-2.1.2/src/core\dns.c ****   LWIP_DEBUGF(DNS_DEBUG, ("dns_send: dns_servers[%"U16_F"] \"%s\": request\n",
 761:C:/Users/stapi/OneDrive/Desktop/GD32VW553/V1_MQTT_OK/GD32VW55X_Wifi_BLE_SDK/GD32VW55x_RELEASE_V1.0.2/MSDK/lwip/lwip-2.1.2/src/core\dns.c ****                           (u16_t)(entry->server_idx), entry->name));
 762:C:/Users/stapi/OneDrive/Desktop/GD32VW553/V1_MQTT_OK/GD32VW55X_Wifi_BLE_SDK/GD32VW55x_RELEASE_V1.0.2/MSDK/lwip/lwip-2.1.2/src/core\dns.c ****   LWIP_ASSERT("dns server out of array", entry->server_idx < DNS_MAX_SERVERS);
 763:C:/Users/stapi/OneDrive/Desktop/GD32VW553/V1_MQTT_OK/GD32VW55X_Wifi_BLE_SDK/GD32VW55x_RELEASE_V1.0.2/MSDK/lwip/lwip-2.1.2/src/core\dns.c ****   if (ip_addr_isany_val(dns_servers[entry->server_idx])
 764:C:/Users/stapi/OneDrive/Desktop/GD32VW553/V1_MQTT_OK/GD32VW55X_Wifi_BLE_SDK/GD32VW55x_RELEASE_V1.0.2/MSDK/lwip/lwip-2.1.2/src/core\dns.c **** #if LWIP_DNS_SUPPORT_MDNS_QUERIES
 765:C:/Users/stapi/OneDrive/Desktop/GD32VW553/V1_MQTT_OK/GD32VW55X_Wifi_BLE_SDK/GD32VW55x_RELEASE_V1.0.2/MSDK/lwip/lwip-2.1.2/src/core\dns.c ****       && !entry->is_mdns
 766:C:/Users/stapi/OneDrive/Desktop/GD32VW553/V1_MQTT_OK/GD32VW55X_Wifi_BLE_SDK/GD32VW55x_RELEASE_V1.0.2/MSDK/lwip/lwip-2.1.2/src/core\dns.c **** #endif
 767:C:/Users/stapi/OneDrive/Desktop/GD32VW553/V1_MQTT_OK/GD32VW55X_Wifi_BLE_SDK/GD32VW55x_RELEASE_V1.0.2/MSDK/lwip/lwip-2.1.2/src/core\dns.c ****      ) {
 768:C:/Users/stapi/OneDrive/Desktop/GD32VW553/V1_MQTT_OK/GD32VW55X_Wifi_BLE_SDK/GD32VW55x_RELEASE_V1.0.2/MSDK/lwip/lwip-2.1.2/src/core\dns.c ****     /* DNS server not valid anymore, e.g. PPP netif has been shut down */
 769:C:/Users/stapi/OneDrive/Desktop/GD32VW553/V1_MQTT_OK/GD32VW55X_Wifi_BLE_SDK/GD32VW55x_RELEASE_V1.0.2/MSDK/lwip/lwip-2.1.2/src/core\dns.c ****     /* call specified callback function if provided */
 770:C:/Users/stapi/OneDrive/Desktop/GD32VW553/V1_MQTT_OK/GD32VW55X_Wifi_BLE_SDK/GD32VW55x_RELEASE_V1.0.2/MSDK/lwip/lwip-2.1.2/src/core\dns.c ****     dns_call_found(idx, NULL);
 771:C:/Users/stapi/OneDrive/Desktop/GD32VW553/V1_MQTT_OK/GD32VW55X_Wifi_BLE_SDK/GD32VW55x_RELEASE_V1.0.2/MSDK/lwip/lwip-2.1.2/src/core\dns.c ****     /* flush this entry */
 772:C:/Users/stapi/OneDrive/Desktop/GD32VW553/V1_MQTT_OK/GD32VW55X_Wifi_BLE_SDK/GD32VW55x_RELEASE_V1.0.2/MSDK/lwip/lwip-2.1.2/src/core\dns.c ****     entry->state = DNS_STATE_UNUSED;
 773:C:/Users/stapi/OneDrive/Desktop/GD32VW553/V1_MQTT_OK/GD32VW55X_Wifi_BLE_SDK/GD32VW55x_RELEASE_V1.0.2/MSDK/lwip/lwip-2.1.2/src/core\dns.c ****     return ERR_OK;
 774:C:/Users/stapi/OneDrive/Desktop/GD32VW553/V1_MQTT_OK/GD32VW55X_Wifi_BLE_SDK/GD32VW55x_RELEASE_V1.0.2/MSDK/lwip/lwip-2.1.2/src/core\dns.c ****   }
 775:C:/Users/stapi/OneDrive/Desktop/GD32VW553/V1_MQTT_OK/GD32VW55X_Wifi_BLE_SDK/GD32VW55x_RELEASE_V1.0.2/MSDK/lwip/lwip-2.1.2/src/core\dns.c **** 
 776:C:/Users/stapi/OneDrive/Desktop/GD32VW553/V1_MQTT_OK/GD32VW55X_Wifi_BLE_SDK/GD32VW55x_RELEASE_V1.0.2/MSDK/lwip/lwip-2.1.2/src/core\dns.c ****   /* if here, we have either a new query or a retry on a previous query to process */
 777:C:/Users/stapi/OneDrive/Desktop/GD32VW553/V1_MQTT_OK/GD32VW55X_Wifi_BLE_SDK/GD32VW55x_RELEASE_V1.0.2/MSDK/lwip/lwip-2.1.2/src/core\dns.c ****   p = pbuf_alloc(PBUF_TRANSPORT, (u16_t)(SIZEOF_DNS_HDR + strlen(entry->name) + 2 +
 778:C:/Users/stapi/OneDrive/Desktop/GD32VW553/V1_MQTT_OK/GD32VW55X_Wifi_BLE_SDK/GD32VW55x_RELEASE_V1.0.2/MSDK/lwip/lwip-2.1.2/src/core\dns.c ****                                          SIZEOF_DNS_QUERY), PBUF_RAM);
 779:C:/Users/stapi/OneDrive/Desktop/GD32VW553/V1_MQTT_OK/GD32VW55X_Wifi_BLE_SDK/GD32VW55x_RELEASE_V1.0.2/MSDK/lwip/lwip-2.1.2/src/core\dns.c ****   if (p != NULL) {
 780:C:/Users/stapi/OneDrive/Desktop/GD32VW553/V1_MQTT_OK/GD32VW55X_Wifi_BLE_SDK/GD32VW55x_RELEASE_V1.0.2/MSDK/lwip/lwip-2.1.2/src/core\dns.c ****     const ip_addr_t *dst;
 781:C:/Users/stapi/OneDrive/Desktop/GD32VW553/V1_MQTT_OK/GD32VW55X_Wifi_BLE_SDK/GD32VW55x_RELEASE_V1.0.2/MSDK/lwip/lwip-2.1.2/src/core\dns.c ****     u16_t dst_port;
 782:C:/Users/stapi/OneDrive/Desktop/GD32VW553/V1_MQTT_OK/GD32VW55X_Wifi_BLE_SDK/GD32VW55x_RELEASE_V1.0.2/MSDK/lwip/lwip-2.1.2/src/core\dns.c ****     /* fill dns header */
 783:C:/Users/stapi/OneDrive/Desktop/GD32VW553/V1_MQTT_OK/GD32VW55X_Wifi_BLE_SDK/GD32VW55x_RELEASE_V1.0.2/MSDK/lwip/lwip-2.1.2/src/core\dns.c ****     memset(&hdr, 0, SIZEOF_DNS_HDR);
 784:C:/Users/stapi/OneDrive/Desktop/GD32VW553/V1_MQTT_OK/GD32VW55X_Wifi_BLE_SDK/GD32VW55x_RELEASE_V1.0.2/MSDK/lwip/lwip-2.1.2/src/core\dns.c ****     hdr.id = lwip_htons(entry->txid);
 785:C:/Users/stapi/OneDrive/Desktop/GD32VW553/V1_MQTT_OK/GD32VW55X_Wifi_BLE_SDK/GD32VW55x_RELEASE_V1.0.2/MSDK/lwip/lwip-2.1.2/src/core\dns.c ****     hdr.flags1 = DNS_FLAG1_RD;
 786:C:/Users/stapi/OneDrive/Desktop/GD32VW553/V1_MQTT_OK/GD32VW55X_Wifi_BLE_SDK/GD32VW55x_RELEASE_V1.0.2/MSDK/lwip/lwip-2.1.2/src/core\dns.c ****     hdr.numquestions = PP_HTONS(1);
 787:C:/Users/stapi/OneDrive/Desktop/GD32VW553/V1_MQTT_OK/GD32VW55X_Wifi_BLE_SDK/GD32VW55x_RELEASE_V1.0.2/MSDK/lwip/lwip-2.1.2/src/core\dns.c ****     pbuf_take(p, &hdr, SIZEOF_DNS_HDR);
 788:C:/Users/stapi/OneDrive/Desktop/GD32VW553/V1_MQTT_OK/GD32VW55X_Wifi_BLE_SDK/GD32VW55x_RELEASE_V1.0.2/MSDK/lwip/lwip-2.1.2/src/core\dns.c ****     hostname = entry->name;
 789:C:/Users/stapi/OneDrive/Desktop/GD32VW553/V1_MQTT_OK/GD32VW55X_Wifi_BLE_SDK/GD32VW55x_RELEASE_V1.0.2/MSDK/lwip/lwip-2.1.2/src/core\dns.c ****     --hostname;
 790:C:/Users/stapi/OneDrive/Desktop/GD32VW553/V1_MQTT_OK/GD32VW55X_Wifi_BLE_SDK/GD32VW55x_RELEASE_V1.0.2/MSDK/lwip/lwip-2.1.2/src/core\dns.c **** 
 791:C:/Users/stapi/OneDrive/Desktop/GD32VW553/V1_MQTT_OK/GD32VW55X_Wifi_BLE_SDK/GD32VW55x_RELEASE_V1.0.2/MSDK/lwip/lwip-2.1.2/src/core\dns.c ****     /* convert hostname into suitable query format. */
 792:C:/Users/stapi/OneDrive/Desktop/GD32VW553/V1_MQTT_OK/GD32VW55X_Wifi_BLE_SDK/GD32VW55x_RELEASE_V1.0.2/MSDK/lwip/lwip-2.1.2/src/core\dns.c ****     query_idx = SIZEOF_DNS_HDR;
 793:C:/Users/stapi/OneDrive/Desktop/GD32VW553/V1_MQTT_OK/GD32VW55X_Wifi_BLE_SDK/GD32VW55x_RELEASE_V1.0.2/MSDK/lwip/lwip-2.1.2/src/core\dns.c ****     do {
 794:C:/Users/stapi/OneDrive/Desktop/GD32VW553/V1_MQTT_OK/GD32VW55X_Wifi_BLE_SDK/GD32VW55x_RELEASE_V1.0.2/MSDK/lwip/lwip-2.1.2/src/core\dns.c ****       ++hostname;
 795:C:/Users/stapi/OneDrive/Desktop/GD32VW553/V1_MQTT_OK/GD32VW55X_Wifi_BLE_SDK/GD32VW55x_RELEASE_V1.0.2/MSDK/lwip/lwip-2.1.2/src/core\dns.c ****       hostname_part = hostname;
 796:C:/Users/stapi/OneDrive/Desktop/GD32VW553/V1_MQTT_OK/GD32VW55X_Wifi_BLE_SDK/GD32VW55x_RELEASE_V1.0.2/MSDK/lwip/lwip-2.1.2/src/core\dns.c ****       for (n = 0; *hostname != '.' && *hostname != 0; ++hostname) {
 797:C:/Users/stapi/OneDrive/Desktop/GD32VW553/V1_MQTT_OK/GD32VW55X_Wifi_BLE_SDK/GD32VW55x_RELEASE_V1.0.2/MSDK/lwip/lwip-2.1.2/src/core\dns.c ****         ++n;
 798:C:/Users/stapi/OneDrive/Desktop/GD32VW553/V1_MQTT_OK/GD32VW55X_Wifi_BLE_SDK/GD32VW55x_RELEASE_V1.0.2/MSDK/lwip/lwip-2.1.2/src/core\dns.c ****       }
 799:C:/Users/stapi/OneDrive/Desktop/GD32VW553/V1_MQTT_OK/GD32VW55X_Wifi_BLE_SDK/GD32VW55x_RELEASE_V1.0.2/MSDK/lwip/lwip-2.1.2/src/core\dns.c ****       copy_len = (u16_t)(hostname - hostname_part);
 800:C:/Users/stapi/OneDrive/Desktop/GD32VW553/V1_MQTT_OK/GD32VW55X_Wifi_BLE_SDK/GD32VW55x_RELEASE_V1.0.2/MSDK/lwip/lwip-2.1.2/src/core\dns.c ****       if (query_idx + n + 1 > 0xFFFF) {
 801:C:/Users/stapi/OneDrive/Desktop/GD32VW553/V1_MQTT_OK/GD32VW55X_Wifi_BLE_SDK/GD32VW55x_RELEASE_V1.0.2/MSDK/lwip/lwip-2.1.2/src/core\dns.c ****         /* u16_t overflow */
 802:C:/Users/stapi/OneDrive/Desktop/GD32VW553/V1_MQTT_OK/GD32VW55X_Wifi_BLE_SDK/GD32VW55x_RELEASE_V1.0.2/MSDK/lwip/lwip-2.1.2/src/core\dns.c ****         goto overflow_return;
 803:C:/Users/stapi/OneDrive/Desktop/GD32VW553/V1_MQTT_OK/GD32VW55X_Wifi_BLE_SDK/GD32VW55x_RELEASE_V1.0.2/MSDK/lwip/lwip-2.1.2/src/core\dns.c ****       }
 804:C:/Users/stapi/OneDrive/Desktop/GD32VW553/V1_MQTT_OK/GD32VW55X_Wifi_BLE_SDK/GD32VW55x_RELEASE_V1.0.2/MSDK/lwip/lwip-2.1.2/src/core\dns.c ****       pbuf_put_at(p, query_idx, n);
 805:C:/Users/stapi/OneDrive/Desktop/GD32VW553/V1_MQTT_OK/GD32VW55X_Wifi_BLE_SDK/GD32VW55x_RELEASE_V1.0.2/MSDK/lwip/lwip-2.1.2/src/core\dns.c ****       pbuf_take_at(p, hostname_part, copy_len, (u16_t)(query_idx + 1));
 806:C:/Users/stapi/OneDrive/Desktop/GD32VW553/V1_MQTT_OK/GD32VW55X_Wifi_BLE_SDK/GD32VW55x_RELEASE_V1.0.2/MSDK/lwip/lwip-2.1.2/src/core\dns.c ****       query_idx = (u16_t)(query_idx + n + 1);
 807:C:/Users/stapi/OneDrive/Desktop/GD32VW553/V1_MQTT_OK/GD32VW55X_Wifi_BLE_SDK/GD32VW55x_RELEASE_V1.0.2/MSDK/lwip/lwip-2.1.2/src/core\dns.c ****     } while (*hostname != 0);
 808:C:/Users/stapi/OneDrive/Desktop/GD32VW553/V1_MQTT_OK/GD32VW55X_Wifi_BLE_SDK/GD32VW55x_RELEASE_V1.0.2/MSDK/lwip/lwip-2.1.2/src/core\dns.c ****     pbuf_put_at(p, query_idx, 0);
 809:C:/Users/stapi/OneDrive/Desktop/GD32VW553/V1_MQTT_OK/GD32VW55X_Wifi_BLE_SDK/GD32VW55x_RELEASE_V1.0.2/MSDK/lwip/lwip-2.1.2/src/core\dns.c ****     query_idx++;
 810:C:/Users/stapi/OneDrive/Desktop/GD32VW553/V1_MQTT_OK/GD32VW55X_Wifi_BLE_SDK/GD32VW55x_RELEASE_V1.0.2/MSDK/lwip/lwip-2.1.2/src/core\dns.c **** 
 811:C:/Users/stapi/OneDrive/Desktop/GD32VW553/V1_MQTT_OK/GD32VW55X_Wifi_BLE_SDK/GD32VW55x_RELEASE_V1.0.2/MSDK/lwip/lwip-2.1.2/src/core\dns.c ****     /* fill dns query */
 812:C:/Users/stapi/OneDrive/Desktop/GD32VW553/V1_MQTT_OK/GD32VW55X_Wifi_BLE_SDK/GD32VW55x_RELEASE_V1.0.2/MSDK/lwip/lwip-2.1.2/src/core\dns.c ****     if (LWIP_DNS_ADDRTYPE_IS_IPV6(entry->reqaddrtype)) {
 813:C:/Users/stapi/OneDrive/Desktop/GD32VW553/V1_MQTT_OK/GD32VW55X_Wifi_BLE_SDK/GD32VW55x_RELEASE_V1.0.2/MSDK/lwip/lwip-2.1.2/src/core\dns.c ****       qry.type = PP_HTONS(DNS_RRTYPE_AAAA);
 814:C:/Users/stapi/OneDrive/Desktop/GD32VW553/V1_MQTT_OK/GD32VW55X_Wifi_BLE_SDK/GD32VW55x_RELEASE_V1.0.2/MSDK/lwip/lwip-2.1.2/src/core\dns.c ****     } else {
 815:C:/Users/stapi/OneDrive/Desktop/GD32VW553/V1_MQTT_OK/GD32VW55X_Wifi_BLE_SDK/GD32VW55x_RELEASE_V1.0.2/MSDK/lwip/lwip-2.1.2/src/core\dns.c ****       qry.type = PP_HTONS(DNS_RRTYPE_A);
 816:C:/Users/stapi/OneDrive/Desktop/GD32VW553/V1_MQTT_OK/GD32VW55X_Wifi_BLE_SDK/GD32VW55x_RELEASE_V1.0.2/MSDK/lwip/lwip-2.1.2/src/core\dns.c ****     }
 817:C:/Users/stapi/OneDrive/Desktop/GD32VW553/V1_MQTT_OK/GD32VW55X_Wifi_BLE_SDK/GD32VW55x_RELEASE_V1.0.2/MSDK/lwip/lwip-2.1.2/src/core\dns.c ****     qry.cls = PP_HTONS(DNS_RRCLASS_IN);
 818:C:/Users/stapi/OneDrive/Desktop/GD32VW553/V1_MQTT_OK/GD32VW55X_Wifi_BLE_SDK/GD32VW55x_RELEASE_V1.0.2/MSDK/lwip/lwip-2.1.2/src/core\dns.c ****     pbuf_take_at(p, &qry, SIZEOF_DNS_QUERY, query_idx);
 819:C:/Users/stapi/OneDrive/Desktop/GD32VW553/V1_MQTT_OK/GD32VW55X_Wifi_BLE_SDK/GD32VW55x_RELEASE_V1.0.2/MSDK/lwip/lwip-2.1.2/src/core\dns.c **** 
 820:C:/Users/stapi/OneDrive/Desktop/GD32VW553/V1_MQTT_OK/GD32VW55X_Wifi_BLE_SDK/GD32VW55x_RELEASE_V1.0.2/MSDK/lwip/lwip-2.1.2/src/core\dns.c **** #if ((LWIP_DNS_SECURE & LWIP_DNS_SECURE_RAND_SRC_PORT) != 0)
 821:C:/Users/stapi/OneDrive/Desktop/GD32VW553/V1_MQTT_OK/GD32VW55X_Wifi_BLE_SDK/GD32VW55x_RELEASE_V1.0.2/MSDK/lwip/lwip-2.1.2/src/core\dns.c ****     pcb_idx = entry->pcb_idx;
 822:C:/Users/stapi/OneDrive/Desktop/GD32VW553/V1_MQTT_OK/GD32VW55X_Wifi_BLE_SDK/GD32VW55x_RELEASE_V1.0.2/MSDK/lwip/lwip-2.1.2/src/core\dns.c **** #else
 823:C:/Users/stapi/OneDrive/Desktop/GD32VW553/V1_MQTT_OK/GD32VW55X_Wifi_BLE_SDK/GD32VW55x_RELEASE_V1.0.2/MSDK/lwip/lwip-2.1.2/src/core\dns.c ****     pcb_idx = 0;
 824:C:/Users/stapi/OneDrive/Desktop/GD32VW553/V1_MQTT_OK/GD32VW55X_Wifi_BLE_SDK/GD32VW55x_RELEASE_V1.0.2/MSDK/lwip/lwip-2.1.2/src/core\dns.c **** #endif
 825:C:/Users/stapi/OneDrive/Desktop/GD32VW553/V1_MQTT_OK/GD32VW55X_Wifi_BLE_SDK/GD32VW55x_RELEASE_V1.0.2/MSDK/lwip/lwip-2.1.2/src/core\dns.c ****     /* send dns packet */
 826:C:/Users/stapi/OneDrive/Desktop/GD32VW553/V1_MQTT_OK/GD32VW55X_Wifi_BLE_SDK/GD32VW55x_RELEASE_V1.0.2/MSDK/lwip/lwip-2.1.2/src/core\dns.c ****     LWIP_DEBUGF(DNS_DEBUG, ("sending DNS request ID %d for name \"%s\" to server %d\r\n",
 827:C:/Users/stapi/OneDrive/Desktop/GD32VW553/V1_MQTT_OK/GD32VW55X_Wifi_BLE_SDK/GD32VW55x_RELEASE_V1.0.2/MSDK/lwip/lwip-2.1.2/src/core\dns.c ****                             entry->txid, entry->name, entry->server_idx));
 828:C:/Users/stapi/OneDrive/Desktop/GD32VW553/V1_MQTT_OK/GD32VW55X_Wifi_BLE_SDK/GD32VW55x_RELEASE_V1.0.2/MSDK/lwip/lwip-2.1.2/src/core\dns.c **** #if LWIP_DNS_SUPPORT_MDNS_QUERIES
 829:C:/Users/stapi/OneDrive/Desktop/GD32VW553/V1_MQTT_OK/GD32VW55X_Wifi_BLE_SDK/GD32VW55x_RELEASE_V1.0.2/MSDK/lwip/lwip-2.1.2/src/core\dns.c ****     if (entry->is_mdns) {
 830:C:/Users/stapi/OneDrive/Desktop/GD32VW553/V1_MQTT_OK/GD32VW55X_Wifi_BLE_SDK/GD32VW55x_RELEASE_V1.0.2/MSDK/lwip/lwip-2.1.2/src/core\dns.c ****       dst_port = DNS_MQUERY_PORT;
 831:C:/Users/stapi/OneDrive/Desktop/GD32VW553/V1_MQTT_OK/GD32VW55X_Wifi_BLE_SDK/GD32VW55x_RELEASE_V1.0.2/MSDK/lwip/lwip-2.1.2/src/core\dns.c **** #if LWIP_IPV6
 832:C:/Users/stapi/OneDrive/Desktop/GD32VW553/V1_MQTT_OK/GD32VW55X_Wifi_BLE_SDK/GD32VW55x_RELEASE_V1.0.2/MSDK/lwip/lwip-2.1.2/src/core\dns.c ****       if (LWIP_DNS_ADDRTYPE_IS_IPV6(entry->reqaddrtype)) {
 833:C:/Users/stapi/OneDrive/Desktop/GD32VW553/V1_MQTT_OK/GD32VW55X_Wifi_BLE_SDK/GD32VW55x_RELEASE_V1.0.2/MSDK/lwip/lwip-2.1.2/src/core\dns.c ****         dst = &dns_mquery_v6group;
 834:C:/Users/stapi/OneDrive/Desktop/GD32VW553/V1_MQTT_OK/GD32VW55X_Wifi_BLE_SDK/GD32VW55x_RELEASE_V1.0.2/MSDK/lwip/lwip-2.1.2/src/core\dns.c ****       }
 835:C:/Users/stapi/OneDrive/Desktop/GD32VW553/V1_MQTT_OK/GD32VW55X_Wifi_BLE_SDK/GD32VW55x_RELEASE_V1.0.2/MSDK/lwip/lwip-2.1.2/src/core\dns.c **** #endif
 836:C:/Users/stapi/OneDrive/Desktop/GD32VW553/V1_MQTT_OK/GD32VW55X_Wifi_BLE_SDK/GD32VW55x_RELEASE_V1.0.2/MSDK/lwip/lwip-2.1.2/src/core\dns.c **** #if LWIP_IPV4 && LWIP_IPV6
 837:C:/Users/stapi/OneDrive/Desktop/GD32VW553/V1_MQTT_OK/GD32VW55X_Wifi_BLE_SDK/GD32VW55x_RELEASE_V1.0.2/MSDK/lwip/lwip-2.1.2/src/core\dns.c ****       else
 838:C:/Users/stapi/OneDrive/Desktop/GD32VW553/V1_MQTT_OK/GD32VW55X_Wifi_BLE_SDK/GD32VW55x_RELEASE_V1.0.2/MSDK/lwip/lwip-2.1.2/src/core\dns.c **** #endif
 839:C:/Users/stapi/OneDrive/Desktop/GD32VW553/V1_MQTT_OK/GD32VW55X_Wifi_BLE_SDK/GD32VW55x_RELEASE_V1.0.2/MSDK/lwip/lwip-2.1.2/src/core\dns.c **** #if LWIP_IPV4
 840:C:/Users/stapi/OneDrive/Desktop/GD32VW553/V1_MQTT_OK/GD32VW55X_Wifi_BLE_SDK/GD32VW55x_RELEASE_V1.0.2/MSDK/lwip/lwip-2.1.2/src/core\dns.c ****       {
 841:C:/Users/stapi/OneDrive/Desktop/GD32VW553/V1_MQTT_OK/GD32VW55X_Wifi_BLE_SDK/GD32VW55x_RELEASE_V1.0.2/MSDK/lwip/lwip-2.1.2/src/core\dns.c ****         dst = &dns_mquery_v4group;
 842:C:/Users/stapi/OneDrive/Desktop/GD32VW553/V1_MQTT_OK/GD32VW55X_Wifi_BLE_SDK/GD32VW55x_RELEASE_V1.0.2/MSDK/lwip/lwip-2.1.2/src/core\dns.c ****       }
 843:C:/Users/stapi/OneDrive/Desktop/GD32VW553/V1_MQTT_OK/GD32VW55X_Wifi_BLE_SDK/GD32VW55x_RELEASE_V1.0.2/MSDK/lwip/lwip-2.1.2/src/core\dns.c **** #endif
 844:C:/Users/stapi/OneDrive/Desktop/GD32VW553/V1_MQTT_OK/GD32VW55X_Wifi_BLE_SDK/GD32VW55x_RELEASE_V1.0.2/MSDK/lwip/lwip-2.1.2/src/core\dns.c ****     } else
 845:C:/Users/stapi/OneDrive/Desktop/GD32VW553/V1_MQTT_OK/GD32VW55X_Wifi_BLE_SDK/GD32VW55x_RELEASE_V1.0.2/MSDK/lwip/lwip-2.1.2/src/core\dns.c **** #endif /* LWIP_DNS_SUPPORT_MDNS_QUERIES */
 846:C:/Users/stapi/OneDrive/Desktop/GD32VW553/V1_MQTT_OK/GD32VW55X_Wifi_BLE_SDK/GD32VW55x_RELEASE_V1.0.2/MSDK/lwip/lwip-2.1.2/src/core\dns.c ****     {
 847:C:/Users/stapi/OneDrive/Desktop/GD32VW553/V1_MQTT_OK/GD32VW55X_Wifi_BLE_SDK/GD32VW55x_RELEASE_V1.0.2/MSDK/lwip/lwip-2.1.2/src/core\dns.c ****       dst_port = DNS_SERVER_PORT;
 848:C:/Users/stapi/OneDrive/Desktop/GD32VW553/V1_MQTT_OK/GD32VW55X_Wifi_BLE_SDK/GD32VW55x_RELEASE_V1.0.2/MSDK/lwip/lwip-2.1.2/src/core\dns.c ****       dst = &dns_servers[entry->server_idx];
 849:C:/Users/stapi/OneDrive/Desktop/GD32VW553/V1_MQTT_OK/GD32VW55X_Wifi_BLE_SDK/GD32VW55x_RELEASE_V1.0.2/MSDK/lwip/lwip-2.1.2/src/core\dns.c ****     }
 850:C:/Users/stapi/OneDrive/Desktop/GD32VW553/V1_MQTT_OK/GD32VW55X_Wifi_BLE_SDK/GD32VW55x_RELEASE_V1.0.2/MSDK/lwip/lwip-2.1.2/src/core\dns.c ****     err = udp_sendto(dns_pcbs[pcb_idx], p, dst, dst_port);
 851:C:/Users/stapi/OneDrive/Desktop/GD32VW553/V1_MQTT_OK/GD32VW55X_Wifi_BLE_SDK/GD32VW55x_RELEASE_V1.0.2/MSDK/lwip/lwip-2.1.2/src/core\dns.c **** 
 852:C:/Users/stapi/OneDrive/Desktop/GD32VW553/V1_MQTT_OK/GD32VW55X_Wifi_BLE_SDK/GD32VW55x_RELEASE_V1.0.2/MSDK/lwip/lwip-2.1.2/src/core\dns.c ****     /* free pbuf */
 853:C:/Users/stapi/OneDrive/Desktop/GD32VW553/V1_MQTT_OK/GD32VW55X_Wifi_BLE_SDK/GD32VW55x_RELEASE_V1.0.2/MSDK/lwip/lwip-2.1.2/src/core\dns.c ****     pbuf_free(p);
 854:C:/Users/stapi/OneDrive/Desktop/GD32VW553/V1_MQTT_OK/GD32VW55X_Wifi_BLE_SDK/GD32VW55x_RELEASE_V1.0.2/MSDK/lwip/lwip-2.1.2/src/core\dns.c ****   } else {
 855:C:/Users/stapi/OneDrive/Desktop/GD32VW553/V1_MQTT_OK/GD32VW55X_Wifi_BLE_SDK/GD32VW55x_RELEASE_V1.0.2/MSDK/lwip/lwip-2.1.2/src/core\dns.c ****     err = ERR_MEM;
 856:C:/Users/stapi/OneDrive/Desktop/GD32VW553/V1_MQTT_OK/GD32VW55X_Wifi_BLE_SDK/GD32VW55x_RELEASE_V1.0.2/MSDK/lwip/lwip-2.1.2/src/core\dns.c ****   }
 857:C:/Users/stapi/OneDrive/Desktop/GD32VW553/V1_MQTT_OK/GD32VW55X_Wifi_BLE_SDK/GD32VW55x_RELEASE_V1.0.2/MSDK/lwip/lwip-2.1.2/src/core\dns.c **** 
 858:C:/Users/stapi/OneDrive/Desktop/GD32VW553/V1_MQTT_OK/GD32VW55X_Wifi_BLE_SDK/GD32VW55x_RELEASE_V1.0.2/MSDK/lwip/lwip-2.1.2/src/core\dns.c ****   return err;
 859:C:/Users/stapi/OneDrive/Desktop/GD32VW553/V1_MQTT_OK/GD32VW55X_Wifi_BLE_SDK/GD32VW55x_RELEASE_V1.0.2/MSDK/lwip/lwip-2.1.2/src/core\dns.c **** overflow_return:
 860:C:/Users/stapi/OneDrive/Desktop/GD32VW553/V1_MQTT_OK/GD32VW55X_Wifi_BLE_SDK/GD32VW55x_RELEASE_V1.0.2/MSDK/lwip/lwip-2.1.2/src/core\dns.c ****   pbuf_free(p);
 861:C:/Users/stapi/OneDrive/Desktop/GD32VW553/V1_MQTT_OK/GD32VW55X_Wifi_BLE_SDK/GD32VW55x_RELEASE_V1.0.2/MSDK/lwip/lwip-2.1.2/src/core\dns.c ****   return ERR_VAL;
 862:C:/Users/stapi/OneDrive/Desktop/GD32VW553/V1_MQTT_OK/GD32VW55X_Wifi_BLE_SDK/GD32VW55x_RELEASE_V1.0.2/MSDK/lwip/lwip-2.1.2/src/core\dns.c **** }
 863:C:/Users/stapi/OneDrive/Desktop/GD32VW553/V1_MQTT_OK/GD32VW55X_Wifi_BLE_SDK/GD32VW55x_RELEASE_V1.0.2/MSDK/lwip/lwip-2.1.2/src/core\dns.c **** 
 864:C:/Users/stapi/OneDrive/Desktop/GD32VW553/V1_MQTT_OK/GD32VW55X_Wifi_BLE_SDK/GD32VW55x_RELEASE_V1.0.2/MSDK/lwip/lwip-2.1.2/src/core\dns.c **** #if ((LWIP_DNS_SECURE & LWIP_DNS_SECURE_RAND_SRC_PORT) != 0)
 865:C:/Users/stapi/OneDrive/Desktop/GD32VW553/V1_MQTT_OK/GD32VW55X_Wifi_BLE_SDK/GD32VW55x_RELEASE_V1.0.2/MSDK/lwip/lwip-2.1.2/src/core\dns.c **** static struct udp_pcb *
 866:C:/Users/stapi/OneDrive/Desktop/GD32VW553/V1_MQTT_OK/GD32VW55X_Wifi_BLE_SDK/GD32VW55x_RELEASE_V1.0.2/MSDK/lwip/lwip-2.1.2/src/core\dns.c **** dns_alloc_random_port(void)
 867:C:/Users/stapi/OneDrive/Desktop/GD32VW553/V1_MQTT_OK/GD32VW55X_Wifi_BLE_SDK/GD32VW55x_RELEASE_V1.0.2/MSDK/lwip/lwip-2.1.2/src/core\dns.c **** {
 868:C:/Users/stapi/OneDrive/Desktop/GD32VW553/V1_MQTT_OK/GD32VW55X_Wifi_BLE_SDK/GD32VW55x_RELEASE_V1.0.2/MSDK/lwip/lwip-2.1.2/src/core\dns.c ****   err_t err;
 869:C:/Users/stapi/OneDrive/Desktop/GD32VW553/V1_MQTT_OK/GD32VW55X_Wifi_BLE_SDK/GD32VW55x_RELEASE_V1.0.2/MSDK/lwip/lwip-2.1.2/src/core\dns.c ****   struct udp_pcb *pcb;
 870:C:/Users/stapi/OneDrive/Desktop/GD32VW553/V1_MQTT_OK/GD32VW55X_Wifi_BLE_SDK/GD32VW55x_RELEASE_V1.0.2/MSDK/lwip/lwip-2.1.2/src/core\dns.c **** 
 871:C:/Users/stapi/OneDrive/Desktop/GD32VW553/V1_MQTT_OK/GD32VW55X_Wifi_BLE_SDK/GD32VW55x_RELEASE_V1.0.2/MSDK/lwip/lwip-2.1.2/src/core\dns.c ****   pcb = udp_new_ip_type(IPADDR_TYPE_ANY);
 872:C:/Users/stapi/OneDrive/Desktop/GD32VW553/V1_MQTT_OK/GD32VW55X_Wifi_BLE_SDK/GD32VW55x_RELEASE_V1.0.2/MSDK/lwip/lwip-2.1.2/src/core\dns.c ****   if (pcb == NULL) {
 873:C:/Users/stapi/OneDrive/Desktop/GD32VW553/V1_MQTT_OK/GD32VW55X_Wifi_BLE_SDK/GD32VW55x_RELEASE_V1.0.2/MSDK/lwip/lwip-2.1.2/src/core\dns.c ****     /* out of memory, have to reuse an existing pcb */
 874:C:/Users/stapi/OneDrive/Desktop/GD32VW553/V1_MQTT_OK/GD32VW55X_Wifi_BLE_SDK/GD32VW55x_RELEASE_V1.0.2/MSDK/lwip/lwip-2.1.2/src/core\dns.c ****     return NULL;
 875:C:/Users/stapi/OneDrive/Desktop/GD32VW553/V1_MQTT_OK/GD32VW55X_Wifi_BLE_SDK/GD32VW55x_RELEASE_V1.0.2/MSDK/lwip/lwip-2.1.2/src/core\dns.c ****   }
 876:C:/Users/stapi/OneDrive/Desktop/GD32VW553/V1_MQTT_OK/GD32VW55X_Wifi_BLE_SDK/GD32VW55x_RELEASE_V1.0.2/MSDK/lwip/lwip-2.1.2/src/core\dns.c ****   do {
 877:C:/Users/stapi/OneDrive/Desktop/GD32VW553/V1_MQTT_OK/GD32VW55X_Wifi_BLE_SDK/GD32VW55x_RELEASE_V1.0.2/MSDK/lwip/lwip-2.1.2/src/core\dns.c ****     u16_t port = (u16_t)DNS_RAND_TXID();
 878:C:/Users/stapi/OneDrive/Desktop/GD32VW553/V1_MQTT_OK/GD32VW55X_Wifi_BLE_SDK/GD32VW55x_RELEASE_V1.0.2/MSDK/lwip/lwip-2.1.2/src/core\dns.c ****     if (DNS_PORT_ALLOWED(port)) {
 879:C:/Users/stapi/OneDrive/Desktop/GD32VW553/V1_MQTT_OK/GD32VW55X_Wifi_BLE_SDK/GD32VW55x_RELEASE_V1.0.2/MSDK/lwip/lwip-2.1.2/src/core\dns.c ****       err = udp_bind(pcb, IP_ANY_TYPE, port);
 880:C:/Users/stapi/OneDrive/Desktop/GD32VW553/V1_MQTT_OK/GD32VW55X_Wifi_BLE_SDK/GD32VW55x_RELEASE_V1.0.2/MSDK/lwip/lwip-2.1.2/src/core\dns.c ****     } else {
 881:C:/Users/stapi/OneDrive/Desktop/GD32VW553/V1_MQTT_OK/GD32VW55X_Wifi_BLE_SDK/GD32VW55x_RELEASE_V1.0.2/MSDK/lwip/lwip-2.1.2/src/core\dns.c ****       /* this port is not allowed, try again */
 882:C:/Users/stapi/OneDrive/Desktop/GD32VW553/V1_MQTT_OK/GD32VW55X_Wifi_BLE_SDK/GD32VW55x_RELEASE_V1.0.2/MSDK/lwip/lwip-2.1.2/src/core\dns.c ****       err = ERR_USE;
 883:C:/Users/stapi/OneDrive/Desktop/GD32VW553/V1_MQTT_OK/GD32VW55X_Wifi_BLE_SDK/GD32VW55x_RELEASE_V1.0.2/MSDK/lwip/lwip-2.1.2/src/core\dns.c ****     }
 884:C:/Users/stapi/OneDrive/Desktop/GD32VW553/V1_MQTT_OK/GD32VW55X_Wifi_BLE_SDK/GD32VW55x_RELEASE_V1.0.2/MSDK/lwip/lwip-2.1.2/src/core\dns.c ****   } while (err == ERR_USE);
 885:C:/Users/stapi/OneDrive/Desktop/GD32VW553/V1_MQTT_OK/GD32VW55X_Wifi_BLE_SDK/GD32VW55x_RELEASE_V1.0.2/MSDK/lwip/lwip-2.1.2/src/core\dns.c ****   if (err != ERR_OK) {
 886:C:/Users/stapi/OneDrive/Desktop/GD32VW553/V1_MQTT_OK/GD32VW55X_Wifi_BLE_SDK/GD32VW55x_RELEASE_V1.0.2/MSDK/lwip/lwip-2.1.2/src/core\dns.c ****     udp_remove(pcb);
 887:C:/Users/stapi/OneDrive/Desktop/GD32VW553/V1_MQTT_OK/GD32VW55X_Wifi_BLE_SDK/GD32VW55x_RELEASE_V1.0.2/MSDK/lwip/lwip-2.1.2/src/core\dns.c ****     return NULL;
 888:C:/Users/stapi/OneDrive/Desktop/GD32VW553/V1_MQTT_OK/GD32VW55X_Wifi_BLE_SDK/GD32VW55x_RELEASE_V1.0.2/MSDK/lwip/lwip-2.1.2/src/core\dns.c ****   }
 889:C:/Users/stapi/OneDrive/Desktop/GD32VW553/V1_MQTT_OK/GD32VW55X_Wifi_BLE_SDK/GD32VW55x_RELEASE_V1.0.2/MSDK/lwip/lwip-2.1.2/src/core\dns.c ****   udp_recv(pcb, dns_recv, NULL);
 890:C:/Users/stapi/OneDrive/Desktop/GD32VW553/V1_MQTT_OK/GD32VW55X_Wifi_BLE_SDK/GD32VW55x_RELEASE_V1.0.2/MSDK/lwip/lwip-2.1.2/src/core\dns.c ****   return pcb;
 891:C:/Users/stapi/OneDrive/Desktop/GD32VW553/V1_MQTT_OK/GD32VW55X_Wifi_BLE_SDK/GD32VW55x_RELEASE_V1.0.2/MSDK/lwip/lwip-2.1.2/src/core\dns.c **** }
 892:C:/Users/stapi/OneDrive/Desktop/GD32VW553/V1_MQTT_OK/GD32VW55X_Wifi_BLE_SDK/GD32VW55x_RELEASE_V1.0.2/MSDK/lwip/lwip-2.1.2/src/core\dns.c **** 
 893:C:/Users/stapi/OneDrive/Desktop/GD32VW553/V1_MQTT_OK/GD32VW55X_Wifi_BLE_SDK/GD32VW55x_RELEASE_V1.0.2/MSDK/lwip/lwip-2.1.2/src/core\dns.c **** /**
 894:C:/Users/stapi/OneDrive/Desktop/GD32VW553/V1_MQTT_OK/GD32VW55X_Wifi_BLE_SDK/GD32VW55x_RELEASE_V1.0.2/MSDK/lwip/lwip-2.1.2/src/core\dns.c ****  * dns_alloc_pcb() - allocates a new pcb (or reuses an existing one) to be used
 895:C:/Users/stapi/OneDrive/Desktop/GD32VW553/V1_MQTT_OK/GD32VW55X_Wifi_BLE_SDK/GD32VW55x_RELEASE_V1.0.2/MSDK/lwip/lwip-2.1.2/src/core\dns.c ****  * for sending a request
 896:C:/Users/stapi/OneDrive/Desktop/GD32VW553/V1_MQTT_OK/GD32VW55X_Wifi_BLE_SDK/GD32VW55x_RELEASE_V1.0.2/MSDK/lwip/lwip-2.1.2/src/core\dns.c ****  *
 897:C:/Users/stapi/OneDrive/Desktop/GD32VW553/V1_MQTT_OK/GD32VW55X_Wifi_BLE_SDK/GD32VW55x_RELEASE_V1.0.2/MSDK/lwip/lwip-2.1.2/src/core\dns.c ****  * @return an index into dns_pcbs
 898:C:/Users/stapi/OneDrive/Desktop/GD32VW553/V1_MQTT_OK/GD32VW55X_Wifi_BLE_SDK/GD32VW55x_RELEASE_V1.0.2/MSDK/lwip/lwip-2.1.2/src/core\dns.c ****  */
 899:C:/Users/stapi/OneDrive/Desktop/GD32VW553/V1_MQTT_OK/GD32VW55X_Wifi_BLE_SDK/GD32VW55x_RELEASE_V1.0.2/MSDK/lwip/lwip-2.1.2/src/core\dns.c **** static u8_t
 900:C:/Users/stapi/OneDrive/Desktop/GD32VW553/V1_MQTT_OK/GD32VW55X_Wifi_BLE_SDK/GD32VW55x_RELEASE_V1.0.2/MSDK/lwip/lwip-2.1.2/src/core\dns.c **** dns_alloc_pcb(void)
 901:C:/Users/stapi/OneDrive/Desktop/GD32VW553/V1_MQTT_OK/GD32VW55X_Wifi_BLE_SDK/GD32VW55x_RELEASE_V1.0.2/MSDK/lwip/lwip-2.1.2/src/core\dns.c **** {
 902:C:/Users/stapi/OneDrive/Desktop/GD32VW553/V1_MQTT_OK/GD32VW55X_Wifi_BLE_SDK/GD32VW55x_RELEASE_V1.0.2/MSDK/lwip/lwip-2.1.2/src/core\dns.c ****   u8_t i;
 903:C:/Users/stapi/OneDrive/Desktop/GD32VW553/V1_MQTT_OK/GD32VW55X_Wifi_BLE_SDK/GD32VW55x_RELEASE_V1.0.2/MSDK/lwip/lwip-2.1.2/src/core\dns.c ****   u8_t idx;
 904:C:/Users/stapi/OneDrive/Desktop/GD32VW553/V1_MQTT_OK/GD32VW55X_Wifi_BLE_SDK/GD32VW55x_RELEASE_V1.0.2/MSDK/lwip/lwip-2.1.2/src/core\dns.c **** 
 905:C:/Users/stapi/OneDrive/Desktop/GD32VW553/V1_MQTT_OK/GD32VW55X_Wifi_BLE_SDK/GD32VW55x_RELEASE_V1.0.2/MSDK/lwip/lwip-2.1.2/src/core\dns.c ****   for (i = 0; i < DNS_MAX_SOURCE_PORTS; i++) {
 906:C:/Users/stapi/OneDrive/Desktop/GD32VW553/V1_MQTT_OK/GD32VW55X_Wifi_BLE_SDK/GD32VW55x_RELEASE_V1.0.2/MSDK/lwip/lwip-2.1.2/src/core\dns.c ****     if (dns_pcbs[i] == NULL) {
 907:C:/Users/stapi/OneDrive/Desktop/GD32VW553/V1_MQTT_OK/GD32VW55X_Wifi_BLE_SDK/GD32VW55x_RELEASE_V1.0.2/MSDK/lwip/lwip-2.1.2/src/core\dns.c ****       break;
 908:C:/Users/stapi/OneDrive/Desktop/GD32VW553/V1_MQTT_OK/GD32VW55X_Wifi_BLE_SDK/GD32VW55x_RELEASE_V1.0.2/MSDK/lwip/lwip-2.1.2/src/core\dns.c ****     }
 909:C:/Users/stapi/OneDrive/Desktop/GD32VW553/V1_MQTT_OK/GD32VW55X_Wifi_BLE_SDK/GD32VW55x_RELEASE_V1.0.2/MSDK/lwip/lwip-2.1.2/src/core\dns.c ****   }
 910:C:/Users/stapi/OneDrive/Desktop/GD32VW553/V1_MQTT_OK/GD32VW55X_Wifi_BLE_SDK/GD32VW55x_RELEASE_V1.0.2/MSDK/lwip/lwip-2.1.2/src/core\dns.c ****   if (i < DNS_MAX_SOURCE_PORTS) {
 911:C:/Users/stapi/OneDrive/Desktop/GD32VW553/V1_MQTT_OK/GD32VW55X_Wifi_BLE_SDK/GD32VW55x_RELEASE_V1.0.2/MSDK/lwip/lwip-2.1.2/src/core\dns.c ****     dns_pcbs[i] = dns_alloc_random_port();
 912:C:/Users/stapi/OneDrive/Desktop/GD32VW553/V1_MQTT_OK/GD32VW55X_Wifi_BLE_SDK/GD32VW55x_RELEASE_V1.0.2/MSDK/lwip/lwip-2.1.2/src/core\dns.c ****     if (dns_pcbs[i] != NULL) {
 913:C:/Users/stapi/OneDrive/Desktop/GD32VW553/V1_MQTT_OK/GD32VW55X_Wifi_BLE_SDK/GD32VW55x_RELEASE_V1.0.2/MSDK/lwip/lwip-2.1.2/src/core\dns.c ****       /* succeeded */
 914:C:/Users/stapi/OneDrive/Desktop/GD32VW553/V1_MQTT_OK/GD32VW55X_Wifi_BLE_SDK/GD32VW55x_RELEASE_V1.0.2/MSDK/lwip/lwip-2.1.2/src/core\dns.c ****       dns_last_pcb_idx = i;
 915:C:/Users/stapi/OneDrive/Desktop/GD32VW553/V1_MQTT_OK/GD32VW55X_Wifi_BLE_SDK/GD32VW55x_RELEASE_V1.0.2/MSDK/lwip/lwip-2.1.2/src/core\dns.c ****       return i;
 916:C:/Users/stapi/OneDrive/Desktop/GD32VW553/V1_MQTT_OK/GD32VW55X_Wifi_BLE_SDK/GD32VW55x_RELEASE_V1.0.2/MSDK/lwip/lwip-2.1.2/src/core\dns.c ****     }
 917:C:/Users/stapi/OneDrive/Desktop/GD32VW553/V1_MQTT_OK/GD32VW55X_Wifi_BLE_SDK/GD32VW55x_RELEASE_V1.0.2/MSDK/lwip/lwip-2.1.2/src/core\dns.c ****   }
 918:C:/Users/stapi/OneDrive/Desktop/GD32VW553/V1_MQTT_OK/GD32VW55X_Wifi_BLE_SDK/GD32VW55x_RELEASE_V1.0.2/MSDK/lwip/lwip-2.1.2/src/core\dns.c ****   /* if we come here, creating a new UDP pcb failed, so we have to use
 919:C:/Users/stapi/OneDrive/Desktop/GD32VW553/V1_MQTT_OK/GD32VW55X_Wifi_BLE_SDK/GD32VW55x_RELEASE_V1.0.2/MSDK/lwip/lwip-2.1.2/src/core\dns.c ****      an already existing one (so overflow is no issue) */
 920:C:/Users/stapi/OneDrive/Desktop/GD32VW553/V1_MQTT_OK/GD32VW55X_Wifi_BLE_SDK/GD32VW55x_RELEASE_V1.0.2/MSDK/lwip/lwip-2.1.2/src/core\dns.c ****   for (i = 0, idx = (u8_t)(dns_last_pcb_idx + 1); i < DNS_MAX_SOURCE_PORTS; i++, idx++) {
 921:C:/Users/stapi/OneDrive/Desktop/GD32VW553/V1_MQTT_OK/GD32VW55X_Wifi_BLE_SDK/GD32VW55x_RELEASE_V1.0.2/MSDK/lwip/lwip-2.1.2/src/core\dns.c ****     if (idx >= DNS_MAX_SOURCE_PORTS) {
 922:C:/Users/stapi/OneDrive/Desktop/GD32VW553/V1_MQTT_OK/GD32VW55X_Wifi_BLE_SDK/GD32VW55x_RELEASE_V1.0.2/MSDK/lwip/lwip-2.1.2/src/core\dns.c ****       idx = 0;
 923:C:/Users/stapi/OneDrive/Desktop/GD32VW553/V1_MQTT_OK/GD32VW55X_Wifi_BLE_SDK/GD32VW55x_RELEASE_V1.0.2/MSDK/lwip/lwip-2.1.2/src/core\dns.c ****     }
 924:C:/Users/stapi/OneDrive/Desktop/GD32VW553/V1_MQTT_OK/GD32VW55X_Wifi_BLE_SDK/GD32VW55x_RELEASE_V1.0.2/MSDK/lwip/lwip-2.1.2/src/core\dns.c ****     if (dns_pcbs[idx] != NULL) {
 925:C:/Users/stapi/OneDrive/Desktop/GD32VW553/V1_MQTT_OK/GD32VW55X_Wifi_BLE_SDK/GD32VW55x_RELEASE_V1.0.2/MSDK/lwip/lwip-2.1.2/src/core\dns.c ****       dns_last_pcb_idx = idx;
 926:C:/Users/stapi/OneDrive/Desktop/GD32VW553/V1_MQTT_OK/GD32VW55X_Wifi_BLE_SDK/GD32VW55x_RELEASE_V1.0.2/MSDK/lwip/lwip-2.1.2/src/core\dns.c ****       return idx;
 927:C:/Users/stapi/OneDrive/Desktop/GD32VW553/V1_MQTT_OK/GD32VW55X_Wifi_BLE_SDK/GD32VW55x_RELEASE_V1.0.2/MSDK/lwip/lwip-2.1.2/src/core\dns.c ****     }
 928:C:/Users/stapi/OneDrive/Desktop/GD32VW553/V1_MQTT_OK/GD32VW55X_Wifi_BLE_SDK/GD32VW55x_RELEASE_V1.0.2/MSDK/lwip/lwip-2.1.2/src/core\dns.c ****   }
 929:C:/Users/stapi/OneDrive/Desktop/GD32VW553/V1_MQTT_OK/GD32VW55X_Wifi_BLE_SDK/GD32VW55x_RELEASE_V1.0.2/MSDK/lwip/lwip-2.1.2/src/core\dns.c ****   return DNS_MAX_SOURCE_PORTS;
 930:C:/Users/stapi/OneDrive/Desktop/GD32VW553/V1_MQTT_OK/GD32VW55X_Wifi_BLE_SDK/GD32VW55x_RELEASE_V1.0.2/MSDK/lwip/lwip-2.1.2/src/core\dns.c **** }
 931:C:/Users/stapi/OneDrive/Desktop/GD32VW553/V1_MQTT_OK/GD32VW55X_Wifi_BLE_SDK/GD32VW55x_RELEASE_V1.0.2/MSDK/lwip/lwip-2.1.2/src/core\dns.c **** #endif /* ((LWIP_DNS_SECURE & LWIP_DNS_SECURE_RAND_SRC_PORT) != 0) */
 932:C:/Users/stapi/OneDrive/Desktop/GD32VW553/V1_MQTT_OK/GD32VW55X_Wifi_BLE_SDK/GD32VW55x_RELEASE_V1.0.2/MSDK/lwip/lwip-2.1.2/src/core\dns.c **** 
 933:C:/Users/stapi/OneDrive/Desktop/GD32VW553/V1_MQTT_OK/GD32VW55X_Wifi_BLE_SDK/GD32VW55x_RELEASE_V1.0.2/MSDK/lwip/lwip-2.1.2/src/core\dns.c **** /**
 934:C:/Users/stapi/OneDrive/Desktop/GD32VW553/V1_MQTT_OK/GD32VW55X_Wifi_BLE_SDK/GD32VW55x_RELEASE_V1.0.2/MSDK/lwip/lwip-2.1.2/src/core\dns.c ****  * dns_call_found() - call the found callback and check if there are duplicate
 935:C:/Users/stapi/OneDrive/Desktop/GD32VW553/V1_MQTT_OK/GD32VW55X_Wifi_BLE_SDK/GD32VW55x_RELEASE_V1.0.2/MSDK/lwip/lwip-2.1.2/src/core\dns.c ****  * entries for the given hostname. If there are any, their found callback will
 936:C:/Users/stapi/OneDrive/Desktop/GD32VW553/V1_MQTT_OK/GD32VW55X_Wifi_BLE_SDK/GD32VW55x_RELEASE_V1.0.2/MSDK/lwip/lwip-2.1.2/src/core\dns.c ****  * be called and they will be removed.
 937:C:/Users/stapi/OneDrive/Desktop/GD32VW553/V1_MQTT_OK/GD32VW55X_Wifi_BLE_SDK/GD32VW55x_RELEASE_V1.0.2/MSDK/lwip/lwip-2.1.2/src/core\dns.c ****  *
 938:C:/Users/stapi/OneDrive/Desktop/GD32VW553/V1_MQTT_OK/GD32VW55X_Wifi_BLE_SDK/GD32VW55x_RELEASE_V1.0.2/MSDK/lwip/lwip-2.1.2/src/core\dns.c ****  * @param idx dns table index of the entry that is resolved or removed
 939:C:/Users/stapi/OneDrive/Desktop/GD32VW553/V1_MQTT_OK/GD32VW55X_Wifi_BLE_SDK/GD32VW55x_RELEASE_V1.0.2/MSDK/lwip/lwip-2.1.2/src/core\dns.c ****  * @param addr IP address for the hostname (or NULL on error or memory shortage)
 940:C:/Users/stapi/OneDrive/Desktop/GD32VW553/V1_MQTT_OK/GD32VW55X_Wifi_BLE_SDK/GD32VW55x_RELEASE_V1.0.2/MSDK/lwip/lwip-2.1.2/src/core\dns.c ****  */
 941:C:/Users/stapi/OneDrive/Desktop/GD32VW553/V1_MQTT_OK/GD32VW55X_Wifi_BLE_SDK/GD32VW55x_RELEASE_V1.0.2/MSDK/lwip/lwip-2.1.2/src/core\dns.c **** static void
 942:C:/Users/stapi/OneDrive/Desktop/GD32VW553/V1_MQTT_OK/GD32VW55X_Wifi_BLE_SDK/GD32VW55x_RELEASE_V1.0.2/MSDK/lwip/lwip-2.1.2/src/core\dns.c **** dns_call_found(u8_t idx, ip_addr_t *addr)
 943:C:/Users/stapi/OneDrive/Desktop/GD32VW553/V1_MQTT_OK/GD32VW55X_Wifi_BLE_SDK/GD32VW55x_RELEASE_V1.0.2/MSDK/lwip/lwip-2.1.2/src/core\dns.c **** {
  15              		.loc 1 943 1
  16              		.cfi_startproc
  17              	.LVL0:
  18 0000 17030000 		call	t0,__riscv_save_6
  18      E7020300 
  19              		.cfi_offset 21, -28
  20              		.cfi_offset 20, -24
  21              		.cfi_offset 19, -20
  22              		.cfi_offset 18, -16
  23              		.cfi_offset 9, -12
  24              		.cfi_offset 8, -8
  25              		.cfi_offset 1, -4
  26              		.cfi_def_cfa_offset 32
 944:C:/Users/stapi/OneDrive/Desktop/GD32VW553/V1_MQTT_OK/GD32VW55X_Wifi_BLE_SDK/GD32VW55x_RELEASE_V1.0.2/MSDK/lwip/lwip-2.1.2/src/core\dns.c **** #if ((LWIP_DNS_SECURE & (LWIP_DNS_SECURE_NO_MULTIPLE_OUTSTANDING | LWIP_DNS_SECURE_RAND_SRC_PORT)) 
 945:C:/Users/stapi/OneDrive/Desktop/GD32VW553/V1_MQTT_OK/GD32VW55X_Wifi_BLE_SDK/GD32VW55x_RELEASE_V1.0.2/MSDK/lwip/lwip-2.1.2/src/core\dns.c ****   u8_t i;
  27              		.loc 1 945 3
 946:C:/Users/stapi/OneDrive/Desktop/GD32VW553/V1_MQTT_OK/GD32VW55X_Wifi_BLE_SDK/GD32VW55x_RELEASE_V1.0.2/MSDK/lwip/lwip-2.1.2/src/core\dns.c **** #endif
 947:C:/Users/stapi/OneDrive/Desktop/GD32VW553/V1_MQTT_OK/GD32VW55X_Wifi_BLE_SDK/GD32VW55x_RELEASE_V1.0.2/MSDK/lwip/lwip-2.1.2/src/core\dns.c **** 
 948:C:/Users/stapi/OneDrive/Desktop/GD32VW553/V1_MQTT_OK/GD32VW55X_Wifi_BLE_SDK/GD32VW55x_RELEASE_V1.0.2/MSDK/lwip/lwip-2.1.2/src/core\dns.c **** #if LWIP_IPV4 && LWIP_IPV6
 949:C:/Users/stapi/OneDrive/Desktop/GD32VW553/V1_MQTT_OK/GD32VW55X_Wifi_BLE_SDK/GD32VW55x_RELEASE_V1.0.2/MSDK/lwip/lwip-2.1.2/src/core\dns.c ****   if (addr != NULL) {
 950:C:/Users/stapi/OneDrive/Desktop/GD32VW553/V1_MQTT_OK/GD32VW55X_Wifi_BLE_SDK/GD32VW55x_RELEASE_V1.0.2/MSDK/lwip/lwip-2.1.2/src/core\dns.c ****     /* check that address type matches the request and adapt the table entry */
 951:C:/Users/stapi/OneDrive/Desktop/GD32VW553/V1_MQTT_OK/GD32VW55X_Wifi_BLE_SDK/GD32VW55x_RELEASE_V1.0.2/MSDK/lwip/lwip-2.1.2/src/core\dns.c ****     if (IP_IS_V6_VAL(*addr)) {
 952:C:/Users/stapi/OneDrive/Desktop/GD32VW553/V1_MQTT_OK/GD32VW55X_Wifi_BLE_SDK/GD32VW55x_RELEASE_V1.0.2/MSDK/lwip/lwip-2.1.2/src/core\dns.c ****       LWIP_ASSERT("invalid response", LWIP_DNS_ADDRTYPE_IS_IPV6(dns_table[idx].reqaddrtype));
 953:C:/Users/stapi/OneDrive/Desktop/GD32VW553/V1_MQTT_OK/GD32VW55X_Wifi_BLE_SDK/GD32VW55x_RELEASE_V1.0.2/MSDK/lwip/lwip-2.1.2/src/core\dns.c ****       dns_table[idx].reqaddrtype = LWIP_DNS_ADDRTYPE_IPV6;
 954:C:/Users/stapi/OneDrive/Desktop/GD32VW553/V1_MQTT_OK/GD32VW55X_Wifi_BLE_SDK/GD32VW55x_RELEASE_V1.0.2/MSDK/lwip/lwip-2.1.2/src/core\dns.c ****     } else {
 955:C:/Users/stapi/OneDrive/Desktop/GD32VW553/V1_MQTT_OK/GD32VW55X_Wifi_BLE_SDK/GD32VW55x_RELEASE_V1.0.2/MSDK/lwip/lwip-2.1.2/src/core\dns.c ****       LWIP_ASSERT("invalid response", !LWIP_DNS_ADDRTYPE_IS_IPV6(dns_table[idx].reqaddrtype));
 956:C:/Users/stapi/OneDrive/Desktop/GD32VW553/V1_MQTT_OK/GD32VW55X_Wifi_BLE_SDK/GD32VW55x_RELEASE_V1.0.2/MSDK/lwip/lwip-2.1.2/src/core\dns.c ****       dns_table[idx].reqaddrtype = LWIP_DNS_ADDRTYPE_IPV4;
 957:C:/Users/stapi/OneDrive/Desktop/GD32VW553/V1_MQTT_OK/GD32VW55X_Wifi_BLE_SDK/GD32VW55x_RELEASE_V1.0.2/MSDK/lwip/lwip-2.1.2/src/core\dns.c ****     }
 958:C:/Users/stapi/OneDrive/Desktop/GD32VW553/V1_MQTT_OK/GD32VW55X_Wifi_BLE_SDK/GD32VW55x_RELEASE_V1.0.2/MSDK/lwip/lwip-2.1.2/src/core\dns.c ****   }
 959:C:/Users/stapi/OneDrive/Desktop/GD32VW553/V1_MQTT_OK/GD32VW55X_Wifi_BLE_SDK/GD32VW55x_RELEASE_V1.0.2/MSDK/lwip/lwip-2.1.2/src/core\dns.c **** #endif /* LWIP_IPV4 && LWIP_IPV6 */
 960:C:/Users/stapi/OneDrive/Desktop/GD32VW553/V1_MQTT_OK/GD32VW55X_Wifi_BLE_SDK/GD32VW55x_RELEASE_V1.0.2/MSDK/lwip/lwip-2.1.2/src/core\dns.c **** 
 961:C:/Users/stapi/OneDrive/Desktop/GD32VW553/V1_MQTT_OK/GD32VW55X_Wifi_BLE_SDK/GD32VW55x_RELEASE_V1.0.2/MSDK/lwip/lwip-2.1.2/src/core\dns.c **** #if ((LWIP_DNS_SECURE & LWIP_DNS_SECURE_NO_MULTIPLE_OUTSTANDING) != 0)
 962:C:/Users/stapi/OneDrive/Desktop/GD32VW553/V1_MQTT_OK/GD32VW55X_Wifi_BLE_SDK/GD32VW55x_RELEASE_V1.0.2/MSDK/lwip/lwip-2.1.2/src/core\dns.c ****   for (i = 0; i < DNS_MAX_REQUESTS; i++) {
  28              		.loc 1 962 3
  29              	.LVL1:
  30              		.loc 1 962 15
 963:C:/Users/stapi/OneDrive/Desktop/GD32VW553/V1_MQTT_OK/GD32VW55X_Wifi_BLE_SDK/GD32VW55x_RELEASE_V1.0.2/MSDK/lwip/lwip-2.1.2/src/core\dns.c ****     if (dns_requests[i].found && (dns_requests[i].dns_table_idx == idx)) {
 964:C:/Users/stapi/OneDrive/Desktop/GD32VW553/V1_MQTT_OK/GD32VW55X_Wifi_BLE_SDK/GD32VW55x_RELEASE_V1.0.2/MSDK/lwip/lwip-2.1.2/src/core\dns.c ****       (*dns_requests[i].found)(dns_table[idx].name, addr, dns_requests[i].arg);
  31              		.loc 1 964 46 is_stmt 0
  32 0008 37040000 		lui	s0,%hi(.LANCHOR0)
  33 000c B7040000 		lui	s1,%hi(.LANCHOR1)
  34 0010 93090400 		addi	s3,s0,%lo(.LANCHOR0)
  35 0014 93070011 		li	a5,272
  36 0018 93840400 		addi	s1,s1,%lo(.LANCHOR1)
  37 001c FF19F5C4 		maddr32	s3, a0, a5
 943:C:/Users/stapi/OneDrive/Desktop/GD32VW553/V1_MQTT_OK/GD32VW55X_Wifi_BLE_SDK/GD32VW55x_RELEASE_V1.0.2/MSDK/lwip/lwip-2.1.2/src/core\dns.c **** #if ((LWIP_DNS_SECURE & (LWIP_DNS_SECURE_NO_MULTIPLE_OUTSTANDING | LWIP_DNS_SECURE_RAND_SRC_PORT)) 
  38              		.loc 1 943 1
  39 0020 2A89     		mv	s2,a0
  40 0022 2E8A     		mv	s4,a1
  41              		.loc 1 964 46
  42 0024 C109     		addi	s3,s3,16
  43 0026 938A0403 		addi	s5,s1,48
  44 002a 13040400 		addi	s0,s0,%lo(.LANCHOR0)
  45              	.LVL2:
  46              	.L3:
 963:C:/Users/stapi/OneDrive/Desktop/GD32VW553/V1_MQTT_OK/GD32VW55X_Wifi_BLE_SDK/GD32VW55x_RELEASE_V1.0.2/MSDK/lwip/lwip-2.1.2/src/core\dns.c ****     if (dns_requests[i].found && (dns_requests[i].dns_table_idx == idx)) {
  47              		.loc 1 963 5 is_stmt 1
 963:C:/Users/stapi/OneDrive/Desktop/GD32VW553/V1_MQTT_OK/GD32VW55X_Wifi_BLE_SDK/GD32VW55x_RELEASE_V1.0.2/MSDK/lwip/lwip-2.1.2/src/core\dns.c ****     if (dns_requests[i].found && (dns_requests[i].dns_table_idx == idx)) {
  48              		.loc 1 963 24 is_stmt 0
  49 002e 9C40     		lw	a5,0(s1)
 963:C:/Users/stapi/OneDrive/Desktop/GD32VW553/V1_MQTT_OK/GD32VW55X_Wifi_BLE_SDK/GD32VW55x_RELEASE_V1.0.2/MSDK/lwip/lwip-2.1.2/src/core\dns.c ****     if (dns_requests[i].found && (dns_requests[i].dns_table_idx == idx)) {
  50              		.loc 1 963 8
  51 0030 99CB     		beq	a5,zero,.L2
 963:C:/Users/stapi/OneDrive/Desktop/GD32VW553/V1_MQTT_OK/GD32VW55X_Wifi_BLE_SDK/GD32VW55x_RELEASE_V1.0.2/MSDK/lwip/lwip-2.1.2/src/core\dns.c ****     if (dns_requests[i].found && (dns_requests[i].dns_table_idx == idx)) {
  52              		.loc 1 963 31 discriminator 1
  53 0032 03C78400 		lbu	a4,8(s1)
  54 0036 63182701 		bne	a4,s2,.L2
  55              		.loc 1 964 7 is_stmt 1
  56              		.loc 1 964 8 is_stmt 0
  57 003a D040     		lw	a2,4(s1)
  58 003c D285     		mv	a1,s4
  59 003e 4E85     		mv	a0,s3
  60 0040 8297     		jalr	a5
  61              	.LVL3:
 965:C:/Users/stapi/OneDrive/Desktop/GD32VW553/V1_MQTT_OK/GD32VW55X_Wifi_BLE_SDK/GD32VW55x_RELEASE_V1.0.2/MSDK/lwip/lwip-2.1.2/src/core\dns.c ****       /* flush this entry */
 966:C:/Users/stapi/OneDrive/Desktop/GD32VW553/V1_MQTT_OK/GD32VW55X_Wifi_BLE_SDK/GD32VW55x_RELEASE_V1.0.2/MSDK/lwip/lwip-2.1.2/src/core\dns.c ****       dns_requests[i].found = NULL;
  62              		.loc 1 966 7 is_stmt 1
  63              		.loc 1 966 29 is_stmt 0
  64 0042 23A00400 		sw	zero,0(s1)
  65              	.L2:
 962:C:/Users/stapi/OneDrive/Desktop/GD32VW553/V1_MQTT_OK/GD32VW55X_Wifi_BLE_SDK/GD32VW55x_RELEASE_V1.0.2/MSDK/lwip/lwip-2.1.2/src/core\dns.c ****     if (dns_requests[i].found && (dns_requests[i].dns_table_idx == idx)) {
  66              		.loc 1 962 37 is_stmt 1 discriminator 2
  67              	.LVL4:
 962:C:/Users/stapi/OneDrive/Desktop/GD32VW553/V1_MQTT_OK/GD32VW55X_Wifi_BLE_SDK/GD32VW55x_RELEASE_V1.0.2/MSDK/lwip/lwip-2.1.2/src/core\dns.c ****     if (dns_requests[i].found && (dns_requests[i].dns_table_idx == idx)) {
  68              		.loc 1 962 15 discriminator 2
 962:C:/Users/stapi/OneDrive/Desktop/GD32VW553/V1_MQTT_OK/GD32VW55X_Wifi_BLE_SDK/GD32VW55x_RELEASE_V1.0.2/MSDK/lwip/lwip-2.1.2/src/core\dns.c ****     if (dns_requests[i].found && (dns_requests[i].dns_table_idx == idx)) {
  69              		.loc 1 962 3 is_stmt 0 discriminator 2
  70 0046 B104     		addi	s1,s1,12
  71              	.LVL5:
  72 0048 E39354FF 		bne	s1,s5,.L3
 967:C:/Users/stapi/OneDrive/Desktop/GD32VW553/V1_MQTT_OK/GD32VW55X_Wifi_BLE_SDK/GD32VW55x_RELEASE_V1.0.2/MSDK/lwip/lwip-2.1.2/src/core\dns.c ****     }
 968:C:/Users/stapi/OneDrive/Desktop/GD32VW553/V1_MQTT_OK/GD32VW55X_Wifi_BLE_SDK/GD32VW55x_RELEASE_V1.0.2/MSDK/lwip/lwip-2.1.2/src/core\dns.c ****   }
 969:C:/Users/stapi/OneDrive/Desktop/GD32VW553/V1_MQTT_OK/GD32VW55X_Wifi_BLE_SDK/GD32VW55x_RELEASE_V1.0.2/MSDK/lwip/lwip-2.1.2/src/core\dns.c **** #else
 970:C:/Users/stapi/OneDrive/Desktop/GD32VW553/V1_MQTT_OK/GD32VW55X_Wifi_BLE_SDK/GD32VW55x_RELEASE_V1.0.2/MSDK/lwip/lwip-2.1.2/src/core\dns.c ****   if (dns_requests[idx].found) {
 971:C:/Users/stapi/OneDrive/Desktop/GD32VW553/V1_MQTT_OK/GD32VW55X_Wifi_BLE_SDK/GD32VW55x_RELEASE_V1.0.2/MSDK/lwip/lwip-2.1.2/src/core\dns.c ****     (*dns_requests[idx].found)(dns_table[idx].name, addr, dns_requests[idx].arg);
 972:C:/Users/stapi/OneDrive/Desktop/GD32VW553/V1_MQTT_OK/GD32VW55X_Wifi_BLE_SDK/GD32VW55x_RELEASE_V1.0.2/MSDK/lwip/lwip-2.1.2/src/core\dns.c ****   }
 973:C:/Users/stapi/OneDrive/Desktop/GD32VW553/V1_MQTT_OK/GD32VW55X_Wifi_BLE_SDK/GD32VW55x_RELEASE_V1.0.2/MSDK/lwip/lwip-2.1.2/src/core\dns.c ****   dns_requests[idx].found = NULL;
 974:C:/Users/stapi/OneDrive/Desktop/GD32VW553/V1_MQTT_OK/GD32VW55X_Wifi_BLE_SDK/GD32VW55x_RELEASE_V1.0.2/MSDK/lwip/lwip-2.1.2/src/core\dns.c **** #endif
 975:C:/Users/stapi/OneDrive/Desktop/GD32VW553/V1_MQTT_OK/GD32VW55X_Wifi_BLE_SDK/GD32VW55x_RELEASE_V1.0.2/MSDK/lwip/lwip-2.1.2/src/core\dns.c **** #if ((LWIP_DNS_SECURE & LWIP_DNS_SECURE_RAND_SRC_PORT) != 0)
 976:C:/Users/stapi/OneDrive/Desktop/GD32VW553/V1_MQTT_OK/GD32VW55X_Wifi_BLE_SDK/GD32VW55x_RELEASE_V1.0.2/MSDK/lwip/lwip-2.1.2/src/core\dns.c ****   /* close the pcb used unless other request are using it */
 977:C:/Users/stapi/OneDrive/Desktop/GD32VW553/V1_MQTT_OK/GD32VW55X_Wifi_BLE_SDK/GD32VW55x_RELEASE_V1.0.2/MSDK/lwip/lwip-2.1.2/src/core\dns.c ****   for (i = 0; i < DNS_MAX_REQUESTS; i++) {
 978:C:/Users/stapi/OneDrive/Desktop/GD32VW553/V1_MQTT_OK/GD32VW55X_Wifi_BLE_SDK/GD32VW55x_RELEASE_V1.0.2/MSDK/lwip/lwip-2.1.2/src/core\dns.c ****     if (i == idx) {
 979:C:/Users/stapi/OneDrive/Desktop/GD32VW553/V1_MQTT_OK/GD32VW55X_Wifi_BLE_SDK/GD32VW55x_RELEASE_V1.0.2/MSDK/lwip/lwip-2.1.2/src/core\dns.c ****       continue; /* only check other requests */
 980:C:/Users/stapi/OneDrive/Desktop/GD32VW553/V1_MQTT_OK/GD32VW55X_Wifi_BLE_SDK/GD32VW55x_RELEASE_V1.0.2/MSDK/lwip/lwip-2.1.2/src/core\dns.c ****     }
 981:C:/Users/stapi/OneDrive/Desktop/GD32VW553/V1_MQTT_OK/GD32VW55X_Wifi_BLE_SDK/GD32VW55x_RELEASE_V1.0.2/MSDK/lwip/lwip-2.1.2/src/core\dns.c ****     if (dns_table[i].state == DNS_STATE_ASKING) {
 982:C:/Users/stapi/OneDrive/Desktop/GD32VW553/V1_MQTT_OK/GD32VW55X_Wifi_BLE_SDK/GD32VW55x_RELEASE_V1.0.2/MSDK/lwip/lwip-2.1.2/src/core\dns.c ****       if (dns_table[i].pcb_idx == dns_table[idx].pcb_idx) {
  73              		.loc 1 982 49
  74 004c 13060011 		li	a2,272
  75 0050 A286     		mv	a3,s0
  76 0052 FF16C9C4 		maddr32	a3, s2, a2
  77 0056 2287     		mv	a4,s0
 977:C:/Users/stapi/OneDrive/Desktop/GD32VW553/V1_MQTT_OK/GD32VW55X_Wifi_BLE_SDK/GD32VW55x_RELEASE_V1.0.2/MSDK/lwip/lwip-2.1.2/src/core\dns.c ****     if (i == idx) {
  78              		.loc 1 977 10
  79 0058 8147     		li	a5,0
 981:C:/Users/stapi/OneDrive/Desktop/GD32VW553/V1_MQTT_OK/GD32VW55X_Wifi_BLE_SDK/GD32VW55x_RELEASE_V1.0.2/MSDK/lwip/lwip-2.1.2/src/core\dns.c ****       if (dns_table[i].pcb_idx == dns_table[idx].pcb_idx) {
  80              		.loc 1 981 8
  81 005a 8945     		li	a1,2
 977:C:/Users/stapi/OneDrive/Desktop/GD32VW553/V1_MQTT_OK/GD32VW55X_Wifi_BLE_SDK/GD32VW55x_RELEASE_V1.0.2/MSDK/lwip/lwip-2.1.2/src/core\dns.c ****     if (i == idx) {
  82              		.loc 1 977 3
  83 005c 1146     		li	a2,4
  84              	.LVL6:
  85              	.L6:
 978:C:/Users/stapi/OneDrive/Desktop/GD32VW553/V1_MQTT_OK/GD32VW55X_Wifi_BLE_SDK/GD32VW55x_RELEASE_V1.0.2/MSDK/lwip/lwip-2.1.2/src/core\dns.c ****       continue; /* only check other requests */
  86              		.loc 1 978 5 is_stmt 1
 978:C:/Users/stapi/OneDrive/Desktop/GD32VW553/V1_MQTT_OK/GD32VW55X_Wifi_BLE_SDK/GD32VW55x_RELEASE_V1.0.2/MSDK/lwip/lwip-2.1.2/src/core\dns.c ****       continue; /* only check other requests */
  87              		.loc 1 978 8 is_stmt 0
  88 005e 6300F906 		beq	s2,a5,.L4
 981:C:/Users/stapi/OneDrive/Desktop/GD32VW553/V1_MQTT_OK/GD32VW55X_Wifi_BLE_SDK/GD32VW55x_RELEASE_V1.0.2/MSDK/lwip/lwip-2.1.2/src/core\dns.c ****       if (dns_table[i].pcb_idx == dns_table[idx].pcb_idx) {
  89              		.loc 1 981 5 is_stmt 1
 981:C:/Users/stapi/OneDrive/Desktop/GD32VW553/V1_MQTT_OK/GD32VW55X_Wifi_BLE_SDK/GD32VW55x_RELEASE_V1.0.2/MSDK/lwip/lwip-2.1.2/src/core\dns.c ****       if (dns_table[i].pcb_idx == dns_table[idx].pcb_idx) {
  90              		.loc 1 981 8 is_stmt 0
  91 0062 0345A700 		lbu	a0,10(a4)
  92 0066 631CB504 		bne	a0,a1,.L4
  93              		.loc 1 982 7 is_stmt 1
  94              		.loc 1 982 10 is_stmt 0
  95 006a 0348F700 		lbu	a6,15(a4)
  96 006e 03C5F600 		lbu	a0,15(a3)
  97 0072 6316A804 		bne	a6,a0,.L4
 983:C:/Users/stapi/OneDrive/Desktop/GD32VW553/V1_MQTT_OK/GD32VW55X_Wifi_BLE_SDK/GD32VW55x_RELEASE_V1.0.2/MSDK/lwip/lwip-2.1.2/src/core\dns.c ****         /* another request is still using the same pcb */
 984:C:/Users/stapi/OneDrive/Desktop/GD32VW553/V1_MQTT_OK/GD32VW55X_Wifi_BLE_SDK/GD32VW55x_RELEASE_V1.0.2/MSDK/lwip/lwip-2.1.2/src/core\dns.c ****         dns_table[idx].pcb_idx = DNS_MAX_SOURCE_PORTS;
  98              		.loc 1 984 9 is_stmt 1
  99              		.loc 1 984 32 is_stmt 0
 100 0076 9147     		li	a5,4
 101              	.LVL7:
 102 0078 A387F600 		sb	a5,15(a3)
 985:C:/Users/stapi/OneDrive/Desktop/GD32VW553/V1_MQTT_OK/GD32VW55X_Wifi_BLE_SDK/GD32VW55x_RELEASE_V1.0.2/MSDK/lwip/lwip-2.1.2/src/core\dns.c ****         break;
 103              		.loc 1 985 9 is_stmt 1
 104              	.L5:
 986:C:/Users/stapi/OneDrive/Desktop/GD32VW553/V1_MQTT_OK/GD32VW55X_Wifi_BLE_SDK/GD32VW55x_RELEASE_V1.0.2/MSDK/lwip/lwip-2.1.2/src/core\dns.c ****       }
 987:C:/Users/stapi/OneDrive/Desktop/GD32VW553/V1_MQTT_OK/GD32VW55X_Wifi_BLE_SDK/GD32VW55x_RELEASE_V1.0.2/MSDK/lwip/lwip-2.1.2/src/core\dns.c ****     }
 988:C:/Users/stapi/OneDrive/Desktop/GD32VW553/V1_MQTT_OK/GD32VW55X_Wifi_BLE_SDK/GD32VW55x_RELEASE_V1.0.2/MSDK/lwip/lwip-2.1.2/src/core\dns.c ****   }
 989:C:/Users/stapi/OneDrive/Desktop/GD32VW553/V1_MQTT_OK/GD32VW55X_Wifi_BLE_SDK/GD32VW55x_RELEASE_V1.0.2/MSDK/lwip/lwip-2.1.2/src/core\dns.c ****   if (dns_table[idx].pcb_idx < DNS_MAX_SOURCE_PORTS) {
 105              		.loc 1 989 3
 106              		.loc 1 989 21 is_stmt 0
 107 007c 93070011 		li	a5,272
 108 0080 7F14F9C4 		maddr32	s0, s2, a5
 109 0084 8347F400 		lbu	a5,15(s0)
 110              		.loc 1 989 6
 111 0088 0D47     		li	a4,3
 112 008a 6366F702 		bgtu	a5,a4,.L1
 990:C:/Users/stapi/OneDrive/Desktop/GD32VW553/V1_MQTT_OK/GD32VW55X_Wifi_BLE_SDK/GD32VW55x_RELEASE_V1.0.2/MSDK/lwip/lwip-2.1.2/src/core\dns.c ****     /* if we come here, the pcb is not used any more and can be removed */
 991:C:/Users/stapi/OneDrive/Desktop/GD32VW553/V1_MQTT_OK/GD32VW55X_Wifi_BLE_SDK/GD32VW55x_RELEASE_V1.0.2/MSDK/lwip/lwip-2.1.2/src/core\dns.c ****     udp_remove(dns_pcbs[dns_table[idx].pcb_idx]);
 113              		.loc 1 991 5 is_stmt 1
 114 008e B7040000 		lui	s1,%hi(.LANCHOR2)
 115 0092 93840400 		addi	s1,s1,%lo(.LANCHOR2)
 116 0096 B3C79720 		sh2add	a5,a5,s1
 117 009a 8843     		lw	a0,0(a5)
 118 009c 97000000 		call	udp_remove
 118      E7800000 
 119              	.LVL8:
 992:C:/Users/stapi/OneDrive/Desktop/GD32VW553/V1_MQTT_OK/GD32VW55X_Wifi_BLE_SDK/GD32VW55x_RELEASE_V1.0.2/MSDK/lwip/lwip-2.1.2/src/core\dns.c ****     dns_pcbs[dns_table[idx].pcb_idx] = NULL;
 120              		.loc 1 992 5
 121              		.loc 1 992 28 is_stmt 0
 122 00a4 8347F400 		lbu	a5,15(s0)
 123              		.loc 1 992 38
 124 00a8 B3C49720 		sh2add	s1,a5,s1
 993:C:/Users/stapi/OneDrive/Desktop/GD32VW553/V1_MQTT_OK/GD32VW55X_Wifi_BLE_SDK/GD32VW55x_RELEASE_V1.0.2/MSDK/lwip/lwip-2.1.2/src/core\dns.c ****     dns_table[idx].pcb_idx = DNS_MAX_SOURCE_PORTS;
 125              		.loc 1 993 28
 126 00ac 9147     		li	a5,4
 992:C:/Users/stapi/OneDrive/Desktop/GD32VW553/V1_MQTT_OK/GD32VW55X_Wifi_BLE_SDK/GD32VW55x_RELEASE_V1.0.2/MSDK/lwip/lwip-2.1.2/src/core\dns.c ****     dns_pcbs[dns_table[idx].pcb_idx] = NULL;
 127              		.loc 1 992 38
 128 00ae 23A00400 		sw	zero,0(s1)
 129              		.loc 1 993 5 is_stmt 1
 130              		.loc 1 993 28 is_stmt 0
 131 00b2 A307F400 		sb	a5,15(s0)
 132              	.L1:
 994:C:/Users/stapi/OneDrive/Desktop/GD32VW553/V1_MQTT_OK/GD32VW55X_Wifi_BLE_SDK/GD32VW55x_RELEASE_V1.0.2/MSDK/lwip/lwip-2.1.2/src/core\dns.c ****   }
 995:C:/Users/stapi/OneDrive/Desktop/GD32VW553/V1_MQTT_OK/GD32VW55X_Wifi_BLE_SDK/GD32VW55x_RELEASE_V1.0.2/MSDK/lwip/lwip-2.1.2/src/core\dns.c **** #endif
 996:C:/Users/stapi/OneDrive/Desktop/GD32VW553/V1_MQTT_OK/GD32VW55X_Wifi_BLE_SDK/GD32VW55x_RELEASE_V1.0.2/MSDK/lwip/lwip-2.1.2/src/core\dns.c **** }
 133              		.loc 1 996 1
 134 00b6 17030000 		tail	__riscv_restore_6
 134      67000300 
 135              		.cfi_remember_state
 136              		.cfi_restore 21
 137              		.cfi_restore 20
 138              		.cfi_restore 19
 139              		.cfi_restore 18
 140              		.cfi_restore 9
 141              		.cfi_restore 8
 142              		.cfi_restore 1
 143              		.cfi_def_cfa_offset 0
 144              	.LVL9:
 145              	.L4:
 146              		.cfi_restore_state
 977:C:/Users/stapi/OneDrive/Desktop/GD32VW553/V1_MQTT_OK/GD32VW55X_Wifi_BLE_SDK/GD32VW55x_RELEASE_V1.0.2/MSDK/lwip/lwip-2.1.2/src/core\dns.c ****     if (i == idx) {
 147              		.loc 1 977 37 is_stmt 1 discriminator 2
 977:C:/Users/stapi/OneDrive/Desktop/GD32VW553/V1_MQTT_OK/GD32VW55X_Wifi_BLE_SDK/GD32VW55x_RELEASE_V1.0.2/MSDK/lwip/lwip-2.1.2/src/core\dns.c ****     if (i == idx) {
 148              		.loc 1 977 38 is_stmt 0 discriminator 2
 149 00be 8507     		addi	a5,a5,1
 150              	.LVL10:
 151 00c0 93F7F70F 		andi	a5,a5,0xff
 152              	.LVL11:
 977:C:/Users/stapi/OneDrive/Desktop/GD32VW553/V1_MQTT_OK/GD32VW55X_Wifi_BLE_SDK/GD32VW55x_RELEASE_V1.0.2/MSDK/lwip/lwip-2.1.2/src/core\dns.c ****     if (i == idx) {
 153              		.loc 1 977 15 is_stmt 1 discriminator 2
 977:C:/Users/stapi/OneDrive/Desktop/GD32VW553/V1_MQTT_OK/GD32VW55X_Wifi_BLE_SDK/GD32VW55x_RELEASE_V1.0.2/MSDK/lwip/lwip-2.1.2/src/core\dns.c ****     if (i == idx) {
 154              		.loc 1 977 3 is_stmt 0 discriminator 2
 155 00c4 13070711 		addi	a4,a4,272
 156 00c8 E39BC7F8 		bne	a5,a2,.L6
 157 00cc 45BF     		j	.L5
 158              		.cfi_endproc
 159              	.LFE14:
 161              		.section	.rodata.dns_send.isra.0.str1.4,"aMS",@progbits,1
 162              		.align	2
 163              	.LC0:
 164 0000 433A2F55 		.string	"C:/Users/stapi/OneDrive/Desktop/GD32VW553/V1_MQTT_OK/GD32VW55X_Wifi_BLE_SDK/GD32VW55x_REL
 164      73657273 
 164      2F737461 
 164      70692F4F 
 164      6E654472 
 165 0089 000000   		.align	2
 166              	.LC1:
 167 008c 646E7320 		.string	"dns server out of array"
 167      73657276 
 167      6572206F 
 167      7574206F 
 167      66206172 
 168              		.align	2
 169              	.LC2:
 170 00a4 41737365 		.string	"Assertion \"%s\" failed at line %d in %s\n"
 170      7274696F 
 170      6E202225 
 170      73222066 
 170      61696C65 
 171              		.section	.text.dns_send.isra.0,"ax",@progbits
 172              		.align	1
 174              	dns_send.isra.0:
 175              	.LFB25:
 748:C:/Users/stapi/OneDrive/Desktop/GD32VW553/V1_MQTT_OK/GD32VW55X_Wifi_BLE_SDK/GD32VW55x_RELEASE_V1.0.2/MSDK/lwip/lwip-2.1.2/src/core\dns.c **** {
 176              		.loc 1 748 1 is_stmt 1
 177              		.cfi_startproc
 178              	.LVL12:
 179 0000 17030000 		call	t0,__riscv_save_10
 179      E7020300 
 180              		.cfi_offset 25, -44
 181              		.cfi_offset 24, -40
 182              		.cfi_offset 23, -36
 183              		.cfi_offset 22, -32
 184              		.cfi_offset 21, -28
 185              		.cfi_offset 20, -24
 186              		.cfi_offset 19, -20
 187              		.cfi_offset 18, -16
 188              		.cfi_offset 9, -12
 189              		.cfi_offset 8, -8
 190              		.cfi_offset 1, -4
 191              		.cfi_def_cfa_offset 48
 750:C:/Users/stapi/OneDrive/Desktop/GD32VW553/V1_MQTT_OK/GD32VW55X_Wifi_BLE_SDK/GD32VW55x_RELEASE_V1.0.2/MSDK/lwip/lwip-2.1.2/src/core\dns.c ****   struct dns_hdr hdr;
 192              		.loc 1 750 3
 751:C:/Users/stapi/OneDrive/Desktop/GD32VW553/V1_MQTT_OK/GD32VW55X_Wifi_BLE_SDK/GD32VW55x_RELEASE_V1.0.2/MSDK/lwip/lwip-2.1.2/src/core\dns.c ****   struct dns_query qry;
 193              		.loc 1 751 3
 752:C:/Users/stapi/OneDrive/Desktop/GD32VW553/V1_MQTT_OK/GD32VW55X_Wifi_BLE_SDK/GD32VW55x_RELEASE_V1.0.2/MSDK/lwip/lwip-2.1.2/src/core\dns.c ****   struct pbuf *p;
 194              		.loc 1 752 3
 753:C:/Users/stapi/OneDrive/Desktop/GD32VW553/V1_MQTT_OK/GD32VW55X_Wifi_BLE_SDK/GD32VW55x_RELEASE_V1.0.2/MSDK/lwip/lwip-2.1.2/src/core\dns.c ****   u16_t query_idx, copy_len;
 195              		.loc 1 753 3
 754:C:/Users/stapi/OneDrive/Desktop/GD32VW553/V1_MQTT_OK/GD32VW55X_Wifi_BLE_SDK/GD32VW55x_RELEASE_V1.0.2/MSDK/lwip/lwip-2.1.2/src/core\dns.c ****   const char *hostname, *hostname_part;
 196              		.loc 1 754 3
 755:C:/Users/stapi/OneDrive/Desktop/GD32VW553/V1_MQTT_OK/GD32VW55X_Wifi_BLE_SDK/GD32VW55x_RELEASE_V1.0.2/MSDK/lwip/lwip-2.1.2/src/core\dns.c ****   u8_t n;
 197              		.loc 1 755 3
 756:C:/Users/stapi/OneDrive/Desktop/GD32VW553/V1_MQTT_OK/GD32VW55X_Wifi_BLE_SDK/GD32VW55x_RELEASE_V1.0.2/MSDK/lwip/lwip-2.1.2/src/core\dns.c ****   u8_t pcb_idx;
 198              		.loc 1 756 3
 757:C:/Users/stapi/OneDrive/Desktop/GD32VW553/V1_MQTT_OK/GD32VW55X_Wifi_BLE_SDK/GD32VW55x_RELEASE_V1.0.2/MSDK/lwip/lwip-2.1.2/src/core\dns.c ****   struct dns_table_entry *entry = &dns_table[idx];
 199              		.loc 1 757 3
 758:C:/Users/stapi/OneDrive/Desktop/GD32VW553/V1_MQTT_OK/GD32VW55X_Wifi_BLE_SDK/GD32VW55x_RELEASE_V1.0.2/MSDK/lwip/lwip-2.1.2/src/core\dns.c **** 
 200              		.loc 1 758 3
 201              	.LVL13:
 761:C:/Users/stapi/OneDrive/Desktop/GD32VW553/V1_MQTT_OK/GD32VW55X_Wifi_BLE_SDK/GD32VW55x_RELEASE_V1.0.2/MSDK/lwip/lwip-2.1.2/src/core\dns.c ****   LWIP_ASSERT("dns server out of array", entry->server_idx < DNS_MAX_SERVERS);
 202              		.loc 1 761 68
 762:C:/Users/stapi/OneDrive/Desktop/GD32VW553/V1_MQTT_OK/GD32VW55X_Wifi_BLE_SDK/GD32VW55x_RELEASE_V1.0.2/MSDK/lwip/lwip-2.1.2/src/core\dns.c ****   if (ip_addr_isany_val(dns_servers[entry->server_idx])
 203              		.loc 1 762 3
 762:C:/Users/stapi/OneDrive/Desktop/GD32VW553/V1_MQTT_OK/GD32VW55X_Wifi_BLE_SDK/GD32VW55x_RELEASE_V1.0.2/MSDK/lwip/lwip-2.1.2/src/core\dns.c ****   if (ip_addr_isany_val(dns_servers[entry->server_idx])
 204              		.loc 1 762 3
 205 0008 13040011 		li	s0,272
 206 000c 33048502 		mul	s0,a0,s0
 207 0010 37090000 		lui	s2,%hi(.LANCHOR0)
 208 0014 93090900 		addi	s3,s2,%lo(.LANCHOR0)
 209 0018 054B     		li	s6,1
 748:C:/Users/stapi/OneDrive/Desktop/GD32VW553/V1_MQTT_OK/GD32VW55X_Wifi_BLE_SDK/GD32VW55x_RELEASE_V1.0.2/MSDK/lwip/lwip-2.1.2/src/core\dns.c **** {
 210              		.loc 1 748 1 is_stmt 0
 211 001a 0111     		addi	sp,sp,-32
 212              		.cfi_def_cfa_offset 80
 762:C:/Users/stapi/OneDrive/Desktop/GD32VW553/V1_MQTT_OK/GD32VW55X_Wifi_BLE_SDK/GD32VW55x_RELEASE_V1.0.2/MSDK/lwip/lwip-2.1.2/src/core\dns.c ****   if (ip_addr_isany_val(dns_servers[entry->server_idx])
 213              		.loc 1 762 3
 214 001c A299     		add	s3,s3,s0
 215 001e 83C7B900 		lbu	a5,11(s3)
 216 0022 6375FB02 		bleu	a5,s6,.L15
 762:C:/Users/stapi/OneDrive/Desktop/GD32VW553/V1_MQTT_OK/GD32VW55X_Wifi_BLE_SDK/GD32VW55x_RELEASE_V1.0.2/MSDK/lwip/lwip-2.1.2/src/core\dns.c ****   if (ip_addr_isany_val(dns_servers[entry->server_idx])
 217              		.loc 1 762 3 is_stmt 1
 762:C:/Users/stapi/OneDrive/Desktop/GD32VW553/V1_MQTT_OK/GD32VW55X_Wifi_BLE_SDK/GD32VW55x_RELEASE_V1.0.2/MSDK/lwip/lwip-2.1.2/src/core\dns.c ****   if (ip_addr_isany_val(dns_servers[entry->server_idx])
 218              		.loc 1 762 3
 219 0026 B7060000 		lui	a3,%hi(.LC0)
 220 002a B7050000 		lui	a1,%hi(.LC1)
 221 002e 37050000 		lui	a0,%hi(.LC2)
 222              	.LVL14:
 223 0032 93860600 		addi	a3,a3,%lo(.LC0)
 224 0036 1306A02F 		li	a2,762
 225 003a 93850500 		addi	a1,a1,%lo(.LC1)
 226 003e 13050500 		addi	a0,a0,%lo(.LC2)
 227 0042 97000000 		call	printf
 227      E7800000 
 228              	.LVL15:
 229              	.L16:
 762:C:/Users/stapi/OneDrive/Desktop/GD32VW553/V1_MQTT_OK/GD32VW55X_Wifi_BLE_SDK/GD32VW55x_RELEASE_V1.0.2/MSDK/lwip/lwip-2.1.2/src/core\dns.c ****   if (ip_addr_isany_val(dns_servers[entry->server_idx])
 230              		.loc 1 762 3
 762:C:/Users/stapi/OneDrive/Desktop/GD32VW553/V1_MQTT_OK/GD32VW55X_Wifi_BLE_SDK/GD32VW55x_RELEASE_V1.0.2/MSDK/lwip/lwip-2.1.2/src/core\dns.c ****   if (ip_addr_isany_val(dns_servers[entry->server_idx])
 231              		.loc 1 762 3
 762:C:/Users/stapi/OneDrive/Desktop/GD32VW553/V1_MQTT_OK/GD32VW55X_Wifi_BLE_SDK/GD32VW55x_RELEASE_V1.0.2/MSDK/lwip/lwip-2.1.2/src/core\dns.c ****   if (ip_addr_isany_val(dns_servers[entry->server_idx])
 232              		.loc 1 762 3
 233 004a 01A0     		j	.L16
 234              	.LVL16:
 235              	.L15:
 762:C:/Users/stapi/OneDrive/Desktop/GD32VW553/V1_MQTT_OK/GD32VW55X_Wifi_BLE_SDK/GD32VW55x_RELEASE_V1.0.2/MSDK/lwip/lwip-2.1.2/src/core\dns.c ****   if (ip_addr_isany_val(dns_servers[entry->server_idx])
 236              		.loc 1 762 3
 762:C:/Users/stapi/OneDrive/Desktop/GD32VW553/V1_MQTT_OK/GD32VW55X_Wifi_BLE_SDK/GD32VW55x_RELEASE_V1.0.2/MSDK/lwip/lwip-2.1.2/src/core\dns.c ****   if (ip_addr_isany_val(dns_servers[entry->server_idx])
 237              		.loc 1 762 3
 763:C:/Users/stapi/OneDrive/Desktop/GD32VW553/V1_MQTT_OK/GD32VW55X_Wifi_BLE_SDK/GD32VW55x_RELEASE_V1.0.2/MSDK/lwip/lwip-2.1.2/src/core\dns.c **** #if LWIP_DNS_SUPPORT_MDNS_QUERIES
 238              		.loc 1 763 3
 763:C:/Users/stapi/OneDrive/Desktop/GD32VW553/V1_MQTT_OK/GD32VW55X_Wifi_BLE_SDK/GD32VW55x_RELEASE_V1.0.2/MSDK/lwip/lwip-2.1.2/src/core\dns.c **** #if LWIP_DNS_SUPPORT_MDNS_QUERIES
 239              		.loc 1 763 7 is_stmt 0
 240 004c B70A0000 		lui	s5,%hi(.LANCHOR3)
 241 0050 13870A00 		addi	a4,s5,%lo(.LANCHOR3)
 242 0054 B3C7E720 		sh2add	a5,a5,a4
 763:C:/Users/stapi/OneDrive/Desktop/GD32VW553/V1_MQTT_OK/GD32VW55X_Wifi_BLE_SDK/GD32VW55x_RELEASE_V1.0.2/MSDK/lwip/lwip-2.1.2/src/core\dns.c **** #if LWIP_DNS_SUPPORT_MDNS_QUERIES
 243              		.loc 1 763 6
 244 0058 9C43     		lw	a5,0(a5)
 245 005a 938A0A00 		addi	s5,s5,%lo(.LANCHOR3)
 246 005e 89EF     		bne	a5,zero,.L17
 770:C:/Users/stapi/OneDrive/Desktop/GD32VW553/V1_MQTT_OK/GD32VW55X_Wifi_BLE_SDK/GD32VW55x_RELEASE_V1.0.2/MSDK/lwip/lwip-2.1.2/src/core\dns.c ****     /* flush this entry */
 247              		.loc 1 770 5 is_stmt 1
 248 0060 8145     		li	a1,0
 249 0062 97000000 		call	dns_call_found
 249      E7800000 
 250              	.LVL17:
 772:C:/Users/stapi/OneDrive/Desktop/GD32VW553/V1_MQTT_OK/GD32VW55X_Wifi_BLE_SDK/GD32VW55x_RELEASE_V1.0.2/MSDK/lwip/lwip-2.1.2/src/core\dns.c ****     return ERR_OK;
 251              		.loc 1 772 5
 772:C:/Users/stapi/OneDrive/Desktop/GD32VW553/V1_MQTT_OK/GD32VW55X_Wifi_BLE_SDK/GD32VW55x_RELEASE_V1.0.2/MSDK/lwip/lwip-2.1.2/src/core\dns.c ****     return ERR_OK;
 252              		.loc 1 772 18 is_stmt 0
 253 006a 23850900 		sb	zero,10(s3)
 773:C:/Users/stapi/OneDrive/Desktop/GD32VW553/V1_MQTT_OK/GD32VW55X_Wifi_BLE_SDK/GD32VW55x_RELEASE_V1.0.2/MSDK/lwip/lwip-2.1.2/src/core\dns.c ****   }
 254              		.loc 1 773 5 is_stmt 1
 255              	.L14:
 862:C:/Users/stapi/OneDrive/Desktop/GD32VW553/V1_MQTT_OK/GD32VW55X_Wifi_BLE_SDK/GD32VW55x_RELEASE_V1.0.2/MSDK/lwip/lwip-2.1.2/src/core\dns.c **** 
 256              		.loc 1 862 1 is_stmt 0
 257 006e 0561     		addi	sp,sp,32
 258              		.cfi_remember_state
 259              		.cfi_def_cfa_offset 0
 260 0070 17030000 		tail	__riscv_restore_10
 260      67000300 
 261              		.cfi_restore 25
 262              		.cfi_restore 24
 263              		.cfi_restore 23
 264              		.cfi_restore 22
 265              		.cfi_restore 21
 266              		.cfi_restore 20
 267              		.cfi_restore 19
 268              		.cfi_restore 18
 269              		.cfi_restore 9
 270              		.cfi_restore 8
 271              		.cfi_restore 1
 272              		.cfi_def_cfa_offset -48
 273              	.LVL18:
 274              	.L17:
 275              		.cfi_restore_state
 276 0078 13090900 		addi	s2,s2,%lo(.LANCHOR0)
 777:C:/Users/stapi/OneDrive/Desktop/GD32VW553/V1_MQTT_OK/GD32VW55X_Wifi_BLE_SDK/GD32VW55x_RELEASE_V1.0.2/MSDK/lwip/lwip-2.1.2/src/core\dns.c ****                                          SIZEOF_DNS_QUERY), PBUF_RAM);
 277              		.loc 1 777 3 is_stmt 1
 777:C:/Users/stapi/OneDrive/Desktop/GD32VW553/V1_MQTT_OK/GD32VW55X_Wifi_BLE_SDK/GD32VW55x_RELEASE_V1.0.2/MSDK/lwip/lwip-2.1.2/src/core\dns.c ****                                          SIZEOF_DNS_QUERY), PBUF_RAM);
 278              		.loc 1 777 71 is_stmt 0
 279 007c 4104     		addi	s0,s0,16
 280 007e 4A94     		add	s0,s2,s0
 281 0080 2A8A     		mv	s4,a0
 777:C:/Users/stapi/OneDrive/Desktop/GD32VW553/V1_MQTT_OK/GD32VW55X_Wifi_BLE_SDK/GD32VW55x_RELEASE_V1.0.2/MSDK/lwip/lwip-2.1.2/src/core\dns.c ****                                          SIZEOF_DNS_QUERY), PBUF_RAM);
 282              		.loc 1 777 59
 283 0082 2285     		mv	a0,s0
 284              	.LVL19:
 285 0084 97000000 		call	strlen
 285      E7800000 
 286              	.LVL20:
 777:C:/Users/stapi/OneDrive/Desktop/GD32VW553/V1_MQTT_OK/GD32VW55X_Wifi_BLE_SDK/GD32VW55x_RELEASE_V1.0.2/MSDK/lwip/lwip-2.1.2/src/core\dns.c ****                                          SIZEOF_DNS_QUERY), PBUF_RAM);
 287              		.loc 1 777 7
 288 008c 93052501 		addi	a1,a0,18
 289 0090 13060028 		li	a2,640
 290 0094 13052019 		li	a0,402
 291 0098 B3C50508 		zext.h	a1,a1
 292 009c 97000000 		call	pbuf_alloc
 292      E7800000 
 293              	.LVL21:
 294 00a4 AA84     		mv	s1,a0
 295              	.LVL22:
 779:C:/Users/stapi/OneDrive/Desktop/GD32VW553/V1_MQTT_OK/GD32VW55X_Wifi_BLE_SDK/GD32VW55x_RELEASE_V1.0.2/MSDK/lwip/lwip-2.1.2/src/core\dns.c ****     const ip_addr_t *dst;
 296              		.loc 1 779 3 is_stmt 1
 779:C:/Users/stapi/OneDrive/Desktop/GD32VW553/V1_MQTT_OK/GD32VW55X_Wifi_BLE_SDK/GD32VW55x_RELEASE_V1.0.2/MSDK/lwip/lwip-2.1.2/src/core\dns.c ****     const ip_addr_t *dst;
 297              		.loc 1 779 6 is_stmt 0
 298 00a6 61D5     		beq	a0,zero,.L14
 299              	.LBB6:
 780:C:/Users/stapi/OneDrive/Desktop/GD32VW553/V1_MQTT_OK/GD32VW55X_Wifi_BLE_SDK/GD32VW55x_RELEASE_V1.0.2/MSDK/lwip/lwip-2.1.2/src/core\dns.c ****     u16_t dst_port;
 300              		.loc 1 780 5 is_stmt 1
 781:C:/Users/stapi/OneDrive/Desktop/GD32VW553/V1_MQTT_OK/GD32VW55X_Wifi_BLE_SDK/GD32VW55x_RELEASE_V1.0.2/MSDK/lwip/lwip-2.1.2/src/core\dns.c ****     /* fill dns header */
 301              		.loc 1 781 5
 783:C:/Users/stapi/OneDrive/Desktop/GD32VW553/V1_MQTT_OK/GD32VW55X_Wifi_BLE_SDK/GD32VW55x_RELEASE_V1.0.2/MSDK/lwip/lwip-2.1.2/src/core\dns.c ****     hdr.id = lwip_htons(entry->txid);
 302              		.loc 1 783 5
 784:C:/Users/stapi/OneDrive/Desktop/GD32VW553/V1_MQTT_OK/GD32VW55X_Wifi_BLE_SDK/GD32VW55x_RELEASE_V1.0.2/MSDK/lwip/lwip-2.1.2/src/core\dns.c ****     hdr.flags1 = DNS_FLAG1_RD;
 303              		.loc 1 784 14 is_stmt 0
 304 00a8 03D58900 		lhu	a0,8(s3)
 783:C:/Users/stapi/OneDrive/Desktop/GD32VW553/V1_MQTT_OK/GD32VW55X_Wifi_BLE_SDK/GD32VW55x_RELEASE_V1.0.2/MSDK/lwip/lwip-2.1.2/src/core\dns.c ****     hdr.id = lwip_htons(entry->txid);
 305              		.loc 1 783 5
 306 00ac 02CA     		sw	zero,20(sp)
 307 00ae 02CC     		sw	zero,24(sp)
 308 00b0 02CE     		sw	zero,28(sp)
 784:C:/Users/stapi/OneDrive/Desktop/GD32VW553/V1_MQTT_OK/GD32VW55X_Wifi_BLE_SDK/GD32VW55x_RELEASE_V1.0.2/MSDK/lwip/lwip-2.1.2/src/core\dns.c ****     hdr.flags1 = DNS_FLAG1_RD;
 309              		.loc 1 784 5 is_stmt 1
 784:C:/Users/stapi/OneDrive/Desktop/GD32VW553/V1_MQTT_OK/GD32VW55X_Wifi_BLE_SDK/GD32VW55x_RELEASE_V1.0.2/MSDK/lwip/lwip-2.1.2/src/core\dns.c ****     hdr.flags1 = DNS_FLAG1_RD;
 310              		.loc 1 784 14 is_stmt 0
 311 00b2 97000000 		call	lwip_htons
 311      E7800000 
 312              	.LVL23:
 784:C:/Users/stapi/OneDrive/Desktop/GD32VW553/V1_MQTT_OK/GD32VW55X_Wifi_BLE_SDK/GD32VW55x_RELEASE_V1.0.2/MSDK/lwip/lwip-2.1.2/src/core\dns.c ****     hdr.flags1 = DNS_FLAG1_RD;
 313              		.loc 1 784 12
 314 00ba 231AA100 		sh	a0,20(sp)
 785:C:/Users/stapi/OneDrive/Desktop/GD32VW553/V1_MQTT_OK/GD32VW55X_Wifi_BLE_SDK/GD32VW55x_RELEASE_V1.0.2/MSDK/lwip/lwip-2.1.2/src/core\dns.c ****     hdr.numquestions = PP_HTONS(1);
 315              		.loc 1 785 5 is_stmt 1
 786:C:/Users/stapi/OneDrive/Desktop/GD32VW553/V1_MQTT_OK/GD32VW55X_Wifi_BLE_SDK/GD32VW55x_RELEASE_V1.0.2/MSDK/lwip/lwip-2.1.2/src/core\dns.c ****     pbuf_take(p, &hdr, SIZEOF_DNS_HDR);
 316              		.loc 1 786 22 is_stmt 0
 317 00be 93070010 		li	a5,256
 787:C:/Users/stapi/OneDrive/Desktop/GD32VW553/V1_MQTT_OK/GD32VW55X_Wifi_BLE_SDK/GD32VW55x_RELEASE_V1.0.2/MSDK/lwip/lwip-2.1.2/src/core\dns.c ****     hostname = entry->name;
 318              		.loc 1 787 5
 319 00c2 4C08     		addi	a1,sp,20
 320 00c4 3146     		li	a2,12
 321 00c6 2685     		mv	a0,s1
 785:C:/Users/stapi/OneDrive/Desktop/GD32VW553/V1_MQTT_OK/GD32VW55X_Wifi_BLE_SDK/GD32VW55x_RELEASE_V1.0.2/MSDK/lwip/lwip-2.1.2/src/core\dns.c ****     hdr.numquestions = PP_HTONS(1);
 322              		.loc 1 785 16
 323 00c8 230B6101 		sb	s6,22(sp)
 786:C:/Users/stapi/OneDrive/Desktop/GD32VW553/V1_MQTT_OK/GD32VW55X_Wifi_BLE_SDK/GD32VW55x_RELEASE_V1.0.2/MSDK/lwip/lwip-2.1.2/src/core\dns.c ****     pbuf_take(p, &hdr, SIZEOF_DNS_HDR);
 324              		.loc 1 786 5 is_stmt 1
 786:C:/Users/stapi/OneDrive/Desktop/GD32VW553/V1_MQTT_OK/GD32VW55X_Wifi_BLE_SDK/GD32VW55x_RELEASE_V1.0.2/MSDK/lwip/lwip-2.1.2/src/core\dns.c ****     pbuf_take(p, &hdr, SIZEOF_DNS_HDR);
 325              		.loc 1 786 22 is_stmt 0
 326 00cc 231CF100 		sh	a5,24(sp)
 787:C:/Users/stapi/OneDrive/Desktop/GD32VW553/V1_MQTT_OK/GD32VW55X_Wifi_BLE_SDK/GD32VW55x_RELEASE_V1.0.2/MSDK/lwip/lwip-2.1.2/src/core\dns.c ****     hostname = entry->name;
 327              		.loc 1 787 5 is_stmt 1
 800:C:/Users/stapi/OneDrive/Desktop/GD32VW553/V1_MQTT_OK/GD32VW55X_Wifi_BLE_SDK/GD32VW55x_RELEASE_V1.0.2/MSDK/lwip/lwip-2.1.2/src/core\dns.c ****         /* u16_t overflow */
 328              		.loc 1 800 10 is_stmt 0
 329 00d0 C16B     		li	s7,65536
 787:C:/Users/stapi/OneDrive/Desktop/GD32VW553/V1_MQTT_OK/GD32VW55X_Wifi_BLE_SDK/GD32VW55x_RELEASE_V1.0.2/MSDK/lwip/lwip-2.1.2/src/core\dns.c ****     hostname = entry->name;
 330              		.loc 1 787 5
 331 00d2 97000000 		call	pbuf_take
 331      E7800000 
 332              	.LVL24:
 788:C:/Users/stapi/OneDrive/Desktop/GD32VW553/V1_MQTT_OK/GD32VW55X_Wifi_BLE_SDK/GD32VW55x_RELEASE_V1.0.2/MSDK/lwip/lwip-2.1.2/src/core\dns.c ****     --hostname;
 333              		.loc 1 788 5 is_stmt 1
 789:C:/Users/stapi/OneDrive/Desktop/GD32VW553/V1_MQTT_OK/GD32VW55X_Wifi_BLE_SDK/GD32VW55x_RELEASE_V1.0.2/MSDK/lwip/lwip-2.1.2/src/core\dns.c **** 
 334              		.loc 1 789 5
 335 00da 7D14     		addi	s0,s0,-1
 336              	.LVL25:
 792:C:/Users/stapi/OneDrive/Desktop/GD32VW553/V1_MQTT_OK/GD32VW55X_Wifi_BLE_SDK/GD32VW55x_RELEASE_V1.0.2/MSDK/lwip/lwip-2.1.2/src/core\dns.c ****     do {
 337              		.loc 1 792 5
 792:C:/Users/stapi/OneDrive/Desktop/GD32VW553/V1_MQTT_OK/GD32VW55X_Wifi_BLE_SDK/GD32VW55x_RELEASE_V1.0.2/MSDK/lwip/lwip-2.1.2/src/core\dns.c ****     do {
 338              		.loc 1 792 15 is_stmt 0
 339 00dc B145     		li	a1,12
 796:C:/Users/stapi/OneDrive/Desktop/GD32VW553/V1_MQTT_OK/GD32VW55X_Wifi_BLE_SDK/GD32VW55x_RELEASE_V1.0.2/MSDK/lwip/lwip-2.1.2/src/core\dns.c ****         ++n;
 340              		.loc 1 796 7
 341 00de 930CE002 		li	s9,46
 800:C:/Users/stapi/OneDrive/Desktop/GD32VW553/V1_MQTT_OK/GD32VW55X_Wifi_BLE_SDK/GD32VW55x_RELEASE_V1.0.2/MSDK/lwip/lwip-2.1.2/src/core\dns.c ****         /* u16_t overflow */
 342              		.loc 1 800 10
 343 00e2 F91B     		addi	s7,s7,-2
 344              	.LVL26:
 345              	.L25:
 793:C:/Users/stapi/OneDrive/Desktop/GD32VW553/V1_MQTT_OK/GD32VW55X_Wifi_BLE_SDK/GD32VW55x_RELEASE_V1.0.2/MSDK/lwip/lwip-2.1.2/src/core\dns.c ****       ++hostname;
 346              		.loc 1 793 5 is_stmt 1
 794:C:/Users/stapi/OneDrive/Desktop/GD32VW553/V1_MQTT_OK/GD32VW55X_Wifi_BLE_SDK/GD32VW55x_RELEASE_V1.0.2/MSDK/lwip/lwip-2.1.2/src/core\dns.c ****       hostname_part = hostname;
 347              		.loc 1 794 7
 348 00e4 0504     		addi	s0,s0,1
 349              	.LVL27:
 795:C:/Users/stapi/OneDrive/Desktop/GD32VW553/V1_MQTT_OK/GD32VW55X_Wifi_BLE_SDK/GD32VW55x_RELEASE_V1.0.2/MSDK/lwip/lwip-2.1.2/src/core\dns.c ****       for (n = 0; *hostname != '.' && *hostname != 0; ++hostname) {
 350              		.loc 1 795 7
 796:C:/Users/stapi/OneDrive/Desktop/GD32VW553/V1_MQTT_OK/GD32VW55X_Wifi_BLE_SDK/GD32VW55x_RELEASE_V1.0.2/MSDK/lwip/lwip-2.1.2/src/core\dns.c ****         ++n;
 351              		.loc 1 796 7
 794:C:/Users/stapi/OneDrive/Desktop/GD32VW553/V1_MQTT_OK/GD32VW55X_Wifi_BLE_SDK/GD32VW55x_RELEASE_V1.0.2/MSDK/lwip/lwip-2.1.2/src/core\dns.c ****       hostname_part = hostname;
 352              		.loc 1 794 7 is_stmt 0
 353 00e6 228C     		mv	s8,s0
 796:C:/Users/stapi/OneDrive/Desktop/GD32VW553/V1_MQTT_OK/GD32VW55X_Wifi_BLE_SDK/GD32VW55x_RELEASE_V1.0.2/MSDK/lwip/lwip-2.1.2/src/core\dns.c ****         ++n;
 354              		.loc 1 796 14
 355 00e8 0146     		li	a2,0
 356              	.LVL28:
 357              	.L19:
 796:C:/Users/stapi/OneDrive/Desktop/GD32VW553/V1_MQTT_OK/GD32VW55X_Wifi_BLE_SDK/GD32VW55x_RELEASE_V1.0.2/MSDK/lwip/lwip-2.1.2/src/core\dns.c ****         ++n;
 358              		.loc 1 796 19 is_stmt 1
 359 00ea 83070400 		lb	a5,0(s0)
 796:C:/Users/stapi/OneDrive/Desktop/GD32VW553/V1_MQTT_OK/GD32VW55X_Wifi_BLE_SDK/GD32VW55x_RELEASE_V1.0.2/MSDK/lwip/lwip-2.1.2/src/core\dns.c ****         ++n;
 360              		.loc 1 796 7 is_stmt 0
 361 00ee 63909703 		bne	a5,s9,.L20
 362              	.L24:
 799:C:/Users/stapi/OneDrive/Desktop/GD32VW553/V1_MQTT_OK/GD32VW55X_Wifi_BLE_SDK/GD32VW55x_RELEASE_V1.0.2/MSDK/lwip/lwip-2.1.2/src/core\dns.c ****       if (query_idx + n + 1 > 0xFFFF) {
 363              		.loc 1 799 7 is_stmt 1
 799:C:/Users/stapi/OneDrive/Desktop/GD32VW553/V1_MQTT_OK/GD32VW55X_Wifi_BLE_SDK/GD32VW55x_RELEASE_V1.0.2/MSDK/lwip/lwip-2.1.2/src/core\dns.c ****       if (query_idx + n + 1 > 0xFFFF) {
 364              		.loc 1 799 35 is_stmt 0
 365 00f2 330B8441 		sub	s6,s0,s8
 800:C:/Users/stapi/OneDrive/Desktop/GD32VW553/V1_MQTT_OK/GD32VW55X_Wifi_BLE_SDK/GD32VW55x_RELEASE_V1.0.2/MSDK/lwip/lwip-2.1.2/src/core\dns.c ****         /* u16_t overflow */
 366              		.loc 1 800 21
 367 00f6 B389C500 		add	s3,a1,a2
 799:C:/Users/stapi/OneDrive/Desktop/GD32VW553/V1_MQTT_OK/GD32VW55X_Wifi_BLE_SDK/GD32VW55x_RELEASE_V1.0.2/MSDK/lwip/lwip-2.1.2/src/core\dns.c ****       if (query_idx + n + 1 > 0xFFFF) {
 368              		.loc 1 799 16
 369 00fa 334B0B08 		zext.h	s6,s6
 370              	.LVL29:
 800:C:/Users/stapi/OneDrive/Desktop/GD32VW553/V1_MQTT_OK/GD32VW55X_Wifi_BLE_SDK/GD32VW55x_RELEASE_V1.0.2/MSDK/lwip/lwip-2.1.2/src/core\dns.c ****         /* u16_t overflow */
 371              		.loc 1 800 7 is_stmt 1
 800:C:/Users/stapi/OneDrive/Desktop/GD32VW553/V1_MQTT_OK/GD32VW55X_Wifi_BLE_SDK/GD32VW55x_RELEASE_V1.0.2/MSDK/lwip/lwip-2.1.2/src/core\dns.c ****         /* u16_t overflow */
 372              		.loc 1 800 10 is_stmt 0
 373 00fe 63DE3B01 		ble	s3,s7,.L30
 374              	.LVL30:
 375              	.L32:
 853:C:/Users/stapi/OneDrive/Desktop/GD32VW553/V1_MQTT_OK/GD32VW55X_Wifi_BLE_SDK/GD32VW55x_RELEASE_V1.0.2/MSDK/lwip/lwip-2.1.2/src/core\dns.c ****   } else {
 376              		.loc 1 853 5 is_stmt 1
 377 0102 2685     		mv	a0,s1
 378 0104 97000000 		call	pbuf_free
 378      E7800000 
 379              	.LVL31:
 380              	.LBE6:
 381 010c 8DB7     		j	.L14
 382              	.LVL32:
 383              	.L20:
 384              	.LBB7:
 796:C:/Users/stapi/OneDrive/Desktop/GD32VW553/V1_MQTT_OK/GD32VW55X_Wifi_BLE_SDK/GD32VW55x_RELEASE_V1.0.2/MSDK/lwip/lwip-2.1.2/src/core\dns.c ****         ++n;
 385              		.loc 1 796 36 is_stmt 0
 386 010e F5D3     		beq	a5,zero,.L24
 797:C:/Users/stapi/OneDrive/Desktop/GD32VW553/V1_MQTT_OK/GD32VW55X_Wifi_BLE_SDK/GD32VW55x_RELEASE_V1.0.2/MSDK/lwip/lwip-2.1.2/src/core\dns.c ****       }
 387              		.loc 1 797 9 is_stmt 1
 388 0110 0506     		addi	a2,a2,1
 389              	.LVL33:
 390 0112 1376F60F 		andi	a2,a2,0xff
 391              	.LVL34:
 796:C:/Users/stapi/OneDrive/Desktop/GD32VW553/V1_MQTT_OK/GD32VW55X_Wifi_BLE_SDK/GD32VW55x_RELEASE_V1.0.2/MSDK/lwip/lwip-2.1.2/src/core\dns.c ****         ++n;
 392              		.loc 1 796 55
 393 0116 0504     		addi	s0,s0,1
 394              	.LVL35:
 395 0118 C9BF     		j	.L19
 396              	.LVL36:
 397              	.L30:
 804:C:/Users/stapi/OneDrive/Desktop/GD32VW553/V1_MQTT_OK/GD32VW55X_Wifi_BLE_SDK/GD32VW55x_RELEASE_V1.0.2/MSDK/lwip/lwip-2.1.2/src/core\dns.c ****       pbuf_take_at(p, hostname_part, copy_len, (u16_t)(query_idx + 1));
 398              		.loc 1 804 7
 399 011a 2685     		mv	a0,s1
 400 011c 2EC6     		sw	a1,12(sp)
 401 011e 97000000 		call	pbuf_put_at
 401      E7800000 
 402              	.LVL37:
 805:C:/Users/stapi/OneDrive/Desktop/GD32VW553/V1_MQTT_OK/GD32VW55X_Wifi_BLE_SDK/GD32VW55x_RELEASE_V1.0.2/MSDK/lwip/lwip-2.1.2/src/core\dns.c ****       query_idx = (u16_t)(query_idx + n + 1);
 403              		.loc 1 805 7
 404 0126 B245     		lw	a1,12(sp)
 405 0128 5A86     		mv	a2,s6
 406 012a 2685     		mv	a0,s1
 407 012c 93861500 		addi	a3,a1,1
 408 0130 E285     		mv	a1,s8
 409 0132 B3C60608 		zext.h	a3,a3
 410 0136 97000000 		call	pbuf_take_at
 410      E7800000 
 411              	.LVL38:
 806:C:/Users/stapi/OneDrive/Desktop/GD32VW553/V1_MQTT_OK/GD32VW55X_Wifi_BLE_SDK/GD32VW55x_RELEASE_V1.0.2/MSDK/lwip/lwip-2.1.2/src/core\dns.c ****     } while (*hostname != 0);
 412              		.loc 1 806 7
 806:C:/Users/stapi/OneDrive/Desktop/GD32VW553/V1_MQTT_OK/GD32VW55X_Wifi_BLE_SDK/GD32VW55x_RELEASE_V1.0.2/MSDK/lwip/lwip-2.1.2/src/core\dns.c ****     } while (*hostname != 0);
 413              		.loc 1 806 37 is_stmt 0
 414 013e B3C90908 		zext.h	s3,s3
 806:C:/Users/stapi/OneDrive/Desktop/GD32VW553/V1_MQTT_OK/GD32VW55X_Wifi_BLE_SDK/GD32VW55x_RELEASE_V1.0.2/MSDK/lwip/lwip-2.1.2/src/core\dns.c ****     } while (*hostname != 0);
 415              		.loc 1 806 17
 416 0142 93851900 		addi	a1,s3,1
 417 0146 B3C50508 		zext.h	a1,a1
 418              	.LVL39:
 807:C:/Users/stapi/OneDrive/Desktop/GD32VW553/V1_MQTT_OK/GD32VW55X_Wifi_BLE_SDK/GD32VW55x_RELEASE_V1.0.2/MSDK/lwip/lwip-2.1.2/src/core\dns.c ****     pbuf_put_at(p, query_idx, 0);
 419              		.loc 1 807 13 is_stmt 1
 807:C:/Users/stapi/OneDrive/Desktop/GD32VW553/V1_MQTT_OK/GD32VW55X_Wifi_BLE_SDK/GD32VW55x_RELEASE_V1.0.2/MSDK/lwip/lwip-2.1.2/src/core\dns.c ****     pbuf_put_at(p, query_idx, 0);
 420              		.loc 1 807 5 is_stmt 0
 421 014a 83070400 		lb	a5,0(s0)
 422 014e D9FB     		bne	a5,zero,.L25
 808:C:/Users/stapi/OneDrive/Desktop/GD32VW553/V1_MQTT_OK/GD32VW55X_Wifi_BLE_SDK/GD32VW55x_RELEASE_V1.0.2/MSDK/lwip/lwip-2.1.2/src/core\dns.c ****     query_idx++;
 423              		.loc 1 808 5 is_stmt 1
 424 0150 2685     		mv	a0,s1
 425 0152 0146     		li	a2,0
 426 0154 97000000 		call	pbuf_put_at
 426      E7800000 
 427              	.LVL40:
 809:C:/Users/stapi/OneDrive/Desktop/GD32VW553/V1_MQTT_OK/GD32VW55X_Wifi_BLE_SDK/GD32VW55x_RELEASE_V1.0.2/MSDK/lwip/lwip-2.1.2/src/core\dns.c **** 
 428              		.loc 1 809 5
 812:C:/Users/stapi/OneDrive/Desktop/GD32VW553/V1_MQTT_OK/GD32VW55X_Wifi_BLE_SDK/GD32VW55x_RELEASE_V1.0.2/MSDK/lwip/lwip-2.1.2/src/core\dns.c ****       qry.type = PP_HTONS(DNS_RRTYPE_AAAA);
 429              		.loc 1 812 5
 815:C:/Users/stapi/OneDrive/Desktop/GD32VW553/V1_MQTT_OK/GD32VW55X_Wifi_BLE_SDK/GD32VW55x_RELEASE_V1.0.2/MSDK/lwip/lwip-2.1.2/src/core\dns.c ****     }
 430              		.loc 1 815 7
 817:C:/Users/stapi/OneDrive/Desktop/GD32VW553/V1_MQTT_OK/GD32VW55X_Wifi_BLE_SDK/GD32VW55x_RELEASE_V1.0.2/MSDK/lwip/lwip-2.1.2/src/core\dns.c ****     pbuf_take_at(p, &qry, SIZEOF_DNS_QUERY, query_idx);
 431              		.loc 1 817 5
 815:C:/Users/stapi/OneDrive/Desktop/GD32VW553/V1_MQTT_OK/GD32VW55X_Wifi_BLE_SDK/GD32VW55x_RELEASE_V1.0.2/MSDK/lwip/lwip-2.1.2/src/core\dns.c ****     }
 432              		.loc 1 815 16 is_stmt 0
 433 015c B7070001 		li	a5,16777216
 434 0160 93870710 		addi	a5,a5,256
 818:C:/Users/stapi/OneDrive/Desktop/GD32VW553/V1_MQTT_OK/GD32VW55X_Wifi_BLE_SDK/GD32VW55x_RELEASE_V1.0.2/MSDK/lwip/lwip-2.1.2/src/core\dns.c **** 
 435              		.loc 1 818 5
 436 0164 0C08     		addi	a1,sp,16
 809:C:/Users/stapi/OneDrive/Desktop/GD32VW553/V1_MQTT_OK/GD32VW55X_Wifi_BLE_SDK/GD32VW55x_RELEASE_V1.0.2/MSDK/lwip/lwip-2.1.2/src/core\dns.c **** 
 437              		.loc 1 809 14
 438 0166 8909     		addi	s3,s3,2
 439              	.LVL41:
 818:C:/Users/stapi/OneDrive/Desktop/GD32VW553/V1_MQTT_OK/GD32VW55X_Wifi_BLE_SDK/GD32VW55x_RELEASE_V1.0.2/MSDK/lwip/lwip-2.1.2/src/core\dns.c **** 
 440              		.loc 1 818 5
 441 0168 1146     		li	a2,4
 442 016a 2685     		mv	a0,s1
 815:C:/Users/stapi/OneDrive/Desktop/GD32VW553/V1_MQTT_OK/GD32VW55X_Wifi_BLE_SDK/GD32VW55x_RELEASE_V1.0.2/MSDK/lwip/lwip-2.1.2/src/core\dns.c ****     }
 443              		.loc 1 815 16
 444 016c 3EC8     		sw	a5,16(sp)
 818:C:/Users/stapi/OneDrive/Desktop/GD32VW553/V1_MQTT_OK/GD32VW55X_Wifi_BLE_SDK/GD32VW55x_RELEASE_V1.0.2/MSDK/lwip/lwip-2.1.2/src/core\dns.c **** 
 445              		.loc 1 818 5 is_stmt 1
 446 016e B3C60908 		zext.h	a3,s3
 447 0172 97000000 		call	pbuf_take_at
 447      E7800000 
 448              	.LVL42:
 821:C:/Users/stapi/OneDrive/Desktop/GD32VW553/V1_MQTT_OK/GD32VW55X_Wifi_BLE_SDK/GD32VW55x_RELEASE_V1.0.2/MSDK/lwip/lwip-2.1.2/src/core\dns.c **** #else
 449              		.loc 1 821 5
 827:C:/Users/stapi/OneDrive/Desktop/GD32VW553/V1_MQTT_OK/GD32VW55X_Wifi_BLE_SDK/GD32VW55x_RELEASE_V1.0.2/MSDK/lwip/lwip-2.1.2/src/core\dns.c **** #if LWIP_DNS_SUPPORT_MDNS_QUERIES
 450              		.loc 1 827 74
 847:C:/Users/stapi/OneDrive/Desktop/GD32VW553/V1_MQTT_OK/GD32VW55X_Wifi_BLE_SDK/GD32VW55x_RELEASE_V1.0.2/MSDK/lwip/lwip-2.1.2/src/core\dns.c ****       dst = &dns_servers[entry->server_idx];
 451              		.loc 1 847 7
 848:C:/Users/stapi/OneDrive/Desktop/GD32VW553/V1_MQTT_OK/GD32VW55X_Wifi_BLE_SDK/GD32VW55x_RELEASE_V1.0.2/MSDK/lwip/lwip-2.1.2/src/core\dns.c ****     }
 452              		.loc 1 848 7
 850:C:/Users/stapi/OneDrive/Desktop/GD32VW553/V1_MQTT_OK/GD32VW55X_Wifi_BLE_SDK/GD32VW55x_RELEASE_V1.0.2/MSDK/lwip/lwip-2.1.2/src/core\dns.c **** 
 453              		.loc 1 850 5
 848:C:/Users/stapi/OneDrive/Desktop/GD32VW553/V1_MQTT_OK/GD32VW55X_Wifi_BLE_SDK/GD32VW55x_RELEASE_V1.0.2/MSDK/lwip/lwip-2.1.2/src/core\dns.c ****     }
 454              		.loc 1 848 31 is_stmt 0
 455 017a 93070011 		li	a5,272
 456 017e 7F19FAC4 		maddr32	s2, s4, a5
 850:C:/Users/stapi/OneDrive/Desktop/GD32VW553/V1_MQTT_OK/GD32VW55X_Wifi_BLE_SDK/GD32VW55x_RELEASE_V1.0.2/MSDK/lwip/lwip-2.1.2/src/core\dns.c **** 
 457              		.loc 1 850 11
 458 0182 8347F900 		lbu	a5,15(s2)
 459 0186 37070000 		lui	a4,%hi(.LANCHOR2)
 460 018a 13070700 		addi	a4,a4,%lo(.LANCHOR2)
 848:C:/Users/stapi/OneDrive/Desktop/GD32VW553/V1_MQTT_OK/GD32VW55X_Wifi_BLE_SDK/GD32VW55x_RELEASE_V1.0.2/MSDK/lwip/lwip-2.1.2/src/core\dns.c ****     }
 461              		.loc 1 848 11
 462 018e 0346B900 		lbu	a2,11(s2)
 850:C:/Users/stapi/OneDrive/Desktop/GD32VW553/V1_MQTT_OK/GD32VW55X_Wifi_BLE_SDK/GD32VW55x_RELEASE_V1.0.2/MSDK/lwip/lwip-2.1.2/src/core\dns.c **** 
 463              		.loc 1 850 11
 464 0192 B3C7E720 		sh2add	a5,a5,a4
 465 0196 8843     		lw	a0,0(a5)
 466 0198 93065003 		li	a3,53
 467 019c A685     		mv	a1,s1
 468 019e 33465621 		sh2add	a2,a2,s5
 469 01a2 97000000 		call	udp_sendto
 469      E7800000 
 470              	.LVL43:
 471 01aa A1BF     		j	.L32
 472              	.LBE7:
 473              		.cfi_endproc
 474              	.LFE25:
 476              		.section	.rodata.dns_check_entry.str1.4,"aMS",@progbits,1
 477              		.align	2
 478              	.LC3:
 479 0000 61727261 		.string	"array index out of bounds"
 479      7920696E 
 479      64657820 
 479      6F757420 
 479      6F662062 
 480 001a 0000     		.align	2
 481              	.LC4:
 482 001c 756E6B6E 		.string	"unknown dns_table entry state:"
 482      6F776E20 
 482      646E735F 
 482      7461626C 
 482      6520656E 
 483              		.section	.text.dns_check_entry,"ax",@progbits
 484              		.align	1
 486              	dns_check_entry:
 487              	.LFB17:
 997:C:/Users/stapi/OneDrive/Desktop/GD32VW553/V1_MQTT_OK/GD32VW55X_Wifi_BLE_SDK/GD32VW55x_RELEASE_V1.0.2/MSDK/lwip/lwip-2.1.2/src/core\dns.c **** 
 998:C:/Users/stapi/OneDrive/Desktop/GD32VW553/V1_MQTT_OK/GD32VW55X_Wifi_BLE_SDK/GD32VW55x_RELEASE_V1.0.2/MSDK/lwip/lwip-2.1.2/src/core\dns.c **** /* Create a query transmission ID that is unique for all outstanding queries */
 999:C:/Users/stapi/OneDrive/Desktop/GD32VW553/V1_MQTT_OK/GD32VW55X_Wifi_BLE_SDK/GD32VW55x_RELEASE_V1.0.2/MSDK/lwip/lwip-2.1.2/src/core\dns.c **** static u16_t
1000:C:/Users/stapi/OneDrive/Desktop/GD32VW553/V1_MQTT_OK/GD32VW55X_Wifi_BLE_SDK/GD32VW55x_RELEASE_V1.0.2/MSDK/lwip/lwip-2.1.2/src/core\dns.c **** dns_create_txid(void)
1001:C:/Users/stapi/OneDrive/Desktop/GD32VW553/V1_MQTT_OK/GD32VW55X_Wifi_BLE_SDK/GD32VW55x_RELEASE_V1.0.2/MSDK/lwip/lwip-2.1.2/src/core\dns.c **** {
1002:C:/Users/stapi/OneDrive/Desktop/GD32VW553/V1_MQTT_OK/GD32VW55X_Wifi_BLE_SDK/GD32VW55x_RELEASE_V1.0.2/MSDK/lwip/lwip-2.1.2/src/core\dns.c ****   u16_t txid;
1003:C:/Users/stapi/OneDrive/Desktop/GD32VW553/V1_MQTT_OK/GD32VW55X_Wifi_BLE_SDK/GD32VW55x_RELEASE_V1.0.2/MSDK/lwip/lwip-2.1.2/src/core\dns.c ****   u8_t i;
1004:C:/Users/stapi/OneDrive/Desktop/GD32VW553/V1_MQTT_OK/GD32VW55X_Wifi_BLE_SDK/GD32VW55x_RELEASE_V1.0.2/MSDK/lwip/lwip-2.1.2/src/core\dns.c **** 
1005:C:/Users/stapi/OneDrive/Desktop/GD32VW553/V1_MQTT_OK/GD32VW55X_Wifi_BLE_SDK/GD32VW55x_RELEASE_V1.0.2/MSDK/lwip/lwip-2.1.2/src/core\dns.c **** again:
1006:C:/Users/stapi/OneDrive/Desktop/GD32VW553/V1_MQTT_OK/GD32VW55X_Wifi_BLE_SDK/GD32VW55x_RELEASE_V1.0.2/MSDK/lwip/lwip-2.1.2/src/core\dns.c ****   txid = (u16_t)DNS_RAND_TXID();
1007:C:/Users/stapi/OneDrive/Desktop/GD32VW553/V1_MQTT_OK/GD32VW55X_Wifi_BLE_SDK/GD32VW55x_RELEASE_V1.0.2/MSDK/lwip/lwip-2.1.2/src/core\dns.c **** 
1008:C:/Users/stapi/OneDrive/Desktop/GD32VW553/V1_MQTT_OK/GD32VW55X_Wifi_BLE_SDK/GD32VW55x_RELEASE_V1.0.2/MSDK/lwip/lwip-2.1.2/src/core\dns.c ****   /* check whether the ID is unique */
1009:C:/Users/stapi/OneDrive/Desktop/GD32VW553/V1_MQTT_OK/GD32VW55X_Wifi_BLE_SDK/GD32VW55x_RELEASE_V1.0.2/MSDK/lwip/lwip-2.1.2/src/core\dns.c ****   for (i = 0; i < DNS_TABLE_SIZE; i++) {
1010:C:/Users/stapi/OneDrive/Desktop/GD32VW553/V1_MQTT_OK/GD32VW55X_Wifi_BLE_SDK/GD32VW55x_RELEASE_V1.0.2/MSDK/lwip/lwip-2.1.2/src/core\dns.c ****     if ((dns_table[i].state == DNS_STATE_ASKING) &&
1011:C:/Users/stapi/OneDrive/Desktop/GD32VW553/V1_MQTT_OK/GD32VW55X_Wifi_BLE_SDK/GD32VW55x_RELEASE_V1.0.2/MSDK/lwip/lwip-2.1.2/src/core\dns.c ****         (dns_table[i].txid == txid)) {
1012:C:/Users/stapi/OneDrive/Desktop/GD32VW553/V1_MQTT_OK/GD32VW55X_Wifi_BLE_SDK/GD32VW55x_RELEASE_V1.0.2/MSDK/lwip/lwip-2.1.2/src/core\dns.c ****       /* ID already used by another pending query */
1013:C:/Users/stapi/OneDrive/Desktop/GD32VW553/V1_MQTT_OK/GD32VW55X_Wifi_BLE_SDK/GD32VW55x_RELEASE_V1.0.2/MSDK/lwip/lwip-2.1.2/src/core\dns.c ****       goto again;
1014:C:/Users/stapi/OneDrive/Desktop/GD32VW553/V1_MQTT_OK/GD32VW55X_Wifi_BLE_SDK/GD32VW55x_RELEASE_V1.0.2/MSDK/lwip/lwip-2.1.2/src/core\dns.c ****     }
1015:C:/Users/stapi/OneDrive/Desktop/GD32VW553/V1_MQTT_OK/GD32VW55X_Wifi_BLE_SDK/GD32VW55x_RELEASE_V1.0.2/MSDK/lwip/lwip-2.1.2/src/core\dns.c ****   }
1016:C:/Users/stapi/OneDrive/Desktop/GD32VW553/V1_MQTT_OK/GD32VW55X_Wifi_BLE_SDK/GD32VW55x_RELEASE_V1.0.2/MSDK/lwip/lwip-2.1.2/src/core\dns.c **** 
1017:C:/Users/stapi/OneDrive/Desktop/GD32VW553/V1_MQTT_OK/GD32VW55X_Wifi_BLE_SDK/GD32VW55x_RELEASE_V1.0.2/MSDK/lwip/lwip-2.1.2/src/core\dns.c ****   return txid;
1018:C:/Users/stapi/OneDrive/Desktop/GD32VW553/V1_MQTT_OK/GD32VW55X_Wifi_BLE_SDK/GD32VW55x_RELEASE_V1.0.2/MSDK/lwip/lwip-2.1.2/src/core\dns.c **** }
1019:C:/Users/stapi/OneDrive/Desktop/GD32VW553/V1_MQTT_OK/GD32VW55X_Wifi_BLE_SDK/GD32VW55x_RELEASE_V1.0.2/MSDK/lwip/lwip-2.1.2/src/core\dns.c **** 
1020:C:/Users/stapi/OneDrive/Desktop/GD32VW553/V1_MQTT_OK/GD32VW55X_Wifi_BLE_SDK/GD32VW55x_RELEASE_V1.0.2/MSDK/lwip/lwip-2.1.2/src/core\dns.c **** /**
1021:C:/Users/stapi/OneDrive/Desktop/GD32VW553/V1_MQTT_OK/GD32VW55X_Wifi_BLE_SDK/GD32VW55x_RELEASE_V1.0.2/MSDK/lwip/lwip-2.1.2/src/core\dns.c ****  * Check whether there are other backup DNS servers available to try
1022:C:/Users/stapi/OneDrive/Desktop/GD32VW553/V1_MQTT_OK/GD32VW55X_Wifi_BLE_SDK/GD32VW55x_RELEASE_V1.0.2/MSDK/lwip/lwip-2.1.2/src/core\dns.c ****  */
1023:C:/Users/stapi/OneDrive/Desktop/GD32VW553/V1_MQTT_OK/GD32VW55X_Wifi_BLE_SDK/GD32VW55x_RELEASE_V1.0.2/MSDK/lwip/lwip-2.1.2/src/core\dns.c **** static u8_t
1024:C:/Users/stapi/OneDrive/Desktop/GD32VW553/V1_MQTT_OK/GD32VW55X_Wifi_BLE_SDK/GD32VW55x_RELEASE_V1.0.2/MSDK/lwip/lwip-2.1.2/src/core\dns.c **** dns_backupserver_available(struct dns_table_entry *pentry)
1025:C:/Users/stapi/OneDrive/Desktop/GD32VW553/V1_MQTT_OK/GD32VW55X_Wifi_BLE_SDK/GD32VW55x_RELEASE_V1.0.2/MSDK/lwip/lwip-2.1.2/src/core\dns.c **** {
1026:C:/Users/stapi/OneDrive/Desktop/GD32VW553/V1_MQTT_OK/GD32VW55X_Wifi_BLE_SDK/GD32VW55x_RELEASE_V1.0.2/MSDK/lwip/lwip-2.1.2/src/core\dns.c ****   u8_t ret = 0;
1027:C:/Users/stapi/OneDrive/Desktop/GD32VW553/V1_MQTT_OK/GD32VW55X_Wifi_BLE_SDK/GD32VW55x_RELEASE_V1.0.2/MSDK/lwip/lwip-2.1.2/src/core\dns.c **** 
1028:C:/Users/stapi/OneDrive/Desktop/GD32VW553/V1_MQTT_OK/GD32VW55X_Wifi_BLE_SDK/GD32VW55x_RELEASE_V1.0.2/MSDK/lwip/lwip-2.1.2/src/core\dns.c ****   if (pentry) {
1029:C:/Users/stapi/OneDrive/Desktop/GD32VW553/V1_MQTT_OK/GD32VW55X_Wifi_BLE_SDK/GD32VW55x_RELEASE_V1.0.2/MSDK/lwip/lwip-2.1.2/src/core\dns.c ****     if ((pentry->server_idx + 1 < DNS_MAX_SERVERS) && !ip_addr_isany_val(dns_servers[pentry->server
1030:C:/Users/stapi/OneDrive/Desktop/GD32VW553/V1_MQTT_OK/GD32VW55X_Wifi_BLE_SDK/GD32VW55x_RELEASE_V1.0.2/MSDK/lwip/lwip-2.1.2/src/core\dns.c ****       ret = 1;
1031:C:/Users/stapi/OneDrive/Desktop/GD32VW553/V1_MQTT_OK/GD32VW55X_Wifi_BLE_SDK/GD32VW55x_RELEASE_V1.0.2/MSDK/lwip/lwip-2.1.2/src/core\dns.c ****     }
1032:C:/Users/stapi/OneDrive/Desktop/GD32VW553/V1_MQTT_OK/GD32VW55X_Wifi_BLE_SDK/GD32VW55x_RELEASE_V1.0.2/MSDK/lwip/lwip-2.1.2/src/core\dns.c ****   }
1033:C:/Users/stapi/OneDrive/Desktop/GD32VW553/V1_MQTT_OK/GD32VW55X_Wifi_BLE_SDK/GD32VW55x_RELEASE_V1.0.2/MSDK/lwip/lwip-2.1.2/src/core\dns.c **** 
1034:C:/Users/stapi/OneDrive/Desktop/GD32VW553/V1_MQTT_OK/GD32VW55X_Wifi_BLE_SDK/GD32VW55x_RELEASE_V1.0.2/MSDK/lwip/lwip-2.1.2/src/core\dns.c ****   return ret;
1035:C:/Users/stapi/OneDrive/Desktop/GD32VW553/V1_MQTT_OK/GD32VW55X_Wifi_BLE_SDK/GD32VW55x_RELEASE_V1.0.2/MSDK/lwip/lwip-2.1.2/src/core\dns.c **** }
1036:C:/Users/stapi/OneDrive/Desktop/GD32VW553/V1_MQTT_OK/GD32VW55X_Wifi_BLE_SDK/GD32VW55x_RELEASE_V1.0.2/MSDK/lwip/lwip-2.1.2/src/core\dns.c **** 
1037:C:/Users/stapi/OneDrive/Desktop/GD32VW553/V1_MQTT_OK/GD32VW55X_Wifi_BLE_SDK/GD32VW55x_RELEASE_V1.0.2/MSDK/lwip/lwip-2.1.2/src/core\dns.c **** /**
1038:C:/Users/stapi/OneDrive/Desktop/GD32VW553/V1_MQTT_OK/GD32VW55X_Wifi_BLE_SDK/GD32VW55x_RELEASE_V1.0.2/MSDK/lwip/lwip-2.1.2/src/core\dns.c ****  * dns_check_entry() - see if entry has not yet been queried and, if so, sends out a query.
1039:C:/Users/stapi/OneDrive/Desktop/GD32VW553/V1_MQTT_OK/GD32VW55X_Wifi_BLE_SDK/GD32VW55x_RELEASE_V1.0.2/MSDK/lwip/lwip-2.1.2/src/core\dns.c ****  * Check an entry in the dns_table:
1040:C:/Users/stapi/OneDrive/Desktop/GD32VW553/V1_MQTT_OK/GD32VW55X_Wifi_BLE_SDK/GD32VW55x_RELEASE_V1.0.2/MSDK/lwip/lwip-2.1.2/src/core\dns.c ****  * - send out query for new entries
1041:C:/Users/stapi/OneDrive/Desktop/GD32VW553/V1_MQTT_OK/GD32VW55X_Wifi_BLE_SDK/GD32VW55x_RELEASE_V1.0.2/MSDK/lwip/lwip-2.1.2/src/core\dns.c ****  * - retry old pending entries on timeout (also with different servers)
1042:C:/Users/stapi/OneDrive/Desktop/GD32VW553/V1_MQTT_OK/GD32VW55X_Wifi_BLE_SDK/GD32VW55x_RELEASE_V1.0.2/MSDK/lwip/lwip-2.1.2/src/core\dns.c ****  * - remove completed entries from the table if their TTL has expired
1043:C:/Users/stapi/OneDrive/Desktop/GD32VW553/V1_MQTT_OK/GD32VW55X_Wifi_BLE_SDK/GD32VW55x_RELEASE_V1.0.2/MSDK/lwip/lwip-2.1.2/src/core\dns.c ****  *
1044:C:/Users/stapi/OneDrive/Desktop/GD32VW553/V1_MQTT_OK/GD32VW55X_Wifi_BLE_SDK/GD32VW55x_RELEASE_V1.0.2/MSDK/lwip/lwip-2.1.2/src/core\dns.c ****  * @param i index of the dns_table entry to check
1045:C:/Users/stapi/OneDrive/Desktop/GD32VW553/V1_MQTT_OK/GD32VW55X_Wifi_BLE_SDK/GD32VW55x_RELEASE_V1.0.2/MSDK/lwip/lwip-2.1.2/src/core\dns.c ****  */
1046:C:/Users/stapi/OneDrive/Desktop/GD32VW553/V1_MQTT_OK/GD32VW55X_Wifi_BLE_SDK/GD32VW55x_RELEASE_V1.0.2/MSDK/lwip/lwip-2.1.2/src/core\dns.c **** static void
1047:C:/Users/stapi/OneDrive/Desktop/GD32VW553/V1_MQTT_OK/GD32VW55X_Wifi_BLE_SDK/GD32VW55x_RELEASE_V1.0.2/MSDK/lwip/lwip-2.1.2/src/core\dns.c **** dns_check_entry(u8_t i)
1048:C:/Users/stapi/OneDrive/Desktop/GD32VW553/V1_MQTT_OK/GD32VW55X_Wifi_BLE_SDK/GD32VW55x_RELEASE_V1.0.2/MSDK/lwip/lwip-2.1.2/src/core\dns.c **** {
 488              		.loc 1 1048 1 is_stmt 1
 489              		.cfi_startproc
 490              	.LVL44:
 491 0000 17030000 		call	t0,__riscv_save_4
 491      E7020300 
 492              		.cfi_offset 19, -20
 493              		.cfi_offset 18, -16
 494              		.cfi_offset 9, -12
 495              		.cfi_offset 8, -8
 496              		.cfi_offset 1, -4
 497              		.cfi_def_cfa_offset 32
1049:C:/Users/stapi/OneDrive/Desktop/GD32VW553/V1_MQTT_OK/GD32VW55X_Wifi_BLE_SDK/GD32VW55x_RELEASE_V1.0.2/MSDK/lwip/lwip-2.1.2/src/core\dns.c ****   err_t err;
 498              		.loc 1 1049 3
1050:C:/Users/stapi/OneDrive/Desktop/GD32VW553/V1_MQTT_OK/GD32VW55X_Wifi_BLE_SDK/GD32VW55x_RELEASE_V1.0.2/MSDK/lwip/lwip-2.1.2/src/core\dns.c ****   struct dns_table_entry *entry = &dns_table[i];
 499              		.loc 1 1050 3
 500              	.LVL45:
1051:C:/Users/stapi/OneDrive/Desktop/GD32VW553/V1_MQTT_OK/GD32VW55X_Wifi_BLE_SDK/GD32VW55x_RELEASE_V1.0.2/MSDK/lwip/lwip-2.1.2/src/core\dns.c **** 
1052:C:/Users/stapi/OneDrive/Desktop/GD32VW553/V1_MQTT_OK/GD32VW55X_Wifi_BLE_SDK/GD32VW55x_RELEASE_V1.0.2/MSDK/lwip/lwip-2.1.2/src/core\dns.c ****   LWIP_ASSERT("array index out of bounds", i < DNS_TABLE_SIZE);
 501              		.loc 1 1052 3
 502              		.loc 1 1052 3
 503 0008 8D46     		li	a3,3
 504 000a 63F5A602 		bleu	a0,a3,.L34
 505              		.loc 1 1052 3 discriminator 1
 506              		.loc 1 1052 3 discriminator 1
 507 000e B7060000 		lui	a3,%hi(.LC0)
 508 0012 B7050000 		lui	a1,%hi(.LC3)
 509 0016 37050000 		lui	a0,%hi(.LC2)
 510              	.LVL46:
 511 001a 93860600 		addi	a3,a3,%lo(.LC0)
 512 001e 1306C041 		li	a2,1052
 513 0022 93850500 		addi	a1,a1,%lo(.LC3)
 514 0026 13050500 		addi	a0,a0,%lo(.LC2)
 515 002a 97000000 		call	printf
 515      E7800000 
 516              	.LVL47:
 517              	.L35:
 518              		.loc 1 1052 3 discriminator 1
 519              		.loc 1 1052 3 discriminator 1
 520              		.loc 1 1052 3 discriminator 1
 521 0032 01A0     		j	.L35
 522              	.LVL48:
 523              	.L34:
1053:C:/Users/stapi/OneDrive/Desktop/GD32VW553/V1_MQTT_OK/GD32VW55X_Wifi_BLE_SDK/GD32VW55x_RELEASE_V1.0.2/MSDK/lwip/lwip-2.1.2/src/core\dns.c **** 
1054:C:/Users/stapi/OneDrive/Desktop/GD32VW553/V1_MQTT_OK/GD32VW55X_Wifi_BLE_SDK/GD32VW55x_RELEASE_V1.0.2/MSDK/lwip/lwip-2.1.2/src/core\dns.c ****   switch (entry->state) {
 524              		.loc 1 1054 16 is_stmt 0 discriminator 2
 525 0034 37040000 		lui	s0,%hi(.LANCHOR0)
 526 0038 93070400 		addi	a5,s0,%lo(.LANCHOR0)
 527 003c 13070011 		li	a4,272
 528 0040 FF17E5C4 		maddr32	a5, a0, a4
 529 0044 03C7A700 		lbu	a4,10(a5)
 530              		.loc 1 1054 3 discriminator 2
 531 0048 0946     		li	a2,2
 532 004a AA84     		mv	s1,a0
1052:C:/Users/stapi/OneDrive/Desktop/GD32VW553/V1_MQTT_OK/GD32VW55X_Wifi_BLE_SDK/GD32VW55x_RELEASE_V1.0.2/MSDK/lwip/lwip-2.1.2/src/core\dns.c **** 
 533              		.loc 1 1052 3 is_stmt 1 discriminator 2
1052:C:/Users/stapi/OneDrive/Desktop/GD32VW553/V1_MQTT_OK/GD32VW55X_Wifi_BLE_SDK/GD32VW55x_RELEASE_V1.0.2/MSDK/lwip/lwip-2.1.2/src/core\dns.c **** 
 534              		.loc 1 1052 3 discriminator 2
 535              		.loc 1 1054 3 discriminator 2
 536 004c 13040400 		addi	s0,s0,%lo(.LANCHOR0)
 537 0050 6305C708 		beq	a4,a2,.L36
 538              		.loc 1 1054 3 is_stmt 0
 539 0054 636EE604 		bgtu	a4,a2,.L37
 540 0058 21CB     		beq	a4,zero,.L33
 541 005a 13090444 		addi	s2,s0,1088
 542              	.LBB14:
 543              	.LBB15:
1010:C:/Users/stapi/OneDrive/Desktop/GD32VW553/V1_MQTT_OK/GD32VW55X_Wifi_BLE_SDK/GD32VW55x_RELEASE_V1.0.2/MSDK/lwip/lwip-2.1.2/src/core\dns.c ****         (dns_table[i].txid == txid)) {
 544              		.loc 1 1010 8
 545 005e 8949     		li	s3,2
 546              	.LVL49:
 547              	.L39:
1002:C:/Users/stapi/OneDrive/Desktop/GD32VW553/V1_MQTT_OK/GD32VW55X_Wifi_BLE_SDK/GD32VW55x_RELEASE_V1.0.2/MSDK/lwip/lwip-2.1.2/src/core\dns.c ****   u8_t i;
 548              		.loc 1 1002 3 is_stmt 1
1003:C:/Users/stapi/OneDrive/Desktop/GD32VW553/V1_MQTT_OK/GD32VW55X_Wifi_BLE_SDK/GD32VW55x_RELEASE_V1.0.2/MSDK/lwip/lwip-2.1.2/src/core\dns.c **** 
 549              		.loc 1 1003 3
1006:C:/Users/stapi/OneDrive/Desktop/GD32VW553/V1_MQTT_OK/GD32VW55X_Wifi_BLE_SDK/GD32VW55x_RELEASE_V1.0.2/MSDK/lwip/lwip-2.1.2/src/core\dns.c **** 
 550              		.loc 1 1006 3
1006:C:/Users/stapi/OneDrive/Desktop/GD32VW553/V1_MQTT_OK/GD32VW55X_Wifi_BLE_SDK/GD32VW55x_RELEASE_V1.0.2/MSDK/lwip/lwip-2.1.2/src/core\dns.c **** 
 551              		.loc 1 1006 17 is_stmt 0
 552 0060 97000000 		call	rand
 552      E7800000 
 553              	.LVL50:
 554 0068 A287     		mv	a5,s0
1006:C:/Users/stapi/OneDrive/Desktop/GD32VW553/V1_MQTT_OK/GD32VW55X_Wifi_BLE_SDK/GD32VW55x_RELEASE_V1.0.2/MSDK/lwip/lwip-2.1.2/src/core\dns.c **** 
 555              		.loc 1 1006 8
 556 006a 33470508 		zext.h	a4,a0
 557              	.LVL51:
1009:C:/Users/stapi/OneDrive/Desktop/GD32VW553/V1_MQTT_OK/GD32VW55X_Wifi_BLE_SDK/GD32VW55x_RELEASE_V1.0.2/MSDK/lwip/lwip-2.1.2/src/core\dns.c ****     if ((dns_table[i].state == DNS_STATE_ASKING) &&
 558              		.loc 1 1009 3 is_stmt 1
1009:C:/Users/stapi/OneDrive/Desktop/GD32VW553/V1_MQTT_OK/GD32VW55X_Wifi_BLE_SDK/GD32VW55x_RELEASE_V1.0.2/MSDK/lwip/lwip-2.1.2/src/core\dns.c ****     if ((dns_table[i].state == DNS_STATE_ASKING) &&
 559              		.loc 1 1009 15
 560              	.L43:
1010:C:/Users/stapi/OneDrive/Desktop/GD32VW553/V1_MQTT_OK/GD32VW55X_Wifi_BLE_SDK/GD32VW55x_RELEASE_V1.0.2/MSDK/lwip/lwip-2.1.2/src/core\dns.c ****         (dns_table[i].txid == txid)) {
 561              		.loc 1 1010 5
1010:C:/Users/stapi/OneDrive/Desktop/GD32VW553/V1_MQTT_OK/GD32VW55X_Wifi_BLE_SDK/GD32VW55x_RELEASE_V1.0.2/MSDK/lwip/lwip-2.1.2/src/core\dns.c ****         (dns_table[i].txid == txid)) {
 562              		.loc 1 1010 8 is_stmt 0
 563 006e 83C6A700 		lbu	a3,10(a5)
 564 0072 63963601 		bne	a3,s3,.L42
1010:C:/Users/stapi/OneDrive/Desktop/GD32VW553/V1_MQTT_OK/GD32VW55X_Wifi_BLE_SDK/GD32VW55x_RELEASE_V1.0.2/MSDK/lwip/lwip-2.1.2/src/core\dns.c ****         (dns_table[i].txid == txid)) {
 565              		.loc 1 1010 50
 566 0076 83D68700 		lhu	a3,8(a5)
 567 007a E383E6FE 		beq	a3,a4,.L39
 568              	.L42:
1009:C:/Users/stapi/OneDrive/Desktop/GD32VW553/V1_MQTT_OK/GD32VW55X_Wifi_BLE_SDK/GD32VW55x_RELEASE_V1.0.2/MSDK/lwip/lwip-2.1.2/src/core\dns.c ****     if ((dns_table[i].state == DNS_STATE_ASKING) &&
 569              		.loc 1 1009 35 is_stmt 1
 570              	.LVL52:
1009:C:/Users/stapi/OneDrive/Desktop/GD32VW553/V1_MQTT_OK/GD32VW55X_Wifi_BLE_SDK/GD32VW55x_RELEASE_V1.0.2/MSDK/lwip/lwip-2.1.2/src/core\dns.c ****     if ((dns_table[i].state == DNS_STATE_ASKING) &&
 571              		.loc 1 1009 15
1009:C:/Users/stapi/OneDrive/Desktop/GD32VW553/V1_MQTT_OK/GD32VW55X_Wifi_BLE_SDK/GD32VW55x_RELEASE_V1.0.2/MSDK/lwip/lwip-2.1.2/src/core\dns.c ****     if ((dns_table[i].state == DNS_STATE_ASKING) &&
 572              		.loc 1 1009 3 is_stmt 0
 573 007e 93870711 		addi	a5,a5,272
 574              	.LVL53:
 575 0082 E316F9FE 		bne	s2,a5,.L43
1017:C:/Users/stapi/OneDrive/Desktop/GD32VW553/V1_MQTT_OK/GD32VW55X_Wifi_BLE_SDK/GD32VW55x_RELEASE_V1.0.2/MSDK/lwip/lwip-2.1.2/src/core\dns.c **** }
 576              		.loc 1 1017 3 is_stmt 1
 577              	.LVL54:
 578              	.LBE15:
 579              	.LBE14:
1055:C:/Users/stapi/OneDrive/Desktop/GD32VW553/V1_MQTT_OK/GD32VW55X_Wifi_BLE_SDK/GD32VW55x_RELEASE_V1.0.2/MSDK/lwip/lwip-2.1.2/src/core\dns.c ****     case DNS_STATE_NEW:
1056:C:/Users/stapi/OneDrive/Desktop/GD32VW553/V1_MQTT_OK/GD32VW55X_Wifi_BLE_SDK/GD32VW55x_RELEASE_V1.0.2/MSDK/lwip/lwip-2.1.2/src/core\dns.c ****       /* initialize new entry */
1057:C:/Users/stapi/OneDrive/Desktop/GD32VW553/V1_MQTT_OK/GD32VW55X_Wifi_BLE_SDK/GD32VW55x_RELEASE_V1.0.2/MSDK/lwip/lwip-2.1.2/src/core\dns.c ****       entry->txid = dns_create_txid();
 580              		.loc 1 1057 19 is_stmt 0
 581 0086 93070011 		li	a5,272
 582 008a 7F94F4C4 		maddr32	s0, s1, a5
1058:C:/Users/stapi/OneDrive/Desktop/GD32VW553/V1_MQTT_OK/GD32VW55X_Wifi_BLE_SDK/GD32VW55x_RELEASE_V1.0.2/MSDK/lwip/lwip-2.1.2/src/core\dns.c ****       entry->state = DNS_STATE_ASKING;
 583              		.loc 1 1058 20
 584 008e 8947     		li	a5,2
 585 0090 2315F400 		sh	a5,10(s0)
1059:C:/Users/stapi/OneDrive/Desktop/GD32VW553/V1_MQTT_OK/GD32VW55X_Wifi_BLE_SDK/GD32VW55x_RELEASE_V1.0.2/MSDK/lwip/lwip-2.1.2/src/core\dns.c ****       entry->server_idx = 0;
1060:C:/Users/stapi/OneDrive/Desktop/GD32VW553/V1_MQTT_OK/GD32VW55X_Wifi_BLE_SDK/GD32VW55x_RELEASE_V1.0.2/MSDK/lwip/lwip-2.1.2/src/core\dns.c ****       entry->tmr = 1;
 586              		.loc 1 1060 18
 587 0094 8547     		li	a5,1
1057:C:/Users/stapi/OneDrive/Desktop/GD32VW553/V1_MQTT_OK/GD32VW55X_Wifi_BLE_SDK/GD32VW55x_RELEASE_V1.0.2/MSDK/lwip/lwip-2.1.2/src/core\dns.c ****       entry->state = DNS_STATE_ASKING;
 588              		.loc 1 1057 19
 589 0096 2314E400 		sh	a4,8(s0)
1058:C:/Users/stapi/OneDrive/Desktop/GD32VW553/V1_MQTT_OK/GD32VW55X_Wifi_BLE_SDK/GD32VW55x_RELEASE_V1.0.2/MSDK/lwip/lwip-2.1.2/src/core\dns.c ****       entry->state = DNS_STATE_ASKING;
 590              		.loc 1 1058 7 is_stmt 1
1059:C:/Users/stapi/OneDrive/Desktop/GD32VW553/V1_MQTT_OK/GD32VW55X_Wifi_BLE_SDK/GD32VW55x_RELEASE_V1.0.2/MSDK/lwip/lwip-2.1.2/src/core\dns.c ****       entry->server_idx = 0;
 591              		.loc 1 1059 7
 592              		.loc 1 1060 7
1061:C:/Users/stapi/OneDrive/Desktop/GD32VW553/V1_MQTT_OK/GD32VW55X_Wifi_BLE_SDK/GD32VW55x_RELEASE_V1.0.2/MSDK/lwip/lwip-2.1.2/src/core\dns.c ****       entry->retries = 0;
 593              		.loc 1 1061 7
1060:C:/Users/stapi/OneDrive/Desktop/GD32VW553/V1_MQTT_OK/GD32VW55X_Wifi_BLE_SDK/GD32VW55x_RELEASE_V1.0.2/MSDK/lwip/lwip-2.1.2/src/core\dns.c ****       entry->retries = 0;
 594              		.loc 1 1060 18 is_stmt 0
 595 009a 2316F400 		sh	a5,12(s0)
1062:C:/Users/stapi/OneDrive/Desktop/GD32VW553/V1_MQTT_OK/GD32VW55X_Wifi_BLE_SDK/GD32VW55x_RELEASE_V1.0.2/MSDK/lwip/lwip-2.1.2/src/core\dns.c **** 
1063:C:/Users/stapi/OneDrive/Desktop/GD32VW553/V1_MQTT_OK/GD32VW55X_Wifi_BLE_SDK/GD32VW55x_RELEASE_V1.0.2/MSDK/lwip/lwip-2.1.2/src/core\dns.c ****       /* send DNS packet for this entry */
1064:C:/Users/stapi/OneDrive/Desktop/GD32VW553/V1_MQTT_OK/GD32VW55X_Wifi_BLE_SDK/GD32VW55x_RELEASE_V1.0.2/MSDK/lwip/lwip-2.1.2/src/core\dns.c ****       err = dns_send(i);
 596              		.loc 1 1064 7 is_stmt 1
 597              	.L47:
1065:C:/Users/stapi/OneDrive/Desktop/GD32VW553/V1_MQTT_OK/GD32VW55X_Wifi_BLE_SDK/GD32VW55x_RELEASE_V1.0.2/MSDK/lwip/lwip-2.1.2/src/core\dns.c ****       if (err != ERR_OK) {
1066:C:/Users/stapi/OneDrive/Desktop/GD32VW553/V1_MQTT_OK/GD32VW55X_Wifi_BLE_SDK/GD32VW55x_RELEASE_V1.0.2/MSDK/lwip/lwip-2.1.2/src/core\dns.c ****         LWIP_DEBUGF(DNS_DEBUG | LWIP_DBG_LEVEL_WARNING,
1067:C:/Users/stapi/OneDrive/Desktop/GD32VW553/V1_MQTT_OK/GD32VW55X_Wifi_BLE_SDK/GD32VW55x_RELEASE_V1.0.2/MSDK/lwip/lwip-2.1.2/src/core\dns.c ****                     ("dns_send returned error: %s\n", lwip_strerr(err)));
1068:C:/Users/stapi/OneDrive/Desktop/GD32VW553/V1_MQTT_OK/GD32VW55X_Wifi_BLE_SDK/GD32VW55x_RELEASE_V1.0.2/MSDK/lwip/lwip-2.1.2/src/core\dns.c ****       }
1069:C:/Users/stapi/OneDrive/Desktop/GD32VW553/V1_MQTT_OK/GD32VW55X_Wifi_BLE_SDK/GD32VW55x_RELEASE_V1.0.2/MSDK/lwip/lwip-2.1.2/src/core\dns.c ****       break;
1070:C:/Users/stapi/OneDrive/Desktop/GD32VW553/V1_MQTT_OK/GD32VW55X_Wifi_BLE_SDK/GD32VW55x_RELEASE_V1.0.2/MSDK/lwip/lwip-2.1.2/src/core\dns.c ****     case DNS_STATE_ASKING:
1071:C:/Users/stapi/OneDrive/Desktop/GD32VW553/V1_MQTT_OK/GD32VW55X_Wifi_BLE_SDK/GD32VW55x_RELEASE_V1.0.2/MSDK/lwip/lwip-2.1.2/src/core\dns.c ****       if (--entry->tmr == 0) {
1072:C:/Users/stapi/OneDrive/Desktop/GD32VW553/V1_MQTT_OK/GD32VW55X_Wifi_BLE_SDK/GD32VW55x_RELEASE_V1.0.2/MSDK/lwip/lwip-2.1.2/src/core\dns.c ****         if (++entry->retries == DNS_MAX_RETRIES) {
1073:C:/Users/stapi/OneDrive/Desktop/GD32VW553/V1_MQTT_OK/GD32VW55X_Wifi_BLE_SDK/GD32VW55x_RELEASE_V1.0.2/MSDK/lwip/lwip-2.1.2/src/core\dns.c ****           if (dns_backupserver_available(entry)
1074:C:/Users/stapi/OneDrive/Desktop/GD32VW553/V1_MQTT_OK/GD32VW55X_Wifi_BLE_SDK/GD32VW55x_RELEASE_V1.0.2/MSDK/lwip/lwip-2.1.2/src/core\dns.c **** #if LWIP_DNS_SUPPORT_MDNS_QUERIES
1075:C:/Users/stapi/OneDrive/Desktop/GD32VW553/V1_MQTT_OK/GD32VW55X_Wifi_BLE_SDK/GD32VW55x_RELEASE_V1.0.2/MSDK/lwip/lwip-2.1.2/src/core\dns.c ****               && !entry->is_mdns
1076:C:/Users/stapi/OneDrive/Desktop/GD32VW553/V1_MQTT_OK/GD32VW55X_Wifi_BLE_SDK/GD32VW55x_RELEASE_V1.0.2/MSDK/lwip/lwip-2.1.2/src/core\dns.c **** #endif /* LWIP_DNS_SUPPORT_MDNS_QUERIES */
1077:C:/Users/stapi/OneDrive/Desktop/GD32VW553/V1_MQTT_OK/GD32VW55X_Wifi_BLE_SDK/GD32VW55x_RELEASE_V1.0.2/MSDK/lwip/lwip-2.1.2/src/core\dns.c ****              ) {
1078:C:/Users/stapi/OneDrive/Desktop/GD32VW553/V1_MQTT_OK/GD32VW55X_Wifi_BLE_SDK/GD32VW55x_RELEASE_V1.0.2/MSDK/lwip/lwip-2.1.2/src/core\dns.c ****             /* change of server */
1079:C:/Users/stapi/OneDrive/Desktop/GD32VW553/V1_MQTT_OK/GD32VW55X_Wifi_BLE_SDK/GD32VW55x_RELEASE_V1.0.2/MSDK/lwip/lwip-2.1.2/src/core\dns.c ****             entry->server_idx++;
1080:C:/Users/stapi/OneDrive/Desktop/GD32VW553/V1_MQTT_OK/GD32VW55X_Wifi_BLE_SDK/GD32VW55x_RELEASE_V1.0.2/MSDK/lwip/lwip-2.1.2/src/core\dns.c ****             entry->tmr = 1;
1081:C:/Users/stapi/OneDrive/Desktop/GD32VW553/V1_MQTT_OK/GD32VW55X_Wifi_BLE_SDK/GD32VW55x_RELEASE_V1.0.2/MSDK/lwip/lwip-2.1.2/src/core\dns.c ****             entry->retries = 0;
1082:C:/Users/stapi/OneDrive/Desktop/GD32VW553/V1_MQTT_OK/GD32VW55X_Wifi_BLE_SDK/GD32VW55x_RELEASE_V1.0.2/MSDK/lwip/lwip-2.1.2/src/core\dns.c ****           } else {
1083:C:/Users/stapi/OneDrive/Desktop/GD32VW553/V1_MQTT_OK/GD32VW55X_Wifi_BLE_SDK/GD32VW55x_RELEASE_V1.0.2/MSDK/lwip/lwip-2.1.2/src/core\dns.c ****             LWIP_DEBUGF(DNS_DEBUG, ("dns_check_entry: \"%s\": timeout\n", entry->name));
1084:C:/Users/stapi/OneDrive/Desktop/GD32VW553/V1_MQTT_OK/GD32VW55X_Wifi_BLE_SDK/GD32VW55x_RELEASE_V1.0.2/MSDK/lwip/lwip-2.1.2/src/core\dns.c ****             /* call specified callback function if provided */
1085:C:/Users/stapi/OneDrive/Desktop/GD32VW553/V1_MQTT_OK/GD32VW55X_Wifi_BLE_SDK/GD32VW55x_RELEASE_V1.0.2/MSDK/lwip/lwip-2.1.2/src/core\dns.c ****             dns_call_found(i, NULL);
1086:C:/Users/stapi/OneDrive/Desktop/GD32VW553/V1_MQTT_OK/GD32VW55X_Wifi_BLE_SDK/GD32VW55x_RELEASE_V1.0.2/MSDK/lwip/lwip-2.1.2/src/core\dns.c ****             /* flush this entry */
1087:C:/Users/stapi/OneDrive/Desktop/GD32VW553/V1_MQTT_OK/GD32VW55X_Wifi_BLE_SDK/GD32VW55x_RELEASE_V1.0.2/MSDK/lwip/lwip-2.1.2/src/core\dns.c ****             entry->state = DNS_STATE_UNUSED;
1088:C:/Users/stapi/OneDrive/Desktop/GD32VW553/V1_MQTT_OK/GD32VW55X_Wifi_BLE_SDK/GD32VW55x_RELEASE_V1.0.2/MSDK/lwip/lwip-2.1.2/src/core\dns.c ****             break;
1089:C:/Users/stapi/OneDrive/Desktop/GD32VW553/V1_MQTT_OK/GD32VW55X_Wifi_BLE_SDK/GD32VW55x_RELEASE_V1.0.2/MSDK/lwip/lwip-2.1.2/src/core\dns.c ****           }
1090:C:/Users/stapi/OneDrive/Desktop/GD32VW553/V1_MQTT_OK/GD32VW55X_Wifi_BLE_SDK/GD32VW55x_RELEASE_V1.0.2/MSDK/lwip/lwip-2.1.2/src/core\dns.c ****         } else {
1091:C:/Users/stapi/OneDrive/Desktop/GD32VW553/V1_MQTT_OK/GD32VW55X_Wifi_BLE_SDK/GD32VW55x_RELEASE_V1.0.2/MSDK/lwip/lwip-2.1.2/src/core\dns.c ****           /* wait longer for the next retry */
1092:C:/Users/stapi/OneDrive/Desktop/GD32VW553/V1_MQTT_OK/GD32VW55X_Wifi_BLE_SDK/GD32VW55x_RELEASE_V1.0.2/MSDK/lwip/lwip-2.1.2/src/core\dns.c ****           entry->tmr = entry->retries;
1093:C:/Users/stapi/OneDrive/Desktop/GD32VW553/V1_MQTT_OK/GD32VW55X_Wifi_BLE_SDK/GD32VW55x_RELEASE_V1.0.2/MSDK/lwip/lwip-2.1.2/src/core\dns.c ****         }
1094:C:/Users/stapi/OneDrive/Desktop/GD32VW553/V1_MQTT_OK/GD32VW55X_Wifi_BLE_SDK/GD32VW55x_RELEASE_V1.0.2/MSDK/lwip/lwip-2.1.2/src/core\dns.c **** 
1095:C:/Users/stapi/OneDrive/Desktop/GD32VW553/V1_MQTT_OK/GD32VW55X_Wifi_BLE_SDK/GD32VW55x_RELEASE_V1.0.2/MSDK/lwip/lwip-2.1.2/src/core\dns.c ****         /* send DNS packet for this entry */
1096:C:/Users/stapi/OneDrive/Desktop/GD32VW553/V1_MQTT_OK/GD32VW55X_Wifi_BLE_SDK/GD32VW55x_RELEASE_V1.0.2/MSDK/lwip/lwip-2.1.2/src/core\dns.c ****         err = dns_send(i);
 598              		.loc 1 1096 9
 599              		.loc 1 1096 15 is_stmt 0
 600 009e 2685     		mv	a0,s1
 601 00a0 97000000 		call	dns_send.isra.0
 601      E7800000 
 602              	.LVL55:
1097:C:/Users/stapi/OneDrive/Desktop/GD32VW553/V1_MQTT_OK/GD32VW55X_Wifi_BLE_SDK/GD32VW55x_RELEASE_V1.0.2/MSDK/lwip/lwip-2.1.2/src/core\dns.c ****         if (err != ERR_OK) {
 603              		.loc 1 1097 9 is_stmt 1
 604              	.L33:
1098:C:/Users/stapi/OneDrive/Desktop/GD32VW553/V1_MQTT_OK/GD32VW55X_Wifi_BLE_SDK/GD32VW55x_RELEASE_V1.0.2/MSDK/lwip/lwip-2.1.2/src/core\dns.c ****           LWIP_DEBUGF(DNS_DEBUG | LWIP_DBG_LEVEL_WARNING,
1099:C:/Users/stapi/OneDrive/Desktop/GD32VW553/V1_MQTT_OK/GD32VW55X_Wifi_BLE_SDK/GD32VW55x_RELEASE_V1.0.2/MSDK/lwip/lwip-2.1.2/src/core\dns.c ****                       ("dns_send returned error: %s\n", lwip_strerr(err)));
1100:C:/Users/stapi/OneDrive/Desktop/GD32VW553/V1_MQTT_OK/GD32VW55X_Wifi_BLE_SDK/GD32VW55x_RELEASE_V1.0.2/MSDK/lwip/lwip-2.1.2/src/core\dns.c ****         }
1101:C:/Users/stapi/OneDrive/Desktop/GD32VW553/V1_MQTT_OK/GD32VW55X_Wifi_BLE_SDK/GD32VW55x_RELEASE_V1.0.2/MSDK/lwip/lwip-2.1.2/src/core\dns.c ****       }
1102:C:/Users/stapi/OneDrive/Desktop/GD32VW553/V1_MQTT_OK/GD32VW55X_Wifi_BLE_SDK/GD32VW55x_RELEASE_V1.0.2/MSDK/lwip/lwip-2.1.2/src/core\dns.c ****       break;
1103:C:/Users/stapi/OneDrive/Desktop/GD32VW553/V1_MQTT_OK/GD32VW55X_Wifi_BLE_SDK/GD32VW55x_RELEASE_V1.0.2/MSDK/lwip/lwip-2.1.2/src/core\dns.c ****     case DNS_STATE_DONE:
1104:C:/Users/stapi/OneDrive/Desktop/GD32VW553/V1_MQTT_OK/GD32VW55X_Wifi_BLE_SDK/GD32VW55x_RELEASE_V1.0.2/MSDK/lwip/lwip-2.1.2/src/core\dns.c ****       /* if the time to live is nul */
1105:C:/Users/stapi/OneDrive/Desktop/GD32VW553/V1_MQTT_OK/GD32VW55X_Wifi_BLE_SDK/GD32VW55x_RELEASE_V1.0.2/MSDK/lwip/lwip-2.1.2/src/core\dns.c ****       if ((entry->ttl == 0) || (--entry->ttl == 0)) {
1106:C:/Users/stapi/OneDrive/Desktop/GD32VW553/V1_MQTT_OK/GD32VW55X_Wifi_BLE_SDK/GD32VW55x_RELEASE_V1.0.2/MSDK/lwip/lwip-2.1.2/src/core\dns.c ****         LWIP_DEBUGF(DNS_DEBUG, ("dns_check_entry: \"%s\": flush\n", entry->name));
1107:C:/Users/stapi/OneDrive/Desktop/GD32VW553/V1_MQTT_OK/GD32VW55X_Wifi_BLE_SDK/GD32VW55x_RELEASE_V1.0.2/MSDK/lwip/lwip-2.1.2/src/core\dns.c ****         /* flush this entry, there cannot be any related pending entries in this state */
1108:C:/Users/stapi/OneDrive/Desktop/GD32VW553/V1_MQTT_OK/GD32VW55X_Wifi_BLE_SDK/GD32VW55x_RELEASE_V1.0.2/MSDK/lwip/lwip-2.1.2/src/core\dns.c ****         entry->state = DNS_STATE_UNUSED;
1109:C:/Users/stapi/OneDrive/Desktop/GD32VW553/V1_MQTT_OK/GD32VW55X_Wifi_BLE_SDK/GD32VW55x_RELEASE_V1.0.2/MSDK/lwip/lwip-2.1.2/src/core\dns.c ****       }
1110:C:/Users/stapi/OneDrive/Desktop/GD32VW553/V1_MQTT_OK/GD32VW55X_Wifi_BLE_SDK/GD32VW55x_RELEASE_V1.0.2/MSDK/lwip/lwip-2.1.2/src/core\dns.c ****       break;
1111:C:/Users/stapi/OneDrive/Desktop/GD32VW553/V1_MQTT_OK/GD32VW55X_Wifi_BLE_SDK/GD32VW55x_RELEASE_V1.0.2/MSDK/lwip/lwip-2.1.2/src/core\dns.c ****     case DNS_STATE_UNUSED:
1112:C:/Users/stapi/OneDrive/Desktop/GD32VW553/V1_MQTT_OK/GD32VW55X_Wifi_BLE_SDK/GD32VW55x_RELEASE_V1.0.2/MSDK/lwip/lwip-2.1.2/src/core\dns.c ****       /* nothing to do */
1113:C:/Users/stapi/OneDrive/Desktop/GD32VW553/V1_MQTT_OK/GD32VW55X_Wifi_BLE_SDK/GD32VW55x_RELEASE_V1.0.2/MSDK/lwip/lwip-2.1.2/src/core\dns.c ****       break;
1114:C:/Users/stapi/OneDrive/Desktop/GD32VW553/V1_MQTT_OK/GD32VW55X_Wifi_BLE_SDK/GD32VW55x_RELEASE_V1.0.2/MSDK/lwip/lwip-2.1.2/src/core\dns.c ****     default:
1115:C:/Users/stapi/OneDrive/Desktop/GD32VW553/V1_MQTT_OK/GD32VW55X_Wifi_BLE_SDK/GD32VW55x_RELEASE_V1.0.2/MSDK/lwip/lwip-2.1.2/src/core\dns.c ****       LWIP_ASSERT("unknown dns_table entry state:", 0);
1116:C:/Users/stapi/OneDrive/Desktop/GD32VW553/V1_MQTT_OK/GD32VW55X_Wifi_BLE_SDK/GD32VW55x_RELEASE_V1.0.2/MSDK/lwip/lwip-2.1.2/src/core\dns.c ****       break;
1117:C:/Users/stapi/OneDrive/Desktop/GD32VW553/V1_MQTT_OK/GD32VW55X_Wifi_BLE_SDK/GD32VW55x_RELEASE_V1.0.2/MSDK/lwip/lwip-2.1.2/src/core\dns.c ****   }
1118:C:/Users/stapi/OneDrive/Desktop/GD32VW553/V1_MQTT_OK/GD32VW55X_Wifi_BLE_SDK/GD32VW55x_RELEASE_V1.0.2/MSDK/lwip/lwip-2.1.2/src/core\dns.c **** }
 605              		.loc 1 1118 1 is_stmt 0
 606 00a8 17030000 		tail	__riscv_restore_4
 606      67000300 
 607              		.cfi_remember_state
 608              		.cfi_restore 19
 609              		.cfi_restore 18
 610              		.cfi_restore 9
 611              		.cfi_restore 8
 612              		.cfi_restore 1
 613              		.cfi_def_cfa_offset 0
 614              	.LVL56:
 615              	.L37:
 616              		.cfi_restore_state
1054:C:/Users/stapi/OneDrive/Desktop/GD32VW553/V1_MQTT_OK/GD32VW55X_Wifi_BLE_SDK/GD32VW55x_RELEASE_V1.0.2/MSDK/lwip/lwip-2.1.2/src/core\dns.c ****     case DNS_STATE_NEW:
 617              		.loc 1 1054 3
 618 00b0 6305D708 		beq	a4,a3,.L40
1115:C:/Users/stapi/OneDrive/Desktop/GD32VW553/V1_MQTT_OK/GD32VW55X_Wifi_BLE_SDK/GD32VW55x_RELEASE_V1.0.2/MSDK/lwip/lwip-2.1.2/src/core\dns.c ****       break;
 619              		.loc 1 1115 7 is_stmt 1 discriminator 1
1115:C:/Users/stapi/OneDrive/Desktop/GD32VW553/V1_MQTT_OK/GD32VW55X_Wifi_BLE_SDK/GD32VW55x_RELEASE_V1.0.2/MSDK/lwip/lwip-2.1.2/src/core\dns.c ****       break;
 620              		.loc 1 1115 7 discriminator 1
1115:C:/Users/stapi/OneDrive/Desktop/GD32VW553/V1_MQTT_OK/GD32VW55X_Wifi_BLE_SDK/GD32VW55x_RELEASE_V1.0.2/MSDK/lwip/lwip-2.1.2/src/core\dns.c ****       break;
 621              		.loc 1 1115 7 discriminator 1
1115:C:/Users/stapi/OneDrive/Desktop/GD32VW553/V1_MQTT_OK/GD32VW55X_Wifi_BLE_SDK/GD32VW55x_RELEASE_V1.0.2/MSDK/lwip/lwip-2.1.2/src/core\dns.c ****       break;
 622              		.loc 1 1115 7 discriminator 1
 623 00b4 B7060000 		lui	a3,%hi(.LC0)
 624 00b8 B7050000 		lui	a1,%hi(.LC4)
 625 00bc 37050000 		lui	a0,%hi(.LC2)
 626              	.LVL57:
 627 00c0 93860600 		addi	a3,a3,%lo(.LC0)
 628 00c4 1306B045 		li	a2,1115
 629 00c8 93850500 		addi	a1,a1,%lo(.LC4)
 630 00cc 13050500 		addi	a0,a0,%lo(.LC2)
 631 00d0 97000000 		call	printf
 631      E7800000 
 632              	.LVL58:
 633              	.L51:
1115:C:/Users/stapi/OneDrive/Desktop/GD32VW553/V1_MQTT_OK/GD32VW55X_Wifi_BLE_SDK/GD32VW55x_RELEASE_V1.0.2/MSDK/lwip/lwip-2.1.2/src/core\dns.c ****       break;
 634              		.loc 1 1115 7 discriminator 2
1115:C:/Users/stapi/OneDrive/Desktop/GD32VW553/V1_MQTT_OK/GD32VW55X_Wifi_BLE_SDK/GD32VW55x_RELEASE_V1.0.2/MSDK/lwip/lwip-2.1.2/src/core\dns.c ****       break;
 635              		.loc 1 1115 7 discriminator 2
1115:C:/Users/stapi/OneDrive/Desktop/GD32VW553/V1_MQTT_OK/GD32VW55X_Wifi_BLE_SDK/GD32VW55x_RELEASE_V1.0.2/MSDK/lwip/lwip-2.1.2/src/core\dns.c ****       break;
 636              		.loc 1 1115 7 discriminator 2
 637 00d8 01A0     		j	.L51
 638              	.LVL59:
 639              	.L36:
1071:C:/Users/stapi/OneDrive/Desktop/GD32VW553/V1_MQTT_OK/GD32VW55X_Wifi_BLE_SDK/GD32VW55x_RELEASE_V1.0.2/MSDK/lwip/lwip-2.1.2/src/core\dns.c ****         if (++entry->retries == DNS_MAX_RETRIES) {
 640              		.loc 1 1071 7
1071:C:/Users/stapi/OneDrive/Desktop/GD32VW553/V1_MQTT_OK/GD32VW55X_Wifi_BLE_SDK/GD32VW55x_RELEASE_V1.0.2/MSDK/lwip/lwip-2.1.2/src/core\dns.c ****         if (++entry->retries == DNS_MAX_RETRIES) {
 641              		.loc 1 1071 11 is_stmt 0
 642 00da 03C7C700 		lbu	a4,12(a5)
 643 00de 7D17     		addi	a4,a4,-1
 644 00e0 1377F70F 		andi	a4,a4,0xff
1071:C:/Users/stapi/OneDrive/Desktop/GD32VW553/V1_MQTT_OK/GD32VW55X_Wifi_BLE_SDK/GD32VW55x_RELEASE_V1.0.2/MSDK/lwip/lwip-2.1.2/src/core\dns.c ****         if (++entry->retries == DNS_MAX_RETRIES) {
 645              		.loc 1 1071 10
 646 00e4 2386E700 		sb	a4,12(a5)
 647 00e8 61F3     		bne	a4,zero,.L33
1072:C:/Users/stapi/OneDrive/Desktop/GD32VW553/V1_MQTT_OK/GD32VW55X_Wifi_BLE_SDK/GD32VW55x_RELEASE_V1.0.2/MSDK/lwip/lwip-2.1.2/src/core\dns.c ****           if (dns_backupserver_available(entry)
 648              		.loc 1 1072 9 is_stmt 1
1072:C:/Users/stapi/OneDrive/Desktop/GD32VW553/V1_MQTT_OK/GD32VW55X_Wifi_BLE_SDK/GD32VW55x_RELEASE_V1.0.2/MSDK/lwip/lwip-2.1.2/src/core\dns.c ****           if (dns_backupserver_available(entry)
 649              		.loc 1 1072 13 is_stmt 0
 650 00ea 03C7D700 		lbu	a4,13(a5)
1072:C:/Users/stapi/OneDrive/Desktop/GD32VW553/V1_MQTT_OK/GD32VW55X_Wifi_BLE_SDK/GD32VW55x_RELEASE_V1.0.2/MSDK/lwip/lwip-2.1.2/src/core\dns.c ****           if (dns_backupserver_available(entry)
 651              		.loc 1 1072 12
 652 00ee 9146     		li	a3,4
1072:C:/Users/stapi/OneDrive/Desktop/GD32VW553/V1_MQTT_OK/GD32VW55X_Wifi_BLE_SDK/GD32VW55x_RELEASE_V1.0.2/MSDK/lwip/lwip-2.1.2/src/core\dns.c ****           if (dns_backupserver_available(entry)
 653              		.loc 1 1072 13
 654 00f0 0507     		addi	a4,a4,1
 655 00f2 1377F70F 		andi	a4,a4,0xff
1072:C:/Users/stapi/OneDrive/Desktop/GD32VW553/V1_MQTT_OK/GD32VW55X_Wifi_BLE_SDK/GD32VW55x_RELEASE_V1.0.2/MSDK/lwip/lwip-2.1.2/src/core\dns.c ****           if (dns_backupserver_available(entry)
 656              		.loc 1 1072 12
 657 00f6 A386E700 		sb	a4,13(a5)
 658 00fa 631DD702 		bne	a4,a3,.L45
1073:C:/Users/stapi/OneDrive/Desktop/GD32VW553/V1_MQTT_OK/GD32VW55X_Wifi_BLE_SDK/GD32VW55x_RELEASE_V1.0.2/MSDK/lwip/lwip-2.1.2/src/core\dns.c **** #if LWIP_DNS_SUPPORT_MDNS_QUERIES
 659              		.loc 1 1073 11 is_stmt 1
 660              	.LVL60:
 661              	.LBB16:
 662              	.LBB17:
1026:C:/Users/stapi/OneDrive/Desktop/GD32VW553/V1_MQTT_OK/GD32VW55X_Wifi_BLE_SDK/GD32VW55x_RELEASE_V1.0.2/MSDK/lwip/lwip-2.1.2/src/core\dns.c **** 
 663              		.loc 1 1026 3
1028:C:/Users/stapi/OneDrive/Desktop/GD32VW553/V1_MQTT_OK/GD32VW55X_Wifi_BLE_SDK/GD32VW55x_RELEASE_V1.0.2/MSDK/lwip/lwip-2.1.2/src/core\dns.c ****     if ((pentry->server_idx + 1 < DNS_MAX_SERVERS) && !ip_addr_isany_val(dns_servers[pentry->server
 664              		.loc 1 1028 3
1029:C:/Users/stapi/OneDrive/Desktop/GD32VW553/V1_MQTT_OK/GD32VW55X_Wifi_BLE_SDK/GD32VW55x_RELEASE_V1.0.2/MSDK/lwip/lwip-2.1.2/src/core\dns.c ****       ret = 1;
 665              		.loc 1 1029 5
1029:C:/Users/stapi/OneDrive/Desktop/GD32VW553/V1_MQTT_OK/GD32VW55X_Wifi_BLE_SDK/GD32VW55x_RELEASE_V1.0.2/MSDK/lwip/lwip-2.1.2/src/core\dns.c ****       ret = 1;
 666              		.loc 1 1029 8 is_stmt 0
 667 00fe 03C7B700 		lbu	a4,11(a5)
 668 0102 01EF     		bne	a4,zero,.L46
 669              	.LVL61:
 670              	.LBB18:
 671              	.LBB19:
1029:C:/Users/stapi/OneDrive/Desktop/GD32VW553/V1_MQTT_OK/GD32VW55X_Wifi_BLE_SDK/GD32VW55x_RELEASE_V1.0.2/MSDK/lwip/lwip-2.1.2/src/core\dns.c ****       ret = 1;
 672              		.loc 1 1029 56
 673 0104 37070000 		lui	a4,%hi(.LANCHOR3+4)
1029:C:/Users/stapi/OneDrive/Desktop/GD32VW553/V1_MQTT_OK/GD32VW55X_Wifi_BLE_SDK/GD32VW55x_RELEASE_V1.0.2/MSDK/lwip/lwip-2.1.2/src/core\dns.c ****       ret = 1;
 674              		.loc 1 1029 52
 675 0108 03274700 		lw	a4,%lo(.LANCHOR3+4)(a4)
 676 010c 19C7     		beq	a4,zero,.L46
1030:C:/Users/stapi/OneDrive/Desktop/GD32VW553/V1_MQTT_OK/GD32VW55X_Wifi_BLE_SDK/GD32VW55x_RELEASE_V1.0.2/MSDK/lwip/lwip-2.1.2/src/core\dns.c ****     }
 677              		.loc 1 1030 7 is_stmt 1
 678              	.LVL62:
 679              	.LBE19:
 680              	.LBE18:
1034:C:/Users/stapi/OneDrive/Desktop/GD32VW553/V1_MQTT_OK/GD32VW55X_Wifi_BLE_SDK/GD32VW55x_RELEASE_V1.0.2/MSDK/lwip/lwip-2.1.2/src/core\dns.c **** }
 681              		.loc 1 1034 3
 682              	.LBE17:
 683              	.LBE16:
1079:C:/Users/stapi/OneDrive/Desktop/GD32VW553/V1_MQTT_OK/GD32VW55X_Wifi_BLE_SDK/GD32VW55x_RELEASE_V1.0.2/MSDK/lwip/lwip-2.1.2/src/core\dns.c ****             entry->tmr = 1;
 684              		.loc 1 1079 13
1080:C:/Users/stapi/OneDrive/Desktop/GD32VW553/V1_MQTT_OK/GD32VW55X_Wifi_BLE_SDK/GD32VW55x_RELEASE_V1.0.2/MSDK/lwip/lwip-2.1.2/src/core\dns.c ****             entry->retries = 0;
 685              		.loc 1 1080 13
1081:C:/Users/stapi/OneDrive/Desktop/GD32VW553/V1_MQTT_OK/GD32VW55X_Wifi_BLE_SDK/GD32VW55x_RELEASE_V1.0.2/MSDK/lwip/lwip-2.1.2/src/core\dns.c ****           } else {
 686              		.loc 1 1081 13
1079:C:/Users/stapi/OneDrive/Desktop/GD32VW553/V1_MQTT_OK/GD32VW55X_Wifi_BLE_SDK/GD32VW55x_RELEASE_V1.0.2/MSDK/lwip/lwip-2.1.2/src/core\dns.c ****             entry->tmr = 1;
 687              		.loc 1 1079 30 is_stmt 0
 688 010e 0547     		li	a4,1
 689 0110 A385E700 		sb	a4,11(a5)
1080:C:/Users/stapi/OneDrive/Desktop/GD32VW553/V1_MQTT_OK/GD32VW55X_Wifi_BLE_SDK/GD32VW55x_RELEASE_V1.0.2/MSDK/lwip/lwip-2.1.2/src/core\dns.c ****             entry->retries = 0;
 690              		.loc 1 1080 24
 691 0114 2396E700 		sh	a4,12(a5)
 692 0118 59B7     		j	.L47
 693              	.LVL63:
 694              	.L46:
1083:C:/Users/stapi/OneDrive/Desktop/GD32VW553/V1_MQTT_OK/GD32VW55X_Wifi_BLE_SDK/GD32VW55x_RELEASE_V1.0.2/MSDK/lwip/lwip-2.1.2/src/core\dns.c ****             /* call specified callback function if provided */
 695              		.loc 1 1083 88 is_stmt 1
1085:C:/Users/stapi/OneDrive/Desktop/GD32VW553/V1_MQTT_OK/GD32VW55X_Wifi_BLE_SDK/GD32VW55x_RELEASE_V1.0.2/MSDK/lwip/lwip-2.1.2/src/core\dns.c ****             /* flush this entry */
 696              		.loc 1 1085 13
 697 011a 8145     		li	a1,0
 698 011c 2685     		mv	a0,s1
 699              	.LVL64:
 700 011e 97000000 		call	dns_call_found
 700      E7800000 
 701              	.LVL65:
1087:C:/Users/stapi/OneDrive/Desktop/GD32VW553/V1_MQTT_OK/GD32VW55X_Wifi_BLE_SDK/GD32VW55x_RELEASE_V1.0.2/MSDK/lwip/lwip-2.1.2/src/core\dns.c ****             break;
 702              		.loc 1 1087 13
 703              	.L49:
1106:C:/Users/stapi/OneDrive/Desktop/GD32VW553/V1_MQTT_OK/GD32VW55X_Wifi_BLE_SDK/GD32VW55x_RELEASE_V1.0.2/MSDK/lwip/lwip-2.1.2/src/core\dns.c ****         /* flush this entry, there cannot be any related pending entries in this state */
 704              		.loc 1 1106 82
1108:C:/Users/stapi/OneDrive/Desktop/GD32VW553/V1_MQTT_OK/GD32VW55X_Wifi_BLE_SDK/GD32VW55x_RELEASE_V1.0.2/MSDK/lwip/lwip-2.1.2/src/core\dns.c ****       }
 705              		.loc 1 1108 9
1108:C:/Users/stapi/OneDrive/Desktop/GD32VW553/V1_MQTT_OK/GD32VW55X_Wifi_BLE_SDK/GD32VW55x_RELEASE_V1.0.2/MSDK/lwip/lwip-2.1.2/src/core\dns.c ****       }
 706              		.loc 1 1108 22 is_stmt 0
 707 0126 93070011 		li	a5,272
 708 012a 7F94F4C4 		maddr32	s0, s1, a5
 709 012e 23050400 		sb	zero,10(s0)
 710 0132 9DBF     		j	.L33
 711              	.LVL66:
 712              	.L45:
1092:C:/Users/stapi/OneDrive/Desktop/GD32VW553/V1_MQTT_OK/GD32VW55X_Wifi_BLE_SDK/GD32VW55x_RELEASE_V1.0.2/MSDK/lwip/lwip-2.1.2/src/core\dns.c ****         }
 713              		.loc 1 1092 11 is_stmt 1
1092:C:/Users/stapi/OneDrive/Desktop/GD32VW553/V1_MQTT_OK/GD32VW55X_Wifi_BLE_SDK/GD32VW55x_RELEASE_V1.0.2/MSDK/lwip/lwip-2.1.2/src/core\dns.c ****         }
 714              		.loc 1 1092 22 is_stmt 0
 715 0134 2386E700 		sb	a4,12(a5)
 716 0138 9DB7     		j	.L47
 717              	.L40:
1105:C:/Users/stapi/OneDrive/Desktop/GD32VW553/V1_MQTT_OK/GD32VW55X_Wifi_BLE_SDK/GD32VW55x_RELEASE_V1.0.2/MSDK/lwip/lwip-2.1.2/src/core\dns.c ****         LWIP_DEBUGF(DNS_DEBUG, ("dns_check_entry: \"%s\": flush\n", entry->name));
 718              		.loc 1 1105 7 is_stmt 1
1105:C:/Users/stapi/OneDrive/Desktop/GD32VW553/V1_MQTT_OK/GD32VW55X_Wifi_BLE_SDK/GD32VW55x_RELEASE_V1.0.2/MSDK/lwip/lwip-2.1.2/src/core\dns.c ****         LWIP_DEBUGF(DNS_DEBUG, ("dns_check_entry: \"%s\": flush\n", entry->name));
 719              		.loc 1 1105 17 is_stmt 0
 720 013a 9843     		lw	a4,0(a5)
1105:C:/Users/stapi/OneDrive/Desktop/GD32VW553/V1_MQTT_OK/GD32VW55X_Wifi_BLE_SDK/GD32VW55x_RELEASE_V1.0.2/MSDK/lwip/lwip-2.1.2/src/core\dns.c ****         LWIP_DEBUGF(DNS_DEBUG, ("dns_check_entry: \"%s\": flush\n", entry->name));
 721              		.loc 1 1105 10
 722 013c 6DD7     		beq	a4,zero,.L49
1105:C:/Users/stapi/OneDrive/Desktop/GD32VW553/V1_MQTT_OK/GD32VW55X_Wifi_BLE_SDK/GD32VW55x_RELEASE_V1.0.2/MSDK/lwip/lwip-2.1.2/src/core\dns.c ****         LWIP_DEBUGF(DNS_DEBUG, ("dns_check_entry: \"%s\": flush\n", entry->name));
 723              		.loc 1 1105 33 discriminator 1
 724 013e 7D17     		addi	a4,a4,-1
1105:C:/Users/stapi/OneDrive/Desktop/GD32VW553/V1_MQTT_OK/GD32VW55X_Wifi_BLE_SDK/GD32VW55x_RELEASE_V1.0.2/MSDK/lwip/lwip-2.1.2/src/core\dns.c ****         LWIP_DEBUGF(DNS_DEBUG, ("dns_check_entry: \"%s\": flush\n", entry->name));
 725              		.loc 1 1105 29 discriminator 1
 726 0140 98C3     		sw	a4,0(a5)
 727 0142 75D3     		beq	a4,zero,.L49
 728 0144 95B7     		j	.L33
 729              		.cfi_endproc
 730              	.LFE17:
 732              		.section	.text.dns_recv,"ax",@progbits
 733              		.align	1
 735              	dns_recv:
 736              	.LFB20:
1119:C:/Users/stapi/OneDrive/Desktop/GD32VW553/V1_MQTT_OK/GD32VW55X_Wifi_BLE_SDK/GD32VW55x_RELEASE_V1.0.2/MSDK/lwip/lwip-2.1.2/src/core\dns.c **** 
1120:C:/Users/stapi/OneDrive/Desktop/GD32VW553/V1_MQTT_OK/GD32VW55X_Wifi_BLE_SDK/GD32VW55x_RELEASE_V1.0.2/MSDK/lwip/lwip-2.1.2/src/core\dns.c **** /**
1121:C:/Users/stapi/OneDrive/Desktop/GD32VW553/V1_MQTT_OK/GD32VW55X_Wifi_BLE_SDK/GD32VW55x_RELEASE_V1.0.2/MSDK/lwip/lwip-2.1.2/src/core\dns.c ****  * Call dns_check_entry for each entry in dns_table - check all entries.
1122:C:/Users/stapi/OneDrive/Desktop/GD32VW553/V1_MQTT_OK/GD32VW55X_Wifi_BLE_SDK/GD32VW55x_RELEASE_V1.0.2/MSDK/lwip/lwip-2.1.2/src/core\dns.c ****  */
1123:C:/Users/stapi/OneDrive/Desktop/GD32VW553/V1_MQTT_OK/GD32VW55X_Wifi_BLE_SDK/GD32VW55x_RELEASE_V1.0.2/MSDK/lwip/lwip-2.1.2/src/core\dns.c **** static void
1124:C:/Users/stapi/OneDrive/Desktop/GD32VW553/V1_MQTT_OK/GD32VW55X_Wifi_BLE_SDK/GD32VW55x_RELEASE_V1.0.2/MSDK/lwip/lwip-2.1.2/src/core\dns.c **** dns_check_entries(void)
1125:C:/Users/stapi/OneDrive/Desktop/GD32VW553/V1_MQTT_OK/GD32VW55X_Wifi_BLE_SDK/GD32VW55x_RELEASE_V1.0.2/MSDK/lwip/lwip-2.1.2/src/core\dns.c **** {
1126:C:/Users/stapi/OneDrive/Desktop/GD32VW553/V1_MQTT_OK/GD32VW55X_Wifi_BLE_SDK/GD32VW55x_RELEASE_V1.0.2/MSDK/lwip/lwip-2.1.2/src/core\dns.c ****   u8_t i;
1127:C:/Users/stapi/OneDrive/Desktop/GD32VW553/V1_MQTT_OK/GD32VW55X_Wifi_BLE_SDK/GD32VW55x_RELEASE_V1.0.2/MSDK/lwip/lwip-2.1.2/src/core\dns.c **** 
1128:C:/Users/stapi/OneDrive/Desktop/GD32VW553/V1_MQTT_OK/GD32VW55X_Wifi_BLE_SDK/GD32VW55x_RELEASE_V1.0.2/MSDK/lwip/lwip-2.1.2/src/core\dns.c ****   for (i = 0; i < DNS_TABLE_SIZE; ++i) {
1129:C:/Users/stapi/OneDrive/Desktop/GD32VW553/V1_MQTT_OK/GD32VW55X_Wifi_BLE_SDK/GD32VW55x_RELEASE_V1.0.2/MSDK/lwip/lwip-2.1.2/src/core\dns.c ****     dns_check_entry(i);
1130:C:/Users/stapi/OneDrive/Desktop/GD32VW553/V1_MQTT_OK/GD32VW55X_Wifi_BLE_SDK/GD32VW55x_RELEASE_V1.0.2/MSDK/lwip/lwip-2.1.2/src/core\dns.c ****   }
1131:C:/Users/stapi/OneDrive/Desktop/GD32VW553/V1_MQTT_OK/GD32VW55X_Wifi_BLE_SDK/GD32VW55x_RELEASE_V1.0.2/MSDK/lwip/lwip-2.1.2/src/core\dns.c **** }
1132:C:/Users/stapi/OneDrive/Desktop/GD32VW553/V1_MQTT_OK/GD32VW55X_Wifi_BLE_SDK/GD32VW55x_RELEASE_V1.0.2/MSDK/lwip/lwip-2.1.2/src/core\dns.c **** 
1133:C:/Users/stapi/OneDrive/Desktop/GD32VW553/V1_MQTT_OK/GD32VW55X_Wifi_BLE_SDK/GD32VW55x_RELEASE_V1.0.2/MSDK/lwip/lwip-2.1.2/src/core\dns.c **** /**
1134:C:/Users/stapi/OneDrive/Desktop/GD32VW553/V1_MQTT_OK/GD32VW55X_Wifi_BLE_SDK/GD32VW55x_RELEASE_V1.0.2/MSDK/lwip/lwip-2.1.2/src/core\dns.c ****  * Save TTL and call dns_call_found for correct response.
1135:C:/Users/stapi/OneDrive/Desktop/GD32VW553/V1_MQTT_OK/GD32VW55X_Wifi_BLE_SDK/GD32VW55x_RELEASE_V1.0.2/MSDK/lwip/lwip-2.1.2/src/core\dns.c ****  */
1136:C:/Users/stapi/OneDrive/Desktop/GD32VW553/V1_MQTT_OK/GD32VW55X_Wifi_BLE_SDK/GD32VW55x_RELEASE_V1.0.2/MSDK/lwip/lwip-2.1.2/src/core\dns.c **** static void
1137:C:/Users/stapi/OneDrive/Desktop/GD32VW553/V1_MQTT_OK/GD32VW55X_Wifi_BLE_SDK/GD32VW55x_RELEASE_V1.0.2/MSDK/lwip/lwip-2.1.2/src/core\dns.c **** dns_correct_response(u8_t idx, u32_t ttl)
1138:C:/Users/stapi/OneDrive/Desktop/GD32VW553/V1_MQTT_OK/GD32VW55X_Wifi_BLE_SDK/GD32VW55x_RELEASE_V1.0.2/MSDK/lwip/lwip-2.1.2/src/core\dns.c **** {
1139:C:/Users/stapi/OneDrive/Desktop/GD32VW553/V1_MQTT_OK/GD32VW55X_Wifi_BLE_SDK/GD32VW55x_RELEASE_V1.0.2/MSDK/lwip/lwip-2.1.2/src/core\dns.c ****   struct dns_table_entry *entry = &dns_table[idx];
1140:C:/Users/stapi/OneDrive/Desktop/GD32VW553/V1_MQTT_OK/GD32VW55X_Wifi_BLE_SDK/GD32VW55x_RELEASE_V1.0.2/MSDK/lwip/lwip-2.1.2/src/core\dns.c **** 
1141:C:/Users/stapi/OneDrive/Desktop/GD32VW553/V1_MQTT_OK/GD32VW55X_Wifi_BLE_SDK/GD32VW55x_RELEASE_V1.0.2/MSDK/lwip/lwip-2.1.2/src/core\dns.c ****   entry->state = DNS_STATE_DONE;
1142:C:/Users/stapi/OneDrive/Desktop/GD32VW553/V1_MQTT_OK/GD32VW55X_Wifi_BLE_SDK/GD32VW55x_RELEASE_V1.0.2/MSDK/lwip/lwip-2.1.2/src/core\dns.c **** 
1143:C:/Users/stapi/OneDrive/Desktop/GD32VW553/V1_MQTT_OK/GD32VW55X_Wifi_BLE_SDK/GD32VW55x_RELEASE_V1.0.2/MSDK/lwip/lwip-2.1.2/src/core\dns.c ****   LWIP_DEBUGF(DNS_DEBUG, ("dns_recv: \"%s\": response = ", entry->name));
1144:C:/Users/stapi/OneDrive/Desktop/GD32VW553/V1_MQTT_OK/GD32VW55X_Wifi_BLE_SDK/GD32VW55x_RELEASE_V1.0.2/MSDK/lwip/lwip-2.1.2/src/core\dns.c ****   ip_addr_debug_print_val(DNS_DEBUG, entry->ipaddr);
1145:C:/Users/stapi/OneDrive/Desktop/GD32VW553/V1_MQTT_OK/GD32VW55X_Wifi_BLE_SDK/GD32VW55x_RELEASE_V1.0.2/MSDK/lwip/lwip-2.1.2/src/core\dns.c ****   LWIP_DEBUGF(DNS_DEBUG, ("\n"));
1146:C:/Users/stapi/OneDrive/Desktop/GD32VW553/V1_MQTT_OK/GD32VW55X_Wifi_BLE_SDK/GD32VW55x_RELEASE_V1.0.2/MSDK/lwip/lwip-2.1.2/src/core\dns.c **** 
1147:C:/Users/stapi/OneDrive/Desktop/GD32VW553/V1_MQTT_OK/GD32VW55X_Wifi_BLE_SDK/GD32VW55x_RELEASE_V1.0.2/MSDK/lwip/lwip-2.1.2/src/core\dns.c ****   /* read the answer resource record's TTL, and maximize it if needed */
1148:C:/Users/stapi/OneDrive/Desktop/GD32VW553/V1_MQTT_OK/GD32VW55X_Wifi_BLE_SDK/GD32VW55x_RELEASE_V1.0.2/MSDK/lwip/lwip-2.1.2/src/core\dns.c ****   entry->ttl = ttl;
1149:C:/Users/stapi/OneDrive/Desktop/GD32VW553/V1_MQTT_OK/GD32VW55X_Wifi_BLE_SDK/GD32VW55x_RELEASE_V1.0.2/MSDK/lwip/lwip-2.1.2/src/core\dns.c ****   if (entry->ttl > DNS_MAX_TTL) {
1150:C:/Users/stapi/OneDrive/Desktop/GD32VW553/V1_MQTT_OK/GD32VW55X_Wifi_BLE_SDK/GD32VW55x_RELEASE_V1.0.2/MSDK/lwip/lwip-2.1.2/src/core\dns.c ****     entry->ttl = DNS_MAX_TTL;
1151:C:/Users/stapi/OneDrive/Desktop/GD32VW553/V1_MQTT_OK/GD32VW55X_Wifi_BLE_SDK/GD32VW55x_RELEASE_V1.0.2/MSDK/lwip/lwip-2.1.2/src/core\dns.c ****   }
1152:C:/Users/stapi/OneDrive/Desktop/GD32VW553/V1_MQTT_OK/GD32VW55X_Wifi_BLE_SDK/GD32VW55x_RELEASE_V1.0.2/MSDK/lwip/lwip-2.1.2/src/core\dns.c ****   dns_call_found(idx, &entry->ipaddr);
1153:C:/Users/stapi/OneDrive/Desktop/GD32VW553/V1_MQTT_OK/GD32VW55X_Wifi_BLE_SDK/GD32VW55x_RELEASE_V1.0.2/MSDK/lwip/lwip-2.1.2/src/core\dns.c **** 
1154:C:/Users/stapi/OneDrive/Desktop/GD32VW553/V1_MQTT_OK/GD32VW55X_Wifi_BLE_SDK/GD32VW55x_RELEASE_V1.0.2/MSDK/lwip/lwip-2.1.2/src/core\dns.c ****   if (entry->ttl == 0) {
1155:C:/Users/stapi/OneDrive/Desktop/GD32VW553/V1_MQTT_OK/GD32VW55X_Wifi_BLE_SDK/GD32VW55x_RELEASE_V1.0.2/MSDK/lwip/lwip-2.1.2/src/core\dns.c ****     /* RFC 883, page 29: "Zero values are
1156:C:/Users/stapi/OneDrive/Desktop/GD32VW553/V1_MQTT_OK/GD32VW55X_Wifi_BLE_SDK/GD32VW55x_RELEASE_V1.0.2/MSDK/lwip/lwip-2.1.2/src/core\dns.c ****        interpreted to mean that the RR can only be used for the
1157:C:/Users/stapi/OneDrive/Desktop/GD32VW553/V1_MQTT_OK/GD32VW55X_Wifi_BLE_SDK/GD32VW55x_RELEASE_V1.0.2/MSDK/lwip/lwip-2.1.2/src/core\dns.c ****        transaction in progress, and should not be cached."
1158:C:/Users/stapi/OneDrive/Desktop/GD32VW553/V1_MQTT_OK/GD32VW55X_Wifi_BLE_SDK/GD32VW55x_RELEASE_V1.0.2/MSDK/lwip/lwip-2.1.2/src/core\dns.c ****        -> flush this entry now */
1159:C:/Users/stapi/OneDrive/Desktop/GD32VW553/V1_MQTT_OK/GD32VW55X_Wifi_BLE_SDK/GD32VW55x_RELEASE_V1.0.2/MSDK/lwip/lwip-2.1.2/src/core\dns.c ****     /* entry reused during callback? */
1160:C:/Users/stapi/OneDrive/Desktop/GD32VW553/V1_MQTT_OK/GD32VW55X_Wifi_BLE_SDK/GD32VW55x_RELEASE_V1.0.2/MSDK/lwip/lwip-2.1.2/src/core\dns.c ****     if (entry->state == DNS_STATE_DONE) {
1161:C:/Users/stapi/OneDrive/Desktop/GD32VW553/V1_MQTT_OK/GD32VW55X_Wifi_BLE_SDK/GD32VW55x_RELEASE_V1.0.2/MSDK/lwip/lwip-2.1.2/src/core\dns.c ****       entry->state = DNS_STATE_UNUSED;
1162:C:/Users/stapi/OneDrive/Desktop/GD32VW553/V1_MQTT_OK/GD32VW55X_Wifi_BLE_SDK/GD32VW55x_RELEASE_V1.0.2/MSDK/lwip/lwip-2.1.2/src/core\dns.c ****     }
1163:C:/Users/stapi/OneDrive/Desktop/GD32VW553/V1_MQTT_OK/GD32VW55X_Wifi_BLE_SDK/GD32VW55x_RELEASE_V1.0.2/MSDK/lwip/lwip-2.1.2/src/core\dns.c ****   }
1164:C:/Users/stapi/OneDrive/Desktop/GD32VW553/V1_MQTT_OK/GD32VW55X_Wifi_BLE_SDK/GD32VW55x_RELEASE_V1.0.2/MSDK/lwip/lwip-2.1.2/src/core\dns.c **** }
1165:C:/Users/stapi/OneDrive/Desktop/GD32VW553/V1_MQTT_OK/GD32VW55X_Wifi_BLE_SDK/GD32VW55x_RELEASE_V1.0.2/MSDK/lwip/lwip-2.1.2/src/core\dns.c **** 
1166:C:/Users/stapi/OneDrive/Desktop/GD32VW553/V1_MQTT_OK/GD32VW55X_Wifi_BLE_SDK/GD32VW55x_RELEASE_V1.0.2/MSDK/lwip/lwip-2.1.2/src/core\dns.c **** /**
1167:C:/Users/stapi/OneDrive/Desktop/GD32VW553/V1_MQTT_OK/GD32VW55X_Wifi_BLE_SDK/GD32VW55x_RELEASE_V1.0.2/MSDK/lwip/lwip-2.1.2/src/core\dns.c ****  * Receive input function for DNS response packets arriving for the dns UDP pcb.
1168:C:/Users/stapi/OneDrive/Desktop/GD32VW553/V1_MQTT_OK/GD32VW55X_Wifi_BLE_SDK/GD32VW55x_RELEASE_V1.0.2/MSDK/lwip/lwip-2.1.2/src/core\dns.c ****  */
1169:C:/Users/stapi/OneDrive/Desktop/GD32VW553/V1_MQTT_OK/GD32VW55X_Wifi_BLE_SDK/GD32VW55x_RELEASE_V1.0.2/MSDK/lwip/lwip-2.1.2/src/core\dns.c **** static void
1170:C:/Users/stapi/OneDrive/Desktop/GD32VW553/V1_MQTT_OK/GD32VW55X_Wifi_BLE_SDK/GD32VW55x_RELEASE_V1.0.2/MSDK/lwip/lwip-2.1.2/src/core\dns.c **** dns_recv(void *arg, struct udp_pcb *pcb, struct pbuf *p, const ip_addr_t *addr, u16_t port)
1171:C:/Users/stapi/OneDrive/Desktop/GD32VW553/V1_MQTT_OK/GD32VW55X_Wifi_BLE_SDK/GD32VW55x_RELEASE_V1.0.2/MSDK/lwip/lwip-2.1.2/src/core\dns.c **** {
 737              		.loc 1 1171 1 is_stmt 1
 738              		.cfi_startproc
 739              	.LVL67:
 740 0000 17030000 		call	t0,__riscv_save_12
 740      E7020300 
 741              		.cfi_offset 27, -52
 742              		.cfi_offset 26, -48
 743              		.cfi_offset 25, -44
 744              		.cfi_offset 24, -40
 745              		.cfi_offset 23, -36
 746              		.cfi_offset 22, -32
 747              		.cfi_offset 21, -28
 748              		.cfi_offset 20, -24
 749              		.cfi_offset 19, -20
 750              		.cfi_offset 18, -16
 751              		.cfi_offset 9, -12
 752              		.cfi_offset 8, -8
 753              		.cfi_offset 1, -4
 754              		.cfi_def_cfa_offset 64
1172:C:/Users/stapi/OneDrive/Desktop/GD32VW553/V1_MQTT_OK/GD32VW55X_Wifi_BLE_SDK/GD32VW55x_RELEASE_V1.0.2/MSDK/lwip/lwip-2.1.2/src/core\dns.c ****   u8_t i;
 755              		.loc 1 1172 3
1173:C:/Users/stapi/OneDrive/Desktop/GD32VW553/V1_MQTT_OK/GD32VW55X_Wifi_BLE_SDK/GD32VW55x_RELEASE_V1.0.2/MSDK/lwip/lwip-2.1.2/src/core\dns.c ****   u16_t txid;
 756              		.loc 1 1173 3
1174:C:/Users/stapi/OneDrive/Desktop/GD32VW553/V1_MQTT_OK/GD32VW55X_Wifi_BLE_SDK/GD32VW55x_RELEASE_V1.0.2/MSDK/lwip/lwip-2.1.2/src/core\dns.c ****   u16_t res_idx;
 757              		.loc 1 1174 3
1175:C:/Users/stapi/OneDrive/Desktop/GD32VW553/V1_MQTT_OK/GD32VW55X_Wifi_BLE_SDK/GD32VW55x_RELEASE_V1.0.2/MSDK/lwip/lwip-2.1.2/src/core\dns.c ****   struct dns_hdr hdr;
 758              		.loc 1 1175 3
1176:C:/Users/stapi/OneDrive/Desktop/GD32VW553/V1_MQTT_OK/GD32VW55X_Wifi_BLE_SDK/GD32VW55x_RELEASE_V1.0.2/MSDK/lwip/lwip-2.1.2/src/core\dns.c ****   struct dns_answer ans;
 759              		.loc 1 1176 3
1177:C:/Users/stapi/OneDrive/Desktop/GD32VW553/V1_MQTT_OK/GD32VW55X_Wifi_BLE_SDK/GD32VW55x_RELEASE_V1.0.2/MSDK/lwip/lwip-2.1.2/src/core\dns.c ****   struct dns_query qry;
 760              		.loc 1 1177 3
1178:C:/Users/stapi/OneDrive/Desktop/GD32VW553/V1_MQTT_OK/GD32VW55X_Wifi_BLE_SDK/GD32VW55x_RELEASE_V1.0.2/MSDK/lwip/lwip-2.1.2/src/core\dns.c ****   u16_t nquestions, nanswers;
 761              		.loc 1 1178 3
1179:C:/Users/stapi/OneDrive/Desktop/GD32VW553/V1_MQTT_OK/GD32VW55X_Wifi_BLE_SDK/GD32VW55x_RELEASE_V1.0.2/MSDK/lwip/lwip-2.1.2/src/core\dns.c **** 
1180:C:/Users/stapi/OneDrive/Desktop/GD32VW553/V1_MQTT_OK/GD32VW55X_Wifi_BLE_SDK/GD32VW55x_RELEASE_V1.0.2/MSDK/lwip/lwip-2.1.2/src/core\dns.c ****   LWIP_UNUSED_ARG(arg);
 762              		.loc 1 1180 3
1181:C:/Users/stapi/OneDrive/Desktop/GD32VW553/V1_MQTT_OK/GD32VW55X_Wifi_BLE_SDK/GD32VW55x_RELEASE_V1.0.2/MSDK/lwip/lwip-2.1.2/src/core\dns.c ****   LWIP_UNUSED_ARG(pcb);
 763              		.loc 1 1181 3
1182:C:/Users/stapi/OneDrive/Desktop/GD32VW553/V1_MQTT_OK/GD32VW55X_Wifi_BLE_SDK/GD32VW55x_RELEASE_V1.0.2/MSDK/lwip/lwip-2.1.2/src/core\dns.c ****   LWIP_UNUSED_ARG(port);
 764              		.loc 1 1182 3
1183:C:/Users/stapi/OneDrive/Desktop/GD32VW553/V1_MQTT_OK/GD32VW55X_Wifi_BLE_SDK/GD32VW55x_RELEASE_V1.0.2/MSDK/lwip/lwip-2.1.2/src/core\dns.c **** 
1184:C:/Users/stapi/OneDrive/Desktop/GD32VW553/V1_MQTT_OK/GD32VW55X_Wifi_BLE_SDK/GD32VW55x_RELEASE_V1.0.2/MSDK/lwip/lwip-2.1.2/src/core\dns.c ****   /* is the dns message big enough ? */
1185:C:/Users/stapi/OneDrive/Desktop/GD32VW553/V1_MQTT_OK/GD32VW55X_Wifi_BLE_SDK/GD32VW55x_RELEASE_V1.0.2/MSDK/lwip/lwip-2.1.2/src/core\dns.c ****   if (p->tot_len < (SIZEOF_DNS_HDR + SIZEOF_DNS_QUERY)) {
 765              		.loc 1 1185 3
 766              		.loc 1 1185 6 is_stmt 0
 767 0008 03578600 		lhu	a4,8(a2)
 768              	.LVL68:
 769 000c BD47     		li	a5,15
1171:C:/Users/stapi/OneDrive/Desktop/GD32VW553/V1_MQTT_OK/GD32VW55X_Wifi_BLE_SDK/GD32VW55x_RELEASE_V1.0.2/MSDK/lwip/lwip-2.1.2/src/core\dns.c ****   u8_t i;
 770              		.loc 1 1171 1
 771 000e 7971     		addi	sp,sp,-48
 772              		.cfi_def_cfa_offset 112
1171:C:/Users/stapi/OneDrive/Desktop/GD32VW553/V1_MQTT_OK/GD32VW55X_Wifi_BLE_SDK/GD32VW55x_RELEASE_V1.0.2/MSDK/lwip/lwip-2.1.2/src/core\dns.c ****   u8_t i;
 773              		.loc 1 1171 1
 774 0010 B284     		mv	s1,a2
 775              		.loc 1 1185 6
 776 0012 63F2E732 		bleu	a4,a5,.L67
 777 0016 368C     		mv	s8,a3
1186:C:/Users/stapi/OneDrive/Desktop/GD32VW553/V1_MQTT_OK/GD32VW55X_Wifi_BLE_SDK/GD32VW55x_RELEASE_V1.0.2/MSDK/lwip/lwip-2.1.2/src/core\dns.c ****     LWIP_DEBUGF(DNS_DEBUG, ("dns_recv: pbuf too small\n"));
1187:C:/Users/stapi/OneDrive/Desktop/GD32VW553/V1_MQTT_OK/GD32VW55X_Wifi_BLE_SDK/GD32VW55x_RELEASE_V1.0.2/MSDK/lwip/lwip-2.1.2/src/core\dns.c ****     /* free pbuf and return */
1188:C:/Users/stapi/OneDrive/Desktop/GD32VW553/V1_MQTT_OK/GD32VW55X_Wifi_BLE_SDK/GD32VW55x_RELEASE_V1.0.2/MSDK/lwip/lwip-2.1.2/src/core\dns.c ****     goto ignore_packet;
1189:C:/Users/stapi/OneDrive/Desktop/GD32VW553/V1_MQTT_OK/GD32VW55X_Wifi_BLE_SDK/GD32VW55x_RELEASE_V1.0.2/MSDK/lwip/lwip-2.1.2/src/core\dns.c ****   }
1190:C:/Users/stapi/OneDrive/Desktop/GD32VW553/V1_MQTT_OK/GD32VW55X_Wifi_BLE_SDK/GD32VW55x_RELEASE_V1.0.2/MSDK/lwip/lwip-2.1.2/src/core\dns.c **** 
1191:C:/Users/stapi/OneDrive/Desktop/GD32VW553/V1_MQTT_OK/GD32VW55X_Wifi_BLE_SDK/GD32VW55x_RELEASE_V1.0.2/MSDK/lwip/lwip-2.1.2/src/core\dns.c ****   /* copy dns payload inside static buffer for processing */
1192:C:/Users/stapi/OneDrive/Desktop/GD32VW553/V1_MQTT_OK/GD32VW55X_Wifi_BLE_SDK/GD32VW55x_RELEASE_V1.0.2/MSDK/lwip/lwip-2.1.2/src/core\dns.c ****   if (pbuf_copy_partial(p, &hdr, SIZEOF_DNS_HDR, 0) == SIZEOF_DNS_HDR) {
 778              		.loc 1 1192 3 is_stmt 1
 779              		.loc 1 1192 7 is_stmt 0
 780 0018 3146     		li	a2,12
 781              	.LVL69:
 782 001a 8146     		li	a3,0
 783              	.LVL70:
 784 001c 2C08     		addi	a1,sp,24
 785              	.LVL71:
 786 001e 2685     		mv	a0,s1
 787              	.LVL72:
 788 0020 97000000 		call	pbuf_copy_partial
 788      E7800000 
 789              	.LVL73:
 790              		.loc 1 1192 6
 791 0028 B147     		li	a5,12
 792              		.loc 1 1192 7
 793 002a 2A84     		mv	s0,a0
 794              		.loc 1 1192 6
 795 002c 6315F530 		bne	a0,a5,.L67
1193:C:/Users/stapi/OneDrive/Desktop/GD32VW553/V1_MQTT_OK/GD32VW55X_Wifi_BLE_SDK/GD32VW55x_RELEASE_V1.0.2/MSDK/lwip/lwip-2.1.2/src/core\dns.c ****     /* Match the ID in the DNS header with the name table. */
1194:C:/Users/stapi/OneDrive/Desktop/GD32VW553/V1_MQTT_OK/GD32VW55X_Wifi_BLE_SDK/GD32VW55x_RELEASE_V1.0.2/MSDK/lwip/lwip-2.1.2/src/core\dns.c ****     txid = lwip_htons(hdr.id);
 796              		.loc 1 1194 5 is_stmt 1
 797              		.loc 1 1194 12 is_stmt 0
 798 0030 03558101 		lhu	a0,24(sp)
 799 0034 37090000 		lui	s2,%hi(.LANCHOR0)
 800 0038 8149     		li	s3,0
 801 003a 97000000 		call	lwip_htons
 801      E7800000 
 802              	.LVL74:
1195:C:/Users/stapi/OneDrive/Desktop/GD32VW553/V1_MQTT_OK/GD32VW55X_Wifi_BLE_SDK/GD32VW55x_RELEASE_V1.0.2/MSDK/lwip/lwip-2.1.2/src/core\dns.c ****     for (i = 0; i < DNS_TABLE_SIZE; i++) {
 803              		.loc 1 1195 5 is_stmt 1
 804              		.loc 1 1195 17
 805 0042 93070900 		addi	a5,s2,%lo(.LANCHOR0)
 806              	.LBB35:
1196:C:/Users/stapi/OneDrive/Desktop/GD32VW553/V1_MQTT_OK/GD32VW55X_Wifi_BLE_SDK/GD32VW55x_RELEASE_V1.0.2/MSDK/lwip/lwip-2.1.2/src/core\dns.c ****       struct dns_table_entry *entry = &dns_table[i];
1197:C:/Users/stapi/OneDrive/Desktop/GD32VW553/V1_MQTT_OK/GD32VW55X_Wifi_BLE_SDK/GD32VW55x_RELEASE_V1.0.2/MSDK/lwip/lwip-2.1.2/src/core\dns.c ****       if ((entry->state == DNS_STATE_ASKING) &&
 807              		.loc 1 1197 10 is_stmt 0
 808 0046 8946     		li	a3,2
 809 0048 13090900 		addi	s2,s2,%lo(.LANCHOR0)
 810              	.LBE35:
1195:C:/Users/stapi/OneDrive/Desktop/GD32VW553/V1_MQTT_OK/GD32VW55X_Wifi_BLE_SDK/GD32VW55x_RELEASE_V1.0.2/MSDK/lwip/lwip-2.1.2/src/core\dns.c ****     for (i = 0; i < DNS_TABLE_SIZE; i++) {
 811              		.loc 1 1195 5
 812 004c 1147     		li	a4,4
 813              	.LVL75:
 814              	.L87:
 815              	.LBB68:
 816              		.loc 1 1197 10
 817 004e 03C6A700 		lbu	a2,10(a5)
 818 0052 13FBF90F 		andi	s6,s3,0xff
 819              	.LVL76:
1196:C:/Users/stapi/OneDrive/Desktop/GD32VW553/V1_MQTT_OK/GD32VW55X_Wifi_BLE_SDK/GD32VW55x_RELEASE_V1.0.2/MSDK/lwip/lwip-2.1.2/src/core\dns.c ****       struct dns_table_entry *entry = &dns_table[i];
 820              		.loc 1 1196 7 is_stmt 1
 821              		.loc 1 1197 7
 822              		.loc 1 1197 10 is_stmt 0
 823 0056 631CD630 		bne	a2,a3,.L69
 824              		.loc 1 1197 46 discriminator 1
 825 005a 03D68700 		lhu	a2,8(a5)
 826 005e 6318A630 		bne	a2,a0,.L69
1198:C:/Users/stapi/OneDrive/Desktop/GD32VW553/V1_MQTT_OK/GD32VW55X_Wifi_BLE_SDK/GD32VW55x_RELEASE_V1.0.2/MSDK/lwip/lwip-2.1.2/src/core\dns.c ****           (entry->txid == txid)) {
1199:C:/Users/stapi/OneDrive/Desktop/GD32VW553/V1_MQTT_OK/GD32VW55X_Wifi_BLE_SDK/GD32VW55x_RELEASE_V1.0.2/MSDK/lwip/lwip-2.1.2/src/core\dns.c **** 
1200:C:/Users/stapi/OneDrive/Desktop/GD32VW553/V1_MQTT_OK/GD32VW55X_Wifi_BLE_SDK/GD32VW55x_RELEASE_V1.0.2/MSDK/lwip/lwip-2.1.2/src/core\dns.c ****         /* We only care about the question(s) and the answers. The authrr
1201:C:/Users/stapi/OneDrive/Desktop/GD32VW553/V1_MQTT_OK/GD32VW55X_Wifi_BLE_SDK/GD32VW55x_RELEASE_V1.0.2/MSDK/lwip/lwip-2.1.2/src/core\dns.c ****            and the extrarr are simply discarded. */
1202:C:/Users/stapi/OneDrive/Desktop/GD32VW553/V1_MQTT_OK/GD32VW55X_Wifi_BLE_SDK/GD32VW55x_RELEASE_V1.0.2/MSDK/lwip/lwip-2.1.2/src/core\dns.c ****         nquestions = lwip_htons(hdr.numquestions);
 827              		.loc 1 1202 9 is_stmt 1
 828              		.loc 1 1202 22 is_stmt 0
 829 0062 0355C101 		lhu	a0,28(sp)
 830              	.LVL77:
 831 0066 97000000 		call	lwip_htons
 831      E7800000 
 832              	.LVL78:
 833 006e AA8A     		mv	s5,a0
 834              	.LVL79:
1203:C:/Users/stapi/OneDrive/Desktop/GD32VW553/V1_MQTT_OK/GD32VW55X_Wifi_BLE_SDK/GD32VW55x_RELEASE_V1.0.2/MSDK/lwip/lwip-2.1.2/src/core\dns.c ****         nanswers   = lwip_htons(hdr.numanswers);
 835              		.loc 1 1203 9 is_stmt 1
 836              		.loc 1 1203 22 is_stmt 0
 837 0070 0355E101 		lhu	a0,30(sp)
 838 0074 97000000 		call	lwip_htons
 838      E7800000 
 839              	.LVL80:
 840 007c 2A8A     		mv	s4,a0
 841              	.LVL81:
1204:C:/Users/stapi/OneDrive/Desktop/GD32VW553/V1_MQTT_OK/GD32VW55X_Wifi_BLE_SDK/GD32VW55x_RELEASE_V1.0.2/MSDK/lwip/lwip-2.1.2/src/core\dns.c **** 
1205:C:/Users/stapi/OneDrive/Desktop/GD32VW553/V1_MQTT_OK/GD32VW55X_Wifi_BLE_SDK/GD32VW55x_RELEASE_V1.0.2/MSDK/lwip/lwip-2.1.2/src/core\dns.c ****         /* Check for correct response. */
1206:C:/Users/stapi/OneDrive/Desktop/GD32VW553/V1_MQTT_OK/GD32VW55X_Wifi_BLE_SDK/GD32VW55x_RELEASE_V1.0.2/MSDK/lwip/lwip-2.1.2/src/core\dns.c ****         if ((hdr.flags1 & DNS_FLAG1_RESPONSE) == 0) {
 842              		.loc 1 1206 9 is_stmt 1
 843              		.loc 1 1206 12 is_stmt 0
 844 007e 8307A101 		lb	a5,26(sp)
 845 0082 63DA072A 		bge	a5,zero,.L67
1207:C:/Users/stapi/OneDrive/Desktop/GD32VW553/V1_MQTT_OK/GD32VW55X_Wifi_BLE_SDK/GD32VW55x_RELEASE_V1.0.2/MSDK/lwip/lwip-2.1.2/src/core\dns.c ****           LWIP_DEBUGF(DNS_DEBUG, ("dns_recv: \"%s\": not a response\n", entry->name));
1208:C:/Users/stapi/OneDrive/Desktop/GD32VW553/V1_MQTT_OK/GD32VW55X_Wifi_BLE_SDK/GD32VW55x_RELEASE_V1.0.2/MSDK/lwip/lwip-2.1.2/src/core\dns.c ****           goto ignore_packet; /* ignore this packet */
1209:C:/Users/stapi/OneDrive/Desktop/GD32VW553/V1_MQTT_OK/GD32VW55X_Wifi_BLE_SDK/GD32VW55x_RELEASE_V1.0.2/MSDK/lwip/lwip-2.1.2/src/core\dns.c ****         }
1210:C:/Users/stapi/OneDrive/Desktop/GD32VW553/V1_MQTT_OK/GD32VW55X_Wifi_BLE_SDK/GD32VW55x_RELEASE_V1.0.2/MSDK/lwip/lwip-2.1.2/src/core\dns.c ****         if (nquestions != 1) {
 846              		.loc 1 1210 9 is_stmt 1
 847              		.loc 1 1210 12 is_stmt 0
 848 0086 8547     		li	a5,1
 849 0088 6397FA2A 		bne	s5,a5,.L67
1211:C:/Users/stapi/OneDrive/Desktop/GD32VW553/V1_MQTT_OK/GD32VW55X_Wifi_BLE_SDK/GD32VW55x_RELEASE_V1.0.2/MSDK/lwip/lwip-2.1.2/src/core\dns.c ****           LWIP_DEBUGF(DNS_DEBUG, ("dns_recv: \"%s\": response not match to query\n", entry->name));
1212:C:/Users/stapi/OneDrive/Desktop/GD32VW553/V1_MQTT_OK/GD32VW55X_Wifi_BLE_SDK/GD32VW55x_RELEASE_V1.0.2/MSDK/lwip/lwip-2.1.2/src/core\dns.c ****           goto ignore_packet; /* ignore this packet */
1213:C:/Users/stapi/OneDrive/Desktop/GD32VW553/V1_MQTT_OK/GD32VW55X_Wifi_BLE_SDK/GD32VW55x_RELEASE_V1.0.2/MSDK/lwip/lwip-2.1.2/src/core\dns.c ****         }
1214:C:/Users/stapi/OneDrive/Desktop/GD32VW553/V1_MQTT_OK/GD32VW55X_Wifi_BLE_SDK/GD32VW55x_RELEASE_V1.0.2/MSDK/lwip/lwip-2.1.2/src/core\dns.c **** 
1215:C:/Users/stapi/OneDrive/Desktop/GD32VW553/V1_MQTT_OK/GD32VW55X_Wifi_BLE_SDK/GD32VW55x_RELEASE_V1.0.2/MSDK/lwip/lwip-2.1.2/src/core\dns.c **** #if LWIP_DNS_SUPPORT_MDNS_QUERIES
1216:C:/Users/stapi/OneDrive/Desktop/GD32VW553/V1_MQTT_OK/GD32VW55X_Wifi_BLE_SDK/GD32VW55x_RELEASE_V1.0.2/MSDK/lwip/lwip-2.1.2/src/core\dns.c ****         if (!entry->is_mdns)
1217:C:/Users/stapi/OneDrive/Desktop/GD32VW553/V1_MQTT_OK/GD32VW55X_Wifi_BLE_SDK/GD32VW55x_RELEASE_V1.0.2/MSDK/lwip/lwip-2.1.2/src/core\dns.c **** #endif /* LWIP_DNS_SUPPORT_MDNS_QUERIES */
1218:C:/Users/stapi/OneDrive/Desktop/GD32VW553/V1_MQTT_OK/GD32VW55X_Wifi_BLE_SDK/GD32VW55x_RELEASE_V1.0.2/MSDK/lwip/lwip-2.1.2/src/core\dns.c ****         {
1219:C:/Users/stapi/OneDrive/Desktop/GD32VW553/V1_MQTT_OK/GD32VW55X_Wifi_BLE_SDK/GD32VW55x_RELEASE_V1.0.2/MSDK/lwip/lwip-2.1.2/src/core\dns.c ****           /* Check whether response comes from the same network address to which the
1220:C:/Users/stapi/OneDrive/Desktop/GD32VW553/V1_MQTT_OK/GD32VW55X_Wifi_BLE_SDK/GD32VW55x_RELEASE_V1.0.2/MSDK/lwip/lwip-2.1.2/src/core\dns.c ****              question was sent. (RFC 5452) */
1221:C:/Users/stapi/OneDrive/Desktop/GD32VW553/V1_MQTT_OK/GD32VW55X_Wifi_BLE_SDK/GD32VW55x_RELEASE_V1.0.2/MSDK/lwip/lwip-2.1.2/src/core\dns.c ****           if (!ip_addr_cmp(addr, &dns_servers[entry->server_idx])) {
 850              		.loc 1 1221 11 is_stmt 1
 851              		.loc 1 1221 16 is_stmt 0
 852 008c 930A0011 		li	s5,272
 853              	.LVL82:
 854 0090 B38A5903 		mul	s5,s3,s5
 855 0094 B70B0000 		lui	s7,%hi(.LANCHOR3)
 856 0098 13870B00 		addi	a4,s7,%lo(.LANCHOR3)
 857 009c 938B0B00 		addi	s7,s7,%lo(.LANCHOR3)
 858 00a0 B3075901 		add	a5,s2,s5
 859 00a4 83C7B700 		lbu	a5,11(a5)
 860 00a8 B3C7E720 		sh2add	a5,a5,a4
 861              		.loc 1 1221 14
 862 00ac 03270C00 		lw	a4,0(s8)
 863 00b0 9C43     		lw	a5,0(a5)
 864 00b2 6312F728 		bne	a4,a5,.L67
1222:C:/Users/stapi/OneDrive/Desktop/GD32VW553/V1_MQTT_OK/GD32VW55X_Wifi_BLE_SDK/GD32VW55x_RELEASE_V1.0.2/MSDK/lwip/lwip-2.1.2/src/core\dns.c ****             goto ignore_packet; /* ignore this packet */
1223:C:/Users/stapi/OneDrive/Desktop/GD32VW553/V1_MQTT_OK/GD32VW55X_Wifi_BLE_SDK/GD32VW55x_RELEASE_V1.0.2/MSDK/lwip/lwip-2.1.2/src/core\dns.c ****           }
1224:C:/Users/stapi/OneDrive/Desktop/GD32VW553/V1_MQTT_OK/GD32VW55X_Wifi_BLE_SDK/GD32VW55x_RELEASE_V1.0.2/MSDK/lwip/lwip-2.1.2/src/core\dns.c ****         }
1225:C:/Users/stapi/OneDrive/Desktop/GD32VW553/V1_MQTT_OK/GD32VW55X_Wifi_BLE_SDK/GD32VW55x_RELEASE_V1.0.2/MSDK/lwip/lwip-2.1.2/src/core\dns.c **** 
1226:C:/Users/stapi/OneDrive/Desktop/GD32VW553/V1_MQTT_OK/GD32VW55X_Wifi_BLE_SDK/GD32VW55x_RELEASE_V1.0.2/MSDK/lwip/lwip-2.1.2/src/core\dns.c ****         /* Check if the name in the "question" part match with the name in the entry and
1227:C:/Users/stapi/OneDrive/Desktop/GD32VW553/V1_MQTT_OK/GD32VW55X_Wifi_BLE_SDK/GD32VW55x_RELEASE_V1.0.2/MSDK/lwip/lwip-2.1.2/src/core\dns.c ****            skip it if equal. */
1228:C:/Users/stapi/OneDrive/Desktop/GD32VW553/V1_MQTT_OK/GD32VW55X_Wifi_BLE_SDK/GD32VW55x_RELEASE_V1.0.2/MSDK/lwip/lwip-2.1.2/src/core\dns.c ****         res_idx = dns_compare_name(entry->name, p, SIZEOF_DNS_HDR);
 865              		.loc 1 1228 9 is_stmt 1
 866              		.loc 1 1228 41 is_stmt 0
 867 00b6 938D0A01 		addi	s11,s5,16
 868              	.LBB36:
 869              	.LBB37:
 658:C:/Users/stapi/OneDrive/Desktop/GD32VW553/V1_MQTT_OK/GD32VW55X_Wifi_BLE_SDK/GD32VW55x_RELEASE_V1.0.2/MSDK/lwip/lwip-2.1.2/src/core\dns.c ****       /* error or overflow */
 870              		.loc 1 658 17
 871 00ba 416C     		li	s8,65536
 872              	.LVL83:
 873              	.LBB38:
 874              	.LBB39:
 674:C:/Users/stapi/OneDrive/Desktop/GD32VW553/V1_MQTT_OK/GD32VW55X_Wifi_BLE_SDK/GD32VW55x_RELEASE_V1.0.2/MSDK/lwip/lwip-2.1.2/src/core\dns.c ****           return 0xFFFF;
 875              		.loc 1 674 13
 876 00bc B70C0000 		lui	s9,%hi(_ctype_+1)
 877              	.LBE39:
 878              	.LBE38:
 879              	.LBE37:
 880              	.LBE36:
 881              		.loc 1 1228 41
 882 00c0 CA9D     		add	s11,s2,s11
 883              	.LVL84:
 884              	.LBB47:
 885              	.LBB45:
 658:C:/Users/stapi/OneDrive/Desktop/GD32VW553/V1_MQTT_OK/GD32VW55X_Wifi_BLE_SDK/GD32VW55x_RELEASE_V1.0.2/MSDK/lwip/lwip-2.1.2/src/core\dns.c ****       /* error or overflow */
 886              		.loc 1 658 17
 887 00c2 7D1C     		addi	s8,s8,-1
 888              	.LBB43:
 889              	.LBB40:
 674:C:/Users/stapi/OneDrive/Desktop/GD32VW553/V1_MQTT_OK/GD32VW55X_Wifi_BLE_SDK/GD32VW55x_RELEASE_V1.0.2/MSDK/lwip/lwip-2.1.2/src/core\dns.c ****           return 0xFFFF;
 890              		.loc 1 674 13
 891 00c4 938C1C00 		addi	s9,s9,%lo(_ctype_+1)
 892 00c8 054D     		li	s10,1
 893              	.L74:
 894              	.LVL85:
 895              	.LBE40:
 896              	.LBE43:
 656:C:/Users/stapi/OneDrive/Desktop/GD32VW553/V1_MQTT_OK/GD32VW55X_Wifi_BLE_SDK/GD32VW55x_RELEASE_V1.0.2/MSDK/lwip/lwip-2.1.2/src/core\dns.c ****     n = pbuf_try_get_at(p, response_offset);
 897              		.loc 1 656 3 is_stmt 1
 657:C:/Users/stapi/OneDrive/Desktop/GD32VW553/V1_MQTT_OK/GD32VW55X_Wifi_BLE_SDK/GD32VW55x_RELEASE_V1.0.2/MSDK/lwip/lwip-2.1.2/src/core\dns.c ****     if ((n < 0) || (response_offset == 0xFFFF)) {
 898              		.loc 1 657 5
 657:C:/Users/stapi/OneDrive/Desktop/GD32VW553/V1_MQTT_OK/GD32VW55X_Wifi_BLE_SDK/GD32VW55x_RELEASE_V1.0.2/MSDK/lwip/lwip-2.1.2/src/core\dns.c ****     if ((n < 0) || (response_offset == 0xFFFF)) {
 899              		.loc 1 657 9 is_stmt 0
 900 00ca A285     		mv	a1,s0
 901 00cc 2685     		mv	a0,s1
 902 00ce 97000000 		call	pbuf_try_get_at
 902      E7800000 
 903              	.LVL86:
 658:C:/Users/stapi/OneDrive/Desktop/GD32VW553/V1_MQTT_OK/GD32VW55X_Wifi_BLE_SDK/GD32VW55x_RELEASE_V1.0.2/MSDK/lwip/lwip-2.1.2/src/core\dns.c ****       /* error or overflow */
 904              		.loc 1 658 5 is_stmt 1
 658:C:/Users/stapi/OneDrive/Desktop/GD32VW553/V1_MQTT_OK/GD32VW55X_Wifi_BLE_SDK/GD32VW55x_RELEASE_V1.0.2/MSDK/lwip/lwip-2.1.2/src/core\dns.c ****       /* error or overflow */
 905              		.loc 1 658 8 is_stmt 0
 906 00d6 63400526 		blt	a0,zero,.L67
 658:C:/Users/stapi/OneDrive/Desktop/GD32VW553/V1_MQTT_OK/GD32VW55X_Wifi_BLE_SDK/GD32VW55x_RELEASE_V1.0.2/MSDK/lwip/lwip-2.1.2/src/core\dns.c ****       /* error or overflow */
 907              		.loc 1 658 17
 908 00da 630E8425 		beq	s0,s8,.L67
 662:C:/Users/stapi/OneDrive/Desktop/GD32VW553/V1_MQTT_OK/GD32VW55X_Wifi_BLE_SDK/GD32VW55x_RELEASE_V1.0.2/MSDK/lwip/lwip-2.1.2/src/core\dns.c ****     /** @see RFC 1035 - 4.1.4. Message compression */
 909              		.loc 1 662 5 is_stmt 1
 662:C:/Users/stapi/OneDrive/Desktop/GD32VW553/V1_MQTT_OK/GD32VW55X_Wifi_BLE_SDK/GD32VW55x_RELEASE_V1.0.2/MSDK/lwip/lwip-2.1.2/src/core\dns.c ****     /** @see RFC 1035 - 4.1.4. Message compression */
 910              		.loc 1 662 20 is_stmt 0
 911 00de 0504     		addi	s0,s0,1
 912              	.LVL87:
 664:C:/Users/stapi/OneDrive/Desktop/GD32VW553/V1_MQTT_OK/GD32VW55X_Wifi_BLE_SDK/GD32VW55x_RELEASE_V1.0.2/MSDK/lwip/lwip-2.1.2/src/core\dns.c ****       /* Compressed name: cannot be equal since we don't send them */
 913              		.loc 1 664 12
 914 00e0 9377050C 		andi	a5,a0,192
 664:C:/Users/stapi/OneDrive/Desktop/GD32VW553/V1_MQTT_OK/GD32VW55X_Wifi_BLE_SDK/GD32VW55x_RELEASE_V1.0.2/MSDK/lwip/lwip-2.1.2/src/core\dns.c ****       /* Compressed name: cannot be equal since we don't send them */
 915              		.loc 1 664 8
 916 00e4 1307000C 		li	a4,192
 662:C:/Users/stapi/OneDrive/Desktop/GD32VW553/V1_MQTT_OK/GD32VW55X_Wifi_BLE_SDK/GD32VW55x_RELEASE_V1.0.2/MSDK/lwip/lwip-2.1.2/src/core\dns.c ****     /** @see RFC 1035 - 4.1.4. Message compression */
 917              		.loc 1 662 20
 918 00e8 33440408 		zext.h	s0,s0
 919              	.LVL88:
 664:C:/Users/stapi/OneDrive/Desktop/GD32VW553/V1_MQTT_OK/GD32VW55X_Wifi_BLE_SDK/GD32VW55x_RELEASE_V1.0.2/MSDK/lwip/lwip-2.1.2/src/core\dns.c ****       /* Compressed name: cannot be equal since we don't send them */
 920              		.loc 1 664 5 is_stmt 1
 664:C:/Users/stapi/OneDrive/Desktop/GD32VW553/V1_MQTT_OK/GD32VW55X_Wifi_BLE_SDK/GD32VW55x_RELEASE_V1.0.2/MSDK/lwip/lwip-2.1.2/src/core\dns.c ****       /* Compressed name: cannot be equal since we don't send them */
 921              		.loc 1 664 8 is_stmt 0
 922 00ec 6385E724 		beq	a5,a4,.L67
 923 00f0 B387AD00 		add	a5,s11,a0
 924              	.LVL89:
 925              	.L70:
 669:C:/Users/stapi/OneDrive/Desktop/GD32VW553/V1_MQTT_OK/GD32VW55X_Wifi_BLE_SDK/GD32VW55x_RELEASE_V1.0.2/MSDK/lwip/lwip-2.1.2/src/core\dns.c ****         int c = pbuf_try_get_at(p, response_offset);
 926              		.loc 1 669 13 is_stmt 1
 927 00f4 639EB719 		bne	a5,s11,.L73
 685:C:/Users/stapi/OneDrive/Desktop/GD32VW553/V1_MQTT_OK/GD32VW55X_Wifi_BLE_SDK/GD32VW55x_RELEASE_V1.0.2/MSDK/lwip/lwip-2.1.2/src/core\dns.c ****     }
 928              		.loc 1 685 7
 687:C:/Users/stapi/OneDrive/Desktop/GD32VW553/V1_MQTT_OK/GD32VW55X_Wifi_BLE_SDK/GD32VW55x_RELEASE_V1.0.2/MSDK/lwip/lwip-2.1.2/src/core\dns.c ****     if (n < 0) {
 929              		.loc 1 687 9 is_stmt 0
 930 00f8 A285     		mv	a1,s0
 931 00fa 2685     		mv	a0,s1
 685:C:/Users/stapi/OneDrive/Desktop/GD32VW553/V1_MQTT_OK/GD32VW55X_Wifi_BLE_SDK/GD32VW55x_RELEASE_V1.0.2/MSDK/lwip/lwip-2.1.2/src/core\dns.c ****     }
 932              		.loc 1 685 7
 933 00fc 938D1700 		addi	s11,a5,1
 934              	.LVL90:
 687:C:/Users/stapi/OneDrive/Desktop/GD32VW553/V1_MQTT_OK/GD32VW55X_Wifi_BLE_SDK/GD32VW55x_RELEASE_V1.0.2/MSDK/lwip/lwip-2.1.2/src/core\dns.c ****     if (n < 0) {
 935              		.loc 1 687 5 is_stmt 1
 687:C:/Users/stapi/OneDrive/Desktop/GD32VW553/V1_MQTT_OK/GD32VW55X_Wifi_BLE_SDK/GD32VW55x_RELEASE_V1.0.2/MSDK/lwip/lwip-2.1.2/src/core\dns.c ****     if (n < 0) {
 936              		.loc 1 687 9 is_stmt 0
 937 0100 97000000 		call	pbuf_try_get_at
 937      E7800000 
 938              	.LVL91:
 688:C:/Users/stapi/OneDrive/Desktop/GD32VW553/V1_MQTT_OK/GD32VW55X_Wifi_BLE_SDK/GD32VW55x_RELEASE_V1.0.2/MSDK/lwip/lwip-2.1.2/src/core\dns.c ****       return 0xFFFF;
 939              		.loc 1 688 5 is_stmt 1
 688:C:/Users/stapi/OneDrive/Desktop/GD32VW553/V1_MQTT_OK/GD32VW55X_Wifi_BLE_SDK/GD32VW55x_RELEASE_V1.0.2/MSDK/lwip/lwip-2.1.2/src/core\dns.c ****       return 0xFFFF;
 940              		.loc 1 688 8 is_stmt 0
 941 0108 63470522 		blt	a0,zero,.L67
 691:C:/Users/stapi/OneDrive/Desktop/GD32VW553/V1_MQTT_OK/GD32VW55X_Wifi_BLE_SDK/GD32VW55x_RELEASE_V1.0.2/MSDK/lwip/lwip-2.1.2/src/core\dns.c **** 
 942              		.loc 1 691 11 is_stmt 1
 691:C:/Users/stapi/OneDrive/Desktop/GD32VW553/V1_MQTT_OK/GD32VW55X_Wifi_BLE_SDK/GD32VW55x_RELEASE_V1.0.2/MSDK/lwip/lwip-2.1.2/src/core\dns.c **** 
 943              		.loc 1 691 3 is_stmt 0
 944 010c 5DFD     		bne	a0,zero,.L74
 693:C:/Users/stapi/OneDrive/Desktop/GD32VW553/V1_MQTT_OK/GD32VW55X_Wifi_BLE_SDK/GD32VW55x_RELEASE_V1.0.2/MSDK/lwip/lwip-2.1.2/src/core\dns.c ****     /* would overflow */
 945              		.loc 1 693 3 is_stmt 1
 693:C:/Users/stapi/OneDrive/Desktop/GD32VW553/V1_MQTT_OK/GD32VW55X_Wifi_BLE_SDK/GD32VW55x_RELEASE_V1.0.2/MSDK/lwip/lwip-2.1.2/src/core\dns.c ****     /* would overflow */
 946              		.loc 1 693 6 is_stmt 0
 947 010e C16C     		li	s9,65536
 948 0110 9387FCFF 		addi	a5,s9,-1
 949 0114 6301F422 		beq	s0,a5,.L67
 697:C:/Users/stapi/OneDrive/Desktop/GD32VW553/V1_MQTT_OK/GD32VW55X_Wifi_BLE_SDK/GD32VW55x_RELEASE_V1.0.2/MSDK/lwip/lwip-2.1.2/src/core\dns.c **** }
 950              		.loc 1 697 3 is_stmt 1
 697:C:/Users/stapi/OneDrive/Desktop/GD32VW553/V1_MQTT_OK/GD32VW55X_Wifi_BLE_SDK/GD32VW55x_RELEASE_V1.0.2/MSDK/lwip/lwip-2.1.2/src/core\dns.c **** }
 951              		.loc 1 697 10 is_stmt 0
 952 0118 130C1400 		addi	s8,s0,1
 953 011c 334C0C08 		zext.h	s8,s8
 954              	.LVL92:
 955              	.LBE45:
 956              	.LBE47:
1229:C:/Users/stapi/OneDrive/Desktop/GD32VW553/V1_MQTT_OK/GD32VW55X_Wifi_BLE_SDK/GD32VW55x_RELEASE_V1.0.2/MSDK/lwip/lwip-2.1.2/src/core\dns.c ****         if (res_idx == 0xFFFF) {
 957              		.loc 1 1229 9 is_stmt 1
 958              		.loc 1 1229 12 is_stmt 0
 959 0120 630BFC20 		beq	s8,a5,.L67
1230:C:/Users/stapi/OneDrive/Desktop/GD32VW553/V1_MQTT_OK/GD32VW55X_Wifi_BLE_SDK/GD32VW55x_RELEASE_V1.0.2/MSDK/lwip/lwip-2.1.2/src/core\dns.c ****           LWIP_DEBUGF(DNS_DEBUG, ("dns_recv: \"%s\": response not match to query\n", entry->name));
1231:C:/Users/stapi/OneDrive/Desktop/GD32VW553/V1_MQTT_OK/GD32VW55X_Wifi_BLE_SDK/GD32VW55x_RELEASE_V1.0.2/MSDK/lwip/lwip-2.1.2/src/core\dns.c ****           goto ignore_packet; /* ignore this packet */
1232:C:/Users/stapi/OneDrive/Desktop/GD32VW553/V1_MQTT_OK/GD32VW55X_Wifi_BLE_SDK/GD32VW55x_RELEASE_V1.0.2/MSDK/lwip/lwip-2.1.2/src/core\dns.c ****         }
1233:C:/Users/stapi/OneDrive/Desktop/GD32VW553/V1_MQTT_OK/GD32VW55X_Wifi_BLE_SDK/GD32VW55x_RELEASE_V1.0.2/MSDK/lwip/lwip-2.1.2/src/core\dns.c **** 
1234:C:/Users/stapi/OneDrive/Desktop/GD32VW553/V1_MQTT_OK/GD32VW55X_Wifi_BLE_SDK/GD32VW55x_RELEASE_V1.0.2/MSDK/lwip/lwip-2.1.2/src/core\dns.c ****         /* check if "question" part matches the request */
1235:C:/Users/stapi/OneDrive/Desktop/GD32VW553/V1_MQTT_OK/GD32VW55X_Wifi_BLE_SDK/GD32VW55x_RELEASE_V1.0.2/MSDK/lwip/lwip-2.1.2/src/core\dns.c ****         if (pbuf_copy_partial(p, &qry, SIZEOF_DNS_QUERY, res_idx) != SIZEOF_DNS_QUERY) {
 960              		.loc 1 1235 9 is_stmt 1
 961              		.loc 1 1235 13 is_stmt 0
 962 0124 E286     		mv	a3,s8
 963 0126 1146     		li	a2,4
 964 0128 0C08     		addi	a1,sp,16
 965 012a 2685     		mv	a0,s1
 966 012c 97000000 		call	pbuf_copy_partial
 966      E7800000 
 967              	.LVL93:
 968              		.loc 1 1235 12
 969 0134 9147     		li	a5,4
 970 0136 6310F520 		bne	a0,a5,.L67
1236:C:/Users/stapi/OneDrive/Desktop/GD32VW553/V1_MQTT_OK/GD32VW55X_Wifi_BLE_SDK/GD32VW55x_RELEASE_V1.0.2/MSDK/lwip/lwip-2.1.2/src/core\dns.c ****           goto ignore_packet; /* ignore this packet */
1237:C:/Users/stapi/OneDrive/Desktop/GD32VW553/V1_MQTT_OK/GD32VW55X_Wifi_BLE_SDK/GD32VW55x_RELEASE_V1.0.2/MSDK/lwip/lwip-2.1.2/src/core\dns.c ****         }
1238:C:/Users/stapi/OneDrive/Desktop/GD32VW553/V1_MQTT_OK/GD32VW55X_Wifi_BLE_SDK/GD32VW55x_RELEASE_V1.0.2/MSDK/lwip/lwip-2.1.2/src/core\dns.c ****         if ((qry.cls != PP_HTONS(DNS_RRCLASS_IN)) ||
 971              		.loc 1 1238 9 is_stmt 1
 972              		.loc 1 1238 12 is_stmt 0
 973 013a 83572101 		lhu	a5,18(sp)
 974 013e 13070010 		li	a4,256
 975 0142 639AE71E 		bne	a5,a4,.L67
1239:C:/Users/stapi/OneDrive/Desktop/GD32VW553/V1_MQTT_OK/GD32VW55X_Wifi_BLE_SDK/GD32VW55x_RELEASE_V1.0.2/MSDK/lwip/lwip-2.1.2/src/core\dns.c ****             (LWIP_DNS_ADDRTYPE_IS_IPV6(entry->reqaddrtype) && (qry.type != PP_HTONS(DNS_RRTYPE_AAAA
 976              		.loc 1 1239 104
 977 0146 03570101 		lhu	a4,16(sp)
 978 014a 6316F71E 		bne	a4,a5,.L67
1240:C:/Users/stapi/OneDrive/Desktop/GD32VW553/V1_MQTT_OK/GD32VW55X_Wifi_BLE_SDK/GD32VW55x_RELEASE_V1.0.2/MSDK/lwip/lwip-2.1.2/src/core\dns.c ****             (!LWIP_DNS_ADDRTYPE_IS_IPV6(entry->reqaddrtype) && (qry.type != PP_HTONS(DNS_RRTYPE_A))
1241:C:/Users/stapi/OneDrive/Desktop/GD32VW553/V1_MQTT_OK/GD32VW55X_Wifi_BLE_SDK/GD32VW55x_RELEASE_V1.0.2/MSDK/lwip/lwip-2.1.2/src/core\dns.c ****           LWIP_DEBUGF(DNS_DEBUG, ("dns_recv: \"%s\": response not match to query\n", entry->name));
1242:C:/Users/stapi/OneDrive/Desktop/GD32VW553/V1_MQTT_OK/GD32VW55X_Wifi_BLE_SDK/GD32VW55x_RELEASE_V1.0.2/MSDK/lwip/lwip-2.1.2/src/core\dns.c ****           goto ignore_packet; /* ignore this packet */
1243:C:/Users/stapi/OneDrive/Desktop/GD32VW553/V1_MQTT_OK/GD32VW55X_Wifi_BLE_SDK/GD32VW55x_RELEASE_V1.0.2/MSDK/lwip/lwip-2.1.2/src/core\dns.c ****         }
1244:C:/Users/stapi/OneDrive/Desktop/GD32VW553/V1_MQTT_OK/GD32VW55X_Wifi_BLE_SDK/GD32VW55x_RELEASE_V1.0.2/MSDK/lwip/lwip-2.1.2/src/core\dns.c ****         /* skip the rest of the "question" part */
1245:C:/Users/stapi/OneDrive/Desktop/GD32VW553/V1_MQTT_OK/GD32VW55X_Wifi_BLE_SDK/GD32VW55x_RELEASE_V1.0.2/MSDK/lwip/lwip-2.1.2/src/core\dns.c ****         if (res_idx + SIZEOF_DNS_QUERY > 0xFFFF) {
 979              		.loc 1 1245 9 is_stmt 1
 980              		.loc 1 1245 12 is_stmt 0
 981 014e ED1C     		addi	s9,s9,-5
 982 0150 63E38C1F 		bgtu	s8,s9,.L67
1246:C:/Users/stapi/OneDrive/Desktop/GD32VW553/V1_MQTT_OK/GD32VW55X_Wifi_BLE_SDK/GD32VW55x_RELEASE_V1.0.2/MSDK/lwip/lwip-2.1.2/src/core\dns.c ****           goto ignore_packet;
1247:C:/Users/stapi/OneDrive/Desktop/GD32VW553/V1_MQTT_OK/GD32VW55X_Wifi_BLE_SDK/GD32VW55x_RELEASE_V1.0.2/MSDK/lwip/lwip-2.1.2/src/core\dns.c ****         }
1248:C:/Users/stapi/OneDrive/Desktop/GD32VW553/V1_MQTT_OK/GD32VW55X_Wifi_BLE_SDK/GD32VW55x_RELEASE_V1.0.2/MSDK/lwip/lwip-2.1.2/src/core\dns.c ****         res_idx = (u16_t)(res_idx + SIZEOF_DNS_QUERY);
 983              		.loc 1 1248 9 is_stmt 1
 984              	.LVL94:
1249:C:/Users/stapi/OneDrive/Desktop/GD32VW553/V1_MQTT_OK/GD32VW55X_Wifi_BLE_SDK/GD32VW55x_RELEASE_V1.0.2/MSDK/lwip/lwip-2.1.2/src/core\dns.c **** 
1250:C:/Users/stapi/OneDrive/Desktop/GD32VW553/V1_MQTT_OK/GD32VW55X_Wifi_BLE_SDK/GD32VW55x_RELEASE_V1.0.2/MSDK/lwip/lwip-2.1.2/src/core\dns.c ****         /* Check for error. If so, call callback to inform. */
1251:C:/Users/stapi/OneDrive/Desktop/GD32VW553/V1_MQTT_OK/GD32VW55X_Wifi_BLE_SDK/GD32VW55x_RELEASE_V1.0.2/MSDK/lwip/lwip-2.1.2/src/core\dns.c ****         if (hdr.flags2 & DNS_FLAG2_ERR_MASK) {
 985              		.loc 1 1251 9
 986              		.loc 1 1251 12 is_stmt 0
 987 0154 8347B101 		lbu	a5,27(sp)
 988 0158 BD8B     		andi	a5,a5,15
 989 015a 63940718 		bne	a5,zero,.L75
 990              	.LBB48:
 991              	.LBB49:
 735:C:/Users/stapi/OneDrive/Desktop/GD32VW553/V1_MQTT_OK/GD32VW55X_Wifi_BLE_SDK/GD32VW55x_RELEASE_V1.0.2/MSDK/lwip/lwip-2.1.2/src/core\dns.c ****     return 0xFFFF;
 992              		.loc 1 735 6
 993 015e C16B     		li	s7,65536
 994              	.LBE49:
 995              	.LBE48:
1248:C:/Users/stapi/OneDrive/Desktop/GD32VW553/V1_MQTT_OK/GD32VW55X_Wifi_BLE_SDK/GD32VW55x_RELEASE_V1.0.2/MSDK/lwip/lwip-2.1.2/src/core\dns.c **** 
 996              		.loc 1 1248 17
 997 0160 1504     		addi	s0,s0,5
 998              	.LVL95:
 999              	.LBB53:
 1000              	.LBB50:
 719:C:/Users/stapi/OneDrive/Desktop/GD32VW553/V1_MQTT_OK/GD32VW55X_Wifi_BLE_SDK/GD32VW55x_RELEASE_V1.0.2/MSDK/lwip/lwip-2.1.2/src/core\dns.c ****       /* Compressed name: since we only want to skip it (not check it), stop here */
 1001              		.loc 1 719 8
 1002 0162 130D000C 		li	s10,192
 735:C:/Users/stapi/OneDrive/Desktop/GD32VW553/V1_MQTT_OK/GD32VW55X_Wifi_BLE_SDK/GD32VW55x_RELEASE_V1.0.2/MSDK/lwip/lwip-2.1.2/src/core\dns.c ****     return 0xFFFF;
 1003              		.loc 1 735 6
 1004 0166 138CFBFF 		addi	s8,s7,-1
 1005              	.LBE50:
 1006              	.LBE53:
1252:C:/Users/stapi/OneDrive/Desktop/GD32VW553/V1_MQTT_OK/GD32VW55X_Wifi_BLE_SDK/GD32VW55x_RELEASE_V1.0.2/MSDK/lwip/lwip-2.1.2/src/core\dns.c ****           LWIP_DEBUGF(DNS_DEBUG, ("dns_recv: \"%s\": error in flags\n", entry->name));
1253:C:/Users/stapi/OneDrive/Desktop/GD32VW553/V1_MQTT_OK/GD32VW55X_Wifi_BLE_SDK/GD32VW55x_RELEASE_V1.0.2/MSDK/lwip/lwip-2.1.2/src/core\dns.c **** 
1254:C:/Users/stapi/OneDrive/Desktop/GD32VW553/V1_MQTT_OK/GD32VW55X_Wifi_BLE_SDK/GD32VW55x_RELEASE_V1.0.2/MSDK/lwip/lwip-2.1.2/src/core\dns.c ****           /* if there is another backup DNS server to try
1255:C:/Users/stapi/OneDrive/Desktop/GD32VW553/V1_MQTT_OK/GD32VW55X_Wifi_BLE_SDK/GD32VW55x_RELEASE_V1.0.2/MSDK/lwip/lwip-2.1.2/src/core\dns.c ****            * then don't stop the DNS request
1256:C:/Users/stapi/OneDrive/Desktop/GD32VW553/V1_MQTT_OK/GD32VW55X_Wifi_BLE_SDK/GD32VW55x_RELEASE_V1.0.2/MSDK/lwip/lwip-2.1.2/src/core\dns.c ****            */
1257:C:/Users/stapi/OneDrive/Desktop/GD32VW553/V1_MQTT_OK/GD32VW55X_Wifi_BLE_SDK/GD32VW55x_RELEASE_V1.0.2/MSDK/lwip/lwip-2.1.2/src/core\dns.c ****           if (dns_backupserver_available(entry)) {
1258:C:/Users/stapi/OneDrive/Desktop/GD32VW553/V1_MQTT_OK/GD32VW55X_Wifi_BLE_SDK/GD32VW55x_RELEASE_V1.0.2/MSDK/lwip/lwip-2.1.2/src/core\dns.c ****             /* avoid retrying the same server */
1259:C:/Users/stapi/OneDrive/Desktop/GD32VW553/V1_MQTT_OK/GD32VW55X_Wifi_BLE_SDK/GD32VW55x_RELEASE_V1.0.2/MSDK/lwip/lwip-2.1.2/src/core\dns.c ****             entry->retries = DNS_MAX_RETRIES-1;
1260:C:/Users/stapi/OneDrive/Desktop/GD32VW553/V1_MQTT_OK/GD32VW55X_Wifi_BLE_SDK/GD32VW55x_RELEASE_V1.0.2/MSDK/lwip/lwip-2.1.2/src/core\dns.c ****             entry->tmr     = 1;
1261:C:/Users/stapi/OneDrive/Desktop/GD32VW553/V1_MQTT_OK/GD32VW55X_Wifi_BLE_SDK/GD32VW55x_RELEASE_V1.0.2/MSDK/lwip/lwip-2.1.2/src/core\dns.c **** 
1262:C:/Users/stapi/OneDrive/Desktop/GD32VW553/V1_MQTT_OK/GD32VW55X_Wifi_BLE_SDK/GD32VW55x_RELEASE_V1.0.2/MSDK/lwip/lwip-2.1.2/src/core\dns.c ****             /* contact next available server for this entry */
1263:C:/Users/stapi/OneDrive/Desktop/GD32VW553/V1_MQTT_OK/GD32VW55X_Wifi_BLE_SDK/GD32VW55x_RELEASE_V1.0.2/MSDK/lwip/lwip-2.1.2/src/core\dns.c ****             dns_check_entry(i);
1264:C:/Users/stapi/OneDrive/Desktop/GD32VW553/V1_MQTT_OK/GD32VW55X_Wifi_BLE_SDK/GD32VW55x_RELEASE_V1.0.2/MSDK/lwip/lwip-2.1.2/src/core\dns.c **** 
1265:C:/Users/stapi/OneDrive/Desktop/GD32VW553/V1_MQTT_OK/GD32VW55X_Wifi_BLE_SDK/GD32VW55x_RELEASE_V1.0.2/MSDK/lwip/lwip-2.1.2/src/core\dns.c ****             goto ignore_packet;
1266:C:/Users/stapi/OneDrive/Desktop/GD32VW553/V1_MQTT_OK/GD32VW55X_Wifi_BLE_SDK/GD32VW55x_RELEASE_V1.0.2/MSDK/lwip/lwip-2.1.2/src/core\dns.c ****           }
1267:C:/Users/stapi/OneDrive/Desktop/GD32VW553/V1_MQTT_OK/GD32VW55X_Wifi_BLE_SDK/GD32VW55x_RELEASE_V1.0.2/MSDK/lwip/lwip-2.1.2/src/core\dns.c ****         } else {
1268:C:/Users/stapi/OneDrive/Desktop/GD32VW553/V1_MQTT_OK/GD32VW55X_Wifi_BLE_SDK/GD32VW55x_RELEASE_V1.0.2/MSDK/lwip/lwip-2.1.2/src/core\dns.c ****           while ((nanswers > 0) && (res_idx < p->tot_len)) {
1269:C:/Users/stapi/OneDrive/Desktop/GD32VW553/V1_MQTT_OK/GD32VW55X_Wifi_BLE_SDK/GD32VW55x_RELEASE_V1.0.2/MSDK/lwip/lwip-2.1.2/src/core\dns.c ****             /* skip answer resource record's host name */
1270:C:/Users/stapi/OneDrive/Desktop/GD32VW553/V1_MQTT_OK/GD32VW55X_Wifi_BLE_SDK/GD32VW55x_RELEASE_V1.0.2/MSDK/lwip/lwip-2.1.2/src/core\dns.c ****             res_idx = dns_skip_name(p, res_idx);
1271:C:/Users/stapi/OneDrive/Desktop/GD32VW553/V1_MQTT_OK/GD32VW55X_Wifi_BLE_SDK/GD32VW55x_RELEASE_V1.0.2/MSDK/lwip/lwip-2.1.2/src/core\dns.c ****             if (res_idx == 0xFFFF) {
1272:C:/Users/stapi/OneDrive/Desktop/GD32VW553/V1_MQTT_OK/GD32VW55X_Wifi_BLE_SDK/GD32VW55x_RELEASE_V1.0.2/MSDK/lwip/lwip-2.1.2/src/core\dns.c ****               goto ignore_packet; /* ignore this packet */
1273:C:/Users/stapi/OneDrive/Desktop/GD32VW553/V1_MQTT_OK/GD32VW55X_Wifi_BLE_SDK/GD32VW55x_RELEASE_V1.0.2/MSDK/lwip/lwip-2.1.2/src/core\dns.c ****             }
1274:C:/Users/stapi/OneDrive/Desktop/GD32VW553/V1_MQTT_OK/GD32VW55X_Wifi_BLE_SDK/GD32VW55x_RELEASE_V1.0.2/MSDK/lwip/lwip-2.1.2/src/core\dns.c **** 
1275:C:/Users/stapi/OneDrive/Desktop/GD32VW553/V1_MQTT_OK/GD32VW55X_Wifi_BLE_SDK/GD32VW55x_RELEASE_V1.0.2/MSDK/lwip/lwip-2.1.2/src/core\dns.c ****             /* Check for IP address type and Internet class. Others are discarded. */
1276:C:/Users/stapi/OneDrive/Desktop/GD32VW553/V1_MQTT_OK/GD32VW55X_Wifi_BLE_SDK/GD32VW55x_RELEASE_V1.0.2/MSDK/lwip/lwip-2.1.2/src/core\dns.c ****             if (pbuf_copy_partial(p, &ans, SIZEOF_DNS_ANSWER, res_idx) != SIZEOF_DNS_ANSWER) {
1277:C:/Users/stapi/OneDrive/Desktop/GD32VW553/V1_MQTT_OK/GD32VW55X_Wifi_BLE_SDK/GD32VW55x_RELEASE_V1.0.2/MSDK/lwip/lwip-2.1.2/src/core\dns.c ****               goto ignore_packet; /* ignore this packet */
1278:C:/Users/stapi/OneDrive/Desktop/GD32VW553/V1_MQTT_OK/GD32VW55X_Wifi_BLE_SDK/GD32VW55x_RELEASE_V1.0.2/MSDK/lwip/lwip-2.1.2/src/core\dns.c ****             }
1279:C:/Users/stapi/OneDrive/Desktop/GD32VW553/V1_MQTT_OK/GD32VW55X_Wifi_BLE_SDK/GD32VW55x_RELEASE_V1.0.2/MSDK/lwip/lwip-2.1.2/src/core\dns.c ****             if (res_idx + SIZEOF_DNS_ANSWER > 0xFFFF) {
 1007              		.loc 1 1279 16
 1008 016a 938D5BFF 		addi	s11,s7,-11
1280:C:/Users/stapi/OneDrive/Desktop/GD32VW553/V1_MQTT_OK/GD32VW55X_Wifi_BLE_SDK/GD32VW55x_RELEASE_V1.0.2/MSDK/lwip/lwip-2.1.2/src/core\dns.c ****               goto ignore_packet;
1281:C:/Users/stapi/OneDrive/Desktop/GD32VW553/V1_MQTT_OK/GD32VW55X_Wifi_BLE_SDK/GD32VW55x_RELEASE_V1.0.2/MSDK/lwip/lwip-2.1.2/src/core\dns.c ****             }
1282:C:/Users/stapi/OneDrive/Desktop/GD32VW553/V1_MQTT_OK/GD32VW55X_Wifi_BLE_SDK/GD32VW55x_RELEASE_V1.0.2/MSDK/lwip/lwip-2.1.2/src/core\dns.c ****             res_idx = (u16_t)(res_idx + SIZEOF_DNS_ANSWER);
1283:C:/Users/stapi/OneDrive/Desktop/GD32VW553/V1_MQTT_OK/GD32VW55X_Wifi_BLE_SDK/GD32VW55x_RELEASE_V1.0.2/MSDK/lwip/lwip-2.1.2/src/core\dns.c **** 
1284:C:/Users/stapi/OneDrive/Desktop/GD32VW553/V1_MQTT_OK/GD32VW55X_Wifi_BLE_SDK/GD32VW55x_RELEASE_V1.0.2/MSDK/lwip/lwip-2.1.2/src/core\dns.c ****             if (ans.cls == PP_HTONS(DNS_RRCLASS_IN)) {
 1009              		.loc 1 1284 16
 1010 016e 930C0010 		li	s9,256
1248:C:/Users/stapi/OneDrive/Desktop/GD32VW553/V1_MQTT_OK/GD32VW55X_Wifi_BLE_SDK/GD32VW55x_RELEASE_V1.0.2/MSDK/lwip/lwip-2.1.2/src/core\dns.c **** 
 1011              		.loc 1 1248 17
 1012 0172 33440408 		zext.h	s0,s0
 1013              	.L76:
 1014              	.LVL96:
1268:C:/Users/stapi/OneDrive/Desktop/GD32VW553/V1_MQTT_OK/GD32VW55X_Wifi_BLE_SDK/GD32VW55x_RELEASE_V1.0.2/MSDK/lwip/lwip-2.1.2/src/core\dns.c ****             /* skip answer resource record's host name */
 1015              		.loc 1 1268 17 is_stmt 1
 1016 0176 630E0A16 		beq	s4,zero,.L79
1268:C:/Users/stapi/OneDrive/Desktop/GD32VW553/V1_MQTT_OK/GD32VW55X_Wifi_BLE_SDK/GD32VW55x_RELEASE_V1.0.2/MSDK/lwip/lwip-2.1.2/src/core\dns.c ****             /* skip answer resource record's host name */
 1017              		.loc 1 1268 33 is_stmt 0 discriminator 1
 1018 017a 03D78400 		lhu	a4,8(s1)
 1019 017e 637AE416 		bleu	a4,s0,.L79
 1020              	.LVL97:
 1021              	.L81:
 1022              	.LBB54:
 1023              	.LBB51:
 713:C:/Users/stapi/OneDrive/Desktop/GD32VW553/V1_MQTT_OK/GD32VW55X_Wifi_BLE_SDK/GD32VW55x_RELEASE_V1.0.2/MSDK/lwip/lwip-2.1.2/src/core\dns.c ****     n = pbuf_try_get_at(p, offset++);
 1024              		.loc 1 713 3 is_stmt 1
 714:C:/Users/stapi/OneDrive/Desktop/GD32VW553/V1_MQTT_OK/GD32VW55X_Wifi_BLE_SDK/GD32VW55x_RELEASE_V1.0.2/MSDK/lwip/lwip-2.1.2/src/core\dns.c ****     if ((n < 0) || (offset == 0)) {
 1025              		.loc 1 714 5
 714:C:/Users/stapi/OneDrive/Desktop/GD32VW553/V1_MQTT_OK/GD32VW55X_Wifi_BLE_SDK/GD32VW55x_RELEASE_V1.0.2/MSDK/lwip/lwip-2.1.2/src/core\dns.c ****     if ((n < 0) || (offset == 0)) {
 1026              		.loc 1 714 9 is_stmt 0
 1027 0182 13051400 		addi	a0,s0,1
 1028 0186 B3460508 		zext.h	a3,a0
 1029 018a A285     		mv	a1,s0
 1030 018c 2685     		mv	a0,s1
 1031 018e 36C6     		sw	a3,12(sp)
 1032              	.LVL98:
 1033 0190 97000000 		call	pbuf_try_get_at
 1033      E7800000 
 1034              	.LVL99:
 715:C:/Users/stapi/OneDrive/Desktop/GD32VW553/V1_MQTT_OK/GD32VW55X_Wifi_BLE_SDK/GD32VW55x_RELEASE_V1.0.2/MSDK/lwip/lwip-2.1.2/src/core\dns.c ****       return 0xFFFF;
 1035              		.loc 1 715 5 is_stmt 1
 715:C:/Users/stapi/OneDrive/Desktop/GD32VW553/V1_MQTT_OK/GD32VW55X_Wifi_BLE_SDK/GD32VW55x_RELEASE_V1.0.2/MSDK/lwip/lwip-2.1.2/src/core\dns.c ****       return 0xFFFF;
 1036              		.loc 1 715 8 is_stmt 0
 1037 0198 634F0518 		blt	a0,zero,.L67
 715:C:/Users/stapi/OneDrive/Desktop/GD32VW553/V1_MQTT_OK/GD32VW55X_Wifi_BLE_SDK/GD32VW55x_RELEASE_V1.0.2/MSDK/lwip/lwip-2.1.2/src/core\dns.c ****       return 0xFFFF;
 1038              		.loc 1 715 17
 1039 019c B246     		lw	a3,12(sp)
 1040 019e 638C0618 		beq	a3,zero,.L67
 719:C:/Users/stapi/OneDrive/Desktop/GD32VW553/V1_MQTT_OK/GD32VW55X_Wifi_BLE_SDK/GD32VW55x_RELEASE_V1.0.2/MSDK/lwip/lwip-2.1.2/src/core\dns.c ****       /* Compressed name: since we only want to skip it (not check it), stop here */
 1041              		.loc 1 719 5 is_stmt 1
 719:C:/Users/stapi/OneDrive/Desktop/GD32VW553/V1_MQTT_OK/GD32VW55X_Wifi_BLE_SDK/GD32VW55x_RELEASE_V1.0.2/MSDK/lwip/lwip-2.1.2/src/core\dns.c ****       /* Compressed name: since we only want to skip it (not check it), stop here */
 1042              		.loc 1 719 12 is_stmt 0
 1043 01a2 9377050C 		andi	a5,a0,192
 719:C:/Users/stapi/OneDrive/Desktop/GD32VW553/V1_MQTT_OK/GD32VW55X_Wifi_BLE_SDK/GD32VW55x_RELEASE_V1.0.2/MSDK/lwip/lwip-2.1.2/src/core\dns.c ****       /* Compressed name: since we only want to skip it (not check it), stop here */
 1044              		.loc 1 719 8
 1045 01a6 638EA719 		beq	a5,s10,.L88
 724:C:/Users/stapi/OneDrive/Desktop/GD32VW553/V1_MQTT_OK/GD32VW55X_Wifi_BLE_SDK/GD32VW55x_RELEASE_V1.0.2/MSDK/lwip/lwip-2.1.2/src/core\dns.c ****         return 0xFFFF;
 1046              		.loc 1 724 7 is_stmt 1
 724:C:/Users/stapi/OneDrive/Desktop/GD32VW553/V1_MQTT_OK/GD32VW55X_Wifi_BLE_SDK/GD32VW55x_RELEASE_V1.0.2/MSDK/lwip/lwip-2.1.2/src/core\dns.c ****         return 0xFFFF;
 1047              		.loc 1 724 26 is_stmt 0
 1048 01aa 83D78400 		lhu	a5,8(s1)
 724:C:/Users/stapi/OneDrive/Desktop/GD32VW553/V1_MQTT_OK/GD32VW55X_Wifi_BLE_SDK/GD32VW55x_RELEASE_V1.0.2/MSDK/lwip/lwip-2.1.2/src/core\dns.c ****         return 0xFFFF;
 1049              		.loc 1 724 18
 1050 01ae 3695     		add	a0,a3,a0
 1051              	.LVL100:
 724:C:/Users/stapi/OneDrive/Desktop/GD32VW553/V1_MQTT_OK/GD32VW55X_Wifi_BLE_SDK/GD32VW55x_RELEASE_V1.0.2/MSDK/lwip/lwip-2.1.2/src/core\dns.c ****         return 0xFFFF;
 1052              		.loc 1 724 10
 1053 01b0 6353F518 		bge	a0,a5,.L67
 727:C:/Users/stapi/OneDrive/Desktop/GD32VW553/V1_MQTT_OK/GD32VW55X_Wifi_BLE_SDK/GD32VW55x_RELEASE_V1.0.2/MSDK/lwip/lwip-2.1.2/src/core\dns.c ****     }
 1054              		.loc 1 727 7 is_stmt 1
 727:C:/Users/stapi/OneDrive/Desktop/GD32VW553/V1_MQTT_OK/GD32VW55X_Wifi_BLE_SDK/GD32VW55x_RELEASE_V1.0.2/MSDK/lwip/lwip-2.1.2/src/core\dns.c ****     }
 1055              		.loc 1 727 14 is_stmt 0
 1056 01b4 33440508 		zext.h	s0,a0
 1057              	.LVL101:
 729:C:/Users/stapi/OneDrive/Desktop/GD32VW553/V1_MQTT_OK/GD32VW55X_Wifi_BLE_SDK/GD32VW55x_RELEASE_V1.0.2/MSDK/lwip/lwip-2.1.2/src/core\dns.c ****     if (n < 0) {
 1058              		.loc 1 729 5 is_stmt 1
 729:C:/Users/stapi/OneDrive/Desktop/GD32VW553/V1_MQTT_OK/GD32VW55X_Wifi_BLE_SDK/GD32VW55x_RELEASE_V1.0.2/MSDK/lwip/lwip-2.1.2/src/core\dns.c ****     if (n < 0) {
 1059              		.loc 1 729 9 is_stmt 0
 1060 01b8 2685     		mv	a0,s1
 1061 01ba A285     		mv	a1,s0
 1062 01bc 97000000 		call	pbuf_try_get_at
 1062      E7800000 
 1063              	.LVL102:
 730:C:/Users/stapi/OneDrive/Desktop/GD32VW553/V1_MQTT_OK/GD32VW55X_Wifi_BLE_SDK/GD32VW55x_RELEASE_V1.0.2/MSDK/lwip/lwip-2.1.2/src/core\dns.c ****       return 0xFFFF;
 1064              		.loc 1 730 5 is_stmt 1
 730:C:/Users/stapi/OneDrive/Desktop/GD32VW553/V1_MQTT_OK/GD32VW55X_Wifi_BLE_SDK/GD32VW55x_RELEASE_V1.0.2/MSDK/lwip/lwip-2.1.2/src/core\dns.c ****       return 0xFFFF;
 1065              		.loc 1 730 8 is_stmt 0
 1066 01c4 63490516 		blt	a0,zero,.L67
 733:C:/Users/stapi/OneDrive/Desktop/GD32VW553/V1_MQTT_OK/GD32VW55X_Wifi_BLE_SDK/GD32VW55x_RELEASE_V1.0.2/MSDK/lwip/lwip-2.1.2/src/core\dns.c **** 
 1067              		.loc 1 733 11 is_stmt 1
 733:C:/Users/stapi/OneDrive/Desktop/GD32VW553/V1_MQTT_OK/GD32VW55X_Wifi_BLE_SDK/GD32VW55x_RELEASE_V1.0.2/MSDK/lwip/lwip-2.1.2/src/core\dns.c **** 
 1068              		.loc 1 733 3 is_stmt 0
 1069 01c8 4DFD     		bne	a0,zero,.L81
 1070              	.LVL103:
 1071              	.L80:
 735:C:/Users/stapi/OneDrive/Desktop/GD32VW553/V1_MQTT_OK/GD32VW55X_Wifi_BLE_SDK/GD32VW55x_RELEASE_V1.0.2/MSDK/lwip/lwip-2.1.2/src/core\dns.c ****     return 0xFFFF;
 1072              		.loc 1 735 3 is_stmt 1
 735:C:/Users/stapi/OneDrive/Desktop/GD32VW553/V1_MQTT_OK/GD32VW55X_Wifi_BLE_SDK/GD32VW55x_RELEASE_V1.0.2/MSDK/lwip/lwip-2.1.2/src/core\dns.c ****     return 0xFFFF;
 1073              		.loc 1 735 6 is_stmt 0
 1074 01ca 63068417 		beq	s0,s8,.L67
 738:C:/Users/stapi/OneDrive/Desktop/GD32VW553/V1_MQTT_OK/GD32VW55X_Wifi_BLE_SDK/GD32VW55x_RELEASE_V1.0.2/MSDK/lwip/lwip-2.1.2/src/core\dns.c **** }
 1075              		.loc 1 738 3 is_stmt 1
 738:C:/Users/stapi/OneDrive/Desktop/GD32VW553/V1_MQTT_OK/GD32VW55X_Wifi_BLE_SDK/GD32VW55x_RELEASE_V1.0.2/MSDK/lwip/lwip-2.1.2/src/core\dns.c **** }
 1076              		.loc 1 738 10 is_stmt 0
 1077 01ce 93061400 		addi	a3,s0,1
 1078 01d2 B3C60608 		zext.h	a3,a3
 1079              	.LVL104:
 1080              	.LBE51:
 1081              	.LBE54:
1271:C:/Users/stapi/OneDrive/Desktop/GD32VW553/V1_MQTT_OK/GD32VW55X_Wifi_BLE_SDK/GD32VW55x_RELEASE_V1.0.2/MSDK/lwip/lwip-2.1.2/src/core\dns.c ****               goto ignore_packet; /* ignore this packet */
 1082              		.loc 1 1271 13 is_stmt 1
1271:C:/Users/stapi/OneDrive/Desktop/GD32VW553/V1_MQTT_OK/GD32VW55X_Wifi_BLE_SDK/GD32VW55x_RELEASE_V1.0.2/MSDK/lwip/lwip-2.1.2/src/core\dns.c ****               goto ignore_packet; /* ignore this packet */
 1083              		.loc 1 1271 16 is_stmt 0
 1084 01d6 63808617 		beq	a3,s8,.L67
1276:C:/Users/stapi/OneDrive/Desktop/GD32VW553/V1_MQTT_OK/GD32VW55X_Wifi_BLE_SDK/GD32VW55x_RELEASE_V1.0.2/MSDK/lwip/lwip-2.1.2/src/core\dns.c ****               goto ignore_packet; /* ignore this packet */
 1085              		.loc 1 1276 13 is_stmt 1
1276:C:/Users/stapi/OneDrive/Desktop/GD32VW553/V1_MQTT_OK/GD32VW55X_Wifi_BLE_SDK/GD32VW55x_RELEASE_V1.0.2/MSDK/lwip/lwip-2.1.2/src/core\dns.c ****               goto ignore_packet; /* ignore this packet */
 1086              		.loc 1 1276 17 is_stmt 0
 1087 01da 2946     		li	a2,10
 1088 01dc 4C10     		addi	a1,sp,36
 1089 01de 2685     		mv	a0,s1
 1090 01e0 36C6     		sw	a3,12(sp)
 1091 01e2 97000000 		call	pbuf_copy_partial
 1091      E7800000 
 1092              	.LVL105:
1276:C:/Users/stapi/OneDrive/Desktop/GD32VW553/V1_MQTT_OK/GD32VW55X_Wifi_BLE_SDK/GD32VW55x_RELEASE_V1.0.2/MSDK/lwip/lwip-2.1.2/src/core\dns.c ****               goto ignore_packet; /* ignore this packet */
 1093              		.loc 1 1276 16
 1094 01ea 2947     		li	a4,10
 1095 01ec 6315E514 		bne	a0,a4,.L67
1279:C:/Users/stapi/OneDrive/Desktop/GD32VW553/V1_MQTT_OK/GD32VW55X_Wifi_BLE_SDK/GD32VW55x_RELEASE_V1.0.2/MSDK/lwip/lwip-2.1.2/src/core\dns.c ****               goto ignore_packet;
 1096              		.loc 1 1279 13 is_stmt 1
1279:C:/Users/stapi/OneDrive/Desktop/GD32VW553/V1_MQTT_OK/GD32VW55X_Wifi_BLE_SDK/GD32VW55x_RELEASE_V1.0.2/MSDK/lwip/lwip-2.1.2/src/core\dns.c ****               goto ignore_packet;
 1097              		.loc 1 1279 16 is_stmt 0
 1098 01f0 B246     		lw	a3,12(sp)
 1099 01f2 63E2DD14 		bgtu	a3,s11,.L67
1282:C:/Users/stapi/OneDrive/Desktop/GD32VW553/V1_MQTT_OK/GD32VW55X_Wifi_BLE_SDK/GD32VW55x_RELEASE_V1.0.2/MSDK/lwip/lwip-2.1.2/src/core\dns.c **** 
 1100              		.loc 1 1282 13 is_stmt 1
1282:C:/Users/stapi/OneDrive/Desktop/GD32VW553/V1_MQTT_OK/GD32VW55X_Wifi_BLE_SDK/GD32VW55x_RELEASE_V1.0.2/MSDK/lwip/lwip-2.1.2/src/core\dns.c **** 
 1101              		.loc 1 1282 21 is_stmt 0
 1102 01f6 9307B400 		addi	a5,s0,11
 1103 01fa 33C40708 		zext.h	s0,a5
 1104              	.LVL106:
 1105              		.loc 1 1284 13 is_stmt 1
 1106              		.loc 1 1284 16 is_stmt 0
 1107 01fe 83576102 		lhu	a5,38(sp)
1285:C:/Users/stapi/OneDrive/Desktop/GD32VW553/V1_MQTT_OK/GD32VW55X_Wifi_BLE_SDK/GD32VW55x_RELEASE_V1.0.2/MSDK/lwip/lwip-2.1.2/src/core\dns.c **** #if LWIP_IPV4
1286:C:/Users/stapi/OneDrive/Desktop/GD32VW553/V1_MQTT_OK/GD32VW55X_Wifi_BLE_SDK/GD32VW55x_RELEASE_V1.0.2/MSDK/lwip/lwip-2.1.2/src/core\dns.c ****               if ((ans.type == PP_HTONS(DNS_RRTYPE_A)) && (ans.len == PP_HTONS(sizeof(ip4_addr_t)))
 1108              		.loc 1 1286 63
 1109 0202 0355C102 		lhu	a0,44(sp)
1284:C:/Users/stapi/OneDrive/Desktop/GD32VW553/V1_MQTT_OK/GD32VW55X_Wifi_BLE_SDK/GD32VW55x_RELEASE_V1.0.2/MSDK/lwip/lwip-2.1.2/src/core\dns.c **** #if LWIP_IPV4
 1110              		.loc 1 1284 16
 1111 0206 63909715 		bne	a5,s9,.L82
 1112              		.loc 1 1286 15 is_stmt 1
 1113              		.loc 1 1286 18 is_stmt 0
 1114 020a 83574102 		lhu	a5,36(sp)
 1115 020e 639C9713 		bne	a5,s9,.L82
 1116              		.loc 1 1286 56 discriminator 1
 1117 0212 93070040 		li	a5,1024
 1118 0216 6318F512 		bne	a0,a5,.L82
 1119              	.LBB55:
1287:C:/Users/stapi/OneDrive/Desktop/GD32VW553/V1_MQTT_OK/GD32VW55X_Wifi_BLE_SDK/GD32VW55x_RELEASE_V1.0.2/MSDK/lwip/lwip-2.1.2/src/core\dns.c **** #if LWIP_IPV4 && LWIP_IPV6
1288:C:/Users/stapi/OneDrive/Desktop/GD32VW553/V1_MQTT_OK/GD32VW55X_Wifi_BLE_SDK/GD32VW55x_RELEASE_V1.0.2/MSDK/lwip/lwip-2.1.2/src/core\dns.c ****                 if (!LWIP_DNS_ADDRTYPE_IS_IPV6(entry->reqaddrtype))
1289:C:/Users/stapi/OneDrive/Desktop/GD32VW553/V1_MQTT_OK/GD32VW55X_Wifi_BLE_SDK/GD32VW55x_RELEASE_V1.0.2/MSDK/lwip/lwip-2.1.2/src/core\dns.c **** #endif /* LWIP_IPV4 && LWIP_IPV6 */
1290:C:/Users/stapi/OneDrive/Desktop/GD32VW553/V1_MQTT_OK/GD32VW55X_Wifi_BLE_SDK/GD32VW55x_RELEASE_V1.0.2/MSDK/lwip/lwip-2.1.2/src/core\dns.c ****                 {
1291:C:/Users/stapi/OneDrive/Desktop/GD32VW553/V1_MQTT_OK/GD32VW55X_Wifi_BLE_SDK/GD32VW55x_RELEASE_V1.0.2/MSDK/lwip/lwip-2.1.2/src/core\dns.c ****                   ip4_addr_t ip4addr;
 1120              		.loc 1 1291 19 is_stmt 1
1292:C:/Users/stapi/OneDrive/Desktop/GD32VW553/V1_MQTT_OK/GD32VW55X_Wifi_BLE_SDK/GD32VW55x_RELEASE_V1.0.2/MSDK/lwip/lwip-2.1.2/src/core\dns.c ****                   /* read the IP address after answer resource record's header */
1293:C:/Users/stapi/OneDrive/Desktop/GD32VW553/V1_MQTT_OK/GD32VW55X_Wifi_BLE_SDK/GD32VW55x_RELEASE_V1.0.2/MSDK/lwip/lwip-2.1.2/src/core\dns.c ****                   if (pbuf_copy_partial(p, &ip4addr, sizeof(ip4_addr_t), res_idx) != sizeof(ip4_add
 1121              		.loc 1 1293 19
 1122              		.loc 1 1293 23 is_stmt 0
 1123 021a A286     		mv	a3,s0
 1124 021c 1146     		li	a2,4
 1125 021e 4C08     		addi	a1,sp,20
 1126 0220 2685     		mv	a0,s1
 1127 0222 97000000 		call	pbuf_copy_partial
 1127      E7800000 
 1128              	.LVL107:
 1129              		.loc 1 1293 22
 1130 022a 9147     		li	a5,4
 1131 022c 6315F510 		bne	a0,a5,.L67
1294:C:/Users/stapi/OneDrive/Desktop/GD32VW553/V1_MQTT_OK/GD32VW55X_Wifi_BLE_SDK/GD32VW55x_RELEASE_V1.0.2/MSDK/lwip/lwip-2.1.2/src/core\dns.c ****                     goto ignore_packet; /* ignore this packet */
1295:C:/Users/stapi/OneDrive/Desktop/GD32VW553/V1_MQTT_OK/GD32VW55X_Wifi_BLE_SDK/GD32VW55x_RELEASE_V1.0.2/MSDK/lwip/lwip-2.1.2/src/core\dns.c ****                   }
1296:C:/Users/stapi/OneDrive/Desktop/GD32VW553/V1_MQTT_OK/GD32VW55X_Wifi_BLE_SDK/GD32VW55x_RELEASE_V1.0.2/MSDK/lwip/lwip-2.1.2/src/core\dns.c ****                   ip_addr_copy_from_ip4(dns_table[i].ipaddr, ip4addr);
 1132              		.loc 1 1296 19 is_stmt 1
 1133 0230 37090000 		lui	s2,%hi(.LANCHOR0)
 1134 0234 13090900 		addi	s2,s2,%lo(.LANCHOR0)
 1135 0238 93070011 		li	a5,272
 1136 023c 4A84     		mv	s0,s2
 1137              	.LVL108:
 1138 023e 7F94F9C4 		maddr32	s0, s3, a5
 1139 0242 D247     		lw	a5,20(sp)
1297:C:/Users/stapi/OneDrive/Desktop/GD32VW553/V1_MQTT_OK/GD32VW55X_Wifi_BLE_SDK/GD32VW55x_RELEASE_V1.0.2/MSDK/lwip/lwip-2.1.2/src/core\dns.c ****                   pbuf_free(p);
 1140              		.loc 1 1297 19 is_stmt 0
 1141 0244 2685     		mv	a0,s1
 1142              	.LBB56:
 1143              	.LBB57:
1141:C:/Users/stapi/OneDrive/Desktop/GD32VW553/V1_MQTT_OK/GD32VW55X_Wifi_BLE_SDK/GD32VW55x_RELEASE_V1.0.2/MSDK/lwip/lwip-2.1.2/src/core\dns.c **** 
 1144              		.loc 1 1141 16
 1145 0246 8D44     		li	s1,3
 1146              	.LVL109:
 1147              	.LBE57:
 1148              	.LBE56:
1296:C:/Users/stapi/OneDrive/Desktop/GD32VW553/V1_MQTT_OK/GD32VW55X_Wifi_BLE_SDK/GD32VW55x_RELEASE_V1.0.2/MSDK/lwip/lwip-2.1.2/src/core\dns.c ****                   pbuf_free(p);
 1149              		.loc 1 1296 19
 1150 0248 5CC0     		sw	a5,4(s0)
 1151              		.loc 1 1297 19 is_stmt 1
 1152 024a 97000000 		call	pbuf_free
 1152      E7800000 
 1153              	.LVL110:
1298:C:/Users/stapi/OneDrive/Desktop/GD32VW553/V1_MQTT_OK/GD32VW55X_Wifi_BLE_SDK/GD32VW55x_RELEASE_V1.0.2/MSDK/lwip/lwip-2.1.2/src/core\dns.c ****                   /* handle correct response */
1299:C:/Users/stapi/OneDrive/Desktop/GD32VW553/V1_MQTT_OK/GD32VW55X_Wifi_BLE_SDK/GD32VW55x_RELEASE_V1.0.2/MSDK/lwip/lwip-2.1.2/src/core\dns.c ****                   dns_correct_response(i, lwip_ntohl(ans.ttl));
 1154              		.loc 1 1299 19
 1155 0252 2255     		lw	a0,40(sp)
 1156 0254 97000000 		call	lwip_htonl
 1156      E7800000 
 1157              	.LVL111:
 1158              	.LBB59:
 1159              	.LBB58:
1139:C:/Users/stapi/OneDrive/Desktop/GD32VW553/V1_MQTT_OK/GD32VW55X_Wifi_BLE_SDK/GD32VW55x_RELEASE_V1.0.2/MSDK/lwip/lwip-2.1.2/src/core\dns.c **** 
 1160              		.loc 1 1139 3
1141:C:/Users/stapi/OneDrive/Desktop/GD32VW553/V1_MQTT_OK/GD32VW55X_Wifi_BLE_SDK/GD32VW55x_RELEASE_V1.0.2/MSDK/lwip/lwip-2.1.2/src/core\dns.c **** 
 1161              		.loc 1 1141 3
1149:C:/Users/stapi/OneDrive/Desktop/GD32VW553/V1_MQTT_OK/GD32VW55X_Wifi_BLE_SDK/GD32VW55x_RELEASE_V1.0.2/MSDK/lwip/lwip-2.1.2/src/core\dns.c ****     entry->ttl = DNS_MAX_TTL;
 1162              		.loc 1 1149 6 is_stmt 0
 1163 025c B7470900 		li	a5,606208
 1164 0260 938707A8 		addi	a5,a5,-1408
1148:C:/Users/stapi/OneDrive/Desktop/GD32VW553/V1_MQTT_OK/GD32VW55X_Wifi_BLE_SDK/GD32VW55x_RELEASE_V1.0.2/MSDK/lwip/lwip-2.1.2/src/core\dns.c ****   if (entry->ttl > DNS_MAX_TTL) {
 1165              		.loc 1 1148 14
 1166 0264 3355F50A 		minu	a0,a0,a5
 1167              	.LVL112:
1152:C:/Users/stapi/OneDrive/Desktop/GD32VW553/V1_MQTT_OK/GD32VW55X_Wifi_BLE_SDK/GD32VW55x_RELEASE_V1.0.2/MSDK/lwip/lwip-2.1.2/src/core\dns.c **** 
 1168              		.loc 1 1152 3
 1169 0268 93854A00 		addi	a1,s5,4
1148:C:/Users/stapi/OneDrive/Desktop/GD32VW553/V1_MQTT_OK/GD32VW55X_Wifi_BLE_SDK/GD32VW55x_RELEASE_V1.0.2/MSDK/lwip/lwip-2.1.2/src/core\dns.c ****   if (entry->ttl > DNS_MAX_TTL) {
 1170              		.loc 1 1148 14
 1171 026c 08C0     		sw	a0,0(s0)
1141:C:/Users/stapi/OneDrive/Desktop/GD32VW553/V1_MQTT_OK/GD32VW55X_Wifi_BLE_SDK/GD32VW55x_RELEASE_V1.0.2/MSDK/lwip/lwip-2.1.2/src/core\dns.c **** 
 1172              		.loc 1 1141 16
 1173 026e 23059400 		sb	s1,10(s0)
1143:C:/Users/stapi/OneDrive/Desktop/GD32VW553/V1_MQTT_OK/GD32VW55X_Wifi_BLE_SDK/GD32VW55x_RELEASE_V1.0.2/MSDK/lwip/lwip-2.1.2/src/core\dns.c ****   ip_addr_debug_print_val(DNS_DEBUG, entry->ipaddr);
 1174              		.loc 1 1143 73 is_stmt 1
1144:C:/Users/stapi/OneDrive/Desktop/GD32VW553/V1_MQTT_OK/GD32VW55X_Wifi_BLE_SDK/GD32VW55x_RELEASE_V1.0.2/MSDK/lwip/lwip-2.1.2/src/core\dns.c ****   LWIP_DEBUGF(DNS_DEBUG, ("\n"));
 1175              		.loc 1 1144 52
1145:C:/Users/stapi/OneDrive/Desktop/GD32VW553/V1_MQTT_OK/GD32VW55X_Wifi_BLE_SDK/GD32VW55x_RELEASE_V1.0.2/MSDK/lwip/lwip-2.1.2/src/core\dns.c **** 
 1176              		.loc 1 1145 33
1148:C:/Users/stapi/OneDrive/Desktop/GD32VW553/V1_MQTT_OK/GD32VW55X_Wifi_BLE_SDK/GD32VW55x_RELEASE_V1.0.2/MSDK/lwip/lwip-2.1.2/src/core\dns.c ****   if (entry->ttl > DNS_MAX_TTL) {
 1177              		.loc 1 1148 3
1149:C:/Users/stapi/OneDrive/Desktop/GD32VW553/V1_MQTT_OK/GD32VW55X_Wifi_BLE_SDK/GD32VW55x_RELEASE_V1.0.2/MSDK/lwip/lwip-2.1.2/src/core\dns.c ****     entry->ttl = DNS_MAX_TTL;
 1178              		.loc 1 1149 3
1152:C:/Users/stapi/OneDrive/Desktop/GD32VW553/V1_MQTT_OK/GD32VW55X_Wifi_BLE_SDK/GD32VW55x_RELEASE_V1.0.2/MSDK/lwip/lwip-2.1.2/src/core\dns.c **** 
 1179              		.loc 1 1152 3
 1180 0272 CA95     		add	a1,s2,a1
 1181 0274 5A85     		mv	a0,s6
 1182 0276 97000000 		call	dns_call_found
 1182      E7800000 
 1183              	.LVL113:
1154:C:/Users/stapi/OneDrive/Desktop/GD32VW553/V1_MQTT_OK/GD32VW55X_Wifi_BLE_SDK/GD32VW55x_RELEASE_V1.0.2/MSDK/lwip/lwip-2.1.2/src/core\dns.c ****     /* RFC 883, page 29: "Zero values are
 1184              		.loc 1 1154 3
1154:C:/Users/stapi/OneDrive/Desktop/GD32VW553/V1_MQTT_OK/GD32VW55X_Wifi_BLE_SDK/GD32VW55x_RELEASE_V1.0.2/MSDK/lwip/lwip-2.1.2/src/core\dns.c ****     /* RFC 883, page 29: "Zero values are
 1185              		.loc 1 1154 6 is_stmt 0
 1186 027e 1C40     		lw	a5,0(s0)
 1187 0280 D1EB     		bne	a5,zero,.L65
1160:C:/Users/stapi/OneDrive/Desktop/GD32VW553/V1_MQTT_OK/GD32VW55X_Wifi_BLE_SDK/GD32VW55x_RELEASE_V1.0.2/MSDK/lwip/lwip-2.1.2/src/core\dns.c ****       entry->state = DNS_STATE_UNUSED;
 1188              		.loc 1 1160 5 is_stmt 1
1160:C:/Users/stapi/OneDrive/Desktop/GD32VW553/V1_MQTT_OK/GD32VW55X_Wifi_BLE_SDK/GD32VW55x_RELEASE_V1.0.2/MSDK/lwip/lwip-2.1.2/src/core\dns.c ****       entry->state = DNS_STATE_UNUSED;
 1189              		.loc 1 1160 8 is_stmt 0
 1190 0282 8347A400 		lbu	a5,10(s0)
 1191 0286 63979708 		bne	a5,s1,.L65
1161:C:/Users/stapi/OneDrive/Desktop/GD32VW553/V1_MQTT_OK/GD32VW55X_Wifi_BLE_SDK/GD32VW55x_RELEASE_V1.0.2/MSDK/lwip/lwip-2.1.2/src/core\dns.c ****     }
 1192              		.loc 1 1161 7 is_stmt 1
1161:C:/Users/stapi/OneDrive/Desktop/GD32VW553/V1_MQTT_OK/GD32VW55X_Wifi_BLE_SDK/GD32VW55x_RELEASE_V1.0.2/MSDK/lwip/lwip-2.1.2/src/core\dns.c ****     }
 1193              		.loc 1 1161 20 is_stmt 0
 1194 028a 23050400 		sb	zero,10(s0)
 1195              	.LVL114:
 1196              	.LBE58:
 1197              	.LBE59:
1300:C:/Users/stapi/OneDrive/Desktop/GD32VW553/V1_MQTT_OK/GD32VW55X_Wifi_BLE_SDK/GD32VW55x_RELEASE_V1.0.2/MSDK/lwip/lwip-2.1.2/src/core\dns.c ****                   return;
 1198              		.loc 1 1300 19 is_stmt 1
 1199 028e 59A0     		j	.L65
 1200              	.LVL115:
 1201              	.L73:
 1202              	.LBE55:
 1203              	.LBB60:
 1204              	.LBB46:
 1205              	.LBB44:
 670:C:/Users/stapi/OneDrive/Desktop/GD32VW553/V1_MQTT_OK/GD32VW55X_Wifi_BLE_SDK/GD32VW55x_RELEASE_V1.0.2/MSDK/lwip/lwip-2.1.2/src/core\dns.c ****         if (c < 0) {
 1206              		.loc 1 670 17 is_stmt 0
 1207 0290 A285     		mv	a1,s0
 1208 0292 2685     		mv	a0,s1
 1209 0294 3EC6     		sw	a5,12(sp)
 670:C:/Users/stapi/OneDrive/Desktop/GD32VW553/V1_MQTT_OK/GD32VW55X_Wifi_BLE_SDK/GD32VW55x_RELEASE_V1.0.2/MSDK/lwip/lwip-2.1.2/src/core\dns.c ****         if (c < 0) {
 1210              		.loc 1 670 9 is_stmt 1
 670:C:/Users/stapi/OneDrive/Desktop/GD32VW553/V1_MQTT_OK/GD32VW55X_Wifi_BLE_SDK/GD32VW55x_RELEASE_V1.0.2/MSDK/lwip/lwip-2.1.2/src/core\dns.c ****         if (c < 0) {
 1211              		.loc 1 670 17 is_stmt 0
 1212 0296 97000000 		call	pbuf_try_get_at
 1212      E7800000 
 1213              	.LVL116:
 671:C:/Users/stapi/OneDrive/Desktop/GD32VW553/V1_MQTT_OK/GD32VW55X_Wifi_BLE_SDK/GD32VW55x_RELEASE_V1.0.2/MSDK/lwip/lwip-2.1.2/src/core\dns.c ****           return 0xFFFF;
 1214              		.loc 1 671 9 is_stmt 1
 671:C:/Users/stapi/OneDrive/Desktop/GD32VW553/V1_MQTT_OK/GD32VW55X_Wifi_BLE_SDK/GD32VW55x_RELEASE_V1.0.2/MSDK/lwip/lwip-2.1.2/src/core\dns.c ****           return 0xFFFF;
 1215              		.loc 1 671 12 is_stmt 0
 1216 029e 634C0508 		blt	a0,zero,.L67
 674:C:/Users/stapi/OneDrive/Desktop/GD32VW553/V1_MQTT_OK/GD32VW55X_Wifi_BLE_SDK/GD32VW55x_RELEASE_V1.0.2/MSDK/lwip/lwip-2.1.2/src/core\dns.c ****           return 0xFFFF;
 1217              		.loc 1 674 9 is_stmt 1
 1218              	.LBB41:
 674:C:/Users/stapi/OneDrive/Desktop/GD32VW553/V1_MQTT_OK/GD32VW55X_Wifi_BLE_SDK/GD32VW55x_RELEASE_V1.0.2/MSDK/lwip/lwip-2.1.2/src/core\dns.c ****           return 0xFFFF;
 1219              		.loc 1 674 13
 1220 02a2 03C70D00 		lbu	a4,0(s11)
 674:C:/Users/stapi/OneDrive/Desktop/GD32VW553/V1_MQTT_OK/GD32VW55X_Wifi_BLE_SDK/GD32VW55x_RELEASE_V1.0.2/MSDK/lwip/lwip-2.1.2/src/core\dns.c ****           return 0xFFFF;
 1221              		.loc 1 674 13
 1222 02a6 B247     		lw	a5,12(sp)
 1223 02a8 B3069701 		add	a3,a4,s9
 1224 02ac 83C60600 		lbu	a3,0(a3)
 1225 02b0 8D8A     		andi	a3,a3,3
 1226 02b2 6394A601 		bne	a3,s10,.L71
 1227 02b6 13070702 		addi	a4,a4,32
 1228              	.L71:
 1229              	.LBE41:
 1230              	.LBB42:
 674:C:/Users/stapi/OneDrive/Desktop/GD32VW553/V1_MQTT_OK/GD32VW55X_Wifi_BLE_SDK/GD32VW55x_RELEASE_V1.0.2/MSDK/lwip/lwip-2.1.2/src/core\dns.c ****           return 0xFFFF;
 1231              		.loc 1 674 39
 1232              	.LVL117:
 674:C:/Users/stapi/OneDrive/Desktop/GD32VW553/V1_MQTT_OK/GD32VW55X_Wifi_BLE_SDK/GD32VW55x_RELEASE_V1.0.2/MSDK/lwip/lwip-2.1.2/src/core\dns.c ****           return 0xFFFF;
 1233              		.loc 1 674 39
 1234 02ba 1375F50F 		andi	a0,a0,255
 1235              	.LVL118:
 1236 02be B386AC00 		add	a3,s9,a0
 1237 02c2 83C60600 		lbu	a3,0(a3)
 1238 02c6 8D8A     		andi	a3,a3,3
 1239 02c8 6394A601 		bne	a3,s10,.L72
 1240 02cc 13050502 		addi	a0,a0,32
 1241              	.L72:
 1242              	.LBE42:
 674:C:/Users/stapi/OneDrive/Desktop/GD32VW553/V1_MQTT_OK/GD32VW55X_Wifi_BLE_SDK/GD32VW55x_RELEASE_V1.0.2/MSDK/lwip/lwip-2.1.2/src/core\dns.c ****           return 0xFFFF;
 1243              		.loc 1 674 12 is_stmt 0
 1244 02d0 6313A706 		bne	a4,a0,.L67
 677:C:/Users/stapi/OneDrive/Desktop/GD32VW553/V1_MQTT_OK/GD32VW55X_Wifi_BLE_SDK/GD32VW55x_RELEASE_V1.0.2/MSDK/lwip/lwip-2.1.2/src/core\dns.c ****           /* would overflow */
 1245              		.loc 1 677 9 is_stmt 1
 677:C:/Users/stapi/OneDrive/Desktop/GD32VW553/V1_MQTT_OK/GD32VW55X_Wifi_BLE_SDK/GD32VW55x_RELEASE_V1.0.2/MSDK/lwip/lwip-2.1.2/src/core\dns.c ****           /* would overflow */
 1246              		.loc 1 677 12 is_stmt 0
 1247 02d4 63018407 		beq	s0,s8,.L67
 681:C:/Users/stapi/OneDrive/Desktop/GD32VW553/V1_MQTT_OK/GD32VW55X_Wifi_BLE_SDK/GD32VW55x_RELEASE_V1.0.2/MSDK/lwip/lwip-2.1.2/src/core\dns.c ****         ++query;
 1248              		.loc 1 681 9 is_stmt 1
 681:C:/Users/stapi/OneDrive/Desktop/GD32VW553/V1_MQTT_OK/GD32VW55X_Wifi_BLE_SDK/GD32VW55x_RELEASE_V1.0.2/MSDK/lwip/lwip-2.1.2/src/core\dns.c ****         ++query;
 1249              		.loc 1 681 24 is_stmt 0
 1250 02d8 0504     		addi	s0,s0,1
 1251              	.LVL119:
 682:C:/Users/stapi/OneDrive/Desktop/GD32VW553/V1_MQTT_OK/GD32VW55X_Wifi_BLE_SDK/GD32VW55x_RELEASE_V1.0.2/MSDK/lwip/lwip-2.1.2/src/core\dns.c ****         --n;
 1252              		.loc 1 682 9
 1253 02da 850D     		addi	s11,s11,1
 1254              	.LVL120:
 681:C:/Users/stapi/OneDrive/Desktop/GD32VW553/V1_MQTT_OK/GD32VW55X_Wifi_BLE_SDK/GD32VW55x_RELEASE_V1.0.2/MSDK/lwip/lwip-2.1.2/src/core\dns.c ****         ++query;
 1255              		.loc 1 681 24
 1256 02dc 33440408 		zext.h	s0,s0
 1257              	.LVL121:
 682:C:/Users/stapi/OneDrive/Desktop/GD32VW553/V1_MQTT_OK/GD32VW55X_Wifi_BLE_SDK/GD32VW55x_RELEASE_V1.0.2/MSDK/lwip/lwip-2.1.2/src/core\dns.c ****         --n;
 1258              		.loc 1 682 9 is_stmt 1
 683:C:/Users/stapi/OneDrive/Desktop/GD32VW553/V1_MQTT_OK/GD32VW55X_Wifi_BLE_SDK/GD32VW55x_RELEASE_V1.0.2/MSDK/lwip/lwip-2.1.2/src/core\dns.c ****       }
 1259              		.loc 1 683 9
 1260 02e0 11BD     		j	.L70
 1261              	.LVL122:
 1262              	.L75:
 1263              	.LBE44:
 1264              	.LBE46:
 1265              	.LBE60:
1252:C:/Users/stapi/OneDrive/Desktop/GD32VW553/V1_MQTT_OK/GD32VW55X_Wifi_BLE_SDK/GD32VW55x_RELEASE_V1.0.2/MSDK/lwip/lwip-2.1.2/src/core\dns.c **** 
 1266              		.loc 1 1252 86
1257:C:/Users/stapi/OneDrive/Desktop/GD32VW553/V1_MQTT_OK/GD32VW55X_Wifi_BLE_SDK/GD32VW55x_RELEASE_V1.0.2/MSDK/lwip/lwip-2.1.2/src/core\dns.c ****             /* avoid retrying the same server */
 1267              		.loc 1 1257 11
 1268              	.LBB61:
 1269              	.LBB62:
1026:C:/Users/stapi/OneDrive/Desktop/GD32VW553/V1_MQTT_OK/GD32VW55X_Wifi_BLE_SDK/GD32VW55x_RELEASE_V1.0.2/MSDK/lwip/lwip-2.1.2/src/core\dns.c **** 
 1270              		.loc 1 1026 3
1028:C:/Users/stapi/OneDrive/Desktop/GD32VW553/V1_MQTT_OK/GD32VW55X_Wifi_BLE_SDK/GD32VW55x_RELEASE_V1.0.2/MSDK/lwip/lwip-2.1.2/src/core\dns.c ****     if ((pentry->server_idx + 1 < DNS_MAX_SERVERS) && !ip_addr_isany_val(dns_servers[pentry->server
 1271              		.loc 1 1028 3
1029:C:/Users/stapi/OneDrive/Desktop/GD32VW553/V1_MQTT_OK/GD32VW55X_Wifi_BLE_SDK/GD32VW55x_RELEASE_V1.0.2/MSDK/lwip/lwip-2.1.2/src/core\dns.c ****       ret = 1;
 1272              		.loc 1 1029 5
1029:C:/Users/stapi/OneDrive/Desktop/GD32VW553/V1_MQTT_OK/GD32VW55X_Wifi_BLE_SDK/GD32VW55x_RELEASE_V1.0.2/MSDK/lwip/lwip-2.1.2/src/core\dns.c ****       ret = 1;
 1273              		.loc 1 1029 16 is_stmt 0
 1274 02e2 13070011 		li	a4,272
 1275 02e6 CA87     		mv	a5,s2
 1276 02e8 FF97E9C4 		maddr32	a5, s3, a4
1029:C:/Users/stapi/OneDrive/Desktop/GD32VW553/V1_MQTT_OK/GD32VW55X_Wifi_BLE_SDK/GD32VW55x_RELEASE_V1.0.2/MSDK/lwip/lwip-2.1.2/src/core\dns.c ****       ret = 1;
 1277              		.loc 1 1029 8
 1278 02ec 03C7B700 		lbu	a4,11(a5)
 1279 02f0 1DC7     		beq	a4,zero,.L77
 1280              	.LVL123:
 1281              	.L79:
 1282              	.LBE62:
 1283              	.LBE61:
1301:C:/Users/stapi/OneDrive/Desktop/GD32VW553/V1_MQTT_OK/GD32VW55X_Wifi_BLE_SDK/GD32VW55x_RELEASE_V1.0.2/MSDK/lwip/lwip-2.1.2/src/core\dns.c ****                 }
1302:C:/Users/stapi/OneDrive/Desktop/GD32VW553/V1_MQTT_OK/GD32VW55X_Wifi_BLE_SDK/GD32VW55x_RELEASE_V1.0.2/MSDK/lwip/lwip-2.1.2/src/core\dns.c ****               }
1303:C:/Users/stapi/OneDrive/Desktop/GD32VW553/V1_MQTT_OK/GD32VW55X_Wifi_BLE_SDK/GD32VW55x_RELEASE_V1.0.2/MSDK/lwip/lwip-2.1.2/src/core\dns.c **** #endif /* LWIP_IPV4 */
1304:C:/Users/stapi/OneDrive/Desktop/GD32VW553/V1_MQTT_OK/GD32VW55X_Wifi_BLE_SDK/GD32VW55x_RELEASE_V1.0.2/MSDK/lwip/lwip-2.1.2/src/core\dns.c **** #if LWIP_IPV6
1305:C:/Users/stapi/OneDrive/Desktop/GD32VW553/V1_MQTT_OK/GD32VW55X_Wifi_BLE_SDK/GD32VW55x_RELEASE_V1.0.2/MSDK/lwip/lwip-2.1.2/src/core\dns.c ****               if ((ans.type == PP_HTONS(DNS_RRTYPE_AAAA)) && (ans.len == PP_HTONS(sizeof(ip6_addr_p
1306:C:/Users/stapi/OneDrive/Desktop/GD32VW553/V1_MQTT_OK/GD32VW55X_Wifi_BLE_SDK/GD32VW55x_RELEASE_V1.0.2/MSDK/lwip/lwip-2.1.2/src/core\dns.c **** #if LWIP_IPV4 && LWIP_IPV6
1307:C:/Users/stapi/OneDrive/Desktop/GD32VW553/V1_MQTT_OK/GD32VW55X_Wifi_BLE_SDK/GD32VW55x_RELEASE_V1.0.2/MSDK/lwip/lwip-2.1.2/src/core\dns.c ****                 if (LWIP_DNS_ADDRTYPE_IS_IPV6(entry->reqaddrtype))
1308:C:/Users/stapi/OneDrive/Desktop/GD32VW553/V1_MQTT_OK/GD32VW55X_Wifi_BLE_SDK/GD32VW55x_RELEASE_V1.0.2/MSDK/lwip/lwip-2.1.2/src/core\dns.c **** #endif /* LWIP_IPV4 && LWIP_IPV6 */
1309:C:/Users/stapi/OneDrive/Desktop/GD32VW553/V1_MQTT_OK/GD32VW55X_Wifi_BLE_SDK/GD32VW55x_RELEASE_V1.0.2/MSDK/lwip/lwip-2.1.2/src/core\dns.c ****                 {
1310:C:/Users/stapi/OneDrive/Desktop/GD32VW553/V1_MQTT_OK/GD32VW55X_Wifi_BLE_SDK/GD32VW55x_RELEASE_V1.0.2/MSDK/lwip/lwip-2.1.2/src/core\dns.c ****                   ip6_addr_p_t ip6addr;
1311:C:/Users/stapi/OneDrive/Desktop/GD32VW553/V1_MQTT_OK/GD32VW55X_Wifi_BLE_SDK/GD32VW55x_RELEASE_V1.0.2/MSDK/lwip/lwip-2.1.2/src/core\dns.c ****                   /* read the IP address after answer resource record's header */
1312:C:/Users/stapi/OneDrive/Desktop/GD32VW553/V1_MQTT_OK/GD32VW55X_Wifi_BLE_SDK/GD32VW55x_RELEASE_V1.0.2/MSDK/lwip/lwip-2.1.2/src/core\dns.c ****                   if (pbuf_copy_partial(p, &ip6addr, sizeof(ip6_addr_p_t), res_idx) != sizeof(ip6_a
1313:C:/Users/stapi/OneDrive/Desktop/GD32VW553/V1_MQTT_OK/GD32VW55X_Wifi_BLE_SDK/GD32VW55x_RELEASE_V1.0.2/MSDK/lwip/lwip-2.1.2/src/core\dns.c ****                     goto ignore_packet; /* ignore this packet */
1314:C:/Users/stapi/OneDrive/Desktop/GD32VW553/V1_MQTT_OK/GD32VW55X_Wifi_BLE_SDK/GD32VW55x_RELEASE_V1.0.2/MSDK/lwip/lwip-2.1.2/src/core\dns.c ****                   }
1315:C:/Users/stapi/OneDrive/Desktop/GD32VW553/V1_MQTT_OK/GD32VW55X_Wifi_BLE_SDK/GD32VW55x_RELEASE_V1.0.2/MSDK/lwip/lwip-2.1.2/src/core\dns.c ****                   /* @todo: scope ip6addr? Might be required for link-local addresses at least? */
1316:C:/Users/stapi/OneDrive/Desktop/GD32VW553/V1_MQTT_OK/GD32VW55X_Wifi_BLE_SDK/GD32VW55x_RELEASE_V1.0.2/MSDK/lwip/lwip-2.1.2/src/core\dns.c ****                   ip_addr_copy_from_ip6_packed(dns_table[i].ipaddr, ip6addr);
1317:C:/Users/stapi/OneDrive/Desktop/GD32VW553/V1_MQTT_OK/GD32VW55X_Wifi_BLE_SDK/GD32VW55x_RELEASE_V1.0.2/MSDK/lwip/lwip-2.1.2/src/core\dns.c ****                   pbuf_free(p);
1318:C:/Users/stapi/OneDrive/Desktop/GD32VW553/V1_MQTT_OK/GD32VW55X_Wifi_BLE_SDK/GD32VW55x_RELEASE_V1.0.2/MSDK/lwip/lwip-2.1.2/src/core\dns.c ****                   /* handle correct response */
1319:C:/Users/stapi/OneDrive/Desktop/GD32VW553/V1_MQTT_OK/GD32VW55X_Wifi_BLE_SDK/GD32VW55x_RELEASE_V1.0.2/MSDK/lwip/lwip-2.1.2/src/core\dns.c ****                   dns_correct_response(i, lwip_ntohl(ans.ttl));
1320:C:/Users/stapi/OneDrive/Desktop/GD32VW553/V1_MQTT_OK/GD32VW55X_Wifi_BLE_SDK/GD32VW55x_RELEASE_V1.0.2/MSDK/lwip/lwip-2.1.2/src/core\dns.c ****                   return;
1321:C:/Users/stapi/OneDrive/Desktop/GD32VW553/V1_MQTT_OK/GD32VW55X_Wifi_BLE_SDK/GD32VW55x_RELEASE_V1.0.2/MSDK/lwip/lwip-2.1.2/src/core\dns.c ****                 }
1322:C:/Users/stapi/OneDrive/Desktop/GD32VW553/V1_MQTT_OK/GD32VW55X_Wifi_BLE_SDK/GD32VW55x_RELEASE_V1.0.2/MSDK/lwip/lwip-2.1.2/src/core\dns.c ****               }
1323:C:/Users/stapi/OneDrive/Desktop/GD32VW553/V1_MQTT_OK/GD32VW55X_Wifi_BLE_SDK/GD32VW55x_RELEASE_V1.0.2/MSDK/lwip/lwip-2.1.2/src/core\dns.c **** #endif /* LWIP_IPV6 */
1324:C:/Users/stapi/OneDrive/Desktop/GD32VW553/V1_MQTT_OK/GD32VW55X_Wifi_BLE_SDK/GD32VW55x_RELEASE_V1.0.2/MSDK/lwip/lwip-2.1.2/src/core\dns.c ****             }
1325:C:/Users/stapi/OneDrive/Desktop/GD32VW553/V1_MQTT_OK/GD32VW55X_Wifi_BLE_SDK/GD32VW55x_RELEASE_V1.0.2/MSDK/lwip/lwip-2.1.2/src/core\dns.c ****             /* skip this answer */
1326:C:/Users/stapi/OneDrive/Desktop/GD32VW553/V1_MQTT_OK/GD32VW55X_Wifi_BLE_SDK/GD32VW55x_RELEASE_V1.0.2/MSDK/lwip/lwip-2.1.2/src/core\dns.c ****             if ((int)(res_idx + lwip_htons(ans.len)) > 0xFFFF) {
1327:C:/Users/stapi/OneDrive/Desktop/GD32VW553/V1_MQTT_OK/GD32VW55X_Wifi_BLE_SDK/GD32VW55x_RELEASE_V1.0.2/MSDK/lwip/lwip-2.1.2/src/core\dns.c ****               goto ignore_packet; /* ignore this packet */
1328:C:/Users/stapi/OneDrive/Desktop/GD32VW553/V1_MQTT_OK/GD32VW55X_Wifi_BLE_SDK/GD32VW55x_RELEASE_V1.0.2/MSDK/lwip/lwip-2.1.2/src/core\dns.c ****             }
1329:C:/Users/stapi/OneDrive/Desktop/GD32VW553/V1_MQTT_OK/GD32VW55X_Wifi_BLE_SDK/GD32VW55x_RELEASE_V1.0.2/MSDK/lwip/lwip-2.1.2/src/core\dns.c ****             res_idx = (u16_t)(res_idx + lwip_htons(ans.len));
1330:C:/Users/stapi/OneDrive/Desktop/GD32VW553/V1_MQTT_OK/GD32VW55X_Wifi_BLE_SDK/GD32VW55x_RELEASE_V1.0.2/MSDK/lwip/lwip-2.1.2/src/core\dns.c ****             --nanswers;
1331:C:/Users/stapi/OneDrive/Desktop/GD32VW553/V1_MQTT_OK/GD32VW55X_Wifi_BLE_SDK/GD32VW55x_RELEASE_V1.0.2/MSDK/lwip/lwip-2.1.2/src/core\dns.c ****           }
1332:C:/Users/stapi/OneDrive/Desktop/GD32VW553/V1_MQTT_OK/GD32VW55X_Wifi_BLE_SDK/GD32VW55x_RELEASE_V1.0.2/MSDK/lwip/lwip-2.1.2/src/core\dns.c **** #if LWIP_IPV4 && LWIP_IPV6
1333:C:/Users/stapi/OneDrive/Desktop/GD32VW553/V1_MQTT_OK/GD32VW55X_Wifi_BLE_SDK/GD32VW55x_RELEASE_V1.0.2/MSDK/lwip/lwip-2.1.2/src/core\dns.c ****           if ((entry->reqaddrtype == LWIP_DNS_ADDRTYPE_IPV4_IPV6) ||
1334:C:/Users/stapi/OneDrive/Desktop/GD32VW553/V1_MQTT_OK/GD32VW55X_Wifi_BLE_SDK/GD32VW55x_RELEASE_V1.0.2/MSDK/lwip/lwip-2.1.2/src/core\dns.c ****               (entry->reqaddrtype == LWIP_DNS_ADDRTYPE_IPV6_IPV4)) {
1335:C:/Users/stapi/OneDrive/Desktop/GD32VW553/V1_MQTT_OK/GD32VW55X_Wifi_BLE_SDK/GD32VW55x_RELEASE_V1.0.2/MSDK/lwip/lwip-2.1.2/src/core\dns.c ****             if (entry->reqaddrtype == LWIP_DNS_ADDRTYPE_IPV4_IPV6) {
1336:C:/Users/stapi/OneDrive/Desktop/GD32VW553/V1_MQTT_OK/GD32VW55X_Wifi_BLE_SDK/GD32VW55x_RELEASE_V1.0.2/MSDK/lwip/lwip-2.1.2/src/core\dns.c ****               /* IPv4 failed, try IPv6 */
1337:C:/Users/stapi/OneDrive/Desktop/GD32VW553/V1_MQTT_OK/GD32VW55X_Wifi_BLE_SDK/GD32VW55x_RELEASE_V1.0.2/MSDK/lwip/lwip-2.1.2/src/core\dns.c ****               dns_table[i].reqaddrtype = LWIP_DNS_ADDRTYPE_IPV6;
1338:C:/Users/stapi/OneDrive/Desktop/GD32VW553/V1_MQTT_OK/GD32VW55X_Wifi_BLE_SDK/GD32VW55x_RELEASE_V1.0.2/MSDK/lwip/lwip-2.1.2/src/core\dns.c ****             } else {
1339:C:/Users/stapi/OneDrive/Desktop/GD32VW553/V1_MQTT_OK/GD32VW55X_Wifi_BLE_SDK/GD32VW55x_RELEASE_V1.0.2/MSDK/lwip/lwip-2.1.2/src/core\dns.c ****               /* IPv6 failed, try IPv4 */
1340:C:/Users/stapi/OneDrive/Desktop/GD32VW553/V1_MQTT_OK/GD32VW55X_Wifi_BLE_SDK/GD32VW55x_RELEASE_V1.0.2/MSDK/lwip/lwip-2.1.2/src/core\dns.c ****               dns_table[i].reqaddrtype = LWIP_DNS_ADDRTYPE_IPV4;
1341:C:/Users/stapi/OneDrive/Desktop/GD32VW553/V1_MQTT_OK/GD32VW55X_Wifi_BLE_SDK/GD32VW55x_RELEASE_V1.0.2/MSDK/lwip/lwip-2.1.2/src/core\dns.c ****             }
1342:C:/Users/stapi/OneDrive/Desktop/GD32VW553/V1_MQTT_OK/GD32VW55X_Wifi_BLE_SDK/GD32VW55x_RELEASE_V1.0.2/MSDK/lwip/lwip-2.1.2/src/core\dns.c ****             pbuf_free(p);
1343:C:/Users/stapi/OneDrive/Desktop/GD32VW553/V1_MQTT_OK/GD32VW55X_Wifi_BLE_SDK/GD32VW55x_RELEASE_V1.0.2/MSDK/lwip/lwip-2.1.2/src/core\dns.c ****             dns_table[i].state = DNS_STATE_NEW;
1344:C:/Users/stapi/OneDrive/Desktop/GD32VW553/V1_MQTT_OK/GD32VW55X_Wifi_BLE_SDK/GD32VW55x_RELEASE_V1.0.2/MSDK/lwip/lwip-2.1.2/src/core\dns.c ****             dns_check_entry(i);
1345:C:/Users/stapi/OneDrive/Desktop/GD32VW553/V1_MQTT_OK/GD32VW55X_Wifi_BLE_SDK/GD32VW55x_RELEASE_V1.0.2/MSDK/lwip/lwip-2.1.2/src/core\dns.c ****             return;
1346:C:/Users/stapi/OneDrive/Desktop/GD32VW553/V1_MQTT_OK/GD32VW55X_Wifi_BLE_SDK/GD32VW55x_RELEASE_V1.0.2/MSDK/lwip/lwip-2.1.2/src/core\dns.c ****           }
1347:C:/Users/stapi/OneDrive/Desktop/GD32VW553/V1_MQTT_OK/GD32VW55X_Wifi_BLE_SDK/GD32VW55x_RELEASE_V1.0.2/MSDK/lwip/lwip-2.1.2/src/core\dns.c **** #endif /* LWIP_IPV4 && LWIP_IPV6 */
1348:C:/Users/stapi/OneDrive/Desktop/GD32VW553/V1_MQTT_OK/GD32VW55X_Wifi_BLE_SDK/GD32VW55x_RELEASE_V1.0.2/MSDK/lwip/lwip-2.1.2/src/core\dns.c ****           LWIP_DEBUGF(DNS_DEBUG, ("dns_recv: \"%s\": error in response\n", entry->name));
 1284              		.loc 1 1348 89 is_stmt 1
1349:C:/Users/stapi/OneDrive/Desktop/GD32VW553/V1_MQTT_OK/GD32VW55X_Wifi_BLE_SDK/GD32VW55x_RELEASE_V1.0.2/MSDK/lwip/lwip-2.1.2/src/core\dns.c ****         }
1350:C:/Users/stapi/OneDrive/Desktop/GD32VW553/V1_MQTT_OK/GD32VW55X_Wifi_BLE_SDK/GD32VW55x_RELEASE_V1.0.2/MSDK/lwip/lwip-2.1.2/src/core\dns.c ****         /* call callback to indicate error, clean up memory and return */
1351:C:/Users/stapi/OneDrive/Desktop/GD32VW553/V1_MQTT_OK/GD32VW55X_Wifi_BLE_SDK/GD32VW55x_RELEASE_V1.0.2/MSDK/lwip/lwip-2.1.2/src/core\dns.c ****         pbuf_free(p);
 1285              		.loc 1 1351 9
 1286 02f2 2685     		mv	a0,s1
 1287 02f4 97000000 		call	pbuf_free
 1287      E7800000 
 1288              	.LVL124:
1352:C:/Users/stapi/OneDrive/Desktop/GD32VW553/V1_MQTT_OK/GD32VW55X_Wifi_BLE_SDK/GD32VW55x_RELEASE_V1.0.2/MSDK/lwip/lwip-2.1.2/src/core\dns.c ****         dns_call_found(i, NULL);
 1289              		.loc 1 1352 9
 1290 02fc 8145     		li	a1,0
 1291 02fe 5A85     		mv	a0,s6
 1292 0300 97000000 		call	dns_call_found
 1292      E7800000 
 1293              	.LVL125:
1353:C:/Users/stapi/OneDrive/Desktop/GD32VW553/V1_MQTT_OK/GD32VW55X_Wifi_BLE_SDK/GD32VW55x_RELEASE_V1.0.2/MSDK/lwip/lwip-2.1.2/src/core\dns.c ****         dns_table[i].state = DNS_STATE_UNUSED;
 1294              		.loc 1 1353 9
 1295              		.loc 1 1353 28 is_stmt 0
 1296 0308 93070011 		li	a5,272
 1297 030c 7F99F9C4 		maddr32	s2, s3, a5
 1298 0310 23050900 		sb	zero,10(s2)
1354:C:/Users/stapi/OneDrive/Desktop/GD32VW553/V1_MQTT_OK/GD32VW55X_Wifi_BLE_SDK/GD32VW55x_RELEASE_V1.0.2/MSDK/lwip/lwip-2.1.2/src/core\dns.c ****         return;
 1299              		.loc 1 1354 9 is_stmt 1
 1300              	.LVL126:
 1301              	.L65:
 1302              	.LBE68:
1355:C:/Users/stapi/OneDrive/Desktop/GD32VW553/V1_MQTT_OK/GD32VW55X_Wifi_BLE_SDK/GD32VW55x_RELEASE_V1.0.2/MSDK/lwip/lwip-2.1.2/src/core\dns.c ****       }
1356:C:/Users/stapi/OneDrive/Desktop/GD32VW553/V1_MQTT_OK/GD32VW55X_Wifi_BLE_SDK/GD32VW55x_RELEASE_V1.0.2/MSDK/lwip/lwip-2.1.2/src/core\dns.c ****     }
1357:C:/Users/stapi/OneDrive/Desktop/GD32VW553/V1_MQTT_OK/GD32VW55X_Wifi_BLE_SDK/GD32VW55x_RELEASE_V1.0.2/MSDK/lwip/lwip-2.1.2/src/core\dns.c ****   }
1358:C:/Users/stapi/OneDrive/Desktop/GD32VW553/V1_MQTT_OK/GD32VW55X_Wifi_BLE_SDK/GD32VW55x_RELEASE_V1.0.2/MSDK/lwip/lwip-2.1.2/src/core\dns.c **** 
1359:C:/Users/stapi/OneDrive/Desktop/GD32VW553/V1_MQTT_OK/GD32VW55X_Wifi_BLE_SDK/GD32VW55x_RELEASE_V1.0.2/MSDK/lwip/lwip-2.1.2/src/core\dns.c **** ignore_packet:
1360:C:/Users/stapi/OneDrive/Desktop/GD32VW553/V1_MQTT_OK/GD32VW55X_Wifi_BLE_SDK/GD32VW55x_RELEASE_V1.0.2/MSDK/lwip/lwip-2.1.2/src/core\dns.c ****   /* deallocate memory and return */
1361:C:/Users/stapi/OneDrive/Desktop/GD32VW553/V1_MQTT_OK/GD32VW55X_Wifi_BLE_SDK/GD32VW55x_RELEASE_V1.0.2/MSDK/lwip/lwip-2.1.2/src/core\dns.c ****   pbuf_free(p);
1362:C:/Users/stapi/OneDrive/Desktop/GD32VW553/V1_MQTT_OK/GD32VW55X_Wifi_BLE_SDK/GD32VW55x_RELEASE_V1.0.2/MSDK/lwip/lwip-2.1.2/src/core\dns.c ****   return;
1363:C:/Users/stapi/OneDrive/Desktop/GD32VW553/V1_MQTT_OK/GD32VW55X_Wifi_BLE_SDK/GD32VW55x_RELEASE_V1.0.2/MSDK/lwip/lwip-2.1.2/src/core\dns.c **** }
 1303              		.loc 1 1363 1 is_stmt 0
 1304 0314 4561     		addi	sp,sp,48
 1305              		.cfi_remember_state
 1306              		.cfi_def_cfa_offset 0
 1307 0316 17030000 		tail	__riscv_restore_12
 1307      67000300 
 1308              		.cfi_restore 27
 1309              		.cfi_restore 26
 1310              		.cfi_restore 25
 1311              		.cfi_restore 24
 1312              		.cfi_restore 23
 1313              		.cfi_restore 22
 1314              		.cfi_restore 21
 1315              		.cfi_restore 20
 1316              		.cfi_restore 19
 1317              		.cfi_restore 18
 1318              		.cfi_restore 9
 1319              		.cfi_restore 8
 1320              		.cfi_restore 1
 1321              		.cfi_def_cfa_offset -64
 1322              	.LVL127:
 1323              	.L77:
 1324              		.cfi_restore_state
 1325              	.LBB69:
 1326              	.LBB66:
 1327              	.LBB65:
 1328              	.LBB63:
 1329              	.LBB64:
1029:C:/Users/stapi/OneDrive/Desktop/GD32VW553/V1_MQTT_OK/GD32VW55X_Wifi_BLE_SDK/GD32VW55x_RELEASE_V1.0.2/MSDK/lwip/lwip-2.1.2/src/core\dns.c ****       ret = 1;
 1330              		.loc 1 1029 52
 1331 031e 03A74B00 		lw	a4,4(s7)
 1332 0322 61DB     		beq	a4,zero,.L79
1030:C:/Users/stapi/OneDrive/Desktop/GD32VW553/V1_MQTT_OK/GD32VW55X_Wifi_BLE_SDK/GD32VW55x_RELEASE_V1.0.2/MSDK/lwip/lwip-2.1.2/src/core\dns.c ****     }
 1333              		.loc 1 1030 7 is_stmt 1
 1334              	.LVL128:
 1335              	.LBE64:
 1336              	.LBE63:
1034:C:/Users/stapi/OneDrive/Desktop/GD32VW553/V1_MQTT_OK/GD32VW55X_Wifi_BLE_SDK/GD32VW55x_RELEASE_V1.0.2/MSDK/lwip/lwip-2.1.2/src/core\dns.c **** }
 1337              		.loc 1 1034 3
 1338              	.LBE65:
 1339              	.LBE66:
1259:C:/Users/stapi/OneDrive/Desktop/GD32VW553/V1_MQTT_OK/GD32VW55X_Wifi_BLE_SDK/GD32VW55x_RELEASE_V1.0.2/MSDK/lwip/lwip-2.1.2/src/core\dns.c ****             entry->tmr     = 1;
 1340              		.loc 1 1259 13
1260:C:/Users/stapi/OneDrive/Desktop/GD32VW553/V1_MQTT_OK/GD32VW55X_Wifi_BLE_SDK/GD32VW55x_RELEASE_V1.0.2/MSDK/lwip/lwip-2.1.2/src/core\dns.c **** 
 1341              		.loc 1 1260 13
1260:C:/Users/stapi/OneDrive/Desktop/GD32VW553/V1_MQTT_OK/GD32VW55X_Wifi_BLE_SDK/GD32VW55x_RELEASE_V1.0.2/MSDK/lwip/lwip-2.1.2/src/core\dns.c **** 
 1342              		.loc 1 1260 28 is_stmt 0
 1343 0324 13071030 		li	a4,769
 1344 0328 2396E700 		sh	a4,12(a5)
1263:C:/Users/stapi/OneDrive/Desktop/GD32VW553/V1_MQTT_OK/GD32VW55X_Wifi_BLE_SDK/GD32VW55x_RELEASE_V1.0.2/MSDK/lwip/lwip-2.1.2/src/core\dns.c **** 
 1345              		.loc 1 1263 13 is_stmt 1
 1346 032c 5A85     		mv	a0,s6
 1347 032e 97000000 		call	dns_check_entry
 1347      E7800000 
 1348              	.LVL129:
1265:C:/Users/stapi/OneDrive/Desktop/GD32VW553/V1_MQTT_OK/GD32VW55X_Wifi_BLE_SDK/GD32VW55x_RELEASE_V1.0.2/MSDK/lwip/lwip-2.1.2/src/core\dns.c ****           }
 1349              		.loc 1 1265 13
 1350              	.L67:
 1351              	.LBE69:
1361:C:/Users/stapi/OneDrive/Desktop/GD32VW553/V1_MQTT_OK/GD32VW55X_Wifi_BLE_SDK/GD32VW55x_RELEASE_V1.0.2/MSDK/lwip/lwip-2.1.2/src/core\dns.c ****   return;
 1352              		.loc 1 1361 3
 1353 0336 2685     		mv	a0,s1
 1354 0338 97000000 		call	pbuf_free
 1354      E7800000 
 1355              	.LVL130:
1362:C:/Users/stapi/OneDrive/Desktop/GD32VW553/V1_MQTT_OK/GD32VW55X_Wifi_BLE_SDK/GD32VW55x_RELEASE_V1.0.2/MSDK/lwip/lwip-2.1.2/src/core\dns.c **** }
 1356              		.loc 1 1362 3
 1357 0340 D1BF     		j	.L65
 1358              	.LVL131:
 1359              	.L88:
 1360              	.LBB70:
 1361              	.LBB67:
 1362              	.LBB52:
 1363 0342 3684     		mv	s0,a3
 1364 0344 59B5     		j	.L80
 1365              	.LVL132:
 1366              	.L82:
 1367              	.LBE52:
 1368              	.LBE67:
1326:C:/Users/stapi/OneDrive/Desktop/GD32VW553/V1_MQTT_OK/GD32VW55X_Wifi_BLE_SDK/GD32VW55x_RELEASE_V1.0.2/MSDK/lwip/lwip-2.1.2/src/core\dns.c ****               goto ignore_packet; /* ignore this packet */
 1369              		.loc 1 1326 13
1326:C:/Users/stapi/OneDrive/Desktop/GD32VW553/V1_MQTT_OK/GD32VW55X_Wifi_BLE_SDK/GD32VW55x_RELEASE_V1.0.2/MSDK/lwip/lwip-2.1.2/src/core\dns.c ****               goto ignore_packet; /* ignore this packet */
 1370              		.loc 1 1326 33 is_stmt 0
 1371 0346 97000000 		call	lwip_htons
 1371      E7800000 
 1372              	.LVL133:
1326:C:/Users/stapi/OneDrive/Desktop/GD32VW553/V1_MQTT_OK/GD32VW55X_Wifi_BLE_SDK/GD32VW55x_RELEASE_V1.0.2/MSDK/lwip/lwip-2.1.2/src/core\dns.c ****               goto ignore_packet; /* ignore this packet */
 1373              		.loc 1 1326 17
 1374 034e 2295     		add	a0,s0,a0
1326:C:/Users/stapi/OneDrive/Desktop/GD32VW553/V1_MQTT_OK/GD32VW55X_Wifi_BLE_SDK/GD32VW55x_RELEASE_V1.0.2/MSDK/lwip/lwip-2.1.2/src/core\dns.c ****               goto ignore_packet; /* ignore this packet */
 1375              		.loc 1 1326 16
 1376 0350 E35375FF 		bge	a0,s7,.L67
1329:C:/Users/stapi/OneDrive/Desktop/GD32VW553/V1_MQTT_OK/GD32VW55X_Wifi_BLE_SDK/GD32VW55x_RELEASE_V1.0.2/MSDK/lwip/lwip-2.1.2/src/core\dns.c ****             --nanswers;
 1377              		.loc 1 1329 13 is_stmt 1
1329:C:/Users/stapi/OneDrive/Desktop/GD32VW553/V1_MQTT_OK/GD32VW55X_Wifi_BLE_SDK/GD32VW55x_RELEASE_V1.0.2/MSDK/lwip/lwip-2.1.2/src/core\dns.c ****             --nanswers;
 1378              		.loc 1 1329 41 is_stmt 0
 1379 0354 0355C102 		lhu	a0,44(sp)
1330:C:/Users/stapi/OneDrive/Desktop/GD32VW553/V1_MQTT_OK/GD32VW55X_Wifi_BLE_SDK/GD32VW55x_RELEASE_V1.0.2/MSDK/lwip/lwip-2.1.2/src/core\dns.c ****           }
 1380              		.loc 1 1330 13
 1381 0358 7D1A     		addi	s4,s4,-1
 1382              	.LVL134:
 1383 035a 334A0A08 		zext.h	s4,s4
1329:C:/Users/stapi/OneDrive/Desktop/GD32VW553/V1_MQTT_OK/GD32VW55X_Wifi_BLE_SDK/GD32VW55x_RELEASE_V1.0.2/MSDK/lwip/lwip-2.1.2/src/core\dns.c ****             --nanswers;
 1384              		.loc 1 1329 41
 1385 035e 97000000 		call	lwip_htons
 1385      E7800000 
 1386              	.LVL135:
1329:C:/Users/stapi/OneDrive/Desktop/GD32VW553/V1_MQTT_OK/GD32VW55X_Wifi_BLE_SDK/GD32VW55x_RELEASE_V1.0.2/MSDK/lwip/lwip-2.1.2/src/core\dns.c ****             --nanswers;
 1387              		.loc 1 1329 21
 1388 0366 2295     		add	a0,a0,s0
 1389 0368 33440508 		zext.h	s0,a0
 1390              	.LVL136:
1330:C:/Users/stapi/OneDrive/Desktop/GD32VW553/V1_MQTT_OK/GD32VW55X_Wifi_BLE_SDK/GD32VW55x_RELEASE_V1.0.2/MSDK/lwip/lwip-2.1.2/src/core\dns.c ****           }
 1391              		.loc 1 1330 13 is_stmt 1
 1392 036c 29B5     		j	.L76
 1393              	.LVL137:
 1394              	.L69:
 1395              	.LBE70:
1195:C:/Users/stapi/OneDrive/Desktop/GD32VW553/V1_MQTT_OK/GD32VW55X_Wifi_BLE_SDK/GD32VW55x_RELEASE_V1.0.2/MSDK/lwip/lwip-2.1.2/src/core\dns.c ****       struct dns_table_entry *entry = &dns_table[i];
 1396              		.loc 1 1195 37 discriminator 2
1195:C:/Users/stapi/OneDrive/Desktop/GD32VW553/V1_MQTT_OK/GD32VW55X_Wifi_BLE_SDK/GD32VW55x_RELEASE_V1.0.2/MSDK/lwip/lwip-2.1.2/src/core\dns.c ****       struct dns_table_entry *entry = &dns_table[i];
 1397              		.loc 1 1195 17 discriminator 2
1195:C:/Users/stapi/OneDrive/Desktop/GD32VW553/V1_MQTT_OK/GD32VW55X_Wifi_BLE_SDK/GD32VW55x_RELEASE_V1.0.2/MSDK/lwip/lwip-2.1.2/src/core\dns.c ****       struct dns_table_entry *entry = &dns_table[i];
 1398              		.loc 1 1195 5 is_stmt 0 discriminator 2
 1399 036e 8509     		addi	s3,s3,1
 1400              	.LVL138:
 1401 0370 93870711 		addi	a5,a5,272
 1402 0374 E39DE9CC 		bne	s3,a4,.L87
1359:C:/Users/stapi/OneDrive/Desktop/GD32VW553/V1_MQTT_OK/GD32VW55X_Wifi_BLE_SDK/GD32VW55x_RELEASE_V1.0.2/MSDK/lwip/lwip-2.1.2/src/core\dns.c ****   /* deallocate memory and return */
 1403              		.loc 1 1359 1
 1404 0378 7DBF     		j	.L67
 1405              		.cfi_endproc
 1406              	.LFE20:
 1408              		.section	.text.dns_init,"ax",@progbits
 1409              		.align	1
 1410              		.globl	dns_init
 1412              	dns_init:
 1413              	.LFB4:
 316:C:/Users/stapi/OneDrive/Desktop/GD32VW553/V1_MQTT_OK/GD32VW55X_Wifi_BLE_SDK/GD32VW55x_RELEASE_V1.0.2/MSDK/lwip/lwip-2.1.2/src/core\dns.c **** #ifdef DNS_SERVER_ADDRESS
 1414              		.loc 1 316 1 is_stmt 1
 1415              		.cfi_startproc
 324:C:/Users/stapi/OneDrive/Desktop/GD32VW553/V1_MQTT_OK/GD32VW55X_Wifi_BLE_SDK/GD32VW55x_RELEASE_V1.0.2/MSDK/lwip/lwip-2.1.2/src/core\dns.c ****               sizeof(struct dns_query) == SIZEOF_DNS_QUERY);
 1416              		.loc 1 324 3
 324:C:/Users/stapi/OneDrive/Desktop/GD32VW553/V1_MQTT_OK/GD32VW55X_Wifi_BLE_SDK/GD32VW55x_RELEASE_V1.0.2/MSDK/lwip/lwip-2.1.2/src/core\dns.c ****               sizeof(struct dns_query) == SIZEOF_DNS_QUERY);
 1417              		.loc 1 324 3
 324:C:/Users/stapi/OneDrive/Desktop/GD32VW553/V1_MQTT_OK/GD32VW55X_Wifi_BLE_SDK/GD32VW55x_RELEASE_V1.0.2/MSDK/lwip/lwip-2.1.2/src/core\dns.c ****               sizeof(struct dns_query) == SIZEOF_DNS_QUERY);
 1418              		.loc 1 324 3
 324:C:/Users/stapi/OneDrive/Desktop/GD32VW553/V1_MQTT_OK/GD32VW55X_Wifi_BLE_SDK/GD32VW55x_RELEASE_V1.0.2/MSDK/lwip/lwip-2.1.2/src/core\dns.c ****               sizeof(struct dns_query) == SIZEOF_DNS_QUERY);
 1419              		.loc 1 324 3
 326:C:/Users/stapi/OneDrive/Desktop/GD32VW553/V1_MQTT_OK/GD32VW55X_Wifi_BLE_SDK/GD32VW55x_RELEASE_V1.0.2/MSDK/lwip/lwip-2.1.2/src/core\dns.c ****               sizeof(struct dns_answer) <= SIZEOF_DNS_ANSWER_ASSERT);
 1420              		.loc 1 326 3
 326:C:/Users/stapi/OneDrive/Desktop/GD32VW553/V1_MQTT_OK/GD32VW55X_Wifi_BLE_SDK/GD32VW55x_RELEASE_V1.0.2/MSDK/lwip/lwip-2.1.2/src/core\dns.c ****               sizeof(struct dns_answer) <= SIZEOF_DNS_ANSWER_ASSERT);
 1421              		.loc 1 326 3
 326:C:/Users/stapi/OneDrive/Desktop/GD32VW553/V1_MQTT_OK/GD32VW55X_Wifi_BLE_SDK/GD32VW55x_RELEASE_V1.0.2/MSDK/lwip/lwip-2.1.2/src/core\dns.c ****               sizeof(struct dns_answer) <= SIZEOF_DNS_ANSWER_ASSERT);
 1422              		.loc 1 326 3
 326:C:/Users/stapi/OneDrive/Desktop/GD32VW553/V1_MQTT_OK/GD32VW55X_Wifi_BLE_SDK/GD32VW55x_RELEASE_V1.0.2/MSDK/lwip/lwip-2.1.2/src/core\dns.c ****               sizeof(struct dns_answer) <= SIZEOF_DNS_ANSWER_ASSERT);
 1423              		.loc 1 326 3
 329:C:/Users/stapi/OneDrive/Desktop/GD32VW553/V1_MQTT_OK/GD32VW55X_Wifi_BLE_SDK/GD32VW55x_RELEASE_V1.0.2/MSDK/lwip/lwip-2.1.2/src/core\dns.c **** 
 1424              		.loc 1 329 55
 351:C:/Users/stapi/OneDrive/Desktop/GD32VW553/V1_MQTT_OK/GD32VW55X_Wifi_BLE_SDK/GD32VW55x_RELEASE_V1.0.2/MSDK/lwip/lwip-2.1.2/src/core\dns.c **** 
 1425              		.loc 1 351 1 is_stmt 0
 1426 0000 8280     		ret
 1427              		.cfi_endproc
 1428              	.LFE4:
 1430              		.section	.text.dns_setserver,"ax",@progbits
 1431              		.align	1
 1432              		.globl	dns_setserver
 1434              	dns_setserver:
 1435              	.LFB5:
 362:C:/Users/stapi/OneDrive/Desktop/GD32VW553/V1_MQTT_OK/GD32VW55X_Wifi_BLE_SDK/GD32VW55x_RELEASE_V1.0.2/MSDK/lwip/lwip-2.1.2/src/core\dns.c ****   if (numdns < DNS_MAX_SERVERS) {
 1436              		.loc 1 362 1 is_stmt 1
 1437              		.cfi_startproc
 1438              	.LVL139:
 363:C:/Users/stapi/OneDrive/Desktop/GD32VW553/V1_MQTT_OK/GD32VW55X_Wifi_BLE_SDK/GD32VW55x_RELEASE_V1.0.2/MSDK/lwip/lwip-2.1.2/src/core\dns.c ****     if (dnsserver != NULL) {
 1439              		.loc 1 363 3
 363:C:/Users/stapi/OneDrive/Desktop/GD32VW553/V1_MQTT_OK/GD32VW55X_Wifi_BLE_SDK/GD32VW55x_RELEASE_V1.0.2/MSDK/lwip/lwip-2.1.2/src/core\dns.c ****     if (dnsserver != NULL) {
 1440              		.loc 1 363 6 is_stmt 0
 1441 0000 8547     		li	a5,1
 1442 0002 63EBA700 		bgtu	a0,a5,.L104
 364:C:/Users/stapi/OneDrive/Desktop/GD32VW553/V1_MQTT_OK/GD32VW55X_Wifi_BLE_SDK/GD32VW55x_RELEASE_V1.0.2/MSDK/lwip/lwip-2.1.2/src/core\dns.c ****       dns_servers[numdns] = (*dnsserver);
 1443              		.loc 1 364 5 is_stmt 1
 1444 0006 37070000 		lui	a4,%hi(.LANCHOR3)
 1445 000a 93070700 		addi	a5,a4,%lo(.LANCHOR3)
 1446 000e 0A05     		slli	a0,a0,2
 1447              	.LVL140:
 365:C:/Users/stapi/OneDrive/Desktop/GD32VW553/V1_MQTT_OK/GD32VW55X_Wifi_BLE_SDK/GD32VW55x_RELEASE_V1.0.2/MSDK/lwip/lwip-2.1.2/src/core\dns.c ****     } else {
 1448              		.loc 1 365 27 is_stmt 0
 1449 0010 AA97     		add	a5,a5,a0
 364:C:/Users/stapi/OneDrive/Desktop/GD32VW553/V1_MQTT_OK/GD32VW55X_Wifi_BLE_SDK/GD32VW55x_RELEASE_V1.0.2/MSDK/lwip/lwip-2.1.2/src/core\dns.c ****       dns_servers[numdns] = (*dnsserver);
 1450              		.loc 1 364 8
 1451 0012 81C5     		beq	a1,zero,.L106
 365:C:/Users/stapi/OneDrive/Desktop/GD32VW553/V1_MQTT_OK/GD32VW55X_Wifi_BLE_SDK/GD32VW55x_RELEASE_V1.0.2/MSDK/lwip/lwip-2.1.2/src/core\dns.c ****     } else {
 1452              		.loc 1 365 7 is_stmt 1
 365:C:/Users/stapi/OneDrive/Desktop/GD32VW553/V1_MQTT_OK/GD32VW55X_Wifi_BLE_SDK/GD32VW55x_RELEASE_V1.0.2/MSDK/lwip/lwip-2.1.2/src/core\dns.c ****     } else {
 1453              		.loc 1 365 27 is_stmt 0
 1454 0014 9841     		lw	a4,0(a1)
 1455              	.L107:
 367:C:/Users/stapi/OneDrive/Desktop/GD32VW553/V1_MQTT_OK/GD32VW55X_Wifi_BLE_SDK/GD32VW55x_RELEASE_V1.0.2/MSDK/lwip/lwip-2.1.2/src/core\dns.c ****     }
 1456              		.loc 1 367 27
 1457 0016 98C3     		sw	a4,0(a5)
 1458              	.L104:
 370:C:/Users/stapi/OneDrive/Desktop/GD32VW553/V1_MQTT_OK/GD32VW55X_Wifi_BLE_SDK/GD32VW55x_RELEASE_V1.0.2/MSDK/lwip/lwip-2.1.2/src/core\dns.c **** 
 1459              		.loc 1 370 1
 1460 0018 8280     		ret
 1461              	.L106:
 367:C:/Users/stapi/OneDrive/Desktop/GD32VW553/V1_MQTT_OK/GD32VW55X_Wifi_BLE_SDK/GD32VW55x_RELEASE_V1.0.2/MSDK/lwip/lwip-2.1.2/src/core\dns.c ****     }
 1462              		.loc 1 367 7 is_stmt 1
 367:C:/Users/stapi/OneDrive/Desktop/GD32VW553/V1_MQTT_OK/GD32VW55X_Wifi_BLE_SDK/GD32VW55x_RELEASE_V1.0.2/MSDK/lwip/lwip-2.1.2/src/core\dns.c ****     }
 1463              		.loc 1 367 27 is_stmt 0
 1464 001a 37070000 		lui	a4,%hi(ip_addr_any)
 1465 001e 03270700 		lw	a4,%lo(ip_addr_any)(a4)
 1466 0022 D5BF     		j	.L107
 1467              		.cfi_endproc
 1468              	.LFE5:
 1470              		.section	.text.dns_getserver,"ax",@progbits
 1471              		.align	1
 1472              		.globl	dns_getserver
 1474              	dns_getserver:
 1475              	.LFB6:
 382:C:/Users/stapi/OneDrive/Desktop/GD32VW553/V1_MQTT_OK/GD32VW55X_Wifi_BLE_SDK/GD32VW55x_RELEASE_V1.0.2/MSDK/lwip/lwip-2.1.2/src/core\dns.c ****   if (numdns < DNS_MAX_SERVERS) {
 1476              		.loc 1 382 1 is_stmt 1
 1477              		.cfi_startproc
 1478              	.LVL141:
 383:C:/Users/stapi/OneDrive/Desktop/GD32VW553/V1_MQTT_OK/GD32VW55X_Wifi_BLE_SDK/GD32VW55x_RELEASE_V1.0.2/MSDK/lwip/lwip-2.1.2/src/core\dns.c ****     return &dns_servers[numdns];
 1479              		.loc 1 383 3
 383:C:/Users/stapi/OneDrive/Desktop/GD32VW553/V1_MQTT_OK/GD32VW55X_Wifi_BLE_SDK/GD32VW55x_RELEASE_V1.0.2/MSDK/lwip/lwip-2.1.2/src/core\dns.c ****     return &dns_servers[numdns];
 1480              		.loc 1 383 6 is_stmt 0
 1481 0000 8547     		li	a5,1
 1482 0002 63E9A700 		bgtu	a0,a5,.L110
 384:C:/Users/stapi/OneDrive/Desktop/GD32VW553/V1_MQTT_OK/GD32VW55X_Wifi_BLE_SDK/GD32VW55x_RELEASE_V1.0.2/MSDK/lwip/lwip-2.1.2/src/core\dns.c ****   } else {
 1483              		.loc 1 384 5 is_stmt 1
 384:C:/Users/stapi/OneDrive/Desktop/GD32VW553/V1_MQTT_OK/GD32VW55X_Wifi_BLE_SDK/GD32VW55x_RELEASE_V1.0.2/MSDK/lwip/lwip-2.1.2/src/core\dns.c ****   } else {
 1484              		.loc 1 384 12 is_stmt 0
 1485 0006 B7070000 		lui	a5,%hi(.LANCHOR3)
 1486 000a 93870700 		addi	a5,a5,%lo(.LANCHOR3)
 1487 000e 3345F520 		sh2add	a0,a0,a5
 1488              	.LVL142:
 1489 0012 8280     		ret
 1490              	.LVL143:
 1491              	.L110:
 386:C:/Users/stapi/OneDrive/Desktop/GD32VW553/V1_MQTT_OK/GD32VW55X_Wifi_BLE_SDK/GD32VW55x_RELEASE_V1.0.2/MSDK/lwip/lwip-2.1.2/src/core\dns.c ****   }
 1492              		.loc 1 386 12
 1493 0014 37050000 		lui	a0,%hi(ip_addr_any)
 1494              	.LVL144:
 1495 0018 13050500 		addi	a0,a0,%lo(ip_addr_any)
 388:C:/Users/stapi/OneDrive/Desktop/GD32VW553/V1_MQTT_OK/GD32VW55X_Wifi_BLE_SDK/GD32VW55x_RELEASE_V1.0.2/MSDK/lwip/lwip-2.1.2/src/core\dns.c **** 
 1496              		.loc 1 388 1
 1497 001c 8280     		ret
 1498              		.cfi_endproc
 1499              	.LFE6:
 1501              		.section	.text.dns_tmr,"ax",@progbits
 1502              		.align	1
 1503              		.globl	dns_tmr
 1505              	dns_tmr:
 1506              	.LFB7:
 396:C:/Users/stapi/OneDrive/Desktop/GD32VW553/V1_MQTT_OK/GD32VW55X_Wifi_BLE_SDK/GD32VW55x_RELEASE_V1.0.2/MSDK/lwip/lwip-2.1.2/src/core\dns.c ****   LWIP_DEBUGF(DNS_DEBUG, ("dns_tmr: dns_check_entries\n"));
 1507              		.loc 1 396 1 is_stmt 1
 1508              		.cfi_startproc
 1509 0000 17030000 		call	t0,__riscv_save_0
 1509      E7020300 
 1510              		.cfi_offset 1, -4
 1511              		.cfi_def_cfa_offset 16
 397:C:/Users/stapi/OneDrive/Desktop/GD32VW553/V1_MQTT_OK/GD32VW55X_Wifi_BLE_SDK/GD32VW55x_RELEASE_V1.0.2/MSDK/lwip/lwip-2.1.2/src/core\dns.c ****   dns_check_entries();
 1512              		.loc 1 397 59
 398:C:/Users/stapi/OneDrive/Desktop/GD32VW553/V1_MQTT_OK/GD32VW55X_Wifi_BLE_SDK/GD32VW55x_RELEASE_V1.0.2/MSDK/lwip/lwip-2.1.2/src/core\dns.c **** }
 1513              		.loc 1 398 3
 1514              	.LBB73:
 1515              	.LBB74:
1126:C:/Users/stapi/OneDrive/Desktop/GD32VW553/V1_MQTT_OK/GD32VW55X_Wifi_BLE_SDK/GD32VW55x_RELEASE_V1.0.2/MSDK/lwip/lwip-2.1.2/src/core\dns.c **** 
 1516              		.loc 1 1126 3
1128:C:/Users/stapi/OneDrive/Desktop/GD32VW553/V1_MQTT_OK/GD32VW55X_Wifi_BLE_SDK/GD32VW55x_RELEASE_V1.0.2/MSDK/lwip/lwip-2.1.2/src/core\dns.c ****     dns_check_entry(i);
 1517              		.loc 1 1128 3
 1518              	.LVL145:
1128:C:/Users/stapi/OneDrive/Desktop/GD32VW553/V1_MQTT_OK/GD32VW55X_Wifi_BLE_SDK/GD32VW55x_RELEASE_V1.0.2/MSDK/lwip/lwip-2.1.2/src/core\dns.c ****     dns_check_entry(i);
 1519              		.loc 1 1128 15
1129:C:/Users/stapi/OneDrive/Desktop/GD32VW553/V1_MQTT_OK/GD32VW55X_Wifi_BLE_SDK/GD32VW55x_RELEASE_V1.0.2/MSDK/lwip/lwip-2.1.2/src/core\dns.c ****   }
 1520              		.loc 1 1129 5
 1521 0008 0145     		li	a0,0
 1522 000a 97000000 		call	dns_check_entry
 1522      E7800000 
 1523              	.LVL146:
1128:C:/Users/stapi/OneDrive/Desktop/GD32VW553/V1_MQTT_OK/GD32VW55X_Wifi_BLE_SDK/GD32VW55x_RELEASE_V1.0.2/MSDK/lwip/lwip-2.1.2/src/core\dns.c ****     dns_check_entry(i);
 1524              		.loc 1 1128 35
1128:C:/Users/stapi/OneDrive/Desktop/GD32VW553/V1_MQTT_OK/GD32VW55X_Wifi_BLE_SDK/GD32VW55x_RELEASE_V1.0.2/MSDK/lwip/lwip-2.1.2/src/core\dns.c ****     dns_check_entry(i);
 1525              		.loc 1 1128 15
1129:C:/Users/stapi/OneDrive/Desktop/GD32VW553/V1_MQTT_OK/GD32VW55X_Wifi_BLE_SDK/GD32VW55x_RELEASE_V1.0.2/MSDK/lwip/lwip-2.1.2/src/core\dns.c ****   }
 1526              		.loc 1 1129 5
 1527 0012 0545     		li	a0,1
 1528 0014 97000000 		call	dns_check_entry
 1528      E7800000 
 1529              	.LVL147:
1128:C:/Users/stapi/OneDrive/Desktop/GD32VW553/V1_MQTT_OK/GD32VW55X_Wifi_BLE_SDK/GD32VW55x_RELEASE_V1.0.2/MSDK/lwip/lwip-2.1.2/src/core\dns.c ****     dns_check_entry(i);
 1530              		.loc 1 1128 35
1128:C:/Users/stapi/OneDrive/Desktop/GD32VW553/V1_MQTT_OK/GD32VW55X_Wifi_BLE_SDK/GD32VW55x_RELEASE_V1.0.2/MSDK/lwip/lwip-2.1.2/src/core\dns.c ****     dns_check_entry(i);
 1531              		.loc 1 1128 15
1129:C:/Users/stapi/OneDrive/Desktop/GD32VW553/V1_MQTT_OK/GD32VW55X_Wifi_BLE_SDK/GD32VW55x_RELEASE_V1.0.2/MSDK/lwip/lwip-2.1.2/src/core\dns.c ****   }
 1532              		.loc 1 1129 5
 1533 001c 0945     		li	a0,2
 1534 001e 97000000 		call	dns_check_entry
 1534      E7800000 
 1535              	.LVL148:
1128:C:/Users/stapi/OneDrive/Desktop/GD32VW553/V1_MQTT_OK/GD32VW55X_Wifi_BLE_SDK/GD32VW55x_RELEASE_V1.0.2/MSDK/lwip/lwip-2.1.2/src/core\dns.c ****     dns_check_entry(i);
 1536              		.loc 1 1128 35
1128:C:/Users/stapi/OneDrive/Desktop/GD32VW553/V1_MQTT_OK/GD32VW55X_Wifi_BLE_SDK/GD32VW55x_RELEASE_V1.0.2/MSDK/lwip/lwip-2.1.2/src/core\dns.c ****     dns_check_entry(i);
 1537              		.loc 1 1128 15
1129:C:/Users/stapi/OneDrive/Desktop/GD32VW553/V1_MQTT_OK/GD32VW55X_Wifi_BLE_SDK/GD32VW55x_RELEASE_V1.0.2/MSDK/lwip/lwip-2.1.2/src/core\dns.c ****   }
 1538              		.loc 1 1129 5
 1539 0026 0D45     		li	a0,3
 1540 0028 97000000 		call	dns_check_entry
 1540      E7800000 
 1541              	.LVL149:
1128:C:/Users/stapi/OneDrive/Desktop/GD32VW553/V1_MQTT_OK/GD32VW55X_Wifi_BLE_SDK/GD32VW55x_RELEASE_V1.0.2/MSDK/lwip/lwip-2.1.2/src/core\dns.c ****     dns_check_entry(i);
 1542              		.loc 1 1128 35
1128:C:/Users/stapi/OneDrive/Desktop/GD32VW553/V1_MQTT_OK/GD32VW55X_Wifi_BLE_SDK/GD32VW55x_RELEASE_V1.0.2/MSDK/lwip/lwip-2.1.2/src/core\dns.c ****     dns_check_entry(i);
 1543              		.loc 1 1128 15
 1544              	.LBE74:
 1545              	.LBE73:
 399:C:/Users/stapi/OneDrive/Desktop/GD32VW553/V1_MQTT_OK/GD32VW55X_Wifi_BLE_SDK/GD32VW55x_RELEASE_V1.0.2/MSDK/lwip/lwip-2.1.2/src/core\dns.c **** 
 1546              		.loc 1 399 1 is_stmt 0
 1547 0030 17030000 		tail	__riscv_restore_0
 1547      67000300 
 1548              		.cfi_restore 1
 1549              		.cfi_def_cfa_offset 0
 1550              		.cfi_endproc
 1551              	.LFE7:
 1553              		.section	.rodata.dns_gethostbyname_addrtype.str1.4,"aMS",@progbits,1
 1554              		.align	2
 1555              	.LC5:
 1556 0000 6C6F6361 		.string	"localhost"
 1556      6C686F73 
 1556      7400
 1557              		.section	.text.dns_gethostbyname_addrtype,"ax",@progbits
 1558              		.align	1
 1559              		.globl	dns_gethostbyname_addrtype
 1561              	dns_gethostbyname_addrtype:
 1562              	.LFB23:
1364:C:/Users/stapi/OneDrive/Desktop/GD32VW553/V1_MQTT_OK/GD32VW55X_Wifi_BLE_SDK/GD32VW55x_RELEASE_V1.0.2/MSDK/lwip/lwip-2.1.2/src/core\dns.c **** 
1365:C:/Users/stapi/OneDrive/Desktop/GD32VW553/V1_MQTT_OK/GD32VW55X_Wifi_BLE_SDK/GD32VW55x_RELEASE_V1.0.2/MSDK/lwip/lwip-2.1.2/src/core\dns.c **** /**
1366:C:/Users/stapi/OneDrive/Desktop/GD32VW553/V1_MQTT_OK/GD32VW55X_Wifi_BLE_SDK/GD32VW55x_RELEASE_V1.0.2/MSDK/lwip/lwip-2.1.2/src/core\dns.c ****  * Queues a new hostname to resolve and sends out a DNS query for that hostname
1367:C:/Users/stapi/OneDrive/Desktop/GD32VW553/V1_MQTT_OK/GD32VW55X_Wifi_BLE_SDK/GD32VW55x_RELEASE_V1.0.2/MSDK/lwip/lwip-2.1.2/src/core\dns.c ****  *
1368:C:/Users/stapi/OneDrive/Desktop/GD32VW553/V1_MQTT_OK/GD32VW55X_Wifi_BLE_SDK/GD32VW55x_RELEASE_V1.0.2/MSDK/lwip/lwip-2.1.2/src/core\dns.c ****  * @param name the hostname that is to be queried
1369:C:/Users/stapi/OneDrive/Desktop/GD32VW553/V1_MQTT_OK/GD32VW55X_Wifi_BLE_SDK/GD32VW55x_RELEASE_V1.0.2/MSDK/lwip/lwip-2.1.2/src/core\dns.c ****  * @param hostnamelen length of the hostname
1370:C:/Users/stapi/OneDrive/Desktop/GD32VW553/V1_MQTT_OK/GD32VW55X_Wifi_BLE_SDK/GD32VW55x_RELEASE_V1.0.2/MSDK/lwip/lwip-2.1.2/src/core\dns.c ****  * @param found a callback function to be called on success, failure or timeout
1371:C:/Users/stapi/OneDrive/Desktop/GD32VW553/V1_MQTT_OK/GD32VW55X_Wifi_BLE_SDK/GD32VW55x_RELEASE_V1.0.2/MSDK/lwip/lwip-2.1.2/src/core\dns.c ****  * @param callback_arg argument to pass to the callback function
1372:C:/Users/stapi/OneDrive/Desktop/GD32VW553/V1_MQTT_OK/GD32VW55X_Wifi_BLE_SDK/GD32VW55x_RELEASE_V1.0.2/MSDK/lwip/lwip-2.1.2/src/core\dns.c ****  * @return err_t return code.
1373:C:/Users/stapi/OneDrive/Desktop/GD32VW553/V1_MQTT_OK/GD32VW55X_Wifi_BLE_SDK/GD32VW55x_RELEASE_V1.0.2/MSDK/lwip/lwip-2.1.2/src/core\dns.c ****  */
1374:C:/Users/stapi/OneDrive/Desktop/GD32VW553/V1_MQTT_OK/GD32VW55X_Wifi_BLE_SDK/GD32VW55x_RELEASE_V1.0.2/MSDK/lwip/lwip-2.1.2/src/core\dns.c **** static err_t
1375:C:/Users/stapi/OneDrive/Desktop/GD32VW553/V1_MQTT_OK/GD32VW55X_Wifi_BLE_SDK/GD32VW55x_RELEASE_V1.0.2/MSDK/lwip/lwip-2.1.2/src/core\dns.c **** dns_enqueue(const char *name, size_t hostnamelen, dns_found_callback found,
1376:C:/Users/stapi/OneDrive/Desktop/GD32VW553/V1_MQTT_OK/GD32VW55X_Wifi_BLE_SDK/GD32VW55x_RELEASE_V1.0.2/MSDK/lwip/lwip-2.1.2/src/core\dns.c ****             void *callback_arg LWIP_DNS_ADDRTYPE_ARG(u8_t dns_addrtype) LWIP_DNS_ISMDNS_ARG(u8_t is
1377:C:/Users/stapi/OneDrive/Desktop/GD32VW553/V1_MQTT_OK/GD32VW55X_Wifi_BLE_SDK/GD32VW55x_RELEASE_V1.0.2/MSDK/lwip/lwip-2.1.2/src/core\dns.c **** {
1378:C:/Users/stapi/OneDrive/Desktop/GD32VW553/V1_MQTT_OK/GD32VW55X_Wifi_BLE_SDK/GD32VW55x_RELEASE_V1.0.2/MSDK/lwip/lwip-2.1.2/src/core\dns.c ****   u8_t i;
1379:C:/Users/stapi/OneDrive/Desktop/GD32VW553/V1_MQTT_OK/GD32VW55X_Wifi_BLE_SDK/GD32VW55x_RELEASE_V1.0.2/MSDK/lwip/lwip-2.1.2/src/core\dns.c ****   u8_t lseq, lseqi;
1380:C:/Users/stapi/OneDrive/Desktop/GD32VW553/V1_MQTT_OK/GD32VW55X_Wifi_BLE_SDK/GD32VW55x_RELEASE_V1.0.2/MSDK/lwip/lwip-2.1.2/src/core\dns.c ****   struct dns_table_entry *entry = NULL;
1381:C:/Users/stapi/OneDrive/Desktop/GD32VW553/V1_MQTT_OK/GD32VW55X_Wifi_BLE_SDK/GD32VW55x_RELEASE_V1.0.2/MSDK/lwip/lwip-2.1.2/src/core\dns.c ****   size_t namelen;
1382:C:/Users/stapi/OneDrive/Desktop/GD32VW553/V1_MQTT_OK/GD32VW55X_Wifi_BLE_SDK/GD32VW55x_RELEASE_V1.0.2/MSDK/lwip/lwip-2.1.2/src/core\dns.c ****   struct dns_req_entry *req;
1383:C:/Users/stapi/OneDrive/Desktop/GD32VW553/V1_MQTT_OK/GD32VW55X_Wifi_BLE_SDK/GD32VW55x_RELEASE_V1.0.2/MSDK/lwip/lwip-2.1.2/src/core\dns.c **** 
1384:C:/Users/stapi/OneDrive/Desktop/GD32VW553/V1_MQTT_OK/GD32VW55X_Wifi_BLE_SDK/GD32VW55x_RELEASE_V1.0.2/MSDK/lwip/lwip-2.1.2/src/core\dns.c **** #if ((LWIP_DNS_SECURE & LWIP_DNS_SECURE_NO_MULTIPLE_OUTSTANDING) != 0)
1385:C:/Users/stapi/OneDrive/Desktop/GD32VW553/V1_MQTT_OK/GD32VW55X_Wifi_BLE_SDK/GD32VW55x_RELEASE_V1.0.2/MSDK/lwip/lwip-2.1.2/src/core\dns.c ****   u8_t r;
1386:C:/Users/stapi/OneDrive/Desktop/GD32VW553/V1_MQTT_OK/GD32VW55X_Wifi_BLE_SDK/GD32VW55x_RELEASE_V1.0.2/MSDK/lwip/lwip-2.1.2/src/core\dns.c ****   /* check for duplicate entries */
1387:C:/Users/stapi/OneDrive/Desktop/GD32VW553/V1_MQTT_OK/GD32VW55X_Wifi_BLE_SDK/GD32VW55x_RELEASE_V1.0.2/MSDK/lwip/lwip-2.1.2/src/core\dns.c ****   for (i = 0; i < DNS_TABLE_SIZE; i++) {
1388:C:/Users/stapi/OneDrive/Desktop/GD32VW553/V1_MQTT_OK/GD32VW55X_Wifi_BLE_SDK/GD32VW55x_RELEASE_V1.0.2/MSDK/lwip/lwip-2.1.2/src/core\dns.c ****     if ((dns_table[i].state == DNS_STATE_ASKING) &&
1389:C:/Users/stapi/OneDrive/Desktop/GD32VW553/V1_MQTT_OK/GD32VW55X_Wifi_BLE_SDK/GD32VW55x_RELEASE_V1.0.2/MSDK/lwip/lwip-2.1.2/src/core\dns.c ****         (lwip_strnicmp(name, dns_table[i].name, sizeof(dns_table[i].name)) == 0)) {
1390:C:/Users/stapi/OneDrive/Desktop/GD32VW553/V1_MQTT_OK/GD32VW55X_Wifi_BLE_SDK/GD32VW55x_RELEASE_V1.0.2/MSDK/lwip/lwip-2.1.2/src/core\dns.c **** #if LWIP_IPV4 && LWIP_IPV6
1391:C:/Users/stapi/OneDrive/Desktop/GD32VW553/V1_MQTT_OK/GD32VW55X_Wifi_BLE_SDK/GD32VW55x_RELEASE_V1.0.2/MSDK/lwip/lwip-2.1.2/src/core\dns.c ****       if (dns_table[i].reqaddrtype != dns_addrtype) {
1392:C:/Users/stapi/OneDrive/Desktop/GD32VW553/V1_MQTT_OK/GD32VW55X_Wifi_BLE_SDK/GD32VW55x_RELEASE_V1.0.2/MSDK/lwip/lwip-2.1.2/src/core\dns.c ****         /* requested address types don't match
1393:C:/Users/stapi/OneDrive/Desktop/GD32VW553/V1_MQTT_OK/GD32VW55X_Wifi_BLE_SDK/GD32VW55x_RELEASE_V1.0.2/MSDK/lwip/lwip-2.1.2/src/core\dns.c ****            this can lead to 2 concurrent requests, but mixing the address types
1394:C:/Users/stapi/OneDrive/Desktop/GD32VW553/V1_MQTT_OK/GD32VW55X_Wifi_BLE_SDK/GD32VW55x_RELEASE_V1.0.2/MSDK/lwip/lwip-2.1.2/src/core\dns.c ****            for the same host should not be that common */
1395:C:/Users/stapi/OneDrive/Desktop/GD32VW553/V1_MQTT_OK/GD32VW55X_Wifi_BLE_SDK/GD32VW55x_RELEASE_V1.0.2/MSDK/lwip/lwip-2.1.2/src/core\dns.c ****         continue;
1396:C:/Users/stapi/OneDrive/Desktop/GD32VW553/V1_MQTT_OK/GD32VW55X_Wifi_BLE_SDK/GD32VW55x_RELEASE_V1.0.2/MSDK/lwip/lwip-2.1.2/src/core\dns.c ****       }
1397:C:/Users/stapi/OneDrive/Desktop/GD32VW553/V1_MQTT_OK/GD32VW55X_Wifi_BLE_SDK/GD32VW55x_RELEASE_V1.0.2/MSDK/lwip/lwip-2.1.2/src/core\dns.c **** #endif /* LWIP_IPV4 && LWIP_IPV6 */
1398:C:/Users/stapi/OneDrive/Desktop/GD32VW553/V1_MQTT_OK/GD32VW55X_Wifi_BLE_SDK/GD32VW55x_RELEASE_V1.0.2/MSDK/lwip/lwip-2.1.2/src/core\dns.c ****       /* this is a duplicate entry, find a free request entry */
1399:C:/Users/stapi/OneDrive/Desktop/GD32VW553/V1_MQTT_OK/GD32VW55X_Wifi_BLE_SDK/GD32VW55x_RELEASE_V1.0.2/MSDK/lwip/lwip-2.1.2/src/core\dns.c ****       for (r = 0; r < DNS_MAX_REQUESTS; r++) {
1400:C:/Users/stapi/OneDrive/Desktop/GD32VW553/V1_MQTT_OK/GD32VW55X_Wifi_BLE_SDK/GD32VW55x_RELEASE_V1.0.2/MSDK/lwip/lwip-2.1.2/src/core\dns.c ****         if (dns_requests[r].found == 0) {
1401:C:/Users/stapi/OneDrive/Desktop/GD32VW553/V1_MQTT_OK/GD32VW55X_Wifi_BLE_SDK/GD32VW55x_RELEASE_V1.0.2/MSDK/lwip/lwip-2.1.2/src/core\dns.c ****           dns_requests[r].found = found;
1402:C:/Users/stapi/OneDrive/Desktop/GD32VW553/V1_MQTT_OK/GD32VW55X_Wifi_BLE_SDK/GD32VW55x_RELEASE_V1.0.2/MSDK/lwip/lwip-2.1.2/src/core\dns.c ****           dns_requests[r].arg = callback_arg;
1403:C:/Users/stapi/OneDrive/Desktop/GD32VW553/V1_MQTT_OK/GD32VW55X_Wifi_BLE_SDK/GD32VW55x_RELEASE_V1.0.2/MSDK/lwip/lwip-2.1.2/src/core\dns.c ****           dns_requests[r].dns_table_idx = i;
1404:C:/Users/stapi/OneDrive/Desktop/GD32VW553/V1_MQTT_OK/GD32VW55X_Wifi_BLE_SDK/GD32VW55x_RELEASE_V1.0.2/MSDK/lwip/lwip-2.1.2/src/core\dns.c ****           LWIP_DNS_SET_ADDRTYPE(dns_requests[r].reqaddrtype, dns_addrtype);
1405:C:/Users/stapi/OneDrive/Desktop/GD32VW553/V1_MQTT_OK/GD32VW55X_Wifi_BLE_SDK/GD32VW55x_RELEASE_V1.0.2/MSDK/lwip/lwip-2.1.2/src/core\dns.c ****           LWIP_DEBUGF(DNS_DEBUG, ("dns_enqueue: \"%s\": duplicate request\n", name));
1406:C:/Users/stapi/OneDrive/Desktop/GD32VW553/V1_MQTT_OK/GD32VW55X_Wifi_BLE_SDK/GD32VW55x_RELEASE_V1.0.2/MSDK/lwip/lwip-2.1.2/src/core\dns.c ****           return ERR_INPROGRESS;
1407:C:/Users/stapi/OneDrive/Desktop/GD32VW553/V1_MQTT_OK/GD32VW55X_Wifi_BLE_SDK/GD32VW55x_RELEASE_V1.0.2/MSDK/lwip/lwip-2.1.2/src/core\dns.c ****         }
1408:C:/Users/stapi/OneDrive/Desktop/GD32VW553/V1_MQTT_OK/GD32VW55X_Wifi_BLE_SDK/GD32VW55x_RELEASE_V1.0.2/MSDK/lwip/lwip-2.1.2/src/core\dns.c ****       }
1409:C:/Users/stapi/OneDrive/Desktop/GD32VW553/V1_MQTT_OK/GD32VW55X_Wifi_BLE_SDK/GD32VW55x_RELEASE_V1.0.2/MSDK/lwip/lwip-2.1.2/src/core\dns.c ****     }
1410:C:/Users/stapi/OneDrive/Desktop/GD32VW553/V1_MQTT_OK/GD32VW55X_Wifi_BLE_SDK/GD32VW55x_RELEASE_V1.0.2/MSDK/lwip/lwip-2.1.2/src/core\dns.c ****   }
1411:C:/Users/stapi/OneDrive/Desktop/GD32VW553/V1_MQTT_OK/GD32VW55X_Wifi_BLE_SDK/GD32VW55x_RELEASE_V1.0.2/MSDK/lwip/lwip-2.1.2/src/core\dns.c ****   /* no duplicate entries found */
1412:C:/Users/stapi/OneDrive/Desktop/GD32VW553/V1_MQTT_OK/GD32VW55X_Wifi_BLE_SDK/GD32VW55x_RELEASE_V1.0.2/MSDK/lwip/lwip-2.1.2/src/core\dns.c **** #endif
1413:C:/Users/stapi/OneDrive/Desktop/GD32VW553/V1_MQTT_OK/GD32VW55X_Wifi_BLE_SDK/GD32VW55x_RELEASE_V1.0.2/MSDK/lwip/lwip-2.1.2/src/core\dns.c **** 
1414:C:/Users/stapi/OneDrive/Desktop/GD32VW553/V1_MQTT_OK/GD32VW55X_Wifi_BLE_SDK/GD32VW55x_RELEASE_V1.0.2/MSDK/lwip/lwip-2.1.2/src/core\dns.c ****   /* search an unused entry, or the oldest one */
1415:C:/Users/stapi/OneDrive/Desktop/GD32VW553/V1_MQTT_OK/GD32VW55X_Wifi_BLE_SDK/GD32VW55x_RELEASE_V1.0.2/MSDK/lwip/lwip-2.1.2/src/core\dns.c ****   lseq = 0;
1416:C:/Users/stapi/OneDrive/Desktop/GD32VW553/V1_MQTT_OK/GD32VW55X_Wifi_BLE_SDK/GD32VW55x_RELEASE_V1.0.2/MSDK/lwip/lwip-2.1.2/src/core\dns.c ****   lseqi = DNS_TABLE_SIZE;
1417:C:/Users/stapi/OneDrive/Desktop/GD32VW553/V1_MQTT_OK/GD32VW55X_Wifi_BLE_SDK/GD32VW55x_RELEASE_V1.0.2/MSDK/lwip/lwip-2.1.2/src/core\dns.c ****   for (i = 0; i < DNS_TABLE_SIZE; ++i) {
1418:C:/Users/stapi/OneDrive/Desktop/GD32VW553/V1_MQTT_OK/GD32VW55X_Wifi_BLE_SDK/GD32VW55x_RELEASE_V1.0.2/MSDK/lwip/lwip-2.1.2/src/core\dns.c ****     entry = &dns_table[i];
1419:C:/Users/stapi/OneDrive/Desktop/GD32VW553/V1_MQTT_OK/GD32VW55X_Wifi_BLE_SDK/GD32VW55x_RELEASE_V1.0.2/MSDK/lwip/lwip-2.1.2/src/core\dns.c ****     /* is it an unused entry ? */
1420:C:/Users/stapi/OneDrive/Desktop/GD32VW553/V1_MQTT_OK/GD32VW55X_Wifi_BLE_SDK/GD32VW55x_RELEASE_V1.0.2/MSDK/lwip/lwip-2.1.2/src/core\dns.c ****     if (entry->state == DNS_STATE_UNUSED) {
1421:C:/Users/stapi/OneDrive/Desktop/GD32VW553/V1_MQTT_OK/GD32VW55X_Wifi_BLE_SDK/GD32VW55x_RELEASE_V1.0.2/MSDK/lwip/lwip-2.1.2/src/core\dns.c ****       break;
1422:C:/Users/stapi/OneDrive/Desktop/GD32VW553/V1_MQTT_OK/GD32VW55X_Wifi_BLE_SDK/GD32VW55x_RELEASE_V1.0.2/MSDK/lwip/lwip-2.1.2/src/core\dns.c ****     }
1423:C:/Users/stapi/OneDrive/Desktop/GD32VW553/V1_MQTT_OK/GD32VW55X_Wifi_BLE_SDK/GD32VW55x_RELEASE_V1.0.2/MSDK/lwip/lwip-2.1.2/src/core\dns.c ****     /* check if this is the oldest completed entry */
1424:C:/Users/stapi/OneDrive/Desktop/GD32VW553/V1_MQTT_OK/GD32VW55X_Wifi_BLE_SDK/GD32VW55x_RELEASE_V1.0.2/MSDK/lwip/lwip-2.1.2/src/core\dns.c ****     if (entry->state == DNS_STATE_DONE) {
1425:C:/Users/stapi/OneDrive/Desktop/GD32VW553/V1_MQTT_OK/GD32VW55X_Wifi_BLE_SDK/GD32VW55x_RELEASE_V1.0.2/MSDK/lwip/lwip-2.1.2/src/core\dns.c ****       u8_t age = (u8_t)(dns_seqno - entry->seqno);
1426:C:/Users/stapi/OneDrive/Desktop/GD32VW553/V1_MQTT_OK/GD32VW55X_Wifi_BLE_SDK/GD32VW55x_RELEASE_V1.0.2/MSDK/lwip/lwip-2.1.2/src/core\dns.c ****       if (age > lseq) {
1427:C:/Users/stapi/OneDrive/Desktop/GD32VW553/V1_MQTT_OK/GD32VW55X_Wifi_BLE_SDK/GD32VW55x_RELEASE_V1.0.2/MSDK/lwip/lwip-2.1.2/src/core\dns.c ****         lseq = age;
1428:C:/Users/stapi/OneDrive/Desktop/GD32VW553/V1_MQTT_OK/GD32VW55X_Wifi_BLE_SDK/GD32VW55x_RELEASE_V1.0.2/MSDK/lwip/lwip-2.1.2/src/core\dns.c ****         lseqi = i;
1429:C:/Users/stapi/OneDrive/Desktop/GD32VW553/V1_MQTT_OK/GD32VW55X_Wifi_BLE_SDK/GD32VW55x_RELEASE_V1.0.2/MSDK/lwip/lwip-2.1.2/src/core\dns.c ****       }
1430:C:/Users/stapi/OneDrive/Desktop/GD32VW553/V1_MQTT_OK/GD32VW55X_Wifi_BLE_SDK/GD32VW55x_RELEASE_V1.0.2/MSDK/lwip/lwip-2.1.2/src/core\dns.c ****     }
1431:C:/Users/stapi/OneDrive/Desktop/GD32VW553/V1_MQTT_OK/GD32VW55X_Wifi_BLE_SDK/GD32VW55x_RELEASE_V1.0.2/MSDK/lwip/lwip-2.1.2/src/core\dns.c ****   }
1432:C:/Users/stapi/OneDrive/Desktop/GD32VW553/V1_MQTT_OK/GD32VW55X_Wifi_BLE_SDK/GD32VW55x_RELEASE_V1.0.2/MSDK/lwip/lwip-2.1.2/src/core\dns.c **** 
1433:C:/Users/stapi/OneDrive/Desktop/GD32VW553/V1_MQTT_OK/GD32VW55X_Wifi_BLE_SDK/GD32VW55x_RELEASE_V1.0.2/MSDK/lwip/lwip-2.1.2/src/core\dns.c ****   /* if we don't have found an unused entry, use the oldest completed one */
1434:C:/Users/stapi/OneDrive/Desktop/GD32VW553/V1_MQTT_OK/GD32VW55X_Wifi_BLE_SDK/GD32VW55x_RELEASE_V1.0.2/MSDK/lwip/lwip-2.1.2/src/core\dns.c ****   if (i == DNS_TABLE_SIZE) {
1435:C:/Users/stapi/OneDrive/Desktop/GD32VW553/V1_MQTT_OK/GD32VW55X_Wifi_BLE_SDK/GD32VW55x_RELEASE_V1.0.2/MSDK/lwip/lwip-2.1.2/src/core\dns.c ****     if ((lseqi >= DNS_TABLE_SIZE) || (dns_table[lseqi].state != DNS_STATE_DONE)) {
1436:C:/Users/stapi/OneDrive/Desktop/GD32VW553/V1_MQTT_OK/GD32VW55X_Wifi_BLE_SDK/GD32VW55x_RELEASE_V1.0.2/MSDK/lwip/lwip-2.1.2/src/core\dns.c ****       /* no entry can be used now, table is full */
1437:C:/Users/stapi/OneDrive/Desktop/GD32VW553/V1_MQTT_OK/GD32VW55X_Wifi_BLE_SDK/GD32VW55x_RELEASE_V1.0.2/MSDK/lwip/lwip-2.1.2/src/core\dns.c ****       LWIP_DEBUGF(DNS_DEBUG, ("dns_enqueue: \"%s\": DNS entries table is full\n", name));
1438:C:/Users/stapi/OneDrive/Desktop/GD32VW553/V1_MQTT_OK/GD32VW55X_Wifi_BLE_SDK/GD32VW55x_RELEASE_V1.0.2/MSDK/lwip/lwip-2.1.2/src/core\dns.c ****       return ERR_MEM;
1439:C:/Users/stapi/OneDrive/Desktop/GD32VW553/V1_MQTT_OK/GD32VW55X_Wifi_BLE_SDK/GD32VW55x_RELEASE_V1.0.2/MSDK/lwip/lwip-2.1.2/src/core\dns.c ****     } else {
1440:C:/Users/stapi/OneDrive/Desktop/GD32VW553/V1_MQTT_OK/GD32VW55X_Wifi_BLE_SDK/GD32VW55x_RELEASE_V1.0.2/MSDK/lwip/lwip-2.1.2/src/core\dns.c ****       /* use the oldest completed one */
1441:C:/Users/stapi/OneDrive/Desktop/GD32VW553/V1_MQTT_OK/GD32VW55X_Wifi_BLE_SDK/GD32VW55x_RELEASE_V1.0.2/MSDK/lwip/lwip-2.1.2/src/core\dns.c ****       i = lseqi;
1442:C:/Users/stapi/OneDrive/Desktop/GD32VW553/V1_MQTT_OK/GD32VW55X_Wifi_BLE_SDK/GD32VW55x_RELEASE_V1.0.2/MSDK/lwip/lwip-2.1.2/src/core\dns.c ****       entry = &dns_table[i];
1443:C:/Users/stapi/OneDrive/Desktop/GD32VW553/V1_MQTT_OK/GD32VW55X_Wifi_BLE_SDK/GD32VW55x_RELEASE_V1.0.2/MSDK/lwip/lwip-2.1.2/src/core\dns.c ****     }
1444:C:/Users/stapi/OneDrive/Desktop/GD32VW553/V1_MQTT_OK/GD32VW55X_Wifi_BLE_SDK/GD32VW55x_RELEASE_V1.0.2/MSDK/lwip/lwip-2.1.2/src/core\dns.c ****   }
1445:C:/Users/stapi/OneDrive/Desktop/GD32VW553/V1_MQTT_OK/GD32VW55X_Wifi_BLE_SDK/GD32VW55x_RELEASE_V1.0.2/MSDK/lwip/lwip-2.1.2/src/core\dns.c **** 
1446:C:/Users/stapi/OneDrive/Desktop/GD32VW553/V1_MQTT_OK/GD32VW55X_Wifi_BLE_SDK/GD32VW55x_RELEASE_V1.0.2/MSDK/lwip/lwip-2.1.2/src/core\dns.c **** #if ((LWIP_DNS_SECURE & LWIP_DNS_SECURE_NO_MULTIPLE_OUTSTANDING) != 0)
1447:C:/Users/stapi/OneDrive/Desktop/GD32VW553/V1_MQTT_OK/GD32VW55X_Wifi_BLE_SDK/GD32VW55x_RELEASE_V1.0.2/MSDK/lwip/lwip-2.1.2/src/core\dns.c ****   /* find a free request entry */
1448:C:/Users/stapi/OneDrive/Desktop/GD32VW553/V1_MQTT_OK/GD32VW55X_Wifi_BLE_SDK/GD32VW55x_RELEASE_V1.0.2/MSDK/lwip/lwip-2.1.2/src/core\dns.c ****   req = NULL;
1449:C:/Users/stapi/OneDrive/Desktop/GD32VW553/V1_MQTT_OK/GD32VW55X_Wifi_BLE_SDK/GD32VW55x_RELEASE_V1.0.2/MSDK/lwip/lwip-2.1.2/src/core\dns.c ****   for (r = 0; r < DNS_MAX_REQUESTS; r++) {
1450:C:/Users/stapi/OneDrive/Desktop/GD32VW553/V1_MQTT_OK/GD32VW55X_Wifi_BLE_SDK/GD32VW55x_RELEASE_V1.0.2/MSDK/lwip/lwip-2.1.2/src/core\dns.c ****     if (dns_requests[r].found == NULL) {
1451:C:/Users/stapi/OneDrive/Desktop/GD32VW553/V1_MQTT_OK/GD32VW55X_Wifi_BLE_SDK/GD32VW55x_RELEASE_V1.0.2/MSDK/lwip/lwip-2.1.2/src/core\dns.c ****       req = &dns_requests[r];
1452:C:/Users/stapi/OneDrive/Desktop/GD32VW553/V1_MQTT_OK/GD32VW55X_Wifi_BLE_SDK/GD32VW55x_RELEASE_V1.0.2/MSDK/lwip/lwip-2.1.2/src/core\dns.c ****       break;
1453:C:/Users/stapi/OneDrive/Desktop/GD32VW553/V1_MQTT_OK/GD32VW55X_Wifi_BLE_SDK/GD32VW55x_RELEASE_V1.0.2/MSDK/lwip/lwip-2.1.2/src/core\dns.c ****     }
1454:C:/Users/stapi/OneDrive/Desktop/GD32VW553/V1_MQTT_OK/GD32VW55X_Wifi_BLE_SDK/GD32VW55x_RELEASE_V1.0.2/MSDK/lwip/lwip-2.1.2/src/core\dns.c ****   }
1455:C:/Users/stapi/OneDrive/Desktop/GD32VW553/V1_MQTT_OK/GD32VW55X_Wifi_BLE_SDK/GD32VW55x_RELEASE_V1.0.2/MSDK/lwip/lwip-2.1.2/src/core\dns.c ****   if (req == NULL) {
1456:C:/Users/stapi/OneDrive/Desktop/GD32VW553/V1_MQTT_OK/GD32VW55X_Wifi_BLE_SDK/GD32VW55x_RELEASE_V1.0.2/MSDK/lwip/lwip-2.1.2/src/core\dns.c ****     /* no request entry can be used now, table is full */
1457:C:/Users/stapi/OneDrive/Desktop/GD32VW553/V1_MQTT_OK/GD32VW55X_Wifi_BLE_SDK/GD32VW55x_RELEASE_V1.0.2/MSDK/lwip/lwip-2.1.2/src/core\dns.c ****     LWIP_DEBUGF(DNS_DEBUG, ("dns_enqueue: \"%s\": DNS request entries table is full\n", name));
1458:C:/Users/stapi/OneDrive/Desktop/GD32VW553/V1_MQTT_OK/GD32VW55X_Wifi_BLE_SDK/GD32VW55x_RELEASE_V1.0.2/MSDK/lwip/lwip-2.1.2/src/core\dns.c ****     return ERR_MEM;
1459:C:/Users/stapi/OneDrive/Desktop/GD32VW553/V1_MQTT_OK/GD32VW55X_Wifi_BLE_SDK/GD32VW55x_RELEASE_V1.0.2/MSDK/lwip/lwip-2.1.2/src/core\dns.c ****   }
1460:C:/Users/stapi/OneDrive/Desktop/GD32VW553/V1_MQTT_OK/GD32VW55X_Wifi_BLE_SDK/GD32VW55x_RELEASE_V1.0.2/MSDK/lwip/lwip-2.1.2/src/core\dns.c ****   req->dns_table_idx = i;
1461:C:/Users/stapi/OneDrive/Desktop/GD32VW553/V1_MQTT_OK/GD32VW55X_Wifi_BLE_SDK/GD32VW55x_RELEASE_V1.0.2/MSDK/lwip/lwip-2.1.2/src/core\dns.c **** #else
1462:C:/Users/stapi/OneDrive/Desktop/GD32VW553/V1_MQTT_OK/GD32VW55X_Wifi_BLE_SDK/GD32VW55x_RELEASE_V1.0.2/MSDK/lwip/lwip-2.1.2/src/core\dns.c ****   /* in this configuration, the entry index is the same as the request index */
1463:C:/Users/stapi/OneDrive/Desktop/GD32VW553/V1_MQTT_OK/GD32VW55X_Wifi_BLE_SDK/GD32VW55x_RELEASE_V1.0.2/MSDK/lwip/lwip-2.1.2/src/core\dns.c ****   req = &dns_requests[i];
1464:C:/Users/stapi/OneDrive/Desktop/GD32VW553/V1_MQTT_OK/GD32VW55X_Wifi_BLE_SDK/GD32VW55x_RELEASE_V1.0.2/MSDK/lwip/lwip-2.1.2/src/core\dns.c **** #endif
1465:C:/Users/stapi/OneDrive/Desktop/GD32VW553/V1_MQTT_OK/GD32VW55X_Wifi_BLE_SDK/GD32VW55x_RELEASE_V1.0.2/MSDK/lwip/lwip-2.1.2/src/core\dns.c **** 
1466:C:/Users/stapi/OneDrive/Desktop/GD32VW553/V1_MQTT_OK/GD32VW55X_Wifi_BLE_SDK/GD32VW55x_RELEASE_V1.0.2/MSDK/lwip/lwip-2.1.2/src/core\dns.c ****   /* use this entry */
1467:C:/Users/stapi/OneDrive/Desktop/GD32VW553/V1_MQTT_OK/GD32VW55X_Wifi_BLE_SDK/GD32VW55x_RELEASE_V1.0.2/MSDK/lwip/lwip-2.1.2/src/core\dns.c ****   LWIP_DEBUGF(DNS_DEBUG, ("dns_enqueue: \"%s\": use DNS entry %"U16_F"\n", name, (u16_t)(i)));
1468:C:/Users/stapi/OneDrive/Desktop/GD32VW553/V1_MQTT_OK/GD32VW55X_Wifi_BLE_SDK/GD32VW55x_RELEASE_V1.0.2/MSDK/lwip/lwip-2.1.2/src/core\dns.c **** 
1469:C:/Users/stapi/OneDrive/Desktop/GD32VW553/V1_MQTT_OK/GD32VW55X_Wifi_BLE_SDK/GD32VW55x_RELEASE_V1.0.2/MSDK/lwip/lwip-2.1.2/src/core\dns.c ****   /* fill the entry */
1470:C:/Users/stapi/OneDrive/Desktop/GD32VW553/V1_MQTT_OK/GD32VW55X_Wifi_BLE_SDK/GD32VW55x_RELEASE_V1.0.2/MSDK/lwip/lwip-2.1.2/src/core\dns.c ****   entry->state = DNS_STATE_NEW;
1471:C:/Users/stapi/OneDrive/Desktop/GD32VW553/V1_MQTT_OK/GD32VW55X_Wifi_BLE_SDK/GD32VW55x_RELEASE_V1.0.2/MSDK/lwip/lwip-2.1.2/src/core\dns.c ****   entry->seqno = dns_seqno;
1472:C:/Users/stapi/OneDrive/Desktop/GD32VW553/V1_MQTT_OK/GD32VW55X_Wifi_BLE_SDK/GD32VW55x_RELEASE_V1.0.2/MSDK/lwip/lwip-2.1.2/src/core\dns.c ****   LWIP_DNS_SET_ADDRTYPE(entry->reqaddrtype, dns_addrtype);
1473:C:/Users/stapi/OneDrive/Desktop/GD32VW553/V1_MQTT_OK/GD32VW55X_Wifi_BLE_SDK/GD32VW55x_RELEASE_V1.0.2/MSDK/lwip/lwip-2.1.2/src/core\dns.c ****   LWIP_DNS_SET_ADDRTYPE(req->reqaddrtype, dns_addrtype);
1474:C:/Users/stapi/OneDrive/Desktop/GD32VW553/V1_MQTT_OK/GD32VW55X_Wifi_BLE_SDK/GD32VW55x_RELEASE_V1.0.2/MSDK/lwip/lwip-2.1.2/src/core\dns.c ****   req->found = found;
1475:C:/Users/stapi/OneDrive/Desktop/GD32VW553/V1_MQTT_OK/GD32VW55X_Wifi_BLE_SDK/GD32VW55x_RELEASE_V1.0.2/MSDK/lwip/lwip-2.1.2/src/core\dns.c ****   req->arg   = callback_arg;
1476:C:/Users/stapi/OneDrive/Desktop/GD32VW553/V1_MQTT_OK/GD32VW55X_Wifi_BLE_SDK/GD32VW55x_RELEASE_V1.0.2/MSDK/lwip/lwip-2.1.2/src/core\dns.c ****   namelen = LWIP_MIN(hostnamelen, DNS_MAX_NAME_LENGTH - 1);
1477:C:/Users/stapi/OneDrive/Desktop/GD32VW553/V1_MQTT_OK/GD32VW55X_Wifi_BLE_SDK/GD32VW55x_RELEASE_V1.0.2/MSDK/lwip/lwip-2.1.2/src/core\dns.c ****   MEMCPY(entry->name, name, namelen);
1478:C:/Users/stapi/OneDrive/Desktop/GD32VW553/V1_MQTT_OK/GD32VW55X_Wifi_BLE_SDK/GD32VW55x_RELEASE_V1.0.2/MSDK/lwip/lwip-2.1.2/src/core\dns.c ****   entry->name[namelen] = 0;
1479:C:/Users/stapi/OneDrive/Desktop/GD32VW553/V1_MQTT_OK/GD32VW55X_Wifi_BLE_SDK/GD32VW55x_RELEASE_V1.0.2/MSDK/lwip/lwip-2.1.2/src/core\dns.c **** 
1480:C:/Users/stapi/OneDrive/Desktop/GD32VW553/V1_MQTT_OK/GD32VW55X_Wifi_BLE_SDK/GD32VW55x_RELEASE_V1.0.2/MSDK/lwip/lwip-2.1.2/src/core\dns.c **** #if ((LWIP_DNS_SECURE & LWIP_DNS_SECURE_RAND_SRC_PORT) != 0)
1481:C:/Users/stapi/OneDrive/Desktop/GD32VW553/V1_MQTT_OK/GD32VW55X_Wifi_BLE_SDK/GD32VW55x_RELEASE_V1.0.2/MSDK/lwip/lwip-2.1.2/src/core\dns.c ****   entry->pcb_idx = dns_alloc_pcb();
1482:C:/Users/stapi/OneDrive/Desktop/GD32VW553/V1_MQTT_OK/GD32VW55X_Wifi_BLE_SDK/GD32VW55x_RELEASE_V1.0.2/MSDK/lwip/lwip-2.1.2/src/core\dns.c ****   if (entry->pcb_idx >= DNS_MAX_SOURCE_PORTS) {
1483:C:/Users/stapi/OneDrive/Desktop/GD32VW553/V1_MQTT_OK/GD32VW55X_Wifi_BLE_SDK/GD32VW55x_RELEASE_V1.0.2/MSDK/lwip/lwip-2.1.2/src/core\dns.c ****     /* failed to get a UDP pcb */
1484:C:/Users/stapi/OneDrive/Desktop/GD32VW553/V1_MQTT_OK/GD32VW55X_Wifi_BLE_SDK/GD32VW55x_RELEASE_V1.0.2/MSDK/lwip/lwip-2.1.2/src/core\dns.c ****     LWIP_DEBUGF(DNS_DEBUG, ("dns_enqueue: \"%s\": failed to allocate a pcb\n", name));
1485:C:/Users/stapi/OneDrive/Desktop/GD32VW553/V1_MQTT_OK/GD32VW55X_Wifi_BLE_SDK/GD32VW55x_RELEASE_V1.0.2/MSDK/lwip/lwip-2.1.2/src/core\dns.c ****     entry->state = DNS_STATE_UNUSED;
1486:C:/Users/stapi/OneDrive/Desktop/GD32VW553/V1_MQTT_OK/GD32VW55X_Wifi_BLE_SDK/GD32VW55x_RELEASE_V1.0.2/MSDK/lwip/lwip-2.1.2/src/core\dns.c ****     req->found = NULL;
1487:C:/Users/stapi/OneDrive/Desktop/GD32VW553/V1_MQTT_OK/GD32VW55X_Wifi_BLE_SDK/GD32VW55x_RELEASE_V1.0.2/MSDK/lwip/lwip-2.1.2/src/core\dns.c ****     return ERR_MEM;
1488:C:/Users/stapi/OneDrive/Desktop/GD32VW553/V1_MQTT_OK/GD32VW55X_Wifi_BLE_SDK/GD32VW55x_RELEASE_V1.0.2/MSDK/lwip/lwip-2.1.2/src/core\dns.c ****   }
1489:C:/Users/stapi/OneDrive/Desktop/GD32VW553/V1_MQTT_OK/GD32VW55X_Wifi_BLE_SDK/GD32VW55x_RELEASE_V1.0.2/MSDK/lwip/lwip-2.1.2/src/core\dns.c ****   LWIP_DEBUGF(DNS_DEBUG, ("dns_enqueue: \"%s\": use DNS pcb %"U16_F"\n", name, (u16_t)(entry->pcb_i
1490:C:/Users/stapi/OneDrive/Desktop/GD32VW553/V1_MQTT_OK/GD32VW55X_Wifi_BLE_SDK/GD32VW55x_RELEASE_V1.0.2/MSDK/lwip/lwip-2.1.2/src/core\dns.c **** #endif
1491:C:/Users/stapi/OneDrive/Desktop/GD32VW553/V1_MQTT_OK/GD32VW55X_Wifi_BLE_SDK/GD32VW55x_RELEASE_V1.0.2/MSDK/lwip/lwip-2.1.2/src/core\dns.c **** 
1492:C:/Users/stapi/OneDrive/Desktop/GD32VW553/V1_MQTT_OK/GD32VW55X_Wifi_BLE_SDK/GD32VW55x_RELEASE_V1.0.2/MSDK/lwip/lwip-2.1.2/src/core\dns.c **** #if LWIP_DNS_SUPPORT_MDNS_QUERIES
1493:C:/Users/stapi/OneDrive/Desktop/GD32VW553/V1_MQTT_OK/GD32VW55X_Wifi_BLE_SDK/GD32VW55x_RELEASE_V1.0.2/MSDK/lwip/lwip-2.1.2/src/core\dns.c ****   entry->is_mdns = is_mdns;
1494:C:/Users/stapi/OneDrive/Desktop/GD32VW553/V1_MQTT_OK/GD32VW55X_Wifi_BLE_SDK/GD32VW55x_RELEASE_V1.0.2/MSDK/lwip/lwip-2.1.2/src/core\dns.c **** #endif
1495:C:/Users/stapi/OneDrive/Desktop/GD32VW553/V1_MQTT_OK/GD32VW55X_Wifi_BLE_SDK/GD32VW55x_RELEASE_V1.0.2/MSDK/lwip/lwip-2.1.2/src/core\dns.c **** 
1496:C:/Users/stapi/OneDrive/Desktop/GD32VW553/V1_MQTT_OK/GD32VW55X_Wifi_BLE_SDK/GD32VW55x_RELEASE_V1.0.2/MSDK/lwip/lwip-2.1.2/src/core\dns.c ****   dns_seqno++;
1497:C:/Users/stapi/OneDrive/Desktop/GD32VW553/V1_MQTT_OK/GD32VW55X_Wifi_BLE_SDK/GD32VW55x_RELEASE_V1.0.2/MSDK/lwip/lwip-2.1.2/src/core\dns.c **** 
1498:C:/Users/stapi/OneDrive/Desktop/GD32VW553/V1_MQTT_OK/GD32VW55X_Wifi_BLE_SDK/GD32VW55x_RELEASE_V1.0.2/MSDK/lwip/lwip-2.1.2/src/core\dns.c ****   /* force to send query without waiting timer */
1499:C:/Users/stapi/OneDrive/Desktop/GD32VW553/V1_MQTT_OK/GD32VW55X_Wifi_BLE_SDK/GD32VW55x_RELEASE_V1.0.2/MSDK/lwip/lwip-2.1.2/src/core\dns.c ****   dns_check_entry(i);
1500:C:/Users/stapi/OneDrive/Desktop/GD32VW553/V1_MQTT_OK/GD32VW55X_Wifi_BLE_SDK/GD32VW55x_RELEASE_V1.0.2/MSDK/lwip/lwip-2.1.2/src/core\dns.c **** 
1501:C:/Users/stapi/OneDrive/Desktop/GD32VW553/V1_MQTT_OK/GD32VW55X_Wifi_BLE_SDK/GD32VW55x_RELEASE_V1.0.2/MSDK/lwip/lwip-2.1.2/src/core\dns.c ****   /* dns query is enqueued */
1502:C:/Users/stapi/OneDrive/Desktop/GD32VW553/V1_MQTT_OK/GD32VW55X_Wifi_BLE_SDK/GD32VW55x_RELEASE_V1.0.2/MSDK/lwip/lwip-2.1.2/src/core\dns.c ****   return ERR_INPROGRESS;
1503:C:/Users/stapi/OneDrive/Desktop/GD32VW553/V1_MQTT_OK/GD32VW55X_Wifi_BLE_SDK/GD32VW55x_RELEASE_V1.0.2/MSDK/lwip/lwip-2.1.2/src/core\dns.c **** }
1504:C:/Users/stapi/OneDrive/Desktop/GD32VW553/V1_MQTT_OK/GD32VW55X_Wifi_BLE_SDK/GD32VW55x_RELEASE_V1.0.2/MSDK/lwip/lwip-2.1.2/src/core\dns.c **** 
1505:C:/Users/stapi/OneDrive/Desktop/GD32VW553/V1_MQTT_OK/GD32VW55X_Wifi_BLE_SDK/GD32VW55x_RELEASE_V1.0.2/MSDK/lwip/lwip-2.1.2/src/core\dns.c **** /**
1506:C:/Users/stapi/OneDrive/Desktop/GD32VW553/V1_MQTT_OK/GD32VW55X_Wifi_BLE_SDK/GD32VW55x_RELEASE_V1.0.2/MSDK/lwip/lwip-2.1.2/src/core\dns.c ****  * @ingroup dns
1507:C:/Users/stapi/OneDrive/Desktop/GD32VW553/V1_MQTT_OK/GD32VW55X_Wifi_BLE_SDK/GD32VW55x_RELEASE_V1.0.2/MSDK/lwip/lwip-2.1.2/src/core\dns.c ****  * Resolve a hostname (string) into an IP address.
1508:C:/Users/stapi/OneDrive/Desktop/GD32VW553/V1_MQTT_OK/GD32VW55X_Wifi_BLE_SDK/GD32VW55x_RELEASE_V1.0.2/MSDK/lwip/lwip-2.1.2/src/core\dns.c ****  * NON-BLOCKING callback version for use with raw API!!!
1509:C:/Users/stapi/OneDrive/Desktop/GD32VW553/V1_MQTT_OK/GD32VW55X_Wifi_BLE_SDK/GD32VW55x_RELEASE_V1.0.2/MSDK/lwip/lwip-2.1.2/src/core\dns.c ****  *
1510:C:/Users/stapi/OneDrive/Desktop/GD32VW553/V1_MQTT_OK/GD32VW55X_Wifi_BLE_SDK/GD32VW55x_RELEASE_V1.0.2/MSDK/lwip/lwip-2.1.2/src/core\dns.c ****  * Returns immediately with one of err_t return codes:
1511:C:/Users/stapi/OneDrive/Desktop/GD32VW553/V1_MQTT_OK/GD32VW55X_Wifi_BLE_SDK/GD32VW55x_RELEASE_V1.0.2/MSDK/lwip/lwip-2.1.2/src/core\dns.c ****  * - ERR_OK if hostname is a valid IP address string or the host
1512:C:/Users/stapi/OneDrive/Desktop/GD32VW553/V1_MQTT_OK/GD32VW55X_Wifi_BLE_SDK/GD32VW55x_RELEASE_V1.0.2/MSDK/lwip/lwip-2.1.2/src/core\dns.c ****  *   name is already in the local names table.
1513:C:/Users/stapi/OneDrive/Desktop/GD32VW553/V1_MQTT_OK/GD32VW55X_Wifi_BLE_SDK/GD32VW55x_RELEASE_V1.0.2/MSDK/lwip/lwip-2.1.2/src/core\dns.c ****  * - ERR_INPROGRESS enqueue a request to be sent to the DNS server
1514:C:/Users/stapi/OneDrive/Desktop/GD32VW553/V1_MQTT_OK/GD32VW55X_Wifi_BLE_SDK/GD32VW55x_RELEASE_V1.0.2/MSDK/lwip/lwip-2.1.2/src/core\dns.c ****  *   for resolution if no errors are present.
1515:C:/Users/stapi/OneDrive/Desktop/GD32VW553/V1_MQTT_OK/GD32VW55X_Wifi_BLE_SDK/GD32VW55x_RELEASE_V1.0.2/MSDK/lwip/lwip-2.1.2/src/core\dns.c ****  * - ERR_ARG: dns client not initialized or invalid hostname
1516:C:/Users/stapi/OneDrive/Desktop/GD32VW553/V1_MQTT_OK/GD32VW55X_Wifi_BLE_SDK/GD32VW55x_RELEASE_V1.0.2/MSDK/lwip/lwip-2.1.2/src/core\dns.c ****  *
1517:C:/Users/stapi/OneDrive/Desktop/GD32VW553/V1_MQTT_OK/GD32VW55X_Wifi_BLE_SDK/GD32VW55x_RELEASE_V1.0.2/MSDK/lwip/lwip-2.1.2/src/core\dns.c ****  * @param hostname the hostname that is to be queried
1518:C:/Users/stapi/OneDrive/Desktop/GD32VW553/V1_MQTT_OK/GD32VW55X_Wifi_BLE_SDK/GD32VW55x_RELEASE_V1.0.2/MSDK/lwip/lwip-2.1.2/src/core\dns.c ****  * @param addr pointer to a ip_addr_t where to store the address if it is already
1519:C:/Users/stapi/OneDrive/Desktop/GD32VW553/V1_MQTT_OK/GD32VW55X_Wifi_BLE_SDK/GD32VW55x_RELEASE_V1.0.2/MSDK/lwip/lwip-2.1.2/src/core\dns.c ****  *             cached in the dns_table (only valid if ERR_OK is returned!)
1520:C:/Users/stapi/OneDrive/Desktop/GD32VW553/V1_MQTT_OK/GD32VW55X_Wifi_BLE_SDK/GD32VW55x_RELEASE_V1.0.2/MSDK/lwip/lwip-2.1.2/src/core\dns.c ****  * @param found a callback function to be called on success, failure or timeout (only if
1521:C:/Users/stapi/OneDrive/Desktop/GD32VW553/V1_MQTT_OK/GD32VW55X_Wifi_BLE_SDK/GD32VW55x_RELEASE_V1.0.2/MSDK/lwip/lwip-2.1.2/src/core\dns.c ****  *              ERR_INPROGRESS is returned!)
1522:C:/Users/stapi/OneDrive/Desktop/GD32VW553/V1_MQTT_OK/GD32VW55X_Wifi_BLE_SDK/GD32VW55x_RELEASE_V1.0.2/MSDK/lwip/lwip-2.1.2/src/core\dns.c ****  * @param callback_arg argument to pass to the callback function
1523:C:/Users/stapi/OneDrive/Desktop/GD32VW553/V1_MQTT_OK/GD32VW55X_Wifi_BLE_SDK/GD32VW55x_RELEASE_V1.0.2/MSDK/lwip/lwip-2.1.2/src/core\dns.c ****  * @return a err_t return code.
1524:C:/Users/stapi/OneDrive/Desktop/GD32VW553/V1_MQTT_OK/GD32VW55X_Wifi_BLE_SDK/GD32VW55x_RELEASE_V1.0.2/MSDK/lwip/lwip-2.1.2/src/core\dns.c ****  */
1525:C:/Users/stapi/OneDrive/Desktop/GD32VW553/V1_MQTT_OK/GD32VW55X_Wifi_BLE_SDK/GD32VW55x_RELEASE_V1.0.2/MSDK/lwip/lwip-2.1.2/src/core\dns.c **** err_t
1526:C:/Users/stapi/OneDrive/Desktop/GD32VW553/V1_MQTT_OK/GD32VW55X_Wifi_BLE_SDK/GD32VW55x_RELEASE_V1.0.2/MSDK/lwip/lwip-2.1.2/src/core\dns.c **** dns_gethostbyname(const char *hostname, ip_addr_t *addr, dns_found_callback found,
1527:C:/Users/stapi/OneDrive/Desktop/GD32VW553/V1_MQTT_OK/GD32VW55X_Wifi_BLE_SDK/GD32VW55x_RELEASE_V1.0.2/MSDK/lwip/lwip-2.1.2/src/core\dns.c ****                   void *callback_arg)
1528:C:/Users/stapi/OneDrive/Desktop/GD32VW553/V1_MQTT_OK/GD32VW55X_Wifi_BLE_SDK/GD32VW55x_RELEASE_V1.0.2/MSDK/lwip/lwip-2.1.2/src/core\dns.c **** {
1529:C:/Users/stapi/OneDrive/Desktop/GD32VW553/V1_MQTT_OK/GD32VW55X_Wifi_BLE_SDK/GD32VW55x_RELEASE_V1.0.2/MSDK/lwip/lwip-2.1.2/src/core\dns.c ****   return dns_gethostbyname_addrtype(hostname, addr, found, callback_arg, LWIP_DNS_ADDRTYPE_DEFAULT)
1530:C:/Users/stapi/OneDrive/Desktop/GD32VW553/V1_MQTT_OK/GD32VW55X_Wifi_BLE_SDK/GD32VW55x_RELEASE_V1.0.2/MSDK/lwip/lwip-2.1.2/src/core\dns.c **** }
1531:C:/Users/stapi/OneDrive/Desktop/GD32VW553/V1_MQTT_OK/GD32VW55X_Wifi_BLE_SDK/GD32VW55x_RELEASE_V1.0.2/MSDK/lwip/lwip-2.1.2/src/core\dns.c **** 
1532:C:/Users/stapi/OneDrive/Desktop/GD32VW553/V1_MQTT_OK/GD32VW55X_Wifi_BLE_SDK/GD32VW55x_RELEASE_V1.0.2/MSDK/lwip/lwip-2.1.2/src/core\dns.c **** /**
1533:C:/Users/stapi/OneDrive/Desktop/GD32VW553/V1_MQTT_OK/GD32VW55X_Wifi_BLE_SDK/GD32VW55x_RELEASE_V1.0.2/MSDK/lwip/lwip-2.1.2/src/core\dns.c ****  * @ingroup dns
1534:C:/Users/stapi/OneDrive/Desktop/GD32VW553/V1_MQTT_OK/GD32VW55X_Wifi_BLE_SDK/GD32VW55x_RELEASE_V1.0.2/MSDK/lwip/lwip-2.1.2/src/core\dns.c ****  * Like dns_gethostbyname, but returned address type can be controlled:
1535:C:/Users/stapi/OneDrive/Desktop/GD32VW553/V1_MQTT_OK/GD32VW55X_Wifi_BLE_SDK/GD32VW55x_RELEASE_V1.0.2/MSDK/lwip/lwip-2.1.2/src/core\dns.c ****  * @param hostname the hostname that is to be queried
1536:C:/Users/stapi/OneDrive/Desktop/GD32VW553/V1_MQTT_OK/GD32VW55X_Wifi_BLE_SDK/GD32VW55x_RELEASE_V1.0.2/MSDK/lwip/lwip-2.1.2/src/core\dns.c ****  * @param addr pointer to a ip_addr_t where to store the address if it is already
1537:C:/Users/stapi/OneDrive/Desktop/GD32VW553/V1_MQTT_OK/GD32VW55X_Wifi_BLE_SDK/GD32VW55x_RELEASE_V1.0.2/MSDK/lwip/lwip-2.1.2/src/core\dns.c ****  *             cached in the dns_table (only valid if ERR_OK is returned!)
1538:C:/Users/stapi/OneDrive/Desktop/GD32VW553/V1_MQTT_OK/GD32VW55X_Wifi_BLE_SDK/GD32VW55x_RELEASE_V1.0.2/MSDK/lwip/lwip-2.1.2/src/core\dns.c ****  * @param found a callback function to be called on success, failure or timeout (only if
1539:C:/Users/stapi/OneDrive/Desktop/GD32VW553/V1_MQTT_OK/GD32VW55X_Wifi_BLE_SDK/GD32VW55x_RELEASE_V1.0.2/MSDK/lwip/lwip-2.1.2/src/core\dns.c ****  *              ERR_INPROGRESS is returned!)
1540:C:/Users/stapi/OneDrive/Desktop/GD32VW553/V1_MQTT_OK/GD32VW55X_Wifi_BLE_SDK/GD32VW55x_RELEASE_V1.0.2/MSDK/lwip/lwip-2.1.2/src/core\dns.c ****  * @param callback_arg argument to pass to the callback function
1541:C:/Users/stapi/OneDrive/Desktop/GD32VW553/V1_MQTT_OK/GD32VW55X_Wifi_BLE_SDK/GD32VW55x_RELEASE_V1.0.2/MSDK/lwip/lwip-2.1.2/src/core\dns.c ****  * @param dns_addrtype - LWIP_DNS_ADDRTYPE_IPV4_IPV6: try to resolve IPv4 first, try IPv6 if IPv4 f
1542:C:/Users/stapi/OneDrive/Desktop/GD32VW553/V1_MQTT_OK/GD32VW55X_Wifi_BLE_SDK/GD32VW55x_RELEASE_V1.0.2/MSDK/lwip/lwip-2.1.2/src/core\dns.c ****  *                     - LWIP_DNS_ADDRTYPE_IPV6_IPV4: try to resolve IPv6 first, try IPv4 if IPv6 f
1543:C:/Users/stapi/OneDrive/Desktop/GD32VW553/V1_MQTT_OK/GD32VW55X_Wifi_BLE_SDK/GD32VW55x_RELEASE_V1.0.2/MSDK/lwip/lwip-2.1.2/src/core\dns.c ****  *                     - LWIP_DNS_ADDRTYPE_IPV4: try to resolve IPv4 only
1544:C:/Users/stapi/OneDrive/Desktop/GD32VW553/V1_MQTT_OK/GD32VW55X_Wifi_BLE_SDK/GD32VW55x_RELEASE_V1.0.2/MSDK/lwip/lwip-2.1.2/src/core\dns.c ****  *                     - LWIP_DNS_ADDRTYPE_IPV6: try to resolve IPv6 only
1545:C:/Users/stapi/OneDrive/Desktop/GD32VW553/V1_MQTT_OK/GD32VW55X_Wifi_BLE_SDK/GD32VW55x_RELEASE_V1.0.2/MSDK/lwip/lwip-2.1.2/src/core\dns.c ****  */
1546:C:/Users/stapi/OneDrive/Desktop/GD32VW553/V1_MQTT_OK/GD32VW55X_Wifi_BLE_SDK/GD32VW55x_RELEASE_V1.0.2/MSDK/lwip/lwip-2.1.2/src/core\dns.c **** err_t
1547:C:/Users/stapi/OneDrive/Desktop/GD32VW553/V1_MQTT_OK/GD32VW55X_Wifi_BLE_SDK/GD32VW55x_RELEASE_V1.0.2/MSDK/lwip/lwip-2.1.2/src/core\dns.c **** dns_gethostbyname_addrtype(const char *hostname, ip_addr_t *addr, dns_found_callback found,
1548:C:/Users/stapi/OneDrive/Desktop/GD32VW553/V1_MQTT_OK/GD32VW55X_Wifi_BLE_SDK/GD32VW55x_RELEASE_V1.0.2/MSDK/lwip/lwip-2.1.2/src/core\dns.c ****                            void *callback_arg, u8_t dns_addrtype)
1549:C:/Users/stapi/OneDrive/Desktop/GD32VW553/V1_MQTT_OK/GD32VW55X_Wifi_BLE_SDK/GD32VW55x_RELEASE_V1.0.2/MSDK/lwip/lwip-2.1.2/src/core\dns.c **** {
 1563              		.loc 1 1549 1 is_stmt 1
 1564              		.cfi_startproc
 1565              	.LVL150:
1550:C:/Users/stapi/OneDrive/Desktop/GD32VW553/V1_MQTT_OK/GD32VW55X_Wifi_BLE_SDK/GD32VW55x_RELEASE_V1.0.2/MSDK/lwip/lwip-2.1.2/src/core\dns.c ****   size_t hostnamelen;
 1566              		.loc 1 1550 3
1551:C:/Users/stapi/OneDrive/Desktop/GD32VW553/V1_MQTT_OK/GD32VW55X_Wifi_BLE_SDK/GD32VW55x_RELEASE_V1.0.2/MSDK/lwip/lwip-2.1.2/src/core\dns.c **** #if LWIP_DNS_SUPPORT_MDNS_QUERIES
1552:C:/Users/stapi/OneDrive/Desktop/GD32VW553/V1_MQTT_OK/GD32VW55X_Wifi_BLE_SDK/GD32VW55x_RELEASE_V1.0.2/MSDK/lwip/lwip-2.1.2/src/core\dns.c ****   u8_t is_mdns;
1553:C:/Users/stapi/OneDrive/Desktop/GD32VW553/V1_MQTT_OK/GD32VW55X_Wifi_BLE_SDK/GD32VW55x_RELEASE_V1.0.2/MSDK/lwip/lwip-2.1.2/src/core\dns.c **** #endif
1554:C:/Users/stapi/OneDrive/Desktop/GD32VW553/V1_MQTT_OK/GD32VW55X_Wifi_BLE_SDK/GD32VW55x_RELEASE_V1.0.2/MSDK/lwip/lwip-2.1.2/src/core\dns.c ****   /* not initialized or no valid server yet, or invalid addr pointer
1555:C:/Users/stapi/OneDrive/Desktop/GD32VW553/V1_MQTT_OK/GD32VW55X_Wifi_BLE_SDK/GD32VW55x_RELEASE_V1.0.2/MSDK/lwip/lwip-2.1.2/src/core\dns.c ****    * or invalid hostname or invalid hostname length */
1556:C:/Users/stapi/OneDrive/Desktop/GD32VW553/V1_MQTT_OK/GD32VW55X_Wifi_BLE_SDK/GD32VW55x_RELEASE_V1.0.2/MSDK/lwip/lwip-2.1.2/src/core\dns.c ****   if ((addr == NULL) ||
 1567              		.loc 1 1556 3
 1568              		.loc 1 1556 6 is_stmt 0
 1569 0000 6381052A 		beq	a1,zero,.L144
1549:C:/Users/stapi/OneDrive/Desktop/GD32VW553/V1_MQTT_OK/GD32VW55X_Wifi_BLE_SDK/GD32VW55x_RELEASE_V1.0.2/MSDK/lwip/lwip-2.1.2/src/core\dns.c ****   size_t hostnamelen;
 1570              		.loc 1 1549 1 discriminator 1
 1571 0004 17030000 		call	t0,__riscv_save_12
 1571      E7020300 
 1572              		.cfi_offset 27, -52
 1573              		.cfi_offset 26, -48
 1574              		.cfi_offset 25, -44
 1575              		.cfi_offset 24, -40
 1576              		.cfi_offset 23, -36
 1577              		.cfi_offset 22, -32
 1578              		.cfi_offset 21, -28
 1579              		.cfi_offset 20, -24
 1580              		.cfi_offset 19, -20
 1581              		.cfi_offset 18, -16
 1582              		.cfi_offset 9, -12
 1583              		.cfi_offset 8, -8
 1584              		.cfi_offset 1, -4
 1585              		.cfi_def_cfa_offset 64
 1586 000c AA84     		mv	s1,a0
1557:C:/Users/stapi/OneDrive/Desktop/GD32VW553/V1_MQTT_OK/GD32VW55X_Wifi_BLE_SDK/GD32VW55x_RELEASE_V1.0.2/MSDK/lwip/lwip-2.1.2/src/core\dns.c ****       (!hostname) || (!hostname[0])) {
1558:C:/Users/stapi/OneDrive/Desktop/GD32VW553/V1_MQTT_OK/GD32VW55X_Wifi_BLE_SDK/GD32VW55x_RELEASE_V1.0.2/MSDK/lwip/lwip-2.1.2/src/core\dns.c ****     return ERR_ARG;
 1587              		.loc 1 1558 12 discriminator 1
 1588 000e C157     		li	a5,-16
1556:C:/Users/stapi/OneDrive/Desktop/GD32VW553/V1_MQTT_OK/GD32VW55X_Wifi_BLE_SDK/GD32VW55x_RELEASE_V1.0.2/MSDK/lwip/lwip-2.1.2/src/core\dns.c ****       (!hostname) || (!hostname[0])) {
 1589              		.loc 1 1556 22 discriminator 1
 1590 0010 31C1     		beq	a0,zero,.L152
1557:C:/Users/stapi/OneDrive/Desktop/GD32VW553/V1_MQTT_OK/GD32VW55X_Wifi_BLE_SDK/GD32VW55x_RELEASE_V1.0.2/MSDK/lwip/lwip-2.1.2/src/core\dns.c ****       (!hostname) || (!hostname[0])) {
 1591              		.loc 1 1557 19
 1592 0012 03070500 		lb	a4,0(a0)
 1593              	.LVL151:
 1594 0016 1DCF     		beq	a4,zero,.L152
 1595 0018 2E8A     		mv	s4,a1
 1596 001a 328C     		mv	s8,a2
 1597 001c B68C     		mv	s9,a3
1559:C:/Users/stapi/OneDrive/Desktop/GD32VW553/V1_MQTT_OK/GD32VW55X_Wifi_BLE_SDK/GD32VW55x_RELEASE_V1.0.2/MSDK/lwip/lwip-2.1.2/src/core\dns.c ****   }
1560:C:/Users/stapi/OneDrive/Desktop/GD32VW553/V1_MQTT_OK/GD32VW55X_Wifi_BLE_SDK/GD32VW55x_RELEASE_V1.0.2/MSDK/lwip/lwip-2.1.2/src/core\dns.c **** #if ((LWIP_DNS_SECURE & LWIP_DNS_SECURE_RAND_SRC_PORT) == 0)
1561:C:/Users/stapi/OneDrive/Desktop/GD32VW553/V1_MQTT_OK/GD32VW55X_Wifi_BLE_SDK/GD32VW55x_RELEASE_V1.0.2/MSDK/lwip/lwip-2.1.2/src/core\dns.c ****   if (dns_pcbs[0] == NULL) {
1562:C:/Users/stapi/OneDrive/Desktop/GD32VW553/V1_MQTT_OK/GD32VW55X_Wifi_BLE_SDK/GD32VW55x_RELEASE_V1.0.2/MSDK/lwip/lwip-2.1.2/src/core\dns.c ****     return ERR_ARG;
1563:C:/Users/stapi/OneDrive/Desktop/GD32VW553/V1_MQTT_OK/GD32VW55X_Wifi_BLE_SDK/GD32VW55x_RELEASE_V1.0.2/MSDK/lwip/lwip-2.1.2/src/core\dns.c ****   }
1564:C:/Users/stapi/OneDrive/Desktop/GD32VW553/V1_MQTT_OK/GD32VW55X_Wifi_BLE_SDK/GD32VW55x_RELEASE_V1.0.2/MSDK/lwip/lwip-2.1.2/src/core\dns.c **** #endif
1565:C:/Users/stapi/OneDrive/Desktop/GD32VW553/V1_MQTT_OK/GD32VW55X_Wifi_BLE_SDK/GD32VW55x_RELEASE_V1.0.2/MSDK/lwip/lwip-2.1.2/src/core\dns.c ****   hostnamelen = strlen(hostname);
 1598              		.loc 1 1565 3 is_stmt 1
 1599              		.loc 1 1565 17 is_stmt 0
 1600 001e 97000000 		call	strlen
 1600      E7800000 
 1601              	.LVL152:
1566:C:/Users/stapi/OneDrive/Desktop/GD32VW553/V1_MQTT_OK/GD32VW55X_Wifi_BLE_SDK/GD32VW55x_RELEASE_V1.0.2/MSDK/lwip/lwip-2.1.2/src/core\dns.c ****   if (hostnamelen >= DNS_MAX_NAME_LENGTH) {
 1602              		.loc 1 1566 6
 1603 0026 1307F00F 		li	a4,255
1565:C:/Users/stapi/OneDrive/Desktop/GD32VW553/V1_MQTT_OK/GD32VW55X_Wifi_BLE_SDK/GD32VW55x_RELEASE_V1.0.2/MSDK/lwip/lwip-2.1.2/src/core\dns.c ****   if (hostnamelen >= DNS_MAX_NAME_LENGTH) {
 1604              		.loc 1 1565 17
 1605 002a AA8B     		mv	s7,a0
 1606              	.LVL153:
 1607              		.loc 1 1566 3 is_stmt 1
1558:C:/Users/stapi/OneDrive/Desktop/GD32VW553/V1_MQTT_OK/GD32VW55X_Wifi_BLE_SDK/GD32VW55x_RELEASE_V1.0.2/MSDK/lwip/lwip-2.1.2/src/core\dns.c ****   }
 1608              		.loc 1 1558 12 is_stmt 0
 1609 002c C157     		li	a5,-16
 1610              		.loc 1 1566 6
 1611 002e 6363A702 		bgtu	a0,a4,.L152
1567:C:/Users/stapi/OneDrive/Desktop/GD32VW553/V1_MQTT_OK/GD32VW55X_Wifi_BLE_SDK/GD32VW55x_RELEASE_V1.0.2/MSDK/lwip/lwip-2.1.2/src/core\dns.c ****     LWIP_DEBUGF(DNS_DEBUG, ("dns_gethostbyname: name too long to resolve"));
1568:C:/Users/stapi/OneDrive/Desktop/GD32VW553/V1_MQTT_OK/GD32VW55X_Wifi_BLE_SDK/GD32VW55x_RELEASE_V1.0.2/MSDK/lwip/lwip-2.1.2/src/core\dns.c ****     return ERR_ARG;
1569:C:/Users/stapi/OneDrive/Desktop/GD32VW553/V1_MQTT_OK/GD32VW55X_Wifi_BLE_SDK/GD32VW55x_RELEASE_V1.0.2/MSDK/lwip/lwip-2.1.2/src/core\dns.c ****   }
1570:C:/Users/stapi/OneDrive/Desktop/GD32VW553/V1_MQTT_OK/GD32VW55X_Wifi_BLE_SDK/GD32VW55x_RELEASE_V1.0.2/MSDK/lwip/lwip-2.1.2/src/core\dns.c **** 
1571:C:/Users/stapi/OneDrive/Desktop/GD32VW553/V1_MQTT_OK/GD32VW55X_Wifi_BLE_SDK/GD32VW55x_RELEASE_V1.0.2/MSDK/lwip/lwip-2.1.2/src/core\dns.c **** 
1572:C:/Users/stapi/OneDrive/Desktop/GD32VW553/V1_MQTT_OK/GD32VW55X_Wifi_BLE_SDK/GD32VW55x_RELEASE_V1.0.2/MSDK/lwip/lwip-2.1.2/src/core\dns.c **** #if LWIP_HAVE_LOOPIF
1573:C:/Users/stapi/OneDrive/Desktop/GD32VW553/V1_MQTT_OK/GD32VW55X_Wifi_BLE_SDK/GD32VW55x_RELEASE_V1.0.2/MSDK/lwip/lwip-2.1.2/src/core\dns.c ****   if (strcmp(hostname, "localhost") == 0) {
 1612              		.loc 1 1573 3 is_stmt 1
 1613              		.loc 1 1573 7 is_stmt 0
 1614 0032 B7050000 		lui	a1,%hi(.LC5)
 1615 0036 93850500 		addi	a1,a1,%lo(.LC5)
 1616 003a 2685     		mv	a0,s1
 1617              	.LVL154:
 1618 003c 97000000 		call	strcmp
 1618      E7800000 
 1619              	.LVL155:
 1620              		.loc 1 1573 6
 1621 0044 09ED     		bne	a0,zero,.L115
1574:C:/Users/stapi/OneDrive/Desktop/GD32VW553/V1_MQTT_OK/GD32VW55X_Wifi_BLE_SDK/GD32VW55x_RELEASE_V1.0.2/MSDK/lwip/lwip-2.1.2/src/core\dns.c ****     ip_addr_set_loopback(LWIP_DNS_ADDRTYPE_IS_IPV6(dns_addrtype), addr);
 1622              		.loc 1 1574 5 is_stmt 1
 1623 0046 B7070001 		li	a5,16777216
 1624 004a 9387F707 		addi	a5,a5,127
 1625              	.L170:
 1626              	.LBB85:
 1627              	.LBB86:
 625:C:/Users/stapi/OneDrive/Desktop/GD32VW553/V1_MQTT_OK/GD32VW55X_Wifi_BLE_SDK/GD32VW55x_RELEASE_V1.0.2/MSDK/lwip/lwip-2.1.2/src/core\dns.c ****       }
 1628              		.loc 1 625 9 is_stmt 0
 1629 004e 2320FA00 		sw	a5,0(s4)
 627:C:/Users/stapi/OneDrive/Desktop/GD32VW553/V1_MQTT_OK/GD32VW55X_Wifi_BLE_SDK/GD32VW55x_RELEASE_V1.0.2/MSDK/lwip/lwip-2.1.2/src/core\dns.c ****     }
 1630              		.loc 1 627 7 is_stmt 1
 1631              	.LBE86:
 1632              	.LBE85:
1575:C:/Users/stapi/OneDrive/Desktop/GD32VW553/V1_MQTT_OK/GD32VW55X_Wifi_BLE_SDK/GD32VW55x_RELEASE_V1.0.2/MSDK/lwip/lwip-2.1.2/src/core\dns.c ****     return ERR_OK;
1576:C:/Users/stapi/OneDrive/Desktop/GD32VW553/V1_MQTT_OK/GD32VW55X_Wifi_BLE_SDK/GD32VW55x_RELEASE_V1.0.2/MSDK/lwip/lwip-2.1.2/src/core\dns.c ****   }
1577:C:/Users/stapi/OneDrive/Desktop/GD32VW553/V1_MQTT_OK/GD32VW55X_Wifi_BLE_SDK/GD32VW55x_RELEASE_V1.0.2/MSDK/lwip/lwip-2.1.2/src/core\dns.c **** #endif /* LWIP_HAVE_LOOPIF */
1578:C:/Users/stapi/OneDrive/Desktop/GD32VW553/V1_MQTT_OK/GD32VW55X_Wifi_BLE_SDK/GD32VW55x_RELEASE_V1.0.2/MSDK/lwip/lwip-2.1.2/src/core\dns.c **** 
1579:C:/Users/stapi/OneDrive/Desktop/GD32VW553/V1_MQTT_OK/GD32VW55X_Wifi_BLE_SDK/GD32VW55x_RELEASE_V1.0.2/MSDK/lwip/lwip-2.1.2/src/core\dns.c ****   /* host name already in octet notation? set ip addr and return ERR_OK */
1580:C:/Users/stapi/OneDrive/Desktop/GD32VW553/V1_MQTT_OK/GD32VW55X_Wifi_BLE_SDK/GD32VW55x_RELEASE_V1.0.2/MSDK/lwip/lwip-2.1.2/src/core\dns.c ****   if (ipaddr_aton(hostname, addr)) {
1581:C:/Users/stapi/OneDrive/Desktop/GD32VW553/V1_MQTT_OK/GD32VW55X_Wifi_BLE_SDK/GD32VW55x_RELEASE_V1.0.2/MSDK/lwip/lwip-2.1.2/src/core\dns.c **** #if LWIP_IPV4 && LWIP_IPV6
1582:C:/Users/stapi/OneDrive/Desktop/GD32VW553/V1_MQTT_OK/GD32VW55X_Wifi_BLE_SDK/GD32VW55x_RELEASE_V1.0.2/MSDK/lwip/lwip-2.1.2/src/core\dns.c ****     if ((IP_IS_V6(addr) && (dns_addrtype != LWIP_DNS_ADDRTYPE_IPV4)) ||
1583:C:/Users/stapi/OneDrive/Desktop/GD32VW553/V1_MQTT_OK/GD32VW55X_Wifi_BLE_SDK/GD32VW55x_RELEASE_V1.0.2/MSDK/lwip/lwip-2.1.2/src/core\dns.c ****         (IP_IS_V4(addr) && (dns_addrtype != LWIP_DNS_ADDRTYPE_IPV6)))
1584:C:/Users/stapi/OneDrive/Desktop/GD32VW553/V1_MQTT_OK/GD32VW55X_Wifi_BLE_SDK/GD32VW55x_RELEASE_V1.0.2/MSDK/lwip/lwip-2.1.2/src/core\dns.c **** #endif /* LWIP_IPV4 && LWIP_IPV6 */
1585:C:/Users/stapi/OneDrive/Desktop/GD32VW553/V1_MQTT_OK/GD32VW55X_Wifi_BLE_SDK/GD32VW55x_RELEASE_V1.0.2/MSDK/lwip/lwip-2.1.2/src/core\dns.c ****     {
1586:C:/Users/stapi/OneDrive/Desktop/GD32VW553/V1_MQTT_OK/GD32VW55X_Wifi_BLE_SDK/GD32VW55x_RELEASE_V1.0.2/MSDK/lwip/lwip-2.1.2/src/core\dns.c ****       return ERR_OK;
1587:C:/Users/stapi/OneDrive/Desktop/GD32VW553/V1_MQTT_OK/GD32VW55X_Wifi_BLE_SDK/GD32VW55x_RELEASE_V1.0.2/MSDK/lwip/lwip-2.1.2/src/core\dns.c ****     }
1588:C:/Users/stapi/OneDrive/Desktop/GD32VW553/V1_MQTT_OK/GD32VW55X_Wifi_BLE_SDK/GD32VW55x_RELEASE_V1.0.2/MSDK/lwip/lwip-2.1.2/src/core\dns.c ****   }
1589:C:/Users/stapi/OneDrive/Desktop/GD32VW553/V1_MQTT_OK/GD32VW55X_Wifi_BLE_SDK/GD32VW55x_RELEASE_V1.0.2/MSDK/lwip/lwip-2.1.2/src/core\dns.c ****   /* already have this address cached? */
1590:C:/Users/stapi/OneDrive/Desktop/GD32VW553/V1_MQTT_OK/GD32VW55X_Wifi_BLE_SDK/GD32VW55x_RELEASE_V1.0.2/MSDK/lwip/lwip-2.1.2/src/core\dns.c ****   if (dns_lookup(hostname, addr LWIP_DNS_ADDRTYPE_ARG(dns_addrtype)) == ERR_OK) {
1591:C:/Users/stapi/OneDrive/Desktop/GD32VW553/V1_MQTT_OK/GD32VW55X_Wifi_BLE_SDK/GD32VW55x_RELEASE_V1.0.2/MSDK/lwip/lwip-2.1.2/src/core\dns.c ****     return ERR_OK;
 1633              		.loc 1 1591 12 is_stmt 0
 1634 0052 8147     		li	a5,0
 1635              	.LVL156:
 1636              	.L152:
1592:C:/Users/stapi/OneDrive/Desktop/GD32VW553/V1_MQTT_OK/GD32VW55X_Wifi_BLE_SDK/GD32VW55x_RELEASE_V1.0.2/MSDK/lwip/lwip-2.1.2/src/core\dns.c ****   }
1593:C:/Users/stapi/OneDrive/Desktop/GD32VW553/V1_MQTT_OK/GD32VW55X_Wifi_BLE_SDK/GD32VW55x_RELEASE_V1.0.2/MSDK/lwip/lwip-2.1.2/src/core\dns.c **** #if LWIP_IPV4 && LWIP_IPV6
1594:C:/Users/stapi/OneDrive/Desktop/GD32VW553/V1_MQTT_OK/GD32VW55X_Wifi_BLE_SDK/GD32VW55x_RELEASE_V1.0.2/MSDK/lwip/lwip-2.1.2/src/core\dns.c ****   if ((dns_addrtype == LWIP_DNS_ADDRTYPE_IPV4_IPV6) || (dns_addrtype == LWIP_DNS_ADDRTYPE_IPV6_IPV4
1595:C:/Users/stapi/OneDrive/Desktop/GD32VW553/V1_MQTT_OK/GD32VW55X_Wifi_BLE_SDK/GD32VW55x_RELEASE_V1.0.2/MSDK/lwip/lwip-2.1.2/src/core\dns.c ****     /* fallback to 2nd IP type and try again to lookup */
1596:C:/Users/stapi/OneDrive/Desktop/GD32VW553/V1_MQTT_OK/GD32VW55X_Wifi_BLE_SDK/GD32VW55x_RELEASE_V1.0.2/MSDK/lwip/lwip-2.1.2/src/core\dns.c ****     u8_t fallback;
1597:C:/Users/stapi/OneDrive/Desktop/GD32VW553/V1_MQTT_OK/GD32VW55X_Wifi_BLE_SDK/GD32VW55x_RELEASE_V1.0.2/MSDK/lwip/lwip-2.1.2/src/core\dns.c ****     if (dns_addrtype == LWIP_DNS_ADDRTYPE_IPV4_IPV6) {
1598:C:/Users/stapi/OneDrive/Desktop/GD32VW553/V1_MQTT_OK/GD32VW55X_Wifi_BLE_SDK/GD32VW55x_RELEASE_V1.0.2/MSDK/lwip/lwip-2.1.2/src/core\dns.c ****       fallback = LWIP_DNS_ADDRTYPE_IPV6;
1599:C:/Users/stapi/OneDrive/Desktop/GD32VW553/V1_MQTT_OK/GD32VW55X_Wifi_BLE_SDK/GD32VW55x_RELEASE_V1.0.2/MSDK/lwip/lwip-2.1.2/src/core\dns.c ****     } else {
1600:C:/Users/stapi/OneDrive/Desktop/GD32VW553/V1_MQTT_OK/GD32VW55X_Wifi_BLE_SDK/GD32VW55x_RELEASE_V1.0.2/MSDK/lwip/lwip-2.1.2/src/core\dns.c ****       fallback = LWIP_DNS_ADDRTYPE_IPV4;
1601:C:/Users/stapi/OneDrive/Desktop/GD32VW553/V1_MQTT_OK/GD32VW55X_Wifi_BLE_SDK/GD32VW55x_RELEASE_V1.0.2/MSDK/lwip/lwip-2.1.2/src/core\dns.c ****     }
1602:C:/Users/stapi/OneDrive/Desktop/GD32VW553/V1_MQTT_OK/GD32VW55X_Wifi_BLE_SDK/GD32VW55x_RELEASE_V1.0.2/MSDK/lwip/lwip-2.1.2/src/core\dns.c ****     if (dns_lookup(hostname, addr LWIP_DNS_ADDRTYPE_ARG(fallback)) == ERR_OK) {
1603:C:/Users/stapi/OneDrive/Desktop/GD32VW553/V1_MQTT_OK/GD32VW55X_Wifi_BLE_SDK/GD32VW55x_RELEASE_V1.0.2/MSDK/lwip/lwip-2.1.2/src/core\dns.c ****       return ERR_OK;
1604:C:/Users/stapi/OneDrive/Desktop/GD32VW553/V1_MQTT_OK/GD32VW55X_Wifi_BLE_SDK/GD32VW55x_RELEASE_V1.0.2/MSDK/lwip/lwip-2.1.2/src/core\dns.c ****     }
1605:C:/Users/stapi/OneDrive/Desktop/GD32VW553/V1_MQTT_OK/GD32VW55X_Wifi_BLE_SDK/GD32VW55x_RELEASE_V1.0.2/MSDK/lwip/lwip-2.1.2/src/core\dns.c ****   }
1606:C:/Users/stapi/OneDrive/Desktop/GD32VW553/V1_MQTT_OK/GD32VW55X_Wifi_BLE_SDK/GD32VW55x_RELEASE_V1.0.2/MSDK/lwip/lwip-2.1.2/src/core\dns.c **** #else /* LWIP_IPV4 && LWIP_IPV6 */
1607:C:/Users/stapi/OneDrive/Desktop/GD32VW553/V1_MQTT_OK/GD32VW55X_Wifi_BLE_SDK/GD32VW55x_RELEASE_V1.0.2/MSDK/lwip/lwip-2.1.2/src/core\dns.c ****   LWIP_UNUSED_ARG(dns_addrtype);
1608:C:/Users/stapi/OneDrive/Desktop/GD32VW553/V1_MQTT_OK/GD32VW55X_Wifi_BLE_SDK/GD32VW55x_RELEASE_V1.0.2/MSDK/lwip/lwip-2.1.2/src/core\dns.c **** #endif /* LWIP_IPV4 && LWIP_IPV6 */
1609:C:/Users/stapi/OneDrive/Desktop/GD32VW553/V1_MQTT_OK/GD32VW55X_Wifi_BLE_SDK/GD32VW55x_RELEASE_V1.0.2/MSDK/lwip/lwip-2.1.2/src/core\dns.c **** 
1610:C:/Users/stapi/OneDrive/Desktop/GD32VW553/V1_MQTT_OK/GD32VW55X_Wifi_BLE_SDK/GD32VW55x_RELEASE_V1.0.2/MSDK/lwip/lwip-2.1.2/src/core\dns.c **** #if LWIP_DNS_SUPPORT_MDNS_QUERIES
1611:C:/Users/stapi/OneDrive/Desktop/GD32VW553/V1_MQTT_OK/GD32VW55X_Wifi_BLE_SDK/GD32VW55x_RELEASE_V1.0.2/MSDK/lwip/lwip-2.1.2/src/core\dns.c ****   if (strstr(hostname, ".local") == &hostname[hostnamelen] - 6) {
1612:C:/Users/stapi/OneDrive/Desktop/GD32VW553/V1_MQTT_OK/GD32VW55X_Wifi_BLE_SDK/GD32VW55x_RELEASE_V1.0.2/MSDK/lwip/lwip-2.1.2/src/core\dns.c ****     is_mdns = 1;
1613:C:/Users/stapi/OneDrive/Desktop/GD32VW553/V1_MQTT_OK/GD32VW55X_Wifi_BLE_SDK/GD32VW55x_RELEASE_V1.0.2/MSDK/lwip/lwip-2.1.2/src/core\dns.c ****   } else {
1614:C:/Users/stapi/OneDrive/Desktop/GD32VW553/V1_MQTT_OK/GD32VW55X_Wifi_BLE_SDK/GD32VW55x_RELEASE_V1.0.2/MSDK/lwip/lwip-2.1.2/src/core\dns.c ****     is_mdns = 0;
1615:C:/Users/stapi/OneDrive/Desktop/GD32VW553/V1_MQTT_OK/GD32VW55X_Wifi_BLE_SDK/GD32VW55x_RELEASE_V1.0.2/MSDK/lwip/lwip-2.1.2/src/core\dns.c ****   }
1616:C:/Users/stapi/OneDrive/Desktop/GD32VW553/V1_MQTT_OK/GD32VW55X_Wifi_BLE_SDK/GD32VW55x_RELEASE_V1.0.2/MSDK/lwip/lwip-2.1.2/src/core\dns.c **** 
1617:C:/Users/stapi/OneDrive/Desktop/GD32VW553/V1_MQTT_OK/GD32VW55X_Wifi_BLE_SDK/GD32VW55x_RELEASE_V1.0.2/MSDK/lwip/lwip-2.1.2/src/core\dns.c ****   if (!is_mdns)
1618:C:/Users/stapi/OneDrive/Desktop/GD32VW553/V1_MQTT_OK/GD32VW55X_Wifi_BLE_SDK/GD32VW55x_RELEASE_V1.0.2/MSDK/lwip/lwip-2.1.2/src/core\dns.c **** #endif /* LWIP_DNS_SUPPORT_MDNS_QUERIES */
1619:C:/Users/stapi/OneDrive/Desktop/GD32VW553/V1_MQTT_OK/GD32VW55X_Wifi_BLE_SDK/GD32VW55x_RELEASE_V1.0.2/MSDK/lwip/lwip-2.1.2/src/core\dns.c ****   {
1620:C:/Users/stapi/OneDrive/Desktop/GD32VW553/V1_MQTT_OK/GD32VW55X_Wifi_BLE_SDK/GD32VW55x_RELEASE_V1.0.2/MSDK/lwip/lwip-2.1.2/src/core\dns.c ****     /* prevent calling found callback if no server is set, return error instead */
1621:C:/Users/stapi/OneDrive/Desktop/GD32VW553/V1_MQTT_OK/GD32VW55X_Wifi_BLE_SDK/GD32VW55x_RELEASE_V1.0.2/MSDK/lwip/lwip-2.1.2/src/core\dns.c ****     if (ip_addr_isany_val(dns_servers[0])) {
1622:C:/Users/stapi/OneDrive/Desktop/GD32VW553/V1_MQTT_OK/GD32VW55X_Wifi_BLE_SDK/GD32VW55x_RELEASE_V1.0.2/MSDK/lwip/lwip-2.1.2/src/core\dns.c ****       return ERR_VAL;
1623:C:/Users/stapi/OneDrive/Desktop/GD32VW553/V1_MQTT_OK/GD32VW55X_Wifi_BLE_SDK/GD32VW55x_RELEASE_V1.0.2/MSDK/lwip/lwip-2.1.2/src/core\dns.c ****     }
1624:C:/Users/stapi/OneDrive/Desktop/GD32VW553/V1_MQTT_OK/GD32VW55X_Wifi_BLE_SDK/GD32VW55x_RELEASE_V1.0.2/MSDK/lwip/lwip-2.1.2/src/core\dns.c ****   }
1625:C:/Users/stapi/OneDrive/Desktop/GD32VW553/V1_MQTT_OK/GD32VW55X_Wifi_BLE_SDK/GD32VW55x_RELEASE_V1.0.2/MSDK/lwip/lwip-2.1.2/src/core\dns.c **** 
1626:C:/Users/stapi/OneDrive/Desktop/GD32VW553/V1_MQTT_OK/GD32VW55X_Wifi_BLE_SDK/GD32VW55x_RELEASE_V1.0.2/MSDK/lwip/lwip-2.1.2/src/core\dns.c ****   /* queue query with specified callback */
1627:C:/Users/stapi/OneDrive/Desktop/GD32VW553/V1_MQTT_OK/GD32VW55X_Wifi_BLE_SDK/GD32VW55x_RELEASE_V1.0.2/MSDK/lwip/lwip-2.1.2/src/core\dns.c ****   return dns_enqueue(hostname, hostnamelen, found, callback_arg LWIP_DNS_ADDRTYPE_ARG(dns_addrtype)
1628:C:/Users/stapi/OneDrive/Desktop/GD32VW553/V1_MQTT_OK/GD32VW55X_Wifi_BLE_SDK/GD32VW55x_RELEASE_V1.0.2/MSDK/lwip/lwip-2.1.2/src/core\dns.c ****                      LWIP_DNS_ISMDNS_ARG(is_mdns));
1629:C:/Users/stapi/OneDrive/Desktop/GD32VW553/V1_MQTT_OK/GD32VW55X_Wifi_BLE_SDK/GD32VW55x_RELEASE_V1.0.2/MSDK/lwip/lwip-2.1.2/src/core\dns.c **** }
 1637              		.loc 1 1629 1
 1638 0054 3E85     		mv	a0,a5
 1639 0056 17030000 		tail	__riscv_restore_12
 1639      67000300 
 1640              		.cfi_remember_state
 1641              		.cfi_restore 27
 1642              		.cfi_restore 26
 1643              		.cfi_restore 25
 1644              		.cfi_restore 24
 1645              		.cfi_restore 23
 1646              		.cfi_restore 22
 1647              		.cfi_restore 21
 1648              		.cfi_restore 20
 1649              		.cfi_restore 19
 1650              		.cfi_restore 18
 1651              		.cfi_restore 9
 1652              		.cfi_restore 8
 1653              		.cfi_restore 1
 1654              		.cfi_def_cfa_offset 0
 1655              	.LVL157:
 1656              	.L115:
 1657              		.cfi_restore_state
1580:C:/Users/stapi/OneDrive/Desktop/GD32VW553/V1_MQTT_OK/GD32VW55X_Wifi_BLE_SDK/GD32VW55x_RELEASE_V1.0.2/MSDK/lwip/lwip-2.1.2/src/core\dns.c **** #if LWIP_IPV4 && LWIP_IPV6
 1658              		.loc 1 1580 3 is_stmt 1
1580:C:/Users/stapi/OneDrive/Desktop/GD32VW553/V1_MQTT_OK/GD32VW55X_Wifi_BLE_SDK/GD32VW55x_RELEASE_V1.0.2/MSDK/lwip/lwip-2.1.2/src/core\dns.c **** #if LWIP_IPV4 && LWIP_IPV6
 1659              		.loc 1 1580 7 is_stmt 0
 1660 005e D285     		mv	a1,s4
 1661 0060 2685     		mv	a0,s1
 1662 0062 97000000 		call	ip4addr_aton
 1662      E7800000 
 1663              	.LVL158:
1586:C:/Users/stapi/OneDrive/Desktop/GD32VW553/V1_MQTT_OK/GD32VW55X_Wifi_BLE_SDK/GD32VW55x_RELEASE_V1.0.2/MSDK/lwip/lwip-2.1.2/src/core\dns.c ****     }
 1664              		.loc 1 1586 14
 1665 006a 8147     		li	a5,0
1580:C:/Users/stapi/OneDrive/Desktop/GD32VW553/V1_MQTT_OK/GD32VW55X_Wifi_BLE_SDK/GD32VW55x_RELEASE_V1.0.2/MSDK/lwip/lwip-2.1.2/src/core\dns.c **** #if LWIP_IPV4 && LWIP_IPV6
 1666              		.loc 1 1580 6
 1667 006c 65F5     		bne	a0,zero,.L152
 1668 006e 37040000 		lui	s0,%hi(.LANCHOR0)
 1669 0072 130B0400 		addi	s6,s0,%lo(.LANCHOR0)
 1670 0076 93090400 		addi	s3,s0,%lo(.LANCHOR0)
 1671 007a 0149     		li	s2,0
 1672 007c 13040400 		addi	s0,s0,%lo(.LANCHOR0)
 1673              	.LBB88:
 1674              	.LBB87:
 618:C:/Users/stapi/OneDrive/Desktop/GD32VW553/V1_MQTT_OK/GD32VW55X_Wifi_BLE_SDK/GD32VW55x_RELEASE_V1.0.2/MSDK/lwip/lwip-2.1.2/src/core\dns.c ****         (lwip_strnicmp(name, dns_table[i].name, sizeof(dns_table[i].name)) == 0) &&
 1675              		.loc 1 618 8
 1676 0080 0D4D     		li	s10,3
 617:C:/Users/stapi/OneDrive/Desktop/GD32VW553/V1_MQTT_OK/GD32VW55X_Wifi_BLE_SDK/GD32VW55x_RELEASE_V1.0.2/MSDK/lwip/lwip-2.1.2/src/core\dns.c ****     if ((dns_table[i].state == DNS_STATE_DONE) &&
 1677              		.loc 1 617 3
 1678 0082 914A     		li	s5,4
 1679              	.L117:
 1680              	.LVL159:
 618:C:/Users/stapi/OneDrive/Desktop/GD32VW553/V1_MQTT_OK/GD32VW55X_Wifi_BLE_SDK/GD32VW55x_RELEASE_V1.0.2/MSDK/lwip/lwip-2.1.2/src/core\dns.c ****         (lwip_strnicmp(name, dns_table[i].name, sizeof(dns_table[i].name)) == 0) &&
 1681              		.loc 1 618 5 is_stmt 1
 618:C:/Users/stapi/OneDrive/Desktop/GD32VW553/V1_MQTT_OK/GD32VW55X_Wifi_BLE_SDK/GD32VW55x_RELEASE_V1.0.2/MSDK/lwip/lwip-2.1.2/src/core\dns.c ****         (lwip_strnicmp(name, dns_table[i].name, sizeof(dns_table[i].name)) == 0) &&
 1682              		.loc 1 618 8 is_stmt 0
 1683 0084 83C7A900 		lbu	a5,10(s3)
 1684 0088 6392A703 		bne	a5,s10,.L116
 619:C:/Users/stapi/OneDrive/Desktop/GD32VW553/V1_MQTT_OK/GD32VW55X_Wifi_BLE_SDK/GD32VW55x_RELEASE_V1.0.2/MSDK/lwip/lwip-2.1.2/src/core\dns.c ****         LWIP_DNS_ADDRTYPE_MATCH_IP(dns_addrtype, dns_table[i].ipaddr)) {
 1685              		.loc 1 619 10
 1686 008c 13060010 		li	a2,256
 1687 0090 93850901 		addi	a1,s3,16
 1688 0094 2685     		mv	a0,s1
 1689 0096 97000000 		call	lwip_strnicmp
 1689      E7800000 
 1690              	.LVL160:
 618:C:/Users/stapi/OneDrive/Desktop/GD32VW553/V1_MQTT_OK/GD32VW55X_Wifi_BLE_SDK/GD32VW55x_RELEASE_V1.0.2/MSDK/lwip/lwip-2.1.2/src/core\dns.c ****         (lwip_strnicmp(name, dns_table[i].name, sizeof(dns_table[i].name)) == 0) &&
 1691              		.loc 1 618 48
 1692 009e 19E5     		bne	a0,zero,.L116
 621:C:/Users/stapi/OneDrive/Desktop/GD32VW553/V1_MQTT_OK/GD32VW55X_Wifi_BLE_SDK/GD32VW55x_RELEASE_V1.0.2/MSDK/lwip/lwip-2.1.2/src/core\dns.c ****       ip_addr_debug_print_val(DNS_DEBUG, dns_table[i].ipaddr);
 1693              		.loc 1 621 69 is_stmt 1
 622:C:/Users/stapi/OneDrive/Desktop/GD32VW553/V1_MQTT_OK/GD32VW55X_Wifi_BLE_SDK/GD32VW55x_RELEASE_V1.0.2/MSDK/lwip/lwip-2.1.2/src/core\dns.c ****       LWIP_DEBUGF(DNS_DEBUG, ("\n"));
 1694              		.loc 1 622 62
 623:C:/Users/stapi/OneDrive/Desktop/GD32VW553/V1_MQTT_OK/GD32VW55X_Wifi_BLE_SDK/GD32VW55x_RELEASE_V1.0.2/MSDK/lwip/lwip-2.1.2/src/core\dns.c ****       if (addr) {
 1695              		.loc 1 623 37
 624:C:/Users/stapi/OneDrive/Desktop/GD32VW553/V1_MQTT_OK/GD32VW55X_Wifi_BLE_SDK/GD32VW55x_RELEASE_V1.0.2/MSDK/lwip/lwip-2.1.2/src/core\dns.c ****         ip_addr_copy(*addr, dns_table[i].ipaddr);
 1696              		.loc 1 624 7
 625:C:/Users/stapi/OneDrive/Desktop/GD32VW553/V1_MQTT_OK/GD32VW55X_Wifi_BLE_SDK/GD32VW55x_RELEASE_V1.0.2/MSDK/lwip/lwip-2.1.2/src/core\dns.c ****       }
 1697              		.loc 1 625 9
 1698 00a0 93070011 		li	a5,272
 1699 00a4 7F14F9C4 		maddr32	s0, s2, a5
 1700 00a8 5C40     		lw	a5,4(s0)
 1701 00aa 55B7     		j	.L170
 1702              	.L116:
 617:C:/Users/stapi/OneDrive/Desktop/GD32VW553/V1_MQTT_OK/GD32VW55X_Wifi_BLE_SDK/GD32VW55x_RELEASE_V1.0.2/MSDK/lwip/lwip-2.1.2/src/core\dns.c ****     if ((dns_table[i].state == DNS_STATE_DONE) &&
 1703              		.loc 1 617 35
 1704              	.LVL161:
 617:C:/Users/stapi/OneDrive/Desktop/GD32VW553/V1_MQTT_OK/GD32VW55X_Wifi_BLE_SDK/GD32VW55x_RELEASE_V1.0.2/MSDK/lwip/lwip-2.1.2/src/core\dns.c ****     if ((dns_table[i].state == DNS_STATE_DONE) &&
 1705              		.loc 1 617 15
 617:C:/Users/stapi/OneDrive/Desktop/GD32VW553/V1_MQTT_OK/GD32VW55X_Wifi_BLE_SDK/GD32VW55x_RELEASE_V1.0.2/MSDK/lwip/lwip-2.1.2/src/core\dns.c ****     if ((dns_table[i].state == DNS_STATE_DONE) &&
 1706              		.loc 1 617 3 is_stmt 0
 1707 00ac 0509     		addi	s2,s2,1
 1708              	.LVL162:
 1709 00ae 93890911 		addi	s3,s3,272
 1710 00b2 E31959FD 		bne	s2,s5,.L117
 1711              	.LBE87:
 1712              	.LBE88:
1607:C:/Users/stapi/OneDrive/Desktop/GD32VW553/V1_MQTT_OK/GD32VW55X_Wifi_BLE_SDK/GD32VW55x_RELEASE_V1.0.2/MSDK/lwip/lwip-2.1.2/src/core\dns.c **** #endif /* LWIP_IPV4 && LWIP_IPV6 */
 1713              		.loc 1 1607 3 is_stmt 1
1621:C:/Users/stapi/OneDrive/Desktop/GD32VW553/V1_MQTT_OK/GD32VW55X_Wifi_BLE_SDK/GD32VW55x_RELEASE_V1.0.2/MSDK/lwip/lwip-2.1.2/src/core\dns.c ****       return ERR_VAL;
 1714              		.loc 1 1621 5
1621:C:/Users/stapi/OneDrive/Desktop/GD32VW553/V1_MQTT_OK/GD32VW55X_Wifi_BLE_SDK/GD32VW55x_RELEASE_V1.0.2/MSDK/lwip/lwip-2.1.2/src/core\dns.c ****       return ERR_VAL;
 1715              		.loc 1 1621 8 is_stmt 0
 1716 00b6 B7070000 		lui	a5,%hi(.LANCHOR3)
 1717 00ba 03A70700 		lw	a4,%lo(.LANCHOR3)(a5)
1622:C:/Users/stapi/OneDrive/Desktop/GD32VW553/V1_MQTT_OK/GD32VW55X_Wifi_BLE_SDK/GD32VW55x_RELEASE_V1.0.2/MSDK/lwip/lwip-2.1.2/src/core\dns.c ****     }
 1718              		.loc 1 1622 14
 1719 00be E957     		li	a5,-6
1621:C:/Users/stapi/OneDrive/Desktop/GD32VW553/V1_MQTT_OK/GD32VW55X_Wifi_BLE_SDK/GD32VW55x_RELEASE_V1.0.2/MSDK/lwip/lwip-2.1.2/src/core\dns.c ****       return ERR_VAL;
 1720              		.loc 1 1621 8
 1721 00c0 51DB     		beq	a4,zero,.L152
 1722 00c2 B70A0000 		lui	s5,%hi(.LANCHOR1)
 1723 00c6 5A8A     		mv	s4,s6
 1724              	.LVL163:
 1725              	.LBB89:
 1726              	.LBB90:
1387:C:/Users/stapi/OneDrive/Desktop/GD32VW553/V1_MQTT_OK/GD32VW55X_Wifi_BLE_SDK/GD32VW55x_RELEASE_V1.0.2/MSDK/lwip/lwip-2.1.2/src/core\dns.c ****     if ((dns_table[i].state == DNS_STATE_ASKING) &&
 1727              		.loc 1 1387 10
 1728 00c8 0149     		li	s2,0
1388:C:/Users/stapi/OneDrive/Desktop/GD32VW553/V1_MQTT_OK/GD32VW55X_Wifi_BLE_SDK/GD32VW55x_RELEASE_V1.0.2/MSDK/lwip/lwip-2.1.2/src/core\dns.c ****         (lwip_strnicmp(name, dns_table[i].name, sizeof(dns_table[i].name)) == 0)) {
 1729              		.loc 1 1388 8
 1730 00ca 894D     		li	s11,2
 1731 00cc 93890A00 		addi	s3,s5,%lo(.LANCHOR1)
1399:C:/Users/stapi/OneDrive/Desktop/GD32VW553/V1_MQTT_OK/GD32VW55X_Wifi_BLE_SDK/GD32VW55x_RELEASE_V1.0.2/MSDK/lwip/lwip-2.1.2/src/core\dns.c ****         if (dns_requests[r].found == 0) {
 1732              		.loc 1 1399 7
 1733 00d0 114D     		li	s10,4
 1734              	.L119:
 1735              	.LVL164:
1388:C:/Users/stapi/OneDrive/Desktop/GD32VW553/V1_MQTT_OK/GD32VW55X_Wifi_BLE_SDK/GD32VW55x_RELEASE_V1.0.2/MSDK/lwip/lwip-2.1.2/src/core\dns.c ****         (lwip_strnicmp(name, dns_table[i].name, sizeof(dns_table[i].name)) == 0)) {
 1736              		.loc 1 1388 5 is_stmt 1
1388:C:/Users/stapi/OneDrive/Desktop/GD32VW553/V1_MQTT_OK/GD32VW55X_Wifi_BLE_SDK/GD32VW55x_RELEASE_V1.0.2/MSDK/lwip/lwip-2.1.2/src/core\dns.c ****         (lwip_strnicmp(name, dns_table[i].name, sizeof(dns_table[i].name)) == 0)) {
 1737              		.loc 1 1388 8 is_stmt 0
 1738 00d2 8347AA00 		lbu	a5,10(s4)
 1739 00d6 638AB70D 		beq	a5,s11,.L118
 1740              	.L121:
1387:C:/Users/stapi/OneDrive/Desktop/GD32VW553/V1_MQTT_OK/GD32VW55X_Wifi_BLE_SDK/GD32VW55x_RELEASE_V1.0.2/MSDK/lwip/lwip-2.1.2/src/core\dns.c ****     if ((dns_table[i].state == DNS_STATE_ASKING) &&
 1741              		.loc 1 1387 35 is_stmt 1
1387:C:/Users/stapi/OneDrive/Desktop/GD32VW553/V1_MQTT_OK/GD32VW55X_Wifi_BLE_SDK/GD32VW55x_RELEASE_V1.0.2/MSDK/lwip/lwip-2.1.2/src/core\dns.c ****     if ((dns_table[i].state == DNS_STATE_ASKING) &&
 1742              		.loc 1 1387 36 is_stmt 0
 1743 00da 0509     		addi	s2,s2,1
 1744              	.LVL165:
 1745 00dc 1379F90F 		andi	s2,s2,0xff
 1746              	.LVL166:
1387:C:/Users/stapi/OneDrive/Desktop/GD32VW553/V1_MQTT_OK/GD32VW55X_Wifi_BLE_SDK/GD32VW55x_RELEASE_V1.0.2/MSDK/lwip/lwip-2.1.2/src/core\dns.c ****     if ((dns_table[i].state == DNS_STATE_ASKING) &&
 1747              		.loc 1 1387 15 is_stmt 1
1387:C:/Users/stapi/OneDrive/Desktop/GD32VW553/V1_MQTT_OK/GD32VW55X_Wifi_BLE_SDK/GD32VW55x_RELEASE_V1.0.2/MSDK/lwip/lwip-2.1.2/src/core\dns.c ****     if ((dns_table[i].state == DNS_STATE_ASKING) &&
 1748              		.loc 1 1387 3 is_stmt 0
 1749 00e0 130A0A11 		addi	s4,s4,272
 1750 00e4 E317A9FF 		bne	s2,s10,.L119
 1751              	.LBB91:
1425:C:/Users/stapi/OneDrive/Desktop/GD32VW553/V1_MQTT_OK/GD32VW55X_Wifi_BLE_SDK/GD32VW55x_RELEASE_V1.0.2/MSDK/lwip/lwip-2.1.2/src/core\dns.c ****       if (age > lseq) {
 1752              		.loc 1 1425 18
 1753 00e8 B70A0000 		lui	s5,%hi(.LANCHOR4)
 1754 00ec 83C60A00 		lbu	a3,%lo(.LANCHOR4)(s5)
 1755              	.LBE91:
1416:C:/Users/stapi/OneDrive/Desktop/GD32VW553/V1_MQTT_OK/GD32VW55X_Wifi_BLE_SDK/GD32VW55x_RELEASE_V1.0.2/MSDK/lwip/lwip-2.1.2/src/core\dns.c ****   for (i = 0; i < DNS_TABLE_SIZE; ++i) {
 1756              		.loc 1 1416 9
 1757 00f0 114A     		li	s4,4
 1758              	.LBB92:
1425:C:/Users/stapi/OneDrive/Desktop/GD32VW553/V1_MQTT_OK/GD32VW55X_Wifi_BLE_SDK/GD32VW55x_RELEASE_V1.0.2/MSDK/lwip/lwip-2.1.2/src/core\dns.c ****       if (age > lseq) {
 1759              		.loc 1 1425 18
 1760 00f2 0147     		li	a4,0
 1761              	.LBE92:
1415:C:/Users/stapi/OneDrive/Desktop/GD32VW553/V1_MQTT_OK/GD32VW55X_Wifi_BLE_SDK/GD32VW55x_RELEASE_V1.0.2/MSDK/lwip/lwip-2.1.2/src/core\dns.c ****   lseqi = DNS_TABLE_SIZE;
 1762              		.loc 1 1415 8
 1763 00f4 0146     		li	a2,0
 1764 00f6 938A0A00 		addi	s5,s5,%lo(.LANCHOR4)
1424:C:/Users/stapi/OneDrive/Desktop/GD32VW553/V1_MQTT_OK/GD32VW55X_Wifi_BLE_SDK/GD32VW55x_RELEASE_V1.0.2/MSDK/lwip/lwip-2.1.2/src/core\dns.c ****       u8_t age = (u8_t)(dns_seqno - entry->seqno);
 1765              		.loc 1 1424 8
 1766 00fa 0D48     		li	a6,3
1417:C:/Users/stapi/OneDrive/Desktop/GD32VW553/V1_MQTT_OK/GD32VW55X_Wifi_BLE_SDK/GD32VW55x_RELEASE_V1.0.2/MSDK/lwip/lwip-2.1.2/src/core\dns.c ****     entry = &dns_table[i];
 1767              		.loc 1 1417 3
 1768 00fc 1145     		li	a0,4
 1769              	.LVL167:
 1770              	.L127:
1420:C:/Users/stapi/OneDrive/Desktop/GD32VW553/V1_MQTT_OK/GD32VW55X_Wifi_BLE_SDK/GD32VW55x_RELEASE_V1.0.2/MSDK/lwip/lwip-2.1.2/src/core\dns.c ****       break;
 1771              		.loc 1 1420 14
 1772 00fe 8347AB00 		lbu	a5,10(s6)
 1773 0102 9375F70F 		andi	a1,a4,0xff
 1774              	.LVL168:
1418:C:/Users/stapi/OneDrive/Desktop/GD32VW553/V1_MQTT_OK/GD32VW55X_Wifi_BLE_SDK/GD32VW55x_RELEASE_V1.0.2/MSDK/lwip/lwip-2.1.2/src/core\dns.c ****     /* is it an unused entry ? */
 1775              		.loc 1 1418 5 is_stmt 1
1420:C:/Users/stapi/OneDrive/Desktop/GD32VW553/V1_MQTT_OK/GD32VW55X_Wifi_BLE_SDK/GD32VW55x_RELEASE_V1.0.2/MSDK/lwip/lwip-2.1.2/src/core\dns.c ****       break;
 1776              		.loc 1 1420 5
1420:C:/Users/stapi/OneDrive/Desktop/GD32VW553/V1_MQTT_OK/GD32VW55X_Wifi_BLE_SDK/GD32VW55x_RELEASE_V1.0.2/MSDK/lwip/lwip-2.1.2/src/core\dns.c ****       break;
 1777              		.loc 1 1420 8 is_stmt 0
 1778 0106 F5E3     		bne	a5,zero,.L124
1418:C:/Users/stapi/OneDrive/Desktop/GD32VW553/V1_MQTT_OK/GD32VW55X_Wifi_BLE_SDK/GD32VW55x_RELEASE_V1.0.2/MSDK/lwip/lwip-2.1.2/src/core\dns.c ****     /* is it an unused entry ? */
 1779              		.loc 1 1418 11
 1780 0108 93070011 		li	a5,272
 1781 010c 2E8A     		mv	s4,a1
 1782              	.LVL169:
 1783 010e 7F14F7C4 		maddr32	s0, a4, a5
 1784              	.LVL170:
 1785              	.L125:
1448:C:/Users/stapi/OneDrive/Desktop/GD32VW553/V1_MQTT_OK/GD32VW55X_Wifi_BLE_SDK/GD32VW55x_RELEASE_V1.0.2/MSDK/lwip/lwip-2.1.2/src/core\dns.c ****   for (r = 0; r < DNS_MAX_REQUESTS; r++) {
 1786              		.loc 1 1448 3 is_stmt 1
1449:C:/Users/stapi/OneDrive/Desktop/GD32VW553/V1_MQTT_OK/GD32VW55X_Wifi_BLE_SDK/GD32VW55x_RELEASE_V1.0.2/MSDK/lwip/lwip-2.1.2/src/core\dns.c ****     if (dns_requests[r].found == NULL) {
 1787              		.loc 1 1449 3
1449:C:/Users/stapi/OneDrive/Desktop/GD32VW553/V1_MQTT_OK/GD32VW55X_Wifi_BLE_SDK/GD32VW55x_RELEASE_V1.0.2/MSDK/lwip/lwip-2.1.2/src/core\dns.c ****     if (dns_requests[r].found == NULL) {
 1788              		.loc 1 1449 15
 1789 0112 B7090000 		lui	s3,%hi(.LANCHOR1)
 1790 0116 93870900 		addi	a5,s3,%lo(.LANCHOR1)
1418:C:/Users/stapi/OneDrive/Desktop/GD32VW553/V1_MQTT_OK/GD32VW55X_Wifi_BLE_SDK/GD32VW55x_RELEASE_V1.0.2/MSDK/lwip/lwip-2.1.2/src/core\dns.c ****     /* is it an unused entry ? */
 1791              		.loc 1 1418 11 is_stmt 0
 1792 011a 014B     		li	s6,0
 1793 011c 93890900 		addi	s3,s3,%lo(.LANCHOR1)
1449:C:/Users/stapi/OneDrive/Desktop/GD32VW553/V1_MQTT_OK/GD32VW55X_Wifi_BLE_SDK/GD32VW55x_RELEASE_V1.0.2/MSDK/lwip/lwip-2.1.2/src/core\dns.c ****     if (dns_requests[r].found == NULL) {
 1794              		.loc 1 1449 3
 1795 0120 1147     		li	a4,4
 1796              	.LVL171:
 1797              	.L131:
1450:C:/Users/stapi/OneDrive/Desktop/GD32VW553/V1_MQTT_OK/GD32VW55X_Wifi_BLE_SDK/GD32VW55x_RELEASE_V1.0.2/MSDK/lwip/lwip-2.1.2/src/core\dns.c ****       req = &dns_requests[r];
 1798              		.loc 1 1450 5 is_stmt 1
1450:C:/Users/stapi/OneDrive/Desktop/GD32VW553/V1_MQTT_OK/GD32VW55X_Wifi_BLE_SDK/GD32VW55x_RELEASE_V1.0.2/MSDK/lwip/lwip-2.1.2/src/core\dns.c ****       req = &dns_requests[r];
 1799              		.loc 1 1450 8 is_stmt 0
 1800 0122 9043     		lw	a2,0(a5)
 1801 0124 63120610 		bne	a2,zero,.L129
1451:C:/Users/stapi/OneDrive/Desktop/GD32VW553/V1_MQTT_OK/GD32VW55X_Wifi_BLE_SDK/GD32VW55x_RELEASE_V1.0.2/MSDK/lwip/lwip-2.1.2/src/core\dns.c ****       break;
 1802              		.loc 1 1451 7 is_stmt 1
 1803              	.LVL172:
1452:C:/Users/stapi/OneDrive/Desktop/GD32VW553/V1_MQTT_OK/GD32VW55X_Wifi_BLE_SDK/GD32VW55x_RELEASE_V1.0.2/MSDK/lwip/lwip-2.1.2/src/core\dns.c ****     }
 1804              		.loc 1 1452 7
1455:C:/Users/stapi/OneDrive/Desktop/GD32VW553/V1_MQTT_OK/GD32VW55X_Wifi_BLE_SDK/GD32VW55x_RELEASE_V1.0.2/MSDK/lwip/lwip-2.1.2/src/core\dns.c ****     /* no request entry can be used now, table is full */
 1805              		.loc 1 1455 3
1460:C:/Users/stapi/OneDrive/Desktop/GD32VW553/V1_MQTT_OK/GD32VW55X_Wifi_BLE_SDK/GD32VW55x_RELEASE_V1.0.2/MSDK/lwip/lwip-2.1.2/src/core\dns.c **** #else
 1806              		.loc 1 1460 3
1460:C:/Users/stapi/OneDrive/Desktop/GD32VW553/V1_MQTT_OK/GD32VW55X_Wifi_BLE_SDK/GD32VW55x_RELEASE_V1.0.2/MSDK/lwip/lwip-2.1.2/src/core\dns.c **** #else
 1807              		.loc 1 1460 22 is_stmt 0
 1808 0128 3147     		li	a4,12
 1809 012a CE87     		mv	a5,s3
 1810 012c FF17EBC4 		maddr32	a5, s6, a4
1470:C:/Users/stapi/OneDrive/Desktop/GD32VW553/V1_MQTT_OK/GD32VW55X_Wifi_BLE_SDK/GD32VW55x_RELEASE_V1.0.2/MSDK/lwip/lwip-2.1.2/src/core\dns.c ****   entry->seqno = dns_seqno;
 1811              		.loc 1 1470 16
 1812 0130 0547     		li	a4,1
1460:C:/Users/stapi/OneDrive/Desktop/GD32VW553/V1_MQTT_OK/GD32VW55X_Wifi_BLE_SDK/GD32VW55x_RELEASE_V1.0.2/MSDK/lwip/lwip-2.1.2/src/core\dns.c **** #else
 1813              		.loc 1 1460 22
 1814 0132 23844701 		sb	s4,8(a5)
1467:C:/Users/stapi/OneDrive/Desktop/GD32VW553/V1_MQTT_OK/GD32VW55X_Wifi_BLE_SDK/GD32VW55x_RELEASE_V1.0.2/MSDK/lwip/lwip-2.1.2/src/core\dns.c **** 
 1815              		.loc 1 1467 94 is_stmt 1
1470:C:/Users/stapi/OneDrive/Desktop/GD32VW553/V1_MQTT_OK/GD32VW55X_Wifi_BLE_SDK/GD32VW55x_RELEASE_V1.0.2/MSDK/lwip/lwip-2.1.2/src/core\dns.c ****   entry->seqno = dns_seqno;
 1816              		.loc 1 1470 3
1470:C:/Users/stapi/OneDrive/Desktop/GD32VW553/V1_MQTT_OK/GD32VW55X_Wifi_BLE_SDK/GD32VW55x_RELEASE_V1.0.2/MSDK/lwip/lwip-2.1.2/src/core\dns.c ****   entry->seqno = dns_seqno;
 1817              		.loc 1 1470 16 is_stmt 0
 1818 0136 2305E400 		sb	a4,10(s0)
1471:C:/Users/stapi/OneDrive/Desktop/GD32VW553/V1_MQTT_OK/GD32VW55X_Wifi_BLE_SDK/GD32VW55x_RELEASE_V1.0.2/MSDK/lwip/lwip-2.1.2/src/core\dns.c ****   LWIP_DNS_SET_ADDRTYPE(entry->reqaddrtype, dns_addrtype);
 1819              		.loc 1 1471 3 is_stmt 1
1474:C:/Users/stapi/OneDrive/Desktop/GD32VW553/V1_MQTT_OK/GD32VW55X_Wifi_BLE_SDK/GD32VW55x_RELEASE_V1.0.2/MSDK/lwip/lwip-2.1.2/src/core\dns.c ****   req->arg   = callback_arg;
 1820              		.loc 1 1474 14 is_stmt 0
 1821 013a 23A08701 		sw	s8,0(a5)
1475:C:/Users/stapi/OneDrive/Desktop/GD32VW553/V1_MQTT_OK/GD32VW55X_Wifi_BLE_SDK/GD32VW55x_RELEASE_V1.0.2/MSDK/lwip/lwip-2.1.2/src/core\dns.c ****   namelen = LWIP_MIN(hostnamelen, DNS_MAX_NAME_LENGTH - 1);
 1822              		.loc 1 1475 14
 1823 013e 23A29701 		sw	s9,4(a5)
1477:C:/Users/stapi/OneDrive/Desktop/GD32VW553/V1_MQTT_OK/GD32VW55X_Wifi_BLE_SDK/GD32VW55x_RELEASE_V1.0.2/MSDK/lwip/lwip-2.1.2/src/core\dns.c ****   entry->name[namelen] = 0;
 1824              		.loc 1 1477 3
 1825 0142 5E86     		mv	a2,s7
 1826 0144 A685     		mv	a1,s1
1478:C:/Users/stapi/OneDrive/Desktop/GD32VW553/V1_MQTT_OK/GD32VW55X_Wifi_BLE_SDK/GD32VW55x_RELEASE_V1.0.2/MSDK/lwip/lwip-2.1.2/src/core\dns.c **** 
 1827              		.loc 1 1478 24
 1828 0146 A29B     		add	s7,s0,s7
 1829              	.LVL173:
1471:C:/Users/stapi/OneDrive/Desktop/GD32VW553/V1_MQTT_OK/GD32VW55X_Wifi_BLE_SDK/GD32VW55x_RELEASE_V1.0.2/MSDK/lwip/lwip-2.1.2/src/core\dns.c ****   LWIP_DNS_SET_ADDRTYPE(entry->reqaddrtype, dns_addrtype);
 1830              		.loc 1 1471 16
 1831 0148 2307D400 		sb	a3,14(s0)
1472:C:/Users/stapi/OneDrive/Desktop/GD32VW553/V1_MQTT_OK/GD32VW55X_Wifi_BLE_SDK/GD32VW55x_RELEASE_V1.0.2/MSDK/lwip/lwip-2.1.2/src/core\dns.c ****   LWIP_DNS_SET_ADDRTYPE(req->reqaddrtype, dns_addrtype);
 1832              		.loc 1 1472 58 is_stmt 1
1473:C:/Users/stapi/OneDrive/Desktop/GD32VW553/V1_MQTT_OK/GD32VW55X_Wifi_BLE_SDK/GD32VW55x_RELEASE_V1.0.2/MSDK/lwip/lwip-2.1.2/src/core\dns.c ****   req->found = found;
 1833              		.loc 1 1473 56
1474:C:/Users/stapi/OneDrive/Desktop/GD32VW553/V1_MQTT_OK/GD32VW55X_Wifi_BLE_SDK/GD32VW55x_RELEASE_V1.0.2/MSDK/lwip/lwip-2.1.2/src/core\dns.c ****   req->arg   = callback_arg;
 1834              		.loc 1 1474 3
1475:C:/Users/stapi/OneDrive/Desktop/GD32VW553/V1_MQTT_OK/GD32VW55X_Wifi_BLE_SDK/GD32VW55x_RELEASE_V1.0.2/MSDK/lwip/lwip-2.1.2/src/core\dns.c ****   namelen = LWIP_MIN(hostnamelen, DNS_MAX_NAME_LENGTH - 1);
 1835              		.loc 1 1475 3
1476:C:/Users/stapi/OneDrive/Desktop/GD32VW553/V1_MQTT_OK/GD32VW55X_Wifi_BLE_SDK/GD32VW55x_RELEASE_V1.0.2/MSDK/lwip/lwip-2.1.2/src/core\dns.c ****   MEMCPY(entry->name, name, namelen);
 1836              		.loc 1 1476 3
1477:C:/Users/stapi/OneDrive/Desktop/GD32VW553/V1_MQTT_OK/GD32VW55X_Wifi_BLE_SDK/GD32VW55x_RELEASE_V1.0.2/MSDK/lwip/lwip-2.1.2/src/core\dns.c ****   entry->name[namelen] = 0;
 1837              		.loc 1 1477 3
 1838 014c 13050401 		addi	a0,s0,16
 1839 0150 97000000 		call	memcpy
 1839      E7800000 
 1840              	.LVL174:
1478:C:/Users/stapi/OneDrive/Desktop/GD32VW553/V1_MQTT_OK/GD32VW55X_Wifi_BLE_SDK/GD32VW55x_RELEASE_V1.0.2/MSDK/lwip/lwip-2.1.2/src/core\dns.c **** 
 1841              		.loc 1 1478 3
1478:C:/Users/stapi/OneDrive/Desktop/GD32VW553/V1_MQTT_OK/GD32VW55X_Wifi_BLE_SDK/GD32VW55x_RELEASE_V1.0.2/MSDK/lwip/lwip-2.1.2/src/core\dns.c **** 
 1842              		.loc 1 1478 24 is_stmt 0
 1843 0158 23880B00 		sb	zero,16(s7)
1481:C:/Users/stapi/OneDrive/Desktop/GD32VW553/V1_MQTT_OK/GD32VW55X_Wifi_BLE_SDK/GD32VW55x_RELEASE_V1.0.2/MSDK/lwip/lwip-2.1.2/src/core\dns.c ****   if (entry->pcb_idx >= DNS_MAX_SOURCE_PORTS) {
 1844              		.loc 1 1481 3 is_stmt 1
 1845              	.LBB93:
 1846              	.LBB94:
 902:C:/Users/stapi/OneDrive/Desktop/GD32VW553/V1_MQTT_OK/GD32VW55X_Wifi_BLE_SDK/GD32VW55x_RELEASE_V1.0.2/MSDK/lwip/lwip-2.1.2/src/core\dns.c ****   u8_t idx;
 1847              		.loc 1 902 3
 903:C:/Users/stapi/OneDrive/Desktop/GD32VW553/V1_MQTT_OK/GD32VW55X_Wifi_BLE_SDK/GD32VW55x_RELEASE_V1.0.2/MSDK/lwip/lwip-2.1.2/src/core\dns.c **** 
 1848              		.loc 1 903 3
 905:C:/Users/stapi/OneDrive/Desktop/GD32VW553/V1_MQTT_OK/GD32VW55X_Wifi_BLE_SDK/GD32VW55x_RELEASE_V1.0.2/MSDK/lwip/lwip-2.1.2/src/core\dns.c ****     if (dns_pcbs[i] == NULL) {
 1849              		.loc 1 905 3
 1850              	.LVL175:
 905:C:/Users/stapi/OneDrive/Desktop/GD32VW553/V1_MQTT_OK/GD32VW55X_Wifi_BLE_SDK/GD32VW55x_RELEASE_V1.0.2/MSDK/lwip/lwip-2.1.2/src/core\dns.c ****     if (dns_pcbs[i] == NULL) {
 1851              		.loc 1 905 15
 1852 015c B70B0000 		lui	s7,%hi(.LANCHOR2)
 1853 0160 93870B00 		addi	a5,s7,%lo(.LANCHOR2)
 1854              	.LBE94:
 1855              	.LBE93:
1478:C:/Users/stapi/OneDrive/Desktop/GD32VW553/V1_MQTT_OK/GD32VW55X_Wifi_BLE_SDK/GD32VW55x_RELEASE_V1.0.2/MSDK/lwip/lwip-2.1.2/src/core\dns.c **** 
 1856              		.loc 1 1478 24 is_stmt 0
 1857 0164 8144     		li	s1,0
 1858              	.LVL176:
 1859 0166 938B0B00 		addi	s7,s7,%lo(.LANCHOR2)
 1860              	.LBB105:
 1861              	.LBB101:
 905:C:/Users/stapi/OneDrive/Desktop/GD32VW553/V1_MQTT_OK/GD32VW55X_Wifi_BLE_SDK/GD32VW55x_RELEASE_V1.0.2/MSDK/lwip/lwip-2.1.2/src/core\dns.c ****     if (dns_pcbs[i] == NULL) {
 1862              		.loc 1 905 3
 1863 016a 1147     		li	a4,4
 1864              	.LVL177:
 1865              	.L130:
 906:C:/Users/stapi/OneDrive/Desktop/GD32VW553/V1_MQTT_OK/GD32VW55X_Wifi_BLE_SDK/GD32VW55x_RELEASE_V1.0.2/MSDK/lwip/lwip-2.1.2/src/core\dns.c ****       break;
 1866              		.loc 1 906 8
 1867 016c 9443     		lw	a3,0(a5)
 1868 016e 13FCF40F 		andi	s8,s1,0xff
 1869              	.LVL178:
 906:C:/Users/stapi/OneDrive/Desktop/GD32VW553/V1_MQTT_OK/GD32VW55X_Wifi_BLE_SDK/GD32VW55x_RELEASE_V1.0.2/MSDK/lwip/lwip-2.1.2/src/core\dns.c ****       break;
 1870              		.loc 1 906 5 is_stmt 1
 906:C:/Users/stapi/OneDrive/Desktop/GD32VW553/V1_MQTT_OK/GD32VW55X_Wifi_BLE_SDK/GD32VW55x_RELEASE_V1.0.2/MSDK/lwip/lwip-2.1.2/src/core\dns.c ****       break;
 1871              		.loc 1 906 8 is_stmt 0
 1872 0172 638B0612 		beq	a3,zero,.L132
 905:C:/Users/stapi/OneDrive/Desktop/GD32VW553/V1_MQTT_OK/GD32VW55X_Wifi_BLE_SDK/GD32VW55x_RELEASE_V1.0.2/MSDK/lwip/lwip-2.1.2/src/core\dns.c ****     if (dns_pcbs[i] == NULL) {
 1873              		.loc 1 905 41 is_stmt 1
 1874              	.LVL179:
 905:C:/Users/stapi/OneDrive/Desktop/GD32VW553/V1_MQTT_OK/GD32VW55X_Wifi_BLE_SDK/GD32VW55x_RELEASE_V1.0.2/MSDK/lwip/lwip-2.1.2/src/core\dns.c ****     if (dns_pcbs[i] == NULL) {
 1875              		.loc 1 905 15
 905:C:/Users/stapi/OneDrive/Desktop/GD32VW553/V1_MQTT_OK/GD32VW55X_Wifi_BLE_SDK/GD32VW55x_RELEASE_V1.0.2/MSDK/lwip/lwip-2.1.2/src/core\dns.c ****     if (dns_pcbs[i] == NULL) {
 1876              		.loc 1 905 3 is_stmt 0
 1877 0176 8504     		addi	s1,s1,1
 1878              	.LVL180:
 1879 0178 9107     		addi	a5,a5,4
 1880 017a E399E4FE 		bne	s1,a4,.L130
 1881              	.LVL181:
 1882              	.L133:
 920:C:/Users/stapi/OneDrive/Desktop/GD32VW553/V1_MQTT_OK/GD32VW55X_Wifi_BLE_SDK/GD32VW55x_RELEASE_V1.0.2/MSDK/lwip/lwip-2.1.2/src/core\dns.c ****     if (idx >= DNS_MAX_SOURCE_PORTS) {
 1883              		.loc 1 920 3 is_stmt 1
 920:C:/Users/stapi/OneDrive/Desktop/GD32VW553/V1_MQTT_OK/GD32VW55X_Wifi_BLE_SDK/GD32VW55x_RELEASE_V1.0.2/MSDK/lwip/lwip-2.1.2/src/core\dns.c ****     if (idx >= DNS_MAX_SOURCE_PORTS) {
 1884              		.loc 1 920 21 is_stmt 0
 1885 017e B7060000 		lui	a3,%hi(.LANCHOR5)
 920:C:/Users/stapi/OneDrive/Desktop/GD32VW553/V1_MQTT_OK/GD32VW55X_Wifi_BLE_SDK/GD32VW55x_RELEASE_V1.0.2/MSDK/lwip/lwip-2.1.2/src/core\dns.c ****     if (idx >= DNS_MAX_SOURCE_PORTS) {
 1886              		.loc 1 920 19
 1887 0182 83C70600 		lbu	a5,%lo(.LANCHOR5)(a3)
 1888 0186 4A87     		mv	a4,s2
 1889 0188 93860600 		addi	a3,a3,%lo(.LANCHOR5)
 1890 018c 8507     		addi	a5,a5,1
 1891 018e 93F7F70F 		andi	a5,a5,0xff
 1892              	.LVL182:
 920:C:/Users/stapi/OneDrive/Desktop/GD32VW553/V1_MQTT_OK/GD32VW55X_Wifi_BLE_SDK/GD32VW55x_RELEASE_V1.0.2/MSDK/lwip/lwip-2.1.2/src/core\dns.c ****     if (idx >= DNS_MAX_SOURCE_PORTS) {
 1893              		.loc 1 920 51 is_stmt 1
 921:C:/Users/stapi/OneDrive/Desktop/GD32VW553/V1_MQTT_OK/GD32VW55X_Wifi_BLE_SDK/GD32VW55x_RELEASE_V1.0.2/MSDK/lwip/lwip-2.1.2/src/core\dns.c ****       idx = 0;
 1894              		.loc 1 921 8 is_stmt 0
 1895 0192 0D46     		li	a2,3
 1896              	.LVL183:
 1897              	.L140:
 921:C:/Users/stapi/OneDrive/Desktop/GD32VW553/V1_MQTT_OK/GD32VW55X_Wifi_BLE_SDK/GD32VW55x_RELEASE_V1.0.2/MSDK/lwip/lwip-2.1.2/src/core\dns.c ****       idx = 0;
 1898              		.loc 1 921 5 is_stmt 1
 921:C:/Users/stapi/OneDrive/Desktop/GD32VW553/V1_MQTT_OK/GD32VW55X_Wifi_BLE_SDK/GD32VW55x_RELEASE_V1.0.2/MSDK/lwip/lwip-2.1.2/src/core\dns.c ****       idx = 0;
 1899              		.loc 1 921 8 is_stmt 0
 1900 0194 6373F600 		bleu	a5,a2,.L138
 922:C:/Users/stapi/OneDrive/Desktop/GD32VW553/V1_MQTT_OK/GD32VW55X_Wifi_BLE_SDK/GD32VW55x_RELEASE_V1.0.2/MSDK/lwip/lwip-2.1.2/src/core\dns.c ****     }
 1901              		.loc 1 922 11
 1902 0198 8147     		li	a5,0
 1903              	.LVL184:
 1904              	.L138:
 924:C:/Users/stapi/OneDrive/Desktop/GD32VW553/V1_MQTT_OK/GD32VW55X_Wifi_BLE_SDK/GD32VW55x_RELEASE_V1.0.2/MSDK/lwip/lwip-2.1.2/src/core\dns.c ****       dns_last_pcb_idx = idx;
 1905              		.loc 1 924 5 is_stmt 1
 924:C:/Users/stapi/OneDrive/Desktop/GD32VW553/V1_MQTT_OK/GD32VW55X_Wifi_BLE_SDK/GD32VW55x_RELEASE_V1.0.2/MSDK/lwip/lwip-2.1.2/src/core\dns.c ****       dns_last_pcb_idx = idx;
 1906              		.loc 1 924 17 is_stmt 0
 1907 019a B3C57721 		sh2add	a1,a5,s7
 924:C:/Users/stapi/OneDrive/Desktop/GD32VW553/V1_MQTT_OK/GD32VW55X_Wifi_BLE_SDK/GD32VW55x_RELEASE_V1.0.2/MSDK/lwip/lwip-2.1.2/src/core\dns.c ****       dns_last_pcb_idx = idx;
 1908              		.loc 1 924 8
 1909 019e 8C41     		lw	a1,0(a1)
 1910 01a0 F1CD     		beq	a1,zero,.L139
 925:C:/Users/stapi/OneDrive/Desktop/GD32VW553/V1_MQTT_OK/GD32VW55X_Wifi_BLE_SDK/GD32VW55x_RELEASE_V1.0.2/MSDK/lwip/lwip-2.1.2/src/core\dns.c ****       return idx;
 1911              		.loc 1 925 7 is_stmt 1
 925:C:/Users/stapi/OneDrive/Desktop/GD32VW553/V1_MQTT_OK/GD32VW55X_Wifi_BLE_SDK/GD32VW55x_RELEASE_V1.0.2/MSDK/lwip/lwip-2.1.2/src/core\dns.c ****       return idx;
 1912              		.loc 1 925 24 is_stmt 0
 1913 01a2 2380F600 		sb	a5,0(a3)
 926:C:/Users/stapi/OneDrive/Desktop/GD32VW553/V1_MQTT_OK/GD32VW55X_Wifi_BLE_SDK/GD32VW55x_RELEASE_V1.0.2/MSDK/lwip/lwip-2.1.2/src/core\dns.c ****     }
 1914              		.loc 1 926 7 is_stmt 1
 926:C:/Users/stapi/OneDrive/Desktop/GD32VW553/V1_MQTT_OK/GD32VW55X_Wifi_BLE_SDK/GD32VW55x_RELEASE_V1.0.2/MSDK/lwip/lwip-2.1.2/src/core\dns.c ****     }
 1915              		.loc 1 926 14 is_stmt 0
 1916 01a6 3E89     		mv	s2,a5
 1917 01a8 6DA8     		j	.L137
 1918              	.LVL185:
 1919              	.L118:
 1920              	.LBE101:
 1921              	.LBE105:
1389:C:/Users/stapi/OneDrive/Desktop/GD32VW553/V1_MQTT_OK/GD32VW55X_Wifi_BLE_SDK/GD32VW55x_RELEASE_V1.0.2/MSDK/lwip/lwip-2.1.2/src/core\dns.c **** #if LWIP_IPV4 && LWIP_IPV6
 1922              		.loc 1 1389 10
 1923 01aa 13060010 		li	a2,256
 1924 01ae 93050A01 		addi	a1,s4,16
 1925 01b2 2685     		mv	a0,s1
 1926 01b4 97000000 		call	lwip_strnicmp
 1926      E7800000 
 1927              	.LVL186:
1388:C:/Users/stapi/OneDrive/Desktop/GD32VW553/V1_MQTT_OK/GD32VW55X_Wifi_BLE_SDK/GD32VW55x_RELEASE_V1.0.2/MSDK/lwip/lwip-2.1.2/src/core\dns.c ****         (lwip_strnicmp(name, dns_table[i].name, sizeof(dns_table[i].name)) == 0)) {
 1928              		.loc 1 1388 50
 1929 01bc 19FD     		bne	a0,zero,.L121
 1930 01be 93870A00 		addi	a5,s5,%lo(.LANCHOR1)
 1931 01c2 0147     		li	a4,0
 1932              	.L123:
 1933              	.LVL187:
1400:C:/Users/stapi/OneDrive/Desktop/GD32VW553/V1_MQTT_OK/GD32VW55X_Wifi_BLE_SDK/GD32VW55x_RELEASE_V1.0.2/MSDK/lwip/lwip-2.1.2/src/core\dns.c ****           dns_requests[r].found = found;
 1934              		.loc 1 1400 9 is_stmt 1
1400:C:/Users/stapi/OneDrive/Desktop/GD32VW553/V1_MQTT_OK/GD32VW55X_Wifi_BLE_SDK/GD32VW55x_RELEASE_V1.0.2/MSDK/lwip/lwip-2.1.2/src/core\dns.c ****           dns_requests[r].found = found;
 1935              		.loc 1 1400 12 is_stmt 0
 1936 01c4 9443     		lw	a3,0(a5)
 1937 01c6 89EE     		bne	a3,zero,.L122
1401:C:/Users/stapi/OneDrive/Desktop/GD32VW553/V1_MQTT_OK/GD32VW55X_Wifi_BLE_SDK/GD32VW55x_RELEASE_V1.0.2/MSDK/lwip/lwip-2.1.2/src/core\dns.c ****           dns_requests[r].arg = callback_arg;
 1938              		.loc 1 1401 11 is_stmt 1
1401:C:/Users/stapi/OneDrive/Desktop/GD32VW553/V1_MQTT_OK/GD32VW55X_Wifi_BLE_SDK/GD32VW55x_RELEASE_V1.0.2/MSDK/lwip/lwip-2.1.2/src/core\dns.c ****           dns_requests[r].arg = callback_arg;
 1939              		.loc 1 1401 33 is_stmt 0
 1940 01c8 B146     		li	a3,12
 1941 01ca CE87     		mv	a5,s3
 1942 01cc FF17D7C4 		maddr32	a5, a4, a3
 1943 01d0 23A08701 		sw	s8,0(a5)
1402:C:/Users/stapi/OneDrive/Desktop/GD32VW553/V1_MQTT_OK/GD32VW55X_Wifi_BLE_SDK/GD32VW55x_RELEASE_V1.0.2/MSDK/lwip/lwip-2.1.2/src/core\dns.c ****           dns_requests[r].dns_table_idx = i;
 1944              		.loc 1 1402 11 is_stmt 1
1402:C:/Users/stapi/OneDrive/Desktop/GD32VW553/V1_MQTT_OK/GD32VW55X_Wifi_BLE_SDK/GD32VW55x_RELEASE_V1.0.2/MSDK/lwip/lwip-2.1.2/src/core\dns.c ****           dns_requests[r].dns_table_idx = i;
 1945              		.loc 1 1402 31 is_stmt 0
 1946 01d4 23A29701 		sw	s9,4(a5)
1403:C:/Users/stapi/OneDrive/Desktop/GD32VW553/V1_MQTT_OK/GD32VW55X_Wifi_BLE_SDK/GD32VW55x_RELEASE_V1.0.2/MSDK/lwip/lwip-2.1.2/src/core\dns.c ****           LWIP_DNS_SET_ADDRTYPE(dns_requests[r].reqaddrtype, dns_addrtype);
 1947              		.loc 1 1403 11 is_stmt 1
1403:C:/Users/stapi/OneDrive/Desktop/GD32VW553/V1_MQTT_OK/GD32VW55X_Wifi_BLE_SDK/GD32VW55x_RELEASE_V1.0.2/MSDK/lwip/lwip-2.1.2/src/core\dns.c ****           LWIP_DNS_SET_ADDRTYPE(dns_requests[r].reqaddrtype, dns_addrtype);
 1948              		.loc 1 1403 41 is_stmt 0
 1949 01d8 23842701 		sb	s2,8(a5)
1404:C:/Users/stapi/OneDrive/Desktop/GD32VW553/V1_MQTT_OK/GD32VW55X_Wifi_BLE_SDK/GD32VW55x_RELEASE_V1.0.2/MSDK/lwip/lwip-2.1.2/src/core\dns.c ****           LWIP_DEBUGF(DNS_DEBUG, ("dns_enqueue: \"%s\": duplicate request\n", name));
 1950              		.loc 1 1404 75 is_stmt 1
1405:C:/Users/stapi/OneDrive/Desktop/GD32VW553/V1_MQTT_OK/GD32VW55X_Wifi_BLE_SDK/GD32VW55x_RELEASE_V1.0.2/MSDK/lwip/lwip-2.1.2/src/core\dns.c ****           return ERR_INPROGRESS;
 1951              		.loc 1 1405 85
1406:C:/Users/stapi/OneDrive/Desktop/GD32VW553/V1_MQTT_OK/GD32VW55X_Wifi_BLE_SDK/GD32VW55x_RELEASE_V1.0.2/MSDK/lwip/lwip-2.1.2/src/core\dns.c ****         }
 1952              		.loc 1 1406 11
 1953              	.LVL188:
 1954              	.L171:
1502:C:/Users/stapi/OneDrive/Desktop/GD32VW553/V1_MQTT_OK/GD32VW55X_Wifi_BLE_SDK/GD32VW55x_RELEASE_V1.0.2/MSDK/lwip/lwip-2.1.2/src/core\dns.c **** }
 1955              		.loc 1 1502 3
1502:C:/Users/stapi/OneDrive/Desktop/GD32VW553/V1_MQTT_OK/GD32VW55X_Wifi_BLE_SDK/GD32VW55x_RELEASE_V1.0.2/MSDK/lwip/lwip-2.1.2/src/core\dns.c **** }
 1956              		.loc 1 1502 10 is_stmt 0
 1957 01dc ED57     		li	a5,-5
 1958 01de 9DBD     		j	.L152
 1959              	.LVL189:
 1960              	.L122:
1399:C:/Users/stapi/OneDrive/Desktop/GD32VW553/V1_MQTT_OK/GD32VW55X_Wifi_BLE_SDK/GD32VW55x_RELEASE_V1.0.2/MSDK/lwip/lwip-2.1.2/src/core\dns.c ****         if (dns_requests[r].found == 0) {
 1961              		.loc 1 1399 41 is_stmt 1
1399:C:/Users/stapi/OneDrive/Desktop/GD32VW553/V1_MQTT_OK/GD32VW55X_Wifi_BLE_SDK/GD32VW55x_RELEASE_V1.0.2/MSDK/lwip/lwip-2.1.2/src/core\dns.c ****         if (dns_requests[r].found == 0) {
 1962              		.loc 1 1399 19
1399:C:/Users/stapi/OneDrive/Desktop/GD32VW553/V1_MQTT_OK/GD32VW55X_Wifi_BLE_SDK/GD32VW55x_RELEASE_V1.0.2/MSDK/lwip/lwip-2.1.2/src/core\dns.c ****         if (dns_requests[r].found == 0) {
 1963              		.loc 1 1399 7 is_stmt 0
 1964 01e0 0507     		addi	a4,a4,1
 1965              	.LVL190:
 1966 01e2 B107     		addi	a5,a5,12
 1967 01e4 E310A7FF 		bne	a4,s10,.L123
 1968 01e8 CDBD     		j	.L121
 1969              	.LVL191:
 1970              	.L124:
1424:C:/Users/stapi/OneDrive/Desktop/GD32VW553/V1_MQTT_OK/GD32VW55X_Wifi_BLE_SDK/GD32VW55x_RELEASE_V1.0.2/MSDK/lwip/lwip-2.1.2/src/core\dns.c ****       u8_t age = (u8_t)(dns_seqno - entry->seqno);
 1971              		.loc 1 1424 5 is_stmt 1
1424:C:/Users/stapi/OneDrive/Desktop/GD32VW553/V1_MQTT_OK/GD32VW55X_Wifi_BLE_SDK/GD32VW55x_RELEASE_V1.0.2/MSDK/lwip/lwip-2.1.2/src/core\dns.c ****       u8_t age = (u8_t)(dns_seqno - entry->seqno);
 1972              		.loc 1 1424 8 is_stmt 0
 1973 01ea 639C0701 		bne	a5,a6,.L126
 1974              	.LBB106:
1425:C:/Users/stapi/OneDrive/Desktop/GD32VW553/V1_MQTT_OK/GD32VW55X_Wifi_BLE_SDK/GD32VW55x_RELEASE_V1.0.2/MSDK/lwip/lwip-2.1.2/src/core\dns.c ****       if (age > lseq) {
 1975              		.loc 1 1425 7 is_stmt 1
1425:C:/Users/stapi/OneDrive/Desktop/GD32VW553/V1_MQTT_OK/GD32VW55X_Wifi_BLE_SDK/GD32VW55x_RELEASE_V1.0.2/MSDK/lwip/lwip-2.1.2/src/core\dns.c ****       if (age > lseq) {
 1976              		.loc 1 1425 12 is_stmt 0
 1977 01ee 8347EB00 		lbu	a5,14(s6)
 1978 01f2 B387F640 		sub	a5,a3,a5
 1979 01f6 93F7F70F 		andi	a5,a5,0xff
 1980              	.LVL192:
1426:C:/Users/stapi/OneDrive/Desktop/GD32VW553/V1_MQTT_OK/GD32VW55X_Wifi_BLE_SDK/GD32VW55x_RELEASE_V1.0.2/MSDK/lwip/lwip-2.1.2/src/core\dns.c ****         lseq = age;
 1981              		.loc 1 1426 7 is_stmt 1
1426:C:/Users/stapi/OneDrive/Desktop/GD32VW553/V1_MQTT_OK/GD32VW55X_Wifi_BLE_SDK/GD32VW55x_RELEASE_V1.0.2/MSDK/lwip/lwip-2.1.2/src/core\dns.c ****         lseq = age;
 1982              		.loc 1 1426 10 is_stmt 0
 1983 01fa 6374F600 		bleu	a5,a2,.L126
 1984 01fe 2E8A     		mv	s4,a1
 1985              	.LVL193:
 1986 0200 3E86     		mv	a2,a5
 1987              	.LVL194:
 1988              	.L126:
 1989              	.LBE106:
1417:C:/Users/stapi/OneDrive/Desktop/GD32VW553/V1_MQTT_OK/GD32VW55X_Wifi_BLE_SDK/GD32VW55x_RELEASE_V1.0.2/MSDK/lwip/lwip-2.1.2/src/core\dns.c ****     entry = &dns_table[i];
 1990              		.loc 1 1417 35 is_stmt 1
1417:C:/Users/stapi/OneDrive/Desktop/GD32VW553/V1_MQTT_OK/GD32VW55X_Wifi_BLE_SDK/GD32VW55x_RELEASE_V1.0.2/MSDK/lwip/lwip-2.1.2/src/core\dns.c ****     entry = &dns_table[i];
 1991              		.loc 1 1417 15
1417:C:/Users/stapi/OneDrive/Desktop/GD32VW553/V1_MQTT_OK/GD32VW55X_Wifi_BLE_SDK/GD32VW55x_RELEASE_V1.0.2/MSDK/lwip/lwip-2.1.2/src/core\dns.c ****     entry = &dns_table[i];
 1992              		.loc 1 1417 3 is_stmt 0
 1993 0202 0507     		addi	a4,a4,1
 1994              	.LVL195:
 1995 0204 130B0B11 		addi	s6,s6,272
 1996 0208 E31BA7EE 		bne	a4,a0,.L127
1434:C:/Users/stapi/OneDrive/Desktop/GD32VW553/V1_MQTT_OK/GD32VW55X_Wifi_BLE_SDK/GD32VW55x_RELEASE_V1.0.2/MSDK/lwip/lwip-2.1.2/src/core\dns.c ****     if ((lseqi >= DNS_TABLE_SIZE) || (dns_table[lseqi].state != DNS_STATE_DONE)) {
 1997              		.loc 1 1434 3 is_stmt 1
1435:C:/Users/stapi/OneDrive/Desktop/GD32VW553/V1_MQTT_OK/GD32VW55X_Wifi_BLE_SDK/GD32VW55x_RELEASE_V1.0.2/MSDK/lwip/lwip-2.1.2/src/core\dns.c ****       /* no entry can be used now, table is full */
 1998              		.loc 1 1435 5
1438:C:/Users/stapi/OneDrive/Desktop/GD32VW553/V1_MQTT_OK/GD32VW55X_Wifi_BLE_SDK/GD32VW55x_RELEASE_V1.0.2/MSDK/lwip/lwip-2.1.2/src/core\dns.c ****     } else {
 1999              		.loc 1 1438 14 is_stmt 0
 2000 020c FD57     		li	a5,-1
1435:C:/Users/stapi/OneDrive/Desktop/GD32VW553/V1_MQTT_OK/GD32VW55X_Wifi_BLE_SDK/GD32VW55x_RELEASE_V1.0.2/MSDK/lwip/lwip-2.1.2/src/core\dns.c ****       /* no entry can be used now, table is full */
 2001              		.loc 1 1435 8
 2002 020e E303EAE4 		beq	s4,a4,.L152
1435:C:/Users/stapi/OneDrive/Desktop/GD32VW553/V1_MQTT_OK/GD32VW55X_Wifi_BLE_SDK/GD32VW55x_RELEASE_V1.0.2/MSDK/lwip/lwip-2.1.2/src/core\dns.c ****       /* no entry can be used now, table is full */
 2003              		.loc 1 1435 55
 2004 0212 93070011 		li	a5,272
 2005 0216 7F14FAC4 		maddr32	s0, s4, a5
1435:C:/Users/stapi/OneDrive/Desktop/GD32VW553/V1_MQTT_OK/GD32VW55X_Wifi_BLE_SDK/GD32VW55x_RELEASE_V1.0.2/MSDK/lwip/lwip-2.1.2/src/core\dns.c ****       /* no entry can be used now, table is full */
 2006              		.loc 1 1435 35
 2007 021a 0346A400 		lbu	a2,10(s0)
 2008              	.LVL196:
 2009 021e 0D47     		li	a4,3
 2010              	.LVL197:
1438:C:/Users/stapi/OneDrive/Desktop/GD32VW553/V1_MQTT_OK/GD32VW55X_Wifi_BLE_SDK/GD32VW55x_RELEASE_V1.0.2/MSDK/lwip/lwip-2.1.2/src/core\dns.c ****     } else {
 2011              		.loc 1 1438 14
 2012 0220 FD57     		li	a5,-1
1435:C:/Users/stapi/OneDrive/Desktop/GD32VW553/V1_MQTT_OK/GD32VW55X_Wifi_BLE_SDK/GD32VW55x_RELEASE_V1.0.2/MSDK/lwip/lwip-2.1.2/src/core\dns.c ****       /* no entry can be used now, table is full */
 2013              		.loc 1 1435 35
 2014 0222 E319E6E2 		bne	a2,a4,.L152
 2015 0226 F5B5     		j	.L125
 2016              	.LVL198:
 2017              	.L129:
1449:C:/Users/stapi/OneDrive/Desktop/GD32VW553/V1_MQTT_OK/GD32VW55X_Wifi_BLE_SDK/GD32VW55x_RELEASE_V1.0.2/MSDK/lwip/lwip-2.1.2/src/core\dns.c ****     if (dns_requests[r].found == NULL) {
 2018              		.loc 1 1449 37 is_stmt 1
1449:C:/Users/stapi/OneDrive/Desktop/GD32VW553/V1_MQTT_OK/GD32VW55X_Wifi_BLE_SDK/GD32VW55x_RELEASE_V1.0.2/MSDK/lwip/lwip-2.1.2/src/core\dns.c ****     if (dns_requests[r].found == NULL) {
 2019              		.loc 1 1449 15
1449:C:/Users/stapi/OneDrive/Desktop/GD32VW553/V1_MQTT_OK/GD32VW55X_Wifi_BLE_SDK/GD32VW55x_RELEASE_V1.0.2/MSDK/lwip/lwip-2.1.2/src/core\dns.c ****     if (dns_requests[r].found == NULL) {
 2020              		.loc 1 1449 3 is_stmt 0
 2021 0228 050B     		addi	s6,s6,1
 2022              	.LVL199:
 2023 022a B107     		addi	a5,a5,12
 2024 022c E31BEBEE 		bne	s6,a4,.L131
 2025              	.LVL200:
 2026              	.L172:
1487:C:/Users/stapi/OneDrive/Desktop/GD32VW553/V1_MQTT_OK/GD32VW55X_Wifi_BLE_SDK/GD32VW55x_RELEASE_V1.0.2/MSDK/lwip/lwip-2.1.2/src/core\dns.c ****   }
 2027              		.loc 1 1487 5 is_stmt 1
1487:C:/Users/stapi/OneDrive/Desktop/GD32VW553/V1_MQTT_OK/GD32VW55X_Wifi_BLE_SDK/GD32VW55x_RELEASE_V1.0.2/MSDK/lwip/lwip-2.1.2/src/core\dns.c ****   }
 2028              		.loc 1 1487 12 is_stmt 0
 2029 0230 FD57     		li	a5,-1
 2030 0232 0DB5     		j	.L152
 2031              	.LVL201:
 2032              	.L142:
 2033              	.LBB107:
 2034              	.LBB102:
 911:C:/Users/stapi/OneDrive/Desktop/GD32VW553/V1_MQTT_OK/GD32VW55X_Wifi_BLE_SDK/GD32VW55x_RELEASE_V1.0.2/MSDK/lwip/lwip-2.1.2/src/core\dns.c ****     if (dns_pcbs[i] != NULL) {
 2035              		.loc 1 911 17
 2036 0234 B3C47421 		sh2add	s1,s1,s7
 2037              	.L169:
 2038 0238 23A00400 		sw	zero,0(s1)
 912:C:/Users/stapi/OneDrive/Desktop/GD32VW553/V1_MQTT_OK/GD32VW55X_Wifi_BLE_SDK/GD32VW55x_RELEASE_V1.0.2/MSDK/lwip/lwip-2.1.2/src/core\dns.c ****       /* succeeded */
 2039              		.loc 1 912 5 is_stmt 1
 2040 023c 89B7     		j	.L133
 2041              	.LVL202:
 2042              	.L136:
 2043              	.LBB95:
 2044              	.LBB96:
 889:C:/Users/stapi/OneDrive/Desktop/GD32VW553/V1_MQTT_OK/GD32VW55X_Wifi_BLE_SDK/GD32VW55x_RELEASE_V1.0.2/MSDK/lwip/lwip-2.1.2/src/core\dns.c ****   return pcb;
 2045              		.loc 1 889 3
 2046 023e B7050000 		lui	a1,%hi(dns_recv)
 2047 0242 0146     		li	a2,0
 2048 0244 93850500 		addi	a1,a1,%lo(dns_recv)
 2049 0248 6685     		mv	a0,s9
 2050              	.LVL203:
 2051 024a 97000000 		call	udp_recv
 2051      E7800000 
 2052              	.LVL204:
 890:C:/Users/stapi/OneDrive/Desktop/GD32VW553/V1_MQTT_OK/GD32VW55X_Wifi_BLE_SDK/GD32VW55x_RELEASE_V1.0.2/MSDK/lwip/lwip-2.1.2/src/core\dns.c **** }
 2053              		.loc 1 890 3
 2054              	.LBE96:
 2055              	.LBE95:
 911:C:/Users/stapi/OneDrive/Desktop/GD32VW553/V1_MQTT_OK/GD32VW55X_Wifi_BLE_SDK/GD32VW55x_RELEASE_V1.0.2/MSDK/lwip/lwip-2.1.2/src/core\dns.c ****     if (dns_pcbs[i] != NULL) {
 2056              		.loc 1 911 17 is_stmt 0
 2057 0252 DE94     		add	s1,s7,s1
 914:C:/Users/stapi/OneDrive/Desktop/GD32VW553/V1_MQTT_OK/GD32VW55X_Wifi_BLE_SDK/GD32VW55x_RELEASE_V1.0.2/MSDK/lwip/lwip-2.1.2/src/core\dns.c ****       return i;
 2058              		.loc 1 914 24
 2059 0254 B7070000 		lui	a5,%hi(.LANCHOR5)
 911:C:/Users/stapi/OneDrive/Desktop/GD32VW553/V1_MQTT_OK/GD32VW55X_Wifi_BLE_SDK/GD32VW55x_RELEASE_V1.0.2/MSDK/lwip/lwip-2.1.2/src/core\dns.c ****     if (dns_pcbs[i] != NULL) {
 2060              		.loc 1 911 17
 2061 0258 23A09401 		sw	s9,0(s1)
 912:C:/Users/stapi/OneDrive/Desktop/GD32VW553/V1_MQTT_OK/GD32VW55X_Wifi_BLE_SDK/GD32VW55x_RELEASE_V1.0.2/MSDK/lwip/lwip-2.1.2/src/core\dns.c ****       /* succeeded */
 2062              		.loc 1 912 5 is_stmt 1
 914:C:/Users/stapi/OneDrive/Desktop/GD32VW553/V1_MQTT_OK/GD32VW55X_Wifi_BLE_SDK/GD32VW55x_RELEASE_V1.0.2/MSDK/lwip/lwip-2.1.2/src/core\dns.c ****       return i;
 2063              		.loc 1 914 7
 914:C:/Users/stapi/OneDrive/Desktop/GD32VW553/V1_MQTT_OK/GD32VW55X_Wifi_BLE_SDK/GD32VW55x_RELEASE_V1.0.2/MSDK/lwip/lwip-2.1.2/src/core\dns.c ****       return i;
 2064              		.loc 1 914 24 is_stmt 0
 2065 025c 23808701 		sb	s8,%lo(.LANCHOR5)(a5)
 915:C:/Users/stapi/OneDrive/Desktop/GD32VW553/V1_MQTT_OK/GD32VW55X_Wifi_BLE_SDK/GD32VW55x_RELEASE_V1.0.2/MSDK/lwip/lwip-2.1.2/src/core\dns.c ****     }
 2066              		.loc 1 915 7 is_stmt 1
 915:C:/Users/stapi/OneDrive/Desktop/GD32VW553/V1_MQTT_OK/GD32VW55X_Wifi_BLE_SDK/GD32VW55x_RELEASE_V1.0.2/MSDK/lwip/lwip-2.1.2/src/core\dns.c ****     }
 2067              		.loc 1 915 14 is_stmt 0
 2068 0260 6289     		mv	s2,s8
 2069              	.LVL205:
 2070              	.L137:
 2071              	.LBE102:
 2072              	.LBE107:
1481:C:/Users/stapi/OneDrive/Desktop/GD32VW553/V1_MQTT_OK/GD32VW55X_Wifi_BLE_SDK/GD32VW55x_RELEASE_V1.0.2/MSDK/lwip/lwip-2.1.2/src/core\dns.c ****   if (entry->pcb_idx >= DNS_MAX_SOURCE_PORTS) {
 2073              		.loc 1 1481 18
 2074 0262 A3072401 		sb	s2,15(s0)
1482:C:/Users/stapi/OneDrive/Desktop/GD32VW553/V1_MQTT_OK/GD32VW55X_Wifi_BLE_SDK/GD32VW55x_RELEASE_V1.0.2/MSDK/lwip/lwip-2.1.2/src/core\dns.c ****     /* failed to get a UDP pcb */
 2075              		.loc 1 1482 3 is_stmt 1
1482:C:/Users/stapi/OneDrive/Desktop/GD32VW553/V1_MQTT_OK/GD32VW55X_Wifi_BLE_SDK/GD32VW55x_RELEASE_V1.0.2/MSDK/lwip/lwip-2.1.2/src/core\dns.c ****     /* failed to get a UDP pcb */
 2076              		.loc 1 1482 6 is_stmt 0
 2077 0266 9147     		li	a5,4
 2078 0268 6312F902 		bne	s2,a5,.L141
1484:C:/Users/stapi/OneDrive/Desktop/GD32VW553/V1_MQTT_OK/GD32VW55X_Wifi_BLE_SDK/GD32VW55x_RELEASE_V1.0.2/MSDK/lwip/lwip-2.1.2/src/core\dns.c ****     entry->state = DNS_STATE_UNUSED;
 2079              		.loc 1 1484 86 is_stmt 1
1485:C:/Users/stapi/OneDrive/Desktop/GD32VW553/V1_MQTT_OK/GD32VW55X_Wifi_BLE_SDK/GD32VW55x_RELEASE_V1.0.2/MSDK/lwip/lwip-2.1.2/src/core\dns.c ****     req->found = NULL;
 2080              		.loc 1 1485 5
1486:C:/Users/stapi/OneDrive/Desktop/GD32VW553/V1_MQTT_OK/GD32VW55X_Wifi_BLE_SDK/GD32VW55x_RELEASE_V1.0.2/MSDK/lwip/lwip-2.1.2/src/core\dns.c ****     return ERR_MEM;
 2081              		.loc 1 1486 16 is_stmt 0
 2082 026c B147     		li	a5,12
 2083 026e FF19FBC4 		maddr32	s3, s6, a5
1485:C:/Users/stapi/OneDrive/Desktop/GD32VW553/V1_MQTT_OK/GD32VW55X_Wifi_BLE_SDK/GD32VW55x_RELEASE_V1.0.2/MSDK/lwip/lwip-2.1.2/src/core\dns.c ****     req->found = NULL;
 2084              		.loc 1 1485 18
 2085 0272 23050400 		sb	zero,10(s0)
1486:C:/Users/stapi/OneDrive/Desktop/GD32VW553/V1_MQTT_OK/GD32VW55X_Wifi_BLE_SDK/GD32VW55x_RELEASE_V1.0.2/MSDK/lwip/lwip-2.1.2/src/core\dns.c ****     return ERR_MEM;
 2086              		.loc 1 1486 5 is_stmt 1
1486:C:/Users/stapi/OneDrive/Desktop/GD32VW553/V1_MQTT_OK/GD32VW55X_Wifi_BLE_SDK/GD32VW55x_RELEASE_V1.0.2/MSDK/lwip/lwip-2.1.2/src/core\dns.c ****     return ERR_MEM;
 2087              		.loc 1 1486 16 is_stmt 0
 2088 0276 23A00900 		sw	zero,0(s3)
 2089 027a 5DBF     		j	.L172
 2090              	.LVL206:
 2091              	.L139:
 2092              	.LBB108:
 2093              	.LBB103:
 920:C:/Users/stapi/OneDrive/Desktop/GD32VW553/V1_MQTT_OK/GD32VW55X_Wifi_BLE_SDK/GD32VW55x_RELEASE_V1.0.2/MSDK/lwip/lwip-2.1.2/src/core\dns.c ****     if (idx >= DNS_MAX_SOURCE_PORTS) {
 2094              		.loc 1 920 77 is_stmt 1
 920:C:/Users/stapi/OneDrive/Desktop/GD32VW553/V1_MQTT_OK/GD32VW55X_Wifi_BLE_SDK/GD32VW55x_RELEASE_V1.0.2/MSDK/lwip/lwip-2.1.2/src/core\dns.c ****     if (idx >= DNS_MAX_SOURCE_PORTS) {
 2095              		.loc 1 920 3 is_stmt 0
 2096 027c 7D17     		addi	a4,a4,-1
 2097              	.LVL207:
 920:C:/Users/stapi/OneDrive/Desktop/GD32VW553/V1_MQTT_OK/GD32VW55X_Wifi_BLE_SDK/GD32VW55x_RELEASE_V1.0.2/MSDK/lwip/lwip-2.1.2/src/core\dns.c ****     if (idx >= DNS_MAX_SOURCE_PORTS) {
 2098              		.loc 1 920 85
 2099 027e 8507     		addi	a5,a5,1
 2100              	.LVL208:
 920:C:/Users/stapi/OneDrive/Desktop/GD32VW553/V1_MQTT_OK/GD32VW55X_Wifi_BLE_SDK/GD32VW55x_RELEASE_V1.0.2/MSDK/lwip/lwip-2.1.2/src/core\dns.c ****     if (idx >= DNS_MAX_SOURCE_PORTS) {
 2101              		.loc 1 920 3
 2102 0280 1377F70F 		andi	a4,a4,0xff
 920:C:/Users/stapi/OneDrive/Desktop/GD32VW553/V1_MQTT_OK/GD32VW55X_Wifi_BLE_SDK/GD32VW55x_RELEASE_V1.0.2/MSDK/lwip/lwip-2.1.2/src/core\dns.c ****     if (idx >= DNS_MAX_SOURCE_PORTS) {
 2103              		.loc 1 920 85
 2104 0284 93F7F70F 		andi	a5,a5,0xff
 2105              	.LVL209:
 920:C:/Users/stapi/OneDrive/Desktop/GD32VW553/V1_MQTT_OK/GD32VW55X_Wifi_BLE_SDK/GD32VW55x_RELEASE_V1.0.2/MSDK/lwip/lwip-2.1.2/src/core\dns.c ****     if (idx >= DNS_MAX_SOURCE_PORTS) {
 2106              		.loc 1 920 51 is_stmt 1
 920:C:/Users/stapi/OneDrive/Desktop/GD32VW553/V1_MQTT_OK/GD32VW55X_Wifi_BLE_SDK/GD32VW55x_RELEASE_V1.0.2/MSDK/lwip/lwip-2.1.2/src/core\dns.c ****     if (idx >= DNS_MAX_SOURCE_PORTS) {
 2107              		.loc 1 920 3 is_stmt 0
 2108 0288 11F7     		bne	a4,zero,.L140
 2109 028a E1BF     		j	.L137
 2110              	.LVL210:
 2111              	.L141:
 2112              	.LBE103:
 2113              	.LBE108:
1489:C:/Users/stapi/OneDrive/Desktop/GD32VW553/V1_MQTT_OK/GD32VW55X_Wifi_BLE_SDK/GD32VW55x_RELEASE_V1.0.2/MSDK/lwip/lwip-2.1.2/src/core\dns.c **** #endif
 2114              		.loc 1 1489 105 is_stmt 1
1496:C:/Users/stapi/OneDrive/Desktop/GD32VW553/V1_MQTT_OK/GD32VW55X_Wifi_BLE_SDK/GD32VW55x_RELEASE_V1.0.2/MSDK/lwip/lwip-2.1.2/src/core\dns.c **** 
 2115              		.loc 1 1496 3
1496:C:/Users/stapi/OneDrive/Desktop/GD32VW553/V1_MQTT_OK/GD32VW55X_Wifi_BLE_SDK/GD32VW55x_RELEASE_V1.0.2/MSDK/lwip/lwip-2.1.2/src/core\dns.c **** 
 2116              		.loc 1 1496 12 is_stmt 0
 2117 028c 83C70A00 		lbu	a5,0(s5)
1499:C:/Users/stapi/OneDrive/Desktop/GD32VW553/V1_MQTT_OK/GD32VW55X_Wifi_BLE_SDK/GD32VW55x_RELEASE_V1.0.2/MSDK/lwip/lwip-2.1.2/src/core\dns.c **** 
 2118              		.loc 1 1499 3
 2119 0290 5285     		mv	a0,s4
1496:C:/Users/stapi/OneDrive/Desktop/GD32VW553/V1_MQTT_OK/GD32VW55X_Wifi_BLE_SDK/GD32VW55x_RELEASE_V1.0.2/MSDK/lwip/lwip-2.1.2/src/core\dns.c **** 
 2120              		.loc 1 1496 12
 2121 0292 8507     		addi	a5,a5,1
 2122 0294 2380FA00 		sb	a5,0(s5)
1499:C:/Users/stapi/OneDrive/Desktop/GD32VW553/V1_MQTT_OK/GD32VW55X_Wifi_BLE_SDK/GD32VW55x_RELEASE_V1.0.2/MSDK/lwip/lwip-2.1.2/src/core\dns.c **** 
 2123              		.loc 1 1499 3 is_stmt 1
 2124 0298 97000000 		call	dns_check_entry
 2124      E7800000 
 2125              	.LVL211:
 2126 02a0 35BF     		j	.L171
 2127              	.LVL212:
 2128              	.L144:
 2129              		.cfi_def_cfa_offset 0
 2130              		.cfi_restore 1
 2131              		.cfi_restore 8
 2132              		.cfi_restore 9
 2133              		.cfi_restore 18
 2134              		.cfi_restore 19
 2135              		.cfi_restore 20
 2136              		.cfi_restore 21
 2137              		.cfi_restore 22
 2138              		.cfi_restore 23
 2139              		.cfi_restore 24
 2140              		.cfi_restore 25
 2141              		.cfi_restore 26
 2142              		.cfi_restore 27
 2143              	.LBE90:
 2144              	.LBE89:
1558:C:/Users/stapi/OneDrive/Desktop/GD32VW553/V1_MQTT_OK/GD32VW55X_Wifi_BLE_SDK/GD32VW55x_RELEASE_V1.0.2/MSDK/lwip/lwip-2.1.2/src/core\dns.c ****   }
 2145              		.loc 1 1558 12 is_stmt 0
 2146 02a2 C157     		li	a5,-16
 2147              		.loc 1 1629 1
 2148 02a4 3E85     		mv	a0,a5
 2149              	.LVL213:
 2150 02a6 8280     		ret
 2151              	.LVL214:
 2152              	.L132:
 2153              		.cfi_def_cfa_offset 64
 2154              		.cfi_offset 1, -4
 2155              		.cfi_offset 8, -8
 2156              		.cfi_offset 9, -12
 2157              		.cfi_offset 18, -16
 2158              		.cfi_offset 19, -20
 2159              		.cfi_offset 20, -24
 2160              		.cfi_offset 21, -28
 2161              		.cfi_offset 22, -32
 2162              		.cfi_offset 23, -36
 2163              		.cfi_offset 24, -40
 2164              		.cfi_offset 25, -44
 2165              		.cfi_offset 26, -48
 2166              		.cfi_offset 27, -52
 2167              	.LBB111:
 2168              	.LBB110:
 2169              	.LBB109:
 2170              	.LBB104:
 910:C:/Users/stapi/OneDrive/Desktop/GD32VW553/V1_MQTT_OK/GD32VW55X_Wifi_BLE_SDK/GD32VW55x_RELEASE_V1.0.2/MSDK/lwip/lwip-2.1.2/src/core\dns.c ****     dns_pcbs[i] = dns_alloc_random_port();
 2171              		.loc 1 910 3 is_stmt 1
 911:C:/Users/stapi/OneDrive/Desktop/GD32VW553/V1_MQTT_OK/GD32VW55X_Wifi_BLE_SDK/GD32VW55x_RELEASE_V1.0.2/MSDK/lwip/lwip-2.1.2/src/core\dns.c ****     if (dns_pcbs[i] != NULL) {
 2172              		.loc 1 911 5
 2173              	.LBB100:
 2174              	.LBB99:
 868:C:/Users/stapi/OneDrive/Desktop/GD32VW553/V1_MQTT_OK/GD32VW55X_Wifi_BLE_SDK/GD32VW55x_RELEASE_V1.0.2/MSDK/lwip/lwip-2.1.2/src/core\dns.c ****   struct udp_pcb *pcb;
 2175              		.loc 1 868 3
 869:C:/Users/stapi/OneDrive/Desktop/GD32VW553/V1_MQTT_OK/GD32VW55X_Wifi_BLE_SDK/GD32VW55x_RELEASE_V1.0.2/MSDK/lwip/lwip-2.1.2/src/core\dns.c **** 
 2176              		.loc 1 869 3
 871:C:/Users/stapi/OneDrive/Desktop/GD32VW553/V1_MQTT_OK/GD32VW55X_Wifi_BLE_SDK/GD32VW55x_RELEASE_V1.0.2/MSDK/lwip/lwip-2.1.2/src/core\dns.c ****   if (pcb == NULL) {
 2177              		.loc 1 871 3
 871:C:/Users/stapi/OneDrive/Desktop/GD32VW553/V1_MQTT_OK/GD32VW55X_Wifi_BLE_SDK/GD32VW55x_RELEASE_V1.0.2/MSDK/lwip/lwip-2.1.2/src/core\dns.c ****   if (pcb == NULL) {
 2178              		.loc 1 871 9 is_stmt 0
 2179 02a8 1305E002 		li	a0,46
 2180 02ac 97000000 		call	udp_new_ip_type
 2180      E7800000 
 2181              	.LVL215:
 2182 02b4 AA8C     		mv	s9,a0
 2183              	.LVL216:
 872:C:/Users/stapi/OneDrive/Desktop/GD32VW553/V1_MQTT_OK/GD32VW55X_Wifi_BLE_SDK/GD32VW55x_RELEASE_V1.0.2/MSDK/lwip/lwip-2.1.2/src/core\dns.c ****     /* out of memory, have to reuse an existing pcb */
 2184              		.loc 1 872 3 is_stmt 1
 872:C:/Users/stapi/OneDrive/Desktop/GD32VW553/V1_MQTT_OK/GD32VW55X_Wifi_BLE_SDK/GD32VW55x_RELEASE_V1.0.2/MSDK/lwip/lwip-2.1.2/src/core\dns.c ****     /* out of memory, have to reuse an existing pcb */
 2185              		.loc 1 872 6 is_stmt 0
 2186 02b6 3DDD     		beq	a0,zero,.L142
 2187              	.LBB97:
 878:C:/Users/stapi/OneDrive/Desktop/GD32VW553/V1_MQTT_OK/GD32VW55X_Wifi_BLE_SDK/GD32VW55x_RELEASE_V1.0.2/MSDK/lwip/lwip-2.1.2/src/core\dns.c ****       err = udp_bind(pcb, IP_ANY_TYPE, port);
 2188              		.loc 1 878 8
 2189 02b8 930DF03F 		li	s11,1023
 879:C:/Users/stapi/OneDrive/Desktop/GD32VW553/V1_MQTT_OK/GD32VW55X_Wifi_BLE_SDK/GD32VW55x_RELEASE_V1.0.2/MSDK/lwip/lwip-2.1.2/src/core\dns.c ****     } else {
 2190              		.loc 1 879 13
 2191 02bc 370D0000 		lui	s10,%hi(ip_addr_any)
 2192              	.LVL217:
 2193              	.L134:
 2194              	.LBE97:
 876:C:/Users/stapi/OneDrive/Desktop/GD32VW553/V1_MQTT_OK/GD32VW55X_Wifi_BLE_SDK/GD32VW55x_RELEASE_V1.0.2/MSDK/lwip/lwip-2.1.2/src/core\dns.c ****     u16_t port = (u16_t)DNS_RAND_TXID();
 2195              		.loc 1 876 3 is_stmt 1
 2196              	.LBB98:
 877:C:/Users/stapi/OneDrive/Desktop/GD32VW553/V1_MQTT_OK/GD32VW55X_Wifi_BLE_SDK/GD32VW55x_RELEASE_V1.0.2/MSDK/lwip/lwip-2.1.2/src/core\dns.c ****     if (DNS_PORT_ALLOWED(port)) {
 2197              		.loc 1 877 5
 877:C:/Users/stapi/OneDrive/Desktop/GD32VW553/V1_MQTT_OK/GD32VW55X_Wifi_BLE_SDK/GD32VW55x_RELEASE_V1.0.2/MSDK/lwip/lwip-2.1.2/src/core\dns.c ****     if (DNS_PORT_ALLOWED(port)) {
 2198              		.loc 1 877 25 is_stmt 0
 2199 02c0 97000000 		call	rand
 2199      E7800000 
 2200              	.LVL218:
 877:C:/Users/stapi/OneDrive/Desktop/GD32VW553/V1_MQTT_OK/GD32VW55X_Wifi_BLE_SDK/GD32VW55x_RELEASE_V1.0.2/MSDK/lwip/lwip-2.1.2/src/core\dns.c ****     if (DNS_PORT_ALLOWED(port)) {
 2201              		.loc 1 877 11
 2202 02c8 33460508 		zext.h	a2,a0
 2203              	.LVL219:
 878:C:/Users/stapi/OneDrive/Desktop/GD32VW553/V1_MQTT_OK/GD32VW55X_Wifi_BLE_SDK/GD32VW55x_RELEASE_V1.0.2/MSDK/lwip/lwip-2.1.2/src/core\dns.c ****       err = udp_bind(pcb, IP_ANY_TYPE, port);
 2204              		.loc 1 878 5 is_stmt 1
 878:C:/Users/stapi/OneDrive/Desktop/GD32VW553/V1_MQTT_OK/GD32VW55X_Wifi_BLE_SDK/GD32VW55x_RELEASE_V1.0.2/MSDK/lwip/lwip-2.1.2/src/core\dns.c ****       err = udp_bind(pcb, IP_ANY_TYPE, port);
 2205              		.loc 1 878 8 is_stmt 0
 2206 02cc E3FACDFE 		bleu	a2,s11,.L134
 879:C:/Users/stapi/OneDrive/Desktop/GD32VW553/V1_MQTT_OK/GD32VW55X_Wifi_BLE_SDK/GD32VW55x_RELEASE_V1.0.2/MSDK/lwip/lwip-2.1.2/src/core\dns.c ****     } else {
 2207              		.loc 1 879 7 is_stmt 1
 879:C:/Users/stapi/OneDrive/Desktop/GD32VW553/V1_MQTT_OK/GD32VW55X_Wifi_BLE_SDK/GD32VW55x_RELEASE_V1.0.2/MSDK/lwip/lwip-2.1.2/src/core\dns.c ****     } else {
 2208              		.loc 1 879 13 is_stmt 0
 2209 02d0 93050D00 		addi	a1,s10,%lo(ip_addr_any)
 2210 02d4 6685     		mv	a0,s9
 2211 02d6 97000000 		call	udp_bind
 2211      E7800000 
 2212              	.LVL220:
 2213              	.LBE98:
 884:C:/Users/stapi/OneDrive/Desktop/GD32VW553/V1_MQTT_OK/GD32VW55X_Wifi_BLE_SDK/GD32VW55x_RELEASE_V1.0.2/MSDK/lwip/lwip-2.1.2/src/core\dns.c ****   if (err != ERR_OK) {
 2214              		.loc 1 884 11 is_stmt 1
 884:C:/Users/stapi/OneDrive/Desktop/GD32VW553/V1_MQTT_OK/GD32VW55X_Wifi_BLE_SDK/GD32VW55x_RELEASE_V1.0.2/MSDK/lwip/lwip-2.1.2/src/core\dns.c ****   if (err != ERR_OK) {
 2215              		.loc 1 884 3 is_stmt 0
 2216 02de E157     		li	a5,-8
 2217 02e0 E300F5FE 		beq	a0,a5,.L134
 885:C:/Users/stapi/OneDrive/Desktop/GD32VW553/V1_MQTT_OK/GD32VW55X_Wifi_BLE_SDK/GD32VW55x_RELEASE_V1.0.2/MSDK/lwip/lwip-2.1.2/src/core\dns.c ****     udp_remove(pcb);
 2218              		.loc 1 885 3 is_stmt 1
 2219 02e4 8A04     		slli	s1,s1,2
 885:C:/Users/stapi/OneDrive/Desktop/GD32VW553/V1_MQTT_OK/GD32VW55X_Wifi_BLE_SDK/GD32VW55x_RELEASE_V1.0.2/MSDK/lwip/lwip-2.1.2/src/core\dns.c ****     udp_remove(pcb);
 2220              		.loc 1 885 6 is_stmt 0
 2221 02e6 21DD     		beq	a0,zero,.L136
 886:C:/Users/stapi/OneDrive/Desktop/GD32VW553/V1_MQTT_OK/GD32VW55X_Wifi_BLE_SDK/GD32VW55x_RELEASE_V1.0.2/MSDK/lwip/lwip-2.1.2/src/core\dns.c ****     return NULL;
 2222              		.loc 1 886 5 is_stmt 1
 2223 02e8 6685     		mv	a0,s9
 2224              	.LVL221:
 2225 02ea 97000000 		call	udp_remove
 2225      E7800000 
 2226              	.LVL222:
 887:C:/Users/stapi/OneDrive/Desktop/GD32VW553/V1_MQTT_OK/GD32VW55X_Wifi_BLE_SDK/GD32VW55x_RELEASE_V1.0.2/MSDK/lwip/lwip-2.1.2/src/core\dns.c ****   }
 2227              		.loc 1 887 5
 2228              	.LBE99:
 2229              	.LBE100:
 911:C:/Users/stapi/OneDrive/Desktop/GD32VW553/V1_MQTT_OK/GD32VW55X_Wifi_BLE_SDK/GD32VW55x_RELEASE_V1.0.2/MSDK/lwip/lwip-2.1.2/src/core\dns.c ****     if (dns_pcbs[i] != NULL) {
 2230              		.loc 1 911 17 is_stmt 0
 2231 02f2 DE94     		add	s1,s7,s1
 2232 02f4 91B7     		j	.L169
 2233              	.LBE104:
 2234              	.LBE109:
 2235              	.LBE110:
 2236              	.LBE111:
 2237              		.cfi_endproc
 2238              	.LFE23:
 2240              		.section	.text.dns_gethostbyname,"ax",@progbits
 2241              		.align	1
 2242              		.globl	dns_gethostbyname
 2244              	dns_gethostbyname:
 2245              	.LFB22:
1528:C:/Users/stapi/OneDrive/Desktop/GD32VW553/V1_MQTT_OK/GD32VW55X_Wifi_BLE_SDK/GD32VW55x_RELEASE_V1.0.2/MSDK/lwip/lwip-2.1.2/src/core\dns.c ****   return dns_gethostbyname_addrtype(hostname, addr, found, callback_arg, LWIP_DNS_ADDRTYPE_DEFAULT)
 2246              		.loc 1 1528 1 is_stmt 1
 2247              		.cfi_startproc
 2248              	.LVL223:
1529:C:/Users/stapi/OneDrive/Desktop/GD32VW553/V1_MQTT_OK/GD32VW55X_Wifi_BLE_SDK/GD32VW55x_RELEASE_V1.0.2/MSDK/lwip/lwip-2.1.2/src/core\dns.c **** }
 2249              		.loc 1 1529 3
1529:C:/Users/stapi/OneDrive/Desktop/GD32VW553/V1_MQTT_OK/GD32VW55X_Wifi_BLE_SDK/GD32VW55x_RELEASE_V1.0.2/MSDK/lwip/lwip-2.1.2/src/core\dns.c **** }
 2250              		.loc 1 1529 10 is_stmt 0
 2251 0000 0147     		li	a4,0
 2252 0002 17030000 		tail	dns_gethostbyname_addrtype
 2252      67000300 
 2253              	.LVL224:
 2254              		.cfi_endproc
 2255              	.LFE22:
 2257              		.globl	dns_mquery_v4group
 2258              		.section	.bss.dns_pcbs,"aw",@nobits
 2259              		.align	2
 2260              		.set	.LANCHOR2,. + 0
 2263              	dns_pcbs:
 2264 0000 00000000 		.zero	16
 2264      00000000 
 2264      00000000 
 2264      00000000 
 2265              		.section	.bss.dns_requests,"aw",@nobits
 2266              		.align	2
 2267              		.set	.LANCHOR1,. + 0
 2270              	dns_requests:
 2271 0000 00000000 		.zero	48
 2271      00000000 
 2271      00000000 
 2271      00000000 
 2271      00000000 
 2272              		.section	.bss.dns_table,"aw",@nobits
 2273              		.align	2
 2274              		.set	.LANCHOR0,. + 0
 2277              	dns_table:
 2278 0000 00000000 		.zero	1088
 2278      00000000 
 2278      00000000 
 2278      00000000 
 2278      00000000 
 2279              		.section	.sbss.dns_last_pcb_idx,"aw",@nobits
 2280              		.set	.LANCHOR5,. + 0
 2283              	dns_last_pcb_idx:
 2284 0000 00       		.zero	1
 2285              		.section	.sbss.dns_seqno,"aw",@nobits
 2286              		.set	.LANCHOR4,. + 0
 2289              	dns_seqno:
 2290 0000 00       		.zero	1
 2291              		.section	.sbss.dns_servers,"aw",@nobits
 2292              		.align	2
 2293              		.set	.LANCHOR3,. + 0
 2296              	dns_servers:
 2297 0000 00000000 		.zero	8
 2297      00000000 
 2298              		.section	.srodata.dns_mquery_v4group,"a"
 2299              		.align	2
 2302              	dns_mquery_v4group:
 2303 0000 E00000FB 		.word	-83885856
 2304              		.text
 2305              	.Letext0:
 2306              		.file 2 "c:\\users\\stapi\\onedrive\\desktop\\gd32vw553\\embeddedbuilder_v1.4.7.26843\\tools\\nucl
 2307              		.file 3 "c:\\users\\stapi\\onedrive\\desktop\\gd32vw553\\embeddedbuilder_v1.4.7.26843\\tools\\nucl
 2308              		.file 4 "c:\\users\\stapi\\onedrive\\desktop\\gd32vw553\\embeddedbuilder_v1.4.7.26843\\tools\\nucl
 2309              		.file 5 "..\\..\\..\\..\\lwip\\lwip-2.1.2\\src\\include/lwip/arch.h"
 2310              		.file 6 "..\\..\\..\\..\\lwip\\lwip-2.1.2\\src\\include/lwip/err.h"
 2311              		.file 7 "..\\..\\..\\..\\lwip\\lwip-2.1.2\\src\\include/lwip/pbuf.h"
 2312              		.file 8 "..\\..\\..\\..\\lwip\\lwip-2.1.2\\src\\include/lwip/ip4_addr.h"
 2313              		.file 9 "..\\..\\..\\..\\lwip\\lwip-2.1.2\\src\\include/lwip/ip_addr.h"
 2314              		.file 10 "c:\\users\\stapi\\onedrive\\desktop\\gd32vw553\\embeddedbuilder_v1.4.7.26843\\tools\\nuc
 2315              		.file 11 "..\\..\\..\\..\\lwip\\lwip-2.1.2\\src\\include/lwip/memp.h"
 2316              		.file 12 "..\\..\\..\\..\\lwip\\lwip-2.1.2\\src\\include/lwip/netif.h"
 2317              		.file 13 "..\\..\\..\\..\\lwip\\lwip-2.1.2\\src\\include/lwip/udp.h"
 2318              		.file 14 "..\\..\\..\\..\\lwip\\lwip-2.1.2\\src\\include/lwip/dns.h"
 2319              		.file 15 "..\\..\\..\\..\\lwip\\lwip-2.1.2\\src\\include/lwip/prot/dns.h"
 2320              		.file 16 "..\\..\\..\\..\\lwip\\lwip-2.1.2\\src\\include/lwip/def.h"
 2321              		.file 17 "c:\\users\\stapi\\onedrive\\desktop\\gd32vw553\\embeddedbuilder_v1.4.7.26843\\tools\\nuc
 2322              		.file 18 "c:\\users\\stapi\\onedrive\\desktop\\gd32vw553\\embeddedbuilder_v1.4.7.26843\\tools\\nuc
 2323              		.file 19 "c:\\users\\stapi\\onedrive\\desktop\\gd32vw553\\embeddedbuilder_v1.4.7.26843\\tools\\nuc
 2324              		.file 20 "<built-in>"
DEFINED SYMBOLS
                            *ABS*:0000000000000000 dns.c
C:\Users\stapi\AppData\Local\Temp\cch5AfG4.s:12     .text.dns_call_found:0000000000000000 dns_call_found
C:\Users\stapi\AppData\Local\Temp\cch5AfG4.s:16     .text.dns_call_found:0000000000000000 .L0 
C:\Users\stapi\AppData\Local\Temp\cch5AfG4.s:18     .text.dns_call_found:0000000000000000 .L0 
C:\Users\stapi\AppData\Local\Temp\cch5AfG4.s:19     .text.dns_call_found:0000000000000008 .L0 
C:\Users\stapi\AppData\Local\Temp\cch5AfG4.s:20     .text.dns_call_found:0000000000000008 .L0 
C:\Users\stapi\AppData\Local\Temp\cch5AfG4.s:21     .text.dns_call_found:0000000000000008 .L0 
C:\Users\stapi\AppData\Local\Temp\cch5AfG4.s:22     .text.dns_call_found:0000000000000008 .L0 
C:\Users\stapi\AppData\Local\Temp\cch5AfG4.s:23     .text.dns_call_found:0000000000000008 .L0 
C:\Users\stapi\AppData\Local\Temp\cch5AfG4.s:24     .text.dns_call_found:0000000000000008 .L0 
C:\Users\stapi\AppData\Local\Temp\cch5AfG4.s:25     .text.dns_call_found:0000000000000008 .L0 
C:\Users\stapi\AppData\Local\Temp\cch5AfG4.s:26     .text.dns_call_found:0000000000000008 .L0 
C:\Users\stapi\AppData\Local\Temp\cch5AfG4.s:28     .text.dns_call_found:0000000000000008 .L0 
C:\Users\stapi\AppData\Local\Temp\cch5AfG4.s:30     .text.dns_call_found:0000000000000008 .L0 
C:\Users\stapi\AppData\Local\Temp\cch5AfG4.s:31     .text.dns_call_found:0000000000000008 .L0 
C:\Users\stapi\AppData\Local\Temp\cch5AfG4.s:32     .text.dns_call_found:0000000000000008 .L0 
C:\Users\stapi\AppData\Local\Temp\cch5AfG4.s:39     .text.dns_call_found:0000000000000020 .L0 
C:\Users\stapi\AppData\Local\Temp\cch5AfG4.s:42     .text.dns_call_found:0000000000000024 .L0 
C:\Users\stapi\AppData\Local\Temp\cch5AfG4.s:48     .text.dns_call_found:000000000000002e .L0 
C:\Users\stapi\AppData\Local\Temp\cch5AfG4.s:49     .text.dns_call_found:000000000000002e .L0 
C:\Users\stapi\AppData\Local\Temp\cch5AfG4.s:51     .text.dns_call_found:0000000000000030 .L0 
C:\Users\stapi\AppData\Local\Temp\cch5AfG4.s:53     .text.dns_call_found:0000000000000032 .L0 
C:\Users\stapi\AppData\Local\Temp\cch5AfG4.s:56     .text.dns_call_found:000000000000003a .L0 
C:\Users\stapi\AppData\Local\Temp\cch5AfG4.s:57     .text.dns_call_found:000000000000003a .L0 
C:\Users\stapi\AppData\Local\Temp\cch5AfG4.s:63     .text.dns_call_found:0000000000000042 .L0 
C:\Users\stapi\AppData\Local\Temp\cch5AfG4.s:64     .text.dns_call_found:0000000000000042 .L0 
C:\Users\stapi\AppData\Local\Temp\cch5AfG4.s:68     .text.dns_call_found:0000000000000046 .L0 
C:\Users\stapi\AppData\Local\Temp\cch5AfG4.s:69     .text.dns_call_found:0000000000000046 .L0 
C:\Users\stapi\AppData\Local\Temp\cch5AfG4.s:70     .text.dns_call_found:0000000000000046 .L0 
C:\Users\stapi\AppData\Local\Temp\cch5AfG4.s:74     .text.dns_call_found:000000000000004c .L0 
C:\Users\stapi\AppData\Local\Temp\cch5AfG4.s:79     .text.dns_call_found:0000000000000058 .L0 
C:\Users\stapi\AppData\Local\Temp\cch5AfG4.s:81     .text.dns_call_found:000000000000005a .L0 
C:\Users\stapi\AppData\Local\Temp\cch5AfG4.s:83     .text.dns_call_found:000000000000005c .L0 
C:\Users\stapi\AppData\Local\Temp\cch5AfG4.s:87     .text.dns_call_found:000000000000005e .L0 
C:\Users\stapi\AppData\Local\Temp\cch5AfG4.s:88     .text.dns_call_found:000000000000005e .L0 
C:\Users\stapi\AppData\Local\Temp\cch5AfG4.s:90     .text.dns_call_found:0000000000000062 .L0 
C:\Users\stapi\AppData\Local\Temp\cch5AfG4.s:91     .text.dns_call_found:0000000000000062 .L0 
C:\Users\stapi\AppData\Local\Temp\cch5AfG4.s:94     .text.dns_call_found:000000000000006a .L0 
C:\Users\stapi\AppData\Local\Temp\cch5AfG4.s:95     .text.dns_call_found:000000000000006a .L0 
C:\Users\stapi\AppData\Local\Temp\cch5AfG4.s:99     .text.dns_call_found:0000000000000076 .L0 
C:\Users\stapi\AppData\Local\Temp\cch5AfG4.s:100    .text.dns_call_found:0000000000000076 .L0 
C:\Users\stapi\AppData\Local\Temp\cch5AfG4.s:105    .text.dns_call_found:000000000000007c .L0 
C:\Users\stapi\AppData\Local\Temp\cch5AfG4.s:106    .text.dns_call_found:000000000000007c .L0 
C:\Users\stapi\AppData\Local\Temp\cch5AfG4.s:107    .text.dns_call_found:000000000000007c .L0 
C:\Users\stapi\AppData\Local\Temp\cch5AfG4.s:111    .text.dns_call_found:0000000000000088 .L0 
C:\Users\stapi\AppData\Local\Temp\cch5AfG4.s:114    .text.dns_call_found:000000000000008e .L0 
C:\Users\stapi\AppData\Local\Temp\cch5AfG4.s:121    .text.dns_call_found:00000000000000a4 .L0 
C:\Users\stapi\AppData\Local\Temp\cch5AfG4.s:122    .text.dns_call_found:00000000000000a4 .L0 
C:\Users\stapi\AppData\Local\Temp\cch5AfG4.s:124    .text.dns_call_found:00000000000000a8 .L0 
C:\Users\stapi\AppData\Local\Temp\cch5AfG4.s:126    .text.dns_call_found:00000000000000ac .L0 
C:\Users\stapi\AppData\Local\Temp\cch5AfG4.s:128    .text.dns_call_found:00000000000000ae .L0 
C:\Users\stapi\AppData\Local\Temp\cch5AfG4.s:130    .text.dns_call_found:00000000000000b2 .L0 
C:\Users\stapi\AppData\Local\Temp\cch5AfG4.s:131    .text.dns_call_found:00000000000000b2 .L0 
C:\Users\stapi\AppData\Local\Temp\cch5AfG4.s:134    .text.dns_call_found:00000000000000b6 .L0 
C:\Users\stapi\AppData\Local\Temp\cch5AfG4.s:135    .text.dns_call_found:00000000000000be .L0 
C:\Users\stapi\AppData\Local\Temp\cch5AfG4.s:136    .text.dns_call_found:00000000000000be .L0 
C:\Users\stapi\AppData\Local\Temp\cch5AfG4.s:137    .text.dns_call_found:00000000000000be .L0 
C:\Users\stapi\AppData\Local\Temp\cch5AfG4.s:138    .text.dns_call_found:00000000000000be .L0 
C:\Users\stapi\AppData\Local\Temp\cch5AfG4.s:139    .text.dns_call_found:00000000000000be .L0 
C:\Users\stapi\AppData\Local\Temp\cch5AfG4.s:140    .text.dns_call_found:00000000000000be .L0 
C:\Users\stapi\AppData\Local\Temp\cch5AfG4.s:141    .text.dns_call_found:00000000000000be .L0 
C:\Users\stapi\AppData\Local\Temp\cch5AfG4.s:142    .text.dns_call_found:00000000000000be .L0 
C:\Users\stapi\AppData\Local\Temp\cch5AfG4.s:143    .text.dns_call_found:00000000000000be .L0 
C:\Users\stapi\AppData\Local\Temp\cch5AfG4.s:146    .text.dns_call_found:00000000000000be .L0 
C:\Users\stapi\AppData\Local\Temp\cch5AfG4.s:148    .text.dns_call_found:00000000000000be .L0 
C:\Users\stapi\AppData\Local\Temp\cch5AfG4.s:149    .text.dns_call_found:00000000000000be .L0 
C:\Users\stapi\AppData\Local\Temp\cch5AfG4.s:154    .text.dns_call_found:00000000000000c4 .L0 
C:\Users\stapi\AppData\Local\Temp\cch5AfG4.s:155    .text.dns_call_found:00000000000000c4 .L0 
C:\Users\stapi\AppData\Local\Temp\cch5AfG4.s:158    .text.dns_call_found:00000000000000ce .L0 
C:\Users\stapi\AppData\Local\Temp\cch5AfG4.s:174    .text.dns_send.isra.0:0000000000000000 dns_send.isra.0
C:\Users\stapi\AppData\Local\Temp\cch5AfG4.s:177    .text.dns_send.isra.0:0000000000000000 .L0 
C:\Users\stapi\AppData\Local\Temp\cch5AfG4.s:179    .text.dns_send.isra.0:0000000000000000 .L0 
C:\Users\stapi\AppData\Local\Temp\cch5AfG4.s:180    .text.dns_send.isra.0:0000000000000008 .L0 
C:\Users\stapi\AppData\Local\Temp\cch5AfG4.s:181    .text.dns_send.isra.0:0000000000000008 .L0 
C:\Users\stapi\AppData\Local\Temp\cch5AfG4.s:182    .text.dns_send.isra.0:0000000000000008 .L0 
C:\Users\stapi\AppData\Local\Temp\cch5AfG4.s:183    .text.dns_send.isra.0:0000000000000008 .L0 
C:\Users\stapi\AppData\Local\Temp\cch5AfG4.s:184    .text.dns_send.isra.0:0000000000000008 .L0 
C:\Users\stapi\AppData\Local\Temp\cch5AfG4.s:185    .text.dns_send.isra.0:0000000000000008 .L0 
C:\Users\stapi\AppData\Local\Temp\cch5AfG4.s:186    .text.dns_send.isra.0:0000000000000008 .L0 
C:\Users\stapi\AppData\Local\Temp\cch5AfG4.s:187    .text.dns_send.isra.0:0000000000000008 .L0 
C:\Users\stapi\AppData\Local\Temp\cch5AfG4.s:188    .text.dns_send.isra.0:0000000000000008 .L0 
C:\Users\stapi\AppData\Local\Temp\cch5AfG4.s:189    .text.dns_send.isra.0:0000000000000008 .L0 
C:\Users\stapi\AppData\Local\Temp\cch5AfG4.s:190    .text.dns_send.isra.0:0000000000000008 .L0 
C:\Users\stapi\AppData\Local\Temp\cch5AfG4.s:191    .text.dns_send.isra.0:0000000000000008 .L0 
C:\Users\stapi\AppData\Local\Temp\cch5AfG4.s:193    .text.dns_send.isra.0:0000000000000008 .L0 
C:\Users\stapi\AppData\Local\Temp\cch5AfG4.s:194    .text.dns_send.isra.0:0000000000000008 .L0 
C:\Users\stapi\AppData\Local\Temp\cch5AfG4.s:195    .text.dns_send.isra.0:0000000000000008 .L0 
C:\Users\stapi\AppData\Local\Temp\cch5AfG4.s:196    .text.dns_send.isra.0:0000000000000008 .L0 
C:\Users\stapi\AppData\Local\Temp\cch5AfG4.s:197    .text.dns_send.isra.0:0000000000000008 .L0 
C:\Users\stapi\AppData\Local\Temp\cch5AfG4.s:198    .text.dns_send.isra.0:0000000000000008 .L0 
C:\Users\stapi\AppData\Local\Temp\cch5AfG4.s:199    .text.dns_send.isra.0:0000000000000008 .L0 
C:\Users\stapi\AppData\Local\Temp\cch5AfG4.s:200    .text.dns_send.isra.0:0000000000000008 .L0 
C:\Users\stapi\AppData\Local\Temp\cch5AfG4.s:202    .text.dns_send.isra.0:0000000000000008 .L0 
C:\Users\stapi\AppData\Local\Temp\cch5AfG4.s:203    .text.dns_send.isra.0:0000000000000008 .L0 
C:\Users\stapi\AppData\Local\Temp\cch5AfG4.s:204    .text.dns_send.isra.0:0000000000000008 .L0 
C:\Users\stapi\AppData\Local\Temp\cch5AfG4.s:205    .text.dns_send.isra.0:0000000000000008 .L0 
C:\Users\stapi\AppData\Local\Temp\cch5AfG4.s:211    .text.dns_send.isra.0:000000000000001a .L0 
C:\Users\stapi\AppData\Local\Temp\cch5AfG4.s:212    .text.dns_send.isra.0:000000000000001c .L0 
C:\Users\stapi\AppData\Local\Temp\cch5AfG4.s:214    .text.dns_send.isra.0:000000000000001c .L0 
C:\Users\stapi\AppData\Local\Temp\cch5AfG4.s:218    .text.dns_send.isra.0:0000000000000026 .L0 
C:\Users\stapi\AppData\Local\Temp\cch5AfG4.s:219    .text.dns_send.isra.0:0000000000000026 .L0 
C:\Users\stapi\AppData\Local\Temp\cch5AfG4.s:231    .text.dns_send.isra.0:000000000000004a .L0 
C:\Users\stapi\AppData\Local\Temp\cch5AfG4.s:232    .text.dns_send.isra.0:000000000000004a .L0 
C:\Users\stapi\AppData\Local\Temp\cch5AfG4.s:233    .text.dns_send.isra.0:000000000000004a .L0 
C:\Users\stapi\AppData\Local\Temp\cch5AfG4.s:237    .text.dns_send.isra.0:000000000000004c .L0 
C:\Users\stapi\AppData\Local\Temp\cch5AfG4.s:238    .text.dns_send.isra.0:000000000000004c .L0 
C:\Users\stapi\AppData\Local\Temp\cch5AfG4.s:239    .text.dns_send.isra.0:000000000000004c .L0 
C:\Users\stapi\AppData\Local\Temp\cch5AfG4.s:240    .text.dns_send.isra.0:000000000000004c .L0 
C:\Users\stapi\AppData\Local\Temp\cch5AfG4.s:244    .text.dns_send.isra.0:0000000000000058 .L0 
C:\Users\stapi\AppData\Local\Temp\cch5AfG4.s:248    .text.dns_send.isra.0:0000000000000060 .L0 
C:\Users\stapi\AppData\Local\Temp\cch5AfG4.s:252    .text.dns_send.isra.0:000000000000006a .L0 
C:\Users\stapi\AppData\Local\Temp\cch5AfG4.s:253    .text.dns_send.isra.0:000000000000006a .L0 
C:\Users\stapi\AppData\Local\Temp\cch5AfG4.s:256    .text.dns_send.isra.0:000000000000006e .L0 
C:\Users\stapi\AppData\Local\Temp\cch5AfG4.s:257    .text.dns_send.isra.0:000000000000006e .L0 
C:\Users\stapi\AppData\Local\Temp\cch5AfG4.s:258    .text.dns_send.isra.0:0000000000000070 .L0 
C:\Users\stapi\AppData\Local\Temp\cch5AfG4.s:259    .text.dns_send.isra.0:0000000000000070 .L0 
C:\Users\stapi\AppData\Local\Temp\cch5AfG4.s:261    .text.dns_send.isra.0:0000000000000078 .L0 
C:\Users\stapi\AppData\Local\Temp\cch5AfG4.s:262    .text.dns_send.isra.0:0000000000000078 .L0 
C:\Users\stapi\AppData\Local\Temp\cch5AfG4.s:263    .text.dns_send.isra.0:0000000000000078 .L0 
C:\Users\stapi\AppData\Local\Temp\cch5AfG4.s:264    .text.dns_send.isra.0:0000000000000078 .L0 
C:\Users\stapi\AppData\Local\Temp\cch5AfG4.s:265    .text.dns_send.isra.0:0000000000000078 .L0 
C:\Users\stapi\AppData\Local\Temp\cch5AfG4.s:266    .text.dns_send.isra.0:0000000000000078 .L0 
C:\Users\stapi\AppData\Local\Temp\cch5AfG4.s:267    .text.dns_send.isra.0:0000000000000078 .L0 
C:\Users\stapi\AppData\Local\Temp\cch5AfG4.s:268    .text.dns_send.isra.0:0000000000000078 .L0 
C:\Users\stapi\AppData\Local\Temp\cch5AfG4.s:269    .text.dns_send.isra.0:0000000000000078 .L0 
C:\Users\stapi\AppData\Local\Temp\cch5AfG4.s:270    .text.dns_send.isra.0:0000000000000078 .L0 
C:\Users\stapi\AppData\Local\Temp\cch5AfG4.s:271    .text.dns_send.isra.0:0000000000000078 .L0 
C:\Users\stapi\AppData\Local\Temp\cch5AfG4.s:272    .text.dns_send.isra.0:0000000000000078 .L0 
C:\Users\stapi\AppData\Local\Temp\cch5AfG4.s:275    .text.dns_send.isra.0:0000000000000078 .L0 
C:\Users\stapi\AppData\Local\Temp\cch5AfG4.s:278    .text.dns_send.isra.0:000000000000007c .L0 
C:\Users\stapi\AppData\Local\Temp\cch5AfG4.s:279    .text.dns_send.isra.0:000000000000007c .L0 
C:\Users\stapi\AppData\Local\Temp\cch5AfG4.s:283    .text.dns_send.isra.0:0000000000000082 .L0 
C:\Users\stapi\AppData\Local\Temp\cch5AfG4.s:288    .text.dns_send.isra.0:000000000000008c .L0 
C:\Users\stapi\AppData\Local\Temp\cch5AfG4.s:297    .text.dns_send.isra.0:00000000000000a6 .L0 
C:\Users\stapi\AppData\Local\Temp\cch5AfG4.s:298    .text.dns_send.isra.0:00000000000000a6 .L0 
C:\Users\stapi\AppData\Local\Temp\cch5AfG4.s:301    .text.dns_send.isra.0:00000000000000a8 .L0 
C:\Users\stapi\AppData\Local\Temp\cch5AfG4.s:302    .text.dns_send.isra.0:00000000000000a8 .L0 
C:\Users\stapi\AppData\Local\Temp\cch5AfG4.s:303    .text.dns_send.isra.0:00000000000000a8 .L0 
C:\Users\stapi\AppData\Local\Temp\cch5AfG4.s:304    .text.dns_send.isra.0:00000000000000a8 .L0 
C:\Users\stapi\AppData\Local\Temp\cch5AfG4.s:306    .text.dns_send.isra.0:00000000000000ac .L0 
C:\Users\stapi\AppData\Local\Temp\cch5AfG4.s:310    .text.dns_send.isra.0:00000000000000b2 .L0 
C:\Users\stapi\AppData\Local\Temp\cch5AfG4.s:311    .text.dns_send.isra.0:00000000000000b2 .L0 
C:\Users\stapi\AppData\Local\Temp\cch5AfG4.s:314    .text.dns_send.isra.0:00000000000000ba .L0 
C:\Users\stapi\AppData\Local\Temp\cch5AfG4.s:316    .text.dns_send.isra.0:00000000000000be .L0 
C:\Users\stapi\AppData\Local\Temp\cch5AfG4.s:317    .text.dns_send.isra.0:00000000000000be .L0 
C:\Users\stapi\AppData\Local\Temp\cch5AfG4.s:319    .text.dns_send.isra.0:00000000000000c2 .L0 
C:\Users\stapi\AppData\Local\Temp\cch5AfG4.s:323    .text.dns_send.isra.0:00000000000000c8 .L0 
C:\Users\stapi\AppData\Local\Temp\cch5AfG4.s:325    .text.dns_send.isra.0:00000000000000cc .L0 
C:\Users\stapi\AppData\Local\Temp\cch5AfG4.s:326    .text.dns_send.isra.0:00000000000000cc .L0 
C:\Users\stapi\AppData\Local\Temp\cch5AfG4.s:328    .text.dns_send.isra.0:00000000000000d0 .L0 
C:\Users\stapi\AppData\Local\Temp\cch5AfG4.s:329    .text.dns_send.isra.0:00000000000000d0 .L0 
C:\Users\stapi\AppData\Local\Temp\cch5AfG4.s:331    .text.dns_send.isra.0:00000000000000d2 .L0 
C:\Users\stapi\AppData\Local\Temp\cch5AfG4.s:334    .text.dns_send.isra.0:00000000000000da .L0 
C:\Users\stapi\AppData\Local\Temp\cch5AfG4.s:335    .text.dns_send.isra.0:00000000000000da .L0 
C:\Users\stapi\AppData\Local\Temp\cch5AfG4.s:338    .text.dns_send.isra.0:00000000000000dc .L0 
C:\Users\stapi\AppData\Local\Temp\cch5AfG4.s:339    .text.dns_send.isra.0:00000000000000dc .L0 
C:\Users\stapi\AppData\Local\Temp\cch5AfG4.s:341    .text.dns_send.isra.0:00000000000000de .L0 
C:\Users\stapi\AppData\Local\Temp\cch5AfG4.s:343    .text.dns_send.isra.0:00000000000000e2 .L0 
C:\Users\stapi\AppData\Local\Temp\cch5AfG4.s:347    .text.dns_send.isra.0:00000000000000e4 .L0 
C:\Users\stapi\AppData\Local\Temp\cch5AfG4.s:348    .text.dns_send.isra.0:00000000000000e4 .L0 
C:\Users\stapi\AppData\Local\Temp\cch5AfG4.s:351    .text.dns_send.isra.0:00000000000000e6 .L0 
C:\Users\stapi\AppData\Local\Temp\cch5AfG4.s:352    .text.dns_send.isra.0:00000000000000e6 .L0 
C:\Users\stapi\AppData\Local\Temp\cch5AfG4.s:353    .text.dns_send.isra.0:00000000000000e6 .L0 
C:\Users\stapi\AppData\Local\Temp\cch5AfG4.s:355    .text.dns_send.isra.0:00000000000000e8 .L0 
C:\Users\stapi\AppData\Local\Temp\cch5AfG4.s:359    .text.dns_send.isra.0:00000000000000ea .L0 
C:\Users\stapi\AppData\Local\Temp\cch5AfG4.s:361    .text.dns_send.isra.0:00000000000000ee .L0 
C:\Users\stapi\AppData\Local\Temp\cch5AfG4.s:364    .text.dns_send.isra.0:00000000000000f2 .L0 
C:\Users\stapi\AppData\Local\Temp\cch5AfG4.s:365    .text.dns_send.isra.0:00000000000000f2 .L0 
C:\Users\stapi\AppData\Local\Temp\cch5AfG4.s:367    .text.dns_send.isra.0:00000000000000f6 .L0 
C:\Users\stapi\AppData\Local\Temp\cch5AfG4.s:369    .text.dns_send.isra.0:00000000000000fa .L0 
C:\Users\stapi\AppData\Local\Temp\cch5AfG4.s:372    .text.dns_send.isra.0:00000000000000fe .L0 
C:\Users\stapi\AppData\Local\Temp\cch5AfG4.s:373    .text.dns_send.isra.0:00000000000000fe .L0 
C:\Users\stapi\AppData\Local\Temp\cch5AfG4.s:377    .text.dns_send.isra.0:0000000000000102 .L0 
C:\Users\stapi\AppData\Local\Temp\cch5AfG4.s:386    .text.dns_send.isra.0:000000000000010e .L0 
C:\Users\stapi\AppData\Local\Temp\cch5AfG4.s:388    .text.dns_send.isra.0:0000000000000110 .L0 
C:\Users\stapi\AppData\Local\Temp\cch5AfG4.s:393    .text.dns_send.isra.0:0000000000000116 .L0 
C:\Users\stapi\AppData\Local\Temp\cch5AfG4.s:399    .text.dns_send.isra.0:000000000000011a .L0 
C:\Users\stapi\AppData\Local\Temp\cch5AfG4.s:404    .text.dns_send.isra.0:0000000000000126 .L0 
C:\Users\stapi\AppData\Local\Temp\cch5AfG4.s:413    .text.dns_send.isra.0:000000000000013e .L0 
C:\Users\stapi\AppData\Local\Temp\cch5AfG4.s:414    .text.dns_send.isra.0:000000000000013e .L0 
C:\Users\stapi\AppData\Local\Temp\cch5AfG4.s:416    .text.dns_send.isra.0:0000000000000142 .L0 
C:\Users\stapi\AppData\Local\Temp\cch5AfG4.s:420    .text.dns_send.isra.0:000000000000014a .L0 
C:\Users\stapi\AppData\Local\Temp\cch5AfG4.s:421    .text.dns_send.isra.0:000000000000014a .L0 
C:\Users\stapi\AppData\Local\Temp\cch5AfG4.s:424    .text.dns_send.isra.0:0000000000000150 .L0 
C:\Users\stapi\AppData\Local\Temp\cch5AfG4.s:429    .text.dns_send.isra.0:000000000000015c .L0 
C:\Users\stapi\AppData\Local\Temp\cch5AfG4.s:430    .text.dns_send.isra.0:000000000000015c .L0 
C:\Users\stapi\AppData\Local\Temp\cch5AfG4.s:431    .text.dns_send.isra.0:000000000000015c .L0 
C:\Users\stapi\AppData\Local\Temp\cch5AfG4.s:432    .text.dns_send.isra.0:000000000000015c .L0 
C:\Users\stapi\AppData\Local\Temp\cch5AfG4.s:433    .text.dns_send.isra.0:000000000000015c .L0 
C:\Users\stapi\AppData\Local\Temp\cch5AfG4.s:436    .text.dns_send.isra.0:0000000000000164 .L0 
C:\Users\stapi\AppData\Local\Temp\cch5AfG4.s:438    .text.dns_send.isra.0:0000000000000166 .L0 
C:\Users\stapi\AppData\Local\Temp\cch5AfG4.s:441    .text.dns_send.isra.0:0000000000000168 .L0 
C:\Users\stapi\AppData\Local\Temp\cch5AfG4.s:444    .text.dns_send.isra.0:000000000000016c .L0 
C:\Users\stapi\AppData\Local\Temp\cch5AfG4.s:446    .text.dns_send.isra.0:000000000000016e .L0 
C:\Users\stapi\AppData\Local\Temp\cch5AfG4.s:450    .text.dns_send.isra.0:000000000000017a .L0 
C:\Users\stapi\AppData\Local\Temp\cch5AfG4.s:451    .text.dns_send.isra.0:000000000000017a .L0 
C:\Users\stapi\AppData\Local\Temp\cch5AfG4.s:452    .text.dns_send.isra.0:000000000000017a .L0 
C:\Users\stapi\AppData\Local\Temp\cch5AfG4.s:453    .text.dns_send.isra.0:000000000000017a .L0 
C:\Users\stapi\AppData\Local\Temp\cch5AfG4.s:454    .text.dns_send.isra.0:000000000000017a .L0 
C:\Users\stapi\AppData\Local\Temp\cch5AfG4.s:455    .text.dns_send.isra.0:000000000000017a .L0 
C:\Users\stapi\AppData\Local\Temp\cch5AfG4.s:458    .text.dns_send.isra.0:0000000000000182 .L0 
C:\Users\stapi\AppData\Local\Temp\cch5AfG4.s:462    .text.dns_send.isra.0:000000000000018e .L0 
C:\Users\stapi\AppData\Local\Temp\cch5AfG4.s:464    .text.dns_send.isra.0:0000000000000192 .L0 
C:\Users\stapi\AppData\Local\Temp\cch5AfG4.s:473    .text.dns_send.isra.0:00000000000001ac .L0 
C:\Users\stapi\AppData\Local\Temp\cch5AfG4.s:486    .text.dns_check_entry:0000000000000000 dns_check_entry
C:\Users\stapi\AppData\Local\Temp\cch5AfG4.s:489    .text.dns_check_entry:0000000000000000 .L0 
C:\Users\stapi\AppData\Local\Temp\cch5AfG4.s:491    .text.dns_check_entry:0000000000000000 .L0 
C:\Users\stapi\AppData\Local\Temp\cch5AfG4.s:492    .text.dns_check_entry:0000000000000008 .L0 
C:\Users\stapi\AppData\Local\Temp\cch5AfG4.s:493    .text.dns_check_entry:0000000000000008 .L0 
C:\Users\stapi\AppData\Local\Temp\cch5AfG4.s:494    .text.dns_check_entry:0000000000000008 .L0 
C:\Users\stapi\AppData\Local\Temp\cch5AfG4.s:495    .text.dns_check_entry:0000000000000008 .L0 
C:\Users\stapi\AppData\Local\Temp\cch5AfG4.s:496    .text.dns_check_entry:0000000000000008 .L0 
C:\Users\stapi\AppData\Local\Temp\cch5AfG4.s:497    .text.dns_check_entry:0000000000000008 .L0 
C:\Users\stapi\AppData\Local\Temp\cch5AfG4.s:499    .text.dns_check_entry:0000000000000008 .L0 
C:\Users\stapi\AppData\Local\Temp\cch5AfG4.s:501    .text.dns_check_entry:0000000000000008 .L0 
C:\Users\stapi\AppData\Local\Temp\cch5AfG4.s:502    .text.dns_check_entry:0000000000000008 .L0 
C:\Users\stapi\AppData\Local\Temp\cch5AfG4.s:503    .text.dns_check_entry:0000000000000008 .L0 
C:\Users\stapi\AppData\Local\Temp\cch5AfG4.s:506    .text.dns_check_entry:000000000000000e .L0 
C:\Users\stapi\AppData\Local\Temp\cch5AfG4.s:507    .text.dns_check_entry:000000000000000e .L0 
C:\Users\stapi\AppData\Local\Temp\cch5AfG4.s:519    .text.dns_check_entry:0000000000000032 .L0 
C:\Users\stapi\AppData\Local\Temp\cch5AfG4.s:520    .text.dns_check_entry:0000000000000032 .L0 
C:\Users\stapi\AppData\Local\Temp\cch5AfG4.s:521    .text.dns_check_entry:0000000000000032 .L0 
C:\Users\stapi\AppData\Local\Temp\cch5AfG4.s:525    .text.dns_check_entry:0000000000000034 .L0 
C:\Users\stapi\AppData\Local\Temp\cch5AfG4.s:531    .text.dns_check_entry:0000000000000048 .L0 
C:\Users\stapi\AppData\Local\Temp\cch5AfG4.s:534    .text.dns_check_entry:000000000000004c .L0 
C:\Users\stapi\AppData\Local\Temp\cch5AfG4.s:535    .text.dns_check_entry:000000000000004c .L0 
C:\Users\stapi\AppData\Local\Temp\cch5AfG4.s:536    .text.dns_check_entry:000000000000004c .L0 
C:\Users\stapi\AppData\Local\Temp\cch5AfG4.s:539    .text.dns_check_entry:0000000000000054 .L0 
C:\Users\stapi\AppData\Local\Temp\cch5AfG4.s:545    .text.dns_check_entry:000000000000005e .L0 
C:\Users\stapi\AppData\Local\Temp\cch5AfG4.s:549    .text.dns_check_entry:0000000000000060 .L0 
C:\Users\stapi\AppData\Local\Temp\cch5AfG4.s:550    .text.dns_check_entry:0000000000000060 .L0 
C:\Users\stapi\AppData\Local\Temp\cch5AfG4.s:551    .text.dns_check_entry:0000000000000060 .L0 
C:\Users\stapi\AppData\Local\Temp\cch5AfG4.s:552    .text.dns_check_entry:0000000000000060 .L0 
C:\Users\stapi\AppData\Local\Temp\cch5AfG4.s:556    .text.dns_check_entry:000000000000006a .L0 
C:\Users\stapi\AppData\Local\Temp\cch5AfG4.s:559    .text.dns_check_entry:000000000000006e .L0 
C:\Users\stapi\AppData\Local\Temp\cch5AfG4.s:561    .text.dns_check_entry:000000000000006e .L0 
C:\Users\stapi\AppData\Local\Temp\cch5AfG4.s:562    .text.dns_check_entry:000000000000006e .L0 
C:\Users\stapi\AppData\Local\Temp\cch5AfG4.s:563    .text.dns_check_entry:000000000000006e .L0 
C:\Users\stapi\AppData\Local\Temp\cch5AfG4.s:566    .text.dns_check_entry:0000000000000076 .L0 
C:\Users\stapi\AppData\Local\Temp\cch5AfG4.s:571    .text.dns_check_entry:000000000000007e .L0 
C:\Users\stapi\AppData\Local\Temp\cch5AfG4.s:572    .text.dns_check_entry:000000000000007e .L0 
C:\Users\stapi\AppData\Local\Temp\cch5AfG4.s:573    .text.dns_check_entry:000000000000007e .L0 
C:\Users\stapi\AppData\Local\Temp\cch5AfG4.s:580    .text.dns_check_entry:0000000000000086 .L0 
C:\Users\stapi\AppData\Local\Temp\cch5AfG4.s:581    .text.dns_check_entry:0000000000000086 .L0 
C:\Users\stapi\AppData\Local\Temp\cch5AfG4.s:584    .text.dns_check_entry:000000000000008e .L0 
C:\Users\stapi\AppData\Local\Temp\cch5AfG4.s:587    .text.dns_check_entry:0000000000000094 .L0 
C:\Users\stapi\AppData\Local\Temp\cch5AfG4.s:589    .text.dns_check_entry:0000000000000096 .L0 
C:\Users\stapi\AppData\Local\Temp\cch5AfG4.s:591    .text.dns_check_entry:000000000000009a .L0 
C:\Users\stapi\AppData\Local\Temp\cch5AfG4.s:592    .text.dns_check_entry:000000000000009a .L0 
C:\Users\stapi\AppData\Local\Temp\cch5AfG4.s:593    .text.dns_check_entry:000000000000009a .L0 
C:\Users\stapi\AppData\Local\Temp\cch5AfG4.s:594    .text.dns_check_entry:000000000000009a .L0 
C:\Users\stapi\AppData\Local\Temp\cch5AfG4.s:595    .text.dns_check_entry:000000000000009a .L0 
C:\Users\stapi\AppData\Local\Temp\cch5AfG4.s:598    .text.dns_check_entry:000000000000009e .L0 
C:\Users\stapi\AppData\Local\Temp\cch5AfG4.s:599    .text.dns_check_entry:000000000000009e .L0 
C:\Users\stapi\AppData\Local\Temp\cch5AfG4.s:600    .text.dns_check_entry:000000000000009e .L0 
C:\Users\stapi\AppData\Local\Temp\cch5AfG4.s:605    .text.dns_check_entry:00000000000000a8 .L0 
C:\Users\stapi\AppData\Local\Temp\cch5AfG4.s:606    .text.dns_check_entry:00000000000000a8 .L0 
C:\Users\stapi\AppData\Local\Temp\cch5AfG4.s:607    .text.dns_check_entry:00000000000000b0 .L0 
C:\Users\stapi\AppData\Local\Temp\cch5AfG4.s:608    .text.dns_check_entry:00000000000000b0 .L0 
C:\Users\stapi\AppData\Local\Temp\cch5AfG4.s:609    .text.dns_check_entry:00000000000000b0 .L0 
C:\Users\stapi\AppData\Local\Temp\cch5AfG4.s:610    .text.dns_check_entry:00000000000000b0 .L0 
C:\Users\stapi\AppData\Local\Temp\cch5AfG4.s:611    .text.dns_check_entry:00000000000000b0 .L0 
C:\Users\stapi\AppData\Local\Temp\cch5AfG4.s:612    .text.dns_check_entry:00000000000000b0 .L0 
C:\Users\stapi\AppData\Local\Temp\cch5AfG4.s:613    .text.dns_check_entry:00000000000000b0 .L0 
C:\Users\stapi\AppData\Local\Temp\cch5AfG4.s:616    .text.dns_check_entry:00000000000000b0 .L0 
C:\Users\stapi\AppData\Local\Temp\cch5AfG4.s:618    .text.dns_check_entry:00000000000000b0 .L0 
C:\Users\stapi\AppData\Local\Temp\cch5AfG4.s:620    .text.dns_check_entry:00000000000000b4 .L0 
C:\Users\stapi\AppData\Local\Temp\cch5AfG4.s:621    .text.dns_check_entry:00000000000000b4 .L0 
C:\Users\stapi\AppData\Local\Temp\cch5AfG4.s:622    .text.dns_check_entry:00000000000000b4 .L0 
C:\Users\stapi\AppData\Local\Temp\cch5AfG4.s:623    .text.dns_check_entry:00000000000000b4 .L0 
C:\Users\stapi\AppData\Local\Temp\cch5AfG4.s:635    .text.dns_check_entry:00000000000000d8 .L0 
C:\Users\stapi\AppData\Local\Temp\cch5AfG4.s:636    .text.dns_check_entry:00000000000000d8 .L0 
C:\Users\stapi\AppData\Local\Temp\cch5AfG4.s:637    .text.dns_check_entry:00000000000000d8 .L0 
C:\Users\stapi\AppData\Local\Temp\cch5AfG4.s:641    .text.dns_check_entry:00000000000000da .L0 
C:\Users\stapi\AppData\Local\Temp\cch5AfG4.s:642    .text.dns_check_entry:00000000000000da .L0 
C:\Users\stapi\AppData\Local\Temp\cch5AfG4.s:646    .text.dns_check_entry:00000000000000e4 .L0 
C:\Users\stapi\AppData\Local\Temp\cch5AfG4.s:649    .text.dns_check_entry:00000000000000ea .L0 
C:\Users\stapi\AppData\Local\Temp\cch5AfG4.s:650    .text.dns_check_entry:00000000000000ea .L0 
C:\Users\stapi\AppData\Local\Temp\cch5AfG4.s:652    .text.dns_check_entry:00000000000000ee .L0 
C:\Users\stapi\AppData\Local\Temp\cch5AfG4.s:654    .text.dns_check_entry:00000000000000f0 .L0 
C:\Users\stapi\AppData\Local\Temp\cch5AfG4.s:657    .text.dns_check_entry:00000000000000f6 .L0 
C:\Users\stapi\AppData\Local\Temp\cch5AfG4.s:663    .text.dns_check_entry:00000000000000fe .L0 
C:\Users\stapi\AppData\Local\Temp\cch5AfG4.s:664    .text.dns_check_entry:00000000000000fe .L0 
C:\Users\stapi\AppData\Local\Temp\cch5AfG4.s:665    .text.dns_check_entry:00000000000000fe .L0 
C:\Users\stapi\AppData\Local\Temp\cch5AfG4.s:666    .text.dns_check_entry:00000000000000fe .L0 
C:\Users\stapi\AppData\Local\Temp\cch5AfG4.s:667    .text.dns_check_entry:00000000000000fe .L0 
C:\Users\stapi\AppData\Local\Temp\cch5AfG4.s:673    .text.dns_check_entry:0000000000000104 .L0 
C:\Users\stapi\AppData\Local\Temp\cch5AfG4.s:675    .text.dns_check_entry:0000000000000108 .L0 
C:\Users\stapi\AppData\Local\Temp\cch5AfG4.s:681    .text.dns_check_entry:000000000000010e .L0 
C:\Users\stapi\AppData\Local\Temp\cch5AfG4.s:684    .text.dns_check_entry:000000000000010e .L0 
C:\Users\stapi\AppData\Local\Temp\cch5AfG4.s:685    .text.dns_check_entry:000000000000010e .L0 
C:\Users\stapi\AppData\Local\Temp\cch5AfG4.s:686    .text.dns_check_entry:000000000000010e .L0 
C:\Users\stapi\AppData\Local\Temp\cch5AfG4.s:687    .text.dns_check_entry:000000000000010e .L0 
C:\Users\stapi\AppData\Local\Temp\cch5AfG4.s:688    .text.dns_check_entry:000000000000010e .L0 
C:\Users\stapi\AppData\Local\Temp\cch5AfG4.s:691    .text.dns_check_entry:0000000000000114 .L0 
C:\Users\stapi\AppData\Local\Temp\cch5AfG4.s:696    .text.dns_check_entry:000000000000011a .L0 
C:\Users\stapi\AppData\Local\Temp\cch5AfG4.s:697    .text.dns_check_entry:000000000000011a .L0 
C:\Users\stapi\AppData\Local\Temp\cch5AfG4.s:704    .text.dns_check_entry:0000000000000126 .L0 
C:\Users\stapi\AppData\Local\Temp\cch5AfG4.s:705    .text.dns_check_entry:0000000000000126 .L0 
C:\Users\stapi\AppData\Local\Temp\cch5AfG4.s:706    .text.dns_check_entry:0000000000000126 .L0 
C:\Users\stapi\AppData\Local\Temp\cch5AfG4.s:707    .text.dns_check_entry:0000000000000126 .L0 
C:\Users\stapi\AppData\Local\Temp\cch5AfG4.s:714    .text.dns_check_entry:0000000000000134 .L0 
C:\Users\stapi\AppData\Local\Temp\cch5AfG4.s:715    .text.dns_check_entry:0000000000000134 .L0 
C:\Users\stapi\AppData\Local\Temp\cch5AfG4.s:719    .text.dns_check_entry:000000000000013a .L0 
C:\Users\stapi\AppData\Local\Temp\cch5AfG4.s:720    .text.dns_check_entry:000000000000013a .L0 
C:\Users\stapi\AppData\Local\Temp\cch5AfG4.s:722    .text.dns_check_entry:000000000000013c .L0 
C:\Users\stapi\AppData\Local\Temp\cch5AfG4.s:724    .text.dns_check_entry:000000000000013e .L0 
C:\Users\stapi\AppData\Local\Temp\cch5AfG4.s:726    .text.dns_check_entry:0000000000000140 .L0 
C:\Users\stapi\AppData\Local\Temp\cch5AfG4.s:729    .text.dns_check_entry:0000000000000146 .L0 
C:\Users\stapi\AppData\Local\Temp\cch5AfG4.s:735    .text.dns_recv:0000000000000000 dns_recv
C:\Users\stapi\AppData\Local\Temp\cch5AfG4.s:738    .text.dns_recv:0000000000000000 .L0 
C:\Users\stapi\AppData\Local\Temp\cch5AfG4.s:740    .text.dns_recv:0000000000000000 .L0 
C:\Users\stapi\AppData\Local\Temp\cch5AfG4.s:741    .text.dns_recv:0000000000000008 .L0 
C:\Users\stapi\AppData\Local\Temp\cch5AfG4.s:742    .text.dns_recv:0000000000000008 .L0 
C:\Users\stapi\AppData\Local\Temp\cch5AfG4.s:743    .text.dns_recv:0000000000000008 .L0 
C:\Users\stapi\AppData\Local\Temp\cch5AfG4.s:744    .text.dns_recv:0000000000000008 .L0 
C:\Users\stapi\AppData\Local\Temp\cch5AfG4.s:745    .text.dns_recv:0000000000000008 .L0 
C:\Users\stapi\AppData\Local\Temp\cch5AfG4.s:746    .text.dns_recv:0000000000000008 .L0 
C:\Users\stapi\AppData\Local\Temp\cch5AfG4.s:747    .text.dns_recv:0000000000000008 .L0 
C:\Users\stapi\AppData\Local\Temp\cch5AfG4.s:748    .text.dns_recv:0000000000000008 .L0 
C:\Users\stapi\AppData\Local\Temp\cch5AfG4.s:749    .text.dns_recv:0000000000000008 .L0 
C:\Users\stapi\AppData\Local\Temp\cch5AfG4.s:750    .text.dns_recv:0000000000000008 .L0 
C:\Users\stapi\AppData\Local\Temp\cch5AfG4.s:751    .text.dns_recv:0000000000000008 .L0 
C:\Users\stapi\AppData\Local\Temp\cch5AfG4.s:752    .text.dns_recv:0000000000000008 .L0 
C:\Users\stapi\AppData\Local\Temp\cch5AfG4.s:753    .text.dns_recv:0000000000000008 .L0 
C:\Users\stapi\AppData\Local\Temp\cch5AfG4.s:754    .text.dns_recv:0000000000000008 .L0 
C:\Users\stapi\AppData\Local\Temp\cch5AfG4.s:756    .text.dns_recv:0000000000000008 .L0 
C:\Users\stapi\AppData\Local\Temp\cch5AfG4.s:757    .text.dns_recv:0000000000000008 .L0 
C:\Users\stapi\AppData\Local\Temp\cch5AfG4.s:758    .text.dns_recv:0000000000000008 .L0 
C:\Users\stapi\AppData\Local\Temp\cch5AfG4.s:759    .text.dns_recv:0000000000000008 .L0 
C:\Users\stapi\AppData\Local\Temp\cch5AfG4.s:760    .text.dns_recv:0000000000000008 .L0 
C:\Users\stapi\AppData\Local\Temp\cch5AfG4.s:761    .text.dns_recv:0000000000000008 .L0 
C:\Users\stapi\AppData\Local\Temp\cch5AfG4.s:762    .text.dns_recv:0000000000000008 .L0 
C:\Users\stapi\AppData\Local\Temp\cch5AfG4.s:763    .text.dns_recv:0000000000000008 .L0 
C:\Users\stapi\AppData\Local\Temp\cch5AfG4.s:764    .text.dns_recv:0000000000000008 .L0 
C:\Users\stapi\AppData\Local\Temp\cch5AfG4.s:765    .text.dns_recv:0000000000000008 .L0 
C:\Users\stapi\AppData\Local\Temp\cch5AfG4.s:766    .text.dns_recv:0000000000000008 .L0 
C:\Users\stapi\AppData\Local\Temp\cch5AfG4.s:767    .text.dns_recv:0000000000000008 .L0 
C:\Users\stapi\AppData\Local\Temp\cch5AfG4.s:771    .text.dns_recv:000000000000000e .L0 
C:\Users\stapi\AppData\Local\Temp\cch5AfG4.s:772    .text.dns_recv:0000000000000010 .L0 
C:\Users\stapi\AppData\Local\Temp\cch5AfG4.s:774    .text.dns_recv:0000000000000010 .L0 
C:\Users\stapi\AppData\Local\Temp\cch5AfG4.s:776    .text.dns_recv:0000000000000012 .L0 
C:\Users\stapi\AppData\Local\Temp\cch5AfG4.s:779    .text.dns_recv:0000000000000018 .L0 
C:\Users\stapi\AppData\Local\Temp\cch5AfG4.s:780    .text.dns_recv:0000000000000018 .L0 
C:\Users\stapi\AppData\Local\Temp\cch5AfG4.s:791    .text.dns_recv:0000000000000028 .L0 
C:\Users\stapi\AppData\Local\Temp\cch5AfG4.s:793    .text.dns_recv:000000000000002a .L0 
C:\Users\stapi\AppData\Local\Temp\cch5AfG4.s:795    .text.dns_recv:000000000000002c .L0 
C:\Users\stapi\AppData\Local\Temp\cch5AfG4.s:797    .text.dns_recv:0000000000000030 .L0 
C:\Users\stapi\AppData\Local\Temp\cch5AfG4.s:798    .text.dns_recv:0000000000000030 .L0 
C:\Users\stapi\AppData\Local\Temp\cch5AfG4.s:804    .text.dns_recv:0000000000000042 .L0 
C:\Users\stapi\AppData\Local\Temp\cch5AfG4.s:805    .text.dns_recv:0000000000000042 .L0 
C:\Users\stapi\AppData\Local\Temp\cch5AfG4.s:808    .text.dns_recv:0000000000000046 .L0 
C:\Users\stapi\AppData\Local\Temp\cch5AfG4.s:812    .text.dns_recv:000000000000004c .L0 
C:\Users\stapi\AppData\Local\Temp\cch5AfG4.s:817    .text.dns_recv:000000000000004e .L0 
C:\Users\stapi\AppData\Local\Temp\cch5AfG4.s:821    .text.dns_recv:0000000000000056 .L0 
C:\Users\stapi\AppData\Local\Temp\cch5AfG4.s:822    .text.dns_recv:0000000000000056 .L0 
C:\Users\stapi\AppData\Local\Temp\cch5AfG4.s:823    .text.dns_recv:0000000000000056 .L0 
C:\Users\stapi\AppData\Local\Temp\cch5AfG4.s:825    .text.dns_recv:000000000000005a .L0 
C:\Users\stapi\AppData\Local\Temp\cch5AfG4.s:828    .text.dns_recv:0000000000000062 .L0 
C:\Users\stapi\AppData\Local\Temp\cch5AfG4.s:829    .text.dns_recv:0000000000000062 .L0 
C:\Users\stapi\AppData\Local\Temp\cch5AfG4.s:836    .text.dns_recv:0000000000000070 .L0 
C:\Users\stapi\AppData\Local\Temp\cch5AfG4.s:837    .text.dns_recv:0000000000000070 .L0 
C:\Users\stapi\AppData\Local\Temp\cch5AfG4.s:843    .text.dns_recv:000000000000007e .L0 
C:\Users\stapi\AppData\Local\Temp\cch5AfG4.s:844    .text.dns_recv:000000000000007e .L0 
C:\Users\stapi\AppData\Local\Temp\cch5AfG4.s:847    .text.dns_recv:0000000000000086 .L0 
C:\Users\stapi\AppData\Local\Temp\cch5AfG4.s:848    .text.dns_recv:0000000000000086 .L0 
C:\Users\stapi\AppData\Local\Temp\cch5AfG4.s:851    .text.dns_recv:000000000000008c .L0 
C:\Users\stapi\AppData\Local\Temp\cch5AfG4.s:852    .text.dns_recv:000000000000008c .L0 
C:\Users\stapi\AppData\Local\Temp\cch5AfG4.s:862    .text.dns_recv:00000000000000ac .L0 
C:\Users\stapi\AppData\Local\Temp\cch5AfG4.s:866    .text.dns_recv:00000000000000b6 .L0 
C:\Users\stapi\AppData\Local\Temp\cch5AfG4.s:867    .text.dns_recv:00000000000000b6 .L0 
C:\Users\stapi\AppData\Local\Temp\cch5AfG4.s:871    .text.dns_recv:00000000000000ba .L0 
C:\Users\stapi\AppData\Local\Temp\cch5AfG4.s:876    .text.dns_recv:00000000000000bc .L0 
C:\Users\stapi\AppData\Local\Temp\cch5AfG4.s:882    .text.dns_recv:00000000000000c0 .L0 
C:\Users\stapi\AppData\Local\Temp\cch5AfG4.s:887    .text.dns_recv:00000000000000c2 .L0 
C:\Users\stapi\AppData\Local\Temp\cch5AfG4.s:891    .text.dns_recv:00000000000000c4 .L0 
C:\Users\stapi\AppData\Local\Temp\cch5AfG4.s:898    .text.dns_recv:00000000000000ca .L0 
C:\Users\stapi\AppData\Local\Temp\cch5AfG4.s:899    .text.dns_recv:00000000000000ca .L0 
C:\Users\stapi\AppData\Local\Temp\cch5AfG4.s:900    .text.dns_recv:00000000000000ca .L0 
C:\Users\stapi\AppData\Local\Temp\cch5AfG4.s:905    .text.dns_recv:00000000000000d6 .L0 
C:\Users\stapi\AppData\Local\Temp\cch5AfG4.s:906    .text.dns_recv:00000000000000d6 .L0 
C:\Users\stapi\AppData\Local\Temp\cch5AfG4.s:908    .text.dns_recv:00000000000000da .L0 
C:\Users\stapi\AppData\Local\Temp\cch5AfG4.s:910    .text.dns_recv:00000000000000de .L0 
C:\Users\stapi\AppData\Local\Temp\cch5AfG4.s:911    .text.dns_recv:00000000000000de .L0 
C:\Users\stapi\AppData\Local\Temp\cch5AfG4.s:914    .text.dns_recv:00000000000000e0 .L0 
C:\Users\stapi\AppData\Local\Temp\cch5AfG4.s:916    .text.dns_recv:00000000000000e4 .L0 
C:\Users\stapi\AppData\Local\Temp\cch5AfG4.s:918    .text.dns_recv:00000000000000e8 .L0 
C:\Users\stapi\AppData\Local\Temp\cch5AfG4.s:921    .text.dns_recv:00000000000000ec .L0 
C:\Users\stapi\AppData\Local\Temp\cch5AfG4.s:922    .text.dns_recv:00000000000000ec .L0 
C:\Users\stapi\AppData\Local\Temp\cch5AfG4.s:927    .text.dns_recv:00000000000000f4 .L0 
C:\Users\stapi\AppData\Local\Temp\cch5AfG4.s:929    .text.dns_recv:00000000000000f8 .L0 
C:\Users\stapi\AppData\Local\Temp\cch5AfG4.s:930    .text.dns_recv:00000000000000f8 .L0 
C:\Users\stapi\AppData\Local\Temp\cch5AfG4.s:933    .text.dns_recv:00000000000000fc .L0 
C:\Users\stapi\AppData\Local\Temp\cch5AfG4.s:936    .text.dns_recv:0000000000000100 .L0 
C:\Users\stapi\AppData\Local\Temp\cch5AfG4.s:937    .text.dns_recv:0000000000000100 .L0 
C:\Users\stapi\AppData\Local\Temp\cch5AfG4.s:940    .text.dns_recv:0000000000000108 .L0 
C:\Users\stapi\AppData\Local\Temp\cch5AfG4.s:941    .text.dns_recv:0000000000000108 .L0 
C:\Users\stapi\AppData\Local\Temp\cch5AfG4.s:943    .text.dns_recv:000000000000010c .L0 
C:\Users\stapi\AppData\Local\Temp\cch5AfG4.s:944    .text.dns_recv:000000000000010c .L0 
C:\Users\stapi\AppData\Local\Temp\cch5AfG4.s:946    .text.dns_recv:000000000000010e .L0 
C:\Users\stapi\AppData\Local\Temp\cch5AfG4.s:947    .text.dns_recv:000000000000010e .L0 
C:\Users\stapi\AppData\Local\Temp\cch5AfG4.s:951    .text.dns_recv:0000000000000118 .L0 
C:\Users\stapi\AppData\Local\Temp\cch5AfG4.s:952    .text.dns_recv:0000000000000118 .L0 
C:\Users\stapi\AppData\Local\Temp\cch5AfG4.s:958    .text.dns_recv:0000000000000120 .L0 
C:\Users\stapi\AppData\Local\Temp\cch5AfG4.s:959    .text.dns_recv:0000000000000120 .L0 
C:\Users\stapi\AppData\Local\Temp\cch5AfG4.s:961    .text.dns_recv:0000000000000124 .L0 
C:\Users\stapi\AppData\Local\Temp\cch5AfG4.s:962    .text.dns_recv:0000000000000124 .L0 
C:\Users\stapi\AppData\Local\Temp\cch5AfG4.s:969    .text.dns_recv:0000000000000134 .L0 
C:\Users\stapi\AppData\Local\Temp\cch5AfG4.s:972    .text.dns_recv:000000000000013a .L0 
C:\Users\stapi\AppData\Local\Temp\cch5AfG4.s:973    .text.dns_recv:000000000000013a .L0 
C:\Users\stapi\AppData\Local\Temp\cch5AfG4.s:977    .text.dns_recv:0000000000000146 .L0 
C:\Users\stapi\AppData\Local\Temp\cch5AfG4.s:980    .text.dns_recv:000000000000014e .L0 
C:\Users\stapi\AppData\Local\Temp\cch5AfG4.s:981    .text.dns_recv:000000000000014e .L0 
C:\Users\stapi\AppData\Local\Temp\cch5AfG4.s:985    .text.dns_recv:0000000000000154 .L0 
C:\Users\stapi\AppData\Local\Temp\cch5AfG4.s:986    .text.dns_recv:0000000000000154 .L0 
C:\Users\stapi\AppData\Local\Temp\cch5AfG4.s:987    .text.dns_recv:0000000000000154 .L0 
C:\Users\stapi\AppData\Local\Temp\cch5AfG4.s:993    .text.dns_recv:000000000000015e .L0 
C:\Users\stapi\AppData\Local\Temp\cch5AfG4.s:997    .text.dns_recv:0000000000000160 .L0 
C:\Users\stapi\AppData\Local\Temp\cch5AfG4.s:1002   .text.dns_recv:0000000000000162 .L0 
C:\Users\stapi\AppData\Local\Temp\cch5AfG4.s:1004   .text.dns_recv:0000000000000166 .L0 
C:\Users\stapi\AppData\Local\Temp\cch5AfG4.s:1008   .text.dns_recv:000000000000016a .L0 
C:\Users\stapi\AppData\Local\Temp\cch5AfG4.s:1010   .text.dns_recv:000000000000016e .L0 
C:\Users\stapi\AppData\Local\Temp\cch5AfG4.s:1012   .text.dns_recv:0000000000000172 .L0 
C:\Users\stapi\AppData\Local\Temp\cch5AfG4.s:1016   .text.dns_recv:0000000000000176 .L0 
C:\Users\stapi\AppData\Local\Temp\cch5AfG4.s:1018   .text.dns_recv:000000000000017a .L0 
C:\Users\stapi\AppData\Local\Temp\cch5AfG4.s:1025   .text.dns_recv:0000000000000182 .L0 
C:\Users\stapi\AppData\Local\Temp\cch5AfG4.s:1026   .text.dns_recv:0000000000000182 .L0 
C:\Users\stapi\AppData\Local\Temp\cch5AfG4.s:1027   .text.dns_recv:0000000000000182 .L0 
C:\Users\stapi\AppData\Local\Temp\cch5AfG4.s:1036   .text.dns_recv:0000000000000198 .L0 
C:\Users\stapi\AppData\Local\Temp\cch5AfG4.s:1037   .text.dns_recv:0000000000000198 .L0 
C:\Users\stapi\AppData\Local\Temp\cch5AfG4.s:1039   .text.dns_recv:000000000000019c .L0 
C:\Users\stapi\AppData\Local\Temp\cch5AfG4.s:1042   .text.dns_recv:00000000000001a2 .L0 
C:\Users\stapi\AppData\Local\Temp\cch5AfG4.s:1043   .text.dns_recv:00000000000001a2 .L0 
C:\Users\stapi\AppData\Local\Temp\cch5AfG4.s:1045   .text.dns_recv:00000000000001a6 .L0 
C:\Users\stapi\AppData\Local\Temp\cch5AfG4.s:1047   .text.dns_recv:00000000000001aa .L0 
C:\Users\stapi\AppData\Local\Temp\cch5AfG4.s:1048   .text.dns_recv:00000000000001aa .L0 
C:\Users\stapi\AppData\Local\Temp\cch5AfG4.s:1050   .text.dns_recv:00000000000001ae .L0 
C:\Users\stapi\AppData\Local\Temp\cch5AfG4.s:1053   .text.dns_recv:00000000000001b0 .L0 
C:\Users\stapi\AppData\Local\Temp\cch5AfG4.s:1055   .text.dns_recv:00000000000001b4 .L0 
C:\Users\stapi\AppData\Local\Temp\cch5AfG4.s:1056   .text.dns_recv:00000000000001b4 .L0 
C:\Users\stapi\AppData\Local\Temp\cch5AfG4.s:1059   .text.dns_recv:00000000000001b8 .L0 
C:\Users\stapi\AppData\Local\Temp\cch5AfG4.s:1060   .text.dns_recv:00000000000001b8 .L0 
C:\Users\stapi\AppData\Local\Temp\cch5AfG4.s:1065   .text.dns_recv:00000000000001c4 .L0 
C:\Users\stapi\AppData\Local\Temp\cch5AfG4.s:1066   .text.dns_recv:00000000000001c4 .L0 
C:\Users\stapi\AppData\Local\Temp\cch5AfG4.s:1068   .text.dns_recv:00000000000001c8 .L0 
C:\Users\stapi\AppData\Local\Temp\cch5AfG4.s:1069   .text.dns_recv:00000000000001c8 .L0 
C:\Users\stapi\AppData\Local\Temp\cch5AfG4.s:1073   .text.dns_recv:00000000000001ca .L0 
C:\Users\stapi\AppData\Local\Temp\cch5AfG4.s:1074   .text.dns_recv:00000000000001ca .L0 
C:\Users\stapi\AppData\Local\Temp\cch5AfG4.s:1076   .text.dns_recv:00000000000001ce .L0 
C:\Users\stapi\AppData\Local\Temp\cch5AfG4.s:1077   .text.dns_recv:00000000000001ce .L0 
C:\Users\stapi\AppData\Local\Temp\cch5AfG4.s:1083   .text.dns_recv:00000000000001d6 .L0 
C:\Users\stapi\AppData\Local\Temp\cch5AfG4.s:1084   .text.dns_recv:00000000000001d6 .L0 
C:\Users\stapi\AppData\Local\Temp\cch5AfG4.s:1086   .text.dns_recv:00000000000001da .L0 
C:\Users\stapi\AppData\Local\Temp\cch5AfG4.s:1087   .text.dns_recv:00000000000001da .L0 
C:\Users\stapi\AppData\Local\Temp\cch5AfG4.s:1094   .text.dns_recv:00000000000001ea .L0 
C:\Users\stapi\AppData\Local\Temp\cch5AfG4.s:1097   .text.dns_recv:00000000000001f0 .L0 
C:\Users\stapi\AppData\Local\Temp\cch5AfG4.s:1098   .text.dns_recv:00000000000001f0 .L0 
C:\Users\stapi\AppData\Local\Temp\cch5AfG4.s:1101   .text.dns_recv:00000000000001f6 .L0 
C:\Users\stapi\AppData\Local\Temp\cch5AfG4.s:1102   .text.dns_recv:00000000000001f6 .L0 
C:\Users\stapi\AppData\Local\Temp\cch5AfG4.s:1106   .text.dns_recv:00000000000001fe .L0 
C:\Users\stapi\AppData\Local\Temp\cch5AfG4.s:1107   .text.dns_recv:00000000000001fe .L0 
C:\Users\stapi\AppData\Local\Temp\cch5AfG4.s:1109   .text.dns_recv:0000000000000202 .L0 
C:\Users\stapi\AppData\Local\Temp\cch5AfG4.s:1111   .text.dns_recv:0000000000000206 .L0 
C:\Users\stapi\AppData\Local\Temp\cch5AfG4.s:1113   .text.dns_recv:000000000000020a .L0 
C:\Users\stapi\AppData\Local\Temp\cch5AfG4.s:1114   .text.dns_recv:000000000000020a .L0 
C:\Users\stapi\AppData\Local\Temp\cch5AfG4.s:1117   .text.dns_recv:0000000000000212 .L0 
C:\Users\stapi\AppData\Local\Temp\cch5AfG4.s:1121   .text.dns_recv:000000000000021a .L0 
C:\Users\stapi\AppData\Local\Temp\cch5AfG4.s:1122   .text.dns_recv:000000000000021a .L0 
C:\Users\stapi\AppData\Local\Temp\cch5AfG4.s:1123   .text.dns_recv:000000000000021a .L0 
C:\Users\stapi\AppData\Local\Temp\cch5AfG4.s:1130   .text.dns_recv:000000000000022a .L0 
C:\Users\stapi\AppData\Local\Temp\cch5AfG4.s:1133   .text.dns_recv:0000000000000230 .L0 
C:\Users\stapi\AppData\Local\Temp\cch5AfG4.s:1141   .text.dns_recv:0000000000000244 .L0 
C:\Users\stapi\AppData\Local\Temp\cch5AfG4.s:1145   .text.dns_recv:0000000000000246 .L0 
C:\Users\stapi\AppData\Local\Temp\cch5AfG4.s:1150   .text.dns_recv:0000000000000248 .L0 
C:\Users\stapi\AppData\Local\Temp\cch5AfG4.s:1152   .text.dns_recv:000000000000024a .L0 
C:\Users\stapi\AppData\Local\Temp\cch5AfG4.s:1155   .text.dns_recv:0000000000000252 .L0 
C:\Users\stapi\AppData\Local\Temp\cch5AfG4.s:1161   .text.dns_recv:000000000000025c .L0 
C:\Users\stapi\AppData\Local\Temp\cch5AfG4.s:1162   .text.dns_recv:000000000000025c .L0 
C:\Users\stapi\AppData\Local\Temp\cch5AfG4.s:1163   .text.dns_recv:000000000000025c .L0 
C:\Users\stapi\AppData\Local\Temp\cch5AfG4.s:1166   .text.dns_recv:0000000000000264 .L0 
C:\Users\stapi\AppData\Local\Temp\cch5AfG4.s:1169   .text.dns_recv:0000000000000268 .L0 
C:\Users\stapi\AppData\Local\Temp\cch5AfG4.s:1171   .text.dns_recv:000000000000026c .L0 
C:\Users\stapi\AppData\Local\Temp\cch5AfG4.s:1173   .text.dns_recv:000000000000026e .L0 
C:\Users\stapi\AppData\Local\Temp\cch5AfG4.s:1175   .text.dns_recv:0000000000000272 .L0 
C:\Users\stapi\AppData\Local\Temp\cch5AfG4.s:1176   .text.dns_recv:0000000000000272 .L0 
C:\Users\stapi\AppData\Local\Temp\cch5AfG4.s:1177   .text.dns_recv:0000000000000272 .L0 
C:\Users\stapi\AppData\Local\Temp\cch5AfG4.s:1178   .text.dns_recv:0000000000000272 .L0 
C:\Users\stapi\AppData\Local\Temp\cch5AfG4.s:1179   .text.dns_recv:0000000000000272 .L0 
C:\Users\stapi\AppData\Local\Temp\cch5AfG4.s:1180   .text.dns_recv:0000000000000272 .L0 
C:\Users\stapi\AppData\Local\Temp\cch5AfG4.s:1185   .text.dns_recv:000000000000027e .L0 
C:\Users\stapi\AppData\Local\Temp\cch5AfG4.s:1186   .text.dns_recv:000000000000027e .L0 
C:\Users\stapi\AppData\Local\Temp\cch5AfG4.s:1189   .text.dns_recv:0000000000000282 .L0 
C:\Users\stapi\AppData\Local\Temp\cch5AfG4.s:1190   .text.dns_recv:0000000000000282 .L0 
C:\Users\stapi\AppData\Local\Temp\cch5AfG4.s:1193   .text.dns_recv:000000000000028a .L0 
C:\Users\stapi\AppData\Local\Temp\cch5AfG4.s:1194   .text.dns_recv:000000000000028a .L0 
C:\Users\stapi\AppData\Local\Temp\cch5AfG4.s:1199   .text.dns_recv:000000000000028e .L0 
C:\Users\stapi\AppData\Local\Temp\cch5AfG4.s:1207   .text.dns_recv:0000000000000290 .L0 
C:\Users\stapi\AppData\Local\Temp\cch5AfG4.s:1211   .text.dns_recv:0000000000000296 .L0 
C:\Users\stapi\AppData\Local\Temp\cch5AfG4.s:1212   .text.dns_recv:0000000000000296 .L0 
C:\Users\stapi\AppData\Local\Temp\cch5AfG4.s:1215   .text.dns_recv:000000000000029e .L0 
C:\Users\stapi\AppData\Local\Temp\cch5AfG4.s:1216   .text.dns_recv:000000000000029e .L0 
C:\Users\stapi\AppData\Local\Temp\cch5AfG4.s:1219   .text.dns_recv:00000000000002a2 .L0 
C:\Users\stapi\AppData\Local\Temp\cch5AfG4.s:1220   .text.dns_recv:00000000000002a2 .L0 
C:\Users\stapi\AppData\Local\Temp\cch5AfG4.s:1222   .text.dns_recv:00000000000002a6 .L0 
C:\Users\stapi\AppData\Local\Temp\cch5AfG4.s:1233   .text.dns_recv:00000000000002ba .L0 
C:\Users\stapi\AppData\Local\Temp\cch5AfG4.s:1234   .text.dns_recv:00000000000002ba .L0 
C:\Users\stapi\AppData\Local\Temp\cch5AfG4.s:1244   .text.dns_recv:00000000000002d0 .L0 
C:\Users\stapi\AppData\Local\Temp\cch5AfG4.s:1246   .text.dns_recv:00000000000002d4 .L0 
C:\Users\stapi\AppData\Local\Temp\cch5AfG4.s:1247   .text.dns_recv:00000000000002d4 .L0 
C:\Users\stapi\AppData\Local\Temp\cch5AfG4.s:1249   .text.dns_recv:00000000000002d8 .L0 
C:\Users\stapi\AppData\Local\Temp\cch5AfG4.s:1250   .text.dns_recv:00000000000002d8 .L0 
C:\Users\stapi\AppData\Local\Temp\cch5AfG4.s:1253   .text.dns_recv:00000000000002da .L0 
C:\Users\stapi\AppData\Local\Temp\cch5AfG4.s:1256   .text.dns_recv:00000000000002dc .L0 
C:\Users\stapi\AppData\Local\Temp\cch5AfG4.s:1259   .text.dns_recv:00000000000002e0 .L0 
C:\Users\stapi\AppData\Local\Temp\cch5AfG4.s:1260   .text.dns_recv:00000000000002e0 .L0 
C:\Users\stapi\AppData\Local\Temp\cch5AfG4.s:1267   .text.dns_recv:00000000000002e2 .L0 
C:\Users\stapi\AppData\Local\Temp\cch5AfG4.s:1270   .text.dns_recv:00000000000002e2 .L0 
C:\Users\stapi\AppData\Local\Temp\cch5AfG4.s:1271   .text.dns_recv:00000000000002e2 .L0 
C:\Users\stapi\AppData\Local\Temp\cch5AfG4.s:1272   .text.dns_recv:00000000000002e2 .L0 
C:\Users\stapi\AppData\Local\Temp\cch5AfG4.s:1273   .text.dns_recv:00000000000002e2 .L0 
C:\Users\stapi\AppData\Local\Temp\cch5AfG4.s:1274   .text.dns_recv:00000000000002e2 .L0 
C:\Users\stapi\AppData\Local\Temp\cch5AfG4.s:1278   .text.dns_recv:00000000000002ec .L0 
C:\Users\stapi\AppData\Local\Temp\cch5AfG4.s:1285   .text.dns_recv:00000000000002f2 .L0 
C:\Users\stapi\AppData\Local\Temp\cch5AfG4.s:1286   .text.dns_recv:00000000000002f2 .L0 
C:\Users\stapi\AppData\Local\Temp\cch5AfG4.s:1290   .text.dns_recv:00000000000002fc .L0 
C:\Users\stapi\AppData\Local\Temp\cch5AfG4.s:1295   .text.dns_recv:0000000000000308 .L0 
C:\Users\stapi\AppData\Local\Temp\cch5AfG4.s:1296   .text.dns_recv:0000000000000308 .L0 
C:\Users\stapi\AppData\Local\Temp\cch5AfG4.s:1303   .text.dns_recv:0000000000000314 .L0 
C:\Users\stapi\AppData\Local\Temp\cch5AfG4.s:1304   .text.dns_recv:0000000000000314 .L0 
C:\Users\stapi\AppData\Local\Temp\cch5AfG4.s:1305   .text.dns_recv:0000000000000316 .L0 
C:\Users\stapi\AppData\Local\Temp\cch5AfG4.s:1306   .text.dns_recv:0000000000000316 .L0 
C:\Users\stapi\AppData\Local\Temp\cch5AfG4.s:1308   .text.dns_recv:000000000000031e .L0 
C:\Users\stapi\AppData\Local\Temp\cch5AfG4.s:1309   .text.dns_recv:000000000000031e .L0 
C:\Users\stapi\AppData\Local\Temp\cch5AfG4.s:1310   .text.dns_recv:000000000000031e .L0 
C:\Users\stapi\AppData\Local\Temp\cch5AfG4.s:1311   .text.dns_recv:000000000000031e .L0 
C:\Users\stapi\AppData\Local\Temp\cch5AfG4.s:1312   .text.dns_recv:000000000000031e .L0 
C:\Users\stapi\AppData\Local\Temp\cch5AfG4.s:1313   .text.dns_recv:000000000000031e .L0 
C:\Users\stapi\AppData\Local\Temp\cch5AfG4.s:1314   .text.dns_recv:000000000000031e .L0 
C:\Users\stapi\AppData\Local\Temp\cch5AfG4.s:1315   .text.dns_recv:000000000000031e .L0 
C:\Users\stapi\AppData\Local\Temp\cch5AfG4.s:1316   .text.dns_recv:000000000000031e .L0 
C:\Users\stapi\AppData\Local\Temp\cch5AfG4.s:1317   .text.dns_recv:000000000000031e .L0 
C:\Users\stapi\AppData\Local\Temp\cch5AfG4.s:1318   .text.dns_recv:000000000000031e .L0 
C:\Users\stapi\AppData\Local\Temp\cch5AfG4.s:1319   .text.dns_recv:000000000000031e .L0 
C:\Users\stapi\AppData\Local\Temp\cch5AfG4.s:1320   .text.dns_recv:000000000000031e .L0 
C:\Users\stapi\AppData\Local\Temp\cch5AfG4.s:1321   .text.dns_recv:000000000000031e .L0 
C:\Users\stapi\AppData\Local\Temp\cch5AfG4.s:1324   .text.dns_recv:000000000000031e .L0 
C:\Users\stapi\AppData\Local\Temp\cch5AfG4.s:1331   .text.dns_recv:000000000000031e .L0 
C:\Users\stapi\AppData\Local\Temp\cch5AfG4.s:1337   .text.dns_recv:0000000000000324 .L0 
C:\Users\stapi\AppData\Local\Temp\cch5AfG4.s:1340   .text.dns_recv:0000000000000324 .L0 
C:\Users\stapi\AppData\Local\Temp\cch5AfG4.s:1341   .text.dns_recv:0000000000000324 .L0 
C:\Users\stapi\AppData\Local\Temp\cch5AfG4.s:1342   .text.dns_recv:0000000000000324 .L0 
C:\Users\stapi\AppData\Local\Temp\cch5AfG4.s:1343   .text.dns_recv:0000000000000324 .L0 
C:\Users\stapi\AppData\Local\Temp\cch5AfG4.s:1346   .text.dns_recv:000000000000032c .L0 
C:\Users\stapi\AppData\Local\Temp\cch5AfG4.s:1352   .text.dns_recv:0000000000000336 .L0 
C:\Users\stapi\AppData\Local\Temp\cch5AfG4.s:1353   .text.dns_recv:0000000000000336 .L0 
C:\Users\stapi\AppData\Local\Temp\cch5AfG4.s:1357   .text.dns_recv:0000000000000340 .L0 
C:\Users\stapi\AppData\Local\Temp\cch5AfG4.s:1370   .text.dns_recv:0000000000000346 .L0 
C:\Users\stapi\AppData\Local\Temp\cch5AfG4.s:1371   .text.dns_recv:0000000000000346 .L0 
C:\Users\stapi\AppData\Local\Temp\cch5AfG4.s:1374   .text.dns_recv:000000000000034e .L0 
C:\Users\stapi\AppData\Local\Temp\cch5AfG4.s:1376   .text.dns_recv:0000000000000350 .L0 
C:\Users\stapi\AppData\Local\Temp\cch5AfG4.s:1378   .text.dns_recv:0000000000000354 .L0 
C:\Users\stapi\AppData\Local\Temp\cch5AfG4.s:1379   .text.dns_recv:0000000000000354 .L0 
C:\Users\stapi\AppData\Local\Temp\cch5AfG4.s:1381   .text.dns_recv:0000000000000358 .L0 
C:\Users\stapi\AppData\Local\Temp\cch5AfG4.s:1385   .text.dns_recv:000000000000035e .L0 
C:\Users\stapi\AppData\Local\Temp\cch5AfG4.s:1388   .text.dns_recv:0000000000000366 .L0 
C:\Users\stapi\AppData\Local\Temp\cch5AfG4.s:1392   .text.dns_recv:000000000000036c .L0 
C:\Users\stapi\AppData\Local\Temp\cch5AfG4.s:1397   .text.dns_recv:000000000000036e .L0 
C:\Users\stapi\AppData\Local\Temp\cch5AfG4.s:1398   .text.dns_recv:000000000000036e .L0 
C:\Users\stapi\AppData\Local\Temp\cch5AfG4.s:1399   .text.dns_recv:000000000000036e .L0 
C:\Users\stapi\AppData\Local\Temp\cch5AfG4.s:1404   .text.dns_recv:0000000000000378 .L0 
C:\Users\stapi\AppData\Local\Temp\cch5AfG4.s:1405   .text.dns_recv:000000000000037a .L0 
C:\Users\stapi\AppData\Local\Temp\cch5AfG4.s:1412   .text.dns_init:0000000000000000 dns_init
C:\Users\stapi\AppData\Local\Temp\cch5AfG4.s:1415   .text.dns_init:0000000000000000 .L0 
C:\Users\stapi\AppData\Local\Temp\cch5AfG4.s:1416   .text.dns_init:0000000000000000 .L0 
C:\Users\stapi\AppData\Local\Temp\cch5AfG4.s:1417   .text.dns_init:0000000000000000 .L0 
C:\Users\stapi\AppData\Local\Temp\cch5AfG4.s:1418   .text.dns_init:0000000000000000 .L0 
C:\Users\stapi\AppData\Local\Temp\cch5AfG4.s:1419   .text.dns_init:0000000000000000 .L0 
C:\Users\stapi\AppData\Local\Temp\cch5AfG4.s:1420   .text.dns_init:0000000000000000 .L0 
C:\Users\stapi\AppData\Local\Temp\cch5AfG4.s:1421   .text.dns_init:0000000000000000 .L0 
C:\Users\stapi\AppData\Local\Temp\cch5AfG4.s:1422   .text.dns_init:0000000000000000 .L0 
C:\Users\stapi\AppData\Local\Temp\cch5AfG4.s:1423   .text.dns_init:0000000000000000 .L0 
C:\Users\stapi\AppData\Local\Temp\cch5AfG4.s:1424   .text.dns_init:0000000000000000 .L0 
C:\Users\stapi\AppData\Local\Temp\cch5AfG4.s:1425   .text.dns_init:0000000000000000 .L0 
C:\Users\stapi\AppData\Local\Temp\cch5AfG4.s:1426   .text.dns_init:0000000000000000 .L0 
C:\Users\stapi\AppData\Local\Temp\cch5AfG4.s:1427   .text.dns_init:0000000000000002 .L0 
C:\Users\stapi\AppData\Local\Temp\cch5AfG4.s:1434   .text.dns_setserver:0000000000000000 dns_setserver
C:\Users\stapi\AppData\Local\Temp\cch5AfG4.s:1437   .text.dns_setserver:0000000000000000 .L0 
C:\Users\stapi\AppData\Local\Temp\cch5AfG4.s:1439   .text.dns_setserver:0000000000000000 .L0 
C:\Users\stapi\AppData\Local\Temp\cch5AfG4.s:1440   .text.dns_setserver:0000000000000000 .L0 
C:\Users\stapi\AppData\Local\Temp\cch5AfG4.s:1441   .text.dns_setserver:0000000000000000 .L0 
C:\Users\stapi\AppData\Local\Temp\cch5AfG4.s:1444   .text.dns_setserver:0000000000000006 .L0 
C:\Users\stapi\AppData\Local\Temp\cch5AfG4.s:1449   .text.dns_setserver:0000000000000010 .L0 
C:\Users\stapi\AppData\Local\Temp\cch5AfG4.s:1451   .text.dns_setserver:0000000000000012 .L0 
C:\Users\stapi\AppData\Local\Temp\cch5AfG4.s:1453   .text.dns_setserver:0000000000000014 .L0 
C:\Users\stapi\AppData\Local\Temp\cch5AfG4.s:1454   .text.dns_setserver:0000000000000014 .L0 
C:\Users\stapi\AppData\Local\Temp\cch5AfG4.s:1457   .text.dns_setserver:0000000000000016 .L0 
C:\Users\stapi\AppData\Local\Temp\cch5AfG4.s:1460   .text.dns_setserver:0000000000000018 .L0 
C:\Users\stapi\AppData\Local\Temp\cch5AfG4.s:1463   .text.dns_setserver:000000000000001a .L0 
C:\Users\stapi\AppData\Local\Temp\cch5AfG4.s:1464   .text.dns_setserver:000000000000001a .L0 
C:\Users\stapi\AppData\Local\Temp\cch5AfG4.s:1467   .text.dns_setserver:0000000000000024 .L0 
C:\Users\stapi\AppData\Local\Temp\cch5AfG4.s:1474   .text.dns_getserver:0000000000000000 dns_getserver
C:\Users\stapi\AppData\Local\Temp\cch5AfG4.s:1477   .text.dns_getserver:0000000000000000 .L0 
C:\Users\stapi\AppData\Local\Temp\cch5AfG4.s:1479   .text.dns_getserver:0000000000000000 .L0 
C:\Users\stapi\AppData\Local\Temp\cch5AfG4.s:1480   .text.dns_getserver:0000000000000000 .L0 
C:\Users\stapi\AppData\Local\Temp\cch5AfG4.s:1481   .text.dns_getserver:0000000000000000 .L0 
C:\Users\stapi\AppData\Local\Temp\cch5AfG4.s:1484   .text.dns_getserver:0000000000000006 .L0 
C:\Users\stapi\AppData\Local\Temp\cch5AfG4.s:1485   .text.dns_getserver:0000000000000006 .L0 
C:\Users\stapi\AppData\Local\Temp\cch5AfG4.s:1493   .text.dns_getserver:0000000000000014 .L0 
C:\Users\stapi\AppData\Local\Temp\cch5AfG4.s:1497   .text.dns_getserver:000000000000001c .L0 
C:\Users\stapi\AppData\Local\Temp\cch5AfG4.s:1498   .text.dns_getserver:000000000000001e .L0 
C:\Users\stapi\AppData\Local\Temp\cch5AfG4.s:1505   .text.dns_tmr:0000000000000000 dns_tmr
C:\Users\stapi\AppData\Local\Temp\cch5AfG4.s:1508   .text.dns_tmr:0000000000000000 .L0 
C:\Users\stapi\AppData\Local\Temp\cch5AfG4.s:1509   .text.dns_tmr:0000000000000000 .L0 
C:\Users\stapi\AppData\Local\Temp\cch5AfG4.s:1510   .text.dns_tmr:0000000000000008 .L0 
C:\Users\stapi\AppData\Local\Temp\cch5AfG4.s:1511   .text.dns_tmr:0000000000000008 .L0 
C:\Users\stapi\AppData\Local\Temp\cch5AfG4.s:1513   .text.dns_tmr:0000000000000008 .L0 
C:\Users\stapi\AppData\Local\Temp\cch5AfG4.s:1516   .text.dns_tmr:0000000000000008 .L0 
C:\Users\stapi\AppData\Local\Temp\cch5AfG4.s:1517   .text.dns_tmr:0000000000000008 .L0 
C:\Users\stapi\AppData\Local\Temp\cch5AfG4.s:1519   .text.dns_tmr:0000000000000008 .L0 
C:\Users\stapi\AppData\Local\Temp\cch5AfG4.s:1520   .text.dns_tmr:0000000000000008 .L0 
C:\Users\stapi\AppData\Local\Temp\cch5AfG4.s:1521   .text.dns_tmr:0000000000000008 .L0 
C:\Users\stapi\AppData\Local\Temp\cch5AfG4.s:1525   .text.dns_tmr:0000000000000012 .L0 
C:\Users\stapi\AppData\Local\Temp\cch5AfG4.s:1526   .text.dns_tmr:0000000000000012 .L0 
C:\Users\stapi\AppData\Local\Temp\cch5AfG4.s:1527   .text.dns_tmr:0000000000000012 .L0 
C:\Users\stapi\AppData\Local\Temp\cch5AfG4.s:1531   .text.dns_tmr:000000000000001c .L0 
C:\Users\stapi\AppData\Local\Temp\cch5AfG4.s:1532   .text.dns_tmr:000000000000001c .L0 
C:\Users\stapi\AppData\Local\Temp\cch5AfG4.s:1533   .text.dns_tmr:000000000000001c .L0 
C:\Users\stapi\AppData\Local\Temp\cch5AfG4.s:1537   .text.dns_tmr:0000000000000026 .L0 
C:\Users\stapi\AppData\Local\Temp\cch5AfG4.s:1538   .text.dns_tmr:0000000000000026 .L0 
C:\Users\stapi\AppData\Local\Temp\cch5AfG4.s:1539   .text.dns_tmr:0000000000000026 .L0 
C:\Users\stapi\AppData\Local\Temp\cch5AfG4.s:1543   .text.dns_tmr:0000000000000030 .L0 
C:\Users\stapi\AppData\Local\Temp\cch5AfG4.s:1546   .text.dns_tmr:0000000000000030 .L0 
C:\Users\stapi\AppData\Local\Temp\cch5AfG4.s:1547   .text.dns_tmr:0000000000000030 .L0 
C:\Users\stapi\AppData\Local\Temp\cch5AfG4.s:1548   .text.dns_tmr:0000000000000038 .L0 
C:\Users\stapi\AppData\Local\Temp\cch5AfG4.s:1549   .text.dns_tmr:0000000000000038 .L0 
C:\Users\stapi\AppData\Local\Temp\cch5AfG4.s:1550   .text.dns_tmr:0000000000000038 .L0 
C:\Users\stapi\AppData\Local\Temp\cch5AfG4.s:1561   .text.dns_gethostbyname_addrtype:0000000000000000 dns_gethostbyname_addrtype
C:\Users\stapi\AppData\Local\Temp\cch5AfG4.s:1564   .text.dns_gethostbyname_addrtype:0000000000000000 .L0 
C:\Users\stapi\AppData\Local\Temp\cch5AfG4.s:1566   .text.dns_gethostbyname_addrtype:0000000000000000 .L0 
C:\Users\stapi\AppData\Local\Temp\cch5AfG4.s:1567   .text.dns_gethostbyname_addrtype:0000000000000000 .L0 
C:\Users\stapi\AppData\Local\Temp\cch5AfG4.s:1568   .text.dns_gethostbyname_addrtype:0000000000000000 .L0 
C:\Users\stapi\AppData\Local\Temp\cch5AfG4.s:1569   .text.dns_gethostbyname_addrtype:0000000000000000 .L0 
C:\Users\stapi\AppData\Local\Temp\cch5AfG4.s:1571   .text.dns_gethostbyname_addrtype:0000000000000004 .L0 
C:\Users\stapi\AppData\Local\Temp\cch5AfG4.s:1572   .text.dns_gethostbyname_addrtype:000000000000000c .L0 
C:\Users\stapi\AppData\Local\Temp\cch5AfG4.s:1573   .text.dns_gethostbyname_addrtype:000000000000000c .L0 
C:\Users\stapi\AppData\Local\Temp\cch5AfG4.s:1574   .text.dns_gethostbyname_addrtype:000000000000000c .L0 
C:\Users\stapi\AppData\Local\Temp\cch5AfG4.s:1575   .text.dns_gethostbyname_addrtype:000000000000000c .L0 
C:\Users\stapi\AppData\Local\Temp\cch5AfG4.s:1576   .text.dns_gethostbyname_addrtype:000000000000000c .L0 
C:\Users\stapi\AppData\Local\Temp\cch5AfG4.s:1577   .text.dns_gethostbyname_addrtype:000000000000000c .L0 
C:\Users\stapi\AppData\Local\Temp\cch5AfG4.s:1578   .text.dns_gethostbyname_addrtype:000000000000000c .L0 
C:\Users\stapi\AppData\Local\Temp\cch5AfG4.s:1579   .text.dns_gethostbyname_addrtype:000000000000000c .L0 
C:\Users\stapi\AppData\Local\Temp\cch5AfG4.s:1580   .text.dns_gethostbyname_addrtype:000000000000000c .L0 
C:\Users\stapi\AppData\Local\Temp\cch5AfG4.s:1581   .text.dns_gethostbyname_addrtype:000000000000000c .L0 
C:\Users\stapi\AppData\Local\Temp\cch5AfG4.s:1582   .text.dns_gethostbyname_addrtype:000000000000000c .L0 
C:\Users\stapi\AppData\Local\Temp\cch5AfG4.s:1583   .text.dns_gethostbyname_addrtype:000000000000000c .L0 
C:\Users\stapi\AppData\Local\Temp\cch5AfG4.s:1584   .text.dns_gethostbyname_addrtype:000000000000000c .L0 
C:\Users\stapi\AppData\Local\Temp\cch5AfG4.s:1585   .text.dns_gethostbyname_addrtype:000000000000000c .L0 
C:\Users\stapi\AppData\Local\Temp\cch5AfG4.s:1588   .text.dns_gethostbyname_addrtype:000000000000000e .L0 
C:\Users\stapi\AppData\Local\Temp\cch5AfG4.s:1590   .text.dns_gethostbyname_addrtype:0000000000000010 .L0 
C:\Users\stapi\AppData\Local\Temp\cch5AfG4.s:1592   .text.dns_gethostbyname_addrtype:0000000000000012 .L0 
C:\Users\stapi\AppData\Local\Temp\cch5AfG4.s:1599   .text.dns_gethostbyname_addrtype:000000000000001e .L0 
C:\Users\stapi\AppData\Local\Temp\cch5AfG4.s:1600   .text.dns_gethostbyname_addrtype:000000000000001e .L0 
C:\Users\stapi\AppData\Local\Temp\cch5AfG4.s:1603   .text.dns_gethostbyname_addrtype:0000000000000026 .L0 
C:\Users\stapi\AppData\Local\Temp\cch5AfG4.s:1605   .text.dns_gethostbyname_addrtype:000000000000002a .L0 
C:\Users\stapi\AppData\Local\Temp\cch5AfG4.s:1608   .text.dns_gethostbyname_addrtype:000000000000002c .L0 
C:\Users\stapi\AppData\Local\Temp\cch5AfG4.s:1609   .text.dns_gethostbyname_addrtype:000000000000002c .L0 
C:\Users\stapi\AppData\Local\Temp\cch5AfG4.s:1611   .text.dns_gethostbyname_addrtype:000000000000002e .L0 
C:\Users\stapi\AppData\Local\Temp\cch5AfG4.s:1613   .text.dns_gethostbyname_addrtype:0000000000000032 .L0 
C:\Users\stapi\AppData\Local\Temp\cch5AfG4.s:1614   .text.dns_gethostbyname_addrtype:0000000000000032 .L0 
C:\Users\stapi\AppData\Local\Temp\cch5AfG4.s:1621   .text.dns_gethostbyname_addrtype:0000000000000044 .L0 
C:\Users\stapi\AppData\Local\Temp\cch5AfG4.s:1623   .text.dns_gethostbyname_addrtype:0000000000000046 .L0 
C:\Users\stapi\AppData\Local\Temp\cch5AfG4.s:1629   .text.dns_gethostbyname_addrtype:000000000000004e .L0 
C:\Users\stapi\AppData\Local\Temp\cch5AfG4.s:1633   .text.dns_gethostbyname_addrtype:0000000000000052 .L0 
C:\Users\stapi\AppData\Local\Temp\cch5AfG4.s:1634   .text.dns_gethostbyname_addrtype:0000000000000052 .L0 
C:\Users\stapi\AppData\Local\Temp\cch5AfG4.s:1638   .text.dns_gethostbyname_addrtype:0000000000000054 .L0 
C:\Users\stapi\AppData\Local\Temp\cch5AfG4.s:1640   .text.dns_gethostbyname_addrtype:000000000000005e .L0 
C:\Users\stapi\AppData\Local\Temp\cch5AfG4.s:1641   .text.dns_gethostbyname_addrtype:000000000000005e .L0 
C:\Users\stapi\AppData\Local\Temp\cch5AfG4.s:1642   .text.dns_gethostbyname_addrtype:000000000000005e .L0 
C:\Users\stapi\AppData\Local\Temp\cch5AfG4.s:1643   .text.dns_gethostbyname_addrtype:000000000000005e .L0 
C:\Users\stapi\AppData\Local\Temp\cch5AfG4.s:1644   .text.dns_gethostbyname_addrtype:000000000000005e .L0 
C:\Users\stapi\AppData\Local\Temp\cch5AfG4.s:1645   .text.dns_gethostbyname_addrtype:000000000000005e .L0 
C:\Users\stapi\AppData\Local\Temp\cch5AfG4.s:1646   .text.dns_gethostbyname_addrtype:000000000000005e .L0 
C:\Users\stapi\AppData\Local\Temp\cch5AfG4.s:1647   .text.dns_gethostbyname_addrtype:000000000000005e .L0 
C:\Users\stapi\AppData\Local\Temp\cch5AfG4.s:1648   .text.dns_gethostbyname_addrtype:000000000000005e .L0 
C:\Users\stapi\AppData\Local\Temp\cch5AfG4.s:1649   .text.dns_gethostbyname_addrtype:000000000000005e .L0 
C:\Users\stapi\AppData\Local\Temp\cch5AfG4.s:1650   .text.dns_gethostbyname_addrtype:000000000000005e .L0 
C:\Users\stapi\AppData\Local\Temp\cch5AfG4.s:1651   .text.dns_gethostbyname_addrtype:000000000000005e .L0 
C:\Users\stapi\AppData\Local\Temp\cch5AfG4.s:1652   .text.dns_gethostbyname_addrtype:000000000000005e .L0 
C:\Users\stapi\AppData\Local\Temp\cch5AfG4.s:1653   .text.dns_gethostbyname_addrtype:000000000000005e .L0 
C:\Users\stapi\AppData\Local\Temp\cch5AfG4.s:1654   .text.dns_gethostbyname_addrtype:000000000000005e .L0 
C:\Users\stapi\AppData\Local\Temp\cch5AfG4.s:1657   .text.dns_gethostbyname_addrtype:000000000000005e .L0 
C:\Users\stapi\AppData\Local\Temp\cch5AfG4.s:1659   .text.dns_gethostbyname_addrtype:000000000000005e .L0 
C:\Users\stapi\AppData\Local\Temp\cch5AfG4.s:1660   .text.dns_gethostbyname_addrtype:000000000000005e .L0 
C:\Users\stapi\AppData\Local\Temp\cch5AfG4.s:1665   .text.dns_gethostbyname_addrtype:000000000000006a .L0 
C:\Users\stapi\AppData\Local\Temp\cch5AfG4.s:1667   .text.dns_gethostbyname_addrtype:000000000000006c .L0 
C:\Users\stapi\AppData\Local\Temp\cch5AfG4.s:1676   .text.dns_gethostbyname_addrtype:0000000000000080 .L0 
C:\Users\stapi\AppData\Local\Temp\cch5AfG4.s:1678   .text.dns_gethostbyname_addrtype:0000000000000082 .L0 
C:\Users\stapi\AppData\Local\Temp\cch5AfG4.s:1682   .text.dns_gethostbyname_addrtype:0000000000000084 .L0 
C:\Users\stapi\AppData\Local\Temp\cch5AfG4.s:1683   .text.dns_gethostbyname_addrtype:0000000000000084 .L0 
C:\Users\stapi\AppData\Local\Temp\cch5AfG4.s:1686   .text.dns_gethostbyname_addrtype:000000000000008c .L0 
C:\Users\stapi\AppData\Local\Temp\cch5AfG4.s:1692   .text.dns_gethostbyname_addrtype:000000000000009e .L0 
C:\Users\stapi\AppData\Local\Temp\cch5AfG4.s:1694   .text.dns_gethostbyname_addrtype:00000000000000a0 .L0 
C:\Users\stapi\AppData\Local\Temp\cch5AfG4.s:1695   .text.dns_gethostbyname_addrtype:00000000000000a0 .L0 
C:\Users\stapi\AppData\Local\Temp\cch5AfG4.s:1696   .text.dns_gethostbyname_addrtype:00000000000000a0 .L0 
C:\Users\stapi\AppData\Local\Temp\cch5AfG4.s:1697   .text.dns_gethostbyname_addrtype:00000000000000a0 .L0 
C:\Users\stapi\AppData\Local\Temp\cch5AfG4.s:1698   .text.dns_gethostbyname_addrtype:00000000000000a0 .L0 
C:\Users\stapi\AppData\Local\Temp\cch5AfG4.s:1705   .text.dns_gethostbyname_addrtype:00000000000000ac .L0 
C:\Users\stapi\AppData\Local\Temp\cch5AfG4.s:1706   .text.dns_gethostbyname_addrtype:00000000000000ac .L0 
C:\Users\stapi\AppData\Local\Temp\cch5AfG4.s:1707   .text.dns_gethostbyname_addrtype:00000000000000ac .L0 
C:\Users\stapi\AppData\Local\Temp\cch5AfG4.s:1714   .text.dns_gethostbyname_addrtype:00000000000000b6 .L0 
C:\Users\stapi\AppData\Local\Temp\cch5AfG4.s:1715   .text.dns_gethostbyname_addrtype:00000000000000b6 .L0 
C:\Users\stapi\AppData\Local\Temp\cch5AfG4.s:1716   .text.dns_gethostbyname_addrtype:00000000000000b6 .L0 
C:\Users\stapi\AppData\Local\Temp\cch5AfG4.s:1719   .text.dns_gethostbyname_addrtype:00000000000000be .L0 
C:\Users\stapi\AppData\Local\Temp\cch5AfG4.s:1721   .text.dns_gethostbyname_addrtype:00000000000000c0 .L0 
C:\Users\stapi\AppData\Local\Temp\cch5AfG4.s:1728   .text.dns_gethostbyname_addrtype:00000000000000c8 .L0 
C:\Users\stapi\AppData\Local\Temp\cch5AfG4.s:1730   .text.dns_gethostbyname_addrtype:00000000000000ca .L0 
C:\Users\stapi\AppData\Local\Temp\cch5AfG4.s:1733   .text.dns_gethostbyname_addrtype:00000000000000d0 .L0 
C:\Users\stapi\AppData\Local\Temp\cch5AfG4.s:1737   .text.dns_gethostbyname_addrtype:00000000000000d2 .L0 
C:\Users\stapi\AppData\Local\Temp\cch5AfG4.s:1738   .text.dns_gethostbyname_addrtype:00000000000000d2 .L0 
C:\Users\stapi\AppData\Local\Temp\cch5AfG4.s:1742   .text.dns_gethostbyname_addrtype:00000000000000da .L0 
C:\Users\stapi\AppData\Local\Temp\cch5AfG4.s:1743   .text.dns_gethostbyname_addrtype:00000000000000da .L0 
C:\Users\stapi\AppData\Local\Temp\cch5AfG4.s:1748   .text.dns_gethostbyname_addrtype:00000000000000e0 .L0 
C:\Users\stapi\AppData\Local\Temp\cch5AfG4.s:1749   .text.dns_gethostbyname_addrtype:00000000000000e0 .L0 
C:\Users\stapi\AppData\Local\Temp\cch5AfG4.s:1753   .text.dns_gethostbyname_addrtype:00000000000000e8 .L0 
C:\Users\stapi\AppData\Local\Temp\cch5AfG4.s:1757   .text.dns_gethostbyname_addrtype:00000000000000f0 .L0 
C:\Users\stapi\AppData\Local\Temp\cch5AfG4.s:1760   .text.dns_gethostbyname_addrtype:00000000000000f2 .L0 
C:\Users\stapi\AppData\Local\Temp\cch5AfG4.s:1763   .text.dns_gethostbyname_addrtype:00000000000000f4 .L0 
C:\Users\stapi\AppData\Local\Temp\cch5AfG4.s:1766   .text.dns_gethostbyname_addrtype:00000000000000fa .L0 
C:\Users\stapi\AppData\Local\Temp\cch5AfG4.s:1768   .text.dns_gethostbyname_addrtype:00000000000000fc .L0 
C:\Users\stapi\AppData\Local\Temp\cch5AfG4.s:1772   .text.dns_gethostbyname_addrtype:00000000000000fe .L0 
C:\Users\stapi\AppData\Local\Temp\cch5AfG4.s:1776   .text.dns_gethostbyname_addrtype:0000000000000106 .L0 
C:\Users\stapi\AppData\Local\Temp\cch5AfG4.s:1777   .text.dns_gethostbyname_addrtype:0000000000000106 .L0 
C:\Users\stapi\AppData\Local\Temp\cch5AfG4.s:1778   .text.dns_gethostbyname_addrtype:0000000000000106 .L0 
C:\Users\stapi\AppData\Local\Temp\cch5AfG4.s:1780   .text.dns_gethostbyname_addrtype:0000000000000108 .L0 
C:\Users\stapi\AppData\Local\Temp\cch5AfG4.s:1787   .text.dns_gethostbyname_addrtype:0000000000000112 .L0 
C:\Users\stapi\AppData\Local\Temp\cch5AfG4.s:1788   .text.dns_gethostbyname_addrtype:0000000000000112 .L0 
C:\Users\stapi\AppData\Local\Temp\cch5AfG4.s:1789   .text.dns_gethostbyname_addrtype:0000000000000112 .L0 
C:\Users\stapi\AppData\Local\Temp\cch5AfG4.s:1792   .text.dns_gethostbyname_addrtype:000000000000011a .L0 
C:\Users\stapi\AppData\Local\Temp\cch5AfG4.s:1795   .text.dns_gethostbyname_addrtype:0000000000000120 .L0 
C:\Users\stapi\AppData\Local\Temp\cch5AfG4.s:1799   .text.dns_gethostbyname_addrtype:0000000000000122 .L0 
C:\Users\stapi\AppData\Local\Temp\cch5AfG4.s:1800   .text.dns_gethostbyname_addrtype:0000000000000122 .L0 
C:\Users\stapi\AppData\Local\Temp\cch5AfG4.s:1804   .text.dns_gethostbyname_addrtype:0000000000000128 .L0 
C:\Users\stapi\AppData\Local\Temp\cch5AfG4.s:1805   .text.dns_gethostbyname_addrtype:0000000000000128 .L0 
C:\Users\stapi\AppData\Local\Temp\cch5AfG4.s:1806   .text.dns_gethostbyname_addrtype:0000000000000128 .L0 
C:\Users\stapi\AppData\Local\Temp\cch5AfG4.s:1807   .text.dns_gethostbyname_addrtype:0000000000000128 .L0 
C:\Users\stapi\AppData\Local\Temp\cch5AfG4.s:1808   .text.dns_gethostbyname_addrtype:0000000000000128 .L0 
C:\Users\stapi\AppData\Local\Temp\cch5AfG4.s:1812   .text.dns_gethostbyname_addrtype:0000000000000130 .L0 
C:\Users\stapi\AppData\Local\Temp\cch5AfG4.s:1814   .text.dns_gethostbyname_addrtype:0000000000000132 .L0 
C:\Users\stapi\AppData\Local\Temp\cch5AfG4.s:1816   .text.dns_gethostbyname_addrtype:0000000000000136 .L0 
C:\Users\stapi\AppData\Local\Temp\cch5AfG4.s:1817   .text.dns_gethostbyname_addrtype:0000000000000136 .L0 
C:\Users\stapi\AppData\Local\Temp\cch5AfG4.s:1818   .text.dns_gethostbyname_addrtype:0000000000000136 .L0 
C:\Users\stapi\AppData\Local\Temp\cch5AfG4.s:1820   .text.dns_gethostbyname_addrtype:000000000000013a .L0 
C:\Users\stapi\AppData\Local\Temp\cch5AfG4.s:1821   .text.dns_gethostbyname_addrtype:000000000000013a .L0 
C:\Users\stapi\AppData\Local\Temp\cch5AfG4.s:1823   .text.dns_gethostbyname_addrtype:000000000000013e .L0 
C:\Users\stapi\AppData\Local\Temp\cch5AfG4.s:1825   .text.dns_gethostbyname_addrtype:0000000000000142 .L0 
C:\Users\stapi\AppData\Local\Temp\cch5AfG4.s:1828   .text.dns_gethostbyname_addrtype:0000000000000146 .L0 
C:\Users\stapi\AppData\Local\Temp\cch5AfG4.s:1831   .text.dns_gethostbyname_addrtype:0000000000000148 .L0 
C:\Users\stapi\AppData\Local\Temp\cch5AfG4.s:1833   .text.dns_gethostbyname_addrtype:000000000000014c .L0 
C:\Users\stapi\AppData\Local\Temp\cch5AfG4.s:1834   .text.dns_gethostbyname_addrtype:000000000000014c .L0 
C:\Users\stapi\AppData\Local\Temp\cch5AfG4.s:1835   .text.dns_gethostbyname_addrtype:000000000000014c .L0 
C:\Users\stapi\AppData\Local\Temp\cch5AfG4.s:1836   .text.dns_gethostbyname_addrtype:000000000000014c .L0 
C:\Users\stapi\AppData\Local\Temp\cch5AfG4.s:1837   .text.dns_gethostbyname_addrtype:000000000000014c .L0 
C:\Users\stapi\AppData\Local\Temp\cch5AfG4.s:1838   .text.dns_gethostbyname_addrtype:000000000000014c .L0 
C:\Users\stapi\AppData\Local\Temp\cch5AfG4.s:1842   .text.dns_gethostbyname_addrtype:0000000000000158 .L0 
C:\Users\stapi\AppData\Local\Temp\cch5AfG4.s:1843   .text.dns_gethostbyname_addrtype:0000000000000158 .L0 
C:\Users\stapi\AppData\Local\Temp\cch5AfG4.s:1847   .text.dns_gethostbyname_addrtype:000000000000015c .L0 
C:\Users\stapi\AppData\Local\Temp\cch5AfG4.s:1848   .text.dns_gethostbyname_addrtype:000000000000015c .L0 
C:\Users\stapi\AppData\Local\Temp\cch5AfG4.s:1849   .text.dns_gethostbyname_addrtype:000000000000015c .L0 
C:\Users\stapi\AppData\Local\Temp\cch5AfG4.s:1851   .text.dns_gethostbyname_addrtype:000000000000015c .L0 
C:\Users\stapi\AppData\Local\Temp\cch5AfG4.s:1852   .text.dns_gethostbyname_addrtype:000000000000015c .L0 
C:\Users\stapi\AppData\Local\Temp\cch5AfG4.s:1857   .text.dns_gethostbyname_addrtype:0000000000000164 .L0 
C:\Users\stapi\AppData\Local\Temp\cch5AfG4.s:1863   .text.dns_gethostbyname_addrtype:000000000000016a .L0 
C:\Users\stapi\AppData\Local\Temp\cch5AfG4.s:1867   .text.dns_gethostbyname_addrtype:000000000000016c .L0 
C:\Users\stapi\AppData\Local\Temp\cch5AfG4.s:1871   .text.dns_gethostbyname_addrtype:0000000000000172 .L0 
C:\Users\stapi\AppData\Local\Temp\cch5AfG4.s:1872   .text.dns_gethostbyname_addrtype:0000000000000172 .L0 
C:\Users\stapi\AppData\Local\Temp\cch5AfG4.s:1875   .text.dns_gethostbyname_addrtype:0000000000000176 .L0 
C:\Users\stapi\AppData\Local\Temp\cch5AfG4.s:1876   .text.dns_gethostbyname_addrtype:0000000000000176 .L0 
C:\Users\stapi\AppData\Local\Temp\cch5AfG4.s:1877   .text.dns_gethostbyname_addrtype:0000000000000176 .L0 
C:\Users\stapi\AppData\Local\Temp\cch5AfG4.s:1884   .text.dns_gethostbyname_addrtype:000000000000017e .L0 
C:\Users\stapi\AppData\Local\Temp\cch5AfG4.s:1885   .text.dns_gethostbyname_addrtype:000000000000017e .L0 
C:\Users\stapi\AppData\Local\Temp\cch5AfG4.s:1887   .text.dns_gethostbyname_addrtype:0000000000000182 .L0 
C:\Users\stapi\AppData\Local\Temp\cch5AfG4.s:1894   .text.dns_gethostbyname_addrtype:0000000000000192 .L0 
C:\Users\stapi\AppData\Local\Temp\cch5AfG4.s:1895   .text.dns_gethostbyname_addrtype:0000000000000192 .L0 
C:\Users\stapi\AppData\Local\Temp\cch5AfG4.s:1899   .text.dns_gethostbyname_addrtype:0000000000000194 .L0 
C:\Users\stapi\AppData\Local\Temp\cch5AfG4.s:1900   .text.dns_gethostbyname_addrtype:0000000000000194 .L0 
C:\Users\stapi\AppData\Local\Temp\cch5AfG4.s:1902   .text.dns_gethostbyname_addrtype:0000000000000198 .L0 
C:\Users\stapi\AppData\Local\Temp\cch5AfG4.s:1906   .text.dns_gethostbyname_addrtype:000000000000019a .L0 
C:\Users\stapi\AppData\Local\Temp\cch5AfG4.s:1907   .text.dns_gethostbyname_addrtype:000000000000019a .L0 
C:\Users\stapi\AppData\Local\Temp\cch5AfG4.s:1909   .text.dns_gethostbyname_addrtype:000000000000019e .L0 
C:\Users\stapi\AppData\Local\Temp\cch5AfG4.s:1912   .text.dns_gethostbyname_addrtype:00000000000001a2 .L0 
C:\Users\stapi\AppData\Local\Temp\cch5AfG4.s:1913   .text.dns_gethostbyname_addrtype:00000000000001a2 .L0 
C:\Users\stapi\AppData\Local\Temp\cch5AfG4.s:1915   .text.dns_gethostbyname_addrtype:00000000000001a6 .L0 
C:\Users\stapi\AppData\Local\Temp\cch5AfG4.s:1916   .text.dns_gethostbyname_addrtype:00000000000001a6 .L0 
C:\Users\stapi\AppData\Local\Temp\cch5AfG4.s:1923   .text.dns_gethostbyname_addrtype:00000000000001aa .L0 
C:\Users\stapi\AppData\Local\Temp\cch5AfG4.s:1929   .text.dns_gethostbyname_addrtype:00000000000001bc .L0 
C:\Users\stapi\AppData\Local\Temp\cch5AfG4.s:1935   .text.dns_gethostbyname_addrtype:00000000000001c4 .L0 
C:\Users\stapi\AppData\Local\Temp\cch5AfG4.s:1936   .text.dns_gethostbyname_addrtype:00000000000001c4 .L0 
C:\Users\stapi\AppData\Local\Temp\cch5AfG4.s:1939   .text.dns_gethostbyname_addrtype:00000000000001c8 .L0 
C:\Users\stapi\AppData\Local\Temp\cch5AfG4.s:1940   .text.dns_gethostbyname_addrtype:00000000000001c8 .L0 
C:\Users\stapi\AppData\Local\Temp\cch5AfG4.s:1945   .text.dns_gethostbyname_addrtype:00000000000001d4 .L0 
C:\Users\stapi\AppData\Local\Temp\cch5AfG4.s:1946   .text.dns_gethostbyname_addrtype:00000000000001d4 .L0 
C:\Users\stapi\AppData\Local\Temp\cch5AfG4.s:1948   .text.dns_gethostbyname_addrtype:00000000000001d8 .L0 
C:\Users\stapi\AppData\Local\Temp\cch5AfG4.s:1949   .text.dns_gethostbyname_addrtype:00000000000001d8 .L0 
C:\Users\stapi\AppData\Local\Temp\cch5AfG4.s:1951   .text.dns_gethostbyname_addrtype:00000000000001dc .L0 
C:\Users\stapi\AppData\Local\Temp\cch5AfG4.s:1952   .text.dns_gethostbyname_addrtype:00000000000001dc .L0 
C:\Users\stapi\AppData\Local\Temp\cch5AfG4.s:1955   .text.dns_gethostbyname_addrtype:00000000000001dc .L0 
C:\Users\stapi\AppData\Local\Temp\cch5AfG4.s:1956   .text.dns_gethostbyname_addrtype:00000000000001dc .L0 
C:\Users\stapi\AppData\Local\Temp\cch5AfG4.s:1957   .text.dns_gethostbyname_addrtype:00000000000001dc .L0 
C:\Users\stapi\AppData\Local\Temp\cch5AfG4.s:1962   .text.dns_gethostbyname_addrtype:00000000000001e0 .L0 
C:\Users\stapi\AppData\Local\Temp\cch5AfG4.s:1963   .text.dns_gethostbyname_addrtype:00000000000001e0 .L0 
C:\Users\stapi\AppData\Local\Temp\cch5AfG4.s:1964   .text.dns_gethostbyname_addrtype:00000000000001e0 .L0 
C:\Users\stapi\AppData\Local\Temp\cch5AfG4.s:1972   .text.dns_gethostbyname_addrtype:00000000000001ea .L0 
C:\Users\stapi\AppData\Local\Temp\cch5AfG4.s:1973   .text.dns_gethostbyname_addrtype:00000000000001ea .L0 
C:\Users\stapi\AppData\Local\Temp\cch5AfG4.s:1976   .text.dns_gethostbyname_addrtype:00000000000001ee .L0 
C:\Users\stapi\AppData\Local\Temp\cch5AfG4.s:1977   .text.dns_gethostbyname_addrtype:00000000000001ee .L0 
C:\Users\stapi\AppData\Local\Temp\cch5AfG4.s:1982   .text.dns_gethostbyname_addrtype:00000000000001fa .L0 
C:\Users\stapi\AppData\Local\Temp\cch5AfG4.s:1983   .text.dns_gethostbyname_addrtype:00000000000001fa .L0 
C:\Users\stapi\AppData\Local\Temp\cch5AfG4.s:1991   .text.dns_gethostbyname_addrtype:0000000000000202 .L0 
C:\Users\stapi\AppData\Local\Temp\cch5AfG4.s:1992   .text.dns_gethostbyname_addrtype:0000000000000202 .L0 
C:\Users\stapi\AppData\Local\Temp\cch5AfG4.s:1993   .text.dns_gethostbyname_addrtype:0000000000000202 .L0 
C:\Users\stapi\AppData\Local\Temp\cch5AfG4.s:1998   .text.dns_gethostbyname_addrtype:000000000000020c .L0 
C:\Users\stapi\AppData\Local\Temp\cch5AfG4.s:1999   .text.dns_gethostbyname_addrtype:000000000000020c .L0 
C:\Users\stapi\AppData\Local\Temp\cch5AfG4.s:2000   .text.dns_gethostbyname_addrtype:000000000000020c .L0 
C:\Users\stapi\AppData\Local\Temp\cch5AfG4.s:2002   .text.dns_gethostbyname_addrtype:000000000000020e .L0 
C:\Users\stapi\AppData\Local\Temp\cch5AfG4.s:2004   .text.dns_gethostbyname_addrtype:0000000000000212 .L0 
C:\Users\stapi\AppData\Local\Temp\cch5AfG4.s:2007   .text.dns_gethostbyname_addrtype:000000000000021a .L0 
C:\Users\stapi\AppData\Local\Temp\cch5AfG4.s:2012   .text.dns_gethostbyname_addrtype:0000000000000220 .L0 
C:\Users\stapi\AppData\Local\Temp\cch5AfG4.s:2014   .text.dns_gethostbyname_addrtype:0000000000000222 .L0 
C:\Users\stapi\AppData\Local\Temp\cch5AfG4.s:2019   .text.dns_gethostbyname_addrtype:0000000000000228 .L0 
C:\Users\stapi\AppData\Local\Temp\cch5AfG4.s:2020   .text.dns_gethostbyname_addrtype:0000000000000228 .L0 
C:\Users\stapi\AppData\Local\Temp\cch5AfG4.s:2021   .text.dns_gethostbyname_addrtype:0000000000000228 .L0 
C:\Users\stapi\AppData\Local\Temp\cch5AfG4.s:2028   .text.dns_gethostbyname_addrtype:0000000000000230 .L0 
C:\Users\stapi\AppData\Local\Temp\cch5AfG4.s:2029   .text.dns_gethostbyname_addrtype:0000000000000230 .L0 
C:\Users\stapi\AppData\Local\Temp\cch5AfG4.s:2036   .text.dns_gethostbyname_addrtype:0000000000000234 .L0 
C:\Users\stapi\AppData\Local\Temp\cch5AfG4.s:2040   .text.dns_gethostbyname_addrtype:000000000000023c .L0 
C:\Users\stapi\AppData\Local\Temp\cch5AfG4.s:2046   .text.dns_gethostbyname_addrtype:000000000000023e .L0 
C:\Users\stapi\AppData\Local\Temp\cch5AfG4.s:2056   .text.dns_gethostbyname_addrtype:0000000000000252 .L0 
C:\Users\stapi\AppData\Local\Temp\cch5AfG4.s:2057   .text.dns_gethostbyname_addrtype:0000000000000252 .L0 
C:\Users\stapi\AppData\Local\Temp\cch5AfG4.s:2059   .text.dns_gethostbyname_addrtype:0000000000000254 .L0 
C:\Users\stapi\AppData\Local\Temp\cch5AfG4.s:2061   .text.dns_gethostbyname_addrtype:0000000000000258 .L0 
C:\Users\stapi\AppData\Local\Temp\cch5AfG4.s:2063   .text.dns_gethostbyname_addrtype:000000000000025c .L0 
C:\Users\stapi\AppData\Local\Temp\cch5AfG4.s:2064   .text.dns_gethostbyname_addrtype:000000000000025c .L0 
C:\Users\stapi\AppData\Local\Temp\cch5AfG4.s:2065   .text.dns_gethostbyname_addrtype:000000000000025c .L0 
C:\Users\stapi\AppData\Local\Temp\cch5AfG4.s:2067   .text.dns_gethostbyname_addrtype:0000000000000260 .L0 
C:\Users\stapi\AppData\Local\Temp\cch5AfG4.s:2068   .text.dns_gethostbyname_addrtype:0000000000000260 .L0 
C:\Users\stapi\AppData\Local\Temp\cch5AfG4.s:2074   .text.dns_gethostbyname_addrtype:0000000000000262 .L0 
C:\Users\stapi\AppData\Local\Temp\cch5AfG4.s:2076   .text.dns_gethostbyname_addrtype:0000000000000266 .L0 
C:\Users\stapi\AppData\Local\Temp\cch5AfG4.s:2077   .text.dns_gethostbyname_addrtype:0000000000000266 .L0 
C:\Users\stapi\AppData\Local\Temp\cch5AfG4.s:2080   .text.dns_gethostbyname_addrtype:000000000000026c .L0 
C:\Users\stapi\AppData\Local\Temp\cch5AfG4.s:2081   .text.dns_gethostbyname_addrtype:000000000000026c .L0 
C:\Users\stapi\AppData\Local\Temp\cch5AfG4.s:2082   .text.dns_gethostbyname_addrtype:000000000000026c .L0 
C:\Users\stapi\AppData\Local\Temp\cch5AfG4.s:2085   .text.dns_gethostbyname_addrtype:0000000000000272 .L0 
C:\Users\stapi\AppData\Local\Temp\cch5AfG4.s:2087   .text.dns_gethostbyname_addrtype:0000000000000276 .L0 
C:\Users\stapi\AppData\Local\Temp\cch5AfG4.s:2088   .text.dns_gethostbyname_addrtype:0000000000000276 .L0 
C:\Users\stapi\AppData\Local\Temp\cch5AfG4.s:2095   .text.dns_gethostbyname_addrtype:000000000000027c .L0 
C:\Users\stapi\AppData\Local\Temp\cch5AfG4.s:2096   .text.dns_gethostbyname_addrtype:000000000000027c .L0 
C:\Users\stapi\AppData\Local\Temp\cch5AfG4.s:2099   .text.dns_gethostbyname_addrtype:000000000000027e .L0 
C:\Users\stapi\AppData\Local\Temp\cch5AfG4.s:2102   .text.dns_gethostbyname_addrtype:0000000000000280 .L0 
C:\Users\stapi\AppData\Local\Temp\cch5AfG4.s:2104   .text.dns_gethostbyname_addrtype:0000000000000284 .L0 
C:\Users\stapi\AppData\Local\Temp\cch5AfG4.s:2107   .text.dns_gethostbyname_addrtype:0000000000000288 .L0 
C:\Users\stapi\AppData\Local\Temp\cch5AfG4.s:2108   .text.dns_gethostbyname_addrtype:0000000000000288 .L0 
C:\Users\stapi\AppData\Local\Temp\cch5AfG4.s:2115   .text.dns_gethostbyname_addrtype:000000000000028c .L0 
C:\Users\stapi\AppData\Local\Temp\cch5AfG4.s:2116   .text.dns_gethostbyname_addrtype:000000000000028c .L0 
C:\Users\stapi\AppData\Local\Temp\cch5AfG4.s:2117   .text.dns_gethostbyname_addrtype:000000000000028c .L0 
C:\Users\stapi\AppData\Local\Temp\cch5AfG4.s:2119   .text.dns_gethostbyname_addrtype:0000000000000290 .L0 
C:\Users\stapi\AppData\Local\Temp\cch5AfG4.s:2121   .text.dns_gethostbyname_addrtype:0000000000000292 .L0 
C:\Users\stapi\AppData\Local\Temp\cch5AfG4.s:2124   .text.dns_gethostbyname_addrtype:0000000000000298 .L0 
C:\Users\stapi\AppData\Local\Temp\cch5AfG4.s:2129   .text.dns_gethostbyname_addrtype:00000000000002a2 .L0 
C:\Users\stapi\AppData\Local\Temp\cch5AfG4.s:2130   .text.dns_gethostbyname_addrtype:00000000000002a2 .L0 
C:\Users\stapi\AppData\Local\Temp\cch5AfG4.s:2131   .text.dns_gethostbyname_addrtype:00000000000002a2 .L0 
C:\Users\stapi\AppData\Local\Temp\cch5AfG4.s:2132   .text.dns_gethostbyname_addrtype:00000000000002a2 .L0 
C:\Users\stapi\AppData\Local\Temp\cch5AfG4.s:2133   .text.dns_gethostbyname_addrtype:00000000000002a2 .L0 
C:\Users\stapi\AppData\Local\Temp\cch5AfG4.s:2134   .text.dns_gethostbyname_addrtype:00000000000002a2 .L0 
C:\Users\stapi\AppData\Local\Temp\cch5AfG4.s:2135   .text.dns_gethostbyname_addrtype:00000000000002a2 .L0 
C:\Users\stapi\AppData\Local\Temp\cch5AfG4.s:2136   .text.dns_gethostbyname_addrtype:00000000000002a2 .L0 
C:\Users\stapi\AppData\Local\Temp\cch5AfG4.s:2137   .text.dns_gethostbyname_addrtype:00000000000002a2 .L0 
C:\Users\stapi\AppData\Local\Temp\cch5AfG4.s:2138   .text.dns_gethostbyname_addrtype:00000000000002a2 .L0 
C:\Users\stapi\AppData\Local\Temp\cch5AfG4.s:2139   .text.dns_gethostbyname_addrtype:00000000000002a2 .L0 
C:\Users\stapi\AppData\Local\Temp\cch5AfG4.s:2140   .text.dns_gethostbyname_addrtype:00000000000002a2 .L0 
C:\Users\stapi\AppData\Local\Temp\cch5AfG4.s:2141   .text.dns_gethostbyname_addrtype:00000000000002a2 .L0 
C:\Users\stapi\AppData\Local\Temp\cch5AfG4.s:2142   .text.dns_gethostbyname_addrtype:00000000000002a2 .L0 
C:\Users\stapi\AppData\Local\Temp\cch5AfG4.s:2146   .text.dns_gethostbyname_addrtype:00000000000002a2 .L0 
C:\Users\stapi\AppData\Local\Temp\cch5AfG4.s:2148   .text.dns_gethostbyname_addrtype:00000000000002a4 .L0 
C:\Users\stapi\AppData\Local\Temp\cch5AfG4.s:2153   .text.dns_gethostbyname_addrtype:00000000000002a8 .L0 
C:\Users\stapi\AppData\Local\Temp\cch5AfG4.s:2154   .text.dns_gethostbyname_addrtype:00000000000002a8 .L0 
C:\Users\stapi\AppData\Local\Temp\cch5AfG4.s:2155   .text.dns_gethostbyname_addrtype:00000000000002a8 .L0 
C:\Users\stapi\AppData\Local\Temp\cch5AfG4.s:2156   .text.dns_gethostbyname_addrtype:00000000000002a8 .L0 
C:\Users\stapi\AppData\Local\Temp\cch5AfG4.s:2157   .text.dns_gethostbyname_addrtype:00000000000002a8 .L0 
C:\Users\stapi\AppData\Local\Temp\cch5AfG4.s:2158   .text.dns_gethostbyname_addrtype:00000000000002a8 .L0 
C:\Users\stapi\AppData\Local\Temp\cch5AfG4.s:2159   .text.dns_gethostbyname_addrtype:00000000000002a8 .L0 
C:\Users\stapi\AppData\Local\Temp\cch5AfG4.s:2160   .text.dns_gethostbyname_addrtype:00000000000002a8 .L0 
C:\Users\stapi\AppData\Local\Temp\cch5AfG4.s:2161   .text.dns_gethostbyname_addrtype:00000000000002a8 .L0 
C:\Users\stapi\AppData\Local\Temp\cch5AfG4.s:2162   .text.dns_gethostbyname_addrtype:00000000000002a8 .L0 
C:\Users\stapi\AppData\Local\Temp\cch5AfG4.s:2163   .text.dns_gethostbyname_addrtype:00000000000002a8 .L0 
C:\Users\stapi\AppData\Local\Temp\cch5AfG4.s:2164   .text.dns_gethostbyname_addrtype:00000000000002a8 .L0 
C:\Users\stapi\AppData\Local\Temp\cch5AfG4.s:2165   .text.dns_gethostbyname_addrtype:00000000000002a8 .L0 
C:\Users\stapi\AppData\Local\Temp\cch5AfG4.s:2166   .text.dns_gethostbyname_addrtype:00000000000002a8 .L0 
C:\Users\stapi\AppData\Local\Temp\cch5AfG4.s:2172   .text.dns_gethostbyname_addrtype:00000000000002a8 .L0 
C:\Users\stapi\AppData\Local\Temp\cch5AfG4.s:2175   .text.dns_gethostbyname_addrtype:00000000000002a8 .L0 
C:\Users\stapi\AppData\Local\Temp\cch5AfG4.s:2176   .text.dns_gethostbyname_addrtype:00000000000002a8 .L0 
C:\Users\stapi\AppData\Local\Temp\cch5AfG4.s:2177   .text.dns_gethostbyname_addrtype:00000000000002a8 .L0 
C:\Users\stapi\AppData\Local\Temp\cch5AfG4.s:2178   .text.dns_gethostbyname_addrtype:00000000000002a8 .L0 
C:\Users\stapi\AppData\Local\Temp\cch5AfG4.s:2179   .text.dns_gethostbyname_addrtype:00000000000002a8 .L0 
C:\Users\stapi\AppData\Local\Temp\cch5AfG4.s:2185   .text.dns_gethostbyname_addrtype:00000000000002b6 .L0 
C:\Users\stapi\AppData\Local\Temp\cch5AfG4.s:2186   .text.dns_gethostbyname_addrtype:00000000000002b6 .L0 
C:\Users\stapi\AppData\Local\Temp\cch5AfG4.s:2189   .text.dns_gethostbyname_addrtype:00000000000002b8 .L0 
C:\Users\stapi\AppData\Local\Temp\cch5AfG4.s:2191   .text.dns_gethostbyname_addrtype:00000000000002bc .L0 
C:\Users\stapi\AppData\Local\Temp\cch5AfG4.s:2197   .text.dns_gethostbyname_addrtype:00000000000002c0 .L0 
C:\Users\stapi\AppData\Local\Temp\cch5AfG4.s:2198   .text.dns_gethostbyname_addrtype:00000000000002c0 .L0 
C:\Users\stapi\AppData\Local\Temp\cch5AfG4.s:2199   .text.dns_gethostbyname_addrtype:00000000000002c0 .L0 
C:\Users\stapi\AppData\Local\Temp\cch5AfG4.s:2202   .text.dns_gethostbyname_addrtype:00000000000002c8 .L0 
C:\Users\stapi\AppData\Local\Temp\cch5AfG4.s:2205   .text.dns_gethostbyname_addrtype:00000000000002cc .L0 
C:\Users\stapi\AppData\Local\Temp\cch5AfG4.s:2206   .text.dns_gethostbyname_addrtype:00000000000002cc .L0 
C:\Users\stapi\AppData\Local\Temp\cch5AfG4.s:2208   .text.dns_gethostbyname_addrtype:00000000000002d0 .L0 
C:\Users\stapi\AppData\Local\Temp\cch5AfG4.s:2209   .text.dns_gethostbyname_addrtype:00000000000002d0 .L0 
C:\Users\stapi\AppData\Local\Temp\cch5AfG4.s:2215   .text.dns_gethostbyname_addrtype:00000000000002de .L0 
C:\Users\stapi\AppData\Local\Temp\cch5AfG4.s:2216   .text.dns_gethostbyname_addrtype:00000000000002de .L0 
C:\Users\stapi\AppData\Local\Temp\cch5AfG4.s:2219   .text.dns_gethostbyname_addrtype:00000000000002e4 .L0 
C:\Users\stapi\AppData\Local\Temp\cch5AfG4.s:2221   .text.dns_gethostbyname_addrtype:00000000000002e6 .L0 
C:\Users\stapi\AppData\Local\Temp\cch5AfG4.s:2223   .text.dns_gethostbyname_addrtype:00000000000002e8 .L0 
C:\Users\stapi\AppData\Local\Temp\cch5AfG4.s:2230   .text.dns_gethostbyname_addrtype:00000000000002f2 .L0 
C:\Users\stapi\AppData\Local\Temp\cch5AfG4.s:2231   .text.dns_gethostbyname_addrtype:00000000000002f2 .L0 
C:\Users\stapi\AppData\Local\Temp\cch5AfG4.s:2237   .text.dns_gethostbyname_addrtype:00000000000002f6 .L0 
C:\Users\stapi\AppData\Local\Temp\cch5AfG4.s:2244   .text.dns_gethostbyname:0000000000000000 dns_gethostbyname
C:\Users\stapi\AppData\Local\Temp\cch5AfG4.s:2247   .text.dns_gethostbyname:0000000000000000 .L0 
C:\Users\stapi\AppData\Local\Temp\cch5AfG4.s:2249   .text.dns_gethostbyname:0000000000000000 .L0 
C:\Users\stapi\AppData\Local\Temp\cch5AfG4.s:2250   .text.dns_gethostbyname:0000000000000000 .L0 
C:\Users\stapi\AppData\Local\Temp\cch5AfG4.s:2251   .text.dns_gethostbyname:0000000000000000 .L0 
C:\Users\stapi\AppData\Local\Temp\cch5AfG4.s:2254   .text.dns_gethostbyname:000000000000000a .L0 
C:\Users\stapi\AppData\Local\Temp\cch5AfG4.s:2302   .srodata.dns_mquery_v4group:0000000000000000 dns_mquery_v4group
C:\Users\stapi\AppData\Local\Temp\cch5AfG4.s:2260   .bss.dns_pcbs:0000000000000000 .LANCHOR2
C:\Users\stapi\AppData\Local\Temp\cch5AfG4.s:2263   .bss.dns_pcbs:0000000000000000 dns_pcbs
C:\Users\stapi\AppData\Local\Temp\cch5AfG4.s:2267   .bss.dns_requests:0000000000000000 .LANCHOR1
C:\Users\stapi\AppData\Local\Temp\cch5AfG4.s:2270   .bss.dns_requests:0000000000000000 dns_requests
C:\Users\stapi\AppData\Local\Temp\cch5AfG4.s:2274   .bss.dns_table:0000000000000000 .LANCHOR0
C:\Users\stapi\AppData\Local\Temp\cch5AfG4.s:2277   .bss.dns_table:0000000000000000 dns_table
C:\Users\stapi\AppData\Local\Temp\cch5AfG4.s:2280   .sbss.dns_last_pcb_idx:0000000000000000 .LANCHOR5
C:\Users\stapi\AppData\Local\Temp\cch5AfG4.s:2283   .sbss.dns_last_pcb_idx:0000000000000000 dns_last_pcb_idx
C:\Users\stapi\AppData\Local\Temp\cch5AfG4.s:2286   .sbss.dns_seqno:0000000000000000 .LANCHOR4
C:\Users\stapi\AppData\Local\Temp\cch5AfG4.s:2289   .sbss.dns_seqno:0000000000000000 dns_seqno
C:\Users\stapi\AppData\Local\Temp\cch5AfG4.s:2293   .sbss.dns_servers:0000000000000000 .LANCHOR3
C:\Users\stapi\AppData\Local\Temp\cch5AfG4.s:2296   .sbss.dns_servers:0000000000000000 dns_servers
C:\Users\stapi\AppData\Local\Temp\cch5AfG4.s:161    .text.dns_call_found:00000000000000ce .L0 
C:\Users\stapi\AppData\Local\Temp\cch5AfG4.s:476    .text.dns_send.isra.0:00000000000001ac .L0 
C:\Users\stapi\AppData\Local\Temp\cch5AfG4.s:732    .text.dns_check_entry:0000000000000146 .L0 
C:\Users\stapi\AppData\Local\Temp\cch5AfG4.s:1408   .text.dns_recv:000000000000037a .L0 
C:\Users\stapi\AppData\Local\Temp\cch5AfG4.s:1430   .text.dns_init:0000000000000002 .L0 
C:\Users\stapi\AppData\Local\Temp\cch5AfG4.s:1470   .text.dns_setserver:0000000000000024 .L0 
C:\Users\stapi\AppData\Local\Temp\cch5AfG4.s:1501   .text.dns_getserver:000000000000001e .L0 
C:\Users\stapi\AppData\Local\Temp\cch5AfG4.s:1553   .text.dns_tmr:0000000000000038 .L0 
C:\Users\stapi\AppData\Local\Temp\cch5AfG4.s:2240   .text.dns_gethostbyname_addrtype:00000000000002f6 .L0 
C:\Users\stapi\AppData\Local\Temp\cch5AfG4.s:2258   .text.dns_gethostbyname:000000000000000a .L0 
                     .debug_frame:0000000000000000 .L0 
C:\Users\stapi\AppData\Local\Temp\cch5AfG4.s:65     .text.dns_call_found:0000000000000046 .L2
C:\Users\stapi\AppData\Local\Temp\cch5AfG4.s:46     .text.dns_call_found:000000000000002e .L3
C:\Users\stapi\AppData\Local\Temp\cch5AfG4.s:145    .text.dns_call_found:00000000000000be .L4
C:\Users\stapi\AppData\Local\Temp\cch5AfG4.s:132    .text.dns_call_found:00000000000000b6 .L1
C:\Users\stapi\AppData\Local\Temp\cch5AfG4.s:85     .text.dns_call_found:000000000000005e .L6
C:\Users\stapi\AppData\Local\Temp\cch5AfG4.s:104    .text.dns_call_found:000000000000007c .L5
C:\Users\stapi\AppData\Local\Temp\cch5AfG4.s:163    .rodata.dns_send.isra.0.str1.4:0000000000000000 .LC0
C:\Users\stapi\AppData\Local\Temp\cch5AfG4.s:166    .rodata.dns_send.isra.0.str1.4:000000000000008c .LC1
C:\Users\stapi\AppData\Local\Temp\cch5AfG4.s:169    .rodata.dns_send.isra.0.str1.4:00000000000000a4 .LC2
C:\Users\stapi\AppData\Local\Temp\cch5AfG4.s:235    .text.dns_send.isra.0:000000000000004c .L15
C:\Users\stapi\AppData\Local\Temp\cch5AfG4.s:229    .text.dns_send.isra.0:000000000000004a .L16
C:\Users\stapi\AppData\Local\Temp\cch5AfG4.s:274    .text.dns_send.isra.0:0000000000000078 .L17
C:\Users\stapi\AppData\Local\Temp\cch5AfG4.s:255    .text.dns_send.isra.0:000000000000006e .L14
C:\Users\stapi\AppData\Local\Temp\cch5AfG4.s:383    .text.dns_send.isra.0:000000000000010e .L20
C:\Users\stapi\AppData\Local\Temp\cch5AfG4.s:397    .text.dns_send.isra.0:000000000000011a .L30
C:\Users\stapi\AppData\Local\Temp\cch5AfG4.s:362    .text.dns_send.isra.0:00000000000000f2 .L24
C:\Users\stapi\AppData\Local\Temp\cch5AfG4.s:357    .text.dns_send.isra.0:00000000000000ea .L19
C:\Users\stapi\AppData\Local\Temp\cch5AfG4.s:345    .text.dns_send.isra.0:00000000000000e4 .L25
C:\Users\stapi\AppData\Local\Temp\cch5AfG4.s:375    .text.dns_send.isra.0:0000000000000102 .L32
C:\Users\stapi\AppData\Local\Temp\cch5AfG4.s:478    .rodata.dns_check_entry.str1.4:0000000000000000 .LC3
C:\Users\stapi\AppData\Local\Temp\cch5AfG4.s:481    .rodata.dns_check_entry.str1.4:000000000000001c .LC4
C:\Users\stapi\AppData\Local\Temp\cch5AfG4.s:523    .text.dns_check_entry:0000000000000034 .L34
C:\Users\stapi\AppData\Local\Temp\cch5AfG4.s:517    .text.dns_check_entry:0000000000000032 .L35
C:\Users\stapi\AppData\Local\Temp\cch5AfG4.s:639    .text.dns_check_entry:00000000000000da .L36
C:\Users\stapi\AppData\Local\Temp\cch5AfG4.s:615    .text.dns_check_entry:00000000000000b0 .L37
C:\Users\stapi\AppData\Local\Temp\cch5AfG4.s:604    .text.dns_check_entry:00000000000000a8 .L33
C:\Users\stapi\AppData\Local\Temp\cch5AfG4.s:568    .text.dns_check_entry:000000000000007e .L42
C:\Users\stapi\AppData\Local\Temp\cch5AfG4.s:547    .text.dns_check_entry:0000000000000060 .L39
C:\Users\stapi\AppData\Local\Temp\cch5AfG4.s:560    .text.dns_check_entry:000000000000006e .L43
C:\Users\stapi\AppData\Local\Temp\cch5AfG4.s:717    .text.dns_check_entry:000000000000013a .L40
C:\Users\stapi\AppData\Local\Temp\cch5AfG4.s:633    .text.dns_check_entry:00000000000000d8 .L51
C:\Users\stapi\AppData\Local\Temp\cch5AfG4.s:712    .text.dns_check_entry:0000000000000134 .L45
C:\Users\stapi\AppData\Local\Temp\cch5AfG4.s:694    .text.dns_check_entry:000000000000011a .L46
C:\Users\stapi\AppData\Local\Temp\cch5AfG4.s:597    .text.dns_check_entry:000000000000009e .L47
C:\Users\stapi\AppData\Local\Temp\cch5AfG4.s:703    .text.dns_check_entry:0000000000000126 .L49
C:\Users\stapi\AppData\Local\Temp\cch5AfG4.s:1350   .text.dns_recv:0000000000000336 .L67
C:\Users\stapi\AppData\Local\Temp\cch5AfG4.s:1394   .text.dns_recv:000000000000036e .L69
C:\Users\stapi\AppData\Local\Temp\cch5AfG4.s:1201   .text.dns_recv:0000000000000290 .L73
C:\Users\stapi\AppData\Local\Temp\cch5AfG4.s:893    .text.dns_recv:00000000000000ca .L74
C:\Users\stapi\AppData\Local\Temp\cch5AfG4.s:1262   .text.dns_recv:00000000000002e2 .L75
C:\Users\stapi\AppData\Local\Temp\cch5AfG4.s:1281   .text.dns_recv:00000000000002f2 .L79
C:\Users\stapi\AppData\Local\Temp\cch5AfG4.s:1359   .text.dns_recv:0000000000000342 .L88
C:\Users\stapi\AppData\Local\Temp\cch5AfG4.s:1021   .text.dns_recv:0000000000000182 .L81
C:\Users\stapi\AppData\Local\Temp\cch5AfG4.s:1366   .text.dns_recv:0000000000000346 .L82
C:\Users\stapi\AppData\Local\Temp\cch5AfG4.s:1301   .text.dns_recv:0000000000000314 .L65
C:\Users\stapi\AppData\Local\Temp\cch5AfG4.s:1228   .text.dns_recv:00000000000002ba .L71
C:\Users\stapi\AppData\Local\Temp\cch5AfG4.s:1241   .text.dns_recv:00000000000002d0 .L72
C:\Users\stapi\AppData\Local\Temp\cch5AfG4.s:925    .text.dns_recv:00000000000000f4 .L70
C:\Users\stapi\AppData\Local\Temp\cch5AfG4.s:1323   .text.dns_recv:000000000000031e .L77
C:\Users\stapi\AppData\Local\Temp\cch5AfG4.s:1071   .text.dns_recv:00000000000001ca .L80
C:\Users\stapi\AppData\Local\Temp\cch5AfG4.s:1013   .text.dns_recv:0000000000000176 .L76
C:\Users\stapi\AppData\Local\Temp\cch5AfG4.s:814    .text.dns_recv:000000000000004e .L87
C:\Users\stapi\AppData\Local\Temp\cch5AfG4.s:1458   .text.dns_setserver:0000000000000018 .L104
C:\Users\stapi\AppData\Local\Temp\cch5AfG4.s:1461   .text.dns_setserver:000000000000001a .L106
C:\Users\stapi\AppData\Local\Temp\cch5AfG4.s:1455   .text.dns_setserver:0000000000000016 .L107
C:\Users\stapi\AppData\Local\Temp\cch5AfG4.s:1491   .text.dns_getserver:0000000000000014 .L110
C:\Users\stapi\AppData\Local\Temp\cch5AfG4.s:1555   .rodata.dns_gethostbyname_addrtype.str1.4:0000000000000000 .LC5
C:\Users\stapi\AppData\Local\Temp\cch5AfG4.s:2128   .text.dns_gethostbyname_addrtype:00000000000002a2 .L144
C:\Users\stapi\AppData\Local\Temp\cch5AfG4.s:1636   .text.dns_gethostbyname_addrtype:0000000000000054 .L152
C:\Users\stapi\AppData\Local\Temp\cch5AfG4.s:1656   .text.dns_gethostbyname_addrtype:000000000000005e .L115
C:\Users\stapi\AppData\Local\Temp\cch5AfG4.s:1702   .text.dns_gethostbyname_addrtype:00000000000000ac .L116
C:\Users\stapi\AppData\Local\Temp\cch5AfG4.s:1625   .text.dns_gethostbyname_addrtype:000000000000004e .L170
C:\Users\stapi\AppData\Local\Temp\cch5AfG4.s:1679   .text.dns_gethostbyname_addrtype:0000000000000084 .L117
C:\Users\stapi\AppData\Local\Temp\cch5AfG4.s:1919   .text.dns_gethostbyname_addrtype:00000000000001aa .L118
C:\Users\stapi\AppData\Local\Temp\cch5AfG4.s:1734   .text.dns_gethostbyname_addrtype:00000000000000d2 .L119
C:\Users\stapi\AppData\Local\Temp\cch5AfG4.s:1970   .text.dns_gethostbyname_addrtype:00000000000001ea .L124
C:\Users\stapi\AppData\Local\Temp\cch5AfG4.s:2017   .text.dns_gethostbyname_addrtype:0000000000000228 .L129
C:\Users\stapi\AppData\Local\Temp\cch5AfG4.s:2152   .text.dns_gethostbyname_addrtype:00000000000002a8 .L132
C:\Users\stapi\AppData\Local\Temp\cch5AfG4.s:1865   .text.dns_gethostbyname_addrtype:000000000000016c .L130
C:\Users\stapi\AppData\Local\Temp\cch5AfG4.s:1904   .text.dns_gethostbyname_addrtype:000000000000019a .L138
C:\Users\stapi\AppData\Local\Temp\cch5AfG4.s:2091   .text.dns_gethostbyname_addrtype:000000000000027c .L139
C:\Users\stapi\AppData\Local\Temp\cch5AfG4.s:2070   .text.dns_gethostbyname_addrtype:0000000000000262 .L137
C:\Users\stapi\AppData\Local\Temp\cch5AfG4.s:1740   .text.dns_gethostbyname_addrtype:00000000000000da .L121
C:\Users\stapi\AppData\Local\Temp\cch5AfG4.s:1960   .text.dns_gethostbyname_addrtype:00000000000001e0 .L122
C:\Users\stapi\AppData\Local\Temp\cch5AfG4.s:1932   .text.dns_gethostbyname_addrtype:00000000000001c4 .L123
C:\Users\stapi\AppData\Local\Temp\cch5AfG4.s:1988   .text.dns_gethostbyname_addrtype:0000000000000202 .L126
C:\Users\stapi\AppData\Local\Temp\cch5AfG4.s:1770   .text.dns_gethostbyname_addrtype:00000000000000fe .L127
C:\Users\stapi\AppData\Local\Temp\cch5AfG4.s:1785   .text.dns_gethostbyname_addrtype:0000000000000112 .L125
C:\Users\stapi\AppData\Local\Temp\cch5AfG4.s:1797   .text.dns_gethostbyname_addrtype:0000000000000122 .L131
C:\Users\stapi\AppData\Local\Temp\cch5AfG4.s:1882   .text.dns_gethostbyname_addrtype:000000000000017e .L133
C:\Users\stapi\AppData\Local\Temp\cch5AfG4.s:2111   .text.dns_gethostbyname_addrtype:000000000000028c .L141
C:\Users\stapi\AppData\Local\Temp\cch5AfG4.s:2026   .text.dns_gethostbyname_addrtype:0000000000000230 .L172
C:\Users\stapi\AppData\Local\Temp\cch5AfG4.s:1897   .text.dns_gethostbyname_addrtype:0000000000000194 .L140
C:\Users\stapi\AppData\Local\Temp\cch5AfG4.s:1954   .text.dns_gethostbyname_addrtype:00000000000001dc .L171
C:\Users\stapi\AppData\Local\Temp\cch5AfG4.s:2032   .text.dns_gethostbyname_addrtype:0000000000000234 .L142
C:\Users\stapi\AppData\Local\Temp\cch5AfG4.s:2193   .text.dns_gethostbyname_addrtype:00000000000002c0 .L134
C:\Users\stapi\AppData\Local\Temp\cch5AfG4.s:2042   .text.dns_gethostbyname_addrtype:000000000000023e .L136
C:\Users\stapi\AppData\Local\Temp\cch5AfG4.s:2037   .text.dns_gethostbyname_addrtype:0000000000000238 .L169
C:\Users\stapi\AppData\Local\Temp\cch5AfG4.s:5457   .debug_abbrev:0000000000000000 .Ldebug_abbrev0
C:\Users\stapi\AppData\Local\Temp\cch5AfG4.s:8766   .debug_str:0000000000000a1f .LASF201
C:\Users\stapi\AppData\Local\Temp\cch5AfG4.s:8546   .debug_str:0000000000000490 .LASF202
C:\Users\stapi\AppData\Local\Temp\cch5AfG4.s:8530   .debug_str:00000000000003b9 .LASF203
C:\Users\stapi\AppData\Local\Temp\cch5AfG4.s:8234   .debug_ranges:0000000000000000 .Ldebug_ranges0
C:\Users\stapi\AppData\Local\Temp\cch5AfG4.s:8364   .debug_line:0000000000000000 .Ldebug_line0
C:\Users\stapi\AppData\Local\Temp\cch5AfG4.s:8408   .debug_str:00000000000000f6 .LASF0
C:\Users\stapi\AppData\Local\Temp\cch5AfG4.s:8610   .debug_str:0000000000000680 .LASF2
C:\Users\stapi\AppData\Local\Temp\cch5AfG4.s:8748   .debug_str:00000000000009b3 .LASF1
C:\Users\stapi\AppData\Local\Temp\cch5AfG4.s:8664   .debug_str:00000000000007cf .LASF3
C:\Users\stapi\AppData\Local\Temp\cch5AfG4.s:8700   .debug_str:0000000000000897 .LASF4
C:\Users\stapi\AppData\Local\Temp\cch5AfG4.s:8638   .debug_str:0000000000000738 .LASF5
C:\Users\stapi\AppData\Local\Temp\cch5AfG4.s:8492   .debug_str:00000000000002d7 .LASF6
C:\Users\stapi\AppData\Local\Temp\cch5AfG4.s:8750   .debug_str:00000000000009bf .LASF7
C:\Users\stapi\AppData\Local\Temp\cch5AfG4.s:8644   .debug_str:0000000000000758 .LASF8
C:\Users\stapi\AppData\Local\Temp\cch5AfG4.s:8702   .debug_str:00000000000008a5 .LASF9
C:\Users\stapi\AppData\Local\Temp\cch5AfG4.s:8682   .debug_str:0000000000000839 .LASF10
C:\Users\stapi\AppData\Local\Temp\cch5AfG4.s:8574   .debug_str:00000000000005a5 .LASF11
C:\Users\stapi\AppData\Local\Temp\cch5AfG4.s:8484   .debug_str:0000000000000294 .LASF12
C:\Users\stapi\AppData\Local\Temp\cch5AfG4.s:8462   .debug_str:0000000000000220 .LASF13
C:\Users\stapi\AppData\Local\Temp\cch5AfG4.s:8562   .debug_str:0000000000000567 .LASF14
C:\Users\stapi\AppData\Local\Temp\cch5AfG4.s:8626   .debug_str:0000000000000703 .LASF15
C:\Users\stapi\AppData\Local\Temp\cch5AfG4.s:8460   .debug_str:0000000000000217 .LASF16
C:\Users\stapi\AppData\Local\Temp\cch5AfG4.s:8512   .debug_str:0000000000000367 .LASF17
C:\Users\stapi\AppData\Local\Temp\cch5AfG4.s:8550   .debug_str:0000000000000523 .LASF18
C:\Users\stapi\AppData\Local\Temp\cch5AfG4.s:8588   .debug_str:00000000000005f5 .LASF19
C:\Users\stapi\AppData\Local\Temp\cch5AfG4.s:8534   .debug_str:000000000000044b .LASF20
C:\Users\stapi\AppData\Local\Temp\cch5AfG4.s:8424   .debug_str:000000000000013f .LASF21
C:\Users\stapi\AppData\Local\Temp\cch5AfG4.s:8636   .debug_str:0000000000000732 .LASF22
C:\Users\stapi\AppData\Local\Temp\cch5AfG4.s:8744   .debug_str:000000000000099e .LASF64
C:\Users\stapi\AppData\Local\Temp\cch5AfG4.s:8736   .debug_str:0000000000000960 .LASF23
C:\Users\stapi\AppData\Local\Temp\cch5AfG4.s:8776   .debug_str:0000000000000b3d .LASF24
C:\Users\stapi\AppData\Local\Temp\cch5AfG4.s:8630   .debug_str:0000000000000713 .LASF25
C:\Users\stapi\AppData\Local\Temp\cch5AfG4.s:8544   .debug_str:0000000000000484 .LASF26
C:\Users\stapi\AppData\Local\Temp\cch5AfG4.s:8760   .debug_str:00000000000009f8 .LASF27
C:\Users\stapi\AppData\Local\Temp\cch5AfG4.s:8658   .debug_str:00000000000007a9 .LASF28
C:\Users\stapi\AppData\Local\Temp\cch5AfG4.s:8496   .debug_str:00000000000002f0 .LASF29
C:\Users\stapi\AppData\Local\Temp\cch5AfG4.s:8542   .debug_str:0000000000000475 .LASF30
C:\Users\stapi\AppData\Local\Temp\cch5AfG4.s:8402   .debug_str:00000000000000d8 .LASF31
C:\Users\stapi\AppData\Local\Temp\cch5AfG4.s:8452   .debug_str:00000000000001ec .LASF32
C:\Users\stapi\AppData\Local\Temp\cch5AfG4.s:8666   .debug_str:00000000000007d9 .LASF33
C:\Users\stapi\AppData\Local\Temp\cch5AfG4.s:8754   .debug_str:00000000000009d9 .LASF34
C:\Users\stapi\AppData\Local\Temp\cch5AfG4.s:8580   .debug_str:00000000000005ca .LASF35
C:\Users\stapi\AppData\Local\Temp\cch5AfG4.s:8728   .debug_str:0000000000000933 .LASF36
C:\Users\stapi\AppData\Local\Temp\cch5AfG4.s:8442   .debug_str:00000000000001b8 .LASF37
C:\Users\stapi\AppData\Local\Temp\cch5AfG4.s:8400   .debug_str:00000000000000cf .LASF38
C:\Users\stapi\AppData\Local\Temp\cch5AfG4.s:8404   .debug_str:00000000000000e0 .LASF39
C:\Users\stapi\AppData\Local\Temp\cch5AfG4.s:8418   .debug_str:0000000000000128 .LASF40
C:\Users\stapi\AppData\Local\Temp\cch5AfG4.s:8448   .debug_str:00000000000001d3 .LASF41
C:\Users\stapi\AppData\Local\Temp\cch5AfG4.s:8518   .debug_str:000000000000037f .LASF42
C:\Users\stapi\AppData\Local\Temp\cch5AfG4.s:8606   .debug_str:0000000000000667 .LASF43
C:\Users\stapi\AppData\Local\Temp\cch5AfG4.s:8770   .debug_str:0000000000000b23 .LASF44
C:\Users\stapi\AppData\Local\Temp\cch5AfG4.s:8396   .debug_str:00000000000000c0 .LASF45
C:\Users\stapi\AppData\Local\Temp\cch5AfG4.s:8392   .debug_str:0000000000000095 .LASF46
C:\Users\stapi\AppData\Local\Temp\cch5AfG4.s:8772   .debug_str:0000000000000b2f .LASF47
C:\Users\stapi\AppData\Local\Temp\cch5AfG4.s:8502   .debug_str:000000000000031b .LASF48
C:\Users\stapi\AppData\Local\Temp\cch5AfG4.s:8526   .debug_str:00000000000003a6 .LASF49
C:\Users\stapi\AppData\Local\Temp\cch5AfG4.s:8520   .debug_str:0000000000000387 .LASF56
C:\Users\stapi\AppData\Local\Temp\cch5AfG4.s:8412   .debug_str:000000000000010d .LASF50
C:\Users\stapi\AppData\Local\Temp\cch5AfG4.s:8516   .debug_str:0000000000000377 .LASF51
C:\Users\stapi\AppData\Local\Temp\cch5AfG4.s:8508   .debug_str:0000000000000358 .LASF52
C:\Users\stapi\AppData\Local\Temp\cch5AfG4.s:8506   .debug_str:000000000000034a .LASF53
C:\Users\stapi\AppData\Local\Temp\cch5AfG4.s:8398   .debug_str:00000000000000c9 .LASF54
C:\Users\stapi\AppData\Local\Temp\cch5AfG4.s:8628   .debug_str:000000000000070c .LASF55
C:\Users\stapi\AppData\Local\Temp\cch5AfG4.s:8662   .debug_str:00000000000007c6 .LASF57
C:\Users\stapi\AppData\Local\Temp\cch5AfG4.s:8716   .debug_str:00000000000008fa .LASF58
C:\Users\stapi\AppData\Local\Temp\cch5AfG4.s:8642   .debug_str:000000000000074d .LASF59
C:\Users\stapi\AppData\Local\Temp\cch5AfG4.s:8454   .debug_str:00000000000001f8 .LASF84
C:\Users\stapi\AppData\Local\Temp\cch5AfG4.s:8704   .debug_str:00000000000008b0 .LASF60
C:\Users\stapi\AppData\Local\Temp\cch5AfG4.s:8706   .debug_str:00000000000008bf .LASF61
C:\Users\stapi\AppData\Local\Temp\cch5AfG4.s:8576   .debug_str:00000000000005b3 .LASF62
C:\Users\stapi\AppData\Local\Temp\cch5AfG4.s:8764   .debug_str:0000000000000a15 .LASF63
C:\Users\stapi\AppData\Local\Temp\cch5AfG4.s:8480   .debug_str:0000000000000282 .LASF65
C:\Users\stapi\AppData\Local\Temp\cch5AfG4.s:8674   .debug_str:0000000000000804 .LASF66
C:\Users\stapi\AppData\Local\Temp\cch5AfG4.s:8654   .debug_str:0000000000000793 .LASF67
C:\Users\stapi\AppData\Local\Temp\cch5AfG4.s:8586   .debug_str:00000000000005e8 .LASF68
C:\Users\stapi\AppData\Local\Temp\cch5AfG4.s:8380   .debug_str:000000000000004d .LASF69
C:\Users\stapi\AppData\Local\Temp\cch5AfG4.s:8708   .debug_str:00000000000008ce .LASF70
C:\Users\stapi\AppData\Local\Temp\cch5AfG4.s:8608   .debug_str:0000000000000671 .LASF71
C:\Users\stapi\AppData\Local\Temp\cch5AfG4.s:8600   .debug_str:0000000000000644 .LASF72
C:\Users\stapi\AppData\Local\Temp\cch5AfG4.s:8670   .debug_str:00000000000007e9 .LASF73
C:\Users\stapi\AppData\Local\Temp\cch5AfG4.s:8572   .debug_str:0000000000000599 .LASF74
C:\Users\stapi\AppData\Local\Temp\cch5AfG4.s:8536   .debug_str:0000000000000450 .LASF75
C:\Users\stapi\AppData\Local\Temp\cch5AfG4.s:8468   .debug_str:0000000000000241 .LASF76
C:\Users\stapi\AppData\Local\Temp\cch5AfG4.s:8500   .debug_str:0000000000000306 .LASF77
C:\Users\stapi\AppData\Local\Temp\cch5AfG4.s:8464   .debug_str:0000000000000227 .LASF78
C:\Users\stapi\AppData\Local\Temp\cch5AfG4.s:8648   .debug_str:000000000000076e .LASF79
C:\Users\stapi\AppData\Local\Temp\cch5AfG4.s:8768   .debug_str:0000000000000b18 .LASF80
C:\Users\stapi\AppData\Local\Temp\cch5AfG4.s:8548   .debug_str:0000000000000519 .LASF81
C:\Users\stapi\AppData\Local\Temp\cch5AfG4.s:8440   .debug_str:00000000000001a9 .LASF82
C:\Users\stapi\AppData\Local\Temp\cch5AfG4.s:8532   .debug_str:0000000000000442 .LASF83
C:\Users\stapi\AppData\Local\Temp\cch5AfG4.s:8504   .debug_str:0000000000000324 .LASF85
C:\Users\stapi\AppData\Local\Temp\cch5AfG4.s:8742   .debug_str:000000000000097c .LASF86
C:\Users\stapi\AppData\Local\Temp\cch5AfG4.s:8394   .debug_str:000000000000009e .LASF87
C:\Users\stapi\AppData\Local\Temp\cch5AfG4.s:8622   .debug_str:00000000000006d4 .LASF88
C:\Users\stapi\AppData\Local\Temp\cch5AfG4.s:8632   .debug_str:000000000000071b .LASF89
C:\Users\stapi\AppData\Local\Temp\cch5AfG4.s:8370   .debug_str:000000000000001f .LASF90
C:\Users\stapi\AppData\Local\Temp\cch5AfG4.s:8656   .debug_str:00000000000007a0 .LASF91
C:\Users\stapi\AppData\Local\Temp\cch5AfG4.s:8758   .debug_str:00000000000009ee .LASF92
C:\Users\stapi\AppData\Local\Temp\cch5AfG4.s:8410   .debug_str:0000000000000103 .LASF93
C:\Users\stapi\AppData\Local\Temp\cch5AfG4.s:8382   .debug_str:0000000000000061 .LASF94
C:\Users\stapi\AppData\Local\Temp\cch5AfG4.s:8472   .debug_str:000000000000025f .LASF95
C:\Users\stapi\AppData\Local\Temp\cch5AfG4.s:8594   .debug_str:000000000000060f .LASF96
C:\Users\stapi\AppData\Local\Temp\cch5AfG4.s:8558   .debug_str:000000000000054b .LASF97
C:\Users\stapi\AppData\Local\Temp\cch5AfG4.s:8660   .debug_str:00000000000007b8 .LASF98
C:\Users\stapi\AppData\Local\Temp\cch5AfG4.s:8426   .debug_str:0000000000000145 .LASF99
C:\Users\stapi\AppData\Local\Temp\cch5AfG4.s:8738   .debug_str:0000000000000967 .LASF100
C:\Users\stapi\AppData\Local\Temp\cch5AfG4.s:8676   .debug_str:0000000000000811 .LASF101
C:\Users\stapi\AppData\Local\Temp\cch5AfG4.s:8488   .debug_str:00000000000002b4 .LASF102
C:\Users\stapi\AppData\Local\Temp\cch5AfG4.s:8378   .debug_str:000000000000003a .LASF103
C:\Users\stapi\AppData\Local\Temp\cch5AfG4.s:8564   .debug_str:000000000000056f .LASF104
C:\Users\stapi\AppData\Local\Temp\cch5AfG4.s:8372   .debug_str:0000000000000027 .LASF105
C:\Users\stapi\AppData\Local\Temp\cch5AfG4.s:8374   .debug_str:000000000000002e .LASF106
C:\Users\stapi\AppData\Local\Temp\cch5AfG4.s:8646   .debug_str:0000000000000761 .LASF107
C:\Users\stapi\AppData\Local\Temp\cch5AfG4.s:8552   .debug_str:0000000000000528 .LASF108
C:\Users\stapi\AppData\Local\Temp\cch5AfG4.s:8592   .debug_str:0000000000000605 .LASF109
C:\Users\stapi\AppData\Local\Temp\cch5AfG4.s:8690   .debug_str:000000000000086a .LASF110
C:\Users\stapi\AppData\Local\Temp\cch5AfG4.s:8384   .debug_str:000000000000006c .LASF111
C:\Users\stapi\AppData\Local\Temp\cch5AfG4.s:8698   .debug_str:0000000000000892 .LASF112
C:\Users\stapi\AppData\Local\Temp\cch5AfG4.s:8726   .debug_str:0000000000000928 .LASF113
C:\Users\stapi\AppData\Local\Temp\cch5AfG4.s:8730   .debug_str:000000000000093c .LASF114
C:\Users\stapi\AppData\Local\Temp\cch5AfG4.s:8524   .debug_str:0000000000000398 .LASF115
C:\Users\stapi\AppData\Local\Temp\cch5AfG4.s:8718   .debug_str:00000000000008ff .LASF116
C:\Users\stapi\AppData\Local\Temp\cch5AfG4.s:8368   .debug_str:0000000000000010 .LASF117
C:\Users\stapi\AppData\Local\Temp\cch5AfG4.s:8490   .debug_str:00000000000002c7 .LASF118
C:\Users\stapi\AppData\Local\Temp\cch5AfG4.s:8510   .debug_str:0000000000000360 .LASF119
C:\Users\stapi\AppData\Local\Temp\cch5AfG4.s:8774   .debug_str:0000000000000b38 .LASF120
C:\Users\stapi\AppData\Local\Temp\cch5AfG4.s:8722   .debug_str:0000000000000919 .LASF121
C:\Users\stapi\AppData\Local\Temp\cch5AfG4.s:8470   .debug_str:0000000000000254 .LASF122
C:\Users\stapi\AppData\Local\Temp\cch5AfG4.s:8732   .debug_str:000000000000094d .LASF123
C:\Users\stapi\AppData\Local\Temp\cch5AfG4.s:8456   .debug_str:000000000000020a .LASF124
C:\Users\stapi\AppData\Local\Temp\cch5AfG4.s:8712   .debug_str:00000000000008e5 .LASF125
C:\Users\stapi\AppData\Local\Temp\cch5AfG4.s:8668   .debug_str:00000000000007e4 .LASF126
C:\Users\stapi\AppData\Local\Temp\cch5AfG4.s:8694   .debug_str:000000000000087e .LASF127
C:\Users\stapi\AppData\Local\Temp\cch5AfG4.s:8446   .debug_str:00000000000001cd .LASF128
C:\Users\stapi\AppData\Local\Temp\cch5AfG4.s:8568   .debug_str:0000000000000582 .LASF129
C:\Users\stapi\AppData\Local\Temp\cch5AfG4.s:8416   .debug_str:000000000000011f .LASF130
C:\Users\stapi\AppData\Local\Temp\cch5AfG4.s:8680   .debug_str:0000000000000828 .LASF131
C:\Users\stapi\AppData\Local\Temp\cch5AfG4.s:8604   .debug_str:000000000000065d .LASF132
C:\Users\stapi\AppData\Local\Temp\cch5AfG4.s:8710   .debug_str:00000000000008db .LASF133
C:\Users\stapi\AppData\Local\Temp\cch5AfG4.s:8652   .debug_str:0000000000000786 .LASF134
C:\Users\stapi\AppData\Local\Temp\cch5AfG4.s:8522   .debug_str:000000000000038c .LASF135
C:\Users\stapi\AppData\Local\Temp\cch5AfG4.s:8596   .debug_str:000000000000061b .LASF140
C:\Users\stapi\AppData\Local\Temp\cch5AfG4.s:1562   .text.dns_gethostbyname_addrtype:0000000000000000 .LFB23
C:\Users\stapi\AppData\Local\Temp\cch5AfG4.s:2238   .text.dns_gethostbyname_addrtype:00000000000002f6 .LFE23
C:\Users\stapi\AppData\Local\Temp\cch5AfG4.s:8570   .debug_str:0000000000000590 .LASF136
C:\Users\stapi\AppData\Local\Temp\cch5AfG4.s:6466   .debug_loc:0000000000000000 .LLST44
C:\Users\stapi\AppData\Local\Temp\cch5AfG4.s:6528   .debug_loc:0000000000000090 .LLST45
C:\Users\stapi\AppData\Local\Temp\cch5AfG4.s:6568   .debug_loc:00000000000000ee .LLST46
C:\Users\stapi\AppData\Local\Temp\cch5AfG4.s:8714   .debug_str:00000000000008ed .LASF137
C:\Users\stapi\AppData\Local\Temp\cch5AfG4.s:6630   .debug_loc:000000000000017e .LLST47
C:\Users\stapi\AppData\Local\Temp\cch5AfG4.s:8746   .debug_str:00000000000009a6 .LASF138
C:\Users\stapi\AppData\Local\Temp\cch5AfG4.s:6696   .debug_loc:0000000000000219 .LLST48
C:\Users\stapi\AppData\Local\Temp\cch5AfG4.s:8438   .debug_str:000000000000019d .LASF139
C:\Users\stapi\AppData\Local\Temp\cch5AfG4.s:6721   .debug_loc:0000000000000253 .LLST49
C:\Users\stapi\AppData\Local\Temp\cch5AfG4.s:1626   .text.dns_gethostbyname_addrtype:000000000000004e .LBB85
C:\Users\stapi\AppData\Local\Temp\cch5AfG4.s:6748   .debug_loc:000000000000029d .LLST50
C:\Users\stapi\AppData\Local\Temp\cch5AfG4.s:1690   .text.dns_gethostbyname_addrtype:000000000000009e .LVL160
C:\Users\stapi\AppData\Local\Temp\cch5AfG4.s:1725   .text.dns_gethostbyname_addrtype:00000000000000c8 .LBB89
C:\Users\stapi\AppData\Local\Temp\cch5AfG4.s:6761   .debug_loc:00000000000002bd .LLST51
C:\Users\stapi\AppData\Local\Temp\cch5AfG4.s:6812   .debug_loc:0000000000000342 .LLST52
C:\Users\stapi\AppData\Local\Temp\cch5AfG4.s:6823   .debug_loc:0000000000000360 .LLST53
C:\Users\stapi\AppData\Local\Temp\cch5AfG4.s:6838   .debug_loc:0000000000000389 .LLST54
C:\Users\stapi\AppData\Local\Temp\cch5AfG4.s:6889   .debug_loc:00000000000003f7 .LLST55
C:\Users\stapi\AppData\Local\Temp\cch5AfG4.s:6935   .debug_loc:0000000000000456 .LLST56
C:\Users\stapi\AppData\Local\Temp\cch5AfG4.s:6971   .debug_loc:00000000000004b0 .LLST57
C:\Users\stapi\AppData\Local\Temp\cch5AfG4.s:1845   .text.dns_gethostbyname_addrtype:000000000000015c .LBB93
C:\Users\stapi\AppData\Local\Temp\cch5AfG4.s:6978   .debug_loc:00000000000004c3 .LLST58
C:\Users\stapi\AppData\Local\Temp\cch5AfG4.s:7031   .debug_loc:000000000000053c .LLST59
C:\Users\stapi\AppData\Local\Temp\cch5AfG4.s:2043   .text.dns_gethostbyname_addrtype:000000000000023e .LBB95
C:\Users\stapi\AppData\Local\Temp\cch5AfG4.s:7046   .debug_loc:0000000000000565 .LLST60
C:\Users\stapi\AppData\Local\Temp\cch5AfG4.s:7057   .debug_loc:0000000000000583 .LLST61
C:\Users\stapi\AppData\Local\Temp\cch5AfG4.s:7072   .debug_loc:00000000000005ac .LLST62
C:\Users\stapi\AppData\Local\Temp\cch5AfG4.s:2200   .text.dns_gethostbyname_addrtype:00000000000002c8 .LVL218
C:\Users\stapi\AppData\Local\Temp\cch5AfG4.s:2212   .text.dns_gethostbyname_addrtype:00000000000002de .LVL220
C:\Users\stapi\AppData\Local\Temp\cch5AfG4.s:2052   .text.dns_gethostbyname_addrtype:0000000000000252 .LVL204
C:\Users\stapi\AppData\Local\Temp\cch5AfG4.s:2181   .text.dns_gethostbyname_addrtype:00000000000002b4 .LVL215
C:\Users\stapi\AppData\Local\Temp\cch5AfG4.s:2226   .text.dns_gethostbyname_addrtype:00000000000002f2 .LVL222
C:\Users\stapi\AppData\Local\Temp\cch5AfG4.s:1840   .text.dns_gethostbyname_addrtype:0000000000000158 .LVL174
C:\Users\stapi\AppData\Local\Temp\cch5AfG4.s:1927   .text.dns_gethostbyname_addrtype:00000000000001bc .LVL186
C:\Users\stapi\AppData\Local\Temp\cch5AfG4.s:2125   .text.dns_gethostbyname_addrtype:00000000000002a0 .LVL211
C:\Users\stapi\AppData\Local\Temp\cch5AfG4.s:1601   .text.dns_gethostbyname_addrtype:0000000000000026 .LVL152
C:\Users\stapi\AppData\Local\Temp\cch5AfG4.s:1619   .text.dns_gethostbyname_addrtype:0000000000000044 .LVL155
C:\Users\stapi\AppData\Local\Temp\cch5AfG4.s:1663   .text.dns_gethostbyname_addrtype:000000000000006a .LVL158
C:\Users\stapi\AppData\Local\Temp\cch5AfG4.s:8390   .debug_str:0000000000000083 .LASF141
C:\Users\stapi\AppData\Local\Temp\cch5AfG4.s:2245   .text.dns_gethostbyname:0000000000000000 .LFB22
C:\Users\stapi\AppData\Local\Temp\cch5AfG4.s:2255   .text.dns_gethostbyname:000000000000000a .LFE22
C:\Users\stapi\AppData\Local\Temp\cch5AfG4.s:7079   .debug_loc:00000000000005bf .LLST63
C:\Users\stapi\AppData\Local\Temp\cch5AfG4.s:7093   .debug_loc:00000000000005e0 .LLST64
C:\Users\stapi\AppData\Local\Temp\cch5AfG4.s:7107   .debug_loc:0000000000000601 .LLST65
C:\Users\stapi\AppData\Local\Temp\cch5AfG4.s:7121   .debug_loc:0000000000000622 .LLST66
C:\Users\stapi\AppData\Local\Temp\cch5AfG4.s:2253   .text.dns_gethostbyname:000000000000000a .LVL224
C:\Users\stapi\AppData\Local\Temp\cch5AfG4.s:8756   .debug_str:00000000000009e2 .LASF155
C:\Users\stapi\AppData\Local\Temp\cch5AfG4.s:8478   .debug_str:000000000000027d .LASF142
C:\Users\stapi\AppData\Local\Temp\cch5AfG4.s:8482   .debug_str:000000000000028e .LASF143
C:\Users\stapi\AppData\Local\Temp\cch5AfG4.s:8696   .debug_str:000000000000088c .LASF144
C:\Users\stapi\AppData\Local\Temp\cch5AfG4.s:8556   .debug_str:0000000000000543 .LASF145
C:\Users\stapi\AppData\Local\Temp\cch5AfG4.s:8422   .debug_str:0000000000000136 .LASF153
C:\Users\stapi\AppData\Local\Temp\cch5AfG4.s:736    .text.dns_recv:0000000000000000 .LFB20
C:\Users\stapi\AppData\Local\Temp\cch5AfG4.s:1406   .text.dns_recv:000000000000037a .LFE20
C:\Users\stapi\AppData\Local\Temp\cch5AfG4.s:7135   .debug_loc:0000000000000643 .LLST18
C:\Users\stapi\AppData\Local\Temp\cch5AfG4.s:7149   .debug_loc:0000000000000664 .LLST19
C:\Users\stapi\AppData\Local\Temp\cch5AfG4.s:7163   .debug_loc:0000000000000685 .LLST20
C:\Users\stapi\AppData\Local\Temp\cch5AfG4.s:7200   .debug_loc:00000000000006e0 .LLST21
C:\Users\stapi\AppData\Local\Temp\cch5AfG4.s:8686   .debug_str:000000000000085d .LASF146
C:\Users\stapi\AppData\Local\Temp\cch5AfG4.s:7222   .debug_loc:0000000000000717 .LLST22
C:\Users\stapi\AppData\Local\Temp\cch5AfG4.s:7236   .debug_loc:0000000000000738 .LLST23
C:\Users\stapi\AppData\Local\Temp\cch5AfG4.s:7268   .debug_loc:0000000000000787 .LLST24
C:\Users\stapi\AppData\Local\Temp\cch5AfG4.s:8474   .debug_str:000000000000026a .LASF147
C:\Users\stapi\AppData\Local\Temp\cch5AfG4.s:7279   .debug_loc:00000000000007a5 .LLST25
C:\Users\stapi\AppData\Local\Temp\cch5AfG4.s:8640   .debug_str:0000000000000742 .LASF148
C:\Users\stapi\AppData\Local\Temp\cch5AfG4.s:7325   .debug_loc:0000000000000817 .LLST26
C:\Users\stapi\AppData\Local\Temp\cch5AfG4.s:8514   .debug_str:000000000000036e .LASF149
C:\Users\stapi\AppData\Local\Temp\cch5AfG4.s:7332   .debug_loc:000000000000082a .LLST27
C:\Users\stapi\AppData\Local\Temp\cch5AfG4.s:8498   .debug_str:00000000000002f8 .LASF204
C:\Users\stapi\AppData\Local\Temp\cch5AfG4.s:7351   .debug_loc:000000000000085e .LLST28
C:\Users\stapi\AppData\Local\Temp\cch5AfG4.s:1119   .text.dns_recv:000000000000021a .LBB55
C:\Users\stapi\AppData\Local\Temp\cch5AfG4.s:1202   .text.dns_recv:0000000000000290 .LBE55
C:\Users\stapi\AppData\Local\Temp\cch5AfG4.s:8420   .debug_str:000000000000012e .LASF150
C:\Users\stapi\AppData\Local\Temp\cch5AfG4.s:1142   .text.dns_recv:0000000000000246 .LBB56
C:\Users\stapi\AppData\Local\Temp\cch5AfG4.s:7378   .debug_loc:0000000000000894 .LLST38
C:\Users\stapi\AppData\Local\Temp\cch5AfG4.s:7385   .debug_loc:00000000000008a7 .LLST39
C:\Users\stapi\AppData\Local\Temp\cch5AfG4.s:1183   .text.dns_recv:000000000000027e .LVL113
C:\Users\stapi\AppData\Local\Temp\cch5AfG4.s:1128   .text.dns_recv:000000000000022a .LVL107
C:\Users\stapi\AppData\Local\Temp\cch5AfG4.s:1153   .text.dns_recv:0000000000000252 .LVL110
C:\Users\stapi\AppData\Local\Temp\cch5AfG4.s:1157   .text.dns_recv:000000000000025c .LVL111
C:\Users\stapi\AppData\Local\Temp\cch5AfG4.s:868    .text.dns_recv:00000000000000ba .LBB36
C:\Users\stapi\AppData\Local\Temp\cch5AfG4.s:7392   .debug_loc:00000000000008ba .LLST29
C:\Users\stapi\AppData\Local\Temp\cch5AfG4.s:7405   .debug_loc:00000000000008da .LLST30
C:\Users\stapi\AppData\Local\Temp\cch5AfG4.s:7416   .debug_loc:00000000000008f8 .LLST31
C:\Users\stapi\AppData\Local\Temp\cch5AfG4.s:7437   .debug_loc:000000000000092e .LLST32
C:\Users\stapi\AppData\Local\Temp\cch5AfG4.s:7448   .debug_loc:000000000000094c .LLST33
C:\Users\stapi\AppData\Local\Temp\cch5AfG4.s:7467   .debug_loc:0000000000000980 .LLST34
C:\Users\stapi\AppData\Local\Temp\cch5AfG4.s:1230   .text.dns_recv:00000000000002ba .LBB42
C:\Users\stapi\AppData\Local\Temp\cch5AfG4.s:1242   .text.dns_recv:00000000000002d0 .LBE42
C:\Users\stapi\AppData\Local\Temp\cch5AfG4.s:7474   .debug_loc:0000000000000993 .LLST35
C:\Users\stapi\AppData\Local\Temp\cch5AfG4.s:1213   .text.dns_recv:000000000000029e .LVL116
C:\Users\stapi\AppData\Local\Temp\cch5AfG4.s:903    .text.dns_recv:00000000000000d6 .LVL86
C:\Users\stapi\AppData\Local\Temp\cch5AfG4.s:938    .text.dns_recv:0000000000000108 .LVL91
C:\Users\stapi\AppData\Local\Temp\cch5AfG4.s:990    .text.dns_recv:000000000000015e .LBB48
C:\Users\stapi\AppData\Local\Temp\cch5AfG4.s:7481   .debug_loc:00000000000009a6 .LLST36
C:\Users\stapi\AppData\Local\Temp\cch5AfG4.s:7496   .debug_loc:00000000000009cf .LLST37
C:\Users\stapi\AppData\Local\Temp\cch5AfG4.s:1034   .text.dns_recv:0000000000000198 .LVL99
C:\Users\stapi\AppData\Local\Temp\cch5AfG4.s:1063   .text.dns_recv:00000000000001c4 .LVL102
C:\Users\stapi\AppData\Local\Temp\cch5AfG4.s:1268   .text.dns_recv:00000000000002e2 .LBB61
C:\Users\stapi\AppData\Local\Temp\cch5AfG4.s:7517   .debug_loc:0000000000000a05 .LLST40
C:\Users\stapi\AppData\Local\Temp\cch5AfG4.s:1328   .text.dns_recv:000000000000031e .LBB63
C:\Users\stapi\AppData\Local\Temp\cch5AfG4.s:1336   .text.dns_recv:0000000000000324 .LBE63
C:\Users\stapi\AppData\Local\Temp\cch5AfG4.s:832    .text.dns_recv:000000000000006e .LVL78
C:\Users\stapi\AppData\Local\Temp\cch5AfG4.s:839    .text.dns_recv:000000000000007c .LVL80
C:\Users\stapi\AppData\Local\Temp\cch5AfG4.s:967    .text.dns_recv:0000000000000134 .LVL93
C:\Users\stapi\AppData\Local\Temp\cch5AfG4.s:1092   .text.dns_recv:00000000000001ea .LVL105
C:\Users\stapi\AppData\Local\Temp\cch5AfG4.s:1288   .text.dns_recv:00000000000002fc .LVL124
C:\Users\stapi\AppData\Local\Temp\cch5AfG4.s:1293   .text.dns_recv:0000000000000308 .LVL125
C:\Users\stapi\AppData\Local\Temp\cch5AfG4.s:1348   .text.dns_recv:0000000000000336 .LVL129
C:\Users\stapi\AppData\Local\Temp\cch5AfG4.s:1372   .text.dns_recv:000000000000034e .LVL133
C:\Users\stapi\AppData\Local\Temp\cch5AfG4.s:1386   .text.dns_recv:0000000000000366 .LVL135
C:\Users\stapi\AppData\Local\Temp\cch5AfG4.s:789    .text.dns_recv:0000000000000028 .LVL73
C:\Users\stapi\AppData\Local\Temp\cch5AfG4.s:802    .text.dns_recv:0000000000000042 .LVL74
C:\Users\stapi\AppData\Local\Temp\cch5AfG4.s:1355   .text.dns_recv:0000000000000340 .LVL130
C:\Users\stapi\AppData\Local\Temp\cch5AfG4.s:8762   .debug_str:0000000000000a00 .LASF151
C:\Users\stapi\AppData\Local\Temp\cch5AfG4.s:8684   .debug_str:000000000000084b .LASF152
C:\Users\stapi\AppData\Local\Temp\cch5AfG4.s:8428   .debug_str:000000000000014f .LASF154
C:\Users\stapi\AppData\Local\Temp\cch5AfG4.s:487    .text.dns_check_entry:0000000000000000 .LFB17
C:\Users\stapi\AppData\Local\Temp\cch5AfG4.s:730    .text.dns_check_entry:0000000000000146 .LFE17
C:\Users\stapi\AppData\Local\Temp\cch5AfG4.s:7530   .debug_loc:0000000000000a25 .LLST11
C:\Users\stapi\AppData\Local\Temp\cch5AfG4.s:7581   .debug_loc:0000000000000a9c .LLST12
C:\Users\stapi\AppData\Local\Temp\cch5AfG4.s:542    .text.dns_check_entry:000000000000005e .LBB14
C:\Users\stapi\AppData\Local\Temp\cch5AfG4.s:579    .text.dns_check_entry:0000000000000086 .LBE14
C:\Users\stapi\AppData\Local\Temp\cch5AfG4.s:7723   .debug_loc:0000000000000b92 .LLST13
C:\Users\stapi\AppData\Local\Temp\cch5AfG4.s:7730   .debug_loc:0000000000000ba5 .LLST14
C:\Users\stapi\AppData\Local\Temp\cch5AfG4.s:553    .text.dns_check_entry:0000000000000068 .LVL50
C:\Users\stapi\AppData\Local\Temp\cch5AfG4.s:661    .text.dns_check_entry:00000000000000fe .LBB16
C:\Users\stapi\AppData\Local\Temp\cch5AfG4.s:683    .text.dns_check_entry:000000000000010e .LBE16
C:\Users\stapi\AppData\Local\Temp\cch5AfG4.s:7791   .debug_loc:0000000000000c08 .LLST15
C:\Users\stapi\AppData\Local\Temp\cch5AfG4.s:7809   .debug_loc:0000000000000c2a .LLST16
C:\Users\stapi\AppData\Local\Temp\cch5AfG4.s:670    .text.dns_check_entry:0000000000000104 .LBB18
C:\Users\stapi\AppData\Local\Temp\cch5AfG4.s:680    .text.dns_check_entry:000000000000010e .LBE18
C:\Users\stapi\AppData\Local\Temp\cch5AfG4.s:7817   .debug_loc:0000000000000c3e .LLST17
C:\Users\stapi\AppData\Local\Temp\cch5AfG4.s:516    .text.dns_check_entry:0000000000000032 .LVL47
C:\Users\stapi\AppData\Local\Temp\cch5AfG4.s:602    .text.dns_check_entry:00000000000000a8 .LVL55
C:\Users\stapi\AppData\Local\Temp\cch5AfG4.s:632    .text.dns_check_entry:00000000000000d8 .LVL58
C:\Users\stapi\AppData\Local\Temp\cch5AfG4.s:701    .text.dns_check_entry:0000000000000126 .LVL65
C:\Users\stapi\AppData\Local\Temp\cch5AfG4.s:8430   .debug_str:000000000000015f .LASF156
C:\Users\stapi\AppData\Local\Temp\cch5AfG4.s:8458   .debug_str:0000000000000210 .LASF157
C:\Users\stapi\AppData\Local\Temp\cch5AfG4.s:8612   .debug_str:0000000000000689 .LASF158
C:\Users\stapi\AppData\Local\Temp\cch5AfG4.s:8388   .debug_str:000000000000007d .LASF166
C:\Users\stapi\AppData\Local\Temp\cch5AfG4.s:8540   .debug_str:0000000000000466 .LASF159
C:\Users\stapi\AppData\Local\Temp\cch5AfG4.s:13     .text.dns_call_found:0000000000000000 .LFB14
C:\Users\stapi\AppData\Local\Temp\cch5AfG4.s:159    .text.dns_call_found:00000000000000ce .LFE14
C:\Users\stapi\AppData\Local\Temp\cch5AfG4.s:7835   .debug_loc:0000000000000c60 .LLST0
C:\Users\stapi\AppData\Local\Temp\cch5AfG4.s:7849   .debug_loc:0000000000000c81 .LLST1
C:\Users\stapi\AppData\Local\Temp\cch5AfG4.s:7860   .debug_loc:0000000000000c9f .LLST2
C:\Users\stapi\AppData\Local\Temp\cch5AfG4.s:61     .text.dns_call_found:0000000000000042 .LVL3
C:\Users\stapi\AppData\Local\Temp\cch5AfG4.s:119    .text.dns_call_found:00000000000000a4 .LVL8
C:\Users\stapi\AppData\Local\Temp\cch5AfG4.s:8678   .debug_str:000000000000081a .LASF160
C:\Users\stapi\AppData\Local\Temp\cch5AfG4.s:8616   .debug_str:00000000000006aa .LASF161
C:\Users\stapi\AppData\Local\Temp\cch5AfG4.s:8538   .debug_str:000000000000045d .LASF162
C:\Users\stapi\AppData\Local\Temp\cch5AfG4.s:8450   .debug_str:00000000000001e2 .LASF163
C:\Users\stapi\AppData\Local\Temp\cch5AfG4.s:8528   .debug_str:00000000000003b0 .LASF164
C:\Users\stapi\AppData\Local\Temp\cch5AfG4.s:8598   .debug_str:0000000000000636 .LASF165
C:\Users\stapi\AppData\Local\Temp\cch5AfG4.s:8366   .debug_str:0000000000000000 .LASF167
C:\Users\stapi\AppData\Local\Temp\cch5AfG4.s:8486   .debug_str:00000000000002ab .LASF168
C:\Users\stapi\AppData\Local\Temp\cch5AfG4.s:8494   .debug_str:00000000000002e2 .LASF169
C:\Users\stapi\AppData\Local\Temp\cch5AfG4.s:8650   .debug_str:000000000000077f .LASF170
C:\Users\stapi\AppData\Local\Temp\cch5AfG4.s:8614   .debug_str:0000000000000699 .LASF171
C:\Users\stapi\AppData\Local\Temp\cch5AfG4.s:8620   .debug_str:00000000000006ce .LASF172
C:\Users\stapi\AppData\Local\Temp\cch5AfG4.s:8414   .debug_str:0000000000000112 .LASF173
C:\Users\stapi\AppData\Local\Temp\cch5AfG4.s:8740   .debug_str:000000000000096c .LASF174
C:\Users\stapi\AppData\Local\Temp\cch5AfG4.s:8476   .debug_str:0000000000000272 .LASF175
C:\Users\stapi\AppData\Local\Temp\cch5AfG4.s:8688   .debug_str:0000000000000862 .LASF178
C:\Users\stapi\AppData\Local\Temp\cch5AfG4.s:1506   .text.dns_tmr:0000000000000000 .LFB7
C:\Users\stapi\AppData\Local\Temp\cch5AfG4.s:1551   .text.dns_tmr:0000000000000038 .LFE7
C:\Users\stapi\AppData\Local\Temp\cch5AfG4.s:1514   .text.dns_tmr:0000000000000008 .LBB73
C:\Users\stapi\AppData\Local\Temp\cch5AfG4.s:1545   .text.dns_tmr:0000000000000030 .LBE73
C:\Users\stapi\AppData\Local\Temp\cch5AfG4.s:7935   .debug_loc:0000000000000d29 .LLST43
C:\Users\stapi\AppData\Local\Temp\cch5AfG4.s:1523   .text.dns_tmr:0000000000000012 .LVL146
C:\Users\stapi\AppData\Local\Temp\cch5AfG4.s:1529   .text.dns_tmr:000000000000001c .LVL147
C:\Users\stapi\AppData\Local\Temp\cch5AfG4.s:1535   .text.dns_tmr:0000000000000026 .LVL148
C:\Users\stapi\AppData\Local\Temp\cch5AfG4.s:1541   .text.dns_tmr:0000000000000030 .LVL149
C:\Users\stapi\AppData\Local\Temp\cch5AfG4.s:8624   .debug_str:00000000000006f5 .LASF176
C:\Users\stapi\AppData\Local\Temp\cch5AfG4.s:1475   .text.dns_getserver:0000000000000000 .LFB6
C:\Users\stapi\AppData\Local\Temp\cch5AfG4.s:1499   .text.dns_getserver:000000000000001e .LFE6
C:\Users\stapi\AppData\Local\Temp\cch5AfG4.s:8432   .debug_str:000000000000017a .LASF177
C:\Users\stapi\AppData\Local\Temp\cch5AfG4.s:7958   .debug_loc:0000000000000d61 .LLST42
C:\Users\stapi\AppData\Local\Temp\cch5AfG4.s:8406   .debug_str:00000000000000e8 .LASF179
C:\Users\stapi\AppData\Local\Temp\cch5AfG4.s:1435   .text.dns_setserver:0000000000000000 .LFB5
C:\Users\stapi\AppData\Local\Temp\cch5AfG4.s:1468   .text.dns_setserver:0000000000000024 .LFE5
C:\Users\stapi\AppData\Local\Temp\cch5AfG4.s:7983   .debug_loc:0000000000000d9b .LLST41
C:\Users\stapi\AppData\Local\Temp\cch5AfG4.s:8582   .debug_str:00000000000005d1 .LASF180
C:\Users\stapi\AppData\Local\Temp\cch5AfG4.s:8720   .debug_str:0000000000000910 .LASF205
C:\Users\stapi\AppData\Local\Temp\cch5AfG4.s:1413   .text.dns_init:0000000000000000 .LFB4
C:\Users\stapi\AppData\Local\Temp\cch5AfG4.s:1428   .text.dns_init:0000000000000002 .LFE4
C:\Users\stapi\AppData\Local\Temp\cch5AfG4.s:175    .text.dns_send.isra.0:0000000000000000 .LFB25
C:\Users\stapi\AppData\Local\Temp\cch5AfG4.s:474    .text.dns_send.isra.0:00000000000001ac .LFE25
C:\Users\stapi\AppData\Local\Temp\cch5AfG4.s:7997   .debug_loc:0000000000000dbc .LLST3
C:\Users\stapi\AppData\Local\Temp\cch5AfG4.s:8033   .debug_loc:0000000000000e0f .LLST4
C:\Users\stapi\AppData\Local\Temp\cch5AfG4.s:8071   .debug_loc:0000000000000e6b .LLST5
C:\Users\stapi\AppData\Local\Temp\cch5AfG4.s:8082   .debug_loc:0000000000000e89 .LLST6
C:\Users\stapi\AppData\Local\Temp\cch5AfG4.s:8093   .debug_loc:0000000000000ea7 .LLST7
C:\Users\stapi\AppData\Local\Temp\cch5AfG4.s:8113   .debug_loc:0000000000000edc .LLST8
C:\Users\stapi\AppData\Local\Temp\cch5AfG4.s:8127   .debug_loc:0000000000000efa .LLST9
C:\Users\stapi\AppData\Local\Temp\cch5AfG4.s:8178   .debug_loc:0000000000000f5e .LLST10
C:\Users\stapi\AppData\Local\Temp\cch5AfG4.s:312    .text.dns_send.isra.0:00000000000000ba .LVL23
C:\Users\stapi\AppData\Local\Temp\cch5AfG4.s:332    .text.dns_send.isra.0:00000000000000da .LVL24
C:\Users\stapi\AppData\Local\Temp\cch5AfG4.s:379    .text.dns_send.isra.0:000000000000010c .LVL31
C:\Users\stapi\AppData\Local\Temp\cch5AfG4.s:402    .text.dns_send.isra.0:0000000000000126 .LVL37
C:\Users\stapi\AppData\Local\Temp\cch5AfG4.s:411    .text.dns_send.isra.0:000000000000013e .LVL38
C:\Users\stapi\AppData\Local\Temp\cch5AfG4.s:427    .text.dns_send.isra.0:000000000000015c .LVL40
C:\Users\stapi\AppData\Local\Temp\cch5AfG4.s:448    .text.dns_send.isra.0:000000000000017a .LVL42
C:\Users\stapi\AppData\Local\Temp\cch5AfG4.s:470    .text.dns_send.isra.0:00000000000001aa .LVL43
C:\Users\stapi\AppData\Local\Temp\cch5AfG4.s:228    .text.dns_send.isra.0:000000000000004a .LVL15
C:\Users\stapi\AppData\Local\Temp\cch5AfG4.s:250    .text.dns_send.isra.0:000000000000006a .LVL17
C:\Users\stapi\AppData\Local\Temp\cch5AfG4.s:286    .text.dns_send.isra.0:000000000000008c .LVL20
C:\Users\stapi\AppData\Local\Temp\cch5AfG4.s:293    .text.dns_send.isra.0:00000000000000a4 .LVL21
C:\Users\stapi\AppData\Local\Temp\cch5AfG4.s:8618   .debug_str:00000000000006c0 .LASF181
C:\Users\stapi\AppData\Local\Temp\cch5AfG4.s:8376   .debug_str:0000000000000035 .LASF182
C:\Users\stapi\AppData\Local\Temp\cch5AfG4.s:8724   .debug_str:000000000000091f .LASF183
C:\Users\stapi\AppData\Local\Temp\cch5AfG4.s:8692   .debug_str:0000000000000875 .LASF184
C:\Users\stapi\AppData\Local\Temp\cch5AfG4.s:8780   .debug_str:0000000000000b4c .LASF185
C:\Users\stapi\AppData\Local\Temp\cch5AfG4.s:8734   .debug_str:0000000000000955 .LASF186
C:\Users\stapi\AppData\Local\Temp\cch5AfG4.s:8752   .debug_str:00000000000009d2 .LASF206
C:\Users\stapi\AppData\Local\Temp\cch5AfG4.s:8436   .debug_str:000000000000018c .LASF207
C:\Users\stapi\AppData\Local\Temp\cch5AfG4.s:8386   .debug_str:0000000000000076 .LASF187
C:\Users\stapi\AppData\Local\Temp\cch5AfG4.s:8778   .debug_str:0000000000000b45 .LASF188
C:\Users\stapi\AppData\Local\Temp\cch5AfG4.s:8444   .debug_str:00000000000001c0 .LASF189
C:\Users\stapi\AppData\Local\Temp\cch5AfG4.s:8560   .debug_str:0000000000000555 .LASF190
C:\Users\stapi\AppData\Local\Temp\cch5AfG4.s:8602   .debug_str:0000000000000653 .LASF191
C:\Users\stapi\AppData\Local\Temp\cch5AfG4.s:8434   .debug_str:0000000000000181 .LASF192
C:\Users\stapi\AppData\Local\Temp\cch5AfG4.s:8554   .debug_str:0000000000000533 .LASF193
C:\Users\stapi\AppData\Local\Temp\cch5AfG4.s:8634   .debug_str:0000000000000727 .LASF194
C:\Users\stapi\AppData\Local\Temp\cch5AfG4.s:8578   .debug_str:00000000000005c3 .LASF195
C:\Users\stapi\AppData\Local\Temp\cch5AfG4.s:8466   .debug_str:0000000000000237 .LASF196
C:\Users\stapi\AppData\Local\Temp\cch5AfG4.s:8672   .debug_str:00000000000007f8 .LASF197
C:\Users\stapi\AppData\Local\Temp\cch5AfG4.s:8584   .debug_str:00000000000005db .LASF198
C:\Users\stapi\AppData\Local\Temp\cch5AfG4.s:8590   .debug_str:00000000000005fa .LASF199
C:\Users\stapi\AppData\Local\Temp\cch5AfG4.s:8566   .debug_str:0000000000000577 .LASF200
C:\Users\stapi\AppData\Local\Temp\cch5AfG4.s:1565   .text.dns_gethostbyname_addrtype:0000000000000000 .LVL150
C:\Users\stapi\AppData\Local\Temp\cch5AfG4.s:1635   .text.dns_gethostbyname_addrtype:0000000000000054 .LVL156
C:\Users\stapi\AppData\Local\Temp\cch5AfG4.s:1655   .text.dns_gethostbyname_addrtype:000000000000005e .LVL157
C:\Users\stapi\AppData\Local\Temp\cch5AfG4.s:1858   .text.dns_gethostbyname_addrtype:0000000000000166 .LVL176
C:\Users\stapi\AppData\Local\Temp\cch5AfG4.s:1918   .text.dns_gethostbyname_addrtype:00000000000001aa .LVL185
C:\Users\stapi\AppData\Local\Temp\cch5AfG4.s:1953   .text.dns_gethostbyname_addrtype:00000000000001dc .LVL188
C:\Users\stapi\AppData\Local\Temp\cch5AfG4.s:1959   .text.dns_gethostbyname_addrtype:00000000000001e0 .LVL189
C:\Users\stapi\AppData\Local\Temp\cch5AfG4.s:2025   .text.dns_gethostbyname_addrtype:0000000000000230 .LVL200
C:\Users\stapi\AppData\Local\Temp\cch5AfG4.s:2127   .text.dns_gethostbyname_addrtype:00000000000002a2 .LVL212
C:\Users\stapi\AppData\Local\Temp\cch5AfG4.s:2149   .text.dns_gethostbyname_addrtype:00000000000002a6 .LVL213
C:\Users\stapi\AppData\Local\Temp\cch5AfG4.s:1724   .text.dns_gethostbyname_addrtype:00000000000000c8 .LVL163
C:\Users\stapi\AppData\Local\Temp\cch5AfG4.s:2151   .text.dns_gethostbyname_addrtype:00000000000002a8 .LVL214
C:\Users\stapi\AppData\Local\Temp\cch5AfG4.s:1864   .text.dns_gethostbyname_addrtype:000000000000016c .LVL177
C:\Users\stapi\AppData\Local\Temp\cch5AfG4.s:1881   .text.dns_gethostbyname_addrtype:000000000000017e .LVL181
C:\Users\stapi\AppData\Local\Temp\cch5AfG4.s:2183   .text.dns_gethostbyname_addrtype:00000000000002b6 .LVL216
C:\Users\stapi\AppData\Local\Temp\cch5AfG4.s:1593   .text.dns_gethostbyname_addrtype:0000000000000016 .LVL151
C:\Users\stapi\AppData\Local\Temp\cch5AfG4.s:1606   .text.dns_gethostbyname_addrtype:000000000000002c .LVL153
C:\Users\stapi\AppData\Local\Temp\cch5AfG4.s:1617   .text.dns_gethostbyname_addrtype:000000000000003c .LVL154
C:\Users\stapi\AppData\Local\Temp\cch5AfG4.s:1829   .text.dns_gethostbyname_addrtype:0000000000000148 .LVL173
C:\Users\stapi\AppData\Local\Temp\cch5AfG4.s:1680   .text.dns_gethostbyname_addrtype:0000000000000084 .LVL159
C:\Users\stapi\AppData\Local\Temp\cch5AfG4.s:1704   .text.dns_gethostbyname_addrtype:00000000000000ac .LVL161
C:\Users\stapi\AppData\Local\Temp\cch5AfG4.s:1708   .text.dns_gethostbyname_addrtype:00000000000000ae .LVL162
C:\Users\stapi\AppData\Local\Temp\cch5AfG4.s:1735   .text.dns_gethostbyname_addrtype:00000000000000d2 .LVL164
C:\Users\stapi\AppData\Local\Temp\cch5AfG4.s:1744   .text.dns_gethostbyname_addrtype:00000000000000dc .LVL165
C:\Users\stapi\AppData\Local\Temp\cch5AfG4.s:1746   .text.dns_gethostbyname_addrtype:00000000000000e0 .LVL166
C:\Users\stapi\AppData\Local\Temp\cch5AfG4.s:1769   .text.dns_gethostbyname_addrtype:00000000000000fe .LVL167
C:\Users\stapi\AppData\Local\Temp\cch5AfG4.s:1774   .text.dns_gethostbyname_addrtype:0000000000000106 .LVL168
C:\Users\stapi\AppData\Local\Temp\cch5AfG4.s:1784   .text.dns_gethostbyname_addrtype:0000000000000112 .LVL170
C:\Users\stapi\AppData\Local\Temp\cch5AfG4.s:1969   .text.dns_gethostbyname_addrtype:00000000000001ea .LVL191
C:\Users\stapi\AppData\Local\Temp\cch5AfG4.s:1987   .text.dns_gethostbyname_addrtype:0000000000000202 .LVL194
C:\Users\stapi\AppData\Local\Temp\cch5AfG4.s:1994   .text.dns_gethostbyname_addrtype:0000000000000204 .LVL195
C:\Users\stapi\AppData\Local\Temp\cch5AfG4.s:2016   .text.dns_gethostbyname_addrtype:0000000000000228 .LVL198
C:\Users\stapi\AppData\Local\Temp\cch5AfG4.s:2008   .text.dns_gethostbyname_addrtype:000000000000021e .LVL196
C:\Users\stapi\AppData\Local\Temp\cch5AfG4.s:1782   .text.dns_gethostbyname_addrtype:000000000000010e .LVL169
C:\Users\stapi\AppData\Local\Temp\cch5AfG4.s:1985   .text.dns_gethostbyname_addrtype:0000000000000200 .LVL193
C:\Users\stapi\AppData\Local\Temp\cch5AfG4.s:2010   .text.dns_gethostbyname_addrtype:0000000000000220 .LVL197
C:\Users\stapi\AppData\Local\Temp\cch5AfG4.s:1803   .text.dns_gethostbyname_addrtype:0000000000000128 .LVL172
C:\Users\stapi\AppData\Local\Temp\cch5AfG4.s:2031   .text.dns_gethostbyname_addrtype:0000000000000234 .LVL201
C:\Users\stapi\AppData\Local\Temp\cch5AfG4.s:1796   .text.dns_gethostbyname_addrtype:0000000000000122 .LVL171
C:\Users\stapi\AppData\Local\Temp\cch5AfG4.s:1933   .text.dns_gethostbyname_addrtype:00000000000001c4 .LVL187
C:\Users\stapi\AppData\Local\Temp\cch5AfG4.s:1965   .text.dns_gethostbyname_addrtype:00000000000001e2 .LVL190
C:\Users\stapi\AppData\Local\Temp\cch5AfG4.s:2022   .text.dns_gethostbyname_addrtype:000000000000022a .LVL199
C:\Users\stapi\AppData\Local\Temp\cch5AfG4.s:1980   .text.dns_gethostbyname_addrtype:00000000000001fa .LVL192
C:\Users\stapi\AppData\Local\Temp\cch5AfG4.s:1850   .text.dns_gethostbyname_addrtype:000000000000015c .LVL175
C:\Users\stapi\AppData\Local\Temp\cch5AfG4.s:1869   .text.dns_gethostbyname_addrtype:0000000000000172 .LVL178
C:\Users\stapi\AppData\Local\Temp\cch5AfG4.s:1874   .text.dns_gethostbyname_addrtype:0000000000000176 .LVL179
C:\Users\stapi\AppData\Local\Temp\cch5AfG4.s:1878   .text.dns_gethostbyname_addrtype:0000000000000178 .LVL180
C:\Users\stapi\AppData\Local\Temp\cch5AfG4.s:1896   .text.dns_gethostbyname_addrtype:0000000000000194 .LVL183
C:\Users\stapi\AppData\Local\Temp\cch5AfG4.s:2069   .text.dns_gethostbyname_addrtype:0000000000000262 .LVL205
C:\Users\stapi\AppData\Local\Temp\cch5AfG4.s:2090   .text.dns_gethostbyname_addrtype:000000000000027c .LVL206
C:\Users\stapi\AppData\Local\Temp\cch5AfG4.s:2097   .text.dns_gethostbyname_addrtype:000000000000027e .LVL207
C:\Users\stapi\AppData\Local\Temp\cch5AfG4.s:1892   .text.dns_gethostbyname_addrtype:0000000000000192 .LVL182
C:\Users\stapi\AppData\Local\Temp\cch5AfG4.s:2100   .text.dns_gethostbyname_addrtype:0000000000000280 .LVL208
C:\Users\stapi\AppData\Local\Temp\cch5AfG4.s:2105   .text.dns_gethostbyname_addrtype:0000000000000288 .LVL209
C:\Users\stapi\AppData\Local\Temp\cch5AfG4.s:2110   .text.dns_gethostbyname_addrtype:000000000000028c .LVL210
C:\Users\stapi\AppData\Local\Temp\cch5AfG4.s:2041   .text.dns_gethostbyname_addrtype:000000000000023e .LVL202
C:\Users\stapi\AppData\Local\Temp\cch5AfG4.s:2050   .text.dns_gethostbyname_addrtype:000000000000024a .LVL203
C:\Users\stapi\AppData\Local\Temp\cch5AfG4.s:2224   .text.dns_gethostbyname_addrtype:00000000000002ea .LVL221
C:\Users\stapi\AppData\Local\Temp\cch5AfG4.s:2192   .text.dns_gethostbyname_addrtype:00000000000002c0 .LVL217
C:\Users\stapi\AppData\Local\Temp\cch5AfG4.s:2203   .text.dns_gethostbyname_addrtype:00000000000002cc .LVL219
C:\Users\stapi\AppData\Local\Temp\cch5AfG4.s:2248   .text.dns_gethostbyname:0000000000000000 .LVL223
C:\Users\stapi\AppData\Local\Temp\cch5AfG4.s:739    .text.dns_recv:0000000000000000 .LVL67
C:\Users\stapi\AppData\Local\Temp\cch5AfG4.s:787    .text.dns_recv:0000000000000020 .LVL72
C:\Users\stapi\AppData\Local\Temp\cch5AfG4.s:785    .text.dns_recv:000000000000001e .LVL71
C:\Users\stapi\AppData\Local\Temp\cch5AfG4.s:781    .text.dns_recv:000000000000001a .LVL69
C:\Users\stapi\AppData\Local\Temp\cch5AfG4.s:1146   .text.dns_recv:0000000000000248 .LVL109
C:\Users\stapi\AppData\Local\Temp\cch5AfG4.s:1200   .text.dns_recv:0000000000000290 .LVL115
C:\Users\stapi\AppData\Local\Temp\cch5AfG4.s:1300   .text.dns_recv:0000000000000314 .LVL126
C:\Users\stapi\AppData\Local\Temp\cch5AfG4.s:1322   .text.dns_recv:000000000000031e .LVL127
C:\Users\stapi\AppData\Local\Temp\cch5AfG4.s:783    .text.dns_recv:000000000000001c .LVL70
C:\Users\stapi\AppData\Local\Temp\cch5AfG4.s:872    .text.dns_recv:00000000000000bc .LVL83
C:\Users\stapi\AppData\Local\Temp\cch5AfG4.s:1393   .text.dns_recv:000000000000036e .LVL137
C:\Users\stapi\AppData\Local\Temp\cch5AfG4.s:768    .text.dns_recv:000000000000000c .LVL68
C:\Users\stapi\AppData\Local\Temp\cch5AfG4.s:813    .text.dns_recv:000000000000004e .LVL75
C:\Users\stapi\AppData\Local\Temp\cch5AfG4.s:819    .text.dns_recv:0000000000000056 .LVL76
C:\Users\stapi\AppData\Local\Temp\cch5AfG4.s:1358   .text.dns_recv:0000000000000342 .LVL131
C:\Users\stapi\AppData\Local\Temp\cch5AfG4.s:1400   .text.dns_recv:0000000000000370 .LVL138
C:\Users\stapi\AppData\Local\Temp\cch5AfG4.s:830    .text.dns_recv:0000000000000066 .LVL77
C:\Users\stapi\AppData\Local\Temp\cch5AfG4.s:954    .text.dns_recv:0000000000000120 .LVL92
C:\Users\stapi\AppData\Local\Temp\cch5AfG4.s:984    .text.dns_recv:0000000000000154 .LVL94
C:\Users\stapi\AppData\Local\Temp\cch5AfG4.s:998    .text.dns_recv:0000000000000162 .LVL95
C:\Users\stapi\AppData\Local\Temp\cch5AfG4.s:1014   .text.dns_recv:0000000000000176 .LVL96
C:\Users\stapi\AppData\Local\Temp\cch5AfG4.s:1020   .text.dns_recv:0000000000000182 .LVL97
C:\Users\stapi\AppData\Local\Temp\cch5AfG4.s:1079   .text.dns_recv:00000000000001d6 .LVL104
C:\Users\stapi\AppData\Local\Temp\cch5AfG4.s:1104   .text.dns_recv:00000000000001fe .LVL106
C:\Users\stapi\AppData\Local\Temp\cch5AfG4.s:1137   .text.dns_recv:000000000000023e .LVL108
C:\Users\stapi\AppData\Local\Temp\cch5AfG4.s:1261   .text.dns_recv:00000000000002e2 .LVL122
C:\Users\stapi\AppData\Local\Temp\cch5AfG4.s:1280   .text.dns_recv:00000000000002f2 .LVL123
C:\Users\stapi\AppData\Local\Temp\cch5AfG4.s:1365   .text.dns_recv:0000000000000346 .LVL132
C:\Users\stapi\AppData\Local\Temp\cch5AfG4.s:834    .text.dns_recv:0000000000000070 .LVL79
C:\Users\stapi\AppData\Local\Temp\cch5AfG4.s:853    .text.dns_recv:0000000000000090 .LVL82
C:\Users\stapi\AppData\Local\Temp\cch5AfG4.s:841    .text.dns_recv:000000000000007e .LVL81
C:\Users\stapi\AppData\Local\Temp\cch5AfG4.s:1382   .text.dns_recv:000000000000035a .LVL134
C:\Users\stapi\AppData\Local\Temp\cch5AfG4.s:1390   .text.dns_recv:000000000000036c .LVL136
C:\Users\stapi\AppData\Local\Temp\cch5AfG4.s:1167   .text.dns_recv:0000000000000268 .LVL112
C:\Users\stapi\AppData\Local\Temp\cch5AfG4.s:1195   .text.dns_recv:000000000000028e .LVL114
C:\Users\stapi\AppData\Local\Temp\cch5AfG4.s:883    .text.dns_recv:00000000000000c2 .LVL84
C:\Users\stapi\AppData\Local\Temp\cch5AfG4.s:1254   .text.dns_recv:00000000000002dc .LVL120
C:\Users\stapi\AppData\Local\Temp\cch5AfG4.s:1257   .text.dns_recv:00000000000002e0 .LVL121
C:\Users\stapi\AppData\Local\Temp\cch5AfG4.s:924    .text.dns_recv:00000000000000f4 .LVL89
C:\Users\stapi\AppData\Local\Temp\cch5AfG4.s:894    .text.dns_recv:00000000000000ca .LVL85
C:\Users\stapi\AppData\Local\Temp\cch5AfG4.s:912    .text.dns_recv:00000000000000e0 .LVL87
C:\Users\stapi\AppData\Local\Temp\cch5AfG4.s:919    .text.dns_recv:00000000000000ec .LVL88
C:\Users\stapi\AppData\Local\Temp\cch5AfG4.s:1251   .text.dns_recv:00000000000002da .LVL119
C:\Users\stapi\AppData\Local\Temp\cch5AfG4.s:1235   .text.dns_recv:00000000000002be .LVL118
C:\Users\stapi\AppData\Local\Temp\cch5AfG4.s:1232   .text.dns_recv:00000000000002ba .LVL117
C:\Users\stapi\AppData\Local\Temp\cch5AfG4.s:1051   .text.dns_recv:00000000000001b0 .LVL100
C:\Users\stapi\AppData\Local\Temp\cch5AfG4.s:1032   .text.dns_recv:0000000000000190 .LVL98
C:\Users\stapi\AppData\Local\Temp\cch5AfG4.s:1057   .text.dns_recv:00000000000001b8 .LVL101
C:\Users\stapi\AppData\Local\Temp\cch5AfG4.s:1334   .text.dns_recv:0000000000000324 .LVL128
C:\Users\stapi\AppData\Local\Temp\cch5AfG4.s:490    .text.dns_check_entry:0000000000000000 .LVL44
C:\Users\stapi\AppData\Local\Temp\cch5AfG4.s:510    .text.dns_check_entry:000000000000001a .LVL46
C:\Users\stapi\AppData\Local\Temp\cch5AfG4.s:522    .text.dns_check_entry:0000000000000034 .LVL48
C:\Users\stapi\AppData\Local\Temp\cch5AfG4.s:546    .text.dns_check_entry:0000000000000060 .LVL49
C:\Users\stapi\AppData\Local\Temp\cch5AfG4.s:614    .text.dns_check_entry:00000000000000b0 .LVL56
C:\Users\stapi\AppData\Local\Temp\cch5AfG4.s:626    .text.dns_check_entry:00000000000000c0 .LVL57
C:\Users\stapi\AppData\Local\Temp\cch5AfG4.s:638    .text.dns_check_entry:00000000000000da .LVL59
C:\Users\stapi\AppData\Local\Temp\cch5AfG4.s:699    .text.dns_check_entry:000000000000011e .LVL64
C:\Users\stapi\AppData\Local\Temp\cch5AfG4.s:711    .text.dns_check_entry:0000000000000134 .LVL66
C:\Users\stapi\AppData\Local\Temp\cch5AfG4.s:500    .text.dns_check_entry:0000000000000008 .LVL45
C:\Users\stapi\AppData\Local\Temp\cch5AfG4.s:557    .text.dns_check_entry:000000000000006e .LVL51
C:\Users\stapi\AppData\Local\Temp\cch5AfG4.s:577    .text.dns_check_entry:0000000000000086 .LVL54
C:\Users\stapi\AppData\Local\Temp\cch5AfG4.s:570    .text.dns_check_entry:000000000000007e .LVL52
C:\Users\stapi\AppData\Local\Temp\cch5AfG4.s:574    .text.dns_check_entry:0000000000000082 .LVL53
C:\Users\stapi\AppData\Local\Temp\cch5AfG4.s:660    .text.dns_check_entry:00000000000000fe .LVL60
C:\Users\stapi\AppData\Local\Temp\cch5AfG4.s:678    .text.dns_check_entry:000000000000010e .LVL62
C:\Users\stapi\AppData\Local\Temp\cch5AfG4.s:669    .text.dns_check_entry:0000000000000104 .LVL61
C:\Users\stapi\AppData\Local\Temp\cch5AfG4.s:17     .text.dns_call_found:0000000000000000 .LVL0
C:\Users\stapi\AppData\Local\Temp\cch5AfG4.s:45     .text.dns_call_found:000000000000002e .LVL2
C:\Users\stapi\AppData\Local\Temp\cch5AfG4.s:29     .text.dns_call_found:0000000000000008 .LVL1
C:\Users\stapi\AppData\Local\Temp\cch5AfG4.s:67     .text.dns_call_found:0000000000000046 .LVL4
C:\Users\stapi\AppData\Local\Temp\cch5AfG4.s:71     .text.dns_call_found:0000000000000048 .LVL5
C:\Users\stapi\AppData\Local\Temp\cch5AfG4.s:84     .text.dns_call_found:000000000000005e .LVL6
C:\Users\stapi\AppData\Local\Temp\cch5AfG4.s:101    .text.dns_call_found:0000000000000078 .LVL7
C:\Users\stapi\AppData\Local\Temp\cch5AfG4.s:144    .text.dns_call_found:00000000000000be .LVL9
C:\Users\stapi\AppData\Local\Temp\cch5AfG4.s:150    .text.dns_call_found:00000000000000c0 .LVL10
C:\Users\stapi\AppData\Local\Temp\cch5AfG4.s:152    .text.dns_call_found:00000000000000c4 .LVL11
C:\Users\stapi\AppData\Local\Temp\cch5AfG4.s:1518   .text.dns_tmr:0000000000000008 .LVL145
C:\Users\stapi\AppData\Local\Temp\cch5AfG4.s:1478   .text.dns_getserver:0000000000000000 .LVL141
C:\Users\stapi\AppData\Local\Temp\cch5AfG4.s:1488   .text.dns_getserver:0000000000000012 .LVL142
C:\Users\stapi\AppData\Local\Temp\cch5AfG4.s:1490   .text.dns_getserver:0000000000000014 .LVL143
C:\Users\stapi\AppData\Local\Temp\cch5AfG4.s:1494   .text.dns_getserver:0000000000000018 .LVL144
C:\Users\stapi\AppData\Local\Temp\cch5AfG4.s:1438   .text.dns_setserver:0000000000000000 .LVL139
C:\Users\stapi\AppData\Local\Temp\cch5AfG4.s:1447   .text.dns_setserver:0000000000000010 .LVL140
C:\Users\stapi\AppData\Local\Temp\cch5AfG4.s:178    .text.dns_send.isra.0:0000000000000000 .LVL12
C:\Users\stapi\AppData\Local\Temp\cch5AfG4.s:222    .text.dns_send.isra.0:0000000000000032 .LVL14
C:\Users\stapi\AppData\Local\Temp\cch5AfG4.s:234    .text.dns_send.isra.0:000000000000004c .LVL16
C:\Users\stapi\AppData\Local\Temp\cch5AfG4.s:273    .text.dns_send.isra.0:0000000000000078 .LVL18
C:\Users\stapi\AppData\Local\Temp\cch5AfG4.s:284    .text.dns_send.isra.0:0000000000000084 .LVL19
C:\Users\stapi\AppData\Local\Temp\cch5AfG4.s:336    .text.dns_send.isra.0:00000000000000dc .LVL25
C:\Users\stapi\AppData\Local\Temp\cch5AfG4.s:344    .text.dns_send.isra.0:00000000000000e4 .LVL26
C:\Users\stapi\AppData\Local\Temp\cch5AfG4.s:374    .text.dns_send.isra.0:0000000000000102 .LVL30
C:\Users\stapi\AppData\Local\Temp\cch5AfG4.s:382    .text.dns_send.isra.0:000000000000010e .LVL32
C:\Users\stapi\AppData\Local\Temp\cch5AfG4.s:418    .text.dns_send.isra.0:000000000000014a .LVL39
C:\Users\stapi\AppData\Local\Temp\cch5AfG4.s:439    .text.dns_send.isra.0:0000000000000168 .LVL41
C:\Users\stapi\AppData\Local\Temp\cch5AfG4.s:370    .text.dns_send.isra.0:00000000000000fe .LVL29
C:\Users\stapi\AppData\Local\Temp\cch5AfG4.s:396    .text.dns_send.isra.0:000000000000011a .LVL36
C:\Users\stapi\AppData\Local\Temp\cch5AfG4.s:349    .text.dns_send.isra.0:00000000000000e6 .LVL27
C:\Users\stapi\AppData\Local\Temp\cch5AfG4.s:356    .text.dns_send.isra.0:00000000000000ea .LVL28
C:\Users\stapi\AppData\Local\Temp\cch5AfG4.s:389    .text.dns_send.isra.0:0000000000000112 .LVL33
C:\Users\stapi\AppData\Local\Temp\cch5AfG4.s:391    .text.dns_send.isra.0:0000000000000116 .LVL34
C:\Users\stapi\AppData\Local\Temp\cch5AfG4.s:201    .text.dns_send.isra.0:0000000000000008 .LVL13
C:\Users\stapi\AppData\Local\Temp\cch5AfG4.s:2326   .debug_info:0000000000000000 .Ldebug_info0
C:\Users\stapi\AppData\Local\Temp\cch5AfG4.s:299    .text.dns_send.isra.0:00000000000000a8 .LBB6
C:\Users\stapi\AppData\Local\Temp\cch5AfG4.s:380    .text.dns_send.isra.0:000000000000010c .LBE6
C:\Users\stapi\AppData\Local\Temp\cch5AfG4.s:384    .text.dns_send.isra.0:000000000000010e .LBB7
C:\Users\stapi\AppData\Local\Temp\cch5AfG4.s:472    .text.dns_send.isra.0:00000000000001ac .LBE7
C:\Users\stapi\AppData\Local\Temp\cch5AfG4.s:806    .text.dns_recv:0000000000000046 .LBB35
C:\Users\stapi\AppData\Local\Temp\cch5AfG4.s:810    .text.dns_recv:000000000000004c .LBE35
C:\Users\stapi\AppData\Local\Temp\cch5AfG4.s:815    .text.dns_recv:000000000000004e .LBB68
C:\Users\stapi\AppData\Local\Temp\cch5AfG4.s:1302   .text.dns_recv:0000000000000314 .LBE68
C:\Users\stapi\AppData\Local\Temp\cch5AfG4.s:1325   .text.dns_recv:000000000000031e .LBB69
C:\Users\stapi\AppData\Local\Temp\cch5AfG4.s:1351   .text.dns_recv:0000000000000336 .LBE69
C:\Users\stapi\AppData\Local\Temp\cch5AfG4.s:1360   .text.dns_recv:0000000000000342 .LBB70
C:\Users\stapi\AppData\Local\Temp\cch5AfG4.s:1395   .text.dns_recv:000000000000036e .LBE70
C:\Users\stapi\AppData\Local\Temp\cch5AfG4.s:880    .text.dns_recv:00000000000000c0 .LBE36
C:\Users\stapi\AppData\Local\Temp\cch5AfG4.s:884    .text.dns_recv:00000000000000c2 .LBB47
C:\Users\stapi\AppData\Local\Temp\cch5AfG4.s:956    .text.dns_recv:0000000000000120 .LBE47
C:\Users\stapi\AppData\Local\Temp\cch5AfG4.s:1203   .text.dns_recv:0000000000000290 .LBB60
C:\Users\stapi\AppData\Local\Temp\cch5AfG4.s:1265   .text.dns_recv:00000000000002e2 .LBE60
C:\Users\stapi\AppData\Local\Temp\cch5AfG4.s:873    .text.dns_recv:00000000000000bc .LBB38
C:\Users\stapi\AppData\Local\Temp\cch5AfG4.s:878    .text.dns_recv:00000000000000c0 .LBE38
C:\Users\stapi\AppData\Local\Temp\cch5AfG4.s:888    .text.dns_recv:00000000000000c4 .LBB43
C:\Users\stapi\AppData\Local\Temp\cch5AfG4.s:896    .text.dns_recv:00000000000000ca .LBE43
C:\Users\stapi\AppData\Local\Temp\cch5AfG4.s:1205   .text.dns_recv:0000000000000290 .LBB44
C:\Users\stapi\AppData\Local\Temp\cch5AfG4.s:1263   .text.dns_recv:00000000000002e2 .LBE44
C:\Users\stapi\AppData\Local\Temp\cch5AfG4.s:874    .text.dns_recv:00000000000000bc .LBB39
C:\Users\stapi\AppData\Local\Temp\cch5AfG4.s:877    .text.dns_recv:00000000000000c0 .LBE39
C:\Users\stapi\AppData\Local\Temp\cch5AfG4.s:889    .text.dns_recv:00000000000000c4 .LBB40
C:\Users\stapi\AppData\Local\Temp\cch5AfG4.s:895    .text.dns_recv:00000000000000ca .LBE40
C:\Users\stapi\AppData\Local\Temp\cch5AfG4.s:1218   .text.dns_recv:00000000000002a2 .LBB41
C:\Users\stapi\AppData\Local\Temp\cch5AfG4.s:1229   .text.dns_recv:00000000000002ba .LBE41
C:\Users\stapi\AppData\Local\Temp\cch5AfG4.s:995    .text.dns_recv:0000000000000160 .LBE48
C:\Users\stapi\AppData\Local\Temp\cch5AfG4.s:999    .text.dns_recv:0000000000000162 .LBB53
C:\Users\stapi\AppData\Local\Temp\cch5AfG4.s:1006   .text.dns_recv:000000000000016a .LBE53
C:\Users\stapi\AppData\Local\Temp\cch5AfG4.s:1022   .text.dns_recv:0000000000000182 .LBB54
C:\Users\stapi\AppData\Local\Temp\cch5AfG4.s:1081   .text.dns_recv:00000000000001d6 .LBE54
C:\Users\stapi\AppData\Local\Temp\cch5AfG4.s:1361   .text.dns_recv:0000000000000342 .LBB67
C:\Users\stapi\AppData\Local\Temp\cch5AfG4.s:1368   .text.dns_recv:0000000000000346 .LBE67
C:\Users\stapi\AppData\Local\Temp\cch5AfG4.s:1148   .text.dns_recv:0000000000000248 .LBE56
C:\Users\stapi\AppData\Local\Temp\cch5AfG4.s:1158   .text.dns_recv:000000000000025c .LBB59
C:\Users\stapi\AppData\Local\Temp\cch5AfG4.s:1197   .text.dns_recv:000000000000028e .LBE59
C:\Users\stapi\AppData\Local\Temp\cch5AfG4.s:1283   .text.dns_recv:00000000000002f2 .LBE61
C:\Users\stapi\AppData\Local\Temp\cch5AfG4.s:1326   .text.dns_recv:000000000000031e .LBB66
C:\Users\stapi\AppData\Local\Temp\cch5AfG4.s:1339   .text.dns_recv:0000000000000324 .LBE66
C:\Users\stapi\AppData\Local\Temp\cch5AfG4.s:1632   .text.dns_gethostbyname_addrtype:0000000000000052 .LBE85
C:\Users\stapi\AppData\Local\Temp\cch5AfG4.s:1673   .text.dns_gethostbyname_addrtype:0000000000000080 .LBB88
C:\Users\stapi\AppData\Local\Temp\cch5AfG4.s:1712   .text.dns_gethostbyname_addrtype:00000000000000b6 .LBE88
C:\Users\stapi\AppData\Local\Temp\cch5AfG4.s:2144   .text.dns_gethostbyname_addrtype:00000000000002a2 .LBE89
C:\Users\stapi\AppData\Local\Temp\cch5AfG4.s:2167   .text.dns_gethostbyname_addrtype:00000000000002a8 .LBB111
C:\Users\stapi\AppData\Local\Temp\cch5AfG4.s:2236   .text.dns_gethostbyname_addrtype:00000000000002f6 .LBE111
C:\Users\stapi\AppData\Local\Temp\cch5AfG4.s:1751   .text.dns_gethostbyname_addrtype:00000000000000e8 .LBB91
C:\Users\stapi\AppData\Local\Temp\cch5AfG4.s:1755   .text.dns_gethostbyname_addrtype:00000000000000f0 .LBE91
C:\Users\stapi\AppData\Local\Temp\cch5AfG4.s:1758   .text.dns_gethostbyname_addrtype:00000000000000f2 .LBB92
C:\Users\stapi\AppData\Local\Temp\cch5AfG4.s:1761   .text.dns_gethostbyname_addrtype:00000000000000f4 .LBE92
C:\Users\stapi\AppData\Local\Temp\cch5AfG4.s:1974   .text.dns_gethostbyname_addrtype:00000000000001ee .LBB106
C:\Users\stapi\AppData\Local\Temp\cch5AfG4.s:1989   .text.dns_gethostbyname_addrtype:0000000000000202 .LBE106
C:\Users\stapi\AppData\Local\Temp\cch5AfG4.s:1855   .text.dns_gethostbyname_addrtype:0000000000000164 .LBE93
C:\Users\stapi\AppData\Local\Temp\cch5AfG4.s:1860   .text.dns_gethostbyname_addrtype:000000000000016a .LBB105
C:\Users\stapi\AppData\Local\Temp\cch5AfG4.s:1921   .text.dns_gethostbyname_addrtype:00000000000001aa .LBE105
C:\Users\stapi\AppData\Local\Temp\cch5AfG4.s:2033   .text.dns_gethostbyname_addrtype:0000000000000234 .LBB107
C:\Users\stapi\AppData\Local\Temp\cch5AfG4.s:2072   .text.dns_gethostbyname_addrtype:0000000000000262 .LBE107
C:\Users\stapi\AppData\Local\Temp\cch5AfG4.s:2092   .text.dns_gethostbyname_addrtype:000000000000027c .LBB108
C:\Users\stapi\AppData\Local\Temp\cch5AfG4.s:2113   .text.dns_gethostbyname_addrtype:000000000000028c .LBE108
C:\Users\stapi\AppData\Local\Temp\cch5AfG4.s:2169   .text.dns_gethostbyname_addrtype:00000000000002a8 .LBB109
C:\Users\stapi\AppData\Local\Temp\cch5AfG4.s:2234   .text.dns_gethostbyname_addrtype:00000000000002f6 .LBE109
C:\Users\stapi\AppData\Local\Temp\cch5AfG4.s:2055   .text.dns_gethostbyname_addrtype:0000000000000252 .LBE95
C:\Users\stapi\AppData\Local\Temp\cch5AfG4.s:2173   .text.dns_gethostbyname_addrtype:00000000000002a8 .LBB100
C:\Users\stapi\AppData\Local\Temp\cch5AfG4.s:2229   .text.dns_gethostbyname_addrtype:00000000000002f2 .LBE100
C:\Users\stapi\AppData\Local\Temp\cch5AfG4.s:2187   .text.dns_gethostbyname_addrtype:00000000000002b8 .LBB97
C:\Users\stapi\AppData\Local\Temp\cch5AfG4.s:2194   .text.dns_gethostbyname_addrtype:00000000000002c0 .LBE97
C:\Users\stapi\AppData\Local\Temp\cch5AfG4.s:2196   .text.dns_gethostbyname_addrtype:00000000000002c0 .LBB98
C:\Users\stapi\AppData\Local\Temp\cch5AfG4.s:2213   .text.dns_gethostbyname_addrtype:00000000000002de .LBE98

UNDEFINED SYMBOLS
__riscv_save_6
udp_remove
__riscv_restore_6
__riscv_save_10
printf
__riscv_restore_10
strlen
pbuf_alloc
lwip_htons
pbuf_take
pbuf_free
pbuf_put_at
pbuf_take_at
udp_sendto
__riscv_save_4
rand
__riscv_restore_4
__riscv_save_12
pbuf_copy_partial
_ctype_
pbuf_try_get_at
lwip_htonl
__riscv_restore_12
ip_addr_any
__riscv_save_0
__riscv_restore_0
strcmp
ip4addr_aton
lwip_strnicmp
memcpy
udp_recv
udp_new_ip_type
udp_bind
