   1              		.file	"etharp.c"
   2              		.option nopic
   3              		.attribute arch, "rv32i2p0_m2p0_a2p0_f2p0_c2p0_b_p0p94"
   4              		.attribute unaligned_access, 0
   5              		.attribute stack_align, 16
   6              		.text
   7              	.Ltext0:
   8              		.cfi_sections	.debug_frame
   9              		.section	.text.etharp_free_entry,"ax",@progbits
  10              		.align	1
  12              	etharp_free_entry:
  13              	.LFB4:
  14              		.file 1 "C:/Users/stapi/OneDrive/Desktop/GD32VW553/V1_MQTT_OK/GD32VW55X_Wifi_BLE_SDK/GD32VW55x_REL
   1:C:/Users/stapi/OneDrive/Desktop/GD32VW553/V1_MQTT_OK/GD32VW55X_Wifi_BLE_SDK/GD32VW55x_RELEASE_V1.0.2/MSDK/lwip/lwip-2.1.2/src/core/ipv4\etharp.c **** /**
   2:C:/Users/stapi/OneDrive/Desktop/GD32VW553/V1_MQTT_OK/GD32VW55X_Wifi_BLE_SDK/GD32VW55x_RELEASE_V1.0.2/MSDK/lwip/lwip-2.1.2/src/core/ipv4\etharp.c ****  * @file
   3:C:/Users/stapi/OneDrive/Desktop/GD32VW553/V1_MQTT_OK/GD32VW55X_Wifi_BLE_SDK/GD32VW55x_RELEASE_V1.0.2/MSDK/lwip/lwip-2.1.2/src/core/ipv4\etharp.c ****  * Address Resolution Protocol module for IP over Ethernet
   4:C:/Users/stapi/OneDrive/Desktop/GD32VW553/V1_MQTT_OK/GD32VW55X_Wifi_BLE_SDK/GD32VW55x_RELEASE_V1.0.2/MSDK/lwip/lwip-2.1.2/src/core/ipv4\etharp.c ****  *
   5:C:/Users/stapi/OneDrive/Desktop/GD32VW553/V1_MQTT_OK/GD32VW55X_Wifi_BLE_SDK/GD32VW55x_RELEASE_V1.0.2/MSDK/lwip/lwip-2.1.2/src/core/ipv4\etharp.c ****  * Functionally, ARP is divided into two parts. The first maps an IP address
   6:C:/Users/stapi/OneDrive/Desktop/GD32VW553/V1_MQTT_OK/GD32VW55X_Wifi_BLE_SDK/GD32VW55x_RELEASE_V1.0.2/MSDK/lwip/lwip-2.1.2/src/core/ipv4\etharp.c ****  * to a physical address when sending a packet, and the second part answers
   7:C:/Users/stapi/OneDrive/Desktop/GD32VW553/V1_MQTT_OK/GD32VW55X_Wifi_BLE_SDK/GD32VW55x_RELEASE_V1.0.2/MSDK/lwip/lwip-2.1.2/src/core/ipv4\etharp.c ****  * requests from other machines for our physical address.
   8:C:/Users/stapi/OneDrive/Desktop/GD32VW553/V1_MQTT_OK/GD32VW55X_Wifi_BLE_SDK/GD32VW55x_RELEASE_V1.0.2/MSDK/lwip/lwip-2.1.2/src/core/ipv4\etharp.c ****  *
   9:C:/Users/stapi/OneDrive/Desktop/GD32VW553/V1_MQTT_OK/GD32VW55X_Wifi_BLE_SDK/GD32VW55x_RELEASE_V1.0.2/MSDK/lwip/lwip-2.1.2/src/core/ipv4\etharp.c ****  * This implementation complies with RFC 826 (Ethernet ARP). It supports
  10:C:/Users/stapi/OneDrive/Desktop/GD32VW553/V1_MQTT_OK/GD32VW55X_Wifi_BLE_SDK/GD32VW55x_RELEASE_V1.0.2/MSDK/lwip/lwip-2.1.2/src/core/ipv4\etharp.c ****  * Gratuitious ARP from RFC3220 (IP Mobility Support for IPv4) section 4.6
  11:C:/Users/stapi/OneDrive/Desktop/GD32VW553/V1_MQTT_OK/GD32VW55X_Wifi_BLE_SDK/GD32VW55x_RELEASE_V1.0.2/MSDK/lwip/lwip-2.1.2/src/core/ipv4\etharp.c ****  * if an interface calls etharp_gratuitous(our_netif) upon address change.
  12:C:/Users/stapi/OneDrive/Desktop/GD32VW553/V1_MQTT_OK/GD32VW55X_Wifi_BLE_SDK/GD32VW55x_RELEASE_V1.0.2/MSDK/lwip/lwip-2.1.2/src/core/ipv4\etharp.c ****  */
  13:C:/Users/stapi/OneDrive/Desktop/GD32VW553/V1_MQTT_OK/GD32VW55X_Wifi_BLE_SDK/GD32VW55x_RELEASE_V1.0.2/MSDK/lwip/lwip-2.1.2/src/core/ipv4\etharp.c **** 
  14:C:/Users/stapi/OneDrive/Desktop/GD32VW553/V1_MQTT_OK/GD32VW55X_Wifi_BLE_SDK/GD32VW55x_RELEASE_V1.0.2/MSDK/lwip/lwip-2.1.2/src/core/ipv4\etharp.c **** /*
  15:C:/Users/stapi/OneDrive/Desktop/GD32VW553/V1_MQTT_OK/GD32VW55X_Wifi_BLE_SDK/GD32VW55x_RELEASE_V1.0.2/MSDK/lwip/lwip-2.1.2/src/core/ipv4\etharp.c ****  * Copyright (c) 2001-2003 Swedish Institute of Computer Science.
  16:C:/Users/stapi/OneDrive/Desktop/GD32VW553/V1_MQTT_OK/GD32VW55X_Wifi_BLE_SDK/GD32VW55x_RELEASE_V1.0.2/MSDK/lwip/lwip-2.1.2/src/core/ipv4\etharp.c ****  * Copyright (c) 2003-2004 Leon Woestenberg <leon.woestenberg@axon.tv>
  17:C:/Users/stapi/OneDrive/Desktop/GD32VW553/V1_MQTT_OK/GD32VW55X_Wifi_BLE_SDK/GD32VW55x_RELEASE_V1.0.2/MSDK/lwip/lwip-2.1.2/src/core/ipv4\etharp.c ****  * Copyright (c) 2003-2004 Axon Digital Design B.V., The Netherlands.
  18:C:/Users/stapi/OneDrive/Desktop/GD32VW553/V1_MQTT_OK/GD32VW55X_Wifi_BLE_SDK/GD32VW55x_RELEASE_V1.0.2/MSDK/lwip/lwip-2.1.2/src/core/ipv4\etharp.c ****  * Copyright (c) 2024, GigaDevice Semiconductor Inc.
  19:C:/Users/stapi/OneDrive/Desktop/GD32VW553/V1_MQTT_OK/GD32VW55X_Wifi_BLE_SDK/GD32VW55x_RELEASE_V1.0.2/MSDK/lwip/lwip-2.1.2/src/core/ipv4\etharp.c ****  * All rights reserved.
  20:C:/Users/stapi/OneDrive/Desktop/GD32VW553/V1_MQTT_OK/GD32VW55X_Wifi_BLE_SDK/GD32VW55x_RELEASE_V1.0.2/MSDK/lwip/lwip-2.1.2/src/core/ipv4\etharp.c ****  *
  21:C:/Users/stapi/OneDrive/Desktop/GD32VW553/V1_MQTT_OK/GD32VW55X_Wifi_BLE_SDK/GD32VW55x_RELEASE_V1.0.2/MSDK/lwip/lwip-2.1.2/src/core/ipv4\etharp.c ****  * Redistribution and use in source and binary forms, with or without modification,
  22:C:/Users/stapi/OneDrive/Desktop/GD32VW553/V1_MQTT_OK/GD32VW55X_Wifi_BLE_SDK/GD32VW55x_RELEASE_V1.0.2/MSDK/lwip/lwip-2.1.2/src/core/ipv4\etharp.c ****  * are permitted provided that the following conditions are met:
  23:C:/Users/stapi/OneDrive/Desktop/GD32VW553/V1_MQTT_OK/GD32VW55X_Wifi_BLE_SDK/GD32VW55x_RELEASE_V1.0.2/MSDK/lwip/lwip-2.1.2/src/core/ipv4\etharp.c ****  *
  24:C:/Users/stapi/OneDrive/Desktop/GD32VW553/V1_MQTT_OK/GD32VW55X_Wifi_BLE_SDK/GD32VW55x_RELEASE_V1.0.2/MSDK/lwip/lwip-2.1.2/src/core/ipv4\etharp.c ****  * 1. Redistributions of source code must retain the above copyright notice,
  25:C:/Users/stapi/OneDrive/Desktop/GD32VW553/V1_MQTT_OK/GD32VW55X_Wifi_BLE_SDK/GD32VW55x_RELEASE_V1.0.2/MSDK/lwip/lwip-2.1.2/src/core/ipv4\etharp.c ****  *    this list of conditions and the following disclaimer.
  26:C:/Users/stapi/OneDrive/Desktop/GD32VW553/V1_MQTT_OK/GD32VW55X_Wifi_BLE_SDK/GD32VW55x_RELEASE_V1.0.2/MSDK/lwip/lwip-2.1.2/src/core/ipv4\etharp.c ****  * 2. Redistributions in binary form must reproduce the above copyright notice,
  27:C:/Users/stapi/OneDrive/Desktop/GD32VW553/V1_MQTT_OK/GD32VW55X_Wifi_BLE_SDK/GD32VW55x_RELEASE_V1.0.2/MSDK/lwip/lwip-2.1.2/src/core/ipv4\etharp.c ****  *    this list of conditions and the following disclaimer in the documentation
  28:C:/Users/stapi/OneDrive/Desktop/GD32VW553/V1_MQTT_OK/GD32VW55X_Wifi_BLE_SDK/GD32VW55x_RELEASE_V1.0.2/MSDK/lwip/lwip-2.1.2/src/core/ipv4\etharp.c ****  *    and/or other materials provided with the distribution.
  29:C:/Users/stapi/OneDrive/Desktop/GD32VW553/V1_MQTT_OK/GD32VW55X_Wifi_BLE_SDK/GD32VW55x_RELEASE_V1.0.2/MSDK/lwip/lwip-2.1.2/src/core/ipv4\etharp.c ****  * 3. The name of the author may not be used to endorse or promote products
  30:C:/Users/stapi/OneDrive/Desktop/GD32VW553/V1_MQTT_OK/GD32VW55X_Wifi_BLE_SDK/GD32VW55x_RELEASE_V1.0.2/MSDK/lwip/lwip-2.1.2/src/core/ipv4\etharp.c ****  *    derived from this software without specific prior written permission.
  31:C:/Users/stapi/OneDrive/Desktop/GD32VW553/V1_MQTT_OK/GD32VW55X_Wifi_BLE_SDK/GD32VW55x_RELEASE_V1.0.2/MSDK/lwip/lwip-2.1.2/src/core/ipv4\etharp.c ****  *
  32:C:/Users/stapi/OneDrive/Desktop/GD32VW553/V1_MQTT_OK/GD32VW55X_Wifi_BLE_SDK/GD32VW55x_RELEASE_V1.0.2/MSDK/lwip/lwip-2.1.2/src/core/ipv4\etharp.c ****  * THIS SOFTWARE IS PROVIDED BY THE AUTHOR ``AS IS'' AND ANY EXPRESS OR IMPLIED
  33:C:/Users/stapi/OneDrive/Desktop/GD32VW553/V1_MQTT_OK/GD32VW55X_Wifi_BLE_SDK/GD32VW55x_RELEASE_V1.0.2/MSDK/lwip/lwip-2.1.2/src/core/ipv4\etharp.c ****  * WARRANTIES, INCLUDING, BUT NOT LIMITED TO, THE IMPLIED WARRANTIES OF
  34:C:/Users/stapi/OneDrive/Desktop/GD32VW553/V1_MQTT_OK/GD32VW55X_Wifi_BLE_SDK/GD32VW55x_RELEASE_V1.0.2/MSDK/lwip/lwip-2.1.2/src/core/ipv4\etharp.c ****  * MERCHANTABILITY AND FITNESS FOR A PARTICULAR PURPOSE ARE DISCLAIMED. IN NO EVENT
  35:C:/Users/stapi/OneDrive/Desktop/GD32VW553/V1_MQTT_OK/GD32VW55X_Wifi_BLE_SDK/GD32VW55x_RELEASE_V1.0.2/MSDK/lwip/lwip-2.1.2/src/core/ipv4\etharp.c ****  * SHALL THE AUTHOR BE LIABLE FOR ANY DIRECT, INDIRECT, INCIDENTAL, SPECIAL,
  36:C:/Users/stapi/OneDrive/Desktop/GD32VW553/V1_MQTT_OK/GD32VW55X_Wifi_BLE_SDK/GD32VW55x_RELEASE_V1.0.2/MSDK/lwip/lwip-2.1.2/src/core/ipv4\etharp.c ****  * EXEMPLARY, OR CONSEQUENTIAL DAMAGES (INCLUDING, BUT NOT LIMITED TO, PROCUREMENT
  37:C:/Users/stapi/OneDrive/Desktop/GD32VW553/V1_MQTT_OK/GD32VW55X_Wifi_BLE_SDK/GD32VW55x_RELEASE_V1.0.2/MSDK/lwip/lwip-2.1.2/src/core/ipv4\etharp.c ****  * OF SUBSTITUTE GOODS OR SERVICES; LOSS OF USE, DATA, OR PROFITS; OR BUSINESS
  38:C:/Users/stapi/OneDrive/Desktop/GD32VW553/V1_MQTT_OK/GD32VW55X_Wifi_BLE_SDK/GD32VW55x_RELEASE_V1.0.2/MSDK/lwip/lwip-2.1.2/src/core/ipv4\etharp.c ****  * INTERRUPTION) HOWEVER CAUSED AND ON ANY THEORY OF LIABILITY, WHETHER IN
  39:C:/Users/stapi/OneDrive/Desktop/GD32VW553/V1_MQTT_OK/GD32VW55X_Wifi_BLE_SDK/GD32VW55x_RELEASE_V1.0.2/MSDK/lwip/lwip-2.1.2/src/core/ipv4\etharp.c ****  * CONTRACT, STRICT LIABILITY, OR TORT (INCLUDING NEGLIGENCE OR OTHERWISE) ARISING
  40:C:/Users/stapi/OneDrive/Desktop/GD32VW553/V1_MQTT_OK/GD32VW55X_Wifi_BLE_SDK/GD32VW55x_RELEASE_V1.0.2/MSDK/lwip/lwip-2.1.2/src/core/ipv4\etharp.c ****  * IN ANY WAY OUT OF THE USE OF THIS SOFTWARE, EVEN IF ADVISED OF THE POSSIBILITY
  41:C:/Users/stapi/OneDrive/Desktop/GD32VW553/V1_MQTT_OK/GD32VW55X_Wifi_BLE_SDK/GD32VW55x_RELEASE_V1.0.2/MSDK/lwip/lwip-2.1.2/src/core/ipv4\etharp.c ****  * OF SUCH DAMAGE.
  42:C:/Users/stapi/OneDrive/Desktop/GD32VW553/V1_MQTT_OK/GD32VW55X_Wifi_BLE_SDK/GD32VW55x_RELEASE_V1.0.2/MSDK/lwip/lwip-2.1.2/src/core/ipv4\etharp.c ****  *
  43:C:/Users/stapi/OneDrive/Desktop/GD32VW553/V1_MQTT_OK/GD32VW55X_Wifi_BLE_SDK/GD32VW55x_RELEASE_V1.0.2/MSDK/lwip/lwip-2.1.2/src/core/ipv4\etharp.c ****  * This file is part of the lwIP TCP/IP stack.
  44:C:/Users/stapi/OneDrive/Desktop/GD32VW553/V1_MQTT_OK/GD32VW55X_Wifi_BLE_SDK/GD32VW55x_RELEASE_V1.0.2/MSDK/lwip/lwip-2.1.2/src/core/ipv4\etharp.c ****  *
  45:C:/Users/stapi/OneDrive/Desktop/GD32VW553/V1_MQTT_OK/GD32VW55X_Wifi_BLE_SDK/GD32VW55x_RELEASE_V1.0.2/MSDK/lwip/lwip-2.1.2/src/core/ipv4\etharp.c ****  */
  46:C:/Users/stapi/OneDrive/Desktop/GD32VW553/V1_MQTT_OK/GD32VW55X_Wifi_BLE_SDK/GD32VW55x_RELEASE_V1.0.2/MSDK/lwip/lwip-2.1.2/src/core/ipv4\etharp.c **** 
  47:C:/Users/stapi/OneDrive/Desktop/GD32VW553/V1_MQTT_OK/GD32VW55X_Wifi_BLE_SDK/GD32VW55x_RELEASE_V1.0.2/MSDK/lwip/lwip-2.1.2/src/core/ipv4\etharp.c **** #include "lwip/opt.h"
  48:C:/Users/stapi/OneDrive/Desktop/GD32VW553/V1_MQTT_OK/GD32VW55X_Wifi_BLE_SDK/GD32VW55x_RELEASE_V1.0.2/MSDK/lwip/lwip-2.1.2/src/core/ipv4\etharp.c **** 
  49:C:/Users/stapi/OneDrive/Desktop/GD32VW553/V1_MQTT_OK/GD32VW55X_Wifi_BLE_SDK/GD32VW55x_RELEASE_V1.0.2/MSDK/lwip/lwip-2.1.2/src/core/ipv4\etharp.c **** #if LWIP_IPV4 && LWIP_ARP /* don't build if not configured for use in lwipopts.h */
  50:C:/Users/stapi/OneDrive/Desktop/GD32VW553/V1_MQTT_OK/GD32VW55X_Wifi_BLE_SDK/GD32VW55x_RELEASE_V1.0.2/MSDK/lwip/lwip-2.1.2/src/core/ipv4\etharp.c **** 
  51:C:/Users/stapi/OneDrive/Desktop/GD32VW553/V1_MQTT_OK/GD32VW55X_Wifi_BLE_SDK/GD32VW55x_RELEASE_V1.0.2/MSDK/lwip/lwip-2.1.2/src/core/ipv4\etharp.c **** #include "lwip/etharp.h"
  52:C:/Users/stapi/OneDrive/Desktop/GD32VW553/V1_MQTT_OK/GD32VW55X_Wifi_BLE_SDK/GD32VW55x_RELEASE_V1.0.2/MSDK/lwip/lwip-2.1.2/src/core/ipv4\etharp.c **** #include "lwip/stats.h"
  53:C:/Users/stapi/OneDrive/Desktop/GD32VW553/V1_MQTT_OK/GD32VW55X_Wifi_BLE_SDK/GD32VW55x_RELEASE_V1.0.2/MSDK/lwip/lwip-2.1.2/src/core/ipv4\etharp.c **** #include "lwip/snmp.h"
  54:C:/Users/stapi/OneDrive/Desktop/GD32VW553/V1_MQTT_OK/GD32VW55X_Wifi_BLE_SDK/GD32VW55x_RELEASE_V1.0.2/MSDK/lwip/lwip-2.1.2/src/core/ipv4\etharp.c **** #include "lwip/dhcp.h"
  55:C:/Users/stapi/OneDrive/Desktop/GD32VW553/V1_MQTT_OK/GD32VW55X_Wifi_BLE_SDK/GD32VW55x_RELEASE_V1.0.2/MSDK/lwip/lwip-2.1.2/src/core/ipv4\etharp.c **** #include "lwip/autoip.h"
  56:C:/Users/stapi/OneDrive/Desktop/GD32VW553/V1_MQTT_OK/GD32VW55X_Wifi_BLE_SDK/GD32VW55x_RELEASE_V1.0.2/MSDK/lwip/lwip-2.1.2/src/core/ipv4\etharp.c **** #include "lwip/prot/iana.h"
  57:C:/Users/stapi/OneDrive/Desktop/GD32VW553/V1_MQTT_OK/GD32VW55X_Wifi_BLE_SDK/GD32VW55x_RELEASE_V1.0.2/MSDK/lwip/lwip-2.1.2/src/core/ipv4\etharp.c **** #include "netif/ethernet.h"
  58:C:/Users/stapi/OneDrive/Desktop/GD32VW553/V1_MQTT_OK/GD32VW55X_Wifi_BLE_SDK/GD32VW55x_RELEASE_V1.0.2/MSDK/lwip/lwip-2.1.2/src/core/ipv4\etharp.c **** 
  59:C:/Users/stapi/OneDrive/Desktop/GD32VW553/V1_MQTT_OK/GD32VW55X_Wifi_BLE_SDK/GD32VW55x_RELEASE_V1.0.2/MSDK/lwip/lwip-2.1.2/src/core/ipv4\etharp.c **** #include <string.h>
  60:C:/Users/stapi/OneDrive/Desktop/GD32VW553/V1_MQTT_OK/GD32VW55X_Wifi_BLE_SDK/GD32VW55x_RELEASE_V1.0.2/MSDK/lwip/lwip-2.1.2/src/core/ipv4\etharp.c **** /* FT TAG */
  61:C:/Users/stapi/OneDrive/Desktop/GD32VW553/V1_MQTT_OK/GD32VW55X_Wifi_BLE_SDK/GD32VW55x_RELEASE_V1.0.2/MSDK/lwip/lwip-2.1.2/src/core/ipv4\etharp.c **** #include "debug_print.h"
  62:C:/Users/stapi/OneDrive/Desktop/GD32VW553/V1_MQTT_OK/GD32VW55X_Wifi_BLE_SDK/GD32VW55x_RELEASE_V1.0.2/MSDK/lwip/lwip-2.1.2/src/core/ipv4\etharp.c **** /* FT TAG */
  63:C:/Users/stapi/OneDrive/Desktop/GD32VW553/V1_MQTT_OK/GD32VW55X_Wifi_BLE_SDK/GD32VW55x_RELEASE_V1.0.2/MSDK/lwip/lwip-2.1.2/src/core/ipv4\etharp.c **** #ifdef LWIP_HOOK_FILENAME
  64:C:/Users/stapi/OneDrive/Desktop/GD32VW553/V1_MQTT_OK/GD32VW55X_Wifi_BLE_SDK/GD32VW55x_RELEASE_V1.0.2/MSDK/lwip/lwip-2.1.2/src/core/ipv4\etharp.c **** #include LWIP_HOOK_FILENAME
  65:C:/Users/stapi/OneDrive/Desktop/GD32VW553/V1_MQTT_OK/GD32VW55X_Wifi_BLE_SDK/GD32VW55x_RELEASE_V1.0.2/MSDK/lwip/lwip-2.1.2/src/core/ipv4\etharp.c **** #endif
  66:C:/Users/stapi/OneDrive/Desktop/GD32VW553/V1_MQTT_OK/GD32VW55X_Wifi_BLE_SDK/GD32VW55x_RELEASE_V1.0.2/MSDK/lwip/lwip-2.1.2/src/core/ipv4\etharp.c **** 
  67:C:/Users/stapi/OneDrive/Desktop/GD32VW553/V1_MQTT_OK/GD32VW55X_Wifi_BLE_SDK/GD32VW55x_RELEASE_V1.0.2/MSDK/lwip/lwip-2.1.2/src/core/ipv4\etharp.c **** /** Re-request a used ARP entry 1 minute before it would expire to prevent
  68:C:/Users/stapi/OneDrive/Desktop/GD32VW553/V1_MQTT_OK/GD32VW55X_Wifi_BLE_SDK/GD32VW55x_RELEASE_V1.0.2/MSDK/lwip/lwip-2.1.2/src/core/ipv4\etharp.c ****  *  breaking a steadily used connection because the ARP entry timed out. */
  69:C:/Users/stapi/OneDrive/Desktop/GD32VW553/V1_MQTT_OK/GD32VW55X_Wifi_BLE_SDK/GD32VW55x_RELEASE_V1.0.2/MSDK/lwip/lwip-2.1.2/src/core/ipv4\etharp.c **** #define ARP_AGE_REREQUEST_USED_UNICAST   (ARP_MAXAGE - 30)
  70:C:/Users/stapi/OneDrive/Desktop/GD32VW553/V1_MQTT_OK/GD32VW55X_Wifi_BLE_SDK/GD32VW55x_RELEASE_V1.0.2/MSDK/lwip/lwip-2.1.2/src/core/ipv4\etharp.c **** #define ARP_AGE_REREQUEST_USED_BROADCAST (ARP_MAXAGE - 15)
  71:C:/Users/stapi/OneDrive/Desktop/GD32VW553/V1_MQTT_OK/GD32VW55X_Wifi_BLE_SDK/GD32VW55x_RELEASE_V1.0.2/MSDK/lwip/lwip-2.1.2/src/core/ipv4\etharp.c **** 
  72:C:/Users/stapi/OneDrive/Desktop/GD32VW553/V1_MQTT_OK/GD32VW55X_Wifi_BLE_SDK/GD32VW55x_RELEASE_V1.0.2/MSDK/lwip/lwip-2.1.2/src/core/ipv4\etharp.c **** /** the time an ARP entry stays pending after first request,
  73:C:/Users/stapi/OneDrive/Desktop/GD32VW553/V1_MQTT_OK/GD32VW55X_Wifi_BLE_SDK/GD32VW55x_RELEASE_V1.0.2/MSDK/lwip/lwip-2.1.2/src/core/ipv4\etharp.c ****  *  for ARP_TMR_INTERVAL = 1000, this is
  74:C:/Users/stapi/OneDrive/Desktop/GD32VW553/V1_MQTT_OK/GD32VW55X_Wifi_BLE_SDK/GD32VW55x_RELEASE_V1.0.2/MSDK/lwip/lwip-2.1.2/src/core/ipv4\etharp.c ****  *  10 seconds.
  75:C:/Users/stapi/OneDrive/Desktop/GD32VW553/V1_MQTT_OK/GD32VW55X_Wifi_BLE_SDK/GD32VW55x_RELEASE_V1.0.2/MSDK/lwip/lwip-2.1.2/src/core/ipv4\etharp.c ****  *
  76:C:/Users/stapi/OneDrive/Desktop/GD32VW553/V1_MQTT_OK/GD32VW55X_Wifi_BLE_SDK/GD32VW55x_RELEASE_V1.0.2/MSDK/lwip/lwip-2.1.2/src/core/ipv4\etharp.c ****  *  @internal Keep this number at least 2, otherwise it might
  77:C:/Users/stapi/OneDrive/Desktop/GD32VW553/V1_MQTT_OK/GD32VW55X_Wifi_BLE_SDK/GD32VW55x_RELEASE_V1.0.2/MSDK/lwip/lwip-2.1.2/src/core/ipv4\etharp.c ****  *  run out instantly if the timeout occurs directly after a request.
  78:C:/Users/stapi/OneDrive/Desktop/GD32VW553/V1_MQTT_OK/GD32VW55X_Wifi_BLE_SDK/GD32VW55x_RELEASE_V1.0.2/MSDK/lwip/lwip-2.1.2/src/core/ipv4\etharp.c ****  */
  79:C:/Users/stapi/OneDrive/Desktop/GD32VW553/V1_MQTT_OK/GD32VW55X_Wifi_BLE_SDK/GD32VW55x_RELEASE_V1.0.2/MSDK/lwip/lwip-2.1.2/src/core/ipv4\etharp.c **** #define ARP_MAXPENDING 5
  80:C:/Users/stapi/OneDrive/Desktop/GD32VW553/V1_MQTT_OK/GD32VW55X_Wifi_BLE_SDK/GD32VW55x_RELEASE_V1.0.2/MSDK/lwip/lwip-2.1.2/src/core/ipv4\etharp.c **** 
  81:C:/Users/stapi/OneDrive/Desktop/GD32VW553/V1_MQTT_OK/GD32VW55X_Wifi_BLE_SDK/GD32VW55x_RELEASE_V1.0.2/MSDK/lwip/lwip-2.1.2/src/core/ipv4\etharp.c **** /** ARP states */
  82:C:/Users/stapi/OneDrive/Desktop/GD32VW553/V1_MQTT_OK/GD32VW55X_Wifi_BLE_SDK/GD32VW55x_RELEASE_V1.0.2/MSDK/lwip/lwip-2.1.2/src/core/ipv4\etharp.c **** enum etharp_state {
  83:C:/Users/stapi/OneDrive/Desktop/GD32VW553/V1_MQTT_OK/GD32VW55X_Wifi_BLE_SDK/GD32VW55x_RELEASE_V1.0.2/MSDK/lwip/lwip-2.1.2/src/core/ipv4\etharp.c ****   ETHARP_STATE_EMPTY = 0,
  84:C:/Users/stapi/OneDrive/Desktop/GD32VW553/V1_MQTT_OK/GD32VW55X_Wifi_BLE_SDK/GD32VW55x_RELEASE_V1.0.2/MSDK/lwip/lwip-2.1.2/src/core/ipv4\etharp.c ****   ETHARP_STATE_PENDING,
  85:C:/Users/stapi/OneDrive/Desktop/GD32VW553/V1_MQTT_OK/GD32VW55X_Wifi_BLE_SDK/GD32VW55x_RELEASE_V1.0.2/MSDK/lwip/lwip-2.1.2/src/core/ipv4\etharp.c ****   ETHARP_STATE_STABLE,
  86:C:/Users/stapi/OneDrive/Desktop/GD32VW553/V1_MQTT_OK/GD32VW55X_Wifi_BLE_SDK/GD32VW55x_RELEASE_V1.0.2/MSDK/lwip/lwip-2.1.2/src/core/ipv4\etharp.c ****   ETHARP_STATE_STABLE_REREQUESTING_1,
  87:C:/Users/stapi/OneDrive/Desktop/GD32VW553/V1_MQTT_OK/GD32VW55X_Wifi_BLE_SDK/GD32VW55x_RELEASE_V1.0.2/MSDK/lwip/lwip-2.1.2/src/core/ipv4\etharp.c ****   ETHARP_STATE_STABLE_REREQUESTING_2
  88:C:/Users/stapi/OneDrive/Desktop/GD32VW553/V1_MQTT_OK/GD32VW55X_Wifi_BLE_SDK/GD32VW55x_RELEASE_V1.0.2/MSDK/lwip/lwip-2.1.2/src/core/ipv4\etharp.c **** #if ETHARP_SUPPORT_STATIC_ENTRIES
  89:C:/Users/stapi/OneDrive/Desktop/GD32VW553/V1_MQTT_OK/GD32VW55X_Wifi_BLE_SDK/GD32VW55x_RELEASE_V1.0.2/MSDK/lwip/lwip-2.1.2/src/core/ipv4\etharp.c ****   , ETHARP_STATE_STATIC
  90:C:/Users/stapi/OneDrive/Desktop/GD32VW553/V1_MQTT_OK/GD32VW55X_Wifi_BLE_SDK/GD32VW55x_RELEASE_V1.0.2/MSDK/lwip/lwip-2.1.2/src/core/ipv4\etharp.c **** #endif /* ETHARP_SUPPORT_STATIC_ENTRIES */
  91:C:/Users/stapi/OneDrive/Desktop/GD32VW553/V1_MQTT_OK/GD32VW55X_Wifi_BLE_SDK/GD32VW55x_RELEASE_V1.0.2/MSDK/lwip/lwip-2.1.2/src/core/ipv4\etharp.c **** };
  92:C:/Users/stapi/OneDrive/Desktop/GD32VW553/V1_MQTT_OK/GD32VW55X_Wifi_BLE_SDK/GD32VW55x_RELEASE_V1.0.2/MSDK/lwip/lwip-2.1.2/src/core/ipv4\etharp.c **** 
  93:C:/Users/stapi/OneDrive/Desktop/GD32VW553/V1_MQTT_OK/GD32VW55X_Wifi_BLE_SDK/GD32VW55x_RELEASE_V1.0.2/MSDK/lwip/lwip-2.1.2/src/core/ipv4\etharp.c **** struct etharp_entry {
  94:C:/Users/stapi/OneDrive/Desktop/GD32VW553/V1_MQTT_OK/GD32VW55X_Wifi_BLE_SDK/GD32VW55x_RELEASE_V1.0.2/MSDK/lwip/lwip-2.1.2/src/core/ipv4\etharp.c **** #if ARP_QUEUEING
  95:C:/Users/stapi/OneDrive/Desktop/GD32VW553/V1_MQTT_OK/GD32VW55X_Wifi_BLE_SDK/GD32VW55x_RELEASE_V1.0.2/MSDK/lwip/lwip-2.1.2/src/core/ipv4\etharp.c ****   /** Pointer to queue of pending outgoing packets on this ARP entry. */
  96:C:/Users/stapi/OneDrive/Desktop/GD32VW553/V1_MQTT_OK/GD32VW55X_Wifi_BLE_SDK/GD32VW55x_RELEASE_V1.0.2/MSDK/lwip/lwip-2.1.2/src/core/ipv4\etharp.c ****   struct etharp_q_entry *q;
  97:C:/Users/stapi/OneDrive/Desktop/GD32VW553/V1_MQTT_OK/GD32VW55X_Wifi_BLE_SDK/GD32VW55x_RELEASE_V1.0.2/MSDK/lwip/lwip-2.1.2/src/core/ipv4\etharp.c **** #else /* ARP_QUEUEING */
  98:C:/Users/stapi/OneDrive/Desktop/GD32VW553/V1_MQTT_OK/GD32VW55X_Wifi_BLE_SDK/GD32VW55x_RELEASE_V1.0.2/MSDK/lwip/lwip-2.1.2/src/core/ipv4\etharp.c ****   /** Pointer to a single pending outgoing packet on this ARP entry. */
  99:C:/Users/stapi/OneDrive/Desktop/GD32VW553/V1_MQTT_OK/GD32VW55X_Wifi_BLE_SDK/GD32VW55x_RELEASE_V1.0.2/MSDK/lwip/lwip-2.1.2/src/core/ipv4\etharp.c ****   struct pbuf *q;
 100:C:/Users/stapi/OneDrive/Desktop/GD32VW553/V1_MQTT_OK/GD32VW55X_Wifi_BLE_SDK/GD32VW55x_RELEASE_V1.0.2/MSDK/lwip/lwip-2.1.2/src/core/ipv4\etharp.c **** #endif /* ARP_QUEUEING */
 101:C:/Users/stapi/OneDrive/Desktop/GD32VW553/V1_MQTT_OK/GD32VW55X_Wifi_BLE_SDK/GD32VW55x_RELEASE_V1.0.2/MSDK/lwip/lwip-2.1.2/src/core/ipv4\etharp.c ****   ip4_addr_t ipaddr;
 102:C:/Users/stapi/OneDrive/Desktop/GD32VW553/V1_MQTT_OK/GD32VW55X_Wifi_BLE_SDK/GD32VW55x_RELEASE_V1.0.2/MSDK/lwip/lwip-2.1.2/src/core/ipv4\etharp.c ****   struct netif *netif;
 103:C:/Users/stapi/OneDrive/Desktop/GD32VW553/V1_MQTT_OK/GD32VW55X_Wifi_BLE_SDK/GD32VW55x_RELEASE_V1.0.2/MSDK/lwip/lwip-2.1.2/src/core/ipv4\etharp.c ****   struct eth_addr ethaddr;
 104:C:/Users/stapi/OneDrive/Desktop/GD32VW553/V1_MQTT_OK/GD32VW55X_Wifi_BLE_SDK/GD32VW55x_RELEASE_V1.0.2/MSDK/lwip/lwip-2.1.2/src/core/ipv4\etharp.c ****   u16_t ctime;
 105:C:/Users/stapi/OneDrive/Desktop/GD32VW553/V1_MQTT_OK/GD32VW55X_Wifi_BLE_SDK/GD32VW55x_RELEASE_V1.0.2/MSDK/lwip/lwip-2.1.2/src/core/ipv4\etharp.c ****   u8_t state;
 106:C:/Users/stapi/OneDrive/Desktop/GD32VW553/V1_MQTT_OK/GD32VW55X_Wifi_BLE_SDK/GD32VW55x_RELEASE_V1.0.2/MSDK/lwip/lwip-2.1.2/src/core/ipv4\etharp.c **** };
 107:C:/Users/stapi/OneDrive/Desktop/GD32VW553/V1_MQTT_OK/GD32VW55X_Wifi_BLE_SDK/GD32VW55x_RELEASE_V1.0.2/MSDK/lwip/lwip-2.1.2/src/core/ipv4\etharp.c **** 
 108:C:/Users/stapi/OneDrive/Desktop/GD32VW553/V1_MQTT_OK/GD32VW55X_Wifi_BLE_SDK/GD32VW55x_RELEASE_V1.0.2/MSDK/lwip/lwip-2.1.2/src/core/ipv4\etharp.c **** static struct etharp_entry arp_table[ARP_TABLE_SIZE];
 109:C:/Users/stapi/OneDrive/Desktop/GD32VW553/V1_MQTT_OK/GD32VW55X_Wifi_BLE_SDK/GD32VW55x_RELEASE_V1.0.2/MSDK/lwip/lwip-2.1.2/src/core/ipv4\etharp.c **** 
 110:C:/Users/stapi/OneDrive/Desktop/GD32VW553/V1_MQTT_OK/GD32VW55X_Wifi_BLE_SDK/GD32VW55x_RELEASE_V1.0.2/MSDK/lwip/lwip-2.1.2/src/core/ipv4\etharp.c **** #if !LWIP_NETIF_HWADDRHINT
 111:C:/Users/stapi/OneDrive/Desktop/GD32VW553/V1_MQTT_OK/GD32VW55X_Wifi_BLE_SDK/GD32VW55x_RELEASE_V1.0.2/MSDK/lwip/lwip-2.1.2/src/core/ipv4\etharp.c **** static netif_addr_idx_t etharp_cached_entry;
 112:C:/Users/stapi/OneDrive/Desktop/GD32VW553/V1_MQTT_OK/GD32VW55X_Wifi_BLE_SDK/GD32VW55x_RELEASE_V1.0.2/MSDK/lwip/lwip-2.1.2/src/core/ipv4\etharp.c **** #endif /* !LWIP_NETIF_HWADDRHINT */
 113:C:/Users/stapi/OneDrive/Desktop/GD32VW553/V1_MQTT_OK/GD32VW55X_Wifi_BLE_SDK/GD32VW55x_RELEASE_V1.0.2/MSDK/lwip/lwip-2.1.2/src/core/ipv4\etharp.c **** 
 114:C:/Users/stapi/OneDrive/Desktop/GD32VW553/V1_MQTT_OK/GD32VW55X_Wifi_BLE_SDK/GD32VW55x_RELEASE_V1.0.2/MSDK/lwip/lwip-2.1.2/src/core/ipv4\etharp.c **** /** Try hard to create a new entry - we want the IP address to appear in
 115:C:/Users/stapi/OneDrive/Desktop/GD32VW553/V1_MQTT_OK/GD32VW55X_Wifi_BLE_SDK/GD32VW55x_RELEASE_V1.0.2/MSDK/lwip/lwip-2.1.2/src/core/ipv4\etharp.c ****     the cache (even if this means removing an active entry or so). */
 116:C:/Users/stapi/OneDrive/Desktop/GD32VW553/V1_MQTT_OK/GD32VW55X_Wifi_BLE_SDK/GD32VW55x_RELEASE_V1.0.2/MSDK/lwip/lwip-2.1.2/src/core/ipv4\etharp.c **** #define ETHARP_FLAG_TRY_HARD     1
 117:C:/Users/stapi/OneDrive/Desktop/GD32VW553/V1_MQTT_OK/GD32VW55X_Wifi_BLE_SDK/GD32VW55x_RELEASE_V1.0.2/MSDK/lwip/lwip-2.1.2/src/core/ipv4\etharp.c **** #define ETHARP_FLAG_FIND_ONLY    2
 118:C:/Users/stapi/OneDrive/Desktop/GD32VW553/V1_MQTT_OK/GD32VW55X_Wifi_BLE_SDK/GD32VW55x_RELEASE_V1.0.2/MSDK/lwip/lwip-2.1.2/src/core/ipv4\etharp.c **** #if ETHARP_SUPPORT_STATIC_ENTRIES
 119:C:/Users/stapi/OneDrive/Desktop/GD32VW553/V1_MQTT_OK/GD32VW55X_Wifi_BLE_SDK/GD32VW55x_RELEASE_V1.0.2/MSDK/lwip/lwip-2.1.2/src/core/ipv4\etharp.c **** #define ETHARP_FLAG_STATIC_ENTRY 4
 120:C:/Users/stapi/OneDrive/Desktop/GD32VW553/V1_MQTT_OK/GD32VW55X_Wifi_BLE_SDK/GD32VW55x_RELEASE_V1.0.2/MSDK/lwip/lwip-2.1.2/src/core/ipv4\etharp.c **** #endif /* ETHARP_SUPPORT_STATIC_ENTRIES */
 121:C:/Users/stapi/OneDrive/Desktop/GD32VW553/V1_MQTT_OK/GD32VW55X_Wifi_BLE_SDK/GD32VW55x_RELEASE_V1.0.2/MSDK/lwip/lwip-2.1.2/src/core/ipv4\etharp.c **** 
 122:C:/Users/stapi/OneDrive/Desktop/GD32VW553/V1_MQTT_OK/GD32VW55X_Wifi_BLE_SDK/GD32VW55x_RELEASE_V1.0.2/MSDK/lwip/lwip-2.1.2/src/core/ipv4\etharp.c **** #if LWIP_NETIF_HWADDRHINT
 123:C:/Users/stapi/OneDrive/Desktop/GD32VW553/V1_MQTT_OK/GD32VW55X_Wifi_BLE_SDK/GD32VW55x_RELEASE_V1.0.2/MSDK/lwip/lwip-2.1.2/src/core/ipv4\etharp.c **** #define ETHARP_SET_ADDRHINT(netif, addrhint)  do { if (((netif) != NULL) && ((netif)->hints != NULL
 124:C:/Users/stapi/OneDrive/Desktop/GD32VW553/V1_MQTT_OK/GD32VW55X_Wifi_BLE_SDK/GD32VW55x_RELEASE_V1.0.2/MSDK/lwip/lwip-2.1.2/src/core/ipv4\etharp.c ****                                               (netif)->hints->addr_hint = (addrhint); }} while(0)
 125:C:/Users/stapi/OneDrive/Desktop/GD32VW553/V1_MQTT_OK/GD32VW55X_Wifi_BLE_SDK/GD32VW55x_RELEASE_V1.0.2/MSDK/lwip/lwip-2.1.2/src/core/ipv4\etharp.c **** #else /* LWIP_NETIF_HWADDRHINT */
 126:C:/Users/stapi/OneDrive/Desktop/GD32VW553/V1_MQTT_OK/GD32VW55X_Wifi_BLE_SDK/GD32VW55x_RELEASE_V1.0.2/MSDK/lwip/lwip-2.1.2/src/core/ipv4\etharp.c **** #define ETHARP_SET_ADDRHINT(netif, addrhint)  (etharp_cached_entry = (addrhint))
 127:C:/Users/stapi/OneDrive/Desktop/GD32VW553/V1_MQTT_OK/GD32VW55X_Wifi_BLE_SDK/GD32VW55x_RELEASE_V1.0.2/MSDK/lwip/lwip-2.1.2/src/core/ipv4\etharp.c **** #endif /* LWIP_NETIF_HWADDRHINT */
 128:C:/Users/stapi/OneDrive/Desktop/GD32VW553/V1_MQTT_OK/GD32VW55X_Wifi_BLE_SDK/GD32VW55x_RELEASE_V1.0.2/MSDK/lwip/lwip-2.1.2/src/core/ipv4\etharp.c **** 
 129:C:/Users/stapi/OneDrive/Desktop/GD32VW553/V1_MQTT_OK/GD32VW55X_Wifi_BLE_SDK/GD32VW55x_RELEASE_V1.0.2/MSDK/lwip/lwip-2.1.2/src/core/ipv4\etharp.c **** 
 130:C:/Users/stapi/OneDrive/Desktop/GD32VW553/V1_MQTT_OK/GD32VW55X_Wifi_BLE_SDK/GD32VW55x_RELEASE_V1.0.2/MSDK/lwip/lwip-2.1.2/src/core/ipv4\etharp.c **** /* Check for maximum ARP_TABLE_SIZE */
 131:C:/Users/stapi/OneDrive/Desktop/GD32VW553/V1_MQTT_OK/GD32VW55X_Wifi_BLE_SDK/GD32VW55x_RELEASE_V1.0.2/MSDK/lwip/lwip-2.1.2/src/core/ipv4\etharp.c **** #if (ARP_TABLE_SIZE > NETIF_ADDR_IDX_MAX)
 132:C:/Users/stapi/OneDrive/Desktop/GD32VW553/V1_MQTT_OK/GD32VW55X_Wifi_BLE_SDK/GD32VW55x_RELEASE_V1.0.2/MSDK/lwip/lwip-2.1.2/src/core/ipv4\etharp.c **** #error "ARP_TABLE_SIZE must fit in an s16_t, you have to reduce it in your lwipopts.h"
 133:C:/Users/stapi/OneDrive/Desktop/GD32VW553/V1_MQTT_OK/GD32VW55X_Wifi_BLE_SDK/GD32VW55x_RELEASE_V1.0.2/MSDK/lwip/lwip-2.1.2/src/core/ipv4\etharp.c **** #endif
 134:C:/Users/stapi/OneDrive/Desktop/GD32VW553/V1_MQTT_OK/GD32VW55X_Wifi_BLE_SDK/GD32VW55x_RELEASE_V1.0.2/MSDK/lwip/lwip-2.1.2/src/core/ipv4\etharp.c **** 
 135:C:/Users/stapi/OneDrive/Desktop/GD32VW553/V1_MQTT_OK/GD32VW55X_Wifi_BLE_SDK/GD32VW55x_RELEASE_V1.0.2/MSDK/lwip/lwip-2.1.2/src/core/ipv4\etharp.c **** 
 136:C:/Users/stapi/OneDrive/Desktop/GD32VW553/V1_MQTT_OK/GD32VW55X_Wifi_BLE_SDK/GD32VW55x_RELEASE_V1.0.2/MSDK/lwip/lwip-2.1.2/src/core/ipv4\etharp.c **** static err_t etharp_request_dst(struct netif *netif, const ip4_addr_t *ipaddr, const struct eth_add
 137:C:/Users/stapi/OneDrive/Desktop/GD32VW553/V1_MQTT_OK/GD32VW55X_Wifi_BLE_SDK/GD32VW55x_RELEASE_V1.0.2/MSDK/lwip/lwip-2.1.2/src/core/ipv4\etharp.c **** static err_t etharp_raw(struct netif *netif,
 138:C:/Users/stapi/OneDrive/Desktop/GD32VW553/V1_MQTT_OK/GD32VW55X_Wifi_BLE_SDK/GD32VW55x_RELEASE_V1.0.2/MSDK/lwip/lwip-2.1.2/src/core/ipv4\etharp.c ****                         const struct eth_addr *ethsrc_addr, const struct eth_addr *ethdst_addr,
 139:C:/Users/stapi/OneDrive/Desktop/GD32VW553/V1_MQTT_OK/GD32VW55X_Wifi_BLE_SDK/GD32VW55x_RELEASE_V1.0.2/MSDK/lwip/lwip-2.1.2/src/core/ipv4\etharp.c ****                         const struct eth_addr *hwsrc_addr, const ip4_addr_t *ipsrc_addr,
 140:C:/Users/stapi/OneDrive/Desktop/GD32VW553/V1_MQTT_OK/GD32VW55X_Wifi_BLE_SDK/GD32VW55x_RELEASE_V1.0.2/MSDK/lwip/lwip-2.1.2/src/core/ipv4\etharp.c ****                         const struct eth_addr *hwdst_addr, const ip4_addr_t *ipdst_addr,
 141:C:/Users/stapi/OneDrive/Desktop/GD32VW553/V1_MQTT_OK/GD32VW55X_Wifi_BLE_SDK/GD32VW55x_RELEASE_V1.0.2/MSDK/lwip/lwip-2.1.2/src/core/ipv4\etharp.c ****                         const u16_t opcode);
 142:C:/Users/stapi/OneDrive/Desktop/GD32VW553/V1_MQTT_OK/GD32VW55X_Wifi_BLE_SDK/GD32VW55x_RELEASE_V1.0.2/MSDK/lwip/lwip-2.1.2/src/core/ipv4\etharp.c **** 
 143:C:/Users/stapi/OneDrive/Desktop/GD32VW553/V1_MQTT_OK/GD32VW55X_Wifi_BLE_SDK/GD32VW55x_RELEASE_V1.0.2/MSDK/lwip/lwip-2.1.2/src/core/ipv4\etharp.c **** #if ARP_QUEUEING
 144:C:/Users/stapi/OneDrive/Desktop/GD32VW553/V1_MQTT_OK/GD32VW55X_Wifi_BLE_SDK/GD32VW55x_RELEASE_V1.0.2/MSDK/lwip/lwip-2.1.2/src/core/ipv4\etharp.c **** /**
 145:C:/Users/stapi/OneDrive/Desktop/GD32VW553/V1_MQTT_OK/GD32VW55X_Wifi_BLE_SDK/GD32VW55x_RELEASE_V1.0.2/MSDK/lwip/lwip-2.1.2/src/core/ipv4\etharp.c ****  * Free a complete queue of etharp entries
 146:C:/Users/stapi/OneDrive/Desktop/GD32VW553/V1_MQTT_OK/GD32VW55X_Wifi_BLE_SDK/GD32VW55x_RELEASE_V1.0.2/MSDK/lwip/lwip-2.1.2/src/core/ipv4\etharp.c ****  *
 147:C:/Users/stapi/OneDrive/Desktop/GD32VW553/V1_MQTT_OK/GD32VW55X_Wifi_BLE_SDK/GD32VW55x_RELEASE_V1.0.2/MSDK/lwip/lwip-2.1.2/src/core/ipv4\etharp.c ****  * @param q a qeueue of etharp_q_entry's to free
 148:C:/Users/stapi/OneDrive/Desktop/GD32VW553/V1_MQTT_OK/GD32VW55X_Wifi_BLE_SDK/GD32VW55x_RELEASE_V1.0.2/MSDK/lwip/lwip-2.1.2/src/core/ipv4\etharp.c ****  */
 149:C:/Users/stapi/OneDrive/Desktop/GD32VW553/V1_MQTT_OK/GD32VW55X_Wifi_BLE_SDK/GD32VW55x_RELEASE_V1.0.2/MSDK/lwip/lwip-2.1.2/src/core/ipv4\etharp.c **** static void
 150:C:/Users/stapi/OneDrive/Desktop/GD32VW553/V1_MQTT_OK/GD32VW55X_Wifi_BLE_SDK/GD32VW55x_RELEASE_V1.0.2/MSDK/lwip/lwip-2.1.2/src/core/ipv4\etharp.c **** free_etharp_q(struct etharp_q_entry *q)
 151:C:/Users/stapi/OneDrive/Desktop/GD32VW553/V1_MQTT_OK/GD32VW55X_Wifi_BLE_SDK/GD32VW55x_RELEASE_V1.0.2/MSDK/lwip/lwip-2.1.2/src/core/ipv4\etharp.c **** {
 152:C:/Users/stapi/OneDrive/Desktop/GD32VW553/V1_MQTT_OK/GD32VW55X_Wifi_BLE_SDK/GD32VW55x_RELEASE_V1.0.2/MSDK/lwip/lwip-2.1.2/src/core/ipv4\etharp.c ****   struct etharp_q_entry *r;
 153:C:/Users/stapi/OneDrive/Desktop/GD32VW553/V1_MQTT_OK/GD32VW55X_Wifi_BLE_SDK/GD32VW55x_RELEASE_V1.0.2/MSDK/lwip/lwip-2.1.2/src/core/ipv4\etharp.c ****   LWIP_ASSERT("q != NULL", q != NULL);
 154:C:/Users/stapi/OneDrive/Desktop/GD32VW553/V1_MQTT_OK/GD32VW55X_Wifi_BLE_SDK/GD32VW55x_RELEASE_V1.0.2/MSDK/lwip/lwip-2.1.2/src/core/ipv4\etharp.c ****   while (q) {
 155:C:/Users/stapi/OneDrive/Desktop/GD32VW553/V1_MQTT_OK/GD32VW55X_Wifi_BLE_SDK/GD32VW55x_RELEASE_V1.0.2/MSDK/lwip/lwip-2.1.2/src/core/ipv4\etharp.c ****     r = q;
 156:C:/Users/stapi/OneDrive/Desktop/GD32VW553/V1_MQTT_OK/GD32VW55X_Wifi_BLE_SDK/GD32VW55x_RELEASE_V1.0.2/MSDK/lwip/lwip-2.1.2/src/core/ipv4\etharp.c ****     q = q->next;
 157:C:/Users/stapi/OneDrive/Desktop/GD32VW553/V1_MQTT_OK/GD32VW55X_Wifi_BLE_SDK/GD32VW55x_RELEASE_V1.0.2/MSDK/lwip/lwip-2.1.2/src/core/ipv4\etharp.c ****     LWIP_ASSERT("r->p != NULL", (r->p != NULL));
 158:C:/Users/stapi/OneDrive/Desktop/GD32VW553/V1_MQTT_OK/GD32VW55X_Wifi_BLE_SDK/GD32VW55x_RELEASE_V1.0.2/MSDK/lwip/lwip-2.1.2/src/core/ipv4\etharp.c ****     pbuf_free(r->p);
 159:C:/Users/stapi/OneDrive/Desktop/GD32VW553/V1_MQTT_OK/GD32VW55X_Wifi_BLE_SDK/GD32VW55x_RELEASE_V1.0.2/MSDK/lwip/lwip-2.1.2/src/core/ipv4\etharp.c ****     memp_free(MEMP_ARP_QUEUE, r);
 160:C:/Users/stapi/OneDrive/Desktop/GD32VW553/V1_MQTT_OK/GD32VW55X_Wifi_BLE_SDK/GD32VW55x_RELEASE_V1.0.2/MSDK/lwip/lwip-2.1.2/src/core/ipv4\etharp.c ****   }
 161:C:/Users/stapi/OneDrive/Desktop/GD32VW553/V1_MQTT_OK/GD32VW55X_Wifi_BLE_SDK/GD32VW55x_RELEASE_V1.0.2/MSDK/lwip/lwip-2.1.2/src/core/ipv4\etharp.c **** }
 162:C:/Users/stapi/OneDrive/Desktop/GD32VW553/V1_MQTT_OK/GD32VW55X_Wifi_BLE_SDK/GD32VW55x_RELEASE_V1.0.2/MSDK/lwip/lwip-2.1.2/src/core/ipv4\etharp.c **** #else /* ARP_QUEUEING */
 163:C:/Users/stapi/OneDrive/Desktop/GD32VW553/V1_MQTT_OK/GD32VW55X_Wifi_BLE_SDK/GD32VW55x_RELEASE_V1.0.2/MSDK/lwip/lwip-2.1.2/src/core/ipv4\etharp.c **** 
 164:C:/Users/stapi/OneDrive/Desktop/GD32VW553/V1_MQTT_OK/GD32VW55X_Wifi_BLE_SDK/GD32VW55x_RELEASE_V1.0.2/MSDK/lwip/lwip-2.1.2/src/core/ipv4\etharp.c **** /** Compatibility define: free the queued pbuf */
 165:C:/Users/stapi/OneDrive/Desktop/GD32VW553/V1_MQTT_OK/GD32VW55X_Wifi_BLE_SDK/GD32VW55x_RELEASE_V1.0.2/MSDK/lwip/lwip-2.1.2/src/core/ipv4\etharp.c **** #define free_etharp_q(q) pbuf_free(q)
 166:C:/Users/stapi/OneDrive/Desktop/GD32VW553/V1_MQTT_OK/GD32VW55X_Wifi_BLE_SDK/GD32VW55x_RELEASE_V1.0.2/MSDK/lwip/lwip-2.1.2/src/core/ipv4\etharp.c **** 
 167:C:/Users/stapi/OneDrive/Desktop/GD32VW553/V1_MQTT_OK/GD32VW55X_Wifi_BLE_SDK/GD32VW55x_RELEASE_V1.0.2/MSDK/lwip/lwip-2.1.2/src/core/ipv4\etharp.c **** #endif /* ARP_QUEUEING */
 168:C:/Users/stapi/OneDrive/Desktop/GD32VW553/V1_MQTT_OK/GD32VW55X_Wifi_BLE_SDK/GD32VW55x_RELEASE_V1.0.2/MSDK/lwip/lwip-2.1.2/src/core/ipv4\etharp.c **** 
 169:C:/Users/stapi/OneDrive/Desktop/GD32VW553/V1_MQTT_OK/GD32VW55X_Wifi_BLE_SDK/GD32VW55x_RELEASE_V1.0.2/MSDK/lwip/lwip-2.1.2/src/core/ipv4\etharp.c **** /** Clean up ARP table entries */
 170:C:/Users/stapi/OneDrive/Desktop/GD32VW553/V1_MQTT_OK/GD32VW55X_Wifi_BLE_SDK/GD32VW55x_RELEASE_V1.0.2/MSDK/lwip/lwip-2.1.2/src/core/ipv4\etharp.c **** static void
 171:C:/Users/stapi/OneDrive/Desktop/GD32VW553/V1_MQTT_OK/GD32VW55X_Wifi_BLE_SDK/GD32VW55x_RELEASE_V1.0.2/MSDK/lwip/lwip-2.1.2/src/core/ipv4\etharp.c **** etharp_free_entry(int i)
 172:C:/Users/stapi/OneDrive/Desktop/GD32VW553/V1_MQTT_OK/GD32VW55X_Wifi_BLE_SDK/GD32VW55x_RELEASE_V1.0.2/MSDK/lwip/lwip-2.1.2/src/core/ipv4\etharp.c **** {
  15              		.loc 1 172 1
  16              		.cfi_startproc
  17              	.LVL0:
  18 0000 17030000 		call	t0,__riscv_save_3
  18      E7020300 
  19              		.cfi_offset 18, -16
  20              		.cfi_offset 9, -12
  21              		.cfi_offset 8, -8
  22              		.cfi_offset 1, -4
  23              		.cfi_def_cfa_offset 16
 173:C:/Users/stapi/OneDrive/Desktop/GD32VW553/V1_MQTT_OK/GD32VW55X_Wifi_BLE_SDK/GD32VW55x_RELEASE_V1.0.2/MSDK/lwip/lwip-2.1.2/src/core/ipv4\etharp.c ****   /* remove from SNMP ARP index tree */
 174:C:/Users/stapi/OneDrive/Desktop/GD32VW553/V1_MQTT_OK/GD32VW55X_Wifi_BLE_SDK/GD32VW55x_RELEASE_V1.0.2/MSDK/lwip/lwip-2.1.2/src/core/ipv4\etharp.c ****   mib2_remove_arp_entry(arp_table[i].netif, &arp_table[i].ipaddr);
  24              		.loc 1 174 66
 175:C:/Users/stapi/OneDrive/Desktop/GD32VW553/V1_MQTT_OK/GD32VW55X_Wifi_BLE_SDK/GD32VW55x_RELEASE_V1.0.2/MSDK/lwip/lwip-2.1.2/src/core/ipv4\etharp.c ****   /* and empty packet queue */
 176:C:/Users/stapi/OneDrive/Desktop/GD32VW553/V1_MQTT_OK/GD32VW55X_Wifi_BLE_SDK/GD32VW55x_RELEASE_V1.0.2/MSDK/lwip/lwip-2.1.2/src/core/ipv4\etharp.c ****   if (arp_table[i].q != NULL) {
  25              		.loc 1 176 3
  26              		.loc 1 176 19 is_stmt 0
  27 0008 B7070000 		lui	a5,%hi(.LANCHOR0)
  28 000c 13890700 		addi	s2,a5,%lo(.LANCHOR0)
  29 0010 6147     		li	a4,24
 172:C:/Users/stapi/OneDrive/Desktop/GD32VW553/V1_MQTT_OK/GD32VW55X_Wifi_BLE_SDK/GD32VW55x_RELEASE_V1.0.2/MSDK/lwip/lwip-2.1.2/src/core/ipv4\etharp.c ****   /* remove from SNMP ARP index tree */
  30              		.loc 1 172 1
  31 0012 AA84     		mv	s1,a0
  32              		.loc 1 176 19
  33 0014 7F19E5C4 		maddr32	s2, a0, a4
  34 0018 03250900 		lw	a0,0(s2)
  35              	.LVL1:
  36 001c 13840700 		addi	s0,a5,%lo(.LANCHOR0)
  37              		.loc 1 176 6
  38 0020 19C5     		beq	a0,zero,.L2
 177:C:/Users/stapi/OneDrive/Desktop/GD32VW553/V1_MQTT_OK/GD32VW55X_Wifi_BLE_SDK/GD32VW55x_RELEASE_V1.0.2/MSDK/lwip/lwip-2.1.2/src/core/ipv4\etharp.c ****     /* remove all queued packets */
 178:C:/Users/stapi/OneDrive/Desktop/GD32VW553/V1_MQTT_OK/GD32VW55X_Wifi_BLE_SDK/GD32VW55x_RELEASE_V1.0.2/MSDK/lwip/lwip-2.1.2/src/core/ipv4\etharp.c ****     LWIP_DEBUGF(ETHARP_DEBUG, ("etharp_free_entry: freeing entry %"U16_F", packet queue %p.\n", (u1
  39              		.loc 1 178 133 is_stmt 1
 179:C:/Users/stapi/OneDrive/Desktop/GD32VW553/V1_MQTT_OK/GD32VW55X_Wifi_BLE_SDK/GD32VW55x_RELEASE_V1.0.2/MSDK/lwip/lwip-2.1.2/src/core/ipv4\etharp.c ****     free_etharp_q(arp_table[i].q);
  40              		.loc 1 179 5
  41 0022 97000000 		call	pbuf_free
  41      E7800000 
  42              	.LVL2:
 180:C:/Users/stapi/OneDrive/Desktop/GD32VW553/V1_MQTT_OK/GD32VW55X_Wifi_BLE_SDK/GD32VW55x_RELEASE_V1.0.2/MSDK/lwip/lwip-2.1.2/src/core/ipv4\etharp.c ****     arp_table[i].q = NULL;
  43              		.loc 1 180 5
  44              		.loc 1 180 20 is_stmt 0
  45 002a 23200900 		sw	zero,0(s2)
  46              	.L2:
 181:C:/Users/stapi/OneDrive/Desktop/GD32VW553/V1_MQTT_OK/GD32VW55X_Wifi_BLE_SDK/GD32VW55x_RELEASE_V1.0.2/MSDK/lwip/lwip-2.1.2/src/core/ipv4\etharp.c ****   }
 182:C:/Users/stapi/OneDrive/Desktop/GD32VW553/V1_MQTT_OK/GD32VW55X_Wifi_BLE_SDK/GD32VW55x_RELEASE_V1.0.2/MSDK/lwip/lwip-2.1.2/src/core/ipv4\etharp.c ****   /* recycle entry for re-use */
 183:C:/Users/stapi/OneDrive/Desktop/GD32VW553/V1_MQTT_OK/GD32VW55X_Wifi_BLE_SDK/GD32VW55x_RELEASE_V1.0.2/MSDK/lwip/lwip-2.1.2/src/core/ipv4\etharp.c ****   arp_table[i].state = ETHARP_STATE_EMPTY;
  47              		.loc 1 183 3 is_stmt 1
  48              		.loc 1 183 22 is_stmt 0
  49 002e 6147     		li	a4,24
  50 0030 A287     		mv	a5,s0
  51 0032 FF97E4C4 		maddr32	a5, s1, a4
  52 0036 238A0700 		sb	zero,20(a5)
 184:C:/Users/stapi/OneDrive/Desktop/GD32VW553/V1_MQTT_OK/GD32VW55X_Wifi_BLE_SDK/GD32VW55x_RELEASE_V1.0.2/MSDK/lwip/lwip-2.1.2/src/core/ipv4\etharp.c **** #ifdef LWIP_DEBUG
 185:C:/Users/stapi/OneDrive/Desktop/GD32VW553/V1_MQTT_OK/GD32VW55X_Wifi_BLE_SDK/GD32VW55x_RELEASE_V1.0.2/MSDK/lwip/lwip-2.1.2/src/core/ipv4\etharp.c ****   /* for debugging, clean out the complete entry */
 186:C:/Users/stapi/OneDrive/Desktop/GD32VW553/V1_MQTT_OK/GD32VW55X_Wifi_BLE_SDK/GD32VW55x_RELEASE_V1.0.2/MSDK/lwip/lwip-2.1.2/src/core/ipv4\etharp.c ****   arp_table[i].ctime = 0;
 187:C:/Users/stapi/OneDrive/Desktop/GD32VW553/V1_MQTT_OK/GD32VW55X_Wifi_BLE_SDK/GD32VW55x_RELEASE_V1.0.2/MSDK/lwip/lwip-2.1.2/src/core/ipv4\etharp.c ****   arp_table[i].netif = NULL;
 188:C:/Users/stapi/OneDrive/Desktop/GD32VW553/V1_MQTT_OK/GD32VW55X_Wifi_BLE_SDK/GD32VW55x_RELEASE_V1.0.2/MSDK/lwip/lwip-2.1.2/src/core/ipv4\etharp.c ****   ip4_addr_set_zero(&arp_table[i].ipaddr);
 189:C:/Users/stapi/OneDrive/Desktop/GD32VW553/V1_MQTT_OK/GD32VW55X_Wifi_BLE_SDK/GD32VW55x_RELEASE_V1.0.2/MSDK/lwip/lwip-2.1.2/src/core/ipv4\etharp.c ****   arp_table[i].ethaddr = ethzero;
 190:C:/Users/stapi/OneDrive/Desktop/GD32VW553/V1_MQTT_OK/GD32VW55X_Wifi_BLE_SDK/GD32VW55x_RELEASE_V1.0.2/MSDK/lwip/lwip-2.1.2/src/core/ipv4\etharp.c **** #endif /* LWIP_DEBUG */
 191:C:/Users/stapi/OneDrive/Desktop/GD32VW553/V1_MQTT_OK/GD32VW55X_Wifi_BLE_SDK/GD32VW55x_RELEASE_V1.0.2/MSDK/lwip/lwip-2.1.2/src/core/ipv4\etharp.c **** }
  53              		.loc 1 191 1
  54 003a 17030000 		tail	__riscv_restore_3
  54      67000300 
  55              		.cfi_restore 18
  56              		.cfi_restore 9
  57              		.cfi_restore 8
  58              		.cfi_restore 1
  59              		.cfi_def_cfa_offset 0
  60              		.cfi_endproc
  61              	.LFE4:
  63              		.section	.rodata.etharp_find_entry.str1.4,"aMS",@progbits,1
  64              		.align	2
  65              	.LC0:
  66 0000 433A2F55 		.string	"C:/Users/stapi/OneDrive/Desktop/GD32VW553/V1_MQTT_OK/GD32VW55X_Wifi_BLE_SDK/GD32VW55x_REL
  66      73657273 
  66      2F737461 
  66      70692F4F 
  66      6E654472 
  67 0091 000000   		.align	2
  68              	.LC1:
  69 0094 6172705F 		.string	"arp_table[i].q == NULL"
  69      7461626C 
  69      655B695D 
  69      2E71203D 
  69      3D204E55 
  70 00ab 00       		.align	2
  71              	.LC2:
  72 00ac 41737365 		.string	"Assertion \"%s\" failed at line %d in %s\n"
  72      7274696F 
  72      6E202225 
  72      73222066 
  72      61696C65 
  73              		.align	2
  74              	.LC3:
  75 00d4 6172705F 		.string	"arp_table[i].state == ETHARP_STATE_EMPTY"
  75      7461626C 
  75      655B695D 
  75      2E737461 
  75      7465203D 
  76              		.section	.text.etharp_find_entry,"ax",@progbits
  77              		.align	1
  79              	etharp_find_entry:
  80              	.LFB6:
 192:C:/Users/stapi/OneDrive/Desktop/GD32VW553/V1_MQTT_OK/GD32VW55X_Wifi_BLE_SDK/GD32VW55x_RELEASE_V1.0.2/MSDK/lwip/lwip-2.1.2/src/core/ipv4\etharp.c **** 
 193:C:/Users/stapi/OneDrive/Desktop/GD32VW553/V1_MQTT_OK/GD32VW55X_Wifi_BLE_SDK/GD32VW55x_RELEASE_V1.0.2/MSDK/lwip/lwip-2.1.2/src/core/ipv4\etharp.c **** /**
 194:C:/Users/stapi/OneDrive/Desktop/GD32VW553/V1_MQTT_OK/GD32VW55X_Wifi_BLE_SDK/GD32VW55x_RELEASE_V1.0.2/MSDK/lwip/lwip-2.1.2/src/core/ipv4\etharp.c ****  * Clears expired entries in the ARP table.
 195:C:/Users/stapi/OneDrive/Desktop/GD32VW553/V1_MQTT_OK/GD32VW55X_Wifi_BLE_SDK/GD32VW55x_RELEASE_V1.0.2/MSDK/lwip/lwip-2.1.2/src/core/ipv4\etharp.c ****  *
 196:C:/Users/stapi/OneDrive/Desktop/GD32VW553/V1_MQTT_OK/GD32VW55X_Wifi_BLE_SDK/GD32VW55x_RELEASE_V1.0.2/MSDK/lwip/lwip-2.1.2/src/core/ipv4\etharp.c ****  * This function should be called every ARP_TMR_INTERVAL milliseconds (1 second),
 197:C:/Users/stapi/OneDrive/Desktop/GD32VW553/V1_MQTT_OK/GD32VW55X_Wifi_BLE_SDK/GD32VW55x_RELEASE_V1.0.2/MSDK/lwip/lwip-2.1.2/src/core/ipv4\etharp.c ****  * in order to expire entries in the ARP table.
 198:C:/Users/stapi/OneDrive/Desktop/GD32VW553/V1_MQTT_OK/GD32VW55X_Wifi_BLE_SDK/GD32VW55x_RELEASE_V1.0.2/MSDK/lwip/lwip-2.1.2/src/core/ipv4\etharp.c ****  */
 199:C:/Users/stapi/OneDrive/Desktop/GD32VW553/V1_MQTT_OK/GD32VW55X_Wifi_BLE_SDK/GD32VW55x_RELEASE_V1.0.2/MSDK/lwip/lwip-2.1.2/src/core/ipv4\etharp.c **** void
 200:C:/Users/stapi/OneDrive/Desktop/GD32VW553/V1_MQTT_OK/GD32VW55X_Wifi_BLE_SDK/GD32VW55x_RELEASE_V1.0.2/MSDK/lwip/lwip-2.1.2/src/core/ipv4\etharp.c **** etharp_tmr(void)
 201:C:/Users/stapi/OneDrive/Desktop/GD32VW553/V1_MQTT_OK/GD32VW55X_Wifi_BLE_SDK/GD32VW55x_RELEASE_V1.0.2/MSDK/lwip/lwip-2.1.2/src/core/ipv4\etharp.c **** {
 202:C:/Users/stapi/OneDrive/Desktop/GD32VW553/V1_MQTT_OK/GD32VW55X_Wifi_BLE_SDK/GD32VW55x_RELEASE_V1.0.2/MSDK/lwip/lwip-2.1.2/src/core/ipv4\etharp.c ****   int i;
 203:C:/Users/stapi/OneDrive/Desktop/GD32VW553/V1_MQTT_OK/GD32VW55X_Wifi_BLE_SDK/GD32VW55x_RELEASE_V1.0.2/MSDK/lwip/lwip-2.1.2/src/core/ipv4\etharp.c **** 
 204:C:/Users/stapi/OneDrive/Desktop/GD32VW553/V1_MQTT_OK/GD32VW55X_Wifi_BLE_SDK/GD32VW55x_RELEASE_V1.0.2/MSDK/lwip/lwip-2.1.2/src/core/ipv4\etharp.c ****   LWIP_DEBUGF(ETHARP_DEBUG, ("etharp_timer\n"));
 205:C:/Users/stapi/OneDrive/Desktop/GD32VW553/V1_MQTT_OK/GD32VW55X_Wifi_BLE_SDK/GD32VW55x_RELEASE_V1.0.2/MSDK/lwip/lwip-2.1.2/src/core/ipv4\etharp.c ****   /* remove expired entries from the ARP table */
 206:C:/Users/stapi/OneDrive/Desktop/GD32VW553/V1_MQTT_OK/GD32VW55X_Wifi_BLE_SDK/GD32VW55x_RELEASE_V1.0.2/MSDK/lwip/lwip-2.1.2/src/core/ipv4\etharp.c ****   for (i = 0; i < ARP_TABLE_SIZE; ++i) {
 207:C:/Users/stapi/OneDrive/Desktop/GD32VW553/V1_MQTT_OK/GD32VW55X_Wifi_BLE_SDK/GD32VW55x_RELEASE_V1.0.2/MSDK/lwip/lwip-2.1.2/src/core/ipv4\etharp.c ****     u8_t state = arp_table[i].state;
 208:C:/Users/stapi/OneDrive/Desktop/GD32VW553/V1_MQTT_OK/GD32VW55X_Wifi_BLE_SDK/GD32VW55x_RELEASE_V1.0.2/MSDK/lwip/lwip-2.1.2/src/core/ipv4\etharp.c ****     if (state != ETHARP_STATE_EMPTY
 209:C:/Users/stapi/OneDrive/Desktop/GD32VW553/V1_MQTT_OK/GD32VW55X_Wifi_BLE_SDK/GD32VW55x_RELEASE_V1.0.2/MSDK/lwip/lwip-2.1.2/src/core/ipv4\etharp.c **** #if ETHARP_SUPPORT_STATIC_ENTRIES
 210:C:/Users/stapi/OneDrive/Desktop/GD32VW553/V1_MQTT_OK/GD32VW55X_Wifi_BLE_SDK/GD32VW55x_RELEASE_V1.0.2/MSDK/lwip/lwip-2.1.2/src/core/ipv4\etharp.c ****         && (state != ETHARP_STATE_STATIC)
 211:C:/Users/stapi/OneDrive/Desktop/GD32VW553/V1_MQTT_OK/GD32VW55X_Wifi_BLE_SDK/GD32VW55x_RELEASE_V1.0.2/MSDK/lwip/lwip-2.1.2/src/core/ipv4\etharp.c **** #endif /* ETHARP_SUPPORT_STATIC_ENTRIES */
 212:C:/Users/stapi/OneDrive/Desktop/GD32VW553/V1_MQTT_OK/GD32VW55X_Wifi_BLE_SDK/GD32VW55x_RELEASE_V1.0.2/MSDK/lwip/lwip-2.1.2/src/core/ipv4\etharp.c ****        ) {
 213:C:/Users/stapi/OneDrive/Desktop/GD32VW553/V1_MQTT_OK/GD32VW55X_Wifi_BLE_SDK/GD32VW55x_RELEASE_V1.0.2/MSDK/lwip/lwip-2.1.2/src/core/ipv4\etharp.c ****       arp_table[i].ctime++;
 214:C:/Users/stapi/OneDrive/Desktop/GD32VW553/V1_MQTT_OK/GD32VW55X_Wifi_BLE_SDK/GD32VW55x_RELEASE_V1.0.2/MSDK/lwip/lwip-2.1.2/src/core/ipv4\etharp.c ****       if ((arp_table[i].ctime >= ARP_MAXAGE) ||
 215:C:/Users/stapi/OneDrive/Desktop/GD32VW553/V1_MQTT_OK/GD32VW55X_Wifi_BLE_SDK/GD32VW55x_RELEASE_V1.0.2/MSDK/lwip/lwip-2.1.2/src/core/ipv4\etharp.c ****           ((arp_table[i].state == ETHARP_STATE_PENDING)  &&
 216:C:/Users/stapi/OneDrive/Desktop/GD32VW553/V1_MQTT_OK/GD32VW55X_Wifi_BLE_SDK/GD32VW55x_RELEASE_V1.0.2/MSDK/lwip/lwip-2.1.2/src/core/ipv4\etharp.c ****            (arp_table[i].ctime >= ARP_MAXPENDING))) {
 217:C:/Users/stapi/OneDrive/Desktop/GD32VW553/V1_MQTT_OK/GD32VW55X_Wifi_BLE_SDK/GD32VW55x_RELEASE_V1.0.2/MSDK/lwip/lwip-2.1.2/src/core/ipv4\etharp.c ****         /* pending or stable entry has become old! */
 218:C:/Users/stapi/OneDrive/Desktop/GD32VW553/V1_MQTT_OK/GD32VW55X_Wifi_BLE_SDK/GD32VW55x_RELEASE_V1.0.2/MSDK/lwip/lwip-2.1.2/src/core/ipv4\etharp.c ****         LWIP_DEBUGF(ETHARP_DEBUG, ("etharp_timer: expired %s entry %d.\n",
 219:C:/Users/stapi/OneDrive/Desktop/GD32VW553/V1_MQTT_OK/GD32VW55X_Wifi_BLE_SDK/GD32VW55x_RELEASE_V1.0.2/MSDK/lwip/lwip-2.1.2/src/core/ipv4\etharp.c ****                                    arp_table[i].state >= ETHARP_STATE_STABLE ? "stable" : "pending"
 220:C:/Users/stapi/OneDrive/Desktop/GD32VW553/V1_MQTT_OK/GD32VW55X_Wifi_BLE_SDK/GD32VW55x_RELEASE_V1.0.2/MSDK/lwip/lwip-2.1.2/src/core/ipv4\etharp.c ****         /* clean up entries that have just been expired */
 221:C:/Users/stapi/OneDrive/Desktop/GD32VW553/V1_MQTT_OK/GD32VW55X_Wifi_BLE_SDK/GD32VW55x_RELEASE_V1.0.2/MSDK/lwip/lwip-2.1.2/src/core/ipv4\etharp.c ****         etharp_free_entry(i);
 222:C:/Users/stapi/OneDrive/Desktop/GD32VW553/V1_MQTT_OK/GD32VW55X_Wifi_BLE_SDK/GD32VW55x_RELEASE_V1.0.2/MSDK/lwip/lwip-2.1.2/src/core/ipv4\etharp.c ****       } else if (arp_table[i].state == ETHARP_STATE_STABLE_REREQUESTING_1) {
 223:C:/Users/stapi/OneDrive/Desktop/GD32VW553/V1_MQTT_OK/GD32VW55X_Wifi_BLE_SDK/GD32VW55x_RELEASE_V1.0.2/MSDK/lwip/lwip-2.1.2/src/core/ipv4\etharp.c ****         /* Don't send more than one request every 2 seconds. */
 224:C:/Users/stapi/OneDrive/Desktop/GD32VW553/V1_MQTT_OK/GD32VW55X_Wifi_BLE_SDK/GD32VW55x_RELEASE_V1.0.2/MSDK/lwip/lwip-2.1.2/src/core/ipv4\etharp.c ****         arp_table[i].state = ETHARP_STATE_STABLE_REREQUESTING_2;
 225:C:/Users/stapi/OneDrive/Desktop/GD32VW553/V1_MQTT_OK/GD32VW55X_Wifi_BLE_SDK/GD32VW55x_RELEASE_V1.0.2/MSDK/lwip/lwip-2.1.2/src/core/ipv4\etharp.c ****       } else if (arp_table[i].state == ETHARP_STATE_STABLE_REREQUESTING_2) {
 226:C:/Users/stapi/OneDrive/Desktop/GD32VW553/V1_MQTT_OK/GD32VW55X_Wifi_BLE_SDK/GD32VW55x_RELEASE_V1.0.2/MSDK/lwip/lwip-2.1.2/src/core/ipv4\etharp.c ****         /* Reset state to stable, so that the next transmitted packet will
 227:C:/Users/stapi/OneDrive/Desktop/GD32VW553/V1_MQTT_OK/GD32VW55X_Wifi_BLE_SDK/GD32VW55x_RELEASE_V1.0.2/MSDK/lwip/lwip-2.1.2/src/core/ipv4\etharp.c ****            re-send an ARP request. */
 228:C:/Users/stapi/OneDrive/Desktop/GD32VW553/V1_MQTT_OK/GD32VW55X_Wifi_BLE_SDK/GD32VW55x_RELEASE_V1.0.2/MSDK/lwip/lwip-2.1.2/src/core/ipv4\etharp.c ****         arp_table[i].state = ETHARP_STATE_STABLE;
 229:C:/Users/stapi/OneDrive/Desktop/GD32VW553/V1_MQTT_OK/GD32VW55X_Wifi_BLE_SDK/GD32VW55x_RELEASE_V1.0.2/MSDK/lwip/lwip-2.1.2/src/core/ipv4\etharp.c ****       } else if (arp_table[i].state == ETHARP_STATE_PENDING) {
 230:C:/Users/stapi/OneDrive/Desktop/GD32VW553/V1_MQTT_OK/GD32VW55X_Wifi_BLE_SDK/GD32VW55x_RELEASE_V1.0.2/MSDK/lwip/lwip-2.1.2/src/core/ipv4\etharp.c ****         /* still pending, resend an ARP query */
 231:C:/Users/stapi/OneDrive/Desktop/GD32VW553/V1_MQTT_OK/GD32VW55X_Wifi_BLE_SDK/GD32VW55x_RELEASE_V1.0.2/MSDK/lwip/lwip-2.1.2/src/core/ipv4\etharp.c ****         etharp_request(arp_table[i].netif, &arp_table[i].ipaddr);
 232:C:/Users/stapi/OneDrive/Desktop/GD32VW553/V1_MQTT_OK/GD32VW55X_Wifi_BLE_SDK/GD32VW55x_RELEASE_V1.0.2/MSDK/lwip/lwip-2.1.2/src/core/ipv4\etharp.c ****       }
 233:C:/Users/stapi/OneDrive/Desktop/GD32VW553/V1_MQTT_OK/GD32VW55X_Wifi_BLE_SDK/GD32VW55x_RELEASE_V1.0.2/MSDK/lwip/lwip-2.1.2/src/core/ipv4\etharp.c ****     }
 234:C:/Users/stapi/OneDrive/Desktop/GD32VW553/V1_MQTT_OK/GD32VW55X_Wifi_BLE_SDK/GD32VW55x_RELEASE_V1.0.2/MSDK/lwip/lwip-2.1.2/src/core/ipv4\etharp.c ****   }
 235:C:/Users/stapi/OneDrive/Desktop/GD32VW553/V1_MQTT_OK/GD32VW55X_Wifi_BLE_SDK/GD32VW55x_RELEASE_V1.0.2/MSDK/lwip/lwip-2.1.2/src/core/ipv4\etharp.c **** }
 236:C:/Users/stapi/OneDrive/Desktop/GD32VW553/V1_MQTT_OK/GD32VW55X_Wifi_BLE_SDK/GD32VW55x_RELEASE_V1.0.2/MSDK/lwip/lwip-2.1.2/src/core/ipv4\etharp.c **** 
 237:C:/Users/stapi/OneDrive/Desktop/GD32VW553/V1_MQTT_OK/GD32VW55X_Wifi_BLE_SDK/GD32VW55x_RELEASE_V1.0.2/MSDK/lwip/lwip-2.1.2/src/core/ipv4\etharp.c **** /**
 238:C:/Users/stapi/OneDrive/Desktop/GD32VW553/V1_MQTT_OK/GD32VW55X_Wifi_BLE_SDK/GD32VW55x_RELEASE_V1.0.2/MSDK/lwip/lwip-2.1.2/src/core/ipv4\etharp.c ****  * Search the ARP table for a matching or new entry.
 239:C:/Users/stapi/OneDrive/Desktop/GD32VW553/V1_MQTT_OK/GD32VW55X_Wifi_BLE_SDK/GD32VW55x_RELEASE_V1.0.2/MSDK/lwip/lwip-2.1.2/src/core/ipv4\etharp.c ****  *
 240:C:/Users/stapi/OneDrive/Desktop/GD32VW553/V1_MQTT_OK/GD32VW55X_Wifi_BLE_SDK/GD32VW55x_RELEASE_V1.0.2/MSDK/lwip/lwip-2.1.2/src/core/ipv4\etharp.c ****  * If an IP address is given, return a pending or stable ARP entry that matches
 241:C:/Users/stapi/OneDrive/Desktop/GD32VW553/V1_MQTT_OK/GD32VW55X_Wifi_BLE_SDK/GD32VW55x_RELEASE_V1.0.2/MSDK/lwip/lwip-2.1.2/src/core/ipv4\etharp.c ****  * the address. If no match is found, create a new entry with this address set,
 242:C:/Users/stapi/OneDrive/Desktop/GD32VW553/V1_MQTT_OK/GD32VW55X_Wifi_BLE_SDK/GD32VW55x_RELEASE_V1.0.2/MSDK/lwip/lwip-2.1.2/src/core/ipv4\etharp.c ****  * but in state ETHARP_EMPTY. The caller must check and possibly change the
 243:C:/Users/stapi/OneDrive/Desktop/GD32VW553/V1_MQTT_OK/GD32VW55X_Wifi_BLE_SDK/GD32VW55x_RELEASE_V1.0.2/MSDK/lwip/lwip-2.1.2/src/core/ipv4\etharp.c ****  * state of the returned entry.
 244:C:/Users/stapi/OneDrive/Desktop/GD32VW553/V1_MQTT_OK/GD32VW55X_Wifi_BLE_SDK/GD32VW55x_RELEASE_V1.0.2/MSDK/lwip/lwip-2.1.2/src/core/ipv4\etharp.c ****  *
 245:C:/Users/stapi/OneDrive/Desktop/GD32VW553/V1_MQTT_OK/GD32VW55X_Wifi_BLE_SDK/GD32VW55x_RELEASE_V1.0.2/MSDK/lwip/lwip-2.1.2/src/core/ipv4\etharp.c ****  * If ipaddr is NULL, return a initialized new entry in state ETHARP_EMPTY.
 246:C:/Users/stapi/OneDrive/Desktop/GD32VW553/V1_MQTT_OK/GD32VW55X_Wifi_BLE_SDK/GD32VW55x_RELEASE_V1.0.2/MSDK/lwip/lwip-2.1.2/src/core/ipv4\etharp.c ****  *
 247:C:/Users/stapi/OneDrive/Desktop/GD32VW553/V1_MQTT_OK/GD32VW55X_Wifi_BLE_SDK/GD32VW55x_RELEASE_V1.0.2/MSDK/lwip/lwip-2.1.2/src/core/ipv4\etharp.c ****  * In all cases, attempt to create new entries from an empty entry. If no
 248:C:/Users/stapi/OneDrive/Desktop/GD32VW553/V1_MQTT_OK/GD32VW55X_Wifi_BLE_SDK/GD32VW55x_RELEASE_V1.0.2/MSDK/lwip/lwip-2.1.2/src/core/ipv4\etharp.c ****  * empty entries are available and ETHARP_FLAG_TRY_HARD flag is set, recycle
 249:C:/Users/stapi/OneDrive/Desktop/GD32VW553/V1_MQTT_OK/GD32VW55X_Wifi_BLE_SDK/GD32VW55x_RELEASE_V1.0.2/MSDK/lwip/lwip-2.1.2/src/core/ipv4\etharp.c ****  * old entries. Heuristic choose the least important entry for recycling.
 250:C:/Users/stapi/OneDrive/Desktop/GD32VW553/V1_MQTT_OK/GD32VW55X_Wifi_BLE_SDK/GD32VW55x_RELEASE_V1.0.2/MSDK/lwip/lwip-2.1.2/src/core/ipv4\etharp.c ****  *
 251:C:/Users/stapi/OneDrive/Desktop/GD32VW553/V1_MQTT_OK/GD32VW55X_Wifi_BLE_SDK/GD32VW55x_RELEASE_V1.0.2/MSDK/lwip/lwip-2.1.2/src/core/ipv4\etharp.c ****  * @param ipaddr IP address to find in ARP cache, or to add if not found.
 252:C:/Users/stapi/OneDrive/Desktop/GD32VW553/V1_MQTT_OK/GD32VW55X_Wifi_BLE_SDK/GD32VW55x_RELEASE_V1.0.2/MSDK/lwip/lwip-2.1.2/src/core/ipv4\etharp.c ****  * @param flags See @ref etharp_state
 253:C:/Users/stapi/OneDrive/Desktop/GD32VW553/V1_MQTT_OK/GD32VW55X_Wifi_BLE_SDK/GD32VW55x_RELEASE_V1.0.2/MSDK/lwip/lwip-2.1.2/src/core/ipv4\etharp.c ****  * @param netif netif related to this address (used for NETIF_HWADDRHINT)
 254:C:/Users/stapi/OneDrive/Desktop/GD32VW553/V1_MQTT_OK/GD32VW55X_Wifi_BLE_SDK/GD32VW55x_RELEASE_V1.0.2/MSDK/lwip/lwip-2.1.2/src/core/ipv4\etharp.c ****  *
 255:C:/Users/stapi/OneDrive/Desktop/GD32VW553/V1_MQTT_OK/GD32VW55X_Wifi_BLE_SDK/GD32VW55x_RELEASE_V1.0.2/MSDK/lwip/lwip-2.1.2/src/core/ipv4\etharp.c ****  * @return The ARP entry index that matched or is created, ERR_MEM if no
 256:C:/Users/stapi/OneDrive/Desktop/GD32VW553/V1_MQTT_OK/GD32VW55X_Wifi_BLE_SDK/GD32VW55x_RELEASE_V1.0.2/MSDK/lwip/lwip-2.1.2/src/core/ipv4\etharp.c ****  * entry is found or could be recycled.
 257:C:/Users/stapi/OneDrive/Desktop/GD32VW553/V1_MQTT_OK/GD32VW55X_Wifi_BLE_SDK/GD32VW55x_RELEASE_V1.0.2/MSDK/lwip/lwip-2.1.2/src/core/ipv4\etharp.c ****  */
 258:C:/Users/stapi/OneDrive/Desktop/GD32VW553/V1_MQTT_OK/GD32VW55X_Wifi_BLE_SDK/GD32VW55x_RELEASE_V1.0.2/MSDK/lwip/lwip-2.1.2/src/core/ipv4\etharp.c **** static s16_t
 259:C:/Users/stapi/OneDrive/Desktop/GD32VW553/V1_MQTT_OK/GD32VW55X_Wifi_BLE_SDK/GD32VW55x_RELEASE_V1.0.2/MSDK/lwip/lwip-2.1.2/src/core/ipv4\etharp.c **** etharp_find_entry(const ip4_addr_t *ipaddr, u8_t flags, struct netif *netif)
 260:C:/Users/stapi/OneDrive/Desktop/GD32VW553/V1_MQTT_OK/GD32VW55X_Wifi_BLE_SDK/GD32VW55x_RELEASE_V1.0.2/MSDK/lwip/lwip-2.1.2/src/core/ipv4\etharp.c **** {
  81              		.loc 1 260 1 is_stmt 1
  82              		.cfi_startproc
  83              	.LVL3:
  84 0000 17030000 		call	t0,__riscv_save_4
  84      E7020300 
  85              		.cfi_offset 19, -20
  86              		.cfi_offset 18, -16
  87              		.cfi_offset 9, -12
  88              		.cfi_offset 8, -8
  89              		.cfi_offset 1, -4
  90              		.cfi_def_cfa_offset 32
 261:C:/Users/stapi/OneDrive/Desktop/GD32VW553/V1_MQTT_OK/GD32VW55X_Wifi_BLE_SDK/GD32VW55x_RELEASE_V1.0.2/MSDK/lwip/lwip-2.1.2/src/core/ipv4\etharp.c ****   s16_t old_pending = ARP_TABLE_SIZE, old_stable = ARP_TABLE_SIZE;
  91              		.loc 1 261 3
  92              	.LVL4:
 262:C:/Users/stapi/OneDrive/Desktop/GD32VW553/V1_MQTT_OK/GD32VW55X_Wifi_BLE_SDK/GD32VW55x_RELEASE_V1.0.2/MSDK/lwip/lwip-2.1.2/src/core/ipv4\etharp.c ****   s16_t empty = ARP_TABLE_SIZE;
  93              		.loc 1 262 3
 263:C:/Users/stapi/OneDrive/Desktop/GD32VW553/V1_MQTT_OK/GD32VW55X_Wifi_BLE_SDK/GD32VW55x_RELEASE_V1.0.2/MSDK/lwip/lwip-2.1.2/src/core/ipv4\etharp.c ****   s16_t i = 0;
  94              		.loc 1 263 3
 264:C:/Users/stapi/OneDrive/Desktop/GD32VW553/V1_MQTT_OK/GD32VW55X_Wifi_BLE_SDK/GD32VW55x_RELEASE_V1.0.2/MSDK/lwip/lwip-2.1.2/src/core/ipv4\etharp.c ****   /* oldest entry with packets on queue */
 265:C:/Users/stapi/OneDrive/Desktop/GD32VW553/V1_MQTT_OK/GD32VW55X_Wifi_BLE_SDK/GD32VW55x_RELEASE_V1.0.2/MSDK/lwip/lwip-2.1.2/src/core/ipv4\etharp.c ****   s16_t old_queue = ARP_TABLE_SIZE;
  95              		.loc 1 265 3
 266:C:/Users/stapi/OneDrive/Desktop/GD32VW553/V1_MQTT_OK/GD32VW55X_Wifi_BLE_SDK/GD32VW55x_RELEASE_V1.0.2/MSDK/lwip/lwip-2.1.2/src/core/ipv4\etharp.c ****   /* its age */
 267:C:/Users/stapi/OneDrive/Desktop/GD32VW553/V1_MQTT_OK/GD32VW55X_Wifi_BLE_SDK/GD32VW55x_RELEASE_V1.0.2/MSDK/lwip/lwip-2.1.2/src/core/ipv4\etharp.c ****   u16_t age_queue = 0, age_pending = 0, age_stable = 0;
  96              		.loc 1 267 3
 268:C:/Users/stapi/OneDrive/Desktop/GD32VW553/V1_MQTT_OK/GD32VW55X_Wifi_BLE_SDK/GD32VW55x_RELEASE_V1.0.2/MSDK/lwip/lwip-2.1.2/src/core/ipv4\etharp.c **** 
 269:C:/Users/stapi/OneDrive/Desktop/GD32VW553/V1_MQTT_OK/GD32VW55X_Wifi_BLE_SDK/GD32VW55x_RELEASE_V1.0.2/MSDK/lwip/lwip-2.1.2/src/core/ipv4\etharp.c ****   LWIP_UNUSED_ARG(netif);
  97              		.loc 1 269 3
 270:C:/Users/stapi/OneDrive/Desktop/GD32VW553/V1_MQTT_OK/GD32VW55X_Wifi_BLE_SDK/GD32VW55x_RELEASE_V1.0.2/MSDK/lwip/lwip-2.1.2/src/core/ipv4\etharp.c **** 
 271:C:/Users/stapi/OneDrive/Desktop/GD32VW553/V1_MQTT_OK/GD32VW55X_Wifi_BLE_SDK/GD32VW55x_RELEASE_V1.0.2/MSDK/lwip/lwip-2.1.2/src/core/ipv4\etharp.c ****   /**
 272:C:/Users/stapi/OneDrive/Desktop/GD32VW553/V1_MQTT_OK/GD32VW55X_Wifi_BLE_SDK/GD32VW55x_RELEASE_V1.0.2/MSDK/lwip/lwip-2.1.2/src/core/ipv4\etharp.c ****    * a) do a search through the cache, remember candidates
 273:C:/Users/stapi/OneDrive/Desktop/GD32VW553/V1_MQTT_OK/GD32VW55X_Wifi_BLE_SDK/GD32VW55x_RELEASE_V1.0.2/MSDK/lwip/lwip-2.1.2/src/core/ipv4\etharp.c ****    * b) select candidate entry
 274:C:/Users/stapi/OneDrive/Desktop/GD32VW553/V1_MQTT_OK/GD32VW55X_Wifi_BLE_SDK/GD32VW55x_RELEASE_V1.0.2/MSDK/lwip/lwip-2.1.2/src/core/ipv4\etharp.c ****    * c) create new entry
 275:C:/Users/stapi/OneDrive/Desktop/GD32VW553/V1_MQTT_OK/GD32VW55X_Wifi_BLE_SDK/GD32VW55x_RELEASE_V1.0.2/MSDK/lwip/lwip-2.1.2/src/core/ipv4\etharp.c ****    */
 276:C:/Users/stapi/OneDrive/Desktop/GD32VW553/V1_MQTT_OK/GD32VW55X_Wifi_BLE_SDK/GD32VW55x_RELEASE_V1.0.2/MSDK/lwip/lwip-2.1.2/src/core/ipv4\etharp.c **** 
 277:C:/Users/stapi/OneDrive/Desktop/GD32VW553/V1_MQTT_OK/GD32VW55X_Wifi_BLE_SDK/GD32VW55x_RELEASE_V1.0.2/MSDK/lwip/lwip-2.1.2/src/core/ipv4\etharp.c ****   /* a) in a single search sweep, do all of this
 278:C:/Users/stapi/OneDrive/Desktop/GD32VW553/V1_MQTT_OK/GD32VW55X_Wifi_BLE_SDK/GD32VW55x_RELEASE_V1.0.2/MSDK/lwip/lwip-2.1.2/src/core/ipv4\etharp.c ****    * 1) remember the first empty entry (if any)
 279:C:/Users/stapi/OneDrive/Desktop/GD32VW553/V1_MQTT_OK/GD32VW55X_Wifi_BLE_SDK/GD32VW55x_RELEASE_V1.0.2/MSDK/lwip/lwip-2.1.2/src/core/ipv4\etharp.c ****    * 2) remember the oldest stable entry (if any)
 280:C:/Users/stapi/OneDrive/Desktop/GD32VW553/V1_MQTT_OK/GD32VW55X_Wifi_BLE_SDK/GD32VW55x_RELEASE_V1.0.2/MSDK/lwip/lwip-2.1.2/src/core/ipv4\etharp.c ****    * 3) remember the oldest pending entry without queued packets (if any)
 281:C:/Users/stapi/OneDrive/Desktop/GD32VW553/V1_MQTT_OK/GD32VW55X_Wifi_BLE_SDK/GD32VW55x_RELEASE_V1.0.2/MSDK/lwip/lwip-2.1.2/src/core/ipv4\etharp.c ****    * 4) remember the oldest pending entry with queued packets (if any)
 282:C:/Users/stapi/OneDrive/Desktop/GD32VW553/V1_MQTT_OK/GD32VW55X_Wifi_BLE_SDK/GD32VW55x_RELEASE_V1.0.2/MSDK/lwip/lwip-2.1.2/src/core/ipv4\etharp.c ****    * 5) search for a matching IP entry, either pending or stable
 283:C:/Users/stapi/OneDrive/Desktop/GD32VW553/V1_MQTT_OK/GD32VW55X_Wifi_BLE_SDK/GD32VW55x_RELEASE_V1.0.2/MSDK/lwip/lwip-2.1.2/src/core/ipv4\etharp.c ****    *    until 5 matches, or all entries are searched for.
 284:C:/Users/stapi/OneDrive/Desktop/GD32VW553/V1_MQTT_OK/GD32VW55X_Wifi_BLE_SDK/GD32VW55x_RELEASE_V1.0.2/MSDK/lwip/lwip-2.1.2/src/core/ipv4\etharp.c ****    */
 285:C:/Users/stapi/OneDrive/Desktop/GD32VW553/V1_MQTT_OK/GD32VW55X_Wifi_BLE_SDK/GD32VW55x_RELEASE_V1.0.2/MSDK/lwip/lwip-2.1.2/src/core/ipv4\etharp.c **** 
 286:C:/Users/stapi/OneDrive/Desktop/GD32VW553/V1_MQTT_OK/GD32VW55X_Wifi_BLE_SDK/GD32VW55x_RELEASE_V1.0.2/MSDK/lwip/lwip-2.1.2/src/core/ipv4\etharp.c ****   for (i = 0; i < ARP_TABLE_SIZE; ++i) {
  98              		.loc 1 286 3
  99              		.loc 1 286 15
 100 0008 B7040000 		lui	s1,%hi(.LANCHOR0)
 260:C:/Users/stapi/OneDrive/Desktop/GD32VW553/V1_MQTT_OK/GD32VW55X_Wifi_BLE_SDK/GD32VW55x_RELEASE_V1.0.2/MSDK/lwip/lwip-2.1.2/src/core/ipv4\etharp.c ****   s16_t old_pending = ARP_TABLE_SIZE, old_stable = ARP_TABLE_SIZE;
 101              		.loc 1 260 1 is_stmt 0
 102 000c 2A89     		mv	s2,a0
 103 000e 93860400 		addi	a3,s1,%lo(.LANCHOR0)
 104 0012 B289     		mv	s3,a2
 267:C:/Users/stapi/OneDrive/Desktop/GD32VW553/V1_MQTT_OK/GD32VW55X_Wifi_BLE_SDK/GD32VW55x_RELEASE_V1.0.2/MSDK/lwip/lwip-2.1.2/src/core/ipv4\etharp.c **** 
 105              		.loc 1 267 41
 106 0014 814F     		li	t6,0
 267:C:/Users/stapi/OneDrive/Desktop/GD32VW553/V1_MQTT_OK/GD32VW55X_Wifi_BLE_SDK/GD32VW55x_RELEASE_V1.0.2/MSDK/lwip/lwip-2.1.2/src/core/ipv4\etharp.c **** 
 107              		.loc 1 267 24
 108 0016 014F     		li	t5,0
 267:C:/Users/stapi/OneDrive/Desktop/GD32VW553/V1_MQTT_OK/GD32VW55X_Wifi_BLE_SDK/GD32VW55x_RELEASE_V1.0.2/MSDK/lwip/lwip-2.1.2/src/core/ipv4\etharp.c **** 
 109              		.loc 1 267 9
 110 0018 814E     		li	t4,0
 265:C:/Users/stapi/OneDrive/Desktop/GD32VW553/V1_MQTT_OK/GD32VW55X_Wifi_BLE_SDK/GD32VW55x_RELEASE_V1.0.2/MSDK/lwip/lwip-2.1.2/src/core/ipv4\etharp.c ****   /* its age */
 111              		.loc 1 265 9
 112 001a 294E     		li	t3,10
 113              		.loc 1 286 10
 114 001c 0145     		li	a0,0
 115              	.LVL5:
 262:C:/Users/stapi/OneDrive/Desktop/GD32VW553/V1_MQTT_OK/GD32VW55X_Wifi_BLE_SDK/GD32VW55x_RELEASE_V1.0.2/MSDK/lwip/lwip-2.1.2/src/core/ipv4\etharp.c ****   s16_t i = 0;
 116              		.loc 1 262 9
 117 001e 2947     		li	a4,10
 261:C:/Users/stapi/OneDrive/Desktop/GD32VW553/V1_MQTT_OK/GD32VW55X_Wifi_BLE_SDK/GD32VW55x_RELEASE_V1.0.2/MSDK/lwip/lwip-2.1.2/src/core/ipv4\etharp.c ****   s16_t empty = ARP_TABLE_SIZE;
 118              		.loc 1 261 39
 119 0020 2944     		li	s0,10
 261:C:/Users/stapi/OneDrive/Desktop/GD32VW553/V1_MQTT_OK/GD32VW55X_Wifi_BLE_SDK/GD32VW55x_RELEASE_V1.0.2/MSDK/lwip/lwip-2.1.2/src/core/ipv4\etharp.c ****   s16_t empty = ARP_TABLE_SIZE;
 120              		.loc 1 261 9
 121 0022 2948     		li	a6,10
 122 0024 93840400 		addi	s1,s1,%lo(.LANCHOR0)
 123              	.LBB3:
 287:C:/Users/stapi/OneDrive/Desktop/GD32VW553/V1_MQTT_OK/GD32VW55X_Wifi_BLE_SDK/GD32VW55x_RELEASE_V1.0.2/MSDK/lwip/lwip-2.1.2/src/core/ipv4\etharp.c ****     u8_t state = arp_table[i].state;
 288:C:/Users/stapi/OneDrive/Desktop/GD32VW553/V1_MQTT_OK/GD32VW55X_Wifi_BLE_SDK/GD32VW55x_RELEASE_V1.0.2/MSDK/lwip/lwip-2.1.2/src/core/ipv4\etharp.c ****     /* no empty entry found yet and now we do find one? */
 289:C:/Users/stapi/OneDrive/Desktop/GD32VW553/V1_MQTT_OK/GD32VW55X_Wifi_BLE_SDK/GD32VW55x_RELEASE_V1.0.2/MSDK/lwip/lwip-2.1.2/src/core/ipv4\etharp.c ****     if ((empty == ARP_TABLE_SIZE) && (state == ETHARP_STATE_EMPTY)) {
 124              		.loc 1 289 8
 125 0028 A948     		li	a7,10
 290:C:/Users/stapi/OneDrive/Desktop/GD32VW553/V1_MQTT_OK/GD32VW55X_Wifi_BLE_SDK/GD32VW55x_RELEASE_V1.0.2/MSDK/lwip/lwip-2.1.2/src/core/ipv4\etharp.c ****       LWIP_DEBUGF(ETHARP_DEBUG, ("etharp_find_entry: found empty entry %d\n", (int)i));
 291:C:/Users/stapi/OneDrive/Desktop/GD32VW553/V1_MQTT_OK/GD32VW55X_Wifi_BLE_SDK/GD32VW55x_RELEASE_V1.0.2/MSDK/lwip/lwip-2.1.2/src/core/ipv4\etharp.c ****       /* remember first empty entry */
 292:C:/Users/stapi/OneDrive/Desktop/GD32VW553/V1_MQTT_OK/GD32VW55X_Wifi_BLE_SDK/GD32VW55x_RELEASE_V1.0.2/MSDK/lwip/lwip-2.1.2/src/core/ipv4\etharp.c ****       empty = i;
 293:C:/Users/stapi/OneDrive/Desktop/GD32VW553/V1_MQTT_OK/GD32VW55X_Wifi_BLE_SDK/GD32VW55x_RELEASE_V1.0.2/MSDK/lwip/lwip-2.1.2/src/core/ipv4\etharp.c ****     } else if (state != ETHARP_STATE_EMPTY) {
 294:C:/Users/stapi/OneDrive/Desktop/GD32VW553/V1_MQTT_OK/GD32VW55X_Wifi_BLE_SDK/GD32VW55x_RELEASE_V1.0.2/MSDK/lwip/lwip-2.1.2/src/core/ipv4\etharp.c ****       LWIP_ASSERT("state == ETHARP_STATE_PENDING || state >= ETHARP_STATE_STABLE",
 295:C:/Users/stapi/OneDrive/Desktop/GD32VW553/V1_MQTT_OK/GD32VW55X_Wifi_BLE_SDK/GD32VW55x_RELEASE_V1.0.2/MSDK/lwip/lwip-2.1.2/src/core/ipv4\etharp.c ****                   state == ETHARP_STATE_PENDING || state >= ETHARP_STATE_STABLE);
 296:C:/Users/stapi/OneDrive/Desktop/GD32VW553/V1_MQTT_OK/GD32VW55X_Wifi_BLE_SDK/GD32VW55x_RELEASE_V1.0.2/MSDK/lwip/lwip-2.1.2/src/core/ipv4\etharp.c ****       /* if given, does IP address match IP address in ARP entry? */
 297:C:/Users/stapi/OneDrive/Desktop/GD32VW553/V1_MQTT_OK/GD32VW55X_Wifi_BLE_SDK/GD32VW55x_RELEASE_V1.0.2/MSDK/lwip/lwip-2.1.2/src/core/ipv4\etharp.c ****       if (ipaddr && ip4_addr_cmp(ipaddr, &arp_table[i].ipaddr)
 298:C:/Users/stapi/OneDrive/Desktop/GD32VW553/V1_MQTT_OK/GD32VW55X_Wifi_BLE_SDK/GD32VW55x_RELEASE_V1.0.2/MSDK/lwip/lwip-2.1.2/src/core/ipv4\etharp.c **** #if ETHARP_TABLE_MATCH_NETIF
 299:C:/Users/stapi/OneDrive/Desktop/GD32VW553/V1_MQTT_OK/GD32VW55X_Wifi_BLE_SDK/GD32VW55x_RELEASE_V1.0.2/MSDK/lwip/lwip-2.1.2/src/core/ipv4\etharp.c ****           && ((netif == NULL) || (netif == arp_table[i].netif))
 300:C:/Users/stapi/OneDrive/Desktop/GD32VW553/V1_MQTT_OK/GD32VW55X_Wifi_BLE_SDK/GD32VW55x_RELEASE_V1.0.2/MSDK/lwip/lwip-2.1.2/src/core/ipv4\etharp.c **** #endif /* ETHARP_TABLE_MATCH_NETIF */
 301:C:/Users/stapi/OneDrive/Desktop/GD32VW553/V1_MQTT_OK/GD32VW55X_Wifi_BLE_SDK/GD32VW55x_RELEASE_V1.0.2/MSDK/lwip/lwip-2.1.2/src/core/ipv4\etharp.c ****          ) {
 302:C:/Users/stapi/OneDrive/Desktop/GD32VW553/V1_MQTT_OK/GD32VW55X_Wifi_BLE_SDK/GD32VW55x_RELEASE_V1.0.2/MSDK/lwip/lwip-2.1.2/src/core/ipv4\etharp.c ****         LWIP_DEBUGF(ETHARP_DEBUG | LWIP_DBG_TRACE, ("etharp_find_entry: found matching entry %d\n",
 303:C:/Users/stapi/OneDrive/Desktop/GD32VW553/V1_MQTT_OK/GD32VW55X_Wifi_BLE_SDK/GD32VW55x_RELEASE_V1.0.2/MSDK/lwip/lwip-2.1.2/src/core/ipv4\etharp.c ****         /* found exact IP address match, simply bail out */
 304:C:/Users/stapi/OneDrive/Desktop/GD32VW553/V1_MQTT_OK/GD32VW55X_Wifi_BLE_SDK/GD32VW55x_RELEASE_V1.0.2/MSDK/lwip/lwip-2.1.2/src/core/ipv4\etharp.c ****         return i;
 305:C:/Users/stapi/OneDrive/Desktop/GD32VW553/V1_MQTT_OK/GD32VW55X_Wifi_BLE_SDK/GD32VW55x_RELEASE_V1.0.2/MSDK/lwip/lwip-2.1.2/src/core/ipv4\etharp.c ****       }
 306:C:/Users/stapi/OneDrive/Desktop/GD32VW553/V1_MQTT_OK/GD32VW55X_Wifi_BLE_SDK/GD32VW55x_RELEASE_V1.0.2/MSDK/lwip/lwip-2.1.2/src/core/ipv4\etharp.c ****       /* pending entry? */
 307:C:/Users/stapi/OneDrive/Desktop/GD32VW553/V1_MQTT_OK/GD32VW55X_Wifi_BLE_SDK/GD32VW55x_RELEASE_V1.0.2/MSDK/lwip/lwip-2.1.2/src/core/ipv4\etharp.c ****       if (state == ETHARP_STATE_PENDING) {
 126              		.loc 1 307 10
 127 002a 8542     		li	t0,1
 128              	.LVL6:
 129              	.L15:
 287:C:/Users/stapi/OneDrive/Desktop/GD32VW553/V1_MQTT_OK/GD32VW55X_Wifi_BLE_SDK/GD32VW55x_RELEASE_V1.0.2/MSDK/lwip/lwip-2.1.2/src/core/ipv4\etharp.c ****     u8_t state = arp_table[i].state;
 130              		.loc 1 287 5 is_stmt 1
 287:C:/Users/stapi/OneDrive/Desktop/GD32VW553/V1_MQTT_OK/GD32VW55X_Wifi_BLE_SDK/GD32VW55x_RELEASE_V1.0.2/MSDK/lwip/lwip-2.1.2/src/core/ipv4\etharp.c ****     u8_t state = arp_table[i].state;
 131              		.loc 1 287 10 is_stmt 0
 132 002c 03C34601 		lbu	t1,20(a3)
 133              	.LVL7:
 289:C:/Users/stapi/OneDrive/Desktop/GD32VW553/V1_MQTT_OK/GD32VW55X_Wifi_BLE_SDK/GD32VW55x_RELEASE_V1.0.2/MSDK/lwip/lwip-2.1.2/src/core/ipv4\etharp.c ****       LWIP_DEBUGF(ETHARP_DEBUG, ("etharp_find_entry: found empty entry %d\n", (int)i));
 134              		.loc 1 289 5 is_stmt 1
 289:C:/Users/stapi/OneDrive/Desktop/GD32VW553/V1_MQTT_OK/GD32VW55X_Wifi_BLE_SDK/GD32VW55x_RELEASE_V1.0.2/MSDK/lwip/lwip-2.1.2/src/core/ipv4\etharp.c ****       LWIP_DEBUGF(ETHARP_DEBUG, ("etharp_find_entry: found empty entry %d\n", (int)i));
 135              		.loc 1 289 8 is_stmt 0
 136 0030 631B1703 		bne	a4,a7,.L8
 137              	.LVL8:
 289:C:/Users/stapi/OneDrive/Desktop/GD32VW553/V1_MQTT_OK/GD32VW55X_Wifi_BLE_SDK/GD32VW55x_RELEASE_V1.0.2/MSDK/lwip/lwip-2.1.2/src/core/ipv4\etharp.c ****       LWIP_DEBUGF(ETHARP_DEBUG, ("etharp_find_entry: found empty entry %d\n", (int)i));
 138              		.loc 1 289 35 discriminator 1
 139 0034 630E0308 		beq	t1,zero,.L24
 140              	.LVL9:
 141              	.L10:
 294:C:/Users/stapi/OneDrive/Desktop/GD32VW553/V1_MQTT_OK/GD32VW55X_Wifi_BLE_SDK/GD32VW55x_RELEASE_V1.0.2/MSDK/lwip/lwip-2.1.2/src/core/ipv4\etharp.c ****                   state == ETHARP_STATE_PENDING || state >= ETHARP_STATE_STABLE);
 142              		.loc 1 294 7 is_stmt 1 discriminator 2
 294:C:/Users/stapi/OneDrive/Desktop/GD32VW553/V1_MQTT_OK/GD32VW55X_Wifi_BLE_SDK/GD32VW55x_RELEASE_V1.0.2/MSDK/lwip/lwip-2.1.2/src/core/ipv4\etharp.c ****                   state == ETHARP_STATE_PENDING || state >= ETHARP_STATE_STABLE);
 143              		.loc 1 294 7 discriminator 2
 294:C:/Users/stapi/OneDrive/Desktop/GD32VW553/V1_MQTT_OK/GD32VW55X_Wifi_BLE_SDK/GD32VW55x_RELEASE_V1.0.2/MSDK/lwip/lwip-2.1.2/src/core/ipv4\etharp.c ****                   state == ETHARP_STATE_PENDING || state >= ETHARP_STATE_STABLE);
 144              		.loc 1 294 7 discriminator 2
 294:C:/Users/stapi/OneDrive/Desktop/GD32VW553/V1_MQTT_OK/GD32VW55X_Wifi_BLE_SDK/GD32VW55x_RELEASE_V1.0.2/MSDK/lwip/lwip-2.1.2/src/core/ipv4\etharp.c ****                   state == ETHARP_STATE_PENDING || state >= ETHARP_STATE_STABLE);
 145              		.loc 1 294 7 discriminator 2
 297:C:/Users/stapi/OneDrive/Desktop/GD32VW553/V1_MQTT_OK/GD32VW55X_Wifi_BLE_SDK/GD32VW55x_RELEASE_V1.0.2/MSDK/lwip/lwip-2.1.2/src/core/ipv4\etharp.c **** #if ETHARP_TABLE_MATCH_NETIF
 146              		.loc 1 297 7 discriminator 2
 297:C:/Users/stapi/OneDrive/Desktop/GD32VW553/V1_MQTT_OK/GD32VW55X_Wifi_BLE_SDK/GD32VW55x_RELEASE_V1.0.2/MSDK/lwip/lwip-2.1.2/src/core/ipv4\etharp.c **** #if ETHARP_TABLE_MATCH_NETIF
 147              		.loc 1 297 10 is_stmt 0 discriminator 2
 148 0038 630C0900 		beq	s2,zero,.L11
 297:C:/Users/stapi/OneDrive/Desktop/GD32VW553/V1_MQTT_OK/GD32VW55X_Wifi_BLE_SDK/GD32VW55x_RELEASE_V1.0.2/MSDK/lwip/lwip-2.1.2/src/core/ipv4\etharp.c **** #if ETHARP_TABLE_MATCH_NETIF
 149              		.loc 1 297 18 discriminator 1
 150 003c 03260900 		lw	a2,0(s2)
 151 0040 DC42     		lw	a5,4(a3)
 152 0042 6317F600 		bne	a2,a5,.L11
 299:C:/Users/stapi/OneDrive/Desktop/GD32VW553/V1_MQTT_OK/GD32VW55X_Wifi_BLE_SDK/GD32VW55x_RELEASE_V1.0.2/MSDK/lwip/lwip-2.1.2/src/core/ipv4\etharp.c **** #endif /* ETHARP_TABLE_MATCH_NETIF */
 153              		.loc 1 299 11
 154 0046 638B090A 		beq	s3,zero,.L28
 299:C:/Users/stapi/OneDrive/Desktop/GD32VW553/V1_MQTT_OK/GD32VW55X_Wifi_BLE_SDK/GD32VW55x_RELEASE_V1.0.2/MSDK/lwip/lwip-2.1.2/src/core/ipv4\etharp.c **** #endif /* ETHARP_TABLE_MATCH_NETIF */
 155              		.loc 1 299 31 discriminator 1
 156 004a 9C46     		lw	a5,8(a3)
 157 004c 6388370B 		beq	a5,s3,.L28
 158              	.L11:
 159              		.loc 1 307 7 is_stmt 1
 308:C:/Users/stapi/OneDrive/Desktop/GD32VW553/V1_MQTT_OK/GD32VW55X_Wifi_BLE_SDK/GD32VW55x_RELEASE_V1.0.2/MSDK/lwip/lwip-2.1.2/src/core/ipv4\etharp.c ****         /* pending with queued packets? */
 309:C:/Users/stapi/OneDrive/Desktop/GD32VW553/V1_MQTT_OK/GD32VW55X_Wifi_BLE_SDK/GD32VW55x_RELEASE_V1.0.2/MSDK/lwip/lwip-2.1.2/src/core/ipv4\etharp.c ****         if (arp_table[i].q != NULL) {
 310:C:/Users/stapi/OneDrive/Desktop/GD32VW553/V1_MQTT_OK/GD32VW55X_Wifi_BLE_SDK/GD32VW55x_RELEASE_V1.0.2/MSDK/lwip/lwip-2.1.2/src/core/ipv4\etharp.c ****           if (arp_table[i].ctime >= age_queue) {
 160              		.loc 1 310 27 is_stmt 0
 161 0050 83D72601 		lhu	a5,18(a3)
 307:C:/Users/stapi/OneDrive/Desktop/GD32VW553/V1_MQTT_OK/GD32VW55X_Wifi_BLE_SDK/GD32VW55x_RELEASE_V1.0.2/MSDK/lwip/lwip-2.1.2/src/core/ipv4\etharp.c ****         /* pending with queued packets? */
 162              		.loc 1 307 10
 163 0054 63195306 		bne	t1,t0,.L13
 309:C:/Users/stapi/OneDrive/Desktop/GD32VW553/V1_MQTT_OK/GD32VW55X_Wifi_BLE_SDK/GD32VW55x_RELEASE_V1.0.2/MSDK/lwip/lwip-2.1.2/src/core/ipv4\etharp.c ****           if (arp_table[i].ctime >= age_queue) {
 164              		.loc 1 309 9 is_stmt 1
 309:C:/Users/stapi/OneDrive/Desktop/GD32VW553/V1_MQTT_OK/GD32VW55X_Wifi_BLE_SDK/GD32VW55x_RELEASE_V1.0.2/MSDK/lwip/lwip-2.1.2/src/core/ipv4\etharp.c ****           if (arp_table[i].ctime >= age_queue) {
 165              		.loc 1 309 12 is_stmt 0
 166 0058 9042     		lw	a2,0(a3)
 167 005a 2DC2     		beq	a2,zero,.L14
 168              		.loc 1 310 11 is_stmt 1
 169              		.loc 1 310 14 is_stmt 0
 170 005c 63E7D701 		bltu	a5,t4,.L9
 171 0060 BE8E     		mv	t4,a5
 172              	.LVL10:
 173 0062 2A8E     		mv	t3,a0
 174              	.LVL11:
 175 0064 19A0     		j	.L9
 176              	.LVL12:
 177              	.L8:
 293:C:/Users/stapi/OneDrive/Desktop/GD32VW553/V1_MQTT_OK/GD32VW55X_Wifi_BLE_SDK/GD32VW55x_RELEASE_V1.0.2/MSDK/lwip/lwip-2.1.2/src/core/ipv4\etharp.c ****       LWIP_ASSERT("state == ETHARP_STATE_PENDING || state >= ETHARP_STATE_STABLE",
 178              		.loc 1 293 12 is_stmt 1
 293:C:/Users/stapi/OneDrive/Desktop/GD32VW553/V1_MQTT_OK/GD32VW55X_Wifi_BLE_SDK/GD32VW55x_RELEASE_V1.0.2/MSDK/lwip/lwip-2.1.2/src/core/ipv4\etharp.c ****       LWIP_ASSERT("state == ETHARP_STATE_PENDING || state >= ETHARP_STATE_STABLE",
 179              		.loc 1 293 15 is_stmt 0
 180 0066 E31903FC 		bne	t1,zero,.L10
 181              	.LVL13:
 182              	.L9:
 183              	.LBE3:
 286:C:/Users/stapi/OneDrive/Desktop/GD32VW553/V1_MQTT_OK/GD32VW55X_Wifi_BLE_SDK/GD32VW55x_RELEASE_V1.0.2/MSDK/lwip/lwip-2.1.2/src/core/ipv4\etharp.c ****     u8_t state = arp_table[i].state;
 184              		.loc 1 286 35 is_stmt 1 discriminator 2
 185 006a 93071500 		addi	a5,a0,1
 286:C:/Users/stapi/OneDrive/Desktop/GD32VW553/V1_MQTT_OK/GD32VW55X_Wifi_BLE_SDK/GD32VW55x_RELEASE_V1.0.2/MSDK/lwip/lwip-2.1.2/src/core/ipv4\etharp.c ****     u8_t state = arp_table[i].state;
 186              		.loc 1 286 3 is_stmt 0 discriminator 2
 187 006e E106     		addi	a3,a3,24
 188 0070 33C60708 		zext.h	a2,a5
 189 0074 13955760 		sext.h	a0,a5
 190              	.LVL14:
 286:C:/Users/stapi/OneDrive/Desktop/GD32VW553/V1_MQTT_OK/GD32VW55X_Wifi_BLE_SDK/GD32VW55x_RELEASE_V1.0.2/MSDK/lwip/lwip-2.1.2/src/core/ipv4\etharp.c ****     u8_t state = arp_table[i].state;
 191              		.loc 1 286 15 is_stmt 1 discriminator 2
 286:C:/Users/stapi/OneDrive/Desktop/GD32VW553/V1_MQTT_OK/GD32VW55X_Wifi_BLE_SDK/GD32VW55x_RELEASE_V1.0.2/MSDK/lwip/lwip-2.1.2/src/core/ipv4\etharp.c ****     u8_t state = arp_table[i].state;
 192              		.loc 1 286 3 is_stmt 0 discriminator 2
 193 0078 E31A16FB 		bne	a2,a7,.L15
 311:C:/Users/stapi/OneDrive/Desktop/GD32VW553/V1_MQTT_OK/GD32VW55X_Wifi_BLE_SDK/GD32VW55x_RELEASE_V1.0.2/MSDK/lwip/lwip-2.1.2/src/core/ipv4\etharp.c ****             old_queue = i;
 312:C:/Users/stapi/OneDrive/Desktop/GD32VW553/V1_MQTT_OK/GD32VW55X_Wifi_BLE_SDK/GD32VW55x_RELEASE_V1.0.2/MSDK/lwip/lwip-2.1.2/src/core/ipv4\etharp.c ****             age_queue = arp_table[i].ctime;
 313:C:/Users/stapi/OneDrive/Desktop/GD32VW553/V1_MQTT_OK/GD32VW55X_Wifi_BLE_SDK/GD32VW55x_RELEASE_V1.0.2/MSDK/lwip/lwip-2.1.2/src/core/ipv4\etharp.c ****           }
 314:C:/Users/stapi/OneDrive/Desktop/GD32VW553/V1_MQTT_OK/GD32VW55X_Wifi_BLE_SDK/GD32VW55x_RELEASE_V1.0.2/MSDK/lwip/lwip-2.1.2/src/core/ipv4\etharp.c ****         } else
 315:C:/Users/stapi/OneDrive/Desktop/GD32VW553/V1_MQTT_OK/GD32VW55X_Wifi_BLE_SDK/GD32VW55x_RELEASE_V1.0.2/MSDK/lwip/lwip-2.1.2/src/core/ipv4\etharp.c ****           /* pending without queued packets? */
 316:C:/Users/stapi/OneDrive/Desktop/GD32VW553/V1_MQTT_OK/GD32VW55X_Wifi_BLE_SDK/GD32VW55x_RELEASE_V1.0.2/MSDK/lwip/lwip-2.1.2/src/core/ipv4\etharp.c ****         {
 317:C:/Users/stapi/OneDrive/Desktop/GD32VW553/V1_MQTT_OK/GD32VW55X_Wifi_BLE_SDK/GD32VW55x_RELEASE_V1.0.2/MSDK/lwip/lwip-2.1.2/src/core/ipv4\etharp.c ****           if (arp_table[i].ctime >= age_pending) {
 318:C:/Users/stapi/OneDrive/Desktop/GD32VW553/V1_MQTT_OK/GD32VW55X_Wifi_BLE_SDK/GD32VW55x_RELEASE_V1.0.2/MSDK/lwip/lwip-2.1.2/src/core/ipv4\etharp.c ****             old_pending = i;
 319:C:/Users/stapi/OneDrive/Desktop/GD32VW553/V1_MQTT_OK/GD32VW55X_Wifi_BLE_SDK/GD32VW55x_RELEASE_V1.0.2/MSDK/lwip/lwip-2.1.2/src/core/ipv4\etharp.c ****             age_pending = arp_table[i].ctime;
 320:C:/Users/stapi/OneDrive/Desktop/GD32VW553/V1_MQTT_OK/GD32VW55X_Wifi_BLE_SDK/GD32VW55x_RELEASE_V1.0.2/MSDK/lwip/lwip-2.1.2/src/core/ipv4\etharp.c ****           }
 321:C:/Users/stapi/OneDrive/Desktop/GD32VW553/V1_MQTT_OK/GD32VW55X_Wifi_BLE_SDK/GD32VW55x_RELEASE_V1.0.2/MSDK/lwip/lwip-2.1.2/src/core/ipv4\etharp.c ****         }
 322:C:/Users/stapi/OneDrive/Desktop/GD32VW553/V1_MQTT_OK/GD32VW55X_Wifi_BLE_SDK/GD32VW55x_RELEASE_V1.0.2/MSDK/lwip/lwip-2.1.2/src/core/ipv4\etharp.c ****         /* stable entry? */
 323:C:/Users/stapi/OneDrive/Desktop/GD32VW553/V1_MQTT_OK/GD32VW55X_Wifi_BLE_SDK/GD32VW55x_RELEASE_V1.0.2/MSDK/lwip/lwip-2.1.2/src/core/ipv4\etharp.c ****       } else if (state >= ETHARP_STATE_STABLE) {
 324:C:/Users/stapi/OneDrive/Desktop/GD32VW553/V1_MQTT_OK/GD32VW55X_Wifi_BLE_SDK/GD32VW55x_RELEASE_V1.0.2/MSDK/lwip/lwip-2.1.2/src/core/ipv4\etharp.c **** #if ETHARP_SUPPORT_STATIC_ENTRIES
 325:C:/Users/stapi/OneDrive/Desktop/GD32VW553/V1_MQTT_OK/GD32VW55X_Wifi_BLE_SDK/GD32VW55x_RELEASE_V1.0.2/MSDK/lwip/lwip-2.1.2/src/core/ipv4\etharp.c ****         /* don't record old_stable for static entries since they never expire */
 326:C:/Users/stapi/OneDrive/Desktop/GD32VW553/V1_MQTT_OK/GD32VW55X_Wifi_BLE_SDK/GD32VW55x_RELEASE_V1.0.2/MSDK/lwip/lwip-2.1.2/src/core/ipv4\etharp.c ****         if (state < ETHARP_STATE_STATIC)
 327:C:/Users/stapi/OneDrive/Desktop/GD32VW553/V1_MQTT_OK/GD32VW55X_Wifi_BLE_SDK/GD32VW55x_RELEASE_V1.0.2/MSDK/lwip/lwip-2.1.2/src/core/ipv4\etharp.c **** #endif /* ETHARP_SUPPORT_STATIC_ENTRIES */
 328:C:/Users/stapi/OneDrive/Desktop/GD32VW553/V1_MQTT_OK/GD32VW55X_Wifi_BLE_SDK/GD32VW55x_RELEASE_V1.0.2/MSDK/lwip/lwip-2.1.2/src/core/ipv4\etharp.c ****         {
 329:C:/Users/stapi/OneDrive/Desktop/GD32VW553/V1_MQTT_OK/GD32VW55X_Wifi_BLE_SDK/GD32VW55x_RELEASE_V1.0.2/MSDK/lwip/lwip-2.1.2/src/core/ipv4\etharp.c ****           /* remember entry with oldest stable entry in oldest, its age in maxtime */
 330:C:/Users/stapi/OneDrive/Desktop/GD32VW553/V1_MQTT_OK/GD32VW55X_Wifi_BLE_SDK/GD32VW55x_RELEASE_V1.0.2/MSDK/lwip/lwip-2.1.2/src/core/ipv4\etharp.c ****           if (arp_table[i].ctime >= age_stable) {
 331:C:/Users/stapi/OneDrive/Desktop/GD32VW553/V1_MQTT_OK/GD32VW55X_Wifi_BLE_SDK/GD32VW55x_RELEASE_V1.0.2/MSDK/lwip/lwip-2.1.2/src/core/ipv4\etharp.c ****             old_stable = i;
 332:C:/Users/stapi/OneDrive/Desktop/GD32VW553/V1_MQTT_OK/GD32VW55X_Wifi_BLE_SDK/GD32VW55x_RELEASE_V1.0.2/MSDK/lwip/lwip-2.1.2/src/core/ipv4\etharp.c ****             age_stable = arp_table[i].ctime;
 333:C:/Users/stapi/OneDrive/Desktop/GD32VW553/V1_MQTT_OK/GD32VW55X_Wifi_BLE_SDK/GD32VW55x_RELEASE_V1.0.2/MSDK/lwip/lwip-2.1.2/src/core/ipv4\etharp.c ****           }
 334:C:/Users/stapi/OneDrive/Desktop/GD32VW553/V1_MQTT_OK/GD32VW55X_Wifi_BLE_SDK/GD32VW55x_RELEASE_V1.0.2/MSDK/lwip/lwip-2.1.2/src/core/ipv4\etharp.c ****         }
 335:C:/Users/stapi/OneDrive/Desktop/GD32VW553/V1_MQTT_OK/GD32VW55X_Wifi_BLE_SDK/GD32VW55x_RELEASE_V1.0.2/MSDK/lwip/lwip-2.1.2/src/core/ipv4\etharp.c ****       }
 336:C:/Users/stapi/OneDrive/Desktop/GD32VW553/V1_MQTT_OK/GD32VW55X_Wifi_BLE_SDK/GD32VW55x_RELEASE_V1.0.2/MSDK/lwip/lwip-2.1.2/src/core/ipv4\etharp.c ****     }
 337:C:/Users/stapi/OneDrive/Desktop/GD32VW553/V1_MQTT_OK/GD32VW55X_Wifi_BLE_SDK/GD32VW55x_RELEASE_V1.0.2/MSDK/lwip/lwip-2.1.2/src/core/ipv4\etharp.c ****   }
 338:C:/Users/stapi/OneDrive/Desktop/GD32VW553/V1_MQTT_OK/GD32VW55X_Wifi_BLE_SDK/GD32VW55x_RELEASE_V1.0.2/MSDK/lwip/lwip-2.1.2/src/core/ipv4\etharp.c ****   /* { we have no match } => try to create a new entry */
 339:C:/Users/stapi/OneDrive/Desktop/GD32VW553/V1_MQTT_OK/GD32VW55X_Wifi_BLE_SDK/GD32VW55x_RELEASE_V1.0.2/MSDK/lwip/lwip-2.1.2/src/core/ipv4\etharp.c **** 
 340:C:/Users/stapi/OneDrive/Desktop/GD32VW553/V1_MQTT_OK/GD32VW55X_Wifi_BLE_SDK/GD32VW55x_RELEASE_V1.0.2/MSDK/lwip/lwip-2.1.2/src/core/ipv4\etharp.c ****   /* don't create new entry, only search? */
 341:C:/Users/stapi/OneDrive/Desktop/GD32VW553/V1_MQTT_OK/GD32VW55X_Wifi_BLE_SDK/GD32VW55x_RELEASE_V1.0.2/MSDK/lwip/lwip-2.1.2/src/core/ipv4\etharp.c ****   if (((flags & ETHARP_FLAG_FIND_ONLY) != 0) ||
 194              		.loc 1 341 3 is_stmt 1
 195              		.loc 1 341 6 is_stmt 0
 196 007c 8547     		li	a5,1
 197 007e 6390F506 		bne	a1,a5,.L25
 198              		.loc 1 341 46 discriminator 1
 199 0082 63181709 		bne	a4,a7,.L16
 342:C:/Users/stapi/OneDrive/Desktop/GD32VW553/V1_MQTT_OK/GD32VW55X_Wifi_BLE_SDK/GD32VW55x_RELEASE_V1.0.2/MSDK/lwip/lwip-2.1.2/src/core/ipv4\etharp.c ****       /* or no empty entry found and not allowed to recycle? */
 343:C:/Users/stapi/OneDrive/Desktop/GD32VW553/V1_MQTT_OK/GD32VW55X_Wifi_BLE_SDK/GD32VW55x_RELEASE_V1.0.2/MSDK/lwip/lwip-2.1.2/src/core/ipv4\etharp.c ****       ((empty == ARP_TABLE_SIZE) && ((flags & ETHARP_FLAG_TRY_HARD) == 0))) {
 344:C:/Users/stapi/OneDrive/Desktop/GD32VW553/V1_MQTT_OK/GD32VW55X_Wifi_BLE_SDK/GD32VW55x_RELEASE_V1.0.2/MSDK/lwip/lwip-2.1.2/src/core/ipv4\etharp.c ****     LWIP_DEBUGF(ETHARP_DEBUG | LWIP_DBG_TRACE, ("etharp_find_entry: no empty entry found and not al
 345:C:/Users/stapi/OneDrive/Desktop/GD32VW553/V1_MQTT_OK/GD32VW55X_Wifi_BLE_SDK/GD32VW55x_RELEASE_V1.0.2/MSDK/lwip/lwip-2.1.2/src/core/ipv4\etharp.c ****     return (s16_t)ERR_MEM;
 346:C:/Users/stapi/OneDrive/Desktop/GD32VW553/V1_MQTT_OK/GD32VW55X_Wifi_BLE_SDK/GD32VW55x_RELEASE_V1.0.2/MSDK/lwip/lwip-2.1.2/src/core/ipv4\etharp.c ****   }
 347:C:/Users/stapi/OneDrive/Desktop/GD32VW553/V1_MQTT_OK/GD32VW55X_Wifi_BLE_SDK/GD32VW55x_RELEASE_V1.0.2/MSDK/lwip/lwip-2.1.2/src/core/ipv4\etharp.c **** 
 348:C:/Users/stapi/OneDrive/Desktop/GD32VW553/V1_MQTT_OK/GD32VW55X_Wifi_BLE_SDK/GD32VW55x_RELEASE_V1.0.2/MSDK/lwip/lwip-2.1.2/src/core/ipv4\etharp.c ****   /* b) choose the least destructive entry to recycle:
 349:C:/Users/stapi/OneDrive/Desktop/GD32VW553/V1_MQTT_OK/GD32VW55X_Wifi_BLE_SDK/GD32VW55x_RELEASE_V1.0.2/MSDK/lwip/lwip-2.1.2/src/core/ipv4\etharp.c ****    * 1) empty entry
 350:C:/Users/stapi/OneDrive/Desktop/GD32VW553/V1_MQTT_OK/GD32VW55X_Wifi_BLE_SDK/GD32VW55x_RELEASE_V1.0.2/MSDK/lwip/lwip-2.1.2/src/core/ipv4\etharp.c ****    * 2) oldest stable entry
 351:C:/Users/stapi/OneDrive/Desktop/GD32VW553/V1_MQTT_OK/GD32VW55X_Wifi_BLE_SDK/GD32VW55x_RELEASE_V1.0.2/MSDK/lwip/lwip-2.1.2/src/core/ipv4\etharp.c ****    * 3) oldest pending entry without queued packets
 352:C:/Users/stapi/OneDrive/Desktop/GD32VW553/V1_MQTT_OK/GD32VW55X_Wifi_BLE_SDK/GD32VW55x_RELEASE_V1.0.2/MSDK/lwip/lwip-2.1.2/src/core/ipv4\etharp.c ****    * 4) oldest pending entry with queued packets
 353:C:/Users/stapi/OneDrive/Desktop/GD32VW553/V1_MQTT_OK/GD32VW55X_Wifi_BLE_SDK/GD32VW55x_RELEASE_V1.0.2/MSDK/lwip/lwip-2.1.2/src/core/ipv4\etharp.c ****    *
 354:C:/Users/stapi/OneDrive/Desktop/GD32VW553/V1_MQTT_OK/GD32VW55X_Wifi_BLE_SDK/GD32VW55x_RELEASE_V1.0.2/MSDK/lwip/lwip-2.1.2/src/core/ipv4\etharp.c ****    * { ETHARP_FLAG_TRY_HARD is set at this point }
 355:C:/Users/stapi/OneDrive/Desktop/GD32VW553/V1_MQTT_OK/GD32VW55X_Wifi_BLE_SDK/GD32VW55x_RELEASE_V1.0.2/MSDK/lwip/lwip-2.1.2/src/core/ipv4\etharp.c ****    */
 356:C:/Users/stapi/OneDrive/Desktop/GD32VW553/V1_MQTT_OK/GD32VW55X_Wifi_BLE_SDK/GD32VW55x_RELEASE_V1.0.2/MSDK/lwip/lwip-2.1.2/src/core/ipv4\etharp.c **** 
 357:C:/Users/stapi/OneDrive/Desktop/GD32VW553/V1_MQTT_OK/GD32VW55X_Wifi_BLE_SDK/GD32VW55x_RELEASE_V1.0.2/MSDK/lwip/lwip-2.1.2/src/core/ipv4\etharp.c ****   /* 1) empty entry available? */
 358:C:/Users/stapi/OneDrive/Desktop/GD32VW553/V1_MQTT_OK/GD32VW55X_Wifi_BLE_SDK/GD32VW55x_RELEASE_V1.0.2/MSDK/lwip/lwip-2.1.2/src/core/ipv4\etharp.c ****   if (empty < ARP_TABLE_SIZE) {
 200              		.loc 1 358 3 is_stmt 1
 359:C:/Users/stapi/OneDrive/Desktop/GD32VW553/V1_MQTT_OK/GD32VW55X_Wifi_BLE_SDK/GD32VW55x_RELEASE_V1.0.2/MSDK/lwip/lwip-2.1.2/src/core/ipv4\etharp.c ****     i = empty;
 360:C:/Users/stapi/OneDrive/Desktop/GD32VW553/V1_MQTT_OK/GD32VW55X_Wifi_BLE_SDK/GD32VW55x_RELEASE_V1.0.2/MSDK/lwip/lwip-2.1.2/src/core/ipv4\etharp.c ****     LWIP_DEBUGF(ETHARP_DEBUG | LWIP_DBG_TRACE, ("etharp_find_entry: selecting empty entry %d\n", (i
 361:C:/Users/stapi/OneDrive/Desktop/GD32VW553/V1_MQTT_OK/GD32VW55X_Wifi_BLE_SDK/GD32VW55x_RELEASE_V1.0.2/MSDK/lwip/lwip-2.1.2/src/core/ipv4\etharp.c ****   } else {
 362:C:/Users/stapi/OneDrive/Desktop/GD32VW553/V1_MQTT_OK/GD32VW55X_Wifi_BLE_SDK/GD32VW55x_RELEASE_V1.0.2/MSDK/lwip/lwip-2.1.2/src/core/ipv4\etharp.c ****     /* 2) found recyclable stable entry? */
 363:C:/Users/stapi/OneDrive/Desktop/GD32VW553/V1_MQTT_OK/GD32VW55X_Wifi_BLE_SDK/GD32VW55x_RELEASE_V1.0.2/MSDK/lwip/lwip-2.1.2/src/core/ipv4\etharp.c ****     if (old_stable < ARP_TABLE_SIZE) {
 201              		.loc 1 363 5
 202              		.loc 1 363 8 is_stmt 0
 203 0086 6307E404 		beq	s0,a4,.L17
 364:C:/Users/stapi/OneDrive/Desktop/GD32VW553/V1_MQTT_OK/GD32VW55X_Wifi_BLE_SDK/GD32VW55x_RELEASE_V1.0.2/MSDK/lwip/lwip-2.1.2/src/core/ipv4\etharp.c ****       /* recycle oldest stable*/
 365:C:/Users/stapi/OneDrive/Desktop/GD32VW553/V1_MQTT_OK/GD32VW55X_Wifi_BLE_SDK/GD32VW55x_RELEASE_V1.0.2/MSDK/lwip/lwip-2.1.2/src/core/ipv4\etharp.c ****       i = old_stable;
 204              		.loc 1 365 7 is_stmt 1
 205              	.LVL15:
 366:C:/Users/stapi/OneDrive/Desktop/GD32VW553/V1_MQTT_OK/GD32VW55X_Wifi_BLE_SDK/GD32VW55x_RELEASE_V1.0.2/MSDK/lwip/lwip-2.1.2/src/core/ipv4\etharp.c ****       LWIP_DEBUGF(ETHARP_DEBUG | LWIP_DBG_TRACE, ("etharp_find_entry: selecting oldest stable entry
 206              		.loc 1 366 116
 367:C:/Users/stapi/OneDrive/Desktop/GD32VW553/V1_MQTT_OK/GD32VW55X_Wifi_BLE_SDK/GD32VW55x_RELEASE_V1.0.2/MSDK/lwip/lwip-2.1.2/src/core/ipv4\etharp.c ****       /* no queued packets should exist on stable entries */
 368:C:/Users/stapi/OneDrive/Desktop/GD32VW553/V1_MQTT_OK/GD32VW55X_Wifi_BLE_SDK/GD32VW55x_RELEASE_V1.0.2/MSDK/lwip/lwip-2.1.2/src/core/ipv4\etharp.c ****       LWIP_ASSERT("arp_table[i].q == NULL", arp_table[i].q == NULL);
 207              		.loc 1 368 7
 208              		.loc 1 368 7
 209 008a 6147     		li	a4,24
 210              	.LVL16:
 211 008c A687     		mv	a5,s1
 212 008e FF17E4C4 		maddr32	a5, s0, a4
 213 0092 9C43     		lw	a5,0(a5)
 214 0094 ADCB     		beq	a5,zero,.L18
 215              		.loc 1 368 7 discriminator 1
 216              		.loc 1 368 7 discriminator 1
 217 0096 B7060000 		lui	a3,%hi(.LC0)
 218 009a B7050000 		lui	a1,%hi(.LC1)
 219              	.LVL17:
 220 009e 37050000 		lui	a0,%hi(.LC2)
 221 00a2 93860600 		addi	a3,a3,%lo(.LC0)
 222 00a6 13060017 		li	a2,368
 223 00aa 93850500 		addi	a1,a1,%lo(.LC1)
 224 00ae 13050500 		addi	a0,a0,%lo(.LC2)
 225 00b2 97000000 		call	printf
 225      E7800000 
 226              	.LVL18:
 227              	.L19:
 228              		.loc 1 368 7 discriminator 3
 229              		.loc 1 368 7 discriminator 3
 230              		.loc 1 368 7 discriminator 3
 231 00ba 01A0     		j	.L19
 232              	.LVL19:
 233              	.L14:
 234              	.LBB4:
 317:C:/Users/stapi/OneDrive/Desktop/GD32VW553/V1_MQTT_OK/GD32VW55X_Wifi_BLE_SDK/GD32VW55x_RELEASE_V1.0.2/MSDK/lwip/lwip-2.1.2/src/core/ipv4\etharp.c ****             old_pending = i;
 235              		.loc 1 317 11
 317:C:/Users/stapi/OneDrive/Desktop/GD32VW553/V1_MQTT_OK/GD32VW55X_Wifi_BLE_SDK/GD32VW55x_RELEASE_V1.0.2/MSDK/lwip/lwip-2.1.2/src/core/ipv4\etharp.c ****             old_pending = i;
 236              		.loc 1 317 14 is_stmt 0
 237 00bc E3E7E7FB 		bltu	a5,t5,.L9
 238 00c0 3E8F     		mv	t5,a5
 239              	.LVL20:
 240 00c2 2A88     		mv	a6,a0
 241              	.LVL21:
 242 00c4 5DB7     		j	.L9
 243              	.LVL22:
 244              	.L13:
 323:C:/Users/stapi/OneDrive/Desktop/GD32VW553/V1_MQTT_OK/GD32VW55X_Wifi_BLE_SDK/GD32VW55x_RELEASE_V1.0.2/MSDK/lwip/lwip-2.1.2/src/core/ipv4\etharp.c **** #if ETHARP_SUPPORT_STATIC_ENTRIES
 245              		.loc 1 323 14 is_stmt 1
 330:C:/Users/stapi/OneDrive/Desktop/GD32VW553/V1_MQTT_OK/GD32VW55X_Wifi_BLE_SDK/GD32VW55x_RELEASE_V1.0.2/MSDK/lwip/lwip-2.1.2/src/core/ipv4\etharp.c ****             old_stable = i;
 246              		.loc 1 330 11
 330:C:/Users/stapi/OneDrive/Desktop/GD32VW553/V1_MQTT_OK/GD32VW55X_Wifi_BLE_SDK/GD32VW55x_RELEASE_V1.0.2/MSDK/lwip/lwip-2.1.2/src/core/ipv4\etharp.c ****             old_stable = i;
 247              		.loc 1 330 14 is_stmt 0
 248 00c6 E3E2F7FB 		bltu	a5,t6,.L9
 249 00ca BE8F     		mv	t6,a5
 250              	.LVL23:
 251 00cc 2A84     		mv	s0,a0
 252              	.LVL24:
 253 00ce 71BF     		j	.L9
 254              	.LVL25:
 255              	.L24:
 256 00d0 2A87     		mv	a4,a0
 257 00d2 61BF     		j	.L9
 258              	.LVL26:
 259              	.L17:
 260              	.LBE4:
 369:C:/Users/stapi/OneDrive/Desktop/GD32VW553/V1_MQTT_OK/GD32VW55X_Wifi_BLE_SDK/GD32VW55x_RELEASE_V1.0.2/MSDK/lwip/lwip-2.1.2/src/core/ipv4\etharp.c ****       /* 3) found recyclable pending entry without queued packets? */
 370:C:/Users/stapi/OneDrive/Desktop/GD32VW553/V1_MQTT_OK/GD32VW55X_Wifi_BLE_SDK/GD32VW55x_RELEASE_V1.0.2/MSDK/lwip/lwip-2.1.2/src/core/ipv4\etharp.c ****     } else if (old_pending < ARP_TABLE_SIZE) {
 261              		.loc 1 370 12 is_stmt 1
 262              		.loc 1 370 15 is_stmt 0
 263 00d4 63188802 		bne	a6,s0,.L26
 371:C:/Users/stapi/OneDrive/Desktop/GD32VW553/V1_MQTT_OK/GD32VW55X_Wifi_BLE_SDK/GD32VW55x_RELEASE_V1.0.2/MSDK/lwip/lwip-2.1.2/src/core/ipv4\etharp.c ****       /* recycle oldest pending */
 372:C:/Users/stapi/OneDrive/Desktop/GD32VW553/V1_MQTT_OK/GD32VW55X_Wifi_BLE_SDK/GD32VW55x_RELEASE_V1.0.2/MSDK/lwip/lwip-2.1.2/src/core/ipv4\etharp.c ****       i = old_pending;
 373:C:/Users/stapi/OneDrive/Desktop/GD32VW553/V1_MQTT_OK/GD32VW55X_Wifi_BLE_SDK/GD32VW55x_RELEASE_V1.0.2/MSDK/lwip/lwip-2.1.2/src/core/ipv4\etharp.c ****       LWIP_DEBUGF(ETHARP_DEBUG | LWIP_DBG_TRACE, ("etharp_find_entry: selecting oldest pending entr
 374:C:/Users/stapi/OneDrive/Desktop/GD32VW553/V1_MQTT_OK/GD32VW55X_Wifi_BLE_SDK/GD32VW55x_RELEASE_V1.0.2/MSDK/lwip/lwip-2.1.2/src/core/ipv4\etharp.c ****       /* 4) found recyclable pending entry with queued packets? */
 375:C:/Users/stapi/OneDrive/Desktop/GD32VW553/V1_MQTT_OK/GD32VW55X_Wifi_BLE_SDK/GD32VW55x_RELEASE_V1.0.2/MSDK/lwip/lwip-2.1.2/src/core/ipv4\etharp.c ****     } else if (old_queue < ARP_TABLE_SIZE) {
 264              		.loc 1 375 12 is_stmt 1
 265 00d8 7284     		mv	s0,t3
 266              	.LVL27:
 267              		.loc 1 375 15 is_stmt 0
 268 00da 63160E03 		bne	t3,a6,.L18
 269              	.L25:
 345:C:/Users/stapi/OneDrive/Desktop/GD32VW553/V1_MQTT_OK/GD32VW55X_Wifi_BLE_SDK/GD32VW55x_RELEASE_V1.0.2/MSDK/lwip/lwip-2.1.2/src/core/ipv4\etharp.c ****   }
 270              		.loc 1 345 12
 271 00de 7D55     		li	a0,-1
 272              	.LVL28:
 273 00e0 31A8     		j	.L28
 274              	.LVL29:
 275              	.L45:
 376:C:/Users/stapi/OneDrive/Desktop/GD32VW553/V1_MQTT_OK/GD32VW55X_Wifi_BLE_SDK/GD32VW55x_RELEASE_V1.0.2/MSDK/lwip/lwip-2.1.2/src/core/ipv4\etharp.c ****       /* recycle oldest pending (queued packets are free in etharp_free_entry) */
 377:C:/Users/stapi/OneDrive/Desktop/GD32VW553/V1_MQTT_OK/GD32VW55X_Wifi_BLE_SDK/GD32VW55x_RELEASE_V1.0.2/MSDK/lwip/lwip-2.1.2/src/core/ipv4\etharp.c ****       i = old_queue;
 378:C:/Users/stapi/OneDrive/Desktop/GD32VW553/V1_MQTT_OK/GD32VW55X_Wifi_BLE_SDK/GD32VW55x_RELEASE_V1.0.2/MSDK/lwip/lwip-2.1.2/src/core/ipv4\etharp.c ****       LWIP_DEBUGF(ETHARP_DEBUG | LWIP_DBG_TRACE, ("etharp_find_entry: selecting oldest pending entr
 379:C:/Users/stapi/OneDrive/Desktop/GD32VW553/V1_MQTT_OK/GD32VW55X_Wifi_BLE_SDK/GD32VW55x_RELEASE_V1.0.2/MSDK/lwip/lwip-2.1.2/src/core/ipv4\etharp.c ****       /* no empty or recyclable entries found */
 380:C:/Users/stapi/OneDrive/Desktop/GD32VW553/V1_MQTT_OK/GD32VW55X_Wifi_BLE_SDK/GD32VW55x_RELEASE_V1.0.2/MSDK/lwip/lwip-2.1.2/src/core/ipv4\etharp.c ****     } else {
 381:C:/Users/stapi/OneDrive/Desktop/GD32VW553/V1_MQTT_OK/GD32VW55X_Wifi_BLE_SDK/GD32VW55x_RELEASE_V1.0.2/MSDK/lwip/lwip-2.1.2/src/core/ipv4\etharp.c ****       LWIP_DEBUGF(ETHARP_DEBUG | LWIP_DBG_TRACE, ("etharp_find_entry: no empty or recyclable entrie
 382:C:/Users/stapi/OneDrive/Desktop/GD32VW553/V1_MQTT_OK/GD32VW55X_Wifi_BLE_SDK/GD32VW55x_RELEASE_V1.0.2/MSDK/lwip/lwip-2.1.2/src/core/ipv4\etharp.c ****       return (s16_t)ERR_MEM;
 383:C:/Users/stapi/OneDrive/Desktop/GD32VW553/V1_MQTT_OK/GD32VW55X_Wifi_BLE_SDK/GD32VW55x_RELEASE_V1.0.2/MSDK/lwip/lwip-2.1.2/src/core/ipv4\etharp.c ****     }
 384:C:/Users/stapi/OneDrive/Desktop/GD32VW553/V1_MQTT_OK/GD32VW55X_Wifi_BLE_SDK/GD32VW55x_RELEASE_V1.0.2/MSDK/lwip/lwip-2.1.2/src/core/ipv4\etharp.c **** 
 385:C:/Users/stapi/OneDrive/Desktop/GD32VW553/V1_MQTT_OK/GD32VW55X_Wifi_BLE_SDK/GD32VW55x_RELEASE_V1.0.2/MSDK/lwip/lwip-2.1.2/src/core/ipv4\etharp.c ****     /* { empty or recyclable entry found } */
 386:C:/Users/stapi/OneDrive/Desktop/GD32VW553/V1_MQTT_OK/GD32VW55X_Wifi_BLE_SDK/GD32VW55x_RELEASE_V1.0.2/MSDK/lwip/lwip-2.1.2/src/core/ipv4\etharp.c ****     LWIP_ASSERT("i < ARP_TABLE_SIZE", i < ARP_TABLE_SIZE);
 387:C:/Users/stapi/OneDrive/Desktop/GD32VW553/V1_MQTT_OK/GD32VW55X_Wifi_BLE_SDK/GD32VW55x_RELEASE_V1.0.2/MSDK/lwip/lwip-2.1.2/src/core/ipv4\etharp.c ****     etharp_free_entry(i);
 388:C:/Users/stapi/OneDrive/Desktop/GD32VW553/V1_MQTT_OK/GD32VW55X_Wifi_BLE_SDK/GD32VW55x_RELEASE_V1.0.2/MSDK/lwip/lwip-2.1.2/src/core/ipv4\etharp.c ****   }
 389:C:/Users/stapi/OneDrive/Desktop/GD32VW553/V1_MQTT_OK/GD32VW55X_Wifi_BLE_SDK/GD32VW55x_RELEASE_V1.0.2/MSDK/lwip/lwip-2.1.2/src/core/ipv4\etharp.c **** 
 390:C:/Users/stapi/OneDrive/Desktop/GD32VW553/V1_MQTT_OK/GD32VW55X_Wifi_BLE_SDK/GD32VW55x_RELEASE_V1.0.2/MSDK/lwip/lwip-2.1.2/src/core/ipv4\etharp.c ****   LWIP_ASSERT("i < ARP_TABLE_SIZE", i < ARP_TABLE_SIZE);
 391:C:/Users/stapi/OneDrive/Desktop/GD32VW553/V1_MQTT_OK/GD32VW55X_Wifi_BLE_SDK/GD32VW55x_RELEASE_V1.0.2/MSDK/lwip/lwip-2.1.2/src/core/ipv4\etharp.c ****   LWIP_ASSERT("arp_table[i].state == ETHARP_STATE_EMPTY",
 276              		.loc 1 391 3 is_stmt 1 discriminator 2
 277              		.loc 1 391 3 discriminator 2
 392:C:/Users/stapi/OneDrive/Desktop/GD32VW553/V1_MQTT_OK/GD32VW55X_Wifi_BLE_SDK/GD32VW55x_RELEASE_V1.0.2/MSDK/lwip/lwip-2.1.2/src/core/ipv4\etharp.c ****               arp_table[i].state == ETHARP_STATE_EMPTY);
 393:C:/Users/stapi/OneDrive/Desktop/GD32VW553/V1_MQTT_OK/GD32VW55X_Wifi_BLE_SDK/GD32VW55x_RELEASE_V1.0.2/MSDK/lwip/lwip-2.1.2/src/core/ipv4\etharp.c **** 
 394:C:/Users/stapi/OneDrive/Desktop/GD32VW553/V1_MQTT_OK/GD32VW55X_Wifi_BLE_SDK/GD32VW55x_RELEASE_V1.0.2/MSDK/lwip/lwip-2.1.2/src/core/ipv4\etharp.c ****   /* IP address given? */
 395:C:/Users/stapi/OneDrive/Desktop/GD32VW553/V1_MQTT_OK/GD32VW55X_Wifi_BLE_SDK/GD32VW55x_RELEASE_V1.0.2/MSDK/lwip/lwip-2.1.2/src/core/ipv4\etharp.c ****   if (ipaddr != NULL) {
 278              		.loc 1 395 3 discriminator 2
 279              		.loc 1 395 6 is_stmt 0 discriminator 2
 280 00e2 63050900 		beq	s2,zero,.L21
 396:C:/Users/stapi/OneDrive/Desktop/GD32VW553/V1_MQTT_OK/GD32VW55X_Wifi_BLE_SDK/GD32VW55x_RELEASE_V1.0.2/MSDK/lwip/lwip-2.1.2/src/core/ipv4\etharp.c ****     /* set IP address */
 397:C:/Users/stapi/OneDrive/Desktop/GD32VW553/V1_MQTT_OK/GD32VW55X_Wifi_BLE_SDK/GD32VW55x_RELEASE_V1.0.2/MSDK/lwip/lwip-2.1.2/src/core/ipv4\etharp.c ****     ip4_addr_copy(arp_table[i].ipaddr, *ipaddr);
 281              		.loc 1 397 5 is_stmt 1
 282 00e6 83260900 		lw	a3,0(s2)
 283 00ea D4C3     		sw	a3,4(a5)
 284              	.L21:
 398:C:/Users/stapi/OneDrive/Desktop/GD32VW553/V1_MQTT_OK/GD32VW55X_Wifi_BLE_SDK/GD32VW55x_RELEASE_V1.0.2/MSDK/lwip/lwip-2.1.2/src/core/ipv4\etharp.c ****   }
 399:C:/Users/stapi/OneDrive/Desktop/GD32VW553/V1_MQTT_OK/GD32VW55X_Wifi_BLE_SDK/GD32VW55x_RELEASE_V1.0.2/MSDK/lwip/lwip-2.1.2/src/core/ipv4\etharp.c ****   arp_table[i].ctime = 0;
 285              		.loc 1 399 3
 286              		.loc 1 399 22 is_stmt 0
 287 00ec E147     		li	a5,24
 288 00ee FF14F7C4 		maddr32	s1, a4, a5
 400:C:/Users/stapi/OneDrive/Desktop/GD32VW553/V1_MQTT_OK/GD32VW55X_Wifi_BLE_SDK/GD32VW55x_RELEASE_V1.0.2/MSDK/lwip/lwip-2.1.2/src/core/ipv4\etharp.c **** #if ETHARP_TABLE_MATCH_NETIF
 401:C:/Users/stapi/OneDrive/Desktop/GD32VW553/V1_MQTT_OK/GD32VW55X_Wifi_BLE_SDK/GD32VW55x_RELEASE_V1.0.2/MSDK/lwip/lwip-2.1.2/src/core/ipv4\etharp.c ****   arp_table[i].netif = netif;
 402:C:/Users/stapi/OneDrive/Desktop/GD32VW553/V1_MQTT_OK/GD32VW55X_Wifi_BLE_SDK/GD32VW55x_RELEASE_V1.0.2/MSDK/lwip/lwip-2.1.2/src/core/ipv4\etharp.c **** #endif /* ETHARP_TABLE_MATCH_NETIF */
 403:C:/Users/stapi/OneDrive/Desktop/GD32VW553/V1_MQTT_OK/GD32VW55X_Wifi_BLE_SDK/GD32VW55x_RELEASE_V1.0.2/MSDK/lwip/lwip-2.1.2/src/core/ipv4\etharp.c ****   return (s16_t)i;
 289              		.loc 1 403 10
 290 00f2 3A85     		mv	a0,a4
 399:C:/Users/stapi/OneDrive/Desktop/GD32VW553/V1_MQTT_OK/GD32VW55X_Wifi_BLE_SDK/GD32VW55x_RELEASE_V1.0.2/MSDK/lwip/lwip-2.1.2/src/core/ipv4\etharp.c **** #if ETHARP_TABLE_MATCH_NETIF
 291              		.loc 1 399 22
 292 00f4 23990400 		sh	zero,18(s1)
 401:C:/Users/stapi/OneDrive/Desktop/GD32VW553/V1_MQTT_OK/GD32VW55X_Wifi_BLE_SDK/GD32VW55x_RELEASE_V1.0.2/MSDK/lwip/lwip-2.1.2/src/core/ipv4\etharp.c **** #endif /* ETHARP_TABLE_MATCH_NETIF */
 293              		.loc 1 401 3 is_stmt 1
 401:C:/Users/stapi/OneDrive/Desktop/GD32VW553/V1_MQTT_OK/GD32VW55X_Wifi_BLE_SDK/GD32VW55x_RELEASE_V1.0.2/MSDK/lwip/lwip-2.1.2/src/core/ipv4\etharp.c **** #endif /* ETHARP_TABLE_MATCH_NETIF */
 294              		.loc 1 401 22 is_stmt 0
 295 00f8 23A43401 		sw	s3,8(s1)
 296              		.loc 1 403 3 is_stmt 1
 297              	.LVL30:
 298              	.L28:
 404:C:/Users/stapi/OneDrive/Desktop/GD32VW553/V1_MQTT_OK/GD32VW55X_Wifi_BLE_SDK/GD32VW55x_RELEASE_V1.0.2/MSDK/lwip/lwip-2.1.2/src/core/ipv4\etharp.c **** }
 299              		.loc 1 404 1 is_stmt 0
 300 00fc 17030000 		tail	__riscv_restore_4
 300      67000300 
 301              		.cfi_remember_state
 302              		.cfi_restore 19
 303              		.cfi_restore 18
 304              		.cfi_restore 9
 305              		.cfi_restore 8
 306              		.cfi_restore 1
 307              		.cfi_def_cfa_offset 0
 308              	.LVL31:
 309              	.L26:
 310              		.cfi_restore_state
 311 0104 4284     		mv	s0,a6
 312              	.LVL32:
 313              	.L18:
 386:C:/Users/stapi/OneDrive/Desktop/GD32VW553/V1_MQTT_OK/GD32VW55X_Wifi_BLE_SDK/GD32VW55x_RELEASE_V1.0.2/MSDK/lwip/lwip-2.1.2/src/core/ipv4\etharp.c ****     etharp_free_entry(i);
 314              		.loc 1 386 5 is_stmt 1
 386:C:/Users/stapi/OneDrive/Desktop/GD32VW553/V1_MQTT_OK/GD32VW55X_Wifi_BLE_SDK/GD32VW55x_RELEASE_V1.0.2/MSDK/lwip/lwip-2.1.2/src/core/ipv4\etharp.c ****     etharp_free_entry(i);
 315              		.loc 1 386 5
 386:C:/Users/stapi/OneDrive/Desktop/GD32VW553/V1_MQTT_OK/GD32VW55X_Wifi_BLE_SDK/GD32VW55x_RELEASE_V1.0.2/MSDK/lwip/lwip-2.1.2/src/core/ipv4\etharp.c ****     etharp_free_entry(i);
 316              		.loc 1 386 5
 386:C:/Users/stapi/OneDrive/Desktop/GD32VW553/V1_MQTT_OK/GD32VW55X_Wifi_BLE_SDK/GD32VW55x_RELEASE_V1.0.2/MSDK/lwip/lwip-2.1.2/src/core/ipv4\etharp.c ****     etharp_free_entry(i);
 317              		.loc 1 386 5
 387:C:/Users/stapi/OneDrive/Desktop/GD32VW553/V1_MQTT_OK/GD32VW55X_Wifi_BLE_SDK/GD32VW55x_RELEASE_V1.0.2/MSDK/lwip/lwip-2.1.2/src/core/ipv4\etharp.c ****   }
 318              		.loc 1 387 5
 319 0106 2285     		mv	a0,s0
 320 0108 97000000 		call	etharp_free_entry
 320      E7800000 
 321              	.LVL33:
 322 0110 2287     		mv	a4,s0
 323              	.LVL34:
 324              	.L16:
 390:C:/Users/stapi/OneDrive/Desktop/GD32VW553/V1_MQTT_OK/GD32VW55X_Wifi_BLE_SDK/GD32VW55x_RELEASE_V1.0.2/MSDK/lwip/lwip-2.1.2/src/core/ipv4\etharp.c ****   LWIP_ASSERT("arp_table[i].state == ETHARP_STATE_EMPTY",
 325              		.loc 1 390 3
 390:C:/Users/stapi/OneDrive/Desktop/GD32VW553/V1_MQTT_OK/GD32VW55X_Wifi_BLE_SDK/GD32VW55x_RELEASE_V1.0.2/MSDK/lwip/lwip-2.1.2/src/core/ipv4\etharp.c ****   LWIP_ASSERT("arp_table[i].state == ETHARP_STATE_EMPTY",
 326              		.loc 1 390 3
 390:C:/Users/stapi/OneDrive/Desktop/GD32VW553/V1_MQTT_OK/GD32VW55X_Wifi_BLE_SDK/GD32VW55x_RELEASE_V1.0.2/MSDK/lwip/lwip-2.1.2/src/core/ipv4\etharp.c ****   LWIP_ASSERT("arp_table[i].state == ETHARP_STATE_EMPTY",
 327              		.loc 1 390 3
 390:C:/Users/stapi/OneDrive/Desktop/GD32VW553/V1_MQTT_OK/GD32VW55X_Wifi_BLE_SDK/GD32VW55x_RELEASE_V1.0.2/MSDK/lwip/lwip-2.1.2/src/core/ipv4\etharp.c ****   LWIP_ASSERT("arp_table[i].state == ETHARP_STATE_EMPTY",
 328              		.loc 1 390 3
 391:C:/Users/stapi/OneDrive/Desktop/GD32VW553/V1_MQTT_OK/GD32VW55X_Wifi_BLE_SDK/GD32VW55x_RELEASE_V1.0.2/MSDK/lwip/lwip-2.1.2/src/core/ipv4\etharp.c ****               arp_table[i].state == ETHARP_STATE_EMPTY);
 329              		.loc 1 391 3
 391:C:/Users/stapi/OneDrive/Desktop/GD32VW553/V1_MQTT_OK/GD32VW55X_Wifi_BLE_SDK/GD32VW55x_RELEASE_V1.0.2/MSDK/lwip/lwip-2.1.2/src/core/ipv4\etharp.c ****               arp_table[i].state == ETHARP_STATE_EMPTY);
 330              		.loc 1 391 3
 331 0112 E146     		li	a3,24
 332 0114 A687     		mv	a5,s1
 333 0116 FF17D7C4 		maddr32	a5, a4, a3
 334 011a 83C64701 		lbu	a3,20(a5)
 335 011e F1D2     		beq	a3,zero,.L45
 391:C:/Users/stapi/OneDrive/Desktop/GD32VW553/V1_MQTT_OK/GD32VW55X_Wifi_BLE_SDK/GD32VW55x_RELEASE_V1.0.2/MSDK/lwip/lwip-2.1.2/src/core/ipv4\etharp.c ****               arp_table[i].state == ETHARP_STATE_EMPTY);
 336              		.loc 1 391 3 discriminator 1
 391:C:/Users/stapi/OneDrive/Desktop/GD32VW553/V1_MQTT_OK/GD32VW55X_Wifi_BLE_SDK/GD32VW55x_RELEASE_V1.0.2/MSDK/lwip/lwip-2.1.2/src/core/ipv4\etharp.c ****               arp_table[i].state == ETHARP_STATE_EMPTY);
 337              		.loc 1 391 3 discriminator 1
 338 0120 B7060000 		lui	a3,%hi(.LC0)
 339 0124 B7050000 		lui	a1,%hi(.LC3)
 340 0128 37050000 		lui	a0,%hi(.LC2)
 341 012c 93860600 		addi	a3,a3,%lo(.LC0)
 342 0130 13067018 		li	a2,391
 343 0134 93850500 		addi	a1,a1,%lo(.LC3)
 344 0138 13050500 		addi	a0,a0,%lo(.LC2)
 345 013c 97000000 		call	printf
 345      E7800000 
 346              	.LVL35:
 347              	.L20:
 391:C:/Users/stapi/OneDrive/Desktop/GD32VW553/V1_MQTT_OK/GD32VW55X_Wifi_BLE_SDK/GD32VW55x_RELEASE_V1.0.2/MSDK/lwip/lwip-2.1.2/src/core/ipv4\etharp.c ****               arp_table[i].state == ETHARP_STATE_EMPTY);
 348              		.loc 1 391 3 discriminator 6
 391:C:/Users/stapi/OneDrive/Desktop/GD32VW553/V1_MQTT_OK/GD32VW55X_Wifi_BLE_SDK/GD32VW55x_RELEASE_V1.0.2/MSDK/lwip/lwip-2.1.2/src/core/ipv4\etharp.c ****               arp_table[i].state == ETHARP_STATE_EMPTY);
 349              		.loc 1 391 3 discriminator 6
 391:C:/Users/stapi/OneDrive/Desktop/GD32VW553/V1_MQTT_OK/GD32VW55X_Wifi_BLE_SDK/GD32VW55x_RELEASE_V1.0.2/MSDK/lwip/lwip-2.1.2/src/core/ipv4\etharp.c ****               arp_table[i].state == ETHARP_STATE_EMPTY);
 350              		.loc 1 391 3 discriminator 6
 351 0144 01A0     		j	.L20
 352              		.cfi_endproc
 353              	.LFE6:
 355              		.section	.rodata.etharp_raw.str1.4,"aMS",@progbits,1
 356              		.align	2
 357              	.LC4:
 358 0000 6E657469 		.string	"netif != NULL"
 358      6620213D 
 358      204E554C 
 358      4C00
 359 000e 0000     		.align	2
 360              	.LC5:
 361 0010 63686563 		.string	"check that first pbuf can hold struct etharp_hdr"
 361      6B207468 
 361      61742066 
 361      69727374 
 361      20706275 
 362 0041 000000   		.align	2
 363              	.LC6:
 364 0044 6E657469 		.string	"netif->hwaddr_len must be the same as ETH_HWADDR_LEN for etharp!"
 364      662D3E68 
 364      77616464 
 364      725F6C65 
 364      6E206D75 
 365              		.section	.text.etharp_raw,"ax",@progbits
 366              		.align	1
 368              	etharp_raw:
 369              	.LFB16:
 405:C:/Users/stapi/OneDrive/Desktop/GD32VW553/V1_MQTT_OK/GD32VW55X_Wifi_BLE_SDK/GD32VW55x_RELEASE_V1.0.2/MSDK/lwip/lwip-2.1.2/src/core/ipv4\etharp.c **** 
 406:C:/Users/stapi/OneDrive/Desktop/GD32VW553/V1_MQTT_OK/GD32VW55X_Wifi_BLE_SDK/GD32VW55x_RELEASE_V1.0.2/MSDK/lwip/lwip-2.1.2/src/core/ipv4\etharp.c **** /**
 407:C:/Users/stapi/OneDrive/Desktop/GD32VW553/V1_MQTT_OK/GD32VW55X_Wifi_BLE_SDK/GD32VW55x_RELEASE_V1.0.2/MSDK/lwip/lwip-2.1.2/src/core/ipv4\etharp.c ****  * Update (or insert) a IP/MAC address pair in the ARP cache.
 408:C:/Users/stapi/OneDrive/Desktop/GD32VW553/V1_MQTT_OK/GD32VW55X_Wifi_BLE_SDK/GD32VW55x_RELEASE_V1.0.2/MSDK/lwip/lwip-2.1.2/src/core/ipv4\etharp.c ****  *
 409:C:/Users/stapi/OneDrive/Desktop/GD32VW553/V1_MQTT_OK/GD32VW55X_Wifi_BLE_SDK/GD32VW55x_RELEASE_V1.0.2/MSDK/lwip/lwip-2.1.2/src/core/ipv4\etharp.c ****  * If a pending entry is resolved, any queued packets will be sent
 410:C:/Users/stapi/OneDrive/Desktop/GD32VW553/V1_MQTT_OK/GD32VW55X_Wifi_BLE_SDK/GD32VW55x_RELEASE_V1.0.2/MSDK/lwip/lwip-2.1.2/src/core/ipv4\etharp.c ****  * at this point.
 411:C:/Users/stapi/OneDrive/Desktop/GD32VW553/V1_MQTT_OK/GD32VW55X_Wifi_BLE_SDK/GD32VW55x_RELEASE_V1.0.2/MSDK/lwip/lwip-2.1.2/src/core/ipv4\etharp.c ****  *
 412:C:/Users/stapi/OneDrive/Desktop/GD32VW553/V1_MQTT_OK/GD32VW55X_Wifi_BLE_SDK/GD32VW55x_RELEASE_V1.0.2/MSDK/lwip/lwip-2.1.2/src/core/ipv4\etharp.c ****  * @param netif netif related to this entry (used for NETIF_ADDRHINT)
 413:C:/Users/stapi/OneDrive/Desktop/GD32VW553/V1_MQTT_OK/GD32VW55X_Wifi_BLE_SDK/GD32VW55x_RELEASE_V1.0.2/MSDK/lwip/lwip-2.1.2/src/core/ipv4\etharp.c ****  * @param ipaddr IP address of the inserted ARP entry.
 414:C:/Users/stapi/OneDrive/Desktop/GD32VW553/V1_MQTT_OK/GD32VW55X_Wifi_BLE_SDK/GD32VW55x_RELEASE_V1.0.2/MSDK/lwip/lwip-2.1.2/src/core/ipv4\etharp.c ****  * @param ethaddr Ethernet address of the inserted ARP entry.
 415:C:/Users/stapi/OneDrive/Desktop/GD32VW553/V1_MQTT_OK/GD32VW55X_Wifi_BLE_SDK/GD32VW55x_RELEASE_V1.0.2/MSDK/lwip/lwip-2.1.2/src/core/ipv4\etharp.c ****  * @param flags See @ref etharp_state
 416:C:/Users/stapi/OneDrive/Desktop/GD32VW553/V1_MQTT_OK/GD32VW55X_Wifi_BLE_SDK/GD32VW55x_RELEASE_V1.0.2/MSDK/lwip/lwip-2.1.2/src/core/ipv4\etharp.c ****  *
 417:C:/Users/stapi/OneDrive/Desktop/GD32VW553/V1_MQTT_OK/GD32VW55X_Wifi_BLE_SDK/GD32VW55x_RELEASE_V1.0.2/MSDK/lwip/lwip-2.1.2/src/core/ipv4\etharp.c ****  * @return
 418:C:/Users/stapi/OneDrive/Desktop/GD32VW553/V1_MQTT_OK/GD32VW55X_Wifi_BLE_SDK/GD32VW55x_RELEASE_V1.0.2/MSDK/lwip/lwip-2.1.2/src/core/ipv4\etharp.c ****  * - ERR_OK Successfully updated ARP cache.
 419:C:/Users/stapi/OneDrive/Desktop/GD32VW553/V1_MQTT_OK/GD32VW55X_Wifi_BLE_SDK/GD32VW55x_RELEASE_V1.0.2/MSDK/lwip/lwip-2.1.2/src/core/ipv4\etharp.c ****  * - ERR_MEM If we could not add a new ARP entry when ETHARP_FLAG_TRY_HARD was set.
 420:C:/Users/stapi/OneDrive/Desktop/GD32VW553/V1_MQTT_OK/GD32VW55X_Wifi_BLE_SDK/GD32VW55x_RELEASE_V1.0.2/MSDK/lwip/lwip-2.1.2/src/core/ipv4\etharp.c ****  * - ERR_ARG Non-unicast address given, those will not appear in ARP cache.
 421:C:/Users/stapi/OneDrive/Desktop/GD32VW553/V1_MQTT_OK/GD32VW55X_Wifi_BLE_SDK/GD32VW55x_RELEASE_V1.0.2/MSDK/lwip/lwip-2.1.2/src/core/ipv4\etharp.c ****  *
 422:C:/Users/stapi/OneDrive/Desktop/GD32VW553/V1_MQTT_OK/GD32VW55X_Wifi_BLE_SDK/GD32VW55x_RELEASE_V1.0.2/MSDK/lwip/lwip-2.1.2/src/core/ipv4\etharp.c ****  * @see pbuf_free()
 423:C:/Users/stapi/OneDrive/Desktop/GD32VW553/V1_MQTT_OK/GD32VW55X_Wifi_BLE_SDK/GD32VW55x_RELEASE_V1.0.2/MSDK/lwip/lwip-2.1.2/src/core/ipv4\etharp.c ****  */
 424:C:/Users/stapi/OneDrive/Desktop/GD32VW553/V1_MQTT_OK/GD32VW55X_Wifi_BLE_SDK/GD32VW55x_RELEASE_V1.0.2/MSDK/lwip/lwip-2.1.2/src/core/ipv4\etharp.c **** static err_t
 425:C:/Users/stapi/OneDrive/Desktop/GD32VW553/V1_MQTT_OK/GD32VW55X_Wifi_BLE_SDK/GD32VW55x_RELEASE_V1.0.2/MSDK/lwip/lwip-2.1.2/src/core/ipv4\etharp.c **** etharp_update_arp_entry(struct netif *netif, const ip4_addr_t *ipaddr, struct eth_addr *ethaddr, u8
 426:C:/Users/stapi/OneDrive/Desktop/GD32VW553/V1_MQTT_OK/GD32VW55X_Wifi_BLE_SDK/GD32VW55x_RELEASE_V1.0.2/MSDK/lwip/lwip-2.1.2/src/core/ipv4\etharp.c **** {
 427:C:/Users/stapi/OneDrive/Desktop/GD32VW553/V1_MQTT_OK/GD32VW55X_Wifi_BLE_SDK/GD32VW55x_RELEASE_V1.0.2/MSDK/lwip/lwip-2.1.2/src/core/ipv4\etharp.c ****   s16_t i;
 428:C:/Users/stapi/OneDrive/Desktop/GD32VW553/V1_MQTT_OK/GD32VW55X_Wifi_BLE_SDK/GD32VW55x_RELEASE_V1.0.2/MSDK/lwip/lwip-2.1.2/src/core/ipv4\etharp.c ****   LWIP_ASSERT("netif->hwaddr_len == ETH_HWADDR_LEN", netif->hwaddr_len == ETH_HWADDR_LEN);
 429:C:/Users/stapi/OneDrive/Desktop/GD32VW553/V1_MQTT_OK/GD32VW55X_Wifi_BLE_SDK/GD32VW55x_RELEASE_V1.0.2/MSDK/lwip/lwip-2.1.2/src/core/ipv4\etharp.c ****   LWIP_DEBUGF(ETHARP_DEBUG | LWIP_DBG_TRACE, ("etharp_update_arp_entry: %"U16_F".%"U16_F".%"U16_F".
 430:C:/Users/stapi/OneDrive/Desktop/GD32VW553/V1_MQTT_OK/GD32VW55X_Wifi_BLE_SDK/GD32VW55x_RELEASE_V1.0.2/MSDK/lwip/lwip-2.1.2/src/core/ipv4\etharp.c ****               ip4_addr1_16(ipaddr), ip4_addr2_16(ipaddr), ip4_addr3_16(ipaddr), ip4_addr4_16(ipaddr
 431:C:/Users/stapi/OneDrive/Desktop/GD32VW553/V1_MQTT_OK/GD32VW55X_Wifi_BLE_SDK/GD32VW55x_RELEASE_V1.0.2/MSDK/lwip/lwip-2.1.2/src/core/ipv4\etharp.c ****               (u16_t)ethaddr->addr[0], (u16_t)ethaddr->addr[1], (u16_t)ethaddr->addr[2],
 432:C:/Users/stapi/OneDrive/Desktop/GD32VW553/V1_MQTT_OK/GD32VW55X_Wifi_BLE_SDK/GD32VW55x_RELEASE_V1.0.2/MSDK/lwip/lwip-2.1.2/src/core/ipv4\etharp.c ****               (u16_t)ethaddr->addr[3], (u16_t)ethaddr->addr[4], (u16_t)ethaddr->addr[5]));
 433:C:/Users/stapi/OneDrive/Desktop/GD32VW553/V1_MQTT_OK/GD32VW55X_Wifi_BLE_SDK/GD32VW55x_RELEASE_V1.0.2/MSDK/lwip/lwip-2.1.2/src/core/ipv4\etharp.c ****   /* non-unicast address? */
 434:C:/Users/stapi/OneDrive/Desktop/GD32VW553/V1_MQTT_OK/GD32VW55X_Wifi_BLE_SDK/GD32VW55x_RELEASE_V1.0.2/MSDK/lwip/lwip-2.1.2/src/core/ipv4\etharp.c ****   if (ip4_addr_isany(ipaddr) ||
 435:C:/Users/stapi/OneDrive/Desktop/GD32VW553/V1_MQTT_OK/GD32VW55X_Wifi_BLE_SDK/GD32VW55x_RELEASE_V1.0.2/MSDK/lwip/lwip-2.1.2/src/core/ipv4\etharp.c ****       ip4_addr_isbroadcast(ipaddr, netif) ||
 436:C:/Users/stapi/OneDrive/Desktop/GD32VW553/V1_MQTT_OK/GD32VW55X_Wifi_BLE_SDK/GD32VW55x_RELEASE_V1.0.2/MSDK/lwip/lwip-2.1.2/src/core/ipv4\etharp.c ****       ip4_addr_ismulticast(ipaddr)) {
 437:C:/Users/stapi/OneDrive/Desktop/GD32VW553/V1_MQTT_OK/GD32VW55X_Wifi_BLE_SDK/GD32VW55x_RELEASE_V1.0.2/MSDK/lwip/lwip-2.1.2/src/core/ipv4\etharp.c ****     LWIP_DEBUGF(ETHARP_DEBUG | LWIP_DBG_TRACE, ("etharp_update_arp_entry: will not add non-unicast 
 438:C:/Users/stapi/OneDrive/Desktop/GD32VW553/V1_MQTT_OK/GD32VW55X_Wifi_BLE_SDK/GD32VW55x_RELEASE_V1.0.2/MSDK/lwip/lwip-2.1.2/src/core/ipv4\etharp.c ****     return ERR_ARG;
 439:C:/Users/stapi/OneDrive/Desktop/GD32VW553/V1_MQTT_OK/GD32VW55X_Wifi_BLE_SDK/GD32VW55x_RELEASE_V1.0.2/MSDK/lwip/lwip-2.1.2/src/core/ipv4\etharp.c ****   }
 440:C:/Users/stapi/OneDrive/Desktop/GD32VW553/V1_MQTT_OK/GD32VW55X_Wifi_BLE_SDK/GD32VW55x_RELEASE_V1.0.2/MSDK/lwip/lwip-2.1.2/src/core/ipv4\etharp.c ****   /* find or create ARP entry */
 441:C:/Users/stapi/OneDrive/Desktop/GD32VW553/V1_MQTT_OK/GD32VW55X_Wifi_BLE_SDK/GD32VW55x_RELEASE_V1.0.2/MSDK/lwip/lwip-2.1.2/src/core/ipv4\etharp.c ****   i = etharp_find_entry(ipaddr, flags, netif);
 442:C:/Users/stapi/OneDrive/Desktop/GD32VW553/V1_MQTT_OK/GD32VW55X_Wifi_BLE_SDK/GD32VW55x_RELEASE_V1.0.2/MSDK/lwip/lwip-2.1.2/src/core/ipv4\etharp.c ****   /* bail out if no entry could be found */
 443:C:/Users/stapi/OneDrive/Desktop/GD32VW553/V1_MQTT_OK/GD32VW55X_Wifi_BLE_SDK/GD32VW55x_RELEASE_V1.0.2/MSDK/lwip/lwip-2.1.2/src/core/ipv4\etharp.c ****   if (i < 0) {
 444:C:/Users/stapi/OneDrive/Desktop/GD32VW553/V1_MQTT_OK/GD32VW55X_Wifi_BLE_SDK/GD32VW55x_RELEASE_V1.0.2/MSDK/lwip/lwip-2.1.2/src/core/ipv4\etharp.c ****     return (err_t)i;
 445:C:/Users/stapi/OneDrive/Desktop/GD32VW553/V1_MQTT_OK/GD32VW55X_Wifi_BLE_SDK/GD32VW55x_RELEASE_V1.0.2/MSDK/lwip/lwip-2.1.2/src/core/ipv4\etharp.c ****   }
 446:C:/Users/stapi/OneDrive/Desktop/GD32VW553/V1_MQTT_OK/GD32VW55X_Wifi_BLE_SDK/GD32VW55x_RELEASE_V1.0.2/MSDK/lwip/lwip-2.1.2/src/core/ipv4\etharp.c **** 
 447:C:/Users/stapi/OneDrive/Desktop/GD32VW553/V1_MQTT_OK/GD32VW55X_Wifi_BLE_SDK/GD32VW55x_RELEASE_V1.0.2/MSDK/lwip/lwip-2.1.2/src/core/ipv4\etharp.c **** #if ETHARP_SUPPORT_STATIC_ENTRIES
 448:C:/Users/stapi/OneDrive/Desktop/GD32VW553/V1_MQTT_OK/GD32VW55X_Wifi_BLE_SDK/GD32VW55x_RELEASE_V1.0.2/MSDK/lwip/lwip-2.1.2/src/core/ipv4\etharp.c ****   if (flags & ETHARP_FLAG_STATIC_ENTRY) {
 449:C:/Users/stapi/OneDrive/Desktop/GD32VW553/V1_MQTT_OK/GD32VW55X_Wifi_BLE_SDK/GD32VW55x_RELEASE_V1.0.2/MSDK/lwip/lwip-2.1.2/src/core/ipv4\etharp.c ****     /* record static type */
 450:C:/Users/stapi/OneDrive/Desktop/GD32VW553/V1_MQTT_OK/GD32VW55X_Wifi_BLE_SDK/GD32VW55x_RELEASE_V1.0.2/MSDK/lwip/lwip-2.1.2/src/core/ipv4\etharp.c ****     arp_table[i].state = ETHARP_STATE_STATIC;
 451:C:/Users/stapi/OneDrive/Desktop/GD32VW553/V1_MQTT_OK/GD32VW55X_Wifi_BLE_SDK/GD32VW55x_RELEASE_V1.0.2/MSDK/lwip/lwip-2.1.2/src/core/ipv4\etharp.c ****   } else if (arp_table[i].state == ETHARP_STATE_STATIC) {
 452:C:/Users/stapi/OneDrive/Desktop/GD32VW553/V1_MQTT_OK/GD32VW55X_Wifi_BLE_SDK/GD32VW55x_RELEASE_V1.0.2/MSDK/lwip/lwip-2.1.2/src/core/ipv4\etharp.c ****     /* found entry is a static type, don't overwrite it */
 453:C:/Users/stapi/OneDrive/Desktop/GD32VW553/V1_MQTT_OK/GD32VW55X_Wifi_BLE_SDK/GD32VW55x_RELEASE_V1.0.2/MSDK/lwip/lwip-2.1.2/src/core/ipv4\etharp.c ****     return ERR_VAL;
 454:C:/Users/stapi/OneDrive/Desktop/GD32VW553/V1_MQTT_OK/GD32VW55X_Wifi_BLE_SDK/GD32VW55x_RELEASE_V1.0.2/MSDK/lwip/lwip-2.1.2/src/core/ipv4\etharp.c ****   } else
 455:C:/Users/stapi/OneDrive/Desktop/GD32VW553/V1_MQTT_OK/GD32VW55X_Wifi_BLE_SDK/GD32VW55x_RELEASE_V1.0.2/MSDK/lwip/lwip-2.1.2/src/core/ipv4\etharp.c **** #endif /* ETHARP_SUPPORT_STATIC_ENTRIES */
 456:C:/Users/stapi/OneDrive/Desktop/GD32VW553/V1_MQTT_OK/GD32VW55X_Wifi_BLE_SDK/GD32VW55x_RELEASE_V1.0.2/MSDK/lwip/lwip-2.1.2/src/core/ipv4\etharp.c ****   {
 457:C:/Users/stapi/OneDrive/Desktop/GD32VW553/V1_MQTT_OK/GD32VW55X_Wifi_BLE_SDK/GD32VW55x_RELEASE_V1.0.2/MSDK/lwip/lwip-2.1.2/src/core/ipv4\etharp.c ****     /* mark it stable */
 458:C:/Users/stapi/OneDrive/Desktop/GD32VW553/V1_MQTT_OK/GD32VW55X_Wifi_BLE_SDK/GD32VW55x_RELEASE_V1.0.2/MSDK/lwip/lwip-2.1.2/src/core/ipv4\etharp.c ****     arp_table[i].state = ETHARP_STATE_STABLE;
 459:C:/Users/stapi/OneDrive/Desktop/GD32VW553/V1_MQTT_OK/GD32VW55X_Wifi_BLE_SDK/GD32VW55x_RELEASE_V1.0.2/MSDK/lwip/lwip-2.1.2/src/core/ipv4\etharp.c ****   }
 460:C:/Users/stapi/OneDrive/Desktop/GD32VW553/V1_MQTT_OK/GD32VW55X_Wifi_BLE_SDK/GD32VW55x_RELEASE_V1.0.2/MSDK/lwip/lwip-2.1.2/src/core/ipv4\etharp.c **** 
 461:C:/Users/stapi/OneDrive/Desktop/GD32VW553/V1_MQTT_OK/GD32VW55X_Wifi_BLE_SDK/GD32VW55x_RELEASE_V1.0.2/MSDK/lwip/lwip-2.1.2/src/core/ipv4\etharp.c ****   /* record network interface */
 462:C:/Users/stapi/OneDrive/Desktop/GD32VW553/V1_MQTT_OK/GD32VW55X_Wifi_BLE_SDK/GD32VW55x_RELEASE_V1.0.2/MSDK/lwip/lwip-2.1.2/src/core/ipv4\etharp.c ****   arp_table[i].netif = netif;
 463:C:/Users/stapi/OneDrive/Desktop/GD32VW553/V1_MQTT_OK/GD32VW55X_Wifi_BLE_SDK/GD32VW55x_RELEASE_V1.0.2/MSDK/lwip/lwip-2.1.2/src/core/ipv4\etharp.c ****   /* insert in SNMP ARP index tree */
 464:C:/Users/stapi/OneDrive/Desktop/GD32VW553/V1_MQTT_OK/GD32VW55X_Wifi_BLE_SDK/GD32VW55x_RELEASE_V1.0.2/MSDK/lwip/lwip-2.1.2/src/core/ipv4\etharp.c ****   mib2_add_arp_entry(netif, &arp_table[i].ipaddr);
 465:C:/Users/stapi/OneDrive/Desktop/GD32VW553/V1_MQTT_OK/GD32VW55X_Wifi_BLE_SDK/GD32VW55x_RELEASE_V1.0.2/MSDK/lwip/lwip-2.1.2/src/core/ipv4\etharp.c **** 
 466:C:/Users/stapi/OneDrive/Desktop/GD32VW553/V1_MQTT_OK/GD32VW55X_Wifi_BLE_SDK/GD32VW55x_RELEASE_V1.0.2/MSDK/lwip/lwip-2.1.2/src/core/ipv4\etharp.c ****   LWIP_DEBUGF(ETHARP_DEBUG | LWIP_DBG_TRACE, ("etharp_update_arp_entry: updating stable entry %"S16
 467:C:/Users/stapi/OneDrive/Desktop/GD32VW553/V1_MQTT_OK/GD32VW55X_Wifi_BLE_SDK/GD32VW55x_RELEASE_V1.0.2/MSDK/lwip/lwip-2.1.2/src/core/ipv4\etharp.c ****   /* update address */
 468:C:/Users/stapi/OneDrive/Desktop/GD32VW553/V1_MQTT_OK/GD32VW55X_Wifi_BLE_SDK/GD32VW55x_RELEASE_V1.0.2/MSDK/lwip/lwip-2.1.2/src/core/ipv4\etharp.c ****   SMEMCPY(&arp_table[i].ethaddr, ethaddr, ETH_HWADDR_LEN);
 469:C:/Users/stapi/OneDrive/Desktop/GD32VW553/V1_MQTT_OK/GD32VW55X_Wifi_BLE_SDK/GD32VW55x_RELEASE_V1.0.2/MSDK/lwip/lwip-2.1.2/src/core/ipv4\etharp.c ****   /* reset time stamp */
 470:C:/Users/stapi/OneDrive/Desktop/GD32VW553/V1_MQTT_OK/GD32VW55X_Wifi_BLE_SDK/GD32VW55x_RELEASE_V1.0.2/MSDK/lwip/lwip-2.1.2/src/core/ipv4\etharp.c ****   arp_table[i].ctime = 0;
 471:C:/Users/stapi/OneDrive/Desktop/GD32VW553/V1_MQTT_OK/GD32VW55X_Wifi_BLE_SDK/GD32VW55x_RELEASE_V1.0.2/MSDK/lwip/lwip-2.1.2/src/core/ipv4\etharp.c ****   /* this is where we will send out queued packets! */
 472:C:/Users/stapi/OneDrive/Desktop/GD32VW553/V1_MQTT_OK/GD32VW55X_Wifi_BLE_SDK/GD32VW55x_RELEASE_V1.0.2/MSDK/lwip/lwip-2.1.2/src/core/ipv4\etharp.c **** #if ARP_QUEUEING
 473:C:/Users/stapi/OneDrive/Desktop/GD32VW553/V1_MQTT_OK/GD32VW55X_Wifi_BLE_SDK/GD32VW55x_RELEASE_V1.0.2/MSDK/lwip/lwip-2.1.2/src/core/ipv4\etharp.c ****   while (arp_table[i].q != NULL) {
 474:C:/Users/stapi/OneDrive/Desktop/GD32VW553/V1_MQTT_OK/GD32VW55X_Wifi_BLE_SDK/GD32VW55x_RELEASE_V1.0.2/MSDK/lwip/lwip-2.1.2/src/core/ipv4\etharp.c ****     struct pbuf *p;
 475:C:/Users/stapi/OneDrive/Desktop/GD32VW553/V1_MQTT_OK/GD32VW55X_Wifi_BLE_SDK/GD32VW55x_RELEASE_V1.0.2/MSDK/lwip/lwip-2.1.2/src/core/ipv4\etharp.c ****     /* remember remainder of queue */
 476:C:/Users/stapi/OneDrive/Desktop/GD32VW553/V1_MQTT_OK/GD32VW55X_Wifi_BLE_SDK/GD32VW55x_RELEASE_V1.0.2/MSDK/lwip/lwip-2.1.2/src/core/ipv4\etharp.c ****     struct etharp_q_entry *q = arp_table[i].q;
 477:C:/Users/stapi/OneDrive/Desktop/GD32VW553/V1_MQTT_OK/GD32VW55X_Wifi_BLE_SDK/GD32VW55x_RELEASE_V1.0.2/MSDK/lwip/lwip-2.1.2/src/core/ipv4\etharp.c ****     /* pop first item off the queue */
 478:C:/Users/stapi/OneDrive/Desktop/GD32VW553/V1_MQTT_OK/GD32VW55X_Wifi_BLE_SDK/GD32VW55x_RELEASE_V1.0.2/MSDK/lwip/lwip-2.1.2/src/core/ipv4\etharp.c ****     arp_table[i].q = q->next;
 479:C:/Users/stapi/OneDrive/Desktop/GD32VW553/V1_MQTT_OK/GD32VW55X_Wifi_BLE_SDK/GD32VW55x_RELEASE_V1.0.2/MSDK/lwip/lwip-2.1.2/src/core/ipv4\etharp.c ****     /* get the packet pointer */
 480:C:/Users/stapi/OneDrive/Desktop/GD32VW553/V1_MQTT_OK/GD32VW55X_Wifi_BLE_SDK/GD32VW55x_RELEASE_V1.0.2/MSDK/lwip/lwip-2.1.2/src/core/ipv4\etharp.c ****     p = q->p;
 481:C:/Users/stapi/OneDrive/Desktop/GD32VW553/V1_MQTT_OK/GD32VW55X_Wifi_BLE_SDK/GD32VW55x_RELEASE_V1.0.2/MSDK/lwip/lwip-2.1.2/src/core/ipv4\etharp.c ****     /* now queue entry can be freed */
 482:C:/Users/stapi/OneDrive/Desktop/GD32VW553/V1_MQTT_OK/GD32VW55X_Wifi_BLE_SDK/GD32VW55x_RELEASE_V1.0.2/MSDK/lwip/lwip-2.1.2/src/core/ipv4\etharp.c ****     memp_free(MEMP_ARP_QUEUE, q);
 483:C:/Users/stapi/OneDrive/Desktop/GD32VW553/V1_MQTT_OK/GD32VW55X_Wifi_BLE_SDK/GD32VW55x_RELEASE_V1.0.2/MSDK/lwip/lwip-2.1.2/src/core/ipv4\etharp.c **** #else /* ARP_QUEUEING */
 484:C:/Users/stapi/OneDrive/Desktop/GD32VW553/V1_MQTT_OK/GD32VW55X_Wifi_BLE_SDK/GD32VW55x_RELEASE_V1.0.2/MSDK/lwip/lwip-2.1.2/src/core/ipv4\etharp.c ****   if (arp_table[i].q != NULL) {
 485:C:/Users/stapi/OneDrive/Desktop/GD32VW553/V1_MQTT_OK/GD32VW55X_Wifi_BLE_SDK/GD32VW55x_RELEASE_V1.0.2/MSDK/lwip/lwip-2.1.2/src/core/ipv4\etharp.c ****     struct pbuf *p = arp_table[i].q;
 486:C:/Users/stapi/OneDrive/Desktop/GD32VW553/V1_MQTT_OK/GD32VW55X_Wifi_BLE_SDK/GD32VW55x_RELEASE_V1.0.2/MSDK/lwip/lwip-2.1.2/src/core/ipv4\etharp.c ****     arp_table[i].q = NULL;
 487:C:/Users/stapi/OneDrive/Desktop/GD32VW553/V1_MQTT_OK/GD32VW55X_Wifi_BLE_SDK/GD32VW55x_RELEASE_V1.0.2/MSDK/lwip/lwip-2.1.2/src/core/ipv4\etharp.c **** #endif /* ARP_QUEUEING */
 488:C:/Users/stapi/OneDrive/Desktop/GD32VW553/V1_MQTT_OK/GD32VW55X_Wifi_BLE_SDK/GD32VW55x_RELEASE_V1.0.2/MSDK/lwip/lwip-2.1.2/src/core/ipv4\etharp.c ****     /* send the queued IP packet */
 489:C:/Users/stapi/OneDrive/Desktop/GD32VW553/V1_MQTT_OK/GD32VW55X_Wifi_BLE_SDK/GD32VW55x_RELEASE_V1.0.2/MSDK/lwip/lwip-2.1.2/src/core/ipv4\etharp.c ****     ethernet_output(netif, p, (struct eth_addr *)(netif->hwaddr), ethaddr, ETHTYPE_IP);
 490:C:/Users/stapi/OneDrive/Desktop/GD32VW553/V1_MQTT_OK/GD32VW55X_Wifi_BLE_SDK/GD32VW55x_RELEASE_V1.0.2/MSDK/lwip/lwip-2.1.2/src/core/ipv4\etharp.c ****     /* free the queued IP packet */
 491:C:/Users/stapi/OneDrive/Desktop/GD32VW553/V1_MQTT_OK/GD32VW55X_Wifi_BLE_SDK/GD32VW55x_RELEASE_V1.0.2/MSDK/lwip/lwip-2.1.2/src/core/ipv4\etharp.c ****     pbuf_free(p);
 492:C:/Users/stapi/OneDrive/Desktop/GD32VW553/V1_MQTT_OK/GD32VW55X_Wifi_BLE_SDK/GD32VW55x_RELEASE_V1.0.2/MSDK/lwip/lwip-2.1.2/src/core/ipv4\etharp.c ****   }
 493:C:/Users/stapi/OneDrive/Desktop/GD32VW553/V1_MQTT_OK/GD32VW55X_Wifi_BLE_SDK/GD32VW55x_RELEASE_V1.0.2/MSDK/lwip/lwip-2.1.2/src/core/ipv4\etharp.c ****   return ERR_OK;
 494:C:/Users/stapi/OneDrive/Desktop/GD32VW553/V1_MQTT_OK/GD32VW55X_Wifi_BLE_SDK/GD32VW55x_RELEASE_V1.0.2/MSDK/lwip/lwip-2.1.2/src/core/ipv4\etharp.c **** }
 495:C:/Users/stapi/OneDrive/Desktop/GD32VW553/V1_MQTT_OK/GD32VW55X_Wifi_BLE_SDK/GD32VW55x_RELEASE_V1.0.2/MSDK/lwip/lwip-2.1.2/src/core/ipv4\etharp.c **** 
 496:C:/Users/stapi/OneDrive/Desktop/GD32VW553/V1_MQTT_OK/GD32VW55X_Wifi_BLE_SDK/GD32VW55x_RELEASE_V1.0.2/MSDK/lwip/lwip-2.1.2/src/core/ipv4\etharp.c **** #if ETHARP_SUPPORT_STATIC_ENTRIES
 497:C:/Users/stapi/OneDrive/Desktop/GD32VW553/V1_MQTT_OK/GD32VW55X_Wifi_BLE_SDK/GD32VW55x_RELEASE_V1.0.2/MSDK/lwip/lwip-2.1.2/src/core/ipv4\etharp.c **** /** Add a new static entry to the ARP table. If an entry exists for the
 498:C:/Users/stapi/OneDrive/Desktop/GD32VW553/V1_MQTT_OK/GD32VW55X_Wifi_BLE_SDK/GD32VW55x_RELEASE_V1.0.2/MSDK/lwip/lwip-2.1.2/src/core/ipv4\etharp.c ****  * specified IP address, this entry is overwritten.
 499:C:/Users/stapi/OneDrive/Desktop/GD32VW553/V1_MQTT_OK/GD32VW55X_Wifi_BLE_SDK/GD32VW55x_RELEASE_V1.0.2/MSDK/lwip/lwip-2.1.2/src/core/ipv4\etharp.c ****  * If packets are queued for the specified IP address, they are sent out.
 500:C:/Users/stapi/OneDrive/Desktop/GD32VW553/V1_MQTT_OK/GD32VW55X_Wifi_BLE_SDK/GD32VW55x_RELEASE_V1.0.2/MSDK/lwip/lwip-2.1.2/src/core/ipv4\etharp.c ****  *
 501:C:/Users/stapi/OneDrive/Desktop/GD32VW553/V1_MQTT_OK/GD32VW55X_Wifi_BLE_SDK/GD32VW55x_RELEASE_V1.0.2/MSDK/lwip/lwip-2.1.2/src/core/ipv4\etharp.c ****  * @param ipaddr IP address for the new static entry
 502:C:/Users/stapi/OneDrive/Desktop/GD32VW553/V1_MQTT_OK/GD32VW55X_Wifi_BLE_SDK/GD32VW55x_RELEASE_V1.0.2/MSDK/lwip/lwip-2.1.2/src/core/ipv4\etharp.c ****  * @param ethaddr ethernet address for the new static entry
 503:C:/Users/stapi/OneDrive/Desktop/GD32VW553/V1_MQTT_OK/GD32VW55X_Wifi_BLE_SDK/GD32VW55x_RELEASE_V1.0.2/MSDK/lwip/lwip-2.1.2/src/core/ipv4\etharp.c ****  * @return See return values of etharp_add_static_entry
 504:C:/Users/stapi/OneDrive/Desktop/GD32VW553/V1_MQTT_OK/GD32VW55X_Wifi_BLE_SDK/GD32VW55x_RELEASE_V1.0.2/MSDK/lwip/lwip-2.1.2/src/core/ipv4\etharp.c ****  */
 505:C:/Users/stapi/OneDrive/Desktop/GD32VW553/V1_MQTT_OK/GD32VW55X_Wifi_BLE_SDK/GD32VW55x_RELEASE_V1.0.2/MSDK/lwip/lwip-2.1.2/src/core/ipv4\etharp.c **** err_t
 506:C:/Users/stapi/OneDrive/Desktop/GD32VW553/V1_MQTT_OK/GD32VW55X_Wifi_BLE_SDK/GD32VW55x_RELEASE_V1.0.2/MSDK/lwip/lwip-2.1.2/src/core/ipv4\etharp.c **** etharp_add_static_entry(const ip4_addr_t *ipaddr, struct eth_addr *ethaddr)
 507:C:/Users/stapi/OneDrive/Desktop/GD32VW553/V1_MQTT_OK/GD32VW55X_Wifi_BLE_SDK/GD32VW55x_RELEASE_V1.0.2/MSDK/lwip/lwip-2.1.2/src/core/ipv4\etharp.c **** {
 508:C:/Users/stapi/OneDrive/Desktop/GD32VW553/V1_MQTT_OK/GD32VW55X_Wifi_BLE_SDK/GD32VW55x_RELEASE_V1.0.2/MSDK/lwip/lwip-2.1.2/src/core/ipv4\etharp.c ****   struct netif *netif;
 509:C:/Users/stapi/OneDrive/Desktop/GD32VW553/V1_MQTT_OK/GD32VW55X_Wifi_BLE_SDK/GD32VW55x_RELEASE_V1.0.2/MSDK/lwip/lwip-2.1.2/src/core/ipv4\etharp.c ****   LWIP_ASSERT_CORE_LOCKED();
 510:C:/Users/stapi/OneDrive/Desktop/GD32VW553/V1_MQTT_OK/GD32VW55X_Wifi_BLE_SDK/GD32VW55x_RELEASE_V1.0.2/MSDK/lwip/lwip-2.1.2/src/core/ipv4\etharp.c ****   LWIP_DEBUGF(ETHARP_DEBUG | LWIP_DBG_TRACE, ("etharp_add_static_entry: %"U16_F".%"U16_F".%"U16_F".
 511:C:/Users/stapi/OneDrive/Desktop/GD32VW553/V1_MQTT_OK/GD32VW55X_Wifi_BLE_SDK/GD32VW55x_RELEASE_V1.0.2/MSDK/lwip/lwip-2.1.2/src/core/ipv4\etharp.c ****               ip4_addr1_16(ipaddr), ip4_addr2_16(ipaddr), ip4_addr3_16(ipaddr), ip4_addr4_16(ipaddr
 512:C:/Users/stapi/OneDrive/Desktop/GD32VW553/V1_MQTT_OK/GD32VW55X_Wifi_BLE_SDK/GD32VW55x_RELEASE_V1.0.2/MSDK/lwip/lwip-2.1.2/src/core/ipv4\etharp.c ****               (u16_t)ethaddr->addr[0], (u16_t)ethaddr->addr[1], (u16_t)ethaddr->addr[2],
 513:C:/Users/stapi/OneDrive/Desktop/GD32VW553/V1_MQTT_OK/GD32VW55X_Wifi_BLE_SDK/GD32VW55x_RELEASE_V1.0.2/MSDK/lwip/lwip-2.1.2/src/core/ipv4\etharp.c ****               (u16_t)ethaddr->addr[3], (u16_t)ethaddr->addr[4], (u16_t)ethaddr->addr[5]));
 514:C:/Users/stapi/OneDrive/Desktop/GD32VW553/V1_MQTT_OK/GD32VW55X_Wifi_BLE_SDK/GD32VW55x_RELEASE_V1.0.2/MSDK/lwip/lwip-2.1.2/src/core/ipv4\etharp.c **** 
 515:C:/Users/stapi/OneDrive/Desktop/GD32VW553/V1_MQTT_OK/GD32VW55X_Wifi_BLE_SDK/GD32VW55x_RELEASE_V1.0.2/MSDK/lwip/lwip-2.1.2/src/core/ipv4\etharp.c ****   netif = ip4_route(ipaddr);
 516:C:/Users/stapi/OneDrive/Desktop/GD32VW553/V1_MQTT_OK/GD32VW55X_Wifi_BLE_SDK/GD32VW55x_RELEASE_V1.0.2/MSDK/lwip/lwip-2.1.2/src/core/ipv4\etharp.c ****   if (netif == NULL) {
 517:C:/Users/stapi/OneDrive/Desktop/GD32VW553/V1_MQTT_OK/GD32VW55X_Wifi_BLE_SDK/GD32VW55x_RELEASE_V1.0.2/MSDK/lwip/lwip-2.1.2/src/core/ipv4\etharp.c ****     return ERR_RTE;
 518:C:/Users/stapi/OneDrive/Desktop/GD32VW553/V1_MQTT_OK/GD32VW55X_Wifi_BLE_SDK/GD32VW55x_RELEASE_V1.0.2/MSDK/lwip/lwip-2.1.2/src/core/ipv4\etharp.c ****   }
 519:C:/Users/stapi/OneDrive/Desktop/GD32VW553/V1_MQTT_OK/GD32VW55X_Wifi_BLE_SDK/GD32VW55x_RELEASE_V1.0.2/MSDK/lwip/lwip-2.1.2/src/core/ipv4\etharp.c **** 
 520:C:/Users/stapi/OneDrive/Desktop/GD32VW553/V1_MQTT_OK/GD32VW55X_Wifi_BLE_SDK/GD32VW55x_RELEASE_V1.0.2/MSDK/lwip/lwip-2.1.2/src/core/ipv4\etharp.c ****   return etharp_update_arp_entry(netif, ipaddr, ethaddr, ETHARP_FLAG_TRY_HARD | ETHARP_FLAG_STATIC_
 521:C:/Users/stapi/OneDrive/Desktop/GD32VW553/V1_MQTT_OK/GD32VW55X_Wifi_BLE_SDK/GD32VW55x_RELEASE_V1.0.2/MSDK/lwip/lwip-2.1.2/src/core/ipv4\etharp.c **** }
 522:C:/Users/stapi/OneDrive/Desktop/GD32VW553/V1_MQTT_OK/GD32VW55X_Wifi_BLE_SDK/GD32VW55x_RELEASE_V1.0.2/MSDK/lwip/lwip-2.1.2/src/core/ipv4\etharp.c **** 
 523:C:/Users/stapi/OneDrive/Desktop/GD32VW553/V1_MQTT_OK/GD32VW55X_Wifi_BLE_SDK/GD32VW55x_RELEASE_V1.0.2/MSDK/lwip/lwip-2.1.2/src/core/ipv4\etharp.c **** /** Remove a static entry from the ARP table previously added with a call to
 524:C:/Users/stapi/OneDrive/Desktop/GD32VW553/V1_MQTT_OK/GD32VW55X_Wifi_BLE_SDK/GD32VW55x_RELEASE_V1.0.2/MSDK/lwip/lwip-2.1.2/src/core/ipv4\etharp.c ****  * etharp_add_static_entry.
 525:C:/Users/stapi/OneDrive/Desktop/GD32VW553/V1_MQTT_OK/GD32VW55X_Wifi_BLE_SDK/GD32VW55x_RELEASE_V1.0.2/MSDK/lwip/lwip-2.1.2/src/core/ipv4\etharp.c ****  *
 526:C:/Users/stapi/OneDrive/Desktop/GD32VW553/V1_MQTT_OK/GD32VW55X_Wifi_BLE_SDK/GD32VW55x_RELEASE_V1.0.2/MSDK/lwip/lwip-2.1.2/src/core/ipv4\etharp.c ****  * @param ipaddr IP address of the static entry to remove
 527:C:/Users/stapi/OneDrive/Desktop/GD32VW553/V1_MQTT_OK/GD32VW55X_Wifi_BLE_SDK/GD32VW55x_RELEASE_V1.0.2/MSDK/lwip/lwip-2.1.2/src/core/ipv4\etharp.c ****  * @return ERR_OK: entry removed
 528:C:/Users/stapi/OneDrive/Desktop/GD32VW553/V1_MQTT_OK/GD32VW55X_Wifi_BLE_SDK/GD32VW55x_RELEASE_V1.0.2/MSDK/lwip/lwip-2.1.2/src/core/ipv4\etharp.c ****  *         ERR_MEM: entry wasn't found
 529:C:/Users/stapi/OneDrive/Desktop/GD32VW553/V1_MQTT_OK/GD32VW55X_Wifi_BLE_SDK/GD32VW55x_RELEASE_V1.0.2/MSDK/lwip/lwip-2.1.2/src/core/ipv4\etharp.c ****  *         ERR_ARG: entry wasn't a static entry but a dynamic one
 530:C:/Users/stapi/OneDrive/Desktop/GD32VW553/V1_MQTT_OK/GD32VW55X_Wifi_BLE_SDK/GD32VW55x_RELEASE_V1.0.2/MSDK/lwip/lwip-2.1.2/src/core/ipv4\etharp.c ****  */
 531:C:/Users/stapi/OneDrive/Desktop/GD32VW553/V1_MQTT_OK/GD32VW55X_Wifi_BLE_SDK/GD32VW55x_RELEASE_V1.0.2/MSDK/lwip/lwip-2.1.2/src/core/ipv4\etharp.c **** err_t
 532:C:/Users/stapi/OneDrive/Desktop/GD32VW553/V1_MQTT_OK/GD32VW55X_Wifi_BLE_SDK/GD32VW55x_RELEASE_V1.0.2/MSDK/lwip/lwip-2.1.2/src/core/ipv4\etharp.c **** etharp_remove_static_entry(const ip4_addr_t *ipaddr)
 533:C:/Users/stapi/OneDrive/Desktop/GD32VW553/V1_MQTT_OK/GD32VW55X_Wifi_BLE_SDK/GD32VW55x_RELEASE_V1.0.2/MSDK/lwip/lwip-2.1.2/src/core/ipv4\etharp.c **** {
 534:C:/Users/stapi/OneDrive/Desktop/GD32VW553/V1_MQTT_OK/GD32VW55X_Wifi_BLE_SDK/GD32VW55x_RELEASE_V1.0.2/MSDK/lwip/lwip-2.1.2/src/core/ipv4\etharp.c ****   s16_t i;
 535:C:/Users/stapi/OneDrive/Desktop/GD32VW553/V1_MQTT_OK/GD32VW55X_Wifi_BLE_SDK/GD32VW55x_RELEASE_V1.0.2/MSDK/lwip/lwip-2.1.2/src/core/ipv4\etharp.c ****   LWIP_ASSERT_CORE_LOCKED();
 536:C:/Users/stapi/OneDrive/Desktop/GD32VW553/V1_MQTT_OK/GD32VW55X_Wifi_BLE_SDK/GD32VW55x_RELEASE_V1.0.2/MSDK/lwip/lwip-2.1.2/src/core/ipv4\etharp.c ****   LWIP_DEBUGF(ETHARP_DEBUG | LWIP_DBG_TRACE, ("etharp_remove_static_entry: %"U16_F".%"U16_F".%"U16_
 537:C:/Users/stapi/OneDrive/Desktop/GD32VW553/V1_MQTT_OK/GD32VW55X_Wifi_BLE_SDK/GD32VW55x_RELEASE_V1.0.2/MSDK/lwip/lwip-2.1.2/src/core/ipv4\etharp.c ****               ip4_addr1_16(ipaddr), ip4_addr2_16(ipaddr), ip4_addr3_16(ipaddr), ip4_addr4_16(ipaddr
 538:C:/Users/stapi/OneDrive/Desktop/GD32VW553/V1_MQTT_OK/GD32VW55X_Wifi_BLE_SDK/GD32VW55x_RELEASE_V1.0.2/MSDK/lwip/lwip-2.1.2/src/core/ipv4\etharp.c **** 
 539:C:/Users/stapi/OneDrive/Desktop/GD32VW553/V1_MQTT_OK/GD32VW55X_Wifi_BLE_SDK/GD32VW55x_RELEASE_V1.0.2/MSDK/lwip/lwip-2.1.2/src/core/ipv4\etharp.c ****   /* find or create ARP entry */
 540:C:/Users/stapi/OneDrive/Desktop/GD32VW553/V1_MQTT_OK/GD32VW55X_Wifi_BLE_SDK/GD32VW55x_RELEASE_V1.0.2/MSDK/lwip/lwip-2.1.2/src/core/ipv4\etharp.c ****   i = etharp_find_entry(ipaddr, ETHARP_FLAG_FIND_ONLY, NULL);
 541:C:/Users/stapi/OneDrive/Desktop/GD32VW553/V1_MQTT_OK/GD32VW55X_Wifi_BLE_SDK/GD32VW55x_RELEASE_V1.0.2/MSDK/lwip/lwip-2.1.2/src/core/ipv4\etharp.c ****   /* bail out if no entry could be found */
 542:C:/Users/stapi/OneDrive/Desktop/GD32VW553/V1_MQTT_OK/GD32VW55X_Wifi_BLE_SDK/GD32VW55x_RELEASE_V1.0.2/MSDK/lwip/lwip-2.1.2/src/core/ipv4\etharp.c ****   if (i < 0) {
 543:C:/Users/stapi/OneDrive/Desktop/GD32VW553/V1_MQTT_OK/GD32VW55X_Wifi_BLE_SDK/GD32VW55x_RELEASE_V1.0.2/MSDK/lwip/lwip-2.1.2/src/core/ipv4\etharp.c ****     return (err_t)i;
 544:C:/Users/stapi/OneDrive/Desktop/GD32VW553/V1_MQTT_OK/GD32VW55X_Wifi_BLE_SDK/GD32VW55x_RELEASE_V1.0.2/MSDK/lwip/lwip-2.1.2/src/core/ipv4\etharp.c ****   }
 545:C:/Users/stapi/OneDrive/Desktop/GD32VW553/V1_MQTT_OK/GD32VW55X_Wifi_BLE_SDK/GD32VW55x_RELEASE_V1.0.2/MSDK/lwip/lwip-2.1.2/src/core/ipv4\etharp.c **** 
 546:C:/Users/stapi/OneDrive/Desktop/GD32VW553/V1_MQTT_OK/GD32VW55X_Wifi_BLE_SDK/GD32VW55x_RELEASE_V1.0.2/MSDK/lwip/lwip-2.1.2/src/core/ipv4\etharp.c ****   if (arp_table[i].state != ETHARP_STATE_STATIC) {
 547:C:/Users/stapi/OneDrive/Desktop/GD32VW553/V1_MQTT_OK/GD32VW55X_Wifi_BLE_SDK/GD32VW55x_RELEASE_V1.0.2/MSDK/lwip/lwip-2.1.2/src/core/ipv4\etharp.c ****     /* entry wasn't a static entry, cannot remove it */
 548:C:/Users/stapi/OneDrive/Desktop/GD32VW553/V1_MQTT_OK/GD32VW55X_Wifi_BLE_SDK/GD32VW55x_RELEASE_V1.0.2/MSDK/lwip/lwip-2.1.2/src/core/ipv4\etharp.c ****     return ERR_ARG;
 549:C:/Users/stapi/OneDrive/Desktop/GD32VW553/V1_MQTT_OK/GD32VW55X_Wifi_BLE_SDK/GD32VW55x_RELEASE_V1.0.2/MSDK/lwip/lwip-2.1.2/src/core/ipv4\etharp.c ****   }
 550:C:/Users/stapi/OneDrive/Desktop/GD32VW553/V1_MQTT_OK/GD32VW55X_Wifi_BLE_SDK/GD32VW55x_RELEASE_V1.0.2/MSDK/lwip/lwip-2.1.2/src/core/ipv4\etharp.c ****   /* entry found, free it */
 551:C:/Users/stapi/OneDrive/Desktop/GD32VW553/V1_MQTT_OK/GD32VW55X_Wifi_BLE_SDK/GD32VW55x_RELEASE_V1.0.2/MSDK/lwip/lwip-2.1.2/src/core/ipv4\etharp.c ****   etharp_free_entry(i);
 552:C:/Users/stapi/OneDrive/Desktop/GD32VW553/V1_MQTT_OK/GD32VW55X_Wifi_BLE_SDK/GD32VW55x_RELEASE_V1.0.2/MSDK/lwip/lwip-2.1.2/src/core/ipv4\etharp.c ****   return ERR_OK;
 553:C:/Users/stapi/OneDrive/Desktop/GD32VW553/V1_MQTT_OK/GD32VW55X_Wifi_BLE_SDK/GD32VW55x_RELEASE_V1.0.2/MSDK/lwip/lwip-2.1.2/src/core/ipv4\etharp.c **** }
 554:C:/Users/stapi/OneDrive/Desktop/GD32VW553/V1_MQTT_OK/GD32VW55X_Wifi_BLE_SDK/GD32VW55x_RELEASE_V1.0.2/MSDK/lwip/lwip-2.1.2/src/core/ipv4\etharp.c **** #endif /* ETHARP_SUPPORT_STATIC_ENTRIES */
 555:C:/Users/stapi/OneDrive/Desktop/GD32VW553/V1_MQTT_OK/GD32VW55X_Wifi_BLE_SDK/GD32VW55x_RELEASE_V1.0.2/MSDK/lwip/lwip-2.1.2/src/core/ipv4\etharp.c **** 
 556:C:/Users/stapi/OneDrive/Desktop/GD32VW553/V1_MQTT_OK/GD32VW55X_Wifi_BLE_SDK/GD32VW55x_RELEASE_V1.0.2/MSDK/lwip/lwip-2.1.2/src/core/ipv4\etharp.c **** /**
 557:C:/Users/stapi/OneDrive/Desktop/GD32VW553/V1_MQTT_OK/GD32VW55X_Wifi_BLE_SDK/GD32VW55x_RELEASE_V1.0.2/MSDK/lwip/lwip-2.1.2/src/core/ipv4\etharp.c ****  * Remove all ARP table entries of the specified netif.
 558:C:/Users/stapi/OneDrive/Desktop/GD32VW553/V1_MQTT_OK/GD32VW55X_Wifi_BLE_SDK/GD32VW55x_RELEASE_V1.0.2/MSDK/lwip/lwip-2.1.2/src/core/ipv4\etharp.c ****  *
 559:C:/Users/stapi/OneDrive/Desktop/GD32VW553/V1_MQTT_OK/GD32VW55X_Wifi_BLE_SDK/GD32VW55x_RELEASE_V1.0.2/MSDK/lwip/lwip-2.1.2/src/core/ipv4\etharp.c ****  * @param netif points to a network interface
 560:C:/Users/stapi/OneDrive/Desktop/GD32VW553/V1_MQTT_OK/GD32VW55X_Wifi_BLE_SDK/GD32VW55x_RELEASE_V1.0.2/MSDK/lwip/lwip-2.1.2/src/core/ipv4\etharp.c ****  */
 561:C:/Users/stapi/OneDrive/Desktop/GD32VW553/V1_MQTT_OK/GD32VW55X_Wifi_BLE_SDK/GD32VW55x_RELEASE_V1.0.2/MSDK/lwip/lwip-2.1.2/src/core/ipv4\etharp.c **** void
 562:C:/Users/stapi/OneDrive/Desktop/GD32VW553/V1_MQTT_OK/GD32VW55X_Wifi_BLE_SDK/GD32VW55x_RELEASE_V1.0.2/MSDK/lwip/lwip-2.1.2/src/core/ipv4\etharp.c **** etharp_cleanup_netif(struct netif *netif)
 563:C:/Users/stapi/OneDrive/Desktop/GD32VW553/V1_MQTT_OK/GD32VW55X_Wifi_BLE_SDK/GD32VW55x_RELEASE_V1.0.2/MSDK/lwip/lwip-2.1.2/src/core/ipv4\etharp.c **** {
 564:C:/Users/stapi/OneDrive/Desktop/GD32VW553/V1_MQTT_OK/GD32VW55X_Wifi_BLE_SDK/GD32VW55x_RELEASE_V1.0.2/MSDK/lwip/lwip-2.1.2/src/core/ipv4\etharp.c ****   int i;
 565:C:/Users/stapi/OneDrive/Desktop/GD32VW553/V1_MQTT_OK/GD32VW55X_Wifi_BLE_SDK/GD32VW55x_RELEASE_V1.0.2/MSDK/lwip/lwip-2.1.2/src/core/ipv4\etharp.c **** 
 566:C:/Users/stapi/OneDrive/Desktop/GD32VW553/V1_MQTT_OK/GD32VW55X_Wifi_BLE_SDK/GD32VW55x_RELEASE_V1.0.2/MSDK/lwip/lwip-2.1.2/src/core/ipv4\etharp.c ****   for (i = 0; i < ARP_TABLE_SIZE; ++i) {
 567:C:/Users/stapi/OneDrive/Desktop/GD32VW553/V1_MQTT_OK/GD32VW55X_Wifi_BLE_SDK/GD32VW55x_RELEASE_V1.0.2/MSDK/lwip/lwip-2.1.2/src/core/ipv4\etharp.c ****     u8_t state = arp_table[i].state;
 568:C:/Users/stapi/OneDrive/Desktop/GD32VW553/V1_MQTT_OK/GD32VW55X_Wifi_BLE_SDK/GD32VW55x_RELEASE_V1.0.2/MSDK/lwip/lwip-2.1.2/src/core/ipv4\etharp.c ****     if ((state != ETHARP_STATE_EMPTY) && (arp_table[i].netif == netif)) {
 569:C:/Users/stapi/OneDrive/Desktop/GD32VW553/V1_MQTT_OK/GD32VW55X_Wifi_BLE_SDK/GD32VW55x_RELEASE_V1.0.2/MSDK/lwip/lwip-2.1.2/src/core/ipv4\etharp.c ****       etharp_free_entry(i);
 570:C:/Users/stapi/OneDrive/Desktop/GD32VW553/V1_MQTT_OK/GD32VW55X_Wifi_BLE_SDK/GD32VW55x_RELEASE_V1.0.2/MSDK/lwip/lwip-2.1.2/src/core/ipv4\etharp.c ****     }
 571:C:/Users/stapi/OneDrive/Desktop/GD32VW553/V1_MQTT_OK/GD32VW55X_Wifi_BLE_SDK/GD32VW55x_RELEASE_V1.0.2/MSDK/lwip/lwip-2.1.2/src/core/ipv4\etharp.c ****   }
 572:C:/Users/stapi/OneDrive/Desktop/GD32VW553/V1_MQTT_OK/GD32VW55X_Wifi_BLE_SDK/GD32VW55x_RELEASE_V1.0.2/MSDK/lwip/lwip-2.1.2/src/core/ipv4\etharp.c **** }
 573:C:/Users/stapi/OneDrive/Desktop/GD32VW553/V1_MQTT_OK/GD32VW55X_Wifi_BLE_SDK/GD32VW55x_RELEASE_V1.0.2/MSDK/lwip/lwip-2.1.2/src/core/ipv4\etharp.c **** /* FT TAG */
 574:C:/Users/stapi/OneDrive/Desktop/GD32VW553/V1_MQTT_OK/GD32VW55X_Wifi_BLE_SDK/GD32VW55x_RELEASE_V1.0.2/MSDK/lwip/lwip-2.1.2/src/core/ipv4\etharp.c **** void etharp_entry_dump(void)
 575:C:/Users/stapi/OneDrive/Desktop/GD32VW553/V1_MQTT_OK/GD32VW55X_Wifi_BLE_SDK/GD32VW55x_RELEASE_V1.0.2/MSDK/lwip/lwip-2.1.2/src/core/ipv4\etharp.c **** {
 576:C:/Users/stapi/OneDrive/Desktop/GD32VW553/V1_MQTT_OK/GD32VW55X_Wifi_BLE_SDK/GD32VW55x_RELEASE_V1.0.2/MSDK/lwip/lwip-2.1.2/src/core/ipv4\etharp.c ****   int i;
 577:C:/Users/stapi/OneDrive/Desktop/GD32VW553/V1_MQTT_OK/GD32VW55X_Wifi_BLE_SDK/GD32VW55x_RELEASE_V1.0.2/MSDK/lwip/lwip-2.1.2/src/core/ipv4\etharp.c ****   char *state_str = NULL;
 578:C:/Users/stapi/OneDrive/Desktop/GD32VW553/V1_MQTT_OK/GD32VW55X_Wifi_BLE_SDK/GD32VW55x_RELEASE_V1.0.2/MSDK/lwip/lwip-2.1.2/src/core/ipv4\etharp.c **** 
 579:C:/Users/stapi/OneDrive/Desktop/GD32VW553/V1_MQTT_OK/GD32VW55X_Wifi_BLE_SDK/GD32VW55x_RELEASE_V1.0.2/MSDK/lwip/lwip-2.1.2/src/core/ipv4\etharp.c ****   for (i = 0; i < ARP_TABLE_SIZE; ++i) {
 580:C:/Users/stapi/OneDrive/Desktop/GD32VW553/V1_MQTT_OK/GD32VW55X_Wifi_BLE_SDK/GD32VW55x_RELEASE_V1.0.2/MSDK/lwip/lwip-2.1.2/src/core/ipv4\etharp.c ****     struct etharp_entry *entry = &arp_table[i];
 581:C:/Users/stapi/OneDrive/Desktop/GD32VW553/V1_MQTT_OK/GD32VW55X_Wifi_BLE_SDK/GD32VW55x_RELEASE_V1.0.2/MSDK/lwip/lwip-2.1.2/src/core/ipv4\etharp.c ****     switch(entry->state) {
 582:C:/Users/stapi/OneDrive/Desktop/GD32VW553/V1_MQTT_OK/GD32VW55X_Wifi_BLE_SDK/GD32VW55x_RELEASE_V1.0.2/MSDK/lwip/lwip-2.1.2/src/core/ipv4\etharp.c ****         case ETHARP_STATE_EMPTY:
 583:C:/Users/stapi/OneDrive/Desktop/GD32VW553/V1_MQTT_OK/GD32VW55X_Wifi_BLE_SDK/GD32VW55x_RELEASE_V1.0.2/MSDK/lwip/lwip-2.1.2/src/core/ipv4\etharp.c ****             state_str = "empty";
 584:C:/Users/stapi/OneDrive/Desktop/GD32VW553/V1_MQTT_OK/GD32VW55X_Wifi_BLE_SDK/GD32VW55x_RELEASE_V1.0.2/MSDK/lwip/lwip-2.1.2/src/core/ipv4\etharp.c ****             break;
 585:C:/Users/stapi/OneDrive/Desktop/GD32VW553/V1_MQTT_OK/GD32VW55X_Wifi_BLE_SDK/GD32VW55x_RELEASE_V1.0.2/MSDK/lwip/lwip-2.1.2/src/core/ipv4\etharp.c ****         case ETHARP_STATE_PENDING:
 586:C:/Users/stapi/OneDrive/Desktop/GD32VW553/V1_MQTT_OK/GD32VW55X_Wifi_BLE_SDK/GD32VW55x_RELEASE_V1.0.2/MSDK/lwip/lwip-2.1.2/src/core/ipv4\etharp.c ****             state_str = "pending";
 587:C:/Users/stapi/OneDrive/Desktop/GD32VW553/V1_MQTT_OK/GD32VW55X_Wifi_BLE_SDK/GD32VW55x_RELEASE_V1.0.2/MSDK/lwip/lwip-2.1.2/src/core/ipv4\etharp.c ****             break;
 588:C:/Users/stapi/OneDrive/Desktop/GD32VW553/V1_MQTT_OK/GD32VW55X_Wifi_BLE_SDK/GD32VW55x_RELEASE_V1.0.2/MSDK/lwip/lwip-2.1.2/src/core/ipv4\etharp.c ****         case ETHARP_STATE_STABLE:
 589:C:/Users/stapi/OneDrive/Desktop/GD32VW553/V1_MQTT_OK/GD32VW55X_Wifi_BLE_SDK/GD32VW55x_RELEASE_V1.0.2/MSDK/lwip/lwip-2.1.2/src/core/ipv4\etharp.c ****             state_str = "stable";
 590:C:/Users/stapi/OneDrive/Desktop/GD32VW553/V1_MQTT_OK/GD32VW55X_Wifi_BLE_SDK/GD32VW55x_RELEASE_V1.0.2/MSDK/lwip/lwip-2.1.2/src/core/ipv4\etharp.c ****             break;
 591:C:/Users/stapi/OneDrive/Desktop/GD32VW553/V1_MQTT_OK/GD32VW55X_Wifi_BLE_SDK/GD32VW55x_RELEASE_V1.0.2/MSDK/lwip/lwip-2.1.2/src/core/ipv4\etharp.c ****         case ETHARP_STATE_STABLE_REREQUESTING_1:
 592:C:/Users/stapi/OneDrive/Desktop/GD32VW553/V1_MQTT_OK/GD32VW55X_Wifi_BLE_SDK/GD32VW55x_RELEASE_V1.0.2/MSDK/lwip/lwip-2.1.2/src/core/ipv4\etharp.c ****             state_str = "stable_req1";
 593:C:/Users/stapi/OneDrive/Desktop/GD32VW553/V1_MQTT_OK/GD32VW55X_Wifi_BLE_SDK/GD32VW55x_RELEASE_V1.0.2/MSDK/lwip/lwip-2.1.2/src/core/ipv4\etharp.c ****             break;
 594:C:/Users/stapi/OneDrive/Desktop/GD32VW553/V1_MQTT_OK/GD32VW55X_Wifi_BLE_SDK/GD32VW55x_RELEASE_V1.0.2/MSDK/lwip/lwip-2.1.2/src/core/ipv4\etharp.c ****         case ETHARP_STATE_STABLE_REREQUESTING_2:
 595:C:/Users/stapi/OneDrive/Desktop/GD32VW553/V1_MQTT_OK/GD32VW55X_Wifi_BLE_SDK/GD32VW55x_RELEASE_V1.0.2/MSDK/lwip/lwip-2.1.2/src/core/ipv4\etharp.c ****             state_str = "stable_req2";
 596:C:/Users/stapi/OneDrive/Desktop/GD32VW553/V1_MQTT_OK/GD32VW55X_Wifi_BLE_SDK/GD32VW55x_RELEASE_V1.0.2/MSDK/lwip/lwip-2.1.2/src/core/ipv4\etharp.c ****             break;
 597:C:/Users/stapi/OneDrive/Desktop/GD32VW553/V1_MQTT_OK/GD32VW55X_Wifi_BLE_SDK/GD32VW55x_RELEASE_V1.0.2/MSDK/lwip/lwip-2.1.2/src/core/ipv4\etharp.c **** #if ETHARP_SUPPORT_STATIC_ENTRIES
 598:C:/Users/stapi/OneDrive/Desktop/GD32VW553/V1_MQTT_OK/GD32VW55X_Wifi_BLE_SDK/GD32VW55x_RELEASE_V1.0.2/MSDK/lwip/lwip-2.1.2/src/core/ipv4\etharp.c ****         case ETHARP_STATE_STATIC:
 599:C:/Users/stapi/OneDrive/Desktop/GD32VW553/V1_MQTT_OK/GD32VW55X_Wifi_BLE_SDK/GD32VW55x_RELEASE_V1.0.2/MSDK/lwip/lwip-2.1.2/src/core/ipv4\etharp.c ****             state_str = "static";
 600:C:/Users/stapi/OneDrive/Desktop/GD32VW553/V1_MQTT_OK/GD32VW55X_Wifi_BLE_SDK/GD32VW55x_RELEASE_V1.0.2/MSDK/lwip/lwip-2.1.2/src/core/ipv4\etharp.c ****             break;
 601:C:/Users/stapi/OneDrive/Desktop/GD32VW553/V1_MQTT_OK/GD32VW55X_Wifi_BLE_SDK/GD32VW55x_RELEASE_V1.0.2/MSDK/lwip/lwip-2.1.2/src/core/ipv4\etharp.c **** #endif
 602:C:/Users/stapi/OneDrive/Desktop/GD32VW553/V1_MQTT_OK/GD32VW55X_Wifi_BLE_SDK/GD32VW55x_RELEASE_V1.0.2/MSDK/lwip/lwip-2.1.2/src/core/ipv4\etharp.c ****         default:
 603:C:/Users/stapi/OneDrive/Desktop/GD32VW553/V1_MQTT_OK/GD32VW55X_Wifi_BLE_SDK/GD32VW55x_RELEASE_V1.0.2/MSDK/lwip/lwip-2.1.2/src/core/ipv4\etharp.c ****             state_str = "Unknown";
 604:C:/Users/stapi/OneDrive/Desktop/GD32VW553/V1_MQTT_OK/GD32VW55X_Wifi_BLE_SDK/GD32VW55x_RELEASE_V1.0.2/MSDK/lwip/lwip-2.1.2/src/core/ipv4\etharp.c ****             break;
 605:C:/Users/stapi/OneDrive/Desktop/GD32VW553/V1_MQTT_OK/GD32VW55X_Wifi_BLE_SDK/GD32VW55x_RELEASE_V1.0.2/MSDK/lwip/lwip-2.1.2/src/core/ipv4\etharp.c ****     }
 606:C:/Users/stapi/OneDrive/Desktop/GD32VW553/V1_MQTT_OK/GD32VW55X_Wifi_BLE_SDK/GD32VW55x_RELEASE_V1.0.2/MSDK/lwip/lwip-2.1.2/src/core/ipv4\etharp.c ****     printf("\t[%d]: %s, "IP_FMT", "MAC_FMT", ctime %d, netif %p\r\n",
 607:C:/Users/stapi/OneDrive/Desktop/GD32VW553/V1_MQTT_OK/GD32VW55X_Wifi_BLE_SDK/GD32VW55x_RELEASE_V1.0.2/MSDK/lwip/lwip-2.1.2/src/core/ipv4\etharp.c ****                 i, state_str,
 608:C:/Users/stapi/OneDrive/Desktop/GD32VW553/V1_MQTT_OK/GD32VW55X_Wifi_BLE_SDK/GD32VW55x_RELEASE_V1.0.2/MSDK/lwip/lwip-2.1.2/src/core/ipv4\etharp.c ****                 IP_ARG(entry->ipaddr.addr),
 609:C:/Users/stapi/OneDrive/Desktop/GD32VW553/V1_MQTT_OK/GD32VW55X_Wifi_BLE_SDK/GD32VW55x_RELEASE_V1.0.2/MSDK/lwip/lwip-2.1.2/src/core/ipv4\etharp.c ****                 MAC_ARG_UINT8(entry->ethaddr.addr),
 610:C:/Users/stapi/OneDrive/Desktop/GD32VW553/V1_MQTT_OK/GD32VW55X_Wifi_BLE_SDK/GD32VW55x_RELEASE_V1.0.2/MSDK/lwip/lwip-2.1.2/src/core/ipv4\etharp.c ****                 entry->ctime,
 611:C:/Users/stapi/OneDrive/Desktop/GD32VW553/V1_MQTT_OK/GD32VW55X_Wifi_BLE_SDK/GD32VW55x_RELEASE_V1.0.2/MSDK/lwip/lwip-2.1.2/src/core/ipv4\etharp.c ****                 entry->netif);
 612:C:/Users/stapi/OneDrive/Desktop/GD32VW553/V1_MQTT_OK/GD32VW55X_Wifi_BLE_SDK/GD32VW55x_RELEASE_V1.0.2/MSDK/lwip/lwip-2.1.2/src/core/ipv4\etharp.c ****   }
 613:C:/Users/stapi/OneDrive/Desktop/GD32VW553/V1_MQTT_OK/GD32VW55X_Wifi_BLE_SDK/GD32VW55x_RELEASE_V1.0.2/MSDK/lwip/lwip-2.1.2/src/core/ipv4\etharp.c **** }
 614:C:/Users/stapi/OneDrive/Desktop/GD32VW553/V1_MQTT_OK/GD32VW55X_Wifi_BLE_SDK/GD32VW55x_RELEASE_V1.0.2/MSDK/lwip/lwip-2.1.2/src/core/ipv4\etharp.c **** /* FT TAG */
 615:C:/Users/stapi/OneDrive/Desktop/GD32VW553/V1_MQTT_OK/GD32VW55X_Wifi_BLE_SDK/GD32VW55x_RELEASE_V1.0.2/MSDK/lwip/lwip-2.1.2/src/core/ipv4\etharp.c **** /**
 616:C:/Users/stapi/OneDrive/Desktop/GD32VW553/V1_MQTT_OK/GD32VW55X_Wifi_BLE_SDK/GD32VW55x_RELEASE_V1.0.2/MSDK/lwip/lwip-2.1.2/src/core/ipv4\etharp.c ****  * Finds (stable) ethernet/IP address pair from ARP table
 617:C:/Users/stapi/OneDrive/Desktop/GD32VW553/V1_MQTT_OK/GD32VW55X_Wifi_BLE_SDK/GD32VW55x_RELEASE_V1.0.2/MSDK/lwip/lwip-2.1.2/src/core/ipv4\etharp.c ****  * using interface and IP address index.
 618:C:/Users/stapi/OneDrive/Desktop/GD32VW553/V1_MQTT_OK/GD32VW55X_Wifi_BLE_SDK/GD32VW55x_RELEASE_V1.0.2/MSDK/lwip/lwip-2.1.2/src/core/ipv4\etharp.c ****  * @note the addresses in the ARP table are in network order!
 619:C:/Users/stapi/OneDrive/Desktop/GD32VW553/V1_MQTT_OK/GD32VW55X_Wifi_BLE_SDK/GD32VW55x_RELEASE_V1.0.2/MSDK/lwip/lwip-2.1.2/src/core/ipv4\etharp.c ****  *
 620:C:/Users/stapi/OneDrive/Desktop/GD32VW553/V1_MQTT_OK/GD32VW55X_Wifi_BLE_SDK/GD32VW55x_RELEASE_V1.0.2/MSDK/lwip/lwip-2.1.2/src/core/ipv4\etharp.c ****  * @param netif points to interface index
 621:C:/Users/stapi/OneDrive/Desktop/GD32VW553/V1_MQTT_OK/GD32VW55X_Wifi_BLE_SDK/GD32VW55x_RELEASE_V1.0.2/MSDK/lwip/lwip-2.1.2/src/core/ipv4\etharp.c ****  * @param ipaddr points to the (network order) IP address index
 622:C:/Users/stapi/OneDrive/Desktop/GD32VW553/V1_MQTT_OK/GD32VW55X_Wifi_BLE_SDK/GD32VW55x_RELEASE_V1.0.2/MSDK/lwip/lwip-2.1.2/src/core/ipv4\etharp.c ****  * @param eth_ret points to return pointer
 623:C:/Users/stapi/OneDrive/Desktop/GD32VW553/V1_MQTT_OK/GD32VW55X_Wifi_BLE_SDK/GD32VW55x_RELEASE_V1.0.2/MSDK/lwip/lwip-2.1.2/src/core/ipv4\etharp.c ****  * @param ip_ret points to return pointer
 624:C:/Users/stapi/OneDrive/Desktop/GD32VW553/V1_MQTT_OK/GD32VW55X_Wifi_BLE_SDK/GD32VW55x_RELEASE_V1.0.2/MSDK/lwip/lwip-2.1.2/src/core/ipv4\etharp.c ****  * @return table index if found, -1 otherwise
 625:C:/Users/stapi/OneDrive/Desktop/GD32VW553/V1_MQTT_OK/GD32VW55X_Wifi_BLE_SDK/GD32VW55x_RELEASE_V1.0.2/MSDK/lwip/lwip-2.1.2/src/core/ipv4\etharp.c ****  */
 626:C:/Users/stapi/OneDrive/Desktop/GD32VW553/V1_MQTT_OK/GD32VW55X_Wifi_BLE_SDK/GD32VW55x_RELEASE_V1.0.2/MSDK/lwip/lwip-2.1.2/src/core/ipv4\etharp.c **** ssize_t
 627:C:/Users/stapi/OneDrive/Desktop/GD32VW553/V1_MQTT_OK/GD32VW55X_Wifi_BLE_SDK/GD32VW55x_RELEASE_V1.0.2/MSDK/lwip/lwip-2.1.2/src/core/ipv4\etharp.c **** etharp_find_addr(struct netif *netif, const ip4_addr_t *ipaddr,
 628:C:/Users/stapi/OneDrive/Desktop/GD32VW553/V1_MQTT_OK/GD32VW55X_Wifi_BLE_SDK/GD32VW55x_RELEASE_V1.0.2/MSDK/lwip/lwip-2.1.2/src/core/ipv4\etharp.c ****                  struct eth_addr **eth_ret, const ip4_addr_t **ip_ret)
 629:C:/Users/stapi/OneDrive/Desktop/GD32VW553/V1_MQTT_OK/GD32VW55X_Wifi_BLE_SDK/GD32VW55x_RELEASE_V1.0.2/MSDK/lwip/lwip-2.1.2/src/core/ipv4\etharp.c **** {
 630:C:/Users/stapi/OneDrive/Desktop/GD32VW553/V1_MQTT_OK/GD32VW55X_Wifi_BLE_SDK/GD32VW55x_RELEASE_V1.0.2/MSDK/lwip/lwip-2.1.2/src/core/ipv4\etharp.c ****   s16_t i;
 631:C:/Users/stapi/OneDrive/Desktop/GD32VW553/V1_MQTT_OK/GD32VW55X_Wifi_BLE_SDK/GD32VW55x_RELEASE_V1.0.2/MSDK/lwip/lwip-2.1.2/src/core/ipv4\etharp.c **** 
 632:C:/Users/stapi/OneDrive/Desktop/GD32VW553/V1_MQTT_OK/GD32VW55X_Wifi_BLE_SDK/GD32VW55x_RELEASE_V1.0.2/MSDK/lwip/lwip-2.1.2/src/core/ipv4\etharp.c ****   LWIP_ASSERT("eth_ret != NULL && ip_ret != NULL",
 633:C:/Users/stapi/OneDrive/Desktop/GD32VW553/V1_MQTT_OK/GD32VW55X_Wifi_BLE_SDK/GD32VW55x_RELEASE_V1.0.2/MSDK/lwip/lwip-2.1.2/src/core/ipv4\etharp.c ****               eth_ret != NULL && ip_ret != NULL);
 634:C:/Users/stapi/OneDrive/Desktop/GD32VW553/V1_MQTT_OK/GD32VW55X_Wifi_BLE_SDK/GD32VW55x_RELEASE_V1.0.2/MSDK/lwip/lwip-2.1.2/src/core/ipv4\etharp.c **** 
 635:C:/Users/stapi/OneDrive/Desktop/GD32VW553/V1_MQTT_OK/GD32VW55X_Wifi_BLE_SDK/GD32VW55x_RELEASE_V1.0.2/MSDK/lwip/lwip-2.1.2/src/core/ipv4\etharp.c ****   LWIP_UNUSED_ARG(netif);
 636:C:/Users/stapi/OneDrive/Desktop/GD32VW553/V1_MQTT_OK/GD32VW55X_Wifi_BLE_SDK/GD32VW55x_RELEASE_V1.0.2/MSDK/lwip/lwip-2.1.2/src/core/ipv4\etharp.c **** 
 637:C:/Users/stapi/OneDrive/Desktop/GD32VW553/V1_MQTT_OK/GD32VW55X_Wifi_BLE_SDK/GD32VW55x_RELEASE_V1.0.2/MSDK/lwip/lwip-2.1.2/src/core/ipv4\etharp.c ****   i = etharp_find_entry(ipaddr, ETHARP_FLAG_FIND_ONLY, netif);
 638:C:/Users/stapi/OneDrive/Desktop/GD32VW553/V1_MQTT_OK/GD32VW55X_Wifi_BLE_SDK/GD32VW55x_RELEASE_V1.0.2/MSDK/lwip/lwip-2.1.2/src/core/ipv4\etharp.c ****   if ((i >= 0) && (arp_table[i].state >= ETHARP_STATE_STABLE)) {
 639:C:/Users/stapi/OneDrive/Desktop/GD32VW553/V1_MQTT_OK/GD32VW55X_Wifi_BLE_SDK/GD32VW55x_RELEASE_V1.0.2/MSDK/lwip/lwip-2.1.2/src/core/ipv4\etharp.c ****     *eth_ret = &arp_table[i].ethaddr;
 640:C:/Users/stapi/OneDrive/Desktop/GD32VW553/V1_MQTT_OK/GD32VW55X_Wifi_BLE_SDK/GD32VW55x_RELEASE_V1.0.2/MSDK/lwip/lwip-2.1.2/src/core/ipv4\etharp.c ****     *ip_ret = &arp_table[i].ipaddr;
 641:C:/Users/stapi/OneDrive/Desktop/GD32VW553/V1_MQTT_OK/GD32VW55X_Wifi_BLE_SDK/GD32VW55x_RELEASE_V1.0.2/MSDK/lwip/lwip-2.1.2/src/core/ipv4\etharp.c ****     return i;
 642:C:/Users/stapi/OneDrive/Desktop/GD32VW553/V1_MQTT_OK/GD32VW55X_Wifi_BLE_SDK/GD32VW55x_RELEASE_V1.0.2/MSDK/lwip/lwip-2.1.2/src/core/ipv4\etharp.c ****   }
 643:C:/Users/stapi/OneDrive/Desktop/GD32VW553/V1_MQTT_OK/GD32VW55X_Wifi_BLE_SDK/GD32VW55x_RELEASE_V1.0.2/MSDK/lwip/lwip-2.1.2/src/core/ipv4\etharp.c ****   return -1;
 644:C:/Users/stapi/OneDrive/Desktop/GD32VW553/V1_MQTT_OK/GD32VW55X_Wifi_BLE_SDK/GD32VW55x_RELEASE_V1.0.2/MSDK/lwip/lwip-2.1.2/src/core/ipv4\etharp.c **** }
 645:C:/Users/stapi/OneDrive/Desktop/GD32VW553/V1_MQTT_OK/GD32VW55X_Wifi_BLE_SDK/GD32VW55x_RELEASE_V1.0.2/MSDK/lwip/lwip-2.1.2/src/core/ipv4\etharp.c **** 
 646:C:/Users/stapi/OneDrive/Desktop/GD32VW553/V1_MQTT_OK/GD32VW55X_Wifi_BLE_SDK/GD32VW55x_RELEASE_V1.0.2/MSDK/lwip/lwip-2.1.2/src/core/ipv4\etharp.c **** /**
 647:C:/Users/stapi/OneDrive/Desktop/GD32VW553/V1_MQTT_OK/GD32VW55X_Wifi_BLE_SDK/GD32VW55x_RELEASE_V1.0.2/MSDK/lwip/lwip-2.1.2/src/core/ipv4\etharp.c ****  * Possibility to iterate over stable ARP table entries
 648:C:/Users/stapi/OneDrive/Desktop/GD32VW553/V1_MQTT_OK/GD32VW55X_Wifi_BLE_SDK/GD32VW55x_RELEASE_V1.0.2/MSDK/lwip/lwip-2.1.2/src/core/ipv4\etharp.c ****  *
 649:C:/Users/stapi/OneDrive/Desktop/GD32VW553/V1_MQTT_OK/GD32VW55X_Wifi_BLE_SDK/GD32VW55x_RELEASE_V1.0.2/MSDK/lwip/lwip-2.1.2/src/core/ipv4\etharp.c ****  * @param i entry number, 0 to ARP_TABLE_SIZE
 650:C:/Users/stapi/OneDrive/Desktop/GD32VW553/V1_MQTT_OK/GD32VW55X_Wifi_BLE_SDK/GD32VW55x_RELEASE_V1.0.2/MSDK/lwip/lwip-2.1.2/src/core/ipv4\etharp.c ****  * @param ipaddr return value: IP address
 651:C:/Users/stapi/OneDrive/Desktop/GD32VW553/V1_MQTT_OK/GD32VW55X_Wifi_BLE_SDK/GD32VW55x_RELEASE_V1.0.2/MSDK/lwip/lwip-2.1.2/src/core/ipv4\etharp.c ****  * @param netif return value: points to interface
 652:C:/Users/stapi/OneDrive/Desktop/GD32VW553/V1_MQTT_OK/GD32VW55X_Wifi_BLE_SDK/GD32VW55x_RELEASE_V1.0.2/MSDK/lwip/lwip-2.1.2/src/core/ipv4\etharp.c ****  * @param eth_ret return value: ETH address
 653:C:/Users/stapi/OneDrive/Desktop/GD32VW553/V1_MQTT_OK/GD32VW55X_Wifi_BLE_SDK/GD32VW55x_RELEASE_V1.0.2/MSDK/lwip/lwip-2.1.2/src/core/ipv4\etharp.c ****  * @return 1 on valid index, 0 otherwise
 654:C:/Users/stapi/OneDrive/Desktop/GD32VW553/V1_MQTT_OK/GD32VW55X_Wifi_BLE_SDK/GD32VW55x_RELEASE_V1.0.2/MSDK/lwip/lwip-2.1.2/src/core/ipv4\etharp.c ****  */
 655:C:/Users/stapi/OneDrive/Desktop/GD32VW553/V1_MQTT_OK/GD32VW55X_Wifi_BLE_SDK/GD32VW55x_RELEASE_V1.0.2/MSDK/lwip/lwip-2.1.2/src/core/ipv4\etharp.c **** int
 656:C:/Users/stapi/OneDrive/Desktop/GD32VW553/V1_MQTT_OK/GD32VW55X_Wifi_BLE_SDK/GD32VW55x_RELEASE_V1.0.2/MSDK/lwip/lwip-2.1.2/src/core/ipv4\etharp.c **** etharp_get_entry(size_t i, ip4_addr_t **ipaddr, struct netif **netif, struct eth_addr **eth_ret)
 657:C:/Users/stapi/OneDrive/Desktop/GD32VW553/V1_MQTT_OK/GD32VW55X_Wifi_BLE_SDK/GD32VW55x_RELEASE_V1.0.2/MSDK/lwip/lwip-2.1.2/src/core/ipv4\etharp.c **** {
 658:C:/Users/stapi/OneDrive/Desktop/GD32VW553/V1_MQTT_OK/GD32VW55X_Wifi_BLE_SDK/GD32VW55x_RELEASE_V1.0.2/MSDK/lwip/lwip-2.1.2/src/core/ipv4\etharp.c ****   LWIP_ASSERT("ipaddr != NULL", ipaddr != NULL);
 659:C:/Users/stapi/OneDrive/Desktop/GD32VW553/V1_MQTT_OK/GD32VW55X_Wifi_BLE_SDK/GD32VW55x_RELEASE_V1.0.2/MSDK/lwip/lwip-2.1.2/src/core/ipv4\etharp.c ****   LWIP_ASSERT("netif != NULL", netif != NULL);
 660:C:/Users/stapi/OneDrive/Desktop/GD32VW553/V1_MQTT_OK/GD32VW55X_Wifi_BLE_SDK/GD32VW55x_RELEASE_V1.0.2/MSDK/lwip/lwip-2.1.2/src/core/ipv4\etharp.c ****   LWIP_ASSERT("eth_ret != NULL", eth_ret != NULL);
 661:C:/Users/stapi/OneDrive/Desktop/GD32VW553/V1_MQTT_OK/GD32VW55X_Wifi_BLE_SDK/GD32VW55x_RELEASE_V1.0.2/MSDK/lwip/lwip-2.1.2/src/core/ipv4\etharp.c **** 
 662:C:/Users/stapi/OneDrive/Desktop/GD32VW553/V1_MQTT_OK/GD32VW55X_Wifi_BLE_SDK/GD32VW55x_RELEASE_V1.0.2/MSDK/lwip/lwip-2.1.2/src/core/ipv4\etharp.c ****   if ((i < ARP_TABLE_SIZE) && (arp_table[i].state >= ETHARP_STATE_STABLE)) {
 663:C:/Users/stapi/OneDrive/Desktop/GD32VW553/V1_MQTT_OK/GD32VW55X_Wifi_BLE_SDK/GD32VW55x_RELEASE_V1.0.2/MSDK/lwip/lwip-2.1.2/src/core/ipv4\etharp.c ****     *ipaddr  = &arp_table[i].ipaddr;
 664:C:/Users/stapi/OneDrive/Desktop/GD32VW553/V1_MQTT_OK/GD32VW55X_Wifi_BLE_SDK/GD32VW55x_RELEASE_V1.0.2/MSDK/lwip/lwip-2.1.2/src/core/ipv4\etharp.c ****     *netif   = arp_table[i].netif;
 665:C:/Users/stapi/OneDrive/Desktop/GD32VW553/V1_MQTT_OK/GD32VW55X_Wifi_BLE_SDK/GD32VW55x_RELEASE_V1.0.2/MSDK/lwip/lwip-2.1.2/src/core/ipv4\etharp.c ****     *eth_ret = &arp_table[i].ethaddr;
 666:C:/Users/stapi/OneDrive/Desktop/GD32VW553/V1_MQTT_OK/GD32VW55X_Wifi_BLE_SDK/GD32VW55x_RELEASE_V1.0.2/MSDK/lwip/lwip-2.1.2/src/core/ipv4\etharp.c ****     return 1;
 667:C:/Users/stapi/OneDrive/Desktop/GD32VW553/V1_MQTT_OK/GD32VW55X_Wifi_BLE_SDK/GD32VW55x_RELEASE_V1.0.2/MSDK/lwip/lwip-2.1.2/src/core/ipv4\etharp.c ****   } else {
 668:C:/Users/stapi/OneDrive/Desktop/GD32VW553/V1_MQTT_OK/GD32VW55X_Wifi_BLE_SDK/GD32VW55x_RELEASE_V1.0.2/MSDK/lwip/lwip-2.1.2/src/core/ipv4\etharp.c ****     return 0;
 669:C:/Users/stapi/OneDrive/Desktop/GD32VW553/V1_MQTT_OK/GD32VW55X_Wifi_BLE_SDK/GD32VW55x_RELEASE_V1.0.2/MSDK/lwip/lwip-2.1.2/src/core/ipv4\etharp.c ****   }
 670:C:/Users/stapi/OneDrive/Desktop/GD32VW553/V1_MQTT_OK/GD32VW55X_Wifi_BLE_SDK/GD32VW55x_RELEASE_V1.0.2/MSDK/lwip/lwip-2.1.2/src/core/ipv4\etharp.c **** }
 671:C:/Users/stapi/OneDrive/Desktop/GD32VW553/V1_MQTT_OK/GD32VW55X_Wifi_BLE_SDK/GD32VW55x_RELEASE_V1.0.2/MSDK/lwip/lwip-2.1.2/src/core/ipv4\etharp.c **** 
 672:C:/Users/stapi/OneDrive/Desktop/GD32VW553/V1_MQTT_OK/GD32VW55X_Wifi_BLE_SDK/GD32VW55x_RELEASE_V1.0.2/MSDK/lwip/lwip-2.1.2/src/core/ipv4\etharp.c **** /**
 673:C:/Users/stapi/OneDrive/Desktop/GD32VW553/V1_MQTT_OK/GD32VW55X_Wifi_BLE_SDK/GD32VW55x_RELEASE_V1.0.2/MSDK/lwip/lwip-2.1.2/src/core/ipv4\etharp.c ****  * Responds to ARP requests to us. Upon ARP replies to us, add entry to cache
 674:C:/Users/stapi/OneDrive/Desktop/GD32VW553/V1_MQTT_OK/GD32VW55X_Wifi_BLE_SDK/GD32VW55x_RELEASE_V1.0.2/MSDK/lwip/lwip-2.1.2/src/core/ipv4\etharp.c ****  * send out queued IP packets. Updates cache with snooped address pairs.
 675:C:/Users/stapi/OneDrive/Desktop/GD32VW553/V1_MQTT_OK/GD32VW55X_Wifi_BLE_SDK/GD32VW55x_RELEASE_V1.0.2/MSDK/lwip/lwip-2.1.2/src/core/ipv4\etharp.c ****  *
 676:C:/Users/stapi/OneDrive/Desktop/GD32VW553/V1_MQTT_OK/GD32VW55X_Wifi_BLE_SDK/GD32VW55x_RELEASE_V1.0.2/MSDK/lwip/lwip-2.1.2/src/core/ipv4\etharp.c ****  * Should be called for incoming ARP packets. The pbuf in the argument
 677:C:/Users/stapi/OneDrive/Desktop/GD32VW553/V1_MQTT_OK/GD32VW55X_Wifi_BLE_SDK/GD32VW55x_RELEASE_V1.0.2/MSDK/lwip/lwip-2.1.2/src/core/ipv4\etharp.c ****  * is freed by this function.
 678:C:/Users/stapi/OneDrive/Desktop/GD32VW553/V1_MQTT_OK/GD32VW55X_Wifi_BLE_SDK/GD32VW55x_RELEASE_V1.0.2/MSDK/lwip/lwip-2.1.2/src/core/ipv4\etharp.c ****  *
 679:C:/Users/stapi/OneDrive/Desktop/GD32VW553/V1_MQTT_OK/GD32VW55X_Wifi_BLE_SDK/GD32VW55x_RELEASE_V1.0.2/MSDK/lwip/lwip-2.1.2/src/core/ipv4\etharp.c ****  * @param p The ARP packet that arrived on netif. Is freed by this function.
 680:C:/Users/stapi/OneDrive/Desktop/GD32VW553/V1_MQTT_OK/GD32VW55X_Wifi_BLE_SDK/GD32VW55x_RELEASE_V1.0.2/MSDK/lwip/lwip-2.1.2/src/core/ipv4\etharp.c ****  * @param netif The lwIP network interface on which the ARP packet pbuf arrived.
 681:C:/Users/stapi/OneDrive/Desktop/GD32VW553/V1_MQTT_OK/GD32VW55X_Wifi_BLE_SDK/GD32VW55x_RELEASE_V1.0.2/MSDK/lwip/lwip-2.1.2/src/core/ipv4\etharp.c ****  *
 682:C:/Users/stapi/OneDrive/Desktop/GD32VW553/V1_MQTT_OK/GD32VW55X_Wifi_BLE_SDK/GD32VW55x_RELEASE_V1.0.2/MSDK/lwip/lwip-2.1.2/src/core/ipv4\etharp.c ****  * @see pbuf_free()
 683:C:/Users/stapi/OneDrive/Desktop/GD32VW553/V1_MQTT_OK/GD32VW55X_Wifi_BLE_SDK/GD32VW55x_RELEASE_V1.0.2/MSDK/lwip/lwip-2.1.2/src/core/ipv4\etharp.c ****  */
 684:C:/Users/stapi/OneDrive/Desktop/GD32VW553/V1_MQTT_OK/GD32VW55X_Wifi_BLE_SDK/GD32VW55x_RELEASE_V1.0.2/MSDK/lwip/lwip-2.1.2/src/core/ipv4\etharp.c **** void
 685:C:/Users/stapi/OneDrive/Desktop/GD32VW553/V1_MQTT_OK/GD32VW55X_Wifi_BLE_SDK/GD32VW55x_RELEASE_V1.0.2/MSDK/lwip/lwip-2.1.2/src/core/ipv4\etharp.c **** etharp_input(struct pbuf *p, struct netif *netif)
 686:C:/Users/stapi/OneDrive/Desktop/GD32VW553/V1_MQTT_OK/GD32VW55X_Wifi_BLE_SDK/GD32VW55x_RELEASE_V1.0.2/MSDK/lwip/lwip-2.1.2/src/core/ipv4\etharp.c **** {
 687:C:/Users/stapi/OneDrive/Desktop/GD32VW553/V1_MQTT_OK/GD32VW55X_Wifi_BLE_SDK/GD32VW55x_RELEASE_V1.0.2/MSDK/lwip/lwip-2.1.2/src/core/ipv4\etharp.c ****   struct etharp_hdr *hdr;
 688:C:/Users/stapi/OneDrive/Desktop/GD32VW553/V1_MQTT_OK/GD32VW55X_Wifi_BLE_SDK/GD32VW55x_RELEASE_V1.0.2/MSDK/lwip/lwip-2.1.2/src/core/ipv4\etharp.c ****   /* these are aligned properly, whereas the ARP header fields might not be */
 689:C:/Users/stapi/OneDrive/Desktop/GD32VW553/V1_MQTT_OK/GD32VW55X_Wifi_BLE_SDK/GD32VW55x_RELEASE_V1.0.2/MSDK/lwip/lwip-2.1.2/src/core/ipv4\etharp.c ****   ip4_addr_t sipaddr, dipaddr;
 690:C:/Users/stapi/OneDrive/Desktop/GD32VW553/V1_MQTT_OK/GD32VW55X_Wifi_BLE_SDK/GD32VW55x_RELEASE_V1.0.2/MSDK/lwip/lwip-2.1.2/src/core/ipv4\etharp.c ****   u8_t for_us;
 691:C:/Users/stapi/OneDrive/Desktop/GD32VW553/V1_MQTT_OK/GD32VW55X_Wifi_BLE_SDK/GD32VW55x_RELEASE_V1.0.2/MSDK/lwip/lwip-2.1.2/src/core/ipv4\etharp.c **** 
 692:C:/Users/stapi/OneDrive/Desktop/GD32VW553/V1_MQTT_OK/GD32VW55X_Wifi_BLE_SDK/GD32VW55x_RELEASE_V1.0.2/MSDK/lwip/lwip-2.1.2/src/core/ipv4\etharp.c ****   LWIP_ASSERT_CORE_LOCKED();
 693:C:/Users/stapi/OneDrive/Desktop/GD32VW553/V1_MQTT_OK/GD32VW55X_Wifi_BLE_SDK/GD32VW55x_RELEASE_V1.0.2/MSDK/lwip/lwip-2.1.2/src/core/ipv4\etharp.c **** 
 694:C:/Users/stapi/OneDrive/Desktop/GD32VW553/V1_MQTT_OK/GD32VW55X_Wifi_BLE_SDK/GD32VW55x_RELEASE_V1.0.2/MSDK/lwip/lwip-2.1.2/src/core/ipv4\etharp.c ****   LWIP_ERROR("netif != NULL", (netif != NULL), return;);
 695:C:/Users/stapi/OneDrive/Desktop/GD32VW553/V1_MQTT_OK/GD32VW55X_Wifi_BLE_SDK/GD32VW55x_RELEASE_V1.0.2/MSDK/lwip/lwip-2.1.2/src/core/ipv4\etharp.c **** 
 696:C:/Users/stapi/OneDrive/Desktop/GD32VW553/V1_MQTT_OK/GD32VW55X_Wifi_BLE_SDK/GD32VW55x_RELEASE_V1.0.2/MSDK/lwip/lwip-2.1.2/src/core/ipv4\etharp.c ****   hdr = (struct etharp_hdr *)p->payload;
 697:C:/Users/stapi/OneDrive/Desktop/GD32VW553/V1_MQTT_OK/GD32VW55X_Wifi_BLE_SDK/GD32VW55x_RELEASE_V1.0.2/MSDK/lwip/lwip-2.1.2/src/core/ipv4\etharp.c **** 
 698:C:/Users/stapi/OneDrive/Desktop/GD32VW553/V1_MQTT_OK/GD32VW55X_Wifi_BLE_SDK/GD32VW55x_RELEASE_V1.0.2/MSDK/lwip/lwip-2.1.2/src/core/ipv4\etharp.c ****   /* RFC 826 "Packet Reception": */
 699:C:/Users/stapi/OneDrive/Desktop/GD32VW553/V1_MQTT_OK/GD32VW55X_Wifi_BLE_SDK/GD32VW55x_RELEASE_V1.0.2/MSDK/lwip/lwip-2.1.2/src/core/ipv4\etharp.c ****   if ((hdr->hwtype != PP_HTONS(LWIP_IANA_HWTYPE_ETHERNET)) ||
 700:C:/Users/stapi/OneDrive/Desktop/GD32VW553/V1_MQTT_OK/GD32VW55X_Wifi_BLE_SDK/GD32VW55x_RELEASE_V1.0.2/MSDK/lwip/lwip-2.1.2/src/core/ipv4\etharp.c ****       (hdr->hwlen != ETH_HWADDR_LEN) ||
 701:C:/Users/stapi/OneDrive/Desktop/GD32VW553/V1_MQTT_OK/GD32VW55X_Wifi_BLE_SDK/GD32VW55x_RELEASE_V1.0.2/MSDK/lwip/lwip-2.1.2/src/core/ipv4\etharp.c ****       (hdr->protolen != sizeof(ip4_addr_t)) ||
 702:C:/Users/stapi/OneDrive/Desktop/GD32VW553/V1_MQTT_OK/GD32VW55X_Wifi_BLE_SDK/GD32VW55x_RELEASE_V1.0.2/MSDK/lwip/lwip-2.1.2/src/core/ipv4\etharp.c ****       (hdr->proto != PP_HTONS(ETHTYPE_IP)))  {
 703:C:/Users/stapi/OneDrive/Desktop/GD32VW553/V1_MQTT_OK/GD32VW55X_Wifi_BLE_SDK/GD32VW55x_RELEASE_V1.0.2/MSDK/lwip/lwip-2.1.2/src/core/ipv4\etharp.c ****     LWIP_DEBUGF(ETHARP_DEBUG | LWIP_DBG_TRACE | LWIP_DBG_LEVEL_WARNING,
 704:C:/Users/stapi/OneDrive/Desktop/GD32VW553/V1_MQTT_OK/GD32VW55X_Wifi_BLE_SDK/GD32VW55x_RELEASE_V1.0.2/MSDK/lwip/lwip-2.1.2/src/core/ipv4\etharp.c ****                 ("etharp_input: packet dropped, wrong hw type, hwlen, proto, protolen or ethernet t
 705:C:/Users/stapi/OneDrive/Desktop/GD32VW553/V1_MQTT_OK/GD32VW55X_Wifi_BLE_SDK/GD32VW55x_RELEASE_V1.0.2/MSDK/lwip/lwip-2.1.2/src/core/ipv4\etharp.c ****                  hdr->hwtype, (u16_t)hdr->hwlen, hdr->proto, (u16_t)hdr->protolen));
 706:C:/Users/stapi/OneDrive/Desktop/GD32VW553/V1_MQTT_OK/GD32VW55X_Wifi_BLE_SDK/GD32VW55x_RELEASE_V1.0.2/MSDK/lwip/lwip-2.1.2/src/core/ipv4\etharp.c ****     ETHARP_STATS_INC(etharp.proterr);
 707:C:/Users/stapi/OneDrive/Desktop/GD32VW553/V1_MQTT_OK/GD32VW55X_Wifi_BLE_SDK/GD32VW55x_RELEASE_V1.0.2/MSDK/lwip/lwip-2.1.2/src/core/ipv4\etharp.c ****     ETHARP_STATS_INC(etharp.drop);
 708:C:/Users/stapi/OneDrive/Desktop/GD32VW553/V1_MQTT_OK/GD32VW55X_Wifi_BLE_SDK/GD32VW55x_RELEASE_V1.0.2/MSDK/lwip/lwip-2.1.2/src/core/ipv4\etharp.c ****     pbuf_free(p);
 709:C:/Users/stapi/OneDrive/Desktop/GD32VW553/V1_MQTT_OK/GD32VW55X_Wifi_BLE_SDK/GD32VW55x_RELEASE_V1.0.2/MSDK/lwip/lwip-2.1.2/src/core/ipv4\etharp.c ****     return;
 710:C:/Users/stapi/OneDrive/Desktop/GD32VW553/V1_MQTT_OK/GD32VW55X_Wifi_BLE_SDK/GD32VW55x_RELEASE_V1.0.2/MSDK/lwip/lwip-2.1.2/src/core/ipv4\etharp.c ****   }
 711:C:/Users/stapi/OneDrive/Desktop/GD32VW553/V1_MQTT_OK/GD32VW55X_Wifi_BLE_SDK/GD32VW55x_RELEASE_V1.0.2/MSDK/lwip/lwip-2.1.2/src/core/ipv4\etharp.c ****   ETHARP_STATS_INC(etharp.recv);
 712:C:/Users/stapi/OneDrive/Desktop/GD32VW553/V1_MQTT_OK/GD32VW55X_Wifi_BLE_SDK/GD32VW55x_RELEASE_V1.0.2/MSDK/lwip/lwip-2.1.2/src/core/ipv4\etharp.c **** 
 713:C:/Users/stapi/OneDrive/Desktop/GD32VW553/V1_MQTT_OK/GD32VW55X_Wifi_BLE_SDK/GD32VW55x_RELEASE_V1.0.2/MSDK/lwip/lwip-2.1.2/src/core/ipv4\etharp.c **** #if LWIP_AUTOIP
 714:C:/Users/stapi/OneDrive/Desktop/GD32VW553/V1_MQTT_OK/GD32VW55X_Wifi_BLE_SDK/GD32VW55x_RELEASE_V1.0.2/MSDK/lwip/lwip-2.1.2/src/core/ipv4\etharp.c ****   /* We have to check if a host already has configured our random
 715:C:/Users/stapi/OneDrive/Desktop/GD32VW553/V1_MQTT_OK/GD32VW55X_Wifi_BLE_SDK/GD32VW55x_RELEASE_V1.0.2/MSDK/lwip/lwip-2.1.2/src/core/ipv4\etharp.c ****    * created link local address and continuously check if there is
 716:C:/Users/stapi/OneDrive/Desktop/GD32VW553/V1_MQTT_OK/GD32VW55X_Wifi_BLE_SDK/GD32VW55x_RELEASE_V1.0.2/MSDK/lwip/lwip-2.1.2/src/core/ipv4\etharp.c ****    * a host with this IP-address so we can detect collisions */
 717:C:/Users/stapi/OneDrive/Desktop/GD32VW553/V1_MQTT_OK/GD32VW55X_Wifi_BLE_SDK/GD32VW55x_RELEASE_V1.0.2/MSDK/lwip/lwip-2.1.2/src/core/ipv4\etharp.c ****   autoip_arp_reply(netif, hdr);
 718:C:/Users/stapi/OneDrive/Desktop/GD32VW553/V1_MQTT_OK/GD32VW55X_Wifi_BLE_SDK/GD32VW55x_RELEASE_V1.0.2/MSDK/lwip/lwip-2.1.2/src/core/ipv4\etharp.c **** #endif /* LWIP_AUTOIP */
 719:C:/Users/stapi/OneDrive/Desktop/GD32VW553/V1_MQTT_OK/GD32VW55X_Wifi_BLE_SDK/GD32VW55x_RELEASE_V1.0.2/MSDK/lwip/lwip-2.1.2/src/core/ipv4\etharp.c **** 
 720:C:/Users/stapi/OneDrive/Desktop/GD32VW553/V1_MQTT_OK/GD32VW55X_Wifi_BLE_SDK/GD32VW55x_RELEASE_V1.0.2/MSDK/lwip/lwip-2.1.2/src/core/ipv4\etharp.c ****   /* Copy struct ip4_addr_wordaligned to aligned ip4_addr, to support compilers without
 721:C:/Users/stapi/OneDrive/Desktop/GD32VW553/V1_MQTT_OK/GD32VW55X_Wifi_BLE_SDK/GD32VW55x_RELEASE_V1.0.2/MSDK/lwip/lwip-2.1.2/src/core/ipv4\etharp.c ****    * structure packing (not using structure copy which breaks strict-aliasing rules). */
 722:C:/Users/stapi/OneDrive/Desktop/GD32VW553/V1_MQTT_OK/GD32VW55X_Wifi_BLE_SDK/GD32VW55x_RELEASE_V1.0.2/MSDK/lwip/lwip-2.1.2/src/core/ipv4\etharp.c ****   IPADDR_WORDALIGNED_COPY_TO_IP4_ADDR_T(&sipaddr, &hdr->sipaddr);
 723:C:/Users/stapi/OneDrive/Desktop/GD32VW553/V1_MQTT_OK/GD32VW55X_Wifi_BLE_SDK/GD32VW55x_RELEASE_V1.0.2/MSDK/lwip/lwip-2.1.2/src/core/ipv4\etharp.c ****   IPADDR_WORDALIGNED_COPY_TO_IP4_ADDR_T(&dipaddr, &hdr->dipaddr);
 724:C:/Users/stapi/OneDrive/Desktop/GD32VW553/V1_MQTT_OK/GD32VW55X_Wifi_BLE_SDK/GD32VW55x_RELEASE_V1.0.2/MSDK/lwip/lwip-2.1.2/src/core/ipv4\etharp.c **** 
 725:C:/Users/stapi/OneDrive/Desktop/GD32VW553/V1_MQTT_OK/GD32VW55X_Wifi_BLE_SDK/GD32VW55x_RELEASE_V1.0.2/MSDK/lwip/lwip-2.1.2/src/core/ipv4\etharp.c ****   /* this interface is not configured? */
 726:C:/Users/stapi/OneDrive/Desktop/GD32VW553/V1_MQTT_OK/GD32VW55X_Wifi_BLE_SDK/GD32VW55x_RELEASE_V1.0.2/MSDK/lwip/lwip-2.1.2/src/core/ipv4\etharp.c ****   if (ip4_addr_isany_val(*netif_ip4_addr(netif))) {
 727:C:/Users/stapi/OneDrive/Desktop/GD32VW553/V1_MQTT_OK/GD32VW55X_Wifi_BLE_SDK/GD32VW55x_RELEASE_V1.0.2/MSDK/lwip/lwip-2.1.2/src/core/ipv4\etharp.c ****     for_us = 0;
 728:C:/Users/stapi/OneDrive/Desktop/GD32VW553/V1_MQTT_OK/GD32VW55X_Wifi_BLE_SDK/GD32VW55x_RELEASE_V1.0.2/MSDK/lwip/lwip-2.1.2/src/core/ipv4\etharp.c ****   } else {
 729:C:/Users/stapi/OneDrive/Desktop/GD32VW553/V1_MQTT_OK/GD32VW55X_Wifi_BLE_SDK/GD32VW55x_RELEASE_V1.0.2/MSDK/lwip/lwip-2.1.2/src/core/ipv4\etharp.c ****     /* ARP packet directed to us? */
 730:C:/Users/stapi/OneDrive/Desktop/GD32VW553/V1_MQTT_OK/GD32VW55X_Wifi_BLE_SDK/GD32VW55x_RELEASE_V1.0.2/MSDK/lwip/lwip-2.1.2/src/core/ipv4\etharp.c ****     for_us = (u8_t)ip4_addr_cmp(&dipaddr, netif_ip4_addr(netif));
 731:C:/Users/stapi/OneDrive/Desktop/GD32VW553/V1_MQTT_OK/GD32VW55X_Wifi_BLE_SDK/GD32VW55x_RELEASE_V1.0.2/MSDK/lwip/lwip-2.1.2/src/core/ipv4\etharp.c ****   }
 732:C:/Users/stapi/OneDrive/Desktop/GD32VW553/V1_MQTT_OK/GD32VW55X_Wifi_BLE_SDK/GD32VW55x_RELEASE_V1.0.2/MSDK/lwip/lwip-2.1.2/src/core/ipv4\etharp.c **** 
 733:C:/Users/stapi/OneDrive/Desktop/GD32VW553/V1_MQTT_OK/GD32VW55X_Wifi_BLE_SDK/GD32VW55x_RELEASE_V1.0.2/MSDK/lwip/lwip-2.1.2/src/core/ipv4\etharp.c ****   /* ARP message directed to us?
 734:C:/Users/stapi/OneDrive/Desktop/GD32VW553/V1_MQTT_OK/GD32VW55X_Wifi_BLE_SDK/GD32VW55x_RELEASE_V1.0.2/MSDK/lwip/lwip-2.1.2/src/core/ipv4\etharp.c ****       -> add IP address in ARP cache; assume requester wants to talk to us,
 735:C:/Users/stapi/OneDrive/Desktop/GD32VW553/V1_MQTT_OK/GD32VW55X_Wifi_BLE_SDK/GD32VW55x_RELEASE_V1.0.2/MSDK/lwip/lwip-2.1.2/src/core/ipv4\etharp.c ****          can result in directly sending the queued packets for this host.
 736:C:/Users/stapi/OneDrive/Desktop/GD32VW553/V1_MQTT_OK/GD32VW55X_Wifi_BLE_SDK/GD32VW55x_RELEASE_V1.0.2/MSDK/lwip/lwip-2.1.2/src/core/ipv4\etharp.c ****      ARP message not directed to us?
 737:C:/Users/stapi/OneDrive/Desktop/GD32VW553/V1_MQTT_OK/GD32VW55X_Wifi_BLE_SDK/GD32VW55x_RELEASE_V1.0.2/MSDK/lwip/lwip-2.1.2/src/core/ipv4\etharp.c ****       ->  update the source IP address in the cache, if present */
 738:C:/Users/stapi/OneDrive/Desktop/GD32VW553/V1_MQTT_OK/GD32VW55X_Wifi_BLE_SDK/GD32VW55x_RELEASE_V1.0.2/MSDK/lwip/lwip-2.1.2/src/core/ipv4\etharp.c ****   etharp_update_arp_entry(netif, &sipaddr, &(hdr->shwaddr),
 739:C:/Users/stapi/OneDrive/Desktop/GD32VW553/V1_MQTT_OK/GD32VW55X_Wifi_BLE_SDK/GD32VW55x_RELEASE_V1.0.2/MSDK/lwip/lwip-2.1.2/src/core/ipv4\etharp.c ****                           for_us ? ETHARP_FLAG_TRY_HARD : ETHARP_FLAG_FIND_ONLY);
 740:C:/Users/stapi/OneDrive/Desktop/GD32VW553/V1_MQTT_OK/GD32VW55X_Wifi_BLE_SDK/GD32VW55x_RELEASE_V1.0.2/MSDK/lwip/lwip-2.1.2/src/core/ipv4\etharp.c **** 
 741:C:/Users/stapi/OneDrive/Desktop/GD32VW553/V1_MQTT_OK/GD32VW55X_Wifi_BLE_SDK/GD32VW55x_RELEASE_V1.0.2/MSDK/lwip/lwip-2.1.2/src/core/ipv4\etharp.c ****   /* now act on the message itself */
 742:C:/Users/stapi/OneDrive/Desktop/GD32VW553/V1_MQTT_OK/GD32VW55X_Wifi_BLE_SDK/GD32VW55x_RELEASE_V1.0.2/MSDK/lwip/lwip-2.1.2/src/core/ipv4\etharp.c ****   switch (hdr->opcode) {
 743:C:/Users/stapi/OneDrive/Desktop/GD32VW553/V1_MQTT_OK/GD32VW55X_Wifi_BLE_SDK/GD32VW55x_RELEASE_V1.0.2/MSDK/lwip/lwip-2.1.2/src/core/ipv4\etharp.c ****     /* ARP request? */
 744:C:/Users/stapi/OneDrive/Desktop/GD32VW553/V1_MQTT_OK/GD32VW55X_Wifi_BLE_SDK/GD32VW55x_RELEASE_V1.0.2/MSDK/lwip/lwip-2.1.2/src/core/ipv4\etharp.c ****     case PP_HTONS(ARP_REQUEST):
 745:C:/Users/stapi/OneDrive/Desktop/GD32VW553/V1_MQTT_OK/GD32VW55X_Wifi_BLE_SDK/GD32VW55x_RELEASE_V1.0.2/MSDK/lwip/lwip-2.1.2/src/core/ipv4\etharp.c ****       /* ARP request. If it asked for our address, we send out a
 746:C:/Users/stapi/OneDrive/Desktop/GD32VW553/V1_MQTT_OK/GD32VW55X_Wifi_BLE_SDK/GD32VW55x_RELEASE_V1.0.2/MSDK/lwip/lwip-2.1.2/src/core/ipv4\etharp.c ****        * reply. In any case, we time-stamp any existing ARP entry,
 747:C:/Users/stapi/OneDrive/Desktop/GD32VW553/V1_MQTT_OK/GD32VW55X_Wifi_BLE_SDK/GD32VW55x_RELEASE_V1.0.2/MSDK/lwip/lwip-2.1.2/src/core/ipv4\etharp.c ****        * and possibly send out an IP packet that was queued on it. */
 748:C:/Users/stapi/OneDrive/Desktop/GD32VW553/V1_MQTT_OK/GD32VW55X_Wifi_BLE_SDK/GD32VW55x_RELEASE_V1.0.2/MSDK/lwip/lwip-2.1.2/src/core/ipv4\etharp.c **** 
 749:C:/Users/stapi/OneDrive/Desktop/GD32VW553/V1_MQTT_OK/GD32VW55X_Wifi_BLE_SDK/GD32VW55x_RELEASE_V1.0.2/MSDK/lwip/lwip-2.1.2/src/core/ipv4\etharp.c ****       LWIP_DEBUGF (ETHARP_DEBUG | LWIP_DBG_TRACE, ("etharp_input: incoming ARP request\n"));
 750:C:/Users/stapi/OneDrive/Desktop/GD32VW553/V1_MQTT_OK/GD32VW55X_Wifi_BLE_SDK/GD32VW55x_RELEASE_V1.0.2/MSDK/lwip/lwip-2.1.2/src/core/ipv4\etharp.c ****       /* ARP request for our address? */
 751:C:/Users/stapi/OneDrive/Desktop/GD32VW553/V1_MQTT_OK/GD32VW55X_Wifi_BLE_SDK/GD32VW55x_RELEASE_V1.0.2/MSDK/lwip/lwip-2.1.2/src/core/ipv4\etharp.c ****       if (for_us) {
 752:C:/Users/stapi/OneDrive/Desktop/GD32VW553/V1_MQTT_OK/GD32VW55X_Wifi_BLE_SDK/GD32VW55x_RELEASE_V1.0.2/MSDK/lwip/lwip-2.1.2/src/core/ipv4\etharp.c ****         /* send ARP response */
 753:C:/Users/stapi/OneDrive/Desktop/GD32VW553/V1_MQTT_OK/GD32VW55X_Wifi_BLE_SDK/GD32VW55x_RELEASE_V1.0.2/MSDK/lwip/lwip-2.1.2/src/core/ipv4\etharp.c ****         etharp_raw(netif,
 754:C:/Users/stapi/OneDrive/Desktop/GD32VW553/V1_MQTT_OK/GD32VW55X_Wifi_BLE_SDK/GD32VW55x_RELEASE_V1.0.2/MSDK/lwip/lwip-2.1.2/src/core/ipv4\etharp.c ****                    (struct eth_addr *)netif->hwaddr, &hdr->shwaddr,
 755:C:/Users/stapi/OneDrive/Desktop/GD32VW553/V1_MQTT_OK/GD32VW55X_Wifi_BLE_SDK/GD32VW55x_RELEASE_V1.0.2/MSDK/lwip/lwip-2.1.2/src/core/ipv4\etharp.c ****                    (struct eth_addr *)netif->hwaddr, netif_ip4_addr(netif),
 756:C:/Users/stapi/OneDrive/Desktop/GD32VW553/V1_MQTT_OK/GD32VW55X_Wifi_BLE_SDK/GD32VW55x_RELEASE_V1.0.2/MSDK/lwip/lwip-2.1.2/src/core/ipv4\etharp.c ****                    &hdr->shwaddr, &sipaddr,
 757:C:/Users/stapi/OneDrive/Desktop/GD32VW553/V1_MQTT_OK/GD32VW55X_Wifi_BLE_SDK/GD32VW55x_RELEASE_V1.0.2/MSDK/lwip/lwip-2.1.2/src/core/ipv4\etharp.c ****                    ARP_REPLY);
 758:C:/Users/stapi/OneDrive/Desktop/GD32VW553/V1_MQTT_OK/GD32VW55X_Wifi_BLE_SDK/GD32VW55x_RELEASE_V1.0.2/MSDK/lwip/lwip-2.1.2/src/core/ipv4\etharp.c ****         /* we are not configured? */
 759:C:/Users/stapi/OneDrive/Desktop/GD32VW553/V1_MQTT_OK/GD32VW55X_Wifi_BLE_SDK/GD32VW55x_RELEASE_V1.0.2/MSDK/lwip/lwip-2.1.2/src/core/ipv4\etharp.c ****       } else if (ip4_addr_isany_val(*netif_ip4_addr(netif))) {
 760:C:/Users/stapi/OneDrive/Desktop/GD32VW553/V1_MQTT_OK/GD32VW55X_Wifi_BLE_SDK/GD32VW55x_RELEASE_V1.0.2/MSDK/lwip/lwip-2.1.2/src/core/ipv4\etharp.c ****         /* { for_us == 0 and netif->ip_addr.addr == 0 } */
 761:C:/Users/stapi/OneDrive/Desktop/GD32VW553/V1_MQTT_OK/GD32VW55X_Wifi_BLE_SDK/GD32VW55x_RELEASE_V1.0.2/MSDK/lwip/lwip-2.1.2/src/core/ipv4\etharp.c ****         LWIP_DEBUGF(ETHARP_DEBUG | LWIP_DBG_TRACE, ("etharp_input: we are unconfigured, ARP request
 762:C:/Users/stapi/OneDrive/Desktop/GD32VW553/V1_MQTT_OK/GD32VW55X_Wifi_BLE_SDK/GD32VW55x_RELEASE_V1.0.2/MSDK/lwip/lwip-2.1.2/src/core/ipv4\etharp.c ****         /* request was not directed to us */
 763:C:/Users/stapi/OneDrive/Desktop/GD32VW553/V1_MQTT_OK/GD32VW55X_Wifi_BLE_SDK/GD32VW55x_RELEASE_V1.0.2/MSDK/lwip/lwip-2.1.2/src/core/ipv4\etharp.c ****       } else {
 764:C:/Users/stapi/OneDrive/Desktop/GD32VW553/V1_MQTT_OK/GD32VW55X_Wifi_BLE_SDK/GD32VW55x_RELEASE_V1.0.2/MSDK/lwip/lwip-2.1.2/src/core/ipv4\etharp.c ****         /* { for_us == 0 and netif->ip_addr.addr != 0 } */
 765:C:/Users/stapi/OneDrive/Desktop/GD32VW553/V1_MQTT_OK/GD32VW55X_Wifi_BLE_SDK/GD32VW55x_RELEASE_V1.0.2/MSDK/lwip/lwip-2.1.2/src/core/ipv4\etharp.c ****         LWIP_DEBUGF(ETHARP_DEBUG | LWIP_DBG_TRACE, ("etharp_input: ARP request was not for us.\n"))
 766:C:/Users/stapi/OneDrive/Desktop/GD32VW553/V1_MQTT_OK/GD32VW55X_Wifi_BLE_SDK/GD32VW55x_RELEASE_V1.0.2/MSDK/lwip/lwip-2.1.2/src/core/ipv4\etharp.c ****       }
 767:C:/Users/stapi/OneDrive/Desktop/GD32VW553/V1_MQTT_OK/GD32VW55X_Wifi_BLE_SDK/GD32VW55x_RELEASE_V1.0.2/MSDK/lwip/lwip-2.1.2/src/core/ipv4\etharp.c ****       break;
 768:C:/Users/stapi/OneDrive/Desktop/GD32VW553/V1_MQTT_OK/GD32VW55X_Wifi_BLE_SDK/GD32VW55x_RELEASE_V1.0.2/MSDK/lwip/lwip-2.1.2/src/core/ipv4\etharp.c ****     case PP_HTONS(ARP_REPLY):
 769:C:/Users/stapi/OneDrive/Desktop/GD32VW553/V1_MQTT_OK/GD32VW55X_Wifi_BLE_SDK/GD32VW55x_RELEASE_V1.0.2/MSDK/lwip/lwip-2.1.2/src/core/ipv4\etharp.c ****       /* ARP reply. We already updated the ARP cache earlier. */
 770:C:/Users/stapi/OneDrive/Desktop/GD32VW553/V1_MQTT_OK/GD32VW55X_Wifi_BLE_SDK/GD32VW55x_RELEASE_V1.0.2/MSDK/lwip/lwip-2.1.2/src/core/ipv4\etharp.c ****       LWIP_DEBUGF(ETHARP_DEBUG | LWIP_DBG_TRACE, ("etharp_input: incoming ARP reply\n"));
 771:C:/Users/stapi/OneDrive/Desktop/GD32VW553/V1_MQTT_OK/GD32VW55X_Wifi_BLE_SDK/GD32VW55x_RELEASE_V1.0.2/MSDK/lwip/lwip-2.1.2/src/core/ipv4\etharp.c **** #if (LWIP_DHCP && DHCP_DOES_ARP_CHECK)
 772:C:/Users/stapi/OneDrive/Desktop/GD32VW553/V1_MQTT_OK/GD32VW55X_Wifi_BLE_SDK/GD32VW55x_RELEASE_V1.0.2/MSDK/lwip/lwip-2.1.2/src/core/ipv4\etharp.c ****       /* DHCP wants to know about ARP replies from any host with an
 773:C:/Users/stapi/OneDrive/Desktop/GD32VW553/V1_MQTT_OK/GD32VW55X_Wifi_BLE_SDK/GD32VW55x_RELEASE_V1.0.2/MSDK/lwip/lwip-2.1.2/src/core/ipv4\etharp.c ****        * IP address also offered to us by the DHCP server. We do not
 774:C:/Users/stapi/OneDrive/Desktop/GD32VW553/V1_MQTT_OK/GD32VW55X_Wifi_BLE_SDK/GD32VW55x_RELEASE_V1.0.2/MSDK/lwip/lwip-2.1.2/src/core/ipv4\etharp.c ****        * want to take a duplicate IP address on a single network.
 775:C:/Users/stapi/OneDrive/Desktop/GD32VW553/V1_MQTT_OK/GD32VW55X_Wifi_BLE_SDK/GD32VW55x_RELEASE_V1.0.2/MSDK/lwip/lwip-2.1.2/src/core/ipv4\etharp.c ****        * @todo How should we handle redundant (fail-over) interfaces? */
 776:C:/Users/stapi/OneDrive/Desktop/GD32VW553/V1_MQTT_OK/GD32VW55X_Wifi_BLE_SDK/GD32VW55x_RELEASE_V1.0.2/MSDK/lwip/lwip-2.1.2/src/core/ipv4\etharp.c ****       dhcp_arp_reply(netif, &sipaddr);
 777:C:/Users/stapi/OneDrive/Desktop/GD32VW553/V1_MQTT_OK/GD32VW55X_Wifi_BLE_SDK/GD32VW55x_RELEASE_V1.0.2/MSDK/lwip/lwip-2.1.2/src/core/ipv4\etharp.c **** #endif /* (LWIP_DHCP && DHCP_DOES_ARP_CHECK) */
 778:C:/Users/stapi/OneDrive/Desktop/GD32VW553/V1_MQTT_OK/GD32VW55X_Wifi_BLE_SDK/GD32VW55x_RELEASE_V1.0.2/MSDK/lwip/lwip-2.1.2/src/core/ipv4\etharp.c ****       break;
 779:C:/Users/stapi/OneDrive/Desktop/GD32VW553/V1_MQTT_OK/GD32VW55X_Wifi_BLE_SDK/GD32VW55x_RELEASE_V1.0.2/MSDK/lwip/lwip-2.1.2/src/core/ipv4\etharp.c ****     default:
 780:C:/Users/stapi/OneDrive/Desktop/GD32VW553/V1_MQTT_OK/GD32VW55X_Wifi_BLE_SDK/GD32VW55x_RELEASE_V1.0.2/MSDK/lwip/lwip-2.1.2/src/core/ipv4\etharp.c ****       LWIP_DEBUGF(ETHARP_DEBUG | LWIP_DBG_TRACE, ("etharp_input: ARP unknown opcode type %"S16_F"\n
 781:C:/Users/stapi/OneDrive/Desktop/GD32VW553/V1_MQTT_OK/GD32VW55X_Wifi_BLE_SDK/GD32VW55x_RELEASE_V1.0.2/MSDK/lwip/lwip-2.1.2/src/core/ipv4\etharp.c ****       ETHARP_STATS_INC(etharp.err);
 782:C:/Users/stapi/OneDrive/Desktop/GD32VW553/V1_MQTT_OK/GD32VW55X_Wifi_BLE_SDK/GD32VW55x_RELEASE_V1.0.2/MSDK/lwip/lwip-2.1.2/src/core/ipv4\etharp.c ****       break;
 783:C:/Users/stapi/OneDrive/Desktop/GD32VW553/V1_MQTT_OK/GD32VW55X_Wifi_BLE_SDK/GD32VW55x_RELEASE_V1.0.2/MSDK/lwip/lwip-2.1.2/src/core/ipv4\etharp.c ****   }
 784:C:/Users/stapi/OneDrive/Desktop/GD32VW553/V1_MQTT_OK/GD32VW55X_Wifi_BLE_SDK/GD32VW55x_RELEASE_V1.0.2/MSDK/lwip/lwip-2.1.2/src/core/ipv4\etharp.c ****   /* free ARP packet */
 785:C:/Users/stapi/OneDrive/Desktop/GD32VW553/V1_MQTT_OK/GD32VW55X_Wifi_BLE_SDK/GD32VW55x_RELEASE_V1.0.2/MSDK/lwip/lwip-2.1.2/src/core/ipv4\etharp.c ****   pbuf_free(p);
 786:C:/Users/stapi/OneDrive/Desktop/GD32VW553/V1_MQTT_OK/GD32VW55X_Wifi_BLE_SDK/GD32VW55x_RELEASE_V1.0.2/MSDK/lwip/lwip-2.1.2/src/core/ipv4\etharp.c **** }
 787:C:/Users/stapi/OneDrive/Desktop/GD32VW553/V1_MQTT_OK/GD32VW55X_Wifi_BLE_SDK/GD32VW55x_RELEASE_V1.0.2/MSDK/lwip/lwip-2.1.2/src/core/ipv4\etharp.c **** 
 788:C:/Users/stapi/OneDrive/Desktop/GD32VW553/V1_MQTT_OK/GD32VW55X_Wifi_BLE_SDK/GD32VW55x_RELEASE_V1.0.2/MSDK/lwip/lwip-2.1.2/src/core/ipv4\etharp.c **** /** Just a small helper function that sends a pbuf to an ethernet address
 789:C:/Users/stapi/OneDrive/Desktop/GD32VW553/V1_MQTT_OK/GD32VW55X_Wifi_BLE_SDK/GD32VW55x_RELEASE_V1.0.2/MSDK/lwip/lwip-2.1.2/src/core/ipv4\etharp.c ****  * in the arp_table specified by the index 'arp_idx'.
 790:C:/Users/stapi/OneDrive/Desktop/GD32VW553/V1_MQTT_OK/GD32VW55X_Wifi_BLE_SDK/GD32VW55x_RELEASE_V1.0.2/MSDK/lwip/lwip-2.1.2/src/core/ipv4\etharp.c ****  */
 791:C:/Users/stapi/OneDrive/Desktop/GD32VW553/V1_MQTT_OK/GD32VW55X_Wifi_BLE_SDK/GD32VW55x_RELEASE_V1.0.2/MSDK/lwip/lwip-2.1.2/src/core/ipv4\etharp.c **** static err_t
 792:C:/Users/stapi/OneDrive/Desktop/GD32VW553/V1_MQTT_OK/GD32VW55X_Wifi_BLE_SDK/GD32VW55x_RELEASE_V1.0.2/MSDK/lwip/lwip-2.1.2/src/core/ipv4\etharp.c **** etharp_output_to_arp_index(struct netif *netif, struct pbuf *q, netif_addr_idx_t arp_idx)
 793:C:/Users/stapi/OneDrive/Desktop/GD32VW553/V1_MQTT_OK/GD32VW55X_Wifi_BLE_SDK/GD32VW55x_RELEASE_V1.0.2/MSDK/lwip/lwip-2.1.2/src/core/ipv4\etharp.c **** {
 794:C:/Users/stapi/OneDrive/Desktop/GD32VW553/V1_MQTT_OK/GD32VW55X_Wifi_BLE_SDK/GD32VW55x_RELEASE_V1.0.2/MSDK/lwip/lwip-2.1.2/src/core/ipv4\etharp.c ****   LWIP_ASSERT("arp_table[arp_idx].state >= ETHARP_STATE_STABLE",
 795:C:/Users/stapi/OneDrive/Desktop/GD32VW553/V1_MQTT_OK/GD32VW55X_Wifi_BLE_SDK/GD32VW55x_RELEASE_V1.0.2/MSDK/lwip/lwip-2.1.2/src/core/ipv4\etharp.c ****               arp_table[arp_idx].state >= ETHARP_STATE_STABLE);
 796:C:/Users/stapi/OneDrive/Desktop/GD32VW553/V1_MQTT_OK/GD32VW55X_Wifi_BLE_SDK/GD32VW55x_RELEASE_V1.0.2/MSDK/lwip/lwip-2.1.2/src/core/ipv4\etharp.c ****   /* if arp table entry is about to expire: re-request it,
 797:C:/Users/stapi/OneDrive/Desktop/GD32VW553/V1_MQTT_OK/GD32VW55X_Wifi_BLE_SDK/GD32VW55x_RELEASE_V1.0.2/MSDK/lwip/lwip-2.1.2/src/core/ipv4\etharp.c ****      but only if its state is ETHARP_STATE_STABLE to prevent flooding the
 798:C:/Users/stapi/OneDrive/Desktop/GD32VW553/V1_MQTT_OK/GD32VW55X_Wifi_BLE_SDK/GD32VW55x_RELEASE_V1.0.2/MSDK/lwip/lwip-2.1.2/src/core/ipv4\etharp.c ****      network with ARP requests if this address is used frequently. */
 799:C:/Users/stapi/OneDrive/Desktop/GD32VW553/V1_MQTT_OK/GD32VW55X_Wifi_BLE_SDK/GD32VW55x_RELEASE_V1.0.2/MSDK/lwip/lwip-2.1.2/src/core/ipv4\etharp.c ****   if (arp_table[arp_idx].state == ETHARP_STATE_STABLE) {
 800:C:/Users/stapi/OneDrive/Desktop/GD32VW553/V1_MQTT_OK/GD32VW55X_Wifi_BLE_SDK/GD32VW55x_RELEASE_V1.0.2/MSDK/lwip/lwip-2.1.2/src/core/ipv4\etharp.c ****     if (arp_table[arp_idx].ctime >= ARP_AGE_REREQUEST_USED_BROADCAST) {
 801:C:/Users/stapi/OneDrive/Desktop/GD32VW553/V1_MQTT_OK/GD32VW55X_Wifi_BLE_SDK/GD32VW55x_RELEASE_V1.0.2/MSDK/lwip/lwip-2.1.2/src/core/ipv4\etharp.c ****       /* issue a standard request using broadcast */
 802:C:/Users/stapi/OneDrive/Desktop/GD32VW553/V1_MQTT_OK/GD32VW55X_Wifi_BLE_SDK/GD32VW55x_RELEASE_V1.0.2/MSDK/lwip/lwip-2.1.2/src/core/ipv4\etharp.c ****       if (etharp_request(netif, &arp_table[arp_idx].ipaddr) == ERR_OK) {
 803:C:/Users/stapi/OneDrive/Desktop/GD32VW553/V1_MQTT_OK/GD32VW55X_Wifi_BLE_SDK/GD32VW55x_RELEASE_V1.0.2/MSDK/lwip/lwip-2.1.2/src/core/ipv4\etharp.c ****         arp_table[arp_idx].state = ETHARP_STATE_STABLE_REREQUESTING_1;
 804:C:/Users/stapi/OneDrive/Desktop/GD32VW553/V1_MQTT_OK/GD32VW55X_Wifi_BLE_SDK/GD32VW55x_RELEASE_V1.0.2/MSDK/lwip/lwip-2.1.2/src/core/ipv4\etharp.c ****       }
 805:C:/Users/stapi/OneDrive/Desktop/GD32VW553/V1_MQTT_OK/GD32VW55X_Wifi_BLE_SDK/GD32VW55x_RELEASE_V1.0.2/MSDK/lwip/lwip-2.1.2/src/core/ipv4\etharp.c ****     } else if (arp_table[arp_idx].ctime >= ARP_AGE_REREQUEST_USED_UNICAST) {
 806:C:/Users/stapi/OneDrive/Desktop/GD32VW553/V1_MQTT_OK/GD32VW55X_Wifi_BLE_SDK/GD32VW55x_RELEASE_V1.0.2/MSDK/lwip/lwip-2.1.2/src/core/ipv4\etharp.c ****       /* issue a unicast request (for 15 seconds) to prevent unnecessary broadcast */
 807:C:/Users/stapi/OneDrive/Desktop/GD32VW553/V1_MQTT_OK/GD32VW55X_Wifi_BLE_SDK/GD32VW55x_RELEASE_V1.0.2/MSDK/lwip/lwip-2.1.2/src/core/ipv4\etharp.c ****       if (etharp_request_dst(netif, &arp_table[arp_idx].ipaddr, &arp_table[arp_idx].ethaddr) == ERR
 808:C:/Users/stapi/OneDrive/Desktop/GD32VW553/V1_MQTT_OK/GD32VW55X_Wifi_BLE_SDK/GD32VW55x_RELEASE_V1.0.2/MSDK/lwip/lwip-2.1.2/src/core/ipv4\etharp.c ****         arp_table[arp_idx].state = ETHARP_STATE_STABLE_REREQUESTING_1;
 809:C:/Users/stapi/OneDrive/Desktop/GD32VW553/V1_MQTT_OK/GD32VW55X_Wifi_BLE_SDK/GD32VW55x_RELEASE_V1.0.2/MSDK/lwip/lwip-2.1.2/src/core/ipv4\etharp.c ****       }
 810:C:/Users/stapi/OneDrive/Desktop/GD32VW553/V1_MQTT_OK/GD32VW55X_Wifi_BLE_SDK/GD32VW55x_RELEASE_V1.0.2/MSDK/lwip/lwip-2.1.2/src/core/ipv4\etharp.c ****     }
 811:C:/Users/stapi/OneDrive/Desktop/GD32VW553/V1_MQTT_OK/GD32VW55X_Wifi_BLE_SDK/GD32VW55x_RELEASE_V1.0.2/MSDK/lwip/lwip-2.1.2/src/core/ipv4\etharp.c ****   }
 812:C:/Users/stapi/OneDrive/Desktop/GD32VW553/V1_MQTT_OK/GD32VW55X_Wifi_BLE_SDK/GD32VW55x_RELEASE_V1.0.2/MSDK/lwip/lwip-2.1.2/src/core/ipv4\etharp.c **** 
 813:C:/Users/stapi/OneDrive/Desktop/GD32VW553/V1_MQTT_OK/GD32VW55X_Wifi_BLE_SDK/GD32VW55x_RELEASE_V1.0.2/MSDK/lwip/lwip-2.1.2/src/core/ipv4\etharp.c ****   return ethernet_output(netif, q, (struct eth_addr *)(netif->hwaddr), &arp_table[arp_idx].ethaddr,
 814:C:/Users/stapi/OneDrive/Desktop/GD32VW553/V1_MQTT_OK/GD32VW55X_Wifi_BLE_SDK/GD32VW55x_RELEASE_V1.0.2/MSDK/lwip/lwip-2.1.2/src/core/ipv4\etharp.c **** }
 815:C:/Users/stapi/OneDrive/Desktop/GD32VW553/V1_MQTT_OK/GD32VW55X_Wifi_BLE_SDK/GD32VW55x_RELEASE_V1.0.2/MSDK/lwip/lwip-2.1.2/src/core/ipv4\etharp.c **** 
 816:C:/Users/stapi/OneDrive/Desktop/GD32VW553/V1_MQTT_OK/GD32VW55X_Wifi_BLE_SDK/GD32VW55x_RELEASE_V1.0.2/MSDK/lwip/lwip-2.1.2/src/core/ipv4\etharp.c **** /**
 817:C:/Users/stapi/OneDrive/Desktop/GD32VW553/V1_MQTT_OK/GD32VW55X_Wifi_BLE_SDK/GD32VW55x_RELEASE_V1.0.2/MSDK/lwip/lwip-2.1.2/src/core/ipv4\etharp.c ****  * Resolve and fill-in Ethernet address header for outgoing IP packet.
 818:C:/Users/stapi/OneDrive/Desktop/GD32VW553/V1_MQTT_OK/GD32VW55X_Wifi_BLE_SDK/GD32VW55x_RELEASE_V1.0.2/MSDK/lwip/lwip-2.1.2/src/core/ipv4\etharp.c ****  *
 819:C:/Users/stapi/OneDrive/Desktop/GD32VW553/V1_MQTT_OK/GD32VW55X_Wifi_BLE_SDK/GD32VW55x_RELEASE_V1.0.2/MSDK/lwip/lwip-2.1.2/src/core/ipv4\etharp.c ****  * For IP multicast and broadcast, corresponding Ethernet addresses
 820:C:/Users/stapi/OneDrive/Desktop/GD32VW553/V1_MQTT_OK/GD32VW55X_Wifi_BLE_SDK/GD32VW55x_RELEASE_V1.0.2/MSDK/lwip/lwip-2.1.2/src/core/ipv4\etharp.c ****  * are selected and the packet is transmitted on the link.
 821:C:/Users/stapi/OneDrive/Desktop/GD32VW553/V1_MQTT_OK/GD32VW55X_Wifi_BLE_SDK/GD32VW55x_RELEASE_V1.0.2/MSDK/lwip/lwip-2.1.2/src/core/ipv4\etharp.c ****  *
 822:C:/Users/stapi/OneDrive/Desktop/GD32VW553/V1_MQTT_OK/GD32VW55X_Wifi_BLE_SDK/GD32VW55x_RELEASE_V1.0.2/MSDK/lwip/lwip-2.1.2/src/core/ipv4\etharp.c ****  * For unicast addresses, the packet is submitted to etharp_query(). In
 823:C:/Users/stapi/OneDrive/Desktop/GD32VW553/V1_MQTT_OK/GD32VW55X_Wifi_BLE_SDK/GD32VW55x_RELEASE_V1.0.2/MSDK/lwip/lwip-2.1.2/src/core/ipv4\etharp.c ****  * case the IP address is outside the local network, the IP address of
 824:C:/Users/stapi/OneDrive/Desktop/GD32VW553/V1_MQTT_OK/GD32VW55X_Wifi_BLE_SDK/GD32VW55x_RELEASE_V1.0.2/MSDK/lwip/lwip-2.1.2/src/core/ipv4\etharp.c ****  * the gateway is used.
 825:C:/Users/stapi/OneDrive/Desktop/GD32VW553/V1_MQTT_OK/GD32VW55X_Wifi_BLE_SDK/GD32VW55x_RELEASE_V1.0.2/MSDK/lwip/lwip-2.1.2/src/core/ipv4\etharp.c ****  *
 826:C:/Users/stapi/OneDrive/Desktop/GD32VW553/V1_MQTT_OK/GD32VW55X_Wifi_BLE_SDK/GD32VW55x_RELEASE_V1.0.2/MSDK/lwip/lwip-2.1.2/src/core/ipv4\etharp.c ****  * @param netif The lwIP network interface which the IP packet will be sent on.
 827:C:/Users/stapi/OneDrive/Desktop/GD32VW553/V1_MQTT_OK/GD32VW55X_Wifi_BLE_SDK/GD32VW55x_RELEASE_V1.0.2/MSDK/lwip/lwip-2.1.2/src/core/ipv4\etharp.c ****  * @param q The pbuf(s) containing the IP packet to be sent.
 828:C:/Users/stapi/OneDrive/Desktop/GD32VW553/V1_MQTT_OK/GD32VW55X_Wifi_BLE_SDK/GD32VW55x_RELEASE_V1.0.2/MSDK/lwip/lwip-2.1.2/src/core/ipv4\etharp.c ****  * @param ipaddr The IP address of the packet destination.
 829:C:/Users/stapi/OneDrive/Desktop/GD32VW553/V1_MQTT_OK/GD32VW55X_Wifi_BLE_SDK/GD32VW55x_RELEASE_V1.0.2/MSDK/lwip/lwip-2.1.2/src/core/ipv4\etharp.c ****  *
 830:C:/Users/stapi/OneDrive/Desktop/GD32VW553/V1_MQTT_OK/GD32VW55X_Wifi_BLE_SDK/GD32VW55x_RELEASE_V1.0.2/MSDK/lwip/lwip-2.1.2/src/core/ipv4\etharp.c ****  * @return
 831:C:/Users/stapi/OneDrive/Desktop/GD32VW553/V1_MQTT_OK/GD32VW55X_Wifi_BLE_SDK/GD32VW55x_RELEASE_V1.0.2/MSDK/lwip/lwip-2.1.2/src/core/ipv4\etharp.c ****  * - ERR_RTE No route to destination (no gateway to external networks),
 832:C:/Users/stapi/OneDrive/Desktop/GD32VW553/V1_MQTT_OK/GD32VW55X_Wifi_BLE_SDK/GD32VW55x_RELEASE_V1.0.2/MSDK/lwip/lwip-2.1.2/src/core/ipv4\etharp.c ****  * or the return type of either etharp_query() or ethernet_output().
 833:C:/Users/stapi/OneDrive/Desktop/GD32VW553/V1_MQTT_OK/GD32VW55X_Wifi_BLE_SDK/GD32VW55x_RELEASE_V1.0.2/MSDK/lwip/lwip-2.1.2/src/core/ipv4\etharp.c ****  */
 834:C:/Users/stapi/OneDrive/Desktop/GD32VW553/V1_MQTT_OK/GD32VW55X_Wifi_BLE_SDK/GD32VW55x_RELEASE_V1.0.2/MSDK/lwip/lwip-2.1.2/src/core/ipv4\etharp.c **** err_t
 835:C:/Users/stapi/OneDrive/Desktop/GD32VW553/V1_MQTT_OK/GD32VW55X_Wifi_BLE_SDK/GD32VW55x_RELEASE_V1.0.2/MSDK/lwip/lwip-2.1.2/src/core/ipv4\etharp.c **** etharp_output(struct netif *netif, struct pbuf *q, const ip4_addr_t *ipaddr)
 836:C:/Users/stapi/OneDrive/Desktop/GD32VW553/V1_MQTT_OK/GD32VW55X_Wifi_BLE_SDK/GD32VW55x_RELEASE_V1.0.2/MSDK/lwip/lwip-2.1.2/src/core/ipv4\etharp.c **** {
 837:C:/Users/stapi/OneDrive/Desktop/GD32VW553/V1_MQTT_OK/GD32VW55X_Wifi_BLE_SDK/GD32VW55x_RELEASE_V1.0.2/MSDK/lwip/lwip-2.1.2/src/core/ipv4\etharp.c ****   const struct eth_addr *dest;
 838:C:/Users/stapi/OneDrive/Desktop/GD32VW553/V1_MQTT_OK/GD32VW55X_Wifi_BLE_SDK/GD32VW55x_RELEASE_V1.0.2/MSDK/lwip/lwip-2.1.2/src/core/ipv4\etharp.c ****   struct eth_addr mcastaddr;
 839:C:/Users/stapi/OneDrive/Desktop/GD32VW553/V1_MQTT_OK/GD32VW55X_Wifi_BLE_SDK/GD32VW55x_RELEASE_V1.0.2/MSDK/lwip/lwip-2.1.2/src/core/ipv4\etharp.c ****   const ip4_addr_t *dst_addr = ipaddr;
 840:C:/Users/stapi/OneDrive/Desktop/GD32VW553/V1_MQTT_OK/GD32VW55X_Wifi_BLE_SDK/GD32VW55x_RELEASE_V1.0.2/MSDK/lwip/lwip-2.1.2/src/core/ipv4\etharp.c **** 
 841:C:/Users/stapi/OneDrive/Desktop/GD32VW553/V1_MQTT_OK/GD32VW55X_Wifi_BLE_SDK/GD32VW55x_RELEASE_V1.0.2/MSDK/lwip/lwip-2.1.2/src/core/ipv4\etharp.c ****   LWIP_ASSERT_CORE_LOCKED();
 842:C:/Users/stapi/OneDrive/Desktop/GD32VW553/V1_MQTT_OK/GD32VW55X_Wifi_BLE_SDK/GD32VW55x_RELEASE_V1.0.2/MSDK/lwip/lwip-2.1.2/src/core/ipv4\etharp.c ****   LWIP_ASSERT("netif != NULL", netif != NULL);
 843:C:/Users/stapi/OneDrive/Desktop/GD32VW553/V1_MQTT_OK/GD32VW55X_Wifi_BLE_SDK/GD32VW55x_RELEASE_V1.0.2/MSDK/lwip/lwip-2.1.2/src/core/ipv4\etharp.c ****   LWIP_ASSERT("q != NULL", q != NULL);
 844:C:/Users/stapi/OneDrive/Desktop/GD32VW553/V1_MQTT_OK/GD32VW55X_Wifi_BLE_SDK/GD32VW55x_RELEASE_V1.0.2/MSDK/lwip/lwip-2.1.2/src/core/ipv4\etharp.c ****   LWIP_ASSERT("ipaddr != NULL", ipaddr != NULL);
 845:C:/Users/stapi/OneDrive/Desktop/GD32VW553/V1_MQTT_OK/GD32VW55X_Wifi_BLE_SDK/GD32VW55x_RELEASE_V1.0.2/MSDK/lwip/lwip-2.1.2/src/core/ipv4\etharp.c **** 
 846:C:/Users/stapi/OneDrive/Desktop/GD32VW553/V1_MQTT_OK/GD32VW55X_Wifi_BLE_SDK/GD32VW55x_RELEASE_V1.0.2/MSDK/lwip/lwip-2.1.2/src/core/ipv4\etharp.c ****   /* Determine on destination hardware address. Broadcasts and multicasts
 847:C:/Users/stapi/OneDrive/Desktop/GD32VW553/V1_MQTT_OK/GD32VW55X_Wifi_BLE_SDK/GD32VW55x_RELEASE_V1.0.2/MSDK/lwip/lwip-2.1.2/src/core/ipv4\etharp.c ****    * are special, other IP addresses are looked up in the ARP table. */
 848:C:/Users/stapi/OneDrive/Desktop/GD32VW553/V1_MQTT_OK/GD32VW55X_Wifi_BLE_SDK/GD32VW55x_RELEASE_V1.0.2/MSDK/lwip/lwip-2.1.2/src/core/ipv4\etharp.c **** 
 849:C:/Users/stapi/OneDrive/Desktop/GD32VW553/V1_MQTT_OK/GD32VW55X_Wifi_BLE_SDK/GD32VW55x_RELEASE_V1.0.2/MSDK/lwip/lwip-2.1.2/src/core/ipv4\etharp.c ****   /* broadcast destination IP address? */
 850:C:/Users/stapi/OneDrive/Desktop/GD32VW553/V1_MQTT_OK/GD32VW55X_Wifi_BLE_SDK/GD32VW55x_RELEASE_V1.0.2/MSDK/lwip/lwip-2.1.2/src/core/ipv4\etharp.c ****   if (ip4_addr_isbroadcast(ipaddr, netif)) {
 851:C:/Users/stapi/OneDrive/Desktop/GD32VW553/V1_MQTT_OK/GD32VW55X_Wifi_BLE_SDK/GD32VW55x_RELEASE_V1.0.2/MSDK/lwip/lwip-2.1.2/src/core/ipv4\etharp.c ****     /* broadcast on Ethernet also */
 852:C:/Users/stapi/OneDrive/Desktop/GD32VW553/V1_MQTT_OK/GD32VW55X_Wifi_BLE_SDK/GD32VW55x_RELEASE_V1.0.2/MSDK/lwip/lwip-2.1.2/src/core/ipv4\etharp.c ****     dest = (const struct eth_addr *)&ethbroadcast;
 853:C:/Users/stapi/OneDrive/Desktop/GD32VW553/V1_MQTT_OK/GD32VW55X_Wifi_BLE_SDK/GD32VW55x_RELEASE_V1.0.2/MSDK/lwip/lwip-2.1.2/src/core/ipv4\etharp.c ****     /* multicast destination IP address? */
 854:C:/Users/stapi/OneDrive/Desktop/GD32VW553/V1_MQTT_OK/GD32VW55X_Wifi_BLE_SDK/GD32VW55x_RELEASE_V1.0.2/MSDK/lwip/lwip-2.1.2/src/core/ipv4\etharp.c ****   } else if (ip4_addr_ismulticast(ipaddr)) {
 855:C:/Users/stapi/OneDrive/Desktop/GD32VW553/V1_MQTT_OK/GD32VW55X_Wifi_BLE_SDK/GD32VW55x_RELEASE_V1.0.2/MSDK/lwip/lwip-2.1.2/src/core/ipv4\etharp.c ****     /* Hash IP multicast address to MAC address.*/
 856:C:/Users/stapi/OneDrive/Desktop/GD32VW553/V1_MQTT_OK/GD32VW55X_Wifi_BLE_SDK/GD32VW55x_RELEASE_V1.0.2/MSDK/lwip/lwip-2.1.2/src/core/ipv4\etharp.c ****     mcastaddr.addr[0] = LL_IP4_MULTICAST_ADDR_0;
 857:C:/Users/stapi/OneDrive/Desktop/GD32VW553/V1_MQTT_OK/GD32VW55X_Wifi_BLE_SDK/GD32VW55x_RELEASE_V1.0.2/MSDK/lwip/lwip-2.1.2/src/core/ipv4\etharp.c ****     mcastaddr.addr[1] = LL_IP4_MULTICAST_ADDR_1;
 858:C:/Users/stapi/OneDrive/Desktop/GD32VW553/V1_MQTT_OK/GD32VW55X_Wifi_BLE_SDK/GD32VW55x_RELEASE_V1.0.2/MSDK/lwip/lwip-2.1.2/src/core/ipv4\etharp.c ****     mcastaddr.addr[2] = LL_IP4_MULTICAST_ADDR_2;
 859:C:/Users/stapi/OneDrive/Desktop/GD32VW553/V1_MQTT_OK/GD32VW55X_Wifi_BLE_SDK/GD32VW55x_RELEASE_V1.0.2/MSDK/lwip/lwip-2.1.2/src/core/ipv4\etharp.c ****     mcastaddr.addr[3] = ip4_addr2(ipaddr) & 0x7f;
 860:C:/Users/stapi/OneDrive/Desktop/GD32VW553/V1_MQTT_OK/GD32VW55X_Wifi_BLE_SDK/GD32VW55x_RELEASE_V1.0.2/MSDK/lwip/lwip-2.1.2/src/core/ipv4\etharp.c ****     mcastaddr.addr[4] = ip4_addr3(ipaddr);
 861:C:/Users/stapi/OneDrive/Desktop/GD32VW553/V1_MQTT_OK/GD32VW55X_Wifi_BLE_SDK/GD32VW55x_RELEASE_V1.0.2/MSDK/lwip/lwip-2.1.2/src/core/ipv4\etharp.c ****     mcastaddr.addr[5] = ip4_addr4(ipaddr);
 862:C:/Users/stapi/OneDrive/Desktop/GD32VW553/V1_MQTT_OK/GD32VW55X_Wifi_BLE_SDK/GD32VW55x_RELEASE_V1.0.2/MSDK/lwip/lwip-2.1.2/src/core/ipv4\etharp.c ****     /* destination Ethernet address is multicast */
 863:C:/Users/stapi/OneDrive/Desktop/GD32VW553/V1_MQTT_OK/GD32VW55X_Wifi_BLE_SDK/GD32VW55x_RELEASE_V1.0.2/MSDK/lwip/lwip-2.1.2/src/core/ipv4\etharp.c ****     dest = &mcastaddr;
 864:C:/Users/stapi/OneDrive/Desktop/GD32VW553/V1_MQTT_OK/GD32VW55X_Wifi_BLE_SDK/GD32VW55x_RELEASE_V1.0.2/MSDK/lwip/lwip-2.1.2/src/core/ipv4\etharp.c ****     /* unicast destination IP address? */
 865:C:/Users/stapi/OneDrive/Desktop/GD32VW553/V1_MQTT_OK/GD32VW55X_Wifi_BLE_SDK/GD32VW55x_RELEASE_V1.0.2/MSDK/lwip/lwip-2.1.2/src/core/ipv4\etharp.c ****   } else {
 866:C:/Users/stapi/OneDrive/Desktop/GD32VW553/V1_MQTT_OK/GD32VW55X_Wifi_BLE_SDK/GD32VW55x_RELEASE_V1.0.2/MSDK/lwip/lwip-2.1.2/src/core/ipv4\etharp.c ****     netif_addr_idx_t i;
 867:C:/Users/stapi/OneDrive/Desktop/GD32VW553/V1_MQTT_OK/GD32VW55X_Wifi_BLE_SDK/GD32VW55x_RELEASE_V1.0.2/MSDK/lwip/lwip-2.1.2/src/core/ipv4\etharp.c ****     /* outside local network? if so, this can neither be a global broadcast nor
 868:C:/Users/stapi/OneDrive/Desktop/GD32VW553/V1_MQTT_OK/GD32VW55X_Wifi_BLE_SDK/GD32VW55x_RELEASE_V1.0.2/MSDK/lwip/lwip-2.1.2/src/core/ipv4\etharp.c ****        a subnet broadcast. */
 869:C:/Users/stapi/OneDrive/Desktop/GD32VW553/V1_MQTT_OK/GD32VW55X_Wifi_BLE_SDK/GD32VW55x_RELEASE_V1.0.2/MSDK/lwip/lwip-2.1.2/src/core/ipv4\etharp.c ****     if (!ip4_addr_netcmp(ipaddr, netif_ip4_addr(netif), netif_ip4_netmask(netif)) &&
 870:C:/Users/stapi/OneDrive/Desktop/GD32VW553/V1_MQTT_OK/GD32VW55X_Wifi_BLE_SDK/GD32VW55x_RELEASE_V1.0.2/MSDK/lwip/lwip-2.1.2/src/core/ipv4\etharp.c ****         !ip4_addr_islinklocal(ipaddr)) {
 871:C:/Users/stapi/OneDrive/Desktop/GD32VW553/V1_MQTT_OK/GD32VW55X_Wifi_BLE_SDK/GD32VW55x_RELEASE_V1.0.2/MSDK/lwip/lwip-2.1.2/src/core/ipv4\etharp.c **** #if LWIP_AUTOIP
 872:C:/Users/stapi/OneDrive/Desktop/GD32VW553/V1_MQTT_OK/GD32VW55X_Wifi_BLE_SDK/GD32VW55x_RELEASE_V1.0.2/MSDK/lwip/lwip-2.1.2/src/core/ipv4\etharp.c ****       struct ip_hdr *iphdr = LWIP_ALIGNMENT_CAST(struct ip_hdr *, q->payload);
 873:C:/Users/stapi/OneDrive/Desktop/GD32VW553/V1_MQTT_OK/GD32VW55X_Wifi_BLE_SDK/GD32VW55x_RELEASE_V1.0.2/MSDK/lwip/lwip-2.1.2/src/core/ipv4\etharp.c ****       /* According to RFC 3297, chapter 2.6.2 (Forwarding Rules), a packet with
 874:C:/Users/stapi/OneDrive/Desktop/GD32VW553/V1_MQTT_OK/GD32VW55X_Wifi_BLE_SDK/GD32VW55x_RELEASE_V1.0.2/MSDK/lwip/lwip-2.1.2/src/core/ipv4\etharp.c ****          a link-local source address must always be "directly to its destination
 875:C:/Users/stapi/OneDrive/Desktop/GD32VW553/V1_MQTT_OK/GD32VW55X_Wifi_BLE_SDK/GD32VW55x_RELEASE_V1.0.2/MSDK/lwip/lwip-2.1.2/src/core/ipv4\etharp.c ****          on the same physical link. The host MUST NOT send the packet to any
 876:C:/Users/stapi/OneDrive/Desktop/GD32VW553/V1_MQTT_OK/GD32VW55X_Wifi_BLE_SDK/GD32VW55x_RELEASE_V1.0.2/MSDK/lwip/lwip-2.1.2/src/core/ipv4\etharp.c ****          router for forwarding". */
 877:C:/Users/stapi/OneDrive/Desktop/GD32VW553/V1_MQTT_OK/GD32VW55X_Wifi_BLE_SDK/GD32VW55x_RELEASE_V1.0.2/MSDK/lwip/lwip-2.1.2/src/core/ipv4\etharp.c ****       if (!ip4_addr_islinklocal(&iphdr->src))
 878:C:/Users/stapi/OneDrive/Desktop/GD32VW553/V1_MQTT_OK/GD32VW55X_Wifi_BLE_SDK/GD32VW55x_RELEASE_V1.0.2/MSDK/lwip/lwip-2.1.2/src/core/ipv4\etharp.c **** #endif /* LWIP_AUTOIP */
 879:C:/Users/stapi/OneDrive/Desktop/GD32VW553/V1_MQTT_OK/GD32VW55X_Wifi_BLE_SDK/GD32VW55x_RELEASE_V1.0.2/MSDK/lwip/lwip-2.1.2/src/core/ipv4\etharp.c ****       {
 880:C:/Users/stapi/OneDrive/Desktop/GD32VW553/V1_MQTT_OK/GD32VW55X_Wifi_BLE_SDK/GD32VW55x_RELEASE_V1.0.2/MSDK/lwip/lwip-2.1.2/src/core/ipv4\etharp.c **** #ifdef LWIP_HOOK_ETHARP_GET_GW
 881:C:/Users/stapi/OneDrive/Desktop/GD32VW553/V1_MQTT_OK/GD32VW55X_Wifi_BLE_SDK/GD32VW55x_RELEASE_V1.0.2/MSDK/lwip/lwip-2.1.2/src/core/ipv4\etharp.c ****         /* For advanced routing, a single default gateway might not be enough, so get
 882:C:/Users/stapi/OneDrive/Desktop/GD32VW553/V1_MQTT_OK/GD32VW55X_Wifi_BLE_SDK/GD32VW55x_RELEASE_V1.0.2/MSDK/lwip/lwip-2.1.2/src/core/ipv4\etharp.c ****            the IP address of the gateway to handle the current destination address. */
 883:C:/Users/stapi/OneDrive/Desktop/GD32VW553/V1_MQTT_OK/GD32VW55X_Wifi_BLE_SDK/GD32VW55x_RELEASE_V1.0.2/MSDK/lwip/lwip-2.1.2/src/core/ipv4\etharp.c ****         dst_addr = LWIP_HOOK_ETHARP_GET_GW(netif, ipaddr);
 884:C:/Users/stapi/OneDrive/Desktop/GD32VW553/V1_MQTT_OK/GD32VW55X_Wifi_BLE_SDK/GD32VW55x_RELEASE_V1.0.2/MSDK/lwip/lwip-2.1.2/src/core/ipv4\etharp.c ****         if (dst_addr == NULL)
 885:C:/Users/stapi/OneDrive/Desktop/GD32VW553/V1_MQTT_OK/GD32VW55X_Wifi_BLE_SDK/GD32VW55x_RELEASE_V1.0.2/MSDK/lwip/lwip-2.1.2/src/core/ipv4\etharp.c **** #endif /* LWIP_HOOK_ETHARP_GET_GW */
 886:C:/Users/stapi/OneDrive/Desktop/GD32VW553/V1_MQTT_OK/GD32VW55X_Wifi_BLE_SDK/GD32VW55x_RELEASE_V1.0.2/MSDK/lwip/lwip-2.1.2/src/core/ipv4\etharp.c ****         {
 887:C:/Users/stapi/OneDrive/Desktop/GD32VW553/V1_MQTT_OK/GD32VW55X_Wifi_BLE_SDK/GD32VW55x_RELEASE_V1.0.2/MSDK/lwip/lwip-2.1.2/src/core/ipv4\etharp.c ****           /* interface has default gateway? */
 888:C:/Users/stapi/OneDrive/Desktop/GD32VW553/V1_MQTT_OK/GD32VW55X_Wifi_BLE_SDK/GD32VW55x_RELEASE_V1.0.2/MSDK/lwip/lwip-2.1.2/src/core/ipv4\etharp.c ****           if (!ip4_addr_isany_val(*netif_ip4_gw(netif))) {
 889:C:/Users/stapi/OneDrive/Desktop/GD32VW553/V1_MQTT_OK/GD32VW55X_Wifi_BLE_SDK/GD32VW55x_RELEASE_V1.0.2/MSDK/lwip/lwip-2.1.2/src/core/ipv4\etharp.c ****             /* send to hardware address of default gateway IP address */
 890:C:/Users/stapi/OneDrive/Desktop/GD32VW553/V1_MQTT_OK/GD32VW55X_Wifi_BLE_SDK/GD32VW55x_RELEASE_V1.0.2/MSDK/lwip/lwip-2.1.2/src/core/ipv4\etharp.c ****             dst_addr = netif_ip4_gw(netif);
 891:C:/Users/stapi/OneDrive/Desktop/GD32VW553/V1_MQTT_OK/GD32VW55X_Wifi_BLE_SDK/GD32VW55x_RELEASE_V1.0.2/MSDK/lwip/lwip-2.1.2/src/core/ipv4\etharp.c ****             /* no default gateway available */
 892:C:/Users/stapi/OneDrive/Desktop/GD32VW553/V1_MQTT_OK/GD32VW55X_Wifi_BLE_SDK/GD32VW55x_RELEASE_V1.0.2/MSDK/lwip/lwip-2.1.2/src/core/ipv4\etharp.c ****           } else {
 893:C:/Users/stapi/OneDrive/Desktop/GD32VW553/V1_MQTT_OK/GD32VW55X_Wifi_BLE_SDK/GD32VW55x_RELEASE_V1.0.2/MSDK/lwip/lwip-2.1.2/src/core/ipv4\etharp.c ****             /* no route to destination error (default gateway missing) */
 894:C:/Users/stapi/OneDrive/Desktop/GD32VW553/V1_MQTT_OK/GD32VW55X_Wifi_BLE_SDK/GD32VW55x_RELEASE_V1.0.2/MSDK/lwip/lwip-2.1.2/src/core/ipv4\etharp.c ****             return ERR_RTE;
 895:C:/Users/stapi/OneDrive/Desktop/GD32VW553/V1_MQTT_OK/GD32VW55X_Wifi_BLE_SDK/GD32VW55x_RELEASE_V1.0.2/MSDK/lwip/lwip-2.1.2/src/core/ipv4\etharp.c ****           }
 896:C:/Users/stapi/OneDrive/Desktop/GD32VW553/V1_MQTT_OK/GD32VW55X_Wifi_BLE_SDK/GD32VW55x_RELEASE_V1.0.2/MSDK/lwip/lwip-2.1.2/src/core/ipv4\etharp.c ****         }
 897:C:/Users/stapi/OneDrive/Desktop/GD32VW553/V1_MQTT_OK/GD32VW55X_Wifi_BLE_SDK/GD32VW55x_RELEASE_V1.0.2/MSDK/lwip/lwip-2.1.2/src/core/ipv4\etharp.c ****       }
 898:C:/Users/stapi/OneDrive/Desktop/GD32VW553/V1_MQTT_OK/GD32VW55X_Wifi_BLE_SDK/GD32VW55x_RELEASE_V1.0.2/MSDK/lwip/lwip-2.1.2/src/core/ipv4\etharp.c ****     }
 899:C:/Users/stapi/OneDrive/Desktop/GD32VW553/V1_MQTT_OK/GD32VW55X_Wifi_BLE_SDK/GD32VW55x_RELEASE_V1.0.2/MSDK/lwip/lwip-2.1.2/src/core/ipv4\etharp.c **** #if LWIP_NETIF_HWADDRHINT
 900:C:/Users/stapi/OneDrive/Desktop/GD32VW553/V1_MQTT_OK/GD32VW55X_Wifi_BLE_SDK/GD32VW55x_RELEASE_V1.0.2/MSDK/lwip/lwip-2.1.2/src/core/ipv4\etharp.c ****     if (netif->hints != NULL) {
 901:C:/Users/stapi/OneDrive/Desktop/GD32VW553/V1_MQTT_OK/GD32VW55X_Wifi_BLE_SDK/GD32VW55x_RELEASE_V1.0.2/MSDK/lwip/lwip-2.1.2/src/core/ipv4\etharp.c ****       /* per-pcb cached entry was given */
 902:C:/Users/stapi/OneDrive/Desktop/GD32VW553/V1_MQTT_OK/GD32VW55X_Wifi_BLE_SDK/GD32VW55x_RELEASE_V1.0.2/MSDK/lwip/lwip-2.1.2/src/core/ipv4\etharp.c ****       netif_addr_idx_t etharp_cached_entry = netif->hints->addr_hint;
 903:C:/Users/stapi/OneDrive/Desktop/GD32VW553/V1_MQTT_OK/GD32VW55X_Wifi_BLE_SDK/GD32VW55x_RELEASE_V1.0.2/MSDK/lwip/lwip-2.1.2/src/core/ipv4\etharp.c ****       if (etharp_cached_entry < ARP_TABLE_SIZE) {
 904:C:/Users/stapi/OneDrive/Desktop/GD32VW553/V1_MQTT_OK/GD32VW55X_Wifi_BLE_SDK/GD32VW55x_RELEASE_V1.0.2/MSDK/lwip/lwip-2.1.2/src/core/ipv4\etharp.c **** #endif /* LWIP_NETIF_HWADDRHINT */
 905:C:/Users/stapi/OneDrive/Desktop/GD32VW553/V1_MQTT_OK/GD32VW55X_Wifi_BLE_SDK/GD32VW55x_RELEASE_V1.0.2/MSDK/lwip/lwip-2.1.2/src/core/ipv4\etharp.c ****         if ((arp_table[etharp_cached_entry].state >= ETHARP_STATE_STABLE) &&
 906:C:/Users/stapi/OneDrive/Desktop/GD32VW553/V1_MQTT_OK/GD32VW55X_Wifi_BLE_SDK/GD32VW55x_RELEASE_V1.0.2/MSDK/lwip/lwip-2.1.2/src/core/ipv4\etharp.c **** #if ETHARP_TABLE_MATCH_NETIF
 907:C:/Users/stapi/OneDrive/Desktop/GD32VW553/V1_MQTT_OK/GD32VW55X_Wifi_BLE_SDK/GD32VW55x_RELEASE_V1.0.2/MSDK/lwip/lwip-2.1.2/src/core/ipv4\etharp.c ****             (arp_table[etharp_cached_entry].netif == netif) &&
 908:C:/Users/stapi/OneDrive/Desktop/GD32VW553/V1_MQTT_OK/GD32VW55X_Wifi_BLE_SDK/GD32VW55x_RELEASE_V1.0.2/MSDK/lwip/lwip-2.1.2/src/core/ipv4\etharp.c **** #endif
 909:C:/Users/stapi/OneDrive/Desktop/GD32VW553/V1_MQTT_OK/GD32VW55X_Wifi_BLE_SDK/GD32VW55x_RELEASE_V1.0.2/MSDK/lwip/lwip-2.1.2/src/core/ipv4\etharp.c ****             (ip4_addr_cmp(dst_addr, &arp_table[etharp_cached_entry].ipaddr))) {
 910:C:/Users/stapi/OneDrive/Desktop/GD32VW553/V1_MQTT_OK/GD32VW55X_Wifi_BLE_SDK/GD32VW55x_RELEASE_V1.0.2/MSDK/lwip/lwip-2.1.2/src/core/ipv4\etharp.c ****           /* the per-pcb-cached entry is stable and the right one! */
 911:C:/Users/stapi/OneDrive/Desktop/GD32VW553/V1_MQTT_OK/GD32VW55X_Wifi_BLE_SDK/GD32VW55x_RELEASE_V1.0.2/MSDK/lwip/lwip-2.1.2/src/core/ipv4\etharp.c ****           ETHARP_STATS_INC(etharp.cachehit);
 912:C:/Users/stapi/OneDrive/Desktop/GD32VW553/V1_MQTT_OK/GD32VW55X_Wifi_BLE_SDK/GD32VW55x_RELEASE_V1.0.2/MSDK/lwip/lwip-2.1.2/src/core/ipv4\etharp.c ****           return etharp_output_to_arp_index(netif, q, etharp_cached_entry);
 913:C:/Users/stapi/OneDrive/Desktop/GD32VW553/V1_MQTT_OK/GD32VW55X_Wifi_BLE_SDK/GD32VW55x_RELEASE_V1.0.2/MSDK/lwip/lwip-2.1.2/src/core/ipv4\etharp.c ****         }
 914:C:/Users/stapi/OneDrive/Desktop/GD32VW553/V1_MQTT_OK/GD32VW55X_Wifi_BLE_SDK/GD32VW55x_RELEASE_V1.0.2/MSDK/lwip/lwip-2.1.2/src/core/ipv4\etharp.c **** #if LWIP_NETIF_HWADDRHINT
 915:C:/Users/stapi/OneDrive/Desktop/GD32VW553/V1_MQTT_OK/GD32VW55X_Wifi_BLE_SDK/GD32VW55x_RELEASE_V1.0.2/MSDK/lwip/lwip-2.1.2/src/core/ipv4\etharp.c ****       }
 916:C:/Users/stapi/OneDrive/Desktop/GD32VW553/V1_MQTT_OK/GD32VW55X_Wifi_BLE_SDK/GD32VW55x_RELEASE_V1.0.2/MSDK/lwip/lwip-2.1.2/src/core/ipv4\etharp.c ****     }
 917:C:/Users/stapi/OneDrive/Desktop/GD32VW553/V1_MQTT_OK/GD32VW55X_Wifi_BLE_SDK/GD32VW55x_RELEASE_V1.0.2/MSDK/lwip/lwip-2.1.2/src/core/ipv4\etharp.c **** #endif /* LWIP_NETIF_HWADDRHINT */
 918:C:/Users/stapi/OneDrive/Desktop/GD32VW553/V1_MQTT_OK/GD32VW55X_Wifi_BLE_SDK/GD32VW55x_RELEASE_V1.0.2/MSDK/lwip/lwip-2.1.2/src/core/ipv4\etharp.c **** 
 919:C:/Users/stapi/OneDrive/Desktop/GD32VW553/V1_MQTT_OK/GD32VW55X_Wifi_BLE_SDK/GD32VW55x_RELEASE_V1.0.2/MSDK/lwip/lwip-2.1.2/src/core/ipv4\etharp.c ****     /* find stable entry: do this here since this is a critical path for
 920:C:/Users/stapi/OneDrive/Desktop/GD32VW553/V1_MQTT_OK/GD32VW55X_Wifi_BLE_SDK/GD32VW55x_RELEASE_V1.0.2/MSDK/lwip/lwip-2.1.2/src/core/ipv4\etharp.c ****        throughput and etharp_find_entry() is kind of slow */
 921:C:/Users/stapi/OneDrive/Desktop/GD32VW553/V1_MQTT_OK/GD32VW55X_Wifi_BLE_SDK/GD32VW55x_RELEASE_V1.0.2/MSDK/lwip/lwip-2.1.2/src/core/ipv4\etharp.c ****     for (i = 0; i < ARP_TABLE_SIZE; i++) {
 922:C:/Users/stapi/OneDrive/Desktop/GD32VW553/V1_MQTT_OK/GD32VW55X_Wifi_BLE_SDK/GD32VW55x_RELEASE_V1.0.2/MSDK/lwip/lwip-2.1.2/src/core/ipv4\etharp.c ****       if ((arp_table[i].state >= ETHARP_STATE_STABLE) &&
 923:C:/Users/stapi/OneDrive/Desktop/GD32VW553/V1_MQTT_OK/GD32VW55X_Wifi_BLE_SDK/GD32VW55x_RELEASE_V1.0.2/MSDK/lwip/lwip-2.1.2/src/core/ipv4\etharp.c **** #if ETHARP_TABLE_MATCH_NETIF
 924:C:/Users/stapi/OneDrive/Desktop/GD32VW553/V1_MQTT_OK/GD32VW55X_Wifi_BLE_SDK/GD32VW55x_RELEASE_V1.0.2/MSDK/lwip/lwip-2.1.2/src/core/ipv4\etharp.c ****           (arp_table[i].netif == netif) &&
 925:C:/Users/stapi/OneDrive/Desktop/GD32VW553/V1_MQTT_OK/GD32VW55X_Wifi_BLE_SDK/GD32VW55x_RELEASE_V1.0.2/MSDK/lwip/lwip-2.1.2/src/core/ipv4\etharp.c **** #endif
 926:C:/Users/stapi/OneDrive/Desktop/GD32VW553/V1_MQTT_OK/GD32VW55X_Wifi_BLE_SDK/GD32VW55x_RELEASE_V1.0.2/MSDK/lwip/lwip-2.1.2/src/core/ipv4\etharp.c ****           (ip4_addr_cmp(dst_addr, &arp_table[i].ipaddr))) {
 927:C:/Users/stapi/OneDrive/Desktop/GD32VW553/V1_MQTT_OK/GD32VW55X_Wifi_BLE_SDK/GD32VW55x_RELEASE_V1.0.2/MSDK/lwip/lwip-2.1.2/src/core/ipv4\etharp.c ****         /* found an existing, stable entry */
 928:C:/Users/stapi/OneDrive/Desktop/GD32VW553/V1_MQTT_OK/GD32VW55X_Wifi_BLE_SDK/GD32VW55x_RELEASE_V1.0.2/MSDK/lwip/lwip-2.1.2/src/core/ipv4\etharp.c ****         ETHARP_SET_ADDRHINT(netif, i);
 929:C:/Users/stapi/OneDrive/Desktop/GD32VW553/V1_MQTT_OK/GD32VW55X_Wifi_BLE_SDK/GD32VW55x_RELEASE_V1.0.2/MSDK/lwip/lwip-2.1.2/src/core/ipv4\etharp.c ****         return etharp_output_to_arp_index(netif, q, i);
 930:C:/Users/stapi/OneDrive/Desktop/GD32VW553/V1_MQTT_OK/GD32VW55X_Wifi_BLE_SDK/GD32VW55x_RELEASE_V1.0.2/MSDK/lwip/lwip-2.1.2/src/core/ipv4\etharp.c ****       }
 931:C:/Users/stapi/OneDrive/Desktop/GD32VW553/V1_MQTT_OK/GD32VW55X_Wifi_BLE_SDK/GD32VW55x_RELEASE_V1.0.2/MSDK/lwip/lwip-2.1.2/src/core/ipv4\etharp.c ****     }
 932:C:/Users/stapi/OneDrive/Desktop/GD32VW553/V1_MQTT_OK/GD32VW55X_Wifi_BLE_SDK/GD32VW55x_RELEASE_V1.0.2/MSDK/lwip/lwip-2.1.2/src/core/ipv4\etharp.c **** /* FT TAG */
 933:C:/Users/stapi/OneDrive/Desktop/GD32VW553/V1_MQTT_OK/GD32VW55X_Wifi_BLE_SDK/GD32VW55x_RELEASE_V1.0.2/MSDK/lwip/lwip-2.1.2/src/core/ipv4\etharp.c ****     /* unable to use ARP to get destination Ethernet address belonging to ipaddr in DHCPD in softap
 934:C:/Users/stapi/OneDrive/Desktop/GD32VW553/V1_MQTT_OK/GD32VW55X_Wifi_BLE_SDK/GD32VW55x_RELEASE_V1.0.2/MSDK/lwip/lwip-2.1.2/src/core/ipv4\etharp.c ****     /* so get the address directly from the packet. */
 935:C:/Users/stapi/OneDrive/Desktop/GD32VW553/V1_MQTT_OK/GD32VW55X_Wifi_BLE_SDK/GD32VW55x_RELEASE_V1.0.2/MSDK/lwip/lwip-2.1.2/src/core/ipv4\etharp.c ****     {
 936:C:/Users/stapi/OneDrive/Desktop/GD32VW553/V1_MQTT_OK/GD32VW55X_Wifi_BLE_SDK/GD32VW55x_RELEASE_V1.0.2/MSDK/lwip/lwip-2.1.2/src/core/ipv4\etharp.c ****         extern void *dhcpd_find_ethaddr_from_packet(struct pbuf *p);
 937:C:/Users/stapi/OneDrive/Desktop/GD32VW553/V1_MQTT_OK/GD32VW55X_Wifi_BLE_SDK/GD32VW55x_RELEASE_V1.0.2/MSDK/lwip/lwip-2.1.2/src/core/ipv4\etharp.c ****         dest = (const struct eth_addr *)dhcpd_find_ethaddr_from_packet(q);
 938:C:/Users/stapi/OneDrive/Desktop/GD32VW553/V1_MQTT_OK/GD32VW55X_Wifi_BLE_SDK/GD32VW55x_RELEASE_V1.0.2/MSDK/lwip/lwip-2.1.2/src/core/ipv4\etharp.c ****         if (dest)
 939:C:/Users/stapi/OneDrive/Desktop/GD32VW553/V1_MQTT_OK/GD32VW55X_Wifi_BLE_SDK/GD32VW55x_RELEASE_V1.0.2/MSDK/lwip/lwip-2.1.2/src/core/ipv4\etharp.c ****             return ethernet_output(netif, q, (struct eth_addr *)(netif->hwaddr), dest, ETHTYPE_IP);
 940:C:/Users/stapi/OneDrive/Desktop/GD32VW553/V1_MQTT_OK/GD32VW55X_Wifi_BLE_SDK/GD32VW55x_RELEASE_V1.0.2/MSDK/lwip/lwip-2.1.2/src/core/ipv4\etharp.c ****     }
 941:C:/Users/stapi/OneDrive/Desktop/GD32VW553/V1_MQTT_OK/GD32VW55X_Wifi_BLE_SDK/GD32VW55x_RELEASE_V1.0.2/MSDK/lwip/lwip-2.1.2/src/core/ipv4\etharp.c **** /* FT TAG */
 942:C:/Users/stapi/OneDrive/Desktop/GD32VW553/V1_MQTT_OK/GD32VW55X_Wifi_BLE_SDK/GD32VW55x_RELEASE_V1.0.2/MSDK/lwip/lwip-2.1.2/src/core/ipv4\etharp.c ****     /* no stable entry found, use the (slower) query function:
 943:C:/Users/stapi/OneDrive/Desktop/GD32VW553/V1_MQTT_OK/GD32VW55X_Wifi_BLE_SDK/GD32VW55x_RELEASE_V1.0.2/MSDK/lwip/lwip-2.1.2/src/core/ipv4\etharp.c ****        queue on destination Ethernet address belonging to ipaddr */
 944:C:/Users/stapi/OneDrive/Desktop/GD32VW553/V1_MQTT_OK/GD32VW55X_Wifi_BLE_SDK/GD32VW55x_RELEASE_V1.0.2/MSDK/lwip/lwip-2.1.2/src/core/ipv4\etharp.c ****     return etharp_query(netif, dst_addr, q);
 945:C:/Users/stapi/OneDrive/Desktop/GD32VW553/V1_MQTT_OK/GD32VW55X_Wifi_BLE_SDK/GD32VW55x_RELEASE_V1.0.2/MSDK/lwip/lwip-2.1.2/src/core/ipv4\etharp.c ****   }
 946:C:/Users/stapi/OneDrive/Desktop/GD32VW553/V1_MQTT_OK/GD32VW55X_Wifi_BLE_SDK/GD32VW55x_RELEASE_V1.0.2/MSDK/lwip/lwip-2.1.2/src/core/ipv4\etharp.c **** 
 947:C:/Users/stapi/OneDrive/Desktop/GD32VW553/V1_MQTT_OK/GD32VW55X_Wifi_BLE_SDK/GD32VW55x_RELEASE_V1.0.2/MSDK/lwip/lwip-2.1.2/src/core/ipv4\etharp.c ****   /* continuation for multicast/broadcast destinations */
 948:C:/Users/stapi/OneDrive/Desktop/GD32VW553/V1_MQTT_OK/GD32VW55X_Wifi_BLE_SDK/GD32VW55x_RELEASE_V1.0.2/MSDK/lwip/lwip-2.1.2/src/core/ipv4\etharp.c ****   /* obtain source Ethernet address of the given interface */
 949:C:/Users/stapi/OneDrive/Desktop/GD32VW553/V1_MQTT_OK/GD32VW55X_Wifi_BLE_SDK/GD32VW55x_RELEASE_V1.0.2/MSDK/lwip/lwip-2.1.2/src/core/ipv4\etharp.c ****   /* send packet directly on the link */
 950:C:/Users/stapi/OneDrive/Desktop/GD32VW553/V1_MQTT_OK/GD32VW55X_Wifi_BLE_SDK/GD32VW55x_RELEASE_V1.0.2/MSDK/lwip/lwip-2.1.2/src/core/ipv4\etharp.c ****   return ethernet_output(netif, q, (struct eth_addr *)(netif->hwaddr), dest, ETHTYPE_IP);
 951:C:/Users/stapi/OneDrive/Desktop/GD32VW553/V1_MQTT_OK/GD32VW55X_Wifi_BLE_SDK/GD32VW55x_RELEASE_V1.0.2/MSDK/lwip/lwip-2.1.2/src/core/ipv4\etharp.c **** }
 952:C:/Users/stapi/OneDrive/Desktop/GD32VW553/V1_MQTT_OK/GD32VW55X_Wifi_BLE_SDK/GD32VW55x_RELEASE_V1.0.2/MSDK/lwip/lwip-2.1.2/src/core/ipv4\etharp.c **** 
 953:C:/Users/stapi/OneDrive/Desktop/GD32VW553/V1_MQTT_OK/GD32VW55X_Wifi_BLE_SDK/GD32VW55x_RELEASE_V1.0.2/MSDK/lwip/lwip-2.1.2/src/core/ipv4\etharp.c **** /**
 954:C:/Users/stapi/OneDrive/Desktop/GD32VW553/V1_MQTT_OK/GD32VW55X_Wifi_BLE_SDK/GD32VW55x_RELEASE_V1.0.2/MSDK/lwip/lwip-2.1.2/src/core/ipv4\etharp.c ****  * Send an ARP request for the given IP address and/or queue a packet.
 955:C:/Users/stapi/OneDrive/Desktop/GD32VW553/V1_MQTT_OK/GD32VW55X_Wifi_BLE_SDK/GD32VW55x_RELEASE_V1.0.2/MSDK/lwip/lwip-2.1.2/src/core/ipv4\etharp.c ****  *
 956:C:/Users/stapi/OneDrive/Desktop/GD32VW553/V1_MQTT_OK/GD32VW55X_Wifi_BLE_SDK/GD32VW55x_RELEASE_V1.0.2/MSDK/lwip/lwip-2.1.2/src/core/ipv4\etharp.c ****  * If the IP address was not yet in the cache, a pending ARP cache entry
 957:C:/Users/stapi/OneDrive/Desktop/GD32VW553/V1_MQTT_OK/GD32VW55X_Wifi_BLE_SDK/GD32VW55x_RELEASE_V1.0.2/MSDK/lwip/lwip-2.1.2/src/core/ipv4\etharp.c ****  * is added and an ARP request is sent for the given address. The packet
 958:C:/Users/stapi/OneDrive/Desktop/GD32VW553/V1_MQTT_OK/GD32VW55X_Wifi_BLE_SDK/GD32VW55x_RELEASE_V1.0.2/MSDK/lwip/lwip-2.1.2/src/core/ipv4\etharp.c ****  * is queued on this entry.
 959:C:/Users/stapi/OneDrive/Desktop/GD32VW553/V1_MQTT_OK/GD32VW55X_Wifi_BLE_SDK/GD32VW55x_RELEASE_V1.0.2/MSDK/lwip/lwip-2.1.2/src/core/ipv4\etharp.c ****  *
 960:C:/Users/stapi/OneDrive/Desktop/GD32VW553/V1_MQTT_OK/GD32VW55X_Wifi_BLE_SDK/GD32VW55x_RELEASE_V1.0.2/MSDK/lwip/lwip-2.1.2/src/core/ipv4\etharp.c ****  * If the IP address was already pending in the cache, a new ARP request
 961:C:/Users/stapi/OneDrive/Desktop/GD32VW553/V1_MQTT_OK/GD32VW55X_Wifi_BLE_SDK/GD32VW55x_RELEASE_V1.0.2/MSDK/lwip/lwip-2.1.2/src/core/ipv4\etharp.c ****  * is sent for the given address. The packet is queued on this entry.
 962:C:/Users/stapi/OneDrive/Desktop/GD32VW553/V1_MQTT_OK/GD32VW55X_Wifi_BLE_SDK/GD32VW55x_RELEASE_V1.0.2/MSDK/lwip/lwip-2.1.2/src/core/ipv4\etharp.c ****  *
 963:C:/Users/stapi/OneDrive/Desktop/GD32VW553/V1_MQTT_OK/GD32VW55X_Wifi_BLE_SDK/GD32VW55x_RELEASE_V1.0.2/MSDK/lwip/lwip-2.1.2/src/core/ipv4\etharp.c ****  * If the IP address was already stable in the cache, and a packet is
 964:C:/Users/stapi/OneDrive/Desktop/GD32VW553/V1_MQTT_OK/GD32VW55X_Wifi_BLE_SDK/GD32VW55x_RELEASE_V1.0.2/MSDK/lwip/lwip-2.1.2/src/core/ipv4\etharp.c ****  * given, it is directly sent and no ARP request is sent out.
 965:C:/Users/stapi/OneDrive/Desktop/GD32VW553/V1_MQTT_OK/GD32VW55X_Wifi_BLE_SDK/GD32VW55x_RELEASE_V1.0.2/MSDK/lwip/lwip-2.1.2/src/core/ipv4\etharp.c ****  *
 966:C:/Users/stapi/OneDrive/Desktop/GD32VW553/V1_MQTT_OK/GD32VW55X_Wifi_BLE_SDK/GD32VW55x_RELEASE_V1.0.2/MSDK/lwip/lwip-2.1.2/src/core/ipv4\etharp.c ****  * If the IP address was already stable in the cache, and no packet is
 967:C:/Users/stapi/OneDrive/Desktop/GD32VW553/V1_MQTT_OK/GD32VW55X_Wifi_BLE_SDK/GD32VW55x_RELEASE_V1.0.2/MSDK/lwip/lwip-2.1.2/src/core/ipv4\etharp.c ****  * given, an ARP request is sent out.
 968:C:/Users/stapi/OneDrive/Desktop/GD32VW553/V1_MQTT_OK/GD32VW55X_Wifi_BLE_SDK/GD32VW55x_RELEASE_V1.0.2/MSDK/lwip/lwip-2.1.2/src/core/ipv4\etharp.c ****  *
 969:C:/Users/stapi/OneDrive/Desktop/GD32VW553/V1_MQTT_OK/GD32VW55X_Wifi_BLE_SDK/GD32VW55x_RELEASE_V1.0.2/MSDK/lwip/lwip-2.1.2/src/core/ipv4\etharp.c ****  * @param netif The lwIP network interface on which ipaddr
 970:C:/Users/stapi/OneDrive/Desktop/GD32VW553/V1_MQTT_OK/GD32VW55X_Wifi_BLE_SDK/GD32VW55x_RELEASE_V1.0.2/MSDK/lwip/lwip-2.1.2/src/core/ipv4\etharp.c ****  * must be queried for.
 971:C:/Users/stapi/OneDrive/Desktop/GD32VW553/V1_MQTT_OK/GD32VW55X_Wifi_BLE_SDK/GD32VW55x_RELEASE_V1.0.2/MSDK/lwip/lwip-2.1.2/src/core/ipv4\etharp.c ****  * @param ipaddr The IP address to be resolved.
 972:C:/Users/stapi/OneDrive/Desktop/GD32VW553/V1_MQTT_OK/GD32VW55X_Wifi_BLE_SDK/GD32VW55x_RELEASE_V1.0.2/MSDK/lwip/lwip-2.1.2/src/core/ipv4\etharp.c ****  * @param q If non-NULL, a pbuf that must be delivered to the IP address.
 973:C:/Users/stapi/OneDrive/Desktop/GD32VW553/V1_MQTT_OK/GD32VW55X_Wifi_BLE_SDK/GD32VW55x_RELEASE_V1.0.2/MSDK/lwip/lwip-2.1.2/src/core/ipv4\etharp.c ****  * q is not freed by this function.
 974:C:/Users/stapi/OneDrive/Desktop/GD32VW553/V1_MQTT_OK/GD32VW55X_Wifi_BLE_SDK/GD32VW55x_RELEASE_V1.0.2/MSDK/lwip/lwip-2.1.2/src/core/ipv4\etharp.c ****  *
 975:C:/Users/stapi/OneDrive/Desktop/GD32VW553/V1_MQTT_OK/GD32VW55X_Wifi_BLE_SDK/GD32VW55x_RELEASE_V1.0.2/MSDK/lwip/lwip-2.1.2/src/core/ipv4\etharp.c ****  * @note q must only be ONE packet, not a packet queue!
 976:C:/Users/stapi/OneDrive/Desktop/GD32VW553/V1_MQTT_OK/GD32VW55X_Wifi_BLE_SDK/GD32VW55x_RELEASE_V1.0.2/MSDK/lwip/lwip-2.1.2/src/core/ipv4\etharp.c ****  *
 977:C:/Users/stapi/OneDrive/Desktop/GD32VW553/V1_MQTT_OK/GD32VW55X_Wifi_BLE_SDK/GD32VW55x_RELEASE_V1.0.2/MSDK/lwip/lwip-2.1.2/src/core/ipv4\etharp.c ****  * @return
 978:C:/Users/stapi/OneDrive/Desktop/GD32VW553/V1_MQTT_OK/GD32VW55X_Wifi_BLE_SDK/GD32VW55x_RELEASE_V1.0.2/MSDK/lwip/lwip-2.1.2/src/core/ipv4\etharp.c ****  * - ERR_BUF Could not make room for Ethernet header.
 979:C:/Users/stapi/OneDrive/Desktop/GD32VW553/V1_MQTT_OK/GD32VW55X_Wifi_BLE_SDK/GD32VW55x_RELEASE_V1.0.2/MSDK/lwip/lwip-2.1.2/src/core/ipv4\etharp.c ****  * - ERR_MEM Hardware address unknown, and no more ARP entries available
 980:C:/Users/stapi/OneDrive/Desktop/GD32VW553/V1_MQTT_OK/GD32VW55X_Wifi_BLE_SDK/GD32VW55x_RELEASE_V1.0.2/MSDK/lwip/lwip-2.1.2/src/core/ipv4\etharp.c ****  *   to query for address or queue the packet.
 981:C:/Users/stapi/OneDrive/Desktop/GD32VW553/V1_MQTT_OK/GD32VW55X_Wifi_BLE_SDK/GD32VW55x_RELEASE_V1.0.2/MSDK/lwip/lwip-2.1.2/src/core/ipv4\etharp.c ****  * - ERR_MEM Could not queue packet due to memory shortage.
 982:C:/Users/stapi/OneDrive/Desktop/GD32VW553/V1_MQTT_OK/GD32VW55X_Wifi_BLE_SDK/GD32VW55x_RELEASE_V1.0.2/MSDK/lwip/lwip-2.1.2/src/core/ipv4\etharp.c ****  * - ERR_RTE No route to destination (no gateway to external networks).
 983:C:/Users/stapi/OneDrive/Desktop/GD32VW553/V1_MQTT_OK/GD32VW55X_Wifi_BLE_SDK/GD32VW55x_RELEASE_V1.0.2/MSDK/lwip/lwip-2.1.2/src/core/ipv4\etharp.c ****  * - ERR_ARG Non-unicast address given, those will not appear in ARP cache.
 984:C:/Users/stapi/OneDrive/Desktop/GD32VW553/V1_MQTT_OK/GD32VW55X_Wifi_BLE_SDK/GD32VW55x_RELEASE_V1.0.2/MSDK/lwip/lwip-2.1.2/src/core/ipv4\etharp.c ****  *
 985:C:/Users/stapi/OneDrive/Desktop/GD32VW553/V1_MQTT_OK/GD32VW55X_Wifi_BLE_SDK/GD32VW55x_RELEASE_V1.0.2/MSDK/lwip/lwip-2.1.2/src/core/ipv4\etharp.c ****  */
 986:C:/Users/stapi/OneDrive/Desktop/GD32VW553/V1_MQTT_OK/GD32VW55X_Wifi_BLE_SDK/GD32VW55x_RELEASE_V1.0.2/MSDK/lwip/lwip-2.1.2/src/core/ipv4\etharp.c **** err_t
 987:C:/Users/stapi/OneDrive/Desktop/GD32VW553/V1_MQTT_OK/GD32VW55X_Wifi_BLE_SDK/GD32VW55x_RELEASE_V1.0.2/MSDK/lwip/lwip-2.1.2/src/core/ipv4\etharp.c **** etharp_query(struct netif *netif, const ip4_addr_t *ipaddr, struct pbuf *q)
 988:C:/Users/stapi/OneDrive/Desktop/GD32VW553/V1_MQTT_OK/GD32VW55X_Wifi_BLE_SDK/GD32VW55x_RELEASE_V1.0.2/MSDK/lwip/lwip-2.1.2/src/core/ipv4\etharp.c **** {
 989:C:/Users/stapi/OneDrive/Desktop/GD32VW553/V1_MQTT_OK/GD32VW55X_Wifi_BLE_SDK/GD32VW55x_RELEASE_V1.0.2/MSDK/lwip/lwip-2.1.2/src/core/ipv4\etharp.c ****   struct eth_addr *srcaddr = (struct eth_addr *)netif->hwaddr;
 990:C:/Users/stapi/OneDrive/Desktop/GD32VW553/V1_MQTT_OK/GD32VW55X_Wifi_BLE_SDK/GD32VW55x_RELEASE_V1.0.2/MSDK/lwip/lwip-2.1.2/src/core/ipv4\etharp.c ****   err_t result = ERR_MEM;
 991:C:/Users/stapi/OneDrive/Desktop/GD32VW553/V1_MQTT_OK/GD32VW55X_Wifi_BLE_SDK/GD32VW55x_RELEASE_V1.0.2/MSDK/lwip/lwip-2.1.2/src/core/ipv4\etharp.c ****   int is_new_entry = 0;
 992:C:/Users/stapi/OneDrive/Desktop/GD32VW553/V1_MQTT_OK/GD32VW55X_Wifi_BLE_SDK/GD32VW55x_RELEASE_V1.0.2/MSDK/lwip/lwip-2.1.2/src/core/ipv4\etharp.c ****   s16_t i_err;
 993:C:/Users/stapi/OneDrive/Desktop/GD32VW553/V1_MQTT_OK/GD32VW55X_Wifi_BLE_SDK/GD32VW55x_RELEASE_V1.0.2/MSDK/lwip/lwip-2.1.2/src/core/ipv4\etharp.c ****   netif_addr_idx_t i;
 994:C:/Users/stapi/OneDrive/Desktop/GD32VW553/V1_MQTT_OK/GD32VW55X_Wifi_BLE_SDK/GD32VW55x_RELEASE_V1.0.2/MSDK/lwip/lwip-2.1.2/src/core/ipv4\etharp.c **** 
 995:C:/Users/stapi/OneDrive/Desktop/GD32VW553/V1_MQTT_OK/GD32VW55X_Wifi_BLE_SDK/GD32VW55x_RELEASE_V1.0.2/MSDK/lwip/lwip-2.1.2/src/core/ipv4\etharp.c ****   /* non-unicast address? */
 996:C:/Users/stapi/OneDrive/Desktop/GD32VW553/V1_MQTT_OK/GD32VW55X_Wifi_BLE_SDK/GD32VW55x_RELEASE_V1.0.2/MSDK/lwip/lwip-2.1.2/src/core/ipv4\etharp.c ****   if (ip4_addr_isbroadcast(ipaddr, netif) ||
 997:C:/Users/stapi/OneDrive/Desktop/GD32VW553/V1_MQTT_OK/GD32VW55X_Wifi_BLE_SDK/GD32VW55x_RELEASE_V1.0.2/MSDK/lwip/lwip-2.1.2/src/core/ipv4\etharp.c ****       ip4_addr_ismulticast(ipaddr) ||
 998:C:/Users/stapi/OneDrive/Desktop/GD32VW553/V1_MQTT_OK/GD32VW55X_Wifi_BLE_SDK/GD32VW55x_RELEASE_V1.0.2/MSDK/lwip/lwip-2.1.2/src/core/ipv4\etharp.c ****       ip4_addr_isany(ipaddr)) {
 999:C:/Users/stapi/OneDrive/Desktop/GD32VW553/V1_MQTT_OK/GD32VW55X_Wifi_BLE_SDK/GD32VW55x_RELEASE_V1.0.2/MSDK/lwip/lwip-2.1.2/src/core/ipv4\etharp.c ****     LWIP_DEBUGF(ETHARP_DEBUG | LWIP_DBG_TRACE, ("etharp_query: will not add non-unicast IP address 
1000:C:/Users/stapi/OneDrive/Desktop/GD32VW553/V1_MQTT_OK/GD32VW55X_Wifi_BLE_SDK/GD32VW55x_RELEASE_V1.0.2/MSDK/lwip/lwip-2.1.2/src/core/ipv4\etharp.c ****     return ERR_ARG;
1001:C:/Users/stapi/OneDrive/Desktop/GD32VW553/V1_MQTT_OK/GD32VW55X_Wifi_BLE_SDK/GD32VW55x_RELEASE_V1.0.2/MSDK/lwip/lwip-2.1.2/src/core/ipv4\etharp.c ****   }
1002:C:/Users/stapi/OneDrive/Desktop/GD32VW553/V1_MQTT_OK/GD32VW55X_Wifi_BLE_SDK/GD32VW55x_RELEASE_V1.0.2/MSDK/lwip/lwip-2.1.2/src/core/ipv4\etharp.c **** 
1003:C:/Users/stapi/OneDrive/Desktop/GD32VW553/V1_MQTT_OK/GD32VW55X_Wifi_BLE_SDK/GD32VW55x_RELEASE_V1.0.2/MSDK/lwip/lwip-2.1.2/src/core/ipv4\etharp.c ****   /* find entry in ARP cache, ask to create entry if queueing packet */
1004:C:/Users/stapi/OneDrive/Desktop/GD32VW553/V1_MQTT_OK/GD32VW55X_Wifi_BLE_SDK/GD32VW55x_RELEASE_V1.0.2/MSDK/lwip/lwip-2.1.2/src/core/ipv4\etharp.c ****   i_err = etharp_find_entry(ipaddr, ETHARP_FLAG_TRY_HARD, netif);
1005:C:/Users/stapi/OneDrive/Desktop/GD32VW553/V1_MQTT_OK/GD32VW55X_Wifi_BLE_SDK/GD32VW55x_RELEASE_V1.0.2/MSDK/lwip/lwip-2.1.2/src/core/ipv4\etharp.c **** 
1006:C:/Users/stapi/OneDrive/Desktop/GD32VW553/V1_MQTT_OK/GD32VW55X_Wifi_BLE_SDK/GD32VW55x_RELEASE_V1.0.2/MSDK/lwip/lwip-2.1.2/src/core/ipv4\etharp.c ****   /* could not find or create entry? */
1007:C:/Users/stapi/OneDrive/Desktop/GD32VW553/V1_MQTT_OK/GD32VW55X_Wifi_BLE_SDK/GD32VW55x_RELEASE_V1.0.2/MSDK/lwip/lwip-2.1.2/src/core/ipv4\etharp.c ****   if (i_err < 0) {
1008:C:/Users/stapi/OneDrive/Desktop/GD32VW553/V1_MQTT_OK/GD32VW55X_Wifi_BLE_SDK/GD32VW55x_RELEASE_V1.0.2/MSDK/lwip/lwip-2.1.2/src/core/ipv4\etharp.c ****     LWIP_DEBUGF(ETHARP_DEBUG | LWIP_DBG_TRACE, ("etharp_query: could not create ARP entry\n"));
1009:C:/Users/stapi/OneDrive/Desktop/GD32VW553/V1_MQTT_OK/GD32VW55X_Wifi_BLE_SDK/GD32VW55x_RELEASE_V1.0.2/MSDK/lwip/lwip-2.1.2/src/core/ipv4\etharp.c ****     if (q) {
1010:C:/Users/stapi/OneDrive/Desktop/GD32VW553/V1_MQTT_OK/GD32VW55X_Wifi_BLE_SDK/GD32VW55x_RELEASE_V1.0.2/MSDK/lwip/lwip-2.1.2/src/core/ipv4\etharp.c ****       LWIP_DEBUGF(ETHARP_DEBUG | LWIP_DBG_TRACE, ("etharp_query: packet dropped\n"));
1011:C:/Users/stapi/OneDrive/Desktop/GD32VW553/V1_MQTT_OK/GD32VW55X_Wifi_BLE_SDK/GD32VW55x_RELEASE_V1.0.2/MSDK/lwip/lwip-2.1.2/src/core/ipv4\etharp.c ****       ETHARP_STATS_INC(etharp.memerr);
1012:C:/Users/stapi/OneDrive/Desktop/GD32VW553/V1_MQTT_OK/GD32VW55X_Wifi_BLE_SDK/GD32VW55x_RELEASE_V1.0.2/MSDK/lwip/lwip-2.1.2/src/core/ipv4\etharp.c ****     }
1013:C:/Users/stapi/OneDrive/Desktop/GD32VW553/V1_MQTT_OK/GD32VW55X_Wifi_BLE_SDK/GD32VW55x_RELEASE_V1.0.2/MSDK/lwip/lwip-2.1.2/src/core/ipv4\etharp.c ****     return (err_t)i_err;
1014:C:/Users/stapi/OneDrive/Desktop/GD32VW553/V1_MQTT_OK/GD32VW55X_Wifi_BLE_SDK/GD32VW55x_RELEASE_V1.0.2/MSDK/lwip/lwip-2.1.2/src/core/ipv4\etharp.c ****   }
1015:C:/Users/stapi/OneDrive/Desktop/GD32VW553/V1_MQTT_OK/GD32VW55X_Wifi_BLE_SDK/GD32VW55x_RELEASE_V1.0.2/MSDK/lwip/lwip-2.1.2/src/core/ipv4\etharp.c ****   LWIP_ASSERT("type overflow", (size_t)i_err < NETIF_ADDR_IDX_MAX);
1016:C:/Users/stapi/OneDrive/Desktop/GD32VW553/V1_MQTT_OK/GD32VW55X_Wifi_BLE_SDK/GD32VW55x_RELEASE_V1.0.2/MSDK/lwip/lwip-2.1.2/src/core/ipv4\etharp.c ****   i = (netif_addr_idx_t)i_err;
1017:C:/Users/stapi/OneDrive/Desktop/GD32VW553/V1_MQTT_OK/GD32VW55X_Wifi_BLE_SDK/GD32VW55x_RELEASE_V1.0.2/MSDK/lwip/lwip-2.1.2/src/core/ipv4\etharp.c **** 
1018:C:/Users/stapi/OneDrive/Desktop/GD32VW553/V1_MQTT_OK/GD32VW55X_Wifi_BLE_SDK/GD32VW55x_RELEASE_V1.0.2/MSDK/lwip/lwip-2.1.2/src/core/ipv4\etharp.c ****   /* mark a fresh entry as pending (we just sent a request) */
1019:C:/Users/stapi/OneDrive/Desktop/GD32VW553/V1_MQTT_OK/GD32VW55X_Wifi_BLE_SDK/GD32VW55x_RELEASE_V1.0.2/MSDK/lwip/lwip-2.1.2/src/core/ipv4\etharp.c ****   if (arp_table[i].state == ETHARP_STATE_EMPTY) {
1020:C:/Users/stapi/OneDrive/Desktop/GD32VW553/V1_MQTT_OK/GD32VW55X_Wifi_BLE_SDK/GD32VW55x_RELEASE_V1.0.2/MSDK/lwip/lwip-2.1.2/src/core/ipv4\etharp.c ****     is_new_entry = 1;
1021:C:/Users/stapi/OneDrive/Desktop/GD32VW553/V1_MQTT_OK/GD32VW55X_Wifi_BLE_SDK/GD32VW55x_RELEASE_V1.0.2/MSDK/lwip/lwip-2.1.2/src/core/ipv4\etharp.c ****     arp_table[i].state = ETHARP_STATE_PENDING;
1022:C:/Users/stapi/OneDrive/Desktop/GD32VW553/V1_MQTT_OK/GD32VW55X_Wifi_BLE_SDK/GD32VW55x_RELEASE_V1.0.2/MSDK/lwip/lwip-2.1.2/src/core/ipv4\etharp.c ****     /* record network interface for re-sending arp request in etharp_tmr */
1023:C:/Users/stapi/OneDrive/Desktop/GD32VW553/V1_MQTT_OK/GD32VW55X_Wifi_BLE_SDK/GD32VW55x_RELEASE_V1.0.2/MSDK/lwip/lwip-2.1.2/src/core/ipv4\etharp.c ****     arp_table[i].netif = netif;
1024:C:/Users/stapi/OneDrive/Desktop/GD32VW553/V1_MQTT_OK/GD32VW55X_Wifi_BLE_SDK/GD32VW55x_RELEASE_V1.0.2/MSDK/lwip/lwip-2.1.2/src/core/ipv4\etharp.c ****   }
1025:C:/Users/stapi/OneDrive/Desktop/GD32VW553/V1_MQTT_OK/GD32VW55X_Wifi_BLE_SDK/GD32VW55x_RELEASE_V1.0.2/MSDK/lwip/lwip-2.1.2/src/core/ipv4\etharp.c **** 
1026:C:/Users/stapi/OneDrive/Desktop/GD32VW553/V1_MQTT_OK/GD32VW55X_Wifi_BLE_SDK/GD32VW55x_RELEASE_V1.0.2/MSDK/lwip/lwip-2.1.2/src/core/ipv4\etharp.c ****   /* { i is either a STABLE or (new or existing) PENDING entry } */
1027:C:/Users/stapi/OneDrive/Desktop/GD32VW553/V1_MQTT_OK/GD32VW55X_Wifi_BLE_SDK/GD32VW55x_RELEASE_V1.0.2/MSDK/lwip/lwip-2.1.2/src/core/ipv4\etharp.c ****   LWIP_ASSERT("arp_table[i].state == PENDING or STABLE",
1028:C:/Users/stapi/OneDrive/Desktop/GD32VW553/V1_MQTT_OK/GD32VW55X_Wifi_BLE_SDK/GD32VW55x_RELEASE_V1.0.2/MSDK/lwip/lwip-2.1.2/src/core/ipv4\etharp.c ****               ((arp_table[i].state == ETHARP_STATE_PENDING) ||
1029:C:/Users/stapi/OneDrive/Desktop/GD32VW553/V1_MQTT_OK/GD32VW55X_Wifi_BLE_SDK/GD32VW55x_RELEASE_V1.0.2/MSDK/lwip/lwip-2.1.2/src/core/ipv4\etharp.c ****                (arp_table[i].state >= ETHARP_STATE_STABLE)));
1030:C:/Users/stapi/OneDrive/Desktop/GD32VW553/V1_MQTT_OK/GD32VW55X_Wifi_BLE_SDK/GD32VW55x_RELEASE_V1.0.2/MSDK/lwip/lwip-2.1.2/src/core/ipv4\etharp.c **** 
1031:C:/Users/stapi/OneDrive/Desktop/GD32VW553/V1_MQTT_OK/GD32VW55X_Wifi_BLE_SDK/GD32VW55x_RELEASE_V1.0.2/MSDK/lwip/lwip-2.1.2/src/core/ipv4\etharp.c ****   /* do we have a new entry? or an implicit query request? */
1032:C:/Users/stapi/OneDrive/Desktop/GD32VW553/V1_MQTT_OK/GD32VW55X_Wifi_BLE_SDK/GD32VW55x_RELEASE_V1.0.2/MSDK/lwip/lwip-2.1.2/src/core/ipv4\etharp.c ****   if (is_new_entry || (q == NULL)) {
1033:C:/Users/stapi/OneDrive/Desktop/GD32VW553/V1_MQTT_OK/GD32VW55X_Wifi_BLE_SDK/GD32VW55x_RELEASE_V1.0.2/MSDK/lwip/lwip-2.1.2/src/core/ipv4\etharp.c ****     /* try to resolve it; send out ARP request */
1034:C:/Users/stapi/OneDrive/Desktop/GD32VW553/V1_MQTT_OK/GD32VW55X_Wifi_BLE_SDK/GD32VW55x_RELEASE_V1.0.2/MSDK/lwip/lwip-2.1.2/src/core/ipv4\etharp.c ****     result = etharp_request(netif, ipaddr);
1035:C:/Users/stapi/OneDrive/Desktop/GD32VW553/V1_MQTT_OK/GD32VW55X_Wifi_BLE_SDK/GD32VW55x_RELEASE_V1.0.2/MSDK/lwip/lwip-2.1.2/src/core/ipv4\etharp.c ****     if (result != ERR_OK) {
1036:C:/Users/stapi/OneDrive/Desktop/GD32VW553/V1_MQTT_OK/GD32VW55X_Wifi_BLE_SDK/GD32VW55x_RELEASE_V1.0.2/MSDK/lwip/lwip-2.1.2/src/core/ipv4\etharp.c ****       /* ARP request couldn't be sent */
1037:C:/Users/stapi/OneDrive/Desktop/GD32VW553/V1_MQTT_OK/GD32VW55X_Wifi_BLE_SDK/GD32VW55x_RELEASE_V1.0.2/MSDK/lwip/lwip-2.1.2/src/core/ipv4\etharp.c ****       /* We don't re-send arp request in etharp_tmr, but we still queue packets,
1038:C:/Users/stapi/OneDrive/Desktop/GD32VW553/V1_MQTT_OK/GD32VW55X_Wifi_BLE_SDK/GD32VW55x_RELEASE_V1.0.2/MSDK/lwip/lwip-2.1.2/src/core/ipv4\etharp.c ****          since this failure could be temporary, and the next packet calling
1039:C:/Users/stapi/OneDrive/Desktop/GD32VW553/V1_MQTT_OK/GD32VW55X_Wifi_BLE_SDK/GD32VW55x_RELEASE_V1.0.2/MSDK/lwip/lwip-2.1.2/src/core/ipv4\etharp.c ****          etharp_query again could lead to sending the queued packets. */
1040:C:/Users/stapi/OneDrive/Desktop/GD32VW553/V1_MQTT_OK/GD32VW55X_Wifi_BLE_SDK/GD32VW55x_RELEASE_V1.0.2/MSDK/lwip/lwip-2.1.2/src/core/ipv4\etharp.c ****     }
1041:C:/Users/stapi/OneDrive/Desktop/GD32VW553/V1_MQTT_OK/GD32VW55X_Wifi_BLE_SDK/GD32VW55x_RELEASE_V1.0.2/MSDK/lwip/lwip-2.1.2/src/core/ipv4\etharp.c ****     if (q == NULL) {
1042:C:/Users/stapi/OneDrive/Desktop/GD32VW553/V1_MQTT_OK/GD32VW55X_Wifi_BLE_SDK/GD32VW55x_RELEASE_V1.0.2/MSDK/lwip/lwip-2.1.2/src/core/ipv4\etharp.c ****       return result;
1043:C:/Users/stapi/OneDrive/Desktop/GD32VW553/V1_MQTT_OK/GD32VW55X_Wifi_BLE_SDK/GD32VW55x_RELEASE_V1.0.2/MSDK/lwip/lwip-2.1.2/src/core/ipv4\etharp.c ****     }
1044:C:/Users/stapi/OneDrive/Desktop/GD32VW553/V1_MQTT_OK/GD32VW55X_Wifi_BLE_SDK/GD32VW55x_RELEASE_V1.0.2/MSDK/lwip/lwip-2.1.2/src/core/ipv4\etharp.c ****   }
1045:C:/Users/stapi/OneDrive/Desktop/GD32VW553/V1_MQTT_OK/GD32VW55X_Wifi_BLE_SDK/GD32VW55x_RELEASE_V1.0.2/MSDK/lwip/lwip-2.1.2/src/core/ipv4\etharp.c **** 
1046:C:/Users/stapi/OneDrive/Desktop/GD32VW553/V1_MQTT_OK/GD32VW55X_Wifi_BLE_SDK/GD32VW55x_RELEASE_V1.0.2/MSDK/lwip/lwip-2.1.2/src/core/ipv4\etharp.c ****   /* packet given? */
1047:C:/Users/stapi/OneDrive/Desktop/GD32VW553/V1_MQTT_OK/GD32VW55X_Wifi_BLE_SDK/GD32VW55x_RELEASE_V1.0.2/MSDK/lwip/lwip-2.1.2/src/core/ipv4\etharp.c ****   LWIP_ASSERT("q != NULL", q != NULL);
1048:C:/Users/stapi/OneDrive/Desktop/GD32VW553/V1_MQTT_OK/GD32VW55X_Wifi_BLE_SDK/GD32VW55x_RELEASE_V1.0.2/MSDK/lwip/lwip-2.1.2/src/core/ipv4\etharp.c ****   /* stable entry? */
1049:C:/Users/stapi/OneDrive/Desktop/GD32VW553/V1_MQTT_OK/GD32VW55X_Wifi_BLE_SDK/GD32VW55x_RELEASE_V1.0.2/MSDK/lwip/lwip-2.1.2/src/core/ipv4\etharp.c ****   if (arp_table[i].state >= ETHARP_STATE_STABLE) {
1050:C:/Users/stapi/OneDrive/Desktop/GD32VW553/V1_MQTT_OK/GD32VW55X_Wifi_BLE_SDK/GD32VW55x_RELEASE_V1.0.2/MSDK/lwip/lwip-2.1.2/src/core/ipv4\etharp.c ****     /* we have a valid IP->Ethernet address mapping */
1051:C:/Users/stapi/OneDrive/Desktop/GD32VW553/V1_MQTT_OK/GD32VW55X_Wifi_BLE_SDK/GD32VW55x_RELEASE_V1.0.2/MSDK/lwip/lwip-2.1.2/src/core/ipv4\etharp.c ****     ETHARP_SET_ADDRHINT(netif, i);
1052:C:/Users/stapi/OneDrive/Desktop/GD32VW553/V1_MQTT_OK/GD32VW55X_Wifi_BLE_SDK/GD32VW55x_RELEASE_V1.0.2/MSDK/lwip/lwip-2.1.2/src/core/ipv4\etharp.c ****     /* send the packet */
1053:C:/Users/stapi/OneDrive/Desktop/GD32VW553/V1_MQTT_OK/GD32VW55X_Wifi_BLE_SDK/GD32VW55x_RELEASE_V1.0.2/MSDK/lwip/lwip-2.1.2/src/core/ipv4\etharp.c ****     result = ethernet_output(netif, q, srcaddr, &(arp_table[i].ethaddr), ETHTYPE_IP);
1054:C:/Users/stapi/OneDrive/Desktop/GD32VW553/V1_MQTT_OK/GD32VW55X_Wifi_BLE_SDK/GD32VW55x_RELEASE_V1.0.2/MSDK/lwip/lwip-2.1.2/src/core/ipv4\etharp.c ****     /* pending entry? (either just created or already pending */
1055:C:/Users/stapi/OneDrive/Desktop/GD32VW553/V1_MQTT_OK/GD32VW55X_Wifi_BLE_SDK/GD32VW55x_RELEASE_V1.0.2/MSDK/lwip/lwip-2.1.2/src/core/ipv4\etharp.c ****   } else if (arp_table[i].state == ETHARP_STATE_PENDING) {
1056:C:/Users/stapi/OneDrive/Desktop/GD32VW553/V1_MQTT_OK/GD32VW55X_Wifi_BLE_SDK/GD32VW55x_RELEASE_V1.0.2/MSDK/lwip/lwip-2.1.2/src/core/ipv4\etharp.c ****     /* entry is still pending, queue the given packet 'q' */
1057:C:/Users/stapi/OneDrive/Desktop/GD32VW553/V1_MQTT_OK/GD32VW55X_Wifi_BLE_SDK/GD32VW55x_RELEASE_V1.0.2/MSDK/lwip/lwip-2.1.2/src/core/ipv4\etharp.c ****     struct pbuf *p;
1058:C:/Users/stapi/OneDrive/Desktop/GD32VW553/V1_MQTT_OK/GD32VW55X_Wifi_BLE_SDK/GD32VW55x_RELEASE_V1.0.2/MSDK/lwip/lwip-2.1.2/src/core/ipv4\etharp.c ****     int copy_needed = 0;
1059:C:/Users/stapi/OneDrive/Desktop/GD32VW553/V1_MQTT_OK/GD32VW55X_Wifi_BLE_SDK/GD32VW55x_RELEASE_V1.0.2/MSDK/lwip/lwip-2.1.2/src/core/ipv4\etharp.c ****     /* IF q includes a pbuf that must be copied, copy the whole chain into a
1060:C:/Users/stapi/OneDrive/Desktop/GD32VW553/V1_MQTT_OK/GD32VW55X_Wifi_BLE_SDK/GD32VW55x_RELEASE_V1.0.2/MSDK/lwip/lwip-2.1.2/src/core/ipv4\etharp.c ****      * new PBUF_RAM. See the definition of PBUF_NEEDS_COPY for details. */
1061:C:/Users/stapi/OneDrive/Desktop/GD32VW553/V1_MQTT_OK/GD32VW55X_Wifi_BLE_SDK/GD32VW55x_RELEASE_V1.0.2/MSDK/lwip/lwip-2.1.2/src/core/ipv4\etharp.c ****     p = q;
1062:C:/Users/stapi/OneDrive/Desktop/GD32VW553/V1_MQTT_OK/GD32VW55X_Wifi_BLE_SDK/GD32VW55x_RELEASE_V1.0.2/MSDK/lwip/lwip-2.1.2/src/core/ipv4\etharp.c ****     while (p) {
1063:C:/Users/stapi/OneDrive/Desktop/GD32VW553/V1_MQTT_OK/GD32VW55X_Wifi_BLE_SDK/GD32VW55x_RELEASE_V1.0.2/MSDK/lwip/lwip-2.1.2/src/core/ipv4\etharp.c ****       LWIP_ASSERT("no packet queues allowed!", (p->len != p->tot_len) || (p->next == 0));
1064:C:/Users/stapi/OneDrive/Desktop/GD32VW553/V1_MQTT_OK/GD32VW55X_Wifi_BLE_SDK/GD32VW55x_RELEASE_V1.0.2/MSDK/lwip/lwip-2.1.2/src/core/ipv4\etharp.c ****       if (PBUF_NEEDS_COPY(p)) {
1065:C:/Users/stapi/OneDrive/Desktop/GD32VW553/V1_MQTT_OK/GD32VW55X_Wifi_BLE_SDK/GD32VW55x_RELEASE_V1.0.2/MSDK/lwip/lwip-2.1.2/src/core/ipv4\etharp.c ****         copy_needed = 1;
1066:C:/Users/stapi/OneDrive/Desktop/GD32VW553/V1_MQTT_OK/GD32VW55X_Wifi_BLE_SDK/GD32VW55x_RELEASE_V1.0.2/MSDK/lwip/lwip-2.1.2/src/core/ipv4\etharp.c ****         break;
1067:C:/Users/stapi/OneDrive/Desktop/GD32VW553/V1_MQTT_OK/GD32VW55X_Wifi_BLE_SDK/GD32VW55x_RELEASE_V1.0.2/MSDK/lwip/lwip-2.1.2/src/core/ipv4\etharp.c ****       }
1068:C:/Users/stapi/OneDrive/Desktop/GD32VW553/V1_MQTT_OK/GD32VW55X_Wifi_BLE_SDK/GD32VW55x_RELEASE_V1.0.2/MSDK/lwip/lwip-2.1.2/src/core/ipv4\etharp.c ****       p = p->next;
1069:C:/Users/stapi/OneDrive/Desktop/GD32VW553/V1_MQTT_OK/GD32VW55X_Wifi_BLE_SDK/GD32VW55x_RELEASE_V1.0.2/MSDK/lwip/lwip-2.1.2/src/core/ipv4\etharp.c ****     }
1070:C:/Users/stapi/OneDrive/Desktop/GD32VW553/V1_MQTT_OK/GD32VW55X_Wifi_BLE_SDK/GD32VW55x_RELEASE_V1.0.2/MSDK/lwip/lwip-2.1.2/src/core/ipv4\etharp.c ****     if (copy_needed) {
1071:C:/Users/stapi/OneDrive/Desktop/GD32VW553/V1_MQTT_OK/GD32VW55X_Wifi_BLE_SDK/GD32VW55x_RELEASE_V1.0.2/MSDK/lwip/lwip-2.1.2/src/core/ipv4\etharp.c ****       /* copy the whole packet into new pbufs */
1072:C:/Users/stapi/OneDrive/Desktop/GD32VW553/V1_MQTT_OK/GD32VW55X_Wifi_BLE_SDK/GD32VW55x_RELEASE_V1.0.2/MSDK/lwip/lwip-2.1.2/src/core/ipv4\etharp.c ****       p = pbuf_clone(PBUF_LINK, PBUF_RAM, q);
1073:C:/Users/stapi/OneDrive/Desktop/GD32VW553/V1_MQTT_OK/GD32VW55X_Wifi_BLE_SDK/GD32VW55x_RELEASE_V1.0.2/MSDK/lwip/lwip-2.1.2/src/core/ipv4\etharp.c ****     } else {
1074:C:/Users/stapi/OneDrive/Desktop/GD32VW553/V1_MQTT_OK/GD32VW55X_Wifi_BLE_SDK/GD32VW55x_RELEASE_V1.0.2/MSDK/lwip/lwip-2.1.2/src/core/ipv4\etharp.c ****       /* referencing the old pbuf is enough */
1075:C:/Users/stapi/OneDrive/Desktop/GD32VW553/V1_MQTT_OK/GD32VW55X_Wifi_BLE_SDK/GD32VW55x_RELEASE_V1.0.2/MSDK/lwip/lwip-2.1.2/src/core/ipv4\etharp.c ****       p = q;
1076:C:/Users/stapi/OneDrive/Desktop/GD32VW553/V1_MQTT_OK/GD32VW55X_Wifi_BLE_SDK/GD32VW55x_RELEASE_V1.0.2/MSDK/lwip/lwip-2.1.2/src/core/ipv4\etharp.c ****       pbuf_ref(p);
1077:C:/Users/stapi/OneDrive/Desktop/GD32VW553/V1_MQTT_OK/GD32VW55X_Wifi_BLE_SDK/GD32VW55x_RELEASE_V1.0.2/MSDK/lwip/lwip-2.1.2/src/core/ipv4\etharp.c ****     }
1078:C:/Users/stapi/OneDrive/Desktop/GD32VW553/V1_MQTT_OK/GD32VW55X_Wifi_BLE_SDK/GD32VW55x_RELEASE_V1.0.2/MSDK/lwip/lwip-2.1.2/src/core/ipv4\etharp.c ****     /* packet could be taken over? */
1079:C:/Users/stapi/OneDrive/Desktop/GD32VW553/V1_MQTT_OK/GD32VW55X_Wifi_BLE_SDK/GD32VW55x_RELEASE_V1.0.2/MSDK/lwip/lwip-2.1.2/src/core/ipv4\etharp.c ****     if (p != NULL) {
1080:C:/Users/stapi/OneDrive/Desktop/GD32VW553/V1_MQTT_OK/GD32VW55X_Wifi_BLE_SDK/GD32VW55x_RELEASE_V1.0.2/MSDK/lwip/lwip-2.1.2/src/core/ipv4\etharp.c ****       /* queue packet ... */
1081:C:/Users/stapi/OneDrive/Desktop/GD32VW553/V1_MQTT_OK/GD32VW55X_Wifi_BLE_SDK/GD32VW55x_RELEASE_V1.0.2/MSDK/lwip/lwip-2.1.2/src/core/ipv4\etharp.c **** #if ARP_QUEUEING
1082:C:/Users/stapi/OneDrive/Desktop/GD32VW553/V1_MQTT_OK/GD32VW55X_Wifi_BLE_SDK/GD32VW55x_RELEASE_V1.0.2/MSDK/lwip/lwip-2.1.2/src/core/ipv4\etharp.c ****       struct etharp_q_entry *new_entry;
1083:C:/Users/stapi/OneDrive/Desktop/GD32VW553/V1_MQTT_OK/GD32VW55X_Wifi_BLE_SDK/GD32VW55x_RELEASE_V1.0.2/MSDK/lwip/lwip-2.1.2/src/core/ipv4\etharp.c ****       /* allocate a new arp queue entry */
1084:C:/Users/stapi/OneDrive/Desktop/GD32VW553/V1_MQTT_OK/GD32VW55X_Wifi_BLE_SDK/GD32VW55x_RELEASE_V1.0.2/MSDK/lwip/lwip-2.1.2/src/core/ipv4\etharp.c ****       new_entry = (struct etharp_q_entry *)memp_malloc(MEMP_ARP_QUEUE);
1085:C:/Users/stapi/OneDrive/Desktop/GD32VW553/V1_MQTT_OK/GD32VW55X_Wifi_BLE_SDK/GD32VW55x_RELEASE_V1.0.2/MSDK/lwip/lwip-2.1.2/src/core/ipv4\etharp.c ****       if (new_entry != NULL) {
1086:C:/Users/stapi/OneDrive/Desktop/GD32VW553/V1_MQTT_OK/GD32VW55X_Wifi_BLE_SDK/GD32VW55x_RELEASE_V1.0.2/MSDK/lwip/lwip-2.1.2/src/core/ipv4\etharp.c ****         unsigned int qlen = 0;
1087:C:/Users/stapi/OneDrive/Desktop/GD32VW553/V1_MQTT_OK/GD32VW55X_Wifi_BLE_SDK/GD32VW55x_RELEASE_V1.0.2/MSDK/lwip/lwip-2.1.2/src/core/ipv4\etharp.c ****         new_entry->next = 0;
1088:C:/Users/stapi/OneDrive/Desktop/GD32VW553/V1_MQTT_OK/GD32VW55X_Wifi_BLE_SDK/GD32VW55x_RELEASE_V1.0.2/MSDK/lwip/lwip-2.1.2/src/core/ipv4\etharp.c ****         new_entry->p = p;
1089:C:/Users/stapi/OneDrive/Desktop/GD32VW553/V1_MQTT_OK/GD32VW55X_Wifi_BLE_SDK/GD32VW55x_RELEASE_V1.0.2/MSDK/lwip/lwip-2.1.2/src/core/ipv4\etharp.c ****         if (arp_table[i].q != NULL) {
1090:C:/Users/stapi/OneDrive/Desktop/GD32VW553/V1_MQTT_OK/GD32VW55X_Wifi_BLE_SDK/GD32VW55x_RELEASE_V1.0.2/MSDK/lwip/lwip-2.1.2/src/core/ipv4\etharp.c ****           /* queue was already existent, append the new entry to the end */
1091:C:/Users/stapi/OneDrive/Desktop/GD32VW553/V1_MQTT_OK/GD32VW55X_Wifi_BLE_SDK/GD32VW55x_RELEASE_V1.0.2/MSDK/lwip/lwip-2.1.2/src/core/ipv4\etharp.c ****           struct etharp_q_entry *r;
1092:C:/Users/stapi/OneDrive/Desktop/GD32VW553/V1_MQTT_OK/GD32VW55X_Wifi_BLE_SDK/GD32VW55x_RELEASE_V1.0.2/MSDK/lwip/lwip-2.1.2/src/core/ipv4\etharp.c ****           r = arp_table[i].q;
1093:C:/Users/stapi/OneDrive/Desktop/GD32VW553/V1_MQTT_OK/GD32VW55X_Wifi_BLE_SDK/GD32VW55x_RELEASE_V1.0.2/MSDK/lwip/lwip-2.1.2/src/core/ipv4\etharp.c ****           qlen++;
1094:C:/Users/stapi/OneDrive/Desktop/GD32VW553/V1_MQTT_OK/GD32VW55X_Wifi_BLE_SDK/GD32VW55x_RELEASE_V1.0.2/MSDK/lwip/lwip-2.1.2/src/core/ipv4\etharp.c ****           while (r->next != NULL) {
1095:C:/Users/stapi/OneDrive/Desktop/GD32VW553/V1_MQTT_OK/GD32VW55X_Wifi_BLE_SDK/GD32VW55x_RELEASE_V1.0.2/MSDK/lwip/lwip-2.1.2/src/core/ipv4\etharp.c ****             r = r->next;
1096:C:/Users/stapi/OneDrive/Desktop/GD32VW553/V1_MQTT_OK/GD32VW55X_Wifi_BLE_SDK/GD32VW55x_RELEASE_V1.0.2/MSDK/lwip/lwip-2.1.2/src/core/ipv4\etharp.c ****             qlen++;
1097:C:/Users/stapi/OneDrive/Desktop/GD32VW553/V1_MQTT_OK/GD32VW55X_Wifi_BLE_SDK/GD32VW55x_RELEASE_V1.0.2/MSDK/lwip/lwip-2.1.2/src/core/ipv4\etharp.c ****           }
1098:C:/Users/stapi/OneDrive/Desktop/GD32VW553/V1_MQTT_OK/GD32VW55X_Wifi_BLE_SDK/GD32VW55x_RELEASE_V1.0.2/MSDK/lwip/lwip-2.1.2/src/core/ipv4\etharp.c ****           r->next = new_entry;
1099:C:/Users/stapi/OneDrive/Desktop/GD32VW553/V1_MQTT_OK/GD32VW55X_Wifi_BLE_SDK/GD32VW55x_RELEASE_V1.0.2/MSDK/lwip/lwip-2.1.2/src/core/ipv4\etharp.c ****         } else {
1100:C:/Users/stapi/OneDrive/Desktop/GD32VW553/V1_MQTT_OK/GD32VW55X_Wifi_BLE_SDK/GD32VW55x_RELEASE_V1.0.2/MSDK/lwip/lwip-2.1.2/src/core/ipv4\etharp.c ****           /* queue did not exist, first item in queue */
1101:C:/Users/stapi/OneDrive/Desktop/GD32VW553/V1_MQTT_OK/GD32VW55X_Wifi_BLE_SDK/GD32VW55x_RELEASE_V1.0.2/MSDK/lwip/lwip-2.1.2/src/core/ipv4\etharp.c ****           arp_table[i].q = new_entry;
1102:C:/Users/stapi/OneDrive/Desktop/GD32VW553/V1_MQTT_OK/GD32VW55X_Wifi_BLE_SDK/GD32VW55x_RELEASE_V1.0.2/MSDK/lwip/lwip-2.1.2/src/core/ipv4\etharp.c ****         }
1103:C:/Users/stapi/OneDrive/Desktop/GD32VW553/V1_MQTT_OK/GD32VW55X_Wifi_BLE_SDK/GD32VW55x_RELEASE_V1.0.2/MSDK/lwip/lwip-2.1.2/src/core/ipv4\etharp.c **** #if ARP_QUEUE_LEN
1104:C:/Users/stapi/OneDrive/Desktop/GD32VW553/V1_MQTT_OK/GD32VW55X_Wifi_BLE_SDK/GD32VW55x_RELEASE_V1.0.2/MSDK/lwip/lwip-2.1.2/src/core/ipv4\etharp.c ****         if (qlen >= ARP_QUEUE_LEN) {
1105:C:/Users/stapi/OneDrive/Desktop/GD32VW553/V1_MQTT_OK/GD32VW55X_Wifi_BLE_SDK/GD32VW55x_RELEASE_V1.0.2/MSDK/lwip/lwip-2.1.2/src/core/ipv4\etharp.c ****           struct etharp_q_entry *old;
1106:C:/Users/stapi/OneDrive/Desktop/GD32VW553/V1_MQTT_OK/GD32VW55X_Wifi_BLE_SDK/GD32VW55x_RELEASE_V1.0.2/MSDK/lwip/lwip-2.1.2/src/core/ipv4\etharp.c ****           old = arp_table[i].q;
1107:C:/Users/stapi/OneDrive/Desktop/GD32VW553/V1_MQTT_OK/GD32VW55X_Wifi_BLE_SDK/GD32VW55x_RELEASE_V1.0.2/MSDK/lwip/lwip-2.1.2/src/core/ipv4\etharp.c ****           arp_table[i].q = arp_table[i].q->next;
1108:C:/Users/stapi/OneDrive/Desktop/GD32VW553/V1_MQTT_OK/GD32VW55X_Wifi_BLE_SDK/GD32VW55x_RELEASE_V1.0.2/MSDK/lwip/lwip-2.1.2/src/core/ipv4\etharp.c ****           pbuf_free(old->p);
1109:C:/Users/stapi/OneDrive/Desktop/GD32VW553/V1_MQTT_OK/GD32VW55X_Wifi_BLE_SDK/GD32VW55x_RELEASE_V1.0.2/MSDK/lwip/lwip-2.1.2/src/core/ipv4\etharp.c ****           memp_free(MEMP_ARP_QUEUE, old);
1110:C:/Users/stapi/OneDrive/Desktop/GD32VW553/V1_MQTT_OK/GD32VW55X_Wifi_BLE_SDK/GD32VW55x_RELEASE_V1.0.2/MSDK/lwip/lwip-2.1.2/src/core/ipv4\etharp.c ****         }
1111:C:/Users/stapi/OneDrive/Desktop/GD32VW553/V1_MQTT_OK/GD32VW55X_Wifi_BLE_SDK/GD32VW55x_RELEASE_V1.0.2/MSDK/lwip/lwip-2.1.2/src/core/ipv4\etharp.c **** #endif
1112:C:/Users/stapi/OneDrive/Desktop/GD32VW553/V1_MQTT_OK/GD32VW55X_Wifi_BLE_SDK/GD32VW55x_RELEASE_V1.0.2/MSDK/lwip/lwip-2.1.2/src/core/ipv4\etharp.c ****         LWIP_DEBUGF(ETHARP_DEBUG | LWIP_DBG_TRACE, ("etharp_query: queued packet %p on ARP entry %"
1113:C:/Users/stapi/OneDrive/Desktop/GD32VW553/V1_MQTT_OK/GD32VW55X_Wifi_BLE_SDK/GD32VW55x_RELEASE_V1.0.2/MSDK/lwip/lwip-2.1.2/src/core/ipv4\etharp.c ****         result = ERR_OK;
1114:C:/Users/stapi/OneDrive/Desktop/GD32VW553/V1_MQTT_OK/GD32VW55X_Wifi_BLE_SDK/GD32VW55x_RELEASE_V1.0.2/MSDK/lwip/lwip-2.1.2/src/core/ipv4\etharp.c ****       } else {
1115:C:/Users/stapi/OneDrive/Desktop/GD32VW553/V1_MQTT_OK/GD32VW55X_Wifi_BLE_SDK/GD32VW55x_RELEASE_V1.0.2/MSDK/lwip/lwip-2.1.2/src/core/ipv4\etharp.c ****         /* the pool MEMP_ARP_QUEUE is empty */
1116:C:/Users/stapi/OneDrive/Desktop/GD32VW553/V1_MQTT_OK/GD32VW55X_Wifi_BLE_SDK/GD32VW55x_RELEASE_V1.0.2/MSDK/lwip/lwip-2.1.2/src/core/ipv4\etharp.c ****         pbuf_free(p);
1117:C:/Users/stapi/OneDrive/Desktop/GD32VW553/V1_MQTT_OK/GD32VW55X_Wifi_BLE_SDK/GD32VW55x_RELEASE_V1.0.2/MSDK/lwip/lwip-2.1.2/src/core/ipv4\etharp.c ****         LWIP_DEBUGF(ETHARP_DEBUG | LWIP_DBG_TRACE, ("etharp_query: could not queue a copy of PBUF_R
1118:C:/Users/stapi/OneDrive/Desktop/GD32VW553/V1_MQTT_OK/GD32VW55X_Wifi_BLE_SDK/GD32VW55x_RELEASE_V1.0.2/MSDK/lwip/lwip-2.1.2/src/core/ipv4\etharp.c ****         result = ERR_MEM;
1119:C:/Users/stapi/OneDrive/Desktop/GD32VW553/V1_MQTT_OK/GD32VW55X_Wifi_BLE_SDK/GD32VW55x_RELEASE_V1.0.2/MSDK/lwip/lwip-2.1.2/src/core/ipv4\etharp.c ****       }
1120:C:/Users/stapi/OneDrive/Desktop/GD32VW553/V1_MQTT_OK/GD32VW55X_Wifi_BLE_SDK/GD32VW55x_RELEASE_V1.0.2/MSDK/lwip/lwip-2.1.2/src/core/ipv4\etharp.c **** #else /* ARP_QUEUEING */
1121:C:/Users/stapi/OneDrive/Desktop/GD32VW553/V1_MQTT_OK/GD32VW55X_Wifi_BLE_SDK/GD32VW55x_RELEASE_V1.0.2/MSDK/lwip/lwip-2.1.2/src/core/ipv4\etharp.c ****       /* always queue one packet per ARP request only, freeing a previously queued packet */
1122:C:/Users/stapi/OneDrive/Desktop/GD32VW553/V1_MQTT_OK/GD32VW55X_Wifi_BLE_SDK/GD32VW55x_RELEASE_V1.0.2/MSDK/lwip/lwip-2.1.2/src/core/ipv4\etharp.c ****       if (arp_table[i].q != NULL) {
1123:C:/Users/stapi/OneDrive/Desktop/GD32VW553/V1_MQTT_OK/GD32VW55X_Wifi_BLE_SDK/GD32VW55x_RELEASE_V1.0.2/MSDK/lwip/lwip-2.1.2/src/core/ipv4\etharp.c ****         LWIP_DEBUGF(ETHARP_DEBUG | LWIP_DBG_TRACE, ("etharp_query: dropped previously queued packet
1124:C:/Users/stapi/OneDrive/Desktop/GD32VW553/V1_MQTT_OK/GD32VW55X_Wifi_BLE_SDK/GD32VW55x_RELEASE_V1.0.2/MSDK/lwip/lwip-2.1.2/src/core/ipv4\etharp.c ****         pbuf_free(arp_table[i].q);
1125:C:/Users/stapi/OneDrive/Desktop/GD32VW553/V1_MQTT_OK/GD32VW55X_Wifi_BLE_SDK/GD32VW55x_RELEASE_V1.0.2/MSDK/lwip/lwip-2.1.2/src/core/ipv4\etharp.c ****       }
1126:C:/Users/stapi/OneDrive/Desktop/GD32VW553/V1_MQTT_OK/GD32VW55X_Wifi_BLE_SDK/GD32VW55x_RELEASE_V1.0.2/MSDK/lwip/lwip-2.1.2/src/core/ipv4\etharp.c ****       arp_table[i].q = p;
1127:C:/Users/stapi/OneDrive/Desktop/GD32VW553/V1_MQTT_OK/GD32VW55X_Wifi_BLE_SDK/GD32VW55x_RELEASE_V1.0.2/MSDK/lwip/lwip-2.1.2/src/core/ipv4\etharp.c ****       result = ERR_OK;
1128:C:/Users/stapi/OneDrive/Desktop/GD32VW553/V1_MQTT_OK/GD32VW55X_Wifi_BLE_SDK/GD32VW55x_RELEASE_V1.0.2/MSDK/lwip/lwip-2.1.2/src/core/ipv4\etharp.c ****       LWIP_DEBUGF(ETHARP_DEBUG | LWIP_DBG_TRACE, ("etharp_query: queued packet %p on ARP entry %"U1
1129:C:/Users/stapi/OneDrive/Desktop/GD32VW553/V1_MQTT_OK/GD32VW55X_Wifi_BLE_SDK/GD32VW55x_RELEASE_V1.0.2/MSDK/lwip/lwip-2.1.2/src/core/ipv4\etharp.c **** #endif /* ARP_QUEUEING */
1130:C:/Users/stapi/OneDrive/Desktop/GD32VW553/V1_MQTT_OK/GD32VW55X_Wifi_BLE_SDK/GD32VW55x_RELEASE_V1.0.2/MSDK/lwip/lwip-2.1.2/src/core/ipv4\etharp.c ****     } else {
1131:C:/Users/stapi/OneDrive/Desktop/GD32VW553/V1_MQTT_OK/GD32VW55X_Wifi_BLE_SDK/GD32VW55x_RELEASE_V1.0.2/MSDK/lwip/lwip-2.1.2/src/core/ipv4\etharp.c ****       ETHARP_STATS_INC(etharp.memerr);
1132:C:/Users/stapi/OneDrive/Desktop/GD32VW553/V1_MQTT_OK/GD32VW55X_Wifi_BLE_SDK/GD32VW55x_RELEASE_V1.0.2/MSDK/lwip/lwip-2.1.2/src/core/ipv4\etharp.c ****       LWIP_DEBUGF(ETHARP_DEBUG | LWIP_DBG_TRACE, ("etharp_query: could not queue a copy of PBUF_REF
1133:C:/Users/stapi/OneDrive/Desktop/GD32VW553/V1_MQTT_OK/GD32VW55X_Wifi_BLE_SDK/GD32VW55x_RELEASE_V1.0.2/MSDK/lwip/lwip-2.1.2/src/core/ipv4\etharp.c ****       result = ERR_MEM;
1134:C:/Users/stapi/OneDrive/Desktop/GD32VW553/V1_MQTT_OK/GD32VW55X_Wifi_BLE_SDK/GD32VW55x_RELEASE_V1.0.2/MSDK/lwip/lwip-2.1.2/src/core/ipv4\etharp.c ****     }
1135:C:/Users/stapi/OneDrive/Desktop/GD32VW553/V1_MQTT_OK/GD32VW55X_Wifi_BLE_SDK/GD32VW55x_RELEASE_V1.0.2/MSDK/lwip/lwip-2.1.2/src/core/ipv4\etharp.c ****   }
1136:C:/Users/stapi/OneDrive/Desktop/GD32VW553/V1_MQTT_OK/GD32VW55X_Wifi_BLE_SDK/GD32VW55x_RELEASE_V1.0.2/MSDK/lwip/lwip-2.1.2/src/core/ipv4\etharp.c ****   return result;
1137:C:/Users/stapi/OneDrive/Desktop/GD32VW553/V1_MQTT_OK/GD32VW55X_Wifi_BLE_SDK/GD32VW55x_RELEASE_V1.0.2/MSDK/lwip/lwip-2.1.2/src/core/ipv4\etharp.c **** }
1138:C:/Users/stapi/OneDrive/Desktop/GD32VW553/V1_MQTT_OK/GD32VW55X_Wifi_BLE_SDK/GD32VW55x_RELEASE_V1.0.2/MSDK/lwip/lwip-2.1.2/src/core/ipv4\etharp.c **** 
1139:C:/Users/stapi/OneDrive/Desktop/GD32VW553/V1_MQTT_OK/GD32VW55X_Wifi_BLE_SDK/GD32VW55x_RELEASE_V1.0.2/MSDK/lwip/lwip-2.1.2/src/core/ipv4\etharp.c **** /**
1140:C:/Users/stapi/OneDrive/Desktop/GD32VW553/V1_MQTT_OK/GD32VW55X_Wifi_BLE_SDK/GD32VW55x_RELEASE_V1.0.2/MSDK/lwip/lwip-2.1.2/src/core/ipv4\etharp.c ****  * Send a raw ARP packet (opcode and all addresses can be modified)
1141:C:/Users/stapi/OneDrive/Desktop/GD32VW553/V1_MQTT_OK/GD32VW55X_Wifi_BLE_SDK/GD32VW55x_RELEASE_V1.0.2/MSDK/lwip/lwip-2.1.2/src/core/ipv4\etharp.c ****  *
1142:C:/Users/stapi/OneDrive/Desktop/GD32VW553/V1_MQTT_OK/GD32VW55X_Wifi_BLE_SDK/GD32VW55x_RELEASE_V1.0.2/MSDK/lwip/lwip-2.1.2/src/core/ipv4\etharp.c ****  * @param netif the lwip network interface on which to send the ARP packet
1143:C:/Users/stapi/OneDrive/Desktop/GD32VW553/V1_MQTT_OK/GD32VW55X_Wifi_BLE_SDK/GD32VW55x_RELEASE_V1.0.2/MSDK/lwip/lwip-2.1.2/src/core/ipv4\etharp.c ****  * @param ethsrc_addr the source MAC address for the ethernet header
1144:C:/Users/stapi/OneDrive/Desktop/GD32VW553/V1_MQTT_OK/GD32VW55X_Wifi_BLE_SDK/GD32VW55x_RELEASE_V1.0.2/MSDK/lwip/lwip-2.1.2/src/core/ipv4\etharp.c ****  * @param ethdst_addr the destination MAC address for the ethernet header
1145:C:/Users/stapi/OneDrive/Desktop/GD32VW553/V1_MQTT_OK/GD32VW55X_Wifi_BLE_SDK/GD32VW55x_RELEASE_V1.0.2/MSDK/lwip/lwip-2.1.2/src/core/ipv4\etharp.c ****  * @param hwsrc_addr the source MAC address for the ARP protocol header
1146:C:/Users/stapi/OneDrive/Desktop/GD32VW553/V1_MQTT_OK/GD32VW55X_Wifi_BLE_SDK/GD32VW55x_RELEASE_V1.0.2/MSDK/lwip/lwip-2.1.2/src/core/ipv4\etharp.c ****  * @param ipsrc_addr the source IP address for the ARP protocol header
1147:C:/Users/stapi/OneDrive/Desktop/GD32VW553/V1_MQTT_OK/GD32VW55X_Wifi_BLE_SDK/GD32VW55x_RELEASE_V1.0.2/MSDK/lwip/lwip-2.1.2/src/core/ipv4\etharp.c ****  * @param hwdst_addr the destination MAC address for the ARP protocol header
1148:C:/Users/stapi/OneDrive/Desktop/GD32VW553/V1_MQTT_OK/GD32VW55X_Wifi_BLE_SDK/GD32VW55x_RELEASE_V1.0.2/MSDK/lwip/lwip-2.1.2/src/core/ipv4\etharp.c ****  * @param ipdst_addr the destination IP address for the ARP protocol header
1149:C:/Users/stapi/OneDrive/Desktop/GD32VW553/V1_MQTT_OK/GD32VW55X_Wifi_BLE_SDK/GD32VW55x_RELEASE_V1.0.2/MSDK/lwip/lwip-2.1.2/src/core/ipv4\etharp.c ****  * @param opcode the type of the ARP packet
1150:C:/Users/stapi/OneDrive/Desktop/GD32VW553/V1_MQTT_OK/GD32VW55X_Wifi_BLE_SDK/GD32VW55x_RELEASE_V1.0.2/MSDK/lwip/lwip-2.1.2/src/core/ipv4\etharp.c ****  * @return ERR_OK if the ARP packet has been sent
1151:C:/Users/stapi/OneDrive/Desktop/GD32VW553/V1_MQTT_OK/GD32VW55X_Wifi_BLE_SDK/GD32VW55x_RELEASE_V1.0.2/MSDK/lwip/lwip-2.1.2/src/core/ipv4\etharp.c ****  *         ERR_MEM if the ARP packet couldn't be allocated
1152:C:/Users/stapi/OneDrive/Desktop/GD32VW553/V1_MQTT_OK/GD32VW55X_Wifi_BLE_SDK/GD32VW55x_RELEASE_V1.0.2/MSDK/lwip/lwip-2.1.2/src/core/ipv4\etharp.c ****  *         any other err_t on failure
1153:C:/Users/stapi/OneDrive/Desktop/GD32VW553/V1_MQTT_OK/GD32VW55X_Wifi_BLE_SDK/GD32VW55x_RELEASE_V1.0.2/MSDK/lwip/lwip-2.1.2/src/core/ipv4\etharp.c ****  */
1154:C:/Users/stapi/OneDrive/Desktop/GD32VW553/V1_MQTT_OK/GD32VW55X_Wifi_BLE_SDK/GD32VW55x_RELEASE_V1.0.2/MSDK/lwip/lwip-2.1.2/src/core/ipv4\etharp.c **** static err_t
1155:C:/Users/stapi/OneDrive/Desktop/GD32VW553/V1_MQTT_OK/GD32VW55X_Wifi_BLE_SDK/GD32VW55x_RELEASE_V1.0.2/MSDK/lwip/lwip-2.1.2/src/core/ipv4\etharp.c **** etharp_raw(struct netif *netif, const struct eth_addr *ethsrc_addr,
1156:C:/Users/stapi/OneDrive/Desktop/GD32VW553/V1_MQTT_OK/GD32VW55X_Wifi_BLE_SDK/GD32VW55x_RELEASE_V1.0.2/MSDK/lwip/lwip-2.1.2/src/core/ipv4\etharp.c ****            const struct eth_addr *ethdst_addr,
1157:C:/Users/stapi/OneDrive/Desktop/GD32VW553/V1_MQTT_OK/GD32VW55X_Wifi_BLE_SDK/GD32VW55x_RELEASE_V1.0.2/MSDK/lwip/lwip-2.1.2/src/core/ipv4\etharp.c ****            const struct eth_addr *hwsrc_addr, const ip4_addr_t *ipsrc_addr,
1158:C:/Users/stapi/OneDrive/Desktop/GD32VW553/V1_MQTT_OK/GD32VW55X_Wifi_BLE_SDK/GD32VW55x_RELEASE_V1.0.2/MSDK/lwip/lwip-2.1.2/src/core/ipv4\etharp.c ****            const struct eth_addr *hwdst_addr, const ip4_addr_t *ipdst_addr,
1159:C:/Users/stapi/OneDrive/Desktop/GD32VW553/V1_MQTT_OK/GD32VW55X_Wifi_BLE_SDK/GD32VW55x_RELEASE_V1.0.2/MSDK/lwip/lwip-2.1.2/src/core/ipv4\etharp.c ****            const u16_t opcode)
1160:C:/Users/stapi/OneDrive/Desktop/GD32VW553/V1_MQTT_OK/GD32VW55X_Wifi_BLE_SDK/GD32VW55x_RELEASE_V1.0.2/MSDK/lwip/lwip-2.1.2/src/core/ipv4\etharp.c **** {
 370              		.loc 1 1160 1
 371              		.cfi_startproc
 372              	.LVL36:
 373 0000 17030000 		call	t0,__riscv_save_10
 373      E7020300 
 374              		.cfi_offset 25, -44
 375              		.cfi_offset 24, -40
 376              		.cfi_offset 23, -36
 377              		.cfi_offset 22, -32
 378              		.cfi_offset 21, -28
 379              		.cfi_offset 20, -24
 380              		.cfi_offset 19, -20
 381              		.cfi_offset 18, -16
 382              		.cfi_offset 9, -12
 383              		.cfi_offset 8, -8
 384              		.cfi_offset 1, -4
 385              		.cfi_def_cfa_offset 48
1161:C:/Users/stapi/OneDrive/Desktop/GD32VW553/V1_MQTT_OK/GD32VW55X_Wifi_BLE_SDK/GD32VW55x_RELEASE_V1.0.2/MSDK/lwip/lwip-2.1.2/src/core/ipv4\etharp.c ****   struct pbuf *p;
 386              		.loc 1 1161 3
1162:C:/Users/stapi/OneDrive/Desktop/GD32VW553/V1_MQTT_OK/GD32VW55X_Wifi_BLE_SDK/GD32VW55x_RELEASE_V1.0.2/MSDK/lwip/lwip-2.1.2/src/core/ipv4\etharp.c ****   err_t result = ERR_OK;
 387              		.loc 1 1162 3
 388              	.LVL37:
1163:C:/Users/stapi/OneDrive/Desktop/GD32VW553/V1_MQTT_OK/GD32VW55X_Wifi_BLE_SDK/GD32VW55x_RELEASE_V1.0.2/MSDK/lwip/lwip-2.1.2/src/core/ipv4\etharp.c ****   struct etharp_hdr *hdr;
 389              		.loc 1 1163 3
1164:C:/Users/stapi/OneDrive/Desktop/GD32VW553/V1_MQTT_OK/GD32VW55X_Wifi_BLE_SDK/GD32VW55x_RELEASE_V1.0.2/MSDK/lwip/lwip-2.1.2/src/core/ipv4\etharp.c **** 
1165:C:/Users/stapi/OneDrive/Desktop/GD32VW553/V1_MQTT_OK/GD32VW55X_Wifi_BLE_SDK/GD32VW55x_RELEASE_V1.0.2/MSDK/lwip/lwip-2.1.2/src/core/ipv4\etharp.c ****   LWIP_ASSERT("netif != NULL", netif != NULL);
 390              		.loc 1 1165 3
 391              		.loc 1 1165 3
 392 0008 05E5     		bne	a0,zero,.L48
 393              		.loc 1 1165 3 discriminator 1
 394              		.loc 1 1165 3 discriminator 1
 395 000a B7060000 		lui	a3,%hi(.LC0)
 396              	.LVL38:
 397 000e B7050000 		lui	a1,%hi(.LC4)
 398              	.LVL39:
 399 0012 37050000 		lui	a0,%hi(.LC2)
 400              	.LVL40:
 401 0016 93860600 		addi	a3,a3,%lo(.LC0)
 402 001a 1306D048 		li	a2,1165
 403              	.LVL41:
 404 001e 93850500 		addi	a1,a1,%lo(.LC4)
 405 0022 13050500 		addi	a0,a0,%lo(.LC2)
 406 0026 97000000 		call	printf
 406      E7800000 
 407              	.LVL42:
 408              	.L49:
 409              		.loc 1 1165 3 discriminator 1
 410              		.loc 1 1165 3 discriminator 1
 411              		.loc 1 1165 3 discriminator 1
 412 002e 01A0     		j	.L49
 413              	.LVL43:
 414              	.L48:
 415 0030 2A89     		mv	s2,a0
 416 0032 AE89     		mv	s3,a1
 417 0034 328A     		mv	s4,a2
1166:C:/Users/stapi/OneDrive/Desktop/GD32VW553/V1_MQTT_OK/GD32VW55X_Wifi_BLE_SDK/GD32VW55x_RELEASE_V1.0.2/MSDK/lwip/lwip-2.1.2/src/core/ipv4\etharp.c **** 
1167:C:/Users/stapi/OneDrive/Desktop/GD32VW553/V1_MQTT_OK/GD32VW55X_Wifi_BLE_SDK/GD32VW55x_RELEASE_V1.0.2/MSDK/lwip/lwip-2.1.2/src/core/ipv4\etharp.c ****   /* allocate a pbuf for the outgoing ARP request packet */
1168:C:/Users/stapi/OneDrive/Desktop/GD32VW553/V1_MQTT_OK/GD32VW55X_Wifi_BLE_SDK/GD32VW55x_RELEASE_V1.0.2/MSDK/lwip/lwip-2.1.2/src/core/ipv4\etharp.c ****   p = pbuf_alloc(PBUF_LINK, SIZEOF_ETHARP_HDR, PBUF_RAM);
 418              		.loc 1 1168 7 is_stmt 0 discriminator 2
 419 0036 F145     		li	a1,28
 420              	.LVL44:
 421 0038 13060028 		li	a2,640
 422              	.LVL45:
 423 003c 1305A016 		li	a0,362
 424              	.LVL46:
 425 0040 368C     		mv	s8,a3
 426 0042 3A8B     		mv	s6,a4
 427 0044 BE8B     		mv	s7,a5
 428 0046 C28A     		mv	s5,a6
 429 0048 C68C     		mv	s9,a7
1165:C:/Users/stapi/OneDrive/Desktop/GD32VW553/V1_MQTT_OK/GD32VW55X_Wifi_BLE_SDK/GD32VW55x_RELEASE_V1.0.2/MSDK/lwip/lwip-2.1.2/src/core/ipv4\etharp.c **** 
 430              		.loc 1 1165 3 is_stmt 1 discriminator 2
1165:C:/Users/stapi/OneDrive/Desktop/GD32VW553/V1_MQTT_OK/GD32VW55X_Wifi_BLE_SDK/GD32VW55x_RELEASE_V1.0.2/MSDK/lwip/lwip-2.1.2/src/core/ipv4\etharp.c **** 
 431              		.loc 1 1165 3 discriminator 2
 432              		.loc 1 1168 3 discriminator 2
 433              		.loc 1 1168 7 is_stmt 0 discriminator 2
 434 004a 97000000 		call	pbuf_alloc
 434      E7800000 
 435              	.LVL47:
 436 0052 AA84     		mv	s1,a0
 437              	.LVL48:
1169:C:/Users/stapi/OneDrive/Desktop/GD32VW553/V1_MQTT_OK/GD32VW55X_Wifi_BLE_SDK/GD32VW55x_RELEASE_V1.0.2/MSDK/lwip/lwip-2.1.2/src/core/ipv4\etharp.c ****   /* could allocate a pbuf for an ARP request? */
1170:C:/Users/stapi/OneDrive/Desktop/GD32VW553/V1_MQTT_OK/GD32VW55X_Wifi_BLE_SDK/GD32VW55x_RELEASE_V1.0.2/MSDK/lwip/lwip-2.1.2/src/core/ipv4\etharp.c ****   if (p == NULL) {
 438              		.loc 1 1170 3 is_stmt 1 discriminator 2
 439              		.loc 1 1170 6 is_stmt 0 discriminator 2
 440 0054 63020510 		beq	a0,zero,.L55
1171:C:/Users/stapi/OneDrive/Desktop/GD32VW553/V1_MQTT_OK/GD32VW55X_Wifi_BLE_SDK/GD32VW55x_RELEASE_V1.0.2/MSDK/lwip/lwip-2.1.2/src/core/ipv4\etharp.c ****     LWIP_DEBUGF(ETHARP_DEBUG | LWIP_DBG_TRACE | LWIP_DBG_LEVEL_SERIOUS,
1172:C:/Users/stapi/OneDrive/Desktop/GD32VW553/V1_MQTT_OK/GD32VW55X_Wifi_BLE_SDK/GD32VW55x_RELEASE_V1.0.2/MSDK/lwip/lwip-2.1.2/src/core/ipv4\etharp.c ****                 ("etharp_raw: could not allocate pbuf for ARP request.\n"));
1173:C:/Users/stapi/OneDrive/Desktop/GD32VW553/V1_MQTT_OK/GD32VW55X_Wifi_BLE_SDK/GD32VW55x_RELEASE_V1.0.2/MSDK/lwip/lwip-2.1.2/src/core/ipv4\etharp.c ****     ETHARP_STATS_INC(etharp.memerr);
1174:C:/Users/stapi/OneDrive/Desktop/GD32VW553/V1_MQTT_OK/GD32VW55X_Wifi_BLE_SDK/GD32VW55x_RELEASE_V1.0.2/MSDK/lwip/lwip-2.1.2/src/core/ipv4\etharp.c ****     return ERR_MEM;
1175:C:/Users/stapi/OneDrive/Desktop/GD32VW553/V1_MQTT_OK/GD32VW55X_Wifi_BLE_SDK/GD32VW55x_RELEASE_V1.0.2/MSDK/lwip/lwip-2.1.2/src/core/ipv4\etharp.c ****   }
1176:C:/Users/stapi/OneDrive/Desktop/GD32VW553/V1_MQTT_OK/GD32VW55X_Wifi_BLE_SDK/GD32VW55x_RELEASE_V1.0.2/MSDK/lwip/lwip-2.1.2/src/core/ipv4\etharp.c ****   LWIP_ASSERT("check that first pbuf can hold struct etharp_hdr",
 441              		.loc 1 1176 3 is_stmt 1
 442              		.loc 1 1176 3
 443 0058 0357A500 		lhu	a4,10(a0)
 444 005c ED47     		li	a5,27
 445 005e 63E5E702 		bgtu	a4,a5,.L51
 446              		.loc 1 1176 3 discriminator 1
 447              		.loc 1 1176 3 discriminator 1
 448 0062 B7060000 		lui	a3,%hi(.LC0)
 449 0066 B7050000 		lui	a1,%hi(.LC5)
 450 006a 37050000 		lui	a0,%hi(.LC2)
 451 006e 93860600 		addi	a3,a3,%lo(.LC0)
 452 0072 13068049 		li	a2,1176
 453 0076 93850500 		addi	a1,a1,%lo(.LC5)
 454 007a 13050500 		addi	a0,a0,%lo(.LC2)
 455 007e 97000000 		call	printf
 455      E7800000 
 456              	.LVL49:
 457              	.L52:
 458              		.loc 1 1176 3 discriminator 2
 459              		.loc 1 1176 3 discriminator 2
 460              		.loc 1 1176 3 discriminator 2
 461 0086 01A0     		j	.L52
 462              	.L51:
 463              		.loc 1 1176 3 discriminator 2
 464              		.loc 1 1176 3 discriminator 2
1177:C:/Users/stapi/OneDrive/Desktop/GD32VW553/V1_MQTT_OK/GD32VW55X_Wifi_BLE_SDK/GD32VW55x_RELEASE_V1.0.2/MSDK/lwip/lwip-2.1.2/src/core/ipv4\etharp.c ****               (p->len >= SIZEOF_ETHARP_HDR));
1178:C:/Users/stapi/OneDrive/Desktop/GD32VW553/V1_MQTT_OK/GD32VW55X_Wifi_BLE_SDK/GD32VW55x_RELEASE_V1.0.2/MSDK/lwip/lwip-2.1.2/src/core/ipv4\etharp.c **** 
1179:C:/Users/stapi/OneDrive/Desktop/GD32VW553/V1_MQTT_OK/GD32VW55X_Wifi_BLE_SDK/GD32VW55x_RELEASE_V1.0.2/MSDK/lwip/lwip-2.1.2/src/core/ipv4\etharp.c ****   hdr = (struct etharp_hdr *)p->payload;
 465              		.loc 1 1179 3 discriminator 2
 466              		.loc 1 1179 7 is_stmt 0 discriminator 2
 467 0088 4041     		lw	s0,4(a0)
 468              	.LVL50:
1180:C:/Users/stapi/OneDrive/Desktop/GD32VW553/V1_MQTT_OK/GD32VW55X_Wifi_BLE_SDK/GD32VW55x_RELEASE_V1.0.2/MSDK/lwip/lwip-2.1.2/src/core/ipv4\etharp.c ****   LWIP_DEBUGF(ETHARP_DEBUG | LWIP_DBG_TRACE, ("etharp_raw: sending raw ARP packet.\n"));
 469              		.loc 1 1180 88 is_stmt 1 discriminator 2
1181:C:/Users/stapi/OneDrive/Desktop/GD32VW553/V1_MQTT_OK/GD32VW55X_Wifi_BLE_SDK/GD32VW55x_RELEASE_V1.0.2/MSDK/lwip/lwip-2.1.2/src/core/ipv4\etharp.c ****   hdr->opcode = lwip_htons(opcode);
 470              		.loc 1 1181 3 discriminator 2
 471              		.loc 1 1181 17 is_stmt 0 discriminator 2
 472 008a 6685     		mv	a0,s9
 473 008c 97000000 		call	lwip_htons
 473      E7800000 
 474              	.LVL51:
 475              		.loc 1 1181 15 discriminator 2
 476 0094 93588500 		srli	a7,a0,8
 477 0098 2303A400 		sb	a0,6(s0)
 478 009c A3031401 		sb	a7,7(s0)
1182:C:/Users/stapi/OneDrive/Desktop/GD32VW553/V1_MQTT_OK/GD32VW55X_Wifi_BLE_SDK/GD32VW55x_RELEASE_V1.0.2/MSDK/lwip/lwip-2.1.2/src/core/ipv4\etharp.c **** 
1183:C:/Users/stapi/OneDrive/Desktop/GD32VW553/V1_MQTT_OK/GD32VW55X_Wifi_BLE_SDK/GD32VW55x_RELEASE_V1.0.2/MSDK/lwip/lwip-2.1.2/src/core/ipv4\etharp.c ****   LWIP_ASSERT("netif->hwaddr_len must be the same as ETH_HWADDR_LEN for etharp!",
 479              		.loc 1 1183 3 is_stmt 1 discriminator 2
 480              		.loc 1 1183 3 discriminator 2
 481 00a0 834C0903 		lbu	s9,48(s2)
 482 00a4 9947     		li	a5,6
 483 00a6 6385FC02 		beq	s9,a5,.L53
 484              		.loc 1 1183 3 discriminator 1
 485              		.loc 1 1183 3 discriminator 1
 486 00aa B7060000 		lui	a3,%hi(.LC0)
 487 00ae B7050000 		lui	a1,%hi(.LC6)
 488 00b2 37050000 		lui	a0,%hi(.LC2)
 489 00b6 93860600 		addi	a3,a3,%lo(.LC0)
 490 00ba 1306F049 		li	a2,1183
 491 00be 93850500 		addi	a1,a1,%lo(.LC6)
 492 00c2 13050500 		addi	a0,a0,%lo(.LC2)
 493 00c6 97000000 		call	printf
 493      E7800000 
 494              	.LVL52:
 495              	.L54:
 496              		.loc 1 1183 3 discriminator 3
 497              		.loc 1 1183 3 discriminator 3
 498              		.loc 1 1183 3 discriminator 3
 499 00ce 01A0     		j	.L54
 500              	.L53:
 501              		.loc 1 1183 3 discriminator 2
 502              		.loc 1 1183 3 discriminator 2
1184:C:/Users/stapi/OneDrive/Desktop/GD32VW553/V1_MQTT_OK/GD32VW55X_Wifi_BLE_SDK/GD32VW55x_RELEASE_V1.0.2/MSDK/lwip/lwip-2.1.2/src/core/ipv4\etharp.c ****               (netif->hwaddr_len == ETH_HWADDR_LEN));
1185:C:/Users/stapi/OneDrive/Desktop/GD32VW553/V1_MQTT_OK/GD32VW55X_Wifi_BLE_SDK/GD32VW55x_RELEASE_V1.0.2/MSDK/lwip/lwip-2.1.2/src/core/ipv4\etharp.c **** 
1186:C:/Users/stapi/OneDrive/Desktop/GD32VW553/V1_MQTT_OK/GD32VW55X_Wifi_BLE_SDK/GD32VW55x_RELEASE_V1.0.2/MSDK/lwip/lwip-2.1.2/src/core/ipv4\etharp.c ****   /* Write the ARP MAC-Addresses */
1187:C:/Users/stapi/OneDrive/Desktop/GD32VW553/V1_MQTT_OK/GD32VW55X_Wifi_BLE_SDK/GD32VW55x_RELEASE_V1.0.2/MSDK/lwip/lwip-2.1.2/src/core/ipv4\etharp.c ****   SMEMCPY(&hdr->shwaddr, hwsrc_addr, ETH_HWADDR_LEN);
 503              		.loc 1 1187 3 discriminator 2
 504 00d0 1946     		li	a2,6
 505 00d2 E285     		mv	a1,s8
 506 00d4 13058400 		addi	a0,s0,8
 507 00d8 97000000 		call	memcpy
 507      E7800000 
 508              	.LVL53:
1188:C:/Users/stapi/OneDrive/Desktop/GD32VW553/V1_MQTT_OK/GD32VW55X_Wifi_BLE_SDK/GD32VW55x_RELEASE_V1.0.2/MSDK/lwip/lwip-2.1.2/src/core/ipv4\etharp.c ****   SMEMCPY(&hdr->dhwaddr, hwdst_addr, ETH_HWADDR_LEN);
 509              		.loc 1 1188 3 discriminator 2
 510 00e0 1946     		li	a2,6
 511 00e2 DE85     		mv	a1,s7
 512 00e4 13052401 		addi	a0,s0,18
 513 00e8 97000000 		call	memcpy
 513      E7800000 
 514              	.LVL54:
1189:C:/Users/stapi/OneDrive/Desktop/GD32VW553/V1_MQTT_OK/GD32VW55X_Wifi_BLE_SDK/GD32VW55x_RELEASE_V1.0.2/MSDK/lwip/lwip-2.1.2/src/core/ipv4\etharp.c ****   /* Copy struct ip4_addr_wordaligned to aligned ip4_addr, to support compilers without
1190:C:/Users/stapi/OneDrive/Desktop/GD32VW553/V1_MQTT_OK/GD32VW55X_Wifi_BLE_SDK/GD32VW55x_RELEASE_V1.0.2/MSDK/lwip/lwip-2.1.2/src/core/ipv4\etharp.c ****    * structure packing. */
1191:C:/Users/stapi/OneDrive/Desktop/GD32VW553/V1_MQTT_OK/GD32VW55X_Wifi_BLE_SDK/GD32VW55x_RELEASE_V1.0.2/MSDK/lwip/lwip-2.1.2/src/core/ipv4\etharp.c ****   IPADDR_WORDALIGNED_COPY_FROM_IP4_ADDR_T(&hdr->sipaddr, ipsrc_addr);
 515              		.loc 1 1191 3 discriminator 2
 516 00f0 1146     		li	a2,4
 517 00f2 DA85     		mv	a1,s6
 518 00f4 1305E400 		addi	a0,s0,14
 519 00f8 97000000 		call	memcpy
 519      E7800000 
 520              	.LVL55:
1192:C:/Users/stapi/OneDrive/Desktop/GD32VW553/V1_MQTT_OK/GD32VW55X_Wifi_BLE_SDK/GD32VW55x_RELEASE_V1.0.2/MSDK/lwip/lwip-2.1.2/src/core/ipv4\etharp.c ****   IPADDR_WORDALIGNED_COPY_FROM_IP4_ADDR_T(&hdr->dipaddr, ipdst_addr);
 521              		.loc 1 1192 3 discriminator 2
 522 0100 1146     		li	a2,4
 523 0102 D685     		mv	a1,s5
 524 0104 13058401 		addi	a0,s0,24
 525 0108 97000000 		call	memcpy
 525      E7800000 
 526              	.LVL56:
1193:C:/Users/stapi/OneDrive/Desktop/GD32VW553/V1_MQTT_OK/GD32VW55X_Wifi_BLE_SDK/GD32VW55x_RELEASE_V1.0.2/MSDK/lwip/lwip-2.1.2/src/core/ipv4\etharp.c **** 
1194:C:/Users/stapi/OneDrive/Desktop/GD32VW553/V1_MQTT_OK/GD32VW55X_Wifi_BLE_SDK/GD32VW55x_RELEASE_V1.0.2/MSDK/lwip/lwip-2.1.2/src/core/ipv4\etharp.c ****   hdr->hwtype = PP_HTONS(LWIP_IANA_HWTYPE_ETHERNET);
 527              		.loc 1 1194 3 discriminator 2
 528              		.loc 1 1194 15 is_stmt 0 discriminator 2
 529 0110 8547     		li	a5,1
 530 0112 A300F400 		sb	a5,1(s0)
1195:C:/Users/stapi/OneDrive/Desktop/GD32VW553/V1_MQTT_OK/GD32VW55X_Wifi_BLE_SDK/GD32VW55x_RELEASE_V1.0.2/MSDK/lwip/lwip-2.1.2/src/core/ipv4\etharp.c ****   hdr->proto = PP_HTONS(ETHTYPE_IP);
 531              		.loc 1 1195 3 is_stmt 1 discriminator 2
 532              		.loc 1 1195 14 is_stmt 0 discriminator 2
 533 0116 A147     		li	a5,8
 534 0118 2301F400 		sb	a5,2(s0)
1196:C:/Users/stapi/OneDrive/Desktop/GD32VW553/V1_MQTT_OK/GD32VW55X_Wifi_BLE_SDK/GD32VW55x_RELEASE_V1.0.2/MSDK/lwip/lwip-2.1.2/src/core/ipv4\etharp.c ****   /* set hwlen and protolen */
1197:C:/Users/stapi/OneDrive/Desktop/GD32VW553/V1_MQTT_OK/GD32VW55X_Wifi_BLE_SDK/GD32VW55x_RELEASE_V1.0.2/MSDK/lwip/lwip-2.1.2/src/core/ipv4\etharp.c ****   hdr->hwlen = ETH_HWADDR_LEN;
1198:C:/Users/stapi/OneDrive/Desktop/GD32VW553/V1_MQTT_OK/GD32VW55X_Wifi_BLE_SDK/GD32VW55x_RELEASE_V1.0.2/MSDK/lwip/lwip-2.1.2/src/core/ipv4\etharp.c ****   hdr->protolen = sizeof(ip4_addr_t);
1199:C:/Users/stapi/OneDrive/Desktop/GD32VW553/V1_MQTT_OK/GD32VW55X_Wifi_BLE_SDK/GD32VW55x_RELEASE_V1.0.2/MSDK/lwip/lwip-2.1.2/src/core/ipv4\etharp.c **** 
1200:C:/Users/stapi/OneDrive/Desktop/GD32VW553/V1_MQTT_OK/GD32VW55X_Wifi_BLE_SDK/GD32VW55x_RELEASE_V1.0.2/MSDK/lwip/lwip-2.1.2/src/core/ipv4\etharp.c ****   /* send ARP query */
1201:C:/Users/stapi/OneDrive/Desktop/GD32VW553/V1_MQTT_OK/GD32VW55X_Wifi_BLE_SDK/GD32VW55x_RELEASE_V1.0.2/MSDK/lwip/lwip-2.1.2/src/core/ipv4\etharp.c **** #if LWIP_AUTOIP
1202:C:/Users/stapi/OneDrive/Desktop/GD32VW553/V1_MQTT_OK/GD32VW55X_Wifi_BLE_SDK/GD32VW55x_RELEASE_V1.0.2/MSDK/lwip/lwip-2.1.2/src/core/ipv4\etharp.c ****   /* If we are using Link-Local, all ARP packets that contain a Link-Local
1203:C:/Users/stapi/OneDrive/Desktop/GD32VW553/V1_MQTT_OK/GD32VW55X_Wifi_BLE_SDK/GD32VW55x_RELEASE_V1.0.2/MSDK/lwip/lwip-2.1.2/src/core/ipv4\etharp.c ****    * 'sender IP address' MUST be sent using link-layer broadcast instead of
1204:C:/Users/stapi/OneDrive/Desktop/GD32VW553/V1_MQTT_OK/GD32VW55X_Wifi_BLE_SDK/GD32VW55x_RELEASE_V1.0.2/MSDK/lwip/lwip-2.1.2/src/core/ipv4\etharp.c ****    * link-layer unicast. (See RFC3927 Section 2.5, last paragraph) */
1205:C:/Users/stapi/OneDrive/Desktop/GD32VW553/V1_MQTT_OK/GD32VW55X_Wifi_BLE_SDK/GD32VW55x_RELEASE_V1.0.2/MSDK/lwip/lwip-2.1.2/src/core/ipv4\etharp.c ****   if (ip4_addr_islinklocal(ipsrc_addr)) {
1206:C:/Users/stapi/OneDrive/Desktop/GD32VW553/V1_MQTT_OK/GD32VW55X_Wifi_BLE_SDK/GD32VW55x_RELEASE_V1.0.2/MSDK/lwip/lwip-2.1.2/src/core/ipv4\etharp.c ****     ethernet_output(netif, p, ethsrc_addr, &ethbroadcast, ETHTYPE_ARP);
1207:C:/Users/stapi/OneDrive/Desktop/GD32VW553/V1_MQTT_OK/GD32VW55X_Wifi_BLE_SDK/GD32VW55x_RELEASE_V1.0.2/MSDK/lwip/lwip-2.1.2/src/core/ipv4\etharp.c ****   } else
1208:C:/Users/stapi/OneDrive/Desktop/GD32VW553/V1_MQTT_OK/GD32VW55X_Wifi_BLE_SDK/GD32VW55x_RELEASE_V1.0.2/MSDK/lwip/lwip-2.1.2/src/core/ipv4\etharp.c **** #endif /* LWIP_AUTOIP */
1209:C:/Users/stapi/OneDrive/Desktop/GD32VW553/V1_MQTT_OK/GD32VW55X_Wifi_BLE_SDK/GD32VW55x_RELEASE_V1.0.2/MSDK/lwip/lwip-2.1.2/src/core/ipv4\etharp.c ****   {
1210:C:/Users/stapi/OneDrive/Desktop/GD32VW553/V1_MQTT_OK/GD32VW55X_Wifi_BLE_SDK/GD32VW55x_RELEASE_V1.0.2/MSDK/lwip/lwip-2.1.2/src/core/ipv4\etharp.c ****     ethernet_output(netif, p, ethsrc_addr, ethdst_addr, ETHTYPE_ARP);
 535              		.loc 1 1210 5 discriminator 2
 536 011c 0567     		li	a4,4096
1198:C:/Users/stapi/OneDrive/Desktop/GD32VW553/V1_MQTT_OK/GD32VW55X_Wifi_BLE_SDK/GD32VW55x_RELEASE_V1.0.2/MSDK/lwip/lwip-2.1.2/src/core/ipv4\etharp.c **** 
 537              		.loc 1 1198 17 discriminator 2
 538 011e 9147     		li	a5,4
 539 0120 A302F400 		sb	a5,5(s0)
 540              		.loc 1 1210 5 discriminator 2
 541 0124 13076780 		addi	a4,a4,-2042
 542 0128 D286     		mv	a3,s4
 543 012a 4E86     		mv	a2,s3
 544 012c A685     		mv	a1,s1
1194:C:/Users/stapi/OneDrive/Desktop/GD32VW553/V1_MQTT_OK/GD32VW55X_Wifi_BLE_SDK/GD32VW55x_RELEASE_V1.0.2/MSDK/lwip/lwip-2.1.2/src/core/ipv4\etharp.c ****   hdr->proto = PP_HTONS(ETHTYPE_IP);
 545              		.loc 1 1194 15 discriminator 2
 546 012e 23000400 		sb	zero,0(s0)
1195:C:/Users/stapi/OneDrive/Desktop/GD32VW553/V1_MQTT_OK/GD32VW55X_Wifi_BLE_SDK/GD32VW55x_RELEASE_V1.0.2/MSDK/lwip/lwip-2.1.2/src/core/ipv4\etharp.c ****   /* set hwlen and protolen */
 547              		.loc 1 1195 14 discriminator 2
 548 0132 A3010400 		sb	zero,3(s0)
1197:C:/Users/stapi/OneDrive/Desktop/GD32VW553/V1_MQTT_OK/GD32VW55X_Wifi_BLE_SDK/GD32VW55x_RELEASE_V1.0.2/MSDK/lwip/lwip-2.1.2/src/core/ipv4\etharp.c ****   hdr->protolen = sizeof(ip4_addr_t);
 549              		.loc 1 1197 3 is_stmt 1 discriminator 2
1197:C:/Users/stapi/OneDrive/Desktop/GD32VW553/V1_MQTT_OK/GD32VW55X_Wifi_BLE_SDK/GD32VW55x_RELEASE_V1.0.2/MSDK/lwip/lwip-2.1.2/src/core/ipv4\etharp.c ****   hdr->protolen = sizeof(ip4_addr_t);
 550              		.loc 1 1197 14 is_stmt 0 discriminator 2
 551 0136 23029401 		sb	s9,4(s0)
1198:C:/Users/stapi/OneDrive/Desktop/GD32VW553/V1_MQTT_OK/GD32VW55X_Wifi_BLE_SDK/GD32VW55x_RELEASE_V1.0.2/MSDK/lwip/lwip-2.1.2/src/core/ipv4\etharp.c **** 
 552              		.loc 1 1198 3 is_stmt 1 discriminator 2
 553              		.loc 1 1210 5 discriminator 2
 554 013a 4A85     		mv	a0,s2
 555 013c 97000000 		call	ethernet_output
 555      E7800000 
 556              	.LVL57:
1211:C:/Users/stapi/OneDrive/Desktop/GD32VW553/V1_MQTT_OK/GD32VW55X_Wifi_BLE_SDK/GD32VW55x_RELEASE_V1.0.2/MSDK/lwip/lwip-2.1.2/src/core/ipv4\etharp.c ****   }
1212:C:/Users/stapi/OneDrive/Desktop/GD32VW553/V1_MQTT_OK/GD32VW55X_Wifi_BLE_SDK/GD32VW55x_RELEASE_V1.0.2/MSDK/lwip/lwip-2.1.2/src/core/ipv4\etharp.c **** 
1213:C:/Users/stapi/OneDrive/Desktop/GD32VW553/V1_MQTT_OK/GD32VW55X_Wifi_BLE_SDK/GD32VW55x_RELEASE_V1.0.2/MSDK/lwip/lwip-2.1.2/src/core/ipv4\etharp.c ****   ETHARP_STATS_INC(etharp.xmit);
 557              		.loc 1 1213 32 discriminator 2
1214:C:/Users/stapi/OneDrive/Desktop/GD32VW553/V1_MQTT_OK/GD32VW55X_Wifi_BLE_SDK/GD32VW55x_RELEASE_V1.0.2/MSDK/lwip/lwip-2.1.2/src/core/ipv4\etharp.c ****   /* free ARP query packet */
1215:C:/Users/stapi/OneDrive/Desktop/GD32VW553/V1_MQTT_OK/GD32VW55X_Wifi_BLE_SDK/GD32VW55x_RELEASE_V1.0.2/MSDK/lwip/lwip-2.1.2/src/core/ipv4\etharp.c ****   pbuf_free(p);
 558              		.loc 1 1215 3 discriminator 2
 559 0144 2685     		mv	a0,s1
 560 0146 97000000 		call	pbuf_free
 560      E7800000 
 561              	.LVL58:
1216:C:/Users/stapi/OneDrive/Desktop/GD32VW553/V1_MQTT_OK/GD32VW55X_Wifi_BLE_SDK/GD32VW55x_RELEASE_V1.0.2/MSDK/lwip/lwip-2.1.2/src/core/ipv4\etharp.c ****   p = NULL;
 562              		.loc 1 1216 3 discriminator 2
1217:C:/Users/stapi/OneDrive/Desktop/GD32VW553/V1_MQTT_OK/GD32VW55X_Wifi_BLE_SDK/GD32VW55x_RELEASE_V1.0.2/MSDK/lwip/lwip-2.1.2/src/core/ipv4\etharp.c ****   /* could not allocate pbuf for ARP request */
1218:C:/Users/stapi/OneDrive/Desktop/GD32VW553/V1_MQTT_OK/GD32VW55X_Wifi_BLE_SDK/GD32VW55x_RELEASE_V1.0.2/MSDK/lwip/lwip-2.1.2/src/core/ipv4\etharp.c **** 
1219:C:/Users/stapi/OneDrive/Desktop/GD32VW553/V1_MQTT_OK/GD32VW55X_Wifi_BLE_SDK/GD32VW55x_RELEASE_V1.0.2/MSDK/lwip/lwip-2.1.2/src/core/ipv4\etharp.c ****   return result;
 563              		.loc 1 1219 3 discriminator 2
 564              		.loc 1 1219 10 is_stmt 0 discriminator 2
 565 014e 0145     		li	a0,0
 566              	.LVL59:
 567              	.L50:
1220:C:/Users/stapi/OneDrive/Desktop/GD32VW553/V1_MQTT_OK/GD32VW55X_Wifi_BLE_SDK/GD32VW55x_RELEASE_V1.0.2/MSDK/lwip/lwip-2.1.2/src/core/ipv4\etharp.c **** }
 568              		.loc 1 1220 1
 569 0150 17030000 		tail	__riscv_restore_10
 569      67000300 
 570              		.cfi_remember_state
 571              		.cfi_restore 25
 572              		.cfi_restore 24
 573              		.cfi_restore 23
 574              		.cfi_restore 22
 575              		.cfi_restore 21
 576              		.cfi_restore 20
 577              		.cfi_restore 19
 578              		.cfi_restore 18
 579              		.cfi_restore 9
 580              		.cfi_restore 8
 581              		.cfi_restore 1
 582              		.cfi_def_cfa_offset 0
 583              	.LVL60:
 584              	.L55:
 585              		.cfi_restore_state
1174:C:/Users/stapi/OneDrive/Desktop/GD32VW553/V1_MQTT_OK/GD32VW55X_Wifi_BLE_SDK/GD32VW55x_RELEASE_V1.0.2/MSDK/lwip/lwip-2.1.2/src/core/ipv4\etharp.c ****   }
 586              		.loc 1 1174 12
 587 0158 7D55     		li	a0,-1
 588 015a DDBF     		j	.L50
 589              		.cfi_endproc
 590              	.LFE16:
 592              		.section	.text.etharp_cleanup_netif,"ax",@progbits
 593              		.align	1
 594              		.globl	etharp_cleanup_netif
 596              	etharp_cleanup_netif:
 597              	.LFB8:
 563:C:/Users/stapi/OneDrive/Desktop/GD32VW553/V1_MQTT_OK/GD32VW55X_Wifi_BLE_SDK/GD32VW55x_RELEASE_V1.0.2/MSDK/lwip/lwip-2.1.2/src/core/ipv4\etharp.c ****   int i;
 598              		.loc 1 563 1 is_stmt 1
 599              		.cfi_startproc
 600              	.LVL61:
 601 0000 17030000 		call	t0,__riscv_save_4
 601      E7020300 
 602              		.cfi_offset 19, -20
 603              		.cfi_offset 18, -16
 604              		.cfi_offset 9, -12
 605              		.cfi_offset 8, -8
 606              		.cfi_offset 1, -4
 607              		.cfi_def_cfa_offset 32
 564:C:/Users/stapi/OneDrive/Desktop/GD32VW553/V1_MQTT_OK/GD32VW55X_Wifi_BLE_SDK/GD32VW55x_RELEASE_V1.0.2/MSDK/lwip/lwip-2.1.2/src/core/ipv4\etharp.c **** 
 608              		.loc 1 564 3
 566:C:/Users/stapi/OneDrive/Desktop/GD32VW553/V1_MQTT_OK/GD32VW55X_Wifi_BLE_SDK/GD32VW55x_RELEASE_V1.0.2/MSDK/lwip/lwip-2.1.2/src/core/ipv4\etharp.c ****     u8_t state = arp_table[i].state;
 609              		.loc 1 566 3
 610              	.LVL62:
 566:C:/Users/stapi/OneDrive/Desktop/GD32VW553/V1_MQTT_OK/GD32VW55X_Wifi_BLE_SDK/GD32VW55x_RELEASE_V1.0.2/MSDK/lwip/lwip-2.1.2/src/core/ipv4\etharp.c ****     u8_t state = arp_table[i].state;
 611              		.loc 1 566 15
 612 0008 37040000 		lui	s0,%hi(.LANCHOR0)
 563:C:/Users/stapi/OneDrive/Desktop/GD32VW553/V1_MQTT_OK/GD32VW55X_Wifi_BLE_SDK/GD32VW55x_RELEASE_V1.0.2/MSDK/lwip/lwip-2.1.2/src/core/ipv4\etharp.c ****   int i;
 613              		.loc 1 563 1 is_stmt 0
 614 000c 2A89     		mv	s2,a0
 615 000e 13040400 		addi	s0,s0,%lo(.LANCHOR0)
 566:C:/Users/stapi/OneDrive/Desktop/GD32VW553/V1_MQTT_OK/GD32VW55X_Wifi_BLE_SDK/GD32VW55x_RELEASE_V1.0.2/MSDK/lwip/lwip-2.1.2/src/core/ipv4\etharp.c ****     u8_t state = arp_table[i].state;
 616              		.loc 1 566 10
 617 0012 8144     		li	s1,0
 566:C:/Users/stapi/OneDrive/Desktop/GD32VW553/V1_MQTT_OK/GD32VW55X_Wifi_BLE_SDK/GD32VW55x_RELEASE_V1.0.2/MSDK/lwip/lwip-2.1.2/src/core/ipv4\etharp.c ****     u8_t state = arp_table[i].state;
 618              		.loc 1 566 3
 619 0014 A949     		li	s3,10
 620              	.LVL63:
 621              	.L59:
 622              	.LBB5:
 567:C:/Users/stapi/OneDrive/Desktop/GD32VW553/V1_MQTT_OK/GD32VW55X_Wifi_BLE_SDK/GD32VW55x_RELEASE_V1.0.2/MSDK/lwip/lwip-2.1.2/src/core/ipv4\etharp.c ****     if ((state != ETHARP_STATE_EMPTY) && (arp_table[i].netif == netif)) {
 623              		.loc 1 567 5 is_stmt 1
 568:C:/Users/stapi/OneDrive/Desktop/GD32VW553/V1_MQTT_OK/GD32VW55X_Wifi_BLE_SDK/GD32VW55x_RELEASE_V1.0.2/MSDK/lwip/lwip-2.1.2/src/core/ipv4\etharp.c ****       etharp_free_entry(i);
 624              		.loc 1 568 5
 568:C:/Users/stapi/OneDrive/Desktop/GD32VW553/V1_MQTT_OK/GD32VW55X_Wifi_BLE_SDK/GD32VW55x_RELEASE_V1.0.2/MSDK/lwip/lwip-2.1.2/src/core/ipv4\etharp.c ****       etharp_free_entry(i);
 625              		.loc 1 568 8 is_stmt 0
 626 0016 83474401 		lbu	a5,20(s0)
 627 001a 89CB     		beq	a5,zero,.L58
 568:C:/Users/stapi/OneDrive/Desktop/GD32VW553/V1_MQTT_OK/GD32VW55X_Wifi_BLE_SDK/GD32VW55x_RELEASE_V1.0.2/MSDK/lwip/lwip-2.1.2/src/core/ipv4\etharp.c ****       etharp_free_entry(i);
 628              		.loc 1 568 39 discriminator 1
 629 001c 1C44     		lw	a5,8(s0)
 630 001e 63972701 		bne	a5,s2,.L58
 569:C:/Users/stapi/OneDrive/Desktop/GD32VW553/V1_MQTT_OK/GD32VW55X_Wifi_BLE_SDK/GD32VW55x_RELEASE_V1.0.2/MSDK/lwip/lwip-2.1.2/src/core/ipv4\etharp.c ****     }
 631              		.loc 1 569 7 is_stmt 1
 632 0022 2685     		mv	a0,s1
 633 0024 97000000 		call	etharp_free_entry
 633      E7800000 
 634              	.LVL64:
 635              	.L58:
 636              	.LBE5:
 566:C:/Users/stapi/OneDrive/Desktop/GD32VW553/V1_MQTT_OK/GD32VW55X_Wifi_BLE_SDK/GD32VW55x_RELEASE_V1.0.2/MSDK/lwip/lwip-2.1.2/src/core/ipv4\etharp.c ****     u8_t state = arp_table[i].state;
 637              		.loc 1 566 35 discriminator 2
 638 002c 8504     		addi	s1,s1,1
 639              	.LVL65:
 566:C:/Users/stapi/OneDrive/Desktop/GD32VW553/V1_MQTT_OK/GD32VW55X_Wifi_BLE_SDK/GD32VW55x_RELEASE_V1.0.2/MSDK/lwip/lwip-2.1.2/src/core/ipv4\etharp.c ****     u8_t state = arp_table[i].state;
 640              		.loc 1 566 15 discriminator 2
 566:C:/Users/stapi/OneDrive/Desktop/GD32VW553/V1_MQTT_OK/GD32VW55X_Wifi_BLE_SDK/GD32VW55x_RELEASE_V1.0.2/MSDK/lwip/lwip-2.1.2/src/core/ipv4\etharp.c ****     u8_t state = arp_table[i].state;
 641              		.loc 1 566 3 is_stmt 0 discriminator 2
 642 002e 6104     		addi	s0,s0,24
 643 0030 E39334FF 		bne	s1,s3,.L59
 572:C:/Users/stapi/OneDrive/Desktop/GD32VW553/V1_MQTT_OK/GD32VW55X_Wifi_BLE_SDK/GD32VW55x_RELEASE_V1.0.2/MSDK/lwip/lwip-2.1.2/src/core/ipv4\etharp.c **** /* FT TAG */
 644              		.loc 1 572 1
 645 0034 17030000 		tail	__riscv_restore_4
 645      67000300 
 646              		.cfi_restore 19
 647              		.cfi_restore 18
 648              		.cfi_restore 9
 649              		.cfi_restore 8
 650              		.cfi_restore 1
 651              		.cfi_def_cfa_offset 0
 652              		.cfi_endproc
 653              	.LFE8:
 655              		.section	.rodata.etharp_entry_dump.str1.4,"aMS",@progbits,1
 656              		.align	2
 657              	.LC7:
 658 0000 556E6B6E 		.string	"Unknown"
 658      6F776E00 
 659              		.align	2
 660              	.LC8:
 661 0008 095B2564 		.string	"\t[%d]: %s, %d.%d.%d.%d, %02x:%02x:%02x:%02x:%02x:%02x, ctime %d, netif %p\r\n"
 661      5D3A2025 
 661      732C2025 
 661      642E2564 
 661      2E25642E 
 662              		.section	.text.etharp_entry_dump,"ax",@progbits
 663              		.align	1
 664              		.globl	etharp_entry_dump
 666              	etharp_entry_dump:
 667              	.LFB9:
 575:C:/Users/stapi/OneDrive/Desktop/GD32VW553/V1_MQTT_OK/GD32VW55X_Wifi_BLE_SDK/GD32VW55x_RELEASE_V1.0.2/MSDK/lwip/lwip-2.1.2/src/core/ipv4\etharp.c ****   int i;
 668              		.loc 1 575 1 is_stmt 1
 669              		.cfi_startproc
 670 0000 17030000 		call	t0,__riscv_save_7
 670      E7020300 
 671              		.cfi_offset 22, -32
 672              		.cfi_offset 21, -28
 673              		.cfi_offset 20, -24
 674              		.cfi_offset 19, -20
 675              		.cfi_offset 18, -16
 676              		.cfi_offset 9, -12
 677              		.cfi_offset 8, -8
 678              		.cfi_offset 1, -4
 679              		.cfi_def_cfa_offset 32
 576:C:/Users/stapi/OneDrive/Desktop/GD32VW553/V1_MQTT_OK/GD32VW55X_Wifi_BLE_SDK/GD32VW55x_RELEASE_V1.0.2/MSDK/lwip/lwip-2.1.2/src/core/ipv4\etharp.c ****   char *state_str = NULL;
 680              		.loc 1 576 3
 577:C:/Users/stapi/OneDrive/Desktop/GD32VW553/V1_MQTT_OK/GD32VW55X_Wifi_BLE_SDK/GD32VW55x_RELEASE_V1.0.2/MSDK/lwip/lwip-2.1.2/src/core/ipv4\etharp.c **** 
 681              		.loc 1 577 3
 682              	.LVL66:
 579:C:/Users/stapi/OneDrive/Desktop/GD32VW553/V1_MQTT_OK/GD32VW55X_Wifi_BLE_SDK/GD32VW55x_RELEASE_V1.0.2/MSDK/lwip/lwip-2.1.2/src/core/ipv4\etharp.c ****     struct etharp_entry *entry = &arp_table[i];
 683              		.loc 1 579 3
 579:C:/Users/stapi/OneDrive/Desktop/GD32VW553/V1_MQTT_OK/GD32VW55X_Wifi_BLE_SDK/GD32VW55x_RELEASE_V1.0.2/MSDK/lwip/lwip-2.1.2/src/core/ipv4\etharp.c ****     struct etharp_entry *entry = &arp_table[i];
 684              		.loc 1 579 15
 685 0008 37040000 		lui	s0,%hi(.LANCHOR0)
 686              	.LBB6:
 581:C:/Users/stapi/OneDrive/Desktop/GD32VW553/V1_MQTT_OK/GD32VW55X_Wifi_BLE_SDK/GD32VW55x_RELEASE_V1.0.2/MSDK/lwip/lwip-2.1.2/src/core/ipv4\etharp.c ****         case ETHARP_STATE_EMPTY:
 687              		.loc 1 581 17 is_stmt 0
 688 000c 37090000 		lui	s2,%hi(.LC7)
 689 0010 B7090000 		lui	s3,%hi(.LANCHOR1)
 690              	.LBE6:
 575:C:/Users/stapi/OneDrive/Desktop/GD32VW553/V1_MQTT_OK/GD32VW55X_Wifi_BLE_SDK/GD32VW55x_RELEASE_V1.0.2/MSDK/lwip/lwip-2.1.2/src/core/ipv4\etharp.c ****   int i;
 691              		.loc 1 575 1
 692 0014 0111     		addi	sp,sp,-32
 693              		.cfi_def_cfa_offset 64
 694 0016 13040400 		addi	s0,s0,%lo(.LANCHOR0)
 579:C:/Users/stapi/OneDrive/Desktop/GD32VW553/V1_MQTT_OK/GD32VW55X_Wifi_BLE_SDK/GD32VW55x_RELEASE_V1.0.2/MSDK/lwip/lwip-2.1.2/src/core/ipv4\etharp.c ****     struct etharp_entry *entry = &arp_table[i];
 695              		.loc 1 579 10
 696 001a 8144     		li	s1,0
 697 001c 114B     		li	s6,4
 698              	.LBB7:
 581:C:/Users/stapi/OneDrive/Desktop/GD32VW553/V1_MQTT_OK/GD32VW55X_Wifi_BLE_SDK/GD32VW55x_RELEASE_V1.0.2/MSDK/lwip/lwip-2.1.2/src/core/ipv4\etharp.c ****         case ETHARP_STATE_EMPTY:
 699              		.loc 1 581 17
 700 001e 13090900 		addi	s2,s2,%lo(.LC7)
 701 0022 93890900 		addi	s3,s3,%lo(.LANCHOR1)
 606:C:/Users/stapi/OneDrive/Desktop/GD32VW553/V1_MQTT_OK/GD32VW55X_Wifi_BLE_SDK/GD32VW55x_RELEASE_V1.0.2/MSDK/lwip/lwip-2.1.2/src/core/ipv4\etharp.c ****                 i, state_str,
 702              		.loc 1 606 5
 703 0026 B70A0000 		lui	s5,%hi(.LC8)
 704              	.LBE7:
 579:C:/Users/stapi/OneDrive/Desktop/GD32VW553/V1_MQTT_OK/GD32VW55X_Wifi_BLE_SDK/GD32VW55x_RELEASE_V1.0.2/MSDK/lwip/lwip-2.1.2/src/core/ipv4\etharp.c ****     struct etharp_entry *entry = &arp_table[i];
 705              		.loc 1 579 3
 706 002a 294A     		li	s4,10
 707              	.LVL67:
 708              	.L67:
 709              	.LBB8:
 580:C:/Users/stapi/OneDrive/Desktop/GD32VW553/V1_MQTT_OK/GD32VW55X_Wifi_BLE_SDK/GD32VW55x_RELEASE_V1.0.2/MSDK/lwip/lwip-2.1.2/src/core/ipv4\etharp.c ****     switch(entry->state) {
 710              		.loc 1 580 5 is_stmt 1
 581:C:/Users/stapi/OneDrive/Desktop/GD32VW553/V1_MQTT_OK/GD32VW55X_Wifi_BLE_SDK/GD32VW55x_RELEASE_V1.0.2/MSDK/lwip/lwip-2.1.2/src/core/ipv4\etharp.c ****         case ETHARP_STATE_EMPTY:
 711              		.loc 1 581 5
 581:C:/Users/stapi/OneDrive/Desktop/GD32VW553/V1_MQTT_OK/GD32VW55X_Wifi_BLE_SDK/GD32VW55x_RELEASE_V1.0.2/MSDK/lwip/lwip-2.1.2/src/core/ipv4\etharp.c ****         case ETHARP_STATE_EMPTY:
 712              		.loc 1 581 17 is_stmt 0
 713 002c 83474401 		lbu	a5,20(s0)
 714 0030 4A86     		mv	a2,s2
 715 0032 6365FB00 		bgtu	a5,s6,.L66
 716 0036 B3C73721 		sh2add	a5,a5,s3
 717 003a 9043     		lw	a2,0(a5)
 718              	.L66:
 719              	.LVL68:
 606:C:/Users/stapi/OneDrive/Desktop/GD32VW553/V1_MQTT_OK/GD32VW55X_Wifi_BLE_SDK/GD32VW55x_RELEASE_V1.0.2/MSDK/lwip/lwip-2.1.2/src/core/ipv4\etharp.c ****                 i, state_str,
 720              		.loc 1 606 5 is_stmt 1 discriminator 2
 721 003c 0C44     		lw	a1,8(s0)
 608:C:/Users/stapi/OneDrive/Desktop/GD32VW553/V1_MQTT_OK/GD32VW55X_Wifi_BLE_SDK/GD32VW55x_RELEASE_V1.0.2/MSDK/lwip/lwip-2.1.2/src/core/ipv4\etharp.c ****                 MAC_ARG_UINT8(entry->ethaddr.addr),
 722              		.loc 1 608 17 is_stmt 0 discriminator 2
 723 003e 5440     		lw	a3,4(s0)
 606:C:/Users/stapi/OneDrive/Desktop/GD32VW553/V1_MQTT_OK/GD32VW55X_Wifi_BLE_SDK/GD32VW55x_RELEASE_V1.0.2/MSDK/lwip/lwip-2.1.2/src/core/ipv4\etharp.c ****                 i, state_str,
 724              		.loc 1 606 5 discriminator 2
 725 0040 8348C400 		lbu	a7,12(s0)
 726 0044 2ECC     		sw	a1,24(sp)
 727 0046 83552401 		lhu	a1,18(s0)
 608:C:/Users/stapi/OneDrive/Desktop/GD32VW553/V1_MQTT_OK/GD32VW55X_Wifi_BLE_SDK/GD32VW55x_RELEASE_V1.0.2/MSDK/lwip/lwip-2.1.2/src/core/ipv4\etharp.c ****                 MAC_ARG_UINT8(entry->ethaddr.addr),
 728              		.loc 1 608 17 discriminator 2
 729 004a 93D70601 		srli	a5,a3,16
 730 004e 13D78600 		srli	a4,a3,8
 606:C:/Users/stapi/OneDrive/Desktop/GD32VW553/V1_MQTT_OK/GD32VW55X_Wifi_BLE_SDK/GD32VW55x_RELEASE_V1.0.2/MSDK/lwip/lwip-2.1.2/src/core/ipv4\etharp.c ****                 i, state_str,
 731              		.loc 1 606 5 discriminator 2
 732 0052 2ECA     		sw	a1,20(sp)
 733 0054 83451401 		lbu	a1,17(s0)
 734 0058 13D88601 		srli	a6,a3,24
 735 005c 93F7F70F 		andi	a5,a5,0xff
 736 0060 2EC8     		sw	a1,16(sp)
 737 0062 83450401 		lbu	a1,16(s0)
 738 0066 1377F70F 		andi	a4,a4,0xff
 739 006a 93F6F60F 		andi	a3,a3,0xff
 740 006e 2EC6     		sw	a1,12(sp)
 741 0070 8345F400 		lbu	a1,15(s0)
 742 0074 13850A00 		addi	a0,s5,%lo(.LC8)
 743              	.LBE8:
 579:C:/Users/stapi/OneDrive/Desktop/GD32VW553/V1_MQTT_OK/GD32VW55X_Wifi_BLE_SDK/GD32VW55x_RELEASE_V1.0.2/MSDK/lwip/lwip-2.1.2/src/core/ipv4\etharp.c ****     struct etharp_entry *entry = &arp_table[i];
 744              		.loc 1 579 3 discriminator 2
 745 0078 6104     		addi	s0,s0,24
 746              	.LBB9:
 606:C:/Users/stapi/OneDrive/Desktop/GD32VW553/V1_MQTT_OK/GD32VW55X_Wifi_BLE_SDK/GD32VW55x_RELEASE_V1.0.2/MSDK/lwip/lwip-2.1.2/src/core/ipv4\etharp.c ****                 i, state_str,
 747              		.loc 1 606 5 discriminator 2
 748 007a 2EC4     		sw	a1,8(sp)
 749 007c 834564FF 		lbu	a1,-10(s0)
 750 0080 2EC2     		sw	a1,4(sp)
 751 0082 834554FF 		lbu	a1,-11(s0)
 752 0086 2EC0     		sw	a1,0(sp)
 753 0088 A685     		mv	a1,s1
 754              	.LBE9:
 579:C:/Users/stapi/OneDrive/Desktop/GD32VW553/V1_MQTT_OK/GD32VW55X_Wifi_BLE_SDK/GD32VW55x_RELEASE_V1.0.2/MSDK/lwip/lwip-2.1.2/src/core/ipv4\etharp.c ****     struct etharp_entry *entry = &arp_table[i];
 755              		.loc 1 579 35 discriminator 2
 756 008a 8504     		addi	s1,s1,1
 757              	.LVL69:
 758              	.LBB10:
 606:C:/Users/stapi/OneDrive/Desktop/GD32VW553/V1_MQTT_OK/GD32VW55X_Wifi_BLE_SDK/GD32VW55x_RELEASE_V1.0.2/MSDK/lwip/lwip-2.1.2/src/core/ipv4\etharp.c ****                 i, state_str,
 759              		.loc 1 606 5 discriminator 2
 760 008c 97000000 		call	printf
 760      E7800000 
 761              	.LVL70:
 762              	.LBE10:
 579:C:/Users/stapi/OneDrive/Desktop/GD32VW553/V1_MQTT_OK/GD32VW55X_Wifi_BLE_SDK/GD32VW55x_RELEASE_V1.0.2/MSDK/lwip/lwip-2.1.2/src/core/ipv4\etharp.c ****     struct etharp_entry *entry = &arp_table[i];
 763              		.loc 1 579 35 is_stmt 1 discriminator 2
 579:C:/Users/stapi/OneDrive/Desktop/GD32VW553/V1_MQTT_OK/GD32VW55X_Wifi_BLE_SDK/GD32VW55x_RELEASE_V1.0.2/MSDK/lwip/lwip-2.1.2/src/core/ipv4\etharp.c ****     struct etharp_entry *entry = &arp_table[i];
 764              		.loc 1 579 15 discriminator 2
 579:C:/Users/stapi/OneDrive/Desktop/GD32VW553/V1_MQTT_OK/GD32VW55X_Wifi_BLE_SDK/GD32VW55x_RELEASE_V1.0.2/MSDK/lwip/lwip-2.1.2/src/core/ipv4\etharp.c ****     struct etharp_entry *entry = &arp_table[i];
 765              		.loc 1 579 3 is_stmt 0 discriminator 2
 766 0094 E39C44F9 		bne	s1,s4,.L67
 613:C:/Users/stapi/OneDrive/Desktop/GD32VW553/V1_MQTT_OK/GD32VW55X_Wifi_BLE_SDK/GD32VW55x_RELEASE_V1.0.2/MSDK/lwip/lwip-2.1.2/src/core/ipv4\etharp.c **** /* FT TAG */
 767              		.loc 1 613 1
 768 0098 0561     		addi	sp,sp,32
 769              		.cfi_def_cfa_offset 0
 770 009a 17030000 		tail	__riscv_restore_7
 770      67000300 
 771              		.cfi_restore 22
 772              		.cfi_restore 21
 773              		.cfi_restore 20
 774              		.cfi_restore 19
 775              		.cfi_restore 18
 776              		.cfi_restore 9
 777              		.cfi_restore 8
 778              		.cfi_restore 1
 779              		.cfi_def_cfa_offset -32
 780              		.cfi_endproc
 781              	.LFE9:
 783              		.section	.rodata.etharp_find_addr.str1.4,"aMS",@progbits,1
 784              		.align	2
 785              	.LC9:
 786 0000 6574685F 		.string	"eth_ret != NULL && ip_ret != NULL"
 786      72657420 
 786      213D204E 
 786      554C4C20 
 786      26262069 
 787              		.section	.text.etharp_find_addr,"ax",@progbits
 788              		.align	1
 789              		.globl	etharp_find_addr
 791              	etharp_find_addr:
 792              	.LFB10:
 629:C:/Users/stapi/OneDrive/Desktop/GD32VW553/V1_MQTT_OK/GD32VW55X_Wifi_BLE_SDK/GD32VW55x_RELEASE_V1.0.2/MSDK/lwip/lwip-2.1.2/src/core/ipv4\etharp.c ****   s16_t i;
 793              		.loc 1 629 1 is_stmt 1
 794              		.cfi_startproc
 795              	.LVL71:
 796 0000 17030000 		call	t0,__riscv_save_2
 796      E7020300 
 797              		.cfi_offset 9, -12
 798              		.cfi_offset 8, -8
 799              		.cfi_offset 1, -4
 800              		.cfi_def_cfa_offset 16
 630:C:/Users/stapi/OneDrive/Desktop/GD32VW553/V1_MQTT_OK/GD32VW55X_Wifi_BLE_SDK/GD32VW55x_RELEASE_V1.0.2/MSDK/lwip/lwip-2.1.2/src/core/ipv4\etharp.c **** 
 801              		.loc 1 630 3
 632:C:/Users/stapi/OneDrive/Desktop/GD32VW553/V1_MQTT_OK/GD32VW55X_Wifi_BLE_SDK/GD32VW55x_RELEASE_V1.0.2/MSDK/lwip/lwip-2.1.2/src/core/ipv4\etharp.c ****               eth_ret != NULL && ip_ret != NULL);
 802              		.loc 1 632 3
 632:C:/Users/stapi/OneDrive/Desktop/GD32VW553/V1_MQTT_OK/GD32VW55X_Wifi_BLE_SDK/GD32VW55x_RELEASE_V1.0.2/MSDK/lwip/lwip-2.1.2/src/core/ipv4\etharp.c ****               eth_ret != NULL && ip_ret != NULL);
 803              		.loc 1 632 3
 804 0008 19C2     		beq	a2,zero,.L72
 805 000a 3684     		mv	s0,a3
 632:C:/Users/stapi/OneDrive/Desktop/GD32VW553/V1_MQTT_OK/GD32VW55X_Wifi_BLE_SDK/GD32VW55x_RELEASE_V1.0.2/MSDK/lwip/lwip-2.1.2/src/core/ipv4\etharp.c ****               eth_ret != NULL && ip_ret != NULL);
 806              		.loc 1 632 3 is_stmt 0 discriminator 2
 807 000c 85E6     		bne	a3,zero,.L73
 808              	.L72:
 632:C:/Users/stapi/OneDrive/Desktop/GD32VW553/V1_MQTT_OK/GD32VW55X_Wifi_BLE_SDK/GD32VW55x_RELEASE_V1.0.2/MSDK/lwip/lwip-2.1.2/src/core/ipv4\etharp.c ****               eth_ret != NULL && ip_ret != NULL);
 809              		.loc 1 632 3 is_stmt 1 discriminator 3
 632:C:/Users/stapi/OneDrive/Desktop/GD32VW553/V1_MQTT_OK/GD32VW55X_Wifi_BLE_SDK/GD32VW55x_RELEASE_V1.0.2/MSDK/lwip/lwip-2.1.2/src/core/ipv4\etharp.c ****               eth_ret != NULL && ip_ret != NULL);
 810              		.loc 1 632 3 discriminator 3
 811 000e B7060000 		lui	a3,%hi(.LC0)
 812              	.LVL72:
 813 0012 B7050000 		lui	a1,%hi(.LC9)
 814              	.LVL73:
 815 0016 37050000 		lui	a0,%hi(.LC2)
 816              	.LVL74:
 817 001a 93860600 		addi	a3,a3,%lo(.LC0)
 818 001e 13068027 		li	a2,632
 819              	.LVL75:
 820 0022 93850500 		addi	a1,a1,%lo(.LC9)
 821 0026 13050500 		addi	a0,a0,%lo(.LC2)
 822 002a 97000000 		call	printf
 822      E7800000 
 823              	.LVL76:
 824              	.L74:
 632:C:/Users/stapi/OneDrive/Desktop/GD32VW553/V1_MQTT_OK/GD32VW55X_Wifi_BLE_SDK/GD32VW55x_RELEASE_V1.0.2/MSDK/lwip/lwip-2.1.2/src/core/ipv4\etharp.c ****               eth_ret != NULL && ip_ret != NULL);
 825              		.loc 1 632 3 discriminator 1
 632:C:/Users/stapi/OneDrive/Desktop/GD32VW553/V1_MQTT_OK/GD32VW55X_Wifi_BLE_SDK/GD32VW55x_RELEASE_V1.0.2/MSDK/lwip/lwip-2.1.2/src/core/ipv4\etharp.c ****               eth_ret != NULL && ip_ret != NULL);
 826              		.loc 1 632 3 discriminator 1
 632:C:/Users/stapi/OneDrive/Desktop/GD32VW553/V1_MQTT_OK/GD32VW55X_Wifi_BLE_SDK/GD32VW55x_RELEASE_V1.0.2/MSDK/lwip/lwip-2.1.2/src/core/ipv4\etharp.c ****               eth_ret != NULL && ip_ret != NULL);
 827              		.loc 1 632 3 discriminator 1
 828 0032 01A0     		j	.L74
 829              	.LVL77:
 830              	.L73:
 831 0034 AA87     		mv	a5,a0
 832 0036 B284     		mv	s1,a2
 632:C:/Users/stapi/OneDrive/Desktop/GD32VW553/V1_MQTT_OK/GD32VW55X_Wifi_BLE_SDK/GD32VW55x_RELEASE_V1.0.2/MSDK/lwip/lwip-2.1.2/src/core/ipv4\etharp.c ****               eth_ret != NULL && ip_ret != NULL);
 833              		.loc 1 632 3 discriminator 4
 632:C:/Users/stapi/OneDrive/Desktop/GD32VW553/V1_MQTT_OK/GD32VW55X_Wifi_BLE_SDK/GD32VW55x_RELEASE_V1.0.2/MSDK/lwip/lwip-2.1.2/src/core/ipv4\etharp.c ****               eth_ret != NULL && ip_ret != NULL);
 834              		.loc 1 632 3 discriminator 4
 635:C:/Users/stapi/OneDrive/Desktop/GD32VW553/V1_MQTT_OK/GD32VW55X_Wifi_BLE_SDK/GD32VW55x_RELEASE_V1.0.2/MSDK/lwip/lwip-2.1.2/src/core/ipv4\etharp.c **** 
 835              		.loc 1 635 3 discriminator 4
 637:C:/Users/stapi/OneDrive/Desktop/GD32VW553/V1_MQTT_OK/GD32VW55X_Wifi_BLE_SDK/GD32VW55x_RELEASE_V1.0.2/MSDK/lwip/lwip-2.1.2/src/core/ipv4\etharp.c ****   if ((i >= 0) && (arp_table[i].state >= ETHARP_STATE_STABLE)) {
 836              		.loc 1 637 3 discriminator 4
 837 0038 2E85     		mv	a0,a1
 838              	.LVL78:
 637:C:/Users/stapi/OneDrive/Desktop/GD32VW553/V1_MQTT_OK/GD32VW55X_Wifi_BLE_SDK/GD32VW55x_RELEASE_V1.0.2/MSDK/lwip/lwip-2.1.2/src/core/ipv4\etharp.c ****   if ((i >= 0) && (arp_table[i].state >= ETHARP_STATE_STABLE)) {
 839              		.loc 1 637 7 is_stmt 0 discriminator 4
 840 003a 3E86     		mv	a2,a5
 841              	.LVL79:
 842 003c 8945     		li	a1,2
 843              	.LVL80:
 844 003e 97000000 		call	etharp_find_entry
 844      E7800000 
 845              	.LVL81:
 846 0046 AA87     		mv	a5,a0
 847              	.LVL82:
 638:C:/Users/stapi/OneDrive/Desktop/GD32VW553/V1_MQTT_OK/GD32VW55X_Wifi_BLE_SDK/GD32VW55x_RELEASE_V1.0.2/MSDK/lwip/lwip-2.1.2/src/core/ipv4\etharp.c ****     *eth_ret = &arp_table[i].ethaddr;
 848              		.loc 1 638 3 is_stmt 1 discriminator 4
 643:C:/Users/stapi/OneDrive/Desktop/GD32VW553/V1_MQTT_OK/GD32VW55X_Wifi_BLE_SDK/GD32VW55x_RELEASE_V1.0.2/MSDK/lwip/lwip-2.1.2/src/core/ipv4\etharp.c **** }
 849              		.loc 1 643 10 is_stmt 0 discriminator 4
 850 0048 7D55     		li	a0,-1
 638:C:/Users/stapi/OneDrive/Desktop/GD32VW553/V1_MQTT_OK/GD32VW55X_Wifi_BLE_SDK/GD32VW55x_RELEASE_V1.0.2/MSDK/lwip/lwip-2.1.2/src/core/ipv4\etharp.c ****     *eth_ret = &arp_table[i].ethaddr;
 851              		.loc 1 638 6 discriminator 4
 852 004a 63C80702 		blt	a5,zero,.L71
 638:C:/Users/stapi/OneDrive/Desktop/GD32VW553/V1_MQTT_OK/GD32VW55X_Wifi_BLE_SDK/GD32VW55x_RELEASE_V1.0.2/MSDK/lwip/lwip-2.1.2/src/core/ipv4\etharp.c ****     *eth_ret = &arp_table[i].ethaddr;
 853              		.loc 1 638 32 discriminator 1
 854 004e 3E85     		mv	a0,a5
 855 0050 6147     		li	a4,24
 856 0052 3307E502 		mul	a4,a0,a4
 857 0056 B7070000 		lui	a5,%hi(.LANCHOR0)
 858              	.LVL83:
 859 005a 93870700 		addi	a5,a5,%lo(.LANCHOR0)
 860 005e B386E700 		add	a3,a5,a4
 638:C:/Users/stapi/OneDrive/Desktop/GD32VW553/V1_MQTT_OK/GD32VW55X_Wifi_BLE_SDK/GD32VW55x_RELEASE_V1.0.2/MSDK/lwip/lwip-2.1.2/src/core/ipv4\etharp.c ****     *eth_ret = &arp_table[i].ethaddr;
 861              		.loc 1 638 16 discriminator 1
 862 0062 03C64601 		lbu	a2,20(a3)
 863 0066 8546     		li	a3,1
 864 0068 63FDC600 		bleu	a2,a3,.L77
 639:C:/Users/stapi/OneDrive/Desktop/GD32VW553/V1_MQTT_OK/GD32VW55X_Wifi_BLE_SDK/GD32VW55x_RELEASE_V1.0.2/MSDK/lwip/lwip-2.1.2/src/core/ipv4\etharp.c ****     *ip_ret = &arp_table[i].ipaddr;
 865              		.loc 1 639 5 is_stmt 1
 639:C:/Users/stapi/OneDrive/Desktop/GD32VW553/V1_MQTT_OK/GD32VW55X_Wifi_BLE_SDK/GD32VW55x_RELEASE_V1.0.2/MSDK/lwip/lwip-2.1.2/src/core/ipv4\etharp.c ****     *ip_ret = &arp_table[i].ipaddr;
 866              		.loc 1 639 16 is_stmt 0
 867 006c 9306C700 		addi	a3,a4,12
 868 0070 BE96     		add	a3,a5,a3
 640:C:/Users/stapi/OneDrive/Desktop/GD32VW553/V1_MQTT_OK/GD32VW55X_Wifi_BLE_SDK/GD32VW55x_RELEASE_V1.0.2/MSDK/lwip/lwip-2.1.2/src/core/ipv4\etharp.c ****     return i;
 869              		.loc 1 640 15
 870 0072 1107     		addi	a4,a4,4
 639:C:/Users/stapi/OneDrive/Desktop/GD32VW553/V1_MQTT_OK/GD32VW55X_Wifi_BLE_SDK/GD32VW55x_RELEASE_V1.0.2/MSDK/lwip/lwip-2.1.2/src/core/ipv4\etharp.c ****     *ip_ret = &arp_table[i].ipaddr;
 871              		.loc 1 639 14
 872 0074 94C0     		sw	a3,0(s1)
 640:C:/Users/stapi/OneDrive/Desktop/GD32VW553/V1_MQTT_OK/GD32VW55X_Wifi_BLE_SDK/GD32VW55x_RELEASE_V1.0.2/MSDK/lwip/lwip-2.1.2/src/core/ipv4\etharp.c ****     return i;
 873              		.loc 1 640 5 is_stmt 1
 640:C:/Users/stapi/OneDrive/Desktop/GD32VW553/V1_MQTT_OK/GD32VW55X_Wifi_BLE_SDK/GD32VW55x_RELEASE_V1.0.2/MSDK/lwip/lwip-2.1.2/src/core/ipv4\etharp.c ****     return i;
 874              		.loc 1 640 15 is_stmt 0
 875 0076 BA97     		add	a5,a5,a4
 640:C:/Users/stapi/OneDrive/Desktop/GD32VW553/V1_MQTT_OK/GD32VW55X_Wifi_BLE_SDK/GD32VW55x_RELEASE_V1.0.2/MSDK/lwip/lwip-2.1.2/src/core/ipv4\etharp.c ****     return i;
 876              		.loc 1 640 13
 877 0078 1CC0     		sw	a5,0(s0)
 641:C:/Users/stapi/OneDrive/Desktop/GD32VW553/V1_MQTT_OK/GD32VW55X_Wifi_BLE_SDK/GD32VW55x_RELEASE_V1.0.2/MSDK/lwip/lwip-2.1.2/src/core/ipv4\etharp.c ****   }
 878              		.loc 1 641 5 is_stmt 1
 879              	.L71:
 644:C:/Users/stapi/OneDrive/Desktop/GD32VW553/V1_MQTT_OK/GD32VW55X_Wifi_BLE_SDK/GD32VW55x_RELEASE_V1.0.2/MSDK/lwip/lwip-2.1.2/src/core/ipv4\etharp.c **** 
 880              		.loc 1 644 1 is_stmt 0
 881 007a 17030000 		tail	__riscv_restore_2
 881      67000300 
 882              		.cfi_remember_state
 883              		.cfi_restore 9
 884              		.cfi_restore 8
 885              		.cfi_restore 1
 886              		.cfi_def_cfa_offset 0
 887              	.L77:
 888              		.cfi_restore_state
 643:C:/Users/stapi/OneDrive/Desktop/GD32VW553/V1_MQTT_OK/GD32VW55X_Wifi_BLE_SDK/GD32VW55x_RELEASE_V1.0.2/MSDK/lwip/lwip-2.1.2/src/core/ipv4\etharp.c **** }
 889              		.loc 1 643 10
 890 0082 7D55     		li	a0,-1
 891 0084 DDBF     		j	.L71
 892              		.cfi_endproc
 893              	.LFE10:
 895              		.section	.rodata.etharp_get_entry.str1.4,"aMS",@progbits,1
 896              		.align	2
 897              	.LC10:
 898 0000 69706164 		.string	"ipaddr != NULL"
 898      64722021 
 898      3D204E55 
 898      4C4C00
 899 000f 00       		.align	2
 900              	.LC11:
 901 0010 6574685F 		.string	"eth_ret != NULL"
 901      72657420 
 901      213D204E 
 901      554C4C00 
 902              		.section	.text.etharp_get_entry,"ax",@progbits
 903              		.align	1
 904              		.globl	etharp_get_entry
 906              	etharp_get_entry:
 907              	.LFB11:
 657:C:/Users/stapi/OneDrive/Desktop/GD32VW553/V1_MQTT_OK/GD32VW55X_Wifi_BLE_SDK/GD32VW55x_RELEASE_V1.0.2/MSDK/lwip/lwip-2.1.2/src/core/ipv4\etharp.c ****   LWIP_ASSERT("ipaddr != NULL", ipaddr != NULL);
 908              		.loc 1 657 1 is_stmt 1
 909              		.cfi_startproc
 910              	.LVL84:
 911 0000 17030000 		call	t0,__riscv_save_0
 911      E7020300 
 912              		.cfi_offset 1, -4
 913              		.cfi_def_cfa_offset 16
 658:C:/Users/stapi/OneDrive/Desktop/GD32VW553/V1_MQTT_OK/GD32VW55X_Wifi_BLE_SDK/GD32VW55x_RELEASE_V1.0.2/MSDK/lwip/lwip-2.1.2/src/core/ipv4\etharp.c ****   LWIP_ASSERT("netif != NULL", netif != NULL);
 914              		.loc 1 658 3
 658:C:/Users/stapi/OneDrive/Desktop/GD32VW553/V1_MQTT_OK/GD32VW55X_Wifi_BLE_SDK/GD32VW55x_RELEASE_V1.0.2/MSDK/lwip/lwip-2.1.2/src/core/ipv4\etharp.c ****   LWIP_ASSERT("netif != NULL", netif != NULL);
 915              		.loc 1 658 3
 916 0008 85E5     		bne	a1,zero,.L83
 658:C:/Users/stapi/OneDrive/Desktop/GD32VW553/V1_MQTT_OK/GD32VW55X_Wifi_BLE_SDK/GD32VW55x_RELEASE_V1.0.2/MSDK/lwip/lwip-2.1.2/src/core/ipv4\etharp.c ****   LWIP_ASSERT("netif != NULL", netif != NULL);
 917              		.loc 1 658 3 discriminator 1
 658:C:/Users/stapi/OneDrive/Desktop/GD32VW553/V1_MQTT_OK/GD32VW55X_Wifi_BLE_SDK/GD32VW55x_RELEASE_V1.0.2/MSDK/lwip/lwip-2.1.2/src/core/ipv4\etharp.c ****   LWIP_ASSERT("netif != NULL", netif != NULL);
 918              		.loc 1 658 3 discriminator 1
 919 000a B7060000 		lui	a3,%hi(.LC0)
 920              	.LVL85:
 921 000e B7050000 		lui	a1,%hi(.LC10)
 922              	.LVL86:
 923 0012 37050000 		lui	a0,%hi(.LC2)
 924              	.LVL87:
 925 0016 93860600 		addi	a3,a3,%lo(.LC0)
 926 001a 13062029 		li	a2,658
 927              	.LVL88:
 928 001e 93850500 		addi	a1,a1,%lo(.LC10)
 929 0022 13050500 		addi	a0,a0,%lo(.LC2)
 930 0026 97000000 		call	printf
 930      E7800000 
 931              	.LVL89:
 932              	.L84:
 658:C:/Users/stapi/OneDrive/Desktop/GD32VW553/V1_MQTT_OK/GD32VW55X_Wifi_BLE_SDK/GD32VW55x_RELEASE_V1.0.2/MSDK/lwip/lwip-2.1.2/src/core/ipv4\etharp.c ****   LWIP_ASSERT("netif != NULL", netif != NULL);
 933              		.loc 1 658 3 discriminator 1
 658:C:/Users/stapi/OneDrive/Desktop/GD32VW553/V1_MQTT_OK/GD32VW55X_Wifi_BLE_SDK/GD32VW55x_RELEASE_V1.0.2/MSDK/lwip/lwip-2.1.2/src/core/ipv4\etharp.c ****   LWIP_ASSERT("netif != NULL", netif != NULL);
 934              		.loc 1 658 3 discriminator 1
 658:C:/Users/stapi/OneDrive/Desktop/GD32VW553/V1_MQTT_OK/GD32VW55X_Wifi_BLE_SDK/GD32VW55x_RELEASE_V1.0.2/MSDK/lwip/lwip-2.1.2/src/core/ipv4\etharp.c ****   LWIP_ASSERT("netif != NULL", netif != NULL);
 935              		.loc 1 658 3 discriminator 1
 936 002e 01A0     		j	.L84
 937              	.LVL90:
 938              	.L83:
 658:C:/Users/stapi/OneDrive/Desktop/GD32VW553/V1_MQTT_OK/GD32VW55X_Wifi_BLE_SDK/GD32VW55x_RELEASE_V1.0.2/MSDK/lwip/lwip-2.1.2/src/core/ipv4\etharp.c ****   LWIP_ASSERT("netif != NULL", netif != NULL);
 939              		.loc 1 658 3 discriminator 2
 658:C:/Users/stapi/OneDrive/Desktop/GD32VW553/V1_MQTT_OK/GD32VW55X_Wifi_BLE_SDK/GD32VW55x_RELEASE_V1.0.2/MSDK/lwip/lwip-2.1.2/src/core/ipv4\etharp.c ****   LWIP_ASSERT("netif != NULL", netif != NULL);
 940              		.loc 1 658 3 discriminator 2
 659:C:/Users/stapi/OneDrive/Desktop/GD32VW553/V1_MQTT_OK/GD32VW55X_Wifi_BLE_SDK/GD32VW55x_RELEASE_V1.0.2/MSDK/lwip/lwip-2.1.2/src/core/ipv4\etharp.c ****   LWIP_ASSERT("eth_ret != NULL", eth_ret != NULL);
 941              		.loc 1 659 3 discriminator 2
 659:C:/Users/stapi/OneDrive/Desktop/GD32VW553/V1_MQTT_OK/GD32VW55X_Wifi_BLE_SDK/GD32VW55x_RELEASE_V1.0.2/MSDK/lwip/lwip-2.1.2/src/core/ipv4\etharp.c ****   LWIP_ASSERT("eth_ret != NULL", eth_ret != NULL);
 942              		.loc 1 659 3 discriminator 2
 943 0030 05E6     		bne	a2,zero,.L85
 659:C:/Users/stapi/OneDrive/Desktop/GD32VW553/V1_MQTT_OK/GD32VW55X_Wifi_BLE_SDK/GD32VW55x_RELEASE_V1.0.2/MSDK/lwip/lwip-2.1.2/src/core/ipv4\etharp.c ****   LWIP_ASSERT("eth_ret != NULL", eth_ret != NULL);
 944              		.loc 1 659 3 discriminator 1
 659:C:/Users/stapi/OneDrive/Desktop/GD32VW553/V1_MQTT_OK/GD32VW55X_Wifi_BLE_SDK/GD32VW55x_RELEASE_V1.0.2/MSDK/lwip/lwip-2.1.2/src/core/ipv4\etharp.c ****   LWIP_ASSERT("eth_ret != NULL", eth_ret != NULL);
 945              		.loc 1 659 3 discriminator 1
 946 0032 B7060000 		lui	a3,%hi(.LC0)
 947              	.LVL91:
 948 0036 B7050000 		lui	a1,%hi(.LC4)
 949              	.LVL92:
 950 003a 37050000 		lui	a0,%hi(.LC2)
 951              	.LVL93:
 952 003e 93860600 		addi	a3,a3,%lo(.LC0)
 953 0042 13063029 		li	a2,659
 954              	.LVL94:
 955 0046 93850500 		addi	a1,a1,%lo(.LC4)
 956 004a 13050500 		addi	a0,a0,%lo(.LC2)
 957 004e 97000000 		call	printf
 957      E7800000 
 958              	.LVL95:
 959              	.L86:
 659:C:/Users/stapi/OneDrive/Desktop/GD32VW553/V1_MQTT_OK/GD32VW55X_Wifi_BLE_SDK/GD32VW55x_RELEASE_V1.0.2/MSDK/lwip/lwip-2.1.2/src/core/ipv4\etharp.c ****   LWIP_ASSERT("eth_ret != NULL", eth_ret != NULL);
 960              		.loc 1 659 3 discriminator 2
 659:C:/Users/stapi/OneDrive/Desktop/GD32VW553/V1_MQTT_OK/GD32VW55X_Wifi_BLE_SDK/GD32VW55x_RELEASE_V1.0.2/MSDK/lwip/lwip-2.1.2/src/core/ipv4\etharp.c ****   LWIP_ASSERT("eth_ret != NULL", eth_ret != NULL);
 961              		.loc 1 659 3 discriminator 2
 659:C:/Users/stapi/OneDrive/Desktop/GD32VW553/V1_MQTT_OK/GD32VW55X_Wifi_BLE_SDK/GD32VW55x_RELEASE_V1.0.2/MSDK/lwip/lwip-2.1.2/src/core/ipv4\etharp.c ****   LWIP_ASSERT("eth_ret != NULL", eth_ret != NULL);
 962              		.loc 1 659 3 discriminator 2
 963 0056 01A0     		j	.L86
 964              	.LVL96:
 965              	.L85:
 659:C:/Users/stapi/OneDrive/Desktop/GD32VW553/V1_MQTT_OK/GD32VW55X_Wifi_BLE_SDK/GD32VW55x_RELEASE_V1.0.2/MSDK/lwip/lwip-2.1.2/src/core/ipv4\etharp.c ****   LWIP_ASSERT("eth_ret != NULL", eth_ret != NULL);
 966              		.loc 1 659 3 discriminator 2
 659:C:/Users/stapi/OneDrive/Desktop/GD32VW553/V1_MQTT_OK/GD32VW55X_Wifi_BLE_SDK/GD32VW55x_RELEASE_V1.0.2/MSDK/lwip/lwip-2.1.2/src/core/ipv4\etharp.c ****   LWIP_ASSERT("eth_ret != NULL", eth_ret != NULL);
 967              		.loc 1 659 3 discriminator 2
 660:C:/Users/stapi/OneDrive/Desktop/GD32VW553/V1_MQTT_OK/GD32VW55X_Wifi_BLE_SDK/GD32VW55x_RELEASE_V1.0.2/MSDK/lwip/lwip-2.1.2/src/core/ipv4\etharp.c **** 
 968              		.loc 1 660 3 discriminator 2
 660:C:/Users/stapi/OneDrive/Desktop/GD32VW553/V1_MQTT_OK/GD32VW55X_Wifi_BLE_SDK/GD32VW55x_RELEASE_V1.0.2/MSDK/lwip/lwip-2.1.2/src/core/ipv4\etharp.c **** 
 969              		.loc 1 660 3 discriminator 2
 970 0058 85E6     		bne	a3,zero,.L87
 660:C:/Users/stapi/OneDrive/Desktop/GD32VW553/V1_MQTT_OK/GD32VW55X_Wifi_BLE_SDK/GD32VW55x_RELEASE_V1.0.2/MSDK/lwip/lwip-2.1.2/src/core/ipv4\etharp.c **** 
 971              		.loc 1 660 3 discriminator 1
 660:C:/Users/stapi/OneDrive/Desktop/GD32VW553/V1_MQTT_OK/GD32VW55X_Wifi_BLE_SDK/GD32VW55x_RELEASE_V1.0.2/MSDK/lwip/lwip-2.1.2/src/core/ipv4\etharp.c **** 
 972              		.loc 1 660 3 discriminator 1
 973 005a B7060000 		lui	a3,%hi(.LC0)
 974              	.LVL97:
 975 005e B7050000 		lui	a1,%hi(.LC11)
 976              	.LVL98:
 977 0062 37050000 		lui	a0,%hi(.LC2)
 978              	.LVL99:
 979 0066 93860600 		addi	a3,a3,%lo(.LC0)
 980 006a 13064029 		li	a2,660
 981              	.LVL100:
 982 006e 93850500 		addi	a1,a1,%lo(.LC11)
 983 0072 13050500 		addi	a0,a0,%lo(.LC2)
 984 0076 97000000 		call	printf
 984      E7800000 
 985              	.LVL101:
 986              	.L88:
 660:C:/Users/stapi/OneDrive/Desktop/GD32VW553/V1_MQTT_OK/GD32VW55X_Wifi_BLE_SDK/GD32VW55x_RELEASE_V1.0.2/MSDK/lwip/lwip-2.1.2/src/core/ipv4\etharp.c **** 
 987              		.loc 1 660 3 discriminator 3
 660:C:/Users/stapi/OneDrive/Desktop/GD32VW553/V1_MQTT_OK/GD32VW55X_Wifi_BLE_SDK/GD32VW55x_RELEASE_V1.0.2/MSDK/lwip/lwip-2.1.2/src/core/ipv4\etharp.c **** 
 988              		.loc 1 660 3 discriminator 3
 660:C:/Users/stapi/OneDrive/Desktop/GD32VW553/V1_MQTT_OK/GD32VW55X_Wifi_BLE_SDK/GD32VW55x_RELEASE_V1.0.2/MSDK/lwip/lwip-2.1.2/src/core/ipv4\etharp.c **** 
 989              		.loc 1 660 3 discriminator 3
 990 007e 01A0     		j	.L88
 991              	.LVL102:
 992              	.L87:
 993 0080 AA87     		mv	a5,a0
 660:C:/Users/stapi/OneDrive/Desktop/GD32VW553/V1_MQTT_OK/GD32VW55X_Wifi_BLE_SDK/GD32VW55x_RELEASE_V1.0.2/MSDK/lwip/lwip-2.1.2/src/core/ipv4\etharp.c **** 
 994              		.loc 1 660 3 discriminator 2
 660:C:/Users/stapi/OneDrive/Desktop/GD32VW553/V1_MQTT_OK/GD32VW55X_Wifi_BLE_SDK/GD32VW55x_RELEASE_V1.0.2/MSDK/lwip/lwip-2.1.2/src/core/ipv4\etharp.c **** 
 995              		.loc 1 660 3 discriminator 2
 662:C:/Users/stapi/OneDrive/Desktop/GD32VW553/V1_MQTT_OK/GD32VW55X_Wifi_BLE_SDK/GD32VW55x_RELEASE_V1.0.2/MSDK/lwip/lwip-2.1.2/src/core/ipv4\etharp.c ****     *ipaddr  = &arp_table[i].ipaddr;
 996              		.loc 1 662 3 discriminator 2
 662:C:/Users/stapi/OneDrive/Desktop/GD32VW553/V1_MQTT_OK/GD32VW55X_Wifi_BLE_SDK/GD32VW55x_RELEASE_V1.0.2/MSDK/lwip/lwip-2.1.2/src/core/ipv4\etharp.c ****     *ipaddr  = &arp_table[i].ipaddr;
 997              		.loc 1 662 6 is_stmt 0 discriminator 2
 998 0082 2547     		li	a4,9
 668:C:/Users/stapi/OneDrive/Desktop/GD32VW553/V1_MQTT_OK/GD32VW55X_Wifi_BLE_SDK/GD32VW55x_RELEASE_V1.0.2/MSDK/lwip/lwip-2.1.2/src/core/ipv4\etharp.c ****   }
 999              		.loc 1 668 12 discriminator 2
 1000 0084 0145     		li	a0,0
 1001              	.LVL103:
 662:C:/Users/stapi/OneDrive/Desktop/GD32VW553/V1_MQTT_OK/GD32VW55X_Wifi_BLE_SDK/GD32VW55x_RELEASE_V1.0.2/MSDK/lwip/lwip-2.1.2/src/core/ipv4\etharp.c ****     *ipaddr  = &arp_table[i].ipaddr;
 1002              		.loc 1 662 6 discriminator 2
 1003 0086 636CF702 		bgtu	a5,a4,.L82
 662:C:/Users/stapi/OneDrive/Desktop/GD32VW553/V1_MQTT_OK/GD32VW55X_Wifi_BLE_SDK/GD32VW55x_RELEASE_V1.0.2/MSDK/lwip/lwip-2.1.2/src/core/ipv4\etharp.c ****     *ipaddr  = &arp_table[i].ipaddr;
 1004              		.loc 1 662 44 discriminator 1
 1005 008a 6145     		li	a0,24
 1006 008c B387A702 		mul	a5,a5,a0
 1007              	.LVL104:
 1008 0090 37070000 		lui	a4,%hi(.LANCHOR0)
 1009 0094 13070700 		addi	a4,a4,%lo(.LANCHOR0)
 662:C:/Users/stapi/OneDrive/Desktop/GD32VW553/V1_MQTT_OK/GD32VW55X_Wifi_BLE_SDK/GD32VW55x_RELEASE_V1.0.2/MSDK/lwip/lwip-2.1.2/src/core/ipv4\etharp.c ****     *ipaddr  = &arp_table[i].ipaddr;
 1010              		.loc 1 662 28 discriminator 1
 1011 0098 8548     		li	a7,1
 668:C:/Users/stapi/OneDrive/Desktop/GD32VW553/V1_MQTT_OK/GD32VW55X_Wifi_BLE_SDK/GD32VW55x_RELEASE_V1.0.2/MSDK/lwip/lwip-2.1.2/src/core/ipv4\etharp.c ****   }
 1012              		.loc 1 668 12 discriminator 1
 1013 009a 0145     		li	a0,0
 662:C:/Users/stapi/OneDrive/Desktop/GD32VW553/V1_MQTT_OK/GD32VW55X_Wifi_BLE_SDK/GD32VW55x_RELEASE_V1.0.2/MSDK/lwip/lwip-2.1.2/src/core/ipv4\etharp.c ****     *ipaddr  = &arp_table[i].ipaddr;
 1014              		.loc 1 662 44 discriminator 1
 1015 009c 3308F700 		add	a6,a4,a5
 662:C:/Users/stapi/OneDrive/Desktop/GD32VW553/V1_MQTT_OK/GD32VW55X_Wifi_BLE_SDK/GD32VW55x_RELEASE_V1.0.2/MSDK/lwip/lwip-2.1.2/src/core/ipv4\etharp.c ****     *ipaddr  = &arp_table[i].ipaddr;
 1016              		.loc 1 662 28 discriminator 1
 1017 00a0 03434801 		lbu	t1,20(a6)
 1018 00a4 63FD6800 		bleu	t1,a7,.L82
 663:C:/Users/stapi/OneDrive/Desktop/GD32VW553/V1_MQTT_OK/GD32VW55X_Wifi_BLE_SDK/GD32VW55x_RELEASE_V1.0.2/MSDK/lwip/lwip-2.1.2/src/core/ipv4\etharp.c ****     *netif   = arp_table[i].netif;
 1019              		.loc 1 663 5 is_stmt 1
 663:C:/Users/stapi/OneDrive/Desktop/GD32VW553/V1_MQTT_OK/GD32VW55X_Wifi_BLE_SDK/GD32VW55x_RELEASE_V1.0.2/MSDK/lwip/lwip-2.1.2/src/core/ipv4\etharp.c ****     *netif   = arp_table[i].netif;
 1020              		.loc 1 663 16 is_stmt 0
 1021 00a8 13854700 		addi	a0,a5,4
 1022 00ac 3A95     		add	a0,a4,a0
 663:C:/Users/stapi/OneDrive/Desktop/GD32VW553/V1_MQTT_OK/GD32VW55X_Wifi_BLE_SDK/GD32VW55x_RELEASE_V1.0.2/MSDK/lwip/lwip-2.1.2/src/core/ipv4\etharp.c ****     *netif   = arp_table[i].netif;
 1023              		.loc 1 663 14
 1024 00ae 88C1     		sw	a0,0(a1)
 664:C:/Users/stapi/OneDrive/Desktop/GD32VW553/V1_MQTT_OK/GD32VW55X_Wifi_BLE_SDK/GD32VW55x_RELEASE_V1.0.2/MSDK/lwip/lwip-2.1.2/src/core/ipv4\etharp.c ****     *eth_ret = &arp_table[i].ethaddr;
 1025              		.loc 1 664 5 is_stmt 1
 664:C:/Users/stapi/OneDrive/Desktop/GD32VW553/V1_MQTT_OK/GD32VW55X_Wifi_BLE_SDK/GD32VW55x_RELEASE_V1.0.2/MSDK/lwip/lwip-2.1.2/src/core/ipv4\etharp.c ****     *eth_ret = &arp_table[i].ethaddr;
 1026              		.loc 1 664 28 is_stmt 0
 1027 00b0 83258800 		lw	a1,8(a6)
 1028              	.LVL105:
 665:C:/Users/stapi/OneDrive/Desktop/GD32VW553/V1_MQTT_OK/GD32VW55X_Wifi_BLE_SDK/GD32VW55x_RELEASE_V1.0.2/MSDK/lwip/lwip-2.1.2/src/core/ipv4\etharp.c ****     return 1;
 1029              		.loc 1 665 16
 1030 00b4 B107     		addi	a5,a5,12
 1031 00b6 BA97     		add	a5,a4,a5
 664:C:/Users/stapi/OneDrive/Desktop/GD32VW553/V1_MQTT_OK/GD32VW55X_Wifi_BLE_SDK/GD32VW55x_RELEASE_V1.0.2/MSDK/lwip/lwip-2.1.2/src/core/ipv4\etharp.c ****     *eth_ret = &arp_table[i].ethaddr;
 1032              		.loc 1 664 14
 1033 00b8 0CC2     		sw	a1,0(a2)
 665:C:/Users/stapi/OneDrive/Desktop/GD32VW553/V1_MQTT_OK/GD32VW55X_Wifi_BLE_SDK/GD32VW55x_RELEASE_V1.0.2/MSDK/lwip/lwip-2.1.2/src/core/ipv4\etharp.c ****     return 1;
 1034              		.loc 1 665 5 is_stmt 1
 665:C:/Users/stapi/OneDrive/Desktop/GD32VW553/V1_MQTT_OK/GD32VW55X_Wifi_BLE_SDK/GD32VW55x_RELEASE_V1.0.2/MSDK/lwip/lwip-2.1.2/src/core/ipv4\etharp.c ****     return 1;
 1035              		.loc 1 665 14 is_stmt 0
 1036 00ba 9CC2     		sw	a5,0(a3)
 666:C:/Users/stapi/OneDrive/Desktop/GD32VW553/V1_MQTT_OK/GD32VW55X_Wifi_BLE_SDK/GD32VW55x_RELEASE_V1.0.2/MSDK/lwip/lwip-2.1.2/src/core/ipv4\etharp.c ****   } else {
 1037              		.loc 1 666 5 is_stmt 1
 666:C:/Users/stapi/OneDrive/Desktop/GD32VW553/V1_MQTT_OK/GD32VW55X_Wifi_BLE_SDK/GD32VW55x_RELEASE_V1.0.2/MSDK/lwip/lwip-2.1.2/src/core/ipv4\etharp.c ****   } else {
 1038              		.loc 1 666 12 is_stmt 0
 1039 00bc 0545     		li	a0,1
 1040              	.L82:
 670:C:/Users/stapi/OneDrive/Desktop/GD32VW553/V1_MQTT_OK/GD32VW55X_Wifi_BLE_SDK/GD32VW55x_RELEASE_V1.0.2/MSDK/lwip/lwip-2.1.2/src/core/ipv4\etharp.c **** 
 1041              		.loc 1 670 1
 1042 00be 17030000 		tail	__riscv_restore_0
 1042      67000300 
 1043              		.cfi_restore 1
 1044              		.cfi_def_cfa_offset 0
 1045              		.cfi_endproc
 1046              	.LFE11:
 1048              		.section	.rodata.etharp_input.str1.4,"aMS",@progbits,1
 1049              		.align	2
 1050              	.LC12:
 1051 0000 6E657469 		.string	"netif->hwaddr_len == ETH_HWADDR_LEN"
 1051      662D3E68 
 1051      77616464 
 1051      725F6C65 
 1051      6E203D3D 
 1052              		.section	.text.etharp_input,"ax",@progbits
 1053              		.align	1
 1054              		.globl	etharp_input
 1056              	etharp_input:
 1057              	.LFB12:
 686:C:/Users/stapi/OneDrive/Desktop/GD32VW553/V1_MQTT_OK/GD32VW55X_Wifi_BLE_SDK/GD32VW55x_RELEASE_V1.0.2/MSDK/lwip/lwip-2.1.2/src/core/ipv4\etharp.c ****   struct etharp_hdr *hdr;
 1058              		.loc 1 686 1 is_stmt 1
 1059              		.cfi_startproc
 1060              	.LVL106:
 1061 0000 17030000 		call	t0,__riscv_save_7
 1061      E7020300 
 1062              		.cfi_offset 22, -32
 1063              		.cfi_offset 21, -28
 1064              		.cfi_offset 20, -24
 1065              		.cfi_offset 19, -20
 1066              		.cfi_offset 18, -16
 1067              		.cfi_offset 9, -12
 1068              		.cfi_offset 8, -8
 1069              		.cfi_offset 1, -4
 1070              		.cfi_def_cfa_offset 32
 687:C:/Users/stapi/OneDrive/Desktop/GD32VW553/V1_MQTT_OK/GD32VW55X_Wifi_BLE_SDK/GD32VW55x_RELEASE_V1.0.2/MSDK/lwip/lwip-2.1.2/src/core/ipv4\etharp.c ****   /* these are aligned properly, whereas the ARP header fields might not be */
 1071              		.loc 1 687 3
 689:C:/Users/stapi/OneDrive/Desktop/GD32VW553/V1_MQTT_OK/GD32VW55X_Wifi_BLE_SDK/GD32VW55x_RELEASE_V1.0.2/MSDK/lwip/lwip-2.1.2/src/core/ipv4\etharp.c ****   u8_t for_us;
 1072              		.loc 1 689 3
 690:C:/Users/stapi/OneDrive/Desktop/GD32VW553/V1_MQTT_OK/GD32VW55X_Wifi_BLE_SDK/GD32VW55x_RELEASE_V1.0.2/MSDK/lwip/lwip-2.1.2/src/core/ipv4\etharp.c **** 
 1073              		.loc 1 690 3
 692:C:/Users/stapi/OneDrive/Desktop/GD32VW553/V1_MQTT_OK/GD32VW55X_Wifi_BLE_SDK/GD32VW55x_RELEASE_V1.0.2/MSDK/lwip/lwip-2.1.2/src/core/ipv4\etharp.c **** 
 1074              		.loc 1 692 28
 694:C:/Users/stapi/OneDrive/Desktop/GD32VW553/V1_MQTT_OK/GD32VW55X_Wifi_BLE_SDK/GD32VW55x_RELEASE_V1.0.2/MSDK/lwip/lwip-2.1.2/src/core/ipv4\etharp.c **** 
 1075              		.loc 1 694 3
 694:C:/Users/stapi/OneDrive/Desktop/GD32VW553/V1_MQTT_OK/GD32VW55X_Wifi_BLE_SDK/GD32VW55x_RELEASE_V1.0.2/MSDK/lwip/lwip-2.1.2/src/core/ipv4\etharp.c **** 
 1076              		.loc 1 694 3
 686:C:/Users/stapi/OneDrive/Desktop/GD32VW553/V1_MQTT_OK/GD32VW55X_Wifi_BLE_SDK/GD32VW55x_RELEASE_V1.0.2/MSDK/lwip/lwip-2.1.2/src/core/ipv4\etharp.c ****   struct etharp_hdr *hdr;
 1077              		.loc 1 686 1 is_stmt 0
 1078 0008 4111     		addi	sp,sp,-16
 1079              		.cfi_def_cfa_offset 48
 694:C:/Users/stapi/OneDrive/Desktop/GD32VW553/V1_MQTT_OK/GD32VW55X_Wifi_BLE_SDK/GD32VW55x_RELEASE_V1.0.2/MSDK/lwip/lwip-2.1.2/src/core/ipv4\etharp.c **** 
 1080              		.loc 1 694 3
 1081 000a 85E5     		bne	a1,zero,.L94
 694:C:/Users/stapi/OneDrive/Desktop/GD32VW553/V1_MQTT_OK/GD32VW55X_Wifi_BLE_SDK/GD32VW55x_RELEASE_V1.0.2/MSDK/lwip/lwip-2.1.2/src/core/ipv4\etharp.c **** 
 1082              		.loc 1 694 3 is_stmt 1 discriminator 1
 694:C:/Users/stapi/OneDrive/Desktop/GD32VW553/V1_MQTT_OK/GD32VW55X_Wifi_BLE_SDK/GD32VW55x_RELEASE_V1.0.2/MSDK/lwip/lwip-2.1.2/src/core/ipv4\etharp.c **** 
 1083              		.loc 1 694 3 discriminator 1
 1084 000c B7060000 		lui	a3,%hi(.LC0)
 1085 0010 B7050000 		lui	a1,%hi(.LC4)
 1086              	.LVL107:
 1087 0014 37050000 		lui	a0,%hi(.LC2)
 1088              	.LVL108:
 1089 0018 93860600 		addi	a3,a3,%lo(.LC0)
 1090 001c 1306602B 		li	a2,694
 1091 0020 93850500 		addi	a1,a1,%lo(.LC4)
 1092 0024 13050500 		addi	a0,a0,%lo(.LC2)
 1093 0028 97000000 		call	printf
 1093      E7800000 
 1094              	.LVL109:
 1095              	.L95:
 694:C:/Users/stapi/OneDrive/Desktop/GD32VW553/V1_MQTT_OK/GD32VW55X_Wifi_BLE_SDK/GD32VW55x_RELEASE_V1.0.2/MSDK/lwip/lwip-2.1.2/src/core/ipv4\etharp.c **** 
 1096              		.loc 1 694 3 discriminator 1
 694:C:/Users/stapi/OneDrive/Desktop/GD32VW553/V1_MQTT_OK/GD32VW55X_Wifi_BLE_SDK/GD32VW55x_RELEASE_V1.0.2/MSDK/lwip/lwip-2.1.2/src/core/ipv4\etharp.c **** 
 1097              		.loc 1 694 3 discriminator 1
 694:C:/Users/stapi/OneDrive/Desktop/GD32VW553/V1_MQTT_OK/GD32VW55X_Wifi_BLE_SDK/GD32VW55x_RELEASE_V1.0.2/MSDK/lwip/lwip-2.1.2/src/core/ipv4\etharp.c **** 
 1098              		.loc 1 694 3 discriminator 1
 1099 0030 01A0     		j	.L95
 1100              	.LVL110:
 1101              	.L94:
 696:C:/Users/stapi/OneDrive/Desktop/GD32VW553/V1_MQTT_OK/GD32VW55X_Wifi_BLE_SDK/GD32VW55x_RELEASE_V1.0.2/MSDK/lwip/lwip-2.1.2/src/core/ipv4\etharp.c **** 
 1102              		.loc 1 696 7 is_stmt 0 discriminator 2
 1103 0032 4441     		lw	s1,4(a0)
 1104 0034 AA89     		mv	s3,a0
 694:C:/Users/stapi/OneDrive/Desktop/GD32VW553/V1_MQTT_OK/GD32VW55X_Wifi_BLE_SDK/GD32VW55x_RELEASE_V1.0.2/MSDK/lwip/lwip-2.1.2/src/core/ipv4\etharp.c **** 
 1105              		.loc 1 694 3 is_stmt 1 discriminator 2
 694:C:/Users/stapi/OneDrive/Desktop/GD32VW553/V1_MQTT_OK/GD32VW55X_Wifi_BLE_SDK/GD32VW55x_RELEASE_V1.0.2/MSDK/lwip/lwip-2.1.2/src/core/ipv4\etharp.c **** 
 1106              		.loc 1 694 3 discriminator 2
 696:C:/Users/stapi/OneDrive/Desktop/GD32VW553/V1_MQTT_OK/GD32VW55X_Wifi_BLE_SDK/GD32VW55x_RELEASE_V1.0.2/MSDK/lwip/lwip-2.1.2/src/core/ipv4\etharp.c **** 
 1107              		.loc 1 696 3 discriminator 2
 1108              	.LVL111:
 699:C:/Users/stapi/OneDrive/Desktop/GD32VW553/V1_MQTT_OK/GD32VW55X_Wifi_BLE_SDK/GD32VW55x_RELEASE_V1.0.2/MSDK/lwip/lwip-2.1.2/src/core/ipv4\etharp.c ****       (hdr->hwlen != ETH_HWADDR_LEN) ||
 1109              		.loc 1 699 3 discriminator 2
 699:C:/Users/stapi/OneDrive/Desktop/GD32VW553/V1_MQTT_OK/GD32VW55X_Wifi_BLE_SDK/GD32VW55x_RELEASE_V1.0.2/MSDK/lwip/lwip-2.1.2/src/core/ipv4\etharp.c ****       (hdr->hwlen != ETH_HWADDR_LEN) ||
 1110              		.loc 1 699 11 is_stmt 0 discriminator 2
 1111 0036 83C71400 		lbu	a5,1(s1)
 1112 003a 03C70400 		lbu	a4,0(s1)
 1113 003e A207     		slli	a5,a5,8
 699:C:/Users/stapi/OneDrive/Desktop/GD32VW553/V1_MQTT_OK/GD32VW55X_Wifi_BLE_SDK/GD32VW55x_RELEASE_V1.0.2/MSDK/lwip/lwip-2.1.2/src/core/ipv4\etharp.c ****       (hdr->hwlen != ETH_HWADDR_LEN) ||
 1114              		.loc 1 699 6 discriminator 2
 1115 0040 D98F     		or	a5,a5,a4
 1116 0042 13070010 		li	a4,256
 1117 0046 6395E702 		bne	a5,a4,.L107
 699:C:/Users/stapi/OneDrive/Desktop/GD32VW553/V1_MQTT_OK/GD32VW55X_Wifi_BLE_SDK/GD32VW55x_RELEASE_V1.0.2/MSDK/lwip/lwip-2.1.2/src/core/ipv4\etharp.c ****       (hdr->hwlen != ETH_HWADDR_LEN) ||
 1118              		.loc 1 699 60 discriminator 1
 1119 004a 03C74400 		lbu	a4,4(s1)
 1120 004e 9947     		li	a5,6
 1121 0050 6310F702 		bne	a4,a5,.L107
 700:C:/Users/stapi/OneDrive/Desktop/GD32VW553/V1_MQTT_OK/GD32VW55X_Wifi_BLE_SDK/GD32VW55x_RELEASE_V1.0.2/MSDK/lwip/lwip-2.1.2/src/core/ipv4\etharp.c ****       (hdr->protolen != sizeof(ip4_addr_t)) ||
 1122              		.loc 1 700 38
 1123 0054 03C75400 		lbu	a4,5(s1)
 1124 0058 9147     		li	a5,4
 1125 005a 631BF700 		bne	a4,a5,.L107
 702:C:/Users/stapi/OneDrive/Desktop/GD32VW553/V1_MQTT_OK/GD32VW55X_Wifi_BLE_SDK/GD32VW55x_RELEASE_V1.0.2/MSDK/lwip/lwip-2.1.2/src/core/ipv4\etharp.c ****     LWIP_DEBUGF(ETHARP_DEBUG | LWIP_DBG_TRACE | LWIP_DBG_LEVEL_WARNING,
 1126              		.loc 1 702 11
 1127 005e 83C73400 		lbu	a5,3(s1)
 1128 0062 03C72400 		lbu	a4,2(s1)
 1129 0066 A207     		slli	a5,a5,8
 701:C:/Users/stapi/OneDrive/Desktop/GD32VW553/V1_MQTT_OK/GD32VW55X_Wifi_BLE_SDK/GD32VW55x_RELEASE_V1.0.2/MSDK/lwip/lwip-2.1.2/src/core/ipv4\etharp.c ****       (hdr->proto != PP_HTONS(ETHTYPE_IP)))  {
 1130              		.loc 1 701 45
 1131 0068 D98F     		or	a5,a5,a4
 1132 006a 2147     		li	a4,8
 1133 006c 638CE700 		beq	a5,a4,.L97
 1134              	.LVL112:
 1135              	.L107:
 785:C:/Users/stapi/OneDrive/Desktop/GD32VW553/V1_MQTT_OK/GD32VW55X_Wifi_BLE_SDK/GD32VW55x_RELEASE_V1.0.2/MSDK/lwip/lwip-2.1.2/src/core/ipv4\etharp.c **** }
 1136              		.loc 1 785 3 is_stmt 1 discriminator 3
 1137 0070 4E85     		mv	a0,s3
 1138 0072 97000000 		call	pbuf_free
 1138      E7800000 
 1139              	.LVL113:
 786:C:/Users/stapi/OneDrive/Desktop/GD32VW553/V1_MQTT_OK/GD32VW55X_Wifi_BLE_SDK/GD32VW55x_RELEASE_V1.0.2/MSDK/lwip/lwip-2.1.2/src/core/ipv4\etharp.c **** 
 1140              		.loc 1 786 1 is_stmt 0 discriminator 3
 1141 007a 4101     		addi	sp,sp,16
 1142              		.cfi_remember_state
 1143              		.cfi_def_cfa_offset 0
 1144 007c 17030000 		tail	__riscv_restore_7
 1144      67000300 
 1145              		.cfi_restore 22
 1146              		.cfi_restore 21
 1147              		.cfi_restore 20
 1148              		.cfi_restore 19
 1149              		.cfi_restore 18
 1150              		.cfi_restore 9
 1151              		.cfi_restore 8
 1152              		.cfi_restore 1
 1153              		.cfi_def_cfa_offset -32
 1154              	.LVL114:
 1155              	.L97:
 1156              		.cfi_restore_state
 1157 0084 2E84     		mv	s0,a1
 711:C:/Users/stapi/OneDrive/Desktop/GD32VW553/V1_MQTT_OK/GD32VW55X_Wifi_BLE_SDK/GD32VW55x_RELEASE_V1.0.2/MSDK/lwip/lwip-2.1.2/src/core/ipv4\etharp.c **** 
 1158              		.loc 1 711 32 is_stmt 1
 722:C:/Users/stapi/OneDrive/Desktop/GD32VW553/V1_MQTT_OK/GD32VW55X_Wifi_BLE_SDK/GD32VW55x_RELEASE_V1.0.2/MSDK/lwip/lwip-2.1.2/src/core/ipv4\etharp.c ****   IPADDR_WORDALIGNED_COPY_TO_IP4_ADDR_T(&dipaddr, &hdr->dipaddr);
 1159              		.loc 1 722 3
 1160 0086 1146     		li	a2,4
 1161 0088 9385E400 		addi	a1,s1,14
 1162              	.LVL115:
 1163 008c 2800     		addi	a0,sp,8
 1164              	.LVL116:
 1165 008e 97000000 		call	memcpy
 1165      E7800000 
 1166              	.LVL117:
 723:C:/Users/stapi/OneDrive/Desktop/GD32VW553/V1_MQTT_OK/GD32VW55X_Wifi_BLE_SDK/GD32VW55x_RELEASE_V1.0.2/MSDK/lwip/lwip-2.1.2/src/core/ipv4\etharp.c **** 
 1167              		.loc 1 723 3
 1168 0096 1146     		li	a2,4
 1169 0098 93858401 		addi	a1,s1,24
 1170 009c 6800     		addi	a0,sp,12
 1171 009e 97000000 		call	memcpy
 1171      E7800000 
 1172              	.LVL118:
 726:C:/Users/stapi/OneDrive/Desktop/GD32VW553/V1_MQTT_OK/GD32VW55X_Wifi_BLE_SDK/GD32VW55x_RELEASE_V1.0.2/MSDK/lwip/lwip-2.1.2/src/core/ipv4\etharp.c ****     for_us = 0;
 1173              		.loc 1 726 3
 726:C:/Users/stapi/OneDrive/Desktop/GD32VW553/V1_MQTT_OK/GD32VW55X_Wifi_BLE_SDK/GD32VW55x_RELEASE_V1.0.2/MSDK/lwip/lwip-2.1.2/src/core/ipv4\etharp.c ****     for_us = 0;
 1174              		.loc 1 726 7 is_stmt 0
 1175 00a6 5C40     		lw	a5,4(s0)
 726:C:/Users/stapi/OneDrive/Desktop/GD32VW553/V1_MQTT_OK/GD32VW55X_Wifi_BLE_SDK/GD32VW55x_RELEASE_V1.0.2/MSDK/lwip/lwip-2.1.2/src/core/ipv4\etharp.c ****     for_us = 0;
 1176              		.loc 1 726 6
 1177 00a8 B9C3     		beq	a5,zero,.L108
 730:C:/Users/stapi/OneDrive/Desktop/GD32VW553/V1_MQTT_OK/GD32VW55X_Wifi_BLE_SDK/GD32VW55x_RELEASE_V1.0.2/MSDK/lwip/lwip-2.1.2/src/core/ipv4\etharp.c ****   }
 1178              		.loc 1 730 5 is_stmt 1
 730:C:/Users/stapi/OneDrive/Desktop/GD32VW553/V1_MQTT_OK/GD32VW55X_Wifi_BLE_SDK/GD32VW55x_RELEASE_V1.0.2/MSDK/lwip/lwip-2.1.2/src/core/ipv4\etharp.c ****   }
 1179              		.loc 1 730 14 is_stmt 0
 1180 00aa 3249     		lw	s2,12(sp)
 738:C:/Users/stapi/OneDrive/Desktop/GD32VW553/V1_MQTT_OK/GD32VW55X_Wifi_BLE_SDK/GD32VW55x_RELEASE_V1.0.2/MSDK/lwip/lwip-2.1.2/src/core/ipv4\etharp.c ****                           for_us ? ETHARP_FLAG_TRY_HARD : ETHARP_FLAG_FIND_ONLY);
 1181              		.loc 1 738 3
 1182 00ac 894A     		li	s5,2
 730:C:/Users/stapi/OneDrive/Desktop/GD32VW553/V1_MQTT_OK/GD32VW55X_Wifi_BLE_SDK/GD32VW55x_RELEASE_V1.0.2/MSDK/lwip/lwip-2.1.2/src/core/ipv4\etharp.c ****   }
 1183              		.loc 1 730 14
 1184 00ae 3309F940 		sub	s2,s2,a5
 730:C:/Users/stapi/OneDrive/Desktop/GD32VW553/V1_MQTT_OK/GD32VW55X_Wifi_BLE_SDK/GD32VW55x_RELEASE_V1.0.2/MSDK/lwip/lwip-2.1.2/src/core/ipv4\etharp.c ****   }
 1185              		.loc 1 730 12
 1186 00b2 13391900 		seqz	s2,s2
 1187              	.LVL119:
 738:C:/Users/stapi/OneDrive/Desktop/GD32VW553/V1_MQTT_OK/GD32VW55X_Wifi_BLE_SDK/GD32VW55x_RELEASE_V1.0.2/MSDK/lwip/lwip-2.1.2/src/core/ipv4\etharp.c ****                           for_us ? ETHARP_FLAG_TRY_HARD : ETHARP_FLAG_FIND_ONLY);
 1188              		.loc 1 738 3 is_stmt 1
 1189 00b6 B38A2A41 		sub	s5,s5,s2
 1190 00ba 93FAFA0F 		andi	s5,s5,0xff
 1191              	.LVL120:
 1192              	.L99:
 1193              	.LBB14:
 1194              	.LBB15:
 427:C:/Users/stapi/OneDrive/Desktop/GD32VW553/V1_MQTT_OK/GD32VW55X_Wifi_BLE_SDK/GD32VW55x_RELEASE_V1.0.2/MSDK/lwip/lwip-2.1.2/src/core/ipv4\etharp.c ****   LWIP_ASSERT("netif->hwaddr_len == ETH_HWADDR_LEN", netif->hwaddr_len == ETH_HWADDR_LEN);
 1195              		.loc 1 427 3 discriminator 4
 428:C:/Users/stapi/OneDrive/Desktop/GD32VW553/V1_MQTT_OK/GD32VW55X_Wifi_BLE_SDK/GD32VW55x_RELEASE_V1.0.2/MSDK/lwip/lwip-2.1.2/src/core/ipv4\etharp.c ****   LWIP_DEBUGF(ETHARP_DEBUG | LWIP_DBG_TRACE, ("etharp_update_arp_entry: %"U16_F".%"U16_F".%"U16_F".
 1196              		.loc 1 428 3 discriminator 4
 428:C:/Users/stapi/OneDrive/Desktop/GD32VW553/V1_MQTT_OK/GD32VW55X_Wifi_BLE_SDK/GD32VW55x_RELEASE_V1.0.2/MSDK/lwip/lwip-2.1.2/src/core/ipv4\etharp.c ****   LWIP_DEBUGF(ETHARP_DEBUG | LWIP_DBG_TRACE, ("etharp_update_arp_entry: %"U16_F".%"U16_F".%"U16_F".
 1197              		.loc 1 428 3 discriminator 4
 1198 00be 03470403 		lbu	a4,48(s0)
 1199 00c2 9947     		li	a5,6
 1200 00c4 6308F702 		beq	a4,a5,.L100
 428:C:/Users/stapi/OneDrive/Desktop/GD32VW553/V1_MQTT_OK/GD32VW55X_Wifi_BLE_SDK/GD32VW55x_RELEASE_V1.0.2/MSDK/lwip/lwip-2.1.2/src/core/ipv4\etharp.c ****   LWIP_DEBUGF(ETHARP_DEBUG | LWIP_DBG_TRACE, ("etharp_update_arp_entry: %"U16_F".%"U16_F".%"U16_F".
 1201              		.loc 1 428 3
 428:C:/Users/stapi/OneDrive/Desktop/GD32VW553/V1_MQTT_OK/GD32VW55X_Wifi_BLE_SDK/GD32VW55x_RELEASE_V1.0.2/MSDK/lwip/lwip-2.1.2/src/core/ipv4\etharp.c ****   LWIP_DEBUGF(ETHARP_DEBUG | LWIP_DBG_TRACE, ("etharp_update_arp_entry: %"U16_F".%"U16_F".%"U16_F".
 1202              		.loc 1 428 3
 1203 00c8 B7060000 		lui	a3,%hi(.LC0)
 1204 00cc B7050000 		lui	a1,%hi(.LC12)
 1205 00d0 37050000 		lui	a0,%hi(.LC2)
 1206 00d4 93860600 		addi	a3,a3,%lo(.LC0)
 1207 00d8 1306C01A 		li	a2,428
 1208 00dc 93850500 		addi	a1,a1,%lo(.LC12)
 1209 00e0 13050500 		addi	a0,a0,%lo(.LC2)
 1210 00e4 97000000 		call	printf
 1210      E7800000 
 1211              	.LVL121:
 1212              	.L101:
 428:C:/Users/stapi/OneDrive/Desktop/GD32VW553/V1_MQTT_OK/GD32VW55X_Wifi_BLE_SDK/GD32VW55x_RELEASE_V1.0.2/MSDK/lwip/lwip-2.1.2/src/core/ipv4\etharp.c ****   LWIP_DEBUGF(ETHARP_DEBUG | LWIP_DBG_TRACE, ("etharp_update_arp_entry: %"U16_F".%"U16_F".%"U16_F".
 1213              		.loc 1 428 3
 428:C:/Users/stapi/OneDrive/Desktop/GD32VW553/V1_MQTT_OK/GD32VW55X_Wifi_BLE_SDK/GD32VW55x_RELEASE_V1.0.2/MSDK/lwip/lwip-2.1.2/src/core/ipv4\etharp.c ****   LWIP_DEBUGF(ETHARP_DEBUG | LWIP_DBG_TRACE, ("etharp_update_arp_entry: %"U16_F".%"U16_F".%"U16_F".
 1214              		.loc 1 428 3
 428:C:/Users/stapi/OneDrive/Desktop/GD32VW553/V1_MQTT_OK/GD32VW55X_Wifi_BLE_SDK/GD32VW55x_RELEASE_V1.0.2/MSDK/lwip/lwip-2.1.2/src/core/ipv4\etharp.c ****   LWIP_DEBUGF(ETHARP_DEBUG | LWIP_DBG_TRACE, ("etharp_update_arp_entry: %"U16_F".%"U16_F".%"U16_F".
 1215              		.loc 1 428 3
 1216 00ec 01A0     		j	.L101
 1217              	.LVL122:
 1218              	.L108:
 1219              	.LBE15:
 1220              	.LBE14:
 727:C:/Users/stapi/OneDrive/Desktop/GD32VW553/V1_MQTT_OK/GD32VW55X_Wifi_BLE_SDK/GD32VW55x_RELEASE_V1.0.2/MSDK/lwip/lwip-2.1.2/src/core/ipv4\etharp.c ****   } else {
 1221              		.loc 1 727 12 is_stmt 0
 1222 00ee 0149     		li	s2,0
 738:C:/Users/stapi/OneDrive/Desktop/GD32VW553/V1_MQTT_OK/GD32VW55X_Wifi_BLE_SDK/GD32VW55x_RELEASE_V1.0.2/MSDK/lwip/lwip-2.1.2/src/core/ipv4\etharp.c ****                           for_us ? ETHARP_FLAG_TRY_HARD : ETHARP_FLAG_FIND_ONLY);
 1223              		.loc 1 738 3
 1224 00f0 894A     		li	s5,2
 1225 00f2 F1B7     		j	.L99
 1226              	.LVL123:
 1227              	.L100:
 1228              	.LBB19:
 1229              	.LBB17:
 434:C:/Users/stapi/OneDrive/Desktop/GD32VW553/V1_MQTT_OK/GD32VW55X_Wifi_BLE_SDK/GD32VW55x_RELEASE_V1.0.2/MSDK/lwip/lwip-2.1.2/src/core/ipv4\etharp.c ****       ip4_addr_isbroadcast(ipaddr, netif) ||
 1230              		.loc 1 434 7
 1231 00f4 2245     		lw	a0,8(sp)
 1232              	.LBE17:
 1233              	.LBE19:
 738:C:/Users/stapi/OneDrive/Desktop/GD32VW553/V1_MQTT_OK/GD32VW55X_Wifi_BLE_SDK/GD32VW55x_RELEASE_V1.0.2/MSDK/lwip/lwip-2.1.2/src/core/ipv4\etharp.c ****                           for_us ? ETHARP_FLAG_TRY_HARD : ETHARP_FLAG_FIND_ONLY);
 1234              		.loc 1 738 3
 1235 00f6 138A8400 		addi	s4,s1,8
 1236              	.LBB20:
 1237              	.LBB18:
 428:C:/Users/stapi/OneDrive/Desktop/GD32VW553/V1_MQTT_OK/GD32VW55X_Wifi_BLE_SDK/GD32VW55x_RELEASE_V1.0.2/MSDK/lwip/lwip-2.1.2/src/core/ipv4\etharp.c ****   LWIP_DEBUGF(ETHARP_DEBUG | LWIP_DBG_TRACE, ("etharp_update_arp_entry: %"U16_F".%"U16_F".%"U16_F".
 1238              		.loc 1 428 3 is_stmt 1
 428:C:/Users/stapi/OneDrive/Desktop/GD32VW553/V1_MQTT_OK/GD32VW55X_Wifi_BLE_SDK/GD32VW55x_RELEASE_V1.0.2/MSDK/lwip/lwip-2.1.2/src/core/ipv4\etharp.c ****   LWIP_DEBUGF(ETHARP_DEBUG | LWIP_DBG_TRACE, ("etharp_update_arp_entry: %"U16_F".%"U16_F".%"U16_F".
 1239              		.loc 1 428 3
 432:C:/Users/stapi/OneDrive/Desktop/GD32VW553/V1_MQTT_OK/GD32VW55X_Wifi_BLE_SDK/GD32VW55x_RELEASE_V1.0.2/MSDK/lwip/lwip-2.1.2/src/core/ipv4\etharp.c ****   /* non-unicast address? */
 1240              		.loc 1 432 90
 434:C:/Users/stapi/OneDrive/Desktop/GD32VW553/V1_MQTT_OK/GD32VW55X_Wifi_BLE_SDK/GD32VW55x_RELEASE_V1.0.2/MSDK/lwip/lwip-2.1.2/src/core/ipv4\etharp.c ****       ip4_addr_isbroadcast(ipaddr, netif) ||
 1241              		.loc 1 434 3
 434:C:/Users/stapi/OneDrive/Desktop/GD32VW553/V1_MQTT_OK/GD32VW55X_Wifi_BLE_SDK/GD32VW55x_RELEASE_V1.0.2/MSDK/lwip/lwip-2.1.2/src/core/ipv4\etharp.c ****       ip4_addr_isbroadcast(ipaddr, netif) ||
 1242              		.loc 1 434 7 is_stmt 0
 1243 00fa 59C5     		beq	a0,zero,.L103
 435:C:/Users/stapi/OneDrive/Desktop/GD32VW553/V1_MQTT_OK/GD32VW55X_Wifi_BLE_SDK/GD32VW55x_RELEASE_V1.0.2/MSDK/lwip/lwip-2.1.2/src/core/ipv4\etharp.c ****       ip4_addr_ismulticast(ipaddr)) {
 1244              		.loc 1 435 7
 1245 00fc A285     		mv	a1,s0
 1246 00fe 97000000 		call	ip4_addr_isbroadcast_u32
 1246      E7800000 
 1247              	.LVL124:
 434:C:/Users/stapi/OneDrive/Desktop/GD32VW553/V1_MQTT_OK/GD32VW55X_Wifi_BLE_SDK/GD32VW55x_RELEASE_V1.0.2/MSDK/lwip/lwip-2.1.2/src/core/ipv4\etharp.c ****       ip4_addr_isbroadcast(ipaddr, netif) ||
 1248              		.loc 1 434 30
 1249 0106 49E1     		bne	a0,zero,.L103
 436:C:/Users/stapi/OneDrive/Desktop/GD32VW553/V1_MQTT_OK/GD32VW55X_Wifi_BLE_SDK/GD32VW55x_RELEASE_V1.0.2/MSDK/lwip/lwip-2.1.2/src/core/ipv4\etharp.c ****     LWIP_DEBUGF(ETHARP_DEBUG | LWIP_DBG_TRACE, ("etharp_update_arp_entry: will not add non-unicast 
 1250              		.loc 1 436 7
 1251 0108 A247     		lw	a5,8(sp)
 435:C:/Users/stapi/OneDrive/Desktop/GD32VW553/V1_MQTT_OK/GD32VW55X_Wifi_BLE_SDK/GD32VW55x_RELEASE_V1.0.2/MSDK/lwip/lwip-2.1.2/src/core/ipv4\etharp.c ****       ip4_addr_ismulticast(ipaddr)) {
 1252              		.loc 1 435 43
 1253 010a 1307000E 		li	a4,224
 436:C:/Users/stapi/OneDrive/Desktop/GD32VW553/V1_MQTT_OK/GD32VW55X_Wifi_BLE_SDK/GD32VW55x_RELEASE_V1.0.2/MSDK/lwip/lwip-2.1.2/src/core/ipv4\etharp.c ****     LWIP_DEBUGF(ETHARP_DEBUG | LWIP_DBG_TRACE, ("etharp_update_arp_entry: will not add non-unicast 
 1254              		.loc 1 436 7
 1255 010e 93F7070F 		andi	a5,a5,240
 435:C:/Users/stapi/OneDrive/Desktop/GD32VW553/V1_MQTT_OK/GD32VW55X_Wifi_BLE_SDK/GD32VW55x_RELEASE_V1.0.2/MSDK/lwip/lwip-2.1.2/src/core/ipv4\etharp.c ****       ip4_addr_ismulticast(ipaddr)) {
 1256              		.loc 1 435 43
 1257 0112 638BE706 		beq	a5,a4,.L103
 441:C:/Users/stapi/OneDrive/Desktop/GD32VW553/V1_MQTT_OK/GD32VW55X_Wifi_BLE_SDK/GD32VW55x_RELEASE_V1.0.2/MSDK/lwip/lwip-2.1.2/src/core/ipv4\etharp.c ****   /* bail out if no entry could be found */
 1258              		.loc 1 441 3 is_stmt 1
 441:C:/Users/stapi/OneDrive/Desktop/GD32VW553/V1_MQTT_OK/GD32VW55X_Wifi_BLE_SDK/GD32VW55x_RELEASE_V1.0.2/MSDK/lwip/lwip-2.1.2/src/core/ipv4\etharp.c ****   /* bail out if no entry could be found */
 1259              		.loc 1 441 7 is_stmt 0
 1260 0116 2286     		mv	a2,s0
 1261 0118 D685     		mv	a1,s5
 1262 011a 2800     		addi	a0,sp,8
 1263              	.LVL125:
 1264 011c 97000000 		call	etharp_find_entry
 1264      E7800000 
 1265              	.LVL126:
 1266 0124 AA87     		mv	a5,a0
 1267              	.LVL127:
 443:C:/Users/stapi/OneDrive/Desktop/GD32VW553/V1_MQTT_OK/GD32VW55X_Wifi_BLE_SDK/GD32VW55x_RELEASE_V1.0.2/MSDK/lwip/lwip-2.1.2/src/core/ipv4\etharp.c ****     return (err_t)i;
 1268              		.loc 1 443 3 is_stmt 1
 443:C:/Users/stapi/OneDrive/Desktop/GD32VW553/V1_MQTT_OK/GD32VW55X_Wifi_BLE_SDK/GD32VW55x_RELEASE_V1.0.2/MSDK/lwip/lwip-2.1.2/src/core/ipv4\etharp.c ****     return (err_t)i;
 1269              		.loc 1 443 6 is_stmt 0
 1270 0126 63410506 		blt	a0,zero,.L103
 458:C:/Users/stapi/OneDrive/Desktop/GD32VW553/V1_MQTT_OK/GD32VW55X_Wifi_BLE_SDK/GD32VW55x_RELEASE_V1.0.2/MSDK/lwip/lwip-2.1.2/src/core/ipv4\etharp.c ****   }
 1271              		.loc 1 458 5 is_stmt 1
 458:C:/Users/stapi/OneDrive/Desktop/GD32VW553/V1_MQTT_OK/GD32VW55X_Wifi_BLE_SDK/GD32VW55x_RELEASE_V1.0.2/MSDK/lwip/lwip-2.1.2/src/core/ipv4\etharp.c ****   }
 1272              		.loc 1 458 24 is_stmt 0
 1273 012a 6147     		li	a4,24
 1274 012c B387E702 		mul	a5,a5,a4
 1275 0130 37050000 		lui	a0,%hi(.LANCHOR0)
 1276              	.LVL128:
 1277 0134 13050500 		addi	a0,a0,%lo(.LANCHOR0)
 1278 0138 0947     		li	a4,2
 468:C:/Users/stapi/OneDrive/Desktop/GD32VW553/V1_MQTT_OK/GD32VW55X_Wifi_BLE_SDK/GD32VW55x_RELEASE_V1.0.2/MSDK/lwip/lwip-2.1.2/src/core/ipv4\etharp.c ****   /* reset time stamp */
 1279              		.loc 1 468 3
 1280 013a 1946     		li	a2,6
 1281 013c D285     		mv	a1,s4
 458:C:/Users/stapi/OneDrive/Desktop/GD32VW553/V1_MQTT_OK/GD32VW55X_Wifi_BLE_SDK/GD32VW55x_RELEASE_V1.0.2/MSDK/lwip/lwip-2.1.2/src/core/ipv4\etharp.c ****   }
 1282              		.loc 1 458 24
 1283 013e B30AF500 		add	s5,a0,a5
 1284              	.LVL129:
 468:C:/Users/stapi/OneDrive/Desktop/GD32VW553/V1_MQTT_OK/GD32VW55X_Wifi_BLE_SDK/GD32VW55x_RELEASE_V1.0.2/MSDK/lwip/lwip-2.1.2/src/core/ipv4\etharp.c ****   /* reset time stamp */
 1285              		.loc 1 468 3
 1286 0142 B107     		addi	a5,a5,12
 458:C:/Users/stapi/OneDrive/Desktop/GD32VW553/V1_MQTT_OK/GD32VW55X_Wifi_BLE_SDK/GD32VW55x_RELEASE_V1.0.2/MSDK/lwip/lwip-2.1.2/src/core/ipv4\etharp.c ****   }
 1287              		.loc 1 458 24
 1288 0144 238AEA00 		sb	a4,20(s5)
 462:C:/Users/stapi/OneDrive/Desktop/GD32VW553/V1_MQTT_OK/GD32VW55X_Wifi_BLE_SDK/GD32VW55x_RELEASE_V1.0.2/MSDK/lwip/lwip-2.1.2/src/core/ipv4\etharp.c ****   /* insert in SNMP ARP index tree */
 1289              		.loc 1 462 3 is_stmt 1
 462:C:/Users/stapi/OneDrive/Desktop/GD32VW553/V1_MQTT_OK/GD32VW55X_Wifi_BLE_SDK/GD32VW55x_RELEASE_V1.0.2/MSDK/lwip/lwip-2.1.2/src/core/ipv4\etharp.c ****   /* insert in SNMP ARP index tree */
 1290              		.loc 1 462 22 is_stmt 0
 1291 0148 23A48A00 		sw	s0,8(s5)
 464:C:/Users/stapi/OneDrive/Desktop/GD32VW553/V1_MQTT_OK/GD32VW55X_Wifi_BLE_SDK/GD32VW55x_RELEASE_V1.0.2/MSDK/lwip/lwip-2.1.2/src/core/ipv4\etharp.c **** 
 1292              		.loc 1 464 50 is_stmt 1
 466:C:/Users/stapi/OneDrive/Desktop/GD32VW553/V1_MQTT_OK/GD32VW55X_Wifi_BLE_SDK/GD32VW55x_RELEASE_V1.0.2/MSDK/lwip/lwip-2.1.2/src/core/ipv4\etharp.c ****   /* update address */
 1293              		.loc 1 466 111
 468:C:/Users/stapi/OneDrive/Desktop/GD32VW553/V1_MQTT_OK/GD32VW55X_Wifi_BLE_SDK/GD32VW55x_RELEASE_V1.0.2/MSDK/lwip/lwip-2.1.2/src/core/ipv4\etharp.c ****   /* reset time stamp */
 1294              		.loc 1 468 3
 1295 014c 3E95     		add	a0,a0,a5
 1296 014e 97000000 		call	memcpy
 1296      E7800000 
 1297              	.LVL130:
 470:C:/Users/stapi/OneDrive/Desktop/GD32VW553/V1_MQTT_OK/GD32VW55X_Wifi_BLE_SDK/GD32VW55x_RELEASE_V1.0.2/MSDK/lwip/lwip-2.1.2/src/core/ipv4\etharp.c ****   /* this is where we will send out queued packets! */
 1298              		.loc 1 470 3
 484:C:/Users/stapi/OneDrive/Desktop/GD32VW553/V1_MQTT_OK/GD32VW55X_Wifi_BLE_SDK/GD32VW55x_RELEASE_V1.0.2/MSDK/lwip/lwip-2.1.2/src/core/ipv4\etharp.c ****     struct pbuf *p = arp_table[i].q;
 1299              		.loc 1 484 19 is_stmt 0
 1300 0156 03AB0A00 		lw	s6,0(s5)
 470:C:/Users/stapi/OneDrive/Desktop/GD32VW553/V1_MQTT_OK/GD32VW55X_Wifi_BLE_SDK/GD32VW55x_RELEASE_V1.0.2/MSDK/lwip/lwip-2.1.2/src/core/ipv4\etharp.c ****   /* this is where we will send out queued packets! */
 1301              		.loc 1 470 22
 1302 015a 23990A00 		sh	zero,18(s5)
 484:C:/Users/stapi/OneDrive/Desktop/GD32VW553/V1_MQTT_OK/GD32VW55X_Wifi_BLE_SDK/GD32VW55x_RELEASE_V1.0.2/MSDK/lwip/lwip-2.1.2/src/core/ipv4\etharp.c ****     struct pbuf *p = arp_table[i].q;
 1303              		.loc 1 484 3 is_stmt 1
 484:C:/Users/stapi/OneDrive/Desktop/GD32VW553/V1_MQTT_OK/GD32VW55X_Wifi_BLE_SDK/GD32VW55x_RELEASE_V1.0.2/MSDK/lwip/lwip-2.1.2/src/core/ipv4\etharp.c ****     struct pbuf *p = arp_table[i].q;
 1304              		.loc 1 484 6 is_stmt 0
 1305 015e 63050B02 		beq	s6,zero,.L103
 1306              	.LBB16:
 485:C:/Users/stapi/OneDrive/Desktop/GD32VW553/V1_MQTT_OK/GD32VW55X_Wifi_BLE_SDK/GD32VW55x_RELEASE_V1.0.2/MSDK/lwip/lwip-2.1.2/src/core/ipv4\etharp.c ****     arp_table[i].q = NULL;
 1307              		.loc 1 485 5 is_stmt 1
 1308              	.LVL131:
 486:C:/Users/stapi/OneDrive/Desktop/GD32VW553/V1_MQTT_OK/GD32VW55X_Wifi_BLE_SDK/GD32VW55x_RELEASE_V1.0.2/MSDK/lwip/lwip-2.1.2/src/core/ipv4\etharp.c **** #endif /* ARP_QUEUEING */
 1309              		.loc 1 486 5
 489:C:/Users/stapi/OneDrive/Desktop/GD32VW553/V1_MQTT_OK/GD32VW55X_Wifi_BLE_SDK/GD32VW55x_RELEASE_V1.0.2/MSDK/lwip/lwip-2.1.2/src/core/ipv4\etharp.c ****     /* free the queued IP packet */
 1310              		.loc 1 489 5 is_stmt 0
 1311 0162 0567     		li	a4,4096
 486:C:/Users/stapi/OneDrive/Desktop/GD32VW553/V1_MQTT_OK/GD32VW55X_Wifi_BLE_SDK/GD32VW55x_RELEASE_V1.0.2/MSDK/lwip/lwip-2.1.2/src/core/ipv4\etharp.c **** #endif /* ARP_QUEUEING */
 1312              		.loc 1 486 20
 1313 0164 23A00A00 		sw	zero,0(s5)
 489:C:/Users/stapi/OneDrive/Desktop/GD32VW553/V1_MQTT_OK/GD32VW55X_Wifi_BLE_SDK/GD32VW55x_RELEASE_V1.0.2/MSDK/lwip/lwip-2.1.2/src/core/ipv4\etharp.c ****     /* free the queued IP packet */
 1314              		.loc 1 489 5 is_stmt 1
 1315 0168 13070780 		addi	a4,a4,-2048
 1316 016c D286     		mv	a3,s4
 1317 016e 1306A402 		addi	a2,s0,42
 1318 0172 DA85     		mv	a1,s6
 1319 0174 2285     		mv	a0,s0
 1320 0176 97000000 		call	ethernet_output
 1320      E7800000 
 1321              	.LVL132:
 491:C:/Users/stapi/OneDrive/Desktop/GD32VW553/V1_MQTT_OK/GD32VW55X_Wifi_BLE_SDK/GD32VW55x_RELEASE_V1.0.2/MSDK/lwip/lwip-2.1.2/src/core/ipv4\etharp.c ****   }
 1322              		.loc 1 491 5
 1323 017e 5A85     		mv	a0,s6
 1324 0180 97000000 		call	pbuf_free
 1324      E7800000 
 1325              	.LVL133:
 1326              	.L103:
 1327              	.LBE16:
 1328              	.LBE18:
 1329              	.LBE20:
 742:C:/Users/stapi/OneDrive/Desktop/GD32VW553/V1_MQTT_OK/GD32VW55X_Wifi_BLE_SDK/GD32VW55x_RELEASE_V1.0.2/MSDK/lwip/lwip-2.1.2/src/core/ipv4\etharp.c ****     /* ARP request? */
 1330              		.loc 1 742 3
 742:C:/Users/stapi/OneDrive/Desktop/GD32VW553/V1_MQTT_OK/GD32VW55X_Wifi_BLE_SDK/GD32VW55x_RELEASE_V1.0.2/MSDK/lwip/lwip-2.1.2/src/core/ipv4\etharp.c ****     /* ARP request? */
 1331              		.loc 1 742 14 is_stmt 0
 1332 0188 83C77400 		lbu	a5,7(s1)
 1333 018c 03C76400 		lbu	a4,6(s1)
 1334 0190 A207     		slli	a5,a5,8
 1335 0192 D98F     		or	a5,a5,a4
 742:C:/Users/stapi/OneDrive/Desktop/GD32VW553/V1_MQTT_OK/GD32VW55X_Wifi_BLE_SDK/GD32VW55x_RELEASE_V1.0.2/MSDK/lwip/lwip-2.1.2/src/core/ipv4\etharp.c ****     /* ARP request? */
 1336              		.loc 1 742 3
 1337 0194 13070010 		li	a4,256
 1338 0198 638DE700 		beq	a5,a4,.L105
 1339 019c 13070020 		li	a4,512
 1340 01a0 E398E7EC 		bne	a5,a4,.L107
 770:C:/Users/stapi/OneDrive/Desktop/GD32VW553/V1_MQTT_OK/GD32VW55X_Wifi_BLE_SDK/GD32VW55x_RELEASE_V1.0.2/MSDK/lwip/lwip-2.1.2/src/core/ipv4\etharp.c **** #if (LWIP_DHCP && DHCP_DOES_ARP_CHECK)
 1341              		.loc 1 770 89 is_stmt 1
 776:C:/Users/stapi/OneDrive/Desktop/GD32VW553/V1_MQTT_OK/GD32VW55X_Wifi_BLE_SDK/GD32VW55x_RELEASE_V1.0.2/MSDK/lwip/lwip-2.1.2/src/core/ipv4\etharp.c **** #endif /* (LWIP_DHCP && DHCP_DOES_ARP_CHECK) */
 1342              		.loc 1 776 7
 1343 01a4 2C00     		addi	a1,sp,8
 1344 01a6 2285     		mv	a0,s0
 1345 01a8 97000000 		call	dhcp_arp_reply
 1345      E7800000 
 1346              	.LVL134:
 778:C:/Users/stapi/OneDrive/Desktop/GD32VW553/V1_MQTT_OK/GD32VW55X_Wifi_BLE_SDK/GD32VW55x_RELEASE_V1.0.2/MSDK/lwip/lwip-2.1.2/src/core/ipv4\etharp.c ****     default:
 1347              		.loc 1 778 7
 1348 01b0 C1B5     		j	.L107
 1349              	.L105:
 749:C:/Users/stapi/OneDrive/Desktop/GD32VW553/V1_MQTT_OK/GD32VW55X_Wifi_BLE_SDK/GD32VW55x_RELEASE_V1.0.2/MSDK/lwip/lwip-2.1.2/src/core/ipv4\etharp.c ****       /* ARP request for our address? */
 1350              		.loc 1 749 92
 751:C:/Users/stapi/OneDrive/Desktop/GD32VW553/V1_MQTT_OK/GD32VW55X_Wifi_BLE_SDK/GD32VW55x_RELEASE_V1.0.2/MSDK/lwip/lwip-2.1.2/src/core/ipv4\etharp.c ****         /* send ARP response */
 1351              		.loc 1 751 7
 751:C:/Users/stapi/OneDrive/Desktop/GD32VW553/V1_MQTT_OK/GD32VW55X_Wifi_BLE_SDK/GD32VW55x_RELEASE_V1.0.2/MSDK/lwip/lwip-2.1.2/src/core/ipv4\etharp.c ****         /* send ARP response */
 1352              		.loc 1 751 10 is_stmt 0
 1353 01b2 E30F09EA 		beq	s2,zero,.L107
 753:C:/Users/stapi/OneDrive/Desktop/GD32VW553/V1_MQTT_OK/GD32VW55X_Wifi_BLE_SDK/GD32VW55x_RELEASE_V1.0.2/MSDK/lwip/lwip-2.1.2/src/core/ipv4\etharp.c ****                    (struct eth_addr *)netif->hwaddr, &hdr->shwaddr,
 1354              		.loc 1 753 9 is_stmt 1
 754:C:/Users/stapi/OneDrive/Desktop/GD32VW553/V1_MQTT_OK/GD32VW55X_Wifi_BLE_SDK/GD32VW55x_RELEASE_V1.0.2/MSDK/lwip/lwip-2.1.2/src/core/ipv4\etharp.c ****                    (struct eth_addr *)netif->hwaddr, netif_ip4_addr(netif),
 1355              		.loc 1 754 39 is_stmt 0
 1356 01b6 9306A402 		addi	a3,s0,42
 753:C:/Users/stapi/OneDrive/Desktop/GD32VW553/V1_MQTT_OK/GD32VW55X_Wifi_BLE_SDK/GD32VW55x_RELEASE_V1.0.2/MSDK/lwip/lwip-2.1.2/src/core/ipv4\etharp.c ****                    (struct eth_addr *)netif->hwaddr, &hdr->shwaddr,
 1357              		.loc 1 753 9
 1358 01ba 8948     		li	a7,2
 1359 01bc 13088100 		addi	a6,sp,8
 1360 01c0 D287     		mv	a5,s4
 1361 01c2 13074400 		addi	a4,s0,4
 1362 01c6 5286     		mv	a2,s4
 1363 01c8 B685     		mv	a1,a3
 1364 01ca 2285     		mv	a0,s0
 1365 01cc 97000000 		call	etharp_raw
 1365      E7800000 
 1366              	.LVL135:
 1367 01d4 71BD     		j	.L107
 1368              		.cfi_endproc
 1369              	.LFE12:
 1371              		.section	.text.etharp_request,"ax",@progbits
 1372              		.align	1
 1373              		.globl	etharp_request
 1375              	etharp_request:
 1376              	.LFB18:
1221:C:/Users/stapi/OneDrive/Desktop/GD32VW553/V1_MQTT_OK/GD32VW55X_Wifi_BLE_SDK/GD32VW55x_RELEASE_V1.0.2/MSDK/lwip/lwip-2.1.2/src/core/ipv4\etharp.c **** 
1222:C:/Users/stapi/OneDrive/Desktop/GD32VW553/V1_MQTT_OK/GD32VW55X_Wifi_BLE_SDK/GD32VW55x_RELEASE_V1.0.2/MSDK/lwip/lwip-2.1.2/src/core/ipv4\etharp.c **** /**
1223:C:/Users/stapi/OneDrive/Desktop/GD32VW553/V1_MQTT_OK/GD32VW55X_Wifi_BLE_SDK/GD32VW55x_RELEASE_V1.0.2/MSDK/lwip/lwip-2.1.2/src/core/ipv4\etharp.c ****  * Send an ARP request packet asking for ipaddr to a specific eth address.
1224:C:/Users/stapi/OneDrive/Desktop/GD32VW553/V1_MQTT_OK/GD32VW55X_Wifi_BLE_SDK/GD32VW55x_RELEASE_V1.0.2/MSDK/lwip/lwip-2.1.2/src/core/ipv4\etharp.c ****  * Used to send unicast request to refresh the ARP table just before an entry
1225:C:/Users/stapi/OneDrive/Desktop/GD32VW553/V1_MQTT_OK/GD32VW55X_Wifi_BLE_SDK/GD32VW55x_RELEASE_V1.0.2/MSDK/lwip/lwip-2.1.2/src/core/ipv4\etharp.c ****  * times out
1226:C:/Users/stapi/OneDrive/Desktop/GD32VW553/V1_MQTT_OK/GD32VW55X_Wifi_BLE_SDK/GD32VW55x_RELEASE_V1.0.2/MSDK/lwip/lwip-2.1.2/src/core/ipv4\etharp.c ****  *
1227:C:/Users/stapi/OneDrive/Desktop/GD32VW553/V1_MQTT_OK/GD32VW55X_Wifi_BLE_SDK/GD32VW55x_RELEASE_V1.0.2/MSDK/lwip/lwip-2.1.2/src/core/ipv4\etharp.c ****  * @param netif the lwip network interface on which to send the request
1228:C:/Users/stapi/OneDrive/Desktop/GD32VW553/V1_MQTT_OK/GD32VW55X_Wifi_BLE_SDK/GD32VW55x_RELEASE_V1.0.2/MSDK/lwip/lwip-2.1.2/src/core/ipv4\etharp.c ****  * @param ipaddr the IP address for which to ask
1229:C:/Users/stapi/OneDrive/Desktop/GD32VW553/V1_MQTT_OK/GD32VW55X_Wifi_BLE_SDK/GD32VW55x_RELEASE_V1.0.2/MSDK/lwip/lwip-2.1.2/src/core/ipv4\etharp.c ****  * @param hw_dst_addr the ethernet address to send this packet to
1230:C:/Users/stapi/OneDrive/Desktop/GD32VW553/V1_MQTT_OK/GD32VW55X_Wifi_BLE_SDK/GD32VW55x_RELEASE_V1.0.2/MSDK/lwip/lwip-2.1.2/src/core/ipv4\etharp.c ****  * @return ERR_OK if the request has been sent
1231:C:/Users/stapi/OneDrive/Desktop/GD32VW553/V1_MQTT_OK/GD32VW55X_Wifi_BLE_SDK/GD32VW55x_RELEASE_V1.0.2/MSDK/lwip/lwip-2.1.2/src/core/ipv4\etharp.c ****  *         ERR_MEM if the ARP packet couldn't be allocated
1232:C:/Users/stapi/OneDrive/Desktop/GD32VW553/V1_MQTT_OK/GD32VW55X_Wifi_BLE_SDK/GD32VW55x_RELEASE_V1.0.2/MSDK/lwip/lwip-2.1.2/src/core/ipv4\etharp.c ****  *         any other err_t on failure
1233:C:/Users/stapi/OneDrive/Desktop/GD32VW553/V1_MQTT_OK/GD32VW55X_Wifi_BLE_SDK/GD32VW55x_RELEASE_V1.0.2/MSDK/lwip/lwip-2.1.2/src/core/ipv4\etharp.c ****  */
1234:C:/Users/stapi/OneDrive/Desktop/GD32VW553/V1_MQTT_OK/GD32VW55X_Wifi_BLE_SDK/GD32VW55x_RELEASE_V1.0.2/MSDK/lwip/lwip-2.1.2/src/core/ipv4\etharp.c **** static err_t
1235:C:/Users/stapi/OneDrive/Desktop/GD32VW553/V1_MQTT_OK/GD32VW55X_Wifi_BLE_SDK/GD32VW55x_RELEASE_V1.0.2/MSDK/lwip/lwip-2.1.2/src/core/ipv4\etharp.c **** etharp_request_dst(struct netif *netif, const ip4_addr_t *ipaddr, const struct eth_addr *hw_dst_add
1236:C:/Users/stapi/OneDrive/Desktop/GD32VW553/V1_MQTT_OK/GD32VW55X_Wifi_BLE_SDK/GD32VW55x_RELEASE_V1.0.2/MSDK/lwip/lwip-2.1.2/src/core/ipv4\etharp.c **** {
1237:C:/Users/stapi/OneDrive/Desktop/GD32VW553/V1_MQTT_OK/GD32VW55X_Wifi_BLE_SDK/GD32VW55x_RELEASE_V1.0.2/MSDK/lwip/lwip-2.1.2/src/core/ipv4\etharp.c ****   return etharp_raw(netif, (struct eth_addr *)netif->hwaddr, hw_dst_addr,
1238:C:/Users/stapi/OneDrive/Desktop/GD32VW553/V1_MQTT_OK/GD32VW55X_Wifi_BLE_SDK/GD32VW55x_RELEASE_V1.0.2/MSDK/lwip/lwip-2.1.2/src/core/ipv4\etharp.c ****                     (struct eth_addr *)netif->hwaddr, netif_ip4_addr(netif), &ethzero,
1239:C:/Users/stapi/OneDrive/Desktop/GD32VW553/V1_MQTT_OK/GD32VW55X_Wifi_BLE_SDK/GD32VW55x_RELEASE_V1.0.2/MSDK/lwip/lwip-2.1.2/src/core/ipv4\etharp.c ****                     ipaddr, ARP_REQUEST);
1240:C:/Users/stapi/OneDrive/Desktop/GD32VW553/V1_MQTT_OK/GD32VW55X_Wifi_BLE_SDK/GD32VW55x_RELEASE_V1.0.2/MSDK/lwip/lwip-2.1.2/src/core/ipv4\etharp.c **** }
1241:C:/Users/stapi/OneDrive/Desktop/GD32VW553/V1_MQTT_OK/GD32VW55X_Wifi_BLE_SDK/GD32VW55x_RELEASE_V1.0.2/MSDK/lwip/lwip-2.1.2/src/core/ipv4\etharp.c **** 
1242:C:/Users/stapi/OneDrive/Desktop/GD32VW553/V1_MQTT_OK/GD32VW55X_Wifi_BLE_SDK/GD32VW55x_RELEASE_V1.0.2/MSDK/lwip/lwip-2.1.2/src/core/ipv4\etharp.c **** /**
1243:C:/Users/stapi/OneDrive/Desktop/GD32VW553/V1_MQTT_OK/GD32VW55X_Wifi_BLE_SDK/GD32VW55x_RELEASE_V1.0.2/MSDK/lwip/lwip-2.1.2/src/core/ipv4\etharp.c ****  * Send an ARP request packet asking for ipaddr.
1244:C:/Users/stapi/OneDrive/Desktop/GD32VW553/V1_MQTT_OK/GD32VW55X_Wifi_BLE_SDK/GD32VW55x_RELEASE_V1.0.2/MSDK/lwip/lwip-2.1.2/src/core/ipv4\etharp.c ****  *
1245:C:/Users/stapi/OneDrive/Desktop/GD32VW553/V1_MQTT_OK/GD32VW55X_Wifi_BLE_SDK/GD32VW55x_RELEASE_V1.0.2/MSDK/lwip/lwip-2.1.2/src/core/ipv4\etharp.c ****  * @param netif the lwip network interface on which to send the request
1246:C:/Users/stapi/OneDrive/Desktop/GD32VW553/V1_MQTT_OK/GD32VW55X_Wifi_BLE_SDK/GD32VW55x_RELEASE_V1.0.2/MSDK/lwip/lwip-2.1.2/src/core/ipv4\etharp.c ****  * @param ipaddr the IP address for which to ask
1247:C:/Users/stapi/OneDrive/Desktop/GD32VW553/V1_MQTT_OK/GD32VW55X_Wifi_BLE_SDK/GD32VW55x_RELEASE_V1.0.2/MSDK/lwip/lwip-2.1.2/src/core/ipv4\etharp.c ****  * @return ERR_OK if the request has been sent
1248:C:/Users/stapi/OneDrive/Desktop/GD32VW553/V1_MQTT_OK/GD32VW55X_Wifi_BLE_SDK/GD32VW55x_RELEASE_V1.0.2/MSDK/lwip/lwip-2.1.2/src/core/ipv4\etharp.c ****  *         ERR_MEM if the ARP packet couldn't be allocated
1249:C:/Users/stapi/OneDrive/Desktop/GD32VW553/V1_MQTT_OK/GD32VW55X_Wifi_BLE_SDK/GD32VW55x_RELEASE_V1.0.2/MSDK/lwip/lwip-2.1.2/src/core/ipv4\etharp.c ****  *         any other err_t on failure
1250:C:/Users/stapi/OneDrive/Desktop/GD32VW553/V1_MQTT_OK/GD32VW55X_Wifi_BLE_SDK/GD32VW55x_RELEASE_V1.0.2/MSDK/lwip/lwip-2.1.2/src/core/ipv4\etharp.c ****  */
1251:C:/Users/stapi/OneDrive/Desktop/GD32VW553/V1_MQTT_OK/GD32VW55X_Wifi_BLE_SDK/GD32VW55x_RELEASE_V1.0.2/MSDK/lwip/lwip-2.1.2/src/core/ipv4\etharp.c **** err_t
1252:C:/Users/stapi/OneDrive/Desktop/GD32VW553/V1_MQTT_OK/GD32VW55X_Wifi_BLE_SDK/GD32VW55x_RELEASE_V1.0.2/MSDK/lwip/lwip-2.1.2/src/core/ipv4\etharp.c **** etharp_request(struct netif *netif, const ip4_addr_t *ipaddr)
1253:C:/Users/stapi/OneDrive/Desktop/GD32VW553/V1_MQTT_OK/GD32VW55X_Wifi_BLE_SDK/GD32VW55x_RELEASE_V1.0.2/MSDK/lwip/lwip-2.1.2/src/core/ipv4\etharp.c **** {
 1377              		.loc 1 1253 1 is_stmt 1
 1378              		.cfi_startproc
 1379              	.LVL136:
1254:C:/Users/stapi/OneDrive/Desktop/GD32VW553/V1_MQTT_OK/GD32VW55X_Wifi_BLE_SDK/GD32VW55x_RELEASE_V1.0.2/MSDK/lwip/lwip-2.1.2/src/core/ipv4\etharp.c ****   LWIP_DEBUGF(ETHARP_DEBUG | LWIP_DBG_TRACE, ("etharp_request: sending ARP request.\n"));
 1380              		.loc 1 1254 89
1255:C:/Users/stapi/OneDrive/Desktop/GD32VW553/V1_MQTT_OK/GD32VW55X_Wifi_BLE_SDK/GD32VW55x_RELEASE_V1.0.2/MSDK/lwip/lwip-2.1.2/src/core/ipv4\etharp.c ****   return etharp_request_dst(netif, ipaddr, &ethbroadcast);
 1381              		.loc 1 1255 3
 1382              	.LBB23:
 1383              	.LBB24:
1237:C:/Users/stapi/OneDrive/Desktop/GD32VW553/V1_MQTT_OK/GD32VW55X_Wifi_BLE_SDK/GD32VW55x_RELEASE_V1.0.2/MSDK/lwip/lwip-2.1.2/src/core/ipv4\etharp.c ****                     (struct eth_addr *)netif->hwaddr, netif_ip4_addr(netif), &ethzero,
 1384              		.loc 1 1237 3
1237:C:/Users/stapi/OneDrive/Desktop/GD32VW553/V1_MQTT_OK/GD32VW55X_Wifi_BLE_SDK/GD32VW55x_RELEASE_V1.0.2/MSDK/lwip/lwip-2.1.2/src/core/ipv4\etharp.c ****                     (struct eth_addr *)netif->hwaddr, netif_ip4_addr(netif), &ethzero,
 1385              		.loc 1 1237 47 is_stmt 0
 1386 0000 9306A502 		addi	a3,a0,42
1237:C:/Users/stapi/OneDrive/Desktop/GD32VW553/V1_MQTT_OK/GD32VW55X_Wifi_BLE_SDK/GD32VW55x_RELEASE_V1.0.2/MSDK/lwip/lwip-2.1.2/src/core/ipv4\etharp.c ****                     (struct eth_addr *)netif->hwaddr, netif_ip4_addr(netif), &ethzero,
 1387              		.loc 1 1237 10
 1388 0004 B7070000 		lui	a5,%hi(ethzero)
 1389 0008 37060000 		lui	a2,%hi(ethbroadcast)
 1390 000c 2E88     		mv	a6,a1
 1391 000e 8548     		li	a7,1
 1392 0010 93870700 		addi	a5,a5,%lo(ethzero)
 1393 0014 13074500 		addi	a4,a0,4
 1394 0018 13060600 		addi	a2,a2,%lo(ethbroadcast)
 1395 001c B685     		mv	a1,a3
 1396              	.LVL137:
 1397 001e 17030000 		tail	etharp_raw
 1397      67000300 
 1398              	.LVL138:
 1399              	.LBE24:
 1400              	.LBE23:
 1401              		.cfi_endproc
 1402              	.LFE18:
 1404              		.section	.text.etharp_tmr,"ax",@progbits
 1405              		.align	1
 1406              		.globl	etharp_tmr
 1408              	etharp_tmr:
 1409              	.LFB5:
 201:C:/Users/stapi/OneDrive/Desktop/GD32VW553/V1_MQTT_OK/GD32VW55X_Wifi_BLE_SDK/GD32VW55x_RELEASE_V1.0.2/MSDK/lwip/lwip-2.1.2/src/core/ipv4\etharp.c ****   int i;
 1410              		.loc 1 201 1 is_stmt 1
 1411              		.cfi_startproc
 1412 0000 17030000 		call	t0,__riscv_save_8
 1412      E7020300 
 1413              		.cfi_offset 23, -36
 1414              		.cfi_offset 22, -32
 1415              		.cfi_offset 21, -28
 1416              		.cfi_offset 20, -24
 1417              		.cfi_offset 19, -20
 1418              		.cfi_offset 18, -16
 1419              		.cfi_offset 9, -12
 1420              		.cfi_offset 8, -8
 1421              		.cfi_offset 1, -4
 1422              		.cfi_def_cfa_offset 48
 202:C:/Users/stapi/OneDrive/Desktop/GD32VW553/V1_MQTT_OK/GD32VW55X_Wifi_BLE_SDK/GD32VW55x_RELEASE_V1.0.2/MSDK/lwip/lwip-2.1.2/src/core/ipv4\etharp.c **** 
 1423              		.loc 1 202 3
 204:C:/Users/stapi/OneDrive/Desktop/GD32VW553/V1_MQTT_OK/GD32VW55X_Wifi_BLE_SDK/GD32VW55x_RELEASE_V1.0.2/MSDK/lwip/lwip-2.1.2/src/core/ipv4\etharp.c ****   /* remove expired entries from the ARP table */
 1424              		.loc 1 204 48
 206:C:/Users/stapi/OneDrive/Desktop/GD32VW553/V1_MQTT_OK/GD32VW55X_Wifi_BLE_SDK/GD32VW55x_RELEASE_V1.0.2/MSDK/lwip/lwip-2.1.2/src/core/ipv4\etharp.c ****     u8_t state = arp_table[i].state;
 1425              		.loc 1 206 3
 1426              	.LVL139:
 206:C:/Users/stapi/OneDrive/Desktop/GD32VW553/V1_MQTT_OK/GD32VW55X_Wifi_BLE_SDK/GD32VW55x_RELEASE_V1.0.2/MSDK/lwip/lwip-2.1.2/src/core/ipv4\etharp.c ****     u8_t state = arp_table[i].state;
 1427              		.loc 1 206 15
 1428 0008 37040000 		lui	s0,%hi(.LANCHOR0)
 1429 000c 13040400 		addi	s0,s0,%lo(.LANCHOR0)
 206:C:/Users/stapi/OneDrive/Desktop/GD32VW553/V1_MQTT_OK/GD32VW55X_Wifi_BLE_SDK/GD32VW55x_RELEASE_V1.0.2/MSDK/lwip/lwip-2.1.2/src/core/ipv4\etharp.c ****     u8_t state = arp_table[i].state;
 1430              		.loc 1 206 10 is_stmt 0
 1431 0010 8144     		li	s1,0
 1432              	.LBB25:
 214:C:/Users/stapi/OneDrive/Desktop/GD32VW553/V1_MQTT_OK/GD32VW55X_Wifi_BLE_SDK/GD32VW55x_RELEASE_V1.0.2/MSDK/lwip/lwip-2.1.2/src/core/ipv4\etharp.c ****           ((arp_table[i].state == ETHARP_STATE_PENDING)  &&
 1433              		.loc 1 214 10
 1434 0012 130AB012 		li	s4,299
 214:C:/Users/stapi/OneDrive/Desktop/GD32VW553/V1_MQTT_OK/GD32VW55X_Wifi_BLE_SDK/GD32VW55x_RELEASE_V1.0.2/MSDK/lwip/lwip-2.1.2/src/core/ipv4\etharp.c ****           ((arp_table[i].state == ETHARP_STATE_PENDING)  &&
 1435              		.loc 1 214 46
 1436 0016 854A     		li	s5,1
 222:C:/Users/stapi/OneDrive/Desktop/GD32VW553/V1_MQTT_OK/GD32VW55X_Wifi_BLE_SDK/GD32VW55x_RELEASE_V1.0.2/MSDK/lwip/lwip-2.1.2/src/core/ipv4\etharp.c ****         /* Don't send more than one request every 2 seconds. */
 1437              		.loc 1 222 17
 1438 0018 0D4B     		li	s6,3
 225:C:/Users/stapi/OneDrive/Desktop/GD32VW553/V1_MQTT_OK/GD32VW55X_Wifi_BLE_SDK/GD32VW55x_RELEASE_V1.0.2/MSDK/lwip/lwip-2.1.2/src/core/ipv4\etharp.c ****         /* Reset state to stable, so that the next transmitted packet will
 1439              		.loc 1 225 17
 1440 001a 1149     		li	s2,4
 228:C:/Users/stapi/OneDrive/Desktop/GD32VW553/V1_MQTT_OK/GD32VW55X_Wifi_BLE_SDK/GD32VW55x_RELEASE_V1.0.2/MSDK/lwip/lwip-2.1.2/src/core/ipv4\etharp.c ****       } else if (arp_table[i].state == ETHARP_STATE_PENDING) {
 1441              		.loc 1 228 28
 1442 001c 894B     		li	s7,2
 1443              	.LBE25:
 206:C:/Users/stapi/OneDrive/Desktop/GD32VW553/V1_MQTT_OK/GD32VW55X_Wifi_BLE_SDK/GD32VW55x_RELEASE_V1.0.2/MSDK/lwip/lwip-2.1.2/src/core/ipv4\etharp.c ****     u8_t state = arp_table[i].state;
 1444              		.loc 1 206 3
 1445 001e A949     		li	s3,10
 1446              	.LVL140:
 1447              	.L126:
 1448              	.LBB26:
 207:C:/Users/stapi/OneDrive/Desktop/GD32VW553/V1_MQTT_OK/GD32VW55X_Wifi_BLE_SDK/GD32VW55x_RELEASE_V1.0.2/MSDK/lwip/lwip-2.1.2/src/core/ipv4\etharp.c ****     if (state != ETHARP_STATE_EMPTY
 1449              		.loc 1 207 5 is_stmt 1
 207:C:/Users/stapi/OneDrive/Desktop/GD32VW553/V1_MQTT_OK/GD32VW55X_Wifi_BLE_SDK/GD32VW55x_RELEASE_V1.0.2/MSDK/lwip/lwip-2.1.2/src/core/ipv4\etharp.c ****     if (state != ETHARP_STATE_EMPTY
 1450              		.loc 1 207 10 is_stmt 0
 1451 0020 03474401 		lbu	a4,20(s0)
 1452              	.LVL141:
 208:C:/Users/stapi/OneDrive/Desktop/GD32VW553/V1_MQTT_OK/GD32VW55X_Wifi_BLE_SDK/GD32VW55x_RELEASE_V1.0.2/MSDK/lwip/lwip-2.1.2/src/core/ipv4\etharp.c **** #if ETHARP_SUPPORT_STATIC_ENTRIES
 1453              		.loc 1 208 5 is_stmt 1
 208:C:/Users/stapi/OneDrive/Desktop/GD32VW553/V1_MQTT_OK/GD32VW55X_Wifi_BLE_SDK/GD32VW55x_RELEASE_V1.0.2/MSDK/lwip/lwip-2.1.2/src/core/ipv4\etharp.c **** #if ETHARP_SUPPORT_STATIC_ENTRIES
 1454              		.loc 1 208 8 is_stmt 0
 1455 0024 1DC3     		beq	a4,zero,.L120
 213:C:/Users/stapi/OneDrive/Desktop/GD32VW553/V1_MQTT_OK/GD32VW55X_Wifi_BLE_SDK/GD32VW55x_RELEASE_V1.0.2/MSDK/lwip/lwip-2.1.2/src/core/ipv4\etharp.c ****       if ((arp_table[i].ctime >= ARP_MAXAGE) ||
 1456              		.loc 1 213 7 is_stmt 1
 213:C:/Users/stapi/OneDrive/Desktop/GD32VW553/V1_MQTT_OK/GD32VW55X_Wifi_BLE_SDK/GD32VW55x_RELEASE_V1.0.2/MSDK/lwip/lwip-2.1.2/src/core/ipv4\etharp.c ****       if ((arp_table[i].ctime >= ARP_MAXAGE) ||
 1457              		.loc 1 213 25 is_stmt 0
 1458 0026 83572401 		lhu	a5,18(s0)
 1459 002a 8507     		addi	a5,a5,1
 1460 002c B3C70708 		zext.h	a5,a5
 1461 0030 2319F400 		sh	a5,18(s0)
 214:C:/Users/stapi/OneDrive/Desktop/GD32VW553/V1_MQTT_OK/GD32VW55X_Wifi_BLE_SDK/GD32VW55x_RELEASE_V1.0.2/MSDK/lwip/lwip-2.1.2/src/core/ipv4\etharp.c ****           ((arp_table[i].state == ETHARP_STATE_PENDING)  &&
 1462              		.loc 1 214 7 is_stmt 1
 214:C:/Users/stapi/OneDrive/Desktop/GD32VW553/V1_MQTT_OK/GD32VW55X_Wifi_BLE_SDK/GD32VW55x_RELEASE_V1.0.2/MSDK/lwip/lwip-2.1.2/src/core/ipv4\etharp.c ****           ((arp_table[i].state == ETHARP_STATE_PENDING)  &&
 1463              		.loc 1 214 10 is_stmt 0
 1464 0034 6366FA00 		bgtu	a5,s4,.L121
 214:C:/Users/stapi/OneDrive/Desktop/GD32VW553/V1_MQTT_OK/GD32VW55X_Wifi_BLE_SDK/GD32VW55x_RELEASE_V1.0.2/MSDK/lwip/lwip-2.1.2/src/core/ipv4\etharp.c ****           ((arp_table[i].state == ETHARP_STATE_PENDING)  &&
 1465              		.loc 1 214 46 discriminator 1
 1466 0038 63115703 		bne	a4,s5,.L122
 215:C:/Users/stapi/OneDrive/Desktop/GD32VW553/V1_MQTT_OK/GD32VW55X_Wifi_BLE_SDK/GD32VW55x_RELEASE_V1.0.2/MSDK/lwip/lwip-2.1.2/src/core/ipv4\etharp.c ****            (arp_table[i].ctime >= ARP_MAXPENDING))) {
 1467              		.loc 1 215 58
 1468 003c 6379F902 		bleu	a5,s2,.L123
 1469              	.L121:
 219:C:/Users/stapi/OneDrive/Desktop/GD32VW553/V1_MQTT_OK/GD32VW55X_Wifi_BLE_SDK/GD32VW55x_RELEASE_V1.0.2/MSDK/lwip/lwip-2.1.2/src/core/ipv4\etharp.c ****         /* clean up entries that have just been expired */
 1470              		.loc 1 219 105 is_stmt 1
 221:C:/Users/stapi/OneDrive/Desktop/GD32VW553/V1_MQTT_OK/GD32VW55X_Wifi_BLE_SDK/GD32VW55x_RELEASE_V1.0.2/MSDK/lwip/lwip-2.1.2/src/core/ipv4\etharp.c ****       } else if (arp_table[i].state == ETHARP_STATE_STABLE_REREQUESTING_1) {
 1471              		.loc 1 221 9
 1472 0040 2685     		mv	a0,s1
 1473 0042 97000000 		call	etharp_free_entry
 1473      E7800000 
 1474              	.LVL142:
 1475              	.L120:
 1476              	.LBE26:
 206:C:/Users/stapi/OneDrive/Desktop/GD32VW553/V1_MQTT_OK/GD32VW55X_Wifi_BLE_SDK/GD32VW55x_RELEASE_V1.0.2/MSDK/lwip/lwip-2.1.2/src/core/ipv4\etharp.c ****     u8_t state = arp_table[i].state;
 1477              		.loc 1 206 35 discriminator 2
 1478 004a 8504     		addi	s1,s1,1
 1479              	.LVL143:
 206:C:/Users/stapi/OneDrive/Desktop/GD32VW553/V1_MQTT_OK/GD32VW55X_Wifi_BLE_SDK/GD32VW55x_RELEASE_V1.0.2/MSDK/lwip/lwip-2.1.2/src/core/ipv4\etharp.c ****     u8_t state = arp_table[i].state;
 1480              		.loc 1 206 15 discriminator 2
 206:C:/Users/stapi/OneDrive/Desktop/GD32VW553/V1_MQTT_OK/GD32VW55X_Wifi_BLE_SDK/GD32VW55x_RELEASE_V1.0.2/MSDK/lwip/lwip-2.1.2/src/core/ipv4\etharp.c ****     u8_t state = arp_table[i].state;
 1481              		.loc 1 206 3 is_stmt 0 discriminator 2
 1482 004c 6104     		addi	s0,s0,24
 1483 004e E39934FD 		bne	s1,s3,.L126
 235:C:/Users/stapi/OneDrive/Desktop/GD32VW553/V1_MQTT_OK/GD32VW55X_Wifi_BLE_SDK/GD32VW55x_RELEASE_V1.0.2/MSDK/lwip/lwip-2.1.2/src/core/ipv4\etharp.c **** 
 1484              		.loc 1 235 1
 1485 0052 17030000 		tail	__riscv_restore_8
 1485      67000300 
 1486              		.cfi_remember_state
 1487              		.cfi_restore 23
 1488              		.cfi_restore 22
 1489              		.cfi_restore 21
 1490              		.cfi_restore 20
 1491              		.cfi_restore 19
 1492              		.cfi_restore 18
 1493              		.cfi_restore 9
 1494              		.cfi_restore 8
 1495              		.cfi_restore 1
 1496              		.cfi_def_cfa_offset 0
 1497              	.LVL144:
 1498              	.L122:
 1499              		.cfi_restore_state
 1500              	.LBB27:
 222:C:/Users/stapi/OneDrive/Desktop/GD32VW553/V1_MQTT_OK/GD32VW55X_Wifi_BLE_SDK/GD32VW55x_RELEASE_V1.0.2/MSDK/lwip/lwip-2.1.2/src/core/ipv4\etharp.c ****         /* Don't send more than one request every 2 seconds. */
 1501              		.loc 1 222 14 is_stmt 1
 222:C:/Users/stapi/OneDrive/Desktop/GD32VW553/V1_MQTT_OK/GD32VW55X_Wifi_BLE_SDK/GD32VW55x_RELEASE_V1.0.2/MSDK/lwip/lwip-2.1.2/src/core/ipv4\etharp.c ****         /* Don't send more than one request every 2 seconds. */
 1502              		.loc 1 222 17 is_stmt 0
 1503 005a 63156701 		bne	a4,s6,.L124
 224:C:/Users/stapi/OneDrive/Desktop/GD32VW553/V1_MQTT_OK/GD32VW55X_Wifi_BLE_SDK/GD32VW55x_RELEASE_V1.0.2/MSDK/lwip/lwip-2.1.2/src/core/ipv4\etharp.c ****       } else if (arp_table[i].state == ETHARP_STATE_STABLE_REREQUESTING_2) {
 1504              		.loc 1 224 9 is_stmt 1
 224:C:/Users/stapi/OneDrive/Desktop/GD32VW553/V1_MQTT_OK/GD32VW55X_Wifi_BLE_SDK/GD32VW55x_RELEASE_V1.0.2/MSDK/lwip/lwip-2.1.2/src/core/ipv4\etharp.c ****       } else if (arp_table[i].state == ETHARP_STATE_STABLE_REREQUESTING_2) {
 1505              		.loc 1 224 28 is_stmt 0
 1506 005e 230A2401 		sb	s2,20(s0)
 1507 0062 E5B7     		j	.L120
 1508              	.L124:
 225:C:/Users/stapi/OneDrive/Desktop/GD32VW553/V1_MQTT_OK/GD32VW55X_Wifi_BLE_SDK/GD32VW55x_RELEASE_V1.0.2/MSDK/lwip/lwip-2.1.2/src/core/ipv4\etharp.c ****         /* Reset state to stable, so that the next transmitted packet will
 1509              		.loc 1 225 14 is_stmt 1
 225:C:/Users/stapi/OneDrive/Desktop/GD32VW553/V1_MQTT_OK/GD32VW55X_Wifi_BLE_SDK/GD32VW55x_RELEASE_V1.0.2/MSDK/lwip/lwip-2.1.2/src/core/ipv4\etharp.c ****         /* Reset state to stable, so that the next transmitted packet will
 1510              		.loc 1 225 17 is_stmt 0
 1511 0064 E31327FF 		bne	a4,s2,.L120
 228:C:/Users/stapi/OneDrive/Desktop/GD32VW553/V1_MQTT_OK/GD32VW55X_Wifi_BLE_SDK/GD32VW55x_RELEASE_V1.0.2/MSDK/lwip/lwip-2.1.2/src/core/ipv4\etharp.c ****       } else if (arp_table[i].state == ETHARP_STATE_PENDING) {
 1512              		.loc 1 228 9 is_stmt 1
 228:C:/Users/stapi/OneDrive/Desktop/GD32VW553/V1_MQTT_OK/GD32VW55X_Wifi_BLE_SDK/GD32VW55x_RELEASE_V1.0.2/MSDK/lwip/lwip-2.1.2/src/core/ipv4\etharp.c ****       } else if (arp_table[i].state == ETHARP_STATE_PENDING) {
 1513              		.loc 1 228 28 is_stmt 0
 1514 0068 230A7401 		sb	s7,20(s0)
 1515 006c F9BF     		j	.L120
 1516              	.L123:
 231:C:/Users/stapi/OneDrive/Desktop/GD32VW553/V1_MQTT_OK/GD32VW55X_Wifi_BLE_SDK/GD32VW55x_RELEASE_V1.0.2/MSDK/lwip/lwip-2.1.2/src/core/ipv4\etharp.c ****       }
 1517              		.loc 1 231 9 is_stmt 1
 1518 006e 0844     		lw	a0,8(s0)
 1519 0070 93054400 		addi	a1,s0,4
 1520 0074 97000000 		call	etharp_request
 1520      E7800000 
 1521              	.LVL145:
 1522 007c F9B7     		j	.L120
 1523              	.LBE27:
 1524              		.cfi_endproc
 1525              	.LFE5:
 1527              		.section	.rodata.etharp_output_to_arp_index.str1.4,"aMS",@progbits,1
 1528              		.align	2
 1529              	.LC13:
 1530 0000 6172705F 		.string	"arp_table[arp_idx].state >= ETHARP_STATE_STABLE"
 1530      7461626C 
 1530      655B6172 
 1530      705F6964 
 1530      785D2E73 
 1531              		.section	.text.etharp_output_to_arp_index,"ax",@progbits
 1532              		.align	1
 1534              	etharp_output_to_arp_index:
 1535              	.LFB13:
 793:C:/Users/stapi/OneDrive/Desktop/GD32VW553/V1_MQTT_OK/GD32VW55X_Wifi_BLE_SDK/GD32VW55x_RELEASE_V1.0.2/MSDK/lwip/lwip-2.1.2/src/core/ipv4\etharp.c ****   LWIP_ASSERT("arp_table[arp_idx].state >= ETHARP_STATE_STABLE",
 1536              		.loc 1 793 1
 1537              		.cfi_startproc
 1538              	.LVL146:
 1539 0000 17030000 		call	t0,__riscv_save_5
 1539      E7020300 
 1540              		.cfi_offset 20, -24
 1541              		.cfi_offset 19, -20
 1542              		.cfi_offset 18, -16
 1543              		.cfi_offset 9, -12
 1544              		.cfi_offset 8, -8
 1545              		.cfi_offset 1, -4
 1546              		.cfi_def_cfa_offset 32
 794:C:/Users/stapi/OneDrive/Desktop/GD32VW553/V1_MQTT_OK/GD32VW55X_Wifi_BLE_SDK/GD32VW55x_RELEASE_V1.0.2/MSDK/lwip/lwip-2.1.2/src/core/ipv4\etharp.c ****               arp_table[arp_idx].state >= ETHARP_STATE_STABLE);
 1547              		.loc 1 794 3
 794:C:/Users/stapi/OneDrive/Desktop/GD32VW553/V1_MQTT_OK/GD32VW55X_Wifi_BLE_SDK/GD32VW55x_RELEASE_V1.0.2/MSDK/lwip/lwip-2.1.2/src/core/ipv4\etharp.c ****               arp_table[arp_idx].state >= ETHARP_STATE_STABLE);
 1548              		.loc 1 794 3
 1549 0008 E147     		li	a5,24
 1550 000a B307F602 		mul	a5,a2,a5
 1551 000e 37080000 		lui	a6,%hi(.LANCHOR0)
 1552 0012 13080800 		addi	a6,a6,%lo(.LANCHOR0)
 1553 0016 8546     		li	a3,1
 1554 0018 3309F800 		add	s2,a6,a5
 1555 001c 03474901 		lbu	a4,20(s2)
 1556 0020 63E5E602 		bgtu	a4,a3,.L130
 794:C:/Users/stapi/OneDrive/Desktop/GD32VW553/V1_MQTT_OK/GD32VW55X_Wifi_BLE_SDK/GD32VW55x_RELEASE_V1.0.2/MSDK/lwip/lwip-2.1.2/src/core/ipv4\etharp.c ****               arp_table[arp_idx].state >= ETHARP_STATE_STABLE);
 1557              		.loc 1 794 3 discriminator 1
 794:C:/Users/stapi/OneDrive/Desktop/GD32VW553/V1_MQTT_OK/GD32VW55X_Wifi_BLE_SDK/GD32VW55x_RELEASE_V1.0.2/MSDK/lwip/lwip-2.1.2/src/core/ipv4\etharp.c ****               arp_table[arp_idx].state >= ETHARP_STATE_STABLE);
 1558              		.loc 1 794 3 discriminator 1
 1559 0024 B7060000 		lui	a3,%hi(.LC0)
 1560 0028 B7050000 		lui	a1,%hi(.LC13)
 1561              	.LVL147:
 1562 002c 37050000 		lui	a0,%hi(.LC2)
 1563              	.LVL148:
 1564 0030 93860600 		addi	a3,a3,%lo(.LC0)
 1565 0034 1306A031 		li	a2,794
 1566              	.LVL149:
 1567 0038 93850500 		addi	a1,a1,%lo(.LC13)
 1568 003c 13050500 		addi	a0,a0,%lo(.LC2)
 1569 0040 97000000 		call	printf
 1569      E7800000 
 1570              	.LVL150:
 1571              	.L131:
 794:C:/Users/stapi/OneDrive/Desktop/GD32VW553/V1_MQTT_OK/GD32VW55X_Wifi_BLE_SDK/GD32VW55x_RELEASE_V1.0.2/MSDK/lwip/lwip-2.1.2/src/core/ipv4\etharp.c ****               arp_table[arp_idx].state >= ETHARP_STATE_STABLE);
 1572              		.loc 1 794 3 discriminator 1
 794:C:/Users/stapi/OneDrive/Desktop/GD32VW553/V1_MQTT_OK/GD32VW55X_Wifi_BLE_SDK/GD32VW55x_RELEASE_V1.0.2/MSDK/lwip/lwip-2.1.2/src/core/ipv4\etharp.c ****               arp_table[arp_idx].state >= ETHARP_STATE_STABLE);
 1573              		.loc 1 794 3 discriminator 1
 794:C:/Users/stapi/OneDrive/Desktop/GD32VW553/V1_MQTT_OK/GD32VW55X_Wifi_BLE_SDK/GD32VW55x_RELEASE_V1.0.2/MSDK/lwip/lwip-2.1.2/src/core/ipv4\etharp.c ****               arp_table[arp_idx].state >= ETHARP_STATE_STABLE);
 1574              		.loc 1 794 3 discriminator 1
 1575 0048 01A0     		j	.L131
 1576              	.LVL151:
 1577              	.L130:
 807:C:/Users/stapi/OneDrive/Desktop/GD32VW553/V1_MQTT_OK/GD32VW55X_Wifi_BLE_SDK/GD32VW55x_RELEASE_V1.0.2/MSDK/lwip/lwip-2.1.2/src/core/ipv4\etharp.c ****         arp_table[arp_idx].state = ETHARP_STATE_STABLE_REREQUESTING_1;
 1578              		.loc 1 807 65 is_stmt 0 discriminator 2
 1579 004a 9384C700 		addi	s1,a5,12
 799:C:/Users/stapi/OneDrive/Desktop/GD32VW553/V1_MQTT_OK/GD32VW55X_Wifi_BLE_SDK/GD32VW55x_RELEASE_V1.0.2/MSDK/lwip/lwip-2.1.2/src/core/ipv4\etharp.c ****     if (arp_table[arp_idx].ctime >= ARP_AGE_REREQUEST_USED_BROADCAST) {
 1580              		.loc 1 799 6 discriminator 2
 1581 004e 8946     		li	a3,2
 1582 0050 2A84     		mv	s0,a0
 1583 0052 AE89     		mv	s3,a1
 794:C:/Users/stapi/OneDrive/Desktop/GD32VW553/V1_MQTT_OK/GD32VW55X_Wifi_BLE_SDK/GD32VW55x_RELEASE_V1.0.2/MSDK/lwip/lwip-2.1.2/src/core/ipv4\etharp.c ****               arp_table[arp_idx].state >= ETHARP_STATE_STABLE);
 1584              		.loc 1 794 3 is_stmt 1 discriminator 2
 794:C:/Users/stapi/OneDrive/Desktop/GD32VW553/V1_MQTT_OK/GD32VW55X_Wifi_BLE_SDK/GD32VW55x_RELEASE_V1.0.2/MSDK/lwip/lwip-2.1.2/src/core/ipv4\etharp.c ****               arp_table[arp_idx].state >= ETHARP_STATE_STABLE);
 1585              		.loc 1 794 3 discriminator 2
 799:C:/Users/stapi/OneDrive/Desktop/GD32VW553/V1_MQTT_OK/GD32VW55X_Wifi_BLE_SDK/GD32VW55x_RELEASE_V1.0.2/MSDK/lwip/lwip-2.1.2/src/core/ipv4\etharp.c ****     if (arp_table[arp_idx].ctime >= ARP_AGE_REREQUEST_USED_BROADCAST) {
 1586              		.loc 1 799 3 discriminator 2
 807:C:/Users/stapi/OneDrive/Desktop/GD32VW553/V1_MQTT_OK/GD32VW55X_Wifi_BLE_SDK/GD32VW55x_RELEASE_V1.0.2/MSDK/lwip/lwip-2.1.2/src/core/ipv4\etharp.c ****         arp_table[arp_idx].state = ETHARP_STATE_STABLE_REREQUESTING_1;
 1587              		.loc 1 807 65 is_stmt 0 discriminator 2
 1588 0054 C294     		add	s1,a6,s1
 1589              	.LBB30:
 1590              	.LBB31:
1237:C:/Users/stapi/OneDrive/Desktop/GD32VW553/V1_MQTT_OK/GD32VW55X_Wifi_BLE_SDK/GD32VW55x_RELEASE_V1.0.2/MSDK/lwip/lwip-2.1.2/src/core/ipv4\etharp.c ****                     (struct eth_addr *)netif->hwaddr, netif_ip4_addr(netif), &ethzero,
 1591              		.loc 1 1237 47 discriminator 2
 1592 0056 130AA502 		addi	s4,a0,42
 1593              	.LBE31:
 1594              	.LBE30:
 799:C:/Users/stapi/OneDrive/Desktop/GD32VW553/V1_MQTT_OK/GD32VW55X_Wifi_BLE_SDK/GD32VW55x_RELEASE_V1.0.2/MSDK/lwip/lwip-2.1.2/src/core/ipv4\etharp.c ****     if (arp_table[arp_idx].ctime >= ARP_AGE_REREQUEST_USED_BROADCAST) {
 1595              		.loc 1 799 6 discriminator 2
 1596 005a 6313D702 		bne	a4,a3,.L133
 1597              	.LVL152:
 800:C:/Users/stapi/OneDrive/Desktop/GD32VW553/V1_MQTT_OK/GD32VW55X_Wifi_BLE_SDK/GD32VW55x_RELEASE_V1.0.2/MSDK/lwip/lwip-2.1.2/src/core/ipv4\etharp.c ****       /* issue a standard request using broadcast */
 1598              		.loc 1 800 5 is_stmt 1
 800:C:/Users/stapi/OneDrive/Desktop/GD32VW553/V1_MQTT_OK/GD32VW55X_Wifi_BLE_SDK/GD32VW55x_RELEASE_V1.0.2/MSDK/lwip/lwip-2.1.2/src/core/ipv4\etharp.c ****       /* issue a standard request using broadcast */
 1599              		.loc 1 800 27 is_stmt 0
 1600 005e 03572901 		lhu	a4,18(s2)
 800:C:/Users/stapi/OneDrive/Desktop/GD32VW553/V1_MQTT_OK/GD32VW55X_Wifi_BLE_SDK/GD32VW55x_RELEASE_V1.0.2/MSDK/lwip/lwip-2.1.2/src/core/ipv4\etharp.c ****       /* issue a standard request using broadcast */
 1601              		.loc 1 800 8
 1602 0062 9306C011 		li	a3,284
 1603 0066 63FCE602 		bleu	a4,a3,.L134
 802:C:/Users/stapi/OneDrive/Desktop/GD32VW553/V1_MQTT_OK/GD32VW55X_Wifi_BLE_SDK/GD32VW55x_RELEASE_V1.0.2/MSDK/lwip/lwip-2.1.2/src/core/ipv4\etharp.c ****         arp_table[arp_idx].state = ETHARP_STATE_STABLE_REREQUESTING_1;
 1604              		.loc 1 802 7 is_stmt 1
 802:C:/Users/stapi/OneDrive/Desktop/GD32VW553/V1_MQTT_OK/GD32VW55X_Wifi_BLE_SDK/GD32VW55x_RELEASE_V1.0.2/MSDK/lwip/lwip-2.1.2/src/core/ipv4\etharp.c ****         arp_table[arp_idx].state = ETHARP_STATE_STABLE_REREQUESTING_1;
 1605              		.loc 1 802 33 is_stmt 0
 1606 006a 9107     		addi	a5,a5,4
 802:C:/Users/stapi/OneDrive/Desktop/GD32VW553/V1_MQTT_OK/GD32VW55X_Wifi_BLE_SDK/GD32VW55x_RELEASE_V1.0.2/MSDK/lwip/lwip-2.1.2/src/core/ipv4\etharp.c ****         arp_table[arp_idx].state = ETHARP_STATE_STABLE_REREQUESTING_1;
 1607              		.loc 1 802 11
 1608 006c B305F800 		add	a1,a6,a5
 1609              	.LVL153:
 1610 0070 97000000 		call	etharp_request
 1610      E7800000 
 1611              	.LVL154:
 1612              	.L139:
 807:C:/Users/stapi/OneDrive/Desktop/GD32VW553/V1_MQTT_OK/GD32VW55X_Wifi_BLE_SDK/GD32VW55x_RELEASE_V1.0.2/MSDK/lwip/lwip-2.1.2/src/core/ipv4\etharp.c ****         arp_table[arp_idx].state = ETHARP_STATE_STABLE_REREQUESTING_1;
 1613              		.loc 1 807 10
 1614 0078 01E5     		bne	a0,zero,.L133
 808:C:/Users/stapi/OneDrive/Desktop/GD32VW553/V1_MQTT_OK/GD32VW55X_Wifi_BLE_SDK/GD32VW55x_RELEASE_V1.0.2/MSDK/lwip/lwip-2.1.2/src/core/ipv4\etharp.c ****       }
 1615              		.loc 1 808 9 is_stmt 1
 808:C:/Users/stapi/OneDrive/Desktop/GD32VW553/V1_MQTT_OK/GD32VW55X_Wifi_BLE_SDK/GD32VW55x_RELEASE_V1.0.2/MSDK/lwip/lwip-2.1.2/src/core/ipv4\etharp.c ****       }
 1616              		.loc 1 808 34 is_stmt 0
 1617 007a 8D47     		li	a5,3
 1618 007c 230AF900 		sb	a5,20(s2)
 1619              	.L133:
 813:C:/Users/stapi/OneDrive/Desktop/GD32VW553/V1_MQTT_OK/GD32VW55X_Wifi_BLE_SDK/GD32VW55x_RELEASE_V1.0.2/MSDK/lwip/lwip-2.1.2/src/core/ipv4\etharp.c **** }
 1620              		.loc 1 813 3 is_stmt 1
 813:C:/Users/stapi/OneDrive/Desktop/GD32VW553/V1_MQTT_OK/GD32VW55X_Wifi_BLE_SDK/GD32VW55x_RELEASE_V1.0.2/MSDK/lwip/lwip-2.1.2/src/core/ipv4\etharp.c **** }
 1621              		.loc 1 813 10 is_stmt 0
 1622 0080 0567     		li	a4,4096
 1623 0082 13070780 		addi	a4,a4,-2048
 1624 0086 A686     		mv	a3,s1
 1625 0088 5286     		mv	a2,s4
 1626 008a CE85     		mv	a1,s3
 1627 008c 2285     		mv	a0,s0
 1628 008e 97000000 		call	ethernet_output
 1628      E7800000 
 1629              	.LVL155:
 814:C:/Users/stapi/OneDrive/Desktop/GD32VW553/V1_MQTT_OK/GD32VW55X_Wifi_BLE_SDK/GD32VW55x_RELEASE_V1.0.2/MSDK/lwip/lwip-2.1.2/src/core/ipv4\etharp.c **** 
 1630              		.loc 1 814 1
 1631 0096 17030000 		tail	__riscv_restore_5
 1631      67000300 
 1632              		.cfi_remember_state
 1633              		.cfi_restore 20
 1634              		.cfi_restore 19
 1635              		.cfi_restore 18
 1636              		.cfi_restore 9
 1637              		.cfi_restore 8
 1638              		.cfi_restore 1
 1639              		.cfi_def_cfa_offset 0
 1640              	.LVL156:
 1641              	.L134:
 1642              		.cfi_restore_state
 805:C:/Users/stapi/OneDrive/Desktop/GD32VW553/V1_MQTT_OK/GD32VW55X_Wifi_BLE_SDK/GD32VW55x_RELEASE_V1.0.2/MSDK/lwip/lwip-2.1.2/src/core/ipv4\etharp.c ****       /* issue a unicast request (for 15 seconds) to prevent unnecessary broadcast */
 1643              		.loc 1 805 12 is_stmt 1
 805:C:/Users/stapi/OneDrive/Desktop/GD32VW553/V1_MQTT_OK/GD32VW55X_Wifi_BLE_SDK/GD32VW55x_RELEASE_V1.0.2/MSDK/lwip/lwip-2.1.2/src/core/ipv4\etharp.c ****       /* issue a unicast request (for 15 seconds) to prevent unnecessary broadcast */
 1644              		.loc 1 805 15 is_stmt 0
 1645 009e 9306D010 		li	a3,269
 1646 00a2 E3FFE6FC 		bleu	a4,a3,.L133
 807:C:/Users/stapi/OneDrive/Desktop/GD32VW553/V1_MQTT_OK/GD32VW55X_Wifi_BLE_SDK/GD32VW55x_RELEASE_V1.0.2/MSDK/lwip/lwip-2.1.2/src/core/ipv4\etharp.c ****         arp_table[arp_idx].state = ETHARP_STATE_STABLE_REREQUESTING_1;
 1647              		.loc 1 807 7 is_stmt 1
 1648              	.LVL157:
 1649              	.LBB34:
 1650              	.LBB32:
1237:C:/Users/stapi/OneDrive/Desktop/GD32VW553/V1_MQTT_OK/GD32VW55X_Wifi_BLE_SDK/GD32VW55x_RELEASE_V1.0.2/MSDK/lwip/lwip-2.1.2/src/core/ipv4\etharp.c ****                     (struct eth_addr *)netif->hwaddr, netif_ip4_addr(netif), &ethzero,
 1651              		.loc 1 1237 3
 1652              	.LBE32:
 1653              	.LBE34:
 807:C:/Users/stapi/OneDrive/Desktop/GD32VW553/V1_MQTT_OK/GD32VW55X_Wifi_BLE_SDK/GD32VW55x_RELEASE_V1.0.2/MSDK/lwip/lwip-2.1.2/src/core/ipv4\etharp.c ****         arp_table[arp_idx].state = ETHARP_STATE_STABLE_REREQUESTING_1;
 1654              		.loc 1 807 37 is_stmt 0
 1655 00a6 9107     		addi	a5,a5,4
 1656              	.LVL158:
 1657              	.LBB35:
 1658              	.LBB33:
1237:C:/Users/stapi/OneDrive/Desktop/GD32VW553/V1_MQTT_OK/GD32VW55X_Wifi_BLE_SDK/GD32VW55x_RELEASE_V1.0.2/MSDK/lwip/lwip-2.1.2/src/core/ipv4\etharp.c ****                     (struct eth_addr *)netif->hwaddr, netif_ip4_addr(netif), &ethzero,
 1659              		.loc 1 1237 10
 1660 00a8 3E98     		add	a6,a6,a5
 1661 00aa B7070000 		lui	a5,%hi(ethzero)
 1662 00ae 8548     		li	a7,1
 1663 00b0 93870700 		addi	a5,a5,%lo(ethzero)
 1664 00b4 13074500 		addi	a4,a0,4
 1665 00b8 D286     		mv	a3,s4
 1666 00ba 2686     		mv	a2,s1
 1667              	.LVL159:
 1668 00bc D285     		mv	a1,s4
 1669              	.LVL160:
 1670 00be 97000000 		call	etharp_raw
 1670      E7800000 
 1671              	.LVL161:
 1672 00c6 4DBF     		j	.L139
 1673              	.LBE33:
 1674              	.LBE35:
 1675              		.cfi_endproc
 1676              	.LFE13:
 1678              		.section	.rodata.etharp_query.str1.4,"aMS",@progbits,1
 1679              		.align	2
 1680              	.LC14:
 1681 0000 74797065 		.string	"type overflow"
 1681      206F7665 
 1681      72666C6F 
 1681      7700
 1682 000e 0000     		.align	2
 1683              	.LC15:
 1684 0010 6E6F2070 		.string	"no packet queues allowed!"
 1684      61636B65 
 1684      74207175 
 1684      65756573 
 1684      20616C6C 
 1685              		.section	.text.etharp_query,"ax",@progbits
 1686              		.align	1
 1687              		.globl	etharp_query
 1689              	etharp_query:
 1690              	.LFB15:
 988:C:/Users/stapi/OneDrive/Desktop/GD32VW553/V1_MQTT_OK/GD32VW55X_Wifi_BLE_SDK/GD32VW55x_RELEASE_V1.0.2/MSDK/lwip/lwip-2.1.2/src/core/ipv4\etharp.c ****   struct eth_addr *srcaddr = (struct eth_addr *)netif->hwaddr;
 1691              		.loc 1 988 1 is_stmt 1
 1692              		.cfi_startproc
 1693              	.LVL162:
 1694 0000 17030000 		call	t0,__riscv_save_5
 1694      E7020300 
 1695              		.cfi_offset 20, -24
 1696              		.cfi_offset 19, -20
 1697              		.cfi_offset 18, -16
 1698              		.cfi_offset 9, -12
 1699              		.cfi_offset 8, -8
 1700              		.cfi_offset 1, -4
 1701              		.cfi_def_cfa_offset 32
 989:C:/Users/stapi/OneDrive/Desktop/GD32VW553/V1_MQTT_OK/GD32VW55X_Wifi_BLE_SDK/GD32VW55x_RELEASE_V1.0.2/MSDK/lwip/lwip-2.1.2/src/core/ipv4\etharp.c ****   err_t result = ERR_MEM;
 1702              		.loc 1 989 3
 1703              	.LVL163:
 990:C:/Users/stapi/OneDrive/Desktop/GD32VW553/V1_MQTT_OK/GD32VW55X_Wifi_BLE_SDK/GD32VW55x_RELEASE_V1.0.2/MSDK/lwip/lwip-2.1.2/src/core/ipv4\etharp.c ****   int is_new_entry = 0;
 1704              		.loc 1 990 3
 991:C:/Users/stapi/OneDrive/Desktop/GD32VW553/V1_MQTT_OK/GD32VW55X_Wifi_BLE_SDK/GD32VW55x_RELEASE_V1.0.2/MSDK/lwip/lwip-2.1.2/src/core/ipv4\etharp.c ****   s16_t i_err;
 1705              		.loc 1 991 3
 992:C:/Users/stapi/OneDrive/Desktop/GD32VW553/V1_MQTT_OK/GD32VW55X_Wifi_BLE_SDK/GD32VW55x_RELEASE_V1.0.2/MSDK/lwip/lwip-2.1.2/src/core/ipv4\etharp.c ****   netif_addr_idx_t i;
 1706              		.loc 1 992 3
 993:C:/Users/stapi/OneDrive/Desktop/GD32VW553/V1_MQTT_OK/GD32VW55X_Wifi_BLE_SDK/GD32VW55x_RELEASE_V1.0.2/MSDK/lwip/lwip-2.1.2/src/core/ipv4\etharp.c **** 
 1707              		.loc 1 993 3
 996:C:/Users/stapi/OneDrive/Desktop/GD32VW553/V1_MQTT_OK/GD32VW55X_Wifi_BLE_SDK/GD32VW55x_RELEASE_V1.0.2/MSDK/lwip/lwip-2.1.2/src/core/ipv4\etharp.c ****       ip4_addr_ismulticast(ipaddr) ||
 1708              		.loc 1 996 3
 988:C:/Users/stapi/OneDrive/Desktop/GD32VW553/V1_MQTT_OK/GD32VW55X_Wifi_BLE_SDK/GD32VW55x_RELEASE_V1.0.2/MSDK/lwip/lwip-2.1.2/src/core/ipv4\etharp.c ****   struct eth_addr *srcaddr = (struct eth_addr *)netif->hwaddr;
 1709              		.loc 1 988 1 is_stmt 0
 1710 0008 2E8A     		mv	s4,a1
 1711 000a AA89     		mv	s3,a0
 996:C:/Users/stapi/OneDrive/Desktop/GD32VW553/V1_MQTT_OK/GD32VW55X_Wifi_BLE_SDK/GD32VW55x_RELEASE_V1.0.2/MSDK/lwip/lwip-2.1.2/src/core/ipv4\etharp.c ****       ip4_addr_ismulticast(ipaddr) ||
 1712              		.loc 1 996 7
 1713 000c AA85     		mv	a1,a0
 1714              	.LVL164:
 1715 000e 03250A00 		lw	a0,0(s4)
 1716              	.LVL165:
 988:C:/Users/stapi/OneDrive/Desktop/GD32VW553/V1_MQTT_OK/GD32VW55X_Wifi_BLE_SDK/GD32VW55x_RELEASE_V1.0.2/MSDK/lwip/lwip-2.1.2/src/core/ipv4\etharp.c ****   struct eth_addr *srcaddr = (struct eth_addr *)netif->hwaddr;
 1717              		.loc 1 988 1
 1718 0012 3284     		mv	s0,a2
 996:C:/Users/stapi/OneDrive/Desktop/GD32VW553/V1_MQTT_OK/GD32VW55X_Wifi_BLE_SDK/GD32VW55x_RELEASE_V1.0.2/MSDK/lwip/lwip-2.1.2/src/core/ipv4\etharp.c ****       ip4_addr_ismulticast(ipaddr) ||
 1719              		.loc 1 996 7
 1720 0014 97000000 		call	ip4_addr_isbroadcast_u32
 1720      E7800000 
 1721              	.LVL166:
 996:C:/Users/stapi/OneDrive/Desktop/GD32VW553/V1_MQTT_OK/GD32VW55X_Wifi_BLE_SDK/GD32VW55x_RELEASE_V1.0.2/MSDK/lwip/lwip-2.1.2/src/core/ipv4\etharp.c ****       ip4_addr_ismulticast(ipaddr) ||
 1722              		.loc 1 996 6
 1723 001c 63120512 		bne	a0,zero,.L159
 997:C:/Users/stapi/OneDrive/Desktop/GD32VW553/V1_MQTT_OK/GD32VW55X_Wifi_BLE_SDK/GD32VW55x_RELEASE_V1.0.2/MSDK/lwip/lwip-2.1.2/src/core/ipv4\etharp.c ****       ip4_addr_isany(ipaddr)) {
 1724              		.loc 1 997 7 discriminator 1
 1725 0020 83270A00 		lw	a5,0(s4)
 996:C:/Users/stapi/OneDrive/Desktop/GD32VW553/V1_MQTT_OK/GD32VW55X_Wifi_BLE_SDK/GD32VW55x_RELEASE_V1.0.2/MSDK/lwip/lwip-2.1.2/src/core/ipv4\etharp.c ****       ip4_addr_ismulticast(ipaddr) ||
 1726              		.loc 1 996 43 discriminator 1
 1727 0024 1307000E 		li	a4,224
 997:C:/Users/stapi/OneDrive/Desktop/GD32VW553/V1_MQTT_OK/GD32VW55X_Wifi_BLE_SDK/GD32VW55x_RELEASE_V1.0.2/MSDK/lwip/lwip-2.1.2/src/core/ipv4\etharp.c ****       ip4_addr_isany(ipaddr)) {
 1728              		.loc 1 997 7 discriminator 1
 1729 0028 93F6070F 		andi	a3,a5,240
 996:C:/Users/stapi/OneDrive/Desktop/GD32VW553/V1_MQTT_OK/GD32VW55X_Wifi_BLE_SDK/GD32VW55x_RELEASE_V1.0.2/MSDK/lwip/lwip-2.1.2/src/core/ipv4\etharp.c ****       ip4_addr_ismulticast(ipaddr) ||
 1730              		.loc 1 996 43 discriminator 1
 1731 002c 638AE610 		beq	a3,a4,.L159
 998:C:/Users/stapi/OneDrive/Desktop/GD32VW553/V1_MQTT_OK/GD32VW55X_Wifi_BLE_SDK/GD32VW55x_RELEASE_V1.0.2/MSDK/lwip/lwip-2.1.2/src/core/ipv4\etharp.c ****     LWIP_DEBUGF(ETHARP_DEBUG | LWIP_DBG_TRACE, ("etharp_query: will not add non-unicast IP address 
 1732              		.loc 1 998 7
 1733 0030 63880710 		beq	a5,zero,.L159
1004:C:/Users/stapi/OneDrive/Desktop/GD32VW553/V1_MQTT_OK/GD32VW55X_Wifi_BLE_SDK/GD32VW55x_RELEASE_V1.0.2/MSDK/lwip/lwip-2.1.2/src/core/ipv4\etharp.c **** 
 1734              		.loc 1 1004 3 is_stmt 1
1004:C:/Users/stapi/OneDrive/Desktop/GD32VW553/V1_MQTT_OK/GD32VW55X_Wifi_BLE_SDK/GD32VW55x_RELEASE_V1.0.2/MSDK/lwip/lwip-2.1.2/src/core/ipv4\etharp.c **** 
 1735              		.loc 1 1004 11 is_stmt 0
 1736 0034 4E86     		mv	a2,s3
 1737 0036 8545     		li	a1,1
 1738 0038 5285     		mv	a0,s4
 1739 003a 97000000 		call	etharp_find_entry
 1739      E7800000 
 1740              	.LVL167:
 1741 0042 AA84     		mv	s1,a0
 1742              	.LVL168:
1007:C:/Users/stapi/OneDrive/Desktop/GD32VW553/V1_MQTT_OK/GD32VW55X_Wifi_BLE_SDK/GD32VW55x_RELEASE_V1.0.2/MSDK/lwip/lwip-2.1.2/src/core/ipv4\etharp.c ****     LWIP_DEBUGF(ETHARP_DEBUG | LWIP_DBG_TRACE, ("etharp_query: could not create ARP entry\n"));
 1743              		.loc 1 1007 3 is_stmt 1
1007:C:/Users/stapi/OneDrive/Desktop/GD32VW553/V1_MQTT_OK/GD32VW55X_Wifi_BLE_SDK/GD32VW55x_RELEASE_V1.0.2/MSDK/lwip/lwip-2.1.2/src/core/ipv4\etharp.c ****     LWIP_DEBUGF(ETHARP_DEBUG | LWIP_DBG_TRACE, ("etharp_query: could not create ARP entry\n"));
 1744              		.loc 1 1007 6 is_stmt 0
 1745 0044 63580500 		bge	a0,zero,.L142
1008:C:/Users/stapi/OneDrive/Desktop/GD32VW553/V1_MQTT_OK/GD32VW55X_Wifi_BLE_SDK/GD32VW55x_RELEASE_V1.0.2/MSDK/lwip/lwip-2.1.2/src/core/ipv4\etharp.c ****     if (q) {
 1746              		.loc 1 1008 95 is_stmt 1
1009:C:/Users/stapi/OneDrive/Desktop/GD32VW553/V1_MQTT_OK/GD32VW55X_Wifi_BLE_SDK/GD32VW55x_RELEASE_V1.0.2/MSDK/lwip/lwip-2.1.2/src/core/ipv4\etharp.c ****       LWIP_DEBUGF(ETHARP_DEBUG | LWIP_DBG_TRACE, ("etharp_query: packet dropped\n"));
 1747              		.loc 1 1009 5
1010:C:/Users/stapi/OneDrive/Desktop/GD32VW553/V1_MQTT_OK/GD32VW55X_Wifi_BLE_SDK/GD32VW55x_RELEASE_V1.0.2/MSDK/lwip/lwip-2.1.2/src/core/ipv4\etharp.c ****       ETHARP_STATS_INC(etharp.memerr);
 1748              		.loc 1 1010 85
1011:C:/Users/stapi/OneDrive/Desktop/GD32VW553/V1_MQTT_OK/GD32VW55X_Wifi_BLE_SDK/GD32VW55x_RELEASE_V1.0.2/MSDK/lwip/lwip-2.1.2/src/core/ipv4\etharp.c ****     }
 1749              		.loc 1 1011 38
1013:C:/Users/stapi/OneDrive/Desktop/GD32VW553/V1_MQTT_OK/GD32VW55X_Wifi_BLE_SDK/GD32VW55x_RELEASE_V1.0.2/MSDK/lwip/lwip-2.1.2/src/core/ipv4\etharp.c ****   }
 1750              		.loc 1 1013 5
1013:C:/Users/stapi/OneDrive/Desktop/GD32VW553/V1_MQTT_OK/GD32VW55X_Wifi_BLE_SDK/GD32VW55x_RELEASE_V1.0.2/MSDK/lwip/lwip-2.1.2/src/core/ipv4\etharp.c ****   }
 1751              		.loc 1 1013 12 is_stmt 0
 1752 0048 13154560 		sext.b	a0,a0
 1753              	.LVL169:
 1754              	.L160:
1137:C:/Users/stapi/OneDrive/Desktop/GD32VW553/V1_MQTT_OK/GD32VW55X_Wifi_BLE_SDK/GD32VW55x_RELEASE_V1.0.2/MSDK/lwip/lwip-2.1.2/src/core/ipv4\etharp.c **** 
 1755              		.loc 1 1137 1
 1756 004c 17030000 		tail	__riscv_restore_5
 1756      67000300 
 1757              		.cfi_remember_state
 1758              		.cfi_restore 20
 1759              		.cfi_restore 19
 1760              		.cfi_restore 18
 1761              		.cfi_restore 9
 1762              		.cfi_restore 8
 1763              		.cfi_restore 1
 1764              		.cfi_def_cfa_offset 0
 1765              	.LVL170:
 1766              	.L142:
 1767              		.cfi_restore_state
1015:C:/Users/stapi/OneDrive/Desktop/GD32VW553/V1_MQTT_OK/GD32VW55X_Wifi_BLE_SDK/GD32VW55x_RELEASE_V1.0.2/MSDK/lwip/lwip-2.1.2/src/core/ipv4\etharp.c ****   i = (netif_addr_idx_t)i_err;
 1768              		.loc 1 1015 3 is_stmt 1
1015:C:/Users/stapi/OneDrive/Desktop/GD32VW553/V1_MQTT_OK/GD32VW55X_Wifi_BLE_SDK/GD32VW55x_RELEASE_V1.0.2/MSDK/lwip/lwip-2.1.2/src/core/ipv4\etharp.c ****   i = (netif_addr_idx_t)i_err;
 1769              		.loc 1 1015 3
 1770 0054 9307E007 		li	a5,126
 1771 0058 63D5A702 		ble	a0,a5,.L143
1015:C:/Users/stapi/OneDrive/Desktop/GD32VW553/V1_MQTT_OK/GD32VW55X_Wifi_BLE_SDK/GD32VW55x_RELEASE_V1.0.2/MSDK/lwip/lwip-2.1.2/src/core/ipv4\etharp.c ****   i = (netif_addr_idx_t)i_err;
 1772              		.loc 1 1015 3 discriminator 1
1015:C:/Users/stapi/OneDrive/Desktop/GD32VW553/V1_MQTT_OK/GD32VW55X_Wifi_BLE_SDK/GD32VW55x_RELEASE_V1.0.2/MSDK/lwip/lwip-2.1.2/src/core/ipv4\etharp.c ****   i = (netif_addr_idx_t)i_err;
 1773              		.loc 1 1015 3 discriminator 1
 1774 005c B7060000 		lui	a3,%hi(.LC0)
 1775 0060 B7050000 		lui	a1,%hi(.LC14)
 1776 0064 37050000 		lui	a0,%hi(.LC2)
 1777              	.LVL171:
 1778 0068 93860600 		addi	a3,a3,%lo(.LC0)
 1779 006c 1306703F 		li	a2,1015
 1780 0070 93850500 		addi	a1,a1,%lo(.LC14)
 1781 0074 13050500 		addi	a0,a0,%lo(.LC2)
 1782 0078 97000000 		call	printf
 1782      E7800000 
 1783              	.LVL172:
 1784              	.L144:
1015:C:/Users/stapi/OneDrive/Desktop/GD32VW553/V1_MQTT_OK/GD32VW55X_Wifi_BLE_SDK/GD32VW55x_RELEASE_V1.0.2/MSDK/lwip/lwip-2.1.2/src/core/ipv4\etharp.c ****   i = (netif_addr_idx_t)i_err;
 1785              		.loc 1 1015 3 discriminator 1
1015:C:/Users/stapi/OneDrive/Desktop/GD32VW553/V1_MQTT_OK/GD32VW55X_Wifi_BLE_SDK/GD32VW55x_RELEASE_V1.0.2/MSDK/lwip/lwip-2.1.2/src/core/ipv4\etharp.c ****   i = (netif_addr_idx_t)i_err;
 1786              		.loc 1 1015 3 discriminator 1
1015:C:/Users/stapi/OneDrive/Desktop/GD32VW553/V1_MQTT_OK/GD32VW55X_Wifi_BLE_SDK/GD32VW55x_RELEASE_V1.0.2/MSDK/lwip/lwip-2.1.2/src/core/ipv4\etharp.c ****   i = (netif_addr_idx_t)i_err;
 1787              		.loc 1 1015 3 discriminator 1
 1788 0080 01A0     		j	.L144
 1789              	.LVL173:
 1790              	.L143:
1015:C:/Users/stapi/OneDrive/Desktop/GD32VW553/V1_MQTT_OK/GD32VW55X_Wifi_BLE_SDK/GD32VW55x_RELEASE_V1.0.2/MSDK/lwip/lwip-2.1.2/src/core/ipv4\etharp.c ****   i = (netif_addr_idx_t)i_err;
 1791              		.loc 1 1015 3 discriminator 2
1015:C:/Users/stapi/OneDrive/Desktop/GD32VW553/V1_MQTT_OK/GD32VW55X_Wifi_BLE_SDK/GD32VW55x_RELEASE_V1.0.2/MSDK/lwip/lwip-2.1.2/src/core/ipv4\etharp.c ****   i = (netif_addr_idx_t)i_err;
 1792              		.loc 1 1015 3 discriminator 2
1016:C:/Users/stapi/OneDrive/Desktop/GD32VW553/V1_MQTT_OK/GD32VW55X_Wifi_BLE_SDK/GD32VW55x_RELEASE_V1.0.2/MSDK/lwip/lwip-2.1.2/src/core/ipv4\etharp.c **** 
 1793              		.loc 1 1016 3 discriminator 2
1019:C:/Users/stapi/OneDrive/Desktop/GD32VW553/V1_MQTT_OK/GD32VW55X_Wifi_BLE_SDK/GD32VW55x_RELEASE_V1.0.2/MSDK/lwip/lwip-2.1.2/src/core/ipv4\etharp.c ****     is_new_entry = 1;
 1794              		.loc 1 1019 3 discriminator 2
1019:C:/Users/stapi/OneDrive/Desktop/GD32VW553/V1_MQTT_OK/GD32VW55X_Wifi_BLE_SDK/GD32VW55x_RELEASE_V1.0.2/MSDK/lwip/lwip-2.1.2/src/core/ipv4\etharp.c ****     is_new_entry = 1;
 1795              		.loc 1 1019 19 is_stmt 0 discriminator 2
 1796 0082 37090000 		lui	s2,%hi(.LANCHOR0)
 1797 0086 93070900 		addi	a5,s2,%lo(.LANCHOR0)
 1798 008a 6147     		li	a4,24
 1799 008c FF17E5C4 		maddr32	a5, a0, a4
1019:C:/Users/stapi/OneDrive/Desktop/GD32VW553/V1_MQTT_OK/GD32VW55X_Wifi_BLE_SDK/GD32VW55x_RELEASE_V1.0.2/MSDK/lwip/lwip-2.1.2/src/core/ipv4\etharp.c ****     is_new_entry = 1;
 1800              		.loc 1 1019 6 discriminator 2
 1801 0090 03C74701 		lbu	a4,20(a5)
 1802 0094 13090900 		addi	s2,s2,%lo(.LANCHOR0)
 1803 0098 65E7     		bne	a4,zero,.L145
1020:C:/Users/stapi/OneDrive/Desktop/GD32VW553/V1_MQTT_OK/GD32VW55X_Wifi_BLE_SDK/GD32VW55x_RELEASE_V1.0.2/MSDK/lwip/lwip-2.1.2/src/core/ipv4\etharp.c ****     arp_table[i].state = ETHARP_STATE_PENDING;
 1804              		.loc 1 1020 5 is_stmt 1
 1805              	.LVL174:
1021:C:/Users/stapi/OneDrive/Desktop/GD32VW553/V1_MQTT_OK/GD32VW55X_Wifi_BLE_SDK/GD32VW55x_RELEASE_V1.0.2/MSDK/lwip/lwip-2.1.2/src/core/ipv4\etharp.c ****     /* record network interface for re-sending arp request in etharp_tmr */
 1806              		.loc 1 1021 5
1021:C:/Users/stapi/OneDrive/Desktop/GD32VW553/V1_MQTT_OK/GD32VW55X_Wifi_BLE_SDK/GD32VW55x_RELEASE_V1.0.2/MSDK/lwip/lwip-2.1.2/src/core/ipv4\etharp.c ****     /* record network interface for re-sending arp request in etharp_tmr */
 1807              		.loc 1 1021 24 is_stmt 0
 1808 009a 0547     		li	a4,1
 1809 009c 238AE700 		sb	a4,20(a5)
1023:C:/Users/stapi/OneDrive/Desktop/GD32VW553/V1_MQTT_OK/GD32VW55X_Wifi_BLE_SDK/GD32VW55x_RELEASE_V1.0.2/MSDK/lwip/lwip-2.1.2/src/core/ipv4\etharp.c ****   }
 1810              		.loc 1 1023 5 is_stmt 1
1023:C:/Users/stapi/OneDrive/Desktop/GD32VW553/V1_MQTT_OK/GD32VW55X_Wifi_BLE_SDK/GD32VW55x_RELEASE_V1.0.2/MSDK/lwip/lwip-2.1.2/src/core/ipv4\etharp.c ****   }
 1811              		.loc 1 1023 24 is_stmt 0
 1812 00a0 23A43701 		sw	s3,8(a5)
1027:C:/Users/stapi/OneDrive/Desktop/GD32VW553/V1_MQTT_OK/GD32VW55X_Wifi_BLE_SDK/GD32VW55x_RELEASE_V1.0.2/MSDK/lwip/lwip-2.1.2/src/core/ipv4\etharp.c ****               ((arp_table[i].state == ETHARP_STATE_PENDING) ||
 1813              		.loc 1 1027 3 is_stmt 1
1027:C:/Users/stapi/OneDrive/Desktop/GD32VW553/V1_MQTT_OK/GD32VW55X_Wifi_BLE_SDK/GD32VW55x_RELEASE_V1.0.2/MSDK/lwip/lwip-2.1.2/src/core/ipv4\etharp.c ****               ((arp_table[i].state == ETHARP_STATE_PENDING) ||
 1814              		.loc 1 1027 3
1027:C:/Users/stapi/OneDrive/Desktop/GD32VW553/V1_MQTT_OK/GD32VW55X_Wifi_BLE_SDK/GD32VW55x_RELEASE_V1.0.2/MSDK/lwip/lwip-2.1.2/src/core/ipv4\etharp.c ****               ((arp_table[i].state == ETHARP_STATE_PENDING) ||
 1815              		.loc 1 1027 3
1027:C:/Users/stapi/OneDrive/Desktop/GD32VW553/V1_MQTT_OK/GD32VW55X_Wifi_BLE_SDK/GD32VW55x_RELEASE_V1.0.2/MSDK/lwip/lwip-2.1.2/src/core/ipv4\etharp.c ****               ((arp_table[i].state == ETHARP_STATE_PENDING) ||
 1816              		.loc 1 1027 3
1032:C:/Users/stapi/OneDrive/Desktop/GD32VW553/V1_MQTT_OK/GD32VW55X_Wifi_BLE_SDK/GD32VW55x_RELEASE_V1.0.2/MSDK/lwip/lwip-2.1.2/src/core/ipv4\etharp.c ****     /* try to resolve it; send out ARP request */
 1817              		.loc 1 1032 3
 1818              	.LVL175:
 1819              	.L156:
1034:C:/Users/stapi/OneDrive/Desktop/GD32VW553/V1_MQTT_OK/GD32VW55X_Wifi_BLE_SDK/GD32VW55x_RELEASE_V1.0.2/MSDK/lwip/lwip-2.1.2/src/core/ipv4\etharp.c ****     if (result != ERR_OK) {
 1820              		.loc 1 1034 5
1034:C:/Users/stapi/OneDrive/Desktop/GD32VW553/V1_MQTT_OK/GD32VW55X_Wifi_BLE_SDK/GD32VW55x_RELEASE_V1.0.2/MSDK/lwip/lwip-2.1.2/src/core/ipv4\etharp.c ****     if (result != ERR_OK) {
 1821              		.loc 1 1034 14 is_stmt 0
 1822 00a4 D285     		mv	a1,s4
 1823 00a6 4E85     		mv	a0,s3
 1824 00a8 97000000 		call	etharp_request
 1824      E7800000 
 1825              	.LVL176:
1035:C:/Users/stapi/OneDrive/Desktop/GD32VW553/V1_MQTT_OK/GD32VW55X_Wifi_BLE_SDK/GD32VW55x_RELEASE_V1.0.2/MSDK/lwip/lwip-2.1.2/src/core/ipv4\etharp.c ****       /* ARP request couldn't be sent */
 1826              		.loc 1 1035 5 is_stmt 1
1040:C:/Users/stapi/OneDrive/Desktop/GD32VW553/V1_MQTT_OK/GD32VW55X_Wifi_BLE_SDK/GD32VW55x_RELEASE_V1.0.2/MSDK/lwip/lwip-2.1.2/src/core/ipv4\etharp.c ****     if (q == NULL) {
 1827              		.loc 1 1040 5
1041:C:/Users/stapi/OneDrive/Desktop/GD32VW553/V1_MQTT_OK/GD32VW55X_Wifi_BLE_SDK/GD32VW55x_RELEASE_V1.0.2/MSDK/lwip/lwip-2.1.2/src/core/ipv4\etharp.c ****       return result;
 1828              		.loc 1 1041 5
1041:C:/Users/stapi/OneDrive/Desktop/GD32VW553/V1_MQTT_OK/GD32VW55X_Wifi_BLE_SDK/GD32VW55x_RELEASE_V1.0.2/MSDK/lwip/lwip-2.1.2/src/core/ipv4\etharp.c ****       return result;
 1829              		.loc 1 1041 8 is_stmt 0
 1830 00b0 51DC     		beq	s0,zero,.L160
 1831              	.LVL177:
 1832              	.L146:
1047:C:/Users/stapi/OneDrive/Desktop/GD32VW553/V1_MQTT_OK/GD32VW55X_Wifi_BLE_SDK/GD32VW55x_RELEASE_V1.0.2/MSDK/lwip/lwip-2.1.2/src/core/ipv4\etharp.c ****   /* stable entry? */
 1833              		.loc 1 1047 3 is_stmt 1
1047:C:/Users/stapi/OneDrive/Desktop/GD32VW553/V1_MQTT_OK/GD32VW55X_Wifi_BLE_SDK/GD32VW55x_RELEASE_V1.0.2/MSDK/lwip/lwip-2.1.2/src/core/ipv4\etharp.c ****   /* stable entry? */
 1834              		.loc 1 1047 3
1047:C:/Users/stapi/OneDrive/Desktop/GD32VW553/V1_MQTT_OK/GD32VW55X_Wifi_BLE_SDK/GD32VW55x_RELEASE_V1.0.2/MSDK/lwip/lwip-2.1.2/src/core/ipv4\etharp.c ****   /* stable entry? */
 1835              		.loc 1 1047 3
1047:C:/Users/stapi/OneDrive/Desktop/GD32VW553/V1_MQTT_OK/GD32VW55X_Wifi_BLE_SDK/GD32VW55x_RELEASE_V1.0.2/MSDK/lwip/lwip-2.1.2/src/core/ipv4\etharp.c ****   /* stable entry? */
 1836              		.loc 1 1047 3
1049:C:/Users/stapi/OneDrive/Desktop/GD32VW553/V1_MQTT_OK/GD32VW55X_Wifi_BLE_SDK/GD32VW55x_RELEASE_V1.0.2/MSDK/lwip/lwip-2.1.2/src/core/ipv4\etharp.c ****     /* we have a valid IP->Ethernet address mapping */
 1837              		.loc 1 1049 3
1049:C:/Users/stapi/OneDrive/Desktop/GD32VW553/V1_MQTT_OK/GD32VW55X_Wifi_BLE_SDK/GD32VW55x_RELEASE_V1.0.2/MSDK/lwip/lwip-2.1.2/src/core/ipv4\etharp.c ****     /* we have a valid IP->Ethernet address mapping */
 1838              		.loc 1 1049 19 is_stmt 0
 1839 00b2 E146     		li	a3,24
 1840 00b4 B386D402 		mul	a3,s1,a3
 1841 00b8 B307D900 		add	a5,s2,a3
 1842 00bc 03C74701 		lbu	a4,20(a5)
1049:C:/Users/stapi/OneDrive/Desktop/GD32VW553/V1_MQTT_OK/GD32VW55X_Wifi_BLE_SDK/GD32VW55x_RELEASE_V1.0.2/MSDK/lwip/lwip-2.1.2/src/core/ipv4\etharp.c ****     /* we have a valid IP->Ethernet address mapping */
 1843              		.loc 1 1049 6
 1844 00c0 8547     		li	a5,1
 1845 00c2 63F4E702 		bleu	a4,a5,.L175
1051:C:/Users/stapi/OneDrive/Desktop/GD32VW553/V1_MQTT_OK/GD32VW55X_Wifi_BLE_SDK/GD32VW55x_RELEASE_V1.0.2/MSDK/lwip/lwip-2.1.2/src/core/ipv4\etharp.c ****     /* send the packet */
 1846              		.loc 1 1051 5 is_stmt 1
1053:C:/Users/stapi/OneDrive/Desktop/GD32VW553/V1_MQTT_OK/GD32VW55X_Wifi_BLE_SDK/GD32VW55x_RELEASE_V1.0.2/MSDK/lwip/lwip-2.1.2/src/core/ipv4\etharp.c ****     /* pending entry? (either just created or already pending */
 1847              		.loc 1 1053 49 is_stmt 0
 1848 00c6 B106     		addi	a3,a3,12
1053:C:/Users/stapi/OneDrive/Desktop/GD32VW553/V1_MQTT_OK/GD32VW55X_Wifi_BLE_SDK/GD32VW55x_RELEASE_V1.0.2/MSDK/lwip/lwip-2.1.2/src/core/ipv4\etharp.c ****     /* pending entry? (either just created or already pending */
 1849              		.loc 1 1053 14
 1850 00c8 0567     		li	a4,4096
1016:C:/Users/stapi/OneDrive/Desktop/GD32VW553/V1_MQTT_OK/GD32VW55X_Wifi_BLE_SDK/GD32VW55x_RELEASE_V1.0.2/MSDK/lwip/lwip-2.1.2/src/core/ipv4\etharp.c **** 
 1851              		.loc 1 1016 5
 1852 00ca B7070000 		lui	a5,%hi(.LANCHOR2)
1053:C:/Users/stapi/OneDrive/Desktop/GD32VW553/V1_MQTT_OK/GD32VW55X_Wifi_BLE_SDK/GD32VW55x_RELEASE_V1.0.2/MSDK/lwip/lwip-2.1.2/src/core/ipv4\etharp.c ****     /* pending entry? (either just created or already pending */
 1853              		.loc 1 1053 14
 1854 00ce 13070780 		addi	a4,a4,-2048
 1855 00d2 CA96     		add	a3,s2,a3
 1856 00d4 1386A902 		addi	a2,s3,42
 1857 00d8 A285     		mv	a1,s0
 1858 00da 4E85     		mv	a0,s3
 1859              	.LVL178:
1016:C:/Users/stapi/OneDrive/Desktop/GD32VW553/V1_MQTT_OK/GD32VW55X_Wifi_BLE_SDK/GD32VW55x_RELEASE_V1.0.2/MSDK/lwip/lwip-2.1.2/src/core/ipv4\etharp.c **** 
 1860              		.loc 1 1016 5
 1861 00dc 23809700 		sb	s1,%lo(.LANCHOR2)(a5)
1053:C:/Users/stapi/OneDrive/Desktop/GD32VW553/V1_MQTT_OK/GD32VW55X_Wifi_BLE_SDK/GD32VW55x_RELEASE_V1.0.2/MSDK/lwip/lwip-2.1.2/src/core/ipv4\etharp.c ****     /* pending entry? (either just created or already pending */
 1862              		.loc 1 1053 5 is_stmt 1
1053:C:/Users/stapi/OneDrive/Desktop/GD32VW553/V1_MQTT_OK/GD32VW55X_Wifi_BLE_SDK/GD32VW55x_RELEASE_V1.0.2/MSDK/lwip/lwip-2.1.2/src/core/ipv4\etharp.c ****     /* pending entry? (either just created or already pending */
 1863              		.loc 1 1053 14 is_stmt 0
 1864 00e0 97000000 		call	ethernet_output
 1864      E7800000 
 1865              	.LVL179:
 1866 00e8 95B7     		j	.L160
 1867              	.L175:
1055:C:/Users/stapi/OneDrive/Desktop/GD32VW553/V1_MQTT_OK/GD32VW55X_Wifi_BLE_SDK/GD32VW55x_RELEASE_V1.0.2/MSDK/lwip/lwip-2.1.2/src/core/ipv4\etharp.c ****     /* entry is still pending, queue the given packet 'q' */
 1868              		.loc 1 1055 10 is_stmt 1
1055:C:/Users/stapi/OneDrive/Desktop/GD32VW553/V1_MQTT_OK/GD32VW55X_Wifi_BLE_SDK/GD32VW55x_RELEASE_V1.0.2/MSDK/lwip/lwip-2.1.2/src/core/ipv4\etharp.c ****     /* entry is still pending, queue the given packet 'q' */
 1869              		.loc 1 1055 13 is_stmt 0
 1870 00ea E311F7F6 		bne	a4,a5,.L160
 1871 00ee A287     		mv	a5,s0
 1872              	.L150:
 1873              	.LVL180:
 1874              	.LBB36:
1063:C:/Users/stapi/OneDrive/Desktop/GD32VW553/V1_MQTT_OK/GD32VW55X_Wifi_BLE_SDK/GD32VW55x_RELEASE_V1.0.2/MSDK/lwip/lwip-2.1.2/src/core/ipv4\etharp.c ****       if (PBUF_NEEDS_COPY(p)) {
 1875              		.loc 1 1063 7 is_stmt 1
1063:C:/Users/stapi/OneDrive/Desktop/GD32VW553/V1_MQTT_OK/GD32VW55X_Wifi_BLE_SDK/GD32VW55x_RELEASE_V1.0.2/MSDK/lwip/lwip-2.1.2/src/core/ipv4\etharp.c ****       if (PBUF_NEEDS_COPY(p)) {
 1876              		.loc 1 1063 7
 1877 00f0 83D6A700 		lhu	a3,10(a5)
 1878 00f4 03D78700 		lhu	a4,8(a5)
 1879 00f8 6397E602 		bne	a3,a4,.L147
1063:C:/Users/stapi/OneDrive/Desktop/GD32VW553/V1_MQTT_OK/GD32VW55X_Wifi_BLE_SDK/GD32VW55x_RELEASE_V1.0.2/MSDK/lwip/lwip-2.1.2/src/core/ipv4\etharp.c ****       if (PBUF_NEEDS_COPY(p)) {
 1880              		.loc 1 1063 7 is_stmt 0 discriminator 1
 1881 00fc 9843     		lw	a4,0(a5)
 1882 00fe 05C7     		beq	a4,zero,.L147
1063:C:/Users/stapi/OneDrive/Desktop/GD32VW553/V1_MQTT_OK/GD32VW55X_Wifi_BLE_SDK/GD32VW55x_RELEASE_V1.0.2/MSDK/lwip/lwip-2.1.2/src/core/ipv4\etharp.c ****       if (PBUF_NEEDS_COPY(p)) {
 1883              		.loc 1 1063 7 is_stmt 1 discriminator 3
1063:C:/Users/stapi/OneDrive/Desktop/GD32VW553/V1_MQTT_OK/GD32VW55X_Wifi_BLE_SDK/GD32VW55x_RELEASE_V1.0.2/MSDK/lwip/lwip-2.1.2/src/core/ipv4\etharp.c ****       if (PBUF_NEEDS_COPY(p)) {
 1884              		.loc 1 1063 7 discriminator 3
 1885 0100 B7060000 		lui	a3,%hi(.LC0)
 1886 0104 B7050000 		lui	a1,%hi(.LC15)
 1887 0108 37050000 		lui	a0,%hi(.LC2)
 1888              	.LVL181:
 1889 010c 93860600 		addi	a3,a3,%lo(.LC0)
 1890 0110 13067042 		li	a2,1063
 1891 0114 93850500 		addi	a1,a1,%lo(.LC15)
 1892 0118 13050500 		addi	a0,a0,%lo(.LC2)
 1893 011c 97000000 		call	printf
 1893      E7800000 
 1894              	.LVL182:
 1895              	.L148:
1063:C:/Users/stapi/OneDrive/Desktop/GD32VW553/V1_MQTT_OK/GD32VW55X_Wifi_BLE_SDK/GD32VW55x_RELEASE_V1.0.2/MSDK/lwip/lwip-2.1.2/src/core/ipv4\etharp.c ****       if (PBUF_NEEDS_COPY(p)) {
 1896              		.loc 1 1063 7 discriminator 4
1063:C:/Users/stapi/OneDrive/Desktop/GD32VW553/V1_MQTT_OK/GD32VW55X_Wifi_BLE_SDK/GD32VW55x_RELEASE_V1.0.2/MSDK/lwip/lwip-2.1.2/src/core/ipv4\etharp.c ****       if (PBUF_NEEDS_COPY(p)) {
 1897              		.loc 1 1063 7 discriminator 4
1063:C:/Users/stapi/OneDrive/Desktop/GD32VW553/V1_MQTT_OK/GD32VW55X_Wifi_BLE_SDK/GD32VW55x_RELEASE_V1.0.2/MSDK/lwip/lwip-2.1.2/src/core/ipv4\etharp.c ****       if (PBUF_NEEDS_COPY(p)) {
 1898              		.loc 1 1063 7 discriminator 4
 1899 0124 01A0     		j	.L148
 1900              	.LVL183:
 1901              	.L147:
1063:C:/Users/stapi/OneDrive/Desktop/GD32VW553/V1_MQTT_OK/GD32VW55X_Wifi_BLE_SDK/GD32VW55x_RELEASE_V1.0.2/MSDK/lwip/lwip-2.1.2/src/core/ipv4\etharp.c ****       if (PBUF_NEEDS_COPY(p)) {
 1902              		.loc 1 1063 7 discriminator 4
1063:C:/Users/stapi/OneDrive/Desktop/GD32VW553/V1_MQTT_OK/GD32VW55X_Wifi_BLE_SDK/GD32VW55x_RELEASE_V1.0.2/MSDK/lwip/lwip-2.1.2/src/core/ipv4\etharp.c ****       if (PBUF_NEEDS_COPY(p)) {
 1903              		.loc 1 1063 7 discriminator 4
1064:C:/Users/stapi/OneDrive/Desktop/GD32VW553/V1_MQTT_OK/GD32VW55X_Wifi_BLE_SDK/GD32VW55x_RELEASE_V1.0.2/MSDK/lwip/lwip-2.1.2/src/core/ipv4\etharp.c ****         copy_needed = 1;
 1904              		.loc 1 1064 7 discriminator 4
1064:C:/Users/stapi/OneDrive/Desktop/GD32VW553/V1_MQTT_OK/GD32VW55X_Wifi_BLE_SDK/GD32VW55x_RELEASE_V1.0.2/MSDK/lwip/lwip-2.1.2/src/core/ipv4\etharp.c ****         copy_needed = 1;
 1905              		.loc 1 1064 10 is_stmt 0 discriminator 4
 1906 0126 03C7C700 		lbu	a4,12(a5)
 1907 012a 13770704 		andi	a4,a4,64
 1908 012e 19EB     		bne	a4,zero,.L149
1068:C:/Users/stapi/OneDrive/Desktop/GD32VW553/V1_MQTT_OK/GD32VW55X_Wifi_BLE_SDK/GD32VW55x_RELEASE_V1.0.2/MSDK/lwip/lwip-2.1.2/src/core/ipv4\etharp.c ****     }
 1909              		.loc 1 1068 7 is_stmt 1
1068:C:/Users/stapi/OneDrive/Desktop/GD32VW553/V1_MQTT_OK/GD32VW55X_Wifi_BLE_SDK/GD32VW55x_RELEASE_V1.0.2/MSDK/lwip/lwip-2.1.2/src/core/ipv4\etharp.c ****     }
 1910              		.loc 1 1068 9 is_stmt 0
 1911 0130 9C43     		lw	a5,0(a5)
 1912              	.LVL184:
1062:C:/Users/stapi/OneDrive/Desktop/GD32VW553/V1_MQTT_OK/GD32VW55X_Wifi_BLE_SDK/GD32VW55x_RELEASE_V1.0.2/MSDK/lwip/lwip-2.1.2/src/core/ipv4\etharp.c ****       LWIP_ASSERT("no packet queues allowed!", (p->len != p->tot_len) || (p->next == 0));
 1913              		.loc 1 1062 11 is_stmt 1
 1914 0132 DDFF     		bne	a5,zero,.L150
 1915              	.LVL185:
1070:C:/Users/stapi/OneDrive/Desktop/GD32VW553/V1_MQTT_OK/GD32VW55X_Wifi_BLE_SDK/GD32VW55x_RELEASE_V1.0.2/MSDK/lwip/lwip-2.1.2/src/core/ipv4\etharp.c ****       /* copy the whole packet into new pbufs */
 1916              		.loc 1 1070 5
1075:C:/Users/stapi/OneDrive/Desktop/GD32VW553/V1_MQTT_OK/GD32VW55X_Wifi_BLE_SDK/GD32VW55x_RELEASE_V1.0.2/MSDK/lwip/lwip-2.1.2/src/core/ipv4\etharp.c ****       pbuf_ref(p);
 1917              		.loc 1 1075 7
1076:C:/Users/stapi/OneDrive/Desktop/GD32VW553/V1_MQTT_OK/GD32VW55X_Wifi_BLE_SDK/GD32VW55x_RELEASE_V1.0.2/MSDK/lwip/lwip-2.1.2/src/core/ipv4\etharp.c ****     }
 1918              		.loc 1 1076 7
 1919 0134 2285     		mv	a0,s0
 1920              	.LVL186:
 1921 0136 97000000 		call	pbuf_ref
 1921      E7800000 
 1922              	.LVL187:
1079:C:/Users/stapi/OneDrive/Desktop/GD32VW553/V1_MQTT_OK/GD32VW55X_Wifi_BLE_SDK/GD32VW55x_RELEASE_V1.0.2/MSDK/lwip/lwip-2.1.2/src/core/ipv4\etharp.c ****       /* queue packet ... */
 1923              		.loc 1 1079 5
 1924 013e 05A0     		j	.L153
 1925              	.LVL188:
 1926              	.L159:
 1927              	.LBE36:
1000:C:/Users/stapi/OneDrive/Desktop/GD32VW553/V1_MQTT_OK/GD32VW55X_Wifi_BLE_SDK/GD32VW55x_RELEASE_V1.0.2/MSDK/lwip/lwip-2.1.2/src/core/ipv4\etharp.c ****   }
 1928              		.loc 1 1000 12 is_stmt 0
 1929 0140 4155     		li	a0,-16
 1930 0142 29B7     		j	.L160
 1931              	.LVL189:
 1932              	.L149:
 1933              	.LBB37:
1070:C:/Users/stapi/OneDrive/Desktop/GD32VW553/V1_MQTT_OK/GD32VW55X_Wifi_BLE_SDK/GD32VW55x_RELEASE_V1.0.2/MSDK/lwip/lwip-2.1.2/src/core/ipv4\etharp.c ****       /* copy the whole packet into new pbufs */
 1934              		.loc 1 1070 5 is_stmt 1
1072:C:/Users/stapi/OneDrive/Desktop/GD32VW553/V1_MQTT_OK/GD32VW55X_Wifi_BLE_SDK/GD32VW55x_RELEASE_V1.0.2/MSDK/lwip/lwip-2.1.2/src/core/ipv4\etharp.c ****     } else {
 1935              		.loc 1 1072 7
1072:C:/Users/stapi/OneDrive/Desktop/GD32VW553/V1_MQTT_OK/GD32VW55X_Wifi_BLE_SDK/GD32VW55x_RELEASE_V1.0.2/MSDK/lwip/lwip-2.1.2/src/core/ipv4\etharp.c ****     } else {
 1936              		.loc 1 1072 11 is_stmt 0
 1937 0144 2286     		mv	a2,s0
 1938 0146 93050028 		li	a1,640
 1939 014a 1305A016 		li	a0,362
 1940              	.LVL190:
 1941 014e 97000000 		call	pbuf_clone
 1941      E7800000 
 1942              	.LVL191:
 1943 0156 2A84     		mv	s0,a0
 1944              	.LVL192:
1079:C:/Users/stapi/OneDrive/Desktop/GD32VW553/V1_MQTT_OK/GD32VW55X_Wifi_BLE_SDK/GD32VW55x_RELEASE_V1.0.2/MSDK/lwip/lwip-2.1.2/src/core/ipv4\etharp.c ****       /* queue packet ... */
 1945              		.loc 1 1079 5 is_stmt 1
1133:C:/Users/stapi/OneDrive/Desktop/GD32VW553/V1_MQTT_OK/GD32VW55X_Wifi_BLE_SDK/GD32VW55x_RELEASE_V1.0.2/MSDK/lwip/lwip-2.1.2/src/core/ipv4\etharp.c ****     }
 1946              		.loc 1 1133 14 is_stmt 0
 1947 0158 7D55     		li	a0,-1
1079:C:/Users/stapi/OneDrive/Desktop/GD32VW553/V1_MQTT_OK/GD32VW55X_Wifi_BLE_SDK/GD32VW55x_RELEASE_V1.0.2/MSDK/lwip/lwip-2.1.2/src/core/ipv4\etharp.c ****       /* queue packet ... */
 1948              		.loc 1 1079 8
 1949 015a E30904EE 		beq	s0,zero,.L160
 1950              	.LVL193:
 1951              	.L153:
1122:C:/Users/stapi/OneDrive/Desktop/GD32VW553/V1_MQTT_OK/GD32VW55X_Wifi_BLE_SDK/GD32VW55x_RELEASE_V1.0.2/MSDK/lwip/lwip-2.1.2/src/core/ipv4\etharp.c ****         LWIP_DEBUGF(ETHARP_DEBUG | LWIP_DBG_TRACE, ("etharp_query: dropped previously queued packet
 1952              		.loc 1 1122 7 is_stmt 1
1122:C:/Users/stapi/OneDrive/Desktop/GD32VW553/V1_MQTT_OK/GD32VW55X_Wifi_BLE_SDK/GD32VW55x_RELEASE_V1.0.2/MSDK/lwip/lwip-2.1.2/src/core/ipv4\etharp.c ****         LWIP_DEBUGF(ETHARP_DEBUG | LWIP_DBG_TRACE, ("etharp_query: dropped previously queued packet
 1953              		.loc 1 1122 23 is_stmt 0
 1954 015e 6147     		li	a4,24
 1955 0160 CA87     		mv	a5,s2
 1956 0162 FF97E4C4 		maddr32	a5, s1, a4
 1957 0166 8843     		lw	a0,0(a5)
1122:C:/Users/stapi/OneDrive/Desktop/GD32VW553/V1_MQTT_OK/GD32VW55X_Wifi_BLE_SDK/GD32VW55x_RELEASE_V1.0.2/MSDK/lwip/lwip-2.1.2/src/core/ipv4\etharp.c ****         LWIP_DEBUGF(ETHARP_DEBUG | LWIP_DBG_TRACE, ("etharp_query: dropped previously queued packet
 1958              		.loc 1 1122 10
 1959 0168 09C5     		beq	a0,zero,.L152
1123:C:/Users/stapi/OneDrive/Desktop/GD32VW553/V1_MQTT_OK/GD32VW55X_Wifi_BLE_SDK/GD32VW55x_RELEASE_V1.0.2/MSDK/lwip/lwip-2.1.2/src/core/ipv4\etharp.c ****         pbuf_free(arp_table[i].q);
 1960              		.loc 1 1123 152 is_stmt 1
1124:C:/Users/stapi/OneDrive/Desktop/GD32VW553/V1_MQTT_OK/GD32VW55X_Wifi_BLE_SDK/GD32VW55x_RELEASE_V1.0.2/MSDK/lwip/lwip-2.1.2/src/core/ipv4\etharp.c ****       }
 1961              		.loc 1 1124 9
 1962 016a 97000000 		call	pbuf_free
 1962      E7800000 
 1963              	.LVL194:
 1964              	.L152:
1126:C:/Users/stapi/OneDrive/Desktop/GD32VW553/V1_MQTT_OK/GD32VW55X_Wifi_BLE_SDK/GD32VW55x_RELEASE_V1.0.2/MSDK/lwip/lwip-2.1.2/src/core/ipv4\etharp.c ****       result = ERR_OK;
 1965              		.loc 1 1126 7
1126:C:/Users/stapi/OneDrive/Desktop/GD32VW553/V1_MQTT_OK/GD32VW55X_Wifi_BLE_SDK/GD32VW55x_RELEASE_V1.0.2/MSDK/lwip/lwip-2.1.2/src/core/ipv4\etharp.c ****       result = ERR_OK;
 1966              		.loc 1 1126 22 is_stmt 0
 1967 0172 E147     		li	a5,24
 1968 0174 7F99F4C4 		maddr32	s2, s1, a5
1127:C:/Users/stapi/OneDrive/Desktop/GD32VW553/V1_MQTT_OK/GD32VW55X_Wifi_BLE_SDK/GD32VW55x_RELEASE_V1.0.2/MSDK/lwip/lwip-2.1.2/src/core/ipv4\etharp.c ****       LWIP_DEBUGF(ETHARP_DEBUG | LWIP_DBG_TRACE, ("etharp_query: queued packet %p on ARP entry %"U1
 1969              		.loc 1 1127 14
 1970 0178 0145     		li	a0,0
1126:C:/Users/stapi/OneDrive/Desktop/GD32VW553/V1_MQTT_OK/GD32VW55X_Wifi_BLE_SDK/GD32VW55x_RELEASE_V1.0.2/MSDK/lwip/lwip-2.1.2/src/core/ipv4\etharp.c ****       result = ERR_OK;
 1971              		.loc 1 1126 22
 1972 017a 23208900 		sw	s0,0(s2)
1127:C:/Users/stapi/OneDrive/Desktop/GD32VW553/V1_MQTT_OK/GD32VW55X_Wifi_BLE_SDK/GD32VW55x_RELEASE_V1.0.2/MSDK/lwip/lwip-2.1.2/src/core/ipv4\etharp.c ****       LWIP_DEBUGF(ETHARP_DEBUG | LWIP_DBG_TRACE, ("etharp_query: queued packet %p on ARP entry %"U1
 1973              		.loc 1 1127 7 is_stmt 1
 1974              	.LVL195:
1128:C:/Users/stapi/OneDrive/Desktop/GD32VW553/V1_MQTT_OK/GD32VW55X_Wifi_BLE_SDK/GD32VW55x_RELEASE_V1.0.2/MSDK/lwip/lwip-2.1.2/src/core/ipv4\etharp.c **** #endif /* ARP_QUEUEING */
 1975              		.loc 1 1128 130
 1976 017e F9B5     		j	.L160
 1977              	.LVL196:
 1978              	.L145:
 1979              	.LBE37:
1027:C:/Users/stapi/OneDrive/Desktop/GD32VW553/V1_MQTT_OK/GD32VW55X_Wifi_BLE_SDK/GD32VW55x_RELEASE_V1.0.2/MSDK/lwip/lwip-2.1.2/src/core/ipv4\etharp.c ****               ((arp_table[i].state == ETHARP_STATE_PENDING) ||
 1980              		.loc 1 1027 3
1027:C:/Users/stapi/OneDrive/Desktop/GD32VW553/V1_MQTT_OK/GD32VW55X_Wifi_BLE_SDK/GD32VW55x_RELEASE_V1.0.2/MSDK/lwip/lwip-2.1.2/src/core/ipv4\etharp.c ****               ((arp_table[i].state == ETHARP_STATE_PENDING) ||
 1981              		.loc 1 1027 3
 990:C:/Users/stapi/OneDrive/Desktop/GD32VW553/V1_MQTT_OK/GD32VW55X_Wifi_BLE_SDK/GD32VW55x_RELEASE_V1.0.2/MSDK/lwip/lwip-2.1.2/src/core/ipv4\etharp.c ****   int is_new_entry = 0;
 1982              		.loc 1 990 9 is_stmt 0
 1983 0180 7D55     		li	a0,-1
 1984              	.LVL197:
1032:C:/Users/stapi/OneDrive/Desktop/GD32VW553/V1_MQTT_OK/GD32VW55X_Wifi_BLE_SDK/GD32VW55x_RELEASE_V1.0.2/MSDK/lwip/lwip-2.1.2/src/core/ipv4\etharp.c ****     /* try to resolve it; send out ARP request */
 1985              		.loc 1 1032 20
 1986 0182 05F8     		bne	s0,zero,.L146
 1987 0184 05B7     		j	.L156
 1988              		.cfi_endproc
 1989              	.LFE15:
 1991              		.section	.rodata.etharp_output.str1.4,"aMS",@progbits,1
 1992              		.align	2
 1993              	.LC16:
 1994 0000 7120213D 		.string	"q != NULL"
 1994      204E554C 
 1994      4C00
 1995              		.section	.text.etharp_output,"ax",@progbits
 1996              		.align	1
 1997              		.globl	etharp_output
 1999              	etharp_output:
 2000              	.LFB14:
 836:C:/Users/stapi/OneDrive/Desktop/GD32VW553/V1_MQTT_OK/GD32VW55X_Wifi_BLE_SDK/GD32VW55x_RELEASE_V1.0.2/MSDK/lwip/lwip-2.1.2/src/core/ipv4\etharp.c ****   const struct eth_addr *dest;
 2001              		.loc 1 836 1 is_stmt 1
 2002              		.cfi_startproc
 2003              	.LVL198:
 2004 0000 17030000 		call	t0,__riscv_save_3
 2004      E7020300 
 2005              		.cfi_offset 18, -16
 2006              		.cfi_offset 9, -12
 2007              		.cfi_offset 8, -8
 2008              		.cfi_offset 1, -4
 2009              		.cfi_def_cfa_offset 16
 837:C:/Users/stapi/OneDrive/Desktop/GD32VW553/V1_MQTT_OK/GD32VW55X_Wifi_BLE_SDK/GD32VW55x_RELEASE_V1.0.2/MSDK/lwip/lwip-2.1.2/src/core/ipv4\etharp.c ****   struct eth_addr mcastaddr;
 2010              		.loc 1 837 3
 838:C:/Users/stapi/OneDrive/Desktop/GD32VW553/V1_MQTT_OK/GD32VW55X_Wifi_BLE_SDK/GD32VW55x_RELEASE_V1.0.2/MSDK/lwip/lwip-2.1.2/src/core/ipv4\etharp.c ****   const ip4_addr_t *dst_addr = ipaddr;
 2011              		.loc 1 838 3
 839:C:/Users/stapi/OneDrive/Desktop/GD32VW553/V1_MQTT_OK/GD32VW55X_Wifi_BLE_SDK/GD32VW55x_RELEASE_V1.0.2/MSDK/lwip/lwip-2.1.2/src/core/ipv4\etharp.c **** 
 2012              		.loc 1 839 3
 2013              	.LVL199:
 841:C:/Users/stapi/OneDrive/Desktop/GD32VW553/V1_MQTT_OK/GD32VW55X_Wifi_BLE_SDK/GD32VW55x_RELEASE_V1.0.2/MSDK/lwip/lwip-2.1.2/src/core/ipv4\etharp.c ****   LWIP_ASSERT("netif != NULL", netif != NULL);
 2014              		.loc 1 841 28
 842:C:/Users/stapi/OneDrive/Desktop/GD32VW553/V1_MQTT_OK/GD32VW55X_Wifi_BLE_SDK/GD32VW55x_RELEASE_V1.0.2/MSDK/lwip/lwip-2.1.2/src/core/ipv4\etharp.c ****   LWIP_ASSERT("q != NULL", q != NULL);
 2015              		.loc 1 842 3
 842:C:/Users/stapi/OneDrive/Desktop/GD32VW553/V1_MQTT_OK/GD32VW55X_Wifi_BLE_SDK/GD32VW55x_RELEASE_V1.0.2/MSDK/lwip/lwip-2.1.2/src/core/ipv4\etharp.c ****   LWIP_ASSERT("q != NULL", q != NULL);
 2016              		.loc 1 842 3
 836:C:/Users/stapi/OneDrive/Desktop/GD32VW553/V1_MQTT_OK/GD32VW55X_Wifi_BLE_SDK/GD32VW55x_RELEASE_V1.0.2/MSDK/lwip/lwip-2.1.2/src/core/ipv4\etharp.c ****   const struct eth_addr *dest;
 2017              		.loc 1 836 1 is_stmt 0
 2018 0008 4111     		addi	sp,sp,-16
 2019              		.cfi_def_cfa_offset 32
 842:C:/Users/stapi/OneDrive/Desktop/GD32VW553/V1_MQTT_OK/GD32VW55X_Wifi_BLE_SDK/GD32VW55x_RELEASE_V1.0.2/MSDK/lwip/lwip-2.1.2/src/core/ipv4\etharp.c ****   LWIP_ASSERT("q != NULL", q != NULL);
 2020              		.loc 1 842 3
 2021 000a 05E5     		bne	a0,zero,.L178
 842:C:/Users/stapi/OneDrive/Desktop/GD32VW553/V1_MQTT_OK/GD32VW55X_Wifi_BLE_SDK/GD32VW55x_RELEASE_V1.0.2/MSDK/lwip/lwip-2.1.2/src/core/ipv4\etharp.c ****   LWIP_ASSERT("q != NULL", q != NULL);
 2022              		.loc 1 842 3 is_stmt 1 discriminator 1
 842:C:/Users/stapi/OneDrive/Desktop/GD32VW553/V1_MQTT_OK/GD32VW55X_Wifi_BLE_SDK/GD32VW55x_RELEASE_V1.0.2/MSDK/lwip/lwip-2.1.2/src/core/ipv4\etharp.c ****   LWIP_ASSERT("q != NULL", q != NULL);
 2023              		.loc 1 842 3 discriminator 1
 2024 000c B7060000 		lui	a3,%hi(.LC0)
 2025 0010 B7050000 		lui	a1,%hi(.LC4)
 2026              	.LVL200:
 2027 0014 37050000 		lui	a0,%hi(.LC2)
 2028              	.LVL201:
 2029 0018 93860600 		addi	a3,a3,%lo(.LC0)
 2030 001c 1306A034 		li	a2,842
 2031              	.LVL202:
 2032 0020 93850500 		addi	a1,a1,%lo(.LC4)
 2033 0024 13050500 		addi	a0,a0,%lo(.LC2)
 2034 0028 97000000 		call	printf
 2034      E7800000 
 2035              	.LVL203:
 2036              	.L179:
 842:C:/Users/stapi/OneDrive/Desktop/GD32VW553/V1_MQTT_OK/GD32VW55X_Wifi_BLE_SDK/GD32VW55x_RELEASE_V1.0.2/MSDK/lwip/lwip-2.1.2/src/core/ipv4\etharp.c ****   LWIP_ASSERT("q != NULL", q != NULL);
 2037              		.loc 1 842 3 discriminator 1
 842:C:/Users/stapi/OneDrive/Desktop/GD32VW553/V1_MQTT_OK/GD32VW55X_Wifi_BLE_SDK/GD32VW55x_RELEASE_V1.0.2/MSDK/lwip/lwip-2.1.2/src/core/ipv4\etharp.c ****   LWIP_ASSERT("q != NULL", q != NULL);
 2038              		.loc 1 842 3 discriminator 1
 842:C:/Users/stapi/OneDrive/Desktop/GD32VW553/V1_MQTT_OK/GD32VW55X_Wifi_BLE_SDK/GD32VW55x_RELEASE_V1.0.2/MSDK/lwip/lwip-2.1.2/src/core/ipv4\etharp.c ****   LWIP_ASSERT("q != NULL", q != NULL);
 2039              		.loc 1 842 3 discriminator 1
 2040 0030 01A0     		j	.L179
 2041              	.LVL204:
 2042              	.L178:
 2043 0032 2E89     		mv	s2,a1
 842:C:/Users/stapi/OneDrive/Desktop/GD32VW553/V1_MQTT_OK/GD32VW55X_Wifi_BLE_SDK/GD32VW55x_RELEASE_V1.0.2/MSDK/lwip/lwip-2.1.2/src/core/ipv4\etharp.c ****   LWIP_ASSERT("q != NULL", q != NULL);
 2044              		.loc 1 842 3 discriminator 2
 842:C:/Users/stapi/OneDrive/Desktop/GD32VW553/V1_MQTT_OK/GD32VW55X_Wifi_BLE_SDK/GD32VW55x_RELEASE_V1.0.2/MSDK/lwip/lwip-2.1.2/src/core/ipv4\etharp.c ****   LWIP_ASSERT("q != NULL", q != NULL);
 2045              		.loc 1 842 3 discriminator 2
 843:C:/Users/stapi/OneDrive/Desktop/GD32VW553/V1_MQTT_OK/GD32VW55X_Wifi_BLE_SDK/GD32VW55x_RELEASE_V1.0.2/MSDK/lwip/lwip-2.1.2/src/core/ipv4\etharp.c ****   LWIP_ASSERT("ipaddr != NULL", ipaddr != NULL);
 2046              		.loc 1 843 3 discriminator 2
 843:C:/Users/stapi/OneDrive/Desktop/GD32VW553/V1_MQTT_OK/GD32VW55X_Wifi_BLE_SDK/GD32VW55x_RELEASE_V1.0.2/MSDK/lwip/lwip-2.1.2/src/core/ipv4\etharp.c ****   LWIP_ASSERT("ipaddr != NULL", ipaddr != NULL);
 2047              		.loc 1 843 3 discriminator 2
 2048 0034 85E5     		bne	a1,zero,.L180
 843:C:/Users/stapi/OneDrive/Desktop/GD32VW553/V1_MQTT_OK/GD32VW55X_Wifi_BLE_SDK/GD32VW55x_RELEASE_V1.0.2/MSDK/lwip/lwip-2.1.2/src/core/ipv4\etharp.c ****   LWIP_ASSERT("ipaddr != NULL", ipaddr != NULL);
 2049              		.loc 1 843 3 discriminator 1
 843:C:/Users/stapi/OneDrive/Desktop/GD32VW553/V1_MQTT_OK/GD32VW55X_Wifi_BLE_SDK/GD32VW55x_RELEASE_V1.0.2/MSDK/lwip/lwip-2.1.2/src/core/ipv4\etharp.c ****   LWIP_ASSERT("ipaddr != NULL", ipaddr != NULL);
 2050              		.loc 1 843 3 discriminator 1
 2051 0036 B7060000 		lui	a3,%hi(.LC0)
 2052 003a B7050000 		lui	a1,%hi(.LC16)
 2053              	.LVL205:
 2054 003e 37050000 		lui	a0,%hi(.LC2)
 2055              	.LVL206:
 2056 0042 93860600 		addi	a3,a3,%lo(.LC0)
 2057 0046 1306B034 		li	a2,843
 2058              	.LVL207:
 2059 004a 93850500 		addi	a1,a1,%lo(.LC16)
 2060 004e 13050500 		addi	a0,a0,%lo(.LC2)
 2061 0052 97000000 		call	printf
 2061      E7800000 
 2062              	.LVL208:
 2063              	.L181:
 843:C:/Users/stapi/OneDrive/Desktop/GD32VW553/V1_MQTT_OK/GD32VW55X_Wifi_BLE_SDK/GD32VW55x_RELEASE_V1.0.2/MSDK/lwip/lwip-2.1.2/src/core/ipv4\etharp.c ****   LWIP_ASSERT("ipaddr != NULL", ipaddr != NULL);
 2064              		.loc 1 843 3 discriminator 2
 843:C:/Users/stapi/OneDrive/Desktop/GD32VW553/V1_MQTT_OK/GD32VW55X_Wifi_BLE_SDK/GD32VW55x_RELEASE_V1.0.2/MSDK/lwip/lwip-2.1.2/src/core/ipv4\etharp.c ****   LWIP_ASSERT("ipaddr != NULL", ipaddr != NULL);
 2065              		.loc 1 843 3 discriminator 2
 843:C:/Users/stapi/OneDrive/Desktop/GD32VW553/V1_MQTT_OK/GD32VW55X_Wifi_BLE_SDK/GD32VW55x_RELEASE_V1.0.2/MSDK/lwip/lwip-2.1.2/src/core/ipv4\etharp.c ****   LWIP_ASSERT("ipaddr != NULL", ipaddr != NULL);
 2066              		.loc 1 843 3 discriminator 2
 2067 005a 01A0     		j	.L181
 2068              	.LVL209:
 2069              	.L180:
 2070 005c B284     		mv	s1,a2
 843:C:/Users/stapi/OneDrive/Desktop/GD32VW553/V1_MQTT_OK/GD32VW55X_Wifi_BLE_SDK/GD32VW55x_RELEASE_V1.0.2/MSDK/lwip/lwip-2.1.2/src/core/ipv4\etharp.c ****   LWIP_ASSERT("ipaddr != NULL", ipaddr != NULL);
 2071              		.loc 1 843 3 discriminator 2
 843:C:/Users/stapi/OneDrive/Desktop/GD32VW553/V1_MQTT_OK/GD32VW55X_Wifi_BLE_SDK/GD32VW55x_RELEASE_V1.0.2/MSDK/lwip/lwip-2.1.2/src/core/ipv4\etharp.c ****   LWIP_ASSERT("ipaddr != NULL", ipaddr != NULL);
 2072              		.loc 1 843 3 discriminator 2
 844:C:/Users/stapi/OneDrive/Desktop/GD32VW553/V1_MQTT_OK/GD32VW55X_Wifi_BLE_SDK/GD32VW55x_RELEASE_V1.0.2/MSDK/lwip/lwip-2.1.2/src/core/ipv4\etharp.c **** 
 2073              		.loc 1 844 3 discriminator 2
 844:C:/Users/stapi/OneDrive/Desktop/GD32VW553/V1_MQTT_OK/GD32VW55X_Wifi_BLE_SDK/GD32VW55x_RELEASE_V1.0.2/MSDK/lwip/lwip-2.1.2/src/core/ipv4\etharp.c **** 
 2074              		.loc 1 844 3 discriminator 2
 2075 005e 05E6     		bne	a2,zero,.L182
 2076              	.LVL210:
 844:C:/Users/stapi/OneDrive/Desktop/GD32VW553/V1_MQTT_OK/GD32VW55X_Wifi_BLE_SDK/GD32VW55x_RELEASE_V1.0.2/MSDK/lwip/lwip-2.1.2/src/core/ipv4\etharp.c **** 
 2077              		.loc 1 844 3 discriminator 1
 844:C:/Users/stapi/OneDrive/Desktop/GD32VW553/V1_MQTT_OK/GD32VW55X_Wifi_BLE_SDK/GD32VW55x_RELEASE_V1.0.2/MSDK/lwip/lwip-2.1.2/src/core/ipv4\etharp.c **** 
 2078              		.loc 1 844 3 discriminator 1
 2079 0060 B7060000 		lui	a3,%hi(.LC0)
 2080 0064 B7050000 		lui	a1,%hi(.LC10)
 2081              	.LVL211:
 2082 0068 37050000 		lui	a0,%hi(.LC2)
 2083              	.LVL212:
 2084 006c 93860600 		addi	a3,a3,%lo(.LC0)
 2085 0070 1306C034 		li	a2,844
 2086 0074 93850500 		addi	a1,a1,%lo(.LC10)
 2087 0078 13050500 		addi	a0,a0,%lo(.LC2)
 2088 007c 97000000 		call	printf
 2088      E7800000 
 2089              	.LVL213:
 2090              	.L183:
 844:C:/Users/stapi/OneDrive/Desktop/GD32VW553/V1_MQTT_OK/GD32VW55X_Wifi_BLE_SDK/GD32VW55x_RELEASE_V1.0.2/MSDK/lwip/lwip-2.1.2/src/core/ipv4\etharp.c **** 
 2091              		.loc 1 844 3 discriminator 3
 844:C:/Users/stapi/OneDrive/Desktop/GD32VW553/V1_MQTT_OK/GD32VW55X_Wifi_BLE_SDK/GD32VW55x_RELEASE_V1.0.2/MSDK/lwip/lwip-2.1.2/src/core/ipv4\etharp.c **** 
 2092              		.loc 1 844 3 discriminator 3
 844:C:/Users/stapi/OneDrive/Desktop/GD32VW553/V1_MQTT_OK/GD32VW55X_Wifi_BLE_SDK/GD32VW55x_RELEASE_V1.0.2/MSDK/lwip/lwip-2.1.2/src/core/ipv4\etharp.c **** 
 2093              		.loc 1 844 3 discriminator 3
 2094 0084 01A0     		j	.L183
 2095              	.LVL214:
 2096              	.L182:
 850:C:/Users/stapi/OneDrive/Desktop/GD32VW553/V1_MQTT_OK/GD32VW55X_Wifi_BLE_SDK/GD32VW55x_RELEASE_V1.0.2/MSDK/lwip/lwip-2.1.2/src/core/ipv4\etharp.c ****     /* broadcast on Ethernet also */
 2097              		.loc 1 850 7 is_stmt 0 discriminator 2
 2098 0086 AA85     		mv	a1,a0
 2099              	.LVL215:
 2100 0088 2A84     		mv	s0,a0
 844:C:/Users/stapi/OneDrive/Desktop/GD32VW553/V1_MQTT_OK/GD32VW55X_Wifi_BLE_SDK/GD32VW55x_RELEASE_V1.0.2/MSDK/lwip/lwip-2.1.2/src/core/ipv4\etharp.c **** 
 2101              		.loc 1 844 3 is_stmt 1 discriminator 2
 844:C:/Users/stapi/OneDrive/Desktop/GD32VW553/V1_MQTT_OK/GD32VW55X_Wifi_BLE_SDK/GD32VW55x_RELEASE_V1.0.2/MSDK/lwip/lwip-2.1.2/src/core/ipv4\etharp.c **** 
 2102              		.loc 1 844 3 discriminator 2
 850:C:/Users/stapi/OneDrive/Desktop/GD32VW553/V1_MQTT_OK/GD32VW55X_Wifi_BLE_SDK/GD32VW55x_RELEASE_V1.0.2/MSDK/lwip/lwip-2.1.2/src/core/ipv4\etharp.c ****     /* broadcast on Ethernet also */
 2103              		.loc 1 850 3 discriminator 2
 850:C:/Users/stapi/OneDrive/Desktop/GD32VW553/V1_MQTT_OK/GD32VW55X_Wifi_BLE_SDK/GD32VW55x_RELEASE_V1.0.2/MSDK/lwip/lwip-2.1.2/src/core/ipv4\etharp.c ****     /* broadcast on Ethernet also */
 2104              		.loc 1 850 7 is_stmt 0 discriminator 2
 2105 008a 0842     		lw	a0,0(a2)
 2106              	.LVL216:
 2107 008c 97000000 		call	ip4_addr_isbroadcast_u32
 2107      E7800000 
 2108              	.LVL217:
 2109 0094 2A86     		mv	a2,a0
 850:C:/Users/stapi/OneDrive/Desktop/GD32VW553/V1_MQTT_OK/GD32VW55X_Wifi_BLE_SDK/GD32VW55x_RELEASE_V1.0.2/MSDK/lwip/lwip-2.1.2/src/core/ipv4\etharp.c ****     /* broadcast on Ethernet also */
 2110              		.loc 1 850 6 discriminator 2
 2111 0096 63190510 		bne	a0,zero,.L192
 854:C:/Users/stapi/OneDrive/Desktop/GD32VW553/V1_MQTT_OK/GD32VW55X_Wifi_BLE_SDK/GD32VW55x_RELEASE_V1.0.2/MSDK/lwip/lwip-2.1.2/src/core/ipv4\etharp.c ****     /* Hash IP multicast address to MAC address.*/
 2112              		.loc 1 854 10 is_stmt 1
 854:C:/Users/stapi/OneDrive/Desktop/GD32VW553/V1_MQTT_OK/GD32VW55X_Wifi_BLE_SDK/GD32VW55x_RELEASE_V1.0.2/MSDK/lwip/lwip-2.1.2/src/core/ipv4\etharp.c ****     /* Hash IP multicast address to MAC address.*/
 2113              		.loc 1 854 14 is_stmt 0
 2114 009a 9C40     		lw	a5,0(s1)
 854:C:/Users/stapi/OneDrive/Desktop/GD32VW553/V1_MQTT_OK/GD32VW55X_Wifi_BLE_SDK/GD32VW55x_RELEASE_V1.0.2/MSDK/lwip/lwip-2.1.2/src/core/ipv4\etharp.c ****     /* Hash IP multicast address to MAC address.*/
 2115              		.loc 1 854 13
 2116 009c 1307000E 		li	a4,224
 854:C:/Users/stapi/OneDrive/Desktop/GD32VW553/V1_MQTT_OK/GD32VW55X_Wifi_BLE_SDK/GD32VW55x_RELEASE_V1.0.2/MSDK/lwip/lwip-2.1.2/src/core/ipv4\etharp.c ****     /* Hash IP multicast address to MAC address.*/
 2117              		.loc 1 854 14
 2118 00a0 93F6070F 		andi	a3,a5,240
 854:C:/Users/stapi/OneDrive/Desktop/GD32VW553/V1_MQTT_OK/GD32VW55X_Wifi_BLE_SDK/GD32VW55x_RELEASE_V1.0.2/MSDK/lwip/lwip-2.1.2/src/core/ipv4\etharp.c ****     /* Hash IP multicast address to MAC address.*/
 2119              		.loc 1 854 13
 2120 00a4 6394E604 		bne	a3,a4,.L185
 856:C:/Users/stapi/OneDrive/Desktop/GD32VW553/V1_MQTT_OK/GD32VW55X_Wifi_BLE_SDK/GD32VW55x_RELEASE_V1.0.2/MSDK/lwip/lwip-2.1.2/src/core/ipv4\etharp.c ****     mcastaddr.addr[1] = LL_IP4_MULTICAST_ADDR_1;
 2121              		.loc 1 856 5 is_stmt 1
 857:C:/Users/stapi/OneDrive/Desktop/GD32VW553/V1_MQTT_OK/GD32VW55X_Wifi_BLE_SDK/GD32VW55x_RELEASE_V1.0.2/MSDK/lwip/lwip-2.1.2/src/core/ipv4\etharp.c ****     mcastaddr.addr[2] = LL_IP4_MULTICAST_ADDR_2;
 2122              		.loc 1 857 5
 858:C:/Users/stapi/OneDrive/Desktop/GD32VW553/V1_MQTT_OK/GD32VW55X_Wifi_BLE_SDK/GD32VW55x_RELEASE_V1.0.2/MSDK/lwip/lwip-2.1.2/src/core/ipv4\etharp.c ****     mcastaddr.addr[3] = ip4_addr2(ipaddr) & 0x7f;
 2123              		.loc 1 858 5
 856:C:/Users/stapi/OneDrive/Desktop/GD32VW553/V1_MQTT_OK/GD32VW55X_Wifi_BLE_SDK/GD32VW55x_RELEASE_V1.0.2/MSDK/lwip/lwip-2.1.2/src/core/ipv4\etharp.c ****     mcastaddr.addr[1] = LL_IP4_MULTICAST_ADDR_1;
 2124              		.loc 1 856 23 is_stmt 0
 2125 00a8 8547     		li	a5,1
 2126 00aa 2314F100 		sh	a5,8(sp)
 858:C:/Users/stapi/OneDrive/Desktop/GD32VW553/V1_MQTT_OK/GD32VW55X_Wifi_BLE_SDK/GD32VW55x_RELEASE_V1.0.2/MSDK/lwip/lwip-2.1.2/src/core/ipv4\etharp.c ****     mcastaddr.addr[3] = ip4_addr2(ipaddr) & 0x7f;
 2127              		.loc 1 858 23
 2128 00ae 9307E005 		li	a5,94
 2129 00b2 2305F100 		sb	a5,10(sp)
 859:C:/Users/stapi/OneDrive/Desktop/GD32VW553/V1_MQTT_OK/GD32VW55X_Wifi_BLE_SDK/GD32VW55x_RELEASE_V1.0.2/MSDK/lwip/lwip-2.1.2/src/core/ipv4\etharp.c ****     mcastaddr.addr[4] = ip4_addr3(ipaddr);
 2130              		.loc 1 859 5 is_stmt 1
 859:C:/Users/stapi/OneDrive/Desktop/GD32VW553/V1_MQTT_OK/GD32VW55X_Wifi_BLE_SDK/GD32VW55x_RELEASE_V1.0.2/MSDK/lwip/lwip-2.1.2/src/core/ipv4\etharp.c ****     mcastaddr.addr[4] = ip4_addr3(ipaddr);
 2131              		.loc 1 859 43 is_stmt 0
 2132 00b6 83C71400 		lbu	a5,1(s1)
 863:C:/Users/stapi/OneDrive/Desktop/GD32VW553/V1_MQTT_OK/GD32VW55X_Wifi_BLE_SDK/GD32VW55x_RELEASE_V1.0.2/MSDK/lwip/lwip-2.1.2/src/core/ipv4\etharp.c ****     /* unicast destination IP address? */
 2133              		.loc 1 863 10
 2134 00ba 3400     		addi	a3,sp,8
 859:C:/Users/stapi/OneDrive/Desktop/GD32VW553/V1_MQTT_OK/GD32VW55X_Wifi_BLE_SDK/GD32VW55x_RELEASE_V1.0.2/MSDK/lwip/lwip-2.1.2/src/core/ipv4\etharp.c ****     mcastaddr.addr[4] = ip4_addr3(ipaddr);
 2135              		.loc 1 859 43
 2136 00bc 93F7F707 		andi	a5,a5,127
 859:C:/Users/stapi/OneDrive/Desktop/GD32VW553/V1_MQTT_OK/GD32VW55X_Wifi_BLE_SDK/GD32VW55x_RELEASE_V1.0.2/MSDK/lwip/lwip-2.1.2/src/core/ipv4\etharp.c ****     mcastaddr.addr[4] = ip4_addr3(ipaddr);
 2137              		.loc 1 859 23
 2138 00c0 A305F100 		sb	a5,11(sp)
 860:C:/Users/stapi/OneDrive/Desktop/GD32VW553/V1_MQTT_OK/GD32VW55X_Wifi_BLE_SDK/GD32VW55x_RELEASE_V1.0.2/MSDK/lwip/lwip-2.1.2/src/core/ipv4\etharp.c ****     mcastaddr.addr[5] = ip4_addr4(ipaddr);
 2139              		.loc 1 860 5 is_stmt 1
 860:C:/Users/stapi/OneDrive/Desktop/GD32VW553/V1_MQTT_OK/GD32VW55X_Wifi_BLE_SDK/GD32VW55x_RELEASE_V1.0.2/MSDK/lwip/lwip-2.1.2/src/core/ipv4\etharp.c ****     mcastaddr.addr[5] = ip4_addr4(ipaddr);
 2140              		.loc 1 860 23 is_stmt 0
 2141 00c4 83C72400 		lbu	a5,2(s1)
 2142 00c8 2306F100 		sb	a5,12(sp)
 861:C:/Users/stapi/OneDrive/Desktop/GD32VW553/V1_MQTT_OK/GD32VW55X_Wifi_BLE_SDK/GD32VW55x_RELEASE_V1.0.2/MSDK/lwip/lwip-2.1.2/src/core/ipv4\etharp.c ****     /* destination Ethernet address is multicast */
 2143              		.loc 1 861 5 is_stmt 1
 861:C:/Users/stapi/OneDrive/Desktop/GD32VW553/V1_MQTT_OK/GD32VW55X_Wifi_BLE_SDK/GD32VW55x_RELEASE_V1.0.2/MSDK/lwip/lwip-2.1.2/src/core/ipv4\etharp.c ****     /* destination Ethernet address is multicast */
 2144              		.loc 1 861 23 is_stmt 0
 2145 00cc 83C73400 		lbu	a5,3(s1)
 2146 00d0 A306F100 		sb	a5,13(sp)
 863:C:/Users/stapi/OneDrive/Desktop/GD32VW553/V1_MQTT_OK/GD32VW55X_Wifi_BLE_SDK/GD32VW55x_RELEASE_V1.0.2/MSDK/lwip/lwip-2.1.2/src/core/ipv4\etharp.c ****     /* unicast destination IP address? */
 2147              		.loc 1 863 5 is_stmt 1
 2148              	.LVL218:
 2149              	.L184:
 950:C:/Users/stapi/OneDrive/Desktop/GD32VW553/V1_MQTT_OK/GD32VW55X_Wifi_BLE_SDK/GD32VW55x_RELEASE_V1.0.2/MSDK/lwip/lwip-2.1.2/src/core/ipv4\etharp.c **** }
 2150              		.loc 1 950 3
 950:C:/Users/stapi/OneDrive/Desktop/GD32VW553/V1_MQTT_OK/GD32VW55X_Wifi_BLE_SDK/GD32VW55x_RELEASE_V1.0.2/MSDK/lwip/lwip-2.1.2/src/core/ipv4\etharp.c **** }
 2151              		.loc 1 950 10 is_stmt 0
 2152 00d4 0567     		li	a4,4096
 2153 00d6 13070780 		addi	a4,a4,-2048
 2154 00da 1306A402 		addi	a2,s0,42
 2155 00de CA85     		mv	a1,s2
 2156 00e0 2285     		mv	a0,s0
 2157 00e2 97000000 		call	ethernet_output
 2157      E7800000 
 2158              	.LVL219:
 2159 00ea A5A0     		j	.L187
 2160              	.LVL220:
 2161              	.L185:
 2162              	.LBB38:
 866:C:/Users/stapi/OneDrive/Desktop/GD32VW553/V1_MQTT_OK/GD32VW55X_Wifi_BLE_SDK/GD32VW55x_RELEASE_V1.0.2/MSDK/lwip/lwip-2.1.2/src/core/ipv4\etharp.c ****     /* outside local network? if so, this can neither be a global broadcast nor
 2163              		.loc 1 866 5 is_stmt 1
 869:C:/Users/stapi/OneDrive/Desktop/GD32VW553/V1_MQTT_OK/GD32VW55X_Wifi_BLE_SDK/GD32VW55x_RELEASE_V1.0.2/MSDK/lwip/lwip-2.1.2/src/core/ipv4\etharp.c ****         !ip4_addr_islinklocal(ipaddr)) {
 2164              		.loc 1 869 5
 869:C:/Users/stapi/OneDrive/Desktop/GD32VW553/V1_MQTT_OK/GD32VW55X_Wifi_BLE_SDK/GD32VW55x_RELEASE_V1.0.2/MSDK/lwip/lwip-2.1.2/src/core/ipv4\etharp.c ****         !ip4_addr_islinklocal(ipaddr)) {
 2165              		.loc 1 869 9 is_stmt 0
 2166 00ec 5840     		lw	a4,4(s0)
 2167 00ee 1444     		lw	a3,8(s0)
 2168 00f0 3D8F     		xor	a4,a5,a4
 2169 00f2 758F     		and	a4,a4,a3
 869:C:/Users/stapi/OneDrive/Desktop/GD32VW553/V1_MQTT_OK/GD32VW55X_Wifi_BLE_SDK/GD32VW55x_RELEASE_V1.0.2/MSDK/lwip/lwip-2.1.2/src/core/ipv4\etharp.c ****         !ip4_addr_islinklocal(ipaddr)) {
 2170              		.loc 1 869 8
 2171 00f4 09CF     		beq	a4,zero,.L186
 869:C:/Users/stapi/OneDrive/Desktop/GD32VW553/V1_MQTT_OK/GD32VW55X_Wifi_BLE_SDK/GD32VW55x_RELEASE_V1.0.2/MSDK/lwip/lwip-2.1.2/src/core/ipv4\etharp.c ****         !ip4_addr_islinklocal(ipaddr)) {
 2172              		.loc 1 869 83 discriminator 1
 2173 00f6 4167     		li	a4,65536
 2174 00f8 130797EA 		addi	a4,a4,-343
 870:C:/Users/stapi/OneDrive/Desktop/GD32VW553/V1_MQTT_OK/GD32VW55X_Wifi_BLE_SDK/GD32VW55x_RELEASE_V1.0.2/MSDK/lwip/lwip-2.1.2/src/core/ipv4\etharp.c **** #if LWIP_AUTOIP
 2175              		.loc 1 870 10 discriminator 1
 2176 00fc B3C70708 		zext.h	a5,a5
 869:C:/Users/stapi/OneDrive/Desktop/GD32VW553/V1_MQTT_OK/GD32VW55X_Wifi_BLE_SDK/GD32VW55x_RELEASE_V1.0.2/MSDK/lwip/lwip-2.1.2/src/core/ipv4\etharp.c ****         !ip4_addr_islinklocal(ipaddr)) {
 2177              		.loc 1 869 83 discriminator 1
 2178 0100 6387E700 		beq	a5,a4,.L186
 888:C:/Users/stapi/OneDrive/Desktop/GD32VW553/V1_MQTT_OK/GD32VW55X_Wifi_BLE_SDK/GD32VW55x_RELEASE_V1.0.2/MSDK/lwip/lwip-2.1.2/src/core/ipv4\etharp.c ****             /* send to hardware address of default gateway IP address */
 2179              		.loc 1 888 11 is_stmt 1
 888:C:/Users/stapi/OneDrive/Desktop/GD32VW553/V1_MQTT_OK/GD32VW55X_Wifi_BLE_SDK/GD32VW55x_RELEASE_V1.0.2/MSDK/lwip/lwip-2.1.2/src/core/ipv4\etharp.c ****             /* send to hardware address of default gateway IP address */
 2180              		.loc 1 888 14 is_stmt 0
 2181 0104 5C44     		lw	a5,12(s0)
 894:C:/Users/stapi/OneDrive/Desktop/GD32VW553/V1_MQTT_OK/GD32VW55X_Wifi_BLE_SDK/GD32VW55x_RELEASE_V1.0.2/MSDK/lwip/lwip-2.1.2/src/core/ipv4\etharp.c ****           }
 2182              		.loc 1 894 20
 2183 0106 7155     		li	a0,-4
 888:C:/Users/stapi/OneDrive/Desktop/GD32VW553/V1_MQTT_OK/GD32VW55X_Wifi_BLE_SDK/GD32VW55x_RELEASE_V1.0.2/MSDK/lwip/lwip-2.1.2/src/core/ipv4\etharp.c ****             /* send to hardware address of default gateway IP address */
 2184              		.loc 1 888 14
 2185 0108 A9C7     		beq	a5,zero,.L187
 890:C:/Users/stapi/OneDrive/Desktop/GD32VW553/V1_MQTT_OK/GD32VW55X_Wifi_BLE_SDK/GD32VW55x_RELEASE_V1.0.2/MSDK/lwip/lwip-2.1.2/src/core/ipv4\etharp.c ****             /* no default gateway available */
 2186              		.loc 1 890 13 is_stmt 1
 890:C:/Users/stapi/OneDrive/Desktop/GD32VW553/V1_MQTT_OK/GD32VW55X_Wifi_BLE_SDK/GD32VW55x_RELEASE_V1.0.2/MSDK/lwip/lwip-2.1.2/src/core/ipv4\etharp.c ****             /* no default gateway available */
 2187              		.loc 1 890 22 is_stmt 0
 2188 010a 9304C400 		addi	s1,s0,12
 2189              	.LVL221:
 2190              	.L186:
 905:C:/Users/stapi/OneDrive/Desktop/GD32VW553/V1_MQTT_OK/GD32VW55X_Wifi_BLE_SDK/GD32VW55x_RELEASE_V1.0.2/MSDK/lwip/lwip-2.1.2/src/core/ipv4\etharp.c **** #if ETHARP_TABLE_MATCH_NETIF
 2191              		.loc 1 905 9 is_stmt 1
 905:C:/Users/stapi/OneDrive/Desktop/GD32VW553/V1_MQTT_OK/GD32VW55X_Wifi_BLE_SDK/GD32VW55x_RELEASE_V1.0.2/MSDK/lwip/lwip-2.1.2/src/core/ipv4\etharp.c **** #if ETHARP_TABLE_MATCH_NETIF
 2192              		.loc 1 905 44 is_stmt 0
 2193 010e B7060000 		lui	a3,%hi(.LANCHOR2)
 2194 0112 83C50600 		lbu	a1,%lo(.LANCHOR2)(a3)
 2195 0116 B7070000 		lui	a5,%hi(.LANCHOR0)
 2196 011a 13870700 		addi	a4,a5,%lo(.LANCHOR0)
 2197 011e 6145     		li	a0,24
 2198 0120 7F97A5C4 		maddr32	a4, a1, a0
 905:C:/Users/stapi/OneDrive/Desktop/GD32VW553/V1_MQTT_OK/GD32VW55X_Wifi_BLE_SDK/GD32VW55x_RELEASE_V1.0.2/MSDK/lwip/lwip-2.1.2/src/core/ipv4\etharp.c **** #if ETHARP_TABLE_MATCH_NETIF
 2199              		.loc 1 905 12
 2200 0124 03484701 		lbu	a6,20(a4)
 2201 0128 0545     		li	a0,1
 2202 012a 93860600 		addi	a3,a3,%lo(.LANCHOR2)
 2203 012e 93870700 		addi	a5,a5,%lo(.LANCHOR0)
 2204 0132 63750503 		bleu	a6,a0,.L188
 905:C:/Users/stapi/OneDrive/Desktop/GD32VW553/V1_MQTT_OK/GD32VW55X_Wifi_BLE_SDK/GD32VW55x_RELEASE_V1.0.2/MSDK/lwip/lwip-2.1.2/src/core/ipv4\etharp.c **** #if ETHARP_TABLE_MATCH_NETIF
 2205              		.loc 1 905 75 discriminator 1
 2206 0136 0847     		lw	a0,8(a4)
 2207 0138 63128502 		bne	a0,s0,.L188
 907:C:/Users/stapi/OneDrive/Desktop/GD32VW553/V1_MQTT_OK/GD32VW55X_Wifi_BLE_SDK/GD32VW55x_RELEASE_V1.0.2/MSDK/lwip/lwip-2.1.2/src/core/ipv4\etharp.c **** #endif
 2208              		.loc 1 907 61
 2209 013c 8840     		lw	a0,0(s1)
 2210 013e 5843     		lw	a4,4(a4)
 2211 0140 631EE500 		bne	a0,a4,.L188
 911:C:/Users/stapi/OneDrive/Desktop/GD32VW553/V1_MQTT_OK/GD32VW55X_Wifi_BLE_SDK/GD32VW55x_RELEASE_V1.0.2/MSDK/lwip/lwip-2.1.2/src/core/ipv4\etharp.c ****           return etharp_output_to_arp_index(netif, q, etharp_cached_entry);
 2212              		.loc 1 911 44 is_stmt 1
 912:C:/Users/stapi/OneDrive/Desktop/GD32VW553/V1_MQTT_OK/GD32VW55X_Wifi_BLE_SDK/GD32VW55x_RELEASE_V1.0.2/MSDK/lwip/lwip-2.1.2/src/core/ipv4\etharp.c ****         }
 2213              		.loc 1 912 11
 912:C:/Users/stapi/OneDrive/Desktop/GD32VW553/V1_MQTT_OK/GD32VW55X_Wifi_BLE_SDK/GD32VW55x_RELEASE_V1.0.2/MSDK/lwip/lwip-2.1.2/src/core/ipv4\etharp.c ****         }
 2214              		.loc 1 912 18 is_stmt 0
 2215 0144 2E86     		mv	a2,a1
 2216              	.L199:
 929:C:/Users/stapi/OneDrive/Desktop/GD32VW553/V1_MQTT_OK/GD32VW55X_Wifi_BLE_SDK/GD32VW55x_RELEASE_V1.0.2/MSDK/lwip/lwip-2.1.2/src/core/ipv4\etharp.c ****       }
 2217              		.loc 1 929 9 is_stmt 1
 929:C:/Users/stapi/OneDrive/Desktop/GD32VW553/V1_MQTT_OK/GD32VW55X_Wifi_BLE_SDK/GD32VW55x_RELEASE_V1.0.2/MSDK/lwip/lwip-2.1.2/src/core/ipv4\etharp.c ****       }
 2218              		.loc 1 929 16 is_stmt 0
 2219 0146 CA85     		mv	a1,s2
 2220 0148 2285     		mv	a0,s0
 2221 014a 97000000 		call	etharp_output_to_arp_index
 2221      E7800000 
 2222              	.LVL222:
 2223              	.L187:
 2224              	.LBE38:
 951:C:/Users/stapi/OneDrive/Desktop/GD32VW553/V1_MQTT_OK/GD32VW55X_Wifi_BLE_SDK/GD32VW55x_RELEASE_V1.0.2/MSDK/lwip/lwip-2.1.2/src/core/ipv4\etharp.c **** 
 2225              		.loc 1 951 1
 2226 0152 4101     		addi	sp,sp,16
 2227              		.cfi_remember_state
 2228              		.cfi_def_cfa_offset 0
 2229 0154 17030000 		tail	__riscv_restore_3
 2229      67000300 
 2230              		.cfi_restore 18
 2231              		.cfi_restore 9
 2232              		.cfi_restore 8
 2233              		.cfi_restore 1
 2234              		.cfi_def_cfa_offset -16
 2235              	.LVL223:
 2236              	.L188:
 2237              		.cfi_restore_state
 2238              	.LBB40:
 922:C:/Users/stapi/OneDrive/Desktop/GD32VW553/V1_MQTT_OK/GD32VW55X_Wifi_BLE_SDK/GD32VW55x_RELEASE_V1.0.2/MSDK/lwip/lwip-2.1.2/src/core/ipv4\etharp.c **** #if ETHARP_TABLE_MATCH_NETIF
 2239              		.loc 1 922 10
 2240 015c 8545     		li	a1,1
 921:C:/Users/stapi/OneDrive/Desktop/GD32VW553/V1_MQTT_OK/GD32VW55X_Wifi_BLE_SDK/GD32VW55x_RELEASE_V1.0.2/MSDK/lwip/lwip-2.1.2/src/core/ipv4\etharp.c ****       if ((arp_table[i].state >= ETHARP_STATE_STABLE) &&
 2241              		.loc 1 921 5
 2242 015e 2947     		li	a4,10
 2243              	.L190:
 2244              	.LVL224:
 922:C:/Users/stapi/OneDrive/Desktop/GD32VW553/V1_MQTT_OK/GD32VW55X_Wifi_BLE_SDK/GD32VW55x_RELEASE_V1.0.2/MSDK/lwip/lwip-2.1.2/src/core/ipv4\etharp.c **** #if ETHARP_TABLE_MATCH_NETIF
 2245              		.loc 1 922 7 is_stmt 1
 922:C:/Users/stapi/OneDrive/Desktop/GD32VW553/V1_MQTT_OK/GD32VW55X_Wifi_BLE_SDK/GD32VW55x_RELEASE_V1.0.2/MSDK/lwip/lwip-2.1.2/src/core/ipv4\etharp.c **** #if ETHARP_TABLE_MATCH_NETIF
 2246              		.loc 1 922 10 is_stmt 0
 2247 0160 03C54701 		lbu	a0,20(a5)
 2248 0164 63FDA500 		bleu	a0,a1,.L189
 922:C:/Users/stapi/OneDrive/Desktop/GD32VW553/V1_MQTT_OK/GD32VW55X_Wifi_BLE_SDK/GD32VW55x_RELEASE_V1.0.2/MSDK/lwip/lwip-2.1.2/src/core/ipv4\etharp.c **** #if ETHARP_TABLE_MATCH_NETIF
 2249              		.loc 1 922 55 discriminator 1
 2250 0168 8847     		lw	a0,8(a5)
 2251 016a 631A8500 		bne	a0,s0,.L189
 924:C:/Users/stapi/OneDrive/Desktop/GD32VW553/V1_MQTT_OK/GD32VW55X_Wifi_BLE_SDK/GD32VW55x_RELEASE_V1.0.2/MSDK/lwip/lwip-2.1.2/src/core/ipv4\etharp.c **** #endif
 2252              		.loc 1 924 41
 2253 016e 03A80400 		lw	a6,0(s1)
 2254 0172 C843     		lw	a0,4(a5)
 2255 0174 6315A800 		bne	a6,a0,.L189
 928:C:/Users/stapi/OneDrive/Desktop/GD32VW553/V1_MQTT_OK/GD32VW55X_Wifi_BLE_SDK/GD32VW55x_RELEASE_V1.0.2/MSDK/lwip/lwip-2.1.2/src/core/ipv4\etharp.c ****         return etharp_output_to_arp_index(netif, q, i);
 2256              		.loc 1 928 9 is_stmt 1
 2257 0178 2380C600 		sb	a2,0(a3)
 2258 017c E9B7     		j	.L199
 2259              	.L189:
 921:C:/Users/stapi/OneDrive/Desktop/GD32VW553/V1_MQTT_OK/GD32VW55X_Wifi_BLE_SDK/GD32VW55x_RELEASE_V1.0.2/MSDK/lwip/lwip-2.1.2/src/core/ipv4\etharp.c ****       if ((arp_table[i].state >= ETHARP_STATE_STABLE) &&
 2260              		.loc 1 921 37 discriminator 2
 921:C:/Users/stapi/OneDrive/Desktop/GD32VW553/V1_MQTT_OK/GD32VW55X_Wifi_BLE_SDK/GD32VW55x_RELEASE_V1.0.2/MSDK/lwip/lwip-2.1.2/src/core/ipv4\etharp.c ****       if ((arp_table[i].state >= ETHARP_STATE_STABLE) &&
 2261              		.loc 1 921 38 is_stmt 0 discriminator 2
 2262 017e 0506     		addi	a2,a2,1
 2263              	.LVL225:
 2264 0180 1376F60F 		andi	a2,a2,0xff
 2265              	.LVL226:
 921:C:/Users/stapi/OneDrive/Desktop/GD32VW553/V1_MQTT_OK/GD32VW55X_Wifi_BLE_SDK/GD32VW55x_RELEASE_V1.0.2/MSDK/lwip/lwip-2.1.2/src/core/ipv4\etharp.c ****       if ((arp_table[i].state >= ETHARP_STATE_STABLE) &&
 2266              		.loc 1 921 17 is_stmt 1 discriminator 2
 921:C:/Users/stapi/OneDrive/Desktop/GD32VW553/V1_MQTT_OK/GD32VW55X_Wifi_BLE_SDK/GD32VW55x_RELEASE_V1.0.2/MSDK/lwip/lwip-2.1.2/src/core/ipv4\etharp.c ****       if ((arp_table[i].state >= ETHARP_STATE_STABLE) &&
 2267              		.loc 1 921 5 is_stmt 0 discriminator 2
 2268 0184 E107     		addi	a5,a5,24
 2269 0186 E31DE6FC 		bne	a2,a4,.L190
 2270              	.LBB39:
 936:C:/Users/stapi/OneDrive/Desktop/GD32VW553/V1_MQTT_OK/GD32VW55X_Wifi_BLE_SDK/GD32VW55x_RELEASE_V1.0.2/MSDK/lwip/lwip-2.1.2/src/core/ipv4\etharp.c ****         dest = (const struct eth_addr *)dhcpd_find_ethaddr_from_packet(q);
 2271              		.loc 1 936 9 is_stmt 1
 937:C:/Users/stapi/OneDrive/Desktop/GD32VW553/V1_MQTT_OK/GD32VW55X_Wifi_BLE_SDK/GD32VW55x_RELEASE_V1.0.2/MSDK/lwip/lwip-2.1.2/src/core/ipv4\etharp.c ****         if (dest)
 2272              		.loc 1 937 9
 937:C:/Users/stapi/OneDrive/Desktop/GD32VW553/V1_MQTT_OK/GD32VW55X_Wifi_BLE_SDK/GD32VW55x_RELEASE_V1.0.2/MSDK/lwip/lwip-2.1.2/src/core/ipv4\etharp.c ****         if (dest)
 2273              		.loc 1 937 41 is_stmt 0
 2274 018a 4A85     		mv	a0,s2
 2275 018c 97000000 		call	dhcpd_find_ethaddr_from_packet
 2275      E7800000 
 2276              	.LVL227:
 2277 0194 AA86     		mv	a3,a0
 2278              	.LVL228:
 938:C:/Users/stapi/OneDrive/Desktop/GD32VW553/V1_MQTT_OK/GD32VW55X_Wifi_BLE_SDK/GD32VW55x_RELEASE_V1.0.2/MSDK/lwip/lwip-2.1.2/src/core/ipv4\etharp.c ****             return ethernet_output(netif, q, (struct eth_addr *)(netif->hwaddr), dest, ETHTYPE_IP);
 2279              		.loc 1 938 9 is_stmt 1
 938:C:/Users/stapi/OneDrive/Desktop/GD32VW553/V1_MQTT_OK/GD32VW55X_Wifi_BLE_SDK/GD32VW55x_RELEASE_V1.0.2/MSDK/lwip/lwip-2.1.2/src/core/ipv4\etharp.c ****             return ethernet_output(netif, q, (struct eth_addr *)(netif->hwaddr), dest, ETHTYPE_IP);
 2280              		.loc 1 938 12 is_stmt 0
 2281 0196 1DFD     		bne	a0,zero,.L184
 2282              	.LBE39:
 944:C:/Users/stapi/OneDrive/Desktop/GD32VW553/V1_MQTT_OK/GD32VW55X_Wifi_BLE_SDK/GD32VW55x_RELEASE_V1.0.2/MSDK/lwip/lwip-2.1.2/src/core/ipv4\etharp.c ****   }
 2283              		.loc 1 944 5 is_stmt 1
 944:C:/Users/stapi/OneDrive/Desktop/GD32VW553/V1_MQTT_OK/GD32VW55X_Wifi_BLE_SDK/GD32VW55x_RELEASE_V1.0.2/MSDK/lwip/lwip-2.1.2/src/core/ipv4\etharp.c ****   }
 2284              		.loc 1 944 12 is_stmt 0
 2285 0198 4A86     		mv	a2,s2
 2286 019a A685     		mv	a1,s1
 2287 019c 2285     		mv	a0,s0
 2288              	.LVL229:
 2289 019e 97000000 		call	etharp_query
 2289      E7800000 
 2290              	.LVL230:
 2291 01a6 75B7     		j	.L187
 2292              	.LVL231:
 2293              	.L192:
 2294              	.LBE40:
 852:C:/Users/stapi/OneDrive/Desktop/GD32VW553/V1_MQTT_OK/GD32VW55X_Wifi_BLE_SDK/GD32VW55x_RELEASE_V1.0.2/MSDK/lwip/lwip-2.1.2/src/core/ipv4\etharp.c ****     /* multicast destination IP address? */
 2295              		.loc 1 852 10
 2296 01a8 B7060000 		lui	a3,%hi(ethbroadcast)
 2297 01ac 93860600 		addi	a3,a3,%lo(ethbroadcast)
 2298 01b0 15B7     		j	.L184
 2299              		.cfi_endproc
 2300              	.LFE14:
 2302              		.section	.rodata.str1.4,"aMS",@progbits,1
 2303              		.align	2
 2304              	.LC17:
 2305 0000 656D7074 		.string	"empty"
 2305      7900
 2306 0006 0000     		.align	2
 2307              	.LC18:
 2308 0008 70656E64 		.string	"pending"
 2308      696E6700 
 2309              		.align	2
 2310              	.LC19:
 2311 0010 73746162 		.string	"stable"
 2311      6C6500
 2312 0017 00       		.align	2
 2313              	.LC20:
 2314 0018 73746162 		.string	"stable_req1"
 2314      6C655F72 
 2314      65713100 
 2315              		.align	2
 2316              	.LC21:
 2317 0024 73746162 		.string	"stable_req2"
 2317      6C655F72 
 2317      65713200 
 2318              		.section	.bss.arp_table,"aw",@nobits
 2319              		.align	2
 2320              		.set	.LANCHOR0,. + 0
 2323              	arp_table:
 2324 0000 00000000 		.zero	240
 2324      00000000 
 2324      00000000 
 2324      00000000 
 2324      00000000 
 2325              		.section	.rodata.CSWTCH.15,"a"
 2326              		.align	2
 2327              		.set	.LANCHOR1,. + 0
 2330              	CSWTCH.15:
 2331 0000 00000000 		.word	.LC17
 2332 0004 00000000 		.word	.LC18
 2333 0008 00000000 		.word	.LC19
 2334 000c 00000000 		.word	.LC20
 2335 0010 00000000 		.word	.LC21
 2336              		.section	.sbss.etharp_cached_entry,"aw",@nobits
 2337              		.set	.LANCHOR2,. + 0
 2340              	etharp_cached_entry:
 2341 0000 00       		.zero	1
 2342              		.text
 2343              	.Letext0:
 2344              		.file 2 "c:\\users\\stapi\\onedrive\\desktop\\gd32vw553\\embeddedbuilder_v1.4.7.26843\\tools\\nucl
 2345              		.file 3 "c:\\users\\stapi\\onedrive\\desktop\\gd32vw553\\embeddedbuilder_v1.4.7.26843\\tools\\nucl
 2346              		.file 4 "c:\\users\\stapi\\onedrive\\desktop\\gd32vw553\\embeddedbuilder_v1.4.7.26843\\tools\\nucl
 2347              		.file 5 "c:\\users\\stapi\\onedrive\\desktop\\gd32vw553\\embeddedbuilder_v1.4.7.26843\\tools\\nucl
 2348              		.file 6 "c:\\users\\stapi\\onedrive\\desktop\\gd32vw553\\embeddedbuilder_v1.4.7.26843\\tools\\nucl
 2349              		.file 7 "..\\..\\..\\..\\lwip\\lwip-2.1.2\\src\\include/lwip/arch.h"
 2350              		.file 8 "..\\..\\..\\..\\lwip\\lwip-2.1.2\\src\\include/lwip/err.h"
 2351              		.file 9 "..\\..\\..\\..\\lwip\\lwip-2.1.2\\src\\include/lwip/pbuf.h"
 2352              		.file 10 "..\\..\\..\\..\\lwip\\lwip-2.1.2\\src\\include/lwip/ip4_addr.h"
 2353              		.file 11 "..\\..\\..\\..\\lwip\\lwip-2.1.2\\src\\include/lwip/ip_addr.h"
 2354              		.file 12 "..\\..\\..\\..\\lwip\\lwip-2.1.2\\src\\include/lwip/memp.h"
 2355              		.file 13 "..\\..\\..\\..\\lwip\\lwip-2.1.2\\src\\include/lwip/netif.h"
 2356              		.file 14 "..\\..\\..\\..\\lwip\\lwip-2.1.2\\src\\include/lwip/prot/ieee.h"
 2357              		.file 15 "..\\..\\..\\..\\lwip\\lwip-2.1.2\\src\\include/lwip/prot/ethernet.h"
 2358              		.file 16 "..\\..\\..\\..\\lwip\\lwip-2.1.2\\src\\include/lwip/prot/etharp.h"
 2359              		.file 17 "..\\..\\..\\..\\lwip\\lwip-2.1.2\\src\\include/lwip/prot/iana.h"
 2360              		.file 18 "..\\..\\..\\..\\lwip\\lwip-2.1.2\\src\\include/netif/ethernet.h"
 2361              		.file 19 "c:\\users\\stapi\\onedrive\\desktop\\gd32vw553\\embeddedbuilder_v1.4.7.26843\\tools\\nuc
 2362              		.file 20 "..\\..\\..\\..\\lwip\\lwip-2.1.2\\src\\include/lwip/def.h"
 2363              		.file 21 "..\\..\\..\\..\\lwip\\lwip-2.1.2\\src\\include/lwip/dhcp.h"
 2364              		.file 22 "<built-in>"
DEFINED SYMBOLS
                            *ABS*:0000000000000000 etharp.c
C:\Users\stapi\AppData\Local\Temp\ccEuEHvK.s:12     .text.etharp_free_entry:0000000000000000 etharp_free_entry
C:\Users\stapi\AppData\Local\Temp\ccEuEHvK.s:16     .text.etharp_free_entry:0000000000000000 .L0 
C:\Users\stapi\AppData\Local\Temp\ccEuEHvK.s:18     .text.etharp_free_entry:0000000000000000 .L0 
C:\Users\stapi\AppData\Local\Temp\ccEuEHvK.s:19     .text.etharp_free_entry:0000000000000008 .L0 
C:\Users\stapi\AppData\Local\Temp\ccEuEHvK.s:20     .text.etharp_free_entry:0000000000000008 .L0 
C:\Users\stapi\AppData\Local\Temp\ccEuEHvK.s:21     .text.etharp_free_entry:0000000000000008 .L0 
C:\Users\stapi\AppData\Local\Temp\ccEuEHvK.s:22     .text.etharp_free_entry:0000000000000008 .L0 
C:\Users\stapi\AppData\Local\Temp\ccEuEHvK.s:23     .text.etharp_free_entry:0000000000000008 .L0 
C:\Users\stapi\AppData\Local\Temp\ccEuEHvK.s:25     .text.etharp_free_entry:0000000000000008 .L0 
C:\Users\stapi\AppData\Local\Temp\ccEuEHvK.s:26     .text.etharp_free_entry:0000000000000008 .L0 
C:\Users\stapi\AppData\Local\Temp\ccEuEHvK.s:27     .text.etharp_free_entry:0000000000000008 .L0 
C:\Users\stapi\AppData\Local\Temp\ccEuEHvK.s:31     .text.etharp_free_entry:0000000000000012 .L0 
C:\Users\stapi\AppData\Local\Temp\ccEuEHvK.s:33     .text.etharp_free_entry:0000000000000014 .L0 
C:\Users\stapi\AppData\Local\Temp\ccEuEHvK.s:38     .text.etharp_free_entry:0000000000000020 .L0 
C:\Users\stapi\AppData\Local\Temp\ccEuEHvK.s:40     .text.etharp_free_entry:0000000000000022 .L0 
C:\Users\stapi\AppData\Local\Temp\ccEuEHvK.s:41     .text.etharp_free_entry:0000000000000022 .L0 
C:\Users\stapi\AppData\Local\Temp\ccEuEHvK.s:44     .text.etharp_free_entry:000000000000002a .L0 
C:\Users\stapi\AppData\Local\Temp\ccEuEHvK.s:45     .text.etharp_free_entry:000000000000002a .L0 
C:\Users\stapi\AppData\Local\Temp\ccEuEHvK.s:48     .text.etharp_free_entry:000000000000002e .L0 
C:\Users\stapi\AppData\Local\Temp\ccEuEHvK.s:49     .text.etharp_free_entry:000000000000002e .L0 
C:\Users\stapi\AppData\Local\Temp\ccEuEHvK.s:54     .text.etharp_free_entry:000000000000003a .L0 
C:\Users\stapi\AppData\Local\Temp\ccEuEHvK.s:55     .text.etharp_free_entry:0000000000000042 .L0 
C:\Users\stapi\AppData\Local\Temp\ccEuEHvK.s:56     .text.etharp_free_entry:0000000000000042 .L0 
C:\Users\stapi\AppData\Local\Temp\ccEuEHvK.s:57     .text.etharp_free_entry:0000000000000042 .L0 
C:\Users\stapi\AppData\Local\Temp\ccEuEHvK.s:58     .text.etharp_free_entry:0000000000000042 .L0 
C:\Users\stapi\AppData\Local\Temp\ccEuEHvK.s:59     .text.etharp_free_entry:0000000000000042 .L0 
C:\Users\stapi\AppData\Local\Temp\ccEuEHvK.s:60     .text.etharp_free_entry:0000000000000042 .L0 
C:\Users\stapi\AppData\Local\Temp\ccEuEHvK.s:79     .text.etharp_find_entry:0000000000000000 etharp_find_entry
C:\Users\stapi\AppData\Local\Temp\ccEuEHvK.s:82     .text.etharp_find_entry:0000000000000000 .L0 
C:\Users\stapi\AppData\Local\Temp\ccEuEHvK.s:84     .text.etharp_find_entry:0000000000000000 .L0 
C:\Users\stapi\AppData\Local\Temp\ccEuEHvK.s:85     .text.etharp_find_entry:0000000000000008 .L0 
C:\Users\stapi\AppData\Local\Temp\ccEuEHvK.s:86     .text.etharp_find_entry:0000000000000008 .L0 
C:\Users\stapi\AppData\Local\Temp\ccEuEHvK.s:87     .text.etharp_find_entry:0000000000000008 .L0 
C:\Users\stapi\AppData\Local\Temp\ccEuEHvK.s:88     .text.etharp_find_entry:0000000000000008 .L0 
C:\Users\stapi\AppData\Local\Temp\ccEuEHvK.s:89     .text.etharp_find_entry:0000000000000008 .L0 
C:\Users\stapi\AppData\Local\Temp\ccEuEHvK.s:90     .text.etharp_find_entry:0000000000000008 .L0 
C:\Users\stapi\AppData\Local\Temp\ccEuEHvK.s:93     .text.etharp_find_entry:0000000000000008 .L0 
C:\Users\stapi\AppData\Local\Temp\ccEuEHvK.s:94     .text.etharp_find_entry:0000000000000008 .L0 
C:\Users\stapi\AppData\Local\Temp\ccEuEHvK.s:95     .text.etharp_find_entry:0000000000000008 .L0 
C:\Users\stapi\AppData\Local\Temp\ccEuEHvK.s:96     .text.etharp_find_entry:0000000000000008 .L0 
C:\Users\stapi\AppData\Local\Temp\ccEuEHvK.s:97     .text.etharp_find_entry:0000000000000008 .L0 
C:\Users\stapi\AppData\Local\Temp\ccEuEHvK.s:98     .text.etharp_find_entry:0000000000000008 .L0 
C:\Users\stapi\AppData\Local\Temp\ccEuEHvK.s:99     .text.etharp_find_entry:0000000000000008 .L0 
C:\Users\stapi\AppData\Local\Temp\ccEuEHvK.s:100    .text.etharp_find_entry:0000000000000008 .L0 
C:\Users\stapi\AppData\Local\Temp\ccEuEHvK.s:102    .text.etharp_find_entry:000000000000000c .L0 
C:\Users\stapi\AppData\Local\Temp\ccEuEHvK.s:106    .text.etharp_find_entry:0000000000000014 .L0 
C:\Users\stapi\AppData\Local\Temp\ccEuEHvK.s:108    .text.etharp_find_entry:0000000000000016 .L0 
C:\Users\stapi\AppData\Local\Temp\ccEuEHvK.s:110    .text.etharp_find_entry:0000000000000018 .L0 
C:\Users\stapi\AppData\Local\Temp\ccEuEHvK.s:112    .text.etharp_find_entry:000000000000001a .L0 
C:\Users\stapi\AppData\Local\Temp\ccEuEHvK.s:114    .text.etharp_find_entry:000000000000001c .L0 
C:\Users\stapi\AppData\Local\Temp\ccEuEHvK.s:117    .text.etharp_find_entry:000000000000001e .L0 
C:\Users\stapi\AppData\Local\Temp\ccEuEHvK.s:119    .text.etharp_find_entry:0000000000000020 .L0 
C:\Users\stapi\AppData\Local\Temp\ccEuEHvK.s:121    .text.etharp_find_entry:0000000000000022 .L0 
C:\Users\stapi\AppData\Local\Temp\ccEuEHvK.s:125    .text.etharp_find_entry:0000000000000028 .L0 
C:\Users\stapi\AppData\Local\Temp\ccEuEHvK.s:127    .text.etharp_find_entry:000000000000002a .L0 
C:\Users\stapi\AppData\Local\Temp\ccEuEHvK.s:131    .text.etharp_find_entry:000000000000002c .L0 
C:\Users\stapi\AppData\Local\Temp\ccEuEHvK.s:132    .text.etharp_find_entry:000000000000002c .L0 
C:\Users\stapi\AppData\Local\Temp\ccEuEHvK.s:135    .text.etharp_find_entry:0000000000000030 .L0 
C:\Users\stapi\AppData\Local\Temp\ccEuEHvK.s:136    .text.etharp_find_entry:0000000000000030 .L0 
C:\Users\stapi\AppData\Local\Temp\ccEuEHvK.s:139    .text.etharp_find_entry:0000000000000034 .L0 
C:\Users\stapi\AppData\Local\Temp\ccEuEHvK.s:143    .text.etharp_find_entry:0000000000000038 .L0 
C:\Users\stapi\AppData\Local\Temp\ccEuEHvK.s:144    .text.etharp_find_entry:0000000000000038 .L0 
C:\Users\stapi\AppData\Local\Temp\ccEuEHvK.s:145    .text.etharp_find_entry:0000000000000038 .L0 
C:\Users\stapi\AppData\Local\Temp\ccEuEHvK.s:146    .text.etharp_find_entry:0000000000000038 .L0 
C:\Users\stapi\AppData\Local\Temp\ccEuEHvK.s:147    .text.etharp_find_entry:0000000000000038 .L0 
C:\Users\stapi\AppData\Local\Temp\ccEuEHvK.s:148    .text.etharp_find_entry:0000000000000038 .L0 
C:\Users\stapi\AppData\Local\Temp\ccEuEHvK.s:150    .text.etharp_find_entry:000000000000003c .L0 
C:\Users\stapi\AppData\Local\Temp\ccEuEHvK.s:154    .text.etharp_find_entry:0000000000000046 .L0 
C:\Users\stapi\AppData\Local\Temp\ccEuEHvK.s:156    .text.etharp_find_entry:000000000000004a .L0 
C:\Users\stapi\AppData\Local\Temp\ccEuEHvK.s:160    .text.etharp_find_entry:0000000000000050 .L0 
C:\Users\stapi\AppData\Local\Temp\ccEuEHvK.s:161    .text.etharp_find_entry:0000000000000050 .L0 
C:\Users\stapi\AppData\Local\Temp\ccEuEHvK.s:163    .text.etharp_find_entry:0000000000000054 .L0 
C:\Users\stapi\AppData\Local\Temp\ccEuEHvK.s:165    .text.etharp_find_entry:0000000000000058 .L0 
C:\Users\stapi\AppData\Local\Temp\ccEuEHvK.s:166    .text.etharp_find_entry:0000000000000058 .L0 
C:\Users\stapi\AppData\Local\Temp\ccEuEHvK.s:169    .text.etharp_find_entry:000000000000005c .L0 
C:\Users\stapi\AppData\Local\Temp\ccEuEHvK.s:170    .text.etharp_find_entry:000000000000005c .L0 
C:\Users\stapi\AppData\Local\Temp\ccEuEHvK.s:179    .text.etharp_find_entry:0000000000000066 .L0 
C:\Users\stapi\AppData\Local\Temp\ccEuEHvK.s:180    .text.etharp_find_entry:0000000000000066 .L0 
C:\Users\stapi\AppData\Local\Temp\ccEuEHvK.s:185    .text.etharp_find_entry:000000000000006a .L0 
C:\Users\stapi\AppData\Local\Temp\ccEuEHvK.s:187    .text.etharp_find_entry:000000000000006e .L0 
C:\Users\stapi\AppData\Local\Temp\ccEuEHvK.s:192    .text.etharp_find_entry:0000000000000078 .L0 
C:\Users\stapi\AppData\Local\Temp\ccEuEHvK.s:193    .text.etharp_find_entry:0000000000000078 .L0 
C:\Users\stapi\AppData\Local\Temp\ccEuEHvK.s:195    .text.etharp_find_entry:000000000000007c .L0 
C:\Users\stapi\AppData\Local\Temp\ccEuEHvK.s:196    .text.etharp_find_entry:000000000000007c .L0 
C:\Users\stapi\AppData\Local\Temp\ccEuEHvK.s:199    .text.etharp_find_entry:0000000000000082 .L0 
C:\Users\stapi\AppData\Local\Temp\ccEuEHvK.s:201    .text.etharp_find_entry:0000000000000086 .L0 
C:\Users\stapi\AppData\Local\Temp\ccEuEHvK.s:202    .text.etharp_find_entry:0000000000000086 .L0 
C:\Users\stapi\AppData\Local\Temp\ccEuEHvK.s:203    .text.etharp_find_entry:0000000000000086 .L0 
C:\Users\stapi\AppData\Local\Temp\ccEuEHvK.s:206    .text.etharp_find_entry:000000000000008a .L0 
C:\Users\stapi\AppData\Local\Temp\ccEuEHvK.s:207    .text.etharp_find_entry:000000000000008a .L0 
C:\Users\stapi\AppData\Local\Temp\ccEuEHvK.s:208    .text.etharp_find_entry:000000000000008a .L0 
C:\Users\stapi\AppData\Local\Temp\ccEuEHvK.s:209    .text.etharp_find_entry:000000000000008a .L0 
C:\Users\stapi\AppData\Local\Temp\ccEuEHvK.s:216    .text.etharp_find_entry:0000000000000096 .L0 
C:\Users\stapi\AppData\Local\Temp\ccEuEHvK.s:217    .text.etharp_find_entry:0000000000000096 .L0 
C:\Users\stapi\AppData\Local\Temp\ccEuEHvK.s:229    .text.etharp_find_entry:00000000000000ba .L0 
C:\Users\stapi\AppData\Local\Temp\ccEuEHvK.s:230    .text.etharp_find_entry:00000000000000ba .L0 
C:\Users\stapi\AppData\Local\Temp\ccEuEHvK.s:231    .text.etharp_find_entry:00000000000000ba .L0 
C:\Users\stapi\AppData\Local\Temp\ccEuEHvK.s:236    .text.etharp_find_entry:00000000000000bc .L0 
C:\Users\stapi\AppData\Local\Temp\ccEuEHvK.s:237    .text.etharp_find_entry:00000000000000bc .L0 
C:\Users\stapi\AppData\Local\Temp\ccEuEHvK.s:246    .text.etharp_find_entry:00000000000000c6 .L0 
C:\Users\stapi\AppData\Local\Temp\ccEuEHvK.s:247    .text.etharp_find_entry:00000000000000c6 .L0 
C:\Users\stapi\AppData\Local\Temp\ccEuEHvK.s:248    .text.etharp_find_entry:00000000000000c6 .L0 
C:\Users\stapi\AppData\Local\Temp\ccEuEHvK.s:262    .text.etharp_find_entry:00000000000000d4 .L0 
C:\Users\stapi\AppData\Local\Temp\ccEuEHvK.s:263    .text.etharp_find_entry:00000000000000d4 .L0 
C:\Users\stapi\AppData\Local\Temp\ccEuEHvK.s:265    .text.etharp_find_entry:00000000000000d8 .L0 
C:\Users\stapi\AppData\Local\Temp\ccEuEHvK.s:268    .text.etharp_find_entry:00000000000000da .L0 
C:\Users\stapi\AppData\Local\Temp\ccEuEHvK.s:271    .text.etharp_find_entry:00000000000000de .L0 
C:\Users\stapi\AppData\Local\Temp\ccEuEHvK.s:277    .text.etharp_find_entry:00000000000000e2 .L0 
C:\Users\stapi\AppData\Local\Temp\ccEuEHvK.s:278    .text.etharp_find_entry:00000000000000e2 .L0 
C:\Users\stapi\AppData\Local\Temp\ccEuEHvK.s:279    .text.etharp_find_entry:00000000000000e2 .L0 
C:\Users\stapi\AppData\Local\Temp\ccEuEHvK.s:280    .text.etharp_find_entry:00000000000000e2 .L0 
C:\Users\stapi\AppData\Local\Temp\ccEuEHvK.s:282    .text.etharp_find_entry:00000000000000e6 .L0 
C:\Users\stapi\AppData\Local\Temp\ccEuEHvK.s:286    .text.etharp_find_entry:00000000000000ec .L0 
C:\Users\stapi\AppData\Local\Temp\ccEuEHvK.s:287    .text.etharp_find_entry:00000000000000ec .L0 
C:\Users\stapi\AppData\Local\Temp\ccEuEHvK.s:290    .text.etharp_find_entry:00000000000000f2 .L0 
C:\Users\stapi\AppData\Local\Temp\ccEuEHvK.s:292    .text.etharp_find_entry:00000000000000f4 .L0 
C:\Users\stapi\AppData\Local\Temp\ccEuEHvK.s:294    .text.etharp_find_entry:00000000000000f8 .L0 
C:\Users\stapi\AppData\Local\Temp\ccEuEHvK.s:295    .text.etharp_find_entry:00000000000000f8 .L0 
C:\Users\stapi\AppData\Local\Temp\ccEuEHvK.s:299    .text.etharp_find_entry:00000000000000fc .L0 
C:\Users\stapi\AppData\Local\Temp\ccEuEHvK.s:300    .text.etharp_find_entry:00000000000000fc .L0 
C:\Users\stapi\AppData\Local\Temp\ccEuEHvK.s:301    .text.etharp_find_entry:0000000000000104 .L0 
C:\Users\stapi\AppData\Local\Temp\ccEuEHvK.s:302    .text.etharp_find_entry:0000000000000104 .L0 
C:\Users\stapi\AppData\Local\Temp\ccEuEHvK.s:303    .text.etharp_find_entry:0000000000000104 .L0 
C:\Users\stapi\AppData\Local\Temp\ccEuEHvK.s:304    .text.etharp_find_entry:0000000000000104 .L0 
C:\Users\stapi\AppData\Local\Temp\ccEuEHvK.s:305    .text.etharp_find_entry:0000000000000104 .L0 
C:\Users\stapi\AppData\Local\Temp\ccEuEHvK.s:306    .text.etharp_find_entry:0000000000000104 .L0 
C:\Users\stapi\AppData\Local\Temp\ccEuEHvK.s:307    .text.etharp_find_entry:0000000000000104 .L0 
C:\Users\stapi\AppData\Local\Temp\ccEuEHvK.s:310    .text.etharp_find_entry:0000000000000104 .L0 
C:\Users\stapi\AppData\Local\Temp\ccEuEHvK.s:315    .text.etharp_find_entry:0000000000000106 .L0 
C:\Users\stapi\AppData\Local\Temp\ccEuEHvK.s:316    .text.etharp_find_entry:0000000000000106 .L0 
C:\Users\stapi\AppData\Local\Temp\ccEuEHvK.s:317    .text.etharp_find_entry:0000000000000106 .L0 
C:\Users\stapi\AppData\Local\Temp\ccEuEHvK.s:318    .text.etharp_find_entry:0000000000000106 .L0 
C:\Users\stapi\AppData\Local\Temp\ccEuEHvK.s:319    .text.etharp_find_entry:0000000000000106 .L0 
C:\Users\stapi\AppData\Local\Temp\ccEuEHvK.s:326    .text.etharp_find_entry:0000000000000112 .L0 
C:\Users\stapi\AppData\Local\Temp\ccEuEHvK.s:327    .text.etharp_find_entry:0000000000000112 .L0 
C:\Users\stapi\AppData\Local\Temp\ccEuEHvK.s:328    .text.etharp_find_entry:0000000000000112 .L0 
C:\Users\stapi\AppData\Local\Temp\ccEuEHvK.s:329    .text.etharp_find_entry:0000000000000112 .L0 
C:\Users\stapi\AppData\Local\Temp\ccEuEHvK.s:330    .text.etharp_find_entry:0000000000000112 .L0 
C:\Users\stapi\AppData\Local\Temp\ccEuEHvK.s:331    .text.etharp_find_entry:0000000000000112 .L0 
C:\Users\stapi\AppData\Local\Temp\ccEuEHvK.s:337    .text.etharp_find_entry:0000000000000120 .L0 
C:\Users\stapi\AppData\Local\Temp\ccEuEHvK.s:338    .text.etharp_find_entry:0000000000000120 .L0 
C:\Users\stapi\AppData\Local\Temp\ccEuEHvK.s:349    .text.etharp_find_entry:0000000000000144 .L0 
C:\Users\stapi\AppData\Local\Temp\ccEuEHvK.s:350    .text.etharp_find_entry:0000000000000144 .L0 
C:\Users\stapi\AppData\Local\Temp\ccEuEHvK.s:351    .text.etharp_find_entry:0000000000000144 .L0 
C:\Users\stapi\AppData\Local\Temp\ccEuEHvK.s:352    .text.etharp_find_entry:0000000000000146 .L0 
C:\Users\stapi\AppData\Local\Temp\ccEuEHvK.s:368    .text.etharp_raw:0000000000000000 etharp_raw
C:\Users\stapi\AppData\Local\Temp\ccEuEHvK.s:371    .text.etharp_raw:0000000000000000 .L0 
C:\Users\stapi\AppData\Local\Temp\ccEuEHvK.s:373    .text.etharp_raw:0000000000000000 .L0 
C:\Users\stapi\AppData\Local\Temp\ccEuEHvK.s:374    .text.etharp_raw:0000000000000008 .L0 
C:\Users\stapi\AppData\Local\Temp\ccEuEHvK.s:375    .text.etharp_raw:0000000000000008 .L0 
C:\Users\stapi\AppData\Local\Temp\ccEuEHvK.s:376    .text.etharp_raw:0000000000000008 .L0 
C:\Users\stapi\AppData\Local\Temp\ccEuEHvK.s:377    .text.etharp_raw:0000000000000008 .L0 
C:\Users\stapi\AppData\Local\Temp\ccEuEHvK.s:378    .text.etharp_raw:0000000000000008 .L0 
C:\Users\stapi\AppData\Local\Temp\ccEuEHvK.s:379    .text.etharp_raw:0000000000000008 .L0 
C:\Users\stapi\AppData\Local\Temp\ccEuEHvK.s:380    .text.etharp_raw:0000000000000008 .L0 
C:\Users\stapi\AppData\Local\Temp\ccEuEHvK.s:381    .text.etharp_raw:0000000000000008 .L0 
C:\Users\stapi\AppData\Local\Temp\ccEuEHvK.s:382    .text.etharp_raw:0000000000000008 .L0 
C:\Users\stapi\AppData\Local\Temp\ccEuEHvK.s:383    .text.etharp_raw:0000000000000008 .L0 
C:\Users\stapi\AppData\Local\Temp\ccEuEHvK.s:384    .text.etharp_raw:0000000000000008 .L0 
C:\Users\stapi\AppData\Local\Temp\ccEuEHvK.s:385    .text.etharp_raw:0000000000000008 .L0 
C:\Users\stapi\AppData\Local\Temp\ccEuEHvK.s:387    .text.etharp_raw:0000000000000008 .L0 
C:\Users\stapi\AppData\Local\Temp\ccEuEHvK.s:389    .text.etharp_raw:0000000000000008 .L0 
C:\Users\stapi\AppData\Local\Temp\ccEuEHvK.s:390    .text.etharp_raw:0000000000000008 .L0 
C:\Users\stapi\AppData\Local\Temp\ccEuEHvK.s:391    .text.etharp_raw:0000000000000008 .L0 
C:\Users\stapi\AppData\Local\Temp\ccEuEHvK.s:392    .text.etharp_raw:0000000000000008 .L0 
C:\Users\stapi\AppData\Local\Temp\ccEuEHvK.s:394    .text.etharp_raw:000000000000000a .L0 
C:\Users\stapi\AppData\Local\Temp\ccEuEHvK.s:395    .text.etharp_raw:000000000000000a .L0 
C:\Users\stapi\AppData\Local\Temp\ccEuEHvK.s:410    .text.etharp_raw:000000000000002e .L0 
C:\Users\stapi\AppData\Local\Temp\ccEuEHvK.s:411    .text.etharp_raw:000000000000002e .L0 
C:\Users\stapi\AppData\Local\Temp\ccEuEHvK.s:412    .text.etharp_raw:000000000000002e .L0 
C:\Users\stapi\AppData\Local\Temp\ccEuEHvK.s:419    .text.etharp_raw:0000000000000036 .L0 
C:\Users\stapi\AppData\Local\Temp\ccEuEHvK.s:431    .text.etharp_raw:000000000000004a .L0 
C:\Users\stapi\AppData\Local\Temp\ccEuEHvK.s:432    .text.etharp_raw:000000000000004a .L0 
C:\Users\stapi\AppData\Local\Temp\ccEuEHvK.s:433    .text.etharp_raw:000000000000004a .L0 
C:\Users\stapi\AppData\Local\Temp\ccEuEHvK.s:434    .text.etharp_raw:000000000000004a .L0 
C:\Users\stapi\AppData\Local\Temp\ccEuEHvK.s:439    .text.etharp_raw:0000000000000054 .L0 
C:\Users\stapi\AppData\Local\Temp\ccEuEHvK.s:440    .text.etharp_raw:0000000000000054 .L0 
C:\Users\stapi\AppData\Local\Temp\ccEuEHvK.s:442    .text.etharp_raw:0000000000000058 .L0 
C:\Users\stapi\AppData\Local\Temp\ccEuEHvK.s:443    .text.etharp_raw:0000000000000058 .L0 
C:\Users\stapi\AppData\Local\Temp\ccEuEHvK.s:447    .text.etharp_raw:0000000000000062 .L0 
C:\Users\stapi\AppData\Local\Temp\ccEuEHvK.s:448    .text.etharp_raw:0000000000000062 .L0 
C:\Users\stapi\AppData\Local\Temp\ccEuEHvK.s:459    .text.etharp_raw:0000000000000086 .L0 
C:\Users\stapi\AppData\Local\Temp\ccEuEHvK.s:460    .text.etharp_raw:0000000000000086 .L0 
C:\Users\stapi\AppData\Local\Temp\ccEuEHvK.s:461    .text.etharp_raw:0000000000000086 .L0 
C:\Users\stapi\AppData\Local\Temp\ccEuEHvK.s:464    .text.etharp_raw:0000000000000088 .L0 
C:\Users\stapi\AppData\Local\Temp\ccEuEHvK.s:465    .text.etharp_raw:0000000000000088 .L0 
C:\Users\stapi\AppData\Local\Temp\ccEuEHvK.s:466    .text.etharp_raw:0000000000000088 .L0 
C:\Users\stapi\AppData\Local\Temp\ccEuEHvK.s:467    .text.etharp_raw:0000000000000088 .L0 
C:\Users\stapi\AppData\Local\Temp\ccEuEHvK.s:470    .text.etharp_raw:000000000000008a .L0 
C:\Users\stapi\AppData\Local\Temp\ccEuEHvK.s:471    .text.etharp_raw:000000000000008a .L0 
C:\Users\stapi\AppData\Local\Temp\ccEuEHvK.s:472    .text.etharp_raw:000000000000008a .L0 
C:\Users\stapi\AppData\Local\Temp\ccEuEHvK.s:476    .text.etharp_raw:0000000000000094 .L0 
C:\Users\stapi\AppData\Local\Temp\ccEuEHvK.s:480    .text.etharp_raw:00000000000000a0 .L0 
C:\Users\stapi\AppData\Local\Temp\ccEuEHvK.s:481    .text.etharp_raw:00000000000000a0 .L0 
C:\Users\stapi\AppData\Local\Temp\ccEuEHvK.s:485    .text.etharp_raw:00000000000000aa .L0 
C:\Users\stapi\AppData\Local\Temp\ccEuEHvK.s:486    .text.etharp_raw:00000000000000aa .L0 
C:\Users\stapi\AppData\Local\Temp\ccEuEHvK.s:497    .text.etharp_raw:00000000000000ce .L0 
C:\Users\stapi\AppData\Local\Temp\ccEuEHvK.s:498    .text.etharp_raw:00000000000000ce .L0 
C:\Users\stapi\AppData\Local\Temp\ccEuEHvK.s:499    .text.etharp_raw:00000000000000ce .L0 
C:\Users\stapi\AppData\Local\Temp\ccEuEHvK.s:502    .text.etharp_raw:00000000000000d0 .L0 
C:\Users\stapi\AppData\Local\Temp\ccEuEHvK.s:503    .text.etharp_raw:00000000000000d0 .L0 
C:\Users\stapi\AppData\Local\Temp\ccEuEHvK.s:504    .text.etharp_raw:00000000000000d0 .L0 
C:\Users\stapi\AppData\Local\Temp\ccEuEHvK.s:510    .text.etharp_raw:00000000000000e0 .L0 
C:\Users\stapi\AppData\Local\Temp\ccEuEHvK.s:516    .text.etharp_raw:00000000000000f0 .L0 
C:\Users\stapi\AppData\Local\Temp\ccEuEHvK.s:522    .text.etharp_raw:0000000000000100 .L0 
C:\Users\stapi\AppData\Local\Temp\ccEuEHvK.s:528    .text.etharp_raw:0000000000000110 .L0 
C:\Users\stapi\AppData\Local\Temp\ccEuEHvK.s:529    .text.etharp_raw:0000000000000110 .L0 
C:\Users\stapi\AppData\Local\Temp\ccEuEHvK.s:532    .text.etharp_raw:0000000000000116 .L0 
C:\Users\stapi\AppData\Local\Temp\ccEuEHvK.s:533    .text.etharp_raw:0000000000000116 .L0 
C:\Users\stapi\AppData\Local\Temp\ccEuEHvK.s:536    .text.etharp_raw:000000000000011c .L0 
C:\Users\stapi\AppData\Local\Temp\ccEuEHvK.s:538    .text.etharp_raw:000000000000011e .L0 
C:\Users\stapi\AppData\Local\Temp\ccEuEHvK.s:541    .text.etharp_raw:0000000000000124 .L0 
C:\Users\stapi\AppData\Local\Temp\ccEuEHvK.s:546    .text.etharp_raw:000000000000012e .L0 
C:\Users\stapi\AppData\Local\Temp\ccEuEHvK.s:548    .text.etharp_raw:0000000000000132 .L0 
C:\Users\stapi\AppData\Local\Temp\ccEuEHvK.s:550    .text.etharp_raw:0000000000000136 .L0 
C:\Users\stapi\AppData\Local\Temp\ccEuEHvK.s:551    .text.etharp_raw:0000000000000136 .L0 
C:\Users\stapi\AppData\Local\Temp\ccEuEHvK.s:553    .text.etharp_raw:000000000000013a .L0 
C:\Users\stapi\AppData\Local\Temp\ccEuEHvK.s:554    .text.etharp_raw:000000000000013a .L0 
C:\Users\stapi\AppData\Local\Temp\ccEuEHvK.s:558    .text.etharp_raw:0000000000000144 .L0 
C:\Users\stapi\AppData\Local\Temp\ccEuEHvK.s:559    .text.etharp_raw:0000000000000144 .L0 
C:\Users\stapi\AppData\Local\Temp\ccEuEHvK.s:563    .text.etharp_raw:000000000000014e .L0 
C:\Users\stapi\AppData\Local\Temp\ccEuEHvK.s:564    .text.etharp_raw:000000000000014e .L0 
C:\Users\stapi\AppData\Local\Temp\ccEuEHvK.s:565    .text.etharp_raw:000000000000014e .L0 
C:\Users\stapi\AppData\Local\Temp\ccEuEHvK.s:569    .text.etharp_raw:0000000000000150 .L0 
C:\Users\stapi\AppData\Local\Temp\ccEuEHvK.s:570    .text.etharp_raw:0000000000000158 .L0 
C:\Users\stapi\AppData\Local\Temp\ccEuEHvK.s:571    .text.etharp_raw:0000000000000158 .L0 
C:\Users\stapi\AppData\Local\Temp\ccEuEHvK.s:572    .text.etharp_raw:0000000000000158 .L0 
C:\Users\stapi\AppData\Local\Temp\ccEuEHvK.s:573    .text.etharp_raw:0000000000000158 .L0 
C:\Users\stapi\AppData\Local\Temp\ccEuEHvK.s:574    .text.etharp_raw:0000000000000158 .L0 
C:\Users\stapi\AppData\Local\Temp\ccEuEHvK.s:575    .text.etharp_raw:0000000000000158 .L0 
C:\Users\stapi\AppData\Local\Temp\ccEuEHvK.s:576    .text.etharp_raw:0000000000000158 .L0 
C:\Users\stapi\AppData\Local\Temp\ccEuEHvK.s:577    .text.etharp_raw:0000000000000158 .L0 
C:\Users\stapi\AppData\Local\Temp\ccEuEHvK.s:578    .text.etharp_raw:0000000000000158 .L0 
C:\Users\stapi\AppData\Local\Temp\ccEuEHvK.s:579    .text.etharp_raw:0000000000000158 .L0 
C:\Users\stapi\AppData\Local\Temp\ccEuEHvK.s:580    .text.etharp_raw:0000000000000158 .L0 
C:\Users\stapi\AppData\Local\Temp\ccEuEHvK.s:581    .text.etharp_raw:0000000000000158 .L0 
C:\Users\stapi\AppData\Local\Temp\ccEuEHvK.s:582    .text.etharp_raw:0000000000000158 .L0 
C:\Users\stapi\AppData\Local\Temp\ccEuEHvK.s:585    .text.etharp_raw:0000000000000158 .L0 
C:\Users\stapi\AppData\Local\Temp\ccEuEHvK.s:587    .text.etharp_raw:0000000000000158 .L0 
C:\Users\stapi\AppData\Local\Temp\ccEuEHvK.s:589    .text.etharp_raw:000000000000015c .L0 
C:\Users\stapi\AppData\Local\Temp\ccEuEHvK.s:596    .text.etharp_cleanup_netif:0000000000000000 etharp_cleanup_netif
C:\Users\stapi\AppData\Local\Temp\ccEuEHvK.s:599    .text.etharp_cleanup_netif:0000000000000000 .L0 
C:\Users\stapi\AppData\Local\Temp\ccEuEHvK.s:601    .text.etharp_cleanup_netif:0000000000000000 .L0 
C:\Users\stapi\AppData\Local\Temp\ccEuEHvK.s:602    .text.etharp_cleanup_netif:0000000000000008 .L0 
C:\Users\stapi\AppData\Local\Temp\ccEuEHvK.s:603    .text.etharp_cleanup_netif:0000000000000008 .L0 
C:\Users\stapi\AppData\Local\Temp\ccEuEHvK.s:604    .text.etharp_cleanup_netif:0000000000000008 .L0 
C:\Users\stapi\AppData\Local\Temp\ccEuEHvK.s:605    .text.etharp_cleanup_netif:0000000000000008 .L0 
C:\Users\stapi\AppData\Local\Temp\ccEuEHvK.s:606    .text.etharp_cleanup_netif:0000000000000008 .L0 
C:\Users\stapi\AppData\Local\Temp\ccEuEHvK.s:607    .text.etharp_cleanup_netif:0000000000000008 .L0 
C:\Users\stapi\AppData\Local\Temp\ccEuEHvK.s:609    .text.etharp_cleanup_netif:0000000000000008 .L0 
C:\Users\stapi\AppData\Local\Temp\ccEuEHvK.s:611    .text.etharp_cleanup_netif:0000000000000008 .L0 
C:\Users\stapi\AppData\Local\Temp\ccEuEHvK.s:612    .text.etharp_cleanup_netif:0000000000000008 .L0 
C:\Users\stapi\AppData\Local\Temp\ccEuEHvK.s:614    .text.etharp_cleanup_netif:000000000000000c .L0 
C:\Users\stapi\AppData\Local\Temp\ccEuEHvK.s:617    .text.etharp_cleanup_netif:0000000000000012 .L0 
C:\Users\stapi\AppData\Local\Temp\ccEuEHvK.s:619    .text.etharp_cleanup_netif:0000000000000014 .L0 
C:\Users\stapi\AppData\Local\Temp\ccEuEHvK.s:624    .text.etharp_cleanup_netif:0000000000000016 .L0 
C:\Users\stapi\AppData\Local\Temp\ccEuEHvK.s:625    .text.etharp_cleanup_netif:0000000000000016 .L0 
C:\Users\stapi\AppData\Local\Temp\ccEuEHvK.s:626    .text.etharp_cleanup_netif:0000000000000016 .L0 
C:\Users\stapi\AppData\Local\Temp\ccEuEHvK.s:629    .text.etharp_cleanup_netif:000000000000001c .L0 
C:\Users\stapi\AppData\Local\Temp\ccEuEHvK.s:632    .text.etharp_cleanup_netif:0000000000000022 .L0 
C:\Users\stapi\AppData\Local\Temp\ccEuEHvK.s:638    .text.etharp_cleanup_netif:000000000000002c .L0 
C:\Users\stapi\AppData\Local\Temp\ccEuEHvK.s:641    .text.etharp_cleanup_netif:000000000000002e .L0 
C:\Users\stapi\AppData\Local\Temp\ccEuEHvK.s:642    .text.etharp_cleanup_netif:000000000000002e .L0 
C:\Users\stapi\AppData\Local\Temp\ccEuEHvK.s:645    .text.etharp_cleanup_netif:0000000000000034 .L0 
C:\Users\stapi\AppData\Local\Temp\ccEuEHvK.s:646    .text.etharp_cleanup_netif:000000000000003c .L0 
C:\Users\stapi\AppData\Local\Temp\ccEuEHvK.s:647    .text.etharp_cleanup_netif:000000000000003c .L0 
C:\Users\stapi\AppData\Local\Temp\ccEuEHvK.s:648    .text.etharp_cleanup_netif:000000000000003c .L0 
C:\Users\stapi\AppData\Local\Temp\ccEuEHvK.s:649    .text.etharp_cleanup_netif:000000000000003c .L0 
C:\Users\stapi\AppData\Local\Temp\ccEuEHvK.s:650    .text.etharp_cleanup_netif:000000000000003c .L0 
C:\Users\stapi\AppData\Local\Temp\ccEuEHvK.s:651    .text.etharp_cleanup_netif:000000000000003c .L0 
C:\Users\stapi\AppData\Local\Temp\ccEuEHvK.s:652    .text.etharp_cleanup_netif:000000000000003c .L0 
C:\Users\stapi\AppData\Local\Temp\ccEuEHvK.s:666    .text.etharp_entry_dump:0000000000000000 etharp_entry_dump
C:\Users\stapi\AppData\Local\Temp\ccEuEHvK.s:669    .text.etharp_entry_dump:0000000000000000 .L0 
C:\Users\stapi\AppData\Local\Temp\ccEuEHvK.s:670    .text.etharp_entry_dump:0000000000000000 .L0 
C:\Users\stapi\AppData\Local\Temp\ccEuEHvK.s:671    .text.etharp_entry_dump:0000000000000008 .L0 
C:\Users\stapi\AppData\Local\Temp\ccEuEHvK.s:672    .text.etharp_entry_dump:0000000000000008 .L0 
C:\Users\stapi\AppData\Local\Temp\ccEuEHvK.s:673    .text.etharp_entry_dump:0000000000000008 .L0 
C:\Users\stapi\AppData\Local\Temp\ccEuEHvK.s:674    .text.etharp_entry_dump:0000000000000008 .L0 
C:\Users\stapi\AppData\Local\Temp\ccEuEHvK.s:675    .text.etharp_entry_dump:0000000000000008 .L0 
C:\Users\stapi\AppData\Local\Temp\ccEuEHvK.s:676    .text.etharp_entry_dump:0000000000000008 .L0 
C:\Users\stapi\AppData\Local\Temp\ccEuEHvK.s:677    .text.etharp_entry_dump:0000000000000008 .L0 
C:\Users\stapi\AppData\Local\Temp\ccEuEHvK.s:678    .text.etharp_entry_dump:0000000000000008 .L0 
C:\Users\stapi\AppData\Local\Temp\ccEuEHvK.s:679    .text.etharp_entry_dump:0000000000000008 .L0 
C:\Users\stapi\AppData\Local\Temp\ccEuEHvK.s:681    .text.etharp_entry_dump:0000000000000008 .L0 
C:\Users\stapi\AppData\Local\Temp\ccEuEHvK.s:683    .text.etharp_entry_dump:0000000000000008 .L0 
C:\Users\stapi\AppData\Local\Temp\ccEuEHvK.s:684    .text.etharp_entry_dump:0000000000000008 .L0 
C:\Users\stapi\AppData\Local\Temp\ccEuEHvK.s:685    .text.etharp_entry_dump:0000000000000008 .L0 
C:\Users\stapi\AppData\Local\Temp\ccEuEHvK.s:688    .text.etharp_entry_dump:000000000000000c .L0 
C:\Users\stapi\AppData\Local\Temp\ccEuEHvK.s:692    .text.etharp_entry_dump:0000000000000014 .L0 
C:\Users\stapi\AppData\Local\Temp\ccEuEHvK.s:693    .text.etharp_entry_dump:0000000000000016 .L0 
C:\Users\stapi\AppData\Local\Temp\ccEuEHvK.s:696    .text.etharp_entry_dump:000000000000001a .L0 
C:\Users\stapi\AppData\Local\Temp\ccEuEHvK.s:700    .text.etharp_entry_dump:000000000000001e .L0 
C:\Users\stapi\AppData\Local\Temp\ccEuEHvK.s:703    .text.etharp_entry_dump:0000000000000026 .L0 
C:\Users\stapi\AppData\Local\Temp\ccEuEHvK.s:706    .text.etharp_entry_dump:000000000000002a .L0 
C:\Users\stapi\AppData\Local\Temp\ccEuEHvK.s:711    .text.etharp_entry_dump:000000000000002c .L0 
C:\Users\stapi\AppData\Local\Temp\ccEuEHvK.s:712    .text.etharp_entry_dump:000000000000002c .L0 
C:\Users\stapi\AppData\Local\Temp\ccEuEHvK.s:713    .text.etharp_entry_dump:000000000000002c .L0 
C:\Users\stapi\AppData\Local\Temp\ccEuEHvK.s:721    .text.etharp_entry_dump:000000000000003c .L0 
C:\Users\stapi\AppData\Local\Temp\ccEuEHvK.s:723    .text.etharp_entry_dump:000000000000003e .L0 
C:\Users\stapi\AppData\Local\Temp\ccEuEHvK.s:725    .text.etharp_entry_dump:0000000000000040 .L0 
C:\Users\stapi\AppData\Local\Temp\ccEuEHvK.s:729    .text.etharp_entry_dump:000000000000004a .L0 
C:\Users\stapi\AppData\Local\Temp\ccEuEHvK.s:732    .text.etharp_entry_dump:0000000000000052 .L0 
C:\Users\stapi\AppData\Local\Temp\ccEuEHvK.s:745    .text.etharp_entry_dump:0000000000000078 .L0 
C:\Users\stapi\AppData\Local\Temp\ccEuEHvK.s:748    .text.etharp_entry_dump:000000000000007a .L0 
C:\Users\stapi\AppData\Local\Temp\ccEuEHvK.s:756    .text.etharp_entry_dump:000000000000008a .L0 
C:\Users\stapi\AppData\Local\Temp\ccEuEHvK.s:760    .text.etharp_entry_dump:000000000000008c .L0 
C:\Users\stapi\AppData\Local\Temp\ccEuEHvK.s:764    .text.etharp_entry_dump:0000000000000094 .L0 
C:\Users\stapi\AppData\Local\Temp\ccEuEHvK.s:765    .text.etharp_entry_dump:0000000000000094 .L0 
C:\Users\stapi\AppData\Local\Temp\ccEuEHvK.s:766    .text.etharp_entry_dump:0000000000000094 .L0 
C:\Users\stapi\AppData\Local\Temp\ccEuEHvK.s:768    .text.etharp_entry_dump:0000000000000098 .L0 
C:\Users\stapi\AppData\Local\Temp\ccEuEHvK.s:769    .text.etharp_entry_dump:000000000000009a .L0 
C:\Users\stapi\AppData\Local\Temp\ccEuEHvK.s:771    .text.etharp_entry_dump:00000000000000a2 .L0 
C:\Users\stapi\AppData\Local\Temp\ccEuEHvK.s:772    .text.etharp_entry_dump:00000000000000a2 .L0 
C:\Users\stapi\AppData\Local\Temp\ccEuEHvK.s:773    .text.etharp_entry_dump:00000000000000a2 .L0 
C:\Users\stapi\AppData\Local\Temp\ccEuEHvK.s:774    .text.etharp_entry_dump:00000000000000a2 .L0 
C:\Users\stapi\AppData\Local\Temp\ccEuEHvK.s:775    .text.etharp_entry_dump:00000000000000a2 .L0 
C:\Users\stapi\AppData\Local\Temp\ccEuEHvK.s:776    .text.etharp_entry_dump:00000000000000a2 .L0 
C:\Users\stapi\AppData\Local\Temp\ccEuEHvK.s:777    .text.etharp_entry_dump:00000000000000a2 .L0 
C:\Users\stapi\AppData\Local\Temp\ccEuEHvK.s:778    .text.etharp_entry_dump:00000000000000a2 .L0 
C:\Users\stapi\AppData\Local\Temp\ccEuEHvK.s:779    .text.etharp_entry_dump:00000000000000a2 .L0 
C:\Users\stapi\AppData\Local\Temp\ccEuEHvK.s:780    .text.etharp_entry_dump:00000000000000a2 .L0 
C:\Users\stapi\AppData\Local\Temp\ccEuEHvK.s:791    .text.etharp_find_addr:0000000000000000 etharp_find_addr
C:\Users\stapi\AppData\Local\Temp\ccEuEHvK.s:794    .text.etharp_find_addr:0000000000000000 .L0 
C:\Users\stapi\AppData\Local\Temp\ccEuEHvK.s:796    .text.etharp_find_addr:0000000000000000 .L0 
C:\Users\stapi\AppData\Local\Temp\ccEuEHvK.s:797    .text.etharp_find_addr:0000000000000008 .L0 
C:\Users\stapi\AppData\Local\Temp\ccEuEHvK.s:798    .text.etharp_find_addr:0000000000000008 .L0 
C:\Users\stapi\AppData\Local\Temp\ccEuEHvK.s:799    .text.etharp_find_addr:0000000000000008 .L0 
C:\Users\stapi\AppData\Local\Temp\ccEuEHvK.s:800    .text.etharp_find_addr:0000000000000008 .L0 
C:\Users\stapi\AppData\Local\Temp\ccEuEHvK.s:802    .text.etharp_find_addr:0000000000000008 .L0 
C:\Users\stapi\AppData\Local\Temp\ccEuEHvK.s:803    .text.etharp_find_addr:0000000000000008 .L0 
C:\Users\stapi\AppData\Local\Temp\ccEuEHvK.s:804    .text.etharp_find_addr:0000000000000008 .L0 
C:\Users\stapi\AppData\Local\Temp\ccEuEHvK.s:807    .text.etharp_find_addr:000000000000000c .L0 
C:\Users\stapi\AppData\Local\Temp\ccEuEHvK.s:810    .text.etharp_find_addr:000000000000000e .L0 
C:\Users\stapi\AppData\Local\Temp\ccEuEHvK.s:811    .text.etharp_find_addr:000000000000000e .L0 
C:\Users\stapi\AppData\Local\Temp\ccEuEHvK.s:826    .text.etharp_find_addr:0000000000000032 .L0 
C:\Users\stapi\AppData\Local\Temp\ccEuEHvK.s:827    .text.etharp_find_addr:0000000000000032 .L0 
C:\Users\stapi\AppData\Local\Temp\ccEuEHvK.s:828    .text.etharp_find_addr:0000000000000032 .L0 
C:\Users\stapi\AppData\Local\Temp\ccEuEHvK.s:834    .text.etharp_find_addr:0000000000000038 .L0 
C:\Users\stapi\AppData\Local\Temp\ccEuEHvK.s:835    .text.etharp_find_addr:0000000000000038 .L0 
C:\Users\stapi\AppData\Local\Temp\ccEuEHvK.s:836    .text.etharp_find_addr:0000000000000038 .L0 
C:\Users\stapi\AppData\Local\Temp\ccEuEHvK.s:837    .text.etharp_find_addr:0000000000000038 .L0 
C:\Users\stapi\AppData\Local\Temp\ccEuEHvK.s:840    .text.etharp_find_addr:000000000000003a .L0 
C:\Users\stapi\AppData\Local\Temp\ccEuEHvK.s:849    .text.etharp_find_addr:0000000000000048 .L0 
C:\Users\stapi\AppData\Local\Temp\ccEuEHvK.s:850    .text.etharp_find_addr:0000000000000048 .L0 
C:\Users\stapi\AppData\Local\Temp\ccEuEHvK.s:852    .text.etharp_find_addr:000000000000004a .L0 
C:\Users\stapi\AppData\Local\Temp\ccEuEHvK.s:854    .text.etharp_find_addr:000000000000004e .L0 
C:\Users\stapi\AppData\Local\Temp\ccEuEHvK.s:862    .text.etharp_find_addr:0000000000000062 .L0 
C:\Users\stapi\AppData\Local\Temp\ccEuEHvK.s:866    .text.etharp_find_addr:000000000000006c .L0 
C:\Users\stapi\AppData\Local\Temp\ccEuEHvK.s:867    .text.etharp_find_addr:000000000000006c .L0 
C:\Users\stapi\AppData\Local\Temp\ccEuEHvK.s:870    .text.etharp_find_addr:0000000000000072 .L0 
C:\Users\stapi\AppData\Local\Temp\ccEuEHvK.s:872    .text.etharp_find_addr:0000000000000074 .L0 
C:\Users\stapi\AppData\Local\Temp\ccEuEHvK.s:874    .text.etharp_find_addr:0000000000000076 .L0 
C:\Users\stapi\AppData\Local\Temp\ccEuEHvK.s:875    .text.etharp_find_addr:0000000000000076 .L0 
C:\Users\stapi\AppData\Local\Temp\ccEuEHvK.s:877    .text.etharp_find_addr:0000000000000078 .L0 
C:\Users\stapi\AppData\Local\Temp\ccEuEHvK.s:880    .text.etharp_find_addr:000000000000007a .L0 
C:\Users\stapi\AppData\Local\Temp\ccEuEHvK.s:881    .text.etharp_find_addr:000000000000007a .L0 
C:\Users\stapi\AppData\Local\Temp\ccEuEHvK.s:882    .text.etharp_find_addr:0000000000000082 .L0 
C:\Users\stapi\AppData\Local\Temp\ccEuEHvK.s:883    .text.etharp_find_addr:0000000000000082 .L0 
C:\Users\stapi\AppData\Local\Temp\ccEuEHvK.s:884    .text.etharp_find_addr:0000000000000082 .L0 
C:\Users\stapi\AppData\Local\Temp\ccEuEHvK.s:885    .text.etharp_find_addr:0000000000000082 .L0 
C:\Users\stapi\AppData\Local\Temp\ccEuEHvK.s:886    .text.etharp_find_addr:0000000000000082 .L0 
C:\Users\stapi\AppData\Local\Temp\ccEuEHvK.s:888    .text.etharp_find_addr:0000000000000082 .L0 
C:\Users\stapi\AppData\Local\Temp\ccEuEHvK.s:890    .text.etharp_find_addr:0000000000000082 .L0 
C:\Users\stapi\AppData\Local\Temp\ccEuEHvK.s:892    .text.etharp_find_addr:0000000000000086 .L0 
C:\Users\stapi\AppData\Local\Temp\ccEuEHvK.s:906    .text.etharp_get_entry:0000000000000000 etharp_get_entry
C:\Users\stapi\AppData\Local\Temp\ccEuEHvK.s:909    .text.etharp_get_entry:0000000000000000 .L0 
C:\Users\stapi\AppData\Local\Temp\ccEuEHvK.s:911    .text.etharp_get_entry:0000000000000000 .L0 
C:\Users\stapi\AppData\Local\Temp\ccEuEHvK.s:912    .text.etharp_get_entry:0000000000000008 .L0 
C:\Users\stapi\AppData\Local\Temp\ccEuEHvK.s:913    .text.etharp_get_entry:0000000000000008 .L0 
C:\Users\stapi\AppData\Local\Temp\ccEuEHvK.s:915    .text.etharp_get_entry:0000000000000008 .L0 
C:\Users\stapi\AppData\Local\Temp\ccEuEHvK.s:916    .text.etharp_get_entry:0000000000000008 .L0 
C:\Users\stapi\AppData\Local\Temp\ccEuEHvK.s:918    .text.etharp_get_entry:000000000000000a .L0 
C:\Users\stapi\AppData\Local\Temp\ccEuEHvK.s:919    .text.etharp_get_entry:000000000000000a .L0 
C:\Users\stapi\AppData\Local\Temp\ccEuEHvK.s:934    .text.etharp_get_entry:000000000000002e .L0 
C:\Users\stapi\AppData\Local\Temp\ccEuEHvK.s:935    .text.etharp_get_entry:000000000000002e .L0 
C:\Users\stapi\AppData\Local\Temp\ccEuEHvK.s:936    .text.etharp_get_entry:000000000000002e .L0 
C:\Users\stapi\AppData\Local\Temp\ccEuEHvK.s:940    .text.etharp_get_entry:0000000000000030 .L0 
C:\Users\stapi\AppData\Local\Temp\ccEuEHvK.s:941    .text.etharp_get_entry:0000000000000030 .L0 
C:\Users\stapi\AppData\Local\Temp\ccEuEHvK.s:942    .text.etharp_get_entry:0000000000000030 .L0 
C:\Users\stapi\AppData\Local\Temp\ccEuEHvK.s:943    .text.etharp_get_entry:0000000000000030 .L0 
C:\Users\stapi\AppData\Local\Temp\ccEuEHvK.s:945    .text.etharp_get_entry:0000000000000032 .L0 
C:\Users\stapi\AppData\Local\Temp\ccEuEHvK.s:946    .text.etharp_get_entry:0000000000000032 .L0 
C:\Users\stapi\AppData\Local\Temp\ccEuEHvK.s:961    .text.etharp_get_entry:0000000000000056 .L0 
C:\Users\stapi\AppData\Local\Temp\ccEuEHvK.s:962    .text.etharp_get_entry:0000000000000056 .L0 
C:\Users\stapi\AppData\Local\Temp\ccEuEHvK.s:963    .text.etharp_get_entry:0000000000000056 .L0 
C:\Users\stapi\AppData\Local\Temp\ccEuEHvK.s:967    .text.etharp_get_entry:0000000000000058 .L0 
C:\Users\stapi\AppData\Local\Temp\ccEuEHvK.s:968    .text.etharp_get_entry:0000000000000058 .L0 
C:\Users\stapi\AppData\Local\Temp\ccEuEHvK.s:969    .text.etharp_get_entry:0000000000000058 .L0 
C:\Users\stapi\AppData\Local\Temp\ccEuEHvK.s:970    .text.etharp_get_entry:0000000000000058 .L0 
C:\Users\stapi\AppData\Local\Temp\ccEuEHvK.s:972    .text.etharp_get_entry:000000000000005a .L0 
C:\Users\stapi\AppData\Local\Temp\ccEuEHvK.s:973    .text.etharp_get_entry:000000000000005a .L0 
C:\Users\stapi\AppData\Local\Temp\ccEuEHvK.s:988    .text.etharp_get_entry:000000000000007e .L0 
C:\Users\stapi\AppData\Local\Temp\ccEuEHvK.s:989    .text.etharp_get_entry:000000000000007e .L0 
C:\Users\stapi\AppData\Local\Temp\ccEuEHvK.s:990    .text.etharp_get_entry:000000000000007e .L0 
C:\Users\stapi\AppData\Local\Temp\ccEuEHvK.s:995    .text.etharp_get_entry:0000000000000082 .L0 
C:\Users\stapi\AppData\Local\Temp\ccEuEHvK.s:996    .text.etharp_get_entry:0000000000000082 .L0 
C:\Users\stapi\AppData\Local\Temp\ccEuEHvK.s:997    .text.etharp_get_entry:0000000000000082 .L0 
C:\Users\stapi\AppData\Local\Temp\ccEuEHvK.s:998    .text.etharp_get_entry:0000000000000082 .L0 
C:\Users\stapi\AppData\Local\Temp\ccEuEHvK.s:1000   .text.etharp_get_entry:0000000000000084 .L0 
C:\Users\stapi\AppData\Local\Temp\ccEuEHvK.s:1003   .text.etharp_get_entry:0000000000000086 .L0 
C:\Users\stapi\AppData\Local\Temp\ccEuEHvK.s:1005   .text.etharp_get_entry:000000000000008a .L0 
C:\Users\stapi\AppData\Local\Temp\ccEuEHvK.s:1011   .text.etharp_get_entry:0000000000000098 .L0 
C:\Users\stapi\AppData\Local\Temp\ccEuEHvK.s:1013   .text.etharp_get_entry:000000000000009a .L0 
C:\Users\stapi\AppData\Local\Temp\ccEuEHvK.s:1015   .text.etharp_get_entry:000000000000009c .L0 
C:\Users\stapi\AppData\Local\Temp\ccEuEHvK.s:1017   .text.etharp_get_entry:00000000000000a0 .L0 
C:\Users\stapi\AppData\Local\Temp\ccEuEHvK.s:1020   .text.etharp_get_entry:00000000000000a8 .L0 
C:\Users\stapi\AppData\Local\Temp\ccEuEHvK.s:1021   .text.etharp_get_entry:00000000000000a8 .L0 
C:\Users\stapi\AppData\Local\Temp\ccEuEHvK.s:1024   .text.etharp_get_entry:00000000000000ae .L0 
C:\Users\stapi\AppData\Local\Temp\ccEuEHvK.s:1026   .text.etharp_get_entry:00000000000000b0 .L0 
C:\Users\stapi\AppData\Local\Temp\ccEuEHvK.s:1027   .text.etharp_get_entry:00000000000000b0 .L0 
C:\Users\stapi\AppData\Local\Temp\ccEuEHvK.s:1030   .text.etharp_get_entry:00000000000000b4 .L0 
C:\Users\stapi\AppData\Local\Temp\ccEuEHvK.s:1033   .text.etharp_get_entry:00000000000000b8 .L0 
C:\Users\stapi\AppData\Local\Temp\ccEuEHvK.s:1035   .text.etharp_get_entry:00000000000000ba .L0 
C:\Users\stapi\AppData\Local\Temp\ccEuEHvK.s:1036   .text.etharp_get_entry:00000000000000ba .L0 
C:\Users\stapi\AppData\Local\Temp\ccEuEHvK.s:1038   .text.etharp_get_entry:00000000000000bc .L0 
C:\Users\stapi\AppData\Local\Temp\ccEuEHvK.s:1039   .text.etharp_get_entry:00000000000000bc .L0 
C:\Users\stapi\AppData\Local\Temp\ccEuEHvK.s:1042   .text.etharp_get_entry:00000000000000be .L0 
C:\Users\stapi\AppData\Local\Temp\ccEuEHvK.s:1043   .text.etharp_get_entry:00000000000000c6 .L0 
C:\Users\stapi\AppData\Local\Temp\ccEuEHvK.s:1044   .text.etharp_get_entry:00000000000000c6 .L0 
C:\Users\stapi\AppData\Local\Temp\ccEuEHvK.s:1045   .text.etharp_get_entry:00000000000000c6 .L0 
C:\Users\stapi\AppData\Local\Temp\ccEuEHvK.s:1056   .text.etharp_input:0000000000000000 etharp_input
C:\Users\stapi\AppData\Local\Temp\ccEuEHvK.s:1059   .text.etharp_input:0000000000000000 .L0 
C:\Users\stapi\AppData\Local\Temp\ccEuEHvK.s:1061   .text.etharp_input:0000000000000000 .L0 
C:\Users\stapi\AppData\Local\Temp\ccEuEHvK.s:1062   .text.etharp_input:0000000000000008 .L0 
C:\Users\stapi\AppData\Local\Temp\ccEuEHvK.s:1063   .text.etharp_input:0000000000000008 .L0 
C:\Users\stapi\AppData\Local\Temp\ccEuEHvK.s:1064   .text.etharp_input:0000000000000008 .L0 
C:\Users\stapi\AppData\Local\Temp\ccEuEHvK.s:1065   .text.etharp_input:0000000000000008 .L0 
C:\Users\stapi\AppData\Local\Temp\ccEuEHvK.s:1066   .text.etharp_input:0000000000000008 .L0 
C:\Users\stapi\AppData\Local\Temp\ccEuEHvK.s:1067   .text.etharp_input:0000000000000008 .L0 
C:\Users\stapi\AppData\Local\Temp\ccEuEHvK.s:1068   .text.etharp_input:0000000000000008 .L0 
C:\Users\stapi\AppData\Local\Temp\ccEuEHvK.s:1069   .text.etharp_input:0000000000000008 .L0 
C:\Users\stapi\AppData\Local\Temp\ccEuEHvK.s:1070   .text.etharp_input:0000000000000008 .L0 
C:\Users\stapi\AppData\Local\Temp\ccEuEHvK.s:1072   .text.etharp_input:0000000000000008 .L0 
C:\Users\stapi\AppData\Local\Temp\ccEuEHvK.s:1073   .text.etharp_input:0000000000000008 .L0 
C:\Users\stapi\AppData\Local\Temp\ccEuEHvK.s:1074   .text.etharp_input:0000000000000008 .L0 
C:\Users\stapi\AppData\Local\Temp\ccEuEHvK.s:1075   .text.etharp_input:0000000000000008 .L0 
C:\Users\stapi\AppData\Local\Temp\ccEuEHvK.s:1076   .text.etharp_input:0000000000000008 .L0 
C:\Users\stapi\AppData\Local\Temp\ccEuEHvK.s:1077   .text.etharp_input:0000000000000008 .L0 
C:\Users\stapi\AppData\Local\Temp\ccEuEHvK.s:1078   .text.etharp_input:0000000000000008 .L0 
C:\Users\stapi\AppData\Local\Temp\ccEuEHvK.s:1079   .text.etharp_input:000000000000000a .L0 
C:\Users\stapi\AppData\Local\Temp\ccEuEHvK.s:1081   .text.etharp_input:000000000000000a .L0 
C:\Users\stapi\AppData\Local\Temp\ccEuEHvK.s:1083   .text.etharp_input:000000000000000c .L0 
C:\Users\stapi\AppData\Local\Temp\ccEuEHvK.s:1084   .text.etharp_input:000000000000000c .L0 
C:\Users\stapi\AppData\Local\Temp\ccEuEHvK.s:1097   .text.etharp_input:0000000000000030 .L0 
C:\Users\stapi\AppData\Local\Temp\ccEuEHvK.s:1098   .text.etharp_input:0000000000000030 .L0 
C:\Users\stapi\AppData\Local\Temp\ccEuEHvK.s:1099   .text.etharp_input:0000000000000030 .L0 
C:\Users\stapi\AppData\Local\Temp\ccEuEHvK.s:1103   .text.etharp_input:0000000000000032 .L0 
C:\Users\stapi\AppData\Local\Temp\ccEuEHvK.s:1106   .text.etharp_input:0000000000000036 .L0 
C:\Users\stapi\AppData\Local\Temp\ccEuEHvK.s:1107   .text.etharp_input:0000000000000036 .L0 
C:\Users\stapi\AppData\Local\Temp\ccEuEHvK.s:1109   .text.etharp_input:0000000000000036 .L0 
C:\Users\stapi\AppData\Local\Temp\ccEuEHvK.s:1110   .text.etharp_input:0000000000000036 .L0 
C:\Users\stapi\AppData\Local\Temp\ccEuEHvK.s:1111   .text.etharp_input:0000000000000036 .L0 
C:\Users\stapi\AppData\Local\Temp\ccEuEHvK.s:1115   .text.etharp_input:0000000000000040 .L0 
C:\Users\stapi\AppData\Local\Temp\ccEuEHvK.s:1119   .text.etharp_input:000000000000004a .L0 
C:\Users\stapi\AppData\Local\Temp\ccEuEHvK.s:1123   .text.etharp_input:0000000000000054 .L0 
C:\Users\stapi\AppData\Local\Temp\ccEuEHvK.s:1127   .text.etharp_input:000000000000005e .L0 
C:\Users\stapi\AppData\Local\Temp\ccEuEHvK.s:1131   .text.etharp_input:0000000000000068 .L0 
C:\Users\stapi\AppData\Local\Temp\ccEuEHvK.s:1137   .text.etharp_input:0000000000000070 .L0 
C:\Users\stapi\AppData\Local\Temp\ccEuEHvK.s:1141   .text.etharp_input:000000000000007a .L0 
C:\Users\stapi\AppData\Local\Temp\ccEuEHvK.s:1142   .text.etharp_input:000000000000007c .L0 
C:\Users\stapi\AppData\Local\Temp\ccEuEHvK.s:1143   .text.etharp_input:000000000000007c .L0 
C:\Users\stapi\AppData\Local\Temp\ccEuEHvK.s:1145   .text.etharp_input:0000000000000084 .L0 
C:\Users\stapi\AppData\Local\Temp\ccEuEHvK.s:1146   .text.etharp_input:0000000000000084 .L0 
C:\Users\stapi\AppData\Local\Temp\ccEuEHvK.s:1147   .text.etharp_input:0000000000000084 .L0 
C:\Users\stapi\AppData\Local\Temp\ccEuEHvK.s:1148   .text.etharp_input:0000000000000084 .L0 
C:\Users\stapi\AppData\Local\Temp\ccEuEHvK.s:1149   .text.etharp_input:0000000000000084 .L0 
C:\Users\stapi\AppData\Local\Temp\ccEuEHvK.s:1150   .text.etharp_input:0000000000000084 .L0 
C:\Users\stapi\AppData\Local\Temp\ccEuEHvK.s:1151   .text.etharp_input:0000000000000084 .L0 
C:\Users\stapi\AppData\Local\Temp\ccEuEHvK.s:1152   .text.etharp_input:0000000000000084 .L0 
C:\Users\stapi\AppData\Local\Temp\ccEuEHvK.s:1153   .text.etharp_input:0000000000000084 .L0 
C:\Users\stapi\AppData\Local\Temp\ccEuEHvK.s:1156   .text.etharp_input:0000000000000084 .L0 
C:\Users\stapi\AppData\Local\Temp\ccEuEHvK.s:1159   .text.etharp_input:0000000000000086 .L0 
C:\Users\stapi\AppData\Local\Temp\ccEuEHvK.s:1160   .text.etharp_input:0000000000000086 .L0 
C:\Users\stapi\AppData\Local\Temp\ccEuEHvK.s:1168   .text.etharp_input:0000000000000096 .L0 
C:\Users\stapi\AppData\Local\Temp\ccEuEHvK.s:1174   .text.etharp_input:00000000000000a6 .L0 
C:\Users\stapi\AppData\Local\Temp\ccEuEHvK.s:1175   .text.etharp_input:00000000000000a6 .L0 
C:\Users\stapi\AppData\Local\Temp\ccEuEHvK.s:1177   .text.etharp_input:00000000000000a8 .L0 
C:\Users\stapi\AppData\Local\Temp\ccEuEHvK.s:1179   .text.etharp_input:00000000000000aa .L0 
C:\Users\stapi\AppData\Local\Temp\ccEuEHvK.s:1180   .text.etharp_input:00000000000000aa .L0 
C:\Users\stapi\AppData\Local\Temp\ccEuEHvK.s:1182   .text.etharp_input:00000000000000ac .L0 
C:\Users\stapi\AppData\Local\Temp\ccEuEHvK.s:1184   .text.etharp_input:00000000000000ae .L0 
C:\Users\stapi\AppData\Local\Temp\ccEuEHvK.s:1186   .text.etharp_input:00000000000000b2 .L0 
C:\Users\stapi\AppData\Local\Temp\ccEuEHvK.s:1189   .text.etharp_input:00000000000000b6 .L0 
C:\Users\stapi\AppData\Local\Temp\ccEuEHvK.s:1196   .text.etharp_input:00000000000000be .L0 
C:\Users\stapi\AppData\Local\Temp\ccEuEHvK.s:1197   .text.etharp_input:00000000000000be .L0 
C:\Users\stapi\AppData\Local\Temp\ccEuEHvK.s:1198   .text.etharp_input:00000000000000be .L0 
C:\Users\stapi\AppData\Local\Temp\ccEuEHvK.s:1202   .text.etharp_input:00000000000000c8 .L0 
C:\Users\stapi\AppData\Local\Temp\ccEuEHvK.s:1203   .text.etharp_input:00000000000000c8 .L0 
C:\Users\stapi\AppData\Local\Temp\ccEuEHvK.s:1214   .text.etharp_input:00000000000000ec .L0 
C:\Users\stapi\AppData\Local\Temp\ccEuEHvK.s:1215   .text.etharp_input:00000000000000ec .L0 
C:\Users\stapi\AppData\Local\Temp\ccEuEHvK.s:1216   .text.etharp_input:00000000000000ec .L0 
C:\Users\stapi\AppData\Local\Temp\ccEuEHvK.s:1222   .text.etharp_input:00000000000000ee .L0 
C:\Users\stapi\AppData\Local\Temp\ccEuEHvK.s:1224   .text.etharp_input:00000000000000f0 .L0 
C:\Users\stapi\AppData\Local\Temp\ccEuEHvK.s:1231   .text.etharp_input:00000000000000f4 .L0 
C:\Users\stapi\AppData\Local\Temp\ccEuEHvK.s:1235   .text.etharp_input:00000000000000f6 .L0 
C:\Users\stapi\AppData\Local\Temp\ccEuEHvK.s:1239   .text.etharp_input:00000000000000fa .L0 
C:\Users\stapi\AppData\Local\Temp\ccEuEHvK.s:1240   .text.etharp_input:00000000000000fa .L0 
C:\Users\stapi\AppData\Local\Temp\ccEuEHvK.s:1241   .text.etharp_input:00000000000000fa .L0 
C:\Users\stapi\AppData\Local\Temp\ccEuEHvK.s:1242   .text.etharp_input:00000000000000fa .L0 
C:\Users\stapi\AppData\Local\Temp\ccEuEHvK.s:1243   .text.etharp_input:00000000000000fa .L0 
C:\Users\stapi\AppData\Local\Temp\ccEuEHvK.s:1245   .text.etharp_input:00000000000000fc .L0 
C:\Users\stapi\AppData\Local\Temp\ccEuEHvK.s:1249   .text.etharp_input:0000000000000106 .L0 
C:\Users\stapi\AppData\Local\Temp\ccEuEHvK.s:1251   .text.etharp_input:0000000000000108 .L0 
C:\Users\stapi\AppData\Local\Temp\ccEuEHvK.s:1253   .text.etharp_input:000000000000010a .L0 
C:\Users\stapi\AppData\Local\Temp\ccEuEHvK.s:1255   .text.etharp_input:000000000000010e .L0 
C:\Users\stapi\AppData\Local\Temp\ccEuEHvK.s:1257   .text.etharp_input:0000000000000112 .L0 
C:\Users\stapi\AppData\Local\Temp\ccEuEHvK.s:1259   .text.etharp_input:0000000000000116 .L0 
C:\Users\stapi\AppData\Local\Temp\ccEuEHvK.s:1260   .text.etharp_input:0000000000000116 .L0 
C:\Users\stapi\AppData\Local\Temp\ccEuEHvK.s:1269   .text.etharp_input:0000000000000126 .L0 
C:\Users\stapi\AppData\Local\Temp\ccEuEHvK.s:1270   .text.etharp_input:0000000000000126 .L0 
C:\Users\stapi\AppData\Local\Temp\ccEuEHvK.s:1272   .text.etharp_input:000000000000012a .L0 
C:\Users\stapi\AppData\Local\Temp\ccEuEHvK.s:1273   .text.etharp_input:000000000000012a .L0 
C:\Users\stapi\AppData\Local\Temp\ccEuEHvK.s:1280   .text.etharp_input:000000000000013a .L0 
C:\Users\stapi\AppData\Local\Temp\ccEuEHvK.s:1283   .text.etharp_input:000000000000013e .L0 
C:\Users\stapi\AppData\Local\Temp\ccEuEHvK.s:1286   .text.etharp_input:0000000000000142 .L0 
C:\Users\stapi\AppData\Local\Temp\ccEuEHvK.s:1288   .text.etharp_input:0000000000000144 .L0 
C:\Users\stapi\AppData\Local\Temp\ccEuEHvK.s:1290   .text.etharp_input:0000000000000148 .L0 
C:\Users\stapi\AppData\Local\Temp\ccEuEHvK.s:1291   .text.etharp_input:0000000000000148 .L0 
C:\Users\stapi\AppData\Local\Temp\ccEuEHvK.s:1293   .text.etharp_input:000000000000014c .L0 
C:\Users\stapi\AppData\Local\Temp\ccEuEHvK.s:1294   .text.etharp_input:000000000000014c .L0 
C:\Users\stapi\AppData\Local\Temp\ccEuEHvK.s:1295   .text.etharp_input:000000000000014c .L0 
C:\Users\stapi\AppData\Local\Temp\ccEuEHvK.s:1299   .text.etharp_input:0000000000000156 .L0 
C:\Users\stapi\AppData\Local\Temp\ccEuEHvK.s:1300   .text.etharp_input:0000000000000156 .L0 
C:\Users\stapi\AppData\Local\Temp\ccEuEHvK.s:1302   .text.etharp_input:000000000000015a .L0 
C:\Users\stapi\AppData\Local\Temp\ccEuEHvK.s:1304   .text.etharp_input:000000000000015e .L0 
C:\Users\stapi\AppData\Local\Temp\ccEuEHvK.s:1305   .text.etharp_input:000000000000015e .L0 
C:\Users\stapi\AppData\Local\Temp\ccEuEHvK.s:1309   .text.etharp_input:0000000000000162 .L0 
C:\Users\stapi\AppData\Local\Temp\ccEuEHvK.s:1310   .text.etharp_input:0000000000000162 .L0 
C:\Users\stapi\AppData\Local\Temp\ccEuEHvK.s:1311   .text.etharp_input:0000000000000162 .L0 
C:\Users\stapi\AppData\Local\Temp\ccEuEHvK.s:1313   .text.etharp_input:0000000000000164 .L0 
C:\Users\stapi\AppData\Local\Temp\ccEuEHvK.s:1315   .text.etharp_input:0000000000000168 .L0 
C:\Users\stapi\AppData\Local\Temp\ccEuEHvK.s:1323   .text.etharp_input:000000000000017e .L0 
C:\Users\stapi\AppData\Local\Temp\ccEuEHvK.s:1331   .text.etharp_input:0000000000000188 .L0 
C:\Users\stapi\AppData\Local\Temp\ccEuEHvK.s:1332   .text.etharp_input:0000000000000188 .L0 
C:\Users\stapi\AppData\Local\Temp\ccEuEHvK.s:1337   .text.etharp_input:0000000000000194 .L0 
C:\Users\stapi\AppData\Local\Temp\ccEuEHvK.s:1342   .text.etharp_input:00000000000001a4 .L0 
C:\Users\stapi\AppData\Local\Temp\ccEuEHvK.s:1343   .text.etharp_input:00000000000001a4 .L0 
C:\Users\stapi\AppData\Local\Temp\ccEuEHvK.s:1348   .text.etharp_input:00000000000001b0 .L0 
C:\Users\stapi\AppData\Local\Temp\ccEuEHvK.s:1351   .text.etharp_input:00000000000001b2 .L0 
C:\Users\stapi\AppData\Local\Temp\ccEuEHvK.s:1352   .text.etharp_input:00000000000001b2 .L0 
C:\Users\stapi\AppData\Local\Temp\ccEuEHvK.s:1353   .text.etharp_input:00000000000001b2 .L0 
C:\Users\stapi\AppData\Local\Temp\ccEuEHvK.s:1355   .text.etharp_input:00000000000001b6 .L0 
C:\Users\stapi\AppData\Local\Temp\ccEuEHvK.s:1356   .text.etharp_input:00000000000001b6 .L0 
C:\Users\stapi\AppData\Local\Temp\ccEuEHvK.s:1358   .text.etharp_input:00000000000001ba .L0 
C:\Users\stapi\AppData\Local\Temp\ccEuEHvK.s:1368   .text.etharp_input:00000000000001d6 .L0 
C:\Users\stapi\AppData\Local\Temp\ccEuEHvK.s:1375   .text.etharp_request:0000000000000000 etharp_request
C:\Users\stapi\AppData\Local\Temp\ccEuEHvK.s:1378   .text.etharp_request:0000000000000000 .L0 
C:\Users\stapi\AppData\Local\Temp\ccEuEHvK.s:1380   .text.etharp_request:0000000000000000 .L0 
C:\Users\stapi\AppData\Local\Temp\ccEuEHvK.s:1381   .text.etharp_request:0000000000000000 .L0 
C:\Users\stapi\AppData\Local\Temp\ccEuEHvK.s:1384   .text.etharp_request:0000000000000000 .L0 
C:\Users\stapi\AppData\Local\Temp\ccEuEHvK.s:1385   .text.etharp_request:0000000000000000 .L0 
C:\Users\stapi\AppData\Local\Temp\ccEuEHvK.s:1386   .text.etharp_request:0000000000000000 .L0 
C:\Users\stapi\AppData\Local\Temp\ccEuEHvK.s:1388   .text.etharp_request:0000000000000004 .L0 
C:\Users\stapi\AppData\Local\Temp\ccEuEHvK.s:1401   .text.etharp_request:0000000000000026 .L0 
C:\Users\stapi\AppData\Local\Temp\ccEuEHvK.s:1408   .text.etharp_tmr:0000000000000000 etharp_tmr
C:\Users\stapi\AppData\Local\Temp\ccEuEHvK.s:1411   .text.etharp_tmr:0000000000000000 .L0 
C:\Users\stapi\AppData\Local\Temp\ccEuEHvK.s:1412   .text.etharp_tmr:0000000000000000 .L0 
C:\Users\stapi\AppData\Local\Temp\ccEuEHvK.s:1413   .text.etharp_tmr:0000000000000008 .L0 
C:\Users\stapi\AppData\Local\Temp\ccEuEHvK.s:1414   .text.etharp_tmr:0000000000000008 .L0 
C:\Users\stapi\AppData\Local\Temp\ccEuEHvK.s:1415   .text.etharp_tmr:0000000000000008 .L0 
C:\Users\stapi\AppData\Local\Temp\ccEuEHvK.s:1416   .text.etharp_tmr:0000000000000008 .L0 
C:\Users\stapi\AppData\Local\Temp\ccEuEHvK.s:1417   .text.etharp_tmr:0000000000000008 .L0 
C:\Users\stapi\AppData\Local\Temp\ccEuEHvK.s:1418   .text.etharp_tmr:0000000000000008 .L0 
C:\Users\stapi\AppData\Local\Temp\ccEuEHvK.s:1419   .text.etharp_tmr:0000000000000008 .L0 
C:\Users\stapi\AppData\Local\Temp\ccEuEHvK.s:1420   .text.etharp_tmr:0000000000000008 .L0 
C:\Users\stapi\AppData\Local\Temp\ccEuEHvK.s:1421   .text.etharp_tmr:0000000000000008 .L0 
C:\Users\stapi\AppData\Local\Temp\ccEuEHvK.s:1422   .text.etharp_tmr:0000000000000008 .L0 
C:\Users\stapi\AppData\Local\Temp\ccEuEHvK.s:1424   .text.etharp_tmr:0000000000000008 .L0 
C:\Users\stapi\AppData\Local\Temp\ccEuEHvK.s:1425   .text.etharp_tmr:0000000000000008 .L0 
C:\Users\stapi\AppData\Local\Temp\ccEuEHvK.s:1427   .text.etharp_tmr:0000000000000008 .L0 
C:\Users\stapi\AppData\Local\Temp\ccEuEHvK.s:1428   .text.etharp_tmr:0000000000000008 .L0 
C:\Users\stapi\AppData\Local\Temp\ccEuEHvK.s:1431   .text.etharp_tmr:0000000000000010 .L0 
C:\Users\stapi\AppData\Local\Temp\ccEuEHvK.s:1434   .text.etharp_tmr:0000000000000012 .L0 
C:\Users\stapi\AppData\Local\Temp\ccEuEHvK.s:1436   .text.etharp_tmr:0000000000000016 .L0 
C:\Users\stapi\AppData\Local\Temp\ccEuEHvK.s:1438   .text.etharp_tmr:0000000000000018 .L0 
C:\Users\stapi\AppData\Local\Temp\ccEuEHvK.s:1440   .text.etharp_tmr:000000000000001a .L0 
C:\Users\stapi\AppData\Local\Temp\ccEuEHvK.s:1442   .text.etharp_tmr:000000000000001c .L0 
C:\Users\stapi\AppData\Local\Temp\ccEuEHvK.s:1445   .text.etharp_tmr:000000000000001e .L0 
C:\Users\stapi\AppData\Local\Temp\ccEuEHvK.s:1450   .text.etharp_tmr:0000000000000020 .L0 
C:\Users\stapi\AppData\Local\Temp\ccEuEHvK.s:1451   .text.etharp_tmr:0000000000000020 .L0 
C:\Users\stapi\AppData\Local\Temp\ccEuEHvK.s:1454   .text.etharp_tmr:0000000000000024 .L0 
C:\Users\stapi\AppData\Local\Temp\ccEuEHvK.s:1455   .text.etharp_tmr:0000000000000024 .L0 
C:\Users\stapi\AppData\Local\Temp\ccEuEHvK.s:1457   .text.etharp_tmr:0000000000000026 .L0 
C:\Users\stapi\AppData\Local\Temp\ccEuEHvK.s:1458   .text.etharp_tmr:0000000000000026 .L0 
C:\Users\stapi\AppData\Local\Temp\ccEuEHvK.s:1463   .text.etharp_tmr:0000000000000034 .L0 
C:\Users\stapi\AppData\Local\Temp\ccEuEHvK.s:1464   .text.etharp_tmr:0000000000000034 .L0 
C:\Users\stapi\AppData\Local\Temp\ccEuEHvK.s:1466   .text.etharp_tmr:0000000000000038 .L0 
C:\Users\stapi\AppData\Local\Temp\ccEuEHvK.s:1468   .text.etharp_tmr:000000000000003c .L0 
C:\Users\stapi\AppData\Local\Temp\ccEuEHvK.s:1471   .text.etharp_tmr:0000000000000040 .L0 
C:\Users\stapi\AppData\Local\Temp\ccEuEHvK.s:1472   .text.etharp_tmr:0000000000000040 .L0 
C:\Users\stapi\AppData\Local\Temp\ccEuEHvK.s:1478   .text.etharp_tmr:000000000000004a .L0 
C:\Users\stapi\AppData\Local\Temp\ccEuEHvK.s:1481   .text.etharp_tmr:000000000000004c .L0 
C:\Users\stapi\AppData\Local\Temp\ccEuEHvK.s:1482   .text.etharp_tmr:000000000000004c .L0 
C:\Users\stapi\AppData\Local\Temp\ccEuEHvK.s:1485   .text.etharp_tmr:0000000000000052 .L0 
C:\Users\stapi\AppData\Local\Temp\ccEuEHvK.s:1486   .text.etharp_tmr:000000000000005a .L0 
C:\Users\stapi\AppData\Local\Temp\ccEuEHvK.s:1487   .text.etharp_tmr:000000000000005a .L0 
C:\Users\stapi\AppData\Local\Temp\ccEuEHvK.s:1488   .text.etharp_tmr:000000000000005a .L0 
C:\Users\stapi\AppData\Local\Temp\ccEuEHvK.s:1489   .text.etharp_tmr:000000000000005a .L0 
C:\Users\stapi\AppData\Local\Temp\ccEuEHvK.s:1490   .text.etharp_tmr:000000000000005a .L0 
C:\Users\stapi\AppData\Local\Temp\ccEuEHvK.s:1491   .text.etharp_tmr:000000000000005a .L0 
C:\Users\stapi\AppData\Local\Temp\ccEuEHvK.s:1492   .text.etharp_tmr:000000000000005a .L0 
C:\Users\stapi\AppData\Local\Temp\ccEuEHvK.s:1493   .text.etharp_tmr:000000000000005a .L0 
C:\Users\stapi\AppData\Local\Temp\ccEuEHvK.s:1494   .text.etharp_tmr:000000000000005a .L0 
C:\Users\stapi\AppData\Local\Temp\ccEuEHvK.s:1495   .text.etharp_tmr:000000000000005a .L0 
C:\Users\stapi\AppData\Local\Temp\ccEuEHvK.s:1496   .text.etharp_tmr:000000000000005a .L0 
C:\Users\stapi\AppData\Local\Temp\ccEuEHvK.s:1499   .text.etharp_tmr:000000000000005a .L0 
C:\Users\stapi\AppData\Local\Temp\ccEuEHvK.s:1502   .text.etharp_tmr:000000000000005a .L0 
C:\Users\stapi\AppData\Local\Temp\ccEuEHvK.s:1503   .text.etharp_tmr:000000000000005a .L0 
C:\Users\stapi\AppData\Local\Temp\ccEuEHvK.s:1505   .text.etharp_tmr:000000000000005e .L0 
C:\Users\stapi\AppData\Local\Temp\ccEuEHvK.s:1506   .text.etharp_tmr:000000000000005e .L0 
C:\Users\stapi\AppData\Local\Temp\ccEuEHvK.s:1510   .text.etharp_tmr:0000000000000064 .L0 
C:\Users\stapi\AppData\Local\Temp\ccEuEHvK.s:1511   .text.etharp_tmr:0000000000000064 .L0 
C:\Users\stapi\AppData\Local\Temp\ccEuEHvK.s:1513   .text.etharp_tmr:0000000000000068 .L0 
C:\Users\stapi\AppData\Local\Temp\ccEuEHvK.s:1514   .text.etharp_tmr:0000000000000068 .L0 
C:\Users\stapi\AppData\Local\Temp\ccEuEHvK.s:1518   .text.etharp_tmr:000000000000006e .L0 
C:\Users\stapi\AppData\Local\Temp\ccEuEHvK.s:1524   .text.etharp_tmr:000000000000007e .L0 
C:\Users\stapi\AppData\Local\Temp\ccEuEHvK.s:1534   .text.etharp_output_to_arp_index:0000000000000000 etharp_output_to_arp_index
C:\Users\stapi\AppData\Local\Temp\ccEuEHvK.s:1537   .text.etharp_output_to_arp_index:0000000000000000 .L0 
C:\Users\stapi\AppData\Local\Temp\ccEuEHvK.s:1539   .text.etharp_output_to_arp_index:0000000000000000 .L0 
C:\Users\stapi\AppData\Local\Temp\ccEuEHvK.s:1540   .text.etharp_output_to_arp_index:0000000000000008 .L0 
C:\Users\stapi\AppData\Local\Temp\ccEuEHvK.s:1541   .text.etharp_output_to_arp_index:0000000000000008 .L0 
C:\Users\stapi\AppData\Local\Temp\ccEuEHvK.s:1542   .text.etharp_output_to_arp_index:0000000000000008 .L0 
C:\Users\stapi\AppData\Local\Temp\ccEuEHvK.s:1543   .text.etharp_output_to_arp_index:0000000000000008 .L0 
C:\Users\stapi\AppData\Local\Temp\ccEuEHvK.s:1544   .text.etharp_output_to_arp_index:0000000000000008 .L0 
C:\Users\stapi\AppData\Local\Temp\ccEuEHvK.s:1545   .text.etharp_output_to_arp_index:0000000000000008 .L0 
C:\Users\stapi\AppData\Local\Temp\ccEuEHvK.s:1546   .text.etharp_output_to_arp_index:0000000000000008 .L0 
C:\Users\stapi\AppData\Local\Temp\ccEuEHvK.s:1548   .text.etharp_output_to_arp_index:0000000000000008 .L0 
C:\Users\stapi\AppData\Local\Temp\ccEuEHvK.s:1549   .text.etharp_output_to_arp_index:0000000000000008 .L0 
C:\Users\stapi\AppData\Local\Temp\ccEuEHvK.s:1558   .text.etharp_output_to_arp_index:0000000000000024 .L0 
C:\Users\stapi\AppData\Local\Temp\ccEuEHvK.s:1559   .text.etharp_output_to_arp_index:0000000000000024 .L0 
C:\Users\stapi\AppData\Local\Temp\ccEuEHvK.s:1573   .text.etharp_output_to_arp_index:0000000000000048 .L0 
C:\Users\stapi\AppData\Local\Temp\ccEuEHvK.s:1574   .text.etharp_output_to_arp_index:0000000000000048 .L0 
C:\Users\stapi\AppData\Local\Temp\ccEuEHvK.s:1575   .text.etharp_output_to_arp_index:0000000000000048 .L0 
C:\Users\stapi\AppData\Local\Temp\ccEuEHvK.s:1579   .text.etharp_output_to_arp_index:000000000000004a .L0 
C:\Users\stapi\AppData\Local\Temp\ccEuEHvK.s:1581   .text.etharp_output_to_arp_index:000000000000004e .L0 
C:\Users\stapi\AppData\Local\Temp\ccEuEHvK.s:1585   .text.etharp_output_to_arp_index:0000000000000054 .L0 
C:\Users\stapi\AppData\Local\Temp\ccEuEHvK.s:1586   .text.etharp_output_to_arp_index:0000000000000054 .L0 
C:\Users\stapi\AppData\Local\Temp\ccEuEHvK.s:1587   .text.etharp_output_to_arp_index:0000000000000054 .L0 
C:\Users\stapi\AppData\Local\Temp\ccEuEHvK.s:1588   .text.etharp_output_to_arp_index:0000000000000054 .L0 
C:\Users\stapi\AppData\Local\Temp\ccEuEHvK.s:1592   .text.etharp_output_to_arp_index:0000000000000056 .L0 
C:\Users\stapi\AppData\Local\Temp\ccEuEHvK.s:1596   .text.etharp_output_to_arp_index:000000000000005a .L0 
C:\Users\stapi\AppData\Local\Temp\ccEuEHvK.s:1599   .text.etharp_output_to_arp_index:000000000000005e .L0 
C:\Users\stapi\AppData\Local\Temp\ccEuEHvK.s:1600   .text.etharp_output_to_arp_index:000000000000005e .L0 
C:\Users\stapi\AppData\Local\Temp\ccEuEHvK.s:1602   .text.etharp_output_to_arp_index:0000000000000062 .L0 
C:\Users\stapi\AppData\Local\Temp\ccEuEHvK.s:1605   .text.etharp_output_to_arp_index:000000000000006a .L0 
C:\Users\stapi\AppData\Local\Temp\ccEuEHvK.s:1606   .text.etharp_output_to_arp_index:000000000000006a .L0 
C:\Users\stapi\AppData\Local\Temp\ccEuEHvK.s:1608   .text.etharp_output_to_arp_index:000000000000006c .L0 
C:\Users\stapi\AppData\Local\Temp\ccEuEHvK.s:1614   .text.etharp_output_to_arp_index:0000000000000078 .L0 
C:\Users\stapi\AppData\Local\Temp\ccEuEHvK.s:1616   .text.etharp_output_to_arp_index:000000000000007a .L0 
C:\Users\stapi\AppData\Local\Temp\ccEuEHvK.s:1617   .text.etharp_output_to_arp_index:000000000000007a .L0 
C:\Users\stapi\AppData\Local\Temp\ccEuEHvK.s:1621   .text.etharp_output_to_arp_index:0000000000000080 .L0 
C:\Users\stapi\AppData\Local\Temp\ccEuEHvK.s:1622   .text.etharp_output_to_arp_index:0000000000000080 .L0 
C:\Users\stapi\AppData\Local\Temp\ccEuEHvK.s:1631   .text.etharp_output_to_arp_index:0000000000000096 .L0 
C:\Users\stapi\AppData\Local\Temp\ccEuEHvK.s:1632   .text.etharp_output_to_arp_index:000000000000009e .L0 
C:\Users\stapi\AppData\Local\Temp\ccEuEHvK.s:1633   .text.etharp_output_to_arp_index:000000000000009e .L0 
C:\Users\stapi\AppData\Local\Temp\ccEuEHvK.s:1634   .text.etharp_output_to_arp_index:000000000000009e .L0 
C:\Users\stapi\AppData\Local\Temp\ccEuEHvK.s:1635   .text.etharp_output_to_arp_index:000000000000009e .L0 
C:\Users\stapi\AppData\Local\Temp\ccEuEHvK.s:1636   .text.etharp_output_to_arp_index:000000000000009e .L0 
C:\Users\stapi\AppData\Local\Temp\ccEuEHvK.s:1637   .text.etharp_output_to_arp_index:000000000000009e .L0 
C:\Users\stapi\AppData\Local\Temp\ccEuEHvK.s:1638   .text.etharp_output_to_arp_index:000000000000009e .L0 
C:\Users\stapi\AppData\Local\Temp\ccEuEHvK.s:1639   .text.etharp_output_to_arp_index:000000000000009e .L0 
C:\Users\stapi\AppData\Local\Temp\ccEuEHvK.s:1642   .text.etharp_output_to_arp_index:000000000000009e .L0 
C:\Users\stapi\AppData\Local\Temp\ccEuEHvK.s:1644   .text.etharp_output_to_arp_index:000000000000009e .L0 
C:\Users\stapi\AppData\Local\Temp\ccEuEHvK.s:1645   .text.etharp_output_to_arp_index:000000000000009e .L0 
C:\Users\stapi\AppData\Local\Temp\ccEuEHvK.s:1651   .text.etharp_output_to_arp_index:00000000000000a6 .L0 
C:\Users\stapi\AppData\Local\Temp\ccEuEHvK.s:1654   .text.etharp_output_to_arp_index:00000000000000a6 .L0 
C:\Users\stapi\AppData\Local\Temp\ccEuEHvK.s:1655   .text.etharp_output_to_arp_index:00000000000000a6 .L0 
C:\Users\stapi\AppData\Local\Temp\ccEuEHvK.s:1660   .text.etharp_output_to_arp_index:00000000000000a8 .L0 
C:\Users\stapi\AppData\Local\Temp\ccEuEHvK.s:1675   .text.etharp_output_to_arp_index:00000000000000c8 .L0 
C:\Users\stapi\AppData\Local\Temp\ccEuEHvK.s:1689   .text.etharp_query:0000000000000000 etharp_query
C:\Users\stapi\AppData\Local\Temp\ccEuEHvK.s:1692   .text.etharp_query:0000000000000000 .L0 
C:\Users\stapi\AppData\Local\Temp\ccEuEHvK.s:1694   .text.etharp_query:0000000000000000 .L0 
C:\Users\stapi\AppData\Local\Temp\ccEuEHvK.s:1695   .text.etharp_query:0000000000000008 .L0 
C:\Users\stapi\AppData\Local\Temp\ccEuEHvK.s:1696   .text.etharp_query:0000000000000008 .L0 
C:\Users\stapi\AppData\Local\Temp\ccEuEHvK.s:1697   .text.etharp_query:0000000000000008 .L0 
C:\Users\stapi\AppData\Local\Temp\ccEuEHvK.s:1698   .text.etharp_query:0000000000000008 .L0 
C:\Users\stapi\AppData\Local\Temp\ccEuEHvK.s:1699   .text.etharp_query:0000000000000008 .L0 
C:\Users\stapi\AppData\Local\Temp\ccEuEHvK.s:1700   .text.etharp_query:0000000000000008 .L0 
C:\Users\stapi\AppData\Local\Temp\ccEuEHvK.s:1701   .text.etharp_query:0000000000000008 .L0 
C:\Users\stapi\AppData\Local\Temp\ccEuEHvK.s:1704   .text.etharp_query:0000000000000008 .L0 
C:\Users\stapi\AppData\Local\Temp\ccEuEHvK.s:1705   .text.etharp_query:0000000000000008 .L0 
C:\Users\stapi\AppData\Local\Temp\ccEuEHvK.s:1706   .text.etharp_query:0000000000000008 .L0 
C:\Users\stapi\AppData\Local\Temp\ccEuEHvK.s:1707   .text.etharp_query:0000000000000008 .L0 
C:\Users\stapi\AppData\Local\Temp\ccEuEHvK.s:1708   .text.etharp_query:0000000000000008 .L0 
C:\Users\stapi\AppData\Local\Temp\ccEuEHvK.s:1709   .text.etharp_query:0000000000000008 .L0 
C:\Users\stapi\AppData\Local\Temp\ccEuEHvK.s:1710   .text.etharp_query:0000000000000008 .L0 
C:\Users\stapi\AppData\Local\Temp\ccEuEHvK.s:1713   .text.etharp_query:000000000000000c .L0 
C:\Users\stapi\AppData\Local\Temp\ccEuEHvK.s:1718   .text.etharp_query:0000000000000012 .L0 
C:\Users\stapi\AppData\Local\Temp\ccEuEHvK.s:1720   .text.etharp_query:0000000000000014 .L0 
C:\Users\stapi\AppData\Local\Temp\ccEuEHvK.s:1723   .text.etharp_query:000000000000001c .L0 
C:\Users\stapi\AppData\Local\Temp\ccEuEHvK.s:1725   .text.etharp_query:0000000000000020 .L0 
C:\Users\stapi\AppData\Local\Temp\ccEuEHvK.s:1727   .text.etharp_query:0000000000000024 .L0 
C:\Users\stapi\AppData\Local\Temp\ccEuEHvK.s:1729   .text.etharp_query:0000000000000028 .L0 
C:\Users\stapi\AppData\Local\Temp\ccEuEHvK.s:1731   .text.etharp_query:000000000000002c .L0 
C:\Users\stapi\AppData\Local\Temp\ccEuEHvK.s:1733   .text.etharp_query:0000000000000030 .L0 
C:\Users\stapi\AppData\Local\Temp\ccEuEHvK.s:1735   .text.etharp_query:0000000000000034 .L0 
C:\Users\stapi\AppData\Local\Temp\ccEuEHvK.s:1736   .text.etharp_query:0000000000000034 .L0 
C:\Users\stapi\AppData\Local\Temp\ccEuEHvK.s:1744   .text.etharp_query:0000000000000044 .L0 
C:\Users\stapi\AppData\Local\Temp\ccEuEHvK.s:1745   .text.etharp_query:0000000000000044 .L0 
C:\Users\stapi\AppData\Local\Temp\ccEuEHvK.s:1747   .text.etharp_query:0000000000000048 .L0 
C:\Users\stapi\AppData\Local\Temp\ccEuEHvK.s:1748   .text.etharp_query:0000000000000048 .L0 
C:\Users\stapi\AppData\Local\Temp\ccEuEHvK.s:1749   .text.etharp_query:0000000000000048 .L0 
C:\Users\stapi\AppData\Local\Temp\ccEuEHvK.s:1750   .text.etharp_query:0000000000000048 .L0 
C:\Users\stapi\AppData\Local\Temp\ccEuEHvK.s:1751   .text.etharp_query:0000000000000048 .L0 
C:\Users\stapi\AppData\Local\Temp\ccEuEHvK.s:1752   .text.etharp_query:0000000000000048 .L0 
C:\Users\stapi\AppData\Local\Temp\ccEuEHvK.s:1756   .text.etharp_query:000000000000004c .L0 
C:\Users\stapi\AppData\Local\Temp\ccEuEHvK.s:1757   .text.etharp_query:0000000000000054 .L0 
C:\Users\stapi\AppData\Local\Temp\ccEuEHvK.s:1758   .text.etharp_query:0000000000000054 .L0 
C:\Users\stapi\AppData\Local\Temp\ccEuEHvK.s:1759   .text.etharp_query:0000000000000054 .L0 
C:\Users\stapi\AppData\Local\Temp\ccEuEHvK.s:1760   .text.etharp_query:0000000000000054 .L0 
C:\Users\stapi\AppData\Local\Temp\ccEuEHvK.s:1761   .text.etharp_query:0000000000000054 .L0 
C:\Users\stapi\AppData\Local\Temp\ccEuEHvK.s:1762   .text.etharp_query:0000000000000054 .L0 
C:\Users\stapi\AppData\Local\Temp\ccEuEHvK.s:1763   .text.etharp_query:0000000000000054 .L0 
C:\Users\stapi\AppData\Local\Temp\ccEuEHvK.s:1764   .text.etharp_query:0000000000000054 .L0 
C:\Users\stapi\AppData\Local\Temp\ccEuEHvK.s:1767   .text.etharp_query:0000000000000054 .L0 
C:\Users\stapi\AppData\Local\Temp\ccEuEHvK.s:1769   .text.etharp_query:0000000000000054 .L0 
C:\Users\stapi\AppData\Local\Temp\ccEuEHvK.s:1770   .text.etharp_query:0000000000000054 .L0 
C:\Users\stapi\AppData\Local\Temp\ccEuEHvK.s:1773   .text.etharp_query:000000000000005c .L0 
C:\Users\stapi\AppData\Local\Temp\ccEuEHvK.s:1774   .text.etharp_query:000000000000005c .L0 
C:\Users\stapi\AppData\Local\Temp\ccEuEHvK.s:1786   .text.etharp_query:0000000000000080 .L0 
C:\Users\stapi\AppData\Local\Temp\ccEuEHvK.s:1787   .text.etharp_query:0000000000000080 .L0 
C:\Users\stapi\AppData\Local\Temp\ccEuEHvK.s:1788   .text.etharp_query:0000000000000080 .L0 
C:\Users\stapi\AppData\Local\Temp\ccEuEHvK.s:1792   .text.etharp_query:0000000000000082 .L0 
C:\Users\stapi\AppData\Local\Temp\ccEuEHvK.s:1793   .text.etharp_query:0000000000000082 .L0 
C:\Users\stapi\AppData\Local\Temp\ccEuEHvK.s:1794   .text.etharp_query:0000000000000082 .L0 
C:\Users\stapi\AppData\Local\Temp\ccEuEHvK.s:1795   .text.etharp_query:0000000000000082 .L0 
C:\Users\stapi\AppData\Local\Temp\ccEuEHvK.s:1796   .text.etharp_query:0000000000000082 .L0 
C:\Users\stapi\AppData\Local\Temp\ccEuEHvK.s:1801   .text.etharp_query:0000000000000090 .L0 
C:\Users\stapi\AppData\Local\Temp\ccEuEHvK.s:1806   .text.etharp_query:000000000000009a .L0 
C:\Users\stapi\AppData\Local\Temp\ccEuEHvK.s:1807   .text.etharp_query:000000000000009a .L0 
C:\Users\stapi\AppData\Local\Temp\ccEuEHvK.s:1808   .text.etharp_query:000000000000009a .L0 
C:\Users\stapi\AppData\Local\Temp\ccEuEHvK.s:1811   .text.etharp_query:00000000000000a0 .L0 
C:\Users\stapi\AppData\Local\Temp\ccEuEHvK.s:1812   .text.etharp_query:00000000000000a0 .L0 
C:\Users\stapi\AppData\Local\Temp\ccEuEHvK.s:1814   .text.etharp_query:00000000000000a4 .L0 
C:\Users\stapi\AppData\Local\Temp\ccEuEHvK.s:1815   .text.etharp_query:00000000000000a4 .L0 
C:\Users\stapi\AppData\Local\Temp\ccEuEHvK.s:1816   .text.etharp_query:00000000000000a4 .L0 
C:\Users\stapi\AppData\Local\Temp\ccEuEHvK.s:1817   .text.etharp_query:00000000000000a4 .L0 
C:\Users\stapi\AppData\Local\Temp\ccEuEHvK.s:1820   .text.etharp_query:00000000000000a4 .L0 
C:\Users\stapi\AppData\Local\Temp\ccEuEHvK.s:1821   .text.etharp_query:00000000000000a4 .L0 
C:\Users\stapi\AppData\Local\Temp\ccEuEHvK.s:1822   .text.etharp_query:00000000000000a4 .L0 
C:\Users\stapi\AppData\Local\Temp\ccEuEHvK.s:1827   .text.etharp_query:00000000000000b0 .L0 
C:\Users\stapi\AppData\Local\Temp\ccEuEHvK.s:1828   .text.etharp_query:00000000000000b0 .L0 
C:\Users\stapi\AppData\Local\Temp\ccEuEHvK.s:1829   .text.etharp_query:00000000000000b0 .L0 
C:\Users\stapi\AppData\Local\Temp\ccEuEHvK.s:1830   .text.etharp_query:00000000000000b0 .L0 
C:\Users\stapi\AppData\Local\Temp\ccEuEHvK.s:1834   .text.etharp_query:00000000000000b2 .L0 
C:\Users\stapi\AppData\Local\Temp\ccEuEHvK.s:1835   .text.etharp_query:00000000000000b2 .L0 
C:\Users\stapi\AppData\Local\Temp\ccEuEHvK.s:1836   .text.etharp_query:00000000000000b2 .L0 
C:\Users\stapi\AppData\Local\Temp\ccEuEHvK.s:1837   .text.etharp_query:00000000000000b2 .L0 
C:\Users\stapi\AppData\Local\Temp\ccEuEHvK.s:1838   .text.etharp_query:00000000000000b2 .L0 
C:\Users\stapi\AppData\Local\Temp\ccEuEHvK.s:1839   .text.etharp_query:00000000000000b2 .L0 
C:\Users\stapi\AppData\Local\Temp\ccEuEHvK.s:1844   .text.etharp_query:00000000000000c0 .L0 
C:\Users\stapi\AppData\Local\Temp\ccEuEHvK.s:1847   .text.etharp_query:00000000000000c6 .L0 
C:\Users\stapi\AppData\Local\Temp\ccEuEHvK.s:1848   .text.etharp_query:00000000000000c6 .L0 
C:\Users\stapi\AppData\Local\Temp\ccEuEHvK.s:1850   .text.etharp_query:00000000000000c8 .L0 
C:\Users\stapi\AppData\Local\Temp\ccEuEHvK.s:1852   .text.etharp_query:00000000000000ca .L0 
C:\Users\stapi\AppData\Local\Temp\ccEuEHvK.s:1854   .text.etharp_query:00000000000000ce .L0 
C:\Users\stapi\AppData\Local\Temp\ccEuEHvK.s:1861   .text.etharp_query:00000000000000dc .L0 
C:\Users\stapi\AppData\Local\Temp\ccEuEHvK.s:1863   .text.etharp_query:00000000000000e0 .L0 
C:\Users\stapi\AppData\Local\Temp\ccEuEHvK.s:1864   .text.etharp_query:00000000000000e0 .L0 
C:\Users\stapi\AppData\Local\Temp\ccEuEHvK.s:1869   .text.etharp_query:00000000000000ea .L0 
C:\Users\stapi\AppData\Local\Temp\ccEuEHvK.s:1870   .text.etharp_query:00000000000000ea .L0 
C:\Users\stapi\AppData\Local\Temp\ccEuEHvK.s:1876   .text.etharp_query:00000000000000f0 .L0 
C:\Users\stapi\AppData\Local\Temp\ccEuEHvK.s:1877   .text.etharp_query:00000000000000f0 .L0 
C:\Users\stapi\AppData\Local\Temp\ccEuEHvK.s:1881   .text.etharp_query:00000000000000fc .L0 
C:\Users\stapi\AppData\Local\Temp\ccEuEHvK.s:1884   .text.etharp_query:0000000000000100 .L0 
C:\Users\stapi\AppData\Local\Temp\ccEuEHvK.s:1885   .text.etharp_query:0000000000000100 .L0 
C:\Users\stapi\AppData\Local\Temp\ccEuEHvK.s:1897   .text.etharp_query:0000000000000124 .L0 
C:\Users\stapi\AppData\Local\Temp\ccEuEHvK.s:1898   .text.etharp_query:0000000000000124 .L0 
C:\Users\stapi\AppData\Local\Temp\ccEuEHvK.s:1899   .text.etharp_query:0000000000000124 .L0 
C:\Users\stapi\AppData\Local\Temp\ccEuEHvK.s:1903   .text.etharp_query:0000000000000126 .L0 
C:\Users\stapi\AppData\Local\Temp\ccEuEHvK.s:1904   .text.etharp_query:0000000000000126 .L0 
C:\Users\stapi\AppData\Local\Temp\ccEuEHvK.s:1905   .text.etharp_query:0000000000000126 .L0 
C:\Users\stapi\AppData\Local\Temp\ccEuEHvK.s:1906   .text.etharp_query:0000000000000126 .L0 
C:\Users\stapi\AppData\Local\Temp\ccEuEHvK.s:1910   .text.etharp_query:0000000000000130 .L0 
C:\Users\stapi\AppData\Local\Temp\ccEuEHvK.s:1911   .text.etharp_query:0000000000000130 .L0 
C:\Users\stapi\AppData\Local\Temp\ccEuEHvK.s:1914   .text.etharp_query:0000000000000132 .L0 
C:\Users\stapi\AppData\Local\Temp\ccEuEHvK.s:1917   .text.etharp_query:0000000000000134 .L0 
C:\Users\stapi\AppData\Local\Temp\ccEuEHvK.s:1918   .text.etharp_query:0000000000000134 .L0 
C:\Users\stapi\AppData\Local\Temp\ccEuEHvK.s:1919   .text.etharp_query:0000000000000134 .L0 
C:\Users\stapi\AppData\Local\Temp\ccEuEHvK.s:1924   .text.etharp_query:000000000000013e .L0 
C:\Users\stapi\AppData\Local\Temp\ccEuEHvK.s:1929   .text.etharp_query:0000000000000140 .L0 
C:\Users\stapi\AppData\Local\Temp\ccEuEHvK.s:1935   .text.etharp_query:0000000000000144 .L0 
C:\Users\stapi\AppData\Local\Temp\ccEuEHvK.s:1936   .text.etharp_query:0000000000000144 .L0 
C:\Users\stapi\AppData\Local\Temp\ccEuEHvK.s:1937   .text.etharp_query:0000000000000144 .L0 
C:\Users\stapi\AppData\Local\Temp\ccEuEHvK.s:1946   .text.etharp_query:0000000000000158 .L0 
C:\Users\stapi\AppData\Local\Temp\ccEuEHvK.s:1947   .text.etharp_query:0000000000000158 .L0 
C:\Users\stapi\AppData\Local\Temp\ccEuEHvK.s:1949   .text.etharp_query:000000000000015a .L0 
C:\Users\stapi\AppData\Local\Temp\ccEuEHvK.s:1953   .text.etharp_query:000000000000015e .L0 
C:\Users\stapi\AppData\Local\Temp\ccEuEHvK.s:1954   .text.etharp_query:000000000000015e .L0 
C:\Users\stapi\AppData\Local\Temp\ccEuEHvK.s:1959   .text.etharp_query:0000000000000168 .L0 
C:\Users\stapi\AppData\Local\Temp\ccEuEHvK.s:1961   .text.etharp_query:000000000000016a .L0 
C:\Users\stapi\AppData\Local\Temp\ccEuEHvK.s:1962   .text.etharp_query:000000000000016a .L0 
C:\Users\stapi\AppData\Local\Temp\ccEuEHvK.s:1966   .text.etharp_query:0000000000000172 .L0 
C:\Users\stapi\AppData\Local\Temp\ccEuEHvK.s:1967   .text.etharp_query:0000000000000172 .L0 
C:\Users\stapi\AppData\Local\Temp\ccEuEHvK.s:1970   .text.etharp_query:0000000000000178 .L0 
C:\Users\stapi\AppData\Local\Temp\ccEuEHvK.s:1972   .text.etharp_query:000000000000017a .L0 
C:\Users\stapi\AppData\Local\Temp\ccEuEHvK.s:1975   .text.etharp_query:000000000000017e .L0 
C:\Users\stapi\AppData\Local\Temp\ccEuEHvK.s:1976   .text.etharp_query:000000000000017e .L0 
C:\Users\stapi\AppData\Local\Temp\ccEuEHvK.s:1981   .text.etharp_query:0000000000000180 .L0 
C:\Users\stapi\AppData\Local\Temp\ccEuEHvK.s:1982   .text.etharp_query:0000000000000180 .L0 
C:\Users\stapi\AppData\Local\Temp\ccEuEHvK.s:1983   .text.etharp_query:0000000000000180 .L0 
C:\Users\stapi\AppData\Local\Temp\ccEuEHvK.s:1986   .text.etharp_query:0000000000000182 .L0 
C:\Users\stapi\AppData\Local\Temp\ccEuEHvK.s:1988   .text.etharp_query:0000000000000186 .L0 
C:\Users\stapi\AppData\Local\Temp\ccEuEHvK.s:1999   .text.etharp_output:0000000000000000 etharp_output
C:\Users\stapi\AppData\Local\Temp\ccEuEHvK.s:2002   .text.etharp_output:0000000000000000 .L0 
C:\Users\stapi\AppData\Local\Temp\ccEuEHvK.s:2004   .text.etharp_output:0000000000000000 .L0 
C:\Users\stapi\AppData\Local\Temp\ccEuEHvK.s:2005   .text.etharp_output:0000000000000008 .L0 
C:\Users\stapi\AppData\Local\Temp\ccEuEHvK.s:2006   .text.etharp_output:0000000000000008 .L0 
C:\Users\stapi\AppData\Local\Temp\ccEuEHvK.s:2007   .text.etharp_output:0000000000000008 .L0 
C:\Users\stapi\AppData\Local\Temp\ccEuEHvK.s:2008   .text.etharp_output:0000000000000008 .L0 
C:\Users\stapi\AppData\Local\Temp\ccEuEHvK.s:2009   .text.etharp_output:0000000000000008 .L0 
C:\Users\stapi\AppData\Local\Temp\ccEuEHvK.s:2011   .text.etharp_output:0000000000000008 .L0 
C:\Users\stapi\AppData\Local\Temp\ccEuEHvK.s:2012   .text.etharp_output:0000000000000008 .L0 
C:\Users\stapi\AppData\Local\Temp\ccEuEHvK.s:2014   .text.etharp_output:0000000000000008 .L0 
C:\Users\stapi\AppData\Local\Temp\ccEuEHvK.s:2015   .text.etharp_output:0000000000000008 .L0 
C:\Users\stapi\AppData\Local\Temp\ccEuEHvK.s:2016   .text.etharp_output:0000000000000008 .L0 
C:\Users\stapi\AppData\Local\Temp\ccEuEHvK.s:2017   .text.etharp_output:0000000000000008 .L0 
C:\Users\stapi\AppData\Local\Temp\ccEuEHvK.s:2018   .text.etharp_output:0000000000000008 .L0 
C:\Users\stapi\AppData\Local\Temp\ccEuEHvK.s:2019   .text.etharp_output:000000000000000a .L0 
C:\Users\stapi\AppData\Local\Temp\ccEuEHvK.s:2021   .text.etharp_output:000000000000000a .L0 
C:\Users\stapi\AppData\Local\Temp\ccEuEHvK.s:2023   .text.etharp_output:000000000000000c .L0 
C:\Users\stapi\AppData\Local\Temp\ccEuEHvK.s:2024   .text.etharp_output:000000000000000c .L0 
C:\Users\stapi\AppData\Local\Temp\ccEuEHvK.s:2038   .text.etharp_output:0000000000000030 .L0 
C:\Users\stapi\AppData\Local\Temp\ccEuEHvK.s:2039   .text.etharp_output:0000000000000030 .L0 
C:\Users\stapi\AppData\Local\Temp\ccEuEHvK.s:2040   .text.etharp_output:0000000000000030 .L0 
C:\Users\stapi\AppData\Local\Temp\ccEuEHvK.s:2045   .text.etharp_output:0000000000000034 .L0 
C:\Users\stapi\AppData\Local\Temp\ccEuEHvK.s:2046   .text.etharp_output:0000000000000034 .L0 
C:\Users\stapi\AppData\Local\Temp\ccEuEHvK.s:2047   .text.etharp_output:0000000000000034 .L0 
C:\Users\stapi\AppData\Local\Temp\ccEuEHvK.s:2048   .text.etharp_output:0000000000000034 .L0 
C:\Users\stapi\AppData\Local\Temp\ccEuEHvK.s:2050   .text.etharp_output:0000000000000036 .L0 
C:\Users\stapi\AppData\Local\Temp\ccEuEHvK.s:2051   .text.etharp_output:0000000000000036 .L0 
C:\Users\stapi\AppData\Local\Temp\ccEuEHvK.s:2065   .text.etharp_output:000000000000005a .L0 
C:\Users\stapi\AppData\Local\Temp\ccEuEHvK.s:2066   .text.etharp_output:000000000000005a .L0 
C:\Users\stapi\AppData\Local\Temp\ccEuEHvK.s:2067   .text.etharp_output:000000000000005a .L0 
C:\Users\stapi\AppData\Local\Temp\ccEuEHvK.s:2072   .text.etharp_output:000000000000005e .L0 
C:\Users\stapi\AppData\Local\Temp\ccEuEHvK.s:2073   .text.etharp_output:000000000000005e .L0 
C:\Users\stapi\AppData\Local\Temp\ccEuEHvK.s:2074   .text.etharp_output:000000000000005e .L0 
C:\Users\stapi\AppData\Local\Temp\ccEuEHvK.s:2075   .text.etharp_output:000000000000005e .L0 
C:\Users\stapi\AppData\Local\Temp\ccEuEHvK.s:2078   .text.etharp_output:0000000000000060 .L0 
C:\Users\stapi\AppData\Local\Temp\ccEuEHvK.s:2079   .text.etharp_output:0000000000000060 .L0 
C:\Users\stapi\AppData\Local\Temp\ccEuEHvK.s:2092   .text.etharp_output:0000000000000084 .L0 
C:\Users\stapi\AppData\Local\Temp\ccEuEHvK.s:2093   .text.etharp_output:0000000000000084 .L0 
C:\Users\stapi\AppData\Local\Temp\ccEuEHvK.s:2094   .text.etharp_output:0000000000000084 .L0 
C:\Users\stapi\AppData\Local\Temp\ccEuEHvK.s:2098   .text.etharp_output:0000000000000086 .L0 
C:\Users\stapi\AppData\Local\Temp\ccEuEHvK.s:2102   .text.etharp_output:000000000000008a .L0 
C:\Users\stapi\AppData\Local\Temp\ccEuEHvK.s:2103   .text.etharp_output:000000000000008a .L0 
C:\Users\stapi\AppData\Local\Temp\ccEuEHvK.s:2104   .text.etharp_output:000000000000008a .L0 
C:\Users\stapi\AppData\Local\Temp\ccEuEHvK.s:2105   .text.etharp_output:000000000000008a .L0 
C:\Users\stapi\AppData\Local\Temp\ccEuEHvK.s:2111   .text.etharp_output:0000000000000096 .L0 
C:\Users\stapi\AppData\Local\Temp\ccEuEHvK.s:2113   .text.etharp_output:000000000000009a .L0 
C:\Users\stapi\AppData\Local\Temp\ccEuEHvK.s:2114   .text.etharp_output:000000000000009a .L0 
C:\Users\stapi\AppData\Local\Temp\ccEuEHvK.s:2116   .text.etharp_output:000000000000009c .L0 
C:\Users\stapi\AppData\Local\Temp\ccEuEHvK.s:2118   .text.etharp_output:00000000000000a0 .L0 
C:\Users\stapi\AppData\Local\Temp\ccEuEHvK.s:2120   .text.etharp_output:00000000000000a4 .L0 
C:\Users\stapi\AppData\Local\Temp\ccEuEHvK.s:2122   .text.etharp_output:00000000000000a8 .L0 
C:\Users\stapi\AppData\Local\Temp\ccEuEHvK.s:2123   .text.etharp_output:00000000000000a8 .L0 
C:\Users\stapi\AppData\Local\Temp\ccEuEHvK.s:2124   .text.etharp_output:00000000000000a8 .L0 
C:\Users\stapi\AppData\Local\Temp\ccEuEHvK.s:2125   .text.etharp_output:00000000000000a8 .L0 
C:\Users\stapi\AppData\Local\Temp\ccEuEHvK.s:2128   .text.etharp_output:00000000000000ae .L0 
C:\Users\stapi\AppData\Local\Temp\ccEuEHvK.s:2131   .text.etharp_output:00000000000000b6 .L0 
C:\Users\stapi\AppData\Local\Temp\ccEuEHvK.s:2132   .text.etharp_output:00000000000000b6 .L0 
C:\Users\stapi\AppData\Local\Temp\ccEuEHvK.s:2134   .text.etharp_output:00000000000000ba .L0 
C:\Users\stapi\AppData\Local\Temp\ccEuEHvK.s:2136   .text.etharp_output:00000000000000bc .L0 
C:\Users\stapi\AppData\Local\Temp\ccEuEHvK.s:2138   .text.etharp_output:00000000000000c0 .L0 
C:\Users\stapi\AppData\Local\Temp\ccEuEHvK.s:2140   .text.etharp_output:00000000000000c4 .L0 
C:\Users\stapi\AppData\Local\Temp\ccEuEHvK.s:2141   .text.etharp_output:00000000000000c4 .L0 
C:\Users\stapi\AppData\Local\Temp\ccEuEHvK.s:2144   .text.etharp_output:00000000000000cc .L0 
C:\Users\stapi\AppData\Local\Temp\ccEuEHvK.s:2145   .text.etharp_output:00000000000000cc .L0 
C:\Users\stapi\AppData\Local\Temp\ccEuEHvK.s:2150   .text.etharp_output:00000000000000d4 .L0 
C:\Users\stapi\AppData\Local\Temp\ccEuEHvK.s:2151   .text.etharp_output:00000000000000d4 .L0 
C:\Users\stapi\AppData\Local\Temp\ccEuEHvK.s:2152   .text.etharp_output:00000000000000d4 .L0 
C:\Users\stapi\AppData\Local\Temp\ccEuEHvK.s:2164   .text.etharp_output:00000000000000ec .L0 
C:\Users\stapi\AppData\Local\Temp\ccEuEHvK.s:2165   .text.etharp_output:00000000000000ec .L0 
C:\Users\stapi\AppData\Local\Temp\ccEuEHvK.s:2166   .text.etharp_output:00000000000000ec .L0 
C:\Users\stapi\AppData\Local\Temp\ccEuEHvK.s:2171   .text.etharp_output:00000000000000f4 .L0 
C:\Users\stapi\AppData\Local\Temp\ccEuEHvK.s:2173   .text.etharp_output:00000000000000f6 .L0 
C:\Users\stapi\AppData\Local\Temp\ccEuEHvK.s:2176   .text.etharp_output:00000000000000fc .L0 
C:\Users\stapi\AppData\Local\Temp\ccEuEHvK.s:2178   .text.etharp_output:0000000000000100 .L0 
C:\Users\stapi\AppData\Local\Temp\ccEuEHvK.s:2180   .text.etharp_output:0000000000000104 .L0 
C:\Users\stapi\AppData\Local\Temp\ccEuEHvK.s:2181   .text.etharp_output:0000000000000104 .L0 
C:\Users\stapi\AppData\Local\Temp\ccEuEHvK.s:2183   .text.etharp_output:0000000000000106 .L0 
C:\Users\stapi\AppData\Local\Temp\ccEuEHvK.s:2185   .text.etharp_output:0000000000000108 .L0 
C:\Users\stapi\AppData\Local\Temp\ccEuEHvK.s:2187   .text.etharp_output:000000000000010a .L0 
C:\Users\stapi\AppData\Local\Temp\ccEuEHvK.s:2188   .text.etharp_output:000000000000010a .L0 
C:\Users\stapi\AppData\Local\Temp\ccEuEHvK.s:2192   .text.etharp_output:000000000000010e .L0 
C:\Users\stapi\AppData\Local\Temp\ccEuEHvK.s:2193   .text.etharp_output:000000000000010e .L0 
C:\Users\stapi\AppData\Local\Temp\ccEuEHvK.s:2200   .text.etharp_output:0000000000000124 .L0 
C:\Users\stapi\AppData\Local\Temp\ccEuEHvK.s:2206   .text.etharp_output:0000000000000136 .L0 
C:\Users\stapi\AppData\Local\Temp\ccEuEHvK.s:2209   .text.etharp_output:000000000000013c .L0 
C:\Users\stapi\AppData\Local\Temp\ccEuEHvK.s:2213   .text.etharp_output:0000000000000144 .L0 
C:\Users\stapi\AppData\Local\Temp\ccEuEHvK.s:2214   .text.etharp_output:0000000000000144 .L0 
C:\Users\stapi\AppData\Local\Temp\ccEuEHvK.s:2215   .text.etharp_output:0000000000000144 .L0 
C:\Users\stapi\AppData\Local\Temp\ccEuEHvK.s:2218   .text.etharp_output:0000000000000146 .L0 
C:\Users\stapi\AppData\Local\Temp\ccEuEHvK.s:2219   .text.etharp_output:0000000000000146 .L0 
C:\Users\stapi\AppData\Local\Temp\ccEuEHvK.s:2226   .text.etharp_output:0000000000000152 .L0 
C:\Users\stapi\AppData\Local\Temp\ccEuEHvK.s:2227   .text.etharp_output:0000000000000154 .L0 
C:\Users\stapi\AppData\Local\Temp\ccEuEHvK.s:2228   .text.etharp_output:0000000000000154 .L0 
C:\Users\stapi\AppData\Local\Temp\ccEuEHvK.s:2230   .text.etharp_output:000000000000015c .L0 
C:\Users\stapi\AppData\Local\Temp\ccEuEHvK.s:2231   .text.etharp_output:000000000000015c .L0 
C:\Users\stapi\AppData\Local\Temp\ccEuEHvK.s:2232   .text.etharp_output:000000000000015c .L0 
C:\Users\stapi\AppData\Local\Temp\ccEuEHvK.s:2233   .text.etharp_output:000000000000015c .L0 
C:\Users\stapi\AppData\Local\Temp\ccEuEHvK.s:2234   .text.etharp_output:000000000000015c .L0 
C:\Users\stapi\AppData\Local\Temp\ccEuEHvK.s:2237   .text.etharp_output:000000000000015c .L0 
C:\Users\stapi\AppData\Local\Temp\ccEuEHvK.s:2240   .text.etharp_output:000000000000015c .L0 
C:\Users\stapi\AppData\Local\Temp\ccEuEHvK.s:2242   .text.etharp_output:000000000000015e .L0 
C:\Users\stapi\AppData\Local\Temp\ccEuEHvK.s:2246   .text.etharp_output:0000000000000160 .L0 
C:\Users\stapi\AppData\Local\Temp\ccEuEHvK.s:2247   .text.etharp_output:0000000000000160 .L0 
C:\Users\stapi\AppData\Local\Temp\ccEuEHvK.s:2250   .text.etharp_output:0000000000000168 .L0 
C:\Users\stapi\AppData\Local\Temp\ccEuEHvK.s:2253   .text.etharp_output:000000000000016e .L0 
C:\Users\stapi\AppData\Local\Temp\ccEuEHvK.s:2257   .text.etharp_output:0000000000000178 .L0 
C:\Users\stapi\AppData\Local\Temp\ccEuEHvK.s:2261   .text.etharp_output:000000000000017e .L0 
C:\Users\stapi\AppData\Local\Temp\ccEuEHvK.s:2262   .text.etharp_output:000000000000017e .L0 
C:\Users\stapi\AppData\Local\Temp\ccEuEHvK.s:2267   .text.etharp_output:0000000000000184 .L0 
C:\Users\stapi\AppData\Local\Temp\ccEuEHvK.s:2268   .text.etharp_output:0000000000000184 .L0 
C:\Users\stapi\AppData\Local\Temp\ccEuEHvK.s:2272   .text.etharp_output:000000000000018a .L0 
C:\Users\stapi\AppData\Local\Temp\ccEuEHvK.s:2273   .text.etharp_output:000000000000018a .L0 
C:\Users\stapi\AppData\Local\Temp\ccEuEHvK.s:2274   .text.etharp_output:000000000000018a .L0 
C:\Users\stapi\AppData\Local\Temp\ccEuEHvK.s:2280   .text.etharp_output:0000000000000196 .L0 
C:\Users\stapi\AppData\Local\Temp\ccEuEHvK.s:2281   .text.etharp_output:0000000000000196 .L0 
C:\Users\stapi\AppData\Local\Temp\ccEuEHvK.s:2284   .text.etharp_output:0000000000000198 .L0 
C:\Users\stapi\AppData\Local\Temp\ccEuEHvK.s:2285   .text.etharp_output:0000000000000198 .L0 
C:\Users\stapi\AppData\Local\Temp\ccEuEHvK.s:2296   .text.etharp_output:00000000000001a8 .L0 
C:\Users\stapi\AppData\Local\Temp\ccEuEHvK.s:2299   .text.etharp_output:00000000000001b2 .L0 
C:\Users\stapi\AppData\Local\Temp\ccEuEHvK.s:2320   .bss.arp_table:0000000000000000 .LANCHOR0
C:\Users\stapi\AppData\Local\Temp\ccEuEHvK.s:2323   .bss.arp_table:0000000000000000 arp_table
C:\Users\stapi\AppData\Local\Temp\ccEuEHvK.s:2327   .rodata.CSWTCH.15:0000000000000000 .LANCHOR1
C:\Users\stapi\AppData\Local\Temp\ccEuEHvK.s:2330   .rodata.CSWTCH.15:0000000000000000 CSWTCH.15
C:\Users\stapi\AppData\Local\Temp\ccEuEHvK.s:2337   .sbss.etharp_cached_entry:0000000000000000 .LANCHOR2
C:\Users\stapi\AppData\Local\Temp\ccEuEHvK.s:2340   .sbss.etharp_cached_entry:0000000000000000 etharp_cached_entry
C:\Users\stapi\AppData\Local\Temp\ccEuEHvK.s:63     .text.etharp_free_entry:0000000000000042 .L0 
C:\Users\stapi\AppData\Local\Temp\ccEuEHvK.s:355    .text.etharp_find_entry:0000000000000146 .L0 
C:\Users\stapi\AppData\Local\Temp\ccEuEHvK.s:592    .text.etharp_raw:000000000000015c .L0 
C:\Users\stapi\AppData\Local\Temp\ccEuEHvK.s:655    .text.etharp_cleanup_netif:000000000000003c .L0 
C:\Users\stapi\AppData\Local\Temp\ccEuEHvK.s:783    .text.etharp_entry_dump:00000000000000a2 .L0 
C:\Users\stapi\AppData\Local\Temp\ccEuEHvK.s:895    .text.etharp_find_addr:0000000000000086 .L0 
C:\Users\stapi\AppData\Local\Temp\ccEuEHvK.s:1048   .text.etharp_get_entry:00000000000000c6 .L0 
C:\Users\stapi\AppData\Local\Temp\ccEuEHvK.s:1371   .text.etharp_input:00000000000001d6 .L0 
C:\Users\stapi\AppData\Local\Temp\ccEuEHvK.s:1404   .text.etharp_request:0000000000000026 .L0 
C:\Users\stapi\AppData\Local\Temp\ccEuEHvK.s:1527   .text.etharp_tmr:000000000000007e .L0 
C:\Users\stapi\AppData\Local\Temp\ccEuEHvK.s:1678   .text.etharp_output_to_arp_index:00000000000000c8 .L0 
C:\Users\stapi\AppData\Local\Temp\ccEuEHvK.s:1991   .text.etharp_query:0000000000000186 .L0 
C:\Users\stapi\AppData\Local\Temp\ccEuEHvK.s:2302   .text.etharp_output:00000000000001b2 .L0 
                     .debug_frame:0000000000000000 .L0 
C:\Users\stapi\AppData\Local\Temp\ccEuEHvK.s:46     .text.etharp_free_entry:000000000000002e .L2
C:\Users\stapi\AppData\Local\Temp\ccEuEHvK.s:65     .rodata.etharp_find_entry.str1.4:0000000000000000 .LC0
C:\Users\stapi\AppData\Local\Temp\ccEuEHvK.s:68     .rodata.etharp_find_entry.str1.4:0000000000000094 .LC1
C:\Users\stapi\AppData\Local\Temp\ccEuEHvK.s:71     .rodata.etharp_find_entry.str1.4:00000000000000ac .LC2
C:\Users\stapi\AppData\Local\Temp\ccEuEHvK.s:74     .rodata.etharp_find_entry.str1.4:00000000000000d4 .LC3
C:\Users\stapi\AppData\Local\Temp\ccEuEHvK.s:177    .text.etharp_find_entry:0000000000000066 .L8
C:\Users\stapi\AppData\Local\Temp\ccEuEHvK.s:255    .text.etharp_find_entry:00000000000000d0 .L24
C:\Users\stapi\AppData\Local\Temp\ccEuEHvK.s:158    .text.etharp_find_entry:0000000000000050 .L11
C:\Users\stapi\AppData\Local\Temp\ccEuEHvK.s:298    .text.etharp_find_entry:00000000000000fc .L28
C:\Users\stapi\AppData\Local\Temp\ccEuEHvK.s:244    .text.etharp_find_entry:00000000000000c6 .L13
C:\Users\stapi\AppData\Local\Temp\ccEuEHvK.s:233    .text.etharp_find_entry:00000000000000bc .L14
C:\Users\stapi\AppData\Local\Temp\ccEuEHvK.s:182    .text.etharp_find_entry:000000000000006a .L9
C:\Users\stapi\AppData\Local\Temp\ccEuEHvK.s:141    .text.etharp_find_entry:0000000000000038 .L10
C:\Users\stapi\AppData\Local\Temp\ccEuEHvK.s:129    .text.etharp_find_entry:000000000000002c .L15
C:\Users\stapi\AppData\Local\Temp\ccEuEHvK.s:269    .text.etharp_find_entry:00000000000000de .L25
C:\Users\stapi\AppData\Local\Temp\ccEuEHvK.s:324    .text.etharp_find_entry:0000000000000112 .L16
C:\Users\stapi\AppData\Local\Temp\ccEuEHvK.s:259    .text.etharp_find_entry:00000000000000d4 .L17
C:\Users\stapi\AppData\Local\Temp\ccEuEHvK.s:313    .text.etharp_find_entry:0000000000000106 .L18
C:\Users\stapi\AppData\Local\Temp\ccEuEHvK.s:227    .text.etharp_find_entry:00000000000000ba .L19
C:\Users\stapi\AppData\Local\Temp\ccEuEHvK.s:309    .text.etharp_find_entry:0000000000000104 .L26
C:\Users\stapi\AppData\Local\Temp\ccEuEHvK.s:284    .text.etharp_find_entry:00000000000000ec .L21
C:\Users\stapi\AppData\Local\Temp\ccEuEHvK.s:275    .text.etharp_find_entry:00000000000000e2 .L45
C:\Users\stapi\AppData\Local\Temp\ccEuEHvK.s:347    .text.etharp_find_entry:0000000000000144 .L20
C:\Users\stapi\AppData\Local\Temp\ccEuEHvK.s:357    .rodata.etharp_raw.str1.4:0000000000000000 .LC4
C:\Users\stapi\AppData\Local\Temp\ccEuEHvK.s:360    .rodata.etharp_raw.str1.4:0000000000000010 .LC5
C:\Users\stapi\AppData\Local\Temp\ccEuEHvK.s:363    .rodata.etharp_raw.str1.4:0000000000000044 .LC6
C:\Users\stapi\AppData\Local\Temp\ccEuEHvK.s:414    .text.etharp_raw:0000000000000030 .L48
C:\Users\stapi\AppData\Local\Temp\ccEuEHvK.s:408    .text.etharp_raw:000000000000002e .L49
C:\Users\stapi\AppData\Local\Temp\ccEuEHvK.s:584    .text.etharp_raw:0000000000000158 .L55
C:\Users\stapi\AppData\Local\Temp\ccEuEHvK.s:462    .text.etharp_raw:0000000000000088 .L51
C:\Users\stapi\AppData\Local\Temp\ccEuEHvK.s:457    .text.etharp_raw:0000000000000086 .L52
C:\Users\stapi\AppData\Local\Temp\ccEuEHvK.s:500    .text.etharp_raw:00000000000000d0 .L53
C:\Users\stapi\AppData\Local\Temp\ccEuEHvK.s:495    .text.etharp_raw:00000000000000ce .L54
C:\Users\stapi\AppData\Local\Temp\ccEuEHvK.s:567    .text.etharp_raw:0000000000000150 .L50
C:\Users\stapi\AppData\Local\Temp\ccEuEHvK.s:635    .text.etharp_cleanup_netif:000000000000002c .L58
C:\Users\stapi\AppData\Local\Temp\ccEuEHvK.s:621    .text.etharp_cleanup_netif:0000000000000016 .L59
C:\Users\stapi\AppData\Local\Temp\ccEuEHvK.s:657    .rodata.etharp_entry_dump.str1.4:0000000000000000 .LC7
C:\Users\stapi\AppData\Local\Temp\ccEuEHvK.s:660    .rodata.etharp_entry_dump.str1.4:0000000000000008 .LC8
C:\Users\stapi\AppData\Local\Temp\ccEuEHvK.s:718    .text.etharp_entry_dump:000000000000003c .L66
C:\Users\stapi\AppData\Local\Temp\ccEuEHvK.s:708    .text.etharp_entry_dump:000000000000002c .L67
C:\Users\stapi\AppData\Local\Temp\ccEuEHvK.s:785    .rodata.etharp_find_addr.str1.4:0000000000000000 .LC9
C:\Users\stapi\AppData\Local\Temp\ccEuEHvK.s:808    .text.etharp_find_addr:000000000000000e .L72
C:\Users\stapi\AppData\Local\Temp\ccEuEHvK.s:830    .text.etharp_find_addr:0000000000000034 .L73
C:\Users\stapi\AppData\Local\Temp\ccEuEHvK.s:824    .text.etharp_find_addr:0000000000000032 .L74
C:\Users\stapi\AppData\Local\Temp\ccEuEHvK.s:879    .text.etharp_find_addr:000000000000007a .L71
C:\Users\stapi\AppData\Local\Temp\ccEuEHvK.s:887    .text.etharp_find_addr:0000000000000082 .L77
C:\Users\stapi\AppData\Local\Temp\ccEuEHvK.s:897    .rodata.etharp_get_entry.str1.4:0000000000000000 .LC10
C:\Users\stapi\AppData\Local\Temp\ccEuEHvK.s:900    .rodata.etharp_get_entry.str1.4:0000000000000010 .LC11
C:\Users\stapi\AppData\Local\Temp\ccEuEHvK.s:938    .text.etharp_get_entry:0000000000000030 .L83
C:\Users\stapi\AppData\Local\Temp\ccEuEHvK.s:932    .text.etharp_get_entry:000000000000002e .L84
C:\Users\stapi\AppData\Local\Temp\ccEuEHvK.s:965    .text.etharp_get_entry:0000000000000058 .L85
C:\Users\stapi\AppData\Local\Temp\ccEuEHvK.s:959    .text.etharp_get_entry:0000000000000056 .L86
C:\Users\stapi\AppData\Local\Temp\ccEuEHvK.s:992    .text.etharp_get_entry:0000000000000080 .L87
C:\Users\stapi\AppData\Local\Temp\ccEuEHvK.s:986    .text.etharp_get_entry:000000000000007e .L88
C:\Users\stapi\AppData\Local\Temp\ccEuEHvK.s:1040   .text.etharp_get_entry:00000000000000be .L82
C:\Users\stapi\AppData\Local\Temp\ccEuEHvK.s:1050   .rodata.etharp_input.str1.4:0000000000000000 .LC12
C:\Users\stapi\AppData\Local\Temp\ccEuEHvK.s:1101   .text.etharp_input:0000000000000032 .L94
C:\Users\stapi\AppData\Local\Temp\ccEuEHvK.s:1095   .text.etharp_input:0000000000000030 .L95
C:\Users\stapi\AppData\Local\Temp\ccEuEHvK.s:1135   .text.etharp_input:0000000000000070 .L107
C:\Users\stapi\AppData\Local\Temp\ccEuEHvK.s:1155   .text.etharp_input:0000000000000084 .L97
C:\Users\stapi\AppData\Local\Temp\ccEuEHvK.s:1218   .text.etharp_input:00000000000000ee .L108
C:\Users\stapi\AppData\Local\Temp\ccEuEHvK.s:1227   .text.etharp_input:00000000000000f4 .L100
C:\Users\stapi\AppData\Local\Temp\ccEuEHvK.s:1212   .text.etharp_input:00000000000000ec .L101
C:\Users\stapi\AppData\Local\Temp\ccEuEHvK.s:1192   .text.etharp_input:00000000000000be .L99
C:\Users\stapi\AppData\Local\Temp\ccEuEHvK.s:1326   .text.etharp_input:0000000000000188 .L103
C:\Users\stapi\AppData\Local\Temp\ccEuEHvK.s:1349   .text.etharp_input:00000000000001b2 .L105
C:\Users\stapi\AppData\Local\Temp\ccEuEHvK.s:1475   .text.etharp_tmr:000000000000004a .L120
C:\Users\stapi\AppData\Local\Temp\ccEuEHvK.s:1469   .text.etharp_tmr:0000000000000040 .L121
C:\Users\stapi\AppData\Local\Temp\ccEuEHvK.s:1498   .text.etharp_tmr:000000000000005a .L122
C:\Users\stapi\AppData\Local\Temp\ccEuEHvK.s:1516   .text.etharp_tmr:000000000000006e .L123
C:\Users\stapi\AppData\Local\Temp\ccEuEHvK.s:1447   .text.etharp_tmr:0000000000000020 .L126
C:\Users\stapi\AppData\Local\Temp\ccEuEHvK.s:1508   .text.etharp_tmr:0000000000000064 .L124
C:\Users\stapi\AppData\Local\Temp\ccEuEHvK.s:1529   .rodata.etharp_output_to_arp_index.str1.4:0000000000000000 .LC13
C:\Users\stapi\AppData\Local\Temp\ccEuEHvK.s:1577   .text.etharp_output_to_arp_index:000000000000004a .L130
C:\Users\stapi\AppData\Local\Temp\ccEuEHvK.s:1571   .text.etharp_output_to_arp_index:0000000000000048 .L131
C:\Users\stapi\AppData\Local\Temp\ccEuEHvK.s:1619   .text.etharp_output_to_arp_index:0000000000000080 .L133
C:\Users\stapi\AppData\Local\Temp\ccEuEHvK.s:1641   .text.etharp_output_to_arp_index:000000000000009e .L134
C:\Users\stapi\AppData\Local\Temp\ccEuEHvK.s:1612   .text.etharp_output_to_arp_index:0000000000000078 .L139
C:\Users\stapi\AppData\Local\Temp\ccEuEHvK.s:1680   .rodata.etharp_query.str1.4:0000000000000000 .LC14
C:\Users\stapi\AppData\Local\Temp\ccEuEHvK.s:1683   .rodata.etharp_query.str1.4:0000000000000010 .LC15
C:\Users\stapi\AppData\Local\Temp\ccEuEHvK.s:1926   .text.etharp_query:0000000000000140 .L159
C:\Users\stapi\AppData\Local\Temp\ccEuEHvK.s:1766   .text.etharp_query:0000000000000054 .L142
C:\Users\stapi\AppData\Local\Temp\ccEuEHvK.s:1790   .text.etharp_query:0000000000000082 .L143
C:\Users\stapi\AppData\Local\Temp\ccEuEHvK.s:1784   .text.etharp_query:0000000000000080 .L144
C:\Users\stapi\AppData\Local\Temp\ccEuEHvK.s:1978   .text.etharp_query:0000000000000180 .L145
C:\Users\stapi\AppData\Local\Temp\ccEuEHvK.s:1754   .text.etharp_query:000000000000004c .L160
C:\Users\stapi\AppData\Local\Temp\ccEuEHvK.s:1867   .text.etharp_query:00000000000000ea .L175
C:\Users\stapi\AppData\Local\Temp\ccEuEHvK.s:1901   .text.etharp_query:0000000000000126 .L147
C:\Users\stapi\AppData\Local\Temp\ccEuEHvK.s:1895   .text.etharp_query:0000000000000124 .L148
C:\Users\stapi\AppData\Local\Temp\ccEuEHvK.s:1932   .text.etharp_query:0000000000000144 .L149
C:\Users\stapi\AppData\Local\Temp\ccEuEHvK.s:1872   .text.etharp_query:00000000000000f0 .L150
C:\Users\stapi\AppData\Local\Temp\ccEuEHvK.s:1951   .text.etharp_query:000000000000015e .L153
C:\Users\stapi\AppData\Local\Temp\ccEuEHvK.s:1964   .text.etharp_query:0000000000000172 .L152
C:\Users\stapi\AppData\Local\Temp\ccEuEHvK.s:1832   .text.etharp_query:00000000000000b2 .L146
C:\Users\stapi\AppData\Local\Temp\ccEuEHvK.s:1819   .text.etharp_query:00000000000000a4 .L156
C:\Users\stapi\AppData\Local\Temp\ccEuEHvK.s:1993   .rodata.etharp_output.str1.4:0000000000000000 .LC16
C:\Users\stapi\AppData\Local\Temp\ccEuEHvK.s:2042   .text.etharp_output:0000000000000032 .L178
C:\Users\stapi\AppData\Local\Temp\ccEuEHvK.s:2036   .text.etharp_output:0000000000000030 .L179
C:\Users\stapi\AppData\Local\Temp\ccEuEHvK.s:2069   .text.etharp_output:000000000000005c .L180
C:\Users\stapi\AppData\Local\Temp\ccEuEHvK.s:2063   .text.etharp_output:000000000000005a .L181
C:\Users\stapi\AppData\Local\Temp\ccEuEHvK.s:2096   .text.etharp_output:0000000000000086 .L182
C:\Users\stapi\AppData\Local\Temp\ccEuEHvK.s:2090   .text.etharp_output:0000000000000084 .L183
C:\Users\stapi\AppData\Local\Temp\ccEuEHvK.s:2293   .text.etharp_output:00000000000001a8 .L192
C:\Users\stapi\AppData\Local\Temp\ccEuEHvK.s:2161   .text.etharp_output:00000000000000ec .L185
C:\Users\stapi\AppData\Local\Temp\ccEuEHvK.s:2223   .text.etharp_output:0000000000000152 .L187
C:\Users\stapi\AppData\Local\Temp\ccEuEHvK.s:2190   .text.etharp_output:000000000000010e .L186
C:\Users\stapi\AppData\Local\Temp\ccEuEHvK.s:2236   .text.etharp_output:000000000000015c .L188
C:\Users\stapi\AppData\Local\Temp\ccEuEHvK.s:2259   .text.etharp_output:000000000000017e .L189
C:\Users\stapi\AppData\Local\Temp\ccEuEHvK.s:2216   .text.etharp_output:0000000000000146 .L199
C:\Users\stapi\AppData\Local\Temp\ccEuEHvK.s:2243   .text.etharp_output:0000000000000160 .L190
C:\Users\stapi\AppData\Local\Temp\ccEuEHvK.s:2149   .text.etharp_output:00000000000000d4 .L184
C:\Users\stapi\AppData\Local\Temp\ccEuEHvK.s:2304   .rodata.str1.4:0000000000000000 .LC17
C:\Users\stapi\AppData\Local\Temp\ccEuEHvK.s:2307   .rodata.str1.4:0000000000000008 .LC18
C:\Users\stapi\AppData\Local\Temp\ccEuEHvK.s:2310   .rodata.str1.4:0000000000000010 .LC19
C:\Users\stapi\AppData\Local\Temp\ccEuEHvK.s:2313   .rodata.str1.4:0000000000000018 .LC20
C:\Users\stapi\AppData\Local\Temp\ccEuEHvK.s:2316   .rodata.str1.4:0000000000000024 .LC21
C:\Users\stapi\AppData\Local\Temp\ccEuEHvK.s:5622   .debug_abbrev:0000000000000000 .Ldebug_abbrev0
C:\Users\stapi\AppData\Local\Temp\ccEuEHvK.s:8765   .debug_str:0000000000000b18 .LASF212
C:\Users\stapi\AppData\Local\Temp\ccEuEHvK.s:8545   .debug_str:0000000000000529 .LASF213
C:\Users\stapi\AppData\Local\Temp\ccEuEHvK.s:8503   .debug_str:00000000000003b0 .LASF214
C:\Users\stapi\AppData\Local\Temp\ccEuEHvK.s:8263   .debug_ranges:0000000000000000 .Ldebug_ranges0
C:\Users\stapi\AppData\Local\Temp\ccEuEHvK.s:8347   .debug_line:0000000000000000 .Ldebug_line0
C:\Users\stapi\AppData\Local\Temp\ccEuEHvK.s:8611   .debug_str:000000000000073f .LASF0
C:\Users\stapi\AppData\Local\Temp\ccEuEHvK.s:8749   .debug_str:0000000000000ac0 .LASF2
C:\Users\stapi\AppData\Local\Temp\ccEuEHvK.s:8665   .debug_str:0000000000000890 .LASF1
C:\Users\stapi\AppData\Local\Temp\ccEuEHvK.s:8715   .debug_str:00000000000009e4 .LASF3
C:\Users\stapi\AppData\Local\Temp\ccEuEHvK.s:8587   .debug_str:000000000000068d .LASF4
C:\Users\stapi\AppData\Local\Temp\ccEuEHvK.s:8639   .debug_str:00000000000007de .LASF5
C:\Users\stapi\AppData\Local\Temp\ccEuEHvK.s:8453   .debug_str:0000000000000287 .LASF6
C:\Users\stapi\AppData\Local\Temp\ccEuEHvK.s:8751   .debug_str:0000000000000acc .LASF7
C:\Users\stapi\AppData\Local\Temp\ccEuEHvK.s:8645   .debug_str:0000000000000805 .LASF8
C:\Users\stapi\AppData\Local\Temp\ccEuEHvK.s:8717   .debug_str:00000000000009f2 .LASF9
C:\Users\stapi\AppData\Local\Temp\ccEuEHvK.s:8693   .debug_str:000000000000096b .LASF10
C:\Users\stapi\AppData\Local\Temp\ccEuEHvK.s:8569   .debug_str:000000000000062e .LASF11
C:\Users\stapi\AppData\Local\Temp\ccEuEHvK.s:8449   .debug_str:000000000000025d .LASF12
C:\Users\stapi\AppData\Local\Temp\ccEuEHvK.s:8381   .debug_str:00000000000000c3 .LASF13
C:\Users\stapi\AppData\Local\Temp\ccEuEHvK.s:8423   .debug_str:00000000000001b4 .LASF14
C:\Users\stapi\AppData\Local\Temp\ccEuEHvK.s:8557   .debug_str:00000000000005ec .LASF15
C:\Users\stapi\AppData\Local\Temp\ccEuEHvK.s:8441   .debug_str:000000000000023a .LASF16
C:\Users\stapi\AppData\Local\Temp\ccEuEHvK.s:8615   .debug_str:0000000000000769 .LASF17
C:\Users\stapi\AppData\Local\Temp\ccEuEHvK.s:8421   .debug_str:00000000000001ab .LASF18
C:\Users\stapi\AppData\Local\Temp\ccEuEHvK.s:8483   .debug_str:000000000000034a .LASF19
C:\Users\stapi\AppData\Local\Temp\ccEuEHvK.s:8747   .debug_str:0000000000000ab7 .LASF20
C:\Users\stapi\AppData\Local\Temp\ccEuEHvK.s:8541   .debug_str:0000000000000514 .LASF21
C:\Users\stapi\AppData\Local\Temp\ccEuEHvK.s:8553   .debug_str:00000000000005cf .LASF22
C:\Users\stapi\AppData\Local\Temp\ccEuEHvK.s:8583   .debug_str:000000000000067c .LASF23
C:\Users\stapi\AppData\Local\Temp\ccEuEHvK.s:8507   .debug_str:0000000000000442 .LASF24
C:\Users\stapi\AppData\Local\Temp\ccEuEHvK.s:8397   .debug_str:000000000000010c .LASF25
C:\Users\stapi\AppData\Local\Temp\ccEuEHvK.s:8703   .debug_str:00000000000009ac .LASF26
C:\Users\stapi\AppData\Local\Temp\ccEuEHvK.s:8637   .debug_str:00000000000007d8 .LASF27
C:\Users\stapi\AppData\Local\Temp\ccEuEHvK.s:8743   .debug_str:0000000000000a8e .LASF28
C:\Users\stapi\AppData\Local\Temp\ccEuEHvK.s:8775   .debug_str:0000000000000c42 .LASF29
C:\Users\stapi\AppData\Local\Temp\ccEuEHvK.s:8629   .debug_str:00000000000007b2 .LASF30
C:\Users\stapi\AppData\Local\Temp\ccEuEHvK.s:8521   .debug_str:000000000000048a .LASF31
C:\Users\stapi\AppData\Local\Temp\ccEuEHvK.s:8761   .debug_str:0000000000000b06 .LASF32
C:\Users\stapi\AppData\Local\Temp\ccEuEHvK.s:8659   .debug_str:0000000000000869 .LASF33
C:\Users\stapi\AppData\Local\Temp\ccEuEHvK.s:8461   .debug_str:00000000000002b5 .LASF34
C:\Users\stapi\AppData\Local\Temp\ccEuEHvK.s:8519   .debug_str:000000000000047b .LASF35
C:\Users\stapi\AppData\Local\Temp\ccEuEHvK.s:8375   .debug_str:000000000000009a .LASF36
C:\Users\stapi\AppData\Local\Temp\ccEuEHvK.s:8417   .debug_str:0000000000000190 .LASF37
C:\Users\stapi\AppData\Local\Temp\ccEuEHvK.s:8667   .debug_str:000000000000089a .LASF38
C:\Users\stapi\AppData\Local\Temp\ccEuEHvK.s:8757   .debug_str:0000000000000af7 .LASF39
C:\Users\stapi\AppData\Local\Temp\ccEuEHvK.s:8573   .debug_str:0000000000000643 .LASF40
C:\Users\stapi\AppData\Local\Temp\ccEuEHvK.s:8735   .debug_str:0000000000000a55 .LASF41
C:\Users\stapi\AppData\Local\Temp\ccEuEHvK.s:8411   .debug_str:000000000000016e .LASF42
C:\Users\stapi\AppData\Local\Temp\ccEuEHvK.s:8373   .debug_str:0000000000000091 .LASF43
C:\Users\stapi\AppData\Local\Temp\ccEuEHvK.s:8377   .debug_str:00000000000000a2 .LASF44
C:\Users\stapi\AppData\Local\Temp\ccEuEHvK.s:8387   .debug_str:00000000000000e1 .LASF45
C:\Users\stapi\AppData\Local\Temp\ccEuEHvK.s:8415   .debug_str:0000000000000181 .LASF46
C:\Users\stapi\AppData\Local\Temp\ccEuEHvK.s:8489   .debug_str:000000000000036e .LASF47
C:\Users\stapi\AppData\Local\Temp\ccEuEHvK.s:8603   .debug_str:00000000000006fd .LASF48
C:\Users\stapi\AppData\Local\Temp\ccEuEHvK.s:8769   .debug_str:0000000000000c1c .LASF49
C:\Users\stapi\AppData\Local\Temp\ccEuEHvK.s:8369   .debug_str:0000000000000082 .LASF50
C:\Users\stapi\AppData\Local\Temp\ccEuEHvK.s:8365   .debug_str:0000000000000057 .LASF51
C:\Users\stapi\AppData\Local\Temp\ccEuEHvK.s:8771   .debug_str:0000000000000c28 .LASF52
C:\Users\stapi\AppData\Local\Temp\ccEuEHvK.s:8467   .debug_str:00000000000002e0 .LASF53
C:\Users\stapi\AppData\Local\Temp\ccEuEHvK.s:8501   .debug_str:00000000000003a6 .LASF54
C:\Users\stapi\AppData\Local\Temp\ccEuEHvK.s:8495   .debug_str:0000000000000387 .LASF61
C:\Users\stapi\AppData\Local\Temp\ccEuEHvK.s:8383   .debug_str:00000000000000d0 .LASF55
C:\Users\stapi\AppData\Local\Temp\ccEuEHvK.s:8485   .debug_str:0000000000000351 .LASF56
C:\Users\stapi\AppData\Local\Temp\ccEuEHvK.s:8479   .debug_str:000000000000033b .LASF57
C:\Users\stapi\AppData\Local\Temp\ccEuEHvK.s:8477   .debug_str:000000000000032d .LASF58
C:\Users\stapi\AppData\Local\Temp\ccEuEHvK.s:8371   .debug_str:000000000000008b .LASF59
C:\Users\stapi\AppData\Local\Temp\ccEuEHvK.s:8621   .debug_str:0000000000000785 .LASF60
C:\Users\stapi\AppData\Local\Temp\ccEuEHvK.s:8663   .debug_str:0000000000000887 .LASF62
C:\Users\stapi\AppData\Local\Temp\ccEuEHvK.s:8727   .debug_str:0000000000000a39 .LASF63
C:\Users\stapi\AppData\Local\Temp\ccEuEHvK.s:8641   .debug_str:00000000000007e8 .LASF64
C:\Users\stapi\AppData\Local\Temp\ccEuEHvK.s:8763   .debug_str:0000000000000b0e .LASF65
C:\Users\stapi\AppData\Local\Temp\ccEuEHvK.s:8687   .debug_str:0000000000000949 .LASF66
C:\Users\stapi\AppData\Local\Temp\ccEuEHvK.s:8653   .debug_str:0000000000000849 .LASF67
C:\Users\stapi\AppData\Local\Temp\ccEuEHvK.s:8581   .debug_str:000000000000066f .LASF68
C:\Users\stapi\AppData\Local\Temp\ccEuEHvK.s:8357   .debug_str:0000000000000027 .LASF69
C:\Users\stapi\AppData\Local\Temp\ccEuEHvK.s:8721   .debug_str:0000000000000a0e .LASF70
C:\Users\stapi\AppData\Local\Temp\ccEuEHvK.s:8605   .debug_str:0000000000000707 .LASF71
C:\Users\stapi\AppData\Local\Temp\ccEuEHvK.s:8597   .debug_str:00000000000006cf .LASF72
C:\Users\stapi\AppData\Local\Temp\ccEuEHvK.s:8677   .debug_str:0000000000000904 .LASF73
C:\Users\stapi\AppData\Local\Temp\ccEuEHvK.s:8565   .debug_str:000000000000061a .LASF74
C:\Users\stapi\AppData\Local\Temp\ccEuEHvK.s:8515   .debug_str:0000000000000464 .LASF75
C:\Users\stapi\AppData\Local\Temp\ccEuEHvK.s:8427   .debug_str:00000000000001cb .LASF76
C:\Users\stapi\AppData\Local\Temp\ccEuEHvK.s:8465   .debug_str:00000000000002cb .LASF77
C:\Users\stapi\AppData\Local\Temp\ccEuEHvK.s:8425   .debug_str:00000000000001bb .LASF78
C:\Users\stapi\AppData\Local\Temp\ccEuEHvK.s:8649   .debug_str:000000000000082d .LASF79
C:\Users\stapi\AppData\Local\Temp\ccEuEHvK.s:8767   .debug_str:0000000000000c11 .LASF80
C:\Users\stapi\AppData\Local\Temp\ccEuEHvK.s:8531   .debug_str:00000000000004c8 .LASF81
C:\Users\stapi\AppData\Local\Temp\ccEuEHvK.s:8407   .debug_str:0000000000000153 .LASF82
C:\Users\stapi\AppData\Local\Temp\ccEuEHvK.s:8505   .debug_str:0000000000000439 .LASF83
C:\Users\stapi\AppData\Local\Temp\ccEuEHvK.s:8475   .debug_str:0000000000000307 .LASF87
C:\Users\stapi\AppData\Local\Temp\ccEuEHvK.s:8745   .debug_str:0000000000000a95 .LASF84
C:\Users\stapi\AppData\Local\Temp\ccEuEHvK.s:8367   .debug_str:0000000000000060 .LASF85
C:\Users\stapi\AppData\Local\Temp\ccEuEHvK.s:8613   .debug_str:0000000000000748 .LASF86
C:\Users\stapi\AppData\Local\Temp\ccEuEHvK.s:8695   .debug_str:000000000000097d .LASF88
C:\Users\stapi\AppData\Local\Temp\ccEuEHvK.s:8609   .debug_str:000000000000072a .LASF89
C:\Users\stapi\AppData\Local\Temp\ccEuEHvK.s:8555   .debug_str:00000000000005d7 .LASF90
C:\Users\stapi\AppData\Local\Temp\ccEuEHvK.s:8733   .debug_str:0000000000000a4f .LASF91
C:\Users\stapi\AppData\Local\Temp\ccEuEHvK.s:8781   .debug_str:0000000000000c60 .LASF92
C:\Users\stapi\AppData\Local\Temp\ccEuEHvK.s:8567   .debug_str:0000000000000626 .LASF93
C:\Users\stapi\AppData\Local\Temp\ccEuEHvK.s:8359   .debug_str:000000000000003b .LASF94
C:\Users\stapi\AppData\Local\Temp\ccEuEHvK.s:8491   .debug_str:0000000000000376 .LASF95
C:\Users\stapi\AppData\Local\Temp\ccEuEHvK.s:8391   .debug_str:00000000000000ef .LASF96
C:\Users\stapi\AppData\Local\Temp\ccEuEHvK.s:8729   .debug_str:0000000000000a3e .LASF97
C:\Users\stapi\AppData\Local\Temp\ccEuEHvK.s:8535   .debug_str:00000000000004ec .LASF98
C:\Users\stapi\AppData\Local\Temp\ccEuEHvK.s:8447   .debug_str:0000000000000256 .LASF99
C:\Users\stapi\AppData\Local\Temp\ccEuEHvK.s:8457   .debug_str:0000000000000298 .LASF100
C:\Users\stapi\AppData\Local\Temp\ccEuEHvK.s:8669   .debug_str:00000000000008a5 .LASF101
C:\Users\stapi\AppData\Local\Temp\ccEuEHvK.s:8679   .debug_str:0000000000000913 .LASF102
C:\Users\stapi\AppData\Local\Temp\ccEuEHvK.s:8543   .debug_str:0000000000000519 .LASF103
C:\Users\stapi\AppData\Local\Temp\ccEuEHvK.s:8651   .debug_str:000000000000083e .LASF104
C:\Users\stapi\AppData\Local\Temp\ccEuEHvK.s:8493   .debug_str:000000000000037d .LASF105
C:\Users\stapi\AppData\Local\Temp\ccEuEHvK.s:8419   .debug_str:000000000000019c .LASF106
C:\Users\stapi\AppData\Local\Temp\ccEuEHvK.s:8403   .debug_str:0000000000000137 .LASF107
C:\Users\stapi\AppData\Local\Temp\ccEuEHvK.s:8675   .debug_str:00000000000008f0 .LASF108
C:\Users\stapi\AppData\Local\Temp\ccEuEHvK.s:8741   .debug_str:0000000000000a75 .LASF109
C:\Users\stapi\AppData\Local\Temp\ccEuEHvK.s:8593   .debug_str:00000000000006b1 .LASF110
C:\Users\stapi\AppData\Local\Temp\ccEuEHvK.s:8723   .debug_str:0000000000000a1b .LASF111
C:\Users\stapi\AppData\Local\Temp\ccEuEHvK.s:8725   .debug_str:0000000000000a2e .LASF112
C:\Users\stapi\AppData\Local\Temp\ccEuEHvK.s:8363   .debug_str:000000000000004b .LASF113
C:\Users\stapi\AppData\Local\Temp\ccEuEHvK.s:8601   .debug_str:00000000000006f1 .LASF114
C:\Users\stapi\AppData\Local\Temp\ccEuEHvK.s:8439   .debug_str:000000000000022d .LASF115
C:\Users\stapi\AppData\Local\Temp\ccEuEHvK.s:8691   .debug_str:000000000000095e .LASF116
C:\Users\stapi\AppData\Local\Temp\ccEuEHvK.s:8435   .debug_str:000000000000020f .LASF117
C:\Users\stapi\AppData\Local\Temp\ccEuEHvK.s:8579   .debug_str:000000000000065d .LASF118
C:\Users\stapi\AppData\Local\Temp\ccEuEHvK.s:8499   .debug_str:0000000000000398 .LASF119
C:\Users\stapi\AppData\Local\Temp\ccEuEHvK.s:8463   .debug_str:00000000000002bd .LASF120
C:\Users\stapi\AppData\Local\Temp\ccEuEHvK.s:8559   .debug_str:00000000000005f4 .LASF121
C:\Users\stapi\AppData\Local\Temp\ccEuEHvK.s:8437   .debug_str:000000000000021c .LASF122
C:\Users\stapi\AppData\Local\Temp\ccEuEHvK.s:8431   .debug_str:00000000000001ed .LASF123
C:\Users\stapi\AppData\Local\Temp\ccEuEHvK.s:8685   .debug_str:000000000000093a .LASF124
C:\Users\stapi\AppData\Local\Temp\ccEuEHvK.s:8713   .debug_str:00000000000009d8 .LASF125
C:\Users\stapi\AppData\Local\Temp\ccEuEHvK.s:8405   .debug_str:0000000000000147 .LASF126
C:\Users\stapi\AppData\Local\Temp\ccEuEHvK.s:8591   .debug_str:00000000000006a4 .LASF127
C:\Users\stapi\AppData\Local\Temp\ccEuEHvK.s:8351   .debug_str:000000000000000b .LASF128
C:\Users\stapi\AppData\Local\Temp\ccEuEHvK.s:8433   .debug_str:00000000000001fa .LASF129
C:\Users\stapi\AppData\Local\Temp\ccEuEHvK.s:8395   .debug_str:0000000000000106 .LASF130
C:\Users\stapi\AppData\Local\Temp\ccEuEHvK.s:8355   .debug_str:000000000000001c .LASF131
C:\Users\stapi\AppData\Local\Temp\ccEuEHvK.s:8469   .debug_str:00000000000002e9 .LASF132
C:\Users\stapi\AppData\Local\Temp\ccEuEHvK.s:8547   .debug_str:00000000000005ba .LASF133
C:\Users\stapi\AppData\Local\Temp\ccEuEHvK.s:8759   .debug_str:0000000000000b00 .LASF134
C:\Users\stapi\AppData\Local\Temp\ccEuEHvK.s:8617   .debug_str:0000000000000772 .LASF135
C:\Users\stapi\AppData\Local\Temp\ccEuEHvK.s:8549   .debug_str:00000000000005c0 .LASF136
C:\Users\stapi\AppData\Local\Temp\ccEuEHvK.s:8511   .debug_str:0000000000000451 .LASF137
C:\Users\stapi\AppData\Local\Temp\ccEuEHvK.s:8551   .debug_str:00000000000005c7 .LASF138
C:\Users\stapi\AppData\Local\Temp\ccEuEHvK.s:8353   .debug_str:0000000000000014 .LASF139
C:\Users\stapi\AppData\Local\Temp\ccEuEHvK.s:8389   .debug_str:00000000000000e7 .LASF140
C:\Users\stapi\AppData\Local\Temp\ccEuEHvK.s:8471   .debug_str:00000000000002f0 .LASF141
C:\Users\stapi\AppData\Local\Temp\ccEuEHvK.s:8525   .debug_str:00000000000004a3 .LASF142
C:\Users\stapi\AppData\Local\Temp\ccEuEHvK.s:8619   .debug_str:000000000000077b .LASF143
C:\Users\stapi\AppData\Local\Temp\ccEuEHvK.s:8779   .debug_str:0000000000000c4f .LASF144
C:\Users\stapi\AppData\Local\Temp\ccEuEHvK.s:8533   .debug_str:00000000000004d2 .LASF145
C:\Users\stapi\AppData\Local\Temp\ccEuEHvK.s:8627   .debug_str:00000000000007a5 .LASF146
C:\Users\stapi\AppData\Local\Temp\ccEuEHvK.s:8689   .debug_str:0000000000000956 .LASF147
C:\Users\stapi\AppData\Local\Temp\ccEuEHvK.s:8523   .debug_str:0000000000000496 .LASF148
C:\Users\stapi\AppData\Local\Temp\ccEuEHvK.s:8451   .debug_str:0000000000000274 .LASF149
C:\Users\stapi\AppData\Local\Temp\ccEuEHvK.s:8683   .debug_str:0000000000000925 .LASF150
C:\Users\stapi\AppData\Local\Temp\ccEuEHvK.s:8607   .debug_str:0000000000000716 .LASF151
C:\Users\stapi\AppData\Local\Temp\ccEuEHvK.s:8671   .debug_str:00000000000008aa .LASF152
C:\Users\stapi\AppData\Local\Temp\ccEuEHvK.s:8673   .debug_str:00000000000008cd .LASF153
C:\Users\stapi\AppData\Local\Temp\ccEuEHvK.s:8443   .debug_str:0000000000000242 .LASF154
C:\Users\stapi\AppData\Local\Temp\ccEuEHvK.s:8481   .debug_str:0000000000000343 .LASF155
C:\Users\stapi\AppData\Local\Temp\ccEuEHvK.s:8655   .debug_str:0000000000000856 .LASF156
C:\Users\stapi\AppData\Local\Temp\ccEuEHvK.s:8455   .debug_str:0000000000000292 .LASF157
C:\Users\stapi\AppData\Local\Temp\ccEuEHvK.s:8697   .debug_str:0000000000000995 .LASF158
C:\Users\stapi\AppData\Local\Temp\ccEuEHvK.s:8537   .debug_str:00000000000004f8 .LASF159
C:\Users\stapi\AppData\Local\Temp\ccEuEHvK.s:8661   .debug_str:0000000000000878 .LASF168
C:\Users\stapi\AppData\Local\Temp\ccEuEHvK.s:1376   .text.etharp_request:0000000000000000 .LFB18
C:\Users\stapi\AppData\Local\Temp\ccEuEHvK.s:1402   .text.etharp_request:0000000000000026 .LFE18
C:\Users\stapi\AppData\Local\Temp\ccEuEHvK.s:6568   .debug_loc:0000000000000000 .LLST47
C:\Users\stapi\AppData\Local\Temp\ccEuEHvK.s:6582   .debug_loc:0000000000000021 .LLST48
C:\Users\stapi\AppData\Local\Temp\ccEuEHvK.s:1382   .text.etharp_request:0000000000000000 .LBB23
C:\Users\stapi\AppData\Local\Temp\ccEuEHvK.s:1400   .text.etharp_request:0000000000000026 .LBE23
C:\Users\stapi\AppData\Local\Temp\ccEuEHvK.s:6600   .debug_loc:000000000000004d .LLST49
C:\Users\stapi\AppData\Local\Temp\ccEuEHvK.s:6618   .debug_loc:0000000000000079 .LLST50
C:\Users\stapi\AppData\Local\Temp\ccEuEHvK.s:1398   .text.etharp_request:0000000000000026 .LVL138
C:\Users\stapi\AppData\Local\Temp\ccEuEHvK.s:8599   .debug_str:00000000000006de .LASF191
C:\Users\stapi\AppData\Local\Temp\ccEuEHvK.s:8393   .debug_str:00000000000000fa .LASF160
C:\Users\stapi\AppData\Local\Temp\ccEuEHvK.s:8413   .debug_str:0000000000000176 .LASF178
C:\Users\stapi\AppData\Local\Temp\ccEuEHvK.s:369    .text.etharp_raw:0000000000000000 .LFB16
C:\Users\stapi\AppData\Local\Temp\ccEuEHvK.s:590    .text.etharp_raw:000000000000015c .LFE16
C:\Users\stapi\AppData\Local\Temp\ccEuEHvK.s:6632   .debug_loc:000000000000009a .LLST13
C:\Users\stapi\AppData\Local\Temp\ccEuEHvK.s:8409   .debug_str:0000000000000162 .LASF161
C:\Users\stapi\AppData\Local\Temp\ccEuEHvK.s:6654   .debug_loc:00000000000000d1 .LLST14
C:\Users\stapi\AppData\Local\Temp\ccEuEHvK.s:8585   .debug_str:0000000000000681 .LASF162
C:\Users\stapi\AppData\Local\Temp\ccEuEHvK.s:6676   .debug_loc:0000000000000108 .LLST15
C:\Users\stapi\AppData\Local\Temp\ccEuEHvK.s:8575   .debug_str:000000000000064a .LASF163
C:\Users\stapi\AppData\Local\Temp\ccEuEHvK.s:6698   .debug_loc:000000000000013f .LLST16
C:\Users\stapi\AppData\Local\Temp\ccEuEHvK.s:8657   .debug_str:000000000000085e .LASF164
C:\Users\stapi\AppData\Local\Temp\ccEuEHvK.s:6720   .debug_loc:0000000000000176 .LLST17
C:\Users\stapi\AppData\Local\Temp\ccEuEHvK.s:8731   .debug_str:0000000000000a44 .LASF165
C:\Users\stapi\AppData\Local\Temp\ccEuEHvK.s:6742   .debug_loc:00000000000001ad .LLST18
C:\Users\stapi\AppData\Local\Temp\ccEuEHvK.s:8631   .debug_str:00000000000007ba .LASF166
C:\Users\stapi\AppData\Local\Temp\ccEuEHvK.s:6764   .debug_loc:00000000000001e4 .LLST19
C:\Users\stapi\AppData\Local\Temp\ccEuEHvK.s:6786   .debug_loc:000000000000021b .LLST20
C:\Users\stapi\AppData\Local\Temp\ccEuEHvK.s:6811   .debug_loc:0000000000000255 .LLST21
C:\Users\stapi\AppData\Local\Temp\ccEuEHvK.s:8445   .debug_str:000000000000024f .LASF167
C:\Users\stapi\AppData\Local\Temp\ccEuEHvK.s:6827   .debug_loc:000000000000027f .LLST22
C:\Users\stapi\AppData\Local\Temp\ccEuEHvK.s:407    .text.etharp_raw:000000000000002e .LVL42
C:\Users\stapi\AppData\Local\Temp\ccEuEHvK.s:435    .text.etharp_raw:0000000000000052 .LVL47
C:\Users\stapi\AppData\Local\Temp\ccEuEHvK.s:456    .text.etharp_raw:0000000000000086 .LVL49
C:\Users\stapi\AppData\Local\Temp\ccEuEHvK.s:474    .text.etharp_raw:0000000000000094 .LVL51
C:\Users\stapi\AppData\Local\Temp\ccEuEHvK.s:494    .text.etharp_raw:00000000000000ce .LVL52
C:\Users\stapi\AppData\Local\Temp\ccEuEHvK.s:508    .text.etharp_raw:00000000000000e0 .LVL53
C:\Users\stapi\AppData\Local\Temp\ccEuEHvK.s:514    .text.etharp_raw:00000000000000f0 .LVL54
C:\Users\stapi\AppData\Local\Temp\ccEuEHvK.s:520    .text.etharp_raw:0000000000000100 .LVL55
C:\Users\stapi\AppData\Local\Temp\ccEuEHvK.s:526    .text.etharp_raw:0000000000000110 .LVL56
C:\Users\stapi\AppData\Local\Temp\ccEuEHvK.s:556    .text.etharp_raw:0000000000000144 .LVL57
C:\Users\stapi\AppData\Local\Temp\ccEuEHvK.s:561    .text.etharp_raw:000000000000014e .LVL58
C:\Users\stapi\AppData\Local\Temp\ccEuEHvK.s:8401   .debug_str:000000000000012a .LASF169
C:\Users\stapi\AppData\Local\Temp\ccEuEHvK.s:1690   .text.etharp_query:0000000000000000 .LFB15
C:\Users\stapi\AppData\Local\Temp\ccEuEHvK.s:1989   .text.etharp_query:0000000000000186 .LFE15
C:\Users\stapi\AppData\Local\Temp\ccEuEHvK.s:6834   .debug_loc:0000000000000292 .LLST57
C:\Users\stapi\AppData\Local\Temp\ccEuEHvK.s:6849   .debug_loc:00000000000002bb .LLST58
C:\Users\stapi\AppData\Local\Temp\ccEuEHvK.s:6860   .debug_loc:00000000000002d9 .LLST59
C:\Users\stapi\AppData\Local\Temp\ccEuEHvK.s:8539   .debug_str:000000000000050c .LASF170
C:\Users\stapi\AppData\Local\Temp\ccEuEHvK.s:6893   .debug_loc:0000000000000329 .LLST60
C:\Users\stapi\AppData\Local\Temp\ccEuEHvK.s:6914   .debug_loc:0000000000000358 .LLST61
C:\Users\stapi\AppData\Local\Temp\ccEuEHvK.s:8589   .debug_str:0000000000000697 .LASF171
C:\Users\stapi\AppData\Local\Temp\ccEuEHvK.s:6962   .debug_loc:00000000000003cc .LLST62
C:\Users\stapi\AppData\Local\Temp\ccEuEHvK.s:8709   .debug_str:00000000000009cc .LASF172
C:\Users\stapi\AppData\Local\Temp\ccEuEHvK.s:6990   .debug_loc:0000000000000410 .LLST63
C:\Users\stapi\AppData\Local\Temp\ccEuEHvK.s:7009   .debug_loc:0000000000000444 .LLST64
C:\Users\stapi\AppData\Local\Temp\ccEuEHvK.s:7020   .debug_loc:0000000000000462 .LLST65
C:\Users\stapi\AppData\Local\Temp\ccEuEHvK.s:8385   .debug_str:00000000000000d5 .LASF173
C:\Users\stapi\AppData\Local\Temp\ccEuEHvK.s:7043   .debug_loc:00000000000004a1 .LLST66
C:\Users\stapi\AppData\Local\Temp\ccEuEHvK.s:1894   .text.etharp_query:0000000000000124 .LVL182
C:\Users\stapi\AppData\Local\Temp\ccEuEHvK.s:1922   .text.etharp_query:000000000000013e .LVL187
C:\Users\stapi\AppData\Local\Temp\ccEuEHvK.s:1942   .text.etharp_query:0000000000000156 .LVL191
C:\Users\stapi\AppData\Local\Temp\ccEuEHvK.s:1963   .text.etharp_query:0000000000000172 .LVL194
C:\Users\stapi\AppData\Local\Temp\ccEuEHvK.s:1721   .text.etharp_query:000000000000001c .LVL166
C:\Users\stapi\AppData\Local\Temp\ccEuEHvK.s:1740   .text.etharp_query:0000000000000042 .LVL167
C:\Users\stapi\AppData\Local\Temp\ccEuEHvK.s:1783   .text.etharp_query:0000000000000080 .LVL172
C:\Users\stapi\AppData\Local\Temp\ccEuEHvK.s:1825   .text.etharp_query:00000000000000b0 .LVL176
C:\Users\stapi\AppData\Local\Temp\ccEuEHvK.s:1865   .text.etharp_query:00000000000000e8 .LVL179
C:\Users\stapi\AppData\Local\Temp\ccEuEHvK.s:8623   .debug_str:000000000000078c .LASF174
C:\Users\stapi\AppData\Local\Temp\ccEuEHvK.s:2000   .text.etharp_output:0000000000000000 .LFB14
C:\Users\stapi\AppData\Local\Temp\ccEuEHvK.s:2300   .text.etharp_output:00000000000001b2 .LFE14
C:\Users\stapi\AppData\Local\Temp\ccEuEHvK.s:7056   .debug_loc:00000000000004c1 .LLST67
C:\Users\stapi\AppData\Local\Temp\ccEuEHvK.s:7100   .debug_loc:000000000000052a .LLST68
C:\Users\stapi\AppData\Local\Temp\ccEuEHvK.s:7138   .debug_loc:000000000000058d .LLST69
C:\Users\stapi\AppData\Local\Temp\ccEuEHvK.s:8777   .debug_str:0000000000000c4a .LASF175
C:\Users\stapi\AppData\Local\Temp\ccEuEHvK.s:7193   .debug_loc:000000000000060f .LLST70
C:\Users\stapi\AppData\Local\Temp\ccEuEHvK.s:8707   .debug_str:00000000000009c2 .LASF176
C:\Users\stapi\AppData\Local\Temp\ccEuEHvK.s:8473   .debug_str:00000000000002fe .LASF177
C:\Users\stapi\AppData\Local\Temp\ccEuEHvK.s:7208   .debug_loc:0000000000000638 .LLST71
C:\Users\stapi\AppData\Local\Temp\ccEuEHvK.s:7249   .debug_loc:000000000000069e .LLST72
C:\Users\stapi\AppData\Local\Temp\ccEuEHvK.s:2270   .text.etharp_output:000000000000018a .LBB39
C:\Users\stapi\AppData\Local\Temp\ccEuEHvK.s:2282   .text.etharp_output:0000000000000198 .LBE39
C:\Users\stapi\AppData\Local\Temp\ccEuEHvK.s:8647   .debug_str:000000000000080e .LASF210
C:\Users\stapi\AppData\Local\Temp\ccEuEHvK.s:2276   .text.etharp_output:0000000000000194 .LVL227
C:\Users\stapi\AppData\Local\Temp\ccEuEHvK.s:2222   .text.etharp_output:0000000000000152 .LVL222
C:\Users\stapi\AppData\Local\Temp\ccEuEHvK.s:2290   .text.etharp_output:00000000000001a6 .LVL230
C:\Users\stapi\AppData\Local\Temp\ccEuEHvK.s:2035   .text.etharp_output:0000000000000030 .LVL203
C:\Users\stapi\AppData\Local\Temp\ccEuEHvK.s:2062   .text.etharp_output:000000000000005a .LVL208
C:\Users\stapi\AppData\Local\Temp\ccEuEHvK.s:2089   .text.etharp_output:0000000000000084 .LVL213
C:\Users\stapi\AppData\Local\Temp\ccEuEHvK.s:2108   .text.etharp_output:0000000000000094 .LVL217
C:\Users\stapi\AppData\Local\Temp\ccEuEHvK.s:2158   .text.etharp_output:00000000000000ea .LVL219
C:\Users\stapi\AppData\Local\Temp\ccEuEHvK.s:8783   .debug_str:0000000000000c68 .LASF179
C:\Users\stapi\AppData\Local\Temp\ccEuEHvK.s:1535   .text.etharp_output_to_arp_index:0000000000000000 .LFB13
C:\Users\stapi\AppData\Local\Temp\ccEuEHvK.s:1676   .text.etharp_output_to_arp_index:00000000000000c8 .LFE13
C:\Users\stapi\AppData\Local\Temp\ccEuEHvK.s:7260   .debug_loc:00000000000006bc .LLST53
C:\Users\stapi\AppData\Local\Temp\ccEuEHvK.s:7282   .debug_loc:00000000000006f3 .LLST54
C:\Users\stapi\AppData\Local\Temp\ccEuEHvK.s:8633   .debug_str:00000000000007c5 .LASF180
C:\Users\stapi\AppData\Local\Temp\ccEuEHvK.s:7312   .debug_loc:0000000000000740 .LLST55
C:\Users\stapi\AppData\Local\Temp\ccEuEHvK.s:1589   .text.etharp_output_to_arp_index:0000000000000056 .LBB30
C:\Users\stapi\AppData\Local\Temp\ccEuEHvK.s:7348   .debug_loc:0000000000000793 .LLST56
C:\Users\stapi\AppData\Local\Temp\ccEuEHvK.s:1671   .text.etharp_output_to_arp_index:00000000000000c6 .LVL161
C:\Users\stapi\AppData\Local\Temp\ccEuEHvK.s:1570   .text.etharp_output_to_arp_index:0000000000000048 .LVL150
C:\Users\stapi\AppData\Local\Temp\ccEuEHvK.s:1611   .text.etharp_output_to_arp_index:0000000000000078 .LVL154
C:\Users\stapi\AppData\Local\Temp\ccEuEHvK.s:1629   .text.etharp_output_to_arp_index:0000000000000096 .LVL155
C:\Users\stapi\AppData\Local\Temp\ccEuEHvK.s:8595   .debug_str:00000000000006c2 .LASF186
C:\Users\stapi\AppData\Local\Temp\ccEuEHvK.s:1057   .text.etharp_input:0000000000000000 .LFB12
C:\Users\stapi\AppData\Local\Temp\ccEuEHvK.s:1369   .text.etharp_input:00000000000001d6 .LFE12
C:\Users\stapi\AppData\Local\Temp\ccEuEHvK.s:7371   .debug_loc:00000000000007c3 .LLST38
C:\Users\stapi\AppData\Local\Temp\ccEuEHvK.s:7401   .debug_loc:0000000000000810 .LLST39
C:\Users\stapi\AppData\Local\Temp\ccEuEHvK.s:8699   .debug_str:000000000000099f .LASF181
C:\Users\stapi\AppData\Local\Temp\ccEuEHvK.s:7434   .debug_loc:0000000000000860 .LLST40
C:\Users\stapi\AppData\Local\Temp\ccEuEHvK.s:1193   .text.etharp_input:00000000000000be .LBB14
C:\Users\stapi\AppData\Local\Temp\ccEuEHvK.s:7441   .debug_loc:0000000000000873 .LLST41
C:\Users\stapi\AppData\Local\Temp\ccEuEHvK.s:7452   .debug_loc:0000000000000891 .LLST42
C:\Users\stapi\AppData\Local\Temp\ccEuEHvK.s:7467   .debug_loc:00000000000008b3 .LLST43
C:\Users\stapi\AppData\Local\Temp\ccEuEHvK.s:7492   .debug_loc:00000000000008ed .LLST44
C:\Users\stapi\AppData\Local\Temp\ccEuEHvK.s:7503   .debug_loc:000000000000090b .LLST45
C:\Users\stapi\AppData\Local\Temp\ccEuEHvK.s:1306   .text.etharp_input:0000000000000162 .LBB16
C:\Users\stapi\AppData\Local\Temp\ccEuEHvK.s:1327   .text.etharp_input:0000000000000188 .LBE16
C:\Users\stapi\AppData\Local\Temp\ccEuEHvK.s:7510   .debug_loc:000000000000091e .LLST46
C:\Users\stapi\AppData\Local\Temp\ccEuEHvK.s:1321   .text.etharp_input:000000000000017e .LVL132
C:\Users\stapi\AppData\Local\Temp\ccEuEHvK.s:1325   .text.etharp_input:0000000000000188 .LVL133
C:\Users\stapi\AppData\Local\Temp\ccEuEHvK.s:1211   .text.etharp_input:00000000000000ec .LVL121
C:\Users\stapi\AppData\Local\Temp\ccEuEHvK.s:1247   .text.etharp_input:0000000000000106 .LVL124
C:\Users\stapi\AppData\Local\Temp\ccEuEHvK.s:1265   .text.etharp_input:0000000000000124 .LVL126
C:\Users\stapi\AppData\Local\Temp\ccEuEHvK.s:1297   .text.etharp_input:0000000000000156 .LVL130
C:\Users\stapi\AppData\Local\Temp\ccEuEHvK.s:1094   .text.etharp_input:0000000000000030 .LVL109
C:\Users\stapi\AppData\Local\Temp\ccEuEHvK.s:1139   .text.etharp_input:000000000000007a .LVL113
C:\Users\stapi\AppData\Local\Temp\ccEuEHvK.s:1166   .text.etharp_input:0000000000000096 .LVL117
C:\Users\stapi\AppData\Local\Temp\ccEuEHvK.s:1172   .text.etharp_input:00000000000000a6 .LVL118
C:\Users\stapi\AppData\Local\Temp\ccEuEHvK.s:1346   .text.etharp_input:00000000000001b0 .LVL134
C:\Users\stapi\AppData\Local\Temp\ccEuEHvK.s:1366   .text.etharp_input:00000000000001d4 .LVL135
C:\Users\stapi\AppData\Local\Temp\ccEuEHvK.s:8719   .debug_str:00000000000009fd .LASF182
C:\Users\stapi\AppData\Local\Temp\ccEuEHvK.s:907    .text.etharp_get_entry:0000000000000000 .LFB11
C:\Users\stapi\AppData\Local\Temp\ccEuEHvK.s:1046   .text.etharp_get_entry:00000000000000c6 .LFE11
C:\Users\stapi\AppData\Local\Temp\ccEuEHvK.s:7517   .debug_loc:0000000000000931 .LLST34
C:\Users\stapi\AppData\Local\Temp\ccEuEHvK.s:7568   .debug_loc:00000000000009a8 .LLST35
C:\Users\stapi\AppData\Local\Temp\ccEuEHvK.s:7615   .debug_loc:0000000000000a14 .LLST36
C:\Users\stapi\AppData\Local\Temp\ccEuEHvK.s:8577   .debug_str:0000000000000655 .LASF183
C:\Users\stapi\AppData\Local\Temp\ccEuEHvK.s:7655   .debug_loc:0000000000000a72 .LLST37
C:\Users\stapi\AppData\Local\Temp\ccEuEHvK.s:931    .text.etharp_get_entry:000000000000002e .LVL89
C:\Users\stapi\AppData\Local\Temp\ccEuEHvK.s:958    .text.etharp_get_entry:0000000000000056 .LVL95
C:\Users\stapi\AppData\Local\Temp\ccEuEHvK.s:985    .text.etharp_get_entry:000000000000007e .LVL101
C:\Users\stapi\AppData\Local\Temp\ccEuEHvK.s:8773   .debug_str:0000000000000c31 .LASF184
C:\Users\stapi\AppData\Local\Temp\ccEuEHvK.s:792    .text.etharp_find_addr:0000000000000000 .LFB10
C:\Users\stapi\AppData\Local\Temp\ccEuEHvK.s:893    .text.etharp_find_addr:0000000000000086 .LFE10
C:\Users\stapi\AppData\Local\Temp\ccEuEHvK.s:7695   .debug_loc:0000000000000ad0 .LLST29
C:\Users\stapi\AppData\Local\Temp\ccEuEHvK.s:7724   .debug_loc:0000000000000b15 .LLST30
C:\Users\stapi\AppData\Local\Temp\ccEuEHvK.s:7753   .debug_loc:0000000000000b5a .LLST31
C:\Users\stapi\AppData\Local\Temp\ccEuEHvK.s:8529   .debug_str:00000000000004c1 .LASF185
C:\Users\stapi\AppData\Local\Temp\ccEuEHvK.s:7775   .debug_loc:0000000000000b91 .LLST32
C:\Users\stapi\AppData\Local\Temp\ccEuEHvK.s:7793   .debug_loc:0000000000000bbd .LLST33
C:\Users\stapi\AppData\Local\Temp\ccEuEHvK.s:823    .text.etharp_find_addr:0000000000000032 .LVL76
C:\Users\stapi\AppData\Local\Temp\ccEuEHvK.s:845    .text.etharp_find_addr:0000000000000046 .LVL81
C:\Users\stapi\AppData\Local\Temp\ccEuEHvK.s:8643   .debug_str:00000000000007f3 .LASF187
C:\Users\stapi\AppData\Local\Temp\ccEuEHvK.s:667    .text.etharp_entry_dump:0000000000000000 .LFB9
C:\Users\stapi\AppData\Local\Temp\ccEuEHvK.s:781    .text.etharp_entry_dump:00000000000000a2 .LFE9
C:\Users\stapi\AppData\Local\Temp\ccEuEHvK.s:7800   .debug_loc:0000000000000bd0 .LLST26
C:\Users\stapi\AppData\Local\Temp\ccEuEHvK.s:8517   .debug_str:0000000000000471 .LASF188
C:\Users\stapi\AppData\Local\Temp\ccEuEHvK.s:7826   .debug_loc:0000000000000c12 .LLST27
C:\Users\stapi\AppData\Local\Temp\ccEuEHvK.s:8711   .debug_str:00000000000009d2 .LASF189
C:\Users\stapi\AppData\Local\Temp\ccEuEHvK.s:7838   .debug_loc:0000000000000c31 .LLST28
C:\Users\stapi\AppData\Local\Temp\ccEuEHvK.s:761    .text.etharp_entry_dump:0000000000000094 .LVL70
C:\Users\stapi\AppData\Local\Temp\ccEuEHvK.s:8487   .debug_str:0000000000000359 .LASF190
C:\Users\stapi\AppData\Local\Temp\ccEuEHvK.s:597    .text.etharp_cleanup_netif:0000000000000000 .LFB8
C:\Users\stapi\AppData\Local\Temp\ccEuEHvK.s:653    .text.etharp_cleanup_netif:000000000000003c .LFE8
C:\Users\stapi\AppData\Local\Temp\ccEuEHvK.s:7874   .debug_loc:0000000000000c78 .LLST23
C:\Users\stapi\AppData\Local\Temp\ccEuEHvK.s:7885   .debug_loc:0000000000000c96 .LLST24
C:\Users\stapi\AppData\Local\Temp\ccEuEHvK.s:622    .text.etharp_cleanup_netif:0000000000000016 .LBB5
C:\Users\stapi\AppData\Local\Temp\ccEuEHvK.s:636    .text.etharp_cleanup_netif:000000000000002c .LBE5
C:\Users\stapi\AppData\Local\Temp\ccEuEHvK.s:7897   .debug_loc:0000000000000cb5 .LLST25
C:\Users\stapi\AppData\Local\Temp\ccEuEHvK.s:634    .text.etharp_cleanup_netif:000000000000002c .LVL64
C:\Users\stapi\AppData\Local\Temp\ccEuEHvK.s:8399   .debug_str:0000000000000112 .LASF192
C:\Users\stapi\AppData\Local\Temp\ccEuEHvK.s:8527   .debug_str:00000000000004af .LASF193
C:\Users\stapi\AppData\Local\Temp\ccEuEHvK.s:80     .text.etharp_find_entry:0000000000000000 .LFB6
C:\Users\stapi\AppData\Local\Temp\ccEuEHvK.s:353    .text.etharp_find_entry:0000000000000146 .LFE6
C:\Users\stapi\AppData\Local\Temp\ccEuEHvK.s:7905   .debug_loc:0000000000000cc9 .LLST1
C:\Users\stapi\AppData\Local\Temp\ccEuEHvK.s:7916   .debug_loc:0000000000000ce7 .LLST2
C:\Users\stapi\AppData\Local\Temp\ccEuEHvK.s:7952   .debug_loc:0000000000000d3a .LLST3
C:\Users\stapi\AppData\Local\Temp\ccEuEHvK.s:8497   .debug_str:000000000000038c .LASF194
C:\Users\stapi\AppData\Local\Temp\ccEuEHvK.s:7963   .debug_loc:0000000000000d58 .LLST4
C:\Users\stapi\AppData\Local\Temp\ccEuEHvK.s:8349   .debug_str:0000000000000000 .LASF195
C:\Users\stapi\AppData\Local\Temp\ccEuEHvK.s:7987   .debug_loc:0000000000000d98 .LLST5
C:\Users\stapi\AppData\Local\Temp\ccEuEHvK.s:8701   .debug_str:00000000000009a6 .LASF196
C:\Users\stapi\AppData\Local\Temp\ccEuEHvK.s:8007   .debug_loc:0000000000000dcd .LLST6
C:\Users\stapi\AppData\Local\Temp\ccEuEHvK.s:8041   .debug_loc:0000000000000e25 .LLST7
C:\Users\stapi\AppData\Local\Temp\ccEuEHvK.s:8509   .debug_str:0000000000000447 .LASF197
C:\Users\stapi\AppData\Local\Temp\ccEuEHvK.s:8081   .debug_loc:0000000000000e91 .LLST8
C:\Users\stapi\AppData\Local\Temp\ccEuEHvK.s:8361   .debug_str:0000000000000041 .LASF198
C:\Users\stapi\AppData\Local\Temp\ccEuEHvK.s:8105   .debug_loc:0000000000000ed1 .LLST9
C:\Users\stapi\AppData\Local\Temp\ccEuEHvK.s:8737   .debug_str:0000000000000a5e .LASF199
C:\Users\stapi\AppData\Local\Temp\ccEuEHvK.s:8129   .debug_loc:0000000000000f11 .LLST10
C:\Users\stapi\AppData\Local\Temp\ccEuEHvK.s:8625   .debug_str:000000000000079a .LASF200
C:\Users\stapi\AppData\Local\Temp\ccEuEHvK.s:8153   .debug_loc:0000000000000f51 .LLST11
C:\Users\stapi\AppData\Local\Temp\ccEuEHvK.s:8177   .debug_loc:0000000000000f91 .LLST12
C:\Users\stapi\AppData\Local\Temp\ccEuEHvK.s:226    .text.etharp_find_entry:00000000000000ba .LVL18
C:\Users\stapi\AppData\Local\Temp\ccEuEHvK.s:321    .text.etharp_find_entry:0000000000000110 .LVL33
C:\Users\stapi\AppData\Local\Temp\ccEuEHvK.s:346    .text.etharp_find_entry:0000000000000144 .LVL35
C:\Users\stapi\AppData\Local\Temp\ccEuEHvK.s:8513   .debug_str:0000000000000459 .LASF201
C:\Users\stapi\AppData\Local\Temp\ccEuEHvK.s:1409   .text.etharp_tmr:0000000000000000 .LFB5
C:\Users\stapi\AppData\Local\Temp\ccEuEHvK.s:1525   .text.etharp_tmr:000000000000007e .LFE5
C:\Users\stapi\AppData\Local\Temp\ccEuEHvK.s:8192   .debug_loc:0000000000000fba .LLST51
C:\Users\stapi\AppData\Local\Temp\ccEuEHvK.s:8204   .debug_loc:0000000000000fd9 .LLST52
C:\Users\stapi\AppData\Local\Temp\ccEuEHvK.s:1474   .text.etharp_tmr:000000000000004a .LVL142
C:\Users\stapi\AppData\Local\Temp\ccEuEHvK.s:1521   .text.etharp_tmr:000000000000007c .LVL145
C:\Users\stapi\AppData\Local\Temp\ccEuEHvK.s:8459   .debug_str:00000000000002a3 .LASF215
C:\Users\stapi\AppData\Local\Temp\ccEuEHvK.s:13     .text.etharp_free_entry:0000000000000000 .LFB4
C:\Users\stapi\AppData\Local\Temp\ccEuEHvK.s:61     .text.etharp_free_entry:0000000000000042 .LFE4
C:\Users\stapi\AppData\Local\Temp\ccEuEHvK.s:8215   .debug_loc:0000000000000ff7 .LLST0
C:\Users\stapi\AppData\Local\Temp\ccEuEHvK.s:42     .text.etharp_free_entry:000000000000002a .LVL2
C:\Users\stapi\AppData\Local\Temp\ccEuEHvK.s:8571   .debug_str:000000000000063c .LASF202
C:\Users\stapi\AppData\Local\Temp\ccEuEHvK.s:8561   .debug_str:0000000000000605 .LASF203
C:\Users\stapi\AppData\Local\Temp\ccEuEHvK.s:8635   .debug_str:00000000000007cd .LASF204
C:\Users\stapi\AppData\Local\Temp\ccEuEHvK.s:8753   .debug_str:0000000000000adf .LASF216
C:\Users\stapi\AppData\Local\Temp\ccEuEHvK.s:8755   .debug_str:0000000000000ae6 .LASF217
C:\Users\stapi\AppData\Local\Temp\ccEuEHvK.s:8705   .debug_str:00000000000009b2 .LASF205
C:\Users\stapi\AppData\Local\Temp\ccEuEHvK.s:8563   .debug_str:0000000000000610 .LASF206
C:\Users\stapi\AppData\Local\Temp\ccEuEHvK.s:8681   .debug_str:000000000000091c .LASF207
C:\Users\stapi\AppData\Local\Temp\ccEuEHvK.s:8739   .debug_str:0000000000000a6a .LASF208
C:\Users\stapi\AppData\Local\Temp\ccEuEHvK.s:8379   .debug_str:00000000000000aa .LASF209
C:\Users\stapi\AppData\Local\Temp\ccEuEHvK.s:8429   .debug_str:00000000000001de .LASF211
C:\Users\stapi\AppData\Local\Temp\ccEuEHvK.s:1379   .text.etharp_request:0000000000000000 .LVL136
C:\Users\stapi\AppData\Local\Temp\ccEuEHvK.s:1396   .text.etharp_request:000000000000001e .LVL137
C:\Users\stapi\AppData\Local\Temp\ccEuEHvK.s:372    .text.etharp_raw:0000000000000000 .LVL36
C:\Users\stapi\AppData\Local\Temp\ccEuEHvK.s:400    .text.etharp_raw:0000000000000016 .LVL40
C:\Users\stapi\AppData\Local\Temp\ccEuEHvK.s:413    .text.etharp_raw:0000000000000030 .LVL43
C:\Users\stapi\AppData\Local\Temp\ccEuEHvK.s:424    .text.etharp_raw:0000000000000040 .LVL46
C:\Users\stapi\AppData\Local\Temp\ccEuEHvK.s:398    .text.etharp_raw:0000000000000012 .LVL39
C:\Users\stapi\AppData\Local\Temp\ccEuEHvK.s:420    .text.etharp_raw:0000000000000038 .LVL44
C:\Users\stapi\AppData\Local\Temp\ccEuEHvK.s:403    .text.etharp_raw:000000000000001e .LVL41
C:\Users\stapi\AppData\Local\Temp\ccEuEHvK.s:422    .text.etharp_raw:000000000000003c .LVL45
C:\Users\stapi\AppData\Local\Temp\ccEuEHvK.s:396    .text.etharp_raw:000000000000000e .LVL38
C:\Users\stapi\AppData\Local\Temp\ccEuEHvK.s:437    .text.etharp_raw:0000000000000054 .LVL48
C:\Users\stapi\AppData\Local\Temp\ccEuEHvK.s:566    .text.etharp_raw:0000000000000150 .LVL59
C:\Users\stapi\AppData\Local\Temp\ccEuEHvK.s:583    .text.etharp_raw:0000000000000158 .LVL60
C:\Users\stapi\AppData\Local\Temp\ccEuEHvK.s:468    .text.etharp_raw:000000000000008a .LVL50
C:\Users\stapi\AppData\Local\Temp\ccEuEHvK.s:1693   .text.etharp_query:0000000000000000 .LVL162
C:\Users\stapi\AppData\Local\Temp\ccEuEHvK.s:1716   .text.etharp_query:0000000000000012 .LVL165
C:\Users\stapi\AppData\Local\Temp\ccEuEHvK.s:1714   .text.etharp_query:000000000000000e .LVL164
C:\Users\stapi\AppData\Local\Temp\ccEuEHvK.s:1753   .text.etharp_query:000000000000004c .LVL169
C:\Users\stapi\AppData\Local\Temp\ccEuEHvK.s:1765   .text.etharp_query:0000000000000054 .LVL170
C:\Users\stapi\AppData\Local\Temp\ccEuEHvK.s:1944   .text.etharp_query:0000000000000158 .LVL192
C:\Users\stapi\AppData\Local\Temp\ccEuEHvK.s:1977   .text.etharp_query:0000000000000180 .LVL196
C:\Users\stapi\AppData\Local\Temp\ccEuEHvK.s:1703   .text.etharp_query:0000000000000008 .LVL163
C:\Users\stapi\AppData\Local\Temp\ccEuEHvK.s:1859   .text.etharp_query:00000000000000dc .LVL178
C:\Users\stapi\AppData\Local\Temp\ccEuEHvK.s:1888   .text.etharp_query:000000000000010c .LVL181
C:\Users\stapi\AppData\Local\Temp\ccEuEHvK.s:1900   .text.etharp_query:0000000000000126 .LVL183
C:\Users\stapi\AppData\Local\Temp\ccEuEHvK.s:1920   .text.etharp_query:0000000000000136 .LVL186
C:\Users\stapi\AppData\Local\Temp\ccEuEHvK.s:1925   .text.etharp_query:0000000000000140 .LVL188
C:\Users\stapi\AppData\Local\Temp\ccEuEHvK.s:1931   .text.etharp_query:0000000000000144 .LVL189
C:\Users\stapi\AppData\Local\Temp\ccEuEHvK.s:1940   .text.etharp_query:000000000000014e .LVL190
C:\Users\stapi\AppData\Local\Temp\ccEuEHvK.s:1974   .text.etharp_query:000000000000017e .LVL195
C:\Users\stapi\AppData\Local\Temp\ccEuEHvK.s:1805   .text.etharp_query:000000000000009a .LVL174
C:\Users\stapi\AppData\Local\Temp\ccEuEHvK.s:1818   .text.etharp_query:00000000000000a4 .LVL175
C:\Users\stapi\AppData\Local\Temp\ccEuEHvK.s:1742   .text.etharp_query:0000000000000044 .LVL168
C:\Users\stapi\AppData\Local\Temp\ccEuEHvK.s:1777   .text.etharp_query:0000000000000068 .LVL171
C:\Users\stapi\AppData\Local\Temp\ccEuEHvK.s:1789   .text.etharp_query:0000000000000082 .LVL173
C:\Users\stapi\AppData\Local\Temp\ccEuEHvK.s:1984   .text.etharp_query:0000000000000182 .LVL197
C:\Users\stapi\AppData\Local\Temp\ccEuEHvK.s:1873   .text.etharp_query:00000000000000f0 .LVL180
C:\Users\stapi\AppData\Local\Temp\ccEuEHvK.s:1915   .text.etharp_query:0000000000000134 .LVL185
C:\Users\stapi\AppData\Local\Temp\ccEuEHvK.s:1950   .text.etharp_query:000000000000015e .LVL193
C:\Users\stapi\AppData\Local\Temp\ccEuEHvK.s:2003   .text.etharp_output:0000000000000000 .LVL198
C:\Users\stapi\AppData\Local\Temp\ccEuEHvK.s:2028   .text.etharp_output:0000000000000018 .LVL201
C:\Users\stapi\AppData\Local\Temp\ccEuEHvK.s:2041   .text.etharp_output:0000000000000032 .LVL204
C:\Users\stapi\AppData\Local\Temp\ccEuEHvK.s:2055   .text.etharp_output:0000000000000042 .LVL206
C:\Users\stapi\AppData\Local\Temp\ccEuEHvK.s:2068   .text.etharp_output:000000000000005c .LVL209
C:\Users\stapi\AppData\Local\Temp\ccEuEHvK.s:2083   .text.etharp_output:000000000000006c .LVL212
C:\Users\stapi\AppData\Local\Temp\ccEuEHvK.s:2095   .text.etharp_output:0000000000000086 .LVL214
C:\Users\stapi\AppData\Local\Temp\ccEuEHvK.s:2106   .text.etharp_output:000000000000008c .LVL216
C:\Users\stapi\AppData\Local\Temp\ccEuEHvK.s:2026   .text.etharp_output:0000000000000014 .LVL200
C:\Users\stapi\AppData\Local\Temp\ccEuEHvK.s:2053   .text.etharp_output:000000000000003e .LVL205
C:\Users\stapi\AppData\Local\Temp\ccEuEHvK.s:2081   .text.etharp_output:0000000000000068 .LVL211
C:\Users\stapi\AppData\Local\Temp\ccEuEHvK.s:2099   .text.etharp_output:0000000000000088 .LVL215
C:\Users\stapi\AppData\Local\Temp\ccEuEHvK.s:2031   .text.etharp_output:0000000000000020 .LVL202
C:\Users\stapi\AppData\Local\Temp\ccEuEHvK.s:2058   .text.etharp_output:000000000000004a .LVL207
C:\Users\stapi\AppData\Local\Temp\ccEuEHvK.s:2076   .text.etharp_output:0000000000000060 .LVL210
C:\Users\stapi\AppData\Local\Temp\ccEuEHvK.s:2148   .text.etharp_output:00000000000000d4 .LVL218
C:\Users\stapi\AppData\Local\Temp\ccEuEHvK.s:2160   .text.etharp_output:00000000000000ec .LVL220
C:\Users\stapi\AppData\Local\Temp\ccEuEHvK.s:2189   .text.etharp_output:000000000000010e .LVL221
C:\Users\stapi\AppData\Local\Temp\ccEuEHvK.s:2292   .text.etharp_output:00000000000001a8 .LVL231
C:\Users\stapi\AppData\Local\Temp\ccEuEHvK.s:2278   .text.etharp_output:0000000000000196 .LVL228
C:\Users\stapi\AppData\Local\Temp\ccEuEHvK.s:2288   .text.etharp_output:000000000000019e .LVL229
C:\Users\stapi\AppData\Local\Temp\ccEuEHvK.s:2013   .text.etharp_output:0000000000000008 .LVL199
C:\Users\stapi\AppData\Local\Temp\ccEuEHvK.s:2235   .text.etharp_output:000000000000015c .LVL223
C:\Users\stapi\AppData\Local\Temp\ccEuEHvK.s:2244   .text.etharp_output:0000000000000160 .LVL224
C:\Users\stapi\AppData\Local\Temp\ccEuEHvK.s:2263   .text.etharp_output:0000000000000180 .LVL225
C:\Users\stapi\AppData\Local\Temp\ccEuEHvK.s:2265   .text.etharp_output:0000000000000184 .LVL226
C:\Users\stapi\AppData\Local\Temp\ccEuEHvK.s:1538   .text.etharp_output_to_arp_index:0000000000000000 .LVL146
C:\Users\stapi\AppData\Local\Temp\ccEuEHvK.s:1563   .text.etharp_output_to_arp_index:0000000000000030 .LVL148
C:\Users\stapi\AppData\Local\Temp\ccEuEHvK.s:1576   .text.etharp_output_to_arp_index:000000000000004a .LVL151
C:\Users\stapi\AppData\Local\Temp\ccEuEHvK.s:1597   .text.etharp_output_to_arp_index:000000000000005e .LVL152
C:\Users\stapi\AppData\Local\Temp\ccEuEHvK.s:1561   .text.etharp_output_to_arp_index:000000000000002c .LVL147
C:\Users\stapi\AppData\Local\Temp\ccEuEHvK.s:1609   .text.etharp_output_to_arp_index:0000000000000070 .LVL153
C:\Users\stapi\AppData\Local\Temp\ccEuEHvK.s:1640   .text.etharp_output_to_arp_index:000000000000009e .LVL156
C:\Users\stapi\AppData\Local\Temp\ccEuEHvK.s:1669   .text.etharp_output_to_arp_index:00000000000000be .LVL160
C:\Users\stapi\AppData\Local\Temp\ccEuEHvK.s:1566   .text.etharp_output_to_arp_index:0000000000000038 .LVL149
C:\Users\stapi\AppData\Local\Temp\ccEuEHvK.s:1667   .text.etharp_output_to_arp_index:00000000000000bc .LVL159
C:\Users\stapi\AppData\Local\Temp\ccEuEHvK.s:1648   .text.etharp_output_to_arp_index:00000000000000a6 .LVL157
C:\Users\stapi\AppData\Local\Temp\ccEuEHvK.s:1656   .text.etharp_output_to_arp_index:00000000000000a8 .LVL158
C:\Users\stapi\AppData\Local\Temp\ccEuEHvK.s:1060   .text.etharp_input:0000000000000000 .LVL106
C:\Users\stapi\AppData\Local\Temp\ccEuEHvK.s:1088   .text.etharp_input:0000000000000018 .LVL108
C:\Users\stapi\AppData\Local\Temp\ccEuEHvK.s:1100   .text.etharp_input:0000000000000032 .LVL110
C:\Users\stapi\AppData\Local\Temp\ccEuEHvK.s:1134   .text.etharp_input:0000000000000070 .LVL112
C:\Users\stapi\AppData\Local\Temp\ccEuEHvK.s:1154   .text.etharp_input:0000000000000084 .LVL114
C:\Users\stapi\AppData\Local\Temp\ccEuEHvK.s:1164   .text.etharp_input:000000000000008e .LVL116
C:\Users\stapi\AppData\Local\Temp\ccEuEHvK.s:1086   .text.etharp_input:0000000000000014 .LVL107
C:\Users\stapi\AppData\Local\Temp\ccEuEHvK.s:1162   .text.etharp_input:000000000000008c .LVL115
C:\Users\stapi\AppData\Local\Temp\ccEuEHvK.s:1187   .text.etharp_input:00000000000000b6 .LVL119
C:\Users\stapi\AppData\Local\Temp\ccEuEHvK.s:1191   .text.etharp_input:00000000000000be .LVL120
C:\Users\stapi\AppData\Local\Temp\ccEuEHvK.s:1217   .text.etharp_input:00000000000000ee .LVL122
C:\Users\stapi\AppData\Local\Temp\ccEuEHvK.s:1226   .text.etharp_input:00000000000000f4 .LVL123
C:\Users\stapi\AppData\Local\Temp\ccEuEHvK.s:1284   .text.etharp_input:0000000000000142 .LVL129
C:\Users\stapi\AppData\Local\Temp\ccEuEHvK.s:1263   .text.etharp_input:000000000000011c .LVL125
C:\Users\stapi\AppData\Local\Temp\ccEuEHvK.s:1267   .text.etharp_input:0000000000000126 .LVL127
C:\Users\stapi\AppData\Local\Temp\ccEuEHvK.s:1276   .text.etharp_input:0000000000000134 .LVL128
C:\Users\stapi\AppData\Local\Temp\ccEuEHvK.s:1308   .text.etharp_input:0000000000000162 .LVL131
C:\Users\stapi\AppData\Local\Temp\ccEuEHvK.s:910    .text.etharp_get_entry:0000000000000000 .LVL84
C:\Users\stapi\AppData\Local\Temp\ccEuEHvK.s:924    .text.etharp_get_entry:0000000000000016 .LVL87
C:\Users\stapi\AppData\Local\Temp\ccEuEHvK.s:937    .text.etharp_get_entry:0000000000000030 .LVL90
C:\Users\stapi\AppData\Local\Temp\ccEuEHvK.s:951    .text.etharp_get_entry:000000000000003e .LVL93
C:\Users\stapi\AppData\Local\Temp\ccEuEHvK.s:964    .text.etharp_get_entry:0000000000000058 .LVL96
C:\Users\stapi\AppData\Local\Temp\ccEuEHvK.s:978    .text.etharp_get_entry:0000000000000066 .LVL99
C:\Users\stapi\AppData\Local\Temp\ccEuEHvK.s:991    .text.etharp_get_entry:0000000000000080 .LVL102
C:\Users\stapi\AppData\Local\Temp\ccEuEHvK.s:1001   .text.etharp_get_entry:0000000000000086 .LVL103
C:\Users\stapi\AppData\Local\Temp\ccEuEHvK.s:1007   .text.etharp_get_entry:0000000000000090 .LVL104
C:\Users\stapi\AppData\Local\Temp\ccEuEHvK.s:922    .text.etharp_get_entry:0000000000000012 .LVL86
C:\Users\stapi\AppData\Local\Temp\ccEuEHvK.s:949    .text.etharp_get_entry:000000000000003a .LVL92
C:\Users\stapi\AppData\Local\Temp\ccEuEHvK.s:976    .text.etharp_get_entry:0000000000000062 .LVL98
C:\Users\stapi\AppData\Local\Temp\ccEuEHvK.s:1028   .text.etharp_get_entry:00000000000000b4 .LVL105
C:\Users\stapi\AppData\Local\Temp\ccEuEHvK.s:927    .text.etharp_get_entry:000000000000001e .LVL88
C:\Users\stapi\AppData\Local\Temp\ccEuEHvK.s:954    .text.etharp_get_entry:0000000000000046 .LVL94
C:\Users\stapi\AppData\Local\Temp\ccEuEHvK.s:981    .text.etharp_get_entry:000000000000006e .LVL100
C:\Users\stapi\AppData\Local\Temp\ccEuEHvK.s:920    .text.etharp_get_entry:000000000000000e .LVL85
C:\Users\stapi\AppData\Local\Temp\ccEuEHvK.s:947    .text.etharp_get_entry:0000000000000036 .LVL91
C:\Users\stapi\AppData\Local\Temp\ccEuEHvK.s:974    .text.etharp_get_entry:000000000000005e .LVL97
C:\Users\stapi\AppData\Local\Temp\ccEuEHvK.s:795    .text.etharp_find_addr:0000000000000000 .LVL71
C:\Users\stapi\AppData\Local\Temp\ccEuEHvK.s:816    .text.etharp_find_addr:000000000000001a .LVL74
C:\Users\stapi\AppData\Local\Temp\ccEuEHvK.s:829    .text.etharp_find_addr:0000000000000034 .LVL77
C:\Users\stapi\AppData\Local\Temp\ccEuEHvK.s:838    .text.etharp_find_addr:000000000000003a .LVL78
C:\Users\stapi\AppData\Local\Temp\ccEuEHvK.s:814    .text.etharp_find_addr:0000000000000016 .LVL73
C:\Users\stapi\AppData\Local\Temp\ccEuEHvK.s:843    .text.etharp_find_addr:000000000000003e .LVL80
C:\Users\stapi\AppData\Local\Temp\ccEuEHvK.s:819    .text.etharp_find_addr:0000000000000022 .LVL75
C:\Users\stapi\AppData\Local\Temp\ccEuEHvK.s:841    .text.etharp_find_addr:000000000000003c .LVL79
C:\Users\stapi\AppData\Local\Temp\ccEuEHvK.s:812    .text.etharp_find_addr:0000000000000012 .LVL72
C:\Users\stapi\AppData\Local\Temp\ccEuEHvK.s:847    .text.etharp_find_addr:0000000000000048 .LVL82
C:\Users\stapi\AppData\Local\Temp\ccEuEHvK.s:858    .text.etharp_find_addr:000000000000005a .LVL83
C:\Users\stapi\AppData\Local\Temp\ccEuEHvK.s:682    .text.etharp_entry_dump:0000000000000008 .LVL66
C:\Users\stapi\AppData\Local\Temp\ccEuEHvK.s:707    .text.etharp_entry_dump:000000000000002c .LVL67
C:\Users\stapi\AppData\Local\Temp\ccEuEHvK.s:757    .text.etharp_entry_dump:000000000000008c .LVL69
C:\Users\stapi\AppData\Local\Temp\ccEuEHvK.s:719    .text.etharp_entry_dump:000000000000003c .LVL68
C:\Users\stapi\AppData\Local\Temp\ccEuEHvK.s:600    .text.etharp_cleanup_netif:0000000000000000 .LVL61
C:\Users\stapi\AppData\Local\Temp\ccEuEHvK.s:620    .text.etharp_cleanup_netif:0000000000000016 .LVL63
C:\Users\stapi\AppData\Local\Temp\ccEuEHvK.s:610    .text.etharp_cleanup_netif:0000000000000008 .LVL62
C:\Users\stapi\AppData\Local\Temp\ccEuEHvK.s:83     .text.etharp_find_entry:0000000000000000 .LVL3
C:\Users\stapi\AppData\Local\Temp\ccEuEHvK.s:115    .text.etharp_find_entry:000000000000001e .LVL5
C:\Users\stapi\AppData\Local\Temp\ccEuEHvK.s:219    .text.etharp_find_entry:000000000000009e .LVL17
C:\Users\stapi\AppData\Local\Temp\ccEuEHvK.s:232    .text.etharp_find_entry:00000000000000bc .LVL19
C:\Users\stapi\AppData\Local\Temp\ccEuEHvK.s:274    .text.etharp_find_entry:00000000000000e2 .LVL29
C:\Users\stapi\AppData\Local\Temp\ccEuEHvK.s:308    .text.etharp_find_entry:0000000000000104 .LVL31
C:\Users\stapi\AppData\Local\Temp\ccEuEHvK.s:128    .text.etharp_find_entry:000000000000002c .LVL6
C:\Users\stapi\AppData\Local\Temp\ccEuEHvK.s:92     .text.etharp_find_entry:0000000000000008 .LVL4
C:\Users\stapi\AppData\Local\Temp\ccEuEHvK.s:241    .text.etharp_find_entry:00000000000000c4 .LVL21
C:\Users\stapi\AppData\Local\Temp\ccEuEHvK.s:243    .text.etharp_find_entry:00000000000000c6 .LVL22
C:\Users\stapi\AppData\Local\Temp\ccEuEHvK.s:252    .text.etharp_find_entry:00000000000000ce .LVL24
C:\Users\stapi\AppData\Local\Temp\ccEuEHvK.s:254    .text.etharp_find_entry:00000000000000d0 .LVL25
C:\Users\stapi\AppData\Local\Temp\ccEuEHvK.s:266    .text.etharp_find_entry:00000000000000da .LVL27
C:\Users\stapi\AppData\Local\Temp\ccEuEHvK.s:312    .text.etharp_find_entry:0000000000000106 .LVL32
C:\Users\stapi\AppData\Local\Temp\ccEuEHvK.s:137    .text.etharp_find_entry:0000000000000034 .LVL8
C:\Users\stapi\AppData\Local\Temp\ccEuEHvK.s:140    .text.etharp_find_entry:0000000000000038 .LVL9
C:\Users\stapi\AppData\Local\Temp\ccEuEHvK.s:176    .text.etharp_find_entry:0000000000000066 .LVL12
C:\Users\stapi\AppData\Local\Temp\ccEuEHvK.s:210    .text.etharp_find_entry:000000000000008c .LVL16
C:\Users\stapi\AppData\Local\Temp\ccEuEHvK.s:258    .text.etharp_find_entry:00000000000000d4 .LVL26
C:\Users\stapi\AppData\Local\Temp\ccEuEHvK.s:205    .text.etharp_find_entry:000000000000008a .LVL15
C:\Users\stapi\AppData\Local\Temp\ccEuEHvK.s:272    .text.etharp_find_entry:00000000000000e0 .LVL28
C:\Users\stapi\AppData\Local\Temp\ccEuEHvK.s:297    .text.etharp_find_entry:00000000000000fc .LVL30
C:\Users\stapi\AppData\Local\Temp\ccEuEHvK.s:323    .text.etharp_find_entry:0000000000000112 .LVL34
C:\Users\stapi\AppData\Local\Temp\ccEuEHvK.s:174    .text.etharp_find_entry:0000000000000064 .LVL11
C:\Users\stapi\AppData\Local\Temp\ccEuEHvK.s:172    .text.etharp_find_entry:0000000000000062 .LVL10
C:\Users\stapi\AppData\Local\Temp\ccEuEHvK.s:239    .text.etharp_find_entry:00000000000000c2 .LVL20
C:\Users\stapi\AppData\Local\Temp\ccEuEHvK.s:250    .text.etharp_find_entry:00000000000000cc .LVL23
C:\Users\stapi\AppData\Local\Temp\ccEuEHvK.s:133    .text.etharp_find_entry:0000000000000030 .LVL7
C:\Users\stapi\AppData\Local\Temp\ccEuEHvK.s:1426   .text.etharp_tmr:0000000000000008 .LVL139
C:\Users\stapi\AppData\Local\Temp\ccEuEHvK.s:1446   .text.etharp_tmr:0000000000000020 .LVL140
C:\Users\stapi\AppData\Local\Temp\ccEuEHvK.s:1452   .text.etharp_tmr:0000000000000024 .LVL141
C:\Users\stapi\AppData\Local\Temp\ccEuEHvK.s:1497   .text.etharp_tmr:000000000000005a .LVL144
C:\Users\stapi\AppData\Local\Temp\ccEuEHvK.s:17     .text.etharp_free_entry:0000000000000000 .LVL0
C:\Users\stapi\AppData\Local\Temp\ccEuEHvK.s:35     .text.etharp_free_entry:000000000000001c .LVL1
C:\Users\stapi\AppData\Local\Temp\ccEuEHvK.s:2366   .debug_info:0000000000000000 .Ldebug_info0
C:\Users\stapi\AppData\Local\Temp\ccEuEHvK.s:123    .text.etharp_find_entry:0000000000000028 .LBB3
C:\Users\stapi\AppData\Local\Temp\ccEuEHvK.s:183    .text.etharp_find_entry:000000000000006a .LBE3
C:\Users\stapi\AppData\Local\Temp\ccEuEHvK.s:234    .text.etharp_find_entry:00000000000000bc .LBB4
C:\Users\stapi\AppData\Local\Temp\ccEuEHvK.s:260    .text.etharp_find_entry:00000000000000d4 .LBE4
C:\Users\stapi\AppData\Local\Temp\ccEuEHvK.s:686    .text.etharp_entry_dump:000000000000000c .LBB6
C:\Users\stapi\AppData\Local\Temp\ccEuEHvK.s:690    .text.etharp_entry_dump:0000000000000014 .LBE6
C:\Users\stapi\AppData\Local\Temp\ccEuEHvK.s:698    .text.etharp_entry_dump:000000000000001e .LBB7
C:\Users\stapi\AppData\Local\Temp\ccEuEHvK.s:704    .text.etharp_entry_dump:000000000000002a .LBE7
C:\Users\stapi\AppData\Local\Temp\ccEuEHvK.s:709    .text.etharp_entry_dump:000000000000002c .LBB8
C:\Users\stapi\AppData\Local\Temp\ccEuEHvK.s:743    .text.etharp_entry_dump:0000000000000078 .LBE8
C:\Users\stapi\AppData\Local\Temp\ccEuEHvK.s:746    .text.etharp_entry_dump:000000000000007a .LBB9
C:\Users\stapi\AppData\Local\Temp\ccEuEHvK.s:754    .text.etharp_entry_dump:000000000000008a .LBE9
C:\Users\stapi\AppData\Local\Temp\ccEuEHvK.s:758    .text.etharp_entry_dump:000000000000008c .LBB10
C:\Users\stapi\AppData\Local\Temp\ccEuEHvK.s:762    .text.etharp_entry_dump:0000000000000094 .LBE10
C:\Users\stapi\AppData\Local\Temp\ccEuEHvK.s:1220   .text.etharp_input:00000000000000ee .LBE14
C:\Users\stapi\AppData\Local\Temp\ccEuEHvK.s:1228   .text.etharp_input:00000000000000f4 .LBB19
C:\Users\stapi\AppData\Local\Temp\ccEuEHvK.s:1233   .text.etharp_input:00000000000000f6 .LBE19
C:\Users\stapi\AppData\Local\Temp\ccEuEHvK.s:1236   .text.etharp_input:00000000000000fa .LBB20
C:\Users\stapi\AppData\Local\Temp\ccEuEHvK.s:1329   .text.etharp_input:0000000000000188 .LBE20
C:\Users\stapi\AppData\Local\Temp\ccEuEHvK.s:1432   .text.etharp_tmr:0000000000000012 .LBB25
C:\Users\stapi\AppData\Local\Temp\ccEuEHvK.s:1443   .text.etharp_tmr:000000000000001e .LBE25
C:\Users\stapi\AppData\Local\Temp\ccEuEHvK.s:1448   .text.etharp_tmr:0000000000000020 .LBB26
C:\Users\stapi\AppData\Local\Temp\ccEuEHvK.s:1476   .text.etharp_tmr:000000000000004a .LBE26
C:\Users\stapi\AppData\Local\Temp\ccEuEHvK.s:1500   .text.etharp_tmr:000000000000005a .LBB27
C:\Users\stapi\AppData\Local\Temp\ccEuEHvK.s:1523   .text.etharp_tmr:000000000000007e .LBE27
C:\Users\stapi\AppData\Local\Temp\ccEuEHvK.s:1594   .text.etharp_output_to_arp_index:000000000000005a .LBE30
C:\Users\stapi\AppData\Local\Temp\ccEuEHvK.s:1649   .text.etharp_output_to_arp_index:00000000000000a6 .LBB34
C:\Users\stapi\AppData\Local\Temp\ccEuEHvK.s:1653   .text.etharp_output_to_arp_index:00000000000000a6 .LBE34
C:\Users\stapi\AppData\Local\Temp\ccEuEHvK.s:1657   .text.etharp_output_to_arp_index:00000000000000a8 .LBB35
C:\Users\stapi\AppData\Local\Temp\ccEuEHvK.s:1674   .text.etharp_output_to_arp_index:00000000000000c8 .LBE35
C:\Users\stapi\AppData\Local\Temp\ccEuEHvK.s:1874   .text.etharp_query:00000000000000f0 .LBB36
C:\Users\stapi\AppData\Local\Temp\ccEuEHvK.s:1927   .text.etharp_query:0000000000000140 .LBE36
C:\Users\stapi\AppData\Local\Temp\ccEuEHvK.s:1933   .text.etharp_query:0000000000000144 .LBB37
C:\Users\stapi\AppData\Local\Temp\ccEuEHvK.s:1979   .text.etharp_query:0000000000000180 .LBE37
C:\Users\stapi\AppData\Local\Temp\ccEuEHvK.s:2162   .text.etharp_output:00000000000000ec .LBB38
C:\Users\stapi\AppData\Local\Temp\ccEuEHvK.s:2224   .text.etharp_output:0000000000000152 .LBE38
C:\Users\stapi\AppData\Local\Temp\ccEuEHvK.s:2238   .text.etharp_output:000000000000015c .LBB40
C:\Users\stapi\AppData\Local\Temp\ccEuEHvK.s:2294   .text.etharp_output:00000000000001a8 .LBE40

UNDEFINED SYMBOLS
__riscv_save_3
pbuf_free
__riscv_restore_3
__riscv_save_4
printf
__riscv_restore_4
__riscv_save_10
pbuf_alloc
lwip_htons
memcpy
ethernet_output
__riscv_restore_10
__riscv_save_7
__riscv_restore_7
__riscv_save_2
__riscv_restore_2
__riscv_save_0
__riscv_restore_0
ip4_addr_isbroadcast_u32
dhcp_arp_reply
ethzero
ethbroadcast
__riscv_save_8
__riscv_restore_8
__riscv_save_5
__riscv_restore_5
pbuf_ref
pbuf_clone
dhcpd_find_ethaddr_from_packet
