   1              		.file	"ethernet.c"
   2              		.option nopic
   3              		.attribute arch, "rv32i2p0_m2p0_a2p0_f2p0_c2p0_b_p0p94"
   4              		.attribute unaligned_access, 0
   5              		.attribute stack_align, 16
   6              		.text
   7              	.Ltext0:
   8              		.cfi_sections	.debug_frame
   9              		.section	.text.ethernet_input,"ax",@progbits
  10              		.align	1
  11              		.globl	ethernet_input
  13              	ethernet_input:
  14              	.LFB4:
  15              		.file 1 "C:/Users/stapi/OneDrive/Desktop/GD32VW553/GD32VW55X_Wifi_BLE_SDK/GD32VW55x_RELEASE_V1.0.2
   1:C:/Users/stapi/OneDrive/Desktop/GD32VW553/GD32VW55X_Wifi_BLE_SDK/GD32VW55x_RELEASE_V1.0.2/MSDK/lwip/lwip-2.1.2/src/netif\ethernet.c **** /**
   2:C:/Users/stapi/OneDrive/Desktop/GD32VW553/GD32VW55X_Wifi_BLE_SDK/GD32VW55x_RELEASE_V1.0.2/MSDK/lwip/lwip-2.1.2/src/netif\ethernet.c ****  * @file
   3:C:/Users/stapi/OneDrive/Desktop/GD32VW553/GD32VW55X_Wifi_BLE_SDK/GD32VW55x_RELEASE_V1.0.2/MSDK/lwip/lwip-2.1.2/src/netif\ethernet.c ****  * Ethernet common functions
   4:C:/Users/stapi/OneDrive/Desktop/GD32VW553/GD32VW55X_Wifi_BLE_SDK/GD32VW55x_RELEASE_V1.0.2/MSDK/lwip/lwip-2.1.2/src/netif\ethernet.c ****  *
   5:C:/Users/stapi/OneDrive/Desktop/GD32VW553/GD32VW55X_Wifi_BLE_SDK/GD32VW55x_RELEASE_V1.0.2/MSDK/lwip/lwip-2.1.2/src/netif\ethernet.c ****  * @defgroup ethernet Ethernet
   6:C:/Users/stapi/OneDrive/Desktop/GD32VW553/GD32VW55X_Wifi_BLE_SDK/GD32VW55x_RELEASE_V1.0.2/MSDK/lwip/lwip-2.1.2/src/netif\ethernet.c ****  * @ingroup callbackstyle_api
   7:C:/Users/stapi/OneDrive/Desktop/GD32VW553/GD32VW55X_Wifi_BLE_SDK/GD32VW55x_RELEASE_V1.0.2/MSDK/lwip/lwip-2.1.2/src/netif\ethernet.c ****  */
   8:C:/Users/stapi/OneDrive/Desktop/GD32VW553/GD32VW55X_Wifi_BLE_SDK/GD32VW55x_RELEASE_V1.0.2/MSDK/lwip/lwip-2.1.2/src/netif\ethernet.c **** 
   9:C:/Users/stapi/OneDrive/Desktop/GD32VW553/GD32VW55X_Wifi_BLE_SDK/GD32VW55x_RELEASE_V1.0.2/MSDK/lwip/lwip-2.1.2/src/netif\ethernet.c **** /*
  10:C:/Users/stapi/OneDrive/Desktop/GD32VW553/GD32VW55X_Wifi_BLE_SDK/GD32VW55x_RELEASE_V1.0.2/MSDK/lwip/lwip-2.1.2/src/netif\ethernet.c ****  * Copyright (c) 2001-2003 Swedish Institute of Computer Science.
  11:C:/Users/stapi/OneDrive/Desktop/GD32VW553/GD32VW55X_Wifi_BLE_SDK/GD32VW55x_RELEASE_V1.0.2/MSDK/lwip/lwip-2.1.2/src/netif\ethernet.c ****  * Copyright (c) 2003-2004 Leon Woestenberg <leon.woestenberg@axon.tv>
  12:C:/Users/stapi/OneDrive/Desktop/GD32VW553/GD32VW55X_Wifi_BLE_SDK/GD32VW55x_RELEASE_V1.0.2/MSDK/lwip/lwip-2.1.2/src/netif\ethernet.c ****  * Copyright (c) 2003-2004 Axon Digital Design B.V., The Netherlands.
  13:C:/Users/stapi/OneDrive/Desktop/GD32VW553/GD32VW55X_Wifi_BLE_SDK/GD32VW55x_RELEASE_V1.0.2/MSDK/lwip/lwip-2.1.2/src/netif\ethernet.c ****  * Copyright (c) 2024, GigaDevice Semiconductor Inc.
  14:C:/Users/stapi/OneDrive/Desktop/GD32VW553/GD32VW55X_Wifi_BLE_SDK/GD32VW55x_RELEASE_V1.0.2/MSDK/lwip/lwip-2.1.2/src/netif\ethernet.c ****  * All rights reserved.
  15:C:/Users/stapi/OneDrive/Desktop/GD32VW553/GD32VW55X_Wifi_BLE_SDK/GD32VW55x_RELEASE_V1.0.2/MSDK/lwip/lwip-2.1.2/src/netif\ethernet.c ****  *
  16:C:/Users/stapi/OneDrive/Desktop/GD32VW553/GD32VW55X_Wifi_BLE_SDK/GD32VW55x_RELEASE_V1.0.2/MSDK/lwip/lwip-2.1.2/src/netif\ethernet.c ****  * Redistribution and use in source and binary forms, with or without modification,
  17:C:/Users/stapi/OneDrive/Desktop/GD32VW553/GD32VW55X_Wifi_BLE_SDK/GD32VW55x_RELEASE_V1.0.2/MSDK/lwip/lwip-2.1.2/src/netif\ethernet.c ****  * are permitted provided that the following conditions are met:
  18:C:/Users/stapi/OneDrive/Desktop/GD32VW553/GD32VW55X_Wifi_BLE_SDK/GD32VW55x_RELEASE_V1.0.2/MSDK/lwip/lwip-2.1.2/src/netif\ethernet.c ****  *
  19:C:/Users/stapi/OneDrive/Desktop/GD32VW553/GD32VW55X_Wifi_BLE_SDK/GD32VW55x_RELEASE_V1.0.2/MSDK/lwip/lwip-2.1.2/src/netif\ethernet.c ****  * 1. Redistributions of source code must retain the above copyright notice,
  20:C:/Users/stapi/OneDrive/Desktop/GD32VW553/GD32VW55X_Wifi_BLE_SDK/GD32VW55x_RELEASE_V1.0.2/MSDK/lwip/lwip-2.1.2/src/netif\ethernet.c ****  *    this list of conditions and the following disclaimer.
  21:C:/Users/stapi/OneDrive/Desktop/GD32VW553/GD32VW55X_Wifi_BLE_SDK/GD32VW55x_RELEASE_V1.0.2/MSDK/lwip/lwip-2.1.2/src/netif\ethernet.c ****  * 2. Redistributions in binary form must reproduce the above copyright notice,
  22:C:/Users/stapi/OneDrive/Desktop/GD32VW553/GD32VW55X_Wifi_BLE_SDK/GD32VW55x_RELEASE_V1.0.2/MSDK/lwip/lwip-2.1.2/src/netif\ethernet.c ****  *    this list of conditions and the following disclaimer in the documentation
  23:C:/Users/stapi/OneDrive/Desktop/GD32VW553/GD32VW55X_Wifi_BLE_SDK/GD32VW55x_RELEASE_V1.0.2/MSDK/lwip/lwip-2.1.2/src/netif\ethernet.c ****  *    and/or other materials provided with the distribution.
  24:C:/Users/stapi/OneDrive/Desktop/GD32VW553/GD32VW55X_Wifi_BLE_SDK/GD32VW55x_RELEASE_V1.0.2/MSDK/lwip/lwip-2.1.2/src/netif\ethernet.c ****  * 3. The name of the author may not be used to endorse or promote products
  25:C:/Users/stapi/OneDrive/Desktop/GD32VW553/GD32VW55X_Wifi_BLE_SDK/GD32VW55x_RELEASE_V1.0.2/MSDK/lwip/lwip-2.1.2/src/netif\ethernet.c ****  *    derived from this software without specific prior written permission.
  26:C:/Users/stapi/OneDrive/Desktop/GD32VW553/GD32VW55X_Wifi_BLE_SDK/GD32VW55x_RELEASE_V1.0.2/MSDK/lwip/lwip-2.1.2/src/netif\ethernet.c ****  *
  27:C:/Users/stapi/OneDrive/Desktop/GD32VW553/GD32VW55X_Wifi_BLE_SDK/GD32VW55x_RELEASE_V1.0.2/MSDK/lwip/lwip-2.1.2/src/netif\ethernet.c ****  * THIS SOFTWARE IS PROVIDED BY THE AUTHOR ``AS IS'' AND ANY EXPRESS OR IMPLIED
  28:C:/Users/stapi/OneDrive/Desktop/GD32VW553/GD32VW55X_Wifi_BLE_SDK/GD32VW55x_RELEASE_V1.0.2/MSDK/lwip/lwip-2.1.2/src/netif\ethernet.c ****  * WARRANTIES, INCLUDING, BUT NOT LIMITED TO, THE IMPLIED WARRANTIES OF
  29:C:/Users/stapi/OneDrive/Desktop/GD32VW553/GD32VW55X_Wifi_BLE_SDK/GD32VW55x_RELEASE_V1.0.2/MSDK/lwip/lwip-2.1.2/src/netif\ethernet.c ****  * MERCHANTABILITY AND FITNESS FOR A PARTICULAR PURPOSE ARE DISCLAIMED. IN NO EVENT
  30:C:/Users/stapi/OneDrive/Desktop/GD32VW553/GD32VW55X_Wifi_BLE_SDK/GD32VW55x_RELEASE_V1.0.2/MSDK/lwip/lwip-2.1.2/src/netif\ethernet.c ****  * SHALL THE AUTHOR BE LIABLE FOR ANY DIRECT, INDIRECT, INCIDENTAL, SPECIAL,
  31:C:/Users/stapi/OneDrive/Desktop/GD32VW553/GD32VW55X_Wifi_BLE_SDK/GD32VW55x_RELEASE_V1.0.2/MSDK/lwip/lwip-2.1.2/src/netif\ethernet.c ****  * EXEMPLARY, OR CONSEQUENTIAL DAMAGES (INCLUDING, BUT NOT LIMITED TO, PROCUREMENT
  32:C:/Users/stapi/OneDrive/Desktop/GD32VW553/GD32VW55X_Wifi_BLE_SDK/GD32VW55x_RELEASE_V1.0.2/MSDK/lwip/lwip-2.1.2/src/netif\ethernet.c ****  * OF SUBSTITUTE GOODS OR SERVICES; LOSS OF USE, DATA, OR PROFITS; OR BUSINESS
  33:C:/Users/stapi/OneDrive/Desktop/GD32VW553/GD32VW55X_Wifi_BLE_SDK/GD32VW55x_RELEASE_V1.0.2/MSDK/lwip/lwip-2.1.2/src/netif\ethernet.c ****  * INTERRUPTION) HOWEVER CAUSED AND ON ANY THEORY OF LIABILITY, WHETHER IN
  34:C:/Users/stapi/OneDrive/Desktop/GD32VW553/GD32VW55X_Wifi_BLE_SDK/GD32VW55x_RELEASE_V1.0.2/MSDK/lwip/lwip-2.1.2/src/netif\ethernet.c ****  * CONTRACT, STRICT LIABILITY, OR TORT (INCLUDING NEGLIGENCE OR OTHERWISE) ARISING
  35:C:/Users/stapi/OneDrive/Desktop/GD32VW553/GD32VW55X_Wifi_BLE_SDK/GD32VW55x_RELEASE_V1.0.2/MSDK/lwip/lwip-2.1.2/src/netif\ethernet.c ****  * IN ANY WAY OUT OF THE USE OF THIS SOFTWARE, EVEN IF ADVISED OF THE POSSIBILITY
  36:C:/Users/stapi/OneDrive/Desktop/GD32VW553/GD32VW55X_Wifi_BLE_SDK/GD32VW55x_RELEASE_V1.0.2/MSDK/lwip/lwip-2.1.2/src/netif\ethernet.c ****  * OF SUCH DAMAGE.
  37:C:/Users/stapi/OneDrive/Desktop/GD32VW553/GD32VW55X_Wifi_BLE_SDK/GD32VW55x_RELEASE_V1.0.2/MSDK/lwip/lwip-2.1.2/src/netif\ethernet.c ****  *
  38:C:/Users/stapi/OneDrive/Desktop/GD32VW553/GD32VW55X_Wifi_BLE_SDK/GD32VW55x_RELEASE_V1.0.2/MSDK/lwip/lwip-2.1.2/src/netif\ethernet.c ****  * This file is part of the lwIP TCP/IP stack.
  39:C:/Users/stapi/OneDrive/Desktop/GD32VW553/GD32VW55X_Wifi_BLE_SDK/GD32VW55x_RELEASE_V1.0.2/MSDK/lwip/lwip-2.1.2/src/netif\ethernet.c ****  *
  40:C:/Users/stapi/OneDrive/Desktop/GD32VW553/GD32VW55X_Wifi_BLE_SDK/GD32VW55x_RELEASE_V1.0.2/MSDK/lwip/lwip-2.1.2/src/netif\ethernet.c ****  */
  41:C:/Users/stapi/OneDrive/Desktop/GD32VW553/GD32VW55X_Wifi_BLE_SDK/GD32VW55x_RELEASE_V1.0.2/MSDK/lwip/lwip-2.1.2/src/netif\ethernet.c **** 
  42:C:/Users/stapi/OneDrive/Desktop/GD32VW553/GD32VW55X_Wifi_BLE_SDK/GD32VW55x_RELEASE_V1.0.2/MSDK/lwip/lwip-2.1.2/src/netif\ethernet.c **** #include "lwip/opt.h"
  43:C:/Users/stapi/OneDrive/Desktop/GD32VW553/GD32VW55X_Wifi_BLE_SDK/GD32VW55x_RELEASE_V1.0.2/MSDK/lwip/lwip-2.1.2/src/netif\ethernet.c **** 
  44:C:/Users/stapi/OneDrive/Desktop/GD32VW553/GD32VW55X_Wifi_BLE_SDK/GD32VW55x_RELEASE_V1.0.2/MSDK/lwip/lwip-2.1.2/src/netif\ethernet.c **** #if LWIP_ARP || LWIP_ETHERNET
  45:C:/Users/stapi/OneDrive/Desktop/GD32VW553/GD32VW55X_Wifi_BLE_SDK/GD32VW55x_RELEASE_V1.0.2/MSDK/lwip/lwip-2.1.2/src/netif\ethernet.c **** 
  46:C:/Users/stapi/OneDrive/Desktop/GD32VW553/GD32VW55X_Wifi_BLE_SDK/GD32VW55x_RELEASE_V1.0.2/MSDK/lwip/lwip-2.1.2/src/netif\ethernet.c **** #include "netif/ethernet.h"
  47:C:/Users/stapi/OneDrive/Desktop/GD32VW553/GD32VW55X_Wifi_BLE_SDK/GD32VW55x_RELEASE_V1.0.2/MSDK/lwip/lwip-2.1.2/src/netif\ethernet.c **** #include "lwip/def.h"
  48:C:/Users/stapi/OneDrive/Desktop/GD32VW553/GD32VW55X_Wifi_BLE_SDK/GD32VW55x_RELEASE_V1.0.2/MSDK/lwip/lwip-2.1.2/src/netif\ethernet.c **** #include "lwip/stats.h"
  49:C:/Users/stapi/OneDrive/Desktop/GD32VW553/GD32VW55X_Wifi_BLE_SDK/GD32VW55x_RELEASE_V1.0.2/MSDK/lwip/lwip-2.1.2/src/netif\ethernet.c **** #include "lwip/etharp.h"
  50:C:/Users/stapi/OneDrive/Desktop/GD32VW553/GD32VW55X_Wifi_BLE_SDK/GD32VW55x_RELEASE_V1.0.2/MSDK/lwip/lwip-2.1.2/src/netif\ethernet.c **** #include "lwip/ip.h"
  51:C:/Users/stapi/OneDrive/Desktop/GD32VW553/GD32VW55X_Wifi_BLE_SDK/GD32VW55x_RELEASE_V1.0.2/MSDK/lwip/lwip-2.1.2/src/netif\ethernet.c **** #include "lwip/snmp.h"
  52:C:/Users/stapi/OneDrive/Desktop/GD32VW553/GD32VW55X_Wifi_BLE_SDK/GD32VW55x_RELEASE_V1.0.2/MSDK/lwip/lwip-2.1.2/src/netif\ethernet.c **** 
  53:C:/Users/stapi/OneDrive/Desktop/GD32VW553/GD32VW55X_Wifi_BLE_SDK/GD32VW55x_RELEASE_V1.0.2/MSDK/lwip/lwip-2.1.2/src/netif\ethernet.c **** #include <string.h>
  54:C:/Users/stapi/OneDrive/Desktop/GD32VW553/GD32VW55X_Wifi_BLE_SDK/GD32VW55x_RELEASE_V1.0.2/MSDK/lwip/lwip-2.1.2/src/netif\ethernet.c **** 
  55:C:/Users/stapi/OneDrive/Desktop/GD32VW553/GD32VW55X_Wifi_BLE_SDK/GD32VW55x_RELEASE_V1.0.2/MSDK/lwip/lwip-2.1.2/src/netif\ethernet.c **** #include "netif/ppp/ppp_opts.h"
  56:C:/Users/stapi/OneDrive/Desktop/GD32VW553/GD32VW55X_Wifi_BLE_SDK/GD32VW55x_RELEASE_V1.0.2/MSDK/lwip/lwip-2.1.2/src/netif\ethernet.c **** #if PPPOE_SUPPORT
  57:C:/Users/stapi/OneDrive/Desktop/GD32VW553/GD32VW55X_Wifi_BLE_SDK/GD32VW55x_RELEASE_V1.0.2/MSDK/lwip/lwip-2.1.2/src/netif\ethernet.c **** #include "netif/ppp/pppoe.h"
  58:C:/Users/stapi/OneDrive/Desktop/GD32VW553/GD32VW55X_Wifi_BLE_SDK/GD32VW55x_RELEASE_V1.0.2/MSDK/lwip/lwip-2.1.2/src/netif\ethernet.c **** #endif /* PPPOE_SUPPORT */
  59:C:/Users/stapi/OneDrive/Desktop/GD32VW553/GD32VW55X_Wifi_BLE_SDK/GD32VW55x_RELEASE_V1.0.2/MSDK/lwip/lwip-2.1.2/src/netif\ethernet.c **** 
  60:C:/Users/stapi/OneDrive/Desktop/GD32VW553/GD32VW55X_Wifi_BLE_SDK/GD32VW55x_RELEASE_V1.0.2/MSDK/lwip/lwip-2.1.2/src/netif\ethernet.c **** #ifdef LWIP_HOOK_FILENAME
  61:C:/Users/stapi/OneDrive/Desktop/GD32VW553/GD32VW55X_Wifi_BLE_SDK/GD32VW55x_RELEASE_V1.0.2/MSDK/lwip/lwip-2.1.2/src/netif\ethernet.c **** #include LWIP_HOOK_FILENAME
  62:C:/Users/stapi/OneDrive/Desktop/GD32VW553/GD32VW55X_Wifi_BLE_SDK/GD32VW55x_RELEASE_V1.0.2/MSDK/lwip/lwip-2.1.2/src/netif\ethernet.c **** #endif
  63:C:/Users/stapi/OneDrive/Desktop/GD32VW553/GD32VW55X_Wifi_BLE_SDK/GD32VW55x_RELEASE_V1.0.2/MSDK/lwip/lwip-2.1.2/src/netif\ethernet.c **** 
  64:C:/Users/stapi/OneDrive/Desktop/GD32VW553/GD32VW55X_Wifi_BLE_SDK/GD32VW55x_RELEASE_V1.0.2/MSDK/lwip/lwip-2.1.2/src/netif\ethernet.c **** const struct eth_addr ethbroadcast = {{0xff, 0xff, 0xff, 0xff, 0xff, 0xff}};
  65:C:/Users/stapi/OneDrive/Desktop/GD32VW553/GD32VW55X_Wifi_BLE_SDK/GD32VW55x_RELEASE_V1.0.2/MSDK/lwip/lwip-2.1.2/src/netif\ethernet.c **** const struct eth_addr ethzero = {{0, 0, 0, 0, 0, 0}};
  66:C:/Users/stapi/OneDrive/Desktop/GD32VW553/GD32VW55X_Wifi_BLE_SDK/GD32VW55x_RELEASE_V1.0.2/MSDK/lwip/lwip-2.1.2/src/netif\ethernet.c **** 
  67:C:/Users/stapi/OneDrive/Desktop/GD32VW553/GD32VW55X_Wifi_BLE_SDK/GD32VW55x_RELEASE_V1.0.2/MSDK/lwip/lwip-2.1.2/src/netif\ethernet.c **** /**
  68:C:/Users/stapi/OneDrive/Desktop/GD32VW553/GD32VW55X_Wifi_BLE_SDK/GD32VW55x_RELEASE_V1.0.2/MSDK/lwip/lwip-2.1.2/src/netif\ethernet.c ****  * @ingroup lwip_nosys
  69:C:/Users/stapi/OneDrive/Desktop/GD32VW553/GD32VW55X_Wifi_BLE_SDK/GD32VW55x_RELEASE_V1.0.2/MSDK/lwip/lwip-2.1.2/src/netif\ethernet.c ****  * Process received ethernet frames. Using this function instead of directly
  70:C:/Users/stapi/OneDrive/Desktop/GD32VW553/GD32VW55X_Wifi_BLE_SDK/GD32VW55x_RELEASE_V1.0.2/MSDK/lwip/lwip-2.1.2/src/netif\ethernet.c ****  * calling ip_input and passing ARP frames through etharp in ethernetif_input,
  71:C:/Users/stapi/OneDrive/Desktop/GD32VW553/GD32VW55X_Wifi_BLE_SDK/GD32VW55x_RELEASE_V1.0.2/MSDK/lwip/lwip-2.1.2/src/netif\ethernet.c ****  * the ARP cache is protected from concurrent access.\n
  72:C:/Users/stapi/OneDrive/Desktop/GD32VW553/GD32VW55X_Wifi_BLE_SDK/GD32VW55x_RELEASE_V1.0.2/MSDK/lwip/lwip-2.1.2/src/netif\ethernet.c ****  * Don't call directly, pass to netif_add() and call netif->input().
  73:C:/Users/stapi/OneDrive/Desktop/GD32VW553/GD32VW55X_Wifi_BLE_SDK/GD32VW55x_RELEASE_V1.0.2/MSDK/lwip/lwip-2.1.2/src/netif\ethernet.c ****  *
  74:C:/Users/stapi/OneDrive/Desktop/GD32VW553/GD32VW55X_Wifi_BLE_SDK/GD32VW55x_RELEASE_V1.0.2/MSDK/lwip/lwip-2.1.2/src/netif\ethernet.c ****  * @param p the received packet, p->payload pointing to the ethernet header
  75:C:/Users/stapi/OneDrive/Desktop/GD32VW553/GD32VW55X_Wifi_BLE_SDK/GD32VW55x_RELEASE_V1.0.2/MSDK/lwip/lwip-2.1.2/src/netif\ethernet.c ****  * @param netif the network interface on which the packet was received
  76:C:/Users/stapi/OneDrive/Desktop/GD32VW553/GD32VW55X_Wifi_BLE_SDK/GD32VW55x_RELEASE_V1.0.2/MSDK/lwip/lwip-2.1.2/src/netif\ethernet.c ****  *
  77:C:/Users/stapi/OneDrive/Desktop/GD32VW553/GD32VW55X_Wifi_BLE_SDK/GD32VW55x_RELEASE_V1.0.2/MSDK/lwip/lwip-2.1.2/src/netif\ethernet.c ****  * @see LWIP_HOOK_UNKNOWN_ETH_PROTOCOL
  78:C:/Users/stapi/OneDrive/Desktop/GD32VW553/GD32VW55X_Wifi_BLE_SDK/GD32VW55x_RELEASE_V1.0.2/MSDK/lwip/lwip-2.1.2/src/netif\ethernet.c ****  * @see ETHARP_SUPPORT_VLAN
  79:C:/Users/stapi/OneDrive/Desktop/GD32VW553/GD32VW55X_Wifi_BLE_SDK/GD32VW55x_RELEASE_V1.0.2/MSDK/lwip/lwip-2.1.2/src/netif\ethernet.c ****  * @see LWIP_HOOK_VLAN_CHECK
  80:C:/Users/stapi/OneDrive/Desktop/GD32VW553/GD32VW55X_Wifi_BLE_SDK/GD32VW55x_RELEASE_V1.0.2/MSDK/lwip/lwip-2.1.2/src/netif\ethernet.c ****  */
  81:C:/Users/stapi/OneDrive/Desktop/GD32VW553/GD32VW55X_Wifi_BLE_SDK/GD32VW55x_RELEASE_V1.0.2/MSDK/lwip/lwip-2.1.2/src/netif\ethernet.c **** err_t
  82:C:/Users/stapi/OneDrive/Desktop/GD32VW553/GD32VW55X_Wifi_BLE_SDK/GD32VW55x_RELEASE_V1.0.2/MSDK/lwip/lwip-2.1.2/src/netif\ethernet.c **** ethernet_input(struct pbuf *p, struct netif *netif)
  83:C:/Users/stapi/OneDrive/Desktop/GD32VW553/GD32VW55X_Wifi_BLE_SDK/GD32VW55x_RELEASE_V1.0.2/MSDK/lwip/lwip-2.1.2/src/netif\ethernet.c **** {
  16              		.loc 1 83 1
  17              		.cfi_startproc
  18              	.LVL0:
  19 0000 17030000 		call	t0,__riscv_save_3
  19      E7020300 
  20              		.cfi_offset 18, -16
  21              		.cfi_offset 9, -12
  22              		.cfi_offset 8, -8
  23              		.cfi_offset 1, -4
  24              		.cfi_def_cfa_offset 16
  84:C:/Users/stapi/OneDrive/Desktop/GD32VW553/GD32VW55X_Wifi_BLE_SDK/GD32VW55x_RELEASE_V1.0.2/MSDK/lwip/lwip-2.1.2/src/netif\ethernet.c ****   struct eth_hdr *ethhdr;
  25              		.loc 1 84 3
  85:C:/Users/stapi/OneDrive/Desktop/GD32VW553/GD32VW55X_Wifi_BLE_SDK/GD32VW55x_RELEASE_V1.0.2/MSDK/lwip/lwip-2.1.2/src/netif\ethernet.c ****   u16_t type;
  26              		.loc 1 85 3
  86:C:/Users/stapi/OneDrive/Desktop/GD32VW553/GD32VW55X_Wifi_BLE_SDK/GD32VW55x_RELEASE_V1.0.2/MSDK/lwip/lwip-2.1.2/src/netif\ethernet.c **** #if LWIP_ARP || ETHARP_SUPPORT_VLAN || LWIP_IPV6
  87:C:/Users/stapi/OneDrive/Desktop/GD32VW553/GD32VW55X_Wifi_BLE_SDK/GD32VW55x_RELEASE_V1.0.2/MSDK/lwip/lwip-2.1.2/src/netif\ethernet.c ****   u16_t next_hdr_offset = SIZEOF_ETH_HDR;
  27              		.loc 1 87 3
  28              	.LVL1:
  88:C:/Users/stapi/OneDrive/Desktop/GD32VW553/GD32VW55X_Wifi_BLE_SDK/GD32VW55x_RELEASE_V1.0.2/MSDK/lwip/lwip-2.1.2/src/netif\ethernet.c **** #endif /* LWIP_ARP || ETHARP_SUPPORT_VLAN */
  89:C:/Users/stapi/OneDrive/Desktop/GD32VW553/GD32VW55X_Wifi_BLE_SDK/GD32VW55x_RELEASE_V1.0.2/MSDK/lwip/lwip-2.1.2/src/netif\ethernet.c **** 
  90:C:/Users/stapi/OneDrive/Desktop/GD32VW553/GD32VW55X_Wifi_BLE_SDK/GD32VW55x_RELEASE_V1.0.2/MSDK/lwip/lwip-2.1.2/src/netif\ethernet.c ****   LWIP_ASSERT_CORE_LOCKED();
  29              		.loc 1 90 28
  91:C:/Users/stapi/OneDrive/Desktop/GD32VW553/GD32VW55X_Wifi_BLE_SDK/GD32VW55x_RELEASE_V1.0.2/MSDK/lwip/lwip-2.1.2/src/netif\ethernet.c **** 
  92:C:/Users/stapi/OneDrive/Desktop/GD32VW553/GD32VW55X_Wifi_BLE_SDK/GD32VW55x_RELEASE_V1.0.2/MSDK/lwip/lwip-2.1.2/src/netif\ethernet.c ****   if (p->len <= SIZEOF_ETH_HDR) {
  30              		.loc 1 92 3
  31              		.loc 1 92 6 is_stmt 0
  32 0008 0357A500 		lhu	a4,10(a0)
  33 000c B947     		li	a5,14
  83:C:/Users/stapi/OneDrive/Desktop/GD32VW553/GD32VW55X_Wifi_BLE_SDK/GD32VW55x_RELEASE_V1.0.2/MSDK/lwip/lwip-2.1.2/src/netif\ethernet.c ****   struct eth_hdr *ethhdr;
  34              		.loc 1 83 1
  35 000e 2A84     		mv	s0,a0
  36              		.loc 1 92 6
  37 0010 63ECE700 		bgtu	a4,a5,.L2
  38              	.LVL2:
  39              	.L10:
  40              	.LDL1:
  93:C:/Users/stapi/OneDrive/Desktop/GD32VW553/GD32VW55X_Wifi_BLE_SDK/GD32VW55x_RELEASE_V1.0.2/MSDK/lwip/lwip-2.1.2/src/netif\ethernet.c ****     /* a packet with only an ethernet header (or less) is not valid for us */
  94:C:/Users/stapi/OneDrive/Desktop/GD32VW553/GD32VW55X_Wifi_BLE_SDK/GD32VW55x_RELEASE_V1.0.2/MSDK/lwip/lwip-2.1.2/src/netif\ethernet.c ****     ETHARP_STATS_INC(etharp.proterr);
  95:C:/Users/stapi/OneDrive/Desktop/GD32VW553/GD32VW55X_Wifi_BLE_SDK/GD32VW55x_RELEASE_V1.0.2/MSDK/lwip/lwip-2.1.2/src/netif\ethernet.c ****     ETHARP_STATS_INC(etharp.drop);
  96:C:/Users/stapi/OneDrive/Desktop/GD32VW553/GD32VW55X_Wifi_BLE_SDK/GD32VW55x_RELEASE_V1.0.2/MSDK/lwip/lwip-2.1.2/src/netif\ethernet.c ****     MIB2_STATS_NETIF_INC(netif, ifinerrors);
  97:C:/Users/stapi/OneDrive/Desktop/GD32VW553/GD32VW55X_Wifi_BLE_SDK/GD32VW55x_RELEASE_V1.0.2/MSDK/lwip/lwip-2.1.2/src/netif\ethernet.c ****     goto free_and_return;
  98:C:/Users/stapi/OneDrive/Desktop/GD32VW553/GD32VW55X_Wifi_BLE_SDK/GD32VW55x_RELEASE_V1.0.2/MSDK/lwip/lwip-2.1.2/src/netif\ethernet.c ****   }
  99:C:/Users/stapi/OneDrive/Desktop/GD32VW553/GD32VW55X_Wifi_BLE_SDK/GD32VW55x_RELEASE_V1.0.2/MSDK/lwip/lwip-2.1.2/src/netif\ethernet.c **** 
 100:C:/Users/stapi/OneDrive/Desktop/GD32VW553/GD32VW55X_Wifi_BLE_SDK/GD32VW55x_RELEASE_V1.0.2/MSDK/lwip/lwip-2.1.2/src/netif\ethernet.c ****   if (p->if_idx == NETIF_NO_INDEX) {
 101:C:/Users/stapi/OneDrive/Desktop/GD32VW553/GD32VW55X_Wifi_BLE_SDK/GD32VW55x_RELEASE_V1.0.2/MSDK/lwip/lwip-2.1.2/src/netif\ethernet.c ****     p->if_idx = netif_get_index(netif);
 102:C:/Users/stapi/OneDrive/Desktop/GD32VW553/GD32VW55X_Wifi_BLE_SDK/GD32VW55x_RELEASE_V1.0.2/MSDK/lwip/lwip-2.1.2/src/netif\ethernet.c ****   }
 103:C:/Users/stapi/OneDrive/Desktop/GD32VW553/GD32VW55X_Wifi_BLE_SDK/GD32VW55x_RELEASE_V1.0.2/MSDK/lwip/lwip-2.1.2/src/netif\ethernet.c **** 
 104:C:/Users/stapi/OneDrive/Desktop/GD32VW553/GD32VW55X_Wifi_BLE_SDK/GD32VW55x_RELEASE_V1.0.2/MSDK/lwip/lwip-2.1.2/src/netif\ethernet.c ****   /* points to packet payload, which starts with an Ethernet header */
 105:C:/Users/stapi/OneDrive/Desktop/GD32VW553/GD32VW55X_Wifi_BLE_SDK/GD32VW55x_RELEASE_V1.0.2/MSDK/lwip/lwip-2.1.2/src/netif\ethernet.c ****   ethhdr = (struct eth_hdr *)p->payload;
 106:C:/Users/stapi/OneDrive/Desktop/GD32VW553/GD32VW55X_Wifi_BLE_SDK/GD32VW55x_RELEASE_V1.0.2/MSDK/lwip/lwip-2.1.2/src/netif\ethernet.c ****   LWIP_DEBUGF(ETHARP_DEBUG | LWIP_DBG_TRACE,
 107:C:/Users/stapi/OneDrive/Desktop/GD32VW553/GD32VW55X_Wifi_BLE_SDK/GD32VW55x_RELEASE_V1.0.2/MSDK/lwip/lwip-2.1.2/src/netif\ethernet.c ****               ("ethernet_input: dest:%"X8_F":%"X8_F":%"X8_F":%"X8_F":%"X8_F":%"X8_F", src:%"X8_F":%
 108:C:/Users/stapi/OneDrive/Desktop/GD32VW553/GD32VW55X_Wifi_BLE_SDK/GD32VW55x_RELEASE_V1.0.2/MSDK/lwip/lwip-2.1.2/src/netif\ethernet.c ****                (unsigned char)ethhdr->dest.addr[0], (unsigned char)ethhdr->dest.addr[1], (unsigned 
 109:C:/Users/stapi/OneDrive/Desktop/GD32VW553/GD32VW55X_Wifi_BLE_SDK/GD32VW55x_RELEASE_V1.0.2/MSDK/lwip/lwip-2.1.2/src/netif\ethernet.c ****                (unsigned char)ethhdr->dest.addr[3], (unsigned char)ethhdr->dest.addr[4], (unsigned 
 110:C:/Users/stapi/OneDrive/Desktop/GD32VW553/GD32VW55X_Wifi_BLE_SDK/GD32VW55x_RELEASE_V1.0.2/MSDK/lwip/lwip-2.1.2/src/netif\ethernet.c ****                (unsigned char)ethhdr->src.addr[0],  (unsigned char)ethhdr->src.addr[1],  (unsigned 
 111:C:/Users/stapi/OneDrive/Desktop/GD32VW553/GD32VW55X_Wifi_BLE_SDK/GD32VW55x_RELEASE_V1.0.2/MSDK/lwip/lwip-2.1.2/src/netif\ethernet.c ****                (unsigned char)ethhdr->src.addr[3],  (unsigned char)ethhdr->src.addr[4],  (unsigned 
 112:C:/Users/stapi/OneDrive/Desktop/GD32VW553/GD32VW55X_Wifi_BLE_SDK/GD32VW55x_RELEASE_V1.0.2/MSDK/lwip/lwip-2.1.2/src/netif\ethernet.c ****                lwip_htons(ethhdr->type)));
 113:C:/Users/stapi/OneDrive/Desktop/GD32VW553/GD32VW55X_Wifi_BLE_SDK/GD32VW55x_RELEASE_V1.0.2/MSDK/lwip/lwip-2.1.2/src/netif\ethernet.c **** 
 114:C:/Users/stapi/OneDrive/Desktop/GD32VW553/GD32VW55X_Wifi_BLE_SDK/GD32VW55x_RELEASE_V1.0.2/MSDK/lwip/lwip-2.1.2/src/netif\ethernet.c ****   type = ethhdr->type;
 115:C:/Users/stapi/OneDrive/Desktop/GD32VW553/GD32VW55X_Wifi_BLE_SDK/GD32VW55x_RELEASE_V1.0.2/MSDK/lwip/lwip-2.1.2/src/netif\ethernet.c **** #if ETHARP_SUPPORT_VLAN
 116:C:/Users/stapi/OneDrive/Desktop/GD32VW553/GD32VW55X_Wifi_BLE_SDK/GD32VW55x_RELEASE_V1.0.2/MSDK/lwip/lwip-2.1.2/src/netif\ethernet.c ****   if (type == PP_HTONS(ETHTYPE_VLAN)) {
 117:C:/Users/stapi/OneDrive/Desktop/GD32VW553/GD32VW55X_Wifi_BLE_SDK/GD32VW55x_RELEASE_V1.0.2/MSDK/lwip/lwip-2.1.2/src/netif\ethernet.c ****     struct eth_vlan_hdr *vlan = (struct eth_vlan_hdr *)(((char *)ethhdr) + SIZEOF_ETH_HDR);
 118:C:/Users/stapi/OneDrive/Desktop/GD32VW553/GD32VW55X_Wifi_BLE_SDK/GD32VW55x_RELEASE_V1.0.2/MSDK/lwip/lwip-2.1.2/src/netif\ethernet.c ****     next_hdr_offset = SIZEOF_ETH_HDR + SIZEOF_VLAN_HDR;
 119:C:/Users/stapi/OneDrive/Desktop/GD32VW553/GD32VW55X_Wifi_BLE_SDK/GD32VW55x_RELEASE_V1.0.2/MSDK/lwip/lwip-2.1.2/src/netif\ethernet.c ****     if (p->len <= SIZEOF_ETH_HDR + SIZEOF_VLAN_HDR) {
 120:C:/Users/stapi/OneDrive/Desktop/GD32VW553/GD32VW55X_Wifi_BLE_SDK/GD32VW55x_RELEASE_V1.0.2/MSDK/lwip/lwip-2.1.2/src/netif\ethernet.c ****       /* a packet with only an ethernet/vlan header (or less) is not valid for us */
 121:C:/Users/stapi/OneDrive/Desktop/GD32VW553/GD32VW55X_Wifi_BLE_SDK/GD32VW55x_RELEASE_V1.0.2/MSDK/lwip/lwip-2.1.2/src/netif\ethernet.c ****       ETHARP_STATS_INC(etharp.proterr);
 122:C:/Users/stapi/OneDrive/Desktop/GD32VW553/GD32VW55X_Wifi_BLE_SDK/GD32VW55x_RELEASE_V1.0.2/MSDK/lwip/lwip-2.1.2/src/netif\ethernet.c ****       ETHARP_STATS_INC(etharp.drop);
 123:C:/Users/stapi/OneDrive/Desktop/GD32VW553/GD32VW55X_Wifi_BLE_SDK/GD32VW55x_RELEASE_V1.0.2/MSDK/lwip/lwip-2.1.2/src/netif\ethernet.c ****       MIB2_STATS_NETIF_INC(netif, ifinerrors);
 124:C:/Users/stapi/OneDrive/Desktop/GD32VW553/GD32VW55X_Wifi_BLE_SDK/GD32VW55x_RELEASE_V1.0.2/MSDK/lwip/lwip-2.1.2/src/netif\ethernet.c ****       goto free_and_return;
 125:C:/Users/stapi/OneDrive/Desktop/GD32VW553/GD32VW55X_Wifi_BLE_SDK/GD32VW55x_RELEASE_V1.0.2/MSDK/lwip/lwip-2.1.2/src/netif\ethernet.c ****     }
 126:C:/Users/stapi/OneDrive/Desktop/GD32VW553/GD32VW55X_Wifi_BLE_SDK/GD32VW55x_RELEASE_V1.0.2/MSDK/lwip/lwip-2.1.2/src/netif\ethernet.c **** #if defined(LWIP_HOOK_VLAN_CHECK) || defined(ETHARP_VLAN_CHECK) || defined(ETHARP_VLAN_CHECK_FN) /*
 127:C:/Users/stapi/OneDrive/Desktop/GD32VW553/GD32VW55X_Wifi_BLE_SDK/GD32VW55x_RELEASE_V1.0.2/MSDK/lwip/lwip-2.1.2/src/netif\ethernet.c **** #ifdef LWIP_HOOK_VLAN_CHECK
 128:C:/Users/stapi/OneDrive/Desktop/GD32VW553/GD32VW55X_Wifi_BLE_SDK/GD32VW55x_RELEASE_V1.0.2/MSDK/lwip/lwip-2.1.2/src/netif\ethernet.c ****     if (!LWIP_HOOK_VLAN_CHECK(netif, ethhdr, vlan)) {
 129:C:/Users/stapi/OneDrive/Desktop/GD32VW553/GD32VW55X_Wifi_BLE_SDK/GD32VW55x_RELEASE_V1.0.2/MSDK/lwip/lwip-2.1.2/src/netif\ethernet.c **** #elif defined(ETHARP_VLAN_CHECK_FN)
 130:C:/Users/stapi/OneDrive/Desktop/GD32VW553/GD32VW55X_Wifi_BLE_SDK/GD32VW55x_RELEASE_V1.0.2/MSDK/lwip/lwip-2.1.2/src/netif\ethernet.c ****     if (!ETHARP_VLAN_CHECK_FN(ethhdr, vlan)) {
 131:C:/Users/stapi/OneDrive/Desktop/GD32VW553/GD32VW55X_Wifi_BLE_SDK/GD32VW55x_RELEASE_V1.0.2/MSDK/lwip/lwip-2.1.2/src/netif\ethernet.c **** #elif defined(ETHARP_VLAN_CHECK)
 132:C:/Users/stapi/OneDrive/Desktop/GD32VW553/GD32VW55X_Wifi_BLE_SDK/GD32VW55x_RELEASE_V1.0.2/MSDK/lwip/lwip-2.1.2/src/netif\ethernet.c ****     if (VLAN_ID(vlan) != ETHARP_VLAN_CHECK) {
 133:C:/Users/stapi/OneDrive/Desktop/GD32VW553/GD32VW55X_Wifi_BLE_SDK/GD32VW55x_RELEASE_V1.0.2/MSDK/lwip/lwip-2.1.2/src/netif\ethernet.c **** #endif
 134:C:/Users/stapi/OneDrive/Desktop/GD32VW553/GD32VW55X_Wifi_BLE_SDK/GD32VW55x_RELEASE_V1.0.2/MSDK/lwip/lwip-2.1.2/src/netif\ethernet.c ****       /* silently ignore this packet: not for our VLAN */
 135:C:/Users/stapi/OneDrive/Desktop/GD32VW553/GD32VW55X_Wifi_BLE_SDK/GD32VW55x_RELEASE_V1.0.2/MSDK/lwip/lwip-2.1.2/src/netif\ethernet.c ****       pbuf_free(p);
 136:C:/Users/stapi/OneDrive/Desktop/GD32VW553/GD32VW55X_Wifi_BLE_SDK/GD32VW55x_RELEASE_V1.0.2/MSDK/lwip/lwip-2.1.2/src/netif\ethernet.c ****       return ERR_OK;
 137:C:/Users/stapi/OneDrive/Desktop/GD32VW553/GD32VW55X_Wifi_BLE_SDK/GD32VW55x_RELEASE_V1.0.2/MSDK/lwip/lwip-2.1.2/src/netif\ethernet.c ****     }
 138:C:/Users/stapi/OneDrive/Desktop/GD32VW553/GD32VW55X_Wifi_BLE_SDK/GD32VW55x_RELEASE_V1.0.2/MSDK/lwip/lwip-2.1.2/src/netif\ethernet.c **** #endif /* defined(LWIP_HOOK_VLAN_CHECK) || defined(ETHARP_VLAN_CHECK) || defined(ETHARP_VLAN_CHECK_
 139:C:/Users/stapi/OneDrive/Desktop/GD32VW553/GD32VW55X_Wifi_BLE_SDK/GD32VW55x_RELEASE_V1.0.2/MSDK/lwip/lwip-2.1.2/src/netif\ethernet.c ****     type = vlan->tpid;
 140:C:/Users/stapi/OneDrive/Desktop/GD32VW553/GD32VW55X_Wifi_BLE_SDK/GD32VW55x_RELEASE_V1.0.2/MSDK/lwip/lwip-2.1.2/src/netif\ethernet.c ****   }
 141:C:/Users/stapi/OneDrive/Desktop/GD32VW553/GD32VW55X_Wifi_BLE_SDK/GD32VW55x_RELEASE_V1.0.2/MSDK/lwip/lwip-2.1.2/src/netif\ethernet.c **** #endif /* ETHARP_SUPPORT_VLAN */
 142:C:/Users/stapi/OneDrive/Desktop/GD32VW553/GD32VW55X_Wifi_BLE_SDK/GD32VW55x_RELEASE_V1.0.2/MSDK/lwip/lwip-2.1.2/src/netif\ethernet.c **** 
 143:C:/Users/stapi/OneDrive/Desktop/GD32VW553/GD32VW55X_Wifi_BLE_SDK/GD32VW55x_RELEASE_V1.0.2/MSDK/lwip/lwip-2.1.2/src/netif\ethernet.c **** #if LWIP_ARP_FILTER_NETIF
 144:C:/Users/stapi/OneDrive/Desktop/GD32VW553/GD32VW55X_Wifi_BLE_SDK/GD32VW55x_RELEASE_V1.0.2/MSDK/lwip/lwip-2.1.2/src/netif\ethernet.c ****   netif = LWIP_ARP_FILTER_NETIF_FN(p, netif, lwip_htons(type));
 145:C:/Users/stapi/OneDrive/Desktop/GD32VW553/GD32VW55X_Wifi_BLE_SDK/GD32VW55x_RELEASE_V1.0.2/MSDK/lwip/lwip-2.1.2/src/netif\ethernet.c **** #endif /* LWIP_ARP_FILTER_NETIF*/
 146:C:/Users/stapi/OneDrive/Desktop/GD32VW553/GD32VW55X_Wifi_BLE_SDK/GD32VW55x_RELEASE_V1.0.2/MSDK/lwip/lwip-2.1.2/src/netif\ethernet.c **** 
 147:C:/Users/stapi/OneDrive/Desktop/GD32VW553/GD32VW55X_Wifi_BLE_SDK/GD32VW55x_RELEASE_V1.0.2/MSDK/lwip/lwip-2.1.2/src/netif\ethernet.c ****   if (ethhdr->dest.addr[0] & 1) {
 148:C:/Users/stapi/OneDrive/Desktop/GD32VW553/GD32VW55X_Wifi_BLE_SDK/GD32VW55x_RELEASE_V1.0.2/MSDK/lwip/lwip-2.1.2/src/netif\ethernet.c ****     /* this might be a multicast or broadcast packet */
 149:C:/Users/stapi/OneDrive/Desktop/GD32VW553/GD32VW55X_Wifi_BLE_SDK/GD32VW55x_RELEASE_V1.0.2/MSDK/lwip/lwip-2.1.2/src/netif\ethernet.c ****     if (ethhdr->dest.addr[0] == LL_IP4_MULTICAST_ADDR_0) {
 150:C:/Users/stapi/OneDrive/Desktop/GD32VW553/GD32VW55X_Wifi_BLE_SDK/GD32VW55x_RELEASE_V1.0.2/MSDK/lwip/lwip-2.1.2/src/netif\ethernet.c **** #if LWIP_IPV4
 151:C:/Users/stapi/OneDrive/Desktop/GD32VW553/GD32VW55X_Wifi_BLE_SDK/GD32VW55x_RELEASE_V1.0.2/MSDK/lwip/lwip-2.1.2/src/netif\ethernet.c ****       if ((ethhdr->dest.addr[1] == LL_IP4_MULTICAST_ADDR_1) &&
 152:C:/Users/stapi/OneDrive/Desktop/GD32VW553/GD32VW55X_Wifi_BLE_SDK/GD32VW55x_RELEASE_V1.0.2/MSDK/lwip/lwip-2.1.2/src/netif\ethernet.c ****           (ethhdr->dest.addr[2] == LL_IP4_MULTICAST_ADDR_2)) {
 153:C:/Users/stapi/OneDrive/Desktop/GD32VW553/GD32VW55X_Wifi_BLE_SDK/GD32VW55x_RELEASE_V1.0.2/MSDK/lwip/lwip-2.1.2/src/netif\ethernet.c ****         /* mark the pbuf as link-layer multicast */
 154:C:/Users/stapi/OneDrive/Desktop/GD32VW553/GD32VW55X_Wifi_BLE_SDK/GD32VW55x_RELEASE_V1.0.2/MSDK/lwip/lwip-2.1.2/src/netif\ethernet.c ****         p->flags |= PBUF_FLAG_LLMCAST;
 155:C:/Users/stapi/OneDrive/Desktop/GD32VW553/GD32VW55X_Wifi_BLE_SDK/GD32VW55x_RELEASE_V1.0.2/MSDK/lwip/lwip-2.1.2/src/netif\ethernet.c ****       }
 156:C:/Users/stapi/OneDrive/Desktop/GD32VW553/GD32VW55X_Wifi_BLE_SDK/GD32VW55x_RELEASE_V1.0.2/MSDK/lwip/lwip-2.1.2/src/netif\ethernet.c **** #endif /* LWIP_IPV4 */
 157:C:/Users/stapi/OneDrive/Desktop/GD32VW553/GD32VW55X_Wifi_BLE_SDK/GD32VW55x_RELEASE_V1.0.2/MSDK/lwip/lwip-2.1.2/src/netif\ethernet.c ****     }
 158:C:/Users/stapi/OneDrive/Desktop/GD32VW553/GD32VW55X_Wifi_BLE_SDK/GD32VW55x_RELEASE_V1.0.2/MSDK/lwip/lwip-2.1.2/src/netif\ethernet.c **** #if LWIP_IPV6
 159:C:/Users/stapi/OneDrive/Desktop/GD32VW553/GD32VW55X_Wifi_BLE_SDK/GD32VW55x_RELEASE_V1.0.2/MSDK/lwip/lwip-2.1.2/src/netif\ethernet.c ****     else if ((ethhdr->dest.addr[0] == LL_IP6_MULTICAST_ADDR_0) &&
 160:C:/Users/stapi/OneDrive/Desktop/GD32VW553/GD32VW55X_Wifi_BLE_SDK/GD32VW55x_RELEASE_V1.0.2/MSDK/lwip/lwip-2.1.2/src/netif\ethernet.c ****              (ethhdr->dest.addr[1] == LL_IP6_MULTICAST_ADDR_1)) {
 161:C:/Users/stapi/OneDrive/Desktop/GD32VW553/GD32VW55X_Wifi_BLE_SDK/GD32VW55x_RELEASE_V1.0.2/MSDK/lwip/lwip-2.1.2/src/netif\ethernet.c ****       /* mark the pbuf as link-layer multicast */
 162:C:/Users/stapi/OneDrive/Desktop/GD32VW553/GD32VW55X_Wifi_BLE_SDK/GD32VW55x_RELEASE_V1.0.2/MSDK/lwip/lwip-2.1.2/src/netif\ethernet.c ****       p->flags |= PBUF_FLAG_LLMCAST;
 163:C:/Users/stapi/OneDrive/Desktop/GD32VW553/GD32VW55X_Wifi_BLE_SDK/GD32VW55x_RELEASE_V1.0.2/MSDK/lwip/lwip-2.1.2/src/netif\ethernet.c ****     }
 164:C:/Users/stapi/OneDrive/Desktop/GD32VW553/GD32VW55X_Wifi_BLE_SDK/GD32VW55x_RELEASE_V1.0.2/MSDK/lwip/lwip-2.1.2/src/netif\ethernet.c **** #endif /* LWIP_IPV6 */
 165:C:/Users/stapi/OneDrive/Desktop/GD32VW553/GD32VW55X_Wifi_BLE_SDK/GD32VW55x_RELEASE_V1.0.2/MSDK/lwip/lwip-2.1.2/src/netif\ethernet.c ****     else if (eth_addr_cmp(&ethhdr->dest, &ethbroadcast)) {
 166:C:/Users/stapi/OneDrive/Desktop/GD32VW553/GD32VW55X_Wifi_BLE_SDK/GD32VW55x_RELEASE_V1.0.2/MSDK/lwip/lwip-2.1.2/src/netif\ethernet.c ****       /* mark the pbuf as link-layer broadcast */
 167:C:/Users/stapi/OneDrive/Desktop/GD32VW553/GD32VW55X_Wifi_BLE_SDK/GD32VW55x_RELEASE_V1.0.2/MSDK/lwip/lwip-2.1.2/src/netif\ethernet.c ****       p->flags |= PBUF_FLAG_LLBCAST;
 168:C:/Users/stapi/OneDrive/Desktop/GD32VW553/GD32VW55X_Wifi_BLE_SDK/GD32VW55x_RELEASE_V1.0.2/MSDK/lwip/lwip-2.1.2/src/netif\ethernet.c ****     }
 169:C:/Users/stapi/OneDrive/Desktop/GD32VW553/GD32VW55X_Wifi_BLE_SDK/GD32VW55x_RELEASE_V1.0.2/MSDK/lwip/lwip-2.1.2/src/netif\ethernet.c ****   }
 170:C:/Users/stapi/OneDrive/Desktop/GD32VW553/GD32VW55X_Wifi_BLE_SDK/GD32VW55x_RELEASE_V1.0.2/MSDK/lwip/lwip-2.1.2/src/netif\ethernet.c **** 
 171:C:/Users/stapi/OneDrive/Desktop/GD32VW553/GD32VW55X_Wifi_BLE_SDK/GD32VW55x_RELEASE_V1.0.2/MSDK/lwip/lwip-2.1.2/src/netif\ethernet.c ****   switch (type) {
 172:C:/Users/stapi/OneDrive/Desktop/GD32VW553/GD32VW55X_Wifi_BLE_SDK/GD32VW55x_RELEASE_V1.0.2/MSDK/lwip/lwip-2.1.2/src/netif\ethernet.c **** #if LWIP_IPV4 && LWIP_ARP
 173:C:/Users/stapi/OneDrive/Desktop/GD32VW553/GD32VW55X_Wifi_BLE_SDK/GD32VW55x_RELEASE_V1.0.2/MSDK/lwip/lwip-2.1.2/src/netif\ethernet.c ****     /* IP packet? */
 174:C:/Users/stapi/OneDrive/Desktop/GD32VW553/GD32VW55X_Wifi_BLE_SDK/GD32VW55x_RELEASE_V1.0.2/MSDK/lwip/lwip-2.1.2/src/netif\ethernet.c ****     case PP_HTONS(ETHTYPE_IP):
 175:C:/Users/stapi/OneDrive/Desktop/GD32VW553/GD32VW55X_Wifi_BLE_SDK/GD32VW55x_RELEASE_V1.0.2/MSDK/lwip/lwip-2.1.2/src/netif\ethernet.c ****       if (!(netif->flags & NETIF_FLAG_ETHARP)) {
 176:C:/Users/stapi/OneDrive/Desktop/GD32VW553/GD32VW55X_Wifi_BLE_SDK/GD32VW55x_RELEASE_V1.0.2/MSDK/lwip/lwip-2.1.2/src/netif\ethernet.c ****         goto free_and_return;
 177:C:/Users/stapi/OneDrive/Desktop/GD32VW553/GD32VW55X_Wifi_BLE_SDK/GD32VW55x_RELEASE_V1.0.2/MSDK/lwip/lwip-2.1.2/src/netif\ethernet.c ****       }
 178:C:/Users/stapi/OneDrive/Desktop/GD32VW553/GD32VW55X_Wifi_BLE_SDK/GD32VW55x_RELEASE_V1.0.2/MSDK/lwip/lwip-2.1.2/src/netif\ethernet.c ****       /* skip Ethernet header (min. size checked above) */
 179:C:/Users/stapi/OneDrive/Desktop/GD32VW553/GD32VW55X_Wifi_BLE_SDK/GD32VW55x_RELEASE_V1.0.2/MSDK/lwip/lwip-2.1.2/src/netif\ethernet.c ****       if (pbuf_remove_header(p, next_hdr_offset)) {
 180:C:/Users/stapi/OneDrive/Desktop/GD32VW553/GD32VW55X_Wifi_BLE_SDK/GD32VW55x_RELEASE_V1.0.2/MSDK/lwip/lwip-2.1.2/src/netif\ethernet.c ****         LWIP_DEBUGF(ETHARP_DEBUG | LWIP_DBG_TRACE | LWIP_DBG_LEVEL_WARNING,
 181:C:/Users/stapi/OneDrive/Desktop/GD32VW553/GD32VW55X_Wifi_BLE_SDK/GD32VW55x_RELEASE_V1.0.2/MSDK/lwip/lwip-2.1.2/src/netif\ethernet.c ****                     ("ethernet_input: IPv4 packet dropped, too short (%"U16_F"/%"U16_F")\n",
 182:C:/Users/stapi/OneDrive/Desktop/GD32VW553/GD32VW55X_Wifi_BLE_SDK/GD32VW55x_RELEASE_V1.0.2/MSDK/lwip/lwip-2.1.2/src/netif\ethernet.c ****                      p->tot_len, next_hdr_offset));
 183:C:/Users/stapi/OneDrive/Desktop/GD32VW553/GD32VW55X_Wifi_BLE_SDK/GD32VW55x_RELEASE_V1.0.2/MSDK/lwip/lwip-2.1.2/src/netif\ethernet.c ****         LWIP_DEBUGF(ETHARP_DEBUG | LWIP_DBG_TRACE, ("Can't move over header in packet"));
 184:C:/Users/stapi/OneDrive/Desktop/GD32VW553/GD32VW55X_Wifi_BLE_SDK/GD32VW55x_RELEASE_V1.0.2/MSDK/lwip/lwip-2.1.2/src/netif\ethernet.c ****         goto free_and_return;
 185:C:/Users/stapi/OneDrive/Desktop/GD32VW553/GD32VW55X_Wifi_BLE_SDK/GD32VW55x_RELEASE_V1.0.2/MSDK/lwip/lwip-2.1.2/src/netif\ethernet.c ****       } else {
 186:C:/Users/stapi/OneDrive/Desktop/GD32VW553/GD32VW55X_Wifi_BLE_SDK/GD32VW55x_RELEASE_V1.0.2/MSDK/lwip/lwip-2.1.2/src/netif\ethernet.c ****         /* pass to IP layer */
 187:C:/Users/stapi/OneDrive/Desktop/GD32VW553/GD32VW55X_Wifi_BLE_SDK/GD32VW55x_RELEASE_V1.0.2/MSDK/lwip/lwip-2.1.2/src/netif\ethernet.c ****         ip4_input(p, netif);
 188:C:/Users/stapi/OneDrive/Desktop/GD32VW553/GD32VW55X_Wifi_BLE_SDK/GD32VW55x_RELEASE_V1.0.2/MSDK/lwip/lwip-2.1.2/src/netif\ethernet.c ****       }
 189:C:/Users/stapi/OneDrive/Desktop/GD32VW553/GD32VW55X_Wifi_BLE_SDK/GD32VW55x_RELEASE_V1.0.2/MSDK/lwip/lwip-2.1.2/src/netif\ethernet.c ****       break;
 190:C:/Users/stapi/OneDrive/Desktop/GD32VW553/GD32VW55X_Wifi_BLE_SDK/GD32VW55x_RELEASE_V1.0.2/MSDK/lwip/lwip-2.1.2/src/netif\ethernet.c **** 
 191:C:/Users/stapi/OneDrive/Desktop/GD32VW553/GD32VW55X_Wifi_BLE_SDK/GD32VW55x_RELEASE_V1.0.2/MSDK/lwip/lwip-2.1.2/src/netif\ethernet.c ****     case PP_HTONS(ETHTYPE_ARP):
 192:C:/Users/stapi/OneDrive/Desktop/GD32VW553/GD32VW55X_Wifi_BLE_SDK/GD32VW55x_RELEASE_V1.0.2/MSDK/lwip/lwip-2.1.2/src/netif\ethernet.c ****       if (!(netif->flags & NETIF_FLAG_ETHARP)) {
 193:C:/Users/stapi/OneDrive/Desktop/GD32VW553/GD32VW55X_Wifi_BLE_SDK/GD32VW55x_RELEASE_V1.0.2/MSDK/lwip/lwip-2.1.2/src/netif\ethernet.c ****         goto free_and_return;
 194:C:/Users/stapi/OneDrive/Desktop/GD32VW553/GD32VW55X_Wifi_BLE_SDK/GD32VW55x_RELEASE_V1.0.2/MSDK/lwip/lwip-2.1.2/src/netif\ethernet.c ****       }
 195:C:/Users/stapi/OneDrive/Desktop/GD32VW553/GD32VW55X_Wifi_BLE_SDK/GD32VW55x_RELEASE_V1.0.2/MSDK/lwip/lwip-2.1.2/src/netif\ethernet.c ****       /* skip Ethernet header (min. size checked above) */
 196:C:/Users/stapi/OneDrive/Desktop/GD32VW553/GD32VW55X_Wifi_BLE_SDK/GD32VW55x_RELEASE_V1.0.2/MSDK/lwip/lwip-2.1.2/src/netif\ethernet.c ****       if (pbuf_remove_header(p, next_hdr_offset)) {
 197:C:/Users/stapi/OneDrive/Desktop/GD32VW553/GD32VW55X_Wifi_BLE_SDK/GD32VW55x_RELEASE_V1.0.2/MSDK/lwip/lwip-2.1.2/src/netif\ethernet.c ****         LWIP_DEBUGF(ETHARP_DEBUG | LWIP_DBG_TRACE | LWIP_DBG_LEVEL_WARNING,
 198:C:/Users/stapi/OneDrive/Desktop/GD32VW553/GD32VW55X_Wifi_BLE_SDK/GD32VW55x_RELEASE_V1.0.2/MSDK/lwip/lwip-2.1.2/src/netif\ethernet.c ****                     ("ethernet_input: ARP response packet dropped, too short (%"U16_F"/%"U16_F")\n"
 199:C:/Users/stapi/OneDrive/Desktop/GD32VW553/GD32VW55X_Wifi_BLE_SDK/GD32VW55x_RELEASE_V1.0.2/MSDK/lwip/lwip-2.1.2/src/netif\ethernet.c ****                      p->tot_len, next_hdr_offset));
 200:C:/Users/stapi/OneDrive/Desktop/GD32VW553/GD32VW55X_Wifi_BLE_SDK/GD32VW55x_RELEASE_V1.0.2/MSDK/lwip/lwip-2.1.2/src/netif\ethernet.c ****         LWIP_DEBUGF(ETHARP_DEBUG | LWIP_DBG_TRACE, ("Can't move over header in packet"));
 201:C:/Users/stapi/OneDrive/Desktop/GD32VW553/GD32VW55X_Wifi_BLE_SDK/GD32VW55x_RELEASE_V1.0.2/MSDK/lwip/lwip-2.1.2/src/netif\ethernet.c ****         ETHARP_STATS_INC(etharp.lenerr);
 202:C:/Users/stapi/OneDrive/Desktop/GD32VW553/GD32VW55X_Wifi_BLE_SDK/GD32VW55x_RELEASE_V1.0.2/MSDK/lwip/lwip-2.1.2/src/netif\ethernet.c ****         ETHARP_STATS_INC(etharp.drop);
 203:C:/Users/stapi/OneDrive/Desktop/GD32VW553/GD32VW55X_Wifi_BLE_SDK/GD32VW55x_RELEASE_V1.0.2/MSDK/lwip/lwip-2.1.2/src/netif\ethernet.c ****         goto free_and_return;
 204:C:/Users/stapi/OneDrive/Desktop/GD32VW553/GD32VW55X_Wifi_BLE_SDK/GD32VW55x_RELEASE_V1.0.2/MSDK/lwip/lwip-2.1.2/src/netif\ethernet.c ****       } else {
 205:C:/Users/stapi/OneDrive/Desktop/GD32VW553/GD32VW55X_Wifi_BLE_SDK/GD32VW55x_RELEASE_V1.0.2/MSDK/lwip/lwip-2.1.2/src/netif\ethernet.c ****         /* pass p to ARP module */
 206:C:/Users/stapi/OneDrive/Desktop/GD32VW553/GD32VW55X_Wifi_BLE_SDK/GD32VW55x_RELEASE_V1.0.2/MSDK/lwip/lwip-2.1.2/src/netif\ethernet.c ****         etharp_input(p, netif);
 207:C:/Users/stapi/OneDrive/Desktop/GD32VW553/GD32VW55X_Wifi_BLE_SDK/GD32VW55x_RELEASE_V1.0.2/MSDK/lwip/lwip-2.1.2/src/netif\ethernet.c ****       }
 208:C:/Users/stapi/OneDrive/Desktop/GD32VW553/GD32VW55X_Wifi_BLE_SDK/GD32VW55x_RELEASE_V1.0.2/MSDK/lwip/lwip-2.1.2/src/netif\ethernet.c ****       break;
 209:C:/Users/stapi/OneDrive/Desktop/GD32VW553/GD32VW55X_Wifi_BLE_SDK/GD32VW55x_RELEASE_V1.0.2/MSDK/lwip/lwip-2.1.2/src/netif\ethernet.c **** #endif /* LWIP_IPV4 && LWIP_ARP */
 210:C:/Users/stapi/OneDrive/Desktop/GD32VW553/GD32VW55X_Wifi_BLE_SDK/GD32VW55x_RELEASE_V1.0.2/MSDK/lwip/lwip-2.1.2/src/netif\ethernet.c **** #if PPPOE_SUPPORT
 211:C:/Users/stapi/OneDrive/Desktop/GD32VW553/GD32VW55X_Wifi_BLE_SDK/GD32VW55x_RELEASE_V1.0.2/MSDK/lwip/lwip-2.1.2/src/netif\ethernet.c ****     case PP_HTONS(ETHTYPE_PPPOEDISC): /* PPP Over Ethernet Discovery Stage */
 212:C:/Users/stapi/OneDrive/Desktop/GD32VW553/GD32VW55X_Wifi_BLE_SDK/GD32VW55x_RELEASE_V1.0.2/MSDK/lwip/lwip-2.1.2/src/netif\ethernet.c ****       pppoe_disc_input(netif, p);
 213:C:/Users/stapi/OneDrive/Desktop/GD32VW553/GD32VW55X_Wifi_BLE_SDK/GD32VW55x_RELEASE_V1.0.2/MSDK/lwip/lwip-2.1.2/src/netif\ethernet.c ****       break;
 214:C:/Users/stapi/OneDrive/Desktop/GD32VW553/GD32VW55X_Wifi_BLE_SDK/GD32VW55x_RELEASE_V1.0.2/MSDK/lwip/lwip-2.1.2/src/netif\ethernet.c **** 
 215:C:/Users/stapi/OneDrive/Desktop/GD32VW553/GD32VW55X_Wifi_BLE_SDK/GD32VW55x_RELEASE_V1.0.2/MSDK/lwip/lwip-2.1.2/src/netif\ethernet.c ****     case PP_HTONS(ETHTYPE_PPPOE): /* PPP Over Ethernet Session Stage */
 216:C:/Users/stapi/OneDrive/Desktop/GD32VW553/GD32VW55X_Wifi_BLE_SDK/GD32VW55x_RELEASE_V1.0.2/MSDK/lwip/lwip-2.1.2/src/netif\ethernet.c ****       pppoe_data_input(netif, p);
 217:C:/Users/stapi/OneDrive/Desktop/GD32VW553/GD32VW55X_Wifi_BLE_SDK/GD32VW55x_RELEASE_V1.0.2/MSDK/lwip/lwip-2.1.2/src/netif\ethernet.c ****       break;
 218:C:/Users/stapi/OneDrive/Desktop/GD32VW553/GD32VW55X_Wifi_BLE_SDK/GD32VW55x_RELEASE_V1.0.2/MSDK/lwip/lwip-2.1.2/src/netif\ethernet.c **** #endif /* PPPOE_SUPPORT */
 219:C:/Users/stapi/OneDrive/Desktop/GD32VW553/GD32VW55X_Wifi_BLE_SDK/GD32VW55x_RELEASE_V1.0.2/MSDK/lwip/lwip-2.1.2/src/netif\ethernet.c **** 
 220:C:/Users/stapi/OneDrive/Desktop/GD32VW553/GD32VW55X_Wifi_BLE_SDK/GD32VW55x_RELEASE_V1.0.2/MSDK/lwip/lwip-2.1.2/src/netif\ethernet.c **** #if LWIP_IPV6
 221:C:/Users/stapi/OneDrive/Desktop/GD32VW553/GD32VW55X_Wifi_BLE_SDK/GD32VW55x_RELEASE_V1.0.2/MSDK/lwip/lwip-2.1.2/src/netif\ethernet.c ****     case PP_HTONS(ETHTYPE_IPV6): /* IPv6 */
 222:C:/Users/stapi/OneDrive/Desktop/GD32VW553/GD32VW55X_Wifi_BLE_SDK/GD32VW55x_RELEASE_V1.0.2/MSDK/lwip/lwip-2.1.2/src/netif\ethernet.c ****       /* skip Ethernet header */
 223:C:/Users/stapi/OneDrive/Desktop/GD32VW553/GD32VW55X_Wifi_BLE_SDK/GD32VW55x_RELEASE_V1.0.2/MSDK/lwip/lwip-2.1.2/src/netif\ethernet.c ****       if ((p->len < next_hdr_offset) || pbuf_remove_header(p, next_hdr_offset)) {
 224:C:/Users/stapi/OneDrive/Desktop/GD32VW553/GD32VW55X_Wifi_BLE_SDK/GD32VW55x_RELEASE_V1.0.2/MSDK/lwip/lwip-2.1.2/src/netif\ethernet.c ****         LWIP_DEBUGF(ETHARP_DEBUG | LWIP_DBG_TRACE | LWIP_DBG_LEVEL_WARNING,
 225:C:/Users/stapi/OneDrive/Desktop/GD32VW553/GD32VW55X_Wifi_BLE_SDK/GD32VW55x_RELEASE_V1.0.2/MSDK/lwip/lwip-2.1.2/src/netif\ethernet.c ****                     ("ethernet_input: IPv6 packet dropped, too short (%"U16_F"/%"U16_F")\n",
 226:C:/Users/stapi/OneDrive/Desktop/GD32VW553/GD32VW55X_Wifi_BLE_SDK/GD32VW55x_RELEASE_V1.0.2/MSDK/lwip/lwip-2.1.2/src/netif\ethernet.c ****                      p->tot_len, next_hdr_offset));
 227:C:/Users/stapi/OneDrive/Desktop/GD32VW553/GD32VW55X_Wifi_BLE_SDK/GD32VW55x_RELEASE_V1.0.2/MSDK/lwip/lwip-2.1.2/src/netif\ethernet.c ****         goto free_and_return;
 228:C:/Users/stapi/OneDrive/Desktop/GD32VW553/GD32VW55X_Wifi_BLE_SDK/GD32VW55x_RELEASE_V1.0.2/MSDK/lwip/lwip-2.1.2/src/netif\ethernet.c **** /* FT TAG */
 229:C:/Users/stapi/OneDrive/Desktop/GD32VW553/GD32VW55X_Wifi_BLE_SDK/GD32VW55x_RELEASE_V1.0.2/MSDK/lwip/lwip-2.1.2/src/netif\ethernet.c ****       } else if (!memcmp(ethhdr->src.addr, netif->hwaddr, 6)) {
 230:C:/Users/stapi/OneDrive/Desktop/GD32VW553/GD32VW55X_Wifi_BLE_SDK/GD32VW55x_RELEASE_V1.0.2/MSDK/lwip/lwip-2.1.2/src/netif\ethernet.c ****         LWIP_DEBUGF(ETHARP_DEBUG | LWIP_DBG_TRACE | LWIP_DBG_LEVEL_WARNING,
 231:C:/Users/stapi/OneDrive/Desktop/GD32VW553/GD32VW55X_Wifi_BLE_SDK/GD32VW55x_RELEASE_V1.0.2/MSDK/lwip/lwip-2.1.2/src/netif\ethernet.c ****                     ("ethernet_input: IPv6 packet dropped, from ourselves.\n"));
 232:C:/Users/stapi/OneDrive/Desktop/GD32VW553/GD32VW55X_Wifi_BLE_SDK/GD32VW55x_RELEASE_V1.0.2/MSDK/lwip/lwip-2.1.2/src/netif\ethernet.c ****         goto free_and_return;
 233:C:/Users/stapi/OneDrive/Desktop/GD32VW553/GD32VW55X_Wifi_BLE_SDK/GD32VW55x_RELEASE_V1.0.2/MSDK/lwip/lwip-2.1.2/src/netif\ethernet.c **** /* FT TAG */
 234:C:/Users/stapi/OneDrive/Desktop/GD32VW553/GD32VW55X_Wifi_BLE_SDK/GD32VW55x_RELEASE_V1.0.2/MSDK/lwip/lwip-2.1.2/src/netif\ethernet.c ****       } else {
 235:C:/Users/stapi/OneDrive/Desktop/GD32VW553/GD32VW55X_Wifi_BLE_SDK/GD32VW55x_RELEASE_V1.0.2/MSDK/lwip/lwip-2.1.2/src/netif\ethernet.c ****         /* pass to IPv6 layer */
 236:C:/Users/stapi/OneDrive/Desktop/GD32VW553/GD32VW55X_Wifi_BLE_SDK/GD32VW55x_RELEASE_V1.0.2/MSDK/lwip/lwip-2.1.2/src/netif\ethernet.c ****         ip6_input(p, netif);
 237:C:/Users/stapi/OneDrive/Desktop/GD32VW553/GD32VW55X_Wifi_BLE_SDK/GD32VW55x_RELEASE_V1.0.2/MSDK/lwip/lwip-2.1.2/src/netif\ethernet.c ****       }
 238:C:/Users/stapi/OneDrive/Desktop/GD32VW553/GD32VW55X_Wifi_BLE_SDK/GD32VW55x_RELEASE_V1.0.2/MSDK/lwip/lwip-2.1.2/src/netif\ethernet.c ****       break;
 239:C:/Users/stapi/OneDrive/Desktop/GD32VW553/GD32VW55X_Wifi_BLE_SDK/GD32VW55x_RELEASE_V1.0.2/MSDK/lwip/lwip-2.1.2/src/netif\ethernet.c **** #endif /* LWIP_IPV6 */
 240:C:/Users/stapi/OneDrive/Desktop/GD32VW553/GD32VW55X_Wifi_BLE_SDK/GD32VW55x_RELEASE_V1.0.2/MSDK/lwip/lwip-2.1.2/src/netif\ethernet.c **** 
 241:C:/Users/stapi/OneDrive/Desktop/GD32VW553/GD32VW55X_Wifi_BLE_SDK/GD32VW55x_RELEASE_V1.0.2/MSDK/lwip/lwip-2.1.2/src/netif\ethernet.c ****     default:
 242:C:/Users/stapi/OneDrive/Desktop/GD32VW553/GD32VW55X_Wifi_BLE_SDK/GD32VW55x_RELEASE_V1.0.2/MSDK/lwip/lwip-2.1.2/src/netif\ethernet.c **** #ifdef LWIP_HOOK_UNKNOWN_ETH_PROTOCOL
 243:C:/Users/stapi/OneDrive/Desktop/GD32VW553/GD32VW55X_Wifi_BLE_SDK/GD32VW55x_RELEASE_V1.0.2/MSDK/lwip/lwip-2.1.2/src/netif\ethernet.c ****       if (LWIP_HOOK_UNKNOWN_ETH_PROTOCOL(p, netif) == ERR_OK) {
 244:C:/Users/stapi/OneDrive/Desktop/GD32VW553/GD32VW55X_Wifi_BLE_SDK/GD32VW55x_RELEASE_V1.0.2/MSDK/lwip/lwip-2.1.2/src/netif\ethernet.c ****         break;
 245:C:/Users/stapi/OneDrive/Desktop/GD32VW553/GD32VW55X_Wifi_BLE_SDK/GD32VW55x_RELEASE_V1.0.2/MSDK/lwip/lwip-2.1.2/src/netif\ethernet.c ****       }
 246:C:/Users/stapi/OneDrive/Desktop/GD32VW553/GD32VW55X_Wifi_BLE_SDK/GD32VW55x_RELEASE_V1.0.2/MSDK/lwip/lwip-2.1.2/src/netif\ethernet.c **** #endif
 247:C:/Users/stapi/OneDrive/Desktop/GD32VW553/GD32VW55X_Wifi_BLE_SDK/GD32VW55x_RELEASE_V1.0.2/MSDK/lwip/lwip-2.1.2/src/netif\ethernet.c ****       ETHARP_STATS_INC(etharp.proterr);
 248:C:/Users/stapi/OneDrive/Desktop/GD32VW553/GD32VW55X_Wifi_BLE_SDK/GD32VW55x_RELEASE_V1.0.2/MSDK/lwip/lwip-2.1.2/src/netif\ethernet.c ****       ETHARP_STATS_INC(etharp.drop);
 249:C:/Users/stapi/OneDrive/Desktop/GD32VW553/GD32VW55X_Wifi_BLE_SDK/GD32VW55x_RELEASE_V1.0.2/MSDK/lwip/lwip-2.1.2/src/netif\ethernet.c ****       MIB2_STATS_NETIF_INC(netif, ifinunknownprotos);
 250:C:/Users/stapi/OneDrive/Desktop/GD32VW553/GD32VW55X_Wifi_BLE_SDK/GD32VW55x_RELEASE_V1.0.2/MSDK/lwip/lwip-2.1.2/src/netif\ethernet.c ****       goto free_and_return;
 251:C:/Users/stapi/OneDrive/Desktop/GD32VW553/GD32VW55X_Wifi_BLE_SDK/GD32VW55x_RELEASE_V1.0.2/MSDK/lwip/lwip-2.1.2/src/netif\ethernet.c ****   }
 252:C:/Users/stapi/OneDrive/Desktop/GD32VW553/GD32VW55X_Wifi_BLE_SDK/GD32VW55x_RELEASE_V1.0.2/MSDK/lwip/lwip-2.1.2/src/netif\ethernet.c **** 
 253:C:/Users/stapi/OneDrive/Desktop/GD32VW553/GD32VW55X_Wifi_BLE_SDK/GD32VW55x_RELEASE_V1.0.2/MSDK/lwip/lwip-2.1.2/src/netif\ethernet.c ****   /* This means the pbuf is freed or consumed,
 254:C:/Users/stapi/OneDrive/Desktop/GD32VW553/GD32VW55X_Wifi_BLE_SDK/GD32VW55x_RELEASE_V1.0.2/MSDK/lwip/lwip-2.1.2/src/netif\ethernet.c ****      so the caller doesn't have to free it again */
 255:C:/Users/stapi/OneDrive/Desktop/GD32VW553/GD32VW55X_Wifi_BLE_SDK/GD32VW55x_RELEASE_V1.0.2/MSDK/lwip/lwip-2.1.2/src/netif\ethernet.c ****   return ERR_OK;
 256:C:/Users/stapi/OneDrive/Desktop/GD32VW553/GD32VW55X_Wifi_BLE_SDK/GD32VW55x_RELEASE_V1.0.2/MSDK/lwip/lwip-2.1.2/src/netif\ethernet.c **** 
 257:C:/Users/stapi/OneDrive/Desktop/GD32VW553/GD32VW55X_Wifi_BLE_SDK/GD32VW55x_RELEASE_V1.0.2/MSDK/lwip/lwip-2.1.2/src/netif\ethernet.c **** free_and_return:
 258:C:/Users/stapi/OneDrive/Desktop/GD32VW553/GD32VW55X_Wifi_BLE_SDK/GD32VW55x_RELEASE_V1.0.2/MSDK/lwip/lwip-2.1.2/src/netif\ethernet.c ****   pbuf_free(p);
  41              		.loc 1 258 3 is_stmt 1
  42 0014 2285     		mv	a0,s0
  43 0016 97000000 		call	pbuf_free
  43      E7800000 
  44              	.LVL3:
 259:C:/Users/stapi/OneDrive/Desktop/GD32VW553/GD32VW55X_Wifi_BLE_SDK/GD32VW55x_RELEASE_V1.0.2/MSDK/lwip/lwip-2.1.2/src/netif\ethernet.c ****   return ERR_OK;
  45              		.loc 1 259 3
  46              	.L3:
 260:C:/Users/stapi/OneDrive/Desktop/GD32VW553/GD32VW55X_Wifi_BLE_SDK/GD32VW55x_RELEASE_V1.0.2/MSDK/lwip/lwip-2.1.2/src/netif\ethernet.c **** }
  47              		.loc 1 260 1 is_stmt 0
  48 001e 0145     		li	a0,0
  49 0020 17030000 		tail	__riscv_restore_3
  49      67000300 
  50              		.cfi_remember_state
  51              		.cfi_restore 18
  52              		.cfi_restore 9
  53              		.cfi_restore 8
  54              		.cfi_restore 1
  55              		.cfi_def_cfa_offset 0
  56              	.LVL4:
  57              	.L2:
  58              		.cfi_restore_state
 100:C:/Users/stapi/OneDrive/Desktop/GD32VW553/GD32VW55X_Wifi_BLE_SDK/GD32VW55x_RELEASE_V1.0.2/MSDK/lwip/lwip-2.1.2/src/netif\ethernet.c ****     p->if_idx = netif_get_index(netif);
  59              		.loc 1 100 6
  60 0028 8347F500 		lbu	a5,15(a0)
  61 002c AE84     		mv	s1,a1
 100:C:/Users/stapi/OneDrive/Desktop/GD32VW553/GD32VW55X_Wifi_BLE_SDK/GD32VW55x_RELEASE_V1.0.2/MSDK/lwip/lwip-2.1.2/src/netif\ethernet.c ****     p->if_idx = netif_get_index(netif);
  62              		.loc 1 100 3 is_stmt 1
 100:C:/Users/stapi/OneDrive/Desktop/GD32VW553/GD32VW55X_Wifi_BLE_SDK/GD32VW55x_RELEASE_V1.0.2/MSDK/lwip/lwip-2.1.2/src/netif\ethernet.c ****     p->if_idx = netif_get_index(netif);
  63              		.loc 1 100 6 is_stmt 0
  64 002e 91E7     		bne	a5,zero,.L4
  65              	.LVL5:
 101:C:/Users/stapi/OneDrive/Desktop/GD32VW553/GD32VW55X_Wifi_BLE_SDK/GD32VW55x_RELEASE_V1.0.2/MSDK/lwip/lwip-2.1.2/src/netif\ethernet.c ****   }
  66              		.loc 1 101 5 is_stmt 1
 101:C:/Users/stapi/OneDrive/Desktop/GD32VW553/GD32VW55X_Wifi_BLE_SDK/GD32VW55x_RELEASE_V1.0.2/MSDK/lwip/lwip-2.1.2/src/netif\ethernet.c ****   }
  67              		.loc 1 101 17 is_stmt 0
  68 0030 83C74503 		lbu	a5,52(a1)
  69 0034 8507     		addi	a5,a5,1
 101:C:/Users/stapi/OneDrive/Desktop/GD32VW553/GD32VW55X_Wifi_BLE_SDK/GD32VW55x_RELEASE_V1.0.2/MSDK/lwip/lwip-2.1.2/src/netif\ethernet.c ****   }
  70              		.loc 1 101 15
  71 0036 A307F500 		sb	a5,15(a0)
  72              	.L4:
 105:C:/Users/stapi/OneDrive/Desktop/GD32VW553/GD32VW55X_Wifi_BLE_SDK/GD32VW55x_RELEASE_V1.0.2/MSDK/lwip/lwip-2.1.2/src/netif\ethernet.c ****   LWIP_DEBUGF(ETHARP_DEBUG | LWIP_DBG_TRACE,
  73              		.loc 1 105 3 is_stmt 1
 105:C:/Users/stapi/OneDrive/Desktop/GD32VW553/GD32VW55X_Wifi_BLE_SDK/GD32VW55x_RELEASE_V1.0.2/MSDK/lwip/lwip-2.1.2/src/netif\ethernet.c ****   LWIP_DEBUGF(ETHARP_DEBUG | LWIP_DBG_TRACE,
  74              		.loc 1 105 10 is_stmt 0
  75 003a 4840     		lw	a0,4(s0)
  76              	.LVL6:
 112:C:/Users/stapi/OneDrive/Desktop/GD32VW553/GD32VW55X_Wifi_BLE_SDK/GD32VW55x_RELEASE_V1.0.2/MSDK/lwip/lwip-2.1.2/src/netif\ethernet.c **** 
  77              		.loc 1 112 42 is_stmt 1
 114:C:/Users/stapi/OneDrive/Desktop/GD32VW553/GD32VW55X_Wifi_BLE_SDK/GD32VW55x_RELEASE_V1.0.2/MSDK/lwip/lwip-2.1.2/src/netif\ethernet.c **** #if ETHARP_SUPPORT_VLAN
  78              		.loc 1 114 3
 114:C:/Users/stapi/OneDrive/Desktop/GD32VW553/GD32VW55X_Wifi_BLE_SDK/GD32VW55x_RELEASE_V1.0.2/MSDK/lwip/lwip-2.1.2/src/netif\ethernet.c **** #if ETHARP_SUPPORT_VLAN
  79              		.loc 1 114 8 is_stmt 0
  80 003c 0349D500 		lbu	s2,13(a0)
  81 0040 8347C500 		lbu	a5,12(a0)
  82 0044 2209     		slli	s2,s2,8
  83 0046 3369F900 		or	s2,s2,a5
  84              	.LVL7:
 147:C:/Users/stapi/OneDrive/Desktop/GD32VW553/GD32VW55X_Wifi_BLE_SDK/GD32VW55x_RELEASE_V1.0.2/MSDK/lwip/lwip-2.1.2/src/netif\ethernet.c ****     /* this might be a multicast or broadcast packet */
  85              		.loc 1 147 3 is_stmt 1
 147:C:/Users/stapi/OneDrive/Desktop/GD32VW553/GD32VW55X_Wifi_BLE_SDK/GD32VW55x_RELEASE_V1.0.2/MSDK/lwip/lwip-2.1.2/src/netif\ethernet.c ****     /* this might be a multicast or broadcast packet */
  86              		.loc 1 147 24 is_stmt 0
  87 004a 83470500 		lbu	a5,0(a0)
 147:C:/Users/stapi/OneDrive/Desktop/GD32VW553/GD32VW55X_Wifi_BLE_SDK/GD32VW55x_RELEASE_V1.0.2/MSDK/lwip/lwip-2.1.2/src/netif\ethernet.c ****     /* this might be a multicast or broadcast packet */
  88              		.loc 1 147 6
  89 004e 13F71700 		andi	a4,a5,1
  90 0052 1DC3     		beq	a4,zero,.L5
 149:C:/Users/stapi/OneDrive/Desktop/GD32VW553/GD32VW55X_Wifi_BLE_SDK/GD32VW55x_RELEASE_V1.0.2/MSDK/lwip/lwip-2.1.2/src/netif\ethernet.c **** #if LWIP_IPV4
  91              		.loc 1 149 5 is_stmt 1
 149:C:/Users/stapi/OneDrive/Desktop/GD32VW553/GD32VW55X_Wifi_BLE_SDK/GD32VW55x_RELEASE_V1.0.2/MSDK/lwip/lwip-2.1.2/src/netif\ethernet.c **** #if LWIP_IPV4
  92              		.loc 1 149 8 is_stmt 0
  93 0054 0547     		li	a4,1
  94 0056 6390E704 		bne	a5,a4,.L6
 151:C:/Users/stapi/OneDrive/Desktop/GD32VW553/GD32VW55X_Wifi_BLE_SDK/GD32VW55x_RELEASE_V1.0.2/MSDK/lwip/lwip-2.1.2/src/netif\ethernet.c ****           (ethhdr->dest.addr[2] == LL_IP4_MULTICAST_ADDR_2)) {
  95              		.loc 1 151 7 is_stmt 1
 151:C:/Users/stapi/OneDrive/Desktop/GD32VW553/GD32VW55X_Wifi_BLE_SDK/GD32VW55x_RELEASE_V1.0.2/MSDK/lwip/lwip-2.1.2/src/netif\ethernet.c ****           (ethhdr->dest.addr[2] == LL_IP4_MULTICAST_ADDR_2)) {
  96              		.loc 1 151 10 is_stmt 0
  97 005a 83471500 		lbu	a5,1(a0)
  98 005e 89EF     		bne	a5,zero,.L5
 151:C:/Users/stapi/OneDrive/Desktop/GD32VW553/GD32VW55X_Wifi_BLE_SDK/GD32VW55x_RELEASE_V1.0.2/MSDK/lwip/lwip-2.1.2/src/netif\ethernet.c ****           (ethhdr->dest.addr[2] == LL_IP4_MULTICAST_ADDR_2)) {
  99              		.loc 1 151 61 discriminator 1
 100 0060 03472500 		lbu	a4,2(a0)
 101 0064 9307E005 		li	a5,94
 102 0068 6318F700 		bne	a4,a5,.L5
 154:C:/Users/stapi/OneDrive/Desktop/GD32VW553/GD32VW55X_Wifi_BLE_SDK/GD32VW55x_RELEASE_V1.0.2/MSDK/lwip/lwip-2.1.2/src/netif\ethernet.c ****       }
 103              		.loc 1 154 9 is_stmt 1
 154:C:/Users/stapi/OneDrive/Desktop/GD32VW553/GD32VW55X_Wifi_BLE_SDK/GD32VW55x_RELEASE_V1.0.2/MSDK/lwip/lwip-2.1.2/src/netif\ethernet.c ****       }
 104              		.loc 1 154 18 is_stmt 0
 105 006c 8347D400 		lbu	a5,13(s0)
 106 0070 93E70701 		ori	a5,a5,16
 107              	.LVL8:
 108              	.L22:
 167:C:/Users/stapi/OneDrive/Desktop/GD32VW553/GD32VW55X_Wifi_BLE_SDK/GD32VW55x_RELEASE_V1.0.2/MSDK/lwip/lwip-2.1.2/src/netif\ethernet.c ****     }
 109              		.loc 1 167 16
 110 0074 A306F400 		sb	a5,13(s0)
 111              	.L5:
 171:C:/Users/stapi/OneDrive/Desktop/GD32VW553/GD32VW55X_Wifi_BLE_SDK/GD32VW55x_RELEASE_V1.0.2/MSDK/lwip/lwip-2.1.2/src/netif\ethernet.c **** #if LWIP_IPV4 && LWIP_ARP
 112              		.loc 1 171 3 is_stmt 1
 113 0078 A147     		li	a5,8
 114 007a 630DF902 		beq	s2,a5,.L7
 115 007e 93078060 		li	a5,1544
 116 0082 630BF904 		beq	s2,a5,.L8
 243:C:/Users/stapi/OneDrive/Desktop/GD32VW553/GD32VW55X_Wifi_BLE_SDK/GD32VW55x_RELEASE_V1.0.2/MSDK/lwip/lwip-2.1.2/src/netif\ethernet.c ****         break;
 117              		.loc 1 243 7
 243:C:/Users/stapi/OneDrive/Desktop/GD32VW553/GD32VW55X_Wifi_BLE_SDK/GD32VW55x_RELEASE_V1.0.2/MSDK/lwip/lwip-2.1.2/src/netif\ethernet.c ****         break;
 118              		.loc 1 243 11 is_stmt 0
 119 0086 A685     		mv	a1,s1
 120 0088 2285     		mv	a0,s0
 121 008a 97000000 		call	net_eth_receive
 121      E7800000 
 122              	.LVL9:
 243:C:/Users/stapi/OneDrive/Desktop/GD32VW553/GD32VW55X_Wifi_BLE_SDK/GD32VW55x_RELEASE_V1.0.2/MSDK/lwip/lwip-2.1.2/src/netif\ethernet.c ****         break;
 123              		.loc 1 243 10
 124 0092 51D5     		beq	a0,zero,.L3
 125 0094 41B7     		j	.L10
 126              	.LVL10:
 127              	.L6:
 165:C:/Users/stapi/OneDrive/Desktop/GD32VW553/GD32VW55X_Wifi_BLE_SDK/GD32VW55x_RELEASE_V1.0.2/MSDK/lwip/lwip-2.1.2/src/netif\ethernet.c ****       /* mark the pbuf as link-layer broadcast */
 128              		.loc 1 165 10 is_stmt 1
 165:C:/Users/stapi/OneDrive/Desktop/GD32VW553/GD32VW55X_Wifi_BLE_SDK/GD32VW55x_RELEASE_V1.0.2/MSDK/lwip/lwip-2.1.2/src/netif\ethernet.c ****       /* mark the pbuf as link-layer broadcast */
 129              		.loc 1 165 14 is_stmt 0
 130 0096 B7050000 		lui	a1,%hi(.LANCHOR0)
 131 009a 1946     		li	a2,6
 132 009c 93850500 		addi	a1,a1,%lo(.LANCHOR0)
 133 00a0 97000000 		call	memcmp
 133      E7800000 
 134              	.LVL11:
 165:C:/Users/stapi/OneDrive/Desktop/GD32VW553/GD32VW55X_Wifi_BLE_SDK/GD32VW55x_RELEASE_V1.0.2/MSDK/lwip/lwip-2.1.2/src/netif\ethernet.c ****       /* mark the pbuf as link-layer broadcast */
 135              		.loc 1 165 13
 136 00a8 61F9     		bne	a0,zero,.L5
 167:C:/Users/stapi/OneDrive/Desktop/GD32VW553/GD32VW55X_Wifi_BLE_SDK/GD32VW55x_RELEASE_V1.0.2/MSDK/lwip/lwip-2.1.2/src/netif\ethernet.c ****     }
 137              		.loc 1 167 7 is_stmt 1
 167:C:/Users/stapi/OneDrive/Desktop/GD32VW553/GD32VW55X_Wifi_BLE_SDK/GD32VW55x_RELEASE_V1.0.2/MSDK/lwip/lwip-2.1.2/src/netif\ethernet.c ****     }
 138              		.loc 1 167 16 is_stmt 0
 139 00aa 8347D400 		lbu	a5,13(s0)
 140 00ae 93E78700 		ori	a5,a5,8
 141 00b2 C9B7     		j	.L22
 142              	.L7:
 175:C:/Users/stapi/OneDrive/Desktop/GD32VW553/GD32VW55X_Wifi_BLE_SDK/GD32VW55x_RELEASE_V1.0.2/MSDK/lwip/lwip-2.1.2/src/netif\ethernet.c ****         goto free_and_return;
 143              		.loc 1 175 7 is_stmt 1
 175:C:/Users/stapi/OneDrive/Desktop/GD32VW553/GD32VW55X_Wifi_BLE_SDK/GD32VW55x_RELEASE_V1.0.2/MSDK/lwip/lwip-2.1.2/src/netif\ethernet.c ****         goto free_and_return;
 144              		.loc 1 175 10 is_stmt 0
 145 00b4 83C71403 		lbu	a5,49(s1)
 146 00b8 A18B     		andi	a5,a5,8
 147 00ba A9DF     		beq	a5,zero,.L10
 179:C:/Users/stapi/OneDrive/Desktop/GD32VW553/GD32VW55X_Wifi_BLE_SDK/GD32VW55x_RELEASE_V1.0.2/MSDK/lwip/lwip-2.1.2/src/netif\ethernet.c ****         LWIP_DEBUGF(ETHARP_DEBUG | LWIP_DBG_TRACE | LWIP_DBG_LEVEL_WARNING,
 148              		.loc 1 179 7 is_stmt 1
 179:C:/Users/stapi/OneDrive/Desktop/GD32VW553/GD32VW55X_Wifi_BLE_SDK/GD32VW55x_RELEASE_V1.0.2/MSDK/lwip/lwip-2.1.2/src/netif\ethernet.c ****         LWIP_DEBUGF(ETHARP_DEBUG | LWIP_DBG_TRACE | LWIP_DBG_LEVEL_WARNING,
 149              		.loc 1 179 11 is_stmt 0
 150 00bc B945     		li	a1,14
 151 00be 2285     		mv	a0,s0
 152 00c0 97000000 		call	pbuf_remove_header
 152      E7800000 
 153              	.LVL12:
 179:C:/Users/stapi/OneDrive/Desktop/GD32VW553/GD32VW55X_Wifi_BLE_SDK/GD32VW55x_RELEASE_V1.0.2/MSDK/lwip/lwip-2.1.2/src/netif\ethernet.c ****         LWIP_DEBUGF(ETHARP_DEBUG | LWIP_DBG_TRACE | LWIP_DBG_LEVEL_WARNING,
 154              		.loc 1 179 10
 155 00c8 31F5     		bne	a0,zero,.L10
 187:C:/Users/stapi/OneDrive/Desktop/GD32VW553/GD32VW55X_Wifi_BLE_SDK/GD32VW55x_RELEASE_V1.0.2/MSDK/lwip/lwip-2.1.2/src/netif\ethernet.c ****       }
 156              		.loc 1 187 9 is_stmt 1
 157 00ca A685     		mv	a1,s1
 158 00cc 2285     		mv	a0,s0
 159 00ce 97000000 		call	ip4_input
 159      E7800000 
 160              	.LVL13:
 189:C:/Users/stapi/OneDrive/Desktop/GD32VW553/GD32VW55X_Wifi_BLE_SDK/GD32VW55x_RELEASE_V1.0.2/MSDK/lwip/lwip-2.1.2/src/netif\ethernet.c **** 
 161              		.loc 1 189 7
 162 00d6 A1B7     		j	.L3
 163              	.L8:
 192:C:/Users/stapi/OneDrive/Desktop/GD32VW553/GD32VW55X_Wifi_BLE_SDK/GD32VW55x_RELEASE_V1.0.2/MSDK/lwip/lwip-2.1.2/src/netif\ethernet.c ****         goto free_and_return;
 164              		.loc 1 192 7
 192:C:/Users/stapi/OneDrive/Desktop/GD32VW553/GD32VW55X_Wifi_BLE_SDK/GD32VW55x_RELEASE_V1.0.2/MSDK/lwip/lwip-2.1.2/src/netif\ethernet.c ****         goto free_and_return;
 165              		.loc 1 192 10 is_stmt 0
 166 00d8 83C71403 		lbu	a5,49(s1)
 167 00dc A18B     		andi	a5,a5,8
 168 00de 9DDB     		beq	a5,zero,.L10
 196:C:/Users/stapi/OneDrive/Desktop/GD32VW553/GD32VW55X_Wifi_BLE_SDK/GD32VW55x_RELEASE_V1.0.2/MSDK/lwip/lwip-2.1.2/src/netif\ethernet.c ****         LWIP_DEBUGF(ETHARP_DEBUG | LWIP_DBG_TRACE | LWIP_DBG_LEVEL_WARNING,
 169              		.loc 1 196 7 is_stmt 1
 196:C:/Users/stapi/OneDrive/Desktop/GD32VW553/GD32VW55X_Wifi_BLE_SDK/GD32VW55x_RELEASE_V1.0.2/MSDK/lwip/lwip-2.1.2/src/netif\ethernet.c ****         LWIP_DEBUGF(ETHARP_DEBUG | LWIP_DBG_TRACE | LWIP_DBG_LEVEL_WARNING,
 170              		.loc 1 196 11 is_stmt 0
 171 00e0 B945     		li	a1,14
 172 00e2 2285     		mv	a0,s0
 173 00e4 97000000 		call	pbuf_remove_header
 173      E7800000 
 174              	.LVL14:
 196:C:/Users/stapi/OneDrive/Desktop/GD32VW553/GD32VW55X_Wifi_BLE_SDK/GD32VW55x_RELEASE_V1.0.2/MSDK/lwip/lwip-2.1.2/src/netif\ethernet.c ****         LWIP_DEBUGF(ETHARP_DEBUG | LWIP_DBG_TRACE | LWIP_DBG_LEVEL_WARNING,
 175              		.loc 1 196 10
 176 00ec 05F5     		bne	a0,zero,.L10
 206:C:/Users/stapi/OneDrive/Desktop/GD32VW553/GD32VW55X_Wifi_BLE_SDK/GD32VW55x_RELEASE_V1.0.2/MSDK/lwip/lwip-2.1.2/src/netif\ethernet.c ****       }
 177              		.loc 1 206 9 is_stmt 1
 178 00ee A685     		mv	a1,s1
 179 00f0 2285     		mv	a0,s0
 180 00f2 97000000 		call	etharp_input
 180      E7800000 
 181              	.LVL15:
 208:C:/Users/stapi/OneDrive/Desktop/GD32VW553/GD32VW55X_Wifi_BLE_SDK/GD32VW55x_RELEASE_V1.0.2/MSDK/lwip/lwip-2.1.2/src/netif\ethernet.c **** #endif /* LWIP_IPV4 && LWIP_ARP */
 182              		.loc 1 208 7
 183 00fa 15B7     		j	.L3
 184              		.cfi_endproc
 185              	.LFE4:
 187              		.section	.rodata.ethernet_output.str1.4,"aMS",@progbits,1
 188              		.align	2
 189              	.LC0:
 190 0000 433A2F55 		.string	"C:/Users/stapi/OneDrive/Desktop/GD32VW553/GD32VW55X_Wifi_BLE_SDK/GD32VW55x_RELEASE_V1.0.2
 190      73657273 
 190      2F737461 
 190      70692F4F 
 190      6E654472 
 191              		.align	2
 192              	.LC1:
 193 0084 6E657469 		.string	"netif->hwaddr_len must be 6 for ethernet_output!"
 193      662D3E68 
 193      77616464 
 193      725F6C65 
 193      6E206D75 
 194 00b5 000000   		.align	2
 195              	.LC2:
 196 00b8 41737365 		.string	"Assertion \"%s\" failed at line %d in %s\n"
 196      7274696F 
 196      6E202225 
 196      73222066 
 196      61696C65 
 197              		.section	.text.ethernet_output,"ax",@progbits
 198              		.align	1
 199              		.globl	ethernet_output
 201              	ethernet_output:
 202              	.LFB5:
 261:C:/Users/stapi/OneDrive/Desktop/GD32VW553/GD32VW55X_Wifi_BLE_SDK/GD32VW55x_RELEASE_V1.0.2/MSDK/lwip/lwip-2.1.2/src/netif\ethernet.c **** 
 262:C:/Users/stapi/OneDrive/Desktop/GD32VW553/GD32VW55X_Wifi_BLE_SDK/GD32VW55x_RELEASE_V1.0.2/MSDK/lwip/lwip-2.1.2/src/netif\ethernet.c **** /**
 263:C:/Users/stapi/OneDrive/Desktop/GD32VW553/GD32VW55X_Wifi_BLE_SDK/GD32VW55x_RELEASE_V1.0.2/MSDK/lwip/lwip-2.1.2/src/netif\ethernet.c ****  * @ingroup ethernet
 264:C:/Users/stapi/OneDrive/Desktop/GD32VW553/GD32VW55X_Wifi_BLE_SDK/GD32VW55x_RELEASE_V1.0.2/MSDK/lwip/lwip-2.1.2/src/netif\ethernet.c ****  * Send an ethernet packet on the network using netif->linkoutput().
 265:C:/Users/stapi/OneDrive/Desktop/GD32VW553/GD32VW55X_Wifi_BLE_SDK/GD32VW55x_RELEASE_V1.0.2/MSDK/lwip/lwip-2.1.2/src/netif\ethernet.c ****  * The ethernet header is filled in before sending.
 266:C:/Users/stapi/OneDrive/Desktop/GD32VW553/GD32VW55X_Wifi_BLE_SDK/GD32VW55x_RELEASE_V1.0.2/MSDK/lwip/lwip-2.1.2/src/netif\ethernet.c ****  *
 267:C:/Users/stapi/OneDrive/Desktop/GD32VW553/GD32VW55X_Wifi_BLE_SDK/GD32VW55x_RELEASE_V1.0.2/MSDK/lwip/lwip-2.1.2/src/netif\ethernet.c ****  * @see LWIP_HOOK_VLAN_SET
 268:C:/Users/stapi/OneDrive/Desktop/GD32VW553/GD32VW55X_Wifi_BLE_SDK/GD32VW55x_RELEASE_V1.0.2/MSDK/lwip/lwip-2.1.2/src/netif\ethernet.c ****  *
 269:C:/Users/stapi/OneDrive/Desktop/GD32VW553/GD32VW55X_Wifi_BLE_SDK/GD32VW55x_RELEASE_V1.0.2/MSDK/lwip/lwip-2.1.2/src/netif\ethernet.c ****  * @param netif the lwIP network interface on which to send the packet
 270:C:/Users/stapi/OneDrive/Desktop/GD32VW553/GD32VW55X_Wifi_BLE_SDK/GD32VW55x_RELEASE_V1.0.2/MSDK/lwip/lwip-2.1.2/src/netif\ethernet.c ****  * @param p the packet to send. pbuf layer must be @ref PBUF_LINK.
 271:C:/Users/stapi/OneDrive/Desktop/GD32VW553/GD32VW55X_Wifi_BLE_SDK/GD32VW55x_RELEASE_V1.0.2/MSDK/lwip/lwip-2.1.2/src/netif\ethernet.c ****  * @param src the source MAC address to be copied into the ethernet header
 272:C:/Users/stapi/OneDrive/Desktop/GD32VW553/GD32VW55X_Wifi_BLE_SDK/GD32VW55x_RELEASE_V1.0.2/MSDK/lwip/lwip-2.1.2/src/netif\ethernet.c ****  * @param dst the destination MAC address to be copied into the ethernet header
 273:C:/Users/stapi/OneDrive/Desktop/GD32VW553/GD32VW55X_Wifi_BLE_SDK/GD32VW55x_RELEASE_V1.0.2/MSDK/lwip/lwip-2.1.2/src/netif\ethernet.c ****  * @param eth_type ethernet type (@ref lwip_ieee_eth_type)
 274:C:/Users/stapi/OneDrive/Desktop/GD32VW553/GD32VW55X_Wifi_BLE_SDK/GD32VW55x_RELEASE_V1.0.2/MSDK/lwip/lwip-2.1.2/src/netif\ethernet.c ****  * @return ERR_OK if the packet was sent, any other err_t on failure
 275:C:/Users/stapi/OneDrive/Desktop/GD32VW553/GD32VW55X_Wifi_BLE_SDK/GD32VW55x_RELEASE_V1.0.2/MSDK/lwip/lwip-2.1.2/src/netif\ethernet.c ****  */
 276:C:/Users/stapi/OneDrive/Desktop/GD32VW553/GD32VW55X_Wifi_BLE_SDK/GD32VW55x_RELEASE_V1.0.2/MSDK/lwip/lwip-2.1.2/src/netif\ethernet.c **** err_t
 277:C:/Users/stapi/OneDrive/Desktop/GD32VW553/GD32VW55X_Wifi_BLE_SDK/GD32VW55x_RELEASE_V1.0.2/MSDK/lwip/lwip-2.1.2/src/netif\ethernet.c **** ethernet_output(struct netif * netif, struct pbuf * p,
 278:C:/Users/stapi/OneDrive/Desktop/GD32VW553/GD32VW55X_Wifi_BLE_SDK/GD32VW55x_RELEASE_V1.0.2/MSDK/lwip/lwip-2.1.2/src/netif\ethernet.c ****                 const struct eth_addr * src, const struct eth_addr * dst,
 279:C:/Users/stapi/OneDrive/Desktop/GD32VW553/GD32VW55X_Wifi_BLE_SDK/GD32VW55x_RELEASE_V1.0.2/MSDK/lwip/lwip-2.1.2/src/netif\ethernet.c ****                 u16_t eth_type) {
 203              		.loc 1 279 33
 204              		.cfi_startproc
 205              	.LVL16:
 206 0000 17030000 		call	t0,__riscv_save_5
 206      E7020300 
 207              		.cfi_offset 20, -24
 208              		.cfi_offset 19, -20
 209              		.cfi_offset 18, -16
 210              		.cfi_offset 9, -12
 211              		.cfi_offset 8, -8
 212              		.cfi_offset 1, -4
 213              		.cfi_def_cfa_offset 32
 280:C:/Users/stapi/OneDrive/Desktop/GD32VW553/GD32VW55X_Wifi_BLE_SDK/GD32VW55x_RELEASE_V1.0.2/MSDK/lwip/lwip-2.1.2/src/netif\ethernet.c ****   struct eth_hdr *ethhdr;
 214              		.loc 1 280 3
 281:C:/Users/stapi/OneDrive/Desktop/GD32VW553/GD32VW55X_Wifi_BLE_SDK/GD32VW55x_RELEASE_V1.0.2/MSDK/lwip/lwip-2.1.2/src/netif\ethernet.c ****   u16_t eth_type_be = lwip_htons(eth_type);
 215              		.loc 1 281 3
 279:C:/Users/stapi/OneDrive/Desktop/GD32VW553/GD32VW55X_Wifi_BLE_SDK/GD32VW55x_RELEASE_V1.0.2/MSDK/lwip/lwip-2.1.2/src/netif\ethernet.c ****   struct eth_hdr *ethhdr;
 216              		.loc 1 279 33 is_stmt 0
 217 0008 AA84     		mv	s1,a0
 218              		.loc 1 281 23
 219 000a 3A85     		mv	a0,a4
 220              	.LVL17:
 279:C:/Users/stapi/OneDrive/Desktop/GD32VW553/GD32VW55X_Wifi_BLE_SDK/GD32VW55x_RELEASE_V1.0.2/MSDK/lwip/lwip-2.1.2/src/netif\ethernet.c ****   struct eth_hdr *ethhdr;
 221              		.loc 1 279 33
 222 000c 2E89     		mv	s2,a1
 223 000e B289     		mv	s3,a2
 224 0010 368A     		mv	s4,a3
 225              		.loc 1 281 23
 226 0012 97000000 		call	lwip_htons
 226      E7800000 
 227              	.LVL18:
 228 001a 2A84     		mv	s0,a0
 229              	.LVL19:
 282:C:/Users/stapi/OneDrive/Desktop/GD32VW553/GD32VW55X_Wifi_BLE_SDK/GD32VW55x_RELEASE_V1.0.2/MSDK/lwip/lwip-2.1.2/src/netif\ethernet.c **** 
 283:C:/Users/stapi/OneDrive/Desktop/GD32VW553/GD32VW55X_Wifi_BLE_SDK/GD32VW55x_RELEASE_V1.0.2/MSDK/lwip/lwip-2.1.2/src/netif\ethernet.c **** #if ETHARP_SUPPORT_VLAN && defined(LWIP_HOOK_VLAN_SET)
 284:C:/Users/stapi/OneDrive/Desktop/GD32VW553/GD32VW55X_Wifi_BLE_SDK/GD32VW55x_RELEASE_V1.0.2/MSDK/lwip/lwip-2.1.2/src/netif\ethernet.c ****   s32_t vlan_prio_vid = LWIP_HOOK_VLAN_SET(netif, p, src, dst, eth_type);
 285:C:/Users/stapi/OneDrive/Desktop/GD32VW553/GD32VW55X_Wifi_BLE_SDK/GD32VW55x_RELEASE_V1.0.2/MSDK/lwip/lwip-2.1.2/src/netif\ethernet.c ****   if (vlan_prio_vid >= 0) {
 286:C:/Users/stapi/OneDrive/Desktop/GD32VW553/GD32VW55X_Wifi_BLE_SDK/GD32VW55x_RELEASE_V1.0.2/MSDK/lwip/lwip-2.1.2/src/netif\ethernet.c ****     struct eth_vlan_hdr *vlanhdr;
 287:C:/Users/stapi/OneDrive/Desktop/GD32VW553/GD32VW55X_Wifi_BLE_SDK/GD32VW55x_RELEASE_V1.0.2/MSDK/lwip/lwip-2.1.2/src/netif\ethernet.c **** 
 288:C:/Users/stapi/OneDrive/Desktop/GD32VW553/GD32VW55X_Wifi_BLE_SDK/GD32VW55x_RELEASE_V1.0.2/MSDK/lwip/lwip-2.1.2/src/netif\ethernet.c ****     LWIP_ASSERT("prio_vid must be <= 0xFFFF", vlan_prio_vid <= 0xFFFF);
 289:C:/Users/stapi/OneDrive/Desktop/GD32VW553/GD32VW55X_Wifi_BLE_SDK/GD32VW55x_RELEASE_V1.0.2/MSDK/lwip/lwip-2.1.2/src/netif\ethernet.c **** 
 290:C:/Users/stapi/OneDrive/Desktop/GD32VW553/GD32VW55X_Wifi_BLE_SDK/GD32VW55x_RELEASE_V1.0.2/MSDK/lwip/lwip-2.1.2/src/netif\ethernet.c ****     if (pbuf_add_header(p, SIZEOF_ETH_HDR + SIZEOF_VLAN_HDR) != 0) {
 291:C:/Users/stapi/OneDrive/Desktop/GD32VW553/GD32VW55X_Wifi_BLE_SDK/GD32VW55x_RELEASE_V1.0.2/MSDK/lwip/lwip-2.1.2/src/netif\ethernet.c ****       goto pbuf_header_failed;
 292:C:/Users/stapi/OneDrive/Desktop/GD32VW553/GD32VW55X_Wifi_BLE_SDK/GD32VW55x_RELEASE_V1.0.2/MSDK/lwip/lwip-2.1.2/src/netif\ethernet.c ****     }
 293:C:/Users/stapi/OneDrive/Desktop/GD32VW553/GD32VW55X_Wifi_BLE_SDK/GD32VW55x_RELEASE_V1.0.2/MSDK/lwip/lwip-2.1.2/src/netif\ethernet.c ****     vlanhdr = (struct eth_vlan_hdr *)(((u8_t *)p->payload) + SIZEOF_ETH_HDR);
 294:C:/Users/stapi/OneDrive/Desktop/GD32VW553/GD32VW55X_Wifi_BLE_SDK/GD32VW55x_RELEASE_V1.0.2/MSDK/lwip/lwip-2.1.2/src/netif\ethernet.c ****     vlanhdr->tpid     = eth_type_be;
 295:C:/Users/stapi/OneDrive/Desktop/GD32VW553/GD32VW55X_Wifi_BLE_SDK/GD32VW55x_RELEASE_V1.0.2/MSDK/lwip/lwip-2.1.2/src/netif\ethernet.c ****     vlanhdr->prio_vid = lwip_htons((u16_t)vlan_prio_vid);
 296:C:/Users/stapi/OneDrive/Desktop/GD32VW553/GD32VW55X_Wifi_BLE_SDK/GD32VW55x_RELEASE_V1.0.2/MSDK/lwip/lwip-2.1.2/src/netif\ethernet.c **** 
 297:C:/Users/stapi/OneDrive/Desktop/GD32VW553/GD32VW55X_Wifi_BLE_SDK/GD32VW55x_RELEASE_V1.0.2/MSDK/lwip/lwip-2.1.2/src/netif\ethernet.c ****     eth_type_be = PP_HTONS(ETHTYPE_VLAN);
 298:C:/Users/stapi/OneDrive/Desktop/GD32VW553/GD32VW55X_Wifi_BLE_SDK/GD32VW55x_RELEASE_V1.0.2/MSDK/lwip/lwip-2.1.2/src/netif\ethernet.c ****   } else
 299:C:/Users/stapi/OneDrive/Desktop/GD32VW553/GD32VW55X_Wifi_BLE_SDK/GD32VW55x_RELEASE_V1.0.2/MSDK/lwip/lwip-2.1.2/src/netif\ethernet.c **** #endif /* ETHARP_SUPPORT_VLAN && defined(LWIP_HOOK_VLAN_SET) */
 300:C:/Users/stapi/OneDrive/Desktop/GD32VW553/GD32VW55X_Wifi_BLE_SDK/GD32VW55x_RELEASE_V1.0.2/MSDK/lwip/lwip-2.1.2/src/netif\ethernet.c ****   {
 301:C:/Users/stapi/OneDrive/Desktop/GD32VW553/GD32VW55X_Wifi_BLE_SDK/GD32VW55x_RELEASE_V1.0.2/MSDK/lwip/lwip-2.1.2/src/netif\ethernet.c ****     if (pbuf_add_header(p, SIZEOF_ETH_HDR) != 0) {
 230              		.loc 1 301 5 is_stmt 1
 231              		.loc 1 301 9 is_stmt 0
 232 001c B945     		li	a1,14
 233 001e 4A85     		mv	a0,s2
 234 0020 97000000 		call	pbuf_add_header
 234      E7800000 
 235              	.LVL20:
 236              		.loc 1 301 8
 237 0028 35E5     		bne	a0,zero,.L27
 302:C:/Users/stapi/OneDrive/Desktop/GD32VW553/GD32VW55X_Wifi_BLE_SDK/GD32VW55x_RELEASE_V1.0.2/MSDK/lwip/lwip-2.1.2/src/netif\ethernet.c ****       goto pbuf_header_failed;
 303:C:/Users/stapi/OneDrive/Desktop/GD32VW553/GD32VW55X_Wifi_BLE_SDK/GD32VW55x_RELEASE_V1.0.2/MSDK/lwip/lwip-2.1.2/src/netif\ethernet.c ****     }
 304:C:/Users/stapi/OneDrive/Desktop/GD32VW553/GD32VW55X_Wifi_BLE_SDK/GD32VW55x_RELEASE_V1.0.2/MSDK/lwip/lwip-2.1.2/src/netif\ethernet.c ****   }
 305:C:/Users/stapi/OneDrive/Desktop/GD32VW553/GD32VW55X_Wifi_BLE_SDK/GD32VW55x_RELEASE_V1.0.2/MSDK/lwip/lwip-2.1.2/src/netif\ethernet.c **** 
 306:C:/Users/stapi/OneDrive/Desktop/GD32VW553/GD32VW55X_Wifi_BLE_SDK/GD32VW55x_RELEASE_V1.0.2/MSDK/lwip/lwip-2.1.2/src/netif\ethernet.c ****   LWIP_ASSERT_CORE_LOCKED();
 238              		.loc 1 306 28 is_stmt 1
 307:C:/Users/stapi/OneDrive/Desktop/GD32VW553/GD32VW55X_Wifi_BLE_SDK/GD32VW55x_RELEASE_V1.0.2/MSDK/lwip/lwip-2.1.2/src/netif\ethernet.c **** 
 308:C:/Users/stapi/OneDrive/Desktop/GD32VW553/GD32VW55X_Wifi_BLE_SDK/GD32VW55x_RELEASE_V1.0.2/MSDK/lwip/lwip-2.1.2/src/netif\ethernet.c ****   ethhdr = (struct eth_hdr *)p->payload;
 239              		.loc 1 308 3
 240              		.loc 1 308 10 is_stmt 0
 241 002a 83274900 		lw	a5,4(s2)
 242              	.LVL21:
 309:C:/Users/stapi/OneDrive/Desktop/GD32VW553/GD32VW55X_Wifi_BLE_SDK/GD32VW55x_RELEASE_V1.0.2/MSDK/lwip/lwip-2.1.2/src/netif\ethernet.c ****   ethhdr->type = eth_type_be;
 243              		.loc 1 309 3 is_stmt 1
 310:C:/Users/stapi/OneDrive/Desktop/GD32VW553/GD32VW55X_Wifi_BLE_SDK/GD32VW55x_RELEASE_V1.0.2/MSDK/lwip/lwip-2.1.2/src/netif\ethernet.c ****   SMEMCPY(&ethhdr->dest, dst, ETH_HWADDR_LEN);
 244              		.loc 1 310 3 is_stmt 0
 245 002e 1946     		li	a2,6
 246 0030 D285     		mv	a1,s4
 309:C:/Users/stapi/OneDrive/Desktop/GD32VW553/GD32VW55X_Wifi_BLE_SDK/GD32VW55x_RELEASE_V1.0.2/MSDK/lwip/lwip-2.1.2/src/netif\ethernet.c ****   ethhdr->type = eth_type_be;
 247              		.loc 1 309 16
 248 0032 23868700 		sb	s0,12(a5)
 249 0036 2180     		srli	s0,s0,8
 250              	.LVL22:
 251 0038 A3868700 		sb	s0,13(a5)
 252              		.loc 1 310 3 is_stmt 1
 253 003c 3E85     		mv	a0,a5
 254 003e 97000000 		call	memcpy
 254      E7800000 
 255              	.LVL23:
 311:C:/Users/stapi/OneDrive/Desktop/GD32VW553/GD32VW55X_Wifi_BLE_SDK/GD32VW55x_RELEASE_V1.0.2/MSDK/lwip/lwip-2.1.2/src/netif\ethernet.c ****   SMEMCPY(&ethhdr->src,  src, ETH_HWADDR_LEN);
 256              		.loc 1 311 3
 257 0046 1946     		li	a2,6
 258 0048 CE85     		mv	a1,s3
 259 004a 1905     		addi	a0,a0,6
 260 004c 97000000 		call	memcpy
 260      E7800000 
 261              	.LVL24:
 312:C:/Users/stapi/OneDrive/Desktop/GD32VW553/GD32VW55X_Wifi_BLE_SDK/GD32VW55x_RELEASE_V1.0.2/MSDK/lwip/lwip-2.1.2/src/netif\ethernet.c **** 
 313:C:/Users/stapi/OneDrive/Desktop/GD32VW553/GD32VW55X_Wifi_BLE_SDK/GD32VW55x_RELEASE_V1.0.2/MSDK/lwip/lwip-2.1.2/src/netif\ethernet.c ****   LWIP_ASSERT("netif->hwaddr_len must be 6 for ethernet_output!",
 262              		.loc 1 313 3
 263              		.loc 1 313 3
 264 0054 83C70403 		lbu	a5,48(s1)
 310:C:/Users/stapi/OneDrive/Desktop/GD32VW553/GD32VW55X_Wifi_BLE_SDK/GD32VW55x_RELEASE_V1.0.2/MSDK/lwip/lwip-2.1.2/src/netif\ethernet.c ****   SMEMCPY(&ethhdr->src,  src, ETH_HWADDR_LEN);
 265              		.loc 1 310 3 is_stmt 0
 266 0058 1944     		li	s0,6
 267              		.loc 1 313 3
 268 005a 63858702 		beq	a5,s0,.L25
 269              		.loc 1 313 3 is_stmt 1 discriminator 1
 270              		.loc 1 313 3 discriminator 1
 271 005e B7060000 		lui	a3,%hi(.LC0)
 272 0062 B7050000 		lui	a1,%hi(.LC1)
 273 0066 37050000 		lui	a0,%hi(.LC2)
 274 006a 93860600 		addi	a3,a3,%lo(.LC0)
 275 006e 13069013 		li	a2,313
 276 0072 93850500 		addi	a1,a1,%lo(.LC1)
 277 0076 13050500 		addi	a0,a0,%lo(.LC2)
 278 007a 97000000 		call	printf
 278      E7800000 
 279              	.LVL25:
 280              	.L26:
 281              		.loc 1 313 3 discriminator 1
 282              		.loc 1 313 3 discriminator 1
 283              		.loc 1 313 3 discriminator 1
 284 0082 01A0     		j	.L26
 285              	.L25:
 286              		.loc 1 313 3 discriminator 2
 287              		.loc 1 313 3 discriminator 2
 314:C:/Users/stapi/OneDrive/Desktop/GD32VW553/GD32VW55X_Wifi_BLE_SDK/GD32VW55x_RELEASE_V1.0.2/MSDK/lwip/lwip-2.1.2/src/netif\ethernet.c ****               (netif->hwaddr_len == ETH_HWADDR_LEN));
 315:C:/Users/stapi/OneDrive/Desktop/GD32VW553/GD32VW55X_Wifi_BLE_SDK/GD32VW55x_RELEASE_V1.0.2/MSDK/lwip/lwip-2.1.2/src/netif\ethernet.c ****   LWIP_DEBUGF(ETHARP_DEBUG | LWIP_DBG_TRACE,
 316:C:/Users/stapi/OneDrive/Desktop/GD32VW553/GD32VW55X_Wifi_BLE_SDK/GD32VW55x_RELEASE_V1.0.2/MSDK/lwip/lwip-2.1.2/src/netif\ethernet.c ****               ("ethernet_output: sending packet %p\n", (void *)p));
 288              		.loc 1 316 67 discriminator 2
 317:C:/Users/stapi/OneDrive/Desktop/GD32VW553/GD32VW55X_Wifi_BLE_SDK/GD32VW55x_RELEASE_V1.0.2/MSDK/lwip/lwip-2.1.2/src/netif\ethernet.c **** 
 318:C:/Users/stapi/OneDrive/Desktop/GD32VW553/GD32VW55X_Wifi_BLE_SDK/GD32VW55x_RELEASE_V1.0.2/MSDK/lwip/lwip-2.1.2/src/netif\ethernet.c ****   /* send the packet */
 319:C:/Users/stapi/OneDrive/Desktop/GD32VW553/GD32VW55X_Wifi_BLE_SDK/GD32VW55x_RELEASE_V1.0.2/MSDK/lwip/lwip-2.1.2/src/netif\ethernet.c ****   return netif->linkoutput(netif, p);
 289              		.loc 1 319 3 discriminator 2
 290              		.loc 1 319 10 is_stmt 0 discriminator 2
 291 0084 9C4C     		lw	a5,24(s1)
 292 0086 CA85     		mv	a1,s2
 293 0088 2685     		mv	a0,s1
 294 008a 8297     		jalr	a5
 295              	.LVL26:
 296              	.L24:
 297              	.LDL2:
 320:C:/Users/stapi/OneDrive/Desktop/GD32VW553/GD32VW55X_Wifi_BLE_SDK/GD32VW55x_RELEASE_V1.0.2/MSDK/lwip/lwip-2.1.2/src/netif\ethernet.c **** 
 321:C:/Users/stapi/OneDrive/Desktop/GD32VW553/GD32VW55X_Wifi_BLE_SDK/GD32VW55x_RELEASE_V1.0.2/MSDK/lwip/lwip-2.1.2/src/netif\ethernet.c **** pbuf_header_failed:
 322:C:/Users/stapi/OneDrive/Desktop/GD32VW553/GD32VW55X_Wifi_BLE_SDK/GD32VW55x_RELEASE_V1.0.2/MSDK/lwip/lwip-2.1.2/src/netif\ethernet.c ****   LWIP_DEBUGF(ETHARP_DEBUG | LWIP_DBG_TRACE | LWIP_DBG_LEVEL_SERIOUS,
 323:C:/Users/stapi/OneDrive/Desktop/GD32VW553/GD32VW55X_Wifi_BLE_SDK/GD32VW55x_RELEASE_V1.0.2/MSDK/lwip/lwip-2.1.2/src/netif\ethernet.c ****               ("ethernet_output: could not allocate room for header.\n"));
 324:C:/Users/stapi/OneDrive/Desktop/GD32VW553/GD32VW55X_Wifi_BLE_SDK/GD32VW55x_RELEASE_V1.0.2/MSDK/lwip/lwip-2.1.2/src/netif\ethernet.c ****   LINK_STATS_INC(link.lenerr);
 325:C:/Users/stapi/OneDrive/Desktop/GD32VW553/GD32VW55X_Wifi_BLE_SDK/GD32VW55x_RELEASE_V1.0.2/MSDK/lwip/lwip-2.1.2/src/netif\ethernet.c ****   return ERR_BUF;
 326:C:/Users/stapi/OneDrive/Desktop/GD32VW553/GD32VW55X_Wifi_BLE_SDK/GD32VW55x_RELEASE_V1.0.2/MSDK/lwip/lwip-2.1.2/src/netif\ethernet.c **** }
 298              		.loc 1 326 1
 299 008c 17030000 		tail	__riscv_restore_5
 299      67000300 
 300              		.cfi_remember_state
 301              		.cfi_restore 20
 302              		.cfi_restore 19
 303              		.cfi_restore 18
 304              		.cfi_restore 9
 305              		.cfi_restore 8
 306              		.cfi_restore 1
 307              		.cfi_def_cfa_offset 0
 308              	.LVL27:
 309              	.L27:
 310              		.cfi_restore_state
 325:C:/Users/stapi/OneDrive/Desktop/GD32VW553/GD32VW55X_Wifi_BLE_SDK/GD32VW55x_RELEASE_V1.0.2/MSDK/lwip/lwip-2.1.2/src/netif\ethernet.c **** }
 311              		.loc 1 325 10
 312 0094 7955     		li	a0,-2
 313 0096 DDBF     		j	.L24
 314              		.cfi_endproc
 315              	.LFE5:
 317              		.globl	ethzero
 318              		.globl	ethbroadcast
 319              		.section	.srodata.ethbroadcast,"a"
 320              		.align	2
 321              		.set	.LANCHOR0,. + 0
 324              	ethbroadcast:
 325 0000 FFFFFFFF 		.ascii	"\377\377\377\377\377\377"
 325      FFFF
 326              		.section	.srodata.ethzero,"a"
 327              		.align	2
 330              	ethzero:
 331 0000 00000000 		.zero	6
 331      0000
 332              		.text
 333              	.Letext0:
 334              		.file 2 "c:\\users\\stapi\\onedrive\\desktop\\gd32vw553\\embeddedbuilder_v1.4.7.26843\\tools\\nucl
 335              		.file 3 "c:\\users\\stapi\\onedrive\\desktop\\gd32vw553\\embeddedbuilder_v1.4.7.26843\\tools\\nucl
 336              		.file 4 "..\\..\\..\\..\\lwip\\lwip-2.1.2\\src\\include/lwip/arch.h"
 337              		.file 5 "..\\..\\..\\..\\lwip\\lwip-2.1.2\\src\\include/lwip/err.h"
 338              		.file 6 "..\\..\\..\\..\\lwip\\lwip-2.1.2\\src\\include/lwip/pbuf.h"
 339              		.file 7 "..\\..\\..\\..\\lwip\\lwip-2.1.2\\src\\include/lwip/ip4_addr.h"
 340              		.file 8 "..\\..\\..\\..\\lwip\\lwip-2.1.2\\src\\include/lwip/ip_addr.h"
 341              		.file 9 "..\\..\\..\\..\\lwip\\lwip-2.1.2\\src\\include/lwip/memp.h"
 342              		.file 10 "..\\..\\..\\..\\lwip\\lwip-2.1.2\\src\\include/lwip/netif.h"
 343              		.file 11 "..\\..\\..\\..\\lwip\\lwip-2.1.2\\src\\include/lwip/prot/ieee.h"
 344              		.file 12 "..\\..\\..\\..\\lwip\\lwip-2.1.2\\src\\include/lwip/prot/ethernet.h"
 345              		.file 13 "..\\..\\..\\..\\lwip\\lwip-2.1.2\\src\\include/netif/ethernet.h"
 346              		.file 14 "..\\..\\..\\..\\lwip\\lwip-2.1.2\\src\\include/lwip/def.h"
 347              		.file 15 "c:\\users\\stapi\\onedrive\\desktop\\gd32vw553\\embeddedbuilder_v1.4.7.26843\\tools\\nuc
 348              		.file 16 "..\\..\\..\\..\\lwip\\lwip-2.1.2\\port/lwiphooks.h"
 349              		.file 17 "c:\\users\\stapi\\onedrive\\desktop\\gd32vw553\\embeddedbuilder_v1.4.7.26843\\tools\\nuc
 350              		.file 18 "..\\..\\..\\..\\lwip\\lwip-2.1.2\\src\\include/lwip/ip4.h"
 351              		.file 19 "..\\..\\..\\..\\lwip\\lwip-2.1.2\\src\\include/lwip/etharp.h"
 352              		.file 20 "<built-in>"
DEFINED SYMBOLS
                            *ABS*:0000000000000000 ethernet.c
C:\Users\stapi\AppData\Local\Temp\ccuJ2TxX.s:13     .text.ethernet_input:0000000000000000 ethernet_input
C:\Users\stapi\AppData\Local\Temp\ccuJ2TxX.s:17     .text.ethernet_input:0000000000000000 .L0 
C:\Users\stapi\AppData\Local\Temp\ccuJ2TxX.s:19     .text.ethernet_input:0000000000000000 .L0 
C:\Users\stapi\AppData\Local\Temp\ccuJ2TxX.s:20     .text.ethernet_input:0000000000000008 .L0 
C:\Users\stapi\AppData\Local\Temp\ccuJ2TxX.s:21     .text.ethernet_input:0000000000000008 .L0 
C:\Users\stapi\AppData\Local\Temp\ccuJ2TxX.s:22     .text.ethernet_input:0000000000000008 .L0 
C:\Users\stapi\AppData\Local\Temp\ccuJ2TxX.s:23     .text.ethernet_input:0000000000000008 .L0 
C:\Users\stapi\AppData\Local\Temp\ccuJ2TxX.s:24     .text.ethernet_input:0000000000000008 .L0 
C:\Users\stapi\AppData\Local\Temp\ccuJ2TxX.s:26     .text.ethernet_input:0000000000000008 .L0 
C:\Users\stapi\AppData\Local\Temp\ccuJ2TxX.s:27     .text.ethernet_input:0000000000000008 .L0 
C:\Users\stapi\AppData\Local\Temp\ccuJ2TxX.s:29     .text.ethernet_input:0000000000000008 .L0 
C:\Users\stapi\AppData\Local\Temp\ccuJ2TxX.s:30     .text.ethernet_input:0000000000000008 .L0 
C:\Users\stapi\AppData\Local\Temp\ccuJ2TxX.s:31     .text.ethernet_input:0000000000000008 .L0 
C:\Users\stapi\AppData\Local\Temp\ccuJ2TxX.s:32     .text.ethernet_input:0000000000000008 .L0 
C:\Users\stapi\AppData\Local\Temp\ccuJ2TxX.s:35     .text.ethernet_input:000000000000000e .L0 
C:\Users\stapi\AppData\Local\Temp\ccuJ2TxX.s:37     .text.ethernet_input:0000000000000010 .L0 
C:\Users\stapi\AppData\Local\Temp\ccuJ2TxX.s:42     .text.ethernet_input:0000000000000014 .L0 
C:\Users\stapi\AppData\Local\Temp\ccuJ2TxX.s:47     .text.ethernet_input:000000000000001e .L0 
C:\Users\stapi\AppData\Local\Temp\ccuJ2TxX.s:48     .text.ethernet_input:000000000000001e .L0 
C:\Users\stapi\AppData\Local\Temp\ccuJ2TxX.s:50     .text.ethernet_input:0000000000000028 .L0 
C:\Users\stapi\AppData\Local\Temp\ccuJ2TxX.s:51     .text.ethernet_input:0000000000000028 .L0 
C:\Users\stapi\AppData\Local\Temp\ccuJ2TxX.s:52     .text.ethernet_input:0000000000000028 .L0 
C:\Users\stapi\AppData\Local\Temp\ccuJ2TxX.s:53     .text.ethernet_input:0000000000000028 .L0 
C:\Users\stapi\AppData\Local\Temp\ccuJ2TxX.s:54     .text.ethernet_input:0000000000000028 .L0 
C:\Users\stapi\AppData\Local\Temp\ccuJ2TxX.s:55     .text.ethernet_input:0000000000000028 .L0 
C:\Users\stapi\AppData\Local\Temp\ccuJ2TxX.s:58     .text.ethernet_input:0000000000000028 .L0 
C:\Users\stapi\AppData\Local\Temp\ccuJ2TxX.s:60     .text.ethernet_input:0000000000000028 .L0 
C:\Users\stapi\AppData\Local\Temp\ccuJ2TxX.s:63     .text.ethernet_input:000000000000002e .L0 
C:\Users\stapi\AppData\Local\Temp\ccuJ2TxX.s:64     .text.ethernet_input:000000000000002e .L0 
C:\Users\stapi\AppData\Local\Temp\ccuJ2TxX.s:67     .text.ethernet_input:0000000000000030 .L0 
C:\Users\stapi\AppData\Local\Temp\ccuJ2TxX.s:68     .text.ethernet_input:0000000000000030 .L0 
C:\Users\stapi\AppData\Local\Temp\ccuJ2TxX.s:71     .text.ethernet_input:0000000000000036 .L0 
C:\Users\stapi\AppData\Local\Temp\ccuJ2TxX.s:74     .text.ethernet_input:000000000000003a .L0 
C:\Users\stapi\AppData\Local\Temp\ccuJ2TxX.s:75     .text.ethernet_input:000000000000003a .L0 
C:\Users\stapi\AppData\Local\Temp\ccuJ2TxX.s:78     .text.ethernet_input:000000000000003c .L0 
C:\Users\stapi\AppData\Local\Temp\ccuJ2TxX.s:79     .text.ethernet_input:000000000000003c .L0 
C:\Users\stapi\AppData\Local\Temp\ccuJ2TxX.s:80     .text.ethernet_input:000000000000003c .L0 
C:\Users\stapi\AppData\Local\Temp\ccuJ2TxX.s:86     .text.ethernet_input:000000000000004a .L0 
C:\Users\stapi\AppData\Local\Temp\ccuJ2TxX.s:87     .text.ethernet_input:000000000000004a .L0 
C:\Users\stapi\AppData\Local\Temp\ccuJ2TxX.s:89     .text.ethernet_input:000000000000004e .L0 
C:\Users\stapi\AppData\Local\Temp\ccuJ2TxX.s:92     .text.ethernet_input:0000000000000054 .L0 
C:\Users\stapi\AppData\Local\Temp\ccuJ2TxX.s:93     .text.ethernet_input:0000000000000054 .L0 
C:\Users\stapi\AppData\Local\Temp\ccuJ2TxX.s:96     .text.ethernet_input:000000000000005a .L0 
C:\Users\stapi\AppData\Local\Temp\ccuJ2TxX.s:97     .text.ethernet_input:000000000000005a .L0 
C:\Users\stapi\AppData\Local\Temp\ccuJ2TxX.s:100    .text.ethernet_input:0000000000000060 .L0 
C:\Users\stapi\AppData\Local\Temp\ccuJ2TxX.s:104    .text.ethernet_input:000000000000006c .L0 
C:\Users\stapi\AppData\Local\Temp\ccuJ2TxX.s:105    .text.ethernet_input:000000000000006c .L0 
C:\Users\stapi\AppData\Local\Temp\ccuJ2TxX.s:110    .text.ethernet_input:0000000000000074 .L0 
C:\Users\stapi\AppData\Local\Temp\ccuJ2TxX.s:113    .text.ethernet_input:0000000000000078 .L0 
C:\Users\stapi\AppData\Local\Temp\ccuJ2TxX.s:118    .text.ethernet_input:0000000000000086 .L0 
C:\Users\stapi\AppData\Local\Temp\ccuJ2TxX.s:119    .text.ethernet_input:0000000000000086 .L0 
C:\Users\stapi\AppData\Local\Temp\ccuJ2TxX.s:124    .text.ethernet_input:0000000000000092 .L0 
C:\Users\stapi\AppData\Local\Temp\ccuJ2TxX.s:129    .text.ethernet_input:0000000000000096 .L0 
C:\Users\stapi\AppData\Local\Temp\ccuJ2TxX.s:130    .text.ethernet_input:0000000000000096 .L0 
C:\Users\stapi\AppData\Local\Temp\ccuJ2TxX.s:136    .text.ethernet_input:00000000000000a8 .L0 
C:\Users\stapi\AppData\Local\Temp\ccuJ2TxX.s:138    .text.ethernet_input:00000000000000aa .L0 
C:\Users\stapi\AppData\Local\Temp\ccuJ2TxX.s:139    .text.ethernet_input:00000000000000aa .L0 
C:\Users\stapi\AppData\Local\Temp\ccuJ2TxX.s:144    .text.ethernet_input:00000000000000b4 .L0 
C:\Users\stapi\AppData\Local\Temp\ccuJ2TxX.s:145    .text.ethernet_input:00000000000000b4 .L0 
C:\Users\stapi\AppData\Local\Temp\ccuJ2TxX.s:149    .text.ethernet_input:00000000000000bc .L0 
C:\Users\stapi\AppData\Local\Temp\ccuJ2TxX.s:150    .text.ethernet_input:00000000000000bc .L0 
C:\Users\stapi\AppData\Local\Temp\ccuJ2TxX.s:155    .text.ethernet_input:00000000000000c8 .L0 
C:\Users\stapi\AppData\Local\Temp\ccuJ2TxX.s:157    .text.ethernet_input:00000000000000ca .L0 
C:\Users\stapi\AppData\Local\Temp\ccuJ2TxX.s:162    .text.ethernet_input:00000000000000d6 .L0 
C:\Users\stapi\AppData\Local\Temp\ccuJ2TxX.s:165    .text.ethernet_input:00000000000000d8 .L0 
C:\Users\stapi\AppData\Local\Temp\ccuJ2TxX.s:166    .text.ethernet_input:00000000000000d8 .L0 
C:\Users\stapi\AppData\Local\Temp\ccuJ2TxX.s:170    .text.ethernet_input:00000000000000e0 .L0 
C:\Users\stapi\AppData\Local\Temp\ccuJ2TxX.s:171    .text.ethernet_input:00000000000000e0 .L0 
C:\Users\stapi\AppData\Local\Temp\ccuJ2TxX.s:176    .text.ethernet_input:00000000000000ec .L0 
C:\Users\stapi\AppData\Local\Temp\ccuJ2TxX.s:178    .text.ethernet_input:00000000000000ee .L0 
C:\Users\stapi\AppData\Local\Temp\ccuJ2TxX.s:183    .text.ethernet_input:00000000000000fa .L0 
C:\Users\stapi\AppData\Local\Temp\ccuJ2TxX.s:184    .text.ethernet_input:00000000000000fc .L0 
C:\Users\stapi\AppData\Local\Temp\ccuJ2TxX.s:201    .text.ethernet_output:0000000000000000 ethernet_output
C:\Users\stapi\AppData\Local\Temp\ccuJ2TxX.s:204    .text.ethernet_output:0000000000000000 .L0 
C:\Users\stapi\AppData\Local\Temp\ccuJ2TxX.s:206    .text.ethernet_output:0000000000000000 .L0 
C:\Users\stapi\AppData\Local\Temp\ccuJ2TxX.s:207    .text.ethernet_output:0000000000000008 .L0 
C:\Users\stapi\AppData\Local\Temp\ccuJ2TxX.s:208    .text.ethernet_output:0000000000000008 .L0 
C:\Users\stapi\AppData\Local\Temp\ccuJ2TxX.s:209    .text.ethernet_output:0000000000000008 .L0 
C:\Users\stapi\AppData\Local\Temp\ccuJ2TxX.s:210    .text.ethernet_output:0000000000000008 .L0 
C:\Users\stapi\AppData\Local\Temp\ccuJ2TxX.s:211    .text.ethernet_output:0000000000000008 .L0 
C:\Users\stapi\AppData\Local\Temp\ccuJ2TxX.s:212    .text.ethernet_output:0000000000000008 .L0 
C:\Users\stapi\AppData\Local\Temp\ccuJ2TxX.s:213    .text.ethernet_output:0000000000000008 .L0 
C:\Users\stapi\AppData\Local\Temp\ccuJ2TxX.s:215    .text.ethernet_output:0000000000000008 .L0 
C:\Users\stapi\AppData\Local\Temp\ccuJ2TxX.s:216    .text.ethernet_output:0000000000000008 .L0 
C:\Users\stapi\AppData\Local\Temp\ccuJ2TxX.s:217    .text.ethernet_output:0000000000000008 .L0 
C:\Users\stapi\AppData\Local\Temp\ccuJ2TxX.s:219    .text.ethernet_output:000000000000000a .L0 
C:\Users\stapi\AppData\Local\Temp\ccuJ2TxX.s:222    .text.ethernet_output:000000000000000c .L0 
C:\Users\stapi\AppData\Local\Temp\ccuJ2TxX.s:226    .text.ethernet_output:0000000000000012 .L0 
C:\Users\stapi\AppData\Local\Temp\ccuJ2TxX.s:231    .text.ethernet_output:000000000000001c .L0 
C:\Users\stapi\AppData\Local\Temp\ccuJ2TxX.s:232    .text.ethernet_output:000000000000001c .L0 
C:\Users\stapi\AppData\Local\Temp\ccuJ2TxX.s:237    .text.ethernet_output:0000000000000028 .L0 
C:\Users\stapi\AppData\Local\Temp\ccuJ2TxX.s:239    .text.ethernet_output:000000000000002a .L0 
C:\Users\stapi\AppData\Local\Temp\ccuJ2TxX.s:240    .text.ethernet_output:000000000000002a .L0 
C:\Users\stapi\AppData\Local\Temp\ccuJ2TxX.s:241    .text.ethernet_output:000000000000002a .L0 
C:\Users\stapi\AppData\Local\Temp\ccuJ2TxX.s:244    .text.ethernet_output:000000000000002e .L0 
C:\Users\stapi\AppData\Local\Temp\ccuJ2TxX.s:245    .text.ethernet_output:000000000000002e .L0 
C:\Users\stapi\AppData\Local\Temp\ccuJ2TxX.s:248    .text.ethernet_output:0000000000000032 .L0 
C:\Users\stapi\AppData\Local\Temp\ccuJ2TxX.s:253    .text.ethernet_output:000000000000003c .L0 
C:\Users\stapi\AppData\Local\Temp\ccuJ2TxX.s:257    .text.ethernet_output:0000000000000046 .L0 
C:\Users\stapi\AppData\Local\Temp\ccuJ2TxX.s:263    .text.ethernet_output:0000000000000054 .L0 
C:\Users\stapi\AppData\Local\Temp\ccuJ2TxX.s:264    .text.ethernet_output:0000000000000054 .L0 
C:\Users\stapi\AppData\Local\Temp\ccuJ2TxX.s:266    .text.ethernet_output:0000000000000058 .L0 
C:\Users\stapi\AppData\Local\Temp\ccuJ2TxX.s:268    .text.ethernet_output:000000000000005a .L0 
C:\Users\stapi\AppData\Local\Temp\ccuJ2TxX.s:270    .text.ethernet_output:000000000000005e .L0 
C:\Users\stapi\AppData\Local\Temp\ccuJ2TxX.s:271    .text.ethernet_output:000000000000005e .L0 
C:\Users\stapi\AppData\Local\Temp\ccuJ2TxX.s:282    .text.ethernet_output:0000000000000082 .L0 
C:\Users\stapi\AppData\Local\Temp\ccuJ2TxX.s:283    .text.ethernet_output:0000000000000082 .L0 
C:\Users\stapi\AppData\Local\Temp\ccuJ2TxX.s:284    .text.ethernet_output:0000000000000082 .L0 
C:\Users\stapi\AppData\Local\Temp\ccuJ2TxX.s:287    .text.ethernet_output:0000000000000084 .L0 
C:\Users\stapi\AppData\Local\Temp\ccuJ2TxX.s:288    .text.ethernet_output:0000000000000084 .L0 
C:\Users\stapi\AppData\Local\Temp\ccuJ2TxX.s:289    .text.ethernet_output:0000000000000084 .L0 
C:\Users\stapi\AppData\Local\Temp\ccuJ2TxX.s:290    .text.ethernet_output:0000000000000084 .L0 
C:\Users\stapi\AppData\Local\Temp\ccuJ2TxX.s:291    .text.ethernet_output:0000000000000084 .L0 
C:\Users\stapi\AppData\Local\Temp\ccuJ2TxX.s:299    .text.ethernet_output:000000000000008c .L0 
C:\Users\stapi\AppData\Local\Temp\ccuJ2TxX.s:300    .text.ethernet_output:0000000000000094 .L0 
C:\Users\stapi\AppData\Local\Temp\ccuJ2TxX.s:301    .text.ethernet_output:0000000000000094 .L0 
C:\Users\stapi\AppData\Local\Temp\ccuJ2TxX.s:302    .text.ethernet_output:0000000000000094 .L0 
C:\Users\stapi\AppData\Local\Temp\ccuJ2TxX.s:303    .text.ethernet_output:0000000000000094 .L0 
C:\Users\stapi\AppData\Local\Temp\ccuJ2TxX.s:304    .text.ethernet_output:0000000000000094 .L0 
C:\Users\stapi\AppData\Local\Temp\ccuJ2TxX.s:305    .text.ethernet_output:0000000000000094 .L0 
C:\Users\stapi\AppData\Local\Temp\ccuJ2TxX.s:306    .text.ethernet_output:0000000000000094 .L0 
C:\Users\stapi\AppData\Local\Temp\ccuJ2TxX.s:307    .text.ethernet_output:0000000000000094 .L0 
C:\Users\stapi\AppData\Local\Temp\ccuJ2TxX.s:310    .text.ethernet_output:0000000000000094 .L0 
C:\Users\stapi\AppData\Local\Temp\ccuJ2TxX.s:312    .text.ethernet_output:0000000000000094 .L0 
C:\Users\stapi\AppData\Local\Temp\ccuJ2TxX.s:314    .text.ethernet_output:0000000000000098 .L0 
C:\Users\stapi\AppData\Local\Temp\ccuJ2TxX.s:330    .srodata.ethzero:0000000000000000 ethzero
C:\Users\stapi\AppData\Local\Temp\ccuJ2TxX.s:324    .srodata.ethbroadcast:0000000000000000 ethbroadcast
C:\Users\stapi\AppData\Local\Temp\ccuJ2TxX.s:321    .srodata.ethbroadcast:0000000000000000 .LANCHOR0
C:\Users\stapi\AppData\Local\Temp\ccuJ2TxX.s:187    .text.ethernet_input:00000000000000fc .L0 
C:\Users\stapi\AppData\Local\Temp\ccuJ2TxX.s:319    .text.ethernet_output:0000000000000098 .L0 
                     .debug_frame:0000000000000000 .L0 
C:\Users\stapi\AppData\Local\Temp\ccuJ2TxX.s:57     .text.ethernet_input:0000000000000028 .L2
C:\Users\stapi\AppData\Local\Temp\ccuJ2TxX.s:72     .text.ethernet_input:000000000000003a .L4
C:\Users\stapi\AppData\Local\Temp\ccuJ2TxX.s:111    .text.ethernet_input:0000000000000078 .L5
C:\Users\stapi\AppData\Local\Temp\ccuJ2TxX.s:127    .text.ethernet_input:0000000000000096 .L6
C:\Users\stapi\AppData\Local\Temp\ccuJ2TxX.s:142    .text.ethernet_input:00000000000000b4 .L7
C:\Users\stapi\AppData\Local\Temp\ccuJ2TxX.s:163    .text.ethernet_input:00000000000000d8 .L8
C:\Users\stapi\AppData\Local\Temp\ccuJ2TxX.s:46     .text.ethernet_input:000000000000001e .L3
C:\Users\stapi\AppData\Local\Temp\ccuJ2TxX.s:39     .text.ethernet_input:0000000000000014 .L10
C:\Users\stapi\AppData\Local\Temp\ccuJ2TxX.s:108    .text.ethernet_input:0000000000000074 .L22
C:\Users\stapi\AppData\Local\Temp\ccuJ2TxX.s:189    .rodata.ethernet_output.str1.4:0000000000000000 .LC0
C:\Users\stapi\AppData\Local\Temp\ccuJ2TxX.s:192    .rodata.ethernet_output.str1.4:0000000000000084 .LC1
C:\Users\stapi\AppData\Local\Temp\ccuJ2TxX.s:195    .rodata.ethernet_output.str1.4:00000000000000b8 .LC2
C:\Users\stapi\AppData\Local\Temp\ccuJ2TxX.s:309    .text.ethernet_output:0000000000000094 .L27
C:\Users\stapi\AppData\Local\Temp\ccuJ2TxX.s:285    .text.ethernet_output:0000000000000084 .L25
C:\Users\stapi\AppData\Local\Temp\ccuJ2TxX.s:280    .text.ethernet_output:0000000000000082 .L26
C:\Users\stapi\AppData\Local\Temp\ccuJ2TxX.s:296    .text.ethernet_output:000000000000008c .L24
C:\Users\stapi\AppData\Local\Temp\ccuJ2TxX.s:1509   .debug_abbrev:0000000000000000 .Ldebug_abbrev0
C:\Users\stapi\AppData\Local\Temp\ccuJ2TxX.s:2570   .debug_str:000000000000077e .LASF135
C:\Users\stapi\AppData\Local\Temp\ccuJ2TxX.s:2340   .debug_str:00000000000000df .LASF136
C:\Users\stapi\AppData\Local\Temp\ccuJ2TxX.s:2420   .debug_str:0000000000000349 .LASF137
C:\Users\stapi\AppData\Local\Temp\ccuJ2TxX.s:2290   .debug_ranges:0000000000000000 .Ldebug_ranges0
C:\Users\stapi\AppData\Local\Temp\ccuJ2TxX.s:2298   .debug_line:0000000000000000 .Ldebug_line0
C:\Users\stapi\AppData\Local\Temp\ccuJ2TxX.s:2460   .debug_str:00000000000004b9 .LASF0
C:\Users\stapi\AppData\Local\Temp\ccuJ2TxX.s:2556   .debug_str:000000000000072c .LASF2
C:\Users\stapi\AppData\Local\Temp\ccuJ2TxX.s:2494   .debug_str:0000000000000588 .LASF1
C:\Users\stapi\AppData\Local\Temp\ccuJ2TxX.s:2526   .debug_str:000000000000065a .LASF3
C:\Users\stapi\AppData\Local\Temp\ccuJ2TxX.s:2478   .debug_str:0000000000000529 .LASF4
C:\Users\stapi\AppData\Local\Temp\ccuJ2TxX.s:2362   .debug_str:00000000000001ec .LASF5
C:\Users\stapi\AppData\Local\Temp\ccuJ2TxX.s:2558   .debug_str:0000000000000738 .LASF6
C:\Users\stapi\AppData\Local\Temp\ccuJ2TxX.s:2482   .debug_str:000000000000053e .LASF7
C:\Users\stapi\AppData\Local\Temp\ccuJ2TxX.s:2528   .debug_str:0000000000000668 .LASF8
C:\Users\stapi\AppData\Local\Temp\ccuJ2TxX.s:2514   .debug_str:00000000000005ff .LASF9
C:\Users\stapi\AppData\Local\Temp\ccuJ2TxX.s:2436   .debug_str:0000000000000421 .LASF10
C:\Users\stapi\AppData\Local\Temp\ccuJ2TxX.s:2360   .debug_str:00000000000001d5 .LASF11
C:\Users\stapi\AppData\Local\Temp\ccuJ2TxX.s:2318   .debug_str:0000000000000070 .LASF12
C:\Users\stapi\AppData\Local\Temp\ccuJ2TxX.s:2344   .debug_str:000000000000016c .LASF13
C:\Users\stapi\AppData\Local\Temp\ccuJ2TxX.s:2418   .debug_str:0000000000000341 .LASF14
C:\Users\stapi\AppData\Local\Temp\ccuJ2TxX.s:2466   .debug_str:00000000000004f3 .LASF15
C:\Users\stapi\AppData\Local\Temp\ccuJ2TxX.s:2342   .debug_str:0000000000000163 .LASF16
C:\Users\stapi\AppData\Local\Temp\ccuJ2TxX.s:2410   .debug_str:000000000000030a .LASF17
C:\Users\stapi\AppData\Local\Temp\ccuJ2TxX.s:2446   .debug_str:000000000000045c .LASF18
C:\Users\stapi\AppData\Local\Temp\ccuJ2TxX.s:2392   .debug_str:00000000000002a5 .LASF19
C:\Users\stapi\AppData\Local\Temp\ccuJ2TxX.s:2328   .debug_str:000000000000009a .LASF20
C:\Users\stapi\AppData\Local\Temp\ccuJ2TxX.s:2476   .debug_str:0000000000000523 .LASF21
C:\Users\stapi\AppData\Local\Temp\ccuJ2TxX.s:2552   .debug_str:0000000000000703 .LASF22
C:\Users\stapi\AppData\Local\Temp\ccuJ2TxX.s:2574   .debug_str:0000000000000882 .LASF23
C:\Users\stapi\AppData\Local\Temp\ccuJ2TxX.s:2472   .debug_str:0000000000000510 .LASF24
C:\Users\stapi\AppData\Local\Temp\ccuJ2TxX.s:2398   .debug_str:00000000000002c6 .LASF25
C:\Users\stapi\AppData\Local\Temp\ccuJ2TxX.s:2566   .debug_str:000000000000076c .LASF26
C:\Users\stapi\AppData\Local\Temp\ccuJ2TxX.s:2490   .debug_str:0000000000000570 .LASF27
C:\Users\stapi\AppData\Local\Temp\ccuJ2TxX.s:2366   .debug_str:0000000000000202 .LASF28
C:\Users\stapi\AppData\Local\Temp\ccuJ2TxX.s:2396   .debug_str:00000000000002b7 .LASF29
C:\Users\stapi\AppData\Local\Temp\ccuJ2TxX.s:2314   .debug_str:0000000000000060 .LASF30
C:\Users\stapi\AppData\Local\Temp\ccuJ2TxX.s:2338   .debug_str:00000000000000d3 .LASF31
C:\Users\stapi\AppData\Local\Temp\ccuJ2TxX.s:2496   .debug_str:0000000000000592 .LASF32
C:\Users\stapi\AppData\Local\Temp\ccuJ2TxX.s:2564   .debug_str:0000000000000763 .LASF33
C:\Users\stapi\AppData\Local\Temp\ccuJ2TxX.s:2440   .debug_str:0000000000000436 .LASF34
C:\Users\stapi\AppData\Local\Temp\ccuJ2TxX.s:2546   .debug_str:00000000000006d1 .LASF35
C:\Users\stapi\AppData\Local\Temp\ccuJ2TxX.s:2336   .debug_str:00000000000000cb .LASF36
C:\Users\stapi\AppData\Local\Temp\ccuJ2TxX.s:2312   .debug_str:0000000000000057 .LASF37
C:\Users\stapi\AppData\Local\Temp\ccuJ2TxX.s:2316   .debug_str:0000000000000068 .LASF38
C:\Users\stapi\AppData\Local\Temp\ccuJ2TxX.s:2322   .debug_str:0000000000000082 .LASF39
C:\Users\stapi\AppData\Local\Temp\ccuJ2TxX.s:2386   .debug_str:0000000000000289 .LASF46
C:\Users\stapi\AppData\Local\Temp\ccuJ2TxX.s:2320   .debug_str:000000000000007d .LASF40
C:\Users\stapi\AppData\Local\Temp\ccuJ2TxX.s:2378   .debug_str:0000000000000269 .LASF41
C:\Users\stapi\AppData\Local\Temp\ccuJ2TxX.s:2376   .debug_str:0000000000000261 .LASF42
C:\Users\stapi\AppData\Local\Temp\ccuJ2TxX.s:2374   .debug_str:0000000000000253 .LASF43
C:\Users\stapi\AppData\Local\Temp\ccuJ2TxX.s:2310   .debug_str:0000000000000051 .LASF44
C:\Users\stapi\AppData\Local\Temp\ccuJ2TxX.s:2468   .debug_str:00000000000004fc .LASF45
C:\Users\stapi\AppData\Local\Temp\ccuJ2TxX.s:2492   .debug_str:000000000000057f .LASF47
C:\Users\stapi\AppData\Local\Temp\ccuJ2TxX.s:2538   .debug_str:00000000000006ad .LASF48
C:\Users\stapi\AppData\Local\Temp\ccuJ2TxX.s:2480   .debug_str:0000000000000533 .LASF49
C:\Users\stapi\AppData\Local\Temp\ccuJ2TxX.s:2568   .debug_str:0000000000000774 .LASF50
C:\Users\stapi\AppData\Local\Temp\ccuJ2TxX.s:2508   .debug_str:00000000000005dd .LASF51
C:\Users\stapi\AppData\Local\Temp\ccuJ2TxX.s:2488   .debug_str:0000000000000563 .LASF52
C:\Users\stapi\AppData\Local\Temp\ccuJ2TxX.s:2444   .debug_str:000000000000044f .LASF53
C:\Users\stapi\AppData\Local\Temp\ccuJ2TxX.s:2302   .debug_str:0000000000000009 .LASF54
C:\Users\stapi\AppData\Local\Temp\ccuJ2TxX.s:2532   .debug_str:0000000000000682 .LASF55
C:\Users\stapi\AppData\Local\Temp\ccuJ2TxX.s:2456   .debug_str:0000000000000495 .LASF56
C:\Users\stapi\AppData\Local\Temp\ccuJ2TxX.s:2452   .debug_str:000000000000047a .LASF57
C:\Users\stapi\AppData\Local\Temp\ccuJ2TxX.s:2502   .debug_str:00000000000005b6 .LASF58
C:\Users\stapi\AppData\Local\Temp\ccuJ2TxX.s:2432   .debug_str:000000000000040d .LASF59
C:\Users\stapi\AppData\Local\Temp\ccuJ2TxX.s:2394   .debug_str:00000000000002aa .LASF60
C:\Users\stapi\AppData\Local\Temp\ccuJ2TxX.s:2348   .debug_str:0000000000000183 .LASF61
C:\Users\stapi\AppData\Local\Temp\ccuJ2TxX.s:2370   .debug_str:0000000000000218 .LASF62
C:\Users\stapi\AppData\Local\Temp\ccuJ2TxX.s:2346   .debug_str:0000000000000173 .LASF63
C:\Users\stapi\AppData\Local\Temp\ccuJ2TxX.s:2484   .debug_str:0000000000000547 .LASF64
C:\Users\stapi\AppData\Local\Temp\ccuJ2TxX.s:2572   .debug_str:0000000000000877 .LASF65
C:\Users\stapi\AppData\Local\Temp\ccuJ2TxX.s:2402   .debug_str:00000000000002e1 .LASF66
C:\Users\stapi\AppData\Local\Temp\ccuJ2TxX.s:2334   .debug_str:00000000000000bc .LASF67
C:\Users\stapi\AppData\Local\Temp\ccuJ2TxX.s:2390   .debug_str:000000000000029c .LASF68
C:\Users\stapi\AppData\Local\Temp\ccuJ2TxX.s:2372   .debug_str:000000000000022d .LASF72
C:\Users\stapi\AppData\Local\Temp\ccuJ2TxX.s:2554   .debug_str:000000000000070a .LASF69
C:\Users\stapi\AppData\Local\Temp\ccuJ2TxX.s:2306   .debug_str:0000000000000023 .LASF70
C:\Users\stapi\AppData\Local\Temp\ccuJ2TxX.s:2464   .debug_str:00000000000004d2 .LASF71
C:\Users\stapi\AppData\Local\Temp\ccuJ2TxX.s:2516   .debug_str:0000000000000611 .LASF73
C:\Users\stapi\AppData\Local\Temp\ccuJ2TxX.s:2458   .debug_str:00000000000004a4 .LASF74
C:\Users\stapi\AppData\Local\Temp\ccuJ2TxX.s:2416   .debug_str:000000000000032c .LASF75
C:\Users\stapi\AppData\Local\Temp\ccuJ2TxX.s:2544   .debug_str:00000000000006cb .LASF76
C:\Users\stapi\AppData\Local\Temp\ccuJ2TxX.s:2578   .debug_str:000000000000088f .LASF77
C:\Users\stapi\AppData\Local\Temp\ccuJ2TxX.s:2434   .debug_str:0000000000000419 .LASF78
C:\Users\stapi\AppData\Local\Temp\ccuJ2TxX.s:2304   .debug_str:000000000000001d .LASF79
C:\Users\stapi\AppData\Local\Temp\ccuJ2TxX.s:2382   .debug_str:0000000000000278 .LASF80
C:\Users\stapi\AppData\Local\Temp\ccuJ2TxX.s:2324   .debug_str:0000000000000088 .LASF81
C:\Users\stapi\AppData\Local\Temp\ccuJ2TxX.s:2542   .debug_str:00000000000006c5 .LASF82
C:\Users\stapi\AppData\Local\Temp\ccuJ2TxX.s:2406   .debug_str:00000000000002f4 .LASF83
C:\Users\stapi\AppData\Local\Temp\ccuJ2TxX.s:2358   .debug_str:00000000000001ce .LASF84
C:\Users\stapi\AppData\Local\Temp\ccuJ2TxX.s:2364   .debug_str:00000000000001f7 .LASF85
C:\Users\stapi\AppData\Local\Temp\ccuJ2TxX.s:2498   .debug_str:000000000000059d .LASF86
C:\Users\stapi\AppData\Local\Temp\ccuJ2TxX.s:2504   .debug_str:00000000000005c5 .LASF87
C:\Users\stapi\AppData\Local\Temp\ccuJ2TxX.s:2412   .debug_str:000000000000030f .LASF88
C:\Users\stapi\AppData\Local\Temp\ccuJ2TxX.s:2486   .debug_str:0000000000000558 .LASF89
C:\Users\stapi\AppData\Local\Temp\ccuJ2TxX.s:2384   .debug_str:000000000000027f .LASF90
C:\Users\stapi\AppData\Local\Temp\ccuJ2TxX.s:2530   .debug_str:0000000000000673 .LASF91
C:\Users\stapi\AppData\Local\Temp\ccuJ2TxX.s:2330   .debug_str:00000000000000a0 .LASF92
C:\Users\stapi\AppData\Local\Temp\ccuJ2TxX.s:2500   .debug_str:00000000000005a2 .LASF93
C:\Users\stapi\AppData\Local\Temp\ccuJ2TxX.s:2550   .debug_str:00000000000006ea .LASF94
C:\Users\stapi\AppData\Local\Temp\ccuJ2TxX.s:2534   .debug_str:000000000000068f .LASF95
C:\Users\stapi\AppData\Local\Temp\ccuJ2TxX.s:2536   .debug_str:00000000000006a2 .LASF96
C:\Users\stapi\AppData\Local\Temp\ccuJ2TxX.s:2308   .debug_str:0000000000000045 .LASF97
C:\Users\stapi\AppData\Local\Temp\ccuJ2TxX.s:2454   .debug_str:0000000000000489 .LASF98
C:\Users\stapi\AppData\Local\Temp\ccuJ2TxX.s:2356   .debug_str:00000000000001c1 .LASF99
C:\Users\stapi\AppData\Local\Temp\ccuJ2TxX.s:2512   .debug_str:00000000000005f2 .LASF100
C:\Users\stapi\AppData\Local\Temp\ccuJ2TxX.s:2352   .debug_str:00000000000001a3 .LASF101
C:\Users\stapi\AppData\Local\Temp\ccuJ2TxX.s:2442   .debug_str:000000000000043d .LASF102
C:\Users\stapi\AppData\Local\Temp\ccuJ2TxX.s:2388   .debug_str:000000000000028e .LASF103
C:\Users\stapi\AppData\Local\Temp\ccuJ2TxX.s:2368   .debug_str:000000000000020a .LASF104
C:\Users\stapi\AppData\Local\Temp\ccuJ2TxX.s:2422   .debug_str:00000000000003c7 .LASF105
C:\Users\stapi\AppData\Local\Temp\ccuJ2TxX.s:2354   .debug_str:00000000000001b0 .LASF106
C:\Users\stapi\AppData\Local\Temp\ccuJ2TxX.s:2350   .debug_str:0000000000000196 .LASF107
C:\Users\stapi\AppData\Local\Temp\ccuJ2TxX.s:2506   .debug_str:00000000000005ce .LASF108
C:\Users\stapi\AppData\Local\Temp\ccuJ2TxX.s:2522   .debug_str:0000000000000649 .LASF109
C:\Users\stapi\AppData\Local\Temp\ccuJ2TxX.s:2332   .debug_str:00000000000000b0 .LASF110
C:\Users\stapi\AppData\Local\Temp\ccuJ2TxX.s:2450   .debug_str:000000000000046d .LASF111
C:\Users\stapi\AppData\Local\Temp\ccuJ2TxX.s:2300   .debug_str:0000000000000000 .LASF112
C:\Users\stapi\AppData\Local\Temp\ccuJ2TxX.s:2426   .debug_str:00000000000003eb .LASF113
C:\Users\stapi\AppData\Local\Temp\ccuJ2TxX.s:2576   .debug_str:000000000000088a .LASF114
C:\Users\stapi\AppData\Local\Temp\ccuJ2TxX.s:2524   .debug_str:0000000000000655 .LASF115
C:\Users\stapi\AppData\Local\Temp\ccuJ2TxX.s:2470   .debug_str:0000000000000503 .LASF116
C:\Users\stapi\AppData\Local\Temp\ccuJ2TxX.s:2510   .debug_str:00000000000005ea .LASF117
C:\Users\stapi\AppData\Local\Temp\ccuJ2TxX.s:2518   .debug_str:0000000000000629 .LASF121
C:\Users\stapi\AppData\Local\Temp\ccuJ2TxX.s:202    .text.ethernet_output:0000000000000000 .LFB5
C:\Users\stapi\AppData\Local\Temp\ccuJ2TxX.s:315    .text.ethernet_output:0000000000000098 .LFE5
C:\Users\stapi\AppData\Local\Temp\ccuJ2TxX.s:2155   .debug_loc:0000000000000000 .LLST3
C:\Users\stapi\AppData\Local\Temp\ccuJ2TxX.s:2166   .debug_loc:000000000000001e .LLST4
C:\Users\stapi\AppData\Local\Temp\ccuJ2TxX.s:2177   .debug_loc:000000000000003c .LLST5
C:\Users\stapi\AppData\Local\Temp\ccuJ2TxX.s:2188   .debug_loc:000000000000005a .LLST6
C:\Users\stapi\AppData\Local\Temp\ccuJ2TxX.s:2404   .debug_str:00000000000002eb .LASF118
C:\Users\stapi\AppData\Local\Temp\ccuJ2TxX.s:2199   .debug_loc:0000000000000078 .LLST7
C:\Users\stapi\AppData\Local\Temp\ccuJ2TxX.s:2326   .debug_str:0000000000000093 .LASF119
C:\Users\stapi\AppData\Local\Temp\ccuJ2TxX.s:2213   .debug_loc:0000000000000099 .LLST8
C:\Users\stapi\AppData\Local\Temp\ccuJ2TxX.s:2448   .debug_str:0000000000000461 .LASF120
C:\Users\stapi\AppData\Local\Temp\ccuJ2TxX.s:2220   .debug_loc:00000000000000ac .LLST9
C:\Users\stapi\AppData\Local\Temp\ccuJ2TxX.s:2540   .debug_str:00000000000006b2 .LASF124
C:\Users\stapi\AppData\Local\Temp\ccuJ2TxX.s:297    .text.ethernet_output:000000000000008c .LDL2
C:\Users\stapi\AppData\Local\Temp\ccuJ2TxX.s:227    .text.ethernet_output:000000000000001a .LVL18
C:\Users\stapi\AppData\Local\Temp\ccuJ2TxX.s:235    .text.ethernet_output:0000000000000028 .LVL20
C:\Users\stapi\AppData\Local\Temp\ccuJ2TxX.s:255    .text.ethernet_output:0000000000000046 .LVL23
C:\Users\stapi\AppData\Local\Temp\ccuJ2TxX.s:261    .text.ethernet_output:0000000000000054 .LVL24
C:\Users\stapi\AppData\Local\Temp\ccuJ2TxX.s:279    .text.ethernet_output:0000000000000082 .LVL25
C:\Users\stapi\AppData\Local\Temp\ccuJ2TxX.s:295    .text.ethernet_output:000000000000008c .LVL26
C:\Users\stapi\AppData\Local\Temp\ccuJ2TxX.s:2400   .debug_str:00000000000002d2 .LASF122
C:\Users\stapi\AppData\Local\Temp\ccuJ2TxX.s:14     .text.ethernet_input:0000000000000000 .LFB4
C:\Users\stapi\AppData\Local\Temp\ccuJ2TxX.s:185    .text.ethernet_input:00000000000000fc .LFE4
C:\Users\stapi\AppData\Local\Temp\ccuJ2TxX.s:2231   .debug_loc:00000000000000ca .LLST0
C:\Users\stapi\AppData\Local\Temp\ccuJ2TxX.s:2242   .debug_loc:00000000000000e8 .LLST1
C:\Users\stapi\AppData\Local\Temp\ccuJ2TxX.s:2264   .debug_loc:000000000000011f .LLST2
C:\Users\stapi\AppData\Local\Temp\ccuJ2TxX.s:2520   .debug_str:0000000000000639 .LASF123
C:\Users\stapi\AppData\Local\Temp\ccuJ2TxX.s:2430   .debug_str:00000000000003fd .LASF125
C:\Users\stapi\AppData\Local\Temp\ccuJ2TxX.s:40     .text.ethernet_input:0000000000000014 .LDL1
C:\Users\stapi\AppData\Local\Temp\ccuJ2TxX.s:44     .text.ethernet_input:000000000000001e .LVL3
C:\Users\stapi\AppData\Local\Temp\ccuJ2TxX.s:122    .text.ethernet_input:0000000000000092 .LVL9
C:\Users\stapi\AppData\Local\Temp\ccuJ2TxX.s:134    .text.ethernet_input:00000000000000a8 .LVL11
C:\Users\stapi\AppData\Local\Temp\ccuJ2TxX.s:153    .text.ethernet_input:00000000000000c8 .LVL12
C:\Users\stapi\AppData\Local\Temp\ccuJ2TxX.s:160    .text.ethernet_input:00000000000000d6 .LVL13
C:\Users\stapi\AppData\Local\Temp\ccuJ2TxX.s:174    .text.ethernet_input:00000000000000ec .LVL14
C:\Users\stapi\AppData\Local\Temp\ccuJ2TxX.s:181    .text.ethernet_input:00000000000000fa .LVL15
C:\Users\stapi\AppData\Local\Temp\ccuJ2TxX.s:2474   .debug_str:0000000000000518 .LASF126
C:\Users\stapi\AppData\Local\Temp\ccuJ2TxX.s:2548   .debug_str:00000000000006da .LASF127
C:\Users\stapi\AppData\Local\Temp\ccuJ2TxX.s:2560   .debug_str:000000000000074b .LASF138
C:\Users\stapi\AppData\Local\Temp\ccuJ2TxX.s:2562   .debug_str:0000000000000752 .LASF139
C:\Users\stapi\AppData\Local\Temp\ccuJ2TxX.s:2438   .debug_str:000000000000042f .LASF128
C:\Users\stapi\AppData\Local\Temp\ccuJ2TxX.s:2428   .debug_str:00000000000003f3 .LASF129
C:\Users\stapi\AppData\Local\Temp\ccuJ2TxX.s:2462   .debug_str:00000000000004c2 .LASF130
C:\Users\stapi\AppData\Local\Temp\ccuJ2TxX.s:2380   .debug_str:0000000000000271 .LASF131
C:\Users\stapi\AppData\Local\Temp\ccuJ2TxX.s:2424   .debug_str:00000000000003d8 .LASF132
C:\Users\stapi\AppData\Local\Temp\ccuJ2TxX.s:2408   .debug_str:0000000000000300 .LASF133
C:\Users\stapi\AppData\Local\Temp\ccuJ2TxX.s:2414   .debug_str:000000000000031f .LASF134
C:\Users\stapi\AppData\Local\Temp\ccuJ2TxX.s:205    .text.ethernet_output:0000000000000000 .LVL16
C:\Users\stapi\AppData\Local\Temp\ccuJ2TxX.s:220    .text.ethernet_output:000000000000000c .LVL17
C:\Users\stapi\AppData\Local\Temp\ccuJ2TxX.s:242    .text.ethernet_output:000000000000002e .LVL21
C:\Users\stapi\AppData\Local\Temp\ccuJ2TxX.s:229    .text.ethernet_output:000000000000001c .LVL19
C:\Users\stapi\AppData\Local\Temp\ccuJ2TxX.s:250    .text.ethernet_output:0000000000000038 .LVL22
C:\Users\stapi\AppData\Local\Temp\ccuJ2TxX.s:308    .text.ethernet_output:0000000000000094 .LVL27
C:\Users\stapi\AppData\Local\Temp\ccuJ2TxX.s:18     .text.ethernet_input:0000000000000000 .LVL0
C:\Users\stapi\AppData\Local\Temp\ccuJ2TxX.s:38     .text.ethernet_input:0000000000000014 .LVL2
C:\Users\stapi\AppData\Local\Temp\ccuJ2TxX.s:56     .text.ethernet_input:0000000000000028 .LVL4
C:\Users\stapi\AppData\Local\Temp\ccuJ2TxX.s:65     .text.ethernet_input:0000000000000030 .LVL5
C:\Users\stapi\AppData\Local\Temp\ccuJ2TxX.s:76     .text.ethernet_input:000000000000003c .LVL6
C:\Users\stapi\AppData\Local\Temp\ccuJ2TxX.s:107    .text.ethernet_input:0000000000000074 .LVL8
C:\Users\stapi\AppData\Local\Temp\ccuJ2TxX.s:126    .text.ethernet_input:0000000000000096 .LVL10
C:\Users\stapi\AppData\Local\Temp\ccuJ2TxX.s:354    .debug_info:0000000000000000 .Ldebug_info0

UNDEFINED SYMBOLS
__riscv_save_3
pbuf_free
__riscv_restore_3
net_eth_receive
memcmp
pbuf_remove_header
ip4_input
etharp_input
__riscv_save_5
lwip_htons
pbuf_add_header
memcpy
printf
__riscv_restore_5
