   1              		.file	"icmp.c"
   2              		.option nopic
   3              		.attribute arch, "rv32i2p0_m2p0_a2p0_f2p0_c2p0_b_p0p94"
   4              		.attribute unaligned_access, 0
   5              		.attribute stack_align, 16
   6              		.text
   7              	.Ltext0:
   8              		.cfi_sections	.debug_frame
   9              		.section	.rodata.icmp_send_response.str1.4,"aMS",@progbits,1
  10              		.align	2
  11              	.LC0:
  12 0000 433A2F55 		.string	"C:/Users/stapi/OneDrive/Desktop/GD32VW553/GD32VW55X_Wifi_BLE_SDK/GD32VW55x_RELEASE_V1.0.2
  12      73657273 
  12      2F737461 
  12      70692F4F 
  12      6E654472 
  13              		.align	2
  14              	.LC1:
  15 0084 63686563 		.string	"check that first pbuf can hold icmp message"
  15      6B207468 
  15      61742066 
  15      69727374 
  15      20706275 
  16              		.align	2
  17              	.LC2:
  18 00b0 41737365 		.string	"Assertion \"%s\" failed at line %d in %s\n"
  18      7274696F 
  18      6E202225 
  18      73222066 
  18      61696C65 
  19              		.section	.text.icmp_send_response,"ax",@progbits
  20              		.align	1
  22              	icmp_send_response:
  23              	.LFB7:
  24              		.file 1 "C:/Users/stapi/OneDrive/Desktop/GD32VW553/GD32VW55X_Wifi_BLE_SDK/GD32VW55x_RELEASE_V1.0.2
   1:C:/Users/stapi/OneDrive/Desktop/GD32VW553/GD32VW55X_Wifi_BLE_SDK/GD32VW55x_RELEASE_V1.0.2/MSDK/lwip/lwip-2.1.2/src/core/ipv4\icmp.c **** /**
   2:C:/Users/stapi/OneDrive/Desktop/GD32VW553/GD32VW55X_Wifi_BLE_SDK/GD32VW55x_RELEASE_V1.0.2/MSDK/lwip/lwip-2.1.2/src/core/ipv4\icmp.c ****  * @file
   3:C:/Users/stapi/OneDrive/Desktop/GD32VW553/GD32VW55X_Wifi_BLE_SDK/GD32VW55x_RELEASE_V1.0.2/MSDK/lwip/lwip-2.1.2/src/core/ipv4\icmp.c ****  * ICMP - Internet Control Message Protocol
   4:C:/Users/stapi/OneDrive/Desktop/GD32VW553/GD32VW55X_Wifi_BLE_SDK/GD32VW55x_RELEASE_V1.0.2/MSDK/lwip/lwip-2.1.2/src/core/ipv4\icmp.c ****  *
   5:C:/Users/stapi/OneDrive/Desktop/GD32VW553/GD32VW55X_Wifi_BLE_SDK/GD32VW55x_RELEASE_V1.0.2/MSDK/lwip/lwip-2.1.2/src/core/ipv4\icmp.c ****  */
   6:C:/Users/stapi/OneDrive/Desktop/GD32VW553/GD32VW55X_Wifi_BLE_SDK/GD32VW55x_RELEASE_V1.0.2/MSDK/lwip/lwip-2.1.2/src/core/ipv4\icmp.c **** 
   7:C:/Users/stapi/OneDrive/Desktop/GD32VW553/GD32VW55X_Wifi_BLE_SDK/GD32VW55x_RELEASE_V1.0.2/MSDK/lwip/lwip-2.1.2/src/core/ipv4\icmp.c **** /*
   8:C:/Users/stapi/OneDrive/Desktop/GD32VW553/GD32VW55X_Wifi_BLE_SDK/GD32VW55x_RELEASE_V1.0.2/MSDK/lwip/lwip-2.1.2/src/core/ipv4\icmp.c ****  * Copyright (c) 2001-2004 Swedish Institute of Computer Science.
   9:C:/Users/stapi/OneDrive/Desktop/GD32VW553/GD32VW55X_Wifi_BLE_SDK/GD32VW55x_RELEASE_V1.0.2/MSDK/lwip/lwip-2.1.2/src/core/ipv4\icmp.c ****  * All rights reserved.
  10:C:/Users/stapi/OneDrive/Desktop/GD32VW553/GD32VW55X_Wifi_BLE_SDK/GD32VW55x_RELEASE_V1.0.2/MSDK/lwip/lwip-2.1.2/src/core/ipv4\icmp.c ****  *
  11:C:/Users/stapi/OneDrive/Desktop/GD32VW553/GD32VW55X_Wifi_BLE_SDK/GD32VW55x_RELEASE_V1.0.2/MSDK/lwip/lwip-2.1.2/src/core/ipv4\icmp.c ****  * Redistribution and use in source and binary forms, with or without modification,
  12:C:/Users/stapi/OneDrive/Desktop/GD32VW553/GD32VW55X_Wifi_BLE_SDK/GD32VW55x_RELEASE_V1.0.2/MSDK/lwip/lwip-2.1.2/src/core/ipv4\icmp.c ****  * are permitted provided that the following conditions are met:
  13:C:/Users/stapi/OneDrive/Desktop/GD32VW553/GD32VW55X_Wifi_BLE_SDK/GD32VW55x_RELEASE_V1.0.2/MSDK/lwip/lwip-2.1.2/src/core/ipv4\icmp.c ****  *
  14:C:/Users/stapi/OneDrive/Desktop/GD32VW553/GD32VW55X_Wifi_BLE_SDK/GD32VW55x_RELEASE_V1.0.2/MSDK/lwip/lwip-2.1.2/src/core/ipv4\icmp.c ****  * 1. Redistributions of source code must retain the above copyright notice,
  15:C:/Users/stapi/OneDrive/Desktop/GD32VW553/GD32VW55X_Wifi_BLE_SDK/GD32VW55x_RELEASE_V1.0.2/MSDK/lwip/lwip-2.1.2/src/core/ipv4\icmp.c ****  *    this list of conditions and the following disclaimer.
  16:C:/Users/stapi/OneDrive/Desktop/GD32VW553/GD32VW55X_Wifi_BLE_SDK/GD32VW55x_RELEASE_V1.0.2/MSDK/lwip/lwip-2.1.2/src/core/ipv4\icmp.c ****  * 2. Redistributions in binary form must reproduce the above copyright notice,
  17:C:/Users/stapi/OneDrive/Desktop/GD32VW553/GD32VW55X_Wifi_BLE_SDK/GD32VW55x_RELEASE_V1.0.2/MSDK/lwip/lwip-2.1.2/src/core/ipv4\icmp.c ****  *    this list of conditions and the following disclaimer in the documentation
  18:C:/Users/stapi/OneDrive/Desktop/GD32VW553/GD32VW55X_Wifi_BLE_SDK/GD32VW55x_RELEASE_V1.0.2/MSDK/lwip/lwip-2.1.2/src/core/ipv4\icmp.c ****  *    and/or other materials provided with the distribution.
  19:C:/Users/stapi/OneDrive/Desktop/GD32VW553/GD32VW55X_Wifi_BLE_SDK/GD32VW55x_RELEASE_V1.0.2/MSDK/lwip/lwip-2.1.2/src/core/ipv4\icmp.c ****  * 3. The name of the author may not be used to endorse or promote products
  20:C:/Users/stapi/OneDrive/Desktop/GD32VW553/GD32VW55X_Wifi_BLE_SDK/GD32VW55x_RELEASE_V1.0.2/MSDK/lwip/lwip-2.1.2/src/core/ipv4\icmp.c ****  *    derived from this software without specific prior written permission.
  21:C:/Users/stapi/OneDrive/Desktop/GD32VW553/GD32VW55X_Wifi_BLE_SDK/GD32VW55x_RELEASE_V1.0.2/MSDK/lwip/lwip-2.1.2/src/core/ipv4\icmp.c ****  *
  22:C:/Users/stapi/OneDrive/Desktop/GD32VW553/GD32VW55X_Wifi_BLE_SDK/GD32VW55x_RELEASE_V1.0.2/MSDK/lwip/lwip-2.1.2/src/core/ipv4\icmp.c ****  * THIS SOFTWARE IS PROVIDED BY THE AUTHOR ``AS IS'' AND ANY EXPRESS OR IMPLIED
  23:C:/Users/stapi/OneDrive/Desktop/GD32VW553/GD32VW55X_Wifi_BLE_SDK/GD32VW55x_RELEASE_V1.0.2/MSDK/lwip/lwip-2.1.2/src/core/ipv4\icmp.c ****  * WARRANTIES, INCLUDING, BUT NOT LIMITED TO, THE IMPLIED WARRANTIES OF
  24:C:/Users/stapi/OneDrive/Desktop/GD32VW553/GD32VW55X_Wifi_BLE_SDK/GD32VW55x_RELEASE_V1.0.2/MSDK/lwip/lwip-2.1.2/src/core/ipv4\icmp.c ****  * MERCHANTABILITY AND FITNESS FOR A PARTICULAR PURPOSE ARE DISCLAIMED. IN NO EVENT
  25:C:/Users/stapi/OneDrive/Desktop/GD32VW553/GD32VW55X_Wifi_BLE_SDK/GD32VW55x_RELEASE_V1.0.2/MSDK/lwip/lwip-2.1.2/src/core/ipv4\icmp.c ****  * SHALL THE AUTHOR BE LIABLE FOR ANY DIRECT, INDIRECT, INCIDENTAL, SPECIAL,
  26:C:/Users/stapi/OneDrive/Desktop/GD32VW553/GD32VW55X_Wifi_BLE_SDK/GD32VW55x_RELEASE_V1.0.2/MSDK/lwip/lwip-2.1.2/src/core/ipv4\icmp.c ****  * EXEMPLARY, OR CONSEQUENTIAL DAMAGES (INCLUDING, BUT NOT LIMITED TO, PROCUREMENT
  27:C:/Users/stapi/OneDrive/Desktop/GD32VW553/GD32VW55X_Wifi_BLE_SDK/GD32VW55x_RELEASE_V1.0.2/MSDK/lwip/lwip-2.1.2/src/core/ipv4\icmp.c ****  * OF SUBSTITUTE GOODS OR SERVICES; LOSS OF USE, DATA, OR PROFITS; OR BUSINESS
  28:C:/Users/stapi/OneDrive/Desktop/GD32VW553/GD32VW55X_Wifi_BLE_SDK/GD32VW55x_RELEASE_V1.0.2/MSDK/lwip/lwip-2.1.2/src/core/ipv4\icmp.c ****  * INTERRUPTION) HOWEVER CAUSED AND ON ANY THEORY OF LIABILITY, WHETHER IN
  29:C:/Users/stapi/OneDrive/Desktop/GD32VW553/GD32VW55X_Wifi_BLE_SDK/GD32VW55x_RELEASE_V1.0.2/MSDK/lwip/lwip-2.1.2/src/core/ipv4\icmp.c ****  * CONTRACT, STRICT LIABILITY, OR TORT (INCLUDING NEGLIGENCE OR OTHERWISE) ARISING
  30:C:/Users/stapi/OneDrive/Desktop/GD32VW553/GD32VW55X_Wifi_BLE_SDK/GD32VW55x_RELEASE_V1.0.2/MSDK/lwip/lwip-2.1.2/src/core/ipv4\icmp.c ****  * IN ANY WAY OUT OF THE USE OF THIS SOFTWARE, EVEN IF ADVISED OF THE POSSIBILITY
  31:C:/Users/stapi/OneDrive/Desktop/GD32VW553/GD32VW55X_Wifi_BLE_SDK/GD32VW55x_RELEASE_V1.0.2/MSDK/lwip/lwip-2.1.2/src/core/ipv4\icmp.c ****  * OF SUCH DAMAGE.
  32:C:/Users/stapi/OneDrive/Desktop/GD32VW553/GD32VW55X_Wifi_BLE_SDK/GD32VW55x_RELEASE_V1.0.2/MSDK/lwip/lwip-2.1.2/src/core/ipv4\icmp.c ****  *
  33:C:/Users/stapi/OneDrive/Desktop/GD32VW553/GD32VW55X_Wifi_BLE_SDK/GD32VW55x_RELEASE_V1.0.2/MSDK/lwip/lwip-2.1.2/src/core/ipv4\icmp.c ****  * This file is part of the lwIP TCP/IP stack.
  34:C:/Users/stapi/OneDrive/Desktop/GD32VW553/GD32VW55X_Wifi_BLE_SDK/GD32VW55x_RELEASE_V1.0.2/MSDK/lwip/lwip-2.1.2/src/core/ipv4\icmp.c ****  *
  35:C:/Users/stapi/OneDrive/Desktop/GD32VW553/GD32VW55X_Wifi_BLE_SDK/GD32VW55x_RELEASE_V1.0.2/MSDK/lwip/lwip-2.1.2/src/core/ipv4\icmp.c ****  * Author: Adam Dunkels <adam@sics.se>
  36:C:/Users/stapi/OneDrive/Desktop/GD32VW553/GD32VW55X_Wifi_BLE_SDK/GD32VW55x_RELEASE_V1.0.2/MSDK/lwip/lwip-2.1.2/src/core/ipv4\icmp.c ****  *
  37:C:/Users/stapi/OneDrive/Desktop/GD32VW553/GD32VW55X_Wifi_BLE_SDK/GD32VW55x_RELEASE_V1.0.2/MSDK/lwip/lwip-2.1.2/src/core/ipv4\icmp.c ****  */
  38:C:/Users/stapi/OneDrive/Desktop/GD32VW553/GD32VW55X_Wifi_BLE_SDK/GD32VW55x_RELEASE_V1.0.2/MSDK/lwip/lwip-2.1.2/src/core/ipv4\icmp.c **** 
  39:C:/Users/stapi/OneDrive/Desktop/GD32VW553/GD32VW55X_Wifi_BLE_SDK/GD32VW55x_RELEASE_V1.0.2/MSDK/lwip/lwip-2.1.2/src/core/ipv4\icmp.c **** /* Some ICMP messages should be passed to the transport protocols. This
  40:C:/Users/stapi/OneDrive/Desktop/GD32VW553/GD32VW55X_Wifi_BLE_SDK/GD32VW55x_RELEASE_V1.0.2/MSDK/lwip/lwip-2.1.2/src/core/ipv4\icmp.c ****    is not implemented. */
  41:C:/Users/stapi/OneDrive/Desktop/GD32VW553/GD32VW55X_Wifi_BLE_SDK/GD32VW55x_RELEASE_V1.0.2/MSDK/lwip/lwip-2.1.2/src/core/ipv4\icmp.c **** 
  42:C:/Users/stapi/OneDrive/Desktop/GD32VW553/GD32VW55X_Wifi_BLE_SDK/GD32VW55x_RELEASE_V1.0.2/MSDK/lwip/lwip-2.1.2/src/core/ipv4\icmp.c **** #include "lwip/opt.h"
  43:C:/Users/stapi/OneDrive/Desktop/GD32VW553/GD32VW55X_Wifi_BLE_SDK/GD32VW55x_RELEASE_V1.0.2/MSDK/lwip/lwip-2.1.2/src/core/ipv4\icmp.c **** 
  44:C:/Users/stapi/OneDrive/Desktop/GD32VW553/GD32VW55X_Wifi_BLE_SDK/GD32VW55x_RELEASE_V1.0.2/MSDK/lwip/lwip-2.1.2/src/core/ipv4\icmp.c **** #if LWIP_IPV4 && LWIP_ICMP /* don't build if not configured for use in lwipopts.h */
  45:C:/Users/stapi/OneDrive/Desktop/GD32VW553/GD32VW55X_Wifi_BLE_SDK/GD32VW55x_RELEASE_V1.0.2/MSDK/lwip/lwip-2.1.2/src/core/ipv4\icmp.c **** 
  46:C:/Users/stapi/OneDrive/Desktop/GD32VW553/GD32VW55X_Wifi_BLE_SDK/GD32VW55x_RELEASE_V1.0.2/MSDK/lwip/lwip-2.1.2/src/core/ipv4\icmp.c **** #include "lwip/icmp.h"
  47:C:/Users/stapi/OneDrive/Desktop/GD32VW553/GD32VW55X_Wifi_BLE_SDK/GD32VW55x_RELEASE_V1.0.2/MSDK/lwip/lwip-2.1.2/src/core/ipv4\icmp.c **** #include "lwip/inet_chksum.h"
  48:C:/Users/stapi/OneDrive/Desktop/GD32VW553/GD32VW55X_Wifi_BLE_SDK/GD32VW55x_RELEASE_V1.0.2/MSDK/lwip/lwip-2.1.2/src/core/ipv4\icmp.c **** #include "lwip/ip.h"
  49:C:/Users/stapi/OneDrive/Desktop/GD32VW553/GD32VW55X_Wifi_BLE_SDK/GD32VW55x_RELEASE_V1.0.2/MSDK/lwip/lwip-2.1.2/src/core/ipv4\icmp.c **** #include "lwip/def.h"
  50:C:/Users/stapi/OneDrive/Desktop/GD32VW553/GD32VW55X_Wifi_BLE_SDK/GD32VW55x_RELEASE_V1.0.2/MSDK/lwip/lwip-2.1.2/src/core/ipv4\icmp.c **** #include "lwip/stats.h"
  51:C:/Users/stapi/OneDrive/Desktop/GD32VW553/GD32VW55X_Wifi_BLE_SDK/GD32VW55x_RELEASE_V1.0.2/MSDK/lwip/lwip-2.1.2/src/core/ipv4\icmp.c **** 
  52:C:/Users/stapi/OneDrive/Desktop/GD32VW553/GD32VW55X_Wifi_BLE_SDK/GD32VW55x_RELEASE_V1.0.2/MSDK/lwip/lwip-2.1.2/src/core/ipv4\icmp.c **** #include <string.h>
  53:C:/Users/stapi/OneDrive/Desktop/GD32VW553/GD32VW55X_Wifi_BLE_SDK/GD32VW55x_RELEASE_V1.0.2/MSDK/lwip/lwip-2.1.2/src/core/ipv4\icmp.c **** 
  54:C:/Users/stapi/OneDrive/Desktop/GD32VW553/GD32VW55X_Wifi_BLE_SDK/GD32VW55x_RELEASE_V1.0.2/MSDK/lwip/lwip-2.1.2/src/core/ipv4\icmp.c **** #ifdef LWIP_HOOK_FILENAME
  55:C:/Users/stapi/OneDrive/Desktop/GD32VW553/GD32VW55X_Wifi_BLE_SDK/GD32VW55x_RELEASE_V1.0.2/MSDK/lwip/lwip-2.1.2/src/core/ipv4\icmp.c **** #include LWIP_HOOK_FILENAME
  56:C:/Users/stapi/OneDrive/Desktop/GD32VW553/GD32VW55X_Wifi_BLE_SDK/GD32VW55x_RELEASE_V1.0.2/MSDK/lwip/lwip-2.1.2/src/core/ipv4\icmp.c **** #endif
  57:C:/Users/stapi/OneDrive/Desktop/GD32VW553/GD32VW55X_Wifi_BLE_SDK/GD32VW55x_RELEASE_V1.0.2/MSDK/lwip/lwip-2.1.2/src/core/ipv4\icmp.c **** 
  58:C:/Users/stapi/OneDrive/Desktop/GD32VW553/GD32VW55X_Wifi_BLE_SDK/GD32VW55x_RELEASE_V1.0.2/MSDK/lwip/lwip-2.1.2/src/core/ipv4\icmp.c **** /** Small optimization: set to 0 if incoming PBUF_POOL pbuf always can be
  59:C:/Users/stapi/OneDrive/Desktop/GD32VW553/GD32VW55X_Wifi_BLE_SDK/GD32VW55x_RELEASE_V1.0.2/MSDK/lwip/lwip-2.1.2/src/core/ipv4\icmp.c ****  * used to modify and send a response packet (and to 1 if this is not the case,
  60:C:/Users/stapi/OneDrive/Desktop/GD32VW553/GD32VW55X_Wifi_BLE_SDK/GD32VW55x_RELEASE_V1.0.2/MSDK/lwip/lwip-2.1.2/src/core/ipv4\icmp.c ****  * e.g. when link header is stripped off when receiving) */
  61:C:/Users/stapi/OneDrive/Desktop/GD32VW553/GD32VW55X_Wifi_BLE_SDK/GD32VW55x_RELEASE_V1.0.2/MSDK/lwip/lwip-2.1.2/src/core/ipv4\icmp.c **** #ifndef LWIP_ICMP_ECHO_CHECK_INPUT_PBUF_LEN
  62:C:/Users/stapi/OneDrive/Desktop/GD32VW553/GD32VW55X_Wifi_BLE_SDK/GD32VW55x_RELEASE_V1.0.2/MSDK/lwip/lwip-2.1.2/src/core/ipv4\icmp.c **** #define LWIP_ICMP_ECHO_CHECK_INPUT_PBUF_LEN 1
  63:C:/Users/stapi/OneDrive/Desktop/GD32VW553/GD32VW55X_Wifi_BLE_SDK/GD32VW55x_RELEASE_V1.0.2/MSDK/lwip/lwip-2.1.2/src/core/ipv4\icmp.c **** #endif /* LWIP_ICMP_ECHO_CHECK_INPUT_PBUF_LEN */
  64:C:/Users/stapi/OneDrive/Desktop/GD32VW553/GD32VW55X_Wifi_BLE_SDK/GD32VW55x_RELEASE_V1.0.2/MSDK/lwip/lwip-2.1.2/src/core/ipv4\icmp.c **** 
  65:C:/Users/stapi/OneDrive/Desktop/GD32VW553/GD32VW55X_Wifi_BLE_SDK/GD32VW55x_RELEASE_V1.0.2/MSDK/lwip/lwip-2.1.2/src/core/ipv4\icmp.c **** /* The amount of data from the original packet to return in a dest-unreachable */
  66:C:/Users/stapi/OneDrive/Desktop/GD32VW553/GD32VW55X_Wifi_BLE_SDK/GD32VW55x_RELEASE_V1.0.2/MSDK/lwip/lwip-2.1.2/src/core/ipv4\icmp.c **** #define ICMP_DEST_UNREACH_DATASIZE 8
  67:C:/Users/stapi/OneDrive/Desktop/GD32VW553/GD32VW55X_Wifi_BLE_SDK/GD32VW55x_RELEASE_V1.0.2/MSDK/lwip/lwip-2.1.2/src/core/ipv4\icmp.c **** 
  68:C:/Users/stapi/OneDrive/Desktop/GD32VW553/GD32VW55X_Wifi_BLE_SDK/GD32VW55x_RELEASE_V1.0.2/MSDK/lwip/lwip-2.1.2/src/core/ipv4\icmp.c **** static void icmp_send_response(struct pbuf *p, u8_t type, u8_t code);
  69:C:/Users/stapi/OneDrive/Desktop/GD32VW553/GD32VW55X_Wifi_BLE_SDK/GD32VW55x_RELEASE_V1.0.2/MSDK/lwip/lwip-2.1.2/src/core/ipv4\icmp.c **** 
  70:C:/Users/stapi/OneDrive/Desktop/GD32VW553/GD32VW55X_Wifi_BLE_SDK/GD32VW55x_RELEASE_V1.0.2/MSDK/lwip/lwip-2.1.2/src/core/ipv4\icmp.c **** /**
  71:C:/Users/stapi/OneDrive/Desktop/GD32VW553/GD32VW55X_Wifi_BLE_SDK/GD32VW55x_RELEASE_V1.0.2/MSDK/lwip/lwip-2.1.2/src/core/ipv4\icmp.c ****  * Processes ICMP input packets, called from ip_input().
  72:C:/Users/stapi/OneDrive/Desktop/GD32VW553/GD32VW55X_Wifi_BLE_SDK/GD32VW55x_RELEASE_V1.0.2/MSDK/lwip/lwip-2.1.2/src/core/ipv4\icmp.c ****  *
  73:C:/Users/stapi/OneDrive/Desktop/GD32VW553/GD32VW55X_Wifi_BLE_SDK/GD32VW55x_RELEASE_V1.0.2/MSDK/lwip/lwip-2.1.2/src/core/ipv4\icmp.c ****  * Currently only processes icmp echo requests and sends
  74:C:/Users/stapi/OneDrive/Desktop/GD32VW553/GD32VW55X_Wifi_BLE_SDK/GD32VW55x_RELEASE_V1.0.2/MSDK/lwip/lwip-2.1.2/src/core/ipv4\icmp.c ****  * out the echo response.
  75:C:/Users/stapi/OneDrive/Desktop/GD32VW553/GD32VW55X_Wifi_BLE_SDK/GD32VW55x_RELEASE_V1.0.2/MSDK/lwip/lwip-2.1.2/src/core/ipv4\icmp.c ****  *
  76:C:/Users/stapi/OneDrive/Desktop/GD32VW553/GD32VW55X_Wifi_BLE_SDK/GD32VW55x_RELEASE_V1.0.2/MSDK/lwip/lwip-2.1.2/src/core/ipv4\icmp.c ****  * @param p the icmp echo request packet, p->payload pointing to the icmp header
  77:C:/Users/stapi/OneDrive/Desktop/GD32VW553/GD32VW55X_Wifi_BLE_SDK/GD32VW55x_RELEASE_V1.0.2/MSDK/lwip/lwip-2.1.2/src/core/ipv4\icmp.c ****  * @param inp the netif on which this packet was received
  78:C:/Users/stapi/OneDrive/Desktop/GD32VW553/GD32VW55X_Wifi_BLE_SDK/GD32VW55x_RELEASE_V1.0.2/MSDK/lwip/lwip-2.1.2/src/core/ipv4\icmp.c ****  */
  79:C:/Users/stapi/OneDrive/Desktop/GD32VW553/GD32VW55X_Wifi_BLE_SDK/GD32VW55x_RELEASE_V1.0.2/MSDK/lwip/lwip-2.1.2/src/core/ipv4\icmp.c **** void
  80:C:/Users/stapi/OneDrive/Desktop/GD32VW553/GD32VW55X_Wifi_BLE_SDK/GD32VW55x_RELEASE_V1.0.2/MSDK/lwip/lwip-2.1.2/src/core/ipv4\icmp.c **** icmp_input(struct pbuf *p, struct netif *inp)
  81:C:/Users/stapi/OneDrive/Desktop/GD32VW553/GD32VW55X_Wifi_BLE_SDK/GD32VW55x_RELEASE_V1.0.2/MSDK/lwip/lwip-2.1.2/src/core/ipv4\icmp.c **** {
  82:C:/Users/stapi/OneDrive/Desktop/GD32VW553/GD32VW55X_Wifi_BLE_SDK/GD32VW55x_RELEASE_V1.0.2/MSDK/lwip/lwip-2.1.2/src/core/ipv4\icmp.c ****   u8_t type;
  83:C:/Users/stapi/OneDrive/Desktop/GD32VW553/GD32VW55X_Wifi_BLE_SDK/GD32VW55x_RELEASE_V1.0.2/MSDK/lwip/lwip-2.1.2/src/core/ipv4\icmp.c **** #ifdef LWIP_DEBUG
  84:C:/Users/stapi/OneDrive/Desktop/GD32VW553/GD32VW55X_Wifi_BLE_SDK/GD32VW55x_RELEASE_V1.0.2/MSDK/lwip/lwip-2.1.2/src/core/ipv4\icmp.c ****   u8_t code;
  85:C:/Users/stapi/OneDrive/Desktop/GD32VW553/GD32VW55X_Wifi_BLE_SDK/GD32VW55x_RELEASE_V1.0.2/MSDK/lwip/lwip-2.1.2/src/core/ipv4\icmp.c **** #endif /* LWIP_DEBUG */
  86:C:/Users/stapi/OneDrive/Desktop/GD32VW553/GD32VW55X_Wifi_BLE_SDK/GD32VW55x_RELEASE_V1.0.2/MSDK/lwip/lwip-2.1.2/src/core/ipv4\icmp.c ****   struct icmp_echo_hdr *iecho;
  87:C:/Users/stapi/OneDrive/Desktop/GD32VW553/GD32VW55X_Wifi_BLE_SDK/GD32VW55x_RELEASE_V1.0.2/MSDK/lwip/lwip-2.1.2/src/core/ipv4\icmp.c ****   const struct ip_hdr *iphdr_in;
  88:C:/Users/stapi/OneDrive/Desktop/GD32VW553/GD32VW55X_Wifi_BLE_SDK/GD32VW55x_RELEASE_V1.0.2/MSDK/lwip/lwip-2.1.2/src/core/ipv4\icmp.c ****   u16_t hlen;
  89:C:/Users/stapi/OneDrive/Desktop/GD32VW553/GD32VW55X_Wifi_BLE_SDK/GD32VW55x_RELEASE_V1.0.2/MSDK/lwip/lwip-2.1.2/src/core/ipv4\icmp.c ****   const ip4_addr_t *src;
  90:C:/Users/stapi/OneDrive/Desktop/GD32VW553/GD32VW55X_Wifi_BLE_SDK/GD32VW55x_RELEASE_V1.0.2/MSDK/lwip/lwip-2.1.2/src/core/ipv4\icmp.c **** 
  91:C:/Users/stapi/OneDrive/Desktop/GD32VW553/GD32VW55X_Wifi_BLE_SDK/GD32VW55x_RELEASE_V1.0.2/MSDK/lwip/lwip-2.1.2/src/core/ipv4\icmp.c ****   ICMP_STATS_INC(icmp.recv);
  92:C:/Users/stapi/OneDrive/Desktop/GD32VW553/GD32VW55X_Wifi_BLE_SDK/GD32VW55x_RELEASE_V1.0.2/MSDK/lwip/lwip-2.1.2/src/core/ipv4\icmp.c ****   MIB2_STATS_INC(mib2.icmpinmsgs);
  93:C:/Users/stapi/OneDrive/Desktop/GD32VW553/GD32VW55X_Wifi_BLE_SDK/GD32VW55x_RELEASE_V1.0.2/MSDK/lwip/lwip-2.1.2/src/core/ipv4\icmp.c **** 
  94:C:/Users/stapi/OneDrive/Desktop/GD32VW553/GD32VW55X_Wifi_BLE_SDK/GD32VW55x_RELEASE_V1.0.2/MSDK/lwip/lwip-2.1.2/src/core/ipv4\icmp.c ****   iphdr_in = ip4_current_header();
  95:C:/Users/stapi/OneDrive/Desktop/GD32VW553/GD32VW55X_Wifi_BLE_SDK/GD32VW55x_RELEASE_V1.0.2/MSDK/lwip/lwip-2.1.2/src/core/ipv4\icmp.c ****   hlen = IPH_HL_BYTES(iphdr_in);
  96:C:/Users/stapi/OneDrive/Desktop/GD32VW553/GD32VW55X_Wifi_BLE_SDK/GD32VW55x_RELEASE_V1.0.2/MSDK/lwip/lwip-2.1.2/src/core/ipv4\icmp.c ****   if (hlen < IP_HLEN) {
  97:C:/Users/stapi/OneDrive/Desktop/GD32VW553/GD32VW55X_Wifi_BLE_SDK/GD32VW55x_RELEASE_V1.0.2/MSDK/lwip/lwip-2.1.2/src/core/ipv4\icmp.c ****     LWIP_DEBUGF(ICMP_DEBUG, ("icmp_input: short IP header (%"S16_F" bytes) received\n", hlen));
  98:C:/Users/stapi/OneDrive/Desktop/GD32VW553/GD32VW55X_Wifi_BLE_SDK/GD32VW55x_RELEASE_V1.0.2/MSDK/lwip/lwip-2.1.2/src/core/ipv4\icmp.c ****     goto lenerr;
  99:C:/Users/stapi/OneDrive/Desktop/GD32VW553/GD32VW55X_Wifi_BLE_SDK/GD32VW55x_RELEASE_V1.0.2/MSDK/lwip/lwip-2.1.2/src/core/ipv4\icmp.c ****   }
 100:C:/Users/stapi/OneDrive/Desktop/GD32VW553/GD32VW55X_Wifi_BLE_SDK/GD32VW55x_RELEASE_V1.0.2/MSDK/lwip/lwip-2.1.2/src/core/ipv4\icmp.c ****   if (p->len < sizeof(u16_t) * 2) {
 101:C:/Users/stapi/OneDrive/Desktop/GD32VW553/GD32VW55X_Wifi_BLE_SDK/GD32VW55x_RELEASE_V1.0.2/MSDK/lwip/lwip-2.1.2/src/core/ipv4\icmp.c ****     LWIP_DEBUGF(ICMP_DEBUG, ("icmp_input: short ICMP (%"U16_F" bytes) received\n", p->tot_len));
 102:C:/Users/stapi/OneDrive/Desktop/GD32VW553/GD32VW55X_Wifi_BLE_SDK/GD32VW55x_RELEASE_V1.0.2/MSDK/lwip/lwip-2.1.2/src/core/ipv4\icmp.c ****     goto lenerr;
 103:C:/Users/stapi/OneDrive/Desktop/GD32VW553/GD32VW55X_Wifi_BLE_SDK/GD32VW55x_RELEASE_V1.0.2/MSDK/lwip/lwip-2.1.2/src/core/ipv4\icmp.c ****   }
 104:C:/Users/stapi/OneDrive/Desktop/GD32VW553/GD32VW55X_Wifi_BLE_SDK/GD32VW55x_RELEASE_V1.0.2/MSDK/lwip/lwip-2.1.2/src/core/ipv4\icmp.c **** 
 105:C:/Users/stapi/OneDrive/Desktop/GD32VW553/GD32VW55X_Wifi_BLE_SDK/GD32VW55x_RELEASE_V1.0.2/MSDK/lwip/lwip-2.1.2/src/core/ipv4\icmp.c ****   type = *((u8_t *)p->payload);
 106:C:/Users/stapi/OneDrive/Desktop/GD32VW553/GD32VW55X_Wifi_BLE_SDK/GD32VW55x_RELEASE_V1.0.2/MSDK/lwip/lwip-2.1.2/src/core/ipv4\icmp.c **** #ifdef LWIP_DEBUG
 107:C:/Users/stapi/OneDrive/Desktop/GD32VW553/GD32VW55X_Wifi_BLE_SDK/GD32VW55x_RELEASE_V1.0.2/MSDK/lwip/lwip-2.1.2/src/core/ipv4\icmp.c ****   code = *(((u8_t *)p->payload) + 1);
 108:C:/Users/stapi/OneDrive/Desktop/GD32VW553/GD32VW55X_Wifi_BLE_SDK/GD32VW55x_RELEASE_V1.0.2/MSDK/lwip/lwip-2.1.2/src/core/ipv4\icmp.c ****   /* if debug is enabled but debug statement below is somehow disabled: */
 109:C:/Users/stapi/OneDrive/Desktop/GD32VW553/GD32VW55X_Wifi_BLE_SDK/GD32VW55x_RELEASE_V1.0.2/MSDK/lwip/lwip-2.1.2/src/core/ipv4\icmp.c ****   LWIP_UNUSED_ARG(code);
 110:C:/Users/stapi/OneDrive/Desktop/GD32VW553/GD32VW55X_Wifi_BLE_SDK/GD32VW55x_RELEASE_V1.0.2/MSDK/lwip/lwip-2.1.2/src/core/ipv4\icmp.c **** #endif /* LWIP_DEBUG */
 111:C:/Users/stapi/OneDrive/Desktop/GD32VW553/GD32VW55X_Wifi_BLE_SDK/GD32VW55x_RELEASE_V1.0.2/MSDK/lwip/lwip-2.1.2/src/core/ipv4\icmp.c ****   switch (type) {
 112:C:/Users/stapi/OneDrive/Desktop/GD32VW553/GD32VW55X_Wifi_BLE_SDK/GD32VW55x_RELEASE_V1.0.2/MSDK/lwip/lwip-2.1.2/src/core/ipv4\icmp.c ****     case ICMP_ER:
 113:C:/Users/stapi/OneDrive/Desktop/GD32VW553/GD32VW55X_Wifi_BLE_SDK/GD32VW55x_RELEASE_V1.0.2/MSDK/lwip/lwip-2.1.2/src/core/ipv4\icmp.c ****       /* This is OK, echo reply might have been parsed by a raw PCB
 114:C:/Users/stapi/OneDrive/Desktop/GD32VW553/GD32VW55X_Wifi_BLE_SDK/GD32VW55x_RELEASE_V1.0.2/MSDK/lwip/lwip-2.1.2/src/core/ipv4\icmp.c ****          (as obviously, an echo request has been sent, too). */
 115:C:/Users/stapi/OneDrive/Desktop/GD32VW553/GD32VW55X_Wifi_BLE_SDK/GD32VW55x_RELEASE_V1.0.2/MSDK/lwip/lwip-2.1.2/src/core/ipv4\icmp.c ****       MIB2_STATS_INC(mib2.icmpinechoreps);
 116:C:/Users/stapi/OneDrive/Desktop/GD32VW553/GD32VW55X_Wifi_BLE_SDK/GD32VW55x_RELEASE_V1.0.2/MSDK/lwip/lwip-2.1.2/src/core/ipv4\icmp.c ****       break;
 117:C:/Users/stapi/OneDrive/Desktop/GD32VW553/GD32VW55X_Wifi_BLE_SDK/GD32VW55x_RELEASE_V1.0.2/MSDK/lwip/lwip-2.1.2/src/core/ipv4\icmp.c ****     case ICMP_ECHO:
 118:C:/Users/stapi/OneDrive/Desktop/GD32VW553/GD32VW55X_Wifi_BLE_SDK/GD32VW55x_RELEASE_V1.0.2/MSDK/lwip/lwip-2.1.2/src/core/ipv4\icmp.c ****       MIB2_STATS_INC(mib2.icmpinechos);
 119:C:/Users/stapi/OneDrive/Desktop/GD32VW553/GD32VW55X_Wifi_BLE_SDK/GD32VW55x_RELEASE_V1.0.2/MSDK/lwip/lwip-2.1.2/src/core/ipv4\icmp.c ****       src = ip4_current_dest_addr();
 120:C:/Users/stapi/OneDrive/Desktop/GD32VW553/GD32VW55X_Wifi_BLE_SDK/GD32VW55x_RELEASE_V1.0.2/MSDK/lwip/lwip-2.1.2/src/core/ipv4\icmp.c ****       /* multicast destination address? */
 121:C:/Users/stapi/OneDrive/Desktop/GD32VW553/GD32VW55X_Wifi_BLE_SDK/GD32VW55x_RELEASE_V1.0.2/MSDK/lwip/lwip-2.1.2/src/core/ipv4\icmp.c ****       if (ip4_addr_ismulticast(ip4_current_dest_addr())) {
 122:C:/Users/stapi/OneDrive/Desktop/GD32VW553/GD32VW55X_Wifi_BLE_SDK/GD32VW55x_RELEASE_V1.0.2/MSDK/lwip/lwip-2.1.2/src/core/ipv4\icmp.c **** #if LWIP_MULTICAST_PING
 123:C:/Users/stapi/OneDrive/Desktop/GD32VW553/GD32VW55X_Wifi_BLE_SDK/GD32VW55x_RELEASE_V1.0.2/MSDK/lwip/lwip-2.1.2/src/core/ipv4\icmp.c ****         /* For multicast, use address of receiving interface as source address */
 124:C:/Users/stapi/OneDrive/Desktop/GD32VW553/GD32VW55X_Wifi_BLE_SDK/GD32VW55x_RELEASE_V1.0.2/MSDK/lwip/lwip-2.1.2/src/core/ipv4\icmp.c ****         src = netif_ip4_addr(inp);
 125:C:/Users/stapi/OneDrive/Desktop/GD32VW553/GD32VW55X_Wifi_BLE_SDK/GD32VW55x_RELEASE_V1.0.2/MSDK/lwip/lwip-2.1.2/src/core/ipv4\icmp.c **** #else /* LWIP_MULTICAST_PING */
 126:C:/Users/stapi/OneDrive/Desktop/GD32VW553/GD32VW55X_Wifi_BLE_SDK/GD32VW55x_RELEASE_V1.0.2/MSDK/lwip/lwip-2.1.2/src/core/ipv4\icmp.c ****         LWIP_DEBUGF(ICMP_DEBUG, ("icmp_input: Not echoing to multicast pings\n"));
 127:C:/Users/stapi/OneDrive/Desktop/GD32VW553/GD32VW55X_Wifi_BLE_SDK/GD32VW55x_RELEASE_V1.0.2/MSDK/lwip/lwip-2.1.2/src/core/ipv4\icmp.c ****         goto icmperr;
 128:C:/Users/stapi/OneDrive/Desktop/GD32VW553/GD32VW55X_Wifi_BLE_SDK/GD32VW55x_RELEASE_V1.0.2/MSDK/lwip/lwip-2.1.2/src/core/ipv4\icmp.c **** #endif /* LWIP_MULTICAST_PING */
 129:C:/Users/stapi/OneDrive/Desktop/GD32VW553/GD32VW55X_Wifi_BLE_SDK/GD32VW55x_RELEASE_V1.0.2/MSDK/lwip/lwip-2.1.2/src/core/ipv4\icmp.c ****       }
 130:C:/Users/stapi/OneDrive/Desktop/GD32VW553/GD32VW55X_Wifi_BLE_SDK/GD32VW55x_RELEASE_V1.0.2/MSDK/lwip/lwip-2.1.2/src/core/ipv4\icmp.c ****       /* broadcast destination address? */
 131:C:/Users/stapi/OneDrive/Desktop/GD32VW553/GD32VW55X_Wifi_BLE_SDK/GD32VW55x_RELEASE_V1.0.2/MSDK/lwip/lwip-2.1.2/src/core/ipv4\icmp.c ****       if (ip4_addr_isbroadcast(ip4_current_dest_addr(), ip_current_netif())) {
 132:C:/Users/stapi/OneDrive/Desktop/GD32VW553/GD32VW55X_Wifi_BLE_SDK/GD32VW55x_RELEASE_V1.0.2/MSDK/lwip/lwip-2.1.2/src/core/ipv4\icmp.c **** #if LWIP_BROADCAST_PING
 133:C:/Users/stapi/OneDrive/Desktop/GD32VW553/GD32VW55X_Wifi_BLE_SDK/GD32VW55x_RELEASE_V1.0.2/MSDK/lwip/lwip-2.1.2/src/core/ipv4\icmp.c ****         /* For broadcast, use address of receiving interface as source address */
 134:C:/Users/stapi/OneDrive/Desktop/GD32VW553/GD32VW55X_Wifi_BLE_SDK/GD32VW55x_RELEASE_V1.0.2/MSDK/lwip/lwip-2.1.2/src/core/ipv4\icmp.c ****         src = netif_ip4_addr(inp);
 135:C:/Users/stapi/OneDrive/Desktop/GD32VW553/GD32VW55X_Wifi_BLE_SDK/GD32VW55x_RELEASE_V1.0.2/MSDK/lwip/lwip-2.1.2/src/core/ipv4\icmp.c **** #else /* LWIP_BROADCAST_PING */
 136:C:/Users/stapi/OneDrive/Desktop/GD32VW553/GD32VW55X_Wifi_BLE_SDK/GD32VW55x_RELEASE_V1.0.2/MSDK/lwip/lwip-2.1.2/src/core/ipv4\icmp.c ****         LWIP_DEBUGF(ICMP_DEBUG, ("icmp_input: Not echoing to broadcast pings\n"));
 137:C:/Users/stapi/OneDrive/Desktop/GD32VW553/GD32VW55X_Wifi_BLE_SDK/GD32VW55x_RELEASE_V1.0.2/MSDK/lwip/lwip-2.1.2/src/core/ipv4\icmp.c ****         goto icmperr;
 138:C:/Users/stapi/OneDrive/Desktop/GD32VW553/GD32VW55X_Wifi_BLE_SDK/GD32VW55x_RELEASE_V1.0.2/MSDK/lwip/lwip-2.1.2/src/core/ipv4\icmp.c **** #endif /* LWIP_BROADCAST_PING */
 139:C:/Users/stapi/OneDrive/Desktop/GD32VW553/GD32VW55X_Wifi_BLE_SDK/GD32VW55x_RELEASE_V1.0.2/MSDK/lwip/lwip-2.1.2/src/core/ipv4\icmp.c ****       }
 140:C:/Users/stapi/OneDrive/Desktop/GD32VW553/GD32VW55X_Wifi_BLE_SDK/GD32VW55x_RELEASE_V1.0.2/MSDK/lwip/lwip-2.1.2/src/core/ipv4\icmp.c ****       LWIP_DEBUGF(ICMP_DEBUG, ("icmp_input: ping\n"));
 141:C:/Users/stapi/OneDrive/Desktop/GD32VW553/GD32VW55X_Wifi_BLE_SDK/GD32VW55x_RELEASE_V1.0.2/MSDK/lwip/lwip-2.1.2/src/core/ipv4\icmp.c ****       if (p->tot_len < sizeof(struct icmp_echo_hdr)) {
 142:C:/Users/stapi/OneDrive/Desktop/GD32VW553/GD32VW55X_Wifi_BLE_SDK/GD32VW55x_RELEASE_V1.0.2/MSDK/lwip/lwip-2.1.2/src/core/ipv4\icmp.c ****         LWIP_DEBUGF(ICMP_DEBUG, ("icmp_input: bad ICMP echo received\n"));
 143:C:/Users/stapi/OneDrive/Desktop/GD32VW553/GD32VW55X_Wifi_BLE_SDK/GD32VW55x_RELEASE_V1.0.2/MSDK/lwip/lwip-2.1.2/src/core/ipv4\icmp.c ****         goto lenerr;
 144:C:/Users/stapi/OneDrive/Desktop/GD32VW553/GD32VW55X_Wifi_BLE_SDK/GD32VW55x_RELEASE_V1.0.2/MSDK/lwip/lwip-2.1.2/src/core/ipv4\icmp.c ****       }
 145:C:/Users/stapi/OneDrive/Desktop/GD32VW553/GD32VW55X_Wifi_BLE_SDK/GD32VW55x_RELEASE_V1.0.2/MSDK/lwip/lwip-2.1.2/src/core/ipv4\icmp.c **** #if CHECKSUM_CHECK_ICMP
 146:C:/Users/stapi/OneDrive/Desktop/GD32VW553/GD32VW55X_Wifi_BLE_SDK/GD32VW55x_RELEASE_V1.0.2/MSDK/lwip/lwip-2.1.2/src/core/ipv4\icmp.c ****       IF__NETIF_CHECKSUM_ENABLED(inp, NETIF_CHECKSUM_CHECK_ICMP) {
 147:C:/Users/stapi/OneDrive/Desktop/GD32VW553/GD32VW55X_Wifi_BLE_SDK/GD32VW55x_RELEASE_V1.0.2/MSDK/lwip/lwip-2.1.2/src/core/ipv4\icmp.c ****         if (inet_chksum_pbuf(p) != 0) {
 148:C:/Users/stapi/OneDrive/Desktop/GD32VW553/GD32VW55X_Wifi_BLE_SDK/GD32VW55x_RELEASE_V1.0.2/MSDK/lwip/lwip-2.1.2/src/core/ipv4\icmp.c ****           LWIP_DEBUGF(ICMP_DEBUG, ("icmp_input: checksum failed for received ICMP echo\n"));
 149:C:/Users/stapi/OneDrive/Desktop/GD32VW553/GD32VW55X_Wifi_BLE_SDK/GD32VW55x_RELEASE_V1.0.2/MSDK/lwip/lwip-2.1.2/src/core/ipv4\icmp.c ****           pbuf_free(p);
 150:C:/Users/stapi/OneDrive/Desktop/GD32VW553/GD32VW55X_Wifi_BLE_SDK/GD32VW55x_RELEASE_V1.0.2/MSDK/lwip/lwip-2.1.2/src/core/ipv4\icmp.c ****           ICMP_STATS_INC(icmp.chkerr);
 151:C:/Users/stapi/OneDrive/Desktop/GD32VW553/GD32VW55X_Wifi_BLE_SDK/GD32VW55x_RELEASE_V1.0.2/MSDK/lwip/lwip-2.1.2/src/core/ipv4\icmp.c ****           MIB2_STATS_INC(mib2.icmpinerrors);
 152:C:/Users/stapi/OneDrive/Desktop/GD32VW553/GD32VW55X_Wifi_BLE_SDK/GD32VW55x_RELEASE_V1.0.2/MSDK/lwip/lwip-2.1.2/src/core/ipv4\icmp.c ****           return;
 153:C:/Users/stapi/OneDrive/Desktop/GD32VW553/GD32VW55X_Wifi_BLE_SDK/GD32VW55x_RELEASE_V1.0.2/MSDK/lwip/lwip-2.1.2/src/core/ipv4\icmp.c ****         }
 154:C:/Users/stapi/OneDrive/Desktop/GD32VW553/GD32VW55X_Wifi_BLE_SDK/GD32VW55x_RELEASE_V1.0.2/MSDK/lwip/lwip-2.1.2/src/core/ipv4\icmp.c ****       }
 155:C:/Users/stapi/OneDrive/Desktop/GD32VW553/GD32VW55X_Wifi_BLE_SDK/GD32VW55x_RELEASE_V1.0.2/MSDK/lwip/lwip-2.1.2/src/core/ipv4\icmp.c **** #endif
 156:C:/Users/stapi/OneDrive/Desktop/GD32VW553/GD32VW55X_Wifi_BLE_SDK/GD32VW55x_RELEASE_V1.0.2/MSDK/lwip/lwip-2.1.2/src/core/ipv4\icmp.c **** #if LWIP_ICMP_ECHO_CHECK_INPUT_PBUF_LEN
 157:C:/Users/stapi/OneDrive/Desktop/GD32VW553/GD32VW55X_Wifi_BLE_SDK/GD32VW55x_RELEASE_V1.0.2/MSDK/lwip/lwip-2.1.2/src/core/ipv4\icmp.c ****       if (pbuf_add_header(p, hlen + PBUF_LINK_HLEN + PBUF_LINK_ENCAPSULATION_HLEN)) {
 158:C:/Users/stapi/OneDrive/Desktop/GD32VW553/GD32VW55X_Wifi_BLE_SDK/GD32VW55x_RELEASE_V1.0.2/MSDK/lwip/lwip-2.1.2/src/core/ipv4\icmp.c ****         /* p is not big enough to contain link headers
 159:C:/Users/stapi/OneDrive/Desktop/GD32VW553/GD32VW55X_Wifi_BLE_SDK/GD32VW55x_RELEASE_V1.0.2/MSDK/lwip/lwip-2.1.2/src/core/ipv4\icmp.c ****          * allocate a new one and copy p into it
 160:C:/Users/stapi/OneDrive/Desktop/GD32VW553/GD32VW55X_Wifi_BLE_SDK/GD32VW55x_RELEASE_V1.0.2/MSDK/lwip/lwip-2.1.2/src/core/ipv4\icmp.c ****          */
 161:C:/Users/stapi/OneDrive/Desktop/GD32VW553/GD32VW55X_Wifi_BLE_SDK/GD32VW55x_RELEASE_V1.0.2/MSDK/lwip/lwip-2.1.2/src/core/ipv4\icmp.c ****         struct pbuf *r;
 162:C:/Users/stapi/OneDrive/Desktop/GD32VW553/GD32VW55X_Wifi_BLE_SDK/GD32VW55x_RELEASE_V1.0.2/MSDK/lwip/lwip-2.1.2/src/core/ipv4\icmp.c ****         u16_t alloc_len = (u16_t)(p->tot_len + hlen);
 163:C:/Users/stapi/OneDrive/Desktop/GD32VW553/GD32VW55X_Wifi_BLE_SDK/GD32VW55x_RELEASE_V1.0.2/MSDK/lwip/lwip-2.1.2/src/core/ipv4\icmp.c ****         if (alloc_len < p->tot_len) {
 164:C:/Users/stapi/OneDrive/Desktop/GD32VW553/GD32VW55X_Wifi_BLE_SDK/GD32VW55x_RELEASE_V1.0.2/MSDK/lwip/lwip-2.1.2/src/core/ipv4\icmp.c ****           LWIP_DEBUGF(ICMP_DEBUG, ("icmp_input: allocating new pbuf failed (tot_len overflow)\n"));
 165:C:/Users/stapi/OneDrive/Desktop/GD32VW553/GD32VW55X_Wifi_BLE_SDK/GD32VW55x_RELEASE_V1.0.2/MSDK/lwip/lwip-2.1.2/src/core/ipv4\icmp.c ****           goto icmperr;
 166:C:/Users/stapi/OneDrive/Desktop/GD32VW553/GD32VW55X_Wifi_BLE_SDK/GD32VW55x_RELEASE_V1.0.2/MSDK/lwip/lwip-2.1.2/src/core/ipv4\icmp.c ****         }
 167:C:/Users/stapi/OneDrive/Desktop/GD32VW553/GD32VW55X_Wifi_BLE_SDK/GD32VW55x_RELEASE_V1.0.2/MSDK/lwip/lwip-2.1.2/src/core/ipv4\icmp.c ****         /* allocate new packet buffer with space for link headers */
 168:C:/Users/stapi/OneDrive/Desktop/GD32VW553/GD32VW55X_Wifi_BLE_SDK/GD32VW55x_RELEASE_V1.0.2/MSDK/lwip/lwip-2.1.2/src/core/ipv4\icmp.c ****         r = pbuf_alloc(PBUF_LINK, alloc_len, PBUF_RAM);
 169:C:/Users/stapi/OneDrive/Desktop/GD32VW553/GD32VW55X_Wifi_BLE_SDK/GD32VW55x_RELEASE_V1.0.2/MSDK/lwip/lwip-2.1.2/src/core/ipv4\icmp.c ****         if (r == NULL) {
 170:C:/Users/stapi/OneDrive/Desktop/GD32VW553/GD32VW55X_Wifi_BLE_SDK/GD32VW55x_RELEASE_V1.0.2/MSDK/lwip/lwip-2.1.2/src/core/ipv4\icmp.c ****           LWIP_DEBUGF(ICMP_DEBUG, ("icmp_input: allocating new pbuf failed\n"));
 171:C:/Users/stapi/OneDrive/Desktop/GD32VW553/GD32VW55X_Wifi_BLE_SDK/GD32VW55x_RELEASE_V1.0.2/MSDK/lwip/lwip-2.1.2/src/core/ipv4\icmp.c ****           goto icmperr;
 172:C:/Users/stapi/OneDrive/Desktop/GD32VW553/GD32VW55X_Wifi_BLE_SDK/GD32VW55x_RELEASE_V1.0.2/MSDK/lwip/lwip-2.1.2/src/core/ipv4\icmp.c ****         }
 173:C:/Users/stapi/OneDrive/Desktop/GD32VW553/GD32VW55X_Wifi_BLE_SDK/GD32VW55x_RELEASE_V1.0.2/MSDK/lwip/lwip-2.1.2/src/core/ipv4\icmp.c ****         if (r->len < hlen + sizeof(struct icmp_echo_hdr)) {
 174:C:/Users/stapi/OneDrive/Desktop/GD32VW553/GD32VW55X_Wifi_BLE_SDK/GD32VW55x_RELEASE_V1.0.2/MSDK/lwip/lwip-2.1.2/src/core/ipv4\icmp.c ****           LWIP_DEBUGF(ICMP_DEBUG | LWIP_DBG_LEVEL_SERIOUS, ("first pbuf cannot hold the ICMP header
 175:C:/Users/stapi/OneDrive/Desktop/GD32VW553/GD32VW55X_Wifi_BLE_SDK/GD32VW55x_RELEASE_V1.0.2/MSDK/lwip/lwip-2.1.2/src/core/ipv4\icmp.c ****           pbuf_free(r);
 176:C:/Users/stapi/OneDrive/Desktop/GD32VW553/GD32VW55X_Wifi_BLE_SDK/GD32VW55x_RELEASE_V1.0.2/MSDK/lwip/lwip-2.1.2/src/core/ipv4\icmp.c ****           goto icmperr;
 177:C:/Users/stapi/OneDrive/Desktop/GD32VW553/GD32VW55X_Wifi_BLE_SDK/GD32VW55x_RELEASE_V1.0.2/MSDK/lwip/lwip-2.1.2/src/core/ipv4\icmp.c ****         }
 178:C:/Users/stapi/OneDrive/Desktop/GD32VW553/GD32VW55X_Wifi_BLE_SDK/GD32VW55x_RELEASE_V1.0.2/MSDK/lwip/lwip-2.1.2/src/core/ipv4\icmp.c ****         /* copy the ip header */
 179:C:/Users/stapi/OneDrive/Desktop/GD32VW553/GD32VW55X_Wifi_BLE_SDK/GD32VW55x_RELEASE_V1.0.2/MSDK/lwip/lwip-2.1.2/src/core/ipv4\icmp.c ****         MEMCPY(r->payload, iphdr_in, hlen);
 180:C:/Users/stapi/OneDrive/Desktop/GD32VW553/GD32VW55X_Wifi_BLE_SDK/GD32VW55x_RELEASE_V1.0.2/MSDK/lwip/lwip-2.1.2/src/core/ipv4\icmp.c ****         /* switch r->payload back to icmp header (cannot fail) */
 181:C:/Users/stapi/OneDrive/Desktop/GD32VW553/GD32VW55X_Wifi_BLE_SDK/GD32VW55x_RELEASE_V1.0.2/MSDK/lwip/lwip-2.1.2/src/core/ipv4\icmp.c ****         if (pbuf_remove_header(r, hlen)) {
 182:C:/Users/stapi/OneDrive/Desktop/GD32VW553/GD32VW55X_Wifi_BLE_SDK/GD32VW55x_RELEASE_V1.0.2/MSDK/lwip/lwip-2.1.2/src/core/ipv4\icmp.c ****           LWIP_ASSERT("icmp_input: moving r->payload to icmp header failed\n", 0);
 183:C:/Users/stapi/OneDrive/Desktop/GD32VW553/GD32VW55X_Wifi_BLE_SDK/GD32VW55x_RELEASE_V1.0.2/MSDK/lwip/lwip-2.1.2/src/core/ipv4\icmp.c ****           pbuf_free(r);
 184:C:/Users/stapi/OneDrive/Desktop/GD32VW553/GD32VW55X_Wifi_BLE_SDK/GD32VW55x_RELEASE_V1.0.2/MSDK/lwip/lwip-2.1.2/src/core/ipv4\icmp.c ****           goto icmperr;
 185:C:/Users/stapi/OneDrive/Desktop/GD32VW553/GD32VW55X_Wifi_BLE_SDK/GD32VW55x_RELEASE_V1.0.2/MSDK/lwip/lwip-2.1.2/src/core/ipv4\icmp.c ****         }
 186:C:/Users/stapi/OneDrive/Desktop/GD32VW553/GD32VW55X_Wifi_BLE_SDK/GD32VW55x_RELEASE_V1.0.2/MSDK/lwip/lwip-2.1.2/src/core/ipv4\icmp.c ****         /* copy the rest of the packet without ip header */
 187:C:/Users/stapi/OneDrive/Desktop/GD32VW553/GD32VW55X_Wifi_BLE_SDK/GD32VW55x_RELEASE_V1.0.2/MSDK/lwip/lwip-2.1.2/src/core/ipv4\icmp.c ****         if (pbuf_copy(r, p) != ERR_OK) {
 188:C:/Users/stapi/OneDrive/Desktop/GD32VW553/GD32VW55X_Wifi_BLE_SDK/GD32VW55x_RELEASE_V1.0.2/MSDK/lwip/lwip-2.1.2/src/core/ipv4\icmp.c ****           LWIP_DEBUGF(ICMP_DEBUG | LWIP_DBG_LEVEL_SERIOUS, ("icmp_input: copying to new pbuf failed
 189:C:/Users/stapi/OneDrive/Desktop/GD32VW553/GD32VW55X_Wifi_BLE_SDK/GD32VW55x_RELEASE_V1.0.2/MSDK/lwip/lwip-2.1.2/src/core/ipv4\icmp.c ****           pbuf_free(r);
 190:C:/Users/stapi/OneDrive/Desktop/GD32VW553/GD32VW55X_Wifi_BLE_SDK/GD32VW55x_RELEASE_V1.0.2/MSDK/lwip/lwip-2.1.2/src/core/ipv4\icmp.c ****           goto icmperr;
 191:C:/Users/stapi/OneDrive/Desktop/GD32VW553/GD32VW55X_Wifi_BLE_SDK/GD32VW55x_RELEASE_V1.0.2/MSDK/lwip/lwip-2.1.2/src/core/ipv4\icmp.c ****         }
 192:C:/Users/stapi/OneDrive/Desktop/GD32VW553/GD32VW55X_Wifi_BLE_SDK/GD32VW55x_RELEASE_V1.0.2/MSDK/lwip/lwip-2.1.2/src/core/ipv4\icmp.c ****         /* free the original p */
 193:C:/Users/stapi/OneDrive/Desktop/GD32VW553/GD32VW55X_Wifi_BLE_SDK/GD32VW55x_RELEASE_V1.0.2/MSDK/lwip/lwip-2.1.2/src/core/ipv4\icmp.c ****         pbuf_free(p);
 194:C:/Users/stapi/OneDrive/Desktop/GD32VW553/GD32VW55X_Wifi_BLE_SDK/GD32VW55x_RELEASE_V1.0.2/MSDK/lwip/lwip-2.1.2/src/core/ipv4\icmp.c ****         /* we now have an identical copy of p that has room for link headers */
 195:C:/Users/stapi/OneDrive/Desktop/GD32VW553/GD32VW55X_Wifi_BLE_SDK/GD32VW55x_RELEASE_V1.0.2/MSDK/lwip/lwip-2.1.2/src/core/ipv4\icmp.c ****         p = r;
 196:C:/Users/stapi/OneDrive/Desktop/GD32VW553/GD32VW55X_Wifi_BLE_SDK/GD32VW55x_RELEASE_V1.0.2/MSDK/lwip/lwip-2.1.2/src/core/ipv4\icmp.c ****       } else {
 197:C:/Users/stapi/OneDrive/Desktop/GD32VW553/GD32VW55X_Wifi_BLE_SDK/GD32VW55x_RELEASE_V1.0.2/MSDK/lwip/lwip-2.1.2/src/core/ipv4\icmp.c ****         /* restore p->payload to point to icmp header (cannot fail) */
 198:C:/Users/stapi/OneDrive/Desktop/GD32VW553/GD32VW55X_Wifi_BLE_SDK/GD32VW55x_RELEASE_V1.0.2/MSDK/lwip/lwip-2.1.2/src/core/ipv4\icmp.c ****         if (pbuf_remove_header(p, hlen + PBUF_LINK_HLEN + PBUF_LINK_ENCAPSULATION_HLEN)) {
 199:C:/Users/stapi/OneDrive/Desktop/GD32VW553/GD32VW55X_Wifi_BLE_SDK/GD32VW55x_RELEASE_V1.0.2/MSDK/lwip/lwip-2.1.2/src/core/ipv4\icmp.c ****           LWIP_ASSERT("icmp_input: restoring original p->payload failed\n", 0);
 200:C:/Users/stapi/OneDrive/Desktop/GD32VW553/GD32VW55X_Wifi_BLE_SDK/GD32VW55x_RELEASE_V1.0.2/MSDK/lwip/lwip-2.1.2/src/core/ipv4\icmp.c ****           goto icmperr;
 201:C:/Users/stapi/OneDrive/Desktop/GD32VW553/GD32VW55X_Wifi_BLE_SDK/GD32VW55x_RELEASE_V1.0.2/MSDK/lwip/lwip-2.1.2/src/core/ipv4\icmp.c ****         }
 202:C:/Users/stapi/OneDrive/Desktop/GD32VW553/GD32VW55X_Wifi_BLE_SDK/GD32VW55x_RELEASE_V1.0.2/MSDK/lwip/lwip-2.1.2/src/core/ipv4\icmp.c ****       }
 203:C:/Users/stapi/OneDrive/Desktop/GD32VW553/GD32VW55X_Wifi_BLE_SDK/GD32VW55x_RELEASE_V1.0.2/MSDK/lwip/lwip-2.1.2/src/core/ipv4\icmp.c **** #endif /* LWIP_ICMP_ECHO_CHECK_INPUT_PBUF_LEN */
 204:C:/Users/stapi/OneDrive/Desktop/GD32VW553/GD32VW55X_Wifi_BLE_SDK/GD32VW55x_RELEASE_V1.0.2/MSDK/lwip/lwip-2.1.2/src/core/ipv4\icmp.c ****       /* At this point, all checks are OK. */
 205:C:/Users/stapi/OneDrive/Desktop/GD32VW553/GD32VW55X_Wifi_BLE_SDK/GD32VW55x_RELEASE_V1.0.2/MSDK/lwip/lwip-2.1.2/src/core/ipv4\icmp.c ****       /* We generate an answer by switching the dest and src ip addresses,
 206:C:/Users/stapi/OneDrive/Desktop/GD32VW553/GD32VW55X_Wifi_BLE_SDK/GD32VW55x_RELEASE_V1.0.2/MSDK/lwip/lwip-2.1.2/src/core/ipv4\icmp.c ****        * setting the icmp type to ECHO_RESPONSE and updating the checksum. */
 207:C:/Users/stapi/OneDrive/Desktop/GD32VW553/GD32VW55X_Wifi_BLE_SDK/GD32VW55x_RELEASE_V1.0.2/MSDK/lwip/lwip-2.1.2/src/core/ipv4\icmp.c ****       iecho = (struct icmp_echo_hdr *)p->payload;
 208:C:/Users/stapi/OneDrive/Desktop/GD32VW553/GD32VW55X_Wifi_BLE_SDK/GD32VW55x_RELEASE_V1.0.2/MSDK/lwip/lwip-2.1.2/src/core/ipv4\icmp.c ****       if (pbuf_add_header(p, hlen)) {
 209:C:/Users/stapi/OneDrive/Desktop/GD32VW553/GD32VW55X_Wifi_BLE_SDK/GD32VW55x_RELEASE_V1.0.2/MSDK/lwip/lwip-2.1.2/src/core/ipv4\icmp.c ****         LWIP_DEBUGF(ICMP_DEBUG | LWIP_DBG_LEVEL_SERIOUS, ("Can't move over header in packet"));
 210:C:/Users/stapi/OneDrive/Desktop/GD32VW553/GD32VW55X_Wifi_BLE_SDK/GD32VW55x_RELEASE_V1.0.2/MSDK/lwip/lwip-2.1.2/src/core/ipv4\icmp.c ****       } else {
 211:C:/Users/stapi/OneDrive/Desktop/GD32VW553/GD32VW55X_Wifi_BLE_SDK/GD32VW55x_RELEASE_V1.0.2/MSDK/lwip/lwip-2.1.2/src/core/ipv4\icmp.c ****         err_t ret;
 212:C:/Users/stapi/OneDrive/Desktop/GD32VW553/GD32VW55X_Wifi_BLE_SDK/GD32VW55x_RELEASE_V1.0.2/MSDK/lwip/lwip-2.1.2/src/core/ipv4\icmp.c ****         struct ip_hdr *iphdr = (struct ip_hdr *)p->payload;
 213:C:/Users/stapi/OneDrive/Desktop/GD32VW553/GD32VW55X_Wifi_BLE_SDK/GD32VW55x_RELEASE_V1.0.2/MSDK/lwip/lwip-2.1.2/src/core/ipv4\icmp.c ****         ip4_addr_copy(iphdr->src, *src);
 214:C:/Users/stapi/OneDrive/Desktop/GD32VW553/GD32VW55X_Wifi_BLE_SDK/GD32VW55x_RELEASE_V1.0.2/MSDK/lwip/lwip-2.1.2/src/core/ipv4\icmp.c ****         ip4_addr_copy(iphdr->dest, *ip4_current_src_addr());
 215:C:/Users/stapi/OneDrive/Desktop/GD32VW553/GD32VW55X_Wifi_BLE_SDK/GD32VW55x_RELEASE_V1.0.2/MSDK/lwip/lwip-2.1.2/src/core/ipv4\icmp.c ****         ICMPH_TYPE_SET(iecho, ICMP_ER);
 216:C:/Users/stapi/OneDrive/Desktop/GD32VW553/GD32VW55X_Wifi_BLE_SDK/GD32VW55x_RELEASE_V1.0.2/MSDK/lwip/lwip-2.1.2/src/core/ipv4\icmp.c **** #if CHECKSUM_GEN_ICMP
 217:C:/Users/stapi/OneDrive/Desktop/GD32VW553/GD32VW55X_Wifi_BLE_SDK/GD32VW55x_RELEASE_V1.0.2/MSDK/lwip/lwip-2.1.2/src/core/ipv4\icmp.c ****         IF__NETIF_CHECKSUM_ENABLED(inp, NETIF_CHECKSUM_GEN_ICMP) {
 218:C:/Users/stapi/OneDrive/Desktop/GD32VW553/GD32VW55X_Wifi_BLE_SDK/GD32VW55x_RELEASE_V1.0.2/MSDK/lwip/lwip-2.1.2/src/core/ipv4\icmp.c ****           /* adjust the checksum */
 219:C:/Users/stapi/OneDrive/Desktop/GD32VW553/GD32VW55X_Wifi_BLE_SDK/GD32VW55x_RELEASE_V1.0.2/MSDK/lwip/lwip-2.1.2/src/core/ipv4\icmp.c ****           if (iecho->chksum > PP_HTONS(0xffffU - (ICMP_ECHO << 8))) {
 220:C:/Users/stapi/OneDrive/Desktop/GD32VW553/GD32VW55X_Wifi_BLE_SDK/GD32VW55x_RELEASE_V1.0.2/MSDK/lwip/lwip-2.1.2/src/core/ipv4\icmp.c ****             iecho->chksum = (u16_t)(iecho->chksum + PP_HTONS((u16_t)(ICMP_ECHO << 8)) + 1);
 221:C:/Users/stapi/OneDrive/Desktop/GD32VW553/GD32VW55X_Wifi_BLE_SDK/GD32VW55x_RELEASE_V1.0.2/MSDK/lwip/lwip-2.1.2/src/core/ipv4\icmp.c ****           } else {
 222:C:/Users/stapi/OneDrive/Desktop/GD32VW553/GD32VW55X_Wifi_BLE_SDK/GD32VW55x_RELEASE_V1.0.2/MSDK/lwip/lwip-2.1.2/src/core/ipv4\icmp.c ****             iecho->chksum = (u16_t)(iecho->chksum + PP_HTONS(ICMP_ECHO << 8));
 223:C:/Users/stapi/OneDrive/Desktop/GD32VW553/GD32VW55X_Wifi_BLE_SDK/GD32VW55x_RELEASE_V1.0.2/MSDK/lwip/lwip-2.1.2/src/core/ipv4\icmp.c ****           }
 224:C:/Users/stapi/OneDrive/Desktop/GD32VW553/GD32VW55X_Wifi_BLE_SDK/GD32VW55x_RELEASE_V1.0.2/MSDK/lwip/lwip-2.1.2/src/core/ipv4\icmp.c ****         }
 225:C:/Users/stapi/OneDrive/Desktop/GD32VW553/GD32VW55X_Wifi_BLE_SDK/GD32VW55x_RELEASE_V1.0.2/MSDK/lwip/lwip-2.1.2/src/core/ipv4\icmp.c **** #if LWIP_CHECKSUM_CTRL_PER_NETIF
 226:C:/Users/stapi/OneDrive/Desktop/GD32VW553/GD32VW55X_Wifi_BLE_SDK/GD32VW55x_RELEASE_V1.0.2/MSDK/lwip/lwip-2.1.2/src/core/ipv4\icmp.c ****         else {
 227:C:/Users/stapi/OneDrive/Desktop/GD32VW553/GD32VW55X_Wifi_BLE_SDK/GD32VW55x_RELEASE_V1.0.2/MSDK/lwip/lwip-2.1.2/src/core/ipv4\icmp.c ****           iecho->chksum = 0;
 228:C:/Users/stapi/OneDrive/Desktop/GD32VW553/GD32VW55X_Wifi_BLE_SDK/GD32VW55x_RELEASE_V1.0.2/MSDK/lwip/lwip-2.1.2/src/core/ipv4\icmp.c ****         }
 229:C:/Users/stapi/OneDrive/Desktop/GD32VW553/GD32VW55X_Wifi_BLE_SDK/GD32VW55x_RELEASE_V1.0.2/MSDK/lwip/lwip-2.1.2/src/core/ipv4\icmp.c **** #endif /* LWIP_CHECKSUM_CTRL_PER_NETIF */
 230:C:/Users/stapi/OneDrive/Desktop/GD32VW553/GD32VW55X_Wifi_BLE_SDK/GD32VW55x_RELEASE_V1.0.2/MSDK/lwip/lwip-2.1.2/src/core/ipv4\icmp.c **** #else /* CHECKSUM_GEN_ICMP */
 231:C:/Users/stapi/OneDrive/Desktop/GD32VW553/GD32VW55X_Wifi_BLE_SDK/GD32VW55x_RELEASE_V1.0.2/MSDK/lwip/lwip-2.1.2/src/core/ipv4\icmp.c ****         iecho->chksum = 0;
 232:C:/Users/stapi/OneDrive/Desktop/GD32VW553/GD32VW55X_Wifi_BLE_SDK/GD32VW55x_RELEASE_V1.0.2/MSDK/lwip/lwip-2.1.2/src/core/ipv4\icmp.c **** #endif /* CHECKSUM_GEN_ICMP */
 233:C:/Users/stapi/OneDrive/Desktop/GD32VW553/GD32VW55X_Wifi_BLE_SDK/GD32VW55x_RELEASE_V1.0.2/MSDK/lwip/lwip-2.1.2/src/core/ipv4\icmp.c **** 
 234:C:/Users/stapi/OneDrive/Desktop/GD32VW553/GD32VW55X_Wifi_BLE_SDK/GD32VW55x_RELEASE_V1.0.2/MSDK/lwip/lwip-2.1.2/src/core/ipv4\icmp.c ****         /* Set the correct TTL and recalculate the header checksum. */
 235:C:/Users/stapi/OneDrive/Desktop/GD32VW553/GD32VW55X_Wifi_BLE_SDK/GD32VW55x_RELEASE_V1.0.2/MSDK/lwip/lwip-2.1.2/src/core/ipv4\icmp.c ****         IPH_TTL_SET(iphdr, ICMP_TTL);
 236:C:/Users/stapi/OneDrive/Desktop/GD32VW553/GD32VW55X_Wifi_BLE_SDK/GD32VW55x_RELEASE_V1.0.2/MSDK/lwip/lwip-2.1.2/src/core/ipv4\icmp.c ****         IPH_CHKSUM_SET(iphdr, 0);
 237:C:/Users/stapi/OneDrive/Desktop/GD32VW553/GD32VW55X_Wifi_BLE_SDK/GD32VW55x_RELEASE_V1.0.2/MSDK/lwip/lwip-2.1.2/src/core/ipv4\icmp.c **** #if CHECKSUM_GEN_IP
 238:C:/Users/stapi/OneDrive/Desktop/GD32VW553/GD32VW55X_Wifi_BLE_SDK/GD32VW55x_RELEASE_V1.0.2/MSDK/lwip/lwip-2.1.2/src/core/ipv4\icmp.c ****         IF__NETIF_CHECKSUM_ENABLED(inp, NETIF_CHECKSUM_GEN_IP) {
 239:C:/Users/stapi/OneDrive/Desktop/GD32VW553/GD32VW55X_Wifi_BLE_SDK/GD32VW55x_RELEASE_V1.0.2/MSDK/lwip/lwip-2.1.2/src/core/ipv4\icmp.c ****           IPH_CHKSUM_SET(iphdr, inet_chksum(iphdr, hlen));
 240:C:/Users/stapi/OneDrive/Desktop/GD32VW553/GD32VW55X_Wifi_BLE_SDK/GD32VW55x_RELEASE_V1.0.2/MSDK/lwip/lwip-2.1.2/src/core/ipv4\icmp.c ****         }
 241:C:/Users/stapi/OneDrive/Desktop/GD32VW553/GD32VW55X_Wifi_BLE_SDK/GD32VW55x_RELEASE_V1.0.2/MSDK/lwip/lwip-2.1.2/src/core/ipv4\icmp.c **** #endif /* CHECKSUM_GEN_IP */
 242:C:/Users/stapi/OneDrive/Desktop/GD32VW553/GD32VW55X_Wifi_BLE_SDK/GD32VW55x_RELEASE_V1.0.2/MSDK/lwip/lwip-2.1.2/src/core/ipv4\icmp.c **** 
 243:C:/Users/stapi/OneDrive/Desktop/GD32VW553/GD32VW55X_Wifi_BLE_SDK/GD32VW55x_RELEASE_V1.0.2/MSDK/lwip/lwip-2.1.2/src/core/ipv4\icmp.c ****         ICMP_STATS_INC(icmp.xmit);
 244:C:/Users/stapi/OneDrive/Desktop/GD32VW553/GD32VW55X_Wifi_BLE_SDK/GD32VW55x_RELEASE_V1.0.2/MSDK/lwip/lwip-2.1.2/src/core/ipv4\icmp.c ****         /* increase number of messages attempted to send */
 245:C:/Users/stapi/OneDrive/Desktop/GD32VW553/GD32VW55X_Wifi_BLE_SDK/GD32VW55x_RELEASE_V1.0.2/MSDK/lwip/lwip-2.1.2/src/core/ipv4\icmp.c ****         MIB2_STATS_INC(mib2.icmpoutmsgs);
 246:C:/Users/stapi/OneDrive/Desktop/GD32VW553/GD32VW55X_Wifi_BLE_SDK/GD32VW55x_RELEASE_V1.0.2/MSDK/lwip/lwip-2.1.2/src/core/ipv4\icmp.c ****         /* increase number of echo replies attempted to send */
 247:C:/Users/stapi/OneDrive/Desktop/GD32VW553/GD32VW55X_Wifi_BLE_SDK/GD32VW55x_RELEASE_V1.0.2/MSDK/lwip/lwip-2.1.2/src/core/ipv4\icmp.c ****         MIB2_STATS_INC(mib2.icmpoutechoreps);
 248:C:/Users/stapi/OneDrive/Desktop/GD32VW553/GD32VW55X_Wifi_BLE_SDK/GD32VW55x_RELEASE_V1.0.2/MSDK/lwip/lwip-2.1.2/src/core/ipv4\icmp.c **** 
 249:C:/Users/stapi/OneDrive/Desktop/GD32VW553/GD32VW55X_Wifi_BLE_SDK/GD32VW55x_RELEASE_V1.0.2/MSDK/lwip/lwip-2.1.2/src/core/ipv4\icmp.c ****         /* send an ICMP packet */
 250:C:/Users/stapi/OneDrive/Desktop/GD32VW553/GD32VW55X_Wifi_BLE_SDK/GD32VW55x_RELEASE_V1.0.2/MSDK/lwip/lwip-2.1.2/src/core/ipv4\icmp.c ****         ret = ip4_output_if(p, src, LWIP_IP_HDRINCL,
 251:C:/Users/stapi/OneDrive/Desktop/GD32VW553/GD32VW55X_Wifi_BLE_SDK/GD32VW55x_RELEASE_V1.0.2/MSDK/lwip/lwip-2.1.2/src/core/ipv4\icmp.c ****                             ICMP_TTL, 0, IP_PROTO_ICMP, inp);
 252:C:/Users/stapi/OneDrive/Desktop/GD32VW553/GD32VW55X_Wifi_BLE_SDK/GD32VW55x_RELEASE_V1.0.2/MSDK/lwip/lwip-2.1.2/src/core/ipv4\icmp.c ****         if (ret != ERR_OK) {
 253:C:/Users/stapi/OneDrive/Desktop/GD32VW553/GD32VW55X_Wifi_BLE_SDK/GD32VW55x_RELEASE_V1.0.2/MSDK/lwip/lwip-2.1.2/src/core/ipv4\icmp.c ****           LWIP_DEBUGF(ICMP_DEBUG, ("icmp_input: ip_output_if returned an error: %s\n", lwip_strerr(
 254:C:/Users/stapi/OneDrive/Desktop/GD32VW553/GD32VW55X_Wifi_BLE_SDK/GD32VW55x_RELEASE_V1.0.2/MSDK/lwip/lwip-2.1.2/src/core/ipv4\icmp.c ****         }
 255:C:/Users/stapi/OneDrive/Desktop/GD32VW553/GD32VW55X_Wifi_BLE_SDK/GD32VW55x_RELEASE_V1.0.2/MSDK/lwip/lwip-2.1.2/src/core/ipv4\icmp.c ****       }
 256:C:/Users/stapi/OneDrive/Desktop/GD32VW553/GD32VW55X_Wifi_BLE_SDK/GD32VW55x_RELEASE_V1.0.2/MSDK/lwip/lwip-2.1.2/src/core/ipv4\icmp.c ****       break;
 257:C:/Users/stapi/OneDrive/Desktop/GD32VW553/GD32VW55X_Wifi_BLE_SDK/GD32VW55x_RELEASE_V1.0.2/MSDK/lwip/lwip-2.1.2/src/core/ipv4\icmp.c ****     default:
 258:C:/Users/stapi/OneDrive/Desktop/GD32VW553/GD32VW55X_Wifi_BLE_SDK/GD32VW55x_RELEASE_V1.0.2/MSDK/lwip/lwip-2.1.2/src/core/ipv4\icmp.c ****       if (type == ICMP_DUR) {
 259:C:/Users/stapi/OneDrive/Desktop/GD32VW553/GD32VW55X_Wifi_BLE_SDK/GD32VW55x_RELEASE_V1.0.2/MSDK/lwip/lwip-2.1.2/src/core/ipv4\icmp.c ****         MIB2_STATS_INC(mib2.icmpindestunreachs);
 260:C:/Users/stapi/OneDrive/Desktop/GD32VW553/GD32VW55X_Wifi_BLE_SDK/GD32VW55x_RELEASE_V1.0.2/MSDK/lwip/lwip-2.1.2/src/core/ipv4\icmp.c ****       } else if (type == ICMP_TE) {
 261:C:/Users/stapi/OneDrive/Desktop/GD32VW553/GD32VW55X_Wifi_BLE_SDK/GD32VW55x_RELEASE_V1.0.2/MSDK/lwip/lwip-2.1.2/src/core/ipv4\icmp.c ****         MIB2_STATS_INC(mib2.icmpintimeexcds);
 262:C:/Users/stapi/OneDrive/Desktop/GD32VW553/GD32VW55X_Wifi_BLE_SDK/GD32VW55x_RELEASE_V1.0.2/MSDK/lwip/lwip-2.1.2/src/core/ipv4\icmp.c ****       } else if (type == ICMP_PP) {
 263:C:/Users/stapi/OneDrive/Desktop/GD32VW553/GD32VW55X_Wifi_BLE_SDK/GD32VW55x_RELEASE_V1.0.2/MSDK/lwip/lwip-2.1.2/src/core/ipv4\icmp.c ****         MIB2_STATS_INC(mib2.icmpinparmprobs);
 264:C:/Users/stapi/OneDrive/Desktop/GD32VW553/GD32VW55X_Wifi_BLE_SDK/GD32VW55x_RELEASE_V1.0.2/MSDK/lwip/lwip-2.1.2/src/core/ipv4\icmp.c ****       } else if (type == ICMP_SQ) {
 265:C:/Users/stapi/OneDrive/Desktop/GD32VW553/GD32VW55X_Wifi_BLE_SDK/GD32VW55x_RELEASE_V1.0.2/MSDK/lwip/lwip-2.1.2/src/core/ipv4\icmp.c ****         MIB2_STATS_INC(mib2.icmpinsrcquenchs);
 266:C:/Users/stapi/OneDrive/Desktop/GD32VW553/GD32VW55X_Wifi_BLE_SDK/GD32VW55x_RELEASE_V1.0.2/MSDK/lwip/lwip-2.1.2/src/core/ipv4\icmp.c ****       } else if (type == ICMP_RD) {
 267:C:/Users/stapi/OneDrive/Desktop/GD32VW553/GD32VW55X_Wifi_BLE_SDK/GD32VW55x_RELEASE_V1.0.2/MSDK/lwip/lwip-2.1.2/src/core/ipv4\icmp.c ****         MIB2_STATS_INC(mib2.icmpinredirects);
 268:C:/Users/stapi/OneDrive/Desktop/GD32VW553/GD32VW55X_Wifi_BLE_SDK/GD32VW55x_RELEASE_V1.0.2/MSDK/lwip/lwip-2.1.2/src/core/ipv4\icmp.c ****       } else if (type == ICMP_TS) {
 269:C:/Users/stapi/OneDrive/Desktop/GD32VW553/GD32VW55X_Wifi_BLE_SDK/GD32VW55x_RELEASE_V1.0.2/MSDK/lwip/lwip-2.1.2/src/core/ipv4\icmp.c ****         MIB2_STATS_INC(mib2.icmpintimestamps);
 270:C:/Users/stapi/OneDrive/Desktop/GD32VW553/GD32VW55X_Wifi_BLE_SDK/GD32VW55x_RELEASE_V1.0.2/MSDK/lwip/lwip-2.1.2/src/core/ipv4\icmp.c ****       } else if (type == ICMP_TSR) {
 271:C:/Users/stapi/OneDrive/Desktop/GD32VW553/GD32VW55X_Wifi_BLE_SDK/GD32VW55x_RELEASE_V1.0.2/MSDK/lwip/lwip-2.1.2/src/core/ipv4\icmp.c ****         MIB2_STATS_INC(mib2.icmpintimestampreps);
 272:C:/Users/stapi/OneDrive/Desktop/GD32VW553/GD32VW55X_Wifi_BLE_SDK/GD32VW55x_RELEASE_V1.0.2/MSDK/lwip/lwip-2.1.2/src/core/ipv4\icmp.c ****       } else if (type == ICMP_AM) {
 273:C:/Users/stapi/OneDrive/Desktop/GD32VW553/GD32VW55X_Wifi_BLE_SDK/GD32VW55x_RELEASE_V1.0.2/MSDK/lwip/lwip-2.1.2/src/core/ipv4\icmp.c ****         MIB2_STATS_INC(mib2.icmpinaddrmasks);
 274:C:/Users/stapi/OneDrive/Desktop/GD32VW553/GD32VW55X_Wifi_BLE_SDK/GD32VW55x_RELEASE_V1.0.2/MSDK/lwip/lwip-2.1.2/src/core/ipv4\icmp.c ****       } else if (type == ICMP_AMR) {
 275:C:/Users/stapi/OneDrive/Desktop/GD32VW553/GD32VW55X_Wifi_BLE_SDK/GD32VW55x_RELEASE_V1.0.2/MSDK/lwip/lwip-2.1.2/src/core/ipv4\icmp.c ****         MIB2_STATS_INC(mib2.icmpinaddrmaskreps);
 276:C:/Users/stapi/OneDrive/Desktop/GD32VW553/GD32VW55X_Wifi_BLE_SDK/GD32VW55x_RELEASE_V1.0.2/MSDK/lwip/lwip-2.1.2/src/core/ipv4\icmp.c ****       }
 277:C:/Users/stapi/OneDrive/Desktop/GD32VW553/GD32VW55X_Wifi_BLE_SDK/GD32VW55x_RELEASE_V1.0.2/MSDK/lwip/lwip-2.1.2/src/core/ipv4\icmp.c ****       LWIP_DEBUGF(ICMP_DEBUG, ("icmp_input: ICMP type %"S16_F" code %"S16_F" not supported.\n",
 278:C:/Users/stapi/OneDrive/Desktop/GD32VW553/GD32VW55X_Wifi_BLE_SDK/GD32VW55x_RELEASE_V1.0.2/MSDK/lwip/lwip-2.1.2/src/core/ipv4\icmp.c ****                                (s16_t)type, (s16_t)code));
 279:C:/Users/stapi/OneDrive/Desktop/GD32VW553/GD32VW55X_Wifi_BLE_SDK/GD32VW55x_RELEASE_V1.0.2/MSDK/lwip/lwip-2.1.2/src/core/ipv4\icmp.c ****       ICMP_STATS_INC(icmp.proterr);
 280:C:/Users/stapi/OneDrive/Desktop/GD32VW553/GD32VW55X_Wifi_BLE_SDK/GD32VW55x_RELEASE_V1.0.2/MSDK/lwip/lwip-2.1.2/src/core/ipv4\icmp.c ****       ICMP_STATS_INC(icmp.drop);
 281:C:/Users/stapi/OneDrive/Desktop/GD32VW553/GD32VW55X_Wifi_BLE_SDK/GD32VW55x_RELEASE_V1.0.2/MSDK/lwip/lwip-2.1.2/src/core/ipv4\icmp.c ****   }
 282:C:/Users/stapi/OneDrive/Desktop/GD32VW553/GD32VW55X_Wifi_BLE_SDK/GD32VW55x_RELEASE_V1.0.2/MSDK/lwip/lwip-2.1.2/src/core/ipv4\icmp.c ****   pbuf_free(p);
 283:C:/Users/stapi/OneDrive/Desktop/GD32VW553/GD32VW55X_Wifi_BLE_SDK/GD32VW55x_RELEASE_V1.0.2/MSDK/lwip/lwip-2.1.2/src/core/ipv4\icmp.c ****   return;
 284:C:/Users/stapi/OneDrive/Desktop/GD32VW553/GD32VW55X_Wifi_BLE_SDK/GD32VW55x_RELEASE_V1.0.2/MSDK/lwip/lwip-2.1.2/src/core/ipv4\icmp.c **** lenerr:
 285:C:/Users/stapi/OneDrive/Desktop/GD32VW553/GD32VW55X_Wifi_BLE_SDK/GD32VW55x_RELEASE_V1.0.2/MSDK/lwip/lwip-2.1.2/src/core/ipv4\icmp.c ****   pbuf_free(p);
 286:C:/Users/stapi/OneDrive/Desktop/GD32VW553/GD32VW55X_Wifi_BLE_SDK/GD32VW55x_RELEASE_V1.0.2/MSDK/lwip/lwip-2.1.2/src/core/ipv4\icmp.c ****   ICMP_STATS_INC(icmp.lenerr);
 287:C:/Users/stapi/OneDrive/Desktop/GD32VW553/GD32VW55X_Wifi_BLE_SDK/GD32VW55x_RELEASE_V1.0.2/MSDK/lwip/lwip-2.1.2/src/core/ipv4\icmp.c ****   MIB2_STATS_INC(mib2.icmpinerrors);
 288:C:/Users/stapi/OneDrive/Desktop/GD32VW553/GD32VW55X_Wifi_BLE_SDK/GD32VW55x_RELEASE_V1.0.2/MSDK/lwip/lwip-2.1.2/src/core/ipv4\icmp.c ****   return;
 289:C:/Users/stapi/OneDrive/Desktop/GD32VW553/GD32VW55X_Wifi_BLE_SDK/GD32VW55x_RELEASE_V1.0.2/MSDK/lwip/lwip-2.1.2/src/core/ipv4\icmp.c **** #if LWIP_ICMP_ECHO_CHECK_INPUT_PBUF_LEN || !LWIP_MULTICAST_PING || !LWIP_BROADCAST_PING
 290:C:/Users/stapi/OneDrive/Desktop/GD32VW553/GD32VW55X_Wifi_BLE_SDK/GD32VW55x_RELEASE_V1.0.2/MSDK/lwip/lwip-2.1.2/src/core/ipv4\icmp.c **** icmperr:
 291:C:/Users/stapi/OneDrive/Desktop/GD32VW553/GD32VW55X_Wifi_BLE_SDK/GD32VW55x_RELEASE_V1.0.2/MSDK/lwip/lwip-2.1.2/src/core/ipv4\icmp.c ****   pbuf_free(p);
 292:C:/Users/stapi/OneDrive/Desktop/GD32VW553/GD32VW55X_Wifi_BLE_SDK/GD32VW55x_RELEASE_V1.0.2/MSDK/lwip/lwip-2.1.2/src/core/ipv4\icmp.c ****   ICMP_STATS_INC(icmp.err);
 293:C:/Users/stapi/OneDrive/Desktop/GD32VW553/GD32VW55X_Wifi_BLE_SDK/GD32VW55x_RELEASE_V1.0.2/MSDK/lwip/lwip-2.1.2/src/core/ipv4\icmp.c ****   MIB2_STATS_INC(mib2.icmpinerrors);
 294:C:/Users/stapi/OneDrive/Desktop/GD32VW553/GD32VW55X_Wifi_BLE_SDK/GD32VW55x_RELEASE_V1.0.2/MSDK/lwip/lwip-2.1.2/src/core/ipv4\icmp.c ****   return;
 295:C:/Users/stapi/OneDrive/Desktop/GD32VW553/GD32VW55X_Wifi_BLE_SDK/GD32VW55x_RELEASE_V1.0.2/MSDK/lwip/lwip-2.1.2/src/core/ipv4\icmp.c **** #endif /* LWIP_ICMP_ECHO_CHECK_INPUT_PBUF_LEN || !LWIP_MULTICAST_PING || !LWIP_BROADCAST_PING */
 296:C:/Users/stapi/OneDrive/Desktop/GD32VW553/GD32VW55X_Wifi_BLE_SDK/GD32VW55x_RELEASE_V1.0.2/MSDK/lwip/lwip-2.1.2/src/core/ipv4\icmp.c **** }
 297:C:/Users/stapi/OneDrive/Desktop/GD32VW553/GD32VW55X_Wifi_BLE_SDK/GD32VW55x_RELEASE_V1.0.2/MSDK/lwip/lwip-2.1.2/src/core/ipv4\icmp.c **** 
 298:C:/Users/stapi/OneDrive/Desktop/GD32VW553/GD32VW55X_Wifi_BLE_SDK/GD32VW55x_RELEASE_V1.0.2/MSDK/lwip/lwip-2.1.2/src/core/ipv4\icmp.c **** /**
 299:C:/Users/stapi/OneDrive/Desktop/GD32VW553/GD32VW55X_Wifi_BLE_SDK/GD32VW55x_RELEASE_V1.0.2/MSDK/lwip/lwip-2.1.2/src/core/ipv4\icmp.c ****  * Send an icmp 'destination unreachable' packet, called from ip_input() if
 300:C:/Users/stapi/OneDrive/Desktop/GD32VW553/GD32VW55X_Wifi_BLE_SDK/GD32VW55x_RELEASE_V1.0.2/MSDK/lwip/lwip-2.1.2/src/core/ipv4\icmp.c ****  * the transport layer protocol is unknown and from udp_input() if the local
 301:C:/Users/stapi/OneDrive/Desktop/GD32VW553/GD32VW55X_Wifi_BLE_SDK/GD32VW55x_RELEASE_V1.0.2/MSDK/lwip/lwip-2.1.2/src/core/ipv4\icmp.c ****  * port is not bound.
 302:C:/Users/stapi/OneDrive/Desktop/GD32VW553/GD32VW55X_Wifi_BLE_SDK/GD32VW55x_RELEASE_V1.0.2/MSDK/lwip/lwip-2.1.2/src/core/ipv4\icmp.c ****  *
 303:C:/Users/stapi/OneDrive/Desktop/GD32VW553/GD32VW55X_Wifi_BLE_SDK/GD32VW55x_RELEASE_V1.0.2/MSDK/lwip/lwip-2.1.2/src/core/ipv4\icmp.c ****  * @param p the input packet for which the 'unreachable' should be sent,
 304:C:/Users/stapi/OneDrive/Desktop/GD32VW553/GD32VW55X_Wifi_BLE_SDK/GD32VW55x_RELEASE_V1.0.2/MSDK/lwip/lwip-2.1.2/src/core/ipv4\icmp.c ****  *          p->payload pointing to the IP header
 305:C:/Users/stapi/OneDrive/Desktop/GD32VW553/GD32VW55X_Wifi_BLE_SDK/GD32VW55x_RELEASE_V1.0.2/MSDK/lwip/lwip-2.1.2/src/core/ipv4\icmp.c ****  * @param t type of the 'unreachable' packet
 306:C:/Users/stapi/OneDrive/Desktop/GD32VW553/GD32VW55X_Wifi_BLE_SDK/GD32VW55x_RELEASE_V1.0.2/MSDK/lwip/lwip-2.1.2/src/core/ipv4\icmp.c ****  */
 307:C:/Users/stapi/OneDrive/Desktop/GD32VW553/GD32VW55X_Wifi_BLE_SDK/GD32VW55x_RELEASE_V1.0.2/MSDK/lwip/lwip-2.1.2/src/core/ipv4\icmp.c **** void
 308:C:/Users/stapi/OneDrive/Desktop/GD32VW553/GD32VW55X_Wifi_BLE_SDK/GD32VW55x_RELEASE_V1.0.2/MSDK/lwip/lwip-2.1.2/src/core/ipv4\icmp.c **** icmp_dest_unreach(struct pbuf *p, enum icmp_dur_type t)
 309:C:/Users/stapi/OneDrive/Desktop/GD32VW553/GD32VW55X_Wifi_BLE_SDK/GD32VW55x_RELEASE_V1.0.2/MSDK/lwip/lwip-2.1.2/src/core/ipv4\icmp.c **** {
 310:C:/Users/stapi/OneDrive/Desktop/GD32VW553/GD32VW55X_Wifi_BLE_SDK/GD32VW55x_RELEASE_V1.0.2/MSDK/lwip/lwip-2.1.2/src/core/ipv4\icmp.c ****   MIB2_STATS_INC(mib2.icmpoutdestunreachs);
 311:C:/Users/stapi/OneDrive/Desktop/GD32VW553/GD32VW55X_Wifi_BLE_SDK/GD32VW55x_RELEASE_V1.0.2/MSDK/lwip/lwip-2.1.2/src/core/ipv4\icmp.c ****   icmp_send_response(p, ICMP_DUR, t);
 312:C:/Users/stapi/OneDrive/Desktop/GD32VW553/GD32VW55X_Wifi_BLE_SDK/GD32VW55x_RELEASE_V1.0.2/MSDK/lwip/lwip-2.1.2/src/core/ipv4\icmp.c **** }
 313:C:/Users/stapi/OneDrive/Desktop/GD32VW553/GD32VW55X_Wifi_BLE_SDK/GD32VW55x_RELEASE_V1.0.2/MSDK/lwip/lwip-2.1.2/src/core/ipv4\icmp.c **** 
 314:C:/Users/stapi/OneDrive/Desktop/GD32VW553/GD32VW55X_Wifi_BLE_SDK/GD32VW55x_RELEASE_V1.0.2/MSDK/lwip/lwip-2.1.2/src/core/ipv4\icmp.c **** #if IP_FORWARD || IP_REASSEMBLY
 315:C:/Users/stapi/OneDrive/Desktop/GD32VW553/GD32VW55X_Wifi_BLE_SDK/GD32VW55x_RELEASE_V1.0.2/MSDK/lwip/lwip-2.1.2/src/core/ipv4\icmp.c **** /**
 316:C:/Users/stapi/OneDrive/Desktop/GD32VW553/GD32VW55X_Wifi_BLE_SDK/GD32VW55x_RELEASE_V1.0.2/MSDK/lwip/lwip-2.1.2/src/core/ipv4\icmp.c ****  * Send a 'time exceeded' packet, called from ip_forward() if TTL is 0.
 317:C:/Users/stapi/OneDrive/Desktop/GD32VW553/GD32VW55X_Wifi_BLE_SDK/GD32VW55x_RELEASE_V1.0.2/MSDK/lwip/lwip-2.1.2/src/core/ipv4\icmp.c ****  *
 318:C:/Users/stapi/OneDrive/Desktop/GD32VW553/GD32VW55X_Wifi_BLE_SDK/GD32VW55x_RELEASE_V1.0.2/MSDK/lwip/lwip-2.1.2/src/core/ipv4\icmp.c ****  * @param p the input packet for which the 'time exceeded' should be sent,
 319:C:/Users/stapi/OneDrive/Desktop/GD32VW553/GD32VW55X_Wifi_BLE_SDK/GD32VW55x_RELEASE_V1.0.2/MSDK/lwip/lwip-2.1.2/src/core/ipv4\icmp.c ****  *          p->payload pointing to the IP header
 320:C:/Users/stapi/OneDrive/Desktop/GD32VW553/GD32VW55X_Wifi_BLE_SDK/GD32VW55x_RELEASE_V1.0.2/MSDK/lwip/lwip-2.1.2/src/core/ipv4\icmp.c ****  * @param t type of the 'time exceeded' packet
 321:C:/Users/stapi/OneDrive/Desktop/GD32VW553/GD32VW55X_Wifi_BLE_SDK/GD32VW55x_RELEASE_V1.0.2/MSDK/lwip/lwip-2.1.2/src/core/ipv4\icmp.c ****  */
 322:C:/Users/stapi/OneDrive/Desktop/GD32VW553/GD32VW55X_Wifi_BLE_SDK/GD32VW55x_RELEASE_V1.0.2/MSDK/lwip/lwip-2.1.2/src/core/ipv4\icmp.c **** void
 323:C:/Users/stapi/OneDrive/Desktop/GD32VW553/GD32VW55X_Wifi_BLE_SDK/GD32VW55x_RELEASE_V1.0.2/MSDK/lwip/lwip-2.1.2/src/core/ipv4\icmp.c **** icmp_time_exceeded(struct pbuf *p, enum icmp_te_type t)
 324:C:/Users/stapi/OneDrive/Desktop/GD32VW553/GD32VW55X_Wifi_BLE_SDK/GD32VW55x_RELEASE_V1.0.2/MSDK/lwip/lwip-2.1.2/src/core/ipv4\icmp.c **** {
 325:C:/Users/stapi/OneDrive/Desktop/GD32VW553/GD32VW55X_Wifi_BLE_SDK/GD32VW55x_RELEASE_V1.0.2/MSDK/lwip/lwip-2.1.2/src/core/ipv4\icmp.c ****   MIB2_STATS_INC(mib2.icmpouttimeexcds);
 326:C:/Users/stapi/OneDrive/Desktop/GD32VW553/GD32VW55X_Wifi_BLE_SDK/GD32VW55x_RELEASE_V1.0.2/MSDK/lwip/lwip-2.1.2/src/core/ipv4\icmp.c ****   icmp_send_response(p, ICMP_TE, t);
 327:C:/Users/stapi/OneDrive/Desktop/GD32VW553/GD32VW55X_Wifi_BLE_SDK/GD32VW55x_RELEASE_V1.0.2/MSDK/lwip/lwip-2.1.2/src/core/ipv4\icmp.c **** }
 328:C:/Users/stapi/OneDrive/Desktop/GD32VW553/GD32VW55X_Wifi_BLE_SDK/GD32VW55x_RELEASE_V1.0.2/MSDK/lwip/lwip-2.1.2/src/core/ipv4\icmp.c **** 
 329:C:/Users/stapi/OneDrive/Desktop/GD32VW553/GD32VW55X_Wifi_BLE_SDK/GD32VW55x_RELEASE_V1.0.2/MSDK/lwip/lwip-2.1.2/src/core/ipv4\icmp.c **** #endif /* IP_FORWARD || IP_REASSEMBLY */
 330:C:/Users/stapi/OneDrive/Desktop/GD32VW553/GD32VW55X_Wifi_BLE_SDK/GD32VW55x_RELEASE_V1.0.2/MSDK/lwip/lwip-2.1.2/src/core/ipv4\icmp.c **** 
 331:C:/Users/stapi/OneDrive/Desktop/GD32VW553/GD32VW55X_Wifi_BLE_SDK/GD32VW55x_RELEASE_V1.0.2/MSDK/lwip/lwip-2.1.2/src/core/ipv4\icmp.c **** /**
 332:C:/Users/stapi/OneDrive/Desktop/GD32VW553/GD32VW55X_Wifi_BLE_SDK/GD32VW55x_RELEASE_V1.0.2/MSDK/lwip/lwip-2.1.2/src/core/ipv4\icmp.c ****  * Send an icmp packet in response to an incoming packet.
 333:C:/Users/stapi/OneDrive/Desktop/GD32VW553/GD32VW55X_Wifi_BLE_SDK/GD32VW55x_RELEASE_V1.0.2/MSDK/lwip/lwip-2.1.2/src/core/ipv4\icmp.c ****  *
 334:C:/Users/stapi/OneDrive/Desktop/GD32VW553/GD32VW55X_Wifi_BLE_SDK/GD32VW55x_RELEASE_V1.0.2/MSDK/lwip/lwip-2.1.2/src/core/ipv4\icmp.c ****  * @param p the input packet for which the 'unreachable' should be sent,
 335:C:/Users/stapi/OneDrive/Desktop/GD32VW553/GD32VW55X_Wifi_BLE_SDK/GD32VW55x_RELEASE_V1.0.2/MSDK/lwip/lwip-2.1.2/src/core/ipv4\icmp.c ****  *          p->payload pointing to the IP header
 336:C:/Users/stapi/OneDrive/Desktop/GD32VW553/GD32VW55X_Wifi_BLE_SDK/GD32VW55x_RELEASE_V1.0.2/MSDK/lwip/lwip-2.1.2/src/core/ipv4\icmp.c ****  * @param type Type of the ICMP header
 337:C:/Users/stapi/OneDrive/Desktop/GD32VW553/GD32VW55X_Wifi_BLE_SDK/GD32VW55x_RELEASE_V1.0.2/MSDK/lwip/lwip-2.1.2/src/core/ipv4\icmp.c ****  * @param code Code of the ICMP header
 338:C:/Users/stapi/OneDrive/Desktop/GD32VW553/GD32VW55X_Wifi_BLE_SDK/GD32VW55x_RELEASE_V1.0.2/MSDK/lwip/lwip-2.1.2/src/core/ipv4\icmp.c ****  */
 339:C:/Users/stapi/OneDrive/Desktop/GD32VW553/GD32VW55X_Wifi_BLE_SDK/GD32VW55x_RELEASE_V1.0.2/MSDK/lwip/lwip-2.1.2/src/core/ipv4\icmp.c **** static void
 340:C:/Users/stapi/OneDrive/Desktop/GD32VW553/GD32VW55X_Wifi_BLE_SDK/GD32VW55x_RELEASE_V1.0.2/MSDK/lwip/lwip-2.1.2/src/core/ipv4\icmp.c **** icmp_send_response(struct pbuf *p, u8_t type, u8_t code)
 341:C:/Users/stapi/OneDrive/Desktop/GD32VW553/GD32VW55X_Wifi_BLE_SDK/GD32VW55x_RELEASE_V1.0.2/MSDK/lwip/lwip-2.1.2/src/core/ipv4\icmp.c **** {
  25              		.loc 1 341 1
  26              		.cfi_startproc
  27              	.LVL0:
  28 0000 17030000 		call	t0,__riscv_save_5
  28      E7020300 
  29              		.cfi_offset 20, -24
  30              		.cfi_offset 19, -20
  31              		.cfi_offset 18, -16
  32              		.cfi_offset 9, -12
  33              		.cfi_offset 8, -8
  34              		.cfi_offset 1, -4
  35              		.cfi_def_cfa_offset 32
 342:C:/Users/stapi/OneDrive/Desktop/GD32VW553/GD32VW55X_Wifi_BLE_SDK/GD32VW55x_RELEASE_V1.0.2/MSDK/lwip/lwip-2.1.2/src/core/ipv4\icmp.c ****   struct pbuf *q;
  36              		.loc 1 342 3
 343:C:/Users/stapi/OneDrive/Desktop/GD32VW553/GD32VW55X_Wifi_BLE_SDK/GD32VW55x_RELEASE_V1.0.2/MSDK/lwip/lwip-2.1.2/src/core/ipv4\icmp.c ****   struct ip_hdr *iphdr;
  37              		.loc 1 343 3
 344:C:/Users/stapi/OneDrive/Desktop/GD32VW553/GD32VW55X_Wifi_BLE_SDK/GD32VW55x_RELEASE_V1.0.2/MSDK/lwip/lwip-2.1.2/src/core/ipv4\icmp.c ****   /* we can use the echo header here */
 345:C:/Users/stapi/OneDrive/Desktop/GD32VW553/GD32VW55X_Wifi_BLE_SDK/GD32VW55x_RELEASE_V1.0.2/MSDK/lwip/lwip-2.1.2/src/core/ipv4\icmp.c ****   struct icmp_echo_hdr *icmphdr;
  38              		.loc 1 345 3
 346:C:/Users/stapi/OneDrive/Desktop/GD32VW553/GD32VW55X_Wifi_BLE_SDK/GD32VW55x_RELEASE_V1.0.2/MSDK/lwip/lwip-2.1.2/src/core/ipv4\icmp.c ****   ip4_addr_t iphdr_src;
  39              		.loc 1 346 3
 347:C:/Users/stapi/OneDrive/Desktop/GD32VW553/GD32VW55X_Wifi_BLE_SDK/GD32VW55x_RELEASE_V1.0.2/MSDK/lwip/lwip-2.1.2/src/core/ipv4\icmp.c ****   struct netif *netif;
  40              		.loc 1 347 3
 348:C:/Users/stapi/OneDrive/Desktop/GD32VW553/GD32VW55X_Wifi_BLE_SDK/GD32VW55x_RELEASE_V1.0.2/MSDK/lwip/lwip-2.1.2/src/core/ipv4\icmp.c **** 
 349:C:/Users/stapi/OneDrive/Desktop/GD32VW553/GD32VW55X_Wifi_BLE_SDK/GD32VW55x_RELEASE_V1.0.2/MSDK/lwip/lwip-2.1.2/src/core/ipv4\icmp.c ****   /* increase number of messages attempted to send */
 350:C:/Users/stapi/OneDrive/Desktop/GD32VW553/GD32VW55X_Wifi_BLE_SDK/GD32VW55x_RELEASE_V1.0.2/MSDK/lwip/lwip-2.1.2/src/core/ipv4\icmp.c ****   MIB2_STATS_INC(mib2.icmpoutmsgs);
  41              		.loc 1 350 35
 351:C:/Users/stapi/OneDrive/Desktop/GD32VW553/GD32VW55X_Wifi_BLE_SDK/GD32VW55x_RELEASE_V1.0.2/MSDK/lwip/lwip-2.1.2/src/core/ipv4\icmp.c **** 
 352:C:/Users/stapi/OneDrive/Desktop/GD32VW553/GD32VW55X_Wifi_BLE_SDK/GD32VW55x_RELEASE_V1.0.2/MSDK/lwip/lwip-2.1.2/src/core/ipv4\icmp.c ****   /* ICMP header + IP header + 8 bytes of data */
 353:C:/Users/stapi/OneDrive/Desktop/GD32VW553/GD32VW55X_Wifi_BLE_SDK/GD32VW55x_RELEASE_V1.0.2/MSDK/lwip/lwip-2.1.2/src/core/ipv4\icmp.c ****   q = pbuf_alloc(PBUF_IP, sizeof(struct icmp_echo_hdr) + IP_HLEN + ICMP_DEST_UNREACH_DATASIZE,
  42              		.loc 1 353 3
 341:C:/Users/stapi/OneDrive/Desktop/GD32VW553/GD32VW55X_Wifi_BLE_SDK/GD32VW55x_RELEASE_V1.0.2/MSDK/lwip/lwip-2.1.2/src/core/ipv4\icmp.c ****   struct pbuf *q;
  43              		.loc 1 341 1 is_stmt 0
  44 0008 0111     		addi	sp,sp,-32
  45              		.cfi_def_cfa_offset 64
 341:C:/Users/stapi/OneDrive/Desktop/GD32VW553/GD32VW55X_Wifi_BLE_SDK/GD32VW55x_RELEASE_V1.0.2/MSDK/lwip/lwip-2.1.2/src/core/ipv4\icmp.c ****   struct pbuf *q;
  46              		.loc 1 341 1
  47 000a 2A84     		mv	s0,a0
  48 000c 2E8A     		mv	s4,a1
  49 000e B289     		mv	s3,a2
  50              		.loc 1 353 7
  51 0010 93054002 		li	a1,36
  52              	.LVL1:
  53 0014 13060028 		li	a2,640
  54              	.LVL2:
  55 0018 1305E017 		li	a0,382
  56              	.LVL3:
  57 001c 97000000 		call	pbuf_alloc
  57      E7800000 
  58              	.LVL4:
 354:C:/Users/stapi/OneDrive/Desktop/GD32VW553/GD32VW55X_Wifi_BLE_SDK/GD32VW55x_RELEASE_V1.0.2/MSDK/lwip/lwip-2.1.2/src/core/ipv4\icmp.c ****                  PBUF_RAM);
 355:C:/Users/stapi/OneDrive/Desktop/GD32VW553/GD32VW55X_Wifi_BLE_SDK/GD32VW55x_RELEASE_V1.0.2/MSDK/lwip/lwip-2.1.2/src/core/ipv4\icmp.c ****   if (q == NULL) {
  59              		.loc 1 355 3 is_stmt 1
  60              		.loc 1 355 6 is_stmt 0
  61 0024 71C9     		beq	a0,zero,.L1
 356:C:/Users/stapi/OneDrive/Desktop/GD32VW553/GD32VW55X_Wifi_BLE_SDK/GD32VW55x_RELEASE_V1.0.2/MSDK/lwip/lwip-2.1.2/src/core/ipv4\icmp.c ****     LWIP_DEBUGF(ICMP_DEBUG, ("icmp_time_exceeded: failed to allocate pbuf for ICMP packet.\n"));
 357:C:/Users/stapi/OneDrive/Desktop/GD32VW553/GD32VW55X_Wifi_BLE_SDK/GD32VW55x_RELEASE_V1.0.2/MSDK/lwip/lwip-2.1.2/src/core/ipv4\icmp.c ****     MIB2_STATS_INC(mib2.icmpouterrors);
 358:C:/Users/stapi/OneDrive/Desktop/GD32VW553/GD32VW55X_Wifi_BLE_SDK/GD32VW55x_RELEASE_V1.0.2/MSDK/lwip/lwip-2.1.2/src/core/ipv4\icmp.c ****     return;
 359:C:/Users/stapi/OneDrive/Desktop/GD32VW553/GD32VW55X_Wifi_BLE_SDK/GD32VW55x_RELEASE_V1.0.2/MSDK/lwip/lwip-2.1.2/src/core/ipv4\icmp.c ****   }
 360:C:/Users/stapi/OneDrive/Desktop/GD32VW553/GD32VW55X_Wifi_BLE_SDK/GD32VW55x_RELEASE_V1.0.2/MSDK/lwip/lwip-2.1.2/src/core/ipv4\icmp.c ****   LWIP_ASSERT("check that first pbuf can hold icmp message",
  62              		.loc 1 360 3
  63 0026 0357A500 		lhu	a4,10(a0)
  64 002a 93073002 		li	a5,35
  65 002e AA84     		mv	s1,a0
  66              		.loc 1 360 3 is_stmt 1
  67              		.loc 1 360 3
  68 0030 63E5E702 		bgtu	a4,a5,.L4
  69              		.loc 1 360 3 discriminator 1
  70              		.loc 1 360 3 discriminator 1
  71 0034 B7060000 		lui	a3,%hi(.LC0)
  72 0038 B7050000 		lui	a1,%hi(.LC1)
  73 003c 37050000 		lui	a0,%hi(.LC2)
  74              	.LVL5:
  75 0040 93860600 		addi	a3,a3,%lo(.LC0)
  76 0044 13068016 		li	a2,360
  77 0048 93850500 		addi	a1,a1,%lo(.LC1)
  78 004c 13050500 		addi	a0,a0,%lo(.LC2)
  79 0050 97000000 		call	printf
  79      E7800000 
  80              	.LVL6:
  81              	.L5:
  82              		.loc 1 360 3 discriminator 1
  83              		.loc 1 360 3 discriminator 1
  84              		.loc 1 360 3 discriminator 1
  85 0058 01A0     		j	.L5
  86              	.L4:
  87              		.loc 1 360 3 discriminator 2
  88              		.loc 1 360 3 discriminator 2
 361:C:/Users/stapi/OneDrive/Desktop/GD32VW553/GD32VW55X_Wifi_BLE_SDK/GD32VW55x_RELEASE_V1.0.2/MSDK/lwip/lwip-2.1.2/src/core/ipv4\icmp.c ****               (q->len >= (sizeof(struct icmp_echo_hdr) + IP_HLEN + ICMP_DEST_UNREACH_DATASIZE)));
 362:C:/Users/stapi/OneDrive/Desktop/GD32VW553/GD32VW55X_Wifi_BLE_SDK/GD32VW55x_RELEASE_V1.0.2/MSDK/lwip/lwip-2.1.2/src/core/ipv4\icmp.c **** 
 363:C:/Users/stapi/OneDrive/Desktop/GD32VW553/GD32VW55X_Wifi_BLE_SDK/GD32VW55x_RELEASE_V1.0.2/MSDK/lwip/lwip-2.1.2/src/core/ipv4\icmp.c ****   iphdr = (struct ip_hdr *)p->payload;
  89              		.loc 1 363 3 discriminator 2
  90              		.loc 1 363 9 is_stmt 0 discriminator 2
  91 005a 03294400 		lw	s2,4(s0)
  92              	.LVL7:
 364:C:/Users/stapi/OneDrive/Desktop/GD32VW553/GD32VW55X_Wifi_BLE_SDK/GD32VW55x_RELEASE_V1.0.2/MSDK/lwip/lwip-2.1.2/src/core/ipv4\icmp.c ****   LWIP_DEBUGF(ICMP_DEBUG, ("icmp_time_exceeded from "));
  93              		.loc 1 364 56 is_stmt 1 discriminator 2
 365:C:/Users/stapi/OneDrive/Desktop/GD32VW553/GD32VW55X_Wifi_BLE_SDK/GD32VW55x_RELEASE_V1.0.2/MSDK/lwip/lwip-2.1.2/src/core/ipv4\icmp.c ****   ip4_addr_debug_print_val(ICMP_DEBUG, iphdr->src);
  94              		.loc 1 365 51 discriminator 2
 366:C:/Users/stapi/OneDrive/Desktop/GD32VW553/GD32VW55X_Wifi_BLE_SDK/GD32VW55x_RELEASE_V1.0.2/MSDK/lwip/lwip-2.1.2/src/core/ipv4\icmp.c ****   LWIP_DEBUGF(ICMP_DEBUG, (" to "));
  95              		.loc 1 366 36 discriminator 2
 367:C:/Users/stapi/OneDrive/Desktop/GD32VW553/GD32VW55X_Wifi_BLE_SDK/GD32VW55x_RELEASE_V1.0.2/MSDK/lwip/lwip-2.1.2/src/core/ipv4\icmp.c ****   ip4_addr_debug_print_val(ICMP_DEBUG, iphdr->dest);
  96              		.loc 1 367 52 discriminator 2
 368:C:/Users/stapi/OneDrive/Desktop/GD32VW553/GD32VW55X_Wifi_BLE_SDK/GD32VW55x_RELEASE_V1.0.2/MSDK/lwip/lwip-2.1.2/src/core/ipv4\icmp.c ****   LWIP_DEBUGF(ICMP_DEBUG, ("\n"));
  97              		.loc 1 368 34 discriminator 2
 369:C:/Users/stapi/OneDrive/Desktop/GD32VW553/GD32VW55X_Wifi_BLE_SDK/GD32VW55x_RELEASE_V1.0.2/MSDK/lwip/lwip-2.1.2/src/core/ipv4\icmp.c **** 
 370:C:/Users/stapi/OneDrive/Desktop/GD32VW553/GD32VW55X_Wifi_BLE_SDK/GD32VW55x_RELEASE_V1.0.2/MSDK/lwip/lwip-2.1.2/src/core/ipv4\icmp.c ****   icmphdr = (struct icmp_echo_hdr *)q->payload;
  98              		.loc 1 370 3 discriminator 2
  99              		.loc 1 370 11 is_stmt 0 discriminator 2
 100 005e 4041     		lw	s0,4(a0)
 101              	.LVL8:
 371:C:/Users/stapi/OneDrive/Desktop/GD32VW553/GD32VW55X_Wifi_BLE_SDK/GD32VW55x_RELEASE_V1.0.2/MSDK/lwip/lwip-2.1.2/src/core/ipv4\icmp.c ****   icmphdr->type = type;
 102              		.loc 1 371 3 is_stmt 1 discriminator 2
 372:C:/Users/stapi/OneDrive/Desktop/GD32VW553/GD32VW55X_Wifi_BLE_SDK/GD32VW55x_RELEASE_V1.0.2/MSDK/lwip/lwip-2.1.2/src/core/ipv4\icmp.c ****   icmphdr->code = code;
 373:C:/Users/stapi/OneDrive/Desktop/GD32VW553/GD32VW55X_Wifi_BLE_SDK/GD32VW55x_RELEASE_V1.0.2/MSDK/lwip/lwip-2.1.2/src/core/ipv4\icmp.c ****   icmphdr->id = 0;
 374:C:/Users/stapi/OneDrive/Desktop/GD32VW553/GD32VW55X_Wifi_BLE_SDK/GD32VW55x_RELEASE_V1.0.2/MSDK/lwip/lwip-2.1.2/src/core/ipv4\icmp.c ****   icmphdr->seqno = 0;
 375:C:/Users/stapi/OneDrive/Desktop/GD32VW553/GD32VW55X_Wifi_BLE_SDK/GD32VW55x_RELEASE_V1.0.2/MSDK/lwip/lwip-2.1.2/src/core/ipv4\icmp.c **** 
 376:C:/Users/stapi/OneDrive/Desktop/GD32VW553/GD32VW55X_Wifi_BLE_SDK/GD32VW55x_RELEASE_V1.0.2/MSDK/lwip/lwip-2.1.2/src/core/ipv4\icmp.c ****   /* copy fields from original packet */
 377:C:/Users/stapi/OneDrive/Desktop/GD32VW553/GD32VW55X_Wifi_BLE_SDK/GD32VW55x_RELEASE_V1.0.2/MSDK/lwip/lwip-2.1.2/src/core/ipv4\icmp.c ****   SMEMCPY((u8_t *)q->payload + sizeof(struct icmp_echo_hdr), (u8_t *)p->payload,
 103              		.loc 1 377 3 is_stmt 0 discriminator 2
 104 0060 7146     		li	a2,28
 105 0062 CA85     		mv	a1,s2
 371:C:/Users/stapi/OneDrive/Desktop/GD32VW553/GD32VW55X_Wifi_BLE_SDK/GD32VW55x_RELEASE_V1.0.2/MSDK/lwip/lwip-2.1.2/src/core/ipv4\icmp.c ****   icmphdr->type = type;
 106              		.loc 1 371 17 discriminator 2
 107 0064 23004401 		sb	s4,0(s0)
 372:C:/Users/stapi/OneDrive/Desktop/GD32VW553/GD32VW55X_Wifi_BLE_SDK/GD32VW55x_RELEASE_V1.0.2/MSDK/lwip/lwip-2.1.2/src/core/ipv4\icmp.c ****   icmphdr->code = code;
 108              		.loc 1 372 3 is_stmt 1 discriminator 2
 372:C:/Users/stapi/OneDrive/Desktop/GD32VW553/GD32VW55X_Wifi_BLE_SDK/GD32VW55x_RELEASE_V1.0.2/MSDK/lwip/lwip-2.1.2/src/core/ipv4\icmp.c ****   icmphdr->code = code;
 109              		.loc 1 372 17 is_stmt 0 discriminator 2
 110 0068 A3003401 		sb	s3,1(s0)
 373:C:/Users/stapi/OneDrive/Desktop/GD32VW553/GD32VW55X_Wifi_BLE_SDK/GD32VW55x_RELEASE_V1.0.2/MSDK/lwip/lwip-2.1.2/src/core/ipv4\icmp.c ****   icmphdr->seqno = 0;
 111              		.loc 1 373 3 is_stmt 1 discriminator 2
 373:C:/Users/stapi/OneDrive/Desktop/GD32VW553/GD32VW55X_Wifi_BLE_SDK/GD32VW55x_RELEASE_V1.0.2/MSDK/lwip/lwip-2.1.2/src/core/ipv4\icmp.c ****   icmphdr->seqno = 0;
 112              		.loc 1 373 15 is_stmt 0 discriminator 2
 113 006c 23020400 		sb	zero,4(s0)
 114 0070 A3020400 		sb	zero,5(s0)
 374:C:/Users/stapi/OneDrive/Desktop/GD32VW553/GD32VW55X_Wifi_BLE_SDK/GD32VW55x_RELEASE_V1.0.2/MSDK/lwip/lwip-2.1.2/src/core/ipv4\icmp.c **** 
 115              		.loc 1 374 3 is_stmt 1 discriminator 2
 374:C:/Users/stapi/OneDrive/Desktop/GD32VW553/GD32VW55X_Wifi_BLE_SDK/GD32VW55x_RELEASE_V1.0.2/MSDK/lwip/lwip-2.1.2/src/core/ipv4\icmp.c **** 
 116              		.loc 1 374 18 is_stmt 0 discriminator 2
 117 0074 23030400 		sb	zero,6(s0)
 118 0078 A3030400 		sb	zero,7(s0)
 119              		.loc 1 377 3 is_stmt 1 discriminator 2
 120 007c 13058400 		addi	a0,s0,8
 121 0080 97000000 		call	memcpy
 121      E7800000 
 122              	.LVL9:
 378:C:/Users/stapi/OneDrive/Desktop/GD32VW553/GD32VW55X_Wifi_BLE_SDK/GD32VW55x_RELEASE_V1.0.2/MSDK/lwip/lwip-2.1.2/src/core/ipv4\icmp.c ****           IP_HLEN + ICMP_DEST_UNREACH_DATASIZE);
 379:C:/Users/stapi/OneDrive/Desktop/GD32VW553/GD32VW55X_Wifi_BLE_SDK/GD32VW55x_RELEASE_V1.0.2/MSDK/lwip/lwip-2.1.2/src/core/ipv4\icmp.c **** 
 380:C:/Users/stapi/OneDrive/Desktop/GD32VW553/GD32VW55X_Wifi_BLE_SDK/GD32VW55x_RELEASE_V1.0.2/MSDK/lwip/lwip-2.1.2/src/core/ipv4\icmp.c ****   ip4_addr_copy(iphdr_src, iphdr->src);
 123              		.loc 1 380 3 discriminator 2
 124 0088 0347D900 		lbu	a4,13(s2)
 125 008c 8347C900 		lbu	a5,12(s2)
 381:C:/Users/stapi/OneDrive/Desktop/GD32VW553/GD32VW55X_Wifi_BLE_SDK/GD32VW55x_RELEASE_V1.0.2/MSDK/lwip/lwip-2.1.2/src/core/ipv4\icmp.c **** #ifdef LWIP_HOOK_IP4_ROUTE_SRC
 382:C:/Users/stapi/OneDrive/Desktop/GD32VW553/GD32VW55X_Wifi_BLE_SDK/GD32VW55x_RELEASE_V1.0.2/MSDK/lwip/lwip-2.1.2/src/core/ipv4\icmp.c ****   {
 383:C:/Users/stapi/OneDrive/Desktop/GD32VW553/GD32VW55X_Wifi_BLE_SDK/GD32VW55x_RELEASE_V1.0.2/MSDK/lwip/lwip-2.1.2/src/core/ipv4\icmp.c ****     ip4_addr_t iphdr_dst;
 384:C:/Users/stapi/OneDrive/Desktop/GD32VW553/GD32VW55X_Wifi_BLE_SDK/GD32VW55x_RELEASE_V1.0.2/MSDK/lwip/lwip-2.1.2/src/core/ipv4\icmp.c ****     ip4_addr_copy(iphdr_dst, iphdr->dest);
 385:C:/Users/stapi/OneDrive/Desktop/GD32VW553/GD32VW55X_Wifi_BLE_SDK/GD32VW55x_RELEASE_V1.0.2/MSDK/lwip/lwip-2.1.2/src/core/ipv4\icmp.c ****     netif = ip4_route_src(&iphdr_dst, &iphdr_src);
 386:C:/Users/stapi/OneDrive/Desktop/GD32VW553/GD32VW55X_Wifi_BLE_SDK/GD32VW55x_RELEASE_V1.0.2/MSDK/lwip/lwip-2.1.2/src/core/ipv4\icmp.c ****   }
 387:C:/Users/stapi/OneDrive/Desktop/GD32VW553/GD32VW55X_Wifi_BLE_SDK/GD32VW55x_RELEASE_V1.0.2/MSDK/lwip/lwip-2.1.2/src/core/ipv4\icmp.c **** #else
 388:C:/Users/stapi/OneDrive/Desktop/GD32VW553/GD32VW55X_Wifi_BLE_SDK/GD32VW55x_RELEASE_V1.0.2/MSDK/lwip/lwip-2.1.2/src/core/ipv4\icmp.c ****   netif = ip4_route(&iphdr_src);
 126              		.loc 1 388 11 is_stmt 0 discriminator 2
 127 0090 6808     		addi	a0,sp,28
 380:C:/Users/stapi/OneDrive/Desktop/GD32VW553/GD32VW55X_Wifi_BLE_SDK/GD32VW55x_RELEASE_V1.0.2/MSDK/lwip/lwip-2.1.2/src/core/ipv4\icmp.c **** #ifdef LWIP_HOOK_IP4_ROUTE_SRC
 128              		.loc 1 380 3 discriminator 2
 129 0092 2207     		slli	a4,a4,8
 130 0094 5D8F     		or	a4,a4,a5
 131 0096 8347E900 		lbu	a5,14(s2)
 132 009a C207     		slli	a5,a5,16
 133 009c 5D8F     		or	a4,a5,a4
 134 009e 8347F900 		lbu	a5,15(s2)
 135 00a2 E207     		slli	a5,a5,24
 136 00a4 D98F     		or	a5,a5,a4
 137 00a6 3ECE     		sw	a5,28(sp)
 138              		.loc 1 388 3 is_stmt 1 discriminator 2
 139              		.loc 1 388 11 is_stmt 0 discriminator 2
 140 00a8 97000000 		call	ip4_route
 140      E7800000 
 141              	.LVL10:
 389:C:/Users/stapi/OneDrive/Desktop/GD32VW553/GD32VW55X_Wifi_BLE_SDK/GD32VW55x_RELEASE_V1.0.2/MSDK/lwip/lwip-2.1.2/src/core/ipv4\icmp.c **** #endif
 390:C:/Users/stapi/OneDrive/Desktop/GD32VW553/GD32VW55X_Wifi_BLE_SDK/GD32VW55x_RELEASE_V1.0.2/MSDK/lwip/lwip-2.1.2/src/core/ipv4\icmp.c ****   if (netif != NULL) {
 142              		.loc 1 390 3 is_stmt 1 discriminator 2
 143              		.loc 1 390 6 is_stmt 0 discriminator 2
 144 00b0 2AC6     		sw	a0,12(sp)
 145 00b2 15CD     		beq	a0,zero,.L6
 391:C:/Users/stapi/OneDrive/Desktop/GD32VW553/GD32VW55X_Wifi_BLE_SDK/GD32VW55x_RELEASE_V1.0.2/MSDK/lwip/lwip-2.1.2/src/core/ipv4\icmp.c ****     /* calculate checksum */
 392:C:/Users/stapi/OneDrive/Desktop/GD32VW553/GD32VW55X_Wifi_BLE_SDK/GD32VW55x_RELEASE_V1.0.2/MSDK/lwip/lwip-2.1.2/src/core/ipv4\icmp.c ****     icmphdr->chksum = 0;
 146              		.loc 1 392 5 is_stmt 1
 393:C:/Users/stapi/OneDrive/Desktop/GD32VW553/GD32VW55X_Wifi_BLE_SDK/GD32VW55x_RELEASE_V1.0.2/MSDK/lwip/lwip-2.1.2/src/core/ipv4\icmp.c **** #if CHECKSUM_GEN_ICMP
 394:C:/Users/stapi/OneDrive/Desktop/GD32VW553/GD32VW55X_Wifi_BLE_SDK/GD32VW55x_RELEASE_V1.0.2/MSDK/lwip/lwip-2.1.2/src/core/ipv4\icmp.c ****     IF__NETIF_CHECKSUM_ENABLED(netif, NETIF_CHECKSUM_GEN_ICMP) {
 395:C:/Users/stapi/OneDrive/Desktop/GD32VW553/GD32VW55X_Wifi_BLE_SDK/GD32VW55x_RELEASE_V1.0.2/MSDK/lwip/lwip-2.1.2/src/core/ipv4\icmp.c ****       icmphdr->chksum = inet_chksum(icmphdr, q->len);
 147              		.loc 1 395 25 is_stmt 0
 148 00b4 83D5A400 		lhu	a1,10(s1)
 392:C:/Users/stapi/OneDrive/Desktop/GD32VW553/GD32VW55X_Wifi_BLE_SDK/GD32VW55x_RELEASE_V1.0.2/MSDK/lwip/lwip-2.1.2/src/core/ipv4\icmp.c **** #if CHECKSUM_GEN_ICMP
 149              		.loc 1 392 21
 150 00b8 23010400 		sb	zero,2(s0)
 151 00bc A3010400 		sb	zero,3(s0)
 152              		.loc 1 395 7 is_stmt 1
 153              		.loc 1 395 25 is_stmt 0
 154 00c0 2285     		mv	a0,s0
 155              	.LVL11:
 156 00c2 97000000 		call	inet_chksum
 156      E7800000 
 157              	.LVL12:
 396:C:/Users/stapi/OneDrive/Desktop/GD32VW553/GD32VW55X_Wifi_BLE_SDK/GD32VW55x_RELEASE_V1.0.2/MSDK/lwip/lwip-2.1.2/src/core/ipv4\icmp.c ****     }
 397:C:/Users/stapi/OneDrive/Desktop/GD32VW553/GD32VW55X_Wifi_BLE_SDK/GD32VW55x_RELEASE_V1.0.2/MSDK/lwip/lwip-2.1.2/src/core/ipv4\icmp.c **** #endif
 398:C:/Users/stapi/OneDrive/Desktop/GD32VW553/GD32VW55X_Wifi_BLE_SDK/GD32VW55x_RELEASE_V1.0.2/MSDK/lwip/lwip-2.1.2/src/core/ipv4\icmp.c ****     ICMP_STATS_INC(icmp.xmit);
 399:C:/Users/stapi/OneDrive/Desktop/GD32VW553/GD32VW55X_Wifi_BLE_SDK/GD32VW55x_RELEASE_V1.0.2/MSDK/lwip/lwip-2.1.2/src/core/ipv4\icmp.c ****     ip4_output_if(q, NULL, &iphdr_src, ICMP_TTL, 0, IP_PROTO_ICMP, netif);
 158              		.loc 1 399 5
 159 00ca 3248     		lw	a6,12(sp)
 395:C:/Users/stapi/OneDrive/Desktop/GD32VW553/GD32VW55X_Wifi_BLE_SDK/GD32VW55x_RELEASE_V1.0.2/MSDK/lwip/lwip-2.1.2/src/core/ipv4\icmp.c ****     }
 160              		.loc 1 395 23
 161 00cc 93578500 		srli	a5,a0,8
 162 00d0 2301A400 		sb	a0,2(s0)
 163 00d4 A301F400 		sb	a5,3(s0)
 398:C:/Users/stapi/OneDrive/Desktop/GD32VW553/GD32VW55X_Wifi_BLE_SDK/GD32VW55x_RELEASE_V1.0.2/MSDK/lwip/lwip-2.1.2/src/core/ipv4\icmp.c ****     ip4_output_if(q, NULL, &iphdr_src, ICMP_TTL, 0, IP_PROTO_ICMP, netif);
 164              		.loc 1 398 30 is_stmt 1
 165              		.loc 1 399 5
 166 00d8 0147     		li	a4,0
 167 00da 8547     		li	a5,1
 168 00dc 9306F00F 		li	a3,255
 169 00e0 7008     		addi	a2,sp,28
 170 00e2 8145     		li	a1,0
 171 00e4 2685     		mv	a0,s1
 172 00e6 97000000 		call	ip4_output_if
 172      E7800000 
 173              	.LVL13:
 174              	.L6:
 400:C:/Users/stapi/OneDrive/Desktop/GD32VW553/GD32VW55X_Wifi_BLE_SDK/GD32VW55x_RELEASE_V1.0.2/MSDK/lwip/lwip-2.1.2/src/core/ipv4\icmp.c ****   }
 401:C:/Users/stapi/OneDrive/Desktop/GD32VW553/GD32VW55X_Wifi_BLE_SDK/GD32VW55x_RELEASE_V1.0.2/MSDK/lwip/lwip-2.1.2/src/core/ipv4\icmp.c ****   pbuf_free(q);
 175              		.loc 1 401 3
 176 00ee 2685     		mv	a0,s1
 177 00f0 97000000 		call	pbuf_free
 177      E7800000 
 178              	.LVL14:
 179              	.L1:
 402:C:/Users/stapi/OneDrive/Desktop/GD32VW553/GD32VW55X_Wifi_BLE_SDK/GD32VW55x_RELEASE_V1.0.2/MSDK/lwip/lwip-2.1.2/src/core/ipv4\icmp.c **** }
 180              		.loc 1 402 1 is_stmt 0
 181 00f8 0561     		addi	sp,sp,32
 182              		.cfi_def_cfa_offset 0
 183 00fa 17030000 		tail	__riscv_restore_5
 183      67000300 
 184              		.cfi_restore 20
 185              		.cfi_restore 19
 186              		.cfi_restore 18
 187              		.cfi_restore 9
 188              		.cfi_restore 8
 189              		.cfi_restore 1
 190              		.cfi_def_cfa_offset -32
 191              		.cfi_endproc
 192              	.LFE7:
 194              		.section	.rodata.icmp_input.str1.4,"aMS",@progbits,1
 195              		.align	2
 196              	.LC3:
 197 0000 69636D70 		.string	"icmp_input: moving r->payload to icmp header failed\n"
 197      5F696E70 
 197      75743A20 
 197      6D6F7669 
 197      6E672072 
 198 0035 000000   		.align	2
 199              	.LC4:
 200 0038 69636D70 		.string	"icmp_input: restoring original p->payload failed\n"
 200      5F696E70 
 200      75743A20 
 200      72657374 
 200      6F72696E 
 201              		.section	.text.icmp_input,"ax",@progbits
 202              		.align	1
 203              		.globl	icmp_input
 205              	icmp_input:
 206              	.LFB4:
  81:C:/Users/stapi/OneDrive/Desktop/GD32VW553/GD32VW55X_Wifi_BLE_SDK/GD32VW55x_RELEASE_V1.0.2/MSDK/lwip/lwip-2.1.2/src/core/ipv4\icmp.c ****   u8_t type;
 207              		.loc 1 81 1 is_stmt 1
 208              		.cfi_startproc
 209              	.LVL15:
 210 0000 17030000 		call	t0,__riscv_save_7
 210      E7020300 
 211              		.cfi_offset 22, -32
 212              		.cfi_offset 21, -28
 213              		.cfi_offset 20, -24
 214              		.cfi_offset 19, -20
 215              		.cfi_offset 18, -16
 216              		.cfi_offset 9, -12
 217              		.cfi_offset 8, -8
 218              		.cfi_offset 1, -4
 219              		.cfi_def_cfa_offset 32
  82:C:/Users/stapi/OneDrive/Desktop/GD32VW553/GD32VW55X_Wifi_BLE_SDK/GD32VW55x_RELEASE_V1.0.2/MSDK/lwip/lwip-2.1.2/src/core/ipv4\icmp.c **** #ifdef LWIP_DEBUG
 220              		.loc 1 82 3
  86:C:/Users/stapi/OneDrive/Desktop/GD32VW553/GD32VW55X_Wifi_BLE_SDK/GD32VW55x_RELEASE_V1.0.2/MSDK/lwip/lwip-2.1.2/src/core/ipv4\icmp.c ****   const struct ip_hdr *iphdr_in;
 221              		.loc 1 86 3
  87:C:/Users/stapi/OneDrive/Desktop/GD32VW553/GD32VW55X_Wifi_BLE_SDK/GD32VW55x_RELEASE_V1.0.2/MSDK/lwip/lwip-2.1.2/src/core/ipv4\icmp.c ****   u16_t hlen;
 222              		.loc 1 87 3
  88:C:/Users/stapi/OneDrive/Desktop/GD32VW553/GD32VW55X_Wifi_BLE_SDK/GD32VW55x_RELEASE_V1.0.2/MSDK/lwip/lwip-2.1.2/src/core/ipv4\icmp.c ****   const ip4_addr_t *src;
 223              		.loc 1 88 3
  89:C:/Users/stapi/OneDrive/Desktop/GD32VW553/GD32VW55X_Wifi_BLE_SDK/GD32VW55x_RELEASE_V1.0.2/MSDK/lwip/lwip-2.1.2/src/core/ipv4\icmp.c **** 
 224              		.loc 1 89 3
  91:C:/Users/stapi/OneDrive/Desktop/GD32VW553/GD32VW55X_Wifi_BLE_SDK/GD32VW55x_RELEASE_V1.0.2/MSDK/lwip/lwip-2.1.2/src/core/ipv4\icmp.c ****   MIB2_STATS_INC(mib2.icmpinmsgs);
 225              		.loc 1 91 28
  92:C:/Users/stapi/OneDrive/Desktop/GD32VW553/GD32VW55X_Wifi_BLE_SDK/GD32VW55x_RELEASE_V1.0.2/MSDK/lwip/lwip-2.1.2/src/core/ipv4\icmp.c **** 
 226              		.loc 1 92 34
  94:C:/Users/stapi/OneDrive/Desktop/GD32VW553/GD32VW55X_Wifi_BLE_SDK/GD32VW55x_RELEASE_V1.0.2/MSDK/lwip/lwip-2.1.2/src/core/ipv4\icmp.c ****   hlen = IPH_HL_BYTES(iphdr_in);
 227              		.loc 1 94 3
  94:C:/Users/stapi/OneDrive/Desktop/GD32VW553/GD32VW55X_Wifi_BLE_SDK/GD32VW55x_RELEASE_V1.0.2/MSDK/lwip/lwip-2.1.2/src/core/ipv4\icmp.c ****   hlen = IPH_HL_BYTES(iphdr_in);
 228              		.loc 1 94 12 is_stmt 0
 229 0008 37090000 		lui	s2,%hi(ip_data)
 230 000c 93070900 		addi	a5,s2,%lo(ip_data)
 231 0010 03AB8700 		lw	s6,8(a5)
 232              	.LVL16:
  95:C:/Users/stapi/OneDrive/Desktop/GD32VW553/GD32VW55X_Wifi_BLE_SDK/GD32VW55x_RELEASE_V1.0.2/MSDK/lwip/lwip-2.1.2/src/core/ipv4\icmp.c ****   if (hlen < IP_HLEN) {
 233              		.loc 1 95 3 is_stmt 1
  96:C:/Users/stapi/OneDrive/Desktop/GD32VW553/GD32VW55X_Wifi_BLE_SDK/GD32VW55x_RELEASE_V1.0.2/MSDK/lwip/lwip-2.1.2/src/core/ipv4\icmp.c ****     LWIP_DEBUGF(ICMP_DEBUG, ("icmp_input: short IP header (%"S16_F" bytes) received\n", hlen));
 234              		.loc 1 96 6 is_stmt 0
 235 0014 4D47     		li	a4,19
  81:C:/Users/stapi/OneDrive/Desktop/GD32VW553/GD32VW55X_Wifi_BLE_SDK/GD32VW55x_RELEASE_V1.0.2/MSDK/lwip/lwip-2.1.2/src/core/ipv4\icmp.c ****   u8_t type;
 236              		.loc 1 81 1
 237 0016 4111     		addi	sp,sp,-16
 238              		.cfi_def_cfa_offset 48
  95:C:/Users/stapi/OneDrive/Desktop/GD32VW553/GD32VW55X_Wifi_BLE_SDK/GD32VW55x_RELEASE_V1.0.2/MSDK/lwip/lwip-2.1.2/src/core/ipv4\icmp.c ****   if (hlen < IP_HLEN) {
 239              		.loc 1 95 10
 240 0018 83440B00 		lbu	s1,0(s6)
  81:C:/Users/stapi/OneDrive/Desktop/GD32VW553/GD32VW55X_Wifi_BLE_SDK/GD32VW55x_RELEASE_V1.0.2/MSDK/lwip/lwip-2.1.2/src/core/ipv4\icmp.c ****   u8_t type;
 241              		.loc 1 81 1
 242 001c 2A84     		mv	s0,a0
  95:C:/Users/stapi/OneDrive/Desktop/GD32VW553/GD32VW55X_Wifi_BLE_SDK/GD32VW55x_RELEASE_V1.0.2/MSDK/lwip/lwip-2.1.2/src/core/ipv4\icmp.c ****   if (hlen < IP_HLEN) {
 243              		.loc 1 95 10
 244 001e BD88     		andi	s1,s1,15
 245 0020 8A04     		slli	s1,s1,2
 246              	.LVL17:
  96:C:/Users/stapi/OneDrive/Desktop/GD32VW553/GD32VW55X_Wifi_BLE_SDK/GD32VW55x_RELEASE_V1.0.2/MSDK/lwip/lwip-2.1.2/src/core/ipv4\icmp.c ****     LWIP_DEBUGF(ICMP_DEBUG, ("icmp_input: short IP header (%"S16_F" bytes) received\n", hlen));
 247              		.loc 1 96 3 is_stmt 1
  96:C:/Users/stapi/OneDrive/Desktop/GD32VW553/GD32VW55X_Wifi_BLE_SDK/GD32VW55x_RELEASE_V1.0.2/MSDK/lwip/lwip-2.1.2/src/core/ipv4\icmp.c ****     LWIP_DEBUGF(ICMP_DEBUG, ("icmp_input: short IP header (%"S16_F" bytes) received\n", hlen));
 248              		.loc 1 96 6 is_stmt 0
 249 0022 63769704 		bleu	s1,a4,.L26
 100:C:/Users/stapi/OneDrive/Desktop/GD32VW553/GD32VW55X_Wifi_BLE_SDK/GD32VW55x_RELEASE_V1.0.2/MSDK/lwip/lwip-2.1.2/src/core/ipv4\icmp.c ****     LWIP_DEBUGF(ICMP_DEBUG, ("icmp_input: short ICMP (%"U16_F" bytes) received\n", p->tot_len));
 250              		.loc 1 100 3 is_stmt 1
 100:C:/Users/stapi/OneDrive/Desktop/GD32VW553/GD32VW55X_Wifi_BLE_SDK/GD32VW55x_RELEASE_V1.0.2/MSDK/lwip/lwip-2.1.2/src/core/ipv4\icmp.c ****     LWIP_DEBUGF(ICMP_DEBUG, ("icmp_input: short ICMP (%"U16_F" bytes) received\n", p->tot_len));
 251              		.loc 1 100 6 is_stmt 0
 252 0026 8356A500 		lhu	a3,10(a0)
 253 002a 0D47     		li	a4,3
 254 002c 6371D704 		bleu	a3,a4,.L26
 105:C:/Users/stapi/OneDrive/Desktop/GD32VW553/GD32VW55X_Wifi_BLE_SDK/GD32VW55x_RELEASE_V1.0.2/MSDK/lwip/lwip-2.1.2/src/core/ipv4\icmp.c **** #ifdef LWIP_DEBUG
 255              		.loc 1 105 3 is_stmt 1
 256              	.LVL18:
 111:C:/Users/stapi/OneDrive/Desktop/GD32VW553/GD32VW55X_Wifi_BLE_SDK/GD32VW55x_RELEASE_V1.0.2/MSDK/lwip/lwip-2.1.2/src/core/ipv4\icmp.c ****     case ICMP_ER:
 257              		.loc 1 111 3
 105:C:/Users/stapi/OneDrive/Desktop/GD32VW553/GD32VW55X_Wifi_BLE_SDK/GD32VW55x_RELEASE_V1.0.2/MSDK/lwip/lwip-2.1.2/src/core/ipv4\icmp.c **** #ifdef LWIP_DEBUG
 258              		.loc 1 105 8 is_stmt 0
 259 0030 5841     		lw	a4,4(a0)
 111:C:/Users/stapi/OneDrive/Desktop/GD32VW553/GD32VW55X_Wifi_BLE_SDK/GD32VW55x_RELEASE_V1.0.2/MSDK/lwip/lwip-2.1.2/src/core/ipv4\icmp.c ****     case ICMP_ER:
 260              		.loc 1 111 3
 261 0032 83460700 		lbu	a3,0(a4)
 262 0036 2147     		li	a4,8
 263 0038 639BE602 		bne	a3,a4,.L26
 118:C:/Users/stapi/OneDrive/Desktop/GD32VW553/GD32VW55X_Wifi_BLE_SDK/GD32VW55x_RELEASE_V1.0.2/MSDK/lwip/lwip-2.1.2/src/core/ipv4\icmp.c ****       src = ip4_current_dest_addr();
 264              		.loc 1 118 39 is_stmt 1
 119:C:/Users/stapi/OneDrive/Desktop/GD32VW553/GD32VW55X_Wifi_BLE_SDK/GD32VW55x_RELEASE_V1.0.2/MSDK/lwip/lwip-2.1.2/src/core/ipv4\icmp.c ****       /* multicast destination address? */
 265              		.loc 1 119 7
 266              	.LVL19:
 121:C:/Users/stapi/OneDrive/Desktop/GD32VW553/GD32VW55X_Wifi_BLE_SDK/GD32VW55x_RELEASE_V1.0.2/MSDK/lwip/lwip-2.1.2/src/core/ipv4\icmp.c **** #if LWIP_MULTICAST_PING
 267              		.loc 1 121 7
 121:C:/Users/stapi/OneDrive/Desktop/GD32VW553/GD32VW55X_Wifi_BLE_SDK/GD32VW55x_RELEASE_V1.0.2/MSDK/lwip/lwip-2.1.2/src/core/ipv4\icmp.c **** #if LWIP_MULTICAST_PING
 268              		.loc 1 121 11 is_stmt 0
 269 003c C84B     		lw	a0,20(a5)
 270              	.LVL20:
 121:C:/Users/stapi/OneDrive/Desktop/GD32VW553/GD32VW55X_Wifi_BLE_SDK/GD32VW55x_RELEASE_V1.0.2/MSDK/lwip/lwip-2.1.2/src/core/ipv4\icmp.c **** #if LWIP_MULTICAST_PING
 271              		.loc 1 121 10
 272 003e 1307000E 		li	a4,224
 121:C:/Users/stapi/OneDrive/Desktop/GD32VW553/GD32VW55X_Wifi_BLE_SDK/GD32VW55x_RELEASE_V1.0.2/MSDK/lwip/lwip-2.1.2/src/core/ipv4\icmp.c **** #if LWIP_MULTICAST_PING
 273              		.loc 1 121 11
 274 0042 9376050F 		andi	a3,a0,240
 121:C:/Users/stapi/OneDrive/Desktop/GD32VW553/GD32VW55X_Wifi_BLE_SDK/GD32VW55x_RELEASE_V1.0.2/MSDK/lwip/lwip-2.1.2/src/core/ipv4\icmp.c **** #if LWIP_MULTICAST_PING
 275              		.loc 1 121 10
 276 0046 6384E602 		beq	a3,a4,.L26
 277 004a AE89     		mv	s3,a1
 131:C:/Users/stapi/OneDrive/Desktop/GD32VW553/GD32VW55X_Wifi_BLE_SDK/GD32VW55x_RELEASE_V1.0.2/MSDK/lwip/lwip-2.1.2/src/core/ipv4\icmp.c **** #if LWIP_BROADCAST_PING
 278              		.loc 1 131 7 is_stmt 1
 131:C:/Users/stapi/OneDrive/Desktop/GD32VW553/GD32VW55X_Wifi_BLE_SDK/GD32VW55x_RELEASE_V1.0.2/MSDK/lwip/lwip-2.1.2/src/core/ipv4\icmp.c **** #if LWIP_BROADCAST_PING
 279              		.loc 1 131 11 is_stmt 0
 280 004c 8C43     		lw	a1,0(a5)
 281              	.LVL21:
 282 004e 97000000 		call	ip4_addr_isbroadcast_u32
 282      E7800000 
 283              	.LVL22:
 131:C:/Users/stapi/OneDrive/Desktop/GD32VW553/GD32VW55X_Wifi_BLE_SDK/GD32VW55x_RELEASE_V1.0.2/MSDK/lwip/lwip-2.1.2/src/core/ipv4\icmp.c **** #if LWIP_BROADCAST_PING
 284              		.loc 1 131 10
 285 0056 01ED     		bne	a0,zero,.L26
 140:C:/Users/stapi/OneDrive/Desktop/GD32VW553/GD32VW55X_Wifi_BLE_SDK/GD32VW55x_RELEASE_V1.0.2/MSDK/lwip/lwip-2.1.2/src/core/ipv4\icmp.c ****       if (p->tot_len < sizeof(struct icmp_echo_hdr)) {
 286              		.loc 1 140 54 is_stmt 1
 141:C:/Users/stapi/OneDrive/Desktop/GD32VW553/GD32VW55X_Wifi_BLE_SDK/GD32VW55x_RELEASE_V1.0.2/MSDK/lwip/lwip-2.1.2/src/core/ipv4\icmp.c ****         LWIP_DEBUGF(ICMP_DEBUG, ("icmp_input: bad ICMP echo received\n"));
 287              		.loc 1 141 7
 141:C:/Users/stapi/OneDrive/Desktop/GD32VW553/GD32VW55X_Wifi_BLE_SDK/GD32VW55x_RELEASE_V1.0.2/MSDK/lwip/lwip-2.1.2/src/core/ipv4\icmp.c ****         LWIP_DEBUGF(ICMP_DEBUG, ("icmp_input: bad ICMP echo received\n"));
 288              		.loc 1 141 10 is_stmt 0
 289 0058 03578400 		lhu	a4,8(s0)
 290 005c 9D47     		li	a5,7
 291 005e 63F8E700 		bleu	a4,a5,.L26
 147:C:/Users/stapi/OneDrive/Desktop/GD32VW553/GD32VW55X_Wifi_BLE_SDK/GD32VW55x_RELEASE_V1.0.2/MSDK/lwip/lwip-2.1.2/src/core/ipv4\icmp.c ****           LWIP_DEBUGF(ICMP_DEBUG, ("icmp_input: checksum failed for received ICMP echo\n"));
 292              		.loc 1 147 9 is_stmt 1
 147:C:/Users/stapi/OneDrive/Desktop/GD32VW553/GD32VW55X_Wifi_BLE_SDK/GD32VW55x_RELEASE_V1.0.2/MSDK/lwip/lwip-2.1.2/src/core/ipv4\icmp.c ****           LWIP_DEBUGF(ICMP_DEBUG, ("icmp_input: checksum failed for received ICMP echo\n"));
 293              		.loc 1 147 13 is_stmt 0
 294 0062 2285     		mv	a0,s0
 295 0064 97000000 		call	inet_chksum_pbuf
 295      E7800000 
 296              	.LVL23:
 147:C:/Users/stapi/OneDrive/Desktop/GD32VW553/GD32VW55X_Wifi_BLE_SDK/GD32VW55x_RELEASE_V1.0.2/MSDK/lwip/lwip-2.1.2/src/core/ipv4\icmp.c ****           LWIP_DEBUGF(ICMP_DEBUG, ("icmp_input: checksum failed for received ICMP echo\n"));
 297              		.loc 1 147 12
 298 006c 19C9     		beq	a0,zero,.L14
 299              	.L18:
 300              	.LVL24:
 301              	.L26:
 285:C:/Users/stapi/OneDrive/Desktop/GD32VW553/GD32VW55X_Wifi_BLE_SDK/GD32VW55x_RELEASE_V1.0.2/MSDK/lwip/lwip-2.1.2/src/core/ipv4\icmp.c ****   ICMP_STATS_INC(icmp.lenerr);
 302              		.loc 1 285 3 is_stmt 1
 303 006e 2285     		mv	a0,s0
 304 0070 97000000 		call	pbuf_free
 304      E7800000 
 305              	.LVL25:
 286:C:/Users/stapi/OneDrive/Desktop/GD32VW553/GD32VW55X_Wifi_BLE_SDK/GD32VW55x_RELEASE_V1.0.2/MSDK/lwip/lwip-2.1.2/src/core/ipv4\icmp.c ****   MIB2_STATS_INC(mib2.icmpinerrors);
 306              		.loc 1 286 30
 287:C:/Users/stapi/OneDrive/Desktop/GD32VW553/GD32VW55X_Wifi_BLE_SDK/GD32VW55x_RELEASE_V1.0.2/MSDK/lwip/lwip-2.1.2/src/core/ipv4\icmp.c ****   return;
 307              		.loc 1 287 36
 288:C:/Users/stapi/OneDrive/Desktop/GD32VW553/GD32VW55X_Wifi_BLE_SDK/GD32VW55x_RELEASE_V1.0.2/MSDK/lwip/lwip-2.1.2/src/core/ipv4\icmp.c **** #if LWIP_ICMP_ECHO_CHECK_INPUT_PBUF_LEN || !LWIP_MULTICAST_PING || !LWIP_BROADCAST_PING
 308              		.loc 1 288 3
 296:C:/Users/stapi/OneDrive/Desktop/GD32VW553/GD32VW55X_Wifi_BLE_SDK/GD32VW55x_RELEASE_V1.0.2/MSDK/lwip/lwip-2.1.2/src/core/ipv4\icmp.c **** 
 309              		.loc 1 296 1 is_stmt 0
 310 0078 4101     		addi	sp,sp,16
 311              		.cfi_remember_state
 312              		.cfi_def_cfa_offset 0
 313 007a 17030000 		tail	__riscv_restore_7
 313      67000300 
 314              		.cfi_restore 22
 315              		.cfi_restore 21
 316              		.cfi_restore 20
 317              		.cfi_restore 19
 318              		.cfi_restore 18
 319              		.cfi_restore 9
 320              		.cfi_restore 8
 321              		.cfi_restore 1
 322              		.cfi_def_cfa_offset -32
 323              	.LVL26:
 324              	.L14:
 325              		.cfi_restore_state
 157:C:/Users/stapi/OneDrive/Desktop/GD32VW553/GD32VW55X_Wifi_BLE_SDK/GD32VW55x_RELEASE_V1.0.2/MSDK/lwip/lwip-2.1.2/src/core/ipv4\icmp.c ****         /* p is not big enough to contain link headers
 326              		.loc 1 157 52
 327 0082 9385A416 		addi	a1,s1,362
 157:C:/Users/stapi/OneDrive/Desktop/GD32VW553/GD32VW55X_Wifi_BLE_SDK/GD32VW55x_RELEASE_V1.0.2/MSDK/lwip/lwip-2.1.2/src/core/ipv4\icmp.c ****         /* p is not big enough to contain link headers
 328              		.loc 1 157 11
 329 0086 2285     		mv	a0,s0
 330 0088 2EC6     		sw	a1,12(sp)
 331 008a 97000000 		call	pbuf_add_header
 331      E7800000 
 332              	.LVL27:
 157:C:/Users/stapi/OneDrive/Desktop/GD32VW553/GD32VW55X_Wifi_BLE_SDK/GD32VW55x_RELEASE_V1.0.2/MSDK/lwip/lwip-2.1.2/src/core/ipv4\icmp.c ****         /* p is not big enough to contain link headers
 333              		.loc 1 157 10
 334 0092 B245     		lw	a1,12(sp)
 335 0094 13090900 		addi	s2,s2,%lo(ip_data)
  95:C:/Users/stapi/OneDrive/Desktop/GD32VW553/GD32VW55X_Wifi_BLE_SDK/GD32VW55x_RELEASE_V1.0.2/MSDK/lwip/lwip-2.1.2/src/core/ipv4\icmp.c ****   if (hlen < IP_HLEN) {
 336              		.loc 1 95 8
 337 0098 33CA0408 		zext.h	s4,s1
 157:C:/Users/stapi/OneDrive/Desktop/GD32VW553/GD32VW55X_Wifi_BLE_SDK/GD32VW55x_RELEASE_V1.0.2/MSDK/lwip/lwip-2.1.2/src/core/ipv4\icmp.c ****         /* p is not big enough to contain link headers
 338              		.loc 1 157 7 is_stmt 1
 157:C:/Users/stapi/OneDrive/Desktop/GD32VW553/GD32VW55X_Wifi_BLE_SDK/GD32VW55x_RELEASE_V1.0.2/MSDK/lwip/lwip-2.1.2/src/core/ipv4\icmp.c ****         /* p is not big enough to contain link headers
 339              		.loc 1 157 10 is_stmt 0
 340 009c 630E0514 		beq	a0,zero,.L16
 341              	.LBB2:
 161:C:/Users/stapi/OneDrive/Desktop/GD32VW553/GD32VW55X_Wifi_BLE_SDK/GD32VW55x_RELEASE_V1.0.2/MSDK/lwip/lwip-2.1.2/src/core/ipv4\icmp.c ****         u16_t alloc_len = (u16_t)(p->tot_len + hlen);
 342              		.loc 1 161 9 is_stmt 1
 162:C:/Users/stapi/OneDrive/Desktop/GD32VW553/GD32VW55X_Wifi_BLE_SDK/GD32VW55x_RELEASE_V1.0.2/MSDK/lwip/lwip-2.1.2/src/core/ipv4\icmp.c ****         if (alloc_len < p->tot_len) {
 343              		.loc 1 162 9
 162:C:/Users/stapi/OneDrive/Desktop/GD32VW553/GD32VW55X_Wifi_BLE_SDK/GD32VW55x_RELEASE_V1.0.2/MSDK/lwip/lwip-2.1.2/src/core/ipv4\icmp.c ****         if (alloc_len < p->tot_len) {
 344              		.loc 1 162 36 is_stmt 0
 345 00a0 83578400 		lhu	a5,8(s0)
 162:C:/Users/stapi/OneDrive/Desktop/GD32VW553/GD32VW55X_Wifi_BLE_SDK/GD32VW55x_RELEASE_V1.0.2/MSDK/lwip/lwip-2.1.2/src/core/ipv4\icmp.c ****         if (alloc_len < p->tot_len) {
 346              		.loc 1 162 15
 347 00a4 B3854701 		add	a1,a5,s4
 348 00a8 B3C50508 		zext.h	a1,a1
 349              	.LVL28:
 163:C:/Users/stapi/OneDrive/Desktop/GD32VW553/GD32VW55X_Wifi_BLE_SDK/GD32VW55x_RELEASE_V1.0.2/MSDK/lwip/lwip-2.1.2/src/core/ipv4\icmp.c ****           LWIP_DEBUGF(ICMP_DEBUG, ("icmp_input: allocating new pbuf failed (tot_len overflow)\n"));
 350              		.loc 1 163 9 is_stmt 1
 163:C:/Users/stapi/OneDrive/Desktop/GD32VW553/GD32VW55X_Wifi_BLE_SDK/GD32VW55x_RELEASE_V1.0.2/MSDK/lwip/lwip-2.1.2/src/core/ipv4\icmp.c ****           LWIP_DEBUGF(ICMP_DEBUG, ("icmp_input: allocating new pbuf failed (tot_len overflow)\n"));
 351              		.loc 1 163 12 is_stmt 0
 352 00ac E3E1F5FC 		bgtu	a5,a1,.L26
 168:C:/Users/stapi/OneDrive/Desktop/GD32VW553/GD32VW55X_Wifi_BLE_SDK/GD32VW55x_RELEASE_V1.0.2/MSDK/lwip/lwip-2.1.2/src/core/ipv4\icmp.c ****         if (r == NULL) {
 353              		.loc 1 168 9 is_stmt 1
 168:C:/Users/stapi/OneDrive/Desktop/GD32VW553/GD32VW55X_Wifi_BLE_SDK/GD32VW55x_RELEASE_V1.0.2/MSDK/lwip/lwip-2.1.2/src/core/ipv4\icmp.c ****         if (r == NULL) {
 354              		.loc 1 168 13 is_stmt 0
 355 00b0 13060028 		li	a2,640
 356 00b4 1305A016 		li	a0,362
 357 00b8 97000000 		call	pbuf_alloc
 357      E7800000 
 358              	.LVL29:
 359 00c0 AA8A     		mv	s5,a0
 360              	.LVL30:
 169:C:/Users/stapi/OneDrive/Desktop/GD32VW553/GD32VW55X_Wifi_BLE_SDK/GD32VW55x_RELEASE_V1.0.2/MSDK/lwip/lwip-2.1.2/src/core/ipv4\icmp.c ****           LWIP_DEBUGF(ICMP_DEBUG, ("icmp_input: allocating new pbuf failed\n"));
 361              		.loc 1 169 9 is_stmt 1
 169:C:/Users/stapi/OneDrive/Desktop/GD32VW553/GD32VW55X_Wifi_BLE_SDK/GD32VW55x_RELEASE_V1.0.2/MSDK/lwip/lwip-2.1.2/src/core/ipv4\icmp.c ****           LWIP_DEBUGF(ICMP_DEBUG, ("icmp_input: allocating new pbuf failed\n"));
 362              		.loc 1 169 12 is_stmt 0
 363 00c2 55D5     		beq	a0,zero,.L26
 173:C:/Users/stapi/OneDrive/Desktop/GD32VW553/GD32VW55X_Wifi_BLE_SDK/GD32VW55x_RELEASE_V1.0.2/MSDK/lwip/lwip-2.1.2/src/core/ipv4\icmp.c ****           LWIP_DEBUGF(ICMP_DEBUG | LWIP_DBG_LEVEL_SERIOUS, ("first pbuf cannot hold the ICMP header
 364              		.loc 1 173 9 is_stmt 1
 173:C:/Users/stapi/OneDrive/Desktop/GD32VW553/GD32VW55X_Wifi_BLE_SDK/GD32VW55x_RELEASE_V1.0.2/MSDK/lwip/lwip-2.1.2/src/core/ipv4\icmp.c ****           LWIP_DEBUGF(ICMP_DEBUG | LWIP_DBG_LEVEL_SERIOUS, ("first pbuf cannot hold the ICMP header
 365              		.loc 1 173 12 is_stmt 0
 366 00c4 0357A500 		lhu	a4,10(a0)
 367 00c8 93878400 		addi	a5,s1,8
 368 00cc 6378F700 		bgeu	a4,a5,.L17
 369              	.LVL31:
 370              	.L35:
 188:C:/Users/stapi/OneDrive/Desktop/GD32VW553/GD32VW55X_Wifi_BLE_SDK/GD32VW55x_RELEASE_V1.0.2/MSDK/lwip/lwip-2.1.2/src/core/ipv4\icmp.c ****           pbuf_free(r);
 371              		.loc 1 188 103 is_stmt 1
 189:C:/Users/stapi/OneDrive/Desktop/GD32VW553/GD32VW55X_Wifi_BLE_SDK/GD32VW55x_RELEASE_V1.0.2/MSDK/lwip/lwip-2.1.2/src/core/ipv4\icmp.c ****           goto icmperr;
 372              		.loc 1 189 11
 373 00d0 5685     		mv	a0,s5
 374 00d2 97000000 		call	pbuf_free
 374      E7800000 
 375              	.LVL32:
 190:C:/Users/stapi/OneDrive/Desktop/GD32VW553/GD32VW55X_Wifi_BLE_SDK/GD32VW55x_RELEASE_V1.0.2/MSDK/lwip/lwip-2.1.2/src/core/ipv4\icmp.c ****         }
 376              		.loc 1 190 11
 377 00da 51BF     		j	.L26
 378              	.LVL33:
 379              	.L17:
 179:C:/Users/stapi/OneDrive/Desktop/GD32VW553/GD32VW55X_Wifi_BLE_SDK/GD32VW55x_RELEASE_V1.0.2/MSDK/lwip/lwip-2.1.2/src/core/ipv4\icmp.c ****         /* switch r->payload back to icmp header (cannot fail) */
 380              		.loc 1 179 9
 381 00dc 4841     		lw	a0,4(a0)
 382              	.LVL34:
 383 00de DA85     		mv	a1,s6
 384 00e0 2686     		mv	a2,s1
 385 00e2 97000000 		call	memcpy
 385      E7800000 
 386              	.LVL35:
 181:C:/Users/stapi/OneDrive/Desktop/GD32VW553/GD32VW55X_Wifi_BLE_SDK/GD32VW55x_RELEASE_V1.0.2/MSDK/lwip/lwip-2.1.2/src/core/ipv4\icmp.c ****           LWIP_ASSERT("icmp_input: moving r->payload to icmp header failed\n", 0);
 387              		.loc 1 181 9
 181:C:/Users/stapi/OneDrive/Desktop/GD32VW553/GD32VW55X_Wifi_BLE_SDK/GD32VW55x_RELEASE_V1.0.2/MSDK/lwip/lwip-2.1.2/src/core/ipv4\icmp.c ****           LWIP_ASSERT("icmp_input: moving r->payload to icmp header failed\n", 0);
 388              		.loc 1 181 13 is_stmt 0
 389 00ea A685     		mv	a1,s1
 390 00ec 5685     		mv	a0,s5
 391 00ee 97000000 		call	pbuf_remove_header
 391      E7800000 
 392              	.LVL36:
 181:C:/Users/stapi/OneDrive/Desktop/GD32VW553/GD32VW55X_Wifi_BLE_SDK/GD32VW55x_RELEASE_V1.0.2/MSDK/lwip/lwip-2.1.2/src/core/ipv4\icmp.c ****           LWIP_ASSERT("icmp_input: moving r->payload to icmp header failed\n", 0);
 393              		.loc 1 181 12
 394 00f6 05C5     		beq	a0,zero,.L19
 182:C:/Users/stapi/OneDrive/Desktop/GD32VW553/GD32VW55X_Wifi_BLE_SDK/GD32VW55x_RELEASE_V1.0.2/MSDK/lwip/lwip-2.1.2/src/core/ipv4\icmp.c ****           pbuf_free(r);
 395              		.loc 1 182 11 is_stmt 1 discriminator 1
 182:C:/Users/stapi/OneDrive/Desktop/GD32VW553/GD32VW55X_Wifi_BLE_SDK/GD32VW55x_RELEASE_V1.0.2/MSDK/lwip/lwip-2.1.2/src/core/ipv4\icmp.c ****           pbuf_free(r);
 396              		.loc 1 182 11 discriminator 1
 182:C:/Users/stapi/OneDrive/Desktop/GD32VW553/GD32VW55X_Wifi_BLE_SDK/GD32VW55x_RELEASE_V1.0.2/MSDK/lwip/lwip-2.1.2/src/core/ipv4\icmp.c ****           pbuf_free(r);
 397              		.loc 1 182 11 discriminator 1
 182:C:/Users/stapi/OneDrive/Desktop/GD32VW553/GD32VW55X_Wifi_BLE_SDK/GD32VW55x_RELEASE_V1.0.2/MSDK/lwip/lwip-2.1.2/src/core/ipv4\icmp.c ****           pbuf_free(r);
 398              		.loc 1 182 11 discriminator 1
 399 00f8 B7060000 		lui	a3,%hi(.LC0)
 400 00fc B7050000 		lui	a1,%hi(.LC3)
 401 0100 37050000 		lui	a0,%hi(.LC2)
 402 0104 93860600 		addi	a3,a3,%lo(.LC0)
 403 0108 1306600B 		li	a2,182
 404 010c 93850500 		addi	a1,a1,%lo(.LC3)
 405 0110 13050500 		addi	a0,a0,%lo(.LC2)
 406 0114 97000000 		call	printf
 406      E7800000 
 407              	.LVL37:
 408              	.L20:
 182:C:/Users/stapi/OneDrive/Desktop/GD32VW553/GD32VW55X_Wifi_BLE_SDK/GD32VW55x_RELEASE_V1.0.2/MSDK/lwip/lwip-2.1.2/src/core/ipv4\icmp.c ****           pbuf_free(r);
 409              		.loc 1 182 11 discriminator 1
 182:C:/Users/stapi/OneDrive/Desktop/GD32VW553/GD32VW55X_Wifi_BLE_SDK/GD32VW55x_RELEASE_V1.0.2/MSDK/lwip/lwip-2.1.2/src/core/ipv4\icmp.c ****           pbuf_free(r);
 410              		.loc 1 182 11 discriminator 1
 182:C:/Users/stapi/OneDrive/Desktop/GD32VW553/GD32VW55X_Wifi_BLE_SDK/GD32VW55x_RELEASE_V1.0.2/MSDK/lwip/lwip-2.1.2/src/core/ipv4\icmp.c ****           pbuf_free(r);
 411              		.loc 1 182 11 discriminator 1
 412 011c 01A0     		j	.L20
 413              	.L19:
 187:C:/Users/stapi/OneDrive/Desktop/GD32VW553/GD32VW55X_Wifi_BLE_SDK/GD32VW55x_RELEASE_V1.0.2/MSDK/lwip/lwip-2.1.2/src/core/ipv4\icmp.c ****           LWIP_DEBUGF(ICMP_DEBUG | LWIP_DBG_LEVEL_SERIOUS, ("icmp_input: copying to new pbuf failed
 414              		.loc 1 187 9
 187:C:/Users/stapi/OneDrive/Desktop/GD32VW553/GD32VW55X_Wifi_BLE_SDK/GD32VW55x_RELEASE_V1.0.2/MSDK/lwip/lwip-2.1.2/src/core/ipv4\icmp.c ****           LWIP_DEBUGF(ICMP_DEBUG | LWIP_DBG_LEVEL_SERIOUS, ("icmp_input: copying to new pbuf failed
 415              		.loc 1 187 13 is_stmt 0
 416 011e A285     		mv	a1,s0
 417 0120 5685     		mv	a0,s5
 418 0122 97000000 		call	pbuf_copy
 418      E7800000 
 419              	.LVL38:
 187:C:/Users/stapi/OneDrive/Desktop/GD32VW553/GD32VW55X_Wifi_BLE_SDK/GD32VW55x_RELEASE_V1.0.2/MSDK/lwip/lwip-2.1.2/src/core/ipv4\icmp.c ****           LWIP_DEBUGF(ICMP_DEBUG | LWIP_DBG_LEVEL_SERIOUS, ("icmp_input: copying to new pbuf failed
 420              		.loc 1 187 12
 421 012a 5DF1     		bne	a0,zero,.L35
 193:C:/Users/stapi/OneDrive/Desktop/GD32VW553/GD32VW55X_Wifi_BLE_SDK/GD32VW55x_RELEASE_V1.0.2/MSDK/lwip/lwip-2.1.2/src/core/ipv4\icmp.c ****         /* we now have an identical copy of p that has room for link headers */
 422              		.loc 1 193 9 is_stmt 1
 423 012c 2285     		mv	a0,s0
 424 012e 97000000 		call	pbuf_free
 424      E7800000 
 425              	.LVL39:
 195:C:/Users/stapi/OneDrive/Desktop/GD32VW553/GD32VW55X_Wifi_BLE_SDK/GD32VW55x_RELEASE_V1.0.2/MSDK/lwip/lwip-2.1.2/src/core/ipv4\icmp.c ****       } else {
 426              		.loc 1 195 9
 427              	.LBE2:
 428 0136 5684     		mv	s0,s5
 429              	.LVL40:
 430              	.L22:
 207:C:/Users/stapi/OneDrive/Desktop/GD32VW553/GD32VW55X_Wifi_BLE_SDK/GD32VW55x_RELEASE_V1.0.2/MSDK/lwip/lwip-2.1.2/src/core/ipv4\icmp.c ****       if (pbuf_add_header(p, hlen)) {
 431              		.loc 1 207 7
 208:C:/Users/stapi/OneDrive/Desktop/GD32VW553/GD32VW55X_Wifi_BLE_SDK/GD32VW55x_RELEASE_V1.0.2/MSDK/lwip/lwip-2.1.2/src/core/ipv4\icmp.c ****         LWIP_DEBUGF(ICMP_DEBUG | LWIP_DBG_LEVEL_SERIOUS, ("Can't move over header in packet"));
 432              		.loc 1 208 11 is_stmt 0
 433 0138 A685     		mv	a1,s1
 434 013a 2285     		mv	a0,s0
 207:C:/Users/stapi/OneDrive/Desktop/GD32VW553/GD32VW55X_Wifi_BLE_SDK/GD32VW55x_RELEASE_V1.0.2/MSDK/lwip/lwip-2.1.2/src/core/ipv4\icmp.c ****       if (pbuf_add_header(p, hlen)) {
 435              		.loc 1 207 13
 436 013c 832A4400 		lw	s5,4(s0)
 437              	.LVL41:
 208:C:/Users/stapi/OneDrive/Desktop/GD32VW553/GD32VW55X_Wifi_BLE_SDK/GD32VW55x_RELEASE_V1.0.2/MSDK/lwip/lwip-2.1.2/src/core/ipv4\icmp.c ****         LWIP_DEBUGF(ICMP_DEBUG | LWIP_DBG_LEVEL_SERIOUS, ("Can't move over header in packet"));
 438              		.loc 1 208 7 is_stmt 1
 208:C:/Users/stapi/OneDrive/Desktop/GD32VW553/GD32VW55X_Wifi_BLE_SDK/GD32VW55x_RELEASE_V1.0.2/MSDK/lwip/lwip-2.1.2/src/core/ipv4\icmp.c ****         LWIP_DEBUGF(ICMP_DEBUG | LWIP_DBG_LEVEL_SERIOUS, ("Can't move over header in packet"));
 439              		.loc 1 208 11 is_stmt 0
 440 0140 97000000 		call	pbuf_add_header
 440      E7800000 
 441              	.LVL42:
 208:C:/Users/stapi/OneDrive/Desktop/GD32VW553/GD32VW55X_Wifi_BLE_SDK/GD32VW55x_RELEASE_V1.0.2/MSDK/lwip/lwip-2.1.2/src/core/ipv4\icmp.c ****         LWIP_DEBUGF(ICMP_DEBUG | LWIP_DBG_LEVEL_SERIOUS, ("Can't move over header in packet"));
 442              		.loc 1 208 10
 443 0148 1DF1     		bne	a0,zero,.L26
 444              	.LBB3:
 211:C:/Users/stapi/OneDrive/Desktop/GD32VW553/GD32VW55X_Wifi_BLE_SDK/GD32VW55x_RELEASE_V1.0.2/MSDK/lwip/lwip-2.1.2/src/core/ipv4\icmp.c ****         struct ip_hdr *iphdr = (struct ip_hdr *)p->payload;
 445              		.loc 1 211 9 is_stmt 1
 212:C:/Users/stapi/OneDrive/Desktop/GD32VW553/GD32VW55X_Wifi_BLE_SDK/GD32VW55x_RELEASE_V1.0.2/MSDK/lwip/lwip-2.1.2/src/core/ipv4\icmp.c ****         ip4_addr_copy(iphdr->src, *src);
 446              		.loc 1 212 9
 213:C:/Users/stapi/OneDrive/Desktop/GD32VW553/GD32VW55X_Wifi_BLE_SDK/GD32VW55x_RELEASE_V1.0.2/MSDK/lwip/lwip-2.1.2/src/core/ipv4\icmp.c ****         ip4_addr_copy(iphdr->dest, *ip4_current_src_addr());
 447              		.loc 1 213 9 is_stmt 0
 448 014a 83474901 		lbu	a5,20(s2)
 212:C:/Users/stapi/OneDrive/Desktop/GD32VW553/GD32VW55X_Wifi_BLE_SDK/GD32VW55x_RELEASE_V1.0.2/MSDK/lwip/lwip-2.1.2/src/core/ipv4\icmp.c ****         ip4_addr_copy(iphdr->src, *src);
 449              		.loc 1 212 24
 450 014e 4440     		lw	s1,4(s0)
 451              	.LVL43:
 213:C:/Users/stapi/OneDrive/Desktop/GD32VW553/GD32VW55X_Wifi_BLE_SDK/GD32VW55x_RELEASE_V1.0.2/MSDK/lwip/lwip-2.1.2/src/core/ipv4\icmp.c ****         ip4_addr_copy(iphdr->dest, *ip4_current_src_addr());
 452              		.loc 1 213 9 is_stmt 1
 453 0150 2386F400 		sb	a5,12(s1)
 454 0154 83475901 		lbu	a5,21(s2)
 455 0158 A386F400 		sb	a5,13(s1)
 456 015c 83476901 		lbu	a5,22(s2)
 457 0160 2387F400 		sb	a5,14(s1)
 458 0164 83477901 		lbu	a5,23(s2)
 459 0168 A387F400 		sb	a5,15(s1)
 214:C:/Users/stapi/OneDrive/Desktop/GD32VW553/GD32VW55X_Wifi_BLE_SDK/GD32VW55x_RELEASE_V1.0.2/MSDK/lwip/lwip-2.1.2/src/core/ipv4\icmp.c ****         ICMPH_TYPE_SET(iecho, ICMP_ER);
 460              		.loc 1 214 9
 461 016c 83470901 		lbu	a5,16(s2)
 462 0170 2388F400 		sb	a5,16(s1)
 463 0174 83471901 		lbu	a5,17(s2)
 464 0178 A388F400 		sb	a5,17(s1)
 465 017c 83472901 		lbu	a5,18(s2)
 466 0180 2389F400 		sb	a5,18(s1)
 467 0184 83473901 		lbu	a5,19(s2)
 468 0188 A389F400 		sb	a5,19(s1)
 215:C:/Users/stapi/OneDrive/Desktop/GD32VW553/GD32VW55X_Wifi_BLE_SDK/GD32VW55x_RELEASE_V1.0.2/MSDK/lwip/lwip-2.1.2/src/core/ipv4\icmp.c **** #if CHECKSUM_GEN_ICMP
 469              		.loc 1 215 9
 219:C:/Users/stapi/OneDrive/Desktop/GD32VW553/GD32VW55X_Wifi_BLE_SDK/GD32VW55x_RELEASE_V1.0.2/MSDK/lwip/lwip-2.1.2/src/core/ipv4\icmp.c ****             iecho->chksum = (u16_t)(iecho->chksum + PP_HTONS((u16_t)(ICMP_ECHO << 8)) + 1);
 470              		.loc 1 219 20 is_stmt 0
 471 018c 83C73A00 		lbu	a5,3(s5)
 472 0190 03C72A00 		lbu	a4,2(s5)
 215:C:/Users/stapi/OneDrive/Desktop/GD32VW553/GD32VW55X_Wifi_BLE_SDK/GD32VW55x_RELEASE_V1.0.2/MSDK/lwip/lwip-2.1.2/src/core/ipv4\icmp.c **** #if CHECKSUM_GEN_ICMP
 473              		.loc 1 215 9
 474 0194 23800A00 		sb	zero,0(s5)
 219:C:/Users/stapi/OneDrive/Desktop/GD32VW553/GD32VW55X_Wifi_BLE_SDK/GD32VW55x_RELEASE_V1.0.2/MSDK/lwip/lwip-2.1.2/src/core/ipv4\icmp.c ****             iecho->chksum = (u16_t)(iecho->chksum + PP_HTONS((u16_t)(ICMP_ECHO << 8)) + 1);
 475              		.loc 1 219 11 is_stmt 1
 219:C:/Users/stapi/OneDrive/Desktop/GD32VW553/GD32VW55X_Wifi_BLE_SDK/GD32VW55x_RELEASE_V1.0.2/MSDK/lwip/lwip-2.1.2/src/core/ipv4\icmp.c ****             iecho->chksum = (u16_t)(iecho->chksum + PP_HTONS((u16_t)(ICMP_ECHO << 8)) + 1);
 476              		.loc 1 219 20 is_stmt 0
 477 0198 A207     		slli	a5,a5,8
 478 019a D98F     		or	a5,a5,a4
 219:C:/Users/stapi/OneDrive/Desktop/GD32VW553/GD32VW55X_Wifi_BLE_SDK/GD32VW55x_RELEASE_V1.0.2/MSDK/lwip/lwip-2.1.2/src/core/ipv4\icmp.c ****             iecho->chksum = (u16_t)(iecho->chksum + PP_HTONS((u16_t)(ICMP_ECHO << 8)) + 1);
 479              		.loc 1 219 14
 480 019c 4167     		li	a4,65536
 481 019e 5D17     		addi	a4,a4,-9
 482 01a0 6375F708 		bleu	a5,a4,.L24
 220:C:/Users/stapi/OneDrive/Desktop/GD32VW553/GD32VW55X_Wifi_BLE_SDK/GD32VW55x_RELEASE_V1.0.2/MSDK/lwip/lwip-2.1.2/src/core/ipv4\icmp.c ****           } else {
 483              		.loc 1 220 13 is_stmt 1
 220:C:/Users/stapi/OneDrive/Desktop/GD32VW553/GD32VW55X_Wifi_BLE_SDK/GD32VW55x_RELEASE_V1.0.2/MSDK/lwip/lwip-2.1.2/src/core/ipv4\icmp.c ****           } else {
 484              		.loc 1 220 29 is_stmt 0
 485 01a4 A507     		addi	a5,a5,9
 486              	.L34:
 222:C:/Users/stapi/OneDrive/Desktop/GD32VW553/GD32VW55X_Wifi_BLE_SDK/GD32VW55x_RELEASE_V1.0.2/MSDK/lwip/lwip-2.1.2/src/core/ipv4\icmp.c ****           }
 487              		.loc 1 222 29
 488 01a6 B3C70708 		zext.h	a5,a5
 489 01aa 2381FA00 		sb	a5,2(s5)
 490 01ae A183     		srli	a5,a5,8
 491 01b0 A381FA00 		sb	a5,3(s5)
 235:C:/Users/stapi/OneDrive/Desktop/GD32VW553/GD32VW55X_Wifi_BLE_SDK/GD32VW55x_RELEASE_V1.0.2/MSDK/lwip/lwip-2.1.2/src/core/ipv4\icmp.c ****         IPH_CHKSUM_SET(iphdr, 0);
 492              		.loc 1 235 9 is_stmt 1
 493 01b4 FD57     		li	a5,-1
 494 01b6 2384F400 		sb	a5,8(s1)
 236:C:/Users/stapi/OneDrive/Desktop/GD32VW553/GD32VW55X_Wifi_BLE_SDK/GD32VW55x_RELEASE_V1.0.2/MSDK/lwip/lwip-2.1.2/src/core/ipv4\icmp.c **** #if CHECKSUM_GEN_IP
 495              		.loc 1 236 9
 239:C:/Users/stapi/OneDrive/Desktop/GD32VW553/GD32VW55X_Wifi_BLE_SDK/GD32VW55x_RELEASE_V1.0.2/MSDK/lwip/lwip-2.1.2/src/core/ipv4\icmp.c ****         }
 496              		.loc 1 239 11 is_stmt 0
 497 01ba D285     		mv	a1,s4
 236:C:/Users/stapi/OneDrive/Desktop/GD32VW553/GD32VW55X_Wifi_BLE_SDK/GD32VW55x_RELEASE_V1.0.2/MSDK/lwip/lwip-2.1.2/src/core/ipv4\icmp.c **** #if CHECKSUM_GEN_IP
 498              		.loc 1 236 9
 499 01bc 23850400 		sb	zero,10(s1)
 500 01c0 A3850400 		sb	zero,11(s1)
 239:C:/Users/stapi/OneDrive/Desktop/GD32VW553/GD32VW55X_Wifi_BLE_SDK/GD32VW55x_RELEASE_V1.0.2/MSDK/lwip/lwip-2.1.2/src/core/ipv4\icmp.c ****         }
 501              		.loc 1 239 11 is_stmt 1
 502 01c4 2685     		mv	a0,s1
 503 01c6 97000000 		call	inet_chksum
 503      E7800000 
 504              	.LVL44:
 505 01ce 2385A400 		sb	a0,10(s1)
 250:C:/Users/stapi/OneDrive/Desktop/GD32VW553/GD32VW55X_Wifi_BLE_SDK/GD32VW55x_RELEASE_V1.0.2/MSDK/lwip/lwip-2.1.2/src/core/ipv4\icmp.c ****                             ICMP_TTL, 0, IP_PROTO_ICMP, inp);
 506              		.loc 1 250 15 is_stmt 0
 507 01d2 B7050000 		lui	a1,%hi(ip_data+20)
 239:C:/Users/stapi/OneDrive/Desktop/GD32VW553/GD32VW55X_Wifi_BLE_SDK/GD32VW55x_RELEASE_V1.0.2/MSDK/lwip/lwip-2.1.2/src/core/ipv4\icmp.c ****         }
 508              		.loc 1 239 11
 509 01d6 2181     		srli	a0,a0,8
 510 01d8 A385A400 		sb	a0,11(s1)
 243:C:/Users/stapi/OneDrive/Desktop/GD32VW553/GD32VW55X_Wifi_BLE_SDK/GD32VW55x_RELEASE_V1.0.2/MSDK/lwip/lwip-2.1.2/src/core/ipv4\icmp.c ****         /* increase number of messages attempted to send */
 511              		.loc 1 243 34 is_stmt 1
 245:C:/Users/stapi/OneDrive/Desktop/GD32VW553/GD32VW55X_Wifi_BLE_SDK/GD32VW55x_RELEASE_V1.0.2/MSDK/lwip/lwip-2.1.2/src/core/ipv4\icmp.c ****         /* increase number of echo replies attempted to send */
 512              		.loc 1 245 41
 247:C:/Users/stapi/OneDrive/Desktop/GD32VW553/GD32VW55X_Wifi_BLE_SDK/GD32VW55x_RELEASE_V1.0.2/MSDK/lwip/lwip-2.1.2/src/core/ipv4\icmp.c **** 
 513              		.loc 1 247 45
 250:C:/Users/stapi/OneDrive/Desktop/GD32VW553/GD32VW55X_Wifi_BLE_SDK/GD32VW55x_RELEASE_V1.0.2/MSDK/lwip/lwip-2.1.2/src/core/ipv4\icmp.c ****                             ICMP_TTL, 0, IP_PROTO_ICMP, inp);
 514              		.loc 1 250 9
 250:C:/Users/stapi/OneDrive/Desktop/GD32VW553/GD32VW55X_Wifi_BLE_SDK/GD32VW55x_RELEASE_V1.0.2/MSDK/lwip/lwip-2.1.2/src/core/ipv4\icmp.c ****                             ICMP_TTL, 0, IP_PROTO_ICMP, inp);
 515              		.loc 1 250 15 is_stmt 0
 516 01dc 4E88     		mv	a6,s3
 517 01de 8547     		li	a5,1
 518 01e0 0147     		li	a4,0
 519 01e2 9306F00F 		li	a3,255
 520 01e6 0146     		li	a2,0
 521 01e8 93854501 		addi	a1,a1,%lo(ip_data+20)
 522 01ec 2285     		mv	a0,s0
 523 01ee 97000000 		call	ip4_output_if
 523      E7800000 
 524              	.LVL45:
 252:C:/Users/stapi/OneDrive/Desktop/GD32VW553/GD32VW55X_Wifi_BLE_SDK/GD32VW55x_RELEASE_V1.0.2/MSDK/lwip/lwip-2.1.2/src/core/ipv4\icmp.c ****           LWIP_DEBUGF(ICMP_DEBUG, ("icmp_input: ip_output_if returned an error: %s\n", lwip_strerr(
 525              		.loc 1 252 9 is_stmt 1
 526              	.LBE3:
 275:C:/Users/stapi/OneDrive/Desktop/GD32VW553/GD32VW55X_Wifi_BLE_SDK/GD32VW55x_RELEASE_V1.0.2/MSDK/lwip/lwip-2.1.2/src/core/ipv4\icmp.c ****       }
 527              		.loc 1 275 48
 278:C:/Users/stapi/OneDrive/Desktop/GD32VW553/GD32VW55X_Wifi_BLE_SDK/GD32VW55x_RELEASE_V1.0.2/MSDK/lwip/lwip-2.1.2/src/core/ipv4\icmp.c ****       ICMP_STATS_INC(icmp.proterr);
 528              		.loc 1 278 58
 279:C:/Users/stapi/OneDrive/Desktop/GD32VW553/GD32VW55X_Wifi_BLE_SDK/GD32VW55x_RELEASE_V1.0.2/MSDK/lwip/lwip-2.1.2/src/core/ipv4\icmp.c ****       ICMP_STATS_INC(icmp.drop);
 529              		.loc 1 279 35
 280:C:/Users/stapi/OneDrive/Desktop/GD32VW553/GD32VW55X_Wifi_BLE_SDK/GD32VW55x_RELEASE_V1.0.2/MSDK/lwip/lwip-2.1.2/src/core/ipv4\icmp.c ****   }
 530              		.loc 1 280 32
 282:C:/Users/stapi/OneDrive/Desktop/GD32VW553/GD32VW55X_Wifi_BLE_SDK/GD32VW55x_RELEASE_V1.0.2/MSDK/lwip/lwip-2.1.2/src/core/ipv4\icmp.c ****   return;
 531              		.loc 1 282 3
 532              	.LBB4:
 533 01f6 A5BD     		j	.L26
 534              	.LVL46:
 535              	.L16:
 536              	.LBE4:
 198:C:/Users/stapi/OneDrive/Desktop/GD32VW553/GD32VW55X_Wifi_BLE_SDK/GD32VW55x_RELEASE_V1.0.2/MSDK/lwip/lwip-2.1.2/src/core/ipv4\icmp.c ****           LWIP_ASSERT("icmp_input: restoring original p->payload failed\n", 0);
 537              		.loc 1 198 9
 198:C:/Users/stapi/OneDrive/Desktop/GD32VW553/GD32VW55X_Wifi_BLE_SDK/GD32VW55x_RELEASE_V1.0.2/MSDK/lwip/lwip-2.1.2/src/core/ipv4\icmp.c ****           LWIP_ASSERT("icmp_input: restoring original p->payload failed\n", 0);
 538              		.loc 1 198 13 is_stmt 0
 539 01f8 2285     		mv	a0,s0
 540 01fa 97000000 		call	pbuf_remove_header
 540      E7800000 
 541              	.LVL47:
 198:C:/Users/stapi/OneDrive/Desktop/GD32VW553/GD32VW55X_Wifi_BLE_SDK/GD32VW55x_RELEASE_V1.0.2/MSDK/lwip/lwip-2.1.2/src/core/ipv4\icmp.c ****           LWIP_ASSERT("icmp_input: restoring original p->payload failed\n", 0);
 542              		.loc 1 198 12
 543 0202 1DD9     		beq	a0,zero,.L22
 199:C:/Users/stapi/OneDrive/Desktop/GD32VW553/GD32VW55X_Wifi_BLE_SDK/GD32VW55x_RELEASE_V1.0.2/MSDK/lwip/lwip-2.1.2/src/core/ipv4\icmp.c ****           goto icmperr;
 544              		.loc 1 199 11 is_stmt 1 discriminator 1
 199:C:/Users/stapi/OneDrive/Desktop/GD32VW553/GD32VW55X_Wifi_BLE_SDK/GD32VW55x_RELEASE_V1.0.2/MSDK/lwip/lwip-2.1.2/src/core/ipv4\icmp.c ****           goto icmperr;
 545              		.loc 1 199 11 discriminator 1
 199:C:/Users/stapi/OneDrive/Desktop/GD32VW553/GD32VW55X_Wifi_BLE_SDK/GD32VW55x_RELEASE_V1.0.2/MSDK/lwip/lwip-2.1.2/src/core/ipv4\icmp.c ****           goto icmperr;
 546              		.loc 1 199 11 discriminator 1
 199:C:/Users/stapi/OneDrive/Desktop/GD32VW553/GD32VW55X_Wifi_BLE_SDK/GD32VW55x_RELEASE_V1.0.2/MSDK/lwip/lwip-2.1.2/src/core/ipv4\icmp.c ****           goto icmperr;
 547              		.loc 1 199 11 discriminator 1
 548 0204 B7060000 		lui	a3,%hi(.LC0)
 549 0208 B7050000 		lui	a1,%hi(.LC4)
 550 020c 37050000 		lui	a0,%hi(.LC2)
 551 0210 93860600 		addi	a3,a3,%lo(.LC0)
 552 0214 1306700C 		li	a2,199
 553 0218 93850500 		addi	a1,a1,%lo(.LC4)
 554 021c 13050500 		addi	a0,a0,%lo(.LC2)
 555 0220 97000000 		call	printf
 555      E7800000 
 556              	.LVL48:
 557              	.L23:
 199:C:/Users/stapi/OneDrive/Desktop/GD32VW553/GD32VW55X_Wifi_BLE_SDK/GD32VW55x_RELEASE_V1.0.2/MSDK/lwip/lwip-2.1.2/src/core/ipv4\icmp.c ****           goto icmperr;
 558              		.loc 1 199 11 discriminator 2
 199:C:/Users/stapi/OneDrive/Desktop/GD32VW553/GD32VW55X_Wifi_BLE_SDK/GD32VW55x_RELEASE_V1.0.2/MSDK/lwip/lwip-2.1.2/src/core/ipv4\icmp.c ****           goto icmperr;
 559              		.loc 1 199 11 discriminator 2
 199:C:/Users/stapi/OneDrive/Desktop/GD32VW553/GD32VW55X_Wifi_BLE_SDK/GD32VW55x_RELEASE_V1.0.2/MSDK/lwip/lwip-2.1.2/src/core/ipv4\icmp.c ****           goto icmperr;
 560              		.loc 1 199 11 discriminator 2
 561 0228 01A0     		j	.L23
 562              	.LVL49:
 563              	.L24:
 564              	.LBB5:
 222:C:/Users/stapi/OneDrive/Desktop/GD32VW553/GD32VW55X_Wifi_BLE_SDK/GD32VW55x_RELEASE_V1.0.2/MSDK/lwip/lwip-2.1.2/src/core/ipv4\icmp.c ****           }
 565              		.loc 1 222 13
 222:C:/Users/stapi/OneDrive/Desktop/GD32VW553/GD32VW55X_Wifi_BLE_SDK/GD32VW55x_RELEASE_V1.0.2/MSDK/lwip/lwip-2.1.2/src/core/ipv4\icmp.c ****           }
 566              		.loc 1 222 29 is_stmt 0
 567 022a A107     		addi	a5,a5,8
 568 022c ADBF     		j	.L34
 569              	.LBE5:
 570              		.cfi_endproc
 571              	.LFE4:
 573              		.section	.text.icmp_dest_unreach,"ax",@progbits
 574              		.align	1
 575              		.globl	icmp_dest_unreach
 577              	icmp_dest_unreach:
 578              	.LFB5:
 309:C:/Users/stapi/OneDrive/Desktop/GD32VW553/GD32VW55X_Wifi_BLE_SDK/GD32VW55x_RELEASE_V1.0.2/MSDK/lwip/lwip-2.1.2/src/core/ipv4\icmp.c ****   MIB2_STATS_INC(mib2.icmpoutdestunreachs);
 579              		.loc 1 309 1 is_stmt 1
 580              		.cfi_startproc
 581              	.LVL50:
 310:C:/Users/stapi/OneDrive/Desktop/GD32VW553/GD32VW55X_Wifi_BLE_SDK/GD32VW55x_RELEASE_V1.0.2/MSDK/lwip/lwip-2.1.2/src/core/ipv4\icmp.c ****   icmp_send_response(p, ICMP_DUR, t);
 582              		.loc 1 310 43
 311:C:/Users/stapi/OneDrive/Desktop/GD32VW553/GD32VW55X_Wifi_BLE_SDK/GD32VW55x_RELEASE_V1.0.2/MSDK/lwip/lwip-2.1.2/src/core/ipv4\icmp.c **** }
 583              		.loc 1 311 3
 584 0000 13F6F50F 		andi	a2,a1,0xff
 585 0004 8D45     		li	a1,3
 586              	.LVL51:
 587 0006 17030000 		tail	icmp_send_response
 587      67000300 
 588              	.LVL52:
 589              		.cfi_endproc
 590              	.LFE5:
 592              		.section	.text.icmp_time_exceeded,"ax",@progbits
 593              		.align	1
 594              		.globl	icmp_time_exceeded
 596              	icmp_time_exceeded:
 597              	.LFB6:
 324:C:/Users/stapi/OneDrive/Desktop/GD32VW553/GD32VW55X_Wifi_BLE_SDK/GD32VW55x_RELEASE_V1.0.2/MSDK/lwip/lwip-2.1.2/src/core/ipv4\icmp.c ****   MIB2_STATS_INC(mib2.icmpouttimeexcds);
 598              		.loc 1 324 1
 599              		.cfi_startproc
 600              	.LVL53:
 325:C:/Users/stapi/OneDrive/Desktop/GD32VW553/GD32VW55X_Wifi_BLE_SDK/GD32VW55x_RELEASE_V1.0.2/MSDK/lwip/lwip-2.1.2/src/core/ipv4\icmp.c ****   icmp_send_response(p, ICMP_TE, t);
 601              		.loc 1 325 40
 326:C:/Users/stapi/OneDrive/Desktop/GD32VW553/GD32VW55X_Wifi_BLE_SDK/GD32VW55x_RELEASE_V1.0.2/MSDK/lwip/lwip-2.1.2/src/core/ipv4\icmp.c **** }
 602              		.loc 1 326 3
 603 0000 13F6F50F 		andi	a2,a1,0xff
 604 0004 AD45     		li	a1,11
 605              	.LVL54:
 606 0006 17030000 		tail	icmp_send_response
 606      67000300 
 607              	.LVL55:
 608              		.cfi_endproc
 609              	.LFE6:
 611              		.text
 612              	.Letext0:
 613              		.file 2 "c:\\users\\stapi\\onedrive\\desktop\\gd32vw553\\embeddedbuilder_v1.4.7.26843\\tools\\nucl
 614              		.file 3 "c:\\users\\stapi\\onedrive\\desktop\\gd32vw553\\embeddedbuilder_v1.4.7.26843\\tools\\nucl
 615              		.file 4 "..\\..\\..\\..\\lwip\\lwip-2.1.2\\src\\include/lwip/arch.h"
 616              		.file 5 "..\\..\\..\\..\\lwip\\lwip-2.1.2\\src\\include/lwip/err.h"
 617              		.file 6 "..\\..\\..\\..\\lwip\\lwip-2.1.2\\src\\include/lwip/pbuf.h"
 618              		.file 7 "..\\..\\..\\..\\lwip\\lwip-2.1.2\\src\\include/lwip/ip4_addr.h"
 619              		.file 8 "..\\..\\..\\..\\lwip\\lwip-2.1.2\\src\\include/lwip/ip_addr.h"
 620              		.file 9 "..\\..\\..\\..\\lwip\\lwip-2.1.2\\src\\include/lwip/netif.h"
 621              		.file 10 "..\\..\\..\\..\\lwip\\lwip-2.1.2\\src\\include/lwip/prot/icmp.h"
 622              		.file 11 "..\\..\\..\\..\\lwip\\lwip-2.1.2\\src\\include/lwip/icmp.h"
 623              		.file 12 "..\\..\\..\\..\\lwip\\lwip-2.1.2\\src\\include/lwip/prot/ip4.h"
 624              		.file 13 "..\\..\\..\\..\\lwip\\lwip-2.1.2\\src\\include/lwip/ip.h"
 625              		.file 14 "c:\\users\\stapi\\onedrive\\desktop\\gd32vw553\\embeddedbuilder_v1.4.7.26843\\tools\\nuc
 626              		.file 15 "..\\..\\..\\..\\lwip\\lwip-2.1.2\\src\\include/lwip/ip4.h"
 627              		.file 16 "..\\..\\..\\..\\lwip\\lwip-2.1.2\\src\\include/lwip/inet_chksum.h"
 628              		.file 17 "<built-in>"
DEFINED SYMBOLS
                            *ABS*:0000000000000000 icmp.c
C:\Users\stapi\AppData\Local\Temp\cciXcrA3.s:22     .text.icmp_send_response:0000000000000000 icmp_send_response
C:\Users\stapi\AppData\Local\Temp\cciXcrA3.s:26     .text.icmp_send_response:0000000000000000 .L0 
C:\Users\stapi\AppData\Local\Temp\cciXcrA3.s:28     .text.icmp_send_response:0000000000000000 .L0 
C:\Users\stapi\AppData\Local\Temp\cciXcrA3.s:29     .text.icmp_send_response:0000000000000008 .L0 
C:\Users\stapi\AppData\Local\Temp\cciXcrA3.s:30     .text.icmp_send_response:0000000000000008 .L0 
C:\Users\stapi\AppData\Local\Temp\cciXcrA3.s:31     .text.icmp_send_response:0000000000000008 .L0 
C:\Users\stapi\AppData\Local\Temp\cciXcrA3.s:32     .text.icmp_send_response:0000000000000008 .L0 
C:\Users\stapi\AppData\Local\Temp\cciXcrA3.s:33     .text.icmp_send_response:0000000000000008 .L0 
C:\Users\stapi\AppData\Local\Temp\cciXcrA3.s:34     .text.icmp_send_response:0000000000000008 .L0 
C:\Users\stapi\AppData\Local\Temp\cciXcrA3.s:35     .text.icmp_send_response:0000000000000008 .L0 
C:\Users\stapi\AppData\Local\Temp\cciXcrA3.s:37     .text.icmp_send_response:0000000000000008 .L0 
C:\Users\stapi\AppData\Local\Temp\cciXcrA3.s:38     .text.icmp_send_response:0000000000000008 .L0 
C:\Users\stapi\AppData\Local\Temp\cciXcrA3.s:39     .text.icmp_send_response:0000000000000008 .L0 
C:\Users\stapi\AppData\Local\Temp\cciXcrA3.s:40     .text.icmp_send_response:0000000000000008 .L0 
C:\Users\stapi\AppData\Local\Temp\cciXcrA3.s:41     .text.icmp_send_response:0000000000000008 .L0 
C:\Users\stapi\AppData\Local\Temp\cciXcrA3.s:42     .text.icmp_send_response:0000000000000008 .L0 
C:\Users\stapi\AppData\Local\Temp\cciXcrA3.s:43     .text.icmp_send_response:0000000000000008 .L0 
C:\Users\stapi\AppData\Local\Temp\cciXcrA3.s:44     .text.icmp_send_response:0000000000000008 .L0 
C:\Users\stapi\AppData\Local\Temp\cciXcrA3.s:45     .text.icmp_send_response:000000000000000a .L0 
C:\Users\stapi\AppData\Local\Temp\cciXcrA3.s:47     .text.icmp_send_response:000000000000000a .L0 
C:\Users\stapi\AppData\Local\Temp\cciXcrA3.s:51     .text.icmp_send_response:0000000000000010 .L0 
C:\Users\stapi\AppData\Local\Temp\cciXcrA3.s:60     .text.icmp_send_response:0000000000000024 .L0 
C:\Users\stapi\AppData\Local\Temp\cciXcrA3.s:61     .text.icmp_send_response:0000000000000024 .L0 
C:\Users\stapi\AppData\Local\Temp\cciXcrA3.s:63     .text.icmp_send_response:0000000000000026 .L0 
C:\Users\stapi\AppData\Local\Temp\cciXcrA3.s:67     .text.icmp_send_response:0000000000000030 .L0 
C:\Users\stapi\AppData\Local\Temp\cciXcrA3.s:68     .text.icmp_send_response:0000000000000030 .L0 
C:\Users\stapi\AppData\Local\Temp\cciXcrA3.s:70     .text.icmp_send_response:0000000000000034 .L0 
C:\Users\stapi\AppData\Local\Temp\cciXcrA3.s:71     .text.icmp_send_response:0000000000000034 .L0 
C:\Users\stapi\AppData\Local\Temp\cciXcrA3.s:83     .text.icmp_send_response:0000000000000058 .L0 
C:\Users\stapi\AppData\Local\Temp\cciXcrA3.s:84     .text.icmp_send_response:0000000000000058 .L0 
C:\Users\stapi\AppData\Local\Temp\cciXcrA3.s:85     .text.icmp_send_response:0000000000000058 .L0 
C:\Users\stapi\AppData\Local\Temp\cciXcrA3.s:88     .text.icmp_send_response:000000000000005a .L0 
C:\Users\stapi\AppData\Local\Temp\cciXcrA3.s:89     .text.icmp_send_response:000000000000005a .L0 
C:\Users\stapi\AppData\Local\Temp\cciXcrA3.s:90     .text.icmp_send_response:000000000000005a .L0 
C:\Users\stapi\AppData\Local\Temp\cciXcrA3.s:91     .text.icmp_send_response:000000000000005a .L0 
C:\Users\stapi\AppData\Local\Temp\cciXcrA3.s:94     .text.icmp_send_response:000000000000005e .L0 
C:\Users\stapi\AppData\Local\Temp\cciXcrA3.s:95     .text.icmp_send_response:000000000000005e .L0 
C:\Users\stapi\AppData\Local\Temp\cciXcrA3.s:96     .text.icmp_send_response:000000000000005e .L0 
C:\Users\stapi\AppData\Local\Temp\cciXcrA3.s:97     .text.icmp_send_response:000000000000005e .L0 
C:\Users\stapi\AppData\Local\Temp\cciXcrA3.s:98     .text.icmp_send_response:000000000000005e .L0 
C:\Users\stapi\AppData\Local\Temp\cciXcrA3.s:99     .text.icmp_send_response:000000000000005e .L0 
C:\Users\stapi\AppData\Local\Temp\cciXcrA3.s:100    .text.icmp_send_response:000000000000005e .L0 
C:\Users\stapi\AppData\Local\Temp\cciXcrA3.s:103    .text.icmp_send_response:0000000000000060 .L0 
C:\Users\stapi\AppData\Local\Temp\cciXcrA3.s:104    .text.icmp_send_response:0000000000000060 .L0 
C:\Users\stapi\AppData\Local\Temp\cciXcrA3.s:107    .text.icmp_send_response:0000000000000064 .L0 
C:\Users\stapi\AppData\Local\Temp\cciXcrA3.s:109    .text.icmp_send_response:0000000000000068 .L0 
C:\Users\stapi\AppData\Local\Temp\cciXcrA3.s:110    .text.icmp_send_response:0000000000000068 .L0 
C:\Users\stapi\AppData\Local\Temp\cciXcrA3.s:112    .text.icmp_send_response:000000000000006c .L0 
C:\Users\stapi\AppData\Local\Temp\cciXcrA3.s:113    .text.icmp_send_response:000000000000006c .L0 
C:\Users\stapi\AppData\Local\Temp\cciXcrA3.s:116    .text.icmp_send_response:0000000000000074 .L0 
C:\Users\stapi\AppData\Local\Temp\cciXcrA3.s:117    .text.icmp_send_response:0000000000000074 .L0 
C:\Users\stapi\AppData\Local\Temp\cciXcrA3.s:120    .text.icmp_send_response:000000000000007c .L0 
C:\Users\stapi\AppData\Local\Temp\cciXcrA3.s:124    .text.icmp_send_response:0000000000000088 .L0 
C:\Users\stapi\AppData\Local\Temp\cciXcrA3.s:127    .text.icmp_send_response:0000000000000090 .L0 
C:\Users\stapi\AppData\Local\Temp\cciXcrA3.s:129    .text.icmp_send_response:0000000000000092 .L0 
C:\Users\stapi\AppData\Local\Temp\cciXcrA3.s:139    .text.icmp_send_response:00000000000000a8 .L0 
C:\Users\stapi\AppData\Local\Temp\cciXcrA3.s:140    .text.icmp_send_response:00000000000000a8 .L0 
C:\Users\stapi\AppData\Local\Temp\cciXcrA3.s:143    .text.icmp_send_response:00000000000000b0 .L0 
C:\Users\stapi\AppData\Local\Temp\cciXcrA3.s:144    .text.icmp_send_response:00000000000000b0 .L0 
C:\Users\stapi\AppData\Local\Temp\cciXcrA3.s:147    .text.icmp_send_response:00000000000000b4 .L0 
C:\Users\stapi\AppData\Local\Temp\cciXcrA3.s:148    .text.icmp_send_response:00000000000000b4 .L0 
C:\Users\stapi\AppData\Local\Temp\cciXcrA3.s:150    .text.icmp_send_response:00000000000000b8 .L0 
C:\Users\stapi\AppData\Local\Temp\cciXcrA3.s:153    .text.icmp_send_response:00000000000000c0 .L0 
C:\Users\stapi\AppData\Local\Temp\cciXcrA3.s:154    .text.icmp_send_response:00000000000000c0 .L0 
C:\Users\stapi\AppData\Local\Temp\cciXcrA3.s:159    .text.icmp_send_response:00000000000000ca .L0 
C:\Users\stapi\AppData\Local\Temp\cciXcrA3.s:161    .text.icmp_send_response:00000000000000cc .L0 
C:\Users\stapi\AppData\Local\Temp\cciXcrA3.s:165    .text.icmp_send_response:00000000000000d8 .L0 
C:\Users\stapi\AppData\Local\Temp\cciXcrA3.s:166    .text.icmp_send_response:00000000000000d8 .L0 
C:\Users\stapi\AppData\Local\Temp\cciXcrA3.s:176    .text.icmp_send_response:00000000000000ee .L0 
C:\Users\stapi\AppData\Local\Temp\cciXcrA3.s:181    .text.icmp_send_response:00000000000000f8 .L0 
C:\Users\stapi\AppData\Local\Temp\cciXcrA3.s:182    .text.icmp_send_response:00000000000000fa .L0 
C:\Users\stapi\AppData\Local\Temp\cciXcrA3.s:184    .text.icmp_send_response:0000000000000102 .L0 
C:\Users\stapi\AppData\Local\Temp\cciXcrA3.s:185    .text.icmp_send_response:0000000000000102 .L0 
C:\Users\stapi\AppData\Local\Temp\cciXcrA3.s:186    .text.icmp_send_response:0000000000000102 .L0 
C:\Users\stapi\AppData\Local\Temp\cciXcrA3.s:187    .text.icmp_send_response:0000000000000102 .L0 
C:\Users\stapi\AppData\Local\Temp\cciXcrA3.s:188    .text.icmp_send_response:0000000000000102 .L0 
C:\Users\stapi\AppData\Local\Temp\cciXcrA3.s:189    .text.icmp_send_response:0000000000000102 .L0 
C:\Users\stapi\AppData\Local\Temp\cciXcrA3.s:190    .text.icmp_send_response:0000000000000102 .L0 
C:\Users\stapi\AppData\Local\Temp\cciXcrA3.s:191    .text.icmp_send_response:0000000000000102 .L0 
C:\Users\stapi\AppData\Local\Temp\cciXcrA3.s:205    .text.icmp_input:0000000000000000 icmp_input
C:\Users\stapi\AppData\Local\Temp\cciXcrA3.s:208    .text.icmp_input:0000000000000000 .L0 
C:\Users\stapi\AppData\Local\Temp\cciXcrA3.s:210    .text.icmp_input:0000000000000000 .L0 
C:\Users\stapi\AppData\Local\Temp\cciXcrA3.s:211    .text.icmp_input:0000000000000008 .L0 
C:\Users\stapi\AppData\Local\Temp\cciXcrA3.s:212    .text.icmp_input:0000000000000008 .L0 
C:\Users\stapi\AppData\Local\Temp\cciXcrA3.s:213    .text.icmp_input:0000000000000008 .L0 
C:\Users\stapi\AppData\Local\Temp\cciXcrA3.s:214    .text.icmp_input:0000000000000008 .L0 
C:\Users\stapi\AppData\Local\Temp\cciXcrA3.s:215    .text.icmp_input:0000000000000008 .L0 
C:\Users\stapi\AppData\Local\Temp\cciXcrA3.s:216    .text.icmp_input:0000000000000008 .L0 
C:\Users\stapi\AppData\Local\Temp\cciXcrA3.s:217    .text.icmp_input:0000000000000008 .L0 
C:\Users\stapi\AppData\Local\Temp\cciXcrA3.s:218    .text.icmp_input:0000000000000008 .L0 
C:\Users\stapi\AppData\Local\Temp\cciXcrA3.s:219    .text.icmp_input:0000000000000008 .L0 
C:\Users\stapi\AppData\Local\Temp\cciXcrA3.s:221    .text.icmp_input:0000000000000008 .L0 
C:\Users\stapi\AppData\Local\Temp\cciXcrA3.s:222    .text.icmp_input:0000000000000008 .L0 
C:\Users\stapi\AppData\Local\Temp\cciXcrA3.s:223    .text.icmp_input:0000000000000008 .L0 
C:\Users\stapi\AppData\Local\Temp\cciXcrA3.s:224    .text.icmp_input:0000000000000008 .L0 
C:\Users\stapi\AppData\Local\Temp\cciXcrA3.s:225    .text.icmp_input:0000000000000008 .L0 
C:\Users\stapi\AppData\Local\Temp\cciXcrA3.s:226    .text.icmp_input:0000000000000008 .L0 
C:\Users\stapi\AppData\Local\Temp\cciXcrA3.s:227    .text.icmp_input:0000000000000008 .L0 
C:\Users\stapi\AppData\Local\Temp\cciXcrA3.s:228    .text.icmp_input:0000000000000008 .L0 
C:\Users\stapi\AppData\Local\Temp\cciXcrA3.s:229    .text.icmp_input:0000000000000008 .L0 
C:\Users\stapi\AppData\Local\Temp\cciXcrA3.s:234    .text.icmp_input:0000000000000014 .L0 
C:\Users\stapi\AppData\Local\Temp\cciXcrA3.s:235    .text.icmp_input:0000000000000014 .L0 
C:\Users\stapi\AppData\Local\Temp\cciXcrA3.s:237    .text.icmp_input:0000000000000016 .L0 
C:\Users\stapi\AppData\Local\Temp\cciXcrA3.s:238    .text.icmp_input:0000000000000018 .L0 
C:\Users\stapi\AppData\Local\Temp\cciXcrA3.s:240    .text.icmp_input:0000000000000018 .L0 
C:\Users\stapi\AppData\Local\Temp\cciXcrA3.s:242    .text.icmp_input:000000000000001c .L0 
C:\Users\stapi\AppData\Local\Temp\cciXcrA3.s:244    .text.icmp_input:000000000000001e .L0 
C:\Users\stapi\AppData\Local\Temp\cciXcrA3.s:248    .text.icmp_input:0000000000000022 .L0 
C:\Users\stapi\AppData\Local\Temp\cciXcrA3.s:249    .text.icmp_input:0000000000000022 .L0 
C:\Users\stapi\AppData\Local\Temp\cciXcrA3.s:251    .text.icmp_input:0000000000000026 .L0 
C:\Users\stapi\AppData\Local\Temp\cciXcrA3.s:252    .text.icmp_input:0000000000000026 .L0 
C:\Users\stapi\AppData\Local\Temp\cciXcrA3.s:257    .text.icmp_input:0000000000000030 .L0 
C:\Users\stapi\AppData\Local\Temp\cciXcrA3.s:258    .text.icmp_input:0000000000000030 .L0 
C:\Users\stapi\AppData\Local\Temp\cciXcrA3.s:259    .text.icmp_input:0000000000000030 .L0 
C:\Users\stapi\AppData\Local\Temp\cciXcrA3.s:261    .text.icmp_input:0000000000000032 .L0 
C:\Users\stapi\AppData\Local\Temp\cciXcrA3.s:265    .text.icmp_input:000000000000003c .L0 
C:\Users\stapi\AppData\Local\Temp\cciXcrA3.s:267    .text.icmp_input:000000000000003c .L0 
C:\Users\stapi\AppData\Local\Temp\cciXcrA3.s:268    .text.icmp_input:000000000000003c .L0 
C:\Users\stapi\AppData\Local\Temp\cciXcrA3.s:269    .text.icmp_input:000000000000003c .L0 
C:\Users\stapi\AppData\Local\Temp\cciXcrA3.s:272    .text.icmp_input:000000000000003e .L0 
C:\Users\stapi\AppData\Local\Temp\cciXcrA3.s:274    .text.icmp_input:0000000000000042 .L0 
C:\Users\stapi\AppData\Local\Temp\cciXcrA3.s:276    .text.icmp_input:0000000000000046 .L0 
C:\Users\stapi\AppData\Local\Temp\cciXcrA3.s:279    .text.icmp_input:000000000000004c .L0 
C:\Users\stapi\AppData\Local\Temp\cciXcrA3.s:280    .text.icmp_input:000000000000004c .L0 
C:\Users\stapi\AppData\Local\Temp\cciXcrA3.s:285    .text.icmp_input:0000000000000056 .L0 
C:\Users\stapi\AppData\Local\Temp\cciXcrA3.s:287    .text.icmp_input:0000000000000058 .L0 
C:\Users\stapi\AppData\Local\Temp\cciXcrA3.s:288    .text.icmp_input:0000000000000058 .L0 
C:\Users\stapi\AppData\Local\Temp\cciXcrA3.s:289    .text.icmp_input:0000000000000058 .L0 
C:\Users\stapi\AppData\Local\Temp\cciXcrA3.s:293    .text.icmp_input:0000000000000062 .L0 
C:\Users\stapi\AppData\Local\Temp\cciXcrA3.s:294    .text.icmp_input:0000000000000062 .L0 
C:\Users\stapi\AppData\Local\Temp\cciXcrA3.s:298    .text.icmp_input:000000000000006c .L0 
C:\Users\stapi\AppData\Local\Temp\cciXcrA3.s:303    .text.icmp_input:000000000000006e .L0 
C:\Users\stapi\AppData\Local\Temp\cciXcrA3.s:307    .text.icmp_input:0000000000000078 .L0 
C:\Users\stapi\AppData\Local\Temp\cciXcrA3.s:308    .text.icmp_input:0000000000000078 .L0 
C:\Users\stapi\AppData\Local\Temp\cciXcrA3.s:309    .text.icmp_input:0000000000000078 .L0 
C:\Users\stapi\AppData\Local\Temp\cciXcrA3.s:310    .text.icmp_input:0000000000000078 .L0 
C:\Users\stapi\AppData\Local\Temp\cciXcrA3.s:311    .text.icmp_input:000000000000007a .L0 
C:\Users\stapi\AppData\Local\Temp\cciXcrA3.s:312    .text.icmp_input:000000000000007a .L0 
C:\Users\stapi\AppData\Local\Temp\cciXcrA3.s:314    .text.icmp_input:0000000000000082 .L0 
C:\Users\stapi\AppData\Local\Temp\cciXcrA3.s:315    .text.icmp_input:0000000000000082 .L0 
C:\Users\stapi\AppData\Local\Temp\cciXcrA3.s:316    .text.icmp_input:0000000000000082 .L0 
C:\Users\stapi\AppData\Local\Temp\cciXcrA3.s:317    .text.icmp_input:0000000000000082 .L0 
C:\Users\stapi\AppData\Local\Temp\cciXcrA3.s:318    .text.icmp_input:0000000000000082 .L0 
C:\Users\stapi\AppData\Local\Temp\cciXcrA3.s:319    .text.icmp_input:0000000000000082 .L0 
C:\Users\stapi\AppData\Local\Temp\cciXcrA3.s:320    .text.icmp_input:0000000000000082 .L0 
C:\Users\stapi\AppData\Local\Temp\cciXcrA3.s:321    .text.icmp_input:0000000000000082 .L0 
C:\Users\stapi\AppData\Local\Temp\cciXcrA3.s:322    .text.icmp_input:0000000000000082 .L0 
C:\Users\stapi\AppData\Local\Temp\cciXcrA3.s:325    .text.icmp_input:0000000000000082 .L0 
C:\Users\stapi\AppData\Local\Temp\cciXcrA3.s:327    .text.icmp_input:0000000000000082 .L0 
C:\Users\stapi\AppData\Local\Temp\cciXcrA3.s:329    .text.icmp_input:0000000000000086 .L0 
C:\Users\stapi\AppData\Local\Temp\cciXcrA3.s:334    .text.icmp_input:0000000000000092 .L0 
C:\Users\stapi\AppData\Local\Temp\cciXcrA3.s:337    .text.icmp_input:0000000000000098 .L0 
C:\Users\stapi\AppData\Local\Temp\cciXcrA3.s:339    .text.icmp_input:000000000000009c .L0 
C:\Users\stapi\AppData\Local\Temp\cciXcrA3.s:340    .text.icmp_input:000000000000009c .L0 
C:\Users\stapi\AppData\Local\Temp\cciXcrA3.s:343    .text.icmp_input:00000000000000a0 .L0 
C:\Users\stapi\AppData\Local\Temp\cciXcrA3.s:344    .text.icmp_input:00000000000000a0 .L0 
C:\Users\stapi\AppData\Local\Temp\cciXcrA3.s:345    .text.icmp_input:00000000000000a0 .L0 
C:\Users\stapi\AppData\Local\Temp\cciXcrA3.s:347    .text.icmp_input:00000000000000a4 .L0 
C:\Users\stapi\AppData\Local\Temp\cciXcrA3.s:351    .text.icmp_input:00000000000000ac .L0 
C:\Users\stapi\AppData\Local\Temp\cciXcrA3.s:352    .text.icmp_input:00000000000000ac .L0 
C:\Users\stapi\AppData\Local\Temp\cciXcrA3.s:354    .text.icmp_input:00000000000000b0 .L0 
C:\Users\stapi\AppData\Local\Temp\cciXcrA3.s:355    .text.icmp_input:00000000000000b0 .L0 
C:\Users\stapi\AppData\Local\Temp\cciXcrA3.s:362    .text.icmp_input:00000000000000c2 .L0 
C:\Users\stapi\AppData\Local\Temp\cciXcrA3.s:363    .text.icmp_input:00000000000000c2 .L0 
C:\Users\stapi\AppData\Local\Temp\cciXcrA3.s:365    .text.icmp_input:00000000000000c4 .L0 
C:\Users\stapi\AppData\Local\Temp\cciXcrA3.s:366    .text.icmp_input:00000000000000c4 .L0 
C:\Users\stapi\AppData\Local\Temp\cciXcrA3.s:372    .text.icmp_input:00000000000000d0 .L0 
C:\Users\stapi\AppData\Local\Temp\cciXcrA3.s:373    .text.icmp_input:00000000000000d0 .L0 
C:\Users\stapi\AppData\Local\Temp\cciXcrA3.s:377    .text.icmp_input:00000000000000da .L0 
C:\Users\stapi\AppData\Local\Temp\cciXcrA3.s:381    .text.icmp_input:00000000000000dc .L0 
C:\Users\stapi\AppData\Local\Temp\cciXcrA3.s:388    .text.icmp_input:00000000000000ea .L0 
C:\Users\stapi\AppData\Local\Temp\cciXcrA3.s:389    .text.icmp_input:00000000000000ea .L0 
C:\Users\stapi\AppData\Local\Temp\cciXcrA3.s:394    .text.icmp_input:00000000000000f6 .L0 
C:\Users\stapi\AppData\Local\Temp\cciXcrA3.s:396    .text.icmp_input:00000000000000f8 .L0 
C:\Users\stapi\AppData\Local\Temp\cciXcrA3.s:397    .text.icmp_input:00000000000000f8 .L0 
C:\Users\stapi\AppData\Local\Temp\cciXcrA3.s:398    .text.icmp_input:00000000000000f8 .L0 
C:\Users\stapi\AppData\Local\Temp\cciXcrA3.s:399    .text.icmp_input:00000000000000f8 .L0 
C:\Users\stapi\AppData\Local\Temp\cciXcrA3.s:410    .text.icmp_input:000000000000011c .L0 
C:\Users\stapi\AppData\Local\Temp\cciXcrA3.s:411    .text.icmp_input:000000000000011c .L0 
C:\Users\stapi\AppData\Local\Temp\cciXcrA3.s:412    .text.icmp_input:000000000000011c .L0 
C:\Users\stapi\AppData\Local\Temp\cciXcrA3.s:415    .text.icmp_input:000000000000011e .L0 
C:\Users\stapi\AppData\Local\Temp\cciXcrA3.s:416    .text.icmp_input:000000000000011e .L0 
C:\Users\stapi\AppData\Local\Temp\cciXcrA3.s:421    .text.icmp_input:000000000000012a .L0 
C:\Users\stapi\AppData\Local\Temp\cciXcrA3.s:423    .text.icmp_input:000000000000012c .L0 
C:\Users\stapi\AppData\Local\Temp\cciXcrA3.s:428    .text.icmp_input:0000000000000136 .L0 
C:\Users\stapi\AppData\Local\Temp\cciXcrA3.s:432    .text.icmp_input:0000000000000138 .L0 
C:\Users\stapi\AppData\Local\Temp\cciXcrA3.s:433    .text.icmp_input:0000000000000138 .L0 
C:\Users\stapi\AppData\Local\Temp\cciXcrA3.s:436    .text.icmp_input:000000000000013c .L0 
C:\Users\stapi\AppData\Local\Temp\cciXcrA3.s:439    .text.icmp_input:0000000000000140 .L0 
C:\Users\stapi\AppData\Local\Temp\cciXcrA3.s:440    .text.icmp_input:0000000000000140 .L0 
C:\Users\stapi\AppData\Local\Temp\cciXcrA3.s:443    .text.icmp_input:0000000000000148 .L0 
C:\Users\stapi\AppData\Local\Temp\cciXcrA3.s:446    .text.icmp_input:000000000000014a .L0 
C:\Users\stapi\AppData\Local\Temp\cciXcrA3.s:447    .text.icmp_input:000000000000014a .L0 
C:\Users\stapi\AppData\Local\Temp\cciXcrA3.s:448    .text.icmp_input:000000000000014a .L0 
C:\Users\stapi\AppData\Local\Temp\cciXcrA3.s:450    .text.icmp_input:000000000000014e .L0 
C:\Users\stapi\AppData\Local\Temp\cciXcrA3.s:453    .text.icmp_input:0000000000000150 .L0 
C:\Users\stapi\AppData\Local\Temp\cciXcrA3.s:461    .text.icmp_input:000000000000016c .L0 
C:\Users\stapi\AppData\Local\Temp\cciXcrA3.s:470    .text.icmp_input:000000000000018c .L0 
C:\Users\stapi\AppData\Local\Temp\cciXcrA3.s:471    .text.icmp_input:000000000000018c .L0 
C:\Users\stapi\AppData\Local\Temp\cciXcrA3.s:474    .text.icmp_input:0000000000000194 .L0 
C:\Users\stapi\AppData\Local\Temp\cciXcrA3.s:476    .text.icmp_input:0000000000000198 .L0 
C:\Users\stapi\AppData\Local\Temp\cciXcrA3.s:477    .text.icmp_input:0000000000000198 .L0 
C:\Users\stapi\AppData\Local\Temp\cciXcrA3.s:480    .text.icmp_input:000000000000019c .L0 
C:\Users\stapi\AppData\Local\Temp\cciXcrA3.s:484    .text.icmp_input:00000000000001a4 .L0 
C:\Users\stapi\AppData\Local\Temp\cciXcrA3.s:485    .text.icmp_input:00000000000001a4 .L0 
C:\Users\stapi\AppData\Local\Temp\cciXcrA3.s:488    .text.icmp_input:00000000000001a6 .L0 
C:\Users\stapi\AppData\Local\Temp\cciXcrA3.s:493    .text.icmp_input:00000000000001b4 .L0 
C:\Users\stapi\AppData\Local\Temp\cciXcrA3.s:496    .text.icmp_input:00000000000001ba .L0 
C:\Users\stapi\AppData\Local\Temp\cciXcrA3.s:497    .text.icmp_input:00000000000001ba .L0 
C:\Users\stapi\AppData\Local\Temp\cciXcrA3.s:499    .text.icmp_input:00000000000001bc .L0 
C:\Users\stapi\AppData\Local\Temp\cciXcrA3.s:502    .text.icmp_input:00000000000001c4 .L0 
C:\Users\stapi\AppData\Local\Temp\cciXcrA3.s:507    .text.icmp_input:00000000000001d2 .L0 
C:\Users\stapi\AppData\Local\Temp\cciXcrA3.s:509    .text.icmp_input:00000000000001d6 .L0 
C:\Users\stapi\AppData\Local\Temp\cciXcrA3.s:512    .text.icmp_input:00000000000001dc .L0 
C:\Users\stapi\AppData\Local\Temp\cciXcrA3.s:513    .text.icmp_input:00000000000001dc .L0 
C:\Users\stapi\AppData\Local\Temp\cciXcrA3.s:514    .text.icmp_input:00000000000001dc .L0 
C:\Users\stapi\AppData\Local\Temp\cciXcrA3.s:515    .text.icmp_input:00000000000001dc .L0 
C:\Users\stapi\AppData\Local\Temp\cciXcrA3.s:516    .text.icmp_input:00000000000001dc .L0 
C:\Users\stapi\AppData\Local\Temp\cciXcrA3.s:527    .text.icmp_input:00000000000001f6 .L0 
C:\Users\stapi\AppData\Local\Temp\cciXcrA3.s:528    .text.icmp_input:00000000000001f6 .L0 
C:\Users\stapi\AppData\Local\Temp\cciXcrA3.s:529    .text.icmp_input:00000000000001f6 .L0 
C:\Users\stapi\AppData\Local\Temp\cciXcrA3.s:530    .text.icmp_input:00000000000001f6 .L0 
C:\Users\stapi\AppData\Local\Temp\cciXcrA3.s:531    .text.icmp_input:00000000000001f6 .L0 
C:\Users\stapi\AppData\Local\Temp\cciXcrA3.s:533    .text.icmp_input:00000000000001f6 .L0 
C:\Users\stapi\AppData\Local\Temp\cciXcrA3.s:538    .text.icmp_input:00000000000001f8 .L0 
C:\Users\stapi\AppData\Local\Temp\cciXcrA3.s:539    .text.icmp_input:00000000000001f8 .L0 
C:\Users\stapi\AppData\Local\Temp\cciXcrA3.s:543    .text.icmp_input:0000000000000202 .L0 
C:\Users\stapi\AppData\Local\Temp\cciXcrA3.s:545    .text.icmp_input:0000000000000204 .L0 
C:\Users\stapi\AppData\Local\Temp\cciXcrA3.s:546    .text.icmp_input:0000000000000204 .L0 
C:\Users\stapi\AppData\Local\Temp\cciXcrA3.s:547    .text.icmp_input:0000000000000204 .L0 
C:\Users\stapi\AppData\Local\Temp\cciXcrA3.s:548    .text.icmp_input:0000000000000204 .L0 
C:\Users\stapi\AppData\Local\Temp\cciXcrA3.s:559    .text.icmp_input:0000000000000228 .L0 
C:\Users\stapi\AppData\Local\Temp\cciXcrA3.s:560    .text.icmp_input:0000000000000228 .L0 
C:\Users\stapi\AppData\Local\Temp\cciXcrA3.s:561    .text.icmp_input:0000000000000228 .L0 
C:\Users\stapi\AppData\Local\Temp\cciXcrA3.s:566    .text.icmp_input:000000000000022a .L0 
C:\Users\stapi\AppData\Local\Temp\cciXcrA3.s:567    .text.icmp_input:000000000000022a .L0 
C:\Users\stapi\AppData\Local\Temp\cciXcrA3.s:570    .text.icmp_input:000000000000022e .L0 
C:\Users\stapi\AppData\Local\Temp\cciXcrA3.s:577    .text.icmp_dest_unreach:0000000000000000 icmp_dest_unreach
C:\Users\stapi\AppData\Local\Temp\cciXcrA3.s:580    .text.icmp_dest_unreach:0000000000000000 .L0 
C:\Users\stapi\AppData\Local\Temp\cciXcrA3.s:582    .text.icmp_dest_unreach:0000000000000000 .L0 
C:\Users\stapi\AppData\Local\Temp\cciXcrA3.s:583    .text.icmp_dest_unreach:0000000000000000 .L0 
C:\Users\stapi\AppData\Local\Temp\cciXcrA3.s:584    .text.icmp_dest_unreach:0000000000000000 .L0 
C:\Users\stapi\AppData\Local\Temp\cciXcrA3.s:589    .text.icmp_dest_unreach:000000000000000e .L0 
C:\Users\stapi\AppData\Local\Temp\cciXcrA3.s:596    .text.icmp_time_exceeded:0000000000000000 icmp_time_exceeded
C:\Users\stapi\AppData\Local\Temp\cciXcrA3.s:599    .text.icmp_time_exceeded:0000000000000000 .L0 
C:\Users\stapi\AppData\Local\Temp\cciXcrA3.s:601    .text.icmp_time_exceeded:0000000000000000 .L0 
C:\Users\stapi\AppData\Local\Temp\cciXcrA3.s:602    .text.icmp_time_exceeded:0000000000000000 .L0 
C:\Users\stapi\AppData\Local\Temp\cciXcrA3.s:603    .text.icmp_time_exceeded:0000000000000000 .L0 
C:\Users\stapi\AppData\Local\Temp\cciXcrA3.s:608    .text.icmp_time_exceeded:000000000000000e .L0 
C:\Users\stapi\AppData\Local\Temp\cciXcrA3.s:194    .text.icmp_send_response:0000000000000102 .L0 
C:\Users\stapi\AppData\Local\Temp\cciXcrA3.s:573    .text.icmp_input:000000000000022e .L0 
C:\Users\stapi\AppData\Local\Temp\cciXcrA3.s:592    .text.icmp_dest_unreach:000000000000000e .L0 
C:\Users\stapi\AppData\Local\Temp\cciXcrA3.s:611    .text.icmp_time_exceeded:000000000000000e .L0 
                     .debug_frame:0000000000000000 .L0 
C:\Users\stapi\AppData\Local\Temp\cciXcrA3.s:11     .rodata.icmp_send_response.str1.4:0000000000000000 .LC0
C:\Users\stapi\AppData\Local\Temp\cciXcrA3.s:14     .rodata.icmp_send_response.str1.4:0000000000000084 .LC1
C:\Users\stapi\AppData\Local\Temp\cciXcrA3.s:17     .rodata.icmp_send_response.str1.4:00000000000000b0 .LC2
C:\Users\stapi\AppData\Local\Temp\cciXcrA3.s:179    .text.icmp_send_response:00000000000000f8 .L1
C:\Users\stapi\AppData\Local\Temp\cciXcrA3.s:86     .text.icmp_send_response:000000000000005a .L4
C:\Users\stapi\AppData\Local\Temp\cciXcrA3.s:81     .text.icmp_send_response:0000000000000058 .L5
C:\Users\stapi\AppData\Local\Temp\cciXcrA3.s:174    .text.icmp_send_response:00000000000000ee .L6
C:\Users\stapi\AppData\Local\Temp\cciXcrA3.s:196    .rodata.icmp_input.str1.4:0000000000000000 .LC3
C:\Users\stapi\AppData\Local\Temp\cciXcrA3.s:199    .rodata.icmp_input.str1.4:0000000000000038 .LC4
C:\Users\stapi\AppData\Local\Temp\cciXcrA3.s:301    .text.icmp_input:000000000000006e .L26
C:\Users\stapi\AppData\Local\Temp\cciXcrA3.s:324    .text.icmp_input:0000000000000082 .L14
C:\Users\stapi\AppData\Local\Temp\cciXcrA3.s:535    .text.icmp_input:00000000000001f8 .L16
C:\Users\stapi\AppData\Local\Temp\cciXcrA3.s:379    .text.icmp_input:00000000000000dc .L17
C:\Users\stapi\AppData\Local\Temp\cciXcrA3.s:413    .text.icmp_input:000000000000011e .L19
C:\Users\stapi\AppData\Local\Temp\cciXcrA3.s:408    .text.icmp_input:000000000000011c .L20
C:\Users\stapi\AppData\Local\Temp\cciXcrA3.s:370    .text.icmp_input:00000000000000d0 .L35
C:\Users\stapi\AppData\Local\Temp\cciXcrA3.s:563    .text.icmp_input:000000000000022a .L24
C:\Users\stapi\AppData\Local\Temp\cciXcrA3.s:430    .text.icmp_input:0000000000000138 .L22
C:\Users\stapi\AppData\Local\Temp\cciXcrA3.s:557    .text.icmp_input:0000000000000228 .L23
C:\Users\stapi\AppData\Local\Temp\cciXcrA3.s:486    .text.icmp_input:00000000000001a6 .L34
C:\Users\stapi\AppData\Local\Temp\cciXcrA3.s:2245   .debug_abbrev:0000000000000000 .Ldebug_abbrev0
C:\Users\stapi\AppData\Local\Temp\cciXcrA3.s:3571   .debug_str:00000000000006ed .LASF138
C:\Users\stapi\AppData\Local\Temp\cciXcrA3.s:3375   .debug_str:00000000000001d8 .LASF139
C:\Users\stapi\AppData\Local\Temp\cciXcrA3.s:3425   .debug_str:0000000000000349 .LASF140
C:\Users\stapi\AppData\Local\Temp\cciXcrA3.s:3271   .debug_ranges:0000000000000000 .Ldebug_ranges0
C:\Users\stapi\AppData\Local\Temp\cciXcrA3.s:3291   .debug_line:0000000000000000 .Ldebug_line0
C:\Users\stapi\AppData\Local\Temp\cciXcrA3.s:3465   .debug_str:00000000000004a5 .LASF0
C:\Users\stapi\AppData\Local\Temp\cciXcrA3.s:3555   .debug_str:0000000000000694 .LASF2
C:\Users\stapi\AppData\Local\Temp\cciXcrA3.s:3499   .debug_str:0000000000000559 .LASF1
C:\Users\stapi\AppData\Local\Temp\cciXcrA3.s:3529   .debug_str:0000000000000607 .LASF3
C:\Users\stapi\AppData\Local\Temp\cciXcrA3.s:3485   .debug_str:000000000000050a .LASF4
C:\Users\stapi\AppData\Local\Temp\cciXcrA3.s:3369   .debug_str:00000000000001ba .LASF5
C:\Users\stapi\AppData\Local\Temp\cciXcrA3.s:3557   .debug_str:00000000000006a0 .LASF6
C:\Users\stapi\AppData\Local\Temp\cciXcrA3.s:3489   .debug_str:000000000000051f .LASF7
C:\Users\stapi\AppData\Local\Temp\cciXcrA3.s:3531   .debug_str:0000000000000615 .LASF8
C:\Users\stapi\AppData\Local\Temp\cciXcrA3.s:3519   .debug_str:00000000000005b9 .LASF9
C:\Users\stapi\AppData\Local\Temp\cciXcrA3.s:3441   .debug_str:0000000000000413 .LASF10
C:\Users\stapi\AppData\Local\Temp\cciXcrA3.s:3361   .debug_str:000000000000016c .LASF11
C:\Users\stapi\AppData\Local\Temp\cciXcrA3.s:3313   .debug_str:0000000000000072 .LASF12
C:\Users\stapi\AppData\Local\Temp\cciXcrA3.s:3351   .debug_str:0000000000000138 .LASF13
C:\Users\stapi\AppData\Local\Temp\cciXcrA3.s:3423   .debug_str:0000000000000341 .LASF14
C:\Users\stapi\AppData\Local\Temp\cciXcrA3.s:3469   .debug_str:00000000000004ba .LASF15
C:\Users\stapi\AppData\Local\Temp\cciXcrA3.s:3349   .debug_str:000000000000012f .LASF16
C:\Users\stapi\AppData\Local\Temp\cciXcrA3.s:3417   .debug_str:0000000000000317 .LASF17
C:\Users\stapi\AppData\Local\Temp\cciXcrA3.s:3447   .debug_str:000000000000042f .LASF18
C:\Users\stapi\AppData\Local\Temp\cciXcrA3.s:3403   .debug_str:00000000000002d1 .LASF19
C:\Users\stapi\AppData\Local\Temp\cciXcrA3.s:3325   .debug_str:00000000000000a8 .LASF20
C:\Users\stapi\AppData\Local\Temp\cciXcrA3.s:3483   .debug_str:0000000000000504 .LASF21
C:\Users\stapi\AppData\Local\Temp\cciXcrA3.s:3553   .debug_str:000000000000068d .LASF22
C:\Users\stapi\AppData\Local\Temp\cciXcrA3.s:3577   .debug_str:00000000000007fb .LASF23
C:\Users\stapi\AppData\Local\Temp\cciXcrA3.s:3477   .debug_str:00000000000004e1 .LASF24
C:\Users\stapi\AppData\Local\Temp\cciXcrA3.s:3411   .debug_str:00000000000002f4 .LASF25
C:\Users\stapi\AppData\Local\Temp\cciXcrA3.s:3565   .debug_str:00000000000006d6 .LASF26
C:\Users\stapi\AppData\Local\Temp\cciXcrA3.s:3495   .debug_str:0000000000000541 .LASF27
C:\Users\stapi\AppData\Local\Temp\cciXcrA3.s:3379   .debug_str:0000000000000264 .LASF28
C:\Users\stapi\AppData\Local\Temp\cciXcrA3.s:3409   .debug_str:00000000000002e5 .LASF29
C:\Users\stapi\AppData\Local\Temp\cciXcrA3.s:3307   .debug_str:0000000000000049 .LASF30
C:\Users\stapi\AppData\Local\Temp\cciXcrA3.s:3343   .debug_str:000000000000010e .LASF31
C:\Users\stapi\AppData\Local\Temp\cciXcrA3.s:3503   .debug_str:000000000000056d .LASF32
C:\Users\stapi\AppData\Local\Temp\cciXcrA3.s:3561   .debug_str:00000000000006ba .LASF33
C:\Users\stapi\AppData\Local\Temp\cciXcrA3.s:3445   .debug_str:0000000000000428 .LASF34
C:\Users\stapi\AppData\Local\Temp\cciXcrA3.s:3543   .debug_str:000000000000064e .LASF35
C:\Users\stapi\AppData\Local\Temp\cciXcrA3.s:3337   .debug_str:00000000000000ec .LASF36
C:\Users\stapi\AppData\Local\Temp\cciXcrA3.s:3305   .debug_str:0000000000000040 .LASF37
C:\Users\stapi\AppData\Local\Temp\cciXcrA3.s:3309   .debug_str:0000000000000051 .LASF38
C:\Users\stapi\AppData\Local\Temp\cciXcrA3.s:3321   .debug_str:0000000000000097 .LASF39
C:\Users\stapi\AppData\Local\Temp\cciXcrA3.s:3341   .debug_str:00000000000000ff .LASF40
C:\Users\stapi\AppData\Local\Temp\cciXcrA3.s:3393   .debug_str:00000000000002a9 .LASF41
C:\Users\stapi\AppData\Local\Temp\cciXcrA3.s:3461   .debug_str:0000000000000486 .LASF42
C:\Users\stapi\AppData\Local\Temp\cciXcrA3.s:3573   .debug_str:00000000000007e6 .LASF43
C:\Users\stapi\AppData\Local\Temp\cciXcrA3.s:3301   .debug_str:0000000000000031 .LASF44
C:\Users\stapi\AppData\Local\Temp\cciXcrA3.s:3297   .debug_str:0000000000000014 .LASF45
C:\Users\stapi\AppData\Local\Temp\cciXcrA3.s:3575   .debug_str:00000000000007f2 .LASF46
C:\Users\stapi\AppData\Local\Temp\cciXcrA3.s:3383   .debug_str:0000000000000278 .LASF47
C:\Users\stapi\AppData\Local\Temp\cciXcrA3.s:3401   .debug_str:00000000000002c7 .LASF48
C:\Users\stapi\AppData\Local\Temp\cciXcrA3.s:3399   .debug_str:00000000000002c2 .LASF55
C:\Users\stapi\AppData\Local\Temp\cciXcrA3.s:3315   .debug_str:000000000000007f .LASF49
C:\Users\stapi\AppData\Local\Temp\cciXcrA3.s:3391   .debug_str:00000000000002a1 .LASF50
C:\Users\stapi\AppData\Local\Temp\cciXcrA3.s:3389   .debug_str:0000000000000299 .LASF51
C:\Users\stapi\AppData\Local\Temp\cciXcrA3.s:3387   .debug_str:000000000000028b .LASF52
C:\Users\stapi\AppData\Local\Temp\cciXcrA3.s:3303   .debug_str:000000000000003a .LASF53
C:\Users\stapi\AppData\Local\Temp\cciXcrA3.s:3473   .debug_str:00000000000004cd .LASF54
C:\Users\stapi\AppData\Local\Temp\cciXcrA3.s:3497   .debug_str:0000000000000550 .LASF56
C:\Users\stapi\AppData\Local\Temp\cciXcrA3.s:3535   .debug_str:000000000000062f .LASF57
C:\Users\stapi\AppData\Local\Temp\cciXcrA3.s:3487   .debug_str:0000000000000514 .LASF58
C:\Users\stapi\AppData\Local\Temp\cciXcrA3.s:3569   .debug_str:00000000000006e3 .LASF59
C:\Users\stapi\AppData\Local\Temp\cciXcrA3.s:3521   .debug_str:00000000000005cb .LASF86
C:\Users\stapi\AppData\Local\Temp\cciXcrA3.s:3463   .debug_str:0000000000000490 .LASF60
C:\Users\stapi\AppData\Local\Temp\cciXcrA3.s:3421   .debug_str:000000000000032c .LASF61
C:\Users\stapi\AppData\Local\Temp\cciXcrA3.s:3541   .debug_str:0000000000000648 .LASF62
C:\Users\stapi\AppData\Local\Temp\cciXcrA3.s:3581   .debug_str:0000000000000808 .LASF63
C:\Users\stapi\AppData\Local\Temp\cciXcrA3.s:3439   .debug_str:000000000000040b .LASF64
C:\Users\stapi\AppData\Local\Temp\cciXcrA3.s:3295   .debug_str:000000000000000e .LASF65
C:\Users\stapi\AppData\Local\Temp\cciXcrA3.s:3395   .debug_str:00000000000002b1 .LASF66
C:\Users\stapi\AppData\Local\Temp\cciXcrA3.s:3323   .debug_str:000000000000009d .LASF67
C:\Users\stapi\AppData\Local\Temp\cciXcrA3.s:3539   .debug_str:0000000000000642 .LASF68
C:\Users\stapi\AppData\Local\Temp\cciXcrA3.s:3415   .debug_str:000000000000030b .LASF69
C:\Users\stapi\AppData\Local\Temp\cciXcrA3.s:3359   .debug_str:0000000000000165 .LASF70
C:\Users\stapi\AppData\Local\Temp\cciXcrA3.s:3373   .debug_str:00000000000001cd .LASF71
C:\Users\stapi\AppData\Local\Temp\cciXcrA3.s:3509   .debug_str:000000000000058b .LASF72
C:\Users\stapi\AppData\Local\Temp\cciXcrA3.s:3513   .debug_str:00000000000005a4 .LASF73
C:\Users\stapi\AppData\Local\Temp\cciXcrA3.s:3419   .debug_str:000000000000031c .LASF74
C:\Users\stapi\AppData\Local\Temp\cciXcrA3.s:3493   .debug_str:0000000000000536 .LASF75
C:\Users\stapi\AppData\Local\Temp\cciXcrA3.s:3397   .debug_str:00000000000002b8 .LASF76
C:\Users\stapi\AppData\Local\Temp\cciXcrA3.s:3347   .debug_str:0000000000000120 .LASF77
C:\Users\stapi\AppData\Local\Temp\cciXcrA3.s:3333   .debug_str:00000000000000cb .LASF78
C:\Users\stapi\AppData\Local\Temp\cciXcrA3.s:3511   .debug_str:0000000000000590 .LASF79
C:\Users\stapi\AppData\Local\Temp\cciXcrA3.s:3551   .debug_str:0000000000000674 .LASF80
C:\Users\stapi\AppData\Local\Temp\cciXcrA3.s:3525   .debug_str:00000000000005f4 .LASF81
C:\Users\stapi\AppData\Local\Temp\cciXcrA3.s:3527   .debug_str:0000000000000602 .LASF82
C:\Users\stapi\AppData\Local\Temp\cciXcrA3.s:3407   .debug_str:00000000000002e0 .LASF83
C:\Users\stapi\AppData\Local\Temp\cciXcrA3.s:3545   .debug_str:0000000000000657 .LASF84
C:\Users\stapi\AppData\Local\Temp\cciXcrA3.s:3345   .debug_str:000000000000011a .LASF85
C:\Users\stapi\AppData\Local\Temp\cciXcrA3.s:3355   .debug_str:0000000000000147 .LASF87
C:\Users\stapi\AppData\Local\Temp\cciXcrA3.s:3317   .debug_str:0000000000000084 .LASF88
C:\Users\stapi\AppData\Local\Temp\cciXcrA3.s:3293   .debug_str:0000000000000000 .LASF89
C:\Users\stapi\AppData\Local\Temp\cciXcrA3.s:3533   .debug_str:0000000000000620 .LASF90
C:\Users\stapi\AppData\Local\Temp\cciXcrA3.s:3455   .debug_str:000000000000044b .LASF91
C:\Users\stapi\AppData\Local\Temp\cciXcrA3.s:3537   .debug_str:0000000000000634 .LASF92
C:\Users\stapi\AppData\Local\Temp\cciXcrA3.s:3381   .debug_str:000000000000026c .LASF93
C:\Users\stapi\AppData\Local\Temp\cciXcrA3.s:3435   .debug_str:00000000000003f4 .LASF94
C:\Users\stapi\AppData\Local\Temp\cciXcrA3.s:3507   .debug_str:000000000000057f .LASF95
C:\Users\stapi\AppData\Local\Temp\cciXcrA3.s:3481   .debug_str:00000000000004f7 .LASF96
C:\Users\stapi\AppData\Local\Temp\cciXcrA3.s:3357   .debug_str:0000000000000155 .LASF97
C:\Users\stapi\AppData\Local\Temp\cciXcrA3.s:3475   .debug_str:00000000000004d4 .LASF98
C:\Users\stapi\AppData\Local\Temp\cciXcrA3.s:3505   .debug_str:0000000000000578 .LASF99
C:\Users\stapi\AppData\Local\Temp\cciXcrA3.s:3449   .debug_str:0000000000000434 .LASF100
C:\Users\stapi\AppData\Local\Temp\cciXcrA3.s:3517   .debug_str:00000000000005b4 .LASF101
C:\Users\stapi\AppData\Local\Temp\cciXcrA3.s:3567   .debug_str:00000000000006de .LASF102
C:\Users\stapi\AppData\Local\Temp\cciXcrA3.s:3377   .debug_str:000000000000025c .LASF103
C:\Users\stapi\AppData\Local\Temp\cciXcrA3.s:3327   .debug_str:00000000000000ae .LASF104
C:\Users\stapi\AppData\Local\Temp\cciXcrA3.s:3427   .debug_str:00000000000003c7 .LASF105
C:\Users\stapi\AppData\Local\Temp\cciXcrA3.s:3371   .debug_str:00000000000001c5 .LASF106
C:\Users\stapi\AppData\Local\Temp\cciXcrA3.s:3579   .debug_str:0000000000000803 .LASF107
C:\Users\stapi\AppData\Local\Temp\cciXcrA3.s:3413   .debug_str:0000000000000300 .LASF108
C:\Users\stapi\AppData\Local\Temp\cciXcrA3.s:3479   .debug_str:00000000000004e9 .LASF109
C:\Users\stapi\AppData\Local\Temp\cciXcrA3.s:3299   .debug_str:000000000000001d .LASF110
C:\Users\stapi\AppData\Local\Temp\cciXcrA3.s:3329   .debug_str:00000000000000b3 .LASF111
C:\Users\stapi\AppData\Local\Temp\cciXcrA3.s:3459   .debug_str:000000000000046c .LASF112
C:\Users\stapi\AppData\Local\Temp\cciXcrA3.s:3367   .debug_str:00000000000001a8 .LASF113
C:\Users\stapi\AppData\Local\Temp\cciXcrA3.s:3563   .debug_str:00000000000006c3 .LASF114
C:\Users\stapi\AppData\Local\Temp\cciXcrA3.s:3453   .debug_str:0000000000000443 .LASF141
C:\Users\stapi\AppData\Local\Temp\cciXcrA3.s:3457   .debug_str:0000000000000459 .LASF142
C:\Users\stapi\AppData\Local\Temp\cciXcrA3.s:23     .text.icmp_send_response:0000000000000000 .LFB7
C:\Users\stapi\AppData\Local\Temp\cciXcrA3.s:192    .text.icmp_send_response:0000000000000102 .LFE7
C:\Users\stapi\AppData\Local\Temp\cciXcrA3.s:2953   .debug_loc:0000000000000000 .LLST0
C:\Users\stapi\AppData\Local\Temp\cciXcrA3.s:2971   .debug_loc:000000000000002c .LLST1
C:\Users\stapi\AppData\Local\Temp\cciXcrA3.s:2985   .debug_loc:000000000000004d .LLST2
C:\Users\stapi\AppData\Local\Temp\cciXcrA3.s:2999   .debug_loc:000000000000006e .LLST3
C:\Users\stapi\AppData\Local\Temp\cciXcrA3.s:3547   .debug_str:000000000000065e .LASF115
C:\Users\stapi\AppData\Local\Temp\cciXcrA3.s:3010   .debug_loc:000000000000008c .LLST4
C:\Users\stapi\AppData\Local\Temp\cciXcrA3.s:3431   .debug_str:00000000000003d9 .LASF116
C:\Users\stapi\AppData\Local\Temp\cciXcrA3.s:3017   .debug_loc:000000000000009f .LLST5
C:\Users\stapi\AppData\Local\Temp\cciXcrA3.s:3471   .debug_str:00000000000004c3 .LASF117
C:\Users\stapi\AppData\Local\Temp\cciXcrA3.s:3024   .debug_loc:00000000000000b2 .LLST6
C:\Users\stapi\AppData\Local\Temp\cciXcrA3.s:58     .text.icmp_send_response:0000000000000024 .LVL4
C:\Users\stapi\AppData\Local\Temp\cciXcrA3.s:80     .text.icmp_send_response:0000000000000058 .LVL6
C:\Users\stapi\AppData\Local\Temp\cciXcrA3.s:122    .text.icmp_send_response:0000000000000088 .LVL9
C:\Users\stapi\AppData\Local\Temp\cciXcrA3.s:141    .text.icmp_send_response:00000000000000b0 .LVL10
C:\Users\stapi\AppData\Local\Temp\cciXcrA3.s:157    .text.icmp_send_response:00000000000000ca .LVL12
C:\Users\stapi\AppData\Local\Temp\cciXcrA3.s:173    .text.icmp_send_response:00000000000000ee .LVL13
C:\Users\stapi\AppData\Local\Temp\cciXcrA3.s:178    .text.icmp_send_response:00000000000000f8 .LVL14
C:\Users\stapi\AppData\Local\Temp\cciXcrA3.s:3363   .debug_str:0000000000000183 .LASF118
C:\Users\stapi\AppData\Local\Temp\cciXcrA3.s:597    .text.icmp_time_exceeded:0000000000000000 .LFB6
C:\Users\stapi\AppData\Local\Temp\cciXcrA3.s:609    .text.icmp_time_exceeded:000000000000000e .LFE6
C:\Users\stapi\AppData\Local\Temp\cciXcrA3.s:3036   .debug_loc:00000000000000d1 .LLST17
C:\Users\stapi\AppData\Local\Temp\cciXcrA3.s:3050   .debug_loc:00000000000000f2 .LLST18
C:\Users\stapi\AppData\Local\Temp\cciXcrA3.s:607    .text.icmp_time_exceeded:000000000000000e .LVL55
C:\Users\stapi\AppData\Local\Temp\cciXcrA3.s:3365   .debug_str:0000000000000196 .LASF119
C:\Users\stapi\AppData\Local\Temp\cciXcrA3.s:578    .text.icmp_dest_unreach:0000000000000000 .LFB5
C:\Users\stapi\AppData\Local\Temp\cciXcrA3.s:590    .text.icmp_dest_unreach:000000000000000e .LFE5
C:\Users\stapi\AppData\Local\Temp\cciXcrA3.s:3064   .debug_loc:0000000000000113 .LLST15
C:\Users\stapi\AppData\Local\Temp\cciXcrA3.s:3078   .debug_loc:0000000000000134 .LLST16
C:\Users\stapi\AppData\Local\Temp\cciXcrA3.s:588    .text.icmp_dest_unreach:000000000000000e .LVL52
C:\Users\stapi\AppData\Local\Temp\cciXcrA3.s:3339   .debug_str:00000000000000f4 .LASF120
C:\Users\stapi\AppData\Local\Temp\cciXcrA3.s:206    .text.icmp_input:0000000000000000 .LFB4
C:\Users\stapi\AppData\Local\Temp\cciXcrA3.s:571    .text.icmp_input:000000000000022e .LFE4
C:\Users\stapi\AppData\Local\Temp\cciXcrA3.s:3092   .debug_loc:0000000000000155 .LLST7
C:\Users\stapi\AppData\Local\Temp\cciXcrA3.s:3111   .debug_loc:0000000000000189 .LLST8
C:\Users\stapi\AppData\Local\Temp\cciXcrA3.s:3133   .debug_loc:00000000000001c0 .LLST9
C:\Users\stapi\AppData\Local\Temp\cciXcrA3.s:3319   .debug_str:0000000000000091 .LASF121
C:\Users\stapi\AppData\Local\Temp\cciXcrA3.s:3148   .debug_loc:00000000000001e2 .LLST10
C:\Users\stapi\AppData\Local\Temp\cciXcrA3.s:3451   .debug_str:000000000000043a .LASF122
C:\Users\stapi\AppData\Local\Temp\cciXcrA3.s:3331   .debug_str:00000000000000c6 .LASF123
C:\Users\stapi\AppData\Local\Temp\cciXcrA3.s:3159   .debug_loc:0000000000000200 .LLST11
C:\Users\stapi\AppData\Local\Temp\cciXcrA3.s:3515   .debug_str:00000000000005ad .LASF124
C:\Users\stapi\AppData\Local\Temp\cciXcrA3.s:299    .text.icmp_input:000000000000006e .L18
C:\Users\stapi\AppData\Local\Temp\cciXcrA3.s:3353   .debug_str:000000000000013f .LASF125
C:\Users\stapi\AppData\Local\Temp\cciXcrA3.s:341    .text.icmp_input:00000000000000a0 .LBB2
C:\Users\stapi\AppData\Local\Temp\cciXcrA3.s:427    .text.icmp_input:0000000000000136 .LBE2
C:\Users\stapi\AppData\Local\Temp\cciXcrA3.s:3215   .debug_loc:0000000000000262 .LLST12
C:\Users\stapi\AppData\Local\Temp\cciXcrA3.s:3405   .debug_str:00000000000002d6 .LASF126
C:\Users\stapi\AppData\Local\Temp\cciXcrA3.s:3234   .debug_loc:0000000000000296 .LLST13
C:\Users\stapi\AppData\Local\Temp\cciXcrA3.s:358    .text.icmp_input:00000000000000c0 .LVL29
C:\Users\stapi\AppData\Local\Temp\cciXcrA3.s:375    .text.icmp_input:00000000000000da .LVL32
C:\Users\stapi\AppData\Local\Temp\cciXcrA3.s:386    .text.icmp_input:00000000000000ea .LVL35
C:\Users\stapi\AppData\Local\Temp\cciXcrA3.s:392    .text.icmp_input:00000000000000f6 .LVL36
C:\Users\stapi\AppData\Local\Temp\cciXcrA3.s:407    .text.icmp_input:000000000000011c .LVL37
C:\Users\stapi\AppData\Local\Temp\cciXcrA3.s:419    .text.icmp_input:000000000000012a .LVL38
C:\Users\stapi\AppData\Local\Temp\cciXcrA3.s:425    .text.icmp_input:0000000000000136 .LVL39
C:\Users\stapi\AppData\Local\Temp\cciXcrA3.s:3241   .debug_loc:00000000000002a9 .LLST14
C:\Users\stapi\AppData\Local\Temp\cciXcrA3.s:504    .text.icmp_input:00000000000001ce .LVL44
C:\Users\stapi\AppData\Local\Temp\cciXcrA3.s:524    .text.icmp_input:00000000000001f6 .LVL45
C:\Users\stapi\AppData\Local\Temp\cciXcrA3.s:283    .text.icmp_input:0000000000000056 .LVL22
C:\Users\stapi\AppData\Local\Temp\cciXcrA3.s:296    .text.icmp_input:000000000000006c .LVL23
C:\Users\stapi\AppData\Local\Temp\cciXcrA3.s:305    .text.icmp_input:0000000000000078 .LVL25
C:\Users\stapi\AppData\Local\Temp\cciXcrA3.s:332    .text.icmp_input:0000000000000092 .LVL27
C:\Users\stapi\AppData\Local\Temp\cciXcrA3.s:441    .text.icmp_input:0000000000000148 .LVL42
C:\Users\stapi\AppData\Local\Temp\cciXcrA3.s:541    .text.icmp_input:0000000000000202 .LVL47
C:\Users\stapi\AppData\Local\Temp\cciXcrA3.s:556    .text.icmp_input:0000000000000228 .LVL48
C:\Users\stapi\AppData\Local\Temp\cciXcrA3.s:3429   .debug_str:00000000000003ce .LASF127
C:\Users\stapi\AppData\Local\Temp\cciXcrA3.s:3443   .debug_str:0000000000000421 .LASF128
C:\Users\stapi\AppData\Local\Temp\cciXcrA3.s:3559   .debug_str:00000000000006b3 .LASF143
C:\Users\stapi\AppData\Local\Temp\cciXcrA3.s:3335   .debug_str:00000000000000db .LASF144
C:\Users\stapi\AppData\Local\Temp\cciXcrA3.s:3501   .debug_str:0000000000000563 .LASF129
C:\Users\stapi\AppData\Local\Temp\cciXcrA3.s:3467   .debug_str:00000000000004ae .LASF130
C:\Users\stapi\AppData\Local\Temp\cciXcrA3.s:3491   .debug_str:0000000000000528 .LASF131
C:\Users\stapi\AppData\Local\Temp\cciXcrA3.s:3437   .debug_str:0000000000000401 .LASF132
C:\Users\stapi\AppData\Local\Temp\cciXcrA3.s:3433   .debug_str:00000000000003e1 .LASF133
C:\Users\stapi\AppData\Local\Temp\cciXcrA3.s:3385   .debug_str:0000000000000281 .LASF134
C:\Users\stapi\AppData\Local\Temp\cciXcrA3.s:3311   .debug_str:0000000000000059 .LASF135
C:\Users\stapi\AppData\Local\Temp\cciXcrA3.s:3523   .debug_str:00000000000005e3 .LASF136
C:\Users\stapi\AppData\Local\Temp\cciXcrA3.s:3549   .debug_str:0000000000000664 .LASF137
C:\Users\stapi\AppData\Local\Temp\cciXcrA3.s:27     .text.icmp_send_response:0000000000000000 .LVL0
C:\Users\stapi\AppData\Local\Temp\cciXcrA3.s:56     .text.icmp_send_response:000000000000001c .LVL3
C:\Users\stapi\AppData\Local\Temp\cciXcrA3.s:101    .text.icmp_send_response:0000000000000060 .LVL8
C:\Users\stapi\AppData\Local\Temp\cciXcrA3.s:52     .text.icmp_send_response:0000000000000014 .LVL1
C:\Users\stapi\AppData\Local\Temp\cciXcrA3.s:54     .text.icmp_send_response:0000000000000018 .LVL2
C:\Users\stapi\AppData\Local\Temp\cciXcrA3.s:74     .text.icmp_send_response:0000000000000040 .LVL5
C:\Users\stapi\AppData\Local\Temp\cciXcrA3.s:92     .text.icmp_send_response:000000000000005e .LVL7
C:\Users\stapi\AppData\Local\Temp\cciXcrA3.s:155    .text.icmp_send_response:00000000000000c2 .LVL11
C:\Users\stapi\AppData\Local\Temp\cciXcrA3.s:600    .text.icmp_time_exceeded:0000000000000000 .LVL53
C:\Users\stapi\AppData\Local\Temp\cciXcrA3.s:605    .text.icmp_time_exceeded:0000000000000006 .LVL54
C:\Users\stapi\AppData\Local\Temp\cciXcrA3.s:581    .text.icmp_dest_unreach:0000000000000000 .LVL50
C:\Users\stapi\AppData\Local\Temp\cciXcrA3.s:586    .text.icmp_dest_unreach:0000000000000006 .LVL51
C:\Users\stapi\AppData\Local\Temp\cciXcrA3.s:209    .text.icmp_input:0000000000000000 .LVL15
C:\Users\stapi\AppData\Local\Temp\cciXcrA3.s:270    .text.icmp_input:000000000000003e .LVL20
C:\Users\stapi\AppData\Local\Temp\cciXcrA3.s:429    .text.icmp_input:0000000000000138 .LVL40
C:\Users\stapi\AppData\Local\Temp\cciXcrA3.s:281    .text.icmp_input:000000000000004e .LVL21
C:\Users\stapi\AppData\Local\Temp\cciXcrA3.s:300    .text.icmp_input:000000000000006e .LVL24
C:\Users\stapi\AppData\Local\Temp\cciXcrA3.s:323    .text.icmp_input:0000000000000082 .LVL26
C:\Users\stapi\AppData\Local\Temp\cciXcrA3.s:256    .text.icmp_input:0000000000000030 .LVL18
C:\Users\stapi\AppData\Local\Temp\cciXcrA3.s:437    .text.icmp_input:0000000000000140 .LVL41
C:\Users\stapi\AppData\Local\Temp\cciXcrA3.s:534    .text.icmp_input:00000000000001f8 .LVL46
C:\Users\stapi\AppData\Local\Temp\cciXcrA3.s:562    .text.icmp_input:000000000000022a .LVL49
C:\Users\stapi\AppData\Local\Temp\cciXcrA3.s:246    .text.icmp_input:0000000000000022 .LVL17
C:\Users\stapi\AppData\Local\Temp\cciXcrA3.s:451    .text.icmp_input:0000000000000150 .LVL43
C:\Users\stapi\AppData\Local\Temp\cciXcrA3.s:360    .text.icmp_input:00000000000000c2 .LVL30
C:\Users\stapi\AppData\Local\Temp\cciXcrA3.s:369    .text.icmp_input:00000000000000d0 .LVL31
C:\Users\stapi\AppData\Local\Temp\cciXcrA3.s:378    .text.icmp_input:00000000000000dc .LVL33
C:\Users\stapi\AppData\Local\Temp\cciXcrA3.s:382    .text.icmp_input:00000000000000de .LVL34
C:\Users\stapi\AppData\Local\Temp\cciXcrA3.s:349    .text.icmp_input:00000000000000ac .LVL28
C:\Users\stapi\AppData\Local\Temp\cciXcrA3.s:630    .debug_info:0000000000000000 .Ldebug_info0
C:\Users\stapi\AppData\Local\Temp\cciXcrA3.s:444    .text.icmp_input:000000000000014a .LBB3
C:\Users\stapi\AppData\Local\Temp\cciXcrA3.s:526    .text.icmp_input:00000000000001f6 .LBE3
C:\Users\stapi\AppData\Local\Temp\cciXcrA3.s:532    .text.icmp_input:00000000000001f6 .LBB4
C:\Users\stapi\AppData\Local\Temp\cciXcrA3.s:536    .text.icmp_input:00000000000001f8 .LBE4
C:\Users\stapi\AppData\Local\Temp\cciXcrA3.s:564    .text.icmp_input:000000000000022a .LBB5
C:\Users\stapi\AppData\Local\Temp\cciXcrA3.s:569    .text.icmp_input:000000000000022e .LBE5

UNDEFINED SYMBOLS
__riscv_save_5
pbuf_alloc
printf
memcpy
ip4_route
inet_chksum
ip4_output_if
pbuf_free
__riscv_restore_5
__riscv_save_7
ip_data
ip4_addr_isbroadcast_u32
inet_chksum_pbuf
__riscv_restore_7
pbuf_add_header
pbuf_remove_header
pbuf_copy
