   1              		.file	"igmp.c"
   2              		.option nopic
   3              		.attribute arch, "rv32i2p0_m2p0_a2p0_f2p0_c2p0_b_p0p94"
   4              		.attribute unaligned_access, 0
   5              		.attribute stack_align, 16
   6              		.text
   7              	.Ltext0:
   8              		.cfi_sections	.debug_frame
   9              		.section	.text.igmp_delaying_member,"ax",@progbits
  10              		.align	1
  12              	igmp_delaying_member:
  13              	.LFB19:
  14              		.file 1 "C:/Users/stapi/OneDrive/Desktop/GD32VW553/V1_MQTT_OK/GD32VW55X_Wifi_BLE_SDK/GD32VW55x_REL
   1:C:/Users/stapi/OneDrive/Desktop/GD32VW553/V1_MQTT_OK/GD32VW55X_Wifi_BLE_SDK/GD32VW55x_RELEASE_V1.0.2/MSDK/lwip/lwip-2.1.2/src/core/ipv4\igmp.c **** /**
   2:C:/Users/stapi/OneDrive/Desktop/GD32VW553/V1_MQTT_OK/GD32VW55X_Wifi_BLE_SDK/GD32VW55x_RELEASE_V1.0.2/MSDK/lwip/lwip-2.1.2/src/core/ipv4\igmp.c ****  * @file
   3:C:/Users/stapi/OneDrive/Desktop/GD32VW553/V1_MQTT_OK/GD32VW55X_Wifi_BLE_SDK/GD32VW55x_RELEASE_V1.0.2/MSDK/lwip/lwip-2.1.2/src/core/ipv4\igmp.c ****  * IGMP - Internet Group Management Protocol
   4:C:/Users/stapi/OneDrive/Desktop/GD32VW553/V1_MQTT_OK/GD32VW55X_Wifi_BLE_SDK/GD32VW55x_RELEASE_V1.0.2/MSDK/lwip/lwip-2.1.2/src/core/ipv4\igmp.c ****  *
   5:C:/Users/stapi/OneDrive/Desktop/GD32VW553/V1_MQTT_OK/GD32VW55X_Wifi_BLE_SDK/GD32VW55x_RELEASE_V1.0.2/MSDK/lwip/lwip-2.1.2/src/core/ipv4\igmp.c ****  * @defgroup igmp IGMP
   6:C:/Users/stapi/OneDrive/Desktop/GD32VW553/V1_MQTT_OK/GD32VW55X_Wifi_BLE_SDK/GD32VW55x_RELEASE_V1.0.2/MSDK/lwip/lwip-2.1.2/src/core/ipv4\igmp.c ****  * @ingroup ip4
   7:C:/Users/stapi/OneDrive/Desktop/GD32VW553/V1_MQTT_OK/GD32VW55X_Wifi_BLE_SDK/GD32VW55x_RELEASE_V1.0.2/MSDK/lwip/lwip-2.1.2/src/core/ipv4\igmp.c ****  * To be called from TCPIP thread
   8:C:/Users/stapi/OneDrive/Desktop/GD32VW553/V1_MQTT_OK/GD32VW55X_Wifi_BLE_SDK/GD32VW55x_RELEASE_V1.0.2/MSDK/lwip/lwip-2.1.2/src/core/ipv4\igmp.c ****  */
   9:C:/Users/stapi/OneDrive/Desktop/GD32VW553/V1_MQTT_OK/GD32VW55X_Wifi_BLE_SDK/GD32VW55x_RELEASE_V1.0.2/MSDK/lwip/lwip-2.1.2/src/core/ipv4\igmp.c **** 
  10:C:/Users/stapi/OneDrive/Desktop/GD32VW553/V1_MQTT_OK/GD32VW55X_Wifi_BLE_SDK/GD32VW55x_RELEASE_V1.0.2/MSDK/lwip/lwip-2.1.2/src/core/ipv4\igmp.c **** /*
  11:C:/Users/stapi/OneDrive/Desktop/GD32VW553/V1_MQTT_OK/GD32VW55X_Wifi_BLE_SDK/GD32VW55x_RELEASE_V1.0.2/MSDK/lwip/lwip-2.1.2/src/core/ipv4\igmp.c ****  * Copyright (c) 2002 CITEL Technologies Ltd.
  12:C:/Users/stapi/OneDrive/Desktop/GD32VW553/V1_MQTT_OK/GD32VW55X_Wifi_BLE_SDK/GD32VW55x_RELEASE_V1.0.2/MSDK/lwip/lwip-2.1.2/src/core/ipv4\igmp.c ****  * All rights reserved.
  13:C:/Users/stapi/OneDrive/Desktop/GD32VW553/V1_MQTT_OK/GD32VW55X_Wifi_BLE_SDK/GD32VW55x_RELEASE_V1.0.2/MSDK/lwip/lwip-2.1.2/src/core/ipv4\igmp.c ****  *
  14:C:/Users/stapi/OneDrive/Desktop/GD32VW553/V1_MQTT_OK/GD32VW55X_Wifi_BLE_SDK/GD32VW55x_RELEASE_V1.0.2/MSDK/lwip/lwip-2.1.2/src/core/ipv4\igmp.c ****  * Redistribution and use in source and binary forms, with or without
  15:C:/Users/stapi/OneDrive/Desktop/GD32VW553/V1_MQTT_OK/GD32VW55X_Wifi_BLE_SDK/GD32VW55x_RELEASE_V1.0.2/MSDK/lwip/lwip-2.1.2/src/core/ipv4\igmp.c ****  * modification, are permitted provided that the following conditions
  16:C:/Users/stapi/OneDrive/Desktop/GD32VW553/V1_MQTT_OK/GD32VW55X_Wifi_BLE_SDK/GD32VW55x_RELEASE_V1.0.2/MSDK/lwip/lwip-2.1.2/src/core/ipv4\igmp.c ****  * are met:
  17:C:/Users/stapi/OneDrive/Desktop/GD32VW553/V1_MQTT_OK/GD32VW55X_Wifi_BLE_SDK/GD32VW55x_RELEASE_V1.0.2/MSDK/lwip/lwip-2.1.2/src/core/ipv4\igmp.c ****  * 1. Redistributions of source code must retain the above copyright
  18:C:/Users/stapi/OneDrive/Desktop/GD32VW553/V1_MQTT_OK/GD32VW55X_Wifi_BLE_SDK/GD32VW55x_RELEASE_V1.0.2/MSDK/lwip/lwip-2.1.2/src/core/ipv4\igmp.c ****  *    notice, this list of conditions and the following disclaimer.
  19:C:/Users/stapi/OneDrive/Desktop/GD32VW553/V1_MQTT_OK/GD32VW55X_Wifi_BLE_SDK/GD32VW55x_RELEASE_V1.0.2/MSDK/lwip/lwip-2.1.2/src/core/ipv4\igmp.c ****  * 2. Redistributions in binary form must reproduce the above copyright
  20:C:/Users/stapi/OneDrive/Desktop/GD32VW553/V1_MQTT_OK/GD32VW55X_Wifi_BLE_SDK/GD32VW55x_RELEASE_V1.0.2/MSDK/lwip/lwip-2.1.2/src/core/ipv4\igmp.c ****  *    notice, this list of conditions and the following disclaimer in the
  21:C:/Users/stapi/OneDrive/Desktop/GD32VW553/V1_MQTT_OK/GD32VW55X_Wifi_BLE_SDK/GD32VW55x_RELEASE_V1.0.2/MSDK/lwip/lwip-2.1.2/src/core/ipv4\igmp.c ****  *    documentation and/or other materials provided with the distribution.
  22:C:/Users/stapi/OneDrive/Desktop/GD32VW553/V1_MQTT_OK/GD32VW55X_Wifi_BLE_SDK/GD32VW55x_RELEASE_V1.0.2/MSDK/lwip/lwip-2.1.2/src/core/ipv4\igmp.c ****  * 3. Neither the name of CITEL Technologies Ltd nor the names of its contributors
  23:C:/Users/stapi/OneDrive/Desktop/GD32VW553/V1_MQTT_OK/GD32VW55X_Wifi_BLE_SDK/GD32VW55x_RELEASE_V1.0.2/MSDK/lwip/lwip-2.1.2/src/core/ipv4\igmp.c ****  *    may be used to endorse or promote products derived from this software
  24:C:/Users/stapi/OneDrive/Desktop/GD32VW553/V1_MQTT_OK/GD32VW55X_Wifi_BLE_SDK/GD32VW55x_RELEASE_V1.0.2/MSDK/lwip/lwip-2.1.2/src/core/ipv4\igmp.c ****  *    without specific prior written permission.
  25:C:/Users/stapi/OneDrive/Desktop/GD32VW553/V1_MQTT_OK/GD32VW55X_Wifi_BLE_SDK/GD32VW55x_RELEASE_V1.0.2/MSDK/lwip/lwip-2.1.2/src/core/ipv4\igmp.c ****  *
  26:C:/Users/stapi/OneDrive/Desktop/GD32VW553/V1_MQTT_OK/GD32VW55X_Wifi_BLE_SDK/GD32VW55x_RELEASE_V1.0.2/MSDK/lwip/lwip-2.1.2/src/core/ipv4\igmp.c ****  * THIS SOFTWARE IS PROVIDED BY CITEL TECHNOLOGIES AND CONTRIBUTORS ``AS IS''
  27:C:/Users/stapi/OneDrive/Desktop/GD32VW553/V1_MQTT_OK/GD32VW55X_Wifi_BLE_SDK/GD32VW55x_RELEASE_V1.0.2/MSDK/lwip/lwip-2.1.2/src/core/ipv4\igmp.c ****  * AND ANY EXPRESS OR IMPLIED WARRANTIES, INCLUDING, BUT NOT LIMITED TO, THE
  28:C:/Users/stapi/OneDrive/Desktop/GD32VW553/V1_MQTT_OK/GD32VW55X_Wifi_BLE_SDK/GD32VW55x_RELEASE_V1.0.2/MSDK/lwip/lwip-2.1.2/src/core/ipv4\igmp.c ****  * IMPLIED WARRANTIES OF MERCHANTABILITY AND FITNESS FOR A PARTICULAR PURPOSE
  29:C:/Users/stapi/OneDrive/Desktop/GD32VW553/V1_MQTT_OK/GD32VW55X_Wifi_BLE_SDK/GD32VW55x_RELEASE_V1.0.2/MSDK/lwip/lwip-2.1.2/src/core/ipv4\igmp.c ****  * ARE DISCLAIMED.  IN NO EVENT SHALL CITEL TECHNOLOGIES OR CONTRIBUTORS BE LIABLE
  30:C:/Users/stapi/OneDrive/Desktop/GD32VW553/V1_MQTT_OK/GD32VW55X_Wifi_BLE_SDK/GD32VW55x_RELEASE_V1.0.2/MSDK/lwip/lwip-2.1.2/src/core/ipv4\igmp.c ****  * FOR ANY DIRECT, INDIRECT, INCIDENTAL, SPECIAL, EXEMPLARY, OR CONSEQUENTIAL
  31:C:/Users/stapi/OneDrive/Desktop/GD32VW553/V1_MQTT_OK/GD32VW55X_Wifi_BLE_SDK/GD32VW55x_RELEASE_V1.0.2/MSDK/lwip/lwip-2.1.2/src/core/ipv4\igmp.c ****  * DAMAGES (INCLUDING, BUT NOT LIMITED TO, PROCUREMENT OF SUBSTITUTE GOODS
  32:C:/Users/stapi/OneDrive/Desktop/GD32VW553/V1_MQTT_OK/GD32VW55X_Wifi_BLE_SDK/GD32VW55x_RELEASE_V1.0.2/MSDK/lwip/lwip-2.1.2/src/core/ipv4\igmp.c ****  * OR SERVICES; LOSS OF USE, DATA, OR PROFITS; OR BUSINESS INTERRUPTION)
  33:C:/Users/stapi/OneDrive/Desktop/GD32VW553/V1_MQTT_OK/GD32VW55X_Wifi_BLE_SDK/GD32VW55x_RELEASE_V1.0.2/MSDK/lwip/lwip-2.1.2/src/core/ipv4\igmp.c ****  * HOWEVER CAUSED AND ON ANY THEORY OF LIABILITY, WHETHER IN CONTRACT, STRICT
  34:C:/Users/stapi/OneDrive/Desktop/GD32VW553/V1_MQTT_OK/GD32VW55X_Wifi_BLE_SDK/GD32VW55x_RELEASE_V1.0.2/MSDK/lwip/lwip-2.1.2/src/core/ipv4\igmp.c ****  * LIABILITY, OR TORT (INCLUDING NEGLIGENCE OR OTHERWISE) ARISING IN ANY WAY
  35:C:/Users/stapi/OneDrive/Desktop/GD32VW553/V1_MQTT_OK/GD32VW55X_Wifi_BLE_SDK/GD32VW55x_RELEASE_V1.0.2/MSDK/lwip/lwip-2.1.2/src/core/ipv4\igmp.c ****  * OUT OF THE USE OF THIS SOFTWARE, EVEN IF ADVISED OF THE POSSIBILITY OF
  36:C:/Users/stapi/OneDrive/Desktop/GD32VW553/V1_MQTT_OK/GD32VW55X_Wifi_BLE_SDK/GD32VW55x_RELEASE_V1.0.2/MSDK/lwip/lwip-2.1.2/src/core/ipv4\igmp.c ****  * SUCH DAMAGE.
  37:C:/Users/stapi/OneDrive/Desktop/GD32VW553/V1_MQTT_OK/GD32VW55X_Wifi_BLE_SDK/GD32VW55x_RELEASE_V1.0.2/MSDK/lwip/lwip-2.1.2/src/core/ipv4\igmp.c ****  *
  38:C:/Users/stapi/OneDrive/Desktop/GD32VW553/V1_MQTT_OK/GD32VW55X_Wifi_BLE_SDK/GD32VW55x_RELEASE_V1.0.2/MSDK/lwip/lwip-2.1.2/src/core/ipv4\igmp.c ****  * This file is a contribution to the lwIP TCP/IP stack.
  39:C:/Users/stapi/OneDrive/Desktop/GD32VW553/V1_MQTT_OK/GD32VW55X_Wifi_BLE_SDK/GD32VW55x_RELEASE_V1.0.2/MSDK/lwip/lwip-2.1.2/src/core/ipv4\igmp.c ****  * The Swedish Institute of Computer Science and Adam Dunkels
  40:C:/Users/stapi/OneDrive/Desktop/GD32VW553/V1_MQTT_OK/GD32VW55X_Wifi_BLE_SDK/GD32VW55x_RELEASE_V1.0.2/MSDK/lwip/lwip-2.1.2/src/core/ipv4\igmp.c ****  * are specifically granted permission to redistribute this
  41:C:/Users/stapi/OneDrive/Desktop/GD32VW553/V1_MQTT_OK/GD32VW55X_Wifi_BLE_SDK/GD32VW55x_RELEASE_V1.0.2/MSDK/lwip/lwip-2.1.2/src/core/ipv4\igmp.c ****  * source code.
  42:C:/Users/stapi/OneDrive/Desktop/GD32VW553/V1_MQTT_OK/GD32VW55X_Wifi_BLE_SDK/GD32VW55x_RELEASE_V1.0.2/MSDK/lwip/lwip-2.1.2/src/core/ipv4\igmp.c **** */
  43:C:/Users/stapi/OneDrive/Desktop/GD32VW553/V1_MQTT_OK/GD32VW55X_Wifi_BLE_SDK/GD32VW55x_RELEASE_V1.0.2/MSDK/lwip/lwip-2.1.2/src/core/ipv4\igmp.c **** 
  44:C:/Users/stapi/OneDrive/Desktop/GD32VW553/V1_MQTT_OK/GD32VW55X_Wifi_BLE_SDK/GD32VW55x_RELEASE_V1.0.2/MSDK/lwip/lwip-2.1.2/src/core/ipv4\igmp.c **** /*-------------------------------------------------------------
  45:C:/Users/stapi/OneDrive/Desktop/GD32VW553/V1_MQTT_OK/GD32VW55X_Wifi_BLE_SDK/GD32VW55x_RELEASE_V1.0.2/MSDK/lwip/lwip-2.1.2/src/core/ipv4\igmp.c **** Note 1)
  46:C:/Users/stapi/OneDrive/Desktop/GD32VW553/V1_MQTT_OK/GD32VW55X_Wifi_BLE_SDK/GD32VW55x_RELEASE_V1.0.2/MSDK/lwip/lwip-2.1.2/src/core/ipv4\igmp.c **** Although the rfc requires V1 AND V2 capability
  47:C:/Users/stapi/OneDrive/Desktop/GD32VW553/V1_MQTT_OK/GD32VW55X_Wifi_BLE_SDK/GD32VW55x_RELEASE_V1.0.2/MSDK/lwip/lwip-2.1.2/src/core/ipv4\igmp.c **** we will only support v2 since now V1 is very old (August 1989)
  48:C:/Users/stapi/OneDrive/Desktop/GD32VW553/V1_MQTT_OK/GD32VW55X_Wifi_BLE_SDK/GD32VW55x_RELEASE_V1.0.2/MSDK/lwip/lwip-2.1.2/src/core/ipv4\igmp.c **** V1 can be added if required
  49:C:/Users/stapi/OneDrive/Desktop/GD32VW553/V1_MQTT_OK/GD32VW55X_Wifi_BLE_SDK/GD32VW55x_RELEASE_V1.0.2/MSDK/lwip/lwip-2.1.2/src/core/ipv4\igmp.c **** 
  50:C:/Users/stapi/OneDrive/Desktop/GD32VW553/V1_MQTT_OK/GD32VW55X_Wifi_BLE_SDK/GD32VW55x_RELEASE_V1.0.2/MSDK/lwip/lwip-2.1.2/src/core/ipv4\igmp.c **** a debug print and statistic have been implemented to
  51:C:/Users/stapi/OneDrive/Desktop/GD32VW553/V1_MQTT_OK/GD32VW55X_Wifi_BLE_SDK/GD32VW55x_RELEASE_V1.0.2/MSDK/lwip/lwip-2.1.2/src/core/ipv4\igmp.c **** show this up.
  52:C:/Users/stapi/OneDrive/Desktop/GD32VW553/V1_MQTT_OK/GD32VW55X_Wifi_BLE_SDK/GD32VW55x_RELEASE_V1.0.2/MSDK/lwip/lwip-2.1.2/src/core/ipv4\igmp.c **** -------------------------------------------------------------
  53:C:/Users/stapi/OneDrive/Desktop/GD32VW553/V1_MQTT_OK/GD32VW55X_Wifi_BLE_SDK/GD32VW55x_RELEASE_V1.0.2/MSDK/lwip/lwip-2.1.2/src/core/ipv4\igmp.c **** -------------------------------------------------------------
  54:C:/Users/stapi/OneDrive/Desktop/GD32VW553/V1_MQTT_OK/GD32VW55X_Wifi_BLE_SDK/GD32VW55x_RELEASE_V1.0.2/MSDK/lwip/lwip-2.1.2/src/core/ipv4\igmp.c **** Note 2)
  55:C:/Users/stapi/OneDrive/Desktop/GD32VW553/V1_MQTT_OK/GD32VW55X_Wifi_BLE_SDK/GD32VW55x_RELEASE_V1.0.2/MSDK/lwip/lwip-2.1.2/src/core/ipv4\igmp.c **** A query for a specific group address (as opposed to ALLHOSTS)
  56:C:/Users/stapi/OneDrive/Desktop/GD32VW553/V1_MQTT_OK/GD32VW55X_Wifi_BLE_SDK/GD32VW55x_RELEASE_V1.0.2/MSDK/lwip/lwip-2.1.2/src/core/ipv4\igmp.c **** has now been implemented as I am unsure if it is required
  57:C:/Users/stapi/OneDrive/Desktop/GD32VW553/V1_MQTT_OK/GD32VW55X_Wifi_BLE_SDK/GD32VW55x_RELEASE_V1.0.2/MSDK/lwip/lwip-2.1.2/src/core/ipv4\igmp.c **** 
  58:C:/Users/stapi/OneDrive/Desktop/GD32VW553/V1_MQTT_OK/GD32VW55X_Wifi_BLE_SDK/GD32VW55x_RELEASE_V1.0.2/MSDK/lwip/lwip-2.1.2/src/core/ipv4\igmp.c **** a debug print and statistic have been implemented to
  59:C:/Users/stapi/OneDrive/Desktop/GD32VW553/V1_MQTT_OK/GD32VW55X_Wifi_BLE_SDK/GD32VW55x_RELEASE_V1.0.2/MSDK/lwip/lwip-2.1.2/src/core/ipv4\igmp.c **** show this up.
  60:C:/Users/stapi/OneDrive/Desktop/GD32VW553/V1_MQTT_OK/GD32VW55X_Wifi_BLE_SDK/GD32VW55x_RELEASE_V1.0.2/MSDK/lwip/lwip-2.1.2/src/core/ipv4\igmp.c **** -------------------------------------------------------------
  61:C:/Users/stapi/OneDrive/Desktop/GD32VW553/V1_MQTT_OK/GD32VW55X_Wifi_BLE_SDK/GD32VW55x_RELEASE_V1.0.2/MSDK/lwip/lwip-2.1.2/src/core/ipv4\igmp.c **** -------------------------------------------------------------
  62:C:/Users/stapi/OneDrive/Desktop/GD32VW553/V1_MQTT_OK/GD32VW55X_Wifi_BLE_SDK/GD32VW55x_RELEASE_V1.0.2/MSDK/lwip/lwip-2.1.2/src/core/ipv4\igmp.c **** Note 3)
  63:C:/Users/stapi/OneDrive/Desktop/GD32VW553/V1_MQTT_OK/GD32VW55X_Wifi_BLE_SDK/GD32VW55x_RELEASE_V1.0.2/MSDK/lwip/lwip-2.1.2/src/core/ipv4\igmp.c **** The router alert rfc 2113 is implemented in outgoing packets
  64:C:/Users/stapi/OneDrive/Desktop/GD32VW553/V1_MQTT_OK/GD32VW55X_Wifi_BLE_SDK/GD32VW55x_RELEASE_V1.0.2/MSDK/lwip/lwip-2.1.2/src/core/ipv4\igmp.c **** but not checked rigorously incoming
  65:C:/Users/stapi/OneDrive/Desktop/GD32VW553/V1_MQTT_OK/GD32VW55X_Wifi_BLE_SDK/GD32VW55x_RELEASE_V1.0.2/MSDK/lwip/lwip-2.1.2/src/core/ipv4\igmp.c **** -------------------------------------------------------------
  66:C:/Users/stapi/OneDrive/Desktop/GD32VW553/V1_MQTT_OK/GD32VW55X_Wifi_BLE_SDK/GD32VW55x_RELEASE_V1.0.2/MSDK/lwip/lwip-2.1.2/src/core/ipv4\igmp.c **** Steve Reynolds
  67:C:/Users/stapi/OneDrive/Desktop/GD32VW553/V1_MQTT_OK/GD32VW55X_Wifi_BLE_SDK/GD32VW55x_RELEASE_V1.0.2/MSDK/lwip/lwip-2.1.2/src/core/ipv4\igmp.c **** ------------------------------------------------------------*/
  68:C:/Users/stapi/OneDrive/Desktop/GD32VW553/V1_MQTT_OK/GD32VW55X_Wifi_BLE_SDK/GD32VW55x_RELEASE_V1.0.2/MSDK/lwip/lwip-2.1.2/src/core/ipv4\igmp.c **** 
  69:C:/Users/stapi/OneDrive/Desktop/GD32VW553/V1_MQTT_OK/GD32VW55X_Wifi_BLE_SDK/GD32VW55x_RELEASE_V1.0.2/MSDK/lwip/lwip-2.1.2/src/core/ipv4\igmp.c **** /*-----------------------------------------------------------------------------
  70:C:/Users/stapi/OneDrive/Desktop/GD32VW553/V1_MQTT_OK/GD32VW55X_Wifi_BLE_SDK/GD32VW55x_RELEASE_V1.0.2/MSDK/lwip/lwip-2.1.2/src/core/ipv4\igmp.c ****  * RFC 988  - Host extensions for IP multicasting                         - V0
  71:C:/Users/stapi/OneDrive/Desktop/GD32VW553/V1_MQTT_OK/GD32VW55X_Wifi_BLE_SDK/GD32VW55x_RELEASE_V1.0.2/MSDK/lwip/lwip-2.1.2/src/core/ipv4\igmp.c ****  * RFC 1054 - Host extensions for IP multicasting                         -
  72:C:/Users/stapi/OneDrive/Desktop/GD32VW553/V1_MQTT_OK/GD32VW55X_Wifi_BLE_SDK/GD32VW55x_RELEASE_V1.0.2/MSDK/lwip/lwip-2.1.2/src/core/ipv4\igmp.c ****  * RFC 1112 - Host extensions for IP multicasting                         - V1
  73:C:/Users/stapi/OneDrive/Desktop/GD32VW553/V1_MQTT_OK/GD32VW55X_Wifi_BLE_SDK/GD32VW55x_RELEASE_V1.0.2/MSDK/lwip/lwip-2.1.2/src/core/ipv4\igmp.c ****  * RFC 2236 - Internet Group Management Protocol, Version 2               - V2  <- this code is bas
  74:C:/Users/stapi/OneDrive/Desktop/GD32VW553/V1_MQTT_OK/GD32VW55X_Wifi_BLE_SDK/GD32VW55x_RELEASE_V1.0.2/MSDK/lwip/lwip-2.1.2/src/core/ipv4\igmp.c ****  * RFC 3376 - Internet Group Management Protocol, Version 3               - V3
  75:C:/Users/stapi/OneDrive/Desktop/GD32VW553/V1_MQTT_OK/GD32VW55X_Wifi_BLE_SDK/GD32VW55x_RELEASE_V1.0.2/MSDK/lwip/lwip-2.1.2/src/core/ipv4\igmp.c ****  * RFC 4604 - Using Internet Group Management Protocol Version 3...       - V3+
  76:C:/Users/stapi/OneDrive/Desktop/GD32VW553/V1_MQTT_OK/GD32VW55X_Wifi_BLE_SDK/GD32VW55x_RELEASE_V1.0.2/MSDK/lwip/lwip-2.1.2/src/core/ipv4\igmp.c ****  * RFC 2113 - IP Router Alert Option                                      -
  77:C:/Users/stapi/OneDrive/Desktop/GD32VW553/V1_MQTT_OK/GD32VW55X_Wifi_BLE_SDK/GD32VW55x_RELEASE_V1.0.2/MSDK/lwip/lwip-2.1.2/src/core/ipv4\igmp.c ****  *----------------------------------------------------------------------------*/
  78:C:/Users/stapi/OneDrive/Desktop/GD32VW553/V1_MQTT_OK/GD32VW55X_Wifi_BLE_SDK/GD32VW55x_RELEASE_V1.0.2/MSDK/lwip/lwip-2.1.2/src/core/ipv4\igmp.c **** 
  79:C:/Users/stapi/OneDrive/Desktop/GD32VW553/V1_MQTT_OK/GD32VW55X_Wifi_BLE_SDK/GD32VW55x_RELEASE_V1.0.2/MSDK/lwip/lwip-2.1.2/src/core/ipv4\igmp.c **** /*-----------------------------------------------------------------------------
  80:C:/Users/stapi/OneDrive/Desktop/GD32VW553/V1_MQTT_OK/GD32VW55X_Wifi_BLE_SDK/GD32VW55x_RELEASE_V1.0.2/MSDK/lwip/lwip-2.1.2/src/core/ipv4\igmp.c ****  * Includes
  81:C:/Users/stapi/OneDrive/Desktop/GD32VW553/V1_MQTT_OK/GD32VW55X_Wifi_BLE_SDK/GD32VW55x_RELEASE_V1.0.2/MSDK/lwip/lwip-2.1.2/src/core/ipv4\igmp.c ****  *----------------------------------------------------------------------------*/
  82:C:/Users/stapi/OneDrive/Desktop/GD32VW553/V1_MQTT_OK/GD32VW55X_Wifi_BLE_SDK/GD32VW55x_RELEASE_V1.0.2/MSDK/lwip/lwip-2.1.2/src/core/ipv4\igmp.c **** 
  83:C:/Users/stapi/OneDrive/Desktop/GD32VW553/V1_MQTT_OK/GD32VW55X_Wifi_BLE_SDK/GD32VW55x_RELEASE_V1.0.2/MSDK/lwip/lwip-2.1.2/src/core/ipv4\igmp.c **** #include "lwip/opt.h"
  84:C:/Users/stapi/OneDrive/Desktop/GD32VW553/V1_MQTT_OK/GD32VW55X_Wifi_BLE_SDK/GD32VW55x_RELEASE_V1.0.2/MSDK/lwip/lwip-2.1.2/src/core/ipv4\igmp.c **** 
  85:C:/Users/stapi/OneDrive/Desktop/GD32VW553/V1_MQTT_OK/GD32VW55X_Wifi_BLE_SDK/GD32VW55x_RELEASE_V1.0.2/MSDK/lwip/lwip-2.1.2/src/core/ipv4\igmp.c **** #if LWIP_IPV4 && LWIP_IGMP /* don't build if not configured for use in lwipopts.h */
  86:C:/Users/stapi/OneDrive/Desktop/GD32VW553/V1_MQTT_OK/GD32VW55X_Wifi_BLE_SDK/GD32VW55x_RELEASE_V1.0.2/MSDK/lwip/lwip-2.1.2/src/core/ipv4\igmp.c **** 
  87:C:/Users/stapi/OneDrive/Desktop/GD32VW553/V1_MQTT_OK/GD32VW55X_Wifi_BLE_SDK/GD32VW55x_RELEASE_V1.0.2/MSDK/lwip/lwip-2.1.2/src/core/ipv4\igmp.c **** #include "lwip/igmp.h"
  88:C:/Users/stapi/OneDrive/Desktop/GD32VW553/V1_MQTT_OK/GD32VW55X_Wifi_BLE_SDK/GD32VW55x_RELEASE_V1.0.2/MSDK/lwip/lwip-2.1.2/src/core/ipv4\igmp.c **** #include "lwip/debug.h"
  89:C:/Users/stapi/OneDrive/Desktop/GD32VW553/V1_MQTT_OK/GD32VW55X_Wifi_BLE_SDK/GD32VW55x_RELEASE_V1.0.2/MSDK/lwip/lwip-2.1.2/src/core/ipv4\igmp.c **** #include "lwip/def.h"
  90:C:/Users/stapi/OneDrive/Desktop/GD32VW553/V1_MQTT_OK/GD32VW55X_Wifi_BLE_SDK/GD32VW55x_RELEASE_V1.0.2/MSDK/lwip/lwip-2.1.2/src/core/ipv4\igmp.c **** #include "lwip/mem.h"
  91:C:/Users/stapi/OneDrive/Desktop/GD32VW553/V1_MQTT_OK/GD32VW55X_Wifi_BLE_SDK/GD32VW55x_RELEASE_V1.0.2/MSDK/lwip/lwip-2.1.2/src/core/ipv4\igmp.c **** #include "lwip/ip.h"
  92:C:/Users/stapi/OneDrive/Desktop/GD32VW553/V1_MQTT_OK/GD32VW55X_Wifi_BLE_SDK/GD32VW55x_RELEASE_V1.0.2/MSDK/lwip/lwip-2.1.2/src/core/ipv4\igmp.c **** #include "lwip/inet_chksum.h"
  93:C:/Users/stapi/OneDrive/Desktop/GD32VW553/V1_MQTT_OK/GD32VW55X_Wifi_BLE_SDK/GD32VW55x_RELEASE_V1.0.2/MSDK/lwip/lwip-2.1.2/src/core/ipv4\igmp.c **** #include "lwip/netif.h"
  94:C:/Users/stapi/OneDrive/Desktop/GD32VW553/V1_MQTT_OK/GD32VW55X_Wifi_BLE_SDK/GD32VW55x_RELEASE_V1.0.2/MSDK/lwip/lwip-2.1.2/src/core/ipv4\igmp.c **** #include "lwip/stats.h"
  95:C:/Users/stapi/OneDrive/Desktop/GD32VW553/V1_MQTT_OK/GD32VW55X_Wifi_BLE_SDK/GD32VW55x_RELEASE_V1.0.2/MSDK/lwip/lwip-2.1.2/src/core/ipv4\igmp.c **** #include "lwip/prot/igmp.h"
  96:C:/Users/stapi/OneDrive/Desktop/GD32VW553/V1_MQTT_OK/GD32VW55X_Wifi_BLE_SDK/GD32VW55x_RELEASE_V1.0.2/MSDK/lwip/lwip-2.1.2/src/core/ipv4\igmp.c **** 
  97:C:/Users/stapi/OneDrive/Desktop/GD32VW553/V1_MQTT_OK/GD32VW55X_Wifi_BLE_SDK/GD32VW55x_RELEASE_V1.0.2/MSDK/lwip/lwip-2.1.2/src/core/ipv4\igmp.c **** #include <string.h>
  98:C:/Users/stapi/OneDrive/Desktop/GD32VW553/V1_MQTT_OK/GD32VW55X_Wifi_BLE_SDK/GD32VW55x_RELEASE_V1.0.2/MSDK/lwip/lwip-2.1.2/src/core/ipv4\igmp.c **** 
  99:C:/Users/stapi/OneDrive/Desktop/GD32VW553/V1_MQTT_OK/GD32VW55X_Wifi_BLE_SDK/GD32VW55x_RELEASE_V1.0.2/MSDK/lwip/lwip-2.1.2/src/core/ipv4\igmp.c **** static struct igmp_group *igmp_lookup_group(struct netif *ifp, const ip4_addr_t *addr);
 100:C:/Users/stapi/OneDrive/Desktop/GD32VW553/V1_MQTT_OK/GD32VW55X_Wifi_BLE_SDK/GD32VW55x_RELEASE_V1.0.2/MSDK/lwip/lwip-2.1.2/src/core/ipv4\igmp.c **** static err_t  igmp_remove_group(struct netif *netif, struct igmp_group *group);
 101:C:/Users/stapi/OneDrive/Desktop/GD32VW553/V1_MQTT_OK/GD32VW55X_Wifi_BLE_SDK/GD32VW55x_RELEASE_V1.0.2/MSDK/lwip/lwip-2.1.2/src/core/ipv4\igmp.c **** static void   igmp_timeout(struct netif *netif, struct igmp_group *group);
 102:C:/Users/stapi/OneDrive/Desktop/GD32VW553/V1_MQTT_OK/GD32VW55X_Wifi_BLE_SDK/GD32VW55x_RELEASE_V1.0.2/MSDK/lwip/lwip-2.1.2/src/core/ipv4\igmp.c **** static void   igmp_start_timer(struct igmp_group *group, u8_t max_time);
 103:C:/Users/stapi/OneDrive/Desktop/GD32VW553/V1_MQTT_OK/GD32VW55X_Wifi_BLE_SDK/GD32VW55x_RELEASE_V1.0.2/MSDK/lwip/lwip-2.1.2/src/core/ipv4\igmp.c **** static void   igmp_delaying_member(struct igmp_group *group, u8_t maxresp);
 104:C:/Users/stapi/OneDrive/Desktop/GD32VW553/V1_MQTT_OK/GD32VW55X_Wifi_BLE_SDK/GD32VW55x_RELEASE_V1.0.2/MSDK/lwip/lwip-2.1.2/src/core/ipv4\igmp.c **** static err_t  igmp_ip_output_if(struct pbuf *p, const ip4_addr_t *src, const ip4_addr_t *dest, stru
 105:C:/Users/stapi/OneDrive/Desktop/GD32VW553/V1_MQTT_OK/GD32VW55X_Wifi_BLE_SDK/GD32VW55x_RELEASE_V1.0.2/MSDK/lwip/lwip-2.1.2/src/core/ipv4\igmp.c **** static void   igmp_send(struct netif *netif, struct igmp_group *group, u8_t type);
 106:C:/Users/stapi/OneDrive/Desktop/GD32VW553/V1_MQTT_OK/GD32VW55X_Wifi_BLE_SDK/GD32VW55x_RELEASE_V1.0.2/MSDK/lwip/lwip-2.1.2/src/core/ipv4\igmp.c **** 
 107:C:/Users/stapi/OneDrive/Desktop/GD32VW553/V1_MQTT_OK/GD32VW55X_Wifi_BLE_SDK/GD32VW55x_RELEASE_V1.0.2/MSDK/lwip/lwip-2.1.2/src/core/ipv4\igmp.c **** static ip4_addr_t     allsystems;
 108:C:/Users/stapi/OneDrive/Desktop/GD32VW553/V1_MQTT_OK/GD32VW55X_Wifi_BLE_SDK/GD32VW55x_RELEASE_V1.0.2/MSDK/lwip/lwip-2.1.2/src/core/ipv4\igmp.c **** static ip4_addr_t     allrouters;
 109:C:/Users/stapi/OneDrive/Desktop/GD32VW553/V1_MQTT_OK/GD32VW55X_Wifi_BLE_SDK/GD32VW55x_RELEASE_V1.0.2/MSDK/lwip/lwip-2.1.2/src/core/ipv4\igmp.c **** 
 110:C:/Users/stapi/OneDrive/Desktop/GD32VW553/V1_MQTT_OK/GD32VW55X_Wifi_BLE_SDK/GD32VW55x_RELEASE_V1.0.2/MSDK/lwip/lwip-2.1.2/src/core/ipv4\igmp.c **** /**
 111:C:/Users/stapi/OneDrive/Desktop/GD32VW553/V1_MQTT_OK/GD32VW55X_Wifi_BLE_SDK/GD32VW55x_RELEASE_V1.0.2/MSDK/lwip/lwip-2.1.2/src/core/ipv4\igmp.c ****  * Initialize the IGMP module
 112:C:/Users/stapi/OneDrive/Desktop/GD32VW553/V1_MQTT_OK/GD32VW55X_Wifi_BLE_SDK/GD32VW55x_RELEASE_V1.0.2/MSDK/lwip/lwip-2.1.2/src/core/ipv4\igmp.c ****  */
 113:C:/Users/stapi/OneDrive/Desktop/GD32VW553/V1_MQTT_OK/GD32VW55X_Wifi_BLE_SDK/GD32VW55x_RELEASE_V1.0.2/MSDK/lwip/lwip-2.1.2/src/core/ipv4\igmp.c **** void
 114:C:/Users/stapi/OneDrive/Desktop/GD32VW553/V1_MQTT_OK/GD32VW55X_Wifi_BLE_SDK/GD32VW55x_RELEASE_V1.0.2/MSDK/lwip/lwip-2.1.2/src/core/ipv4\igmp.c **** igmp_init(void)
 115:C:/Users/stapi/OneDrive/Desktop/GD32VW553/V1_MQTT_OK/GD32VW55X_Wifi_BLE_SDK/GD32VW55x_RELEASE_V1.0.2/MSDK/lwip/lwip-2.1.2/src/core/ipv4\igmp.c **** {
 116:C:/Users/stapi/OneDrive/Desktop/GD32VW553/V1_MQTT_OK/GD32VW55X_Wifi_BLE_SDK/GD32VW55x_RELEASE_V1.0.2/MSDK/lwip/lwip-2.1.2/src/core/ipv4\igmp.c ****   LWIP_DEBUGF(IGMP_DEBUG, ("igmp_init: initializing\n"));
 117:C:/Users/stapi/OneDrive/Desktop/GD32VW553/V1_MQTT_OK/GD32VW55X_Wifi_BLE_SDK/GD32VW55x_RELEASE_V1.0.2/MSDK/lwip/lwip-2.1.2/src/core/ipv4\igmp.c **** 
 118:C:/Users/stapi/OneDrive/Desktop/GD32VW553/V1_MQTT_OK/GD32VW55X_Wifi_BLE_SDK/GD32VW55x_RELEASE_V1.0.2/MSDK/lwip/lwip-2.1.2/src/core/ipv4\igmp.c ****   IP4_ADDR(&allsystems, 224, 0, 0, 1);
 119:C:/Users/stapi/OneDrive/Desktop/GD32VW553/V1_MQTT_OK/GD32VW55X_Wifi_BLE_SDK/GD32VW55x_RELEASE_V1.0.2/MSDK/lwip/lwip-2.1.2/src/core/ipv4\igmp.c ****   IP4_ADDR(&allrouters, 224, 0, 0, 2);
 120:C:/Users/stapi/OneDrive/Desktop/GD32VW553/V1_MQTT_OK/GD32VW55X_Wifi_BLE_SDK/GD32VW55x_RELEASE_V1.0.2/MSDK/lwip/lwip-2.1.2/src/core/ipv4\igmp.c **** }
 121:C:/Users/stapi/OneDrive/Desktop/GD32VW553/V1_MQTT_OK/GD32VW55X_Wifi_BLE_SDK/GD32VW55x_RELEASE_V1.0.2/MSDK/lwip/lwip-2.1.2/src/core/ipv4\igmp.c **** 
 122:C:/Users/stapi/OneDrive/Desktop/GD32VW553/V1_MQTT_OK/GD32VW55X_Wifi_BLE_SDK/GD32VW55x_RELEASE_V1.0.2/MSDK/lwip/lwip-2.1.2/src/core/ipv4\igmp.c **** /**
 123:C:/Users/stapi/OneDrive/Desktop/GD32VW553/V1_MQTT_OK/GD32VW55X_Wifi_BLE_SDK/GD32VW55x_RELEASE_V1.0.2/MSDK/lwip/lwip-2.1.2/src/core/ipv4\igmp.c ****  * Start IGMP processing on interface
 124:C:/Users/stapi/OneDrive/Desktop/GD32VW553/V1_MQTT_OK/GD32VW55X_Wifi_BLE_SDK/GD32VW55x_RELEASE_V1.0.2/MSDK/lwip/lwip-2.1.2/src/core/ipv4\igmp.c ****  *
 125:C:/Users/stapi/OneDrive/Desktop/GD32VW553/V1_MQTT_OK/GD32VW55X_Wifi_BLE_SDK/GD32VW55x_RELEASE_V1.0.2/MSDK/lwip/lwip-2.1.2/src/core/ipv4\igmp.c ****  * @param netif network interface on which start IGMP processing
 126:C:/Users/stapi/OneDrive/Desktop/GD32VW553/V1_MQTT_OK/GD32VW55X_Wifi_BLE_SDK/GD32VW55x_RELEASE_V1.0.2/MSDK/lwip/lwip-2.1.2/src/core/ipv4\igmp.c ****  */
 127:C:/Users/stapi/OneDrive/Desktop/GD32VW553/V1_MQTT_OK/GD32VW55X_Wifi_BLE_SDK/GD32VW55x_RELEASE_V1.0.2/MSDK/lwip/lwip-2.1.2/src/core/ipv4\igmp.c **** err_t
 128:C:/Users/stapi/OneDrive/Desktop/GD32VW553/V1_MQTT_OK/GD32VW55X_Wifi_BLE_SDK/GD32VW55x_RELEASE_V1.0.2/MSDK/lwip/lwip-2.1.2/src/core/ipv4\igmp.c **** igmp_start(struct netif *netif)
 129:C:/Users/stapi/OneDrive/Desktop/GD32VW553/V1_MQTT_OK/GD32VW55X_Wifi_BLE_SDK/GD32VW55x_RELEASE_V1.0.2/MSDK/lwip/lwip-2.1.2/src/core/ipv4\igmp.c **** {
 130:C:/Users/stapi/OneDrive/Desktop/GD32VW553/V1_MQTT_OK/GD32VW55X_Wifi_BLE_SDK/GD32VW55x_RELEASE_V1.0.2/MSDK/lwip/lwip-2.1.2/src/core/ipv4\igmp.c ****   struct igmp_group *group;
 131:C:/Users/stapi/OneDrive/Desktop/GD32VW553/V1_MQTT_OK/GD32VW55X_Wifi_BLE_SDK/GD32VW55x_RELEASE_V1.0.2/MSDK/lwip/lwip-2.1.2/src/core/ipv4\igmp.c **** 
 132:C:/Users/stapi/OneDrive/Desktop/GD32VW553/V1_MQTT_OK/GD32VW55X_Wifi_BLE_SDK/GD32VW55x_RELEASE_V1.0.2/MSDK/lwip/lwip-2.1.2/src/core/ipv4\igmp.c ****   LWIP_DEBUGF(IGMP_DEBUG, ("igmp_start: starting IGMP processing on if %p\n", (void *)netif));
 133:C:/Users/stapi/OneDrive/Desktop/GD32VW553/V1_MQTT_OK/GD32VW55X_Wifi_BLE_SDK/GD32VW55x_RELEASE_V1.0.2/MSDK/lwip/lwip-2.1.2/src/core/ipv4\igmp.c **** 
 134:C:/Users/stapi/OneDrive/Desktop/GD32VW553/V1_MQTT_OK/GD32VW55X_Wifi_BLE_SDK/GD32VW55x_RELEASE_V1.0.2/MSDK/lwip/lwip-2.1.2/src/core/ipv4\igmp.c ****   group = igmp_lookup_group(netif, &allsystems);
 135:C:/Users/stapi/OneDrive/Desktop/GD32VW553/V1_MQTT_OK/GD32VW55X_Wifi_BLE_SDK/GD32VW55x_RELEASE_V1.0.2/MSDK/lwip/lwip-2.1.2/src/core/ipv4\igmp.c **** 
 136:C:/Users/stapi/OneDrive/Desktop/GD32VW553/V1_MQTT_OK/GD32VW55X_Wifi_BLE_SDK/GD32VW55x_RELEASE_V1.0.2/MSDK/lwip/lwip-2.1.2/src/core/ipv4\igmp.c ****   if (group != NULL) {
 137:C:/Users/stapi/OneDrive/Desktop/GD32VW553/V1_MQTT_OK/GD32VW55X_Wifi_BLE_SDK/GD32VW55x_RELEASE_V1.0.2/MSDK/lwip/lwip-2.1.2/src/core/ipv4\igmp.c ****     group->group_state = IGMP_GROUP_IDLE_MEMBER;
 138:C:/Users/stapi/OneDrive/Desktop/GD32VW553/V1_MQTT_OK/GD32VW55X_Wifi_BLE_SDK/GD32VW55x_RELEASE_V1.0.2/MSDK/lwip/lwip-2.1.2/src/core/ipv4\igmp.c ****     group->use++;
 139:C:/Users/stapi/OneDrive/Desktop/GD32VW553/V1_MQTT_OK/GD32VW55X_Wifi_BLE_SDK/GD32VW55x_RELEASE_V1.0.2/MSDK/lwip/lwip-2.1.2/src/core/ipv4\igmp.c **** 
 140:C:/Users/stapi/OneDrive/Desktop/GD32VW553/V1_MQTT_OK/GD32VW55X_Wifi_BLE_SDK/GD32VW55x_RELEASE_V1.0.2/MSDK/lwip/lwip-2.1.2/src/core/ipv4\igmp.c ****     /* Allow the igmp messages at the MAC level */
 141:C:/Users/stapi/OneDrive/Desktop/GD32VW553/V1_MQTT_OK/GD32VW55X_Wifi_BLE_SDK/GD32VW55x_RELEASE_V1.0.2/MSDK/lwip/lwip-2.1.2/src/core/ipv4\igmp.c ****     if (netif->igmp_mac_filter != NULL) {
 142:C:/Users/stapi/OneDrive/Desktop/GD32VW553/V1_MQTT_OK/GD32VW55X_Wifi_BLE_SDK/GD32VW55x_RELEASE_V1.0.2/MSDK/lwip/lwip-2.1.2/src/core/ipv4\igmp.c ****       LWIP_DEBUGF(IGMP_DEBUG, ("igmp_start: igmp_mac_filter(ADD "));
 143:C:/Users/stapi/OneDrive/Desktop/GD32VW553/V1_MQTT_OK/GD32VW55X_Wifi_BLE_SDK/GD32VW55x_RELEASE_V1.0.2/MSDK/lwip/lwip-2.1.2/src/core/ipv4\igmp.c ****       ip4_addr_debug_print_val(IGMP_DEBUG, allsystems);
 144:C:/Users/stapi/OneDrive/Desktop/GD32VW553/V1_MQTT_OK/GD32VW55X_Wifi_BLE_SDK/GD32VW55x_RELEASE_V1.0.2/MSDK/lwip/lwip-2.1.2/src/core/ipv4\igmp.c ****       LWIP_DEBUGF(IGMP_DEBUG, (") on if %p\n", (void *)netif));
 145:C:/Users/stapi/OneDrive/Desktop/GD32VW553/V1_MQTT_OK/GD32VW55X_Wifi_BLE_SDK/GD32VW55x_RELEASE_V1.0.2/MSDK/lwip/lwip-2.1.2/src/core/ipv4\igmp.c ****       netif->igmp_mac_filter(netif, &allsystems, NETIF_ADD_MAC_FILTER);
 146:C:/Users/stapi/OneDrive/Desktop/GD32VW553/V1_MQTT_OK/GD32VW55X_Wifi_BLE_SDK/GD32VW55x_RELEASE_V1.0.2/MSDK/lwip/lwip-2.1.2/src/core/ipv4\igmp.c ****     }
 147:C:/Users/stapi/OneDrive/Desktop/GD32VW553/V1_MQTT_OK/GD32VW55X_Wifi_BLE_SDK/GD32VW55x_RELEASE_V1.0.2/MSDK/lwip/lwip-2.1.2/src/core/ipv4\igmp.c **** 
 148:C:/Users/stapi/OneDrive/Desktop/GD32VW553/V1_MQTT_OK/GD32VW55X_Wifi_BLE_SDK/GD32VW55x_RELEASE_V1.0.2/MSDK/lwip/lwip-2.1.2/src/core/ipv4\igmp.c ****     return ERR_OK;
 149:C:/Users/stapi/OneDrive/Desktop/GD32VW553/V1_MQTT_OK/GD32VW55X_Wifi_BLE_SDK/GD32VW55x_RELEASE_V1.0.2/MSDK/lwip/lwip-2.1.2/src/core/ipv4\igmp.c ****   }
 150:C:/Users/stapi/OneDrive/Desktop/GD32VW553/V1_MQTT_OK/GD32VW55X_Wifi_BLE_SDK/GD32VW55x_RELEASE_V1.0.2/MSDK/lwip/lwip-2.1.2/src/core/ipv4\igmp.c **** 
 151:C:/Users/stapi/OneDrive/Desktop/GD32VW553/V1_MQTT_OK/GD32VW55X_Wifi_BLE_SDK/GD32VW55x_RELEASE_V1.0.2/MSDK/lwip/lwip-2.1.2/src/core/ipv4\igmp.c ****   return ERR_MEM;
 152:C:/Users/stapi/OneDrive/Desktop/GD32VW553/V1_MQTT_OK/GD32VW55X_Wifi_BLE_SDK/GD32VW55x_RELEASE_V1.0.2/MSDK/lwip/lwip-2.1.2/src/core/ipv4\igmp.c **** }
 153:C:/Users/stapi/OneDrive/Desktop/GD32VW553/V1_MQTT_OK/GD32VW55X_Wifi_BLE_SDK/GD32VW55x_RELEASE_V1.0.2/MSDK/lwip/lwip-2.1.2/src/core/ipv4\igmp.c **** 
 154:C:/Users/stapi/OneDrive/Desktop/GD32VW553/V1_MQTT_OK/GD32VW55X_Wifi_BLE_SDK/GD32VW55x_RELEASE_V1.0.2/MSDK/lwip/lwip-2.1.2/src/core/ipv4\igmp.c **** /**
 155:C:/Users/stapi/OneDrive/Desktop/GD32VW553/V1_MQTT_OK/GD32VW55X_Wifi_BLE_SDK/GD32VW55x_RELEASE_V1.0.2/MSDK/lwip/lwip-2.1.2/src/core/ipv4\igmp.c ****  * Stop IGMP processing on interface
 156:C:/Users/stapi/OneDrive/Desktop/GD32VW553/V1_MQTT_OK/GD32VW55X_Wifi_BLE_SDK/GD32VW55x_RELEASE_V1.0.2/MSDK/lwip/lwip-2.1.2/src/core/ipv4\igmp.c ****  *
 157:C:/Users/stapi/OneDrive/Desktop/GD32VW553/V1_MQTT_OK/GD32VW55X_Wifi_BLE_SDK/GD32VW55x_RELEASE_V1.0.2/MSDK/lwip/lwip-2.1.2/src/core/ipv4\igmp.c ****  * @param netif network interface on which stop IGMP processing
 158:C:/Users/stapi/OneDrive/Desktop/GD32VW553/V1_MQTT_OK/GD32VW55X_Wifi_BLE_SDK/GD32VW55x_RELEASE_V1.0.2/MSDK/lwip/lwip-2.1.2/src/core/ipv4\igmp.c ****  */
 159:C:/Users/stapi/OneDrive/Desktop/GD32VW553/V1_MQTT_OK/GD32VW55X_Wifi_BLE_SDK/GD32VW55x_RELEASE_V1.0.2/MSDK/lwip/lwip-2.1.2/src/core/ipv4\igmp.c **** err_t
 160:C:/Users/stapi/OneDrive/Desktop/GD32VW553/V1_MQTT_OK/GD32VW55X_Wifi_BLE_SDK/GD32VW55x_RELEASE_V1.0.2/MSDK/lwip/lwip-2.1.2/src/core/ipv4\igmp.c **** igmp_stop(struct netif *netif)
 161:C:/Users/stapi/OneDrive/Desktop/GD32VW553/V1_MQTT_OK/GD32VW55X_Wifi_BLE_SDK/GD32VW55x_RELEASE_V1.0.2/MSDK/lwip/lwip-2.1.2/src/core/ipv4\igmp.c **** {
 162:C:/Users/stapi/OneDrive/Desktop/GD32VW553/V1_MQTT_OK/GD32VW55X_Wifi_BLE_SDK/GD32VW55x_RELEASE_V1.0.2/MSDK/lwip/lwip-2.1.2/src/core/ipv4\igmp.c ****   struct igmp_group *group = netif_igmp_data(netif);
 163:C:/Users/stapi/OneDrive/Desktop/GD32VW553/V1_MQTT_OK/GD32VW55X_Wifi_BLE_SDK/GD32VW55x_RELEASE_V1.0.2/MSDK/lwip/lwip-2.1.2/src/core/ipv4\igmp.c **** 
 164:C:/Users/stapi/OneDrive/Desktop/GD32VW553/V1_MQTT_OK/GD32VW55X_Wifi_BLE_SDK/GD32VW55x_RELEASE_V1.0.2/MSDK/lwip/lwip-2.1.2/src/core/ipv4\igmp.c ****   netif_set_client_data(netif, LWIP_NETIF_CLIENT_DATA_INDEX_IGMP, NULL);
 165:C:/Users/stapi/OneDrive/Desktop/GD32VW553/V1_MQTT_OK/GD32VW55X_Wifi_BLE_SDK/GD32VW55x_RELEASE_V1.0.2/MSDK/lwip/lwip-2.1.2/src/core/ipv4\igmp.c **** 
 166:C:/Users/stapi/OneDrive/Desktop/GD32VW553/V1_MQTT_OK/GD32VW55X_Wifi_BLE_SDK/GD32VW55x_RELEASE_V1.0.2/MSDK/lwip/lwip-2.1.2/src/core/ipv4\igmp.c ****   while (group != NULL) {
 167:C:/Users/stapi/OneDrive/Desktop/GD32VW553/V1_MQTT_OK/GD32VW55X_Wifi_BLE_SDK/GD32VW55x_RELEASE_V1.0.2/MSDK/lwip/lwip-2.1.2/src/core/ipv4\igmp.c ****     struct igmp_group *next = group->next; /* avoid use-after-free below */
 168:C:/Users/stapi/OneDrive/Desktop/GD32VW553/V1_MQTT_OK/GD32VW55X_Wifi_BLE_SDK/GD32VW55x_RELEASE_V1.0.2/MSDK/lwip/lwip-2.1.2/src/core/ipv4\igmp.c **** 
 169:C:/Users/stapi/OneDrive/Desktop/GD32VW553/V1_MQTT_OK/GD32VW55X_Wifi_BLE_SDK/GD32VW55x_RELEASE_V1.0.2/MSDK/lwip/lwip-2.1.2/src/core/ipv4\igmp.c ****     /* disable the group at the MAC level */
 170:C:/Users/stapi/OneDrive/Desktop/GD32VW553/V1_MQTT_OK/GD32VW55X_Wifi_BLE_SDK/GD32VW55x_RELEASE_V1.0.2/MSDK/lwip/lwip-2.1.2/src/core/ipv4\igmp.c ****     if (netif->igmp_mac_filter != NULL) {
 171:C:/Users/stapi/OneDrive/Desktop/GD32VW553/V1_MQTT_OK/GD32VW55X_Wifi_BLE_SDK/GD32VW55x_RELEASE_V1.0.2/MSDK/lwip/lwip-2.1.2/src/core/ipv4\igmp.c ****       LWIP_DEBUGF(IGMP_DEBUG, ("igmp_stop: igmp_mac_filter(DEL "));
 172:C:/Users/stapi/OneDrive/Desktop/GD32VW553/V1_MQTT_OK/GD32VW55X_Wifi_BLE_SDK/GD32VW55x_RELEASE_V1.0.2/MSDK/lwip/lwip-2.1.2/src/core/ipv4\igmp.c ****       ip4_addr_debug_print_val(IGMP_DEBUG, group->group_address);
 173:C:/Users/stapi/OneDrive/Desktop/GD32VW553/V1_MQTT_OK/GD32VW55X_Wifi_BLE_SDK/GD32VW55x_RELEASE_V1.0.2/MSDK/lwip/lwip-2.1.2/src/core/ipv4\igmp.c ****       LWIP_DEBUGF(IGMP_DEBUG, (") on if %p\n", (void *)netif));
 174:C:/Users/stapi/OneDrive/Desktop/GD32VW553/V1_MQTT_OK/GD32VW55X_Wifi_BLE_SDK/GD32VW55x_RELEASE_V1.0.2/MSDK/lwip/lwip-2.1.2/src/core/ipv4\igmp.c ****       netif->igmp_mac_filter(netif, &(group->group_address), NETIF_DEL_MAC_FILTER);
 175:C:/Users/stapi/OneDrive/Desktop/GD32VW553/V1_MQTT_OK/GD32VW55X_Wifi_BLE_SDK/GD32VW55x_RELEASE_V1.0.2/MSDK/lwip/lwip-2.1.2/src/core/ipv4\igmp.c ****     }
 176:C:/Users/stapi/OneDrive/Desktop/GD32VW553/V1_MQTT_OK/GD32VW55X_Wifi_BLE_SDK/GD32VW55x_RELEASE_V1.0.2/MSDK/lwip/lwip-2.1.2/src/core/ipv4\igmp.c **** 
 177:C:/Users/stapi/OneDrive/Desktop/GD32VW553/V1_MQTT_OK/GD32VW55X_Wifi_BLE_SDK/GD32VW55x_RELEASE_V1.0.2/MSDK/lwip/lwip-2.1.2/src/core/ipv4\igmp.c ****     /* free group */
 178:C:/Users/stapi/OneDrive/Desktop/GD32VW553/V1_MQTT_OK/GD32VW55X_Wifi_BLE_SDK/GD32VW55x_RELEASE_V1.0.2/MSDK/lwip/lwip-2.1.2/src/core/ipv4\igmp.c ****     memp_free(MEMP_IGMP_GROUP, group);
 179:C:/Users/stapi/OneDrive/Desktop/GD32VW553/V1_MQTT_OK/GD32VW55X_Wifi_BLE_SDK/GD32VW55x_RELEASE_V1.0.2/MSDK/lwip/lwip-2.1.2/src/core/ipv4\igmp.c **** 
 180:C:/Users/stapi/OneDrive/Desktop/GD32VW553/V1_MQTT_OK/GD32VW55X_Wifi_BLE_SDK/GD32VW55x_RELEASE_V1.0.2/MSDK/lwip/lwip-2.1.2/src/core/ipv4\igmp.c ****     /* move to "next" */
 181:C:/Users/stapi/OneDrive/Desktop/GD32VW553/V1_MQTT_OK/GD32VW55X_Wifi_BLE_SDK/GD32VW55x_RELEASE_V1.0.2/MSDK/lwip/lwip-2.1.2/src/core/ipv4\igmp.c ****     group = next;
 182:C:/Users/stapi/OneDrive/Desktop/GD32VW553/V1_MQTT_OK/GD32VW55X_Wifi_BLE_SDK/GD32VW55x_RELEASE_V1.0.2/MSDK/lwip/lwip-2.1.2/src/core/ipv4\igmp.c ****   }
 183:C:/Users/stapi/OneDrive/Desktop/GD32VW553/V1_MQTT_OK/GD32VW55X_Wifi_BLE_SDK/GD32VW55x_RELEASE_V1.0.2/MSDK/lwip/lwip-2.1.2/src/core/ipv4\igmp.c ****   return ERR_OK;
 184:C:/Users/stapi/OneDrive/Desktop/GD32VW553/V1_MQTT_OK/GD32VW55X_Wifi_BLE_SDK/GD32VW55x_RELEASE_V1.0.2/MSDK/lwip/lwip-2.1.2/src/core/ipv4\igmp.c **** }
 185:C:/Users/stapi/OneDrive/Desktop/GD32VW553/V1_MQTT_OK/GD32VW55X_Wifi_BLE_SDK/GD32VW55x_RELEASE_V1.0.2/MSDK/lwip/lwip-2.1.2/src/core/ipv4\igmp.c **** 
 186:C:/Users/stapi/OneDrive/Desktop/GD32VW553/V1_MQTT_OK/GD32VW55X_Wifi_BLE_SDK/GD32VW55x_RELEASE_V1.0.2/MSDK/lwip/lwip-2.1.2/src/core/ipv4\igmp.c **** /**
 187:C:/Users/stapi/OneDrive/Desktop/GD32VW553/V1_MQTT_OK/GD32VW55X_Wifi_BLE_SDK/GD32VW55x_RELEASE_V1.0.2/MSDK/lwip/lwip-2.1.2/src/core/ipv4\igmp.c ****  * Report IGMP memberships for this interface
 188:C:/Users/stapi/OneDrive/Desktop/GD32VW553/V1_MQTT_OK/GD32VW55X_Wifi_BLE_SDK/GD32VW55x_RELEASE_V1.0.2/MSDK/lwip/lwip-2.1.2/src/core/ipv4\igmp.c ****  *
 189:C:/Users/stapi/OneDrive/Desktop/GD32VW553/V1_MQTT_OK/GD32VW55X_Wifi_BLE_SDK/GD32VW55x_RELEASE_V1.0.2/MSDK/lwip/lwip-2.1.2/src/core/ipv4\igmp.c ****  * @param netif network interface on which report IGMP memberships
 190:C:/Users/stapi/OneDrive/Desktop/GD32VW553/V1_MQTT_OK/GD32VW55X_Wifi_BLE_SDK/GD32VW55x_RELEASE_V1.0.2/MSDK/lwip/lwip-2.1.2/src/core/ipv4\igmp.c ****  */
 191:C:/Users/stapi/OneDrive/Desktop/GD32VW553/V1_MQTT_OK/GD32VW55X_Wifi_BLE_SDK/GD32VW55x_RELEASE_V1.0.2/MSDK/lwip/lwip-2.1.2/src/core/ipv4\igmp.c **** void
 192:C:/Users/stapi/OneDrive/Desktop/GD32VW553/V1_MQTT_OK/GD32VW55X_Wifi_BLE_SDK/GD32VW55x_RELEASE_V1.0.2/MSDK/lwip/lwip-2.1.2/src/core/ipv4\igmp.c **** igmp_report_groups(struct netif *netif)
 193:C:/Users/stapi/OneDrive/Desktop/GD32VW553/V1_MQTT_OK/GD32VW55X_Wifi_BLE_SDK/GD32VW55x_RELEASE_V1.0.2/MSDK/lwip/lwip-2.1.2/src/core/ipv4\igmp.c **** {
 194:C:/Users/stapi/OneDrive/Desktop/GD32VW553/V1_MQTT_OK/GD32VW55X_Wifi_BLE_SDK/GD32VW55x_RELEASE_V1.0.2/MSDK/lwip/lwip-2.1.2/src/core/ipv4\igmp.c ****   struct igmp_group *group = netif_igmp_data(netif);
 195:C:/Users/stapi/OneDrive/Desktop/GD32VW553/V1_MQTT_OK/GD32VW55X_Wifi_BLE_SDK/GD32VW55x_RELEASE_V1.0.2/MSDK/lwip/lwip-2.1.2/src/core/ipv4\igmp.c **** 
 196:C:/Users/stapi/OneDrive/Desktop/GD32VW553/V1_MQTT_OK/GD32VW55X_Wifi_BLE_SDK/GD32VW55x_RELEASE_V1.0.2/MSDK/lwip/lwip-2.1.2/src/core/ipv4\igmp.c ****   LWIP_DEBUGF(IGMP_DEBUG, ("igmp_report_groups: sending IGMP reports on if %p\n", (void *)netif));
 197:C:/Users/stapi/OneDrive/Desktop/GD32VW553/V1_MQTT_OK/GD32VW55X_Wifi_BLE_SDK/GD32VW55x_RELEASE_V1.0.2/MSDK/lwip/lwip-2.1.2/src/core/ipv4\igmp.c **** 
 198:C:/Users/stapi/OneDrive/Desktop/GD32VW553/V1_MQTT_OK/GD32VW55X_Wifi_BLE_SDK/GD32VW55x_RELEASE_V1.0.2/MSDK/lwip/lwip-2.1.2/src/core/ipv4\igmp.c ****   /* Skip the first group in the list, it is always the allsystems group added in igmp_start() */
 199:C:/Users/stapi/OneDrive/Desktop/GD32VW553/V1_MQTT_OK/GD32VW55X_Wifi_BLE_SDK/GD32VW55x_RELEASE_V1.0.2/MSDK/lwip/lwip-2.1.2/src/core/ipv4\igmp.c ****   if (group != NULL) {
 200:C:/Users/stapi/OneDrive/Desktop/GD32VW553/V1_MQTT_OK/GD32VW55X_Wifi_BLE_SDK/GD32VW55x_RELEASE_V1.0.2/MSDK/lwip/lwip-2.1.2/src/core/ipv4\igmp.c ****     group = group->next;
 201:C:/Users/stapi/OneDrive/Desktop/GD32VW553/V1_MQTT_OK/GD32VW55X_Wifi_BLE_SDK/GD32VW55x_RELEASE_V1.0.2/MSDK/lwip/lwip-2.1.2/src/core/ipv4\igmp.c ****   }
 202:C:/Users/stapi/OneDrive/Desktop/GD32VW553/V1_MQTT_OK/GD32VW55X_Wifi_BLE_SDK/GD32VW55x_RELEASE_V1.0.2/MSDK/lwip/lwip-2.1.2/src/core/ipv4\igmp.c **** 
 203:C:/Users/stapi/OneDrive/Desktop/GD32VW553/V1_MQTT_OK/GD32VW55X_Wifi_BLE_SDK/GD32VW55x_RELEASE_V1.0.2/MSDK/lwip/lwip-2.1.2/src/core/ipv4\igmp.c ****   while (group != NULL) {
 204:C:/Users/stapi/OneDrive/Desktop/GD32VW553/V1_MQTT_OK/GD32VW55X_Wifi_BLE_SDK/GD32VW55x_RELEASE_V1.0.2/MSDK/lwip/lwip-2.1.2/src/core/ipv4\igmp.c ****     igmp_delaying_member(group, IGMP_JOIN_DELAYING_MEMBER_TMR);
 205:C:/Users/stapi/OneDrive/Desktop/GD32VW553/V1_MQTT_OK/GD32VW55X_Wifi_BLE_SDK/GD32VW55x_RELEASE_V1.0.2/MSDK/lwip/lwip-2.1.2/src/core/ipv4\igmp.c ****     group = group->next;
 206:C:/Users/stapi/OneDrive/Desktop/GD32VW553/V1_MQTT_OK/GD32VW55X_Wifi_BLE_SDK/GD32VW55x_RELEASE_V1.0.2/MSDK/lwip/lwip-2.1.2/src/core/ipv4\igmp.c ****   }
 207:C:/Users/stapi/OneDrive/Desktop/GD32VW553/V1_MQTT_OK/GD32VW55X_Wifi_BLE_SDK/GD32VW55x_RELEASE_V1.0.2/MSDK/lwip/lwip-2.1.2/src/core/ipv4\igmp.c **** }
 208:C:/Users/stapi/OneDrive/Desktop/GD32VW553/V1_MQTT_OK/GD32VW55X_Wifi_BLE_SDK/GD32VW55x_RELEASE_V1.0.2/MSDK/lwip/lwip-2.1.2/src/core/ipv4\igmp.c **** 
 209:C:/Users/stapi/OneDrive/Desktop/GD32VW553/V1_MQTT_OK/GD32VW55X_Wifi_BLE_SDK/GD32VW55x_RELEASE_V1.0.2/MSDK/lwip/lwip-2.1.2/src/core/ipv4\igmp.c **** /**
 210:C:/Users/stapi/OneDrive/Desktop/GD32VW553/V1_MQTT_OK/GD32VW55X_Wifi_BLE_SDK/GD32VW55x_RELEASE_V1.0.2/MSDK/lwip/lwip-2.1.2/src/core/ipv4\igmp.c ****  * Search for a group in the netif's igmp group list
 211:C:/Users/stapi/OneDrive/Desktop/GD32VW553/V1_MQTT_OK/GD32VW55X_Wifi_BLE_SDK/GD32VW55x_RELEASE_V1.0.2/MSDK/lwip/lwip-2.1.2/src/core/ipv4\igmp.c ****  *
 212:C:/Users/stapi/OneDrive/Desktop/GD32VW553/V1_MQTT_OK/GD32VW55X_Wifi_BLE_SDK/GD32VW55x_RELEASE_V1.0.2/MSDK/lwip/lwip-2.1.2/src/core/ipv4\igmp.c ****  * @param ifp the network interface for which to look
 213:C:/Users/stapi/OneDrive/Desktop/GD32VW553/V1_MQTT_OK/GD32VW55X_Wifi_BLE_SDK/GD32VW55x_RELEASE_V1.0.2/MSDK/lwip/lwip-2.1.2/src/core/ipv4\igmp.c ****  * @param addr the group ip address to search for
 214:C:/Users/stapi/OneDrive/Desktop/GD32VW553/V1_MQTT_OK/GD32VW55X_Wifi_BLE_SDK/GD32VW55x_RELEASE_V1.0.2/MSDK/lwip/lwip-2.1.2/src/core/ipv4\igmp.c ****  * @return a struct igmp_group* if the group has been found,
 215:C:/Users/stapi/OneDrive/Desktop/GD32VW553/V1_MQTT_OK/GD32VW55X_Wifi_BLE_SDK/GD32VW55x_RELEASE_V1.0.2/MSDK/lwip/lwip-2.1.2/src/core/ipv4\igmp.c ****  *         NULL if the group wasn't found.
 216:C:/Users/stapi/OneDrive/Desktop/GD32VW553/V1_MQTT_OK/GD32VW55X_Wifi_BLE_SDK/GD32VW55x_RELEASE_V1.0.2/MSDK/lwip/lwip-2.1.2/src/core/ipv4\igmp.c ****  */
 217:C:/Users/stapi/OneDrive/Desktop/GD32VW553/V1_MQTT_OK/GD32VW55X_Wifi_BLE_SDK/GD32VW55x_RELEASE_V1.0.2/MSDK/lwip/lwip-2.1.2/src/core/ipv4\igmp.c **** struct igmp_group *
 218:C:/Users/stapi/OneDrive/Desktop/GD32VW553/V1_MQTT_OK/GD32VW55X_Wifi_BLE_SDK/GD32VW55x_RELEASE_V1.0.2/MSDK/lwip/lwip-2.1.2/src/core/ipv4\igmp.c **** igmp_lookfor_group(struct netif *ifp, const ip4_addr_t *addr)
 219:C:/Users/stapi/OneDrive/Desktop/GD32VW553/V1_MQTT_OK/GD32VW55X_Wifi_BLE_SDK/GD32VW55x_RELEASE_V1.0.2/MSDK/lwip/lwip-2.1.2/src/core/ipv4\igmp.c **** {
 220:C:/Users/stapi/OneDrive/Desktop/GD32VW553/V1_MQTT_OK/GD32VW55X_Wifi_BLE_SDK/GD32VW55x_RELEASE_V1.0.2/MSDK/lwip/lwip-2.1.2/src/core/ipv4\igmp.c ****   struct igmp_group *group = netif_igmp_data(ifp);
 221:C:/Users/stapi/OneDrive/Desktop/GD32VW553/V1_MQTT_OK/GD32VW55X_Wifi_BLE_SDK/GD32VW55x_RELEASE_V1.0.2/MSDK/lwip/lwip-2.1.2/src/core/ipv4\igmp.c **** 
 222:C:/Users/stapi/OneDrive/Desktop/GD32VW553/V1_MQTT_OK/GD32VW55X_Wifi_BLE_SDK/GD32VW55x_RELEASE_V1.0.2/MSDK/lwip/lwip-2.1.2/src/core/ipv4\igmp.c ****   while (group != NULL) {
 223:C:/Users/stapi/OneDrive/Desktop/GD32VW553/V1_MQTT_OK/GD32VW55X_Wifi_BLE_SDK/GD32VW55x_RELEASE_V1.0.2/MSDK/lwip/lwip-2.1.2/src/core/ipv4\igmp.c ****     if (ip4_addr_cmp(&(group->group_address), addr)) {
 224:C:/Users/stapi/OneDrive/Desktop/GD32VW553/V1_MQTT_OK/GD32VW55X_Wifi_BLE_SDK/GD32VW55x_RELEASE_V1.0.2/MSDK/lwip/lwip-2.1.2/src/core/ipv4\igmp.c ****       return group;
 225:C:/Users/stapi/OneDrive/Desktop/GD32VW553/V1_MQTT_OK/GD32VW55X_Wifi_BLE_SDK/GD32VW55x_RELEASE_V1.0.2/MSDK/lwip/lwip-2.1.2/src/core/ipv4\igmp.c ****     }
 226:C:/Users/stapi/OneDrive/Desktop/GD32VW553/V1_MQTT_OK/GD32VW55X_Wifi_BLE_SDK/GD32VW55x_RELEASE_V1.0.2/MSDK/lwip/lwip-2.1.2/src/core/ipv4\igmp.c ****     group = group->next;
 227:C:/Users/stapi/OneDrive/Desktop/GD32VW553/V1_MQTT_OK/GD32VW55X_Wifi_BLE_SDK/GD32VW55x_RELEASE_V1.0.2/MSDK/lwip/lwip-2.1.2/src/core/ipv4\igmp.c ****   }
 228:C:/Users/stapi/OneDrive/Desktop/GD32VW553/V1_MQTT_OK/GD32VW55X_Wifi_BLE_SDK/GD32VW55x_RELEASE_V1.0.2/MSDK/lwip/lwip-2.1.2/src/core/ipv4\igmp.c **** 
 229:C:/Users/stapi/OneDrive/Desktop/GD32VW553/V1_MQTT_OK/GD32VW55X_Wifi_BLE_SDK/GD32VW55x_RELEASE_V1.0.2/MSDK/lwip/lwip-2.1.2/src/core/ipv4\igmp.c ****   /* to be clearer, we return NULL here instead of
 230:C:/Users/stapi/OneDrive/Desktop/GD32VW553/V1_MQTT_OK/GD32VW55X_Wifi_BLE_SDK/GD32VW55x_RELEASE_V1.0.2/MSDK/lwip/lwip-2.1.2/src/core/ipv4\igmp.c ****    * 'group' (which is also NULL at this point).
 231:C:/Users/stapi/OneDrive/Desktop/GD32VW553/V1_MQTT_OK/GD32VW55X_Wifi_BLE_SDK/GD32VW55x_RELEASE_V1.0.2/MSDK/lwip/lwip-2.1.2/src/core/ipv4\igmp.c ****    */
 232:C:/Users/stapi/OneDrive/Desktop/GD32VW553/V1_MQTT_OK/GD32VW55X_Wifi_BLE_SDK/GD32VW55x_RELEASE_V1.0.2/MSDK/lwip/lwip-2.1.2/src/core/ipv4\igmp.c ****   return NULL;
 233:C:/Users/stapi/OneDrive/Desktop/GD32VW553/V1_MQTT_OK/GD32VW55X_Wifi_BLE_SDK/GD32VW55x_RELEASE_V1.0.2/MSDK/lwip/lwip-2.1.2/src/core/ipv4\igmp.c **** }
 234:C:/Users/stapi/OneDrive/Desktop/GD32VW553/V1_MQTT_OK/GD32VW55X_Wifi_BLE_SDK/GD32VW55x_RELEASE_V1.0.2/MSDK/lwip/lwip-2.1.2/src/core/ipv4\igmp.c **** 
 235:C:/Users/stapi/OneDrive/Desktop/GD32VW553/V1_MQTT_OK/GD32VW55X_Wifi_BLE_SDK/GD32VW55x_RELEASE_V1.0.2/MSDK/lwip/lwip-2.1.2/src/core/ipv4\igmp.c **** /**
 236:C:/Users/stapi/OneDrive/Desktop/GD32VW553/V1_MQTT_OK/GD32VW55X_Wifi_BLE_SDK/GD32VW55x_RELEASE_V1.0.2/MSDK/lwip/lwip-2.1.2/src/core/ipv4\igmp.c ****  * Search for a specific igmp group and create a new one if not found-
 237:C:/Users/stapi/OneDrive/Desktop/GD32VW553/V1_MQTT_OK/GD32VW55X_Wifi_BLE_SDK/GD32VW55x_RELEASE_V1.0.2/MSDK/lwip/lwip-2.1.2/src/core/ipv4\igmp.c ****  *
 238:C:/Users/stapi/OneDrive/Desktop/GD32VW553/V1_MQTT_OK/GD32VW55X_Wifi_BLE_SDK/GD32VW55x_RELEASE_V1.0.2/MSDK/lwip/lwip-2.1.2/src/core/ipv4\igmp.c ****  * @param ifp the network interface for which to look
 239:C:/Users/stapi/OneDrive/Desktop/GD32VW553/V1_MQTT_OK/GD32VW55X_Wifi_BLE_SDK/GD32VW55x_RELEASE_V1.0.2/MSDK/lwip/lwip-2.1.2/src/core/ipv4\igmp.c ****  * @param addr the group ip address to search
 240:C:/Users/stapi/OneDrive/Desktop/GD32VW553/V1_MQTT_OK/GD32VW55X_Wifi_BLE_SDK/GD32VW55x_RELEASE_V1.0.2/MSDK/lwip/lwip-2.1.2/src/core/ipv4\igmp.c ****  * @return a struct igmp_group*,
 241:C:/Users/stapi/OneDrive/Desktop/GD32VW553/V1_MQTT_OK/GD32VW55X_Wifi_BLE_SDK/GD32VW55x_RELEASE_V1.0.2/MSDK/lwip/lwip-2.1.2/src/core/ipv4\igmp.c ****  *         NULL on memory error.
 242:C:/Users/stapi/OneDrive/Desktop/GD32VW553/V1_MQTT_OK/GD32VW55X_Wifi_BLE_SDK/GD32VW55x_RELEASE_V1.0.2/MSDK/lwip/lwip-2.1.2/src/core/ipv4\igmp.c ****  */
 243:C:/Users/stapi/OneDrive/Desktop/GD32VW553/V1_MQTT_OK/GD32VW55X_Wifi_BLE_SDK/GD32VW55x_RELEASE_V1.0.2/MSDK/lwip/lwip-2.1.2/src/core/ipv4\igmp.c **** static struct igmp_group *
 244:C:/Users/stapi/OneDrive/Desktop/GD32VW553/V1_MQTT_OK/GD32VW55X_Wifi_BLE_SDK/GD32VW55x_RELEASE_V1.0.2/MSDK/lwip/lwip-2.1.2/src/core/ipv4\igmp.c **** igmp_lookup_group(struct netif *ifp, const ip4_addr_t *addr)
 245:C:/Users/stapi/OneDrive/Desktop/GD32VW553/V1_MQTT_OK/GD32VW55X_Wifi_BLE_SDK/GD32VW55x_RELEASE_V1.0.2/MSDK/lwip/lwip-2.1.2/src/core/ipv4\igmp.c **** {
 246:C:/Users/stapi/OneDrive/Desktop/GD32VW553/V1_MQTT_OK/GD32VW55X_Wifi_BLE_SDK/GD32VW55x_RELEASE_V1.0.2/MSDK/lwip/lwip-2.1.2/src/core/ipv4\igmp.c ****   struct igmp_group *group;
 247:C:/Users/stapi/OneDrive/Desktop/GD32VW553/V1_MQTT_OK/GD32VW55X_Wifi_BLE_SDK/GD32VW55x_RELEASE_V1.0.2/MSDK/lwip/lwip-2.1.2/src/core/ipv4\igmp.c ****   struct igmp_group *list_head = netif_igmp_data(ifp);
 248:C:/Users/stapi/OneDrive/Desktop/GD32VW553/V1_MQTT_OK/GD32VW55X_Wifi_BLE_SDK/GD32VW55x_RELEASE_V1.0.2/MSDK/lwip/lwip-2.1.2/src/core/ipv4\igmp.c **** 
 249:C:/Users/stapi/OneDrive/Desktop/GD32VW553/V1_MQTT_OK/GD32VW55X_Wifi_BLE_SDK/GD32VW55x_RELEASE_V1.0.2/MSDK/lwip/lwip-2.1.2/src/core/ipv4\igmp.c ****   /* Search if the group already exists */
 250:C:/Users/stapi/OneDrive/Desktop/GD32VW553/V1_MQTT_OK/GD32VW55X_Wifi_BLE_SDK/GD32VW55x_RELEASE_V1.0.2/MSDK/lwip/lwip-2.1.2/src/core/ipv4\igmp.c ****   group = igmp_lookfor_group(ifp, addr);
 251:C:/Users/stapi/OneDrive/Desktop/GD32VW553/V1_MQTT_OK/GD32VW55X_Wifi_BLE_SDK/GD32VW55x_RELEASE_V1.0.2/MSDK/lwip/lwip-2.1.2/src/core/ipv4\igmp.c ****   if (group != NULL) {
 252:C:/Users/stapi/OneDrive/Desktop/GD32VW553/V1_MQTT_OK/GD32VW55X_Wifi_BLE_SDK/GD32VW55x_RELEASE_V1.0.2/MSDK/lwip/lwip-2.1.2/src/core/ipv4\igmp.c ****     /* Group already exists. */
 253:C:/Users/stapi/OneDrive/Desktop/GD32VW553/V1_MQTT_OK/GD32VW55X_Wifi_BLE_SDK/GD32VW55x_RELEASE_V1.0.2/MSDK/lwip/lwip-2.1.2/src/core/ipv4\igmp.c ****     return group;
 254:C:/Users/stapi/OneDrive/Desktop/GD32VW553/V1_MQTT_OK/GD32VW55X_Wifi_BLE_SDK/GD32VW55x_RELEASE_V1.0.2/MSDK/lwip/lwip-2.1.2/src/core/ipv4\igmp.c ****   }
 255:C:/Users/stapi/OneDrive/Desktop/GD32VW553/V1_MQTT_OK/GD32VW55X_Wifi_BLE_SDK/GD32VW55x_RELEASE_V1.0.2/MSDK/lwip/lwip-2.1.2/src/core/ipv4\igmp.c **** 
 256:C:/Users/stapi/OneDrive/Desktop/GD32VW553/V1_MQTT_OK/GD32VW55X_Wifi_BLE_SDK/GD32VW55x_RELEASE_V1.0.2/MSDK/lwip/lwip-2.1.2/src/core/ipv4\igmp.c ****   /* Group doesn't exist yet, create a new one */
 257:C:/Users/stapi/OneDrive/Desktop/GD32VW553/V1_MQTT_OK/GD32VW55X_Wifi_BLE_SDK/GD32VW55x_RELEASE_V1.0.2/MSDK/lwip/lwip-2.1.2/src/core/ipv4\igmp.c ****   group = (struct igmp_group *)memp_malloc(MEMP_IGMP_GROUP);
 258:C:/Users/stapi/OneDrive/Desktop/GD32VW553/V1_MQTT_OK/GD32VW55X_Wifi_BLE_SDK/GD32VW55x_RELEASE_V1.0.2/MSDK/lwip/lwip-2.1.2/src/core/ipv4\igmp.c ****   if (group != NULL) {
 259:C:/Users/stapi/OneDrive/Desktop/GD32VW553/V1_MQTT_OK/GD32VW55X_Wifi_BLE_SDK/GD32VW55x_RELEASE_V1.0.2/MSDK/lwip/lwip-2.1.2/src/core/ipv4\igmp.c ****     ip4_addr_set(&(group->group_address), addr);
 260:C:/Users/stapi/OneDrive/Desktop/GD32VW553/V1_MQTT_OK/GD32VW55X_Wifi_BLE_SDK/GD32VW55x_RELEASE_V1.0.2/MSDK/lwip/lwip-2.1.2/src/core/ipv4\igmp.c ****     group->timer              = 0; /* Not running */
 261:C:/Users/stapi/OneDrive/Desktop/GD32VW553/V1_MQTT_OK/GD32VW55X_Wifi_BLE_SDK/GD32VW55x_RELEASE_V1.0.2/MSDK/lwip/lwip-2.1.2/src/core/ipv4\igmp.c ****     group->group_state        = IGMP_GROUP_NON_MEMBER;
 262:C:/Users/stapi/OneDrive/Desktop/GD32VW553/V1_MQTT_OK/GD32VW55X_Wifi_BLE_SDK/GD32VW55x_RELEASE_V1.0.2/MSDK/lwip/lwip-2.1.2/src/core/ipv4\igmp.c ****     group->last_reporter_flag = 0;
 263:C:/Users/stapi/OneDrive/Desktop/GD32VW553/V1_MQTT_OK/GD32VW55X_Wifi_BLE_SDK/GD32VW55x_RELEASE_V1.0.2/MSDK/lwip/lwip-2.1.2/src/core/ipv4\igmp.c ****     group->use                = 0;
 264:C:/Users/stapi/OneDrive/Desktop/GD32VW553/V1_MQTT_OK/GD32VW55X_Wifi_BLE_SDK/GD32VW55x_RELEASE_V1.0.2/MSDK/lwip/lwip-2.1.2/src/core/ipv4\igmp.c **** 
 265:C:/Users/stapi/OneDrive/Desktop/GD32VW553/V1_MQTT_OK/GD32VW55X_Wifi_BLE_SDK/GD32VW55x_RELEASE_V1.0.2/MSDK/lwip/lwip-2.1.2/src/core/ipv4\igmp.c ****     /* Ensure allsystems group is always first in list */
 266:C:/Users/stapi/OneDrive/Desktop/GD32VW553/V1_MQTT_OK/GD32VW55X_Wifi_BLE_SDK/GD32VW55x_RELEASE_V1.0.2/MSDK/lwip/lwip-2.1.2/src/core/ipv4\igmp.c ****     if (list_head == NULL) {
 267:C:/Users/stapi/OneDrive/Desktop/GD32VW553/V1_MQTT_OK/GD32VW55X_Wifi_BLE_SDK/GD32VW55x_RELEASE_V1.0.2/MSDK/lwip/lwip-2.1.2/src/core/ipv4\igmp.c ****       /* this is the first entry in linked list */
 268:C:/Users/stapi/OneDrive/Desktop/GD32VW553/V1_MQTT_OK/GD32VW55X_Wifi_BLE_SDK/GD32VW55x_RELEASE_V1.0.2/MSDK/lwip/lwip-2.1.2/src/core/ipv4\igmp.c ****       LWIP_ASSERT("igmp_lookup_group: first group must be allsystems",
 269:C:/Users/stapi/OneDrive/Desktop/GD32VW553/V1_MQTT_OK/GD32VW55X_Wifi_BLE_SDK/GD32VW55x_RELEASE_V1.0.2/MSDK/lwip/lwip-2.1.2/src/core/ipv4\igmp.c ****                   (ip4_addr_cmp(addr, &allsystems) != 0));
 270:C:/Users/stapi/OneDrive/Desktop/GD32VW553/V1_MQTT_OK/GD32VW55X_Wifi_BLE_SDK/GD32VW55x_RELEASE_V1.0.2/MSDK/lwip/lwip-2.1.2/src/core/ipv4\igmp.c ****       group->next = NULL;
 271:C:/Users/stapi/OneDrive/Desktop/GD32VW553/V1_MQTT_OK/GD32VW55X_Wifi_BLE_SDK/GD32VW55x_RELEASE_V1.0.2/MSDK/lwip/lwip-2.1.2/src/core/ipv4\igmp.c ****       netif_set_client_data(ifp, LWIP_NETIF_CLIENT_DATA_INDEX_IGMP, group);
 272:C:/Users/stapi/OneDrive/Desktop/GD32VW553/V1_MQTT_OK/GD32VW55X_Wifi_BLE_SDK/GD32VW55x_RELEASE_V1.0.2/MSDK/lwip/lwip-2.1.2/src/core/ipv4\igmp.c ****     } else {
 273:C:/Users/stapi/OneDrive/Desktop/GD32VW553/V1_MQTT_OK/GD32VW55X_Wifi_BLE_SDK/GD32VW55x_RELEASE_V1.0.2/MSDK/lwip/lwip-2.1.2/src/core/ipv4\igmp.c ****       /* append _after_ first entry */
 274:C:/Users/stapi/OneDrive/Desktop/GD32VW553/V1_MQTT_OK/GD32VW55X_Wifi_BLE_SDK/GD32VW55x_RELEASE_V1.0.2/MSDK/lwip/lwip-2.1.2/src/core/ipv4\igmp.c ****       LWIP_ASSERT("igmp_lookup_group: all except first group must not be allsystems",
 275:C:/Users/stapi/OneDrive/Desktop/GD32VW553/V1_MQTT_OK/GD32VW55X_Wifi_BLE_SDK/GD32VW55x_RELEASE_V1.0.2/MSDK/lwip/lwip-2.1.2/src/core/ipv4\igmp.c ****                   (ip4_addr_cmp(addr, &allsystems) == 0));
 276:C:/Users/stapi/OneDrive/Desktop/GD32VW553/V1_MQTT_OK/GD32VW55X_Wifi_BLE_SDK/GD32VW55x_RELEASE_V1.0.2/MSDK/lwip/lwip-2.1.2/src/core/ipv4\igmp.c ****       group->next = list_head->next;
 277:C:/Users/stapi/OneDrive/Desktop/GD32VW553/V1_MQTT_OK/GD32VW55X_Wifi_BLE_SDK/GD32VW55x_RELEASE_V1.0.2/MSDK/lwip/lwip-2.1.2/src/core/ipv4\igmp.c ****       list_head->next = group;
 278:C:/Users/stapi/OneDrive/Desktop/GD32VW553/V1_MQTT_OK/GD32VW55X_Wifi_BLE_SDK/GD32VW55x_RELEASE_V1.0.2/MSDK/lwip/lwip-2.1.2/src/core/ipv4\igmp.c ****     }
 279:C:/Users/stapi/OneDrive/Desktop/GD32VW553/V1_MQTT_OK/GD32VW55X_Wifi_BLE_SDK/GD32VW55x_RELEASE_V1.0.2/MSDK/lwip/lwip-2.1.2/src/core/ipv4\igmp.c ****   }
 280:C:/Users/stapi/OneDrive/Desktop/GD32VW553/V1_MQTT_OK/GD32VW55X_Wifi_BLE_SDK/GD32VW55x_RELEASE_V1.0.2/MSDK/lwip/lwip-2.1.2/src/core/ipv4\igmp.c **** 
 281:C:/Users/stapi/OneDrive/Desktop/GD32VW553/V1_MQTT_OK/GD32VW55X_Wifi_BLE_SDK/GD32VW55x_RELEASE_V1.0.2/MSDK/lwip/lwip-2.1.2/src/core/ipv4\igmp.c ****   LWIP_DEBUGF(IGMP_DEBUG, ("igmp_lookup_group: %sallocated a new group with address ", (group ? "" 
 282:C:/Users/stapi/OneDrive/Desktop/GD32VW553/V1_MQTT_OK/GD32VW55X_Wifi_BLE_SDK/GD32VW55x_RELEASE_V1.0.2/MSDK/lwip/lwip-2.1.2/src/core/ipv4\igmp.c ****   ip4_addr_debug_print(IGMP_DEBUG, addr);
 283:C:/Users/stapi/OneDrive/Desktop/GD32VW553/V1_MQTT_OK/GD32VW55X_Wifi_BLE_SDK/GD32VW55x_RELEASE_V1.0.2/MSDK/lwip/lwip-2.1.2/src/core/ipv4\igmp.c ****   LWIP_DEBUGF(IGMP_DEBUG, (" on if %p\n", (void *)ifp));
 284:C:/Users/stapi/OneDrive/Desktop/GD32VW553/V1_MQTT_OK/GD32VW55X_Wifi_BLE_SDK/GD32VW55x_RELEASE_V1.0.2/MSDK/lwip/lwip-2.1.2/src/core/ipv4\igmp.c **** 
 285:C:/Users/stapi/OneDrive/Desktop/GD32VW553/V1_MQTT_OK/GD32VW55X_Wifi_BLE_SDK/GD32VW55x_RELEASE_V1.0.2/MSDK/lwip/lwip-2.1.2/src/core/ipv4\igmp.c ****   return group;
 286:C:/Users/stapi/OneDrive/Desktop/GD32VW553/V1_MQTT_OK/GD32VW55X_Wifi_BLE_SDK/GD32VW55x_RELEASE_V1.0.2/MSDK/lwip/lwip-2.1.2/src/core/ipv4\igmp.c **** }
 287:C:/Users/stapi/OneDrive/Desktop/GD32VW553/V1_MQTT_OK/GD32VW55X_Wifi_BLE_SDK/GD32VW55x_RELEASE_V1.0.2/MSDK/lwip/lwip-2.1.2/src/core/ipv4\igmp.c **** 
 288:C:/Users/stapi/OneDrive/Desktop/GD32VW553/V1_MQTT_OK/GD32VW55X_Wifi_BLE_SDK/GD32VW55x_RELEASE_V1.0.2/MSDK/lwip/lwip-2.1.2/src/core/ipv4\igmp.c **** /**
 289:C:/Users/stapi/OneDrive/Desktop/GD32VW553/V1_MQTT_OK/GD32VW55X_Wifi_BLE_SDK/GD32VW55x_RELEASE_V1.0.2/MSDK/lwip/lwip-2.1.2/src/core/ipv4\igmp.c ****  * Remove a group from netif's igmp group list, but don't free it yet
 290:C:/Users/stapi/OneDrive/Desktop/GD32VW553/V1_MQTT_OK/GD32VW55X_Wifi_BLE_SDK/GD32VW55x_RELEASE_V1.0.2/MSDK/lwip/lwip-2.1.2/src/core/ipv4\igmp.c ****  *
 291:C:/Users/stapi/OneDrive/Desktop/GD32VW553/V1_MQTT_OK/GD32VW55X_Wifi_BLE_SDK/GD32VW55x_RELEASE_V1.0.2/MSDK/lwip/lwip-2.1.2/src/core/ipv4\igmp.c ****  * @param group the group to remove from the netif's igmp group list
 292:C:/Users/stapi/OneDrive/Desktop/GD32VW553/V1_MQTT_OK/GD32VW55X_Wifi_BLE_SDK/GD32VW55x_RELEASE_V1.0.2/MSDK/lwip/lwip-2.1.2/src/core/ipv4\igmp.c ****  * @return ERR_OK if group was removed from the list, an err_t otherwise
 293:C:/Users/stapi/OneDrive/Desktop/GD32VW553/V1_MQTT_OK/GD32VW55X_Wifi_BLE_SDK/GD32VW55x_RELEASE_V1.0.2/MSDK/lwip/lwip-2.1.2/src/core/ipv4\igmp.c ****  */
 294:C:/Users/stapi/OneDrive/Desktop/GD32VW553/V1_MQTT_OK/GD32VW55X_Wifi_BLE_SDK/GD32VW55x_RELEASE_V1.0.2/MSDK/lwip/lwip-2.1.2/src/core/ipv4\igmp.c **** static err_t
 295:C:/Users/stapi/OneDrive/Desktop/GD32VW553/V1_MQTT_OK/GD32VW55X_Wifi_BLE_SDK/GD32VW55x_RELEASE_V1.0.2/MSDK/lwip/lwip-2.1.2/src/core/ipv4\igmp.c **** igmp_remove_group(struct netif *netif, struct igmp_group *group)
 296:C:/Users/stapi/OneDrive/Desktop/GD32VW553/V1_MQTT_OK/GD32VW55X_Wifi_BLE_SDK/GD32VW55x_RELEASE_V1.0.2/MSDK/lwip/lwip-2.1.2/src/core/ipv4\igmp.c **** {
 297:C:/Users/stapi/OneDrive/Desktop/GD32VW553/V1_MQTT_OK/GD32VW55X_Wifi_BLE_SDK/GD32VW55x_RELEASE_V1.0.2/MSDK/lwip/lwip-2.1.2/src/core/ipv4\igmp.c ****   err_t err = ERR_OK;
 298:C:/Users/stapi/OneDrive/Desktop/GD32VW553/V1_MQTT_OK/GD32VW55X_Wifi_BLE_SDK/GD32VW55x_RELEASE_V1.0.2/MSDK/lwip/lwip-2.1.2/src/core/ipv4\igmp.c ****   struct igmp_group *tmp_group;
 299:C:/Users/stapi/OneDrive/Desktop/GD32VW553/V1_MQTT_OK/GD32VW55X_Wifi_BLE_SDK/GD32VW55x_RELEASE_V1.0.2/MSDK/lwip/lwip-2.1.2/src/core/ipv4\igmp.c **** 
 300:C:/Users/stapi/OneDrive/Desktop/GD32VW553/V1_MQTT_OK/GD32VW55X_Wifi_BLE_SDK/GD32VW55x_RELEASE_V1.0.2/MSDK/lwip/lwip-2.1.2/src/core/ipv4\igmp.c ****   /* Skip the first group in the list, it is always the allsystems group added in igmp_start() */
 301:C:/Users/stapi/OneDrive/Desktop/GD32VW553/V1_MQTT_OK/GD32VW55X_Wifi_BLE_SDK/GD32VW55x_RELEASE_V1.0.2/MSDK/lwip/lwip-2.1.2/src/core/ipv4\igmp.c ****   for (tmp_group = netif_igmp_data(netif); tmp_group != NULL; tmp_group = tmp_group->next) {
 302:C:/Users/stapi/OneDrive/Desktop/GD32VW553/V1_MQTT_OK/GD32VW55X_Wifi_BLE_SDK/GD32VW55x_RELEASE_V1.0.2/MSDK/lwip/lwip-2.1.2/src/core/ipv4\igmp.c ****     if (tmp_group->next == group) {
 303:C:/Users/stapi/OneDrive/Desktop/GD32VW553/V1_MQTT_OK/GD32VW55X_Wifi_BLE_SDK/GD32VW55x_RELEASE_V1.0.2/MSDK/lwip/lwip-2.1.2/src/core/ipv4\igmp.c ****       tmp_group->next = group->next;
 304:C:/Users/stapi/OneDrive/Desktop/GD32VW553/V1_MQTT_OK/GD32VW55X_Wifi_BLE_SDK/GD32VW55x_RELEASE_V1.0.2/MSDK/lwip/lwip-2.1.2/src/core/ipv4\igmp.c ****       break;
 305:C:/Users/stapi/OneDrive/Desktop/GD32VW553/V1_MQTT_OK/GD32VW55X_Wifi_BLE_SDK/GD32VW55x_RELEASE_V1.0.2/MSDK/lwip/lwip-2.1.2/src/core/ipv4\igmp.c ****     }
 306:C:/Users/stapi/OneDrive/Desktop/GD32VW553/V1_MQTT_OK/GD32VW55X_Wifi_BLE_SDK/GD32VW55x_RELEASE_V1.0.2/MSDK/lwip/lwip-2.1.2/src/core/ipv4\igmp.c ****   }
 307:C:/Users/stapi/OneDrive/Desktop/GD32VW553/V1_MQTT_OK/GD32VW55X_Wifi_BLE_SDK/GD32VW55x_RELEASE_V1.0.2/MSDK/lwip/lwip-2.1.2/src/core/ipv4\igmp.c ****   /* Group not found in netif's igmp group list */
 308:C:/Users/stapi/OneDrive/Desktop/GD32VW553/V1_MQTT_OK/GD32VW55X_Wifi_BLE_SDK/GD32VW55x_RELEASE_V1.0.2/MSDK/lwip/lwip-2.1.2/src/core/ipv4\igmp.c ****   if (tmp_group == NULL) {
 309:C:/Users/stapi/OneDrive/Desktop/GD32VW553/V1_MQTT_OK/GD32VW55X_Wifi_BLE_SDK/GD32VW55x_RELEASE_V1.0.2/MSDK/lwip/lwip-2.1.2/src/core/ipv4\igmp.c ****     err = ERR_ARG;
 310:C:/Users/stapi/OneDrive/Desktop/GD32VW553/V1_MQTT_OK/GD32VW55X_Wifi_BLE_SDK/GD32VW55x_RELEASE_V1.0.2/MSDK/lwip/lwip-2.1.2/src/core/ipv4\igmp.c ****   }
 311:C:/Users/stapi/OneDrive/Desktop/GD32VW553/V1_MQTT_OK/GD32VW55X_Wifi_BLE_SDK/GD32VW55x_RELEASE_V1.0.2/MSDK/lwip/lwip-2.1.2/src/core/ipv4\igmp.c **** 
 312:C:/Users/stapi/OneDrive/Desktop/GD32VW553/V1_MQTT_OK/GD32VW55X_Wifi_BLE_SDK/GD32VW55x_RELEASE_V1.0.2/MSDK/lwip/lwip-2.1.2/src/core/ipv4\igmp.c ****   return err;
 313:C:/Users/stapi/OneDrive/Desktop/GD32VW553/V1_MQTT_OK/GD32VW55X_Wifi_BLE_SDK/GD32VW55x_RELEASE_V1.0.2/MSDK/lwip/lwip-2.1.2/src/core/ipv4\igmp.c **** }
 314:C:/Users/stapi/OneDrive/Desktop/GD32VW553/V1_MQTT_OK/GD32VW55X_Wifi_BLE_SDK/GD32VW55x_RELEASE_V1.0.2/MSDK/lwip/lwip-2.1.2/src/core/ipv4\igmp.c **** 
 315:C:/Users/stapi/OneDrive/Desktop/GD32VW553/V1_MQTT_OK/GD32VW55X_Wifi_BLE_SDK/GD32VW55x_RELEASE_V1.0.2/MSDK/lwip/lwip-2.1.2/src/core/ipv4\igmp.c **** /**
 316:C:/Users/stapi/OneDrive/Desktop/GD32VW553/V1_MQTT_OK/GD32VW55X_Wifi_BLE_SDK/GD32VW55x_RELEASE_V1.0.2/MSDK/lwip/lwip-2.1.2/src/core/ipv4\igmp.c ****  * Called from ip_input() if a new IGMP packet is received.
 317:C:/Users/stapi/OneDrive/Desktop/GD32VW553/V1_MQTT_OK/GD32VW55X_Wifi_BLE_SDK/GD32VW55x_RELEASE_V1.0.2/MSDK/lwip/lwip-2.1.2/src/core/ipv4\igmp.c ****  *
 318:C:/Users/stapi/OneDrive/Desktop/GD32VW553/V1_MQTT_OK/GD32VW55X_Wifi_BLE_SDK/GD32VW55x_RELEASE_V1.0.2/MSDK/lwip/lwip-2.1.2/src/core/ipv4\igmp.c ****  * @param p received igmp packet, p->payload pointing to the igmp header
 319:C:/Users/stapi/OneDrive/Desktop/GD32VW553/V1_MQTT_OK/GD32VW55X_Wifi_BLE_SDK/GD32VW55x_RELEASE_V1.0.2/MSDK/lwip/lwip-2.1.2/src/core/ipv4\igmp.c ****  * @param inp network interface on which the packet was received
 320:C:/Users/stapi/OneDrive/Desktop/GD32VW553/V1_MQTT_OK/GD32VW55X_Wifi_BLE_SDK/GD32VW55x_RELEASE_V1.0.2/MSDK/lwip/lwip-2.1.2/src/core/ipv4\igmp.c ****  * @param dest destination ip address of the igmp packet
 321:C:/Users/stapi/OneDrive/Desktop/GD32VW553/V1_MQTT_OK/GD32VW55X_Wifi_BLE_SDK/GD32VW55x_RELEASE_V1.0.2/MSDK/lwip/lwip-2.1.2/src/core/ipv4\igmp.c ****  */
 322:C:/Users/stapi/OneDrive/Desktop/GD32VW553/V1_MQTT_OK/GD32VW55X_Wifi_BLE_SDK/GD32VW55x_RELEASE_V1.0.2/MSDK/lwip/lwip-2.1.2/src/core/ipv4\igmp.c **** void
 323:C:/Users/stapi/OneDrive/Desktop/GD32VW553/V1_MQTT_OK/GD32VW55X_Wifi_BLE_SDK/GD32VW55x_RELEASE_V1.0.2/MSDK/lwip/lwip-2.1.2/src/core/ipv4\igmp.c **** igmp_input(struct pbuf *p, struct netif *inp, const ip4_addr_t *dest)
 324:C:/Users/stapi/OneDrive/Desktop/GD32VW553/V1_MQTT_OK/GD32VW55X_Wifi_BLE_SDK/GD32VW55x_RELEASE_V1.0.2/MSDK/lwip/lwip-2.1.2/src/core/ipv4\igmp.c **** {
 325:C:/Users/stapi/OneDrive/Desktop/GD32VW553/V1_MQTT_OK/GD32VW55X_Wifi_BLE_SDK/GD32VW55x_RELEASE_V1.0.2/MSDK/lwip/lwip-2.1.2/src/core/ipv4\igmp.c ****   struct igmp_msg   *igmp;
 326:C:/Users/stapi/OneDrive/Desktop/GD32VW553/V1_MQTT_OK/GD32VW55X_Wifi_BLE_SDK/GD32VW55x_RELEASE_V1.0.2/MSDK/lwip/lwip-2.1.2/src/core/ipv4\igmp.c ****   struct igmp_group *group;
 327:C:/Users/stapi/OneDrive/Desktop/GD32VW553/V1_MQTT_OK/GD32VW55X_Wifi_BLE_SDK/GD32VW55x_RELEASE_V1.0.2/MSDK/lwip/lwip-2.1.2/src/core/ipv4\igmp.c ****   struct igmp_group *groupref;
 328:C:/Users/stapi/OneDrive/Desktop/GD32VW553/V1_MQTT_OK/GD32VW55X_Wifi_BLE_SDK/GD32VW55x_RELEASE_V1.0.2/MSDK/lwip/lwip-2.1.2/src/core/ipv4\igmp.c **** 
 329:C:/Users/stapi/OneDrive/Desktop/GD32VW553/V1_MQTT_OK/GD32VW55X_Wifi_BLE_SDK/GD32VW55x_RELEASE_V1.0.2/MSDK/lwip/lwip-2.1.2/src/core/ipv4\igmp.c ****   IGMP_STATS_INC(igmp.recv);
 330:C:/Users/stapi/OneDrive/Desktop/GD32VW553/V1_MQTT_OK/GD32VW55X_Wifi_BLE_SDK/GD32VW55x_RELEASE_V1.0.2/MSDK/lwip/lwip-2.1.2/src/core/ipv4\igmp.c **** 
 331:C:/Users/stapi/OneDrive/Desktop/GD32VW553/V1_MQTT_OK/GD32VW55X_Wifi_BLE_SDK/GD32VW55x_RELEASE_V1.0.2/MSDK/lwip/lwip-2.1.2/src/core/ipv4\igmp.c ****   /* Note that the length CAN be greater than 8 but only 8 are used - All are included in the check
 332:C:/Users/stapi/OneDrive/Desktop/GD32VW553/V1_MQTT_OK/GD32VW55X_Wifi_BLE_SDK/GD32VW55x_RELEASE_V1.0.2/MSDK/lwip/lwip-2.1.2/src/core/ipv4\igmp.c ****   if (p->len < IGMP_MINLEN) {
 333:C:/Users/stapi/OneDrive/Desktop/GD32VW553/V1_MQTT_OK/GD32VW55X_Wifi_BLE_SDK/GD32VW55x_RELEASE_V1.0.2/MSDK/lwip/lwip-2.1.2/src/core/ipv4\igmp.c ****     pbuf_free(p);
 334:C:/Users/stapi/OneDrive/Desktop/GD32VW553/V1_MQTT_OK/GD32VW55X_Wifi_BLE_SDK/GD32VW55x_RELEASE_V1.0.2/MSDK/lwip/lwip-2.1.2/src/core/ipv4\igmp.c ****     IGMP_STATS_INC(igmp.lenerr);
 335:C:/Users/stapi/OneDrive/Desktop/GD32VW553/V1_MQTT_OK/GD32VW55X_Wifi_BLE_SDK/GD32VW55x_RELEASE_V1.0.2/MSDK/lwip/lwip-2.1.2/src/core/ipv4\igmp.c ****     LWIP_DEBUGF(IGMP_DEBUG, ("igmp_input: length error\n"));
 336:C:/Users/stapi/OneDrive/Desktop/GD32VW553/V1_MQTT_OK/GD32VW55X_Wifi_BLE_SDK/GD32VW55x_RELEASE_V1.0.2/MSDK/lwip/lwip-2.1.2/src/core/ipv4\igmp.c ****     return;
 337:C:/Users/stapi/OneDrive/Desktop/GD32VW553/V1_MQTT_OK/GD32VW55X_Wifi_BLE_SDK/GD32VW55x_RELEASE_V1.0.2/MSDK/lwip/lwip-2.1.2/src/core/ipv4\igmp.c ****   }
 338:C:/Users/stapi/OneDrive/Desktop/GD32VW553/V1_MQTT_OK/GD32VW55X_Wifi_BLE_SDK/GD32VW55x_RELEASE_V1.0.2/MSDK/lwip/lwip-2.1.2/src/core/ipv4\igmp.c **** 
 339:C:/Users/stapi/OneDrive/Desktop/GD32VW553/V1_MQTT_OK/GD32VW55X_Wifi_BLE_SDK/GD32VW55x_RELEASE_V1.0.2/MSDK/lwip/lwip-2.1.2/src/core/ipv4\igmp.c ****   LWIP_DEBUGF(IGMP_DEBUG, ("igmp_input: message from "));
 340:C:/Users/stapi/OneDrive/Desktop/GD32VW553/V1_MQTT_OK/GD32VW55X_Wifi_BLE_SDK/GD32VW55x_RELEASE_V1.0.2/MSDK/lwip/lwip-2.1.2/src/core/ipv4\igmp.c ****   ip4_addr_debug_print_val(IGMP_DEBUG, ip4_current_header()->src);
 341:C:/Users/stapi/OneDrive/Desktop/GD32VW553/V1_MQTT_OK/GD32VW55X_Wifi_BLE_SDK/GD32VW55x_RELEASE_V1.0.2/MSDK/lwip/lwip-2.1.2/src/core/ipv4\igmp.c ****   LWIP_DEBUGF(IGMP_DEBUG, (" to address "));
 342:C:/Users/stapi/OneDrive/Desktop/GD32VW553/V1_MQTT_OK/GD32VW55X_Wifi_BLE_SDK/GD32VW55x_RELEASE_V1.0.2/MSDK/lwip/lwip-2.1.2/src/core/ipv4\igmp.c ****   ip4_addr_debug_print_val(IGMP_DEBUG, ip4_current_header()->dest);
 343:C:/Users/stapi/OneDrive/Desktop/GD32VW553/V1_MQTT_OK/GD32VW55X_Wifi_BLE_SDK/GD32VW55x_RELEASE_V1.0.2/MSDK/lwip/lwip-2.1.2/src/core/ipv4\igmp.c ****   LWIP_DEBUGF(IGMP_DEBUG, (" on if %p\n", (void *)inp));
 344:C:/Users/stapi/OneDrive/Desktop/GD32VW553/V1_MQTT_OK/GD32VW55X_Wifi_BLE_SDK/GD32VW55x_RELEASE_V1.0.2/MSDK/lwip/lwip-2.1.2/src/core/ipv4\igmp.c **** 
 345:C:/Users/stapi/OneDrive/Desktop/GD32VW553/V1_MQTT_OK/GD32VW55X_Wifi_BLE_SDK/GD32VW55x_RELEASE_V1.0.2/MSDK/lwip/lwip-2.1.2/src/core/ipv4\igmp.c ****   /* Now calculate and check the checksum */
 346:C:/Users/stapi/OneDrive/Desktop/GD32VW553/V1_MQTT_OK/GD32VW55X_Wifi_BLE_SDK/GD32VW55x_RELEASE_V1.0.2/MSDK/lwip/lwip-2.1.2/src/core/ipv4\igmp.c ****   igmp = (struct igmp_msg *)p->payload;
 347:C:/Users/stapi/OneDrive/Desktop/GD32VW553/V1_MQTT_OK/GD32VW55X_Wifi_BLE_SDK/GD32VW55x_RELEASE_V1.0.2/MSDK/lwip/lwip-2.1.2/src/core/ipv4\igmp.c ****   if (inet_chksum(igmp, p->len)) {
 348:C:/Users/stapi/OneDrive/Desktop/GD32VW553/V1_MQTT_OK/GD32VW55X_Wifi_BLE_SDK/GD32VW55x_RELEASE_V1.0.2/MSDK/lwip/lwip-2.1.2/src/core/ipv4\igmp.c ****     pbuf_free(p);
 349:C:/Users/stapi/OneDrive/Desktop/GD32VW553/V1_MQTT_OK/GD32VW55X_Wifi_BLE_SDK/GD32VW55x_RELEASE_V1.0.2/MSDK/lwip/lwip-2.1.2/src/core/ipv4\igmp.c ****     IGMP_STATS_INC(igmp.chkerr);
 350:C:/Users/stapi/OneDrive/Desktop/GD32VW553/V1_MQTT_OK/GD32VW55X_Wifi_BLE_SDK/GD32VW55x_RELEASE_V1.0.2/MSDK/lwip/lwip-2.1.2/src/core/ipv4\igmp.c ****     LWIP_DEBUGF(IGMP_DEBUG, ("igmp_input: checksum error\n"));
 351:C:/Users/stapi/OneDrive/Desktop/GD32VW553/V1_MQTT_OK/GD32VW55X_Wifi_BLE_SDK/GD32VW55x_RELEASE_V1.0.2/MSDK/lwip/lwip-2.1.2/src/core/ipv4\igmp.c ****     return;
 352:C:/Users/stapi/OneDrive/Desktop/GD32VW553/V1_MQTT_OK/GD32VW55X_Wifi_BLE_SDK/GD32VW55x_RELEASE_V1.0.2/MSDK/lwip/lwip-2.1.2/src/core/ipv4\igmp.c ****   }
 353:C:/Users/stapi/OneDrive/Desktop/GD32VW553/V1_MQTT_OK/GD32VW55X_Wifi_BLE_SDK/GD32VW55x_RELEASE_V1.0.2/MSDK/lwip/lwip-2.1.2/src/core/ipv4\igmp.c **** 
 354:C:/Users/stapi/OneDrive/Desktop/GD32VW553/V1_MQTT_OK/GD32VW55X_Wifi_BLE_SDK/GD32VW55x_RELEASE_V1.0.2/MSDK/lwip/lwip-2.1.2/src/core/ipv4\igmp.c ****   /* Packet is ok so find an existing group */
 355:C:/Users/stapi/OneDrive/Desktop/GD32VW553/V1_MQTT_OK/GD32VW55X_Wifi_BLE_SDK/GD32VW55x_RELEASE_V1.0.2/MSDK/lwip/lwip-2.1.2/src/core/ipv4\igmp.c ****   group = igmp_lookfor_group(inp, dest); /* use the destination IP address of incoming packet */
 356:C:/Users/stapi/OneDrive/Desktop/GD32VW553/V1_MQTT_OK/GD32VW55X_Wifi_BLE_SDK/GD32VW55x_RELEASE_V1.0.2/MSDK/lwip/lwip-2.1.2/src/core/ipv4\igmp.c **** 
 357:C:/Users/stapi/OneDrive/Desktop/GD32VW553/V1_MQTT_OK/GD32VW55X_Wifi_BLE_SDK/GD32VW55x_RELEASE_V1.0.2/MSDK/lwip/lwip-2.1.2/src/core/ipv4\igmp.c ****   /* If group can be found or create... */
 358:C:/Users/stapi/OneDrive/Desktop/GD32VW553/V1_MQTT_OK/GD32VW55X_Wifi_BLE_SDK/GD32VW55x_RELEASE_V1.0.2/MSDK/lwip/lwip-2.1.2/src/core/ipv4\igmp.c ****   if (!group) {
 359:C:/Users/stapi/OneDrive/Desktop/GD32VW553/V1_MQTT_OK/GD32VW55X_Wifi_BLE_SDK/GD32VW55x_RELEASE_V1.0.2/MSDK/lwip/lwip-2.1.2/src/core/ipv4\igmp.c ****     pbuf_free(p);
 360:C:/Users/stapi/OneDrive/Desktop/GD32VW553/V1_MQTT_OK/GD32VW55X_Wifi_BLE_SDK/GD32VW55x_RELEASE_V1.0.2/MSDK/lwip/lwip-2.1.2/src/core/ipv4\igmp.c ****     IGMP_STATS_INC(igmp.drop);
 361:C:/Users/stapi/OneDrive/Desktop/GD32VW553/V1_MQTT_OK/GD32VW55X_Wifi_BLE_SDK/GD32VW55x_RELEASE_V1.0.2/MSDK/lwip/lwip-2.1.2/src/core/ipv4\igmp.c ****     LWIP_DEBUGF(IGMP_DEBUG, ("igmp_input: IGMP frame not for us\n"));
 362:C:/Users/stapi/OneDrive/Desktop/GD32VW553/V1_MQTT_OK/GD32VW55X_Wifi_BLE_SDK/GD32VW55x_RELEASE_V1.0.2/MSDK/lwip/lwip-2.1.2/src/core/ipv4\igmp.c ****     return;
 363:C:/Users/stapi/OneDrive/Desktop/GD32VW553/V1_MQTT_OK/GD32VW55X_Wifi_BLE_SDK/GD32VW55x_RELEASE_V1.0.2/MSDK/lwip/lwip-2.1.2/src/core/ipv4\igmp.c ****   }
 364:C:/Users/stapi/OneDrive/Desktop/GD32VW553/V1_MQTT_OK/GD32VW55X_Wifi_BLE_SDK/GD32VW55x_RELEASE_V1.0.2/MSDK/lwip/lwip-2.1.2/src/core/ipv4\igmp.c **** 
 365:C:/Users/stapi/OneDrive/Desktop/GD32VW553/V1_MQTT_OK/GD32VW55X_Wifi_BLE_SDK/GD32VW55x_RELEASE_V1.0.2/MSDK/lwip/lwip-2.1.2/src/core/ipv4\igmp.c ****   /* NOW ACT ON THE INCOMING MESSAGE TYPE... */
 366:C:/Users/stapi/OneDrive/Desktop/GD32VW553/V1_MQTT_OK/GD32VW55X_Wifi_BLE_SDK/GD32VW55x_RELEASE_V1.0.2/MSDK/lwip/lwip-2.1.2/src/core/ipv4\igmp.c ****   switch (igmp->igmp_msgtype) {
 367:C:/Users/stapi/OneDrive/Desktop/GD32VW553/V1_MQTT_OK/GD32VW55X_Wifi_BLE_SDK/GD32VW55x_RELEASE_V1.0.2/MSDK/lwip/lwip-2.1.2/src/core/ipv4\igmp.c ****     case IGMP_MEMB_QUERY:
 368:C:/Users/stapi/OneDrive/Desktop/GD32VW553/V1_MQTT_OK/GD32VW55X_Wifi_BLE_SDK/GD32VW55x_RELEASE_V1.0.2/MSDK/lwip/lwip-2.1.2/src/core/ipv4\igmp.c ****       /* IGMP_MEMB_QUERY to the "all systems" address ? */
 369:C:/Users/stapi/OneDrive/Desktop/GD32VW553/V1_MQTT_OK/GD32VW55X_Wifi_BLE_SDK/GD32VW55x_RELEASE_V1.0.2/MSDK/lwip/lwip-2.1.2/src/core/ipv4\igmp.c ****       if ((ip4_addr_cmp(dest, &allsystems)) && ip4_addr_isany(&igmp->igmp_group_address)) {
 370:C:/Users/stapi/OneDrive/Desktop/GD32VW553/V1_MQTT_OK/GD32VW55X_Wifi_BLE_SDK/GD32VW55x_RELEASE_V1.0.2/MSDK/lwip/lwip-2.1.2/src/core/ipv4\igmp.c ****         /* THIS IS THE GENERAL QUERY */
 371:C:/Users/stapi/OneDrive/Desktop/GD32VW553/V1_MQTT_OK/GD32VW55X_Wifi_BLE_SDK/GD32VW55x_RELEASE_V1.0.2/MSDK/lwip/lwip-2.1.2/src/core/ipv4\igmp.c ****         LWIP_DEBUGF(IGMP_DEBUG, ("igmp_input: General IGMP_MEMB_QUERY on \"ALL SYSTEMS\" address (2
 372:C:/Users/stapi/OneDrive/Desktop/GD32VW553/V1_MQTT_OK/GD32VW55X_Wifi_BLE_SDK/GD32VW55x_RELEASE_V1.0.2/MSDK/lwip/lwip-2.1.2/src/core/ipv4\igmp.c **** 
 373:C:/Users/stapi/OneDrive/Desktop/GD32VW553/V1_MQTT_OK/GD32VW55X_Wifi_BLE_SDK/GD32VW55x_RELEASE_V1.0.2/MSDK/lwip/lwip-2.1.2/src/core/ipv4\igmp.c ****         if (igmp->igmp_maxresp == 0) {
 374:C:/Users/stapi/OneDrive/Desktop/GD32VW553/V1_MQTT_OK/GD32VW55X_Wifi_BLE_SDK/GD32VW55x_RELEASE_V1.0.2/MSDK/lwip/lwip-2.1.2/src/core/ipv4\igmp.c ****           IGMP_STATS_INC(igmp.rx_v1);
 375:C:/Users/stapi/OneDrive/Desktop/GD32VW553/V1_MQTT_OK/GD32VW55X_Wifi_BLE_SDK/GD32VW55x_RELEASE_V1.0.2/MSDK/lwip/lwip-2.1.2/src/core/ipv4\igmp.c ****           LWIP_DEBUGF(IGMP_DEBUG, ("igmp_input: got an all hosts query with time== 0 - this is V1 a
 376:C:/Users/stapi/OneDrive/Desktop/GD32VW553/V1_MQTT_OK/GD32VW55X_Wifi_BLE_SDK/GD32VW55x_RELEASE_V1.0.2/MSDK/lwip/lwip-2.1.2/src/core/ipv4\igmp.c ****           igmp->igmp_maxresp = IGMP_V1_DELAYING_MEMBER_TMR;
 377:C:/Users/stapi/OneDrive/Desktop/GD32VW553/V1_MQTT_OK/GD32VW55X_Wifi_BLE_SDK/GD32VW55x_RELEASE_V1.0.2/MSDK/lwip/lwip-2.1.2/src/core/ipv4\igmp.c ****         } else {
 378:C:/Users/stapi/OneDrive/Desktop/GD32VW553/V1_MQTT_OK/GD32VW55X_Wifi_BLE_SDK/GD32VW55x_RELEASE_V1.0.2/MSDK/lwip/lwip-2.1.2/src/core/ipv4\igmp.c ****           IGMP_STATS_INC(igmp.rx_general);
 379:C:/Users/stapi/OneDrive/Desktop/GD32VW553/V1_MQTT_OK/GD32VW55X_Wifi_BLE_SDK/GD32VW55x_RELEASE_V1.0.2/MSDK/lwip/lwip-2.1.2/src/core/ipv4\igmp.c ****         }
 380:C:/Users/stapi/OneDrive/Desktop/GD32VW553/V1_MQTT_OK/GD32VW55X_Wifi_BLE_SDK/GD32VW55x_RELEASE_V1.0.2/MSDK/lwip/lwip-2.1.2/src/core/ipv4\igmp.c **** 
 381:C:/Users/stapi/OneDrive/Desktop/GD32VW553/V1_MQTT_OK/GD32VW55X_Wifi_BLE_SDK/GD32VW55x_RELEASE_V1.0.2/MSDK/lwip/lwip-2.1.2/src/core/ipv4\igmp.c ****         groupref = netif_igmp_data(inp);
 382:C:/Users/stapi/OneDrive/Desktop/GD32VW553/V1_MQTT_OK/GD32VW55X_Wifi_BLE_SDK/GD32VW55x_RELEASE_V1.0.2/MSDK/lwip/lwip-2.1.2/src/core/ipv4\igmp.c **** 
 383:C:/Users/stapi/OneDrive/Desktop/GD32VW553/V1_MQTT_OK/GD32VW55X_Wifi_BLE_SDK/GD32VW55x_RELEASE_V1.0.2/MSDK/lwip/lwip-2.1.2/src/core/ipv4\igmp.c ****         /* Do not send messages on the all systems group address! */
 384:C:/Users/stapi/OneDrive/Desktop/GD32VW553/V1_MQTT_OK/GD32VW55X_Wifi_BLE_SDK/GD32VW55x_RELEASE_V1.0.2/MSDK/lwip/lwip-2.1.2/src/core/ipv4\igmp.c ****         /* Skip the first group in the list, it is always the allsystems group added in igmp_start(
 385:C:/Users/stapi/OneDrive/Desktop/GD32VW553/V1_MQTT_OK/GD32VW55X_Wifi_BLE_SDK/GD32VW55x_RELEASE_V1.0.2/MSDK/lwip/lwip-2.1.2/src/core/ipv4\igmp.c ****         if (groupref != NULL) {
 386:C:/Users/stapi/OneDrive/Desktop/GD32VW553/V1_MQTT_OK/GD32VW55X_Wifi_BLE_SDK/GD32VW55x_RELEASE_V1.0.2/MSDK/lwip/lwip-2.1.2/src/core/ipv4\igmp.c ****           groupref = groupref->next;
 387:C:/Users/stapi/OneDrive/Desktop/GD32VW553/V1_MQTT_OK/GD32VW55X_Wifi_BLE_SDK/GD32VW55x_RELEASE_V1.0.2/MSDK/lwip/lwip-2.1.2/src/core/ipv4\igmp.c ****         }
 388:C:/Users/stapi/OneDrive/Desktop/GD32VW553/V1_MQTT_OK/GD32VW55X_Wifi_BLE_SDK/GD32VW55x_RELEASE_V1.0.2/MSDK/lwip/lwip-2.1.2/src/core/ipv4\igmp.c **** 
 389:C:/Users/stapi/OneDrive/Desktop/GD32VW553/V1_MQTT_OK/GD32VW55X_Wifi_BLE_SDK/GD32VW55x_RELEASE_V1.0.2/MSDK/lwip/lwip-2.1.2/src/core/ipv4\igmp.c ****         while (groupref) {
 390:C:/Users/stapi/OneDrive/Desktop/GD32VW553/V1_MQTT_OK/GD32VW55X_Wifi_BLE_SDK/GD32VW55x_RELEASE_V1.0.2/MSDK/lwip/lwip-2.1.2/src/core/ipv4\igmp.c ****           igmp_delaying_member(groupref, igmp->igmp_maxresp);
 391:C:/Users/stapi/OneDrive/Desktop/GD32VW553/V1_MQTT_OK/GD32VW55X_Wifi_BLE_SDK/GD32VW55x_RELEASE_V1.0.2/MSDK/lwip/lwip-2.1.2/src/core/ipv4\igmp.c ****           groupref = groupref->next;
 392:C:/Users/stapi/OneDrive/Desktop/GD32VW553/V1_MQTT_OK/GD32VW55X_Wifi_BLE_SDK/GD32VW55x_RELEASE_V1.0.2/MSDK/lwip/lwip-2.1.2/src/core/ipv4\igmp.c ****         }
 393:C:/Users/stapi/OneDrive/Desktop/GD32VW553/V1_MQTT_OK/GD32VW55X_Wifi_BLE_SDK/GD32VW55x_RELEASE_V1.0.2/MSDK/lwip/lwip-2.1.2/src/core/ipv4\igmp.c ****       } else {
 394:C:/Users/stapi/OneDrive/Desktop/GD32VW553/V1_MQTT_OK/GD32VW55X_Wifi_BLE_SDK/GD32VW55x_RELEASE_V1.0.2/MSDK/lwip/lwip-2.1.2/src/core/ipv4\igmp.c ****         /* IGMP_MEMB_QUERY to a specific group ? */
 395:C:/Users/stapi/OneDrive/Desktop/GD32VW553/V1_MQTT_OK/GD32VW55X_Wifi_BLE_SDK/GD32VW55x_RELEASE_V1.0.2/MSDK/lwip/lwip-2.1.2/src/core/ipv4\igmp.c ****         if (!ip4_addr_isany(&igmp->igmp_group_address)) {
 396:C:/Users/stapi/OneDrive/Desktop/GD32VW553/V1_MQTT_OK/GD32VW55X_Wifi_BLE_SDK/GD32VW55x_RELEASE_V1.0.2/MSDK/lwip/lwip-2.1.2/src/core/ipv4\igmp.c ****           LWIP_DEBUGF(IGMP_DEBUG, ("igmp_input: IGMP_MEMB_QUERY to a specific group "));
 397:C:/Users/stapi/OneDrive/Desktop/GD32VW553/V1_MQTT_OK/GD32VW55X_Wifi_BLE_SDK/GD32VW55x_RELEASE_V1.0.2/MSDK/lwip/lwip-2.1.2/src/core/ipv4\igmp.c ****           ip4_addr_debug_print_val(IGMP_DEBUG, igmp->igmp_group_address);
 398:C:/Users/stapi/OneDrive/Desktop/GD32VW553/V1_MQTT_OK/GD32VW55X_Wifi_BLE_SDK/GD32VW55x_RELEASE_V1.0.2/MSDK/lwip/lwip-2.1.2/src/core/ipv4\igmp.c ****           if (ip4_addr_cmp(dest, &allsystems)) {
 399:C:/Users/stapi/OneDrive/Desktop/GD32VW553/V1_MQTT_OK/GD32VW55X_Wifi_BLE_SDK/GD32VW55x_RELEASE_V1.0.2/MSDK/lwip/lwip-2.1.2/src/core/ipv4\igmp.c ****             ip4_addr_t groupaddr;
 400:C:/Users/stapi/OneDrive/Desktop/GD32VW553/V1_MQTT_OK/GD32VW55X_Wifi_BLE_SDK/GD32VW55x_RELEASE_V1.0.2/MSDK/lwip/lwip-2.1.2/src/core/ipv4\igmp.c ****             LWIP_DEBUGF(IGMP_DEBUG, (" using \"ALL SYSTEMS\" address (224.0.0.1) [igmp_maxresp=%i]\
 401:C:/Users/stapi/OneDrive/Desktop/GD32VW553/V1_MQTT_OK/GD32VW55X_Wifi_BLE_SDK/GD32VW55x_RELEASE_V1.0.2/MSDK/lwip/lwip-2.1.2/src/core/ipv4\igmp.c ****             /* we first need to re-look for the group since we used dest last time */
 402:C:/Users/stapi/OneDrive/Desktop/GD32VW553/V1_MQTT_OK/GD32VW55X_Wifi_BLE_SDK/GD32VW55x_RELEASE_V1.0.2/MSDK/lwip/lwip-2.1.2/src/core/ipv4\igmp.c ****             ip4_addr_copy(groupaddr, igmp->igmp_group_address);
 403:C:/Users/stapi/OneDrive/Desktop/GD32VW553/V1_MQTT_OK/GD32VW55X_Wifi_BLE_SDK/GD32VW55x_RELEASE_V1.0.2/MSDK/lwip/lwip-2.1.2/src/core/ipv4\igmp.c ****             group = igmp_lookfor_group(inp, &groupaddr);
 404:C:/Users/stapi/OneDrive/Desktop/GD32VW553/V1_MQTT_OK/GD32VW55X_Wifi_BLE_SDK/GD32VW55x_RELEASE_V1.0.2/MSDK/lwip/lwip-2.1.2/src/core/ipv4\igmp.c ****           } else {
 405:C:/Users/stapi/OneDrive/Desktop/GD32VW553/V1_MQTT_OK/GD32VW55X_Wifi_BLE_SDK/GD32VW55x_RELEASE_V1.0.2/MSDK/lwip/lwip-2.1.2/src/core/ipv4\igmp.c ****             LWIP_DEBUGF(IGMP_DEBUG, (" with the group address as destination [igmp_maxresp=%i]\n", 
 406:C:/Users/stapi/OneDrive/Desktop/GD32VW553/V1_MQTT_OK/GD32VW55X_Wifi_BLE_SDK/GD32VW55x_RELEASE_V1.0.2/MSDK/lwip/lwip-2.1.2/src/core/ipv4\igmp.c ****           }
 407:C:/Users/stapi/OneDrive/Desktop/GD32VW553/V1_MQTT_OK/GD32VW55X_Wifi_BLE_SDK/GD32VW55x_RELEASE_V1.0.2/MSDK/lwip/lwip-2.1.2/src/core/ipv4\igmp.c **** 
 408:C:/Users/stapi/OneDrive/Desktop/GD32VW553/V1_MQTT_OK/GD32VW55X_Wifi_BLE_SDK/GD32VW55x_RELEASE_V1.0.2/MSDK/lwip/lwip-2.1.2/src/core/ipv4\igmp.c ****           if (group != NULL) {
 409:C:/Users/stapi/OneDrive/Desktop/GD32VW553/V1_MQTT_OK/GD32VW55X_Wifi_BLE_SDK/GD32VW55x_RELEASE_V1.0.2/MSDK/lwip/lwip-2.1.2/src/core/ipv4\igmp.c ****             IGMP_STATS_INC(igmp.rx_group);
 410:C:/Users/stapi/OneDrive/Desktop/GD32VW553/V1_MQTT_OK/GD32VW55X_Wifi_BLE_SDK/GD32VW55x_RELEASE_V1.0.2/MSDK/lwip/lwip-2.1.2/src/core/ipv4\igmp.c ****             igmp_delaying_member(group, igmp->igmp_maxresp);
 411:C:/Users/stapi/OneDrive/Desktop/GD32VW553/V1_MQTT_OK/GD32VW55X_Wifi_BLE_SDK/GD32VW55x_RELEASE_V1.0.2/MSDK/lwip/lwip-2.1.2/src/core/ipv4\igmp.c ****           } else {
 412:C:/Users/stapi/OneDrive/Desktop/GD32VW553/V1_MQTT_OK/GD32VW55X_Wifi_BLE_SDK/GD32VW55x_RELEASE_V1.0.2/MSDK/lwip/lwip-2.1.2/src/core/ipv4\igmp.c ****             IGMP_STATS_INC(igmp.drop);
 413:C:/Users/stapi/OneDrive/Desktop/GD32VW553/V1_MQTT_OK/GD32VW55X_Wifi_BLE_SDK/GD32VW55x_RELEASE_V1.0.2/MSDK/lwip/lwip-2.1.2/src/core/ipv4\igmp.c ****           }
 414:C:/Users/stapi/OneDrive/Desktop/GD32VW553/V1_MQTT_OK/GD32VW55X_Wifi_BLE_SDK/GD32VW55x_RELEASE_V1.0.2/MSDK/lwip/lwip-2.1.2/src/core/ipv4\igmp.c ****         } else {
 415:C:/Users/stapi/OneDrive/Desktop/GD32VW553/V1_MQTT_OK/GD32VW55X_Wifi_BLE_SDK/GD32VW55x_RELEASE_V1.0.2/MSDK/lwip/lwip-2.1.2/src/core/ipv4\igmp.c ****           IGMP_STATS_INC(igmp.proterr);
 416:C:/Users/stapi/OneDrive/Desktop/GD32VW553/V1_MQTT_OK/GD32VW55X_Wifi_BLE_SDK/GD32VW55x_RELEASE_V1.0.2/MSDK/lwip/lwip-2.1.2/src/core/ipv4\igmp.c ****         }
 417:C:/Users/stapi/OneDrive/Desktop/GD32VW553/V1_MQTT_OK/GD32VW55X_Wifi_BLE_SDK/GD32VW55x_RELEASE_V1.0.2/MSDK/lwip/lwip-2.1.2/src/core/ipv4\igmp.c ****       }
 418:C:/Users/stapi/OneDrive/Desktop/GD32VW553/V1_MQTT_OK/GD32VW55X_Wifi_BLE_SDK/GD32VW55x_RELEASE_V1.0.2/MSDK/lwip/lwip-2.1.2/src/core/ipv4\igmp.c ****       break;
 419:C:/Users/stapi/OneDrive/Desktop/GD32VW553/V1_MQTT_OK/GD32VW55X_Wifi_BLE_SDK/GD32VW55x_RELEASE_V1.0.2/MSDK/lwip/lwip-2.1.2/src/core/ipv4\igmp.c ****     case IGMP_V2_MEMB_REPORT:
 420:C:/Users/stapi/OneDrive/Desktop/GD32VW553/V1_MQTT_OK/GD32VW55X_Wifi_BLE_SDK/GD32VW55x_RELEASE_V1.0.2/MSDK/lwip/lwip-2.1.2/src/core/ipv4\igmp.c ****       LWIP_DEBUGF(IGMP_DEBUG, ("igmp_input: IGMP_V2_MEMB_REPORT\n"));
 421:C:/Users/stapi/OneDrive/Desktop/GD32VW553/V1_MQTT_OK/GD32VW55X_Wifi_BLE_SDK/GD32VW55x_RELEASE_V1.0.2/MSDK/lwip/lwip-2.1.2/src/core/ipv4\igmp.c ****       IGMP_STATS_INC(igmp.rx_report);
 422:C:/Users/stapi/OneDrive/Desktop/GD32VW553/V1_MQTT_OK/GD32VW55X_Wifi_BLE_SDK/GD32VW55x_RELEASE_V1.0.2/MSDK/lwip/lwip-2.1.2/src/core/ipv4\igmp.c ****       if (group->group_state == IGMP_GROUP_DELAYING_MEMBER) {
 423:C:/Users/stapi/OneDrive/Desktop/GD32VW553/V1_MQTT_OK/GD32VW55X_Wifi_BLE_SDK/GD32VW55x_RELEASE_V1.0.2/MSDK/lwip/lwip-2.1.2/src/core/ipv4\igmp.c ****         /* This is on a specific group we have already looked up */
 424:C:/Users/stapi/OneDrive/Desktop/GD32VW553/V1_MQTT_OK/GD32VW55X_Wifi_BLE_SDK/GD32VW55x_RELEASE_V1.0.2/MSDK/lwip/lwip-2.1.2/src/core/ipv4\igmp.c ****         group->timer = 0; /* stopped */
 425:C:/Users/stapi/OneDrive/Desktop/GD32VW553/V1_MQTT_OK/GD32VW55X_Wifi_BLE_SDK/GD32VW55x_RELEASE_V1.0.2/MSDK/lwip/lwip-2.1.2/src/core/ipv4\igmp.c ****         group->group_state = IGMP_GROUP_IDLE_MEMBER;
 426:C:/Users/stapi/OneDrive/Desktop/GD32VW553/V1_MQTT_OK/GD32VW55X_Wifi_BLE_SDK/GD32VW55x_RELEASE_V1.0.2/MSDK/lwip/lwip-2.1.2/src/core/ipv4\igmp.c ****         group->last_reporter_flag = 0;
 427:C:/Users/stapi/OneDrive/Desktop/GD32VW553/V1_MQTT_OK/GD32VW55X_Wifi_BLE_SDK/GD32VW55x_RELEASE_V1.0.2/MSDK/lwip/lwip-2.1.2/src/core/ipv4\igmp.c ****       }
 428:C:/Users/stapi/OneDrive/Desktop/GD32VW553/V1_MQTT_OK/GD32VW55X_Wifi_BLE_SDK/GD32VW55x_RELEASE_V1.0.2/MSDK/lwip/lwip-2.1.2/src/core/ipv4\igmp.c ****       break;
 429:C:/Users/stapi/OneDrive/Desktop/GD32VW553/V1_MQTT_OK/GD32VW55X_Wifi_BLE_SDK/GD32VW55x_RELEASE_V1.0.2/MSDK/lwip/lwip-2.1.2/src/core/ipv4\igmp.c ****     default:
 430:C:/Users/stapi/OneDrive/Desktop/GD32VW553/V1_MQTT_OK/GD32VW55X_Wifi_BLE_SDK/GD32VW55x_RELEASE_V1.0.2/MSDK/lwip/lwip-2.1.2/src/core/ipv4\igmp.c ****       LWIP_DEBUGF(IGMP_DEBUG, ("igmp_input: unexpected msg %d in state %d on group %p on if %p\n",
 431:C:/Users/stapi/OneDrive/Desktop/GD32VW553/V1_MQTT_OK/GD32VW55X_Wifi_BLE_SDK/GD32VW55x_RELEASE_V1.0.2/MSDK/lwip/lwip-2.1.2/src/core/ipv4\igmp.c ****                                igmp->igmp_msgtype, group->group_state, (void *)&group, (void *)inp)
 432:C:/Users/stapi/OneDrive/Desktop/GD32VW553/V1_MQTT_OK/GD32VW55X_Wifi_BLE_SDK/GD32VW55x_RELEASE_V1.0.2/MSDK/lwip/lwip-2.1.2/src/core/ipv4\igmp.c ****       IGMP_STATS_INC(igmp.proterr);
 433:C:/Users/stapi/OneDrive/Desktop/GD32VW553/V1_MQTT_OK/GD32VW55X_Wifi_BLE_SDK/GD32VW55x_RELEASE_V1.0.2/MSDK/lwip/lwip-2.1.2/src/core/ipv4\igmp.c ****       break;
 434:C:/Users/stapi/OneDrive/Desktop/GD32VW553/V1_MQTT_OK/GD32VW55X_Wifi_BLE_SDK/GD32VW55x_RELEASE_V1.0.2/MSDK/lwip/lwip-2.1.2/src/core/ipv4\igmp.c ****   }
 435:C:/Users/stapi/OneDrive/Desktop/GD32VW553/V1_MQTT_OK/GD32VW55X_Wifi_BLE_SDK/GD32VW55x_RELEASE_V1.0.2/MSDK/lwip/lwip-2.1.2/src/core/ipv4\igmp.c **** 
 436:C:/Users/stapi/OneDrive/Desktop/GD32VW553/V1_MQTT_OK/GD32VW55X_Wifi_BLE_SDK/GD32VW55x_RELEASE_V1.0.2/MSDK/lwip/lwip-2.1.2/src/core/ipv4\igmp.c ****   pbuf_free(p);
 437:C:/Users/stapi/OneDrive/Desktop/GD32VW553/V1_MQTT_OK/GD32VW55X_Wifi_BLE_SDK/GD32VW55x_RELEASE_V1.0.2/MSDK/lwip/lwip-2.1.2/src/core/ipv4\igmp.c ****   return;
 438:C:/Users/stapi/OneDrive/Desktop/GD32VW553/V1_MQTT_OK/GD32VW55X_Wifi_BLE_SDK/GD32VW55x_RELEASE_V1.0.2/MSDK/lwip/lwip-2.1.2/src/core/ipv4\igmp.c **** }
 439:C:/Users/stapi/OneDrive/Desktop/GD32VW553/V1_MQTT_OK/GD32VW55X_Wifi_BLE_SDK/GD32VW55x_RELEASE_V1.0.2/MSDK/lwip/lwip-2.1.2/src/core/ipv4\igmp.c **** 
 440:C:/Users/stapi/OneDrive/Desktop/GD32VW553/V1_MQTT_OK/GD32VW55X_Wifi_BLE_SDK/GD32VW55x_RELEASE_V1.0.2/MSDK/lwip/lwip-2.1.2/src/core/ipv4\igmp.c **** /**
 441:C:/Users/stapi/OneDrive/Desktop/GD32VW553/V1_MQTT_OK/GD32VW55X_Wifi_BLE_SDK/GD32VW55x_RELEASE_V1.0.2/MSDK/lwip/lwip-2.1.2/src/core/ipv4\igmp.c ****  * @ingroup igmp
 442:C:/Users/stapi/OneDrive/Desktop/GD32VW553/V1_MQTT_OK/GD32VW55X_Wifi_BLE_SDK/GD32VW55x_RELEASE_V1.0.2/MSDK/lwip/lwip-2.1.2/src/core/ipv4\igmp.c ****  * Join a group on one network interface.
 443:C:/Users/stapi/OneDrive/Desktop/GD32VW553/V1_MQTT_OK/GD32VW55X_Wifi_BLE_SDK/GD32VW55x_RELEASE_V1.0.2/MSDK/lwip/lwip-2.1.2/src/core/ipv4\igmp.c ****  *
 444:C:/Users/stapi/OneDrive/Desktop/GD32VW553/V1_MQTT_OK/GD32VW55X_Wifi_BLE_SDK/GD32VW55x_RELEASE_V1.0.2/MSDK/lwip/lwip-2.1.2/src/core/ipv4\igmp.c ****  * @param ifaddr ip address of the network interface which should join a new group
 445:C:/Users/stapi/OneDrive/Desktop/GD32VW553/V1_MQTT_OK/GD32VW55X_Wifi_BLE_SDK/GD32VW55x_RELEASE_V1.0.2/MSDK/lwip/lwip-2.1.2/src/core/ipv4\igmp.c ****  * @param groupaddr the ip address of the group which to join
 446:C:/Users/stapi/OneDrive/Desktop/GD32VW553/V1_MQTT_OK/GD32VW55X_Wifi_BLE_SDK/GD32VW55x_RELEASE_V1.0.2/MSDK/lwip/lwip-2.1.2/src/core/ipv4\igmp.c ****  * @return ERR_OK if group was joined on the netif(s), an err_t otherwise
 447:C:/Users/stapi/OneDrive/Desktop/GD32VW553/V1_MQTT_OK/GD32VW55X_Wifi_BLE_SDK/GD32VW55x_RELEASE_V1.0.2/MSDK/lwip/lwip-2.1.2/src/core/ipv4\igmp.c ****  */
 448:C:/Users/stapi/OneDrive/Desktop/GD32VW553/V1_MQTT_OK/GD32VW55X_Wifi_BLE_SDK/GD32VW55x_RELEASE_V1.0.2/MSDK/lwip/lwip-2.1.2/src/core/ipv4\igmp.c **** err_t
 449:C:/Users/stapi/OneDrive/Desktop/GD32VW553/V1_MQTT_OK/GD32VW55X_Wifi_BLE_SDK/GD32VW55x_RELEASE_V1.0.2/MSDK/lwip/lwip-2.1.2/src/core/ipv4\igmp.c **** igmp_joingroup(const ip4_addr_t *ifaddr, const ip4_addr_t *groupaddr)
 450:C:/Users/stapi/OneDrive/Desktop/GD32VW553/V1_MQTT_OK/GD32VW55X_Wifi_BLE_SDK/GD32VW55x_RELEASE_V1.0.2/MSDK/lwip/lwip-2.1.2/src/core/ipv4\igmp.c **** {
 451:C:/Users/stapi/OneDrive/Desktop/GD32VW553/V1_MQTT_OK/GD32VW55X_Wifi_BLE_SDK/GD32VW55x_RELEASE_V1.0.2/MSDK/lwip/lwip-2.1.2/src/core/ipv4\igmp.c ****   err_t err = ERR_VAL; /* no matching interface */
 452:C:/Users/stapi/OneDrive/Desktop/GD32VW553/V1_MQTT_OK/GD32VW55X_Wifi_BLE_SDK/GD32VW55x_RELEASE_V1.0.2/MSDK/lwip/lwip-2.1.2/src/core/ipv4\igmp.c ****   struct netif *netif;
 453:C:/Users/stapi/OneDrive/Desktop/GD32VW553/V1_MQTT_OK/GD32VW55X_Wifi_BLE_SDK/GD32VW55x_RELEASE_V1.0.2/MSDK/lwip/lwip-2.1.2/src/core/ipv4\igmp.c **** 
 454:C:/Users/stapi/OneDrive/Desktop/GD32VW553/V1_MQTT_OK/GD32VW55X_Wifi_BLE_SDK/GD32VW55x_RELEASE_V1.0.2/MSDK/lwip/lwip-2.1.2/src/core/ipv4\igmp.c ****   LWIP_ASSERT_CORE_LOCKED();
 455:C:/Users/stapi/OneDrive/Desktop/GD32VW553/V1_MQTT_OK/GD32VW55X_Wifi_BLE_SDK/GD32VW55x_RELEASE_V1.0.2/MSDK/lwip/lwip-2.1.2/src/core/ipv4\igmp.c **** 
 456:C:/Users/stapi/OneDrive/Desktop/GD32VW553/V1_MQTT_OK/GD32VW55X_Wifi_BLE_SDK/GD32VW55x_RELEASE_V1.0.2/MSDK/lwip/lwip-2.1.2/src/core/ipv4\igmp.c ****   /* make sure it is multicast address */
 457:C:/Users/stapi/OneDrive/Desktop/GD32VW553/V1_MQTT_OK/GD32VW55X_Wifi_BLE_SDK/GD32VW55x_RELEASE_V1.0.2/MSDK/lwip/lwip-2.1.2/src/core/ipv4\igmp.c ****   LWIP_ERROR("igmp_joingroup: attempt to join non-multicast address", ip4_addr_ismulticast(groupadd
 458:C:/Users/stapi/OneDrive/Desktop/GD32VW553/V1_MQTT_OK/GD32VW55X_Wifi_BLE_SDK/GD32VW55x_RELEASE_V1.0.2/MSDK/lwip/lwip-2.1.2/src/core/ipv4\igmp.c ****   LWIP_ERROR("igmp_joingroup: attempt to join allsystems address", (!ip4_addr_cmp(groupaddr, &allsy
 459:C:/Users/stapi/OneDrive/Desktop/GD32VW553/V1_MQTT_OK/GD32VW55X_Wifi_BLE_SDK/GD32VW55x_RELEASE_V1.0.2/MSDK/lwip/lwip-2.1.2/src/core/ipv4\igmp.c **** 
 460:C:/Users/stapi/OneDrive/Desktop/GD32VW553/V1_MQTT_OK/GD32VW55X_Wifi_BLE_SDK/GD32VW55x_RELEASE_V1.0.2/MSDK/lwip/lwip-2.1.2/src/core/ipv4\igmp.c ****   /* loop through netif's */
 461:C:/Users/stapi/OneDrive/Desktop/GD32VW553/V1_MQTT_OK/GD32VW55X_Wifi_BLE_SDK/GD32VW55x_RELEASE_V1.0.2/MSDK/lwip/lwip-2.1.2/src/core/ipv4\igmp.c ****   NETIF_FOREACH(netif) {
 462:C:/Users/stapi/OneDrive/Desktop/GD32VW553/V1_MQTT_OK/GD32VW55X_Wifi_BLE_SDK/GD32VW55x_RELEASE_V1.0.2/MSDK/lwip/lwip-2.1.2/src/core/ipv4\igmp.c ****     /* Should we join this interface ? */
 463:C:/Users/stapi/OneDrive/Desktop/GD32VW553/V1_MQTT_OK/GD32VW55X_Wifi_BLE_SDK/GD32VW55x_RELEASE_V1.0.2/MSDK/lwip/lwip-2.1.2/src/core/ipv4\igmp.c ****     if ((netif->flags & NETIF_FLAG_IGMP) && ((ip4_addr_isany(ifaddr) || ip4_addr_cmp(netif_ip4_addr
 464:C:/Users/stapi/OneDrive/Desktop/GD32VW553/V1_MQTT_OK/GD32VW55X_Wifi_BLE_SDK/GD32VW55x_RELEASE_V1.0.2/MSDK/lwip/lwip-2.1.2/src/core/ipv4\igmp.c ****       err = igmp_joingroup_netif(netif, groupaddr);
 465:C:/Users/stapi/OneDrive/Desktop/GD32VW553/V1_MQTT_OK/GD32VW55X_Wifi_BLE_SDK/GD32VW55x_RELEASE_V1.0.2/MSDK/lwip/lwip-2.1.2/src/core/ipv4\igmp.c ****       if (err != ERR_OK) {
 466:C:/Users/stapi/OneDrive/Desktop/GD32VW553/V1_MQTT_OK/GD32VW55X_Wifi_BLE_SDK/GD32VW55x_RELEASE_V1.0.2/MSDK/lwip/lwip-2.1.2/src/core/ipv4\igmp.c ****         /* Return an error even if some network interfaces are joined */
 467:C:/Users/stapi/OneDrive/Desktop/GD32VW553/V1_MQTT_OK/GD32VW55X_Wifi_BLE_SDK/GD32VW55x_RELEASE_V1.0.2/MSDK/lwip/lwip-2.1.2/src/core/ipv4\igmp.c ****         /** @todo undo any other netif already joined */
 468:C:/Users/stapi/OneDrive/Desktop/GD32VW553/V1_MQTT_OK/GD32VW55X_Wifi_BLE_SDK/GD32VW55x_RELEASE_V1.0.2/MSDK/lwip/lwip-2.1.2/src/core/ipv4\igmp.c ****         return err;
 469:C:/Users/stapi/OneDrive/Desktop/GD32VW553/V1_MQTT_OK/GD32VW55X_Wifi_BLE_SDK/GD32VW55x_RELEASE_V1.0.2/MSDK/lwip/lwip-2.1.2/src/core/ipv4\igmp.c ****       }
 470:C:/Users/stapi/OneDrive/Desktop/GD32VW553/V1_MQTT_OK/GD32VW55X_Wifi_BLE_SDK/GD32VW55x_RELEASE_V1.0.2/MSDK/lwip/lwip-2.1.2/src/core/ipv4\igmp.c ****     }
 471:C:/Users/stapi/OneDrive/Desktop/GD32VW553/V1_MQTT_OK/GD32VW55X_Wifi_BLE_SDK/GD32VW55x_RELEASE_V1.0.2/MSDK/lwip/lwip-2.1.2/src/core/ipv4\igmp.c ****   }
 472:C:/Users/stapi/OneDrive/Desktop/GD32VW553/V1_MQTT_OK/GD32VW55X_Wifi_BLE_SDK/GD32VW55x_RELEASE_V1.0.2/MSDK/lwip/lwip-2.1.2/src/core/ipv4\igmp.c **** 
 473:C:/Users/stapi/OneDrive/Desktop/GD32VW553/V1_MQTT_OK/GD32VW55X_Wifi_BLE_SDK/GD32VW55x_RELEASE_V1.0.2/MSDK/lwip/lwip-2.1.2/src/core/ipv4\igmp.c ****   return err;
 474:C:/Users/stapi/OneDrive/Desktop/GD32VW553/V1_MQTT_OK/GD32VW55X_Wifi_BLE_SDK/GD32VW55x_RELEASE_V1.0.2/MSDK/lwip/lwip-2.1.2/src/core/ipv4\igmp.c **** }
 475:C:/Users/stapi/OneDrive/Desktop/GD32VW553/V1_MQTT_OK/GD32VW55X_Wifi_BLE_SDK/GD32VW55x_RELEASE_V1.0.2/MSDK/lwip/lwip-2.1.2/src/core/ipv4\igmp.c **** 
 476:C:/Users/stapi/OneDrive/Desktop/GD32VW553/V1_MQTT_OK/GD32VW55X_Wifi_BLE_SDK/GD32VW55x_RELEASE_V1.0.2/MSDK/lwip/lwip-2.1.2/src/core/ipv4\igmp.c **** /**
 477:C:/Users/stapi/OneDrive/Desktop/GD32VW553/V1_MQTT_OK/GD32VW55X_Wifi_BLE_SDK/GD32VW55x_RELEASE_V1.0.2/MSDK/lwip/lwip-2.1.2/src/core/ipv4\igmp.c ****  * @ingroup igmp
 478:C:/Users/stapi/OneDrive/Desktop/GD32VW553/V1_MQTT_OK/GD32VW55X_Wifi_BLE_SDK/GD32VW55x_RELEASE_V1.0.2/MSDK/lwip/lwip-2.1.2/src/core/ipv4\igmp.c ****  * Join a group on one network interface.
 479:C:/Users/stapi/OneDrive/Desktop/GD32VW553/V1_MQTT_OK/GD32VW55X_Wifi_BLE_SDK/GD32VW55x_RELEASE_V1.0.2/MSDK/lwip/lwip-2.1.2/src/core/ipv4\igmp.c ****  *
 480:C:/Users/stapi/OneDrive/Desktop/GD32VW553/V1_MQTT_OK/GD32VW55X_Wifi_BLE_SDK/GD32VW55x_RELEASE_V1.0.2/MSDK/lwip/lwip-2.1.2/src/core/ipv4\igmp.c ****  * @param netif the network interface which should join a new group
 481:C:/Users/stapi/OneDrive/Desktop/GD32VW553/V1_MQTT_OK/GD32VW55X_Wifi_BLE_SDK/GD32VW55x_RELEASE_V1.0.2/MSDK/lwip/lwip-2.1.2/src/core/ipv4\igmp.c ****  * @param groupaddr the ip address of the group which to join
 482:C:/Users/stapi/OneDrive/Desktop/GD32VW553/V1_MQTT_OK/GD32VW55X_Wifi_BLE_SDK/GD32VW55x_RELEASE_V1.0.2/MSDK/lwip/lwip-2.1.2/src/core/ipv4\igmp.c ****  * @return ERR_OK if group was joined on the netif, an err_t otherwise
 483:C:/Users/stapi/OneDrive/Desktop/GD32VW553/V1_MQTT_OK/GD32VW55X_Wifi_BLE_SDK/GD32VW55x_RELEASE_V1.0.2/MSDK/lwip/lwip-2.1.2/src/core/ipv4\igmp.c ****  */
 484:C:/Users/stapi/OneDrive/Desktop/GD32VW553/V1_MQTT_OK/GD32VW55X_Wifi_BLE_SDK/GD32VW55x_RELEASE_V1.0.2/MSDK/lwip/lwip-2.1.2/src/core/ipv4\igmp.c **** err_t
 485:C:/Users/stapi/OneDrive/Desktop/GD32VW553/V1_MQTT_OK/GD32VW55X_Wifi_BLE_SDK/GD32VW55x_RELEASE_V1.0.2/MSDK/lwip/lwip-2.1.2/src/core/ipv4\igmp.c **** igmp_joingroup_netif(struct netif *netif, const ip4_addr_t *groupaddr)
 486:C:/Users/stapi/OneDrive/Desktop/GD32VW553/V1_MQTT_OK/GD32VW55X_Wifi_BLE_SDK/GD32VW55x_RELEASE_V1.0.2/MSDK/lwip/lwip-2.1.2/src/core/ipv4\igmp.c **** {
 487:C:/Users/stapi/OneDrive/Desktop/GD32VW553/V1_MQTT_OK/GD32VW55X_Wifi_BLE_SDK/GD32VW55x_RELEASE_V1.0.2/MSDK/lwip/lwip-2.1.2/src/core/ipv4\igmp.c ****   struct igmp_group *group;
 488:C:/Users/stapi/OneDrive/Desktop/GD32VW553/V1_MQTT_OK/GD32VW55X_Wifi_BLE_SDK/GD32VW55x_RELEASE_V1.0.2/MSDK/lwip/lwip-2.1.2/src/core/ipv4\igmp.c **** 
 489:C:/Users/stapi/OneDrive/Desktop/GD32VW553/V1_MQTT_OK/GD32VW55X_Wifi_BLE_SDK/GD32VW55x_RELEASE_V1.0.2/MSDK/lwip/lwip-2.1.2/src/core/ipv4\igmp.c ****   LWIP_ASSERT_CORE_LOCKED();
 490:C:/Users/stapi/OneDrive/Desktop/GD32VW553/V1_MQTT_OK/GD32VW55X_Wifi_BLE_SDK/GD32VW55x_RELEASE_V1.0.2/MSDK/lwip/lwip-2.1.2/src/core/ipv4\igmp.c **** 
 491:C:/Users/stapi/OneDrive/Desktop/GD32VW553/V1_MQTT_OK/GD32VW55X_Wifi_BLE_SDK/GD32VW55x_RELEASE_V1.0.2/MSDK/lwip/lwip-2.1.2/src/core/ipv4\igmp.c ****   /* make sure it is multicast address */
 492:C:/Users/stapi/OneDrive/Desktop/GD32VW553/V1_MQTT_OK/GD32VW55X_Wifi_BLE_SDK/GD32VW55x_RELEASE_V1.0.2/MSDK/lwip/lwip-2.1.2/src/core/ipv4\igmp.c ****   LWIP_ERROR("igmp_joingroup_netif: attempt to join non-multicast address", ip4_addr_ismulticast(gr
 493:C:/Users/stapi/OneDrive/Desktop/GD32VW553/V1_MQTT_OK/GD32VW55X_Wifi_BLE_SDK/GD32VW55x_RELEASE_V1.0.2/MSDK/lwip/lwip-2.1.2/src/core/ipv4\igmp.c ****   LWIP_ERROR("igmp_joingroup_netif: attempt to join allsystems address", (!ip4_addr_cmp(groupaddr, 
 494:C:/Users/stapi/OneDrive/Desktop/GD32VW553/V1_MQTT_OK/GD32VW55X_Wifi_BLE_SDK/GD32VW55x_RELEASE_V1.0.2/MSDK/lwip/lwip-2.1.2/src/core/ipv4\igmp.c **** 
 495:C:/Users/stapi/OneDrive/Desktop/GD32VW553/V1_MQTT_OK/GD32VW55X_Wifi_BLE_SDK/GD32VW55x_RELEASE_V1.0.2/MSDK/lwip/lwip-2.1.2/src/core/ipv4\igmp.c ****   /* make sure it is an igmp-enabled netif */
 496:C:/Users/stapi/OneDrive/Desktop/GD32VW553/V1_MQTT_OK/GD32VW55X_Wifi_BLE_SDK/GD32VW55x_RELEASE_V1.0.2/MSDK/lwip/lwip-2.1.2/src/core/ipv4\igmp.c ****   LWIP_ERROR("igmp_joingroup_netif: attempt to join on non-IGMP netif", netif->flags & NETIF_FLAG_I
 497:C:/Users/stapi/OneDrive/Desktop/GD32VW553/V1_MQTT_OK/GD32VW55X_Wifi_BLE_SDK/GD32VW55x_RELEASE_V1.0.2/MSDK/lwip/lwip-2.1.2/src/core/ipv4\igmp.c **** 
 498:C:/Users/stapi/OneDrive/Desktop/GD32VW553/V1_MQTT_OK/GD32VW55X_Wifi_BLE_SDK/GD32VW55x_RELEASE_V1.0.2/MSDK/lwip/lwip-2.1.2/src/core/ipv4\igmp.c ****   /* find group or create a new one if not found */
 499:C:/Users/stapi/OneDrive/Desktop/GD32VW553/V1_MQTT_OK/GD32VW55X_Wifi_BLE_SDK/GD32VW55x_RELEASE_V1.0.2/MSDK/lwip/lwip-2.1.2/src/core/ipv4\igmp.c ****   group = igmp_lookup_group(netif, groupaddr);
 500:C:/Users/stapi/OneDrive/Desktop/GD32VW553/V1_MQTT_OK/GD32VW55X_Wifi_BLE_SDK/GD32VW55x_RELEASE_V1.0.2/MSDK/lwip/lwip-2.1.2/src/core/ipv4\igmp.c **** 
 501:C:/Users/stapi/OneDrive/Desktop/GD32VW553/V1_MQTT_OK/GD32VW55X_Wifi_BLE_SDK/GD32VW55x_RELEASE_V1.0.2/MSDK/lwip/lwip-2.1.2/src/core/ipv4\igmp.c ****   if (group != NULL) {
 502:C:/Users/stapi/OneDrive/Desktop/GD32VW553/V1_MQTT_OK/GD32VW55X_Wifi_BLE_SDK/GD32VW55x_RELEASE_V1.0.2/MSDK/lwip/lwip-2.1.2/src/core/ipv4\igmp.c ****     /* This should create a new group, check the state to make sure */
 503:C:/Users/stapi/OneDrive/Desktop/GD32VW553/V1_MQTT_OK/GD32VW55X_Wifi_BLE_SDK/GD32VW55x_RELEASE_V1.0.2/MSDK/lwip/lwip-2.1.2/src/core/ipv4\igmp.c ****     if (group->group_state != IGMP_GROUP_NON_MEMBER) {
 504:C:/Users/stapi/OneDrive/Desktop/GD32VW553/V1_MQTT_OK/GD32VW55X_Wifi_BLE_SDK/GD32VW55x_RELEASE_V1.0.2/MSDK/lwip/lwip-2.1.2/src/core/ipv4\igmp.c ****       LWIP_DEBUGF(IGMP_DEBUG, ("igmp_joingroup_netif: join to group not in state IGMP_GROUP_NON_MEM
 505:C:/Users/stapi/OneDrive/Desktop/GD32VW553/V1_MQTT_OK/GD32VW55X_Wifi_BLE_SDK/GD32VW55x_RELEASE_V1.0.2/MSDK/lwip/lwip-2.1.2/src/core/ipv4\igmp.c ****     } else {
 506:C:/Users/stapi/OneDrive/Desktop/GD32VW553/V1_MQTT_OK/GD32VW55X_Wifi_BLE_SDK/GD32VW55x_RELEASE_V1.0.2/MSDK/lwip/lwip-2.1.2/src/core/ipv4\igmp.c ****       /* OK - it was new group */
 507:C:/Users/stapi/OneDrive/Desktop/GD32VW553/V1_MQTT_OK/GD32VW55X_Wifi_BLE_SDK/GD32VW55x_RELEASE_V1.0.2/MSDK/lwip/lwip-2.1.2/src/core/ipv4\igmp.c ****       LWIP_DEBUGF(IGMP_DEBUG, ("igmp_joingroup_netif: join to new group: "));
 508:C:/Users/stapi/OneDrive/Desktop/GD32VW553/V1_MQTT_OK/GD32VW55X_Wifi_BLE_SDK/GD32VW55x_RELEASE_V1.0.2/MSDK/lwip/lwip-2.1.2/src/core/ipv4\igmp.c ****       ip4_addr_debug_print(IGMP_DEBUG, groupaddr);
 509:C:/Users/stapi/OneDrive/Desktop/GD32VW553/V1_MQTT_OK/GD32VW55X_Wifi_BLE_SDK/GD32VW55x_RELEASE_V1.0.2/MSDK/lwip/lwip-2.1.2/src/core/ipv4\igmp.c ****       LWIP_DEBUGF(IGMP_DEBUG, ("\n"));
 510:C:/Users/stapi/OneDrive/Desktop/GD32VW553/V1_MQTT_OK/GD32VW55X_Wifi_BLE_SDK/GD32VW55x_RELEASE_V1.0.2/MSDK/lwip/lwip-2.1.2/src/core/ipv4\igmp.c **** 
 511:C:/Users/stapi/OneDrive/Desktop/GD32VW553/V1_MQTT_OK/GD32VW55X_Wifi_BLE_SDK/GD32VW55x_RELEASE_V1.0.2/MSDK/lwip/lwip-2.1.2/src/core/ipv4\igmp.c ****       /* If first use of the group, allow the group at the MAC level */
 512:C:/Users/stapi/OneDrive/Desktop/GD32VW553/V1_MQTT_OK/GD32VW55X_Wifi_BLE_SDK/GD32VW55x_RELEASE_V1.0.2/MSDK/lwip/lwip-2.1.2/src/core/ipv4\igmp.c ****       if ((group->use == 0) && (netif->igmp_mac_filter != NULL)) {
 513:C:/Users/stapi/OneDrive/Desktop/GD32VW553/V1_MQTT_OK/GD32VW55X_Wifi_BLE_SDK/GD32VW55x_RELEASE_V1.0.2/MSDK/lwip/lwip-2.1.2/src/core/ipv4\igmp.c ****         LWIP_DEBUGF(IGMP_DEBUG, ("igmp_joingroup_netif: igmp_mac_filter(ADD "));
 514:C:/Users/stapi/OneDrive/Desktop/GD32VW553/V1_MQTT_OK/GD32VW55X_Wifi_BLE_SDK/GD32VW55x_RELEASE_V1.0.2/MSDK/lwip/lwip-2.1.2/src/core/ipv4\igmp.c ****         ip4_addr_debug_print(IGMP_DEBUG, groupaddr);
 515:C:/Users/stapi/OneDrive/Desktop/GD32VW553/V1_MQTT_OK/GD32VW55X_Wifi_BLE_SDK/GD32VW55x_RELEASE_V1.0.2/MSDK/lwip/lwip-2.1.2/src/core/ipv4\igmp.c ****         LWIP_DEBUGF(IGMP_DEBUG, (") on if %p\n", (void *)netif));
 516:C:/Users/stapi/OneDrive/Desktop/GD32VW553/V1_MQTT_OK/GD32VW55X_Wifi_BLE_SDK/GD32VW55x_RELEASE_V1.0.2/MSDK/lwip/lwip-2.1.2/src/core/ipv4\igmp.c ****         netif->igmp_mac_filter(netif, groupaddr, NETIF_ADD_MAC_FILTER);
 517:C:/Users/stapi/OneDrive/Desktop/GD32VW553/V1_MQTT_OK/GD32VW55X_Wifi_BLE_SDK/GD32VW55x_RELEASE_V1.0.2/MSDK/lwip/lwip-2.1.2/src/core/ipv4\igmp.c ****       }
 518:C:/Users/stapi/OneDrive/Desktop/GD32VW553/V1_MQTT_OK/GD32VW55X_Wifi_BLE_SDK/GD32VW55x_RELEASE_V1.0.2/MSDK/lwip/lwip-2.1.2/src/core/ipv4\igmp.c **** 
 519:C:/Users/stapi/OneDrive/Desktop/GD32VW553/V1_MQTT_OK/GD32VW55X_Wifi_BLE_SDK/GD32VW55x_RELEASE_V1.0.2/MSDK/lwip/lwip-2.1.2/src/core/ipv4\igmp.c ****       IGMP_STATS_INC(igmp.tx_join);
 520:C:/Users/stapi/OneDrive/Desktop/GD32VW553/V1_MQTT_OK/GD32VW55X_Wifi_BLE_SDK/GD32VW55x_RELEASE_V1.0.2/MSDK/lwip/lwip-2.1.2/src/core/ipv4\igmp.c ****       igmp_send(netif, group, IGMP_V2_MEMB_REPORT);
 521:C:/Users/stapi/OneDrive/Desktop/GD32VW553/V1_MQTT_OK/GD32VW55X_Wifi_BLE_SDK/GD32VW55x_RELEASE_V1.0.2/MSDK/lwip/lwip-2.1.2/src/core/ipv4\igmp.c **** 
 522:C:/Users/stapi/OneDrive/Desktop/GD32VW553/V1_MQTT_OK/GD32VW55X_Wifi_BLE_SDK/GD32VW55x_RELEASE_V1.0.2/MSDK/lwip/lwip-2.1.2/src/core/ipv4\igmp.c ****       igmp_start_timer(group, IGMP_JOIN_DELAYING_MEMBER_TMR);
 523:C:/Users/stapi/OneDrive/Desktop/GD32VW553/V1_MQTT_OK/GD32VW55X_Wifi_BLE_SDK/GD32VW55x_RELEASE_V1.0.2/MSDK/lwip/lwip-2.1.2/src/core/ipv4\igmp.c **** 
 524:C:/Users/stapi/OneDrive/Desktop/GD32VW553/V1_MQTT_OK/GD32VW55X_Wifi_BLE_SDK/GD32VW55x_RELEASE_V1.0.2/MSDK/lwip/lwip-2.1.2/src/core/ipv4\igmp.c ****       /* Need to work out where this timer comes from */
 525:C:/Users/stapi/OneDrive/Desktop/GD32VW553/V1_MQTT_OK/GD32VW55X_Wifi_BLE_SDK/GD32VW55x_RELEASE_V1.0.2/MSDK/lwip/lwip-2.1.2/src/core/ipv4\igmp.c ****       group->group_state = IGMP_GROUP_DELAYING_MEMBER;
 526:C:/Users/stapi/OneDrive/Desktop/GD32VW553/V1_MQTT_OK/GD32VW55X_Wifi_BLE_SDK/GD32VW55x_RELEASE_V1.0.2/MSDK/lwip/lwip-2.1.2/src/core/ipv4\igmp.c ****     }
 527:C:/Users/stapi/OneDrive/Desktop/GD32VW553/V1_MQTT_OK/GD32VW55X_Wifi_BLE_SDK/GD32VW55x_RELEASE_V1.0.2/MSDK/lwip/lwip-2.1.2/src/core/ipv4\igmp.c ****     /* Increment group use */
 528:C:/Users/stapi/OneDrive/Desktop/GD32VW553/V1_MQTT_OK/GD32VW55X_Wifi_BLE_SDK/GD32VW55x_RELEASE_V1.0.2/MSDK/lwip/lwip-2.1.2/src/core/ipv4\igmp.c ****     group->use++;
 529:C:/Users/stapi/OneDrive/Desktop/GD32VW553/V1_MQTT_OK/GD32VW55X_Wifi_BLE_SDK/GD32VW55x_RELEASE_V1.0.2/MSDK/lwip/lwip-2.1.2/src/core/ipv4\igmp.c ****     /* Join on this interface */
 530:C:/Users/stapi/OneDrive/Desktop/GD32VW553/V1_MQTT_OK/GD32VW55X_Wifi_BLE_SDK/GD32VW55x_RELEASE_V1.0.2/MSDK/lwip/lwip-2.1.2/src/core/ipv4\igmp.c ****     return ERR_OK;
 531:C:/Users/stapi/OneDrive/Desktop/GD32VW553/V1_MQTT_OK/GD32VW55X_Wifi_BLE_SDK/GD32VW55x_RELEASE_V1.0.2/MSDK/lwip/lwip-2.1.2/src/core/ipv4\igmp.c ****   } else {
 532:C:/Users/stapi/OneDrive/Desktop/GD32VW553/V1_MQTT_OK/GD32VW55X_Wifi_BLE_SDK/GD32VW55x_RELEASE_V1.0.2/MSDK/lwip/lwip-2.1.2/src/core/ipv4\igmp.c ****     LWIP_DEBUGF(IGMP_DEBUG, ("igmp_joingroup_netif: Not enough memory to join to group\n"));
 533:C:/Users/stapi/OneDrive/Desktop/GD32VW553/V1_MQTT_OK/GD32VW55X_Wifi_BLE_SDK/GD32VW55x_RELEASE_V1.0.2/MSDK/lwip/lwip-2.1.2/src/core/ipv4\igmp.c ****     return ERR_MEM;
 534:C:/Users/stapi/OneDrive/Desktop/GD32VW553/V1_MQTT_OK/GD32VW55X_Wifi_BLE_SDK/GD32VW55x_RELEASE_V1.0.2/MSDK/lwip/lwip-2.1.2/src/core/ipv4\igmp.c ****   }
 535:C:/Users/stapi/OneDrive/Desktop/GD32VW553/V1_MQTT_OK/GD32VW55X_Wifi_BLE_SDK/GD32VW55x_RELEASE_V1.0.2/MSDK/lwip/lwip-2.1.2/src/core/ipv4\igmp.c **** }
 536:C:/Users/stapi/OneDrive/Desktop/GD32VW553/V1_MQTT_OK/GD32VW55X_Wifi_BLE_SDK/GD32VW55x_RELEASE_V1.0.2/MSDK/lwip/lwip-2.1.2/src/core/ipv4\igmp.c **** 
 537:C:/Users/stapi/OneDrive/Desktop/GD32VW553/V1_MQTT_OK/GD32VW55X_Wifi_BLE_SDK/GD32VW55x_RELEASE_V1.0.2/MSDK/lwip/lwip-2.1.2/src/core/ipv4\igmp.c **** /**
 538:C:/Users/stapi/OneDrive/Desktop/GD32VW553/V1_MQTT_OK/GD32VW55X_Wifi_BLE_SDK/GD32VW55x_RELEASE_V1.0.2/MSDK/lwip/lwip-2.1.2/src/core/ipv4\igmp.c ****  * @ingroup igmp
 539:C:/Users/stapi/OneDrive/Desktop/GD32VW553/V1_MQTT_OK/GD32VW55X_Wifi_BLE_SDK/GD32VW55x_RELEASE_V1.0.2/MSDK/lwip/lwip-2.1.2/src/core/ipv4\igmp.c ****  * Leave a group on one network interface.
 540:C:/Users/stapi/OneDrive/Desktop/GD32VW553/V1_MQTT_OK/GD32VW55X_Wifi_BLE_SDK/GD32VW55x_RELEASE_V1.0.2/MSDK/lwip/lwip-2.1.2/src/core/ipv4\igmp.c ****  *
 541:C:/Users/stapi/OneDrive/Desktop/GD32VW553/V1_MQTT_OK/GD32VW55X_Wifi_BLE_SDK/GD32VW55x_RELEASE_V1.0.2/MSDK/lwip/lwip-2.1.2/src/core/ipv4\igmp.c ****  * @param ifaddr ip address of the network interface which should leave a group
 542:C:/Users/stapi/OneDrive/Desktop/GD32VW553/V1_MQTT_OK/GD32VW55X_Wifi_BLE_SDK/GD32VW55x_RELEASE_V1.0.2/MSDK/lwip/lwip-2.1.2/src/core/ipv4\igmp.c ****  * @param groupaddr the ip address of the group which to leave
 543:C:/Users/stapi/OneDrive/Desktop/GD32VW553/V1_MQTT_OK/GD32VW55X_Wifi_BLE_SDK/GD32VW55x_RELEASE_V1.0.2/MSDK/lwip/lwip-2.1.2/src/core/ipv4\igmp.c ****  * @return ERR_OK if group was left on the netif(s), an err_t otherwise
 544:C:/Users/stapi/OneDrive/Desktop/GD32VW553/V1_MQTT_OK/GD32VW55X_Wifi_BLE_SDK/GD32VW55x_RELEASE_V1.0.2/MSDK/lwip/lwip-2.1.2/src/core/ipv4\igmp.c ****  */
 545:C:/Users/stapi/OneDrive/Desktop/GD32VW553/V1_MQTT_OK/GD32VW55X_Wifi_BLE_SDK/GD32VW55x_RELEASE_V1.0.2/MSDK/lwip/lwip-2.1.2/src/core/ipv4\igmp.c **** err_t
 546:C:/Users/stapi/OneDrive/Desktop/GD32VW553/V1_MQTT_OK/GD32VW55X_Wifi_BLE_SDK/GD32VW55x_RELEASE_V1.0.2/MSDK/lwip/lwip-2.1.2/src/core/ipv4\igmp.c **** igmp_leavegroup(const ip4_addr_t *ifaddr, const ip4_addr_t *groupaddr)
 547:C:/Users/stapi/OneDrive/Desktop/GD32VW553/V1_MQTT_OK/GD32VW55X_Wifi_BLE_SDK/GD32VW55x_RELEASE_V1.0.2/MSDK/lwip/lwip-2.1.2/src/core/ipv4\igmp.c **** {
 548:C:/Users/stapi/OneDrive/Desktop/GD32VW553/V1_MQTT_OK/GD32VW55X_Wifi_BLE_SDK/GD32VW55x_RELEASE_V1.0.2/MSDK/lwip/lwip-2.1.2/src/core/ipv4\igmp.c ****   err_t err = ERR_VAL; /* no matching interface */
 549:C:/Users/stapi/OneDrive/Desktop/GD32VW553/V1_MQTT_OK/GD32VW55X_Wifi_BLE_SDK/GD32VW55x_RELEASE_V1.0.2/MSDK/lwip/lwip-2.1.2/src/core/ipv4\igmp.c ****   struct netif *netif;
 550:C:/Users/stapi/OneDrive/Desktop/GD32VW553/V1_MQTT_OK/GD32VW55X_Wifi_BLE_SDK/GD32VW55x_RELEASE_V1.0.2/MSDK/lwip/lwip-2.1.2/src/core/ipv4\igmp.c **** 
 551:C:/Users/stapi/OneDrive/Desktop/GD32VW553/V1_MQTT_OK/GD32VW55X_Wifi_BLE_SDK/GD32VW55x_RELEASE_V1.0.2/MSDK/lwip/lwip-2.1.2/src/core/ipv4\igmp.c ****   LWIP_ASSERT_CORE_LOCKED();
 552:C:/Users/stapi/OneDrive/Desktop/GD32VW553/V1_MQTT_OK/GD32VW55X_Wifi_BLE_SDK/GD32VW55x_RELEASE_V1.0.2/MSDK/lwip/lwip-2.1.2/src/core/ipv4\igmp.c **** 
 553:C:/Users/stapi/OneDrive/Desktop/GD32VW553/V1_MQTT_OK/GD32VW55X_Wifi_BLE_SDK/GD32VW55x_RELEASE_V1.0.2/MSDK/lwip/lwip-2.1.2/src/core/ipv4\igmp.c ****   /* make sure it is multicast address */
 554:C:/Users/stapi/OneDrive/Desktop/GD32VW553/V1_MQTT_OK/GD32VW55X_Wifi_BLE_SDK/GD32VW55x_RELEASE_V1.0.2/MSDK/lwip/lwip-2.1.2/src/core/ipv4\igmp.c ****   LWIP_ERROR("igmp_leavegroup: attempt to leave non-multicast address", ip4_addr_ismulticast(groupa
 555:C:/Users/stapi/OneDrive/Desktop/GD32VW553/V1_MQTT_OK/GD32VW55X_Wifi_BLE_SDK/GD32VW55x_RELEASE_V1.0.2/MSDK/lwip/lwip-2.1.2/src/core/ipv4\igmp.c ****   LWIP_ERROR("igmp_leavegroup: attempt to leave allsystems address", (!ip4_addr_cmp(groupaddr, &all
 556:C:/Users/stapi/OneDrive/Desktop/GD32VW553/V1_MQTT_OK/GD32VW55X_Wifi_BLE_SDK/GD32VW55x_RELEASE_V1.0.2/MSDK/lwip/lwip-2.1.2/src/core/ipv4\igmp.c **** 
 557:C:/Users/stapi/OneDrive/Desktop/GD32VW553/V1_MQTT_OK/GD32VW55X_Wifi_BLE_SDK/GD32VW55x_RELEASE_V1.0.2/MSDK/lwip/lwip-2.1.2/src/core/ipv4\igmp.c ****   /* loop through netif's */
 558:C:/Users/stapi/OneDrive/Desktop/GD32VW553/V1_MQTT_OK/GD32VW55X_Wifi_BLE_SDK/GD32VW55x_RELEASE_V1.0.2/MSDK/lwip/lwip-2.1.2/src/core/ipv4\igmp.c ****   NETIF_FOREACH(netif) {
 559:C:/Users/stapi/OneDrive/Desktop/GD32VW553/V1_MQTT_OK/GD32VW55X_Wifi_BLE_SDK/GD32VW55x_RELEASE_V1.0.2/MSDK/lwip/lwip-2.1.2/src/core/ipv4\igmp.c ****     /* Should we leave this interface ? */
 560:C:/Users/stapi/OneDrive/Desktop/GD32VW553/V1_MQTT_OK/GD32VW55X_Wifi_BLE_SDK/GD32VW55x_RELEASE_V1.0.2/MSDK/lwip/lwip-2.1.2/src/core/ipv4\igmp.c ****     if ((netif->flags & NETIF_FLAG_IGMP) && ((ip4_addr_isany(ifaddr) || ip4_addr_cmp(netif_ip4_addr
 561:C:/Users/stapi/OneDrive/Desktop/GD32VW553/V1_MQTT_OK/GD32VW55X_Wifi_BLE_SDK/GD32VW55x_RELEASE_V1.0.2/MSDK/lwip/lwip-2.1.2/src/core/ipv4\igmp.c ****       err_t res = igmp_leavegroup_netif(netif, groupaddr);
 562:C:/Users/stapi/OneDrive/Desktop/GD32VW553/V1_MQTT_OK/GD32VW55X_Wifi_BLE_SDK/GD32VW55x_RELEASE_V1.0.2/MSDK/lwip/lwip-2.1.2/src/core/ipv4\igmp.c ****       if (err != ERR_OK) {
 563:C:/Users/stapi/OneDrive/Desktop/GD32VW553/V1_MQTT_OK/GD32VW55X_Wifi_BLE_SDK/GD32VW55x_RELEASE_V1.0.2/MSDK/lwip/lwip-2.1.2/src/core/ipv4\igmp.c ****         /* Store this result if we have not yet gotten a success */
 564:C:/Users/stapi/OneDrive/Desktop/GD32VW553/V1_MQTT_OK/GD32VW55X_Wifi_BLE_SDK/GD32VW55x_RELEASE_V1.0.2/MSDK/lwip/lwip-2.1.2/src/core/ipv4\igmp.c ****         err = res;
 565:C:/Users/stapi/OneDrive/Desktop/GD32VW553/V1_MQTT_OK/GD32VW55X_Wifi_BLE_SDK/GD32VW55x_RELEASE_V1.0.2/MSDK/lwip/lwip-2.1.2/src/core/ipv4\igmp.c ****       }
 566:C:/Users/stapi/OneDrive/Desktop/GD32VW553/V1_MQTT_OK/GD32VW55X_Wifi_BLE_SDK/GD32VW55x_RELEASE_V1.0.2/MSDK/lwip/lwip-2.1.2/src/core/ipv4\igmp.c ****     }
 567:C:/Users/stapi/OneDrive/Desktop/GD32VW553/V1_MQTT_OK/GD32VW55X_Wifi_BLE_SDK/GD32VW55x_RELEASE_V1.0.2/MSDK/lwip/lwip-2.1.2/src/core/ipv4\igmp.c ****   }
 568:C:/Users/stapi/OneDrive/Desktop/GD32VW553/V1_MQTT_OK/GD32VW55X_Wifi_BLE_SDK/GD32VW55x_RELEASE_V1.0.2/MSDK/lwip/lwip-2.1.2/src/core/ipv4\igmp.c **** 
 569:C:/Users/stapi/OneDrive/Desktop/GD32VW553/V1_MQTT_OK/GD32VW55X_Wifi_BLE_SDK/GD32VW55x_RELEASE_V1.0.2/MSDK/lwip/lwip-2.1.2/src/core/ipv4\igmp.c ****   return err;
 570:C:/Users/stapi/OneDrive/Desktop/GD32VW553/V1_MQTT_OK/GD32VW55X_Wifi_BLE_SDK/GD32VW55x_RELEASE_V1.0.2/MSDK/lwip/lwip-2.1.2/src/core/ipv4\igmp.c **** }
 571:C:/Users/stapi/OneDrive/Desktop/GD32VW553/V1_MQTT_OK/GD32VW55X_Wifi_BLE_SDK/GD32VW55x_RELEASE_V1.0.2/MSDK/lwip/lwip-2.1.2/src/core/ipv4\igmp.c **** 
 572:C:/Users/stapi/OneDrive/Desktop/GD32VW553/V1_MQTT_OK/GD32VW55X_Wifi_BLE_SDK/GD32VW55x_RELEASE_V1.0.2/MSDK/lwip/lwip-2.1.2/src/core/ipv4\igmp.c **** /**
 573:C:/Users/stapi/OneDrive/Desktop/GD32VW553/V1_MQTT_OK/GD32VW55X_Wifi_BLE_SDK/GD32VW55x_RELEASE_V1.0.2/MSDK/lwip/lwip-2.1.2/src/core/ipv4\igmp.c ****  * @ingroup igmp
 574:C:/Users/stapi/OneDrive/Desktop/GD32VW553/V1_MQTT_OK/GD32VW55X_Wifi_BLE_SDK/GD32VW55x_RELEASE_V1.0.2/MSDK/lwip/lwip-2.1.2/src/core/ipv4\igmp.c ****  * Leave a group on one network interface.
 575:C:/Users/stapi/OneDrive/Desktop/GD32VW553/V1_MQTT_OK/GD32VW55X_Wifi_BLE_SDK/GD32VW55x_RELEASE_V1.0.2/MSDK/lwip/lwip-2.1.2/src/core/ipv4\igmp.c ****  *
 576:C:/Users/stapi/OneDrive/Desktop/GD32VW553/V1_MQTT_OK/GD32VW55X_Wifi_BLE_SDK/GD32VW55x_RELEASE_V1.0.2/MSDK/lwip/lwip-2.1.2/src/core/ipv4\igmp.c ****  * @param netif the network interface which should leave a group
 577:C:/Users/stapi/OneDrive/Desktop/GD32VW553/V1_MQTT_OK/GD32VW55X_Wifi_BLE_SDK/GD32VW55x_RELEASE_V1.0.2/MSDK/lwip/lwip-2.1.2/src/core/ipv4\igmp.c ****  * @param groupaddr the ip address of the group which to leave
 578:C:/Users/stapi/OneDrive/Desktop/GD32VW553/V1_MQTT_OK/GD32VW55X_Wifi_BLE_SDK/GD32VW55x_RELEASE_V1.0.2/MSDK/lwip/lwip-2.1.2/src/core/ipv4\igmp.c ****  * @return ERR_OK if group was left on the netif, an err_t otherwise
 579:C:/Users/stapi/OneDrive/Desktop/GD32VW553/V1_MQTT_OK/GD32VW55X_Wifi_BLE_SDK/GD32VW55x_RELEASE_V1.0.2/MSDK/lwip/lwip-2.1.2/src/core/ipv4\igmp.c ****  */
 580:C:/Users/stapi/OneDrive/Desktop/GD32VW553/V1_MQTT_OK/GD32VW55X_Wifi_BLE_SDK/GD32VW55x_RELEASE_V1.0.2/MSDK/lwip/lwip-2.1.2/src/core/ipv4\igmp.c **** err_t
 581:C:/Users/stapi/OneDrive/Desktop/GD32VW553/V1_MQTT_OK/GD32VW55X_Wifi_BLE_SDK/GD32VW55x_RELEASE_V1.0.2/MSDK/lwip/lwip-2.1.2/src/core/ipv4\igmp.c **** igmp_leavegroup_netif(struct netif *netif, const ip4_addr_t *groupaddr)
 582:C:/Users/stapi/OneDrive/Desktop/GD32VW553/V1_MQTT_OK/GD32VW55X_Wifi_BLE_SDK/GD32VW55x_RELEASE_V1.0.2/MSDK/lwip/lwip-2.1.2/src/core/ipv4\igmp.c **** {
 583:C:/Users/stapi/OneDrive/Desktop/GD32VW553/V1_MQTT_OK/GD32VW55X_Wifi_BLE_SDK/GD32VW55x_RELEASE_V1.0.2/MSDK/lwip/lwip-2.1.2/src/core/ipv4\igmp.c ****   struct igmp_group *group;
 584:C:/Users/stapi/OneDrive/Desktop/GD32VW553/V1_MQTT_OK/GD32VW55X_Wifi_BLE_SDK/GD32VW55x_RELEASE_V1.0.2/MSDK/lwip/lwip-2.1.2/src/core/ipv4\igmp.c **** 
 585:C:/Users/stapi/OneDrive/Desktop/GD32VW553/V1_MQTT_OK/GD32VW55X_Wifi_BLE_SDK/GD32VW55x_RELEASE_V1.0.2/MSDK/lwip/lwip-2.1.2/src/core/ipv4\igmp.c ****   LWIP_ASSERT_CORE_LOCKED();
 586:C:/Users/stapi/OneDrive/Desktop/GD32VW553/V1_MQTT_OK/GD32VW55X_Wifi_BLE_SDK/GD32VW55x_RELEASE_V1.0.2/MSDK/lwip/lwip-2.1.2/src/core/ipv4\igmp.c **** 
 587:C:/Users/stapi/OneDrive/Desktop/GD32VW553/V1_MQTT_OK/GD32VW55X_Wifi_BLE_SDK/GD32VW55x_RELEASE_V1.0.2/MSDK/lwip/lwip-2.1.2/src/core/ipv4\igmp.c ****   /* make sure it is multicast address */
 588:C:/Users/stapi/OneDrive/Desktop/GD32VW553/V1_MQTT_OK/GD32VW55X_Wifi_BLE_SDK/GD32VW55x_RELEASE_V1.0.2/MSDK/lwip/lwip-2.1.2/src/core/ipv4\igmp.c ****   LWIP_ERROR("igmp_leavegroup_netif: attempt to leave non-multicast address", ip4_addr_ismulticast(
 589:C:/Users/stapi/OneDrive/Desktop/GD32VW553/V1_MQTT_OK/GD32VW55X_Wifi_BLE_SDK/GD32VW55x_RELEASE_V1.0.2/MSDK/lwip/lwip-2.1.2/src/core/ipv4\igmp.c ****   LWIP_ERROR("igmp_leavegroup_netif: attempt to leave allsystems address", (!ip4_addr_cmp(groupaddr
 590:C:/Users/stapi/OneDrive/Desktop/GD32VW553/V1_MQTT_OK/GD32VW55X_Wifi_BLE_SDK/GD32VW55x_RELEASE_V1.0.2/MSDK/lwip/lwip-2.1.2/src/core/ipv4\igmp.c **** 
 591:C:/Users/stapi/OneDrive/Desktop/GD32VW553/V1_MQTT_OK/GD32VW55X_Wifi_BLE_SDK/GD32VW55x_RELEASE_V1.0.2/MSDK/lwip/lwip-2.1.2/src/core/ipv4\igmp.c ****   /* make sure it is an igmp-enabled netif */
 592:C:/Users/stapi/OneDrive/Desktop/GD32VW553/V1_MQTT_OK/GD32VW55X_Wifi_BLE_SDK/GD32VW55x_RELEASE_V1.0.2/MSDK/lwip/lwip-2.1.2/src/core/ipv4\igmp.c ****   LWIP_ERROR("igmp_leavegroup_netif: attempt to leave on non-IGMP netif", netif->flags & NETIF_FLAG
 593:C:/Users/stapi/OneDrive/Desktop/GD32VW553/V1_MQTT_OK/GD32VW55X_Wifi_BLE_SDK/GD32VW55x_RELEASE_V1.0.2/MSDK/lwip/lwip-2.1.2/src/core/ipv4\igmp.c **** 
 594:C:/Users/stapi/OneDrive/Desktop/GD32VW553/V1_MQTT_OK/GD32VW55X_Wifi_BLE_SDK/GD32VW55x_RELEASE_V1.0.2/MSDK/lwip/lwip-2.1.2/src/core/ipv4\igmp.c ****   /* find group */
 595:C:/Users/stapi/OneDrive/Desktop/GD32VW553/V1_MQTT_OK/GD32VW55X_Wifi_BLE_SDK/GD32VW55x_RELEASE_V1.0.2/MSDK/lwip/lwip-2.1.2/src/core/ipv4\igmp.c ****   group = igmp_lookfor_group(netif, groupaddr);
 596:C:/Users/stapi/OneDrive/Desktop/GD32VW553/V1_MQTT_OK/GD32VW55X_Wifi_BLE_SDK/GD32VW55x_RELEASE_V1.0.2/MSDK/lwip/lwip-2.1.2/src/core/ipv4\igmp.c **** 
 597:C:/Users/stapi/OneDrive/Desktop/GD32VW553/V1_MQTT_OK/GD32VW55X_Wifi_BLE_SDK/GD32VW55x_RELEASE_V1.0.2/MSDK/lwip/lwip-2.1.2/src/core/ipv4\igmp.c ****   if (group != NULL) {
 598:C:/Users/stapi/OneDrive/Desktop/GD32VW553/V1_MQTT_OK/GD32VW55X_Wifi_BLE_SDK/GD32VW55x_RELEASE_V1.0.2/MSDK/lwip/lwip-2.1.2/src/core/ipv4\igmp.c ****     /* Only send a leave if the flag is set according to the state diagram */
 599:C:/Users/stapi/OneDrive/Desktop/GD32VW553/V1_MQTT_OK/GD32VW55X_Wifi_BLE_SDK/GD32VW55x_RELEASE_V1.0.2/MSDK/lwip/lwip-2.1.2/src/core/ipv4\igmp.c ****     LWIP_DEBUGF(IGMP_DEBUG, ("igmp_leavegroup_netif: Leaving group: "));
 600:C:/Users/stapi/OneDrive/Desktop/GD32VW553/V1_MQTT_OK/GD32VW55X_Wifi_BLE_SDK/GD32VW55x_RELEASE_V1.0.2/MSDK/lwip/lwip-2.1.2/src/core/ipv4\igmp.c ****     ip4_addr_debug_print(IGMP_DEBUG, groupaddr);
 601:C:/Users/stapi/OneDrive/Desktop/GD32VW553/V1_MQTT_OK/GD32VW55X_Wifi_BLE_SDK/GD32VW55x_RELEASE_V1.0.2/MSDK/lwip/lwip-2.1.2/src/core/ipv4\igmp.c ****     LWIP_DEBUGF(IGMP_DEBUG, ("\n"));
 602:C:/Users/stapi/OneDrive/Desktop/GD32VW553/V1_MQTT_OK/GD32VW55X_Wifi_BLE_SDK/GD32VW55x_RELEASE_V1.0.2/MSDK/lwip/lwip-2.1.2/src/core/ipv4\igmp.c **** 
 603:C:/Users/stapi/OneDrive/Desktop/GD32VW553/V1_MQTT_OK/GD32VW55X_Wifi_BLE_SDK/GD32VW55x_RELEASE_V1.0.2/MSDK/lwip/lwip-2.1.2/src/core/ipv4\igmp.c ****     /* If there is no other use of the group */
 604:C:/Users/stapi/OneDrive/Desktop/GD32VW553/V1_MQTT_OK/GD32VW55X_Wifi_BLE_SDK/GD32VW55x_RELEASE_V1.0.2/MSDK/lwip/lwip-2.1.2/src/core/ipv4\igmp.c ****     if (group->use <= 1) {
 605:C:/Users/stapi/OneDrive/Desktop/GD32VW553/V1_MQTT_OK/GD32VW55X_Wifi_BLE_SDK/GD32VW55x_RELEASE_V1.0.2/MSDK/lwip/lwip-2.1.2/src/core/ipv4\igmp.c ****       /* Remove the group from the list */
 606:C:/Users/stapi/OneDrive/Desktop/GD32VW553/V1_MQTT_OK/GD32VW55X_Wifi_BLE_SDK/GD32VW55x_RELEASE_V1.0.2/MSDK/lwip/lwip-2.1.2/src/core/ipv4\igmp.c ****       igmp_remove_group(netif, group);
 607:C:/Users/stapi/OneDrive/Desktop/GD32VW553/V1_MQTT_OK/GD32VW55X_Wifi_BLE_SDK/GD32VW55x_RELEASE_V1.0.2/MSDK/lwip/lwip-2.1.2/src/core/ipv4\igmp.c **** 
 608:C:/Users/stapi/OneDrive/Desktop/GD32VW553/V1_MQTT_OK/GD32VW55X_Wifi_BLE_SDK/GD32VW55x_RELEASE_V1.0.2/MSDK/lwip/lwip-2.1.2/src/core/ipv4\igmp.c ****       /* If we are the last reporter for this group */
 609:C:/Users/stapi/OneDrive/Desktop/GD32VW553/V1_MQTT_OK/GD32VW55X_Wifi_BLE_SDK/GD32VW55x_RELEASE_V1.0.2/MSDK/lwip/lwip-2.1.2/src/core/ipv4\igmp.c ****       if (group->last_reporter_flag) {
 610:C:/Users/stapi/OneDrive/Desktop/GD32VW553/V1_MQTT_OK/GD32VW55X_Wifi_BLE_SDK/GD32VW55x_RELEASE_V1.0.2/MSDK/lwip/lwip-2.1.2/src/core/ipv4\igmp.c ****         LWIP_DEBUGF(IGMP_DEBUG, ("igmp_leavegroup_netif: sending leaving group\n"));
 611:C:/Users/stapi/OneDrive/Desktop/GD32VW553/V1_MQTT_OK/GD32VW55X_Wifi_BLE_SDK/GD32VW55x_RELEASE_V1.0.2/MSDK/lwip/lwip-2.1.2/src/core/ipv4\igmp.c ****         IGMP_STATS_INC(igmp.tx_leave);
 612:C:/Users/stapi/OneDrive/Desktop/GD32VW553/V1_MQTT_OK/GD32VW55X_Wifi_BLE_SDK/GD32VW55x_RELEASE_V1.0.2/MSDK/lwip/lwip-2.1.2/src/core/ipv4\igmp.c ****         igmp_send(netif, group, IGMP_LEAVE_GROUP);
 613:C:/Users/stapi/OneDrive/Desktop/GD32VW553/V1_MQTT_OK/GD32VW55X_Wifi_BLE_SDK/GD32VW55x_RELEASE_V1.0.2/MSDK/lwip/lwip-2.1.2/src/core/ipv4\igmp.c ****       }
 614:C:/Users/stapi/OneDrive/Desktop/GD32VW553/V1_MQTT_OK/GD32VW55X_Wifi_BLE_SDK/GD32VW55x_RELEASE_V1.0.2/MSDK/lwip/lwip-2.1.2/src/core/ipv4\igmp.c **** 
 615:C:/Users/stapi/OneDrive/Desktop/GD32VW553/V1_MQTT_OK/GD32VW55X_Wifi_BLE_SDK/GD32VW55x_RELEASE_V1.0.2/MSDK/lwip/lwip-2.1.2/src/core/ipv4\igmp.c ****       /* Disable the group at the MAC level */
 616:C:/Users/stapi/OneDrive/Desktop/GD32VW553/V1_MQTT_OK/GD32VW55X_Wifi_BLE_SDK/GD32VW55x_RELEASE_V1.0.2/MSDK/lwip/lwip-2.1.2/src/core/ipv4\igmp.c ****       if (netif->igmp_mac_filter != NULL) {
 617:C:/Users/stapi/OneDrive/Desktop/GD32VW553/V1_MQTT_OK/GD32VW55X_Wifi_BLE_SDK/GD32VW55x_RELEASE_V1.0.2/MSDK/lwip/lwip-2.1.2/src/core/ipv4\igmp.c ****         LWIP_DEBUGF(IGMP_DEBUG, ("igmp_leavegroup_netif: igmp_mac_filter(DEL "));
 618:C:/Users/stapi/OneDrive/Desktop/GD32VW553/V1_MQTT_OK/GD32VW55X_Wifi_BLE_SDK/GD32VW55x_RELEASE_V1.0.2/MSDK/lwip/lwip-2.1.2/src/core/ipv4\igmp.c ****         ip4_addr_debug_print(IGMP_DEBUG, groupaddr);
 619:C:/Users/stapi/OneDrive/Desktop/GD32VW553/V1_MQTT_OK/GD32VW55X_Wifi_BLE_SDK/GD32VW55x_RELEASE_V1.0.2/MSDK/lwip/lwip-2.1.2/src/core/ipv4\igmp.c ****         LWIP_DEBUGF(IGMP_DEBUG, (") on if %p\n", (void *)netif));
 620:C:/Users/stapi/OneDrive/Desktop/GD32VW553/V1_MQTT_OK/GD32VW55X_Wifi_BLE_SDK/GD32VW55x_RELEASE_V1.0.2/MSDK/lwip/lwip-2.1.2/src/core/ipv4\igmp.c ****         netif->igmp_mac_filter(netif, groupaddr, NETIF_DEL_MAC_FILTER);
 621:C:/Users/stapi/OneDrive/Desktop/GD32VW553/V1_MQTT_OK/GD32VW55X_Wifi_BLE_SDK/GD32VW55x_RELEASE_V1.0.2/MSDK/lwip/lwip-2.1.2/src/core/ipv4\igmp.c ****       }
 622:C:/Users/stapi/OneDrive/Desktop/GD32VW553/V1_MQTT_OK/GD32VW55X_Wifi_BLE_SDK/GD32VW55x_RELEASE_V1.0.2/MSDK/lwip/lwip-2.1.2/src/core/ipv4\igmp.c **** 
 623:C:/Users/stapi/OneDrive/Desktop/GD32VW553/V1_MQTT_OK/GD32VW55X_Wifi_BLE_SDK/GD32VW55x_RELEASE_V1.0.2/MSDK/lwip/lwip-2.1.2/src/core/ipv4\igmp.c ****       /* Free group struct */
 624:C:/Users/stapi/OneDrive/Desktop/GD32VW553/V1_MQTT_OK/GD32VW55X_Wifi_BLE_SDK/GD32VW55x_RELEASE_V1.0.2/MSDK/lwip/lwip-2.1.2/src/core/ipv4\igmp.c ****       memp_free(MEMP_IGMP_GROUP, group);
 625:C:/Users/stapi/OneDrive/Desktop/GD32VW553/V1_MQTT_OK/GD32VW55X_Wifi_BLE_SDK/GD32VW55x_RELEASE_V1.0.2/MSDK/lwip/lwip-2.1.2/src/core/ipv4\igmp.c ****     } else {
 626:C:/Users/stapi/OneDrive/Desktop/GD32VW553/V1_MQTT_OK/GD32VW55X_Wifi_BLE_SDK/GD32VW55x_RELEASE_V1.0.2/MSDK/lwip/lwip-2.1.2/src/core/ipv4\igmp.c ****       /* Decrement group use */
 627:C:/Users/stapi/OneDrive/Desktop/GD32VW553/V1_MQTT_OK/GD32VW55X_Wifi_BLE_SDK/GD32VW55x_RELEASE_V1.0.2/MSDK/lwip/lwip-2.1.2/src/core/ipv4\igmp.c ****       group->use--;
 628:C:/Users/stapi/OneDrive/Desktop/GD32VW553/V1_MQTT_OK/GD32VW55X_Wifi_BLE_SDK/GD32VW55x_RELEASE_V1.0.2/MSDK/lwip/lwip-2.1.2/src/core/ipv4\igmp.c ****     }
 629:C:/Users/stapi/OneDrive/Desktop/GD32VW553/V1_MQTT_OK/GD32VW55X_Wifi_BLE_SDK/GD32VW55x_RELEASE_V1.0.2/MSDK/lwip/lwip-2.1.2/src/core/ipv4\igmp.c ****     return ERR_OK;
 630:C:/Users/stapi/OneDrive/Desktop/GD32VW553/V1_MQTT_OK/GD32VW55X_Wifi_BLE_SDK/GD32VW55x_RELEASE_V1.0.2/MSDK/lwip/lwip-2.1.2/src/core/ipv4\igmp.c ****   } else {
 631:C:/Users/stapi/OneDrive/Desktop/GD32VW553/V1_MQTT_OK/GD32VW55X_Wifi_BLE_SDK/GD32VW55x_RELEASE_V1.0.2/MSDK/lwip/lwip-2.1.2/src/core/ipv4\igmp.c ****     LWIP_DEBUGF(IGMP_DEBUG, ("igmp_leavegroup_netif: not member of group\n"));
 632:C:/Users/stapi/OneDrive/Desktop/GD32VW553/V1_MQTT_OK/GD32VW55X_Wifi_BLE_SDK/GD32VW55x_RELEASE_V1.0.2/MSDK/lwip/lwip-2.1.2/src/core/ipv4\igmp.c ****     return ERR_VAL;
 633:C:/Users/stapi/OneDrive/Desktop/GD32VW553/V1_MQTT_OK/GD32VW55X_Wifi_BLE_SDK/GD32VW55x_RELEASE_V1.0.2/MSDK/lwip/lwip-2.1.2/src/core/ipv4\igmp.c ****   }
 634:C:/Users/stapi/OneDrive/Desktop/GD32VW553/V1_MQTT_OK/GD32VW55X_Wifi_BLE_SDK/GD32VW55x_RELEASE_V1.0.2/MSDK/lwip/lwip-2.1.2/src/core/ipv4\igmp.c **** }
 635:C:/Users/stapi/OneDrive/Desktop/GD32VW553/V1_MQTT_OK/GD32VW55X_Wifi_BLE_SDK/GD32VW55x_RELEASE_V1.0.2/MSDK/lwip/lwip-2.1.2/src/core/ipv4\igmp.c **** 
 636:C:/Users/stapi/OneDrive/Desktop/GD32VW553/V1_MQTT_OK/GD32VW55X_Wifi_BLE_SDK/GD32VW55x_RELEASE_V1.0.2/MSDK/lwip/lwip-2.1.2/src/core/ipv4\igmp.c **** /**
 637:C:/Users/stapi/OneDrive/Desktop/GD32VW553/V1_MQTT_OK/GD32VW55X_Wifi_BLE_SDK/GD32VW55x_RELEASE_V1.0.2/MSDK/lwip/lwip-2.1.2/src/core/ipv4\igmp.c ****  * The igmp timer function (both for NO_SYS=1 and =0)
 638:C:/Users/stapi/OneDrive/Desktop/GD32VW553/V1_MQTT_OK/GD32VW55X_Wifi_BLE_SDK/GD32VW55x_RELEASE_V1.0.2/MSDK/lwip/lwip-2.1.2/src/core/ipv4\igmp.c ****  * Should be called every IGMP_TMR_INTERVAL milliseconds (100 ms is default).
 639:C:/Users/stapi/OneDrive/Desktop/GD32VW553/V1_MQTT_OK/GD32VW55X_Wifi_BLE_SDK/GD32VW55x_RELEASE_V1.0.2/MSDK/lwip/lwip-2.1.2/src/core/ipv4\igmp.c ****  */
 640:C:/Users/stapi/OneDrive/Desktop/GD32VW553/V1_MQTT_OK/GD32VW55X_Wifi_BLE_SDK/GD32VW55x_RELEASE_V1.0.2/MSDK/lwip/lwip-2.1.2/src/core/ipv4\igmp.c **** void
 641:C:/Users/stapi/OneDrive/Desktop/GD32VW553/V1_MQTT_OK/GD32VW55X_Wifi_BLE_SDK/GD32VW55x_RELEASE_V1.0.2/MSDK/lwip/lwip-2.1.2/src/core/ipv4\igmp.c **** igmp_tmr(void)
 642:C:/Users/stapi/OneDrive/Desktop/GD32VW553/V1_MQTT_OK/GD32VW55X_Wifi_BLE_SDK/GD32VW55x_RELEASE_V1.0.2/MSDK/lwip/lwip-2.1.2/src/core/ipv4\igmp.c **** {
 643:C:/Users/stapi/OneDrive/Desktop/GD32VW553/V1_MQTT_OK/GD32VW55X_Wifi_BLE_SDK/GD32VW55x_RELEASE_V1.0.2/MSDK/lwip/lwip-2.1.2/src/core/ipv4\igmp.c ****   struct netif *netif;
 644:C:/Users/stapi/OneDrive/Desktop/GD32VW553/V1_MQTT_OK/GD32VW55X_Wifi_BLE_SDK/GD32VW55x_RELEASE_V1.0.2/MSDK/lwip/lwip-2.1.2/src/core/ipv4\igmp.c **** 
 645:C:/Users/stapi/OneDrive/Desktop/GD32VW553/V1_MQTT_OK/GD32VW55X_Wifi_BLE_SDK/GD32VW55x_RELEASE_V1.0.2/MSDK/lwip/lwip-2.1.2/src/core/ipv4\igmp.c ****   NETIF_FOREACH(netif) {
 646:C:/Users/stapi/OneDrive/Desktop/GD32VW553/V1_MQTT_OK/GD32VW55X_Wifi_BLE_SDK/GD32VW55x_RELEASE_V1.0.2/MSDK/lwip/lwip-2.1.2/src/core/ipv4\igmp.c ****     struct igmp_group *group = netif_igmp_data(netif);
 647:C:/Users/stapi/OneDrive/Desktop/GD32VW553/V1_MQTT_OK/GD32VW55X_Wifi_BLE_SDK/GD32VW55x_RELEASE_V1.0.2/MSDK/lwip/lwip-2.1.2/src/core/ipv4\igmp.c **** 
 648:C:/Users/stapi/OneDrive/Desktop/GD32VW553/V1_MQTT_OK/GD32VW55X_Wifi_BLE_SDK/GD32VW55x_RELEASE_V1.0.2/MSDK/lwip/lwip-2.1.2/src/core/ipv4\igmp.c ****     while (group != NULL) {
 649:C:/Users/stapi/OneDrive/Desktop/GD32VW553/V1_MQTT_OK/GD32VW55X_Wifi_BLE_SDK/GD32VW55x_RELEASE_V1.0.2/MSDK/lwip/lwip-2.1.2/src/core/ipv4\igmp.c ****       if (group->timer > 0) {
 650:C:/Users/stapi/OneDrive/Desktop/GD32VW553/V1_MQTT_OK/GD32VW55X_Wifi_BLE_SDK/GD32VW55x_RELEASE_V1.0.2/MSDK/lwip/lwip-2.1.2/src/core/ipv4\igmp.c ****         group->timer--;
 651:C:/Users/stapi/OneDrive/Desktop/GD32VW553/V1_MQTT_OK/GD32VW55X_Wifi_BLE_SDK/GD32VW55x_RELEASE_V1.0.2/MSDK/lwip/lwip-2.1.2/src/core/ipv4\igmp.c ****         if (group->timer == 0) {
 652:C:/Users/stapi/OneDrive/Desktop/GD32VW553/V1_MQTT_OK/GD32VW55X_Wifi_BLE_SDK/GD32VW55x_RELEASE_V1.0.2/MSDK/lwip/lwip-2.1.2/src/core/ipv4\igmp.c ****           igmp_timeout(netif, group);
 653:C:/Users/stapi/OneDrive/Desktop/GD32VW553/V1_MQTT_OK/GD32VW55X_Wifi_BLE_SDK/GD32VW55x_RELEASE_V1.0.2/MSDK/lwip/lwip-2.1.2/src/core/ipv4\igmp.c ****         }
 654:C:/Users/stapi/OneDrive/Desktop/GD32VW553/V1_MQTT_OK/GD32VW55X_Wifi_BLE_SDK/GD32VW55x_RELEASE_V1.0.2/MSDK/lwip/lwip-2.1.2/src/core/ipv4\igmp.c ****       }
 655:C:/Users/stapi/OneDrive/Desktop/GD32VW553/V1_MQTT_OK/GD32VW55X_Wifi_BLE_SDK/GD32VW55x_RELEASE_V1.0.2/MSDK/lwip/lwip-2.1.2/src/core/ipv4\igmp.c ****       group = group->next;
 656:C:/Users/stapi/OneDrive/Desktop/GD32VW553/V1_MQTT_OK/GD32VW55X_Wifi_BLE_SDK/GD32VW55x_RELEASE_V1.0.2/MSDK/lwip/lwip-2.1.2/src/core/ipv4\igmp.c ****     }
 657:C:/Users/stapi/OneDrive/Desktop/GD32VW553/V1_MQTT_OK/GD32VW55X_Wifi_BLE_SDK/GD32VW55x_RELEASE_V1.0.2/MSDK/lwip/lwip-2.1.2/src/core/ipv4\igmp.c ****   }
 658:C:/Users/stapi/OneDrive/Desktop/GD32VW553/V1_MQTT_OK/GD32VW55X_Wifi_BLE_SDK/GD32VW55x_RELEASE_V1.0.2/MSDK/lwip/lwip-2.1.2/src/core/ipv4\igmp.c **** }
 659:C:/Users/stapi/OneDrive/Desktop/GD32VW553/V1_MQTT_OK/GD32VW55X_Wifi_BLE_SDK/GD32VW55x_RELEASE_V1.0.2/MSDK/lwip/lwip-2.1.2/src/core/ipv4\igmp.c **** 
 660:C:/Users/stapi/OneDrive/Desktop/GD32VW553/V1_MQTT_OK/GD32VW55X_Wifi_BLE_SDK/GD32VW55x_RELEASE_V1.0.2/MSDK/lwip/lwip-2.1.2/src/core/ipv4\igmp.c **** /**
 661:C:/Users/stapi/OneDrive/Desktop/GD32VW553/V1_MQTT_OK/GD32VW55X_Wifi_BLE_SDK/GD32VW55x_RELEASE_V1.0.2/MSDK/lwip/lwip-2.1.2/src/core/ipv4\igmp.c ****  * Called if a timeout for one group is reached.
 662:C:/Users/stapi/OneDrive/Desktop/GD32VW553/V1_MQTT_OK/GD32VW55X_Wifi_BLE_SDK/GD32VW55x_RELEASE_V1.0.2/MSDK/lwip/lwip-2.1.2/src/core/ipv4\igmp.c ****  * Sends a report for this group.
 663:C:/Users/stapi/OneDrive/Desktop/GD32VW553/V1_MQTT_OK/GD32VW55X_Wifi_BLE_SDK/GD32VW55x_RELEASE_V1.0.2/MSDK/lwip/lwip-2.1.2/src/core/ipv4\igmp.c ****  *
 664:C:/Users/stapi/OneDrive/Desktop/GD32VW553/V1_MQTT_OK/GD32VW55X_Wifi_BLE_SDK/GD32VW55x_RELEASE_V1.0.2/MSDK/lwip/lwip-2.1.2/src/core/ipv4\igmp.c ****  * @param group an igmp_group for which a timeout is reached
 665:C:/Users/stapi/OneDrive/Desktop/GD32VW553/V1_MQTT_OK/GD32VW55X_Wifi_BLE_SDK/GD32VW55x_RELEASE_V1.0.2/MSDK/lwip/lwip-2.1.2/src/core/ipv4\igmp.c ****  */
 666:C:/Users/stapi/OneDrive/Desktop/GD32VW553/V1_MQTT_OK/GD32VW55X_Wifi_BLE_SDK/GD32VW55x_RELEASE_V1.0.2/MSDK/lwip/lwip-2.1.2/src/core/ipv4\igmp.c **** static void
 667:C:/Users/stapi/OneDrive/Desktop/GD32VW553/V1_MQTT_OK/GD32VW55X_Wifi_BLE_SDK/GD32VW55x_RELEASE_V1.0.2/MSDK/lwip/lwip-2.1.2/src/core/ipv4\igmp.c **** igmp_timeout(struct netif *netif, struct igmp_group *group)
 668:C:/Users/stapi/OneDrive/Desktop/GD32VW553/V1_MQTT_OK/GD32VW55X_Wifi_BLE_SDK/GD32VW55x_RELEASE_V1.0.2/MSDK/lwip/lwip-2.1.2/src/core/ipv4\igmp.c **** {
 669:C:/Users/stapi/OneDrive/Desktop/GD32VW553/V1_MQTT_OK/GD32VW55X_Wifi_BLE_SDK/GD32VW55x_RELEASE_V1.0.2/MSDK/lwip/lwip-2.1.2/src/core/ipv4\igmp.c ****   /* If the state is IGMP_GROUP_DELAYING_MEMBER then we send a report for this group
 670:C:/Users/stapi/OneDrive/Desktop/GD32VW553/V1_MQTT_OK/GD32VW55X_Wifi_BLE_SDK/GD32VW55x_RELEASE_V1.0.2/MSDK/lwip/lwip-2.1.2/src/core/ipv4\igmp.c ****      (unless it is the allsystems group) */
 671:C:/Users/stapi/OneDrive/Desktop/GD32VW553/V1_MQTT_OK/GD32VW55X_Wifi_BLE_SDK/GD32VW55x_RELEASE_V1.0.2/MSDK/lwip/lwip-2.1.2/src/core/ipv4\igmp.c ****   if ((group->group_state == IGMP_GROUP_DELAYING_MEMBER) &&
 672:C:/Users/stapi/OneDrive/Desktop/GD32VW553/V1_MQTT_OK/GD32VW55X_Wifi_BLE_SDK/GD32VW55x_RELEASE_V1.0.2/MSDK/lwip/lwip-2.1.2/src/core/ipv4\igmp.c ****       (!(ip4_addr_cmp(&(group->group_address), &allsystems)))) {
 673:C:/Users/stapi/OneDrive/Desktop/GD32VW553/V1_MQTT_OK/GD32VW55X_Wifi_BLE_SDK/GD32VW55x_RELEASE_V1.0.2/MSDK/lwip/lwip-2.1.2/src/core/ipv4\igmp.c ****     LWIP_DEBUGF(IGMP_DEBUG, ("igmp_timeout: report membership for group with address "));
 674:C:/Users/stapi/OneDrive/Desktop/GD32VW553/V1_MQTT_OK/GD32VW55X_Wifi_BLE_SDK/GD32VW55x_RELEASE_V1.0.2/MSDK/lwip/lwip-2.1.2/src/core/ipv4\igmp.c ****     ip4_addr_debug_print_val(IGMP_DEBUG, group->group_address);
 675:C:/Users/stapi/OneDrive/Desktop/GD32VW553/V1_MQTT_OK/GD32VW55X_Wifi_BLE_SDK/GD32VW55x_RELEASE_V1.0.2/MSDK/lwip/lwip-2.1.2/src/core/ipv4\igmp.c ****     LWIP_DEBUGF(IGMP_DEBUG, (" on if %p\n", (void *)netif));
 676:C:/Users/stapi/OneDrive/Desktop/GD32VW553/V1_MQTT_OK/GD32VW55X_Wifi_BLE_SDK/GD32VW55x_RELEASE_V1.0.2/MSDK/lwip/lwip-2.1.2/src/core/ipv4\igmp.c **** 
 677:C:/Users/stapi/OneDrive/Desktop/GD32VW553/V1_MQTT_OK/GD32VW55X_Wifi_BLE_SDK/GD32VW55x_RELEASE_V1.0.2/MSDK/lwip/lwip-2.1.2/src/core/ipv4\igmp.c ****     group->group_state = IGMP_GROUP_IDLE_MEMBER;
 678:C:/Users/stapi/OneDrive/Desktop/GD32VW553/V1_MQTT_OK/GD32VW55X_Wifi_BLE_SDK/GD32VW55x_RELEASE_V1.0.2/MSDK/lwip/lwip-2.1.2/src/core/ipv4\igmp.c **** 
 679:C:/Users/stapi/OneDrive/Desktop/GD32VW553/V1_MQTT_OK/GD32VW55X_Wifi_BLE_SDK/GD32VW55x_RELEASE_V1.0.2/MSDK/lwip/lwip-2.1.2/src/core/ipv4\igmp.c ****     IGMP_STATS_INC(igmp.tx_report);
 680:C:/Users/stapi/OneDrive/Desktop/GD32VW553/V1_MQTT_OK/GD32VW55X_Wifi_BLE_SDK/GD32VW55x_RELEASE_V1.0.2/MSDK/lwip/lwip-2.1.2/src/core/ipv4\igmp.c ****     igmp_send(netif, group, IGMP_V2_MEMB_REPORT);
 681:C:/Users/stapi/OneDrive/Desktop/GD32VW553/V1_MQTT_OK/GD32VW55X_Wifi_BLE_SDK/GD32VW55x_RELEASE_V1.0.2/MSDK/lwip/lwip-2.1.2/src/core/ipv4\igmp.c ****   }
 682:C:/Users/stapi/OneDrive/Desktop/GD32VW553/V1_MQTT_OK/GD32VW55X_Wifi_BLE_SDK/GD32VW55x_RELEASE_V1.0.2/MSDK/lwip/lwip-2.1.2/src/core/ipv4\igmp.c **** }
 683:C:/Users/stapi/OneDrive/Desktop/GD32VW553/V1_MQTT_OK/GD32VW55X_Wifi_BLE_SDK/GD32VW55x_RELEASE_V1.0.2/MSDK/lwip/lwip-2.1.2/src/core/ipv4\igmp.c **** 
 684:C:/Users/stapi/OneDrive/Desktop/GD32VW553/V1_MQTT_OK/GD32VW55X_Wifi_BLE_SDK/GD32VW55x_RELEASE_V1.0.2/MSDK/lwip/lwip-2.1.2/src/core/ipv4\igmp.c **** /**
 685:C:/Users/stapi/OneDrive/Desktop/GD32VW553/V1_MQTT_OK/GD32VW55X_Wifi_BLE_SDK/GD32VW55x_RELEASE_V1.0.2/MSDK/lwip/lwip-2.1.2/src/core/ipv4\igmp.c ****  * Start a timer for an igmp group
 686:C:/Users/stapi/OneDrive/Desktop/GD32VW553/V1_MQTT_OK/GD32VW55X_Wifi_BLE_SDK/GD32VW55x_RELEASE_V1.0.2/MSDK/lwip/lwip-2.1.2/src/core/ipv4\igmp.c ****  *
 687:C:/Users/stapi/OneDrive/Desktop/GD32VW553/V1_MQTT_OK/GD32VW55X_Wifi_BLE_SDK/GD32VW55x_RELEASE_V1.0.2/MSDK/lwip/lwip-2.1.2/src/core/ipv4\igmp.c ****  * @param group the igmp_group for which to start a timer
 688:C:/Users/stapi/OneDrive/Desktop/GD32VW553/V1_MQTT_OK/GD32VW55X_Wifi_BLE_SDK/GD32VW55x_RELEASE_V1.0.2/MSDK/lwip/lwip-2.1.2/src/core/ipv4\igmp.c ****  * @param max_time the time in multiples of IGMP_TMR_INTERVAL (decrease with
 689:C:/Users/stapi/OneDrive/Desktop/GD32VW553/V1_MQTT_OK/GD32VW55X_Wifi_BLE_SDK/GD32VW55x_RELEASE_V1.0.2/MSDK/lwip/lwip-2.1.2/src/core/ipv4\igmp.c ****  *        every call to igmp_tmr())
 690:C:/Users/stapi/OneDrive/Desktop/GD32VW553/V1_MQTT_OK/GD32VW55X_Wifi_BLE_SDK/GD32VW55x_RELEASE_V1.0.2/MSDK/lwip/lwip-2.1.2/src/core/ipv4\igmp.c ****  */
 691:C:/Users/stapi/OneDrive/Desktop/GD32VW553/V1_MQTT_OK/GD32VW55X_Wifi_BLE_SDK/GD32VW55x_RELEASE_V1.0.2/MSDK/lwip/lwip-2.1.2/src/core/ipv4\igmp.c **** static void
 692:C:/Users/stapi/OneDrive/Desktop/GD32VW553/V1_MQTT_OK/GD32VW55X_Wifi_BLE_SDK/GD32VW55x_RELEASE_V1.0.2/MSDK/lwip/lwip-2.1.2/src/core/ipv4\igmp.c **** igmp_start_timer(struct igmp_group *group, u8_t max_time)
 693:C:/Users/stapi/OneDrive/Desktop/GD32VW553/V1_MQTT_OK/GD32VW55X_Wifi_BLE_SDK/GD32VW55x_RELEASE_V1.0.2/MSDK/lwip/lwip-2.1.2/src/core/ipv4\igmp.c **** {
 694:C:/Users/stapi/OneDrive/Desktop/GD32VW553/V1_MQTT_OK/GD32VW55X_Wifi_BLE_SDK/GD32VW55x_RELEASE_V1.0.2/MSDK/lwip/lwip-2.1.2/src/core/ipv4\igmp.c **** #ifdef LWIP_RAND
 695:C:/Users/stapi/OneDrive/Desktop/GD32VW553/V1_MQTT_OK/GD32VW55X_Wifi_BLE_SDK/GD32VW55x_RELEASE_V1.0.2/MSDK/lwip/lwip-2.1.2/src/core/ipv4\igmp.c ****   group->timer = (u16_t)(max_time > 2 ? (LWIP_RAND() % max_time) : 1);
 696:C:/Users/stapi/OneDrive/Desktop/GD32VW553/V1_MQTT_OK/GD32VW55X_Wifi_BLE_SDK/GD32VW55x_RELEASE_V1.0.2/MSDK/lwip/lwip-2.1.2/src/core/ipv4\igmp.c **** #else /* LWIP_RAND */
 697:C:/Users/stapi/OneDrive/Desktop/GD32VW553/V1_MQTT_OK/GD32VW55X_Wifi_BLE_SDK/GD32VW55x_RELEASE_V1.0.2/MSDK/lwip/lwip-2.1.2/src/core/ipv4\igmp.c ****   /* ATTENTION: use this only if absolutely necessary! */
 698:C:/Users/stapi/OneDrive/Desktop/GD32VW553/V1_MQTT_OK/GD32VW55X_Wifi_BLE_SDK/GD32VW55x_RELEASE_V1.0.2/MSDK/lwip/lwip-2.1.2/src/core/ipv4\igmp.c ****   group->timer = max_time / 2;
 699:C:/Users/stapi/OneDrive/Desktop/GD32VW553/V1_MQTT_OK/GD32VW55X_Wifi_BLE_SDK/GD32VW55x_RELEASE_V1.0.2/MSDK/lwip/lwip-2.1.2/src/core/ipv4\igmp.c **** #endif /* LWIP_RAND */
 700:C:/Users/stapi/OneDrive/Desktop/GD32VW553/V1_MQTT_OK/GD32VW55X_Wifi_BLE_SDK/GD32VW55x_RELEASE_V1.0.2/MSDK/lwip/lwip-2.1.2/src/core/ipv4\igmp.c **** 
 701:C:/Users/stapi/OneDrive/Desktop/GD32VW553/V1_MQTT_OK/GD32VW55X_Wifi_BLE_SDK/GD32VW55x_RELEASE_V1.0.2/MSDK/lwip/lwip-2.1.2/src/core/ipv4\igmp.c ****   if (group->timer == 0) {
 702:C:/Users/stapi/OneDrive/Desktop/GD32VW553/V1_MQTT_OK/GD32VW55X_Wifi_BLE_SDK/GD32VW55x_RELEASE_V1.0.2/MSDK/lwip/lwip-2.1.2/src/core/ipv4\igmp.c ****     group->timer = 1;
 703:C:/Users/stapi/OneDrive/Desktop/GD32VW553/V1_MQTT_OK/GD32VW55X_Wifi_BLE_SDK/GD32VW55x_RELEASE_V1.0.2/MSDK/lwip/lwip-2.1.2/src/core/ipv4\igmp.c ****   }
 704:C:/Users/stapi/OneDrive/Desktop/GD32VW553/V1_MQTT_OK/GD32VW55X_Wifi_BLE_SDK/GD32VW55x_RELEASE_V1.0.2/MSDK/lwip/lwip-2.1.2/src/core/ipv4\igmp.c **** }
 705:C:/Users/stapi/OneDrive/Desktop/GD32VW553/V1_MQTT_OK/GD32VW55X_Wifi_BLE_SDK/GD32VW55x_RELEASE_V1.0.2/MSDK/lwip/lwip-2.1.2/src/core/ipv4\igmp.c **** 
 706:C:/Users/stapi/OneDrive/Desktop/GD32VW553/V1_MQTT_OK/GD32VW55X_Wifi_BLE_SDK/GD32VW55x_RELEASE_V1.0.2/MSDK/lwip/lwip-2.1.2/src/core/ipv4\igmp.c **** /**
 707:C:/Users/stapi/OneDrive/Desktop/GD32VW553/V1_MQTT_OK/GD32VW55X_Wifi_BLE_SDK/GD32VW55x_RELEASE_V1.0.2/MSDK/lwip/lwip-2.1.2/src/core/ipv4\igmp.c ****  * Delaying membership report for a group if necessary
 708:C:/Users/stapi/OneDrive/Desktop/GD32VW553/V1_MQTT_OK/GD32VW55X_Wifi_BLE_SDK/GD32VW55x_RELEASE_V1.0.2/MSDK/lwip/lwip-2.1.2/src/core/ipv4\igmp.c ****  *
 709:C:/Users/stapi/OneDrive/Desktop/GD32VW553/V1_MQTT_OK/GD32VW55X_Wifi_BLE_SDK/GD32VW55x_RELEASE_V1.0.2/MSDK/lwip/lwip-2.1.2/src/core/ipv4\igmp.c ****  * @param group the igmp_group for which "delaying" membership report
 710:C:/Users/stapi/OneDrive/Desktop/GD32VW553/V1_MQTT_OK/GD32VW55X_Wifi_BLE_SDK/GD32VW55x_RELEASE_V1.0.2/MSDK/lwip/lwip-2.1.2/src/core/ipv4\igmp.c ****  * @param maxresp query delay
 711:C:/Users/stapi/OneDrive/Desktop/GD32VW553/V1_MQTT_OK/GD32VW55X_Wifi_BLE_SDK/GD32VW55x_RELEASE_V1.0.2/MSDK/lwip/lwip-2.1.2/src/core/ipv4\igmp.c ****  */
 712:C:/Users/stapi/OneDrive/Desktop/GD32VW553/V1_MQTT_OK/GD32VW55X_Wifi_BLE_SDK/GD32VW55x_RELEASE_V1.0.2/MSDK/lwip/lwip-2.1.2/src/core/ipv4\igmp.c **** static void
 713:C:/Users/stapi/OneDrive/Desktop/GD32VW553/V1_MQTT_OK/GD32VW55X_Wifi_BLE_SDK/GD32VW55x_RELEASE_V1.0.2/MSDK/lwip/lwip-2.1.2/src/core/ipv4\igmp.c **** igmp_delaying_member(struct igmp_group *group, u8_t maxresp)
 714:C:/Users/stapi/OneDrive/Desktop/GD32VW553/V1_MQTT_OK/GD32VW55X_Wifi_BLE_SDK/GD32VW55x_RELEASE_V1.0.2/MSDK/lwip/lwip-2.1.2/src/core/ipv4\igmp.c **** {
  15              		.loc 1 714 1
  16              		.cfi_startproc
  17              	.LVL0:
  18 0000 17030000 		call	t0,__riscv_save_2
  18      E7020300 
  19              		.cfi_offset 9, -12
  20              		.cfi_offset 8, -8
  21              		.cfi_offset 1, -4
  22              		.cfi_def_cfa_offset 16
 715:C:/Users/stapi/OneDrive/Desktop/GD32VW553/V1_MQTT_OK/GD32VW55X_Wifi_BLE_SDK/GD32VW55x_RELEASE_V1.0.2/MSDK/lwip/lwip-2.1.2/src/core/ipv4\igmp.c ****   if ((group->group_state == IGMP_GROUP_IDLE_MEMBER) ||
  23              		.loc 1 715 3
  24              		.loc 1 715 13 is_stmt 0
  25 0008 83479500 		lbu	a5,9(a0)
  26              		.loc 1 715 6
  27 000c 0947     		li	a4,2
 714:C:/Users/stapi/OneDrive/Desktop/GD32VW553/V1_MQTT_OK/GD32VW55X_Wifi_BLE_SDK/GD32VW55x_RELEASE_V1.0.2/MSDK/lwip/lwip-2.1.2/src/core/ipv4\igmp.c ****   if ((group->group_state == IGMP_GROUP_IDLE_MEMBER) ||
  28              		.loc 1 714 1
  29 000e 2A84     		mv	s0,a0
  30 0010 AE84     		mv	s1,a1
  31              		.loc 1 715 6
  32 0012 638AE700 		beq	a5,a4,.L2
  33              		.loc 1 715 54 discriminator 1
  34 0016 0547     		li	a4,1
  35 0018 6390E702 		bne	a5,a4,.L1
 716:C:/Users/stapi/OneDrive/Desktop/GD32VW553/V1_MQTT_OK/GD32VW55X_Wifi_BLE_SDK/GD32VW55x_RELEASE_V1.0.2/MSDK/lwip/lwip-2.1.2/src/core/ipv4\igmp.c ****       ((group->group_state == IGMP_GROUP_DELAYING_MEMBER) &&
 717:C:/Users/stapi/OneDrive/Desktop/GD32VW553/V1_MQTT_OK/GD32VW55X_Wifi_BLE_SDK/GD32VW55x_RELEASE_V1.0.2/MSDK/lwip/lwip-2.1.2/src/core/ipv4\igmp.c ****        ((group->timer == 0) || (maxresp < group->timer)))) {
  36              		.loc 1 717 15
  37 001c 8357A500 		lhu	a5,10(a0)
 716:C:/Users/stapi/OneDrive/Desktop/GD32VW553/V1_MQTT_OK/GD32VW55X_Wifi_BLE_SDK/GD32VW55x_RELEASE_V1.0.2/MSDK/lwip/lwip-2.1.2/src/core/ipv4\igmp.c ****       ((group->group_state == IGMP_GROUP_DELAYING_MEMBER) &&
  38              		.loc 1 716 59
  39 0020 99C3     		beq	a5,zero,.L2
  40              		.loc 1 717 29
  41 0022 63FBF500 		bleu	a5,a1,.L1
  42              	.L2:
 718:C:/Users/stapi/OneDrive/Desktop/GD32VW553/V1_MQTT_OK/GD32VW55X_Wifi_BLE_SDK/GD32VW55x_RELEASE_V1.0.2/MSDK/lwip/lwip-2.1.2/src/core/ipv4\igmp.c ****     igmp_start_timer(group, maxresp);
  43              		.loc 1 718 5 is_stmt 1
  44              	.LVL1:
  45              	.LBB8:
  46              	.LBB9:
 695:C:/Users/stapi/OneDrive/Desktop/GD32VW553/V1_MQTT_OK/GD32VW55X_Wifi_BLE_SDK/GD32VW55x_RELEASE_V1.0.2/MSDK/lwip/lwip-2.1.2/src/core/ipv4\igmp.c **** #else /* LWIP_RAND */
  47              		.loc 1 695 3
 695:C:/Users/stapi/OneDrive/Desktop/GD32VW553/V1_MQTT_OK/GD32VW55X_Wifi_BLE_SDK/GD32VW55x_RELEASE_V1.0.2/MSDK/lwip/lwip-2.1.2/src/core/ipv4\igmp.c **** #else /* LWIP_RAND */
  48              		.loc 1 695 18 is_stmt 0
  49 0026 8947     		li	a5,2
  50 0028 63EC9700 		bgtu	s1,a5,.L4
  51              	.LVL2:
  52              	.L6:
 695:C:/Users/stapi/OneDrive/Desktop/GD32VW553/V1_MQTT_OK/GD32VW55X_Wifi_BLE_SDK/GD32VW55x_RELEASE_V1.0.2/MSDK/lwip/lwip-2.1.2/src/core/ipv4\igmp.c **** #else /* LWIP_RAND */
  53              		.loc 1 695 16
  54 002c 8547     		li	a5,1
  55 002e 2315F400 		sh	a5,10(s0)
 701:C:/Users/stapi/OneDrive/Desktop/GD32VW553/V1_MQTT_OK/GD32VW55X_Wifi_BLE_SDK/GD32VW55x_RELEASE_V1.0.2/MSDK/lwip/lwip-2.1.2/src/core/ipv4\igmp.c ****     group->timer = 1;
  56              		.loc 1 701 3 is_stmt 1
  57              	.L5:
  58              	.LVL3:
  59              	.LBE9:
  60              	.LBE8:
 719:C:/Users/stapi/OneDrive/Desktop/GD32VW553/V1_MQTT_OK/GD32VW55X_Wifi_BLE_SDK/GD32VW55x_RELEASE_V1.0.2/MSDK/lwip/lwip-2.1.2/src/core/ipv4\igmp.c ****     group->group_state = IGMP_GROUP_DELAYING_MEMBER;
  61              		.loc 1 719 5
  62              		.loc 1 719 24 is_stmt 0
  63 0032 8547     		li	a5,1
  64 0034 A304F400 		sb	a5,9(s0)
  65              	.L1:
 720:C:/Users/stapi/OneDrive/Desktop/GD32VW553/V1_MQTT_OK/GD32VW55X_Wifi_BLE_SDK/GD32VW55x_RELEASE_V1.0.2/MSDK/lwip/lwip-2.1.2/src/core/ipv4\igmp.c ****   }
 721:C:/Users/stapi/OneDrive/Desktop/GD32VW553/V1_MQTT_OK/GD32VW55X_Wifi_BLE_SDK/GD32VW55x_RELEASE_V1.0.2/MSDK/lwip/lwip-2.1.2/src/core/ipv4\igmp.c **** }
  66              		.loc 1 721 1
  67 0038 17030000 		tail	__riscv_restore_2
  67      67000300 
  68              		.cfi_remember_state
  69              		.cfi_restore 9
  70              		.cfi_restore 8
  71              		.cfi_restore 1
  72              		.cfi_def_cfa_offset 0
  73              	.LVL4:
  74              	.L4:
  75              		.cfi_restore_state
  76              	.LBB11:
  77              	.LBB10:
 695:C:/Users/stapi/OneDrive/Desktop/GD32VW553/V1_MQTT_OK/GD32VW55X_Wifi_BLE_SDK/GD32VW55x_RELEASE_V1.0.2/MSDK/lwip/lwip-2.1.2/src/core/ipv4\igmp.c **** #else /* LWIP_RAND */
  78              		.loc 1 695 42
  79 0040 97000000 		call	rand
  79      E7800000 
  80              	.LVL5:
 695:C:/Users/stapi/OneDrive/Desktop/GD32VW553/V1_MQTT_OK/GD32VW55X_Wifi_BLE_SDK/GD32VW55x_RELEASE_V1.0.2/MSDK/lwip/lwip-2.1.2/src/core/ipv4\igmp.c **** #else /* LWIP_RAND */
  81              		.loc 1 695 54
  82 0048 B3749502 		remu	s1,a0,s1
  83              	.LVL6:
 695:C:/Users/stapi/OneDrive/Desktop/GD32VW553/V1_MQTT_OK/GD32VW55X_Wifi_BLE_SDK/GD32VW55x_RELEASE_V1.0.2/MSDK/lwip/lwip-2.1.2/src/core/ipv4\igmp.c **** #else /* LWIP_RAND */
  84              		.loc 1 695 18
  85 004c 23159400 		sh	s1,10(s0)
 701:C:/Users/stapi/OneDrive/Desktop/GD32VW553/V1_MQTT_OK/GD32VW55X_Wifi_BLE_SDK/GD32VW55x_RELEASE_V1.0.2/MSDK/lwip/lwip-2.1.2/src/core/ipv4\igmp.c ****     group->timer = 1;
  86              		.loc 1 701 3 is_stmt 1
 701:C:/Users/stapi/OneDrive/Desktop/GD32VW553/V1_MQTT_OK/GD32VW55X_Wifi_BLE_SDK/GD32VW55x_RELEASE_V1.0.2/MSDK/lwip/lwip-2.1.2/src/core/ipv4\igmp.c ****     group->timer = 1;
  87              		.loc 1 701 6 is_stmt 0
  88 0050 F1DC     		beq	s1,zero,.L6
  89 0052 C5B7     		j	.L5
  90              	.LBE10:
  91              	.LBE11:
  92              		.cfi_endproc
  93              	.LFE19:
  95              		.section	.rodata.igmp_send.str1.4,"aMS",@progbits,1
  96              		.align	2
  97              	.LC0:
  98 0000 433A2F55 		.string	"C:/Users/stapi/OneDrive/Desktop/GD32VW553/V1_MQTT_OK/GD32VW55X_Wifi_BLE_SDK/GD32VW55x_REL
  98      73657273 
  98      2F737461 
  98      70692F4F 
  98      6E654472 
  99 008f 00       		.align	2
 100              	.LC1:
 101 0090 69676D70 		.string	"igmp_send: check that first pbuf can hold struct igmp_msg"
 101      5F73656E 
 101      643A2063 
 101      6865636B 
 101      20746861 
 102 00ca 0000     		.align	2
 103              	.LC2:
 104 00cc 41737365 		.string	"Assertion \"%s\" failed at line %d in %s\n"
 104      7274696F 
 104      6E202225 
 104      73222066 
 104      61696C65 
 105              		.section	.text.igmp_send,"ax",@progbits
 106              		.align	1
 108              	igmp_send:
 109              	.LFB21:
 722:C:/Users/stapi/OneDrive/Desktop/GD32VW553/V1_MQTT_OK/GD32VW55X_Wifi_BLE_SDK/GD32VW55x_RELEASE_V1.0.2/MSDK/lwip/lwip-2.1.2/src/core/ipv4\igmp.c **** 
 723:C:/Users/stapi/OneDrive/Desktop/GD32VW553/V1_MQTT_OK/GD32VW55X_Wifi_BLE_SDK/GD32VW55x_RELEASE_V1.0.2/MSDK/lwip/lwip-2.1.2/src/core/ipv4\igmp.c **** 
 724:C:/Users/stapi/OneDrive/Desktop/GD32VW553/V1_MQTT_OK/GD32VW55X_Wifi_BLE_SDK/GD32VW55x_RELEASE_V1.0.2/MSDK/lwip/lwip-2.1.2/src/core/ipv4\igmp.c **** /**
 725:C:/Users/stapi/OneDrive/Desktop/GD32VW553/V1_MQTT_OK/GD32VW55X_Wifi_BLE_SDK/GD32VW55x_RELEASE_V1.0.2/MSDK/lwip/lwip-2.1.2/src/core/ipv4\igmp.c ****  * Sends an IP packet on a network interface. This function constructs the IP header
 726:C:/Users/stapi/OneDrive/Desktop/GD32VW553/V1_MQTT_OK/GD32VW55X_Wifi_BLE_SDK/GD32VW55x_RELEASE_V1.0.2/MSDK/lwip/lwip-2.1.2/src/core/ipv4\igmp.c ****  * and calculates the IP header checksum. If the source IP address is NULL,
 727:C:/Users/stapi/OneDrive/Desktop/GD32VW553/V1_MQTT_OK/GD32VW55X_Wifi_BLE_SDK/GD32VW55x_RELEASE_V1.0.2/MSDK/lwip/lwip-2.1.2/src/core/ipv4\igmp.c ****  * the IP address of the outgoing network interface is filled in as source address.
 728:C:/Users/stapi/OneDrive/Desktop/GD32VW553/V1_MQTT_OK/GD32VW55X_Wifi_BLE_SDK/GD32VW55x_RELEASE_V1.0.2/MSDK/lwip/lwip-2.1.2/src/core/ipv4\igmp.c ****  *
 729:C:/Users/stapi/OneDrive/Desktop/GD32VW553/V1_MQTT_OK/GD32VW55X_Wifi_BLE_SDK/GD32VW55x_RELEASE_V1.0.2/MSDK/lwip/lwip-2.1.2/src/core/ipv4\igmp.c ****  * @param p the packet to send (p->payload points to the data, e.g. next
 730:C:/Users/stapi/OneDrive/Desktop/GD32VW553/V1_MQTT_OK/GD32VW55X_Wifi_BLE_SDK/GD32VW55x_RELEASE_V1.0.2/MSDK/lwip/lwip-2.1.2/src/core/ipv4\igmp.c ****             protocol header; if dest == LWIP_IP_HDRINCL, p already includes an
 731:C:/Users/stapi/OneDrive/Desktop/GD32VW553/V1_MQTT_OK/GD32VW55X_Wifi_BLE_SDK/GD32VW55x_RELEASE_V1.0.2/MSDK/lwip/lwip-2.1.2/src/core/ipv4\igmp.c ****             IP header and p->payload points to that IP header)
 732:C:/Users/stapi/OneDrive/Desktop/GD32VW553/V1_MQTT_OK/GD32VW55X_Wifi_BLE_SDK/GD32VW55x_RELEASE_V1.0.2/MSDK/lwip/lwip-2.1.2/src/core/ipv4\igmp.c ****  * @param src the source IP address to send from (if src == IP4_ADDR_ANY, the
 733:C:/Users/stapi/OneDrive/Desktop/GD32VW553/V1_MQTT_OK/GD32VW55X_Wifi_BLE_SDK/GD32VW55x_RELEASE_V1.0.2/MSDK/lwip/lwip-2.1.2/src/core/ipv4\igmp.c ****  *         IP  address of the netif used to send is used as source address)
 734:C:/Users/stapi/OneDrive/Desktop/GD32VW553/V1_MQTT_OK/GD32VW55X_Wifi_BLE_SDK/GD32VW55x_RELEASE_V1.0.2/MSDK/lwip/lwip-2.1.2/src/core/ipv4\igmp.c ****  * @param dest the destination IP address to send the packet to
 735:C:/Users/stapi/OneDrive/Desktop/GD32VW553/V1_MQTT_OK/GD32VW55X_Wifi_BLE_SDK/GD32VW55x_RELEASE_V1.0.2/MSDK/lwip/lwip-2.1.2/src/core/ipv4\igmp.c ****  * @param netif the netif on which to send this packet
 736:C:/Users/stapi/OneDrive/Desktop/GD32VW553/V1_MQTT_OK/GD32VW55X_Wifi_BLE_SDK/GD32VW55x_RELEASE_V1.0.2/MSDK/lwip/lwip-2.1.2/src/core/ipv4\igmp.c ****  * @return ERR_OK if the packet was sent OK
 737:C:/Users/stapi/OneDrive/Desktop/GD32VW553/V1_MQTT_OK/GD32VW55X_Wifi_BLE_SDK/GD32VW55x_RELEASE_V1.0.2/MSDK/lwip/lwip-2.1.2/src/core/ipv4\igmp.c ****  *         ERR_BUF if p doesn't have enough space for IP/LINK headers
 738:C:/Users/stapi/OneDrive/Desktop/GD32VW553/V1_MQTT_OK/GD32VW55X_Wifi_BLE_SDK/GD32VW55x_RELEASE_V1.0.2/MSDK/lwip/lwip-2.1.2/src/core/ipv4\igmp.c ****  *         returns errors returned by netif->output
 739:C:/Users/stapi/OneDrive/Desktop/GD32VW553/V1_MQTT_OK/GD32VW55X_Wifi_BLE_SDK/GD32VW55x_RELEASE_V1.0.2/MSDK/lwip/lwip-2.1.2/src/core/ipv4\igmp.c ****  */
 740:C:/Users/stapi/OneDrive/Desktop/GD32VW553/V1_MQTT_OK/GD32VW55X_Wifi_BLE_SDK/GD32VW55x_RELEASE_V1.0.2/MSDK/lwip/lwip-2.1.2/src/core/ipv4\igmp.c **** static err_t
 741:C:/Users/stapi/OneDrive/Desktop/GD32VW553/V1_MQTT_OK/GD32VW55X_Wifi_BLE_SDK/GD32VW55x_RELEASE_V1.0.2/MSDK/lwip/lwip-2.1.2/src/core/ipv4\igmp.c **** igmp_ip_output_if(struct pbuf *p, const ip4_addr_t *src, const ip4_addr_t *dest, struct netif *neti
 742:C:/Users/stapi/OneDrive/Desktop/GD32VW553/V1_MQTT_OK/GD32VW55X_Wifi_BLE_SDK/GD32VW55x_RELEASE_V1.0.2/MSDK/lwip/lwip-2.1.2/src/core/ipv4\igmp.c **** {
 743:C:/Users/stapi/OneDrive/Desktop/GD32VW553/V1_MQTT_OK/GD32VW55X_Wifi_BLE_SDK/GD32VW55x_RELEASE_V1.0.2/MSDK/lwip/lwip-2.1.2/src/core/ipv4\igmp.c ****   /* This is the "router alert" option */
 744:C:/Users/stapi/OneDrive/Desktop/GD32VW553/V1_MQTT_OK/GD32VW55X_Wifi_BLE_SDK/GD32VW55x_RELEASE_V1.0.2/MSDK/lwip/lwip-2.1.2/src/core/ipv4\igmp.c ****   u16_t ra[2];
 745:C:/Users/stapi/OneDrive/Desktop/GD32VW553/V1_MQTT_OK/GD32VW55X_Wifi_BLE_SDK/GD32VW55x_RELEASE_V1.0.2/MSDK/lwip/lwip-2.1.2/src/core/ipv4\igmp.c ****   ra[0] = PP_HTONS(ROUTER_ALERT);
 746:C:/Users/stapi/OneDrive/Desktop/GD32VW553/V1_MQTT_OK/GD32VW55X_Wifi_BLE_SDK/GD32VW55x_RELEASE_V1.0.2/MSDK/lwip/lwip-2.1.2/src/core/ipv4\igmp.c ****   ra[1] = 0x0000; /* Router shall examine packet */
 747:C:/Users/stapi/OneDrive/Desktop/GD32VW553/V1_MQTT_OK/GD32VW55X_Wifi_BLE_SDK/GD32VW55x_RELEASE_V1.0.2/MSDK/lwip/lwip-2.1.2/src/core/ipv4\igmp.c ****   IGMP_STATS_INC(igmp.xmit);
 748:C:/Users/stapi/OneDrive/Desktop/GD32VW553/V1_MQTT_OK/GD32VW55X_Wifi_BLE_SDK/GD32VW55x_RELEASE_V1.0.2/MSDK/lwip/lwip-2.1.2/src/core/ipv4\igmp.c ****   return ip4_output_if_opt(p, src, dest, IGMP_TTL, 0, IP_PROTO_IGMP, netif, ra, ROUTER_ALERTLEN);
 749:C:/Users/stapi/OneDrive/Desktop/GD32VW553/V1_MQTT_OK/GD32VW55X_Wifi_BLE_SDK/GD32VW55x_RELEASE_V1.0.2/MSDK/lwip/lwip-2.1.2/src/core/ipv4\igmp.c **** }
 750:C:/Users/stapi/OneDrive/Desktop/GD32VW553/V1_MQTT_OK/GD32VW55X_Wifi_BLE_SDK/GD32VW55x_RELEASE_V1.0.2/MSDK/lwip/lwip-2.1.2/src/core/ipv4\igmp.c **** 
 751:C:/Users/stapi/OneDrive/Desktop/GD32VW553/V1_MQTT_OK/GD32VW55X_Wifi_BLE_SDK/GD32VW55x_RELEASE_V1.0.2/MSDK/lwip/lwip-2.1.2/src/core/ipv4\igmp.c **** /**
 752:C:/Users/stapi/OneDrive/Desktop/GD32VW553/V1_MQTT_OK/GD32VW55X_Wifi_BLE_SDK/GD32VW55x_RELEASE_V1.0.2/MSDK/lwip/lwip-2.1.2/src/core/ipv4\igmp.c ****  * Send an igmp packet to a specific group.
 753:C:/Users/stapi/OneDrive/Desktop/GD32VW553/V1_MQTT_OK/GD32VW55X_Wifi_BLE_SDK/GD32VW55x_RELEASE_V1.0.2/MSDK/lwip/lwip-2.1.2/src/core/ipv4\igmp.c ****  *
 754:C:/Users/stapi/OneDrive/Desktop/GD32VW553/V1_MQTT_OK/GD32VW55X_Wifi_BLE_SDK/GD32VW55x_RELEASE_V1.0.2/MSDK/lwip/lwip-2.1.2/src/core/ipv4\igmp.c ****  * @param group the group to which to send the packet
 755:C:/Users/stapi/OneDrive/Desktop/GD32VW553/V1_MQTT_OK/GD32VW55X_Wifi_BLE_SDK/GD32VW55x_RELEASE_V1.0.2/MSDK/lwip/lwip-2.1.2/src/core/ipv4\igmp.c ****  * @param type the type of igmp packet to send
 756:C:/Users/stapi/OneDrive/Desktop/GD32VW553/V1_MQTT_OK/GD32VW55X_Wifi_BLE_SDK/GD32VW55x_RELEASE_V1.0.2/MSDK/lwip/lwip-2.1.2/src/core/ipv4\igmp.c ****  */
 757:C:/Users/stapi/OneDrive/Desktop/GD32VW553/V1_MQTT_OK/GD32VW55X_Wifi_BLE_SDK/GD32VW55x_RELEASE_V1.0.2/MSDK/lwip/lwip-2.1.2/src/core/ipv4\igmp.c **** static void
 758:C:/Users/stapi/OneDrive/Desktop/GD32VW553/V1_MQTT_OK/GD32VW55X_Wifi_BLE_SDK/GD32VW55x_RELEASE_V1.0.2/MSDK/lwip/lwip-2.1.2/src/core/ipv4\igmp.c **** igmp_send(struct netif *netif, struct igmp_group *group, u8_t type)
 759:C:/Users/stapi/OneDrive/Desktop/GD32VW553/V1_MQTT_OK/GD32VW55X_Wifi_BLE_SDK/GD32VW55x_RELEASE_V1.0.2/MSDK/lwip/lwip-2.1.2/src/core/ipv4\igmp.c **** {
 110              		.loc 1 759 1 is_stmt 1
 111              		.cfi_startproc
 112              	.LVL7:
 113 0000 17030000 		call	t0,__riscv_save_6
 113      E7020300 
 114              		.cfi_offset 21, -28
 115              		.cfi_offset 20, -24
 116              		.cfi_offset 19, -20
 117              		.cfi_offset 18, -16
 118              		.cfi_offset 9, -12
 119              		.cfi_offset 8, -8
 120              		.cfi_offset 1, -4
 121              		.cfi_def_cfa_offset 32
 760:C:/Users/stapi/OneDrive/Desktop/GD32VW553/V1_MQTT_OK/GD32VW55X_Wifi_BLE_SDK/GD32VW55x_RELEASE_V1.0.2/MSDK/lwip/lwip-2.1.2/src/core/ipv4\igmp.c ****   struct pbuf     *p    = NULL;
 122              		.loc 1 760 3
 123              	.LVL8:
 761:C:/Users/stapi/OneDrive/Desktop/GD32VW553/V1_MQTT_OK/GD32VW55X_Wifi_BLE_SDK/GD32VW55x_RELEASE_V1.0.2/MSDK/lwip/lwip-2.1.2/src/core/ipv4\igmp.c ****   struct igmp_msg *igmp = NULL;
 124              		.loc 1 761 3
 762:C:/Users/stapi/OneDrive/Desktop/GD32VW553/V1_MQTT_OK/GD32VW55X_Wifi_BLE_SDK/GD32VW55x_RELEASE_V1.0.2/MSDK/lwip/lwip-2.1.2/src/core/ipv4\igmp.c ****   ip4_addr_t   src  = *IP4_ADDR_ANY4;
 125              		.loc 1 762 3
 126              		.loc 1 762 16 is_stmt 0
 127 0008 B7070000 		lui	a5,%hi(ip_addr_any)
 128 000c 83A70700 		lw	a5,%lo(ip_addr_any)(a5)
 759:C:/Users/stapi/OneDrive/Desktop/GD32VW553/V1_MQTT_OK/GD32VW55X_Wifi_BLE_SDK/GD32VW55x_RELEASE_V1.0.2/MSDK/lwip/lwip-2.1.2/src/core/ipv4\igmp.c ****   struct pbuf     *p    = NULL;
 129              		.loc 1 759 1
 130 0010 0111     		addi	sp,sp,-32
 131              		.cfi_def_cfa_offset 64
 759:C:/Users/stapi/OneDrive/Desktop/GD32VW553/V1_MQTT_OK/GD32VW55X_Wifi_BLE_SDK/GD32VW55x_RELEASE_V1.0.2/MSDK/lwip/lwip-2.1.2/src/core/ipv4\igmp.c ****   struct pbuf     *p    = NULL;
 132              		.loc 1 759 1
 133 0012 2A8A     		mv	s4,a0
 134 0014 2E89     		mv	s2,a1
 135 0016 B28A     		mv	s5,a2
 763:C:/Users/stapi/OneDrive/Desktop/GD32VW553/V1_MQTT_OK/GD32VW55X_Wifi_BLE_SDK/GD32VW55x_RELEASE_V1.0.2/MSDK/lwip/lwip-2.1.2/src/core/ipv4\igmp.c ****   ip4_addr_t  *dest = NULL;
 764:C:/Users/stapi/OneDrive/Desktop/GD32VW553/V1_MQTT_OK/GD32VW55X_Wifi_BLE_SDK/GD32VW55x_RELEASE_V1.0.2/MSDK/lwip/lwip-2.1.2/src/core/ipv4\igmp.c **** 
 765:C:/Users/stapi/OneDrive/Desktop/GD32VW553/V1_MQTT_OK/GD32VW55X_Wifi_BLE_SDK/GD32VW55x_RELEASE_V1.0.2/MSDK/lwip/lwip-2.1.2/src/core/ipv4\igmp.c ****   /* IP header + "router alert" option + IGMP header */
 766:C:/Users/stapi/OneDrive/Desktop/GD32VW553/V1_MQTT_OK/GD32VW55X_Wifi_BLE_SDK/GD32VW55x_RELEASE_V1.0.2/MSDK/lwip/lwip-2.1.2/src/core/ipv4\igmp.c ****   p = pbuf_alloc(PBUF_TRANSPORT, IGMP_MINLEN, PBUF_RAM);
 136              		.loc 1 766 7
 137 0018 A145     		li	a1,8
 138              	.LVL9:
 139 001a 13060028 		li	a2,640
 140              	.LVL10:
 141 001e 13052019 		li	a0,402
 142              	.LVL11:
 762:C:/Users/stapi/OneDrive/Desktop/GD32VW553/V1_MQTT_OK/GD32VW55X_Wifi_BLE_SDK/GD32VW55x_RELEASE_V1.0.2/MSDK/lwip/lwip-2.1.2/src/core/ipv4\igmp.c ****   ip4_addr_t  *dest = NULL;
 143              		.loc 1 762 16
 144 0022 3ECC     		sw	a5,24(sp)
 763:C:/Users/stapi/OneDrive/Desktop/GD32VW553/V1_MQTT_OK/GD32VW55X_Wifi_BLE_SDK/GD32VW55x_RELEASE_V1.0.2/MSDK/lwip/lwip-2.1.2/src/core/ipv4\igmp.c ****   ip4_addr_t  *dest = NULL;
 145              		.loc 1 763 3 is_stmt 1
 146              	.LVL12:
 147              		.loc 1 766 3
 148              		.loc 1 766 7 is_stmt 0
 149 0024 97000000 		call	pbuf_alloc
 149      E7800000 
 150              	.LVL13:
 767:C:/Users/stapi/OneDrive/Desktop/GD32VW553/V1_MQTT_OK/GD32VW55X_Wifi_BLE_SDK/GD32VW55x_RELEASE_V1.0.2/MSDK/lwip/lwip-2.1.2/src/core/ipv4\igmp.c **** 
 768:C:/Users/stapi/OneDrive/Desktop/GD32VW553/V1_MQTT_OK/GD32VW55X_Wifi_BLE_SDK/GD32VW55x_RELEASE_V1.0.2/MSDK/lwip/lwip-2.1.2/src/core/ipv4\igmp.c ****   if (p) {
 151              		.loc 1 768 3 is_stmt 1
 152              		.loc 1 768 6 is_stmt 0
 153 002c 71C1     		beq	a0,zero,.L14
 769:C:/Users/stapi/OneDrive/Desktop/GD32VW553/V1_MQTT_OK/GD32VW55X_Wifi_BLE_SDK/GD32VW55x_RELEASE_V1.0.2/MSDK/lwip/lwip-2.1.2/src/core/ipv4\igmp.c ****     igmp = (struct igmp_msg *)p->payload;
 770:C:/Users/stapi/OneDrive/Desktop/GD32VW553/V1_MQTT_OK/GD32VW55X_Wifi_BLE_SDK/GD32VW55x_RELEASE_V1.0.2/MSDK/lwip/lwip-2.1.2/src/core/ipv4\igmp.c ****     LWIP_ASSERT("igmp_send: check that first pbuf can hold struct igmp_msg",
 154              		.loc 1 770 5
 155 002e 0357A500 		lhu	a4,10(a0)
 156 0032 9D47     		li	a5,7
 157 0034 AA84     		mv	s1,a0
 769:C:/Users/stapi/OneDrive/Desktop/GD32VW553/V1_MQTT_OK/GD32VW55X_Wifi_BLE_SDK/GD32VW55x_RELEASE_V1.0.2/MSDK/lwip/lwip-2.1.2/src/core/ipv4\igmp.c ****     igmp = (struct igmp_msg *)p->payload;
 158              		.loc 1 769 5 is_stmt 1
 159              	.LVL14:
 160              		.loc 1 770 5
 161              		.loc 1 770 5
 162 0036 63E5E702 		bgtu	a4,a5,.L16
 163              		.loc 1 770 5 discriminator 1
 164              		.loc 1 770 5 discriminator 1
 165 003a B7060000 		lui	a3,%hi(.LC0)
 166 003e B7050000 		lui	a1,%hi(.LC1)
 167 0042 37050000 		lui	a0,%hi(.LC2)
 168              	.LVL15:
 169 0046 93860600 		addi	a3,a3,%lo(.LC0)
 170 004a 13062030 		li	a2,770
 171 004e 93850500 		addi	a1,a1,%lo(.LC1)
 172 0052 13050500 		addi	a0,a0,%lo(.LC2)
 173 0056 97000000 		call	printf
 173      E7800000 
 174              	.LVL16:
 175              	.L17:
 176              		.loc 1 770 5 discriminator 1
 177              		.loc 1 770 5 discriminator 1
 178              		.loc 1 770 5 discriminator 1
 179 005e 01A0     		j	.L17
 180              	.LVL17:
 181              	.L16:
 771:C:/Users/stapi/OneDrive/Desktop/GD32VW553/V1_MQTT_OK/GD32VW55X_Wifi_BLE_SDK/GD32VW55x_RELEASE_V1.0.2/MSDK/lwip/lwip-2.1.2/src/core/ipv4\igmp.c ****                 (p->len >= sizeof(struct igmp_msg)));
 772:C:/Users/stapi/OneDrive/Desktop/GD32VW553/V1_MQTT_OK/GD32VW55X_Wifi_BLE_SDK/GD32VW55x_RELEASE_V1.0.2/MSDK/lwip/lwip-2.1.2/src/core/ipv4\igmp.c ****     ip4_addr_copy(src, *netif_ip4_addr(netif));
 182              		.loc 1 772 5 is_stmt 0 discriminator 2
 183 0060 83274A00 		lw	a5,4(s4)
 773:C:/Users/stapi/OneDrive/Desktop/GD32VW553/V1_MQTT_OK/GD32VW55X_Wifi_BLE_SDK/GD32VW55x_RELEASE_V1.0.2/MSDK/lwip/lwip-2.1.2/src/core/ipv4\igmp.c **** 
 774:C:/Users/stapi/OneDrive/Desktop/GD32VW553/V1_MQTT_OK/GD32VW55X_Wifi_BLE_SDK/GD32VW55x_RELEASE_V1.0.2/MSDK/lwip/lwip-2.1.2/src/core/ipv4\igmp.c ****     if (type == IGMP_V2_MEMB_REPORT) {
 184              		.loc 1 774 8 discriminator 2
 185 0064 D945     		li	a1,22
 769:C:/Users/stapi/OneDrive/Desktop/GD32VW553/V1_MQTT_OK/GD32VW55X_Wifi_BLE_SDK/GD32VW55x_RELEASE_V1.0.2/MSDK/lwip/lwip-2.1.2/src/core/ipv4\igmp.c ****     LWIP_ASSERT("igmp_send: check that first pbuf can hold struct igmp_msg",
 186              		.loc 1 769 10 discriminator 2
 187 0066 4041     		lw	s0,4(a0)
 770:C:/Users/stapi/OneDrive/Desktop/GD32VW553/V1_MQTT_OK/GD32VW55X_Wifi_BLE_SDK/GD32VW55x_RELEASE_V1.0.2/MSDK/lwip/lwip-2.1.2/src/core/ipv4\igmp.c ****                 (p->len >= sizeof(struct igmp_msg)));
 188              		.loc 1 770 5 is_stmt 1 discriminator 2
 770:C:/Users/stapi/OneDrive/Desktop/GD32VW553/V1_MQTT_OK/GD32VW55X_Wifi_BLE_SDK/GD32VW55x_RELEASE_V1.0.2/MSDK/lwip/lwip-2.1.2/src/core/ipv4\igmp.c ****                 (p->len >= sizeof(struct igmp_msg)));
 189              		.loc 1 770 5 discriminator 2
 772:C:/Users/stapi/OneDrive/Desktop/GD32VW553/V1_MQTT_OK/GD32VW55X_Wifi_BLE_SDK/GD32VW55x_RELEASE_V1.0.2/MSDK/lwip/lwip-2.1.2/src/core/ipv4\igmp.c **** 
 190              		.loc 1 772 5 discriminator 2
 191 0068 3ECC     		sw	a5,24(sp)
 192              		.loc 1 774 5 discriminator 2
 775:C:/Users/stapi/OneDrive/Desktop/GD32VW553/V1_MQTT_OK/GD32VW55X_Wifi_BLE_SDK/GD32VW55x_RELEASE_V1.0.2/MSDK/lwip/lwip-2.1.2/src/core/ipv4\igmp.c ****       dest = &(group->group_address);
 776:C:/Users/stapi/OneDrive/Desktop/GD32VW553/V1_MQTT_OK/GD32VW55X_Wifi_BLE_SDK/GD32VW55x_RELEASE_V1.0.2/MSDK/lwip/lwip-2.1.2/src/core/ipv4\igmp.c ****       ip4_addr_copy(igmp->igmp_group_address, group->group_address);
 193              		.loc 1 776 7 is_stmt 0 discriminator 2
 194 006a 83274900 		lw	a5,4(s2)
 195 006e 13F6F70F 		andi	a2,a5,255
 196 0072 93D68700 		srli	a3,a5,8
 197 0076 13D70701 		srli	a4,a5,16
 198 007a E183     		srli	a5,a5,24
 774:C:/Users/stapi/OneDrive/Desktop/GD32VW553/V1_MQTT_OK/GD32VW55X_Wifi_BLE_SDK/GD32VW55x_RELEASE_V1.0.2/MSDK/lwip/lwip-2.1.2/src/core/ipv4\igmp.c ****       dest = &(group->group_address);
 199              		.loc 1 774 8 discriminator 2
 200 007c 639FBA06 		bne	s5,a1,.L18
 775:C:/Users/stapi/OneDrive/Desktop/GD32VW553/V1_MQTT_OK/GD32VW55X_Wifi_BLE_SDK/GD32VW55x_RELEASE_V1.0.2/MSDK/lwip/lwip-2.1.2/src/core/ipv4\igmp.c ****       dest = &(group->group_address);
 201              		.loc 1 775 7 is_stmt 1
 202              		.loc 1 776 7 is_stmt 0
 203 0080 A303F400 		sb	a5,7(s0)
 204 0084 2302C400 		sb	a2,4(s0)
 205 0088 A302D400 		sb	a3,5(s0)
 206 008c 2303E400 		sb	a4,6(s0)
 777:C:/Users/stapi/OneDrive/Desktop/GD32VW553/V1_MQTT_OK/GD32VW55X_Wifi_BLE_SDK/GD32VW55x_RELEASE_V1.0.2/MSDK/lwip/lwip-2.1.2/src/core/ipv4\igmp.c ****       group->last_reporter_flag = 1; /* Remember we were the last to report */
 207              		.loc 1 777 33
 208 0090 8547     		li	a5,1
 775:C:/Users/stapi/OneDrive/Desktop/GD32VW553/V1_MQTT_OK/GD32VW55X_Wifi_BLE_SDK/GD32VW55x_RELEASE_V1.0.2/MSDK/lwip/lwip-2.1.2/src/core/ipv4\igmp.c ****       dest = &(group->group_address);
 209              		.loc 1 775 12
 210 0092 93094900 		addi	s3,s2,4
 211              	.LVL18:
 776:C:/Users/stapi/OneDrive/Desktop/GD32VW553/V1_MQTT_OK/GD32VW55X_Wifi_BLE_SDK/GD32VW55x_RELEASE_V1.0.2/MSDK/lwip/lwip-2.1.2/src/core/ipv4\igmp.c ****       group->last_reporter_flag = 1; /* Remember we were the last to report */
 212              		.loc 1 776 7 is_stmt 1
 213              		.loc 1 777 7
 214              		.loc 1 777 33 is_stmt 0
 215 0096 2304F900 		sb	a5,8(s2)
 216              	.LVL19:
 217              	.L19:
 778:C:/Users/stapi/OneDrive/Desktop/GD32VW553/V1_MQTT_OK/GD32VW55X_Wifi_BLE_SDK/GD32VW55x_RELEASE_V1.0.2/MSDK/lwip/lwip-2.1.2/src/core/ipv4\igmp.c ****     } else {
 779:C:/Users/stapi/OneDrive/Desktop/GD32VW553/V1_MQTT_OK/GD32VW55X_Wifi_BLE_SDK/GD32VW55x_RELEASE_V1.0.2/MSDK/lwip/lwip-2.1.2/src/core/ipv4\igmp.c ****       if (type == IGMP_LEAVE_GROUP) {
 780:C:/Users/stapi/OneDrive/Desktop/GD32VW553/V1_MQTT_OK/GD32VW55X_Wifi_BLE_SDK/GD32VW55x_RELEASE_V1.0.2/MSDK/lwip/lwip-2.1.2/src/core/ipv4\igmp.c ****         dest = &allrouters;
 781:C:/Users/stapi/OneDrive/Desktop/GD32VW553/V1_MQTT_OK/GD32VW55X_Wifi_BLE_SDK/GD32VW55x_RELEASE_V1.0.2/MSDK/lwip/lwip-2.1.2/src/core/ipv4\igmp.c ****         ip4_addr_copy(igmp->igmp_group_address, group->group_address);
 782:C:/Users/stapi/OneDrive/Desktop/GD32VW553/V1_MQTT_OK/GD32VW55X_Wifi_BLE_SDK/GD32VW55x_RELEASE_V1.0.2/MSDK/lwip/lwip-2.1.2/src/core/ipv4\igmp.c ****       }
 783:C:/Users/stapi/OneDrive/Desktop/GD32VW553/V1_MQTT_OK/GD32VW55X_Wifi_BLE_SDK/GD32VW55x_RELEASE_V1.0.2/MSDK/lwip/lwip-2.1.2/src/core/ipv4\igmp.c ****     }
 784:C:/Users/stapi/OneDrive/Desktop/GD32VW553/V1_MQTT_OK/GD32VW55X_Wifi_BLE_SDK/GD32VW55x_RELEASE_V1.0.2/MSDK/lwip/lwip-2.1.2/src/core/ipv4\igmp.c **** 
 785:C:/Users/stapi/OneDrive/Desktop/GD32VW553/V1_MQTT_OK/GD32VW55X_Wifi_BLE_SDK/GD32VW55x_RELEASE_V1.0.2/MSDK/lwip/lwip-2.1.2/src/core/ipv4\igmp.c ****     if ((type == IGMP_V2_MEMB_REPORT) || (type == IGMP_LEAVE_GROUP)) {
 218              		.loc 1 785 5 is_stmt 1
 786:C:/Users/stapi/OneDrive/Desktop/GD32VW553/V1_MQTT_OK/GD32VW55X_Wifi_BLE_SDK/GD32VW55x_RELEASE_V1.0.2/MSDK/lwip/lwip-2.1.2/src/core/ipv4\igmp.c ****       igmp->igmp_msgtype  = type;
 219              		.loc 1 786 7
 787:C:/Users/stapi/OneDrive/Desktop/GD32VW553/V1_MQTT_OK/GD32VW55X_Wifi_BLE_SDK/GD32VW55x_RELEASE_V1.0.2/MSDK/lwip/lwip-2.1.2/src/core/ipv4\igmp.c ****       igmp->igmp_maxresp  = 0;
 788:C:/Users/stapi/OneDrive/Desktop/GD32VW553/V1_MQTT_OK/GD32VW55X_Wifi_BLE_SDK/GD32VW55x_RELEASE_V1.0.2/MSDK/lwip/lwip-2.1.2/src/core/ipv4\igmp.c ****       igmp->igmp_checksum = 0;
 789:C:/Users/stapi/OneDrive/Desktop/GD32VW553/V1_MQTT_OK/GD32VW55X_Wifi_BLE_SDK/GD32VW55x_RELEASE_V1.0.2/MSDK/lwip/lwip-2.1.2/src/core/ipv4\igmp.c ****       igmp->igmp_checksum = inet_chksum(igmp, IGMP_MINLEN);
 220              		.loc 1 789 29 is_stmt 0
 221 009a A145     		li	a1,8
 786:C:/Users/stapi/OneDrive/Desktop/GD32VW553/V1_MQTT_OK/GD32VW55X_Wifi_BLE_SDK/GD32VW55x_RELEASE_V1.0.2/MSDK/lwip/lwip-2.1.2/src/core/ipv4\igmp.c ****       igmp->igmp_msgtype  = type;
 222              		.loc 1 786 27
 223 009c 23005401 		sb	s5,0(s0)
 787:C:/Users/stapi/OneDrive/Desktop/GD32VW553/V1_MQTT_OK/GD32VW55X_Wifi_BLE_SDK/GD32VW55x_RELEASE_V1.0.2/MSDK/lwip/lwip-2.1.2/src/core/ipv4\igmp.c ****       igmp->igmp_maxresp  = 0;
 224              		.loc 1 787 7 is_stmt 1
 787:C:/Users/stapi/OneDrive/Desktop/GD32VW553/V1_MQTT_OK/GD32VW55X_Wifi_BLE_SDK/GD32VW55x_RELEASE_V1.0.2/MSDK/lwip/lwip-2.1.2/src/core/ipv4\igmp.c ****       igmp->igmp_maxresp  = 0;
 225              		.loc 1 787 27 is_stmt 0
 226 00a0 A3000400 		sb	zero,1(s0)
 788:C:/Users/stapi/OneDrive/Desktop/GD32VW553/V1_MQTT_OK/GD32VW55X_Wifi_BLE_SDK/GD32VW55x_RELEASE_V1.0.2/MSDK/lwip/lwip-2.1.2/src/core/ipv4\igmp.c ****       igmp->igmp_checksum = inet_chksum(igmp, IGMP_MINLEN);
 227              		.loc 1 788 7 is_stmt 1
 788:C:/Users/stapi/OneDrive/Desktop/GD32VW553/V1_MQTT_OK/GD32VW55X_Wifi_BLE_SDK/GD32VW55x_RELEASE_V1.0.2/MSDK/lwip/lwip-2.1.2/src/core/ipv4\igmp.c ****       igmp->igmp_checksum = inet_chksum(igmp, IGMP_MINLEN);
 228              		.loc 1 788 27 is_stmt 0
 229 00a4 23010400 		sb	zero,2(s0)
 230 00a8 A3010400 		sb	zero,3(s0)
 231              		.loc 1 789 7 is_stmt 1
 232              		.loc 1 789 29 is_stmt 0
 233 00ac 2285     		mv	a0,s0
 234 00ae 97000000 		call	inet_chksum
 234      E7800000 
 235              	.LVL20:
 236              		.loc 1 789 27
 237 00b6 93578500 		srli	a5,a0,8
 238 00ba 2301A400 		sb	a0,2(s0)
 239 00be A301F400 		sb	a5,3(s0)
 790:C:/Users/stapi/OneDrive/Desktop/GD32VW553/V1_MQTT_OK/GD32VW55X_Wifi_BLE_SDK/GD32VW55x_RELEASE_V1.0.2/MSDK/lwip/lwip-2.1.2/src/core/ipv4\igmp.c **** 
 791:C:/Users/stapi/OneDrive/Desktop/GD32VW553/V1_MQTT_OK/GD32VW55X_Wifi_BLE_SDK/GD32VW55x_RELEASE_V1.0.2/MSDK/lwip/lwip-2.1.2/src/core/ipv4\igmp.c ****       igmp_ip_output_if(p, &src, dest, netif);
 240              		.loc 1 791 7 is_stmt 1
 241              	.LVL21:
 242              	.LBB14:
 243              	.LBB15:
 744:C:/Users/stapi/OneDrive/Desktop/GD32VW553/V1_MQTT_OK/GD32VW55X_Wifi_BLE_SDK/GD32VW55x_RELEASE_V1.0.2/MSDK/lwip/lwip-2.1.2/src/core/ipv4\igmp.c ****   ra[0] = PP_HTONS(ROUTER_ALERT);
 244              		.loc 1 744 3
 745:C:/Users/stapi/OneDrive/Desktop/GD32VW553/V1_MQTT_OK/GD32VW55X_Wifi_BLE_SDK/GD32VW55x_RELEASE_V1.0.2/MSDK/lwip/lwip-2.1.2/src/core/ipv4\igmp.c ****   ra[1] = 0x0000; /* Router shall examine packet */
 245              		.loc 1 745 3
 746:C:/Users/stapi/OneDrive/Desktop/GD32VW553/V1_MQTT_OK/GD32VW55X_Wifi_BLE_SDK/GD32VW55x_RELEASE_V1.0.2/MSDK/lwip/lwip-2.1.2/src/core/ipv4\igmp.c ****   IGMP_STATS_INC(igmp.xmit);
 246              		.loc 1 746 3
 745:C:/Users/stapi/OneDrive/Desktop/GD32VW553/V1_MQTT_OK/GD32VW55X_Wifi_BLE_SDK/GD32VW55x_RELEASE_V1.0.2/MSDK/lwip/lwip-2.1.2/src/core/ipv4\igmp.c ****   ra[1] = 0x0000; /* Router shall examine packet */
 247              		.loc 1 745 9 is_stmt 0
 248 00c2 93074049 		li	a5,1172
 249 00c6 3ECE     		sw	a5,28(sp)
 747:C:/Users/stapi/OneDrive/Desktop/GD32VW553/V1_MQTT_OK/GD32VW55X_Wifi_BLE_SDK/GD32VW55x_RELEASE_V1.0.2/MSDK/lwip/lwip-2.1.2/src/core/ipv4\igmp.c ****   return ip4_output_if_opt(p, src, dest, IGMP_TTL, 0, IP_PROTO_IGMP, netif, ra, ROUTER_ALERTLEN);
 250              		.loc 1 747 28 is_stmt 1
 748:C:/Users/stapi/OneDrive/Desktop/GD32VW553/V1_MQTT_OK/GD32VW55X_Wifi_BLE_SDK/GD32VW55x_RELEASE_V1.0.2/MSDK/lwip/lwip-2.1.2/src/core/ipv4\igmp.c **** }
 251              		.loc 1 748 3
 748:C:/Users/stapi/OneDrive/Desktop/GD32VW553/V1_MQTT_OK/GD32VW55X_Wifi_BLE_SDK/GD32VW55x_RELEASE_V1.0.2/MSDK/lwip/lwip-2.1.2/src/core/ipv4\igmp.c **** }
 252              		.loc 1 748 10 is_stmt 0
 253 00c8 9147     		li	a5,4
 254 00ca 3EC0     		sw	a5,0(sp)
 255 00cc 9308C101 		addi	a7,sp,28
 256 00d0 5288     		mv	a6,s4
 257 00d2 8947     		li	a5,2
 258 00d4 0147     		li	a4,0
 259 00d6 8546     		li	a3,1
 260 00d8 4E86     		mv	a2,s3
 261 00da 2C08     		addi	a1,sp,24
 262              	.LVL22:
 263 00dc 2685     		mv	a0,s1
 264 00de 97000000 		call	ip4_output_if_opt
 264      E7800000 
 265              	.LVL23:
 266              	.LBE15:
 267              	.LBE14:
 792:C:/Users/stapi/OneDrive/Desktop/GD32VW553/V1_MQTT_OK/GD32VW55X_Wifi_BLE_SDK/GD32VW55x_RELEASE_V1.0.2/MSDK/lwip/lwip-2.1.2/src/core/ipv4\igmp.c ****     }
 793:C:/Users/stapi/OneDrive/Desktop/GD32VW553/V1_MQTT_OK/GD32VW55X_Wifi_BLE_SDK/GD32VW55x_RELEASE_V1.0.2/MSDK/lwip/lwip-2.1.2/src/core/ipv4\igmp.c **** 
 794:C:/Users/stapi/OneDrive/Desktop/GD32VW553/V1_MQTT_OK/GD32VW55X_Wifi_BLE_SDK/GD32VW55x_RELEASE_V1.0.2/MSDK/lwip/lwip-2.1.2/src/core/ipv4\igmp.c ****     pbuf_free(p);
 268              		.loc 1 794 5 is_stmt 1
 269 00e6 2685     		mv	a0,s1
 270 00e8 97000000 		call	pbuf_free
 270      E7800000 
 271              	.LVL24:
 795:C:/Users/stapi/OneDrive/Desktop/GD32VW553/V1_MQTT_OK/GD32VW55X_Wifi_BLE_SDK/GD32VW55x_RELEASE_V1.0.2/MSDK/lwip/lwip-2.1.2/src/core/ipv4\igmp.c ****   } else {
 796:C:/Users/stapi/OneDrive/Desktop/GD32VW553/V1_MQTT_OK/GD32VW55X_Wifi_BLE_SDK/GD32VW55x_RELEASE_V1.0.2/MSDK/lwip/lwip-2.1.2/src/core/ipv4\igmp.c ****     LWIP_DEBUGF(IGMP_DEBUG, ("igmp_send: not enough memory for igmp_send\n"));
 272              		.loc 1 796 78
 797:C:/Users/stapi/OneDrive/Desktop/GD32VW553/V1_MQTT_OK/GD32VW55X_Wifi_BLE_SDK/GD32VW55x_RELEASE_V1.0.2/MSDK/lwip/lwip-2.1.2/src/core/ipv4\igmp.c ****     IGMP_STATS_INC(igmp.memerr);
 273              		.loc 1 797 32
 274              	.L14:
 798:C:/Users/stapi/OneDrive/Desktop/GD32VW553/V1_MQTT_OK/GD32VW55X_Wifi_BLE_SDK/GD32VW55x_RELEASE_V1.0.2/MSDK/lwip/lwip-2.1.2/src/core/ipv4\igmp.c ****   }
 799:C:/Users/stapi/OneDrive/Desktop/GD32VW553/V1_MQTT_OK/GD32VW55X_Wifi_BLE_SDK/GD32VW55x_RELEASE_V1.0.2/MSDK/lwip/lwip-2.1.2/src/core/ipv4\igmp.c **** }
 275              		.loc 1 799 1 is_stmt 0
 276 00f0 0561     		addi	sp,sp,32
 277              		.cfi_remember_state
 278              		.cfi_def_cfa_offset 0
 279 00f2 17030000 		tail	__riscv_restore_6
 279      67000300 
 280              		.cfi_restore 21
 281              		.cfi_restore 20
 282              		.cfi_restore 19
 283              		.cfi_restore 18
 284              		.cfi_restore 9
 285              		.cfi_restore 8
 286              		.cfi_restore 1
 287              		.cfi_def_cfa_offset -32
 288              	.LVL25:
 289              	.L18:
 290              		.cfi_restore_state
 779:C:/Users/stapi/OneDrive/Desktop/GD32VW553/V1_MQTT_OK/GD32VW55X_Wifi_BLE_SDK/GD32VW55x_RELEASE_V1.0.2/MSDK/lwip/lwip-2.1.2/src/core/ipv4\igmp.c ****         dest = &allrouters;
 291              		.loc 1 779 7 is_stmt 1
 780:C:/Users/stapi/OneDrive/Desktop/GD32VW553/V1_MQTT_OK/GD32VW55X_Wifi_BLE_SDK/GD32VW55x_RELEASE_V1.0.2/MSDK/lwip/lwip-2.1.2/src/core/ipv4\igmp.c ****         ip4_addr_copy(igmp->igmp_group_address, group->group_address);
 292              		.loc 1 780 9
 781:C:/Users/stapi/OneDrive/Desktop/GD32VW553/V1_MQTT_OK/GD32VW55X_Wifi_BLE_SDK/GD32VW55x_RELEASE_V1.0.2/MSDK/lwip/lwip-2.1.2/src/core/ipv4\igmp.c ****       }
 293              		.loc 1 781 9
 780:C:/Users/stapi/OneDrive/Desktop/GD32VW553/V1_MQTT_OK/GD32VW55X_Wifi_BLE_SDK/GD32VW55x_RELEASE_V1.0.2/MSDK/lwip/lwip-2.1.2/src/core/ipv4\igmp.c ****         ip4_addr_copy(igmp->igmp_group_address, group->group_address);
 294              		.loc 1 780 14 is_stmt 0
 295 00fa B7090000 		lui	s3,%hi(.LANCHOR0)
 781:C:/Users/stapi/OneDrive/Desktop/GD32VW553/V1_MQTT_OK/GD32VW55X_Wifi_BLE_SDK/GD32VW55x_RELEASE_V1.0.2/MSDK/lwip/lwip-2.1.2/src/core/ipv4\igmp.c ****       }
 296              		.loc 1 781 9
 297 00fe 2302C400 		sb	a2,4(s0)
 298 0102 A302D400 		sb	a3,5(s0)
 299 0106 2303E400 		sb	a4,6(s0)
 300 010a A303F400 		sb	a5,7(s0)
 780:C:/Users/stapi/OneDrive/Desktop/GD32VW553/V1_MQTT_OK/GD32VW55X_Wifi_BLE_SDK/GD32VW55x_RELEASE_V1.0.2/MSDK/lwip/lwip-2.1.2/src/core/ipv4\igmp.c ****         ip4_addr_copy(igmp->igmp_group_address, group->group_address);
 301              		.loc 1 780 14
 302 010e 93890900 		addi	s3,s3,%lo(.LANCHOR0)
 303 0112 61B7     		j	.L19
 304              		.cfi_endproc
 305              	.LFE21:
 307              		.section	.text.igmp_init,"ax",@progbits
 308              		.align	1
 309              		.globl	igmp_init
 311              	igmp_init:
 312              	.LFB4:
 115:C:/Users/stapi/OneDrive/Desktop/GD32VW553/V1_MQTT_OK/GD32VW55X_Wifi_BLE_SDK/GD32VW55x_RELEASE_V1.0.2/MSDK/lwip/lwip-2.1.2/src/core/ipv4\igmp.c ****   LWIP_DEBUGF(IGMP_DEBUG, ("igmp_init: initializing\n"));
 313              		.loc 1 115 1 is_stmt 1
 314              		.cfi_startproc
 116:C:/Users/stapi/OneDrive/Desktop/GD32VW553/V1_MQTT_OK/GD32VW55X_Wifi_BLE_SDK/GD32VW55x_RELEASE_V1.0.2/MSDK/lwip/lwip-2.1.2/src/core/ipv4\igmp.c **** 
 315              		.loc 1 116 57
 118:C:/Users/stapi/OneDrive/Desktop/GD32VW553/V1_MQTT_OK/GD32VW55X_Wifi_BLE_SDK/GD32VW55x_RELEASE_V1.0.2/MSDK/lwip/lwip-2.1.2/src/core/ipv4\igmp.c ****   IP4_ADDR(&allrouters, 224, 0, 0, 2);
 316              		.loc 1 118 3
 317 0000 B7070001 		li	a5,16777216
 318 0004 37070000 		lui	a4,%hi(.LANCHOR1)
 319 0008 9387070E 		addi	a5,a5,224
 320 000c 2320F700 		sw	a5,%lo(.LANCHOR1)(a4)
 119:C:/Users/stapi/OneDrive/Desktop/GD32VW553/V1_MQTT_OK/GD32VW55X_Wifi_BLE_SDK/GD32VW55x_RELEASE_V1.0.2/MSDK/lwip/lwip-2.1.2/src/core/ipv4\igmp.c **** }
 321              		.loc 1 119 3
 322 0010 B7070002 		li	a5,33554432
 323 0014 37070000 		lui	a4,%hi(.LANCHOR0)
 324 0018 9387070E 		addi	a5,a5,224
 325 001c 2320F700 		sw	a5,%lo(.LANCHOR0)(a4)
 120:C:/Users/stapi/OneDrive/Desktop/GD32VW553/V1_MQTT_OK/GD32VW55X_Wifi_BLE_SDK/GD32VW55x_RELEASE_V1.0.2/MSDK/lwip/lwip-2.1.2/src/core/ipv4\igmp.c **** 
 326              		.loc 1 120 1 is_stmt 0
 327 0020 8280     		ret
 328              		.cfi_endproc
 329              	.LFE4:
 331              		.section	.text.igmp_stop,"ax",@progbits
 332              		.align	1
 333              		.globl	igmp_stop
 335              	igmp_stop:
 336              	.LFB6:
 161:C:/Users/stapi/OneDrive/Desktop/GD32VW553/V1_MQTT_OK/GD32VW55X_Wifi_BLE_SDK/GD32VW55x_RELEASE_V1.0.2/MSDK/lwip/lwip-2.1.2/src/core/ipv4\igmp.c ****   struct igmp_group *group = netif_igmp_data(netif);
 337              		.loc 1 161 1 is_stmt 1
 338              		.cfi_startproc
 339              	.LVL26:
 340 0000 17030000 		call	t0,__riscv_save_3
 340      E7020300 
 341              		.cfi_offset 18, -16
 342              		.cfi_offset 9, -12
 343              		.cfi_offset 8, -8
 344              		.cfi_offset 1, -4
 345              		.cfi_def_cfa_offset 16
 162:C:/Users/stapi/OneDrive/Desktop/GD32VW553/V1_MQTT_OK/GD32VW55X_Wifi_BLE_SDK/GD32VW55x_RELEASE_V1.0.2/MSDK/lwip/lwip-2.1.2/src/core/ipv4\igmp.c **** 
 346              		.loc 1 162 3
 162:C:/Users/stapi/OneDrive/Desktop/GD32VW553/V1_MQTT_OK/GD32VW55X_Wifi_BLE_SDK/GD32VW55x_RELEASE_V1.0.2/MSDK/lwip/lwip-2.1.2/src/core/ipv4\igmp.c **** 
 347              		.loc 1 162 22 is_stmt 0
 348 0008 4451     		lw	s1,36(a0)
 349              	.LVL27:
 164:C:/Users/stapi/OneDrive/Desktop/GD32VW553/V1_MQTT_OK/GD32VW55X_Wifi_BLE_SDK/GD32VW55x_RELEASE_V1.0.2/MSDK/lwip/lwip-2.1.2/src/core/ipv4\igmp.c **** 
 350              		.loc 1 164 3 is_stmt 1
 161:C:/Users/stapi/OneDrive/Desktop/GD32VW553/V1_MQTT_OK/GD32VW55X_Wifi_BLE_SDK/GD32VW55x_RELEASE_V1.0.2/MSDK/lwip/lwip-2.1.2/src/core/ipv4\igmp.c ****   struct igmp_group *group = netif_igmp_data(netif);
 351              		.loc 1 161 1 is_stmt 0
 352 000a 2A84     		mv	s0,a0
 164:C:/Users/stapi/OneDrive/Desktop/GD32VW553/V1_MQTT_OK/GD32VW55X_Wifi_BLE_SDK/GD32VW55x_RELEASE_V1.0.2/MSDK/lwip/lwip-2.1.2/src/core/ipv4\igmp.c **** 
 353              		.loc 1 164 3
 354 000c 23220502 		sw	zero,36(a0)
 166:C:/Users/stapi/OneDrive/Desktop/GD32VW553/V1_MQTT_OK/GD32VW55X_Wifi_BLE_SDK/GD32VW55x_RELEASE_V1.0.2/MSDK/lwip/lwip-2.1.2/src/core/ipv4\igmp.c ****     struct igmp_group *next = group->next; /* avoid use-after-free below */
 355              		.loc 1 166 3 is_stmt 1
 356              	.LVL28:
 357              	.L26:
 166:C:/Users/stapi/OneDrive/Desktop/GD32VW553/V1_MQTT_OK/GD32VW55X_Wifi_BLE_SDK/GD32VW55x_RELEASE_V1.0.2/MSDK/lwip/lwip-2.1.2/src/core/ipv4\igmp.c ****     struct igmp_group *next = group->next; /* avoid use-after-free below */
 358              		.loc 1 166 9
 359 0010 91E4     		bne	s1,zero,.L28
 183:C:/Users/stapi/OneDrive/Desktop/GD32VW553/V1_MQTT_OK/GD32VW55X_Wifi_BLE_SDK/GD32VW55x_RELEASE_V1.0.2/MSDK/lwip/lwip-2.1.2/src/core/ipv4\igmp.c **** }
 360              		.loc 1 183 3
 184:C:/Users/stapi/OneDrive/Desktop/GD32VW553/V1_MQTT_OK/GD32VW55X_Wifi_BLE_SDK/GD32VW55x_RELEASE_V1.0.2/MSDK/lwip/lwip-2.1.2/src/core/ipv4\igmp.c **** 
 361              		.loc 1 184 1 is_stmt 0
 362 0012 0145     		li	a0,0
 363 0014 17030000 		tail	__riscv_restore_3
 363      67000300 
 364              		.cfi_remember_state
 365              		.cfi_restore 18
 366              		.cfi_restore 9
 367              		.cfi_restore 8
 368              		.cfi_restore 1
 369              		.cfi_def_cfa_offset 0
 370              	.L28:
 371              		.cfi_restore_state
 372              	.LBB16:
 167:C:/Users/stapi/OneDrive/Desktop/GD32VW553/V1_MQTT_OK/GD32VW55X_Wifi_BLE_SDK/GD32VW55x_RELEASE_V1.0.2/MSDK/lwip/lwip-2.1.2/src/core/ipv4\igmp.c **** 
 373              		.loc 1 167 5 is_stmt 1
 170:C:/Users/stapi/OneDrive/Desktop/GD32VW553/V1_MQTT_OK/GD32VW55X_Wifi_BLE_SDK/GD32VW55x_RELEASE_V1.0.2/MSDK/lwip/lwip-2.1.2/src/core/ipv4\igmp.c ****       LWIP_DEBUGF(IGMP_DEBUG, ("igmp_stop: igmp_mac_filter(DEL "));
 374              		.loc 1 170 14 is_stmt 0
 375 001c 1C5C     		lw	a5,56(s0)
 167:C:/Users/stapi/OneDrive/Desktop/GD32VW553/V1_MQTT_OK/GD32VW55X_Wifi_BLE_SDK/GD32VW55x_RELEASE_V1.0.2/MSDK/lwip/lwip-2.1.2/src/core/ipv4\igmp.c **** 
 376              		.loc 1 167 24
 377 001e 03A90400 		lw	s2,0(s1)
 378              	.LVL29:
 170:C:/Users/stapi/OneDrive/Desktop/GD32VW553/V1_MQTT_OK/GD32VW55X_Wifi_BLE_SDK/GD32VW55x_RELEASE_V1.0.2/MSDK/lwip/lwip-2.1.2/src/core/ipv4\igmp.c ****       LWIP_DEBUGF(IGMP_DEBUG, ("igmp_stop: igmp_mac_filter(DEL "));
 379              		.loc 1 170 5 is_stmt 1
 170:C:/Users/stapi/OneDrive/Desktop/GD32VW553/V1_MQTT_OK/GD32VW55X_Wifi_BLE_SDK/GD32VW55x_RELEASE_V1.0.2/MSDK/lwip/lwip-2.1.2/src/core/ipv4\igmp.c ****       LWIP_DEBUGF(IGMP_DEBUG, ("igmp_stop: igmp_mac_filter(DEL "));
 380              		.loc 1 170 8 is_stmt 0
 381 0022 91C7     		beq	a5,zero,.L27
 171:C:/Users/stapi/OneDrive/Desktop/GD32VW553/V1_MQTT_OK/GD32VW55X_Wifi_BLE_SDK/GD32VW55x_RELEASE_V1.0.2/MSDK/lwip/lwip-2.1.2/src/core/ipv4\igmp.c ****       ip4_addr_debug_print_val(IGMP_DEBUG, group->group_address);
 382              		.loc 1 171 67 is_stmt 1
 172:C:/Users/stapi/OneDrive/Desktop/GD32VW553/V1_MQTT_OK/GD32VW55X_Wifi_BLE_SDK/GD32VW55x_RELEASE_V1.0.2/MSDK/lwip/lwip-2.1.2/src/core/ipv4\igmp.c ****       LWIP_DEBUGF(IGMP_DEBUG, (") on if %p\n", (void *)netif));
 383              		.loc 1 172 65
 173:C:/Users/stapi/OneDrive/Desktop/GD32VW553/V1_MQTT_OK/GD32VW55X_Wifi_BLE_SDK/GD32VW55x_RELEASE_V1.0.2/MSDK/lwip/lwip-2.1.2/src/core/ipv4\igmp.c ****       netif->igmp_mac_filter(netif, &(group->group_address), NETIF_DEL_MAC_FILTER);
 384              		.loc 1 173 63
 174:C:/Users/stapi/OneDrive/Desktop/GD32VW553/V1_MQTT_OK/GD32VW55X_Wifi_BLE_SDK/GD32VW55x_RELEASE_V1.0.2/MSDK/lwip/lwip-2.1.2/src/core/ipv4\igmp.c ****     }
 385              		.loc 1 174 7
 386 0024 0146     		li	a2,0
 387 0026 93854400 		addi	a1,s1,4
 388 002a 2285     		mv	a0,s0
 389 002c 8297     		jalr	a5
 390              	.LVL30:
 391              	.L27:
 178:C:/Users/stapi/OneDrive/Desktop/GD32VW553/V1_MQTT_OK/GD32VW55X_Wifi_BLE_SDK/GD32VW55x_RELEASE_V1.0.2/MSDK/lwip/lwip-2.1.2/src/core/ipv4\igmp.c **** 
 392              		.loc 1 178 5
 393 002e A685     		mv	a1,s1
 394 0030 3145     		li	a0,12
 395 0032 97000000 		call	memp_free
 395      E7800000 
 396              	.LVL31:
 181:C:/Users/stapi/OneDrive/Desktop/GD32VW553/V1_MQTT_OK/GD32VW55X_Wifi_BLE_SDK/GD32VW55x_RELEASE_V1.0.2/MSDK/lwip/lwip-2.1.2/src/core/ipv4\igmp.c ****   }
 397              		.loc 1 181 5
 181:C:/Users/stapi/OneDrive/Desktop/GD32VW553/V1_MQTT_OK/GD32VW55X_Wifi_BLE_SDK/GD32VW55x_RELEASE_V1.0.2/MSDK/lwip/lwip-2.1.2/src/core/ipv4\igmp.c ****   }
 398              		.loc 1 181 11 is_stmt 0
 399 003a CA84     		mv	s1,s2
 400 003c D1BF     		j	.L26
 401              	.LBE16:
 402              		.cfi_endproc
 403              	.LFE6:
 405              		.section	.text.igmp_report_groups,"ax",@progbits
 406              		.align	1
 407              		.globl	igmp_report_groups
 409              	igmp_report_groups:
 410              	.LFB7:
 193:C:/Users/stapi/OneDrive/Desktop/GD32VW553/V1_MQTT_OK/GD32VW55X_Wifi_BLE_SDK/GD32VW55x_RELEASE_V1.0.2/MSDK/lwip/lwip-2.1.2/src/core/ipv4\igmp.c ****   struct igmp_group *group = netif_igmp_data(netif);
 411              		.loc 1 193 1 is_stmt 1
 412              		.cfi_startproc
 413              	.LVL32:
 194:C:/Users/stapi/OneDrive/Desktop/GD32VW553/V1_MQTT_OK/GD32VW55X_Wifi_BLE_SDK/GD32VW55x_RELEASE_V1.0.2/MSDK/lwip/lwip-2.1.2/src/core/ipv4\igmp.c **** 
 414              		.loc 1 194 3
 194:C:/Users/stapi/OneDrive/Desktop/GD32VW553/V1_MQTT_OK/GD32VW55X_Wifi_BLE_SDK/GD32VW55x_RELEASE_V1.0.2/MSDK/lwip/lwip-2.1.2/src/core/ipv4\igmp.c **** 
 415              		.loc 1 194 22 is_stmt 0
 416 0000 5C51     		lw	a5,36(a0)
 417              	.LVL33:
 196:C:/Users/stapi/OneDrive/Desktop/GD32VW553/V1_MQTT_OK/GD32VW55X_Wifi_BLE_SDK/GD32VW55x_RELEASE_V1.0.2/MSDK/lwip/lwip-2.1.2/src/core/ipv4\igmp.c **** 
 418              		.loc 1 196 98 is_stmt 1
 199:C:/Users/stapi/OneDrive/Desktop/GD32VW553/V1_MQTT_OK/GD32VW55X_Wifi_BLE_SDK/GD32VW55x_RELEASE_V1.0.2/MSDK/lwip/lwip-2.1.2/src/core/ipv4\igmp.c ****     group = group->next;
 419              		.loc 1 199 3
 199:C:/Users/stapi/OneDrive/Desktop/GD32VW553/V1_MQTT_OK/GD32VW55X_Wifi_BLE_SDK/GD32VW55x_RELEASE_V1.0.2/MSDK/lwip/lwip-2.1.2/src/core/ipv4\igmp.c ****     group = group->next;
 420              		.loc 1 199 6 is_stmt 0
 421 0002 9DC3     		beq	a5,zero,.L39
 193:C:/Users/stapi/OneDrive/Desktop/GD32VW553/V1_MQTT_OK/GD32VW55X_Wifi_BLE_SDK/GD32VW55x_RELEASE_V1.0.2/MSDK/lwip/lwip-2.1.2/src/core/ipv4\igmp.c ****   struct igmp_group *group = netif_igmp_data(netif);
 422              		.loc 1 193 1
 423 0004 17030000 		call	t0,__riscv_save_1
 423      E7020300 
 424              		.cfi_offset 8, -8
 425              		.cfi_offset 1, -4
 426              		.cfi_def_cfa_offset 16
 200:C:/Users/stapi/OneDrive/Desktop/GD32VW553/V1_MQTT_OK/GD32VW55X_Wifi_BLE_SDK/GD32VW55x_RELEASE_V1.0.2/MSDK/lwip/lwip-2.1.2/src/core/ipv4\igmp.c ****   }
 427              		.loc 1 200 5 is_stmt 1
 200:C:/Users/stapi/OneDrive/Desktop/GD32VW553/V1_MQTT_OK/GD32VW55X_Wifi_BLE_SDK/GD32VW55x_RELEASE_V1.0.2/MSDK/lwip/lwip-2.1.2/src/core/ipv4\igmp.c ****   }
 428              		.loc 1 200 11 is_stmt 0
 429 000c 8043     		lw	s0,0(a5)
 430              	.LVL34:
 431              	.L35:
 203:C:/Users/stapi/OneDrive/Desktop/GD32VW553/V1_MQTT_OK/GD32VW55X_Wifi_BLE_SDK/GD32VW55x_RELEASE_V1.0.2/MSDK/lwip/lwip-2.1.2/src/core/ipv4\igmp.c ****     igmp_delaying_member(group, IGMP_JOIN_DELAYING_MEMBER_TMR);
 432              		.loc 1 203 9 is_stmt 1
 433 000e 09E4     		bne	s0,zero,.L36
 207:C:/Users/stapi/OneDrive/Desktop/GD32VW553/V1_MQTT_OK/GD32VW55X_Wifi_BLE_SDK/GD32VW55x_RELEASE_V1.0.2/MSDK/lwip/lwip-2.1.2/src/core/ipv4\igmp.c **** 
 434              		.loc 1 207 1 is_stmt 0
 435 0010 17030000 		tail	__riscv_restore_1
 435      67000300 
 436              		.cfi_remember_state
 437              		.cfi_restore 8
 438              		.cfi_restore 1
 439              		.cfi_def_cfa_offset 0
 440              	.L36:
 441              		.cfi_restore_state
 204:C:/Users/stapi/OneDrive/Desktop/GD32VW553/V1_MQTT_OK/GD32VW55X_Wifi_BLE_SDK/GD32VW55x_RELEASE_V1.0.2/MSDK/lwip/lwip-2.1.2/src/core/ipv4\igmp.c ****     group = group->next;
 442              		.loc 1 204 5 is_stmt 1
 443 0018 2285     		mv	a0,s0
 444 001a 8945     		li	a1,2
 445 001c 97000000 		call	igmp_delaying_member
 445      E7800000 
 446              	.LVL35:
 205:C:/Users/stapi/OneDrive/Desktop/GD32VW553/V1_MQTT_OK/GD32VW55X_Wifi_BLE_SDK/GD32VW55x_RELEASE_V1.0.2/MSDK/lwip/lwip-2.1.2/src/core/ipv4\igmp.c ****   }
 447              		.loc 1 205 5
 205:C:/Users/stapi/OneDrive/Desktop/GD32VW553/V1_MQTT_OK/GD32VW55X_Wifi_BLE_SDK/GD32VW55x_RELEASE_V1.0.2/MSDK/lwip/lwip-2.1.2/src/core/ipv4\igmp.c ****   }
 448              		.loc 1 205 11 is_stmt 0
 449 0024 0040     		lw	s0,0(s0)
 450              	.LVL36:
 451 0026 E5B7     		j	.L35
 452              	.LVL37:
 453              	.L39:
 454              		.cfi_def_cfa_offset 0
 455              		.cfi_restore 1
 456              		.cfi_restore 8
 457 0028 8280     		ret
 458              		.cfi_endproc
 459              	.LFE7:
 461              		.section	.text.igmp_lookfor_group,"ax",@progbits
 462              		.align	1
 463              		.globl	igmp_lookfor_group
 465              	igmp_lookfor_group:
 466              	.LFB8:
 219:C:/Users/stapi/OneDrive/Desktop/GD32VW553/V1_MQTT_OK/GD32VW55X_Wifi_BLE_SDK/GD32VW55x_RELEASE_V1.0.2/MSDK/lwip/lwip-2.1.2/src/core/ipv4\igmp.c ****   struct igmp_group *group = netif_igmp_data(ifp);
 467              		.loc 1 219 1 is_stmt 1
 468              		.cfi_startproc
 469              	.LVL38:
 220:C:/Users/stapi/OneDrive/Desktop/GD32VW553/V1_MQTT_OK/GD32VW55X_Wifi_BLE_SDK/GD32VW55x_RELEASE_V1.0.2/MSDK/lwip/lwip-2.1.2/src/core/ipv4\igmp.c **** 
 470              		.loc 1 220 3
 220:C:/Users/stapi/OneDrive/Desktop/GD32VW553/V1_MQTT_OK/GD32VW55X_Wifi_BLE_SDK/GD32VW55x_RELEASE_V1.0.2/MSDK/lwip/lwip-2.1.2/src/core/ipv4\igmp.c **** 
 471              		.loc 1 220 22 is_stmt 0
 472 0000 4851     		lw	a0,36(a0)
 473              	.LVL39:
 222:C:/Users/stapi/OneDrive/Desktop/GD32VW553/V1_MQTT_OK/GD32VW55X_Wifi_BLE_SDK/GD32VW55x_RELEASE_V1.0.2/MSDK/lwip/lwip-2.1.2/src/core/ipv4\igmp.c ****     if (ip4_addr_cmp(&(group->group_address), addr)) {
 474              		.loc 1 222 3 is_stmt 1
 475              	.L43:
 222:C:/Users/stapi/OneDrive/Desktop/GD32VW553/V1_MQTT_OK/GD32VW55X_Wifi_BLE_SDK/GD32VW55x_RELEASE_V1.0.2/MSDK/lwip/lwip-2.1.2/src/core/ipv4\igmp.c ****     if (ip4_addr_cmp(&(group->group_address), addr)) {
 476              		.loc 1 222 9
 477 0002 11E1     		bne	a0,zero,.L45
 478              	.L42:
 233:C:/Users/stapi/OneDrive/Desktop/GD32VW553/V1_MQTT_OK/GD32VW55X_Wifi_BLE_SDK/GD32VW55x_RELEASE_V1.0.2/MSDK/lwip/lwip-2.1.2/src/core/ipv4\igmp.c **** 
 479              		.loc 1 233 1 is_stmt 0
 480 0004 8280     		ret
 481              	.L45:
 223:C:/Users/stapi/OneDrive/Desktop/GD32VW553/V1_MQTT_OK/GD32VW55X_Wifi_BLE_SDK/GD32VW55x_RELEASE_V1.0.2/MSDK/lwip/lwip-2.1.2/src/core/ipv4\igmp.c ****       return group;
 482              		.loc 1 223 5 is_stmt 1
 223:C:/Users/stapi/OneDrive/Desktop/GD32VW553/V1_MQTT_OK/GD32VW55X_Wifi_BLE_SDK/GD32VW55x_RELEASE_V1.0.2/MSDK/lwip/lwip-2.1.2/src/core/ipv4\igmp.c ****       return group;
 483              		.loc 1 223 8 is_stmt 0
 484 0006 5841     		lw	a4,4(a0)
 485 0008 9C41     		lw	a5,0(a1)
 486 000a E30DF7FE 		beq	a4,a5,.L42
 226:C:/Users/stapi/OneDrive/Desktop/GD32VW553/V1_MQTT_OK/GD32VW55X_Wifi_BLE_SDK/GD32VW55x_RELEASE_V1.0.2/MSDK/lwip/lwip-2.1.2/src/core/ipv4\igmp.c ****   }
 487              		.loc 1 226 5 is_stmt 1
 226:C:/Users/stapi/OneDrive/Desktop/GD32VW553/V1_MQTT_OK/GD32VW55X_Wifi_BLE_SDK/GD32VW55x_RELEASE_V1.0.2/MSDK/lwip/lwip-2.1.2/src/core/ipv4\igmp.c ****   }
 488              		.loc 1 226 11 is_stmt 0
 489 000e 0841     		lw	a0,0(a0)
 490              	.LVL40:
 491 0010 CDBF     		j	.L43
 492              		.cfi_endproc
 493              	.LFE8:
 495              		.section	.rodata.igmp_lookup_group.str1.4,"aMS",@progbits,1
 496              		.align	2
 497              	.LC3:
 498 0000 69676D70 		.string	"igmp_lookup_group: first group must be allsystems"
 498      5F6C6F6F 
 498      6B75705F 
 498      67726F75 
 498      703A2066 
 499 0032 0000     		.align	2
 500              	.LC4:
 501 0034 69676D70 		.string	"igmp_lookup_group: all except first group must not be allsystems"
 501      5F6C6F6F 
 501      6B75705F 
 501      67726F75 
 501      703A2061 
 502              		.section	.text.igmp_lookup_group,"ax",@progbits
 503              		.align	1
 505              	igmp_lookup_group:
 506              	.LFB9:
 245:C:/Users/stapi/OneDrive/Desktop/GD32VW553/V1_MQTT_OK/GD32VW55X_Wifi_BLE_SDK/GD32VW55x_RELEASE_V1.0.2/MSDK/lwip/lwip-2.1.2/src/core/ipv4\igmp.c ****   struct igmp_group *group;
 507              		.loc 1 245 1 is_stmt 1
 508              		.cfi_startproc
 509              	.LVL41:
 510 0000 17030000 		call	t0,__riscv_save_3
 510      E7020300 
 511              		.cfi_offset 18, -16
 512              		.cfi_offset 9, -12
 513              		.cfi_offset 8, -8
 514              		.cfi_offset 1, -4
 515              		.cfi_def_cfa_offset 16
 246:C:/Users/stapi/OneDrive/Desktop/GD32VW553/V1_MQTT_OK/GD32VW55X_Wifi_BLE_SDK/GD32VW55x_RELEASE_V1.0.2/MSDK/lwip/lwip-2.1.2/src/core/ipv4\igmp.c ****   struct igmp_group *list_head = netif_igmp_data(ifp);
 516              		.loc 1 246 3
 247:C:/Users/stapi/OneDrive/Desktop/GD32VW553/V1_MQTT_OK/GD32VW55X_Wifi_BLE_SDK/GD32VW55x_RELEASE_V1.0.2/MSDK/lwip/lwip-2.1.2/src/core/ipv4\igmp.c **** 
 517              		.loc 1 247 3
 245:C:/Users/stapi/OneDrive/Desktop/GD32VW553/V1_MQTT_OK/GD32VW55X_Wifi_BLE_SDK/GD32VW55x_RELEASE_V1.0.2/MSDK/lwip/lwip-2.1.2/src/core/ipv4\igmp.c ****   struct igmp_group *group;
 518              		.loc 1 245 1 is_stmt 0
 519 0008 AA84     		mv	s1,a0
 520              	.LVL42:
 250:C:/Users/stapi/OneDrive/Desktop/GD32VW553/V1_MQTT_OK/GD32VW55X_Wifi_BLE_SDK/GD32VW55x_RELEASE_V1.0.2/MSDK/lwip/lwip-2.1.2/src/core/ipv4\igmp.c ****   if (group != NULL) {
 521              		.loc 1 250 3 is_stmt 1
 245:C:/Users/stapi/OneDrive/Desktop/GD32VW553/V1_MQTT_OK/GD32VW55X_Wifi_BLE_SDK/GD32VW55x_RELEASE_V1.0.2/MSDK/lwip/lwip-2.1.2/src/core/ipv4\igmp.c ****   struct igmp_group *group;
 522              		.loc 1 245 1 is_stmt 0
 523 000a 2E84     		mv	s0,a1
 250:C:/Users/stapi/OneDrive/Desktop/GD32VW553/V1_MQTT_OK/GD32VW55X_Wifi_BLE_SDK/GD32VW55x_RELEASE_V1.0.2/MSDK/lwip/lwip-2.1.2/src/core/ipv4\igmp.c ****   if (group != NULL) {
 524              		.loc 1 250 11
 525 000c 97000000 		call	igmp_lookfor_group
 525      E7800000 
 526              	.LVL43:
 251:C:/Users/stapi/OneDrive/Desktop/GD32VW553/V1_MQTT_OK/GD32VW55X_Wifi_BLE_SDK/GD32VW55x_RELEASE_V1.0.2/MSDK/lwip/lwip-2.1.2/src/core/ipv4\igmp.c ****     /* Group already exists. */
 527              		.loc 1 251 3 is_stmt 1
 251:C:/Users/stapi/OneDrive/Desktop/GD32VW553/V1_MQTT_OK/GD32VW55X_Wifi_BLE_SDK/GD32VW55x_RELEASE_V1.0.2/MSDK/lwip/lwip-2.1.2/src/core/ipv4\igmp.c ****     /* Group already exists. */
 528              		.loc 1 251 6 is_stmt 0
 529 0014 25E1     		bne	a0,zero,.L46
 257:C:/Users/stapi/OneDrive/Desktop/GD32VW553/V1_MQTT_OK/GD32VW55X_Wifi_BLE_SDK/GD32VW55x_RELEASE_V1.0.2/MSDK/lwip/lwip-2.1.2/src/core/ipv4\igmp.c ****   if (group != NULL) {
 530              		.loc 1 257 32
 531 0016 3145     		li	a0,12
 532              	.LVL44:
 247:C:/Users/stapi/OneDrive/Desktop/GD32VW553/V1_MQTT_OK/GD32VW55X_Wifi_BLE_SDK/GD32VW55x_RELEASE_V1.0.2/MSDK/lwip/lwip-2.1.2/src/core/ipv4\igmp.c **** 
 533              		.loc 1 247 22
 534 0018 03A94402 		lw	s2,36(s1)
 257:C:/Users/stapi/OneDrive/Desktop/GD32VW553/V1_MQTT_OK/GD32VW55X_Wifi_BLE_SDK/GD32VW55x_RELEASE_V1.0.2/MSDK/lwip/lwip-2.1.2/src/core/ipv4\igmp.c ****   if (group != NULL) {
 535              		.loc 1 257 3 is_stmt 1
 257:C:/Users/stapi/OneDrive/Desktop/GD32VW553/V1_MQTT_OK/GD32VW55X_Wifi_BLE_SDK/GD32VW55x_RELEASE_V1.0.2/MSDK/lwip/lwip-2.1.2/src/core/ipv4\igmp.c ****   if (group != NULL) {
 536              		.loc 1 257 32 is_stmt 0
 537 001c 97000000 		call	memp_malloc
 537      E7800000 
 538              	.LVL45:
 258:C:/Users/stapi/OneDrive/Desktop/GD32VW553/V1_MQTT_OK/GD32VW55X_Wifi_BLE_SDK/GD32VW55x_RELEASE_V1.0.2/MSDK/lwip/lwip-2.1.2/src/core/ipv4\igmp.c ****     ip4_addr_set(&(group->group_address), addr);
 539              		.loc 1 258 3 is_stmt 1
 258:C:/Users/stapi/OneDrive/Desktop/GD32VW553/V1_MQTT_OK/GD32VW55X_Wifi_BLE_SDK/GD32VW55x_RELEASE_V1.0.2/MSDK/lwip/lwip-2.1.2/src/core/ipv4\igmp.c ****     ip4_addr_set(&(group->group_address), addr);
 540              		.loc 1 258 6 is_stmt 0
 541 0024 21C9     		beq	a0,zero,.L46
 259:C:/Users/stapi/OneDrive/Desktop/GD32VW553/V1_MQTT_OK/GD32VW55X_Wifi_BLE_SDK/GD32VW55x_RELEASE_V1.0.2/MSDK/lwip/lwip-2.1.2/src/core/ipv4\igmp.c ****     group->timer              = 0; /* Not running */
 542              		.loc 1 259 5 is_stmt 1
 543 0026 8147     		li	a5,0
 544 0028 11C0     		beq	s0,zero,.L48
 259:C:/Users/stapi/OneDrive/Desktop/GD32VW553/V1_MQTT_OK/GD32VW55X_Wifi_BLE_SDK/GD32VW55x_RELEASE_V1.0.2/MSDK/lwip/lwip-2.1.2/src/core/ipv4\igmp.c ****     group->timer              = 0; /* Not running */
 545              		.loc 1 259 5 is_stmt 0 discriminator 1
 546 002a 1C40     		lw	a5,0(s0)
 547              	.L48:
 259:C:/Users/stapi/OneDrive/Desktop/GD32VW553/V1_MQTT_OK/GD32VW55X_Wifi_BLE_SDK/GD32VW55x_RELEASE_V1.0.2/MSDK/lwip/lwip-2.1.2/src/core/ipv4\igmp.c ****     group->timer              = 0; /* Not running */
 548              		.loc 1 259 5 discriminator 4
 549 002c 5CC1     		sw	a5,4(a0)
 260:C:/Users/stapi/OneDrive/Desktop/GD32VW553/V1_MQTT_OK/GD32VW55X_Wifi_BLE_SDK/GD32VW55x_RELEASE_V1.0.2/MSDK/lwip/lwip-2.1.2/src/core/ipv4\igmp.c ****     group->group_state        = IGMP_GROUP_NON_MEMBER;
 550              		.loc 1 260 5 is_stmt 1 discriminator 4
 261:C:/Users/stapi/OneDrive/Desktop/GD32VW553/V1_MQTT_OK/GD32VW55X_Wifi_BLE_SDK/GD32VW55x_RELEASE_V1.0.2/MSDK/lwip/lwip-2.1.2/src/core/ipv4\igmp.c ****     group->last_reporter_flag = 0;
 551              		.loc 1 261 5 discriminator 4
 262:C:/Users/stapi/OneDrive/Desktop/GD32VW553/V1_MQTT_OK/GD32VW55X_Wifi_BLE_SDK/GD32VW55x_RELEASE_V1.0.2/MSDK/lwip/lwip-2.1.2/src/core/ipv4\igmp.c ****     group->use                = 0;
 552              		.loc 1 262 5 discriminator 4
 263:C:/Users/stapi/OneDrive/Desktop/GD32VW553/V1_MQTT_OK/GD32VW55X_Wifi_BLE_SDK/GD32VW55x_RELEASE_V1.0.2/MSDK/lwip/lwip-2.1.2/src/core/ipv4\igmp.c **** 
 553              		.loc 1 263 5 discriminator 4
 262:C:/Users/stapi/OneDrive/Desktop/GD32VW553/V1_MQTT_OK/GD32VW55X_Wifi_BLE_SDK/GD32VW55x_RELEASE_V1.0.2/MSDK/lwip/lwip-2.1.2/src/core/ipv4\igmp.c ****     group->use                = 0;
 554              		.loc 1 262 31 is_stmt 0 discriminator 4
 555 002e 23240500 		sw	zero,8(a0)
 263:C:/Users/stapi/OneDrive/Desktop/GD32VW553/V1_MQTT_OK/GD32VW55X_Wifi_BLE_SDK/GD32VW55x_RELEASE_V1.0.2/MSDK/lwip/lwip-2.1.2/src/core/ipv4\igmp.c **** 
 556              		.loc 1 263 31 discriminator 4
 557 0032 23060500 		sb	zero,12(a0)
 266:C:/Users/stapi/OneDrive/Desktop/GD32VW553/V1_MQTT_OK/GD32VW55X_Wifi_BLE_SDK/GD32VW55x_RELEASE_V1.0.2/MSDK/lwip/lwip-2.1.2/src/core/ipv4\igmp.c ****       /* this is the first entry in linked list */
 558              		.loc 1 266 5 is_stmt 1 discriminator 4
 268:C:/Users/stapi/OneDrive/Desktop/GD32VW553/V1_MQTT_OK/GD32VW55X_Wifi_BLE_SDK/GD32VW55x_RELEASE_V1.0.2/MSDK/lwip/lwip-2.1.2/src/core/ipv4\igmp.c ****                   (ip4_addr_cmp(addr, &allsystems) != 0));
 559              		.loc 1 268 7 is_stmt 0 discriminator 4
 560 0036 B7070000 		lui	a5,%hi(.LANCHOR1)
 561 003a 83A70700 		lw	a5,%lo(.LANCHOR1)(a5)
 562 003e 1840     		lw	a4,0(s0)
 266:C:/Users/stapi/OneDrive/Desktop/GD32VW553/V1_MQTT_OK/GD32VW55X_Wifi_BLE_SDK/GD32VW55x_RELEASE_V1.0.2/MSDK/lwip/lwip-2.1.2/src/core/ipv4\igmp.c ****       /* this is the first entry in linked list */
 563              		.loc 1 266 8 discriminator 4
 564 0040 631E0902 		bne	s2,zero,.L49
 268:C:/Users/stapi/OneDrive/Desktop/GD32VW553/V1_MQTT_OK/GD32VW55X_Wifi_BLE_SDK/GD32VW55x_RELEASE_V1.0.2/MSDK/lwip/lwip-2.1.2/src/core/ipv4\igmp.c ****                   (ip4_addr_cmp(addr, &allsystems) != 0));
 565              		.loc 1 268 7 is_stmt 1
 268:C:/Users/stapi/OneDrive/Desktop/GD32VW553/V1_MQTT_OK/GD32VW55X_Wifi_BLE_SDK/GD32VW55x_RELEASE_V1.0.2/MSDK/lwip/lwip-2.1.2/src/core/ipv4\igmp.c ****                   (ip4_addr_cmp(addr, &allsystems) != 0));
 566              		.loc 1 268 7
 567 0044 6305F702 		beq	a4,a5,.L50
 268:C:/Users/stapi/OneDrive/Desktop/GD32VW553/V1_MQTT_OK/GD32VW55X_Wifi_BLE_SDK/GD32VW55x_RELEASE_V1.0.2/MSDK/lwip/lwip-2.1.2/src/core/ipv4\igmp.c ****                   (ip4_addr_cmp(addr, &allsystems) != 0));
 568              		.loc 1 268 7 discriminator 1
 268:C:/Users/stapi/OneDrive/Desktop/GD32VW553/V1_MQTT_OK/GD32VW55X_Wifi_BLE_SDK/GD32VW55x_RELEASE_V1.0.2/MSDK/lwip/lwip-2.1.2/src/core/ipv4\igmp.c ****                   (ip4_addr_cmp(addr, &allsystems) != 0));
 569              		.loc 1 268 7 discriminator 1
 570 0048 B7060000 		lui	a3,%hi(.LC0)
 571 004c B7050000 		lui	a1,%hi(.LC3)
 572 0050 37050000 		lui	a0,%hi(.LC2)
 573              	.LVL46:
 574 0054 93860600 		addi	a3,a3,%lo(.LC0)
 575 0058 1306C010 		li	a2,268
 576 005c 93850500 		addi	a1,a1,%lo(.LC3)
 577 0060 13050500 		addi	a0,a0,%lo(.LC2)
 578 0064 97000000 		call	printf
 578      E7800000 
 579              	.LVL47:
 580              	.L51:
 268:C:/Users/stapi/OneDrive/Desktop/GD32VW553/V1_MQTT_OK/GD32VW55X_Wifi_BLE_SDK/GD32VW55x_RELEASE_V1.0.2/MSDK/lwip/lwip-2.1.2/src/core/ipv4\igmp.c ****                   (ip4_addr_cmp(addr, &allsystems) != 0));
 581              		.loc 1 268 7 discriminator 1
 268:C:/Users/stapi/OneDrive/Desktop/GD32VW553/V1_MQTT_OK/GD32VW55X_Wifi_BLE_SDK/GD32VW55x_RELEASE_V1.0.2/MSDK/lwip/lwip-2.1.2/src/core/ipv4\igmp.c ****                   (ip4_addr_cmp(addr, &allsystems) != 0));
 582              		.loc 1 268 7 discriminator 1
 268:C:/Users/stapi/OneDrive/Desktop/GD32VW553/V1_MQTT_OK/GD32VW55X_Wifi_BLE_SDK/GD32VW55x_RELEASE_V1.0.2/MSDK/lwip/lwip-2.1.2/src/core/ipv4\igmp.c ****                   (ip4_addr_cmp(addr, &allsystems) != 0));
 583              		.loc 1 268 7 discriminator 1
 584 006c 01A0     		j	.L51
 585              	.LVL48:
 586              	.L50:
 268:C:/Users/stapi/OneDrive/Desktop/GD32VW553/V1_MQTT_OK/GD32VW55X_Wifi_BLE_SDK/GD32VW55x_RELEASE_V1.0.2/MSDK/lwip/lwip-2.1.2/src/core/ipv4\igmp.c ****                   (ip4_addr_cmp(addr, &allsystems) != 0));
 587              		.loc 1 268 7 discriminator 2
 268:C:/Users/stapi/OneDrive/Desktop/GD32VW553/V1_MQTT_OK/GD32VW55X_Wifi_BLE_SDK/GD32VW55x_RELEASE_V1.0.2/MSDK/lwip/lwip-2.1.2/src/core/ipv4\igmp.c ****                   (ip4_addr_cmp(addr, &allsystems) != 0));
 588              		.loc 1 268 7 discriminator 2
 270:C:/Users/stapi/OneDrive/Desktop/GD32VW553/V1_MQTT_OK/GD32VW55X_Wifi_BLE_SDK/GD32VW55x_RELEASE_V1.0.2/MSDK/lwip/lwip-2.1.2/src/core/ipv4\igmp.c ****       netif_set_client_data(ifp, LWIP_NETIF_CLIENT_DATA_INDEX_IGMP, group);
 589              		.loc 1 270 7 discriminator 2
 270:C:/Users/stapi/OneDrive/Desktop/GD32VW553/V1_MQTT_OK/GD32VW55X_Wifi_BLE_SDK/GD32VW55x_RELEASE_V1.0.2/MSDK/lwip/lwip-2.1.2/src/core/ipv4\igmp.c ****       netif_set_client_data(ifp, LWIP_NETIF_CLIENT_DATA_INDEX_IGMP, group);
 590              		.loc 1 270 19 is_stmt 0 discriminator 2
 591 006e 23200500 		sw	zero,0(a0)
 271:C:/Users/stapi/OneDrive/Desktop/GD32VW553/V1_MQTT_OK/GD32VW55X_Wifi_BLE_SDK/GD32VW55x_RELEASE_V1.0.2/MSDK/lwip/lwip-2.1.2/src/core/ipv4\igmp.c ****     } else {
 592              		.loc 1 271 7 is_stmt 1 discriminator 2
 593 0072 C8D0     		sw	a0,36(s1)
 594              	.L46:
 286:C:/Users/stapi/OneDrive/Desktop/GD32VW553/V1_MQTT_OK/GD32VW55X_Wifi_BLE_SDK/GD32VW55x_RELEASE_V1.0.2/MSDK/lwip/lwip-2.1.2/src/core/ipv4\igmp.c **** 
 595              		.loc 1 286 1 is_stmt 0
 596 0074 17030000 		tail	__riscv_restore_3
 596      67000300 
 597              		.cfi_remember_state
 598              		.cfi_restore 18
 599              		.cfi_restore 9
 600              		.cfi_restore 8
 601              		.cfi_restore 1
 602              		.cfi_def_cfa_offset 0
 603              	.L49:
 604              		.cfi_restore_state
 274:C:/Users/stapi/OneDrive/Desktop/GD32VW553/V1_MQTT_OK/GD32VW55X_Wifi_BLE_SDK/GD32VW55x_RELEASE_V1.0.2/MSDK/lwip/lwip-2.1.2/src/core/ipv4\igmp.c ****                   (ip4_addr_cmp(addr, &allsystems) == 0));
 605              		.loc 1 274 7 is_stmt 1
 274:C:/Users/stapi/OneDrive/Desktop/GD32VW553/V1_MQTT_OK/GD32VW55X_Wifi_BLE_SDK/GD32VW55x_RELEASE_V1.0.2/MSDK/lwip/lwip-2.1.2/src/core/ipv4\igmp.c ****                   (ip4_addr_cmp(addr, &allsystems) == 0));
 606              		.loc 1 274 7
 607 007c 6315F702 		bne	a4,a5,.L52
 274:C:/Users/stapi/OneDrive/Desktop/GD32VW553/V1_MQTT_OK/GD32VW55X_Wifi_BLE_SDK/GD32VW55x_RELEASE_V1.0.2/MSDK/lwip/lwip-2.1.2/src/core/ipv4\igmp.c ****                   (ip4_addr_cmp(addr, &allsystems) == 0));
 608              		.loc 1 274 7 discriminator 1
 274:C:/Users/stapi/OneDrive/Desktop/GD32VW553/V1_MQTT_OK/GD32VW55X_Wifi_BLE_SDK/GD32VW55x_RELEASE_V1.0.2/MSDK/lwip/lwip-2.1.2/src/core/ipv4\igmp.c ****                   (ip4_addr_cmp(addr, &allsystems) == 0));
 609              		.loc 1 274 7 discriminator 1
 610 0080 B7060000 		lui	a3,%hi(.LC0)
 611 0084 B7050000 		lui	a1,%hi(.LC4)
 612 0088 37050000 		lui	a0,%hi(.LC2)
 613              	.LVL49:
 614 008c 93860600 		addi	a3,a3,%lo(.LC0)
 615 0090 13062011 		li	a2,274
 616 0094 93850500 		addi	a1,a1,%lo(.LC4)
 617 0098 13050500 		addi	a0,a0,%lo(.LC2)
 618 009c 97000000 		call	printf
 618      E7800000 
 619              	.LVL50:
 620              	.L53:
 274:C:/Users/stapi/OneDrive/Desktop/GD32VW553/V1_MQTT_OK/GD32VW55X_Wifi_BLE_SDK/GD32VW55x_RELEASE_V1.0.2/MSDK/lwip/lwip-2.1.2/src/core/ipv4\igmp.c ****                   (ip4_addr_cmp(addr, &allsystems) == 0));
 621              		.loc 1 274 7 discriminator 2
 274:C:/Users/stapi/OneDrive/Desktop/GD32VW553/V1_MQTT_OK/GD32VW55X_Wifi_BLE_SDK/GD32VW55x_RELEASE_V1.0.2/MSDK/lwip/lwip-2.1.2/src/core/ipv4\igmp.c ****                   (ip4_addr_cmp(addr, &allsystems) == 0));
 622              		.loc 1 274 7 discriminator 2
 274:C:/Users/stapi/OneDrive/Desktop/GD32VW553/V1_MQTT_OK/GD32VW55X_Wifi_BLE_SDK/GD32VW55x_RELEASE_V1.0.2/MSDK/lwip/lwip-2.1.2/src/core/ipv4\igmp.c ****                   (ip4_addr_cmp(addr, &allsystems) == 0));
 623              		.loc 1 274 7 discriminator 2
 624 00a4 01A0     		j	.L53
 625              	.LVL51:
 626              	.L52:
 274:C:/Users/stapi/OneDrive/Desktop/GD32VW553/V1_MQTT_OK/GD32VW55X_Wifi_BLE_SDK/GD32VW55x_RELEASE_V1.0.2/MSDK/lwip/lwip-2.1.2/src/core/ipv4\igmp.c ****                   (ip4_addr_cmp(addr, &allsystems) == 0));
 627              		.loc 1 274 7 discriminator 2
 274:C:/Users/stapi/OneDrive/Desktop/GD32VW553/V1_MQTT_OK/GD32VW55X_Wifi_BLE_SDK/GD32VW55x_RELEASE_V1.0.2/MSDK/lwip/lwip-2.1.2/src/core/ipv4\igmp.c ****                   (ip4_addr_cmp(addr, &allsystems) == 0));
 628              		.loc 1 274 7 discriminator 2
 276:C:/Users/stapi/OneDrive/Desktop/GD32VW553/V1_MQTT_OK/GD32VW55X_Wifi_BLE_SDK/GD32VW55x_RELEASE_V1.0.2/MSDK/lwip/lwip-2.1.2/src/core/ipv4\igmp.c ****       list_head->next = group;
 629              		.loc 1 276 7 discriminator 2
 276:C:/Users/stapi/OneDrive/Desktop/GD32VW553/V1_MQTT_OK/GD32VW55X_Wifi_BLE_SDK/GD32VW55x_RELEASE_V1.0.2/MSDK/lwip/lwip-2.1.2/src/core/ipv4\igmp.c ****       list_head->next = group;
 630              		.loc 1 276 30 is_stmt 0 discriminator 2
 631 00a6 83270900 		lw	a5,0(s2)
 276:C:/Users/stapi/OneDrive/Desktop/GD32VW553/V1_MQTT_OK/GD32VW55X_Wifi_BLE_SDK/GD32VW55x_RELEASE_V1.0.2/MSDK/lwip/lwip-2.1.2/src/core/ipv4\igmp.c ****       list_head->next = group;
 632              		.loc 1 276 19 discriminator 2
 633 00aa 1CC1     		sw	a5,0(a0)
 277:C:/Users/stapi/OneDrive/Desktop/GD32VW553/V1_MQTT_OK/GD32VW55X_Wifi_BLE_SDK/GD32VW55x_RELEASE_V1.0.2/MSDK/lwip/lwip-2.1.2/src/core/ipv4\igmp.c ****     }
 634              		.loc 1 277 7 is_stmt 1 discriminator 2
 277:C:/Users/stapi/OneDrive/Desktop/GD32VW553/V1_MQTT_OK/GD32VW55X_Wifi_BLE_SDK/GD32VW55x_RELEASE_V1.0.2/MSDK/lwip/lwip-2.1.2/src/core/ipv4\igmp.c ****     }
 635              		.loc 1 277 23 is_stmt 0 discriminator 2
 636 00ac 2320A900 		sw	a0,0(s2)
 637 00b0 D1B7     		j	.L46
 638              		.cfi_endproc
 639              	.LFE9:
 641              		.section	.text.igmp_start,"ax",@progbits
 642              		.align	1
 643              		.globl	igmp_start
 645              	igmp_start:
 646              	.LFB5:
 129:C:/Users/stapi/OneDrive/Desktop/GD32VW553/V1_MQTT_OK/GD32VW55X_Wifi_BLE_SDK/GD32VW55x_RELEASE_V1.0.2/MSDK/lwip/lwip-2.1.2/src/core/ipv4\igmp.c ****   struct igmp_group *group;
 647              		.loc 1 129 1 is_stmt 1
 648              		.cfi_startproc
 649              	.LVL52:
 650 0000 17030000 		call	t0,__riscv_save_2
 650      E7020300 
 651              		.cfi_offset 9, -12
 652              		.cfi_offset 8, -8
 653              		.cfi_offset 1, -4
 654              		.cfi_def_cfa_offset 16
 130:C:/Users/stapi/OneDrive/Desktop/GD32VW553/V1_MQTT_OK/GD32VW55X_Wifi_BLE_SDK/GD32VW55x_RELEASE_V1.0.2/MSDK/lwip/lwip-2.1.2/src/core/ipv4\igmp.c **** 
 655              		.loc 1 130 3
 132:C:/Users/stapi/OneDrive/Desktop/GD32VW553/V1_MQTT_OK/GD32VW55X_Wifi_BLE_SDK/GD32VW55x_RELEASE_V1.0.2/MSDK/lwip/lwip-2.1.2/src/core/ipv4\igmp.c **** 
 656              		.loc 1 132 94
 134:C:/Users/stapi/OneDrive/Desktop/GD32VW553/V1_MQTT_OK/GD32VW55X_Wifi_BLE_SDK/GD32VW55x_RELEASE_V1.0.2/MSDK/lwip/lwip-2.1.2/src/core/ipv4\igmp.c **** 
 657              		.loc 1 134 3
 134:C:/Users/stapi/OneDrive/Desktop/GD32VW553/V1_MQTT_OK/GD32VW55X_Wifi_BLE_SDK/GD32VW55x_RELEASE_V1.0.2/MSDK/lwip/lwip-2.1.2/src/core/ipv4\igmp.c **** 
 658              		.loc 1 134 11 is_stmt 0
 659 0008 B7040000 		lui	s1,%hi(.LANCHOR1)
 660 000c 93850400 		addi	a1,s1,%lo(.LANCHOR1)
 129:C:/Users/stapi/OneDrive/Desktop/GD32VW553/V1_MQTT_OK/GD32VW55X_Wifi_BLE_SDK/GD32VW55x_RELEASE_V1.0.2/MSDK/lwip/lwip-2.1.2/src/core/ipv4\igmp.c ****   struct igmp_group *group;
 661              		.loc 1 129 1
 662 0010 2A84     		mv	s0,a0
 134:C:/Users/stapi/OneDrive/Desktop/GD32VW553/V1_MQTT_OK/GD32VW55X_Wifi_BLE_SDK/GD32VW55x_RELEASE_V1.0.2/MSDK/lwip/lwip-2.1.2/src/core/ipv4\igmp.c **** 
 663              		.loc 1 134 11
 664 0012 97000000 		call	igmp_lookup_group
 664      E7800000 
 665              	.LVL53:
 136:C:/Users/stapi/OneDrive/Desktop/GD32VW553/V1_MQTT_OK/GD32VW55X_Wifi_BLE_SDK/GD32VW55x_RELEASE_V1.0.2/MSDK/lwip/lwip-2.1.2/src/core/ipv4\igmp.c ****     group->group_state = IGMP_GROUP_IDLE_MEMBER;
 666              		.loc 1 136 3 is_stmt 1
 136:C:/Users/stapi/OneDrive/Desktop/GD32VW553/V1_MQTT_OK/GD32VW55X_Wifi_BLE_SDK/GD32VW55x_RELEASE_V1.0.2/MSDK/lwip/lwip-2.1.2/src/core/ipv4\igmp.c ****     group->group_state = IGMP_GROUP_IDLE_MEMBER;
 667              		.loc 1 136 6 is_stmt 0
 668 001a 15C5     		beq	a0,zero,.L61
 137:C:/Users/stapi/OneDrive/Desktop/GD32VW553/V1_MQTT_OK/GD32VW55X_Wifi_BLE_SDK/GD32VW55x_RELEASE_V1.0.2/MSDK/lwip/lwip-2.1.2/src/core/ipv4\igmp.c ****     group->use++;
 669              		.loc 1 137 5 is_stmt 1
 137:C:/Users/stapi/OneDrive/Desktop/GD32VW553/V1_MQTT_OK/GD32VW55X_Wifi_BLE_SDK/GD32VW55x_RELEASE_V1.0.2/MSDK/lwip/lwip-2.1.2/src/core/ipv4\igmp.c ****     group->use++;
 670              		.loc 1 137 24 is_stmt 0
 671 001c 8947     		li	a5,2
 672 001e A304F500 		sb	a5,9(a0)
 138:C:/Users/stapi/OneDrive/Desktop/GD32VW553/V1_MQTT_OK/GD32VW55X_Wifi_BLE_SDK/GD32VW55x_RELEASE_V1.0.2/MSDK/lwip/lwip-2.1.2/src/core/ipv4\igmp.c **** 
 673              		.loc 1 138 5 is_stmt 1
 138:C:/Users/stapi/OneDrive/Desktop/GD32VW553/V1_MQTT_OK/GD32VW55X_Wifi_BLE_SDK/GD32VW55x_RELEASE_V1.0.2/MSDK/lwip/lwip-2.1.2/src/core/ipv4\igmp.c **** 
 674              		.loc 1 138 15 is_stmt 0
 675 0022 8347C500 		lbu	a5,12(a0)
 676 0026 8507     		addi	a5,a5,1
 677 0028 2306F500 		sb	a5,12(a0)
 141:C:/Users/stapi/OneDrive/Desktop/GD32VW553/V1_MQTT_OK/GD32VW55X_Wifi_BLE_SDK/GD32VW55x_RELEASE_V1.0.2/MSDK/lwip/lwip-2.1.2/src/core/ipv4\igmp.c ****       LWIP_DEBUGF(IGMP_DEBUG, ("igmp_start: igmp_mac_filter(ADD "));
 678              		.loc 1 141 5 is_stmt 1
 141:C:/Users/stapi/OneDrive/Desktop/GD32VW553/V1_MQTT_OK/GD32VW55X_Wifi_BLE_SDK/GD32VW55x_RELEASE_V1.0.2/MSDK/lwip/lwip-2.1.2/src/core/ipv4\igmp.c ****       LWIP_DEBUGF(IGMP_DEBUG, ("igmp_start: igmp_mac_filter(ADD "));
 679              		.loc 1 141 14 is_stmt 0
 680 002c 1C5C     		lw	a5,56(s0)
 148:C:/Users/stapi/OneDrive/Desktop/GD32VW553/V1_MQTT_OK/GD32VW55X_Wifi_BLE_SDK/GD32VW55x_RELEASE_V1.0.2/MSDK/lwip/lwip-2.1.2/src/core/ipv4\igmp.c ****   }
 681              		.loc 1 148 12
 682 002e 0145     		li	a0,0
 683              	.LVL54:
 141:C:/Users/stapi/OneDrive/Desktop/GD32VW553/V1_MQTT_OK/GD32VW55X_Wifi_BLE_SDK/GD32VW55x_RELEASE_V1.0.2/MSDK/lwip/lwip-2.1.2/src/core/ipv4\igmp.c ****       LWIP_DEBUGF(IGMP_DEBUG, ("igmp_start: igmp_mac_filter(ADD "));
 684              		.loc 1 141 8
 685 0030 99C7     		beq	a5,zero,.L60
 142:C:/Users/stapi/OneDrive/Desktop/GD32VW553/V1_MQTT_OK/GD32VW55X_Wifi_BLE_SDK/GD32VW55x_RELEASE_V1.0.2/MSDK/lwip/lwip-2.1.2/src/core/ipv4\igmp.c ****       ip4_addr_debug_print_val(IGMP_DEBUG, allsystems);
 686              		.loc 1 142 68 is_stmt 1
 143:C:/Users/stapi/OneDrive/Desktop/GD32VW553/V1_MQTT_OK/GD32VW55X_Wifi_BLE_SDK/GD32VW55x_RELEASE_V1.0.2/MSDK/lwip/lwip-2.1.2/src/core/ipv4\igmp.c ****       LWIP_DEBUGF(IGMP_DEBUG, (") on if %p\n", (void *)netif));
 687              		.loc 1 143 55
 144:C:/Users/stapi/OneDrive/Desktop/GD32VW553/V1_MQTT_OK/GD32VW55X_Wifi_BLE_SDK/GD32VW55x_RELEASE_V1.0.2/MSDK/lwip/lwip-2.1.2/src/core/ipv4\igmp.c ****       netif->igmp_mac_filter(netif, &allsystems, NETIF_ADD_MAC_FILTER);
 688              		.loc 1 144 63
 145:C:/Users/stapi/OneDrive/Desktop/GD32VW553/V1_MQTT_OK/GD32VW55X_Wifi_BLE_SDK/GD32VW55x_RELEASE_V1.0.2/MSDK/lwip/lwip-2.1.2/src/core/ipv4\igmp.c ****     }
 689              		.loc 1 145 7
 690 0032 0546     		li	a2,1
 691 0034 93850400 		addi	a1,s1,%lo(.LANCHOR1)
 692 0038 2285     		mv	a0,s0
 693 003a 8297     		jalr	a5
 694              	.LVL55:
 148:C:/Users/stapi/OneDrive/Desktop/GD32VW553/V1_MQTT_OK/GD32VW55X_Wifi_BLE_SDK/GD32VW55x_RELEASE_V1.0.2/MSDK/lwip/lwip-2.1.2/src/core/ipv4\igmp.c ****   }
 695              		.loc 1 148 12 is_stmt 0
 696 003c 0145     		li	a0,0
 697              	.L60:
 152:C:/Users/stapi/OneDrive/Desktop/GD32VW553/V1_MQTT_OK/GD32VW55X_Wifi_BLE_SDK/GD32VW55x_RELEASE_V1.0.2/MSDK/lwip/lwip-2.1.2/src/core/ipv4\igmp.c **** 
 698              		.loc 1 152 1
 699 003e 17030000 		tail	__riscv_restore_2
 699      67000300 
 700              		.cfi_remember_state
 701              		.cfi_restore 9
 702              		.cfi_restore 8
 703              		.cfi_restore 1
 704              		.cfi_def_cfa_offset 0
 705              	.LVL56:
 706              	.L61:
 707              		.cfi_restore_state
 151:C:/Users/stapi/OneDrive/Desktop/GD32VW553/V1_MQTT_OK/GD32VW55X_Wifi_BLE_SDK/GD32VW55x_RELEASE_V1.0.2/MSDK/lwip/lwip-2.1.2/src/core/ipv4\igmp.c **** }
 708              		.loc 1 151 10
 709 0046 7D55     		li	a0,-1
 710              	.LVL57:
 711 0048 DDBF     		j	.L60
 712              		.cfi_endproc
 713              	.LFE5:
 715              		.section	.text.igmp_input,"ax",@progbits
 716              		.align	1
 717              		.globl	igmp_input
 719              	igmp_input:
 720              	.LFB11:
 324:C:/Users/stapi/OneDrive/Desktop/GD32VW553/V1_MQTT_OK/GD32VW55X_Wifi_BLE_SDK/GD32VW55x_RELEASE_V1.0.2/MSDK/lwip/lwip-2.1.2/src/core/ipv4\igmp.c ****   struct igmp_msg   *igmp;
 721              		.loc 1 324 1 is_stmt 1
 722              		.cfi_startproc
 723              	.LVL58:
 724 0000 17030000 		call	t0,__riscv_save_4
 724      E7020300 
 725              		.cfi_offset 19, -20
 726              		.cfi_offset 18, -16
 727              		.cfi_offset 9, -12
 728              		.cfi_offset 8, -8
 729              		.cfi_offset 1, -4
 730              		.cfi_def_cfa_offset 32
 325:C:/Users/stapi/OneDrive/Desktop/GD32VW553/V1_MQTT_OK/GD32VW55X_Wifi_BLE_SDK/GD32VW55x_RELEASE_V1.0.2/MSDK/lwip/lwip-2.1.2/src/core/ipv4\igmp.c ****   struct igmp_group *group;
 731              		.loc 1 325 3
 326:C:/Users/stapi/OneDrive/Desktop/GD32VW553/V1_MQTT_OK/GD32VW55X_Wifi_BLE_SDK/GD32VW55x_RELEASE_V1.0.2/MSDK/lwip/lwip-2.1.2/src/core/ipv4\igmp.c ****   struct igmp_group *groupref;
 732              		.loc 1 326 3
 327:C:/Users/stapi/OneDrive/Desktop/GD32VW553/V1_MQTT_OK/GD32VW55X_Wifi_BLE_SDK/GD32VW55x_RELEASE_V1.0.2/MSDK/lwip/lwip-2.1.2/src/core/ipv4\igmp.c **** 
 733              		.loc 1 327 3
 329:C:/Users/stapi/OneDrive/Desktop/GD32VW553/V1_MQTT_OK/GD32VW55X_Wifi_BLE_SDK/GD32VW55x_RELEASE_V1.0.2/MSDK/lwip/lwip-2.1.2/src/core/ipv4\igmp.c **** 
 734              		.loc 1 329 28
 332:C:/Users/stapi/OneDrive/Desktop/GD32VW553/V1_MQTT_OK/GD32VW55X_Wifi_BLE_SDK/GD32VW55x_RELEASE_V1.0.2/MSDK/lwip/lwip-2.1.2/src/core/ipv4\igmp.c ****     pbuf_free(p);
 735              		.loc 1 332 3
 324:C:/Users/stapi/OneDrive/Desktop/GD32VW553/V1_MQTT_OK/GD32VW55X_Wifi_BLE_SDK/GD32VW55x_RELEASE_V1.0.2/MSDK/lwip/lwip-2.1.2/src/core/ipv4\igmp.c ****   struct igmp_msg   *igmp;
 736              		.loc 1 324 1 is_stmt 0
 737 0008 2E89     		mv	s2,a1
 332:C:/Users/stapi/OneDrive/Desktop/GD32VW553/V1_MQTT_OK/GD32VW55X_Wifi_BLE_SDK/GD32VW55x_RELEASE_V1.0.2/MSDK/lwip/lwip-2.1.2/src/core/ipv4\igmp.c ****     pbuf_free(p);
 738              		.loc 1 332 8
 739 000a 8355A500 		lhu	a1,10(a0)
 740              	.LVL59:
 332:C:/Users/stapi/OneDrive/Desktop/GD32VW553/V1_MQTT_OK/GD32VW55X_Wifi_BLE_SDK/GD32VW55x_RELEASE_V1.0.2/MSDK/lwip/lwip-2.1.2/src/core/ipv4\igmp.c ****     pbuf_free(p);
 741              		.loc 1 332 6
 742 000e 9D47     		li	a5,7
 324:C:/Users/stapi/OneDrive/Desktop/GD32VW553/V1_MQTT_OK/GD32VW55X_Wifi_BLE_SDK/GD32VW55x_RELEASE_V1.0.2/MSDK/lwip/lwip-2.1.2/src/core/ipv4\igmp.c ****   struct igmp_msg   *igmp;
 743              		.loc 1 324 1
 744 0010 4111     		addi	sp,sp,-16
 745              		.cfi_def_cfa_offset 48
 324:C:/Users/stapi/OneDrive/Desktop/GD32VW553/V1_MQTT_OK/GD32VW55X_Wifi_BLE_SDK/GD32VW55x_RELEASE_V1.0.2/MSDK/lwip/lwip-2.1.2/src/core/ipv4\igmp.c ****   struct igmp_msg   *igmp;
 746              		.loc 1 324 1
 747 0012 AA84     		mv	s1,a0
 332:C:/Users/stapi/OneDrive/Desktop/GD32VW553/V1_MQTT_OK/GD32VW55X_Wifi_BLE_SDK/GD32VW55x_RELEASE_V1.0.2/MSDK/lwip/lwip-2.1.2/src/core/ipv4\igmp.c ****     pbuf_free(p);
 748              		.loc 1 332 6
 749 0014 63ECB700 		bgtu	a1,a5,.L65
 750              	.LVL60:
 751              	.L70:
 436:C:/Users/stapi/OneDrive/Desktop/GD32VW553/V1_MQTT_OK/GD32VW55X_Wifi_BLE_SDK/GD32VW55x_RELEASE_V1.0.2/MSDK/lwip/lwip-2.1.2/src/core/ipv4\igmp.c ****   return;
 752              		.loc 1 436 3 is_stmt 1
 753 0018 2685     		mv	a0,s1
 754 001a 97000000 		call	pbuf_free
 754      E7800000 
 755              	.LVL61:
 437:C:/Users/stapi/OneDrive/Desktop/GD32VW553/V1_MQTT_OK/GD32VW55X_Wifi_BLE_SDK/GD32VW55x_RELEASE_V1.0.2/MSDK/lwip/lwip-2.1.2/src/core/ipv4\igmp.c **** }
 756              		.loc 1 437 3
 438:C:/Users/stapi/OneDrive/Desktop/GD32VW553/V1_MQTT_OK/GD32VW55X_Wifi_BLE_SDK/GD32VW55x_RELEASE_V1.0.2/MSDK/lwip/lwip-2.1.2/src/core/ipv4\igmp.c **** 
 757              		.loc 1 438 1 is_stmt 0
 758 0022 4101     		addi	sp,sp,16
 759              		.cfi_remember_state
 760              		.cfi_def_cfa_offset 0
 761 0024 17030000 		tail	__riscv_restore_4
 761      67000300 
 762              		.cfi_restore 19
 763              		.cfi_restore 18
 764              		.cfi_restore 9
 765              		.cfi_restore 8
 766              		.cfi_restore 1
 767              		.cfi_def_cfa_offset -32
 768              	.LVL62:
 769              	.L65:
 770              		.cfi_restore_state
 346:C:/Users/stapi/OneDrive/Desktop/GD32VW553/V1_MQTT_OK/GD32VW55X_Wifi_BLE_SDK/GD32VW55x_RELEASE_V1.0.2/MSDK/lwip/lwip-2.1.2/src/core/ipv4\igmp.c ****   if (inet_chksum(igmp, p->len)) {
 771              		.loc 1 346 8
 772 002c 4041     		lw	s0,4(a0)
 773 002e B289     		mv	s3,a2
 339:C:/Users/stapi/OneDrive/Desktop/GD32VW553/V1_MQTT_OK/GD32VW55X_Wifi_BLE_SDK/GD32VW55x_RELEASE_V1.0.2/MSDK/lwip/lwip-2.1.2/src/core/ipv4\igmp.c ****   ip4_addr_debug_print_val(IGMP_DEBUG, ip4_current_header()->src);
 774              		.loc 1 339 57 is_stmt 1
 340:C:/Users/stapi/OneDrive/Desktop/GD32VW553/V1_MQTT_OK/GD32VW55X_Wifi_BLE_SDK/GD32VW55x_RELEASE_V1.0.2/MSDK/lwip/lwip-2.1.2/src/core/ipv4\igmp.c ****   LWIP_DEBUGF(IGMP_DEBUG, (" to address "));
 775              		.loc 1 340 66
 341:C:/Users/stapi/OneDrive/Desktop/GD32VW553/V1_MQTT_OK/GD32VW55X_Wifi_BLE_SDK/GD32VW55x_RELEASE_V1.0.2/MSDK/lwip/lwip-2.1.2/src/core/ipv4\igmp.c ****   ip4_addr_debug_print_val(IGMP_DEBUG, ip4_current_header()->dest);
 776              		.loc 1 341 44
 342:C:/Users/stapi/OneDrive/Desktop/GD32VW553/V1_MQTT_OK/GD32VW55X_Wifi_BLE_SDK/GD32VW55x_RELEASE_V1.0.2/MSDK/lwip/lwip-2.1.2/src/core/ipv4\igmp.c ****   LWIP_DEBUGF(IGMP_DEBUG, (" on if %p\n", (void *)inp));
 777              		.loc 1 342 67
 343:C:/Users/stapi/OneDrive/Desktop/GD32VW553/V1_MQTT_OK/GD32VW55X_Wifi_BLE_SDK/GD32VW55x_RELEASE_V1.0.2/MSDK/lwip/lwip-2.1.2/src/core/ipv4\igmp.c **** 
 778              		.loc 1 343 56
 346:C:/Users/stapi/OneDrive/Desktop/GD32VW553/V1_MQTT_OK/GD32VW55X_Wifi_BLE_SDK/GD32VW55x_RELEASE_V1.0.2/MSDK/lwip/lwip-2.1.2/src/core/ipv4\igmp.c ****   if (inet_chksum(igmp, p->len)) {
 779              		.loc 1 346 3
 780              	.LVL63:
 347:C:/Users/stapi/OneDrive/Desktop/GD32VW553/V1_MQTT_OK/GD32VW55X_Wifi_BLE_SDK/GD32VW55x_RELEASE_V1.0.2/MSDK/lwip/lwip-2.1.2/src/core/ipv4\igmp.c ****     pbuf_free(p);
 781              		.loc 1 347 3
 347:C:/Users/stapi/OneDrive/Desktop/GD32VW553/V1_MQTT_OK/GD32VW55X_Wifi_BLE_SDK/GD32VW55x_RELEASE_V1.0.2/MSDK/lwip/lwip-2.1.2/src/core/ipv4\igmp.c ****     pbuf_free(p);
 782              		.loc 1 347 7 is_stmt 0
 783 0030 2285     		mv	a0,s0
 784 0032 97000000 		call	inet_chksum
 784      E7800000 
 785              	.LVL64:
 347:C:/Users/stapi/OneDrive/Desktop/GD32VW553/V1_MQTT_OK/GD32VW55X_Wifi_BLE_SDK/GD32VW55x_RELEASE_V1.0.2/MSDK/lwip/lwip-2.1.2/src/core/ipv4\igmp.c ****     pbuf_free(p);
 786              		.loc 1 347 6
 787 003a 79FD     		bne	a0,zero,.L70
 355:C:/Users/stapi/OneDrive/Desktop/GD32VW553/V1_MQTT_OK/GD32VW55X_Wifi_BLE_SDK/GD32VW55x_RELEASE_V1.0.2/MSDK/lwip/lwip-2.1.2/src/core/ipv4\igmp.c **** 
 788              		.loc 1 355 3 is_stmt 1
 355:C:/Users/stapi/OneDrive/Desktop/GD32VW553/V1_MQTT_OK/GD32VW55X_Wifi_BLE_SDK/GD32VW55x_RELEASE_V1.0.2/MSDK/lwip/lwip-2.1.2/src/core/ipv4\igmp.c **** 
 789              		.loc 1 355 11 is_stmt 0
 790 003c CE85     		mv	a1,s3
 791 003e 4A85     		mv	a0,s2
 792 0040 97000000 		call	igmp_lookfor_group
 792      E7800000 
 793              	.LVL65:
 358:C:/Users/stapi/OneDrive/Desktop/GD32VW553/V1_MQTT_OK/GD32VW55X_Wifi_BLE_SDK/GD32VW55x_RELEASE_V1.0.2/MSDK/lwip/lwip-2.1.2/src/core/ipv4\igmp.c ****     pbuf_free(p);
 794              		.loc 1 358 3 is_stmt 1
 358:C:/Users/stapi/OneDrive/Desktop/GD32VW553/V1_MQTT_OK/GD32VW55X_Wifi_BLE_SDK/GD32VW55x_RELEASE_V1.0.2/MSDK/lwip/lwip-2.1.2/src/core/ipv4\igmp.c ****     pbuf_free(p);
 795              		.loc 1 358 6 is_stmt 0
 796 0048 61D9     		beq	a0,zero,.L70
 366:C:/Users/stapi/OneDrive/Desktop/GD32VW553/V1_MQTT_OK/GD32VW55X_Wifi_BLE_SDK/GD32VW55x_RELEASE_V1.0.2/MSDK/lwip/lwip-2.1.2/src/core/ipv4\igmp.c ****     case IGMP_MEMB_QUERY:
 797              		.loc 1 366 3 is_stmt 1
 366:C:/Users/stapi/OneDrive/Desktop/GD32VW553/V1_MQTT_OK/GD32VW55X_Wifi_BLE_SDK/GD32VW55x_RELEASE_V1.0.2/MSDK/lwip/lwip-2.1.2/src/core/ipv4\igmp.c ****     case IGMP_MEMB_QUERY:
 798              		.loc 1 366 15 is_stmt 0
 799 004a 83470400 		lbu	a5,0(s0)
 366:C:/Users/stapi/OneDrive/Desktop/GD32VW553/V1_MQTT_OK/GD32VW55X_Wifi_BLE_SDK/GD32VW55x_RELEASE_V1.0.2/MSDK/lwip/lwip-2.1.2/src/core/ipv4\igmp.c ****     case IGMP_MEMB_QUERY:
 800              		.loc 1 366 3
 801 004e 4547     		li	a4,17
 802 0050 638EE700 		beq	a5,a4,.L68
 803 0054 5947     		li	a4,22
 804 0056 E391E7FC 		bne	a5,a4,.L70
 420:C:/Users/stapi/OneDrive/Desktop/GD32VW553/V1_MQTT_OK/GD32VW55X_Wifi_BLE_SDK/GD32VW55x_RELEASE_V1.0.2/MSDK/lwip/lwip-2.1.2/src/core/ipv4\igmp.c ****       IGMP_STATS_INC(igmp.rx_report);
 805              		.loc 1 420 69 is_stmt 1
 421:C:/Users/stapi/OneDrive/Desktop/GD32VW553/V1_MQTT_OK/GD32VW55X_Wifi_BLE_SDK/GD32VW55x_RELEASE_V1.0.2/MSDK/lwip/lwip-2.1.2/src/core/ipv4\igmp.c ****       if (group->group_state == IGMP_GROUP_DELAYING_MEMBER) {
 806              		.loc 1 421 37
 422:C:/Users/stapi/OneDrive/Desktop/GD32VW553/V1_MQTT_OK/GD32VW55X_Wifi_BLE_SDK/GD32VW55x_RELEASE_V1.0.2/MSDK/lwip/lwip-2.1.2/src/core/ipv4\igmp.c ****         /* This is on a specific group we have already looked up */
 807              		.loc 1 422 7
 422:C:/Users/stapi/OneDrive/Desktop/GD32VW553/V1_MQTT_OK/GD32VW55X_Wifi_BLE_SDK/GD32VW55x_RELEASE_V1.0.2/MSDK/lwip/lwip-2.1.2/src/core/ipv4\igmp.c ****         /* This is on a specific group we have already looked up */
 808              		.loc 1 422 10 is_stmt 0
 809 005a 03479500 		lbu	a4,9(a0)
 810 005e 8547     		li	a5,1
 811 0060 E31CF7FA 		bne	a4,a5,.L70
 424:C:/Users/stapi/OneDrive/Desktop/GD32VW553/V1_MQTT_OK/GD32VW55X_Wifi_BLE_SDK/GD32VW55x_RELEASE_V1.0.2/MSDK/lwip/lwip-2.1.2/src/core/ipv4\igmp.c ****         group->group_state = IGMP_GROUP_IDLE_MEMBER;
 812              		.loc 1 424 9 is_stmt 1
 425:C:/Users/stapi/OneDrive/Desktop/GD32VW553/V1_MQTT_OK/GD32VW55X_Wifi_BLE_SDK/GD32VW55x_RELEASE_V1.0.2/MSDK/lwip/lwip-2.1.2/src/core/ipv4\igmp.c ****         group->last_reporter_flag = 0;
 813              		.loc 1 425 9
 426:C:/Users/stapi/OneDrive/Desktop/GD32VW553/V1_MQTT_OK/GD32VW55X_Wifi_BLE_SDK/GD32VW55x_RELEASE_V1.0.2/MSDK/lwip/lwip-2.1.2/src/core/ipv4\igmp.c ****       }
 814              		.loc 1 426 9
 426:C:/Users/stapi/OneDrive/Desktop/GD32VW553/V1_MQTT_OK/GD32VW55X_Wifi_BLE_SDK/GD32VW55x_RELEASE_V1.0.2/MSDK/lwip/lwip-2.1.2/src/core/ipv4\igmp.c ****       }
 815              		.loc 1 426 35 is_stmt 0
 816 0064 93070020 		li	a5,512
 817 0068 1CC5     		sw	a5,8(a0)
 818 006a 7DB7     		j	.L70
 819              	.L68:
 369:C:/Users/stapi/OneDrive/Desktop/GD32VW553/V1_MQTT_OK/GD32VW55X_Wifi_BLE_SDK/GD32VW55x_RELEASE_V1.0.2/MSDK/lwip/lwip-2.1.2/src/core/ipv4\igmp.c ****         /* THIS IS THE GENERAL QUERY */
 820              		.loc 1 369 7 is_stmt 1
 369:C:/Users/stapi/OneDrive/Desktop/GD32VW553/V1_MQTT_OK/GD32VW55X_Wifi_BLE_SDK/GD32VW55x_RELEASE_V1.0.2/MSDK/lwip/lwip-2.1.2/src/core/ipv4\igmp.c ****         /* THIS IS THE GENERAL QUERY */
 821              		.loc 1 369 48 is_stmt 0
 822 006c 03475400 		lbu	a4,5(s0)
 823 0070 83474400 		lbu	a5,4(s0)
 369:C:/Users/stapi/OneDrive/Desktop/GD32VW553/V1_MQTT_OK/GD32VW55X_Wifi_BLE_SDK/GD32VW55x_RELEASE_V1.0.2/MSDK/lwip/lwip-2.1.2/src/core/ipv4\igmp.c ****         /* THIS IS THE GENERAL QUERY */
 824              		.loc 1 369 10
 825 0074 83A60900 		lw	a3,0(s3)
 369:C:/Users/stapi/OneDrive/Desktop/GD32VW553/V1_MQTT_OK/GD32VW55X_Wifi_BLE_SDK/GD32VW55x_RELEASE_V1.0.2/MSDK/lwip/lwip-2.1.2/src/core/ipv4\igmp.c ****         /* THIS IS THE GENERAL QUERY */
 826              		.loc 1 369 48
 827 0078 2207     		slli	a4,a4,8
 828 007a 5D8F     		or	a4,a4,a5
 829 007c 83476400 		lbu	a5,6(s0)
 830 0080 C207     		slli	a5,a5,16
 831 0082 5D8F     		or	a4,a5,a4
 832 0084 83477400 		lbu	a5,7(s0)
 833 0088 E207     		slli	a5,a5,24
 834 008a D98F     		or	a5,a5,a4
 369:C:/Users/stapi/OneDrive/Desktop/GD32VW553/V1_MQTT_OK/GD32VW55X_Wifi_BLE_SDK/GD32VW55x_RELEASE_V1.0.2/MSDK/lwip/lwip-2.1.2/src/core/ipv4\igmp.c ****         /* THIS IS THE GENERAL QUERY */
 835              		.loc 1 369 10
 836 008c 37070000 		lui	a4,%hi(.LANCHOR1)
 837 0090 03270700 		lw	a4,%lo(.LANCHOR1)(a4)
 838 0094 6399E604 		bne	a3,a4,.L71
 369:C:/Users/stapi/OneDrive/Desktop/GD32VW553/V1_MQTT_OK/GD32VW55X_Wifi_BLE_SDK/GD32VW55x_RELEASE_V1.0.2/MSDK/lwip/lwip-2.1.2/src/core/ipv4\igmp.c ****         /* THIS IS THE GENERAL QUERY */
 839              		.loc 1 369 48 discriminator 1
 840 0098 85EB     		bne	a5,zero,.L72
 371:C:/Users/stapi/OneDrive/Desktop/GD32VW553/V1_MQTT_OK/GD32VW55X_Wifi_BLE_SDK/GD32VW55x_RELEASE_V1.0.2/MSDK/lwip/lwip-2.1.2/src/core/ipv4\igmp.c **** 
 841              		.loc 1 371 159 is_stmt 1
 373:C:/Users/stapi/OneDrive/Desktop/GD32VW553/V1_MQTT_OK/GD32VW55X_Wifi_BLE_SDK/GD32VW55x_RELEASE_V1.0.2/MSDK/lwip/lwip-2.1.2/src/core/ipv4\igmp.c ****           IGMP_STATS_INC(igmp.rx_v1);
 842              		.loc 1 373 9
 373:C:/Users/stapi/OneDrive/Desktop/GD32VW553/V1_MQTT_OK/GD32VW55X_Wifi_BLE_SDK/GD32VW55x_RELEASE_V1.0.2/MSDK/lwip/lwip-2.1.2/src/core/ipv4\igmp.c ****           IGMP_STATS_INC(igmp.rx_v1);
 843              		.loc 1 373 12 is_stmt 0
 844 009a 83471400 		lbu	a5,1(s0)
 845 009e 81E7     		bne	a5,zero,.L73
 374:C:/Users/stapi/OneDrive/Desktop/GD32VW553/V1_MQTT_OK/GD32VW55X_Wifi_BLE_SDK/GD32VW55x_RELEASE_V1.0.2/MSDK/lwip/lwip-2.1.2/src/core/ipv4\igmp.c ****           LWIP_DEBUGF(IGMP_DEBUG, ("igmp_input: got an all hosts query with time== 0 - this is V1 a
 846              		.loc 1 374 37 is_stmt 1
 375:C:/Users/stapi/OneDrive/Desktop/GD32VW553/V1_MQTT_OK/GD32VW55X_Wifi_BLE_SDK/GD32VW55x_RELEASE_V1.0.2/MSDK/lwip/lwip-2.1.2/src/core/ipv4\igmp.c ****           igmp->igmp_maxresp = IGMP_V1_DELAYING_MEMBER_TMR;
 847              		.loc 1 375 137
 376:C:/Users/stapi/OneDrive/Desktop/GD32VW553/V1_MQTT_OK/GD32VW55X_Wifi_BLE_SDK/GD32VW55x_RELEASE_V1.0.2/MSDK/lwip/lwip-2.1.2/src/core/ipv4\igmp.c ****         } else {
 848              		.loc 1 376 11
 376:C:/Users/stapi/OneDrive/Desktop/GD32VW553/V1_MQTT_OK/GD32VW55X_Wifi_BLE_SDK/GD32VW55x_RELEASE_V1.0.2/MSDK/lwip/lwip-2.1.2/src/core/ipv4\igmp.c ****         } else {
 849              		.loc 1 376 30 is_stmt 0
 850 00a0 9147     		li	a5,4
 851 00a2 A300F400 		sb	a5,1(s0)
 852              	.L73:
 378:C:/Users/stapi/OneDrive/Desktop/GD32VW553/V1_MQTT_OK/GD32VW55X_Wifi_BLE_SDK/GD32VW55x_RELEASE_V1.0.2/MSDK/lwip/lwip-2.1.2/src/core/ipv4\igmp.c ****         }
 853              		.loc 1 378 42 is_stmt 1
 381:C:/Users/stapi/OneDrive/Desktop/GD32VW553/V1_MQTT_OK/GD32VW55X_Wifi_BLE_SDK/GD32VW55x_RELEASE_V1.0.2/MSDK/lwip/lwip-2.1.2/src/core/ipv4\igmp.c **** 
 854              		.loc 1 381 9
 381:C:/Users/stapi/OneDrive/Desktop/GD32VW553/V1_MQTT_OK/GD32VW55X_Wifi_BLE_SDK/GD32VW55x_RELEASE_V1.0.2/MSDK/lwip/lwip-2.1.2/src/core/ipv4\igmp.c **** 
 855              		.loc 1 381 18 is_stmt 0
 856 00a6 83274902 		lw	a5,36(s2)
 857              	.LVL66:
 385:C:/Users/stapi/OneDrive/Desktop/GD32VW553/V1_MQTT_OK/GD32VW55X_Wifi_BLE_SDK/GD32VW55x_RELEASE_V1.0.2/MSDK/lwip/lwip-2.1.2/src/core/ipv4\igmp.c ****           groupref = groupref->next;
 858              		.loc 1 385 9 is_stmt 1
 385:C:/Users/stapi/OneDrive/Desktop/GD32VW553/V1_MQTT_OK/GD32VW55X_Wifi_BLE_SDK/GD32VW55x_RELEASE_V1.0.2/MSDK/lwip/lwip-2.1.2/src/core/ipv4\igmp.c ****           groupref = groupref->next;
 859              		.loc 1 385 12 is_stmt 0
 860 00aa BDD7     		beq	a5,zero,.L70
 386:C:/Users/stapi/OneDrive/Desktop/GD32VW553/V1_MQTT_OK/GD32VW55X_Wifi_BLE_SDK/GD32VW55x_RELEASE_V1.0.2/MSDK/lwip/lwip-2.1.2/src/core/ipv4\igmp.c ****         }
 861              		.loc 1 386 11 is_stmt 1
 386:C:/Users/stapi/OneDrive/Desktop/GD32VW553/V1_MQTT_OK/GD32VW55X_Wifi_BLE_SDK/GD32VW55x_RELEASE_V1.0.2/MSDK/lwip/lwip-2.1.2/src/core/ipv4\igmp.c ****         }
 862              		.loc 1 386 20 is_stmt 0
 863 00ac 03A90700 		lw	s2,0(a5)
 864              	.LVL67:
 865              	.L75:
 389:C:/Users/stapi/OneDrive/Desktop/GD32VW553/V1_MQTT_OK/GD32VW55X_Wifi_BLE_SDK/GD32VW55x_RELEASE_V1.0.2/MSDK/lwip/lwip-2.1.2/src/core/ipv4\igmp.c ****           igmp_delaying_member(groupref, igmp->igmp_maxresp);
 866              		.loc 1 389 15 is_stmt 1
 867 00b0 E30409F6 		beq	s2,zero,.L70
 390:C:/Users/stapi/OneDrive/Desktop/GD32VW553/V1_MQTT_OK/GD32VW55X_Wifi_BLE_SDK/GD32VW55x_RELEASE_V1.0.2/MSDK/lwip/lwip-2.1.2/src/core/ipv4\igmp.c ****           groupref = groupref->next;
 868              		.loc 1 390 11
 869 00b4 83451400 		lbu	a1,1(s0)
 870 00b8 4A85     		mv	a0,s2
 871 00ba 97000000 		call	igmp_delaying_member
 871      E7800000 
 872              	.LVL68:
 391:C:/Users/stapi/OneDrive/Desktop/GD32VW553/V1_MQTT_OK/GD32VW55X_Wifi_BLE_SDK/GD32VW55x_RELEASE_V1.0.2/MSDK/lwip/lwip-2.1.2/src/core/ipv4\igmp.c ****         }
 873              		.loc 1 391 11
 391:C:/Users/stapi/OneDrive/Desktop/GD32VW553/V1_MQTT_OK/GD32VW55X_Wifi_BLE_SDK/GD32VW55x_RELEASE_V1.0.2/MSDK/lwip/lwip-2.1.2/src/core/ipv4\igmp.c ****         }
 874              		.loc 1 391 20 is_stmt 0
 875 00c2 03290900 		lw	s2,0(s2)
 876              	.LVL69:
 877 00c6 EDB7     		j	.L75
 878              	.LVL70:
 879              	.L72:
 395:C:/Users/stapi/OneDrive/Desktop/GD32VW553/V1_MQTT_OK/GD32VW55X_Wifi_BLE_SDK/GD32VW55x_RELEASE_V1.0.2/MSDK/lwip/lwip-2.1.2/src/core/ipv4\igmp.c ****           LWIP_DEBUGF(IGMP_DEBUG, ("igmp_input: IGMP_MEMB_QUERY to a specific group "));
 880              		.loc 1 395 9 is_stmt 1
 881              	.LBB17:
 399:C:/Users/stapi/OneDrive/Desktop/GD32VW553/V1_MQTT_OK/GD32VW55X_Wifi_BLE_SDK/GD32VW55x_RELEASE_V1.0.2/MSDK/lwip/lwip-2.1.2/src/core/ipv4\igmp.c ****             LWIP_DEBUGF(IGMP_DEBUG, (" using \"ALL SYSTEMS\" address (224.0.0.1) [igmp_maxresp=%i]\
 882              		.loc 1 399 13
 400:C:/Users/stapi/OneDrive/Desktop/GD32VW553/V1_MQTT_OK/GD32VW55X_Wifi_BLE_SDK/GD32VW55x_RELEASE_V1.0.2/MSDK/lwip/lwip-2.1.2/src/core/ipv4\igmp.c ****             /* we first need to re-look for the group since we used dest last time */
 883              		.loc 1 400 131
 402:C:/Users/stapi/OneDrive/Desktop/GD32VW553/V1_MQTT_OK/GD32VW55X_Wifi_BLE_SDK/GD32VW55x_RELEASE_V1.0.2/MSDK/lwip/lwip-2.1.2/src/core/ipv4\igmp.c ****             group = igmp_lookfor_group(inp, &groupaddr);
 884              		.loc 1 402 13
 403:C:/Users/stapi/OneDrive/Desktop/GD32VW553/V1_MQTT_OK/GD32VW55X_Wifi_BLE_SDK/GD32VW55x_RELEASE_V1.0.2/MSDK/lwip/lwip-2.1.2/src/core/ipv4\igmp.c ****           } else {
 885              		.loc 1 403 21 is_stmt 0
 886 00c8 6C00     		addi	a1,sp,12
 887 00ca 4A85     		mv	a0,s2
 888              	.LVL71:
 402:C:/Users/stapi/OneDrive/Desktop/GD32VW553/V1_MQTT_OK/GD32VW55X_Wifi_BLE_SDK/GD32VW55x_RELEASE_V1.0.2/MSDK/lwip/lwip-2.1.2/src/core/ipv4\igmp.c ****             group = igmp_lookfor_group(inp, &groupaddr);
 889              		.loc 1 402 13
 890 00cc 3EC6     		sw	a5,12(sp)
 403:C:/Users/stapi/OneDrive/Desktop/GD32VW553/V1_MQTT_OK/GD32VW55X_Wifi_BLE_SDK/GD32VW55x_RELEASE_V1.0.2/MSDK/lwip/lwip-2.1.2/src/core/ipv4\igmp.c ****           } else {
 891              		.loc 1 403 13 is_stmt 1
 403:C:/Users/stapi/OneDrive/Desktop/GD32VW553/V1_MQTT_OK/GD32VW55X_Wifi_BLE_SDK/GD32VW55x_RELEASE_V1.0.2/MSDK/lwip/lwip-2.1.2/src/core/ipv4\igmp.c ****           } else {
 892              		.loc 1 403 21 is_stmt 0
 893 00ce 97000000 		call	igmp_lookfor_group
 893      E7800000 
 894              	.LVL72:
 895              	.LBE17:
 405:C:/Users/stapi/OneDrive/Desktop/GD32VW553/V1_MQTT_OK/GD32VW55X_Wifi_BLE_SDK/GD32VW55x_RELEASE_V1.0.2/MSDK/lwip/lwip-2.1.2/src/core/ipv4\igmp.c ****           }
 896              		.loc 1 405 127 is_stmt 1
 408:C:/Users/stapi/OneDrive/Desktop/GD32VW553/V1_MQTT_OK/GD32VW55X_Wifi_BLE_SDK/GD32VW55x_RELEASE_V1.0.2/MSDK/lwip/lwip-2.1.2/src/core/ipv4\igmp.c ****             IGMP_STATS_INC(igmp.rx_group);
 897              		.loc 1 408 11
 408:C:/Users/stapi/OneDrive/Desktop/GD32VW553/V1_MQTT_OK/GD32VW55X_Wifi_BLE_SDK/GD32VW55x_RELEASE_V1.0.2/MSDK/lwip/lwip-2.1.2/src/core/ipv4\igmp.c ****             IGMP_STATS_INC(igmp.rx_group);
 898              		.loc 1 408 14 is_stmt 0
 899 00d6 29D1     		beq	a0,zero,.L70
 900              	.L78:
 409:C:/Users/stapi/OneDrive/Desktop/GD32VW553/V1_MQTT_OK/GD32VW55X_Wifi_BLE_SDK/GD32VW55x_RELEASE_V1.0.2/MSDK/lwip/lwip-2.1.2/src/core/ipv4\igmp.c ****             igmp_delaying_member(group, igmp->igmp_maxresp);
 901              		.loc 1 409 42 is_stmt 1
 410:C:/Users/stapi/OneDrive/Desktop/GD32VW553/V1_MQTT_OK/GD32VW55X_Wifi_BLE_SDK/GD32VW55x_RELEASE_V1.0.2/MSDK/lwip/lwip-2.1.2/src/core/ipv4\igmp.c ****           } else {
 902              		.loc 1 410 13
 903 00d8 83451400 		lbu	a1,1(s0)
 904 00dc 97000000 		call	igmp_delaying_member
 904      E7800000 
 905              	.LVL73:
 906 00e4 15BF     		j	.L70
 907              	.LVL74:
 908              	.L71:
 395:C:/Users/stapi/OneDrive/Desktop/GD32VW553/V1_MQTT_OK/GD32VW55X_Wifi_BLE_SDK/GD32VW55x_RELEASE_V1.0.2/MSDK/lwip/lwip-2.1.2/src/core/ipv4\igmp.c ****           LWIP_DEBUGF(IGMP_DEBUG, ("igmp_input: IGMP_MEMB_QUERY to a specific group "));
 909              		.loc 1 395 9
 395:C:/Users/stapi/OneDrive/Desktop/GD32VW553/V1_MQTT_OK/GD32VW55X_Wifi_BLE_SDK/GD32VW55x_RELEASE_V1.0.2/MSDK/lwip/lwip-2.1.2/src/core/ipv4\igmp.c ****           LWIP_DEBUGF(IGMP_DEBUG, ("igmp_input: IGMP_MEMB_QUERY to a specific group "));
 910              		.loc 1 395 13 is_stmt 0
 911 00e6 8DDB     		beq	a5,zero,.L70
 912 00e8 C5BF     		j	.L78
 913              		.cfi_endproc
 914              	.LFE11:
 916              		.section	.rodata.igmp_joingroup_netif.str1.4,"aMS",@progbits,1
 917              		.align	2
 918              	.LC5:
 919 0000 69676D70 		.string	"igmp_joingroup_netif: attempt to join non-multicast address"
 919      5F6A6F69 
 919      6E67726F 
 919      75705F6E 
 919      65746966 
 920              		.align	2
 921              	.LC6:
 922 003c 69676D70 		.string	"igmp_joingroup_netif: attempt to join allsystems address"
 922      5F6A6F69 
 922      6E67726F 
 922      75705F6E 
 922      65746966 
 923 0075 000000   		.align	2
 924              	.LC7:
 925 0078 69676D70 		.string	"igmp_joingroup_netif: attempt to join on non-IGMP netif"
 925      5F6A6F69 
 925      6E67726F 
 925      75705F6E 
 925      65746966 
 926              		.section	.text.igmp_joingroup_netif,"ax",@progbits
 927              		.align	1
 928              		.globl	igmp_joingroup_netif
 930              	igmp_joingroup_netif:
 931              	.LFB13:
 486:C:/Users/stapi/OneDrive/Desktop/GD32VW553/V1_MQTT_OK/GD32VW55X_Wifi_BLE_SDK/GD32VW55x_RELEASE_V1.0.2/MSDK/lwip/lwip-2.1.2/src/core/ipv4\igmp.c ****   struct igmp_group *group;
 932              		.loc 1 486 1 is_stmt 1
 933              		.cfi_startproc
 934              	.LVL75:
 935 0000 17030000 		call	t0,__riscv_save_3
 935      E7020300 
 936              		.cfi_offset 18, -16
 937              		.cfi_offset 9, -12
 938              		.cfi_offset 8, -8
 939              		.cfi_offset 1, -4
 940              		.cfi_def_cfa_offset 16
 487:C:/Users/stapi/OneDrive/Desktop/GD32VW553/V1_MQTT_OK/GD32VW55X_Wifi_BLE_SDK/GD32VW55x_RELEASE_V1.0.2/MSDK/lwip/lwip-2.1.2/src/core/ipv4\igmp.c **** 
 941              		.loc 1 487 3
 489:C:/Users/stapi/OneDrive/Desktop/GD32VW553/V1_MQTT_OK/GD32VW55X_Wifi_BLE_SDK/GD32VW55x_RELEASE_V1.0.2/MSDK/lwip/lwip-2.1.2/src/core/ipv4\igmp.c **** 
 942              		.loc 1 489 28
 492:C:/Users/stapi/OneDrive/Desktop/GD32VW553/V1_MQTT_OK/GD32VW55X_Wifi_BLE_SDK/GD32VW55x_RELEASE_V1.0.2/MSDK/lwip/lwip-2.1.2/src/core/ipv4\igmp.c ****   LWIP_ERROR("igmp_joingroup_netif: attempt to join allsystems address", (!ip4_addr_cmp(groupaddr, 
 943              		.loc 1 492 3
 492:C:/Users/stapi/OneDrive/Desktop/GD32VW553/V1_MQTT_OK/GD32VW55X_Wifi_BLE_SDK/GD32VW55x_RELEASE_V1.0.2/MSDK/lwip/lwip-2.1.2/src/core/ipv4\igmp.c ****   LWIP_ERROR("igmp_joingroup_netif: attempt to join allsystems address", (!ip4_addr_cmp(groupaddr, 
 944              		.loc 1 492 3
 945 0008 9C41     		lw	a5,0(a1)
 946 000a 1307000E 		li	a4,224
 947 000e 93F6070F 		andi	a3,a5,240
 948 0012 6385E602 		beq	a3,a4,.L87
 492:C:/Users/stapi/OneDrive/Desktop/GD32VW553/V1_MQTT_OK/GD32VW55X_Wifi_BLE_SDK/GD32VW55x_RELEASE_V1.0.2/MSDK/lwip/lwip-2.1.2/src/core/ipv4\igmp.c ****   LWIP_ERROR("igmp_joingroup_netif: attempt to join allsystems address", (!ip4_addr_cmp(groupaddr, 
 949              		.loc 1 492 3 discriminator 1
 492:C:/Users/stapi/OneDrive/Desktop/GD32VW553/V1_MQTT_OK/GD32VW55X_Wifi_BLE_SDK/GD32VW55x_RELEASE_V1.0.2/MSDK/lwip/lwip-2.1.2/src/core/ipv4\igmp.c ****   LWIP_ERROR("igmp_joingroup_netif: attempt to join allsystems address", (!ip4_addr_cmp(groupaddr, 
 950              		.loc 1 492 3 discriminator 1
 951 0016 B7060000 		lui	a3,%hi(.LC0)
 952 001a B7050000 		lui	a1,%hi(.LC5)
 953              	.LVL76:
 954 001e 37050000 		lui	a0,%hi(.LC2)
 955              	.LVL77:
 956 0022 93860600 		addi	a3,a3,%lo(.LC0)
 957 0026 1306C01E 		li	a2,492
 958 002a 93850500 		addi	a1,a1,%lo(.LC5)
 959 002e 13050500 		addi	a0,a0,%lo(.LC2)
 960 0032 97000000 		call	printf
 960      E7800000 
 961              	.LVL78:
 962              	.L88:
 492:C:/Users/stapi/OneDrive/Desktop/GD32VW553/V1_MQTT_OK/GD32VW55X_Wifi_BLE_SDK/GD32VW55x_RELEASE_V1.0.2/MSDK/lwip/lwip-2.1.2/src/core/ipv4\igmp.c ****   LWIP_ERROR("igmp_joingroup_netif: attempt to join allsystems address", (!ip4_addr_cmp(groupaddr, 
 963              		.loc 1 492 3 discriminator 1
 492:C:/Users/stapi/OneDrive/Desktop/GD32VW553/V1_MQTT_OK/GD32VW55X_Wifi_BLE_SDK/GD32VW55x_RELEASE_V1.0.2/MSDK/lwip/lwip-2.1.2/src/core/ipv4\igmp.c ****   LWIP_ERROR("igmp_joingroup_netif: attempt to join allsystems address", (!ip4_addr_cmp(groupaddr, 
 964              		.loc 1 492 3 discriminator 1
 492:C:/Users/stapi/OneDrive/Desktop/GD32VW553/V1_MQTT_OK/GD32VW55X_Wifi_BLE_SDK/GD32VW55x_RELEASE_V1.0.2/MSDK/lwip/lwip-2.1.2/src/core/ipv4\igmp.c ****   LWIP_ERROR("igmp_joingroup_netif: attempt to join allsystems address", (!ip4_addr_cmp(groupaddr, 
 965              		.loc 1 492 3 discriminator 1
 966 003a 01A0     		j	.L88
 967              	.LVL79:
 968              	.L87:
 492:C:/Users/stapi/OneDrive/Desktop/GD32VW553/V1_MQTT_OK/GD32VW55X_Wifi_BLE_SDK/GD32VW55x_RELEASE_V1.0.2/MSDK/lwip/lwip-2.1.2/src/core/ipv4\igmp.c ****   LWIP_ERROR("igmp_joingroup_netif: attempt to join allsystems address", (!ip4_addr_cmp(groupaddr, 
 969              		.loc 1 492 3 discriminator 2
 492:C:/Users/stapi/OneDrive/Desktop/GD32VW553/V1_MQTT_OK/GD32VW55X_Wifi_BLE_SDK/GD32VW55x_RELEASE_V1.0.2/MSDK/lwip/lwip-2.1.2/src/core/ipv4\igmp.c ****   LWIP_ERROR("igmp_joingroup_netif: attempt to join allsystems address", (!ip4_addr_cmp(groupaddr, 
 970              		.loc 1 492 3 discriminator 2
 493:C:/Users/stapi/OneDrive/Desktop/GD32VW553/V1_MQTT_OK/GD32VW55X_Wifi_BLE_SDK/GD32VW55x_RELEASE_V1.0.2/MSDK/lwip/lwip-2.1.2/src/core/ipv4\igmp.c **** 
 971              		.loc 1 493 3 discriminator 2
 493:C:/Users/stapi/OneDrive/Desktop/GD32VW553/V1_MQTT_OK/GD32VW55X_Wifi_BLE_SDK/GD32VW55x_RELEASE_V1.0.2/MSDK/lwip/lwip-2.1.2/src/core/ipv4\igmp.c **** 
 972              		.loc 1 493 3 discriminator 2
 973 003c 37070000 		lui	a4,%hi(.LANCHOR1)
 974 0040 03270700 		lw	a4,%lo(.LANCHOR1)(a4)
 975 0044 6395E702 		bne	a5,a4,.L89
 493:C:/Users/stapi/OneDrive/Desktop/GD32VW553/V1_MQTT_OK/GD32VW55X_Wifi_BLE_SDK/GD32VW55x_RELEASE_V1.0.2/MSDK/lwip/lwip-2.1.2/src/core/ipv4\igmp.c **** 
 976              		.loc 1 493 3 discriminator 1
 493:C:/Users/stapi/OneDrive/Desktop/GD32VW553/V1_MQTT_OK/GD32VW55X_Wifi_BLE_SDK/GD32VW55x_RELEASE_V1.0.2/MSDK/lwip/lwip-2.1.2/src/core/ipv4\igmp.c **** 
 977              		.loc 1 493 3 discriminator 1
 978 0048 B7060000 		lui	a3,%hi(.LC0)
 979 004c B7050000 		lui	a1,%hi(.LC6)
 980              	.LVL80:
 981 0050 37050000 		lui	a0,%hi(.LC2)
 982              	.LVL81:
 983 0054 93860600 		addi	a3,a3,%lo(.LC0)
 984 0058 1306D01E 		li	a2,493
 985 005c 93850500 		addi	a1,a1,%lo(.LC6)
 986 0060 13050500 		addi	a0,a0,%lo(.LC2)
 987 0064 97000000 		call	printf
 987      E7800000 
 988              	.LVL82:
 989              	.L90:
 493:C:/Users/stapi/OneDrive/Desktop/GD32VW553/V1_MQTT_OK/GD32VW55X_Wifi_BLE_SDK/GD32VW55x_RELEASE_V1.0.2/MSDK/lwip/lwip-2.1.2/src/core/ipv4\igmp.c **** 
 990              		.loc 1 493 3 discriminator 2
 493:C:/Users/stapi/OneDrive/Desktop/GD32VW553/V1_MQTT_OK/GD32VW55X_Wifi_BLE_SDK/GD32VW55x_RELEASE_V1.0.2/MSDK/lwip/lwip-2.1.2/src/core/ipv4\igmp.c **** 
 991              		.loc 1 493 3 discriminator 2
 493:C:/Users/stapi/OneDrive/Desktop/GD32VW553/V1_MQTT_OK/GD32VW55X_Wifi_BLE_SDK/GD32VW55x_RELEASE_V1.0.2/MSDK/lwip/lwip-2.1.2/src/core/ipv4\igmp.c **** 
 992              		.loc 1 493 3 discriminator 2
 993 006c 01A0     		j	.L90
 994              	.LVL83:
 995              	.L89:
 996              	.LBB22:
 997              	.LBB23:
 496:C:/Users/stapi/OneDrive/Desktop/GD32VW553/V1_MQTT_OK/GD32VW55X_Wifi_BLE_SDK/GD32VW55x_RELEASE_V1.0.2/MSDK/lwip/lwip-2.1.2/src/core/ipv4\igmp.c **** 
 998              		.loc 1 496 3 is_stmt 0
 999 006e 83471503 		lbu	a5,49(a0)
 1000 0072 AA84     		mv	s1,a0
 1001              	.LVL84:
 493:C:/Users/stapi/OneDrive/Desktop/GD32VW553/V1_MQTT_OK/GD32VW55X_Wifi_BLE_SDK/GD32VW55x_RELEASE_V1.0.2/MSDK/lwip/lwip-2.1.2/src/core/ipv4\igmp.c **** 
 1002              		.loc 1 493 3 is_stmt 1
 493:C:/Users/stapi/OneDrive/Desktop/GD32VW553/V1_MQTT_OK/GD32VW55X_Wifi_BLE_SDK/GD32VW55x_RELEASE_V1.0.2/MSDK/lwip/lwip-2.1.2/src/core/ipv4\igmp.c **** 
 1003              		.loc 1 493 3
 496:C:/Users/stapi/OneDrive/Desktop/GD32VW553/V1_MQTT_OK/GD32VW55X_Wifi_BLE_SDK/GD32VW55x_RELEASE_V1.0.2/MSDK/lwip/lwip-2.1.2/src/core/ipv4\igmp.c **** 
 1004              		.loc 1 496 3
 496:C:/Users/stapi/OneDrive/Desktop/GD32VW553/V1_MQTT_OK/GD32VW55X_Wifi_BLE_SDK/GD32VW55x_RELEASE_V1.0.2/MSDK/lwip/lwip-2.1.2/src/core/ipv4\igmp.c **** 
 1005              		.loc 1 496 3
 1006 0074 93F70702 		andi	a5,a5,32
 1007 0078 85E7     		bne	a5,zero,.L91
 1008              	.LVL85:
 496:C:/Users/stapi/OneDrive/Desktop/GD32VW553/V1_MQTT_OK/GD32VW55X_Wifi_BLE_SDK/GD32VW55x_RELEASE_V1.0.2/MSDK/lwip/lwip-2.1.2/src/core/ipv4\igmp.c **** 
 1009              		.loc 1 496 3
 496:C:/Users/stapi/OneDrive/Desktop/GD32VW553/V1_MQTT_OK/GD32VW55X_Wifi_BLE_SDK/GD32VW55x_RELEASE_V1.0.2/MSDK/lwip/lwip-2.1.2/src/core/ipv4\igmp.c **** 
 1010              		.loc 1 496 3
 1011 007a B7060000 		lui	a3,%hi(.LC0)
 1012 007e B7050000 		lui	a1,%hi(.LC7)
 1013              	.LVL86:
 1014 0082 37050000 		lui	a0,%hi(.LC2)
 1015 0086 93860600 		addi	a3,a3,%lo(.LC0)
 1016 008a 1306001F 		li	a2,496
 1017 008e 93850500 		addi	a1,a1,%lo(.LC7)
 1018 0092 13050500 		addi	a0,a0,%lo(.LC2)
 1019 0096 97000000 		call	printf
 1019      E7800000 
 1020              	.LVL87:
 1021              	.L92:
 496:C:/Users/stapi/OneDrive/Desktop/GD32VW553/V1_MQTT_OK/GD32VW55X_Wifi_BLE_SDK/GD32VW55x_RELEASE_V1.0.2/MSDK/lwip/lwip-2.1.2/src/core/ipv4\igmp.c **** 
 1022              		.loc 1 496 3
 496:C:/Users/stapi/OneDrive/Desktop/GD32VW553/V1_MQTT_OK/GD32VW55X_Wifi_BLE_SDK/GD32VW55x_RELEASE_V1.0.2/MSDK/lwip/lwip-2.1.2/src/core/ipv4\igmp.c **** 
 1023              		.loc 1 496 3
 496:C:/Users/stapi/OneDrive/Desktop/GD32VW553/V1_MQTT_OK/GD32VW55X_Wifi_BLE_SDK/GD32VW55x_RELEASE_V1.0.2/MSDK/lwip/lwip-2.1.2/src/core/ipv4\igmp.c **** 
 1024              		.loc 1 496 3
 1025 009e 01A0     		j	.L92
 1026              	.LVL88:
 1027              	.L91:
 1028 00a0 2E89     		mv	s2,a1
 496:C:/Users/stapi/OneDrive/Desktop/GD32VW553/V1_MQTT_OK/GD32VW55X_Wifi_BLE_SDK/GD32VW55x_RELEASE_V1.0.2/MSDK/lwip/lwip-2.1.2/src/core/ipv4\igmp.c **** 
 1029              		.loc 1 496 3
 496:C:/Users/stapi/OneDrive/Desktop/GD32VW553/V1_MQTT_OK/GD32VW55X_Wifi_BLE_SDK/GD32VW55x_RELEASE_V1.0.2/MSDK/lwip/lwip-2.1.2/src/core/ipv4\igmp.c **** 
 1030              		.loc 1 496 3
 499:C:/Users/stapi/OneDrive/Desktop/GD32VW553/V1_MQTT_OK/GD32VW55X_Wifi_BLE_SDK/GD32VW55x_RELEASE_V1.0.2/MSDK/lwip/lwip-2.1.2/src/core/ipv4\igmp.c **** 
 1031              		.loc 1 499 3
 499:C:/Users/stapi/OneDrive/Desktop/GD32VW553/V1_MQTT_OK/GD32VW55X_Wifi_BLE_SDK/GD32VW55x_RELEASE_V1.0.2/MSDK/lwip/lwip-2.1.2/src/core/ipv4\igmp.c **** 
 1032              		.loc 1 499 11 is_stmt 0
 1033 00a2 97000000 		call	igmp_lookup_group
 1033      E7800000 
 1034              	.LVL89:
 1035 00aa 2A84     		mv	s0,a0
 1036              	.LVL90:
 501:C:/Users/stapi/OneDrive/Desktop/GD32VW553/V1_MQTT_OK/GD32VW55X_Wifi_BLE_SDK/GD32VW55x_RELEASE_V1.0.2/MSDK/lwip/lwip-2.1.2/src/core/ipv4\igmp.c ****     /* This should create a new group, check the state to make sure */
 1037              		.loc 1 501 3 is_stmt 1
 533:C:/Users/stapi/OneDrive/Desktop/GD32VW553/V1_MQTT_OK/GD32VW55X_Wifi_BLE_SDK/GD32VW55x_RELEASE_V1.0.2/MSDK/lwip/lwip-2.1.2/src/core/ipv4\igmp.c ****   }
 1038              		.loc 1 533 12 is_stmt 0
 1039 00ac 7D55     		li	a0,-1
 501:C:/Users/stapi/OneDrive/Desktop/GD32VW553/V1_MQTT_OK/GD32VW55X_Wifi_BLE_SDK/GD32VW55x_RELEASE_V1.0.2/MSDK/lwip/lwip-2.1.2/src/core/ipv4\igmp.c ****     /* This should create a new group, check the state to make sure */
 1040              		.loc 1 501 6
 1041 00ae 1DCC     		beq	s0,zero,.L93
 503:C:/Users/stapi/OneDrive/Desktop/GD32VW553/V1_MQTT_OK/GD32VW55X_Wifi_BLE_SDK/GD32VW55x_RELEASE_V1.0.2/MSDK/lwip/lwip-2.1.2/src/core/ipv4\igmp.c ****       LWIP_DEBUGF(IGMP_DEBUG, ("igmp_joingroup_netif: join to group not in state IGMP_GROUP_NON_MEM
 1042              		.loc 1 503 5 is_stmt 1
 503:C:/Users/stapi/OneDrive/Desktop/GD32VW553/V1_MQTT_OK/GD32VW55X_Wifi_BLE_SDK/GD32VW55x_RELEASE_V1.0.2/MSDK/lwip/lwip-2.1.2/src/core/ipv4\igmp.c ****       LWIP_DEBUGF(IGMP_DEBUG, ("igmp_joingroup_netif: join to group not in state IGMP_GROUP_NON_MEM
 1043              		.loc 1 503 8 is_stmt 0
 1044 00b0 83479400 		lbu	a5,9(s0)
 1045 00b4 95E7     		bne	a5,zero,.L94
 507:C:/Users/stapi/OneDrive/Desktop/GD32VW553/V1_MQTT_OK/GD32VW55X_Wifi_BLE_SDK/GD32VW55x_RELEASE_V1.0.2/MSDK/lwip/lwip-2.1.2/src/core/ipv4\igmp.c ****       ip4_addr_debug_print(IGMP_DEBUG, groupaddr);
 1046              		.loc 1 507 77 is_stmt 1
 508:C:/Users/stapi/OneDrive/Desktop/GD32VW553/V1_MQTT_OK/GD32VW55X_Wifi_BLE_SDK/GD32VW55x_RELEASE_V1.0.2/MSDK/lwip/lwip-2.1.2/src/core/ipv4\igmp.c ****       LWIP_DEBUGF(IGMP_DEBUG, ("\n"));
 1047              		.loc 1 508 50
 509:C:/Users/stapi/OneDrive/Desktop/GD32VW553/V1_MQTT_OK/GD32VW55X_Wifi_BLE_SDK/GD32VW55x_RELEASE_V1.0.2/MSDK/lwip/lwip-2.1.2/src/core/ipv4\igmp.c **** 
 1048              		.loc 1 509 38
 512:C:/Users/stapi/OneDrive/Desktop/GD32VW553/V1_MQTT_OK/GD32VW55X_Wifi_BLE_SDK/GD32VW55x_RELEASE_V1.0.2/MSDK/lwip/lwip-2.1.2/src/core/ipv4\igmp.c ****         LWIP_DEBUGF(IGMP_DEBUG, ("igmp_joingroup_netif: igmp_mac_filter(ADD "));
 1049              		.loc 1 512 7
 512:C:/Users/stapi/OneDrive/Desktop/GD32VW553/V1_MQTT_OK/GD32VW55X_Wifi_BLE_SDK/GD32VW55x_RELEASE_V1.0.2/MSDK/lwip/lwip-2.1.2/src/core/ipv4\igmp.c ****         LWIP_DEBUGF(IGMP_DEBUG, ("igmp_joingroup_netif: igmp_mac_filter(ADD "));
 1050              		.loc 1 512 10 is_stmt 0
 1051 00b6 8347C400 		lbu	a5,12(s0)
 1052 00ba 99E7     		bne	a5,zero,.L95
 512:C:/Users/stapi/OneDrive/Desktop/GD32VW553/V1_MQTT_OK/GD32VW55X_Wifi_BLE_SDK/GD32VW55x_RELEASE_V1.0.2/MSDK/lwip/lwip-2.1.2/src/core/ipv4\igmp.c ****         LWIP_DEBUGF(IGMP_DEBUG, ("igmp_joingroup_netif: igmp_mac_filter(ADD "));
 1053              		.loc 1 512 38
 1054 00bc 9C5C     		lw	a5,56(s1)
 512:C:/Users/stapi/OneDrive/Desktop/GD32VW553/V1_MQTT_OK/GD32VW55X_Wifi_BLE_SDK/GD32VW55x_RELEASE_V1.0.2/MSDK/lwip/lwip-2.1.2/src/core/ipv4\igmp.c ****         LWIP_DEBUGF(IGMP_DEBUG, ("igmp_joingroup_netif: igmp_mac_filter(ADD "));
 1055              		.loc 1 512 29
 1056 00be 89C7     		beq	a5,zero,.L95
 513:C:/Users/stapi/OneDrive/Desktop/GD32VW553/V1_MQTT_OK/GD32VW55X_Wifi_BLE_SDK/GD32VW55x_RELEASE_V1.0.2/MSDK/lwip/lwip-2.1.2/src/core/ipv4\igmp.c ****         ip4_addr_debug_print(IGMP_DEBUG, groupaddr);
 1057              		.loc 1 513 80 is_stmt 1
 514:C:/Users/stapi/OneDrive/Desktop/GD32VW553/V1_MQTT_OK/GD32VW55X_Wifi_BLE_SDK/GD32VW55x_RELEASE_V1.0.2/MSDK/lwip/lwip-2.1.2/src/core/ipv4\igmp.c ****         LWIP_DEBUGF(IGMP_DEBUG, (") on if %p\n", (void *)netif));
 1058              		.loc 1 514 52
 515:C:/Users/stapi/OneDrive/Desktop/GD32VW553/V1_MQTT_OK/GD32VW55X_Wifi_BLE_SDK/GD32VW55x_RELEASE_V1.0.2/MSDK/lwip/lwip-2.1.2/src/core/ipv4\igmp.c ****         netif->igmp_mac_filter(netif, groupaddr, NETIF_ADD_MAC_FILTER);
 1059              		.loc 1 515 65
 516:C:/Users/stapi/OneDrive/Desktop/GD32VW553/V1_MQTT_OK/GD32VW55X_Wifi_BLE_SDK/GD32VW55x_RELEASE_V1.0.2/MSDK/lwip/lwip-2.1.2/src/core/ipv4\igmp.c ****       }
 1060              		.loc 1 516 9
 1061 00c0 0546     		li	a2,1
 1062 00c2 CA85     		mv	a1,s2
 1063 00c4 2685     		mv	a0,s1
 1064 00c6 8297     		jalr	a5
 1065              	.LVL91:
 1066              	.L95:
 519:C:/Users/stapi/OneDrive/Desktop/GD32VW553/V1_MQTT_OK/GD32VW55X_Wifi_BLE_SDK/GD32VW55x_RELEASE_V1.0.2/MSDK/lwip/lwip-2.1.2/src/core/ipv4\igmp.c ****       igmp_send(netif, group, IGMP_V2_MEMB_REPORT);
 1067              		.loc 1 519 35
 520:C:/Users/stapi/OneDrive/Desktop/GD32VW553/V1_MQTT_OK/GD32VW55X_Wifi_BLE_SDK/GD32VW55x_RELEASE_V1.0.2/MSDK/lwip/lwip-2.1.2/src/core/ipv4\igmp.c **** 
 1068              		.loc 1 520 7
 1069 00c8 5946     		li	a2,22
 1070 00ca A285     		mv	a1,s0
 1071 00cc 2685     		mv	a0,s1
 1072 00ce 97000000 		call	igmp_send
 1072      E7800000 
 1073              	.LVL92:
 522:C:/Users/stapi/OneDrive/Desktop/GD32VW553/V1_MQTT_OK/GD32VW55X_Wifi_BLE_SDK/GD32VW55x_RELEASE_V1.0.2/MSDK/lwip/lwip-2.1.2/src/core/ipv4\igmp.c **** 
 1074              		.loc 1 522 7
 1075              	.LBB24:
 1076              	.LBB25:
 695:C:/Users/stapi/OneDrive/Desktop/GD32VW553/V1_MQTT_OK/GD32VW55X_Wifi_BLE_SDK/GD32VW55x_RELEASE_V1.0.2/MSDK/lwip/lwip-2.1.2/src/core/ipv4\igmp.c **** #else /* LWIP_RAND */
 1077              		.loc 1 695 3
 695:C:/Users/stapi/OneDrive/Desktop/GD32VW553/V1_MQTT_OK/GD32VW55X_Wifi_BLE_SDK/GD32VW55x_RELEASE_V1.0.2/MSDK/lwip/lwip-2.1.2/src/core/ipv4\igmp.c **** #else /* LWIP_RAND */
 1078              		.loc 1 695 16 is_stmt 0
 1079 00d6 8547     		li	a5,1
 1080 00d8 2315F400 		sh	a5,10(s0)
 701:C:/Users/stapi/OneDrive/Desktop/GD32VW553/V1_MQTT_OK/GD32VW55X_Wifi_BLE_SDK/GD32VW55x_RELEASE_V1.0.2/MSDK/lwip/lwip-2.1.2/src/core/ipv4\igmp.c ****     group->timer = 1;
 1081              		.loc 1 701 3 is_stmt 1
 1082              	.LVL93:
 1083              	.LBE25:
 1084              	.LBE24:
 525:C:/Users/stapi/OneDrive/Desktop/GD32VW553/V1_MQTT_OK/GD32VW55X_Wifi_BLE_SDK/GD32VW55x_RELEASE_V1.0.2/MSDK/lwip/lwip-2.1.2/src/core/ipv4\igmp.c ****     }
 1085              		.loc 1 525 7
 525:C:/Users/stapi/OneDrive/Desktop/GD32VW553/V1_MQTT_OK/GD32VW55X_Wifi_BLE_SDK/GD32VW55x_RELEASE_V1.0.2/MSDK/lwip/lwip-2.1.2/src/core/ipv4\igmp.c ****     }
 1086              		.loc 1 525 26 is_stmt 0
 1087 00dc A304F400 		sb	a5,9(s0)
 1088              	.L94:
 528:C:/Users/stapi/OneDrive/Desktop/GD32VW553/V1_MQTT_OK/GD32VW55X_Wifi_BLE_SDK/GD32VW55x_RELEASE_V1.0.2/MSDK/lwip/lwip-2.1.2/src/core/ipv4\igmp.c ****     /* Join on this interface */
 1089              		.loc 1 528 5 is_stmt 1
 528:C:/Users/stapi/OneDrive/Desktop/GD32VW553/V1_MQTT_OK/GD32VW55X_Wifi_BLE_SDK/GD32VW55x_RELEASE_V1.0.2/MSDK/lwip/lwip-2.1.2/src/core/ipv4\igmp.c ****     /* Join on this interface */
 1090              		.loc 1 528 15 is_stmt 0
 1091 00e0 8347C400 		lbu	a5,12(s0)
 530:C:/Users/stapi/OneDrive/Desktop/GD32VW553/V1_MQTT_OK/GD32VW55X_Wifi_BLE_SDK/GD32VW55x_RELEASE_V1.0.2/MSDK/lwip/lwip-2.1.2/src/core/ipv4\igmp.c ****   } else {
 1092              		.loc 1 530 12
 1093 00e4 0145     		li	a0,0
 528:C:/Users/stapi/OneDrive/Desktop/GD32VW553/V1_MQTT_OK/GD32VW55X_Wifi_BLE_SDK/GD32VW55x_RELEASE_V1.0.2/MSDK/lwip/lwip-2.1.2/src/core/ipv4\igmp.c ****     /* Join on this interface */
 1094              		.loc 1 528 15
 1095 00e6 8507     		addi	a5,a5,1
 1096 00e8 2306F400 		sb	a5,12(s0)
 530:C:/Users/stapi/OneDrive/Desktop/GD32VW553/V1_MQTT_OK/GD32VW55X_Wifi_BLE_SDK/GD32VW55x_RELEASE_V1.0.2/MSDK/lwip/lwip-2.1.2/src/core/ipv4\igmp.c ****   } else {
 1097              		.loc 1 530 5 is_stmt 1
 1098              	.L93:
 1099              	.LVL94:
 1100              	.LBE23:
 1101              	.LBE22:
 535:C:/Users/stapi/OneDrive/Desktop/GD32VW553/V1_MQTT_OK/GD32VW55X_Wifi_BLE_SDK/GD32VW55x_RELEASE_V1.0.2/MSDK/lwip/lwip-2.1.2/src/core/ipv4\igmp.c **** 
 1102              		.loc 1 535 1 is_stmt 0
 1103 00ec 17030000 		tail	__riscv_restore_3
 1103      67000300 
 1104              		.cfi_restore 18
 1105              		.cfi_restore 9
 1106              		.cfi_restore 8
 1107              		.cfi_restore 1
 1108              		.cfi_def_cfa_offset 0
 1109              		.cfi_endproc
 1110              	.LFE13:
 1112              		.section	.rodata.igmp_joingroup.str1.4,"aMS",@progbits,1
 1113              		.align	2
 1114              	.LC8:
 1115 0000 69676D70 		.string	"igmp_joingroup: attempt to join non-multicast address"
 1115      5F6A6F69 
 1115      6E67726F 
 1115      75703A20 
 1115      61747465 
 1116 0036 0000     		.align	2
 1117              	.LC9:
 1118 0038 69676D70 		.string	"igmp_joingroup: attempt to join allsystems address"
 1118      5F6A6F69 
 1118      6E67726F 
 1118      75703A20 
 1118      61747465 
 1119              		.section	.text.igmp_joingroup,"ax",@progbits
 1120              		.align	1
 1121              		.globl	igmp_joingroup
 1123              	igmp_joingroup:
 1124              	.LFB12:
 450:C:/Users/stapi/OneDrive/Desktop/GD32VW553/V1_MQTT_OK/GD32VW55X_Wifi_BLE_SDK/GD32VW55x_RELEASE_V1.0.2/MSDK/lwip/lwip-2.1.2/src/core/ipv4\igmp.c ****   err_t err = ERR_VAL; /* no matching interface */
 1125              		.loc 1 450 1 is_stmt 1
 1126              		.cfi_startproc
 1127              	.LVL95:
 1128 0000 17030000 		call	t0,__riscv_save_3
 1128      E7020300 
 1129              		.cfi_offset 18, -16
 1130              		.cfi_offset 9, -12
 1131              		.cfi_offset 8, -8
 1132              		.cfi_offset 1, -4
 1133              		.cfi_def_cfa_offset 16
 451:C:/Users/stapi/OneDrive/Desktop/GD32VW553/V1_MQTT_OK/GD32VW55X_Wifi_BLE_SDK/GD32VW55x_RELEASE_V1.0.2/MSDK/lwip/lwip-2.1.2/src/core/ipv4\igmp.c ****   struct netif *netif;
 1134              		.loc 1 451 3
 1135              	.LVL96:
 452:C:/Users/stapi/OneDrive/Desktop/GD32VW553/V1_MQTT_OK/GD32VW55X_Wifi_BLE_SDK/GD32VW55x_RELEASE_V1.0.2/MSDK/lwip/lwip-2.1.2/src/core/ipv4\igmp.c **** 
 1136              		.loc 1 452 3
 454:C:/Users/stapi/OneDrive/Desktop/GD32VW553/V1_MQTT_OK/GD32VW55X_Wifi_BLE_SDK/GD32VW55x_RELEASE_V1.0.2/MSDK/lwip/lwip-2.1.2/src/core/ipv4\igmp.c **** 
 1137              		.loc 1 454 28
 457:C:/Users/stapi/OneDrive/Desktop/GD32VW553/V1_MQTT_OK/GD32VW55X_Wifi_BLE_SDK/GD32VW55x_RELEASE_V1.0.2/MSDK/lwip/lwip-2.1.2/src/core/ipv4\igmp.c ****   LWIP_ERROR("igmp_joingroup: attempt to join allsystems address", (!ip4_addr_cmp(groupaddr, &allsy
 1138              		.loc 1 457 3
 457:C:/Users/stapi/OneDrive/Desktop/GD32VW553/V1_MQTT_OK/GD32VW55X_Wifi_BLE_SDK/GD32VW55x_RELEASE_V1.0.2/MSDK/lwip/lwip-2.1.2/src/core/ipv4\igmp.c ****   LWIP_ERROR("igmp_joingroup: attempt to join allsystems address", (!ip4_addr_cmp(groupaddr, &allsy
 1139              		.loc 1 457 3
 1140 0008 9C41     		lw	a5,0(a1)
 1141 000a 1307000E 		li	a4,224
 1142 000e 93F6070F 		andi	a3,a5,240
 1143 0012 6385E602 		beq	a3,a4,.L102
 457:C:/Users/stapi/OneDrive/Desktop/GD32VW553/V1_MQTT_OK/GD32VW55X_Wifi_BLE_SDK/GD32VW55x_RELEASE_V1.0.2/MSDK/lwip/lwip-2.1.2/src/core/ipv4\igmp.c ****   LWIP_ERROR("igmp_joingroup: attempt to join allsystems address", (!ip4_addr_cmp(groupaddr, &allsy
 1144              		.loc 1 457 3 discriminator 1
 457:C:/Users/stapi/OneDrive/Desktop/GD32VW553/V1_MQTT_OK/GD32VW55X_Wifi_BLE_SDK/GD32VW55x_RELEASE_V1.0.2/MSDK/lwip/lwip-2.1.2/src/core/ipv4\igmp.c ****   LWIP_ERROR("igmp_joingroup: attempt to join allsystems address", (!ip4_addr_cmp(groupaddr, &allsy
 1145              		.loc 1 457 3 discriminator 1
 1146 0016 B7060000 		lui	a3,%hi(.LC0)
 1147 001a B7050000 		lui	a1,%hi(.LC8)
 1148              	.LVL97:
 1149 001e 37050000 		lui	a0,%hi(.LC2)
 1150              	.LVL98:
 1151 0022 93860600 		addi	a3,a3,%lo(.LC0)
 1152 0026 1306901C 		li	a2,457
 1153 002a 93850500 		addi	a1,a1,%lo(.LC8)
 1154 002e 13050500 		addi	a0,a0,%lo(.LC2)
 1155 0032 97000000 		call	printf
 1155      E7800000 
 1156              	.LVL99:
 1157              	.L103:
 457:C:/Users/stapi/OneDrive/Desktop/GD32VW553/V1_MQTT_OK/GD32VW55X_Wifi_BLE_SDK/GD32VW55x_RELEASE_V1.0.2/MSDK/lwip/lwip-2.1.2/src/core/ipv4\igmp.c ****   LWIP_ERROR("igmp_joingroup: attempt to join allsystems address", (!ip4_addr_cmp(groupaddr, &allsy
 1158              		.loc 1 457 3 discriminator 1
 457:C:/Users/stapi/OneDrive/Desktop/GD32VW553/V1_MQTT_OK/GD32VW55X_Wifi_BLE_SDK/GD32VW55x_RELEASE_V1.0.2/MSDK/lwip/lwip-2.1.2/src/core/ipv4\igmp.c ****   LWIP_ERROR("igmp_joingroup: attempt to join allsystems address", (!ip4_addr_cmp(groupaddr, &allsy
 1159              		.loc 1 457 3 discriminator 1
 457:C:/Users/stapi/OneDrive/Desktop/GD32VW553/V1_MQTT_OK/GD32VW55X_Wifi_BLE_SDK/GD32VW55x_RELEASE_V1.0.2/MSDK/lwip/lwip-2.1.2/src/core/ipv4\igmp.c ****   LWIP_ERROR("igmp_joingroup: attempt to join allsystems address", (!ip4_addr_cmp(groupaddr, &allsy
 1160              		.loc 1 457 3 discriminator 1
 1161 003a 01A0     		j	.L103
 1162              	.LVL100:
 1163              	.L102:
 457:C:/Users/stapi/OneDrive/Desktop/GD32VW553/V1_MQTT_OK/GD32VW55X_Wifi_BLE_SDK/GD32VW55x_RELEASE_V1.0.2/MSDK/lwip/lwip-2.1.2/src/core/ipv4\igmp.c ****   LWIP_ERROR("igmp_joingroup: attempt to join allsystems address", (!ip4_addr_cmp(groupaddr, &allsy
 1164              		.loc 1 457 3 discriminator 2
 457:C:/Users/stapi/OneDrive/Desktop/GD32VW553/V1_MQTT_OK/GD32VW55X_Wifi_BLE_SDK/GD32VW55x_RELEASE_V1.0.2/MSDK/lwip/lwip-2.1.2/src/core/ipv4\igmp.c ****   LWIP_ERROR("igmp_joingroup: attempt to join allsystems address", (!ip4_addr_cmp(groupaddr, &allsy
 1165              		.loc 1 457 3 discriminator 2
 458:C:/Users/stapi/OneDrive/Desktop/GD32VW553/V1_MQTT_OK/GD32VW55X_Wifi_BLE_SDK/GD32VW55x_RELEASE_V1.0.2/MSDK/lwip/lwip-2.1.2/src/core/ipv4\igmp.c **** 
 1166              		.loc 1 458 3 discriminator 2
 458:C:/Users/stapi/OneDrive/Desktop/GD32VW553/V1_MQTT_OK/GD32VW55X_Wifi_BLE_SDK/GD32VW55x_RELEASE_V1.0.2/MSDK/lwip/lwip-2.1.2/src/core/ipv4\igmp.c **** 
 1167              		.loc 1 458 3 discriminator 2
 1168 003c 37070000 		lui	a4,%hi(.LANCHOR1)
 1169 0040 03270700 		lw	a4,%lo(.LANCHOR1)(a4)
 1170 0044 6395E702 		bne	a5,a4,.L104
 458:C:/Users/stapi/OneDrive/Desktop/GD32VW553/V1_MQTT_OK/GD32VW55X_Wifi_BLE_SDK/GD32VW55x_RELEASE_V1.0.2/MSDK/lwip/lwip-2.1.2/src/core/ipv4\igmp.c **** 
 1171              		.loc 1 458 3 discriminator 1
 458:C:/Users/stapi/OneDrive/Desktop/GD32VW553/V1_MQTT_OK/GD32VW55X_Wifi_BLE_SDK/GD32VW55x_RELEASE_V1.0.2/MSDK/lwip/lwip-2.1.2/src/core/ipv4\igmp.c **** 
 1172              		.loc 1 458 3 discriminator 1
 1173 0048 B7060000 		lui	a3,%hi(.LC0)
 1174 004c B7050000 		lui	a1,%hi(.LC9)
 1175              	.LVL101:
 1176 0050 37050000 		lui	a0,%hi(.LC2)
 1177              	.LVL102:
 1178 0054 93860600 		addi	a3,a3,%lo(.LC0)
 1179 0058 1306A01C 		li	a2,458
 1180 005c 93850500 		addi	a1,a1,%lo(.LC9)
 1181 0060 13050500 		addi	a0,a0,%lo(.LC2)
 1182 0064 97000000 		call	printf
 1182      E7800000 
 1183              	.LVL103:
 1184              	.L105:
 458:C:/Users/stapi/OneDrive/Desktop/GD32VW553/V1_MQTT_OK/GD32VW55X_Wifi_BLE_SDK/GD32VW55x_RELEASE_V1.0.2/MSDK/lwip/lwip-2.1.2/src/core/ipv4\igmp.c **** 
 1185              		.loc 1 458 3 discriminator 2
 458:C:/Users/stapi/OneDrive/Desktop/GD32VW553/V1_MQTT_OK/GD32VW55X_Wifi_BLE_SDK/GD32VW55x_RELEASE_V1.0.2/MSDK/lwip/lwip-2.1.2/src/core/ipv4\igmp.c **** 
 1186              		.loc 1 458 3 discriminator 2
 458:C:/Users/stapi/OneDrive/Desktop/GD32VW553/V1_MQTT_OK/GD32VW55X_Wifi_BLE_SDK/GD32VW55x_RELEASE_V1.0.2/MSDK/lwip/lwip-2.1.2/src/core/ipv4\igmp.c **** 
 1187              		.loc 1 458 3 discriminator 2
 1188 006c 01A0     		j	.L105
 1189              	.LVL104:
 1190              	.L104:
 461:C:/Users/stapi/OneDrive/Desktop/GD32VW553/V1_MQTT_OK/GD32VW55X_Wifi_BLE_SDK/GD32VW55x_RELEASE_V1.0.2/MSDK/lwip/lwip-2.1.2/src/core/ipv4\igmp.c ****     /* Should we join this interface ? */
 1191              		.loc 1 461 3 is_stmt 0 discriminator 2
 1192 006e B7070000 		lui	a5,%hi(netif_list)
 1193 0072 03A40700 		lw	s0,%lo(netif_list)(a5)
 1194 0076 AA84     		mv	s1,a0
 1195 0078 2E89     		mv	s2,a1
 458:C:/Users/stapi/OneDrive/Desktop/GD32VW553/V1_MQTT_OK/GD32VW55X_Wifi_BLE_SDK/GD32VW55x_RELEASE_V1.0.2/MSDK/lwip/lwip-2.1.2/src/core/ipv4\igmp.c **** 
 1196              		.loc 1 458 3 is_stmt 1 discriminator 2
 458:C:/Users/stapi/OneDrive/Desktop/GD32VW553/V1_MQTT_OK/GD32VW55X_Wifi_BLE_SDK/GD32VW55x_RELEASE_V1.0.2/MSDK/lwip/lwip-2.1.2/src/core/ipv4\igmp.c **** 
 1197              		.loc 1 458 3 discriminator 2
 461:C:/Users/stapi/OneDrive/Desktop/GD32VW553/V1_MQTT_OK/GD32VW55X_Wifi_BLE_SDK/GD32VW55x_RELEASE_V1.0.2/MSDK/lwip/lwip-2.1.2/src/core/ipv4\igmp.c ****     /* Should we join this interface ? */
 1198              		.loc 1 461 3 discriminator 2
 1199              	.LVL105:
 451:C:/Users/stapi/OneDrive/Desktop/GD32VW553/V1_MQTT_OK/GD32VW55X_Wifi_BLE_SDK/GD32VW55x_RELEASE_V1.0.2/MSDK/lwip/lwip-2.1.2/src/core/ipv4\igmp.c ****   struct netif *netif;
 1200              		.loc 1 451 9 is_stmt 0 discriminator 2
 1201 007a 6955     		li	a0,-6
 1202              	.LVL106:
 1203              	.L106:
 461:C:/Users/stapi/OneDrive/Desktop/GD32VW553/V1_MQTT_OK/GD32VW55X_Wifi_BLE_SDK/GD32VW55x_RELEASE_V1.0.2/MSDK/lwip/lwip-2.1.2/src/core/ipv4\igmp.c ****     /* Should we join this interface ? */
 1204              		.loc 1 461 3 is_stmt 1 discriminator 1
 1205 007c 09E4     		bne	s0,zero,.L110
 1206              	.L109:
 474:C:/Users/stapi/OneDrive/Desktop/GD32VW553/V1_MQTT_OK/GD32VW55X_Wifi_BLE_SDK/GD32VW55x_RELEASE_V1.0.2/MSDK/lwip/lwip-2.1.2/src/core/ipv4\igmp.c **** 
 1207              		.loc 1 474 1 is_stmt 0
 1208 007e 17030000 		tail	__riscv_restore_3
 1208      67000300 
 1209              		.cfi_remember_state
 1210              		.cfi_restore 18
 1211              		.cfi_restore 9
 1212              		.cfi_restore 8
 1213              		.cfi_restore 1
 1214              		.cfi_def_cfa_offset 0
 1215              	.L110:
 1216              		.cfi_restore_state
 463:C:/Users/stapi/OneDrive/Desktop/GD32VW553/V1_MQTT_OK/GD32VW55X_Wifi_BLE_SDK/GD32VW55x_RELEASE_V1.0.2/MSDK/lwip/lwip-2.1.2/src/core/ipv4\igmp.c ****       err = igmp_joingroup_netif(netif, groupaddr);
 1217              		.loc 1 463 5 is_stmt 1
 463:C:/Users/stapi/OneDrive/Desktop/GD32VW553/V1_MQTT_OK/GD32VW55X_Wifi_BLE_SDK/GD32VW55x_RELEASE_V1.0.2/MSDK/lwip/lwip-2.1.2/src/core/ipv4\igmp.c ****       err = igmp_joingroup_netif(netif, groupaddr);
 1218              		.loc 1 463 8 is_stmt 0
 1219 0086 83471403 		lbu	a5,49(s0)
 1220 008a 93F70702 		andi	a5,a5,32
 1221 008e 91CF     		beq	a5,zero,.L107
 463:C:/Users/stapi/OneDrive/Desktop/GD32VW553/V1_MQTT_OK/GD32VW55X_Wifi_BLE_SDK/GD32VW55x_RELEASE_V1.0.2/MSDK/lwip/lwip-2.1.2/src/core/ipv4\igmp.c ****       err = igmp_joingroup_netif(netif, groupaddr);
 1222              		.loc 1 463 42 discriminator 1
 1223 0090 91C4     		beq	s1,zero,.L108
 463:C:/Users/stapi/OneDrive/Desktop/GD32VW553/V1_MQTT_OK/GD32VW55X_Wifi_BLE_SDK/GD32VW55x_RELEASE_V1.0.2/MSDK/lwip/lwip-2.1.2/src/core/ipv4\igmp.c ****       err = igmp_joingroup_netif(netif, groupaddr);
 1224              		.loc 1 463 47 discriminator 2
 1225 0092 9C40     		lw	a5,0(s1)
 1226 0094 81C7     		beq	a5,zero,.L108
 463:C:/Users/stapi/OneDrive/Desktop/GD32VW553/V1_MQTT_OK/GD32VW55X_Wifi_BLE_SDK/GD32VW55x_RELEASE_V1.0.2/MSDK/lwip/lwip-2.1.2/src/core/ipv4\igmp.c ****       err = igmp_joingroup_netif(netif, groupaddr);
 1227              		.loc 1 463 70 discriminator 3
 1228 0096 5840     		lw	a4,4(s0)
 1229 0098 6399E700 		bne	a5,a4,.L107
 1230              	.L108:
 464:C:/Users/stapi/OneDrive/Desktop/GD32VW553/V1_MQTT_OK/GD32VW55X_Wifi_BLE_SDK/GD32VW55x_RELEASE_V1.0.2/MSDK/lwip/lwip-2.1.2/src/core/ipv4\igmp.c ****       if (err != ERR_OK) {
 1231              		.loc 1 464 7 is_stmt 1
 464:C:/Users/stapi/OneDrive/Desktop/GD32VW553/V1_MQTT_OK/GD32VW55X_Wifi_BLE_SDK/GD32VW55x_RELEASE_V1.0.2/MSDK/lwip/lwip-2.1.2/src/core/ipv4\igmp.c ****       if (err != ERR_OK) {
 1232              		.loc 1 464 13 is_stmt 0
 1233 009c CA85     		mv	a1,s2
 1234 009e 2285     		mv	a0,s0
 1235              	.LVL107:
 1236 00a0 97000000 		call	igmp_joingroup_netif
 1236      E7800000 
 1237              	.LVL108:
 465:C:/Users/stapi/OneDrive/Desktop/GD32VW553/V1_MQTT_OK/GD32VW55X_Wifi_BLE_SDK/GD32VW55x_RELEASE_V1.0.2/MSDK/lwip/lwip-2.1.2/src/core/ipv4\igmp.c ****         /* Return an error even if some network interfaces are joined */
 1238              		.loc 1 465 7 is_stmt 1
 465:C:/Users/stapi/OneDrive/Desktop/GD32VW553/V1_MQTT_OK/GD32VW55X_Wifi_BLE_SDK/GD32VW55x_RELEASE_V1.0.2/MSDK/lwip/lwip-2.1.2/src/core/ipv4\igmp.c ****         /* Return an error even if some network interfaces are joined */
 1239              		.loc 1 465 10 is_stmt 0
 1240 00a8 79F9     		bne	a0,zero,.L109
 1241              	.L107:
 461:C:/Users/stapi/OneDrive/Desktop/GD32VW553/V1_MQTT_OK/GD32VW55X_Wifi_BLE_SDK/GD32VW55x_RELEASE_V1.0.2/MSDK/lwip/lwip-2.1.2/src/core/ipv4\igmp.c ****     /* Should we join this interface ? */
 1242              		.loc 1 461 3 is_stmt 1 discriminator 2
 1243 00aa 0040     		lw	s0,0(s0)
 1244              	.LVL109:
 1245 00ac C1BF     		j	.L106
 1246              		.cfi_endproc
 1247              	.LFE12:
 1249              		.section	.rodata.igmp_leavegroup_netif.str1.4,"aMS",@progbits,1
 1250              		.align	2
 1251              	.LC10:
 1252 0000 69676D70 		.string	"igmp_leavegroup_netif: attempt to leave non-multicast address"
 1252      5F6C6561 
 1252      76656772 
 1252      6F75705F 
 1252      6E657469 
 1253 003e 0000     		.align	2
 1254              	.LC11:
 1255 0040 69676D70 		.string	"igmp_leavegroup_netif: attempt to leave allsystems address"
 1255      5F6C6561 
 1255      76656772 
 1255      6F75705F 
 1255      6E657469 
 1256 007b 00       		.align	2
 1257              	.LC12:
 1258 007c 69676D70 		.string	"igmp_leavegroup_netif: attempt to leave on non-IGMP netif"
 1258      5F6C6561 
 1258      76656772 
 1258      6F75705F 
 1258      6E657469 
 1259              		.section	.text.igmp_leavegroup_netif,"ax",@progbits
 1260              		.align	1
 1261              		.globl	igmp_leavegroup_netif
 1263              	igmp_leavegroup_netif:
 1264              	.LFB15:
 582:C:/Users/stapi/OneDrive/Desktop/GD32VW553/V1_MQTT_OK/GD32VW55X_Wifi_BLE_SDK/GD32VW55x_RELEASE_V1.0.2/MSDK/lwip/lwip-2.1.2/src/core/ipv4\igmp.c ****   struct igmp_group *group;
 1265              		.loc 1 582 1
 1266              		.cfi_startproc
 1267              	.LVL110:
 1268 0000 17030000 		call	t0,__riscv_save_3
 1268      E7020300 
 1269              		.cfi_offset 18, -16
 1270              		.cfi_offset 9, -12
 1271              		.cfi_offset 8, -8
 1272              		.cfi_offset 1, -4
 1273              		.cfi_def_cfa_offset 16
 583:C:/Users/stapi/OneDrive/Desktop/GD32VW553/V1_MQTT_OK/GD32VW55X_Wifi_BLE_SDK/GD32VW55x_RELEASE_V1.0.2/MSDK/lwip/lwip-2.1.2/src/core/ipv4\igmp.c **** 
 1274              		.loc 1 583 3
 585:C:/Users/stapi/OneDrive/Desktop/GD32VW553/V1_MQTT_OK/GD32VW55X_Wifi_BLE_SDK/GD32VW55x_RELEASE_V1.0.2/MSDK/lwip/lwip-2.1.2/src/core/ipv4\igmp.c **** 
 1275              		.loc 1 585 28
 588:C:/Users/stapi/OneDrive/Desktop/GD32VW553/V1_MQTT_OK/GD32VW55X_Wifi_BLE_SDK/GD32VW55x_RELEASE_V1.0.2/MSDK/lwip/lwip-2.1.2/src/core/ipv4\igmp.c ****   LWIP_ERROR("igmp_leavegroup_netif: attempt to leave allsystems address", (!ip4_addr_cmp(groupaddr
 1276              		.loc 1 588 3
 588:C:/Users/stapi/OneDrive/Desktop/GD32VW553/V1_MQTT_OK/GD32VW55X_Wifi_BLE_SDK/GD32VW55x_RELEASE_V1.0.2/MSDK/lwip/lwip-2.1.2/src/core/ipv4\igmp.c ****   LWIP_ERROR("igmp_leavegroup_netif: attempt to leave allsystems address", (!ip4_addr_cmp(groupaddr
 1277              		.loc 1 588 3
 1278 0008 9C41     		lw	a5,0(a1)
 1279 000a 1307000E 		li	a4,224
 1280 000e 93F6070F 		andi	a3,a5,240
 1281 0012 6385E602 		beq	a3,a4,.L122
 588:C:/Users/stapi/OneDrive/Desktop/GD32VW553/V1_MQTT_OK/GD32VW55X_Wifi_BLE_SDK/GD32VW55x_RELEASE_V1.0.2/MSDK/lwip/lwip-2.1.2/src/core/ipv4\igmp.c ****   LWIP_ERROR("igmp_leavegroup_netif: attempt to leave allsystems address", (!ip4_addr_cmp(groupaddr
 1282              		.loc 1 588 3 discriminator 1
 588:C:/Users/stapi/OneDrive/Desktop/GD32VW553/V1_MQTT_OK/GD32VW55X_Wifi_BLE_SDK/GD32VW55x_RELEASE_V1.0.2/MSDK/lwip/lwip-2.1.2/src/core/ipv4\igmp.c ****   LWIP_ERROR("igmp_leavegroup_netif: attempt to leave allsystems address", (!ip4_addr_cmp(groupaddr
 1283              		.loc 1 588 3 discriminator 1
 1284 0016 B7060000 		lui	a3,%hi(.LC0)
 1285 001a B7050000 		lui	a1,%hi(.LC10)
 1286              	.LVL111:
 1287 001e 37050000 		lui	a0,%hi(.LC2)
 1288              	.LVL112:
 1289 0022 93860600 		addi	a3,a3,%lo(.LC0)
 1290 0026 1306C024 		li	a2,588
 1291 002a 93850500 		addi	a1,a1,%lo(.LC10)
 1292 002e 13050500 		addi	a0,a0,%lo(.LC2)
 1293 0032 97000000 		call	printf
 1293      E7800000 
 1294              	.LVL113:
 1295              	.L123:
 588:C:/Users/stapi/OneDrive/Desktop/GD32VW553/V1_MQTT_OK/GD32VW55X_Wifi_BLE_SDK/GD32VW55x_RELEASE_V1.0.2/MSDK/lwip/lwip-2.1.2/src/core/ipv4\igmp.c ****   LWIP_ERROR("igmp_leavegroup_netif: attempt to leave allsystems address", (!ip4_addr_cmp(groupaddr
 1296              		.loc 1 588 3 discriminator 1
 588:C:/Users/stapi/OneDrive/Desktop/GD32VW553/V1_MQTT_OK/GD32VW55X_Wifi_BLE_SDK/GD32VW55x_RELEASE_V1.0.2/MSDK/lwip/lwip-2.1.2/src/core/ipv4\igmp.c ****   LWIP_ERROR("igmp_leavegroup_netif: attempt to leave allsystems address", (!ip4_addr_cmp(groupaddr
 1297              		.loc 1 588 3 discriminator 1
 588:C:/Users/stapi/OneDrive/Desktop/GD32VW553/V1_MQTT_OK/GD32VW55X_Wifi_BLE_SDK/GD32VW55x_RELEASE_V1.0.2/MSDK/lwip/lwip-2.1.2/src/core/ipv4\igmp.c ****   LWIP_ERROR("igmp_leavegroup_netif: attempt to leave allsystems address", (!ip4_addr_cmp(groupaddr
 1298              		.loc 1 588 3 discriminator 1
 1299 003a 01A0     		j	.L123
 1300              	.LVL114:
 1301              	.L122:
 588:C:/Users/stapi/OneDrive/Desktop/GD32VW553/V1_MQTT_OK/GD32VW55X_Wifi_BLE_SDK/GD32VW55x_RELEASE_V1.0.2/MSDK/lwip/lwip-2.1.2/src/core/ipv4\igmp.c ****   LWIP_ERROR("igmp_leavegroup_netif: attempt to leave allsystems address", (!ip4_addr_cmp(groupaddr
 1302              		.loc 1 588 3 discriminator 2
 588:C:/Users/stapi/OneDrive/Desktop/GD32VW553/V1_MQTT_OK/GD32VW55X_Wifi_BLE_SDK/GD32VW55x_RELEASE_V1.0.2/MSDK/lwip/lwip-2.1.2/src/core/ipv4\igmp.c ****   LWIP_ERROR("igmp_leavegroup_netif: attempt to leave allsystems address", (!ip4_addr_cmp(groupaddr
 1303              		.loc 1 588 3 discriminator 2
 589:C:/Users/stapi/OneDrive/Desktop/GD32VW553/V1_MQTT_OK/GD32VW55X_Wifi_BLE_SDK/GD32VW55x_RELEASE_V1.0.2/MSDK/lwip/lwip-2.1.2/src/core/ipv4\igmp.c **** 
 1304              		.loc 1 589 3 discriminator 2
 589:C:/Users/stapi/OneDrive/Desktop/GD32VW553/V1_MQTT_OK/GD32VW55X_Wifi_BLE_SDK/GD32VW55x_RELEASE_V1.0.2/MSDK/lwip/lwip-2.1.2/src/core/ipv4\igmp.c **** 
 1305              		.loc 1 589 3 discriminator 2
 1306 003c 37070000 		lui	a4,%hi(.LANCHOR1)
 1307 0040 03270700 		lw	a4,%lo(.LANCHOR1)(a4)
 1308 0044 6395E702 		bne	a5,a4,.L124
 589:C:/Users/stapi/OneDrive/Desktop/GD32VW553/V1_MQTT_OK/GD32VW55X_Wifi_BLE_SDK/GD32VW55x_RELEASE_V1.0.2/MSDK/lwip/lwip-2.1.2/src/core/ipv4\igmp.c **** 
 1309              		.loc 1 589 3 discriminator 1
 589:C:/Users/stapi/OneDrive/Desktop/GD32VW553/V1_MQTT_OK/GD32VW55X_Wifi_BLE_SDK/GD32VW55x_RELEASE_V1.0.2/MSDK/lwip/lwip-2.1.2/src/core/ipv4\igmp.c **** 
 1310              		.loc 1 589 3 discriminator 1
 1311 0048 B7060000 		lui	a3,%hi(.LC0)
 1312 004c B7050000 		lui	a1,%hi(.LC11)
 1313              	.LVL115:
 1314 0050 37050000 		lui	a0,%hi(.LC2)
 1315              	.LVL116:
 1316 0054 93860600 		addi	a3,a3,%lo(.LC0)
 1317 0058 1306D024 		li	a2,589
 1318 005c 93850500 		addi	a1,a1,%lo(.LC11)
 1319 0060 13050500 		addi	a0,a0,%lo(.LC2)
 1320 0064 97000000 		call	printf
 1320      E7800000 
 1321              	.LVL117:
 1322              	.L125:
 589:C:/Users/stapi/OneDrive/Desktop/GD32VW553/V1_MQTT_OK/GD32VW55X_Wifi_BLE_SDK/GD32VW55x_RELEASE_V1.0.2/MSDK/lwip/lwip-2.1.2/src/core/ipv4\igmp.c **** 
 1323              		.loc 1 589 3 discriminator 2
 589:C:/Users/stapi/OneDrive/Desktop/GD32VW553/V1_MQTT_OK/GD32VW55X_Wifi_BLE_SDK/GD32VW55x_RELEASE_V1.0.2/MSDK/lwip/lwip-2.1.2/src/core/ipv4\igmp.c **** 
 1324              		.loc 1 589 3 discriminator 2
 589:C:/Users/stapi/OneDrive/Desktop/GD32VW553/V1_MQTT_OK/GD32VW55X_Wifi_BLE_SDK/GD32VW55x_RELEASE_V1.0.2/MSDK/lwip/lwip-2.1.2/src/core/ipv4\igmp.c **** 
 1325              		.loc 1 589 3 discriminator 2
 1326 006c 01A0     		j	.L125
 1327              	.LVL118:
 1328              	.L124:
 1329              	.LBB30:
 1330              	.LBB31:
 592:C:/Users/stapi/OneDrive/Desktop/GD32VW553/V1_MQTT_OK/GD32VW55X_Wifi_BLE_SDK/GD32VW55x_RELEASE_V1.0.2/MSDK/lwip/lwip-2.1.2/src/core/ipv4\igmp.c **** 
 1331              		.loc 1 592 3 is_stmt 0
 1332 006e 83471503 		lbu	a5,49(a0)
 1333 0072 AA84     		mv	s1,a0
 1334              	.LVL119:
 589:C:/Users/stapi/OneDrive/Desktop/GD32VW553/V1_MQTT_OK/GD32VW55X_Wifi_BLE_SDK/GD32VW55x_RELEASE_V1.0.2/MSDK/lwip/lwip-2.1.2/src/core/ipv4\igmp.c **** 
 1335              		.loc 1 589 3 is_stmt 1
 589:C:/Users/stapi/OneDrive/Desktop/GD32VW553/V1_MQTT_OK/GD32VW55X_Wifi_BLE_SDK/GD32VW55x_RELEASE_V1.0.2/MSDK/lwip/lwip-2.1.2/src/core/ipv4\igmp.c **** 
 1336              		.loc 1 589 3
 592:C:/Users/stapi/OneDrive/Desktop/GD32VW553/V1_MQTT_OK/GD32VW55X_Wifi_BLE_SDK/GD32VW55x_RELEASE_V1.0.2/MSDK/lwip/lwip-2.1.2/src/core/ipv4\igmp.c **** 
 1337              		.loc 1 592 3
 592:C:/Users/stapi/OneDrive/Desktop/GD32VW553/V1_MQTT_OK/GD32VW55X_Wifi_BLE_SDK/GD32VW55x_RELEASE_V1.0.2/MSDK/lwip/lwip-2.1.2/src/core/ipv4\igmp.c **** 
 1338              		.loc 1 592 3
 1339 0074 93F70702 		andi	a5,a5,32
 1340 0078 85E7     		bne	a5,zero,.L126
 1341              	.LVL120:
 592:C:/Users/stapi/OneDrive/Desktop/GD32VW553/V1_MQTT_OK/GD32VW55X_Wifi_BLE_SDK/GD32VW55x_RELEASE_V1.0.2/MSDK/lwip/lwip-2.1.2/src/core/ipv4\igmp.c **** 
 1342              		.loc 1 592 3
 592:C:/Users/stapi/OneDrive/Desktop/GD32VW553/V1_MQTT_OK/GD32VW55X_Wifi_BLE_SDK/GD32VW55x_RELEASE_V1.0.2/MSDK/lwip/lwip-2.1.2/src/core/ipv4\igmp.c **** 
 1343              		.loc 1 592 3
 1344 007a B7060000 		lui	a3,%hi(.LC0)
 1345 007e B7050000 		lui	a1,%hi(.LC12)
 1346              	.LVL121:
 1347 0082 37050000 		lui	a0,%hi(.LC2)
 1348 0086 93860600 		addi	a3,a3,%lo(.LC0)
 1349 008a 13060025 		li	a2,592
 1350 008e 93850500 		addi	a1,a1,%lo(.LC12)
 1351 0092 13050500 		addi	a0,a0,%lo(.LC2)
 1352 0096 97000000 		call	printf
 1352      E7800000 
 1353              	.LVL122:
 1354              	.L127:
 592:C:/Users/stapi/OneDrive/Desktop/GD32VW553/V1_MQTT_OK/GD32VW55X_Wifi_BLE_SDK/GD32VW55x_RELEASE_V1.0.2/MSDK/lwip/lwip-2.1.2/src/core/ipv4\igmp.c **** 
 1355              		.loc 1 592 3
 592:C:/Users/stapi/OneDrive/Desktop/GD32VW553/V1_MQTT_OK/GD32VW55X_Wifi_BLE_SDK/GD32VW55x_RELEASE_V1.0.2/MSDK/lwip/lwip-2.1.2/src/core/ipv4\igmp.c **** 
 1356              		.loc 1 592 3
 592:C:/Users/stapi/OneDrive/Desktop/GD32VW553/V1_MQTT_OK/GD32VW55X_Wifi_BLE_SDK/GD32VW55x_RELEASE_V1.0.2/MSDK/lwip/lwip-2.1.2/src/core/ipv4\igmp.c **** 
 1357              		.loc 1 592 3
 1358 009e 01A0     		j	.L127
 1359              	.LVL123:
 1360              	.L126:
 1361 00a0 2E89     		mv	s2,a1
 592:C:/Users/stapi/OneDrive/Desktop/GD32VW553/V1_MQTT_OK/GD32VW55X_Wifi_BLE_SDK/GD32VW55x_RELEASE_V1.0.2/MSDK/lwip/lwip-2.1.2/src/core/ipv4\igmp.c **** 
 1362              		.loc 1 592 3
 592:C:/Users/stapi/OneDrive/Desktop/GD32VW553/V1_MQTT_OK/GD32VW55X_Wifi_BLE_SDK/GD32VW55x_RELEASE_V1.0.2/MSDK/lwip/lwip-2.1.2/src/core/ipv4\igmp.c **** 
 1363              		.loc 1 592 3
 595:C:/Users/stapi/OneDrive/Desktop/GD32VW553/V1_MQTT_OK/GD32VW55X_Wifi_BLE_SDK/GD32VW55x_RELEASE_V1.0.2/MSDK/lwip/lwip-2.1.2/src/core/ipv4\igmp.c **** 
 1364              		.loc 1 595 3
 595:C:/Users/stapi/OneDrive/Desktop/GD32VW553/V1_MQTT_OK/GD32VW55X_Wifi_BLE_SDK/GD32VW55x_RELEASE_V1.0.2/MSDK/lwip/lwip-2.1.2/src/core/ipv4\igmp.c **** 
 1365              		.loc 1 595 11 is_stmt 0
 1366 00a2 97000000 		call	igmp_lookfor_group
 1366      E7800000 
 1367              	.LVL124:
 1368 00aa 2A84     		mv	s0,a0
 1369              	.LVL125:
 597:C:/Users/stapi/OneDrive/Desktop/GD32VW553/V1_MQTT_OK/GD32VW55X_Wifi_BLE_SDK/GD32VW55x_RELEASE_V1.0.2/MSDK/lwip/lwip-2.1.2/src/core/ipv4\igmp.c ****     /* Only send a leave if the flag is set according to the state diagram */
 1370              		.loc 1 597 3 is_stmt 1
 632:C:/Users/stapi/OneDrive/Desktop/GD32VW553/V1_MQTT_OK/GD32VW55X_Wifi_BLE_SDK/GD32VW55x_RELEASE_V1.0.2/MSDK/lwip/lwip-2.1.2/src/core/ipv4\igmp.c ****   }
 1371              		.loc 1 632 12 is_stmt 0
 1372 00ac 6955     		li	a0,-6
 597:C:/Users/stapi/OneDrive/Desktop/GD32VW553/V1_MQTT_OK/GD32VW55X_Wifi_BLE_SDK/GD32VW55x_RELEASE_V1.0.2/MSDK/lwip/lwip-2.1.2/src/core/ipv4\igmp.c ****     /* Only send a leave if the flag is set according to the state diagram */
 1373              		.loc 1 597 6
 1374 00ae 21C4     		beq	s0,zero,.L128
 599:C:/Users/stapi/OneDrive/Desktop/GD32VW553/V1_MQTT_OK/GD32VW55X_Wifi_BLE_SDK/GD32VW55x_RELEASE_V1.0.2/MSDK/lwip/lwip-2.1.2/src/core/ipv4\igmp.c ****     ip4_addr_debug_print(IGMP_DEBUG, groupaddr);
 1375              		.loc 1 599 72 is_stmt 1
 600:C:/Users/stapi/OneDrive/Desktop/GD32VW553/V1_MQTT_OK/GD32VW55X_Wifi_BLE_SDK/GD32VW55x_RELEASE_V1.0.2/MSDK/lwip/lwip-2.1.2/src/core/ipv4\igmp.c ****     LWIP_DEBUGF(IGMP_DEBUG, ("\n"));
 1376              		.loc 1 600 48
 601:C:/Users/stapi/OneDrive/Desktop/GD32VW553/V1_MQTT_OK/GD32VW55X_Wifi_BLE_SDK/GD32VW55x_RELEASE_V1.0.2/MSDK/lwip/lwip-2.1.2/src/core/ipv4\igmp.c **** 
 1377              		.loc 1 601 36
 604:C:/Users/stapi/OneDrive/Desktop/GD32VW553/V1_MQTT_OK/GD32VW55X_Wifi_BLE_SDK/GD32VW55x_RELEASE_V1.0.2/MSDK/lwip/lwip-2.1.2/src/core/ipv4\igmp.c ****       /* Remove the group from the list */
 1378              		.loc 1 604 5
 604:C:/Users/stapi/OneDrive/Desktop/GD32VW553/V1_MQTT_OK/GD32VW55X_Wifi_BLE_SDK/GD32VW55x_RELEASE_V1.0.2/MSDK/lwip/lwip-2.1.2/src/core/ipv4\igmp.c ****       /* Remove the group from the list */
 1379              		.loc 1 604 14 is_stmt 0
 1380 00b0 8347C400 		lbu	a5,12(s0)
 604:C:/Users/stapi/OneDrive/Desktop/GD32VW553/V1_MQTT_OK/GD32VW55X_Wifi_BLE_SDK/GD32VW55x_RELEASE_V1.0.2/MSDK/lwip/lwip-2.1.2/src/core/ipv4\igmp.c ****       /* Remove the group from the list */
 1381              		.loc 1 604 8
 1382 00b4 0547     		li	a4,1
 1383 00b6 6366F704 		bgtu	a5,a4,.L129
 606:C:/Users/stapi/OneDrive/Desktop/GD32VW553/V1_MQTT_OK/GD32VW55X_Wifi_BLE_SDK/GD32VW55x_RELEASE_V1.0.2/MSDK/lwip/lwip-2.1.2/src/core/ipv4\igmp.c **** 
 1384              		.loc 1 606 7 is_stmt 1
 1385 00ba DC50     		lw	a5,36(s1)
 1386              	.LVL126:
 1387              	.LBB32:
 1388              	.LBB33:
 297:C:/Users/stapi/OneDrive/Desktop/GD32VW553/V1_MQTT_OK/GD32VW55X_Wifi_BLE_SDK/GD32VW55x_RELEASE_V1.0.2/MSDK/lwip/lwip-2.1.2/src/core/ipv4\igmp.c ****   struct igmp_group *tmp_group;
 1389              		.loc 1 297 3
 298:C:/Users/stapi/OneDrive/Desktop/GD32VW553/V1_MQTT_OK/GD32VW55X_Wifi_BLE_SDK/GD32VW55x_RELEASE_V1.0.2/MSDK/lwip/lwip-2.1.2/src/core/ipv4\igmp.c **** 
 1390              		.loc 1 298 3
 301:C:/Users/stapi/OneDrive/Desktop/GD32VW553/V1_MQTT_OK/GD32VW55X_Wifi_BLE_SDK/GD32VW55x_RELEASE_V1.0.2/MSDK/lwip/lwip-2.1.2/src/core/ipv4\igmp.c ****     if (tmp_group->next == group) {
 1391              		.loc 1 301 3
 1392              	.L130:
 301:C:/Users/stapi/OneDrive/Desktop/GD32VW553/V1_MQTT_OK/GD32VW55X_Wifi_BLE_SDK/GD32VW55x_RELEASE_V1.0.2/MSDK/lwip/lwip-2.1.2/src/core/ipv4\igmp.c ****     if (tmp_group->next == group) {
 1393              		.loc 1 301 44
 301:C:/Users/stapi/OneDrive/Desktop/GD32VW553/V1_MQTT_OK/GD32VW55X_Wifi_BLE_SDK/GD32VW55x_RELEASE_V1.0.2/MSDK/lwip/lwip-2.1.2/src/core/ipv4\igmp.c ****     if (tmp_group->next == group) {
 1394              		.loc 1 301 3 is_stmt 0
 1395 00bc 91C7     		beq	a5,zero,.L131
 302:C:/Users/stapi/OneDrive/Desktop/GD32VW553/V1_MQTT_OK/GD32VW55X_Wifi_BLE_SDK/GD32VW55x_RELEASE_V1.0.2/MSDK/lwip/lwip-2.1.2/src/core/ipv4\igmp.c ****       tmp_group->next = group->next;
 1396              		.loc 1 302 5 is_stmt 1
 302:C:/Users/stapi/OneDrive/Desktop/GD32VW553/V1_MQTT_OK/GD32VW55X_Wifi_BLE_SDK/GD32VW55x_RELEASE_V1.0.2/MSDK/lwip/lwip-2.1.2/src/core/ipv4\igmp.c ****       tmp_group->next = group->next;
 1397              		.loc 1 302 18 is_stmt 0
 1398 00be 9843     		lw	a4,0(a5)
 302:C:/Users/stapi/OneDrive/Desktop/GD32VW553/V1_MQTT_OK/GD32VW55X_Wifi_BLE_SDK/GD32VW55x_RELEASE_V1.0.2/MSDK/lwip/lwip-2.1.2/src/core/ipv4\igmp.c ****       tmp_group->next = group->next;
 1399              		.loc 1 302 8
 1400 00c0 631FE402 		bne	s0,a4,.L136
 303:C:/Users/stapi/OneDrive/Desktop/GD32VW553/V1_MQTT_OK/GD32VW55X_Wifi_BLE_SDK/GD32VW55x_RELEASE_V1.0.2/MSDK/lwip/lwip-2.1.2/src/core/ipv4\igmp.c ****       break;
 1401              		.loc 1 303 7 is_stmt 1
 303:C:/Users/stapi/OneDrive/Desktop/GD32VW553/V1_MQTT_OK/GD32VW55X_Wifi_BLE_SDK/GD32VW55x_RELEASE_V1.0.2/MSDK/lwip/lwip-2.1.2/src/core/ipv4\igmp.c ****       break;
 1402              		.loc 1 303 30 is_stmt 0
 1403 00c4 1840     		lw	a4,0(s0)
 303:C:/Users/stapi/OneDrive/Desktop/GD32VW553/V1_MQTT_OK/GD32VW55X_Wifi_BLE_SDK/GD32VW55x_RELEASE_V1.0.2/MSDK/lwip/lwip-2.1.2/src/core/ipv4\igmp.c ****       break;
 1404              		.loc 1 303 23
 1405 00c6 98C3     		sw	a4,0(a5)
 304:C:/Users/stapi/OneDrive/Desktop/GD32VW553/V1_MQTT_OK/GD32VW55X_Wifi_BLE_SDK/GD32VW55x_RELEASE_V1.0.2/MSDK/lwip/lwip-2.1.2/src/core/ipv4\igmp.c ****     }
 1406              		.loc 1 304 7 is_stmt 1
 308:C:/Users/stapi/OneDrive/Desktop/GD32VW553/V1_MQTT_OK/GD32VW55X_Wifi_BLE_SDK/GD32VW55x_RELEASE_V1.0.2/MSDK/lwip/lwip-2.1.2/src/core/ipv4\igmp.c ****     err = ERR_ARG;
 1407              		.loc 1 308 3
 1408              	.L131:
 1409              	.LVL127:
 312:C:/Users/stapi/OneDrive/Desktop/GD32VW553/V1_MQTT_OK/GD32VW55X_Wifi_BLE_SDK/GD32VW55x_RELEASE_V1.0.2/MSDK/lwip/lwip-2.1.2/src/core/ipv4\igmp.c **** }
 1410              		.loc 1 312 3
 1411              	.LBE33:
 1412              	.LBE32:
 609:C:/Users/stapi/OneDrive/Desktop/GD32VW553/V1_MQTT_OK/GD32VW55X_Wifi_BLE_SDK/GD32VW55x_RELEASE_V1.0.2/MSDK/lwip/lwip-2.1.2/src/core/ipv4\igmp.c ****         LWIP_DEBUGF(IGMP_DEBUG, ("igmp_leavegroup_netif: sending leaving group\n"));
 1413              		.loc 1 609 7
 609:C:/Users/stapi/OneDrive/Desktop/GD32VW553/V1_MQTT_OK/GD32VW55X_Wifi_BLE_SDK/GD32VW55x_RELEASE_V1.0.2/MSDK/lwip/lwip-2.1.2/src/core/ipv4\igmp.c ****         LWIP_DEBUGF(IGMP_DEBUG, ("igmp_leavegroup_netif: sending leaving group\n"));
 1414              		.loc 1 609 10 is_stmt 0
 1415 00c8 83478400 		lbu	a5,8(s0)
 1416 00cc 81CB     		beq	a5,zero,.L133
 610:C:/Users/stapi/OneDrive/Desktop/GD32VW553/V1_MQTT_OK/GD32VW55X_Wifi_BLE_SDK/GD32VW55x_RELEASE_V1.0.2/MSDK/lwip/lwip-2.1.2/src/core/ipv4\igmp.c ****         IGMP_STATS_INC(igmp.tx_leave);
 1417              		.loc 1 610 84 is_stmt 1
 611:C:/Users/stapi/OneDrive/Desktop/GD32VW553/V1_MQTT_OK/GD32VW55X_Wifi_BLE_SDK/GD32VW55x_RELEASE_V1.0.2/MSDK/lwip/lwip-2.1.2/src/core/ipv4\igmp.c ****         igmp_send(netif, group, IGMP_LEAVE_GROUP);
 1418              		.loc 1 611 38
 612:C:/Users/stapi/OneDrive/Desktop/GD32VW553/V1_MQTT_OK/GD32VW55X_Wifi_BLE_SDK/GD32VW55x_RELEASE_V1.0.2/MSDK/lwip/lwip-2.1.2/src/core/ipv4\igmp.c ****       }
 1419              		.loc 1 612 9
 1420 00ce 5D46     		li	a2,23
 1421 00d0 A285     		mv	a1,s0
 1422 00d2 2685     		mv	a0,s1
 1423 00d4 97000000 		call	igmp_send
 1423      E7800000 
 1424              	.LVL128:
 1425              	.L133:
 616:C:/Users/stapi/OneDrive/Desktop/GD32VW553/V1_MQTT_OK/GD32VW55X_Wifi_BLE_SDK/GD32VW55x_RELEASE_V1.0.2/MSDK/lwip/lwip-2.1.2/src/core/ipv4\igmp.c ****         LWIP_DEBUGF(IGMP_DEBUG, ("igmp_leavegroup_netif: igmp_mac_filter(DEL "));
 1426              		.loc 1 616 7
 616:C:/Users/stapi/OneDrive/Desktop/GD32VW553/V1_MQTT_OK/GD32VW55X_Wifi_BLE_SDK/GD32VW55x_RELEASE_V1.0.2/MSDK/lwip/lwip-2.1.2/src/core/ipv4\igmp.c ****         LWIP_DEBUGF(IGMP_DEBUG, ("igmp_leavegroup_netif: igmp_mac_filter(DEL "));
 1427              		.loc 1 616 16 is_stmt 0
 1428 00dc 9C5C     		lw	a5,56(s1)
 616:C:/Users/stapi/OneDrive/Desktop/GD32VW553/V1_MQTT_OK/GD32VW55X_Wifi_BLE_SDK/GD32VW55x_RELEASE_V1.0.2/MSDK/lwip/lwip-2.1.2/src/core/ipv4\igmp.c ****         LWIP_DEBUGF(IGMP_DEBUG, ("igmp_leavegroup_netif: igmp_mac_filter(DEL "));
 1429              		.loc 1 616 10
 1430 00de 89C7     		beq	a5,zero,.L134
 617:C:/Users/stapi/OneDrive/Desktop/GD32VW553/V1_MQTT_OK/GD32VW55X_Wifi_BLE_SDK/GD32VW55x_RELEASE_V1.0.2/MSDK/lwip/lwip-2.1.2/src/core/ipv4\igmp.c ****         ip4_addr_debug_print(IGMP_DEBUG, groupaddr);
 1431              		.loc 1 617 81 is_stmt 1
 618:C:/Users/stapi/OneDrive/Desktop/GD32VW553/V1_MQTT_OK/GD32VW55X_Wifi_BLE_SDK/GD32VW55x_RELEASE_V1.0.2/MSDK/lwip/lwip-2.1.2/src/core/ipv4\igmp.c ****         LWIP_DEBUGF(IGMP_DEBUG, (") on if %p\n", (void *)netif));
 1432              		.loc 1 618 52
 619:C:/Users/stapi/OneDrive/Desktop/GD32VW553/V1_MQTT_OK/GD32VW55X_Wifi_BLE_SDK/GD32VW55x_RELEASE_V1.0.2/MSDK/lwip/lwip-2.1.2/src/core/ipv4\igmp.c ****         netif->igmp_mac_filter(netif, groupaddr, NETIF_DEL_MAC_FILTER);
 1433              		.loc 1 619 65
 620:C:/Users/stapi/OneDrive/Desktop/GD32VW553/V1_MQTT_OK/GD32VW55X_Wifi_BLE_SDK/GD32VW55x_RELEASE_V1.0.2/MSDK/lwip/lwip-2.1.2/src/core/ipv4\igmp.c ****       }
 1434              		.loc 1 620 9
 1435 00e0 0146     		li	a2,0
 1436 00e2 CA85     		mv	a1,s2
 1437 00e4 2685     		mv	a0,s1
 1438 00e6 8297     		jalr	a5
 1439              	.LVL129:
 1440              	.L134:
 624:C:/Users/stapi/OneDrive/Desktop/GD32VW553/V1_MQTT_OK/GD32VW55X_Wifi_BLE_SDK/GD32VW55x_RELEASE_V1.0.2/MSDK/lwip/lwip-2.1.2/src/core/ipv4\igmp.c ****     } else {
 1441              		.loc 1 624 7
 1442 00e8 A285     		mv	a1,s0
 1443 00ea 3145     		li	a0,12
 1444 00ec 97000000 		call	memp_free
 1444      E7800000 
 1445              	.LVL130:
 1446              	.L144:
 629:C:/Users/stapi/OneDrive/Desktop/GD32VW553/V1_MQTT_OK/GD32VW55X_Wifi_BLE_SDK/GD32VW55x_RELEASE_V1.0.2/MSDK/lwip/lwip-2.1.2/src/core/ipv4\igmp.c ****   } else {
 1447              		.loc 1 629 12 is_stmt 0
 1448 00f4 0145     		li	a0,0
 1449              	.L128:
 1450              	.LVL131:
 1451              	.LBE31:
 1452              	.LBE30:
 634:C:/Users/stapi/OneDrive/Desktop/GD32VW553/V1_MQTT_OK/GD32VW55X_Wifi_BLE_SDK/GD32VW55x_RELEASE_V1.0.2/MSDK/lwip/lwip-2.1.2/src/core/ipv4\igmp.c **** 
 1453              		.loc 1 634 1
 1454 00f6 17030000 		tail	__riscv_restore_3
 1454      67000300 
 1455              		.cfi_remember_state
 1456              		.cfi_restore 18
 1457              		.cfi_restore 9
 1458              		.cfi_restore 8
 1459              		.cfi_restore 1
 1460              		.cfi_def_cfa_offset 0
 1461              	.LVL132:
 1462              	.L136:
 1463              		.cfi_restore_state
 1464              	.LBB37:
 1465              	.LBB36:
 1466              	.LBB35:
 1467              	.LBB34:
 1468 00fe BA87     		mv	a5,a4
 1469              	.LVL133:
 1470 0100 75BF     		j	.L130
 1471              	.LVL134:
 1472              	.L129:
 1473              	.LBE34:
 1474              	.LBE35:
 627:C:/Users/stapi/OneDrive/Desktop/GD32VW553/V1_MQTT_OK/GD32VW55X_Wifi_BLE_SDK/GD32VW55x_RELEASE_V1.0.2/MSDK/lwip/lwip-2.1.2/src/core/ipv4\igmp.c ****     }
 1475              		.loc 1 627 7 is_stmt 1
 627:C:/Users/stapi/OneDrive/Desktop/GD32VW553/V1_MQTT_OK/GD32VW55X_Wifi_BLE_SDK/GD32VW55x_RELEASE_V1.0.2/MSDK/lwip/lwip-2.1.2/src/core/ipv4\igmp.c ****     }
 1476              		.loc 1 627 17 is_stmt 0
 1477 0102 FD17     		addi	a5,a5,-1
 1478 0104 2306F400 		sb	a5,12(s0)
 1479 0108 F5B7     		j	.L144
 1480              	.LBE36:
 1481              	.LBE37:
 1482              		.cfi_endproc
 1483              	.LFE15:
 1485              		.section	.rodata.igmp_leavegroup.str1.4,"aMS",@progbits,1
 1486              		.align	2
 1487              	.LC13:
 1488 0000 69676D70 		.string	"igmp_leavegroup: attempt to leave non-multicast address"
 1488      5F6C6561 
 1488      76656772 
 1488      6F75703A 
 1488      20617474 
 1489              		.align	2
 1490              	.LC14:
 1491 0038 69676D70 		.string	"igmp_leavegroup: attempt to leave allsystems address"
 1491      5F6C6561 
 1491      76656772 
 1491      6F75703A 
 1491      20617474 
 1492              		.section	.text.igmp_leavegroup,"ax",@progbits
 1493              		.align	1
 1494              		.globl	igmp_leavegroup
 1496              	igmp_leavegroup:
 1497              	.LFB14:
 547:C:/Users/stapi/OneDrive/Desktop/GD32VW553/V1_MQTT_OK/GD32VW55X_Wifi_BLE_SDK/GD32VW55x_RELEASE_V1.0.2/MSDK/lwip/lwip-2.1.2/src/core/ipv4\igmp.c ****   err_t err = ERR_VAL; /* no matching interface */
 1498              		.loc 1 547 1 is_stmt 1
 1499              		.cfi_startproc
 1500              	.LVL135:
 1501 0000 17030000 		call	t0,__riscv_save_4
 1501      E7020300 
 1502              		.cfi_offset 19, -20
 1503              		.cfi_offset 18, -16
 1504              		.cfi_offset 9, -12
 1505              		.cfi_offset 8, -8
 1506              		.cfi_offset 1, -4
 1507              		.cfi_def_cfa_offset 32
 548:C:/Users/stapi/OneDrive/Desktop/GD32VW553/V1_MQTT_OK/GD32VW55X_Wifi_BLE_SDK/GD32VW55x_RELEASE_V1.0.2/MSDK/lwip/lwip-2.1.2/src/core/ipv4\igmp.c ****   struct netif *netif;
 1508              		.loc 1 548 3
 1509              	.LVL136:
 549:C:/Users/stapi/OneDrive/Desktop/GD32VW553/V1_MQTT_OK/GD32VW55X_Wifi_BLE_SDK/GD32VW55x_RELEASE_V1.0.2/MSDK/lwip/lwip-2.1.2/src/core/ipv4\igmp.c **** 
 1510              		.loc 1 549 3
 551:C:/Users/stapi/OneDrive/Desktop/GD32VW553/V1_MQTT_OK/GD32VW55X_Wifi_BLE_SDK/GD32VW55x_RELEASE_V1.0.2/MSDK/lwip/lwip-2.1.2/src/core/ipv4\igmp.c **** 
 1511              		.loc 1 551 28
 554:C:/Users/stapi/OneDrive/Desktop/GD32VW553/V1_MQTT_OK/GD32VW55X_Wifi_BLE_SDK/GD32VW55x_RELEASE_V1.0.2/MSDK/lwip/lwip-2.1.2/src/core/ipv4\igmp.c ****   LWIP_ERROR("igmp_leavegroup: attempt to leave allsystems address", (!ip4_addr_cmp(groupaddr, &all
 1512              		.loc 1 554 3
 554:C:/Users/stapi/OneDrive/Desktop/GD32VW553/V1_MQTT_OK/GD32VW55X_Wifi_BLE_SDK/GD32VW55x_RELEASE_V1.0.2/MSDK/lwip/lwip-2.1.2/src/core/ipv4\igmp.c ****   LWIP_ERROR("igmp_leavegroup: attempt to leave allsystems address", (!ip4_addr_cmp(groupaddr, &all
 1513              		.loc 1 554 3
 1514 0008 9C41     		lw	a5,0(a1)
 1515 000a 1307000E 		li	a4,224
 1516 000e 93F6070F 		andi	a3,a5,240
 1517 0012 6385E602 		beq	a3,a4,.L146
 554:C:/Users/stapi/OneDrive/Desktop/GD32VW553/V1_MQTT_OK/GD32VW55X_Wifi_BLE_SDK/GD32VW55x_RELEASE_V1.0.2/MSDK/lwip/lwip-2.1.2/src/core/ipv4\igmp.c ****   LWIP_ERROR("igmp_leavegroup: attempt to leave allsystems address", (!ip4_addr_cmp(groupaddr, &all
 1518              		.loc 1 554 3 discriminator 1
 554:C:/Users/stapi/OneDrive/Desktop/GD32VW553/V1_MQTT_OK/GD32VW55X_Wifi_BLE_SDK/GD32VW55x_RELEASE_V1.0.2/MSDK/lwip/lwip-2.1.2/src/core/ipv4\igmp.c ****   LWIP_ERROR("igmp_leavegroup: attempt to leave allsystems address", (!ip4_addr_cmp(groupaddr, &all
 1519              		.loc 1 554 3 discriminator 1
 1520 0016 B7060000 		lui	a3,%hi(.LC0)
 1521 001a B7050000 		lui	a1,%hi(.LC13)
 1522              	.LVL137:
 1523 001e 37050000 		lui	a0,%hi(.LC2)
 1524              	.LVL138:
 1525 0022 93860600 		addi	a3,a3,%lo(.LC0)
 1526 0026 1306A022 		li	a2,554
 1527 002a 93850500 		addi	a1,a1,%lo(.LC13)
 1528 002e 13050500 		addi	a0,a0,%lo(.LC2)
 1529 0032 97000000 		call	printf
 1529      E7800000 
 1530              	.LVL139:
 1531              	.L147:
 554:C:/Users/stapi/OneDrive/Desktop/GD32VW553/V1_MQTT_OK/GD32VW55X_Wifi_BLE_SDK/GD32VW55x_RELEASE_V1.0.2/MSDK/lwip/lwip-2.1.2/src/core/ipv4\igmp.c ****   LWIP_ERROR("igmp_leavegroup: attempt to leave allsystems address", (!ip4_addr_cmp(groupaddr, &all
 1532              		.loc 1 554 3 discriminator 1
 554:C:/Users/stapi/OneDrive/Desktop/GD32VW553/V1_MQTT_OK/GD32VW55X_Wifi_BLE_SDK/GD32VW55x_RELEASE_V1.0.2/MSDK/lwip/lwip-2.1.2/src/core/ipv4\igmp.c ****   LWIP_ERROR("igmp_leavegroup: attempt to leave allsystems address", (!ip4_addr_cmp(groupaddr, &all
 1533              		.loc 1 554 3 discriminator 1
 554:C:/Users/stapi/OneDrive/Desktop/GD32VW553/V1_MQTT_OK/GD32VW55X_Wifi_BLE_SDK/GD32VW55x_RELEASE_V1.0.2/MSDK/lwip/lwip-2.1.2/src/core/ipv4\igmp.c ****   LWIP_ERROR("igmp_leavegroup: attempt to leave allsystems address", (!ip4_addr_cmp(groupaddr, &all
 1534              		.loc 1 554 3 discriminator 1
 1535 003a 01A0     		j	.L147
 1536              	.LVL140:
 1537              	.L146:
 554:C:/Users/stapi/OneDrive/Desktop/GD32VW553/V1_MQTT_OK/GD32VW55X_Wifi_BLE_SDK/GD32VW55x_RELEASE_V1.0.2/MSDK/lwip/lwip-2.1.2/src/core/ipv4\igmp.c ****   LWIP_ERROR("igmp_leavegroup: attempt to leave allsystems address", (!ip4_addr_cmp(groupaddr, &all
 1538              		.loc 1 554 3 discriminator 2
 554:C:/Users/stapi/OneDrive/Desktop/GD32VW553/V1_MQTT_OK/GD32VW55X_Wifi_BLE_SDK/GD32VW55x_RELEASE_V1.0.2/MSDK/lwip/lwip-2.1.2/src/core/ipv4\igmp.c ****   LWIP_ERROR("igmp_leavegroup: attempt to leave allsystems address", (!ip4_addr_cmp(groupaddr, &all
 1539              		.loc 1 554 3 discriminator 2
 555:C:/Users/stapi/OneDrive/Desktop/GD32VW553/V1_MQTT_OK/GD32VW55X_Wifi_BLE_SDK/GD32VW55x_RELEASE_V1.0.2/MSDK/lwip/lwip-2.1.2/src/core/ipv4\igmp.c **** 
 1540              		.loc 1 555 3 discriminator 2
 555:C:/Users/stapi/OneDrive/Desktop/GD32VW553/V1_MQTT_OK/GD32VW55X_Wifi_BLE_SDK/GD32VW55x_RELEASE_V1.0.2/MSDK/lwip/lwip-2.1.2/src/core/ipv4\igmp.c **** 
 1541              		.loc 1 555 3 discriminator 2
 1542 003c 37070000 		lui	a4,%hi(.LANCHOR1)
 1543 0040 03270700 		lw	a4,%lo(.LANCHOR1)(a4)
 1544 0044 6395E702 		bne	a5,a4,.L148
 555:C:/Users/stapi/OneDrive/Desktop/GD32VW553/V1_MQTT_OK/GD32VW55X_Wifi_BLE_SDK/GD32VW55x_RELEASE_V1.0.2/MSDK/lwip/lwip-2.1.2/src/core/ipv4\igmp.c **** 
 1545              		.loc 1 555 3 discriminator 1
 555:C:/Users/stapi/OneDrive/Desktop/GD32VW553/V1_MQTT_OK/GD32VW55X_Wifi_BLE_SDK/GD32VW55x_RELEASE_V1.0.2/MSDK/lwip/lwip-2.1.2/src/core/ipv4\igmp.c **** 
 1546              		.loc 1 555 3 discriminator 1
 1547 0048 B7060000 		lui	a3,%hi(.LC0)
 1548 004c B7050000 		lui	a1,%hi(.LC14)
 1549              	.LVL141:
 1550 0050 37050000 		lui	a0,%hi(.LC2)
 1551              	.LVL142:
 1552 0054 93860600 		addi	a3,a3,%lo(.LC0)
 1553 0058 1306B022 		li	a2,555
 1554 005c 93850500 		addi	a1,a1,%lo(.LC14)
 1555 0060 13050500 		addi	a0,a0,%lo(.LC2)
 1556 0064 97000000 		call	printf
 1556      E7800000 
 1557              	.LVL143:
 1558              	.L149:
 555:C:/Users/stapi/OneDrive/Desktop/GD32VW553/V1_MQTT_OK/GD32VW55X_Wifi_BLE_SDK/GD32VW55x_RELEASE_V1.0.2/MSDK/lwip/lwip-2.1.2/src/core/ipv4\igmp.c **** 
 1559              		.loc 1 555 3 discriminator 2
 555:C:/Users/stapi/OneDrive/Desktop/GD32VW553/V1_MQTT_OK/GD32VW55X_Wifi_BLE_SDK/GD32VW55x_RELEASE_V1.0.2/MSDK/lwip/lwip-2.1.2/src/core/ipv4\igmp.c **** 
 1560              		.loc 1 555 3 discriminator 2
 555:C:/Users/stapi/OneDrive/Desktop/GD32VW553/V1_MQTT_OK/GD32VW55X_Wifi_BLE_SDK/GD32VW55x_RELEASE_V1.0.2/MSDK/lwip/lwip-2.1.2/src/core/ipv4\igmp.c **** 
 1561              		.loc 1 555 3 discriminator 2
 1562 006c 01A0     		j	.L149
 1563              	.LVL144:
 1564              	.L148:
 558:C:/Users/stapi/OneDrive/Desktop/GD32VW553/V1_MQTT_OK/GD32VW55X_Wifi_BLE_SDK/GD32VW55x_RELEASE_V1.0.2/MSDK/lwip/lwip-2.1.2/src/core/ipv4\igmp.c ****     /* Should we leave this interface ? */
 1565              		.loc 1 558 3 is_stmt 0 discriminator 2
 1566 006e B7070000 		lui	a5,%hi(netif_list)
 1567 0072 03A40700 		lw	s0,%lo(netif_list)(a5)
 1568 0076 AA84     		mv	s1,a0
 1569 0078 2E89     		mv	s2,a1
 555:C:/Users/stapi/OneDrive/Desktop/GD32VW553/V1_MQTT_OK/GD32VW55X_Wifi_BLE_SDK/GD32VW55x_RELEASE_V1.0.2/MSDK/lwip/lwip-2.1.2/src/core/ipv4\igmp.c **** 
 1570              		.loc 1 555 3 is_stmt 1 discriminator 2
 555:C:/Users/stapi/OneDrive/Desktop/GD32VW553/V1_MQTT_OK/GD32VW55X_Wifi_BLE_SDK/GD32VW55x_RELEASE_V1.0.2/MSDK/lwip/lwip-2.1.2/src/core/ipv4\igmp.c **** 
 1571              		.loc 1 555 3 discriminator 2
 558:C:/Users/stapi/OneDrive/Desktop/GD32VW553/V1_MQTT_OK/GD32VW55X_Wifi_BLE_SDK/GD32VW55x_RELEASE_V1.0.2/MSDK/lwip/lwip-2.1.2/src/core/ipv4\igmp.c ****     /* Should we leave this interface ? */
 1572              		.loc 1 558 3 discriminator 2
 1573              	.LVL145:
 548:C:/Users/stapi/OneDrive/Desktop/GD32VW553/V1_MQTT_OK/GD32VW55X_Wifi_BLE_SDK/GD32VW55x_RELEASE_V1.0.2/MSDK/lwip/lwip-2.1.2/src/core/ipv4\igmp.c ****   struct netif *netif;
 1574              		.loc 1 548 9 is_stmt 0 discriminator 2
 1575 007a E959     		li	s3,-6
 1576              	.LVL146:
 1577              	.L150:
 558:C:/Users/stapi/OneDrive/Desktop/GD32VW553/V1_MQTT_OK/GD32VW55X_Wifi_BLE_SDK/GD32VW55x_RELEASE_V1.0.2/MSDK/lwip/lwip-2.1.2/src/core/ipv4\igmp.c ****     /* Should we leave this interface ? */
 1578              		.loc 1 558 3 is_stmt 1 discriminator 1
 1579 007c 11E4     		bne	s0,zero,.L153
 569:C:/Users/stapi/OneDrive/Desktop/GD32VW553/V1_MQTT_OK/GD32VW55X_Wifi_BLE_SDK/GD32VW55x_RELEASE_V1.0.2/MSDK/lwip/lwip-2.1.2/src/core/ipv4\igmp.c **** }
 1580              		.loc 1 569 3
 570:C:/Users/stapi/OneDrive/Desktop/GD32VW553/V1_MQTT_OK/GD32VW55X_Wifi_BLE_SDK/GD32VW55x_RELEASE_V1.0.2/MSDK/lwip/lwip-2.1.2/src/core/ipv4\igmp.c **** 
 1581              		.loc 1 570 1 is_stmt 0
 1582 007e 4E85     		mv	a0,s3
 1583 0080 17030000 		tail	__riscv_restore_4
 1583      67000300 
 1584              		.cfi_remember_state
 1585              		.cfi_restore 19
 1586              		.cfi_restore 18
 1587              		.cfi_restore 9
 1588              		.cfi_restore 8
 1589              		.cfi_restore 1
 1590              		.cfi_def_cfa_offset 0
 1591              	.L153:
 1592              		.cfi_restore_state
 560:C:/Users/stapi/OneDrive/Desktop/GD32VW553/V1_MQTT_OK/GD32VW55X_Wifi_BLE_SDK/GD32VW55x_RELEASE_V1.0.2/MSDK/lwip/lwip-2.1.2/src/core/ipv4\igmp.c ****       err_t res = igmp_leavegroup_netif(netif, groupaddr);
 1593              		.loc 1 560 5 is_stmt 1
 560:C:/Users/stapi/OneDrive/Desktop/GD32VW553/V1_MQTT_OK/GD32VW55X_Wifi_BLE_SDK/GD32VW55x_RELEASE_V1.0.2/MSDK/lwip/lwip-2.1.2/src/core/ipv4\igmp.c ****       err_t res = igmp_leavegroup_netif(netif, groupaddr);
 1594              		.loc 1 560 8 is_stmt 0
 1595 0088 83471403 		lbu	a5,49(s0)
 1596 008c 93F70702 		andi	a5,a5,32
 1597 0090 85C3     		beq	a5,zero,.L151
 560:C:/Users/stapi/OneDrive/Desktop/GD32VW553/V1_MQTT_OK/GD32VW55X_Wifi_BLE_SDK/GD32VW55x_RELEASE_V1.0.2/MSDK/lwip/lwip-2.1.2/src/core/ipv4\igmp.c ****       err_t res = igmp_leavegroup_netif(netif, groupaddr);
 1598              		.loc 1 560 42 discriminator 1
 1599 0092 91C4     		beq	s1,zero,.L152
 560:C:/Users/stapi/OneDrive/Desktop/GD32VW553/V1_MQTT_OK/GD32VW55X_Wifi_BLE_SDK/GD32VW55x_RELEASE_V1.0.2/MSDK/lwip/lwip-2.1.2/src/core/ipv4\igmp.c ****       err_t res = igmp_leavegroup_netif(netif, groupaddr);
 1600              		.loc 1 560 47 discriminator 2
 1601 0094 9C40     		lw	a5,0(s1)
 1602 0096 81C7     		beq	a5,zero,.L152
 560:C:/Users/stapi/OneDrive/Desktop/GD32VW553/V1_MQTT_OK/GD32VW55X_Wifi_BLE_SDK/GD32VW55x_RELEASE_V1.0.2/MSDK/lwip/lwip-2.1.2/src/core/ipv4\igmp.c ****       err_t res = igmp_leavegroup_netif(netif, groupaddr);
 1603              		.loc 1 560 70 discriminator 3
 1604 0098 5840     		lw	a4,4(s0)
 1605 009a 639BE700 		bne	a5,a4,.L151
 1606              	.L152:
 1607              	.LBB38:
 561:C:/Users/stapi/OneDrive/Desktop/GD32VW553/V1_MQTT_OK/GD32VW55X_Wifi_BLE_SDK/GD32VW55x_RELEASE_V1.0.2/MSDK/lwip/lwip-2.1.2/src/core/ipv4\igmp.c ****       if (err != ERR_OK) {
 1608              		.loc 1 561 7 is_stmt 1
 561:C:/Users/stapi/OneDrive/Desktop/GD32VW553/V1_MQTT_OK/GD32VW55X_Wifi_BLE_SDK/GD32VW55x_RELEASE_V1.0.2/MSDK/lwip/lwip-2.1.2/src/core/ipv4\igmp.c ****       if (err != ERR_OK) {
 1609              		.loc 1 561 19 is_stmt 0
 1610 009e CA85     		mv	a1,s2
 1611 00a0 2285     		mv	a0,s0
 1612 00a2 97000000 		call	igmp_leavegroup_netif
 1612      E7800000 
 1613              	.LVL147:
 562:C:/Users/stapi/OneDrive/Desktop/GD32VW553/V1_MQTT_OK/GD32VW55X_Wifi_BLE_SDK/GD32VW55x_RELEASE_V1.0.2/MSDK/lwip/lwip-2.1.2/src/core/ipv4\igmp.c ****         /* Store this result if we have not yet gotten a success */
 1614              		.loc 1 562 7 is_stmt 1
 562:C:/Users/stapi/OneDrive/Desktop/GD32VW553/V1_MQTT_OK/GD32VW55X_Wifi_BLE_SDK/GD32VW55x_RELEASE_V1.0.2/MSDK/lwip/lwip-2.1.2/src/core/ipv4\igmp.c ****         /* Store this result if we have not yet gotten a success */
 1615              		.loc 1 562 10 is_stmt 0
 1616 00aa 63830900 		beq	s3,zero,.L151
 564:C:/Users/stapi/OneDrive/Desktop/GD32VW553/V1_MQTT_OK/GD32VW55X_Wifi_BLE_SDK/GD32VW55x_RELEASE_V1.0.2/MSDK/lwip/lwip-2.1.2/src/core/ipv4\igmp.c ****       }
 1617              		.loc 1 564 13
 1618 00ae AA89     		mv	s3,a0
 1619              	.LVL148:
 1620              	.L151:
 1621              	.LBE38:
 558:C:/Users/stapi/OneDrive/Desktop/GD32VW553/V1_MQTT_OK/GD32VW55X_Wifi_BLE_SDK/GD32VW55x_RELEASE_V1.0.2/MSDK/lwip/lwip-2.1.2/src/core/ipv4\igmp.c ****     /* Should we leave this interface ? */
 1622              		.loc 1 558 3 is_stmt 1 discriminator 2
 1623 00b0 0040     		lw	s0,0(s0)
 1624              	.LVL149:
 1625 00b2 E9B7     		j	.L150
 1626              		.cfi_endproc
 1627              	.LFE14:
 1629              		.section	.text.igmp_tmr,"ax",@progbits
 1630              		.align	1
 1631              		.globl	igmp_tmr
 1633              	igmp_tmr:
 1634              	.LFB16:
 642:C:/Users/stapi/OneDrive/Desktop/GD32VW553/V1_MQTT_OK/GD32VW55X_Wifi_BLE_SDK/GD32VW55x_RELEASE_V1.0.2/MSDK/lwip/lwip-2.1.2/src/core/ipv4\igmp.c ****   struct netif *netif;
 1635              		.loc 1 642 1
 1636              		.cfi_startproc
 1637 0000 17030000 		call	t0,__riscv_save_5
 1637      E7020300 
 1638              		.cfi_offset 20, -24
 1639              		.cfi_offset 19, -20
 1640              		.cfi_offset 18, -16
 1641              		.cfi_offset 9, -12
 1642              		.cfi_offset 8, -8
 1643              		.cfi_offset 1, -4
 1644              		.cfi_def_cfa_offset 32
 643:C:/Users/stapi/OneDrive/Desktop/GD32VW553/V1_MQTT_OK/GD32VW55X_Wifi_BLE_SDK/GD32VW55x_RELEASE_V1.0.2/MSDK/lwip/lwip-2.1.2/src/core/ipv4\igmp.c **** 
 1645              		.loc 1 643 3
 645:C:/Users/stapi/OneDrive/Desktop/GD32VW553/V1_MQTT_OK/GD32VW55X_Wifi_BLE_SDK/GD32VW55x_RELEASE_V1.0.2/MSDK/lwip/lwip-2.1.2/src/core/ipv4\igmp.c ****     struct igmp_group *group = netif_igmp_data(netif);
 1646              		.loc 1 645 3
 1647 0008 B7070000 		lui	a5,%hi(netif_list)
 1648 000c 83A40700 		lw	s1,%lo(netif_list)(a5)
 1649              	.LVL150:
 1650              	.LBB42:
 1651              	.LBB43:
 1652              	.LBB44:
 671:C:/Users/stapi/OneDrive/Desktop/GD32VW553/V1_MQTT_OK/GD32VW55X_Wifi_BLE_SDK/GD32VW55x_RELEASE_V1.0.2/MSDK/lwip/lwip-2.1.2/src/core/ipv4\igmp.c ****       (!(ip4_addr_cmp(&(group->group_address), &allsystems)))) {
 1653              		.loc 1 671 6 is_stmt 0
 1654 0010 0549     		li	s2,1
 672:C:/Users/stapi/OneDrive/Desktop/GD32VW553/V1_MQTT_OK/GD32VW55X_Wifi_BLE_SDK/GD32VW55x_RELEASE_V1.0.2/MSDK/lwip/lwip-2.1.2/src/core/ipv4\igmp.c ****     LWIP_DEBUGF(IGMP_DEBUG, ("igmp_timeout: report membership for group with address "));
 1655              		.loc 1 672 10
 1656 0012 B7090000 		lui	s3,%hi(.LANCHOR1)
 677:C:/Users/stapi/OneDrive/Desktop/GD32VW553/V1_MQTT_OK/GD32VW55X_Wifi_BLE_SDK/GD32VW55x_RELEASE_V1.0.2/MSDK/lwip/lwip-2.1.2/src/core/ipv4\igmp.c **** 
 1657              		.loc 1 677 24
 1658 0016 094A     		li	s4,2
 1659              	.L168:
 1660              	.LBE44:
 1661              	.LBE43:
 1662              	.LBE42:
 645:C:/Users/stapi/OneDrive/Desktop/GD32VW553/V1_MQTT_OK/GD32VW55X_Wifi_BLE_SDK/GD32VW55x_RELEASE_V1.0.2/MSDK/lwip/lwip-2.1.2/src/core/ipv4\igmp.c ****     struct igmp_group *group = netif_igmp_data(netif);
 1663              		.loc 1 645 3 is_stmt 1 discriminator 1
 1664 0018 89E4     		bne	s1,zero,.L174
 658:C:/Users/stapi/OneDrive/Desktop/GD32VW553/V1_MQTT_OK/GD32VW55X_Wifi_BLE_SDK/GD32VW55x_RELEASE_V1.0.2/MSDK/lwip/lwip-2.1.2/src/core/ipv4\igmp.c **** 
 1665              		.loc 1 658 1 is_stmt 0
 1666 001a 17030000 		tail	__riscv_restore_5
 1666      67000300 
 1667              		.cfi_remember_state
 1668              		.cfi_restore 20
 1669              		.cfi_restore 19
 1670              		.cfi_restore 18
 1671              		.cfi_restore 9
 1672              		.cfi_restore 8
 1673              		.cfi_restore 1
 1674              		.cfi_def_cfa_offset 0
 1675              	.L174:
 1676              		.cfi_restore_state
 1677              	.LBB47:
 646:C:/Users/stapi/OneDrive/Desktop/GD32VW553/V1_MQTT_OK/GD32VW55X_Wifi_BLE_SDK/GD32VW55x_RELEASE_V1.0.2/MSDK/lwip/lwip-2.1.2/src/core/ipv4\igmp.c **** 
 1678              		.loc 1 646 5 is_stmt 1
 646:C:/Users/stapi/OneDrive/Desktop/GD32VW553/V1_MQTT_OK/GD32VW55X_Wifi_BLE_SDK/GD32VW55x_RELEASE_V1.0.2/MSDK/lwip/lwip-2.1.2/src/core/ipv4\igmp.c **** 
 1679              		.loc 1 646 24 is_stmt 0
 1680 0022 C050     		lw	s0,36(s1)
 1681              	.LVL151:
 648:C:/Users/stapi/OneDrive/Desktop/GD32VW553/V1_MQTT_OK/GD32VW55X_Wifi_BLE_SDK/GD32VW55x_RELEASE_V1.0.2/MSDK/lwip/lwip-2.1.2/src/core/ipv4\igmp.c ****       if (group->timer > 0) {
 1682              		.loc 1 648 5 is_stmt 1
 1683              	.L169:
 648:C:/Users/stapi/OneDrive/Desktop/GD32VW553/V1_MQTT_OK/GD32VW55X_Wifi_BLE_SDK/GD32VW55x_RELEASE_V1.0.2/MSDK/lwip/lwip-2.1.2/src/core/ipv4\igmp.c ****       if (group->timer > 0) {
 1684              		.loc 1 648 11
 1685 0024 19E0     		bne	s0,zero,.L173
 1686              	.LBE47:
 645:C:/Users/stapi/OneDrive/Desktop/GD32VW553/V1_MQTT_OK/GD32VW55X_Wifi_BLE_SDK/GD32VW55x_RELEASE_V1.0.2/MSDK/lwip/lwip-2.1.2/src/core/ipv4\igmp.c ****     struct igmp_group *group = netif_igmp_data(netif);
 1687              		.loc 1 645 3 discriminator 2
 1688 0026 8440     		lw	s1,0(s1)
 1689              	.LVL152:
 1690 0028 C5BF     		j	.L168
 1691              	.L173:
 1692              	.LBB48:
 649:C:/Users/stapi/OneDrive/Desktop/GD32VW553/V1_MQTT_OK/GD32VW55X_Wifi_BLE_SDK/GD32VW55x_RELEASE_V1.0.2/MSDK/lwip/lwip-2.1.2/src/core/ipv4\igmp.c ****         group->timer--;
 1693              		.loc 1 649 7
 649:C:/Users/stapi/OneDrive/Desktop/GD32VW553/V1_MQTT_OK/GD32VW55X_Wifi_BLE_SDK/GD32VW55x_RELEASE_V1.0.2/MSDK/lwip/lwip-2.1.2/src/core/ipv4\igmp.c ****         group->timer--;
 1694              		.loc 1 649 16 is_stmt 0
 1695 002a 8357A400 		lhu	a5,10(s0)
 649:C:/Users/stapi/OneDrive/Desktop/GD32VW553/V1_MQTT_OK/GD32VW55X_Wifi_BLE_SDK/GD32VW55x_RELEASE_V1.0.2/MSDK/lwip/lwip-2.1.2/src/core/ipv4\igmp.c ****         group->timer--;
 1696              		.loc 1 649 10
 1697 002e 8DCB     		beq	a5,zero,.L171
 650:C:/Users/stapi/OneDrive/Desktop/GD32VW553/V1_MQTT_OK/GD32VW55X_Wifi_BLE_SDK/GD32VW55x_RELEASE_V1.0.2/MSDK/lwip/lwip-2.1.2/src/core/ipv4\igmp.c ****         if (group->timer == 0) {
 1698              		.loc 1 650 9 is_stmt 1
 650:C:/Users/stapi/OneDrive/Desktop/GD32VW553/V1_MQTT_OK/GD32VW55X_Wifi_BLE_SDK/GD32VW55x_RELEASE_V1.0.2/MSDK/lwip/lwip-2.1.2/src/core/ipv4\igmp.c ****         if (group->timer == 0) {
 1699              		.loc 1 650 21 is_stmt 0
 1700 0030 FD17     		addi	a5,a5,-1
 1701 0032 B3C70708 		zext.h	a5,a5
 1702 0036 2315F400 		sh	a5,10(s0)
 651:C:/Users/stapi/OneDrive/Desktop/GD32VW553/V1_MQTT_OK/GD32VW55X_Wifi_BLE_SDK/GD32VW55x_RELEASE_V1.0.2/MSDK/lwip/lwip-2.1.2/src/core/ipv4\igmp.c ****           igmp_timeout(netif, group);
 1703              		.loc 1 651 9 is_stmt 1
 651:C:/Users/stapi/OneDrive/Desktop/GD32VW553/V1_MQTT_OK/GD32VW55X_Wifi_BLE_SDK/GD32VW55x_RELEASE_V1.0.2/MSDK/lwip/lwip-2.1.2/src/core/ipv4\igmp.c ****           igmp_timeout(netif, group);
 1704              		.loc 1 651 12 is_stmt 0
 1705 003a 9DE3     		bne	a5,zero,.L171
 652:C:/Users/stapi/OneDrive/Desktop/GD32VW553/V1_MQTT_OK/GD32VW55X_Wifi_BLE_SDK/GD32VW55x_RELEASE_V1.0.2/MSDK/lwip/lwip-2.1.2/src/core/ipv4\igmp.c ****         }
 1706              		.loc 1 652 11 is_stmt 1
 1707              	.LVL153:
 1708              	.LBB46:
 1709              	.LBB45:
 671:C:/Users/stapi/OneDrive/Desktop/GD32VW553/V1_MQTT_OK/GD32VW55X_Wifi_BLE_SDK/GD32VW55x_RELEASE_V1.0.2/MSDK/lwip/lwip-2.1.2/src/core/ipv4\igmp.c ****       (!(ip4_addr_cmp(&(group->group_address), &allsystems)))) {
 1710              		.loc 1 671 3
 671:C:/Users/stapi/OneDrive/Desktop/GD32VW553/V1_MQTT_OK/GD32VW55X_Wifi_BLE_SDK/GD32VW55x_RELEASE_V1.0.2/MSDK/lwip/lwip-2.1.2/src/core/ipv4\igmp.c ****       (!(ip4_addr_cmp(&(group->group_address), &allsystems)))) {
 1711              		.loc 1 671 6 is_stmt 0
 1712 003c 83479400 		lbu	a5,9(s0)
 1713 0040 63902703 		bne	a5,s2,.L171
 671:C:/Users/stapi/OneDrive/Desktop/GD32VW553/V1_MQTT_OK/GD32VW55X_Wifi_BLE_SDK/GD32VW55x_RELEASE_V1.0.2/MSDK/lwip/lwip-2.1.2/src/core/ipv4\igmp.c ****       (!(ip4_addr_cmp(&(group->group_address), &allsystems)))) {
 1714              		.loc 1 671 58
 1715 0044 5840     		lw	a4,4(s0)
 1716 0046 83A70900 		lw	a5,%lo(.LANCHOR1)(s3)
 1717 004a 630BF700 		beq	a4,a5,.L171
 673:C:/Users/stapi/OneDrive/Desktop/GD32VW553/V1_MQTT_OK/GD32VW55X_Wifi_BLE_SDK/GD32VW55x_RELEASE_V1.0.2/MSDK/lwip/lwip-2.1.2/src/core/ipv4\igmp.c ****     ip4_addr_debug_print_val(IGMP_DEBUG, group->group_address);
 1718              		.loc 1 673 89 is_stmt 1
 674:C:/Users/stapi/OneDrive/Desktop/GD32VW553/V1_MQTT_OK/GD32VW55X_Wifi_BLE_SDK/GD32VW55x_RELEASE_V1.0.2/MSDK/lwip/lwip-2.1.2/src/core/ipv4\igmp.c ****     LWIP_DEBUGF(IGMP_DEBUG, (" on if %p\n", (void *)netif));
 1719              		.loc 1 674 63
 675:C:/Users/stapi/OneDrive/Desktop/GD32VW553/V1_MQTT_OK/GD32VW55X_Wifi_BLE_SDK/GD32VW55x_RELEASE_V1.0.2/MSDK/lwip/lwip-2.1.2/src/core/ipv4\igmp.c **** 
 1720              		.loc 1 675 60
 677:C:/Users/stapi/OneDrive/Desktop/GD32VW553/V1_MQTT_OK/GD32VW55X_Wifi_BLE_SDK/GD32VW55x_RELEASE_V1.0.2/MSDK/lwip/lwip-2.1.2/src/core/ipv4\igmp.c **** 
 1721              		.loc 1 677 5
 677:C:/Users/stapi/OneDrive/Desktop/GD32VW553/V1_MQTT_OK/GD32VW55X_Wifi_BLE_SDK/GD32VW55x_RELEASE_V1.0.2/MSDK/lwip/lwip-2.1.2/src/core/ipv4\igmp.c **** 
 1722              		.loc 1 677 24 is_stmt 0
 1723 004e A3044401 		sb	s4,9(s0)
 679:C:/Users/stapi/OneDrive/Desktop/GD32VW553/V1_MQTT_OK/GD32VW55X_Wifi_BLE_SDK/GD32VW55x_RELEASE_V1.0.2/MSDK/lwip/lwip-2.1.2/src/core/ipv4\igmp.c ****     igmp_send(netif, group, IGMP_V2_MEMB_REPORT);
 1724              		.loc 1 679 35 is_stmt 1
 680:C:/Users/stapi/OneDrive/Desktop/GD32VW553/V1_MQTT_OK/GD32VW55X_Wifi_BLE_SDK/GD32VW55x_RELEASE_V1.0.2/MSDK/lwip/lwip-2.1.2/src/core/ipv4\igmp.c ****   }
 1725              		.loc 1 680 5
 1726 0052 5946     		li	a2,22
 1727 0054 A285     		mv	a1,s0
 1728 0056 2685     		mv	a0,s1
 1729 0058 97000000 		call	igmp_send
 1729      E7800000 
 1730              	.LVL154:
 1731              	.L171:
 1732              	.LBE45:
 1733              	.LBE46:
 655:C:/Users/stapi/OneDrive/Desktop/GD32VW553/V1_MQTT_OK/GD32VW55X_Wifi_BLE_SDK/GD32VW55x_RELEASE_V1.0.2/MSDK/lwip/lwip-2.1.2/src/core/ipv4\igmp.c ****     }
 1734              		.loc 1 655 7
 655:C:/Users/stapi/OneDrive/Desktop/GD32VW553/V1_MQTT_OK/GD32VW55X_Wifi_BLE_SDK/GD32VW55x_RELEASE_V1.0.2/MSDK/lwip/lwip-2.1.2/src/core/ipv4\igmp.c ****     }
 1735              		.loc 1 655 13 is_stmt 0
 1736 0060 0040     		lw	s0,0(s0)
 1737              	.LVL155:
 1738 0062 C9B7     		j	.L169
 1739              	.LBE48:
 1740              		.cfi_endproc
 1741              	.LFE16:
 1743              		.section	.sbss.allrouters,"aw",@nobits
 1744              		.align	2
 1745              		.set	.LANCHOR0,. + 0
 1748              	allrouters:
 1749 0000 00000000 		.zero	4
 1750              		.section	.sbss.allsystems,"aw",@nobits
 1751              		.align	2
 1752              		.set	.LANCHOR1,. + 0
 1755              	allsystems:
 1756 0000 00000000 		.zero	4
 1757              		.text
 1758              	.Letext0:
 1759              		.file 2 "c:\\users\\stapi\\onedrive\\desktop\\gd32vw553\\embeddedbuilder_v1.4.7.26843\\tools\\nucl
 1760              		.file 3 "c:\\users\\stapi\\onedrive\\desktop\\gd32vw553\\embeddedbuilder_v1.4.7.26843\\tools\\nucl
 1761              		.file 4 "..\\..\\..\\..\\lwip\\lwip-2.1.2\\src\\include/lwip/arch.h"
 1762              		.file 5 "..\\..\\..\\..\\lwip\\lwip-2.1.2\\src\\include/lwip/ip4_addr.h"
 1763              		.file 6 "..\\..\\..\\..\\lwip\\lwip-2.1.2\\src\\include/lwip/ip_addr.h"
 1764              		.file 7 "..\\..\\..\\..\\lwip\\lwip-2.1.2\\src\\include/lwip/err.h"
 1765              		.file 8 "..\\..\\..\\..\\lwip\\lwip-2.1.2\\src\\include/lwip/pbuf.h"
 1766              		.file 9 "..\\..\\..\\..\\lwip\\lwip-2.1.2\\src\\include/lwip/memp.h"
 1767              		.file 10 "..\\..\\..\\..\\lwip\\lwip-2.1.2\\src\\include/lwip/netif.h"
 1768              		.file 11 "..\\..\\..\\..\\lwip\\lwip-2.1.2\\src\\include/lwip/igmp.h"
 1769              		.file 12 "..\\..\\..\\..\\lwip\\lwip-2.1.2\\src\\include/lwip/prot/ip4.h"
 1770              		.file 13 "..\\..\\..\\..\\lwip\\lwip-2.1.2\\src\\include/lwip/prot/igmp.h"
 1771              		.file 14 "..\\..\\..\\..\\lwip\\lwip-2.1.2\\src\\include/lwip/ip4.h"
 1772              		.file 15 "c:\\users\\stapi\\onedrive\\desktop\\gd32vw553\\embeddedbuilder_v1.4.7.26843\\tools\\nuc
 1773              		.file 16 "..\\..\\..\\..\\lwip\\lwip-2.1.2\\src\\include/lwip/inet_chksum.h"
 1774              		.file 17 "c:\\users\\stapi\\onedrive\\desktop\\gd32vw553\\embeddedbuilder_v1.4.7.26843\\tools\\nuc
DEFINED SYMBOLS
                            *ABS*:0000000000000000 igmp.c
C:\Users\stapi\AppData\Local\Temp\cclCjgQ5.s:12     .text.igmp_delaying_member:0000000000000000 igmp_delaying_member
C:\Users\stapi\AppData\Local\Temp\cclCjgQ5.s:16     .text.igmp_delaying_member:0000000000000000 .L0 
C:\Users\stapi\AppData\Local\Temp\cclCjgQ5.s:18     .text.igmp_delaying_member:0000000000000000 .L0 
C:\Users\stapi\AppData\Local\Temp\cclCjgQ5.s:19     .text.igmp_delaying_member:0000000000000008 .L0 
C:\Users\stapi\AppData\Local\Temp\cclCjgQ5.s:20     .text.igmp_delaying_member:0000000000000008 .L0 
C:\Users\stapi\AppData\Local\Temp\cclCjgQ5.s:21     .text.igmp_delaying_member:0000000000000008 .L0 
C:\Users\stapi\AppData\Local\Temp\cclCjgQ5.s:22     .text.igmp_delaying_member:0000000000000008 .L0 
C:\Users\stapi\AppData\Local\Temp\cclCjgQ5.s:24     .text.igmp_delaying_member:0000000000000008 .L0 
C:\Users\stapi\AppData\Local\Temp\cclCjgQ5.s:25     .text.igmp_delaying_member:0000000000000008 .L0 
C:\Users\stapi\AppData\Local\Temp\cclCjgQ5.s:27     .text.igmp_delaying_member:000000000000000c .L0 
C:\Users\stapi\AppData\Local\Temp\cclCjgQ5.s:29     .text.igmp_delaying_member:000000000000000e .L0 
C:\Users\stapi\AppData\Local\Temp\cclCjgQ5.s:32     .text.igmp_delaying_member:0000000000000012 .L0 
C:\Users\stapi\AppData\Local\Temp\cclCjgQ5.s:34     .text.igmp_delaying_member:0000000000000016 .L0 
C:\Users\stapi\AppData\Local\Temp\cclCjgQ5.s:37     .text.igmp_delaying_member:000000000000001c .L0 
C:\Users\stapi\AppData\Local\Temp\cclCjgQ5.s:39     .text.igmp_delaying_member:0000000000000020 .L0 
C:\Users\stapi\AppData\Local\Temp\cclCjgQ5.s:41     .text.igmp_delaying_member:0000000000000022 .L0 
C:\Users\stapi\AppData\Local\Temp\cclCjgQ5.s:47     .text.igmp_delaying_member:0000000000000026 .L0 
C:\Users\stapi\AppData\Local\Temp\cclCjgQ5.s:48     .text.igmp_delaying_member:0000000000000026 .L0 
C:\Users\stapi\AppData\Local\Temp\cclCjgQ5.s:49     .text.igmp_delaying_member:0000000000000026 .L0 
C:\Users\stapi\AppData\Local\Temp\cclCjgQ5.s:54     .text.igmp_delaying_member:000000000000002c .L0 
C:\Users\stapi\AppData\Local\Temp\cclCjgQ5.s:61     .text.igmp_delaying_member:0000000000000032 .L0 
C:\Users\stapi\AppData\Local\Temp\cclCjgQ5.s:62     .text.igmp_delaying_member:0000000000000032 .L0 
C:\Users\stapi\AppData\Local\Temp\cclCjgQ5.s:63     .text.igmp_delaying_member:0000000000000032 .L0 
C:\Users\stapi\AppData\Local\Temp\cclCjgQ5.s:67     .text.igmp_delaying_member:0000000000000038 .L0 
C:\Users\stapi\AppData\Local\Temp\cclCjgQ5.s:68     .text.igmp_delaying_member:0000000000000040 .L0 
C:\Users\stapi\AppData\Local\Temp\cclCjgQ5.s:69     .text.igmp_delaying_member:0000000000000040 .L0 
C:\Users\stapi\AppData\Local\Temp\cclCjgQ5.s:70     .text.igmp_delaying_member:0000000000000040 .L0 
C:\Users\stapi\AppData\Local\Temp\cclCjgQ5.s:71     .text.igmp_delaying_member:0000000000000040 .L0 
C:\Users\stapi\AppData\Local\Temp\cclCjgQ5.s:72     .text.igmp_delaying_member:0000000000000040 .L0 
C:\Users\stapi\AppData\Local\Temp\cclCjgQ5.s:75     .text.igmp_delaying_member:0000000000000040 .L0 
C:\Users\stapi\AppData\Local\Temp\cclCjgQ5.s:79     .text.igmp_delaying_member:0000000000000040 .L0 
C:\Users\stapi\AppData\Local\Temp\cclCjgQ5.s:82     .text.igmp_delaying_member:0000000000000048 .L0 
C:\Users\stapi\AppData\Local\Temp\cclCjgQ5.s:85     .text.igmp_delaying_member:000000000000004c .L0 
C:\Users\stapi\AppData\Local\Temp\cclCjgQ5.s:87     .text.igmp_delaying_member:0000000000000050 .L0 
C:\Users\stapi\AppData\Local\Temp\cclCjgQ5.s:88     .text.igmp_delaying_member:0000000000000050 .L0 
C:\Users\stapi\AppData\Local\Temp\cclCjgQ5.s:92     .text.igmp_delaying_member:0000000000000054 .L0 
C:\Users\stapi\AppData\Local\Temp\cclCjgQ5.s:108    .text.igmp_send:0000000000000000 igmp_send
C:\Users\stapi\AppData\Local\Temp\cclCjgQ5.s:111    .text.igmp_send:0000000000000000 .L0 
C:\Users\stapi\AppData\Local\Temp\cclCjgQ5.s:113    .text.igmp_send:0000000000000000 .L0 
C:\Users\stapi\AppData\Local\Temp\cclCjgQ5.s:114    .text.igmp_send:0000000000000008 .L0 
C:\Users\stapi\AppData\Local\Temp\cclCjgQ5.s:115    .text.igmp_send:0000000000000008 .L0 
C:\Users\stapi\AppData\Local\Temp\cclCjgQ5.s:116    .text.igmp_send:0000000000000008 .L0 
C:\Users\stapi\AppData\Local\Temp\cclCjgQ5.s:117    .text.igmp_send:0000000000000008 .L0 
C:\Users\stapi\AppData\Local\Temp\cclCjgQ5.s:118    .text.igmp_send:0000000000000008 .L0 
C:\Users\stapi\AppData\Local\Temp\cclCjgQ5.s:119    .text.igmp_send:0000000000000008 .L0 
C:\Users\stapi\AppData\Local\Temp\cclCjgQ5.s:120    .text.igmp_send:0000000000000008 .L0 
C:\Users\stapi\AppData\Local\Temp\cclCjgQ5.s:121    .text.igmp_send:0000000000000008 .L0 
C:\Users\stapi\AppData\Local\Temp\cclCjgQ5.s:124    .text.igmp_send:0000000000000008 .L0 
C:\Users\stapi\AppData\Local\Temp\cclCjgQ5.s:125    .text.igmp_send:0000000000000008 .L0 
C:\Users\stapi\AppData\Local\Temp\cclCjgQ5.s:126    .text.igmp_send:0000000000000008 .L0 
C:\Users\stapi\AppData\Local\Temp\cclCjgQ5.s:127    .text.igmp_send:0000000000000008 .L0 
C:\Users\stapi\AppData\Local\Temp\cclCjgQ5.s:130    .text.igmp_send:0000000000000010 .L0 
C:\Users\stapi\AppData\Local\Temp\cclCjgQ5.s:131    .text.igmp_send:0000000000000012 .L0 
C:\Users\stapi\AppData\Local\Temp\cclCjgQ5.s:133    .text.igmp_send:0000000000000012 .L0 
C:\Users\stapi\AppData\Local\Temp\cclCjgQ5.s:137    .text.igmp_send:0000000000000018 .L0 
C:\Users\stapi\AppData\Local\Temp\cclCjgQ5.s:144    .text.igmp_send:0000000000000022 .L0 
C:\Users\stapi\AppData\Local\Temp\cclCjgQ5.s:147    .text.igmp_send:0000000000000024 .L0 
C:\Users\stapi\AppData\Local\Temp\cclCjgQ5.s:148    .text.igmp_send:0000000000000024 .L0 
C:\Users\stapi\AppData\Local\Temp\cclCjgQ5.s:149    .text.igmp_send:0000000000000024 .L0 
C:\Users\stapi\AppData\Local\Temp\cclCjgQ5.s:152    .text.igmp_send:000000000000002c .L0 
C:\Users\stapi\AppData\Local\Temp\cclCjgQ5.s:153    .text.igmp_send:000000000000002c .L0 
C:\Users\stapi\AppData\Local\Temp\cclCjgQ5.s:155    .text.igmp_send:000000000000002e .L0 
C:\Users\stapi\AppData\Local\Temp\cclCjgQ5.s:160    .text.igmp_send:0000000000000036 .L0 
C:\Users\stapi\AppData\Local\Temp\cclCjgQ5.s:161    .text.igmp_send:0000000000000036 .L0 
C:\Users\stapi\AppData\Local\Temp\cclCjgQ5.s:162    .text.igmp_send:0000000000000036 .L0 
C:\Users\stapi\AppData\Local\Temp\cclCjgQ5.s:164    .text.igmp_send:000000000000003a .L0 
C:\Users\stapi\AppData\Local\Temp\cclCjgQ5.s:165    .text.igmp_send:000000000000003a .L0 
C:\Users\stapi\AppData\Local\Temp\cclCjgQ5.s:177    .text.igmp_send:000000000000005e .L0 
C:\Users\stapi\AppData\Local\Temp\cclCjgQ5.s:178    .text.igmp_send:000000000000005e .L0 
C:\Users\stapi\AppData\Local\Temp\cclCjgQ5.s:179    .text.igmp_send:000000000000005e .L0 
C:\Users\stapi\AppData\Local\Temp\cclCjgQ5.s:183    .text.igmp_send:0000000000000060 .L0 
C:\Users\stapi\AppData\Local\Temp\cclCjgQ5.s:185    .text.igmp_send:0000000000000064 .L0 
C:\Users\stapi\AppData\Local\Temp\cclCjgQ5.s:187    .text.igmp_send:0000000000000066 .L0 
C:\Users\stapi\AppData\Local\Temp\cclCjgQ5.s:189    .text.igmp_send:0000000000000068 .L0 
C:\Users\stapi\AppData\Local\Temp\cclCjgQ5.s:190    .text.igmp_send:0000000000000068 .L0 
C:\Users\stapi\AppData\Local\Temp\cclCjgQ5.s:191    .text.igmp_send:0000000000000068 .L0 
C:\Users\stapi\AppData\Local\Temp\cclCjgQ5.s:193    .text.igmp_send:000000000000006a .L0 
C:\Users\stapi\AppData\Local\Temp\cclCjgQ5.s:194    .text.igmp_send:000000000000006a .L0 
C:\Users\stapi\AppData\Local\Temp\cclCjgQ5.s:200    .text.igmp_send:000000000000007c .L0 
C:\Users\stapi\AppData\Local\Temp\cclCjgQ5.s:202    .text.igmp_send:0000000000000080 .L0 
C:\Users\stapi\AppData\Local\Temp\cclCjgQ5.s:203    .text.igmp_send:0000000000000080 .L0 
C:\Users\stapi\AppData\Local\Temp\cclCjgQ5.s:208    .text.igmp_send:0000000000000090 .L0 
C:\Users\stapi\AppData\Local\Temp\cclCjgQ5.s:210    .text.igmp_send:0000000000000092 .L0 
C:\Users\stapi\AppData\Local\Temp\cclCjgQ5.s:213    .text.igmp_send:0000000000000096 .L0 
C:\Users\stapi\AppData\Local\Temp\cclCjgQ5.s:214    .text.igmp_send:0000000000000096 .L0 
C:\Users\stapi\AppData\Local\Temp\cclCjgQ5.s:215    .text.igmp_send:0000000000000096 .L0 
C:\Users\stapi\AppData\Local\Temp\cclCjgQ5.s:219    .text.igmp_send:000000000000009a .L0 
C:\Users\stapi\AppData\Local\Temp\cclCjgQ5.s:220    .text.igmp_send:000000000000009a .L0 
C:\Users\stapi\AppData\Local\Temp\cclCjgQ5.s:221    .text.igmp_send:000000000000009a .L0 
C:\Users\stapi\AppData\Local\Temp\cclCjgQ5.s:223    .text.igmp_send:000000000000009c .L0 
C:\Users\stapi\AppData\Local\Temp\cclCjgQ5.s:225    .text.igmp_send:00000000000000a0 .L0 
C:\Users\stapi\AppData\Local\Temp\cclCjgQ5.s:226    .text.igmp_send:00000000000000a0 .L0 
C:\Users\stapi\AppData\Local\Temp\cclCjgQ5.s:228    .text.igmp_send:00000000000000a4 .L0 
C:\Users\stapi\AppData\Local\Temp\cclCjgQ5.s:229    .text.igmp_send:00000000000000a4 .L0 
C:\Users\stapi\AppData\Local\Temp\cclCjgQ5.s:232    .text.igmp_send:00000000000000ac .L0 
C:\Users\stapi\AppData\Local\Temp\cclCjgQ5.s:233    .text.igmp_send:00000000000000ac .L0 
C:\Users\stapi\AppData\Local\Temp\cclCjgQ5.s:237    .text.igmp_send:00000000000000b6 .L0 
C:\Users\stapi\AppData\Local\Temp\cclCjgQ5.s:244    .text.igmp_send:00000000000000c2 .L0 
C:\Users\stapi\AppData\Local\Temp\cclCjgQ5.s:245    .text.igmp_send:00000000000000c2 .L0 
C:\Users\stapi\AppData\Local\Temp\cclCjgQ5.s:246    .text.igmp_send:00000000000000c2 .L0 
C:\Users\stapi\AppData\Local\Temp\cclCjgQ5.s:247    .text.igmp_send:00000000000000c2 .L0 
C:\Users\stapi\AppData\Local\Temp\cclCjgQ5.s:248    .text.igmp_send:00000000000000c2 .L0 
C:\Users\stapi\AppData\Local\Temp\cclCjgQ5.s:251    .text.igmp_send:00000000000000c8 .L0 
C:\Users\stapi\AppData\Local\Temp\cclCjgQ5.s:252    .text.igmp_send:00000000000000c8 .L0 
C:\Users\stapi\AppData\Local\Temp\cclCjgQ5.s:253    .text.igmp_send:00000000000000c8 .L0 
C:\Users\stapi\AppData\Local\Temp\cclCjgQ5.s:269    .text.igmp_send:00000000000000e6 .L0 
C:\Users\stapi\AppData\Local\Temp\cclCjgQ5.s:273    .text.igmp_send:00000000000000f0 .L0 
C:\Users\stapi\AppData\Local\Temp\cclCjgQ5.s:275    .text.igmp_send:00000000000000f0 .L0 
C:\Users\stapi\AppData\Local\Temp\cclCjgQ5.s:276    .text.igmp_send:00000000000000f0 .L0 
C:\Users\stapi\AppData\Local\Temp\cclCjgQ5.s:277    .text.igmp_send:00000000000000f2 .L0 
C:\Users\stapi\AppData\Local\Temp\cclCjgQ5.s:278    .text.igmp_send:00000000000000f2 .L0 
C:\Users\stapi\AppData\Local\Temp\cclCjgQ5.s:280    .text.igmp_send:00000000000000fa .L0 
C:\Users\stapi\AppData\Local\Temp\cclCjgQ5.s:281    .text.igmp_send:00000000000000fa .L0 
C:\Users\stapi\AppData\Local\Temp\cclCjgQ5.s:282    .text.igmp_send:00000000000000fa .L0 
C:\Users\stapi\AppData\Local\Temp\cclCjgQ5.s:283    .text.igmp_send:00000000000000fa .L0 
C:\Users\stapi\AppData\Local\Temp\cclCjgQ5.s:284    .text.igmp_send:00000000000000fa .L0 
C:\Users\stapi\AppData\Local\Temp\cclCjgQ5.s:285    .text.igmp_send:00000000000000fa .L0 
C:\Users\stapi\AppData\Local\Temp\cclCjgQ5.s:286    .text.igmp_send:00000000000000fa .L0 
C:\Users\stapi\AppData\Local\Temp\cclCjgQ5.s:287    .text.igmp_send:00000000000000fa .L0 
C:\Users\stapi\AppData\Local\Temp\cclCjgQ5.s:290    .text.igmp_send:00000000000000fa .L0 
C:\Users\stapi\AppData\Local\Temp\cclCjgQ5.s:292    .text.igmp_send:00000000000000fa .L0 
C:\Users\stapi\AppData\Local\Temp\cclCjgQ5.s:293    .text.igmp_send:00000000000000fa .L0 
C:\Users\stapi\AppData\Local\Temp\cclCjgQ5.s:294    .text.igmp_send:00000000000000fa .L0 
C:\Users\stapi\AppData\Local\Temp\cclCjgQ5.s:295    .text.igmp_send:00000000000000fa .L0 
C:\Users\stapi\AppData\Local\Temp\cclCjgQ5.s:297    .text.igmp_send:00000000000000fe .L0 
C:\Users\stapi\AppData\Local\Temp\cclCjgQ5.s:302    .text.igmp_send:000000000000010e .L0 
C:\Users\stapi\AppData\Local\Temp\cclCjgQ5.s:304    .text.igmp_send:0000000000000114 .L0 
C:\Users\stapi\AppData\Local\Temp\cclCjgQ5.s:311    .text.igmp_init:0000000000000000 igmp_init
C:\Users\stapi\AppData\Local\Temp\cclCjgQ5.s:314    .text.igmp_init:0000000000000000 .L0 
C:\Users\stapi\AppData\Local\Temp\cclCjgQ5.s:315    .text.igmp_init:0000000000000000 .L0 
C:\Users\stapi\AppData\Local\Temp\cclCjgQ5.s:316    .text.igmp_init:0000000000000000 .L0 
C:\Users\stapi\AppData\Local\Temp\cclCjgQ5.s:317    .text.igmp_init:0000000000000000 .L0 
C:\Users\stapi\AppData\Local\Temp\cclCjgQ5.s:322    .text.igmp_init:0000000000000010 .L0 
C:\Users\stapi\AppData\Local\Temp\cclCjgQ5.s:327    .text.igmp_init:0000000000000020 .L0 
C:\Users\stapi\AppData\Local\Temp\cclCjgQ5.s:328    .text.igmp_init:0000000000000022 .L0 
C:\Users\stapi\AppData\Local\Temp\cclCjgQ5.s:335    .text.igmp_stop:0000000000000000 igmp_stop
C:\Users\stapi\AppData\Local\Temp\cclCjgQ5.s:338    .text.igmp_stop:0000000000000000 .L0 
C:\Users\stapi\AppData\Local\Temp\cclCjgQ5.s:340    .text.igmp_stop:0000000000000000 .L0 
C:\Users\stapi\AppData\Local\Temp\cclCjgQ5.s:341    .text.igmp_stop:0000000000000008 .L0 
C:\Users\stapi\AppData\Local\Temp\cclCjgQ5.s:342    .text.igmp_stop:0000000000000008 .L0 
C:\Users\stapi\AppData\Local\Temp\cclCjgQ5.s:343    .text.igmp_stop:0000000000000008 .L0 
C:\Users\stapi\AppData\Local\Temp\cclCjgQ5.s:344    .text.igmp_stop:0000000000000008 .L0 
C:\Users\stapi\AppData\Local\Temp\cclCjgQ5.s:345    .text.igmp_stop:0000000000000008 .L0 
C:\Users\stapi\AppData\Local\Temp\cclCjgQ5.s:347    .text.igmp_stop:0000000000000008 .L0 
C:\Users\stapi\AppData\Local\Temp\cclCjgQ5.s:348    .text.igmp_stop:0000000000000008 .L0 
C:\Users\stapi\AppData\Local\Temp\cclCjgQ5.s:351    .text.igmp_stop:000000000000000a .L0 
C:\Users\stapi\AppData\Local\Temp\cclCjgQ5.s:352    .text.igmp_stop:000000000000000a .L0 
C:\Users\stapi\AppData\Local\Temp\cclCjgQ5.s:354    .text.igmp_stop:000000000000000c .L0 
C:\Users\stapi\AppData\Local\Temp\cclCjgQ5.s:358    .text.igmp_stop:0000000000000010 .L0 
C:\Users\stapi\AppData\Local\Temp\cclCjgQ5.s:359    .text.igmp_stop:0000000000000010 .L0 
C:\Users\stapi\AppData\Local\Temp\cclCjgQ5.s:361    .text.igmp_stop:0000000000000012 .L0 
C:\Users\stapi\AppData\Local\Temp\cclCjgQ5.s:362    .text.igmp_stop:0000000000000012 .L0 
C:\Users\stapi\AppData\Local\Temp\cclCjgQ5.s:364    .text.igmp_stop:000000000000001c .L0 
C:\Users\stapi\AppData\Local\Temp\cclCjgQ5.s:365    .text.igmp_stop:000000000000001c .L0 
C:\Users\stapi\AppData\Local\Temp\cclCjgQ5.s:366    .text.igmp_stop:000000000000001c .L0 
C:\Users\stapi\AppData\Local\Temp\cclCjgQ5.s:367    .text.igmp_stop:000000000000001c .L0 
C:\Users\stapi\AppData\Local\Temp\cclCjgQ5.s:368    .text.igmp_stop:000000000000001c .L0 
C:\Users\stapi\AppData\Local\Temp\cclCjgQ5.s:369    .text.igmp_stop:000000000000001c .L0 
C:\Users\stapi\AppData\Local\Temp\cclCjgQ5.s:371    .text.igmp_stop:000000000000001c .L0 
C:\Users\stapi\AppData\Local\Temp\cclCjgQ5.s:374    .text.igmp_stop:000000000000001c .L0 
C:\Users\stapi\AppData\Local\Temp\cclCjgQ5.s:375    .text.igmp_stop:000000000000001c .L0 
C:\Users\stapi\AppData\Local\Temp\cclCjgQ5.s:377    .text.igmp_stop:000000000000001e .L0 
C:\Users\stapi\AppData\Local\Temp\cclCjgQ5.s:380    .text.igmp_stop:0000000000000022 .L0 
C:\Users\stapi\AppData\Local\Temp\cclCjgQ5.s:381    .text.igmp_stop:0000000000000022 .L0 
C:\Users\stapi\AppData\Local\Temp\cclCjgQ5.s:383    .text.igmp_stop:0000000000000024 .L0 
C:\Users\stapi\AppData\Local\Temp\cclCjgQ5.s:384    .text.igmp_stop:0000000000000024 .L0 
C:\Users\stapi\AppData\Local\Temp\cclCjgQ5.s:385    .text.igmp_stop:0000000000000024 .L0 
C:\Users\stapi\AppData\Local\Temp\cclCjgQ5.s:386    .text.igmp_stop:0000000000000024 .L0 
C:\Users\stapi\AppData\Local\Temp\cclCjgQ5.s:393    .text.igmp_stop:000000000000002e .L0 
C:\Users\stapi\AppData\Local\Temp\cclCjgQ5.s:398    .text.igmp_stop:000000000000003a .L0 
C:\Users\stapi\AppData\Local\Temp\cclCjgQ5.s:399    .text.igmp_stop:000000000000003a .L0 
C:\Users\stapi\AppData\Local\Temp\cclCjgQ5.s:402    .text.igmp_stop:000000000000003e .L0 
C:\Users\stapi\AppData\Local\Temp\cclCjgQ5.s:409    .text.igmp_report_groups:0000000000000000 igmp_report_groups
C:\Users\stapi\AppData\Local\Temp\cclCjgQ5.s:412    .text.igmp_report_groups:0000000000000000 .L0 
C:\Users\stapi\AppData\Local\Temp\cclCjgQ5.s:414    .text.igmp_report_groups:0000000000000000 .L0 
C:\Users\stapi\AppData\Local\Temp\cclCjgQ5.s:415    .text.igmp_report_groups:0000000000000000 .L0 
C:\Users\stapi\AppData\Local\Temp\cclCjgQ5.s:416    .text.igmp_report_groups:0000000000000000 .L0 
C:\Users\stapi\AppData\Local\Temp\cclCjgQ5.s:419    .text.igmp_report_groups:0000000000000002 .L0 
C:\Users\stapi\AppData\Local\Temp\cclCjgQ5.s:420    .text.igmp_report_groups:0000000000000002 .L0 
C:\Users\stapi\AppData\Local\Temp\cclCjgQ5.s:421    .text.igmp_report_groups:0000000000000002 .L0 
C:\Users\stapi\AppData\Local\Temp\cclCjgQ5.s:423    .text.igmp_report_groups:0000000000000004 .L0 
C:\Users\stapi\AppData\Local\Temp\cclCjgQ5.s:424    .text.igmp_report_groups:000000000000000c .L0 
C:\Users\stapi\AppData\Local\Temp\cclCjgQ5.s:425    .text.igmp_report_groups:000000000000000c .L0 
C:\Users\stapi\AppData\Local\Temp\cclCjgQ5.s:426    .text.igmp_report_groups:000000000000000c .L0 
C:\Users\stapi\AppData\Local\Temp\cclCjgQ5.s:428    .text.igmp_report_groups:000000000000000c .L0 
C:\Users\stapi\AppData\Local\Temp\cclCjgQ5.s:429    .text.igmp_report_groups:000000000000000c .L0 
C:\Users\stapi\AppData\Local\Temp\cclCjgQ5.s:433    .text.igmp_report_groups:000000000000000e .L0 
C:\Users\stapi\AppData\Local\Temp\cclCjgQ5.s:435    .text.igmp_report_groups:0000000000000010 .L0 
C:\Users\stapi\AppData\Local\Temp\cclCjgQ5.s:436    .text.igmp_report_groups:0000000000000018 .L0 
C:\Users\stapi\AppData\Local\Temp\cclCjgQ5.s:437    .text.igmp_report_groups:0000000000000018 .L0 
C:\Users\stapi\AppData\Local\Temp\cclCjgQ5.s:438    .text.igmp_report_groups:0000000000000018 .L0 
C:\Users\stapi\AppData\Local\Temp\cclCjgQ5.s:439    .text.igmp_report_groups:0000000000000018 .L0 
C:\Users\stapi\AppData\Local\Temp\cclCjgQ5.s:441    .text.igmp_report_groups:0000000000000018 .L0 
C:\Users\stapi\AppData\Local\Temp\cclCjgQ5.s:443    .text.igmp_report_groups:0000000000000018 .L0 
C:\Users\stapi\AppData\Local\Temp\cclCjgQ5.s:448    .text.igmp_report_groups:0000000000000024 .L0 
C:\Users\stapi\AppData\Local\Temp\cclCjgQ5.s:449    .text.igmp_report_groups:0000000000000024 .L0 
C:\Users\stapi\AppData\Local\Temp\cclCjgQ5.s:454    .text.igmp_report_groups:0000000000000028 .L0 
C:\Users\stapi\AppData\Local\Temp\cclCjgQ5.s:455    .text.igmp_report_groups:0000000000000028 .L0 
C:\Users\stapi\AppData\Local\Temp\cclCjgQ5.s:456    .text.igmp_report_groups:0000000000000028 .L0 
C:\Users\stapi\AppData\Local\Temp\cclCjgQ5.s:458    .text.igmp_report_groups:000000000000002a .L0 
C:\Users\stapi\AppData\Local\Temp\cclCjgQ5.s:465    .text.igmp_lookfor_group:0000000000000000 igmp_lookfor_group
C:\Users\stapi\AppData\Local\Temp\cclCjgQ5.s:468    .text.igmp_lookfor_group:0000000000000000 .L0 
C:\Users\stapi\AppData\Local\Temp\cclCjgQ5.s:470    .text.igmp_lookfor_group:0000000000000000 .L0 
C:\Users\stapi\AppData\Local\Temp\cclCjgQ5.s:471    .text.igmp_lookfor_group:0000000000000000 .L0 
C:\Users\stapi\AppData\Local\Temp\cclCjgQ5.s:472    .text.igmp_lookfor_group:0000000000000000 .L0 
C:\Users\stapi\AppData\Local\Temp\cclCjgQ5.s:476    .text.igmp_lookfor_group:0000000000000002 .L0 
C:\Users\stapi\AppData\Local\Temp\cclCjgQ5.s:477    .text.igmp_lookfor_group:0000000000000002 .L0 
C:\Users\stapi\AppData\Local\Temp\cclCjgQ5.s:480    .text.igmp_lookfor_group:0000000000000004 .L0 
C:\Users\stapi\AppData\Local\Temp\cclCjgQ5.s:483    .text.igmp_lookfor_group:0000000000000006 .L0 
C:\Users\stapi\AppData\Local\Temp\cclCjgQ5.s:484    .text.igmp_lookfor_group:0000000000000006 .L0 
C:\Users\stapi\AppData\Local\Temp\cclCjgQ5.s:488    .text.igmp_lookfor_group:000000000000000e .L0 
C:\Users\stapi\AppData\Local\Temp\cclCjgQ5.s:489    .text.igmp_lookfor_group:000000000000000e .L0 
C:\Users\stapi\AppData\Local\Temp\cclCjgQ5.s:492    .text.igmp_lookfor_group:0000000000000012 .L0 
C:\Users\stapi\AppData\Local\Temp\cclCjgQ5.s:505    .text.igmp_lookup_group:0000000000000000 igmp_lookup_group
C:\Users\stapi\AppData\Local\Temp\cclCjgQ5.s:508    .text.igmp_lookup_group:0000000000000000 .L0 
C:\Users\stapi\AppData\Local\Temp\cclCjgQ5.s:510    .text.igmp_lookup_group:0000000000000000 .L0 
C:\Users\stapi\AppData\Local\Temp\cclCjgQ5.s:511    .text.igmp_lookup_group:0000000000000008 .L0 
C:\Users\stapi\AppData\Local\Temp\cclCjgQ5.s:512    .text.igmp_lookup_group:0000000000000008 .L0 
C:\Users\stapi\AppData\Local\Temp\cclCjgQ5.s:513    .text.igmp_lookup_group:0000000000000008 .L0 
C:\Users\stapi\AppData\Local\Temp\cclCjgQ5.s:514    .text.igmp_lookup_group:0000000000000008 .L0 
C:\Users\stapi\AppData\Local\Temp\cclCjgQ5.s:515    .text.igmp_lookup_group:0000000000000008 .L0 
C:\Users\stapi\AppData\Local\Temp\cclCjgQ5.s:517    .text.igmp_lookup_group:0000000000000008 .L0 
C:\Users\stapi\AppData\Local\Temp\cclCjgQ5.s:518    .text.igmp_lookup_group:0000000000000008 .L0 
C:\Users\stapi\AppData\Local\Temp\cclCjgQ5.s:519    .text.igmp_lookup_group:0000000000000008 .L0 
C:\Users\stapi\AppData\Local\Temp\cclCjgQ5.s:522    .text.igmp_lookup_group:000000000000000a .L0 
C:\Users\stapi\AppData\Local\Temp\cclCjgQ5.s:523    .text.igmp_lookup_group:000000000000000a .L0 
C:\Users\stapi\AppData\Local\Temp\cclCjgQ5.s:525    .text.igmp_lookup_group:000000000000000c .L0 
C:\Users\stapi\AppData\Local\Temp\cclCjgQ5.s:528    .text.igmp_lookup_group:0000000000000014 .L0 
C:\Users\stapi\AppData\Local\Temp\cclCjgQ5.s:529    .text.igmp_lookup_group:0000000000000014 .L0 
C:\Users\stapi\AppData\Local\Temp\cclCjgQ5.s:531    .text.igmp_lookup_group:0000000000000016 .L0 
C:\Users\stapi\AppData\Local\Temp\cclCjgQ5.s:534    .text.igmp_lookup_group:0000000000000018 .L0 
C:\Users\stapi\AppData\Local\Temp\cclCjgQ5.s:536    .text.igmp_lookup_group:000000000000001c .L0 
C:\Users\stapi\AppData\Local\Temp\cclCjgQ5.s:537    .text.igmp_lookup_group:000000000000001c .L0 
C:\Users\stapi\AppData\Local\Temp\cclCjgQ5.s:540    .text.igmp_lookup_group:0000000000000024 .L0 
C:\Users\stapi\AppData\Local\Temp\cclCjgQ5.s:541    .text.igmp_lookup_group:0000000000000024 .L0 
C:\Users\stapi\AppData\Local\Temp\cclCjgQ5.s:543    .text.igmp_lookup_group:0000000000000026 .L0 
C:\Users\stapi\AppData\Local\Temp\cclCjgQ5.s:546    .text.igmp_lookup_group:000000000000002a .L0 
C:\Users\stapi\AppData\Local\Temp\cclCjgQ5.s:549    .text.igmp_lookup_group:000000000000002c .L0 
C:\Users\stapi\AppData\Local\Temp\cclCjgQ5.s:551    .text.igmp_lookup_group:000000000000002e .L0 
C:\Users\stapi\AppData\Local\Temp\cclCjgQ5.s:552    .text.igmp_lookup_group:000000000000002e .L0 
C:\Users\stapi\AppData\Local\Temp\cclCjgQ5.s:553    .text.igmp_lookup_group:000000000000002e .L0 
C:\Users\stapi\AppData\Local\Temp\cclCjgQ5.s:554    .text.igmp_lookup_group:000000000000002e .L0 
C:\Users\stapi\AppData\Local\Temp\cclCjgQ5.s:555    .text.igmp_lookup_group:000000000000002e .L0 
C:\Users\stapi\AppData\Local\Temp\cclCjgQ5.s:557    .text.igmp_lookup_group:0000000000000032 .L0 
C:\Users\stapi\AppData\Local\Temp\cclCjgQ5.s:559    .text.igmp_lookup_group:0000000000000036 .L0 
C:\Users\stapi\AppData\Local\Temp\cclCjgQ5.s:560    .text.igmp_lookup_group:0000000000000036 .L0 
C:\Users\stapi\AppData\Local\Temp\cclCjgQ5.s:564    .text.igmp_lookup_group:0000000000000040 .L0 
C:\Users\stapi\AppData\Local\Temp\cclCjgQ5.s:566    .text.igmp_lookup_group:0000000000000044 .L0 
C:\Users\stapi\AppData\Local\Temp\cclCjgQ5.s:567    .text.igmp_lookup_group:0000000000000044 .L0 
C:\Users\stapi\AppData\Local\Temp\cclCjgQ5.s:569    .text.igmp_lookup_group:0000000000000048 .L0 
C:\Users\stapi\AppData\Local\Temp\cclCjgQ5.s:570    .text.igmp_lookup_group:0000000000000048 .L0 
C:\Users\stapi\AppData\Local\Temp\cclCjgQ5.s:582    .text.igmp_lookup_group:000000000000006c .L0 
C:\Users\stapi\AppData\Local\Temp\cclCjgQ5.s:583    .text.igmp_lookup_group:000000000000006c .L0 
C:\Users\stapi\AppData\Local\Temp\cclCjgQ5.s:584    .text.igmp_lookup_group:000000000000006c .L0 
C:\Users\stapi\AppData\Local\Temp\cclCjgQ5.s:588    .text.igmp_lookup_group:000000000000006e .L0 
C:\Users\stapi\AppData\Local\Temp\cclCjgQ5.s:589    .text.igmp_lookup_group:000000000000006e .L0 
C:\Users\stapi\AppData\Local\Temp\cclCjgQ5.s:590    .text.igmp_lookup_group:000000000000006e .L0 
C:\Users\stapi\AppData\Local\Temp\cclCjgQ5.s:591    .text.igmp_lookup_group:000000000000006e .L0 
C:\Users\stapi\AppData\Local\Temp\cclCjgQ5.s:593    .text.igmp_lookup_group:0000000000000072 .L0 
C:\Users\stapi\AppData\Local\Temp\cclCjgQ5.s:596    .text.igmp_lookup_group:0000000000000074 .L0 
C:\Users\stapi\AppData\Local\Temp\cclCjgQ5.s:597    .text.igmp_lookup_group:000000000000007c .L0 
C:\Users\stapi\AppData\Local\Temp\cclCjgQ5.s:598    .text.igmp_lookup_group:000000000000007c .L0 
C:\Users\stapi\AppData\Local\Temp\cclCjgQ5.s:599    .text.igmp_lookup_group:000000000000007c .L0 
C:\Users\stapi\AppData\Local\Temp\cclCjgQ5.s:600    .text.igmp_lookup_group:000000000000007c .L0 
C:\Users\stapi\AppData\Local\Temp\cclCjgQ5.s:601    .text.igmp_lookup_group:000000000000007c .L0 
C:\Users\stapi\AppData\Local\Temp\cclCjgQ5.s:602    .text.igmp_lookup_group:000000000000007c .L0 
C:\Users\stapi\AppData\Local\Temp\cclCjgQ5.s:604    .text.igmp_lookup_group:000000000000007c .L0 
C:\Users\stapi\AppData\Local\Temp\cclCjgQ5.s:606    .text.igmp_lookup_group:000000000000007c .L0 
C:\Users\stapi\AppData\Local\Temp\cclCjgQ5.s:607    .text.igmp_lookup_group:000000000000007c .L0 
C:\Users\stapi\AppData\Local\Temp\cclCjgQ5.s:609    .text.igmp_lookup_group:0000000000000080 .L0 
C:\Users\stapi\AppData\Local\Temp\cclCjgQ5.s:610    .text.igmp_lookup_group:0000000000000080 .L0 
C:\Users\stapi\AppData\Local\Temp\cclCjgQ5.s:622    .text.igmp_lookup_group:00000000000000a4 .L0 
C:\Users\stapi\AppData\Local\Temp\cclCjgQ5.s:623    .text.igmp_lookup_group:00000000000000a4 .L0 
C:\Users\stapi\AppData\Local\Temp\cclCjgQ5.s:624    .text.igmp_lookup_group:00000000000000a4 .L0 
C:\Users\stapi\AppData\Local\Temp\cclCjgQ5.s:628    .text.igmp_lookup_group:00000000000000a6 .L0 
C:\Users\stapi\AppData\Local\Temp\cclCjgQ5.s:629    .text.igmp_lookup_group:00000000000000a6 .L0 
C:\Users\stapi\AppData\Local\Temp\cclCjgQ5.s:630    .text.igmp_lookup_group:00000000000000a6 .L0 
C:\Users\stapi\AppData\Local\Temp\cclCjgQ5.s:631    .text.igmp_lookup_group:00000000000000a6 .L0 
C:\Users\stapi\AppData\Local\Temp\cclCjgQ5.s:633    .text.igmp_lookup_group:00000000000000aa .L0 
C:\Users\stapi\AppData\Local\Temp\cclCjgQ5.s:635    .text.igmp_lookup_group:00000000000000ac .L0 
C:\Users\stapi\AppData\Local\Temp\cclCjgQ5.s:636    .text.igmp_lookup_group:00000000000000ac .L0 
C:\Users\stapi\AppData\Local\Temp\cclCjgQ5.s:638    .text.igmp_lookup_group:00000000000000b2 .L0 
C:\Users\stapi\AppData\Local\Temp\cclCjgQ5.s:645    .text.igmp_start:0000000000000000 igmp_start
C:\Users\stapi\AppData\Local\Temp\cclCjgQ5.s:648    .text.igmp_start:0000000000000000 .L0 
C:\Users\stapi\AppData\Local\Temp\cclCjgQ5.s:650    .text.igmp_start:0000000000000000 .L0 
C:\Users\stapi\AppData\Local\Temp\cclCjgQ5.s:651    .text.igmp_start:0000000000000008 .L0 
C:\Users\stapi\AppData\Local\Temp\cclCjgQ5.s:652    .text.igmp_start:0000000000000008 .L0 
C:\Users\stapi\AppData\Local\Temp\cclCjgQ5.s:653    .text.igmp_start:0000000000000008 .L0 
C:\Users\stapi\AppData\Local\Temp\cclCjgQ5.s:654    .text.igmp_start:0000000000000008 .L0 
C:\Users\stapi\AppData\Local\Temp\cclCjgQ5.s:656    .text.igmp_start:0000000000000008 .L0 
C:\Users\stapi\AppData\Local\Temp\cclCjgQ5.s:657    .text.igmp_start:0000000000000008 .L0 
C:\Users\stapi\AppData\Local\Temp\cclCjgQ5.s:658    .text.igmp_start:0000000000000008 .L0 
C:\Users\stapi\AppData\Local\Temp\cclCjgQ5.s:659    .text.igmp_start:0000000000000008 .L0 
C:\Users\stapi\AppData\Local\Temp\cclCjgQ5.s:662    .text.igmp_start:0000000000000010 .L0 
C:\Users\stapi\AppData\Local\Temp\cclCjgQ5.s:664    .text.igmp_start:0000000000000012 .L0 
C:\Users\stapi\AppData\Local\Temp\cclCjgQ5.s:667    .text.igmp_start:000000000000001a .L0 
C:\Users\stapi\AppData\Local\Temp\cclCjgQ5.s:668    .text.igmp_start:000000000000001a .L0 
C:\Users\stapi\AppData\Local\Temp\cclCjgQ5.s:670    .text.igmp_start:000000000000001c .L0 
C:\Users\stapi\AppData\Local\Temp\cclCjgQ5.s:671    .text.igmp_start:000000000000001c .L0 
C:\Users\stapi\AppData\Local\Temp\cclCjgQ5.s:674    .text.igmp_start:0000000000000022 .L0 
C:\Users\stapi\AppData\Local\Temp\cclCjgQ5.s:675    .text.igmp_start:0000000000000022 .L0 
C:\Users\stapi\AppData\Local\Temp\cclCjgQ5.s:679    .text.igmp_start:000000000000002c .L0 
C:\Users\stapi\AppData\Local\Temp\cclCjgQ5.s:680    .text.igmp_start:000000000000002c .L0 
C:\Users\stapi\AppData\Local\Temp\cclCjgQ5.s:682    .text.igmp_start:000000000000002e .L0 
C:\Users\stapi\AppData\Local\Temp\cclCjgQ5.s:685    .text.igmp_start:0000000000000030 .L0 
C:\Users\stapi\AppData\Local\Temp\cclCjgQ5.s:687    .text.igmp_start:0000000000000032 .L0 
C:\Users\stapi\AppData\Local\Temp\cclCjgQ5.s:688    .text.igmp_start:0000000000000032 .L0 
C:\Users\stapi\AppData\Local\Temp\cclCjgQ5.s:689    .text.igmp_start:0000000000000032 .L0 
C:\Users\stapi\AppData\Local\Temp\cclCjgQ5.s:690    .text.igmp_start:0000000000000032 .L0 
C:\Users\stapi\AppData\Local\Temp\cclCjgQ5.s:696    .text.igmp_start:000000000000003c .L0 
C:\Users\stapi\AppData\Local\Temp\cclCjgQ5.s:699    .text.igmp_start:000000000000003e .L0 
C:\Users\stapi\AppData\Local\Temp\cclCjgQ5.s:700    .text.igmp_start:0000000000000046 .L0 
C:\Users\stapi\AppData\Local\Temp\cclCjgQ5.s:701    .text.igmp_start:0000000000000046 .L0 
C:\Users\stapi\AppData\Local\Temp\cclCjgQ5.s:702    .text.igmp_start:0000000000000046 .L0 
C:\Users\stapi\AppData\Local\Temp\cclCjgQ5.s:703    .text.igmp_start:0000000000000046 .L0 
C:\Users\stapi\AppData\Local\Temp\cclCjgQ5.s:704    .text.igmp_start:0000000000000046 .L0 
C:\Users\stapi\AppData\Local\Temp\cclCjgQ5.s:707    .text.igmp_start:0000000000000046 .L0 
C:\Users\stapi\AppData\Local\Temp\cclCjgQ5.s:709    .text.igmp_start:0000000000000046 .L0 
C:\Users\stapi\AppData\Local\Temp\cclCjgQ5.s:712    .text.igmp_start:000000000000004a .L0 
C:\Users\stapi\AppData\Local\Temp\cclCjgQ5.s:719    .text.igmp_input:0000000000000000 igmp_input
C:\Users\stapi\AppData\Local\Temp\cclCjgQ5.s:722    .text.igmp_input:0000000000000000 .L0 
C:\Users\stapi\AppData\Local\Temp\cclCjgQ5.s:724    .text.igmp_input:0000000000000000 .L0 
C:\Users\stapi\AppData\Local\Temp\cclCjgQ5.s:725    .text.igmp_input:0000000000000008 .L0 
C:\Users\stapi\AppData\Local\Temp\cclCjgQ5.s:726    .text.igmp_input:0000000000000008 .L0 
C:\Users\stapi\AppData\Local\Temp\cclCjgQ5.s:727    .text.igmp_input:0000000000000008 .L0 
C:\Users\stapi\AppData\Local\Temp\cclCjgQ5.s:728    .text.igmp_input:0000000000000008 .L0 
C:\Users\stapi\AppData\Local\Temp\cclCjgQ5.s:729    .text.igmp_input:0000000000000008 .L0 
C:\Users\stapi\AppData\Local\Temp\cclCjgQ5.s:730    .text.igmp_input:0000000000000008 .L0 
C:\Users\stapi\AppData\Local\Temp\cclCjgQ5.s:732    .text.igmp_input:0000000000000008 .L0 
C:\Users\stapi\AppData\Local\Temp\cclCjgQ5.s:733    .text.igmp_input:0000000000000008 .L0 
C:\Users\stapi\AppData\Local\Temp\cclCjgQ5.s:734    .text.igmp_input:0000000000000008 .L0 
C:\Users\stapi\AppData\Local\Temp\cclCjgQ5.s:735    .text.igmp_input:0000000000000008 .L0 
C:\Users\stapi\AppData\Local\Temp\cclCjgQ5.s:736    .text.igmp_input:0000000000000008 .L0 
C:\Users\stapi\AppData\Local\Temp\cclCjgQ5.s:737    .text.igmp_input:0000000000000008 .L0 
C:\Users\stapi\AppData\Local\Temp\cclCjgQ5.s:739    .text.igmp_input:000000000000000a .L0 
C:\Users\stapi\AppData\Local\Temp\cclCjgQ5.s:742    .text.igmp_input:000000000000000e .L0 
C:\Users\stapi\AppData\Local\Temp\cclCjgQ5.s:744    .text.igmp_input:0000000000000010 .L0 
C:\Users\stapi\AppData\Local\Temp\cclCjgQ5.s:745    .text.igmp_input:0000000000000012 .L0 
C:\Users\stapi\AppData\Local\Temp\cclCjgQ5.s:747    .text.igmp_input:0000000000000012 .L0 
C:\Users\stapi\AppData\Local\Temp\cclCjgQ5.s:749    .text.igmp_input:0000000000000014 .L0 
C:\Users\stapi\AppData\Local\Temp\cclCjgQ5.s:753    .text.igmp_input:0000000000000018 .L0 
C:\Users\stapi\AppData\Local\Temp\cclCjgQ5.s:757    .text.igmp_input:0000000000000022 .L0 
C:\Users\stapi\AppData\Local\Temp\cclCjgQ5.s:758    .text.igmp_input:0000000000000022 .L0 
C:\Users\stapi\AppData\Local\Temp\cclCjgQ5.s:759    .text.igmp_input:0000000000000024 .L0 
C:\Users\stapi\AppData\Local\Temp\cclCjgQ5.s:760    .text.igmp_input:0000000000000024 .L0 
C:\Users\stapi\AppData\Local\Temp\cclCjgQ5.s:762    .text.igmp_input:000000000000002c .L0 
C:\Users\stapi\AppData\Local\Temp\cclCjgQ5.s:763    .text.igmp_input:000000000000002c .L0 
C:\Users\stapi\AppData\Local\Temp\cclCjgQ5.s:764    .text.igmp_input:000000000000002c .L0 
C:\Users\stapi\AppData\Local\Temp\cclCjgQ5.s:765    .text.igmp_input:000000000000002c .L0 
C:\Users\stapi\AppData\Local\Temp\cclCjgQ5.s:766    .text.igmp_input:000000000000002c .L0 
C:\Users\stapi\AppData\Local\Temp\cclCjgQ5.s:767    .text.igmp_input:000000000000002c .L0 
C:\Users\stapi\AppData\Local\Temp\cclCjgQ5.s:770    .text.igmp_input:000000000000002c .L0 
C:\Users\stapi\AppData\Local\Temp\cclCjgQ5.s:772    .text.igmp_input:000000000000002c .L0 
C:\Users\stapi\AppData\Local\Temp\cclCjgQ5.s:775    .text.igmp_input:0000000000000030 .L0 
C:\Users\stapi\AppData\Local\Temp\cclCjgQ5.s:776    .text.igmp_input:0000000000000030 .L0 
C:\Users\stapi\AppData\Local\Temp\cclCjgQ5.s:777    .text.igmp_input:0000000000000030 .L0 
C:\Users\stapi\AppData\Local\Temp\cclCjgQ5.s:778    .text.igmp_input:0000000000000030 .L0 
C:\Users\stapi\AppData\Local\Temp\cclCjgQ5.s:779    .text.igmp_input:0000000000000030 .L0 
C:\Users\stapi\AppData\Local\Temp\cclCjgQ5.s:781    .text.igmp_input:0000000000000030 .L0 
C:\Users\stapi\AppData\Local\Temp\cclCjgQ5.s:782    .text.igmp_input:0000000000000030 .L0 
C:\Users\stapi\AppData\Local\Temp\cclCjgQ5.s:783    .text.igmp_input:0000000000000030 .L0 
C:\Users\stapi\AppData\Local\Temp\cclCjgQ5.s:787    .text.igmp_input:000000000000003a .L0 
C:\Users\stapi\AppData\Local\Temp\cclCjgQ5.s:789    .text.igmp_input:000000000000003c .L0 
C:\Users\stapi\AppData\Local\Temp\cclCjgQ5.s:790    .text.igmp_input:000000000000003c .L0 
C:\Users\stapi\AppData\Local\Temp\cclCjgQ5.s:795    .text.igmp_input:0000000000000048 .L0 
C:\Users\stapi\AppData\Local\Temp\cclCjgQ5.s:796    .text.igmp_input:0000000000000048 .L0 
C:\Users\stapi\AppData\Local\Temp\cclCjgQ5.s:798    .text.igmp_input:000000000000004a .L0 
C:\Users\stapi\AppData\Local\Temp\cclCjgQ5.s:799    .text.igmp_input:000000000000004a .L0 
C:\Users\stapi\AppData\Local\Temp\cclCjgQ5.s:801    .text.igmp_input:000000000000004e .L0 
C:\Users\stapi\AppData\Local\Temp\cclCjgQ5.s:806    .text.igmp_input:000000000000005a .L0 
C:\Users\stapi\AppData\Local\Temp\cclCjgQ5.s:807    .text.igmp_input:000000000000005a .L0 
C:\Users\stapi\AppData\Local\Temp\cclCjgQ5.s:808    .text.igmp_input:000000000000005a .L0 
C:\Users\stapi\AppData\Local\Temp\cclCjgQ5.s:809    .text.igmp_input:000000000000005a .L0 
C:\Users\stapi\AppData\Local\Temp\cclCjgQ5.s:813    .text.igmp_input:0000000000000064 .L0 
C:\Users\stapi\AppData\Local\Temp\cclCjgQ5.s:814    .text.igmp_input:0000000000000064 .L0 
C:\Users\stapi\AppData\Local\Temp\cclCjgQ5.s:815    .text.igmp_input:0000000000000064 .L0 
C:\Users\stapi\AppData\Local\Temp\cclCjgQ5.s:816    .text.igmp_input:0000000000000064 .L0 
C:\Users\stapi\AppData\Local\Temp\cclCjgQ5.s:821    .text.igmp_input:000000000000006c .L0 
C:\Users\stapi\AppData\Local\Temp\cclCjgQ5.s:822    .text.igmp_input:000000000000006c .L0 
C:\Users\stapi\AppData\Local\Temp\cclCjgQ5.s:825    .text.igmp_input:0000000000000074 .L0 
C:\Users\stapi\AppData\Local\Temp\cclCjgQ5.s:827    .text.igmp_input:0000000000000078 .L0 
C:\Users\stapi\AppData\Local\Temp\cclCjgQ5.s:836    .text.igmp_input:000000000000008c .L0 
C:\Users\stapi\AppData\Local\Temp\cclCjgQ5.s:840    .text.igmp_input:0000000000000098 .L0 
C:\Users\stapi\AppData\Local\Temp\cclCjgQ5.s:842    .text.igmp_input:000000000000009a .L0 
C:\Users\stapi\AppData\Local\Temp\cclCjgQ5.s:843    .text.igmp_input:000000000000009a .L0 
C:\Users\stapi\AppData\Local\Temp\cclCjgQ5.s:844    .text.igmp_input:000000000000009a .L0 
C:\Users\stapi\AppData\Local\Temp\cclCjgQ5.s:847    .text.igmp_input:00000000000000a0 .L0 
C:\Users\stapi\AppData\Local\Temp\cclCjgQ5.s:848    .text.igmp_input:00000000000000a0 .L0 
C:\Users\stapi\AppData\Local\Temp\cclCjgQ5.s:849    .text.igmp_input:00000000000000a0 .L0 
C:\Users\stapi\AppData\Local\Temp\cclCjgQ5.s:850    .text.igmp_input:00000000000000a0 .L0 
C:\Users\stapi\AppData\Local\Temp\cclCjgQ5.s:854    .text.igmp_input:00000000000000a6 .L0 
C:\Users\stapi\AppData\Local\Temp\cclCjgQ5.s:855    .text.igmp_input:00000000000000a6 .L0 
C:\Users\stapi\AppData\Local\Temp\cclCjgQ5.s:856    .text.igmp_input:00000000000000a6 .L0 
C:\Users\stapi\AppData\Local\Temp\cclCjgQ5.s:859    .text.igmp_input:00000000000000aa .L0 
C:\Users\stapi\AppData\Local\Temp\cclCjgQ5.s:860    .text.igmp_input:00000000000000aa .L0 
C:\Users\stapi\AppData\Local\Temp\cclCjgQ5.s:862    .text.igmp_input:00000000000000ac .L0 
C:\Users\stapi\AppData\Local\Temp\cclCjgQ5.s:863    .text.igmp_input:00000000000000ac .L0 
C:\Users\stapi\AppData\Local\Temp\cclCjgQ5.s:867    .text.igmp_input:00000000000000b0 .L0 
C:\Users\stapi\AppData\Local\Temp\cclCjgQ5.s:869    .text.igmp_input:00000000000000b4 .L0 
C:\Users\stapi\AppData\Local\Temp\cclCjgQ5.s:874    .text.igmp_input:00000000000000c2 .L0 
C:\Users\stapi\AppData\Local\Temp\cclCjgQ5.s:875    .text.igmp_input:00000000000000c2 .L0 
C:\Users\stapi\AppData\Local\Temp\cclCjgQ5.s:882    .text.igmp_input:00000000000000c8 .L0 
C:\Users\stapi\AppData\Local\Temp\cclCjgQ5.s:883    .text.igmp_input:00000000000000c8 .L0 
C:\Users\stapi\AppData\Local\Temp\cclCjgQ5.s:884    .text.igmp_input:00000000000000c8 .L0 
C:\Users\stapi\AppData\Local\Temp\cclCjgQ5.s:885    .text.igmp_input:00000000000000c8 .L0 
C:\Users\stapi\AppData\Local\Temp\cclCjgQ5.s:886    .text.igmp_input:00000000000000c8 .L0 
C:\Users\stapi\AppData\Local\Temp\cclCjgQ5.s:890    .text.igmp_input:00000000000000cc .L0 
C:\Users\stapi\AppData\Local\Temp\cclCjgQ5.s:892    .text.igmp_input:00000000000000ce .L0 
C:\Users\stapi\AppData\Local\Temp\cclCjgQ5.s:893    .text.igmp_input:00000000000000ce .L0 
C:\Users\stapi\AppData\Local\Temp\cclCjgQ5.s:897    .text.igmp_input:00000000000000d6 .L0 
C:\Users\stapi\AppData\Local\Temp\cclCjgQ5.s:898    .text.igmp_input:00000000000000d6 .L0 
C:\Users\stapi\AppData\Local\Temp\cclCjgQ5.s:899    .text.igmp_input:00000000000000d6 .L0 
C:\Users\stapi\AppData\Local\Temp\cclCjgQ5.s:902    .text.igmp_input:00000000000000d8 .L0 
C:\Users\stapi\AppData\Local\Temp\cclCjgQ5.s:903    .text.igmp_input:00000000000000d8 .L0 
C:\Users\stapi\AppData\Local\Temp\cclCjgQ5.s:910    .text.igmp_input:00000000000000e6 .L0 
C:\Users\stapi\AppData\Local\Temp\cclCjgQ5.s:911    .text.igmp_input:00000000000000e6 .L0 
C:\Users\stapi\AppData\Local\Temp\cclCjgQ5.s:913    .text.igmp_input:00000000000000ea .L0 
C:\Users\stapi\AppData\Local\Temp\cclCjgQ5.s:930    .text.igmp_joingroup_netif:0000000000000000 igmp_joingroup_netif
C:\Users\stapi\AppData\Local\Temp\cclCjgQ5.s:933    .text.igmp_joingroup_netif:0000000000000000 .L0 
C:\Users\stapi\AppData\Local\Temp\cclCjgQ5.s:935    .text.igmp_joingroup_netif:0000000000000000 .L0 
C:\Users\stapi\AppData\Local\Temp\cclCjgQ5.s:936    .text.igmp_joingroup_netif:0000000000000008 .L0 
C:\Users\stapi\AppData\Local\Temp\cclCjgQ5.s:937    .text.igmp_joingroup_netif:0000000000000008 .L0 
C:\Users\stapi\AppData\Local\Temp\cclCjgQ5.s:938    .text.igmp_joingroup_netif:0000000000000008 .L0 
C:\Users\stapi\AppData\Local\Temp\cclCjgQ5.s:939    .text.igmp_joingroup_netif:0000000000000008 .L0 
C:\Users\stapi\AppData\Local\Temp\cclCjgQ5.s:940    .text.igmp_joingroup_netif:0000000000000008 .L0 
C:\Users\stapi\AppData\Local\Temp\cclCjgQ5.s:942    .text.igmp_joingroup_netif:0000000000000008 .L0 
C:\Users\stapi\AppData\Local\Temp\cclCjgQ5.s:943    .text.igmp_joingroup_netif:0000000000000008 .L0 
C:\Users\stapi\AppData\Local\Temp\cclCjgQ5.s:944    .text.igmp_joingroup_netif:0000000000000008 .L0 
C:\Users\stapi\AppData\Local\Temp\cclCjgQ5.s:945    .text.igmp_joingroup_netif:0000000000000008 .L0 
C:\Users\stapi\AppData\Local\Temp\cclCjgQ5.s:950    .text.igmp_joingroup_netif:0000000000000016 .L0 
C:\Users\stapi\AppData\Local\Temp\cclCjgQ5.s:951    .text.igmp_joingroup_netif:0000000000000016 .L0 
C:\Users\stapi\AppData\Local\Temp\cclCjgQ5.s:964    .text.igmp_joingroup_netif:000000000000003a .L0 
C:\Users\stapi\AppData\Local\Temp\cclCjgQ5.s:965    .text.igmp_joingroup_netif:000000000000003a .L0 
C:\Users\stapi\AppData\Local\Temp\cclCjgQ5.s:966    .text.igmp_joingroup_netif:000000000000003a .L0 
C:\Users\stapi\AppData\Local\Temp\cclCjgQ5.s:970    .text.igmp_joingroup_netif:000000000000003c .L0 
C:\Users\stapi\AppData\Local\Temp\cclCjgQ5.s:971    .text.igmp_joingroup_netif:000000000000003c .L0 
C:\Users\stapi\AppData\Local\Temp\cclCjgQ5.s:972    .text.igmp_joingroup_netif:000000000000003c .L0 
C:\Users\stapi\AppData\Local\Temp\cclCjgQ5.s:973    .text.igmp_joingroup_netif:000000000000003c .L0 
C:\Users\stapi\AppData\Local\Temp\cclCjgQ5.s:977    .text.igmp_joingroup_netif:0000000000000048 .L0 
C:\Users\stapi\AppData\Local\Temp\cclCjgQ5.s:978    .text.igmp_joingroup_netif:0000000000000048 .L0 
C:\Users\stapi\AppData\Local\Temp\cclCjgQ5.s:991    .text.igmp_joingroup_netif:000000000000006c .L0 
C:\Users\stapi\AppData\Local\Temp\cclCjgQ5.s:992    .text.igmp_joingroup_netif:000000000000006c .L0 
C:\Users\stapi\AppData\Local\Temp\cclCjgQ5.s:993    .text.igmp_joingroup_netif:000000000000006c .L0 
C:\Users\stapi\AppData\Local\Temp\cclCjgQ5.s:999    .text.igmp_joingroup_netif:000000000000006e .L0 
C:\Users\stapi\AppData\Local\Temp\cclCjgQ5.s:1003   .text.igmp_joingroup_netif:0000000000000074 .L0 
C:\Users\stapi\AppData\Local\Temp\cclCjgQ5.s:1004   .text.igmp_joingroup_netif:0000000000000074 .L0 
C:\Users\stapi\AppData\Local\Temp\cclCjgQ5.s:1005   .text.igmp_joingroup_netif:0000000000000074 .L0 
C:\Users\stapi\AppData\Local\Temp\cclCjgQ5.s:1006   .text.igmp_joingroup_netif:0000000000000074 .L0 
C:\Users\stapi\AppData\Local\Temp\cclCjgQ5.s:1010   .text.igmp_joingroup_netif:000000000000007a .L0 
C:\Users\stapi\AppData\Local\Temp\cclCjgQ5.s:1011   .text.igmp_joingroup_netif:000000000000007a .L0 
C:\Users\stapi\AppData\Local\Temp\cclCjgQ5.s:1023   .text.igmp_joingroup_netif:000000000000009e .L0 
C:\Users\stapi\AppData\Local\Temp\cclCjgQ5.s:1024   .text.igmp_joingroup_netif:000000000000009e .L0 
C:\Users\stapi\AppData\Local\Temp\cclCjgQ5.s:1025   .text.igmp_joingroup_netif:000000000000009e .L0 
C:\Users\stapi\AppData\Local\Temp\cclCjgQ5.s:1030   .text.igmp_joingroup_netif:00000000000000a2 .L0 
C:\Users\stapi\AppData\Local\Temp\cclCjgQ5.s:1031   .text.igmp_joingroup_netif:00000000000000a2 .L0 
C:\Users\stapi\AppData\Local\Temp\cclCjgQ5.s:1032   .text.igmp_joingroup_netif:00000000000000a2 .L0 
C:\Users\stapi\AppData\Local\Temp\cclCjgQ5.s:1033   .text.igmp_joingroup_netif:00000000000000a2 .L0 
C:\Users\stapi\AppData\Local\Temp\cclCjgQ5.s:1038   .text.igmp_joingroup_netif:00000000000000ac .L0 
C:\Users\stapi\AppData\Local\Temp\cclCjgQ5.s:1039   .text.igmp_joingroup_netif:00000000000000ac .L0 
C:\Users\stapi\AppData\Local\Temp\cclCjgQ5.s:1041   .text.igmp_joingroup_netif:00000000000000ae .L0 
C:\Users\stapi\AppData\Local\Temp\cclCjgQ5.s:1043   .text.igmp_joingroup_netif:00000000000000b0 .L0 
C:\Users\stapi\AppData\Local\Temp\cclCjgQ5.s:1044   .text.igmp_joingroup_netif:00000000000000b0 .L0 
C:\Users\stapi\AppData\Local\Temp\cclCjgQ5.s:1047   .text.igmp_joingroup_netif:00000000000000b6 .L0 
C:\Users\stapi\AppData\Local\Temp\cclCjgQ5.s:1048   .text.igmp_joingroup_netif:00000000000000b6 .L0 
C:\Users\stapi\AppData\Local\Temp\cclCjgQ5.s:1049   .text.igmp_joingroup_netif:00000000000000b6 .L0 
C:\Users\stapi\AppData\Local\Temp\cclCjgQ5.s:1050   .text.igmp_joingroup_netif:00000000000000b6 .L0 
C:\Users\stapi\AppData\Local\Temp\cclCjgQ5.s:1051   .text.igmp_joingroup_netif:00000000000000b6 .L0 
C:\Users\stapi\AppData\Local\Temp\cclCjgQ5.s:1054   .text.igmp_joingroup_netif:00000000000000bc .L0 
C:\Users\stapi\AppData\Local\Temp\cclCjgQ5.s:1056   .text.igmp_joingroup_netif:00000000000000be .L0 
C:\Users\stapi\AppData\Local\Temp\cclCjgQ5.s:1058   .text.igmp_joingroup_netif:00000000000000c0 .L0 
C:\Users\stapi\AppData\Local\Temp\cclCjgQ5.s:1059   .text.igmp_joingroup_netif:00000000000000c0 .L0 
C:\Users\stapi\AppData\Local\Temp\cclCjgQ5.s:1060   .text.igmp_joingroup_netif:00000000000000c0 .L0 
C:\Users\stapi\AppData\Local\Temp\cclCjgQ5.s:1061   .text.igmp_joingroup_netif:00000000000000c0 .L0 
C:\Users\stapi\AppData\Local\Temp\cclCjgQ5.s:1068   .text.igmp_joingroup_netif:00000000000000c8 .L0 
C:\Users\stapi\AppData\Local\Temp\cclCjgQ5.s:1069   .text.igmp_joingroup_netif:00000000000000c8 .L0 
C:\Users\stapi\AppData\Local\Temp\cclCjgQ5.s:1077   .text.igmp_joingroup_netif:00000000000000d6 .L0 
C:\Users\stapi\AppData\Local\Temp\cclCjgQ5.s:1078   .text.igmp_joingroup_netif:00000000000000d6 .L0 
C:\Users\stapi\AppData\Local\Temp\cclCjgQ5.s:1079   .text.igmp_joingroup_netif:00000000000000d6 .L0 
C:\Users\stapi\AppData\Local\Temp\cclCjgQ5.s:1085   .text.igmp_joingroup_netif:00000000000000dc .L0 
C:\Users\stapi\AppData\Local\Temp\cclCjgQ5.s:1086   .text.igmp_joingroup_netif:00000000000000dc .L0 
C:\Users\stapi\AppData\Local\Temp\cclCjgQ5.s:1087   .text.igmp_joingroup_netif:00000000000000dc .L0 
C:\Users\stapi\AppData\Local\Temp\cclCjgQ5.s:1090   .text.igmp_joingroup_netif:00000000000000e0 .L0 
C:\Users\stapi\AppData\Local\Temp\cclCjgQ5.s:1091   .text.igmp_joingroup_netif:00000000000000e0 .L0 
C:\Users\stapi\AppData\Local\Temp\cclCjgQ5.s:1093   .text.igmp_joingroup_netif:00000000000000e4 .L0 
C:\Users\stapi\AppData\Local\Temp\cclCjgQ5.s:1095   .text.igmp_joingroup_netif:00000000000000e6 .L0 
C:\Users\stapi\AppData\Local\Temp\cclCjgQ5.s:1102   .text.igmp_joingroup_netif:00000000000000ec .L0 
C:\Users\stapi\AppData\Local\Temp\cclCjgQ5.s:1103   .text.igmp_joingroup_netif:00000000000000ec .L0 
C:\Users\stapi\AppData\Local\Temp\cclCjgQ5.s:1104   .text.igmp_joingroup_netif:00000000000000f4 .L0 
C:\Users\stapi\AppData\Local\Temp\cclCjgQ5.s:1105   .text.igmp_joingroup_netif:00000000000000f4 .L0 
C:\Users\stapi\AppData\Local\Temp\cclCjgQ5.s:1106   .text.igmp_joingroup_netif:00000000000000f4 .L0 
C:\Users\stapi\AppData\Local\Temp\cclCjgQ5.s:1107   .text.igmp_joingroup_netif:00000000000000f4 .L0 
C:\Users\stapi\AppData\Local\Temp\cclCjgQ5.s:1108   .text.igmp_joingroup_netif:00000000000000f4 .L0 
C:\Users\stapi\AppData\Local\Temp\cclCjgQ5.s:1109   .text.igmp_joingroup_netif:00000000000000f4 .L0 
C:\Users\stapi\AppData\Local\Temp\cclCjgQ5.s:1123   .text.igmp_joingroup:0000000000000000 igmp_joingroup
C:\Users\stapi\AppData\Local\Temp\cclCjgQ5.s:1126   .text.igmp_joingroup:0000000000000000 .L0 
C:\Users\stapi\AppData\Local\Temp\cclCjgQ5.s:1128   .text.igmp_joingroup:0000000000000000 .L0 
C:\Users\stapi\AppData\Local\Temp\cclCjgQ5.s:1129   .text.igmp_joingroup:0000000000000008 .L0 
C:\Users\stapi\AppData\Local\Temp\cclCjgQ5.s:1130   .text.igmp_joingroup:0000000000000008 .L0 
C:\Users\stapi\AppData\Local\Temp\cclCjgQ5.s:1131   .text.igmp_joingroup:0000000000000008 .L0 
C:\Users\stapi\AppData\Local\Temp\cclCjgQ5.s:1132   .text.igmp_joingroup:0000000000000008 .L0 
C:\Users\stapi\AppData\Local\Temp\cclCjgQ5.s:1133   .text.igmp_joingroup:0000000000000008 .L0 
C:\Users\stapi\AppData\Local\Temp\cclCjgQ5.s:1136   .text.igmp_joingroup:0000000000000008 .L0 
C:\Users\stapi\AppData\Local\Temp\cclCjgQ5.s:1137   .text.igmp_joingroup:0000000000000008 .L0 
C:\Users\stapi\AppData\Local\Temp\cclCjgQ5.s:1138   .text.igmp_joingroup:0000000000000008 .L0 
C:\Users\stapi\AppData\Local\Temp\cclCjgQ5.s:1139   .text.igmp_joingroup:0000000000000008 .L0 
C:\Users\stapi\AppData\Local\Temp\cclCjgQ5.s:1140   .text.igmp_joingroup:0000000000000008 .L0 
C:\Users\stapi\AppData\Local\Temp\cclCjgQ5.s:1145   .text.igmp_joingroup:0000000000000016 .L0 
C:\Users\stapi\AppData\Local\Temp\cclCjgQ5.s:1146   .text.igmp_joingroup:0000000000000016 .L0 
C:\Users\stapi\AppData\Local\Temp\cclCjgQ5.s:1159   .text.igmp_joingroup:000000000000003a .L0 
C:\Users\stapi\AppData\Local\Temp\cclCjgQ5.s:1160   .text.igmp_joingroup:000000000000003a .L0 
C:\Users\stapi\AppData\Local\Temp\cclCjgQ5.s:1161   .text.igmp_joingroup:000000000000003a .L0 
C:\Users\stapi\AppData\Local\Temp\cclCjgQ5.s:1165   .text.igmp_joingroup:000000000000003c .L0 
C:\Users\stapi\AppData\Local\Temp\cclCjgQ5.s:1166   .text.igmp_joingroup:000000000000003c .L0 
C:\Users\stapi\AppData\Local\Temp\cclCjgQ5.s:1167   .text.igmp_joingroup:000000000000003c .L0 
C:\Users\stapi\AppData\Local\Temp\cclCjgQ5.s:1168   .text.igmp_joingroup:000000000000003c .L0 
C:\Users\stapi\AppData\Local\Temp\cclCjgQ5.s:1172   .text.igmp_joingroup:0000000000000048 .L0 
C:\Users\stapi\AppData\Local\Temp\cclCjgQ5.s:1173   .text.igmp_joingroup:0000000000000048 .L0 
C:\Users\stapi\AppData\Local\Temp\cclCjgQ5.s:1186   .text.igmp_joingroup:000000000000006c .L0 
C:\Users\stapi\AppData\Local\Temp\cclCjgQ5.s:1187   .text.igmp_joingroup:000000000000006c .L0 
C:\Users\stapi\AppData\Local\Temp\cclCjgQ5.s:1188   .text.igmp_joingroup:000000000000006c .L0 
C:\Users\stapi\AppData\Local\Temp\cclCjgQ5.s:1192   .text.igmp_joingroup:000000000000006e .L0 
C:\Users\stapi\AppData\Local\Temp\cclCjgQ5.s:1197   .text.igmp_joingroup:000000000000007a .L0 
C:\Users\stapi\AppData\Local\Temp\cclCjgQ5.s:1198   .text.igmp_joingroup:000000000000007a .L0 
C:\Users\stapi\AppData\Local\Temp\cclCjgQ5.s:1200   .text.igmp_joingroup:000000000000007a .L0 
C:\Users\stapi\AppData\Local\Temp\cclCjgQ5.s:1201   .text.igmp_joingroup:000000000000007a .L0 
C:\Users\stapi\AppData\Local\Temp\cclCjgQ5.s:1205   .text.igmp_joingroup:000000000000007c .L0 
C:\Users\stapi\AppData\Local\Temp\cclCjgQ5.s:1208   .text.igmp_joingroup:000000000000007e .L0 
C:\Users\stapi\AppData\Local\Temp\cclCjgQ5.s:1209   .text.igmp_joingroup:0000000000000086 .L0 
C:\Users\stapi\AppData\Local\Temp\cclCjgQ5.s:1210   .text.igmp_joingroup:0000000000000086 .L0 
C:\Users\stapi\AppData\Local\Temp\cclCjgQ5.s:1211   .text.igmp_joingroup:0000000000000086 .L0 
C:\Users\stapi\AppData\Local\Temp\cclCjgQ5.s:1212   .text.igmp_joingroup:0000000000000086 .L0 
C:\Users\stapi\AppData\Local\Temp\cclCjgQ5.s:1213   .text.igmp_joingroup:0000000000000086 .L0 
C:\Users\stapi\AppData\Local\Temp\cclCjgQ5.s:1214   .text.igmp_joingroup:0000000000000086 .L0 
C:\Users\stapi\AppData\Local\Temp\cclCjgQ5.s:1216   .text.igmp_joingroup:0000000000000086 .L0 
C:\Users\stapi\AppData\Local\Temp\cclCjgQ5.s:1218   .text.igmp_joingroup:0000000000000086 .L0 
C:\Users\stapi\AppData\Local\Temp\cclCjgQ5.s:1219   .text.igmp_joingroup:0000000000000086 .L0 
C:\Users\stapi\AppData\Local\Temp\cclCjgQ5.s:1223   .text.igmp_joingroup:0000000000000090 .L0 
C:\Users\stapi\AppData\Local\Temp\cclCjgQ5.s:1225   .text.igmp_joingroup:0000000000000092 .L0 
C:\Users\stapi\AppData\Local\Temp\cclCjgQ5.s:1228   .text.igmp_joingroup:0000000000000096 .L0 
C:\Users\stapi\AppData\Local\Temp\cclCjgQ5.s:1232   .text.igmp_joingroup:000000000000009c .L0 
C:\Users\stapi\AppData\Local\Temp\cclCjgQ5.s:1233   .text.igmp_joingroup:000000000000009c .L0 
C:\Users\stapi\AppData\Local\Temp\cclCjgQ5.s:1239   .text.igmp_joingroup:00000000000000a8 .L0 
C:\Users\stapi\AppData\Local\Temp\cclCjgQ5.s:1240   .text.igmp_joingroup:00000000000000a8 .L0 
C:\Users\stapi\AppData\Local\Temp\cclCjgQ5.s:1243   .text.igmp_joingroup:00000000000000aa .L0 
C:\Users\stapi\AppData\Local\Temp\cclCjgQ5.s:1246   .text.igmp_joingroup:00000000000000ae .L0 
C:\Users\stapi\AppData\Local\Temp\cclCjgQ5.s:1263   .text.igmp_leavegroup_netif:0000000000000000 igmp_leavegroup_netif
C:\Users\stapi\AppData\Local\Temp\cclCjgQ5.s:1266   .text.igmp_leavegroup_netif:0000000000000000 .L0 
C:\Users\stapi\AppData\Local\Temp\cclCjgQ5.s:1268   .text.igmp_leavegroup_netif:0000000000000000 .L0 
C:\Users\stapi\AppData\Local\Temp\cclCjgQ5.s:1269   .text.igmp_leavegroup_netif:0000000000000008 .L0 
C:\Users\stapi\AppData\Local\Temp\cclCjgQ5.s:1270   .text.igmp_leavegroup_netif:0000000000000008 .L0 
C:\Users\stapi\AppData\Local\Temp\cclCjgQ5.s:1271   .text.igmp_leavegroup_netif:0000000000000008 .L0 
C:\Users\stapi\AppData\Local\Temp\cclCjgQ5.s:1272   .text.igmp_leavegroup_netif:0000000000000008 .L0 
C:\Users\stapi\AppData\Local\Temp\cclCjgQ5.s:1273   .text.igmp_leavegroup_netif:0000000000000008 .L0 
C:\Users\stapi\AppData\Local\Temp\cclCjgQ5.s:1275   .text.igmp_leavegroup_netif:0000000000000008 .L0 
C:\Users\stapi\AppData\Local\Temp\cclCjgQ5.s:1276   .text.igmp_leavegroup_netif:0000000000000008 .L0 
C:\Users\stapi\AppData\Local\Temp\cclCjgQ5.s:1277   .text.igmp_leavegroup_netif:0000000000000008 .L0 
C:\Users\stapi\AppData\Local\Temp\cclCjgQ5.s:1278   .text.igmp_leavegroup_netif:0000000000000008 .L0 
C:\Users\stapi\AppData\Local\Temp\cclCjgQ5.s:1283   .text.igmp_leavegroup_netif:0000000000000016 .L0 
C:\Users\stapi\AppData\Local\Temp\cclCjgQ5.s:1284   .text.igmp_leavegroup_netif:0000000000000016 .L0 
C:\Users\stapi\AppData\Local\Temp\cclCjgQ5.s:1297   .text.igmp_leavegroup_netif:000000000000003a .L0 
C:\Users\stapi\AppData\Local\Temp\cclCjgQ5.s:1298   .text.igmp_leavegroup_netif:000000000000003a .L0 
C:\Users\stapi\AppData\Local\Temp\cclCjgQ5.s:1299   .text.igmp_leavegroup_netif:000000000000003a .L0 
C:\Users\stapi\AppData\Local\Temp\cclCjgQ5.s:1303   .text.igmp_leavegroup_netif:000000000000003c .L0 
C:\Users\stapi\AppData\Local\Temp\cclCjgQ5.s:1304   .text.igmp_leavegroup_netif:000000000000003c .L0 
C:\Users\stapi\AppData\Local\Temp\cclCjgQ5.s:1305   .text.igmp_leavegroup_netif:000000000000003c .L0 
C:\Users\stapi\AppData\Local\Temp\cclCjgQ5.s:1306   .text.igmp_leavegroup_netif:000000000000003c .L0 
C:\Users\stapi\AppData\Local\Temp\cclCjgQ5.s:1310   .text.igmp_leavegroup_netif:0000000000000048 .L0 
C:\Users\stapi\AppData\Local\Temp\cclCjgQ5.s:1311   .text.igmp_leavegroup_netif:0000000000000048 .L0 
C:\Users\stapi\AppData\Local\Temp\cclCjgQ5.s:1324   .text.igmp_leavegroup_netif:000000000000006c .L0 
C:\Users\stapi\AppData\Local\Temp\cclCjgQ5.s:1325   .text.igmp_leavegroup_netif:000000000000006c .L0 
C:\Users\stapi\AppData\Local\Temp\cclCjgQ5.s:1326   .text.igmp_leavegroup_netif:000000000000006c .L0 
C:\Users\stapi\AppData\Local\Temp\cclCjgQ5.s:1332   .text.igmp_leavegroup_netif:000000000000006e .L0 
C:\Users\stapi\AppData\Local\Temp\cclCjgQ5.s:1336   .text.igmp_leavegroup_netif:0000000000000074 .L0 
C:\Users\stapi\AppData\Local\Temp\cclCjgQ5.s:1337   .text.igmp_leavegroup_netif:0000000000000074 .L0 
C:\Users\stapi\AppData\Local\Temp\cclCjgQ5.s:1338   .text.igmp_leavegroup_netif:0000000000000074 .L0 
C:\Users\stapi\AppData\Local\Temp\cclCjgQ5.s:1339   .text.igmp_leavegroup_netif:0000000000000074 .L0 
C:\Users\stapi\AppData\Local\Temp\cclCjgQ5.s:1343   .text.igmp_leavegroup_netif:000000000000007a .L0 
C:\Users\stapi\AppData\Local\Temp\cclCjgQ5.s:1344   .text.igmp_leavegroup_netif:000000000000007a .L0 
C:\Users\stapi\AppData\Local\Temp\cclCjgQ5.s:1356   .text.igmp_leavegroup_netif:000000000000009e .L0 
C:\Users\stapi\AppData\Local\Temp\cclCjgQ5.s:1357   .text.igmp_leavegroup_netif:000000000000009e .L0 
C:\Users\stapi\AppData\Local\Temp\cclCjgQ5.s:1358   .text.igmp_leavegroup_netif:000000000000009e .L0 
C:\Users\stapi\AppData\Local\Temp\cclCjgQ5.s:1363   .text.igmp_leavegroup_netif:00000000000000a2 .L0 
C:\Users\stapi\AppData\Local\Temp\cclCjgQ5.s:1364   .text.igmp_leavegroup_netif:00000000000000a2 .L0 
C:\Users\stapi\AppData\Local\Temp\cclCjgQ5.s:1365   .text.igmp_leavegroup_netif:00000000000000a2 .L0 
C:\Users\stapi\AppData\Local\Temp\cclCjgQ5.s:1366   .text.igmp_leavegroup_netif:00000000000000a2 .L0 
C:\Users\stapi\AppData\Local\Temp\cclCjgQ5.s:1371   .text.igmp_leavegroup_netif:00000000000000ac .L0 
C:\Users\stapi\AppData\Local\Temp\cclCjgQ5.s:1372   .text.igmp_leavegroup_netif:00000000000000ac .L0 
C:\Users\stapi\AppData\Local\Temp\cclCjgQ5.s:1374   .text.igmp_leavegroup_netif:00000000000000ae .L0 
C:\Users\stapi\AppData\Local\Temp\cclCjgQ5.s:1376   .text.igmp_leavegroup_netif:00000000000000b0 .L0 
C:\Users\stapi\AppData\Local\Temp\cclCjgQ5.s:1377   .text.igmp_leavegroup_netif:00000000000000b0 .L0 
C:\Users\stapi\AppData\Local\Temp\cclCjgQ5.s:1378   .text.igmp_leavegroup_netif:00000000000000b0 .L0 
C:\Users\stapi\AppData\Local\Temp\cclCjgQ5.s:1379   .text.igmp_leavegroup_netif:00000000000000b0 .L0 
C:\Users\stapi\AppData\Local\Temp\cclCjgQ5.s:1380   .text.igmp_leavegroup_netif:00000000000000b0 .L0 
C:\Users\stapi\AppData\Local\Temp\cclCjgQ5.s:1382   .text.igmp_leavegroup_netif:00000000000000b4 .L0 
C:\Users\stapi\AppData\Local\Temp\cclCjgQ5.s:1385   .text.igmp_leavegroup_netif:00000000000000ba .L0 
C:\Users\stapi\AppData\Local\Temp\cclCjgQ5.s:1390   .text.igmp_leavegroup_netif:00000000000000bc .L0 
C:\Users\stapi\AppData\Local\Temp\cclCjgQ5.s:1391   .text.igmp_leavegroup_netif:00000000000000bc .L0 
C:\Users\stapi\AppData\Local\Temp\cclCjgQ5.s:1393   .text.igmp_leavegroup_netif:00000000000000bc .L0 
C:\Users\stapi\AppData\Local\Temp\cclCjgQ5.s:1394   .text.igmp_leavegroup_netif:00000000000000bc .L0 
C:\Users\stapi\AppData\Local\Temp\cclCjgQ5.s:1395   .text.igmp_leavegroup_netif:00000000000000bc .L0 
C:\Users\stapi\AppData\Local\Temp\cclCjgQ5.s:1397   .text.igmp_leavegroup_netif:00000000000000be .L0 
C:\Users\stapi\AppData\Local\Temp\cclCjgQ5.s:1398   .text.igmp_leavegroup_netif:00000000000000be .L0 
C:\Users\stapi\AppData\Local\Temp\cclCjgQ5.s:1400   .text.igmp_leavegroup_netif:00000000000000c0 .L0 
C:\Users\stapi\AppData\Local\Temp\cclCjgQ5.s:1402   .text.igmp_leavegroup_netif:00000000000000c4 .L0 
C:\Users\stapi\AppData\Local\Temp\cclCjgQ5.s:1403   .text.igmp_leavegroup_netif:00000000000000c4 .L0 
C:\Users\stapi\AppData\Local\Temp\cclCjgQ5.s:1405   .text.igmp_leavegroup_netif:00000000000000c6 .L0 
C:\Users\stapi\AppData\Local\Temp\cclCjgQ5.s:1407   .text.igmp_leavegroup_netif:00000000000000c8 .L0 
C:\Users\stapi\AppData\Local\Temp\cclCjgQ5.s:1410   .text.igmp_leavegroup_netif:00000000000000c8 .L0 
C:\Users\stapi\AppData\Local\Temp\cclCjgQ5.s:1413   .text.igmp_leavegroup_netif:00000000000000c8 .L0 
C:\Users\stapi\AppData\Local\Temp\cclCjgQ5.s:1414   .text.igmp_leavegroup_netif:00000000000000c8 .L0 
C:\Users\stapi\AppData\Local\Temp\cclCjgQ5.s:1415   .text.igmp_leavegroup_netif:00000000000000c8 .L0 
C:\Users\stapi\AppData\Local\Temp\cclCjgQ5.s:1418   .text.igmp_leavegroup_netif:00000000000000ce .L0 
C:\Users\stapi\AppData\Local\Temp\cclCjgQ5.s:1419   .text.igmp_leavegroup_netif:00000000000000ce .L0 
C:\Users\stapi\AppData\Local\Temp\cclCjgQ5.s:1420   .text.igmp_leavegroup_netif:00000000000000ce .L0 
C:\Users\stapi\AppData\Local\Temp\cclCjgQ5.s:1427   .text.igmp_leavegroup_netif:00000000000000dc .L0 
C:\Users\stapi\AppData\Local\Temp\cclCjgQ5.s:1428   .text.igmp_leavegroup_netif:00000000000000dc .L0 
C:\Users\stapi\AppData\Local\Temp\cclCjgQ5.s:1430   .text.igmp_leavegroup_netif:00000000000000de .L0 
C:\Users\stapi\AppData\Local\Temp\cclCjgQ5.s:1432   .text.igmp_leavegroup_netif:00000000000000e0 .L0 
C:\Users\stapi\AppData\Local\Temp\cclCjgQ5.s:1433   .text.igmp_leavegroup_netif:00000000000000e0 .L0 
C:\Users\stapi\AppData\Local\Temp\cclCjgQ5.s:1434   .text.igmp_leavegroup_netif:00000000000000e0 .L0 
C:\Users\stapi\AppData\Local\Temp\cclCjgQ5.s:1435   .text.igmp_leavegroup_netif:00000000000000e0 .L0 
C:\Users\stapi\AppData\Local\Temp\cclCjgQ5.s:1442   .text.igmp_leavegroup_netif:00000000000000e8 .L0 
C:\Users\stapi\AppData\Local\Temp\cclCjgQ5.s:1448   .text.igmp_leavegroup_netif:00000000000000f4 .L0 
C:\Users\stapi\AppData\Local\Temp\cclCjgQ5.s:1454   .text.igmp_leavegroup_netif:00000000000000f6 .L0 
C:\Users\stapi\AppData\Local\Temp\cclCjgQ5.s:1455   .text.igmp_leavegroup_netif:00000000000000fe .L0 
C:\Users\stapi\AppData\Local\Temp\cclCjgQ5.s:1456   .text.igmp_leavegroup_netif:00000000000000fe .L0 
C:\Users\stapi\AppData\Local\Temp\cclCjgQ5.s:1457   .text.igmp_leavegroup_netif:00000000000000fe .L0 
C:\Users\stapi\AppData\Local\Temp\cclCjgQ5.s:1458   .text.igmp_leavegroup_netif:00000000000000fe .L0 
C:\Users\stapi\AppData\Local\Temp\cclCjgQ5.s:1459   .text.igmp_leavegroup_netif:00000000000000fe .L0 
C:\Users\stapi\AppData\Local\Temp\cclCjgQ5.s:1460   .text.igmp_leavegroup_netif:00000000000000fe .L0 
C:\Users\stapi\AppData\Local\Temp\cclCjgQ5.s:1463   .text.igmp_leavegroup_netif:00000000000000fe .L0 
C:\Users\stapi\AppData\Local\Temp\cclCjgQ5.s:1476   .text.igmp_leavegroup_netif:0000000000000102 .L0 
C:\Users\stapi\AppData\Local\Temp\cclCjgQ5.s:1477   .text.igmp_leavegroup_netif:0000000000000102 .L0 
C:\Users\stapi\AppData\Local\Temp\cclCjgQ5.s:1482   .text.igmp_leavegroup_netif:000000000000010a .L0 
C:\Users\stapi\AppData\Local\Temp\cclCjgQ5.s:1496   .text.igmp_leavegroup:0000000000000000 igmp_leavegroup
C:\Users\stapi\AppData\Local\Temp\cclCjgQ5.s:1499   .text.igmp_leavegroup:0000000000000000 .L0 
C:\Users\stapi\AppData\Local\Temp\cclCjgQ5.s:1501   .text.igmp_leavegroup:0000000000000000 .L0 
C:\Users\stapi\AppData\Local\Temp\cclCjgQ5.s:1502   .text.igmp_leavegroup:0000000000000008 .L0 
C:\Users\stapi\AppData\Local\Temp\cclCjgQ5.s:1503   .text.igmp_leavegroup:0000000000000008 .L0 
C:\Users\stapi\AppData\Local\Temp\cclCjgQ5.s:1504   .text.igmp_leavegroup:0000000000000008 .L0 
C:\Users\stapi\AppData\Local\Temp\cclCjgQ5.s:1505   .text.igmp_leavegroup:0000000000000008 .L0 
C:\Users\stapi\AppData\Local\Temp\cclCjgQ5.s:1506   .text.igmp_leavegroup:0000000000000008 .L0 
C:\Users\stapi\AppData\Local\Temp\cclCjgQ5.s:1507   .text.igmp_leavegroup:0000000000000008 .L0 
C:\Users\stapi\AppData\Local\Temp\cclCjgQ5.s:1510   .text.igmp_leavegroup:0000000000000008 .L0 
C:\Users\stapi\AppData\Local\Temp\cclCjgQ5.s:1511   .text.igmp_leavegroup:0000000000000008 .L0 
C:\Users\stapi\AppData\Local\Temp\cclCjgQ5.s:1512   .text.igmp_leavegroup:0000000000000008 .L0 
C:\Users\stapi\AppData\Local\Temp\cclCjgQ5.s:1513   .text.igmp_leavegroup:0000000000000008 .L0 
C:\Users\stapi\AppData\Local\Temp\cclCjgQ5.s:1514   .text.igmp_leavegroup:0000000000000008 .L0 
C:\Users\stapi\AppData\Local\Temp\cclCjgQ5.s:1519   .text.igmp_leavegroup:0000000000000016 .L0 
C:\Users\stapi\AppData\Local\Temp\cclCjgQ5.s:1520   .text.igmp_leavegroup:0000000000000016 .L0 
C:\Users\stapi\AppData\Local\Temp\cclCjgQ5.s:1533   .text.igmp_leavegroup:000000000000003a .L0 
C:\Users\stapi\AppData\Local\Temp\cclCjgQ5.s:1534   .text.igmp_leavegroup:000000000000003a .L0 
C:\Users\stapi\AppData\Local\Temp\cclCjgQ5.s:1535   .text.igmp_leavegroup:000000000000003a .L0 
C:\Users\stapi\AppData\Local\Temp\cclCjgQ5.s:1539   .text.igmp_leavegroup:000000000000003c .L0 
C:\Users\stapi\AppData\Local\Temp\cclCjgQ5.s:1540   .text.igmp_leavegroup:000000000000003c .L0 
C:\Users\stapi\AppData\Local\Temp\cclCjgQ5.s:1541   .text.igmp_leavegroup:000000000000003c .L0 
C:\Users\stapi\AppData\Local\Temp\cclCjgQ5.s:1542   .text.igmp_leavegroup:000000000000003c .L0 
C:\Users\stapi\AppData\Local\Temp\cclCjgQ5.s:1546   .text.igmp_leavegroup:0000000000000048 .L0 
C:\Users\stapi\AppData\Local\Temp\cclCjgQ5.s:1547   .text.igmp_leavegroup:0000000000000048 .L0 
C:\Users\stapi\AppData\Local\Temp\cclCjgQ5.s:1560   .text.igmp_leavegroup:000000000000006c .L0 
C:\Users\stapi\AppData\Local\Temp\cclCjgQ5.s:1561   .text.igmp_leavegroup:000000000000006c .L0 
C:\Users\stapi\AppData\Local\Temp\cclCjgQ5.s:1562   .text.igmp_leavegroup:000000000000006c .L0 
C:\Users\stapi\AppData\Local\Temp\cclCjgQ5.s:1566   .text.igmp_leavegroup:000000000000006e .L0 
C:\Users\stapi\AppData\Local\Temp\cclCjgQ5.s:1571   .text.igmp_leavegroup:000000000000007a .L0 
C:\Users\stapi\AppData\Local\Temp\cclCjgQ5.s:1572   .text.igmp_leavegroup:000000000000007a .L0 
C:\Users\stapi\AppData\Local\Temp\cclCjgQ5.s:1574   .text.igmp_leavegroup:000000000000007a .L0 
C:\Users\stapi\AppData\Local\Temp\cclCjgQ5.s:1575   .text.igmp_leavegroup:000000000000007a .L0 
C:\Users\stapi\AppData\Local\Temp\cclCjgQ5.s:1579   .text.igmp_leavegroup:000000000000007c .L0 
C:\Users\stapi\AppData\Local\Temp\cclCjgQ5.s:1581   .text.igmp_leavegroup:000000000000007e .L0 
C:\Users\stapi\AppData\Local\Temp\cclCjgQ5.s:1582   .text.igmp_leavegroup:000000000000007e .L0 
C:\Users\stapi\AppData\Local\Temp\cclCjgQ5.s:1584   .text.igmp_leavegroup:0000000000000088 .L0 
C:\Users\stapi\AppData\Local\Temp\cclCjgQ5.s:1585   .text.igmp_leavegroup:0000000000000088 .L0 
C:\Users\stapi\AppData\Local\Temp\cclCjgQ5.s:1586   .text.igmp_leavegroup:0000000000000088 .L0 
C:\Users\stapi\AppData\Local\Temp\cclCjgQ5.s:1587   .text.igmp_leavegroup:0000000000000088 .L0 
C:\Users\stapi\AppData\Local\Temp\cclCjgQ5.s:1588   .text.igmp_leavegroup:0000000000000088 .L0 
C:\Users\stapi\AppData\Local\Temp\cclCjgQ5.s:1589   .text.igmp_leavegroup:0000000000000088 .L0 
C:\Users\stapi\AppData\Local\Temp\cclCjgQ5.s:1590   .text.igmp_leavegroup:0000000000000088 .L0 
C:\Users\stapi\AppData\Local\Temp\cclCjgQ5.s:1592   .text.igmp_leavegroup:0000000000000088 .L0 
C:\Users\stapi\AppData\Local\Temp\cclCjgQ5.s:1594   .text.igmp_leavegroup:0000000000000088 .L0 
C:\Users\stapi\AppData\Local\Temp\cclCjgQ5.s:1595   .text.igmp_leavegroup:0000000000000088 .L0 
C:\Users\stapi\AppData\Local\Temp\cclCjgQ5.s:1599   .text.igmp_leavegroup:0000000000000092 .L0 
C:\Users\stapi\AppData\Local\Temp\cclCjgQ5.s:1601   .text.igmp_leavegroup:0000000000000094 .L0 
C:\Users\stapi\AppData\Local\Temp\cclCjgQ5.s:1604   .text.igmp_leavegroup:0000000000000098 .L0 
C:\Users\stapi\AppData\Local\Temp\cclCjgQ5.s:1609   .text.igmp_leavegroup:000000000000009e .L0 
C:\Users\stapi\AppData\Local\Temp\cclCjgQ5.s:1610   .text.igmp_leavegroup:000000000000009e .L0 
C:\Users\stapi\AppData\Local\Temp\cclCjgQ5.s:1615   .text.igmp_leavegroup:00000000000000aa .L0 
C:\Users\stapi\AppData\Local\Temp\cclCjgQ5.s:1616   .text.igmp_leavegroup:00000000000000aa .L0 
C:\Users\stapi\AppData\Local\Temp\cclCjgQ5.s:1618   .text.igmp_leavegroup:00000000000000ae .L0 
C:\Users\stapi\AppData\Local\Temp\cclCjgQ5.s:1623   .text.igmp_leavegroup:00000000000000b0 .L0 
C:\Users\stapi\AppData\Local\Temp\cclCjgQ5.s:1626   .text.igmp_leavegroup:00000000000000b4 .L0 
C:\Users\stapi\AppData\Local\Temp\cclCjgQ5.s:1633   .text.igmp_tmr:0000000000000000 igmp_tmr
C:\Users\stapi\AppData\Local\Temp\cclCjgQ5.s:1636   .text.igmp_tmr:0000000000000000 .L0 
C:\Users\stapi\AppData\Local\Temp\cclCjgQ5.s:1637   .text.igmp_tmr:0000000000000000 .L0 
C:\Users\stapi\AppData\Local\Temp\cclCjgQ5.s:1638   .text.igmp_tmr:0000000000000008 .L0 
C:\Users\stapi\AppData\Local\Temp\cclCjgQ5.s:1639   .text.igmp_tmr:0000000000000008 .L0 
C:\Users\stapi\AppData\Local\Temp\cclCjgQ5.s:1640   .text.igmp_tmr:0000000000000008 .L0 
C:\Users\stapi\AppData\Local\Temp\cclCjgQ5.s:1641   .text.igmp_tmr:0000000000000008 .L0 
C:\Users\stapi\AppData\Local\Temp\cclCjgQ5.s:1642   .text.igmp_tmr:0000000000000008 .L0 
C:\Users\stapi\AppData\Local\Temp\cclCjgQ5.s:1643   .text.igmp_tmr:0000000000000008 .L0 
C:\Users\stapi\AppData\Local\Temp\cclCjgQ5.s:1644   .text.igmp_tmr:0000000000000008 .L0 
C:\Users\stapi\AppData\Local\Temp\cclCjgQ5.s:1646   .text.igmp_tmr:0000000000000008 .L0 
C:\Users\stapi\AppData\Local\Temp\cclCjgQ5.s:1647   .text.igmp_tmr:0000000000000008 .L0 
C:\Users\stapi\AppData\Local\Temp\cclCjgQ5.s:1654   .text.igmp_tmr:0000000000000010 .L0 
C:\Users\stapi\AppData\Local\Temp\cclCjgQ5.s:1656   .text.igmp_tmr:0000000000000012 .L0 
C:\Users\stapi\AppData\Local\Temp\cclCjgQ5.s:1658   .text.igmp_tmr:0000000000000016 .L0 
C:\Users\stapi\AppData\Local\Temp\cclCjgQ5.s:1664   .text.igmp_tmr:0000000000000018 .L0 
C:\Users\stapi\AppData\Local\Temp\cclCjgQ5.s:1666   .text.igmp_tmr:000000000000001a .L0 
C:\Users\stapi\AppData\Local\Temp\cclCjgQ5.s:1667   .text.igmp_tmr:0000000000000022 .L0 
C:\Users\stapi\AppData\Local\Temp\cclCjgQ5.s:1668   .text.igmp_tmr:0000000000000022 .L0 
C:\Users\stapi\AppData\Local\Temp\cclCjgQ5.s:1669   .text.igmp_tmr:0000000000000022 .L0 
C:\Users\stapi\AppData\Local\Temp\cclCjgQ5.s:1670   .text.igmp_tmr:0000000000000022 .L0 
C:\Users\stapi\AppData\Local\Temp\cclCjgQ5.s:1671   .text.igmp_tmr:0000000000000022 .L0 
C:\Users\stapi\AppData\Local\Temp\cclCjgQ5.s:1672   .text.igmp_tmr:0000000000000022 .L0 
C:\Users\stapi\AppData\Local\Temp\cclCjgQ5.s:1673   .text.igmp_tmr:0000000000000022 .L0 
C:\Users\stapi\AppData\Local\Temp\cclCjgQ5.s:1674   .text.igmp_tmr:0000000000000022 .L0 
C:\Users\stapi\AppData\Local\Temp\cclCjgQ5.s:1676   .text.igmp_tmr:0000000000000022 .L0 
C:\Users\stapi\AppData\Local\Temp\cclCjgQ5.s:1679   .text.igmp_tmr:0000000000000022 .L0 
C:\Users\stapi\AppData\Local\Temp\cclCjgQ5.s:1680   .text.igmp_tmr:0000000000000022 .L0 
C:\Users\stapi\AppData\Local\Temp\cclCjgQ5.s:1684   .text.igmp_tmr:0000000000000024 .L0 
C:\Users\stapi\AppData\Local\Temp\cclCjgQ5.s:1685   .text.igmp_tmr:0000000000000024 .L0 
C:\Users\stapi\AppData\Local\Temp\cclCjgQ5.s:1688   .text.igmp_tmr:0000000000000026 .L0 
C:\Users\stapi\AppData\Local\Temp\cclCjgQ5.s:1694   .text.igmp_tmr:000000000000002a .L0 
C:\Users\stapi\AppData\Local\Temp\cclCjgQ5.s:1695   .text.igmp_tmr:000000000000002a .L0 
C:\Users\stapi\AppData\Local\Temp\cclCjgQ5.s:1697   .text.igmp_tmr:000000000000002e .L0 
C:\Users\stapi\AppData\Local\Temp\cclCjgQ5.s:1699   .text.igmp_tmr:0000000000000030 .L0 
C:\Users\stapi\AppData\Local\Temp\cclCjgQ5.s:1700   .text.igmp_tmr:0000000000000030 .L0 
C:\Users\stapi\AppData\Local\Temp\cclCjgQ5.s:1704   .text.igmp_tmr:000000000000003a .L0 
C:\Users\stapi\AppData\Local\Temp\cclCjgQ5.s:1705   .text.igmp_tmr:000000000000003a .L0 
C:\Users\stapi\AppData\Local\Temp\cclCjgQ5.s:1710   .text.igmp_tmr:000000000000003c .L0 
C:\Users\stapi\AppData\Local\Temp\cclCjgQ5.s:1711   .text.igmp_tmr:000000000000003c .L0 
C:\Users\stapi\AppData\Local\Temp\cclCjgQ5.s:1712   .text.igmp_tmr:000000000000003c .L0 
C:\Users\stapi\AppData\Local\Temp\cclCjgQ5.s:1715   .text.igmp_tmr:0000000000000044 .L0 
C:\Users\stapi\AppData\Local\Temp\cclCjgQ5.s:1719   .text.igmp_tmr:000000000000004e .L0 
C:\Users\stapi\AppData\Local\Temp\cclCjgQ5.s:1720   .text.igmp_tmr:000000000000004e .L0 
C:\Users\stapi\AppData\Local\Temp\cclCjgQ5.s:1721   .text.igmp_tmr:000000000000004e .L0 
C:\Users\stapi\AppData\Local\Temp\cclCjgQ5.s:1722   .text.igmp_tmr:000000000000004e .L0 
C:\Users\stapi\AppData\Local\Temp\cclCjgQ5.s:1723   .text.igmp_tmr:000000000000004e .L0 
C:\Users\stapi\AppData\Local\Temp\cclCjgQ5.s:1725   .text.igmp_tmr:0000000000000052 .L0 
C:\Users\stapi\AppData\Local\Temp\cclCjgQ5.s:1726   .text.igmp_tmr:0000000000000052 .L0 
C:\Users\stapi\AppData\Local\Temp\cclCjgQ5.s:1735   .text.igmp_tmr:0000000000000060 .L0 
C:\Users\stapi\AppData\Local\Temp\cclCjgQ5.s:1736   .text.igmp_tmr:0000000000000060 .L0 
C:\Users\stapi\AppData\Local\Temp\cclCjgQ5.s:1740   .text.igmp_tmr:0000000000000064 .L0 
C:\Users\stapi\AppData\Local\Temp\cclCjgQ5.s:1745   .sbss.allrouters:0000000000000000 .LANCHOR0
C:\Users\stapi\AppData\Local\Temp\cclCjgQ5.s:1748   .sbss.allrouters:0000000000000000 allrouters
C:\Users\stapi\AppData\Local\Temp\cclCjgQ5.s:1752   .sbss.allsystems:0000000000000000 .LANCHOR1
C:\Users\stapi\AppData\Local\Temp\cclCjgQ5.s:1755   .sbss.allsystems:0000000000000000 allsystems
C:\Users\stapi\AppData\Local\Temp\cclCjgQ5.s:95     .text.igmp_delaying_member:0000000000000054 .L0 
C:\Users\stapi\AppData\Local\Temp\cclCjgQ5.s:307    .text.igmp_send:0000000000000114 .L0 
C:\Users\stapi\AppData\Local\Temp\cclCjgQ5.s:331    .text.igmp_init:0000000000000022 .L0 
C:\Users\stapi\AppData\Local\Temp\cclCjgQ5.s:405    .text.igmp_stop:000000000000003e .L0 
C:\Users\stapi\AppData\Local\Temp\cclCjgQ5.s:461    .text.igmp_report_groups:000000000000002a .L0 
C:\Users\stapi\AppData\Local\Temp\cclCjgQ5.s:495    .text.igmp_lookfor_group:0000000000000012 .L0 
C:\Users\stapi\AppData\Local\Temp\cclCjgQ5.s:641    .text.igmp_lookup_group:00000000000000b2 .L0 
C:\Users\stapi\AppData\Local\Temp\cclCjgQ5.s:715    .text.igmp_start:000000000000004a .L0 
C:\Users\stapi\AppData\Local\Temp\cclCjgQ5.s:916    .text.igmp_input:00000000000000ea .L0 
C:\Users\stapi\AppData\Local\Temp\cclCjgQ5.s:1112   .text.igmp_joingroup_netif:00000000000000f4 .L0 
C:\Users\stapi\AppData\Local\Temp\cclCjgQ5.s:1249   .text.igmp_joingroup:00000000000000ae .L0 
C:\Users\stapi\AppData\Local\Temp\cclCjgQ5.s:1485   .text.igmp_leavegroup_netif:000000000000010a .L0 
C:\Users\stapi\AppData\Local\Temp\cclCjgQ5.s:1629   .text.igmp_leavegroup:00000000000000b4 .L0 
C:\Users\stapi\AppData\Local\Temp\cclCjgQ5.s:1743   .text.igmp_tmr:0000000000000064 .L0 
                     .debug_frame:0000000000000000 .L0 
C:\Users\stapi\AppData\Local\Temp\cclCjgQ5.s:42     .text.igmp_delaying_member:0000000000000026 .L2
C:\Users\stapi\AppData\Local\Temp\cclCjgQ5.s:65     .text.igmp_delaying_member:0000000000000038 .L1
C:\Users\stapi\AppData\Local\Temp\cclCjgQ5.s:74     .text.igmp_delaying_member:0000000000000040 .L4
C:\Users\stapi\AppData\Local\Temp\cclCjgQ5.s:52     .text.igmp_delaying_member:000000000000002c .L6
C:\Users\stapi\AppData\Local\Temp\cclCjgQ5.s:57     .text.igmp_delaying_member:0000000000000032 .L5
C:\Users\stapi\AppData\Local\Temp\cclCjgQ5.s:97     .rodata.igmp_send.str1.4:0000000000000000 .LC0
C:\Users\stapi\AppData\Local\Temp\cclCjgQ5.s:100    .rodata.igmp_send.str1.4:0000000000000090 .LC1
C:\Users\stapi\AppData\Local\Temp\cclCjgQ5.s:103    .rodata.igmp_send.str1.4:00000000000000cc .LC2
C:\Users\stapi\AppData\Local\Temp\cclCjgQ5.s:274    .text.igmp_send:00000000000000f0 .L14
C:\Users\stapi\AppData\Local\Temp\cclCjgQ5.s:181    .text.igmp_send:0000000000000060 .L16
C:\Users\stapi\AppData\Local\Temp\cclCjgQ5.s:175    .text.igmp_send:000000000000005e .L17
C:\Users\stapi\AppData\Local\Temp\cclCjgQ5.s:289    .text.igmp_send:00000000000000fa .L18
C:\Users\stapi\AppData\Local\Temp\cclCjgQ5.s:217    .text.igmp_send:000000000000009a .L19
C:\Users\stapi\AppData\Local\Temp\cclCjgQ5.s:370    .text.igmp_stop:000000000000001c .L28
C:\Users\stapi\AppData\Local\Temp\cclCjgQ5.s:391    .text.igmp_stop:000000000000002e .L27
C:\Users\stapi\AppData\Local\Temp\cclCjgQ5.s:357    .text.igmp_stop:0000000000000010 .L26
C:\Users\stapi\AppData\Local\Temp\cclCjgQ5.s:453    .text.igmp_report_groups:0000000000000028 .L39
C:\Users\stapi\AppData\Local\Temp\cclCjgQ5.s:440    .text.igmp_report_groups:0000000000000018 .L36
C:\Users\stapi\AppData\Local\Temp\cclCjgQ5.s:431    .text.igmp_report_groups:000000000000000e .L35
C:\Users\stapi\AppData\Local\Temp\cclCjgQ5.s:481    .text.igmp_lookfor_group:0000000000000006 .L45
C:\Users\stapi\AppData\Local\Temp\cclCjgQ5.s:478    .text.igmp_lookfor_group:0000000000000004 .L42
C:\Users\stapi\AppData\Local\Temp\cclCjgQ5.s:475    .text.igmp_lookfor_group:0000000000000002 .L43
C:\Users\stapi\AppData\Local\Temp\cclCjgQ5.s:497    .rodata.igmp_lookup_group.str1.4:0000000000000000 .LC3
C:\Users\stapi\AppData\Local\Temp\cclCjgQ5.s:500    .rodata.igmp_lookup_group.str1.4:0000000000000034 .LC4
C:\Users\stapi\AppData\Local\Temp\cclCjgQ5.s:594    .text.igmp_lookup_group:0000000000000074 .L46
C:\Users\stapi\AppData\Local\Temp\cclCjgQ5.s:547    .text.igmp_lookup_group:000000000000002c .L48
C:\Users\stapi\AppData\Local\Temp\cclCjgQ5.s:603    .text.igmp_lookup_group:000000000000007c .L49
C:\Users\stapi\AppData\Local\Temp\cclCjgQ5.s:586    .text.igmp_lookup_group:000000000000006e .L50
C:\Users\stapi\AppData\Local\Temp\cclCjgQ5.s:580    .text.igmp_lookup_group:000000000000006c .L51
C:\Users\stapi\AppData\Local\Temp\cclCjgQ5.s:626    .text.igmp_lookup_group:00000000000000a6 .L52
C:\Users\stapi\AppData\Local\Temp\cclCjgQ5.s:620    .text.igmp_lookup_group:00000000000000a4 .L53
C:\Users\stapi\AppData\Local\Temp\cclCjgQ5.s:706    .text.igmp_start:0000000000000046 .L61
C:\Users\stapi\AppData\Local\Temp\cclCjgQ5.s:697    .text.igmp_start:000000000000003e .L60
C:\Users\stapi\AppData\Local\Temp\cclCjgQ5.s:769    .text.igmp_input:000000000000002c .L65
C:\Users\stapi\AppData\Local\Temp\cclCjgQ5.s:751    .text.igmp_input:0000000000000018 .L70
C:\Users\stapi\AppData\Local\Temp\cclCjgQ5.s:819    .text.igmp_input:000000000000006c .L68
C:\Users\stapi\AppData\Local\Temp\cclCjgQ5.s:908    .text.igmp_input:00000000000000e6 .L71
C:\Users\stapi\AppData\Local\Temp\cclCjgQ5.s:879    .text.igmp_input:00000000000000c8 .L72
C:\Users\stapi\AppData\Local\Temp\cclCjgQ5.s:852    .text.igmp_input:00000000000000a6 .L73
C:\Users\stapi\AppData\Local\Temp\cclCjgQ5.s:865    .text.igmp_input:00000000000000b0 .L75
C:\Users\stapi\AppData\Local\Temp\cclCjgQ5.s:900    .text.igmp_input:00000000000000d8 .L78
C:\Users\stapi\AppData\Local\Temp\cclCjgQ5.s:918    .rodata.igmp_joingroup_netif.str1.4:0000000000000000 .LC5
C:\Users\stapi\AppData\Local\Temp\cclCjgQ5.s:921    .rodata.igmp_joingroup_netif.str1.4:000000000000003c .LC6
C:\Users\stapi\AppData\Local\Temp\cclCjgQ5.s:924    .rodata.igmp_joingroup_netif.str1.4:0000000000000078 .LC7
C:\Users\stapi\AppData\Local\Temp\cclCjgQ5.s:968    .text.igmp_joingroup_netif:000000000000003c .L87
C:\Users\stapi\AppData\Local\Temp\cclCjgQ5.s:962    .text.igmp_joingroup_netif:000000000000003a .L88
C:\Users\stapi\AppData\Local\Temp\cclCjgQ5.s:995    .text.igmp_joingroup_netif:000000000000006e .L89
C:\Users\stapi\AppData\Local\Temp\cclCjgQ5.s:989    .text.igmp_joingroup_netif:000000000000006c .L90
C:\Users\stapi\AppData\Local\Temp\cclCjgQ5.s:1027   .text.igmp_joingroup_netif:00000000000000a0 .L91
C:\Users\stapi\AppData\Local\Temp\cclCjgQ5.s:1021   .text.igmp_joingroup_netif:000000000000009e .L92
C:\Users\stapi\AppData\Local\Temp\cclCjgQ5.s:1098   .text.igmp_joingroup_netif:00000000000000ec .L93
C:\Users\stapi\AppData\Local\Temp\cclCjgQ5.s:1088   .text.igmp_joingroup_netif:00000000000000e0 .L94
C:\Users\stapi\AppData\Local\Temp\cclCjgQ5.s:1066   .text.igmp_joingroup_netif:00000000000000c8 .L95
C:\Users\stapi\AppData\Local\Temp\cclCjgQ5.s:1114   .rodata.igmp_joingroup.str1.4:0000000000000000 .LC8
C:\Users\stapi\AppData\Local\Temp\cclCjgQ5.s:1117   .rodata.igmp_joingroup.str1.4:0000000000000038 .LC9
C:\Users\stapi\AppData\Local\Temp\cclCjgQ5.s:1163   .text.igmp_joingroup:000000000000003c .L102
C:\Users\stapi\AppData\Local\Temp\cclCjgQ5.s:1157   .text.igmp_joingroup:000000000000003a .L103
C:\Users\stapi\AppData\Local\Temp\cclCjgQ5.s:1190   .text.igmp_joingroup:000000000000006e .L104
C:\Users\stapi\AppData\Local\Temp\cclCjgQ5.s:1184   .text.igmp_joingroup:000000000000006c .L105
C:\Users\stapi\AppData\Local\Temp\cclCjgQ5.s:1215   .text.igmp_joingroup:0000000000000086 .L110
C:\Users\stapi\AppData\Local\Temp\cclCjgQ5.s:1241   .text.igmp_joingroup:00000000000000aa .L107
C:\Users\stapi\AppData\Local\Temp\cclCjgQ5.s:1230   .text.igmp_joingroup:000000000000009c .L108
C:\Users\stapi\AppData\Local\Temp\cclCjgQ5.s:1206   .text.igmp_joingroup:000000000000007e .L109
C:\Users\stapi\AppData\Local\Temp\cclCjgQ5.s:1203   .text.igmp_joingroup:000000000000007c .L106
C:\Users\stapi\AppData\Local\Temp\cclCjgQ5.s:1251   .rodata.igmp_leavegroup_netif.str1.4:0000000000000000 .LC10
C:\Users\stapi\AppData\Local\Temp\cclCjgQ5.s:1254   .rodata.igmp_leavegroup_netif.str1.4:0000000000000040 .LC11
C:\Users\stapi\AppData\Local\Temp\cclCjgQ5.s:1257   .rodata.igmp_leavegroup_netif.str1.4:000000000000007c .LC12
C:\Users\stapi\AppData\Local\Temp\cclCjgQ5.s:1301   .text.igmp_leavegroup_netif:000000000000003c .L122
C:\Users\stapi\AppData\Local\Temp\cclCjgQ5.s:1295   .text.igmp_leavegroup_netif:000000000000003a .L123
C:\Users\stapi\AppData\Local\Temp\cclCjgQ5.s:1328   .text.igmp_leavegroup_netif:000000000000006e .L124
C:\Users\stapi\AppData\Local\Temp\cclCjgQ5.s:1322   .text.igmp_leavegroup_netif:000000000000006c .L125
C:\Users\stapi\AppData\Local\Temp\cclCjgQ5.s:1360   .text.igmp_leavegroup_netif:00000000000000a0 .L126
C:\Users\stapi\AppData\Local\Temp\cclCjgQ5.s:1354   .text.igmp_leavegroup_netif:000000000000009e .L127
C:\Users\stapi\AppData\Local\Temp\cclCjgQ5.s:1449   .text.igmp_leavegroup_netif:00000000000000f6 .L128
C:\Users\stapi\AppData\Local\Temp\cclCjgQ5.s:1472   .text.igmp_leavegroup_netif:0000000000000102 .L129
C:\Users\stapi\AppData\Local\Temp\cclCjgQ5.s:1408   .text.igmp_leavegroup_netif:00000000000000c8 .L131
C:\Users\stapi\AppData\Local\Temp\cclCjgQ5.s:1462   .text.igmp_leavegroup_netif:00000000000000fe .L136
C:\Users\stapi\AppData\Local\Temp\cclCjgQ5.s:1425   .text.igmp_leavegroup_netif:00000000000000dc .L133
C:\Users\stapi\AppData\Local\Temp\cclCjgQ5.s:1440   .text.igmp_leavegroup_netif:00000000000000e8 .L134
C:\Users\stapi\AppData\Local\Temp\cclCjgQ5.s:1392   .text.igmp_leavegroup_netif:00000000000000bc .L130
C:\Users\stapi\AppData\Local\Temp\cclCjgQ5.s:1446   .text.igmp_leavegroup_netif:00000000000000f4 .L144
C:\Users\stapi\AppData\Local\Temp\cclCjgQ5.s:1487   .rodata.igmp_leavegroup.str1.4:0000000000000000 .LC13
C:\Users\stapi\AppData\Local\Temp\cclCjgQ5.s:1490   .rodata.igmp_leavegroup.str1.4:0000000000000038 .LC14
C:\Users\stapi\AppData\Local\Temp\cclCjgQ5.s:1537   .text.igmp_leavegroup:000000000000003c .L146
C:\Users\stapi\AppData\Local\Temp\cclCjgQ5.s:1531   .text.igmp_leavegroup:000000000000003a .L147
C:\Users\stapi\AppData\Local\Temp\cclCjgQ5.s:1564   .text.igmp_leavegroup:000000000000006e .L148
C:\Users\stapi\AppData\Local\Temp\cclCjgQ5.s:1558   .text.igmp_leavegroup:000000000000006c .L149
C:\Users\stapi\AppData\Local\Temp\cclCjgQ5.s:1591   .text.igmp_leavegroup:0000000000000088 .L153
C:\Users\stapi\AppData\Local\Temp\cclCjgQ5.s:1620   .text.igmp_leavegroup:00000000000000b0 .L151
C:\Users\stapi\AppData\Local\Temp\cclCjgQ5.s:1606   .text.igmp_leavegroup:000000000000009e .L152
C:\Users\stapi\AppData\Local\Temp\cclCjgQ5.s:1577   .text.igmp_leavegroup:000000000000007c .L150
C:\Users\stapi\AppData\Local\Temp\cclCjgQ5.s:1675   .text.igmp_tmr:0000000000000022 .L174
C:\Users\stapi\AppData\Local\Temp\cclCjgQ5.s:1691   .text.igmp_tmr:000000000000002a .L173
C:\Users\stapi\AppData\Local\Temp\cclCjgQ5.s:1659   .text.igmp_tmr:0000000000000018 .L168
C:\Users\stapi\AppData\Local\Temp\cclCjgQ5.s:1731   .text.igmp_tmr:0000000000000060 .L171
C:\Users\stapi\AppData\Local\Temp\cclCjgQ5.s:1683   .text.igmp_tmr:0000000000000024 .L169
C:\Users\stapi\AppData\Local\Temp\cclCjgQ5.s:4279   .debug_abbrev:0000000000000000 .Ldebug_abbrev0
C:\Users\stapi\AppData\Local\Temp\cclCjgQ5.s:6655   .debug_str:0000000000000819 .LASF155
C:\Users\stapi\AppData\Local\Temp\cclCjgQ5.s:6569   .debug_str:000000000000056e .LASF156
C:\Users\stapi\AppData\Local\Temp\cclCjgQ5.s:6469   .debug_str:0000000000000297 .LASF157
C:\Users\stapi\AppData\Local\Temp\cclCjgQ5.s:6293   .debug_ranges:0000000000000000 .Ldebug_ranges0
C:\Users\stapi\AppData\Local\Temp\cclCjgQ5.s:6357   .debug_line:0000000000000000 .Ldebug_line0
C:\Users\stapi\AppData\Local\Temp\cclCjgQ5.s:6535   .debug_str:000000000000049b .LASF0
C:\Users\stapi\AppData\Local\Temp\cclCjgQ5.s:6641   .debug_str:00000000000007ca .LASF2
C:\Users\stapi\AppData\Local\Temp\cclCjgQ5.s:6583   .debug_str:0000000000000648 .LASF1
C:\Users\stapi\AppData\Local\Temp\cclCjgQ5.s:6617   .debug_str:0000000000000731 .LASF3
C:\Users\stapi\AppData\Local\Temp\cclCjgQ5.s:6561   .debug_str:000000000000053a .LASF4
C:\Users\stapi\AppData\Local\Temp\cclCjgQ5.s:6437   .debug_str:00000000000001d4 .LASF5
C:\Users\stapi\AppData\Local\Temp\cclCjgQ5.s:6643   .debug_str:00000000000007d6 .LASF6
C:\Users\stapi\AppData\Local\Temp\cclCjgQ5.s:6565   .debug_str:000000000000054f .LASF7
C:\Users\stapi\AppData\Local\Temp\cclCjgQ5.s:6619   .debug_str:000000000000073f .LASF8
C:\Users\stapi\AppData\Local\Temp\cclCjgQ5.s:6601   .debug_str:00000000000006b7 .LASF9
C:\Users\stapi\AppData\Local\Temp\cclCjgQ5.s:6511   .debug_str:000000000000040a .LASF10
C:\Users\stapi\AppData\Local\Temp\cclCjgQ5.s:6433   .debug_str:00000000000001b8 .LASF11
C:\Users\stapi\AppData\Local\Temp\cclCjgQ5.s:6389   .debug_str:00000000000000af .LASF12
C:\Users\stapi\AppData\Local\Temp\cclCjgQ5.s:6419   .debug_str:0000000000000162 .LASF13
C:\Users\stapi\AppData\Local\Temp\cclCjgQ5.s:6497   .debug_str:00000000000003bf .LASF14
C:\Users\stapi\AppData\Local\Temp\cclCjgQ5.s:6545   .debug_str:00000000000004ef .LASF15
C:\Users\stapi\AppData\Local\Temp\cclCjgQ5.s:6417   .debug_str:0000000000000159 .LASF16
C:\Users\stapi\AppData\Local\Temp\cclCjgQ5.s:6487   .debug_str:0000000000000375 .LASF17
C:\Users\stapi\AppData\Local\Temp\cclCjgQ5.s:6521   .debug_str:000000000000043c .LASF18
C:\Users\stapi\AppData\Local\Temp\cclCjgQ5.s:6473   .debug_str:0000000000000329 .LASF19
C:\Users\stapi\AppData\Local\Temp\cclCjgQ5.s:6399   .debug_str:00000000000000e0 .LASF20
C:\Users\stapi\AppData\Local\Temp\cclCjgQ5.s:6559   .debug_str:0000000000000534 .LASF21
C:\Users\stapi\AppData\Local\Temp\cclCjgQ5.s:6581   .debug_str:000000000000063f .LASF51
C:\Users\stapi\AppData\Local\Temp\cclCjgQ5.s:6623   .debug_str:0000000000000757 .LASF53
C:\Users\stapi\AppData\Local\Temp\cclCjgQ5.s:6563   .debug_str:0000000000000544 .LASF22
C:\Users\stapi\AppData\Local\Temp\cclCjgQ5.s:6653   .debug_str:000000000000080f .LASF23
C:\Users\stapi\AppData\Local\Temp\cclCjgQ5.s:6631   .debug_str:0000000000000772 .LASF104
C:\Users\stapi\AppData\Local\Temp\cclCjgQ5.s:6635   .debug_str:0000000000000797 .LASF24
C:\Users\stapi\AppData\Local\Temp\cclCjgQ5.s:6667   .debug_str:000000000000094a .LASF25
C:\Users\stapi\AppData\Local\Temp\cclCjgQ5.s:6555   .debug_str:0000000000000524 .LASF26
C:\Users\stapi\AppData\Local\Temp\cclCjgQ5.s:6481   .debug_str:0000000000000353 .LASF27
C:\Users\stapi\AppData\Local\Temp\cclCjgQ5.s:6651   .debug_str:0000000000000807 .LASF28
C:\Users\stapi\AppData\Local\Temp\cclCjgQ5.s:6579   .debug_str:0000000000000630 .LASF29
C:\Users\stapi\AppData\Local\Temp\cclCjgQ5.s:6441   .debug_str:00000000000001ea .LASF30
C:\Users\stapi\AppData\Local\Temp\cclCjgQ5.s:6479   .debug_str:0000000000000344 .LASF31
C:\Users\stapi\AppData\Local\Temp\cclCjgQ5.s:6383   .debug_str:0000000000000091 .LASF32
C:\Users\stapi\AppData\Local\Temp\cclCjgQ5.s:6413   .debug_str:000000000000013e .LASF33
C:\Users\stapi\AppData\Local\Temp\cclCjgQ5.s:6585   .debug_str:0000000000000652 .LASF34
C:\Users\stapi\AppData\Local\Temp\cclCjgQ5.s:6647   .debug_str:00000000000007f4 .LASF35
C:\Users\stapi\AppData\Local\Temp\cclCjgQ5.s:6515   .debug_str:000000000000041f .LASF36
C:\Users\stapi\AppData\Local\Temp\cclCjgQ5.s:6369   .debug_str:0000000000000032 .LASF37
C:\Users\stapi\AppData\Local\Temp\cclCjgQ5.s:6409   .debug_str:0000000000000127 .LASF38
C:\Users\stapi\AppData\Local\Temp\cclCjgQ5.s:6381   .debug_str:0000000000000088 .LASF39
C:\Users\stapi\AppData\Local\Temp\cclCjgQ5.s:6385   .debug_str:0000000000000099 .LASF40
C:\Users\stapi\AppData\Local\Temp\cclCjgQ5.s:6393   .debug_str:00000000000000c1 .LASF41
C:\Users\stapi\AppData\Local\Temp\cclCjgQ5.s:6411   .debug_str:000000000000012f .LASF42
C:\Users\stapi\AppData\Local\Temp\cclCjgQ5.s:6457   .debug_str:0000000000000263 .LASF43
C:\Users\stapi\AppData\Local\Temp\cclCjgQ5.s:6529   .debug_str:000000000000046d .LASF44
C:\Users\stapi\AppData\Local\Temp\cclCjgQ5.s:6659   .debug_str:000000000000091d .LASF45
C:\Users\stapi\AppData\Local\Temp\cclCjgQ5.s:6377   .debug_str:0000000000000079 .LASF46
C:\Users\stapi\AppData\Local\Temp\cclCjgQ5.s:6373   .debug_str:000000000000004e .LASF47
C:\Users\stapi\AppData\Local\Temp\cclCjgQ5.s:6661   .debug_str:0000000000000929 .LASF48
C:\Users\stapi\AppData\Local\Temp\cclCjgQ5.s:6447   .debug_str:0000000000000216 .LASF49
C:\Users\stapi\AppData\Local\Temp\cclCjgQ5.s:6467   .debug_str:000000000000028d .LASF50
C:\Users\stapi\AppData\Local\Temp\cclCjgQ5.s:6465   .debug_str:0000000000000288 .LASF52
C:\Users\stapi\AppData\Local\Temp\cclCjgQ5.s:6391   .debug_str:00000000000000bc .LASF54
C:\Users\stapi\AppData\Local\Temp\cclCjgQ5.s:6455   .debug_str:000000000000025b .LASF55
C:\Users\stapi\AppData\Local\Temp\cclCjgQ5.s:6453   .debug_str:0000000000000253 .LASF56
C:\Users\stapi\AppData\Local\Temp\cclCjgQ5.s:6451   .debug_str:0000000000000245 .LASF57
C:\Users\stapi\AppData\Local\Temp\cclCjgQ5.s:6379   .debug_str:0000000000000082 .LASF58
C:\Users\stapi\AppData\Local\Temp\cclCjgQ5.s:6549   .debug_str:00000000000004fe .LASF59
C:\Users\stapi\AppData\Local\Temp\cclCjgQ5.s:6599   .debug_str:00000000000006aa .LASF60
C:\Users\stapi\AppData\Local\Temp\cclCjgQ5.s:6575   .debug_str:0000000000000619 .LASF61
C:\Users\stapi\AppData\Local\Temp\cclCjgQ5.s:6519   .debug_str:000000000000042f .LASF62
C:\Users\stapi\AppData\Local\Temp\cclCjgQ5.s:6363   .debug_str:000000000000000e .LASF63
C:\Users\stapi\AppData\Local\Temp\cclCjgQ5.s:6621   .debug_str:000000000000074a .LASF64
C:\Users\stapi\AppData\Local\Temp\cclCjgQ5.s:6531   .debug_str:0000000000000477 .LASF65
C:\Users\stapi\AppData\Local\Temp\cclCjgQ5.s:6525   .debug_str:000000000000044b .LASF66
C:\Users\stapi\AppData\Local\Temp\cclCjgQ5.s:6595   .debug_str:0000000000000692 .LASF67
C:\Users\stapi\AppData\Local\Temp\cclCjgQ5.s:6507   .debug_str:00000000000003f6 .LASF68
C:\Users\stapi\AppData\Local\Temp\cclCjgQ5.s:6477   .debug_str:0000000000000337 .LASF69
C:\Users\stapi\AppData\Local\Temp\cclCjgQ5.s:6423   .debug_str:0000000000000179 .LASF70
C:\Users\stapi\AppData\Local\Temp\cclCjgQ5.s:6445   .debug_str:0000000000000201 .LASF71
C:\Users\stapi\AppData\Local\Temp\cclCjgQ5.s:6421   .debug_str:0000000000000169 .LASF72
C:\Users\stapi\AppData\Local\Temp\cclCjgQ5.s:6571   .debug_str:00000000000005fd .LASF73
C:\Users\stapi\AppData\Local\Temp\cclCjgQ5.s:6657   .debug_str:0000000000000912 .LASF74
C:\Users\stapi\AppData\Local\Temp\cclCjgQ5.s:6483   .debug_str:000000000000035f .LASF75
C:\Users\stapi\AppData\Local\Temp\cclCjgQ5.s:6405   .debug_str:0000000000000108 .LASF76
C:\Users\stapi\AppData\Local\Temp\cclCjgQ5.s:6471   .debug_str:0000000000000320 .LASF77
C:\Users\stapi\AppData\Local\Temp\cclCjgQ5.s:6449   .debug_str:000000000000021f .LASF81
C:\Users\stapi\AppData\Local\Temp\cclCjgQ5.s:6639   .debug_str:00000000000007a8 .LASF78
C:\Users\stapi\AppData\Local\Temp\cclCjgQ5.s:6375   .debug_str:0000000000000057 .LASF79
C:\Users\stapi\AppData\Local\Temp\cclCjgQ5.s:6543   .debug_str:00000000000004ce .LASF80
C:\Users\stapi\AppData\Local\Temp\cclCjgQ5.s:6603   .debug_str:00000000000006c9 .LASF82
C:\Users\stapi\AppData\Local\Temp\cclCjgQ5.s:6533   .debug_str:0000000000000486 .LASF83
C:\Users\stapi\AppData\Local\Temp\cclCjgQ5.s:6495   .debug_str:00000000000003aa .LASF84
C:\Users\stapi\AppData\Local\Temp\cclCjgQ5.s:6629   .debug_str:000000000000076c .LASF85
C:\Users\stapi\AppData\Local\Temp\cclCjgQ5.s:6675   .debug_str:000000000000096d .LASF86
C:\Users\stapi\AppData\Local\Temp\cclCjgQ5.s:6509   .debug_str:0000000000000402 .LASF87
C:\Users\stapi\AppData\Local\Temp\cclCjgQ5.s:6365   .debug_str:0000000000000022 .LASF88
C:\Users\stapi\AppData\Local\Temp\cclCjgQ5.s:6461   .debug_str:0000000000000277 .LASF89
C:\Users\stapi\AppData\Local\Temp\cclCjgQ5.s:6395   .debug_str:00000000000000c7 .LASF90
C:\Users\stapi\AppData\Local\Temp\cclCjgQ5.s:6627   .debug_str:0000000000000766 .LASF91
C:\Users\stapi\AppData\Local\Temp\cclCjgQ5.s:6485   .debug_str:0000000000000369 .LASF92
C:\Users\stapi\AppData\Local\Temp\cclCjgQ5.s:6431   .debug_str:00000000000001b1 .LASF93
C:\Users\stapi\AppData\Local\Temp\cclCjgQ5.s:6439   .debug_str:00000000000001df .LASF94
C:\Users\stapi\AppData\Local\Temp\cclCjgQ5.s:6587   .debug_str:000000000000065d .LASF95
C:\Users\stapi\AppData\Local\Temp\cclCjgQ5.s:6597   .debug_str:00000000000006a1 .LASF96
C:\Users\stapi\AppData\Local\Temp\cclCjgQ5.s:6489   .debug_str:000000000000037a .LASF97
C:\Users\stapi\AppData\Local\Temp\cclCjgQ5.s:6573   .debug_str:000000000000060e .LASF98
C:\Users\stapi\AppData\Local\Temp\cclCjgQ5.s:6463   .debug_str:000000000000027e .LASF99
C:\Users\stapi\AppData\Local\Temp\cclCjgQ5.s:6415   .debug_str:000000000000014a .LASF100
C:\Users\stapi\AppData\Local\Temp\cclCjgQ5.s:6403   .debug_str:00000000000000f8 .LASF101
C:\Users\stapi\AppData\Local\Temp\cclCjgQ5.s:6593   .debug_str:000000000000067e .LASF102
C:\Users\stapi\AppData\Local\Temp\cclCjgQ5.s:6633   .debug_str:000000000000077e .LASF103
C:\Users\stapi\AppData\Local\Temp\cclCjgQ5.s:6429   .debug_str:00000000000001a6 .LASF105
C:\Users\stapi\AppData\Local\Temp\cclCjgQ5.s:6645   .debug_str:00000000000007e9 .LASF106
C:\Users\stapi\AppData\Local\Temp\cclCjgQ5.s:6397   .debug_str:00000000000000d2 .LASF107
C:\Users\stapi\AppData\Local\Temp\cclCjgQ5.s:6613   .debug_str:0000000000000719 .LASF108
C:\Users\stapi\AppData\Local\Temp\cclCjgQ5.s:6459   .debug_str:000000000000026b .LASF109
C:\Users\stapi\AppData\Local\Temp\cclCjgQ5.s:6663   .debug_str:0000000000000932 .LASF110
C:\Users\stapi\AppData\Local\Temp\cclCjgQ5.s:6427   .debug_str:0000000000000196 .LASF111
C:\Users\stapi\AppData\Local\Temp\cclCjgQ5.s:6551   .debug_str:0000000000000505 .LASF112
C:\Users\stapi\AppData\Local\Temp\cclCjgQ5.s:6541   .debug_str:00000000000004c5 .LASF113
C:\Users\stapi\AppData\Local\Temp\cclCjgQ5.s:6503   .debug_str:00000000000003dd .LASF114
C:\Users\stapi\AppData\Local\Temp\cclCjgQ5.s:6611   .debug_str:000000000000070c .LASF115
C:\Users\stapi\AppData\Local\Temp\cclCjgQ5.s:6387   .debug_str:00000000000000a1 .LASF116
C:\Users\stapi\AppData\Local\Temp\cclCjgQ5.s:6371   .debug_str:000000000000003b .LASF117
C:\Users\stapi\AppData\Local\Temp\cclCjgQ5.s:6673   .debug_str:0000000000000962 .LASF118
C:\Users\stapi\AppData\Local\Temp\cclCjgQ5.s:6671   .debug_str:0000000000000957 .LASF119
C:\Users\stapi\AppData\Local\Temp\cclCjgQ5.s:6577   .debug_str:0000000000000626 .LASF124
C:\Users\stapi\AppData\Local\Temp\cclCjgQ5.s:109    .text.igmp_send:0000000000000000 .LFB21
C:\Users\stapi\AppData\Local\Temp\cclCjgQ5.s:305    .text.igmp_send:0000000000000114 .LFE21
C:\Users\stapi\AppData\Local\Temp\cclCjgQ5.s:5332   .debug_loc:0000000000000000 .LLST4
C:\Users\stapi\AppData\Local\Temp\cclCjgQ5.s:6547   .debug_str:00000000000004f8 .LASF120
C:\Users\stapi\AppData\Local\Temp\cclCjgQ5.s:5343   .debug_loc:000000000000001e .LLST5
C:\Users\stapi\AppData\Local\Temp\cclCjgQ5.s:6615   .debug_str:000000000000072c .LASF121
C:\Users\stapi\AppData\Local\Temp\cclCjgQ5.s:5354   .debug_loc:000000000000003c .LLST6
C:\Users\stapi\AppData\Local\Temp\cclCjgQ5.s:5368   .debug_loc:000000000000005d .LLST7
C:\Users\stapi\AppData\Local\Temp\cclCjgQ5.s:6435   .debug_str:00000000000001cf .LASF122
C:\Users\stapi\AppData\Local\Temp\cclCjgQ5.s:5388   .debug_loc:0000000000000092 .LLST8
C:\Users\stapi\AppData\Local\Temp\cclCjgQ5.s:6669   .debug_str:0000000000000952 .LASF123
C:\Users\stapi\AppData\Local\Temp\cclCjgQ5.s:5416   .debug_loc:00000000000000d6 .LLST9
C:\Users\stapi\AppData\Local\Temp\cclCjgQ5.s:242    .text.igmp_send:00000000000000c2 .LBB14
C:\Users\stapi\AppData\Local\Temp\cclCjgQ5.s:267    .text.igmp_send:00000000000000e6 .LBE14
C:\Users\stapi\AppData\Local\Temp\cclCjgQ5.s:5434   .debug_loc:0000000000000105 .LLST10
C:\Users\stapi\AppData\Local\Temp\cclCjgQ5.s:5441   .debug_loc:0000000000000118 .LLST11
C:\Users\stapi\AppData\Local\Temp\cclCjgQ5.s:5448   .debug_loc:000000000000012b .LLST12
C:\Users\stapi\AppData\Local\Temp\cclCjgQ5.s:5467   .debug_loc:0000000000000158 .LLST13
C:\Users\stapi\AppData\Local\Temp\cclCjgQ5.s:265    .text.igmp_send:00000000000000e6 .LVL23
C:\Users\stapi\AppData\Local\Temp\cclCjgQ5.s:150    .text.igmp_send:000000000000002c .LVL13
C:\Users\stapi\AppData\Local\Temp\cclCjgQ5.s:174    .text.igmp_send:000000000000005e .LVL16
C:\Users\stapi\AppData\Local\Temp\cclCjgQ5.s:235    .text.igmp_send:00000000000000b6 .LVL20
C:\Users\stapi\AppData\Local\Temp\cclCjgQ5.s:271    .text.igmp_send:00000000000000f0 .LVL24
C:\Users\stapi\AppData\Local\Temp\cclCjgQ5.s:6589   .debug_str:0000000000000662 .LASF139
C:\Users\stapi\AppData\Local\Temp\cclCjgQ5.s:6539   .debug_str:00000000000004b0 .LASF125
C:\Users\stapi\AppData\Local\Temp\cclCjgQ5.s:13     .text.igmp_delaying_member:0000000000000000 .LFB19
C:\Users\stapi\AppData\Local\Temp\cclCjgQ5.s:93     .text.igmp_delaying_member:0000000000000054 .LFE19
C:\Users\stapi\AppData\Local\Temp\cclCjgQ5.s:5474   .debug_loc:000000000000016b .LLST0
C:\Users\stapi\AppData\Local\Temp\cclCjgQ5.s:6557   .debug_str:000000000000052c .LASF126
C:\Users\stapi\AppData\Local\Temp\cclCjgQ5.s:5485   .debug_loc:0000000000000189 .LLST1
C:\Users\stapi\AppData\Local\Temp\cclCjgQ5.s:45     .text.igmp_delaying_member:0000000000000026 .LBB8
C:\Users\stapi\AppData\Local\Temp\cclCjgQ5.s:5510   .debug_loc:00000000000001c3 .LLST2
C:\Users\stapi\AppData\Local\Temp\cclCjgQ5.s:5521   .debug_loc:00000000000001e1 .LLST3
C:\Users\stapi\AppData\Local\Temp\cclCjgQ5.s:80     .text.igmp_delaying_member:0000000000000048 .LVL5
C:\Users\stapi\AppData\Local\Temp\cclCjgQ5.s:6605   .debug_str:00000000000006e1 .LASF128
C:\Users\stapi\AppData\Local\Temp\cclCjgQ5.s:6517   .debug_str:0000000000000426 .LASF127
C:\Users\stapi\AppData\Local\Temp\cclCjgQ5.s:6677   .debug_str:0000000000000975 .LASF129
C:\Users\stapi\AppData\Local\Temp\cclCjgQ5.s:6359   .debug_str:0000000000000000 .LASF136
C:\Users\stapi\AppData\Local\Temp\cclCjgQ5.s:1634   .text.igmp_tmr:0000000000000000 .LFB16
C:\Users\stapi\AppData\Local\Temp\cclCjgQ5.s:1741   .text.igmp_tmr:0000000000000064 .LFE16
C:\Users\stapi\AppData\Local\Temp\cclCjgQ5.s:1651   .text.igmp_tmr:0000000000000010 .LBB43
C:\Users\stapi\AppData\Local\Temp\cclCjgQ5.s:5536   .debug_loc:000000000000020a .LLST53
C:\Users\stapi\AppData\Local\Temp\cclCjgQ5.s:5543   .debug_loc:000000000000021d .LLST54
C:\Users\stapi\AppData\Local\Temp\cclCjgQ5.s:1730   .text.igmp_tmr:0000000000000060 .LVL154
C:\Users\stapi\AppData\Local\Temp\cclCjgQ5.s:6567   .debug_str:0000000000000558 .LASF132
C:\Users\stapi\AppData\Local\Temp\cclCjgQ5.s:6649   .debug_str:00000000000007fd .LASF130
C:\Users\stapi\AppData\Local\Temp\cclCjgQ5.s:6407   .debug_str:0000000000000117 .LASF134
C:\Users\stapi\AppData\Local\Temp\cclCjgQ5.s:1497   .text.igmp_leavegroup:0000000000000000 .LFB14
C:\Users\stapi\AppData\Local\Temp\cclCjgQ5.s:1627   .text.igmp_leavegroup:00000000000000b4 .LFE14
C:\Users\stapi\AppData\Local\Temp\cclCjgQ5.s:6607   .debug_str:00000000000006f2 .LASF131
C:\Users\stapi\AppData\Local\Temp\cclCjgQ5.s:5550   .debug_loc:0000000000000230 .LLST49
C:\Users\stapi\AppData\Local\Temp\cclCjgQ5.s:5583   .debug_loc:0000000000000280 .LLST50
C:\Users\stapi\AppData\Local\Temp\cclCjgQ5.s:5616   .debug_loc:00000000000002d0 .LLST51
C:\Users\stapi\AppData\Local\Temp\cclCjgQ5.s:1607   .text.igmp_leavegroup:000000000000009e .LBB38
C:\Users\stapi\AppData\Local\Temp\cclCjgQ5.s:1621   .text.igmp_leavegroup:00000000000000b0 .LBE38
C:\Users\stapi\AppData\Local\Temp\cclCjgQ5.s:5629   .debug_loc:00000000000002f0 .LLST52
C:\Users\stapi\AppData\Local\Temp\cclCjgQ5.s:1613   .text.igmp_leavegroup:00000000000000aa .LVL147
C:\Users\stapi\AppData\Local\Temp\cclCjgQ5.s:1530   .text.igmp_leavegroup:000000000000003a .LVL139
C:\Users\stapi\AppData\Local\Temp\cclCjgQ5.s:1557   .text.igmp_leavegroup:000000000000006c .LVL143
C:\Users\stapi\AppData\Local\Temp\cclCjgQ5.s:6491   .debug_str:000000000000038a .LASF133
C:\Users\stapi\AppData\Local\Temp\cclCjgQ5.s:6443   .debug_str:00000000000001f2 .LASF135
C:\Users\stapi\AppData\Local\Temp\cclCjgQ5.s:1124   .text.igmp_joingroup:0000000000000000 .LFB12
C:\Users\stapi\AppData\Local\Temp\cclCjgQ5.s:1247   .text.igmp_joingroup:00000000000000ae .LFE12
C:\Users\stapi\AppData\Local\Temp\cclCjgQ5.s:5636   .debug_loc:0000000000000303 .LLST37
C:\Users\stapi\AppData\Local\Temp\cclCjgQ5.s:5669   .debug_loc:0000000000000353 .LLST38
C:\Users\stapi\AppData\Local\Temp\cclCjgQ5.s:5702   .debug_loc:00000000000003a3 .LLST39
C:\Users\stapi\AppData\Local\Temp\cclCjgQ5.s:1156   .text.igmp_joingroup:000000000000003a .LVL99
C:\Users\stapi\AppData\Local\Temp\cclCjgQ5.s:1183   .text.igmp_joingroup:000000000000006c .LVL103
C:\Users\stapi\AppData\Local\Temp\cclCjgQ5.s:1237   .text.igmp_joingroup:00000000000000a8 .LVL108
C:\Users\stapi\AppData\Local\Temp\cclCjgQ5.s:6493   .debug_str:000000000000039f .LASF137
C:\Users\stapi\AppData\Local\Temp\cclCjgQ5.s:720    .text.igmp_input:0000000000000000 .LFB11
C:\Users\stapi\AppData\Local\Temp\cclCjgQ5.s:914    .text.igmp_input:00000000000000ea .LFE11
C:\Users\stapi\AppData\Local\Temp\cclCjgQ5.s:5719   .debug_loc:00000000000003ce .LLST25
C:\Users\stapi\AppData\Local\Temp\cclCjgQ5.s:5730   .debug_loc:00000000000003ec .LLST26
C:\Users\stapi\AppData\Local\Temp\cclCjgQ5.s:5763   .debug_loc:000000000000043c .LLST27
C:\Users\stapi\AppData\Local\Temp\cclCjgQ5.s:5785   .debug_loc:0000000000000473 .LLST28
C:\Users\stapi\AppData\Local\Temp\cclCjgQ5.s:6475   .debug_str:000000000000032e .LASF138
C:\Users\stapi\AppData\Local\Temp\cclCjgQ5.s:5804   .debug_loc:00000000000004a7 .LLST29
C:\Users\stapi\AppData\Local\Temp\cclCjgQ5.s:881    .text.igmp_input:00000000000000c8 .LBB17
C:\Users\stapi\AppData\Local\Temp\cclCjgQ5.s:895    .text.igmp_input:00000000000000d6 .LBE17
C:\Users\stapi\AppData\Local\Temp\cclCjgQ5.s:894    .text.igmp_input:00000000000000d6 .LVL72
C:\Users\stapi\AppData\Local\Temp\cclCjgQ5.s:755    .text.igmp_input:0000000000000022 .LVL61
C:\Users\stapi\AppData\Local\Temp\cclCjgQ5.s:785    .text.igmp_input:000000000000003a .LVL64
C:\Users\stapi\AppData\Local\Temp\cclCjgQ5.s:793    .text.igmp_input:0000000000000048 .LVL65
C:\Users\stapi\AppData\Local\Temp\cclCjgQ5.s:872    .text.igmp_input:00000000000000c2 .LVL68
C:\Users\stapi\AppData\Local\Temp\cclCjgQ5.s:905    .text.igmp_input:00000000000000e4 .LVL73
C:\Users\stapi\AppData\Local\Temp\cclCjgQ5.s:6553   .debug_str:0000000000000512 .LASF140
C:\Users\stapi\AppData\Local\Temp\cclCjgQ5.s:6523   .debug_str:0000000000000441 .LASF141
C:\Users\stapi\AppData\Local\Temp\cclCjgQ5.s:6665   .debug_str:0000000000000938 .LASF158
C:\Users\stapi\AppData\Local\Temp\cclCjgQ5.s:506    .text.igmp_lookup_group:0000000000000000 .LFB9
C:\Users\stapi\AppData\Local\Temp\cclCjgQ5.s:639    .text.igmp_lookup_group:00000000000000b2 .LFE9
C:\Users\stapi\AppData\Local\Temp\cclCjgQ5.s:5815   .debug_loc:00000000000004c5 .LLST19
C:\Users\stapi\AppData\Local\Temp\cclCjgQ5.s:5826   .debug_loc:00000000000004e3 .LLST20
C:\Users\stapi\AppData\Local\Temp\cclCjgQ5.s:5837   .debug_loc:0000000000000501 .LLST21
C:\Users\stapi\AppData\Local\Temp\cclCjgQ5.s:6625   .debug_str:000000000000075c .LASF142
C:\Users\stapi\AppData\Local\Temp\cclCjgQ5.s:5856   .debug_loc:0000000000000535 .LLST22
C:\Users\stapi\AppData\Local\Temp\cclCjgQ5.s:526    .text.igmp_lookup_group:0000000000000014 .LVL43
C:\Users\stapi\AppData\Local\Temp\cclCjgQ5.s:538    .text.igmp_lookup_group:0000000000000024 .LVL45
C:\Users\stapi\AppData\Local\Temp\cclCjgQ5.s:579    .text.igmp_lookup_group:000000000000006c .LVL47
C:\Users\stapi\AppData\Local\Temp\cclCjgQ5.s:619    .text.igmp_lookup_group:00000000000000a4 .LVL50
C:\Users\stapi\AppData\Local\Temp\cclCjgQ5.s:6527   .debug_str:000000000000045a .LASF143
C:\Users\stapi\AppData\Local\Temp\cclCjgQ5.s:466    .text.igmp_lookfor_group:0000000000000000 .LFB8
C:\Users\stapi\AppData\Local\Temp\cclCjgQ5.s:493    .text.igmp_lookfor_group:0000000000000012 .LFE8
C:\Users\stapi\AppData\Local\Temp\cclCjgQ5.s:5864   .debug_loc:0000000000000549 .LLST18
C:\Users\stapi\AppData\Local\Temp\cclCjgQ5.s:6609   .debug_str:00000000000006f9 .LASF144
C:\Users\stapi\AppData\Local\Temp\cclCjgQ5.s:410    .text.igmp_report_groups:0000000000000000 .LFB7
C:\Users\stapi\AppData\Local\Temp\cclCjgQ5.s:459    .text.igmp_report_groups:000000000000002a .LFE7
C:\Users\stapi\AppData\Local\Temp\cclCjgQ5.s:5878   .debug_loc:000000000000056a .LLST16
C:\Users\stapi\AppData\Local\Temp\cclCjgQ5.s:5896   .debug_loc:0000000000000596 .LLST17
C:\Users\stapi\AppData\Local\Temp\cclCjgQ5.s:446    .text.igmp_report_groups:0000000000000024 .LVL35
C:\Users\stapi\AppData\Local\Temp\cclCjgQ5.s:6591   .debug_str:0000000000000674 .LASF145
C:\Users\stapi\AppData\Local\Temp\cclCjgQ5.s:336    .text.igmp_stop:0000000000000000 .LFB6
C:\Users\stapi\AppData\Local\Temp\cclCjgQ5.s:403    .text.igmp_stop:000000000000003e .LFE6
C:\Users\stapi\AppData\Local\Temp\cclCjgQ5.s:5911   .debug_loc:00000000000005bf .LLST14
C:\Users\stapi\AppData\Local\Temp\cclCjgQ5.s:5922   .debug_loc:00000000000005dd .LLST15
C:\Users\stapi\AppData\Local\Temp\cclCjgQ5.s:372    .text.igmp_stop:000000000000001c .LBB16
C:\Users\stapi\AppData\Local\Temp\cclCjgQ5.s:401    .text.igmp_stop:000000000000003e .LBE16
C:\Users\stapi\AppData\Local\Temp\cclCjgQ5.s:390    .text.igmp_stop:000000000000002e .LVL30
C:\Users\stapi\AppData\Local\Temp\cclCjgQ5.s:396    .text.igmp_stop:000000000000003a .LVL31
C:\Users\stapi\AppData\Local\Temp\cclCjgQ5.s:6501   .debug_str:00000000000003d2 .LASF146
C:\Users\stapi\AppData\Local\Temp\cclCjgQ5.s:646    .text.igmp_start:0000000000000000 .LFB5
C:\Users\stapi\AppData\Local\Temp\cclCjgQ5.s:713    .text.igmp_start:000000000000004a .LFE5
C:\Users\stapi\AppData\Local\Temp\cclCjgQ5.s:5933   .debug_loc:00000000000005fb .LLST23
C:\Users\stapi\AppData\Local\Temp\cclCjgQ5.s:5944   .debug_loc:0000000000000619 .LLST24
C:\Users\stapi\AppData\Local\Temp\cclCjgQ5.s:665    .text.igmp_start:000000000000001a .LVL53
C:\Users\stapi\AppData\Local\Temp\cclCjgQ5.s:694    .text.igmp_start:000000000000003c .LVL55
C:\Users\stapi\AppData\Local\Temp\cclCjgQ5.s:6425   .debug_str:000000000000018c .LASF159
C:\Users\stapi\AppData\Local\Temp\cclCjgQ5.s:312    .text.igmp_init:0000000000000000 .LFB4
C:\Users\stapi\AppData\Local\Temp\cclCjgQ5.s:329    .text.igmp_init:0000000000000022 .LFE4
C:\Users\stapi\AppData\Local\Temp\cclCjgQ5.s:931    .text.igmp_joingroup_netif:0000000000000000 .LFB13
C:\Users\stapi\AppData\Local\Temp\cclCjgQ5.s:1110   .text.igmp_joingroup_netif:00000000000000f4 .LFE13
C:\Users\stapi\AppData\Local\Temp\cclCjgQ5.s:5955   .debug_loc:0000000000000637 .LLST30
C:\Users\stapi\AppData\Local\Temp\cclCjgQ5.s:5988   .debug_loc:0000000000000687 .LLST31
C:\Users\stapi\AppData\Local\Temp\cclCjgQ5.s:996    .text.igmp_joingroup_netif:000000000000006e .LBB22
C:\Users\stapi\AppData\Local\Temp\cclCjgQ5.s:1101   .text.igmp_joingroup_netif:00000000000000ec .LBE22
C:\Users\stapi\AppData\Local\Temp\cclCjgQ5.s:6032   .debug_loc:00000000000006f0 .LLST32
C:\Users\stapi\AppData\Local\Temp\cclCjgQ5.s:6054   .debug_loc:0000000000000727 .LLST33
C:\Users\stapi\AppData\Local\Temp\cclCjgQ5.s:6061   .debug_loc:000000000000073a .LLST34
C:\Users\stapi\AppData\Local\Temp\cclCjgQ5.s:1075   .text.igmp_joingroup_netif:00000000000000d6 .LBB24
C:\Users\stapi\AppData\Local\Temp\cclCjgQ5.s:1084   .text.igmp_joingroup_netif:00000000000000dc .LBE24
C:\Users\stapi\AppData\Local\Temp\cclCjgQ5.s:6068   .debug_loc:000000000000074d .LLST35
C:\Users\stapi\AppData\Local\Temp\cclCjgQ5.s:6076   .debug_loc:0000000000000761 .LLST36
C:\Users\stapi\AppData\Local\Temp\cclCjgQ5.s:1020   .text.igmp_joingroup_netif:000000000000009e .LVL87
C:\Users\stapi\AppData\Local\Temp\cclCjgQ5.s:1034   .text.igmp_joingroup_netif:00000000000000aa .LVL89
C:\Users\stapi\AppData\Local\Temp\cclCjgQ5.s:1065   .text.igmp_joingroup_netif:00000000000000c8 .LVL91
C:\Users\stapi\AppData\Local\Temp\cclCjgQ5.s:1073   .text.igmp_joingroup_netif:00000000000000d6 .LVL92
C:\Users\stapi\AppData\Local\Temp\cclCjgQ5.s:961    .text.igmp_joingroup_netif:000000000000003a .LVL78
C:\Users\stapi\AppData\Local\Temp\cclCjgQ5.s:988    .text.igmp_joingroup_netif:000000000000006c .LVL82
C:\Users\stapi\AppData\Local\Temp\cclCjgQ5.s:1264   .text.igmp_leavegroup_netif:0000000000000000 .LFB15
C:\Users\stapi\AppData\Local\Temp\cclCjgQ5.s:1483   .text.igmp_leavegroup_netif:000000000000010a .LFE15
C:\Users\stapi\AppData\Local\Temp\cclCjgQ5.s:6083   .debug_loc:0000000000000774 .LLST40
C:\Users\stapi\AppData\Local\Temp\cclCjgQ5.s:6116   .debug_loc:00000000000007c4 .LLST41
C:\Users\stapi\AppData\Local\Temp\cclCjgQ5.s:1329   .text.igmp_leavegroup_netif:000000000000006e .LBB30
C:\Users\stapi\AppData\Local\Temp\cclCjgQ5.s:6160   .debug_loc:000000000000082d .LLST42
C:\Users\stapi\AppData\Local\Temp\cclCjgQ5.s:6186   .debug_loc:000000000000086f .LLST43
C:\Users\stapi\AppData\Local\Temp\cclCjgQ5.s:6197   .debug_loc:000000000000088d .LLST44
C:\Users\stapi\AppData\Local\Temp\cclCjgQ5.s:1387   .text.igmp_leavegroup_netif:00000000000000bc .LBB32
C:\Users\stapi\AppData\Local\Temp\cclCjgQ5.s:6208   .debug_loc:00000000000008ab .LLST45
C:\Users\stapi\AppData\Local\Temp\cclCjgQ5.s:6219   .debug_loc:00000000000008c9 .LLST46
C:\Users\stapi\AppData\Local\Temp\cclCjgQ5.s:6230   .debug_loc:00000000000008e7 .LLST47
C:\Users\stapi\AppData\Local\Temp\cclCjgQ5.s:6243   .debug_loc:0000000000000907 .LLST48
C:\Users\stapi\AppData\Local\Temp\cclCjgQ5.s:1353   .text.igmp_leavegroup_netif:000000000000009e .LVL122
C:\Users\stapi\AppData\Local\Temp\cclCjgQ5.s:1367   .text.igmp_leavegroup_netif:00000000000000aa .LVL124
C:\Users\stapi\AppData\Local\Temp\cclCjgQ5.s:1424   .text.igmp_leavegroup_netif:00000000000000dc .LVL128
C:\Users\stapi\AppData\Local\Temp\cclCjgQ5.s:1439   .text.igmp_leavegroup_netif:00000000000000e8 .LVL129
C:\Users\stapi\AppData\Local\Temp\cclCjgQ5.s:1445   .text.igmp_leavegroup_netif:00000000000000f4 .LVL130
C:\Users\stapi\AppData\Local\Temp\cclCjgQ5.s:1294   .text.igmp_leavegroup_netif:000000000000003a .LVL113
C:\Users\stapi\AppData\Local\Temp\cclCjgQ5.s:1321   .text.igmp_leavegroup_netif:000000000000006c .LVL117
C:\Users\stapi\AppData\Local\Temp\cclCjgQ5.s:6401   .debug_str:00000000000000e6 .LASF147
C:\Users\stapi\AppData\Local\Temp\cclCjgQ5.s:6499   .debug_str:00000000000003c7 .LASF148
C:\Users\stapi\AppData\Local\Temp\cclCjgQ5.s:6513   .debug_str:0000000000000418 .LASF149
C:\Users\stapi\AppData\Local\Temp\cclCjgQ5.s:6537   .debug_str:00000000000004a4 .LASF150
C:\Users\stapi\AppData\Local\Temp\cclCjgQ5.s:6367   .debug_str:0000000000000028 .LASF151
C:\Users\stapi\AppData\Local\Temp\cclCjgQ5.s:6361   .debug_str:0000000000000009 .LASF152
C:\Users\stapi\AppData\Local\Temp\cclCjgQ5.s:6505   .debug_str:00000000000003ea .LASF153
C:\Users\stapi\AppData\Local\Temp\cclCjgQ5.s:6637   .debug_str:000000000000079e .LASF154
C:\Users\stapi\AppData\Local\Temp\cclCjgQ5.s:112    .text.igmp_send:0000000000000000 .LVL7
C:\Users\stapi\AppData\Local\Temp\cclCjgQ5.s:142    .text.igmp_send:0000000000000022 .LVL11
C:\Users\stapi\AppData\Local\Temp\cclCjgQ5.s:138    .text.igmp_send:000000000000001a .LVL9
C:\Users\stapi\AppData\Local\Temp\cclCjgQ5.s:140    .text.igmp_send:000000000000001e .LVL10
C:\Users\stapi\AppData\Local\Temp\cclCjgQ5.s:123    .text.igmp_send:0000000000000008 .LVL8
C:\Users\stapi\AppData\Local\Temp\cclCjgQ5.s:168    .text.igmp_send:0000000000000046 .LVL15
C:\Users\stapi\AppData\Local\Temp\cclCjgQ5.s:288    .text.igmp_send:00000000000000fa .LVL25
C:\Users\stapi\AppData\Local\Temp\cclCjgQ5.s:159    .text.igmp_send:0000000000000036 .LVL14
C:\Users\stapi\AppData\Local\Temp\cclCjgQ5.s:180    .text.igmp_send:0000000000000060 .LVL17
C:\Users\stapi\AppData\Local\Temp\cclCjgQ5.s:216    .text.igmp_send:000000000000009a .LVL19
C:\Users\stapi\AppData\Local\Temp\cclCjgQ5.s:146    .text.igmp_send:0000000000000024 .LVL12
C:\Users\stapi\AppData\Local\Temp\cclCjgQ5.s:211    .text.igmp_send:0000000000000096 .LVL18
C:\Users\stapi\AppData\Local\Temp\cclCjgQ5.s:241    .text.igmp_send:00000000000000c2 .LVL21
C:\Users\stapi\AppData\Local\Temp\cclCjgQ5.s:262    .text.igmp_send:00000000000000dc .LVL22
C:\Users\stapi\AppData\Local\Temp\cclCjgQ5.s:17     .text.igmp_delaying_member:0000000000000000 .LVL0
C:\Users\stapi\AppData\Local\Temp\cclCjgQ5.s:51     .text.igmp_delaying_member:000000000000002c .LVL2
C:\Users\stapi\AppData\Local\Temp\cclCjgQ5.s:73     .text.igmp_delaying_member:0000000000000040 .LVL4
C:\Users\stapi\AppData\Local\Temp\cclCjgQ5.s:44     .text.igmp_delaying_member:0000000000000026 .LVL1
C:\Users\stapi\AppData\Local\Temp\cclCjgQ5.s:83     .text.igmp_delaying_member:000000000000004c .LVL6
C:\Users\stapi\AppData\Local\Temp\cclCjgQ5.s:58     .text.igmp_delaying_member:0000000000000032 .LVL3
C:\Users\stapi\AppData\Local\Temp\cclCjgQ5.s:1707   .text.igmp_tmr:000000000000003c .LVL153
C:\Users\stapi\AppData\Local\Temp\cclCjgQ5.s:1500   .text.igmp_leavegroup:0000000000000000 .LVL135
C:\Users\stapi\AppData\Local\Temp\cclCjgQ5.s:1524   .text.igmp_leavegroup:0000000000000022 .LVL138
C:\Users\stapi\AppData\Local\Temp\cclCjgQ5.s:1536   .text.igmp_leavegroup:000000000000003c .LVL140
C:\Users\stapi\AppData\Local\Temp\cclCjgQ5.s:1551   .text.igmp_leavegroup:0000000000000054 .LVL142
C:\Users\stapi\AppData\Local\Temp\cclCjgQ5.s:1563   .text.igmp_leavegroup:000000000000006e .LVL144
C:\Users\stapi\AppData\Local\Temp\cclCjgQ5.s:1576   .text.igmp_leavegroup:000000000000007c .LVL146
C:\Users\stapi\AppData\Local\Temp\cclCjgQ5.s:1522   .text.igmp_leavegroup:000000000000001e .LVL137
C:\Users\stapi\AppData\Local\Temp\cclCjgQ5.s:1549   .text.igmp_leavegroup:0000000000000050 .LVL141
C:\Users\stapi\AppData\Local\Temp\cclCjgQ5.s:1509   .text.igmp_leavegroup:0000000000000008 .LVL136
C:\Users\stapi\AppData\Local\Temp\cclCjgQ5.s:1619   .text.igmp_leavegroup:00000000000000b0 .LVL148
C:\Users\stapi\AppData\Local\Temp\cclCjgQ5.s:1127   .text.igmp_joingroup:0000000000000000 .LVL95
C:\Users\stapi\AppData\Local\Temp\cclCjgQ5.s:1150   .text.igmp_joingroup:0000000000000022 .LVL98
C:\Users\stapi\AppData\Local\Temp\cclCjgQ5.s:1162   .text.igmp_joingroup:000000000000003c .LVL100
C:\Users\stapi\AppData\Local\Temp\cclCjgQ5.s:1177   .text.igmp_joingroup:0000000000000054 .LVL102
C:\Users\stapi\AppData\Local\Temp\cclCjgQ5.s:1189   .text.igmp_joingroup:000000000000006e .LVL104
C:\Users\stapi\AppData\Local\Temp\cclCjgQ5.s:1202   .text.igmp_joingroup:000000000000007c .LVL106
C:\Users\stapi\AppData\Local\Temp\cclCjgQ5.s:1148   .text.igmp_joingroup:000000000000001e .LVL97
C:\Users\stapi\AppData\Local\Temp\cclCjgQ5.s:1175   .text.igmp_joingroup:0000000000000050 .LVL101
C:\Users\stapi\AppData\Local\Temp\cclCjgQ5.s:1135   .text.igmp_joingroup:0000000000000008 .LVL96
C:\Users\stapi\AppData\Local\Temp\cclCjgQ5.s:1235   .text.igmp_joingroup:00000000000000a0 .LVL107
C:\Users\stapi\AppData\Local\Temp\cclCjgQ5.s:723    .text.igmp_input:0000000000000000 .LVL58
C:\Users\stapi\AppData\Local\Temp\cclCjgQ5.s:750    .text.igmp_input:0000000000000018 .LVL60
C:\Users\stapi\AppData\Local\Temp\cclCjgQ5.s:740    .text.igmp_input:000000000000000e .LVL59
C:\Users\stapi\AppData\Local\Temp\cclCjgQ5.s:768    .text.igmp_input:000000000000002c .LVL62
C:\Users\stapi\AppData\Local\Temp\cclCjgQ5.s:864    .text.igmp_input:00000000000000b0 .LVL67
C:\Users\stapi\AppData\Local\Temp\cclCjgQ5.s:878    .text.igmp_input:00000000000000c8 .LVL70
C:\Users\stapi\AppData\Local\Temp\cclCjgQ5.s:888    .text.igmp_input:00000000000000cc .LVL71
C:\Users\stapi\AppData\Local\Temp\cclCjgQ5.s:907    .text.igmp_input:00000000000000e6 .LVL74
C:\Users\stapi\AppData\Local\Temp\cclCjgQ5.s:857    .text.igmp_input:00000000000000aa .LVL66
C:\Users\stapi\AppData\Local\Temp\cclCjgQ5.s:509    .text.igmp_lookup_group:0000000000000000 .LVL41
C:\Users\stapi\AppData\Local\Temp\cclCjgQ5.s:532    .text.igmp_lookup_group:0000000000000018 .LVL44
C:\Users\stapi\AppData\Local\Temp\cclCjgQ5.s:573    .text.igmp_lookup_group:0000000000000054 .LVL46
C:\Users\stapi\AppData\Local\Temp\cclCjgQ5.s:585    .text.igmp_lookup_group:000000000000006e .LVL48
C:\Users\stapi\AppData\Local\Temp\cclCjgQ5.s:613    .text.igmp_lookup_group:000000000000008c .LVL49
C:\Users\stapi\AppData\Local\Temp\cclCjgQ5.s:625    .text.igmp_lookup_group:00000000000000a6 .LVL51
C:\Users\stapi\AppData\Local\Temp\cclCjgQ5.s:520    .text.igmp_lookup_group:000000000000000a .LVL42
C:\Users\stapi\AppData\Local\Temp\cclCjgQ5.s:469    .text.igmp_lookfor_group:0000000000000000 .LVL38
C:\Users\stapi\AppData\Local\Temp\cclCjgQ5.s:473    .text.igmp_lookfor_group:0000000000000002 .LVL39
C:\Users\stapi\AppData\Local\Temp\cclCjgQ5.s:413    .text.igmp_report_groups:0000000000000000 .LVL32
C:\Users\stapi\AppData\Local\Temp\cclCjgQ5.s:430    .text.igmp_report_groups:000000000000000e .LVL34
C:\Users\stapi\AppData\Local\Temp\cclCjgQ5.s:452    .text.igmp_report_groups:0000000000000028 .LVL37
C:\Users\stapi\AppData\Local\Temp\cclCjgQ5.s:417    .text.igmp_report_groups:0000000000000002 .LVL33
C:\Users\stapi\AppData\Local\Temp\cclCjgQ5.s:339    .text.igmp_stop:0000000000000000 .LVL26
C:\Users\stapi\AppData\Local\Temp\cclCjgQ5.s:356    .text.igmp_stop:0000000000000010 .LVL28
C:\Users\stapi\AppData\Local\Temp\cclCjgQ5.s:349    .text.igmp_stop:000000000000000a .LVL27
C:\Users\stapi\AppData\Local\Temp\cclCjgQ5.s:649    .text.igmp_start:0000000000000000 .LVL52
C:\Users\stapi\AppData\Local\Temp\cclCjgQ5.s:683    .text.igmp_start:0000000000000030 .LVL54
C:\Users\stapi\AppData\Local\Temp\cclCjgQ5.s:705    .text.igmp_start:0000000000000046 .LVL56
C:\Users\stapi\AppData\Local\Temp\cclCjgQ5.s:710    .text.igmp_start:0000000000000048 .LVL57
C:\Users\stapi\AppData\Local\Temp\cclCjgQ5.s:934    .text.igmp_joingroup_netif:0000000000000000 .LVL75
C:\Users\stapi\AppData\Local\Temp\cclCjgQ5.s:955    .text.igmp_joingroup_netif:0000000000000022 .LVL77
C:\Users\stapi\AppData\Local\Temp\cclCjgQ5.s:967    .text.igmp_joingroup_netif:000000000000003c .LVL79
C:\Users\stapi\AppData\Local\Temp\cclCjgQ5.s:982    .text.igmp_joingroup_netif:0000000000000054 .LVL81
C:\Users\stapi\AppData\Local\Temp\cclCjgQ5.s:994    .text.igmp_joingroup_netif:000000000000006e .LVL83
C:\Users\stapi\AppData\Local\Temp\cclCjgQ5.s:1008   .text.igmp_joingroup_netif:000000000000007a .LVL85
C:\Users\stapi\AppData\Local\Temp\cclCjgQ5.s:953    .text.igmp_joingroup_netif:000000000000001e .LVL76
C:\Users\stapi\AppData\Local\Temp\cclCjgQ5.s:980    .text.igmp_joingroup_netif:0000000000000050 .LVL80
C:\Users\stapi\AppData\Local\Temp\cclCjgQ5.s:1013   .text.igmp_joingroup_netif:0000000000000082 .LVL86
C:\Users\stapi\AppData\Local\Temp\cclCjgQ5.s:1026   .text.igmp_joingroup_netif:00000000000000a0 .LVL88
C:\Users\stapi\AppData\Local\Temp\cclCjgQ5.s:1001   .text.igmp_joingroup_netif:0000000000000074 .LVL84
C:\Users\stapi\AppData\Local\Temp\cclCjgQ5.s:1099   .text.igmp_joingroup_netif:00000000000000ec .LVL94
C:\Users\stapi\AppData\Local\Temp\cclCjgQ5.s:1036   .text.igmp_joingroup_netif:00000000000000ac .LVL90
C:\Users\stapi\AppData\Local\Temp\cclCjgQ5.s:1082   .text.igmp_joingroup_netif:00000000000000dc .LVL93
C:\Users\stapi\AppData\Local\Temp\cclCjgQ5.s:1267   .text.igmp_leavegroup_netif:0000000000000000 .LVL110
C:\Users\stapi\AppData\Local\Temp\cclCjgQ5.s:1288   .text.igmp_leavegroup_netif:0000000000000022 .LVL112
C:\Users\stapi\AppData\Local\Temp\cclCjgQ5.s:1300   .text.igmp_leavegroup_netif:000000000000003c .LVL114
C:\Users\stapi\AppData\Local\Temp\cclCjgQ5.s:1315   .text.igmp_leavegroup_netif:0000000000000054 .LVL116
C:\Users\stapi\AppData\Local\Temp\cclCjgQ5.s:1327   .text.igmp_leavegroup_netif:000000000000006e .LVL118
C:\Users\stapi\AppData\Local\Temp\cclCjgQ5.s:1341   .text.igmp_leavegroup_netif:000000000000007a .LVL120
C:\Users\stapi\AppData\Local\Temp\cclCjgQ5.s:1286   .text.igmp_leavegroup_netif:000000000000001e .LVL111
C:\Users\stapi\AppData\Local\Temp\cclCjgQ5.s:1313   .text.igmp_leavegroup_netif:0000000000000050 .LVL115
C:\Users\stapi\AppData\Local\Temp\cclCjgQ5.s:1346   .text.igmp_leavegroup_netif:0000000000000082 .LVL121
C:\Users\stapi\AppData\Local\Temp\cclCjgQ5.s:1359   .text.igmp_leavegroup_netif:00000000000000a0 .LVL123
C:\Users\stapi\AppData\Local\Temp\cclCjgQ5.s:1334   .text.igmp_leavegroup_netif:0000000000000074 .LVL119
C:\Users\stapi\AppData\Local\Temp\cclCjgQ5.s:1450   .text.igmp_leavegroup_netif:00000000000000f6 .LVL131
C:\Users\stapi\AppData\Local\Temp\cclCjgQ5.s:1461   .text.igmp_leavegroup_netif:00000000000000fe .LVL132
C:\Users\stapi\AppData\Local\Temp\cclCjgQ5.s:1369   .text.igmp_leavegroup_netif:00000000000000ac .LVL125
C:\Users\stapi\AppData\Local\Temp\cclCjgQ5.s:1386   .text.igmp_leavegroup_netif:00000000000000bc .LVL126
C:\Users\stapi\AppData\Local\Temp\cclCjgQ5.s:1409   .text.igmp_leavegroup_netif:00000000000000c8 .LVL127
C:\Users\stapi\AppData\Local\Temp\cclCjgQ5.s:1471   .text.igmp_leavegroup_netif:0000000000000102 .LVL134
C:\Users\stapi\AppData\Local\Temp\cclCjgQ5.s:1469   .text.igmp_leavegroup_netif:0000000000000100 .LVL133
C:\Users\stapi\AppData\Local\Temp\cclCjgQ5.s:1776   .debug_info:0000000000000000 .Ldebug_info0
C:\Users\stapi\AppData\Local\Temp\cclCjgQ5.s:60     .text.igmp_delaying_member:0000000000000032 .LBE8
C:\Users\stapi\AppData\Local\Temp\cclCjgQ5.s:76     .text.igmp_delaying_member:0000000000000040 .LBB11
C:\Users\stapi\AppData\Local\Temp\cclCjgQ5.s:91     .text.igmp_delaying_member:0000000000000054 .LBE11
C:\Users\stapi\AppData\Local\Temp\cclCjgQ5.s:1452   .text.igmp_leavegroup_netif:00000000000000f6 .LBE30
C:\Users\stapi\AppData\Local\Temp\cclCjgQ5.s:1464   .text.igmp_leavegroup_netif:00000000000000fe .LBB37
C:\Users\stapi\AppData\Local\Temp\cclCjgQ5.s:1481   .text.igmp_leavegroup_netif:000000000000010a .LBE37
C:\Users\stapi\AppData\Local\Temp\cclCjgQ5.s:1412   .text.igmp_leavegroup_netif:00000000000000c8 .LBE32
C:\Users\stapi\AppData\Local\Temp\cclCjgQ5.s:1466   .text.igmp_leavegroup_netif:00000000000000fe .LBB35
C:\Users\stapi\AppData\Local\Temp\cclCjgQ5.s:1474   .text.igmp_leavegroup_netif:0000000000000102 .LBE35
C:\Users\stapi\AppData\Local\Temp\cclCjgQ5.s:1650   .text.igmp_tmr:0000000000000010 .LBB42
C:\Users\stapi\AppData\Local\Temp\cclCjgQ5.s:1662   .text.igmp_tmr:0000000000000018 .LBE42
C:\Users\stapi\AppData\Local\Temp\cclCjgQ5.s:1677   .text.igmp_tmr:0000000000000022 .LBB47
C:\Users\stapi\AppData\Local\Temp\cclCjgQ5.s:1686   .text.igmp_tmr:0000000000000026 .LBE47
C:\Users\stapi\AppData\Local\Temp\cclCjgQ5.s:1692   .text.igmp_tmr:000000000000002a .LBB48
C:\Users\stapi\AppData\Local\Temp\cclCjgQ5.s:1739   .text.igmp_tmr:0000000000000064 .LBE48
C:\Users\stapi\AppData\Local\Temp\cclCjgQ5.s:1661   .text.igmp_tmr:0000000000000018 .LBE43
C:\Users\stapi\AppData\Local\Temp\cclCjgQ5.s:1708   .text.igmp_tmr:000000000000003c .LBB46
C:\Users\stapi\AppData\Local\Temp\cclCjgQ5.s:1733   .text.igmp_tmr:0000000000000060 .LBE46

UNDEFINED SYMBOLS
__riscv_save_2
__riscv_restore_2
rand
__riscv_save_6
ip_addr_any
pbuf_alloc
printf
inet_chksum
ip4_output_if_opt
pbuf_free
__riscv_restore_6
__riscv_save_3
__riscv_restore_3
memp_free
__riscv_save_1
__riscv_restore_1
memp_malloc
__riscv_save_4
__riscv_restore_4
netif_list
__riscv_save_5
__riscv_restore_5
