   1              		.file	"inet_chksum.c"
   2              		.option nopic
   3              		.attribute arch, "rv32i2p0_m2p0_a2p0_f2p0_c2p0_b_p0p94"
   4              		.attribute unaligned_access, 0
   5              		.attribute stack_align, 16
   6              		.text
   7              	.Ltext0:
   8              		.cfi_sections	.debug_frame
   9              		.section	.text.lwip_standard_chksum,"ax",@progbits
  10              		.align	1
  11              		.globl	lwip_standard_chksum
  13              	lwip_standard_chksum:
  14              	.LFB4:
  15              		.file 1 "C:/Users/stapi/OneDrive/Desktop/GD32VW553/GD32VW55X_Wifi_BLE_SDK/GD32VW55x_RELEASE_V1.0.2
   1:C:/Users/stapi/OneDrive/Desktop/GD32VW553/GD32VW55X_Wifi_BLE_SDK/GD32VW55x_RELEASE_V1.0.2/MSDK/lwip/lwip-2.1.2/src/core\inet_chksum.c **** /**
   2:C:/Users/stapi/OneDrive/Desktop/GD32VW553/GD32VW55X_Wifi_BLE_SDK/GD32VW55x_RELEASE_V1.0.2/MSDK/lwip/lwip-2.1.2/src/core\inet_chksum.c ****  * @file
   3:C:/Users/stapi/OneDrive/Desktop/GD32VW553/GD32VW55X_Wifi_BLE_SDK/GD32VW55x_RELEASE_V1.0.2/MSDK/lwip/lwip-2.1.2/src/core\inet_chksum.c ****  * Internet checksum functions.\n
   4:C:/Users/stapi/OneDrive/Desktop/GD32VW553/GD32VW55X_Wifi_BLE_SDK/GD32VW55x_RELEASE_V1.0.2/MSDK/lwip/lwip-2.1.2/src/core\inet_chksum.c ****  *
   5:C:/Users/stapi/OneDrive/Desktop/GD32VW553/GD32VW55X_Wifi_BLE_SDK/GD32VW55x_RELEASE_V1.0.2/MSDK/lwip/lwip-2.1.2/src/core\inet_chksum.c ****  * These are some reference implementations of the checksum algorithm, with the
   6:C:/Users/stapi/OneDrive/Desktop/GD32VW553/GD32VW55X_Wifi_BLE_SDK/GD32VW55x_RELEASE_V1.0.2/MSDK/lwip/lwip-2.1.2/src/core\inet_chksum.c ****  * aim of being simple, correct and fully portable. Checksumming is the
   7:C:/Users/stapi/OneDrive/Desktop/GD32VW553/GD32VW55X_Wifi_BLE_SDK/GD32VW55x_RELEASE_V1.0.2/MSDK/lwip/lwip-2.1.2/src/core\inet_chksum.c ****  * first thing you would want to optimize for your platform. If you create
   8:C:/Users/stapi/OneDrive/Desktop/GD32VW553/GD32VW55X_Wifi_BLE_SDK/GD32VW55x_RELEASE_V1.0.2/MSDK/lwip/lwip-2.1.2/src/core\inet_chksum.c ****  * your own version, link it in and in your cc.h put:
   9:C:/Users/stapi/OneDrive/Desktop/GD32VW553/GD32VW55X_Wifi_BLE_SDK/GD32VW55x_RELEASE_V1.0.2/MSDK/lwip/lwip-2.1.2/src/core\inet_chksum.c ****  *
  10:C:/Users/stapi/OneDrive/Desktop/GD32VW553/GD32VW55X_Wifi_BLE_SDK/GD32VW55x_RELEASE_V1.0.2/MSDK/lwip/lwip-2.1.2/src/core\inet_chksum.c ****  * \#define LWIP_CHKSUM your_checksum_routine
  11:C:/Users/stapi/OneDrive/Desktop/GD32VW553/GD32VW55X_Wifi_BLE_SDK/GD32VW55x_RELEASE_V1.0.2/MSDK/lwip/lwip-2.1.2/src/core\inet_chksum.c ****  *
  12:C:/Users/stapi/OneDrive/Desktop/GD32VW553/GD32VW55X_Wifi_BLE_SDK/GD32VW55x_RELEASE_V1.0.2/MSDK/lwip/lwip-2.1.2/src/core\inet_chksum.c ****  * Or you can select from the implementations below by defining
  13:C:/Users/stapi/OneDrive/Desktop/GD32VW553/GD32VW55X_Wifi_BLE_SDK/GD32VW55x_RELEASE_V1.0.2/MSDK/lwip/lwip-2.1.2/src/core\inet_chksum.c ****  * LWIP_CHKSUM_ALGORITHM to 1, 2 or 3.
  14:C:/Users/stapi/OneDrive/Desktop/GD32VW553/GD32VW55X_Wifi_BLE_SDK/GD32VW55x_RELEASE_V1.0.2/MSDK/lwip/lwip-2.1.2/src/core\inet_chksum.c ****  */
  15:C:/Users/stapi/OneDrive/Desktop/GD32VW553/GD32VW55X_Wifi_BLE_SDK/GD32VW55x_RELEASE_V1.0.2/MSDK/lwip/lwip-2.1.2/src/core\inet_chksum.c **** 
  16:C:/Users/stapi/OneDrive/Desktop/GD32VW553/GD32VW55X_Wifi_BLE_SDK/GD32VW55x_RELEASE_V1.0.2/MSDK/lwip/lwip-2.1.2/src/core\inet_chksum.c **** /*
  17:C:/Users/stapi/OneDrive/Desktop/GD32VW553/GD32VW55X_Wifi_BLE_SDK/GD32VW55x_RELEASE_V1.0.2/MSDK/lwip/lwip-2.1.2/src/core\inet_chksum.c ****  * Copyright (c) 2001-2004 Swedish Institute of Computer Science.
  18:C:/Users/stapi/OneDrive/Desktop/GD32VW553/GD32VW55X_Wifi_BLE_SDK/GD32VW55x_RELEASE_V1.0.2/MSDK/lwip/lwip-2.1.2/src/core\inet_chksum.c ****  * All rights reserved.
  19:C:/Users/stapi/OneDrive/Desktop/GD32VW553/GD32VW55X_Wifi_BLE_SDK/GD32VW55x_RELEASE_V1.0.2/MSDK/lwip/lwip-2.1.2/src/core\inet_chksum.c ****  *
  20:C:/Users/stapi/OneDrive/Desktop/GD32VW553/GD32VW55X_Wifi_BLE_SDK/GD32VW55x_RELEASE_V1.0.2/MSDK/lwip/lwip-2.1.2/src/core\inet_chksum.c ****  * Redistribution and use in source and binary forms, with or without modification,
  21:C:/Users/stapi/OneDrive/Desktop/GD32VW553/GD32VW55X_Wifi_BLE_SDK/GD32VW55x_RELEASE_V1.0.2/MSDK/lwip/lwip-2.1.2/src/core\inet_chksum.c ****  * are permitted provided that the following conditions are met:
  22:C:/Users/stapi/OneDrive/Desktop/GD32VW553/GD32VW55X_Wifi_BLE_SDK/GD32VW55x_RELEASE_V1.0.2/MSDK/lwip/lwip-2.1.2/src/core\inet_chksum.c ****  *
  23:C:/Users/stapi/OneDrive/Desktop/GD32VW553/GD32VW55X_Wifi_BLE_SDK/GD32VW55x_RELEASE_V1.0.2/MSDK/lwip/lwip-2.1.2/src/core\inet_chksum.c ****  * 1. Redistributions of source code must retain the above copyright notice,
  24:C:/Users/stapi/OneDrive/Desktop/GD32VW553/GD32VW55X_Wifi_BLE_SDK/GD32VW55x_RELEASE_V1.0.2/MSDK/lwip/lwip-2.1.2/src/core\inet_chksum.c ****  *    this list of conditions and the following disclaimer.
  25:C:/Users/stapi/OneDrive/Desktop/GD32VW553/GD32VW55X_Wifi_BLE_SDK/GD32VW55x_RELEASE_V1.0.2/MSDK/lwip/lwip-2.1.2/src/core\inet_chksum.c ****  * 2. Redistributions in binary form must reproduce the above copyright notice,
  26:C:/Users/stapi/OneDrive/Desktop/GD32VW553/GD32VW55X_Wifi_BLE_SDK/GD32VW55x_RELEASE_V1.0.2/MSDK/lwip/lwip-2.1.2/src/core\inet_chksum.c ****  *    this list of conditions and the following disclaimer in the documentation
  27:C:/Users/stapi/OneDrive/Desktop/GD32VW553/GD32VW55X_Wifi_BLE_SDK/GD32VW55x_RELEASE_V1.0.2/MSDK/lwip/lwip-2.1.2/src/core\inet_chksum.c ****  *    and/or other materials provided with the distribution.
  28:C:/Users/stapi/OneDrive/Desktop/GD32VW553/GD32VW55X_Wifi_BLE_SDK/GD32VW55x_RELEASE_V1.0.2/MSDK/lwip/lwip-2.1.2/src/core\inet_chksum.c ****  * 3. The name of the author may not be used to endorse or promote products
  29:C:/Users/stapi/OneDrive/Desktop/GD32VW553/GD32VW55X_Wifi_BLE_SDK/GD32VW55x_RELEASE_V1.0.2/MSDK/lwip/lwip-2.1.2/src/core\inet_chksum.c ****  *    derived from this software without specific prior written permission.
  30:C:/Users/stapi/OneDrive/Desktop/GD32VW553/GD32VW55X_Wifi_BLE_SDK/GD32VW55x_RELEASE_V1.0.2/MSDK/lwip/lwip-2.1.2/src/core\inet_chksum.c ****  *
  31:C:/Users/stapi/OneDrive/Desktop/GD32VW553/GD32VW55X_Wifi_BLE_SDK/GD32VW55x_RELEASE_V1.0.2/MSDK/lwip/lwip-2.1.2/src/core\inet_chksum.c ****  * THIS SOFTWARE IS PROVIDED BY THE AUTHOR ``AS IS'' AND ANY EXPRESS OR IMPLIED
  32:C:/Users/stapi/OneDrive/Desktop/GD32VW553/GD32VW55X_Wifi_BLE_SDK/GD32VW55x_RELEASE_V1.0.2/MSDK/lwip/lwip-2.1.2/src/core\inet_chksum.c ****  * WARRANTIES, INCLUDING, BUT NOT LIMITED TO, THE IMPLIED WARRANTIES OF
  33:C:/Users/stapi/OneDrive/Desktop/GD32VW553/GD32VW55X_Wifi_BLE_SDK/GD32VW55x_RELEASE_V1.0.2/MSDK/lwip/lwip-2.1.2/src/core\inet_chksum.c ****  * MERCHANTABILITY AND FITNESS FOR A PARTICULAR PURPOSE ARE DISCLAIMED. IN NO EVENT
  34:C:/Users/stapi/OneDrive/Desktop/GD32VW553/GD32VW55X_Wifi_BLE_SDK/GD32VW55x_RELEASE_V1.0.2/MSDK/lwip/lwip-2.1.2/src/core\inet_chksum.c ****  * SHALL THE AUTHOR BE LIABLE FOR ANY DIRECT, INDIRECT, INCIDENTAL, SPECIAL,
  35:C:/Users/stapi/OneDrive/Desktop/GD32VW553/GD32VW55X_Wifi_BLE_SDK/GD32VW55x_RELEASE_V1.0.2/MSDK/lwip/lwip-2.1.2/src/core\inet_chksum.c ****  * EXEMPLARY, OR CONSEQUENTIAL DAMAGES (INCLUDING, BUT NOT LIMITED TO, PROCUREMENT
  36:C:/Users/stapi/OneDrive/Desktop/GD32VW553/GD32VW55X_Wifi_BLE_SDK/GD32VW55x_RELEASE_V1.0.2/MSDK/lwip/lwip-2.1.2/src/core\inet_chksum.c ****  * OF SUBSTITUTE GOODS OR SERVICES; LOSS OF USE, DATA, OR PROFITS; OR BUSINESS
  37:C:/Users/stapi/OneDrive/Desktop/GD32VW553/GD32VW55X_Wifi_BLE_SDK/GD32VW55x_RELEASE_V1.0.2/MSDK/lwip/lwip-2.1.2/src/core\inet_chksum.c ****  * INTERRUPTION) HOWEVER CAUSED AND ON ANY THEORY OF LIABILITY, WHETHER IN
  38:C:/Users/stapi/OneDrive/Desktop/GD32VW553/GD32VW55X_Wifi_BLE_SDK/GD32VW55x_RELEASE_V1.0.2/MSDK/lwip/lwip-2.1.2/src/core\inet_chksum.c ****  * CONTRACT, STRICT LIABILITY, OR TORT (INCLUDING NEGLIGENCE OR OTHERWISE) ARISING
  39:C:/Users/stapi/OneDrive/Desktop/GD32VW553/GD32VW55X_Wifi_BLE_SDK/GD32VW55x_RELEASE_V1.0.2/MSDK/lwip/lwip-2.1.2/src/core\inet_chksum.c ****  * IN ANY WAY OUT OF THE USE OF THIS SOFTWARE, EVEN IF ADVISED OF THE POSSIBILITY
  40:C:/Users/stapi/OneDrive/Desktop/GD32VW553/GD32VW55X_Wifi_BLE_SDK/GD32VW55x_RELEASE_V1.0.2/MSDK/lwip/lwip-2.1.2/src/core\inet_chksum.c ****  * OF SUCH DAMAGE.
  41:C:/Users/stapi/OneDrive/Desktop/GD32VW553/GD32VW55X_Wifi_BLE_SDK/GD32VW55x_RELEASE_V1.0.2/MSDK/lwip/lwip-2.1.2/src/core\inet_chksum.c ****  *
  42:C:/Users/stapi/OneDrive/Desktop/GD32VW553/GD32VW55X_Wifi_BLE_SDK/GD32VW55x_RELEASE_V1.0.2/MSDK/lwip/lwip-2.1.2/src/core\inet_chksum.c ****  * This file is part of the lwIP TCP/IP stack.
  43:C:/Users/stapi/OneDrive/Desktop/GD32VW553/GD32VW55X_Wifi_BLE_SDK/GD32VW55x_RELEASE_V1.0.2/MSDK/lwip/lwip-2.1.2/src/core\inet_chksum.c ****  *
  44:C:/Users/stapi/OneDrive/Desktop/GD32VW553/GD32VW55X_Wifi_BLE_SDK/GD32VW55x_RELEASE_V1.0.2/MSDK/lwip/lwip-2.1.2/src/core\inet_chksum.c ****  * Author: Adam Dunkels <adam@sics.se>
  45:C:/Users/stapi/OneDrive/Desktop/GD32VW553/GD32VW55X_Wifi_BLE_SDK/GD32VW55x_RELEASE_V1.0.2/MSDK/lwip/lwip-2.1.2/src/core\inet_chksum.c ****  *
  46:C:/Users/stapi/OneDrive/Desktop/GD32VW553/GD32VW55X_Wifi_BLE_SDK/GD32VW55x_RELEASE_V1.0.2/MSDK/lwip/lwip-2.1.2/src/core\inet_chksum.c ****  */
  47:C:/Users/stapi/OneDrive/Desktop/GD32VW553/GD32VW55X_Wifi_BLE_SDK/GD32VW55x_RELEASE_V1.0.2/MSDK/lwip/lwip-2.1.2/src/core\inet_chksum.c **** 
  48:C:/Users/stapi/OneDrive/Desktop/GD32VW553/GD32VW55X_Wifi_BLE_SDK/GD32VW55x_RELEASE_V1.0.2/MSDK/lwip/lwip-2.1.2/src/core\inet_chksum.c **** #include "lwip/opt.h"
  49:C:/Users/stapi/OneDrive/Desktop/GD32VW553/GD32VW55X_Wifi_BLE_SDK/GD32VW55x_RELEASE_V1.0.2/MSDK/lwip/lwip-2.1.2/src/core\inet_chksum.c **** 
  50:C:/Users/stapi/OneDrive/Desktop/GD32VW553/GD32VW55X_Wifi_BLE_SDK/GD32VW55x_RELEASE_V1.0.2/MSDK/lwip/lwip-2.1.2/src/core\inet_chksum.c **** #include "lwip/inet_chksum.h"
  51:C:/Users/stapi/OneDrive/Desktop/GD32VW553/GD32VW55X_Wifi_BLE_SDK/GD32VW55x_RELEASE_V1.0.2/MSDK/lwip/lwip-2.1.2/src/core\inet_chksum.c **** #include "lwip/def.h"
  52:C:/Users/stapi/OneDrive/Desktop/GD32VW553/GD32VW55X_Wifi_BLE_SDK/GD32VW55x_RELEASE_V1.0.2/MSDK/lwip/lwip-2.1.2/src/core\inet_chksum.c **** #include "lwip/ip_addr.h"
  53:C:/Users/stapi/OneDrive/Desktop/GD32VW553/GD32VW55X_Wifi_BLE_SDK/GD32VW55x_RELEASE_V1.0.2/MSDK/lwip/lwip-2.1.2/src/core\inet_chksum.c **** 
  54:C:/Users/stapi/OneDrive/Desktop/GD32VW553/GD32VW55X_Wifi_BLE_SDK/GD32VW55x_RELEASE_V1.0.2/MSDK/lwip/lwip-2.1.2/src/core\inet_chksum.c **** #include <string.h>
  55:C:/Users/stapi/OneDrive/Desktop/GD32VW553/GD32VW55X_Wifi_BLE_SDK/GD32VW55x_RELEASE_V1.0.2/MSDK/lwip/lwip-2.1.2/src/core\inet_chksum.c **** 
  56:C:/Users/stapi/OneDrive/Desktop/GD32VW553/GD32VW55X_Wifi_BLE_SDK/GD32VW55x_RELEASE_V1.0.2/MSDK/lwip/lwip-2.1.2/src/core\inet_chksum.c **** #ifndef LWIP_CHKSUM
  57:C:/Users/stapi/OneDrive/Desktop/GD32VW553/GD32VW55X_Wifi_BLE_SDK/GD32VW55x_RELEASE_V1.0.2/MSDK/lwip/lwip-2.1.2/src/core\inet_chksum.c **** # define LWIP_CHKSUM lwip_standard_chksum
  58:C:/Users/stapi/OneDrive/Desktop/GD32VW553/GD32VW55X_Wifi_BLE_SDK/GD32VW55x_RELEASE_V1.0.2/MSDK/lwip/lwip-2.1.2/src/core\inet_chksum.c **** # ifndef LWIP_CHKSUM_ALGORITHM
  59:C:/Users/stapi/OneDrive/Desktop/GD32VW553/GD32VW55X_Wifi_BLE_SDK/GD32VW55x_RELEASE_V1.0.2/MSDK/lwip/lwip-2.1.2/src/core\inet_chksum.c **** #  define LWIP_CHKSUM_ALGORITHM 2
  60:C:/Users/stapi/OneDrive/Desktop/GD32VW553/GD32VW55X_Wifi_BLE_SDK/GD32VW55x_RELEASE_V1.0.2/MSDK/lwip/lwip-2.1.2/src/core\inet_chksum.c **** # endif
  61:C:/Users/stapi/OneDrive/Desktop/GD32VW553/GD32VW55X_Wifi_BLE_SDK/GD32VW55x_RELEASE_V1.0.2/MSDK/lwip/lwip-2.1.2/src/core\inet_chksum.c **** u16_t lwip_standard_chksum(const void *dataptr, int len);
  62:C:/Users/stapi/OneDrive/Desktop/GD32VW553/GD32VW55X_Wifi_BLE_SDK/GD32VW55x_RELEASE_V1.0.2/MSDK/lwip/lwip-2.1.2/src/core\inet_chksum.c **** #endif
  63:C:/Users/stapi/OneDrive/Desktop/GD32VW553/GD32VW55X_Wifi_BLE_SDK/GD32VW55x_RELEASE_V1.0.2/MSDK/lwip/lwip-2.1.2/src/core\inet_chksum.c **** /* If none set: */
  64:C:/Users/stapi/OneDrive/Desktop/GD32VW553/GD32VW55X_Wifi_BLE_SDK/GD32VW55x_RELEASE_V1.0.2/MSDK/lwip/lwip-2.1.2/src/core\inet_chksum.c **** #ifndef LWIP_CHKSUM_ALGORITHM
  65:C:/Users/stapi/OneDrive/Desktop/GD32VW553/GD32VW55X_Wifi_BLE_SDK/GD32VW55x_RELEASE_V1.0.2/MSDK/lwip/lwip-2.1.2/src/core\inet_chksum.c **** # define LWIP_CHKSUM_ALGORITHM 0
  66:C:/Users/stapi/OneDrive/Desktop/GD32VW553/GD32VW55X_Wifi_BLE_SDK/GD32VW55x_RELEASE_V1.0.2/MSDK/lwip/lwip-2.1.2/src/core\inet_chksum.c **** #endif
  67:C:/Users/stapi/OneDrive/Desktop/GD32VW553/GD32VW55X_Wifi_BLE_SDK/GD32VW55x_RELEASE_V1.0.2/MSDK/lwip/lwip-2.1.2/src/core\inet_chksum.c **** 
  68:C:/Users/stapi/OneDrive/Desktop/GD32VW553/GD32VW55X_Wifi_BLE_SDK/GD32VW55x_RELEASE_V1.0.2/MSDK/lwip/lwip-2.1.2/src/core\inet_chksum.c **** #if (LWIP_CHKSUM_ALGORITHM == 1) /* Version #1 */
  69:C:/Users/stapi/OneDrive/Desktop/GD32VW553/GD32VW55X_Wifi_BLE_SDK/GD32VW55x_RELEASE_V1.0.2/MSDK/lwip/lwip-2.1.2/src/core\inet_chksum.c **** /**
  70:C:/Users/stapi/OneDrive/Desktop/GD32VW553/GD32VW55X_Wifi_BLE_SDK/GD32VW55x_RELEASE_V1.0.2/MSDK/lwip/lwip-2.1.2/src/core\inet_chksum.c ****  * lwip checksum
  71:C:/Users/stapi/OneDrive/Desktop/GD32VW553/GD32VW55X_Wifi_BLE_SDK/GD32VW55x_RELEASE_V1.0.2/MSDK/lwip/lwip-2.1.2/src/core\inet_chksum.c ****  *
  72:C:/Users/stapi/OneDrive/Desktop/GD32VW553/GD32VW55X_Wifi_BLE_SDK/GD32VW55x_RELEASE_V1.0.2/MSDK/lwip/lwip-2.1.2/src/core\inet_chksum.c ****  * @param dataptr points to start of data to be summed at any boundary
  73:C:/Users/stapi/OneDrive/Desktop/GD32VW553/GD32VW55X_Wifi_BLE_SDK/GD32VW55x_RELEASE_V1.0.2/MSDK/lwip/lwip-2.1.2/src/core\inet_chksum.c ****  * @param len length of data to be summed
  74:C:/Users/stapi/OneDrive/Desktop/GD32VW553/GD32VW55X_Wifi_BLE_SDK/GD32VW55x_RELEASE_V1.0.2/MSDK/lwip/lwip-2.1.2/src/core\inet_chksum.c ****  * @return host order (!) lwip checksum (non-inverted Internet sum)
  75:C:/Users/stapi/OneDrive/Desktop/GD32VW553/GD32VW55X_Wifi_BLE_SDK/GD32VW55x_RELEASE_V1.0.2/MSDK/lwip/lwip-2.1.2/src/core\inet_chksum.c ****  *
  76:C:/Users/stapi/OneDrive/Desktop/GD32VW553/GD32VW55X_Wifi_BLE_SDK/GD32VW55x_RELEASE_V1.0.2/MSDK/lwip/lwip-2.1.2/src/core\inet_chksum.c ****  * @note accumulator size limits summable length to 64k
  77:C:/Users/stapi/OneDrive/Desktop/GD32VW553/GD32VW55X_Wifi_BLE_SDK/GD32VW55x_RELEASE_V1.0.2/MSDK/lwip/lwip-2.1.2/src/core\inet_chksum.c ****  * @note host endianess is irrelevant (p3 RFC1071)
  78:C:/Users/stapi/OneDrive/Desktop/GD32VW553/GD32VW55X_Wifi_BLE_SDK/GD32VW55x_RELEASE_V1.0.2/MSDK/lwip/lwip-2.1.2/src/core\inet_chksum.c ****  */
  79:C:/Users/stapi/OneDrive/Desktop/GD32VW553/GD32VW55X_Wifi_BLE_SDK/GD32VW55x_RELEASE_V1.0.2/MSDK/lwip/lwip-2.1.2/src/core\inet_chksum.c **** u16_t
  80:C:/Users/stapi/OneDrive/Desktop/GD32VW553/GD32VW55X_Wifi_BLE_SDK/GD32VW55x_RELEASE_V1.0.2/MSDK/lwip/lwip-2.1.2/src/core\inet_chksum.c **** lwip_standard_chksum(const void *dataptr, int len)
  81:C:/Users/stapi/OneDrive/Desktop/GD32VW553/GD32VW55X_Wifi_BLE_SDK/GD32VW55x_RELEASE_V1.0.2/MSDK/lwip/lwip-2.1.2/src/core\inet_chksum.c **** {
  82:C:/Users/stapi/OneDrive/Desktop/GD32VW553/GD32VW55X_Wifi_BLE_SDK/GD32VW55x_RELEASE_V1.0.2/MSDK/lwip/lwip-2.1.2/src/core\inet_chksum.c ****   u32_t acc;
  83:C:/Users/stapi/OneDrive/Desktop/GD32VW553/GD32VW55X_Wifi_BLE_SDK/GD32VW55x_RELEASE_V1.0.2/MSDK/lwip/lwip-2.1.2/src/core\inet_chksum.c ****   u16_t src;
  84:C:/Users/stapi/OneDrive/Desktop/GD32VW553/GD32VW55X_Wifi_BLE_SDK/GD32VW55x_RELEASE_V1.0.2/MSDK/lwip/lwip-2.1.2/src/core\inet_chksum.c ****   const u8_t *octetptr;
  85:C:/Users/stapi/OneDrive/Desktop/GD32VW553/GD32VW55X_Wifi_BLE_SDK/GD32VW55x_RELEASE_V1.0.2/MSDK/lwip/lwip-2.1.2/src/core\inet_chksum.c **** 
  86:C:/Users/stapi/OneDrive/Desktop/GD32VW553/GD32VW55X_Wifi_BLE_SDK/GD32VW55x_RELEASE_V1.0.2/MSDK/lwip/lwip-2.1.2/src/core\inet_chksum.c ****   acc = 0;
  87:C:/Users/stapi/OneDrive/Desktop/GD32VW553/GD32VW55X_Wifi_BLE_SDK/GD32VW55x_RELEASE_V1.0.2/MSDK/lwip/lwip-2.1.2/src/core\inet_chksum.c ****   /* dataptr may be at odd or even addresses */
  88:C:/Users/stapi/OneDrive/Desktop/GD32VW553/GD32VW55X_Wifi_BLE_SDK/GD32VW55x_RELEASE_V1.0.2/MSDK/lwip/lwip-2.1.2/src/core\inet_chksum.c ****   octetptr = (const u8_t *)dataptr;
  89:C:/Users/stapi/OneDrive/Desktop/GD32VW553/GD32VW55X_Wifi_BLE_SDK/GD32VW55x_RELEASE_V1.0.2/MSDK/lwip/lwip-2.1.2/src/core\inet_chksum.c ****   while (len > 1) {
  90:C:/Users/stapi/OneDrive/Desktop/GD32VW553/GD32VW55X_Wifi_BLE_SDK/GD32VW55x_RELEASE_V1.0.2/MSDK/lwip/lwip-2.1.2/src/core\inet_chksum.c ****     /* declare first octet as most significant
  91:C:/Users/stapi/OneDrive/Desktop/GD32VW553/GD32VW55X_Wifi_BLE_SDK/GD32VW55x_RELEASE_V1.0.2/MSDK/lwip/lwip-2.1.2/src/core\inet_chksum.c ****        thus assume network order, ignoring host order */
  92:C:/Users/stapi/OneDrive/Desktop/GD32VW553/GD32VW55X_Wifi_BLE_SDK/GD32VW55x_RELEASE_V1.0.2/MSDK/lwip/lwip-2.1.2/src/core\inet_chksum.c ****     src = (*octetptr) << 8;
  93:C:/Users/stapi/OneDrive/Desktop/GD32VW553/GD32VW55X_Wifi_BLE_SDK/GD32VW55x_RELEASE_V1.0.2/MSDK/lwip/lwip-2.1.2/src/core\inet_chksum.c ****     octetptr++;
  94:C:/Users/stapi/OneDrive/Desktop/GD32VW553/GD32VW55X_Wifi_BLE_SDK/GD32VW55x_RELEASE_V1.0.2/MSDK/lwip/lwip-2.1.2/src/core\inet_chksum.c ****     /* declare second octet as least significant */
  95:C:/Users/stapi/OneDrive/Desktop/GD32VW553/GD32VW55X_Wifi_BLE_SDK/GD32VW55x_RELEASE_V1.0.2/MSDK/lwip/lwip-2.1.2/src/core\inet_chksum.c ****     src |= (*octetptr);
  96:C:/Users/stapi/OneDrive/Desktop/GD32VW553/GD32VW55X_Wifi_BLE_SDK/GD32VW55x_RELEASE_V1.0.2/MSDK/lwip/lwip-2.1.2/src/core\inet_chksum.c ****     octetptr++;
  97:C:/Users/stapi/OneDrive/Desktop/GD32VW553/GD32VW55X_Wifi_BLE_SDK/GD32VW55x_RELEASE_V1.0.2/MSDK/lwip/lwip-2.1.2/src/core\inet_chksum.c ****     acc += src;
  98:C:/Users/stapi/OneDrive/Desktop/GD32VW553/GD32VW55X_Wifi_BLE_SDK/GD32VW55x_RELEASE_V1.0.2/MSDK/lwip/lwip-2.1.2/src/core\inet_chksum.c ****     len -= 2;
  99:C:/Users/stapi/OneDrive/Desktop/GD32VW553/GD32VW55X_Wifi_BLE_SDK/GD32VW55x_RELEASE_V1.0.2/MSDK/lwip/lwip-2.1.2/src/core\inet_chksum.c ****   }
 100:C:/Users/stapi/OneDrive/Desktop/GD32VW553/GD32VW55X_Wifi_BLE_SDK/GD32VW55x_RELEASE_V1.0.2/MSDK/lwip/lwip-2.1.2/src/core\inet_chksum.c ****   if (len > 0) {
 101:C:/Users/stapi/OneDrive/Desktop/GD32VW553/GD32VW55X_Wifi_BLE_SDK/GD32VW55x_RELEASE_V1.0.2/MSDK/lwip/lwip-2.1.2/src/core\inet_chksum.c ****     /* accumulate remaining octet */
 102:C:/Users/stapi/OneDrive/Desktop/GD32VW553/GD32VW55X_Wifi_BLE_SDK/GD32VW55x_RELEASE_V1.0.2/MSDK/lwip/lwip-2.1.2/src/core\inet_chksum.c ****     src = (*octetptr) << 8;
 103:C:/Users/stapi/OneDrive/Desktop/GD32VW553/GD32VW55X_Wifi_BLE_SDK/GD32VW55x_RELEASE_V1.0.2/MSDK/lwip/lwip-2.1.2/src/core\inet_chksum.c ****     acc += src;
 104:C:/Users/stapi/OneDrive/Desktop/GD32VW553/GD32VW55X_Wifi_BLE_SDK/GD32VW55x_RELEASE_V1.0.2/MSDK/lwip/lwip-2.1.2/src/core\inet_chksum.c ****   }
 105:C:/Users/stapi/OneDrive/Desktop/GD32VW553/GD32VW55X_Wifi_BLE_SDK/GD32VW55x_RELEASE_V1.0.2/MSDK/lwip/lwip-2.1.2/src/core\inet_chksum.c ****   /* add deferred carry bits */
 106:C:/Users/stapi/OneDrive/Desktop/GD32VW553/GD32VW55X_Wifi_BLE_SDK/GD32VW55x_RELEASE_V1.0.2/MSDK/lwip/lwip-2.1.2/src/core\inet_chksum.c ****   acc = (acc >> 16) + (acc & 0x0000ffffUL);
 107:C:/Users/stapi/OneDrive/Desktop/GD32VW553/GD32VW55X_Wifi_BLE_SDK/GD32VW55x_RELEASE_V1.0.2/MSDK/lwip/lwip-2.1.2/src/core\inet_chksum.c ****   if ((acc & 0xffff0000UL) != 0) {
 108:C:/Users/stapi/OneDrive/Desktop/GD32VW553/GD32VW55X_Wifi_BLE_SDK/GD32VW55x_RELEASE_V1.0.2/MSDK/lwip/lwip-2.1.2/src/core\inet_chksum.c ****     acc = (acc >> 16) + (acc & 0x0000ffffUL);
 109:C:/Users/stapi/OneDrive/Desktop/GD32VW553/GD32VW55X_Wifi_BLE_SDK/GD32VW55x_RELEASE_V1.0.2/MSDK/lwip/lwip-2.1.2/src/core\inet_chksum.c ****   }
 110:C:/Users/stapi/OneDrive/Desktop/GD32VW553/GD32VW55X_Wifi_BLE_SDK/GD32VW55x_RELEASE_V1.0.2/MSDK/lwip/lwip-2.1.2/src/core\inet_chksum.c ****   /* This maybe a little confusing: reorder sum using lwip_htons()
 111:C:/Users/stapi/OneDrive/Desktop/GD32VW553/GD32VW55X_Wifi_BLE_SDK/GD32VW55x_RELEASE_V1.0.2/MSDK/lwip/lwip-2.1.2/src/core\inet_chksum.c ****      instead of lwip_ntohs() since it has a little less call overhead.
 112:C:/Users/stapi/OneDrive/Desktop/GD32VW553/GD32VW55X_Wifi_BLE_SDK/GD32VW55x_RELEASE_V1.0.2/MSDK/lwip/lwip-2.1.2/src/core\inet_chksum.c ****      The caller must invert bits for Internet sum ! */
 113:C:/Users/stapi/OneDrive/Desktop/GD32VW553/GD32VW55X_Wifi_BLE_SDK/GD32VW55x_RELEASE_V1.0.2/MSDK/lwip/lwip-2.1.2/src/core\inet_chksum.c ****   return lwip_htons((u16_t)acc);
 114:C:/Users/stapi/OneDrive/Desktop/GD32VW553/GD32VW55X_Wifi_BLE_SDK/GD32VW55x_RELEASE_V1.0.2/MSDK/lwip/lwip-2.1.2/src/core\inet_chksum.c **** }
 115:C:/Users/stapi/OneDrive/Desktop/GD32VW553/GD32VW55X_Wifi_BLE_SDK/GD32VW55x_RELEASE_V1.0.2/MSDK/lwip/lwip-2.1.2/src/core\inet_chksum.c **** #endif
 116:C:/Users/stapi/OneDrive/Desktop/GD32VW553/GD32VW55X_Wifi_BLE_SDK/GD32VW55x_RELEASE_V1.0.2/MSDK/lwip/lwip-2.1.2/src/core\inet_chksum.c **** 
 117:C:/Users/stapi/OneDrive/Desktop/GD32VW553/GD32VW55X_Wifi_BLE_SDK/GD32VW55x_RELEASE_V1.0.2/MSDK/lwip/lwip-2.1.2/src/core\inet_chksum.c **** #if (LWIP_CHKSUM_ALGORITHM == 2) /* Alternative version #2 */
 118:C:/Users/stapi/OneDrive/Desktop/GD32VW553/GD32VW55X_Wifi_BLE_SDK/GD32VW55x_RELEASE_V1.0.2/MSDK/lwip/lwip-2.1.2/src/core\inet_chksum.c **** /*
 119:C:/Users/stapi/OneDrive/Desktop/GD32VW553/GD32VW55X_Wifi_BLE_SDK/GD32VW55x_RELEASE_V1.0.2/MSDK/lwip/lwip-2.1.2/src/core\inet_chksum.c ****  * Curt McDowell
 120:C:/Users/stapi/OneDrive/Desktop/GD32VW553/GD32VW55X_Wifi_BLE_SDK/GD32VW55x_RELEASE_V1.0.2/MSDK/lwip/lwip-2.1.2/src/core\inet_chksum.c ****  * Broadcom Corp.
 121:C:/Users/stapi/OneDrive/Desktop/GD32VW553/GD32VW55X_Wifi_BLE_SDK/GD32VW55x_RELEASE_V1.0.2/MSDK/lwip/lwip-2.1.2/src/core\inet_chksum.c ****  * csm@broadcom.com
 122:C:/Users/stapi/OneDrive/Desktop/GD32VW553/GD32VW55X_Wifi_BLE_SDK/GD32VW55x_RELEASE_V1.0.2/MSDK/lwip/lwip-2.1.2/src/core\inet_chksum.c ****  *
 123:C:/Users/stapi/OneDrive/Desktop/GD32VW553/GD32VW55X_Wifi_BLE_SDK/GD32VW55x_RELEASE_V1.0.2/MSDK/lwip/lwip-2.1.2/src/core\inet_chksum.c ****  * IP checksum two bytes at a time with support for
 124:C:/Users/stapi/OneDrive/Desktop/GD32VW553/GD32VW55X_Wifi_BLE_SDK/GD32VW55x_RELEASE_V1.0.2/MSDK/lwip/lwip-2.1.2/src/core\inet_chksum.c ****  * unaligned buffer.
 125:C:/Users/stapi/OneDrive/Desktop/GD32VW553/GD32VW55X_Wifi_BLE_SDK/GD32VW55x_RELEASE_V1.0.2/MSDK/lwip/lwip-2.1.2/src/core\inet_chksum.c ****  * Works for len up to and including 0x20000.
 126:C:/Users/stapi/OneDrive/Desktop/GD32VW553/GD32VW55X_Wifi_BLE_SDK/GD32VW55x_RELEASE_V1.0.2/MSDK/lwip/lwip-2.1.2/src/core\inet_chksum.c ****  * by Curt McDowell, Broadcom Corp. 12/08/2005
 127:C:/Users/stapi/OneDrive/Desktop/GD32VW553/GD32VW55X_Wifi_BLE_SDK/GD32VW55x_RELEASE_V1.0.2/MSDK/lwip/lwip-2.1.2/src/core\inet_chksum.c ****  *
 128:C:/Users/stapi/OneDrive/Desktop/GD32VW553/GD32VW55X_Wifi_BLE_SDK/GD32VW55x_RELEASE_V1.0.2/MSDK/lwip/lwip-2.1.2/src/core\inet_chksum.c ****  * @param dataptr points to start of data to be summed at any boundary
 129:C:/Users/stapi/OneDrive/Desktop/GD32VW553/GD32VW55X_Wifi_BLE_SDK/GD32VW55x_RELEASE_V1.0.2/MSDK/lwip/lwip-2.1.2/src/core\inet_chksum.c ****  * @param len length of data to be summed
 130:C:/Users/stapi/OneDrive/Desktop/GD32VW553/GD32VW55X_Wifi_BLE_SDK/GD32VW55x_RELEASE_V1.0.2/MSDK/lwip/lwip-2.1.2/src/core\inet_chksum.c ****  * @return host order (!) lwip checksum (non-inverted Internet sum)
 131:C:/Users/stapi/OneDrive/Desktop/GD32VW553/GD32VW55X_Wifi_BLE_SDK/GD32VW55x_RELEASE_V1.0.2/MSDK/lwip/lwip-2.1.2/src/core\inet_chksum.c ****  */
 132:C:/Users/stapi/OneDrive/Desktop/GD32VW553/GD32VW55X_Wifi_BLE_SDK/GD32VW55x_RELEASE_V1.0.2/MSDK/lwip/lwip-2.1.2/src/core\inet_chksum.c **** u16_t
 133:C:/Users/stapi/OneDrive/Desktop/GD32VW553/GD32VW55X_Wifi_BLE_SDK/GD32VW55x_RELEASE_V1.0.2/MSDK/lwip/lwip-2.1.2/src/core\inet_chksum.c **** lwip_standard_chksum(const void *dataptr, int len)
 134:C:/Users/stapi/OneDrive/Desktop/GD32VW553/GD32VW55X_Wifi_BLE_SDK/GD32VW55x_RELEASE_V1.0.2/MSDK/lwip/lwip-2.1.2/src/core\inet_chksum.c **** {
 135:C:/Users/stapi/OneDrive/Desktop/GD32VW553/GD32VW55X_Wifi_BLE_SDK/GD32VW55x_RELEASE_V1.0.2/MSDK/lwip/lwip-2.1.2/src/core\inet_chksum.c ****   const u8_t *pb = (const u8_t *)dataptr;
 136:C:/Users/stapi/OneDrive/Desktop/GD32VW553/GD32VW55X_Wifi_BLE_SDK/GD32VW55x_RELEASE_V1.0.2/MSDK/lwip/lwip-2.1.2/src/core\inet_chksum.c ****   const u16_t *ps;
 137:C:/Users/stapi/OneDrive/Desktop/GD32VW553/GD32VW55X_Wifi_BLE_SDK/GD32VW55x_RELEASE_V1.0.2/MSDK/lwip/lwip-2.1.2/src/core\inet_chksum.c ****   u16_t t = 0;
 138:C:/Users/stapi/OneDrive/Desktop/GD32VW553/GD32VW55X_Wifi_BLE_SDK/GD32VW55x_RELEASE_V1.0.2/MSDK/lwip/lwip-2.1.2/src/core\inet_chksum.c ****   u32_t sum = 0;
 139:C:/Users/stapi/OneDrive/Desktop/GD32VW553/GD32VW55X_Wifi_BLE_SDK/GD32VW55x_RELEASE_V1.0.2/MSDK/lwip/lwip-2.1.2/src/core\inet_chksum.c ****   int odd = ((mem_ptr_t)pb & 1);
 140:C:/Users/stapi/OneDrive/Desktop/GD32VW553/GD32VW55X_Wifi_BLE_SDK/GD32VW55x_RELEASE_V1.0.2/MSDK/lwip/lwip-2.1.2/src/core\inet_chksum.c **** 
 141:C:/Users/stapi/OneDrive/Desktop/GD32VW553/GD32VW55X_Wifi_BLE_SDK/GD32VW55x_RELEASE_V1.0.2/MSDK/lwip/lwip-2.1.2/src/core\inet_chksum.c ****   /* Get aligned to u16_t */
 142:C:/Users/stapi/OneDrive/Desktop/GD32VW553/GD32VW55X_Wifi_BLE_SDK/GD32VW55x_RELEASE_V1.0.2/MSDK/lwip/lwip-2.1.2/src/core\inet_chksum.c ****   if (odd && len > 0) {
 143:C:/Users/stapi/OneDrive/Desktop/GD32VW553/GD32VW55X_Wifi_BLE_SDK/GD32VW55x_RELEASE_V1.0.2/MSDK/lwip/lwip-2.1.2/src/core\inet_chksum.c ****     ((u8_t *)&t)[1] = *pb++;
 144:C:/Users/stapi/OneDrive/Desktop/GD32VW553/GD32VW55X_Wifi_BLE_SDK/GD32VW55x_RELEASE_V1.0.2/MSDK/lwip/lwip-2.1.2/src/core\inet_chksum.c ****     len--;
 145:C:/Users/stapi/OneDrive/Desktop/GD32VW553/GD32VW55X_Wifi_BLE_SDK/GD32VW55x_RELEASE_V1.0.2/MSDK/lwip/lwip-2.1.2/src/core\inet_chksum.c ****   }
 146:C:/Users/stapi/OneDrive/Desktop/GD32VW553/GD32VW55X_Wifi_BLE_SDK/GD32VW55x_RELEASE_V1.0.2/MSDK/lwip/lwip-2.1.2/src/core\inet_chksum.c **** 
 147:C:/Users/stapi/OneDrive/Desktop/GD32VW553/GD32VW55X_Wifi_BLE_SDK/GD32VW55x_RELEASE_V1.0.2/MSDK/lwip/lwip-2.1.2/src/core\inet_chksum.c ****   /* Add the bulk of the data */
 148:C:/Users/stapi/OneDrive/Desktop/GD32VW553/GD32VW55X_Wifi_BLE_SDK/GD32VW55x_RELEASE_V1.0.2/MSDK/lwip/lwip-2.1.2/src/core\inet_chksum.c ****   ps = (const u16_t *)(const void *)pb;
 149:C:/Users/stapi/OneDrive/Desktop/GD32VW553/GD32VW55X_Wifi_BLE_SDK/GD32VW55x_RELEASE_V1.0.2/MSDK/lwip/lwip-2.1.2/src/core\inet_chksum.c ****   while (len > 1) {
 150:C:/Users/stapi/OneDrive/Desktop/GD32VW553/GD32VW55X_Wifi_BLE_SDK/GD32VW55x_RELEASE_V1.0.2/MSDK/lwip/lwip-2.1.2/src/core\inet_chksum.c ****     sum += *ps++;
 151:C:/Users/stapi/OneDrive/Desktop/GD32VW553/GD32VW55X_Wifi_BLE_SDK/GD32VW55x_RELEASE_V1.0.2/MSDK/lwip/lwip-2.1.2/src/core\inet_chksum.c ****     len -= 2;
 152:C:/Users/stapi/OneDrive/Desktop/GD32VW553/GD32VW55X_Wifi_BLE_SDK/GD32VW55x_RELEASE_V1.0.2/MSDK/lwip/lwip-2.1.2/src/core\inet_chksum.c ****   }
 153:C:/Users/stapi/OneDrive/Desktop/GD32VW553/GD32VW55X_Wifi_BLE_SDK/GD32VW55x_RELEASE_V1.0.2/MSDK/lwip/lwip-2.1.2/src/core\inet_chksum.c **** 
 154:C:/Users/stapi/OneDrive/Desktop/GD32VW553/GD32VW55X_Wifi_BLE_SDK/GD32VW55x_RELEASE_V1.0.2/MSDK/lwip/lwip-2.1.2/src/core\inet_chksum.c ****   /* Consume left-over byte, if any */
 155:C:/Users/stapi/OneDrive/Desktop/GD32VW553/GD32VW55X_Wifi_BLE_SDK/GD32VW55x_RELEASE_V1.0.2/MSDK/lwip/lwip-2.1.2/src/core\inet_chksum.c ****   if (len > 0) {
 156:C:/Users/stapi/OneDrive/Desktop/GD32VW553/GD32VW55X_Wifi_BLE_SDK/GD32VW55x_RELEASE_V1.0.2/MSDK/lwip/lwip-2.1.2/src/core\inet_chksum.c ****     ((u8_t *)&t)[0] = *(const u8_t *)ps;
 157:C:/Users/stapi/OneDrive/Desktop/GD32VW553/GD32VW55X_Wifi_BLE_SDK/GD32VW55x_RELEASE_V1.0.2/MSDK/lwip/lwip-2.1.2/src/core\inet_chksum.c ****   }
 158:C:/Users/stapi/OneDrive/Desktop/GD32VW553/GD32VW55X_Wifi_BLE_SDK/GD32VW55x_RELEASE_V1.0.2/MSDK/lwip/lwip-2.1.2/src/core\inet_chksum.c **** 
 159:C:/Users/stapi/OneDrive/Desktop/GD32VW553/GD32VW55X_Wifi_BLE_SDK/GD32VW55x_RELEASE_V1.0.2/MSDK/lwip/lwip-2.1.2/src/core\inet_chksum.c ****   /* Add end bytes */
 160:C:/Users/stapi/OneDrive/Desktop/GD32VW553/GD32VW55X_Wifi_BLE_SDK/GD32VW55x_RELEASE_V1.0.2/MSDK/lwip/lwip-2.1.2/src/core\inet_chksum.c ****   sum += t;
 161:C:/Users/stapi/OneDrive/Desktop/GD32VW553/GD32VW55X_Wifi_BLE_SDK/GD32VW55x_RELEASE_V1.0.2/MSDK/lwip/lwip-2.1.2/src/core\inet_chksum.c **** 
 162:C:/Users/stapi/OneDrive/Desktop/GD32VW553/GD32VW55X_Wifi_BLE_SDK/GD32VW55x_RELEASE_V1.0.2/MSDK/lwip/lwip-2.1.2/src/core\inet_chksum.c ****   /* Fold 32-bit sum to 16 bits
 163:C:/Users/stapi/OneDrive/Desktop/GD32VW553/GD32VW55X_Wifi_BLE_SDK/GD32VW55x_RELEASE_V1.0.2/MSDK/lwip/lwip-2.1.2/src/core\inet_chksum.c ****      calling this twice is probably faster than if statements... */
 164:C:/Users/stapi/OneDrive/Desktop/GD32VW553/GD32VW55X_Wifi_BLE_SDK/GD32VW55x_RELEASE_V1.0.2/MSDK/lwip/lwip-2.1.2/src/core\inet_chksum.c ****   sum = FOLD_U32T(sum);
 165:C:/Users/stapi/OneDrive/Desktop/GD32VW553/GD32VW55X_Wifi_BLE_SDK/GD32VW55x_RELEASE_V1.0.2/MSDK/lwip/lwip-2.1.2/src/core\inet_chksum.c ****   sum = FOLD_U32T(sum);
 166:C:/Users/stapi/OneDrive/Desktop/GD32VW553/GD32VW55X_Wifi_BLE_SDK/GD32VW55x_RELEASE_V1.0.2/MSDK/lwip/lwip-2.1.2/src/core\inet_chksum.c **** 
 167:C:/Users/stapi/OneDrive/Desktop/GD32VW553/GD32VW55X_Wifi_BLE_SDK/GD32VW55x_RELEASE_V1.0.2/MSDK/lwip/lwip-2.1.2/src/core\inet_chksum.c ****   /* Swap if alignment was odd */
 168:C:/Users/stapi/OneDrive/Desktop/GD32VW553/GD32VW55X_Wifi_BLE_SDK/GD32VW55x_RELEASE_V1.0.2/MSDK/lwip/lwip-2.1.2/src/core\inet_chksum.c ****   if (odd) {
 169:C:/Users/stapi/OneDrive/Desktop/GD32VW553/GD32VW55X_Wifi_BLE_SDK/GD32VW55x_RELEASE_V1.0.2/MSDK/lwip/lwip-2.1.2/src/core\inet_chksum.c ****     sum = SWAP_BYTES_IN_WORD(sum);
 170:C:/Users/stapi/OneDrive/Desktop/GD32VW553/GD32VW55X_Wifi_BLE_SDK/GD32VW55x_RELEASE_V1.0.2/MSDK/lwip/lwip-2.1.2/src/core\inet_chksum.c ****   }
 171:C:/Users/stapi/OneDrive/Desktop/GD32VW553/GD32VW55X_Wifi_BLE_SDK/GD32VW55x_RELEASE_V1.0.2/MSDK/lwip/lwip-2.1.2/src/core\inet_chksum.c **** 
 172:C:/Users/stapi/OneDrive/Desktop/GD32VW553/GD32VW55X_Wifi_BLE_SDK/GD32VW55x_RELEASE_V1.0.2/MSDK/lwip/lwip-2.1.2/src/core\inet_chksum.c ****   return (u16_t)sum;
 173:C:/Users/stapi/OneDrive/Desktop/GD32VW553/GD32VW55X_Wifi_BLE_SDK/GD32VW55x_RELEASE_V1.0.2/MSDK/lwip/lwip-2.1.2/src/core\inet_chksum.c **** }
 174:C:/Users/stapi/OneDrive/Desktop/GD32VW553/GD32VW55X_Wifi_BLE_SDK/GD32VW55x_RELEASE_V1.0.2/MSDK/lwip/lwip-2.1.2/src/core\inet_chksum.c **** #endif
 175:C:/Users/stapi/OneDrive/Desktop/GD32VW553/GD32VW55X_Wifi_BLE_SDK/GD32VW55x_RELEASE_V1.0.2/MSDK/lwip/lwip-2.1.2/src/core\inet_chksum.c **** 
 176:C:/Users/stapi/OneDrive/Desktop/GD32VW553/GD32VW55X_Wifi_BLE_SDK/GD32VW55x_RELEASE_V1.0.2/MSDK/lwip/lwip-2.1.2/src/core\inet_chksum.c **** #if (LWIP_CHKSUM_ALGORITHM == 3) /* Alternative version #3 */
 177:C:/Users/stapi/OneDrive/Desktop/GD32VW553/GD32VW55X_Wifi_BLE_SDK/GD32VW55x_RELEASE_V1.0.2/MSDK/lwip/lwip-2.1.2/src/core\inet_chksum.c **** /**
 178:C:/Users/stapi/OneDrive/Desktop/GD32VW553/GD32VW55X_Wifi_BLE_SDK/GD32VW55x_RELEASE_V1.0.2/MSDK/lwip/lwip-2.1.2/src/core\inet_chksum.c ****  * An optimized checksum routine. Basically, it uses loop-unrolling on
 179:C:/Users/stapi/OneDrive/Desktop/GD32VW553/GD32VW55X_Wifi_BLE_SDK/GD32VW55x_RELEASE_V1.0.2/MSDK/lwip/lwip-2.1.2/src/core\inet_chksum.c ****  * the checksum loop, treating the head and tail bytes specially, whereas
 180:C:/Users/stapi/OneDrive/Desktop/GD32VW553/GD32VW55X_Wifi_BLE_SDK/GD32VW55x_RELEASE_V1.0.2/MSDK/lwip/lwip-2.1.2/src/core\inet_chksum.c ****  * the inner loop acts on 8 bytes at a time.
 181:C:/Users/stapi/OneDrive/Desktop/GD32VW553/GD32VW55X_Wifi_BLE_SDK/GD32VW55x_RELEASE_V1.0.2/MSDK/lwip/lwip-2.1.2/src/core\inet_chksum.c ****  *
 182:C:/Users/stapi/OneDrive/Desktop/GD32VW553/GD32VW55X_Wifi_BLE_SDK/GD32VW55x_RELEASE_V1.0.2/MSDK/lwip/lwip-2.1.2/src/core\inet_chksum.c ****  * @arg start of buffer to be checksummed. May be an odd byte address.
 183:C:/Users/stapi/OneDrive/Desktop/GD32VW553/GD32VW55X_Wifi_BLE_SDK/GD32VW55x_RELEASE_V1.0.2/MSDK/lwip/lwip-2.1.2/src/core\inet_chksum.c ****  * @len number of bytes in the buffer to be checksummed.
 184:C:/Users/stapi/OneDrive/Desktop/GD32VW553/GD32VW55X_Wifi_BLE_SDK/GD32VW55x_RELEASE_V1.0.2/MSDK/lwip/lwip-2.1.2/src/core\inet_chksum.c ****  * @return host order (!) lwip checksum (non-inverted Internet sum)
 185:C:/Users/stapi/OneDrive/Desktop/GD32VW553/GD32VW55X_Wifi_BLE_SDK/GD32VW55x_RELEASE_V1.0.2/MSDK/lwip/lwip-2.1.2/src/core\inet_chksum.c ****  *
 186:C:/Users/stapi/OneDrive/Desktop/GD32VW553/GD32VW55X_Wifi_BLE_SDK/GD32VW55x_RELEASE_V1.0.2/MSDK/lwip/lwip-2.1.2/src/core\inet_chksum.c ****  * by Curt McDowell, Broadcom Corp. December 8th, 2005
 187:C:/Users/stapi/OneDrive/Desktop/GD32VW553/GD32VW55X_Wifi_BLE_SDK/GD32VW55x_RELEASE_V1.0.2/MSDK/lwip/lwip-2.1.2/src/core\inet_chksum.c ****  */
 188:C:/Users/stapi/OneDrive/Desktop/GD32VW553/GD32VW55X_Wifi_BLE_SDK/GD32VW55x_RELEASE_V1.0.2/MSDK/lwip/lwip-2.1.2/src/core\inet_chksum.c **** u16_t
 189:C:/Users/stapi/OneDrive/Desktop/GD32VW553/GD32VW55X_Wifi_BLE_SDK/GD32VW55x_RELEASE_V1.0.2/MSDK/lwip/lwip-2.1.2/src/core\inet_chksum.c **** lwip_standard_chksum(const void *dataptr, int len)
 190:C:/Users/stapi/OneDrive/Desktop/GD32VW553/GD32VW55X_Wifi_BLE_SDK/GD32VW55x_RELEASE_V1.0.2/MSDK/lwip/lwip-2.1.2/src/core\inet_chksum.c **** {
  16              		.loc 1 190 1
  17              		.cfi_startproc
  18              	.LVL0:
 191:C:/Users/stapi/OneDrive/Desktop/GD32VW553/GD32VW55X_Wifi_BLE_SDK/GD32VW55x_RELEASE_V1.0.2/MSDK/lwip/lwip-2.1.2/src/core\inet_chksum.c ****   const u8_t *pb = (const u8_t *)dataptr;
  19              		.loc 1 191 3
 192:C:/Users/stapi/OneDrive/Desktop/GD32VW553/GD32VW55X_Wifi_BLE_SDK/GD32VW55x_RELEASE_V1.0.2/MSDK/lwip/lwip-2.1.2/src/core\inet_chksum.c ****   const u16_t *ps;
  20              		.loc 1 192 3
 193:C:/Users/stapi/OneDrive/Desktop/GD32VW553/GD32VW55X_Wifi_BLE_SDK/GD32VW55x_RELEASE_V1.0.2/MSDK/lwip/lwip-2.1.2/src/core\inet_chksum.c ****   u16_t t = 0;
  21              		.loc 1 193 3
 190:C:/Users/stapi/OneDrive/Desktop/GD32VW553/GD32VW55X_Wifi_BLE_SDK/GD32VW55x_RELEASE_V1.0.2/MSDK/lwip/lwip-2.1.2/src/core\inet_chksum.c ****   const u8_t *pb = (const u8_t *)dataptr;
  22              		.loc 1 190 1 is_stmt 0
  23 0000 4111     		addi	sp,sp,-16
  24              		.cfi_def_cfa_offset 16
  25              		.loc 1 193 9
  26 0002 23170100 		sh	zero,14(sp)
 194:C:/Users/stapi/OneDrive/Desktop/GD32VW553/GD32VW55X_Wifi_BLE_SDK/GD32VW55x_RELEASE_V1.0.2/MSDK/lwip/lwip-2.1.2/src/core\inet_chksum.c ****   const u32_t *pl;
  27              		.loc 1 194 3 is_stmt 1
 195:C:/Users/stapi/OneDrive/Desktop/GD32VW553/GD32VW55X_Wifi_BLE_SDK/GD32VW55x_RELEASE_V1.0.2/MSDK/lwip/lwip-2.1.2/src/core\inet_chksum.c ****   u32_t sum = 0, tmp;
  28              		.loc 1 195 3
  29              	.LVL1:
 196:C:/Users/stapi/OneDrive/Desktop/GD32VW553/GD32VW55X_Wifi_BLE_SDK/GD32VW55x_RELEASE_V1.0.2/MSDK/lwip/lwip-2.1.2/src/core\inet_chksum.c ****   /* starts at odd byte address? */
 197:C:/Users/stapi/OneDrive/Desktop/GD32VW553/GD32VW55X_Wifi_BLE_SDK/GD32VW55x_RELEASE_V1.0.2/MSDK/lwip/lwip-2.1.2/src/core\inet_chksum.c ****   int odd = ((mem_ptr_t)pb & 1);
  30              		.loc 1 197 3
  31              		.loc 1 197 7 is_stmt 0
  32 0006 93761500 		andi	a3,a0,1
  33              	.LVL2:
 198:C:/Users/stapi/OneDrive/Desktop/GD32VW553/GD32VW55X_Wifi_BLE_SDK/GD32VW55x_RELEASE_V1.0.2/MSDK/lwip/lwip-2.1.2/src/core\inet_chksum.c **** 
 199:C:/Users/stapi/OneDrive/Desktop/GD32VW553/GD32VW55X_Wifi_BLE_SDK/GD32VW55x_RELEASE_V1.0.2/MSDK/lwip/lwip-2.1.2/src/core\inet_chksum.c ****   if (odd && len > 0) {
  34              		.loc 1 199 3 is_stmt 1
  35              		.loc 1 199 6 is_stmt 0
  36 000a 89CA     		beq	a3,zero,.L2
  37              		.loc 1 199 11 discriminator 1
  38 000c 6358B000 		ble	a1,zero,.L2
 200:C:/Users/stapi/OneDrive/Desktop/GD32VW553/GD32VW55X_Wifi_BLE_SDK/GD32VW55x_RELEASE_V1.0.2/MSDK/lwip/lwip-2.1.2/src/core\inet_chksum.c ****     ((u8_t *)&t)[1] = *pb++;
  39              		.loc 1 200 5 is_stmt 1
  40              	.LVL3:
  41              		.loc 1 200 21 is_stmt 0
  42 0010 83470500 		lbu	a5,0(a0)
 201:C:/Users/stapi/OneDrive/Desktop/GD32VW553/GD32VW55X_Wifi_BLE_SDK/GD32VW55x_RELEASE_V1.0.2/MSDK/lwip/lwip-2.1.2/src/core\inet_chksum.c ****     len--;
  43              		.loc 1 201 8
  44 0014 FD15     		addi	a1,a1,-1
  45              	.LVL4:
 200:C:/Users/stapi/OneDrive/Desktop/GD32VW553/GD32VW55X_Wifi_BLE_SDK/GD32VW55x_RELEASE_V1.0.2/MSDK/lwip/lwip-2.1.2/src/core\inet_chksum.c ****     ((u8_t *)&t)[1] = *pb++;
  46              		.loc 1 200 26
  47 0016 0505     		addi	a0,a0,1
  48              	.LVL5:
 200:C:/Users/stapi/OneDrive/Desktop/GD32VW553/GD32VW55X_Wifi_BLE_SDK/GD32VW55x_RELEASE_V1.0.2/MSDK/lwip/lwip-2.1.2/src/core\inet_chksum.c ****     ((u8_t *)&t)[1] = *pb++;
  49              		.loc 1 200 21
  50 0018 A307F100 		sb	a5,15(sp)
  51              		.loc 1 201 5 is_stmt 1
  52              	.LVL6:
  53              	.L2:
 202:C:/Users/stapi/OneDrive/Desktop/GD32VW553/GD32VW55X_Wifi_BLE_SDK/GD32VW55x_RELEASE_V1.0.2/MSDK/lwip/lwip-2.1.2/src/core\inet_chksum.c ****   }
 203:C:/Users/stapi/OneDrive/Desktop/GD32VW553/GD32VW55X_Wifi_BLE_SDK/GD32VW55x_RELEASE_V1.0.2/MSDK/lwip/lwip-2.1.2/src/core\inet_chksum.c **** 
 204:C:/Users/stapi/OneDrive/Desktop/GD32VW553/GD32VW55X_Wifi_BLE_SDK/GD32VW55x_RELEASE_V1.0.2/MSDK/lwip/lwip-2.1.2/src/core\inet_chksum.c ****   ps = (const u16_t *)(const void *)pb;
  54              		.loc 1 204 3
 205:C:/Users/stapi/OneDrive/Desktop/GD32VW553/GD32VW55X_Wifi_BLE_SDK/GD32VW55x_RELEASE_V1.0.2/MSDK/lwip/lwip-2.1.2/src/core\inet_chksum.c **** 
 206:C:/Users/stapi/OneDrive/Desktop/GD32VW553/GD32VW55X_Wifi_BLE_SDK/GD32VW55x_RELEASE_V1.0.2/MSDK/lwip/lwip-2.1.2/src/core\inet_chksum.c ****   if (((mem_ptr_t)ps & 3) && len > 1) {
  55              		.loc 1 206 3
  56              		.loc 1 206 22 is_stmt 0
  57 001c 93773500 		andi	a5,a0,3
  58              		.loc 1 206 6
  59 0020 89CB     		beq	a5,zero,.L3
  60              		.loc 1 206 27 discriminator 1
  61 0022 0547     		li	a4,1
 195:C:/Users/stapi/OneDrive/Desktop/GD32VW553/GD32VW55X_Wifi_BLE_SDK/GD32VW55x_RELEASE_V1.0.2/MSDK/lwip/lwip-2.1.2/src/core\inet_chksum.c ****   /* starts at odd byte address? */
  62              		.loc 1 195 9 discriminator 1
  63 0024 8147     		li	a5,0
  64              		.loc 1 206 27 discriminator 1
  65 0026 6356B700 		ble	a1,a4,.L3
 207:C:/Users/stapi/OneDrive/Desktop/GD32VW553/GD32VW55X_Wifi_BLE_SDK/GD32VW55x_RELEASE_V1.0.2/MSDK/lwip/lwip-2.1.2/src/core\inet_chksum.c ****     sum += *ps++;
  66              		.loc 1 207 5 is_stmt 1
  67              	.LVL7:
  68              		.loc 1 207 12 is_stmt 0
  69 002a 83570500 		lhu	a5,0(a0)
  70              	.LVL8:
 208:C:/Users/stapi/OneDrive/Desktop/GD32VW553/GD32VW55X_Wifi_BLE_SDK/GD32VW55x_RELEASE_V1.0.2/MSDK/lwip/lwip-2.1.2/src/core\inet_chksum.c ****     len -= 2;
  71              		.loc 1 208 5 is_stmt 1
  72              		.loc 1 208 9 is_stmt 0
  73 002e F915     		addi	a1,a1,-2
  74              	.LVL9:
 207:C:/Users/stapi/OneDrive/Desktop/GD32VW553/GD32VW55X_Wifi_BLE_SDK/GD32VW55x_RELEASE_V1.0.2/MSDK/lwip/lwip-2.1.2/src/core\inet_chksum.c ****     sum += *ps++;
  75              		.loc 1 207 15
  76 0030 0905     		addi	a0,a0,2
  77              	.LVL10:
  78              	.L3:
 209:C:/Users/stapi/OneDrive/Desktop/GD32VW553/GD32VW55X_Wifi_BLE_SDK/GD32VW55x_RELEASE_V1.0.2/MSDK/lwip/lwip-2.1.2/src/core\inet_chksum.c ****   }
 210:C:/Users/stapi/OneDrive/Desktop/GD32VW553/GD32VW55X_Wifi_BLE_SDK/GD32VW55x_RELEASE_V1.0.2/MSDK/lwip/lwip-2.1.2/src/core\inet_chksum.c **** 
 211:C:/Users/stapi/OneDrive/Desktop/GD32VW553/GD32VW55X_Wifi_BLE_SDK/GD32VW55x_RELEASE_V1.0.2/MSDK/lwip/lwip-2.1.2/src/core\inet_chksum.c ****   pl = (const u32_t *)(const void *)ps;
 212:C:/Users/stapi/OneDrive/Desktop/GD32VW553/GD32VW55X_Wifi_BLE_SDK/GD32VW55x_RELEASE_V1.0.2/MSDK/lwip/lwip-2.1.2/src/core\inet_chksum.c **** 
 213:C:/Users/stapi/OneDrive/Desktop/GD32VW553/GD32VW55X_Wifi_BLE_SDK/GD32VW55x_RELEASE_V1.0.2/MSDK/lwip/lwip-2.1.2/src/core\inet_chksum.c ****   while (len > 7)  {
  79              		.loc 1 213 9
  80 0032 1D46     		li	a2,7
  81              	.LVL11:
  82              	.L4:
  83              		.loc 1 213 9 is_stmt 1
  84 0034 6349B604 		bgt	a1,a2,.L7
 214:C:/Users/stapi/OneDrive/Desktop/GD32VW553/GD32VW55X_Wifi_BLE_SDK/GD32VW55x_RELEASE_V1.0.2/MSDK/lwip/lwip-2.1.2/src/core\inet_chksum.c ****     tmp = sum + *pl++;          /* ping */
 215:C:/Users/stapi/OneDrive/Desktop/GD32VW553/GD32VW55X_Wifi_BLE_SDK/GD32VW55x_RELEASE_V1.0.2/MSDK/lwip/lwip-2.1.2/src/core\inet_chksum.c ****     if (tmp < sum) {
 216:C:/Users/stapi/OneDrive/Desktop/GD32VW553/GD32VW55X_Wifi_BLE_SDK/GD32VW55x_RELEASE_V1.0.2/MSDK/lwip/lwip-2.1.2/src/core\inet_chksum.c ****       tmp++;                    /* add back carry */
 217:C:/Users/stapi/OneDrive/Desktop/GD32VW553/GD32VW55X_Wifi_BLE_SDK/GD32VW55x_RELEASE_V1.0.2/MSDK/lwip/lwip-2.1.2/src/core\inet_chksum.c ****     }
 218:C:/Users/stapi/OneDrive/Desktop/GD32VW553/GD32VW55X_Wifi_BLE_SDK/GD32VW55x_RELEASE_V1.0.2/MSDK/lwip/lwip-2.1.2/src/core\inet_chksum.c **** 
 219:C:/Users/stapi/OneDrive/Desktop/GD32VW553/GD32VW55X_Wifi_BLE_SDK/GD32VW55x_RELEASE_V1.0.2/MSDK/lwip/lwip-2.1.2/src/core\inet_chksum.c ****     sum = tmp + *pl++;          /* pong */
 220:C:/Users/stapi/OneDrive/Desktop/GD32VW553/GD32VW55X_Wifi_BLE_SDK/GD32VW55x_RELEASE_V1.0.2/MSDK/lwip/lwip-2.1.2/src/core\inet_chksum.c ****     if (sum < tmp) {
 221:C:/Users/stapi/OneDrive/Desktop/GD32VW553/GD32VW55X_Wifi_BLE_SDK/GD32VW55x_RELEASE_V1.0.2/MSDK/lwip/lwip-2.1.2/src/core\inet_chksum.c ****       sum++;                    /* add back carry */
 222:C:/Users/stapi/OneDrive/Desktop/GD32VW553/GD32VW55X_Wifi_BLE_SDK/GD32VW55x_RELEASE_V1.0.2/MSDK/lwip/lwip-2.1.2/src/core\inet_chksum.c ****     }
 223:C:/Users/stapi/OneDrive/Desktop/GD32VW553/GD32VW55X_Wifi_BLE_SDK/GD32VW55x_RELEASE_V1.0.2/MSDK/lwip/lwip-2.1.2/src/core\inet_chksum.c **** 
 224:C:/Users/stapi/OneDrive/Desktop/GD32VW553/GD32VW55X_Wifi_BLE_SDK/GD32VW55x_RELEASE_V1.0.2/MSDK/lwip/lwip-2.1.2/src/core\inet_chksum.c ****     len -= 8;
 225:C:/Users/stapi/OneDrive/Desktop/GD32VW553/GD32VW55X_Wifi_BLE_SDK/GD32VW55x_RELEASE_V1.0.2/MSDK/lwip/lwip-2.1.2/src/core\inet_chksum.c ****   }
 226:C:/Users/stapi/OneDrive/Desktop/GD32VW553/GD32VW55X_Wifi_BLE_SDK/GD32VW55x_RELEASE_V1.0.2/MSDK/lwip/lwip-2.1.2/src/core\inet_chksum.c **** 
 227:C:/Users/stapi/OneDrive/Desktop/GD32VW553/GD32VW55X_Wifi_BLE_SDK/GD32VW55x_RELEASE_V1.0.2/MSDK/lwip/lwip-2.1.2/src/core\inet_chksum.c ****   /* make room in upper bits */
 228:C:/Users/stapi/OneDrive/Desktop/GD32VW553/GD32VW55X_Wifi_BLE_SDK/GD32VW55x_RELEASE_V1.0.2/MSDK/lwip/lwip-2.1.2/src/core\inet_chksum.c ****   sum = FOLD_U32T(sum);
  85              		.loc 1 228 3
  86              		.loc 1 228 9 is_stmt 0
  87 0038 13D70701 		srli	a4,a5,16
  88 003c B3C70708 		zext.h	a5,a5
  89              	.LVL12:
  90              		.loc 1 228 7
  91 0040 BA97     		add	a5,a4,a5
  92              	.LVL13:
 229:C:/Users/stapi/OneDrive/Desktop/GD32VW553/GD32VW55X_Wifi_BLE_SDK/GD32VW55x_RELEASE_V1.0.2/MSDK/lwip/lwip-2.1.2/src/core\inet_chksum.c **** 
 230:C:/Users/stapi/OneDrive/Desktop/GD32VW553/GD32VW55X_Wifi_BLE_SDK/GD32VW55x_RELEASE_V1.0.2/MSDK/lwip/lwip-2.1.2/src/core\inet_chksum.c ****   ps = (const u16_t *)pl;
  93              		.loc 1 230 3 is_stmt 1
 231:C:/Users/stapi/OneDrive/Desktop/GD32VW553/GD32VW55X_Wifi_BLE_SDK/GD32VW55x_RELEASE_V1.0.2/MSDK/lwip/lwip-2.1.2/src/core\inet_chksum.c **** 
 232:C:/Users/stapi/OneDrive/Desktop/GD32VW553/GD32VW55X_Wifi_BLE_SDK/GD32VW55x_RELEASE_V1.0.2/MSDK/lwip/lwip-2.1.2/src/core\inet_chksum.c ****   /* 16-bit aligned word remaining? */
 233:C:/Users/stapi/OneDrive/Desktop/GD32VW553/GD32VW55X_Wifi_BLE_SDK/GD32VW55x_RELEASE_V1.0.2/MSDK/lwip/lwip-2.1.2/src/core\inet_chksum.c ****   while (len > 1) {
  94              		.loc 1 233 3
  95              		.loc 1 233 9 is_stmt 0
  96 0042 0547     		li	a4,1
  97              	.LVL14:
  98              	.L8:
  99              		.loc 1 233 9 is_stmt 1
 100 0044 634EB704 		bgt	a1,a4,.L9
 234:C:/Users/stapi/OneDrive/Desktop/GD32VW553/GD32VW55X_Wifi_BLE_SDK/GD32VW55x_RELEASE_V1.0.2/MSDK/lwip/lwip-2.1.2/src/core\inet_chksum.c ****     sum += *ps++;
 235:C:/Users/stapi/OneDrive/Desktop/GD32VW553/GD32VW55X_Wifi_BLE_SDK/GD32VW55x_RELEASE_V1.0.2/MSDK/lwip/lwip-2.1.2/src/core\inet_chksum.c ****     len -= 2;
 236:C:/Users/stapi/OneDrive/Desktop/GD32VW553/GD32VW55X_Wifi_BLE_SDK/GD32VW55x_RELEASE_V1.0.2/MSDK/lwip/lwip-2.1.2/src/core\inet_chksum.c ****   }
 237:C:/Users/stapi/OneDrive/Desktop/GD32VW553/GD32VW55X_Wifi_BLE_SDK/GD32VW55x_RELEASE_V1.0.2/MSDK/lwip/lwip-2.1.2/src/core\inet_chksum.c **** 
 238:C:/Users/stapi/OneDrive/Desktop/GD32VW553/GD32VW55X_Wifi_BLE_SDK/GD32VW55x_RELEASE_V1.0.2/MSDK/lwip/lwip-2.1.2/src/core\inet_chksum.c ****   /* dangling tail byte remaining? */
 239:C:/Users/stapi/OneDrive/Desktop/GD32VW553/GD32VW55X_Wifi_BLE_SDK/GD32VW55x_RELEASE_V1.0.2/MSDK/lwip/lwip-2.1.2/src/core\inet_chksum.c ****   if (len > 0) {                /* include odd byte */
 101              		.loc 1 239 3
 102              		.loc 1 239 6 is_stmt 0
 103 0048 6396E500 		bne	a1,a4,.L10
 240:C:/Users/stapi/OneDrive/Desktop/GD32VW553/GD32VW55X_Wifi_BLE_SDK/GD32VW55x_RELEASE_V1.0.2/MSDK/lwip/lwip-2.1.2/src/core\inet_chksum.c ****     ((u8_t *)&t)[0] = *(const u8_t *)ps;
 104              		.loc 1 240 5 is_stmt 1
 105              		.loc 1 240 21 is_stmt 0
 106 004c 03470500 		lbu	a4,0(a0)
 107 0050 2307E100 		sb	a4,14(sp)
 108              	.L10:
 241:C:/Users/stapi/OneDrive/Desktop/GD32VW553/GD32VW55X_Wifi_BLE_SDK/GD32VW55x_RELEASE_V1.0.2/MSDK/lwip/lwip-2.1.2/src/core\inet_chksum.c ****   }
 242:C:/Users/stapi/OneDrive/Desktop/GD32VW553/GD32VW55X_Wifi_BLE_SDK/GD32VW55x_RELEASE_V1.0.2/MSDK/lwip/lwip-2.1.2/src/core\inet_chksum.c **** 
 243:C:/Users/stapi/OneDrive/Desktop/GD32VW553/GD32VW55X_Wifi_BLE_SDK/GD32VW55x_RELEASE_V1.0.2/MSDK/lwip/lwip-2.1.2/src/core\inet_chksum.c ****   sum += t;                     /* add end bytes */
 109              		.loc 1 243 3 is_stmt 1
 110              		.loc 1 243 7 is_stmt 0
 111 0054 0355E100 		lhu	a0,14(sp)
 112              	.LVL15:
 244:C:/Users/stapi/OneDrive/Desktop/GD32VW553/GD32VW55X_Wifi_BLE_SDK/GD32VW55x_RELEASE_V1.0.2/MSDK/lwip/lwip-2.1.2/src/core\inet_chksum.c **** 
 245:C:/Users/stapi/OneDrive/Desktop/GD32VW553/GD32VW55X_Wifi_BLE_SDK/GD32VW55x_RELEASE_V1.0.2/MSDK/lwip/lwip-2.1.2/src/core\inet_chksum.c ****   /* Fold 32-bit sum to 16 bits
 246:C:/Users/stapi/OneDrive/Desktop/GD32VW553/GD32VW55X_Wifi_BLE_SDK/GD32VW55x_RELEASE_V1.0.2/MSDK/lwip/lwip-2.1.2/src/core\inet_chksum.c ****      calling this twice is probably faster than if statements... */
 247:C:/Users/stapi/OneDrive/Desktop/GD32VW553/GD32VW55X_Wifi_BLE_SDK/GD32VW55x_RELEASE_V1.0.2/MSDK/lwip/lwip-2.1.2/src/core\inet_chksum.c ****   sum = FOLD_U32T(sum);
 113              		.loc 1 247 9
 114 0058 4167     		li	a4,65536
 115 005a 7D17     		addi	a4,a4,-1
 243:C:/Users/stapi/OneDrive/Desktop/GD32VW553/GD32VW55X_Wifi_BLE_SDK/GD32VW55x_RELEASE_V1.0.2/MSDK/lwip/lwip-2.1.2/src/core\inet_chksum.c **** 
 116              		.loc 1 243 7
 117 005c 3E95     		add	a0,a0,a5
 118              	.LVL16:
 119              		.loc 1 247 3 is_stmt 1
 120              		.loc 1 247 9 is_stmt 0
 121 005e 93570501 		srli	a5,a0,16
 122 0062 798D     		and	a0,a0,a4
 123              	.LVL17:
 124              		.loc 1 247 7
 125 0064 AA97     		add	a5,a5,a0
 126              	.LVL18:
 248:C:/Users/stapi/OneDrive/Desktop/GD32VW553/GD32VW55X_Wifi_BLE_SDK/GD32VW55x_RELEASE_V1.0.2/MSDK/lwip/lwip-2.1.2/src/core\inet_chksum.c ****   sum = FOLD_U32T(sum);
 127              		.loc 1 248 3 is_stmt 1
 128              		.loc 1 248 9 is_stmt 0
 129 0066 13D50701 		srli	a0,a5,16
 130 006a F98F     		and	a5,a5,a4
 131              	.LVL19:
 132              		.loc 1 248 7
 133 006c 3E95     		add	a0,a0,a5
 134              	.LVL20:
 249:C:/Users/stapi/OneDrive/Desktop/GD32VW553/GD32VW55X_Wifi_BLE_SDK/GD32VW55x_RELEASE_V1.0.2/MSDK/lwip/lwip-2.1.2/src/core\inet_chksum.c **** 
 250:C:/Users/stapi/OneDrive/Desktop/GD32VW553/GD32VW55X_Wifi_BLE_SDK/GD32VW55x_RELEASE_V1.0.2/MSDK/lwip/lwip-2.1.2/src/core\inet_chksum.c ****   if (odd) {
 135              		.loc 1 250 3 is_stmt 1
 136              		.loc 1 250 6 is_stmt 0
 137 006e 81CA     		beq	a3,zero,.L11
 251:C:/Users/stapi/OneDrive/Desktop/GD32VW553/GD32VW55X_Wifi_BLE_SDK/GD32VW55x_RELEASE_V1.0.2/MSDK/lwip/lwip-2.1.2/src/core\inet_chksum.c ****     sum = SWAP_BYTES_IN_WORD(sum);
 138              		.loc 1 251 5 is_stmt 1
 139              		.loc 1 251 11 is_stmt 0
 140 0070 93178500 		slli	a5,a0,8
 141 0074 2181     		srli	a0,a0,8
 142              	.LVL21:
 143 0076 7D8F     		and	a4,a5,a4
 144 0078 1375F50F 		andi	a0,a0,255
 145              		.loc 1 251 9
 146 007c 598D     		or	a0,a4,a0
 147              	.LVL22:
 148              	.L11:
 252:C:/Users/stapi/OneDrive/Desktop/GD32VW553/GD32VW55X_Wifi_BLE_SDK/GD32VW55x_RELEASE_V1.0.2/MSDK/lwip/lwip-2.1.2/src/core\inet_chksum.c ****   }
 253:C:/Users/stapi/OneDrive/Desktop/GD32VW553/GD32VW55X_Wifi_BLE_SDK/GD32VW55x_RELEASE_V1.0.2/MSDK/lwip/lwip-2.1.2/src/core\inet_chksum.c **** 
 254:C:/Users/stapi/OneDrive/Desktop/GD32VW553/GD32VW55X_Wifi_BLE_SDK/GD32VW55x_RELEASE_V1.0.2/MSDK/lwip/lwip-2.1.2/src/core\inet_chksum.c ****   return (u16_t)sum;
 149              		.loc 1 254 3 is_stmt 1
 255:C:/Users/stapi/OneDrive/Desktop/GD32VW553/GD32VW55X_Wifi_BLE_SDK/GD32VW55x_RELEASE_V1.0.2/MSDK/lwip/lwip-2.1.2/src/core\inet_chksum.c **** }
 150              		.loc 1 255 1 is_stmt 0
 151 007e 33450508 		zext.h	a0,a0
 152              	.LVL23:
 153 0082 4101     		addi	sp,sp,16
 154              		.cfi_remember_state
 155              		.cfi_def_cfa_offset 0
 156 0084 8280     		jr	ra
 157              	.LVL24:
 158              	.L7:
 159              		.cfi_restore_state
 214:C:/Users/stapi/OneDrive/Desktop/GD32VW553/GD32VW55X_Wifi_BLE_SDK/GD32VW55x_RELEASE_V1.0.2/MSDK/lwip/lwip-2.1.2/src/core\inet_chksum.c ****     if (tmp < sum) {
 160              		.loc 1 214 5 is_stmt 1
 214:C:/Users/stapi/OneDrive/Desktop/GD32VW553/GD32VW55X_Wifi_BLE_SDK/GD32VW55x_RELEASE_V1.0.2/MSDK/lwip/lwip-2.1.2/src/core\inet_chksum.c ****     if (tmp < sum) {
 161              		.loc 1 214 9 is_stmt 0
 162 0086 1841     		lw	a4,0(a0)
 163 0088 3E97     		add	a4,a5,a4
 164              	.LVL25:
 215:C:/Users/stapi/OneDrive/Desktop/GD32VW553/GD32VW55X_Wifi_BLE_SDK/GD32VW55x_RELEASE_V1.0.2/MSDK/lwip/lwip-2.1.2/src/core\inet_chksum.c ****       tmp++;                    /* add back carry */
 165              		.loc 1 215 5 is_stmt 1
 215:C:/Users/stapi/OneDrive/Desktop/GD32VW553/GD32VW55X_Wifi_BLE_SDK/GD32VW55x_RELEASE_V1.0.2/MSDK/lwip/lwip-2.1.2/src/core\inet_chksum.c ****       tmp++;                    /* add back carry */
 166              		.loc 1 215 8 is_stmt 0
 167 008a 6373F700 		bleu	a5,a4,.L5
 216:C:/Users/stapi/OneDrive/Desktop/GD32VW553/GD32VW55X_Wifi_BLE_SDK/GD32VW55x_RELEASE_V1.0.2/MSDK/lwip/lwip-2.1.2/src/core\inet_chksum.c ****     }
 168              		.loc 1 216 7 is_stmt 1
 216:C:/Users/stapi/OneDrive/Desktop/GD32VW553/GD32VW55X_Wifi_BLE_SDK/GD32VW55x_RELEASE_V1.0.2/MSDK/lwip/lwip-2.1.2/src/core\inet_chksum.c ****     }
 169              		.loc 1 216 10 is_stmt 0
 170 008e 0507     		addi	a4,a4,1
 171              	.LVL26:
 172              	.L5:
 219:C:/Users/stapi/OneDrive/Desktop/GD32VW553/GD32VW55X_Wifi_BLE_SDK/GD32VW55x_RELEASE_V1.0.2/MSDK/lwip/lwip-2.1.2/src/core\inet_chksum.c ****     if (sum < tmp) {
 173              		.loc 1 219 5 is_stmt 1
 219:C:/Users/stapi/OneDrive/Desktop/GD32VW553/GD32VW55X_Wifi_BLE_SDK/GD32VW55x_RELEASE_V1.0.2/MSDK/lwip/lwip-2.1.2/src/core\inet_chksum.c ****     if (sum < tmp) {
 174              		.loc 1 219 9 is_stmt 0
 175 0090 5C41     		lw	a5,4(a0)
 176              	.LVL27:
 177 0092 2105     		addi	a0,a0,8
 178              	.LVL28:
 179 0094 BA97     		add	a5,a4,a5
 180              	.LVL29:
 220:C:/Users/stapi/OneDrive/Desktop/GD32VW553/GD32VW55X_Wifi_BLE_SDK/GD32VW55x_RELEASE_V1.0.2/MSDK/lwip/lwip-2.1.2/src/core\inet_chksum.c ****       sum++;                    /* add back carry */
 181              		.loc 1 220 5 is_stmt 1
 220:C:/Users/stapi/OneDrive/Desktop/GD32VW553/GD32VW55X_Wifi_BLE_SDK/GD32VW55x_RELEASE_V1.0.2/MSDK/lwip/lwip-2.1.2/src/core\inet_chksum.c ****       sum++;                    /* add back carry */
 182              		.loc 1 220 8 is_stmt 0
 183 0096 63F3E700 		bleu	a4,a5,.L6
 221:C:/Users/stapi/OneDrive/Desktop/GD32VW553/GD32VW55X_Wifi_BLE_SDK/GD32VW55x_RELEASE_V1.0.2/MSDK/lwip/lwip-2.1.2/src/core\inet_chksum.c ****     }
 184              		.loc 1 221 7 is_stmt 1
 221:C:/Users/stapi/OneDrive/Desktop/GD32VW553/GD32VW55X_Wifi_BLE_SDK/GD32VW55x_RELEASE_V1.0.2/MSDK/lwip/lwip-2.1.2/src/core\inet_chksum.c ****     }
 185              		.loc 1 221 10 is_stmt 0
 186 009a 8507     		addi	a5,a5,1
 187              	.LVL30:
 188              	.L6:
 224:C:/Users/stapi/OneDrive/Desktop/GD32VW553/GD32VW55X_Wifi_BLE_SDK/GD32VW55x_RELEASE_V1.0.2/MSDK/lwip/lwip-2.1.2/src/core\inet_chksum.c ****   }
 189              		.loc 1 224 5 is_stmt 1
 224:C:/Users/stapi/OneDrive/Desktop/GD32VW553/GD32VW55X_Wifi_BLE_SDK/GD32VW55x_RELEASE_V1.0.2/MSDK/lwip/lwip-2.1.2/src/core\inet_chksum.c ****   }
 190              		.loc 1 224 9 is_stmt 0
 191 009c E115     		addi	a1,a1,-8
 192              	.LVL31:
 193 009e 59BF     		j	.L4
 194              	.LVL32:
 195              	.L9:
 234:C:/Users/stapi/OneDrive/Desktop/GD32VW553/GD32VW55X_Wifi_BLE_SDK/GD32VW55x_RELEASE_V1.0.2/MSDK/lwip/lwip-2.1.2/src/core\inet_chksum.c ****     len -= 2;
 196              		.loc 1 234 5 is_stmt 1
 234:C:/Users/stapi/OneDrive/Desktop/GD32VW553/GD32VW55X_Wifi_BLE_SDK/GD32VW55x_RELEASE_V1.0.2/MSDK/lwip/lwip-2.1.2/src/core\inet_chksum.c ****     len -= 2;
 197              		.loc 1 234 12 is_stmt 0
 198 00a0 03560500 		lhu	a2,0(a0)
 234:C:/Users/stapi/OneDrive/Desktop/GD32VW553/GD32VW55X_Wifi_BLE_SDK/GD32VW55x_RELEASE_V1.0.2/MSDK/lwip/lwip-2.1.2/src/core\inet_chksum.c ****     len -= 2;
 199              		.loc 1 234 15
 200 00a4 0905     		addi	a0,a0,2
 201              	.LVL33:
 235:C:/Users/stapi/OneDrive/Desktop/GD32VW553/GD32VW55X_Wifi_BLE_SDK/GD32VW55x_RELEASE_V1.0.2/MSDK/lwip/lwip-2.1.2/src/core\inet_chksum.c ****   }
 202              		.loc 1 235 9
 203 00a6 F915     		addi	a1,a1,-2
 204              	.LVL34:
 234:C:/Users/stapi/OneDrive/Desktop/GD32VW553/GD32VW55X_Wifi_BLE_SDK/GD32VW55x_RELEASE_V1.0.2/MSDK/lwip/lwip-2.1.2/src/core\inet_chksum.c ****     len -= 2;
 205              		.loc 1 234 9
 206 00a8 B297     		add	a5,a5,a2
 207              	.LVL35:
 235:C:/Users/stapi/OneDrive/Desktop/GD32VW553/GD32VW55X_Wifi_BLE_SDK/GD32VW55x_RELEASE_V1.0.2/MSDK/lwip/lwip-2.1.2/src/core\inet_chksum.c ****   }
 208              		.loc 1 235 5 is_stmt 1
 209 00aa 69BF     		j	.L8
 210              		.cfi_endproc
 211              	.LFE4:
 213              		.section	.text.inet_chksum_pseudo,"ax",@progbits
 214              		.align	1
 215              		.globl	inet_chksum_pseudo
 217              	inet_chksum_pseudo:
 218              	.LFB6:
 256:C:/Users/stapi/OneDrive/Desktop/GD32VW553/GD32VW55X_Wifi_BLE_SDK/GD32VW55x_RELEASE_V1.0.2/MSDK/lwip/lwip-2.1.2/src/core\inet_chksum.c **** #endif
 257:C:/Users/stapi/OneDrive/Desktop/GD32VW553/GD32VW55X_Wifi_BLE_SDK/GD32VW55x_RELEASE_V1.0.2/MSDK/lwip/lwip-2.1.2/src/core\inet_chksum.c **** 
 258:C:/Users/stapi/OneDrive/Desktop/GD32VW553/GD32VW55X_Wifi_BLE_SDK/GD32VW55x_RELEASE_V1.0.2/MSDK/lwip/lwip-2.1.2/src/core\inet_chksum.c **** /** Parts of the pseudo checksum which are common to IPv4 and IPv6 */
 259:C:/Users/stapi/OneDrive/Desktop/GD32VW553/GD32VW55X_Wifi_BLE_SDK/GD32VW55x_RELEASE_V1.0.2/MSDK/lwip/lwip-2.1.2/src/core\inet_chksum.c **** static u16_t
 260:C:/Users/stapi/OneDrive/Desktop/GD32VW553/GD32VW55X_Wifi_BLE_SDK/GD32VW55x_RELEASE_V1.0.2/MSDK/lwip/lwip-2.1.2/src/core\inet_chksum.c **** inet_cksum_pseudo_base(struct pbuf *p, u8_t proto, u16_t proto_len, u32_t acc)
 261:C:/Users/stapi/OneDrive/Desktop/GD32VW553/GD32VW55X_Wifi_BLE_SDK/GD32VW55x_RELEASE_V1.0.2/MSDK/lwip/lwip-2.1.2/src/core\inet_chksum.c **** {
 262:C:/Users/stapi/OneDrive/Desktop/GD32VW553/GD32VW55X_Wifi_BLE_SDK/GD32VW55x_RELEASE_V1.0.2/MSDK/lwip/lwip-2.1.2/src/core\inet_chksum.c ****   struct pbuf *q;
 263:C:/Users/stapi/OneDrive/Desktop/GD32VW553/GD32VW55X_Wifi_BLE_SDK/GD32VW55x_RELEASE_V1.0.2/MSDK/lwip/lwip-2.1.2/src/core\inet_chksum.c ****   int swapped = 0;
 264:C:/Users/stapi/OneDrive/Desktop/GD32VW553/GD32VW55X_Wifi_BLE_SDK/GD32VW55x_RELEASE_V1.0.2/MSDK/lwip/lwip-2.1.2/src/core\inet_chksum.c **** 
 265:C:/Users/stapi/OneDrive/Desktop/GD32VW553/GD32VW55X_Wifi_BLE_SDK/GD32VW55x_RELEASE_V1.0.2/MSDK/lwip/lwip-2.1.2/src/core\inet_chksum.c ****   /* iterate through all pbuf in chain */
 266:C:/Users/stapi/OneDrive/Desktop/GD32VW553/GD32VW55X_Wifi_BLE_SDK/GD32VW55x_RELEASE_V1.0.2/MSDK/lwip/lwip-2.1.2/src/core\inet_chksum.c ****   for (q = p; q != NULL; q = q->next) {
 267:C:/Users/stapi/OneDrive/Desktop/GD32VW553/GD32VW55X_Wifi_BLE_SDK/GD32VW55x_RELEASE_V1.0.2/MSDK/lwip/lwip-2.1.2/src/core\inet_chksum.c ****     LWIP_DEBUGF(INET_DEBUG, ("inet_chksum_pseudo(): checksumming pbuf %p (has next %p) \n",
 268:C:/Users/stapi/OneDrive/Desktop/GD32VW553/GD32VW55X_Wifi_BLE_SDK/GD32VW55x_RELEASE_V1.0.2/MSDK/lwip/lwip-2.1.2/src/core\inet_chksum.c ****                              (void *)q, (void *)q->next));
 269:C:/Users/stapi/OneDrive/Desktop/GD32VW553/GD32VW55X_Wifi_BLE_SDK/GD32VW55x_RELEASE_V1.0.2/MSDK/lwip/lwip-2.1.2/src/core\inet_chksum.c ****     acc += LWIP_CHKSUM(q->payload, q->len);
 270:C:/Users/stapi/OneDrive/Desktop/GD32VW553/GD32VW55X_Wifi_BLE_SDK/GD32VW55x_RELEASE_V1.0.2/MSDK/lwip/lwip-2.1.2/src/core\inet_chksum.c ****     /*LWIP_DEBUGF(INET_DEBUG, ("inet_chksum_pseudo(): unwrapped lwip_chksum()=%"X32_F" \n", acc));*
 271:C:/Users/stapi/OneDrive/Desktop/GD32VW553/GD32VW55X_Wifi_BLE_SDK/GD32VW55x_RELEASE_V1.0.2/MSDK/lwip/lwip-2.1.2/src/core\inet_chksum.c ****     /* just executing this next line is probably faster that the if statement needed
 272:C:/Users/stapi/OneDrive/Desktop/GD32VW553/GD32VW55X_Wifi_BLE_SDK/GD32VW55x_RELEASE_V1.0.2/MSDK/lwip/lwip-2.1.2/src/core\inet_chksum.c ****        to check whether we really need to execute it, and does no harm */
 273:C:/Users/stapi/OneDrive/Desktop/GD32VW553/GD32VW55X_Wifi_BLE_SDK/GD32VW55x_RELEASE_V1.0.2/MSDK/lwip/lwip-2.1.2/src/core\inet_chksum.c ****     acc = FOLD_U32T(acc);
 274:C:/Users/stapi/OneDrive/Desktop/GD32VW553/GD32VW55X_Wifi_BLE_SDK/GD32VW55x_RELEASE_V1.0.2/MSDK/lwip/lwip-2.1.2/src/core\inet_chksum.c ****     if (q->len % 2 != 0) {
 275:C:/Users/stapi/OneDrive/Desktop/GD32VW553/GD32VW55X_Wifi_BLE_SDK/GD32VW55x_RELEASE_V1.0.2/MSDK/lwip/lwip-2.1.2/src/core\inet_chksum.c ****       swapped = !swapped;
 276:C:/Users/stapi/OneDrive/Desktop/GD32VW553/GD32VW55X_Wifi_BLE_SDK/GD32VW55x_RELEASE_V1.0.2/MSDK/lwip/lwip-2.1.2/src/core\inet_chksum.c ****       acc = SWAP_BYTES_IN_WORD(acc);
 277:C:/Users/stapi/OneDrive/Desktop/GD32VW553/GD32VW55X_Wifi_BLE_SDK/GD32VW55x_RELEASE_V1.0.2/MSDK/lwip/lwip-2.1.2/src/core\inet_chksum.c ****     }
 278:C:/Users/stapi/OneDrive/Desktop/GD32VW553/GD32VW55X_Wifi_BLE_SDK/GD32VW55x_RELEASE_V1.0.2/MSDK/lwip/lwip-2.1.2/src/core\inet_chksum.c ****     /*LWIP_DEBUGF(INET_DEBUG, ("inet_chksum_pseudo(): wrapped lwip_chksum()=%"X32_F" \n", acc));*/
 279:C:/Users/stapi/OneDrive/Desktop/GD32VW553/GD32VW55X_Wifi_BLE_SDK/GD32VW55x_RELEASE_V1.0.2/MSDK/lwip/lwip-2.1.2/src/core\inet_chksum.c ****   }
 280:C:/Users/stapi/OneDrive/Desktop/GD32VW553/GD32VW55X_Wifi_BLE_SDK/GD32VW55x_RELEASE_V1.0.2/MSDK/lwip/lwip-2.1.2/src/core\inet_chksum.c **** 
 281:C:/Users/stapi/OneDrive/Desktop/GD32VW553/GD32VW55X_Wifi_BLE_SDK/GD32VW55x_RELEASE_V1.0.2/MSDK/lwip/lwip-2.1.2/src/core\inet_chksum.c ****   if (swapped) {
 282:C:/Users/stapi/OneDrive/Desktop/GD32VW553/GD32VW55X_Wifi_BLE_SDK/GD32VW55x_RELEASE_V1.0.2/MSDK/lwip/lwip-2.1.2/src/core\inet_chksum.c ****     acc = SWAP_BYTES_IN_WORD(acc);
 283:C:/Users/stapi/OneDrive/Desktop/GD32VW553/GD32VW55X_Wifi_BLE_SDK/GD32VW55x_RELEASE_V1.0.2/MSDK/lwip/lwip-2.1.2/src/core\inet_chksum.c ****   }
 284:C:/Users/stapi/OneDrive/Desktop/GD32VW553/GD32VW55X_Wifi_BLE_SDK/GD32VW55x_RELEASE_V1.0.2/MSDK/lwip/lwip-2.1.2/src/core\inet_chksum.c **** 
 285:C:/Users/stapi/OneDrive/Desktop/GD32VW553/GD32VW55X_Wifi_BLE_SDK/GD32VW55x_RELEASE_V1.0.2/MSDK/lwip/lwip-2.1.2/src/core\inet_chksum.c ****   acc += (u32_t)lwip_htons((u16_t)proto);
 286:C:/Users/stapi/OneDrive/Desktop/GD32VW553/GD32VW55X_Wifi_BLE_SDK/GD32VW55x_RELEASE_V1.0.2/MSDK/lwip/lwip-2.1.2/src/core\inet_chksum.c ****   acc += (u32_t)lwip_htons(proto_len);
 287:C:/Users/stapi/OneDrive/Desktop/GD32VW553/GD32VW55X_Wifi_BLE_SDK/GD32VW55x_RELEASE_V1.0.2/MSDK/lwip/lwip-2.1.2/src/core\inet_chksum.c **** 
 288:C:/Users/stapi/OneDrive/Desktop/GD32VW553/GD32VW55X_Wifi_BLE_SDK/GD32VW55x_RELEASE_V1.0.2/MSDK/lwip/lwip-2.1.2/src/core\inet_chksum.c ****   /* Fold 32-bit sum to 16 bits
 289:C:/Users/stapi/OneDrive/Desktop/GD32VW553/GD32VW55X_Wifi_BLE_SDK/GD32VW55x_RELEASE_V1.0.2/MSDK/lwip/lwip-2.1.2/src/core\inet_chksum.c ****      calling this twice is probably faster than if statements... */
 290:C:/Users/stapi/OneDrive/Desktop/GD32VW553/GD32VW55X_Wifi_BLE_SDK/GD32VW55x_RELEASE_V1.0.2/MSDK/lwip/lwip-2.1.2/src/core\inet_chksum.c ****   acc = FOLD_U32T(acc);
 291:C:/Users/stapi/OneDrive/Desktop/GD32VW553/GD32VW55X_Wifi_BLE_SDK/GD32VW55x_RELEASE_V1.0.2/MSDK/lwip/lwip-2.1.2/src/core\inet_chksum.c ****   acc = FOLD_U32T(acc);
 292:C:/Users/stapi/OneDrive/Desktop/GD32VW553/GD32VW55X_Wifi_BLE_SDK/GD32VW55x_RELEASE_V1.0.2/MSDK/lwip/lwip-2.1.2/src/core\inet_chksum.c ****   LWIP_DEBUGF(INET_DEBUG, ("inet_chksum_pseudo(): pbuf chain lwip_chksum()=%"X32_F"\n", acc));
 293:C:/Users/stapi/OneDrive/Desktop/GD32VW553/GD32VW55X_Wifi_BLE_SDK/GD32VW55x_RELEASE_V1.0.2/MSDK/lwip/lwip-2.1.2/src/core\inet_chksum.c ****   return (u16_t)~(acc & 0xffffUL);
 294:C:/Users/stapi/OneDrive/Desktop/GD32VW553/GD32VW55X_Wifi_BLE_SDK/GD32VW55x_RELEASE_V1.0.2/MSDK/lwip/lwip-2.1.2/src/core\inet_chksum.c **** }
 295:C:/Users/stapi/OneDrive/Desktop/GD32VW553/GD32VW55X_Wifi_BLE_SDK/GD32VW55x_RELEASE_V1.0.2/MSDK/lwip/lwip-2.1.2/src/core\inet_chksum.c **** 
 296:C:/Users/stapi/OneDrive/Desktop/GD32VW553/GD32VW55X_Wifi_BLE_SDK/GD32VW55x_RELEASE_V1.0.2/MSDK/lwip/lwip-2.1.2/src/core\inet_chksum.c **** #if LWIP_IPV4
 297:C:/Users/stapi/OneDrive/Desktop/GD32VW553/GD32VW55X_Wifi_BLE_SDK/GD32VW55x_RELEASE_V1.0.2/MSDK/lwip/lwip-2.1.2/src/core\inet_chksum.c **** /* inet_chksum_pseudo:
 298:C:/Users/stapi/OneDrive/Desktop/GD32VW553/GD32VW55X_Wifi_BLE_SDK/GD32VW55x_RELEASE_V1.0.2/MSDK/lwip/lwip-2.1.2/src/core\inet_chksum.c ****  *
 299:C:/Users/stapi/OneDrive/Desktop/GD32VW553/GD32VW55X_Wifi_BLE_SDK/GD32VW55x_RELEASE_V1.0.2/MSDK/lwip/lwip-2.1.2/src/core\inet_chksum.c ****  * Calculates the IPv4 pseudo Internet checksum used by TCP and UDP for a pbuf chain.
 300:C:/Users/stapi/OneDrive/Desktop/GD32VW553/GD32VW55X_Wifi_BLE_SDK/GD32VW55x_RELEASE_V1.0.2/MSDK/lwip/lwip-2.1.2/src/core\inet_chksum.c ****  * IP addresses are expected to be in network byte order.
 301:C:/Users/stapi/OneDrive/Desktop/GD32VW553/GD32VW55X_Wifi_BLE_SDK/GD32VW55x_RELEASE_V1.0.2/MSDK/lwip/lwip-2.1.2/src/core\inet_chksum.c ****  *
 302:C:/Users/stapi/OneDrive/Desktop/GD32VW553/GD32VW55X_Wifi_BLE_SDK/GD32VW55x_RELEASE_V1.0.2/MSDK/lwip/lwip-2.1.2/src/core\inet_chksum.c ****  * @param p chain of pbufs over that a checksum should be calculated (ip data part)
 303:C:/Users/stapi/OneDrive/Desktop/GD32VW553/GD32VW55X_Wifi_BLE_SDK/GD32VW55x_RELEASE_V1.0.2/MSDK/lwip/lwip-2.1.2/src/core\inet_chksum.c ****  * @param src source ip address (used for checksum of pseudo header)
 304:C:/Users/stapi/OneDrive/Desktop/GD32VW553/GD32VW55X_Wifi_BLE_SDK/GD32VW55x_RELEASE_V1.0.2/MSDK/lwip/lwip-2.1.2/src/core\inet_chksum.c ****  * @param dst destination ip address (used for checksum of pseudo header)
 305:C:/Users/stapi/OneDrive/Desktop/GD32VW553/GD32VW55X_Wifi_BLE_SDK/GD32VW55x_RELEASE_V1.0.2/MSDK/lwip/lwip-2.1.2/src/core\inet_chksum.c ****  * @param proto ip protocol (used for checksum of pseudo header)
 306:C:/Users/stapi/OneDrive/Desktop/GD32VW553/GD32VW55X_Wifi_BLE_SDK/GD32VW55x_RELEASE_V1.0.2/MSDK/lwip/lwip-2.1.2/src/core\inet_chksum.c ****  * @param proto_len length of the ip data part (used for checksum of pseudo header)
 307:C:/Users/stapi/OneDrive/Desktop/GD32VW553/GD32VW55X_Wifi_BLE_SDK/GD32VW55x_RELEASE_V1.0.2/MSDK/lwip/lwip-2.1.2/src/core\inet_chksum.c ****  * @return checksum (as u16_t) to be saved directly in the protocol header
 308:C:/Users/stapi/OneDrive/Desktop/GD32VW553/GD32VW55X_Wifi_BLE_SDK/GD32VW55x_RELEASE_V1.0.2/MSDK/lwip/lwip-2.1.2/src/core\inet_chksum.c ****  */
 309:C:/Users/stapi/OneDrive/Desktop/GD32VW553/GD32VW55X_Wifi_BLE_SDK/GD32VW55x_RELEASE_V1.0.2/MSDK/lwip/lwip-2.1.2/src/core\inet_chksum.c **** u16_t
 310:C:/Users/stapi/OneDrive/Desktop/GD32VW553/GD32VW55X_Wifi_BLE_SDK/GD32VW55x_RELEASE_V1.0.2/MSDK/lwip/lwip-2.1.2/src/core\inet_chksum.c **** inet_chksum_pseudo(struct pbuf *p, u8_t proto, u16_t proto_len,
 311:C:/Users/stapi/OneDrive/Desktop/GD32VW553/GD32VW55X_Wifi_BLE_SDK/GD32VW55x_RELEASE_V1.0.2/MSDK/lwip/lwip-2.1.2/src/core\inet_chksum.c ****                    const ip4_addr_t *src, const ip4_addr_t *dest)
 312:C:/Users/stapi/OneDrive/Desktop/GD32VW553/GD32VW55X_Wifi_BLE_SDK/GD32VW55x_RELEASE_V1.0.2/MSDK/lwip/lwip-2.1.2/src/core\inet_chksum.c **** {
 219              		.loc 1 312 1
 220              		.cfi_startproc
 221              	.LVL36:
 222 0000 17030000 		call	t0,__riscv_save_6
 222      E7020300 
 223              		.cfi_offset 21, -28
 224              		.cfi_offset 20, -24
 225              		.cfi_offset 19, -20
 226              		.cfi_offset 18, -16
 227              		.cfi_offset 9, -12
 228              		.cfi_offset 8, -8
 229              		.cfi_offset 1, -4
 230              		.cfi_def_cfa_offset 32
 313:C:/Users/stapi/OneDrive/Desktop/GD32VW553/GD32VW55X_Wifi_BLE_SDK/GD32VW55x_RELEASE_V1.0.2/MSDK/lwip/lwip-2.1.2/src/core\inet_chksum.c ****   u32_t acc;
 231              		.loc 1 313 3
 314:C:/Users/stapi/OneDrive/Desktop/GD32VW553/GD32VW55X_Wifi_BLE_SDK/GD32VW55x_RELEASE_V1.0.2/MSDK/lwip/lwip-2.1.2/src/core\inet_chksum.c ****   u32_t addr;
 232              		.loc 1 314 3
 315:C:/Users/stapi/OneDrive/Desktop/GD32VW553/GD32VW55X_Wifi_BLE_SDK/GD32VW55x_RELEASE_V1.0.2/MSDK/lwip/lwip-2.1.2/src/core\inet_chksum.c **** 
 316:C:/Users/stapi/OneDrive/Desktop/GD32VW553/GD32VW55X_Wifi_BLE_SDK/GD32VW55x_RELEASE_V1.0.2/MSDK/lwip/lwip-2.1.2/src/core\inet_chksum.c ****   addr = ip4_addr_get_u32(src);
 233              		.loc 1 316 3
 317:C:/Users/stapi/OneDrive/Desktop/GD32VW553/GD32VW55X_Wifi_BLE_SDK/GD32VW55x_RELEASE_V1.0.2/MSDK/lwip/lwip-2.1.2/src/core\inet_chksum.c ****   acc = (addr & 0xffffUL);
 318:C:/Users/stapi/OneDrive/Desktop/GD32VW553/GD32VW55X_Wifi_BLE_SDK/GD32VW55x_RELEASE_V1.0.2/MSDK/lwip/lwip-2.1.2/src/core\inet_chksum.c ****   acc = (u32_t)(acc + ((addr >> 16) & 0xffffUL));
 319:C:/Users/stapi/OneDrive/Desktop/GD32VW553/GD32VW55X_Wifi_BLE_SDK/GD32VW55x_RELEASE_V1.0.2/MSDK/lwip/lwip-2.1.2/src/core\inet_chksum.c ****   addr = ip4_addr_get_u32(dest);
 234              		.loc 1 319 8 is_stmt 0
 235 0008 1843     		lw	a4,0(a4)
 236              	.LVL37:
 316:C:/Users/stapi/OneDrive/Desktop/GD32VW553/GD32VW55X_Wifi_BLE_SDK/GD32VW55x_RELEASE_V1.0.2/MSDK/lwip/lwip-2.1.2/src/core\inet_chksum.c ****   acc = (addr & 0xffffUL);
 237              		.loc 1 316 8
 238 000a 9C42     		lw	a5,0(a3)
 239              	.LVL38:
 317:C:/Users/stapi/OneDrive/Desktop/GD32VW553/GD32VW55X_Wifi_BLE_SDK/GD32VW55x_RELEASE_V1.0.2/MSDK/lwip/lwip-2.1.2/src/core\inet_chksum.c ****   acc = (addr & 0xffffUL);
 240              		.loc 1 317 3 is_stmt 1
 318:C:/Users/stapi/OneDrive/Desktop/GD32VW553/GD32VW55X_Wifi_BLE_SDK/GD32VW55x_RELEASE_V1.0.2/MSDK/lwip/lwip-2.1.2/src/core\inet_chksum.c ****   addr = ip4_addr_get_u32(dest);
 241              		.loc 1 318 3
 242              		.loc 1 319 3
 320:C:/Users/stapi/OneDrive/Desktop/GD32VW553/GD32VW55X_Wifi_BLE_SDK/GD32VW55x_RELEASE_V1.0.2/MSDK/lwip/lwip-2.1.2/src/core\inet_chksum.c ****   acc = (u32_t)(acc + (addr & 0xffffUL));
 243              		.loc 1 320 3
 321:C:/Users/stapi/OneDrive/Desktop/GD32VW553/GD32VW55X_Wifi_BLE_SDK/GD32VW55x_RELEASE_V1.0.2/MSDK/lwip/lwip-2.1.2/src/core\inet_chksum.c ****   acc = (u32_t)(acc + ((addr >> 16) & 0xffffUL));
 244              		.loc 1 321 3
 320:C:/Users/stapi/OneDrive/Desktop/GD32VW553/GD32VW55X_Wifi_BLE_SDK/GD32VW55x_RELEASE_V1.0.2/MSDK/lwip/lwip-2.1.2/src/core\inet_chksum.c ****   acc = (u32_t)(acc + (addr & 0xffffUL));
 245              		.loc 1 320 29 is_stmt 0
 246 000c C169     		li	s3,65536
 247 000e FD19     		addi	s3,s3,-1
 248 0010 33743701 		and	s0,a4,s3
 249              		.loc 1 321 30
 250 0014 4183     		srli	a4,a4,16
 251              	.LVL39:
 252 0016 3A94     		add	s0,s0,a4
 317:C:/Users/stapi/OneDrive/Desktop/GD32VW553/GD32VW55X_Wifi_BLE_SDK/GD32VW55x_RELEASE_V1.0.2/MSDK/lwip/lwip-2.1.2/src/core\inet_chksum.c ****   acc = (u32_t)(acc + ((addr >> 16) & 0xffffUL));
 253              		.loc 1 317 7
 254 0018 33F73701 		and	a4,a5,s3
 255 001c 3A94     		add	s0,s0,a4
 318:C:/Users/stapi/OneDrive/Desktop/GD32VW553/GD32VW55X_Wifi_BLE_SDK/GD32VW55x_RELEASE_V1.0.2/MSDK/lwip/lwip-2.1.2/src/core\inet_chksum.c ****   addr = ip4_addr_get_u32(dest);
 256              		.loc 1 318 30
 257 001e C183     		srli	a5,a5,16
 258              	.LVL40:
 259              		.loc 1 321 7
 260 0020 A297     		add	a5,a5,s0
 261              	.LVL41:
 322:C:/Users/stapi/OneDrive/Desktop/GD32VW553/GD32VW55X_Wifi_BLE_SDK/GD32VW55x_RELEASE_V1.0.2/MSDK/lwip/lwip-2.1.2/src/core\inet_chksum.c ****   /* fold down to 16 bits */
 323:C:/Users/stapi/OneDrive/Desktop/GD32VW553/GD32VW55X_Wifi_BLE_SDK/GD32VW55x_RELEASE_V1.0.2/MSDK/lwip/lwip-2.1.2/src/core\inet_chksum.c ****   acc = FOLD_U32T(acc);
 262              		.loc 1 323 3 is_stmt 1
 263              		.loc 1 323 9 is_stmt 0
 264 0022 13D40701 		srli	s0,a5,16
 265 0026 B3F73701 		and	a5,a5,s3
 266              	.LVL42:
 267              		.loc 1 323 7
 268 002a A297     		add	a5,s0,a5
 269              	.LVL43:
 324:C:/Users/stapi/OneDrive/Desktop/GD32VW553/GD32VW55X_Wifi_BLE_SDK/GD32VW55x_RELEASE_V1.0.2/MSDK/lwip/lwip-2.1.2/src/core\inet_chksum.c ****   acc = FOLD_U32T(acc);
 270              		.loc 1 324 3 is_stmt 1
 271              		.loc 1 324 9 is_stmt 0
 272 002c 13D40701 		srli	s0,a5,16
 273 0030 B3F73701 		and	a5,a5,s3
 274              	.LVL44:
 312:C:/Users/stapi/OneDrive/Desktop/GD32VW553/GD32VW55X_Wifi_BLE_SDK/GD32VW55x_RELEASE_V1.0.2/MSDK/lwip/lwip-2.1.2/src/core\inet_chksum.c ****   u32_t acc;
 275              		.loc 1 312 1
 276 0034 AA84     		mv	s1,a0
 277 0036 2E8A     		mv	s4,a1
 278 0038 3289     		mv	s2,a2
 279              		.loc 1 324 7
 280 003a 3E94     		add	s0,s0,a5
 281              	.LVL45:
 325:C:/Users/stapi/OneDrive/Desktop/GD32VW553/GD32VW55X_Wifi_BLE_SDK/GD32VW55x_RELEASE_V1.0.2/MSDK/lwip/lwip-2.1.2/src/core\inet_chksum.c **** 
 326:C:/Users/stapi/OneDrive/Desktop/GD32VW553/GD32VW55X_Wifi_BLE_SDK/GD32VW55x_RELEASE_V1.0.2/MSDK/lwip/lwip-2.1.2/src/core\inet_chksum.c ****   return inet_cksum_pseudo_base(p, proto, proto_len, acc);
 282              		.loc 1 326 3 is_stmt 1
 283              	.LBB4:
 284              	.LBB5:
 262:C:/Users/stapi/OneDrive/Desktop/GD32VW553/GD32VW55X_Wifi_BLE_SDK/GD32VW55x_RELEASE_V1.0.2/MSDK/lwip/lwip-2.1.2/src/core\inet_chksum.c ****   int swapped = 0;
 285              		.loc 1 262 3
 263:C:/Users/stapi/OneDrive/Desktop/GD32VW553/GD32VW55X_Wifi_BLE_SDK/GD32VW55x_RELEASE_V1.0.2/MSDK/lwip/lwip-2.1.2/src/core\inet_chksum.c **** 
 286              		.loc 1 263 3
 266:C:/Users/stapi/OneDrive/Desktop/GD32VW553/GD32VW55X_Wifi_BLE_SDK/GD32VW55x_RELEASE_V1.0.2/MSDK/lwip/lwip-2.1.2/src/core\inet_chksum.c ****     LWIP_DEBUGF(INET_DEBUG, ("inet_chksum_pseudo(): checksumming pbuf %p (has next %p) \n",
 287              		.loc 1 266 3
 263:C:/Users/stapi/OneDrive/Desktop/GD32VW553/GD32VW55X_Wifi_BLE_SDK/GD32VW55x_RELEASE_V1.0.2/MSDK/lwip/lwip-2.1.2/src/core\inet_chksum.c **** 
 288              		.loc 1 263 7 is_stmt 0
 289 003c 814A     		li	s5,0
 290              	.LVL46:
 291              	.L24:
 266:C:/Users/stapi/OneDrive/Desktop/GD32VW553/GD32VW55X_Wifi_BLE_SDK/GD32VW55x_RELEASE_V1.0.2/MSDK/lwip/lwip-2.1.2/src/core\inet_chksum.c ****     LWIP_DEBUGF(INET_DEBUG, ("inet_chksum_pseudo(): checksumming pbuf %p (has next %p) \n",
 292              		.loc 1 266 15 is_stmt 1
 266:C:/Users/stapi/OneDrive/Desktop/GD32VW553/GD32VW55X_Wifi_BLE_SDK/GD32VW55x_RELEASE_V1.0.2/MSDK/lwip/lwip-2.1.2/src/core\inet_chksum.c ****     LWIP_DEBUGF(INET_DEBUG, ("inet_chksum_pseudo(): checksumming pbuf %p (has next %p) \n",
 293              		.loc 1 266 3 is_stmt 0
 294 003e B9E8     		bne	s1,zero,.L26
 281:C:/Users/stapi/OneDrive/Desktop/GD32VW553/GD32VW55X_Wifi_BLE_SDK/GD32VW55x_RELEASE_V1.0.2/MSDK/lwip/lwip-2.1.2/src/core\inet_chksum.c ****     acc = SWAP_BYTES_IN_WORD(acc);
 295              		.loc 1 281 3 is_stmt 1
 281:C:/Users/stapi/OneDrive/Desktop/GD32VW553/GD32VW55X_Wifi_BLE_SDK/GD32VW55x_RELEASE_V1.0.2/MSDK/lwip/lwip-2.1.2/src/core\inet_chksum.c ****     acc = SWAP_BYTES_IN_WORD(acc);
 296              		.loc 1 281 6 is_stmt 0
 297 0040 638B0A00 		beq	s5,zero,.L27
 282:C:/Users/stapi/OneDrive/Desktop/GD32VW553/GD32VW55X_Wifi_BLE_SDK/GD32VW55x_RELEASE_V1.0.2/MSDK/lwip/lwip-2.1.2/src/core\inet_chksum.c ****   }
 298              		.loc 1 282 5 is_stmt 1
 282:C:/Users/stapi/OneDrive/Desktop/GD32VW553/GD32VW55X_Wifi_BLE_SDK/GD32VW55x_RELEASE_V1.0.2/MSDK/lwip/lwip-2.1.2/src/core\inet_chksum.c ****   }
 299              		.loc 1 282 11 is_stmt 0
 300 0044 4167     		li	a4,65536
 301 0046 93178400 		slli	a5,s0,8
 302 004a 7D17     		addi	a4,a4,-1
 303 004c 2180     		srli	s0,s0,8
 304              	.LVL47:
 305 004e F98F     		and	a5,a5,a4
 306 0050 1374F40F 		andi	s0,s0,255
 282:C:/Users/stapi/OneDrive/Desktop/GD32VW553/GD32VW55X_Wifi_BLE_SDK/GD32VW55x_RELEASE_V1.0.2/MSDK/lwip/lwip-2.1.2/src/core\inet_chksum.c ****   }
 307              		.loc 1 282 9
 308 0054 5D8C     		or	s0,a5,s0
 309              	.LVL48:
 310              	.L27:
 285:C:/Users/stapi/OneDrive/Desktop/GD32VW553/GD32VW55X_Wifi_BLE_SDK/GD32VW55x_RELEASE_V1.0.2/MSDK/lwip/lwip-2.1.2/src/core\inet_chksum.c ****   acc += (u32_t)lwip_htons(proto_len);
 311              		.loc 1 285 3 is_stmt 1
 285:C:/Users/stapi/OneDrive/Desktop/GD32VW553/GD32VW55X_Wifi_BLE_SDK/GD32VW55x_RELEASE_V1.0.2/MSDK/lwip/lwip-2.1.2/src/core\inet_chksum.c ****   acc += (u32_t)lwip_htons(proto_len);
 312              		.loc 1 285 17 is_stmt 0
 313 0056 5285     		mv	a0,s4
 314 0058 97000000 		call	lwip_htons
 314      E7800000 
 315              	.LVL49:
 316 0060 AA84     		mv	s1,a0
 317              	.LVL50:
 286:C:/Users/stapi/OneDrive/Desktop/GD32VW553/GD32VW55X_Wifi_BLE_SDK/GD32VW55x_RELEASE_V1.0.2/MSDK/lwip/lwip-2.1.2/src/core\inet_chksum.c **** 
 318              		.loc 1 286 3 is_stmt 1
 286:C:/Users/stapi/OneDrive/Desktop/GD32VW553/GD32VW55X_Wifi_BLE_SDK/GD32VW55x_RELEASE_V1.0.2/MSDK/lwip/lwip-2.1.2/src/core\inet_chksum.c **** 
 319              		.loc 1 286 17 is_stmt 0
 320 0062 4A85     		mv	a0,s2
 321 0064 97000000 		call	lwip_htons
 321      E7800000 
 322              	.LVL51:
 286:C:/Users/stapi/OneDrive/Desktop/GD32VW553/GD32VW55X_Wifi_BLE_SDK/GD32VW55x_RELEASE_V1.0.2/MSDK/lwip/lwip-2.1.2/src/core\inet_chksum.c **** 
 323              		.loc 1 286 7
 324 006c AA94     		add	s1,s1,a0
 325              	.LVL52:
 290:C:/Users/stapi/OneDrive/Desktop/GD32VW553/GD32VW55X_Wifi_BLE_SDK/GD32VW55x_RELEASE_V1.0.2/MSDK/lwip/lwip-2.1.2/src/core\inet_chksum.c ****   acc = FOLD_U32T(acc);
 326              		.loc 1 290 9
 327 006e 4167     		li	a4,65536
 286:C:/Users/stapi/OneDrive/Desktop/GD32VW553/GD32VW55X_Wifi_BLE_SDK/GD32VW55x_RELEASE_V1.0.2/MSDK/lwip/lwip-2.1.2/src/core\inet_chksum.c **** 
 328              		.loc 1 286 7
 329 0070 2694     		add	s0,s1,s0
 330              	.LVL53:
 290:C:/Users/stapi/OneDrive/Desktop/GD32VW553/GD32VW55X_Wifi_BLE_SDK/GD32VW55x_RELEASE_V1.0.2/MSDK/lwip/lwip-2.1.2/src/core\inet_chksum.c ****   acc = FOLD_U32T(acc);
 331              		.loc 1 290 3 is_stmt 1
 290:C:/Users/stapi/OneDrive/Desktop/GD32VW553/GD32VW55X_Wifi_BLE_SDK/GD32VW55x_RELEASE_V1.0.2/MSDK/lwip/lwip-2.1.2/src/core\inet_chksum.c ****   acc = FOLD_U32T(acc);
 332              		.loc 1 290 9 is_stmt 0
 333 0072 7D17     		addi	a4,a4,-1
 334 0074 93570401 		srli	a5,s0,16
 335 0078 798C     		and	s0,s0,a4
 336              	.LVL54:
 290:C:/Users/stapi/OneDrive/Desktop/GD32VW553/GD32VW55X_Wifi_BLE_SDK/GD32VW55x_RELEASE_V1.0.2/MSDK/lwip/lwip-2.1.2/src/core\inet_chksum.c ****   acc = FOLD_U32T(acc);
 337              		.loc 1 290 7
 338 007a 3E94     		add	s0,a5,s0
 339              	.LVL55:
 291:C:/Users/stapi/OneDrive/Desktop/GD32VW553/GD32VW55X_Wifi_BLE_SDK/GD32VW55x_RELEASE_V1.0.2/MSDK/lwip/lwip-2.1.2/src/core\inet_chksum.c ****   LWIP_DEBUGF(INET_DEBUG, ("inet_chksum_pseudo(): pbuf chain lwip_chksum()=%"X32_F"\n", acc));
 340              		.loc 1 291 3 is_stmt 1
 291:C:/Users/stapi/OneDrive/Desktop/GD32VW553/GD32VW55X_Wifi_BLE_SDK/GD32VW55x_RELEASE_V1.0.2/MSDK/lwip/lwip-2.1.2/src/core\inet_chksum.c ****   LWIP_DEBUGF(INET_DEBUG, ("inet_chksum_pseudo(): pbuf chain lwip_chksum()=%"X32_F"\n", acc));
 341              		.loc 1 291 9 is_stmt 0
 342 007c 13550401 		srli	a0,s0,16
 343 0080 798C     		and	s0,s0,a4
 344              	.LVL56:
 292:C:/Users/stapi/OneDrive/Desktop/GD32VW553/GD32VW55X_Wifi_BLE_SDK/GD32VW55x_RELEASE_V1.0.2/MSDK/lwip/lwip-2.1.2/src/core\inet_chksum.c ****   return (u16_t)~(acc & 0xffffUL);
 345              		.loc 1 292 94 is_stmt 1
 293:C:/Users/stapi/OneDrive/Desktop/GD32VW553/GD32VW55X_Wifi_BLE_SDK/GD32VW55x_RELEASE_V1.0.2/MSDK/lwip/lwip-2.1.2/src/core\inet_chksum.c **** }
 346              		.loc 1 293 3
 291:C:/Users/stapi/OneDrive/Desktop/GD32VW553/GD32VW55X_Wifi_BLE_SDK/GD32VW55x_RELEASE_V1.0.2/MSDK/lwip/lwip-2.1.2/src/core\inet_chksum.c ****   LWIP_DEBUGF(INET_DEBUG, ("inet_chksum_pseudo(): pbuf chain lwip_chksum()=%"X32_F"\n", acc));
 347              		.loc 1 291 7 is_stmt 0
 348 0082 2A94     		add	s0,a0,s0
 293:C:/Users/stapi/OneDrive/Desktop/GD32VW553/GD32VW55X_Wifi_BLE_SDK/GD32VW55x_RELEASE_V1.0.2/MSDK/lwip/lwip-2.1.2/src/core\inet_chksum.c **** }
 349              		.loc 1 293 10
 350 0084 1345F4FF 		not	a0,s0
 351              	.LBE5:
 352              	.LBE4:
 327:C:/Users/stapi/OneDrive/Desktop/GD32VW553/GD32VW55X_Wifi_BLE_SDK/GD32VW55x_RELEASE_V1.0.2/MSDK/lwip/lwip-2.1.2/src/core\inet_chksum.c **** }
 353              		.loc 1 327 1
 354 0088 33450508 		zext.h	a0,a0
 355 008c 17030000 		tail	__riscv_restore_6
 355      67000300 
 356              		.cfi_remember_state
 357              		.cfi_restore 21
 358              		.cfi_restore 20
 359              		.cfi_restore 19
 360              		.cfi_restore 18
 361              		.cfi_restore 9
 362              		.cfi_restore 8
 363              		.cfi_restore 1
 364              		.cfi_def_cfa_offset 0
 365              	.LVL57:
 366              	.L26:
 367              		.cfi_restore_state
 368              	.LBB7:
 369              	.LBB6:
 268:C:/Users/stapi/OneDrive/Desktop/GD32VW553/GD32VW55X_Wifi_BLE_SDK/GD32VW55x_RELEASE_V1.0.2/MSDK/lwip/lwip-2.1.2/src/core\inet_chksum.c ****     acc += LWIP_CHKSUM(q->payload, q->len);
 370              		.loc 1 268 58 is_stmt 1
 269:C:/Users/stapi/OneDrive/Desktop/GD32VW553/GD32VW55X_Wifi_BLE_SDK/GD32VW55x_RELEASE_V1.0.2/MSDK/lwip/lwip-2.1.2/src/core\inet_chksum.c ****     /*LWIP_DEBUGF(INET_DEBUG, ("inet_chksum_pseudo(): unwrapped lwip_chksum()=%"X32_F" \n", acc));*
 371              		.loc 1 269 5
 269:C:/Users/stapi/OneDrive/Desktop/GD32VW553/GD32VW55X_Wifi_BLE_SDK/GD32VW55x_RELEASE_V1.0.2/MSDK/lwip/lwip-2.1.2/src/core\inet_chksum.c ****     /*LWIP_DEBUGF(INET_DEBUG, ("inet_chksum_pseudo(): unwrapped lwip_chksum()=%"X32_F" \n", acc));*
 372              		.loc 1 269 12 is_stmt 0
 373 0094 83D5A400 		lhu	a1,10(s1)
 374 0098 C840     		lw	a0,4(s1)
 375 009a 97000000 		call	wifi_ip_chksum
 375      E7800000 
 376              	.LVL58:
 269:C:/Users/stapi/OneDrive/Desktop/GD32VW553/GD32VW55X_Wifi_BLE_SDK/GD32VW55x_RELEASE_V1.0.2/MSDK/lwip/lwip-2.1.2/src/core\inet_chksum.c ****     /*LWIP_DEBUGF(INET_DEBUG, ("inet_chksum_pseudo(): unwrapped lwip_chksum()=%"X32_F" \n", acc));*
 377              		.loc 1 269 9
 378 00a2 2A94     		add	s0,a0,s0
 379              	.LVL59:
 273:C:/Users/stapi/OneDrive/Desktop/GD32VW553/GD32VW55X_Wifi_BLE_SDK/GD32VW55x_RELEASE_V1.0.2/MSDK/lwip/lwip-2.1.2/src/core\inet_chksum.c ****     if (q->len % 2 != 0) {
 380              		.loc 1 273 5 is_stmt 1
 273:C:/Users/stapi/OneDrive/Desktop/GD32VW553/GD32VW55X_Wifi_BLE_SDK/GD32VW55x_RELEASE_V1.0.2/MSDK/lwip/lwip-2.1.2/src/core\inet_chksum.c ****     if (q->len % 2 != 0) {
 381              		.loc 1 273 11 is_stmt 0
 382 00a4 93570401 		srli	a5,s0,16
 383 00a8 33743401 		and	s0,s0,s3
 384              	.LVL60:
 273:C:/Users/stapi/OneDrive/Desktop/GD32VW553/GD32VW55X_Wifi_BLE_SDK/GD32VW55x_RELEASE_V1.0.2/MSDK/lwip/lwip-2.1.2/src/core\inet_chksum.c ****     if (q->len % 2 != 0) {
 385              		.loc 1 273 9
 386 00ac 3E94     		add	s0,a5,s0
 387              	.LVL61:
 274:C:/Users/stapi/OneDrive/Desktop/GD32VW553/GD32VW55X_Wifi_BLE_SDK/GD32VW55x_RELEASE_V1.0.2/MSDK/lwip/lwip-2.1.2/src/core\inet_chksum.c ****       swapped = !swapped;
 388              		.loc 1 274 5 is_stmt 1
 274:C:/Users/stapi/OneDrive/Desktop/GD32VW553/GD32VW55X_Wifi_BLE_SDK/GD32VW55x_RELEASE_V1.0.2/MSDK/lwip/lwip-2.1.2/src/core\inet_chksum.c ****       swapped = !swapped;
 389              		.loc 1 274 20 is_stmt 0
 390 00ae 83D7A400 		lhu	a5,10(s1)
 274:C:/Users/stapi/OneDrive/Desktop/GD32VW553/GD32VW55X_Wifi_BLE_SDK/GD32VW55x_RELEASE_V1.0.2/MSDK/lwip/lwip-2.1.2/src/core\inet_chksum.c ****       swapped = !swapped;
 391              		.loc 1 274 8
 392 00b2 858B     		andi	a5,a5,1
 393 00b4 99CB     		beq	a5,zero,.L25
 275:C:/Users/stapi/OneDrive/Desktop/GD32VW553/GD32VW55X_Wifi_BLE_SDK/GD32VW55x_RELEASE_V1.0.2/MSDK/lwip/lwip-2.1.2/src/core\inet_chksum.c ****       acc = SWAP_BYTES_IN_WORD(acc);
 394              		.loc 1 275 7 is_stmt 1
 276:C:/Users/stapi/OneDrive/Desktop/GD32VW553/GD32VW55X_Wifi_BLE_SDK/GD32VW55x_RELEASE_V1.0.2/MSDK/lwip/lwip-2.1.2/src/core\inet_chksum.c ****     }
 395              		.loc 1 276 13 is_stmt 0
 396 00b6 93178400 		slli	a5,s0,8
 397 00ba 2180     		srli	s0,s0,8
 398              	.LVL62:
 399 00bc B3F73701 		and	a5,a5,s3
 400 00c0 1374F40F 		andi	s0,s0,255
 401 00c4 93CA1A00 		xori	s5,s5,1
 402              	.LVL63:
 276:C:/Users/stapi/OneDrive/Desktop/GD32VW553/GD32VW55X_Wifi_BLE_SDK/GD32VW55x_RELEASE_V1.0.2/MSDK/lwip/lwip-2.1.2/src/core\inet_chksum.c ****     }
 403              		.loc 1 276 7 is_stmt 1
 276:C:/Users/stapi/OneDrive/Desktop/GD32VW553/GD32VW55X_Wifi_BLE_SDK/GD32VW55x_RELEASE_V1.0.2/MSDK/lwip/lwip-2.1.2/src/core\inet_chksum.c ****     }
 404              		.loc 1 276 11 is_stmt 0
 405 00c8 5D8C     		or	s0,a5,s0
 406              	.LVL64:
 407              	.L25:
 266:C:/Users/stapi/OneDrive/Desktop/GD32VW553/GD32VW55X_Wifi_BLE_SDK/GD32VW55x_RELEASE_V1.0.2/MSDK/lwip/lwip-2.1.2/src/core\inet_chksum.c ****     LWIP_DEBUGF(INET_DEBUG, ("inet_chksum_pseudo(): checksumming pbuf %p (has next %p) \n",
 408              		.loc 1 266 26 is_stmt 1
 266:C:/Users/stapi/OneDrive/Desktop/GD32VW553/GD32VW55X_Wifi_BLE_SDK/GD32VW55x_RELEASE_V1.0.2/MSDK/lwip/lwip-2.1.2/src/core\inet_chksum.c ****     LWIP_DEBUGF(INET_DEBUG, ("inet_chksum_pseudo(): checksumming pbuf %p (has next %p) \n",
 409              		.loc 1 266 28 is_stmt 0
 410 00ca 8440     		lw	s1,0(s1)
 411              	.LVL65:
 412 00cc 8DBF     		j	.L24
 413              	.LBE6:
 414              	.LBE7:
 415              		.cfi_endproc
 416              	.LFE6:
 418              		.section	.text.ip_chksum_pseudo,"ax",@progbits
 419              		.align	1
 420              		.globl	ip_chksum_pseudo
 422              	ip_chksum_pseudo:
 423              	.LFB7:
 328:C:/Users/stapi/OneDrive/Desktop/GD32VW553/GD32VW55X_Wifi_BLE_SDK/GD32VW55x_RELEASE_V1.0.2/MSDK/lwip/lwip-2.1.2/src/core\inet_chksum.c **** #endif /* LWIP_IPV4 */
 329:C:/Users/stapi/OneDrive/Desktop/GD32VW553/GD32VW55X_Wifi_BLE_SDK/GD32VW55x_RELEASE_V1.0.2/MSDK/lwip/lwip-2.1.2/src/core\inet_chksum.c **** 
 330:C:/Users/stapi/OneDrive/Desktop/GD32VW553/GD32VW55X_Wifi_BLE_SDK/GD32VW55x_RELEASE_V1.0.2/MSDK/lwip/lwip-2.1.2/src/core\inet_chksum.c **** #if LWIP_IPV6
 331:C:/Users/stapi/OneDrive/Desktop/GD32VW553/GD32VW55X_Wifi_BLE_SDK/GD32VW55x_RELEASE_V1.0.2/MSDK/lwip/lwip-2.1.2/src/core\inet_chksum.c **** /**
 332:C:/Users/stapi/OneDrive/Desktop/GD32VW553/GD32VW55X_Wifi_BLE_SDK/GD32VW55x_RELEASE_V1.0.2/MSDK/lwip/lwip-2.1.2/src/core\inet_chksum.c ****  * Calculates the checksum with IPv6 pseudo header used by TCP and UDP for a pbuf chain.
 333:C:/Users/stapi/OneDrive/Desktop/GD32VW553/GD32VW55X_Wifi_BLE_SDK/GD32VW55x_RELEASE_V1.0.2/MSDK/lwip/lwip-2.1.2/src/core\inet_chksum.c ****  * IPv6 addresses are expected to be in network byte order.
 334:C:/Users/stapi/OneDrive/Desktop/GD32VW553/GD32VW55X_Wifi_BLE_SDK/GD32VW55x_RELEASE_V1.0.2/MSDK/lwip/lwip-2.1.2/src/core\inet_chksum.c ****  *
 335:C:/Users/stapi/OneDrive/Desktop/GD32VW553/GD32VW55X_Wifi_BLE_SDK/GD32VW55x_RELEASE_V1.0.2/MSDK/lwip/lwip-2.1.2/src/core\inet_chksum.c ****  * @param p chain of pbufs over that a checksum should be calculated (ip data part)
 336:C:/Users/stapi/OneDrive/Desktop/GD32VW553/GD32VW55X_Wifi_BLE_SDK/GD32VW55x_RELEASE_V1.0.2/MSDK/lwip/lwip-2.1.2/src/core\inet_chksum.c ****  * @param proto ipv6 protocol/next header (used for checksum of pseudo header)
 337:C:/Users/stapi/OneDrive/Desktop/GD32VW553/GD32VW55X_Wifi_BLE_SDK/GD32VW55x_RELEASE_V1.0.2/MSDK/lwip/lwip-2.1.2/src/core\inet_chksum.c ****  * @param proto_len length of the ipv6 payload (used for checksum of pseudo header)
 338:C:/Users/stapi/OneDrive/Desktop/GD32VW553/GD32VW55X_Wifi_BLE_SDK/GD32VW55x_RELEASE_V1.0.2/MSDK/lwip/lwip-2.1.2/src/core\inet_chksum.c ****  * @param src source ipv6 address (used for checksum of pseudo header)
 339:C:/Users/stapi/OneDrive/Desktop/GD32VW553/GD32VW55X_Wifi_BLE_SDK/GD32VW55x_RELEASE_V1.0.2/MSDK/lwip/lwip-2.1.2/src/core\inet_chksum.c ****  * @param dest destination ipv6 address (used for checksum of pseudo header)
 340:C:/Users/stapi/OneDrive/Desktop/GD32VW553/GD32VW55X_Wifi_BLE_SDK/GD32VW55x_RELEASE_V1.0.2/MSDK/lwip/lwip-2.1.2/src/core\inet_chksum.c ****  * @return checksum (as u16_t) to be saved directly in the protocol header
 341:C:/Users/stapi/OneDrive/Desktop/GD32VW553/GD32VW55X_Wifi_BLE_SDK/GD32VW55x_RELEASE_V1.0.2/MSDK/lwip/lwip-2.1.2/src/core\inet_chksum.c ****  */
 342:C:/Users/stapi/OneDrive/Desktop/GD32VW553/GD32VW55X_Wifi_BLE_SDK/GD32VW55x_RELEASE_V1.0.2/MSDK/lwip/lwip-2.1.2/src/core\inet_chksum.c **** u16_t
 343:C:/Users/stapi/OneDrive/Desktop/GD32VW553/GD32VW55X_Wifi_BLE_SDK/GD32VW55x_RELEASE_V1.0.2/MSDK/lwip/lwip-2.1.2/src/core\inet_chksum.c **** ip6_chksum_pseudo(struct pbuf *p, u8_t proto, u16_t proto_len,
 344:C:/Users/stapi/OneDrive/Desktop/GD32VW553/GD32VW55X_Wifi_BLE_SDK/GD32VW55x_RELEASE_V1.0.2/MSDK/lwip/lwip-2.1.2/src/core\inet_chksum.c ****                   const ip6_addr_t *src, const ip6_addr_t *dest)
 345:C:/Users/stapi/OneDrive/Desktop/GD32VW553/GD32VW55X_Wifi_BLE_SDK/GD32VW55x_RELEASE_V1.0.2/MSDK/lwip/lwip-2.1.2/src/core\inet_chksum.c **** {
 346:C:/Users/stapi/OneDrive/Desktop/GD32VW553/GD32VW55X_Wifi_BLE_SDK/GD32VW55x_RELEASE_V1.0.2/MSDK/lwip/lwip-2.1.2/src/core\inet_chksum.c ****   u32_t acc = 0;
 347:C:/Users/stapi/OneDrive/Desktop/GD32VW553/GD32VW55X_Wifi_BLE_SDK/GD32VW55x_RELEASE_V1.0.2/MSDK/lwip/lwip-2.1.2/src/core\inet_chksum.c ****   u32_t addr;
 348:C:/Users/stapi/OneDrive/Desktop/GD32VW553/GD32VW55X_Wifi_BLE_SDK/GD32VW55x_RELEASE_V1.0.2/MSDK/lwip/lwip-2.1.2/src/core\inet_chksum.c ****   u8_t addr_part;
 349:C:/Users/stapi/OneDrive/Desktop/GD32VW553/GD32VW55X_Wifi_BLE_SDK/GD32VW55x_RELEASE_V1.0.2/MSDK/lwip/lwip-2.1.2/src/core\inet_chksum.c **** 
 350:C:/Users/stapi/OneDrive/Desktop/GD32VW553/GD32VW55X_Wifi_BLE_SDK/GD32VW55x_RELEASE_V1.0.2/MSDK/lwip/lwip-2.1.2/src/core\inet_chksum.c ****   for (addr_part = 0; addr_part < 4; addr_part++) {
 351:C:/Users/stapi/OneDrive/Desktop/GD32VW553/GD32VW55X_Wifi_BLE_SDK/GD32VW55x_RELEASE_V1.0.2/MSDK/lwip/lwip-2.1.2/src/core\inet_chksum.c ****     addr = src->addr[addr_part];
 352:C:/Users/stapi/OneDrive/Desktop/GD32VW553/GD32VW55X_Wifi_BLE_SDK/GD32VW55x_RELEASE_V1.0.2/MSDK/lwip/lwip-2.1.2/src/core\inet_chksum.c ****     acc = (u32_t)(acc + (addr & 0xffffUL));
 353:C:/Users/stapi/OneDrive/Desktop/GD32VW553/GD32VW55X_Wifi_BLE_SDK/GD32VW55x_RELEASE_V1.0.2/MSDK/lwip/lwip-2.1.2/src/core\inet_chksum.c ****     acc = (u32_t)(acc + ((addr >> 16) & 0xffffUL));
 354:C:/Users/stapi/OneDrive/Desktop/GD32VW553/GD32VW55X_Wifi_BLE_SDK/GD32VW55x_RELEASE_V1.0.2/MSDK/lwip/lwip-2.1.2/src/core\inet_chksum.c ****     addr = dest->addr[addr_part];
 355:C:/Users/stapi/OneDrive/Desktop/GD32VW553/GD32VW55X_Wifi_BLE_SDK/GD32VW55x_RELEASE_V1.0.2/MSDK/lwip/lwip-2.1.2/src/core\inet_chksum.c ****     acc = (u32_t)(acc + (addr & 0xffffUL));
 356:C:/Users/stapi/OneDrive/Desktop/GD32VW553/GD32VW55X_Wifi_BLE_SDK/GD32VW55x_RELEASE_V1.0.2/MSDK/lwip/lwip-2.1.2/src/core\inet_chksum.c ****     acc = (u32_t)(acc + ((addr >> 16) & 0xffffUL));
 357:C:/Users/stapi/OneDrive/Desktop/GD32VW553/GD32VW55X_Wifi_BLE_SDK/GD32VW55x_RELEASE_V1.0.2/MSDK/lwip/lwip-2.1.2/src/core\inet_chksum.c ****   }
 358:C:/Users/stapi/OneDrive/Desktop/GD32VW553/GD32VW55X_Wifi_BLE_SDK/GD32VW55x_RELEASE_V1.0.2/MSDK/lwip/lwip-2.1.2/src/core\inet_chksum.c ****   /* fold down to 16 bits */
 359:C:/Users/stapi/OneDrive/Desktop/GD32VW553/GD32VW55X_Wifi_BLE_SDK/GD32VW55x_RELEASE_V1.0.2/MSDK/lwip/lwip-2.1.2/src/core\inet_chksum.c ****   acc = FOLD_U32T(acc);
 360:C:/Users/stapi/OneDrive/Desktop/GD32VW553/GD32VW55X_Wifi_BLE_SDK/GD32VW55x_RELEASE_V1.0.2/MSDK/lwip/lwip-2.1.2/src/core\inet_chksum.c ****   acc = FOLD_U32T(acc);
 361:C:/Users/stapi/OneDrive/Desktop/GD32VW553/GD32VW55X_Wifi_BLE_SDK/GD32VW55x_RELEASE_V1.0.2/MSDK/lwip/lwip-2.1.2/src/core\inet_chksum.c **** 
 362:C:/Users/stapi/OneDrive/Desktop/GD32VW553/GD32VW55X_Wifi_BLE_SDK/GD32VW55x_RELEASE_V1.0.2/MSDK/lwip/lwip-2.1.2/src/core\inet_chksum.c ****   return inet_cksum_pseudo_base(p, proto, proto_len, acc);
 363:C:/Users/stapi/OneDrive/Desktop/GD32VW553/GD32VW55X_Wifi_BLE_SDK/GD32VW55x_RELEASE_V1.0.2/MSDK/lwip/lwip-2.1.2/src/core\inet_chksum.c **** }
 364:C:/Users/stapi/OneDrive/Desktop/GD32VW553/GD32VW55X_Wifi_BLE_SDK/GD32VW55x_RELEASE_V1.0.2/MSDK/lwip/lwip-2.1.2/src/core\inet_chksum.c **** #endif /* LWIP_IPV6 */
 365:C:/Users/stapi/OneDrive/Desktop/GD32VW553/GD32VW55X_Wifi_BLE_SDK/GD32VW55x_RELEASE_V1.0.2/MSDK/lwip/lwip-2.1.2/src/core\inet_chksum.c **** 
 366:C:/Users/stapi/OneDrive/Desktop/GD32VW553/GD32VW55X_Wifi_BLE_SDK/GD32VW55x_RELEASE_V1.0.2/MSDK/lwip/lwip-2.1.2/src/core\inet_chksum.c **** /* ip_chksum_pseudo:
 367:C:/Users/stapi/OneDrive/Desktop/GD32VW553/GD32VW55X_Wifi_BLE_SDK/GD32VW55x_RELEASE_V1.0.2/MSDK/lwip/lwip-2.1.2/src/core\inet_chksum.c ****  *
 368:C:/Users/stapi/OneDrive/Desktop/GD32VW553/GD32VW55X_Wifi_BLE_SDK/GD32VW55x_RELEASE_V1.0.2/MSDK/lwip/lwip-2.1.2/src/core\inet_chksum.c ****  * Calculates the IPv4 or IPv6 pseudo Internet checksum used by TCP and UDP for a pbuf chain.
 369:C:/Users/stapi/OneDrive/Desktop/GD32VW553/GD32VW55X_Wifi_BLE_SDK/GD32VW55x_RELEASE_V1.0.2/MSDK/lwip/lwip-2.1.2/src/core\inet_chksum.c ****  * IP addresses are expected to be in network byte order.
 370:C:/Users/stapi/OneDrive/Desktop/GD32VW553/GD32VW55X_Wifi_BLE_SDK/GD32VW55x_RELEASE_V1.0.2/MSDK/lwip/lwip-2.1.2/src/core\inet_chksum.c ****  *
 371:C:/Users/stapi/OneDrive/Desktop/GD32VW553/GD32VW55X_Wifi_BLE_SDK/GD32VW55x_RELEASE_V1.0.2/MSDK/lwip/lwip-2.1.2/src/core\inet_chksum.c ****  * @param p chain of pbufs over that a checksum should be calculated (ip data part)
 372:C:/Users/stapi/OneDrive/Desktop/GD32VW553/GD32VW55X_Wifi_BLE_SDK/GD32VW55x_RELEASE_V1.0.2/MSDK/lwip/lwip-2.1.2/src/core\inet_chksum.c ****  * @param src source ip address (used for checksum of pseudo header)
 373:C:/Users/stapi/OneDrive/Desktop/GD32VW553/GD32VW55X_Wifi_BLE_SDK/GD32VW55x_RELEASE_V1.0.2/MSDK/lwip/lwip-2.1.2/src/core\inet_chksum.c ****  * @param dst destination ip address (used for checksum of pseudo header)
 374:C:/Users/stapi/OneDrive/Desktop/GD32VW553/GD32VW55X_Wifi_BLE_SDK/GD32VW55x_RELEASE_V1.0.2/MSDK/lwip/lwip-2.1.2/src/core\inet_chksum.c ****  * @param proto ip protocol (used for checksum of pseudo header)
 375:C:/Users/stapi/OneDrive/Desktop/GD32VW553/GD32VW55X_Wifi_BLE_SDK/GD32VW55x_RELEASE_V1.0.2/MSDK/lwip/lwip-2.1.2/src/core\inet_chksum.c ****  * @param proto_len length of the ip data part (used for checksum of pseudo header)
 376:C:/Users/stapi/OneDrive/Desktop/GD32VW553/GD32VW55X_Wifi_BLE_SDK/GD32VW55x_RELEASE_V1.0.2/MSDK/lwip/lwip-2.1.2/src/core\inet_chksum.c ****  * @return checksum (as u16_t) to be saved directly in the protocol header
 377:C:/Users/stapi/OneDrive/Desktop/GD32VW553/GD32VW55X_Wifi_BLE_SDK/GD32VW55x_RELEASE_V1.0.2/MSDK/lwip/lwip-2.1.2/src/core\inet_chksum.c ****  */
 378:C:/Users/stapi/OneDrive/Desktop/GD32VW553/GD32VW55X_Wifi_BLE_SDK/GD32VW55x_RELEASE_V1.0.2/MSDK/lwip/lwip-2.1.2/src/core\inet_chksum.c **** u16_t
 379:C:/Users/stapi/OneDrive/Desktop/GD32VW553/GD32VW55X_Wifi_BLE_SDK/GD32VW55x_RELEASE_V1.0.2/MSDK/lwip/lwip-2.1.2/src/core\inet_chksum.c **** ip_chksum_pseudo(struct pbuf *p, u8_t proto, u16_t proto_len,
 380:C:/Users/stapi/OneDrive/Desktop/GD32VW553/GD32VW55X_Wifi_BLE_SDK/GD32VW55x_RELEASE_V1.0.2/MSDK/lwip/lwip-2.1.2/src/core\inet_chksum.c ****                  const ip_addr_t *src, const ip_addr_t *dest)
 381:C:/Users/stapi/OneDrive/Desktop/GD32VW553/GD32VW55X_Wifi_BLE_SDK/GD32VW55x_RELEASE_V1.0.2/MSDK/lwip/lwip-2.1.2/src/core\inet_chksum.c **** {
 424              		.loc 1 381 1 is_stmt 1
 425              		.cfi_startproc
 426              	.LVL66:
 382:C:/Users/stapi/OneDrive/Desktop/GD32VW553/GD32VW55X_Wifi_BLE_SDK/GD32VW55x_RELEASE_V1.0.2/MSDK/lwip/lwip-2.1.2/src/core\inet_chksum.c **** #if LWIP_IPV6
 383:C:/Users/stapi/OneDrive/Desktop/GD32VW553/GD32VW55X_Wifi_BLE_SDK/GD32VW55x_RELEASE_V1.0.2/MSDK/lwip/lwip-2.1.2/src/core\inet_chksum.c ****   if (IP_IS_V6(dest)) {
 384:C:/Users/stapi/OneDrive/Desktop/GD32VW553/GD32VW55X_Wifi_BLE_SDK/GD32VW55x_RELEASE_V1.0.2/MSDK/lwip/lwip-2.1.2/src/core\inet_chksum.c ****     return ip6_chksum_pseudo(p, proto, proto_len, ip_2_ip6(src), ip_2_ip6(dest));
 385:C:/Users/stapi/OneDrive/Desktop/GD32VW553/GD32VW55X_Wifi_BLE_SDK/GD32VW55x_RELEASE_V1.0.2/MSDK/lwip/lwip-2.1.2/src/core\inet_chksum.c ****   }
 386:C:/Users/stapi/OneDrive/Desktop/GD32VW553/GD32VW55X_Wifi_BLE_SDK/GD32VW55x_RELEASE_V1.0.2/MSDK/lwip/lwip-2.1.2/src/core\inet_chksum.c **** #endif /* LWIP_IPV6 */
 387:C:/Users/stapi/OneDrive/Desktop/GD32VW553/GD32VW55X_Wifi_BLE_SDK/GD32VW55x_RELEASE_V1.0.2/MSDK/lwip/lwip-2.1.2/src/core\inet_chksum.c **** #if LWIP_IPV4 && LWIP_IPV6
 388:C:/Users/stapi/OneDrive/Desktop/GD32VW553/GD32VW55X_Wifi_BLE_SDK/GD32VW55x_RELEASE_V1.0.2/MSDK/lwip/lwip-2.1.2/src/core\inet_chksum.c ****   else
 389:C:/Users/stapi/OneDrive/Desktop/GD32VW553/GD32VW55X_Wifi_BLE_SDK/GD32VW55x_RELEASE_V1.0.2/MSDK/lwip/lwip-2.1.2/src/core\inet_chksum.c **** #endif /* LWIP_IPV4 && LWIP_IPV6 */
 390:C:/Users/stapi/OneDrive/Desktop/GD32VW553/GD32VW55X_Wifi_BLE_SDK/GD32VW55x_RELEASE_V1.0.2/MSDK/lwip/lwip-2.1.2/src/core\inet_chksum.c **** #if LWIP_IPV4
 391:C:/Users/stapi/OneDrive/Desktop/GD32VW553/GD32VW55X_Wifi_BLE_SDK/GD32VW55x_RELEASE_V1.0.2/MSDK/lwip/lwip-2.1.2/src/core\inet_chksum.c ****   {
 392:C:/Users/stapi/OneDrive/Desktop/GD32VW553/GD32VW55X_Wifi_BLE_SDK/GD32VW55x_RELEASE_V1.0.2/MSDK/lwip/lwip-2.1.2/src/core\inet_chksum.c ****     return inet_chksum_pseudo(p, proto, proto_len, ip_2_ip4(src), ip_2_ip4(dest));
 427              		.loc 1 392 5
 428              		.loc 1 392 12 is_stmt 0
 429 0000 17030000 		tail	inet_chksum_pseudo
 429      67000300 
 430              	.LVL67:
 431              		.cfi_endproc
 432              	.LFE7:
 434              		.section	.rodata.inet_chksum_pseudo_partial.str1.4,"aMS",@progbits,1
 435              		.align	2
 436              	.LC0:
 437 0000 433A2F55 		.string	"C:/Users/stapi/OneDrive/Desktop/GD32VW553/GD32VW55X_Wifi_BLE_SDK/GD32VW55x_RELEASE_V1.0.2
 437      73657273 
 437      2F737461 
 437      70692F4F 
 437      6E654472 
 438 0086 0000     		.align	2
 439              	.LC1:
 440 0088 64656C65 		.string	"delete me"
 440      7465206D 
 440      6500
 441 0092 0000     		.align	2
 442              	.LC2:
 443 0094 41737365 		.string	"Assertion \"%s\" failed at line %d in %s\n"
 443      7274696F 
 443      6E202225 
 443      73222066 
 443      61696C65 
 444              		.section	.text.inet_chksum_pseudo_partial,"ax",@progbits
 445              		.align	1
 446              		.globl	inet_chksum_pseudo_partial
 448              	inet_chksum_pseudo_partial:
 449              	.LFB9:
 393:C:/Users/stapi/OneDrive/Desktop/GD32VW553/GD32VW55X_Wifi_BLE_SDK/GD32VW55x_RELEASE_V1.0.2/MSDK/lwip/lwip-2.1.2/src/core\inet_chksum.c ****   }
 394:C:/Users/stapi/OneDrive/Desktop/GD32VW553/GD32VW55X_Wifi_BLE_SDK/GD32VW55x_RELEASE_V1.0.2/MSDK/lwip/lwip-2.1.2/src/core\inet_chksum.c **** #endif /* LWIP_IPV4 */
 395:C:/Users/stapi/OneDrive/Desktop/GD32VW553/GD32VW55X_Wifi_BLE_SDK/GD32VW55x_RELEASE_V1.0.2/MSDK/lwip/lwip-2.1.2/src/core\inet_chksum.c **** }
 396:C:/Users/stapi/OneDrive/Desktop/GD32VW553/GD32VW55X_Wifi_BLE_SDK/GD32VW55x_RELEASE_V1.0.2/MSDK/lwip/lwip-2.1.2/src/core\inet_chksum.c **** 
 397:C:/Users/stapi/OneDrive/Desktop/GD32VW553/GD32VW55X_Wifi_BLE_SDK/GD32VW55x_RELEASE_V1.0.2/MSDK/lwip/lwip-2.1.2/src/core\inet_chksum.c **** /** Parts of the pseudo checksum which are common to IPv4 and IPv6 */
 398:C:/Users/stapi/OneDrive/Desktop/GD32VW553/GD32VW55X_Wifi_BLE_SDK/GD32VW55x_RELEASE_V1.0.2/MSDK/lwip/lwip-2.1.2/src/core\inet_chksum.c **** static u16_t
 399:C:/Users/stapi/OneDrive/Desktop/GD32VW553/GD32VW55X_Wifi_BLE_SDK/GD32VW55x_RELEASE_V1.0.2/MSDK/lwip/lwip-2.1.2/src/core\inet_chksum.c **** inet_cksum_pseudo_partial_base(struct pbuf *p, u8_t proto, u16_t proto_len,
 400:C:/Users/stapi/OneDrive/Desktop/GD32VW553/GD32VW55X_Wifi_BLE_SDK/GD32VW55x_RELEASE_V1.0.2/MSDK/lwip/lwip-2.1.2/src/core\inet_chksum.c ****                                u16_t chksum_len, u32_t acc)
 401:C:/Users/stapi/OneDrive/Desktop/GD32VW553/GD32VW55X_Wifi_BLE_SDK/GD32VW55x_RELEASE_V1.0.2/MSDK/lwip/lwip-2.1.2/src/core\inet_chksum.c **** {
 402:C:/Users/stapi/OneDrive/Desktop/GD32VW553/GD32VW55X_Wifi_BLE_SDK/GD32VW55x_RELEASE_V1.0.2/MSDK/lwip/lwip-2.1.2/src/core\inet_chksum.c ****   struct pbuf *q;
 403:C:/Users/stapi/OneDrive/Desktop/GD32VW553/GD32VW55X_Wifi_BLE_SDK/GD32VW55x_RELEASE_V1.0.2/MSDK/lwip/lwip-2.1.2/src/core\inet_chksum.c ****   int swapped = 0;
 404:C:/Users/stapi/OneDrive/Desktop/GD32VW553/GD32VW55X_Wifi_BLE_SDK/GD32VW55x_RELEASE_V1.0.2/MSDK/lwip/lwip-2.1.2/src/core\inet_chksum.c ****   u16_t chklen;
 405:C:/Users/stapi/OneDrive/Desktop/GD32VW553/GD32VW55X_Wifi_BLE_SDK/GD32VW55x_RELEASE_V1.0.2/MSDK/lwip/lwip-2.1.2/src/core\inet_chksum.c **** 
 406:C:/Users/stapi/OneDrive/Desktop/GD32VW553/GD32VW55X_Wifi_BLE_SDK/GD32VW55x_RELEASE_V1.0.2/MSDK/lwip/lwip-2.1.2/src/core\inet_chksum.c ****   /* iterate through all pbuf in chain */
 407:C:/Users/stapi/OneDrive/Desktop/GD32VW553/GD32VW55X_Wifi_BLE_SDK/GD32VW55x_RELEASE_V1.0.2/MSDK/lwip/lwip-2.1.2/src/core\inet_chksum.c ****   for (q = p; (q != NULL) && (chksum_len > 0); q = q->next) {
 408:C:/Users/stapi/OneDrive/Desktop/GD32VW553/GD32VW55X_Wifi_BLE_SDK/GD32VW55x_RELEASE_V1.0.2/MSDK/lwip/lwip-2.1.2/src/core\inet_chksum.c ****     LWIP_DEBUGF(INET_DEBUG, ("inet_chksum_pseudo(): checksumming pbuf %p (has next %p) \n",
 409:C:/Users/stapi/OneDrive/Desktop/GD32VW553/GD32VW55X_Wifi_BLE_SDK/GD32VW55x_RELEASE_V1.0.2/MSDK/lwip/lwip-2.1.2/src/core\inet_chksum.c ****                              (void *)q, (void *)q->next));
 410:C:/Users/stapi/OneDrive/Desktop/GD32VW553/GD32VW55X_Wifi_BLE_SDK/GD32VW55x_RELEASE_V1.0.2/MSDK/lwip/lwip-2.1.2/src/core\inet_chksum.c ****     chklen = q->len;
 411:C:/Users/stapi/OneDrive/Desktop/GD32VW553/GD32VW55X_Wifi_BLE_SDK/GD32VW55x_RELEASE_V1.0.2/MSDK/lwip/lwip-2.1.2/src/core\inet_chksum.c ****     if (chklen > chksum_len) {
 412:C:/Users/stapi/OneDrive/Desktop/GD32VW553/GD32VW55X_Wifi_BLE_SDK/GD32VW55x_RELEASE_V1.0.2/MSDK/lwip/lwip-2.1.2/src/core\inet_chksum.c ****       chklen = chksum_len;
 413:C:/Users/stapi/OneDrive/Desktop/GD32VW553/GD32VW55X_Wifi_BLE_SDK/GD32VW55x_RELEASE_V1.0.2/MSDK/lwip/lwip-2.1.2/src/core\inet_chksum.c ****     }
 414:C:/Users/stapi/OneDrive/Desktop/GD32VW553/GD32VW55X_Wifi_BLE_SDK/GD32VW55x_RELEASE_V1.0.2/MSDK/lwip/lwip-2.1.2/src/core\inet_chksum.c ****     acc += LWIP_CHKSUM(q->payload, chklen);
 415:C:/Users/stapi/OneDrive/Desktop/GD32VW553/GD32VW55X_Wifi_BLE_SDK/GD32VW55x_RELEASE_V1.0.2/MSDK/lwip/lwip-2.1.2/src/core\inet_chksum.c ****     chksum_len = (u16_t)(chksum_len - chklen);
 416:C:/Users/stapi/OneDrive/Desktop/GD32VW553/GD32VW55X_Wifi_BLE_SDK/GD32VW55x_RELEASE_V1.0.2/MSDK/lwip/lwip-2.1.2/src/core\inet_chksum.c ****     LWIP_ASSERT("delete me", chksum_len < 0x7fff);
 417:C:/Users/stapi/OneDrive/Desktop/GD32VW553/GD32VW55X_Wifi_BLE_SDK/GD32VW55x_RELEASE_V1.0.2/MSDK/lwip/lwip-2.1.2/src/core\inet_chksum.c ****     /*LWIP_DEBUGF(INET_DEBUG, ("inet_chksum_pseudo(): unwrapped lwip_chksum()=%"X32_F" \n", acc));*
 418:C:/Users/stapi/OneDrive/Desktop/GD32VW553/GD32VW55X_Wifi_BLE_SDK/GD32VW55x_RELEASE_V1.0.2/MSDK/lwip/lwip-2.1.2/src/core\inet_chksum.c ****     /* fold the upper bit down */
 419:C:/Users/stapi/OneDrive/Desktop/GD32VW553/GD32VW55X_Wifi_BLE_SDK/GD32VW55x_RELEASE_V1.0.2/MSDK/lwip/lwip-2.1.2/src/core\inet_chksum.c ****     acc = FOLD_U32T(acc);
 420:C:/Users/stapi/OneDrive/Desktop/GD32VW553/GD32VW55X_Wifi_BLE_SDK/GD32VW55x_RELEASE_V1.0.2/MSDK/lwip/lwip-2.1.2/src/core\inet_chksum.c ****     if (q->len % 2 != 0) {
 421:C:/Users/stapi/OneDrive/Desktop/GD32VW553/GD32VW55X_Wifi_BLE_SDK/GD32VW55x_RELEASE_V1.0.2/MSDK/lwip/lwip-2.1.2/src/core\inet_chksum.c ****       swapped = !swapped;
 422:C:/Users/stapi/OneDrive/Desktop/GD32VW553/GD32VW55X_Wifi_BLE_SDK/GD32VW55x_RELEASE_V1.0.2/MSDK/lwip/lwip-2.1.2/src/core\inet_chksum.c ****       acc = SWAP_BYTES_IN_WORD(acc);
 423:C:/Users/stapi/OneDrive/Desktop/GD32VW553/GD32VW55X_Wifi_BLE_SDK/GD32VW55x_RELEASE_V1.0.2/MSDK/lwip/lwip-2.1.2/src/core\inet_chksum.c ****     }
 424:C:/Users/stapi/OneDrive/Desktop/GD32VW553/GD32VW55X_Wifi_BLE_SDK/GD32VW55x_RELEASE_V1.0.2/MSDK/lwip/lwip-2.1.2/src/core\inet_chksum.c ****     /*LWIP_DEBUGF(INET_DEBUG, ("inet_chksum_pseudo(): wrapped lwip_chksum()=%"X32_F" \n", acc));*/
 425:C:/Users/stapi/OneDrive/Desktop/GD32VW553/GD32VW55X_Wifi_BLE_SDK/GD32VW55x_RELEASE_V1.0.2/MSDK/lwip/lwip-2.1.2/src/core\inet_chksum.c ****   }
 426:C:/Users/stapi/OneDrive/Desktop/GD32VW553/GD32VW55X_Wifi_BLE_SDK/GD32VW55x_RELEASE_V1.0.2/MSDK/lwip/lwip-2.1.2/src/core\inet_chksum.c **** 
 427:C:/Users/stapi/OneDrive/Desktop/GD32VW553/GD32VW55X_Wifi_BLE_SDK/GD32VW55x_RELEASE_V1.0.2/MSDK/lwip/lwip-2.1.2/src/core\inet_chksum.c ****   if (swapped) {
 428:C:/Users/stapi/OneDrive/Desktop/GD32VW553/GD32VW55X_Wifi_BLE_SDK/GD32VW55x_RELEASE_V1.0.2/MSDK/lwip/lwip-2.1.2/src/core\inet_chksum.c ****     acc = SWAP_BYTES_IN_WORD(acc);
 429:C:/Users/stapi/OneDrive/Desktop/GD32VW553/GD32VW55X_Wifi_BLE_SDK/GD32VW55x_RELEASE_V1.0.2/MSDK/lwip/lwip-2.1.2/src/core\inet_chksum.c ****   }
 430:C:/Users/stapi/OneDrive/Desktop/GD32VW553/GD32VW55X_Wifi_BLE_SDK/GD32VW55x_RELEASE_V1.0.2/MSDK/lwip/lwip-2.1.2/src/core\inet_chksum.c **** 
 431:C:/Users/stapi/OneDrive/Desktop/GD32VW553/GD32VW55X_Wifi_BLE_SDK/GD32VW55x_RELEASE_V1.0.2/MSDK/lwip/lwip-2.1.2/src/core\inet_chksum.c ****   acc += (u32_t)lwip_htons((u16_t)proto);
 432:C:/Users/stapi/OneDrive/Desktop/GD32VW553/GD32VW55X_Wifi_BLE_SDK/GD32VW55x_RELEASE_V1.0.2/MSDK/lwip/lwip-2.1.2/src/core\inet_chksum.c ****   acc += (u32_t)lwip_htons(proto_len);
 433:C:/Users/stapi/OneDrive/Desktop/GD32VW553/GD32VW55X_Wifi_BLE_SDK/GD32VW55x_RELEASE_V1.0.2/MSDK/lwip/lwip-2.1.2/src/core\inet_chksum.c **** 
 434:C:/Users/stapi/OneDrive/Desktop/GD32VW553/GD32VW55X_Wifi_BLE_SDK/GD32VW55x_RELEASE_V1.0.2/MSDK/lwip/lwip-2.1.2/src/core\inet_chksum.c ****   /* Fold 32-bit sum to 16 bits
 435:C:/Users/stapi/OneDrive/Desktop/GD32VW553/GD32VW55X_Wifi_BLE_SDK/GD32VW55x_RELEASE_V1.0.2/MSDK/lwip/lwip-2.1.2/src/core\inet_chksum.c ****      calling this twice is probably faster than if statements... */
 436:C:/Users/stapi/OneDrive/Desktop/GD32VW553/GD32VW55X_Wifi_BLE_SDK/GD32VW55x_RELEASE_V1.0.2/MSDK/lwip/lwip-2.1.2/src/core\inet_chksum.c ****   acc = FOLD_U32T(acc);
 437:C:/Users/stapi/OneDrive/Desktop/GD32VW553/GD32VW55X_Wifi_BLE_SDK/GD32VW55x_RELEASE_V1.0.2/MSDK/lwip/lwip-2.1.2/src/core\inet_chksum.c ****   acc = FOLD_U32T(acc);
 438:C:/Users/stapi/OneDrive/Desktop/GD32VW553/GD32VW55X_Wifi_BLE_SDK/GD32VW55x_RELEASE_V1.0.2/MSDK/lwip/lwip-2.1.2/src/core\inet_chksum.c ****   LWIP_DEBUGF(INET_DEBUG, ("inet_chksum_pseudo(): pbuf chain lwip_chksum()=%"X32_F"\n", acc));
 439:C:/Users/stapi/OneDrive/Desktop/GD32VW553/GD32VW55X_Wifi_BLE_SDK/GD32VW55x_RELEASE_V1.0.2/MSDK/lwip/lwip-2.1.2/src/core\inet_chksum.c ****   return (u16_t)~(acc & 0xffffUL);
 440:C:/Users/stapi/OneDrive/Desktop/GD32VW553/GD32VW55X_Wifi_BLE_SDK/GD32VW55x_RELEASE_V1.0.2/MSDK/lwip/lwip-2.1.2/src/core\inet_chksum.c **** }
 441:C:/Users/stapi/OneDrive/Desktop/GD32VW553/GD32VW55X_Wifi_BLE_SDK/GD32VW55x_RELEASE_V1.0.2/MSDK/lwip/lwip-2.1.2/src/core\inet_chksum.c **** 
 442:C:/Users/stapi/OneDrive/Desktop/GD32VW553/GD32VW55X_Wifi_BLE_SDK/GD32VW55x_RELEASE_V1.0.2/MSDK/lwip/lwip-2.1.2/src/core\inet_chksum.c **** #if LWIP_IPV4
 443:C:/Users/stapi/OneDrive/Desktop/GD32VW553/GD32VW55X_Wifi_BLE_SDK/GD32VW55x_RELEASE_V1.0.2/MSDK/lwip/lwip-2.1.2/src/core\inet_chksum.c **** /* inet_chksum_pseudo_partial:
 444:C:/Users/stapi/OneDrive/Desktop/GD32VW553/GD32VW55X_Wifi_BLE_SDK/GD32VW55x_RELEASE_V1.0.2/MSDK/lwip/lwip-2.1.2/src/core\inet_chksum.c ****  *
 445:C:/Users/stapi/OneDrive/Desktop/GD32VW553/GD32VW55X_Wifi_BLE_SDK/GD32VW55x_RELEASE_V1.0.2/MSDK/lwip/lwip-2.1.2/src/core\inet_chksum.c ****  * Calculates the IPv4 pseudo Internet checksum used by TCP and UDP for a pbuf chain.
 446:C:/Users/stapi/OneDrive/Desktop/GD32VW553/GD32VW55X_Wifi_BLE_SDK/GD32VW55x_RELEASE_V1.0.2/MSDK/lwip/lwip-2.1.2/src/core\inet_chksum.c ****  * IP addresses are expected to be in network byte order.
 447:C:/Users/stapi/OneDrive/Desktop/GD32VW553/GD32VW55X_Wifi_BLE_SDK/GD32VW55x_RELEASE_V1.0.2/MSDK/lwip/lwip-2.1.2/src/core\inet_chksum.c ****  *
 448:C:/Users/stapi/OneDrive/Desktop/GD32VW553/GD32VW55X_Wifi_BLE_SDK/GD32VW55x_RELEASE_V1.0.2/MSDK/lwip/lwip-2.1.2/src/core\inet_chksum.c ****  * @param p chain of pbufs over that a checksum should be calculated (ip data part)
 449:C:/Users/stapi/OneDrive/Desktop/GD32VW553/GD32VW55X_Wifi_BLE_SDK/GD32VW55x_RELEASE_V1.0.2/MSDK/lwip/lwip-2.1.2/src/core\inet_chksum.c ****  * @param src source ip address (used for checksum of pseudo header)
 450:C:/Users/stapi/OneDrive/Desktop/GD32VW553/GD32VW55X_Wifi_BLE_SDK/GD32VW55x_RELEASE_V1.0.2/MSDK/lwip/lwip-2.1.2/src/core\inet_chksum.c ****  * @param dst destination ip address (used for checksum of pseudo header)
 451:C:/Users/stapi/OneDrive/Desktop/GD32VW553/GD32VW55X_Wifi_BLE_SDK/GD32VW55x_RELEASE_V1.0.2/MSDK/lwip/lwip-2.1.2/src/core\inet_chksum.c ****  * @param proto ip protocol (used for checksum of pseudo header)
 452:C:/Users/stapi/OneDrive/Desktop/GD32VW553/GD32VW55X_Wifi_BLE_SDK/GD32VW55x_RELEASE_V1.0.2/MSDK/lwip/lwip-2.1.2/src/core\inet_chksum.c ****  * @param proto_len length of the ip data part (used for checksum of pseudo header)
 453:C:/Users/stapi/OneDrive/Desktop/GD32VW553/GD32VW55X_Wifi_BLE_SDK/GD32VW55x_RELEASE_V1.0.2/MSDK/lwip/lwip-2.1.2/src/core\inet_chksum.c ****  * @return checksum (as u16_t) to be saved directly in the protocol header
 454:C:/Users/stapi/OneDrive/Desktop/GD32VW553/GD32VW55X_Wifi_BLE_SDK/GD32VW55x_RELEASE_V1.0.2/MSDK/lwip/lwip-2.1.2/src/core\inet_chksum.c ****  */
 455:C:/Users/stapi/OneDrive/Desktop/GD32VW553/GD32VW55X_Wifi_BLE_SDK/GD32VW55x_RELEASE_V1.0.2/MSDK/lwip/lwip-2.1.2/src/core\inet_chksum.c **** u16_t
 456:C:/Users/stapi/OneDrive/Desktop/GD32VW553/GD32VW55X_Wifi_BLE_SDK/GD32VW55x_RELEASE_V1.0.2/MSDK/lwip/lwip-2.1.2/src/core\inet_chksum.c **** inet_chksum_pseudo_partial(struct pbuf *p, u8_t proto, u16_t proto_len,
 457:C:/Users/stapi/OneDrive/Desktop/GD32VW553/GD32VW55X_Wifi_BLE_SDK/GD32VW55x_RELEASE_V1.0.2/MSDK/lwip/lwip-2.1.2/src/core\inet_chksum.c ****                            u16_t chksum_len, const ip4_addr_t *src, const ip4_addr_t *dest)
 458:C:/Users/stapi/OneDrive/Desktop/GD32VW553/GD32VW55X_Wifi_BLE_SDK/GD32VW55x_RELEASE_V1.0.2/MSDK/lwip/lwip-2.1.2/src/core\inet_chksum.c **** {
 450              		.loc 1 458 1 is_stmt 1
 451              		.cfi_startproc
 452              	.LVL68:
 453 0000 17030000 		call	t0,__riscv_save_9
 453      E7020300 
 454              		.cfi_offset 24, -40
 455              		.cfi_offset 23, -36
 456              		.cfi_offset 22, -32
 457              		.cfi_offset 21, -28
 458              		.cfi_offset 20, -24
 459              		.cfi_offset 19, -20
 460              		.cfi_offset 18, -16
 461              		.cfi_offset 9, -12
 462              		.cfi_offset 8, -8
 463              		.cfi_offset 1, -4
 464              		.cfi_def_cfa_offset 48
 459:C:/Users/stapi/OneDrive/Desktop/GD32VW553/GD32VW55X_Wifi_BLE_SDK/GD32VW55x_RELEASE_V1.0.2/MSDK/lwip/lwip-2.1.2/src/core\inet_chksum.c ****   u32_t acc;
 465              		.loc 1 459 3
 460:C:/Users/stapi/OneDrive/Desktop/GD32VW553/GD32VW55X_Wifi_BLE_SDK/GD32VW55x_RELEASE_V1.0.2/MSDK/lwip/lwip-2.1.2/src/core\inet_chksum.c ****   u32_t addr;
 466              		.loc 1 460 3
 461:C:/Users/stapi/OneDrive/Desktop/GD32VW553/GD32VW55X_Wifi_BLE_SDK/GD32VW55x_RELEASE_V1.0.2/MSDK/lwip/lwip-2.1.2/src/core\inet_chksum.c **** 
 462:C:/Users/stapi/OneDrive/Desktop/GD32VW553/GD32VW55X_Wifi_BLE_SDK/GD32VW55x_RELEASE_V1.0.2/MSDK/lwip/lwip-2.1.2/src/core\inet_chksum.c ****   addr = ip4_addr_get_u32(src);
 467              		.loc 1 462 3
 463:C:/Users/stapi/OneDrive/Desktop/GD32VW553/GD32VW55X_Wifi_BLE_SDK/GD32VW55x_RELEASE_V1.0.2/MSDK/lwip/lwip-2.1.2/src/core\inet_chksum.c ****   acc = (addr & 0xffffUL);
 464:C:/Users/stapi/OneDrive/Desktop/GD32VW553/GD32VW55X_Wifi_BLE_SDK/GD32VW55x_RELEASE_V1.0.2/MSDK/lwip/lwip-2.1.2/src/core\inet_chksum.c ****   acc = (u32_t)(acc + ((addr >> 16) & 0xffffUL));
 465:C:/Users/stapi/OneDrive/Desktop/GD32VW553/GD32VW55X_Wifi_BLE_SDK/GD32VW55x_RELEASE_V1.0.2/MSDK/lwip/lwip-2.1.2/src/core\inet_chksum.c ****   addr = ip4_addr_get_u32(dest);
 468              		.loc 1 465 8 is_stmt 0
 469 0008 9C43     		lw	a5,0(a5)
 470              	.LVL69:
 462:C:/Users/stapi/OneDrive/Desktop/GD32VW553/GD32VW55X_Wifi_BLE_SDK/GD32VW55x_RELEASE_V1.0.2/MSDK/lwip/lwip-2.1.2/src/core\inet_chksum.c ****   acc = (addr & 0xffffUL);
 471              		.loc 1 462 8
 472 000a 1843     		lw	a4,0(a4)
 473              	.LVL70:
 463:C:/Users/stapi/OneDrive/Desktop/GD32VW553/GD32VW55X_Wifi_BLE_SDK/GD32VW55x_RELEASE_V1.0.2/MSDK/lwip/lwip-2.1.2/src/core\inet_chksum.c ****   acc = (addr & 0xffffUL);
 474              		.loc 1 463 3 is_stmt 1
 464:C:/Users/stapi/OneDrive/Desktop/GD32VW553/GD32VW55X_Wifi_BLE_SDK/GD32VW55x_RELEASE_V1.0.2/MSDK/lwip/lwip-2.1.2/src/core\inet_chksum.c ****   addr = ip4_addr_get_u32(dest);
 475              		.loc 1 464 3
 476              		.loc 1 465 3
 466:C:/Users/stapi/OneDrive/Desktop/GD32VW553/GD32VW55X_Wifi_BLE_SDK/GD32VW55x_RELEASE_V1.0.2/MSDK/lwip/lwip-2.1.2/src/core\inet_chksum.c ****   acc = (u32_t)(acc + (addr & 0xffffUL));
 477              		.loc 1 466 3
 467:C:/Users/stapi/OneDrive/Desktop/GD32VW553/GD32VW55X_Wifi_BLE_SDK/GD32VW55x_RELEASE_V1.0.2/MSDK/lwip/lwip-2.1.2/src/core\inet_chksum.c ****   acc = (u32_t)(acc + ((addr >> 16) & 0xffffUL));
 478              		.loc 1 467 3
 466:C:/Users/stapi/OneDrive/Desktop/GD32VW553/GD32VW55X_Wifi_BLE_SDK/GD32VW55x_RELEASE_V1.0.2/MSDK/lwip/lwip-2.1.2/src/core\inet_chksum.c ****   acc = (u32_t)(acc + (addr & 0xffffUL));
 479              		.loc 1 466 29 is_stmt 0
 480 000c C169     		li	s3,65536
 481 000e FD19     		addi	s3,s3,-1
 482 0010 33F43701 		and	s0,a5,s3
 483              		.loc 1 467 30
 484 0014 C183     		srli	a5,a5,16
 485              	.LVL71:
 486 0016 3E94     		add	s0,s0,a5
 463:C:/Users/stapi/OneDrive/Desktop/GD32VW553/GD32VW55X_Wifi_BLE_SDK/GD32VW55x_RELEASE_V1.0.2/MSDK/lwip/lwip-2.1.2/src/core\inet_chksum.c ****   acc = (u32_t)(acc + ((addr >> 16) & 0xffffUL));
 487              		.loc 1 463 7
 488 0018 B3773701 		and	a5,a4,s3
 489 001c 3E94     		add	s0,s0,a5
 464:C:/Users/stapi/OneDrive/Desktop/GD32VW553/GD32VW55X_Wifi_BLE_SDK/GD32VW55x_RELEASE_V1.0.2/MSDK/lwip/lwip-2.1.2/src/core\inet_chksum.c ****   addr = ip4_addr_get_u32(dest);
 490              		.loc 1 464 30
 491 001e 4183     		srli	a4,a4,16
 492              	.LVL72:
 493              		.loc 1 467 7
 494 0020 2297     		add	a4,a4,s0
 495              	.LVL73:
 468:C:/Users/stapi/OneDrive/Desktop/GD32VW553/GD32VW55X_Wifi_BLE_SDK/GD32VW55x_RELEASE_V1.0.2/MSDK/lwip/lwip-2.1.2/src/core\inet_chksum.c ****   /* fold down to 16 bits */
 469:C:/Users/stapi/OneDrive/Desktop/GD32VW553/GD32VW55X_Wifi_BLE_SDK/GD32VW55x_RELEASE_V1.0.2/MSDK/lwip/lwip-2.1.2/src/core\inet_chksum.c ****   acc = FOLD_U32T(acc);
 496              		.loc 1 469 3 is_stmt 1
 497              		.loc 1 469 9 is_stmt 0
 498 0022 13540701 		srli	s0,a4,16
 499 0026 33773701 		and	a4,a4,s3
 500              	.LVL74:
 501              		.loc 1 469 7
 502 002a 2297     		add	a4,s0,a4
 503              	.LVL75:
 470:C:/Users/stapi/OneDrive/Desktop/GD32VW553/GD32VW55X_Wifi_BLE_SDK/GD32VW55x_RELEASE_V1.0.2/MSDK/lwip/lwip-2.1.2/src/core\inet_chksum.c ****   acc = FOLD_U32T(acc);
 504              		.loc 1 470 3 is_stmt 1
 505              		.loc 1 470 9 is_stmt 0
 506 002c 13540701 		srli	s0,a4,16
 507              	.LBB10:
 508              	.LBB11:
 416:C:/Users/stapi/OneDrive/Desktop/GD32VW553/GD32VW55X_Wifi_BLE_SDK/GD32VW55x_RELEASE_V1.0.2/MSDK/lwip/lwip-2.1.2/src/core\inet_chksum.c ****     /*LWIP_DEBUGF(INET_DEBUG, ("inet_chksum_pseudo(): unwrapped lwip_chksum()=%"X32_F" \n", acc));*
 509              		.loc 1 416 5
 510 0030 216C     		li	s8,32768
 511              	.LBE11:
 512              	.LBE10:
 513              		.loc 1 470 9
 514 0032 33773701 		and	a4,a4,s3
 515              	.LVL76:
 458:C:/Users/stapi/OneDrive/Desktop/GD32VW553/GD32VW55X_Wifi_BLE_SDK/GD32VW55x_RELEASE_V1.0.2/MSDK/lwip/lwip-2.1.2/src/core\inet_chksum.c ****   u32_t acc;
 516              		.loc 1 458 1
 517 0036 AA84     		mv	s1,a0
 518 0038 2E8B     		mv	s6,a1
 519 003a 3289     		mv	s2,a2
 520 003c 368A     		mv	s4,a3
 521              		.loc 1 470 7
 522 003e 3A94     		add	s0,s0,a4
 523              	.LVL77:
 471:C:/Users/stapi/OneDrive/Desktop/GD32VW553/GD32VW55X_Wifi_BLE_SDK/GD32VW55x_RELEASE_V1.0.2/MSDK/lwip/lwip-2.1.2/src/core\inet_chksum.c **** 
 472:C:/Users/stapi/OneDrive/Desktop/GD32VW553/GD32VW55X_Wifi_BLE_SDK/GD32VW55x_RELEASE_V1.0.2/MSDK/lwip/lwip-2.1.2/src/core\inet_chksum.c ****   return inet_cksum_pseudo_partial_base(p, proto, proto_len, chksum_len, acc);
 524              		.loc 1 472 3 is_stmt 1
 525              	.LBB14:
 526              	.LBB12:
 402:C:/Users/stapi/OneDrive/Desktop/GD32VW553/GD32VW55X_Wifi_BLE_SDK/GD32VW55x_RELEASE_V1.0.2/MSDK/lwip/lwip-2.1.2/src/core\inet_chksum.c ****   int swapped = 0;
 527              		.loc 1 402 3
 403:C:/Users/stapi/OneDrive/Desktop/GD32VW553/GD32VW55X_Wifi_BLE_SDK/GD32VW55x_RELEASE_V1.0.2/MSDK/lwip/lwip-2.1.2/src/core\inet_chksum.c ****   u16_t chklen;
 528              		.loc 1 403 3
 404:C:/Users/stapi/OneDrive/Desktop/GD32VW553/GD32VW55X_Wifi_BLE_SDK/GD32VW55x_RELEASE_V1.0.2/MSDK/lwip/lwip-2.1.2/src/core\inet_chksum.c **** 
 529              		.loc 1 404 3
 407:C:/Users/stapi/OneDrive/Desktop/GD32VW553/GD32VW55X_Wifi_BLE_SDK/GD32VW55x_RELEASE_V1.0.2/MSDK/lwip/lwip-2.1.2/src/core\inet_chksum.c ****     LWIP_DEBUGF(INET_DEBUG, ("inet_chksum_pseudo(): checksumming pbuf %p (has next %p) \n",
 530              		.loc 1 407 3
 403:C:/Users/stapi/OneDrive/Desktop/GD32VW553/GD32VW55X_Wifi_BLE_SDK/GD32VW55x_RELEASE_V1.0.2/MSDK/lwip/lwip-2.1.2/src/core\inet_chksum.c ****   u16_t chklen;
 531              		.loc 1 403 7 is_stmt 0
 532 0040 814B     		li	s7,0
 416:C:/Users/stapi/OneDrive/Desktop/GD32VW553/GD32VW55X_Wifi_BLE_SDK/GD32VW55x_RELEASE_V1.0.2/MSDK/lwip/lwip-2.1.2/src/core\inet_chksum.c ****     /*LWIP_DEBUGF(INET_DEBUG, ("inet_chksum_pseudo(): unwrapped lwip_chksum()=%"X32_F" \n", acc));*
 533              		.loc 1 416 5
 534 0042 791C     		addi	s8,s8,-2
 535              	.LVL78:
 536              	.L38:
 407:C:/Users/stapi/OneDrive/Desktop/GD32VW553/GD32VW55X_Wifi_BLE_SDK/GD32VW55x_RELEASE_V1.0.2/MSDK/lwip/lwip-2.1.2/src/core\inet_chksum.c ****     LWIP_DEBUGF(INET_DEBUG, ("inet_chksum_pseudo(): checksumming pbuf %p (has next %p) \n",
 537              		.loc 1 407 15 is_stmt 1
 407:C:/Users/stapi/OneDrive/Desktop/GD32VW553/GD32VW55X_Wifi_BLE_SDK/GD32VW55x_RELEASE_V1.0.2/MSDK/lwip/lwip-2.1.2/src/core\inet_chksum.c ****     LWIP_DEBUGF(INET_DEBUG, ("inet_chksum_pseudo(): checksumming pbuf %p (has next %p) \n",
 538              		.loc 1 407 3 is_stmt 0
 539 0044 BDE4     		bne	s1,zero,.L42
 540              	.L46:
 427:C:/Users/stapi/OneDrive/Desktop/GD32VW553/GD32VW55X_Wifi_BLE_SDK/GD32VW55x_RELEASE_V1.0.2/MSDK/lwip/lwip-2.1.2/src/core\inet_chksum.c ****     acc = SWAP_BYTES_IN_WORD(acc);
 541              		.loc 1 427 3 is_stmt 1
 427:C:/Users/stapi/OneDrive/Desktop/GD32VW553/GD32VW55X_Wifi_BLE_SDK/GD32VW55x_RELEASE_V1.0.2/MSDK/lwip/lwip-2.1.2/src/core\inet_chksum.c ****     acc = SWAP_BYTES_IN_WORD(acc);
 542              		.loc 1 427 6 is_stmt 0
 543 0046 639C0B0A 		bne	s7,zero,.L43
 544              	.L44:
 431:C:/Users/stapi/OneDrive/Desktop/GD32VW553/GD32VW55X_Wifi_BLE_SDK/GD32VW55x_RELEASE_V1.0.2/MSDK/lwip/lwip-2.1.2/src/core\inet_chksum.c ****   acc += (u32_t)lwip_htons(proto_len);
 545              		.loc 1 431 3 is_stmt 1
 431:C:/Users/stapi/OneDrive/Desktop/GD32VW553/GD32VW55X_Wifi_BLE_SDK/GD32VW55x_RELEASE_V1.0.2/MSDK/lwip/lwip-2.1.2/src/core\inet_chksum.c ****   acc += (u32_t)lwip_htons(proto_len);
 546              		.loc 1 431 17 is_stmt 0
 547 004a 5A85     		mv	a0,s6
 548 004c 97000000 		call	lwip_htons
 548      E7800000 
 549              	.LVL79:
 550 0054 AA84     		mv	s1,a0
 551              	.LVL80:
 432:C:/Users/stapi/OneDrive/Desktop/GD32VW553/GD32VW55X_Wifi_BLE_SDK/GD32VW55x_RELEASE_V1.0.2/MSDK/lwip/lwip-2.1.2/src/core\inet_chksum.c **** 
 552              		.loc 1 432 3 is_stmt 1
 432:C:/Users/stapi/OneDrive/Desktop/GD32VW553/GD32VW55X_Wifi_BLE_SDK/GD32VW55x_RELEASE_V1.0.2/MSDK/lwip/lwip-2.1.2/src/core\inet_chksum.c **** 
 553              		.loc 1 432 17 is_stmt 0
 554 0056 4A85     		mv	a0,s2
 555 0058 97000000 		call	lwip_htons
 555      E7800000 
 556              	.LVL81:
 432:C:/Users/stapi/OneDrive/Desktop/GD32VW553/GD32VW55X_Wifi_BLE_SDK/GD32VW55x_RELEASE_V1.0.2/MSDK/lwip/lwip-2.1.2/src/core\inet_chksum.c **** 
 557              		.loc 1 432 7
 558 0060 AA94     		add	s1,s1,a0
 559              	.LVL82:
 436:C:/Users/stapi/OneDrive/Desktop/GD32VW553/GD32VW55X_Wifi_BLE_SDK/GD32VW55x_RELEASE_V1.0.2/MSDK/lwip/lwip-2.1.2/src/core\inet_chksum.c ****   acc = FOLD_U32T(acc);
 560              		.loc 1 436 9
 561 0062 4167     		li	a4,65536
 432:C:/Users/stapi/OneDrive/Desktop/GD32VW553/GD32VW55X_Wifi_BLE_SDK/GD32VW55x_RELEASE_V1.0.2/MSDK/lwip/lwip-2.1.2/src/core\inet_chksum.c **** 
 562              		.loc 1 432 7
 563 0064 2694     		add	s0,s1,s0
 564              	.LVL83:
 436:C:/Users/stapi/OneDrive/Desktop/GD32VW553/GD32VW55X_Wifi_BLE_SDK/GD32VW55x_RELEASE_V1.0.2/MSDK/lwip/lwip-2.1.2/src/core\inet_chksum.c ****   acc = FOLD_U32T(acc);
 565              		.loc 1 436 3 is_stmt 1
 436:C:/Users/stapi/OneDrive/Desktop/GD32VW553/GD32VW55X_Wifi_BLE_SDK/GD32VW55x_RELEASE_V1.0.2/MSDK/lwip/lwip-2.1.2/src/core\inet_chksum.c ****   acc = FOLD_U32T(acc);
 566              		.loc 1 436 9 is_stmt 0
 567 0066 7D17     		addi	a4,a4,-1
 568 0068 93570401 		srli	a5,s0,16
 569 006c 798C     		and	s0,s0,a4
 570              	.LVL84:
 436:C:/Users/stapi/OneDrive/Desktop/GD32VW553/GD32VW55X_Wifi_BLE_SDK/GD32VW55x_RELEASE_V1.0.2/MSDK/lwip/lwip-2.1.2/src/core\inet_chksum.c ****   acc = FOLD_U32T(acc);
 571              		.loc 1 436 7
 572 006e 3E94     		add	s0,a5,s0
 573              	.LVL85:
 437:C:/Users/stapi/OneDrive/Desktop/GD32VW553/GD32VW55X_Wifi_BLE_SDK/GD32VW55x_RELEASE_V1.0.2/MSDK/lwip/lwip-2.1.2/src/core\inet_chksum.c ****   LWIP_DEBUGF(INET_DEBUG, ("inet_chksum_pseudo(): pbuf chain lwip_chksum()=%"X32_F"\n", acc));
 574              		.loc 1 437 3 is_stmt 1
 437:C:/Users/stapi/OneDrive/Desktop/GD32VW553/GD32VW55X_Wifi_BLE_SDK/GD32VW55x_RELEASE_V1.0.2/MSDK/lwip/lwip-2.1.2/src/core\inet_chksum.c ****   LWIP_DEBUGF(INET_DEBUG, ("inet_chksum_pseudo(): pbuf chain lwip_chksum()=%"X32_F"\n", acc));
 575              		.loc 1 437 9 is_stmt 0
 576 0070 13550401 		srli	a0,s0,16
 577 0074 798C     		and	s0,s0,a4
 578              	.LVL86:
 438:C:/Users/stapi/OneDrive/Desktop/GD32VW553/GD32VW55X_Wifi_BLE_SDK/GD32VW55x_RELEASE_V1.0.2/MSDK/lwip/lwip-2.1.2/src/core\inet_chksum.c ****   return (u16_t)~(acc & 0xffffUL);
 579              		.loc 1 438 94 is_stmt 1
 439:C:/Users/stapi/OneDrive/Desktop/GD32VW553/GD32VW55X_Wifi_BLE_SDK/GD32VW55x_RELEASE_V1.0.2/MSDK/lwip/lwip-2.1.2/src/core\inet_chksum.c **** }
 580              		.loc 1 439 3
 437:C:/Users/stapi/OneDrive/Desktop/GD32VW553/GD32VW55X_Wifi_BLE_SDK/GD32VW55x_RELEASE_V1.0.2/MSDK/lwip/lwip-2.1.2/src/core\inet_chksum.c ****   LWIP_DEBUGF(INET_DEBUG, ("inet_chksum_pseudo(): pbuf chain lwip_chksum()=%"X32_F"\n", acc));
 581              		.loc 1 437 7 is_stmt 0
 582 0076 2A94     		add	s0,a0,s0
 439:C:/Users/stapi/OneDrive/Desktop/GD32VW553/GD32VW55X_Wifi_BLE_SDK/GD32VW55x_RELEASE_V1.0.2/MSDK/lwip/lwip-2.1.2/src/core\inet_chksum.c **** }
 583              		.loc 1 439 10
 584 0078 1345F4FF 		not	a0,s0
 585              	.LBE12:
 586              	.LBE14:
 473:C:/Users/stapi/OneDrive/Desktop/GD32VW553/GD32VW55X_Wifi_BLE_SDK/GD32VW55x_RELEASE_V1.0.2/MSDK/lwip/lwip-2.1.2/src/core\inet_chksum.c **** }
 587              		.loc 1 473 1
 588 007c 33450508 		zext.h	a0,a0
 589 0080 17030000 		tail	__riscv_restore_9
 589      67000300 
 590              		.cfi_remember_state
 591              		.cfi_restore 24
 592              		.cfi_restore 23
 593              		.cfi_restore 22
 594              		.cfi_restore 21
 595              		.cfi_restore 20
 596              		.cfi_restore 19
 597              		.cfi_restore 18
 598              		.cfi_restore 9
 599              		.cfi_restore 8
 600              		.cfi_restore 1
 601              		.cfi_def_cfa_offset 0
 602              	.LVL87:
 603              	.L39:
 604              		.cfi_restore_state
 605              	.LBB15:
 606              	.LBB13:
 416:C:/Users/stapi/OneDrive/Desktop/GD32VW553/GD32VW55X_Wifi_BLE_SDK/GD32VW55x_RELEASE_V1.0.2/MSDK/lwip/lwip-2.1.2/src/core\inet_chksum.c ****     /*LWIP_DEBUGF(INET_DEBUG, ("inet_chksum_pseudo(): unwrapped lwip_chksum()=%"X32_F" \n", acc));*
 607              		.loc 1 416 5 is_stmt 1
 416:C:/Users/stapi/OneDrive/Desktop/GD32VW553/GD32VW55X_Wifi_BLE_SDK/GD32VW55x_RELEASE_V1.0.2/MSDK/lwip/lwip-2.1.2/src/core\inet_chksum.c ****     /*LWIP_DEBUGF(INET_DEBUG, ("inet_chksum_pseudo(): unwrapped lwip_chksum()=%"X32_F" \n", acc));*
 608              		.loc 1 416 5
 419:C:/Users/stapi/OneDrive/Desktop/GD32VW553/GD32VW55X_Wifi_BLE_SDK/GD32VW55x_RELEASE_V1.0.2/MSDK/lwip/lwip-2.1.2/src/core\inet_chksum.c ****     if (q->len % 2 != 0) {
 609              		.loc 1 419 5
 419:C:/Users/stapi/OneDrive/Desktop/GD32VW553/GD32VW55X_Wifi_BLE_SDK/GD32VW55x_RELEASE_V1.0.2/MSDK/lwip/lwip-2.1.2/src/core\inet_chksum.c ****     if (q->len % 2 != 0) {
 610              		.loc 1 419 11 is_stmt 0
 611 0088 93570401 		srli	a5,s0,16
 612 008c 33743401 		and	s0,s0,s3
 613              	.LVL88:
 419:C:/Users/stapi/OneDrive/Desktop/GD32VW553/GD32VW55X_Wifi_BLE_SDK/GD32VW55x_RELEASE_V1.0.2/MSDK/lwip/lwip-2.1.2/src/core\inet_chksum.c ****     if (q->len % 2 != 0) {
 614              		.loc 1 419 9
 615 0090 3E94     		add	s0,a5,s0
 616              	.LVL89:
 420:C:/Users/stapi/OneDrive/Desktop/GD32VW553/GD32VW55X_Wifi_BLE_SDK/GD32VW55x_RELEASE_V1.0.2/MSDK/lwip/lwip-2.1.2/src/core\inet_chksum.c ****       swapped = !swapped;
 617              		.loc 1 420 5 is_stmt 1
 420:C:/Users/stapi/OneDrive/Desktop/GD32VW553/GD32VW55X_Wifi_BLE_SDK/GD32VW55x_RELEASE_V1.0.2/MSDK/lwip/lwip-2.1.2/src/core\inet_chksum.c ****       swapped = !swapped;
 618              		.loc 1 420 20 is_stmt 0
 619 0092 83D7A400 		lhu	a5,10(s1)
 420:C:/Users/stapi/OneDrive/Desktop/GD32VW553/GD32VW55X_Wifi_BLE_SDK/GD32VW55x_RELEASE_V1.0.2/MSDK/lwip/lwip-2.1.2/src/core\inet_chksum.c ****       swapped = !swapped;
 620              		.loc 1 420 8
 621 0096 858B     		andi	a5,a5,1
 622 0098 99CB     		beq	a5,zero,.L41
 421:C:/Users/stapi/OneDrive/Desktop/GD32VW553/GD32VW55X_Wifi_BLE_SDK/GD32VW55x_RELEASE_V1.0.2/MSDK/lwip/lwip-2.1.2/src/core\inet_chksum.c ****       acc = SWAP_BYTES_IN_WORD(acc);
 623              		.loc 1 421 7 is_stmt 1
 422:C:/Users/stapi/OneDrive/Desktop/GD32VW553/GD32VW55X_Wifi_BLE_SDK/GD32VW55x_RELEASE_V1.0.2/MSDK/lwip/lwip-2.1.2/src/core\inet_chksum.c ****     }
 624              		.loc 1 422 13 is_stmt 0
 625 009a 93178400 		slli	a5,s0,8
 626 009e 2180     		srli	s0,s0,8
 627              	.LVL90:
 628 00a0 B3F73701 		and	a5,a5,s3
 629 00a4 1374F40F 		andi	s0,s0,255
 630 00a8 93CB1B00 		xori	s7,s7,1
 631              	.LVL91:
 422:C:/Users/stapi/OneDrive/Desktop/GD32VW553/GD32VW55X_Wifi_BLE_SDK/GD32VW55x_RELEASE_V1.0.2/MSDK/lwip/lwip-2.1.2/src/core\inet_chksum.c ****     }
 632              		.loc 1 422 7 is_stmt 1
 422:C:/Users/stapi/OneDrive/Desktop/GD32VW553/GD32VW55X_Wifi_BLE_SDK/GD32VW55x_RELEASE_V1.0.2/MSDK/lwip/lwip-2.1.2/src/core\inet_chksum.c ****     }
 633              		.loc 1 422 11 is_stmt 0
 634 00ac 5D8C     		or	s0,a5,s0
 635              	.LVL92:
 636              	.L41:
 407:C:/Users/stapi/OneDrive/Desktop/GD32VW553/GD32VW55X_Wifi_BLE_SDK/GD32VW55x_RELEASE_V1.0.2/MSDK/lwip/lwip-2.1.2/src/core\inet_chksum.c ****     LWIP_DEBUGF(INET_DEBUG, ("inet_chksum_pseudo(): checksumming pbuf %p (has next %p) \n",
 637              		.loc 1 407 48 is_stmt 1
 407:C:/Users/stapi/OneDrive/Desktop/GD32VW553/GD32VW55X_Wifi_BLE_SDK/GD32VW55x_RELEASE_V1.0.2/MSDK/lwip/lwip-2.1.2/src/core\inet_chksum.c ****     LWIP_DEBUGF(INET_DEBUG, ("inet_chksum_pseudo(): checksumming pbuf %p (has next %p) \n",
 638              		.loc 1 407 50 is_stmt 0
 639 00ae 8440     		lw	s1,0(s1)
 640              	.LVL93:
 641 00b0 51BF     		j	.L38
 642              	.LVL94:
 643              	.L42:
 407:C:/Users/stapi/OneDrive/Desktop/GD32VW553/GD32VW55X_Wifi_BLE_SDK/GD32VW55x_RELEASE_V1.0.2/MSDK/lwip/lwip-2.1.2/src/core\inet_chksum.c ****     LWIP_DEBUGF(INET_DEBUG, ("inet_chksum_pseudo(): checksumming pbuf %p (has next %p) \n",
 644              		.loc 1 407 27
 645 00b2 E30A0AF8 		beq	s4,zero,.L46
 409:C:/Users/stapi/OneDrive/Desktop/GD32VW553/GD32VW55X_Wifi_BLE_SDK/GD32VW55x_RELEASE_V1.0.2/MSDK/lwip/lwip-2.1.2/src/core\inet_chksum.c ****     chklen = q->len;
 646              		.loc 1 409 58 is_stmt 1
 410:C:/Users/stapi/OneDrive/Desktop/GD32VW553/GD32VW55X_Wifi_BLE_SDK/GD32VW55x_RELEASE_V1.0.2/MSDK/lwip/lwip-2.1.2/src/core\inet_chksum.c ****     if (chklen > chksum_len) {
 647              		.loc 1 410 5
 410:C:/Users/stapi/OneDrive/Desktop/GD32VW553/GD32VW55X_Wifi_BLE_SDK/GD32VW55x_RELEASE_V1.0.2/MSDK/lwip/lwip-2.1.2/src/core\inet_chksum.c ****     if (chklen > chksum_len) {
 648              		.loc 1 410 12 is_stmt 0
 649 00b6 83DAA400 		lhu	s5,10(s1)
 650              	.LVL95:
 411:C:/Users/stapi/OneDrive/Desktop/GD32VW553/GD32VW55X_Wifi_BLE_SDK/GD32VW55x_RELEASE_V1.0.2/MSDK/lwip/lwip-2.1.2/src/core\inet_chksum.c ****       chklen = chksum_len;
 651              		.loc 1 411 5 is_stmt 1
 414:C:/Users/stapi/OneDrive/Desktop/GD32VW553/GD32VW55X_Wifi_BLE_SDK/GD32VW55x_RELEASE_V1.0.2/MSDK/lwip/lwip-2.1.2/src/core\inet_chksum.c ****     chksum_len = (u16_t)(chksum_len - chklen);
 652              		.loc 1 414 12 is_stmt 0
 653 00ba C840     		lw	a0,4(s1)
 654 00bc B3DA4A0B 		minu	s5,s5,s4
 655              	.LVL96:
 414:C:/Users/stapi/OneDrive/Desktop/GD32VW553/GD32VW55X_Wifi_BLE_SDK/GD32VW55x_RELEASE_V1.0.2/MSDK/lwip/lwip-2.1.2/src/core\inet_chksum.c ****     chksum_len = (u16_t)(chksum_len - chklen);
 656              		.loc 1 414 5 is_stmt 1
 414:C:/Users/stapi/OneDrive/Desktop/GD32VW553/GD32VW55X_Wifi_BLE_SDK/GD32VW55x_RELEASE_V1.0.2/MSDK/lwip/lwip-2.1.2/src/core\inet_chksum.c ****     chksum_len = (u16_t)(chksum_len - chklen);
 657              		.loc 1 414 12 is_stmt 0
 658 00c0 D685     		mv	a1,s5
 659 00c2 97000000 		call	wifi_ip_chksum
 659      E7800000 
 660              	.LVL97:
 415:C:/Users/stapi/OneDrive/Desktop/GD32VW553/GD32VW55X_Wifi_BLE_SDK/GD32VW55x_RELEASE_V1.0.2/MSDK/lwip/lwip-2.1.2/src/core\inet_chksum.c ****     LWIP_ASSERT("delete me", chksum_len < 0x7fff);
 661              		.loc 1 415 16
 662 00ca 330A5A41 		sub	s4,s4,s5
 663              	.LVL98:
 414:C:/Users/stapi/OneDrive/Desktop/GD32VW553/GD32VW55X_Wifi_BLE_SDK/GD32VW55x_RELEASE_V1.0.2/MSDK/lwip/lwip-2.1.2/src/core\inet_chksum.c ****     chksum_len = (u16_t)(chksum_len - chklen);
 664              		.loc 1 414 9
 665 00ce 2A94     		add	s0,a0,s0
 666              	.LVL99:
 415:C:/Users/stapi/OneDrive/Desktop/GD32VW553/GD32VW55X_Wifi_BLE_SDK/GD32VW55x_RELEASE_V1.0.2/MSDK/lwip/lwip-2.1.2/src/core\inet_chksum.c ****     LWIP_ASSERT("delete me", chksum_len < 0x7fff);
 667              		.loc 1 415 5 is_stmt 1
 415:C:/Users/stapi/OneDrive/Desktop/GD32VW553/GD32VW55X_Wifi_BLE_SDK/GD32VW55x_RELEASE_V1.0.2/MSDK/lwip/lwip-2.1.2/src/core\inet_chksum.c ****     LWIP_ASSERT("delete me", chksum_len < 0x7fff);
 668              		.loc 1 415 16 is_stmt 0
 669 00d0 334A0A08 		zext.h	s4,s4
 670              	.LVL100:
 416:C:/Users/stapi/OneDrive/Desktop/GD32VW553/GD32VW55X_Wifi_BLE_SDK/GD32VW55x_RELEASE_V1.0.2/MSDK/lwip/lwip-2.1.2/src/core\inet_chksum.c ****     /*LWIP_DEBUGF(INET_DEBUG, ("inet_chksum_pseudo(): unwrapped lwip_chksum()=%"X32_F" \n", acc));*
 671              		.loc 1 416 5 is_stmt 1
 416:C:/Users/stapi/OneDrive/Desktop/GD32VW553/GD32VW55X_Wifi_BLE_SDK/GD32VW55x_RELEASE_V1.0.2/MSDK/lwip/lwip-2.1.2/src/core\inet_chksum.c ****     /*LWIP_DEBUGF(INET_DEBUG, ("inet_chksum_pseudo(): unwrapped lwip_chksum()=%"X32_F" \n", acc));*
 672              		.loc 1 416 5
 673 00d4 E37A4CFB 		bleu	s4,s8,.L39
 416:C:/Users/stapi/OneDrive/Desktop/GD32VW553/GD32VW55X_Wifi_BLE_SDK/GD32VW55x_RELEASE_V1.0.2/MSDK/lwip/lwip-2.1.2/src/core\inet_chksum.c ****     /*LWIP_DEBUGF(INET_DEBUG, ("inet_chksum_pseudo(): unwrapped lwip_chksum()=%"X32_F" \n", acc));*
 674              		.loc 1 416 5
 416:C:/Users/stapi/OneDrive/Desktop/GD32VW553/GD32VW55X_Wifi_BLE_SDK/GD32VW55x_RELEASE_V1.0.2/MSDK/lwip/lwip-2.1.2/src/core\inet_chksum.c ****     /*LWIP_DEBUGF(INET_DEBUG, ("inet_chksum_pseudo(): unwrapped lwip_chksum()=%"X32_F" \n", acc));*
 675              		.loc 1 416 5
 676 00d8 B7060000 		lui	a3,%hi(.LC0)
 677 00dc B7050000 		lui	a1,%hi(.LC1)
 678 00e0 37050000 		lui	a0,%hi(.LC2)
 679 00e4 93860600 		addi	a3,a3,%lo(.LC0)
 680 00e8 1306001A 		li	a2,416
 681 00ec 93850500 		addi	a1,a1,%lo(.LC1)
 682 00f0 13050500 		addi	a0,a0,%lo(.LC2)
 683 00f4 97000000 		call	printf
 683      E7800000 
 684              	.LVL101:
 685              	.L40:
 416:C:/Users/stapi/OneDrive/Desktop/GD32VW553/GD32VW55X_Wifi_BLE_SDK/GD32VW55x_RELEASE_V1.0.2/MSDK/lwip/lwip-2.1.2/src/core\inet_chksum.c ****     /*LWIP_DEBUGF(INET_DEBUG, ("inet_chksum_pseudo(): unwrapped lwip_chksum()=%"X32_F" \n", acc));*
 686              		.loc 1 416 5
 416:C:/Users/stapi/OneDrive/Desktop/GD32VW553/GD32VW55X_Wifi_BLE_SDK/GD32VW55x_RELEASE_V1.0.2/MSDK/lwip/lwip-2.1.2/src/core\inet_chksum.c ****     /*LWIP_DEBUGF(INET_DEBUG, ("inet_chksum_pseudo(): unwrapped lwip_chksum()=%"X32_F" \n", acc));*
 687              		.loc 1 416 5
 416:C:/Users/stapi/OneDrive/Desktop/GD32VW553/GD32VW55X_Wifi_BLE_SDK/GD32VW55x_RELEASE_V1.0.2/MSDK/lwip/lwip-2.1.2/src/core\inet_chksum.c ****     /*LWIP_DEBUGF(INET_DEBUG, ("inet_chksum_pseudo(): unwrapped lwip_chksum()=%"X32_F" \n", acc));*
 688              		.loc 1 416 5
 689 00fc 01A0     		j	.L40
 690              	.LVL102:
 691              	.L43:
 428:C:/Users/stapi/OneDrive/Desktop/GD32VW553/GD32VW55X_Wifi_BLE_SDK/GD32VW55x_RELEASE_V1.0.2/MSDK/lwip/lwip-2.1.2/src/core\inet_chksum.c ****   }
 692              		.loc 1 428 5
 428:C:/Users/stapi/OneDrive/Desktop/GD32VW553/GD32VW55X_Wifi_BLE_SDK/GD32VW55x_RELEASE_V1.0.2/MSDK/lwip/lwip-2.1.2/src/core\inet_chksum.c ****   }
 693              		.loc 1 428 11 is_stmt 0
 694 00fe 4167     		li	a4,65536
 695 0100 93178400 		slli	a5,s0,8
 696 0104 7D17     		addi	a4,a4,-1
 697 0106 2180     		srli	s0,s0,8
 698              	.LVL103:
 699 0108 F98F     		and	a5,a5,a4
 700 010a 1374F40F 		andi	s0,s0,255
 428:C:/Users/stapi/OneDrive/Desktop/GD32VW553/GD32VW55X_Wifi_BLE_SDK/GD32VW55x_RELEASE_V1.0.2/MSDK/lwip/lwip-2.1.2/src/core\inet_chksum.c ****   }
 701              		.loc 1 428 9
 702 010e 5D8C     		or	s0,a5,s0
 703              	.LVL104:
 704 0110 2DBF     		j	.L44
 705              	.LBE13:
 706              	.LBE15:
 707              		.cfi_endproc
 708              	.LFE9:
 710              		.section	.text.ip_chksum_pseudo_partial,"ax",@progbits
 711              		.align	1
 712              		.globl	ip_chksum_pseudo_partial
 714              	ip_chksum_pseudo_partial:
 715              	.LFB10:
 474:C:/Users/stapi/OneDrive/Desktop/GD32VW553/GD32VW55X_Wifi_BLE_SDK/GD32VW55x_RELEASE_V1.0.2/MSDK/lwip/lwip-2.1.2/src/core\inet_chksum.c **** #endif /* LWIP_IPV4 */
 475:C:/Users/stapi/OneDrive/Desktop/GD32VW553/GD32VW55X_Wifi_BLE_SDK/GD32VW55x_RELEASE_V1.0.2/MSDK/lwip/lwip-2.1.2/src/core\inet_chksum.c **** 
 476:C:/Users/stapi/OneDrive/Desktop/GD32VW553/GD32VW55X_Wifi_BLE_SDK/GD32VW55x_RELEASE_V1.0.2/MSDK/lwip/lwip-2.1.2/src/core\inet_chksum.c **** #if LWIP_IPV6
 477:C:/Users/stapi/OneDrive/Desktop/GD32VW553/GD32VW55X_Wifi_BLE_SDK/GD32VW55x_RELEASE_V1.0.2/MSDK/lwip/lwip-2.1.2/src/core\inet_chksum.c **** /**
 478:C:/Users/stapi/OneDrive/Desktop/GD32VW553/GD32VW55X_Wifi_BLE_SDK/GD32VW55x_RELEASE_V1.0.2/MSDK/lwip/lwip-2.1.2/src/core\inet_chksum.c ****  * Calculates the checksum with IPv6 pseudo header used by TCP and UDP for a pbuf chain.
 479:C:/Users/stapi/OneDrive/Desktop/GD32VW553/GD32VW55X_Wifi_BLE_SDK/GD32VW55x_RELEASE_V1.0.2/MSDK/lwip/lwip-2.1.2/src/core\inet_chksum.c ****  * IPv6 addresses are expected to be in network byte order. Will only compute for a
 480:C:/Users/stapi/OneDrive/Desktop/GD32VW553/GD32VW55X_Wifi_BLE_SDK/GD32VW55x_RELEASE_V1.0.2/MSDK/lwip/lwip-2.1.2/src/core\inet_chksum.c ****  * portion of the payload.
 481:C:/Users/stapi/OneDrive/Desktop/GD32VW553/GD32VW55X_Wifi_BLE_SDK/GD32VW55x_RELEASE_V1.0.2/MSDK/lwip/lwip-2.1.2/src/core\inet_chksum.c ****  *
 482:C:/Users/stapi/OneDrive/Desktop/GD32VW553/GD32VW55X_Wifi_BLE_SDK/GD32VW55x_RELEASE_V1.0.2/MSDK/lwip/lwip-2.1.2/src/core\inet_chksum.c ****  * @param p chain of pbufs over that a checksum should be calculated (ip data part)
 483:C:/Users/stapi/OneDrive/Desktop/GD32VW553/GD32VW55X_Wifi_BLE_SDK/GD32VW55x_RELEASE_V1.0.2/MSDK/lwip/lwip-2.1.2/src/core\inet_chksum.c ****  * @param proto ipv6 protocol/next header (used for checksum of pseudo header)
 484:C:/Users/stapi/OneDrive/Desktop/GD32VW553/GD32VW55X_Wifi_BLE_SDK/GD32VW55x_RELEASE_V1.0.2/MSDK/lwip/lwip-2.1.2/src/core\inet_chksum.c ****  * @param proto_len length of the ipv6 payload (used for checksum of pseudo header)
 485:C:/Users/stapi/OneDrive/Desktop/GD32VW553/GD32VW55X_Wifi_BLE_SDK/GD32VW55x_RELEASE_V1.0.2/MSDK/lwip/lwip-2.1.2/src/core\inet_chksum.c ****  * @param chksum_len number of payload bytes used to compute chksum
 486:C:/Users/stapi/OneDrive/Desktop/GD32VW553/GD32VW55X_Wifi_BLE_SDK/GD32VW55x_RELEASE_V1.0.2/MSDK/lwip/lwip-2.1.2/src/core\inet_chksum.c ****  * @param src source ipv6 address (used for checksum of pseudo header)
 487:C:/Users/stapi/OneDrive/Desktop/GD32VW553/GD32VW55X_Wifi_BLE_SDK/GD32VW55x_RELEASE_V1.0.2/MSDK/lwip/lwip-2.1.2/src/core\inet_chksum.c ****  * @param dest destination ipv6 address (used for checksum of pseudo header)
 488:C:/Users/stapi/OneDrive/Desktop/GD32VW553/GD32VW55X_Wifi_BLE_SDK/GD32VW55x_RELEASE_V1.0.2/MSDK/lwip/lwip-2.1.2/src/core\inet_chksum.c ****  * @return checksum (as u16_t) to be saved directly in the protocol header
 489:C:/Users/stapi/OneDrive/Desktop/GD32VW553/GD32VW55X_Wifi_BLE_SDK/GD32VW55x_RELEASE_V1.0.2/MSDK/lwip/lwip-2.1.2/src/core\inet_chksum.c ****  */
 490:C:/Users/stapi/OneDrive/Desktop/GD32VW553/GD32VW55X_Wifi_BLE_SDK/GD32VW55x_RELEASE_V1.0.2/MSDK/lwip/lwip-2.1.2/src/core\inet_chksum.c **** u16_t
 491:C:/Users/stapi/OneDrive/Desktop/GD32VW553/GD32VW55X_Wifi_BLE_SDK/GD32VW55x_RELEASE_V1.0.2/MSDK/lwip/lwip-2.1.2/src/core\inet_chksum.c **** ip6_chksum_pseudo_partial(struct pbuf *p, u8_t proto, u16_t proto_len,
 492:C:/Users/stapi/OneDrive/Desktop/GD32VW553/GD32VW55X_Wifi_BLE_SDK/GD32VW55x_RELEASE_V1.0.2/MSDK/lwip/lwip-2.1.2/src/core\inet_chksum.c ****                           u16_t chksum_len, const ip6_addr_t *src, const ip6_addr_t *dest)
 493:C:/Users/stapi/OneDrive/Desktop/GD32VW553/GD32VW55X_Wifi_BLE_SDK/GD32VW55x_RELEASE_V1.0.2/MSDK/lwip/lwip-2.1.2/src/core\inet_chksum.c **** {
 494:C:/Users/stapi/OneDrive/Desktop/GD32VW553/GD32VW55X_Wifi_BLE_SDK/GD32VW55x_RELEASE_V1.0.2/MSDK/lwip/lwip-2.1.2/src/core\inet_chksum.c ****   u32_t acc = 0;
 495:C:/Users/stapi/OneDrive/Desktop/GD32VW553/GD32VW55X_Wifi_BLE_SDK/GD32VW55x_RELEASE_V1.0.2/MSDK/lwip/lwip-2.1.2/src/core\inet_chksum.c ****   u32_t addr;
 496:C:/Users/stapi/OneDrive/Desktop/GD32VW553/GD32VW55X_Wifi_BLE_SDK/GD32VW55x_RELEASE_V1.0.2/MSDK/lwip/lwip-2.1.2/src/core\inet_chksum.c ****   u8_t addr_part;
 497:C:/Users/stapi/OneDrive/Desktop/GD32VW553/GD32VW55X_Wifi_BLE_SDK/GD32VW55x_RELEASE_V1.0.2/MSDK/lwip/lwip-2.1.2/src/core\inet_chksum.c **** 
 498:C:/Users/stapi/OneDrive/Desktop/GD32VW553/GD32VW55X_Wifi_BLE_SDK/GD32VW55x_RELEASE_V1.0.2/MSDK/lwip/lwip-2.1.2/src/core\inet_chksum.c ****   for (addr_part = 0; addr_part < 4; addr_part++) {
 499:C:/Users/stapi/OneDrive/Desktop/GD32VW553/GD32VW55X_Wifi_BLE_SDK/GD32VW55x_RELEASE_V1.0.2/MSDK/lwip/lwip-2.1.2/src/core\inet_chksum.c ****     addr = src->addr[addr_part];
 500:C:/Users/stapi/OneDrive/Desktop/GD32VW553/GD32VW55X_Wifi_BLE_SDK/GD32VW55x_RELEASE_V1.0.2/MSDK/lwip/lwip-2.1.2/src/core\inet_chksum.c ****     acc = (u32_t)(acc + (addr & 0xffffUL));
 501:C:/Users/stapi/OneDrive/Desktop/GD32VW553/GD32VW55X_Wifi_BLE_SDK/GD32VW55x_RELEASE_V1.0.2/MSDK/lwip/lwip-2.1.2/src/core\inet_chksum.c ****     acc = (u32_t)(acc + ((addr >> 16) & 0xffffUL));
 502:C:/Users/stapi/OneDrive/Desktop/GD32VW553/GD32VW55X_Wifi_BLE_SDK/GD32VW55x_RELEASE_V1.0.2/MSDK/lwip/lwip-2.1.2/src/core\inet_chksum.c ****     addr = dest->addr[addr_part];
 503:C:/Users/stapi/OneDrive/Desktop/GD32VW553/GD32VW55X_Wifi_BLE_SDK/GD32VW55x_RELEASE_V1.0.2/MSDK/lwip/lwip-2.1.2/src/core\inet_chksum.c ****     acc = (u32_t)(acc + (addr & 0xffffUL));
 504:C:/Users/stapi/OneDrive/Desktop/GD32VW553/GD32VW55X_Wifi_BLE_SDK/GD32VW55x_RELEASE_V1.0.2/MSDK/lwip/lwip-2.1.2/src/core\inet_chksum.c ****     acc = (u32_t)(acc + ((addr >> 16) & 0xffffUL));
 505:C:/Users/stapi/OneDrive/Desktop/GD32VW553/GD32VW55X_Wifi_BLE_SDK/GD32VW55x_RELEASE_V1.0.2/MSDK/lwip/lwip-2.1.2/src/core\inet_chksum.c ****   }
 506:C:/Users/stapi/OneDrive/Desktop/GD32VW553/GD32VW55X_Wifi_BLE_SDK/GD32VW55x_RELEASE_V1.0.2/MSDK/lwip/lwip-2.1.2/src/core\inet_chksum.c ****   /* fold down to 16 bits */
 507:C:/Users/stapi/OneDrive/Desktop/GD32VW553/GD32VW55X_Wifi_BLE_SDK/GD32VW55x_RELEASE_V1.0.2/MSDK/lwip/lwip-2.1.2/src/core\inet_chksum.c ****   acc = FOLD_U32T(acc);
 508:C:/Users/stapi/OneDrive/Desktop/GD32VW553/GD32VW55X_Wifi_BLE_SDK/GD32VW55x_RELEASE_V1.0.2/MSDK/lwip/lwip-2.1.2/src/core\inet_chksum.c ****   acc = FOLD_U32T(acc);
 509:C:/Users/stapi/OneDrive/Desktop/GD32VW553/GD32VW55X_Wifi_BLE_SDK/GD32VW55x_RELEASE_V1.0.2/MSDK/lwip/lwip-2.1.2/src/core\inet_chksum.c **** 
 510:C:/Users/stapi/OneDrive/Desktop/GD32VW553/GD32VW55X_Wifi_BLE_SDK/GD32VW55x_RELEASE_V1.0.2/MSDK/lwip/lwip-2.1.2/src/core\inet_chksum.c ****   return inet_cksum_pseudo_partial_base(p, proto, proto_len, chksum_len, acc);
 511:C:/Users/stapi/OneDrive/Desktop/GD32VW553/GD32VW55X_Wifi_BLE_SDK/GD32VW55x_RELEASE_V1.0.2/MSDK/lwip/lwip-2.1.2/src/core\inet_chksum.c **** }
 512:C:/Users/stapi/OneDrive/Desktop/GD32VW553/GD32VW55X_Wifi_BLE_SDK/GD32VW55x_RELEASE_V1.0.2/MSDK/lwip/lwip-2.1.2/src/core\inet_chksum.c **** #endif /* LWIP_IPV6 */
 513:C:/Users/stapi/OneDrive/Desktop/GD32VW553/GD32VW55X_Wifi_BLE_SDK/GD32VW55x_RELEASE_V1.0.2/MSDK/lwip/lwip-2.1.2/src/core\inet_chksum.c **** 
 514:C:/Users/stapi/OneDrive/Desktop/GD32VW553/GD32VW55X_Wifi_BLE_SDK/GD32VW55x_RELEASE_V1.0.2/MSDK/lwip/lwip-2.1.2/src/core\inet_chksum.c **** /* ip_chksum_pseudo_partial:
 515:C:/Users/stapi/OneDrive/Desktop/GD32VW553/GD32VW55X_Wifi_BLE_SDK/GD32VW55x_RELEASE_V1.0.2/MSDK/lwip/lwip-2.1.2/src/core\inet_chksum.c ****  *
 516:C:/Users/stapi/OneDrive/Desktop/GD32VW553/GD32VW55X_Wifi_BLE_SDK/GD32VW55x_RELEASE_V1.0.2/MSDK/lwip/lwip-2.1.2/src/core\inet_chksum.c ****  * Calculates the IPv4 or IPv6 pseudo Internet checksum used by TCP and UDP for a pbuf chain.
 517:C:/Users/stapi/OneDrive/Desktop/GD32VW553/GD32VW55X_Wifi_BLE_SDK/GD32VW55x_RELEASE_V1.0.2/MSDK/lwip/lwip-2.1.2/src/core\inet_chksum.c ****  *
 518:C:/Users/stapi/OneDrive/Desktop/GD32VW553/GD32VW55X_Wifi_BLE_SDK/GD32VW55x_RELEASE_V1.0.2/MSDK/lwip/lwip-2.1.2/src/core\inet_chksum.c ****  * @param p chain of pbufs over that a checksum should be calculated (ip data part)
 519:C:/Users/stapi/OneDrive/Desktop/GD32VW553/GD32VW55X_Wifi_BLE_SDK/GD32VW55x_RELEASE_V1.0.2/MSDK/lwip/lwip-2.1.2/src/core\inet_chksum.c ****  * @param src source ip address (used for checksum of pseudo header)
 520:C:/Users/stapi/OneDrive/Desktop/GD32VW553/GD32VW55X_Wifi_BLE_SDK/GD32VW55x_RELEASE_V1.0.2/MSDK/lwip/lwip-2.1.2/src/core\inet_chksum.c ****  * @param dst destination ip address (used for checksum of pseudo header)
 521:C:/Users/stapi/OneDrive/Desktop/GD32VW553/GD32VW55X_Wifi_BLE_SDK/GD32VW55x_RELEASE_V1.0.2/MSDK/lwip/lwip-2.1.2/src/core\inet_chksum.c ****  * @param proto ip protocol (used for checksum of pseudo header)
 522:C:/Users/stapi/OneDrive/Desktop/GD32VW553/GD32VW55X_Wifi_BLE_SDK/GD32VW55x_RELEASE_V1.0.2/MSDK/lwip/lwip-2.1.2/src/core\inet_chksum.c ****  * @param proto_len length of the ip data part (used for checksum of pseudo header)
 523:C:/Users/stapi/OneDrive/Desktop/GD32VW553/GD32VW55X_Wifi_BLE_SDK/GD32VW55x_RELEASE_V1.0.2/MSDK/lwip/lwip-2.1.2/src/core\inet_chksum.c ****  * @return checksum (as u16_t) to be saved directly in the protocol header
 524:C:/Users/stapi/OneDrive/Desktop/GD32VW553/GD32VW55X_Wifi_BLE_SDK/GD32VW55x_RELEASE_V1.0.2/MSDK/lwip/lwip-2.1.2/src/core\inet_chksum.c ****  */
 525:C:/Users/stapi/OneDrive/Desktop/GD32VW553/GD32VW55X_Wifi_BLE_SDK/GD32VW55x_RELEASE_V1.0.2/MSDK/lwip/lwip-2.1.2/src/core\inet_chksum.c **** u16_t
 526:C:/Users/stapi/OneDrive/Desktop/GD32VW553/GD32VW55X_Wifi_BLE_SDK/GD32VW55x_RELEASE_V1.0.2/MSDK/lwip/lwip-2.1.2/src/core\inet_chksum.c **** ip_chksum_pseudo_partial(struct pbuf *p, u8_t proto, u16_t proto_len,
 527:C:/Users/stapi/OneDrive/Desktop/GD32VW553/GD32VW55X_Wifi_BLE_SDK/GD32VW55x_RELEASE_V1.0.2/MSDK/lwip/lwip-2.1.2/src/core\inet_chksum.c ****                          u16_t chksum_len, const ip_addr_t *src, const ip_addr_t *dest)
 528:C:/Users/stapi/OneDrive/Desktop/GD32VW553/GD32VW55X_Wifi_BLE_SDK/GD32VW55x_RELEASE_V1.0.2/MSDK/lwip/lwip-2.1.2/src/core\inet_chksum.c **** {
 716              		.loc 1 528 1 is_stmt 1
 717              		.cfi_startproc
 718              	.LVL105:
 529:C:/Users/stapi/OneDrive/Desktop/GD32VW553/GD32VW55X_Wifi_BLE_SDK/GD32VW55x_RELEASE_V1.0.2/MSDK/lwip/lwip-2.1.2/src/core\inet_chksum.c **** #if LWIP_IPV6
 530:C:/Users/stapi/OneDrive/Desktop/GD32VW553/GD32VW55X_Wifi_BLE_SDK/GD32VW55x_RELEASE_V1.0.2/MSDK/lwip/lwip-2.1.2/src/core\inet_chksum.c ****   if (IP_IS_V6(dest)) {
 531:C:/Users/stapi/OneDrive/Desktop/GD32VW553/GD32VW55X_Wifi_BLE_SDK/GD32VW55x_RELEASE_V1.0.2/MSDK/lwip/lwip-2.1.2/src/core\inet_chksum.c ****     return ip6_chksum_pseudo_partial(p, proto, proto_len, chksum_len, ip_2_ip6(src), ip_2_ip6(dest)
 532:C:/Users/stapi/OneDrive/Desktop/GD32VW553/GD32VW55X_Wifi_BLE_SDK/GD32VW55x_RELEASE_V1.0.2/MSDK/lwip/lwip-2.1.2/src/core\inet_chksum.c ****   }
 533:C:/Users/stapi/OneDrive/Desktop/GD32VW553/GD32VW55X_Wifi_BLE_SDK/GD32VW55x_RELEASE_V1.0.2/MSDK/lwip/lwip-2.1.2/src/core\inet_chksum.c **** #endif /* LWIP_IPV6 */
 534:C:/Users/stapi/OneDrive/Desktop/GD32VW553/GD32VW55X_Wifi_BLE_SDK/GD32VW55x_RELEASE_V1.0.2/MSDK/lwip/lwip-2.1.2/src/core\inet_chksum.c **** #if LWIP_IPV4 && LWIP_IPV6
 535:C:/Users/stapi/OneDrive/Desktop/GD32VW553/GD32VW55X_Wifi_BLE_SDK/GD32VW55x_RELEASE_V1.0.2/MSDK/lwip/lwip-2.1.2/src/core\inet_chksum.c ****   else
 536:C:/Users/stapi/OneDrive/Desktop/GD32VW553/GD32VW55X_Wifi_BLE_SDK/GD32VW55x_RELEASE_V1.0.2/MSDK/lwip/lwip-2.1.2/src/core\inet_chksum.c **** #endif /* LWIP_IPV4 && LWIP_IPV6 */
 537:C:/Users/stapi/OneDrive/Desktop/GD32VW553/GD32VW55X_Wifi_BLE_SDK/GD32VW55x_RELEASE_V1.0.2/MSDK/lwip/lwip-2.1.2/src/core\inet_chksum.c **** #if LWIP_IPV4
 538:C:/Users/stapi/OneDrive/Desktop/GD32VW553/GD32VW55X_Wifi_BLE_SDK/GD32VW55x_RELEASE_V1.0.2/MSDK/lwip/lwip-2.1.2/src/core\inet_chksum.c ****   {
 539:C:/Users/stapi/OneDrive/Desktop/GD32VW553/GD32VW55X_Wifi_BLE_SDK/GD32VW55x_RELEASE_V1.0.2/MSDK/lwip/lwip-2.1.2/src/core\inet_chksum.c ****     return inet_chksum_pseudo_partial(p, proto, proto_len, chksum_len, ip_2_ip4(src), ip_2_ip4(dest
 719              		.loc 1 539 5
 720              		.loc 1 539 12 is_stmt 0
 721 0000 17030000 		tail	inet_chksum_pseudo_partial
 721      67000300 
 722              	.LVL106:
 723              		.cfi_endproc
 724              	.LFE10:
 726              		.section	.text.inet_chksum,"ax",@progbits
 727              		.align	1
 728              		.globl	inet_chksum
 730              	inet_chksum:
 731              	.LFB11:
 540:C:/Users/stapi/OneDrive/Desktop/GD32VW553/GD32VW55X_Wifi_BLE_SDK/GD32VW55x_RELEASE_V1.0.2/MSDK/lwip/lwip-2.1.2/src/core\inet_chksum.c ****   }
 541:C:/Users/stapi/OneDrive/Desktop/GD32VW553/GD32VW55X_Wifi_BLE_SDK/GD32VW55x_RELEASE_V1.0.2/MSDK/lwip/lwip-2.1.2/src/core\inet_chksum.c **** #endif /* LWIP_IPV4 */
 542:C:/Users/stapi/OneDrive/Desktop/GD32VW553/GD32VW55X_Wifi_BLE_SDK/GD32VW55x_RELEASE_V1.0.2/MSDK/lwip/lwip-2.1.2/src/core\inet_chksum.c **** }
 543:C:/Users/stapi/OneDrive/Desktop/GD32VW553/GD32VW55X_Wifi_BLE_SDK/GD32VW55x_RELEASE_V1.0.2/MSDK/lwip/lwip-2.1.2/src/core\inet_chksum.c **** 
 544:C:/Users/stapi/OneDrive/Desktop/GD32VW553/GD32VW55X_Wifi_BLE_SDK/GD32VW55x_RELEASE_V1.0.2/MSDK/lwip/lwip-2.1.2/src/core\inet_chksum.c **** /* inet_chksum:
 545:C:/Users/stapi/OneDrive/Desktop/GD32VW553/GD32VW55X_Wifi_BLE_SDK/GD32VW55x_RELEASE_V1.0.2/MSDK/lwip/lwip-2.1.2/src/core\inet_chksum.c ****  *
 546:C:/Users/stapi/OneDrive/Desktop/GD32VW553/GD32VW55X_Wifi_BLE_SDK/GD32VW55x_RELEASE_V1.0.2/MSDK/lwip/lwip-2.1.2/src/core\inet_chksum.c ****  * Calculates the Internet checksum over a portion of memory. Used primarily for IP
 547:C:/Users/stapi/OneDrive/Desktop/GD32VW553/GD32VW55X_Wifi_BLE_SDK/GD32VW55x_RELEASE_V1.0.2/MSDK/lwip/lwip-2.1.2/src/core\inet_chksum.c ****  * and ICMP.
 548:C:/Users/stapi/OneDrive/Desktop/GD32VW553/GD32VW55X_Wifi_BLE_SDK/GD32VW55x_RELEASE_V1.0.2/MSDK/lwip/lwip-2.1.2/src/core\inet_chksum.c ****  *
 549:C:/Users/stapi/OneDrive/Desktop/GD32VW553/GD32VW55X_Wifi_BLE_SDK/GD32VW55x_RELEASE_V1.0.2/MSDK/lwip/lwip-2.1.2/src/core\inet_chksum.c ****  * @param dataptr start of the buffer to calculate the checksum (no alignment needed)
 550:C:/Users/stapi/OneDrive/Desktop/GD32VW553/GD32VW55X_Wifi_BLE_SDK/GD32VW55x_RELEASE_V1.0.2/MSDK/lwip/lwip-2.1.2/src/core\inet_chksum.c ****  * @param len length of the buffer to calculate the checksum
 551:C:/Users/stapi/OneDrive/Desktop/GD32VW553/GD32VW55X_Wifi_BLE_SDK/GD32VW55x_RELEASE_V1.0.2/MSDK/lwip/lwip-2.1.2/src/core\inet_chksum.c ****  * @return checksum (as u16_t) to be saved directly in the protocol header
 552:C:/Users/stapi/OneDrive/Desktop/GD32VW553/GD32VW55X_Wifi_BLE_SDK/GD32VW55x_RELEASE_V1.0.2/MSDK/lwip/lwip-2.1.2/src/core\inet_chksum.c ****  */
 553:C:/Users/stapi/OneDrive/Desktop/GD32VW553/GD32VW55X_Wifi_BLE_SDK/GD32VW55x_RELEASE_V1.0.2/MSDK/lwip/lwip-2.1.2/src/core\inet_chksum.c **** 
 554:C:/Users/stapi/OneDrive/Desktop/GD32VW553/GD32VW55X_Wifi_BLE_SDK/GD32VW55x_RELEASE_V1.0.2/MSDK/lwip/lwip-2.1.2/src/core\inet_chksum.c **** u16_t
 555:C:/Users/stapi/OneDrive/Desktop/GD32VW553/GD32VW55X_Wifi_BLE_SDK/GD32VW55x_RELEASE_V1.0.2/MSDK/lwip/lwip-2.1.2/src/core\inet_chksum.c **** inet_chksum(const void *dataptr, u16_t len)
 556:C:/Users/stapi/OneDrive/Desktop/GD32VW553/GD32VW55X_Wifi_BLE_SDK/GD32VW55x_RELEASE_V1.0.2/MSDK/lwip/lwip-2.1.2/src/core\inet_chksum.c **** {
 732              		.loc 1 556 1 is_stmt 1
 733              		.cfi_startproc
 734              	.LVL107:
 735 0000 17030000 		call	t0,__riscv_save_0
 735      E7020300 
 736              		.cfi_offset 1, -4
 737              		.cfi_def_cfa_offset 16
 557:C:/Users/stapi/OneDrive/Desktop/GD32VW553/GD32VW55X_Wifi_BLE_SDK/GD32VW55x_RELEASE_V1.0.2/MSDK/lwip/lwip-2.1.2/src/core\inet_chksum.c ****   return (u16_t)~(unsigned int)LWIP_CHKSUM(dataptr, len);
 738              		.loc 1 557 3
 739              		.loc 1 557 32 is_stmt 0
 740 0008 97000000 		call	wifi_ip_chksum
 740      E7800000 
 741              	.LVL108:
 742              		.loc 1 557 10
 743 0010 1345F5FF 		not	a0,a0
 558:C:/Users/stapi/OneDrive/Desktop/GD32VW553/GD32VW55X_Wifi_BLE_SDK/GD32VW55x_RELEASE_V1.0.2/MSDK/lwip/lwip-2.1.2/src/core\inet_chksum.c **** }
 744              		.loc 1 558 1
 745 0014 33450508 		zext.h	a0,a0
 746 0018 17030000 		tail	__riscv_restore_0
 746      67000300 
 747              		.cfi_restore 1
 748              		.cfi_def_cfa_offset 0
 749              		.cfi_endproc
 750              	.LFE11:
 752              		.section	.text.inet_chksum_pbuf,"ax",@progbits
 753              		.align	1
 754              		.globl	inet_chksum_pbuf
 756              	inet_chksum_pbuf:
 757              	.LFB12:
 559:C:/Users/stapi/OneDrive/Desktop/GD32VW553/GD32VW55X_Wifi_BLE_SDK/GD32VW55x_RELEASE_V1.0.2/MSDK/lwip/lwip-2.1.2/src/core\inet_chksum.c **** 
 560:C:/Users/stapi/OneDrive/Desktop/GD32VW553/GD32VW55X_Wifi_BLE_SDK/GD32VW55x_RELEASE_V1.0.2/MSDK/lwip/lwip-2.1.2/src/core\inet_chksum.c **** /**
 561:C:/Users/stapi/OneDrive/Desktop/GD32VW553/GD32VW55X_Wifi_BLE_SDK/GD32VW55x_RELEASE_V1.0.2/MSDK/lwip/lwip-2.1.2/src/core\inet_chksum.c ****  * Calculate a checksum over a chain of pbufs (without pseudo-header, much like
 562:C:/Users/stapi/OneDrive/Desktop/GD32VW553/GD32VW55X_Wifi_BLE_SDK/GD32VW55x_RELEASE_V1.0.2/MSDK/lwip/lwip-2.1.2/src/core\inet_chksum.c ****  * inet_chksum only pbufs are used).
 563:C:/Users/stapi/OneDrive/Desktop/GD32VW553/GD32VW55X_Wifi_BLE_SDK/GD32VW55x_RELEASE_V1.0.2/MSDK/lwip/lwip-2.1.2/src/core\inet_chksum.c ****  *
 564:C:/Users/stapi/OneDrive/Desktop/GD32VW553/GD32VW55X_Wifi_BLE_SDK/GD32VW55x_RELEASE_V1.0.2/MSDK/lwip/lwip-2.1.2/src/core\inet_chksum.c ****  * @param p pbuf chain over that the checksum should be calculated
 565:C:/Users/stapi/OneDrive/Desktop/GD32VW553/GD32VW55X_Wifi_BLE_SDK/GD32VW55x_RELEASE_V1.0.2/MSDK/lwip/lwip-2.1.2/src/core\inet_chksum.c ****  * @return checksum (as u16_t) to be saved directly in the protocol header
 566:C:/Users/stapi/OneDrive/Desktop/GD32VW553/GD32VW55X_Wifi_BLE_SDK/GD32VW55x_RELEASE_V1.0.2/MSDK/lwip/lwip-2.1.2/src/core\inet_chksum.c ****  */
 567:C:/Users/stapi/OneDrive/Desktop/GD32VW553/GD32VW55X_Wifi_BLE_SDK/GD32VW55x_RELEASE_V1.0.2/MSDK/lwip/lwip-2.1.2/src/core\inet_chksum.c **** u16_t
 568:C:/Users/stapi/OneDrive/Desktop/GD32VW553/GD32VW55X_Wifi_BLE_SDK/GD32VW55x_RELEASE_V1.0.2/MSDK/lwip/lwip-2.1.2/src/core\inet_chksum.c **** inet_chksum_pbuf(struct pbuf *p)
 569:C:/Users/stapi/OneDrive/Desktop/GD32VW553/GD32VW55X_Wifi_BLE_SDK/GD32VW55x_RELEASE_V1.0.2/MSDK/lwip/lwip-2.1.2/src/core\inet_chksum.c **** {
 758              		.loc 1 569 1 is_stmt 1
 759              		.cfi_startproc
 760              	.LVL109:
 761 0000 17030000 		call	t0,__riscv_save_4
 761      E7020300 
 762              		.cfi_offset 19, -20
 763              		.cfi_offset 18, -16
 764              		.cfi_offset 9, -12
 765              		.cfi_offset 8, -8
 766              		.cfi_offset 1, -4
 767              		.cfi_def_cfa_offset 32
 570:C:/Users/stapi/OneDrive/Desktop/GD32VW553/GD32VW55X_Wifi_BLE_SDK/GD32VW55x_RELEASE_V1.0.2/MSDK/lwip/lwip-2.1.2/src/core\inet_chksum.c ****   u32_t acc;
 768              		.loc 1 570 3
 571:C:/Users/stapi/OneDrive/Desktop/GD32VW553/GD32VW55X_Wifi_BLE_SDK/GD32VW55x_RELEASE_V1.0.2/MSDK/lwip/lwip-2.1.2/src/core\inet_chksum.c ****   struct pbuf *q;
 769              		.loc 1 571 3
 572:C:/Users/stapi/OneDrive/Desktop/GD32VW553/GD32VW55X_Wifi_BLE_SDK/GD32VW55x_RELEASE_V1.0.2/MSDK/lwip/lwip-2.1.2/src/core\inet_chksum.c ****   int swapped = 0;
 770              		.loc 1 572 3
 771              	.LVL110:
 573:C:/Users/stapi/OneDrive/Desktop/GD32VW553/GD32VW55X_Wifi_BLE_SDK/GD32VW55x_RELEASE_V1.0.2/MSDK/lwip/lwip-2.1.2/src/core\inet_chksum.c **** 
 574:C:/Users/stapi/OneDrive/Desktop/GD32VW553/GD32VW55X_Wifi_BLE_SDK/GD32VW55x_RELEASE_V1.0.2/MSDK/lwip/lwip-2.1.2/src/core\inet_chksum.c ****   acc = 0;
 772              		.loc 1 574 3
 575:C:/Users/stapi/OneDrive/Desktop/GD32VW553/GD32VW55X_Wifi_BLE_SDK/GD32VW55x_RELEASE_V1.0.2/MSDK/lwip/lwip-2.1.2/src/core\inet_chksum.c ****   for (q = p; q != NULL; q = q->next) {
 773              		.loc 1 575 3
 576:C:/Users/stapi/OneDrive/Desktop/GD32VW553/GD32VW55X_Wifi_BLE_SDK/GD32VW55x_RELEASE_V1.0.2/MSDK/lwip/lwip-2.1.2/src/core\inet_chksum.c ****     acc += LWIP_CHKSUM(q->payload, q->len);
 577:C:/Users/stapi/OneDrive/Desktop/GD32VW553/GD32VW55X_Wifi_BLE_SDK/GD32VW55x_RELEASE_V1.0.2/MSDK/lwip/lwip-2.1.2/src/core\inet_chksum.c ****     acc = FOLD_U32T(acc);
 774              		.loc 1 577 11 is_stmt 0
 775 0008 4169     		li	s2,65536
 569:C:/Users/stapi/OneDrive/Desktop/GD32VW553/GD32VW55X_Wifi_BLE_SDK/GD32VW55x_RELEASE_V1.0.2/MSDK/lwip/lwip-2.1.2/src/core\inet_chksum.c ****   u32_t acc;
 776              		.loc 1 569 1
 777 000a AA84     		mv	s1,a0
 778              	.LVL111:
 572:C:/Users/stapi/OneDrive/Desktop/GD32VW553/GD32VW55X_Wifi_BLE_SDK/GD32VW55x_RELEASE_V1.0.2/MSDK/lwip/lwip-2.1.2/src/core\inet_chksum.c **** 
 779              		.loc 1 572 7
 780 000c 8149     		li	s3,0
 574:C:/Users/stapi/OneDrive/Desktop/GD32VW553/GD32VW55X_Wifi_BLE_SDK/GD32VW55x_RELEASE_V1.0.2/MSDK/lwip/lwip-2.1.2/src/core\inet_chksum.c ****   for (q = p; q != NULL; q = q->next) {
 781              		.loc 1 574 7
 782 000e 0144     		li	s0,0
 783              		.loc 1 577 11
 784 0010 7D19     		addi	s2,s2,-1
 785              	.LVL112:
 786              	.L56:
 575:C:/Users/stapi/OneDrive/Desktop/GD32VW553/GD32VW55X_Wifi_BLE_SDK/GD32VW55x_RELEASE_V1.0.2/MSDK/lwip/lwip-2.1.2/src/core\inet_chksum.c ****     acc += LWIP_CHKSUM(q->payload, q->len);
 787              		.loc 1 575 15 is_stmt 1 discriminator 1
 575:C:/Users/stapi/OneDrive/Desktop/GD32VW553/GD32VW55X_Wifi_BLE_SDK/GD32VW55x_RELEASE_V1.0.2/MSDK/lwip/lwip-2.1.2/src/core\inet_chksum.c ****     acc += LWIP_CHKSUM(q->payload, q->len);
 788              		.loc 1 575 3 is_stmt 0 discriminator 1
 789 0012 85E4     		bne	s1,zero,.L58
 578:C:/Users/stapi/OneDrive/Desktop/GD32VW553/GD32VW55X_Wifi_BLE_SDK/GD32VW55x_RELEASE_V1.0.2/MSDK/lwip/lwip-2.1.2/src/core\inet_chksum.c ****     if (q->len % 2 != 0) {
 579:C:/Users/stapi/OneDrive/Desktop/GD32VW553/GD32VW55X_Wifi_BLE_SDK/GD32VW55x_RELEASE_V1.0.2/MSDK/lwip/lwip-2.1.2/src/core\inet_chksum.c ****       swapped = !swapped;
 580:C:/Users/stapi/OneDrive/Desktop/GD32VW553/GD32VW55X_Wifi_BLE_SDK/GD32VW55x_RELEASE_V1.0.2/MSDK/lwip/lwip-2.1.2/src/core\inet_chksum.c ****       acc = SWAP_BYTES_IN_WORD(acc);
 581:C:/Users/stapi/OneDrive/Desktop/GD32VW553/GD32VW55X_Wifi_BLE_SDK/GD32VW55x_RELEASE_V1.0.2/MSDK/lwip/lwip-2.1.2/src/core\inet_chksum.c ****     }
 582:C:/Users/stapi/OneDrive/Desktop/GD32VW553/GD32VW55X_Wifi_BLE_SDK/GD32VW55x_RELEASE_V1.0.2/MSDK/lwip/lwip-2.1.2/src/core\inet_chksum.c ****   }
 583:C:/Users/stapi/OneDrive/Desktop/GD32VW553/GD32VW55X_Wifi_BLE_SDK/GD32VW55x_RELEASE_V1.0.2/MSDK/lwip/lwip-2.1.2/src/core\inet_chksum.c **** 
 584:C:/Users/stapi/OneDrive/Desktop/GD32VW553/GD32VW55X_Wifi_BLE_SDK/GD32VW55x_RELEASE_V1.0.2/MSDK/lwip/lwip-2.1.2/src/core\inet_chksum.c ****   if (swapped) {
 790              		.loc 1 584 3 is_stmt 1
 791              		.loc 1 584 6 is_stmt 0
 792 0014 638B0900 		beq	s3,zero,.L59
 585:C:/Users/stapi/OneDrive/Desktop/GD32VW553/GD32VW55X_Wifi_BLE_SDK/GD32VW55x_RELEASE_V1.0.2/MSDK/lwip/lwip-2.1.2/src/core\inet_chksum.c ****     acc = SWAP_BYTES_IN_WORD(acc);
 793              		.loc 1 585 5 is_stmt 1
 794              		.loc 1 585 11 is_stmt 0
 795 0018 4167     		li	a4,65536
 796 001a 93178400 		slli	a5,s0,8
 797 001e 7D17     		addi	a4,a4,-1
 798 0020 2180     		srli	s0,s0,8
 799              	.LVL113:
 800 0022 F98F     		and	a5,a5,a4
 801 0024 1374F40F 		andi	s0,s0,255
 802              		.loc 1 585 9
 803 0028 5D8C     		or	s0,a5,s0
 804              	.LVL114:
 805              	.L59:
 586:C:/Users/stapi/OneDrive/Desktop/GD32VW553/GD32VW55X_Wifi_BLE_SDK/GD32VW55x_RELEASE_V1.0.2/MSDK/lwip/lwip-2.1.2/src/core\inet_chksum.c ****   }
 587:C:/Users/stapi/OneDrive/Desktop/GD32VW553/GD32VW55X_Wifi_BLE_SDK/GD32VW55x_RELEASE_V1.0.2/MSDK/lwip/lwip-2.1.2/src/core\inet_chksum.c ****   return (u16_t)~(acc & 0xffffUL);
 806              		.loc 1 587 3 is_stmt 1
 807              		.loc 1 587 10 is_stmt 0
 808 002a 1345F4FF 		not	a0,s0
 588:C:/Users/stapi/OneDrive/Desktop/GD32VW553/GD32VW55X_Wifi_BLE_SDK/GD32VW55x_RELEASE_V1.0.2/MSDK/lwip/lwip-2.1.2/src/core\inet_chksum.c **** }
 809              		.loc 1 588 1
 810 002e 33450508 		zext.h	a0,a0
 811 0032 17030000 		tail	__riscv_restore_4
 811      67000300 
 812              		.cfi_remember_state
 813              		.cfi_restore 19
 814              		.cfi_restore 18
 815              		.cfi_restore 9
 816              		.cfi_restore 8
 817              		.cfi_restore 1
 818              		.cfi_def_cfa_offset 0
 819              	.L58:
 820              		.cfi_restore_state
 576:C:/Users/stapi/OneDrive/Desktop/GD32VW553/GD32VW55X_Wifi_BLE_SDK/GD32VW55x_RELEASE_V1.0.2/MSDK/lwip/lwip-2.1.2/src/core\inet_chksum.c ****     acc = FOLD_U32T(acc);
 821              		.loc 1 576 5 is_stmt 1
 576:C:/Users/stapi/OneDrive/Desktop/GD32VW553/GD32VW55X_Wifi_BLE_SDK/GD32VW55x_RELEASE_V1.0.2/MSDK/lwip/lwip-2.1.2/src/core\inet_chksum.c ****     acc = FOLD_U32T(acc);
 822              		.loc 1 576 12 is_stmt 0
 823 003a 83D5A400 		lhu	a1,10(s1)
 824 003e C840     		lw	a0,4(s1)
 825 0040 97000000 		call	wifi_ip_chksum
 825      E7800000 
 826              	.LVL115:
 576:C:/Users/stapi/OneDrive/Desktop/GD32VW553/GD32VW55X_Wifi_BLE_SDK/GD32VW55x_RELEASE_V1.0.2/MSDK/lwip/lwip-2.1.2/src/core\inet_chksum.c ****     acc = FOLD_U32T(acc);
 827              		.loc 1 576 9
 828 0048 2A94     		add	s0,a0,s0
 829              	.LVL116:
 577:C:/Users/stapi/OneDrive/Desktop/GD32VW553/GD32VW55X_Wifi_BLE_SDK/GD32VW55x_RELEASE_V1.0.2/MSDK/lwip/lwip-2.1.2/src/core\inet_chksum.c ****     if (q->len % 2 != 0) {
 830              		.loc 1 577 5 is_stmt 1
 577:C:/Users/stapi/OneDrive/Desktop/GD32VW553/GD32VW55X_Wifi_BLE_SDK/GD32VW55x_RELEASE_V1.0.2/MSDK/lwip/lwip-2.1.2/src/core\inet_chksum.c ****     if (q->len % 2 != 0) {
 831              		.loc 1 577 11 is_stmt 0
 832 004a 93570401 		srli	a5,s0,16
 833 004e 33742401 		and	s0,s0,s2
 834              	.LVL117:
 577:C:/Users/stapi/OneDrive/Desktop/GD32VW553/GD32VW55X_Wifi_BLE_SDK/GD32VW55x_RELEASE_V1.0.2/MSDK/lwip/lwip-2.1.2/src/core\inet_chksum.c ****     if (q->len % 2 != 0) {
 835              		.loc 1 577 9
 836 0052 3E94     		add	s0,a5,s0
 837              	.LVL118:
 578:C:/Users/stapi/OneDrive/Desktop/GD32VW553/GD32VW55X_Wifi_BLE_SDK/GD32VW55x_RELEASE_V1.0.2/MSDK/lwip/lwip-2.1.2/src/core\inet_chksum.c ****       swapped = !swapped;
 838              		.loc 1 578 5 is_stmt 1
 578:C:/Users/stapi/OneDrive/Desktop/GD32VW553/GD32VW55X_Wifi_BLE_SDK/GD32VW55x_RELEASE_V1.0.2/MSDK/lwip/lwip-2.1.2/src/core\inet_chksum.c ****       swapped = !swapped;
 839              		.loc 1 578 20 is_stmt 0
 840 0054 83D7A400 		lhu	a5,10(s1)
 578:C:/Users/stapi/OneDrive/Desktop/GD32VW553/GD32VW55X_Wifi_BLE_SDK/GD32VW55x_RELEASE_V1.0.2/MSDK/lwip/lwip-2.1.2/src/core\inet_chksum.c ****       swapped = !swapped;
 841              		.loc 1 578 8
 842 0058 858B     		andi	a5,a5,1
 843 005a 99CB     		beq	a5,zero,.L57
 579:C:/Users/stapi/OneDrive/Desktop/GD32VW553/GD32VW55X_Wifi_BLE_SDK/GD32VW55x_RELEASE_V1.0.2/MSDK/lwip/lwip-2.1.2/src/core\inet_chksum.c ****       acc = SWAP_BYTES_IN_WORD(acc);
 844              		.loc 1 579 7 is_stmt 1
 580:C:/Users/stapi/OneDrive/Desktop/GD32VW553/GD32VW55X_Wifi_BLE_SDK/GD32VW55x_RELEASE_V1.0.2/MSDK/lwip/lwip-2.1.2/src/core\inet_chksum.c ****     }
 845              		.loc 1 580 13 is_stmt 0
 846 005c 93178400 		slli	a5,s0,8
 847 0060 2180     		srli	s0,s0,8
 848              	.LVL119:
 849 0062 B3F72701 		and	a5,a5,s2
 850 0066 1374F40F 		andi	s0,s0,255
 851 006a 93C91900 		xori	s3,s3,1
 852              	.LVL120:
 580:C:/Users/stapi/OneDrive/Desktop/GD32VW553/GD32VW55X_Wifi_BLE_SDK/GD32VW55x_RELEASE_V1.0.2/MSDK/lwip/lwip-2.1.2/src/core\inet_chksum.c ****     }
 853              		.loc 1 580 7 is_stmt 1
 580:C:/Users/stapi/OneDrive/Desktop/GD32VW553/GD32VW55X_Wifi_BLE_SDK/GD32VW55x_RELEASE_V1.0.2/MSDK/lwip/lwip-2.1.2/src/core\inet_chksum.c ****     }
 854              		.loc 1 580 11 is_stmt 0
 855 006e 5D8C     		or	s0,a5,s0
 856              	.LVL121:
 857              	.L57:
 575:C:/Users/stapi/OneDrive/Desktop/GD32VW553/GD32VW55X_Wifi_BLE_SDK/GD32VW55x_RELEASE_V1.0.2/MSDK/lwip/lwip-2.1.2/src/core\inet_chksum.c ****     acc += LWIP_CHKSUM(q->payload, q->len);
 858              		.loc 1 575 26 is_stmt 1 discriminator 2
 575:C:/Users/stapi/OneDrive/Desktop/GD32VW553/GD32VW55X_Wifi_BLE_SDK/GD32VW55x_RELEASE_V1.0.2/MSDK/lwip/lwip-2.1.2/src/core\inet_chksum.c ****     acc += LWIP_CHKSUM(q->payload, q->len);
 859              		.loc 1 575 28 is_stmt 0 discriminator 2
 860 0070 8440     		lw	s1,0(s1)
 861              	.LVL122:
 862 0072 45B7     		j	.L56
 863              		.cfi_endproc
 864              	.LFE12:
 866              		.text
 867              	.Letext0:
 868              		.file 2 "c:\\users\\stapi\\onedrive\\desktop\\gd32vw553\\embeddedbuilder_v1.4.7.26843\\tools\\nucl
 869              		.file 3 "c:\\users\\stapi\\onedrive\\desktop\\gd32vw553\\embeddedbuilder_v1.4.7.26843\\tools\\nucl
 870              		.file 4 "..\\..\\..\\..\\lwip\\lwip-2.1.2\\src\\include/lwip/arch.h"
 871              		.file 5 "..\\..\\..\\..\\lwip\\lwip-2.1.2\\src\\include/lwip/pbuf.h"
 872              		.file 6 "..\\..\\..\\..\\lwip\\lwip-2.1.2\\src\\include/lwip/ip4_addr.h"
 873              		.file 7 "..\\..\\..\\..\\lwip\\lwip-2.1.2\\src\\include/lwip/ip_addr.h"
 874              		.file 8 "..\\..\\..\\..\\lwip\\lwip-2.1.2\\port/lwipopts.h"
 875              		.file 9 "..\\..\\..\\..\\lwip\\lwip-2.1.2\\src\\include/lwip/def.h"
 876              		.file 10 "c:\\users\\stapi\\onedrive\\desktop\\gd32vw553\\embeddedbuilder_v1.4.7.26843\\tools\\nuc
DEFINED SYMBOLS
                            *ABS*:0000000000000000 inet_chksum.c
C:\Users\stapi\AppData\Local\Temp\cclCogob.s:13     .text.lwip_standard_chksum:0000000000000000 lwip_standard_chksum
C:\Users\stapi\AppData\Local\Temp\cclCogob.s:17     .text.lwip_standard_chksum:0000000000000000 .L0 
C:\Users\stapi\AppData\Local\Temp\cclCogob.s:19     .text.lwip_standard_chksum:0000000000000000 .L0 
C:\Users\stapi\AppData\Local\Temp\cclCogob.s:20     .text.lwip_standard_chksum:0000000000000000 .L0 
C:\Users\stapi\AppData\Local\Temp\cclCogob.s:21     .text.lwip_standard_chksum:0000000000000000 .L0 
C:\Users\stapi\AppData\Local\Temp\cclCogob.s:22     .text.lwip_standard_chksum:0000000000000000 .L0 
C:\Users\stapi\AppData\Local\Temp\cclCogob.s:23     .text.lwip_standard_chksum:0000000000000000 .L0 
C:\Users\stapi\AppData\Local\Temp\cclCogob.s:24     .text.lwip_standard_chksum:0000000000000002 .L0 
C:\Users\stapi\AppData\Local\Temp\cclCogob.s:26     .text.lwip_standard_chksum:0000000000000002 .L0 
C:\Users\stapi\AppData\Local\Temp\cclCogob.s:28     .text.lwip_standard_chksum:0000000000000006 .L0 
C:\Users\stapi\AppData\Local\Temp\cclCogob.s:30     .text.lwip_standard_chksum:0000000000000006 .L0 
C:\Users\stapi\AppData\Local\Temp\cclCogob.s:31     .text.lwip_standard_chksum:0000000000000006 .L0 
C:\Users\stapi\AppData\Local\Temp\cclCogob.s:32     .text.lwip_standard_chksum:0000000000000006 .L0 
C:\Users\stapi\AppData\Local\Temp\cclCogob.s:35     .text.lwip_standard_chksum:000000000000000a .L0 
C:\Users\stapi\AppData\Local\Temp\cclCogob.s:36     .text.lwip_standard_chksum:000000000000000a .L0 
C:\Users\stapi\AppData\Local\Temp\cclCogob.s:38     .text.lwip_standard_chksum:000000000000000c .L0 
C:\Users\stapi\AppData\Local\Temp\cclCogob.s:41     .text.lwip_standard_chksum:0000000000000010 .L0 
C:\Users\stapi\AppData\Local\Temp\cclCogob.s:42     .text.lwip_standard_chksum:0000000000000010 .L0 
C:\Users\stapi\AppData\Local\Temp\cclCogob.s:44     .text.lwip_standard_chksum:0000000000000014 .L0 
C:\Users\stapi\AppData\Local\Temp\cclCogob.s:47     .text.lwip_standard_chksum:0000000000000016 .L0 
C:\Users\stapi\AppData\Local\Temp\cclCogob.s:50     .text.lwip_standard_chksum:0000000000000018 .L0 
C:\Users\stapi\AppData\Local\Temp\cclCogob.s:54     .text.lwip_standard_chksum:000000000000001c .L0 
C:\Users\stapi\AppData\Local\Temp\cclCogob.s:55     .text.lwip_standard_chksum:000000000000001c .L0 
C:\Users\stapi\AppData\Local\Temp\cclCogob.s:56     .text.lwip_standard_chksum:000000000000001c .L0 
C:\Users\stapi\AppData\Local\Temp\cclCogob.s:57     .text.lwip_standard_chksum:000000000000001c .L0 
C:\Users\stapi\AppData\Local\Temp\cclCogob.s:59     .text.lwip_standard_chksum:0000000000000020 .L0 
C:\Users\stapi\AppData\Local\Temp\cclCogob.s:61     .text.lwip_standard_chksum:0000000000000022 .L0 
C:\Users\stapi\AppData\Local\Temp\cclCogob.s:63     .text.lwip_standard_chksum:0000000000000024 .L0 
C:\Users\stapi\AppData\Local\Temp\cclCogob.s:65     .text.lwip_standard_chksum:0000000000000026 .L0 
C:\Users\stapi\AppData\Local\Temp\cclCogob.s:68     .text.lwip_standard_chksum:000000000000002a .L0 
C:\Users\stapi\AppData\Local\Temp\cclCogob.s:69     .text.lwip_standard_chksum:000000000000002a .L0 
C:\Users\stapi\AppData\Local\Temp\cclCogob.s:72     .text.lwip_standard_chksum:000000000000002e .L0 
C:\Users\stapi\AppData\Local\Temp\cclCogob.s:73     .text.lwip_standard_chksum:000000000000002e .L0 
C:\Users\stapi\AppData\Local\Temp\cclCogob.s:76     .text.lwip_standard_chksum:0000000000000030 .L0 
C:\Users\stapi\AppData\Local\Temp\cclCogob.s:80     .text.lwip_standard_chksum:0000000000000032 .L0 
C:\Users\stapi\AppData\Local\Temp\cclCogob.s:84     .text.lwip_standard_chksum:0000000000000034 .L0 
C:\Users\stapi\AppData\Local\Temp\cclCogob.s:86     .text.lwip_standard_chksum:0000000000000038 .L0 
C:\Users\stapi\AppData\Local\Temp\cclCogob.s:87     .text.lwip_standard_chksum:0000000000000038 .L0 
C:\Users\stapi\AppData\Local\Temp\cclCogob.s:91     .text.lwip_standard_chksum:0000000000000040 .L0 
C:\Users\stapi\AppData\Local\Temp\cclCogob.s:94     .text.lwip_standard_chksum:0000000000000042 .L0 
C:\Users\stapi\AppData\Local\Temp\cclCogob.s:95     .text.lwip_standard_chksum:0000000000000042 .L0 
C:\Users\stapi\AppData\Local\Temp\cclCogob.s:96     .text.lwip_standard_chksum:0000000000000042 .L0 
C:\Users\stapi\AppData\Local\Temp\cclCogob.s:100    .text.lwip_standard_chksum:0000000000000044 .L0 
C:\Users\stapi\AppData\Local\Temp\cclCogob.s:102    .text.lwip_standard_chksum:0000000000000048 .L0 
C:\Users\stapi\AppData\Local\Temp\cclCogob.s:103    .text.lwip_standard_chksum:0000000000000048 .L0 
C:\Users\stapi\AppData\Local\Temp\cclCogob.s:105    .text.lwip_standard_chksum:000000000000004c .L0 
C:\Users\stapi\AppData\Local\Temp\cclCogob.s:106    .text.lwip_standard_chksum:000000000000004c .L0 
C:\Users\stapi\AppData\Local\Temp\cclCogob.s:110    .text.lwip_standard_chksum:0000000000000054 .L0 
C:\Users\stapi\AppData\Local\Temp\cclCogob.s:111    .text.lwip_standard_chksum:0000000000000054 .L0 
C:\Users\stapi\AppData\Local\Temp\cclCogob.s:114    .text.lwip_standard_chksum:0000000000000058 .L0 
C:\Users\stapi\AppData\Local\Temp\cclCogob.s:117    .text.lwip_standard_chksum:000000000000005c .L0 
C:\Users\stapi\AppData\Local\Temp\cclCogob.s:120    .text.lwip_standard_chksum:000000000000005e .L0 
C:\Users\stapi\AppData\Local\Temp\cclCogob.s:121    .text.lwip_standard_chksum:000000000000005e .L0 
C:\Users\stapi\AppData\Local\Temp\cclCogob.s:125    .text.lwip_standard_chksum:0000000000000064 .L0 
C:\Users\stapi\AppData\Local\Temp\cclCogob.s:128    .text.lwip_standard_chksum:0000000000000066 .L0 
C:\Users\stapi\AppData\Local\Temp\cclCogob.s:129    .text.lwip_standard_chksum:0000000000000066 .L0 
C:\Users\stapi\AppData\Local\Temp\cclCogob.s:133    .text.lwip_standard_chksum:000000000000006c .L0 
C:\Users\stapi\AppData\Local\Temp\cclCogob.s:136    .text.lwip_standard_chksum:000000000000006e .L0 
C:\Users\stapi\AppData\Local\Temp\cclCogob.s:137    .text.lwip_standard_chksum:000000000000006e .L0 
C:\Users\stapi\AppData\Local\Temp\cclCogob.s:139    .text.lwip_standard_chksum:0000000000000070 .L0 
C:\Users\stapi\AppData\Local\Temp\cclCogob.s:140    .text.lwip_standard_chksum:0000000000000070 .L0 
C:\Users\stapi\AppData\Local\Temp\cclCogob.s:146    .text.lwip_standard_chksum:000000000000007c .L0 
C:\Users\stapi\AppData\Local\Temp\cclCogob.s:150    .text.lwip_standard_chksum:000000000000007e .L0 
C:\Users\stapi\AppData\Local\Temp\cclCogob.s:151    .text.lwip_standard_chksum:000000000000007e .L0 
C:\Users\stapi\AppData\Local\Temp\cclCogob.s:154    .text.lwip_standard_chksum:0000000000000084 .L0 
C:\Users\stapi\AppData\Local\Temp\cclCogob.s:155    .text.lwip_standard_chksum:0000000000000084 .L0 
C:\Users\stapi\AppData\Local\Temp\cclCogob.s:159    .text.lwip_standard_chksum:0000000000000086 .L0 
C:\Users\stapi\AppData\Local\Temp\cclCogob.s:161    .text.lwip_standard_chksum:0000000000000086 .L0 
C:\Users\stapi\AppData\Local\Temp\cclCogob.s:162    .text.lwip_standard_chksum:0000000000000086 .L0 
C:\Users\stapi\AppData\Local\Temp\cclCogob.s:166    .text.lwip_standard_chksum:000000000000008a .L0 
C:\Users\stapi\AppData\Local\Temp\cclCogob.s:167    .text.lwip_standard_chksum:000000000000008a .L0 
C:\Users\stapi\AppData\Local\Temp\cclCogob.s:169    .text.lwip_standard_chksum:000000000000008e .L0 
C:\Users\stapi\AppData\Local\Temp\cclCogob.s:170    .text.lwip_standard_chksum:000000000000008e .L0 
C:\Users\stapi\AppData\Local\Temp\cclCogob.s:174    .text.lwip_standard_chksum:0000000000000090 .L0 
C:\Users\stapi\AppData\Local\Temp\cclCogob.s:175    .text.lwip_standard_chksum:0000000000000090 .L0 
C:\Users\stapi\AppData\Local\Temp\cclCogob.s:182    .text.lwip_standard_chksum:0000000000000096 .L0 
C:\Users\stapi\AppData\Local\Temp\cclCogob.s:183    .text.lwip_standard_chksum:0000000000000096 .L0 
C:\Users\stapi\AppData\Local\Temp\cclCogob.s:185    .text.lwip_standard_chksum:000000000000009a .L0 
C:\Users\stapi\AppData\Local\Temp\cclCogob.s:186    .text.lwip_standard_chksum:000000000000009a .L0 
C:\Users\stapi\AppData\Local\Temp\cclCogob.s:190    .text.lwip_standard_chksum:000000000000009c .L0 
C:\Users\stapi\AppData\Local\Temp\cclCogob.s:191    .text.lwip_standard_chksum:000000000000009c .L0 
C:\Users\stapi\AppData\Local\Temp\cclCogob.s:197    .text.lwip_standard_chksum:00000000000000a0 .L0 
C:\Users\stapi\AppData\Local\Temp\cclCogob.s:198    .text.lwip_standard_chksum:00000000000000a0 .L0 
C:\Users\stapi\AppData\Local\Temp\cclCogob.s:200    .text.lwip_standard_chksum:00000000000000a4 .L0 
C:\Users\stapi\AppData\Local\Temp\cclCogob.s:203    .text.lwip_standard_chksum:00000000000000a6 .L0 
C:\Users\stapi\AppData\Local\Temp\cclCogob.s:206    .text.lwip_standard_chksum:00000000000000a8 .L0 
C:\Users\stapi\AppData\Local\Temp\cclCogob.s:209    .text.lwip_standard_chksum:00000000000000aa .L0 
C:\Users\stapi\AppData\Local\Temp\cclCogob.s:210    .text.lwip_standard_chksum:00000000000000ac .L0 
C:\Users\stapi\AppData\Local\Temp\cclCogob.s:217    .text.inet_chksum_pseudo:0000000000000000 inet_chksum_pseudo
C:\Users\stapi\AppData\Local\Temp\cclCogob.s:220    .text.inet_chksum_pseudo:0000000000000000 .L0 
C:\Users\stapi\AppData\Local\Temp\cclCogob.s:222    .text.inet_chksum_pseudo:0000000000000000 .L0 
C:\Users\stapi\AppData\Local\Temp\cclCogob.s:223    .text.inet_chksum_pseudo:0000000000000008 .L0 
C:\Users\stapi\AppData\Local\Temp\cclCogob.s:224    .text.inet_chksum_pseudo:0000000000000008 .L0 
C:\Users\stapi\AppData\Local\Temp\cclCogob.s:225    .text.inet_chksum_pseudo:0000000000000008 .L0 
C:\Users\stapi\AppData\Local\Temp\cclCogob.s:226    .text.inet_chksum_pseudo:0000000000000008 .L0 
C:\Users\stapi\AppData\Local\Temp\cclCogob.s:227    .text.inet_chksum_pseudo:0000000000000008 .L0 
C:\Users\stapi\AppData\Local\Temp\cclCogob.s:228    .text.inet_chksum_pseudo:0000000000000008 .L0 
C:\Users\stapi\AppData\Local\Temp\cclCogob.s:229    .text.inet_chksum_pseudo:0000000000000008 .L0 
C:\Users\stapi\AppData\Local\Temp\cclCogob.s:230    .text.inet_chksum_pseudo:0000000000000008 .L0 
C:\Users\stapi\AppData\Local\Temp\cclCogob.s:232    .text.inet_chksum_pseudo:0000000000000008 .L0 
C:\Users\stapi\AppData\Local\Temp\cclCogob.s:233    .text.inet_chksum_pseudo:0000000000000008 .L0 
C:\Users\stapi\AppData\Local\Temp\cclCogob.s:234    .text.inet_chksum_pseudo:0000000000000008 .L0 
C:\Users\stapi\AppData\Local\Temp\cclCogob.s:235    .text.inet_chksum_pseudo:0000000000000008 .L0 
C:\Users\stapi\AppData\Local\Temp\cclCogob.s:238    .text.inet_chksum_pseudo:000000000000000a .L0 
C:\Users\stapi\AppData\Local\Temp\cclCogob.s:241    .text.inet_chksum_pseudo:000000000000000c .L0 
C:\Users\stapi\AppData\Local\Temp\cclCogob.s:242    .text.inet_chksum_pseudo:000000000000000c .L0 
C:\Users\stapi\AppData\Local\Temp\cclCogob.s:243    .text.inet_chksum_pseudo:000000000000000c .L0 
C:\Users\stapi\AppData\Local\Temp\cclCogob.s:244    .text.inet_chksum_pseudo:000000000000000c .L0 
C:\Users\stapi\AppData\Local\Temp\cclCogob.s:245    .text.inet_chksum_pseudo:000000000000000c .L0 
C:\Users\stapi\AppData\Local\Temp\cclCogob.s:246    .text.inet_chksum_pseudo:000000000000000c .L0 
C:\Users\stapi\AppData\Local\Temp\cclCogob.s:250    .text.inet_chksum_pseudo:0000000000000014 .L0 
C:\Users\stapi\AppData\Local\Temp\cclCogob.s:254    .text.inet_chksum_pseudo:0000000000000018 .L0 
C:\Users\stapi\AppData\Local\Temp\cclCogob.s:257    .text.inet_chksum_pseudo:000000000000001e .L0 
C:\Users\stapi\AppData\Local\Temp\cclCogob.s:260    .text.inet_chksum_pseudo:0000000000000020 .L0 
C:\Users\stapi\AppData\Local\Temp\cclCogob.s:263    .text.inet_chksum_pseudo:0000000000000022 .L0 
C:\Users\stapi\AppData\Local\Temp\cclCogob.s:264    .text.inet_chksum_pseudo:0000000000000022 .L0 
C:\Users\stapi\AppData\Local\Temp\cclCogob.s:268    .text.inet_chksum_pseudo:000000000000002a .L0 
C:\Users\stapi\AppData\Local\Temp\cclCogob.s:271    .text.inet_chksum_pseudo:000000000000002c .L0 
C:\Users\stapi\AppData\Local\Temp\cclCogob.s:272    .text.inet_chksum_pseudo:000000000000002c .L0 
C:\Users\stapi\AppData\Local\Temp\cclCogob.s:276    .text.inet_chksum_pseudo:0000000000000034 .L0 
C:\Users\stapi\AppData\Local\Temp\cclCogob.s:280    .text.inet_chksum_pseudo:000000000000003a .L0 
C:\Users\stapi\AppData\Local\Temp\cclCogob.s:285    .text.inet_chksum_pseudo:000000000000003c .L0 
C:\Users\stapi\AppData\Local\Temp\cclCogob.s:286    .text.inet_chksum_pseudo:000000000000003c .L0 
C:\Users\stapi\AppData\Local\Temp\cclCogob.s:287    .text.inet_chksum_pseudo:000000000000003c .L0 
C:\Users\stapi\AppData\Local\Temp\cclCogob.s:288    .text.inet_chksum_pseudo:000000000000003c .L0 
C:\Users\stapi\AppData\Local\Temp\cclCogob.s:289    .text.inet_chksum_pseudo:000000000000003c .L0 
C:\Users\stapi\AppData\Local\Temp\cclCogob.s:293    .text.inet_chksum_pseudo:000000000000003e .L0 
C:\Users\stapi\AppData\Local\Temp\cclCogob.s:294    .text.inet_chksum_pseudo:000000000000003e .L0 
C:\Users\stapi\AppData\Local\Temp\cclCogob.s:296    .text.inet_chksum_pseudo:0000000000000040 .L0 
C:\Users\stapi\AppData\Local\Temp\cclCogob.s:297    .text.inet_chksum_pseudo:0000000000000040 .L0 
C:\Users\stapi\AppData\Local\Temp\cclCogob.s:299    .text.inet_chksum_pseudo:0000000000000044 .L0 
C:\Users\stapi\AppData\Local\Temp\cclCogob.s:300    .text.inet_chksum_pseudo:0000000000000044 .L0 
C:\Users\stapi\AppData\Local\Temp\cclCogob.s:308    .text.inet_chksum_pseudo:0000000000000054 .L0 
C:\Users\stapi\AppData\Local\Temp\cclCogob.s:312    .text.inet_chksum_pseudo:0000000000000056 .L0 
C:\Users\stapi\AppData\Local\Temp\cclCogob.s:313    .text.inet_chksum_pseudo:0000000000000056 .L0 
C:\Users\stapi\AppData\Local\Temp\cclCogob.s:319    .text.inet_chksum_pseudo:0000000000000062 .L0 
C:\Users\stapi\AppData\Local\Temp\cclCogob.s:320    .text.inet_chksum_pseudo:0000000000000062 .L0 
C:\Users\stapi\AppData\Local\Temp\cclCogob.s:324    .text.inet_chksum_pseudo:000000000000006c .L0 
C:\Users\stapi\AppData\Local\Temp\cclCogob.s:327    .text.inet_chksum_pseudo:000000000000006e .L0 
C:\Users\stapi\AppData\Local\Temp\cclCogob.s:329    .text.inet_chksum_pseudo:0000000000000070 .L0 
C:\Users\stapi\AppData\Local\Temp\cclCogob.s:332    .text.inet_chksum_pseudo:0000000000000072 .L0 
C:\Users\stapi\AppData\Local\Temp\cclCogob.s:333    .text.inet_chksum_pseudo:0000000000000072 .L0 
C:\Users\stapi\AppData\Local\Temp\cclCogob.s:338    .text.inet_chksum_pseudo:000000000000007a .L0 
C:\Users\stapi\AppData\Local\Temp\cclCogob.s:341    .text.inet_chksum_pseudo:000000000000007c .L0 
C:\Users\stapi\AppData\Local\Temp\cclCogob.s:342    .text.inet_chksum_pseudo:000000000000007c .L0 
C:\Users\stapi\AppData\Local\Temp\cclCogob.s:346    .text.inet_chksum_pseudo:0000000000000082 .L0 
C:\Users\stapi\AppData\Local\Temp\cclCogob.s:347    .text.inet_chksum_pseudo:0000000000000082 .L0 
C:\Users\stapi\AppData\Local\Temp\cclCogob.s:348    .text.inet_chksum_pseudo:0000000000000082 .L0 
C:\Users\stapi\AppData\Local\Temp\cclCogob.s:350    .text.inet_chksum_pseudo:0000000000000084 .L0 
C:\Users\stapi\AppData\Local\Temp\cclCogob.s:354    .text.inet_chksum_pseudo:0000000000000088 .L0 
C:\Users\stapi\AppData\Local\Temp\cclCogob.s:356    .text.inet_chksum_pseudo:0000000000000094 .L0 
C:\Users\stapi\AppData\Local\Temp\cclCogob.s:357    .text.inet_chksum_pseudo:0000000000000094 .L0 
C:\Users\stapi\AppData\Local\Temp\cclCogob.s:358    .text.inet_chksum_pseudo:0000000000000094 .L0 
C:\Users\stapi\AppData\Local\Temp\cclCogob.s:359    .text.inet_chksum_pseudo:0000000000000094 .L0 
C:\Users\stapi\AppData\Local\Temp\cclCogob.s:360    .text.inet_chksum_pseudo:0000000000000094 .L0 
C:\Users\stapi\AppData\Local\Temp\cclCogob.s:361    .text.inet_chksum_pseudo:0000000000000094 .L0 
C:\Users\stapi\AppData\Local\Temp\cclCogob.s:362    .text.inet_chksum_pseudo:0000000000000094 .L0 
C:\Users\stapi\AppData\Local\Temp\cclCogob.s:363    .text.inet_chksum_pseudo:0000000000000094 .L0 
C:\Users\stapi\AppData\Local\Temp\cclCogob.s:364    .text.inet_chksum_pseudo:0000000000000094 .L0 
C:\Users\stapi\AppData\Local\Temp\cclCogob.s:367    .text.inet_chksum_pseudo:0000000000000094 .L0 
C:\Users\stapi\AppData\Local\Temp\cclCogob.s:371    .text.inet_chksum_pseudo:0000000000000094 .L0 
C:\Users\stapi\AppData\Local\Temp\cclCogob.s:372    .text.inet_chksum_pseudo:0000000000000094 .L0 
C:\Users\stapi\AppData\Local\Temp\cclCogob.s:373    .text.inet_chksum_pseudo:0000000000000094 .L0 
C:\Users\stapi\AppData\Local\Temp\cclCogob.s:378    .text.inet_chksum_pseudo:00000000000000a2 .L0 
C:\Users\stapi\AppData\Local\Temp\cclCogob.s:381    .text.inet_chksum_pseudo:00000000000000a4 .L0 
C:\Users\stapi\AppData\Local\Temp\cclCogob.s:382    .text.inet_chksum_pseudo:00000000000000a4 .L0 
C:\Users\stapi\AppData\Local\Temp\cclCogob.s:386    .text.inet_chksum_pseudo:00000000000000ac .L0 
C:\Users\stapi\AppData\Local\Temp\cclCogob.s:389    .text.inet_chksum_pseudo:00000000000000ae .L0 
C:\Users\stapi\AppData\Local\Temp\cclCogob.s:390    .text.inet_chksum_pseudo:00000000000000ae .L0 
C:\Users\stapi\AppData\Local\Temp\cclCogob.s:392    .text.inet_chksum_pseudo:00000000000000b2 .L0 
C:\Users\stapi\AppData\Local\Temp\cclCogob.s:395    .text.inet_chksum_pseudo:00000000000000b6 .L0 
C:\Users\stapi\AppData\Local\Temp\cclCogob.s:396    .text.inet_chksum_pseudo:00000000000000b6 .L0 
C:\Users\stapi\AppData\Local\Temp\cclCogob.s:404    .text.inet_chksum_pseudo:00000000000000c8 .L0 
C:\Users\stapi\AppData\Local\Temp\cclCogob.s:405    .text.inet_chksum_pseudo:00000000000000c8 .L0 
C:\Users\stapi\AppData\Local\Temp\cclCogob.s:409    .text.inet_chksum_pseudo:00000000000000ca .L0 
C:\Users\stapi\AppData\Local\Temp\cclCogob.s:410    .text.inet_chksum_pseudo:00000000000000ca .L0 
C:\Users\stapi\AppData\Local\Temp\cclCogob.s:415    .text.inet_chksum_pseudo:00000000000000ce .L0 
C:\Users\stapi\AppData\Local\Temp\cclCogob.s:422    .text.ip_chksum_pseudo:0000000000000000 ip_chksum_pseudo
C:\Users\stapi\AppData\Local\Temp\cclCogob.s:425    .text.ip_chksum_pseudo:0000000000000000 .L0 
C:\Users\stapi\AppData\Local\Temp\cclCogob.s:427    .text.ip_chksum_pseudo:0000000000000000 .L0 
C:\Users\stapi\AppData\Local\Temp\cclCogob.s:428    .text.ip_chksum_pseudo:0000000000000000 .L0 
C:\Users\stapi\AppData\Local\Temp\cclCogob.s:429    .text.ip_chksum_pseudo:0000000000000000 .L0 
C:\Users\stapi\AppData\Local\Temp\cclCogob.s:431    .text.ip_chksum_pseudo:0000000000000008 .L0 
C:\Users\stapi\AppData\Local\Temp\cclCogob.s:448    .text.inet_chksum_pseudo_partial:0000000000000000 inet_chksum_pseudo_partial
C:\Users\stapi\AppData\Local\Temp\cclCogob.s:451    .text.inet_chksum_pseudo_partial:0000000000000000 .L0 
C:\Users\stapi\AppData\Local\Temp\cclCogob.s:453    .text.inet_chksum_pseudo_partial:0000000000000000 .L0 
C:\Users\stapi\AppData\Local\Temp\cclCogob.s:454    .text.inet_chksum_pseudo_partial:0000000000000008 .L0 
C:\Users\stapi\AppData\Local\Temp\cclCogob.s:455    .text.inet_chksum_pseudo_partial:0000000000000008 .L0 
C:\Users\stapi\AppData\Local\Temp\cclCogob.s:456    .text.inet_chksum_pseudo_partial:0000000000000008 .L0 
C:\Users\stapi\AppData\Local\Temp\cclCogob.s:457    .text.inet_chksum_pseudo_partial:0000000000000008 .L0 
C:\Users\stapi\AppData\Local\Temp\cclCogob.s:458    .text.inet_chksum_pseudo_partial:0000000000000008 .L0 
C:\Users\stapi\AppData\Local\Temp\cclCogob.s:459    .text.inet_chksum_pseudo_partial:0000000000000008 .L0 
C:\Users\stapi\AppData\Local\Temp\cclCogob.s:460    .text.inet_chksum_pseudo_partial:0000000000000008 .L0 
C:\Users\stapi\AppData\Local\Temp\cclCogob.s:461    .text.inet_chksum_pseudo_partial:0000000000000008 .L0 
C:\Users\stapi\AppData\Local\Temp\cclCogob.s:462    .text.inet_chksum_pseudo_partial:0000000000000008 .L0 
C:\Users\stapi\AppData\Local\Temp\cclCogob.s:463    .text.inet_chksum_pseudo_partial:0000000000000008 .L0 
C:\Users\stapi\AppData\Local\Temp\cclCogob.s:464    .text.inet_chksum_pseudo_partial:0000000000000008 .L0 
C:\Users\stapi\AppData\Local\Temp\cclCogob.s:466    .text.inet_chksum_pseudo_partial:0000000000000008 .L0 
C:\Users\stapi\AppData\Local\Temp\cclCogob.s:467    .text.inet_chksum_pseudo_partial:0000000000000008 .L0 
C:\Users\stapi\AppData\Local\Temp\cclCogob.s:468    .text.inet_chksum_pseudo_partial:0000000000000008 .L0 
C:\Users\stapi\AppData\Local\Temp\cclCogob.s:469    .text.inet_chksum_pseudo_partial:0000000000000008 .L0 
C:\Users\stapi\AppData\Local\Temp\cclCogob.s:472    .text.inet_chksum_pseudo_partial:000000000000000a .L0 
C:\Users\stapi\AppData\Local\Temp\cclCogob.s:475    .text.inet_chksum_pseudo_partial:000000000000000c .L0 
C:\Users\stapi\AppData\Local\Temp\cclCogob.s:476    .text.inet_chksum_pseudo_partial:000000000000000c .L0 
C:\Users\stapi\AppData\Local\Temp\cclCogob.s:477    .text.inet_chksum_pseudo_partial:000000000000000c .L0 
C:\Users\stapi\AppData\Local\Temp\cclCogob.s:478    .text.inet_chksum_pseudo_partial:000000000000000c .L0 
C:\Users\stapi\AppData\Local\Temp\cclCogob.s:479    .text.inet_chksum_pseudo_partial:000000000000000c .L0 
C:\Users\stapi\AppData\Local\Temp\cclCogob.s:480    .text.inet_chksum_pseudo_partial:000000000000000c .L0 
C:\Users\stapi\AppData\Local\Temp\cclCogob.s:484    .text.inet_chksum_pseudo_partial:0000000000000014 .L0 
C:\Users\stapi\AppData\Local\Temp\cclCogob.s:488    .text.inet_chksum_pseudo_partial:0000000000000018 .L0 
C:\Users\stapi\AppData\Local\Temp\cclCogob.s:491    .text.inet_chksum_pseudo_partial:000000000000001e .L0 
C:\Users\stapi\AppData\Local\Temp\cclCogob.s:494    .text.inet_chksum_pseudo_partial:0000000000000020 .L0 
C:\Users\stapi\AppData\Local\Temp\cclCogob.s:497    .text.inet_chksum_pseudo_partial:0000000000000022 .L0 
C:\Users\stapi\AppData\Local\Temp\cclCogob.s:498    .text.inet_chksum_pseudo_partial:0000000000000022 .L0 
C:\Users\stapi\AppData\Local\Temp\cclCogob.s:502    .text.inet_chksum_pseudo_partial:000000000000002a .L0 
C:\Users\stapi\AppData\Local\Temp\cclCogob.s:505    .text.inet_chksum_pseudo_partial:000000000000002c .L0 
C:\Users\stapi\AppData\Local\Temp\cclCogob.s:506    .text.inet_chksum_pseudo_partial:000000000000002c .L0 
C:\Users\stapi\AppData\Local\Temp\cclCogob.s:510    .text.inet_chksum_pseudo_partial:0000000000000030 .L0 
C:\Users\stapi\AppData\Local\Temp\cclCogob.s:514    .text.inet_chksum_pseudo_partial:0000000000000032 .L0 
C:\Users\stapi\AppData\Local\Temp\cclCogob.s:517    .text.inet_chksum_pseudo_partial:0000000000000036 .L0 
C:\Users\stapi\AppData\Local\Temp\cclCogob.s:522    .text.inet_chksum_pseudo_partial:000000000000003e .L0 
C:\Users\stapi\AppData\Local\Temp\cclCogob.s:527    .text.inet_chksum_pseudo_partial:0000000000000040 .L0 
C:\Users\stapi\AppData\Local\Temp\cclCogob.s:528    .text.inet_chksum_pseudo_partial:0000000000000040 .L0 
C:\Users\stapi\AppData\Local\Temp\cclCogob.s:529    .text.inet_chksum_pseudo_partial:0000000000000040 .L0 
C:\Users\stapi\AppData\Local\Temp\cclCogob.s:530    .text.inet_chksum_pseudo_partial:0000000000000040 .L0 
C:\Users\stapi\AppData\Local\Temp\cclCogob.s:531    .text.inet_chksum_pseudo_partial:0000000000000040 .L0 
C:\Users\stapi\AppData\Local\Temp\cclCogob.s:532    .text.inet_chksum_pseudo_partial:0000000000000040 .L0 
C:\Users\stapi\AppData\Local\Temp\cclCogob.s:534    .text.inet_chksum_pseudo_partial:0000000000000042 .L0 
C:\Users\stapi\AppData\Local\Temp\cclCogob.s:538    .text.inet_chksum_pseudo_partial:0000000000000044 .L0 
C:\Users\stapi\AppData\Local\Temp\cclCogob.s:539    .text.inet_chksum_pseudo_partial:0000000000000044 .L0 
C:\Users\stapi\AppData\Local\Temp\cclCogob.s:542    .text.inet_chksum_pseudo_partial:0000000000000046 .L0 
C:\Users\stapi\AppData\Local\Temp\cclCogob.s:543    .text.inet_chksum_pseudo_partial:0000000000000046 .L0 
C:\Users\stapi\AppData\Local\Temp\cclCogob.s:546    .text.inet_chksum_pseudo_partial:000000000000004a .L0 
C:\Users\stapi\AppData\Local\Temp\cclCogob.s:547    .text.inet_chksum_pseudo_partial:000000000000004a .L0 
C:\Users\stapi\AppData\Local\Temp\cclCogob.s:553    .text.inet_chksum_pseudo_partial:0000000000000056 .L0 
C:\Users\stapi\AppData\Local\Temp\cclCogob.s:554    .text.inet_chksum_pseudo_partial:0000000000000056 .L0 
C:\Users\stapi\AppData\Local\Temp\cclCogob.s:558    .text.inet_chksum_pseudo_partial:0000000000000060 .L0 
C:\Users\stapi\AppData\Local\Temp\cclCogob.s:561    .text.inet_chksum_pseudo_partial:0000000000000062 .L0 
C:\Users\stapi\AppData\Local\Temp\cclCogob.s:563    .text.inet_chksum_pseudo_partial:0000000000000064 .L0 
C:\Users\stapi\AppData\Local\Temp\cclCogob.s:566    .text.inet_chksum_pseudo_partial:0000000000000066 .L0 
C:\Users\stapi\AppData\Local\Temp\cclCogob.s:567    .text.inet_chksum_pseudo_partial:0000000000000066 .L0 
C:\Users\stapi\AppData\Local\Temp\cclCogob.s:572    .text.inet_chksum_pseudo_partial:000000000000006e .L0 
C:\Users\stapi\AppData\Local\Temp\cclCogob.s:575    .text.inet_chksum_pseudo_partial:0000000000000070 .L0 
C:\Users\stapi\AppData\Local\Temp\cclCogob.s:576    .text.inet_chksum_pseudo_partial:0000000000000070 .L0 
C:\Users\stapi\AppData\Local\Temp\cclCogob.s:580    .text.inet_chksum_pseudo_partial:0000000000000076 .L0 
C:\Users\stapi\AppData\Local\Temp\cclCogob.s:581    .text.inet_chksum_pseudo_partial:0000000000000076 .L0 
C:\Users\stapi\AppData\Local\Temp\cclCogob.s:582    .text.inet_chksum_pseudo_partial:0000000000000076 .L0 
C:\Users\stapi\AppData\Local\Temp\cclCogob.s:584    .text.inet_chksum_pseudo_partial:0000000000000078 .L0 
C:\Users\stapi\AppData\Local\Temp\cclCogob.s:588    .text.inet_chksum_pseudo_partial:000000000000007c .L0 
C:\Users\stapi\AppData\Local\Temp\cclCogob.s:590    .text.inet_chksum_pseudo_partial:0000000000000088 .L0 
C:\Users\stapi\AppData\Local\Temp\cclCogob.s:591    .text.inet_chksum_pseudo_partial:0000000000000088 .L0 
C:\Users\stapi\AppData\Local\Temp\cclCogob.s:592    .text.inet_chksum_pseudo_partial:0000000000000088 .L0 
C:\Users\stapi\AppData\Local\Temp\cclCogob.s:593    .text.inet_chksum_pseudo_partial:0000000000000088 .L0 
C:\Users\stapi\AppData\Local\Temp\cclCogob.s:594    .text.inet_chksum_pseudo_partial:0000000000000088 .L0 
C:\Users\stapi\AppData\Local\Temp\cclCogob.s:595    .text.inet_chksum_pseudo_partial:0000000000000088 .L0 
C:\Users\stapi\AppData\Local\Temp\cclCogob.s:596    .text.inet_chksum_pseudo_partial:0000000000000088 .L0 
C:\Users\stapi\AppData\Local\Temp\cclCogob.s:597    .text.inet_chksum_pseudo_partial:0000000000000088 .L0 
C:\Users\stapi\AppData\Local\Temp\cclCogob.s:598    .text.inet_chksum_pseudo_partial:0000000000000088 .L0 
C:\Users\stapi\AppData\Local\Temp\cclCogob.s:599    .text.inet_chksum_pseudo_partial:0000000000000088 .L0 
C:\Users\stapi\AppData\Local\Temp\cclCogob.s:600    .text.inet_chksum_pseudo_partial:0000000000000088 .L0 
C:\Users\stapi\AppData\Local\Temp\cclCogob.s:601    .text.inet_chksum_pseudo_partial:0000000000000088 .L0 
C:\Users\stapi\AppData\Local\Temp\cclCogob.s:604    .text.inet_chksum_pseudo_partial:0000000000000088 .L0 
C:\Users\stapi\AppData\Local\Temp\cclCogob.s:608    .text.inet_chksum_pseudo_partial:0000000000000088 .L0 
C:\Users\stapi\AppData\Local\Temp\cclCogob.s:609    .text.inet_chksum_pseudo_partial:0000000000000088 .L0 
C:\Users\stapi\AppData\Local\Temp\cclCogob.s:610    .text.inet_chksum_pseudo_partial:0000000000000088 .L0 
C:\Users\stapi\AppData\Local\Temp\cclCogob.s:611    .text.inet_chksum_pseudo_partial:0000000000000088 .L0 
C:\Users\stapi\AppData\Local\Temp\cclCogob.s:615    .text.inet_chksum_pseudo_partial:0000000000000090 .L0 
C:\Users\stapi\AppData\Local\Temp\cclCogob.s:618    .text.inet_chksum_pseudo_partial:0000000000000092 .L0 
C:\Users\stapi\AppData\Local\Temp\cclCogob.s:619    .text.inet_chksum_pseudo_partial:0000000000000092 .L0 
C:\Users\stapi\AppData\Local\Temp\cclCogob.s:621    .text.inet_chksum_pseudo_partial:0000000000000096 .L0 
C:\Users\stapi\AppData\Local\Temp\cclCogob.s:624    .text.inet_chksum_pseudo_partial:000000000000009a .L0 
C:\Users\stapi\AppData\Local\Temp\cclCogob.s:625    .text.inet_chksum_pseudo_partial:000000000000009a .L0 
C:\Users\stapi\AppData\Local\Temp\cclCogob.s:633    .text.inet_chksum_pseudo_partial:00000000000000ac .L0 
C:\Users\stapi\AppData\Local\Temp\cclCogob.s:634    .text.inet_chksum_pseudo_partial:00000000000000ac .L0 
C:\Users\stapi\AppData\Local\Temp\cclCogob.s:638    .text.inet_chksum_pseudo_partial:00000000000000ae .L0 
C:\Users\stapi\AppData\Local\Temp\cclCogob.s:639    .text.inet_chksum_pseudo_partial:00000000000000ae .L0 
C:\Users\stapi\AppData\Local\Temp\cclCogob.s:645    .text.inet_chksum_pseudo_partial:00000000000000b2 .L0 
C:\Users\stapi\AppData\Local\Temp\cclCogob.s:647    .text.inet_chksum_pseudo_partial:00000000000000b6 .L0 
C:\Users\stapi\AppData\Local\Temp\cclCogob.s:648    .text.inet_chksum_pseudo_partial:00000000000000b6 .L0 
C:\Users\stapi\AppData\Local\Temp\cclCogob.s:649    .text.inet_chksum_pseudo_partial:00000000000000b6 .L0 
C:\Users\stapi\AppData\Local\Temp\cclCogob.s:652    .text.inet_chksum_pseudo_partial:00000000000000ba .L0 
C:\Users\stapi\AppData\Local\Temp\cclCogob.s:653    .text.inet_chksum_pseudo_partial:00000000000000ba .L0 
C:\Users\stapi\AppData\Local\Temp\cclCogob.s:657    .text.inet_chksum_pseudo_partial:00000000000000c0 .L0 
C:\Users\stapi\AppData\Local\Temp\cclCogob.s:658    .text.inet_chksum_pseudo_partial:00000000000000c0 .L0 
C:\Users\stapi\AppData\Local\Temp\cclCogob.s:662    .text.inet_chksum_pseudo_partial:00000000000000ca .L0 
C:\Users\stapi\AppData\Local\Temp\cclCogob.s:665    .text.inet_chksum_pseudo_partial:00000000000000ce .L0 
C:\Users\stapi\AppData\Local\Temp\cclCogob.s:668    .text.inet_chksum_pseudo_partial:00000000000000d0 .L0 
C:\Users\stapi\AppData\Local\Temp\cclCogob.s:669    .text.inet_chksum_pseudo_partial:00000000000000d0 .L0 
C:\Users\stapi\AppData\Local\Temp\cclCogob.s:672    .text.inet_chksum_pseudo_partial:00000000000000d4 .L0 
C:\Users\stapi\AppData\Local\Temp\cclCogob.s:673    .text.inet_chksum_pseudo_partial:00000000000000d4 .L0 
C:\Users\stapi\AppData\Local\Temp\cclCogob.s:675    .text.inet_chksum_pseudo_partial:00000000000000d8 .L0 
C:\Users\stapi\AppData\Local\Temp\cclCogob.s:676    .text.inet_chksum_pseudo_partial:00000000000000d8 .L0 
C:\Users\stapi\AppData\Local\Temp\cclCogob.s:687    .text.inet_chksum_pseudo_partial:00000000000000fc .L0 
C:\Users\stapi\AppData\Local\Temp\cclCogob.s:688    .text.inet_chksum_pseudo_partial:00000000000000fc .L0 
C:\Users\stapi\AppData\Local\Temp\cclCogob.s:689    .text.inet_chksum_pseudo_partial:00000000000000fc .L0 
C:\Users\stapi\AppData\Local\Temp\cclCogob.s:693    .text.inet_chksum_pseudo_partial:00000000000000fe .L0 
C:\Users\stapi\AppData\Local\Temp\cclCogob.s:694    .text.inet_chksum_pseudo_partial:00000000000000fe .L0 
C:\Users\stapi\AppData\Local\Temp\cclCogob.s:702    .text.inet_chksum_pseudo_partial:000000000000010e .L0 
C:\Users\stapi\AppData\Local\Temp\cclCogob.s:707    .text.inet_chksum_pseudo_partial:0000000000000112 .L0 
C:\Users\stapi\AppData\Local\Temp\cclCogob.s:714    .text.ip_chksum_pseudo_partial:0000000000000000 ip_chksum_pseudo_partial
C:\Users\stapi\AppData\Local\Temp\cclCogob.s:717    .text.ip_chksum_pseudo_partial:0000000000000000 .L0 
C:\Users\stapi\AppData\Local\Temp\cclCogob.s:719    .text.ip_chksum_pseudo_partial:0000000000000000 .L0 
C:\Users\stapi\AppData\Local\Temp\cclCogob.s:720    .text.ip_chksum_pseudo_partial:0000000000000000 .L0 
C:\Users\stapi\AppData\Local\Temp\cclCogob.s:721    .text.ip_chksum_pseudo_partial:0000000000000000 .L0 
C:\Users\stapi\AppData\Local\Temp\cclCogob.s:723    .text.ip_chksum_pseudo_partial:0000000000000008 .L0 
C:\Users\stapi\AppData\Local\Temp\cclCogob.s:730    .text.inet_chksum:0000000000000000 inet_chksum
C:\Users\stapi\AppData\Local\Temp\cclCogob.s:733    .text.inet_chksum:0000000000000000 .L0 
C:\Users\stapi\AppData\Local\Temp\cclCogob.s:735    .text.inet_chksum:0000000000000000 .L0 
C:\Users\stapi\AppData\Local\Temp\cclCogob.s:736    .text.inet_chksum:0000000000000008 .L0 
C:\Users\stapi\AppData\Local\Temp\cclCogob.s:737    .text.inet_chksum:0000000000000008 .L0 
C:\Users\stapi\AppData\Local\Temp\cclCogob.s:739    .text.inet_chksum:0000000000000008 .L0 
C:\Users\stapi\AppData\Local\Temp\cclCogob.s:740    .text.inet_chksum:0000000000000008 .L0 
C:\Users\stapi\AppData\Local\Temp\cclCogob.s:743    .text.inet_chksum:0000000000000010 .L0 
C:\Users\stapi\AppData\Local\Temp\cclCogob.s:745    .text.inet_chksum:0000000000000014 .L0 
C:\Users\stapi\AppData\Local\Temp\cclCogob.s:747    .text.inet_chksum:0000000000000020 .L0 
C:\Users\stapi\AppData\Local\Temp\cclCogob.s:748    .text.inet_chksum:0000000000000020 .L0 
C:\Users\stapi\AppData\Local\Temp\cclCogob.s:749    .text.inet_chksum:0000000000000020 .L0 
C:\Users\stapi\AppData\Local\Temp\cclCogob.s:756    .text.inet_chksum_pbuf:0000000000000000 inet_chksum_pbuf
C:\Users\stapi\AppData\Local\Temp\cclCogob.s:759    .text.inet_chksum_pbuf:0000000000000000 .L0 
C:\Users\stapi\AppData\Local\Temp\cclCogob.s:761    .text.inet_chksum_pbuf:0000000000000000 .L0 
C:\Users\stapi\AppData\Local\Temp\cclCogob.s:762    .text.inet_chksum_pbuf:0000000000000008 .L0 
C:\Users\stapi\AppData\Local\Temp\cclCogob.s:763    .text.inet_chksum_pbuf:0000000000000008 .L0 
C:\Users\stapi\AppData\Local\Temp\cclCogob.s:764    .text.inet_chksum_pbuf:0000000000000008 .L0 
C:\Users\stapi\AppData\Local\Temp\cclCogob.s:765    .text.inet_chksum_pbuf:0000000000000008 .L0 
C:\Users\stapi\AppData\Local\Temp\cclCogob.s:766    .text.inet_chksum_pbuf:0000000000000008 .L0 
C:\Users\stapi\AppData\Local\Temp\cclCogob.s:767    .text.inet_chksum_pbuf:0000000000000008 .L0 
C:\Users\stapi\AppData\Local\Temp\cclCogob.s:769    .text.inet_chksum_pbuf:0000000000000008 .L0 
C:\Users\stapi\AppData\Local\Temp\cclCogob.s:770    .text.inet_chksum_pbuf:0000000000000008 .L0 
C:\Users\stapi\AppData\Local\Temp\cclCogob.s:772    .text.inet_chksum_pbuf:0000000000000008 .L0 
C:\Users\stapi\AppData\Local\Temp\cclCogob.s:773    .text.inet_chksum_pbuf:0000000000000008 .L0 
C:\Users\stapi\AppData\Local\Temp\cclCogob.s:774    .text.inet_chksum_pbuf:0000000000000008 .L0 
C:\Users\stapi\AppData\Local\Temp\cclCogob.s:775    .text.inet_chksum_pbuf:0000000000000008 .L0 
C:\Users\stapi\AppData\Local\Temp\cclCogob.s:777    .text.inet_chksum_pbuf:000000000000000a .L0 
C:\Users\stapi\AppData\Local\Temp\cclCogob.s:780    .text.inet_chksum_pbuf:000000000000000c .L0 
C:\Users\stapi\AppData\Local\Temp\cclCogob.s:782    .text.inet_chksum_pbuf:000000000000000e .L0 
C:\Users\stapi\AppData\Local\Temp\cclCogob.s:784    .text.inet_chksum_pbuf:0000000000000010 .L0 
C:\Users\stapi\AppData\Local\Temp\cclCogob.s:788    .text.inet_chksum_pbuf:0000000000000012 .L0 
C:\Users\stapi\AppData\Local\Temp\cclCogob.s:789    .text.inet_chksum_pbuf:0000000000000012 .L0 
C:\Users\stapi\AppData\Local\Temp\cclCogob.s:791    .text.inet_chksum_pbuf:0000000000000014 .L0 
C:\Users\stapi\AppData\Local\Temp\cclCogob.s:792    .text.inet_chksum_pbuf:0000000000000014 .L0 
C:\Users\stapi\AppData\Local\Temp\cclCogob.s:794    .text.inet_chksum_pbuf:0000000000000018 .L0 
C:\Users\stapi\AppData\Local\Temp\cclCogob.s:795    .text.inet_chksum_pbuf:0000000000000018 .L0 
C:\Users\stapi\AppData\Local\Temp\cclCogob.s:803    .text.inet_chksum_pbuf:0000000000000028 .L0 
C:\Users\stapi\AppData\Local\Temp\cclCogob.s:807    .text.inet_chksum_pbuf:000000000000002a .L0 
C:\Users\stapi\AppData\Local\Temp\cclCogob.s:808    .text.inet_chksum_pbuf:000000000000002a .L0 
C:\Users\stapi\AppData\Local\Temp\cclCogob.s:810    .text.inet_chksum_pbuf:000000000000002e .L0 
C:\Users\stapi\AppData\Local\Temp\cclCogob.s:812    .text.inet_chksum_pbuf:000000000000003a .L0 
C:\Users\stapi\AppData\Local\Temp\cclCogob.s:813    .text.inet_chksum_pbuf:000000000000003a .L0 
C:\Users\stapi\AppData\Local\Temp\cclCogob.s:814    .text.inet_chksum_pbuf:000000000000003a .L0 
C:\Users\stapi\AppData\Local\Temp\cclCogob.s:815    .text.inet_chksum_pbuf:000000000000003a .L0 
C:\Users\stapi\AppData\Local\Temp\cclCogob.s:816    .text.inet_chksum_pbuf:000000000000003a .L0 
C:\Users\stapi\AppData\Local\Temp\cclCogob.s:817    .text.inet_chksum_pbuf:000000000000003a .L0 
C:\Users\stapi\AppData\Local\Temp\cclCogob.s:818    .text.inet_chksum_pbuf:000000000000003a .L0 
C:\Users\stapi\AppData\Local\Temp\cclCogob.s:820    .text.inet_chksum_pbuf:000000000000003a .L0 
C:\Users\stapi\AppData\Local\Temp\cclCogob.s:822    .text.inet_chksum_pbuf:000000000000003a .L0 
C:\Users\stapi\AppData\Local\Temp\cclCogob.s:823    .text.inet_chksum_pbuf:000000000000003a .L0 
C:\Users\stapi\AppData\Local\Temp\cclCogob.s:828    .text.inet_chksum_pbuf:0000000000000048 .L0 
C:\Users\stapi\AppData\Local\Temp\cclCogob.s:831    .text.inet_chksum_pbuf:000000000000004a .L0 
C:\Users\stapi\AppData\Local\Temp\cclCogob.s:832    .text.inet_chksum_pbuf:000000000000004a .L0 
C:\Users\stapi\AppData\Local\Temp\cclCogob.s:836    .text.inet_chksum_pbuf:0000000000000052 .L0 
C:\Users\stapi\AppData\Local\Temp\cclCogob.s:839    .text.inet_chksum_pbuf:0000000000000054 .L0 
C:\Users\stapi\AppData\Local\Temp\cclCogob.s:840    .text.inet_chksum_pbuf:0000000000000054 .L0 
C:\Users\stapi\AppData\Local\Temp\cclCogob.s:842    .text.inet_chksum_pbuf:0000000000000058 .L0 
C:\Users\stapi\AppData\Local\Temp\cclCogob.s:845    .text.inet_chksum_pbuf:000000000000005c .L0 
C:\Users\stapi\AppData\Local\Temp\cclCogob.s:846    .text.inet_chksum_pbuf:000000000000005c .L0 
C:\Users\stapi\AppData\Local\Temp\cclCogob.s:854    .text.inet_chksum_pbuf:000000000000006e .L0 
C:\Users\stapi\AppData\Local\Temp\cclCogob.s:855    .text.inet_chksum_pbuf:000000000000006e .L0 
C:\Users\stapi\AppData\Local\Temp\cclCogob.s:859    .text.inet_chksum_pbuf:0000000000000070 .L0 
C:\Users\stapi\AppData\Local\Temp\cclCogob.s:860    .text.inet_chksum_pbuf:0000000000000070 .L0 
C:\Users\stapi\AppData\Local\Temp\cclCogob.s:863    .text.inet_chksum_pbuf:0000000000000074 .L0 
C:\Users\stapi\AppData\Local\Temp\cclCogob.s:213    .text.lwip_standard_chksum:00000000000000ac .L0 
C:\Users\stapi\AppData\Local\Temp\cclCogob.s:418    .text.inet_chksum_pseudo:00000000000000ce .L0 
C:\Users\stapi\AppData\Local\Temp\cclCogob.s:434    .text.ip_chksum_pseudo:0000000000000008 .L0 
C:\Users\stapi\AppData\Local\Temp\cclCogob.s:710    .text.inet_chksum_pseudo_partial:0000000000000112 .L0 
C:\Users\stapi\AppData\Local\Temp\cclCogob.s:726    .text.ip_chksum_pseudo_partial:0000000000000008 .L0 
C:\Users\stapi\AppData\Local\Temp\cclCogob.s:752    .text.inet_chksum:0000000000000020 .L0 
C:\Users\stapi\AppData\Local\Temp\cclCogob.s:866    .text.inet_chksum_pbuf:0000000000000074 .L0 
                     .debug_frame:0000000000000000 .L0 
C:\Users\stapi\AppData\Local\Temp\cclCogob.s:53     .text.lwip_standard_chksum:000000000000001c .L2
C:\Users\stapi\AppData\Local\Temp\cclCogob.s:78     .text.lwip_standard_chksum:0000000000000032 .L3
C:\Users\stapi\AppData\Local\Temp\cclCogob.s:158    .text.lwip_standard_chksum:0000000000000086 .L7
C:\Users\stapi\AppData\Local\Temp\cclCogob.s:195    .text.lwip_standard_chksum:00000000000000a0 .L9
C:\Users\stapi\AppData\Local\Temp\cclCogob.s:108    .text.lwip_standard_chksum:0000000000000054 .L10
C:\Users\stapi\AppData\Local\Temp\cclCogob.s:148    .text.lwip_standard_chksum:000000000000007e .L11
C:\Users\stapi\AppData\Local\Temp\cclCogob.s:172    .text.lwip_standard_chksum:0000000000000090 .L5
C:\Users\stapi\AppData\Local\Temp\cclCogob.s:188    .text.lwip_standard_chksum:000000000000009c .L6
C:\Users\stapi\AppData\Local\Temp\cclCogob.s:82     .text.lwip_standard_chksum:0000000000000034 .L4
C:\Users\stapi\AppData\Local\Temp\cclCogob.s:98     .text.lwip_standard_chksum:0000000000000044 .L8
C:\Users\stapi\AppData\Local\Temp\cclCogob.s:366    .text.inet_chksum_pseudo:0000000000000094 .L26
C:\Users\stapi\AppData\Local\Temp\cclCogob.s:310    .text.inet_chksum_pseudo:0000000000000056 .L27
C:\Users\stapi\AppData\Local\Temp\cclCogob.s:407    .text.inet_chksum_pseudo:00000000000000ca .L25
C:\Users\stapi\AppData\Local\Temp\cclCogob.s:291    .text.inet_chksum_pseudo:000000000000003e .L24
C:\Users\stapi\AppData\Local\Temp\cclCogob.s:436    .rodata.inet_chksum_pseudo_partial.str1.4:0000000000000000 .LC0
C:\Users\stapi\AppData\Local\Temp\cclCogob.s:439    .rodata.inet_chksum_pseudo_partial.str1.4:0000000000000088 .LC1
C:\Users\stapi\AppData\Local\Temp\cclCogob.s:442    .rodata.inet_chksum_pseudo_partial.str1.4:0000000000000094 .LC2
C:\Users\stapi\AppData\Local\Temp\cclCogob.s:643    .text.inet_chksum_pseudo_partial:00000000000000b2 .L42
C:\Users\stapi\AppData\Local\Temp\cclCogob.s:691    .text.inet_chksum_pseudo_partial:00000000000000fe .L43
C:\Users\stapi\AppData\Local\Temp\cclCogob.s:636    .text.inet_chksum_pseudo_partial:00000000000000ae .L41
C:\Users\stapi\AppData\Local\Temp\cclCogob.s:536    .text.inet_chksum_pseudo_partial:0000000000000044 .L38
C:\Users\stapi\AppData\Local\Temp\cclCogob.s:540    .text.inet_chksum_pseudo_partial:0000000000000046 .L46
C:\Users\stapi\AppData\Local\Temp\cclCogob.s:603    .text.inet_chksum_pseudo_partial:0000000000000088 .L39
C:\Users\stapi\AppData\Local\Temp\cclCogob.s:685    .text.inet_chksum_pseudo_partial:00000000000000fc .L40
C:\Users\stapi\AppData\Local\Temp\cclCogob.s:544    .text.inet_chksum_pseudo_partial:000000000000004a .L44
C:\Users\stapi\AppData\Local\Temp\cclCogob.s:819    .text.inet_chksum_pbuf:000000000000003a .L58
C:\Users\stapi\AppData\Local\Temp\cclCogob.s:805    .text.inet_chksum_pbuf:000000000000002a .L59
C:\Users\stapi\AppData\Local\Temp\cclCogob.s:857    .text.inet_chksum_pbuf:0000000000000070 .L57
C:\Users\stapi\AppData\Local\Temp\cclCogob.s:786    .text.inet_chksum_pbuf:0000000000000012 .L56
C:\Users\stapi\AppData\Local\Temp\cclCogob.s:1842   .debug_abbrev:0000000000000000 .Ldebug_abbrev0
C:\Users\stapi\AppData\Local\Temp\cclCogob.s:3674   .debug_str:000000000000016a .LASF52
C:\Users\stapi\AppData\Local\Temp\cclCogob.s:3672   .debug_str:00000000000000e4 .LASF53
C:\Users\stapi\AppData\Local\Temp\cclCogob.s:3714   .debug_str:0000000000000362 .LASF54
C:\Users\stapi\AppData\Local\Temp\cclCogob.s:3598   .debug_ranges:0000000000000000 .Ldebug_ranges0
C:\Users\stapi\AppData\Local\Temp\cclCogob.s:3630   .debug_line:0000000000000000 .Ldebug_line0
C:\Users\stapi\AppData\Local\Temp\cclCogob.s:3654   .debug_str:000000000000007c .LASF0
C:\Users\stapi\AppData\Local\Temp\cclCogob.s:3640   .debug_str:0000000000000035 .LASF3
C:\Users\stapi\AppData\Local\Temp\cclCogob.s:3702   .debug_str:0000000000000308 .LASF1
C:\Users\stapi\AppData\Local\Temp\cclCogob.s:3706   .debug_str:0000000000000335 .LASF2
C:\Users\stapi\AppData\Local\Temp\cclCogob.s:3722   .debug_str:00000000000003f6 .LASF4
C:\Users\stapi\AppData\Local\Temp\cclCogob.s:3682   .debug_str:0000000000000283 .LASF5
C:\Users\stapi\AppData\Local\Temp\cclCogob.s:3658   .debug_str:0000000000000090 .LASF6
C:\Users\stapi\AppData\Local\Temp\cclCogob.s:3666   .debug_str:00000000000000be .LASF7
C:\Users\stapi\AppData\Local\Temp\cclCogob.s:3678   .debug_str:000000000000026b .LASF8
C:\Users\stapi\AppData\Local\Temp\cclCogob.s:3652   .debug_str:000000000000006e .LASF9
C:\Users\stapi\AppData\Local\Temp\cclCogob.s:3644   .debug_str:0000000000000046 .LASF10
C:\Users\stapi\AppData\Local\Temp\cclCogob.s:3710   .debug_str:0000000000000350 .LASF11
C:\Users\stapi\AppData\Local\Temp\cclCogob.s:3670   .debug_str:00000000000000d7 .LASF12
C:\Users\stapi\AppData\Local\Temp\cclCogob.s:3734   .debug_str:0000000000000442 .LASF13
C:\Users\stapi\AppData\Local\Temp\cclCogob.s:3664   .debug_str:00000000000000b5 .LASF14
C:\Users\stapi\AppData\Local\Temp\cclCogob.s:3716   .debug_str:00000000000003e0 .LASF15
C:\Users\stapi\AppData\Local\Temp\cclCogob.s:3636   .debug_str:0000000000000010 .LASF16
C:\Users\stapi\AppData\Local\Temp\cclCogob.s:3718   .debug_str:00000000000003e9 .LASF17
C:\Users\stapi\AppData\Local\Temp\cclCogob.s:3694   .debug_str:00000000000002e5 .LASF18
C:\Users\stapi\AppData\Local\Temp\cclCogob.s:3728   .debug_str:0000000000000423 .LASF19
C:\Users\stapi\AppData\Local\Temp\cclCogob.s:3680   .debug_str:000000000000027d .LASF20
C:\Users\stapi\AppData\Local\Temp\cclCogob.s:3730   .debug_str:0000000000000429 .LASF21
C:\Users\stapi\AppData\Local\Temp\cclCogob.s:3634   .debug_str:000000000000000b .LASF28
C:\Users\stapi\AppData\Local\Temp\cclCogob.s:3650   .debug_str:0000000000000069 .LASF22
C:\Users\stapi\AppData\Local\Temp\cclCogob.s:3696   .debug_str:00000000000002ea .LASF23
C:\Users\stapi\AppData\Local\Temp\cclCogob.s:3656   .debug_str:0000000000000088 .LASF24
C:\Users\stapi\AppData\Local\Temp\cclCogob.s:3668   .debug_str:00000000000000c9 .LASF25
C:\Users\stapi\AppData\Local\Temp\cclCogob.s:3736   .debug_str:000000000000044a .LASF26
C:\Users\stapi\AppData\Local\Temp\cclCogob.s:3740   .debug_str:000000000000045a .LASF27
C:\Users\stapi\AppData\Local\Temp\cclCogob.s:3662   .debug_str:00000000000000ac .LASF29
C:\Users\stapi\AppData\Local\Temp\cclCogob.s:3646   .debug_str:000000000000005d .LASF30
C:\Users\stapi\AppData\Local\Temp\cclCogob.s:3726   .debug_str:0000000000000418 .LASF31
C:\Users\stapi\AppData\Local\Temp\cclCogob.s:3690   .debug_str:00000000000002c6 .LASF32
C:\Users\stapi\AppData\Local\Temp\cclCogob.s:3700   .debug_str:00000000000002f7 .LASF34
C:\Users\stapi\AppData\Local\Temp\cclCogob.s:757    .text.inet_chksum_pbuf:0000000000000000 .LFB12
C:\Users\stapi\AppData\Local\Temp\cclCogob.s:864    .text.inet_chksum_pbuf:0000000000000074 .LFE12
C:\Users\stapi\AppData\Local\Temp\cclCogob.s:2400   .debug_loc:0000000000000000 .LLST49
C:\Users\stapi\AppData\Local\Temp\cclCogob.s:2414   .debug_loc:0000000000000021 .LLST50
C:\Users\stapi\AppData\Local\Temp\cclCogob.s:2438   .debug_loc:0000000000000061 .LLST51
C:\Users\stapi\AppData\Local\Temp\cclCogob.s:3676   .debug_str:0000000000000263 .LASF33
C:\Users\stapi\AppData\Local\Temp\cclCogob.s:2449   .debug_loc:000000000000007f .LLST52
C:\Users\stapi\AppData\Local\Temp\cclCogob.s:826    .text.inet_chksum_pbuf:0000000000000048 .LVL115
C:\Users\stapi\AppData\Local\Temp\cclCogob.s:3688   .debug_str:00000000000002ba .LASF35
C:\Users\stapi\AppData\Local\Temp\cclCogob.s:731    .text.inet_chksum:0000000000000000 .LFB11
C:\Users\stapi\AppData\Local\Temp\cclCogob.s:750    .text.inet_chksum:0000000000000020 .LFE11
C:\Users\stapi\AppData\Local\Temp\cclCogob.s:3720   .debug_str:00000000000003ee .LASF36
C:\Users\stapi\AppData\Local\Temp\cclCogob.s:2461   .debug_loc:000000000000009e .LLST47
C:\Users\stapi\AppData\Local\Temp\cclCogob.s:2475   .debug_loc:00000000000000bf .LLST48
C:\Users\stapi\AppData\Local\Temp\cclCogob.s:741    .text.inet_chksum:0000000000000010 .LVL108
C:\Users\stapi\AppData\Local\Temp\cclCogob.s:3684   .debug_str:0000000000000296 .LASF37
C:\Users\stapi\AppData\Local\Temp\cclCogob.s:715    .text.ip_chksum_pseudo_partial:0000000000000000 .LFB10
C:\Users\stapi\AppData\Local\Temp\cclCogob.s:724    .text.ip_chksum_pseudo_partial:0000000000000008 .LFE10
C:\Users\stapi\AppData\Local\Temp\cclCogob.s:2489   .debug_loc:00000000000000e0 .LLST41
C:\Users\stapi\AppData\Local\Temp\cclCogob.s:3712   .debug_str:000000000000035c .LASF38
C:\Users\stapi\AppData\Local\Temp\cclCogob.s:2503   .debug_loc:0000000000000101 .LLST42
C:\Users\stapi\AppData\Local\Temp\cclCogob.s:3738   .debug_str:0000000000000450 .LASF39
C:\Users\stapi\AppData\Local\Temp\cclCogob.s:2517   .debug_loc:0000000000000122 .LLST43
C:\Users\stapi\AppData\Local\Temp\cclCogob.s:3632   .debug_str:0000000000000000 .LASF40
C:\Users\stapi\AppData\Local\Temp\cclCogob.s:2531   .debug_loc:0000000000000143 .LLST44
C:\Users\stapi\AppData\Local\Temp\cclCogob.s:2545   .debug_loc:0000000000000164 .LLST45
C:\Users\stapi\AppData\Local\Temp\cclCogob.s:3698   .debug_str:00000000000002f2 .LASF41
C:\Users\stapi\AppData\Local\Temp\cclCogob.s:2559   .debug_loc:0000000000000185 .LLST46
C:\Users\stapi\AppData\Local\Temp\cclCogob.s:722    .text.ip_chksum_pseudo_partial:0000000000000008 .LVL106
C:\Users\stapi\AppData\Local\Temp\cclCogob.s:3638   .debug_str:000000000000001a .LASF42
C:\Users\stapi\AppData\Local\Temp\cclCogob.s:449    .text.inet_chksum_pseudo_partial:0000000000000000 .LFB9
C:\Users\stapi\AppData\Local\Temp\cclCogob.s:708    .text.inet_chksum_pseudo_partial:0000000000000112 .LFE9
C:\Users\stapi\AppData\Local\Temp\cclCogob.s:2573   .debug_loc:00000000000001a6 .LLST25
C:\Users\stapi\AppData\Local\Temp\cclCogob.s:2587   .debug_loc:00000000000001c7 .LLST26
C:\Users\stapi\AppData\Local\Temp\cclCogob.s:2601   .debug_loc:00000000000001e8 .LLST27
C:\Users\stapi\AppData\Local\Temp\cclCogob.s:2615   .debug_loc:0000000000000209 .LLST28
C:\Users\stapi\AppData\Local\Temp\cclCogob.s:2629   .debug_loc:000000000000022a .LLST29
C:\Users\stapi\AppData\Local\Temp\cclCogob.s:2643   .debug_loc:000000000000024b .LLST30
C:\Users\stapi\AppData\Local\Temp\cclCogob.s:2657   .debug_loc:000000000000026c .LLST31
C:\Users\stapi\AppData\Local\Temp\cclCogob.s:2826   .debug_loc:0000000000000358 .LLST32
C:\Users\stapi\AppData\Local\Temp\cclCogob.s:507    .text.inet_chksum_pseudo_partial:0000000000000030 .LBB10
C:\Users\stapi\AppData\Local\Temp\cclCogob.s:2839   .debug_loc:0000000000000378 .LLST33
C:\Users\stapi\AppData\Local\Temp\cclCogob.s:2882   .debug_loc:00000000000003e1 .LLST34
C:\Users\stapi\AppData\Local\Temp\cclCogob.s:2897   .debug_loc:000000000000040a .LLST35
C:\Users\stapi\AppData\Local\Temp\cclCogob.s:2908   .debug_loc:0000000000000428 .LLST36
C:\Users\stapi\AppData\Local\Temp\cclCogob.s:2919   .debug_loc:0000000000000446 .LLST37
C:\Users\stapi\AppData\Local\Temp\cclCogob.s:2940   .debug_loc:0000000000000475 .LLST38
C:\Users\stapi\AppData\Local\Temp\cclCogob.s:2955   .debug_loc:000000000000049e .LLST39
C:\Users\stapi\AppData\Local\Temp\cclCogob.s:2971   .debug_loc:00000000000004c8 .LLST40
C:\Users\stapi\AppData\Local\Temp\cclCogob.s:549    .text.inet_chksum_pseudo_partial:0000000000000054 .LVL79
C:\Users\stapi\AppData\Local\Temp\cclCogob.s:556    .text.inet_chksum_pseudo_partial:0000000000000060 .LVL81
C:\Users\stapi\AppData\Local\Temp\cclCogob.s:660    .text.inet_chksum_pseudo_partial:00000000000000ca .LVL97
C:\Users\stapi\AppData\Local\Temp\cclCogob.s:684    .text.inet_chksum_pseudo_partial:00000000000000fc .LVL101
C:\Users\stapi\AppData\Local\Temp\cclCogob.s:3704   .debug_str:0000000000000316 .LASF46
C:\Users\stapi\AppData\Local\Temp\cclCogob.s:3648   .debug_str:0000000000000062 .LASF43
C:\Users\stapi\AppData\Local\Temp\cclCogob.s:3708   .debug_str:000000000000033f .LASF44
C:\Users\stapi\AppData\Local\Temp\cclCogob.s:423    .text.ip_chksum_pseudo:0000000000000000 .LFB7
C:\Users\stapi\AppData\Local\Temp\cclCogob.s:432    .text.ip_chksum_pseudo:0000000000000008 .LFE7
C:\Users\stapi\AppData\Local\Temp\cclCogob.s:2982   .debug_loc:00000000000004e6 .LLST20
C:\Users\stapi\AppData\Local\Temp\cclCogob.s:2996   .debug_loc:0000000000000507 .LLST21
C:\Users\stapi\AppData\Local\Temp\cclCogob.s:3010   .debug_loc:0000000000000528 .LLST22
C:\Users\stapi\AppData\Local\Temp\cclCogob.s:3024   .debug_loc:0000000000000549 .LLST23
C:\Users\stapi\AppData\Local\Temp\cclCogob.s:3038   .debug_loc:000000000000056a .LLST24
C:\Users\stapi\AppData\Local\Temp\cclCogob.s:430    .text.ip_chksum_pseudo:0000000000000008 .LVL67
C:\Users\stapi\AppData\Local\Temp\cclCogob.s:3660   .debug_str:0000000000000099 .LASF45
C:\Users\stapi\AppData\Local\Temp\cclCogob.s:218    .text.inet_chksum_pseudo:0000000000000000 .LFB6
C:\Users\stapi\AppData\Local\Temp\cclCogob.s:416    .text.inet_chksum_pseudo:00000000000000ce .LFE6
C:\Users\stapi\AppData\Local\Temp\cclCogob.s:3052   .debug_loc:000000000000058b .LLST7
C:\Users\stapi\AppData\Local\Temp\cclCogob.s:3066   .debug_loc:00000000000005ac .LLST8
C:\Users\stapi\AppData\Local\Temp\cclCogob.s:3080   .debug_loc:00000000000005cd .LLST9
C:\Users\stapi\AppData\Local\Temp\cclCogob.s:3094   .debug_loc:00000000000005ee .LLST10
C:\Users\stapi\AppData\Local\Temp\cclCogob.s:3108   .debug_loc:000000000000060f .LLST11
C:\Users\stapi\AppData\Local\Temp\cclCogob.s:3122   .debug_loc:0000000000000630 .LLST12
C:\Users\stapi\AppData\Local\Temp\cclCogob.s:3286   .debug_loc:0000000000000717 .LLST13
C:\Users\stapi\AppData\Local\Temp\cclCogob.s:283    .text.inet_chksum_pseudo:000000000000003c .LBB4
C:\Users\stapi\AppData\Local\Temp\cclCogob.s:3299   .debug_loc:0000000000000737 .LLST14
C:\Users\stapi\AppData\Local\Temp\cclCogob.s:3342   .debug_loc:00000000000007a0 .LLST15
C:\Users\stapi\AppData\Local\Temp\cclCogob.s:3353   .debug_loc:00000000000007be .LLST16
C:\Users\stapi\AppData\Local\Temp\cclCogob.s:3364   .debug_loc:00000000000007dc .LLST17
C:\Users\stapi\AppData\Local\Temp\cclCogob.s:3385   .debug_loc:000000000000080b .LLST18
C:\Users\stapi\AppData\Local\Temp\cclCogob.s:3400   .debug_loc:0000000000000834 .LLST19
C:\Users\stapi\AppData\Local\Temp\cclCogob.s:315    .text.inet_chksum_pseudo:0000000000000060 .LVL49
C:\Users\stapi\AppData\Local\Temp\cclCogob.s:322    .text.inet_chksum_pseudo:000000000000006c .LVL51
C:\Users\stapi\AppData\Local\Temp\cclCogob.s:376    .text.inet_chksum_pseudo:00000000000000a2 .LVL58
C:\Users\stapi\AppData\Local\Temp\cclCogob.s:3724   .debug_str:0000000000000401 .LASF47
C:\Users\stapi\AppData\Local\Temp\cclCogob.s:3692   .debug_str:00000000000002d0 .LASF48
C:\Users\stapi\AppData\Local\Temp\cclCogob.s:14     .text.lwip_standard_chksum:0000000000000000 .LFB4
C:\Users\stapi\AppData\Local\Temp\cclCogob.s:211    .text.lwip_standard_chksum:00000000000000ac .LFE4
C:\Users\stapi\AppData\Local\Temp\cclCogob.s:3416   .debug_loc:000000000000085e .LLST0
C:\Users\stapi\AppData\Local\Temp\cclCogob.s:3436   .debug_loc:000000000000088c .LLST1
C:\Users\stapi\AppData\Local\Temp\cclCogob.s:3463   .debug_loc:00000000000008cf .LLST2
C:\Users\stapi\AppData\Local\Temp\cclCogob.s:3480   .debug_loc:00000000000008fa .LLST3
C:\Users\stapi\AppData\Local\Temp\cclCogob.s:3505   .debug_loc:000000000000093b .LLST4
C:\Users\stapi\AppData\Local\Temp\cclCogob.s:3522   .debug_loc:0000000000000966 .LLST5
C:\Users\stapi\AppData\Local\Temp\cclCogob.s:3566   .debug_loc:00000000000009dd .LLST6
C:\Users\stapi\AppData\Local\Temp\cclCogob.s:3732   .debug_str:0000000000000433 .LASF49
C:\Users\stapi\AppData\Local\Temp\cclCogob.s:3686   .debug_str:00000000000002af .LASF50
C:\Users\stapi\AppData\Local\Temp\cclCogob.s:3642   .debug_str:000000000000003f .LASF51
C:\Users\stapi\AppData\Local\Temp\cclCogob.s:760    .text.inet_chksum_pbuf:0000000000000000 .LVL109
C:\Users\stapi\AppData\Local\Temp\cclCogob.s:785    .text.inet_chksum_pbuf:0000000000000012 .LVL112
C:\Users\stapi\AppData\Local\Temp\cclCogob.s:771    .text.inet_chksum_pbuf:0000000000000008 .LVL110
C:\Users\stapi\AppData\Local\Temp\cclCogob.s:799    .text.inet_chksum_pbuf:0000000000000022 .LVL113
C:\Users\stapi\AppData\Local\Temp\cclCogob.s:804    .text.inet_chksum_pbuf:000000000000002a .LVL114
C:\Users\stapi\AppData\Local\Temp\cclCogob.s:834    .text.inet_chksum_pbuf:0000000000000052 .LVL117
C:\Users\stapi\AppData\Local\Temp\cclCogob.s:837    .text.inet_chksum_pbuf:0000000000000054 .LVL118
C:\Users\stapi\AppData\Local\Temp\cclCogob.s:848    .text.inet_chksum_pbuf:0000000000000062 .LVL119
C:\Users\stapi\AppData\Local\Temp\cclCogob.s:856    .text.inet_chksum_pbuf:0000000000000070 .LVL121
C:\Users\stapi\AppData\Local\Temp\cclCogob.s:778    .text.inet_chksum_pbuf:000000000000000c .LVL111
C:\Users\stapi\AppData\Local\Temp\cclCogob.s:734    .text.inet_chksum:0000000000000000 .LVL107
C:\Users\stapi\AppData\Local\Temp\cclCogob.s:718    .text.ip_chksum_pseudo_partial:0000000000000000 .LVL105
C:\Users\stapi\AppData\Local\Temp\cclCogob.s:452    .text.inet_chksum_pseudo_partial:0000000000000000 .LVL68
C:\Users\stapi\AppData\Local\Temp\cclCogob.s:535    .text.inet_chksum_pseudo_partial:0000000000000044 .LVL78
C:\Users\stapi\AppData\Local\Temp\cclCogob.s:473    .text.inet_chksum_pseudo_partial:000000000000000c .LVL70
C:\Users\stapi\AppData\Local\Temp\cclCogob.s:470    .text.inet_chksum_pseudo_partial:000000000000000a .LVL69
C:\Users\stapi\AppData\Local\Temp\cclCogob.s:485    .text.inet_chksum_pseudo_partial:0000000000000016 .LVL71
C:\Users\stapi\AppData\Local\Temp\cclCogob.s:492    .text.inet_chksum_pseudo_partial:0000000000000020 .LVL72
C:\Users\stapi\AppData\Local\Temp\cclCogob.s:495    .text.inet_chksum_pseudo_partial:0000000000000022 .LVL73
C:\Users\stapi\AppData\Local\Temp\cclCogob.s:500    .text.inet_chksum_pseudo_partial:000000000000002a .LVL74
C:\Users\stapi\AppData\Local\Temp\cclCogob.s:503    .text.inet_chksum_pseudo_partial:000000000000002c .LVL75
C:\Users\stapi\AppData\Local\Temp\cclCogob.s:515    .text.inet_chksum_pseudo_partial:0000000000000036 .LVL76
C:\Users\stapi\AppData\Local\Temp\cclCogob.s:523    .text.inet_chksum_pseudo_partial:0000000000000040 .LVL77
C:\Users\stapi\AppData\Local\Temp\cclCogob.s:551    .text.inet_chksum_pseudo_partial:0000000000000056 .LVL80
C:\Users\stapi\AppData\Local\Temp\cclCogob.s:559    .text.inet_chksum_pseudo_partial:0000000000000062 .LVL82
C:\Users\stapi\AppData\Local\Temp\cclCogob.s:564    .text.inet_chksum_pseudo_partial:0000000000000066 .LVL83
C:\Users\stapi\AppData\Local\Temp\cclCogob.s:570    .text.inet_chksum_pseudo_partial:000000000000006e .LVL84
C:\Users\stapi\AppData\Local\Temp\cclCogob.s:573    .text.inet_chksum_pseudo_partial:0000000000000070 .LVL85
C:\Users\stapi\AppData\Local\Temp\cclCogob.s:578    .text.inet_chksum_pseudo_partial:0000000000000076 .LVL86
C:\Users\stapi\AppData\Local\Temp\cclCogob.s:602    .text.inet_chksum_pseudo_partial:0000000000000088 .LVL87
C:\Users\stapi\AppData\Local\Temp\cclCogob.s:613    .text.inet_chksum_pseudo_partial:0000000000000090 .LVL88
C:\Users\stapi\AppData\Local\Temp\cclCogob.s:616    .text.inet_chksum_pseudo_partial:0000000000000092 .LVL89
C:\Users\stapi\AppData\Local\Temp\cclCogob.s:627    .text.inet_chksum_pseudo_partial:00000000000000a0 .LVL90
C:\Users\stapi\AppData\Local\Temp\cclCogob.s:635    .text.inet_chksum_pseudo_partial:00000000000000ae .LVL92
C:\Users\stapi\AppData\Local\Temp\cclCogob.s:698    .text.inet_chksum_pseudo_partial:0000000000000108 .LVL103
C:\Users\stapi\AppData\Local\Temp\cclCogob.s:703    .text.inet_chksum_pseudo_partial:0000000000000110 .LVL104
C:\Users\stapi\AppData\Local\Temp\cclCogob.s:663    .text.inet_chksum_pseudo_partial:00000000000000ce .LVL98
C:\Users\stapi\AppData\Local\Temp\cclCogob.s:670    .text.inet_chksum_pseudo_partial:00000000000000d4 .LVL100
C:\Users\stapi\AppData\Local\Temp\cclCogob.s:642    .text.inet_chksum_pseudo_partial:00000000000000b2 .LVL94
C:\Users\stapi\AppData\Local\Temp\cclCogob.s:650    .text.inet_chksum_pseudo_partial:00000000000000ba .LVL95
C:\Users\stapi\AppData\Local\Temp\cclCogob.s:690    .text.inet_chksum_pseudo_partial:00000000000000fe .LVL102
C:\Users\stapi\AppData\Local\Temp\cclCogob.s:426    .text.ip_chksum_pseudo:0000000000000000 .LVL66
C:\Users\stapi\AppData\Local\Temp\cclCogob.s:221    .text.inet_chksum_pseudo:0000000000000000 .LVL36
C:\Users\stapi\AppData\Local\Temp\cclCogob.s:290    .text.inet_chksum_pseudo:000000000000003e .LVL46
C:\Users\stapi\AppData\Local\Temp\cclCogob.s:236    .text.inet_chksum_pseudo:000000000000000a .LVL37
C:\Users\stapi\AppData\Local\Temp\cclCogob.s:239    .text.inet_chksum_pseudo:000000000000000c .LVL38
C:\Users\stapi\AppData\Local\Temp\cclCogob.s:251    .text.inet_chksum_pseudo:0000000000000016 .LVL39
C:\Users\stapi\AppData\Local\Temp\cclCogob.s:258    .text.inet_chksum_pseudo:0000000000000020 .LVL40
C:\Users\stapi\AppData\Local\Temp\cclCogob.s:261    .text.inet_chksum_pseudo:0000000000000022 .LVL41
C:\Users\stapi\AppData\Local\Temp\cclCogob.s:266    .text.inet_chksum_pseudo:000000000000002a .LVL42
C:\Users\stapi\AppData\Local\Temp\cclCogob.s:269    .text.inet_chksum_pseudo:000000000000002c .LVL43
C:\Users\stapi\AppData\Local\Temp\cclCogob.s:274    .text.inet_chksum_pseudo:0000000000000034 .LVL44
C:\Users\stapi\AppData\Local\Temp\cclCogob.s:281    .text.inet_chksum_pseudo:000000000000003c .LVL45
C:\Users\stapi\AppData\Local\Temp\cclCogob.s:304    .text.inet_chksum_pseudo:000000000000004e .LVL47
C:\Users\stapi\AppData\Local\Temp\cclCogob.s:309    .text.inet_chksum_pseudo:0000000000000056 .LVL48
C:\Users\stapi\AppData\Local\Temp\cclCogob.s:317    .text.inet_chksum_pseudo:0000000000000062 .LVL50
C:\Users\stapi\AppData\Local\Temp\cclCogob.s:325    .text.inet_chksum_pseudo:000000000000006e .LVL52
C:\Users\stapi\AppData\Local\Temp\cclCogob.s:330    .text.inet_chksum_pseudo:0000000000000072 .LVL53
C:\Users\stapi\AppData\Local\Temp\cclCogob.s:336    .text.inet_chksum_pseudo:000000000000007a .LVL54
C:\Users\stapi\AppData\Local\Temp\cclCogob.s:339    .text.inet_chksum_pseudo:000000000000007c .LVL55
C:\Users\stapi\AppData\Local\Temp\cclCogob.s:344    .text.inet_chksum_pseudo:0000000000000082 .LVL56
C:\Users\stapi\AppData\Local\Temp\cclCogob.s:365    .text.inet_chksum_pseudo:0000000000000094 .LVL57
C:\Users\stapi\AppData\Local\Temp\cclCogob.s:384    .text.inet_chksum_pseudo:00000000000000ac .LVL60
C:\Users\stapi\AppData\Local\Temp\cclCogob.s:387    .text.inet_chksum_pseudo:00000000000000ae .LVL61
C:\Users\stapi\AppData\Local\Temp\cclCogob.s:398    .text.inet_chksum_pseudo:00000000000000bc .LVL62
C:\Users\stapi\AppData\Local\Temp\cclCogob.s:406    .text.inet_chksum_pseudo:00000000000000ca .LVL64
C:\Users\stapi\AppData\Local\Temp\cclCogob.s:18     .text.lwip_standard_chksum:0000000000000000 .LVL0
C:\Users\stapi\AppData\Local\Temp\cclCogob.s:48     .text.lwip_standard_chksum:0000000000000018 .LVL5
C:\Users\stapi\AppData\Local\Temp\cclCogob.s:52     .text.lwip_standard_chksum:000000000000001c .LVL6
C:\Users\stapi\AppData\Local\Temp\cclCogob.s:45     .text.lwip_standard_chksum:0000000000000016 .LVL4
C:\Users\stapi\AppData\Local\Temp\cclCogob.s:204    .text.lwip_standard_chksum:00000000000000a8 .LVL34
C:\Users\stapi\AppData\Local\Temp\cclCogob.s:207    .text.lwip_standard_chksum:00000000000000aa .LVL35
C:\Users\stapi\AppData\Local\Temp\cclCogob.s:40     .text.lwip_standard_chksum:0000000000000010 .LVL3
C:\Users\stapi\AppData\Local\Temp\cclCogob.s:77     .text.lwip_standard_chksum:0000000000000032 .LVL10
C:\Users\stapi\AppData\Local\Temp\cclCogob.s:67     .text.lwip_standard_chksum:000000000000002a .LVL7
C:\Users\stapi\AppData\Local\Temp\cclCogob.s:81     .text.lwip_standard_chksum:0000000000000034 .LVL11
C:\Users\stapi\AppData\Local\Temp\cclCogob.s:92     .text.lwip_standard_chksum:0000000000000042 .LVL13
C:\Users\stapi\AppData\Local\Temp\cclCogob.s:112    .text.lwip_standard_chksum:0000000000000058 .LVL15
C:\Users\stapi\AppData\Local\Temp\cclCogob.s:194    .text.lwip_standard_chksum:00000000000000a0 .LVL32
C:\Users\stapi\AppData\Local\Temp\cclCogob.s:97     .text.lwip_standard_chksum:0000000000000044 .LVL14
C:\Users\stapi\AppData\Local\Temp\cclCogob.s:157    .text.lwip_standard_chksum:0000000000000086 .LVL24
C:\Users\stapi\AppData\Local\Temp\cclCogob.s:178    .text.lwip_standard_chksum:0000000000000094 .LVL28
C:\Users\stapi\AppData\Local\Temp\cclCogob.s:29     .text.lwip_standard_chksum:0000000000000006 .LVL1
C:\Users\stapi\AppData\Local\Temp\cclCogob.s:70     .text.lwip_standard_chksum:000000000000002e .LVL8
C:\Users\stapi\AppData\Local\Temp\cclCogob.s:89     .text.lwip_standard_chksum:0000000000000040 .LVL12
C:\Users\stapi\AppData\Local\Temp\cclCogob.s:118    .text.lwip_standard_chksum:000000000000005e .LVL16
C:\Users\stapi\AppData\Local\Temp\cclCogob.s:123    .text.lwip_standard_chksum:0000000000000064 .LVL17
C:\Users\stapi\AppData\Local\Temp\cclCogob.s:126    .text.lwip_standard_chksum:0000000000000066 .LVL18
C:\Users\stapi\AppData\Local\Temp\cclCogob.s:131    .text.lwip_standard_chksum:000000000000006c .LVL19
C:\Users\stapi\AppData\Local\Temp\cclCogob.s:134    .text.lwip_standard_chksum:000000000000006e .LVL20
C:\Users\stapi\AppData\Local\Temp\cclCogob.s:142    .text.lwip_standard_chksum:0000000000000076 .LVL21
C:\Users\stapi\AppData\Local\Temp\cclCogob.s:147    .text.lwip_standard_chksum:000000000000007e .LVL22
C:\Users\stapi\AppData\Local\Temp\cclCogob.s:152    .text.lwip_standard_chksum:0000000000000082 .LVL23
C:\Users\stapi\AppData\Local\Temp\cclCogob.s:176    .text.lwip_standard_chksum:0000000000000092 .LVL27
C:\Users\stapi\AppData\Local\Temp\cclCogob.s:180    .text.lwip_standard_chksum:0000000000000096 .LVL29
C:\Users\stapi\AppData\Local\Temp\cclCogob.s:164    .text.lwip_standard_chksum:000000000000008a .LVL25
C:\Users\stapi\AppData\Local\Temp\cclCogob.s:878    .debug_info:0000000000000000 .Ldebug_info0
C:\Users\stapi\AppData\Local\Temp\cclCogob.s:352    .text.inet_chksum_pseudo:0000000000000088 .LBE4
C:\Users\stapi\AppData\Local\Temp\cclCogob.s:368    .text.inet_chksum_pseudo:0000000000000094 .LBB7
C:\Users\stapi\AppData\Local\Temp\cclCogob.s:414    .text.inet_chksum_pseudo:00000000000000ce .LBE7
C:\Users\stapi\AppData\Local\Temp\cclCogob.s:512    .text.inet_chksum_pseudo_partial:0000000000000032 .LBE10
C:\Users\stapi\AppData\Local\Temp\cclCogob.s:525    .text.inet_chksum_pseudo_partial:0000000000000040 .LBB14
C:\Users\stapi\AppData\Local\Temp\cclCogob.s:586    .text.inet_chksum_pseudo_partial:000000000000007c .LBE14
C:\Users\stapi\AppData\Local\Temp\cclCogob.s:605    .text.inet_chksum_pseudo_partial:0000000000000088 .LBB15
C:\Users\stapi\AppData\Local\Temp\cclCogob.s:706    .text.inet_chksum_pseudo_partial:0000000000000112 .LBE15

UNDEFINED SYMBOLS
__riscv_save_6
lwip_htons
__riscv_restore_6
wifi_ip_chksum
__riscv_save_9
__riscv_restore_9
printf
__riscv_save_0
__riscv_restore_0
__riscv_save_4
__riscv_restore_4
