   1              		.file	"ip4.c"
   2              		.option nopic
   3              		.attribute arch, "rv32i2p0_m2p0_a2p0_f2p0_c2p0_b_p0p94"
   4              		.attribute unaligned_access, 0
   5              		.attribute stack_align, 16
   6              		.text
   7              	.Ltext0:
   8              		.cfi_sections	.debug_frame
   9              		.section	.text.ip4_input_accept,"ax",@progbits
  10              		.align	1
  12              	ip4_input_accept:
  13              	.LFB6:
  14              		.file 1 "C:/Users/stapi/OneDrive/Desktop/GD32VW553/V1_MQTT_OK/GD32VW55X_Wifi_BLE_SDK/GD32VW55x_REL
   1:C:/Users/stapi/OneDrive/Desktop/GD32VW553/V1_MQTT_OK/GD32VW55X_Wifi_BLE_SDK/GD32VW55x_RELEASE_V1.0.2/MSDK/lwip/lwip-2.1.2/src/core/ipv4\ip4.c **** /**
   2:C:/Users/stapi/OneDrive/Desktop/GD32VW553/V1_MQTT_OK/GD32VW55X_Wifi_BLE_SDK/GD32VW55x_RELEASE_V1.0.2/MSDK/lwip/lwip-2.1.2/src/core/ipv4\ip4.c ****  * @file
   3:C:/Users/stapi/OneDrive/Desktop/GD32VW553/V1_MQTT_OK/GD32VW55X_Wifi_BLE_SDK/GD32VW55x_RELEASE_V1.0.2/MSDK/lwip/lwip-2.1.2/src/core/ipv4\ip4.c ****  * This is the IPv4 layer implementation for incoming and outgoing IP traffic.
   4:C:/Users/stapi/OneDrive/Desktop/GD32VW553/V1_MQTT_OK/GD32VW55X_Wifi_BLE_SDK/GD32VW55x_RELEASE_V1.0.2/MSDK/lwip/lwip-2.1.2/src/core/ipv4\ip4.c ****  *
   5:C:/Users/stapi/OneDrive/Desktop/GD32VW553/V1_MQTT_OK/GD32VW55X_Wifi_BLE_SDK/GD32VW55x_RELEASE_V1.0.2/MSDK/lwip/lwip-2.1.2/src/core/ipv4\ip4.c ****  * @see ip_frag.c
   6:C:/Users/stapi/OneDrive/Desktop/GD32VW553/V1_MQTT_OK/GD32VW55X_Wifi_BLE_SDK/GD32VW55x_RELEASE_V1.0.2/MSDK/lwip/lwip-2.1.2/src/core/ipv4\ip4.c ****  *
   7:C:/Users/stapi/OneDrive/Desktop/GD32VW553/V1_MQTT_OK/GD32VW55X_Wifi_BLE_SDK/GD32VW55x_RELEASE_V1.0.2/MSDK/lwip/lwip-2.1.2/src/core/ipv4\ip4.c ****  */
   8:C:/Users/stapi/OneDrive/Desktop/GD32VW553/V1_MQTT_OK/GD32VW55X_Wifi_BLE_SDK/GD32VW55x_RELEASE_V1.0.2/MSDK/lwip/lwip-2.1.2/src/core/ipv4\ip4.c **** 
   9:C:/Users/stapi/OneDrive/Desktop/GD32VW553/V1_MQTT_OK/GD32VW55X_Wifi_BLE_SDK/GD32VW55x_RELEASE_V1.0.2/MSDK/lwip/lwip-2.1.2/src/core/ipv4\ip4.c **** /*
  10:C:/Users/stapi/OneDrive/Desktop/GD32VW553/V1_MQTT_OK/GD32VW55X_Wifi_BLE_SDK/GD32VW55x_RELEASE_V1.0.2/MSDK/lwip/lwip-2.1.2/src/core/ipv4\ip4.c ****  * Copyright (c) 2001-2004 Swedish Institute of Computer Science.
  11:C:/Users/stapi/OneDrive/Desktop/GD32VW553/V1_MQTT_OK/GD32VW55X_Wifi_BLE_SDK/GD32VW55x_RELEASE_V1.0.2/MSDK/lwip/lwip-2.1.2/src/core/ipv4\ip4.c ****  * All rights reserved.
  12:C:/Users/stapi/OneDrive/Desktop/GD32VW553/V1_MQTT_OK/GD32VW55X_Wifi_BLE_SDK/GD32VW55x_RELEASE_V1.0.2/MSDK/lwip/lwip-2.1.2/src/core/ipv4\ip4.c ****  *
  13:C:/Users/stapi/OneDrive/Desktop/GD32VW553/V1_MQTT_OK/GD32VW55X_Wifi_BLE_SDK/GD32VW55x_RELEASE_V1.0.2/MSDK/lwip/lwip-2.1.2/src/core/ipv4\ip4.c ****  * Redistribution and use in source and binary forms, with or without modification,
  14:C:/Users/stapi/OneDrive/Desktop/GD32VW553/V1_MQTT_OK/GD32VW55X_Wifi_BLE_SDK/GD32VW55x_RELEASE_V1.0.2/MSDK/lwip/lwip-2.1.2/src/core/ipv4\ip4.c ****  * are permitted provided that the following conditions are met:
  15:C:/Users/stapi/OneDrive/Desktop/GD32VW553/V1_MQTT_OK/GD32VW55X_Wifi_BLE_SDK/GD32VW55x_RELEASE_V1.0.2/MSDK/lwip/lwip-2.1.2/src/core/ipv4\ip4.c ****  *
  16:C:/Users/stapi/OneDrive/Desktop/GD32VW553/V1_MQTT_OK/GD32VW55X_Wifi_BLE_SDK/GD32VW55x_RELEASE_V1.0.2/MSDK/lwip/lwip-2.1.2/src/core/ipv4\ip4.c ****  * 1. Redistributions of source code must retain the above copyright notice,
  17:C:/Users/stapi/OneDrive/Desktop/GD32VW553/V1_MQTT_OK/GD32VW55X_Wifi_BLE_SDK/GD32VW55x_RELEASE_V1.0.2/MSDK/lwip/lwip-2.1.2/src/core/ipv4\ip4.c ****  *    this list of conditions and the following disclaimer.
  18:C:/Users/stapi/OneDrive/Desktop/GD32VW553/V1_MQTT_OK/GD32VW55X_Wifi_BLE_SDK/GD32VW55x_RELEASE_V1.0.2/MSDK/lwip/lwip-2.1.2/src/core/ipv4\ip4.c ****  * 2. Redistributions in binary form must reproduce the above copyright notice,
  19:C:/Users/stapi/OneDrive/Desktop/GD32VW553/V1_MQTT_OK/GD32VW55X_Wifi_BLE_SDK/GD32VW55x_RELEASE_V1.0.2/MSDK/lwip/lwip-2.1.2/src/core/ipv4\ip4.c ****  *    this list of conditions and the following disclaimer in the documentation
  20:C:/Users/stapi/OneDrive/Desktop/GD32VW553/V1_MQTT_OK/GD32VW55X_Wifi_BLE_SDK/GD32VW55x_RELEASE_V1.0.2/MSDK/lwip/lwip-2.1.2/src/core/ipv4\ip4.c ****  *    and/or other materials provided with the distribution.
  21:C:/Users/stapi/OneDrive/Desktop/GD32VW553/V1_MQTT_OK/GD32VW55X_Wifi_BLE_SDK/GD32VW55x_RELEASE_V1.0.2/MSDK/lwip/lwip-2.1.2/src/core/ipv4\ip4.c ****  * 3. The name of the author may not be used to endorse or promote products
  22:C:/Users/stapi/OneDrive/Desktop/GD32VW553/V1_MQTT_OK/GD32VW55X_Wifi_BLE_SDK/GD32VW55x_RELEASE_V1.0.2/MSDK/lwip/lwip-2.1.2/src/core/ipv4\ip4.c ****  *    derived from this software without specific prior written permission.
  23:C:/Users/stapi/OneDrive/Desktop/GD32VW553/V1_MQTT_OK/GD32VW55X_Wifi_BLE_SDK/GD32VW55x_RELEASE_V1.0.2/MSDK/lwip/lwip-2.1.2/src/core/ipv4\ip4.c ****  *
  24:C:/Users/stapi/OneDrive/Desktop/GD32VW553/V1_MQTT_OK/GD32VW55X_Wifi_BLE_SDK/GD32VW55x_RELEASE_V1.0.2/MSDK/lwip/lwip-2.1.2/src/core/ipv4\ip4.c ****  * THIS SOFTWARE IS PROVIDED BY THE AUTHOR ``AS IS'' AND ANY EXPRESS OR IMPLIED
  25:C:/Users/stapi/OneDrive/Desktop/GD32VW553/V1_MQTT_OK/GD32VW55X_Wifi_BLE_SDK/GD32VW55x_RELEASE_V1.0.2/MSDK/lwip/lwip-2.1.2/src/core/ipv4\ip4.c ****  * WARRANTIES, INCLUDING, BUT NOT LIMITED TO, THE IMPLIED WARRANTIES OF
  26:C:/Users/stapi/OneDrive/Desktop/GD32VW553/V1_MQTT_OK/GD32VW55X_Wifi_BLE_SDK/GD32VW55x_RELEASE_V1.0.2/MSDK/lwip/lwip-2.1.2/src/core/ipv4\ip4.c ****  * MERCHANTABILITY AND FITNESS FOR A PARTICULAR PURPOSE ARE DISCLAIMED. IN NO EVENT
  27:C:/Users/stapi/OneDrive/Desktop/GD32VW553/V1_MQTT_OK/GD32VW55X_Wifi_BLE_SDK/GD32VW55x_RELEASE_V1.0.2/MSDK/lwip/lwip-2.1.2/src/core/ipv4\ip4.c ****  * SHALL THE AUTHOR BE LIABLE FOR ANY DIRECT, INDIRECT, INCIDENTAL, SPECIAL,
  28:C:/Users/stapi/OneDrive/Desktop/GD32VW553/V1_MQTT_OK/GD32VW55X_Wifi_BLE_SDK/GD32VW55x_RELEASE_V1.0.2/MSDK/lwip/lwip-2.1.2/src/core/ipv4\ip4.c ****  * EXEMPLARY, OR CONSEQUENTIAL DAMAGES (INCLUDING, BUT NOT LIMITED TO, PROCUREMENT
  29:C:/Users/stapi/OneDrive/Desktop/GD32VW553/V1_MQTT_OK/GD32VW55X_Wifi_BLE_SDK/GD32VW55x_RELEASE_V1.0.2/MSDK/lwip/lwip-2.1.2/src/core/ipv4\ip4.c ****  * OF SUBSTITUTE GOODS OR SERVICES; LOSS OF USE, DATA, OR PROFITS; OR BUSINESS
  30:C:/Users/stapi/OneDrive/Desktop/GD32VW553/V1_MQTT_OK/GD32VW55X_Wifi_BLE_SDK/GD32VW55x_RELEASE_V1.0.2/MSDK/lwip/lwip-2.1.2/src/core/ipv4\ip4.c ****  * INTERRUPTION) HOWEVER CAUSED AND ON ANY THEORY OF LIABILITY, WHETHER IN
  31:C:/Users/stapi/OneDrive/Desktop/GD32VW553/V1_MQTT_OK/GD32VW55X_Wifi_BLE_SDK/GD32VW55x_RELEASE_V1.0.2/MSDK/lwip/lwip-2.1.2/src/core/ipv4\ip4.c ****  * CONTRACT, STRICT LIABILITY, OR TORT (INCLUDING NEGLIGENCE OR OTHERWISE) ARISING
  32:C:/Users/stapi/OneDrive/Desktop/GD32VW553/V1_MQTT_OK/GD32VW55X_Wifi_BLE_SDK/GD32VW55x_RELEASE_V1.0.2/MSDK/lwip/lwip-2.1.2/src/core/ipv4\ip4.c ****  * IN ANY WAY OUT OF THE USE OF THIS SOFTWARE, EVEN IF ADVISED OF THE POSSIBILITY
  33:C:/Users/stapi/OneDrive/Desktop/GD32VW553/V1_MQTT_OK/GD32VW55X_Wifi_BLE_SDK/GD32VW55x_RELEASE_V1.0.2/MSDK/lwip/lwip-2.1.2/src/core/ipv4\ip4.c ****  * OF SUCH DAMAGE.
  34:C:/Users/stapi/OneDrive/Desktop/GD32VW553/V1_MQTT_OK/GD32VW55X_Wifi_BLE_SDK/GD32VW55x_RELEASE_V1.0.2/MSDK/lwip/lwip-2.1.2/src/core/ipv4\ip4.c ****  *
  35:C:/Users/stapi/OneDrive/Desktop/GD32VW553/V1_MQTT_OK/GD32VW55X_Wifi_BLE_SDK/GD32VW55x_RELEASE_V1.0.2/MSDK/lwip/lwip-2.1.2/src/core/ipv4\ip4.c ****  * This file is part of the lwIP TCP/IP stack.
  36:C:/Users/stapi/OneDrive/Desktop/GD32VW553/V1_MQTT_OK/GD32VW55X_Wifi_BLE_SDK/GD32VW55x_RELEASE_V1.0.2/MSDK/lwip/lwip-2.1.2/src/core/ipv4\ip4.c ****  *
  37:C:/Users/stapi/OneDrive/Desktop/GD32VW553/V1_MQTT_OK/GD32VW55X_Wifi_BLE_SDK/GD32VW55x_RELEASE_V1.0.2/MSDK/lwip/lwip-2.1.2/src/core/ipv4\ip4.c ****  * Author: Adam Dunkels <adam@sics.se>
  38:C:/Users/stapi/OneDrive/Desktop/GD32VW553/V1_MQTT_OK/GD32VW55X_Wifi_BLE_SDK/GD32VW55x_RELEASE_V1.0.2/MSDK/lwip/lwip-2.1.2/src/core/ipv4\ip4.c ****  *
  39:C:/Users/stapi/OneDrive/Desktop/GD32VW553/V1_MQTT_OK/GD32VW55X_Wifi_BLE_SDK/GD32VW55x_RELEASE_V1.0.2/MSDK/lwip/lwip-2.1.2/src/core/ipv4\ip4.c ****  */
  40:C:/Users/stapi/OneDrive/Desktop/GD32VW553/V1_MQTT_OK/GD32VW55X_Wifi_BLE_SDK/GD32VW55x_RELEASE_V1.0.2/MSDK/lwip/lwip-2.1.2/src/core/ipv4\ip4.c **** 
  41:C:/Users/stapi/OneDrive/Desktop/GD32VW553/V1_MQTT_OK/GD32VW55X_Wifi_BLE_SDK/GD32VW55x_RELEASE_V1.0.2/MSDK/lwip/lwip-2.1.2/src/core/ipv4\ip4.c **** #include "lwip/opt.h"
  42:C:/Users/stapi/OneDrive/Desktop/GD32VW553/V1_MQTT_OK/GD32VW55X_Wifi_BLE_SDK/GD32VW55x_RELEASE_V1.0.2/MSDK/lwip/lwip-2.1.2/src/core/ipv4\ip4.c **** 
  43:C:/Users/stapi/OneDrive/Desktop/GD32VW553/V1_MQTT_OK/GD32VW55X_Wifi_BLE_SDK/GD32VW55x_RELEASE_V1.0.2/MSDK/lwip/lwip-2.1.2/src/core/ipv4\ip4.c **** #if LWIP_IPV4
  44:C:/Users/stapi/OneDrive/Desktop/GD32VW553/V1_MQTT_OK/GD32VW55X_Wifi_BLE_SDK/GD32VW55x_RELEASE_V1.0.2/MSDK/lwip/lwip-2.1.2/src/core/ipv4\ip4.c **** 
  45:C:/Users/stapi/OneDrive/Desktop/GD32VW553/V1_MQTT_OK/GD32VW55X_Wifi_BLE_SDK/GD32VW55x_RELEASE_V1.0.2/MSDK/lwip/lwip-2.1.2/src/core/ipv4\ip4.c **** #include "lwip/ip.h"
  46:C:/Users/stapi/OneDrive/Desktop/GD32VW553/V1_MQTT_OK/GD32VW55X_Wifi_BLE_SDK/GD32VW55x_RELEASE_V1.0.2/MSDK/lwip/lwip-2.1.2/src/core/ipv4\ip4.c **** #include "lwip/def.h"
  47:C:/Users/stapi/OneDrive/Desktop/GD32VW553/V1_MQTT_OK/GD32VW55X_Wifi_BLE_SDK/GD32VW55x_RELEASE_V1.0.2/MSDK/lwip/lwip-2.1.2/src/core/ipv4\ip4.c **** #include "lwip/mem.h"
  48:C:/Users/stapi/OneDrive/Desktop/GD32VW553/V1_MQTT_OK/GD32VW55X_Wifi_BLE_SDK/GD32VW55x_RELEASE_V1.0.2/MSDK/lwip/lwip-2.1.2/src/core/ipv4\ip4.c **** #include "lwip/ip4_frag.h"
  49:C:/Users/stapi/OneDrive/Desktop/GD32VW553/V1_MQTT_OK/GD32VW55X_Wifi_BLE_SDK/GD32VW55x_RELEASE_V1.0.2/MSDK/lwip/lwip-2.1.2/src/core/ipv4\ip4.c **** #include "lwip/inet_chksum.h"
  50:C:/Users/stapi/OneDrive/Desktop/GD32VW553/V1_MQTT_OK/GD32VW55X_Wifi_BLE_SDK/GD32VW55x_RELEASE_V1.0.2/MSDK/lwip/lwip-2.1.2/src/core/ipv4\ip4.c **** #include "lwip/netif.h"
  51:C:/Users/stapi/OneDrive/Desktop/GD32VW553/V1_MQTT_OK/GD32VW55X_Wifi_BLE_SDK/GD32VW55x_RELEASE_V1.0.2/MSDK/lwip/lwip-2.1.2/src/core/ipv4\ip4.c **** #include "lwip/icmp.h"
  52:C:/Users/stapi/OneDrive/Desktop/GD32VW553/V1_MQTT_OK/GD32VW55X_Wifi_BLE_SDK/GD32VW55x_RELEASE_V1.0.2/MSDK/lwip/lwip-2.1.2/src/core/ipv4\ip4.c **** #include "lwip/igmp.h"
  53:C:/Users/stapi/OneDrive/Desktop/GD32VW553/V1_MQTT_OK/GD32VW55X_Wifi_BLE_SDK/GD32VW55x_RELEASE_V1.0.2/MSDK/lwip/lwip-2.1.2/src/core/ipv4\ip4.c **** #include "lwip/priv/raw_priv.h"
  54:C:/Users/stapi/OneDrive/Desktop/GD32VW553/V1_MQTT_OK/GD32VW55X_Wifi_BLE_SDK/GD32VW55x_RELEASE_V1.0.2/MSDK/lwip/lwip-2.1.2/src/core/ipv4\ip4.c **** #include "lwip/udp.h"
  55:C:/Users/stapi/OneDrive/Desktop/GD32VW553/V1_MQTT_OK/GD32VW55X_Wifi_BLE_SDK/GD32VW55x_RELEASE_V1.0.2/MSDK/lwip/lwip-2.1.2/src/core/ipv4\ip4.c **** #include "lwip/priv/tcp_priv.h"
  56:C:/Users/stapi/OneDrive/Desktop/GD32VW553/V1_MQTT_OK/GD32VW55X_Wifi_BLE_SDK/GD32VW55x_RELEASE_V1.0.2/MSDK/lwip/lwip-2.1.2/src/core/ipv4\ip4.c **** #include "lwip/autoip.h"
  57:C:/Users/stapi/OneDrive/Desktop/GD32VW553/V1_MQTT_OK/GD32VW55X_Wifi_BLE_SDK/GD32VW55x_RELEASE_V1.0.2/MSDK/lwip/lwip-2.1.2/src/core/ipv4\ip4.c **** #include "lwip/stats.h"
  58:C:/Users/stapi/OneDrive/Desktop/GD32VW553/V1_MQTT_OK/GD32VW55X_Wifi_BLE_SDK/GD32VW55x_RELEASE_V1.0.2/MSDK/lwip/lwip-2.1.2/src/core/ipv4\ip4.c **** #include "lwip/prot/iana.h"
  59:C:/Users/stapi/OneDrive/Desktop/GD32VW553/V1_MQTT_OK/GD32VW55X_Wifi_BLE_SDK/GD32VW55x_RELEASE_V1.0.2/MSDK/lwip/lwip-2.1.2/src/core/ipv4\ip4.c **** 
  60:C:/Users/stapi/OneDrive/Desktop/GD32VW553/V1_MQTT_OK/GD32VW55X_Wifi_BLE_SDK/GD32VW55x_RELEASE_V1.0.2/MSDK/lwip/lwip-2.1.2/src/core/ipv4\ip4.c **** #include <string.h>
  61:C:/Users/stapi/OneDrive/Desktop/GD32VW553/V1_MQTT_OK/GD32VW55X_Wifi_BLE_SDK/GD32VW55x_RELEASE_V1.0.2/MSDK/lwip/lwip-2.1.2/src/core/ipv4\ip4.c **** 
  62:C:/Users/stapi/OneDrive/Desktop/GD32VW553/V1_MQTT_OK/GD32VW55X_Wifi_BLE_SDK/GD32VW55x_RELEASE_V1.0.2/MSDK/lwip/lwip-2.1.2/src/core/ipv4\ip4.c **** #ifdef LWIP_HOOK_FILENAME
  63:C:/Users/stapi/OneDrive/Desktop/GD32VW553/V1_MQTT_OK/GD32VW55X_Wifi_BLE_SDK/GD32VW55x_RELEASE_V1.0.2/MSDK/lwip/lwip-2.1.2/src/core/ipv4\ip4.c **** #include LWIP_HOOK_FILENAME
  64:C:/Users/stapi/OneDrive/Desktop/GD32VW553/V1_MQTT_OK/GD32VW55X_Wifi_BLE_SDK/GD32VW55x_RELEASE_V1.0.2/MSDK/lwip/lwip-2.1.2/src/core/ipv4\ip4.c **** #endif
  65:C:/Users/stapi/OneDrive/Desktop/GD32VW553/V1_MQTT_OK/GD32VW55X_Wifi_BLE_SDK/GD32VW55x_RELEASE_V1.0.2/MSDK/lwip/lwip-2.1.2/src/core/ipv4\ip4.c **** 
  66:C:/Users/stapi/OneDrive/Desktop/GD32VW553/V1_MQTT_OK/GD32VW55X_Wifi_BLE_SDK/GD32VW55x_RELEASE_V1.0.2/MSDK/lwip/lwip-2.1.2/src/core/ipv4\ip4.c **** /** Set this to 0 in the rare case of wanting to call an extra function to
  67:C:/Users/stapi/OneDrive/Desktop/GD32VW553/V1_MQTT_OK/GD32VW55X_Wifi_BLE_SDK/GD32VW55x_RELEASE_V1.0.2/MSDK/lwip/lwip-2.1.2/src/core/ipv4\ip4.c ****  * generate the IP checksum (in contrast to calculating it on-the-fly). */
  68:C:/Users/stapi/OneDrive/Desktop/GD32VW553/V1_MQTT_OK/GD32VW55X_Wifi_BLE_SDK/GD32VW55x_RELEASE_V1.0.2/MSDK/lwip/lwip-2.1.2/src/core/ipv4\ip4.c **** #ifndef LWIP_INLINE_IP_CHKSUM
  69:C:/Users/stapi/OneDrive/Desktop/GD32VW553/V1_MQTT_OK/GD32VW55X_Wifi_BLE_SDK/GD32VW55x_RELEASE_V1.0.2/MSDK/lwip/lwip-2.1.2/src/core/ipv4\ip4.c **** #if LWIP_CHECKSUM_CTRL_PER_NETIF
  70:C:/Users/stapi/OneDrive/Desktop/GD32VW553/V1_MQTT_OK/GD32VW55X_Wifi_BLE_SDK/GD32VW55x_RELEASE_V1.0.2/MSDK/lwip/lwip-2.1.2/src/core/ipv4\ip4.c **** #define LWIP_INLINE_IP_CHKSUM   0
  71:C:/Users/stapi/OneDrive/Desktop/GD32VW553/V1_MQTT_OK/GD32VW55X_Wifi_BLE_SDK/GD32VW55x_RELEASE_V1.0.2/MSDK/lwip/lwip-2.1.2/src/core/ipv4\ip4.c **** #else /* LWIP_CHECKSUM_CTRL_PER_NETIF */
  72:C:/Users/stapi/OneDrive/Desktop/GD32VW553/V1_MQTT_OK/GD32VW55X_Wifi_BLE_SDK/GD32VW55x_RELEASE_V1.0.2/MSDK/lwip/lwip-2.1.2/src/core/ipv4\ip4.c **** #define LWIP_INLINE_IP_CHKSUM   1
  73:C:/Users/stapi/OneDrive/Desktop/GD32VW553/V1_MQTT_OK/GD32VW55X_Wifi_BLE_SDK/GD32VW55x_RELEASE_V1.0.2/MSDK/lwip/lwip-2.1.2/src/core/ipv4\ip4.c **** #endif /* LWIP_CHECKSUM_CTRL_PER_NETIF */
  74:C:/Users/stapi/OneDrive/Desktop/GD32VW553/V1_MQTT_OK/GD32VW55X_Wifi_BLE_SDK/GD32VW55x_RELEASE_V1.0.2/MSDK/lwip/lwip-2.1.2/src/core/ipv4\ip4.c **** #endif
  75:C:/Users/stapi/OneDrive/Desktop/GD32VW553/V1_MQTT_OK/GD32VW55X_Wifi_BLE_SDK/GD32VW55x_RELEASE_V1.0.2/MSDK/lwip/lwip-2.1.2/src/core/ipv4\ip4.c **** 
  76:C:/Users/stapi/OneDrive/Desktop/GD32VW553/V1_MQTT_OK/GD32VW55X_Wifi_BLE_SDK/GD32VW55x_RELEASE_V1.0.2/MSDK/lwip/lwip-2.1.2/src/core/ipv4\ip4.c **** #if LWIP_INLINE_IP_CHKSUM && CHECKSUM_GEN_IP
  77:C:/Users/stapi/OneDrive/Desktop/GD32VW553/V1_MQTT_OK/GD32VW55X_Wifi_BLE_SDK/GD32VW55x_RELEASE_V1.0.2/MSDK/lwip/lwip-2.1.2/src/core/ipv4\ip4.c **** #define CHECKSUM_GEN_IP_INLINE  1
  78:C:/Users/stapi/OneDrive/Desktop/GD32VW553/V1_MQTT_OK/GD32VW55X_Wifi_BLE_SDK/GD32VW55x_RELEASE_V1.0.2/MSDK/lwip/lwip-2.1.2/src/core/ipv4\ip4.c **** #else
  79:C:/Users/stapi/OneDrive/Desktop/GD32VW553/V1_MQTT_OK/GD32VW55X_Wifi_BLE_SDK/GD32VW55x_RELEASE_V1.0.2/MSDK/lwip/lwip-2.1.2/src/core/ipv4\ip4.c **** #define CHECKSUM_GEN_IP_INLINE  0
  80:C:/Users/stapi/OneDrive/Desktop/GD32VW553/V1_MQTT_OK/GD32VW55X_Wifi_BLE_SDK/GD32VW55x_RELEASE_V1.0.2/MSDK/lwip/lwip-2.1.2/src/core/ipv4\ip4.c **** #endif
  81:C:/Users/stapi/OneDrive/Desktop/GD32VW553/V1_MQTT_OK/GD32VW55X_Wifi_BLE_SDK/GD32VW55x_RELEASE_V1.0.2/MSDK/lwip/lwip-2.1.2/src/core/ipv4\ip4.c **** 
  82:C:/Users/stapi/OneDrive/Desktop/GD32VW553/V1_MQTT_OK/GD32VW55X_Wifi_BLE_SDK/GD32VW55x_RELEASE_V1.0.2/MSDK/lwip/lwip-2.1.2/src/core/ipv4\ip4.c **** #if LWIP_DHCP || defined(LWIP_IP_ACCEPT_UDP_PORT)
  83:C:/Users/stapi/OneDrive/Desktop/GD32VW553/V1_MQTT_OK/GD32VW55X_Wifi_BLE_SDK/GD32VW55x_RELEASE_V1.0.2/MSDK/lwip/lwip-2.1.2/src/core/ipv4\ip4.c **** #define IP_ACCEPT_LINK_LAYER_ADDRESSING 1
  84:C:/Users/stapi/OneDrive/Desktop/GD32VW553/V1_MQTT_OK/GD32VW55X_Wifi_BLE_SDK/GD32VW55x_RELEASE_V1.0.2/MSDK/lwip/lwip-2.1.2/src/core/ipv4\ip4.c **** 
  85:C:/Users/stapi/OneDrive/Desktop/GD32VW553/V1_MQTT_OK/GD32VW55X_Wifi_BLE_SDK/GD32VW55x_RELEASE_V1.0.2/MSDK/lwip/lwip-2.1.2/src/core/ipv4\ip4.c **** /** Some defines for DHCP to let link-layer-addressed packets through while the
  86:C:/Users/stapi/OneDrive/Desktop/GD32VW553/V1_MQTT_OK/GD32VW55X_Wifi_BLE_SDK/GD32VW55x_RELEASE_V1.0.2/MSDK/lwip/lwip-2.1.2/src/core/ipv4\ip4.c ****  * netif is down.
  87:C:/Users/stapi/OneDrive/Desktop/GD32VW553/V1_MQTT_OK/GD32VW55X_Wifi_BLE_SDK/GD32VW55x_RELEASE_V1.0.2/MSDK/lwip/lwip-2.1.2/src/core/ipv4\ip4.c ****  * To use this in your own application/protocol, define LWIP_IP_ACCEPT_UDP_PORT(port)
  88:C:/Users/stapi/OneDrive/Desktop/GD32VW553/V1_MQTT_OK/GD32VW55X_Wifi_BLE_SDK/GD32VW55x_RELEASE_V1.0.2/MSDK/lwip/lwip-2.1.2/src/core/ipv4\ip4.c ****  * to return 1 if the port is accepted and 0 if the port is not accepted.
  89:C:/Users/stapi/OneDrive/Desktop/GD32VW553/V1_MQTT_OK/GD32VW55X_Wifi_BLE_SDK/GD32VW55x_RELEASE_V1.0.2/MSDK/lwip/lwip-2.1.2/src/core/ipv4\ip4.c ****  */
  90:C:/Users/stapi/OneDrive/Desktop/GD32VW553/V1_MQTT_OK/GD32VW55X_Wifi_BLE_SDK/GD32VW55x_RELEASE_V1.0.2/MSDK/lwip/lwip-2.1.2/src/core/ipv4\ip4.c **** #if LWIP_DHCP && defined(LWIP_IP_ACCEPT_UDP_PORT)
  91:C:/Users/stapi/OneDrive/Desktop/GD32VW553/V1_MQTT_OK/GD32VW55X_Wifi_BLE_SDK/GD32VW55x_RELEASE_V1.0.2/MSDK/lwip/lwip-2.1.2/src/core/ipv4\ip4.c **** /* accept DHCP client port and custom port */
  92:C:/Users/stapi/OneDrive/Desktop/GD32VW553/V1_MQTT_OK/GD32VW55X_Wifi_BLE_SDK/GD32VW55x_RELEASE_V1.0.2/MSDK/lwip/lwip-2.1.2/src/core/ipv4\ip4.c **** #define IP_ACCEPT_LINK_LAYER_ADDRESSED_PORT(port) (((port) == PP_NTOHS(LWIP_IANA_PORT_DHCP_CLIENT))
  93:C:/Users/stapi/OneDrive/Desktop/GD32VW553/V1_MQTT_OK/GD32VW55X_Wifi_BLE_SDK/GD32VW55x_RELEASE_V1.0.2/MSDK/lwip/lwip-2.1.2/src/core/ipv4\ip4.c ****          || (LWIP_IP_ACCEPT_UDP_PORT(port)))
  94:C:/Users/stapi/OneDrive/Desktop/GD32VW553/V1_MQTT_OK/GD32VW55X_Wifi_BLE_SDK/GD32VW55x_RELEASE_V1.0.2/MSDK/lwip/lwip-2.1.2/src/core/ipv4\ip4.c **** #elif defined(LWIP_IP_ACCEPT_UDP_PORT) /* LWIP_DHCP && defined(LWIP_IP_ACCEPT_UDP_PORT) */
  95:C:/Users/stapi/OneDrive/Desktop/GD32VW553/V1_MQTT_OK/GD32VW55X_Wifi_BLE_SDK/GD32VW55x_RELEASE_V1.0.2/MSDK/lwip/lwip-2.1.2/src/core/ipv4\ip4.c **** /* accept custom port only */
  96:C:/Users/stapi/OneDrive/Desktop/GD32VW553/V1_MQTT_OK/GD32VW55X_Wifi_BLE_SDK/GD32VW55x_RELEASE_V1.0.2/MSDK/lwip/lwip-2.1.2/src/core/ipv4\ip4.c **** #define IP_ACCEPT_LINK_LAYER_ADDRESSED_PORT(port) (LWIP_IP_ACCEPT_UDP_PORT(port))
  97:C:/Users/stapi/OneDrive/Desktop/GD32VW553/V1_MQTT_OK/GD32VW55X_Wifi_BLE_SDK/GD32VW55x_RELEASE_V1.0.2/MSDK/lwip/lwip-2.1.2/src/core/ipv4\ip4.c **** #else /* LWIP_DHCP && defined(LWIP_IP_ACCEPT_UDP_PORT) */
  98:C:/Users/stapi/OneDrive/Desktop/GD32VW553/V1_MQTT_OK/GD32VW55X_Wifi_BLE_SDK/GD32VW55x_RELEASE_V1.0.2/MSDK/lwip/lwip-2.1.2/src/core/ipv4\ip4.c **** /* accept DHCP client port only */
  99:C:/Users/stapi/OneDrive/Desktop/GD32VW553/V1_MQTT_OK/GD32VW55X_Wifi_BLE_SDK/GD32VW55x_RELEASE_V1.0.2/MSDK/lwip/lwip-2.1.2/src/core/ipv4\ip4.c **** #define IP_ACCEPT_LINK_LAYER_ADDRESSED_PORT(port) ((port) == PP_NTOHS(LWIP_IANA_PORT_DHCP_CLIENT))
 100:C:/Users/stapi/OneDrive/Desktop/GD32VW553/V1_MQTT_OK/GD32VW55X_Wifi_BLE_SDK/GD32VW55x_RELEASE_V1.0.2/MSDK/lwip/lwip-2.1.2/src/core/ipv4\ip4.c **** #endif /* LWIP_DHCP && defined(LWIP_IP_ACCEPT_UDP_PORT) */
 101:C:/Users/stapi/OneDrive/Desktop/GD32VW553/V1_MQTT_OK/GD32VW55X_Wifi_BLE_SDK/GD32VW55x_RELEASE_V1.0.2/MSDK/lwip/lwip-2.1.2/src/core/ipv4\ip4.c **** 
 102:C:/Users/stapi/OneDrive/Desktop/GD32VW553/V1_MQTT_OK/GD32VW55X_Wifi_BLE_SDK/GD32VW55x_RELEASE_V1.0.2/MSDK/lwip/lwip-2.1.2/src/core/ipv4\ip4.c **** #else /* LWIP_DHCP */
 103:C:/Users/stapi/OneDrive/Desktop/GD32VW553/V1_MQTT_OK/GD32VW55X_Wifi_BLE_SDK/GD32VW55x_RELEASE_V1.0.2/MSDK/lwip/lwip-2.1.2/src/core/ipv4\ip4.c **** #define IP_ACCEPT_LINK_LAYER_ADDRESSING 0
 104:C:/Users/stapi/OneDrive/Desktop/GD32VW553/V1_MQTT_OK/GD32VW55X_Wifi_BLE_SDK/GD32VW55x_RELEASE_V1.0.2/MSDK/lwip/lwip-2.1.2/src/core/ipv4\ip4.c **** #endif /* LWIP_DHCP */
 105:C:/Users/stapi/OneDrive/Desktop/GD32VW553/V1_MQTT_OK/GD32VW55X_Wifi_BLE_SDK/GD32VW55x_RELEASE_V1.0.2/MSDK/lwip/lwip-2.1.2/src/core/ipv4\ip4.c **** 
 106:C:/Users/stapi/OneDrive/Desktop/GD32VW553/V1_MQTT_OK/GD32VW55X_Wifi_BLE_SDK/GD32VW55x_RELEASE_V1.0.2/MSDK/lwip/lwip-2.1.2/src/core/ipv4\ip4.c **** /** The IP header ID of the next outgoing IP packet */
 107:C:/Users/stapi/OneDrive/Desktop/GD32VW553/V1_MQTT_OK/GD32VW55X_Wifi_BLE_SDK/GD32VW55x_RELEASE_V1.0.2/MSDK/lwip/lwip-2.1.2/src/core/ipv4\ip4.c **** static u16_t ip_id;
 108:C:/Users/stapi/OneDrive/Desktop/GD32VW553/V1_MQTT_OK/GD32VW55X_Wifi_BLE_SDK/GD32VW55x_RELEASE_V1.0.2/MSDK/lwip/lwip-2.1.2/src/core/ipv4\ip4.c **** 
 109:C:/Users/stapi/OneDrive/Desktop/GD32VW553/V1_MQTT_OK/GD32VW55X_Wifi_BLE_SDK/GD32VW55x_RELEASE_V1.0.2/MSDK/lwip/lwip-2.1.2/src/core/ipv4\ip4.c **** #if LWIP_MULTICAST_TX_OPTIONS
 110:C:/Users/stapi/OneDrive/Desktop/GD32VW553/V1_MQTT_OK/GD32VW55X_Wifi_BLE_SDK/GD32VW55x_RELEASE_V1.0.2/MSDK/lwip/lwip-2.1.2/src/core/ipv4\ip4.c **** /** The default netif used for multicast */
 111:C:/Users/stapi/OneDrive/Desktop/GD32VW553/V1_MQTT_OK/GD32VW55X_Wifi_BLE_SDK/GD32VW55x_RELEASE_V1.0.2/MSDK/lwip/lwip-2.1.2/src/core/ipv4\ip4.c **** static struct netif *ip4_default_multicast_netif;
 112:C:/Users/stapi/OneDrive/Desktop/GD32VW553/V1_MQTT_OK/GD32VW55X_Wifi_BLE_SDK/GD32VW55x_RELEASE_V1.0.2/MSDK/lwip/lwip-2.1.2/src/core/ipv4\ip4.c **** 
 113:C:/Users/stapi/OneDrive/Desktop/GD32VW553/V1_MQTT_OK/GD32VW55X_Wifi_BLE_SDK/GD32VW55x_RELEASE_V1.0.2/MSDK/lwip/lwip-2.1.2/src/core/ipv4\ip4.c **** /**
 114:C:/Users/stapi/OneDrive/Desktop/GD32VW553/V1_MQTT_OK/GD32VW55X_Wifi_BLE_SDK/GD32VW55x_RELEASE_V1.0.2/MSDK/lwip/lwip-2.1.2/src/core/ipv4\ip4.c ****  * @ingroup ip4
 115:C:/Users/stapi/OneDrive/Desktop/GD32VW553/V1_MQTT_OK/GD32VW55X_Wifi_BLE_SDK/GD32VW55x_RELEASE_V1.0.2/MSDK/lwip/lwip-2.1.2/src/core/ipv4\ip4.c ****  * Set a default netif for IPv4 multicast. */
 116:C:/Users/stapi/OneDrive/Desktop/GD32VW553/V1_MQTT_OK/GD32VW55X_Wifi_BLE_SDK/GD32VW55x_RELEASE_V1.0.2/MSDK/lwip/lwip-2.1.2/src/core/ipv4\ip4.c **** void
 117:C:/Users/stapi/OneDrive/Desktop/GD32VW553/V1_MQTT_OK/GD32VW55X_Wifi_BLE_SDK/GD32VW55x_RELEASE_V1.0.2/MSDK/lwip/lwip-2.1.2/src/core/ipv4\ip4.c **** ip4_set_default_multicast_netif(struct netif *default_multicast_netif)
 118:C:/Users/stapi/OneDrive/Desktop/GD32VW553/V1_MQTT_OK/GD32VW55X_Wifi_BLE_SDK/GD32VW55x_RELEASE_V1.0.2/MSDK/lwip/lwip-2.1.2/src/core/ipv4\ip4.c **** {
 119:C:/Users/stapi/OneDrive/Desktop/GD32VW553/V1_MQTT_OK/GD32VW55X_Wifi_BLE_SDK/GD32VW55x_RELEASE_V1.0.2/MSDK/lwip/lwip-2.1.2/src/core/ipv4\ip4.c ****   ip4_default_multicast_netif = default_multicast_netif;
 120:C:/Users/stapi/OneDrive/Desktop/GD32VW553/V1_MQTT_OK/GD32VW55X_Wifi_BLE_SDK/GD32VW55x_RELEASE_V1.0.2/MSDK/lwip/lwip-2.1.2/src/core/ipv4\ip4.c **** }
 121:C:/Users/stapi/OneDrive/Desktop/GD32VW553/V1_MQTT_OK/GD32VW55X_Wifi_BLE_SDK/GD32VW55x_RELEASE_V1.0.2/MSDK/lwip/lwip-2.1.2/src/core/ipv4\ip4.c **** #endif /* LWIP_MULTICAST_TX_OPTIONS */
 122:C:/Users/stapi/OneDrive/Desktop/GD32VW553/V1_MQTT_OK/GD32VW55X_Wifi_BLE_SDK/GD32VW55x_RELEASE_V1.0.2/MSDK/lwip/lwip-2.1.2/src/core/ipv4\ip4.c **** 
 123:C:/Users/stapi/OneDrive/Desktop/GD32VW553/V1_MQTT_OK/GD32VW55X_Wifi_BLE_SDK/GD32VW55x_RELEASE_V1.0.2/MSDK/lwip/lwip-2.1.2/src/core/ipv4\ip4.c **** #ifdef LWIP_HOOK_IP4_ROUTE_SRC
 124:C:/Users/stapi/OneDrive/Desktop/GD32VW553/V1_MQTT_OK/GD32VW55X_Wifi_BLE_SDK/GD32VW55x_RELEASE_V1.0.2/MSDK/lwip/lwip-2.1.2/src/core/ipv4\ip4.c **** /**
 125:C:/Users/stapi/OneDrive/Desktop/GD32VW553/V1_MQTT_OK/GD32VW55X_Wifi_BLE_SDK/GD32VW55x_RELEASE_V1.0.2/MSDK/lwip/lwip-2.1.2/src/core/ipv4\ip4.c ****  * Source based IPv4 routing must be fully implemented in
 126:C:/Users/stapi/OneDrive/Desktop/GD32VW553/V1_MQTT_OK/GD32VW55X_Wifi_BLE_SDK/GD32VW55x_RELEASE_V1.0.2/MSDK/lwip/lwip-2.1.2/src/core/ipv4\ip4.c ****  * LWIP_HOOK_IP4_ROUTE_SRC(). This function only provides the parameters.
 127:C:/Users/stapi/OneDrive/Desktop/GD32VW553/V1_MQTT_OK/GD32VW55X_Wifi_BLE_SDK/GD32VW55x_RELEASE_V1.0.2/MSDK/lwip/lwip-2.1.2/src/core/ipv4\ip4.c ****  */
 128:C:/Users/stapi/OneDrive/Desktop/GD32VW553/V1_MQTT_OK/GD32VW55X_Wifi_BLE_SDK/GD32VW55x_RELEASE_V1.0.2/MSDK/lwip/lwip-2.1.2/src/core/ipv4\ip4.c **** struct netif *
 129:C:/Users/stapi/OneDrive/Desktop/GD32VW553/V1_MQTT_OK/GD32VW55X_Wifi_BLE_SDK/GD32VW55x_RELEASE_V1.0.2/MSDK/lwip/lwip-2.1.2/src/core/ipv4\ip4.c **** ip4_route_src(const ip4_addr_t *src, const ip4_addr_t *dest)
 130:C:/Users/stapi/OneDrive/Desktop/GD32VW553/V1_MQTT_OK/GD32VW55X_Wifi_BLE_SDK/GD32VW55x_RELEASE_V1.0.2/MSDK/lwip/lwip-2.1.2/src/core/ipv4\ip4.c **** {
 131:C:/Users/stapi/OneDrive/Desktop/GD32VW553/V1_MQTT_OK/GD32VW55X_Wifi_BLE_SDK/GD32VW55x_RELEASE_V1.0.2/MSDK/lwip/lwip-2.1.2/src/core/ipv4\ip4.c ****   if (src != NULL) {
 132:C:/Users/stapi/OneDrive/Desktop/GD32VW553/V1_MQTT_OK/GD32VW55X_Wifi_BLE_SDK/GD32VW55x_RELEASE_V1.0.2/MSDK/lwip/lwip-2.1.2/src/core/ipv4\ip4.c ****     /* when src==NULL, the hook is called from ip4_route(dest) */
 133:C:/Users/stapi/OneDrive/Desktop/GD32VW553/V1_MQTT_OK/GD32VW55X_Wifi_BLE_SDK/GD32VW55x_RELEASE_V1.0.2/MSDK/lwip/lwip-2.1.2/src/core/ipv4\ip4.c ****     struct netif *netif = LWIP_HOOK_IP4_ROUTE_SRC(src, dest);
 134:C:/Users/stapi/OneDrive/Desktop/GD32VW553/V1_MQTT_OK/GD32VW55X_Wifi_BLE_SDK/GD32VW55x_RELEASE_V1.0.2/MSDK/lwip/lwip-2.1.2/src/core/ipv4\ip4.c ****     if (netif != NULL) {
 135:C:/Users/stapi/OneDrive/Desktop/GD32VW553/V1_MQTT_OK/GD32VW55X_Wifi_BLE_SDK/GD32VW55x_RELEASE_V1.0.2/MSDK/lwip/lwip-2.1.2/src/core/ipv4\ip4.c ****       return netif;
 136:C:/Users/stapi/OneDrive/Desktop/GD32VW553/V1_MQTT_OK/GD32VW55X_Wifi_BLE_SDK/GD32VW55x_RELEASE_V1.0.2/MSDK/lwip/lwip-2.1.2/src/core/ipv4\ip4.c ****     }
 137:C:/Users/stapi/OneDrive/Desktop/GD32VW553/V1_MQTT_OK/GD32VW55X_Wifi_BLE_SDK/GD32VW55x_RELEASE_V1.0.2/MSDK/lwip/lwip-2.1.2/src/core/ipv4\ip4.c ****   }
 138:C:/Users/stapi/OneDrive/Desktop/GD32VW553/V1_MQTT_OK/GD32VW55X_Wifi_BLE_SDK/GD32VW55x_RELEASE_V1.0.2/MSDK/lwip/lwip-2.1.2/src/core/ipv4\ip4.c ****   return ip4_route(dest);
 139:C:/Users/stapi/OneDrive/Desktop/GD32VW553/V1_MQTT_OK/GD32VW55X_Wifi_BLE_SDK/GD32VW55x_RELEASE_V1.0.2/MSDK/lwip/lwip-2.1.2/src/core/ipv4\ip4.c **** }
 140:C:/Users/stapi/OneDrive/Desktop/GD32VW553/V1_MQTT_OK/GD32VW55X_Wifi_BLE_SDK/GD32VW55x_RELEASE_V1.0.2/MSDK/lwip/lwip-2.1.2/src/core/ipv4\ip4.c **** #endif /* LWIP_HOOK_IP4_ROUTE_SRC */
 141:C:/Users/stapi/OneDrive/Desktop/GD32VW553/V1_MQTT_OK/GD32VW55X_Wifi_BLE_SDK/GD32VW55x_RELEASE_V1.0.2/MSDK/lwip/lwip-2.1.2/src/core/ipv4\ip4.c **** 
 142:C:/Users/stapi/OneDrive/Desktop/GD32VW553/V1_MQTT_OK/GD32VW55X_Wifi_BLE_SDK/GD32VW55x_RELEASE_V1.0.2/MSDK/lwip/lwip-2.1.2/src/core/ipv4\ip4.c **** /**
 143:C:/Users/stapi/OneDrive/Desktop/GD32VW553/V1_MQTT_OK/GD32VW55X_Wifi_BLE_SDK/GD32VW55x_RELEASE_V1.0.2/MSDK/lwip/lwip-2.1.2/src/core/ipv4\ip4.c ****  * Finds the appropriate network interface for a given IP address. It
 144:C:/Users/stapi/OneDrive/Desktop/GD32VW553/V1_MQTT_OK/GD32VW55X_Wifi_BLE_SDK/GD32VW55x_RELEASE_V1.0.2/MSDK/lwip/lwip-2.1.2/src/core/ipv4\ip4.c ****  * searches the list of network interfaces linearly. A match is found
 145:C:/Users/stapi/OneDrive/Desktop/GD32VW553/V1_MQTT_OK/GD32VW55X_Wifi_BLE_SDK/GD32VW55x_RELEASE_V1.0.2/MSDK/lwip/lwip-2.1.2/src/core/ipv4\ip4.c ****  * if the masked IP address of the network interface equals the masked
 146:C:/Users/stapi/OneDrive/Desktop/GD32VW553/V1_MQTT_OK/GD32VW55X_Wifi_BLE_SDK/GD32VW55x_RELEASE_V1.0.2/MSDK/lwip/lwip-2.1.2/src/core/ipv4\ip4.c ****  * IP address given to the function.
 147:C:/Users/stapi/OneDrive/Desktop/GD32VW553/V1_MQTT_OK/GD32VW55X_Wifi_BLE_SDK/GD32VW55x_RELEASE_V1.0.2/MSDK/lwip/lwip-2.1.2/src/core/ipv4\ip4.c ****  *
 148:C:/Users/stapi/OneDrive/Desktop/GD32VW553/V1_MQTT_OK/GD32VW55X_Wifi_BLE_SDK/GD32VW55x_RELEASE_V1.0.2/MSDK/lwip/lwip-2.1.2/src/core/ipv4\ip4.c ****  * @param dest the destination IP address for which to find the route
 149:C:/Users/stapi/OneDrive/Desktop/GD32VW553/V1_MQTT_OK/GD32VW55X_Wifi_BLE_SDK/GD32VW55x_RELEASE_V1.0.2/MSDK/lwip/lwip-2.1.2/src/core/ipv4\ip4.c ****  * @return the netif on which to send to reach dest
 150:C:/Users/stapi/OneDrive/Desktop/GD32VW553/V1_MQTT_OK/GD32VW55X_Wifi_BLE_SDK/GD32VW55x_RELEASE_V1.0.2/MSDK/lwip/lwip-2.1.2/src/core/ipv4\ip4.c ****  */
 151:C:/Users/stapi/OneDrive/Desktop/GD32VW553/V1_MQTT_OK/GD32VW55X_Wifi_BLE_SDK/GD32VW55x_RELEASE_V1.0.2/MSDK/lwip/lwip-2.1.2/src/core/ipv4\ip4.c **** struct netif *
 152:C:/Users/stapi/OneDrive/Desktop/GD32VW553/V1_MQTT_OK/GD32VW55X_Wifi_BLE_SDK/GD32VW55x_RELEASE_V1.0.2/MSDK/lwip/lwip-2.1.2/src/core/ipv4\ip4.c **** ip4_route(const ip4_addr_t *dest)
 153:C:/Users/stapi/OneDrive/Desktop/GD32VW553/V1_MQTT_OK/GD32VW55X_Wifi_BLE_SDK/GD32VW55x_RELEASE_V1.0.2/MSDK/lwip/lwip-2.1.2/src/core/ipv4\ip4.c **** {
 154:C:/Users/stapi/OneDrive/Desktop/GD32VW553/V1_MQTT_OK/GD32VW55X_Wifi_BLE_SDK/GD32VW55x_RELEASE_V1.0.2/MSDK/lwip/lwip-2.1.2/src/core/ipv4\ip4.c **** #if !LWIP_SINGLE_NETIF
 155:C:/Users/stapi/OneDrive/Desktop/GD32VW553/V1_MQTT_OK/GD32VW55X_Wifi_BLE_SDK/GD32VW55x_RELEASE_V1.0.2/MSDK/lwip/lwip-2.1.2/src/core/ipv4\ip4.c ****   struct netif *netif;
 156:C:/Users/stapi/OneDrive/Desktop/GD32VW553/V1_MQTT_OK/GD32VW55X_Wifi_BLE_SDK/GD32VW55x_RELEASE_V1.0.2/MSDK/lwip/lwip-2.1.2/src/core/ipv4\ip4.c **** 
 157:C:/Users/stapi/OneDrive/Desktop/GD32VW553/V1_MQTT_OK/GD32VW55X_Wifi_BLE_SDK/GD32VW55x_RELEASE_V1.0.2/MSDK/lwip/lwip-2.1.2/src/core/ipv4\ip4.c ****   LWIP_ASSERT_CORE_LOCKED();
 158:C:/Users/stapi/OneDrive/Desktop/GD32VW553/V1_MQTT_OK/GD32VW55X_Wifi_BLE_SDK/GD32VW55x_RELEASE_V1.0.2/MSDK/lwip/lwip-2.1.2/src/core/ipv4\ip4.c **** 
 159:C:/Users/stapi/OneDrive/Desktop/GD32VW553/V1_MQTT_OK/GD32VW55X_Wifi_BLE_SDK/GD32VW55x_RELEASE_V1.0.2/MSDK/lwip/lwip-2.1.2/src/core/ipv4\ip4.c **** #if LWIP_MULTICAST_TX_OPTIONS
 160:C:/Users/stapi/OneDrive/Desktop/GD32VW553/V1_MQTT_OK/GD32VW55X_Wifi_BLE_SDK/GD32VW55x_RELEASE_V1.0.2/MSDK/lwip/lwip-2.1.2/src/core/ipv4\ip4.c ****   /* Use administratively selected interface for multicast by default */
 161:C:/Users/stapi/OneDrive/Desktop/GD32VW553/V1_MQTT_OK/GD32VW55X_Wifi_BLE_SDK/GD32VW55x_RELEASE_V1.0.2/MSDK/lwip/lwip-2.1.2/src/core/ipv4\ip4.c ****   if (ip4_addr_ismulticast(dest) && ip4_default_multicast_netif) {
 162:C:/Users/stapi/OneDrive/Desktop/GD32VW553/V1_MQTT_OK/GD32VW55X_Wifi_BLE_SDK/GD32VW55x_RELEASE_V1.0.2/MSDK/lwip/lwip-2.1.2/src/core/ipv4\ip4.c ****     return ip4_default_multicast_netif;
 163:C:/Users/stapi/OneDrive/Desktop/GD32VW553/V1_MQTT_OK/GD32VW55X_Wifi_BLE_SDK/GD32VW55x_RELEASE_V1.0.2/MSDK/lwip/lwip-2.1.2/src/core/ipv4\ip4.c ****   }
 164:C:/Users/stapi/OneDrive/Desktop/GD32VW553/V1_MQTT_OK/GD32VW55X_Wifi_BLE_SDK/GD32VW55x_RELEASE_V1.0.2/MSDK/lwip/lwip-2.1.2/src/core/ipv4\ip4.c **** #endif /* LWIP_MULTICAST_TX_OPTIONS */
 165:C:/Users/stapi/OneDrive/Desktop/GD32VW553/V1_MQTT_OK/GD32VW55X_Wifi_BLE_SDK/GD32VW55x_RELEASE_V1.0.2/MSDK/lwip/lwip-2.1.2/src/core/ipv4\ip4.c **** 
 166:C:/Users/stapi/OneDrive/Desktop/GD32VW553/V1_MQTT_OK/GD32VW55X_Wifi_BLE_SDK/GD32VW55x_RELEASE_V1.0.2/MSDK/lwip/lwip-2.1.2/src/core/ipv4\ip4.c ****   /* bug #54569: in case LWIP_SINGLE_NETIF=1 and LWIP_DEBUGF() disabled, the following loop is opti
 167:C:/Users/stapi/OneDrive/Desktop/GD32VW553/V1_MQTT_OK/GD32VW55X_Wifi_BLE_SDK/GD32VW55x_RELEASE_V1.0.2/MSDK/lwip/lwip-2.1.2/src/core/ipv4\ip4.c ****   LWIP_UNUSED_ARG(dest);
 168:C:/Users/stapi/OneDrive/Desktop/GD32VW553/V1_MQTT_OK/GD32VW55X_Wifi_BLE_SDK/GD32VW55x_RELEASE_V1.0.2/MSDK/lwip/lwip-2.1.2/src/core/ipv4\ip4.c **** 
 169:C:/Users/stapi/OneDrive/Desktop/GD32VW553/V1_MQTT_OK/GD32VW55X_Wifi_BLE_SDK/GD32VW55x_RELEASE_V1.0.2/MSDK/lwip/lwip-2.1.2/src/core/ipv4\ip4.c ****   /* iterate through netifs */
 170:C:/Users/stapi/OneDrive/Desktop/GD32VW553/V1_MQTT_OK/GD32VW55X_Wifi_BLE_SDK/GD32VW55x_RELEASE_V1.0.2/MSDK/lwip/lwip-2.1.2/src/core/ipv4\ip4.c ****   NETIF_FOREACH(netif) {
 171:C:/Users/stapi/OneDrive/Desktop/GD32VW553/V1_MQTT_OK/GD32VW55X_Wifi_BLE_SDK/GD32VW55x_RELEASE_V1.0.2/MSDK/lwip/lwip-2.1.2/src/core/ipv4\ip4.c ****     /* is the netif up, does it have a link and a valid address? */
 172:C:/Users/stapi/OneDrive/Desktop/GD32VW553/V1_MQTT_OK/GD32VW55X_Wifi_BLE_SDK/GD32VW55x_RELEASE_V1.0.2/MSDK/lwip/lwip-2.1.2/src/core/ipv4\ip4.c ****     if (netif_is_up(netif) && netif_is_link_up(netif) && !ip4_addr_isany_val(*netif_ip4_addr(netif)
 173:C:/Users/stapi/OneDrive/Desktop/GD32VW553/V1_MQTT_OK/GD32VW55X_Wifi_BLE_SDK/GD32VW55x_RELEASE_V1.0.2/MSDK/lwip/lwip-2.1.2/src/core/ipv4\ip4.c ****       /* network mask matches? */
 174:C:/Users/stapi/OneDrive/Desktop/GD32VW553/V1_MQTT_OK/GD32VW55X_Wifi_BLE_SDK/GD32VW55x_RELEASE_V1.0.2/MSDK/lwip/lwip-2.1.2/src/core/ipv4\ip4.c ****       if (ip4_addr_netcmp(dest, netif_ip4_addr(netif), netif_ip4_netmask(netif))) {
 175:C:/Users/stapi/OneDrive/Desktop/GD32VW553/V1_MQTT_OK/GD32VW55X_Wifi_BLE_SDK/GD32VW55x_RELEASE_V1.0.2/MSDK/lwip/lwip-2.1.2/src/core/ipv4\ip4.c ****         /* return netif on which to forward IP packet */
 176:C:/Users/stapi/OneDrive/Desktop/GD32VW553/V1_MQTT_OK/GD32VW55X_Wifi_BLE_SDK/GD32VW55x_RELEASE_V1.0.2/MSDK/lwip/lwip-2.1.2/src/core/ipv4\ip4.c ****         return netif;
 177:C:/Users/stapi/OneDrive/Desktop/GD32VW553/V1_MQTT_OK/GD32VW55X_Wifi_BLE_SDK/GD32VW55x_RELEASE_V1.0.2/MSDK/lwip/lwip-2.1.2/src/core/ipv4\ip4.c ****       }
 178:C:/Users/stapi/OneDrive/Desktop/GD32VW553/V1_MQTT_OK/GD32VW55X_Wifi_BLE_SDK/GD32VW55x_RELEASE_V1.0.2/MSDK/lwip/lwip-2.1.2/src/core/ipv4\ip4.c ****       /* gateway matches on a non broadcast interface? (i.e. peer in a point to point interface) */
 179:C:/Users/stapi/OneDrive/Desktop/GD32VW553/V1_MQTT_OK/GD32VW55X_Wifi_BLE_SDK/GD32VW55x_RELEASE_V1.0.2/MSDK/lwip/lwip-2.1.2/src/core/ipv4\ip4.c ****       if (((netif->flags & NETIF_FLAG_BROADCAST) == 0) && ip4_addr_cmp(dest, netif_ip4_gw(netif))) 
 180:C:/Users/stapi/OneDrive/Desktop/GD32VW553/V1_MQTT_OK/GD32VW55X_Wifi_BLE_SDK/GD32VW55x_RELEASE_V1.0.2/MSDK/lwip/lwip-2.1.2/src/core/ipv4\ip4.c ****         /* return netif on which to forward IP packet */
 181:C:/Users/stapi/OneDrive/Desktop/GD32VW553/V1_MQTT_OK/GD32VW55X_Wifi_BLE_SDK/GD32VW55x_RELEASE_V1.0.2/MSDK/lwip/lwip-2.1.2/src/core/ipv4\ip4.c ****         return netif;
 182:C:/Users/stapi/OneDrive/Desktop/GD32VW553/V1_MQTT_OK/GD32VW55X_Wifi_BLE_SDK/GD32VW55x_RELEASE_V1.0.2/MSDK/lwip/lwip-2.1.2/src/core/ipv4\ip4.c ****       }
 183:C:/Users/stapi/OneDrive/Desktop/GD32VW553/V1_MQTT_OK/GD32VW55X_Wifi_BLE_SDK/GD32VW55x_RELEASE_V1.0.2/MSDK/lwip/lwip-2.1.2/src/core/ipv4\ip4.c ****     }
 184:C:/Users/stapi/OneDrive/Desktop/GD32VW553/V1_MQTT_OK/GD32VW55X_Wifi_BLE_SDK/GD32VW55x_RELEASE_V1.0.2/MSDK/lwip/lwip-2.1.2/src/core/ipv4\ip4.c ****   }
 185:C:/Users/stapi/OneDrive/Desktop/GD32VW553/V1_MQTT_OK/GD32VW55X_Wifi_BLE_SDK/GD32VW55x_RELEASE_V1.0.2/MSDK/lwip/lwip-2.1.2/src/core/ipv4\ip4.c **** 
 186:C:/Users/stapi/OneDrive/Desktop/GD32VW553/V1_MQTT_OK/GD32VW55X_Wifi_BLE_SDK/GD32VW55x_RELEASE_V1.0.2/MSDK/lwip/lwip-2.1.2/src/core/ipv4\ip4.c **** #if LWIP_NETIF_LOOPBACK && !LWIP_HAVE_LOOPIF
 187:C:/Users/stapi/OneDrive/Desktop/GD32VW553/V1_MQTT_OK/GD32VW55X_Wifi_BLE_SDK/GD32VW55x_RELEASE_V1.0.2/MSDK/lwip/lwip-2.1.2/src/core/ipv4\ip4.c ****   /* loopif is disabled, looopback traffic is passed through any netif */
 188:C:/Users/stapi/OneDrive/Desktop/GD32VW553/V1_MQTT_OK/GD32VW55X_Wifi_BLE_SDK/GD32VW55x_RELEASE_V1.0.2/MSDK/lwip/lwip-2.1.2/src/core/ipv4\ip4.c ****   if (ip4_addr_isloopback(dest)) {
 189:C:/Users/stapi/OneDrive/Desktop/GD32VW553/V1_MQTT_OK/GD32VW55X_Wifi_BLE_SDK/GD32VW55x_RELEASE_V1.0.2/MSDK/lwip/lwip-2.1.2/src/core/ipv4\ip4.c ****     /* don't check for link on loopback traffic */
 190:C:/Users/stapi/OneDrive/Desktop/GD32VW553/V1_MQTT_OK/GD32VW55X_Wifi_BLE_SDK/GD32VW55x_RELEASE_V1.0.2/MSDK/lwip/lwip-2.1.2/src/core/ipv4\ip4.c ****     if (netif_default != NULL && netif_is_up(netif_default)) {
 191:C:/Users/stapi/OneDrive/Desktop/GD32VW553/V1_MQTT_OK/GD32VW55X_Wifi_BLE_SDK/GD32VW55x_RELEASE_V1.0.2/MSDK/lwip/lwip-2.1.2/src/core/ipv4\ip4.c ****       return netif_default;
 192:C:/Users/stapi/OneDrive/Desktop/GD32VW553/V1_MQTT_OK/GD32VW55X_Wifi_BLE_SDK/GD32VW55x_RELEASE_V1.0.2/MSDK/lwip/lwip-2.1.2/src/core/ipv4\ip4.c ****     }
 193:C:/Users/stapi/OneDrive/Desktop/GD32VW553/V1_MQTT_OK/GD32VW55X_Wifi_BLE_SDK/GD32VW55x_RELEASE_V1.0.2/MSDK/lwip/lwip-2.1.2/src/core/ipv4\ip4.c ****     /* default netif is not up, just use any netif for loopback traffic */
 194:C:/Users/stapi/OneDrive/Desktop/GD32VW553/V1_MQTT_OK/GD32VW55X_Wifi_BLE_SDK/GD32VW55x_RELEASE_V1.0.2/MSDK/lwip/lwip-2.1.2/src/core/ipv4\ip4.c ****     NETIF_FOREACH(netif) {
 195:C:/Users/stapi/OneDrive/Desktop/GD32VW553/V1_MQTT_OK/GD32VW55X_Wifi_BLE_SDK/GD32VW55x_RELEASE_V1.0.2/MSDK/lwip/lwip-2.1.2/src/core/ipv4\ip4.c ****       if (netif_is_up(netif)) {
 196:C:/Users/stapi/OneDrive/Desktop/GD32VW553/V1_MQTT_OK/GD32VW55X_Wifi_BLE_SDK/GD32VW55x_RELEASE_V1.0.2/MSDK/lwip/lwip-2.1.2/src/core/ipv4\ip4.c ****         return netif;
 197:C:/Users/stapi/OneDrive/Desktop/GD32VW553/V1_MQTT_OK/GD32VW55X_Wifi_BLE_SDK/GD32VW55x_RELEASE_V1.0.2/MSDK/lwip/lwip-2.1.2/src/core/ipv4\ip4.c ****       }
 198:C:/Users/stapi/OneDrive/Desktop/GD32VW553/V1_MQTT_OK/GD32VW55X_Wifi_BLE_SDK/GD32VW55x_RELEASE_V1.0.2/MSDK/lwip/lwip-2.1.2/src/core/ipv4\ip4.c ****     }
 199:C:/Users/stapi/OneDrive/Desktop/GD32VW553/V1_MQTT_OK/GD32VW55X_Wifi_BLE_SDK/GD32VW55x_RELEASE_V1.0.2/MSDK/lwip/lwip-2.1.2/src/core/ipv4\ip4.c ****     return NULL;
 200:C:/Users/stapi/OneDrive/Desktop/GD32VW553/V1_MQTT_OK/GD32VW55X_Wifi_BLE_SDK/GD32VW55x_RELEASE_V1.0.2/MSDK/lwip/lwip-2.1.2/src/core/ipv4\ip4.c ****   }
 201:C:/Users/stapi/OneDrive/Desktop/GD32VW553/V1_MQTT_OK/GD32VW55X_Wifi_BLE_SDK/GD32VW55x_RELEASE_V1.0.2/MSDK/lwip/lwip-2.1.2/src/core/ipv4\ip4.c **** #endif /* LWIP_NETIF_LOOPBACK && !LWIP_HAVE_LOOPIF */
 202:C:/Users/stapi/OneDrive/Desktop/GD32VW553/V1_MQTT_OK/GD32VW55X_Wifi_BLE_SDK/GD32VW55x_RELEASE_V1.0.2/MSDK/lwip/lwip-2.1.2/src/core/ipv4\ip4.c **** 
 203:C:/Users/stapi/OneDrive/Desktop/GD32VW553/V1_MQTT_OK/GD32VW55X_Wifi_BLE_SDK/GD32VW55x_RELEASE_V1.0.2/MSDK/lwip/lwip-2.1.2/src/core/ipv4\ip4.c **** #ifdef LWIP_HOOK_IP4_ROUTE_SRC
 204:C:/Users/stapi/OneDrive/Desktop/GD32VW553/V1_MQTT_OK/GD32VW55X_Wifi_BLE_SDK/GD32VW55x_RELEASE_V1.0.2/MSDK/lwip/lwip-2.1.2/src/core/ipv4\ip4.c ****   netif = LWIP_HOOK_IP4_ROUTE_SRC(NULL, dest);
 205:C:/Users/stapi/OneDrive/Desktop/GD32VW553/V1_MQTT_OK/GD32VW55X_Wifi_BLE_SDK/GD32VW55x_RELEASE_V1.0.2/MSDK/lwip/lwip-2.1.2/src/core/ipv4\ip4.c ****   if (netif != NULL) {
 206:C:/Users/stapi/OneDrive/Desktop/GD32VW553/V1_MQTT_OK/GD32VW55X_Wifi_BLE_SDK/GD32VW55x_RELEASE_V1.0.2/MSDK/lwip/lwip-2.1.2/src/core/ipv4\ip4.c ****     return netif;
 207:C:/Users/stapi/OneDrive/Desktop/GD32VW553/V1_MQTT_OK/GD32VW55X_Wifi_BLE_SDK/GD32VW55x_RELEASE_V1.0.2/MSDK/lwip/lwip-2.1.2/src/core/ipv4\ip4.c ****   }
 208:C:/Users/stapi/OneDrive/Desktop/GD32VW553/V1_MQTT_OK/GD32VW55X_Wifi_BLE_SDK/GD32VW55x_RELEASE_V1.0.2/MSDK/lwip/lwip-2.1.2/src/core/ipv4\ip4.c **** #elif defined(LWIP_HOOK_IP4_ROUTE)
 209:C:/Users/stapi/OneDrive/Desktop/GD32VW553/V1_MQTT_OK/GD32VW55X_Wifi_BLE_SDK/GD32VW55x_RELEASE_V1.0.2/MSDK/lwip/lwip-2.1.2/src/core/ipv4\ip4.c ****   netif = LWIP_HOOK_IP4_ROUTE(dest);
 210:C:/Users/stapi/OneDrive/Desktop/GD32VW553/V1_MQTT_OK/GD32VW55X_Wifi_BLE_SDK/GD32VW55x_RELEASE_V1.0.2/MSDK/lwip/lwip-2.1.2/src/core/ipv4\ip4.c ****   if (netif != NULL) {
 211:C:/Users/stapi/OneDrive/Desktop/GD32VW553/V1_MQTT_OK/GD32VW55X_Wifi_BLE_SDK/GD32VW55x_RELEASE_V1.0.2/MSDK/lwip/lwip-2.1.2/src/core/ipv4\ip4.c ****     return netif;
 212:C:/Users/stapi/OneDrive/Desktop/GD32VW553/V1_MQTT_OK/GD32VW55X_Wifi_BLE_SDK/GD32VW55x_RELEASE_V1.0.2/MSDK/lwip/lwip-2.1.2/src/core/ipv4\ip4.c ****   }
 213:C:/Users/stapi/OneDrive/Desktop/GD32VW553/V1_MQTT_OK/GD32VW55X_Wifi_BLE_SDK/GD32VW55x_RELEASE_V1.0.2/MSDK/lwip/lwip-2.1.2/src/core/ipv4\ip4.c **** #endif
 214:C:/Users/stapi/OneDrive/Desktop/GD32VW553/V1_MQTT_OK/GD32VW55X_Wifi_BLE_SDK/GD32VW55x_RELEASE_V1.0.2/MSDK/lwip/lwip-2.1.2/src/core/ipv4\ip4.c **** #endif /* !LWIP_SINGLE_NETIF */
 215:C:/Users/stapi/OneDrive/Desktop/GD32VW553/V1_MQTT_OK/GD32VW55X_Wifi_BLE_SDK/GD32VW55x_RELEASE_V1.0.2/MSDK/lwip/lwip-2.1.2/src/core/ipv4\ip4.c **** 
 216:C:/Users/stapi/OneDrive/Desktop/GD32VW553/V1_MQTT_OK/GD32VW55X_Wifi_BLE_SDK/GD32VW55x_RELEASE_V1.0.2/MSDK/lwip/lwip-2.1.2/src/core/ipv4\ip4.c ****   if ((netif_default == NULL) || !netif_is_up(netif_default) || !netif_is_link_up(netif_default) ||
 217:C:/Users/stapi/OneDrive/Desktop/GD32VW553/V1_MQTT_OK/GD32VW55X_Wifi_BLE_SDK/GD32VW55x_RELEASE_V1.0.2/MSDK/lwip/lwip-2.1.2/src/core/ipv4\ip4.c ****       ip4_addr_isany_val(*netif_ip4_addr(netif_default)) || ip4_addr_isloopback(dest)) {
 218:C:/Users/stapi/OneDrive/Desktop/GD32VW553/V1_MQTT_OK/GD32VW55X_Wifi_BLE_SDK/GD32VW55x_RELEASE_V1.0.2/MSDK/lwip/lwip-2.1.2/src/core/ipv4\ip4.c ****     /* No matching netif found and default netif is not usable.
 219:C:/Users/stapi/OneDrive/Desktop/GD32VW553/V1_MQTT_OK/GD32VW55X_Wifi_BLE_SDK/GD32VW55x_RELEASE_V1.0.2/MSDK/lwip/lwip-2.1.2/src/core/ipv4\ip4.c ****        If this is not good enough for you, use LWIP_HOOK_IP4_ROUTE() */
 220:C:/Users/stapi/OneDrive/Desktop/GD32VW553/V1_MQTT_OK/GD32VW55X_Wifi_BLE_SDK/GD32VW55x_RELEASE_V1.0.2/MSDK/lwip/lwip-2.1.2/src/core/ipv4\ip4.c ****     LWIP_DEBUGF(IP_DEBUG | LWIP_DBG_LEVEL_SERIOUS, ("ip4_route: No route to %"U16_F".%"U16_F".%"U16
 221:C:/Users/stapi/OneDrive/Desktop/GD32VW553/V1_MQTT_OK/GD32VW55X_Wifi_BLE_SDK/GD32VW55x_RELEASE_V1.0.2/MSDK/lwip/lwip-2.1.2/src/core/ipv4\ip4.c ****                 ip4_addr1_16(dest), ip4_addr2_16(dest), ip4_addr3_16(dest), ip4_addr4_16(dest)));
 222:C:/Users/stapi/OneDrive/Desktop/GD32VW553/V1_MQTT_OK/GD32VW55X_Wifi_BLE_SDK/GD32VW55x_RELEASE_V1.0.2/MSDK/lwip/lwip-2.1.2/src/core/ipv4\ip4.c ****     IP_STATS_INC(ip.rterr);
 223:C:/Users/stapi/OneDrive/Desktop/GD32VW553/V1_MQTT_OK/GD32VW55X_Wifi_BLE_SDK/GD32VW55x_RELEASE_V1.0.2/MSDK/lwip/lwip-2.1.2/src/core/ipv4\ip4.c ****     MIB2_STATS_INC(mib2.ipoutnoroutes);
 224:C:/Users/stapi/OneDrive/Desktop/GD32VW553/V1_MQTT_OK/GD32VW55X_Wifi_BLE_SDK/GD32VW55x_RELEASE_V1.0.2/MSDK/lwip/lwip-2.1.2/src/core/ipv4\ip4.c ****     return NULL;
 225:C:/Users/stapi/OneDrive/Desktop/GD32VW553/V1_MQTT_OK/GD32VW55X_Wifi_BLE_SDK/GD32VW55x_RELEASE_V1.0.2/MSDK/lwip/lwip-2.1.2/src/core/ipv4\ip4.c ****   }
 226:C:/Users/stapi/OneDrive/Desktop/GD32VW553/V1_MQTT_OK/GD32VW55X_Wifi_BLE_SDK/GD32VW55x_RELEASE_V1.0.2/MSDK/lwip/lwip-2.1.2/src/core/ipv4\ip4.c **** 
 227:C:/Users/stapi/OneDrive/Desktop/GD32VW553/V1_MQTT_OK/GD32VW55X_Wifi_BLE_SDK/GD32VW55x_RELEASE_V1.0.2/MSDK/lwip/lwip-2.1.2/src/core/ipv4\ip4.c ****   return netif_default;
 228:C:/Users/stapi/OneDrive/Desktop/GD32VW553/V1_MQTT_OK/GD32VW55X_Wifi_BLE_SDK/GD32VW55x_RELEASE_V1.0.2/MSDK/lwip/lwip-2.1.2/src/core/ipv4\ip4.c **** }
 229:C:/Users/stapi/OneDrive/Desktop/GD32VW553/V1_MQTT_OK/GD32VW55X_Wifi_BLE_SDK/GD32VW55x_RELEASE_V1.0.2/MSDK/lwip/lwip-2.1.2/src/core/ipv4\ip4.c **** 
 230:C:/Users/stapi/OneDrive/Desktop/GD32VW553/V1_MQTT_OK/GD32VW55X_Wifi_BLE_SDK/GD32VW55x_RELEASE_V1.0.2/MSDK/lwip/lwip-2.1.2/src/core/ipv4\ip4.c **** #if IP_FORWARD
 231:C:/Users/stapi/OneDrive/Desktop/GD32VW553/V1_MQTT_OK/GD32VW55X_Wifi_BLE_SDK/GD32VW55x_RELEASE_V1.0.2/MSDK/lwip/lwip-2.1.2/src/core/ipv4\ip4.c **** /**
 232:C:/Users/stapi/OneDrive/Desktop/GD32VW553/V1_MQTT_OK/GD32VW55X_Wifi_BLE_SDK/GD32VW55x_RELEASE_V1.0.2/MSDK/lwip/lwip-2.1.2/src/core/ipv4\ip4.c ****  * Determine whether an IP address is in a reserved set of addresses
 233:C:/Users/stapi/OneDrive/Desktop/GD32VW553/V1_MQTT_OK/GD32VW55X_Wifi_BLE_SDK/GD32VW55x_RELEASE_V1.0.2/MSDK/lwip/lwip-2.1.2/src/core/ipv4\ip4.c ****  * that may not be forwarded, or whether datagrams to that destination
 234:C:/Users/stapi/OneDrive/Desktop/GD32VW553/V1_MQTT_OK/GD32VW55X_Wifi_BLE_SDK/GD32VW55x_RELEASE_V1.0.2/MSDK/lwip/lwip-2.1.2/src/core/ipv4\ip4.c ****  * may be forwarded.
 235:C:/Users/stapi/OneDrive/Desktop/GD32VW553/V1_MQTT_OK/GD32VW55X_Wifi_BLE_SDK/GD32VW55x_RELEASE_V1.0.2/MSDK/lwip/lwip-2.1.2/src/core/ipv4\ip4.c ****  * @param p the packet to forward
 236:C:/Users/stapi/OneDrive/Desktop/GD32VW553/V1_MQTT_OK/GD32VW55X_Wifi_BLE_SDK/GD32VW55x_RELEASE_V1.0.2/MSDK/lwip/lwip-2.1.2/src/core/ipv4\ip4.c ****  * @return 1: can forward 0: discard
 237:C:/Users/stapi/OneDrive/Desktop/GD32VW553/V1_MQTT_OK/GD32VW55X_Wifi_BLE_SDK/GD32VW55x_RELEASE_V1.0.2/MSDK/lwip/lwip-2.1.2/src/core/ipv4\ip4.c ****  */
 238:C:/Users/stapi/OneDrive/Desktop/GD32VW553/V1_MQTT_OK/GD32VW55X_Wifi_BLE_SDK/GD32VW55x_RELEASE_V1.0.2/MSDK/lwip/lwip-2.1.2/src/core/ipv4\ip4.c **** static int
 239:C:/Users/stapi/OneDrive/Desktop/GD32VW553/V1_MQTT_OK/GD32VW55X_Wifi_BLE_SDK/GD32VW55x_RELEASE_V1.0.2/MSDK/lwip/lwip-2.1.2/src/core/ipv4\ip4.c **** ip4_canforward(struct pbuf *p)
 240:C:/Users/stapi/OneDrive/Desktop/GD32VW553/V1_MQTT_OK/GD32VW55X_Wifi_BLE_SDK/GD32VW55x_RELEASE_V1.0.2/MSDK/lwip/lwip-2.1.2/src/core/ipv4\ip4.c **** {
 241:C:/Users/stapi/OneDrive/Desktop/GD32VW553/V1_MQTT_OK/GD32VW55X_Wifi_BLE_SDK/GD32VW55x_RELEASE_V1.0.2/MSDK/lwip/lwip-2.1.2/src/core/ipv4\ip4.c ****   u32_t addr = lwip_htonl(ip4_addr_get_u32(ip4_current_dest_addr()));
 242:C:/Users/stapi/OneDrive/Desktop/GD32VW553/V1_MQTT_OK/GD32VW55X_Wifi_BLE_SDK/GD32VW55x_RELEASE_V1.0.2/MSDK/lwip/lwip-2.1.2/src/core/ipv4\ip4.c **** 
 243:C:/Users/stapi/OneDrive/Desktop/GD32VW553/V1_MQTT_OK/GD32VW55X_Wifi_BLE_SDK/GD32VW55x_RELEASE_V1.0.2/MSDK/lwip/lwip-2.1.2/src/core/ipv4\ip4.c **** #ifdef LWIP_HOOK_IP4_CANFORWARD
 244:C:/Users/stapi/OneDrive/Desktop/GD32VW553/V1_MQTT_OK/GD32VW55X_Wifi_BLE_SDK/GD32VW55x_RELEASE_V1.0.2/MSDK/lwip/lwip-2.1.2/src/core/ipv4\ip4.c ****   int ret = LWIP_HOOK_IP4_CANFORWARD(p, addr);
 245:C:/Users/stapi/OneDrive/Desktop/GD32VW553/V1_MQTT_OK/GD32VW55X_Wifi_BLE_SDK/GD32VW55x_RELEASE_V1.0.2/MSDK/lwip/lwip-2.1.2/src/core/ipv4\ip4.c ****   if (ret >= 0) {
 246:C:/Users/stapi/OneDrive/Desktop/GD32VW553/V1_MQTT_OK/GD32VW55X_Wifi_BLE_SDK/GD32VW55x_RELEASE_V1.0.2/MSDK/lwip/lwip-2.1.2/src/core/ipv4\ip4.c ****     return ret;
 247:C:/Users/stapi/OneDrive/Desktop/GD32VW553/V1_MQTT_OK/GD32VW55X_Wifi_BLE_SDK/GD32VW55x_RELEASE_V1.0.2/MSDK/lwip/lwip-2.1.2/src/core/ipv4\ip4.c ****   }
 248:C:/Users/stapi/OneDrive/Desktop/GD32VW553/V1_MQTT_OK/GD32VW55X_Wifi_BLE_SDK/GD32VW55x_RELEASE_V1.0.2/MSDK/lwip/lwip-2.1.2/src/core/ipv4\ip4.c **** #endif /* LWIP_HOOK_IP4_CANFORWARD */
 249:C:/Users/stapi/OneDrive/Desktop/GD32VW553/V1_MQTT_OK/GD32VW55X_Wifi_BLE_SDK/GD32VW55x_RELEASE_V1.0.2/MSDK/lwip/lwip-2.1.2/src/core/ipv4\ip4.c **** 
 250:C:/Users/stapi/OneDrive/Desktop/GD32VW553/V1_MQTT_OK/GD32VW55X_Wifi_BLE_SDK/GD32VW55x_RELEASE_V1.0.2/MSDK/lwip/lwip-2.1.2/src/core/ipv4\ip4.c ****   if (p->flags & PBUF_FLAG_LLBCAST) {
 251:C:/Users/stapi/OneDrive/Desktop/GD32VW553/V1_MQTT_OK/GD32VW55X_Wifi_BLE_SDK/GD32VW55x_RELEASE_V1.0.2/MSDK/lwip/lwip-2.1.2/src/core/ipv4\ip4.c ****     /* don't route link-layer broadcasts */
 252:C:/Users/stapi/OneDrive/Desktop/GD32VW553/V1_MQTT_OK/GD32VW55X_Wifi_BLE_SDK/GD32VW55x_RELEASE_V1.0.2/MSDK/lwip/lwip-2.1.2/src/core/ipv4\ip4.c ****     return 0;
 253:C:/Users/stapi/OneDrive/Desktop/GD32VW553/V1_MQTT_OK/GD32VW55X_Wifi_BLE_SDK/GD32VW55x_RELEASE_V1.0.2/MSDK/lwip/lwip-2.1.2/src/core/ipv4\ip4.c ****   }
 254:C:/Users/stapi/OneDrive/Desktop/GD32VW553/V1_MQTT_OK/GD32VW55X_Wifi_BLE_SDK/GD32VW55x_RELEASE_V1.0.2/MSDK/lwip/lwip-2.1.2/src/core/ipv4\ip4.c ****   if ((p->flags & PBUF_FLAG_LLMCAST) || IP_MULTICAST(addr)) {
 255:C:/Users/stapi/OneDrive/Desktop/GD32VW553/V1_MQTT_OK/GD32VW55X_Wifi_BLE_SDK/GD32VW55x_RELEASE_V1.0.2/MSDK/lwip/lwip-2.1.2/src/core/ipv4\ip4.c ****     /* don't route link-layer multicasts (use LWIP_HOOK_IP4_CANFORWARD instead) */
 256:C:/Users/stapi/OneDrive/Desktop/GD32VW553/V1_MQTT_OK/GD32VW55X_Wifi_BLE_SDK/GD32VW55x_RELEASE_V1.0.2/MSDK/lwip/lwip-2.1.2/src/core/ipv4\ip4.c ****     return 0;
 257:C:/Users/stapi/OneDrive/Desktop/GD32VW553/V1_MQTT_OK/GD32VW55X_Wifi_BLE_SDK/GD32VW55x_RELEASE_V1.0.2/MSDK/lwip/lwip-2.1.2/src/core/ipv4\ip4.c ****   }
 258:C:/Users/stapi/OneDrive/Desktop/GD32VW553/V1_MQTT_OK/GD32VW55X_Wifi_BLE_SDK/GD32VW55x_RELEASE_V1.0.2/MSDK/lwip/lwip-2.1.2/src/core/ipv4\ip4.c ****   if (IP_EXPERIMENTAL(addr)) {
 259:C:/Users/stapi/OneDrive/Desktop/GD32VW553/V1_MQTT_OK/GD32VW55X_Wifi_BLE_SDK/GD32VW55x_RELEASE_V1.0.2/MSDK/lwip/lwip-2.1.2/src/core/ipv4\ip4.c ****     return 0;
 260:C:/Users/stapi/OneDrive/Desktop/GD32VW553/V1_MQTT_OK/GD32VW55X_Wifi_BLE_SDK/GD32VW55x_RELEASE_V1.0.2/MSDK/lwip/lwip-2.1.2/src/core/ipv4\ip4.c ****   }
 261:C:/Users/stapi/OneDrive/Desktop/GD32VW553/V1_MQTT_OK/GD32VW55X_Wifi_BLE_SDK/GD32VW55x_RELEASE_V1.0.2/MSDK/lwip/lwip-2.1.2/src/core/ipv4\ip4.c ****   if (IP_CLASSA(addr)) {
 262:C:/Users/stapi/OneDrive/Desktop/GD32VW553/V1_MQTT_OK/GD32VW55X_Wifi_BLE_SDK/GD32VW55x_RELEASE_V1.0.2/MSDK/lwip/lwip-2.1.2/src/core/ipv4\ip4.c ****     u32_t net = addr & IP_CLASSA_NET;
 263:C:/Users/stapi/OneDrive/Desktop/GD32VW553/V1_MQTT_OK/GD32VW55X_Wifi_BLE_SDK/GD32VW55x_RELEASE_V1.0.2/MSDK/lwip/lwip-2.1.2/src/core/ipv4\ip4.c ****     if ((net == 0) || (net == ((u32_t)IP_LOOPBACKNET << IP_CLASSA_NSHIFT))) {
 264:C:/Users/stapi/OneDrive/Desktop/GD32VW553/V1_MQTT_OK/GD32VW55X_Wifi_BLE_SDK/GD32VW55x_RELEASE_V1.0.2/MSDK/lwip/lwip-2.1.2/src/core/ipv4\ip4.c ****       /* don't route loopback packets */
 265:C:/Users/stapi/OneDrive/Desktop/GD32VW553/V1_MQTT_OK/GD32VW55X_Wifi_BLE_SDK/GD32VW55x_RELEASE_V1.0.2/MSDK/lwip/lwip-2.1.2/src/core/ipv4\ip4.c ****       return 0;
 266:C:/Users/stapi/OneDrive/Desktop/GD32VW553/V1_MQTT_OK/GD32VW55X_Wifi_BLE_SDK/GD32VW55x_RELEASE_V1.0.2/MSDK/lwip/lwip-2.1.2/src/core/ipv4\ip4.c ****     }
 267:C:/Users/stapi/OneDrive/Desktop/GD32VW553/V1_MQTT_OK/GD32VW55X_Wifi_BLE_SDK/GD32VW55x_RELEASE_V1.0.2/MSDK/lwip/lwip-2.1.2/src/core/ipv4\ip4.c ****   }
 268:C:/Users/stapi/OneDrive/Desktop/GD32VW553/V1_MQTT_OK/GD32VW55X_Wifi_BLE_SDK/GD32VW55x_RELEASE_V1.0.2/MSDK/lwip/lwip-2.1.2/src/core/ipv4\ip4.c ****   return 1;
 269:C:/Users/stapi/OneDrive/Desktop/GD32VW553/V1_MQTT_OK/GD32VW55X_Wifi_BLE_SDK/GD32VW55x_RELEASE_V1.0.2/MSDK/lwip/lwip-2.1.2/src/core/ipv4\ip4.c **** }
 270:C:/Users/stapi/OneDrive/Desktop/GD32VW553/V1_MQTT_OK/GD32VW55X_Wifi_BLE_SDK/GD32VW55x_RELEASE_V1.0.2/MSDK/lwip/lwip-2.1.2/src/core/ipv4\ip4.c **** 
 271:C:/Users/stapi/OneDrive/Desktop/GD32VW553/V1_MQTT_OK/GD32VW55X_Wifi_BLE_SDK/GD32VW55x_RELEASE_V1.0.2/MSDK/lwip/lwip-2.1.2/src/core/ipv4\ip4.c **** /**
 272:C:/Users/stapi/OneDrive/Desktop/GD32VW553/V1_MQTT_OK/GD32VW55X_Wifi_BLE_SDK/GD32VW55x_RELEASE_V1.0.2/MSDK/lwip/lwip-2.1.2/src/core/ipv4\ip4.c ****  * Forwards an IP packet. It finds an appropriate route for the
 273:C:/Users/stapi/OneDrive/Desktop/GD32VW553/V1_MQTT_OK/GD32VW55X_Wifi_BLE_SDK/GD32VW55x_RELEASE_V1.0.2/MSDK/lwip/lwip-2.1.2/src/core/ipv4\ip4.c ****  * packet, decrements the TTL value of the packet, adjusts the
 274:C:/Users/stapi/OneDrive/Desktop/GD32VW553/V1_MQTT_OK/GD32VW55X_Wifi_BLE_SDK/GD32VW55x_RELEASE_V1.0.2/MSDK/lwip/lwip-2.1.2/src/core/ipv4\ip4.c ****  * checksum and outputs the packet on the appropriate interface.
 275:C:/Users/stapi/OneDrive/Desktop/GD32VW553/V1_MQTT_OK/GD32VW55X_Wifi_BLE_SDK/GD32VW55x_RELEASE_V1.0.2/MSDK/lwip/lwip-2.1.2/src/core/ipv4\ip4.c ****  *
 276:C:/Users/stapi/OneDrive/Desktop/GD32VW553/V1_MQTT_OK/GD32VW55X_Wifi_BLE_SDK/GD32VW55x_RELEASE_V1.0.2/MSDK/lwip/lwip-2.1.2/src/core/ipv4\ip4.c ****  * @param p the packet to forward (p->payload points to IP header)
 277:C:/Users/stapi/OneDrive/Desktop/GD32VW553/V1_MQTT_OK/GD32VW55X_Wifi_BLE_SDK/GD32VW55x_RELEASE_V1.0.2/MSDK/lwip/lwip-2.1.2/src/core/ipv4\ip4.c ****  * @param iphdr the IP header of the input packet
 278:C:/Users/stapi/OneDrive/Desktop/GD32VW553/V1_MQTT_OK/GD32VW55X_Wifi_BLE_SDK/GD32VW55x_RELEASE_V1.0.2/MSDK/lwip/lwip-2.1.2/src/core/ipv4\ip4.c ****  * @param inp the netif on which this packet was received
 279:C:/Users/stapi/OneDrive/Desktop/GD32VW553/V1_MQTT_OK/GD32VW55X_Wifi_BLE_SDK/GD32VW55x_RELEASE_V1.0.2/MSDK/lwip/lwip-2.1.2/src/core/ipv4\ip4.c ****  */
 280:C:/Users/stapi/OneDrive/Desktop/GD32VW553/V1_MQTT_OK/GD32VW55X_Wifi_BLE_SDK/GD32VW55x_RELEASE_V1.0.2/MSDK/lwip/lwip-2.1.2/src/core/ipv4\ip4.c **** static void
 281:C:/Users/stapi/OneDrive/Desktop/GD32VW553/V1_MQTT_OK/GD32VW55X_Wifi_BLE_SDK/GD32VW55x_RELEASE_V1.0.2/MSDK/lwip/lwip-2.1.2/src/core/ipv4\ip4.c **** ip4_forward(struct pbuf *p, struct ip_hdr *iphdr, struct netif *inp)
 282:C:/Users/stapi/OneDrive/Desktop/GD32VW553/V1_MQTT_OK/GD32VW55X_Wifi_BLE_SDK/GD32VW55x_RELEASE_V1.0.2/MSDK/lwip/lwip-2.1.2/src/core/ipv4\ip4.c **** {
 283:C:/Users/stapi/OneDrive/Desktop/GD32VW553/V1_MQTT_OK/GD32VW55X_Wifi_BLE_SDK/GD32VW55x_RELEASE_V1.0.2/MSDK/lwip/lwip-2.1.2/src/core/ipv4\ip4.c ****   struct netif *netif;
 284:C:/Users/stapi/OneDrive/Desktop/GD32VW553/V1_MQTT_OK/GD32VW55X_Wifi_BLE_SDK/GD32VW55x_RELEASE_V1.0.2/MSDK/lwip/lwip-2.1.2/src/core/ipv4\ip4.c **** 
 285:C:/Users/stapi/OneDrive/Desktop/GD32VW553/V1_MQTT_OK/GD32VW55X_Wifi_BLE_SDK/GD32VW55x_RELEASE_V1.0.2/MSDK/lwip/lwip-2.1.2/src/core/ipv4\ip4.c ****   PERF_START;
 286:C:/Users/stapi/OneDrive/Desktop/GD32VW553/V1_MQTT_OK/GD32VW55X_Wifi_BLE_SDK/GD32VW55x_RELEASE_V1.0.2/MSDK/lwip/lwip-2.1.2/src/core/ipv4\ip4.c ****   LWIP_UNUSED_ARG(inp);
 287:C:/Users/stapi/OneDrive/Desktop/GD32VW553/V1_MQTT_OK/GD32VW55X_Wifi_BLE_SDK/GD32VW55x_RELEASE_V1.0.2/MSDK/lwip/lwip-2.1.2/src/core/ipv4\ip4.c **** 
 288:C:/Users/stapi/OneDrive/Desktop/GD32VW553/V1_MQTT_OK/GD32VW55X_Wifi_BLE_SDK/GD32VW55x_RELEASE_V1.0.2/MSDK/lwip/lwip-2.1.2/src/core/ipv4\ip4.c ****   if (!ip4_canforward(p)) {
 289:C:/Users/stapi/OneDrive/Desktop/GD32VW553/V1_MQTT_OK/GD32VW55X_Wifi_BLE_SDK/GD32VW55x_RELEASE_V1.0.2/MSDK/lwip/lwip-2.1.2/src/core/ipv4\ip4.c ****     goto return_noroute;
 290:C:/Users/stapi/OneDrive/Desktop/GD32VW553/V1_MQTT_OK/GD32VW55X_Wifi_BLE_SDK/GD32VW55x_RELEASE_V1.0.2/MSDK/lwip/lwip-2.1.2/src/core/ipv4\ip4.c ****   }
 291:C:/Users/stapi/OneDrive/Desktop/GD32VW553/V1_MQTT_OK/GD32VW55X_Wifi_BLE_SDK/GD32VW55x_RELEASE_V1.0.2/MSDK/lwip/lwip-2.1.2/src/core/ipv4\ip4.c **** 
 292:C:/Users/stapi/OneDrive/Desktop/GD32VW553/V1_MQTT_OK/GD32VW55X_Wifi_BLE_SDK/GD32VW55x_RELEASE_V1.0.2/MSDK/lwip/lwip-2.1.2/src/core/ipv4\ip4.c ****   /* RFC3927 2.7: do not forward link-local addresses */
 293:C:/Users/stapi/OneDrive/Desktop/GD32VW553/V1_MQTT_OK/GD32VW55X_Wifi_BLE_SDK/GD32VW55x_RELEASE_V1.0.2/MSDK/lwip/lwip-2.1.2/src/core/ipv4\ip4.c ****   if (ip4_addr_islinklocal(ip4_current_dest_addr())) {
 294:C:/Users/stapi/OneDrive/Desktop/GD32VW553/V1_MQTT_OK/GD32VW55X_Wifi_BLE_SDK/GD32VW55x_RELEASE_V1.0.2/MSDK/lwip/lwip-2.1.2/src/core/ipv4\ip4.c ****     LWIP_DEBUGF(IP_DEBUG, ("ip4_forward: not forwarding LLA %"U16_F".%"U16_F".%"U16_F".%"U16_F"\n",
 295:C:/Users/stapi/OneDrive/Desktop/GD32VW553/V1_MQTT_OK/GD32VW55X_Wifi_BLE_SDK/GD32VW55x_RELEASE_V1.0.2/MSDK/lwip/lwip-2.1.2/src/core/ipv4\ip4.c ****                            ip4_addr1_16(ip4_current_dest_addr()), ip4_addr2_16(ip4_current_dest_add
 296:C:/Users/stapi/OneDrive/Desktop/GD32VW553/V1_MQTT_OK/GD32VW55X_Wifi_BLE_SDK/GD32VW55x_RELEASE_V1.0.2/MSDK/lwip/lwip-2.1.2/src/core/ipv4\ip4.c ****                            ip4_addr3_16(ip4_current_dest_addr()), ip4_addr4_16(ip4_current_dest_add
 297:C:/Users/stapi/OneDrive/Desktop/GD32VW553/V1_MQTT_OK/GD32VW55X_Wifi_BLE_SDK/GD32VW55x_RELEASE_V1.0.2/MSDK/lwip/lwip-2.1.2/src/core/ipv4\ip4.c ****     goto return_noroute;
 298:C:/Users/stapi/OneDrive/Desktop/GD32VW553/V1_MQTT_OK/GD32VW55X_Wifi_BLE_SDK/GD32VW55x_RELEASE_V1.0.2/MSDK/lwip/lwip-2.1.2/src/core/ipv4\ip4.c ****   }
 299:C:/Users/stapi/OneDrive/Desktop/GD32VW553/V1_MQTT_OK/GD32VW55X_Wifi_BLE_SDK/GD32VW55x_RELEASE_V1.0.2/MSDK/lwip/lwip-2.1.2/src/core/ipv4\ip4.c **** 
 300:C:/Users/stapi/OneDrive/Desktop/GD32VW553/V1_MQTT_OK/GD32VW55X_Wifi_BLE_SDK/GD32VW55x_RELEASE_V1.0.2/MSDK/lwip/lwip-2.1.2/src/core/ipv4\ip4.c ****   /* Find network interface where to forward this IP packet to. */
 301:C:/Users/stapi/OneDrive/Desktop/GD32VW553/V1_MQTT_OK/GD32VW55X_Wifi_BLE_SDK/GD32VW55x_RELEASE_V1.0.2/MSDK/lwip/lwip-2.1.2/src/core/ipv4\ip4.c ****   netif = ip4_route_src(ip4_current_src_addr(), ip4_current_dest_addr());
 302:C:/Users/stapi/OneDrive/Desktop/GD32VW553/V1_MQTT_OK/GD32VW55X_Wifi_BLE_SDK/GD32VW55x_RELEASE_V1.0.2/MSDK/lwip/lwip-2.1.2/src/core/ipv4\ip4.c ****   if (netif == NULL) {
 303:C:/Users/stapi/OneDrive/Desktop/GD32VW553/V1_MQTT_OK/GD32VW55X_Wifi_BLE_SDK/GD32VW55x_RELEASE_V1.0.2/MSDK/lwip/lwip-2.1.2/src/core/ipv4\ip4.c ****     LWIP_DEBUGF(IP_DEBUG, ("ip4_forward: no forwarding route for %"U16_F".%"U16_F".%"U16_F".%"U16_F
 304:C:/Users/stapi/OneDrive/Desktop/GD32VW553/V1_MQTT_OK/GD32VW55X_Wifi_BLE_SDK/GD32VW55x_RELEASE_V1.0.2/MSDK/lwip/lwip-2.1.2/src/core/ipv4\ip4.c ****                            ip4_addr1_16(ip4_current_dest_addr()), ip4_addr2_16(ip4_current_dest_add
 305:C:/Users/stapi/OneDrive/Desktop/GD32VW553/V1_MQTT_OK/GD32VW55X_Wifi_BLE_SDK/GD32VW55x_RELEASE_V1.0.2/MSDK/lwip/lwip-2.1.2/src/core/ipv4\ip4.c ****                            ip4_addr3_16(ip4_current_dest_addr()), ip4_addr4_16(ip4_current_dest_add
 306:C:/Users/stapi/OneDrive/Desktop/GD32VW553/V1_MQTT_OK/GD32VW55X_Wifi_BLE_SDK/GD32VW55x_RELEASE_V1.0.2/MSDK/lwip/lwip-2.1.2/src/core/ipv4\ip4.c ****     /* @todo: send ICMP_DUR_NET? */
 307:C:/Users/stapi/OneDrive/Desktop/GD32VW553/V1_MQTT_OK/GD32VW55X_Wifi_BLE_SDK/GD32VW55x_RELEASE_V1.0.2/MSDK/lwip/lwip-2.1.2/src/core/ipv4\ip4.c ****     goto return_noroute;
 308:C:/Users/stapi/OneDrive/Desktop/GD32VW553/V1_MQTT_OK/GD32VW55X_Wifi_BLE_SDK/GD32VW55x_RELEASE_V1.0.2/MSDK/lwip/lwip-2.1.2/src/core/ipv4\ip4.c ****   }
 309:C:/Users/stapi/OneDrive/Desktop/GD32VW553/V1_MQTT_OK/GD32VW55X_Wifi_BLE_SDK/GD32VW55x_RELEASE_V1.0.2/MSDK/lwip/lwip-2.1.2/src/core/ipv4\ip4.c **** #if !IP_FORWARD_ALLOW_TX_ON_RX_NETIF
 310:C:/Users/stapi/OneDrive/Desktop/GD32VW553/V1_MQTT_OK/GD32VW55X_Wifi_BLE_SDK/GD32VW55x_RELEASE_V1.0.2/MSDK/lwip/lwip-2.1.2/src/core/ipv4\ip4.c ****   /* Do not forward packets onto the same network interface on which
 311:C:/Users/stapi/OneDrive/Desktop/GD32VW553/V1_MQTT_OK/GD32VW55X_Wifi_BLE_SDK/GD32VW55x_RELEASE_V1.0.2/MSDK/lwip/lwip-2.1.2/src/core/ipv4\ip4.c ****    * they arrived. */
 312:C:/Users/stapi/OneDrive/Desktop/GD32VW553/V1_MQTT_OK/GD32VW55X_Wifi_BLE_SDK/GD32VW55x_RELEASE_V1.0.2/MSDK/lwip/lwip-2.1.2/src/core/ipv4\ip4.c ****   if (netif == inp) {
 313:C:/Users/stapi/OneDrive/Desktop/GD32VW553/V1_MQTT_OK/GD32VW55X_Wifi_BLE_SDK/GD32VW55x_RELEASE_V1.0.2/MSDK/lwip/lwip-2.1.2/src/core/ipv4\ip4.c ****     LWIP_DEBUGF(IP_DEBUG, ("ip4_forward: not bouncing packets back on incoming interface.\n"));
 314:C:/Users/stapi/OneDrive/Desktop/GD32VW553/V1_MQTT_OK/GD32VW55X_Wifi_BLE_SDK/GD32VW55x_RELEASE_V1.0.2/MSDK/lwip/lwip-2.1.2/src/core/ipv4\ip4.c ****     goto return_noroute;
 315:C:/Users/stapi/OneDrive/Desktop/GD32VW553/V1_MQTT_OK/GD32VW55X_Wifi_BLE_SDK/GD32VW55x_RELEASE_V1.0.2/MSDK/lwip/lwip-2.1.2/src/core/ipv4\ip4.c ****   }
 316:C:/Users/stapi/OneDrive/Desktop/GD32VW553/V1_MQTT_OK/GD32VW55X_Wifi_BLE_SDK/GD32VW55x_RELEASE_V1.0.2/MSDK/lwip/lwip-2.1.2/src/core/ipv4\ip4.c **** #endif /* IP_FORWARD_ALLOW_TX_ON_RX_NETIF */
 317:C:/Users/stapi/OneDrive/Desktop/GD32VW553/V1_MQTT_OK/GD32VW55X_Wifi_BLE_SDK/GD32VW55x_RELEASE_V1.0.2/MSDK/lwip/lwip-2.1.2/src/core/ipv4\ip4.c **** 
 318:C:/Users/stapi/OneDrive/Desktop/GD32VW553/V1_MQTT_OK/GD32VW55X_Wifi_BLE_SDK/GD32VW55x_RELEASE_V1.0.2/MSDK/lwip/lwip-2.1.2/src/core/ipv4\ip4.c ****   /* decrement TTL */
 319:C:/Users/stapi/OneDrive/Desktop/GD32VW553/V1_MQTT_OK/GD32VW55X_Wifi_BLE_SDK/GD32VW55x_RELEASE_V1.0.2/MSDK/lwip/lwip-2.1.2/src/core/ipv4\ip4.c ****   IPH_TTL_SET(iphdr, IPH_TTL(iphdr) - 1);
 320:C:/Users/stapi/OneDrive/Desktop/GD32VW553/V1_MQTT_OK/GD32VW55X_Wifi_BLE_SDK/GD32VW55x_RELEASE_V1.0.2/MSDK/lwip/lwip-2.1.2/src/core/ipv4\ip4.c ****   /* send ICMP if TTL == 0 */
 321:C:/Users/stapi/OneDrive/Desktop/GD32VW553/V1_MQTT_OK/GD32VW55X_Wifi_BLE_SDK/GD32VW55x_RELEASE_V1.0.2/MSDK/lwip/lwip-2.1.2/src/core/ipv4\ip4.c ****   if (IPH_TTL(iphdr) == 0) {
 322:C:/Users/stapi/OneDrive/Desktop/GD32VW553/V1_MQTT_OK/GD32VW55X_Wifi_BLE_SDK/GD32VW55x_RELEASE_V1.0.2/MSDK/lwip/lwip-2.1.2/src/core/ipv4\ip4.c ****     MIB2_STATS_INC(mib2.ipinhdrerrors);
 323:C:/Users/stapi/OneDrive/Desktop/GD32VW553/V1_MQTT_OK/GD32VW55X_Wifi_BLE_SDK/GD32VW55x_RELEASE_V1.0.2/MSDK/lwip/lwip-2.1.2/src/core/ipv4\ip4.c **** #if LWIP_ICMP
 324:C:/Users/stapi/OneDrive/Desktop/GD32VW553/V1_MQTT_OK/GD32VW55X_Wifi_BLE_SDK/GD32VW55x_RELEASE_V1.0.2/MSDK/lwip/lwip-2.1.2/src/core/ipv4\ip4.c ****     /* Don't send ICMP messages in response to ICMP messages */
 325:C:/Users/stapi/OneDrive/Desktop/GD32VW553/V1_MQTT_OK/GD32VW55X_Wifi_BLE_SDK/GD32VW55x_RELEASE_V1.0.2/MSDK/lwip/lwip-2.1.2/src/core/ipv4\ip4.c ****     if (IPH_PROTO(iphdr) != IP_PROTO_ICMP) {
 326:C:/Users/stapi/OneDrive/Desktop/GD32VW553/V1_MQTT_OK/GD32VW55X_Wifi_BLE_SDK/GD32VW55x_RELEASE_V1.0.2/MSDK/lwip/lwip-2.1.2/src/core/ipv4\ip4.c ****       icmp_time_exceeded(p, ICMP_TE_TTL);
 327:C:/Users/stapi/OneDrive/Desktop/GD32VW553/V1_MQTT_OK/GD32VW55X_Wifi_BLE_SDK/GD32VW55x_RELEASE_V1.0.2/MSDK/lwip/lwip-2.1.2/src/core/ipv4\ip4.c ****     }
 328:C:/Users/stapi/OneDrive/Desktop/GD32VW553/V1_MQTT_OK/GD32VW55X_Wifi_BLE_SDK/GD32VW55x_RELEASE_V1.0.2/MSDK/lwip/lwip-2.1.2/src/core/ipv4\ip4.c **** #endif /* LWIP_ICMP */
 329:C:/Users/stapi/OneDrive/Desktop/GD32VW553/V1_MQTT_OK/GD32VW55X_Wifi_BLE_SDK/GD32VW55x_RELEASE_V1.0.2/MSDK/lwip/lwip-2.1.2/src/core/ipv4\ip4.c ****     return;
 330:C:/Users/stapi/OneDrive/Desktop/GD32VW553/V1_MQTT_OK/GD32VW55X_Wifi_BLE_SDK/GD32VW55x_RELEASE_V1.0.2/MSDK/lwip/lwip-2.1.2/src/core/ipv4\ip4.c ****   }
 331:C:/Users/stapi/OneDrive/Desktop/GD32VW553/V1_MQTT_OK/GD32VW55X_Wifi_BLE_SDK/GD32VW55x_RELEASE_V1.0.2/MSDK/lwip/lwip-2.1.2/src/core/ipv4\ip4.c **** 
 332:C:/Users/stapi/OneDrive/Desktop/GD32VW553/V1_MQTT_OK/GD32VW55X_Wifi_BLE_SDK/GD32VW55x_RELEASE_V1.0.2/MSDK/lwip/lwip-2.1.2/src/core/ipv4\ip4.c ****   /* Incrementally update the IP checksum. */
 333:C:/Users/stapi/OneDrive/Desktop/GD32VW553/V1_MQTT_OK/GD32VW55X_Wifi_BLE_SDK/GD32VW55x_RELEASE_V1.0.2/MSDK/lwip/lwip-2.1.2/src/core/ipv4\ip4.c ****   if (IPH_CHKSUM(iphdr) >= PP_HTONS(0xffffU - 0x100)) {
 334:C:/Users/stapi/OneDrive/Desktop/GD32VW553/V1_MQTT_OK/GD32VW55X_Wifi_BLE_SDK/GD32VW55x_RELEASE_V1.0.2/MSDK/lwip/lwip-2.1.2/src/core/ipv4\ip4.c ****     IPH_CHKSUM_SET(iphdr, (u16_t)(IPH_CHKSUM(iphdr) + PP_HTONS(0x100) + 1));
 335:C:/Users/stapi/OneDrive/Desktop/GD32VW553/V1_MQTT_OK/GD32VW55X_Wifi_BLE_SDK/GD32VW55x_RELEASE_V1.0.2/MSDK/lwip/lwip-2.1.2/src/core/ipv4\ip4.c ****   } else {
 336:C:/Users/stapi/OneDrive/Desktop/GD32VW553/V1_MQTT_OK/GD32VW55X_Wifi_BLE_SDK/GD32VW55x_RELEASE_V1.0.2/MSDK/lwip/lwip-2.1.2/src/core/ipv4\ip4.c ****     IPH_CHKSUM_SET(iphdr, (u16_t)(IPH_CHKSUM(iphdr) + PP_HTONS(0x100)));
 337:C:/Users/stapi/OneDrive/Desktop/GD32VW553/V1_MQTT_OK/GD32VW55X_Wifi_BLE_SDK/GD32VW55x_RELEASE_V1.0.2/MSDK/lwip/lwip-2.1.2/src/core/ipv4\ip4.c ****   }
 338:C:/Users/stapi/OneDrive/Desktop/GD32VW553/V1_MQTT_OK/GD32VW55X_Wifi_BLE_SDK/GD32VW55x_RELEASE_V1.0.2/MSDK/lwip/lwip-2.1.2/src/core/ipv4\ip4.c **** 
 339:C:/Users/stapi/OneDrive/Desktop/GD32VW553/V1_MQTT_OK/GD32VW55X_Wifi_BLE_SDK/GD32VW55x_RELEASE_V1.0.2/MSDK/lwip/lwip-2.1.2/src/core/ipv4\ip4.c ****   LWIP_DEBUGF(IP_DEBUG, ("ip4_forward: forwarding packet to %"U16_F".%"U16_F".%"U16_F".%"U16_F"\n",
 340:C:/Users/stapi/OneDrive/Desktop/GD32VW553/V1_MQTT_OK/GD32VW55X_Wifi_BLE_SDK/GD32VW55x_RELEASE_V1.0.2/MSDK/lwip/lwip-2.1.2/src/core/ipv4\ip4.c ****                          ip4_addr1_16(ip4_current_dest_addr()), ip4_addr2_16(ip4_current_dest_addr(
 341:C:/Users/stapi/OneDrive/Desktop/GD32VW553/V1_MQTT_OK/GD32VW55X_Wifi_BLE_SDK/GD32VW55x_RELEASE_V1.0.2/MSDK/lwip/lwip-2.1.2/src/core/ipv4\ip4.c ****                          ip4_addr3_16(ip4_current_dest_addr()), ip4_addr4_16(ip4_current_dest_addr(
 342:C:/Users/stapi/OneDrive/Desktop/GD32VW553/V1_MQTT_OK/GD32VW55X_Wifi_BLE_SDK/GD32VW55x_RELEASE_V1.0.2/MSDK/lwip/lwip-2.1.2/src/core/ipv4\ip4.c **** 
 343:C:/Users/stapi/OneDrive/Desktop/GD32VW553/V1_MQTT_OK/GD32VW55X_Wifi_BLE_SDK/GD32VW55x_RELEASE_V1.0.2/MSDK/lwip/lwip-2.1.2/src/core/ipv4\ip4.c ****   IP_STATS_INC(ip.fw);
 344:C:/Users/stapi/OneDrive/Desktop/GD32VW553/V1_MQTT_OK/GD32VW55X_Wifi_BLE_SDK/GD32VW55x_RELEASE_V1.0.2/MSDK/lwip/lwip-2.1.2/src/core/ipv4\ip4.c ****   MIB2_STATS_INC(mib2.ipforwdatagrams);
 345:C:/Users/stapi/OneDrive/Desktop/GD32VW553/V1_MQTT_OK/GD32VW55X_Wifi_BLE_SDK/GD32VW55x_RELEASE_V1.0.2/MSDK/lwip/lwip-2.1.2/src/core/ipv4\ip4.c ****   IP_STATS_INC(ip.xmit);
 346:C:/Users/stapi/OneDrive/Desktop/GD32VW553/V1_MQTT_OK/GD32VW55X_Wifi_BLE_SDK/GD32VW55x_RELEASE_V1.0.2/MSDK/lwip/lwip-2.1.2/src/core/ipv4\ip4.c **** 
 347:C:/Users/stapi/OneDrive/Desktop/GD32VW553/V1_MQTT_OK/GD32VW55X_Wifi_BLE_SDK/GD32VW55x_RELEASE_V1.0.2/MSDK/lwip/lwip-2.1.2/src/core/ipv4\ip4.c ****   PERF_STOP("ip4_forward");
 348:C:/Users/stapi/OneDrive/Desktop/GD32VW553/V1_MQTT_OK/GD32VW55X_Wifi_BLE_SDK/GD32VW55x_RELEASE_V1.0.2/MSDK/lwip/lwip-2.1.2/src/core/ipv4\ip4.c ****   /* don't fragment if interface has mtu set to 0 [loopif] */
 349:C:/Users/stapi/OneDrive/Desktop/GD32VW553/V1_MQTT_OK/GD32VW55X_Wifi_BLE_SDK/GD32VW55x_RELEASE_V1.0.2/MSDK/lwip/lwip-2.1.2/src/core/ipv4\ip4.c ****   if (netif->mtu && (p->tot_len > netif->mtu)) {
 350:C:/Users/stapi/OneDrive/Desktop/GD32VW553/V1_MQTT_OK/GD32VW55X_Wifi_BLE_SDK/GD32VW55x_RELEASE_V1.0.2/MSDK/lwip/lwip-2.1.2/src/core/ipv4\ip4.c ****     if ((IPH_OFFSET(iphdr) & PP_NTOHS(IP_DF)) == 0) {
 351:C:/Users/stapi/OneDrive/Desktop/GD32VW553/V1_MQTT_OK/GD32VW55X_Wifi_BLE_SDK/GD32VW55x_RELEASE_V1.0.2/MSDK/lwip/lwip-2.1.2/src/core/ipv4\ip4.c **** #if IP_FRAG
 352:C:/Users/stapi/OneDrive/Desktop/GD32VW553/V1_MQTT_OK/GD32VW55X_Wifi_BLE_SDK/GD32VW55x_RELEASE_V1.0.2/MSDK/lwip/lwip-2.1.2/src/core/ipv4\ip4.c ****       ip4_frag(p, netif, ip4_current_dest_addr());
 353:C:/Users/stapi/OneDrive/Desktop/GD32VW553/V1_MQTT_OK/GD32VW55X_Wifi_BLE_SDK/GD32VW55x_RELEASE_V1.0.2/MSDK/lwip/lwip-2.1.2/src/core/ipv4\ip4.c **** #else /* IP_FRAG */
 354:C:/Users/stapi/OneDrive/Desktop/GD32VW553/V1_MQTT_OK/GD32VW55X_Wifi_BLE_SDK/GD32VW55x_RELEASE_V1.0.2/MSDK/lwip/lwip-2.1.2/src/core/ipv4\ip4.c ****       /* @todo: send ICMP Destination Unreachable code 13 "Communication administratively prohibite
 355:C:/Users/stapi/OneDrive/Desktop/GD32VW553/V1_MQTT_OK/GD32VW55X_Wifi_BLE_SDK/GD32VW55x_RELEASE_V1.0.2/MSDK/lwip/lwip-2.1.2/src/core/ipv4\ip4.c **** #endif /* IP_FRAG */
 356:C:/Users/stapi/OneDrive/Desktop/GD32VW553/V1_MQTT_OK/GD32VW55X_Wifi_BLE_SDK/GD32VW55x_RELEASE_V1.0.2/MSDK/lwip/lwip-2.1.2/src/core/ipv4\ip4.c ****     } else {
 357:C:/Users/stapi/OneDrive/Desktop/GD32VW553/V1_MQTT_OK/GD32VW55X_Wifi_BLE_SDK/GD32VW55x_RELEASE_V1.0.2/MSDK/lwip/lwip-2.1.2/src/core/ipv4\ip4.c **** #if LWIP_ICMP
 358:C:/Users/stapi/OneDrive/Desktop/GD32VW553/V1_MQTT_OK/GD32VW55X_Wifi_BLE_SDK/GD32VW55x_RELEASE_V1.0.2/MSDK/lwip/lwip-2.1.2/src/core/ipv4\ip4.c ****       /* send ICMP Destination Unreachable code 4: "Fragmentation Needed and DF Set" */
 359:C:/Users/stapi/OneDrive/Desktop/GD32VW553/V1_MQTT_OK/GD32VW55X_Wifi_BLE_SDK/GD32VW55x_RELEASE_V1.0.2/MSDK/lwip/lwip-2.1.2/src/core/ipv4\ip4.c ****       icmp_dest_unreach(p, ICMP_DUR_FRAG);
 360:C:/Users/stapi/OneDrive/Desktop/GD32VW553/V1_MQTT_OK/GD32VW55X_Wifi_BLE_SDK/GD32VW55x_RELEASE_V1.0.2/MSDK/lwip/lwip-2.1.2/src/core/ipv4\ip4.c **** #endif /* LWIP_ICMP */
 361:C:/Users/stapi/OneDrive/Desktop/GD32VW553/V1_MQTT_OK/GD32VW55X_Wifi_BLE_SDK/GD32VW55x_RELEASE_V1.0.2/MSDK/lwip/lwip-2.1.2/src/core/ipv4\ip4.c ****     }
 362:C:/Users/stapi/OneDrive/Desktop/GD32VW553/V1_MQTT_OK/GD32VW55X_Wifi_BLE_SDK/GD32VW55x_RELEASE_V1.0.2/MSDK/lwip/lwip-2.1.2/src/core/ipv4\ip4.c ****     return;
 363:C:/Users/stapi/OneDrive/Desktop/GD32VW553/V1_MQTT_OK/GD32VW55X_Wifi_BLE_SDK/GD32VW55x_RELEASE_V1.0.2/MSDK/lwip/lwip-2.1.2/src/core/ipv4\ip4.c ****   }
 364:C:/Users/stapi/OneDrive/Desktop/GD32VW553/V1_MQTT_OK/GD32VW55X_Wifi_BLE_SDK/GD32VW55x_RELEASE_V1.0.2/MSDK/lwip/lwip-2.1.2/src/core/ipv4\ip4.c ****   /* transmit pbuf on chosen interface */
 365:C:/Users/stapi/OneDrive/Desktop/GD32VW553/V1_MQTT_OK/GD32VW55X_Wifi_BLE_SDK/GD32VW55x_RELEASE_V1.0.2/MSDK/lwip/lwip-2.1.2/src/core/ipv4\ip4.c ****   netif->output(netif, p, ip4_current_dest_addr());
 366:C:/Users/stapi/OneDrive/Desktop/GD32VW553/V1_MQTT_OK/GD32VW55X_Wifi_BLE_SDK/GD32VW55x_RELEASE_V1.0.2/MSDK/lwip/lwip-2.1.2/src/core/ipv4\ip4.c ****   return;
 367:C:/Users/stapi/OneDrive/Desktop/GD32VW553/V1_MQTT_OK/GD32VW55X_Wifi_BLE_SDK/GD32VW55x_RELEASE_V1.0.2/MSDK/lwip/lwip-2.1.2/src/core/ipv4\ip4.c **** return_noroute:
 368:C:/Users/stapi/OneDrive/Desktop/GD32VW553/V1_MQTT_OK/GD32VW55X_Wifi_BLE_SDK/GD32VW55x_RELEASE_V1.0.2/MSDK/lwip/lwip-2.1.2/src/core/ipv4\ip4.c ****   MIB2_STATS_INC(mib2.ipoutnoroutes);
 369:C:/Users/stapi/OneDrive/Desktop/GD32VW553/V1_MQTT_OK/GD32VW55X_Wifi_BLE_SDK/GD32VW55x_RELEASE_V1.0.2/MSDK/lwip/lwip-2.1.2/src/core/ipv4\ip4.c **** }
 370:C:/Users/stapi/OneDrive/Desktop/GD32VW553/V1_MQTT_OK/GD32VW55X_Wifi_BLE_SDK/GD32VW55x_RELEASE_V1.0.2/MSDK/lwip/lwip-2.1.2/src/core/ipv4\ip4.c **** #endif /* IP_FORWARD */
 371:C:/Users/stapi/OneDrive/Desktop/GD32VW553/V1_MQTT_OK/GD32VW55X_Wifi_BLE_SDK/GD32VW55x_RELEASE_V1.0.2/MSDK/lwip/lwip-2.1.2/src/core/ipv4\ip4.c **** 
 372:C:/Users/stapi/OneDrive/Desktop/GD32VW553/V1_MQTT_OK/GD32VW55X_Wifi_BLE_SDK/GD32VW55x_RELEASE_V1.0.2/MSDK/lwip/lwip-2.1.2/src/core/ipv4\ip4.c **** /** Return true if the current input packet should be accepted on this netif */
 373:C:/Users/stapi/OneDrive/Desktop/GD32VW553/V1_MQTT_OK/GD32VW55X_Wifi_BLE_SDK/GD32VW55x_RELEASE_V1.0.2/MSDK/lwip/lwip-2.1.2/src/core/ipv4\ip4.c **** static int
 374:C:/Users/stapi/OneDrive/Desktop/GD32VW553/V1_MQTT_OK/GD32VW55X_Wifi_BLE_SDK/GD32VW55x_RELEASE_V1.0.2/MSDK/lwip/lwip-2.1.2/src/core/ipv4\ip4.c **** ip4_input_accept(struct netif *netif)
 375:C:/Users/stapi/OneDrive/Desktop/GD32VW553/V1_MQTT_OK/GD32VW55X_Wifi_BLE_SDK/GD32VW55x_RELEASE_V1.0.2/MSDK/lwip/lwip-2.1.2/src/core/ipv4\ip4.c **** {
  15              		.loc 1 375 1
  16              		.cfi_startproc
  17              	.LVL0:
 376:C:/Users/stapi/OneDrive/Desktop/GD32VW553/V1_MQTT_OK/GD32VW55X_Wifi_BLE_SDK/GD32VW55x_RELEASE_V1.0.2/MSDK/lwip/lwip-2.1.2/src/core/ipv4\ip4.c ****   LWIP_DEBUGF(IP_DEBUG, ("ip_input: iphdr->dest 0x%"X32_F" netif->ip_addr 0x%"X32_F" (0x%"X32_F", 0
 377:C:/Users/stapi/OneDrive/Desktop/GD32VW553/V1_MQTT_OK/GD32VW55X_Wifi_BLE_SDK/GD32VW55x_RELEASE_V1.0.2/MSDK/lwip/lwip-2.1.2/src/core/ipv4\ip4.c ****                          ip4_addr_get_u32(ip4_current_dest_addr()), ip4_addr_get_u32(netif_ip4_addr
 378:C:/Users/stapi/OneDrive/Desktop/GD32VW553/V1_MQTT_OK/GD32VW55X_Wifi_BLE_SDK/GD32VW55x_RELEASE_V1.0.2/MSDK/lwip/lwip-2.1.2/src/core/ipv4\ip4.c ****                          ip4_addr_get_u32(ip4_current_dest_addr()) & ip4_addr_get_u32(netif_ip4_net
 379:C:/Users/stapi/OneDrive/Desktop/GD32VW553/V1_MQTT_OK/GD32VW55X_Wifi_BLE_SDK/GD32VW55x_RELEASE_V1.0.2/MSDK/lwip/lwip-2.1.2/src/core/ipv4\ip4.c ****                          ip4_addr_get_u32(netif_ip4_addr(netif)) & ip4_addr_get_u32(netif_ip4_netma
 380:C:/Users/stapi/OneDrive/Desktop/GD32VW553/V1_MQTT_OK/GD32VW55X_Wifi_BLE_SDK/GD32VW55x_RELEASE_V1.0.2/MSDK/lwip/lwip-2.1.2/src/core/ipv4\ip4.c ****                          ip4_addr_get_u32(ip4_current_dest_addr()) & ~ip4_addr_get_u32(netif_ip4_ne
  18              		.loc 1 380 115
 381:C:/Users/stapi/OneDrive/Desktop/GD32VW553/V1_MQTT_OK/GD32VW55X_Wifi_BLE_SDK/GD32VW55x_RELEASE_V1.0.2/MSDK/lwip/lwip-2.1.2/src/core/ipv4\ip4.c **** 
 382:C:/Users/stapi/OneDrive/Desktop/GD32VW553/V1_MQTT_OK/GD32VW55X_Wifi_BLE_SDK/GD32VW55x_RELEASE_V1.0.2/MSDK/lwip/lwip-2.1.2/src/core/ipv4\ip4.c ****   /* interface is up and configured? */
 383:C:/Users/stapi/OneDrive/Desktop/GD32VW553/V1_MQTT_OK/GD32VW55X_Wifi_BLE_SDK/GD32VW55x_RELEASE_V1.0.2/MSDK/lwip/lwip-2.1.2/src/core/ipv4\ip4.c ****   if ((netif_is_up(netif)) && (!ip4_addr_isany_val(*netif_ip4_addr(netif)))) {
  19              		.loc 1 383 3
  20              		.loc 1 383 28 is_stmt 0
  21 0000 83471503 		lbu	a5,49(a0)
  22              		.loc 1 383 6
  23 0004 858B     		andi	a5,a5,1
  24 0006 9DCB     		beq	a5,zero,.L3
  25              	.LBB6:
  26              	.LBB7:
  27              		.loc 1 383 33
  28 0008 5841     		lw	a4,4(a0)
  29 000a AA85     		mv	a1,a0
  30              	.LVL1:
  31              	.LBE7:
  32              	.LBE6:
 384:C:/Users/stapi/OneDrive/Desktop/GD32VW553/V1_MQTT_OK/GD32VW55X_Wifi_BLE_SDK/GD32VW55x_RELEASE_V1.0.2/MSDK/lwip/lwip-2.1.2/src/core/ipv4\ip4.c ****     /* unicast to this interface address? */
 385:C:/Users/stapi/OneDrive/Desktop/GD32VW553/V1_MQTT_OK/GD32VW55X_Wifi_BLE_SDK/GD32VW55x_RELEASE_V1.0.2/MSDK/lwip/lwip-2.1.2/src/core/ipv4\ip4.c ****     if (ip4_addr_cmp(ip4_current_dest_addr(), netif_ip4_addr(netif)) ||
 386:C:/Users/stapi/OneDrive/Desktop/GD32VW553/V1_MQTT_OK/GD32VW55X_Wifi_BLE_SDK/GD32VW55x_RELEASE_V1.0.2/MSDK/lwip/lwip-2.1.2/src/core/ipv4\ip4.c ****         /* or broadcast on this interface network address? */
 387:C:/Users/stapi/OneDrive/Desktop/GD32VW553/V1_MQTT_OK/GD32VW55X_Wifi_BLE_SDK/GD32VW55x_RELEASE_V1.0.2/MSDK/lwip/lwip-2.1.2/src/core/ipv4\ip4.c ****         ip4_addr_isbroadcast(ip4_current_dest_addr(), netif)
 388:C:/Users/stapi/OneDrive/Desktop/GD32VW553/V1_MQTT_OK/GD32VW55X_Wifi_BLE_SDK/GD32VW55x_RELEASE_V1.0.2/MSDK/lwip/lwip-2.1.2/src/core/ipv4\ip4.c **** #if LWIP_NETIF_LOOPBACK && !LWIP_HAVE_LOOPIF
 389:C:/Users/stapi/OneDrive/Desktop/GD32VW553/V1_MQTT_OK/GD32VW55X_Wifi_BLE_SDK/GD32VW55x_RELEASE_V1.0.2/MSDK/lwip/lwip-2.1.2/src/core/ipv4\ip4.c ****         || (ip4_addr_get_u32(ip4_current_dest_addr()) == PP_HTONL(IPADDR_LOOPBACK))
 390:C:/Users/stapi/OneDrive/Desktop/GD32VW553/V1_MQTT_OK/GD32VW55X_Wifi_BLE_SDK/GD32VW55x_RELEASE_V1.0.2/MSDK/lwip/lwip-2.1.2/src/core/ipv4\ip4.c **** #endif /* LWIP_NETIF_LOOPBACK && !LWIP_HAVE_LOOPIF */
 391:C:/Users/stapi/OneDrive/Desktop/GD32VW553/V1_MQTT_OK/GD32VW55X_Wifi_BLE_SDK/GD32VW55x_RELEASE_V1.0.2/MSDK/lwip/lwip-2.1.2/src/core/ipv4\ip4.c ****        ) {
 392:C:/Users/stapi/OneDrive/Desktop/GD32VW553/V1_MQTT_OK/GD32VW55X_Wifi_BLE_SDK/GD32VW55x_RELEASE_V1.0.2/MSDK/lwip/lwip-2.1.2/src/core/ipv4\ip4.c ****       LWIP_DEBUGF(IP_DEBUG, ("ip4_input: packet accepted on interface %c%c\n",
 393:C:/Users/stapi/OneDrive/Desktop/GD32VW553/V1_MQTT_OK/GD32VW55X_Wifi_BLE_SDK/GD32VW55x_RELEASE_V1.0.2/MSDK/lwip/lwip-2.1.2/src/core/ipv4\ip4.c ****                              netif->name[0], netif->name[1]));
 394:C:/Users/stapi/OneDrive/Desktop/GD32VW553/V1_MQTT_OK/GD32VW55X_Wifi_BLE_SDK/GD32VW55x_RELEASE_V1.0.2/MSDK/lwip/lwip-2.1.2/src/core/ipv4\ip4.c ****       /* accept on this netif */
 395:C:/Users/stapi/OneDrive/Desktop/GD32VW553/V1_MQTT_OK/GD32VW55X_Wifi_BLE_SDK/GD32VW55x_RELEASE_V1.0.2/MSDK/lwip/lwip-2.1.2/src/core/ipv4\ip4.c ****       return 1;
 396:C:/Users/stapi/OneDrive/Desktop/GD32VW553/V1_MQTT_OK/GD32VW55X_Wifi_BLE_SDK/GD32VW55x_RELEASE_V1.0.2/MSDK/lwip/lwip-2.1.2/src/core/ipv4\ip4.c ****     }
 397:C:/Users/stapi/OneDrive/Desktop/GD32VW553/V1_MQTT_OK/GD32VW55X_Wifi_BLE_SDK/GD32VW55x_RELEASE_V1.0.2/MSDK/lwip/lwip-2.1.2/src/core/ipv4\ip4.c **** #if LWIP_AUTOIP
 398:C:/Users/stapi/OneDrive/Desktop/GD32VW553/V1_MQTT_OK/GD32VW55X_Wifi_BLE_SDK/GD32VW55x_RELEASE_V1.0.2/MSDK/lwip/lwip-2.1.2/src/core/ipv4\ip4.c ****     /* connections to link-local addresses must persist after changing
 399:C:/Users/stapi/OneDrive/Desktop/GD32VW553/V1_MQTT_OK/GD32VW55X_Wifi_BLE_SDK/GD32VW55x_RELEASE_V1.0.2/MSDK/lwip/lwip-2.1.2/src/core/ipv4\ip4.c ****         the netif's address (RFC3927 ch. 1.9) */
 400:C:/Users/stapi/OneDrive/Desktop/GD32VW553/V1_MQTT_OK/GD32VW55X_Wifi_BLE_SDK/GD32VW55x_RELEASE_V1.0.2/MSDK/lwip/lwip-2.1.2/src/core/ipv4\ip4.c ****     if (autoip_accept_packet(netif, ip4_current_dest_addr())) {
 401:C:/Users/stapi/OneDrive/Desktop/GD32VW553/V1_MQTT_OK/GD32VW55X_Wifi_BLE_SDK/GD32VW55x_RELEASE_V1.0.2/MSDK/lwip/lwip-2.1.2/src/core/ipv4\ip4.c ****       LWIP_DEBUGF(IP_DEBUG, ("ip4_input: LLA packet accepted on interface %c%c\n",
 402:C:/Users/stapi/OneDrive/Desktop/GD32VW553/V1_MQTT_OK/GD32VW55X_Wifi_BLE_SDK/GD32VW55x_RELEASE_V1.0.2/MSDK/lwip/lwip-2.1.2/src/core/ipv4\ip4.c ****                              netif->name[0], netif->name[1]));
 403:C:/Users/stapi/OneDrive/Desktop/GD32VW553/V1_MQTT_OK/GD32VW55X_Wifi_BLE_SDK/GD32VW55x_RELEASE_V1.0.2/MSDK/lwip/lwip-2.1.2/src/core/ipv4\ip4.c ****       /* accept on this netif */
 404:C:/Users/stapi/OneDrive/Desktop/GD32VW553/V1_MQTT_OK/GD32VW55X_Wifi_BLE_SDK/GD32VW55x_RELEASE_V1.0.2/MSDK/lwip/lwip-2.1.2/src/core/ipv4\ip4.c ****       return 1;
 405:C:/Users/stapi/OneDrive/Desktop/GD32VW553/V1_MQTT_OK/GD32VW55X_Wifi_BLE_SDK/GD32VW55x_RELEASE_V1.0.2/MSDK/lwip/lwip-2.1.2/src/core/ipv4\ip4.c ****     }
 406:C:/Users/stapi/OneDrive/Desktop/GD32VW553/V1_MQTT_OK/GD32VW55X_Wifi_BLE_SDK/GD32VW55x_RELEASE_V1.0.2/MSDK/lwip/lwip-2.1.2/src/core/ipv4\ip4.c **** #endif /* LWIP_AUTOIP */
 407:C:/Users/stapi/OneDrive/Desktop/GD32VW553/V1_MQTT_OK/GD32VW55X_Wifi_BLE_SDK/GD32VW55x_RELEASE_V1.0.2/MSDK/lwip/lwip-2.1.2/src/core/ipv4\ip4.c ****   }
 408:C:/Users/stapi/OneDrive/Desktop/GD32VW553/V1_MQTT_OK/GD32VW55X_Wifi_BLE_SDK/GD32VW55x_RELEASE_V1.0.2/MSDK/lwip/lwip-2.1.2/src/core/ipv4\ip4.c ****   return 0;
  33              		.loc 1 408 10
  34 000c 8147     		li	a5,0
  35              	.LBB10:
  36              	.LBB8:
 383:C:/Users/stapi/OneDrive/Desktop/GD32VW553/V1_MQTT_OK/GD32VW55X_Wifi_BLE_SDK/GD32VW55x_RELEASE_V1.0.2/MSDK/lwip/lwip-2.1.2/src/core/ipv4\ip4.c ****     /* unicast to this interface address? */
  37              		.loc 1 383 28
  38 000e 05CB     		beq	a4,zero,.L8
 385:C:/Users/stapi/OneDrive/Desktop/GD32VW553/V1_MQTT_OK/GD32VW55X_Wifi_BLE_SDK/GD32VW55x_RELEASE_V1.0.2/MSDK/lwip/lwip-2.1.2/src/core/ipv4\ip4.c ****         /* or broadcast on this interface network address? */
  39              		.loc 1 385 5 is_stmt 1
 385:C:/Users/stapi/OneDrive/Desktop/GD32VW553/V1_MQTT_OK/GD32VW55X_Wifi_BLE_SDK/GD32VW55x_RELEASE_V1.0.2/MSDK/lwip/lwip-2.1.2/src/core/ipv4\ip4.c ****         /* or broadcast on this interface network address? */
  40              		.loc 1 385 9 is_stmt 0
  41 0010 B7070000 		lui	a5,%hi(ip_data+20)
  42 0014 03A54701 		lw	a0,%lo(ip_data+20)(a5)
  43              	.LVL2:
 395:C:/Users/stapi/OneDrive/Desktop/GD32VW553/V1_MQTT_OK/GD32VW55X_Wifi_BLE_SDK/GD32VW55x_RELEASE_V1.0.2/MSDK/lwip/lwip-2.1.2/src/core/ipv4\ip4.c ****     }
  44              		.loc 1 395 14
  45 0018 8547     		li	a5,1
 385:C:/Users/stapi/OneDrive/Desktop/GD32VW553/V1_MQTT_OK/GD32VW55X_Wifi_BLE_SDK/GD32VW55x_RELEASE_V1.0.2/MSDK/lwip/lwip-2.1.2/src/core/ipv4\ip4.c ****         /* or broadcast on this interface network address? */
  46              		.loc 1 385 8
  47 001a 6302A702 		beq	a4,a0,.L8
  48              	.LBE8:
  49              	.LBE10:
 375:C:/Users/stapi/OneDrive/Desktop/GD32VW553/V1_MQTT_OK/GD32VW55X_Wifi_BLE_SDK/GD32VW55x_RELEASE_V1.0.2/MSDK/lwip/lwip-2.1.2/src/core/ipv4\ip4.c ****   LWIP_DEBUGF(IP_DEBUG, ("ip_input: iphdr->dest 0x%"X32_F" netif->ip_addr 0x%"X32_F" (0x%"X32_F", 0
  50              		.loc 1 375 1
  51 001e 17030000 		call	t0,__riscv_save_0
  51      E7020300 
  52              		.cfi_offset 1, -4
  53              		.cfi_def_cfa_offset 16
  54              	.LBB11:
  55              	.LBB9:
 387:C:/Users/stapi/OneDrive/Desktop/GD32VW553/V1_MQTT_OK/GD32VW55X_Wifi_BLE_SDK/GD32VW55x_RELEASE_V1.0.2/MSDK/lwip/lwip-2.1.2/src/core/ipv4\ip4.c **** #if LWIP_NETIF_LOOPBACK && !LWIP_HAVE_LOOPIF
  56              		.loc 1 387 9
  57 0026 97000000 		call	ip4_addr_isbroadcast_u32
  57      E7800000 
  58              	.LVL3:
 385:C:/Users/stapi/OneDrive/Desktop/GD32VW553/V1_MQTT_OK/GD32VW55X_Wifi_BLE_SDK/GD32VW55x_RELEASE_V1.0.2/MSDK/lwip/lwip-2.1.2/src/core/ipv4\ip4.c ****         /* or broadcast on this interface network address? */
  59              		.loc 1 385 70
  60 002e B337A000 		snez	a5,a0
  61              	.LBE9:
  62              	.LBE11:
 409:C:/Users/stapi/OneDrive/Desktop/GD32VW553/V1_MQTT_OK/GD32VW55X_Wifi_BLE_SDK/GD32VW55x_RELEASE_V1.0.2/MSDK/lwip/lwip-2.1.2/src/core/ipv4\ip4.c **** }
  63              		.loc 1 409 1
  64 0032 3E85     		mv	a0,a5
  65 0034 17030000 		tail	__riscv_restore_0
  65      67000300 
  66              		.cfi_restore 1
  67              		.cfi_def_cfa_offset 0
  68              	.LVL4:
  69              	.L3:
 408:C:/Users/stapi/OneDrive/Desktop/GD32VW553/V1_MQTT_OK/GD32VW55X_Wifi_BLE_SDK/GD32VW55x_RELEASE_V1.0.2/MSDK/lwip/lwip-2.1.2/src/core/ipv4\ip4.c **** }
  70              		.loc 1 408 10
  71 003c 8147     		li	a5,0
  72              	.LVL5:
  73              	.L8:
  74              		.loc 1 409 1
  75 003e 3E85     		mv	a0,a5
  76 0040 8280     		ret
  77              		.cfi_endproc
  78              	.LFE6:
  80              		.section	.text.ip4_set_default_multicast_netif,"ax",@progbits
  81              		.align	1
  82              		.globl	ip4_set_default_multicast_netif
  84              	ip4_set_default_multicast_netif:
  85              	.LFB4:
 118:C:/Users/stapi/OneDrive/Desktop/GD32VW553/V1_MQTT_OK/GD32VW55X_Wifi_BLE_SDK/GD32VW55x_RELEASE_V1.0.2/MSDK/lwip/lwip-2.1.2/src/core/ipv4\ip4.c ****   ip4_default_multicast_netif = default_multicast_netif;
  86              		.loc 1 118 1 is_stmt 1
  87              		.cfi_startproc
  88              	.LVL6:
 119:C:/Users/stapi/OneDrive/Desktop/GD32VW553/V1_MQTT_OK/GD32VW55X_Wifi_BLE_SDK/GD32VW55x_RELEASE_V1.0.2/MSDK/lwip/lwip-2.1.2/src/core/ipv4\ip4.c **** }
  89              		.loc 1 119 3
 119:C:/Users/stapi/OneDrive/Desktop/GD32VW553/V1_MQTT_OK/GD32VW55X_Wifi_BLE_SDK/GD32VW55x_RELEASE_V1.0.2/MSDK/lwip/lwip-2.1.2/src/core/ipv4\ip4.c **** }
  90              		.loc 1 119 31 is_stmt 0
  91 0000 B7070000 		lui	a5,%hi(.LANCHOR0)
  92 0004 23A0A700 		sw	a0,%lo(.LANCHOR0)(a5)
 120:C:/Users/stapi/OneDrive/Desktop/GD32VW553/V1_MQTT_OK/GD32VW55X_Wifi_BLE_SDK/GD32VW55x_RELEASE_V1.0.2/MSDK/lwip/lwip-2.1.2/src/core/ipv4\ip4.c **** #endif /* LWIP_MULTICAST_TX_OPTIONS */
  93              		.loc 1 120 1
  94 0008 8280     		ret
  95              		.cfi_endproc
  96              	.LFE4:
  98              		.section	.text.ip4_route,"ax",@progbits
  99              		.align	1
 100              		.globl	ip4_route
 102              	ip4_route:
 103              	.LFB5:
 153:C:/Users/stapi/OneDrive/Desktop/GD32VW553/V1_MQTT_OK/GD32VW55X_Wifi_BLE_SDK/GD32VW55x_RELEASE_V1.0.2/MSDK/lwip/lwip-2.1.2/src/core/ipv4\ip4.c **** #if !LWIP_SINGLE_NETIF
 104              		.loc 1 153 1 is_stmt 1
 105              		.cfi_startproc
 106              	.LVL7:
 155:C:/Users/stapi/OneDrive/Desktop/GD32VW553/V1_MQTT_OK/GD32VW55X_Wifi_BLE_SDK/GD32VW55x_RELEASE_V1.0.2/MSDK/lwip/lwip-2.1.2/src/core/ipv4\ip4.c **** 
 107              		.loc 1 155 3
 157:C:/Users/stapi/OneDrive/Desktop/GD32VW553/V1_MQTT_OK/GD32VW55X_Wifi_BLE_SDK/GD32VW55x_RELEASE_V1.0.2/MSDK/lwip/lwip-2.1.2/src/core/ipv4\ip4.c **** 
 108              		.loc 1 157 28
 161:C:/Users/stapi/OneDrive/Desktop/GD32VW553/V1_MQTT_OK/GD32VW55X_Wifi_BLE_SDK/GD32VW55x_RELEASE_V1.0.2/MSDK/lwip/lwip-2.1.2/src/core/ipv4\ip4.c ****     return ip4_default_multicast_netif;
 109              		.loc 1 161 3
 161:C:/Users/stapi/OneDrive/Desktop/GD32VW553/V1_MQTT_OK/GD32VW55X_Wifi_BLE_SDK/GD32VW55x_RELEASE_V1.0.2/MSDK/lwip/lwip-2.1.2/src/core/ipv4\ip4.c ****     return ip4_default_multicast_netif;
 110              		.loc 1 161 7 is_stmt 0
 111 0000 1C41     		lw	a5,0(a0)
 161:C:/Users/stapi/OneDrive/Desktop/GD32VW553/V1_MQTT_OK/GD32VW55X_Wifi_BLE_SDK/GD32VW55x_RELEASE_V1.0.2/MSDK/lwip/lwip-2.1.2/src/core/ipv4\ip4.c ****     return ip4_default_multicast_netif;
 112              		.loc 1 161 6
 113 0002 1307000E 		li	a4,224
 161:C:/Users/stapi/OneDrive/Desktop/GD32VW553/V1_MQTT_OK/GD32VW55X_Wifi_BLE_SDK/GD32VW55x_RELEASE_V1.0.2/MSDK/lwip/lwip-2.1.2/src/core/ipv4\ip4.c ****     return ip4_default_multicast_netif;
 114              		.loc 1 161 7
 115 0006 93F6070F 		andi	a3,a5,240
 161:C:/Users/stapi/OneDrive/Desktop/GD32VW553/V1_MQTT_OK/GD32VW55X_Wifi_BLE_SDK/GD32VW55x_RELEASE_V1.0.2/MSDK/lwip/lwip-2.1.2/src/core/ipv4\ip4.c ****     return ip4_default_multicast_netif;
 116              		.loc 1 161 6
 117 000a 6397E600 		bne	a3,a4,.L13
 161:C:/Users/stapi/OneDrive/Desktop/GD32VW553/V1_MQTT_OK/GD32VW55X_Wifi_BLE_SDK/GD32VW55x_RELEASE_V1.0.2/MSDK/lwip/lwip-2.1.2/src/core/ipv4\ip4.c ****     return ip4_default_multicast_netif;
 118              		.loc 1 161 34 discriminator 1
 119 000e 37070000 		lui	a4,%hi(.LANCHOR0)
 120 0012 03250700 		lw	a0,%lo(.LANCHOR0)(a4)
 121              	.LVL8:
 122 0016 15E9     		bne	a0,zero,.L12
 123              	.L13:
 167:C:/Users/stapi/OneDrive/Desktop/GD32VW553/V1_MQTT_OK/GD32VW55X_Wifi_BLE_SDK/GD32VW55x_RELEASE_V1.0.2/MSDK/lwip/lwip-2.1.2/src/core/ipv4\ip4.c **** 
 124              		.loc 1 167 3 is_stmt 1
 170:C:/Users/stapi/OneDrive/Desktop/GD32VW553/V1_MQTT_OK/GD32VW55X_Wifi_BLE_SDK/GD32VW55x_RELEASE_V1.0.2/MSDK/lwip/lwip-2.1.2/src/core/ipv4\ip4.c ****     /* is the netif up, does it have a link and a valid address? */
 125              		.loc 1 170 3
 126 0018 37070000 		lui	a4,%hi(netif_list)
 127 001c 03250700 		lw	a0,%lo(netif_list)(a4)
 128              	.LVL9:
 129              	.L15:
 170:C:/Users/stapi/OneDrive/Desktop/GD32VW553/V1_MQTT_OK/GD32VW55X_Wifi_BLE_SDK/GD32VW55x_RELEASE_V1.0.2/MSDK/lwip/lwip-2.1.2/src/core/ipv4\ip4.c ****     /* is the netif up, does it have a link and a valid address? */
 130              		.loc 1 170 3 discriminator 1
 131 0020 15E5     		bne	a0,zero,.L17
 216:C:/Users/stapi/OneDrive/Desktop/GD32VW553/V1_MQTT_OK/GD32VW55X_Wifi_BLE_SDK/GD32VW55x_RELEASE_V1.0.2/MSDK/lwip/lwip-2.1.2/src/core/ipv4\ip4.c ****       ip4_addr_isany_val(*netif_ip4_addr(netif_default)) || ip4_addr_isloopback(dest)) {
 132              		.loc 1 216 3
 216:C:/Users/stapi/OneDrive/Desktop/GD32VW553/V1_MQTT_OK/GD32VW55X_Wifi_BLE_SDK/GD32VW55x_RELEASE_V1.0.2/MSDK/lwip/lwip-2.1.2/src/core/ipv4\ip4.c ****       ip4_addr_isany_val(*netif_ip4_addr(netif_default)) || ip4_addr_isloopback(dest)) {
 133              		.loc 1 216 22 is_stmt 0
 134 0022 37070000 		lui	a4,%hi(netif_default)
 135 0026 03270700 		lw	a4,%lo(netif_default)(a4)
 216:C:/Users/stapi/OneDrive/Desktop/GD32VW553/V1_MQTT_OK/GD32VW55X_Wifi_BLE_SDK/GD32VW55x_RELEASE_V1.0.2/MSDK/lwip/lwip-2.1.2/src/core/ipv4\ip4.c ****       ip4_addr_isany_val(*netif_ip4_addr(netif_default)) || ip4_addr_isloopback(dest)) {
 136              		.loc 1 216 6
 137 002a 05C3     		beq	a4,zero,.L12
 216:C:/Users/stapi/OneDrive/Desktop/GD32VW553/V1_MQTT_OK/GD32VW55X_Wifi_BLE_SDK/GD32VW55x_RELEASE_V1.0.2/MSDK/lwip/lwip-2.1.2/src/core/ipv4\ip4.c ****       ip4_addr_isany_val(*netif_ip4_addr(netif_default)) || ip4_addr_isloopback(dest)) {
 138              		.loc 1 216 62 discriminator 1
 139 002c 83461703 		lbu	a3,49(a4)
 140 0030 1546     		li	a2,5
 141 0032 958A     		andi	a3,a3,5
 142 0034 639BC600 		bne	a3,a2,.L12
 216:C:/Users/stapi/OneDrive/Desktop/GD32VW553/V1_MQTT_OK/GD32VW55X_Wifi_BLE_SDK/GD32VW55x_RELEASE_V1.0.2/MSDK/lwip/lwip-2.1.2/src/core/ipv4\ip4.c ****       ip4_addr_isany_val(*netif_ip4_addr(netif_default)) || ip4_addr_isloopback(dest)) {
 143              		.loc 1 216 98 discriminator 2
 144 0038 5443     		lw	a3,4(a4)
 145 003a 81CA     		beq	a3,zero,.L12
 217:C:/Users/stapi/OneDrive/Desktop/GD32VW553/V1_MQTT_OK/GD32VW55X_Wifi_BLE_SDK/GD32VW55x_RELEASE_V1.0.2/MSDK/lwip/lwip-2.1.2/src/core/ipv4\ip4.c ****     /* No matching netif found and default netif is not usable.
 146              		.loc 1 217 61
 147 003c 93F7F70F 		andi	a5,a5,255
 217:C:/Users/stapi/OneDrive/Desktop/GD32VW553/V1_MQTT_OK/GD32VW55X_Wifi_BLE_SDK/GD32VW55x_RELEASE_V1.0.2/MSDK/lwip/lwip-2.1.2/src/core/ipv4\ip4.c ****     /* No matching netif found and default netif is not usable.
 148              		.loc 1 217 58
 149 0040 9306F007 		li	a3,127
 150 0044 6383D700 		beq	a5,a3,.L12
 151 0048 3A85     		mv	a0,a4
 152              	.LVL10:
 153              	.L12:
 228:C:/Users/stapi/OneDrive/Desktop/GD32VW553/V1_MQTT_OK/GD32VW55X_Wifi_BLE_SDK/GD32VW55x_RELEASE_V1.0.2/MSDK/lwip/lwip-2.1.2/src/core/ipv4\ip4.c **** 
 154              		.loc 1 228 1
 155 004a 8280     		ret
 156              	.LVL11:
 157              	.L17:
 172:C:/Users/stapi/OneDrive/Desktop/GD32VW553/V1_MQTT_OK/GD32VW55X_Wifi_BLE_SDK/GD32VW55x_RELEASE_V1.0.2/MSDK/lwip/lwip-2.1.2/src/core/ipv4\ip4.c ****       /* network mask matches? */
 158              		.loc 1 172 5 is_stmt 1
 172:C:/Users/stapi/OneDrive/Desktop/GD32VW553/V1_MQTT_OK/GD32VW55X_Wifi_BLE_SDK/GD32VW55x_RELEASE_V1.0.2/MSDK/lwip/lwip-2.1.2/src/core/ipv4\ip4.c ****       /* network mask matches? */
 159              		.loc 1 172 9 is_stmt 0
 160 004c 83461503 		lbu	a3,49(a0)
 172:C:/Users/stapi/OneDrive/Desktop/GD32VW553/V1_MQTT_OK/GD32VW55X_Wifi_BLE_SDK/GD32VW55x_RELEASE_V1.0.2/MSDK/lwip/lwip-2.1.2/src/core/ipv4\ip4.c ****       /* network mask matches? */
 161              		.loc 1 172 8
 162 0050 13F71600 		andi	a4,a3,1
 163 0054 19CF     		beq	a4,zero,.L16
 172:C:/Users/stapi/OneDrive/Desktop/GD32VW553/V1_MQTT_OK/GD32VW55X_Wifi_BLE_SDK/GD32VW55x_RELEASE_V1.0.2/MSDK/lwip/lwip-2.1.2/src/core/ipv4\ip4.c ****       /* network mask matches? */
 164              		.loc 1 172 28 discriminator 1
 165 0056 13D72648 		bexti	a4,a3,2
 166 005a 01CF     		beq	a4,zero,.L16
 172:C:/Users/stapi/OneDrive/Desktop/GD32VW553/V1_MQTT_OK/GD32VW55X_Wifi_BLE_SDK/GD32VW55x_RELEASE_V1.0.2/MSDK/lwip/lwip-2.1.2/src/core/ipv4\ip4.c ****       /* network mask matches? */
 167              		.loc 1 172 59 discriminator 2
 168 005c 5841     		lw	a4,4(a0)
 172:C:/Users/stapi/OneDrive/Desktop/GD32VW553/V1_MQTT_OK/GD32VW55X_Wifi_BLE_SDK/GD32VW55x_RELEASE_V1.0.2/MSDK/lwip/lwip-2.1.2/src/core/ipv4\ip4.c ****       /* network mask matches? */
 169              		.loc 1 172 55 discriminator 2
 170 005e 11CB     		beq	a4,zero,.L16
 174:C:/Users/stapi/OneDrive/Desktop/GD32VW553/V1_MQTT_OK/GD32VW55X_Wifi_BLE_SDK/GD32VW55x_RELEASE_V1.0.2/MSDK/lwip/lwip-2.1.2/src/core/ipv4\ip4.c ****         /* return netif on which to forward IP packet */
 171              		.loc 1 174 7 is_stmt 1
 174:C:/Users/stapi/OneDrive/Desktop/GD32VW553/V1_MQTT_OK/GD32VW55X_Wifi_BLE_SDK/GD32VW55x_RELEASE_V1.0.2/MSDK/lwip/lwip-2.1.2/src/core/ipv4\ip4.c ****         /* return netif on which to forward IP packet */
 172              		.loc 1 174 11 is_stmt 0
 173 0060 1045     		lw	a2,8(a0)
 174 0062 3D8F     		xor	a4,a5,a4
 175 0064 718F     		and	a4,a4,a2
 174:C:/Users/stapi/OneDrive/Desktop/GD32VW553/V1_MQTT_OK/GD32VW55X_Wifi_BLE_SDK/GD32VW55x_RELEASE_V1.0.2/MSDK/lwip/lwip-2.1.2/src/core/ipv4\ip4.c ****         /* return netif on which to forward IP packet */
 176              		.loc 1 174 10
 177 0066 75D3     		beq	a4,zero,.L12
 179:C:/Users/stapi/OneDrive/Desktop/GD32VW553/V1_MQTT_OK/GD32VW55X_Wifi_BLE_SDK/GD32VW55x_RELEASE_V1.0.2/MSDK/lwip/lwip-2.1.2/src/core/ipv4\ip4.c ****         /* return netif on which to forward IP packet */
 178              		.loc 1 179 7 is_stmt 1
 179:C:/Users/stapi/OneDrive/Desktop/GD32VW553/V1_MQTT_OK/GD32VW55X_Wifi_BLE_SDK/GD32VW55x_RELEASE_V1.0.2/MSDK/lwip/lwip-2.1.2/src/core/ipv4\ip4.c ****         /* return netif on which to forward IP packet */
 179              		.loc 1 179 10 is_stmt 0
 180 0068 898A     		andi	a3,a3,2
 181 006a 81E6     		bne	a3,zero,.L16
 179:C:/Users/stapi/OneDrive/Desktop/GD32VW553/V1_MQTT_OK/GD32VW55X_Wifi_BLE_SDK/GD32VW55x_RELEASE_V1.0.2/MSDK/lwip/lwip-2.1.2/src/core/ipv4\ip4.c ****         /* return netif on which to forward IP packet */
 182              		.loc 1 179 56 discriminator 1
 183 006c 5845     		lw	a4,12(a0)
 184 006e E38EE7FC 		beq	a5,a4,.L12
 185              	.L16:
 170:C:/Users/stapi/OneDrive/Desktop/GD32VW553/V1_MQTT_OK/GD32VW55X_Wifi_BLE_SDK/GD32VW55x_RELEASE_V1.0.2/MSDK/lwip/lwip-2.1.2/src/core/ipv4\ip4.c ****     /* is the netif up, does it have a link and a valid address? */
 186              		.loc 1 170 3 is_stmt 1 discriminator 2
 187 0072 0841     		lw	a0,0(a0)
 188              	.LVL12:
 189 0074 75B7     		j	.L15
 190              		.cfi_endproc
 191              	.LFE5:
 193              		.section	.text.ip4_input,"ax",@progbits
 194              		.align	1
 195              		.globl	ip4_input
 197              	ip4_input:
 198              	.LFB7:
 410:C:/Users/stapi/OneDrive/Desktop/GD32VW553/V1_MQTT_OK/GD32VW55X_Wifi_BLE_SDK/GD32VW55x_RELEASE_V1.0.2/MSDK/lwip/lwip-2.1.2/src/core/ipv4\ip4.c **** 
 411:C:/Users/stapi/OneDrive/Desktop/GD32VW553/V1_MQTT_OK/GD32VW55X_Wifi_BLE_SDK/GD32VW55x_RELEASE_V1.0.2/MSDK/lwip/lwip-2.1.2/src/core/ipv4\ip4.c **** /**
 412:C:/Users/stapi/OneDrive/Desktop/GD32VW553/V1_MQTT_OK/GD32VW55X_Wifi_BLE_SDK/GD32VW55x_RELEASE_V1.0.2/MSDK/lwip/lwip-2.1.2/src/core/ipv4\ip4.c ****  * This function is called by the network interface device driver when
 413:C:/Users/stapi/OneDrive/Desktop/GD32VW553/V1_MQTT_OK/GD32VW55X_Wifi_BLE_SDK/GD32VW55x_RELEASE_V1.0.2/MSDK/lwip/lwip-2.1.2/src/core/ipv4\ip4.c ****  * an IP packet is received. The function does the basic checks of the
 414:C:/Users/stapi/OneDrive/Desktop/GD32VW553/V1_MQTT_OK/GD32VW55X_Wifi_BLE_SDK/GD32VW55x_RELEASE_V1.0.2/MSDK/lwip/lwip-2.1.2/src/core/ipv4\ip4.c ****  * IP header such as packet size being at least larger than the header
 415:C:/Users/stapi/OneDrive/Desktop/GD32VW553/V1_MQTT_OK/GD32VW55X_Wifi_BLE_SDK/GD32VW55x_RELEASE_V1.0.2/MSDK/lwip/lwip-2.1.2/src/core/ipv4\ip4.c ****  * size etc. If the packet was not destined for us, the packet is
 416:C:/Users/stapi/OneDrive/Desktop/GD32VW553/V1_MQTT_OK/GD32VW55X_Wifi_BLE_SDK/GD32VW55x_RELEASE_V1.0.2/MSDK/lwip/lwip-2.1.2/src/core/ipv4\ip4.c ****  * forwarded (using ip_forward). The IP checksum is always checked.
 417:C:/Users/stapi/OneDrive/Desktop/GD32VW553/V1_MQTT_OK/GD32VW55X_Wifi_BLE_SDK/GD32VW55x_RELEASE_V1.0.2/MSDK/lwip/lwip-2.1.2/src/core/ipv4\ip4.c ****  *
 418:C:/Users/stapi/OneDrive/Desktop/GD32VW553/V1_MQTT_OK/GD32VW55X_Wifi_BLE_SDK/GD32VW55x_RELEASE_V1.0.2/MSDK/lwip/lwip-2.1.2/src/core/ipv4\ip4.c ****  * Finally, the packet is sent to the upper layer protocol input function.
 419:C:/Users/stapi/OneDrive/Desktop/GD32VW553/V1_MQTT_OK/GD32VW55X_Wifi_BLE_SDK/GD32VW55x_RELEASE_V1.0.2/MSDK/lwip/lwip-2.1.2/src/core/ipv4\ip4.c ****  *
 420:C:/Users/stapi/OneDrive/Desktop/GD32VW553/V1_MQTT_OK/GD32VW55X_Wifi_BLE_SDK/GD32VW55x_RELEASE_V1.0.2/MSDK/lwip/lwip-2.1.2/src/core/ipv4\ip4.c ****  * @param p the received IP packet (p->payload points to IP header)
 421:C:/Users/stapi/OneDrive/Desktop/GD32VW553/V1_MQTT_OK/GD32VW55X_Wifi_BLE_SDK/GD32VW55x_RELEASE_V1.0.2/MSDK/lwip/lwip-2.1.2/src/core/ipv4\ip4.c ****  * @param inp the netif on which this packet was received
 422:C:/Users/stapi/OneDrive/Desktop/GD32VW553/V1_MQTT_OK/GD32VW55X_Wifi_BLE_SDK/GD32VW55x_RELEASE_V1.0.2/MSDK/lwip/lwip-2.1.2/src/core/ipv4\ip4.c ****  * @return ERR_OK if the packet was processed (could return ERR_* if it wasn't
 423:C:/Users/stapi/OneDrive/Desktop/GD32VW553/V1_MQTT_OK/GD32VW55X_Wifi_BLE_SDK/GD32VW55x_RELEASE_V1.0.2/MSDK/lwip/lwip-2.1.2/src/core/ipv4\ip4.c ****  *         processed, but currently always returns ERR_OK)
 424:C:/Users/stapi/OneDrive/Desktop/GD32VW553/V1_MQTT_OK/GD32VW55X_Wifi_BLE_SDK/GD32VW55x_RELEASE_V1.0.2/MSDK/lwip/lwip-2.1.2/src/core/ipv4\ip4.c ****  */
 425:C:/Users/stapi/OneDrive/Desktop/GD32VW553/V1_MQTT_OK/GD32VW55X_Wifi_BLE_SDK/GD32VW55x_RELEASE_V1.0.2/MSDK/lwip/lwip-2.1.2/src/core/ipv4\ip4.c **** err_t
 426:C:/Users/stapi/OneDrive/Desktop/GD32VW553/V1_MQTT_OK/GD32VW55X_Wifi_BLE_SDK/GD32VW55x_RELEASE_V1.0.2/MSDK/lwip/lwip-2.1.2/src/core/ipv4\ip4.c **** ip4_input(struct pbuf *p, struct netif *inp)
 427:C:/Users/stapi/OneDrive/Desktop/GD32VW553/V1_MQTT_OK/GD32VW55X_Wifi_BLE_SDK/GD32VW55x_RELEASE_V1.0.2/MSDK/lwip/lwip-2.1.2/src/core/ipv4\ip4.c **** {
 199              		.loc 1 427 1
 200              		.cfi_startproc
 201              	.LVL13:
 202 0000 17030000 		call	t0,__riscv_save_8
 202      E7020300 
 203              		.cfi_offset 23, -36
 204              		.cfi_offset 22, -32
 205              		.cfi_offset 21, -28
 206              		.cfi_offset 20, -24
 207              		.cfi_offset 19, -20
 208              		.cfi_offset 18, -16
 209              		.cfi_offset 9, -12
 210              		.cfi_offset 8, -8
 211              		.cfi_offset 1, -4
 212              		.cfi_def_cfa_offset 48
 428:C:/Users/stapi/OneDrive/Desktop/GD32VW553/V1_MQTT_OK/GD32VW55X_Wifi_BLE_SDK/GD32VW55x_RELEASE_V1.0.2/MSDK/lwip/lwip-2.1.2/src/core/ipv4\ip4.c ****   const struct ip_hdr *iphdr;
 213              		.loc 1 428 3
 429:C:/Users/stapi/OneDrive/Desktop/GD32VW553/V1_MQTT_OK/GD32VW55X_Wifi_BLE_SDK/GD32VW55x_RELEASE_V1.0.2/MSDK/lwip/lwip-2.1.2/src/core/ipv4\ip4.c ****   struct netif *netif;
 214              		.loc 1 429 3
 430:C:/Users/stapi/OneDrive/Desktop/GD32VW553/V1_MQTT_OK/GD32VW55X_Wifi_BLE_SDK/GD32VW55x_RELEASE_V1.0.2/MSDK/lwip/lwip-2.1.2/src/core/ipv4\ip4.c ****   u16_t iphdr_hlen;
 215              		.loc 1 430 3
 431:C:/Users/stapi/OneDrive/Desktop/GD32VW553/V1_MQTT_OK/GD32VW55X_Wifi_BLE_SDK/GD32VW55x_RELEASE_V1.0.2/MSDK/lwip/lwip-2.1.2/src/core/ipv4\ip4.c ****   u16_t iphdr_len;
 216              		.loc 1 431 3
 432:C:/Users/stapi/OneDrive/Desktop/GD32VW553/V1_MQTT_OK/GD32VW55X_Wifi_BLE_SDK/GD32VW55x_RELEASE_V1.0.2/MSDK/lwip/lwip-2.1.2/src/core/ipv4\ip4.c **** #if IP_ACCEPT_LINK_LAYER_ADDRESSING || LWIP_IGMP
 433:C:/Users/stapi/OneDrive/Desktop/GD32VW553/V1_MQTT_OK/GD32VW55X_Wifi_BLE_SDK/GD32VW55x_RELEASE_V1.0.2/MSDK/lwip/lwip-2.1.2/src/core/ipv4\ip4.c ****   int check_ip_src = 1;
 217              		.loc 1 433 3
 218              	.LVL14:
 434:C:/Users/stapi/OneDrive/Desktop/GD32VW553/V1_MQTT_OK/GD32VW55X_Wifi_BLE_SDK/GD32VW55x_RELEASE_V1.0.2/MSDK/lwip/lwip-2.1.2/src/core/ipv4\ip4.c **** #endif /* IP_ACCEPT_LINK_LAYER_ADDRESSING || LWIP_IGMP */
 435:C:/Users/stapi/OneDrive/Desktop/GD32VW553/V1_MQTT_OK/GD32VW55X_Wifi_BLE_SDK/GD32VW55x_RELEASE_V1.0.2/MSDK/lwip/lwip-2.1.2/src/core/ipv4\ip4.c **** #if LWIP_RAW
 436:C:/Users/stapi/OneDrive/Desktop/GD32VW553/V1_MQTT_OK/GD32VW55X_Wifi_BLE_SDK/GD32VW55x_RELEASE_V1.0.2/MSDK/lwip/lwip-2.1.2/src/core/ipv4\ip4.c ****   raw_input_state_t raw_status;
 219              		.loc 1 436 3
 437:C:/Users/stapi/OneDrive/Desktop/GD32VW553/V1_MQTT_OK/GD32VW55X_Wifi_BLE_SDK/GD32VW55x_RELEASE_V1.0.2/MSDK/lwip/lwip-2.1.2/src/core/ipv4\ip4.c **** #endif /* LWIP_RAW */
 438:C:/Users/stapi/OneDrive/Desktop/GD32VW553/V1_MQTT_OK/GD32VW55X_Wifi_BLE_SDK/GD32VW55x_RELEASE_V1.0.2/MSDK/lwip/lwip-2.1.2/src/core/ipv4\ip4.c **** 
 439:C:/Users/stapi/OneDrive/Desktop/GD32VW553/V1_MQTT_OK/GD32VW55X_Wifi_BLE_SDK/GD32VW55x_RELEASE_V1.0.2/MSDK/lwip/lwip-2.1.2/src/core/ipv4\ip4.c ****   LWIP_ASSERT_CORE_LOCKED();
 220              		.loc 1 439 28
 440:C:/Users/stapi/OneDrive/Desktop/GD32VW553/V1_MQTT_OK/GD32VW55X_Wifi_BLE_SDK/GD32VW55x_RELEASE_V1.0.2/MSDK/lwip/lwip-2.1.2/src/core/ipv4\ip4.c **** 
 441:C:/Users/stapi/OneDrive/Desktop/GD32VW553/V1_MQTT_OK/GD32VW55X_Wifi_BLE_SDK/GD32VW55x_RELEASE_V1.0.2/MSDK/lwip/lwip-2.1.2/src/core/ipv4\ip4.c ****   IP_STATS_INC(ip.recv);
 221              		.loc 1 441 24
 442:C:/Users/stapi/OneDrive/Desktop/GD32VW553/V1_MQTT_OK/GD32VW55X_Wifi_BLE_SDK/GD32VW55x_RELEASE_V1.0.2/MSDK/lwip/lwip-2.1.2/src/core/ipv4\ip4.c ****   MIB2_STATS_INC(mib2.ipinreceives);
 222              		.loc 1 442 36
 443:C:/Users/stapi/OneDrive/Desktop/GD32VW553/V1_MQTT_OK/GD32VW55X_Wifi_BLE_SDK/GD32VW55x_RELEASE_V1.0.2/MSDK/lwip/lwip-2.1.2/src/core/ipv4\ip4.c **** 
 444:C:/Users/stapi/OneDrive/Desktop/GD32VW553/V1_MQTT_OK/GD32VW55X_Wifi_BLE_SDK/GD32VW55x_RELEASE_V1.0.2/MSDK/lwip/lwip-2.1.2/src/core/ipv4\ip4.c ****   /* identify the IP header */
 445:C:/Users/stapi/OneDrive/Desktop/GD32VW553/V1_MQTT_OK/GD32VW55X_Wifi_BLE_SDK/GD32VW55x_RELEASE_V1.0.2/MSDK/lwip/lwip-2.1.2/src/core/ipv4\ip4.c ****   iphdr = (struct ip_hdr *)p->payload;
 223              		.loc 1 445 3
 224              		.loc 1 445 9 is_stmt 0
 225 0008 03294500 		lw	s2,4(a0)
 226              	.LVL15:
 446:C:/Users/stapi/OneDrive/Desktop/GD32VW553/V1_MQTT_OK/GD32VW55X_Wifi_BLE_SDK/GD32VW55x_RELEASE_V1.0.2/MSDK/lwip/lwip-2.1.2/src/core/ipv4\ip4.c ****   if (IPH_V(iphdr) != 4) {
 227              		.loc 1 446 3 is_stmt 1
 228              		.loc 1 446 6 is_stmt 0
 229 000c 9147     		li	a5,4
 427:C:/Users/stapi/OneDrive/Desktop/GD32VW553/V1_MQTT_OK/GD32VW55X_Wifi_BLE_SDK/GD32VW55x_RELEASE_V1.0.2/MSDK/lwip/lwip-2.1.2/src/core/ipv4\ip4.c ****   const struct ip_hdr *iphdr;
 230              		.loc 1 427 1
 231 000e 2A84     		mv	s0,a0
 232              		.loc 1 446 7
 233 0010 83440900 		lbu	s1,0(s2)
 234              		.loc 1 446 6
 235 0014 13D74400 		srli	a4,s1,4
 236 0018 630CF700 		beq	a4,a5,.L38
 237              	.LVL16:
 238              	.L42:
 447:C:/Users/stapi/OneDrive/Desktop/GD32VW553/V1_MQTT_OK/GD32VW55X_Wifi_BLE_SDK/GD32VW55x_RELEASE_V1.0.2/MSDK/lwip/lwip-2.1.2/src/core/ipv4\ip4.c ****     LWIP_DEBUGF(IP_DEBUG | LWIP_DBG_LEVEL_WARNING, ("IP packet dropped due to bad version number %"
 239              		.loc 1 447 132 is_stmt 1
 448:C:/Users/stapi/OneDrive/Desktop/GD32VW553/V1_MQTT_OK/GD32VW55X_Wifi_BLE_SDK/GD32VW55x_RELEASE_V1.0.2/MSDK/lwip/lwip-2.1.2/src/core/ipv4\ip4.c ****     ip4_debug_print(p);
 240              		.loc 1 448 23
 449:C:/Users/stapi/OneDrive/Desktop/GD32VW553/V1_MQTT_OK/GD32VW55X_Wifi_BLE_SDK/GD32VW55x_RELEASE_V1.0.2/MSDK/lwip/lwip-2.1.2/src/core/ipv4\ip4.c ****     pbuf_free(p);
 241              		.loc 1 449 5
 242 001c 2285     		mv	a0,s0
 243 001e 97000000 		call	pbuf_free
 243      E7800000 
 244              	.LVL17:
 450:C:/Users/stapi/OneDrive/Desktop/GD32VW553/V1_MQTT_OK/GD32VW55X_Wifi_BLE_SDK/GD32VW55x_RELEASE_V1.0.2/MSDK/lwip/lwip-2.1.2/src/core/ipv4\ip4.c ****     IP_STATS_INC(ip.err);
 245              		.loc 1 450 25
 451:C:/Users/stapi/OneDrive/Desktop/GD32VW553/V1_MQTT_OK/GD32VW55X_Wifi_BLE_SDK/GD32VW55x_RELEASE_V1.0.2/MSDK/lwip/lwip-2.1.2/src/core/ipv4\ip4.c ****     IP_STATS_INC(ip.drop);
 246              		.loc 1 451 26
 452:C:/Users/stapi/OneDrive/Desktop/GD32VW553/V1_MQTT_OK/GD32VW55X_Wifi_BLE_SDK/GD32VW55x_RELEASE_V1.0.2/MSDK/lwip/lwip-2.1.2/src/core/ipv4\ip4.c ****     MIB2_STATS_INC(mib2.ipinhdrerrors);
 247              		.loc 1 452 39
 453:C:/Users/stapi/OneDrive/Desktop/GD32VW553/V1_MQTT_OK/GD32VW55X_Wifi_BLE_SDK/GD32VW55x_RELEASE_V1.0.2/MSDK/lwip/lwip-2.1.2/src/core/ipv4\ip4.c ****     return ERR_OK;
 248              		.loc 1 453 5
 249              	.L39:
 454:C:/Users/stapi/OneDrive/Desktop/GD32VW553/V1_MQTT_OK/GD32VW55X_Wifi_BLE_SDK/GD32VW55x_RELEASE_V1.0.2/MSDK/lwip/lwip-2.1.2/src/core/ipv4\ip4.c ****   }
 455:C:/Users/stapi/OneDrive/Desktop/GD32VW553/V1_MQTT_OK/GD32VW55X_Wifi_BLE_SDK/GD32VW55x_RELEASE_V1.0.2/MSDK/lwip/lwip-2.1.2/src/core/ipv4\ip4.c **** 
 456:C:/Users/stapi/OneDrive/Desktop/GD32VW553/V1_MQTT_OK/GD32VW55X_Wifi_BLE_SDK/GD32VW55x_RELEASE_V1.0.2/MSDK/lwip/lwip-2.1.2/src/core/ipv4\ip4.c **** #ifdef LWIP_HOOK_IP4_INPUT
 457:C:/Users/stapi/OneDrive/Desktop/GD32VW553/V1_MQTT_OK/GD32VW55X_Wifi_BLE_SDK/GD32VW55x_RELEASE_V1.0.2/MSDK/lwip/lwip-2.1.2/src/core/ipv4\ip4.c ****   if (LWIP_HOOK_IP4_INPUT(p, inp)) {
 458:C:/Users/stapi/OneDrive/Desktop/GD32VW553/V1_MQTT_OK/GD32VW55X_Wifi_BLE_SDK/GD32VW55x_RELEASE_V1.0.2/MSDK/lwip/lwip-2.1.2/src/core/ipv4\ip4.c ****     /* the packet has been eaten */
 459:C:/Users/stapi/OneDrive/Desktop/GD32VW553/V1_MQTT_OK/GD32VW55X_Wifi_BLE_SDK/GD32VW55x_RELEASE_V1.0.2/MSDK/lwip/lwip-2.1.2/src/core/ipv4\ip4.c ****     return ERR_OK;
 460:C:/Users/stapi/OneDrive/Desktop/GD32VW553/V1_MQTT_OK/GD32VW55X_Wifi_BLE_SDK/GD32VW55x_RELEASE_V1.0.2/MSDK/lwip/lwip-2.1.2/src/core/ipv4\ip4.c ****   }
 461:C:/Users/stapi/OneDrive/Desktop/GD32VW553/V1_MQTT_OK/GD32VW55X_Wifi_BLE_SDK/GD32VW55x_RELEASE_V1.0.2/MSDK/lwip/lwip-2.1.2/src/core/ipv4\ip4.c **** #endif
 462:C:/Users/stapi/OneDrive/Desktop/GD32VW553/V1_MQTT_OK/GD32VW55X_Wifi_BLE_SDK/GD32VW55x_RELEASE_V1.0.2/MSDK/lwip/lwip-2.1.2/src/core/ipv4\ip4.c **** 
 463:C:/Users/stapi/OneDrive/Desktop/GD32VW553/V1_MQTT_OK/GD32VW55X_Wifi_BLE_SDK/GD32VW55x_RELEASE_V1.0.2/MSDK/lwip/lwip-2.1.2/src/core/ipv4\ip4.c ****   /* obtain IP header length in bytes */
 464:C:/Users/stapi/OneDrive/Desktop/GD32VW553/V1_MQTT_OK/GD32VW55X_Wifi_BLE_SDK/GD32VW55x_RELEASE_V1.0.2/MSDK/lwip/lwip-2.1.2/src/core/ipv4\ip4.c ****   iphdr_hlen = IPH_HL_BYTES(iphdr);
 465:C:/Users/stapi/OneDrive/Desktop/GD32VW553/V1_MQTT_OK/GD32VW55X_Wifi_BLE_SDK/GD32VW55x_RELEASE_V1.0.2/MSDK/lwip/lwip-2.1.2/src/core/ipv4\ip4.c ****   /* obtain ip length in bytes */
 466:C:/Users/stapi/OneDrive/Desktop/GD32VW553/V1_MQTT_OK/GD32VW55X_Wifi_BLE_SDK/GD32VW55x_RELEASE_V1.0.2/MSDK/lwip/lwip-2.1.2/src/core/ipv4\ip4.c ****   iphdr_len = lwip_ntohs(IPH_LEN(iphdr));
 467:C:/Users/stapi/OneDrive/Desktop/GD32VW553/V1_MQTT_OK/GD32VW55X_Wifi_BLE_SDK/GD32VW55x_RELEASE_V1.0.2/MSDK/lwip/lwip-2.1.2/src/core/ipv4\ip4.c **** 
 468:C:/Users/stapi/OneDrive/Desktop/GD32VW553/V1_MQTT_OK/GD32VW55X_Wifi_BLE_SDK/GD32VW55x_RELEASE_V1.0.2/MSDK/lwip/lwip-2.1.2/src/core/ipv4\ip4.c ****   /* Trim pbuf. This is especially required for packets < 60 bytes. */
 469:C:/Users/stapi/OneDrive/Desktop/GD32VW553/V1_MQTT_OK/GD32VW55X_Wifi_BLE_SDK/GD32VW55x_RELEASE_V1.0.2/MSDK/lwip/lwip-2.1.2/src/core/ipv4\ip4.c ****   if (iphdr_len < p->tot_len) {
 470:C:/Users/stapi/OneDrive/Desktop/GD32VW553/V1_MQTT_OK/GD32VW55X_Wifi_BLE_SDK/GD32VW55x_RELEASE_V1.0.2/MSDK/lwip/lwip-2.1.2/src/core/ipv4\ip4.c ****     pbuf_realloc(p, iphdr_len);
 471:C:/Users/stapi/OneDrive/Desktop/GD32VW553/V1_MQTT_OK/GD32VW55X_Wifi_BLE_SDK/GD32VW55x_RELEASE_V1.0.2/MSDK/lwip/lwip-2.1.2/src/core/ipv4\ip4.c ****   }
 472:C:/Users/stapi/OneDrive/Desktop/GD32VW553/V1_MQTT_OK/GD32VW55X_Wifi_BLE_SDK/GD32VW55x_RELEASE_V1.0.2/MSDK/lwip/lwip-2.1.2/src/core/ipv4\ip4.c **** 
 473:C:/Users/stapi/OneDrive/Desktop/GD32VW553/V1_MQTT_OK/GD32VW55X_Wifi_BLE_SDK/GD32VW55x_RELEASE_V1.0.2/MSDK/lwip/lwip-2.1.2/src/core/ipv4\ip4.c ****   /* header length exceeds first pbuf length, or ip length exceeds total pbuf length? */
 474:C:/Users/stapi/OneDrive/Desktop/GD32VW553/V1_MQTT_OK/GD32VW55X_Wifi_BLE_SDK/GD32VW55x_RELEASE_V1.0.2/MSDK/lwip/lwip-2.1.2/src/core/ipv4\ip4.c ****   if ((iphdr_hlen > p->len) || (iphdr_len > p->tot_len) || (iphdr_hlen < IP_HLEN)) {
 475:C:/Users/stapi/OneDrive/Desktop/GD32VW553/V1_MQTT_OK/GD32VW55X_Wifi_BLE_SDK/GD32VW55x_RELEASE_V1.0.2/MSDK/lwip/lwip-2.1.2/src/core/ipv4\ip4.c ****     if (iphdr_hlen < IP_HLEN) {
 476:C:/Users/stapi/OneDrive/Desktop/GD32VW553/V1_MQTT_OK/GD32VW55X_Wifi_BLE_SDK/GD32VW55x_RELEASE_V1.0.2/MSDK/lwip/lwip-2.1.2/src/core/ipv4\ip4.c ****       LWIP_DEBUGF(IP_DEBUG | LWIP_DBG_LEVEL_SERIOUS,
 477:C:/Users/stapi/OneDrive/Desktop/GD32VW553/V1_MQTT_OK/GD32VW55X_Wifi_BLE_SDK/GD32VW55x_RELEASE_V1.0.2/MSDK/lwip/lwip-2.1.2/src/core/ipv4\ip4.c ****                   ("ip4_input: short IP header (%"U16_F" bytes) received, IP packet dropped\n", iph
 478:C:/Users/stapi/OneDrive/Desktop/GD32VW553/V1_MQTT_OK/GD32VW55X_Wifi_BLE_SDK/GD32VW55x_RELEASE_V1.0.2/MSDK/lwip/lwip-2.1.2/src/core/ipv4\ip4.c ****     }
 479:C:/Users/stapi/OneDrive/Desktop/GD32VW553/V1_MQTT_OK/GD32VW55X_Wifi_BLE_SDK/GD32VW55x_RELEASE_V1.0.2/MSDK/lwip/lwip-2.1.2/src/core/ipv4\ip4.c ****     if (iphdr_hlen > p->len) {
 480:C:/Users/stapi/OneDrive/Desktop/GD32VW553/V1_MQTT_OK/GD32VW55X_Wifi_BLE_SDK/GD32VW55x_RELEASE_V1.0.2/MSDK/lwip/lwip-2.1.2/src/core/ipv4\ip4.c ****       LWIP_DEBUGF(IP_DEBUG | LWIP_DBG_LEVEL_SERIOUS,
 481:C:/Users/stapi/OneDrive/Desktop/GD32VW553/V1_MQTT_OK/GD32VW55X_Wifi_BLE_SDK/GD32VW55x_RELEASE_V1.0.2/MSDK/lwip/lwip-2.1.2/src/core/ipv4\ip4.c ****                   ("IP header (len %"U16_F") does not fit in first pbuf (len %"U16_F"), IP packet d
 482:C:/Users/stapi/OneDrive/Desktop/GD32VW553/V1_MQTT_OK/GD32VW55X_Wifi_BLE_SDK/GD32VW55x_RELEASE_V1.0.2/MSDK/lwip/lwip-2.1.2/src/core/ipv4\ip4.c ****                    iphdr_hlen, p->len));
 483:C:/Users/stapi/OneDrive/Desktop/GD32VW553/V1_MQTT_OK/GD32VW55X_Wifi_BLE_SDK/GD32VW55x_RELEASE_V1.0.2/MSDK/lwip/lwip-2.1.2/src/core/ipv4\ip4.c ****     }
 484:C:/Users/stapi/OneDrive/Desktop/GD32VW553/V1_MQTT_OK/GD32VW55X_Wifi_BLE_SDK/GD32VW55x_RELEASE_V1.0.2/MSDK/lwip/lwip-2.1.2/src/core/ipv4\ip4.c ****     if (iphdr_len > p->tot_len) {
 485:C:/Users/stapi/OneDrive/Desktop/GD32VW553/V1_MQTT_OK/GD32VW55X_Wifi_BLE_SDK/GD32VW55x_RELEASE_V1.0.2/MSDK/lwip/lwip-2.1.2/src/core/ipv4\ip4.c ****       LWIP_DEBUGF(IP_DEBUG | LWIP_DBG_LEVEL_SERIOUS,
 486:C:/Users/stapi/OneDrive/Desktop/GD32VW553/V1_MQTT_OK/GD32VW55X_Wifi_BLE_SDK/GD32VW55x_RELEASE_V1.0.2/MSDK/lwip/lwip-2.1.2/src/core/ipv4\ip4.c ****                   ("IP (len %"U16_F") is longer than pbuf (len %"U16_F"), IP packet dropped.\n",
 487:C:/Users/stapi/OneDrive/Desktop/GD32VW553/V1_MQTT_OK/GD32VW55X_Wifi_BLE_SDK/GD32VW55x_RELEASE_V1.0.2/MSDK/lwip/lwip-2.1.2/src/core/ipv4\ip4.c ****                    iphdr_len, p->tot_len));
 488:C:/Users/stapi/OneDrive/Desktop/GD32VW553/V1_MQTT_OK/GD32VW55X_Wifi_BLE_SDK/GD32VW55x_RELEASE_V1.0.2/MSDK/lwip/lwip-2.1.2/src/core/ipv4\ip4.c ****     }
 489:C:/Users/stapi/OneDrive/Desktop/GD32VW553/V1_MQTT_OK/GD32VW55X_Wifi_BLE_SDK/GD32VW55x_RELEASE_V1.0.2/MSDK/lwip/lwip-2.1.2/src/core/ipv4\ip4.c ****     /* free (drop) packet pbufs */
 490:C:/Users/stapi/OneDrive/Desktop/GD32VW553/V1_MQTT_OK/GD32VW55X_Wifi_BLE_SDK/GD32VW55x_RELEASE_V1.0.2/MSDK/lwip/lwip-2.1.2/src/core/ipv4\ip4.c ****     pbuf_free(p);
 491:C:/Users/stapi/OneDrive/Desktop/GD32VW553/V1_MQTT_OK/GD32VW55X_Wifi_BLE_SDK/GD32VW55x_RELEASE_V1.0.2/MSDK/lwip/lwip-2.1.2/src/core/ipv4\ip4.c ****     IP_STATS_INC(ip.lenerr);
 492:C:/Users/stapi/OneDrive/Desktop/GD32VW553/V1_MQTT_OK/GD32VW55X_Wifi_BLE_SDK/GD32VW55x_RELEASE_V1.0.2/MSDK/lwip/lwip-2.1.2/src/core/ipv4\ip4.c ****     IP_STATS_INC(ip.drop);
 493:C:/Users/stapi/OneDrive/Desktop/GD32VW553/V1_MQTT_OK/GD32VW55X_Wifi_BLE_SDK/GD32VW55x_RELEASE_V1.0.2/MSDK/lwip/lwip-2.1.2/src/core/ipv4\ip4.c ****     MIB2_STATS_INC(mib2.ipindiscards);
 494:C:/Users/stapi/OneDrive/Desktop/GD32VW553/V1_MQTT_OK/GD32VW55X_Wifi_BLE_SDK/GD32VW55x_RELEASE_V1.0.2/MSDK/lwip/lwip-2.1.2/src/core/ipv4\ip4.c ****     return ERR_OK;
 495:C:/Users/stapi/OneDrive/Desktop/GD32VW553/V1_MQTT_OK/GD32VW55X_Wifi_BLE_SDK/GD32VW55x_RELEASE_V1.0.2/MSDK/lwip/lwip-2.1.2/src/core/ipv4\ip4.c ****   }
 496:C:/Users/stapi/OneDrive/Desktop/GD32VW553/V1_MQTT_OK/GD32VW55X_Wifi_BLE_SDK/GD32VW55x_RELEASE_V1.0.2/MSDK/lwip/lwip-2.1.2/src/core/ipv4\ip4.c **** 
 497:C:/Users/stapi/OneDrive/Desktop/GD32VW553/V1_MQTT_OK/GD32VW55X_Wifi_BLE_SDK/GD32VW55x_RELEASE_V1.0.2/MSDK/lwip/lwip-2.1.2/src/core/ipv4\ip4.c ****   /* verify checksum */
 498:C:/Users/stapi/OneDrive/Desktop/GD32VW553/V1_MQTT_OK/GD32VW55X_Wifi_BLE_SDK/GD32VW55x_RELEASE_V1.0.2/MSDK/lwip/lwip-2.1.2/src/core/ipv4\ip4.c **** #if CHECKSUM_CHECK_IP
 499:C:/Users/stapi/OneDrive/Desktop/GD32VW553/V1_MQTT_OK/GD32VW55X_Wifi_BLE_SDK/GD32VW55x_RELEASE_V1.0.2/MSDK/lwip/lwip-2.1.2/src/core/ipv4\ip4.c ****   IF__NETIF_CHECKSUM_ENABLED(inp, NETIF_CHECKSUM_CHECK_IP) {
 500:C:/Users/stapi/OneDrive/Desktop/GD32VW553/V1_MQTT_OK/GD32VW55X_Wifi_BLE_SDK/GD32VW55x_RELEASE_V1.0.2/MSDK/lwip/lwip-2.1.2/src/core/ipv4\ip4.c ****     if (inet_chksum(iphdr, iphdr_hlen) != 0) {
 501:C:/Users/stapi/OneDrive/Desktop/GD32VW553/V1_MQTT_OK/GD32VW55X_Wifi_BLE_SDK/GD32VW55x_RELEASE_V1.0.2/MSDK/lwip/lwip-2.1.2/src/core/ipv4\ip4.c **** 
 502:C:/Users/stapi/OneDrive/Desktop/GD32VW553/V1_MQTT_OK/GD32VW55X_Wifi_BLE_SDK/GD32VW55x_RELEASE_V1.0.2/MSDK/lwip/lwip-2.1.2/src/core/ipv4\ip4.c ****       LWIP_DEBUGF(IP_DEBUG | LWIP_DBG_LEVEL_SERIOUS,
 503:C:/Users/stapi/OneDrive/Desktop/GD32VW553/V1_MQTT_OK/GD32VW55X_Wifi_BLE_SDK/GD32VW55x_RELEASE_V1.0.2/MSDK/lwip/lwip-2.1.2/src/core/ipv4\ip4.c ****                   ("Checksum (0x%"X16_F") failed, IP packet dropped.\n", inet_chksum(iphdr, iphdr_h
 504:C:/Users/stapi/OneDrive/Desktop/GD32VW553/V1_MQTT_OK/GD32VW55X_Wifi_BLE_SDK/GD32VW55x_RELEASE_V1.0.2/MSDK/lwip/lwip-2.1.2/src/core/ipv4\ip4.c ****       ip4_debug_print(p);
 505:C:/Users/stapi/OneDrive/Desktop/GD32VW553/V1_MQTT_OK/GD32VW55X_Wifi_BLE_SDK/GD32VW55x_RELEASE_V1.0.2/MSDK/lwip/lwip-2.1.2/src/core/ipv4\ip4.c ****       pbuf_free(p);
 506:C:/Users/stapi/OneDrive/Desktop/GD32VW553/V1_MQTT_OK/GD32VW55X_Wifi_BLE_SDK/GD32VW55x_RELEASE_V1.0.2/MSDK/lwip/lwip-2.1.2/src/core/ipv4\ip4.c ****       IP_STATS_INC(ip.chkerr);
 507:C:/Users/stapi/OneDrive/Desktop/GD32VW553/V1_MQTT_OK/GD32VW55X_Wifi_BLE_SDK/GD32VW55x_RELEASE_V1.0.2/MSDK/lwip/lwip-2.1.2/src/core/ipv4\ip4.c ****       IP_STATS_INC(ip.drop);
 508:C:/Users/stapi/OneDrive/Desktop/GD32VW553/V1_MQTT_OK/GD32VW55X_Wifi_BLE_SDK/GD32VW55x_RELEASE_V1.0.2/MSDK/lwip/lwip-2.1.2/src/core/ipv4\ip4.c ****       MIB2_STATS_INC(mib2.ipinhdrerrors);
 509:C:/Users/stapi/OneDrive/Desktop/GD32VW553/V1_MQTT_OK/GD32VW55X_Wifi_BLE_SDK/GD32VW55x_RELEASE_V1.0.2/MSDK/lwip/lwip-2.1.2/src/core/ipv4\ip4.c ****       return ERR_OK;
 510:C:/Users/stapi/OneDrive/Desktop/GD32VW553/V1_MQTT_OK/GD32VW55X_Wifi_BLE_SDK/GD32VW55x_RELEASE_V1.0.2/MSDK/lwip/lwip-2.1.2/src/core/ipv4\ip4.c ****     }
 511:C:/Users/stapi/OneDrive/Desktop/GD32VW553/V1_MQTT_OK/GD32VW55X_Wifi_BLE_SDK/GD32VW55x_RELEASE_V1.0.2/MSDK/lwip/lwip-2.1.2/src/core/ipv4\ip4.c ****   }
 512:C:/Users/stapi/OneDrive/Desktop/GD32VW553/V1_MQTT_OK/GD32VW55X_Wifi_BLE_SDK/GD32VW55x_RELEASE_V1.0.2/MSDK/lwip/lwip-2.1.2/src/core/ipv4\ip4.c **** #endif
 513:C:/Users/stapi/OneDrive/Desktop/GD32VW553/V1_MQTT_OK/GD32VW55X_Wifi_BLE_SDK/GD32VW55x_RELEASE_V1.0.2/MSDK/lwip/lwip-2.1.2/src/core/ipv4\ip4.c **** 
 514:C:/Users/stapi/OneDrive/Desktop/GD32VW553/V1_MQTT_OK/GD32VW55X_Wifi_BLE_SDK/GD32VW55x_RELEASE_V1.0.2/MSDK/lwip/lwip-2.1.2/src/core/ipv4\ip4.c ****   /* copy IP addresses to aligned ip_addr_t */
 515:C:/Users/stapi/OneDrive/Desktop/GD32VW553/V1_MQTT_OK/GD32VW55X_Wifi_BLE_SDK/GD32VW55x_RELEASE_V1.0.2/MSDK/lwip/lwip-2.1.2/src/core/ipv4\ip4.c ****   ip_addr_copy_from_ip4(ip_data.current_iphdr_dest, iphdr->dest);
 516:C:/Users/stapi/OneDrive/Desktop/GD32VW553/V1_MQTT_OK/GD32VW55X_Wifi_BLE_SDK/GD32VW55x_RELEASE_V1.0.2/MSDK/lwip/lwip-2.1.2/src/core/ipv4\ip4.c ****   ip_addr_copy_from_ip4(ip_data.current_iphdr_src, iphdr->src);
 517:C:/Users/stapi/OneDrive/Desktop/GD32VW553/V1_MQTT_OK/GD32VW55X_Wifi_BLE_SDK/GD32VW55x_RELEASE_V1.0.2/MSDK/lwip/lwip-2.1.2/src/core/ipv4\ip4.c **** 
 518:C:/Users/stapi/OneDrive/Desktop/GD32VW553/V1_MQTT_OK/GD32VW55X_Wifi_BLE_SDK/GD32VW55x_RELEASE_V1.0.2/MSDK/lwip/lwip-2.1.2/src/core/ipv4\ip4.c ****   /* match packet against an interface, i.e. is this packet for us? */
 519:C:/Users/stapi/OneDrive/Desktop/GD32VW553/V1_MQTT_OK/GD32VW55X_Wifi_BLE_SDK/GD32VW55x_RELEASE_V1.0.2/MSDK/lwip/lwip-2.1.2/src/core/ipv4\ip4.c ****   if (ip4_addr_ismulticast(ip4_current_dest_addr())) {
 520:C:/Users/stapi/OneDrive/Desktop/GD32VW553/V1_MQTT_OK/GD32VW55X_Wifi_BLE_SDK/GD32VW55x_RELEASE_V1.0.2/MSDK/lwip/lwip-2.1.2/src/core/ipv4\ip4.c **** #if LWIP_IGMP
 521:C:/Users/stapi/OneDrive/Desktop/GD32VW553/V1_MQTT_OK/GD32VW55X_Wifi_BLE_SDK/GD32VW55x_RELEASE_V1.0.2/MSDK/lwip/lwip-2.1.2/src/core/ipv4\ip4.c ****     if ((inp->flags & NETIF_FLAG_IGMP) && (igmp_lookfor_group(inp, ip4_current_dest_addr()))) {
 522:C:/Users/stapi/OneDrive/Desktop/GD32VW553/V1_MQTT_OK/GD32VW55X_Wifi_BLE_SDK/GD32VW55x_RELEASE_V1.0.2/MSDK/lwip/lwip-2.1.2/src/core/ipv4\ip4.c ****       /* IGMP snooping switches need 0.0.0.0 to be allowed as source address (RFC 4541) */
 523:C:/Users/stapi/OneDrive/Desktop/GD32VW553/V1_MQTT_OK/GD32VW55X_Wifi_BLE_SDK/GD32VW55x_RELEASE_V1.0.2/MSDK/lwip/lwip-2.1.2/src/core/ipv4\ip4.c ****       ip4_addr_t allsystems;
 524:C:/Users/stapi/OneDrive/Desktop/GD32VW553/V1_MQTT_OK/GD32VW55X_Wifi_BLE_SDK/GD32VW55x_RELEASE_V1.0.2/MSDK/lwip/lwip-2.1.2/src/core/ipv4\ip4.c ****       IP4_ADDR(&allsystems, 224, 0, 0, 1);
 525:C:/Users/stapi/OneDrive/Desktop/GD32VW553/V1_MQTT_OK/GD32VW55X_Wifi_BLE_SDK/GD32VW55x_RELEASE_V1.0.2/MSDK/lwip/lwip-2.1.2/src/core/ipv4\ip4.c ****       if (ip4_addr_cmp(ip4_current_dest_addr(), &allsystems) &&
 526:C:/Users/stapi/OneDrive/Desktop/GD32VW553/V1_MQTT_OK/GD32VW55X_Wifi_BLE_SDK/GD32VW55x_RELEASE_V1.0.2/MSDK/lwip/lwip-2.1.2/src/core/ipv4\ip4.c ****           ip4_addr_isany(ip4_current_src_addr())) {
 527:C:/Users/stapi/OneDrive/Desktop/GD32VW553/V1_MQTT_OK/GD32VW55X_Wifi_BLE_SDK/GD32VW55x_RELEASE_V1.0.2/MSDK/lwip/lwip-2.1.2/src/core/ipv4\ip4.c ****         check_ip_src = 0;
 528:C:/Users/stapi/OneDrive/Desktop/GD32VW553/V1_MQTT_OK/GD32VW55X_Wifi_BLE_SDK/GD32VW55x_RELEASE_V1.0.2/MSDK/lwip/lwip-2.1.2/src/core/ipv4\ip4.c ****       }
 529:C:/Users/stapi/OneDrive/Desktop/GD32VW553/V1_MQTT_OK/GD32VW55X_Wifi_BLE_SDK/GD32VW55x_RELEASE_V1.0.2/MSDK/lwip/lwip-2.1.2/src/core/ipv4\ip4.c ****       netif = inp;
 530:C:/Users/stapi/OneDrive/Desktop/GD32VW553/V1_MQTT_OK/GD32VW55X_Wifi_BLE_SDK/GD32VW55x_RELEASE_V1.0.2/MSDK/lwip/lwip-2.1.2/src/core/ipv4\ip4.c ****     } else {
 531:C:/Users/stapi/OneDrive/Desktop/GD32VW553/V1_MQTT_OK/GD32VW55X_Wifi_BLE_SDK/GD32VW55x_RELEASE_V1.0.2/MSDK/lwip/lwip-2.1.2/src/core/ipv4\ip4.c ****       netif = NULL;
 532:C:/Users/stapi/OneDrive/Desktop/GD32VW553/V1_MQTT_OK/GD32VW55X_Wifi_BLE_SDK/GD32VW55x_RELEASE_V1.0.2/MSDK/lwip/lwip-2.1.2/src/core/ipv4\ip4.c ****     }
 533:C:/Users/stapi/OneDrive/Desktop/GD32VW553/V1_MQTT_OK/GD32VW55X_Wifi_BLE_SDK/GD32VW55x_RELEASE_V1.0.2/MSDK/lwip/lwip-2.1.2/src/core/ipv4\ip4.c **** #else /* LWIP_IGMP */
 534:C:/Users/stapi/OneDrive/Desktop/GD32VW553/V1_MQTT_OK/GD32VW55X_Wifi_BLE_SDK/GD32VW55x_RELEASE_V1.0.2/MSDK/lwip/lwip-2.1.2/src/core/ipv4\ip4.c ****     if ((netif_is_up(inp)) && (!ip4_addr_isany_val(*netif_ip4_addr(inp)))) {
 535:C:/Users/stapi/OneDrive/Desktop/GD32VW553/V1_MQTT_OK/GD32VW55X_Wifi_BLE_SDK/GD32VW55x_RELEASE_V1.0.2/MSDK/lwip/lwip-2.1.2/src/core/ipv4\ip4.c ****       netif = inp;
 536:C:/Users/stapi/OneDrive/Desktop/GD32VW553/V1_MQTT_OK/GD32VW55X_Wifi_BLE_SDK/GD32VW55x_RELEASE_V1.0.2/MSDK/lwip/lwip-2.1.2/src/core/ipv4\ip4.c ****     } else {
 537:C:/Users/stapi/OneDrive/Desktop/GD32VW553/V1_MQTT_OK/GD32VW55X_Wifi_BLE_SDK/GD32VW55x_RELEASE_V1.0.2/MSDK/lwip/lwip-2.1.2/src/core/ipv4\ip4.c ****       netif = NULL;
 538:C:/Users/stapi/OneDrive/Desktop/GD32VW553/V1_MQTT_OK/GD32VW55X_Wifi_BLE_SDK/GD32VW55x_RELEASE_V1.0.2/MSDK/lwip/lwip-2.1.2/src/core/ipv4\ip4.c ****     }
 539:C:/Users/stapi/OneDrive/Desktop/GD32VW553/V1_MQTT_OK/GD32VW55X_Wifi_BLE_SDK/GD32VW55x_RELEASE_V1.0.2/MSDK/lwip/lwip-2.1.2/src/core/ipv4\ip4.c **** #endif /* LWIP_IGMP */
 540:C:/Users/stapi/OneDrive/Desktop/GD32VW553/V1_MQTT_OK/GD32VW55X_Wifi_BLE_SDK/GD32VW55x_RELEASE_V1.0.2/MSDK/lwip/lwip-2.1.2/src/core/ipv4\ip4.c ****   } else {
 541:C:/Users/stapi/OneDrive/Desktop/GD32VW553/V1_MQTT_OK/GD32VW55X_Wifi_BLE_SDK/GD32VW55x_RELEASE_V1.0.2/MSDK/lwip/lwip-2.1.2/src/core/ipv4\ip4.c ****     /* start trying with inp. if that's not acceptable, start walking the
 542:C:/Users/stapi/OneDrive/Desktop/GD32VW553/V1_MQTT_OK/GD32VW55X_Wifi_BLE_SDK/GD32VW55x_RELEASE_V1.0.2/MSDK/lwip/lwip-2.1.2/src/core/ipv4\ip4.c ****        list of configured netifs. */
 543:C:/Users/stapi/OneDrive/Desktop/GD32VW553/V1_MQTT_OK/GD32VW55X_Wifi_BLE_SDK/GD32VW55x_RELEASE_V1.0.2/MSDK/lwip/lwip-2.1.2/src/core/ipv4\ip4.c ****     if (ip4_input_accept(inp)) {
 544:C:/Users/stapi/OneDrive/Desktop/GD32VW553/V1_MQTT_OK/GD32VW55X_Wifi_BLE_SDK/GD32VW55x_RELEASE_V1.0.2/MSDK/lwip/lwip-2.1.2/src/core/ipv4\ip4.c ****       netif = inp;
 545:C:/Users/stapi/OneDrive/Desktop/GD32VW553/V1_MQTT_OK/GD32VW55X_Wifi_BLE_SDK/GD32VW55x_RELEASE_V1.0.2/MSDK/lwip/lwip-2.1.2/src/core/ipv4\ip4.c ****     } else {
 546:C:/Users/stapi/OneDrive/Desktop/GD32VW553/V1_MQTT_OK/GD32VW55X_Wifi_BLE_SDK/GD32VW55x_RELEASE_V1.0.2/MSDK/lwip/lwip-2.1.2/src/core/ipv4\ip4.c ****       netif = NULL;
 547:C:/Users/stapi/OneDrive/Desktop/GD32VW553/V1_MQTT_OK/GD32VW55X_Wifi_BLE_SDK/GD32VW55x_RELEASE_V1.0.2/MSDK/lwip/lwip-2.1.2/src/core/ipv4\ip4.c **** #if !LWIP_NETIF_LOOPBACK || LWIP_HAVE_LOOPIF
 548:C:/Users/stapi/OneDrive/Desktop/GD32VW553/V1_MQTT_OK/GD32VW55X_Wifi_BLE_SDK/GD32VW55x_RELEASE_V1.0.2/MSDK/lwip/lwip-2.1.2/src/core/ipv4\ip4.c ****       /* Packets sent to the loopback address must not be accepted on an
 549:C:/Users/stapi/OneDrive/Desktop/GD32VW553/V1_MQTT_OK/GD32VW55X_Wifi_BLE_SDK/GD32VW55x_RELEASE_V1.0.2/MSDK/lwip/lwip-2.1.2/src/core/ipv4\ip4.c ****        * interface that does not have the loopback address assigned to it,
 550:C:/Users/stapi/OneDrive/Desktop/GD32VW553/V1_MQTT_OK/GD32VW55X_Wifi_BLE_SDK/GD32VW55x_RELEASE_V1.0.2/MSDK/lwip/lwip-2.1.2/src/core/ipv4\ip4.c ****        * unless a non-loopback interface is used for loopback traffic. */
 551:C:/Users/stapi/OneDrive/Desktop/GD32VW553/V1_MQTT_OK/GD32VW55X_Wifi_BLE_SDK/GD32VW55x_RELEASE_V1.0.2/MSDK/lwip/lwip-2.1.2/src/core/ipv4\ip4.c ****       if (!ip4_addr_isloopback(ip4_current_dest_addr()))
 552:C:/Users/stapi/OneDrive/Desktop/GD32VW553/V1_MQTT_OK/GD32VW55X_Wifi_BLE_SDK/GD32VW55x_RELEASE_V1.0.2/MSDK/lwip/lwip-2.1.2/src/core/ipv4\ip4.c **** #endif /* !LWIP_NETIF_LOOPBACK || LWIP_HAVE_LOOPIF */
 553:C:/Users/stapi/OneDrive/Desktop/GD32VW553/V1_MQTT_OK/GD32VW55X_Wifi_BLE_SDK/GD32VW55x_RELEASE_V1.0.2/MSDK/lwip/lwip-2.1.2/src/core/ipv4\ip4.c ****       {
 554:C:/Users/stapi/OneDrive/Desktop/GD32VW553/V1_MQTT_OK/GD32VW55X_Wifi_BLE_SDK/GD32VW55x_RELEASE_V1.0.2/MSDK/lwip/lwip-2.1.2/src/core/ipv4\ip4.c **** #if !LWIP_SINGLE_NETIF
 555:C:/Users/stapi/OneDrive/Desktop/GD32VW553/V1_MQTT_OK/GD32VW55X_Wifi_BLE_SDK/GD32VW55x_RELEASE_V1.0.2/MSDK/lwip/lwip-2.1.2/src/core/ipv4\ip4.c ****         NETIF_FOREACH(netif) {
 556:C:/Users/stapi/OneDrive/Desktop/GD32VW553/V1_MQTT_OK/GD32VW55X_Wifi_BLE_SDK/GD32VW55x_RELEASE_V1.0.2/MSDK/lwip/lwip-2.1.2/src/core/ipv4\ip4.c ****           if (netif == inp) {
 557:C:/Users/stapi/OneDrive/Desktop/GD32VW553/V1_MQTT_OK/GD32VW55X_Wifi_BLE_SDK/GD32VW55x_RELEASE_V1.0.2/MSDK/lwip/lwip-2.1.2/src/core/ipv4\ip4.c ****             /* we checked that before already */
 558:C:/Users/stapi/OneDrive/Desktop/GD32VW553/V1_MQTT_OK/GD32VW55X_Wifi_BLE_SDK/GD32VW55x_RELEASE_V1.0.2/MSDK/lwip/lwip-2.1.2/src/core/ipv4\ip4.c ****             continue;
 559:C:/Users/stapi/OneDrive/Desktop/GD32VW553/V1_MQTT_OK/GD32VW55X_Wifi_BLE_SDK/GD32VW55x_RELEASE_V1.0.2/MSDK/lwip/lwip-2.1.2/src/core/ipv4\ip4.c ****           }
 560:C:/Users/stapi/OneDrive/Desktop/GD32VW553/V1_MQTT_OK/GD32VW55X_Wifi_BLE_SDK/GD32VW55x_RELEASE_V1.0.2/MSDK/lwip/lwip-2.1.2/src/core/ipv4\ip4.c ****           if (ip4_input_accept(netif)) {
 561:C:/Users/stapi/OneDrive/Desktop/GD32VW553/V1_MQTT_OK/GD32VW55X_Wifi_BLE_SDK/GD32VW55x_RELEASE_V1.0.2/MSDK/lwip/lwip-2.1.2/src/core/ipv4\ip4.c ****             break;
 562:C:/Users/stapi/OneDrive/Desktop/GD32VW553/V1_MQTT_OK/GD32VW55X_Wifi_BLE_SDK/GD32VW55x_RELEASE_V1.0.2/MSDK/lwip/lwip-2.1.2/src/core/ipv4\ip4.c ****           }
 563:C:/Users/stapi/OneDrive/Desktop/GD32VW553/V1_MQTT_OK/GD32VW55X_Wifi_BLE_SDK/GD32VW55x_RELEASE_V1.0.2/MSDK/lwip/lwip-2.1.2/src/core/ipv4\ip4.c ****         }
 564:C:/Users/stapi/OneDrive/Desktop/GD32VW553/V1_MQTT_OK/GD32VW55X_Wifi_BLE_SDK/GD32VW55x_RELEASE_V1.0.2/MSDK/lwip/lwip-2.1.2/src/core/ipv4\ip4.c **** #endif /* !LWIP_SINGLE_NETIF */
 565:C:/Users/stapi/OneDrive/Desktop/GD32VW553/V1_MQTT_OK/GD32VW55X_Wifi_BLE_SDK/GD32VW55x_RELEASE_V1.0.2/MSDK/lwip/lwip-2.1.2/src/core/ipv4\ip4.c ****       }
 566:C:/Users/stapi/OneDrive/Desktop/GD32VW553/V1_MQTT_OK/GD32VW55X_Wifi_BLE_SDK/GD32VW55x_RELEASE_V1.0.2/MSDK/lwip/lwip-2.1.2/src/core/ipv4\ip4.c ****     }
 567:C:/Users/stapi/OneDrive/Desktop/GD32VW553/V1_MQTT_OK/GD32VW55X_Wifi_BLE_SDK/GD32VW55x_RELEASE_V1.0.2/MSDK/lwip/lwip-2.1.2/src/core/ipv4\ip4.c ****   }
 568:C:/Users/stapi/OneDrive/Desktop/GD32VW553/V1_MQTT_OK/GD32VW55X_Wifi_BLE_SDK/GD32VW55x_RELEASE_V1.0.2/MSDK/lwip/lwip-2.1.2/src/core/ipv4\ip4.c **** 
 569:C:/Users/stapi/OneDrive/Desktop/GD32VW553/V1_MQTT_OK/GD32VW55X_Wifi_BLE_SDK/GD32VW55x_RELEASE_V1.0.2/MSDK/lwip/lwip-2.1.2/src/core/ipv4\ip4.c **** #if IP_ACCEPT_LINK_LAYER_ADDRESSING
 570:C:/Users/stapi/OneDrive/Desktop/GD32VW553/V1_MQTT_OK/GD32VW55X_Wifi_BLE_SDK/GD32VW55x_RELEASE_V1.0.2/MSDK/lwip/lwip-2.1.2/src/core/ipv4\ip4.c ****   /* Pass DHCP messages regardless of destination address. DHCP traffic is addressed
 571:C:/Users/stapi/OneDrive/Desktop/GD32VW553/V1_MQTT_OK/GD32VW55X_Wifi_BLE_SDK/GD32VW55x_RELEASE_V1.0.2/MSDK/lwip/lwip-2.1.2/src/core/ipv4\ip4.c ****    * using link layer addressing (such as Ethernet MAC) so we must not filter on IP.
 572:C:/Users/stapi/OneDrive/Desktop/GD32VW553/V1_MQTT_OK/GD32VW55X_Wifi_BLE_SDK/GD32VW55x_RELEASE_V1.0.2/MSDK/lwip/lwip-2.1.2/src/core/ipv4\ip4.c ****    * According to RFC 1542 section 3.1.1, referred by RFC 2131).
 573:C:/Users/stapi/OneDrive/Desktop/GD32VW553/V1_MQTT_OK/GD32VW55X_Wifi_BLE_SDK/GD32VW55x_RELEASE_V1.0.2/MSDK/lwip/lwip-2.1.2/src/core/ipv4\ip4.c ****    *
 574:C:/Users/stapi/OneDrive/Desktop/GD32VW553/V1_MQTT_OK/GD32VW55X_Wifi_BLE_SDK/GD32VW55x_RELEASE_V1.0.2/MSDK/lwip/lwip-2.1.2/src/core/ipv4\ip4.c ****    * If you want to accept private broadcast communication while a netif is down,
 575:C:/Users/stapi/OneDrive/Desktop/GD32VW553/V1_MQTT_OK/GD32VW55X_Wifi_BLE_SDK/GD32VW55x_RELEASE_V1.0.2/MSDK/lwip/lwip-2.1.2/src/core/ipv4\ip4.c ****    * define LWIP_IP_ACCEPT_UDP_PORT(dst_port), e.g.:
 576:C:/Users/stapi/OneDrive/Desktop/GD32VW553/V1_MQTT_OK/GD32VW55X_Wifi_BLE_SDK/GD32VW55x_RELEASE_V1.0.2/MSDK/lwip/lwip-2.1.2/src/core/ipv4\ip4.c ****    *
 577:C:/Users/stapi/OneDrive/Desktop/GD32VW553/V1_MQTT_OK/GD32VW55X_Wifi_BLE_SDK/GD32VW55x_RELEASE_V1.0.2/MSDK/lwip/lwip-2.1.2/src/core/ipv4\ip4.c ****    * #define LWIP_IP_ACCEPT_UDP_PORT(dst_port) ((dst_port) == PP_NTOHS(12345))
 578:C:/Users/stapi/OneDrive/Desktop/GD32VW553/V1_MQTT_OK/GD32VW55X_Wifi_BLE_SDK/GD32VW55x_RELEASE_V1.0.2/MSDK/lwip/lwip-2.1.2/src/core/ipv4\ip4.c ****    */
 579:C:/Users/stapi/OneDrive/Desktop/GD32VW553/V1_MQTT_OK/GD32VW55X_Wifi_BLE_SDK/GD32VW55x_RELEASE_V1.0.2/MSDK/lwip/lwip-2.1.2/src/core/ipv4\ip4.c ****   if (netif == NULL) {
 580:C:/Users/stapi/OneDrive/Desktop/GD32VW553/V1_MQTT_OK/GD32VW55X_Wifi_BLE_SDK/GD32VW55x_RELEASE_V1.0.2/MSDK/lwip/lwip-2.1.2/src/core/ipv4\ip4.c ****     /* remote port is DHCP server? */
 581:C:/Users/stapi/OneDrive/Desktop/GD32VW553/V1_MQTT_OK/GD32VW55X_Wifi_BLE_SDK/GD32VW55x_RELEASE_V1.0.2/MSDK/lwip/lwip-2.1.2/src/core/ipv4\ip4.c ****     if (IPH_PROTO(iphdr) == IP_PROTO_UDP) {
 582:C:/Users/stapi/OneDrive/Desktop/GD32VW553/V1_MQTT_OK/GD32VW55X_Wifi_BLE_SDK/GD32VW55x_RELEASE_V1.0.2/MSDK/lwip/lwip-2.1.2/src/core/ipv4\ip4.c ****       const struct udp_hdr *udphdr = (const struct udp_hdr *)((const u8_t *)iphdr + iphdr_hlen);
 583:C:/Users/stapi/OneDrive/Desktop/GD32VW553/V1_MQTT_OK/GD32VW55X_Wifi_BLE_SDK/GD32VW55x_RELEASE_V1.0.2/MSDK/lwip/lwip-2.1.2/src/core/ipv4\ip4.c ****       LWIP_DEBUGF(IP_DEBUG | LWIP_DBG_TRACE, ("ip4_input: UDP packet to DHCP client port %"U16_F"\n
 584:C:/Users/stapi/OneDrive/Desktop/GD32VW553/V1_MQTT_OK/GD32VW55X_Wifi_BLE_SDK/GD32VW55x_RELEASE_V1.0.2/MSDK/lwip/lwip-2.1.2/src/core/ipv4\ip4.c ****                                               lwip_ntohs(udphdr->dest)));
 585:C:/Users/stapi/OneDrive/Desktop/GD32VW553/V1_MQTT_OK/GD32VW55X_Wifi_BLE_SDK/GD32VW55x_RELEASE_V1.0.2/MSDK/lwip/lwip-2.1.2/src/core/ipv4\ip4.c ****       if (IP_ACCEPT_LINK_LAYER_ADDRESSED_PORT(udphdr->dest)) {
 586:C:/Users/stapi/OneDrive/Desktop/GD32VW553/V1_MQTT_OK/GD32VW55X_Wifi_BLE_SDK/GD32VW55x_RELEASE_V1.0.2/MSDK/lwip/lwip-2.1.2/src/core/ipv4\ip4.c ****         LWIP_DEBUGF(IP_DEBUG | LWIP_DBG_TRACE, ("ip4_input: DHCP packet accepted.\n"));
 587:C:/Users/stapi/OneDrive/Desktop/GD32VW553/V1_MQTT_OK/GD32VW55X_Wifi_BLE_SDK/GD32VW55x_RELEASE_V1.0.2/MSDK/lwip/lwip-2.1.2/src/core/ipv4\ip4.c ****         netif = inp;
 588:C:/Users/stapi/OneDrive/Desktop/GD32VW553/V1_MQTT_OK/GD32VW55X_Wifi_BLE_SDK/GD32VW55x_RELEASE_V1.0.2/MSDK/lwip/lwip-2.1.2/src/core/ipv4\ip4.c ****         check_ip_src = 0;
 589:C:/Users/stapi/OneDrive/Desktop/GD32VW553/V1_MQTT_OK/GD32VW55X_Wifi_BLE_SDK/GD32VW55x_RELEASE_V1.0.2/MSDK/lwip/lwip-2.1.2/src/core/ipv4\ip4.c ****       }
 590:C:/Users/stapi/OneDrive/Desktop/GD32VW553/V1_MQTT_OK/GD32VW55X_Wifi_BLE_SDK/GD32VW55x_RELEASE_V1.0.2/MSDK/lwip/lwip-2.1.2/src/core/ipv4\ip4.c ****     }
 591:C:/Users/stapi/OneDrive/Desktop/GD32VW553/V1_MQTT_OK/GD32VW55X_Wifi_BLE_SDK/GD32VW55x_RELEASE_V1.0.2/MSDK/lwip/lwip-2.1.2/src/core/ipv4\ip4.c ****   }
 592:C:/Users/stapi/OneDrive/Desktop/GD32VW553/V1_MQTT_OK/GD32VW55X_Wifi_BLE_SDK/GD32VW55x_RELEASE_V1.0.2/MSDK/lwip/lwip-2.1.2/src/core/ipv4\ip4.c **** #endif /* IP_ACCEPT_LINK_LAYER_ADDRESSING */
 593:C:/Users/stapi/OneDrive/Desktop/GD32VW553/V1_MQTT_OK/GD32VW55X_Wifi_BLE_SDK/GD32VW55x_RELEASE_V1.0.2/MSDK/lwip/lwip-2.1.2/src/core/ipv4\ip4.c **** 
 594:C:/Users/stapi/OneDrive/Desktop/GD32VW553/V1_MQTT_OK/GD32VW55X_Wifi_BLE_SDK/GD32VW55x_RELEASE_V1.0.2/MSDK/lwip/lwip-2.1.2/src/core/ipv4\ip4.c ****   /* broadcast or multicast packet source address? Compliant with RFC 1122: 3.2.1.3 */
 595:C:/Users/stapi/OneDrive/Desktop/GD32VW553/V1_MQTT_OK/GD32VW55X_Wifi_BLE_SDK/GD32VW55x_RELEASE_V1.0.2/MSDK/lwip/lwip-2.1.2/src/core/ipv4\ip4.c **** #if LWIP_IGMP || IP_ACCEPT_LINK_LAYER_ADDRESSING
 596:C:/Users/stapi/OneDrive/Desktop/GD32VW553/V1_MQTT_OK/GD32VW55X_Wifi_BLE_SDK/GD32VW55x_RELEASE_V1.0.2/MSDK/lwip/lwip-2.1.2/src/core/ipv4\ip4.c ****   if (check_ip_src
 597:C:/Users/stapi/OneDrive/Desktop/GD32VW553/V1_MQTT_OK/GD32VW55X_Wifi_BLE_SDK/GD32VW55x_RELEASE_V1.0.2/MSDK/lwip/lwip-2.1.2/src/core/ipv4\ip4.c **** #if IP_ACCEPT_LINK_LAYER_ADDRESSING
 598:C:/Users/stapi/OneDrive/Desktop/GD32VW553/V1_MQTT_OK/GD32VW55X_Wifi_BLE_SDK/GD32VW55x_RELEASE_V1.0.2/MSDK/lwip/lwip-2.1.2/src/core/ipv4\ip4.c ****       /* DHCP servers need 0.0.0.0 to be allowed as source address (RFC 1.1.2.2: 3.2.1.3/a) */
 599:C:/Users/stapi/OneDrive/Desktop/GD32VW553/V1_MQTT_OK/GD32VW55X_Wifi_BLE_SDK/GD32VW55x_RELEASE_V1.0.2/MSDK/lwip/lwip-2.1.2/src/core/ipv4\ip4.c ****       && !ip4_addr_isany_val(*ip4_current_src_addr())
 600:C:/Users/stapi/OneDrive/Desktop/GD32VW553/V1_MQTT_OK/GD32VW55X_Wifi_BLE_SDK/GD32VW55x_RELEASE_V1.0.2/MSDK/lwip/lwip-2.1.2/src/core/ipv4\ip4.c **** #endif /* IP_ACCEPT_LINK_LAYER_ADDRESSING */
 601:C:/Users/stapi/OneDrive/Desktop/GD32VW553/V1_MQTT_OK/GD32VW55X_Wifi_BLE_SDK/GD32VW55x_RELEASE_V1.0.2/MSDK/lwip/lwip-2.1.2/src/core/ipv4\ip4.c ****      )
 602:C:/Users/stapi/OneDrive/Desktop/GD32VW553/V1_MQTT_OK/GD32VW55X_Wifi_BLE_SDK/GD32VW55x_RELEASE_V1.0.2/MSDK/lwip/lwip-2.1.2/src/core/ipv4\ip4.c **** #endif /* LWIP_IGMP || IP_ACCEPT_LINK_LAYER_ADDRESSING */
 603:C:/Users/stapi/OneDrive/Desktop/GD32VW553/V1_MQTT_OK/GD32VW55X_Wifi_BLE_SDK/GD32VW55x_RELEASE_V1.0.2/MSDK/lwip/lwip-2.1.2/src/core/ipv4\ip4.c ****   {
 604:C:/Users/stapi/OneDrive/Desktop/GD32VW553/V1_MQTT_OK/GD32VW55X_Wifi_BLE_SDK/GD32VW55x_RELEASE_V1.0.2/MSDK/lwip/lwip-2.1.2/src/core/ipv4\ip4.c ****     if ((ip4_addr_isbroadcast(ip4_current_src_addr(), inp)) ||
 605:C:/Users/stapi/OneDrive/Desktop/GD32VW553/V1_MQTT_OK/GD32VW55X_Wifi_BLE_SDK/GD32VW55x_RELEASE_V1.0.2/MSDK/lwip/lwip-2.1.2/src/core/ipv4\ip4.c ****         (ip4_addr_ismulticast(ip4_current_src_addr()))) {
 606:C:/Users/stapi/OneDrive/Desktop/GD32VW553/V1_MQTT_OK/GD32VW55X_Wifi_BLE_SDK/GD32VW55x_RELEASE_V1.0.2/MSDK/lwip/lwip-2.1.2/src/core/ipv4\ip4.c ****       /* packet source is not valid */
 607:C:/Users/stapi/OneDrive/Desktop/GD32VW553/V1_MQTT_OK/GD32VW55X_Wifi_BLE_SDK/GD32VW55x_RELEASE_V1.0.2/MSDK/lwip/lwip-2.1.2/src/core/ipv4\ip4.c ****       LWIP_DEBUGF(IP_DEBUG | LWIP_DBG_TRACE | LWIP_DBG_LEVEL_WARNING, ("ip4_input: packet source is
 608:C:/Users/stapi/OneDrive/Desktop/GD32VW553/V1_MQTT_OK/GD32VW55X_Wifi_BLE_SDK/GD32VW55x_RELEASE_V1.0.2/MSDK/lwip/lwip-2.1.2/src/core/ipv4\ip4.c ****       /* free (drop) packet pbufs */
 609:C:/Users/stapi/OneDrive/Desktop/GD32VW553/V1_MQTT_OK/GD32VW55X_Wifi_BLE_SDK/GD32VW55x_RELEASE_V1.0.2/MSDK/lwip/lwip-2.1.2/src/core/ipv4\ip4.c ****       pbuf_free(p);
 610:C:/Users/stapi/OneDrive/Desktop/GD32VW553/V1_MQTT_OK/GD32VW55X_Wifi_BLE_SDK/GD32VW55x_RELEASE_V1.0.2/MSDK/lwip/lwip-2.1.2/src/core/ipv4\ip4.c ****       IP_STATS_INC(ip.drop);
 611:C:/Users/stapi/OneDrive/Desktop/GD32VW553/V1_MQTT_OK/GD32VW55X_Wifi_BLE_SDK/GD32VW55x_RELEASE_V1.0.2/MSDK/lwip/lwip-2.1.2/src/core/ipv4\ip4.c ****       MIB2_STATS_INC(mib2.ipinaddrerrors);
 612:C:/Users/stapi/OneDrive/Desktop/GD32VW553/V1_MQTT_OK/GD32VW55X_Wifi_BLE_SDK/GD32VW55x_RELEASE_V1.0.2/MSDK/lwip/lwip-2.1.2/src/core/ipv4\ip4.c ****       MIB2_STATS_INC(mib2.ipindiscards);
 613:C:/Users/stapi/OneDrive/Desktop/GD32VW553/V1_MQTT_OK/GD32VW55X_Wifi_BLE_SDK/GD32VW55x_RELEASE_V1.0.2/MSDK/lwip/lwip-2.1.2/src/core/ipv4\ip4.c ****       return ERR_OK;
 614:C:/Users/stapi/OneDrive/Desktop/GD32VW553/V1_MQTT_OK/GD32VW55X_Wifi_BLE_SDK/GD32VW55x_RELEASE_V1.0.2/MSDK/lwip/lwip-2.1.2/src/core/ipv4\ip4.c ****     }
 615:C:/Users/stapi/OneDrive/Desktop/GD32VW553/V1_MQTT_OK/GD32VW55X_Wifi_BLE_SDK/GD32VW55x_RELEASE_V1.0.2/MSDK/lwip/lwip-2.1.2/src/core/ipv4\ip4.c ****   }
 616:C:/Users/stapi/OneDrive/Desktop/GD32VW553/V1_MQTT_OK/GD32VW55X_Wifi_BLE_SDK/GD32VW55x_RELEASE_V1.0.2/MSDK/lwip/lwip-2.1.2/src/core/ipv4\ip4.c **** 
 617:C:/Users/stapi/OneDrive/Desktop/GD32VW553/V1_MQTT_OK/GD32VW55X_Wifi_BLE_SDK/GD32VW55x_RELEASE_V1.0.2/MSDK/lwip/lwip-2.1.2/src/core/ipv4\ip4.c ****   /* packet not for us? */
 618:C:/Users/stapi/OneDrive/Desktop/GD32VW553/V1_MQTT_OK/GD32VW55X_Wifi_BLE_SDK/GD32VW55x_RELEASE_V1.0.2/MSDK/lwip/lwip-2.1.2/src/core/ipv4\ip4.c ****   if (netif == NULL) {
 619:C:/Users/stapi/OneDrive/Desktop/GD32VW553/V1_MQTT_OK/GD32VW55X_Wifi_BLE_SDK/GD32VW55x_RELEASE_V1.0.2/MSDK/lwip/lwip-2.1.2/src/core/ipv4\ip4.c ****     /* packet not for us, route or discard */
 620:C:/Users/stapi/OneDrive/Desktop/GD32VW553/V1_MQTT_OK/GD32VW55X_Wifi_BLE_SDK/GD32VW55x_RELEASE_V1.0.2/MSDK/lwip/lwip-2.1.2/src/core/ipv4\ip4.c ****     LWIP_DEBUGF(IP_DEBUG | LWIP_DBG_TRACE, ("ip4_input: packet not for us.\n"));
 621:C:/Users/stapi/OneDrive/Desktop/GD32VW553/V1_MQTT_OK/GD32VW55X_Wifi_BLE_SDK/GD32VW55x_RELEASE_V1.0.2/MSDK/lwip/lwip-2.1.2/src/core/ipv4\ip4.c **** #if IP_FORWARD
 622:C:/Users/stapi/OneDrive/Desktop/GD32VW553/V1_MQTT_OK/GD32VW55X_Wifi_BLE_SDK/GD32VW55x_RELEASE_V1.0.2/MSDK/lwip/lwip-2.1.2/src/core/ipv4\ip4.c ****     /* non-broadcast packet? */
 623:C:/Users/stapi/OneDrive/Desktop/GD32VW553/V1_MQTT_OK/GD32VW55X_Wifi_BLE_SDK/GD32VW55x_RELEASE_V1.0.2/MSDK/lwip/lwip-2.1.2/src/core/ipv4\ip4.c ****     if (!ip4_addr_isbroadcast(ip4_current_dest_addr(), inp)) {
 624:C:/Users/stapi/OneDrive/Desktop/GD32VW553/V1_MQTT_OK/GD32VW55X_Wifi_BLE_SDK/GD32VW55x_RELEASE_V1.0.2/MSDK/lwip/lwip-2.1.2/src/core/ipv4\ip4.c ****       /* try to forward IP packet on (other) interfaces */
 625:C:/Users/stapi/OneDrive/Desktop/GD32VW553/V1_MQTT_OK/GD32VW55X_Wifi_BLE_SDK/GD32VW55x_RELEASE_V1.0.2/MSDK/lwip/lwip-2.1.2/src/core/ipv4\ip4.c ****       ip4_forward(p, (struct ip_hdr *)p->payload, inp);
 626:C:/Users/stapi/OneDrive/Desktop/GD32VW553/V1_MQTT_OK/GD32VW55X_Wifi_BLE_SDK/GD32VW55x_RELEASE_V1.0.2/MSDK/lwip/lwip-2.1.2/src/core/ipv4\ip4.c ****     } else
 627:C:/Users/stapi/OneDrive/Desktop/GD32VW553/V1_MQTT_OK/GD32VW55X_Wifi_BLE_SDK/GD32VW55x_RELEASE_V1.0.2/MSDK/lwip/lwip-2.1.2/src/core/ipv4\ip4.c **** #endif /* IP_FORWARD */
 628:C:/Users/stapi/OneDrive/Desktop/GD32VW553/V1_MQTT_OK/GD32VW55X_Wifi_BLE_SDK/GD32VW55x_RELEASE_V1.0.2/MSDK/lwip/lwip-2.1.2/src/core/ipv4\ip4.c ****     {
 629:C:/Users/stapi/OneDrive/Desktop/GD32VW553/V1_MQTT_OK/GD32VW55X_Wifi_BLE_SDK/GD32VW55x_RELEASE_V1.0.2/MSDK/lwip/lwip-2.1.2/src/core/ipv4\ip4.c ****       IP_STATS_INC(ip.drop);
 630:C:/Users/stapi/OneDrive/Desktop/GD32VW553/V1_MQTT_OK/GD32VW55X_Wifi_BLE_SDK/GD32VW55x_RELEASE_V1.0.2/MSDK/lwip/lwip-2.1.2/src/core/ipv4\ip4.c ****       MIB2_STATS_INC(mib2.ipinaddrerrors);
 631:C:/Users/stapi/OneDrive/Desktop/GD32VW553/V1_MQTT_OK/GD32VW55X_Wifi_BLE_SDK/GD32VW55x_RELEASE_V1.0.2/MSDK/lwip/lwip-2.1.2/src/core/ipv4\ip4.c ****       MIB2_STATS_INC(mib2.ipindiscards);
 632:C:/Users/stapi/OneDrive/Desktop/GD32VW553/V1_MQTT_OK/GD32VW55X_Wifi_BLE_SDK/GD32VW55x_RELEASE_V1.0.2/MSDK/lwip/lwip-2.1.2/src/core/ipv4\ip4.c ****     }
 633:C:/Users/stapi/OneDrive/Desktop/GD32VW553/V1_MQTT_OK/GD32VW55X_Wifi_BLE_SDK/GD32VW55x_RELEASE_V1.0.2/MSDK/lwip/lwip-2.1.2/src/core/ipv4\ip4.c ****     pbuf_free(p);
 634:C:/Users/stapi/OneDrive/Desktop/GD32VW553/V1_MQTT_OK/GD32VW55X_Wifi_BLE_SDK/GD32VW55x_RELEASE_V1.0.2/MSDK/lwip/lwip-2.1.2/src/core/ipv4\ip4.c ****     return ERR_OK;
 635:C:/Users/stapi/OneDrive/Desktop/GD32VW553/V1_MQTT_OK/GD32VW55X_Wifi_BLE_SDK/GD32VW55x_RELEASE_V1.0.2/MSDK/lwip/lwip-2.1.2/src/core/ipv4\ip4.c ****   }
 636:C:/Users/stapi/OneDrive/Desktop/GD32VW553/V1_MQTT_OK/GD32VW55X_Wifi_BLE_SDK/GD32VW55x_RELEASE_V1.0.2/MSDK/lwip/lwip-2.1.2/src/core/ipv4\ip4.c ****   /* packet consists of multiple fragments? */
 637:C:/Users/stapi/OneDrive/Desktop/GD32VW553/V1_MQTT_OK/GD32VW55X_Wifi_BLE_SDK/GD32VW55x_RELEASE_V1.0.2/MSDK/lwip/lwip-2.1.2/src/core/ipv4\ip4.c ****   if ((IPH_OFFSET(iphdr) & PP_HTONS(IP_OFFMASK | IP_MF)) != 0) {
 638:C:/Users/stapi/OneDrive/Desktop/GD32VW553/V1_MQTT_OK/GD32VW55X_Wifi_BLE_SDK/GD32VW55x_RELEASE_V1.0.2/MSDK/lwip/lwip-2.1.2/src/core/ipv4\ip4.c **** #if IP_REASSEMBLY /* packet fragment reassembly code present? */
 639:C:/Users/stapi/OneDrive/Desktop/GD32VW553/V1_MQTT_OK/GD32VW55X_Wifi_BLE_SDK/GD32VW55x_RELEASE_V1.0.2/MSDK/lwip/lwip-2.1.2/src/core/ipv4\ip4.c ****     LWIP_DEBUGF(IP_DEBUG, ("IP packet is a fragment (id=0x%04"X16_F" tot_len=%"U16_F" len=%"U16_F" 
 640:C:/Users/stapi/OneDrive/Desktop/GD32VW553/V1_MQTT_OK/GD32VW55X_Wifi_BLE_SDK/GD32VW55x_RELEASE_V1.0.2/MSDK/lwip/lwip-2.1.2/src/core/ipv4\ip4.c ****                            lwip_ntohs(IPH_ID(iphdr)), p->tot_len, lwip_ntohs(IPH_LEN(iphdr)), (u16_
 641:C:/Users/stapi/OneDrive/Desktop/GD32VW553/V1_MQTT_OK/GD32VW55X_Wifi_BLE_SDK/GD32VW55x_RELEASE_V1.0.2/MSDK/lwip/lwip-2.1.2/src/core/ipv4\ip4.c ****     /* reassemble the packet*/
 642:C:/Users/stapi/OneDrive/Desktop/GD32VW553/V1_MQTT_OK/GD32VW55X_Wifi_BLE_SDK/GD32VW55x_RELEASE_V1.0.2/MSDK/lwip/lwip-2.1.2/src/core/ipv4\ip4.c ****     p = ip4_reass(p);
 643:C:/Users/stapi/OneDrive/Desktop/GD32VW553/V1_MQTT_OK/GD32VW55X_Wifi_BLE_SDK/GD32VW55x_RELEASE_V1.0.2/MSDK/lwip/lwip-2.1.2/src/core/ipv4\ip4.c ****     /* packet not fully reassembled yet? */
 644:C:/Users/stapi/OneDrive/Desktop/GD32VW553/V1_MQTT_OK/GD32VW55X_Wifi_BLE_SDK/GD32VW55x_RELEASE_V1.0.2/MSDK/lwip/lwip-2.1.2/src/core/ipv4\ip4.c ****     if (p == NULL) {
 645:C:/Users/stapi/OneDrive/Desktop/GD32VW553/V1_MQTT_OK/GD32VW55X_Wifi_BLE_SDK/GD32VW55x_RELEASE_V1.0.2/MSDK/lwip/lwip-2.1.2/src/core/ipv4\ip4.c ****       return ERR_OK;
 646:C:/Users/stapi/OneDrive/Desktop/GD32VW553/V1_MQTT_OK/GD32VW55X_Wifi_BLE_SDK/GD32VW55x_RELEASE_V1.0.2/MSDK/lwip/lwip-2.1.2/src/core/ipv4\ip4.c ****     }
 647:C:/Users/stapi/OneDrive/Desktop/GD32VW553/V1_MQTT_OK/GD32VW55X_Wifi_BLE_SDK/GD32VW55x_RELEASE_V1.0.2/MSDK/lwip/lwip-2.1.2/src/core/ipv4\ip4.c ****     iphdr = (const struct ip_hdr *)p->payload;
 648:C:/Users/stapi/OneDrive/Desktop/GD32VW553/V1_MQTT_OK/GD32VW55X_Wifi_BLE_SDK/GD32VW55x_RELEASE_V1.0.2/MSDK/lwip/lwip-2.1.2/src/core/ipv4\ip4.c **** #else /* IP_REASSEMBLY == 0, no packet fragment reassembly code present */
 649:C:/Users/stapi/OneDrive/Desktop/GD32VW553/V1_MQTT_OK/GD32VW55X_Wifi_BLE_SDK/GD32VW55x_RELEASE_V1.0.2/MSDK/lwip/lwip-2.1.2/src/core/ipv4\ip4.c ****     pbuf_free(p);
 650:C:/Users/stapi/OneDrive/Desktop/GD32VW553/V1_MQTT_OK/GD32VW55X_Wifi_BLE_SDK/GD32VW55x_RELEASE_V1.0.2/MSDK/lwip/lwip-2.1.2/src/core/ipv4\ip4.c ****     LWIP_DEBUGF(IP_DEBUG | LWIP_DBG_LEVEL_SERIOUS, ("IP packet dropped since it was fragmented (0x%
 651:C:/Users/stapi/OneDrive/Desktop/GD32VW553/V1_MQTT_OK/GD32VW55X_Wifi_BLE_SDK/GD32VW55x_RELEASE_V1.0.2/MSDK/lwip/lwip-2.1.2/src/core/ipv4\ip4.c ****                 lwip_ntohs(IPH_OFFSET(iphdr))));
 652:C:/Users/stapi/OneDrive/Desktop/GD32VW553/V1_MQTT_OK/GD32VW55X_Wifi_BLE_SDK/GD32VW55x_RELEASE_V1.0.2/MSDK/lwip/lwip-2.1.2/src/core/ipv4\ip4.c ****     IP_STATS_INC(ip.opterr);
 653:C:/Users/stapi/OneDrive/Desktop/GD32VW553/V1_MQTT_OK/GD32VW55X_Wifi_BLE_SDK/GD32VW55x_RELEASE_V1.0.2/MSDK/lwip/lwip-2.1.2/src/core/ipv4\ip4.c ****     IP_STATS_INC(ip.drop);
 654:C:/Users/stapi/OneDrive/Desktop/GD32VW553/V1_MQTT_OK/GD32VW55X_Wifi_BLE_SDK/GD32VW55x_RELEASE_V1.0.2/MSDK/lwip/lwip-2.1.2/src/core/ipv4\ip4.c ****     /* unsupported protocol feature */
 655:C:/Users/stapi/OneDrive/Desktop/GD32VW553/V1_MQTT_OK/GD32VW55X_Wifi_BLE_SDK/GD32VW55x_RELEASE_V1.0.2/MSDK/lwip/lwip-2.1.2/src/core/ipv4\ip4.c ****     MIB2_STATS_INC(mib2.ipinunknownprotos);
 656:C:/Users/stapi/OneDrive/Desktop/GD32VW553/V1_MQTT_OK/GD32VW55X_Wifi_BLE_SDK/GD32VW55x_RELEASE_V1.0.2/MSDK/lwip/lwip-2.1.2/src/core/ipv4\ip4.c ****     return ERR_OK;
 657:C:/Users/stapi/OneDrive/Desktop/GD32VW553/V1_MQTT_OK/GD32VW55X_Wifi_BLE_SDK/GD32VW55x_RELEASE_V1.0.2/MSDK/lwip/lwip-2.1.2/src/core/ipv4\ip4.c **** #endif /* IP_REASSEMBLY */
 658:C:/Users/stapi/OneDrive/Desktop/GD32VW553/V1_MQTT_OK/GD32VW55X_Wifi_BLE_SDK/GD32VW55x_RELEASE_V1.0.2/MSDK/lwip/lwip-2.1.2/src/core/ipv4\ip4.c ****   }
 659:C:/Users/stapi/OneDrive/Desktop/GD32VW553/V1_MQTT_OK/GD32VW55X_Wifi_BLE_SDK/GD32VW55x_RELEASE_V1.0.2/MSDK/lwip/lwip-2.1.2/src/core/ipv4\ip4.c **** 
 660:C:/Users/stapi/OneDrive/Desktop/GD32VW553/V1_MQTT_OK/GD32VW55X_Wifi_BLE_SDK/GD32VW55x_RELEASE_V1.0.2/MSDK/lwip/lwip-2.1.2/src/core/ipv4\ip4.c **** #if IP_OPTIONS_ALLOWED == 0 /* no support for IP options in the IP header? */
 661:C:/Users/stapi/OneDrive/Desktop/GD32VW553/V1_MQTT_OK/GD32VW55X_Wifi_BLE_SDK/GD32VW55x_RELEASE_V1.0.2/MSDK/lwip/lwip-2.1.2/src/core/ipv4\ip4.c **** 
 662:C:/Users/stapi/OneDrive/Desktop/GD32VW553/V1_MQTT_OK/GD32VW55X_Wifi_BLE_SDK/GD32VW55x_RELEASE_V1.0.2/MSDK/lwip/lwip-2.1.2/src/core/ipv4\ip4.c **** #if LWIP_IGMP
 663:C:/Users/stapi/OneDrive/Desktop/GD32VW553/V1_MQTT_OK/GD32VW55X_Wifi_BLE_SDK/GD32VW55x_RELEASE_V1.0.2/MSDK/lwip/lwip-2.1.2/src/core/ipv4\ip4.c ****   /* there is an extra "router alert" option in IGMP messages which we allow for but do not police 
 664:C:/Users/stapi/OneDrive/Desktop/GD32VW553/V1_MQTT_OK/GD32VW55X_Wifi_BLE_SDK/GD32VW55x_RELEASE_V1.0.2/MSDK/lwip/lwip-2.1.2/src/core/ipv4\ip4.c ****   if ((iphdr_hlen > IP_HLEN) &&  (IPH_PROTO(iphdr) != IP_PROTO_IGMP)) {
 665:C:/Users/stapi/OneDrive/Desktop/GD32VW553/V1_MQTT_OK/GD32VW55X_Wifi_BLE_SDK/GD32VW55x_RELEASE_V1.0.2/MSDK/lwip/lwip-2.1.2/src/core/ipv4\ip4.c **** #else
 666:C:/Users/stapi/OneDrive/Desktop/GD32VW553/V1_MQTT_OK/GD32VW55X_Wifi_BLE_SDK/GD32VW55x_RELEASE_V1.0.2/MSDK/lwip/lwip-2.1.2/src/core/ipv4\ip4.c ****   if (iphdr_hlen > IP_HLEN) {
 667:C:/Users/stapi/OneDrive/Desktop/GD32VW553/V1_MQTT_OK/GD32VW55X_Wifi_BLE_SDK/GD32VW55x_RELEASE_V1.0.2/MSDK/lwip/lwip-2.1.2/src/core/ipv4\ip4.c **** #endif /* LWIP_IGMP */
 668:C:/Users/stapi/OneDrive/Desktop/GD32VW553/V1_MQTT_OK/GD32VW55X_Wifi_BLE_SDK/GD32VW55x_RELEASE_V1.0.2/MSDK/lwip/lwip-2.1.2/src/core/ipv4\ip4.c ****     LWIP_DEBUGF(IP_DEBUG | LWIP_DBG_LEVEL_SERIOUS, ("IP packet dropped since there were IP options 
 669:C:/Users/stapi/OneDrive/Desktop/GD32VW553/V1_MQTT_OK/GD32VW55X_Wifi_BLE_SDK/GD32VW55x_RELEASE_V1.0.2/MSDK/lwip/lwip-2.1.2/src/core/ipv4\ip4.c ****     pbuf_free(p);
 670:C:/Users/stapi/OneDrive/Desktop/GD32VW553/V1_MQTT_OK/GD32VW55X_Wifi_BLE_SDK/GD32VW55x_RELEASE_V1.0.2/MSDK/lwip/lwip-2.1.2/src/core/ipv4\ip4.c ****     IP_STATS_INC(ip.opterr);
 671:C:/Users/stapi/OneDrive/Desktop/GD32VW553/V1_MQTT_OK/GD32VW55X_Wifi_BLE_SDK/GD32VW55x_RELEASE_V1.0.2/MSDK/lwip/lwip-2.1.2/src/core/ipv4\ip4.c ****     IP_STATS_INC(ip.drop);
 672:C:/Users/stapi/OneDrive/Desktop/GD32VW553/V1_MQTT_OK/GD32VW55X_Wifi_BLE_SDK/GD32VW55x_RELEASE_V1.0.2/MSDK/lwip/lwip-2.1.2/src/core/ipv4\ip4.c ****     /* unsupported protocol feature */
 673:C:/Users/stapi/OneDrive/Desktop/GD32VW553/V1_MQTT_OK/GD32VW55X_Wifi_BLE_SDK/GD32VW55x_RELEASE_V1.0.2/MSDK/lwip/lwip-2.1.2/src/core/ipv4\ip4.c ****     MIB2_STATS_INC(mib2.ipinunknownprotos);
 674:C:/Users/stapi/OneDrive/Desktop/GD32VW553/V1_MQTT_OK/GD32VW55X_Wifi_BLE_SDK/GD32VW55x_RELEASE_V1.0.2/MSDK/lwip/lwip-2.1.2/src/core/ipv4\ip4.c ****     return ERR_OK;
 675:C:/Users/stapi/OneDrive/Desktop/GD32VW553/V1_MQTT_OK/GD32VW55X_Wifi_BLE_SDK/GD32VW55x_RELEASE_V1.0.2/MSDK/lwip/lwip-2.1.2/src/core/ipv4\ip4.c ****   }
 676:C:/Users/stapi/OneDrive/Desktop/GD32VW553/V1_MQTT_OK/GD32VW55X_Wifi_BLE_SDK/GD32VW55x_RELEASE_V1.0.2/MSDK/lwip/lwip-2.1.2/src/core/ipv4\ip4.c **** #endif /* IP_OPTIONS_ALLOWED == 0 */
 677:C:/Users/stapi/OneDrive/Desktop/GD32VW553/V1_MQTT_OK/GD32VW55X_Wifi_BLE_SDK/GD32VW55x_RELEASE_V1.0.2/MSDK/lwip/lwip-2.1.2/src/core/ipv4\ip4.c **** 
 678:C:/Users/stapi/OneDrive/Desktop/GD32VW553/V1_MQTT_OK/GD32VW55X_Wifi_BLE_SDK/GD32VW55x_RELEASE_V1.0.2/MSDK/lwip/lwip-2.1.2/src/core/ipv4\ip4.c ****   /* send to upper layers */
 679:C:/Users/stapi/OneDrive/Desktop/GD32VW553/V1_MQTT_OK/GD32VW55X_Wifi_BLE_SDK/GD32VW55x_RELEASE_V1.0.2/MSDK/lwip/lwip-2.1.2/src/core/ipv4\ip4.c ****   LWIP_DEBUGF(IP_DEBUG, ("ip4_input: \n"));
 680:C:/Users/stapi/OneDrive/Desktop/GD32VW553/V1_MQTT_OK/GD32VW55X_Wifi_BLE_SDK/GD32VW55x_RELEASE_V1.0.2/MSDK/lwip/lwip-2.1.2/src/core/ipv4\ip4.c ****   ip4_debug_print(p);
 681:C:/Users/stapi/OneDrive/Desktop/GD32VW553/V1_MQTT_OK/GD32VW55X_Wifi_BLE_SDK/GD32VW55x_RELEASE_V1.0.2/MSDK/lwip/lwip-2.1.2/src/core/ipv4\ip4.c ****   LWIP_DEBUGF(IP_DEBUG, ("ip4_input: p->len %"U16_F" p->tot_len %"U16_F"\n", p->len, p->tot_len));
 682:C:/Users/stapi/OneDrive/Desktop/GD32VW553/V1_MQTT_OK/GD32VW55X_Wifi_BLE_SDK/GD32VW55x_RELEASE_V1.0.2/MSDK/lwip/lwip-2.1.2/src/core/ipv4\ip4.c **** 
 683:C:/Users/stapi/OneDrive/Desktop/GD32VW553/V1_MQTT_OK/GD32VW55X_Wifi_BLE_SDK/GD32VW55x_RELEASE_V1.0.2/MSDK/lwip/lwip-2.1.2/src/core/ipv4\ip4.c ****   ip_data.current_netif = netif;
 684:C:/Users/stapi/OneDrive/Desktop/GD32VW553/V1_MQTT_OK/GD32VW55X_Wifi_BLE_SDK/GD32VW55x_RELEASE_V1.0.2/MSDK/lwip/lwip-2.1.2/src/core/ipv4\ip4.c ****   ip_data.current_input_netif = inp;
 685:C:/Users/stapi/OneDrive/Desktop/GD32VW553/V1_MQTT_OK/GD32VW55X_Wifi_BLE_SDK/GD32VW55x_RELEASE_V1.0.2/MSDK/lwip/lwip-2.1.2/src/core/ipv4\ip4.c ****   ip_data.current_ip4_header = iphdr;
 686:C:/Users/stapi/OneDrive/Desktop/GD32VW553/V1_MQTT_OK/GD32VW55X_Wifi_BLE_SDK/GD32VW55x_RELEASE_V1.0.2/MSDK/lwip/lwip-2.1.2/src/core/ipv4\ip4.c ****   ip_data.current_ip_header_tot_len = IPH_HL_BYTES(iphdr);
 687:C:/Users/stapi/OneDrive/Desktop/GD32VW553/V1_MQTT_OK/GD32VW55X_Wifi_BLE_SDK/GD32VW55x_RELEASE_V1.0.2/MSDK/lwip/lwip-2.1.2/src/core/ipv4\ip4.c **** 
 688:C:/Users/stapi/OneDrive/Desktop/GD32VW553/V1_MQTT_OK/GD32VW55X_Wifi_BLE_SDK/GD32VW55x_RELEASE_V1.0.2/MSDK/lwip/lwip-2.1.2/src/core/ipv4\ip4.c **** #if LWIP_RAW
 689:C:/Users/stapi/OneDrive/Desktop/GD32VW553/V1_MQTT_OK/GD32VW55X_Wifi_BLE_SDK/GD32VW55x_RELEASE_V1.0.2/MSDK/lwip/lwip-2.1.2/src/core/ipv4\ip4.c ****   /* raw input did not eat the packet? */
 690:C:/Users/stapi/OneDrive/Desktop/GD32VW553/V1_MQTT_OK/GD32VW55X_Wifi_BLE_SDK/GD32VW55x_RELEASE_V1.0.2/MSDK/lwip/lwip-2.1.2/src/core/ipv4\ip4.c ****   raw_status = raw_input(p, inp);
 691:C:/Users/stapi/OneDrive/Desktop/GD32VW553/V1_MQTT_OK/GD32VW55X_Wifi_BLE_SDK/GD32VW55x_RELEASE_V1.0.2/MSDK/lwip/lwip-2.1.2/src/core/ipv4\ip4.c ****   if (raw_status != RAW_INPUT_EATEN)
 692:C:/Users/stapi/OneDrive/Desktop/GD32VW553/V1_MQTT_OK/GD32VW55X_Wifi_BLE_SDK/GD32VW55x_RELEASE_V1.0.2/MSDK/lwip/lwip-2.1.2/src/core/ipv4\ip4.c **** #endif /* LWIP_RAW */
 693:C:/Users/stapi/OneDrive/Desktop/GD32VW553/V1_MQTT_OK/GD32VW55X_Wifi_BLE_SDK/GD32VW55x_RELEASE_V1.0.2/MSDK/lwip/lwip-2.1.2/src/core/ipv4\ip4.c ****   {
 694:C:/Users/stapi/OneDrive/Desktop/GD32VW553/V1_MQTT_OK/GD32VW55X_Wifi_BLE_SDK/GD32VW55x_RELEASE_V1.0.2/MSDK/lwip/lwip-2.1.2/src/core/ipv4\ip4.c ****     pbuf_remove_header(p, iphdr_hlen); /* Move to payload, no check necessary. */
 695:C:/Users/stapi/OneDrive/Desktop/GD32VW553/V1_MQTT_OK/GD32VW55X_Wifi_BLE_SDK/GD32VW55x_RELEASE_V1.0.2/MSDK/lwip/lwip-2.1.2/src/core/ipv4\ip4.c **** 
 696:C:/Users/stapi/OneDrive/Desktop/GD32VW553/V1_MQTT_OK/GD32VW55X_Wifi_BLE_SDK/GD32VW55x_RELEASE_V1.0.2/MSDK/lwip/lwip-2.1.2/src/core/ipv4\ip4.c ****     switch (IPH_PROTO(iphdr)) {
 697:C:/Users/stapi/OneDrive/Desktop/GD32VW553/V1_MQTT_OK/GD32VW55X_Wifi_BLE_SDK/GD32VW55x_RELEASE_V1.0.2/MSDK/lwip/lwip-2.1.2/src/core/ipv4\ip4.c **** #if LWIP_UDP
 698:C:/Users/stapi/OneDrive/Desktop/GD32VW553/V1_MQTT_OK/GD32VW55X_Wifi_BLE_SDK/GD32VW55x_RELEASE_V1.0.2/MSDK/lwip/lwip-2.1.2/src/core/ipv4\ip4.c ****       case IP_PROTO_UDP:
 699:C:/Users/stapi/OneDrive/Desktop/GD32VW553/V1_MQTT_OK/GD32VW55X_Wifi_BLE_SDK/GD32VW55x_RELEASE_V1.0.2/MSDK/lwip/lwip-2.1.2/src/core/ipv4\ip4.c **** #if LWIP_UDPLITE
 700:C:/Users/stapi/OneDrive/Desktop/GD32VW553/V1_MQTT_OK/GD32VW55X_Wifi_BLE_SDK/GD32VW55x_RELEASE_V1.0.2/MSDK/lwip/lwip-2.1.2/src/core/ipv4\ip4.c ****       case IP_PROTO_UDPLITE:
 701:C:/Users/stapi/OneDrive/Desktop/GD32VW553/V1_MQTT_OK/GD32VW55X_Wifi_BLE_SDK/GD32VW55x_RELEASE_V1.0.2/MSDK/lwip/lwip-2.1.2/src/core/ipv4\ip4.c **** #endif /* LWIP_UDPLITE */
 702:C:/Users/stapi/OneDrive/Desktop/GD32VW553/V1_MQTT_OK/GD32VW55X_Wifi_BLE_SDK/GD32VW55x_RELEASE_V1.0.2/MSDK/lwip/lwip-2.1.2/src/core/ipv4\ip4.c ****         MIB2_STATS_INC(mib2.ipindelivers);
 703:C:/Users/stapi/OneDrive/Desktop/GD32VW553/V1_MQTT_OK/GD32VW55X_Wifi_BLE_SDK/GD32VW55x_RELEASE_V1.0.2/MSDK/lwip/lwip-2.1.2/src/core/ipv4\ip4.c ****         udp_input(p, inp);
 704:C:/Users/stapi/OneDrive/Desktop/GD32VW553/V1_MQTT_OK/GD32VW55X_Wifi_BLE_SDK/GD32VW55x_RELEASE_V1.0.2/MSDK/lwip/lwip-2.1.2/src/core/ipv4\ip4.c ****         break;
 705:C:/Users/stapi/OneDrive/Desktop/GD32VW553/V1_MQTT_OK/GD32VW55X_Wifi_BLE_SDK/GD32VW55x_RELEASE_V1.0.2/MSDK/lwip/lwip-2.1.2/src/core/ipv4\ip4.c **** #endif /* LWIP_UDP */
 706:C:/Users/stapi/OneDrive/Desktop/GD32VW553/V1_MQTT_OK/GD32VW55X_Wifi_BLE_SDK/GD32VW55x_RELEASE_V1.0.2/MSDK/lwip/lwip-2.1.2/src/core/ipv4\ip4.c **** #if LWIP_TCP
 707:C:/Users/stapi/OneDrive/Desktop/GD32VW553/V1_MQTT_OK/GD32VW55X_Wifi_BLE_SDK/GD32VW55x_RELEASE_V1.0.2/MSDK/lwip/lwip-2.1.2/src/core/ipv4\ip4.c ****       case IP_PROTO_TCP:
 708:C:/Users/stapi/OneDrive/Desktop/GD32VW553/V1_MQTT_OK/GD32VW55X_Wifi_BLE_SDK/GD32VW55x_RELEASE_V1.0.2/MSDK/lwip/lwip-2.1.2/src/core/ipv4\ip4.c ****         MIB2_STATS_INC(mib2.ipindelivers);
 709:C:/Users/stapi/OneDrive/Desktop/GD32VW553/V1_MQTT_OK/GD32VW55X_Wifi_BLE_SDK/GD32VW55x_RELEASE_V1.0.2/MSDK/lwip/lwip-2.1.2/src/core/ipv4\ip4.c ****         tcp_input(p, inp);
 710:C:/Users/stapi/OneDrive/Desktop/GD32VW553/V1_MQTT_OK/GD32VW55X_Wifi_BLE_SDK/GD32VW55x_RELEASE_V1.0.2/MSDK/lwip/lwip-2.1.2/src/core/ipv4\ip4.c ****         break;
 711:C:/Users/stapi/OneDrive/Desktop/GD32VW553/V1_MQTT_OK/GD32VW55X_Wifi_BLE_SDK/GD32VW55x_RELEASE_V1.0.2/MSDK/lwip/lwip-2.1.2/src/core/ipv4\ip4.c **** #endif /* LWIP_TCP */
 712:C:/Users/stapi/OneDrive/Desktop/GD32VW553/V1_MQTT_OK/GD32VW55X_Wifi_BLE_SDK/GD32VW55x_RELEASE_V1.0.2/MSDK/lwip/lwip-2.1.2/src/core/ipv4\ip4.c **** #if LWIP_ICMP
 713:C:/Users/stapi/OneDrive/Desktop/GD32VW553/V1_MQTT_OK/GD32VW55X_Wifi_BLE_SDK/GD32VW55x_RELEASE_V1.0.2/MSDK/lwip/lwip-2.1.2/src/core/ipv4\ip4.c ****       case IP_PROTO_ICMP:
 714:C:/Users/stapi/OneDrive/Desktop/GD32VW553/V1_MQTT_OK/GD32VW55X_Wifi_BLE_SDK/GD32VW55x_RELEASE_V1.0.2/MSDK/lwip/lwip-2.1.2/src/core/ipv4\ip4.c ****         MIB2_STATS_INC(mib2.ipindelivers);
 715:C:/Users/stapi/OneDrive/Desktop/GD32VW553/V1_MQTT_OK/GD32VW55X_Wifi_BLE_SDK/GD32VW55x_RELEASE_V1.0.2/MSDK/lwip/lwip-2.1.2/src/core/ipv4\ip4.c ****         icmp_input(p, inp);
 716:C:/Users/stapi/OneDrive/Desktop/GD32VW553/V1_MQTT_OK/GD32VW55X_Wifi_BLE_SDK/GD32VW55x_RELEASE_V1.0.2/MSDK/lwip/lwip-2.1.2/src/core/ipv4\ip4.c ****         break;
 717:C:/Users/stapi/OneDrive/Desktop/GD32VW553/V1_MQTT_OK/GD32VW55X_Wifi_BLE_SDK/GD32VW55x_RELEASE_V1.0.2/MSDK/lwip/lwip-2.1.2/src/core/ipv4\ip4.c **** #endif /* LWIP_ICMP */
 718:C:/Users/stapi/OneDrive/Desktop/GD32VW553/V1_MQTT_OK/GD32VW55X_Wifi_BLE_SDK/GD32VW55x_RELEASE_V1.0.2/MSDK/lwip/lwip-2.1.2/src/core/ipv4\ip4.c **** #if LWIP_IGMP
 719:C:/Users/stapi/OneDrive/Desktop/GD32VW553/V1_MQTT_OK/GD32VW55X_Wifi_BLE_SDK/GD32VW55x_RELEASE_V1.0.2/MSDK/lwip/lwip-2.1.2/src/core/ipv4\ip4.c ****       case IP_PROTO_IGMP:
 720:C:/Users/stapi/OneDrive/Desktop/GD32VW553/V1_MQTT_OK/GD32VW55X_Wifi_BLE_SDK/GD32VW55x_RELEASE_V1.0.2/MSDK/lwip/lwip-2.1.2/src/core/ipv4\ip4.c ****         igmp_input(p, inp, ip4_current_dest_addr());
 721:C:/Users/stapi/OneDrive/Desktop/GD32VW553/V1_MQTT_OK/GD32VW55X_Wifi_BLE_SDK/GD32VW55x_RELEASE_V1.0.2/MSDK/lwip/lwip-2.1.2/src/core/ipv4\ip4.c ****         break;
 722:C:/Users/stapi/OneDrive/Desktop/GD32VW553/V1_MQTT_OK/GD32VW55X_Wifi_BLE_SDK/GD32VW55x_RELEASE_V1.0.2/MSDK/lwip/lwip-2.1.2/src/core/ipv4\ip4.c **** #endif /* LWIP_IGMP */
 723:C:/Users/stapi/OneDrive/Desktop/GD32VW553/V1_MQTT_OK/GD32VW55X_Wifi_BLE_SDK/GD32VW55x_RELEASE_V1.0.2/MSDK/lwip/lwip-2.1.2/src/core/ipv4\ip4.c ****       default:
 724:C:/Users/stapi/OneDrive/Desktop/GD32VW553/V1_MQTT_OK/GD32VW55X_Wifi_BLE_SDK/GD32VW55x_RELEASE_V1.0.2/MSDK/lwip/lwip-2.1.2/src/core/ipv4\ip4.c **** #if LWIP_RAW
 725:C:/Users/stapi/OneDrive/Desktop/GD32VW553/V1_MQTT_OK/GD32VW55X_Wifi_BLE_SDK/GD32VW55x_RELEASE_V1.0.2/MSDK/lwip/lwip-2.1.2/src/core/ipv4\ip4.c ****         if (raw_status == RAW_INPUT_DELIVERED) {
 726:C:/Users/stapi/OneDrive/Desktop/GD32VW553/V1_MQTT_OK/GD32VW55X_Wifi_BLE_SDK/GD32VW55x_RELEASE_V1.0.2/MSDK/lwip/lwip-2.1.2/src/core/ipv4\ip4.c ****           MIB2_STATS_INC(mib2.ipindelivers);
 727:C:/Users/stapi/OneDrive/Desktop/GD32VW553/V1_MQTT_OK/GD32VW55X_Wifi_BLE_SDK/GD32VW55x_RELEASE_V1.0.2/MSDK/lwip/lwip-2.1.2/src/core/ipv4\ip4.c ****         } else
 728:C:/Users/stapi/OneDrive/Desktop/GD32VW553/V1_MQTT_OK/GD32VW55X_Wifi_BLE_SDK/GD32VW55x_RELEASE_V1.0.2/MSDK/lwip/lwip-2.1.2/src/core/ipv4\ip4.c **** #endif /* LWIP_RAW */
 729:C:/Users/stapi/OneDrive/Desktop/GD32VW553/V1_MQTT_OK/GD32VW55X_Wifi_BLE_SDK/GD32VW55x_RELEASE_V1.0.2/MSDK/lwip/lwip-2.1.2/src/core/ipv4\ip4.c ****         {
 730:C:/Users/stapi/OneDrive/Desktop/GD32VW553/V1_MQTT_OK/GD32VW55X_Wifi_BLE_SDK/GD32VW55x_RELEASE_V1.0.2/MSDK/lwip/lwip-2.1.2/src/core/ipv4\ip4.c **** #if LWIP_ICMP
 731:C:/Users/stapi/OneDrive/Desktop/GD32VW553/V1_MQTT_OK/GD32VW55X_Wifi_BLE_SDK/GD32VW55x_RELEASE_V1.0.2/MSDK/lwip/lwip-2.1.2/src/core/ipv4\ip4.c ****           /* send ICMP destination protocol unreachable unless is was a broadcast */
 732:C:/Users/stapi/OneDrive/Desktop/GD32VW553/V1_MQTT_OK/GD32VW55X_Wifi_BLE_SDK/GD32VW55x_RELEASE_V1.0.2/MSDK/lwip/lwip-2.1.2/src/core/ipv4\ip4.c ****           if (!ip4_addr_isbroadcast(ip4_current_dest_addr(), netif) &&
 733:C:/Users/stapi/OneDrive/Desktop/GD32VW553/V1_MQTT_OK/GD32VW55X_Wifi_BLE_SDK/GD32VW55x_RELEASE_V1.0.2/MSDK/lwip/lwip-2.1.2/src/core/ipv4\ip4.c ****               !ip4_addr_ismulticast(ip4_current_dest_addr())) {
 734:C:/Users/stapi/OneDrive/Desktop/GD32VW553/V1_MQTT_OK/GD32VW55X_Wifi_BLE_SDK/GD32VW55x_RELEASE_V1.0.2/MSDK/lwip/lwip-2.1.2/src/core/ipv4\ip4.c ****             pbuf_header_force(p, (s16_t)iphdr_hlen); /* Move to ip header, no check necessary. */
 735:C:/Users/stapi/OneDrive/Desktop/GD32VW553/V1_MQTT_OK/GD32VW55X_Wifi_BLE_SDK/GD32VW55x_RELEASE_V1.0.2/MSDK/lwip/lwip-2.1.2/src/core/ipv4\ip4.c ****             icmp_dest_unreach(p, ICMP_DUR_PROTO);
 736:C:/Users/stapi/OneDrive/Desktop/GD32VW553/V1_MQTT_OK/GD32VW55X_Wifi_BLE_SDK/GD32VW55x_RELEASE_V1.0.2/MSDK/lwip/lwip-2.1.2/src/core/ipv4\ip4.c ****           }
 737:C:/Users/stapi/OneDrive/Desktop/GD32VW553/V1_MQTT_OK/GD32VW55X_Wifi_BLE_SDK/GD32VW55x_RELEASE_V1.0.2/MSDK/lwip/lwip-2.1.2/src/core/ipv4\ip4.c **** #endif /* LWIP_ICMP */
 738:C:/Users/stapi/OneDrive/Desktop/GD32VW553/V1_MQTT_OK/GD32VW55X_Wifi_BLE_SDK/GD32VW55x_RELEASE_V1.0.2/MSDK/lwip/lwip-2.1.2/src/core/ipv4\ip4.c **** 
 739:C:/Users/stapi/OneDrive/Desktop/GD32VW553/V1_MQTT_OK/GD32VW55X_Wifi_BLE_SDK/GD32VW55x_RELEASE_V1.0.2/MSDK/lwip/lwip-2.1.2/src/core/ipv4\ip4.c ****           LWIP_DEBUGF(IP_DEBUG | LWIP_DBG_LEVEL_SERIOUS, ("Unsupported transport protocol %"U16_F"\
 740:C:/Users/stapi/OneDrive/Desktop/GD32VW553/V1_MQTT_OK/GD32VW55X_Wifi_BLE_SDK/GD32VW55x_RELEASE_V1.0.2/MSDK/lwip/lwip-2.1.2/src/core/ipv4\ip4.c **** 
 741:C:/Users/stapi/OneDrive/Desktop/GD32VW553/V1_MQTT_OK/GD32VW55X_Wifi_BLE_SDK/GD32VW55x_RELEASE_V1.0.2/MSDK/lwip/lwip-2.1.2/src/core/ipv4\ip4.c ****           IP_STATS_INC(ip.proterr);
 742:C:/Users/stapi/OneDrive/Desktop/GD32VW553/V1_MQTT_OK/GD32VW55X_Wifi_BLE_SDK/GD32VW55x_RELEASE_V1.0.2/MSDK/lwip/lwip-2.1.2/src/core/ipv4\ip4.c ****           IP_STATS_INC(ip.drop);
 743:C:/Users/stapi/OneDrive/Desktop/GD32VW553/V1_MQTT_OK/GD32VW55X_Wifi_BLE_SDK/GD32VW55x_RELEASE_V1.0.2/MSDK/lwip/lwip-2.1.2/src/core/ipv4\ip4.c ****           MIB2_STATS_INC(mib2.ipinunknownprotos);
 744:C:/Users/stapi/OneDrive/Desktop/GD32VW553/V1_MQTT_OK/GD32VW55X_Wifi_BLE_SDK/GD32VW55x_RELEASE_V1.0.2/MSDK/lwip/lwip-2.1.2/src/core/ipv4\ip4.c ****         }
 745:C:/Users/stapi/OneDrive/Desktop/GD32VW553/V1_MQTT_OK/GD32VW55X_Wifi_BLE_SDK/GD32VW55x_RELEASE_V1.0.2/MSDK/lwip/lwip-2.1.2/src/core/ipv4\ip4.c ****         pbuf_free(p);
 746:C:/Users/stapi/OneDrive/Desktop/GD32VW553/V1_MQTT_OK/GD32VW55X_Wifi_BLE_SDK/GD32VW55x_RELEASE_V1.0.2/MSDK/lwip/lwip-2.1.2/src/core/ipv4\ip4.c ****         break;
 747:C:/Users/stapi/OneDrive/Desktop/GD32VW553/V1_MQTT_OK/GD32VW55X_Wifi_BLE_SDK/GD32VW55x_RELEASE_V1.0.2/MSDK/lwip/lwip-2.1.2/src/core/ipv4\ip4.c ****     }
 748:C:/Users/stapi/OneDrive/Desktop/GD32VW553/V1_MQTT_OK/GD32VW55X_Wifi_BLE_SDK/GD32VW55x_RELEASE_V1.0.2/MSDK/lwip/lwip-2.1.2/src/core/ipv4\ip4.c ****   }
 749:C:/Users/stapi/OneDrive/Desktop/GD32VW553/V1_MQTT_OK/GD32VW55X_Wifi_BLE_SDK/GD32VW55x_RELEASE_V1.0.2/MSDK/lwip/lwip-2.1.2/src/core/ipv4\ip4.c **** 
 750:C:/Users/stapi/OneDrive/Desktop/GD32VW553/V1_MQTT_OK/GD32VW55X_Wifi_BLE_SDK/GD32VW55x_RELEASE_V1.0.2/MSDK/lwip/lwip-2.1.2/src/core/ipv4\ip4.c ****   /* @todo: this is not really necessary... */
 751:C:/Users/stapi/OneDrive/Desktop/GD32VW553/V1_MQTT_OK/GD32VW55X_Wifi_BLE_SDK/GD32VW55x_RELEASE_V1.0.2/MSDK/lwip/lwip-2.1.2/src/core/ipv4\ip4.c ****   ip_data.current_netif = NULL;
 752:C:/Users/stapi/OneDrive/Desktop/GD32VW553/V1_MQTT_OK/GD32VW55X_Wifi_BLE_SDK/GD32VW55x_RELEASE_V1.0.2/MSDK/lwip/lwip-2.1.2/src/core/ipv4\ip4.c ****   ip_data.current_input_netif = NULL;
 753:C:/Users/stapi/OneDrive/Desktop/GD32VW553/V1_MQTT_OK/GD32VW55X_Wifi_BLE_SDK/GD32VW55x_RELEASE_V1.0.2/MSDK/lwip/lwip-2.1.2/src/core/ipv4\ip4.c ****   ip_data.current_ip4_header = NULL;
 754:C:/Users/stapi/OneDrive/Desktop/GD32VW553/V1_MQTT_OK/GD32VW55X_Wifi_BLE_SDK/GD32VW55x_RELEASE_V1.0.2/MSDK/lwip/lwip-2.1.2/src/core/ipv4\ip4.c ****   ip_data.current_ip_header_tot_len = 0;
 755:C:/Users/stapi/OneDrive/Desktop/GD32VW553/V1_MQTT_OK/GD32VW55X_Wifi_BLE_SDK/GD32VW55x_RELEASE_V1.0.2/MSDK/lwip/lwip-2.1.2/src/core/ipv4\ip4.c ****   ip4_addr_set_any(ip4_current_src_addr());
 756:C:/Users/stapi/OneDrive/Desktop/GD32VW553/V1_MQTT_OK/GD32VW55X_Wifi_BLE_SDK/GD32VW55x_RELEASE_V1.0.2/MSDK/lwip/lwip-2.1.2/src/core/ipv4\ip4.c ****   ip4_addr_set_any(ip4_current_dest_addr());
 757:C:/Users/stapi/OneDrive/Desktop/GD32VW553/V1_MQTT_OK/GD32VW55X_Wifi_BLE_SDK/GD32VW55x_RELEASE_V1.0.2/MSDK/lwip/lwip-2.1.2/src/core/ipv4\ip4.c **** 
 758:C:/Users/stapi/OneDrive/Desktop/GD32VW553/V1_MQTT_OK/GD32VW55X_Wifi_BLE_SDK/GD32VW55x_RELEASE_V1.0.2/MSDK/lwip/lwip-2.1.2/src/core/ipv4\ip4.c ****   return ERR_OK;
 759:C:/Users/stapi/OneDrive/Desktop/GD32VW553/V1_MQTT_OK/GD32VW55X_Wifi_BLE_SDK/GD32VW55x_RELEASE_V1.0.2/MSDK/lwip/lwip-2.1.2/src/core/ipv4\ip4.c **** }
 250              		.loc 1 759 1 is_stmt 0
 251 0026 0145     		li	a0,0
 252 0028 17030000 		tail	__riscv_restore_8
 252      67000300 
 253              		.cfi_remember_state
 254              		.cfi_restore 23
 255              		.cfi_restore 22
 256              		.cfi_restore 21
 257              		.cfi_restore 20
 258              		.cfi_restore 19
 259              		.cfi_restore 18
 260              		.cfi_restore 9
 261              		.cfi_restore 8
 262              		.cfi_restore 1
 263              		.cfi_def_cfa_offset 0
 264              	.LVL18:
 265              	.L38:
 266              		.cfi_restore_state
 466:C:/Users/stapi/OneDrive/Desktop/GD32VW553/V1_MQTT_OK/GD32VW55X_Wifi_BLE_SDK/GD32VW55x_RELEASE_V1.0.2/MSDK/lwip/lwip-2.1.2/src/core/ipv4\ip4.c **** 
 267              		.loc 1 466 15
 268 0030 83473900 		lbu	a5,3(s2)
 269 0034 03452900 		lbu	a0,2(s2)
 270 0038 AE89     		mv	s3,a1
 464:C:/Users/stapi/OneDrive/Desktop/GD32VW553/V1_MQTT_OK/GD32VW55X_Wifi_BLE_SDK/GD32VW55x_RELEASE_V1.0.2/MSDK/lwip/lwip-2.1.2/src/core/ipv4\ip4.c ****   /* obtain ip length in bytes */
 271              		.loc 1 464 3 is_stmt 1
 466:C:/Users/stapi/OneDrive/Desktop/GD32VW553/V1_MQTT_OK/GD32VW55X_Wifi_BLE_SDK/GD32VW55x_RELEASE_V1.0.2/MSDK/lwip/lwip-2.1.2/src/core/ipv4\ip4.c **** 
 272              		.loc 1 466 15 is_stmt 0
 273 003a A207     		slli	a5,a5,8
 274 003c 5D8D     		or	a0,a5,a0
 275 003e 97000000 		call	lwip_htons
 275      E7800000 
 276              	.LVL19:
 469:C:/Users/stapi/OneDrive/Desktop/GD32VW553/V1_MQTT_OK/GD32VW55X_Wifi_BLE_SDK/GD32VW55x_RELEASE_V1.0.2/MSDK/lwip/lwip-2.1.2/src/core/ipv4\ip4.c ****     pbuf_realloc(p, iphdr_len);
 277              		.loc 1 469 6
 278 0046 83578400 		lhu	a5,8(s0)
 464:C:/Users/stapi/OneDrive/Desktop/GD32VW553/V1_MQTT_OK/GD32VW55X_Wifi_BLE_SDK/GD32VW55x_RELEASE_V1.0.2/MSDK/lwip/lwip-2.1.2/src/core/ipv4\ip4.c ****   /* obtain ip length in bytes */
 279              		.loc 1 464 16
 280 004a BD88     		andi	s1,s1,15
 281 004c 939A2400 		slli	s5,s1,2
 464:C:/Users/stapi/OneDrive/Desktop/GD32VW553/V1_MQTT_OK/GD32VW55X_Wifi_BLE_SDK/GD32VW55x_RELEASE_V1.0.2/MSDK/lwip/lwip-2.1.2/src/core/ipv4\ip4.c ****   /* obtain ip length in bytes */
 282              		.loc 1 464 14
 283 0050 D684     		mv	s1,s5
 284              	.LVL20:
 466:C:/Users/stapi/OneDrive/Desktop/GD32VW553/V1_MQTT_OK/GD32VW55X_Wifi_BLE_SDK/GD32VW55x_RELEASE_V1.0.2/MSDK/lwip/lwip-2.1.2/src/core/ipv4\ip4.c **** 
 285              		.loc 1 466 3 is_stmt 1
 466:C:/Users/stapi/OneDrive/Desktop/GD32VW553/V1_MQTT_OK/GD32VW55X_Wifi_BLE_SDK/GD32VW55x_RELEASE_V1.0.2/MSDK/lwip/lwip-2.1.2/src/core/ipv4\ip4.c **** 
 286              		.loc 1 466 15 is_stmt 0
 287 0052 2A8A     		mv	s4,a0
 288              	.LVL21:
 469:C:/Users/stapi/OneDrive/Desktop/GD32VW553/V1_MQTT_OK/GD32VW55X_Wifi_BLE_SDK/GD32VW55x_RELEASE_V1.0.2/MSDK/lwip/lwip-2.1.2/src/core/ipv4\ip4.c ****     pbuf_realloc(p, iphdr_len);
 289              		.loc 1 469 3 is_stmt 1
 469:C:/Users/stapi/OneDrive/Desktop/GD32VW553/V1_MQTT_OK/GD32VW55X_Wifi_BLE_SDK/GD32VW55x_RELEASE_V1.0.2/MSDK/lwip/lwip-2.1.2/src/core/ipv4\ip4.c ****     pbuf_realloc(p, iphdr_len);
 290              		.loc 1 469 6 is_stmt 0
 291 0054 6378F500 		bleu	a5,a0,.L40
 470:C:/Users/stapi/OneDrive/Desktop/GD32VW553/V1_MQTT_OK/GD32VW55X_Wifi_BLE_SDK/GD32VW55x_RELEASE_V1.0.2/MSDK/lwip/lwip-2.1.2/src/core/ipv4\ip4.c ****   }
 292              		.loc 1 470 5 is_stmt 1
 293 0058 AA85     		mv	a1,a0
 294 005a 2285     		mv	a0,s0
 295              	.LVL22:
 296 005c 97000000 		call	pbuf_realloc
 296      E7800000 
 297              	.LVL23:
 298              	.L40:
 474:C:/Users/stapi/OneDrive/Desktop/GD32VW553/V1_MQTT_OK/GD32VW55X_Wifi_BLE_SDK/GD32VW55x_RELEASE_V1.0.2/MSDK/lwip/lwip-2.1.2/src/core/ipv4\ip4.c ****     if (iphdr_hlen < IP_HLEN) {
 299              		.loc 1 474 3
 474:C:/Users/stapi/OneDrive/Desktop/GD32VW553/V1_MQTT_OK/GD32VW55X_Wifi_BLE_SDK/GD32VW55x_RELEASE_V1.0.2/MSDK/lwip/lwip-2.1.2/src/core/ipv4\ip4.c ****     if (iphdr_hlen < IP_HLEN) {
 300              		.loc 1 474 6 is_stmt 0
 301 0064 8357A400 		lhu	a5,10(s0)
 302 0068 E3EA97FA 		bltu	a5,s1,.L42
 474:C:/Users/stapi/OneDrive/Desktop/GD32VW553/V1_MQTT_OK/GD32VW55X_Wifi_BLE_SDK/GD32VW55x_RELEASE_V1.0.2/MSDK/lwip/lwip-2.1.2/src/core/ipv4\ip4.c ****     if (iphdr_hlen < IP_HLEN) {
 303              		.loc 1 474 29 discriminator 1
 304 006c 83578400 		lhu	a5,8(s0)
 305 0070 E3E647FB 		bltu	a5,s4,.L42
 474:C:/Users/stapi/OneDrive/Desktop/GD32VW553/V1_MQTT_OK/GD32VW55X_Wifi_BLE_SDK/GD32VW55x_RELEASE_V1.0.2/MSDK/lwip/lwip-2.1.2/src/core/ipv4\ip4.c ****     if (iphdr_hlen < IP_HLEN) {
 306              		.loc 1 474 57 discriminator 2
 307 0074 CD47     		li	a5,19
 308 0076 E3F397FA 		bleu	s1,a5,.L42
 500:C:/Users/stapi/OneDrive/Desktop/GD32VW553/V1_MQTT_OK/GD32VW55X_Wifi_BLE_SDK/GD32VW55x_RELEASE_V1.0.2/MSDK/lwip/lwip-2.1.2/src/core/ipv4\ip4.c **** 
 309              		.loc 1 500 5 is_stmt 1
 500:C:/Users/stapi/OneDrive/Desktop/GD32VW553/V1_MQTT_OK/GD32VW55X_Wifi_BLE_SDK/GD32VW55x_RELEASE_V1.0.2/MSDK/lwip/lwip-2.1.2/src/core/ipv4\ip4.c **** 
 310              		.loc 1 500 9 is_stmt 0
 311 007a A685     		mv	a1,s1
 312 007c 4A85     		mv	a0,s2
 313 007e 97000000 		call	inet_chksum
 313      E7800000 
 314              	.LVL24:
 500:C:/Users/stapi/OneDrive/Desktop/GD32VW553/V1_MQTT_OK/GD32VW55X_Wifi_BLE_SDK/GD32VW55x_RELEASE_V1.0.2/MSDK/lwip/lwip-2.1.2/src/core/ipv4\ip4.c **** 
 315              		.loc 1 500 8
 316 0086 59F9     		bne	a0,zero,.L42
 515:C:/Users/stapi/OneDrive/Desktop/GD32VW553/V1_MQTT_OK/GD32VW55X_Wifi_BLE_SDK/GD32VW55x_RELEASE_V1.0.2/MSDK/lwip/lwip-2.1.2/src/core/ipv4\ip4.c ****   ip_addr_copy_from_ip4(ip_data.current_iphdr_src, iphdr->src);
 317              		.loc 1 515 3 is_stmt 1
 318 0088 03471901 		lbu	a4,17(s2)
 319 008c 83470901 		lbu	a5,16(s2)
 320 0090 B7040000 		lui	s1,%hi(ip_data)
 321 0094 2207     		slli	a4,a4,8
 322 0096 5D8F     		or	a4,a4,a5
 323 0098 83472901 		lbu	a5,18(s2)
 324 009c 13860400 		addi	a2,s1,%lo(ip_data)
 325 00a0 93840400 		addi	s1,s1,%lo(ip_data)
 326 00a4 C207     		slli	a5,a5,16
 327 00a6 5D8F     		or	a4,a5,a4
 328 00a8 83473901 		lbu	a5,19(s2)
 329 00ac E207     		slli	a5,a5,24
 330 00ae D98F     		or	a5,a5,a4
 331 00b0 5CCA     		sw	a5,20(a2)
 516:C:/Users/stapi/OneDrive/Desktop/GD32VW553/V1_MQTT_OK/GD32VW55X_Wifi_BLE_SDK/GD32VW55x_RELEASE_V1.0.2/MSDK/lwip/lwip-2.1.2/src/core/ipv4\ip4.c **** 
 332              		.loc 1 516 3
 333 00b2 8346D900 		lbu	a3,13(s2)
 334 00b6 0347C900 		lbu	a4,12(s2)
 519:C:/Users/stapi/OneDrive/Desktop/GD32VW553/V1_MQTT_OK/GD32VW55X_Wifi_BLE_SDK/GD32VW55x_RELEASE_V1.0.2/MSDK/lwip/lwip-2.1.2/src/core/ipv4\ip4.c **** #if LWIP_IGMP
 335              		.loc 1 519 7 is_stmt 0
 336 00ba 93F7070F 		andi	a5,a5,240
 516:C:/Users/stapi/OneDrive/Desktop/GD32VW553/V1_MQTT_OK/GD32VW55X_Wifi_BLE_SDK/GD32VW55x_RELEASE_V1.0.2/MSDK/lwip/lwip-2.1.2/src/core/ipv4\ip4.c **** 
 337              		.loc 1 516 3
 338 00be A206     		slli	a3,a3,8
 339 00c0 D98E     		or	a3,a3,a4
 340 00c2 0347E900 		lbu	a4,14(s2)
 341 00c6 4207     		slli	a4,a4,16
 342 00c8 D98E     		or	a3,a4,a3
 343 00ca 0347F900 		lbu	a4,15(s2)
 344 00ce 6207     		slli	a4,a4,24
 345 00d0 558F     		or	a4,a4,a3
 346 00d2 18CA     		sw	a4,16(a2)
 519:C:/Users/stapi/OneDrive/Desktop/GD32VW553/V1_MQTT_OK/GD32VW55X_Wifi_BLE_SDK/GD32VW55x_RELEASE_V1.0.2/MSDK/lwip/lwip-2.1.2/src/core/ipv4\ip4.c **** #if LWIP_IGMP
 347              		.loc 1 519 3 is_stmt 1
 519:C:/Users/stapi/OneDrive/Desktop/GD32VW553/V1_MQTT_OK/GD32VW55X_Wifi_BLE_SDK/GD32VW55x_RELEASE_V1.0.2/MSDK/lwip/lwip-2.1.2/src/core/ipv4\ip4.c **** #if LWIP_IGMP
 348              		.loc 1 519 6 is_stmt 0
 349 00d4 1307000E 		li	a4,224
 350 00d8 6394E712 		bne	a5,a4,.L44
 521:C:/Users/stapi/OneDrive/Desktop/GD32VW553/V1_MQTT_OK/GD32VW55X_Wifi_BLE_SDK/GD32VW55x_RELEASE_V1.0.2/MSDK/lwip/lwip-2.1.2/src/core/ipv4\ip4.c ****       /* IGMP snooping switches need 0.0.0.0 to be allowed as source address (RFC 4541) */
 351              		.loc 1 521 5 is_stmt 1
 521:C:/Users/stapi/OneDrive/Desktop/GD32VW553/V1_MQTT_OK/GD32VW55X_Wifi_BLE_SDK/GD32VW55x_RELEASE_V1.0.2/MSDK/lwip/lwip-2.1.2/src/core/ipv4\ip4.c ****       /* IGMP snooping switches need 0.0.0.0 to be allowed as source address (RFC 4541) */
 352              		.loc 1 521 8 is_stmt 0
 353 00dc 83C71903 		lbu	a5,49(s3)
 354 00e0 93F70702 		andi	a5,a5,32
 355 00e4 81EB     		bne	a5,zero,.L45
 356              	.L48:
 357              	.LVL25:
 581:C:/Users/stapi/OneDrive/Desktop/GD32VW553/V1_MQTT_OK/GD32VW55X_Wifi_BLE_SDK/GD32VW55x_RELEASE_V1.0.2/MSDK/lwip/lwip-2.1.2/src/core/ipv4\ip4.c ****       const struct udp_hdr *udphdr = (const struct udp_hdr *)((const u8_t *)iphdr + iphdr_hlen);
 358              		.loc 1 581 5 is_stmt 1
 581:C:/Users/stapi/OneDrive/Desktop/GD32VW553/V1_MQTT_OK/GD32VW55X_Wifi_BLE_SDK/GD32VW55x_RELEASE_V1.0.2/MSDK/lwip/lwip-2.1.2/src/core/ipv4\ip4.c ****       const struct udp_hdr *udphdr = (const struct udp_hdr *)((const u8_t *)iphdr + iphdr_hlen);
 359              		.loc 1 581 8 is_stmt 0
 360 00e6 03479900 		lbu	a4,9(s2)
 361 00ea C547     		li	a5,17
 362 00ec 630BF714 		beq	a4,a5,.L46
 363              	.L88:
 364              	.LBB12:
 365 00f0 014A     		li	s4,0
 366 00f2 1DA0     		j	.L47
 367              	.LVL26:
 368              	.L45:
 369              	.LBE12:
 521:C:/Users/stapi/OneDrive/Desktop/GD32VW553/V1_MQTT_OK/GD32VW55X_Wifi_BLE_SDK/GD32VW55x_RELEASE_V1.0.2/MSDK/lwip/lwip-2.1.2/src/core/ipv4\ip4.c ****       /* IGMP snooping switches need 0.0.0.0 to be allowed as source address (RFC 4541) */
 370              		.loc 1 521 44 discriminator 1
 371 00f4 B7050000 		lui	a1,%hi(ip_data+20)
 372 00f8 93854501 		addi	a1,a1,%lo(ip_data+20)
 373 00fc 4E85     		mv	a0,s3
 374 00fe 97000000 		call	igmp_lookfor_group
 374      E7800000 
 375              	.LVL27:
 521:C:/Users/stapi/OneDrive/Desktop/GD32VW553/V1_MQTT_OK/GD32VW55X_Wifi_BLE_SDK/GD32VW55x_RELEASE_V1.0.2/MSDK/lwip/lwip-2.1.2/src/core/ipv4\ip4.c ****       /* IGMP snooping switches need 0.0.0.0 to be allowed as source address (RFC 4541) */
 376              		.loc 1 521 40 discriminator 1
 377 0106 65D1     		beq	a0,zero,.L48
 378              	.LBB13:
 523:C:/Users/stapi/OneDrive/Desktop/GD32VW553/V1_MQTT_OK/GD32VW55X_Wifi_BLE_SDK/GD32VW55x_RELEASE_V1.0.2/MSDK/lwip/lwip-2.1.2/src/core/ipv4\ip4.c ****       IP4_ADDR(&allsystems, 224, 0, 0, 1);
 379              		.loc 1 523 7 is_stmt 1
 524:C:/Users/stapi/OneDrive/Desktop/GD32VW553/V1_MQTT_OK/GD32VW55X_Wifi_BLE_SDK/GD32VW55x_RELEASE_V1.0.2/MSDK/lwip/lwip-2.1.2/src/core/ipv4\ip4.c ****       if (ip4_addr_cmp(ip4_current_dest_addr(), &allsystems) &&
 380              		.loc 1 524 7
 381              	.LVL28:
 525:C:/Users/stapi/OneDrive/Desktop/GD32VW553/V1_MQTT_OK/GD32VW55X_Wifi_BLE_SDK/GD32VW55x_RELEASE_V1.0.2/MSDK/lwip/lwip-2.1.2/src/core/ipv4\ip4.c ****           ip4_addr_isany(ip4_current_src_addr())) {
 382              		.loc 1 525 7
 525:C:/Users/stapi/OneDrive/Desktop/GD32VW553/V1_MQTT_OK/GD32VW55X_Wifi_BLE_SDK/GD32VW55x_RELEASE_V1.0.2/MSDK/lwip/lwip-2.1.2/src/core/ipv4\ip4.c ****           ip4_addr_isany(ip4_current_src_addr())) {
 383              		.loc 1 525 10 is_stmt 0
 384 0108 D848     		lw	a4,20(s1)
 385 010a B7070001 		li	a5,16777216
 386 010e 9387070E 		addi	a5,a5,224
 387 0112 6306F702 		beq	a4,a5,.L49
 388              	.LVL29:
 389              	.L50:
 390              	.LBE13:
 427:C:/Users/stapi/OneDrive/Desktop/GD32VW553/V1_MQTT_OK/GD32VW55X_Wifi_BLE_SDK/GD32VW55x_RELEASE_V1.0.2/MSDK/lwip/lwip-2.1.2/src/core/ipv4\ip4.c ****   const struct ip_hdr *iphdr;
 391              		.loc 1 427 1
 392 0116 4E8A     		mv	s4,s3
 393              	.L47:
 394              	.LVL30:
 599:C:/Users/stapi/OneDrive/Desktop/GD32VW553/V1_MQTT_OK/GD32VW55X_Wifi_BLE_SDK/GD32VW55x_RELEASE_V1.0.2/MSDK/lwip/lwip-2.1.2/src/core/ipv4\ip4.c **** #endif /* IP_ACCEPT_LINK_LAYER_ADDRESSING */
 395              		.loc 1 599 11
 396 0118 8848     		lw	a0,16(s1)
 599:C:/Users/stapi/OneDrive/Desktop/GD32VW553/V1_MQTT_OK/GD32VW55X_Wifi_BLE_SDK/GD32VW55x_RELEASE_V1.0.2/MSDK/lwip/lwip-2.1.2/src/core/ipv4\ip4.c **** #endif /* IP_ACCEPT_LINK_LAYER_ADDRESSING */
 397              		.loc 1 599 7
 398 011a 19CD     		beq	a0,zero,.L57
 604:C:/Users/stapi/OneDrive/Desktop/GD32VW553/V1_MQTT_OK/GD32VW55X_Wifi_BLE_SDK/GD32VW55x_RELEASE_V1.0.2/MSDK/lwip/lwip-2.1.2/src/core/ipv4\ip4.c ****         (ip4_addr_ismulticast(ip4_current_src_addr()))) {
 399              		.loc 1 604 5 is_stmt 1
 604:C:/Users/stapi/OneDrive/Desktop/GD32VW553/V1_MQTT_OK/GD32VW55X_Wifi_BLE_SDK/GD32VW55x_RELEASE_V1.0.2/MSDK/lwip/lwip-2.1.2/src/core/ipv4\ip4.c ****         (ip4_addr_ismulticast(ip4_current_src_addr()))) {
 400              		.loc 1 604 10 is_stmt 0
 401 011c CE85     		mv	a1,s3
 402 011e 97000000 		call	ip4_addr_isbroadcast_u32
 402      E7800000 
 403              	.LVL31:
 604:C:/Users/stapi/OneDrive/Desktop/GD32VW553/V1_MQTT_OK/GD32VW55X_Wifi_BLE_SDK/GD32VW55x_RELEASE_V1.0.2/MSDK/lwip/lwip-2.1.2/src/core/ipv4\ip4.c ****         (ip4_addr_ismulticast(ip4_current_src_addr()))) {
 404              		.loc 1 604 8
 405 0126 E31B05EE 		bne	a0,zero,.L42
 605:C:/Users/stapi/OneDrive/Desktop/GD32VW553/V1_MQTT_OK/GD32VW55X_Wifi_BLE_SDK/GD32VW55x_RELEASE_V1.0.2/MSDK/lwip/lwip-2.1.2/src/core/ipv4\ip4.c ****       /* packet source is not valid */
 406              		.loc 1 605 10 discriminator 1
 407 012a 9C48     		lw	a5,16(s1)
 604:C:/Users/stapi/OneDrive/Desktop/GD32VW553/V1_MQTT_OK/GD32VW55X_Wifi_BLE_SDK/GD32VW55x_RELEASE_V1.0.2/MSDK/lwip/lwip-2.1.2/src/core/ipv4\ip4.c ****         (ip4_addr_ismulticast(ip4_current_src_addr()))) {
 408              		.loc 1 604 61 discriminator 1
 409 012c 1307000E 		li	a4,224
 605:C:/Users/stapi/OneDrive/Desktop/GD32VW553/V1_MQTT_OK/GD32VW55X_Wifi_BLE_SDK/GD32VW55x_RELEASE_V1.0.2/MSDK/lwip/lwip-2.1.2/src/core/ipv4\ip4.c ****       /* packet source is not valid */
 410              		.loc 1 605 10 discriminator 1
 411 0130 93F7070F 		andi	a5,a5,240
 604:C:/Users/stapi/OneDrive/Desktop/GD32VW553/V1_MQTT_OK/GD32VW55X_Wifi_BLE_SDK/GD32VW55x_RELEASE_V1.0.2/MSDK/lwip/lwip-2.1.2/src/core/ipv4\ip4.c ****         (ip4_addr_ismulticast(ip4_current_src_addr()))) {
 412              		.loc 1 604 61 discriminator 1
 413 0134 E384E7EE 		beq	a5,a4,.L42
 414              	.LVL32:
 415              	.L57:
 618:C:/Users/stapi/OneDrive/Desktop/GD32VW553/V1_MQTT_OK/GD32VW55X_Wifi_BLE_SDK/GD32VW55x_RELEASE_V1.0.2/MSDK/lwip/lwip-2.1.2/src/core/ipv4\ip4.c ****     /* packet not for us, route or discard */
 416              		.loc 1 618 3 is_stmt 1
 618:C:/Users/stapi/OneDrive/Desktop/GD32VW553/V1_MQTT_OK/GD32VW55X_Wifi_BLE_SDK/GD32VW55x_RELEASE_V1.0.2/MSDK/lwip/lwip-2.1.2/src/core/ipv4\ip4.c ****     /* packet not for us, route or discard */
 417              		.loc 1 618 6 is_stmt 0
 418 0138 63160A00 		bne	s4,zero,.L51
 419 013c C5B5     		j	.L42
 420              	.LVL33:
 421              	.L49:
 596:C:/Users/stapi/OneDrive/Desktop/GD32VW553/V1_MQTT_OK/GD32VW55X_Wifi_BLE_SDK/GD32VW55x_RELEASE_V1.0.2/MSDK/lwip/lwip-2.1.2/src/core/ipv4\ip4.c **** #if IP_ACCEPT_LINK_LAYER_ADDRESSING
 422              		.loc 1 596 3 is_stmt 1 discriminator 1
 596:C:/Users/stapi/OneDrive/Desktop/GD32VW553/V1_MQTT_OK/GD32VW55X_Wifi_BLE_SDK/GD32VW55x_RELEASE_V1.0.2/MSDK/lwip/lwip-2.1.2/src/core/ipv4\ip4.c **** #if IP_ACCEPT_LINK_LAYER_ADDRESSING
 423              		.loc 1 596 6 is_stmt 0 discriminator 1
 424 013e 9C48     		lw	a5,16(s1)
 425 0140 4E8A     		mv	s4,s3
 426 0142 F1FB     		bne	a5,zero,.L50
 427              	.LVL34:
 428              	.L51:
 637:C:/Users/stapi/OneDrive/Desktop/GD32VW553/V1_MQTT_OK/GD32VW55X_Wifi_BLE_SDK/GD32VW55x_RELEASE_V1.0.2/MSDK/lwip/lwip-2.1.2/src/core/ipv4\ip4.c **** #if IP_REASSEMBLY /* packet fragment reassembly code present? */
 429              		.loc 1 637 3 is_stmt 1
 637:C:/Users/stapi/OneDrive/Desktop/GD32VW553/V1_MQTT_OK/GD32VW55X_Wifi_BLE_SDK/GD32VW55x_RELEASE_V1.0.2/MSDK/lwip/lwip-2.1.2/src/core/ipv4\ip4.c **** #if IP_REASSEMBLY /* packet fragment reassembly code present? */
 430              		.loc 1 637 8 is_stmt 0
 431 0144 83476900 		lbu	a5,6(s2)
 432 0148 03477900 		lbu	a4,7(s2)
 637:C:/Users/stapi/OneDrive/Desktop/GD32VW553/V1_MQTT_OK/GD32VW55X_Wifi_BLE_SDK/GD32VW55x_RELEASE_V1.0.2/MSDK/lwip/lwip-2.1.2/src/core/ipv4\ip4.c **** #if IP_REASSEMBLY /* packet fragment reassembly code present? */
 433              		.loc 1 637 6
 434 014c 93F7F703 		andi	a5,a5,63
 637:C:/Users/stapi/OneDrive/Desktop/GD32VW553/V1_MQTT_OK/GD32VW55X_Wifi_BLE_SDK/GD32VW55x_RELEASE_V1.0.2/MSDK/lwip/lwip-2.1.2/src/core/ipv4\ip4.c **** #if IP_REASSEMBLY /* packet fragment reassembly code present? */
 435              		.loc 1 637 8
 436 0150 2207     		slli	a4,a4,8
 637:C:/Users/stapi/OneDrive/Desktop/GD32VW553/V1_MQTT_OK/GD32VW55X_Wifi_BLE_SDK/GD32VW55x_RELEASE_V1.0.2/MSDK/lwip/lwip-2.1.2/src/core/ipv4\ip4.c **** #if IP_REASSEMBLY /* packet fragment reassembly code present? */
 437              		.loc 1 637 6
 438 0152 D98F     		or	a5,a5,a4
 439 0154 99CB     		beq	a5,zero,.L58
 640:C:/Users/stapi/OneDrive/Desktop/GD32VW553/V1_MQTT_OK/GD32VW55X_Wifi_BLE_SDK/GD32VW55x_RELEASE_V1.0.2/MSDK/lwip/lwip-2.1.2/src/core/ipv4\ip4.c ****     /* reassemble the packet*/
 440              		.loc 1 640 202 is_stmt 1
 642:C:/Users/stapi/OneDrive/Desktop/GD32VW553/V1_MQTT_OK/GD32VW55X_Wifi_BLE_SDK/GD32VW55x_RELEASE_V1.0.2/MSDK/lwip/lwip-2.1.2/src/core/ipv4\ip4.c ****     /* packet not fully reassembled yet? */
 441              		.loc 1 642 5
 642:C:/Users/stapi/OneDrive/Desktop/GD32VW553/V1_MQTT_OK/GD32VW55X_Wifi_BLE_SDK/GD32VW55x_RELEASE_V1.0.2/MSDK/lwip/lwip-2.1.2/src/core/ipv4\ip4.c ****     /* packet not fully reassembled yet? */
 442              		.loc 1 642 9 is_stmt 0
 443 0156 2285     		mv	a0,s0
 444 0158 97000000 		call	ip4_reass
 444      E7800000 
 445              	.LVL35:
 446 0160 2A84     		mv	s0,a0
 447              	.LVL36:
 644:C:/Users/stapi/OneDrive/Desktop/GD32VW553/V1_MQTT_OK/GD32VW55X_Wifi_BLE_SDK/GD32VW55x_RELEASE_V1.0.2/MSDK/lwip/lwip-2.1.2/src/core/ipv4\ip4.c ****       return ERR_OK;
 448              		.loc 1 644 5 is_stmt 1
 644:C:/Users/stapi/OneDrive/Desktop/GD32VW553/V1_MQTT_OK/GD32VW55X_Wifi_BLE_SDK/GD32VW55x_RELEASE_V1.0.2/MSDK/lwip/lwip-2.1.2/src/core/ipv4\ip4.c ****       return ERR_OK;
 449              		.loc 1 644 8 is_stmt 0
 450 0162 E30205EC 		beq	a0,zero,.L39
 647:C:/Users/stapi/OneDrive/Desktop/GD32VW553/V1_MQTT_OK/GD32VW55X_Wifi_BLE_SDK/GD32VW55x_RELEASE_V1.0.2/MSDK/lwip/lwip-2.1.2/src/core/ipv4\ip4.c **** #else /* IP_REASSEMBLY == 0, no packet fragment reassembly code present */
 451              		.loc 1 647 5 is_stmt 1
 647:C:/Users/stapi/OneDrive/Desktop/GD32VW553/V1_MQTT_OK/GD32VW55X_Wifi_BLE_SDK/GD32VW55x_RELEASE_V1.0.2/MSDK/lwip/lwip-2.1.2/src/core/ipv4\ip4.c **** #else /* IP_REASSEMBLY == 0, no packet fragment reassembly code present */
 452              		.loc 1 647 11 is_stmt 0
 453 0166 03294500 		lw	s2,4(a0)
 454              	.LVL37:
 455              	.L58:
 679:C:/Users/stapi/OneDrive/Desktop/GD32VW553/V1_MQTT_OK/GD32VW55X_Wifi_BLE_SDK/GD32VW55x_RELEASE_V1.0.2/MSDK/lwip/lwip-2.1.2/src/core/ipv4\ip4.c ****   ip4_debug_print(p);
 456              		.loc 1 679 43 is_stmt 1
 680:C:/Users/stapi/OneDrive/Desktop/GD32VW553/V1_MQTT_OK/GD32VW55X_Wifi_BLE_SDK/GD32VW55x_RELEASE_V1.0.2/MSDK/lwip/lwip-2.1.2/src/core/ipv4\ip4.c ****   LWIP_DEBUGF(IP_DEBUG, ("ip4_input: p->len %"U16_F" p->tot_len %"U16_F"\n", p->len, p->tot_len));
 457              		.loc 1 680 21
 681:C:/Users/stapi/OneDrive/Desktop/GD32VW553/V1_MQTT_OK/GD32VW55X_Wifi_BLE_SDK/GD32VW55x_RELEASE_V1.0.2/MSDK/lwip/lwip-2.1.2/src/core/ipv4\ip4.c **** 
 458              		.loc 1 681 98
 683:C:/Users/stapi/OneDrive/Desktop/GD32VW553/V1_MQTT_OK/GD32VW55X_Wifi_BLE_SDK/GD32VW55x_RELEASE_V1.0.2/MSDK/lwip/lwip-2.1.2/src/core/ipv4\ip4.c ****   ip_data.current_input_netif = inp;
 459              		.loc 1 683 3
 683:C:/Users/stapi/OneDrive/Desktop/GD32VW553/V1_MQTT_OK/GD32VW55X_Wifi_BLE_SDK/GD32VW55x_RELEASE_V1.0.2/MSDK/lwip/lwip-2.1.2/src/core/ipv4\ip4.c ****   ip_data.current_input_netif = inp;
 460              		.loc 1 683 25 is_stmt 0
 461 016a 23A04401 		sw	s4,0(s1)
 684:C:/Users/stapi/OneDrive/Desktop/GD32VW553/V1_MQTT_OK/GD32VW55X_Wifi_BLE_SDK/GD32VW55x_RELEASE_V1.0.2/MSDK/lwip/lwip-2.1.2/src/core/ipv4\ip4.c ****   ip_data.current_ip4_header = iphdr;
 462              		.loc 1 684 3 is_stmt 1
 684:C:/Users/stapi/OneDrive/Desktop/GD32VW553/V1_MQTT_OK/GD32VW55X_Wifi_BLE_SDK/GD32VW55x_RELEASE_V1.0.2/MSDK/lwip/lwip-2.1.2/src/core/ipv4\ip4.c ****   ip_data.current_ip4_header = iphdr;
 463              		.loc 1 684 31 is_stmt 0
 464 016e 23A23401 		sw	s3,4(s1)
 685:C:/Users/stapi/OneDrive/Desktop/GD32VW553/V1_MQTT_OK/GD32VW55X_Wifi_BLE_SDK/GD32VW55x_RELEASE_V1.0.2/MSDK/lwip/lwip-2.1.2/src/core/ipv4\ip4.c ****   ip_data.current_ip_header_tot_len = IPH_HL_BYTES(iphdr);
 465              		.loc 1 685 3 is_stmt 1
 685:C:/Users/stapi/OneDrive/Desktop/GD32VW553/V1_MQTT_OK/GD32VW55X_Wifi_BLE_SDK/GD32VW55x_RELEASE_V1.0.2/MSDK/lwip/lwip-2.1.2/src/core/ipv4\ip4.c ****   ip_data.current_ip_header_tot_len = IPH_HL_BYTES(iphdr);
 466              		.loc 1 685 30 is_stmt 0
 467 0172 23A42401 		sw	s2,8(s1)
 686:C:/Users/stapi/OneDrive/Desktop/GD32VW553/V1_MQTT_OK/GD32VW55X_Wifi_BLE_SDK/GD32VW55x_RELEASE_V1.0.2/MSDK/lwip/lwip-2.1.2/src/core/ipv4\ip4.c **** 
 468              		.loc 1 686 3 is_stmt 1
 686:C:/Users/stapi/OneDrive/Desktop/GD32VW553/V1_MQTT_OK/GD32VW55X_Wifi_BLE_SDK/GD32VW55x_RELEASE_V1.0.2/MSDK/lwip/lwip-2.1.2/src/core/ipv4\ip4.c **** 
 469              		.loc 1 686 39 is_stmt 0
 470 0176 83470900 		lbu	a5,0(s2)
 690:C:/Users/stapi/OneDrive/Desktop/GD32VW553/V1_MQTT_OK/GD32VW55X_Wifi_BLE_SDK/GD32VW55x_RELEASE_V1.0.2/MSDK/lwip/lwip-2.1.2/src/core/ipv4\ip4.c ****   if (raw_status != RAW_INPUT_EATEN)
 471              		.loc 1 690 16
 472 017a CE85     		mv	a1,s3
 473 017c 2285     		mv	a0,s0
 686:C:/Users/stapi/OneDrive/Desktop/GD32VW553/V1_MQTT_OK/GD32VW55X_Wifi_BLE_SDK/GD32VW55x_RELEASE_V1.0.2/MSDK/lwip/lwip-2.1.2/src/core/ipv4\ip4.c **** 
 474              		.loc 1 686 39
 475 017e BD8B     		andi	a5,a5,15
 476 0180 8A07     		slli	a5,a5,2
 477 0182 2396F400 		sh	a5,12(s1)
 690:C:/Users/stapi/OneDrive/Desktop/GD32VW553/V1_MQTT_OK/GD32VW55X_Wifi_BLE_SDK/GD32VW55x_RELEASE_V1.0.2/MSDK/lwip/lwip-2.1.2/src/core/ipv4\ip4.c ****   if (raw_status != RAW_INPUT_EATEN)
 478              		.loc 1 690 3 is_stmt 1
 691:C:/Users/stapi/OneDrive/Desktop/GD32VW553/V1_MQTT_OK/GD32VW55X_Wifi_BLE_SDK/GD32VW55x_RELEASE_V1.0.2/MSDK/lwip/lwip-2.1.2/src/core/ipv4\ip4.c **** #endif /* LWIP_RAW */
 479              		.loc 1 691 6 is_stmt 0
 480 0186 854B     		li	s7,1
 690:C:/Users/stapi/OneDrive/Desktop/GD32VW553/V1_MQTT_OK/GD32VW55X_Wifi_BLE_SDK/GD32VW55x_RELEASE_V1.0.2/MSDK/lwip/lwip-2.1.2/src/core/ipv4\ip4.c ****   if (raw_status != RAW_INPUT_EATEN)
 481              		.loc 1 690 16
 482 0188 97000000 		call	raw_input
 482      E7800000 
 483              	.LVL38:
 484 0190 2A8B     		mv	s6,a0
 485              	.LVL39:
 691:C:/Users/stapi/OneDrive/Desktop/GD32VW553/V1_MQTT_OK/GD32VW55X_Wifi_BLE_SDK/GD32VW55x_RELEASE_V1.0.2/MSDK/lwip/lwip-2.1.2/src/core/ipv4\ip4.c **** #endif /* LWIP_RAW */
 486              		.loc 1 691 3 is_stmt 1
 691:C:/Users/stapi/OneDrive/Desktop/GD32VW553/V1_MQTT_OK/GD32VW55X_Wifi_BLE_SDK/GD32VW55x_RELEASE_V1.0.2/MSDK/lwip/lwip-2.1.2/src/core/ipv4\ip4.c **** #endif /* LWIP_RAW */
 487              		.loc 1 691 6 is_stmt 0
 488 0192 6300750F 		beq	a0,s7,.L59
 694:C:/Users/stapi/OneDrive/Desktop/GD32VW553/V1_MQTT_OK/GD32VW55X_Wifi_BLE_SDK/GD32VW55x_RELEASE_V1.0.2/MSDK/lwip/lwip-2.1.2/src/core/ipv4\ip4.c **** 
 489              		.loc 1 694 5 is_stmt 1
 490 0196 D685     		mv	a1,s5
 491 0198 2285     		mv	a0,s0
 492              	.LVL40:
 493 019a 97000000 		call	pbuf_remove_header
 493      E7800000 
 494              	.LVL41:
 696:C:/Users/stapi/OneDrive/Desktop/GD32VW553/V1_MQTT_OK/GD32VW55X_Wifi_BLE_SDK/GD32VW55x_RELEASE_V1.0.2/MSDK/lwip/lwip-2.1.2/src/core/ipv4\ip4.c **** #if LWIP_UDP
 495              		.loc 1 696 5
 696:C:/Users/stapi/OneDrive/Desktop/GD32VW553/V1_MQTT_OK/GD32VW55X_Wifi_BLE_SDK/GD32VW55x_RELEASE_V1.0.2/MSDK/lwip/lwip-2.1.2/src/core/ipv4\ip4.c **** #if LWIP_UDP
 496              		.loc 1 696 13 is_stmt 0
 497 01a2 83479900 		lbu	a5,9(s2)
 696:C:/Users/stapi/OneDrive/Desktop/GD32VW553/V1_MQTT_OK/GD32VW55X_Wifi_BLE_SDK/GD32VW55x_RELEASE_V1.0.2/MSDK/lwip/lwip-2.1.2/src/core/ipv4\ip4.c **** #if LWIP_UDP
 498              		.loc 1 696 5
 499 01a6 1947     		li	a4,6
 500 01a8 6382E70E 		beq	a5,a4,.L60
 501 01ac 636AF70A 		bgtu	a5,a4,.L61
 502 01b0 6385770F 		beq	a5,s7,.L62
 503 01b4 0947     		li	a4,2
 504 01b6 6389E70E 		beq	a5,a4,.L63
 505              	.L64:
 725:C:/Users/stapi/OneDrive/Desktop/GD32VW553/V1_MQTT_OK/GD32VW55X_Wifi_BLE_SDK/GD32VW55x_RELEASE_V1.0.2/MSDK/lwip/lwip-2.1.2/src/core/ipv4\ip4.c ****           MIB2_STATS_INC(mib2.ipindelivers);
 506              		.loc 1 725 9 is_stmt 1
 725:C:/Users/stapi/OneDrive/Desktop/GD32VW553/V1_MQTT_OK/GD32VW55X_Wifi_BLE_SDK/GD32VW55x_RELEASE_V1.0.2/MSDK/lwip/lwip-2.1.2/src/core/ipv4\ip4.c ****           MIB2_STATS_INC(mib2.ipindelivers);
 507              		.loc 1 725 12 is_stmt 0
 508 01ba 8947     		li	a5,2
 509 01bc 630CFB02 		beq	s6,a5,.L66
 732:C:/Users/stapi/OneDrive/Desktop/GD32VW553/V1_MQTT_OK/GD32VW55X_Wifi_BLE_SDK/GD32VW55x_RELEASE_V1.0.2/MSDK/lwip/lwip-2.1.2/src/core/ipv4\ip4.c ****               !ip4_addr_ismulticast(ip4_current_dest_addr())) {
 510              		.loc 1 732 11 is_stmt 1
 732:C:/Users/stapi/OneDrive/Desktop/GD32VW553/V1_MQTT_OK/GD32VW55X_Wifi_BLE_SDK/GD32VW55x_RELEASE_V1.0.2/MSDK/lwip/lwip-2.1.2/src/core/ipv4\ip4.c ****               !ip4_addr_ismulticast(ip4_current_dest_addr())) {
 511              		.loc 1 732 16 is_stmt 0
 512 01c0 C848     		lw	a0,20(s1)
 513 01c2 D285     		mv	a1,s4
 514 01c4 97000000 		call	ip4_addr_isbroadcast_u32
 514      E7800000 
 515              	.LVL42:
 732:C:/Users/stapi/OneDrive/Desktop/GD32VW553/V1_MQTT_OK/GD32VW55X_Wifi_BLE_SDK/GD32VW55x_RELEASE_V1.0.2/MSDK/lwip/lwip-2.1.2/src/core/ipv4\ip4.c ****               !ip4_addr_ismulticast(ip4_current_dest_addr())) {
 516              		.loc 1 732 14
 517 01cc 05E5     		bne	a0,zero,.L66
 733:C:/Users/stapi/OneDrive/Desktop/GD32VW553/V1_MQTT_OK/GD32VW55X_Wifi_BLE_SDK/GD32VW55x_RELEASE_V1.0.2/MSDK/lwip/lwip-2.1.2/src/core/ipv4\ip4.c ****             pbuf_header_force(p, (s16_t)iphdr_hlen); /* Move to ip header, no check necessary. */
 518              		.loc 1 733 16 discriminator 1
 519 01ce DC48     		lw	a5,20(s1)
 732:C:/Users/stapi/OneDrive/Desktop/GD32VW553/V1_MQTT_OK/GD32VW55X_Wifi_BLE_SDK/GD32VW55x_RELEASE_V1.0.2/MSDK/lwip/lwip-2.1.2/src/core/ipv4\ip4.c ****               !ip4_addr_ismulticast(ip4_current_dest_addr())) {
 520              		.loc 1 732 69 discriminator 1
 521 01d0 1307000E 		li	a4,224
 733:C:/Users/stapi/OneDrive/Desktop/GD32VW553/V1_MQTT_OK/GD32VW55X_Wifi_BLE_SDK/GD32VW55x_RELEASE_V1.0.2/MSDK/lwip/lwip-2.1.2/src/core/ipv4\ip4.c ****             pbuf_header_force(p, (s16_t)iphdr_hlen); /* Move to ip header, no check necessary. */
 522              		.loc 1 733 16 discriminator 1
 523 01d4 93F7070F 		andi	a5,a5,240
 732:C:/Users/stapi/OneDrive/Desktop/GD32VW553/V1_MQTT_OK/GD32VW55X_Wifi_BLE_SDK/GD32VW55x_RELEASE_V1.0.2/MSDK/lwip/lwip-2.1.2/src/core/ipv4\ip4.c ****               !ip4_addr_ismulticast(ip4_current_dest_addr())) {
 524              		.loc 1 732 69 discriminator 1
 525 01d8 638EE700 		beq	a5,a4,.L66
 734:C:/Users/stapi/OneDrive/Desktop/GD32VW553/V1_MQTT_OK/GD32VW55X_Wifi_BLE_SDK/GD32VW55x_RELEASE_V1.0.2/MSDK/lwip/lwip-2.1.2/src/core/ipv4\ip4.c ****             icmp_dest_unreach(p, ICMP_DUR_PROTO);
 526              		.loc 1 734 13 is_stmt 1
 527 01dc D685     		mv	a1,s5
 528 01de 2285     		mv	a0,s0
 529 01e0 97000000 		call	pbuf_header_force
 529      E7800000 
 530              	.LVL43:
 735:C:/Users/stapi/OneDrive/Desktop/GD32VW553/V1_MQTT_OK/GD32VW55X_Wifi_BLE_SDK/GD32VW55x_RELEASE_V1.0.2/MSDK/lwip/lwip-2.1.2/src/core/ipv4\ip4.c ****           }
 531              		.loc 1 735 13
 532 01e8 8945     		li	a1,2
 533 01ea 2285     		mv	a0,s0
 534 01ec 97000000 		call	icmp_dest_unreach
 534      E7800000 
 535              	.LVL44:
 536              	.L66:
 739:C:/Users/stapi/OneDrive/Desktop/GD32VW553/V1_MQTT_OK/GD32VW55X_Wifi_BLE_SDK/GD32VW55x_RELEASE_V1.0.2/MSDK/lwip/lwip-2.1.2/src/core/ipv4\ip4.c **** 
 537              		.loc 1 739 129
 741:C:/Users/stapi/OneDrive/Desktop/GD32VW553/V1_MQTT_OK/GD32VW55X_Wifi_BLE_SDK/GD32VW55x_RELEASE_V1.0.2/MSDK/lwip/lwip-2.1.2/src/core/ipv4\ip4.c ****           IP_STATS_INC(ip.drop);
 538              		.loc 1 741 35
 742:C:/Users/stapi/OneDrive/Desktop/GD32VW553/V1_MQTT_OK/GD32VW55X_Wifi_BLE_SDK/GD32VW55x_RELEASE_V1.0.2/MSDK/lwip/lwip-2.1.2/src/core/ipv4\ip4.c ****           MIB2_STATS_INC(mib2.ipinunknownprotos);
 539              		.loc 1 742 32
 743:C:/Users/stapi/OneDrive/Desktop/GD32VW553/V1_MQTT_OK/GD32VW55X_Wifi_BLE_SDK/GD32VW55x_RELEASE_V1.0.2/MSDK/lwip/lwip-2.1.2/src/core/ipv4\ip4.c ****         }
 540              		.loc 1 743 49
 745:C:/Users/stapi/OneDrive/Desktop/GD32VW553/V1_MQTT_OK/GD32VW55X_Wifi_BLE_SDK/GD32VW55x_RELEASE_V1.0.2/MSDK/lwip/lwip-2.1.2/src/core/ipv4\ip4.c ****         break;
 541              		.loc 1 745 9
 542 01f4 2285     		mv	a0,s0
 543 01f6 97000000 		call	pbuf_free
 543      E7800000 
 544              	.LVL45:
 746:C:/Users/stapi/OneDrive/Desktop/GD32VW553/V1_MQTT_OK/GD32VW55X_Wifi_BLE_SDK/GD32VW55x_RELEASE_V1.0.2/MSDK/lwip/lwip-2.1.2/src/core/ipv4\ip4.c ****     }
 545              		.loc 1 746 9
 546 01fe 95A8     		j	.L59
 547              	.LVL46:
 548              	.L44:
 543:C:/Users/stapi/OneDrive/Desktop/GD32VW553/V1_MQTT_OK/GD32VW55X_Wifi_BLE_SDK/GD32VW55x_RELEASE_V1.0.2/MSDK/lwip/lwip-2.1.2/src/core/ipv4\ip4.c ****       netif = inp;
 549              		.loc 1 543 5
 543:C:/Users/stapi/OneDrive/Desktop/GD32VW553/V1_MQTT_OK/GD32VW55X_Wifi_BLE_SDK/GD32VW55x_RELEASE_V1.0.2/MSDK/lwip/lwip-2.1.2/src/core/ipv4\ip4.c ****       netif = inp;
 550              		.loc 1 543 9 is_stmt 0
 551 0200 4E85     		mv	a0,s3
 552 0202 97000000 		call	ip4_input_accept
 552      E7800000 
 553              	.LVL47:
 543:C:/Users/stapi/OneDrive/Desktop/GD32VW553/V1_MQTT_OK/GD32VW55X_Wifi_BLE_SDK/GD32VW55x_RELEASE_V1.0.2/MSDK/lwip/lwip-2.1.2/src/core/ipv4\ip4.c ****       netif = inp;
 554              		.loc 1 543 8
 555 020a 0DE9     		bne	a0,zero,.L52
 546:C:/Users/stapi/OneDrive/Desktop/GD32VW553/V1_MQTT_OK/GD32VW55X_Wifi_BLE_SDK/GD32VW55x_RELEASE_V1.0.2/MSDK/lwip/lwip-2.1.2/src/core/ipv4\ip4.c **** #if !LWIP_NETIF_LOOPBACK || LWIP_HAVE_LOOPIF
 556              		.loc 1 546 7 is_stmt 1
 557              	.LVL48:
 551:C:/Users/stapi/OneDrive/Desktop/GD32VW553/V1_MQTT_OK/GD32VW55X_Wifi_BLE_SDK/GD32VW55x_RELEASE_V1.0.2/MSDK/lwip/lwip-2.1.2/src/core/ipv4\ip4.c **** #endif /* !LWIP_NETIF_LOOPBACK || LWIP_HAVE_LOOPIF */
 558              		.loc 1 551 7
 551:C:/Users/stapi/OneDrive/Desktop/GD32VW553/V1_MQTT_OK/GD32VW55X_Wifi_BLE_SDK/GD32VW55x_RELEASE_V1.0.2/MSDK/lwip/lwip-2.1.2/src/core/ipv4\ip4.c **** #endif /* !LWIP_NETIF_LOOPBACK || LWIP_HAVE_LOOPIF */
 559              		.loc 1 551 12 is_stmt 0
 560 020c 03C74401 		lbu	a4,20(s1)
 551:C:/Users/stapi/OneDrive/Desktop/GD32VW553/V1_MQTT_OK/GD32VW55X_Wifi_BLE_SDK/GD32VW55x_RELEASE_V1.0.2/MSDK/lwip/lwip-2.1.2/src/core/ipv4\ip4.c **** #endif /* !LWIP_NETIF_LOOPBACK || LWIP_HAVE_LOOPIF */
 561              		.loc 1 551 10
 562 0210 9307F007 		li	a5,127
 563 0214 E309F7EC 		beq	a4,a5,.L48
 555:C:/Users/stapi/OneDrive/Desktop/GD32VW553/V1_MQTT_OK/GD32VW55X_Wifi_BLE_SDK/GD32VW55x_RELEASE_V1.0.2/MSDK/lwip/lwip-2.1.2/src/core/ipv4\ip4.c ****           if (netif == inp) {
 564              		.loc 1 555 9 is_stmt 1
 565 0218 B7070000 		lui	a5,%hi(netif_list)
 566 021c 03AA0700 		lw	s4,%lo(netif_list)(a5)
 567              	.LVL49:
 568              	.L53:
 555:C:/Users/stapi/OneDrive/Desktop/GD32VW553/V1_MQTT_OK/GD32VW55X_Wifi_BLE_SDK/GD32VW55x_RELEASE_V1.0.2/MSDK/lwip/lwip-2.1.2/src/core/ipv4\ip4.c ****           if (netif == inp) {
 569              		.loc 1 555 9 discriminator 1
 570 0220 E3030AEC 		beq	s4,zero,.L48
 556:C:/Users/stapi/OneDrive/Desktop/GD32VW553/V1_MQTT_OK/GD32VW55X_Wifi_BLE_SDK/GD32VW55x_RELEASE_V1.0.2/MSDK/lwip/lwip-2.1.2/src/core/ipv4\ip4.c ****             /* we checked that before already */
 571              		.loc 1 556 11
 556:C:/Users/stapi/OneDrive/Desktop/GD32VW553/V1_MQTT_OK/GD32VW55X_Wifi_BLE_SDK/GD32VW55x_RELEASE_V1.0.2/MSDK/lwip/lwip-2.1.2/src/core/ipv4\ip4.c ****             /* we checked that before already */
 572              		.loc 1 556 14 is_stmt 0
 573 0224 63153A01 		bne	s4,s3,.L54
 574              	.L55:
 555:C:/Users/stapi/OneDrive/Desktop/GD32VW553/V1_MQTT_OK/GD32VW55X_Wifi_BLE_SDK/GD32VW55x_RELEASE_V1.0.2/MSDK/lwip/lwip-2.1.2/src/core/ipv4\ip4.c ****           if (netif == inp) {
 575              		.loc 1 555 9 is_stmt 1
 576 0228 032A0A00 		lw	s4,0(s4)
 577              	.LVL50:
 578 022c D5BF     		j	.L53
 579              	.L54:
 560:C:/Users/stapi/OneDrive/Desktop/GD32VW553/V1_MQTT_OK/GD32VW55X_Wifi_BLE_SDK/GD32VW55x_RELEASE_V1.0.2/MSDK/lwip/lwip-2.1.2/src/core/ipv4\ip4.c ****             break;
 580              		.loc 1 560 11
 560:C:/Users/stapi/OneDrive/Desktop/GD32VW553/V1_MQTT_OK/GD32VW55X_Wifi_BLE_SDK/GD32VW55x_RELEASE_V1.0.2/MSDK/lwip/lwip-2.1.2/src/core/ipv4\ip4.c ****             break;
 581              		.loc 1 560 15 is_stmt 0
 582 022e 5285     		mv	a0,s4
 583 0230 97000000 		call	ip4_input_accept
 583      E7800000 
 584              	.LVL51:
 560:C:/Users/stapi/OneDrive/Desktop/GD32VW553/V1_MQTT_OK/GD32VW55X_Wifi_BLE_SDK/GD32VW55x_RELEASE_V1.0.2/MSDK/lwip/lwip-2.1.2/src/core/ipv4\ip4.c ****             break;
 585              		.loc 1 560 14
 586 0238 65D9     		beq	a0,zero,.L55
 587 023a F9BD     		j	.L47
 588              	.LVL52:
 589              	.L52:
 579:C:/Users/stapi/OneDrive/Desktop/GD32VW553/V1_MQTT_OK/GD32VW55X_Wifi_BLE_SDK/GD32VW55x_RELEASE_V1.0.2/MSDK/lwip/lwip-2.1.2/src/core/ipv4\ip4.c ****     /* remote port is DHCP server? */
 590              		.loc 1 579 3 is_stmt 1
 579:C:/Users/stapi/OneDrive/Desktop/GD32VW553/V1_MQTT_OK/GD32VW55X_Wifi_BLE_SDK/GD32VW55x_RELEASE_V1.0.2/MSDK/lwip/lwip-2.1.2/src/core/ipv4\ip4.c ****     /* remote port is DHCP server? */
 591              		.loc 1 579 6 is_stmt 0
 592 023c E39D09EC 		bne	s3,zero,.L50
 593 0240 5DB5     		j	.L48
 594              	.LVL53:
 595              	.L46:
 596              	.LBB14:
 582:C:/Users/stapi/OneDrive/Desktop/GD32VW553/V1_MQTT_OK/GD32VW55X_Wifi_BLE_SDK/GD32VW55x_RELEASE_V1.0.2/MSDK/lwip/lwip-2.1.2/src/core/ipv4\ip4.c ****       LWIP_DEBUGF(IP_DEBUG | LWIP_DBG_TRACE, ("ip4_input: UDP packet to DHCP client port %"U16_F"\n
 597              		.loc 1 582 7 is_stmt 1
 584:C:/Users/stapi/OneDrive/Desktop/GD32VW553/V1_MQTT_OK/GD32VW55X_Wifi_BLE_SDK/GD32VW55x_RELEASE_V1.0.2/MSDK/lwip/lwip-2.1.2/src/core/ipv4\ip4.c ****       if (IP_ACCEPT_LINK_LAYER_ADDRESSED_PORT(udphdr->dest)) {
 598              		.loc 1 584 73
 585:C:/Users/stapi/OneDrive/Desktop/GD32VW553/V1_MQTT_OK/GD32VW55X_Wifi_BLE_SDK/GD32VW55x_RELEASE_V1.0.2/MSDK/lwip/lwip-2.1.2/src/core/ipv4\ip4.c ****         LWIP_DEBUGF(IP_DEBUG | LWIP_DBG_TRACE, ("ip4_input: DHCP packet accepted.\n"));
 599              		.loc 1 585 7
 585:C:/Users/stapi/OneDrive/Desktop/GD32VW553/V1_MQTT_OK/GD32VW55X_Wifi_BLE_SDK/GD32VW55x_RELEASE_V1.0.2/MSDK/lwip/lwip-2.1.2/src/core/ipv4\ip4.c ****         LWIP_DEBUGF(IP_DEBUG | LWIP_DBG_TRACE, ("ip4_input: DHCP packet accepted.\n"));
 600              		.loc 1 585 11 is_stmt 0
 601 0242 33075901 		add	a4,s2,s5
 602 0246 83473700 		lbu	a5,3(a4)
 603 024a 83462700 		lbu	a3,2(a4)
 585:C:/Users/stapi/OneDrive/Desktop/GD32VW553/V1_MQTT_OK/GD32VW55X_Wifi_BLE_SDK/GD32VW55x_RELEASE_V1.0.2/MSDK/lwip/lwip-2.1.2/src/core/ipv4\ip4.c ****         LWIP_DEBUGF(IP_DEBUG | LWIP_DBG_TRACE, ("ip4_input: DHCP packet accepted.\n"));
 604              		.loc 1 585 10
 605 024e 1167     		li	a4,16384
 585:C:/Users/stapi/OneDrive/Desktop/GD32VW553/V1_MQTT_OK/GD32VW55X_Wifi_BLE_SDK/GD32VW55x_RELEASE_V1.0.2/MSDK/lwip/lwip-2.1.2/src/core/ipv4\ip4.c ****         LWIP_DEBUGF(IP_DEBUG | LWIP_DBG_TRACE, ("ip4_input: DHCP packet accepted.\n"));
 606              		.loc 1 585 11
 607 0250 A207     		slli	a5,a5,8
 585:C:/Users/stapi/OneDrive/Desktop/GD32VW553/V1_MQTT_OK/GD32VW55X_Wifi_BLE_SDK/GD32VW55x_RELEASE_V1.0.2/MSDK/lwip/lwip-2.1.2/src/core/ipv4\ip4.c ****         LWIP_DEBUGF(IP_DEBUG | LWIP_DBG_TRACE, ("ip4_input: DHCP packet accepted.\n"));
 608              		.loc 1 585 10
 609 0252 D58F     		or	a5,a5,a3
 610 0254 13070740 		addi	a4,a4,1024
 611 0258 E39CE7E8 		bne	a5,a4,.L88
 612 025c 4E8A     		mv	s4,s3
 613 025e E9BD     		j	.L57
 614              	.LVL54:
 615              	.L61:
 616              	.LBE14:
 696:C:/Users/stapi/OneDrive/Desktop/GD32VW553/V1_MQTT_OK/GD32VW55X_Wifi_BLE_SDK/GD32VW55x_RELEASE_V1.0.2/MSDK/lwip/lwip-2.1.2/src/core/ipv4\ip4.c **** #if LWIP_UDP
 617              		.loc 1 696 5
 618 0260 4547     		li	a4,17
 619 0262 E39CE7F4 		bne	a5,a4,.L64
 702:C:/Users/stapi/OneDrive/Desktop/GD32VW553/V1_MQTT_OK/GD32VW55X_Wifi_BLE_SDK/GD32VW55x_RELEASE_V1.0.2/MSDK/lwip/lwip-2.1.2/src/core/ipv4\ip4.c ****         udp_input(p, inp);
 620              		.loc 1 702 42 is_stmt 1
 703:C:/Users/stapi/OneDrive/Desktop/GD32VW553/V1_MQTT_OK/GD32VW55X_Wifi_BLE_SDK/GD32VW55x_RELEASE_V1.0.2/MSDK/lwip/lwip-2.1.2/src/core/ipv4\ip4.c ****         break;
 621              		.loc 1 703 9
 622 0266 CE85     		mv	a1,s3
 623 0268 2285     		mv	a0,s0
 624 026a 97000000 		call	udp_input
 624      E7800000 
 625              	.LVL55:
 704:C:/Users/stapi/OneDrive/Desktop/GD32VW553/V1_MQTT_OK/GD32VW55X_Wifi_BLE_SDK/GD32VW55x_RELEASE_V1.0.2/MSDK/lwip/lwip-2.1.2/src/core/ipv4\ip4.c **** #endif /* LWIP_UDP */
 626              		.loc 1 704 9
 627              	.L59:
 751:C:/Users/stapi/OneDrive/Desktop/GD32VW553/V1_MQTT_OK/GD32VW55X_Wifi_BLE_SDK/GD32VW55x_RELEASE_V1.0.2/MSDK/lwip/lwip-2.1.2/src/core/ipv4\ip4.c ****   ip_data.current_input_netif = NULL;
 628              		.loc 1 751 3
 751:C:/Users/stapi/OneDrive/Desktop/GD32VW553/V1_MQTT_OK/GD32VW55X_Wifi_BLE_SDK/GD32VW55x_RELEASE_V1.0.2/MSDK/lwip/lwip-2.1.2/src/core/ipv4\ip4.c ****   ip_data.current_input_netif = NULL;
 629              		.loc 1 751 25 is_stmt 0
 630 0272 23A00400 		sw	zero,0(s1)
 752:C:/Users/stapi/OneDrive/Desktop/GD32VW553/V1_MQTT_OK/GD32VW55X_Wifi_BLE_SDK/GD32VW55x_RELEASE_V1.0.2/MSDK/lwip/lwip-2.1.2/src/core/ipv4\ip4.c ****   ip_data.current_ip4_header = NULL;
 631              		.loc 1 752 3 is_stmt 1
 752:C:/Users/stapi/OneDrive/Desktop/GD32VW553/V1_MQTT_OK/GD32VW55X_Wifi_BLE_SDK/GD32VW55x_RELEASE_V1.0.2/MSDK/lwip/lwip-2.1.2/src/core/ipv4\ip4.c ****   ip_data.current_ip4_header = NULL;
 632              		.loc 1 752 31 is_stmt 0
 633 0276 23A20400 		sw	zero,4(s1)
 753:C:/Users/stapi/OneDrive/Desktop/GD32VW553/V1_MQTT_OK/GD32VW55X_Wifi_BLE_SDK/GD32VW55x_RELEASE_V1.0.2/MSDK/lwip/lwip-2.1.2/src/core/ipv4\ip4.c ****   ip_data.current_ip_header_tot_len = 0;
 634              		.loc 1 753 3 is_stmt 1
 753:C:/Users/stapi/OneDrive/Desktop/GD32VW553/V1_MQTT_OK/GD32VW55X_Wifi_BLE_SDK/GD32VW55x_RELEASE_V1.0.2/MSDK/lwip/lwip-2.1.2/src/core/ipv4\ip4.c ****   ip_data.current_ip_header_tot_len = 0;
 635              		.loc 1 753 30 is_stmt 0
 636 027a 23A40400 		sw	zero,8(s1)
 754:C:/Users/stapi/OneDrive/Desktop/GD32VW553/V1_MQTT_OK/GD32VW55X_Wifi_BLE_SDK/GD32VW55x_RELEASE_V1.0.2/MSDK/lwip/lwip-2.1.2/src/core/ipv4\ip4.c ****   ip4_addr_set_any(ip4_current_src_addr());
 637              		.loc 1 754 3 is_stmt 1
 754:C:/Users/stapi/OneDrive/Desktop/GD32VW553/V1_MQTT_OK/GD32VW55X_Wifi_BLE_SDK/GD32VW55x_RELEASE_V1.0.2/MSDK/lwip/lwip-2.1.2/src/core/ipv4\ip4.c ****   ip4_addr_set_any(ip4_current_src_addr());
 638              		.loc 1 754 37 is_stmt 0
 639 027e 23960400 		sh	zero,12(s1)
 755:C:/Users/stapi/OneDrive/Desktop/GD32VW553/V1_MQTT_OK/GD32VW55X_Wifi_BLE_SDK/GD32VW55x_RELEASE_V1.0.2/MSDK/lwip/lwip-2.1.2/src/core/ipv4\ip4.c ****   ip4_addr_set_any(ip4_current_dest_addr());
 640              		.loc 1 755 3 is_stmt 1
 641 0282 23A80400 		sw	zero,16(s1)
 756:C:/Users/stapi/OneDrive/Desktop/GD32VW553/V1_MQTT_OK/GD32VW55X_Wifi_BLE_SDK/GD32VW55x_RELEASE_V1.0.2/MSDK/lwip/lwip-2.1.2/src/core/ipv4\ip4.c **** 
 642              		.loc 1 756 3
 643 0286 23AA0400 		sw	zero,20(s1)
 758:C:/Users/stapi/OneDrive/Desktop/GD32VW553/V1_MQTT_OK/GD32VW55X_Wifi_BLE_SDK/GD32VW55x_RELEASE_V1.0.2/MSDK/lwip/lwip-2.1.2/src/core/ipv4\ip4.c **** }
 644              		.loc 1 758 3
 758:C:/Users/stapi/OneDrive/Desktop/GD32VW553/V1_MQTT_OK/GD32VW55X_Wifi_BLE_SDK/GD32VW55x_RELEASE_V1.0.2/MSDK/lwip/lwip-2.1.2/src/core/ipv4\ip4.c **** }
 645              		.loc 1 758 10 is_stmt 0
 646 028a 71BB     		j	.L39
 647              	.L60:
 708:C:/Users/stapi/OneDrive/Desktop/GD32VW553/V1_MQTT_OK/GD32VW55X_Wifi_BLE_SDK/GD32VW55x_RELEASE_V1.0.2/MSDK/lwip/lwip-2.1.2/src/core/ipv4\ip4.c ****         tcp_input(p, inp);
 648              		.loc 1 708 42 is_stmt 1
 709:C:/Users/stapi/OneDrive/Desktop/GD32VW553/V1_MQTT_OK/GD32VW55X_Wifi_BLE_SDK/GD32VW55x_RELEASE_V1.0.2/MSDK/lwip/lwip-2.1.2/src/core/ipv4\ip4.c ****         break;
 649              		.loc 1 709 9
 650 028c CE85     		mv	a1,s3
 651 028e 2285     		mv	a0,s0
 652 0290 97000000 		call	tcp_input
 652      E7800000 
 653              	.LVL56:
 710:C:/Users/stapi/OneDrive/Desktop/GD32VW553/V1_MQTT_OK/GD32VW55X_Wifi_BLE_SDK/GD32VW55x_RELEASE_V1.0.2/MSDK/lwip/lwip-2.1.2/src/core/ipv4\ip4.c **** #endif /* LWIP_TCP */
 654              		.loc 1 710 9
 655 0298 E9BF     		j	.L59
 656              	.L62:
 714:C:/Users/stapi/OneDrive/Desktop/GD32VW553/V1_MQTT_OK/GD32VW55X_Wifi_BLE_SDK/GD32VW55x_RELEASE_V1.0.2/MSDK/lwip/lwip-2.1.2/src/core/ipv4\ip4.c ****         icmp_input(p, inp);
 657              		.loc 1 714 42
 715:C:/Users/stapi/OneDrive/Desktop/GD32VW553/V1_MQTT_OK/GD32VW55X_Wifi_BLE_SDK/GD32VW55x_RELEASE_V1.0.2/MSDK/lwip/lwip-2.1.2/src/core/ipv4\ip4.c ****         break;
 658              		.loc 1 715 9
 659 029a CE85     		mv	a1,s3
 660 029c 2285     		mv	a0,s0
 661 029e 97000000 		call	icmp_input
 661      E7800000 
 662              	.LVL57:
 716:C:/Users/stapi/OneDrive/Desktop/GD32VW553/V1_MQTT_OK/GD32VW55X_Wifi_BLE_SDK/GD32VW55x_RELEASE_V1.0.2/MSDK/lwip/lwip-2.1.2/src/core/ipv4\ip4.c **** #endif /* LWIP_ICMP */
 663              		.loc 1 716 9
 664 02a6 F1B7     		j	.L59
 665              	.L63:
 720:C:/Users/stapi/OneDrive/Desktop/GD32VW553/V1_MQTT_OK/GD32VW55X_Wifi_BLE_SDK/GD32VW55x_RELEASE_V1.0.2/MSDK/lwip/lwip-2.1.2/src/core/ipv4\ip4.c ****         break;
 666              		.loc 1 720 9
 667 02a8 37060000 		lui	a2,%hi(ip_data+20)
 668 02ac 13064601 		addi	a2,a2,%lo(ip_data+20)
 669 02b0 CE85     		mv	a1,s3
 670 02b2 2285     		mv	a0,s0
 671 02b4 97000000 		call	igmp_input
 671      E7800000 
 672              	.LVL58:
 721:C:/Users/stapi/OneDrive/Desktop/GD32VW553/V1_MQTT_OK/GD32VW55X_Wifi_BLE_SDK/GD32VW55x_RELEASE_V1.0.2/MSDK/lwip/lwip-2.1.2/src/core/ipv4\ip4.c **** #endif /* LWIP_IGMP */
 673              		.loc 1 721 9
 674 02bc 5DBF     		j	.L59
 675              		.cfi_endproc
 676              	.LFE7:
 678              		.section	.rodata.ip4_output_if_opt_src.str1.4,"aMS",@progbits,1
 679              		.align	2
 680              	.LC0:
 681 0000 433A2F55 		.string	"C:/Users/stapi/OneDrive/Desktop/GD32VW553/V1_MQTT_OK/GD32VW55X_Wifi_BLE_SDK/GD32VW55x_REL
 681      73657273 
 681      2F737461 
 681      70692F4F 
 681      6E654472 
 682 008e 0000     		.align	2
 683              	.LC1:
 684 0090 702D3E72 		.string	"p->ref == 1"
 684      6566203D 
 684      3D203100 
 685              		.align	2
 686              	.LC2:
 687 009c 41737365 		.string	"Assertion \"%s\" failed at line %d in %s\n"
 687      7274696F 
 687      6E202225 
 687      73222066 
 687      61696C65 
 688              		.align	2
 689              	.LC3:
 690 00c4 63686563 		.string	"check that first pbuf can hold struct ip_hdr"
 690      6B207468 
 690      61742066 
 690      69727374 
 690      20706275 
 691              		.section	.text.ip4_output_if_opt_src,"ax",@progbits
 692              		.align	1
 693              		.globl	ip4_output_if_opt_src
 695              	ip4_output_if_opt_src:
 696              	.LFB11:
 760:C:/Users/stapi/OneDrive/Desktop/GD32VW553/V1_MQTT_OK/GD32VW55X_Wifi_BLE_SDK/GD32VW55x_RELEASE_V1.0.2/MSDK/lwip/lwip-2.1.2/src/core/ipv4\ip4.c **** 
 761:C:/Users/stapi/OneDrive/Desktop/GD32VW553/V1_MQTT_OK/GD32VW55X_Wifi_BLE_SDK/GD32VW55x_RELEASE_V1.0.2/MSDK/lwip/lwip-2.1.2/src/core/ipv4\ip4.c **** /**
 762:C:/Users/stapi/OneDrive/Desktop/GD32VW553/V1_MQTT_OK/GD32VW55X_Wifi_BLE_SDK/GD32VW55x_RELEASE_V1.0.2/MSDK/lwip/lwip-2.1.2/src/core/ipv4\ip4.c ****  * Sends an IP packet on a network interface. This function constructs
 763:C:/Users/stapi/OneDrive/Desktop/GD32VW553/V1_MQTT_OK/GD32VW55X_Wifi_BLE_SDK/GD32VW55x_RELEASE_V1.0.2/MSDK/lwip/lwip-2.1.2/src/core/ipv4\ip4.c ****  * the IP header and calculates the IP header checksum. If the source
 764:C:/Users/stapi/OneDrive/Desktop/GD32VW553/V1_MQTT_OK/GD32VW55X_Wifi_BLE_SDK/GD32VW55x_RELEASE_V1.0.2/MSDK/lwip/lwip-2.1.2/src/core/ipv4\ip4.c ****  * IP address is NULL, the IP address of the outgoing network
 765:C:/Users/stapi/OneDrive/Desktop/GD32VW553/V1_MQTT_OK/GD32VW55X_Wifi_BLE_SDK/GD32VW55x_RELEASE_V1.0.2/MSDK/lwip/lwip-2.1.2/src/core/ipv4\ip4.c ****  * interface is filled in as source address.
 766:C:/Users/stapi/OneDrive/Desktop/GD32VW553/V1_MQTT_OK/GD32VW55X_Wifi_BLE_SDK/GD32VW55x_RELEASE_V1.0.2/MSDK/lwip/lwip-2.1.2/src/core/ipv4\ip4.c ****  * If the destination IP address is LWIP_IP_HDRINCL, p is assumed to already
 767:C:/Users/stapi/OneDrive/Desktop/GD32VW553/V1_MQTT_OK/GD32VW55X_Wifi_BLE_SDK/GD32VW55x_RELEASE_V1.0.2/MSDK/lwip/lwip-2.1.2/src/core/ipv4\ip4.c ****  * include an IP header and p->payload points to it instead of the data.
 768:C:/Users/stapi/OneDrive/Desktop/GD32VW553/V1_MQTT_OK/GD32VW55X_Wifi_BLE_SDK/GD32VW55x_RELEASE_V1.0.2/MSDK/lwip/lwip-2.1.2/src/core/ipv4\ip4.c ****  *
 769:C:/Users/stapi/OneDrive/Desktop/GD32VW553/V1_MQTT_OK/GD32VW55X_Wifi_BLE_SDK/GD32VW55x_RELEASE_V1.0.2/MSDK/lwip/lwip-2.1.2/src/core/ipv4\ip4.c ****  * @param p the packet to send (p->payload points to the data, e.g. next
 770:C:/Users/stapi/OneDrive/Desktop/GD32VW553/V1_MQTT_OK/GD32VW55X_Wifi_BLE_SDK/GD32VW55x_RELEASE_V1.0.2/MSDK/lwip/lwip-2.1.2/src/core/ipv4\ip4.c ****             protocol header; if dest == LWIP_IP_HDRINCL, p already includes an
 771:C:/Users/stapi/OneDrive/Desktop/GD32VW553/V1_MQTT_OK/GD32VW55X_Wifi_BLE_SDK/GD32VW55x_RELEASE_V1.0.2/MSDK/lwip/lwip-2.1.2/src/core/ipv4\ip4.c ****             IP header and p->payload points to that IP header)
 772:C:/Users/stapi/OneDrive/Desktop/GD32VW553/V1_MQTT_OK/GD32VW55X_Wifi_BLE_SDK/GD32VW55x_RELEASE_V1.0.2/MSDK/lwip/lwip-2.1.2/src/core/ipv4\ip4.c ****  * @param src the source IP address to send from (if src == IP4_ADDR_ANY, the
 773:C:/Users/stapi/OneDrive/Desktop/GD32VW553/V1_MQTT_OK/GD32VW55X_Wifi_BLE_SDK/GD32VW55x_RELEASE_V1.0.2/MSDK/lwip/lwip-2.1.2/src/core/ipv4\ip4.c ****  *         IP  address of the netif used to send is used as source address)
 774:C:/Users/stapi/OneDrive/Desktop/GD32VW553/V1_MQTT_OK/GD32VW55X_Wifi_BLE_SDK/GD32VW55x_RELEASE_V1.0.2/MSDK/lwip/lwip-2.1.2/src/core/ipv4\ip4.c ****  * @param dest the destination IP address to send the packet to
 775:C:/Users/stapi/OneDrive/Desktop/GD32VW553/V1_MQTT_OK/GD32VW55X_Wifi_BLE_SDK/GD32VW55x_RELEASE_V1.0.2/MSDK/lwip/lwip-2.1.2/src/core/ipv4\ip4.c ****  * @param ttl the TTL value to be set in the IP header
 776:C:/Users/stapi/OneDrive/Desktop/GD32VW553/V1_MQTT_OK/GD32VW55X_Wifi_BLE_SDK/GD32VW55x_RELEASE_V1.0.2/MSDK/lwip/lwip-2.1.2/src/core/ipv4\ip4.c ****  * @param tos the TOS value to be set in the IP header
 777:C:/Users/stapi/OneDrive/Desktop/GD32VW553/V1_MQTT_OK/GD32VW55X_Wifi_BLE_SDK/GD32VW55x_RELEASE_V1.0.2/MSDK/lwip/lwip-2.1.2/src/core/ipv4\ip4.c ****  * @param proto the PROTOCOL to be set in the IP header
 778:C:/Users/stapi/OneDrive/Desktop/GD32VW553/V1_MQTT_OK/GD32VW55X_Wifi_BLE_SDK/GD32VW55x_RELEASE_V1.0.2/MSDK/lwip/lwip-2.1.2/src/core/ipv4\ip4.c ****  * @param netif the netif on which to send this packet
 779:C:/Users/stapi/OneDrive/Desktop/GD32VW553/V1_MQTT_OK/GD32VW55X_Wifi_BLE_SDK/GD32VW55x_RELEASE_V1.0.2/MSDK/lwip/lwip-2.1.2/src/core/ipv4\ip4.c ****  * @return ERR_OK if the packet was sent OK
 780:C:/Users/stapi/OneDrive/Desktop/GD32VW553/V1_MQTT_OK/GD32VW55X_Wifi_BLE_SDK/GD32VW55x_RELEASE_V1.0.2/MSDK/lwip/lwip-2.1.2/src/core/ipv4\ip4.c ****  *         ERR_BUF if p doesn't have enough space for IP/LINK headers
 781:C:/Users/stapi/OneDrive/Desktop/GD32VW553/V1_MQTT_OK/GD32VW55X_Wifi_BLE_SDK/GD32VW55x_RELEASE_V1.0.2/MSDK/lwip/lwip-2.1.2/src/core/ipv4\ip4.c ****  *         returns errors returned by netif->output
 782:C:/Users/stapi/OneDrive/Desktop/GD32VW553/V1_MQTT_OK/GD32VW55X_Wifi_BLE_SDK/GD32VW55x_RELEASE_V1.0.2/MSDK/lwip/lwip-2.1.2/src/core/ipv4\ip4.c ****  *
 783:C:/Users/stapi/OneDrive/Desktop/GD32VW553/V1_MQTT_OK/GD32VW55X_Wifi_BLE_SDK/GD32VW55x_RELEASE_V1.0.2/MSDK/lwip/lwip-2.1.2/src/core/ipv4\ip4.c ****  * @note ip_id: RFC791 "some host may be able to simply use
 784:C:/Users/stapi/OneDrive/Desktop/GD32VW553/V1_MQTT_OK/GD32VW55X_Wifi_BLE_SDK/GD32VW55x_RELEASE_V1.0.2/MSDK/lwip/lwip-2.1.2/src/core/ipv4\ip4.c ****  *  unique identifiers independent of destination"
 785:C:/Users/stapi/OneDrive/Desktop/GD32VW553/V1_MQTT_OK/GD32VW55X_Wifi_BLE_SDK/GD32VW55x_RELEASE_V1.0.2/MSDK/lwip/lwip-2.1.2/src/core/ipv4\ip4.c ****  */
 786:C:/Users/stapi/OneDrive/Desktop/GD32VW553/V1_MQTT_OK/GD32VW55X_Wifi_BLE_SDK/GD32VW55x_RELEASE_V1.0.2/MSDK/lwip/lwip-2.1.2/src/core/ipv4\ip4.c **** err_t
 787:C:/Users/stapi/OneDrive/Desktop/GD32VW553/V1_MQTT_OK/GD32VW55X_Wifi_BLE_SDK/GD32VW55x_RELEASE_V1.0.2/MSDK/lwip/lwip-2.1.2/src/core/ipv4\ip4.c **** ip4_output_if(struct pbuf *p, const ip4_addr_t *src, const ip4_addr_t *dest,
 788:C:/Users/stapi/OneDrive/Desktop/GD32VW553/V1_MQTT_OK/GD32VW55X_Wifi_BLE_SDK/GD32VW55x_RELEASE_V1.0.2/MSDK/lwip/lwip-2.1.2/src/core/ipv4\ip4.c ****               u8_t ttl, u8_t tos,
 789:C:/Users/stapi/OneDrive/Desktop/GD32VW553/V1_MQTT_OK/GD32VW55X_Wifi_BLE_SDK/GD32VW55x_RELEASE_V1.0.2/MSDK/lwip/lwip-2.1.2/src/core/ipv4\ip4.c ****               u8_t proto, struct netif *netif)
 790:C:/Users/stapi/OneDrive/Desktop/GD32VW553/V1_MQTT_OK/GD32VW55X_Wifi_BLE_SDK/GD32VW55x_RELEASE_V1.0.2/MSDK/lwip/lwip-2.1.2/src/core/ipv4\ip4.c **** {
 791:C:/Users/stapi/OneDrive/Desktop/GD32VW553/V1_MQTT_OK/GD32VW55X_Wifi_BLE_SDK/GD32VW55x_RELEASE_V1.0.2/MSDK/lwip/lwip-2.1.2/src/core/ipv4\ip4.c **** #if IP_OPTIONS_SEND
 792:C:/Users/stapi/OneDrive/Desktop/GD32VW553/V1_MQTT_OK/GD32VW55X_Wifi_BLE_SDK/GD32VW55x_RELEASE_V1.0.2/MSDK/lwip/lwip-2.1.2/src/core/ipv4\ip4.c ****   return ip4_output_if_opt(p, src, dest, ttl, tos, proto, netif, NULL, 0);
 793:C:/Users/stapi/OneDrive/Desktop/GD32VW553/V1_MQTT_OK/GD32VW55X_Wifi_BLE_SDK/GD32VW55x_RELEASE_V1.0.2/MSDK/lwip/lwip-2.1.2/src/core/ipv4\ip4.c **** }
 794:C:/Users/stapi/OneDrive/Desktop/GD32VW553/V1_MQTT_OK/GD32VW55X_Wifi_BLE_SDK/GD32VW55x_RELEASE_V1.0.2/MSDK/lwip/lwip-2.1.2/src/core/ipv4\ip4.c **** 
 795:C:/Users/stapi/OneDrive/Desktop/GD32VW553/V1_MQTT_OK/GD32VW55X_Wifi_BLE_SDK/GD32VW55x_RELEASE_V1.0.2/MSDK/lwip/lwip-2.1.2/src/core/ipv4\ip4.c **** /**
 796:C:/Users/stapi/OneDrive/Desktop/GD32VW553/V1_MQTT_OK/GD32VW55X_Wifi_BLE_SDK/GD32VW55x_RELEASE_V1.0.2/MSDK/lwip/lwip-2.1.2/src/core/ipv4\ip4.c ****  * Same as ip_output_if() but with the possibility to include IP options:
 797:C:/Users/stapi/OneDrive/Desktop/GD32VW553/V1_MQTT_OK/GD32VW55X_Wifi_BLE_SDK/GD32VW55x_RELEASE_V1.0.2/MSDK/lwip/lwip-2.1.2/src/core/ipv4\ip4.c ****  *
 798:C:/Users/stapi/OneDrive/Desktop/GD32VW553/V1_MQTT_OK/GD32VW55X_Wifi_BLE_SDK/GD32VW55x_RELEASE_V1.0.2/MSDK/lwip/lwip-2.1.2/src/core/ipv4\ip4.c ****  * @ param ip_options pointer to the IP options, copied into the IP header
 799:C:/Users/stapi/OneDrive/Desktop/GD32VW553/V1_MQTT_OK/GD32VW55X_Wifi_BLE_SDK/GD32VW55x_RELEASE_V1.0.2/MSDK/lwip/lwip-2.1.2/src/core/ipv4\ip4.c ****  * @ param optlen length of ip_options
 800:C:/Users/stapi/OneDrive/Desktop/GD32VW553/V1_MQTT_OK/GD32VW55X_Wifi_BLE_SDK/GD32VW55x_RELEASE_V1.0.2/MSDK/lwip/lwip-2.1.2/src/core/ipv4\ip4.c ****  */
 801:C:/Users/stapi/OneDrive/Desktop/GD32VW553/V1_MQTT_OK/GD32VW55X_Wifi_BLE_SDK/GD32VW55x_RELEASE_V1.0.2/MSDK/lwip/lwip-2.1.2/src/core/ipv4\ip4.c **** err_t
 802:C:/Users/stapi/OneDrive/Desktop/GD32VW553/V1_MQTT_OK/GD32VW55X_Wifi_BLE_SDK/GD32VW55x_RELEASE_V1.0.2/MSDK/lwip/lwip-2.1.2/src/core/ipv4\ip4.c **** ip4_output_if_opt(struct pbuf *p, const ip4_addr_t *src, const ip4_addr_t *dest,
 803:C:/Users/stapi/OneDrive/Desktop/GD32VW553/V1_MQTT_OK/GD32VW55X_Wifi_BLE_SDK/GD32VW55x_RELEASE_V1.0.2/MSDK/lwip/lwip-2.1.2/src/core/ipv4\ip4.c ****                   u8_t ttl, u8_t tos, u8_t proto, struct netif *netif, void *ip_options,
 804:C:/Users/stapi/OneDrive/Desktop/GD32VW553/V1_MQTT_OK/GD32VW55X_Wifi_BLE_SDK/GD32VW55x_RELEASE_V1.0.2/MSDK/lwip/lwip-2.1.2/src/core/ipv4\ip4.c ****                   u16_t optlen)
 805:C:/Users/stapi/OneDrive/Desktop/GD32VW553/V1_MQTT_OK/GD32VW55X_Wifi_BLE_SDK/GD32VW55x_RELEASE_V1.0.2/MSDK/lwip/lwip-2.1.2/src/core/ipv4\ip4.c **** {
 806:C:/Users/stapi/OneDrive/Desktop/GD32VW553/V1_MQTT_OK/GD32VW55X_Wifi_BLE_SDK/GD32VW55x_RELEASE_V1.0.2/MSDK/lwip/lwip-2.1.2/src/core/ipv4\ip4.c **** #endif /* IP_OPTIONS_SEND */
 807:C:/Users/stapi/OneDrive/Desktop/GD32VW553/V1_MQTT_OK/GD32VW55X_Wifi_BLE_SDK/GD32VW55x_RELEASE_V1.0.2/MSDK/lwip/lwip-2.1.2/src/core/ipv4\ip4.c ****   const ip4_addr_t *src_used = src;
 808:C:/Users/stapi/OneDrive/Desktop/GD32VW553/V1_MQTT_OK/GD32VW55X_Wifi_BLE_SDK/GD32VW55x_RELEASE_V1.0.2/MSDK/lwip/lwip-2.1.2/src/core/ipv4\ip4.c ****   if (dest != LWIP_IP_HDRINCL) {
 809:C:/Users/stapi/OneDrive/Desktop/GD32VW553/V1_MQTT_OK/GD32VW55X_Wifi_BLE_SDK/GD32VW55x_RELEASE_V1.0.2/MSDK/lwip/lwip-2.1.2/src/core/ipv4\ip4.c ****     if (ip4_addr_isany(src)) {
 810:C:/Users/stapi/OneDrive/Desktop/GD32VW553/V1_MQTT_OK/GD32VW55X_Wifi_BLE_SDK/GD32VW55x_RELEASE_V1.0.2/MSDK/lwip/lwip-2.1.2/src/core/ipv4\ip4.c ****       src_used = netif_ip4_addr(netif);
 811:C:/Users/stapi/OneDrive/Desktop/GD32VW553/V1_MQTT_OK/GD32VW55X_Wifi_BLE_SDK/GD32VW55x_RELEASE_V1.0.2/MSDK/lwip/lwip-2.1.2/src/core/ipv4\ip4.c ****     }
 812:C:/Users/stapi/OneDrive/Desktop/GD32VW553/V1_MQTT_OK/GD32VW55X_Wifi_BLE_SDK/GD32VW55x_RELEASE_V1.0.2/MSDK/lwip/lwip-2.1.2/src/core/ipv4\ip4.c ****   }
 813:C:/Users/stapi/OneDrive/Desktop/GD32VW553/V1_MQTT_OK/GD32VW55X_Wifi_BLE_SDK/GD32VW55x_RELEASE_V1.0.2/MSDK/lwip/lwip-2.1.2/src/core/ipv4\ip4.c **** 
 814:C:/Users/stapi/OneDrive/Desktop/GD32VW553/V1_MQTT_OK/GD32VW55X_Wifi_BLE_SDK/GD32VW55x_RELEASE_V1.0.2/MSDK/lwip/lwip-2.1.2/src/core/ipv4\ip4.c **** #if IP_OPTIONS_SEND
 815:C:/Users/stapi/OneDrive/Desktop/GD32VW553/V1_MQTT_OK/GD32VW55X_Wifi_BLE_SDK/GD32VW55x_RELEASE_V1.0.2/MSDK/lwip/lwip-2.1.2/src/core/ipv4\ip4.c ****   return ip4_output_if_opt_src(p, src_used, dest, ttl, tos, proto, netif,
 816:C:/Users/stapi/OneDrive/Desktop/GD32VW553/V1_MQTT_OK/GD32VW55X_Wifi_BLE_SDK/GD32VW55x_RELEASE_V1.0.2/MSDK/lwip/lwip-2.1.2/src/core/ipv4\ip4.c ****                                ip_options, optlen);
 817:C:/Users/stapi/OneDrive/Desktop/GD32VW553/V1_MQTT_OK/GD32VW55X_Wifi_BLE_SDK/GD32VW55x_RELEASE_V1.0.2/MSDK/lwip/lwip-2.1.2/src/core/ipv4\ip4.c **** #else /* IP_OPTIONS_SEND */
 818:C:/Users/stapi/OneDrive/Desktop/GD32VW553/V1_MQTT_OK/GD32VW55X_Wifi_BLE_SDK/GD32VW55x_RELEASE_V1.0.2/MSDK/lwip/lwip-2.1.2/src/core/ipv4\ip4.c ****   return ip4_output_if_src(p, src_used, dest, ttl, tos, proto, netif);
 819:C:/Users/stapi/OneDrive/Desktop/GD32VW553/V1_MQTT_OK/GD32VW55X_Wifi_BLE_SDK/GD32VW55x_RELEASE_V1.0.2/MSDK/lwip/lwip-2.1.2/src/core/ipv4\ip4.c **** #endif /* IP_OPTIONS_SEND */
 820:C:/Users/stapi/OneDrive/Desktop/GD32VW553/V1_MQTT_OK/GD32VW55X_Wifi_BLE_SDK/GD32VW55x_RELEASE_V1.0.2/MSDK/lwip/lwip-2.1.2/src/core/ipv4\ip4.c **** }
 821:C:/Users/stapi/OneDrive/Desktop/GD32VW553/V1_MQTT_OK/GD32VW55X_Wifi_BLE_SDK/GD32VW55x_RELEASE_V1.0.2/MSDK/lwip/lwip-2.1.2/src/core/ipv4\ip4.c **** 
 822:C:/Users/stapi/OneDrive/Desktop/GD32VW553/V1_MQTT_OK/GD32VW55X_Wifi_BLE_SDK/GD32VW55x_RELEASE_V1.0.2/MSDK/lwip/lwip-2.1.2/src/core/ipv4\ip4.c **** /**
 823:C:/Users/stapi/OneDrive/Desktop/GD32VW553/V1_MQTT_OK/GD32VW55X_Wifi_BLE_SDK/GD32VW55x_RELEASE_V1.0.2/MSDK/lwip/lwip-2.1.2/src/core/ipv4\ip4.c ****  * Same as ip_output_if() but 'src' address is not replaced by netif address
 824:C:/Users/stapi/OneDrive/Desktop/GD32VW553/V1_MQTT_OK/GD32VW55X_Wifi_BLE_SDK/GD32VW55x_RELEASE_V1.0.2/MSDK/lwip/lwip-2.1.2/src/core/ipv4\ip4.c ****  * when it is 'any'.
 825:C:/Users/stapi/OneDrive/Desktop/GD32VW553/V1_MQTT_OK/GD32VW55X_Wifi_BLE_SDK/GD32VW55x_RELEASE_V1.0.2/MSDK/lwip/lwip-2.1.2/src/core/ipv4\ip4.c ****  */
 826:C:/Users/stapi/OneDrive/Desktop/GD32VW553/V1_MQTT_OK/GD32VW55X_Wifi_BLE_SDK/GD32VW55x_RELEASE_V1.0.2/MSDK/lwip/lwip-2.1.2/src/core/ipv4\ip4.c **** err_t
 827:C:/Users/stapi/OneDrive/Desktop/GD32VW553/V1_MQTT_OK/GD32VW55X_Wifi_BLE_SDK/GD32VW55x_RELEASE_V1.0.2/MSDK/lwip/lwip-2.1.2/src/core/ipv4\ip4.c **** ip4_output_if_src(struct pbuf *p, const ip4_addr_t *src, const ip4_addr_t *dest,
 828:C:/Users/stapi/OneDrive/Desktop/GD32VW553/V1_MQTT_OK/GD32VW55X_Wifi_BLE_SDK/GD32VW55x_RELEASE_V1.0.2/MSDK/lwip/lwip-2.1.2/src/core/ipv4\ip4.c ****                   u8_t ttl, u8_t tos,
 829:C:/Users/stapi/OneDrive/Desktop/GD32VW553/V1_MQTT_OK/GD32VW55X_Wifi_BLE_SDK/GD32VW55x_RELEASE_V1.0.2/MSDK/lwip/lwip-2.1.2/src/core/ipv4\ip4.c ****                   u8_t proto, struct netif *netif)
 830:C:/Users/stapi/OneDrive/Desktop/GD32VW553/V1_MQTT_OK/GD32VW55X_Wifi_BLE_SDK/GD32VW55x_RELEASE_V1.0.2/MSDK/lwip/lwip-2.1.2/src/core/ipv4\ip4.c **** {
 831:C:/Users/stapi/OneDrive/Desktop/GD32VW553/V1_MQTT_OK/GD32VW55X_Wifi_BLE_SDK/GD32VW55x_RELEASE_V1.0.2/MSDK/lwip/lwip-2.1.2/src/core/ipv4\ip4.c **** #if IP_OPTIONS_SEND
 832:C:/Users/stapi/OneDrive/Desktop/GD32VW553/V1_MQTT_OK/GD32VW55X_Wifi_BLE_SDK/GD32VW55x_RELEASE_V1.0.2/MSDK/lwip/lwip-2.1.2/src/core/ipv4\ip4.c ****   return ip4_output_if_opt_src(p, src, dest, ttl, tos, proto, netif, NULL, 0);
 833:C:/Users/stapi/OneDrive/Desktop/GD32VW553/V1_MQTT_OK/GD32VW55X_Wifi_BLE_SDK/GD32VW55x_RELEASE_V1.0.2/MSDK/lwip/lwip-2.1.2/src/core/ipv4\ip4.c **** }
 834:C:/Users/stapi/OneDrive/Desktop/GD32VW553/V1_MQTT_OK/GD32VW55X_Wifi_BLE_SDK/GD32VW55x_RELEASE_V1.0.2/MSDK/lwip/lwip-2.1.2/src/core/ipv4\ip4.c **** 
 835:C:/Users/stapi/OneDrive/Desktop/GD32VW553/V1_MQTT_OK/GD32VW55X_Wifi_BLE_SDK/GD32VW55x_RELEASE_V1.0.2/MSDK/lwip/lwip-2.1.2/src/core/ipv4\ip4.c **** /**
 836:C:/Users/stapi/OneDrive/Desktop/GD32VW553/V1_MQTT_OK/GD32VW55X_Wifi_BLE_SDK/GD32VW55x_RELEASE_V1.0.2/MSDK/lwip/lwip-2.1.2/src/core/ipv4\ip4.c ****  * Same as ip_output_if_opt() but 'src' address is not replaced by netif address
 837:C:/Users/stapi/OneDrive/Desktop/GD32VW553/V1_MQTT_OK/GD32VW55X_Wifi_BLE_SDK/GD32VW55x_RELEASE_V1.0.2/MSDK/lwip/lwip-2.1.2/src/core/ipv4\ip4.c ****  * when it is 'any'.
 838:C:/Users/stapi/OneDrive/Desktop/GD32VW553/V1_MQTT_OK/GD32VW55X_Wifi_BLE_SDK/GD32VW55x_RELEASE_V1.0.2/MSDK/lwip/lwip-2.1.2/src/core/ipv4\ip4.c ****  */
 839:C:/Users/stapi/OneDrive/Desktop/GD32VW553/V1_MQTT_OK/GD32VW55X_Wifi_BLE_SDK/GD32VW55x_RELEASE_V1.0.2/MSDK/lwip/lwip-2.1.2/src/core/ipv4\ip4.c **** err_t
 840:C:/Users/stapi/OneDrive/Desktop/GD32VW553/V1_MQTT_OK/GD32VW55X_Wifi_BLE_SDK/GD32VW55x_RELEASE_V1.0.2/MSDK/lwip/lwip-2.1.2/src/core/ipv4\ip4.c **** ip4_output_if_opt_src(struct pbuf *p, const ip4_addr_t *src, const ip4_addr_t *dest,
 841:C:/Users/stapi/OneDrive/Desktop/GD32VW553/V1_MQTT_OK/GD32VW55X_Wifi_BLE_SDK/GD32VW55x_RELEASE_V1.0.2/MSDK/lwip/lwip-2.1.2/src/core/ipv4\ip4.c ****                       u8_t ttl, u8_t tos, u8_t proto, struct netif *netif, void *ip_options,
 842:C:/Users/stapi/OneDrive/Desktop/GD32VW553/V1_MQTT_OK/GD32VW55X_Wifi_BLE_SDK/GD32VW55x_RELEASE_V1.0.2/MSDK/lwip/lwip-2.1.2/src/core/ipv4\ip4.c ****                       u16_t optlen)
 843:C:/Users/stapi/OneDrive/Desktop/GD32VW553/V1_MQTT_OK/GD32VW55X_Wifi_BLE_SDK/GD32VW55x_RELEASE_V1.0.2/MSDK/lwip/lwip-2.1.2/src/core/ipv4\ip4.c **** {
 697              		.loc 1 843 1
 698              		.cfi_startproc
 699              	.LVL59:
 700 0000 17030000 		call	t0,__riscv_save_11
 700      E7020300 
 701              		.cfi_offset 26, -48
 702              		.cfi_offset 25, -44
 703              		.cfi_offset 24, -40
 704              		.cfi_offset 23, -36
 705              		.cfi_offset 22, -32
 706              		.cfi_offset 21, -28
 707              		.cfi_offset 20, -24
 708              		.cfi_offset 19, -20
 709              		.cfi_offset 18, -16
 710              		.cfi_offset 9, -12
 711              		.cfi_offset 8, -8
 712              		.cfi_offset 1, -4
 713              		.cfi_def_cfa_offset 48
 714 0008 BA8B     		mv	s7,a4
 844:C:/Users/stapi/OneDrive/Desktop/GD32VW553/V1_MQTT_OK/GD32VW55X_Wifi_BLE_SDK/GD32VW55x_RELEASE_V1.0.2/MSDK/lwip/lwip-2.1.2/src/core/ipv4\ip4.c **** #endif /* IP_OPTIONS_SEND */
 845:C:/Users/stapi/OneDrive/Desktop/GD32VW553/V1_MQTT_OK/GD32VW55X_Wifi_BLE_SDK/GD32VW55x_RELEASE_V1.0.2/MSDK/lwip/lwip-2.1.2/src/core/ipv4\ip4.c ****   struct ip_hdr *iphdr;
 846:C:/Users/stapi/OneDrive/Desktop/GD32VW553/V1_MQTT_OK/GD32VW55X_Wifi_BLE_SDK/GD32VW55x_RELEASE_V1.0.2/MSDK/lwip/lwip-2.1.2/src/core/ipv4\ip4.c ****   ip4_addr_t dest_addr;
 847:C:/Users/stapi/OneDrive/Desktop/GD32VW553/V1_MQTT_OK/GD32VW55X_Wifi_BLE_SDK/GD32VW55x_RELEASE_V1.0.2/MSDK/lwip/lwip-2.1.2/src/core/ipv4\ip4.c **** #if CHECKSUM_GEN_IP_INLINE
 848:C:/Users/stapi/OneDrive/Desktop/GD32VW553/V1_MQTT_OK/GD32VW55X_Wifi_BLE_SDK/GD32VW55x_RELEASE_V1.0.2/MSDK/lwip/lwip-2.1.2/src/core/ipv4\ip4.c ****   u32_t chk_sum = 0;
 849:C:/Users/stapi/OneDrive/Desktop/GD32VW553/V1_MQTT_OK/GD32VW55X_Wifi_BLE_SDK/GD32VW55x_RELEASE_V1.0.2/MSDK/lwip/lwip-2.1.2/src/core/ipv4\ip4.c **** #endif /* CHECKSUM_GEN_IP_INLINE */
 850:C:/Users/stapi/OneDrive/Desktop/GD32VW553/V1_MQTT_OK/GD32VW55X_Wifi_BLE_SDK/GD32VW55x_RELEASE_V1.0.2/MSDK/lwip/lwip-2.1.2/src/core/ipv4\ip4.c **** 
 851:C:/Users/stapi/OneDrive/Desktop/GD32VW553/V1_MQTT_OK/GD32VW55X_Wifi_BLE_SDK/GD32VW55x_RELEASE_V1.0.2/MSDK/lwip/lwip-2.1.2/src/core/ipv4\ip4.c ****   LWIP_ASSERT_CORE_LOCKED();
 852:C:/Users/stapi/OneDrive/Desktop/GD32VW553/V1_MQTT_OK/GD32VW55X_Wifi_BLE_SDK/GD32VW55x_RELEASE_V1.0.2/MSDK/lwip/lwip-2.1.2/src/core/ipv4\ip4.c ****   LWIP_IP_CHECK_PBUF_REF_COUNT_FOR_TX(p);
 715              		.loc 1 852 3 is_stmt 0
 716 000a 0347E500 		lbu	a4,14(a0)
 717              	.LVL60:
 843:C:/Users/stapi/OneDrive/Desktop/GD32VW553/V1_MQTT_OK/GD32VW55X_Wifi_BLE_SDK/GD32VW55x_RELEASE_V1.0.2/MSDK/lwip/lwip-2.1.2/src/core/ipv4\ip4.c **** #endif /* IP_OPTIONS_SEND */
 718              		.loc 1 843 1
 719 000e 4111     		addi	sp,sp,-16
 720              		.cfi_def_cfa_offset 64
 843:C:/Users/stapi/OneDrive/Desktop/GD32VW553/V1_MQTT_OK/GD32VW55X_Wifi_BLE_SDK/GD32VW55x_RELEASE_V1.0.2/MSDK/lwip/lwip-2.1.2/src/core/ipv4\ip4.c **** #endif /* IP_OPTIONS_SEND */
 721              		.loc 1 843 1
 722 0010 3E8C     		mv	s8,a5
 845:C:/Users/stapi/OneDrive/Desktop/GD32VW553/V1_MQTT_OK/GD32VW55X_Wifi_BLE_SDK/GD32VW55x_RELEASE_V1.0.2/MSDK/lwip/lwip-2.1.2/src/core/ipv4\ip4.c ****   ip4_addr_t dest_addr;
 723              		.loc 1 845 3 is_stmt 1
 846:C:/Users/stapi/OneDrive/Desktop/GD32VW553/V1_MQTT_OK/GD32VW55X_Wifi_BLE_SDK/GD32VW55x_RELEASE_V1.0.2/MSDK/lwip/lwip-2.1.2/src/core/ipv4\ip4.c **** #if CHECKSUM_GEN_IP_INLINE
 724              		.loc 1 846 3
 848:C:/Users/stapi/OneDrive/Desktop/GD32VW553/V1_MQTT_OK/GD32VW55X_Wifi_BLE_SDK/GD32VW55x_RELEASE_V1.0.2/MSDK/lwip/lwip-2.1.2/src/core/ipv4\ip4.c **** #endif /* CHECKSUM_GEN_IP_INLINE */
 725              		.loc 1 848 3
 726              	.LVL61:
 851:C:/Users/stapi/OneDrive/Desktop/GD32VW553/V1_MQTT_OK/GD32VW55X_Wifi_BLE_SDK/GD32VW55x_RELEASE_V1.0.2/MSDK/lwip/lwip-2.1.2/src/core/ipv4\ip4.c ****   LWIP_IP_CHECK_PBUF_REF_COUNT_FOR_TX(p);
 727              		.loc 1 851 28
 728              		.loc 1 852 3
 729              		.loc 1 852 3
 730 0012 8547     		li	a5,1
 731              	.LVL62:
 843:C:/Users/stapi/OneDrive/Desktop/GD32VW553/V1_MQTT_OK/GD32VW55X_Wifi_BLE_SDK/GD32VW55x_RELEASE_V1.0.2/MSDK/lwip/lwip-2.1.2/src/core/ipv4\ip4.c **** #endif /* IP_OPTIONS_SEND */
 732              		.loc 1 843 1 is_stmt 0
 733 0014 835C0104 		lhu	s9,64(sp)
 734              		.loc 1 852 3
 735 0018 6305F702 		beq	a4,a5,.L90
 736              		.loc 1 852 3 is_stmt 1 discriminator 1
 737              		.loc 1 852 3 discriminator 1
 738 001c B7060000 		lui	a3,%hi(.LC0)
 739              	.LVL63:
 740 0020 B7050000 		lui	a1,%hi(.LC1)
 741              	.LVL64:
 742 0024 37050000 		lui	a0,%hi(.LC2)
 743              	.LVL65:
 744 0028 93860600 		addi	a3,a3,%lo(.LC0)
 745 002c 13064035 		li	a2,852
 746              	.LVL66:
 747 0030 93850500 		addi	a1,a1,%lo(.LC1)
 748 0034 13050500 		addi	a0,a0,%lo(.LC2)
 749 0038 97000000 		call	printf
 749      E7800000 
 750              	.LVL67:
 751              	.L91:
 752              		.loc 1 852 3 discriminator 1
 753              		.loc 1 852 3 discriminator 1
 754              		.loc 1 852 3 discriminator 1
 755 0040 01A0     		j	.L91
 756              	.LVL68:
 757              	.L90:
 758 0042 AA84     		mv	s1,a0
 759 0044 328A     		mv	s4,a2
 760 0046 C289     		mv	s3,a6
 761              	.LVL69:
 762              	.LBB19:
 763              	.LBB20:
 764              		.loc 1 852 3
 765              		.loc 1 852 3
 853:C:/Users/stapi/OneDrive/Desktop/GD32VW553/V1_MQTT_OK/GD32VW55X_Wifi_BLE_SDK/GD32VW55x_RELEASE_V1.0.2/MSDK/lwip/lwip-2.1.2/src/core/ipv4\ip4.c **** 
 854:C:/Users/stapi/OneDrive/Desktop/GD32VW553/V1_MQTT_OK/GD32VW55X_Wifi_BLE_SDK/GD32VW55x_RELEASE_V1.0.2/MSDK/lwip/lwip-2.1.2/src/core/ipv4\ip4.c ****   MIB2_STATS_INC(mib2.ipoutrequests);
 766              		.loc 1 854 37
 855:C:/Users/stapi/OneDrive/Desktop/GD32VW553/V1_MQTT_OK/GD32VW55X_Wifi_BLE_SDK/GD32VW55x_RELEASE_V1.0.2/MSDK/lwip/lwip-2.1.2/src/core/ipv4\ip4.c **** 
 856:C:/Users/stapi/OneDrive/Desktop/GD32VW553/V1_MQTT_OK/GD32VW55X_Wifi_BLE_SDK/GD32VW55x_RELEASE_V1.0.2/MSDK/lwip/lwip-2.1.2/src/core/ipv4\ip4.c ****   /* Should the IP header be generated or is it already included in p? */
 857:C:/Users/stapi/OneDrive/Desktop/GD32VW553/V1_MQTT_OK/GD32VW55X_Wifi_BLE_SDK/GD32VW55x_RELEASE_V1.0.2/MSDK/lwip/lwip-2.1.2/src/core/ipv4\ip4.c ****   if (dest != LWIP_IP_HDRINCL) {
 767              		.loc 1 857 3
 768              		.loc 1 857 6 is_stmt 0
 769 0048 630B061E 		beq	a2,zero,.L92
 770              	.LVL70:
 771 004c AE8A     		mv	s5,a1
 772 004e 368B     		mv	s6,a3
 773              	.LBB21:
 858:C:/Users/stapi/OneDrive/Desktop/GD32VW553/V1_MQTT_OK/GD32VW55X_Wifi_BLE_SDK/GD32VW55x_RELEASE_V1.0.2/MSDK/lwip/lwip-2.1.2/src/core/ipv4\ip4.c ****     u16_t ip_hlen = IP_HLEN;
 774              		.loc 1 858 5 is_stmt 1
 775              	.LVL71:
 859:C:/Users/stapi/OneDrive/Desktop/GD32VW553/V1_MQTT_OK/GD32VW55X_Wifi_BLE_SDK/GD32VW55x_RELEASE_V1.0.2/MSDK/lwip/lwip-2.1.2/src/core/ipv4\ip4.c **** #if IP_OPTIONS_SEND
 860:C:/Users/stapi/OneDrive/Desktop/GD32VW553/V1_MQTT_OK/GD32VW55X_Wifi_BLE_SDK/GD32VW55x_RELEASE_V1.0.2/MSDK/lwip/lwip-2.1.2/src/core/ipv4\ip4.c ****     u16_t optlen_aligned = 0;
 776              		.loc 1 860 5
 861:C:/Users/stapi/OneDrive/Desktop/GD32VW553/V1_MQTT_OK/GD32VW55X_Wifi_BLE_SDK/GD32VW55x_RELEASE_V1.0.2/MSDK/lwip/lwip-2.1.2/src/core/ipv4\ip4.c ****     if (optlen != 0) {
 777              		.loc 1 861 5
 778              		.loc 1 861 8 is_stmt 0
 779 0050 63890C0A 		beq	s9,zero,.L107
 780              	.LBB22:
 862:C:/Users/stapi/OneDrive/Desktop/GD32VW553/V1_MQTT_OK/GD32VW55X_Wifi_BLE_SDK/GD32VW55x_RELEASE_V1.0.2/MSDK/lwip/lwip-2.1.2/src/core/ipv4\ip4.c **** #if CHECKSUM_GEN_IP_INLINE
 863:C:/Users/stapi/OneDrive/Desktop/GD32VW553/V1_MQTT_OK/GD32VW55X_Wifi_BLE_SDK/GD32VW55x_RELEASE_V1.0.2/MSDK/lwip/lwip-2.1.2/src/core/ipv4\ip4.c ****       int i;
 781              		.loc 1 863 7 is_stmt 1
 864:C:/Users/stapi/OneDrive/Desktop/GD32VW553/V1_MQTT_OK/GD32VW55X_Wifi_BLE_SDK/GD32VW55x_RELEASE_V1.0.2/MSDK/lwip/lwip-2.1.2/src/core/ipv4\ip4.c **** #endif /* CHECKSUM_GEN_IP_INLINE */
 865:C:/Users/stapi/OneDrive/Desktop/GD32VW553/V1_MQTT_OK/GD32VW55X_Wifi_BLE_SDK/GD32VW55x_RELEASE_V1.0.2/MSDK/lwip/lwip-2.1.2/src/core/ipv4\ip4.c ****       if (optlen > (IP_HLEN_MAX - IP_HLEN)) {
 782              		.loc 1 865 7
 783              		.loc 1 865 10 is_stmt 0
 784 0054 93078002 		li	a5,40
 785 0058 63EB9725 		bgtu	s9,a5,.L108
 866:C:/Users/stapi/OneDrive/Desktop/GD32VW553/V1_MQTT_OK/GD32VW55X_Wifi_BLE_SDK/GD32VW55x_RELEASE_V1.0.2/MSDK/lwip/lwip-2.1.2/src/core/ipv4\ip4.c ****         /* optlen too long */
 867:C:/Users/stapi/OneDrive/Desktop/GD32VW553/V1_MQTT_OK/GD32VW55X_Wifi_BLE_SDK/GD32VW55x_RELEASE_V1.0.2/MSDK/lwip/lwip-2.1.2/src/core/ipv4\ip4.c ****         LWIP_DEBUGF(IP_DEBUG | LWIP_DBG_LEVEL_SERIOUS, ("ip4_output_if_opt: optlen too long\n"));
 868:C:/Users/stapi/OneDrive/Desktop/GD32VW553/V1_MQTT_OK/GD32VW55X_Wifi_BLE_SDK/GD32VW55x_RELEASE_V1.0.2/MSDK/lwip/lwip-2.1.2/src/core/ipv4\ip4.c ****         IP_STATS_INC(ip.err);
 869:C:/Users/stapi/OneDrive/Desktop/GD32VW553/V1_MQTT_OK/GD32VW55X_Wifi_BLE_SDK/GD32VW55x_RELEASE_V1.0.2/MSDK/lwip/lwip-2.1.2/src/core/ipv4\ip4.c ****         MIB2_STATS_INC(mib2.ipoutdiscards);
 870:C:/Users/stapi/OneDrive/Desktop/GD32VW553/V1_MQTT_OK/GD32VW55X_Wifi_BLE_SDK/GD32VW55x_RELEASE_V1.0.2/MSDK/lwip/lwip-2.1.2/src/core/ipv4\ip4.c ****         return ERR_VAL;
 871:C:/Users/stapi/OneDrive/Desktop/GD32VW553/V1_MQTT_OK/GD32VW55X_Wifi_BLE_SDK/GD32VW55x_RELEASE_V1.0.2/MSDK/lwip/lwip-2.1.2/src/core/ipv4\ip4.c ****       }
 872:C:/Users/stapi/OneDrive/Desktop/GD32VW553/V1_MQTT_OK/GD32VW55X_Wifi_BLE_SDK/GD32VW55x_RELEASE_V1.0.2/MSDK/lwip/lwip-2.1.2/src/core/ipv4\ip4.c ****       /* round up to a multiple of 4 */
 873:C:/Users/stapi/OneDrive/Desktop/GD32VW553/V1_MQTT_OK/GD32VW55X_Wifi_BLE_SDK/GD32VW55x_RELEASE_V1.0.2/MSDK/lwip/lwip-2.1.2/src/core/ipv4\ip4.c ****       optlen_aligned = (u16_t)((optlen + 3) & ~3);
 786              		.loc 1 873 40
 787 005c 13843C00 		addi	s0,s9,3
 788              		.loc 1 873 22
 789 0060 7198     		andi	s0,s0,-4
 790 0062 33440408 		zext.h	s0,s0
 874:C:/Users/stapi/OneDrive/Desktop/GD32VW553/V1_MQTT_OK/GD32VW55X_Wifi_BLE_SDK/GD32VW55x_RELEASE_V1.0.2/MSDK/lwip/lwip-2.1.2/src/core/ipv4\ip4.c ****       ip_hlen = (u16_t)(ip_hlen + optlen_aligned);
 791              		.loc 1 874 15
 792 0066 13094401 		addi	s2,s0,20
 875:C:/Users/stapi/OneDrive/Desktop/GD32VW553/V1_MQTT_OK/GD32VW55X_Wifi_BLE_SDK/GD32VW55x_RELEASE_V1.0.2/MSDK/lwip/lwip-2.1.2/src/core/ipv4\ip4.c ****       /* First write in the IP options */
 876:C:/Users/stapi/OneDrive/Desktop/GD32VW553/V1_MQTT_OK/GD32VW55X_Wifi_BLE_SDK/GD32VW55x_RELEASE_V1.0.2/MSDK/lwip/lwip-2.1.2/src/core/ipv4\ip4.c ****       if (pbuf_add_header(p, optlen_aligned)) {
 793              		.loc 1 876 11
 794 006a A285     		mv	a1,s0
 795              	.LVL72:
 796 006c 468D     		mv	s10,a7
 873:C:/Users/stapi/OneDrive/Desktop/GD32VW553/V1_MQTT_OK/GD32VW55X_Wifi_BLE_SDK/GD32VW55x_RELEASE_V1.0.2/MSDK/lwip/lwip-2.1.2/src/core/ipv4\ip4.c ****       ip_hlen = (u16_t)(ip_hlen + optlen_aligned);
 797              		.loc 1 873 7 is_stmt 1
 798              	.LVL73:
 874:C:/Users/stapi/OneDrive/Desktop/GD32VW553/V1_MQTT_OK/GD32VW55X_Wifi_BLE_SDK/GD32VW55x_RELEASE_V1.0.2/MSDK/lwip/lwip-2.1.2/src/core/ipv4\ip4.c ****       ip_hlen = (u16_t)(ip_hlen + optlen_aligned);
 799              		.loc 1 874 7
 874:C:/Users/stapi/OneDrive/Desktop/GD32VW553/V1_MQTT_OK/GD32VW55X_Wifi_BLE_SDK/GD32VW55x_RELEASE_V1.0.2/MSDK/lwip/lwip-2.1.2/src/core/ipv4\ip4.c ****       ip_hlen = (u16_t)(ip_hlen + optlen_aligned);
 800              		.loc 1 874 15 is_stmt 0
 801 006e 33490908 		zext.h	s2,s2
 802              	.LVL74:
 803              		.loc 1 876 7 is_stmt 1
 804              		.loc 1 876 11 is_stmt 0
 805 0072 97000000 		call	pbuf_add_header
 805      E7800000 
 806              	.LVL75:
 807              		.loc 1 876 10
 808 007a 19C5     		beq	a0,zero,.L95
 809              	.LVL76:
 810              	.L98:
 877:C:/Users/stapi/OneDrive/Desktop/GD32VW553/V1_MQTT_OK/GD32VW55X_Wifi_BLE_SDK/GD32VW55x_RELEASE_V1.0.2/MSDK/lwip/lwip-2.1.2/src/core/ipv4\ip4.c ****         LWIP_DEBUGF(IP_DEBUG | LWIP_DBG_LEVEL_SERIOUS, ("ip4_output_if_opt: not enough room for IP 
 878:C:/Users/stapi/OneDrive/Desktop/GD32VW553/V1_MQTT_OK/GD32VW55X_Wifi_BLE_SDK/GD32VW55x_RELEASE_V1.0.2/MSDK/lwip/lwip-2.1.2/src/core/ipv4\ip4.c ****         IP_STATS_INC(ip.err);
 879:C:/Users/stapi/OneDrive/Desktop/GD32VW553/V1_MQTT_OK/GD32VW55X_Wifi_BLE_SDK/GD32VW55x_RELEASE_V1.0.2/MSDK/lwip/lwip-2.1.2/src/core/ipv4\ip4.c ****         MIB2_STATS_INC(mib2.ipoutdiscards);
 880:C:/Users/stapi/OneDrive/Desktop/GD32VW553/V1_MQTT_OK/GD32VW55X_Wifi_BLE_SDK/GD32VW55x_RELEASE_V1.0.2/MSDK/lwip/lwip-2.1.2/src/core/ipv4\ip4.c ****         return ERR_BUF;
 811              		.loc 1 880 16
 812 007c 7955     		li	a0,-2
 813              	.LVL77:
 814              	.L94:
 815              	.LBE22:
 816              	.LBE21:
 817              	.LBE20:
 818              	.LBE19:
 881:C:/Users/stapi/OneDrive/Desktop/GD32VW553/V1_MQTT_OK/GD32VW55X_Wifi_BLE_SDK/GD32VW55x_RELEASE_V1.0.2/MSDK/lwip/lwip-2.1.2/src/core/ipv4\ip4.c ****       }
 882:C:/Users/stapi/OneDrive/Desktop/GD32VW553/V1_MQTT_OK/GD32VW55X_Wifi_BLE_SDK/GD32VW55x_RELEASE_V1.0.2/MSDK/lwip/lwip-2.1.2/src/core/ipv4\ip4.c ****       MEMCPY(p->payload, ip_options, optlen);
 883:C:/Users/stapi/OneDrive/Desktop/GD32VW553/V1_MQTT_OK/GD32VW55X_Wifi_BLE_SDK/GD32VW55x_RELEASE_V1.0.2/MSDK/lwip/lwip-2.1.2/src/core/ipv4\ip4.c ****       if (optlen < optlen_aligned) {
 884:C:/Users/stapi/OneDrive/Desktop/GD32VW553/V1_MQTT_OK/GD32VW55X_Wifi_BLE_SDK/GD32VW55x_RELEASE_V1.0.2/MSDK/lwip/lwip-2.1.2/src/core/ipv4\ip4.c ****         /* zero the remaining bytes */
 885:C:/Users/stapi/OneDrive/Desktop/GD32VW553/V1_MQTT_OK/GD32VW55X_Wifi_BLE_SDK/GD32VW55x_RELEASE_V1.0.2/MSDK/lwip/lwip-2.1.2/src/core/ipv4\ip4.c ****         memset(((char *)p->payload) + optlen, 0, (size_t)(optlen_aligned - optlen));
 886:C:/Users/stapi/OneDrive/Desktop/GD32VW553/V1_MQTT_OK/GD32VW55X_Wifi_BLE_SDK/GD32VW55x_RELEASE_V1.0.2/MSDK/lwip/lwip-2.1.2/src/core/ipv4\ip4.c ****       }
 887:C:/Users/stapi/OneDrive/Desktop/GD32VW553/V1_MQTT_OK/GD32VW55X_Wifi_BLE_SDK/GD32VW55x_RELEASE_V1.0.2/MSDK/lwip/lwip-2.1.2/src/core/ipv4\ip4.c **** #if CHECKSUM_GEN_IP_INLINE
 888:C:/Users/stapi/OneDrive/Desktop/GD32VW553/V1_MQTT_OK/GD32VW55X_Wifi_BLE_SDK/GD32VW55x_RELEASE_V1.0.2/MSDK/lwip/lwip-2.1.2/src/core/ipv4\ip4.c ****       for (i = 0; i < optlen_aligned / 2; i++) {
 889:C:/Users/stapi/OneDrive/Desktop/GD32VW553/V1_MQTT_OK/GD32VW55X_Wifi_BLE_SDK/GD32VW55x_RELEASE_V1.0.2/MSDK/lwip/lwip-2.1.2/src/core/ipv4\ip4.c ****         chk_sum += ((u16_t *)p->payload)[i];
 890:C:/Users/stapi/OneDrive/Desktop/GD32VW553/V1_MQTT_OK/GD32VW55X_Wifi_BLE_SDK/GD32VW55x_RELEASE_V1.0.2/MSDK/lwip/lwip-2.1.2/src/core/ipv4\ip4.c ****       }
 891:C:/Users/stapi/OneDrive/Desktop/GD32VW553/V1_MQTT_OK/GD32VW55X_Wifi_BLE_SDK/GD32VW55x_RELEASE_V1.0.2/MSDK/lwip/lwip-2.1.2/src/core/ipv4\ip4.c **** #endif /* CHECKSUM_GEN_IP_INLINE */
 892:C:/Users/stapi/OneDrive/Desktop/GD32VW553/V1_MQTT_OK/GD32VW55X_Wifi_BLE_SDK/GD32VW55x_RELEASE_V1.0.2/MSDK/lwip/lwip-2.1.2/src/core/ipv4\ip4.c ****     }
 893:C:/Users/stapi/OneDrive/Desktop/GD32VW553/V1_MQTT_OK/GD32VW55X_Wifi_BLE_SDK/GD32VW55x_RELEASE_V1.0.2/MSDK/lwip/lwip-2.1.2/src/core/ipv4\ip4.c **** #endif /* IP_OPTIONS_SEND */
 894:C:/Users/stapi/OneDrive/Desktop/GD32VW553/V1_MQTT_OK/GD32VW55X_Wifi_BLE_SDK/GD32VW55x_RELEASE_V1.0.2/MSDK/lwip/lwip-2.1.2/src/core/ipv4\ip4.c ****     /* generate IP header */
 895:C:/Users/stapi/OneDrive/Desktop/GD32VW553/V1_MQTT_OK/GD32VW55X_Wifi_BLE_SDK/GD32VW55x_RELEASE_V1.0.2/MSDK/lwip/lwip-2.1.2/src/core/ipv4\ip4.c ****     if (pbuf_add_header(p, IP_HLEN)) {
 896:C:/Users/stapi/OneDrive/Desktop/GD32VW553/V1_MQTT_OK/GD32VW55X_Wifi_BLE_SDK/GD32VW55x_RELEASE_V1.0.2/MSDK/lwip/lwip-2.1.2/src/core/ipv4\ip4.c ****       LWIP_DEBUGF(IP_DEBUG | LWIP_DBG_LEVEL_SERIOUS, ("ip4_output: not enough room for IP header in
 897:C:/Users/stapi/OneDrive/Desktop/GD32VW553/V1_MQTT_OK/GD32VW55X_Wifi_BLE_SDK/GD32VW55x_RELEASE_V1.0.2/MSDK/lwip/lwip-2.1.2/src/core/ipv4\ip4.c **** 
 898:C:/Users/stapi/OneDrive/Desktop/GD32VW553/V1_MQTT_OK/GD32VW55X_Wifi_BLE_SDK/GD32VW55x_RELEASE_V1.0.2/MSDK/lwip/lwip-2.1.2/src/core/ipv4\ip4.c ****       IP_STATS_INC(ip.err);
 899:C:/Users/stapi/OneDrive/Desktop/GD32VW553/V1_MQTT_OK/GD32VW55X_Wifi_BLE_SDK/GD32VW55x_RELEASE_V1.0.2/MSDK/lwip/lwip-2.1.2/src/core/ipv4\ip4.c ****       MIB2_STATS_INC(mib2.ipoutdiscards);
 900:C:/Users/stapi/OneDrive/Desktop/GD32VW553/V1_MQTT_OK/GD32VW55X_Wifi_BLE_SDK/GD32VW55x_RELEASE_V1.0.2/MSDK/lwip/lwip-2.1.2/src/core/ipv4\ip4.c ****       return ERR_BUF;
 901:C:/Users/stapi/OneDrive/Desktop/GD32VW553/V1_MQTT_OK/GD32VW55X_Wifi_BLE_SDK/GD32VW55x_RELEASE_V1.0.2/MSDK/lwip/lwip-2.1.2/src/core/ipv4\ip4.c ****     }
 902:C:/Users/stapi/OneDrive/Desktop/GD32VW553/V1_MQTT_OK/GD32VW55X_Wifi_BLE_SDK/GD32VW55x_RELEASE_V1.0.2/MSDK/lwip/lwip-2.1.2/src/core/ipv4\ip4.c **** 
 903:C:/Users/stapi/OneDrive/Desktop/GD32VW553/V1_MQTT_OK/GD32VW55X_Wifi_BLE_SDK/GD32VW55x_RELEASE_V1.0.2/MSDK/lwip/lwip-2.1.2/src/core/ipv4\ip4.c ****     iphdr = (struct ip_hdr *)p->payload;
 904:C:/Users/stapi/OneDrive/Desktop/GD32VW553/V1_MQTT_OK/GD32VW55X_Wifi_BLE_SDK/GD32VW55x_RELEASE_V1.0.2/MSDK/lwip/lwip-2.1.2/src/core/ipv4\ip4.c ****     LWIP_ASSERT("check that first pbuf can hold struct ip_hdr",
 905:C:/Users/stapi/OneDrive/Desktop/GD32VW553/V1_MQTT_OK/GD32VW55X_Wifi_BLE_SDK/GD32VW55x_RELEASE_V1.0.2/MSDK/lwip/lwip-2.1.2/src/core/ipv4\ip4.c ****                 (p->len >= sizeof(struct ip_hdr)));
 906:C:/Users/stapi/OneDrive/Desktop/GD32VW553/V1_MQTT_OK/GD32VW55X_Wifi_BLE_SDK/GD32VW55x_RELEASE_V1.0.2/MSDK/lwip/lwip-2.1.2/src/core/ipv4\ip4.c **** 
 907:C:/Users/stapi/OneDrive/Desktop/GD32VW553/V1_MQTT_OK/GD32VW55X_Wifi_BLE_SDK/GD32VW55x_RELEASE_V1.0.2/MSDK/lwip/lwip-2.1.2/src/core/ipv4\ip4.c ****     IPH_TTL_SET(iphdr, ttl);
 908:C:/Users/stapi/OneDrive/Desktop/GD32VW553/V1_MQTT_OK/GD32VW55X_Wifi_BLE_SDK/GD32VW55x_RELEASE_V1.0.2/MSDK/lwip/lwip-2.1.2/src/core/ipv4\ip4.c ****     IPH_PROTO_SET(iphdr, proto);
 909:C:/Users/stapi/OneDrive/Desktop/GD32VW553/V1_MQTT_OK/GD32VW55X_Wifi_BLE_SDK/GD32VW55x_RELEASE_V1.0.2/MSDK/lwip/lwip-2.1.2/src/core/ipv4\ip4.c **** #if CHECKSUM_GEN_IP_INLINE
 910:C:/Users/stapi/OneDrive/Desktop/GD32VW553/V1_MQTT_OK/GD32VW55X_Wifi_BLE_SDK/GD32VW55x_RELEASE_V1.0.2/MSDK/lwip/lwip-2.1.2/src/core/ipv4\ip4.c ****     chk_sum += PP_NTOHS(proto | (ttl << 8));
 911:C:/Users/stapi/OneDrive/Desktop/GD32VW553/V1_MQTT_OK/GD32VW55X_Wifi_BLE_SDK/GD32VW55x_RELEASE_V1.0.2/MSDK/lwip/lwip-2.1.2/src/core/ipv4\ip4.c **** #endif /* CHECKSUM_GEN_IP_INLINE */
 912:C:/Users/stapi/OneDrive/Desktop/GD32VW553/V1_MQTT_OK/GD32VW55X_Wifi_BLE_SDK/GD32VW55x_RELEASE_V1.0.2/MSDK/lwip/lwip-2.1.2/src/core/ipv4\ip4.c **** 
 913:C:/Users/stapi/OneDrive/Desktop/GD32VW553/V1_MQTT_OK/GD32VW55X_Wifi_BLE_SDK/GD32VW55x_RELEASE_V1.0.2/MSDK/lwip/lwip-2.1.2/src/core/ipv4\ip4.c ****     /* dest cannot be NULL here */
 914:C:/Users/stapi/OneDrive/Desktop/GD32VW553/V1_MQTT_OK/GD32VW55X_Wifi_BLE_SDK/GD32VW55x_RELEASE_V1.0.2/MSDK/lwip/lwip-2.1.2/src/core/ipv4\ip4.c ****     ip4_addr_copy(iphdr->dest, *dest);
 915:C:/Users/stapi/OneDrive/Desktop/GD32VW553/V1_MQTT_OK/GD32VW55X_Wifi_BLE_SDK/GD32VW55x_RELEASE_V1.0.2/MSDK/lwip/lwip-2.1.2/src/core/ipv4\ip4.c **** #if CHECKSUM_GEN_IP_INLINE
 916:C:/Users/stapi/OneDrive/Desktop/GD32VW553/V1_MQTT_OK/GD32VW55X_Wifi_BLE_SDK/GD32VW55x_RELEASE_V1.0.2/MSDK/lwip/lwip-2.1.2/src/core/ipv4\ip4.c ****     chk_sum += ip4_addr_get_u32(&iphdr->dest) & 0xFFFF;
 917:C:/Users/stapi/OneDrive/Desktop/GD32VW553/V1_MQTT_OK/GD32VW55X_Wifi_BLE_SDK/GD32VW55x_RELEASE_V1.0.2/MSDK/lwip/lwip-2.1.2/src/core/ipv4\ip4.c ****     chk_sum += ip4_addr_get_u32(&iphdr->dest) >> 16;
 918:C:/Users/stapi/OneDrive/Desktop/GD32VW553/V1_MQTT_OK/GD32VW55X_Wifi_BLE_SDK/GD32VW55x_RELEASE_V1.0.2/MSDK/lwip/lwip-2.1.2/src/core/ipv4\ip4.c **** #endif /* CHECKSUM_GEN_IP_INLINE */
 919:C:/Users/stapi/OneDrive/Desktop/GD32VW553/V1_MQTT_OK/GD32VW55X_Wifi_BLE_SDK/GD32VW55x_RELEASE_V1.0.2/MSDK/lwip/lwip-2.1.2/src/core/ipv4\ip4.c **** 
 920:C:/Users/stapi/OneDrive/Desktop/GD32VW553/V1_MQTT_OK/GD32VW55X_Wifi_BLE_SDK/GD32VW55x_RELEASE_V1.0.2/MSDK/lwip/lwip-2.1.2/src/core/ipv4\ip4.c ****     IPH_VHL_SET(iphdr, 4, ip_hlen / 4);
 921:C:/Users/stapi/OneDrive/Desktop/GD32VW553/V1_MQTT_OK/GD32VW55X_Wifi_BLE_SDK/GD32VW55x_RELEASE_V1.0.2/MSDK/lwip/lwip-2.1.2/src/core/ipv4\ip4.c ****     IPH_TOS_SET(iphdr, tos);
 922:C:/Users/stapi/OneDrive/Desktop/GD32VW553/V1_MQTT_OK/GD32VW55X_Wifi_BLE_SDK/GD32VW55x_RELEASE_V1.0.2/MSDK/lwip/lwip-2.1.2/src/core/ipv4\ip4.c **** #if CHECKSUM_GEN_IP_INLINE
 923:C:/Users/stapi/OneDrive/Desktop/GD32VW553/V1_MQTT_OK/GD32VW55X_Wifi_BLE_SDK/GD32VW55x_RELEASE_V1.0.2/MSDK/lwip/lwip-2.1.2/src/core/ipv4\ip4.c ****     chk_sum += PP_NTOHS(tos | (iphdr->_v_hl << 8));
 924:C:/Users/stapi/OneDrive/Desktop/GD32VW553/V1_MQTT_OK/GD32VW55X_Wifi_BLE_SDK/GD32VW55x_RELEASE_V1.0.2/MSDK/lwip/lwip-2.1.2/src/core/ipv4\ip4.c **** #endif /* CHECKSUM_GEN_IP_INLINE */
 925:C:/Users/stapi/OneDrive/Desktop/GD32VW553/V1_MQTT_OK/GD32VW55X_Wifi_BLE_SDK/GD32VW55x_RELEASE_V1.0.2/MSDK/lwip/lwip-2.1.2/src/core/ipv4\ip4.c ****     IPH_LEN_SET(iphdr, lwip_htons(p->tot_len));
 926:C:/Users/stapi/OneDrive/Desktop/GD32VW553/V1_MQTT_OK/GD32VW55X_Wifi_BLE_SDK/GD32VW55x_RELEASE_V1.0.2/MSDK/lwip/lwip-2.1.2/src/core/ipv4\ip4.c **** #if CHECKSUM_GEN_IP_INLINE
 927:C:/Users/stapi/OneDrive/Desktop/GD32VW553/V1_MQTT_OK/GD32VW55X_Wifi_BLE_SDK/GD32VW55x_RELEASE_V1.0.2/MSDK/lwip/lwip-2.1.2/src/core/ipv4\ip4.c ****     chk_sum += iphdr->_len;
 928:C:/Users/stapi/OneDrive/Desktop/GD32VW553/V1_MQTT_OK/GD32VW55X_Wifi_BLE_SDK/GD32VW55x_RELEASE_V1.0.2/MSDK/lwip/lwip-2.1.2/src/core/ipv4\ip4.c **** #endif /* CHECKSUM_GEN_IP_INLINE */
 929:C:/Users/stapi/OneDrive/Desktop/GD32VW553/V1_MQTT_OK/GD32VW55X_Wifi_BLE_SDK/GD32VW55x_RELEASE_V1.0.2/MSDK/lwip/lwip-2.1.2/src/core/ipv4\ip4.c ****     IPH_OFFSET_SET(iphdr, 0);
 930:C:/Users/stapi/OneDrive/Desktop/GD32VW553/V1_MQTT_OK/GD32VW55X_Wifi_BLE_SDK/GD32VW55x_RELEASE_V1.0.2/MSDK/lwip/lwip-2.1.2/src/core/ipv4\ip4.c ****     IPH_ID_SET(iphdr, lwip_htons(ip_id));
 931:C:/Users/stapi/OneDrive/Desktop/GD32VW553/V1_MQTT_OK/GD32VW55X_Wifi_BLE_SDK/GD32VW55x_RELEASE_V1.0.2/MSDK/lwip/lwip-2.1.2/src/core/ipv4\ip4.c **** #if CHECKSUM_GEN_IP_INLINE
 932:C:/Users/stapi/OneDrive/Desktop/GD32VW553/V1_MQTT_OK/GD32VW55X_Wifi_BLE_SDK/GD32VW55x_RELEASE_V1.0.2/MSDK/lwip/lwip-2.1.2/src/core/ipv4\ip4.c ****     chk_sum += iphdr->_id;
 933:C:/Users/stapi/OneDrive/Desktop/GD32VW553/V1_MQTT_OK/GD32VW55X_Wifi_BLE_SDK/GD32VW55x_RELEASE_V1.0.2/MSDK/lwip/lwip-2.1.2/src/core/ipv4\ip4.c **** #endif /* CHECKSUM_GEN_IP_INLINE */
 934:C:/Users/stapi/OneDrive/Desktop/GD32VW553/V1_MQTT_OK/GD32VW55X_Wifi_BLE_SDK/GD32VW55x_RELEASE_V1.0.2/MSDK/lwip/lwip-2.1.2/src/core/ipv4\ip4.c ****     ++ip_id;
 935:C:/Users/stapi/OneDrive/Desktop/GD32VW553/V1_MQTT_OK/GD32VW55X_Wifi_BLE_SDK/GD32VW55x_RELEASE_V1.0.2/MSDK/lwip/lwip-2.1.2/src/core/ipv4\ip4.c **** 
 936:C:/Users/stapi/OneDrive/Desktop/GD32VW553/V1_MQTT_OK/GD32VW55X_Wifi_BLE_SDK/GD32VW55x_RELEASE_V1.0.2/MSDK/lwip/lwip-2.1.2/src/core/ipv4\ip4.c ****     if (src == NULL) {
 937:C:/Users/stapi/OneDrive/Desktop/GD32VW553/V1_MQTT_OK/GD32VW55X_Wifi_BLE_SDK/GD32VW55x_RELEASE_V1.0.2/MSDK/lwip/lwip-2.1.2/src/core/ipv4\ip4.c ****       ip4_addr_copy(iphdr->src, *IP4_ADDR_ANY4);
 938:C:/Users/stapi/OneDrive/Desktop/GD32VW553/V1_MQTT_OK/GD32VW55X_Wifi_BLE_SDK/GD32VW55x_RELEASE_V1.0.2/MSDK/lwip/lwip-2.1.2/src/core/ipv4\ip4.c ****     } else {
 939:C:/Users/stapi/OneDrive/Desktop/GD32VW553/V1_MQTT_OK/GD32VW55X_Wifi_BLE_SDK/GD32VW55x_RELEASE_V1.0.2/MSDK/lwip/lwip-2.1.2/src/core/ipv4\ip4.c ****       /* src cannot be NULL here */
 940:C:/Users/stapi/OneDrive/Desktop/GD32VW553/V1_MQTT_OK/GD32VW55X_Wifi_BLE_SDK/GD32VW55x_RELEASE_V1.0.2/MSDK/lwip/lwip-2.1.2/src/core/ipv4\ip4.c ****       ip4_addr_copy(iphdr->src, *src);
 941:C:/Users/stapi/OneDrive/Desktop/GD32VW553/V1_MQTT_OK/GD32VW55X_Wifi_BLE_SDK/GD32VW55x_RELEASE_V1.0.2/MSDK/lwip/lwip-2.1.2/src/core/ipv4\ip4.c ****     }
 942:C:/Users/stapi/OneDrive/Desktop/GD32VW553/V1_MQTT_OK/GD32VW55X_Wifi_BLE_SDK/GD32VW55x_RELEASE_V1.0.2/MSDK/lwip/lwip-2.1.2/src/core/ipv4\ip4.c **** 
 943:C:/Users/stapi/OneDrive/Desktop/GD32VW553/V1_MQTT_OK/GD32VW55X_Wifi_BLE_SDK/GD32VW55x_RELEASE_V1.0.2/MSDK/lwip/lwip-2.1.2/src/core/ipv4\ip4.c **** #if CHECKSUM_GEN_IP_INLINE
 944:C:/Users/stapi/OneDrive/Desktop/GD32VW553/V1_MQTT_OK/GD32VW55X_Wifi_BLE_SDK/GD32VW55x_RELEASE_V1.0.2/MSDK/lwip/lwip-2.1.2/src/core/ipv4\ip4.c ****     chk_sum += ip4_addr_get_u32(&iphdr->src) & 0xFFFF;
 945:C:/Users/stapi/OneDrive/Desktop/GD32VW553/V1_MQTT_OK/GD32VW55X_Wifi_BLE_SDK/GD32VW55x_RELEASE_V1.0.2/MSDK/lwip/lwip-2.1.2/src/core/ipv4\ip4.c ****     chk_sum += ip4_addr_get_u32(&iphdr->src) >> 16;
 946:C:/Users/stapi/OneDrive/Desktop/GD32VW553/V1_MQTT_OK/GD32VW55X_Wifi_BLE_SDK/GD32VW55x_RELEASE_V1.0.2/MSDK/lwip/lwip-2.1.2/src/core/ipv4\ip4.c ****     chk_sum = (chk_sum >> 16) + (chk_sum & 0xFFFF);
 947:C:/Users/stapi/OneDrive/Desktop/GD32VW553/V1_MQTT_OK/GD32VW55X_Wifi_BLE_SDK/GD32VW55x_RELEASE_V1.0.2/MSDK/lwip/lwip-2.1.2/src/core/ipv4\ip4.c ****     chk_sum = (chk_sum >> 16) + chk_sum;
 948:C:/Users/stapi/OneDrive/Desktop/GD32VW553/V1_MQTT_OK/GD32VW55X_Wifi_BLE_SDK/GD32VW55x_RELEASE_V1.0.2/MSDK/lwip/lwip-2.1.2/src/core/ipv4\ip4.c ****     chk_sum = ~chk_sum;
 949:C:/Users/stapi/OneDrive/Desktop/GD32VW553/V1_MQTT_OK/GD32VW55X_Wifi_BLE_SDK/GD32VW55x_RELEASE_V1.0.2/MSDK/lwip/lwip-2.1.2/src/core/ipv4\ip4.c ****     IF__NETIF_CHECKSUM_ENABLED(netif, NETIF_CHECKSUM_GEN_IP) {
 950:C:/Users/stapi/OneDrive/Desktop/GD32VW553/V1_MQTT_OK/GD32VW55X_Wifi_BLE_SDK/GD32VW55x_RELEASE_V1.0.2/MSDK/lwip/lwip-2.1.2/src/core/ipv4\ip4.c ****       iphdr->_chksum = (u16_t)chk_sum; /* network order */
 951:C:/Users/stapi/OneDrive/Desktop/GD32VW553/V1_MQTT_OK/GD32VW55X_Wifi_BLE_SDK/GD32VW55x_RELEASE_V1.0.2/MSDK/lwip/lwip-2.1.2/src/core/ipv4\ip4.c ****     }
 952:C:/Users/stapi/OneDrive/Desktop/GD32VW553/V1_MQTT_OK/GD32VW55X_Wifi_BLE_SDK/GD32VW55x_RELEASE_V1.0.2/MSDK/lwip/lwip-2.1.2/src/core/ipv4\ip4.c **** #if LWIP_CHECKSUM_CTRL_PER_NETIF
 953:C:/Users/stapi/OneDrive/Desktop/GD32VW553/V1_MQTT_OK/GD32VW55X_Wifi_BLE_SDK/GD32VW55x_RELEASE_V1.0.2/MSDK/lwip/lwip-2.1.2/src/core/ipv4\ip4.c ****     else {
 954:C:/Users/stapi/OneDrive/Desktop/GD32VW553/V1_MQTT_OK/GD32VW55X_Wifi_BLE_SDK/GD32VW55x_RELEASE_V1.0.2/MSDK/lwip/lwip-2.1.2/src/core/ipv4\ip4.c ****       IPH_CHKSUM_SET(iphdr, 0);
 955:C:/Users/stapi/OneDrive/Desktop/GD32VW553/V1_MQTT_OK/GD32VW55X_Wifi_BLE_SDK/GD32VW55x_RELEASE_V1.0.2/MSDK/lwip/lwip-2.1.2/src/core/ipv4\ip4.c ****     }
 956:C:/Users/stapi/OneDrive/Desktop/GD32VW553/V1_MQTT_OK/GD32VW55X_Wifi_BLE_SDK/GD32VW55x_RELEASE_V1.0.2/MSDK/lwip/lwip-2.1.2/src/core/ipv4\ip4.c **** #endif /* LWIP_CHECKSUM_CTRL_PER_NETIF*/
 957:C:/Users/stapi/OneDrive/Desktop/GD32VW553/V1_MQTT_OK/GD32VW55X_Wifi_BLE_SDK/GD32VW55x_RELEASE_V1.0.2/MSDK/lwip/lwip-2.1.2/src/core/ipv4\ip4.c **** #else /* CHECKSUM_GEN_IP_INLINE */
 958:C:/Users/stapi/OneDrive/Desktop/GD32VW553/V1_MQTT_OK/GD32VW55X_Wifi_BLE_SDK/GD32VW55x_RELEASE_V1.0.2/MSDK/lwip/lwip-2.1.2/src/core/ipv4\ip4.c ****     IPH_CHKSUM_SET(iphdr, 0);
 959:C:/Users/stapi/OneDrive/Desktop/GD32VW553/V1_MQTT_OK/GD32VW55X_Wifi_BLE_SDK/GD32VW55x_RELEASE_V1.0.2/MSDK/lwip/lwip-2.1.2/src/core/ipv4\ip4.c **** #if CHECKSUM_GEN_IP
 960:C:/Users/stapi/OneDrive/Desktop/GD32VW553/V1_MQTT_OK/GD32VW55X_Wifi_BLE_SDK/GD32VW55x_RELEASE_V1.0.2/MSDK/lwip/lwip-2.1.2/src/core/ipv4\ip4.c ****     IF__NETIF_CHECKSUM_ENABLED(netif, NETIF_CHECKSUM_GEN_IP) {
 961:C:/Users/stapi/OneDrive/Desktop/GD32VW553/V1_MQTT_OK/GD32VW55X_Wifi_BLE_SDK/GD32VW55x_RELEASE_V1.0.2/MSDK/lwip/lwip-2.1.2/src/core/ipv4\ip4.c ****       IPH_CHKSUM_SET(iphdr, inet_chksum(iphdr, ip_hlen));
 962:C:/Users/stapi/OneDrive/Desktop/GD32VW553/V1_MQTT_OK/GD32VW55X_Wifi_BLE_SDK/GD32VW55x_RELEASE_V1.0.2/MSDK/lwip/lwip-2.1.2/src/core/ipv4\ip4.c ****     }
 963:C:/Users/stapi/OneDrive/Desktop/GD32VW553/V1_MQTT_OK/GD32VW55X_Wifi_BLE_SDK/GD32VW55x_RELEASE_V1.0.2/MSDK/lwip/lwip-2.1.2/src/core/ipv4\ip4.c **** #endif /* CHECKSUM_GEN_IP */
 964:C:/Users/stapi/OneDrive/Desktop/GD32VW553/V1_MQTT_OK/GD32VW55X_Wifi_BLE_SDK/GD32VW55x_RELEASE_V1.0.2/MSDK/lwip/lwip-2.1.2/src/core/ipv4\ip4.c **** #endif /* CHECKSUM_GEN_IP_INLINE */
 965:C:/Users/stapi/OneDrive/Desktop/GD32VW553/V1_MQTT_OK/GD32VW55X_Wifi_BLE_SDK/GD32VW55x_RELEASE_V1.0.2/MSDK/lwip/lwip-2.1.2/src/core/ipv4\ip4.c ****   } else {
 966:C:/Users/stapi/OneDrive/Desktop/GD32VW553/V1_MQTT_OK/GD32VW55X_Wifi_BLE_SDK/GD32VW55x_RELEASE_V1.0.2/MSDK/lwip/lwip-2.1.2/src/core/ipv4\ip4.c ****     /* IP header already included in p */
 967:C:/Users/stapi/OneDrive/Desktop/GD32VW553/V1_MQTT_OK/GD32VW55X_Wifi_BLE_SDK/GD32VW55x_RELEASE_V1.0.2/MSDK/lwip/lwip-2.1.2/src/core/ipv4\ip4.c ****     if (p->len < IP_HLEN) {
 968:C:/Users/stapi/OneDrive/Desktop/GD32VW553/V1_MQTT_OK/GD32VW55X_Wifi_BLE_SDK/GD32VW55x_RELEASE_V1.0.2/MSDK/lwip/lwip-2.1.2/src/core/ipv4\ip4.c ****       LWIP_DEBUGF(IP_DEBUG | LWIP_DBG_LEVEL_SERIOUS, ("ip4_output: LWIP_IP_HDRINCL but pbuf is too 
 969:C:/Users/stapi/OneDrive/Desktop/GD32VW553/V1_MQTT_OK/GD32VW55X_Wifi_BLE_SDK/GD32VW55x_RELEASE_V1.0.2/MSDK/lwip/lwip-2.1.2/src/core/ipv4\ip4.c ****       IP_STATS_INC(ip.err);
 970:C:/Users/stapi/OneDrive/Desktop/GD32VW553/V1_MQTT_OK/GD32VW55X_Wifi_BLE_SDK/GD32VW55x_RELEASE_V1.0.2/MSDK/lwip/lwip-2.1.2/src/core/ipv4\ip4.c ****       MIB2_STATS_INC(mib2.ipoutdiscards);
 971:C:/Users/stapi/OneDrive/Desktop/GD32VW553/V1_MQTT_OK/GD32VW55X_Wifi_BLE_SDK/GD32VW55x_RELEASE_V1.0.2/MSDK/lwip/lwip-2.1.2/src/core/ipv4\ip4.c ****       return ERR_BUF;
 972:C:/Users/stapi/OneDrive/Desktop/GD32VW553/V1_MQTT_OK/GD32VW55X_Wifi_BLE_SDK/GD32VW55x_RELEASE_V1.0.2/MSDK/lwip/lwip-2.1.2/src/core/ipv4\ip4.c ****     }
 973:C:/Users/stapi/OneDrive/Desktop/GD32VW553/V1_MQTT_OK/GD32VW55X_Wifi_BLE_SDK/GD32VW55x_RELEASE_V1.0.2/MSDK/lwip/lwip-2.1.2/src/core/ipv4\ip4.c ****     iphdr = (struct ip_hdr *)p->payload;
 974:C:/Users/stapi/OneDrive/Desktop/GD32VW553/V1_MQTT_OK/GD32VW55X_Wifi_BLE_SDK/GD32VW55x_RELEASE_V1.0.2/MSDK/lwip/lwip-2.1.2/src/core/ipv4\ip4.c ****     ip4_addr_copy(dest_addr, iphdr->dest);
 975:C:/Users/stapi/OneDrive/Desktop/GD32VW553/V1_MQTT_OK/GD32VW55X_Wifi_BLE_SDK/GD32VW55x_RELEASE_V1.0.2/MSDK/lwip/lwip-2.1.2/src/core/ipv4\ip4.c ****     dest = &dest_addr;
 976:C:/Users/stapi/OneDrive/Desktop/GD32VW553/V1_MQTT_OK/GD32VW55X_Wifi_BLE_SDK/GD32VW55x_RELEASE_V1.0.2/MSDK/lwip/lwip-2.1.2/src/core/ipv4\ip4.c ****   }
 977:C:/Users/stapi/OneDrive/Desktop/GD32VW553/V1_MQTT_OK/GD32VW55X_Wifi_BLE_SDK/GD32VW55x_RELEASE_V1.0.2/MSDK/lwip/lwip-2.1.2/src/core/ipv4\ip4.c **** 
 978:C:/Users/stapi/OneDrive/Desktop/GD32VW553/V1_MQTT_OK/GD32VW55X_Wifi_BLE_SDK/GD32VW55x_RELEASE_V1.0.2/MSDK/lwip/lwip-2.1.2/src/core/ipv4\ip4.c ****   IP_STATS_INC(ip.xmit);
 979:C:/Users/stapi/OneDrive/Desktop/GD32VW553/V1_MQTT_OK/GD32VW55X_Wifi_BLE_SDK/GD32VW55x_RELEASE_V1.0.2/MSDK/lwip/lwip-2.1.2/src/core/ipv4\ip4.c **** 
 980:C:/Users/stapi/OneDrive/Desktop/GD32VW553/V1_MQTT_OK/GD32VW55X_Wifi_BLE_SDK/GD32VW55x_RELEASE_V1.0.2/MSDK/lwip/lwip-2.1.2/src/core/ipv4\ip4.c ****   LWIP_DEBUGF(IP_DEBUG, ("ip4_output_if: %c%c%"U16_F"\n", netif->name[0], netif->name[1], (u16_t)ne
 981:C:/Users/stapi/OneDrive/Desktop/GD32VW553/V1_MQTT_OK/GD32VW55X_Wifi_BLE_SDK/GD32VW55x_RELEASE_V1.0.2/MSDK/lwip/lwip-2.1.2/src/core/ipv4\ip4.c ****   ip4_debug_print(p);
 982:C:/Users/stapi/OneDrive/Desktop/GD32VW553/V1_MQTT_OK/GD32VW55X_Wifi_BLE_SDK/GD32VW55x_RELEASE_V1.0.2/MSDK/lwip/lwip-2.1.2/src/core/ipv4\ip4.c **** 
 983:C:/Users/stapi/OneDrive/Desktop/GD32VW553/V1_MQTT_OK/GD32VW55X_Wifi_BLE_SDK/GD32VW55x_RELEASE_V1.0.2/MSDK/lwip/lwip-2.1.2/src/core/ipv4\ip4.c **** #if ENABLE_LOOPBACK
 984:C:/Users/stapi/OneDrive/Desktop/GD32VW553/V1_MQTT_OK/GD32VW55X_Wifi_BLE_SDK/GD32VW55x_RELEASE_V1.0.2/MSDK/lwip/lwip-2.1.2/src/core/ipv4\ip4.c ****   if (ip4_addr_cmp(dest, netif_ip4_addr(netif))
 985:C:/Users/stapi/OneDrive/Desktop/GD32VW553/V1_MQTT_OK/GD32VW55X_Wifi_BLE_SDK/GD32VW55x_RELEASE_V1.0.2/MSDK/lwip/lwip-2.1.2/src/core/ipv4\ip4.c **** #if !LWIP_HAVE_LOOPIF
 986:C:/Users/stapi/OneDrive/Desktop/GD32VW553/V1_MQTT_OK/GD32VW55X_Wifi_BLE_SDK/GD32VW55x_RELEASE_V1.0.2/MSDK/lwip/lwip-2.1.2/src/core/ipv4\ip4.c ****       || ip4_addr_isloopback(dest)
 987:C:/Users/stapi/OneDrive/Desktop/GD32VW553/V1_MQTT_OK/GD32VW55X_Wifi_BLE_SDK/GD32VW55x_RELEASE_V1.0.2/MSDK/lwip/lwip-2.1.2/src/core/ipv4\ip4.c **** #endif /* !LWIP_HAVE_LOOPIF */
 988:C:/Users/stapi/OneDrive/Desktop/GD32VW553/V1_MQTT_OK/GD32VW55X_Wifi_BLE_SDK/GD32VW55x_RELEASE_V1.0.2/MSDK/lwip/lwip-2.1.2/src/core/ipv4\ip4.c ****      ) {
 989:C:/Users/stapi/OneDrive/Desktop/GD32VW553/V1_MQTT_OK/GD32VW55X_Wifi_BLE_SDK/GD32VW55x_RELEASE_V1.0.2/MSDK/lwip/lwip-2.1.2/src/core/ipv4\ip4.c ****     /* Packet to self, enqueue it for loopback */
 990:C:/Users/stapi/OneDrive/Desktop/GD32VW553/V1_MQTT_OK/GD32VW55X_Wifi_BLE_SDK/GD32VW55x_RELEASE_V1.0.2/MSDK/lwip/lwip-2.1.2/src/core/ipv4\ip4.c ****     LWIP_DEBUGF(IP_DEBUG, ("netif_loop_output()"));
 991:C:/Users/stapi/OneDrive/Desktop/GD32VW553/V1_MQTT_OK/GD32VW55X_Wifi_BLE_SDK/GD32VW55x_RELEASE_V1.0.2/MSDK/lwip/lwip-2.1.2/src/core/ipv4\ip4.c ****     return netif_loop_output(netif, p);
 992:C:/Users/stapi/OneDrive/Desktop/GD32VW553/V1_MQTT_OK/GD32VW55X_Wifi_BLE_SDK/GD32VW55x_RELEASE_V1.0.2/MSDK/lwip/lwip-2.1.2/src/core/ipv4\ip4.c ****   }
 993:C:/Users/stapi/OneDrive/Desktop/GD32VW553/V1_MQTT_OK/GD32VW55X_Wifi_BLE_SDK/GD32VW55x_RELEASE_V1.0.2/MSDK/lwip/lwip-2.1.2/src/core/ipv4\ip4.c **** #if LWIP_MULTICAST_TX_OPTIONS
 994:C:/Users/stapi/OneDrive/Desktop/GD32VW553/V1_MQTT_OK/GD32VW55X_Wifi_BLE_SDK/GD32VW55x_RELEASE_V1.0.2/MSDK/lwip/lwip-2.1.2/src/core/ipv4\ip4.c ****   if ((p->flags & PBUF_FLAG_MCASTLOOP) != 0) {
 995:C:/Users/stapi/OneDrive/Desktop/GD32VW553/V1_MQTT_OK/GD32VW55X_Wifi_BLE_SDK/GD32VW55x_RELEASE_V1.0.2/MSDK/lwip/lwip-2.1.2/src/core/ipv4\ip4.c ****     netif_loop_output(netif, p);
 996:C:/Users/stapi/OneDrive/Desktop/GD32VW553/V1_MQTT_OK/GD32VW55X_Wifi_BLE_SDK/GD32VW55x_RELEASE_V1.0.2/MSDK/lwip/lwip-2.1.2/src/core/ipv4\ip4.c ****   }
 997:C:/Users/stapi/OneDrive/Desktop/GD32VW553/V1_MQTT_OK/GD32VW55X_Wifi_BLE_SDK/GD32VW55x_RELEASE_V1.0.2/MSDK/lwip/lwip-2.1.2/src/core/ipv4\ip4.c **** #endif /* LWIP_MULTICAST_TX_OPTIONS */
 998:C:/Users/stapi/OneDrive/Desktop/GD32VW553/V1_MQTT_OK/GD32VW55X_Wifi_BLE_SDK/GD32VW55x_RELEASE_V1.0.2/MSDK/lwip/lwip-2.1.2/src/core/ipv4\ip4.c **** #endif /* ENABLE_LOOPBACK */
 999:C:/Users/stapi/OneDrive/Desktop/GD32VW553/V1_MQTT_OK/GD32VW55X_Wifi_BLE_SDK/GD32VW55x_RELEASE_V1.0.2/MSDK/lwip/lwip-2.1.2/src/core/ipv4\ip4.c **** #if IP_FRAG
1000:C:/Users/stapi/OneDrive/Desktop/GD32VW553/V1_MQTT_OK/GD32VW55X_Wifi_BLE_SDK/GD32VW55x_RELEASE_V1.0.2/MSDK/lwip/lwip-2.1.2/src/core/ipv4\ip4.c ****   /* don't fragment if interface has mtu set to 0 [loopif] */
1001:C:/Users/stapi/OneDrive/Desktop/GD32VW553/V1_MQTT_OK/GD32VW55X_Wifi_BLE_SDK/GD32VW55x_RELEASE_V1.0.2/MSDK/lwip/lwip-2.1.2/src/core/ipv4\ip4.c ****   if (netif->mtu && (p->tot_len > netif->mtu)) {
1002:C:/Users/stapi/OneDrive/Desktop/GD32VW553/V1_MQTT_OK/GD32VW55X_Wifi_BLE_SDK/GD32VW55x_RELEASE_V1.0.2/MSDK/lwip/lwip-2.1.2/src/core/ipv4\ip4.c ****     return ip4_frag(p, netif, dest);
1003:C:/Users/stapi/OneDrive/Desktop/GD32VW553/V1_MQTT_OK/GD32VW55X_Wifi_BLE_SDK/GD32VW55x_RELEASE_V1.0.2/MSDK/lwip/lwip-2.1.2/src/core/ipv4\ip4.c ****   }
1004:C:/Users/stapi/OneDrive/Desktop/GD32VW553/V1_MQTT_OK/GD32VW55X_Wifi_BLE_SDK/GD32VW55x_RELEASE_V1.0.2/MSDK/lwip/lwip-2.1.2/src/core/ipv4\ip4.c **** #endif /* IP_FRAG */
1005:C:/Users/stapi/OneDrive/Desktop/GD32VW553/V1_MQTT_OK/GD32VW55X_Wifi_BLE_SDK/GD32VW55x_RELEASE_V1.0.2/MSDK/lwip/lwip-2.1.2/src/core/ipv4\ip4.c **** 
1006:C:/Users/stapi/OneDrive/Desktop/GD32VW553/V1_MQTT_OK/GD32VW55X_Wifi_BLE_SDK/GD32VW55x_RELEASE_V1.0.2/MSDK/lwip/lwip-2.1.2/src/core/ipv4\ip4.c ****   LWIP_DEBUGF(IP_DEBUG, ("ip4_output_if: call netif->output()\n"));
1007:C:/Users/stapi/OneDrive/Desktop/GD32VW553/V1_MQTT_OK/GD32VW55X_Wifi_BLE_SDK/GD32VW55x_RELEASE_V1.0.2/MSDK/lwip/lwip-2.1.2/src/core/ipv4\ip4.c ****   return netif->output(netif, p, dest);
1008:C:/Users/stapi/OneDrive/Desktop/GD32VW553/V1_MQTT_OK/GD32VW55X_Wifi_BLE_SDK/GD32VW55x_RELEASE_V1.0.2/MSDK/lwip/lwip-2.1.2/src/core/ipv4\ip4.c **** }
 819              		.loc 1 1008 1
 820 007e 4101     		addi	sp,sp,16
 821              		.cfi_remember_state
 822              		.cfi_def_cfa_offset 0
 823              	.LVL78:
 824 0080 17030000 		tail	__riscv_restore_11
 824      67000300 
 825              		.cfi_restore 26
 826              		.cfi_restore 25
 827              		.cfi_restore 24
 828              		.cfi_restore 23
 829              		.cfi_restore 22
 830              		.cfi_restore 21
 831              		.cfi_restore 20
 832              		.cfi_restore 19
 833              		.cfi_restore 18
 834              		.cfi_restore 9
 835              		.cfi_restore 8
 836              		.cfi_restore 1
 837              		.cfi_def_cfa_offset -48
 838              	.LVL79:
 839              	.L95:
 840              		.cfi_restore_state
 841              	.LBB32:
 842              	.LBB31:
 843              	.LBB26:
 844              	.LBB23:
 882:C:/Users/stapi/OneDrive/Desktop/GD32VW553/V1_MQTT_OK/GD32VW55X_Wifi_BLE_SDK/GD32VW55x_RELEASE_V1.0.2/MSDK/lwip/lwip-2.1.2/src/core/ipv4\ip4.c ****       if (optlen < optlen_aligned) {
 845              		.loc 1 882 7 is_stmt 1
 846 0088 C840     		lw	a0,4(s1)
 847 008a 6686     		mv	a2,s9
 848 008c EA85     		mv	a1,s10
 849 008e 97000000 		call	memcpy
 849      E7800000 
 850              	.LVL80:
 883:C:/Users/stapi/OneDrive/Desktop/GD32VW553/V1_MQTT_OK/GD32VW55X_Wifi_BLE_SDK/GD32VW55x_RELEASE_V1.0.2/MSDK/lwip/lwip-2.1.2/src/core/ipv4\ip4.c ****         /* zero the remaining bytes */
 851              		.loc 1 883 7
 883:C:/Users/stapi/OneDrive/Desktop/GD32VW553/V1_MQTT_OK/GD32VW55X_Wifi_BLE_SDK/GD32VW55x_RELEASE_V1.0.2/MSDK/lwip/lwip-2.1.2/src/core/ipv4\ip4.c ****         /* zero the remaining bytes */
 852              		.loc 1 883 10 is_stmt 0
 853 0096 63FB8C00 		bgeu	s9,s0,.L96
 885:C:/Users/stapi/OneDrive/Desktop/GD32VW553/V1_MQTT_OK/GD32VW55X_Wifi_BLE_SDK/GD32VW55x_RELEASE_V1.0.2/MSDK/lwip/lwip-2.1.2/src/core/ipv4\ip4.c ****       }
 854              		.loc 1 885 9 is_stmt 1
 855 009a C840     		lw	a0,4(s1)
 856 009c 33069441 		sub	a2,s0,s9
 857 00a0 8145     		li	a1,0
 858 00a2 6695     		add	a0,a0,s9
 859 00a4 97000000 		call	memset
 859      E7800000 
 860              	.LVL81:
 861              	.L96:
 888:C:/Users/stapi/OneDrive/Desktop/GD32VW553/V1_MQTT_OK/GD32VW55X_Wifi_BLE_SDK/GD32VW55x_RELEASE_V1.0.2/MSDK/lwip/lwip-2.1.2/src/core/ipv4\ip4.c ****         chk_sum += ((u16_t *)p->payload)[i];
 862              		.loc 1 888 7
 888:C:/Users/stapi/OneDrive/Desktop/GD32VW553/V1_MQTT_OK/GD32VW55X_Wifi_BLE_SDK/GD32VW55x_RELEASE_V1.0.2/MSDK/lwip/lwip-2.1.2/src/core/ipv4\ip4.c ****         chk_sum += ((u16_t *)p->payload)[i];
 863              		.loc 1 888 19
 889:C:/Users/stapi/OneDrive/Desktop/GD32VW553/V1_MQTT_OK/GD32VW55X_Wifi_BLE_SDK/GD32VW55x_RELEASE_V1.0.2/MSDK/lwip/lwip-2.1.2/src/core/ipv4\ip4.c ****       }
 864              		.loc 1 889 31 is_stmt 0
 865 00ac D440     		lw	a3,4(s1)
 888:C:/Users/stapi/OneDrive/Desktop/GD32VW553/V1_MQTT_OK/GD32VW55X_Wifi_BLE_SDK/GD32VW55x_RELEASE_V1.0.2/MSDK/lwip/lwip-2.1.2/src/core/ipv4\ip4.c ****         chk_sum += ((u16_t *)p->payload)[i];
 866              		.loc 1 888 38
 867 00ae 0580     		srli	s0,s0,1
 868              	.LVL82:
 869              	.LBE23:
 870              	.LBE26:
 848:C:/Users/stapi/OneDrive/Desktop/GD32VW553/V1_MQTT_OK/GD32VW55X_Wifi_BLE_SDK/GD32VW55x_RELEASE_V1.0.2/MSDK/lwip/lwip-2.1.2/src/core/ipv4\ip4.c **** #endif /* CHECKSUM_GEN_IP_INLINE */
 871              		.loc 1 848 9
 872 00b0 814C     		li	s9,0
 873              	.LVL83:
 874              	.LBB27:
 875              	.LBB24:
 888:C:/Users/stapi/OneDrive/Desktop/GD32VW553/V1_MQTT_OK/GD32VW55X_Wifi_BLE_SDK/GD32VW55x_RELEASE_V1.0.2/MSDK/lwip/lwip-2.1.2/src/core/ipv4\ip4.c ****         chk_sum += ((u16_t *)p->payload)[i];
 876              		.loc 1 888 14
 877 00b2 8147     		li	a5,0
 878              	.LVL84:
 879              	.L97:
 889:C:/Users/stapi/OneDrive/Desktop/GD32VW553/V1_MQTT_OK/GD32VW55X_Wifi_BLE_SDK/GD32VW55x_RELEASE_V1.0.2/MSDK/lwip/lwip-2.1.2/src/core/ipv4\ip4.c ****       }
 880              		.loc 1 889 9 is_stmt 1
 889:C:/Users/stapi/OneDrive/Desktop/GD32VW553/V1_MQTT_OK/GD32VW55X_Wifi_BLE_SDK/GD32VW55x_RELEASE_V1.0.2/MSDK/lwip/lwip-2.1.2/src/core/ipv4\ip4.c ****       }
 881              		.loc 1 889 41 is_stmt 0
 882 00b4 33A7D720 		sh1add	a4,a5,a3
 883 00b8 03570700 		lhu	a4,0(a4)
 888:C:/Users/stapi/OneDrive/Desktop/GD32VW553/V1_MQTT_OK/GD32VW55X_Wifi_BLE_SDK/GD32VW55x_RELEASE_V1.0.2/MSDK/lwip/lwip-2.1.2/src/core/ipv4\ip4.c ****         chk_sum += ((u16_t *)p->payload)[i];
 884              		.loc 1 888 44
 885 00bc 8507     		addi	a5,a5,1
 886              	.LVL85:
 889:C:/Users/stapi/OneDrive/Desktop/GD32VW553/V1_MQTT_OK/GD32VW55X_Wifi_BLE_SDK/GD32VW55x_RELEASE_V1.0.2/MSDK/lwip/lwip-2.1.2/src/core/ipv4\ip4.c ****       }
 887              		.loc 1 889 17
 888 00be BA9C     		add	s9,s9,a4
 889              	.LVL86:
 888:C:/Users/stapi/OneDrive/Desktop/GD32VW553/V1_MQTT_OK/GD32VW55X_Wifi_BLE_SDK/GD32VW55x_RELEASE_V1.0.2/MSDK/lwip/lwip-2.1.2/src/core/ipv4\ip4.c ****         chk_sum += ((u16_t *)p->payload)[i];
 890              		.loc 1 888 43 is_stmt 1
 888:C:/Users/stapi/OneDrive/Desktop/GD32VW553/V1_MQTT_OK/GD32VW55X_Wifi_BLE_SDK/GD32VW55x_RELEASE_V1.0.2/MSDK/lwip/lwip-2.1.2/src/core/ipv4\ip4.c ****         chk_sum += ((u16_t *)p->payload)[i];
 891              		.loc 1 888 19
 888:C:/Users/stapi/OneDrive/Desktop/GD32VW553/V1_MQTT_OK/GD32VW55X_Wifi_BLE_SDK/GD32VW55x_RELEASE_V1.0.2/MSDK/lwip/lwip-2.1.2/src/core/ipv4\ip4.c ****         chk_sum += ((u16_t *)p->payload)[i];
 892              		.loc 1 888 7 is_stmt 0
 893 00c0 E3CA87FE 		blt	a5,s0,.L97
 894              	.LVL87:
 895              	.L93:
 896              	.LBE24:
 895:C:/Users/stapi/OneDrive/Desktop/GD32VW553/V1_MQTT_OK/GD32VW55X_Wifi_BLE_SDK/GD32VW55x_RELEASE_V1.0.2/MSDK/lwip/lwip-2.1.2/src/core/ipv4\ip4.c ****       LWIP_DEBUGF(IP_DEBUG | LWIP_DBG_LEVEL_SERIOUS, ("ip4_output: not enough room for IP header in
 897              		.loc 1 895 5 is_stmt 1
 895:C:/Users/stapi/OneDrive/Desktop/GD32VW553/V1_MQTT_OK/GD32VW55X_Wifi_BLE_SDK/GD32VW55x_RELEASE_V1.0.2/MSDK/lwip/lwip-2.1.2/src/core/ipv4\ip4.c ****       LWIP_DEBUGF(IP_DEBUG | LWIP_DBG_LEVEL_SERIOUS, ("ip4_output: not enough room for IP header in
 898              		.loc 1 895 9 is_stmt 0
 899 00c4 D145     		li	a1,20
 900 00c6 2685     		mv	a0,s1
 901 00c8 97000000 		call	pbuf_add_header
 901      E7800000 
 902              	.LVL88:
 895:C:/Users/stapi/OneDrive/Desktop/GD32VW553/V1_MQTT_OK/GD32VW55X_Wifi_BLE_SDK/GD32VW55x_RELEASE_V1.0.2/MSDK/lwip/lwip-2.1.2/src/core/ipv4\ip4.c ****       LWIP_DEBUGF(IP_DEBUG | LWIP_DBG_LEVEL_SERIOUS, ("ip4_output: not enough room for IP header in
 903              		.loc 1 895 8
 904 00d0 55F5     		bne	a0,zero,.L98
 903:C:/Users/stapi/OneDrive/Desktop/GD32VW553/V1_MQTT_OK/GD32VW55X_Wifi_BLE_SDK/GD32VW55x_RELEASE_V1.0.2/MSDK/lwip/lwip-2.1.2/src/core/ipv4\ip4.c ****     LWIP_ASSERT("check that first pbuf can hold struct ip_hdr",
 905              		.loc 1 903 5 is_stmt 1
 906              	.LVL89:
 904:C:/Users/stapi/OneDrive/Desktop/GD32VW553/V1_MQTT_OK/GD32VW55X_Wifi_BLE_SDK/GD32VW55x_RELEASE_V1.0.2/MSDK/lwip/lwip-2.1.2/src/core/ipv4\ip4.c ****                 (p->len >= sizeof(struct ip_hdr)));
 907              		.loc 1 904 5
 904:C:/Users/stapi/OneDrive/Desktop/GD32VW553/V1_MQTT_OK/GD32VW55X_Wifi_BLE_SDK/GD32VW55x_RELEASE_V1.0.2/MSDK/lwip/lwip-2.1.2/src/core/ipv4\ip4.c ****                 (p->len >= sizeof(struct ip_hdr)));
 908              		.loc 1 904 5
 909 00d2 03D7A400 		lhu	a4,10(s1)
 910 00d6 CD47     		li	a5,19
 911 00d8 63E8E702 		bgtu	a4,a5,.L99
 904:C:/Users/stapi/OneDrive/Desktop/GD32VW553/V1_MQTT_OK/GD32VW55X_Wifi_BLE_SDK/GD32VW55x_RELEASE_V1.0.2/MSDK/lwip/lwip-2.1.2/src/core/ipv4\ip4.c ****                 (p->len >= sizeof(struct ip_hdr)));
 912              		.loc 1 904 5
 904:C:/Users/stapi/OneDrive/Desktop/GD32VW553/V1_MQTT_OK/GD32VW55X_Wifi_BLE_SDK/GD32VW55x_RELEASE_V1.0.2/MSDK/lwip/lwip-2.1.2/src/core/ipv4\ip4.c ****                 (p->len >= sizeof(struct ip_hdr)));
 913              		.loc 1 904 5
 914 00dc B7060000 		lui	a3,%hi(.LC0)
 915 00e0 B7050000 		lui	a1,%hi(.LC3)
 916 00e4 37050000 		lui	a0,%hi(.LC2)
 917 00e8 93860600 		addi	a3,a3,%lo(.LC0)
 918 00ec 13068038 		li	a2,904
 919 00f0 93850500 		addi	a1,a1,%lo(.LC3)
 920 00f4 13050500 		addi	a0,a0,%lo(.LC2)
 921 00f8 97000000 		call	printf
 921      E7800000 
 922              	.LVL90:
 923              	.L100:
 904:C:/Users/stapi/OneDrive/Desktop/GD32VW553/V1_MQTT_OK/GD32VW55X_Wifi_BLE_SDK/GD32VW55x_RELEASE_V1.0.2/MSDK/lwip/lwip-2.1.2/src/core/ipv4\ip4.c ****                 (p->len >= sizeof(struct ip_hdr)));
 924              		.loc 1 904 5
 904:C:/Users/stapi/OneDrive/Desktop/GD32VW553/V1_MQTT_OK/GD32VW55X_Wifi_BLE_SDK/GD32VW55x_RELEASE_V1.0.2/MSDK/lwip/lwip-2.1.2/src/core/ipv4\ip4.c ****                 (p->len >= sizeof(struct ip_hdr)));
 925              		.loc 1 904 5
 904:C:/Users/stapi/OneDrive/Desktop/GD32VW553/V1_MQTT_OK/GD32VW55X_Wifi_BLE_SDK/GD32VW55x_RELEASE_V1.0.2/MSDK/lwip/lwip-2.1.2/src/core/ipv4\ip4.c ****                 (p->len >= sizeof(struct ip_hdr)));
 926              		.loc 1 904 5
 927 0100 01A0     		j	.L100
 928              	.LVL91:
 929              	.L107:
 858:C:/Users/stapi/OneDrive/Desktop/GD32VW553/V1_MQTT_OK/GD32VW55X_Wifi_BLE_SDK/GD32VW55x_RELEASE_V1.0.2/MSDK/lwip/lwip-2.1.2/src/core/ipv4\ip4.c **** #if IP_OPTIONS_SEND
 930              		.loc 1 858 11 is_stmt 0
 931 0102 5149     		li	s2,20
 932              	.LBE27:
 848:C:/Users/stapi/OneDrive/Desktop/GD32VW553/V1_MQTT_OK/GD32VW55X_Wifi_BLE_SDK/GD32VW55x_RELEASE_V1.0.2/MSDK/lwip/lwip-2.1.2/src/core/ipv4\ip4.c **** #endif /* CHECKSUM_GEN_IP_INLINE */
 933              		.loc 1 848 9
 934 0104 814C     		li	s9,0
 935              	.LVL92:
 936 0106 7DBF     		j	.L93
 937              	.LVL93:
 938              	.L99:
 939              	.LBB28:
 903:C:/Users/stapi/OneDrive/Desktop/GD32VW553/V1_MQTT_OK/GD32VW55X_Wifi_BLE_SDK/GD32VW55x_RELEASE_V1.0.2/MSDK/lwip/lwip-2.1.2/src/core/ipv4\ip4.c ****     LWIP_ASSERT("check that first pbuf can hold struct ip_hdr",
 940              		.loc 1 903 11
 941 0108 C040     		lw	s0,4(s1)
 904:C:/Users/stapi/OneDrive/Desktop/GD32VW553/V1_MQTT_OK/GD32VW55X_Wifi_BLE_SDK/GD32VW55x_RELEASE_V1.0.2/MSDK/lwip/lwip-2.1.2/src/core/ipv4\ip4.c ****                 (p->len >= sizeof(struct ip_hdr)));
 942              		.loc 1 904 5 is_stmt 1
 904:C:/Users/stapi/OneDrive/Desktop/GD32VW553/V1_MQTT_OK/GD32VW55X_Wifi_BLE_SDK/GD32VW55x_RELEASE_V1.0.2/MSDK/lwip/lwip-2.1.2/src/core/ipv4\ip4.c ****                 (p->len >= sizeof(struct ip_hdr)));
 943              		.loc 1 904 5
 907:C:/Users/stapi/OneDrive/Desktop/GD32VW553/V1_MQTT_OK/GD32VW55X_Wifi_BLE_SDK/GD32VW55x_RELEASE_V1.0.2/MSDK/lwip/lwip-2.1.2/src/core/ipv4\ip4.c ****     IPH_PROTO_SET(iphdr, proto);
 944              		.loc 1 907 5
 920:C:/Users/stapi/OneDrive/Desktop/GD32VW553/V1_MQTT_OK/GD32VW55X_Wifi_BLE_SDK/GD32VW55x_RELEASE_V1.0.2/MSDK/lwip/lwip-2.1.2/src/core/ipv4\ip4.c ****     IPH_TOS_SET(iphdr, tos);
 945              		.loc 1 920 5 is_stmt 0
 946 010a 13592900 		srli	s2,s2,2
 947              	.LVL94:
 948 010e 13690904 		ori	s2,s2,64
 907:C:/Users/stapi/OneDrive/Desktop/GD32VW553/V1_MQTT_OK/GD32VW55X_Wifi_BLE_SDK/GD32VW55x_RELEASE_V1.0.2/MSDK/lwip/lwip-2.1.2/src/core/ipv4\ip4.c ****     IPH_PROTO_SET(iphdr, proto);
 949              		.loc 1 907 5
 950 0112 23046401 		sb	s6,8(s0)
 951              	.LVL95:
 908:C:/Users/stapi/OneDrive/Desktop/GD32VW553/V1_MQTT_OK/GD32VW55X_Wifi_BLE_SDK/GD32VW55x_RELEASE_V1.0.2/MSDK/lwip/lwip-2.1.2/src/core/ipv4\ip4.c **** #if CHECKSUM_GEN_IP_INLINE
 952              		.loc 1 908 5 is_stmt 1
 953 0116 A3048401 		sb	s8,9(s0)
 910:C:/Users/stapi/OneDrive/Desktop/GD32VW553/V1_MQTT_OK/GD32VW55X_Wifi_BLE_SDK/GD32VW55x_RELEASE_V1.0.2/MSDK/lwip/lwip-2.1.2/src/core/ipv4\ip4.c **** #endif /* CHECKSUM_GEN_IP_INLINE */
 954              		.loc 1 910 5
 914:C:/Users/stapi/OneDrive/Desktop/GD32VW553/V1_MQTT_OK/GD32VW55X_Wifi_BLE_SDK/GD32VW55x_RELEASE_V1.0.2/MSDK/lwip/lwip-2.1.2/src/core/ipv4\ip4.c **** #if CHECKSUM_GEN_IP_INLINE
 955              		.loc 1 914 5 is_stmt 0
 956 011a 03270A00 		lw	a4,0(s4)
 910:C:/Users/stapi/OneDrive/Desktop/GD32VW553/V1_MQTT_OK/GD32VW55X_Wifi_BLE_SDK/GD32VW55x_RELEASE_V1.0.2/MSDK/lwip/lwip-2.1.2/src/core/ipv4\ip4.c **** #endif /* CHECKSUM_GEN_IP_INLINE */
 957              		.loc 1 910 16
 958 011e 220B     		slli	s6,s6,8
 959 0120 336C8B01 		or	s8,s6,s8
 960              	.LVL96:
 914:C:/Users/stapi/OneDrive/Desktop/GD32VW553/V1_MQTT_OK/GD32VW55X_Wifi_BLE_SDK/GD32VW55x_RELEASE_V1.0.2/MSDK/lwip/lwip-2.1.2/src/core/ipv4\ip4.c **** #if CHECKSUM_GEN_IP_INLINE
 961              		.loc 1 914 5 is_stmt 1
 962 0124 93578700 		srli	a5,a4,8
 963 0128 A308F400 		sb	a5,17(s0)
 964 012c 93578701 		srli	a5,a4,24
 965 0130 93560701 		srli	a3,a4,16
 966 0134 A309F400 		sb	a5,19(s0)
 916:C:/Users/stapi/OneDrive/Desktop/GD32VW553/V1_MQTT_OK/GD32VW55X_Wifi_BLE_SDK/GD32VW55x_RELEASE_V1.0.2/MSDK/lwip/lwip-2.1.2/src/core/ipv4\ip4.c ****     chk_sum += ip4_addr_get_u32(&iphdr->dest) >> 16;
 967              		.loc 1 916 5
 968              	.LVL97:
 917:C:/Users/stapi/OneDrive/Desktop/GD32VW553/V1_MQTT_OK/GD32VW55X_Wifi_BLE_SDK/GD32VW55x_RELEASE_V1.0.2/MSDK/lwip/lwip-2.1.2/src/core/ipv4\ip4.c **** #endif /* CHECKSUM_GEN_IP_INLINE */
 969              		.loc 1 917 5
 920:C:/Users/stapi/OneDrive/Desktop/GD32VW553/V1_MQTT_OK/GD32VW55X_Wifi_BLE_SDK/GD32VW55x_RELEASE_V1.0.2/MSDK/lwip/lwip-2.1.2/src/core/ipv4\ip4.c ****     IPH_TOS_SET(iphdr, tos);
 970              		.loc 1 920 5 is_stmt 0
 971 0138 1379F90F 		andi	s2,s2,0xff
 910:C:/Users/stapi/OneDrive/Desktop/GD32VW553/V1_MQTT_OK/GD32VW55X_Wifi_BLE_SDK/GD32VW55x_RELEASE_V1.0.2/MSDK/lwip/lwip-2.1.2/src/core/ipv4\ip4.c **** #endif /* CHECKSUM_GEN_IP_INLINE */
 972              		.loc 1 910 16
 973 013c 93178C00 		slli	a5,s8,8
 974              	.LVL98:
 975 0140 135C8C40 		srai	s8,s8,8
 976              	.LVL99:
 920:C:/Users/stapi/OneDrive/Desktop/GD32VW553/V1_MQTT_OK/GD32VW55X_Wifi_BLE_SDK/GD32VW55x_RELEASE_V1.0.2/MSDK/lwip/lwip-2.1.2/src/core/ipv4\ip4.c ****     IPH_TOS_SET(iphdr, tos);
 977              		.loc 1 920 5
 978 0144 23002401 		sb	s2,0(s0)
 914:C:/Users/stapi/OneDrive/Desktop/GD32VW553/V1_MQTT_OK/GD32VW55X_Wifi_BLE_SDK/GD32VW55x_RELEASE_V1.0.2/MSDK/lwip/lwip-2.1.2/src/core/ipv4\ip4.c **** #if CHECKSUM_GEN_IP_INLINE
 979              		.loc 1 914 5
 980 0148 2308E400 		sb	a4,16(s0)
 921:C:/Users/stapi/OneDrive/Desktop/GD32VW553/V1_MQTT_OK/GD32VW55X_Wifi_BLE_SDK/GD32VW55x_RELEASE_V1.0.2/MSDK/lwip/lwip-2.1.2/src/core/ipv4\ip4.c **** #if CHECKSUM_GEN_IP_INLINE
 981              		.loc 1 921 5
 982 014c A3007401 		sb	s7,1(s0)
 923:C:/Users/stapi/OneDrive/Desktop/GD32VW553/V1_MQTT_OK/GD32VW55X_Wifi_BLE_SDK/GD32VW55x_RELEASE_V1.0.2/MSDK/lwip/lwip-2.1.2/src/core/ipv4\ip4.c **** #endif /* CHECKSUM_GEN_IP_INLINE */
 983              		.loc 1 923 16
 984 0150 2209     		slli	s2,s2,8
 910:C:/Users/stapi/OneDrive/Desktop/GD32VW553/V1_MQTT_OK/GD32VW55X_Wifi_BLE_SDK/GD32VW55x_RELEASE_V1.0.2/MSDK/lwip/lwip-2.1.2/src/core/ipv4\ip4.c **** #endif /* CHECKSUM_GEN_IP_INLINE */
 985              		.loc 1 910 16
 986 0152 B3E78701 		or	a5,a5,s8
 987              	.LVL100:
 916:C:/Users/stapi/OneDrive/Desktop/GD32VW553/V1_MQTT_OK/GD32VW55X_Wifi_BLE_SDK/GD32VW55x_RELEASE_V1.0.2/MSDK/lwip/lwip-2.1.2/src/core/ipv4\ip4.c ****     chk_sum += ip4_addr_get_u32(&iphdr->dest) >> 16;
 988              		.loc 1 916 47
 989 0156 33470708 		zext.h	a4,a4
 917:C:/Users/stapi/OneDrive/Desktop/GD32VW553/V1_MQTT_OK/GD32VW55X_Wifi_BLE_SDK/GD32VW55x_RELEASE_V1.0.2/MSDK/lwip/lwip-2.1.2/src/core/ipv4\ip4.c **** #endif /* CHECKSUM_GEN_IP_INLINE */
 990              		.loc 1 917 13
 991 015a 3697     		add	a4,a4,a3
 925:C:/Users/stapi/OneDrive/Desktop/GD32VW553/V1_MQTT_OK/GD32VW55X_Wifi_BLE_SDK/GD32VW55x_RELEASE_V1.0.2/MSDK/lwip/lwip-2.1.2/src/core/ipv4\ip4.c **** #if CHECKSUM_GEN_IP_INLINE
 992              		.loc 1 925 5
 993 015c 03D58400 		lhu	a0,8(s1)
 910:C:/Users/stapi/OneDrive/Desktop/GD32VW553/V1_MQTT_OK/GD32VW55X_Wifi_BLE_SDK/GD32VW55x_RELEASE_V1.0.2/MSDK/lwip/lwip-2.1.2/src/core/ipv4\ip4.c **** #endif /* CHECKSUM_GEN_IP_INLINE */
 994              		.loc 1 910 16
 995 0160 B3C70708 		zext.h	a5,a5
 917:C:/Users/stapi/OneDrive/Desktop/GD32VW553/V1_MQTT_OK/GD32VW55X_Wifi_BLE_SDK/GD32VW55x_RELEASE_V1.0.2/MSDK/lwip/lwip-2.1.2/src/core/ipv4\ip4.c **** #endif /* CHECKSUM_GEN_IP_INLINE */
 996              		.loc 1 917 13
 997 0164 BA97     		add	a5,a5,a4
 923:C:/Users/stapi/OneDrive/Desktop/GD32VW553/V1_MQTT_OK/GD32VW55X_Wifi_BLE_SDK/GD32VW55x_RELEASE_V1.0.2/MSDK/lwip/lwip-2.1.2/src/core/ipv4\ip4.c **** #endif /* CHECKSUM_GEN_IP_INLINE */
 998              		.loc 1 923 16
 999 0166 33677901 		or	a4,s2,s7
 1000 016a 13198700 		slli	s2,a4,8
 1001 016e 2187     		srai	a4,a4,8
 917:C:/Users/stapi/OneDrive/Desktop/GD32VW553/V1_MQTT_OK/GD32VW55X_Wifi_BLE_SDK/GD32VW55x_RELEASE_V1.0.2/MSDK/lwip/lwip-2.1.2/src/core/ipv4\ip4.c **** #endif /* CHECKSUM_GEN_IP_INLINE */
 1002              		.loc 1 917 13
 1003 0170 E697     		add	a5,a5,s9
 1004              	.LVL101:
 920:C:/Users/stapi/OneDrive/Desktop/GD32VW553/V1_MQTT_OK/GD32VW55X_Wifi_BLE_SDK/GD32VW55x_RELEASE_V1.0.2/MSDK/lwip/lwip-2.1.2/src/core/ipv4\ip4.c ****     IPH_TOS_SET(iphdr, tos);
 1005              		.loc 1 920 5 is_stmt 1
 921:C:/Users/stapi/OneDrive/Desktop/GD32VW553/V1_MQTT_OK/GD32VW55X_Wifi_BLE_SDK/GD32VW55x_RELEASE_V1.0.2/MSDK/lwip/lwip-2.1.2/src/core/ipv4\ip4.c **** #if CHECKSUM_GEN_IP_INLINE
 1006              		.loc 1 921 5
 923:C:/Users/stapi/OneDrive/Desktop/GD32VW553/V1_MQTT_OK/GD32VW55X_Wifi_BLE_SDK/GD32VW55x_RELEASE_V1.0.2/MSDK/lwip/lwip-2.1.2/src/core/ipv4\ip4.c **** #endif /* CHECKSUM_GEN_IP_INLINE */
 1007              		.loc 1 923 5
 923:C:/Users/stapi/OneDrive/Desktop/GD32VW553/V1_MQTT_OK/GD32VW55X_Wifi_BLE_SDK/GD32VW55x_RELEASE_V1.0.2/MSDK/lwip/lwip-2.1.2/src/core/ipv4\ip4.c **** #endif /* CHECKSUM_GEN_IP_INLINE */
 1008              		.loc 1 923 16 is_stmt 0
 1009 0172 3369E900 		or	s2,s2,a4
 914:C:/Users/stapi/OneDrive/Desktop/GD32VW553/V1_MQTT_OK/GD32VW55X_Wifi_BLE_SDK/GD32VW55x_RELEASE_V1.0.2/MSDK/lwip/lwip-2.1.2/src/core/ipv4\ip4.c **** #if CHECKSUM_GEN_IP_INLINE
 1010              		.loc 1 914 5
 1011 0176 2309D400 		sb	a3,18(s0)
 930:C:/Users/stapi/OneDrive/Desktop/GD32VW553/V1_MQTT_OK/GD32VW55X_Wifi_BLE_SDK/GD32VW55x_RELEASE_V1.0.2/MSDK/lwip/lwip-2.1.2/src/core/ipv4\ip4.c **** #if CHECKSUM_GEN_IP_INLINE
 1012              		.loc 1 930 5
 1013 017a 370B0000 		lui	s6,%hi(.LANCHOR1)
 1014 017e 130B0B00 		addi	s6,s6,%lo(.LANCHOR1)
 923:C:/Users/stapi/OneDrive/Desktop/GD32VW553/V1_MQTT_OK/GD32VW55X_Wifi_BLE_SDK/GD32VW55x_RELEASE_V1.0.2/MSDK/lwip/lwip-2.1.2/src/core/ipv4\ip4.c **** #endif /* CHECKSUM_GEN_IP_INLINE */
 1015              		.loc 1 923 16
 1016 0182 33490908 		zext.h	s2,s2
 923:C:/Users/stapi/OneDrive/Desktop/GD32VW553/V1_MQTT_OK/GD32VW55X_Wifi_BLE_SDK/GD32VW55x_RELEASE_V1.0.2/MSDK/lwip/lwip-2.1.2/src/core/ipv4\ip4.c **** #endif /* CHECKSUM_GEN_IP_INLINE */
 1017              		.loc 1 923 13
 1018 0186 3E99     		add	s2,s2,a5
 1019              	.LVL102:
 925:C:/Users/stapi/OneDrive/Desktop/GD32VW553/V1_MQTT_OK/GD32VW55X_Wifi_BLE_SDK/GD32VW55x_RELEASE_V1.0.2/MSDK/lwip/lwip-2.1.2/src/core/ipv4\ip4.c **** #if CHECKSUM_GEN_IP_INLINE
 1020              		.loc 1 925 5 is_stmt 1
 1021 0188 97000000 		call	lwip_htons
 1021      E7800000 
 1022              	.LVL103:
 1023 0190 93578500 		srli	a5,a0,8
 1024 0194 2301A400 		sb	a0,2(s0)
 927:C:/Users/stapi/OneDrive/Desktop/GD32VW553/V1_MQTT_OK/GD32VW55X_Wifi_BLE_SDK/GD32VW55x_RELEASE_V1.0.2/MSDK/lwip/lwip-2.1.2/src/core/ipv4\ip4.c **** #endif /* CHECKSUM_GEN_IP_INLINE */
 1025              		.loc 1 927 13 is_stmt 0
 1026 0198 2A99     		add	s2,a0,s2
 1027              	.LVL104:
 930:C:/Users/stapi/OneDrive/Desktop/GD32VW553/V1_MQTT_OK/GD32VW55X_Wifi_BLE_SDK/GD32VW55x_RELEASE_V1.0.2/MSDK/lwip/lwip-2.1.2/src/core/ipv4\ip4.c **** #if CHECKSUM_GEN_IP_INLINE
 1028              		.loc 1 930 5
 1029 019a 03550B00 		lhu	a0,0(s6)
 925:C:/Users/stapi/OneDrive/Desktop/GD32VW553/V1_MQTT_OK/GD32VW55X_Wifi_BLE_SDK/GD32VW55x_RELEASE_V1.0.2/MSDK/lwip/lwip-2.1.2/src/core/ipv4\ip4.c **** #if CHECKSUM_GEN_IP_INLINE
 1030              		.loc 1 925 5
 1031 019e A301F400 		sb	a5,3(s0)
 927:C:/Users/stapi/OneDrive/Desktop/GD32VW553/V1_MQTT_OK/GD32VW55X_Wifi_BLE_SDK/GD32VW55x_RELEASE_V1.0.2/MSDK/lwip/lwip-2.1.2/src/core/ipv4\ip4.c **** #endif /* CHECKSUM_GEN_IP_INLINE */
 1032              		.loc 1 927 5 is_stmt 1
 1033              	.LVL105:
 929:C:/Users/stapi/OneDrive/Desktop/GD32VW553/V1_MQTT_OK/GD32VW55X_Wifi_BLE_SDK/GD32VW55x_RELEASE_V1.0.2/MSDK/lwip/lwip-2.1.2/src/core/ipv4\ip4.c ****     IPH_ID_SET(iphdr, lwip_htons(ip_id));
 1034              		.loc 1 929 5
 1035 01a2 23030400 		sb	zero,6(s0)
 1036 01a6 A3030400 		sb	zero,7(s0)
 930:C:/Users/stapi/OneDrive/Desktop/GD32VW553/V1_MQTT_OK/GD32VW55X_Wifi_BLE_SDK/GD32VW55x_RELEASE_V1.0.2/MSDK/lwip/lwip-2.1.2/src/core/ipv4\ip4.c **** #if CHECKSUM_GEN_IP_INLINE
 1037              		.loc 1 930 5
 1038 01aa 97000000 		call	lwip_htons
 1038      E7800000 
 1039              	.LVL106:
 1040 01b2 93578500 		srli	a5,a0,8
 1041 01b6 A302F400 		sb	a5,5(s0)
 932:C:/Users/stapi/OneDrive/Desktop/GD32VW553/V1_MQTT_OK/GD32VW55X_Wifi_BLE_SDK/GD32VW55x_RELEASE_V1.0.2/MSDK/lwip/lwip-2.1.2/src/core/ipv4\ip4.c **** #endif /* CHECKSUM_GEN_IP_INLINE */
 1042              		.loc 1 932 5
 934:C:/Users/stapi/OneDrive/Desktop/GD32VW553/V1_MQTT_OK/GD32VW55X_Wifi_BLE_SDK/GD32VW55x_RELEASE_V1.0.2/MSDK/lwip/lwip-2.1.2/src/core/ipv4\ip4.c **** 
 1043              		.loc 1 934 5 is_stmt 0
 1044 01ba 83570B00 		lhu	a5,0(s6)
 930:C:/Users/stapi/OneDrive/Desktop/GD32VW553/V1_MQTT_OK/GD32VW55X_Wifi_BLE_SDK/GD32VW55x_RELEASE_V1.0.2/MSDK/lwip/lwip-2.1.2/src/core/ipv4\ip4.c **** #if CHECKSUM_GEN_IP_INLINE
 1045              		.loc 1 930 5
 1046 01be 2302A400 		sb	a0,4(s0)
 932:C:/Users/stapi/OneDrive/Desktop/GD32VW553/V1_MQTT_OK/GD32VW55X_Wifi_BLE_SDK/GD32VW55x_RELEASE_V1.0.2/MSDK/lwip/lwip-2.1.2/src/core/ipv4\ip4.c **** #endif /* CHECKSUM_GEN_IP_INLINE */
 1047              		.loc 1 932 13
 1048 01c2 4A95     		add	a0,a0,s2
 1049              	.LVL107:
 934:C:/Users/stapi/OneDrive/Desktop/GD32VW553/V1_MQTT_OK/GD32VW55X_Wifi_BLE_SDK/GD32VW55x_RELEASE_V1.0.2/MSDK/lwip/lwip-2.1.2/src/core/ipv4\ip4.c **** 
 1050              		.loc 1 934 5 is_stmt 1
 1051 01c4 8507     		addi	a5,a5,1
 1052 01c6 2310FB00 		sh	a5,0(s6)
 936:C:/Users/stapi/OneDrive/Desktop/GD32VW553/V1_MQTT_OK/GD32VW55X_Wifi_BLE_SDK/GD32VW55x_RELEASE_V1.0.2/MSDK/lwip/lwip-2.1.2/src/core/ipv4\ip4.c ****       ip4_addr_copy(iphdr->src, *IP4_ADDR_ANY4);
 1053              		.loc 1 936 5
 936:C:/Users/stapi/OneDrive/Desktop/GD32VW553/V1_MQTT_OK/GD32VW55X_Wifi_BLE_SDK/GD32VW55x_RELEASE_V1.0.2/MSDK/lwip/lwip-2.1.2/src/core/ipv4\ip4.c ****       ip4_addr_copy(iphdr->src, *IP4_ADDR_ANY4);
 1054              		.loc 1 936 8 is_stmt 0
 1055 01ca 63970A06 		bne	s5,zero,.L101
 937:C:/Users/stapi/OneDrive/Desktop/GD32VW553/V1_MQTT_OK/GD32VW55X_Wifi_BLE_SDK/GD32VW55x_RELEASE_V1.0.2/MSDK/lwip/lwip-2.1.2/src/core/ipv4\ip4.c ****     } else {
 1056              		.loc 1 937 7 is_stmt 1
 1057 01ce B7070000 		lui	a5,%hi(ip_addr_any)
 1058 01d2 83A70700 		lw	a5,%lo(ip_addr_any)(a5)
 1059              	.L102:
 1060 01d6 93D68701 		srli	a3,a5,24
 1061 01da A307D400 		sb	a3,15(s0)
 944:C:/Users/stapi/OneDrive/Desktop/GD32VW553/V1_MQTT_OK/GD32VW55X_Wifi_BLE_SDK/GD32VW55x_RELEASE_V1.0.2/MSDK/lwip/lwip-2.1.2/src/core/ipv4\ip4.c ****     chk_sum += ip4_addr_get_u32(&iphdr->src) >> 16;
 1062              		.loc 1 944 5
 944:C:/Users/stapi/OneDrive/Desktop/GD32VW553/V1_MQTT_OK/GD32VW55X_Wifi_BLE_SDK/GD32VW55x_RELEASE_V1.0.2/MSDK/lwip/lwip-2.1.2/src/core/ipv4\ip4.c ****     chk_sum += ip4_addr_get_u32(&iphdr->src) >> 16;
 1063              		.loc 1 944 46 is_stmt 0
 1064 01de C166     		li	a3,65536
 1065 01e0 13D78700 		srli	a4,a5,8
 1066 01e4 FD16     		addi	a3,a3,-1
 1067 01e6 2306F400 		sb	a5,12(s0)
 1068 01ea A306E400 		sb	a4,13(s0)
 1069 01ee 13D70701 		srli	a4,a5,16
 1070 01f2 F58F     		and	a5,a5,a3
 944:C:/Users/stapi/OneDrive/Desktop/GD32VW553/V1_MQTT_OK/GD32VW55X_Wifi_BLE_SDK/GD32VW55x_RELEASE_V1.0.2/MSDK/lwip/lwip-2.1.2/src/core/ipv4\ip4.c ****     chk_sum += ip4_addr_get_u32(&iphdr->src) >> 16;
 1071              		.loc 1 944 13
 1072 01f4 AA97     		add	a5,a5,a0
 1073              	.LVL108:
 945:C:/Users/stapi/OneDrive/Desktop/GD32VW553/V1_MQTT_OK/GD32VW55X_Wifi_BLE_SDK/GD32VW55x_RELEASE_V1.0.2/MSDK/lwip/lwip-2.1.2/src/core/ipv4\ip4.c ****     chk_sum = (chk_sum >> 16) + (chk_sum & 0xFFFF);
 1074              		.loc 1 945 5 is_stmt 1
 945:C:/Users/stapi/OneDrive/Desktop/GD32VW553/V1_MQTT_OK/GD32VW55X_Wifi_BLE_SDK/GD32VW55x_RELEASE_V1.0.2/MSDK/lwip/lwip-2.1.2/src/core/ipv4\ip4.c ****     chk_sum = (chk_sum >> 16) + (chk_sum & 0xFFFF);
 1075              		.loc 1 945 13 is_stmt 0
 1076 01f6 BA97     		add	a5,a4,a5
 1077              	.LVL109:
 946:C:/Users/stapi/OneDrive/Desktop/GD32VW553/V1_MQTT_OK/GD32VW55X_Wifi_BLE_SDK/GD32VW55x_RELEASE_V1.0.2/MSDK/lwip/lwip-2.1.2/src/core/ipv4\ip4.c ****     chk_sum = (chk_sum >> 16) + chk_sum;
 1078              		.loc 1 946 5 is_stmt 1
 1079 01f8 2307E400 		sb	a4,14(s0)
 946:C:/Users/stapi/OneDrive/Desktop/GD32VW553/V1_MQTT_OK/GD32VW55X_Wifi_BLE_SDK/GD32VW55x_RELEASE_V1.0.2/MSDK/lwip/lwip-2.1.2/src/core/ipv4\ip4.c ****     chk_sum = (chk_sum >> 16) + chk_sum;
 1080              		.loc 1 946 24 is_stmt 0
 1081 01fc 13D70701 		srli	a4,a5,16
 946:C:/Users/stapi/OneDrive/Desktop/GD32VW553/V1_MQTT_OK/GD32VW55X_Wifi_BLE_SDK/GD32VW55x_RELEASE_V1.0.2/MSDK/lwip/lwip-2.1.2/src/core/ipv4\ip4.c ****     chk_sum = (chk_sum >> 16) + chk_sum;
 1082              		.loc 1 946 42
 1083 0200 F58F     		and	a5,a5,a3
 1084              	.LVL110:
 946:C:/Users/stapi/OneDrive/Desktop/GD32VW553/V1_MQTT_OK/GD32VW55X_Wifi_BLE_SDK/GD32VW55x_RELEASE_V1.0.2/MSDK/lwip/lwip-2.1.2/src/core/ipv4\ip4.c ****     chk_sum = (chk_sum >> 16) + chk_sum;
 1085              		.loc 1 946 13
 1086 0202 BA97     		add	a5,a4,a5
 1087              	.LVL111:
 947:C:/Users/stapi/OneDrive/Desktop/GD32VW553/V1_MQTT_OK/GD32VW55X_Wifi_BLE_SDK/GD32VW55x_RELEASE_V1.0.2/MSDK/lwip/lwip-2.1.2/src/core/ipv4\ip4.c ****     chk_sum = ~chk_sum;
 1088              		.loc 1 947 5 is_stmt 1
 947:C:/Users/stapi/OneDrive/Desktop/GD32VW553/V1_MQTT_OK/GD32VW55X_Wifi_BLE_SDK/GD32VW55x_RELEASE_V1.0.2/MSDK/lwip/lwip-2.1.2/src/core/ipv4\ip4.c ****     chk_sum = ~chk_sum;
 1089              		.loc 1 947 24 is_stmt 0
 1090 0204 13D70701 		srli	a4,a5,16
 947:C:/Users/stapi/OneDrive/Desktop/GD32VW553/V1_MQTT_OK/GD32VW55X_Wifi_BLE_SDK/GD32VW55x_RELEASE_V1.0.2/MSDK/lwip/lwip-2.1.2/src/core/ipv4\ip4.c ****     chk_sum = ~chk_sum;
 1091              		.loc 1 947 13
 1092 0208 BA97     		add	a5,a5,a4
 1093              	.LVL112:
 948:C:/Users/stapi/OneDrive/Desktop/GD32VW553/V1_MQTT_OK/GD32VW55X_Wifi_BLE_SDK/GD32VW55x_RELEASE_V1.0.2/MSDK/lwip/lwip-2.1.2/src/core/ipv4\ip4.c ****     IF__NETIF_CHECKSUM_ENABLED(netif, NETIF_CHECKSUM_GEN_IP) {
 1094              		.loc 1 948 5 is_stmt 1
 950:C:/Users/stapi/OneDrive/Desktop/GD32VW553/V1_MQTT_OK/GD32VW55X_Wifi_BLE_SDK/GD32VW55x_RELEASE_V1.0.2/MSDK/lwip/lwip-2.1.2/src/core/ipv4\ip4.c ****     }
 1095              		.loc 1 950 7
 948:C:/Users/stapi/OneDrive/Desktop/GD32VW553/V1_MQTT_OK/GD32VW55X_Wifi_BLE_SDK/GD32VW55x_RELEASE_V1.0.2/MSDK/lwip/lwip-2.1.2/src/core/ipv4\ip4.c ****     IF__NETIF_CHECKSUM_ENABLED(netif, NETIF_CHECKSUM_GEN_IP) {
 1096              		.loc 1 948 13 is_stmt 0
 1097 020a 93C7F7FF 		not	a5,a5
 1098              	.LVL113:
 950:C:/Users/stapi/OneDrive/Desktop/GD32VW553/V1_MQTT_OK/GD32VW55X_Wifi_BLE_SDK/GD32VW55x_RELEASE_V1.0.2/MSDK/lwip/lwip-2.1.2/src/core/ipv4\ip4.c ****     }
 1099              		.loc 1 950 22
 1100 020e 2305F400 		sb	a5,10(s0)
 1101 0212 33C70708 		zext.h	a4,a5
 1102 0216 93578700 		srli	a5,a4,8
 1103              	.LVL114:
 1104 021a A305F400 		sb	a5,11(s0)
 1105              	.LVL115:
 1106              	.L103:
 1107              	.LBE28:
 978:C:/Users/stapi/OneDrive/Desktop/GD32VW553/V1_MQTT_OK/GD32VW55X_Wifi_BLE_SDK/GD32VW55x_RELEASE_V1.0.2/MSDK/lwip/lwip-2.1.2/src/core/ipv4\ip4.c **** 
 1108              		.loc 1 978 24 is_stmt 1
 980:C:/Users/stapi/OneDrive/Desktop/GD32VW553/V1_MQTT_OK/GD32VW55X_Wifi_BLE_SDK/GD32VW55x_RELEASE_V1.0.2/MSDK/lwip/lwip-2.1.2/src/core/ipv4\ip4.c ****   ip4_debug_print(p);
 1109              		.loc 1 980 110
 981:C:/Users/stapi/OneDrive/Desktop/GD32VW553/V1_MQTT_OK/GD32VW55X_Wifi_BLE_SDK/GD32VW55x_RELEASE_V1.0.2/MSDK/lwip/lwip-2.1.2/src/core/ipv4\ip4.c **** 
 1110              		.loc 1 981 21
 984:C:/Users/stapi/OneDrive/Desktop/GD32VW553/V1_MQTT_OK/GD32VW55X_Wifi_BLE_SDK/GD32VW55x_RELEASE_V1.0.2/MSDK/lwip/lwip-2.1.2/src/core/ipv4\ip4.c **** #if !LWIP_HAVE_LOOPIF
 1111              		.loc 1 984 3
 984:C:/Users/stapi/OneDrive/Desktop/GD32VW553/V1_MQTT_OK/GD32VW55X_Wifi_BLE_SDK/GD32VW55x_RELEASE_V1.0.2/MSDK/lwip/lwip-2.1.2/src/core/ipv4\ip4.c **** #if !LWIP_HAVE_LOOPIF
 1112              		.loc 1 984 6 is_stmt 0
 1113 021e 03270A00 		lw	a4,0(s4)
 1114 0222 83A74900 		lw	a5,4(s3)
 1115 0226 6314F704 		bne	a4,a5,.L104
 990:C:/Users/stapi/OneDrive/Desktop/GD32VW553/V1_MQTT_OK/GD32VW55X_Wifi_BLE_SDK/GD32VW55x_RELEASE_V1.0.2/MSDK/lwip/lwip-2.1.2/src/core/ipv4\ip4.c ****     return netif_loop_output(netif, p);
 1116              		.loc 1 990 51 is_stmt 1
 991:C:/Users/stapi/OneDrive/Desktop/GD32VW553/V1_MQTT_OK/GD32VW55X_Wifi_BLE_SDK/GD32VW55x_RELEASE_V1.0.2/MSDK/lwip/lwip-2.1.2/src/core/ipv4\ip4.c ****   }
 1117              		.loc 1 991 5
 991:C:/Users/stapi/OneDrive/Desktop/GD32VW553/V1_MQTT_OK/GD32VW55X_Wifi_BLE_SDK/GD32VW55x_RELEASE_V1.0.2/MSDK/lwip/lwip-2.1.2/src/core/ipv4\ip4.c ****   }
 1118              		.loc 1 991 12 is_stmt 0
 1119 022a A685     		mv	a1,s1
 1120 022c 4E85     		mv	a0,s3
 1121 022e 97000000 		call	netif_loop_output
 1121      E7800000 
 1122              	.LVL116:
 1123 0236 A1B5     		j	.L94
 1124              	.LVL117:
 1125              	.L101:
 1126              	.LBB29:
 940:C:/Users/stapi/OneDrive/Desktop/GD32VW553/V1_MQTT_OK/GD32VW55X_Wifi_BLE_SDK/GD32VW55x_RELEASE_V1.0.2/MSDK/lwip/lwip-2.1.2/src/core/ipv4\ip4.c ****     }
 1127              		.loc 1 940 7 is_stmt 1
 1128 0238 83A70A00 		lw	a5,0(s5)
 1129 023c 69BF     		j	.L102
 1130              	.LVL118:
 1131              	.L92:
 1132              	.LBE29:
 967:C:/Users/stapi/OneDrive/Desktop/GD32VW553/V1_MQTT_OK/GD32VW55X_Wifi_BLE_SDK/GD32VW55x_RELEASE_V1.0.2/MSDK/lwip/lwip-2.1.2/src/core/ipv4\ip4.c ****       LWIP_DEBUGF(IP_DEBUG | LWIP_DBG_LEVEL_SERIOUS, ("ip4_output: LWIP_IP_HDRINCL but pbuf is too 
 1133              		.loc 1 967 5
 967:C:/Users/stapi/OneDrive/Desktop/GD32VW553/V1_MQTT_OK/GD32VW55X_Wifi_BLE_SDK/GD32VW55x_RELEASE_V1.0.2/MSDK/lwip/lwip-2.1.2/src/core/ipv4\ip4.c ****       LWIP_DEBUGF(IP_DEBUG | LWIP_DBG_LEVEL_SERIOUS, ("ip4_output: LWIP_IP_HDRINCL but pbuf is too 
 1134              		.loc 1 967 8 is_stmt 0
 1135 023e 0357A500 		lhu	a4,10(a0)
 1136 0242 CD47     		li	a5,19
 1137 0244 E3FCE7E2 		bleu	a4,a5,.L98
 973:C:/Users/stapi/OneDrive/Desktop/GD32VW553/V1_MQTT_OK/GD32VW55X_Wifi_BLE_SDK/GD32VW55x_RELEASE_V1.0.2/MSDK/lwip/lwip-2.1.2/src/core/ipv4\ip4.c ****     ip4_addr_copy(dest_addr, iphdr->dest);
 1138              		.loc 1 973 5 is_stmt 1
 1139              	.LVL119:
 974:C:/Users/stapi/OneDrive/Desktop/GD32VW553/V1_MQTT_OK/GD32VW55X_Wifi_BLE_SDK/GD32VW55x_RELEASE_V1.0.2/MSDK/lwip/lwip-2.1.2/src/core/ipv4\ip4.c ****     dest = &dest_addr;
 1140              		.loc 1 974 5
 1141 0248 5441     		lw	a3,4(a0)
 1142              	.LVL120:
 975:C:/Users/stapi/OneDrive/Desktop/GD32VW553/V1_MQTT_OK/GD32VW55X_Wifi_BLE_SDK/GD32VW55x_RELEASE_V1.0.2/MSDK/lwip/lwip-2.1.2/src/core/ipv4\ip4.c ****   }
 1143              		.loc 1 975 10 is_stmt 0
 1144 024a 130AC100 		addi	s4,sp,12
 974:C:/Users/stapi/OneDrive/Desktop/GD32VW553/V1_MQTT_OK/GD32VW55X_Wifi_BLE_SDK/GD32VW55x_RELEASE_V1.0.2/MSDK/lwip/lwip-2.1.2/src/core/ipv4\ip4.c ****     dest = &dest_addr;
 1145              		.loc 1 974 5
 1146 024e 03C71601 		lbu	a4,17(a3)
 1147 0252 83C70601 		lbu	a5,16(a3)
 1148 0256 2207     		slli	a4,a4,8
 1149 0258 5D8F     		or	a4,a4,a5
 1150 025a 83C72601 		lbu	a5,18(a3)
 1151 025e C207     		slli	a5,a5,16
 1152 0260 5D8F     		or	a4,a5,a4
 1153 0262 83C73601 		lbu	a5,19(a3)
 1154 0266 E207     		slli	a5,a5,24
 1155 0268 D98F     		or	a5,a5,a4
 1156 026a 3EC6     		sw	a5,12(sp)
 975:C:/Users/stapi/OneDrive/Desktop/GD32VW553/V1_MQTT_OK/GD32VW55X_Wifi_BLE_SDK/GD32VW55x_RELEASE_V1.0.2/MSDK/lwip/lwip-2.1.2/src/core/ipv4\ip4.c ****   }
 1157              		.loc 1 975 5 is_stmt 1
 1158              	.LVL121:
 1159 026c 4DBF     		j	.L103
 1160              	.LVL122:
 1161              	.L104:
 994:C:/Users/stapi/OneDrive/Desktop/GD32VW553/V1_MQTT_OK/GD32VW55X_Wifi_BLE_SDK/GD32VW55x_RELEASE_V1.0.2/MSDK/lwip/lwip-2.1.2/src/core/ipv4\ip4.c ****     netif_loop_output(netif, p);
 1162              		.loc 1 994 3
 994:C:/Users/stapi/OneDrive/Desktop/GD32VW553/V1_MQTT_OK/GD32VW55X_Wifi_BLE_SDK/GD32VW55x_RELEASE_V1.0.2/MSDK/lwip/lwip-2.1.2/src/core/ipv4\ip4.c ****     netif_loop_output(netif, p);
 1163              		.loc 1 994 6 is_stmt 0
 1164 026e 83C7D400 		lbu	a5,13(s1)
 1165 0272 918B     		andi	a5,a5,4
 1166 0274 99C7     		beq	a5,zero,.L105
 995:C:/Users/stapi/OneDrive/Desktop/GD32VW553/V1_MQTT_OK/GD32VW55X_Wifi_BLE_SDK/GD32VW55x_RELEASE_V1.0.2/MSDK/lwip/lwip-2.1.2/src/core/ipv4\ip4.c ****   }
 1167              		.loc 1 995 5 is_stmt 1
 1168 0276 A685     		mv	a1,s1
 1169 0278 4E85     		mv	a0,s3
 1170 027a 97000000 		call	netif_loop_output
 1170      E7800000 
 1171              	.LVL123:
 1172              	.L105:
1001:C:/Users/stapi/OneDrive/Desktop/GD32VW553/V1_MQTT_OK/GD32VW55X_Wifi_BLE_SDK/GD32VW55x_RELEASE_V1.0.2/MSDK/lwip/lwip-2.1.2/src/core/ipv4\ip4.c ****     return ip4_frag(p, netif, dest);
 1173              		.loc 1 1001 3
1001:C:/Users/stapi/OneDrive/Desktop/GD32VW553/V1_MQTT_OK/GD32VW55X_Wifi_BLE_SDK/GD32VW55x_RELEASE_V1.0.2/MSDK/lwip/lwip-2.1.2/src/core/ipv4\ip4.c ****     return ip4_frag(p, netif, dest);
 1174              		.loc 1 1001 12 is_stmt 0
 1175 0282 83D78902 		lhu	a5,40(s3)
1001:C:/Users/stapi/OneDrive/Desktop/GD32VW553/V1_MQTT_OK/GD32VW55X_Wifi_BLE_SDK/GD32VW55x_RELEASE_V1.0.2/MSDK/lwip/lwip-2.1.2/src/core/ipv4\ip4.c ****     return ip4_frag(p, netif, dest);
 1176              		.loc 1 1001 6
 1177 0286 89CF     		beq	a5,zero,.L106
1001:C:/Users/stapi/OneDrive/Desktop/GD32VW553/V1_MQTT_OK/GD32VW55X_Wifi_BLE_SDK/GD32VW55x_RELEASE_V1.0.2/MSDK/lwip/lwip-2.1.2/src/core/ipv4\ip4.c ****     return ip4_frag(p, netif, dest);
 1178              		.loc 1 1001 18
 1179 0288 03D78400 		lhu	a4,8(s1)
 1180 028c 63FAE700 		bleu	a4,a5,.L106
1002:C:/Users/stapi/OneDrive/Desktop/GD32VW553/V1_MQTT_OK/GD32VW55X_Wifi_BLE_SDK/GD32VW55x_RELEASE_V1.0.2/MSDK/lwip/lwip-2.1.2/src/core/ipv4\ip4.c ****   }
 1181              		.loc 1 1002 5 is_stmt 1
1002:C:/Users/stapi/OneDrive/Desktop/GD32VW553/V1_MQTT_OK/GD32VW55X_Wifi_BLE_SDK/GD32VW55x_RELEASE_V1.0.2/MSDK/lwip/lwip-2.1.2/src/core/ipv4\ip4.c ****   }
 1182              		.loc 1 1002 12 is_stmt 0
 1183 0290 5286     		mv	a2,s4
 1184 0292 CE85     		mv	a1,s3
 1185 0294 2685     		mv	a0,s1
 1186 0296 97000000 		call	ip4_frag
 1186      E7800000 
 1187              	.LVL124:
 1188 029e C5B3     		j	.L94
 1189              	.L106:
1006:C:/Users/stapi/OneDrive/Desktop/GD32VW553/V1_MQTT_OK/GD32VW55X_Wifi_BLE_SDK/GD32VW55x_RELEASE_V1.0.2/MSDK/lwip/lwip-2.1.2/src/core/ipv4\ip4.c ****   return netif->output(netif, p, dest);
 1190              		.loc 1 1006 67 is_stmt 1
1007:C:/Users/stapi/OneDrive/Desktop/GD32VW553/V1_MQTT_OK/GD32VW55X_Wifi_BLE_SDK/GD32VW55x_RELEASE_V1.0.2/MSDK/lwip/lwip-2.1.2/src/core/ipv4\ip4.c **** }
 1191              		.loc 1 1007 3
1007:C:/Users/stapi/OneDrive/Desktop/GD32VW553/V1_MQTT_OK/GD32VW55X_Wifi_BLE_SDK/GD32VW55x_RELEASE_V1.0.2/MSDK/lwip/lwip-2.1.2/src/core/ipv4\ip4.c **** }
 1192              		.loc 1 1007 10 is_stmt 0
 1193 02a0 83A74901 		lw	a5,20(s3)
 1194 02a4 5286     		mv	a2,s4
 1195 02a6 A685     		mv	a1,s1
 1196 02a8 4E85     		mv	a0,s3
 1197 02aa 8297     		jalr	a5
 1198              	.LVL125:
 1199 02ac C9BB     		j	.L94
 1200              	.LVL126:
 1201              	.L108:
 1202              	.LBB30:
 1203              	.LBB25:
 870:C:/Users/stapi/OneDrive/Desktop/GD32VW553/V1_MQTT_OK/GD32VW55X_Wifi_BLE_SDK/GD32VW55x_RELEASE_V1.0.2/MSDK/lwip/lwip-2.1.2/src/core/ipv4\ip4.c ****       }
 1204              		.loc 1 870 16
 1205 02ae 6955     		li	a0,-6
 1206 02b0 F9B3     		j	.L94
 1207              	.LBE25:
 1208              	.LBE30:
 1209              	.LBE31:
 1210              	.LBE32:
 1211              		.cfi_endproc
 1212              	.LFE11:
 1214              		.section	.text.ip4_output_if_opt,"ax",@progbits
 1215              		.align	1
 1216              		.globl	ip4_output_if_opt
 1218              	ip4_output_if_opt:
 1219              	.LFB9:
 805:C:/Users/stapi/OneDrive/Desktop/GD32VW553/V1_MQTT_OK/GD32VW55X_Wifi_BLE_SDK/GD32VW55x_RELEASE_V1.0.2/MSDK/lwip/lwip-2.1.2/src/core/ipv4\ip4.c **** #endif /* IP_OPTIONS_SEND */
 1220              		.loc 1 805 1 is_stmt 1
 1221              		.cfi_startproc
 1222              	.LVL127:
 1223 0000 17030000 		call	t0,__riscv_save_0
 1223      E7020300 
 1224              		.cfi_offset 1, -4
 1225              		.cfi_def_cfa_offset 16
 807:C:/Users/stapi/OneDrive/Desktop/GD32VW553/V1_MQTT_OK/GD32VW55X_Wifi_BLE_SDK/GD32VW55x_RELEASE_V1.0.2/MSDK/lwip/lwip-2.1.2/src/core/ipv4\ip4.c ****   if (dest != LWIP_IP_HDRINCL) {
 1226              		.loc 1 807 3
 1227              	.LVL128:
 808:C:/Users/stapi/OneDrive/Desktop/GD32VW553/V1_MQTT_OK/GD32VW55X_Wifi_BLE_SDK/GD32VW55x_RELEASE_V1.0.2/MSDK/lwip/lwip-2.1.2/src/core/ipv4\ip4.c ****     if (ip4_addr_isany(src)) {
 1228              		.loc 1 808 3
 805:C:/Users/stapi/OneDrive/Desktop/GD32VW553/V1_MQTT_OK/GD32VW55X_Wifi_BLE_SDK/GD32VW55x_RELEASE_V1.0.2/MSDK/lwip/lwip-2.1.2/src/core/ipv4\ip4.c **** #endif /* IP_OPTIONS_SEND */
 1229              		.loc 1 805 1 is_stmt 0
 1230 0008 4111     		addi	sp,sp,-16
 1231              		.cfi_def_cfa_offset 32
 808:C:/Users/stapi/OneDrive/Desktop/GD32VW553/V1_MQTT_OK/GD32VW55X_Wifi_BLE_SDK/GD32VW55x_RELEASE_V1.0.2/MSDK/lwip/lwip-2.1.2/src/core/ipv4\ip4.c ****     if (ip4_addr_isany(src)) {
 1232              		.loc 1 808 6
 1233 000a 01CA     		beq	a2,zero,.L118
 809:C:/Users/stapi/OneDrive/Desktop/GD32VW553/V1_MQTT_OK/GD32VW55X_Wifi_BLE_SDK/GD32VW55x_RELEASE_V1.0.2/MSDK/lwip/lwip-2.1.2/src/core/ipv4\ip4.c ****       src_used = netif_ip4_addr(netif);
 1234              		.loc 1 809 5 is_stmt 1
 809:C:/Users/stapi/OneDrive/Desktop/GD32VW553/V1_MQTT_OK/GD32VW55X_Wifi_BLE_SDK/GD32VW55x_RELEASE_V1.0.2/MSDK/lwip/lwip-2.1.2/src/core/ipv4\ip4.c ****       src_used = netif_ip4_addr(netif);
 1235              		.loc 1 809 8 is_stmt 0
 1236 000c 89C5     		beq	a1,zero,.L119
 809:C:/Users/stapi/OneDrive/Desktop/GD32VW553/V1_MQTT_OK/GD32VW55X_Wifi_BLE_SDK/GD32VW55x_RELEASE_V1.0.2/MSDK/lwip/lwip-2.1.2/src/core/ipv4\ip4.c ****       src_used = netif_ip4_addr(netif);
 1237              		.loc 1 809 9 discriminator 1
 1238 000e 03A30500 		lw	t1,0(a1)
 1239 0012 63140300 		bne	t1,zero,.L118
 1240              	.L119:
 810:C:/Users/stapi/OneDrive/Desktop/GD32VW553/V1_MQTT_OK/GD32VW55X_Wifi_BLE_SDK/GD32VW55x_RELEASE_V1.0.2/MSDK/lwip/lwip-2.1.2/src/core/ipv4\ip4.c ****     }
 1241              		.loc 1 810 7 is_stmt 1
 810:C:/Users/stapi/OneDrive/Desktop/GD32VW553/V1_MQTT_OK/GD32VW55X_Wifi_BLE_SDK/GD32VW55x_RELEASE_V1.0.2/MSDK/lwip/lwip-2.1.2/src/core/ipv4\ip4.c ****     }
 1242              		.loc 1 810 16 is_stmt 0
 1243 0016 93054800 		addi	a1,a6,4
 1244              	.LVL129:
 1245              	.L118:
 815:C:/Users/stapi/OneDrive/Desktop/GD32VW553/V1_MQTT_OK/GD32VW55X_Wifi_BLE_SDK/GD32VW55x_RELEASE_V1.0.2/MSDK/lwip/lwip-2.1.2/src/core/ipv4\ip4.c ****                                ip_options, optlen);
 1246              		.loc 1 815 3 is_stmt 1
 815:C:/Users/stapi/OneDrive/Desktop/GD32VW553/V1_MQTT_OK/GD32VW55X_Wifi_BLE_SDK/GD32VW55x_RELEASE_V1.0.2/MSDK/lwip/lwip-2.1.2/src/core/ipv4\ip4.c ****                                ip_options, optlen);
 1247              		.loc 1 815 10 is_stmt 0
 1248 001a 03530102 		lhu	t1,32(sp)
 1249 001e 1AC0     		sw	t1,0(sp)
 1250 0020 97000000 		call	ip4_output_if_opt_src
 1250      E7800000 
 1251              	.LVL130:
 820:C:/Users/stapi/OneDrive/Desktop/GD32VW553/V1_MQTT_OK/GD32VW55X_Wifi_BLE_SDK/GD32VW55x_RELEASE_V1.0.2/MSDK/lwip/lwip-2.1.2/src/core/ipv4\ip4.c **** 
 1252              		.loc 1 820 1
 1253 0028 4101     		addi	sp,sp,16
 1254              		.cfi_def_cfa_offset 0
 1255              	.LVL131:
 1256 002a 17030000 		tail	__riscv_restore_0
 1256      67000300 
 1257              		.cfi_restore 1
 1258              		.cfi_def_cfa_offset -16
 1259              		.cfi_endproc
 1260              	.LFE9:
 1262              		.section	.text.ip4_output_if,"ax",@progbits
 1263              		.align	1
 1264              		.globl	ip4_output_if
 1266              	ip4_output_if:
 1267              	.LFB8:
 790:C:/Users/stapi/OneDrive/Desktop/GD32VW553/V1_MQTT_OK/GD32VW55X_Wifi_BLE_SDK/GD32VW55x_RELEASE_V1.0.2/MSDK/lwip/lwip-2.1.2/src/core/ipv4\ip4.c **** #if IP_OPTIONS_SEND
 1268              		.loc 1 790 1 is_stmt 1
 1269              		.cfi_startproc
 1270              	.LVL132:
 1271 0000 17030000 		call	t0,__riscv_save_0
 1271      E7020300 
 1272              		.cfi_offset 1, -4
 1273              		.cfi_def_cfa_offset 16
 792:C:/Users/stapi/OneDrive/Desktop/GD32VW553/V1_MQTT_OK/GD32VW55X_Wifi_BLE_SDK/GD32VW55x_RELEASE_V1.0.2/MSDK/lwip/lwip-2.1.2/src/core/ipv4\ip4.c **** }
 1274              		.loc 1 792 3
 790:C:/Users/stapi/OneDrive/Desktop/GD32VW553/V1_MQTT_OK/GD32VW55X_Wifi_BLE_SDK/GD32VW55x_RELEASE_V1.0.2/MSDK/lwip/lwip-2.1.2/src/core/ipv4\ip4.c **** #if IP_OPTIONS_SEND
 1275              		.loc 1 790 1 is_stmt 0
 1276 0008 4111     		addi	sp,sp,-16
 1277              		.cfi_def_cfa_offset 32
 792:C:/Users/stapi/OneDrive/Desktop/GD32VW553/V1_MQTT_OK/GD32VW55X_Wifi_BLE_SDK/GD32VW55x_RELEASE_V1.0.2/MSDK/lwip/lwip-2.1.2/src/core/ipv4\ip4.c **** }
 1278              		.loc 1 792 10
 1279 000a 02C0     		sw	zero,0(sp)
 1280 000c 8148     		li	a7,0
 1281 000e 97000000 		call	ip4_output_if_opt
 1281      E7800000 
 1282              	.LVL133:
 793:C:/Users/stapi/OneDrive/Desktop/GD32VW553/V1_MQTT_OK/GD32VW55X_Wifi_BLE_SDK/GD32VW55x_RELEASE_V1.0.2/MSDK/lwip/lwip-2.1.2/src/core/ipv4\ip4.c **** 
 1283              		.loc 1 793 1
 1284 0016 4101     		addi	sp,sp,16
 1285              		.cfi_def_cfa_offset 0
 1286 0018 17030000 		tail	__riscv_restore_0
 1286      67000300 
 1287              		.cfi_restore 1
 1288              		.cfi_def_cfa_offset -16
 1289              		.cfi_endproc
 1290              	.LFE8:
 1292              		.section	.text.ip4_output_if_src,"ax",@progbits
 1293              		.align	1
 1294              		.globl	ip4_output_if_src
 1296              	ip4_output_if_src:
 1297              	.LFB10:
 830:C:/Users/stapi/OneDrive/Desktop/GD32VW553/V1_MQTT_OK/GD32VW55X_Wifi_BLE_SDK/GD32VW55x_RELEASE_V1.0.2/MSDK/lwip/lwip-2.1.2/src/core/ipv4\ip4.c **** #if IP_OPTIONS_SEND
 1298              		.loc 1 830 1 is_stmt 1
 1299              		.cfi_startproc
 1300              	.LVL134:
 1301 0000 17030000 		call	t0,__riscv_save_0
 1301      E7020300 
 1302              		.cfi_offset 1, -4
 1303              		.cfi_def_cfa_offset 16
 832:C:/Users/stapi/OneDrive/Desktop/GD32VW553/V1_MQTT_OK/GD32VW55X_Wifi_BLE_SDK/GD32VW55x_RELEASE_V1.0.2/MSDK/lwip/lwip-2.1.2/src/core/ipv4\ip4.c **** }
 1304              		.loc 1 832 3
 830:C:/Users/stapi/OneDrive/Desktop/GD32VW553/V1_MQTT_OK/GD32VW55X_Wifi_BLE_SDK/GD32VW55x_RELEASE_V1.0.2/MSDK/lwip/lwip-2.1.2/src/core/ipv4\ip4.c **** #if IP_OPTIONS_SEND
 1305              		.loc 1 830 1 is_stmt 0
 1306 0008 4111     		addi	sp,sp,-16
 1307              		.cfi_def_cfa_offset 32
 832:C:/Users/stapi/OneDrive/Desktop/GD32VW553/V1_MQTT_OK/GD32VW55X_Wifi_BLE_SDK/GD32VW55x_RELEASE_V1.0.2/MSDK/lwip/lwip-2.1.2/src/core/ipv4\ip4.c **** }
 1308              		.loc 1 832 10
 1309 000a 02C0     		sw	zero,0(sp)
 1310 000c 8148     		li	a7,0
 1311 000e 97000000 		call	ip4_output_if_opt_src
 1311      E7800000 
 1312              	.LVL135:
 833:C:/Users/stapi/OneDrive/Desktop/GD32VW553/V1_MQTT_OK/GD32VW55X_Wifi_BLE_SDK/GD32VW55x_RELEASE_V1.0.2/MSDK/lwip/lwip-2.1.2/src/core/ipv4\ip4.c **** 
 1313              		.loc 1 833 1
 1314 0016 4101     		addi	sp,sp,16
 1315              		.cfi_def_cfa_offset 0
 1316 0018 17030000 		tail	__riscv_restore_0
 1316      67000300 
 1317              		.cfi_restore 1
 1318              		.cfi_def_cfa_offset -16
 1319              		.cfi_endproc
 1320              	.LFE10:
 1322              		.section	.text.ip4_output,"ax",@progbits
 1323              		.align	1
 1324              		.globl	ip4_output
 1326              	ip4_output:
 1327              	.LFB12:
1009:C:/Users/stapi/OneDrive/Desktop/GD32VW553/V1_MQTT_OK/GD32VW55X_Wifi_BLE_SDK/GD32VW55x_RELEASE_V1.0.2/MSDK/lwip/lwip-2.1.2/src/core/ipv4\ip4.c **** 
1010:C:/Users/stapi/OneDrive/Desktop/GD32VW553/V1_MQTT_OK/GD32VW55X_Wifi_BLE_SDK/GD32VW55x_RELEASE_V1.0.2/MSDK/lwip/lwip-2.1.2/src/core/ipv4\ip4.c **** /**
1011:C:/Users/stapi/OneDrive/Desktop/GD32VW553/V1_MQTT_OK/GD32VW55X_Wifi_BLE_SDK/GD32VW55x_RELEASE_V1.0.2/MSDK/lwip/lwip-2.1.2/src/core/ipv4\ip4.c ****  * Simple interface to ip_output_if. It finds the outgoing network
1012:C:/Users/stapi/OneDrive/Desktop/GD32VW553/V1_MQTT_OK/GD32VW55X_Wifi_BLE_SDK/GD32VW55x_RELEASE_V1.0.2/MSDK/lwip/lwip-2.1.2/src/core/ipv4\ip4.c ****  * interface and calls upon ip_output_if to do the actual work.
1013:C:/Users/stapi/OneDrive/Desktop/GD32VW553/V1_MQTT_OK/GD32VW55X_Wifi_BLE_SDK/GD32VW55x_RELEASE_V1.0.2/MSDK/lwip/lwip-2.1.2/src/core/ipv4\ip4.c ****  *
1014:C:/Users/stapi/OneDrive/Desktop/GD32VW553/V1_MQTT_OK/GD32VW55X_Wifi_BLE_SDK/GD32VW55x_RELEASE_V1.0.2/MSDK/lwip/lwip-2.1.2/src/core/ipv4\ip4.c ****  * @param p the packet to send (p->payload points to the data, e.g. next
1015:C:/Users/stapi/OneDrive/Desktop/GD32VW553/V1_MQTT_OK/GD32VW55X_Wifi_BLE_SDK/GD32VW55x_RELEASE_V1.0.2/MSDK/lwip/lwip-2.1.2/src/core/ipv4\ip4.c ****             protocol header; if dest == LWIP_IP_HDRINCL, p already includes an
1016:C:/Users/stapi/OneDrive/Desktop/GD32VW553/V1_MQTT_OK/GD32VW55X_Wifi_BLE_SDK/GD32VW55x_RELEASE_V1.0.2/MSDK/lwip/lwip-2.1.2/src/core/ipv4\ip4.c ****             IP header and p->payload points to that IP header)
1017:C:/Users/stapi/OneDrive/Desktop/GD32VW553/V1_MQTT_OK/GD32VW55X_Wifi_BLE_SDK/GD32VW55x_RELEASE_V1.0.2/MSDK/lwip/lwip-2.1.2/src/core/ipv4\ip4.c ****  * @param src the source IP address to send from (if src == IP4_ADDR_ANY, the
1018:C:/Users/stapi/OneDrive/Desktop/GD32VW553/V1_MQTT_OK/GD32VW55X_Wifi_BLE_SDK/GD32VW55x_RELEASE_V1.0.2/MSDK/lwip/lwip-2.1.2/src/core/ipv4\ip4.c ****  *         IP  address of the netif used to send is used as source address)
1019:C:/Users/stapi/OneDrive/Desktop/GD32VW553/V1_MQTT_OK/GD32VW55X_Wifi_BLE_SDK/GD32VW55x_RELEASE_V1.0.2/MSDK/lwip/lwip-2.1.2/src/core/ipv4\ip4.c ****  * @param dest the destination IP address to send the packet to
1020:C:/Users/stapi/OneDrive/Desktop/GD32VW553/V1_MQTT_OK/GD32VW55X_Wifi_BLE_SDK/GD32VW55x_RELEASE_V1.0.2/MSDK/lwip/lwip-2.1.2/src/core/ipv4\ip4.c ****  * @param ttl the TTL value to be set in the IP header
1021:C:/Users/stapi/OneDrive/Desktop/GD32VW553/V1_MQTT_OK/GD32VW55X_Wifi_BLE_SDK/GD32VW55x_RELEASE_V1.0.2/MSDK/lwip/lwip-2.1.2/src/core/ipv4\ip4.c ****  * @param tos the TOS value to be set in the IP header
1022:C:/Users/stapi/OneDrive/Desktop/GD32VW553/V1_MQTT_OK/GD32VW55X_Wifi_BLE_SDK/GD32VW55x_RELEASE_V1.0.2/MSDK/lwip/lwip-2.1.2/src/core/ipv4\ip4.c ****  * @param proto the PROTOCOL to be set in the IP header
1023:C:/Users/stapi/OneDrive/Desktop/GD32VW553/V1_MQTT_OK/GD32VW55X_Wifi_BLE_SDK/GD32VW55x_RELEASE_V1.0.2/MSDK/lwip/lwip-2.1.2/src/core/ipv4\ip4.c ****  *
1024:C:/Users/stapi/OneDrive/Desktop/GD32VW553/V1_MQTT_OK/GD32VW55X_Wifi_BLE_SDK/GD32VW55x_RELEASE_V1.0.2/MSDK/lwip/lwip-2.1.2/src/core/ipv4\ip4.c ****  * @return ERR_RTE if no route is found
1025:C:/Users/stapi/OneDrive/Desktop/GD32VW553/V1_MQTT_OK/GD32VW55X_Wifi_BLE_SDK/GD32VW55x_RELEASE_V1.0.2/MSDK/lwip/lwip-2.1.2/src/core/ipv4\ip4.c ****  *         see ip_output_if() for more return values
1026:C:/Users/stapi/OneDrive/Desktop/GD32VW553/V1_MQTT_OK/GD32VW55X_Wifi_BLE_SDK/GD32VW55x_RELEASE_V1.0.2/MSDK/lwip/lwip-2.1.2/src/core/ipv4\ip4.c ****  */
1027:C:/Users/stapi/OneDrive/Desktop/GD32VW553/V1_MQTT_OK/GD32VW55X_Wifi_BLE_SDK/GD32VW55x_RELEASE_V1.0.2/MSDK/lwip/lwip-2.1.2/src/core/ipv4\ip4.c **** err_t
1028:C:/Users/stapi/OneDrive/Desktop/GD32VW553/V1_MQTT_OK/GD32VW55X_Wifi_BLE_SDK/GD32VW55x_RELEASE_V1.0.2/MSDK/lwip/lwip-2.1.2/src/core/ipv4\ip4.c **** ip4_output(struct pbuf *p, const ip4_addr_t *src, const ip4_addr_t *dest,
1029:C:/Users/stapi/OneDrive/Desktop/GD32VW553/V1_MQTT_OK/GD32VW55X_Wifi_BLE_SDK/GD32VW55x_RELEASE_V1.0.2/MSDK/lwip/lwip-2.1.2/src/core/ipv4\ip4.c ****            u8_t ttl, u8_t tos, u8_t proto)
1030:C:/Users/stapi/OneDrive/Desktop/GD32VW553/V1_MQTT_OK/GD32VW55X_Wifi_BLE_SDK/GD32VW55x_RELEASE_V1.0.2/MSDK/lwip/lwip-2.1.2/src/core/ipv4\ip4.c **** {
 1328              		.loc 1 1030 1 is_stmt 1
 1329              		.cfi_startproc
 1330              	.LVL136:
 1331 0000 17030000 		call	t0,__riscv_save_1
 1331      E7020300 
 1332              		.cfi_offset 8, -8
 1333              		.cfi_offset 1, -4
 1334              		.cfi_def_cfa_offset 16
1031:C:/Users/stapi/OneDrive/Desktop/GD32VW553/V1_MQTT_OK/GD32VW55X_Wifi_BLE_SDK/GD32VW55x_RELEASE_V1.0.2/MSDK/lwip/lwip-2.1.2/src/core/ipv4\ip4.c ****   struct netif *netif;
 1335              		.loc 1 1031 3
1032:C:/Users/stapi/OneDrive/Desktop/GD32VW553/V1_MQTT_OK/GD32VW55X_Wifi_BLE_SDK/GD32VW55x_RELEASE_V1.0.2/MSDK/lwip/lwip-2.1.2/src/core/ipv4\ip4.c **** 
1033:C:/Users/stapi/OneDrive/Desktop/GD32VW553/V1_MQTT_OK/GD32VW55X_Wifi_BLE_SDK/GD32VW55x_RELEASE_V1.0.2/MSDK/lwip/lwip-2.1.2/src/core/ipv4\ip4.c ****   LWIP_IP_CHECK_PBUF_REF_COUNT_FOR_TX(p);
 1336              		.loc 1 1033 3
 1337              		.loc 1 1033 3
 1338 0008 0348E500 		lbu	a6,14(a0)
1030:C:/Users/stapi/OneDrive/Desktop/GD32VW553/V1_MQTT_OK/GD32VW55X_Wifi_BLE_SDK/GD32VW55x_RELEASE_V1.0.2/MSDK/lwip/lwip-2.1.2/src/core/ipv4\ip4.c ****   struct netif *netif;
 1339              		.loc 1 1030 1 is_stmt 0
 1340 000c 2A84     		mv	s0,a0
 1341              		.loc 1 1033 3
 1342 000e 0545     		li	a0,1
 1343              	.LVL137:
1030:C:/Users/stapi/OneDrive/Desktop/GD32VW553/V1_MQTT_OK/GD32VW55X_Wifi_BLE_SDK/GD32VW55x_RELEASE_V1.0.2/MSDK/lwip/lwip-2.1.2/src/core/ipv4\ip4.c ****   struct netif *netif;
 1344              		.loc 1 1030 1
 1345 0010 0111     		addi	sp,sp,-32
 1346              		.cfi_def_cfa_offset 48
 1347              		.loc 1 1033 3
 1348 0012 6305A802 		beq	a6,a0,.L132
 1349              		.loc 1 1033 3 is_stmt 1 discriminator 1
 1350              		.loc 1 1033 3 discriminator 1
 1351 0016 B7060000 		lui	a3,%hi(.LC0)
 1352              	.LVL138:
 1353 001a B7050000 		lui	a1,%hi(.LC1)
 1354              	.LVL139:
 1355 001e 37050000 		lui	a0,%hi(.LC2)
 1356 0022 93860600 		addi	a3,a3,%lo(.LC0)
 1357 0026 13069040 		li	a2,1033
 1358              	.LVL140:
 1359 002a 93850500 		addi	a1,a1,%lo(.LC1)
 1360 002e 13050500 		addi	a0,a0,%lo(.LC2)
 1361 0032 97000000 		call	printf
 1361      E7800000 
 1362              	.LVL141:
 1363              	.L133:
 1364              		.loc 1 1033 3 discriminator 1
 1365              		.loc 1 1033 3 discriminator 1
 1366              		.loc 1 1033 3 discriminator 1
 1367 003a 01A0     		j	.L133
 1368              	.LVL142:
 1369              	.L132:
1034:C:/Users/stapi/OneDrive/Desktop/GD32VW553/V1_MQTT_OK/GD32VW55X_Wifi_BLE_SDK/GD32VW55x_RELEASE_V1.0.2/MSDK/lwip/lwip-2.1.2/src/core/ipv4\ip4.c **** 
1035:C:/Users/stapi/OneDrive/Desktop/GD32VW553/V1_MQTT_OK/GD32VW55X_Wifi_BLE_SDK/GD32VW55x_RELEASE_V1.0.2/MSDK/lwip/lwip-2.1.2/src/core/ipv4\ip4.c ****   if ((netif = ip4_route_src(src, dest)) == NULL) {
 1370              		.loc 1 1035 16 is_stmt 0 discriminator 2
 1371 003c 3285     		mv	a0,a2
 1372 003e 3ECE     		sw	a5,28(sp)
 1373 0040 3ACC     		sw	a4,24(sp)
 1374 0042 36CA     		sw	a3,20(sp)
 1375 0044 2EC8     		sw	a1,16(sp)
1033:C:/Users/stapi/OneDrive/Desktop/GD32VW553/V1_MQTT_OK/GD32VW55X_Wifi_BLE_SDK/GD32VW55x_RELEASE_V1.0.2/MSDK/lwip/lwip-2.1.2/src/core/ipv4\ip4.c **** 
 1376              		.loc 1 1033 3 is_stmt 1 discriminator 2
1033:C:/Users/stapi/OneDrive/Desktop/GD32VW553/V1_MQTT_OK/GD32VW55X_Wifi_BLE_SDK/GD32VW55x_RELEASE_V1.0.2/MSDK/lwip/lwip-2.1.2/src/core/ipv4\ip4.c **** 
 1377              		.loc 1 1033 3 discriminator 2
 1378              		.loc 1 1035 3 discriminator 2
 1379              		.loc 1 1035 16 is_stmt 0 discriminator 2
 1380 0046 32C6     		sw	a2,12(sp)
 1381 0048 97000000 		call	ip4_route
 1381      E7800000 
 1382              	.LVL143:
 1383 0050 2A88     		mv	a6,a0
 1384              	.LVL144:
1036:C:/Users/stapi/OneDrive/Desktop/GD32VW553/V1_MQTT_OK/GD32VW55X_Wifi_BLE_SDK/GD32VW55x_RELEASE_V1.0.2/MSDK/lwip/lwip-2.1.2/src/core/ipv4\ip4.c ****     LWIP_DEBUGF(IP_DEBUG, ("ip4_output: No route to %"U16_F".%"U16_F".%"U16_F".%"U16_F"\n",
1037:C:/Users/stapi/OneDrive/Desktop/GD32VW553/V1_MQTT_OK/GD32VW55X_Wifi_BLE_SDK/GD32VW55x_RELEASE_V1.0.2/MSDK/lwip/lwip-2.1.2/src/core/ipv4\ip4.c ****                            ip4_addr1_16(dest), ip4_addr2_16(dest), ip4_addr3_16(dest), ip4_addr4_16
1038:C:/Users/stapi/OneDrive/Desktop/GD32VW553/V1_MQTT_OK/GD32VW55X_Wifi_BLE_SDK/GD32VW55x_RELEASE_V1.0.2/MSDK/lwip/lwip-2.1.2/src/core/ipv4\ip4.c ****     IP_STATS_INC(ip.rterr);
1039:C:/Users/stapi/OneDrive/Desktop/GD32VW553/V1_MQTT_OK/GD32VW55X_Wifi_BLE_SDK/GD32VW55x_RELEASE_V1.0.2/MSDK/lwip/lwip-2.1.2/src/core/ipv4\ip4.c ****     return ERR_RTE;
 1385              		.loc 1 1039 12 discriminator 2
 1386 0052 7155     		li	a0,-4
 1387              	.LVL145:
1035:C:/Users/stapi/OneDrive/Desktop/GD32VW553/V1_MQTT_OK/GD32VW55X_Wifi_BLE_SDK/GD32VW55x_RELEASE_V1.0.2/MSDK/lwip/lwip-2.1.2/src/core/ipv4\ip4.c ****     LWIP_DEBUGF(IP_DEBUG, ("ip4_output: No route to %"U16_F".%"U16_F".%"U16_F".%"U16_F"\n",
 1388              		.loc 1 1035 6 discriminator 2
 1389 0054 630C0800 		beq	a6,zero,.L134
1040:C:/Users/stapi/OneDrive/Desktop/GD32VW553/V1_MQTT_OK/GD32VW55X_Wifi_BLE_SDK/GD32VW55x_RELEASE_V1.0.2/MSDK/lwip/lwip-2.1.2/src/core/ipv4\ip4.c ****   }
1041:C:/Users/stapi/OneDrive/Desktop/GD32VW553/V1_MQTT_OK/GD32VW55X_Wifi_BLE_SDK/GD32VW55x_RELEASE_V1.0.2/MSDK/lwip/lwip-2.1.2/src/core/ipv4\ip4.c **** 
1042:C:/Users/stapi/OneDrive/Desktop/GD32VW553/V1_MQTT_OK/GD32VW55X_Wifi_BLE_SDK/GD32VW55x_RELEASE_V1.0.2/MSDK/lwip/lwip-2.1.2/src/core/ipv4\ip4.c ****   return ip4_output_if(p, src, dest, ttl, tos, proto, netif);
 1390              		.loc 1 1042 3 is_stmt 1
 1391              		.loc 1 1042 10 is_stmt 0
 1392 0058 F247     		lw	a5,28(sp)
 1393 005a 6247     		lw	a4,24(sp)
 1394 005c D246     		lw	a3,20(sp)
 1395 005e 3246     		lw	a2,12(sp)
 1396 0060 C245     		lw	a1,16(sp)
 1397 0062 2285     		mv	a0,s0
 1398 0064 97000000 		call	ip4_output_if
 1398      E7800000 
 1399              	.LVL146:
 1400              	.L134:
1043:C:/Users/stapi/OneDrive/Desktop/GD32VW553/V1_MQTT_OK/GD32VW55X_Wifi_BLE_SDK/GD32VW55x_RELEASE_V1.0.2/MSDK/lwip/lwip-2.1.2/src/core/ipv4\ip4.c **** }
 1401              		.loc 1 1043 1
 1402 006c 0561     		addi	sp,sp,32
 1403              		.cfi_def_cfa_offset 0
 1404              	.LVL147:
 1405 006e 17030000 		tail	__riscv_restore_1
 1405      67000300 
 1406              		.cfi_restore 8
 1407              		.cfi_restore 1
 1408              		.cfi_def_cfa_offset -16
 1409              		.cfi_endproc
 1410              	.LFE12:
 1412              		.section	.sbss.ip4_default_multicast_netif,"aw",@nobits
 1413              		.align	2
 1414              		.set	.LANCHOR0,. + 0
 1417              	ip4_default_multicast_netif:
 1418 0000 00000000 		.zero	4
 1419              		.section	.sbss.ip_id,"aw",@nobits
 1420              		.align	1
 1421              		.set	.LANCHOR1,. + 0
 1424              	ip_id:
 1425 0000 0000     		.zero	2
 1426              		.text
 1427              	.Letext0:
 1428              		.file 2 "c:\\users\\stapi\\onedrive\\desktop\\gd32vw553\\embeddedbuilder_v1.4.7.26843\\tools\\nucl
 1429              		.file 3 "c:\\users\\stapi\\onedrive\\desktop\\gd32vw553\\embeddedbuilder_v1.4.7.26843\\tools\\nucl
 1430              		.file 4 "c:\\users\\stapi\\onedrive\\desktop\\gd32vw553\\embeddedbuilder_v1.4.7.26843\\tools\\nucl
 1431              		.file 5 "..\\..\\..\\..\\lwip\\lwip-2.1.2\\src\\include/lwip/arch.h"
 1432              		.file 6 "..\\..\\..\\..\\lwip\\lwip-2.1.2\\src\\include/lwip/err.h"
 1433              		.file 7 "..\\..\\..\\..\\lwip\\lwip-2.1.2\\src\\include/lwip/pbuf.h"
 1434              		.file 8 "..\\..\\..\\..\\lwip\\lwip-2.1.2\\src\\include/lwip/ip4_addr.h"
 1435              		.file 9 "..\\..\\..\\..\\lwip\\lwip-2.1.2\\src\\include/lwip/ip_addr.h"
 1436              		.file 10 "..\\..\\..\\..\\lwip\\lwip-2.1.2\\src\\include/lwip/memp.h"
 1437              		.file 11 "..\\..\\..\\..\\lwip\\lwip-2.1.2\\src\\include/lwip/netif.h"
 1438              		.file 12 "..\\..\\..\\..\\lwip\\lwip-2.1.2\\src\\include/lwip/prot/ip4.h"
 1439              		.file 13 "..\\..\\..\\..\\lwip\\lwip-2.1.2\\src\\include/lwip/ip.h"
 1440              		.file 14 "..\\..\\..\\..\\lwip\\lwip-2.1.2\\src\\include/lwip/icmp.h"
 1441              		.file 15 "..\\..\\..\\..\\lwip\\lwip-2.1.2\\src\\include/lwip/priv/raw_priv.h"
 1442              		.file 16 "..\\..\\..\\..\\lwip\\lwip-2.1.2\\src\\include/lwip/prot/udp.h"
 1443              		.file 17 "..\\..\\..\\..\\lwip\\lwip-2.1.2\\src\\include/lwip/prot/iana.h"
 1444              		.file 18 "c:\\users\\stapi\\onedrive\\desktop\\gd32vw553\\embeddedbuilder_v1.4.7.26843\\tools\\nuc
 1445              		.file 19 "..\\..\\..\\..\\lwip\\lwip-2.1.2\\src\\include/lwip/def.h"
 1446              		.file 20 "..\\..\\..\\..\\lwip\\lwip-2.1.2\\src\\include/lwip/inet_chksum.h"
 1447              		.file 21 "..\\..\\..\\..\\lwip\\lwip-2.1.2\\src\\include/lwip/igmp.h"
 1448              		.file 22 "..\\..\\..\\..\\lwip\\lwip-2.1.2\\src\\include/lwip/ip4_frag.h"
 1449              		.file 23 "..\\..\\..\\..\\lwip\\lwip-2.1.2\\src\\include/lwip/udp.h"
 1450              		.file 24 "..\\..\\..\\..\\lwip\\lwip-2.1.2\\src\\include/lwip/priv/tcp_priv.h"
 1451              		.file 25 "<built-in>"
DEFINED SYMBOLS
                            *ABS*:0000000000000000 ip4.c
C:\Users\stapi\AppData\Local\Temp\cc0UDxF1.s:12     .text.ip4_input_accept:0000000000000000 ip4_input_accept
C:\Users\stapi\AppData\Local\Temp\cc0UDxF1.s:16     .text.ip4_input_accept:0000000000000000 .L0 
C:\Users\stapi\AppData\Local\Temp\cc0UDxF1.s:18     .text.ip4_input_accept:0000000000000000 .L0 
C:\Users\stapi\AppData\Local\Temp\cc0UDxF1.s:19     .text.ip4_input_accept:0000000000000000 .L0 
C:\Users\stapi\AppData\Local\Temp\cc0UDxF1.s:20     .text.ip4_input_accept:0000000000000000 .L0 
C:\Users\stapi\AppData\Local\Temp\cc0UDxF1.s:21     .text.ip4_input_accept:0000000000000000 .L0 
C:\Users\stapi\AppData\Local\Temp\cc0UDxF1.s:23     .text.ip4_input_accept:0000000000000004 .L0 
C:\Users\stapi\AppData\Local\Temp\cc0UDxF1.s:28     .text.ip4_input_accept:0000000000000008 .L0 
C:\Users\stapi\AppData\Local\Temp\cc0UDxF1.s:34     .text.ip4_input_accept:000000000000000c .L0 
C:\Users\stapi\AppData\Local\Temp\cc0UDxF1.s:38     .text.ip4_input_accept:000000000000000e .L0 
C:\Users\stapi\AppData\Local\Temp\cc0UDxF1.s:40     .text.ip4_input_accept:0000000000000010 .L0 
C:\Users\stapi\AppData\Local\Temp\cc0UDxF1.s:41     .text.ip4_input_accept:0000000000000010 .L0 
C:\Users\stapi\AppData\Local\Temp\cc0UDxF1.s:45     .text.ip4_input_accept:0000000000000018 .L0 
C:\Users\stapi\AppData\Local\Temp\cc0UDxF1.s:47     .text.ip4_input_accept:000000000000001a .L0 
C:\Users\stapi\AppData\Local\Temp\cc0UDxF1.s:51     .text.ip4_input_accept:000000000000001e .L0 
C:\Users\stapi\AppData\Local\Temp\cc0UDxF1.s:52     .text.ip4_input_accept:0000000000000026 .L0 
C:\Users\stapi\AppData\Local\Temp\cc0UDxF1.s:53     .text.ip4_input_accept:0000000000000026 .L0 
C:\Users\stapi\AppData\Local\Temp\cc0UDxF1.s:57     .text.ip4_input_accept:0000000000000026 .L0 
C:\Users\stapi\AppData\Local\Temp\cc0UDxF1.s:60     .text.ip4_input_accept:000000000000002e .L0 
C:\Users\stapi\AppData\Local\Temp\cc0UDxF1.s:64     .text.ip4_input_accept:0000000000000032 .L0 
C:\Users\stapi\AppData\Local\Temp\cc0UDxF1.s:66     .text.ip4_input_accept:000000000000003c .L0 
C:\Users\stapi\AppData\Local\Temp\cc0UDxF1.s:67     .text.ip4_input_accept:000000000000003c .L0 
C:\Users\stapi\AppData\Local\Temp\cc0UDxF1.s:71     .text.ip4_input_accept:000000000000003c .L0 
C:\Users\stapi\AppData\Local\Temp\cc0UDxF1.s:75     .text.ip4_input_accept:000000000000003e .L0 
C:\Users\stapi\AppData\Local\Temp\cc0UDxF1.s:77     .text.ip4_input_accept:0000000000000042 .L0 
C:\Users\stapi\AppData\Local\Temp\cc0UDxF1.s:84     .text.ip4_set_default_multicast_netif:0000000000000000 ip4_set_default_multicast_netif
C:\Users\stapi\AppData\Local\Temp\cc0UDxF1.s:87     .text.ip4_set_default_multicast_netif:0000000000000000 .L0 
C:\Users\stapi\AppData\Local\Temp\cc0UDxF1.s:89     .text.ip4_set_default_multicast_netif:0000000000000000 .L0 
C:\Users\stapi\AppData\Local\Temp\cc0UDxF1.s:90     .text.ip4_set_default_multicast_netif:0000000000000000 .L0 
C:\Users\stapi\AppData\Local\Temp\cc0UDxF1.s:91     .text.ip4_set_default_multicast_netif:0000000000000000 .L0 
C:\Users\stapi\AppData\Local\Temp\cc0UDxF1.s:94     .text.ip4_set_default_multicast_netif:0000000000000008 .L0 
C:\Users\stapi\AppData\Local\Temp\cc0UDxF1.s:95     .text.ip4_set_default_multicast_netif:000000000000000a .L0 
C:\Users\stapi\AppData\Local\Temp\cc0UDxF1.s:102    .text.ip4_route:0000000000000000 ip4_route
C:\Users\stapi\AppData\Local\Temp\cc0UDxF1.s:105    .text.ip4_route:0000000000000000 .L0 
C:\Users\stapi\AppData\Local\Temp\cc0UDxF1.s:107    .text.ip4_route:0000000000000000 .L0 
C:\Users\stapi\AppData\Local\Temp\cc0UDxF1.s:108    .text.ip4_route:0000000000000000 .L0 
C:\Users\stapi\AppData\Local\Temp\cc0UDxF1.s:109    .text.ip4_route:0000000000000000 .L0 
C:\Users\stapi\AppData\Local\Temp\cc0UDxF1.s:110    .text.ip4_route:0000000000000000 .L0 
C:\Users\stapi\AppData\Local\Temp\cc0UDxF1.s:111    .text.ip4_route:0000000000000000 .L0 
C:\Users\stapi\AppData\Local\Temp\cc0UDxF1.s:113    .text.ip4_route:0000000000000002 .L0 
C:\Users\stapi\AppData\Local\Temp\cc0UDxF1.s:115    .text.ip4_route:0000000000000006 .L0 
C:\Users\stapi\AppData\Local\Temp\cc0UDxF1.s:117    .text.ip4_route:000000000000000a .L0 
C:\Users\stapi\AppData\Local\Temp\cc0UDxF1.s:119    .text.ip4_route:000000000000000e .L0 
C:\Users\stapi\AppData\Local\Temp\cc0UDxF1.s:125    .text.ip4_route:0000000000000018 .L0 
C:\Users\stapi\AppData\Local\Temp\cc0UDxF1.s:126    .text.ip4_route:0000000000000018 .L0 
C:\Users\stapi\AppData\Local\Temp\cc0UDxF1.s:131    .text.ip4_route:0000000000000020 .L0 
C:\Users\stapi\AppData\Local\Temp\cc0UDxF1.s:133    .text.ip4_route:0000000000000022 .L0 
C:\Users\stapi\AppData\Local\Temp\cc0UDxF1.s:134    .text.ip4_route:0000000000000022 .L0 
C:\Users\stapi\AppData\Local\Temp\cc0UDxF1.s:137    .text.ip4_route:000000000000002a .L0 
C:\Users\stapi\AppData\Local\Temp\cc0UDxF1.s:139    .text.ip4_route:000000000000002c .L0 
C:\Users\stapi\AppData\Local\Temp\cc0UDxF1.s:144    .text.ip4_route:0000000000000038 .L0 
C:\Users\stapi\AppData\Local\Temp\cc0UDxF1.s:147    .text.ip4_route:000000000000003c .L0 
C:\Users\stapi\AppData\Local\Temp\cc0UDxF1.s:149    .text.ip4_route:0000000000000040 .L0 
C:\Users\stapi\AppData\Local\Temp\cc0UDxF1.s:155    .text.ip4_route:000000000000004a .L0 
C:\Users\stapi\AppData\Local\Temp\cc0UDxF1.s:159    .text.ip4_route:000000000000004c .L0 
C:\Users\stapi\AppData\Local\Temp\cc0UDxF1.s:160    .text.ip4_route:000000000000004c .L0 
C:\Users\stapi\AppData\Local\Temp\cc0UDxF1.s:162    .text.ip4_route:0000000000000050 .L0 
C:\Users\stapi\AppData\Local\Temp\cc0UDxF1.s:165    .text.ip4_route:0000000000000056 .L0 
C:\Users\stapi\AppData\Local\Temp\cc0UDxF1.s:168    .text.ip4_route:000000000000005c .L0 
C:\Users\stapi\AppData\Local\Temp\cc0UDxF1.s:170    .text.ip4_route:000000000000005e .L0 
C:\Users\stapi\AppData\Local\Temp\cc0UDxF1.s:172    .text.ip4_route:0000000000000060 .L0 
C:\Users\stapi\AppData\Local\Temp\cc0UDxF1.s:173    .text.ip4_route:0000000000000060 .L0 
C:\Users\stapi\AppData\Local\Temp\cc0UDxF1.s:177    .text.ip4_route:0000000000000066 .L0 
C:\Users\stapi\AppData\Local\Temp\cc0UDxF1.s:179    .text.ip4_route:0000000000000068 .L0 
C:\Users\stapi\AppData\Local\Temp\cc0UDxF1.s:180    .text.ip4_route:0000000000000068 .L0 
C:\Users\stapi\AppData\Local\Temp\cc0UDxF1.s:183    .text.ip4_route:000000000000006c .L0 
C:\Users\stapi\AppData\Local\Temp\cc0UDxF1.s:187    .text.ip4_route:0000000000000072 .L0 
C:\Users\stapi\AppData\Local\Temp\cc0UDxF1.s:190    .text.ip4_route:0000000000000076 .L0 
C:\Users\stapi\AppData\Local\Temp\cc0UDxF1.s:197    .text.ip4_input:0000000000000000 ip4_input
C:\Users\stapi\AppData\Local\Temp\cc0UDxF1.s:200    .text.ip4_input:0000000000000000 .L0 
C:\Users\stapi\AppData\Local\Temp\cc0UDxF1.s:202    .text.ip4_input:0000000000000000 .L0 
C:\Users\stapi\AppData\Local\Temp\cc0UDxF1.s:203    .text.ip4_input:0000000000000008 .L0 
C:\Users\stapi\AppData\Local\Temp\cc0UDxF1.s:204    .text.ip4_input:0000000000000008 .L0 
C:\Users\stapi\AppData\Local\Temp\cc0UDxF1.s:205    .text.ip4_input:0000000000000008 .L0 
C:\Users\stapi\AppData\Local\Temp\cc0UDxF1.s:206    .text.ip4_input:0000000000000008 .L0 
C:\Users\stapi\AppData\Local\Temp\cc0UDxF1.s:207    .text.ip4_input:0000000000000008 .L0 
C:\Users\stapi\AppData\Local\Temp\cc0UDxF1.s:208    .text.ip4_input:0000000000000008 .L0 
C:\Users\stapi\AppData\Local\Temp\cc0UDxF1.s:209    .text.ip4_input:0000000000000008 .L0 
C:\Users\stapi\AppData\Local\Temp\cc0UDxF1.s:210    .text.ip4_input:0000000000000008 .L0 
C:\Users\stapi\AppData\Local\Temp\cc0UDxF1.s:211    .text.ip4_input:0000000000000008 .L0 
C:\Users\stapi\AppData\Local\Temp\cc0UDxF1.s:212    .text.ip4_input:0000000000000008 .L0 
C:\Users\stapi\AppData\Local\Temp\cc0UDxF1.s:214    .text.ip4_input:0000000000000008 .L0 
C:\Users\stapi\AppData\Local\Temp\cc0UDxF1.s:215    .text.ip4_input:0000000000000008 .L0 
C:\Users\stapi\AppData\Local\Temp\cc0UDxF1.s:216    .text.ip4_input:0000000000000008 .L0 
C:\Users\stapi\AppData\Local\Temp\cc0UDxF1.s:217    .text.ip4_input:0000000000000008 .L0 
C:\Users\stapi\AppData\Local\Temp\cc0UDxF1.s:219    .text.ip4_input:0000000000000008 .L0 
C:\Users\stapi\AppData\Local\Temp\cc0UDxF1.s:220    .text.ip4_input:0000000000000008 .L0 
C:\Users\stapi\AppData\Local\Temp\cc0UDxF1.s:221    .text.ip4_input:0000000000000008 .L0 
C:\Users\stapi\AppData\Local\Temp\cc0UDxF1.s:222    .text.ip4_input:0000000000000008 .L0 
C:\Users\stapi\AppData\Local\Temp\cc0UDxF1.s:223    .text.ip4_input:0000000000000008 .L0 
C:\Users\stapi\AppData\Local\Temp\cc0UDxF1.s:224    .text.ip4_input:0000000000000008 .L0 
C:\Users\stapi\AppData\Local\Temp\cc0UDxF1.s:225    .text.ip4_input:0000000000000008 .L0 
C:\Users\stapi\AppData\Local\Temp\cc0UDxF1.s:228    .text.ip4_input:000000000000000c .L0 
C:\Users\stapi\AppData\Local\Temp\cc0UDxF1.s:229    .text.ip4_input:000000000000000c .L0 
C:\Users\stapi\AppData\Local\Temp\cc0UDxF1.s:231    .text.ip4_input:000000000000000e .L0 
C:\Users\stapi\AppData\Local\Temp\cc0UDxF1.s:233    .text.ip4_input:0000000000000010 .L0 
C:\Users\stapi\AppData\Local\Temp\cc0UDxF1.s:235    .text.ip4_input:0000000000000014 .L0 
C:\Users\stapi\AppData\Local\Temp\cc0UDxF1.s:240    .text.ip4_input:000000000000001c .L0 
C:\Users\stapi\AppData\Local\Temp\cc0UDxF1.s:241    .text.ip4_input:000000000000001c .L0 
C:\Users\stapi\AppData\Local\Temp\cc0UDxF1.s:242    .text.ip4_input:000000000000001c .L0 
C:\Users\stapi\AppData\Local\Temp\cc0UDxF1.s:246    .text.ip4_input:0000000000000026 .L0 
C:\Users\stapi\AppData\Local\Temp\cc0UDxF1.s:247    .text.ip4_input:0000000000000026 .L0 
C:\Users\stapi\AppData\Local\Temp\cc0UDxF1.s:248    .text.ip4_input:0000000000000026 .L0 
C:\Users\stapi\AppData\Local\Temp\cc0UDxF1.s:250    .text.ip4_input:0000000000000026 .L0 
C:\Users\stapi\AppData\Local\Temp\cc0UDxF1.s:251    .text.ip4_input:0000000000000026 .L0 
C:\Users\stapi\AppData\Local\Temp\cc0UDxF1.s:253    .text.ip4_input:0000000000000030 .L0 
C:\Users\stapi\AppData\Local\Temp\cc0UDxF1.s:254    .text.ip4_input:0000000000000030 .L0 
C:\Users\stapi\AppData\Local\Temp\cc0UDxF1.s:255    .text.ip4_input:0000000000000030 .L0 
C:\Users\stapi\AppData\Local\Temp\cc0UDxF1.s:256    .text.ip4_input:0000000000000030 .L0 
C:\Users\stapi\AppData\Local\Temp\cc0UDxF1.s:257    .text.ip4_input:0000000000000030 .L0 
C:\Users\stapi\AppData\Local\Temp\cc0UDxF1.s:258    .text.ip4_input:0000000000000030 .L0 
C:\Users\stapi\AppData\Local\Temp\cc0UDxF1.s:259    .text.ip4_input:0000000000000030 .L0 
C:\Users\stapi\AppData\Local\Temp\cc0UDxF1.s:260    .text.ip4_input:0000000000000030 .L0 
C:\Users\stapi\AppData\Local\Temp\cc0UDxF1.s:261    .text.ip4_input:0000000000000030 .L0 
C:\Users\stapi\AppData\Local\Temp\cc0UDxF1.s:262    .text.ip4_input:0000000000000030 .L0 
C:\Users\stapi\AppData\Local\Temp\cc0UDxF1.s:263    .text.ip4_input:0000000000000030 .L0 
C:\Users\stapi\AppData\Local\Temp\cc0UDxF1.s:266    .text.ip4_input:0000000000000030 .L0 
C:\Users\stapi\AppData\Local\Temp\cc0UDxF1.s:268    .text.ip4_input:0000000000000030 .L0 
C:\Users\stapi\AppData\Local\Temp\cc0UDxF1.s:272    .text.ip4_input:000000000000003a .L0 
C:\Users\stapi\AppData\Local\Temp\cc0UDxF1.s:273    .text.ip4_input:000000000000003a .L0 
C:\Users\stapi\AppData\Local\Temp\cc0UDxF1.s:278    .text.ip4_input:0000000000000046 .L0 
C:\Users\stapi\AppData\Local\Temp\cc0UDxF1.s:280    .text.ip4_input:000000000000004a .L0 
C:\Users\stapi\AppData\Local\Temp\cc0UDxF1.s:283    .text.ip4_input:0000000000000050 .L0 
C:\Users\stapi\AppData\Local\Temp\cc0UDxF1.s:286    .text.ip4_input:0000000000000052 .L0 
C:\Users\stapi\AppData\Local\Temp\cc0UDxF1.s:287    .text.ip4_input:0000000000000052 .L0 
C:\Users\stapi\AppData\Local\Temp\cc0UDxF1.s:290    .text.ip4_input:0000000000000054 .L0 
C:\Users\stapi\AppData\Local\Temp\cc0UDxF1.s:291    .text.ip4_input:0000000000000054 .L0 
C:\Users\stapi\AppData\Local\Temp\cc0UDxF1.s:293    .text.ip4_input:0000000000000058 .L0 
C:\Users\stapi\AppData\Local\Temp\cc0UDxF1.s:300    .text.ip4_input:0000000000000064 .L0 
C:\Users\stapi\AppData\Local\Temp\cc0UDxF1.s:301    .text.ip4_input:0000000000000064 .L0 
C:\Users\stapi\AppData\Local\Temp\cc0UDxF1.s:304    .text.ip4_input:000000000000006c .L0 
C:\Users\stapi\AppData\Local\Temp\cc0UDxF1.s:307    .text.ip4_input:0000000000000074 .L0 
C:\Users\stapi\AppData\Local\Temp\cc0UDxF1.s:310    .text.ip4_input:000000000000007a .L0 
C:\Users\stapi\AppData\Local\Temp\cc0UDxF1.s:311    .text.ip4_input:000000000000007a .L0 
C:\Users\stapi\AppData\Local\Temp\cc0UDxF1.s:316    .text.ip4_input:0000000000000086 .L0 
C:\Users\stapi\AppData\Local\Temp\cc0UDxF1.s:318    .text.ip4_input:0000000000000088 .L0 
C:\Users\stapi\AppData\Local\Temp\cc0UDxF1.s:333    .text.ip4_input:00000000000000b2 .L0 
C:\Users\stapi\AppData\Local\Temp\cc0UDxF1.s:336    .text.ip4_input:00000000000000ba .L0 
C:\Users\stapi\AppData\Local\Temp\cc0UDxF1.s:338    .text.ip4_input:00000000000000be .L0 
C:\Users\stapi\AppData\Local\Temp\cc0UDxF1.s:348    .text.ip4_input:00000000000000d4 .L0 
C:\Users\stapi\AppData\Local\Temp\cc0UDxF1.s:349    .text.ip4_input:00000000000000d4 .L0 
C:\Users\stapi\AppData\Local\Temp\cc0UDxF1.s:352    .text.ip4_input:00000000000000dc .L0 
C:\Users\stapi\AppData\Local\Temp\cc0UDxF1.s:353    .text.ip4_input:00000000000000dc .L0 
C:\Users\stapi\AppData\Local\Temp\cc0UDxF1.s:359    .text.ip4_input:00000000000000e6 .L0 
C:\Users\stapi\AppData\Local\Temp\cc0UDxF1.s:360    .text.ip4_input:00000000000000e6 .L0 
C:\Users\stapi\AppData\Local\Temp\cc0UDxF1.s:371    .text.ip4_input:00000000000000f4 .L0 
C:\Users\stapi\AppData\Local\Temp\cc0UDxF1.s:377    .text.ip4_input:0000000000000106 .L0 
C:\Users\stapi\AppData\Local\Temp\cc0UDxF1.s:380    .text.ip4_input:0000000000000108 .L0 
C:\Users\stapi\AppData\Local\Temp\cc0UDxF1.s:382    .text.ip4_input:0000000000000108 .L0 
C:\Users\stapi\AppData\Local\Temp\cc0UDxF1.s:383    .text.ip4_input:0000000000000108 .L0 
C:\Users\stapi\AppData\Local\Temp\cc0UDxF1.s:384    .text.ip4_input:0000000000000108 .L0 
C:\Users\stapi\AppData\Local\Temp\cc0UDxF1.s:392    .text.ip4_input:0000000000000116 .L0 
C:\Users\stapi\AppData\Local\Temp\cc0UDxF1.s:396    .text.ip4_input:0000000000000118 .L0 
C:\Users\stapi\AppData\Local\Temp\cc0UDxF1.s:398    .text.ip4_input:000000000000011a .L0 
C:\Users\stapi\AppData\Local\Temp\cc0UDxF1.s:400    .text.ip4_input:000000000000011c .L0 
C:\Users\stapi\AppData\Local\Temp\cc0UDxF1.s:401    .text.ip4_input:000000000000011c .L0 
C:\Users\stapi\AppData\Local\Temp\cc0UDxF1.s:405    .text.ip4_input:0000000000000126 .L0 
C:\Users\stapi\AppData\Local\Temp\cc0UDxF1.s:407    .text.ip4_input:000000000000012a .L0 
C:\Users\stapi\AppData\Local\Temp\cc0UDxF1.s:409    .text.ip4_input:000000000000012c .L0 
C:\Users\stapi\AppData\Local\Temp\cc0UDxF1.s:411    .text.ip4_input:0000000000000130 .L0 
C:\Users\stapi\AppData\Local\Temp\cc0UDxF1.s:413    .text.ip4_input:0000000000000134 .L0 
C:\Users\stapi\AppData\Local\Temp\cc0UDxF1.s:417    .text.ip4_input:0000000000000138 .L0 
C:\Users\stapi\AppData\Local\Temp\cc0UDxF1.s:418    .text.ip4_input:0000000000000138 .L0 
C:\Users\stapi\AppData\Local\Temp\cc0UDxF1.s:423    .text.ip4_input:000000000000013e .L0 
C:\Users\stapi\AppData\Local\Temp\cc0UDxF1.s:424    .text.ip4_input:000000000000013e .L0 
C:\Users\stapi\AppData\Local\Temp\cc0UDxF1.s:430    .text.ip4_input:0000000000000144 .L0 
C:\Users\stapi\AppData\Local\Temp\cc0UDxF1.s:431    .text.ip4_input:0000000000000144 .L0 
C:\Users\stapi\AppData\Local\Temp\cc0UDxF1.s:434    .text.ip4_input:000000000000014c .L0 
C:\Users\stapi\AppData\Local\Temp\cc0UDxF1.s:436    .text.ip4_input:0000000000000150 .L0 
C:\Users\stapi\AppData\Local\Temp\cc0UDxF1.s:438    .text.ip4_input:0000000000000152 .L0 
C:\Users\stapi\AppData\Local\Temp\cc0UDxF1.s:441    .text.ip4_input:0000000000000156 .L0 
C:\Users\stapi\AppData\Local\Temp\cc0UDxF1.s:442    .text.ip4_input:0000000000000156 .L0 
C:\Users\stapi\AppData\Local\Temp\cc0UDxF1.s:443    .text.ip4_input:0000000000000156 .L0 
C:\Users\stapi\AppData\Local\Temp\cc0UDxF1.s:449    .text.ip4_input:0000000000000162 .L0 
C:\Users\stapi\AppData\Local\Temp\cc0UDxF1.s:450    .text.ip4_input:0000000000000162 .L0 
C:\Users\stapi\AppData\Local\Temp\cc0UDxF1.s:452    .text.ip4_input:0000000000000166 .L0 
C:\Users\stapi\AppData\Local\Temp\cc0UDxF1.s:453    .text.ip4_input:0000000000000166 .L0 
C:\Users\stapi\AppData\Local\Temp\cc0UDxF1.s:457    .text.ip4_input:000000000000016a .L0 
C:\Users\stapi\AppData\Local\Temp\cc0UDxF1.s:458    .text.ip4_input:000000000000016a .L0 
C:\Users\stapi\AppData\Local\Temp\cc0UDxF1.s:459    .text.ip4_input:000000000000016a .L0 
C:\Users\stapi\AppData\Local\Temp\cc0UDxF1.s:460    .text.ip4_input:000000000000016a .L0 
C:\Users\stapi\AppData\Local\Temp\cc0UDxF1.s:461    .text.ip4_input:000000000000016a .L0 
C:\Users\stapi\AppData\Local\Temp\cc0UDxF1.s:463    .text.ip4_input:000000000000016e .L0 
C:\Users\stapi\AppData\Local\Temp\cc0UDxF1.s:464    .text.ip4_input:000000000000016e .L0 
C:\Users\stapi\AppData\Local\Temp\cc0UDxF1.s:466    .text.ip4_input:0000000000000172 .L0 
C:\Users\stapi\AppData\Local\Temp\cc0UDxF1.s:467    .text.ip4_input:0000000000000172 .L0 
C:\Users\stapi\AppData\Local\Temp\cc0UDxF1.s:469    .text.ip4_input:0000000000000176 .L0 
C:\Users\stapi\AppData\Local\Temp\cc0UDxF1.s:470    .text.ip4_input:0000000000000176 .L0 
C:\Users\stapi\AppData\Local\Temp\cc0UDxF1.s:472    .text.ip4_input:000000000000017a .L0 
C:\Users\stapi\AppData\Local\Temp\cc0UDxF1.s:475    .text.ip4_input:000000000000017e .L0 
C:\Users\stapi\AppData\Local\Temp\cc0UDxF1.s:479    .text.ip4_input:0000000000000186 .L0 
C:\Users\stapi\AppData\Local\Temp\cc0UDxF1.s:480    .text.ip4_input:0000000000000186 .L0 
C:\Users\stapi\AppData\Local\Temp\cc0UDxF1.s:482    .text.ip4_input:0000000000000188 .L0 
C:\Users\stapi\AppData\Local\Temp\cc0UDxF1.s:487    .text.ip4_input:0000000000000192 .L0 
C:\Users\stapi\AppData\Local\Temp\cc0UDxF1.s:488    .text.ip4_input:0000000000000192 .L0 
C:\Users\stapi\AppData\Local\Temp\cc0UDxF1.s:490    .text.ip4_input:0000000000000196 .L0 
C:\Users\stapi\AppData\Local\Temp\cc0UDxF1.s:496    .text.ip4_input:00000000000001a2 .L0 
C:\Users\stapi\AppData\Local\Temp\cc0UDxF1.s:497    .text.ip4_input:00000000000001a2 .L0 
C:\Users\stapi\AppData\Local\Temp\cc0UDxF1.s:499    .text.ip4_input:00000000000001a6 .L0 
C:\Users\stapi\AppData\Local\Temp\cc0UDxF1.s:507    .text.ip4_input:00000000000001ba .L0 
C:\Users\stapi\AppData\Local\Temp\cc0UDxF1.s:508    .text.ip4_input:00000000000001ba .L0 
C:\Users\stapi\AppData\Local\Temp\cc0UDxF1.s:511    .text.ip4_input:00000000000001c0 .L0 
C:\Users\stapi\AppData\Local\Temp\cc0UDxF1.s:512    .text.ip4_input:00000000000001c0 .L0 
C:\Users\stapi\AppData\Local\Temp\cc0UDxF1.s:517    .text.ip4_input:00000000000001cc .L0 
C:\Users\stapi\AppData\Local\Temp\cc0UDxF1.s:519    .text.ip4_input:00000000000001ce .L0 
C:\Users\stapi\AppData\Local\Temp\cc0UDxF1.s:521    .text.ip4_input:00000000000001d0 .L0 
C:\Users\stapi\AppData\Local\Temp\cc0UDxF1.s:523    .text.ip4_input:00000000000001d4 .L0 
C:\Users\stapi\AppData\Local\Temp\cc0UDxF1.s:525    .text.ip4_input:00000000000001d8 .L0 
C:\Users\stapi\AppData\Local\Temp\cc0UDxF1.s:527    .text.ip4_input:00000000000001dc .L0 
C:\Users\stapi\AppData\Local\Temp\cc0UDxF1.s:532    .text.ip4_input:00000000000001e8 .L0 
C:\Users\stapi\AppData\Local\Temp\cc0UDxF1.s:538    .text.ip4_input:00000000000001f4 .L0 
C:\Users\stapi\AppData\Local\Temp\cc0UDxF1.s:539    .text.ip4_input:00000000000001f4 .L0 
C:\Users\stapi\AppData\Local\Temp\cc0UDxF1.s:540    .text.ip4_input:00000000000001f4 .L0 
C:\Users\stapi\AppData\Local\Temp\cc0UDxF1.s:541    .text.ip4_input:00000000000001f4 .L0 
C:\Users\stapi\AppData\Local\Temp\cc0UDxF1.s:542    .text.ip4_input:00000000000001f4 .L0 
C:\Users\stapi\AppData\Local\Temp\cc0UDxF1.s:546    .text.ip4_input:00000000000001fe .L0 
C:\Users\stapi\AppData\Local\Temp\cc0UDxF1.s:550    .text.ip4_input:0000000000000200 .L0 
C:\Users\stapi\AppData\Local\Temp\cc0UDxF1.s:551    .text.ip4_input:0000000000000200 .L0 
C:\Users\stapi\AppData\Local\Temp\cc0UDxF1.s:555    .text.ip4_input:000000000000020a .L0 
C:\Users\stapi\AppData\Local\Temp\cc0UDxF1.s:558    .text.ip4_input:000000000000020c .L0 
C:\Users\stapi\AppData\Local\Temp\cc0UDxF1.s:559    .text.ip4_input:000000000000020c .L0 
C:\Users\stapi\AppData\Local\Temp\cc0UDxF1.s:560    .text.ip4_input:000000000000020c .L0 
C:\Users\stapi\AppData\Local\Temp\cc0UDxF1.s:562    .text.ip4_input:0000000000000210 .L0 
C:\Users\stapi\AppData\Local\Temp\cc0UDxF1.s:565    .text.ip4_input:0000000000000218 .L0 
C:\Users\stapi\AppData\Local\Temp\cc0UDxF1.s:570    .text.ip4_input:0000000000000220 .L0 
C:\Users\stapi\AppData\Local\Temp\cc0UDxF1.s:572    .text.ip4_input:0000000000000224 .L0 
C:\Users\stapi\AppData\Local\Temp\cc0UDxF1.s:573    .text.ip4_input:0000000000000224 .L0 
C:\Users\stapi\AppData\Local\Temp\cc0UDxF1.s:576    .text.ip4_input:0000000000000228 .L0 
C:\Users\stapi\AppData\Local\Temp\cc0UDxF1.s:581    .text.ip4_input:000000000000022e .L0 
C:\Users\stapi\AppData\Local\Temp\cc0UDxF1.s:582    .text.ip4_input:000000000000022e .L0 
C:\Users\stapi\AppData\Local\Temp\cc0UDxF1.s:586    .text.ip4_input:0000000000000238 .L0 
C:\Users\stapi\AppData\Local\Temp\cc0UDxF1.s:591    .text.ip4_input:000000000000023c .L0 
C:\Users\stapi\AppData\Local\Temp\cc0UDxF1.s:592    .text.ip4_input:000000000000023c .L0 
C:\Users\stapi\AppData\Local\Temp\cc0UDxF1.s:598    .text.ip4_input:0000000000000242 .L0 
C:\Users\stapi\AppData\Local\Temp\cc0UDxF1.s:599    .text.ip4_input:0000000000000242 .L0 
C:\Users\stapi\AppData\Local\Temp\cc0UDxF1.s:600    .text.ip4_input:0000000000000242 .L0 
C:\Users\stapi\AppData\Local\Temp\cc0UDxF1.s:601    .text.ip4_input:0000000000000242 .L0 
C:\Users\stapi\AppData\Local\Temp\cc0UDxF1.s:605    .text.ip4_input:000000000000024e .L0 
C:\Users\stapi\AppData\Local\Temp\cc0UDxF1.s:607    .text.ip4_input:0000000000000250 .L0 
C:\Users\stapi\AppData\Local\Temp\cc0UDxF1.s:609    .text.ip4_input:0000000000000252 .L0 
C:\Users\stapi\AppData\Local\Temp\cc0UDxF1.s:618    .text.ip4_input:0000000000000260 .L0 
C:\Users\stapi\AppData\Local\Temp\cc0UDxF1.s:621    .text.ip4_input:0000000000000266 .L0 
C:\Users\stapi\AppData\Local\Temp\cc0UDxF1.s:622    .text.ip4_input:0000000000000266 .L0 
C:\Users\stapi\AppData\Local\Temp\cc0UDxF1.s:628    .text.ip4_input:0000000000000272 .L0 
C:\Users\stapi\AppData\Local\Temp\cc0UDxF1.s:629    .text.ip4_input:0000000000000272 .L0 
C:\Users\stapi\AppData\Local\Temp\cc0UDxF1.s:630    .text.ip4_input:0000000000000272 .L0 
C:\Users\stapi\AppData\Local\Temp\cc0UDxF1.s:632    .text.ip4_input:0000000000000276 .L0 
C:\Users\stapi\AppData\Local\Temp\cc0UDxF1.s:633    .text.ip4_input:0000000000000276 .L0 
C:\Users\stapi\AppData\Local\Temp\cc0UDxF1.s:635    .text.ip4_input:000000000000027a .L0 
C:\Users\stapi\AppData\Local\Temp\cc0UDxF1.s:636    .text.ip4_input:000000000000027a .L0 
C:\Users\stapi\AppData\Local\Temp\cc0UDxF1.s:638    .text.ip4_input:000000000000027e .L0 
C:\Users\stapi\AppData\Local\Temp\cc0UDxF1.s:639    .text.ip4_input:000000000000027e .L0 
C:\Users\stapi\AppData\Local\Temp\cc0UDxF1.s:641    .text.ip4_input:0000000000000282 .L0 
C:\Users\stapi\AppData\Local\Temp\cc0UDxF1.s:643    .text.ip4_input:0000000000000286 .L0 
C:\Users\stapi\AppData\Local\Temp\cc0UDxF1.s:645    .text.ip4_input:000000000000028a .L0 
C:\Users\stapi\AppData\Local\Temp\cc0UDxF1.s:646    .text.ip4_input:000000000000028a .L0 
C:\Users\stapi\AppData\Local\Temp\cc0UDxF1.s:649    .text.ip4_input:000000000000028c .L0 
C:\Users\stapi\AppData\Local\Temp\cc0UDxF1.s:650    .text.ip4_input:000000000000028c .L0 
C:\Users\stapi\AppData\Local\Temp\cc0UDxF1.s:655    .text.ip4_input:0000000000000298 .L0 
C:\Users\stapi\AppData\Local\Temp\cc0UDxF1.s:658    .text.ip4_input:000000000000029a .L0 
C:\Users\stapi\AppData\Local\Temp\cc0UDxF1.s:659    .text.ip4_input:000000000000029a .L0 
C:\Users\stapi\AppData\Local\Temp\cc0UDxF1.s:664    .text.ip4_input:00000000000002a6 .L0 
C:\Users\stapi\AppData\Local\Temp\cc0UDxF1.s:667    .text.ip4_input:00000000000002a8 .L0 
C:\Users\stapi\AppData\Local\Temp\cc0UDxF1.s:674    .text.ip4_input:00000000000002bc .L0 
C:\Users\stapi\AppData\Local\Temp\cc0UDxF1.s:675    .text.ip4_input:00000000000002be .L0 
C:\Users\stapi\AppData\Local\Temp\cc0UDxF1.s:695    .text.ip4_output_if_opt_src:0000000000000000 ip4_output_if_opt_src
C:\Users\stapi\AppData\Local\Temp\cc0UDxF1.s:698    .text.ip4_output_if_opt_src:0000000000000000 .L0 
C:\Users\stapi\AppData\Local\Temp\cc0UDxF1.s:700    .text.ip4_output_if_opt_src:0000000000000000 .L0 
C:\Users\stapi\AppData\Local\Temp\cc0UDxF1.s:701    .text.ip4_output_if_opt_src:0000000000000008 .L0 
C:\Users\stapi\AppData\Local\Temp\cc0UDxF1.s:702    .text.ip4_output_if_opt_src:0000000000000008 .L0 
C:\Users\stapi\AppData\Local\Temp\cc0UDxF1.s:703    .text.ip4_output_if_opt_src:0000000000000008 .L0 
C:\Users\stapi\AppData\Local\Temp\cc0UDxF1.s:704    .text.ip4_output_if_opt_src:0000000000000008 .L0 
C:\Users\stapi\AppData\Local\Temp\cc0UDxF1.s:705    .text.ip4_output_if_opt_src:0000000000000008 .L0 
C:\Users\stapi\AppData\Local\Temp\cc0UDxF1.s:706    .text.ip4_output_if_opt_src:0000000000000008 .L0 
C:\Users\stapi\AppData\Local\Temp\cc0UDxF1.s:707    .text.ip4_output_if_opt_src:0000000000000008 .L0 
C:\Users\stapi\AppData\Local\Temp\cc0UDxF1.s:708    .text.ip4_output_if_opt_src:0000000000000008 .L0 
C:\Users\stapi\AppData\Local\Temp\cc0UDxF1.s:709    .text.ip4_output_if_opt_src:0000000000000008 .L0 
C:\Users\stapi\AppData\Local\Temp\cc0UDxF1.s:710    .text.ip4_output_if_opt_src:0000000000000008 .L0 
C:\Users\stapi\AppData\Local\Temp\cc0UDxF1.s:711    .text.ip4_output_if_opt_src:0000000000000008 .L0 
C:\Users\stapi\AppData\Local\Temp\cc0UDxF1.s:712    .text.ip4_output_if_opt_src:0000000000000008 .L0 
C:\Users\stapi\AppData\Local\Temp\cc0UDxF1.s:713    .text.ip4_output_if_opt_src:0000000000000008 .L0 
C:\Users\stapi\AppData\Local\Temp\cc0UDxF1.s:716    .text.ip4_output_if_opt_src:000000000000000a .L0 
C:\Users\stapi\AppData\Local\Temp\cc0UDxF1.s:719    .text.ip4_output_if_opt_src:000000000000000e .L0 
C:\Users\stapi\AppData\Local\Temp\cc0UDxF1.s:720    .text.ip4_output_if_opt_src:0000000000000010 .L0 
C:\Users\stapi\AppData\Local\Temp\cc0UDxF1.s:722    .text.ip4_output_if_opt_src:0000000000000010 .L0 
C:\Users\stapi\AppData\Local\Temp\cc0UDxF1.s:724    .text.ip4_output_if_opt_src:0000000000000012 .L0 
C:\Users\stapi\AppData\Local\Temp\cc0UDxF1.s:725    .text.ip4_output_if_opt_src:0000000000000012 .L0 
C:\Users\stapi\AppData\Local\Temp\cc0UDxF1.s:727    .text.ip4_output_if_opt_src:0000000000000012 .L0 
C:\Users\stapi\AppData\Local\Temp\cc0UDxF1.s:728    .text.ip4_output_if_opt_src:0000000000000012 .L0 
C:\Users\stapi\AppData\Local\Temp\cc0UDxF1.s:729    .text.ip4_output_if_opt_src:0000000000000012 .L0 
C:\Users\stapi\AppData\Local\Temp\cc0UDxF1.s:730    .text.ip4_output_if_opt_src:0000000000000012 .L0 
C:\Users\stapi\AppData\Local\Temp\cc0UDxF1.s:733    .text.ip4_output_if_opt_src:0000000000000014 .L0 
C:\Users\stapi\AppData\Local\Temp\cc0UDxF1.s:735    .text.ip4_output_if_opt_src:0000000000000018 .L0 
C:\Users\stapi\AppData\Local\Temp\cc0UDxF1.s:737    .text.ip4_output_if_opt_src:000000000000001c .L0 
C:\Users\stapi\AppData\Local\Temp\cc0UDxF1.s:738    .text.ip4_output_if_opt_src:000000000000001c .L0 
C:\Users\stapi\AppData\Local\Temp\cc0UDxF1.s:753    .text.ip4_output_if_opt_src:0000000000000040 .L0 
C:\Users\stapi\AppData\Local\Temp\cc0UDxF1.s:754    .text.ip4_output_if_opt_src:0000000000000040 .L0 
C:\Users\stapi\AppData\Local\Temp\cc0UDxF1.s:755    .text.ip4_output_if_opt_src:0000000000000040 .L0 
C:\Users\stapi\AppData\Local\Temp\cc0UDxF1.s:765    .text.ip4_output_if_opt_src:0000000000000048 .L0 
C:\Users\stapi\AppData\Local\Temp\cc0UDxF1.s:766    .text.ip4_output_if_opt_src:0000000000000048 .L0 
C:\Users\stapi\AppData\Local\Temp\cc0UDxF1.s:767    .text.ip4_output_if_opt_src:0000000000000048 .L0 
C:\Users\stapi\AppData\Local\Temp\cc0UDxF1.s:768    .text.ip4_output_if_opt_src:0000000000000048 .L0 
C:\Users\stapi\AppData\Local\Temp\cc0UDxF1.s:769    .text.ip4_output_if_opt_src:0000000000000048 .L0 
C:\Users\stapi\AppData\Local\Temp\cc0UDxF1.s:776    .text.ip4_output_if_opt_src:0000000000000050 .L0 
C:\Users\stapi\AppData\Local\Temp\cc0UDxF1.s:777    .text.ip4_output_if_opt_src:0000000000000050 .L0 
C:\Users\stapi\AppData\Local\Temp\cc0UDxF1.s:778    .text.ip4_output_if_opt_src:0000000000000050 .L0 
C:\Users\stapi\AppData\Local\Temp\cc0UDxF1.s:779    .text.ip4_output_if_opt_src:0000000000000050 .L0 
C:\Users\stapi\AppData\Local\Temp\cc0UDxF1.s:782    .text.ip4_output_if_opt_src:0000000000000054 .L0 
C:\Users\stapi\AppData\Local\Temp\cc0UDxF1.s:783    .text.ip4_output_if_opt_src:0000000000000054 .L0 
C:\Users\stapi\AppData\Local\Temp\cc0UDxF1.s:784    .text.ip4_output_if_opt_src:0000000000000054 .L0 
C:\Users\stapi\AppData\Local\Temp\cc0UDxF1.s:787    .text.ip4_output_if_opt_src:000000000000005c .L0 
C:\Users\stapi\AppData\Local\Temp\cc0UDxF1.s:789    .text.ip4_output_if_opt_src:0000000000000060 .L0 
C:\Users\stapi\AppData\Local\Temp\cc0UDxF1.s:792    .text.ip4_output_if_opt_src:0000000000000066 .L0 
C:\Users\stapi\AppData\Local\Temp\cc0UDxF1.s:794    .text.ip4_output_if_opt_src:000000000000006a .L0 
C:\Users\stapi\AppData\Local\Temp\cc0UDxF1.s:799    .text.ip4_output_if_opt_src:000000000000006e .L0 
C:\Users\stapi\AppData\Local\Temp\cc0UDxF1.s:800    .text.ip4_output_if_opt_src:000000000000006e .L0 
C:\Users\stapi\AppData\Local\Temp\cc0UDxF1.s:801    .text.ip4_output_if_opt_src:000000000000006e .L0 
C:\Users\stapi\AppData\Local\Temp\cc0UDxF1.s:804    .text.ip4_output_if_opt_src:0000000000000072 .L0 
C:\Users\stapi\AppData\Local\Temp\cc0UDxF1.s:805    .text.ip4_output_if_opt_src:0000000000000072 .L0 
C:\Users\stapi\AppData\Local\Temp\cc0UDxF1.s:808    .text.ip4_output_if_opt_src:000000000000007a .L0 
C:\Users\stapi\AppData\Local\Temp\cc0UDxF1.s:812    .text.ip4_output_if_opt_src:000000000000007c .L0 
C:\Users\stapi\AppData\Local\Temp\cc0UDxF1.s:820    .text.ip4_output_if_opt_src:000000000000007e .L0 
C:\Users\stapi\AppData\Local\Temp\cc0UDxF1.s:821    .text.ip4_output_if_opt_src:0000000000000080 .L0 
C:\Users\stapi\AppData\Local\Temp\cc0UDxF1.s:822    .text.ip4_output_if_opt_src:0000000000000080 .L0 
C:\Users\stapi\AppData\Local\Temp\cc0UDxF1.s:825    .text.ip4_output_if_opt_src:0000000000000088 .L0 
C:\Users\stapi\AppData\Local\Temp\cc0UDxF1.s:826    .text.ip4_output_if_opt_src:0000000000000088 .L0 
C:\Users\stapi\AppData\Local\Temp\cc0UDxF1.s:827    .text.ip4_output_if_opt_src:0000000000000088 .L0 
C:\Users\stapi\AppData\Local\Temp\cc0UDxF1.s:828    .text.ip4_output_if_opt_src:0000000000000088 .L0 
C:\Users\stapi\AppData\Local\Temp\cc0UDxF1.s:829    .text.ip4_output_if_opt_src:0000000000000088 .L0 
C:\Users\stapi\AppData\Local\Temp\cc0UDxF1.s:830    .text.ip4_output_if_opt_src:0000000000000088 .L0 
C:\Users\stapi\AppData\Local\Temp\cc0UDxF1.s:831    .text.ip4_output_if_opt_src:0000000000000088 .L0 
C:\Users\stapi\AppData\Local\Temp\cc0UDxF1.s:832    .text.ip4_output_if_opt_src:0000000000000088 .L0 
C:\Users\stapi\AppData\Local\Temp\cc0UDxF1.s:833    .text.ip4_output_if_opt_src:0000000000000088 .L0 
C:\Users\stapi\AppData\Local\Temp\cc0UDxF1.s:834    .text.ip4_output_if_opt_src:0000000000000088 .L0 
C:\Users\stapi\AppData\Local\Temp\cc0UDxF1.s:835    .text.ip4_output_if_opt_src:0000000000000088 .L0 
C:\Users\stapi\AppData\Local\Temp\cc0UDxF1.s:836    .text.ip4_output_if_opt_src:0000000000000088 .L0 
C:\Users\stapi\AppData\Local\Temp\cc0UDxF1.s:837    .text.ip4_output_if_opt_src:0000000000000088 .L0 
C:\Users\stapi\AppData\Local\Temp\cc0UDxF1.s:840    .text.ip4_output_if_opt_src:0000000000000088 .L0 
C:\Users\stapi\AppData\Local\Temp\cc0UDxF1.s:846    .text.ip4_output_if_opt_src:0000000000000088 .L0 
C:\Users\stapi\AppData\Local\Temp\cc0UDxF1.s:852    .text.ip4_output_if_opt_src:0000000000000096 .L0 
C:\Users\stapi\AppData\Local\Temp\cc0UDxF1.s:853    .text.ip4_output_if_opt_src:0000000000000096 .L0 
C:\Users\stapi\AppData\Local\Temp\cc0UDxF1.s:855    .text.ip4_output_if_opt_src:000000000000009a .L0 
C:\Users\stapi\AppData\Local\Temp\cc0UDxF1.s:863    .text.ip4_output_if_opt_src:00000000000000ac .L0 
C:\Users\stapi\AppData\Local\Temp\cc0UDxF1.s:864    .text.ip4_output_if_opt_src:00000000000000ac .L0 
C:\Users\stapi\AppData\Local\Temp\cc0UDxF1.s:865    .text.ip4_output_if_opt_src:00000000000000ac .L0 
C:\Users\stapi\AppData\Local\Temp\cc0UDxF1.s:867    .text.ip4_output_if_opt_src:00000000000000ae .L0 
C:\Users\stapi\AppData\Local\Temp\cc0UDxF1.s:872    .text.ip4_output_if_opt_src:00000000000000b0 .L0 
C:\Users\stapi\AppData\Local\Temp\cc0UDxF1.s:877    .text.ip4_output_if_opt_src:00000000000000b2 .L0 
C:\Users\stapi\AppData\Local\Temp\cc0UDxF1.s:881    .text.ip4_output_if_opt_src:00000000000000b4 .L0 
C:\Users\stapi\AppData\Local\Temp\cc0UDxF1.s:882    .text.ip4_output_if_opt_src:00000000000000b4 .L0 
C:\Users\stapi\AppData\Local\Temp\cc0UDxF1.s:885    .text.ip4_output_if_opt_src:00000000000000bc .L0 
C:\Users\stapi\AppData\Local\Temp\cc0UDxF1.s:888    .text.ip4_output_if_opt_src:00000000000000be .L0 
C:\Users\stapi\AppData\Local\Temp\cc0UDxF1.s:891    .text.ip4_output_if_opt_src:00000000000000c0 .L0 
C:\Users\stapi\AppData\Local\Temp\cc0UDxF1.s:892    .text.ip4_output_if_opt_src:00000000000000c0 .L0 
C:\Users\stapi\AppData\Local\Temp\cc0UDxF1.s:893    .text.ip4_output_if_opt_src:00000000000000c0 .L0 
C:\Users\stapi\AppData\Local\Temp\cc0UDxF1.s:898    .text.ip4_output_if_opt_src:00000000000000c4 .L0 
C:\Users\stapi\AppData\Local\Temp\cc0UDxF1.s:899    .text.ip4_output_if_opt_src:00000000000000c4 .L0 
C:\Users\stapi\AppData\Local\Temp\cc0UDxF1.s:904    .text.ip4_output_if_opt_src:00000000000000d0 .L0 
C:\Users\stapi\AppData\Local\Temp\cc0UDxF1.s:907    .text.ip4_output_if_opt_src:00000000000000d2 .L0 
C:\Users\stapi\AppData\Local\Temp\cc0UDxF1.s:908    .text.ip4_output_if_opt_src:00000000000000d2 .L0 
C:\Users\stapi\AppData\Local\Temp\cc0UDxF1.s:909    .text.ip4_output_if_opt_src:00000000000000d2 .L0 
C:\Users\stapi\AppData\Local\Temp\cc0UDxF1.s:913    .text.ip4_output_if_opt_src:00000000000000dc .L0 
C:\Users\stapi\AppData\Local\Temp\cc0UDxF1.s:914    .text.ip4_output_if_opt_src:00000000000000dc .L0 
C:\Users\stapi\AppData\Local\Temp\cc0UDxF1.s:925    .text.ip4_output_if_opt_src:0000000000000100 .L0 
C:\Users\stapi\AppData\Local\Temp\cc0UDxF1.s:926    .text.ip4_output_if_opt_src:0000000000000100 .L0 
C:\Users\stapi\AppData\Local\Temp\cc0UDxF1.s:927    .text.ip4_output_if_opt_src:0000000000000100 .L0 
C:\Users\stapi\AppData\Local\Temp\cc0UDxF1.s:931    .text.ip4_output_if_opt_src:0000000000000102 .L0 
C:\Users\stapi\AppData\Local\Temp\cc0UDxF1.s:934    .text.ip4_output_if_opt_src:0000000000000104 .L0 
C:\Users\stapi\AppData\Local\Temp\cc0UDxF1.s:941    .text.ip4_output_if_opt_src:0000000000000108 .L0 
C:\Users\stapi\AppData\Local\Temp\cc0UDxF1.s:943    .text.ip4_output_if_opt_src:000000000000010a .L0 
C:\Users\stapi\AppData\Local\Temp\cc0UDxF1.s:944    .text.ip4_output_if_opt_src:000000000000010a .L0 
C:\Users\stapi\AppData\Local\Temp\cc0UDxF1.s:945    .text.ip4_output_if_opt_src:000000000000010a .L0 
C:\Users\stapi\AppData\Local\Temp\cc0UDxF1.s:946    .text.ip4_output_if_opt_src:000000000000010a .L0 
C:\Users\stapi\AppData\Local\Temp\cc0UDxF1.s:950    .text.ip4_output_if_opt_src:0000000000000112 .L0 
C:\Users\stapi\AppData\Local\Temp\cc0UDxF1.s:953    .text.ip4_output_if_opt_src:0000000000000116 .L0 
C:\Users\stapi\AppData\Local\Temp\cc0UDxF1.s:955    .text.ip4_output_if_opt_src:000000000000011a .L0 
C:\Users\stapi\AppData\Local\Temp\cc0UDxF1.s:956    .text.ip4_output_if_opt_src:000000000000011a .L0 
C:\Users\stapi\AppData\Local\Temp\cc0UDxF1.s:958    .text.ip4_output_if_opt_src:000000000000011e .L0 
C:\Users\stapi\AppData\Local\Temp\cc0UDxF1.s:962    .text.ip4_output_if_opt_src:0000000000000124 .L0 
C:\Users\stapi\AppData\Local\Temp\cc0UDxF1.s:969    .text.ip4_output_if_opt_src:0000000000000138 .L0 
C:\Users\stapi\AppData\Local\Temp\cc0UDxF1.s:970    .text.ip4_output_if_opt_src:0000000000000138 .L0 
C:\Users\stapi\AppData\Local\Temp\cc0UDxF1.s:971    .text.ip4_output_if_opt_src:0000000000000138 .L0 
C:\Users\stapi\AppData\Local\Temp\cc0UDxF1.s:973    .text.ip4_output_if_opt_src:000000000000013c .L0 
C:\Users\stapi\AppData\Local\Temp\cc0UDxF1.s:978    .text.ip4_output_if_opt_src:0000000000000144 .L0 
C:\Users\stapi\AppData\Local\Temp\cc0UDxF1.s:980    .text.ip4_output_if_opt_src:0000000000000148 .L0 
C:\Users\stapi\AppData\Local\Temp\cc0UDxF1.s:982    .text.ip4_output_if_opt_src:000000000000014c .L0 
C:\Users\stapi\AppData\Local\Temp\cc0UDxF1.s:984    .text.ip4_output_if_opt_src:0000000000000150 .L0 
C:\Users\stapi\AppData\Local\Temp\cc0UDxF1.s:986    .text.ip4_output_if_opt_src:0000000000000152 .L0 
C:\Users\stapi\AppData\Local\Temp\cc0UDxF1.s:989    .text.ip4_output_if_opt_src:0000000000000156 .L0 
C:\Users\stapi\AppData\Local\Temp\cc0UDxF1.s:991    .text.ip4_output_if_opt_src:000000000000015a .L0 
C:\Users\stapi\AppData\Local\Temp\cc0UDxF1.s:993    .text.ip4_output_if_opt_src:000000000000015c .L0 
C:\Users\stapi\AppData\Local\Temp\cc0UDxF1.s:995    .text.ip4_output_if_opt_src:0000000000000160 .L0 
C:\Users\stapi\AppData\Local\Temp\cc0UDxF1.s:997    .text.ip4_output_if_opt_src:0000000000000164 .L0 
C:\Users\stapi\AppData\Local\Temp\cc0UDxF1.s:999    .text.ip4_output_if_opt_src:0000000000000166 .L0 
C:\Users\stapi\AppData\Local\Temp\cc0UDxF1.s:1003   .text.ip4_output_if_opt_src:0000000000000170 .L0 
C:\Users\stapi\AppData\Local\Temp\cc0UDxF1.s:1006   .text.ip4_output_if_opt_src:0000000000000172 .L0 
C:\Users\stapi\AppData\Local\Temp\cc0UDxF1.s:1007   .text.ip4_output_if_opt_src:0000000000000172 .L0 
C:\Users\stapi\AppData\Local\Temp\cc0UDxF1.s:1008   .text.ip4_output_if_opt_src:0000000000000172 .L0 
C:\Users\stapi\AppData\Local\Temp\cc0UDxF1.s:1009   .text.ip4_output_if_opt_src:0000000000000172 .L0 
C:\Users\stapi\AppData\Local\Temp\cc0UDxF1.s:1011   .text.ip4_output_if_opt_src:0000000000000176 .L0 
C:\Users\stapi\AppData\Local\Temp\cc0UDxF1.s:1013   .text.ip4_output_if_opt_src:000000000000017a .L0 
C:\Users\stapi\AppData\Local\Temp\cc0UDxF1.s:1016   .text.ip4_output_if_opt_src:0000000000000182 .L0 
C:\Users\stapi\AppData\Local\Temp\cc0UDxF1.s:1018   .text.ip4_output_if_opt_src:0000000000000186 .L0 
C:\Users\stapi\AppData\Local\Temp\cc0UDxF1.s:1021   .text.ip4_output_if_opt_src:0000000000000188 .L0 
C:\Users\stapi\AppData\Local\Temp\cc0UDxF1.s:1026   .text.ip4_output_if_opt_src:0000000000000198 .L0 
C:\Users\stapi\AppData\Local\Temp\cc0UDxF1.s:1029   .text.ip4_output_if_opt_src:000000000000019a .L0 
C:\Users\stapi\AppData\Local\Temp\cc0UDxF1.s:1031   .text.ip4_output_if_opt_src:000000000000019e .L0 
C:\Users\stapi\AppData\Local\Temp\cc0UDxF1.s:1034   .text.ip4_output_if_opt_src:00000000000001a2 .L0 
C:\Users\stapi\AppData\Local\Temp\cc0UDxF1.s:1035   .text.ip4_output_if_opt_src:00000000000001a2 .L0 
C:\Users\stapi\AppData\Local\Temp\cc0UDxF1.s:1038   .text.ip4_output_if_opt_src:00000000000001aa .L0 
C:\Users\stapi\AppData\Local\Temp\cc0UDxF1.s:1043   .text.ip4_output_if_opt_src:00000000000001ba .L0 
C:\Users\stapi\AppData\Local\Temp\cc0UDxF1.s:1044   .text.ip4_output_if_opt_src:00000000000001ba .L0 
C:\Users\stapi\AppData\Local\Temp\cc0UDxF1.s:1046   .text.ip4_output_if_opt_src:00000000000001be .L0 
C:\Users\stapi\AppData\Local\Temp\cc0UDxF1.s:1048   .text.ip4_output_if_opt_src:00000000000001c2 .L0 
C:\Users\stapi\AppData\Local\Temp\cc0UDxF1.s:1051   .text.ip4_output_if_opt_src:00000000000001c4 .L0 
C:\Users\stapi\AppData\Local\Temp\cc0UDxF1.s:1054   .text.ip4_output_if_opt_src:00000000000001ca .L0 
C:\Users\stapi\AppData\Local\Temp\cc0UDxF1.s:1055   .text.ip4_output_if_opt_src:00000000000001ca .L0 
C:\Users\stapi\AppData\Local\Temp\cc0UDxF1.s:1057   .text.ip4_output_if_opt_src:00000000000001ce .L0 
C:\Users\stapi\AppData\Local\Temp\cc0UDxF1.s:1063   .text.ip4_output_if_opt_src:00000000000001de .L0 
C:\Users\stapi\AppData\Local\Temp\cc0UDxF1.s:1064   .text.ip4_output_if_opt_src:00000000000001de .L0 
C:\Users\stapi\AppData\Local\Temp\cc0UDxF1.s:1072   .text.ip4_output_if_opt_src:00000000000001f4 .L0 
C:\Users\stapi\AppData\Local\Temp\cc0UDxF1.s:1075   .text.ip4_output_if_opt_src:00000000000001f6 .L0 
C:\Users\stapi\AppData\Local\Temp\cc0UDxF1.s:1076   .text.ip4_output_if_opt_src:00000000000001f6 .L0 
C:\Users\stapi\AppData\Local\Temp\cc0UDxF1.s:1079   .text.ip4_output_if_opt_src:00000000000001f8 .L0 
C:\Users\stapi\AppData\Local\Temp\cc0UDxF1.s:1081   .text.ip4_output_if_opt_src:00000000000001fc .L0 
C:\Users\stapi\AppData\Local\Temp\cc0UDxF1.s:1083   .text.ip4_output_if_opt_src:0000000000000200 .L0 
C:\Users\stapi\AppData\Local\Temp\cc0UDxF1.s:1086   .text.ip4_output_if_opt_src:0000000000000202 .L0 
C:\Users\stapi\AppData\Local\Temp\cc0UDxF1.s:1089   .text.ip4_output_if_opt_src:0000000000000204 .L0 
C:\Users\stapi\AppData\Local\Temp\cc0UDxF1.s:1090   .text.ip4_output_if_opt_src:0000000000000204 .L0 
C:\Users\stapi\AppData\Local\Temp\cc0UDxF1.s:1092   .text.ip4_output_if_opt_src:0000000000000208 .L0 
C:\Users\stapi\AppData\Local\Temp\cc0UDxF1.s:1095   .text.ip4_output_if_opt_src:000000000000020a .L0 
C:\Users\stapi\AppData\Local\Temp\cc0UDxF1.s:1096   .text.ip4_output_if_opt_src:000000000000020a .L0 
C:\Users\stapi\AppData\Local\Temp\cc0UDxF1.s:1097   .text.ip4_output_if_opt_src:000000000000020a .L0 
C:\Users\stapi\AppData\Local\Temp\cc0UDxF1.s:1100   .text.ip4_output_if_opt_src:000000000000020e .L0 
C:\Users\stapi\AppData\Local\Temp\cc0UDxF1.s:1109   .text.ip4_output_if_opt_src:000000000000021e .L0 
C:\Users\stapi\AppData\Local\Temp\cc0UDxF1.s:1110   .text.ip4_output_if_opt_src:000000000000021e .L0 
C:\Users\stapi\AppData\Local\Temp\cc0UDxF1.s:1111   .text.ip4_output_if_opt_src:000000000000021e .L0 
C:\Users\stapi\AppData\Local\Temp\cc0UDxF1.s:1112   .text.ip4_output_if_opt_src:000000000000021e .L0 
C:\Users\stapi\AppData\Local\Temp\cc0UDxF1.s:1113   .text.ip4_output_if_opt_src:000000000000021e .L0 
C:\Users\stapi\AppData\Local\Temp\cc0UDxF1.s:1117   .text.ip4_output_if_opt_src:000000000000022a .L0 
C:\Users\stapi\AppData\Local\Temp\cc0UDxF1.s:1118   .text.ip4_output_if_opt_src:000000000000022a .L0 
C:\Users\stapi\AppData\Local\Temp\cc0UDxF1.s:1119   .text.ip4_output_if_opt_src:000000000000022a .L0 
C:\Users\stapi\AppData\Local\Temp\cc0UDxF1.s:1128   .text.ip4_output_if_opt_src:0000000000000238 .L0 
C:\Users\stapi\AppData\Local\Temp\cc0UDxF1.s:1134   .text.ip4_output_if_opt_src:000000000000023e .L0 
C:\Users\stapi\AppData\Local\Temp\cc0UDxF1.s:1135   .text.ip4_output_if_opt_src:000000000000023e .L0 
C:\Users\stapi\AppData\Local\Temp\cc0UDxF1.s:1140   .text.ip4_output_if_opt_src:0000000000000248 .L0 
C:\Users\stapi\AppData\Local\Temp\cc0UDxF1.s:1141   .text.ip4_output_if_opt_src:0000000000000248 .L0 
C:\Users\stapi\AppData\Local\Temp\cc0UDxF1.s:1144   .text.ip4_output_if_opt_src:000000000000024a .L0 
C:\Users\stapi\AppData\Local\Temp\cc0UDxF1.s:1146   .text.ip4_output_if_opt_src:000000000000024e .L0 
C:\Users\stapi\AppData\Local\Temp\cc0UDxF1.s:1159   .text.ip4_output_if_opt_src:000000000000026c .L0 
C:\Users\stapi\AppData\Local\Temp\cc0UDxF1.s:1163   .text.ip4_output_if_opt_src:000000000000026e .L0 
C:\Users\stapi\AppData\Local\Temp\cc0UDxF1.s:1164   .text.ip4_output_if_opt_src:000000000000026e .L0 
C:\Users\stapi\AppData\Local\Temp\cc0UDxF1.s:1168   .text.ip4_output_if_opt_src:0000000000000276 .L0 
C:\Users\stapi\AppData\Local\Temp\cc0UDxF1.s:1174   .text.ip4_output_if_opt_src:0000000000000282 .L0 
C:\Users\stapi\AppData\Local\Temp\cc0UDxF1.s:1175   .text.ip4_output_if_opt_src:0000000000000282 .L0 
C:\Users\stapi\AppData\Local\Temp\cc0UDxF1.s:1177   .text.ip4_output_if_opt_src:0000000000000286 .L0 
C:\Users\stapi\AppData\Local\Temp\cc0UDxF1.s:1179   .text.ip4_output_if_opt_src:0000000000000288 .L0 
C:\Users\stapi\AppData\Local\Temp\cc0UDxF1.s:1182   .text.ip4_output_if_opt_src:0000000000000290 .L0 
C:\Users\stapi\AppData\Local\Temp\cc0UDxF1.s:1183   .text.ip4_output_if_opt_src:0000000000000290 .L0 
C:\Users\stapi\AppData\Local\Temp\cc0UDxF1.s:1191   .text.ip4_output_if_opt_src:00000000000002a0 .L0 
C:\Users\stapi\AppData\Local\Temp\cc0UDxF1.s:1192   .text.ip4_output_if_opt_src:00000000000002a0 .L0 
C:\Users\stapi\AppData\Local\Temp\cc0UDxF1.s:1193   .text.ip4_output_if_opt_src:00000000000002a0 .L0 
C:\Users\stapi\AppData\Local\Temp\cc0UDxF1.s:1205   .text.ip4_output_if_opt_src:00000000000002ae .L0 
C:\Users\stapi\AppData\Local\Temp\cc0UDxF1.s:1211   .text.ip4_output_if_opt_src:00000000000002b2 .L0 
C:\Users\stapi\AppData\Local\Temp\cc0UDxF1.s:1218   .text.ip4_output_if_opt:0000000000000000 ip4_output_if_opt
C:\Users\stapi\AppData\Local\Temp\cc0UDxF1.s:1221   .text.ip4_output_if_opt:0000000000000000 .L0 
C:\Users\stapi\AppData\Local\Temp\cc0UDxF1.s:1223   .text.ip4_output_if_opt:0000000000000000 .L0 
C:\Users\stapi\AppData\Local\Temp\cc0UDxF1.s:1224   .text.ip4_output_if_opt:0000000000000008 .L0 
C:\Users\stapi\AppData\Local\Temp\cc0UDxF1.s:1225   .text.ip4_output_if_opt:0000000000000008 .L0 
C:\Users\stapi\AppData\Local\Temp\cc0UDxF1.s:1228   .text.ip4_output_if_opt:0000000000000008 .L0 
C:\Users\stapi\AppData\Local\Temp\cc0UDxF1.s:1229   .text.ip4_output_if_opt:0000000000000008 .L0 
C:\Users\stapi\AppData\Local\Temp\cc0UDxF1.s:1230   .text.ip4_output_if_opt:0000000000000008 .L0 
C:\Users\stapi\AppData\Local\Temp\cc0UDxF1.s:1231   .text.ip4_output_if_opt:000000000000000a .L0 
C:\Users\stapi\AppData\Local\Temp\cc0UDxF1.s:1233   .text.ip4_output_if_opt:000000000000000a .L0 
C:\Users\stapi\AppData\Local\Temp\cc0UDxF1.s:1235   .text.ip4_output_if_opt:000000000000000c .L0 
C:\Users\stapi\AppData\Local\Temp\cc0UDxF1.s:1236   .text.ip4_output_if_opt:000000000000000c .L0 
C:\Users\stapi\AppData\Local\Temp\cc0UDxF1.s:1238   .text.ip4_output_if_opt:000000000000000e .L0 
C:\Users\stapi\AppData\Local\Temp\cc0UDxF1.s:1242   .text.ip4_output_if_opt:0000000000000016 .L0 
C:\Users\stapi\AppData\Local\Temp\cc0UDxF1.s:1243   .text.ip4_output_if_opt:0000000000000016 .L0 
C:\Users\stapi\AppData\Local\Temp\cc0UDxF1.s:1247   .text.ip4_output_if_opt:000000000000001a .L0 
C:\Users\stapi\AppData\Local\Temp\cc0UDxF1.s:1248   .text.ip4_output_if_opt:000000000000001a .L0 
C:\Users\stapi\AppData\Local\Temp\cc0UDxF1.s:1253   .text.ip4_output_if_opt:0000000000000028 .L0 
C:\Users\stapi\AppData\Local\Temp\cc0UDxF1.s:1254   .text.ip4_output_if_opt:000000000000002a .L0 
C:\Users\stapi\AppData\Local\Temp\cc0UDxF1.s:1257   .text.ip4_output_if_opt:0000000000000032 .L0 
C:\Users\stapi\AppData\Local\Temp\cc0UDxF1.s:1258   .text.ip4_output_if_opt:0000000000000032 .L0 
C:\Users\stapi\AppData\Local\Temp\cc0UDxF1.s:1259   .text.ip4_output_if_opt:0000000000000032 .L0 
C:\Users\stapi\AppData\Local\Temp\cc0UDxF1.s:1266   .text.ip4_output_if:0000000000000000 ip4_output_if
C:\Users\stapi\AppData\Local\Temp\cc0UDxF1.s:1269   .text.ip4_output_if:0000000000000000 .L0 
C:\Users\stapi\AppData\Local\Temp\cc0UDxF1.s:1271   .text.ip4_output_if:0000000000000000 .L0 
C:\Users\stapi\AppData\Local\Temp\cc0UDxF1.s:1272   .text.ip4_output_if:0000000000000008 .L0 
C:\Users\stapi\AppData\Local\Temp\cc0UDxF1.s:1273   .text.ip4_output_if:0000000000000008 .L0 
C:\Users\stapi\AppData\Local\Temp\cc0UDxF1.s:1275   .text.ip4_output_if:0000000000000008 .L0 
C:\Users\stapi\AppData\Local\Temp\cc0UDxF1.s:1276   .text.ip4_output_if:0000000000000008 .L0 
C:\Users\stapi\AppData\Local\Temp\cc0UDxF1.s:1277   .text.ip4_output_if:000000000000000a .L0 
C:\Users\stapi\AppData\Local\Temp\cc0UDxF1.s:1279   .text.ip4_output_if:000000000000000a .L0 
C:\Users\stapi\AppData\Local\Temp\cc0UDxF1.s:1284   .text.ip4_output_if:0000000000000016 .L0 
C:\Users\stapi\AppData\Local\Temp\cc0UDxF1.s:1285   .text.ip4_output_if:0000000000000018 .L0 
C:\Users\stapi\AppData\Local\Temp\cc0UDxF1.s:1287   .text.ip4_output_if:0000000000000020 .L0 
C:\Users\stapi\AppData\Local\Temp\cc0UDxF1.s:1288   .text.ip4_output_if:0000000000000020 .L0 
C:\Users\stapi\AppData\Local\Temp\cc0UDxF1.s:1289   .text.ip4_output_if:0000000000000020 .L0 
C:\Users\stapi\AppData\Local\Temp\cc0UDxF1.s:1296   .text.ip4_output_if_src:0000000000000000 ip4_output_if_src
C:\Users\stapi\AppData\Local\Temp\cc0UDxF1.s:1299   .text.ip4_output_if_src:0000000000000000 .L0 
C:\Users\stapi\AppData\Local\Temp\cc0UDxF1.s:1301   .text.ip4_output_if_src:0000000000000000 .L0 
C:\Users\stapi\AppData\Local\Temp\cc0UDxF1.s:1302   .text.ip4_output_if_src:0000000000000008 .L0 
C:\Users\stapi\AppData\Local\Temp\cc0UDxF1.s:1303   .text.ip4_output_if_src:0000000000000008 .L0 
C:\Users\stapi\AppData\Local\Temp\cc0UDxF1.s:1305   .text.ip4_output_if_src:0000000000000008 .L0 
C:\Users\stapi\AppData\Local\Temp\cc0UDxF1.s:1306   .text.ip4_output_if_src:0000000000000008 .L0 
C:\Users\stapi\AppData\Local\Temp\cc0UDxF1.s:1307   .text.ip4_output_if_src:000000000000000a .L0 
C:\Users\stapi\AppData\Local\Temp\cc0UDxF1.s:1309   .text.ip4_output_if_src:000000000000000a .L0 
C:\Users\stapi\AppData\Local\Temp\cc0UDxF1.s:1314   .text.ip4_output_if_src:0000000000000016 .L0 
C:\Users\stapi\AppData\Local\Temp\cc0UDxF1.s:1315   .text.ip4_output_if_src:0000000000000018 .L0 
C:\Users\stapi\AppData\Local\Temp\cc0UDxF1.s:1317   .text.ip4_output_if_src:0000000000000020 .L0 
C:\Users\stapi\AppData\Local\Temp\cc0UDxF1.s:1318   .text.ip4_output_if_src:0000000000000020 .L0 
C:\Users\stapi\AppData\Local\Temp\cc0UDxF1.s:1319   .text.ip4_output_if_src:0000000000000020 .L0 
C:\Users\stapi\AppData\Local\Temp\cc0UDxF1.s:1326   .text.ip4_output:0000000000000000 ip4_output
C:\Users\stapi\AppData\Local\Temp\cc0UDxF1.s:1329   .text.ip4_output:0000000000000000 .L0 
C:\Users\stapi\AppData\Local\Temp\cc0UDxF1.s:1331   .text.ip4_output:0000000000000000 .L0 
C:\Users\stapi\AppData\Local\Temp\cc0UDxF1.s:1332   .text.ip4_output:0000000000000008 .L0 
C:\Users\stapi\AppData\Local\Temp\cc0UDxF1.s:1333   .text.ip4_output:0000000000000008 .L0 
C:\Users\stapi\AppData\Local\Temp\cc0UDxF1.s:1334   .text.ip4_output:0000000000000008 .L0 
C:\Users\stapi\AppData\Local\Temp\cc0UDxF1.s:1336   .text.ip4_output:0000000000000008 .L0 
C:\Users\stapi\AppData\Local\Temp\cc0UDxF1.s:1337   .text.ip4_output:0000000000000008 .L0 
C:\Users\stapi\AppData\Local\Temp\cc0UDxF1.s:1338   .text.ip4_output:0000000000000008 .L0 
C:\Users\stapi\AppData\Local\Temp\cc0UDxF1.s:1340   .text.ip4_output:000000000000000c .L0 
C:\Users\stapi\AppData\Local\Temp\cc0UDxF1.s:1342   .text.ip4_output:000000000000000e .L0 
C:\Users\stapi\AppData\Local\Temp\cc0UDxF1.s:1345   .text.ip4_output:0000000000000010 .L0 
C:\Users\stapi\AppData\Local\Temp\cc0UDxF1.s:1346   .text.ip4_output:0000000000000012 .L0 
C:\Users\stapi\AppData\Local\Temp\cc0UDxF1.s:1348   .text.ip4_output:0000000000000012 .L0 
C:\Users\stapi\AppData\Local\Temp\cc0UDxF1.s:1350   .text.ip4_output:0000000000000016 .L0 
C:\Users\stapi\AppData\Local\Temp\cc0UDxF1.s:1351   .text.ip4_output:0000000000000016 .L0 
C:\Users\stapi\AppData\Local\Temp\cc0UDxF1.s:1365   .text.ip4_output:000000000000003a .L0 
C:\Users\stapi\AppData\Local\Temp\cc0UDxF1.s:1366   .text.ip4_output:000000000000003a .L0 
C:\Users\stapi\AppData\Local\Temp\cc0UDxF1.s:1367   .text.ip4_output:000000000000003a .L0 
C:\Users\stapi\AppData\Local\Temp\cc0UDxF1.s:1371   .text.ip4_output:000000000000003c .L0 
C:\Users\stapi\AppData\Local\Temp\cc0UDxF1.s:1377   .text.ip4_output:0000000000000046 .L0 
C:\Users\stapi\AppData\Local\Temp\cc0UDxF1.s:1378   .text.ip4_output:0000000000000046 .L0 
C:\Users\stapi\AppData\Local\Temp\cc0UDxF1.s:1379   .text.ip4_output:0000000000000046 .L0 
C:\Users\stapi\AppData\Local\Temp\cc0UDxF1.s:1380   .text.ip4_output:0000000000000046 .L0 
C:\Users\stapi\AppData\Local\Temp\cc0UDxF1.s:1386   .text.ip4_output:0000000000000052 .L0 
C:\Users\stapi\AppData\Local\Temp\cc0UDxF1.s:1389   .text.ip4_output:0000000000000054 .L0 
C:\Users\stapi\AppData\Local\Temp\cc0UDxF1.s:1391   .text.ip4_output:0000000000000058 .L0 
C:\Users\stapi\AppData\Local\Temp\cc0UDxF1.s:1392   .text.ip4_output:0000000000000058 .L0 
C:\Users\stapi\AppData\Local\Temp\cc0UDxF1.s:1402   .text.ip4_output:000000000000006c .L0 
C:\Users\stapi\AppData\Local\Temp\cc0UDxF1.s:1403   .text.ip4_output:000000000000006e .L0 
C:\Users\stapi\AppData\Local\Temp\cc0UDxF1.s:1406   .text.ip4_output:0000000000000076 .L0 
C:\Users\stapi\AppData\Local\Temp\cc0UDxF1.s:1407   .text.ip4_output:0000000000000076 .L0 
C:\Users\stapi\AppData\Local\Temp\cc0UDxF1.s:1408   .text.ip4_output:0000000000000076 .L0 
C:\Users\stapi\AppData\Local\Temp\cc0UDxF1.s:1409   .text.ip4_output:0000000000000076 .L0 
C:\Users\stapi\AppData\Local\Temp\cc0UDxF1.s:1414   .sbss.ip4_default_multicast_netif:0000000000000000 .LANCHOR0
C:\Users\stapi\AppData\Local\Temp\cc0UDxF1.s:1417   .sbss.ip4_default_multicast_netif:0000000000000000 ip4_default_multicast_netif
C:\Users\stapi\AppData\Local\Temp\cc0UDxF1.s:1421   .sbss.ip_id:0000000000000000 .LANCHOR1
C:\Users\stapi\AppData\Local\Temp\cc0UDxF1.s:1424   .sbss.ip_id:0000000000000000 ip_id
C:\Users\stapi\AppData\Local\Temp\cc0UDxF1.s:80     .text.ip4_input_accept:0000000000000042 .L0 
C:\Users\stapi\AppData\Local\Temp\cc0UDxF1.s:98     .text.ip4_set_default_multicast_netif:000000000000000a .L0 
C:\Users\stapi\AppData\Local\Temp\cc0UDxF1.s:193    .text.ip4_route:0000000000000076 .L0 
C:\Users\stapi\AppData\Local\Temp\cc0UDxF1.s:678    .text.ip4_input:00000000000002be .L0 
C:\Users\stapi\AppData\Local\Temp\cc0UDxF1.s:1214   .text.ip4_output_if_opt_src:00000000000002b2 .L0 
C:\Users\stapi\AppData\Local\Temp\cc0UDxF1.s:1262   .text.ip4_output_if_opt:0000000000000032 .L0 
C:\Users\stapi\AppData\Local\Temp\cc0UDxF1.s:1292   .text.ip4_output_if:0000000000000020 .L0 
C:\Users\stapi\AppData\Local\Temp\cc0UDxF1.s:1322   .text.ip4_output_if_src:0000000000000020 .L0 
C:\Users\stapi\AppData\Local\Temp\cc0UDxF1.s:1412   .text.ip4_output:0000000000000076 .L0 
                     .debug_frame:0000000000000000 .L0 
C:\Users\stapi\AppData\Local\Temp\cc0UDxF1.s:69     .text.ip4_input_accept:000000000000003c .L3
C:\Users\stapi\AppData\Local\Temp\cc0UDxF1.s:73     .text.ip4_input_accept:000000000000003e .L8
C:\Users\stapi\AppData\Local\Temp\cc0UDxF1.s:123    .text.ip4_route:0000000000000018 .L13
C:\Users\stapi\AppData\Local\Temp\cc0UDxF1.s:153    .text.ip4_route:000000000000004a .L12
C:\Users\stapi\AppData\Local\Temp\cc0UDxF1.s:157    .text.ip4_route:000000000000004c .L17
C:\Users\stapi\AppData\Local\Temp\cc0UDxF1.s:185    .text.ip4_route:0000000000000072 .L16
C:\Users\stapi\AppData\Local\Temp\cc0UDxF1.s:129    .text.ip4_route:0000000000000020 .L15
C:\Users\stapi\AppData\Local\Temp\cc0UDxF1.s:265    .text.ip4_input:0000000000000030 .L38
C:\Users\stapi\AppData\Local\Temp\cc0UDxF1.s:298    .text.ip4_input:0000000000000064 .L40
C:\Users\stapi\AppData\Local\Temp\cc0UDxF1.s:238    .text.ip4_input:000000000000001c .L42
C:\Users\stapi\AppData\Local\Temp\cc0UDxF1.s:548    .text.ip4_input:0000000000000200 .L44
C:\Users\stapi\AppData\Local\Temp\cc0UDxF1.s:368    .text.ip4_input:00000000000000f4 .L45
C:\Users\stapi\AppData\Local\Temp\cc0UDxF1.s:595    .text.ip4_input:0000000000000242 .L46
C:\Users\stapi\AppData\Local\Temp\cc0UDxF1.s:393    .text.ip4_input:0000000000000118 .L47
C:\Users\stapi\AppData\Local\Temp\cc0UDxF1.s:356    .text.ip4_input:00000000000000e6 .L48
C:\Users\stapi\AppData\Local\Temp\cc0UDxF1.s:421    .text.ip4_input:000000000000013e .L49
C:\Users\stapi\AppData\Local\Temp\cc0UDxF1.s:415    .text.ip4_input:0000000000000138 .L57
C:\Users\stapi\AppData\Local\Temp\cc0UDxF1.s:428    .text.ip4_input:0000000000000144 .L51
C:\Users\stapi\AppData\Local\Temp\cc0UDxF1.s:389    .text.ip4_input:0000000000000116 .L50
C:\Users\stapi\AppData\Local\Temp\cc0UDxF1.s:455    .text.ip4_input:000000000000016a .L58
C:\Users\stapi\AppData\Local\Temp\cc0UDxF1.s:249    .text.ip4_input:0000000000000026 .L39
C:\Users\stapi\AppData\Local\Temp\cc0UDxF1.s:627    .text.ip4_input:0000000000000272 .L59
C:\Users\stapi\AppData\Local\Temp\cc0UDxF1.s:647    .text.ip4_input:000000000000028c .L60
C:\Users\stapi\AppData\Local\Temp\cc0UDxF1.s:615    .text.ip4_input:0000000000000260 .L61
C:\Users\stapi\AppData\Local\Temp\cc0UDxF1.s:656    .text.ip4_input:000000000000029a .L62
C:\Users\stapi\AppData\Local\Temp\cc0UDxF1.s:665    .text.ip4_input:00000000000002a8 .L63
C:\Users\stapi\AppData\Local\Temp\cc0UDxF1.s:536    .text.ip4_input:00000000000001f4 .L66
C:\Users\stapi\AppData\Local\Temp\cc0UDxF1.s:589    .text.ip4_input:000000000000023c .L52
C:\Users\stapi\AppData\Local\Temp\cc0UDxF1.s:579    .text.ip4_input:000000000000022e .L54
C:\Users\stapi\AppData\Local\Temp\cc0UDxF1.s:568    .text.ip4_input:0000000000000220 .L53
C:\Users\stapi\AppData\Local\Temp\cc0UDxF1.s:574    .text.ip4_input:0000000000000228 .L55
C:\Users\stapi\AppData\Local\Temp\cc0UDxF1.s:363    .text.ip4_input:00000000000000f0 .L88
C:\Users\stapi\AppData\Local\Temp\cc0UDxF1.s:505    .text.ip4_input:00000000000001ba .L64
C:\Users\stapi\AppData\Local\Temp\cc0UDxF1.s:680    .rodata.ip4_output_if_opt_src.str1.4:0000000000000000 .LC0
C:\Users\stapi\AppData\Local\Temp\cc0UDxF1.s:683    .rodata.ip4_output_if_opt_src.str1.4:0000000000000090 .LC1
C:\Users\stapi\AppData\Local\Temp\cc0UDxF1.s:686    .rodata.ip4_output_if_opt_src.str1.4:000000000000009c .LC2
C:\Users\stapi\AppData\Local\Temp\cc0UDxF1.s:689    .rodata.ip4_output_if_opt_src.str1.4:00000000000000c4 .LC3
C:\Users\stapi\AppData\Local\Temp\cc0UDxF1.s:757    .text.ip4_output_if_opt_src:0000000000000042 .L90
C:\Users\stapi\AppData\Local\Temp\cc0UDxF1.s:751    .text.ip4_output_if_opt_src:0000000000000040 .L91
C:\Users\stapi\AppData\Local\Temp\cc0UDxF1.s:1131   .text.ip4_output_if_opt_src:000000000000023e .L92
C:\Users\stapi\AppData\Local\Temp\cc0UDxF1.s:929    .text.ip4_output_if_opt_src:0000000000000102 .L107
C:\Users\stapi\AppData\Local\Temp\cc0UDxF1.s:1201   .text.ip4_output_if_opt_src:00000000000002ae .L108
C:\Users\stapi\AppData\Local\Temp\cc0UDxF1.s:839    .text.ip4_output_if_opt_src:0000000000000088 .L95
C:\Users\stapi\AppData\Local\Temp\cc0UDxF1.s:861    .text.ip4_output_if_opt_src:00000000000000ac .L96
C:\Users\stapi\AppData\Local\Temp\cc0UDxF1.s:879    .text.ip4_output_if_opt_src:00000000000000b4 .L97
C:\Users\stapi\AppData\Local\Temp\cc0UDxF1.s:810    .text.ip4_output_if_opt_src:000000000000007c .L98
C:\Users\stapi\AppData\Local\Temp\cc0UDxF1.s:938    .text.ip4_output_if_opt_src:0000000000000108 .L99
C:\Users\stapi\AppData\Local\Temp\cc0UDxF1.s:923    .text.ip4_output_if_opt_src:0000000000000100 .L100
C:\Users\stapi\AppData\Local\Temp\cc0UDxF1.s:895    .text.ip4_output_if_opt_src:00000000000000c4 .L93
C:\Users\stapi\AppData\Local\Temp\cc0UDxF1.s:1125   .text.ip4_output_if_opt_src:0000000000000238 .L101
C:\Users\stapi\AppData\Local\Temp\cc0UDxF1.s:1161   .text.ip4_output_if_opt_src:000000000000026e .L104
C:\Users\stapi\AppData\Local\Temp\cc0UDxF1.s:814    .text.ip4_output_if_opt_src:000000000000007e .L94
C:\Users\stapi\AppData\Local\Temp\cc0UDxF1.s:1059   .text.ip4_output_if_opt_src:00000000000001d6 .L102
C:\Users\stapi\AppData\Local\Temp\cc0UDxF1.s:1106   .text.ip4_output_if_opt_src:000000000000021e .L103
C:\Users\stapi\AppData\Local\Temp\cc0UDxF1.s:1172   .text.ip4_output_if_opt_src:0000000000000282 .L105
C:\Users\stapi\AppData\Local\Temp\cc0UDxF1.s:1189   .text.ip4_output_if_opt_src:00000000000002a0 .L106
C:\Users\stapi\AppData\Local\Temp\cc0UDxF1.s:1245   .text.ip4_output_if_opt:000000000000001a .L118
C:\Users\stapi\AppData\Local\Temp\cc0UDxF1.s:1240   .text.ip4_output_if_opt:0000000000000016 .L119
C:\Users\stapi\AppData\Local\Temp\cc0UDxF1.s:1369   .text.ip4_output:000000000000003c .L132
C:\Users\stapi\AppData\Local\Temp\cc0UDxF1.s:1363   .text.ip4_output:000000000000003a .L133
C:\Users\stapi\AppData\Local\Temp\cc0UDxF1.s:1400   .text.ip4_output:000000000000006c .L134
C:\Users\stapi\AppData\Local\Temp\cc0UDxF1.s:3902   .debug_abbrev:0000000000000000 .Ldebug_abbrev0
C:\Users\stapi\AppData\Local\Temp\cc0UDxF1.s:6895   .debug_str:0000000000000ae6 .LASF197
C:\Users\stapi\AppData\Local\Temp\cc0UDxF1.s:6883   .debug_str:0000000000000a25 .LASF198
C:\Users\stapi\AppData\Local\Temp\cc0UDxF1.s:6667   .debug_str:0000000000000441 .LASF199
C:\Users\stapi\AppData\Local\Temp\cc0UDxF1.s:6447   .debug_ranges:0000000000000000 .Ldebug_ranges0
C:\Users\stapi\AppData\Local\Temp\cc0UDxF1.s:6513   .debug_line:0000000000000000 .Ldebug_line0
C:\Users\stapi\AppData\Local\Temp\cc0UDxF1.s:6759   .debug_str:00000000000006e7 .LASF0
C:\Users\stapi\AppData\Local\Temp\cc0UDxF1.s:6875   .debug_str:00000000000009f7 .LASF2
C:\Users\stapi\AppData\Local\Temp\cc0UDxF1.s:6807   .debug_str:0000000000000827 .LASF1
C:\Users\stapi\AppData\Local\Temp\cc0UDxF1.s:6839   .debug_str:0000000000000902 .LASF3
C:\Users\stapi\AppData\Local\Temp\cc0UDxF1.s:6731   .debug_str:0000000000000625 .LASF4
C:\Users\stapi\AppData\Local\Temp\cc0UDxF1.s:6783   .debug_str:000000000000078a .LASF5
C:\Users\stapi\AppData\Local\Temp\cc0UDxF1.s:6621   .debug_str:0000000000000301 .LASF6
C:\Users\stapi\AppData\Local\Temp\cc0UDxF1.s:6877   .debug_str:0000000000000a03 .LASF7
C:\Users\stapi\AppData\Local\Temp\cc0UDxF1.s:6787   .debug_str:000000000000079f .LASF8
C:\Users\stapi\AppData\Local\Temp\cc0UDxF1.s:6841   .debug_str:0000000000000910 .LASF9
C:\Users\stapi\AppData\Local\Temp\cc0UDxF1.s:6829   .debug_str:00000000000008ac .LASF10
C:\Users\stapi\AppData\Local\Temp\cc0UDxF1.s:6719   .debug_str:00000000000005ec .LASF11
C:\Users\stapi\AppData\Local\Temp\cc0UDxF1.s:6611   .debug_str:000000000000029e .LASF12
C:\Users\stapi\AppData\Local\Temp\cc0UDxF1.s:6539   .debug_str:00000000000000c4 .LASF13
C:\Users\stapi\AppData\Local\Temp\cc0UDxF1.s:6587   .debug_str:00000000000001f6 .LASF14
C:\Users\stapi\AppData\Local\Temp\cc0UDxF1.s:6705   .debug_str:00000000000005a3 .LASF15
C:\Users\stapi\AppData\Local\Temp\cc0UDxF1.s:6603   .debug_str:0000000000000279 .LASF16
C:\Users\stapi\AppData\Local\Temp\cc0UDxF1.s:6765   .debug_str:000000000000071d .LASF17
C:\Users\stapi\AppData\Local\Temp\cc0UDxF1.s:6585   .debug_str:00000000000001ed .LASF18
C:\Users\stapi\AppData\Local\Temp\cc0UDxF1.s:6645   .debug_str:00000000000003ae .LASF19
C:\Users\stapi\AppData\Local\Temp\cc0UDxF1.s:6687   .debug_str:000000000000052b .LASF20
C:\Users\stapi\AppData\Local\Temp\cc0UDxF1.s:6729   .debug_str:0000000000000620 .LASF21
C:\Users\stapi\AppData\Local\Temp\cc0UDxF1.s:6671   .debug_str:00000000000004d3 .LASF22
C:\Users\stapi\AppData\Local\Temp\cc0UDxF1.s:6549   .debug_str:00000000000000f4 .LASF23
C:\Users\stapi\AppData\Local\Temp\cc0UDxF1.s:6833   .debug_str:00000000000008d6 .LASF24
C:\Users\stapi\AppData\Local\Temp\cc0UDxF1.s:6781   .debug_str:0000000000000784 .LASF25
C:\Users\stapi\AppData\Local\Temp\cc0UDxF1.s:6871   .debug_str:00000000000009ce .LASF26
C:\Users\stapi\AppData\Local\Temp\cc0UDxF1.s:6905   .debug_str:0000000000000c07 .LASF27
C:\Users\stapi\AppData\Local\Temp\cc0UDxF1.s:6775   .debug_str:0000000000000757 .LASF28
C:\Users\stapi\AppData\Local\Temp\cc0UDxF1.s:6677   .debug_str:00000000000004f4 .LASF29
C:\Users\stapi\AppData\Local\Temp\cc0UDxF1.s:6889   .debug_str:0000000000000acf .LASF30
C:\Users\stapi\AppData\Local\Temp\cc0UDxF1.s:6801   .debug_str:0000000000000804 .LASF31
C:\Users\stapi\AppData\Local\Temp\cc0UDxF1.s:6629   .debug_str:0000000000000327 .LASF32
C:\Users\stapi\AppData\Local\Temp\cc0UDxF1.s:6675   .debug_str:00000000000004e5 .LASF33
C:\Users\stapi\AppData\Local\Temp\cc0UDxF1.s:6533   .debug_str:000000000000009b .LASF34
C:\Users\stapi\AppData\Local\Temp\cc0UDxF1.s:6579   .debug_str:00000000000001c7 .LASF35
C:\Users\stapi\AppData\Local\Temp\cc0UDxF1.s:6811   .debug_str:000000000000083b .LASF36
C:\Users\stapi\AppData\Local\Temp\cc0UDxF1.s:6885   .debug_str:0000000000000ab3 .LASF37
C:\Users\stapi\AppData\Local\Temp\cc0UDxF1.s:6725   .debug_str:000000000000060c .LASF38
C:\Users\stapi\AppData\Local\Temp\cc0UDxF1.s:6859   .debug_str:0000000000000985 .LASF39
C:\Users\stapi\AppData\Local\Temp\cc0UDxF1.s:6575   .debug_str:00000000000001b4 .LASF40
C:\Users\stapi\AppData\Local\Temp\cc0UDxF1.s:6531   .debug_str:0000000000000092 .LASF41
C:\Users\stapi\AppData\Local\Temp\cc0UDxF1.s:6535   .debug_str:00000000000000a3 .LASF42
C:\Users\stapi\AppData\Local\Temp\cc0UDxF1.s:6545   .debug_str:00000000000000e3 .LASF43
C:\Users\stapi\AppData\Local\Temp\cc0UDxF1.s:6655   .debug_str:00000000000003d8 .LASF50
C:\Users\stapi\AppData\Local\Temp\cc0UDxF1.s:6541   .debug_str:00000000000000d1 .LASF44
C:\Users\stapi\AppData\Local\Temp\cc0UDxF1.s:6647   .debug_str:00000000000003b5 .LASF45
C:\Users\stapi\AppData\Local\Temp\cc0UDxF1.s:6643   .debug_str:00000000000003a6 .LASF46
C:\Users\stapi\AppData\Local\Temp\cc0UDxF1.s:6641   .debug_str:0000000000000398 .LASF47
C:\Users\stapi\AppData\Local\Temp\cc0UDxF1.s:6529   .debug_str:000000000000008c .LASF48
C:\Users\stapi\AppData\Local\Temp\cc0UDxF1.s:6771   .debug_str:0000000000000743 .LASF49
C:\Users\stapi\AppData\Local\Temp\cc0UDxF1.s:6805   .debug_str:000000000000081e .LASF51
C:\Users\stapi\AppData\Local\Temp\cc0UDxF1.s:6849   .debug_str:000000000000094b .LASF52
C:\Users\stapi\AppData\Local\Temp\cc0UDxF1.s:6785   .debug_str:0000000000000794 .LASF53
C:\Users\stapi\AppData\Local\Temp\cc0UDxF1.s:6893   .debug_str:0000000000000adc .LASF54
C:\Users\stapi\AppData\Local\Temp\cc0UDxF1.s:6601   .debug_str:000000000000026d .LASF99
C:\Users\stapi\AppData\Local\Temp\cc0UDxF1.s:6825   .debug_str:000000000000089a .LASF55
C:\Users\stapi\AppData\Local\Temp\cc0UDxF1.s:6797   .debug_str:00000000000007e3 .LASF56
C:\Users\stapi\AppData\Local\Temp\cc0UDxF1.s:6727   .debug_str:0000000000000613 .LASF57
C:\Users\stapi\AppData\Local\Temp\cc0UDxF1.s:6515   .debug_str:0000000000000000 .LASF58
C:\Users\stapi\AppData\Local\Temp\cc0UDxF1.s:6843   .debug_str:000000000000091b .LASF59
C:\Users\stapi\AppData\Local\Temp\cc0UDxF1.s:6753   .debug_str:00000000000006b5 .LASF60
C:\Users\stapi\AppData\Local\Temp\cc0UDxF1.s:6745   .debug_str:000000000000066f .LASF61
C:\Users\stapi\AppData\Local\Temp\cc0UDxF1.s:6819   .debug_str:0000000000000866 .LASF62
C:\Users\stapi\AppData\Local\Temp\cc0UDxF1.s:6715   .debug_str:00000000000005d8 .LASF63
C:\Users\stapi\AppData\Local\Temp\cc0UDxF1.s:6673   .debug_str:00000000000004d8 .LASF64
C:\Users\stapi\AppData\Local\Temp\cc0UDxF1.s:6593   .debug_str:0000000000000228 .LASF65
C:\Users\stapi\AppData\Local\Temp\cc0UDxF1.s:6635   .debug_str:000000000000034c .LASF66
C:\Users\stapi\AppData\Local\Temp\cc0UDxF1.s:6589   .debug_str:00000000000001fd .LASF67
C:\Users\stapi\AppData\Local\Temp\cc0UDxF1.s:6789   .debug_str:00000000000007a8 .LASF68
C:\Users\stapi\AppData\Local\Temp\cc0UDxF1.s:6897   .debug_str:0000000000000bdf .LASF69
C:\Users\stapi\AppData\Local\Temp\cc0UDxF1.s:6681   .debug_str:000000000000050b .LASF70
C:\Users\stapi\AppData\Local\Temp\cc0UDxF1.s:6569   .debug_str:0000000000000182 .LASF71
C:\Users\stapi\AppData\Local\Temp\cc0UDxF1.s:6669   .debug_str:00000000000004ca .LASF72
C:\Users\stapi\AppData\Local\Temp\cc0UDxF1.s:6639   .debug_str:0000000000000372 .LASF76
C:\Users\stapi\AppData\Local\Temp\cc0UDxF1.s:6873   .debug_str:00000000000009d5 .LASF73
C:\Users\stapi\AppData\Local\Temp\cc0UDxF1.s:6525   .debug_str:0000000000000056 .LASF74
C:\Users\stapi\AppData\Local\Temp\cc0UDxF1.s:6763   .debug_str:00000000000006fc .LASF75
C:\Users\stapi\AppData\Local\Temp\cc0UDxF1.s:6831   .debug_str:00000000000008be .LASF77
C:\Users\stapi\AppData\Local\Temp\cc0UDxF1.s:6757   .debug_str:00000000000006d2 .LASF78
C:\Users\stapi\AppData\Local\Temp\cc0UDxF1.s:6703   .debug_str:000000000000058e .LASF79
C:\Users\stapi\AppData\Local\Temp\cc0UDxF1.s:6857   .debug_str:000000000000097f .LASF80
C:\Users\stapi\AppData\Local\Temp\cc0UDxF1.s:6917   .debug_str:0000000000000c4c .LASF81
C:\Users\stapi\AppData\Local\Temp\cc0UDxF1.s:6717   .debug_str:00000000000005e4 .LASF82
C:\Users\stapi\AppData\Local\Temp\cc0UDxF1.s:6523   .debug_str:0000000000000050 .LASF83
C:\Users\stapi\AppData\Local\Temp\cc0UDxF1.s:6651   .debug_str:00000000000003c7 .LASF84
C:\Users\stapi\AppData\Local\Temp\cc0UDxF1.s:6547   .debug_str:00000000000000e9 .LASF85
C:\Users\stapi\AppData\Local\Temp\cc0UDxF1.s:6853   .debug_str:000000000000095e .LASF86
C:\Users\stapi\AppData\Local\Temp\cc0UDxF1.s:6683   .debug_str:0000000000000515 .LASF87
C:\Users\stapi\AppData\Local\Temp\cc0UDxF1.s:6607   .debug_str:000000000000028c .LASF88
C:\Users\stapi\AppData\Local\Temp\cc0UDxF1.s:6625   .debug_str:0000000000000314 .LASF89
C:\Users\stapi\AppData\Local\Temp\cc0UDxF1.s:6815   .debug_str:000000000000084d .LASF90
C:\Users\stapi\AppData\Local\Temp\cc0UDxF1.s:6821   .debug_str:0000000000000875 .LASF91
C:\Users\stapi\AppData\Local\Temp\cc0UDxF1.s:6695   .debug_str:0000000000000567 .LASF92
C:\Users\stapi\AppData\Local\Temp\cc0UDxF1.s:6795   .debug_str:00000000000007d8 .LASF93
C:\Users\stapi\AppData\Local\Temp\cc0UDxF1.s:6653   .debug_str:00000000000003ce .LASF94
C:\Users\stapi\AppData\Local\Temp\cc0UDxF1.s:6583   .debug_str:00000000000001de .LASF95
C:\Users\stapi\AppData\Local\Temp\cc0UDxF1.s:6565   .debug_str:0000000000000167 .LASF96
C:\Users\stapi\AppData\Local\Temp\cc0UDxF1.s:6817   .debug_str:0000000000000852 .LASF97
C:\Users\stapi\AppData\Local\Temp\cc0UDxF1.s:6869   .debug_str:00000000000009b5 .LASF98
C:\Users\stapi\AppData\Local\Temp\cc0UDxF1.s:6605   .debug_str:0000000000000281 .LASF100
C:\Users\stapi\AppData\Local\Temp\cc0UDxF1.s:6755   .debug_str:00000000000006c4 .LASF101
C:\Users\stapi\AppData\Local\Temp\cc0UDxF1.s:6599   .debug_str:000000000000025d .LASF102
C:\Users\stapi\AppData\Local\Temp\cc0UDxF1.s:6773   .debug_str:000000000000074a .LASF103
C:\Users\stapi\AppData\Local\Temp\cc0UDxF1.s:6813   .debug_str:0000000000000846 .LASF104
C:\Users\stapi\AppData\Local\Temp\cc0UDxF1.s:6733   .debug_str:000000000000062f .LASF105
C:\Users\stapi\AppData\Local\Temp\cc0UDxF1.s:6827   .debug_str:00000000000008a7 .LASF106
C:\Users\stapi\AppData\Local\Temp\cc0UDxF1.s:6891   .debug_str:0000000000000ad7 .LASF107
C:\Users\stapi\AppData\Local\Temp\cc0UDxF1.s:6627   .debug_str:000000000000031f .LASF108
C:\Users\stapi\AppData\Local\Temp\cc0UDxF1.s:6551   .debug_str:00000000000000fa .LASF109
C:\Users\stapi\AppData\Local\Temp\cc0UDxF1.s:6707   .debug_str:00000000000005ab .LASF110
C:\Users\stapi\AppData\Local\Temp\cc0UDxF1.s:6623   .debug_str:000000000000030c .LASF111
C:\Users\stapi\AppData\Local\Temp\cc0UDxF1.s:6907   .debug_str:0000000000000c0f .LASF112
C:\Users\stapi\AppData\Local\Temp\cc0UDxF1.s:6679   .debug_str:0000000000000500 .LASF113
C:\Users\stapi\AppData\Local\Temp\cc0UDxF1.s:6777   .debug_str:000000000000075f .LASF114
C:\Users\stapi\AppData\Local\Temp\cc0UDxF1.s:6527   .debug_str:0000000000000078 .LASF115
C:\Users\stapi\AppData\Local\Temp\cc0UDxF1.s:6563   .debug_str:0000000000000154 .LASF116
C:\Users\stapi\AppData\Local\Temp\cc0UDxF1.s:6751   .debug_str:000000000000069b .LASF117
C:\Users\stapi\AppData\Local\Temp\cc0UDxF1.s:6617   .debug_str:00000000000002e7 .LASF118
C:\Users\stapi\AppData\Local\Temp\cc0UDxF1.s:6887   .debug_str:0000000000000abc .LASF119
C:\Users\stapi\AppData\Local\Temp\cc0UDxF1.s:6741   .debug_str:0000000000000658 .LASF120
C:\Users\stapi\AppData\Local\Temp\cc0UDxF1.s:6597   .debug_str:000000000000024f .LASF121
C:\Users\stapi\AppData\Local\Temp\cc0UDxF1.s:6543   .debug_str:00000000000000d6 .LASF122
C:\Users\stapi\AppData\Local\Temp\cc0UDxF1.s:6517   .debug_str:0000000000000014 .LASF123
C:\Users\stapi\AppData\Local\Temp\cc0UDxF1.s:6847   .debug_str:000000000000093c .LASF124
C:\Users\stapi\AppData\Local\Temp\cc0UDxF1.s:6571   .debug_str:0000000000000191 .LASF125
C:\Users\stapi\AppData\Local\Temp\cc0UDxF1.s:6851   .debug_str:0000000000000950 .LASF126
C:\Users\stapi\AppData\Local\Temp\cc0UDxF1.s:6633   .debug_str:0000000000000340 .LASF127
C:\Users\stapi\AppData\Local\Temp\cc0UDxF1.s:6665   .debug_str:0000000000000431 .LASF128
C:\Users\stapi\AppData\Local\Temp\cc0UDxF1.s:6743   .debug_str:0000000000000660 .LASF129
C:\Users\stapi\AppData\Local\Temp\cc0UDxF1.s:6767   .debug_str:0000000000000726 .LASF130
C:\Users\stapi\AppData\Local\Temp\cc0UDxF1.s:6799   .debug_str:00000000000007f0 .LASF131
C:\Users\stapi\AppData\Local\Temp\cc0UDxF1.s:6557   .debug_str:0000000000000123 .LASF132
C:\Users\stapi\AppData\Local\Temp\cc0UDxF1.s:6879   .debug_str:0000000000000a16 .LASF133
C:\Users\stapi\AppData\Local\Temp\cc0UDxF1.s:6861   .debug_str:000000000000098e .LASF134
C:\Users\stapi\AppData\Local\Temp\cc0UDxF1.s:6661   .debug_str:0000000000000407 .LASF135
C:\Users\stapi\AppData\Local\Temp\cc0UDxF1.s:6689   .debug_str:0000000000000530 .LASF136
C:\Users\stapi\AppData\Local\Temp\cc0UDxF1.s:6659   .debug_str:00000000000003ec .LASF137
C:\Users\stapi\AppData\Local\Temp\cc0UDxF1.s:6855   .debug_str:0000000000000964 .LASF138
C:\Users\stapi\AppData\Local\Temp\cc0UDxF1.s:6595   .debug_str:000000000000023b .LASF139
C:\Users\stapi\AppData\Local\Temp\cc0UDxF1.s:6845   .debug_str:0000000000000928 .LASF140
C:\Users\stapi\AppData\Local\Temp\cc0UDxF1.s:6835   .debug_str:00000000000008dc .LASF141
C:\Users\stapi\AppData\Local\Temp\cc0UDxF1.s:6779   .debug_str:000000000000076d .LASF142
C:\Users\stapi\AppData\Local\Temp\cc0UDxF1.s:6663   .debug_str:000000000000041d .LASF143
C:\Users\stapi\AppData\Local\Temp\cc0UDxF1.s:6519   .debug_str:0000000000000022 .LASF144
C:\Users\stapi\AppData\Local\Temp\cc0UDxF1.s:6521   .debug_str:000000000000003b .LASF145
C:\Users\stapi\AppData\Local\Temp\cc0UDxF1.s:6573   .debug_str:000000000000019f .LASF146
C:\Users\stapi\AppData\Local\Temp\cc0UDxF1.s:6737   .debug_str:000000000000063d .LASF147
C:\Users\stapi\AppData\Local\Temp\cc0UDxF1.s:6915   .debug_str:0000000000000c38 .LASF148
C:\Users\stapi\AppData\Local\Temp\cc0UDxF1.s:6591   .debug_str:000000000000020d .LASF149
C:\Users\stapi\AppData\Local\Temp\cc0UDxF1.s:6697   .debug_str:0000000000000577 .LASF150
C:\Users\stapi\AppData\Local\Temp\cc0UDxF1.s:6823   .debug_str:000000000000087e .LASF151
C:\Users\stapi\AppData\Local\Temp\cc0UDxF1.s:6803   .debug_str:0000000000000813 .LASF160
C:\Users\stapi\AppData\Local\Temp\cc0UDxF1.s:1327   .text.ip4_output:0000000000000000 .LFB12
C:\Users\stapi\AppData\Local\Temp\cc0UDxF1.s:1410   .text.ip4_output:0000000000000076 .LFE12
C:\Users\stapi\AppData\Local\Temp\cc0UDxF1.s:4807   .debug_loc:0000000000000000 .LLST59
C:\Users\stapi\AppData\Local\Temp\cc0UDxF1.s:4818   .debug_loc:000000000000001e .LLST60
C:\Users\stapi\AppData\Local\Temp\cc0UDxF1.s:4846   .debug_loc:0000000000000062 .LLST61
C:\Users\stapi\AppData\Local\Temp\cc0UDxF1.s:4874   .debug_loc:00000000000000a6 .LLST62
C:\Users\stapi\AppData\Local\Temp\cc0UDxF1.s:4899   .debug_loc:00000000000000e0 .LLST63
C:\Users\stapi\AppData\Local\Temp\cc0UDxF1.s:6699   .debug_str:000000000000057d .LASF152
C:\Users\stapi\AppData\Local\Temp\cc0UDxF1.s:4924   .debug_loc:000000000000011a .LLST64
C:\Users\stapi\AppData\Local\Temp\cc0UDxF1.s:4949   .debug_loc:0000000000000154 .LLST65
C:\Users\stapi\AppData\Local\Temp\cc0UDxF1.s:1362   .text.ip4_output:000000000000003a .LVL141
C:\Users\stapi\AppData\Local\Temp\cc0UDxF1.s:1382   .text.ip4_output:0000000000000050 .LVL143
C:\Users\stapi\AppData\Local\Temp\cc0UDxF1.s:1399   .text.ip4_output:000000000000006c .LVL146
C:\Users\stapi\AppData\Local\Temp\cc0UDxF1.s:6691   .debug_str:0000000000000544 .LASF200
C:\Users\stapi\AppData\Local\Temp\cc0UDxF1.s:6721   .debug_str:00000000000005fa .LASF153
C:\Users\stapi\AppData\Local\Temp\cc0UDxF1.s:6559   .debug_str:0000000000000135 .LASF154
C:\Users\stapi\AppData\Local\Temp\cc0UDxF1.s:6865   .debug_str:000000000000099f .LASF155
C:\Users\stapi\AppData\Local\Temp\cc0UDxF1.s:6899   .debug_str:0000000000000bea .LASF156
C:\Users\stapi\AppData\Local\Temp\cc0UDxF1.s:6735   .debug_str:0000000000000635 .LASF157
C:\Users\stapi\AppData\Local\Temp\cc0UDxF1.s:6619   .debug_str:00000000000002f9 .LASF158
C:\Users\stapi\AppData\Local\Temp\cc0UDxF1.s:6657   .debug_str:00000000000003dd .LASF159
C:\Users\stapi\AppData\Local\Temp\cc0UDxF1.s:6837   .debug_str:00000000000008f0 .LASF161
C:\Users\stapi\AppData\Local\Temp\cc0UDxF1.s:1297   .text.ip4_output_if_src:0000000000000000 .LFB10
C:\Users\stapi\AppData\Local\Temp\cc0UDxF1.s:1320   .text.ip4_output_if_src:0000000000000020 .LFE10
C:\Users\stapi\AppData\Local\Temp\cc0UDxF1.s:4960   .debug_loc:0000000000000172 .LLST52
C:\Users\stapi\AppData\Local\Temp\cc0UDxF1.s:4974   .debug_loc:0000000000000193 .LLST53
C:\Users\stapi\AppData\Local\Temp\cc0UDxF1.s:4988   .debug_loc:00000000000001b4 .LLST54
C:\Users\stapi\AppData\Local\Temp\cc0UDxF1.s:5002   .debug_loc:00000000000001d5 .LLST55
C:\Users\stapi\AppData\Local\Temp\cc0UDxF1.s:5016   .debug_loc:00000000000001f6 .LLST56
C:\Users\stapi\AppData\Local\Temp\cc0UDxF1.s:5030   .debug_loc:0000000000000217 .LLST57
C:\Users\stapi\AppData\Local\Temp\cc0UDxF1.s:5044   .debug_loc:0000000000000238 .LLST58
C:\Users\stapi\AppData\Local\Temp\cc0UDxF1.s:1312   .text.ip4_output_if_src:0000000000000016 .LVL135
C:\Users\stapi\AppData\Local\Temp\cc0UDxF1.s:6553   .debug_str:00000000000000ff .LASF162
C:\Users\stapi\AppData\Local\Temp\cc0UDxF1.s:1219   .text.ip4_output_if_opt:0000000000000000 .LFB9
C:\Users\stapi\AppData\Local\Temp\cc0UDxF1.s:1260   .text.ip4_output_if_opt:0000000000000032 .LFE9
C:\Users\stapi\AppData\Local\Temp\cc0UDxF1.s:5058   .debug_loc:0000000000000259 .LLST35
C:\Users\stapi\AppData\Local\Temp\cc0UDxF1.s:5072   .debug_loc:000000000000027a .LLST36
C:\Users\stapi\AppData\Local\Temp\cc0UDxF1.s:5086   .debug_loc:000000000000029b .LLST37
C:\Users\stapi\AppData\Local\Temp\cc0UDxF1.s:5100   .debug_loc:00000000000002bc .LLST38
C:\Users\stapi\AppData\Local\Temp\cc0UDxF1.s:5114   .debug_loc:00000000000002dd .LLST39
C:\Users\stapi\AppData\Local\Temp\cc0UDxF1.s:5128   .debug_loc:00000000000002fe .LLST40
C:\Users\stapi\AppData\Local\Temp\cc0UDxF1.s:5142   .debug_loc:000000000000031f .LLST41
C:\Users\stapi\AppData\Local\Temp\cc0UDxF1.s:5156   .debug_loc:0000000000000340 .LLST42
C:\Users\stapi\AppData\Local\Temp\cc0UDxF1.s:5170   .debug_loc:0000000000000361 .LLST43
C:\Users\stapi\AppData\Local\Temp\cc0UDxF1.s:6711   .debug_str:00000000000005c5 .LASF163
C:\Users\stapi\AppData\Local\Temp\cc0UDxF1.s:5183   .debug_loc:0000000000000381 .LLST44
C:\Users\stapi\AppData\Local\Temp\cc0UDxF1.s:1251   .text.ip4_output_if_opt:0000000000000028 .LVL130
C:\Users\stapi\AppData\Local\Temp\cc0UDxF1.s:6791   .debug_str:00000000000007b9 .LASF164
C:\Users\stapi\AppData\Local\Temp\cc0UDxF1.s:1267   .text.ip4_output_if:0000000000000000 .LFB8
C:\Users\stapi\AppData\Local\Temp\cc0UDxF1.s:1290   .text.ip4_output_if:0000000000000020 .LFE8
C:\Users\stapi\AppData\Local\Temp\cc0UDxF1.s:5190   .debug_loc:0000000000000394 .LLST45
C:\Users\stapi\AppData\Local\Temp\cc0UDxF1.s:5204   .debug_loc:00000000000003b5 .LLST46
C:\Users\stapi\AppData\Local\Temp\cc0UDxF1.s:5218   .debug_loc:00000000000003d6 .LLST47
C:\Users\stapi\AppData\Local\Temp\cc0UDxF1.s:5232   .debug_loc:00000000000003f7 .LLST48
C:\Users\stapi\AppData\Local\Temp\cc0UDxF1.s:5246   .debug_loc:0000000000000418 .LLST49
C:\Users\stapi\AppData\Local\Temp\cc0UDxF1.s:5260   .debug_loc:0000000000000439 .LLST50
C:\Users\stapi\AppData\Local\Temp\cc0UDxF1.s:5274   .debug_loc:000000000000045a .LLST51
C:\Users\stapi\AppData\Local\Temp\cc0UDxF1.s:1282   .text.ip4_output_if:0000000000000016 .LVL133
C:\Users\stapi\AppData\Local\Temp\cc0UDxF1.s:6685   .debug_str:0000000000000521 .LASF165
C:\Users\stapi\AppData\Local\Temp\cc0UDxF1.s:198    .text.ip4_input:0000000000000000 .LFB7
C:\Users\stapi\AppData\Local\Temp\cc0UDxF1.s:676    .text.ip4_input:00000000000002be .LFE7
C:\Users\stapi\AppData\Local\Temp\cc0UDxF1.s:5288   .debug_loc:000000000000047b .LLST4
C:\Users\stapi\AppData\Local\Temp\cc0UDxF1.s:5299   .debug_loc:0000000000000499 .LLST5
C:\Users\stapi\AppData\Local\Temp\cc0UDxF1.s:5321   .debug_loc:00000000000004d0 .LLST6
C:\Users\stapi\AppData\Local\Temp\cc0UDxF1.s:6609   .debug_str:0000000000000293 .LASF166
C:\Users\stapi\AppData\Local\Temp\cc0UDxF1.s:6903   .debug_str:0000000000000bfd .LASF167
C:\Users\stapi\AppData\Local\Temp\cc0UDxF1.s:5345   .debug_loc:0000000000000510 .LLST7
C:\Users\stapi\AppData\Local\Temp\cc0UDxF1.s:6769   .debug_str:0000000000000736 .LASF168
C:\Users\stapi\AppData\Local\Temp\cc0UDxF1.s:5352   .debug_loc:0000000000000523 .LLST8
C:\Users\stapi\AppData\Local\Temp\cc0UDxF1.s:6581   .debug_str:00000000000001d3 .LASF169
C:\Users\stapi\AppData\Local\Temp\cc0UDxF1.s:5375   .debug_loc:000000000000055b .LLST9
C:\Users\stapi\AppData\Local\Temp\cc0UDxF1.s:378    .text.ip4_input:0000000000000108 .LBB13
C:\Users\stapi\AppData\Local\Temp\cc0UDxF1.s:390    .text.ip4_input:0000000000000116 .LBE13
C:\Users\stapi\AppData\Local\Temp\cc0UDxF1.s:6911   .debug_str:0000000000000c1b .LASF170
C:\Users\stapi\AppData\Local\Temp\cc0UDxF1.s:5390   .debug_loc:0000000000000584 .LLST11
C:\Users\stapi\AppData\Local\Temp\cc0UDxF1.s:6909   .debug_str:0000000000000c14 .LASF171
C:\Users\stapi\AppData\Local\Temp\cc0UDxF1.s:5401   .debug_loc:000000000000059e .LLST10
C:\Users\stapi\AppData\Local\Temp\cc0UDxF1.s:244    .text.ip4_input:0000000000000026 .LVL17
C:\Users\stapi\AppData\Local\Temp\cc0UDxF1.s:276    .text.ip4_input:0000000000000046 .LVL19
C:\Users\stapi\AppData\Local\Temp\cc0UDxF1.s:297    .text.ip4_input:0000000000000064 .LVL23
C:\Users\stapi\AppData\Local\Temp\cc0UDxF1.s:314    .text.ip4_input:0000000000000086 .LVL24
C:\Users\stapi\AppData\Local\Temp\cc0UDxF1.s:375    .text.ip4_input:0000000000000106 .LVL27
C:\Users\stapi\AppData\Local\Temp\cc0UDxF1.s:403    .text.ip4_input:0000000000000126 .LVL31
C:\Users\stapi\AppData\Local\Temp\cc0UDxF1.s:445    .text.ip4_input:0000000000000160 .LVL35
C:\Users\stapi\AppData\Local\Temp\cc0UDxF1.s:483    .text.ip4_input:0000000000000190 .LVL38
C:\Users\stapi\AppData\Local\Temp\cc0UDxF1.s:494    .text.ip4_input:00000000000001a2 .LVL41
C:\Users\stapi\AppData\Local\Temp\cc0UDxF1.s:515    .text.ip4_input:00000000000001cc .LVL42
C:\Users\stapi\AppData\Local\Temp\cc0UDxF1.s:530    .text.ip4_input:00000000000001e8 .LVL43
C:\Users\stapi\AppData\Local\Temp\cc0UDxF1.s:535    .text.ip4_input:00000000000001f4 .LVL44
C:\Users\stapi\AppData\Local\Temp\cc0UDxF1.s:544    .text.ip4_input:00000000000001fe .LVL45
C:\Users\stapi\AppData\Local\Temp\cc0UDxF1.s:553    .text.ip4_input:000000000000020a .LVL47
C:\Users\stapi\AppData\Local\Temp\cc0UDxF1.s:584    .text.ip4_input:0000000000000238 .LVL51
C:\Users\stapi\AppData\Local\Temp\cc0UDxF1.s:625    .text.ip4_input:0000000000000272 .LVL55
C:\Users\stapi\AppData\Local\Temp\cc0UDxF1.s:653    .text.ip4_input:0000000000000298 .LVL56
C:\Users\stapi\AppData\Local\Temp\cc0UDxF1.s:662    .text.ip4_input:00000000000002a6 .LVL57
C:\Users\stapi\AppData\Local\Temp\cc0UDxF1.s:672    .text.ip4_input:00000000000002bc .LVL58
C:\Users\stapi\AppData\Local\Temp\cc0UDxF1.s:6631   .debug_str:000000000000032f .LASF201
C:\Users\stapi\AppData\Local\Temp\cc0UDxF1.s:6809   .debug_str:0000000000000831 .LASF172
C:\Users\stapi\AppData\Local\Temp\cc0UDxF1.s:103    .text.ip4_route:0000000000000000 .LFB5
C:\Users\stapi\AppData\Local\Temp\cc0UDxF1.s:191    .text.ip4_route:0000000000000076 .LFE5
C:\Users\stapi\AppData\Local\Temp\cc0UDxF1.s:5416   .debug_loc:00000000000005b9 .LLST2
C:\Users\stapi\AppData\Local\Temp\cc0UDxF1.s:5430   .debug_loc:00000000000005da .LLST3
C:\Users\stapi\AppData\Local\Temp\cc0UDxF1.s:6613   .debug_str:00000000000002b5 .LASF202
C:\Users\stapi\AppData\Local\Temp\cc0UDxF1.s:85     .text.ip4_set_default_multicast_netif:0000000000000000 .LFB4
C:\Users\stapi\AppData\Local\Temp\cc0UDxF1.s:96     .text.ip4_set_default_multicast_netif:000000000000000a .LFE4
C:\Users\stapi\AppData\Local\Temp\cc0UDxF1.s:6561   .debug_str:000000000000013c .LASF173
C:\Users\stapi\AppData\Local\Temp\cc0UDxF1.s:13     .text.ip4_input_accept:0000000000000000 .LFB6
C:\Users\stapi\AppData\Local\Temp\cc0UDxF1.s:78     .text.ip4_input_accept:0000000000000042 .LFE6
C:\Users\stapi\AppData\Local\Temp\cc0UDxF1.s:5441   .debug_loc:00000000000005f8 .LLST0
C:\Users\stapi\AppData\Local\Temp\cc0UDxF1.s:25     .text.ip4_input_accept:0000000000000008 .LBB6
C:\Users\stapi\AppData\Local\Temp\cc0UDxF1.s:5470   .debug_loc:000000000000063d .LLST1
C:\Users\stapi\AppData\Local\Temp\cc0UDxF1.s:58     .text.ip4_input_accept:000000000000002e .LVL3
C:\Users\stapi\AppData\Local\Temp\cc0UDxF1.s:696    .text.ip4_output_if_opt_src:0000000000000000 .LFB11
C:\Users\stapi\AppData\Local\Temp\cc0UDxF1.s:1212   .text.ip4_output_if_opt_src:00000000000002b2 .LFE11
C:\Users\stapi\AppData\Local\Temp\cc0UDxF1.s:5488   .debug_loc:0000000000000669 .LLST12
C:\Users\stapi\AppData\Local\Temp\cc0UDxF1.s:5510   .debug_loc:00000000000006a0 .LLST13
C:\Users\stapi\AppData\Local\Temp\cc0UDxF1.s:5577   .debug_loc:0000000000000743 .LLST14
C:\Users\stapi\AppData\Local\Temp\cc0UDxF1.s:5644   .debug_loc:00000000000007e6 .LLST15
C:\Users\stapi\AppData\Local\Temp\cc0UDxF1.s:5695   .debug_loc:000000000000085d .LLST16
C:\Users\stapi\AppData\Local\Temp\cc0UDxF1.s:5709   .debug_loc:000000000000087e .LLST17
C:\Users\stapi\AppData\Local\Temp\cc0UDxF1.s:5723   .debug_loc:000000000000089f .LLST18
C:\Users\stapi\AppData\Local\Temp\cc0UDxF1.s:5765   .debug_loc:000000000000090d .LLST19
C:\Users\stapi\AppData\Local\Temp\cc0UDxF1.s:5831   .debug_loc:00000000000009a8 .LLST20
C:\Users\stapi\AppData\Local\Temp\cc0UDxF1.s:762    .text.ip4_output_if_opt_src:0000000000000048 .LBB19
C:\Users\stapi\AppData\Local\Temp\cc0UDxF1.s:5849   .debug_loc:00000000000009d4 .LLST21
C:\Users\stapi\AppData\Local\Temp\cc0UDxF1.s:5872   .debug_loc:0000000000000a13 .LLST22
C:\Users\stapi\AppData\Local\Temp\cc0UDxF1.s:5927   .debug_loc:0000000000000a95 .LLST23
C:\Users\stapi\AppData\Local\Temp\cc0UDxF1.s:5966   .debug_loc:0000000000000b00 .LLST24
C:\Users\stapi\AppData\Local\Temp\cc0UDxF1.s:5990   .debug_loc:0000000000000b40 .LLST25
C:\Users\stapi\AppData\Local\Temp\cc0UDxF1.s:6001   .debug_loc:0000000000000b5e .LLST26
C:\Users\stapi\AppData\Local\Temp\cc0UDxF1.s:6048   .debug_loc:0000000000000bca .LLST27
C:\Users\stapi\AppData\Local\Temp\cc0UDxF1.s:6087   .debug_loc:0000000000000c35 .LLST28
C:\Users\stapi\AppData\Local\Temp\cc0UDxF1.s:6143   .debug_loc:0000000000000cbf .LLST29
C:\Users\stapi\AppData\Local\Temp\cc0UDxF1.s:6154   .debug_loc:0000000000000cdd .LLST30
C:\Users\stapi\AppData\Local\Temp\cc0UDxF1.s:6172   .debug_loc:0000000000000d09 .LLST31
C:\Users\stapi\AppData\Local\Temp\cc0UDxF1.s:6315   .debug_loc:0000000000000e14 .LLST32
C:\Users\stapi\AppData\Local\Temp\cc0UDxF1.s:6345   .debug_loc:0000000000000e61 .LLST33
C:\Users\stapi\AppData\Local\Temp\cc0UDxF1.s:6396   .debug_loc:0000000000000ecb .LLST34
C:\Users\stapi\AppData\Local\Temp\cc0UDxF1.s:806    .text.ip4_output_if_opt_src:000000000000007a .LVL75
C:\Users\stapi\AppData\Local\Temp\cc0UDxF1.s:850    .text.ip4_output_if_opt_src:0000000000000096 .LVL80
C:\Users\stapi\AppData\Local\Temp\cc0UDxF1.s:860    .text.ip4_output_if_opt_src:00000000000000ac .LVL81
C:\Users\stapi\AppData\Local\Temp\cc0UDxF1.s:902    .text.ip4_output_if_opt_src:00000000000000d0 .LVL88
C:\Users\stapi\AppData\Local\Temp\cc0UDxF1.s:922    .text.ip4_output_if_opt_src:0000000000000100 .LVL90
C:\Users\stapi\AppData\Local\Temp\cc0UDxF1.s:1022   .text.ip4_output_if_opt_src:0000000000000190 .LVL103
C:\Users\stapi\AppData\Local\Temp\cc0UDxF1.s:1039   .text.ip4_output_if_opt_src:00000000000001b2 .LVL106
C:\Users\stapi\AppData\Local\Temp\cc0UDxF1.s:1122   .text.ip4_output_if_opt_src:0000000000000236 .LVL116
C:\Users\stapi\AppData\Local\Temp\cc0UDxF1.s:1171   .text.ip4_output_if_opt_src:0000000000000282 .LVL123
C:\Users\stapi\AppData\Local\Temp\cc0UDxF1.s:1187   .text.ip4_output_if_opt_src:000000000000029e .LVL124
C:\Users\stapi\AppData\Local\Temp\cc0UDxF1.s:1198   .text.ip4_output_if_opt_src:00000000000002ac .LVL125
C:\Users\stapi\AppData\Local\Temp\cc0UDxF1.s:750    .text.ip4_output_if_opt_src:0000000000000040 .LVL67
C:\Users\stapi\AppData\Local\Temp\cc0UDxF1.s:6723   .debug_str:0000000000000605 .LASF174
C:\Users\stapi\AppData\Local\Temp\cc0UDxF1.s:6713   .debug_str:00000000000005ce .LASF175
C:\Users\stapi\AppData\Local\Temp\cc0UDxF1.s:6567   .debug_str:0000000000000177 .LASF176
C:\Users\stapi\AppData\Local\Temp\cc0UDxF1.s:6693   .debug_str:000000000000055a .LASF177
C:\Users\stapi\AppData\Local\Temp\cc0UDxF1.s:6761   .debug_str:00000000000006f0 .LASF178
C:\Users\stapi\AppData\Local\Temp\cc0UDxF1.s:6749   .debug_str:0000000000000688 .LASF179
C:\Users\stapi\AppData\Local\Temp\cc0UDxF1.s:6537   .debug_str:00000000000000ab .LASF180
C:\Users\stapi\AppData\Local\Temp\cc0UDxF1.s:6919   .debug_str:0000000000000c54 .LASF181
C:\Users\stapi\AppData\Local\Temp\cc0UDxF1.s:6747   .debug_str:000000000000067e .LASF182
C:\Users\stapi\AppData\Local\Temp\cc0UDxF1.s:6709   .debug_str:00000000000005b2 .LASF183
C:\Users\stapi\AppData\Local\Temp\cc0UDxF1.s:6555   .debug_str:0000000000000111 .LASF184
C:\Users\stapi\AppData\Local\Temp\cc0UDxF1.s:6615   .debug_str:00000000000002d5 .LASF185
C:\Users\stapi\AppData\Local\Temp\cc0UDxF1.s:6863   .debug_str:0000000000000995 .LASF186
C:\Users\stapi\AppData\Local\Temp\cc0UDxF1.s:6649   .debug_str:00000000000003bd .LASF187
C:\Users\stapi\AppData\Local\Temp\cc0UDxF1.s:6577   .debug_str:00000000000001bc .LASF188
C:\Users\stapi\AppData\Local\Temp\cc0UDxF1.s:6701   .debug_str:0000000000000583 .LASF189
C:\Users\stapi\AppData\Local\Temp\cc0UDxF1.s:6867   .debug_str:00000000000009a5 .LASF190
C:\Users\stapi\AppData\Local\Temp\cc0UDxF1.s:6881   .debug_str:0000000000000a1e .LASF191
C:\Users\stapi\AppData\Local\Temp\cc0UDxF1.s:6793   .debug_str:00000000000007c7 .LASF193
C:\Users\stapi\AppData\Local\Temp\cc0UDxF1.s:6739   .debug_str:0000000000000651 .LASF192
C:\Users\stapi\AppData\Local\Temp\cc0UDxF1.s:6637   .debug_str:0000000000000361 .LASF194
C:\Users\stapi\AppData\Local\Temp\cc0UDxF1.s:6913   .debug_str:0000000000000c26 .LASF195
C:\Users\stapi\AppData\Local\Temp\cc0UDxF1.s:6901   .debug_str:0000000000000bf4 .LASF196
C:\Users\stapi\AppData\Local\Temp\cc0UDxF1.s:1330   .text.ip4_output:0000000000000000 .LVL136
C:\Users\stapi\AppData\Local\Temp\cc0UDxF1.s:1343   .text.ip4_output:0000000000000010 .LVL137
C:\Users\stapi\AppData\Local\Temp\cc0UDxF1.s:1354   .text.ip4_output:000000000000001e .LVL139
C:\Users\stapi\AppData\Local\Temp\cc0UDxF1.s:1368   .text.ip4_output:000000000000003c .LVL142
C:\Users\stapi\AppData\Local\Temp\cc0UDxF1.s:1404   .text.ip4_output:000000000000006e .LVL147
C:\Users\stapi\AppData\Local\Temp\cc0UDxF1.s:1358   .text.ip4_output:000000000000002a .LVL140
C:\Users\stapi\AppData\Local\Temp\cc0UDxF1.s:1352   .text.ip4_output:000000000000001a .LVL138
C:\Users\stapi\AppData\Local\Temp\cc0UDxF1.s:1384   .text.ip4_output:0000000000000052 .LVL144
C:\Users\stapi\AppData\Local\Temp\cc0UDxF1.s:1387   .text.ip4_output:0000000000000054 .LVL145
C:\Users\stapi\AppData\Local\Temp\cc0UDxF1.s:1300   .text.ip4_output_if_src:0000000000000000 .LVL134
C:\Users\stapi\AppData\Local\Temp\cc0UDxF1.s:1222   .text.ip4_output_if_opt:0000000000000000 .LVL127
C:\Users\stapi\AppData\Local\Temp\cc0UDxF1.s:1244   .text.ip4_output_if_opt:000000000000001a .LVL129
C:\Users\stapi\AppData\Local\Temp\cc0UDxF1.s:1255   .text.ip4_output_if_opt:000000000000002a .LVL131
C:\Users\stapi\AppData\Local\Temp\cc0UDxF1.s:1227   .text.ip4_output_if_opt:0000000000000008 .LVL128
C:\Users\stapi\AppData\Local\Temp\cc0UDxF1.s:1270   .text.ip4_output_if:0000000000000000 .LVL132
C:\Users\stapi\AppData\Local\Temp\cc0UDxF1.s:201    .text.ip4_input:0000000000000000 .LVL13
C:\Users\stapi\AppData\Local\Temp\cc0UDxF1.s:237    .text.ip4_input:000000000000001c .LVL16
C:\Users\stapi\AppData\Local\Temp\cc0UDxF1.s:264    .text.ip4_input:0000000000000030 .LVL18
C:\Users\stapi\AppData\Local\Temp\cc0UDxF1.s:394    .text.ip4_input:0000000000000118 .LVL30
C:\Users\stapi\AppData\Local\Temp\cc0UDxF1.s:414    .text.ip4_input:0000000000000138 .LVL32
C:\Users\stapi\AppData\Local\Temp\cc0UDxF1.s:420    .text.ip4_input:000000000000013e .LVL33
C:\Users\stapi\AppData\Local\Temp\cc0UDxF1.s:427    .text.ip4_input:0000000000000144 .LVL34
C:\Users\stapi\AppData\Local\Temp\cc0UDxF1.s:557    .text.ip4_input:000000000000020c .LVL48
C:\Users\stapi\AppData\Local\Temp\cc0UDxF1.s:567    .text.ip4_input:0000000000000220 .LVL49
C:\Users\stapi\AppData\Local\Temp\cc0UDxF1.s:588    .text.ip4_input:000000000000023c .LVL52
C:\Users\stapi\AppData\Local\Temp\cc0UDxF1.s:594    .text.ip4_input:0000000000000242 .LVL53
C:\Users\stapi\AppData\Local\Temp\cc0UDxF1.s:288    .text.ip4_input:0000000000000054 .LVL21
C:\Users\stapi\AppData\Local\Temp\cc0UDxF1.s:295    .text.ip4_input:000000000000005c .LVL22
C:\Users\stapi\AppData\Local\Temp\cc0UDxF1.s:218    .text.ip4_input:0000000000000008 .LVL14
C:\Users\stapi\AppData\Local\Temp\cc0UDxF1.s:357    .text.ip4_input:00000000000000e6 .LVL25
C:\Users\stapi\AppData\Local\Temp\cc0UDxF1.s:367    .text.ip4_input:00000000000000f4 .LVL26
C:\Users\stapi\AppData\Local\Temp\cc0UDxF1.s:388    .text.ip4_input:0000000000000116 .LVL29
C:\Users\stapi\AppData\Local\Temp\cc0UDxF1.s:547    .text.ip4_input:0000000000000200 .LVL46
C:\Users\stapi\AppData\Local\Temp\cc0UDxF1.s:485    .text.ip4_input:0000000000000192 .LVL39
C:\Users\stapi\AppData\Local\Temp\cc0UDxF1.s:492    .text.ip4_input:000000000000019a .LVL40
C:\Users\stapi\AppData\Local\Temp\cc0UDxF1.s:614    .text.ip4_input:0000000000000260 .LVL54
C:\Users\stapi\AppData\Local\Temp\cc0UDxF1.s:381    .text.ip4_input:0000000000000108 .LVL28
C:\Users\stapi\AppData\Local\Temp\cc0UDxF1.s:106    .text.ip4_route:0000000000000000 .LVL7
C:\Users\stapi\AppData\Local\Temp\cc0UDxF1.s:121    .text.ip4_route:0000000000000016 .LVL8
C:\Users\stapi\AppData\Local\Temp\cc0UDxF1.s:128    .text.ip4_route:0000000000000020 .LVL9
C:\Users\stapi\AppData\Local\Temp\cc0UDxF1.s:152    .text.ip4_route:000000000000004a .LVL10
C:\Users\stapi\AppData\Local\Temp\cc0UDxF1.s:156    .text.ip4_route:000000000000004c .LVL11
C:\Users\stapi\AppData\Local\Temp\cc0UDxF1.s:17     .text.ip4_input_accept:0000000000000000 .LVL0
C:\Users\stapi\AppData\Local\Temp\cc0UDxF1.s:43     .text.ip4_input_accept:0000000000000018 .LVL2
C:\Users\stapi\AppData\Local\Temp\cc0UDxF1.s:68     .text.ip4_input_accept:000000000000003c .LVL4
C:\Users\stapi\AppData\Local\Temp\cc0UDxF1.s:72     .text.ip4_input_accept:000000000000003e .LVL5
C:\Users\stapi\AppData\Local\Temp\cc0UDxF1.s:30     .text.ip4_input_accept:000000000000000c .LVL1
C:\Users\stapi\AppData\Local\Temp\cc0UDxF1.s:699    .text.ip4_output_if_opt_src:0000000000000000 .LVL59
C:\Users\stapi\AppData\Local\Temp\cc0UDxF1.s:743    .text.ip4_output_if_opt_src:0000000000000028 .LVL65
C:\Users\stapi\AppData\Local\Temp\cc0UDxF1.s:756    .text.ip4_output_if_opt_src:0000000000000042 .LVL68
C:\Users\stapi\AppData\Local\Temp\cc0UDxF1.s:770    .text.ip4_output_if_opt_src:000000000000004c .LVL70
C:\Users\stapi\AppData\Local\Temp\cc0UDxF1.s:741    .text.ip4_output_if_opt_src:0000000000000024 .LVL64
C:\Users\stapi\AppData\Local\Temp\cc0UDxF1.s:795    .text.ip4_output_if_opt_src:000000000000006c .LVL72
C:\Users\stapi\AppData\Local\Temp\cc0UDxF1.s:809    .text.ip4_output_if_opt_src:000000000000007c .LVL76
C:\Users\stapi\AppData\Local\Temp\cc0UDxF1.s:838    .text.ip4_output_if_opt_src:0000000000000088 .LVL79
C:\Users\stapi\AppData\Local\Temp\cc0UDxF1.s:928    .text.ip4_output_if_opt_src:0000000000000102 .LVL91
C:\Users\stapi\AppData\Local\Temp\cc0UDxF1.s:937    .text.ip4_output_if_opt_src:0000000000000108 .LVL93
C:\Users\stapi\AppData\Local\Temp\cc0UDxF1.s:1105   .text.ip4_output_if_opt_src:000000000000021e .LVL115
C:\Users\stapi\AppData\Local\Temp\cc0UDxF1.s:1124   .text.ip4_output_if_opt_src:0000000000000238 .LVL117
C:\Users\stapi\AppData\Local\Temp\cc0UDxF1.s:1130   .text.ip4_output_if_opt_src:000000000000023e .LVL118
C:\Users\stapi\AppData\Local\Temp\cc0UDxF1.s:1160   .text.ip4_output_if_opt_src:000000000000026e .LVL122
C:\Users\stapi\AppData\Local\Temp\cc0UDxF1.s:1200   .text.ip4_output_if_opt_src:00000000000002ae .LVL126
C:\Users\stapi\AppData\Local\Temp\cc0UDxF1.s:746    .text.ip4_output_if_opt_src:0000000000000030 .LVL66
C:\Users\stapi\AppData\Local\Temp\cc0UDxF1.s:813    .text.ip4_output_if_opt_src:000000000000007e .LVL77
C:\Users\stapi\AppData\Local\Temp\cc0UDxF1.s:739    .text.ip4_output_if_opt_src:0000000000000020 .LVL63
C:\Users\stapi\AppData\Local\Temp\cc0UDxF1.s:1142   .text.ip4_output_if_opt_src:000000000000024a .LVL120
C:\Users\stapi\AppData\Local\Temp\cc0UDxF1.s:717    .text.ip4_output_if_opt_src:000000000000000e .LVL60
C:\Users\stapi\AppData\Local\Temp\cc0UDxF1.s:731    .text.ip4_output_if_opt_src:0000000000000014 .LVL62
C:\Users\stapi\AppData\Local\Temp\cc0UDxF1.s:894    .text.ip4_output_if_opt_src:00000000000000c4 .LVL87
C:\Users\stapi\AppData\Local\Temp\cc0UDxF1.s:823    .text.ip4_output_if_opt_src:0000000000000080 .LVL78
C:\Users\stapi\AppData\Local\Temp\cc0UDxF1.s:761    .text.ip4_output_if_opt_src:0000000000000048 .LVL69
C:\Users\stapi\AppData\Local\Temp\cc0UDxF1.s:873    .text.ip4_output_if_opt_src:00000000000000b2 .LVL83
C:\Users\stapi\AppData\Local\Temp\cc0UDxF1.s:935    .text.ip4_output_if_opt_src:0000000000000106 .LVL92
C:\Users\stapi\AppData\Local\Temp\cc0UDxF1.s:960    .text.ip4_output_if_opt_src:0000000000000124 .LVL96
C:\Users\stapi\AppData\Local\Temp\cc0UDxF1.s:1158   .text.ip4_output_if_opt_src:000000000000026c .LVL121
C:\Users\stapi\AppData\Local\Temp\cc0UDxF1.s:906    .text.ip4_output_if_opt_src:00000000000000d2 .LVL89
C:\Users\stapi\AppData\Local\Temp\cc0UDxF1.s:951    .text.ip4_output_if_opt_src:0000000000000116 .LVL95
C:\Users\stapi\AppData\Local\Temp\cc0UDxF1.s:1139   .text.ip4_output_if_opt_src:0000000000000248 .LVL119
C:\Users\stapi\AppData\Local\Temp\cc0UDxF1.s:878    .text.ip4_output_if_opt_src:00000000000000b4 .LVL84
C:\Users\stapi\AppData\Local\Temp\cc0UDxF1.s:968    .text.ip4_output_if_opt_src:0000000000000138 .LVL97
C:\Users\stapi\AppData\Local\Temp\cc0UDxF1.s:974    .text.ip4_output_if_opt_src:0000000000000140 .LVL98
C:\Users\stapi\AppData\Local\Temp\cc0UDxF1.s:976    .text.ip4_output_if_opt_src:0000000000000144 .LVL99
C:\Users\stapi\AppData\Local\Temp\cc0UDxF1.s:987    .text.ip4_output_if_opt_src:0000000000000156 .LVL100
C:\Users\stapi\AppData\Local\Temp\cc0UDxF1.s:1004   .text.ip4_output_if_opt_src:0000000000000172 .LVL101
C:\Users\stapi\AppData\Local\Temp\cc0UDxF1.s:1019   .text.ip4_output_if_opt_src:0000000000000188 .LVL102
C:\Users\stapi\AppData\Local\Temp\cc0UDxF1.s:1027   .text.ip4_output_if_opt_src:000000000000019a .LVL104
C:\Users\stapi\AppData\Local\Temp\cc0UDxF1.s:1033   .text.ip4_output_if_opt_src:00000000000001a2 .LVL105
C:\Users\stapi\AppData\Local\Temp\cc0UDxF1.s:1049   .text.ip4_output_if_opt_src:00000000000001c4 .LVL107
C:\Users\stapi\AppData\Local\Temp\cc0UDxF1.s:1073   .text.ip4_output_if_opt_src:00000000000001f6 .LVL108
C:\Users\stapi\AppData\Local\Temp\cc0UDxF1.s:1084   .text.ip4_output_if_opt_src:0000000000000202 .LVL110
C:\Users\stapi\AppData\Local\Temp\cc0UDxF1.s:1087   .text.ip4_output_if_opt_src:0000000000000204 .LVL111
C:\Users\stapi\AppData\Local\Temp\cc0UDxF1.s:1093   .text.ip4_output_if_opt_src:000000000000020a .LVL112
C:\Users\stapi\AppData\Local\Temp\cc0UDxF1.s:1098   .text.ip4_output_if_opt_src:000000000000020e .LVL113
C:\Users\stapi\AppData\Local\Temp\cc0UDxF1.s:1103   .text.ip4_output_if_opt_src:000000000000021a .LVL114
C:\Users\stapi\AppData\Local\Temp\cc0UDxF1.s:775    .text.ip4_output_if_opt_src:0000000000000050 .LVL71
C:\Users\stapi\AppData\Local\Temp\cc0UDxF1.s:802    .text.ip4_output_if_opt_src:0000000000000072 .LVL74
C:\Users\stapi\AppData\Local\Temp\cc0UDxF1.s:947    .text.ip4_output_if_opt_src:000000000000010e .LVL94
C:\Users\stapi\AppData\Local\Temp\cc0UDxF1.s:798    .text.ip4_output_if_opt_src:000000000000006e .LVL73
C:\Users\stapi\AppData\Local\Temp\cc0UDxF1.s:868    .text.ip4_output_if_opt_src:00000000000000b0 .LVL82
C:\Users\stapi\AppData\Local\Temp\cc0UDxF1.s:886    .text.ip4_output_if_opt_src:00000000000000be .LVL85
C:\Users\stapi\AppData\Local\Temp\cc0UDxF1.s:889    .text.ip4_output_if_opt_src:00000000000000c0 .LVL86
C:\Users\stapi\AppData\Local\Temp\cc0UDxF1.s:1453   .debug_info:0000000000000000 .Ldebug_info0
C:\Users\stapi\AppData\Local\Temp\cc0UDxF1.s:32     .text.ip4_input_accept:000000000000000c .LBE6
C:\Users\stapi\AppData\Local\Temp\cc0UDxF1.s:35     .text.ip4_input_accept:000000000000000e .LBB10
C:\Users\stapi\AppData\Local\Temp\cc0UDxF1.s:49     .text.ip4_input_accept:000000000000001e .LBE10
C:\Users\stapi\AppData\Local\Temp\cc0UDxF1.s:54     .text.ip4_input_accept:0000000000000026 .LBB11
C:\Users\stapi\AppData\Local\Temp\cc0UDxF1.s:62     .text.ip4_input_accept:0000000000000032 .LBE11
C:\Users\stapi\AppData\Local\Temp\cc0UDxF1.s:364    .text.ip4_input:00000000000000f0 .LBB12
C:\Users\stapi\AppData\Local\Temp\cc0UDxF1.s:369    .text.ip4_input:00000000000000f4 .LBE12
C:\Users\stapi\AppData\Local\Temp\cc0UDxF1.s:596    .text.ip4_input:0000000000000242 .LBB14
C:\Users\stapi\AppData\Local\Temp\cc0UDxF1.s:616    .text.ip4_input:0000000000000260 .LBE14
C:\Users\stapi\AppData\Local\Temp\cc0UDxF1.s:818    .text.ip4_output_if_opt_src:000000000000007e .LBE19
C:\Users\stapi\AppData\Local\Temp\cc0UDxF1.s:841    .text.ip4_output_if_opt_src:0000000000000088 .LBB32
C:\Users\stapi\AppData\Local\Temp\cc0UDxF1.s:1210   .text.ip4_output_if_opt_src:00000000000002b2 .LBE32
C:\Users\stapi\AppData\Local\Temp\cc0UDxF1.s:773    .text.ip4_output_if_opt_src:0000000000000050 .LBB21
C:\Users\stapi\AppData\Local\Temp\cc0UDxF1.s:816    .text.ip4_output_if_opt_src:000000000000007e .LBE21
C:\Users\stapi\AppData\Local\Temp\cc0UDxF1.s:843    .text.ip4_output_if_opt_src:0000000000000088 .LBB26
C:\Users\stapi\AppData\Local\Temp\cc0UDxF1.s:870    .text.ip4_output_if_opt_src:00000000000000b0 .LBE26
C:\Users\stapi\AppData\Local\Temp\cc0UDxF1.s:874    .text.ip4_output_if_opt_src:00000000000000b2 .LBB27
C:\Users\stapi\AppData\Local\Temp\cc0UDxF1.s:932    .text.ip4_output_if_opt_src:0000000000000104 .LBE27
C:\Users\stapi\AppData\Local\Temp\cc0UDxF1.s:939    .text.ip4_output_if_opt_src:0000000000000108 .LBB28
C:\Users\stapi\AppData\Local\Temp\cc0UDxF1.s:1107   .text.ip4_output_if_opt_src:000000000000021e .LBE28
C:\Users\stapi\AppData\Local\Temp\cc0UDxF1.s:1126   .text.ip4_output_if_opt_src:0000000000000238 .LBB29
C:\Users\stapi\AppData\Local\Temp\cc0UDxF1.s:1132   .text.ip4_output_if_opt_src:000000000000023e .LBE29
C:\Users\stapi\AppData\Local\Temp\cc0UDxF1.s:1202   .text.ip4_output_if_opt_src:00000000000002ae .LBB30
C:\Users\stapi\AppData\Local\Temp\cc0UDxF1.s:1208   .text.ip4_output_if_opt_src:00000000000002b2 .LBE30
C:\Users\stapi\AppData\Local\Temp\cc0UDxF1.s:780    .text.ip4_output_if_opt_src:0000000000000054 .LBB22
C:\Users\stapi\AppData\Local\Temp\cc0UDxF1.s:815    .text.ip4_output_if_opt_src:000000000000007e .LBE22
C:\Users\stapi\AppData\Local\Temp\cc0UDxF1.s:844    .text.ip4_output_if_opt_src:0000000000000088 .LBB23
C:\Users\stapi\AppData\Local\Temp\cc0UDxF1.s:869    .text.ip4_output_if_opt_src:00000000000000b0 .LBE23
C:\Users\stapi\AppData\Local\Temp\cc0UDxF1.s:875    .text.ip4_output_if_opt_src:00000000000000b2 .LBB24
C:\Users\stapi\AppData\Local\Temp\cc0UDxF1.s:896    .text.ip4_output_if_opt_src:00000000000000c4 .LBE24
C:\Users\stapi\AppData\Local\Temp\cc0UDxF1.s:1203   .text.ip4_output_if_opt_src:00000000000002ae .LBB25
C:\Users\stapi\AppData\Local\Temp\cc0UDxF1.s:1207   .text.ip4_output_if_opt_src:00000000000002b2 .LBE25

UNDEFINED SYMBOLS
ip_data
__riscv_save_0
ip4_addr_isbroadcast_u32
__riscv_restore_0
netif_list
netif_default
__riscv_save_8
pbuf_free
__riscv_restore_8
lwip_htons
pbuf_realloc
inet_chksum
igmp_lookfor_group
ip4_reass
raw_input
pbuf_remove_header
pbuf_header_force
icmp_dest_unreach
udp_input
tcp_input
icmp_input
igmp_input
__riscv_save_11
printf
pbuf_add_header
__riscv_restore_11
memcpy
memset
ip_addr_any
netif_loop_output
ip4_frag
__riscv_save_1
__riscv_restore_1
