   1              		.file	"ip4_frag.c"
   2              		.option nopic
   3              		.attribute arch, "rv32i2p0_m2p0_a2p0_f2p0_c2p0_b_p0p94"
   4              		.attribute unaligned_access, 0
   5              		.attribute stack_align, 16
   6              		.text
   7              	.Ltext0:
   8              		.cfi_sections	.debug_frame
   9              		.section	.rodata.ip_reass_dequeue_datagram.str1.4,"aMS",@progbits,1
  10              		.align	2
  11              	.LC0:
  12 0000 433A2F55 		.string	"C:/Users/stapi/OneDrive/Desktop/GD32VW553/GD32VW55X_Wifi_BLE_SDK/GD32VW55x_RELEASE_V1.0.2
  12      73657273 
  12      2F737461 
  12      70692F4F 
  12      6E654472 
  13              		.align	2
  14              	.LC1:
  15 0088 73616E69 		.string	"sanity check linked list"
  15      74792063 
  15      6865636B 
  15      206C696E 
  15      6B656420 
  16 00a1 000000   		.align	2
  17              	.LC2:
  18 00a4 41737365 		.string	"Assertion \"%s\" failed at line %d in %s\n"
  18      7274696F 
  18      6E202225 
  18      73222066 
  18      61696C65 
  19              		.section	.text.ip_reass_dequeue_datagram,"ax",@progbits
  20              		.align	1
  22              	ip_reass_dequeue_datagram:
  23              	.LFB8:
  24              		.file 1 "C:/Users/stapi/OneDrive/Desktop/GD32VW553/GD32VW55X_Wifi_BLE_SDK/GD32VW55x_RELEASE_V1.0.2
   1:C:/Users/stapi/OneDrive/Desktop/GD32VW553/GD32VW55X_Wifi_BLE_SDK/GD32VW55x_RELEASE_V1.0.2/MSDK/lwip/lwip-2.1.2/src/core/ipv4\ip4_frag.c **** /**
   2:C:/Users/stapi/OneDrive/Desktop/GD32VW553/GD32VW55X_Wifi_BLE_SDK/GD32VW55x_RELEASE_V1.0.2/MSDK/lwip/lwip-2.1.2/src/core/ipv4\ip4_frag.c ****  * @file
   3:C:/Users/stapi/OneDrive/Desktop/GD32VW553/GD32VW55X_Wifi_BLE_SDK/GD32VW55x_RELEASE_V1.0.2/MSDK/lwip/lwip-2.1.2/src/core/ipv4\ip4_frag.c ****  * This is the IPv4 packet segmentation and reassembly implementation.
   4:C:/Users/stapi/OneDrive/Desktop/GD32VW553/GD32VW55X_Wifi_BLE_SDK/GD32VW55x_RELEASE_V1.0.2/MSDK/lwip/lwip-2.1.2/src/core/ipv4\ip4_frag.c ****  *
   5:C:/Users/stapi/OneDrive/Desktop/GD32VW553/GD32VW55X_Wifi_BLE_SDK/GD32VW55x_RELEASE_V1.0.2/MSDK/lwip/lwip-2.1.2/src/core/ipv4\ip4_frag.c ****  */
   6:C:/Users/stapi/OneDrive/Desktop/GD32VW553/GD32VW55X_Wifi_BLE_SDK/GD32VW55x_RELEASE_V1.0.2/MSDK/lwip/lwip-2.1.2/src/core/ipv4\ip4_frag.c **** 
   7:C:/Users/stapi/OneDrive/Desktop/GD32VW553/GD32VW55X_Wifi_BLE_SDK/GD32VW55x_RELEASE_V1.0.2/MSDK/lwip/lwip-2.1.2/src/core/ipv4\ip4_frag.c **** /*
   8:C:/Users/stapi/OneDrive/Desktop/GD32VW553/GD32VW55X_Wifi_BLE_SDK/GD32VW55x_RELEASE_V1.0.2/MSDK/lwip/lwip-2.1.2/src/core/ipv4\ip4_frag.c ****  * Copyright (c) 2001-2004 Swedish Institute of Computer Science.
   9:C:/Users/stapi/OneDrive/Desktop/GD32VW553/GD32VW55X_Wifi_BLE_SDK/GD32VW55x_RELEASE_V1.0.2/MSDK/lwip/lwip-2.1.2/src/core/ipv4\ip4_frag.c ****  * Copyright (c) 2024, GigaDevice Semiconductor Inc.
  10:C:/Users/stapi/OneDrive/Desktop/GD32VW553/GD32VW55X_Wifi_BLE_SDK/GD32VW55x_RELEASE_V1.0.2/MSDK/lwip/lwip-2.1.2/src/core/ipv4\ip4_frag.c ****  * All rights reserved.
  11:C:/Users/stapi/OneDrive/Desktop/GD32VW553/GD32VW55X_Wifi_BLE_SDK/GD32VW55x_RELEASE_V1.0.2/MSDK/lwip/lwip-2.1.2/src/core/ipv4\ip4_frag.c ****  *
  12:C:/Users/stapi/OneDrive/Desktop/GD32VW553/GD32VW55X_Wifi_BLE_SDK/GD32VW55x_RELEASE_V1.0.2/MSDK/lwip/lwip-2.1.2/src/core/ipv4\ip4_frag.c ****  * Redistribution and use in source and binary forms, with or without modification,
  13:C:/Users/stapi/OneDrive/Desktop/GD32VW553/GD32VW55X_Wifi_BLE_SDK/GD32VW55x_RELEASE_V1.0.2/MSDK/lwip/lwip-2.1.2/src/core/ipv4\ip4_frag.c ****  * are permitted provided that the following conditions are met:
  14:C:/Users/stapi/OneDrive/Desktop/GD32VW553/GD32VW55X_Wifi_BLE_SDK/GD32VW55x_RELEASE_V1.0.2/MSDK/lwip/lwip-2.1.2/src/core/ipv4\ip4_frag.c ****  *
  15:C:/Users/stapi/OneDrive/Desktop/GD32VW553/GD32VW55X_Wifi_BLE_SDK/GD32VW55x_RELEASE_V1.0.2/MSDK/lwip/lwip-2.1.2/src/core/ipv4\ip4_frag.c ****  * 1. Redistributions of source code must retain the above copyright notice,
  16:C:/Users/stapi/OneDrive/Desktop/GD32VW553/GD32VW55X_Wifi_BLE_SDK/GD32VW55x_RELEASE_V1.0.2/MSDK/lwip/lwip-2.1.2/src/core/ipv4\ip4_frag.c ****  *    this list of conditions and the following disclaimer.
  17:C:/Users/stapi/OneDrive/Desktop/GD32VW553/GD32VW55X_Wifi_BLE_SDK/GD32VW55x_RELEASE_V1.0.2/MSDK/lwip/lwip-2.1.2/src/core/ipv4\ip4_frag.c ****  * 2. Redistributions in binary form must reproduce the above copyright notice,
  18:C:/Users/stapi/OneDrive/Desktop/GD32VW553/GD32VW55X_Wifi_BLE_SDK/GD32VW55x_RELEASE_V1.0.2/MSDK/lwip/lwip-2.1.2/src/core/ipv4\ip4_frag.c ****  *    this list of conditions and the following disclaimer in the documentation
  19:C:/Users/stapi/OneDrive/Desktop/GD32VW553/GD32VW55X_Wifi_BLE_SDK/GD32VW55x_RELEASE_V1.0.2/MSDK/lwip/lwip-2.1.2/src/core/ipv4\ip4_frag.c ****  *    and/or other materials provided with the distribution.
  20:C:/Users/stapi/OneDrive/Desktop/GD32VW553/GD32VW55X_Wifi_BLE_SDK/GD32VW55x_RELEASE_V1.0.2/MSDK/lwip/lwip-2.1.2/src/core/ipv4\ip4_frag.c ****  * 3. The name of the author may not be used to endorse or promote products
  21:C:/Users/stapi/OneDrive/Desktop/GD32VW553/GD32VW55X_Wifi_BLE_SDK/GD32VW55x_RELEASE_V1.0.2/MSDK/lwip/lwip-2.1.2/src/core/ipv4\ip4_frag.c ****  *    derived from this software without specific prior written permission.
  22:C:/Users/stapi/OneDrive/Desktop/GD32VW553/GD32VW55X_Wifi_BLE_SDK/GD32VW55x_RELEASE_V1.0.2/MSDK/lwip/lwip-2.1.2/src/core/ipv4\ip4_frag.c ****  *
  23:C:/Users/stapi/OneDrive/Desktop/GD32VW553/GD32VW55X_Wifi_BLE_SDK/GD32VW55x_RELEASE_V1.0.2/MSDK/lwip/lwip-2.1.2/src/core/ipv4\ip4_frag.c ****  * THIS SOFTWARE IS PROVIDED BY THE AUTHOR ``AS IS'' AND ANY EXPRESS OR IMPLIED
  24:C:/Users/stapi/OneDrive/Desktop/GD32VW553/GD32VW55X_Wifi_BLE_SDK/GD32VW55x_RELEASE_V1.0.2/MSDK/lwip/lwip-2.1.2/src/core/ipv4\ip4_frag.c ****  * WARRANTIES, INCLUDING, BUT NOT LIMITED TO, THE IMPLIED WARRANTIES OF
  25:C:/Users/stapi/OneDrive/Desktop/GD32VW553/GD32VW55X_Wifi_BLE_SDK/GD32VW55x_RELEASE_V1.0.2/MSDK/lwip/lwip-2.1.2/src/core/ipv4\ip4_frag.c ****  * MERCHANTABILITY AND FITNESS FOR A PARTICULAR PURPOSE ARE DISCLAIMED. IN NO EVENT
  26:C:/Users/stapi/OneDrive/Desktop/GD32VW553/GD32VW55X_Wifi_BLE_SDK/GD32VW55x_RELEASE_V1.0.2/MSDK/lwip/lwip-2.1.2/src/core/ipv4\ip4_frag.c ****  * SHALL THE AUTHOR BE LIABLE FOR ANY DIRECT, INDIRECT, INCIDENTAL, SPECIAL,
  27:C:/Users/stapi/OneDrive/Desktop/GD32VW553/GD32VW55X_Wifi_BLE_SDK/GD32VW55x_RELEASE_V1.0.2/MSDK/lwip/lwip-2.1.2/src/core/ipv4\ip4_frag.c ****  * EXEMPLARY, OR CONSEQUENTIAL DAMAGES (INCLUDING, BUT NOT LIMITED TO, PROCUREMENT
  28:C:/Users/stapi/OneDrive/Desktop/GD32VW553/GD32VW55X_Wifi_BLE_SDK/GD32VW55x_RELEASE_V1.0.2/MSDK/lwip/lwip-2.1.2/src/core/ipv4\ip4_frag.c ****  * OF SUBSTITUTE GOODS OR SERVICES; LOSS OF USE, DATA, OR PROFITS; OR BUSINESS
  29:C:/Users/stapi/OneDrive/Desktop/GD32VW553/GD32VW55X_Wifi_BLE_SDK/GD32VW55x_RELEASE_V1.0.2/MSDK/lwip/lwip-2.1.2/src/core/ipv4\ip4_frag.c ****  * INTERRUPTION) HOWEVER CAUSED AND ON ANY THEORY OF LIABILITY, WHETHER IN
  30:C:/Users/stapi/OneDrive/Desktop/GD32VW553/GD32VW55X_Wifi_BLE_SDK/GD32VW55x_RELEASE_V1.0.2/MSDK/lwip/lwip-2.1.2/src/core/ipv4\ip4_frag.c ****  * CONTRACT, STRICT LIABILITY, OR TORT (INCLUDING NEGLIGENCE OR OTHERWISE) ARISING
  31:C:/Users/stapi/OneDrive/Desktop/GD32VW553/GD32VW55X_Wifi_BLE_SDK/GD32VW55x_RELEASE_V1.0.2/MSDK/lwip/lwip-2.1.2/src/core/ipv4\ip4_frag.c ****  * IN ANY WAY OUT OF THE USE OF THIS SOFTWARE, EVEN IF ADVISED OF THE POSSIBILITY
  32:C:/Users/stapi/OneDrive/Desktop/GD32VW553/GD32VW55X_Wifi_BLE_SDK/GD32VW55x_RELEASE_V1.0.2/MSDK/lwip/lwip-2.1.2/src/core/ipv4\ip4_frag.c ****  * OF SUCH DAMAGE.
  33:C:/Users/stapi/OneDrive/Desktop/GD32VW553/GD32VW55X_Wifi_BLE_SDK/GD32VW55x_RELEASE_V1.0.2/MSDK/lwip/lwip-2.1.2/src/core/ipv4\ip4_frag.c ****  *
  34:C:/Users/stapi/OneDrive/Desktop/GD32VW553/GD32VW55X_Wifi_BLE_SDK/GD32VW55x_RELEASE_V1.0.2/MSDK/lwip/lwip-2.1.2/src/core/ipv4\ip4_frag.c ****  * This file is part of the lwIP TCP/IP stack.
  35:C:/Users/stapi/OneDrive/Desktop/GD32VW553/GD32VW55X_Wifi_BLE_SDK/GD32VW55x_RELEASE_V1.0.2/MSDK/lwip/lwip-2.1.2/src/core/ipv4\ip4_frag.c ****  *
  36:C:/Users/stapi/OneDrive/Desktop/GD32VW553/GD32VW55X_Wifi_BLE_SDK/GD32VW55x_RELEASE_V1.0.2/MSDK/lwip/lwip-2.1.2/src/core/ipv4\ip4_frag.c ****  * Author: Jani Monoses <jani@iv.ro>
  37:C:/Users/stapi/OneDrive/Desktop/GD32VW553/GD32VW55X_Wifi_BLE_SDK/GD32VW55x_RELEASE_V1.0.2/MSDK/lwip/lwip-2.1.2/src/core/ipv4\ip4_frag.c ****  *         Simon Goldschmidt
  38:C:/Users/stapi/OneDrive/Desktop/GD32VW553/GD32VW55X_Wifi_BLE_SDK/GD32VW55x_RELEASE_V1.0.2/MSDK/lwip/lwip-2.1.2/src/core/ipv4\ip4_frag.c ****  * original reassembly code by Adam Dunkels <adam@sics.se>
  39:C:/Users/stapi/OneDrive/Desktop/GD32VW553/GD32VW55X_Wifi_BLE_SDK/GD32VW55x_RELEASE_V1.0.2/MSDK/lwip/lwip-2.1.2/src/core/ipv4\ip4_frag.c ****  *
  40:C:/Users/stapi/OneDrive/Desktop/GD32VW553/GD32VW55X_Wifi_BLE_SDK/GD32VW55x_RELEASE_V1.0.2/MSDK/lwip/lwip-2.1.2/src/core/ipv4\ip4_frag.c ****  */
  41:C:/Users/stapi/OneDrive/Desktop/GD32VW553/GD32VW55X_Wifi_BLE_SDK/GD32VW55x_RELEASE_V1.0.2/MSDK/lwip/lwip-2.1.2/src/core/ipv4\ip4_frag.c **** 
  42:C:/Users/stapi/OneDrive/Desktop/GD32VW553/GD32VW55X_Wifi_BLE_SDK/GD32VW55x_RELEASE_V1.0.2/MSDK/lwip/lwip-2.1.2/src/core/ipv4\ip4_frag.c **** #include "lwip/opt.h"
  43:C:/Users/stapi/OneDrive/Desktop/GD32VW553/GD32VW55X_Wifi_BLE_SDK/GD32VW55x_RELEASE_V1.0.2/MSDK/lwip/lwip-2.1.2/src/core/ipv4\ip4_frag.c **** 
  44:C:/Users/stapi/OneDrive/Desktop/GD32VW553/GD32VW55X_Wifi_BLE_SDK/GD32VW55x_RELEASE_V1.0.2/MSDK/lwip/lwip-2.1.2/src/core/ipv4\ip4_frag.c **** #if LWIP_IPV4
  45:C:/Users/stapi/OneDrive/Desktop/GD32VW553/GD32VW55X_Wifi_BLE_SDK/GD32VW55x_RELEASE_V1.0.2/MSDK/lwip/lwip-2.1.2/src/core/ipv4\ip4_frag.c **** 
  46:C:/Users/stapi/OneDrive/Desktop/GD32VW553/GD32VW55X_Wifi_BLE_SDK/GD32VW55x_RELEASE_V1.0.2/MSDK/lwip/lwip-2.1.2/src/core/ipv4\ip4_frag.c **** #include "lwip/ip4_frag.h"
  47:C:/Users/stapi/OneDrive/Desktop/GD32VW553/GD32VW55X_Wifi_BLE_SDK/GD32VW55x_RELEASE_V1.0.2/MSDK/lwip/lwip-2.1.2/src/core/ipv4\ip4_frag.c **** #include "lwip/def.h"
  48:C:/Users/stapi/OneDrive/Desktop/GD32VW553/GD32VW55X_Wifi_BLE_SDK/GD32VW55x_RELEASE_V1.0.2/MSDK/lwip/lwip-2.1.2/src/core/ipv4\ip4_frag.c **** #include "lwip/inet_chksum.h"
  49:C:/Users/stapi/OneDrive/Desktop/GD32VW553/GD32VW55X_Wifi_BLE_SDK/GD32VW55x_RELEASE_V1.0.2/MSDK/lwip/lwip-2.1.2/src/core/ipv4\ip4_frag.c **** #include "lwip/netif.h"
  50:C:/Users/stapi/OneDrive/Desktop/GD32VW553/GD32VW55X_Wifi_BLE_SDK/GD32VW55x_RELEASE_V1.0.2/MSDK/lwip/lwip-2.1.2/src/core/ipv4\ip4_frag.c **** #include "lwip/stats.h"
  51:C:/Users/stapi/OneDrive/Desktop/GD32VW553/GD32VW55X_Wifi_BLE_SDK/GD32VW55x_RELEASE_V1.0.2/MSDK/lwip/lwip-2.1.2/src/core/ipv4\ip4_frag.c **** #include "lwip/icmp.h"
  52:C:/Users/stapi/OneDrive/Desktop/GD32VW553/GD32VW55X_Wifi_BLE_SDK/GD32VW55x_RELEASE_V1.0.2/MSDK/lwip/lwip-2.1.2/src/core/ipv4\ip4_frag.c **** 
  53:C:/Users/stapi/OneDrive/Desktop/GD32VW553/GD32VW55X_Wifi_BLE_SDK/GD32VW55x_RELEASE_V1.0.2/MSDK/lwip/lwip-2.1.2/src/core/ipv4\ip4_frag.c **** #include <string.h>
  54:C:/Users/stapi/OneDrive/Desktop/GD32VW553/GD32VW55X_Wifi_BLE_SDK/GD32VW55x_RELEASE_V1.0.2/MSDK/lwip/lwip-2.1.2/src/core/ipv4\ip4_frag.c **** 
  55:C:/Users/stapi/OneDrive/Desktop/GD32VW553/GD32VW55X_Wifi_BLE_SDK/GD32VW55x_RELEASE_V1.0.2/MSDK/lwip/lwip-2.1.2/src/core/ipv4\ip4_frag.c **** #if IP_REASSEMBLY
  56:C:/Users/stapi/OneDrive/Desktop/GD32VW553/GD32VW55X_Wifi_BLE_SDK/GD32VW55x_RELEASE_V1.0.2/MSDK/lwip/lwip-2.1.2/src/core/ipv4\ip4_frag.c **** /**
  57:C:/Users/stapi/OneDrive/Desktop/GD32VW553/GD32VW55X_Wifi_BLE_SDK/GD32VW55x_RELEASE_V1.0.2/MSDK/lwip/lwip-2.1.2/src/core/ipv4\ip4_frag.c ****  * The IP reassembly code currently has the following limitations:
  58:C:/Users/stapi/OneDrive/Desktop/GD32VW553/GD32VW55X_Wifi_BLE_SDK/GD32VW55x_RELEASE_V1.0.2/MSDK/lwip/lwip-2.1.2/src/core/ipv4\ip4_frag.c ****  * - IP header options are not supported
  59:C:/Users/stapi/OneDrive/Desktop/GD32VW553/GD32VW55X_Wifi_BLE_SDK/GD32VW55x_RELEASE_V1.0.2/MSDK/lwip/lwip-2.1.2/src/core/ipv4\ip4_frag.c ****  * - fragments must not overlap (e.g. due to different routes),
  60:C:/Users/stapi/OneDrive/Desktop/GD32VW553/GD32VW55X_Wifi_BLE_SDK/GD32VW55x_RELEASE_V1.0.2/MSDK/lwip/lwip-2.1.2/src/core/ipv4\ip4_frag.c ****  *   currently, overlapping or duplicate fragments are thrown away
  61:C:/Users/stapi/OneDrive/Desktop/GD32VW553/GD32VW55X_Wifi_BLE_SDK/GD32VW55x_RELEASE_V1.0.2/MSDK/lwip/lwip-2.1.2/src/core/ipv4\ip4_frag.c ****  *   if IP_REASS_CHECK_OVERLAP=1 (the default)!
  62:C:/Users/stapi/OneDrive/Desktop/GD32VW553/GD32VW55X_Wifi_BLE_SDK/GD32VW55x_RELEASE_V1.0.2/MSDK/lwip/lwip-2.1.2/src/core/ipv4\ip4_frag.c ****  *
  63:C:/Users/stapi/OneDrive/Desktop/GD32VW553/GD32VW55X_Wifi_BLE_SDK/GD32VW55x_RELEASE_V1.0.2/MSDK/lwip/lwip-2.1.2/src/core/ipv4\ip4_frag.c ****  * @todo: work with IP header options
  64:C:/Users/stapi/OneDrive/Desktop/GD32VW553/GD32VW55X_Wifi_BLE_SDK/GD32VW55x_RELEASE_V1.0.2/MSDK/lwip/lwip-2.1.2/src/core/ipv4\ip4_frag.c ****  */
  65:C:/Users/stapi/OneDrive/Desktop/GD32VW553/GD32VW55X_Wifi_BLE_SDK/GD32VW55x_RELEASE_V1.0.2/MSDK/lwip/lwip-2.1.2/src/core/ipv4\ip4_frag.c **** 
  66:C:/Users/stapi/OneDrive/Desktop/GD32VW553/GD32VW55X_Wifi_BLE_SDK/GD32VW55x_RELEASE_V1.0.2/MSDK/lwip/lwip-2.1.2/src/core/ipv4\ip4_frag.c **** /** Setting this to 0, you can turn off checking the fragments for overlapping
  67:C:/Users/stapi/OneDrive/Desktop/GD32VW553/GD32VW55X_Wifi_BLE_SDK/GD32VW55x_RELEASE_V1.0.2/MSDK/lwip/lwip-2.1.2/src/core/ipv4\ip4_frag.c ****  * regions. The code gets a little smaller. Only use this if you know that
  68:C:/Users/stapi/OneDrive/Desktop/GD32VW553/GD32VW55X_Wifi_BLE_SDK/GD32VW55x_RELEASE_V1.0.2/MSDK/lwip/lwip-2.1.2/src/core/ipv4\ip4_frag.c ****  * overlapping won't occur on your network! */
  69:C:/Users/stapi/OneDrive/Desktop/GD32VW553/GD32VW55X_Wifi_BLE_SDK/GD32VW55x_RELEASE_V1.0.2/MSDK/lwip/lwip-2.1.2/src/core/ipv4\ip4_frag.c **** #ifndef IP_REASS_CHECK_OVERLAP
  70:C:/Users/stapi/OneDrive/Desktop/GD32VW553/GD32VW55X_Wifi_BLE_SDK/GD32VW55x_RELEASE_V1.0.2/MSDK/lwip/lwip-2.1.2/src/core/ipv4\ip4_frag.c **** #define IP_REASS_CHECK_OVERLAP 1
  71:C:/Users/stapi/OneDrive/Desktop/GD32VW553/GD32VW55X_Wifi_BLE_SDK/GD32VW55x_RELEASE_V1.0.2/MSDK/lwip/lwip-2.1.2/src/core/ipv4\ip4_frag.c **** #endif /* IP_REASS_CHECK_OVERLAP */
  72:C:/Users/stapi/OneDrive/Desktop/GD32VW553/GD32VW55X_Wifi_BLE_SDK/GD32VW55x_RELEASE_V1.0.2/MSDK/lwip/lwip-2.1.2/src/core/ipv4\ip4_frag.c **** 
  73:C:/Users/stapi/OneDrive/Desktop/GD32VW553/GD32VW55X_Wifi_BLE_SDK/GD32VW55x_RELEASE_V1.0.2/MSDK/lwip/lwip-2.1.2/src/core/ipv4\ip4_frag.c **** /** Set to 0 to prevent freeing the oldest datagram when the reassembly buffer is
  74:C:/Users/stapi/OneDrive/Desktop/GD32VW553/GD32VW55X_Wifi_BLE_SDK/GD32VW55x_RELEASE_V1.0.2/MSDK/lwip/lwip-2.1.2/src/core/ipv4\ip4_frag.c ****  * full (IP_REASS_MAX_PBUFS pbufs are enqueued). The code gets a little smaller.
  75:C:/Users/stapi/OneDrive/Desktop/GD32VW553/GD32VW55X_Wifi_BLE_SDK/GD32VW55x_RELEASE_V1.0.2/MSDK/lwip/lwip-2.1.2/src/core/ipv4\ip4_frag.c ****  * Datagrams will be freed by timeout only. Especially useful when MEMP_NUM_REASSDATA
  76:C:/Users/stapi/OneDrive/Desktop/GD32VW553/GD32VW55X_Wifi_BLE_SDK/GD32VW55x_RELEASE_V1.0.2/MSDK/lwip/lwip-2.1.2/src/core/ipv4\ip4_frag.c ****  * is set to 1, so one datagram can be reassembled at a time, only. */
  77:C:/Users/stapi/OneDrive/Desktop/GD32VW553/GD32VW55X_Wifi_BLE_SDK/GD32VW55x_RELEASE_V1.0.2/MSDK/lwip/lwip-2.1.2/src/core/ipv4\ip4_frag.c **** #ifndef IP_REASS_FREE_OLDEST
  78:C:/Users/stapi/OneDrive/Desktop/GD32VW553/GD32VW55X_Wifi_BLE_SDK/GD32VW55x_RELEASE_V1.0.2/MSDK/lwip/lwip-2.1.2/src/core/ipv4\ip4_frag.c **** #define IP_REASS_FREE_OLDEST 1
  79:C:/Users/stapi/OneDrive/Desktop/GD32VW553/GD32VW55X_Wifi_BLE_SDK/GD32VW55x_RELEASE_V1.0.2/MSDK/lwip/lwip-2.1.2/src/core/ipv4\ip4_frag.c **** #endif /* IP_REASS_FREE_OLDEST */
  80:C:/Users/stapi/OneDrive/Desktop/GD32VW553/GD32VW55X_Wifi_BLE_SDK/GD32VW55x_RELEASE_V1.0.2/MSDK/lwip/lwip-2.1.2/src/core/ipv4\ip4_frag.c **** 
  81:C:/Users/stapi/OneDrive/Desktop/GD32VW553/GD32VW55X_Wifi_BLE_SDK/GD32VW55x_RELEASE_V1.0.2/MSDK/lwip/lwip-2.1.2/src/core/ipv4\ip4_frag.c **** #define IP_REASS_FLAG_LASTFRAG 0x01
  82:C:/Users/stapi/OneDrive/Desktop/GD32VW553/GD32VW55X_Wifi_BLE_SDK/GD32VW55x_RELEASE_V1.0.2/MSDK/lwip/lwip-2.1.2/src/core/ipv4\ip4_frag.c **** 
  83:C:/Users/stapi/OneDrive/Desktop/GD32VW553/GD32VW55X_Wifi_BLE_SDK/GD32VW55x_RELEASE_V1.0.2/MSDK/lwip/lwip-2.1.2/src/core/ipv4\ip4_frag.c **** #define IP_REASS_VALIDATE_TELEGRAM_FINISHED  1
  84:C:/Users/stapi/OneDrive/Desktop/GD32VW553/GD32VW55X_Wifi_BLE_SDK/GD32VW55x_RELEASE_V1.0.2/MSDK/lwip/lwip-2.1.2/src/core/ipv4\ip4_frag.c **** #define IP_REASS_VALIDATE_PBUF_QUEUED        0
  85:C:/Users/stapi/OneDrive/Desktop/GD32VW553/GD32VW55X_Wifi_BLE_SDK/GD32VW55x_RELEASE_V1.0.2/MSDK/lwip/lwip-2.1.2/src/core/ipv4\ip4_frag.c **** #define IP_REASS_VALIDATE_PBUF_DROPPED       -1
  86:C:/Users/stapi/OneDrive/Desktop/GD32VW553/GD32VW55X_Wifi_BLE_SDK/GD32VW55x_RELEASE_V1.0.2/MSDK/lwip/lwip-2.1.2/src/core/ipv4\ip4_frag.c **** 
  87:C:/Users/stapi/OneDrive/Desktop/GD32VW553/GD32VW55X_Wifi_BLE_SDK/GD32VW55x_RELEASE_V1.0.2/MSDK/lwip/lwip-2.1.2/src/core/ipv4\ip4_frag.c **** /** This is a helper struct which holds the starting
  88:C:/Users/stapi/OneDrive/Desktop/GD32VW553/GD32VW55X_Wifi_BLE_SDK/GD32VW55x_RELEASE_V1.0.2/MSDK/lwip/lwip-2.1.2/src/core/ipv4\ip4_frag.c ****  * offset and the ending offset of this fragment to
  89:C:/Users/stapi/OneDrive/Desktop/GD32VW553/GD32VW55X_Wifi_BLE_SDK/GD32VW55x_RELEASE_V1.0.2/MSDK/lwip/lwip-2.1.2/src/core/ipv4\ip4_frag.c ****  * easily chain the fragments.
  90:C:/Users/stapi/OneDrive/Desktop/GD32VW553/GD32VW55X_Wifi_BLE_SDK/GD32VW55x_RELEASE_V1.0.2/MSDK/lwip/lwip-2.1.2/src/core/ipv4\ip4_frag.c ****  * It has the same packing requirements as the IP header, since it replaces
  91:C:/Users/stapi/OneDrive/Desktop/GD32VW553/GD32VW55X_Wifi_BLE_SDK/GD32VW55x_RELEASE_V1.0.2/MSDK/lwip/lwip-2.1.2/src/core/ipv4\ip4_frag.c ****  * the IP header in memory in incoming fragments (after copying it) to keep
  92:C:/Users/stapi/OneDrive/Desktop/GD32VW553/GD32VW55X_Wifi_BLE_SDK/GD32VW55x_RELEASE_V1.0.2/MSDK/lwip/lwip-2.1.2/src/core/ipv4\ip4_frag.c ****  * track of the various fragments. (-> If the IP header doesn't need packing,
  93:C:/Users/stapi/OneDrive/Desktop/GD32VW553/GD32VW55X_Wifi_BLE_SDK/GD32VW55x_RELEASE_V1.0.2/MSDK/lwip/lwip-2.1.2/src/core/ipv4\ip4_frag.c ****  * this struct doesn't need packing, too.)
  94:C:/Users/stapi/OneDrive/Desktop/GD32VW553/GD32VW55X_Wifi_BLE_SDK/GD32VW55x_RELEASE_V1.0.2/MSDK/lwip/lwip-2.1.2/src/core/ipv4\ip4_frag.c ****  */
  95:C:/Users/stapi/OneDrive/Desktop/GD32VW553/GD32VW55X_Wifi_BLE_SDK/GD32VW55x_RELEASE_V1.0.2/MSDK/lwip/lwip-2.1.2/src/core/ipv4\ip4_frag.c **** #ifdef PACK_STRUCT_USE_INCLUDES
  96:C:/Users/stapi/OneDrive/Desktop/GD32VW553/GD32VW55X_Wifi_BLE_SDK/GD32VW55x_RELEASE_V1.0.2/MSDK/lwip/lwip-2.1.2/src/core/ipv4\ip4_frag.c **** #  include "arch/bpstruct.h"
  97:C:/Users/stapi/OneDrive/Desktop/GD32VW553/GD32VW55X_Wifi_BLE_SDK/GD32VW55x_RELEASE_V1.0.2/MSDK/lwip/lwip-2.1.2/src/core/ipv4\ip4_frag.c **** #endif
  98:C:/Users/stapi/OneDrive/Desktop/GD32VW553/GD32VW55X_Wifi_BLE_SDK/GD32VW55x_RELEASE_V1.0.2/MSDK/lwip/lwip-2.1.2/src/core/ipv4\ip4_frag.c **** PACK_STRUCT_BEGIN
  99:C:/Users/stapi/OneDrive/Desktop/GD32VW553/GD32VW55X_Wifi_BLE_SDK/GD32VW55x_RELEASE_V1.0.2/MSDK/lwip/lwip-2.1.2/src/core/ipv4\ip4_frag.c **** struct ip_reass_helper {
 100:C:/Users/stapi/OneDrive/Desktop/GD32VW553/GD32VW55X_Wifi_BLE_SDK/GD32VW55x_RELEASE_V1.0.2/MSDK/lwip/lwip-2.1.2/src/core/ipv4\ip4_frag.c ****   PACK_STRUCT_FIELD(struct pbuf *next_pbuf);
 101:C:/Users/stapi/OneDrive/Desktop/GD32VW553/GD32VW55X_Wifi_BLE_SDK/GD32VW55x_RELEASE_V1.0.2/MSDK/lwip/lwip-2.1.2/src/core/ipv4\ip4_frag.c ****   PACK_STRUCT_FIELD(u16_t start);
 102:C:/Users/stapi/OneDrive/Desktop/GD32VW553/GD32VW55X_Wifi_BLE_SDK/GD32VW55x_RELEASE_V1.0.2/MSDK/lwip/lwip-2.1.2/src/core/ipv4\ip4_frag.c ****   PACK_STRUCT_FIELD(u16_t end);
 103:C:/Users/stapi/OneDrive/Desktop/GD32VW553/GD32VW55X_Wifi_BLE_SDK/GD32VW55x_RELEASE_V1.0.2/MSDK/lwip/lwip-2.1.2/src/core/ipv4\ip4_frag.c **** } PACK_STRUCT_STRUCT;
 104:C:/Users/stapi/OneDrive/Desktop/GD32VW553/GD32VW55X_Wifi_BLE_SDK/GD32VW55x_RELEASE_V1.0.2/MSDK/lwip/lwip-2.1.2/src/core/ipv4\ip4_frag.c **** PACK_STRUCT_END
 105:C:/Users/stapi/OneDrive/Desktop/GD32VW553/GD32VW55X_Wifi_BLE_SDK/GD32VW55x_RELEASE_V1.0.2/MSDK/lwip/lwip-2.1.2/src/core/ipv4\ip4_frag.c **** #ifdef PACK_STRUCT_USE_INCLUDES
 106:C:/Users/stapi/OneDrive/Desktop/GD32VW553/GD32VW55X_Wifi_BLE_SDK/GD32VW55x_RELEASE_V1.0.2/MSDK/lwip/lwip-2.1.2/src/core/ipv4\ip4_frag.c **** #  include "arch/epstruct.h"
 107:C:/Users/stapi/OneDrive/Desktop/GD32VW553/GD32VW55X_Wifi_BLE_SDK/GD32VW55x_RELEASE_V1.0.2/MSDK/lwip/lwip-2.1.2/src/core/ipv4\ip4_frag.c **** #endif
 108:C:/Users/stapi/OneDrive/Desktop/GD32VW553/GD32VW55X_Wifi_BLE_SDK/GD32VW55x_RELEASE_V1.0.2/MSDK/lwip/lwip-2.1.2/src/core/ipv4\ip4_frag.c **** 
 109:C:/Users/stapi/OneDrive/Desktop/GD32VW553/GD32VW55X_Wifi_BLE_SDK/GD32VW55x_RELEASE_V1.0.2/MSDK/lwip/lwip-2.1.2/src/core/ipv4\ip4_frag.c **** #define IP_ADDRESSES_AND_ID_MATCH(iphdrA, iphdrB)  \
 110:C:/Users/stapi/OneDrive/Desktop/GD32VW553/GD32VW55X_Wifi_BLE_SDK/GD32VW55x_RELEASE_V1.0.2/MSDK/lwip/lwip-2.1.2/src/core/ipv4\ip4_frag.c ****   (ip4_addr_cmp(&(iphdrA)->src, &(iphdrB)->src) && \
 111:C:/Users/stapi/OneDrive/Desktop/GD32VW553/GD32VW55X_Wifi_BLE_SDK/GD32VW55x_RELEASE_V1.0.2/MSDK/lwip/lwip-2.1.2/src/core/ipv4\ip4_frag.c ****    ip4_addr_cmp(&(iphdrA)->dest, &(iphdrB)->dest) && \
 112:C:/Users/stapi/OneDrive/Desktop/GD32VW553/GD32VW55X_Wifi_BLE_SDK/GD32VW55x_RELEASE_V1.0.2/MSDK/lwip/lwip-2.1.2/src/core/ipv4\ip4_frag.c ****    IPH_ID(iphdrA) == IPH_ID(iphdrB)) ? 1 : 0
 113:C:/Users/stapi/OneDrive/Desktop/GD32VW553/GD32VW55X_Wifi_BLE_SDK/GD32VW55x_RELEASE_V1.0.2/MSDK/lwip/lwip-2.1.2/src/core/ipv4\ip4_frag.c **** 
 114:C:/Users/stapi/OneDrive/Desktop/GD32VW553/GD32VW55X_Wifi_BLE_SDK/GD32VW55x_RELEASE_V1.0.2/MSDK/lwip/lwip-2.1.2/src/core/ipv4\ip4_frag.c **** /* global variables */
 115:C:/Users/stapi/OneDrive/Desktop/GD32VW553/GD32VW55X_Wifi_BLE_SDK/GD32VW55x_RELEASE_V1.0.2/MSDK/lwip/lwip-2.1.2/src/core/ipv4\ip4_frag.c **** static struct ip_reassdata *reassdatagrams;
 116:C:/Users/stapi/OneDrive/Desktop/GD32VW553/GD32VW55X_Wifi_BLE_SDK/GD32VW55x_RELEASE_V1.0.2/MSDK/lwip/lwip-2.1.2/src/core/ipv4\ip4_frag.c **** static u16_t ip_reass_pbufcount;
 117:C:/Users/stapi/OneDrive/Desktop/GD32VW553/GD32VW55X_Wifi_BLE_SDK/GD32VW55x_RELEASE_V1.0.2/MSDK/lwip/lwip-2.1.2/src/core/ipv4\ip4_frag.c **** 
 118:C:/Users/stapi/OneDrive/Desktop/GD32VW553/GD32VW55X_Wifi_BLE_SDK/GD32VW55x_RELEASE_V1.0.2/MSDK/lwip/lwip-2.1.2/src/core/ipv4\ip4_frag.c **** /* function prototypes */
 119:C:/Users/stapi/OneDrive/Desktop/GD32VW553/GD32VW55X_Wifi_BLE_SDK/GD32VW55x_RELEASE_V1.0.2/MSDK/lwip/lwip-2.1.2/src/core/ipv4\ip4_frag.c **** static void ip_reass_dequeue_datagram(struct ip_reassdata *ipr, struct ip_reassdata *prev);
 120:C:/Users/stapi/OneDrive/Desktop/GD32VW553/GD32VW55X_Wifi_BLE_SDK/GD32VW55x_RELEASE_V1.0.2/MSDK/lwip/lwip-2.1.2/src/core/ipv4\ip4_frag.c **** static int ip_reass_free_complete_datagram(struct ip_reassdata *ipr, struct ip_reassdata *prev);
 121:C:/Users/stapi/OneDrive/Desktop/GD32VW553/GD32VW55X_Wifi_BLE_SDK/GD32VW55x_RELEASE_V1.0.2/MSDK/lwip/lwip-2.1.2/src/core/ipv4\ip4_frag.c **** 
 122:C:/Users/stapi/OneDrive/Desktop/GD32VW553/GD32VW55X_Wifi_BLE_SDK/GD32VW55x_RELEASE_V1.0.2/MSDK/lwip/lwip-2.1.2/src/core/ipv4\ip4_frag.c **** /**
 123:C:/Users/stapi/OneDrive/Desktop/GD32VW553/GD32VW55X_Wifi_BLE_SDK/GD32VW55x_RELEASE_V1.0.2/MSDK/lwip/lwip-2.1.2/src/core/ipv4\ip4_frag.c ****  * Reassembly timer base function
 124:C:/Users/stapi/OneDrive/Desktop/GD32VW553/GD32VW55X_Wifi_BLE_SDK/GD32VW55x_RELEASE_V1.0.2/MSDK/lwip/lwip-2.1.2/src/core/ipv4\ip4_frag.c ****  * for both NO_SYS == 0 and 1 (!).
 125:C:/Users/stapi/OneDrive/Desktop/GD32VW553/GD32VW55X_Wifi_BLE_SDK/GD32VW55x_RELEASE_V1.0.2/MSDK/lwip/lwip-2.1.2/src/core/ipv4\ip4_frag.c ****  *
 126:C:/Users/stapi/OneDrive/Desktop/GD32VW553/GD32VW55X_Wifi_BLE_SDK/GD32VW55x_RELEASE_V1.0.2/MSDK/lwip/lwip-2.1.2/src/core/ipv4\ip4_frag.c ****  * Should be called every 1000 msec (defined by IP_TMR_INTERVAL).
 127:C:/Users/stapi/OneDrive/Desktop/GD32VW553/GD32VW55X_Wifi_BLE_SDK/GD32VW55x_RELEASE_V1.0.2/MSDK/lwip/lwip-2.1.2/src/core/ipv4\ip4_frag.c ****  */
 128:C:/Users/stapi/OneDrive/Desktop/GD32VW553/GD32VW55X_Wifi_BLE_SDK/GD32VW55x_RELEASE_V1.0.2/MSDK/lwip/lwip-2.1.2/src/core/ipv4\ip4_frag.c **** void
 129:C:/Users/stapi/OneDrive/Desktop/GD32VW553/GD32VW55X_Wifi_BLE_SDK/GD32VW55x_RELEASE_V1.0.2/MSDK/lwip/lwip-2.1.2/src/core/ipv4\ip4_frag.c **** ip_reass_tmr(void)
 130:C:/Users/stapi/OneDrive/Desktop/GD32VW553/GD32VW55X_Wifi_BLE_SDK/GD32VW55x_RELEASE_V1.0.2/MSDK/lwip/lwip-2.1.2/src/core/ipv4\ip4_frag.c **** {
 131:C:/Users/stapi/OneDrive/Desktop/GD32VW553/GD32VW55X_Wifi_BLE_SDK/GD32VW55x_RELEASE_V1.0.2/MSDK/lwip/lwip-2.1.2/src/core/ipv4\ip4_frag.c ****   struct ip_reassdata *r, *prev = NULL;
 132:C:/Users/stapi/OneDrive/Desktop/GD32VW553/GD32VW55X_Wifi_BLE_SDK/GD32VW55x_RELEASE_V1.0.2/MSDK/lwip/lwip-2.1.2/src/core/ipv4\ip4_frag.c **** 
 133:C:/Users/stapi/OneDrive/Desktop/GD32VW553/GD32VW55X_Wifi_BLE_SDK/GD32VW55x_RELEASE_V1.0.2/MSDK/lwip/lwip-2.1.2/src/core/ipv4\ip4_frag.c ****   r = reassdatagrams;
 134:C:/Users/stapi/OneDrive/Desktop/GD32VW553/GD32VW55X_Wifi_BLE_SDK/GD32VW55x_RELEASE_V1.0.2/MSDK/lwip/lwip-2.1.2/src/core/ipv4\ip4_frag.c ****   while (r != NULL) {
 135:C:/Users/stapi/OneDrive/Desktop/GD32VW553/GD32VW55X_Wifi_BLE_SDK/GD32VW55x_RELEASE_V1.0.2/MSDK/lwip/lwip-2.1.2/src/core/ipv4\ip4_frag.c ****     /* Decrement the timer. Once it reaches 0,
 136:C:/Users/stapi/OneDrive/Desktop/GD32VW553/GD32VW55X_Wifi_BLE_SDK/GD32VW55x_RELEASE_V1.0.2/MSDK/lwip/lwip-2.1.2/src/core/ipv4\ip4_frag.c ****      * clean up the incomplete fragment assembly */
 137:C:/Users/stapi/OneDrive/Desktop/GD32VW553/GD32VW55X_Wifi_BLE_SDK/GD32VW55x_RELEASE_V1.0.2/MSDK/lwip/lwip-2.1.2/src/core/ipv4\ip4_frag.c ****     if (r->timer > 0) {
 138:C:/Users/stapi/OneDrive/Desktop/GD32VW553/GD32VW55X_Wifi_BLE_SDK/GD32VW55x_RELEASE_V1.0.2/MSDK/lwip/lwip-2.1.2/src/core/ipv4\ip4_frag.c ****       r->timer--;
 139:C:/Users/stapi/OneDrive/Desktop/GD32VW553/GD32VW55X_Wifi_BLE_SDK/GD32VW55x_RELEASE_V1.0.2/MSDK/lwip/lwip-2.1.2/src/core/ipv4\ip4_frag.c ****       LWIP_DEBUGF(IP_REASS_DEBUG, ("ip_reass_tmr: timer dec %"U16_F"\n", (u16_t)r->timer));
 140:C:/Users/stapi/OneDrive/Desktop/GD32VW553/GD32VW55X_Wifi_BLE_SDK/GD32VW55x_RELEASE_V1.0.2/MSDK/lwip/lwip-2.1.2/src/core/ipv4\ip4_frag.c ****       prev = r;
 141:C:/Users/stapi/OneDrive/Desktop/GD32VW553/GD32VW55X_Wifi_BLE_SDK/GD32VW55x_RELEASE_V1.0.2/MSDK/lwip/lwip-2.1.2/src/core/ipv4\ip4_frag.c ****       r = r->next;
 142:C:/Users/stapi/OneDrive/Desktop/GD32VW553/GD32VW55X_Wifi_BLE_SDK/GD32VW55x_RELEASE_V1.0.2/MSDK/lwip/lwip-2.1.2/src/core/ipv4\ip4_frag.c ****     } else {
 143:C:/Users/stapi/OneDrive/Desktop/GD32VW553/GD32VW55X_Wifi_BLE_SDK/GD32VW55x_RELEASE_V1.0.2/MSDK/lwip/lwip-2.1.2/src/core/ipv4\ip4_frag.c ****       /* reassembly timed out */
 144:C:/Users/stapi/OneDrive/Desktop/GD32VW553/GD32VW55X_Wifi_BLE_SDK/GD32VW55x_RELEASE_V1.0.2/MSDK/lwip/lwip-2.1.2/src/core/ipv4\ip4_frag.c ****       struct ip_reassdata *tmp;
 145:C:/Users/stapi/OneDrive/Desktop/GD32VW553/GD32VW55X_Wifi_BLE_SDK/GD32VW55x_RELEASE_V1.0.2/MSDK/lwip/lwip-2.1.2/src/core/ipv4\ip4_frag.c ****       LWIP_DEBUGF(IP_REASS_DEBUG, ("ip_reass_tmr: timer timed out\n"));
 146:C:/Users/stapi/OneDrive/Desktop/GD32VW553/GD32VW55X_Wifi_BLE_SDK/GD32VW55x_RELEASE_V1.0.2/MSDK/lwip/lwip-2.1.2/src/core/ipv4\ip4_frag.c ****       tmp = r;
 147:C:/Users/stapi/OneDrive/Desktop/GD32VW553/GD32VW55X_Wifi_BLE_SDK/GD32VW55x_RELEASE_V1.0.2/MSDK/lwip/lwip-2.1.2/src/core/ipv4\ip4_frag.c ****       /* get the next pointer before freeing */
 148:C:/Users/stapi/OneDrive/Desktop/GD32VW553/GD32VW55X_Wifi_BLE_SDK/GD32VW55x_RELEASE_V1.0.2/MSDK/lwip/lwip-2.1.2/src/core/ipv4\ip4_frag.c ****       r = r->next;
 149:C:/Users/stapi/OneDrive/Desktop/GD32VW553/GD32VW55X_Wifi_BLE_SDK/GD32VW55x_RELEASE_V1.0.2/MSDK/lwip/lwip-2.1.2/src/core/ipv4\ip4_frag.c ****       /* free the helper struct and all enqueued pbufs */
 150:C:/Users/stapi/OneDrive/Desktop/GD32VW553/GD32VW55X_Wifi_BLE_SDK/GD32VW55x_RELEASE_V1.0.2/MSDK/lwip/lwip-2.1.2/src/core/ipv4\ip4_frag.c ****       ip_reass_free_complete_datagram(tmp, prev);
 151:C:/Users/stapi/OneDrive/Desktop/GD32VW553/GD32VW55X_Wifi_BLE_SDK/GD32VW55x_RELEASE_V1.0.2/MSDK/lwip/lwip-2.1.2/src/core/ipv4\ip4_frag.c ****     }
 152:C:/Users/stapi/OneDrive/Desktop/GD32VW553/GD32VW55X_Wifi_BLE_SDK/GD32VW55x_RELEASE_V1.0.2/MSDK/lwip/lwip-2.1.2/src/core/ipv4\ip4_frag.c ****   }
 153:C:/Users/stapi/OneDrive/Desktop/GD32VW553/GD32VW55X_Wifi_BLE_SDK/GD32VW55x_RELEASE_V1.0.2/MSDK/lwip/lwip-2.1.2/src/core/ipv4\ip4_frag.c **** }
 154:C:/Users/stapi/OneDrive/Desktop/GD32VW553/GD32VW55X_Wifi_BLE_SDK/GD32VW55x_RELEASE_V1.0.2/MSDK/lwip/lwip-2.1.2/src/core/ipv4\ip4_frag.c **** 
 155:C:/Users/stapi/OneDrive/Desktop/GD32VW553/GD32VW55X_Wifi_BLE_SDK/GD32VW55x_RELEASE_V1.0.2/MSDK/lwip/lwip-2.1.2/src/core/ipv4\ip4_frag.c **** /**
 156:C:/Users/stapi/OneDrive/Desktop/GD32VW553/GD32VW55X_Wifi_BLE_SDK/GD32VW55x_RELEASE_V1.0.2/MSDK/lwip/lwip-2.1.2/src/core/ipv4\ip4_frag.c ****  * Free a datagram (struct ip_reassdata) and all its pbufs.
 157:C:/Users/stapi/OneDrive/Desktop/GD32VW553/GD32VW55X_Wifi_BLE_SDK/GD32VW55x_RELEASE_V1.0.2/MSDK/lwip/lwip-2.1.2/src/core/ipv4\ip4_frag.c ****  * Updates the total count of enqueued pbufs (ip_reass_pbufcount),
 158:C:/Users/stapi/OneDrive/Desktop/GD32VW553/GD32VW55X_Wifi_BLE_SDK/GD32VW55x_RELEASE_V1.0.2/MSDK/lwip/lwip-2.1.2/src/core/ipv4\ip4_frag.c ****  * SNMP counters and sends an ICMP time exceeded packet.
 159:C:/Users/stapi/OneDrive/Desktop/GD32VW553/GD32VW55X_Wifi_BLE_SDK/GD32VW55x_RELEASE_V1.0.2/MSDK/lwip/lwip-2.1.2/src/core/ipv4\ip4_frag.c ****  *
 160:C:/Users/stapi/OneDrive/Desktop/GD32VW553/GD32VW55X_Wifi_BLE_SDK/GD32VW55x_RELEASE_V1.0.2/MSDK/lwip/lwip-2.1.2/src/core/ipv4\ip4_frag.c ****  * @param ipr datagram to free
 161:C:/Users/stapi/OneDrive/Desktop/GD32VW553/GD32VW55X_Wifi_BLE_SDK/GD32VW55x_RELEASE_V1.0.2/MSDK/lwip/lwip-2.1.2/src/core/ipv4\ip4_frag.c ****  * @param prev the previous datagram in the linked list
 162:C:/Users/stapi/OneDrive/Desktop/GD32VW553/GD32VW55X_Wifi_BLE_SDK/GD32VW55x_RELEASE_V1.0.2/MSDK/lwip/lwip-2.1.2/src/core/ipv4\ip4_frag.c ****  * @return the number of pbufs freed
 163:C:/Users/stapi/OneDrive/Desktop/GD32VW553/GD32VW55X_Wifi_BLE_SDK/GD32VW55x_RELEASE_V1.0.2/MSDK/lwip/lwip-2.1.2/src/core/ipv4\ip4_frag.c ****  */
 164:C:/Users/stapi/OneDrive/Desktop/GD32VW553/GD32VW55X_Wifi_BLE_SDK/GD32VW55x_RELEASE_V1.0.2/MSDK/lwip/lwip-2.1.2/src/core/ipv4\ip4_frag.c **** static int
 165:C:/Users/stapi/OneDrive/Desktop/GD32VW553/GD32VW55X_Wifi_BLE_SDK/GD32VW55x_RELEASE_V1.0.2/MSDK/lwip/lwip-2.1.2/src/core/ipv4\ip4_frag.c **** ip_reass_free_complete_datagram(struct ip_reassdata *ipr, struct ip_reassdata *prev)
 166:C:/Users/stapi/OneDrive/Desktop/GD32VW553/GD32VW55X_Wifi_BLE_SDK/GD32VW55x_RELEASE_V1.0.2/MSDK/lwip/lwip-2.1.2/src/core/ipv4\ip4_frag.c **** {
 167:C:/Users/stapi/OneDrive/Desktop/GD32VW553/GD32VW55X_Wifi_BLE_SDK/GD32VW55x_RELEASE_V1.0.2/MSDK/lwip/lwip-2.1.2/src/core/ipv4\ip4_frag.c ****   u16_t pbufs_freed = 0;
 168:C:/Users/stapi/OneDrive/Desktop/GD32VW553/GD32VW55X_Wifi_BLE_SDK/GD32VW55x_RELEASE_V1.0.2/MSDK/lwip/lwip-2.1.2/src/core/ipv4\ip4_frag.c ****   u16_t clen;
 169:C:/Users/stapi/OneDrive/Desktop/GD32VW553/GD32VW55X_Wifi_BLE_SDK/GD32VW55x_RELEASE_V1.0.2/MSDK/lwip/lwip-2.1.2/src/core/ipv4\ip4_frag.c ****   struct pbuf *p;
 170:C:/Users/stapi/OneDrive/Desktop/GD32VW553/GD32VW55X_Wifi_BLE_SDK/GD32VW55x_RELEASE_V1.0.2/MSDK/lwip/lwip-2.1.2/src/core/ipv4\ip4_frag.c ****   struct ip_reass_helper *iprh;
 171:C:/Users/stapi/OneDrive/Desktop/GD32VW553/GD32VW55X_Wifi_BLE_SDK/GD32VW55x_RELEASE_V1.0.2/MSDK/lwip/lwip-2.1.2/src/core/ipv4\ip4_frag.c **** 
 172:C:/Users/stapi/OneDrive/Desktop/GD32VW553/GD32VW55X_Wifi_BLE_SDK/GD32VW55x_RELEASE_V1.0.2/MSDK/lwip/lwip-2.1.2/src/core/ipv4\ip4_frag.c ****   LWIP_ASSERT("prev != ipr", prev != ipr);
 173:C:/Users/stapi/OneDrive/Desktop/GD32VW553/GD32VW55X_Wifi_BLE_SDK/GD32VW55x_RELEASE_V1.0.2/MSDK/lwip/lwip-2.1.2/src/core/ipv4\ip4_frag.c ****   if (prev != NULL) {
 174:C:/Users/stapi/OneDrive/Desktop/GD32VW553/GD32VW55X_Wifi_BLE_SDK/GD32VW55x_RELEASE_V1.0.2/MSDK/lwip/lwip-2.1.2/src/core/ipv4\ip4_frag.c ****     LWIP_ASSERT("prev->next == ipr", prev->next == ipr);
 175:C:/Users/stapi/OneDrive/Desktop/GD32VW553/GD32VW55X_Wifi_BLE_SDK/GD32VW55x_RELEASE_V1.0.2/MSDK/lwip/lwip-2.1.2/src/core/ipv4\ip4_frag.c ****   }
 176:C:/Users/stapi/OneDrive/Desktop/GD32VW553/GD32VW55X_Wifi_BLE_SDK/GD32VW55x_RELEASE_V1.0.2/MSDK/lwip/lwip-2.1.2/src/core/ipv4\ip4_frag.c **** 
 177:C:/Users/stapi/OneDrive/Desktop/GD32VW553/GD32VW55X_Wifi_BLE_SDK/GD32VW55x_RELEASE_V1.0.2/MSDK/lwip/lwip-2.1.2/src/core/ipv4\ip4_frag.c ****   MIB2_STATS_INC(mib2.ipreasmfails);
 178:C:/Users/stapi/OneDrive/Desktop/GD32VW553/GD32VW55X_Wifi_BLE_SDK/GD32VW55x_RELEASE_V1.0.2/MSDK/lwip/lwip-2.1.2/src/core/ipv4\ip4_frag.c **** #if LWIP_ICMP
 179:C:/Users/stapi/OneDrive/Desktop/GD32VW553/GD32VW55X_Wifi_BLE_SDK/GD32VW55x_RELEASE_V1.0.2/MSDK/lwip/lwip-2.1.2/src/core/ipv4\ip4_frag.c ****   iprh = (struct ip_reass_helper *)ipr->p->payload;
 180:C:/Users/stapi/OneDrive/Desktop/GD32VW553/GD32VW55X_Wifi_BLE_SDK/GD32VW55x_RELEASE_V1.0.2/MSDK/lwip/lwip-2.1.2/src/core/ipv4\ip4_frag.c ****   if (iprh->start == 0) {
 181:C:/Users/stapi/OneDrive/Desktop/GD32VW553/GD32VW55X_Wifi_BLE_SDK/GD32VW55x_RELEASE_V1.0.2/MSDK/lwip/lwip-2.1.2/src/core/ipv4\ip4_frag.c ****     /* The first fragment was received, send ICMP time exceeded. */
 182:C:/Users/stapi/OneDrive/Desktop/GD32VW553/GD32VW55X_Wifi_BLE_SDK/GD32VW55x_RELEASE_V1.0.2/MSDK/lwip/lwip-2.1.2/src/core/ipv4\ip4_frag.c ****     /* First, de-queue the first pbuf from r->p. */
 183:C:/Users/stapi/OneDrive/Desktop/GD32VW553/GD32VW55X_Wifi_BLE_SDK/GD32VW55x_RELEASE_V1.0.2/MSDK/lwip/lwip-2.1.2/src/core/ipv4\ip4_frag.c ****     p = ipr->p;
 184:C:/Users/stapi/OneDrive/Desktop/GD32VW553/GD32VW55X_Wifi_BLE_SDK/GD32VW55x_RELEASE_V1.0.2/MSDK/lwip/lwip-2.1.2/src/core/ipv4\ip4_frag.c ****     ipr->p = iprh->next_pbuf;
 185:C:/Users/stapi/OneDrive/Desktop/GD32VW553/GD32VW55X_Wifi_BLE_SDK/GD32VW55x_RELEASE_V1.0.2/MSDK/lwip/lwip-2.1.2/src/core/ipv4\ip4_frag.c ****     /* Then, copy the original header into it. */
 186:C:/Users/stapi/OneDrive/Desktop/GD32VW553/GD32VW55X_Wifi_BLE_SDK/GD32VW55x_RELEASE_V1.0.2/MSDK/lwip/lwip-2.1.2/src/core/ipv4\ip4_frag.c ****     SMEMCPY(p->payload, &ipr->iphdr, IP_HLEN);
 187:C:/Users/stapi/OneDrive/Desktop/GD32VW553/GD32VW55X_Wifi_BLE_SDK/GD32VW55x_RELEASE_V1.0.2/MSDK/lwip/lwip-2.1.2/src/core/ipv4\ip4_frag.c ****     icmp_time_exceeded(p, ICMP_TE_FRAG);
 188:C:/Users/stapi/OneDrive/Desktop/GD32VW553/GD32VW55X_Wifi_BLE_SDK/GD32VW55x_RELEASE_V1.0.2/MSDK/lwip/lwip-2.1.2/src/core/ipv4\ip4_frag.c ****     clen = pbuf_clen(p);
 189:C:/Users/stapi/OneDrive/Desktop/GD32VW553/GD32VW55X_Wifi_BLE_SDK/GD32VW55x_RELEASE_V1.0.2/MSDK/lwip/lwip-2.1.2/src/core/ipv4\ip4_frag.c ****     LWIP_ASSERT("pbufs_freed + clen <= 0xffff", pbufs_freed + clen <= 0xffff);
 190:C:/Users/stapi/OneDrive/Desktop/GD32VW553/GD32VW55X_Wifi_BLE_SDK/GD32VW55x_RELEASE_V1.0.2/MSDK/lwip/lwip-2.1.2/src/core/ipv4\ip4_frag.c ****     pbufs_freed = (u16_t)(pbufs_freed + clen);
 191:C:/Users/stapi/OneDrive/Desktop/GD32VW553/GD32VW55X_Wifi_BLE_SDK/GD32VW55x_RELEASE_V1.0.2/MSDK/lwip/lwip-2.1.2/src/core/ipv4\ip4_frag.c ****     pbuf_free(p);
 192:C:/Users/stapi/OneDrive/Desktop/GD32VW553/GD32VW55X_Wifi_BLE_SDK/GD32VW55x_RELEASE_V1.0.2/MSDK/lwip/lwip-2.1.2/src/core/ipv4\ip4_frag.c ****   }
 193:C:/Users/stapi/OneDrive/Desktop/GD32VW553/GD32VW55X_Wifi_BLE_SDK/GD32VW55x_RELEASE_V1.0.2/MSDK/lwip/lwip-2.1.2/src/core/ipv4\ip4_frag.c **** #endif /* LWIP_ICMP */
 194:C:/Users/stapi/OneDrive/Desktop/GD32VW553/GD32VW55X_Wifi_BLE_SDK/GD32VW55x_RELEASE_V1.0.2/MSDK/lwip/lwip-2.1.2/src/core/ipv4\ip4_frag.c **** 
 195:C:/Users/stapi/OneDrive/Desktop/GD32VW553/GD32VW55X_Wifi_BLE_SDK/GD32VW55x_RELEASE_V1.0.2/MSDK/lwip/lwip-2.1.2/src/core/ipv4\ip4_frag.c ****   /* First, free all received pbufs.  The individual pbufs need to be released
 196:C:/Users/stapi/OneDrive/Desktop/GD32VW553/GD32VW55X_Wifi_BLE_SDK/GD32VW55x_RELEASE_V1.0.2/MSDK/lwip/lwip-2.1.2/src/core/ipv4\ip4_frag.c ****      separately as they have not yet been chained */
 197:C:/Users/stapi/OneDrive/Desktop/GD32VW553/GD32VW55X_Wifi_BLE_SDK/GD32VW55x_RELEASE_V1.0.2/MSDK/lwip/lwip-2.1.2/src/core/ipv4\ip4_frag.c ****   p = ipr->p;
 198:C:/Users/stapi/OneDrive/Desktop/GD32VW553/GD32VW55X_Wifi_BLE_SDK/GD32VW55x_RELEASE_V1.0.2/MSDK/lwip/lwip-2.1.2/src/core/ipv4\ip4_frag.c ****   while (p != NULL) {
 199:C:/Users/stapi/OneDrive/Desktop/GD32VW553/GD32VW55X_Wifi_BLE_SDK/GD32VW55x_RELEASE_V1.0.2/MSDK/lwip/lwip-2.1.2/src/core/ipv4\ip4_frag.c ****     struct pbuf *pcur;
 200:C:/Users/stapi/OneDrive/Desktop/GD32VW553/GD32VW55X_Wifi_BLE_SDK/GD32VW55x_RELEASE_V1.0.2/MSDK/lwip/lwip-2.1.2/src/core/ipv4\ip4_frag.c ****     iprh = (struct ip_reass_helper *)p->payload;
 201:C:/Users/stapi/OneDrive/Desktop/GD32VW553/GD32VW55X_Wifi_BLE_SDK/GD32VW55x_RELEASE_V1.0.2/MSDK/lwip/lwip-2.1.2/src/core/ipv4\ip4_frag.c ****     pcur = p;
 202:C:/Users/stapi/OneDrive/Desktop/GD32VW553/GD32VW55X_Wifi_BLE_SDK/GD32VW55x_RELEASE_V1.0.2/MSDK/lwip/lwip-2.1.2/src/core/ipv4\ip4_frag.c ****     /* get the next pointer before freeing */
 203:C:/Users/stapi/OneDrive/Desktop/GD32VW553/GD32VW55X_Wifi_BLE_SDK/GD32VW55x_RELEASE_V1.0.2/MSDK/lwip/lwip-2.1.2/src/core/ipv4\ip4_frag.c ****     p = iprh->next_pbuf;
 204:C:/Users/stapi/OneDrive/Desktop/GD32VW553/GD32VW55X_Wifi_BLE_SDK/GD32VW55x_RELEASE_V1.0.2/MSDK/lwip/lwip-2.1.2/src/core/ipv4\ip4_frag.c ****     clen = pbuf_clen(pcur);
 205:C:/Users/stapi/OneDrive/Desktop/GD32VW553/GD32VW55X_Wifi_BLE_SDK/GD32VW55x_RELEASE_V1.0.2/MSDK/lwip/lwip-2.1.2/src/core/ipv4\ip4_frag.c ****     LWIP_ASSERT("pbufs_freed + clen <= 0xffff", pbufs_freed + clen <= 0xffff);
 206:C:/Users/stapi/OneDrive/Desktop/GD32VW553/GD32VW55X_Wifi_BLE_SDK/GD32VW55x_RELEASE_V1.0.2/MSDK/lwip/lwip-2.1.2/src/core/ipv4\ip4_frag.c ****     pbufs_freed = (u16_t)(pbufs_freed + clen);
 207:C:/Users/stapi/OneDrive/Desktop/GD32VW553/GD32VW55X_Wifi_BLE_SDK/GD32VW55x_RELEASE_V1.0.2/MSDK/lwip/lwip-2.1.2/src/core/ipv4\ip4_frag.c ****     pbuf_free(pcur);
 208:C:/Users/stapi/OneDrive/Desktop/GD32VW553/GD32VW55X_Wifi_BLE_SDK/GD32VW55x_RELEASE_V1.0.2/MSDK/lwip/lwip-2.1.2/src/core/ipv4\ip4_frag.c ****   }
 209:C:/Users/stapi/OneDrive/Desktop/GD32VW553/GD32VW55X_Wifi_BLE_SDK/GD32VW55x_RELEASE_V1.0.2/MSDK/lwip/lwip-2.1.2/src/core/ipv4\ip4_frag.c ****   /* Then, unchain the struct ip_reassdata from the list and free it. */
 210:C:/Users/stapi/OneDrive/Desktop/GD32VW553/GD32VW55X_Wifi_BLE_SDK/GD32VW55x_RELEASE_V1.0.2/MSDK/lwip/lwip-2.1.2/src/core/ipv4\ip4_frag.c ****   ip_reass_dequeue_datagram(ipr, prev);
 211:C:/Users/stapi/OneDrive/Desktop/GD32VW553/GD32VW55X_Wifi_BLE_SDK/GD32VW55x_RELEASE_V1.0.2/MSDK/lwip/lwip-2.1.2/src/core/ipv4\ip4_frag.c ****   LWIP_ASSERT("ip_reass_pbufcount >= pbufs_freed", ip_reass_pbufcount >= pbufs_freed);
 212:C:/Users/stapi/OneDrive/Desktop/GD32VW553/GD32VW55X_Wifi_BLE_SDK/GD32VW55x_RELEASE_V1.0.2/MSDK/lwip/lwip-2.1.2/src/core/ipv4\ip4_frag.c ****   ip_reass_pbufcount = (u16_t)(ip_reass_pbufcount - pbufs_freed);
 213:C:/Users/stapi/OneDrive/Desktop/GD32VW553/GD32VW55X_Wifi_BLE_SDK/GD32VW55x_RELEASE_V1.0.2/MSDK/lwip/lwip-2.1.2/src/core/ipv4\ip4_frag.c **** 
 214:C:/Users/stapi/OneDrive/Desktop/GD32VW553/GD32VW55X_Wifi_BLE_SDK/GD32VW55x_RELEASE_V1.0.2/MSDK/lwip/lwip-2.1.2/src/core/ipv4\ip4_frag.c ****   return pbufs_freed;
 215:C:/Users/stapi/OneDrive/Desktop/GD32VW553/GD32VW55X_Wifi_BLE_SDK/GD32VW55x_RELEASE_V1.0.2/MSDK/lwip/lwip-2.1.2/src/core/ipv4\ip4_frag.c **** }
 216:C:/Users/stapi/OneDrive/Desktop/GD32VW553/GD32VW55X_Wifi_BLE_SDK/GD32VW55x_RELEASE_V1.0.2/MSDK/lwip/lwip-2.1.2/src/core/ipv4\ip4_frag.c **** 
 217:C:/Users/stapi/OneDrive/Desktop/GD32VW553/GD32VW55X_Wifi_BLE_SDK/GD32VW55x_RELEASE_V1.0.2/MSDK/lwip/lwip-2.1.2/src/core/ipv4\ip4_frag.c **** #if IP_REASS_FREE_OLDEST
 218:C:/Users/stapi/OneDrive/Desktop/GD32VW553/GD32VW55X_Wifi_BLE_SDK/GD32VW55x_RELEASE_V1.0.2/MSDK/lwip/lwip-2.1.2/src/core/ipv4\ip4_frag.c **** /**
 219:C:/Users/stapi/OneDrive/Desktop/GD32VW553/GD32VW55X_Wifi_BLE_SDK/GD32VW55x_RELEASE_V1.0.2/MSDK/lwip/lwip-2.1.2/src/core/ipv4\ip4_frag.c ****  * Free the oldest datagram to make room for enqueueing new fragments.
 220:C:/Users/stapi/OneDrive/Desktop/GD32VW553/GD32VW55X_Wifi_BLE_SDK/GD32VW55x_RELEASE_V1.0.2/MSDK/lwip/lwip-2.1.2/src/core/ipv4\ip4_frag.c ****  * The datagram 'fraghdr' belongs to is not freed!
 221:C:/Users/stapi/OneDrive/Desktop/GD32VW553/GD32VW55X_Wifi_BLE_SDK/GD32VW55x_RELEASE_V1.0.2/MSDK/lwip/lwip-2.1.2/src/core/ipv4\ip4_frag.c ****  *
 222:C:/Users/stapi/OneDrive/Desktop/GD32VW553/GD32VW55X_Wifi_BLE_SDK/GD32VW55x_RELEASE_V1.0.2/MSDK/lwip/lwip-2.1.2/src/core/ipv4\ip4_frag.c ****  * @param fraghdr IP header of the current fragment
 223:C:/Users/stapi/OneDrive/Desktop/GD32VW553/GD32VW55X_Wifi_BLE_SDK/GD32VW55x_RELEASE_V1.0.2/MSDK/lwip/lwip-2.1.2/src/core/ipv4\ip4_frag.c ****  * @param pbufs_needed number of pbufs needed to enqueue
 224:C:/Users/stapi/OneDrive/Desktop/GD32VW553/GD32VW55X_Wifi_BLE_SDK/GD32VW55x_RELEASE_V1.0.2/MSDK/lwip/lwip-2.1.2/src/core/ipv4\ip4_frag.c ****  *        (used for freeing other datagrams if not enough space)
 225:C:/Users/stapi/OneDrive/Desktop/GD32VW553/GD32VW55X_Wifi_BLE_SDK/GD32VW55x_RELEASE_V1.0.2/MSDK/lwip/lwip-2.1.2/src/core/ipv4\ip4_frag.c ****  * @return the number of pbufs freed
 226:C:/Users/stapi/OneDrive/Desktop/GD32VW553/GD32VW55X_Wifi_BLE_SDK/GD32VW55x_RELEASE_V1.0.2/MSDK/lwip/lwip-2.1.2/src/core/ipv4\ip4_frag.c ****  */
 227:C:/Users/stapi/OneDrive/Desktop/GD32VW553/GD32VW55X_Wifi_BLE_SDK/GD32VW55x_RELEASE_V1.0.2/MSDK/lwip/lwip-2.1.2/src/core/ipv4\ip4_frag.c **** static int
 228:C:/Users/stapi/OneDrive/Desktop/GD32VW553/GD32VW55X_Wifi_BLE_SDK/GD32VW55x_RELEASE_V1.0.2/MSDK/lwip/lwip-2.1.2/src/core/ipv4\ip4_frag.c **** ip_reass_remove_oldest_datagram(struct ip_hdr *fraghdr, int pbufs_needed)
 229:C:/Users/stapi/OneDrive/Desktop/GD32VW553/GD32VW55X_Wifi_BLE_SDK/GD32VW55x_RELEASE_V1.0.2/MSDK/lwip/lwip-2.1.2/src/core/ipv4\ip4_frag.c **** {
 230:C:/Users/stapi/OneDrive/Desktop/GD32VW553/GD32VW55X_Wifi_BLE_SDK/GD32VW55x_RELEASE_V1.0.2/MSDK/lwip/lwip-2.1.2/src/core/ipv4\ip4_frag.c ****   /* @todo Can't we simply remove the last datagram in the
 231:C:/Users/stapi/OneDrive/Desktop/GD32VW553/GD32VW55X_Wifi_BLE_SDK/GD32VW55x_RELEASE_V1.0.2/MSDK/lwip/lwip-2.1.2/src/core/ipv4\ip4_frag.c ****    *       linked list behind reassdatagrams?
 232:C:/Users/stapi/OneDrive/Desktop/GD32VW553/GD32VW55X_Wifi_BLE_SDK/GD32VW55x_RELEASE_V1.0.2/MSDK/lwip/lwip-2.1.2/src/core/ipv4\ip4_frag.c ****    */
 233:C:/Users/stapi/OneDrive/Desktop/GD32VW553/GD32VW55X_Wifi_BLE_SDK/GD32VW55x_RELEASE_V1.0.2/MSDK/lwip/lwip-2.1.2/src/core/ipv4\ip4_frag.c ****   struct ip_reassdata *r, *oldest, *prev, *oldest_prev;
 234:C:/Users/stapi/OneDrive/Desktop/GD32VW553/GD32VW55X_Wifi_BLE_SDK/GD32VW55x_RELEASE_V1.0.2/MSDK/lwip/lwip-2.1.2/src/core/ipv4\ip4_frag.c ****   int pbufs_freed = 0, pbufs_freed_current;
 235:C:/Users/stapi/OneDrive/Desktop/GD32VW553/GD32VW55X_Wifi_BLE_SDK/GD32VW55x_RELEASE_V1.0.2/MSDK/lwip/lwip-2.1.2/src/core/ipv4\ip4_frag.c ****   int other_datagrams;
 236:C:/Users/stapi/OneDrive/Desktop/GD32VW553/GD32VW55X_Wifi_BLE_SDK/GD32VW55x_RELEASE_V1.0.2/MSDK/lwip/lwip-2.1.2/src/core/ipv4\ip4_frag.c **** 
 237:C:/Users/stapi/OneDrive/Desktop/GD32VW553/GD32VW55X_Wifi_BLE_SDK/GD32VW55x_RELEASE_V1.0.2/MSDK/lwip/lwip-2.1.2/src/core/ipv4\ip4_frag.c ****   /* Free datagrams until being allowed to enqueue 'pbufs_needed' pbufs,
 238:C:/Users/stapi/OneDrive/Desktop/GD32VW553/GD32VW55X_Wifi_BLE_SDK/GD32VW55x_RELEASE_V1.0.2/MSDK/lwip/lwip-2.1.2/src/core/ipv4\ip4_frag.c ****    * but don't free the datagram that 'fraghdr' belongs to! */
 239:C:/Users/stapi/OneDrive/Desktop/GD32VW553/GD32VW55X_Wifi_BLE_SDK/GD32VW55x_RELEASE_V1.0.2/MSDK/lwip/lwip-2.1.2/src/core/ipv4\ip4_frag.c ****   do {
 240:C:/Users/stapi/OneDrive/Desktop/GD32VW553/GD32VW55X_Wifi_BLE_SDK/GD32VW55x_RELEASE_V1.0.2/MSDK/lwip/lwip-2.1.2/src/core/ipv4\ip4_frag.c ****     oldest = NULL;
 241:C:/Users/stapi/OneDrive/Desktop/GD32VW553/GD32VW55X_Wifi_BLE_SDK/GD32VW55x_RELEASE_V1.0.2/MSDK/lwip/lwip-2.1.2/src/core/ipv4\ip4_frag.c ****     prev = NULL;
 242:C:/Users/stapi/OneDrive/Desktop/GD32VW553/GD32VW55X_Wifi_BLE_SDK/GD32VW55x_RELEASE_V1.0.2/MSDK/lwip/lwip-2.1.2/src/core/ipv4\ip4_frag.c ****     oldest_prev = NULL;
 243:C:/Users/stapi/OneDrive/Desktop/GD32VW553/GD32VW55X_Wifi_BLE_SDK/GD32VW55x_RELEASE_V1.0.2/MSDK/lwip/lwip-2.1.2/src/core/ipv4\ip4_frag.c ****     other_datagrams = 0;
 244:C:/Users/stapi/OneDrive/Desktop/GD32VW553/GD32VW55X_Wifi_BLE_SDK/GD32VW55x_RELEASE_V1.0.2/MSDK/lwip/lwip-2.1.2/src/core/ipv4\ip4_frag.c ****     r = reassdatagrams;
 245:C:/Users/stapi/OneDrive/Desktop/GD32VW553/GD32VW55X_Wifi_BLE_SDK/GD32VW55x_RELEASE_V1.0.2/MSDK/lwip/lwip-2.1.2/src/core/ipv4\ip4_frag.c ****     while (r != NULL) {
 246:C:/Users/stapi/OneDrive/Desktop/GD32VW553/GD32VW55X_Wifi_BLE_SDK/GD32VW55x_RELEASE_V1.0.2/MSDK/lwip/lwip-2.1.2/src/core/ipv4\ip4_frag.c ****       if (!IP_ADDRESSES_AND_ID_MATCH(&r->iphdr, fraghdr)) {
 247:C:/Users/stapi/OneDrive/Desktop/GD32VW553/GD32VW55X_Wifi_BLE_SDK/GD32VW55x_RELEASE_V1.0.2/MSDK/lwip/lwip-2.1.2/src/core/ipv4\ip4_frag.c ****         /* Not the same datagram as fraghdr */
 248:C:/Users/stapi/OneDrive/Desktop/GD32VW553/GD32VW55X_Wifi_BLE_SDK/GD32VW55x_RELEASE_V1.0.2/MSDK/lwip/lwip-2.1.2/src/core/ipv4\ip4_frag.c ****         other_datagrams++;
 249:C:/Users/stapi/OneDrive/Desktop/GD32VW553/GD32VW55X_Wifi_BLE_SDK/GD32VW55x_RELEASE_V1.0.2/MSDK/lwip/lwip-2.1.2/src/core/ipv4\ip4_frag.c ****         if (oldest == NULL) {
 250:C:/Users/stapi/OneDrive/Desktop/GD32VW553/GD32VW55X_Wifi_BLE_SDK/GD32VW55x_RELEASE_V1.0.2/MSDK/lwip/lwip-2.1.2/src/core/ipv4\ip4_frag.c ****           oldest = r;
 251:C:/Users/stapi/OneDrive/Desktop/GD32VW553/GD32VW55X_Wifi_BLE_SDK/GD32VW55x_RELEASE_V1.0.2/MSDK/lwip/lwip-2.1.2/src/core/ipv4\ip4_frag.c ****           oldest_prev = prev;
 252:C:/Users/stapi/OneDrive/Desktop/GD32VW553/GD32VW55X_Wifi_BLE_SDK/GD32VW55x_RELEASE_V1.0.2/MSDK/lwip/lwip-2.1.2/src/core/ipv4\ip4_frag.c ****         } else if (r->timer <= oldest->timer) {
 253:C:/Users/stapi/OneDrive/Desktop/GD32VW553/GD32VW55X_Wifi_BLE_SDK/GD32VW55x_RELEASE_V1.0.2/MSDK/lwip/lwip-2.1.2/src/core/ipv4\ip4_frag.c ****           /* older than the previous oldest */
 254:C:/Users/stapi/OneDrive/Desktop/GD32VW553/GD32VW55X_Wifi_BLE_SDK/GD32VW55x_RELEASE_V1.0.2/MSDK/lwip/lwip-2.1.2/src/core/ipv4\ip4_frag.c ****           oldest = r;
 255:C:/Users/stapi/OneDrive/Desktop/GD32VW553/GD32VW55X_Wifi_BLE_SDK/GD32VW55x_RELEASE_V1.0.2/MSDK/lwip/lwip-2.1.2/src/core/ipv4\ip4_frag.c ****           oldest_prev = prev;
 256:C:/Users/stapi/OneDrive/Desktop/GD32VW553/GD32VW55X_Wifi_BLE_SDK/GD32VW55x_RELEASE_V1.0.2/MSDK/lwip/lwip-2.1.2/src/core/ipv4\ip4_frag.c ****         }
 257:C:/Users/stapi/OneDrive/Desktop/GD32VW553/GD32VW55X_Wifi_BLE_SDK/GD32VW55x_RELEASE_V1.0.2/MSDK/lwip/lwip-2.1.2/src/core/ipv4\ip4_frag.c ****       }
 258:C:/Users/stapi/OneDrive/Desktop/GD32VW553/GD32VW55X_Wifi_BLE_SDK/GD32VW55x_RELEASE_V1.0.2/MSDK/lwip/lwip-2.1.2/src/core/ipv4\ip4_frag.c ****       if (r->next != NULL) {
 259:C:/Users/stapi/OneDrive/Desktop/GD32VW553/GD32VW55X_Wifi_BLE_SDK/GD32VW55x_RELEASE_V1.0.2/MSDK/lwip/lwip-2.1.2/src/core/ipv4\ip4_frag.c ****         prev = r;
 260:C:/Users/stapi/OneDrive/Desktop/GD32VW553/GD32VW55X_Wifi_BLE_SDK/GD32VW55x_RELEASE_V1.0.2/MSDK/lwip/lwip-2.1.2/src/core/ipv4\ip4_frag.c ****       }
 261:C:/Users/stapi/OneDrive/Desktop/GD32VW553/GD32VW55X_Wifi_BLE_SDK/GD32VW55x_RELEASE_V1.0.2/MSDK/lwip/lwip-2.1.2/src/core/ipv4\ip4_frag.c ****       r = r->next;
 262:C:/Users/stapi/OneDrive/Desktop/GD32VW553/GD32VW55X_Wifi_BLE_SDK/GD32VW55x_RELEASE_V1.0.2/MSDK/lwip/lwip-2.1.2/src/core/ipv4\ip4_frag.c ****     }
 263:C:/Users/stapi/OneDrive/Desktop/GD32VW553/GD32VW55X_Wifi_BLE_SDK/GD32VW55x_RELEASE_V1.0.2/MSDK/lwip/lwip-2.1.2/src/core/ipv4\ip4_frag.c ****     if (oldest != NULL) {
 264:C:/Users/stapi/OneDrive/Desktop/GD32VW553/GD32VW55X_Wifi_BLE_SDK/GD32VW55x_RELEASE_V1.0.2/MSDK/lwip/lwip-2.1.2/src/core/ipv4\ip4_frag.c ****       pbufs_freed_current = ip_reass_free_complete_datagram(oldest, oldest_prev);
 265:C:/Users/stapi/OneDrive/Desktop/GD32VW553/GD32VW55X_Wifi_BLE_SDK/GD32VW55x_RELEASE_V1.0.2/MSDK/lwip/lwip-2.1.2/src/core/ipv4\ip4_frag.c ****       pbufs_freed += pbufs_freed_current;
 266:C:/Users/stapi/OneDrive/Desktop/GD32VW553/GD32VW55X_Wifi_BLE_SDK/GD32VW55x_RELEASE_V1.0.2/MSDK/lwip/lwip-2.1.2/src/core/ipv4\ip4_frag.c ****     }
 267:C:/Users/stapi/OneDrive/Desktop/GD32VW553/GD32VW55X_Wifi_BLE_SDK/GD32VW55x_RELEASE_V1.0.2/MSDK/lwip/lwip-2.1.2/src/core/ipv4\ip4_frag.c ****   } while ((pbufs_freed < pbufs_needed) && (other_datagrams > 1));
 268:C:/Users/stapi/OneDrive/Desktop/GD32VW553/GD32VW55X_Wifi_BLE_SDK/GD32VW55x_RELEASE_V1.0.2/MSDK/lwip/lwip-2.1.2/src/core/ipv4\ip4_frag.c ****   return pbufs_freed;
 269:C:/Users/stapi/OneDrive/Desktop/GD32VW553/GD32VW55X_Wifi_BLE_SDK/GD32VW55x_RELEASE_V1.0.2/MSDK/lwip/lwip-2.1.2/src/core/ipv4\ip4_frag.c **** }
 270:C:/Users/stapi/OneDrive/Desktop/GD32VW553/GD32VW55X_Wifi_BLE_SDK/GD32VW55x_RELEASE_V1.0.2/MSDK/lwip/lwip-2.1.2/src/core/ipv4\ip4_frag.c **** #endif /* IP_REASS_FREE_OLDEST */
 271:C:/Users/stapi/OneDrive/Desktop/GD32VW553/GD32VW55X_Wifi_BLE_SDK/GD32VW55x_RELEASE_V1.0.2/MSDK/lwip/lwip-2.1.2/src/core/ipv4\ip4_frag.c **** 
 272:C:/Users/stapi/OneDrive/Desktop/GD32VW553/GD32VW55X_Wifi_BLE_SDK/GD32VW55x_RELEASE_V1.0.2/MSDK/lwip/lwip-2.1.2/src/core/ipv4\ip4_frag.c **** /**
 273:C:/Users/stapi/OneDrive/Desktop/GD32VW553/GD32VW55X_Wifi_BLE_SDK/GD32VW55x_RELEASE_V1.0.2/MSDK/lwip/lwip-2.1.2/src/core/ipv4\ip4_frag.c ****  * Enqueues a new fragment into the fragment queue
 274:C:/Users/stapi/OneDrive/Desktop/GD32VW553/GD32VW55X_Wifi_BLE_SDK/GD32VW55x_RELEASE_V1.0.2/MSDK/lwip/lwip-2.1.2/src/core/ipv4\ip4_frag.c ****  * @param fraghdr points to the new fragments IP hdr
 275:C:/Users/stapi/OneDrive/Desktop/GD32VW553/GD32VW55X_Wifi_BLE_SDK/GD32VW55x_RELEASE_V1.0.2/MSDK/lwip/lwip-2.1.2/src/core/ipv4\ip4_frag.c ****  * @param clen number of pbufs needed to enqueue (used for freeing other datagrams if not enough sp
 276:C:/Users/stapi/OneDrive/Desktop/GD32VW553/GD32VW55X_Wifi_BLE_SDK/GD32VW55x_RELEASE_V1.0.2/MSDK/lwip/lwip-2.1.2/src/core/ipv4\ip4_frag.c ****  * @return A pointer to the queue location into which the fragment was enqueued
 277:C:/Users/stapi/OneDrive/Desktop/GD32VW553/GD32VW55X_Wifi_BLE_SDK/GD32VW55x_RELEASE_V1.0.2/MSDK/lwip/lwip-2.1.2/src/core/ipv4\ip4_frag.c ****  */
 278:C:/Users/stapi/OneDrive/Desktop/GD32VW553/GD32VW55X_Wifi_BLE_SDK/GD32VW55x_RELEASE_V1.0.2/MSDK/lwip/lwip-2.1.2/src/core/ipv4\ip4_frag.c **** static struct ip_reassdata *
 279:C:/Users/stapi/OneDrive/Desktop/GD32VW553/GD32VW55X_Wifi_BLE_SDK/GD32VW55x_RELEASE_V1.0.2/MSDK/lwip/lwip-2.1.2/src/core/ipv4\ip4_frag.c **** ip_reass_enqueue_new_datagram(struct ip_hdr *fraghdr, int clen)
 280:C:/Users/stapi/OneDrive/Desktop/GD32VW553/GD32VW55X_Wifi_BLE_SDK/GD32VW55x_RELEASE_V1.0.2/MSDK/lwip/lwip-2.1.2/src/core/ipv4\ip4_frag.c **** {
 281:C:/Users/stapi/OneDrive/Desktop/GD32VW553/GD32VW55X_Wifi_BLE_SDK/GD32VW55x_RELEASE_V1.0.2/MSDK/lwip/lwip-2.1.2/src/core/ipv4\ip4_frag.c ****   struct ip_reassdata *ipr;
 282:C:/Users/stapi/OneDrive/Desktop/GD32VW553/GD32VW55X_Wifi_BLE_SDK/GD32VW55x_RELEASE_V1.0.2/MSDK/lwip/lwip-2.1.2/src/core/ipv4\ip4_frag.c **** #if ! IP_REASS_FREE_OLDEST
 283:C:/Users/stapi/OneDrive/Desktop/GD32VW553/GD32VW55X_Wifi_BLE_SDK/GD32VW55x_RELEASE_V1.0.2/MSDK/lwip/lwip-2.1.2/src/core/ipv4\ip4_frag.c ****   LWIP_UNUSED_ARG(clen);
 284:C:/Users/stapi/OneDrive/Desktop/GD32VW553/GD32VW55X_Wifi_BLE_SDK/GD32VW55x_RELEASE_V1.0.2/MSDK/lwip/lwip-2.1.2/src/core/ipv4\ip4_frag.c **** #endif
 285:C:/Users/stapi/OneDrive/Desktop/GD32VW553/GD32VW55X_Wifi_BLE_SDK/GD32VW55x_RELEASE_V1.0.2/MSDK/lwip/lwip-2.1.2/src/core/ipv4\ip4_frag.c **** 
 286:C:/Users/stapi/OneDrive/Desktop/GD32VW553/GD32VW55X_Wifi_BLE_SDK/GD32VW55x_RELEASE_V1.0.2/MSDK/lwip/lwip-2.1.2/src/core/ipv4\ip4_frag.c ****   /* No matching previous fragment found, allocate a new reassdata struct */
 287:C:/Users/stapi/OneDrive/Desktop/GD32VW553/GD32VW55X_Wifi_BLE_SDK/GD32VW55x_RELEASE_V1.0.2/MSDK/lwip/lwip-2.1.2/src/core/ipv4\ip4_frag.c ****   ipr = (struct ip_reassdata *)memp_malloc(MEMP_REASSDATA);
 288:C:/Users/stapi/OneDrive/Desktop/GD32VW553/GD32VW55X_Wifi_BLE_SDK/GD32VW55x_RELEASE_V1.0.2/MSDK/lwip/lwip-2.1.2/src/core/ipv4\ip4_frag.c ****   if (ipr == NULL) {
 289:C:/Users/stapi/OneDrive/Desktop/GD32VW553/GD32VW55X_Wifi_BLE_SDK/GD32VW55x_RELEASE_V1.0.2/MSDK/lwip/lwip-2.1.2/src/core/ipv4\ip4_frag.c **** #if IP_REASS_FREE_OLDEST
 290:C:/Users/stapi/OneDrive/Desktop/GD32VW553/GD32VW55X_Wifi_BLE_SDK/GD32VW55x_RELEASE_V1.0.2/MSDK/lwip/lwip-2.1.2/src/core/ipv4\ip4_frag.c ****     if (ip_reass_remove_oldest_datagram(fraghdr, clen) >= clen) {
 291:C:/Users/stapi/OneDrive/Desktop/GD32VW553/GD32VW55X_Wifi_BLE_SDK/GD32VW55x_RELEASE_V1.0.2/MSDK/lwip/lwip-2.1.2/src/core/ipv4\ip4_frag.c ****       ipr = (struct ip_reassdata *)memp_malloc(MEMP_REASSDATA);
 292:C:/Users/stapi/OneDrive/Desktop/GD32VW553/GD32VW55X_Wifi_BLE_SDK/GD32VW55x_RELEASE_V1.0.2/MSDK/lwip/lwip-2.1.2/src/core/ipv4\ip4_frag.c ****     }
 293:C:/Users/stapi/OneDrive/Desktop/GD32VW553/GD32VW55X_Wifi_BLE_SDK/GD32VW55x_RELEASE_V1.0.2/MSDK/lwip/lwip-2.1.2/src/core/ipv4\ip4_frag.c ****     if (ipr == NULL)
 294:C:/Users/stapi/OneDrive/Desktop/GD32VW553/GD32VW55X_Wifi_BLE_SDK/GD32VW55x_RELEASE_V1.0.2/MSDK/lwip/lwip-2.1.2/src/core/ipv4\ip4_frag.c **** #endif /* IP_REASS_FREE_OLDEST */
 295:C:/Users/stapi/OneDrive/Desktop/GD32VW553/GD32VW55X_Wifi_BLE_SDK/GD32VW55x_RELEASE_V1.0.2/MSDK/lwip/lwip-2.1.2/src/core/ipv4\ip4_frag.c ****     {
 296:C:/Users/stapi/OneDrive/Desktop/GD32VW553/GD32VW55X_Wifi_BLE_SDK/GD32VW55x_RELEASE_V1.0.2/MSDK/lwip/lwip-2.1.2/src/core/ipv4\ip4_frag.c ****       IPFRAG_STATS_INC(ip_frag.memerr);
 297:C:/Users/stapi/OneDrive/Desktop/GD32VW553/GD32VW55X_Wifi_BLE_SDK/GD32VW55x_RELEASE_V1.0.2/MSDK/lwip/lwip-2.1.2/src/core/ipv4\ip4_frag.c ****       LWIP_DEBUGF(IP_REASS_DEBUG, ("Failed to alloc reassdata struct\n"));
 298:C:/Users/stapi/OneDrive/Desktop/GD32VW553/GD32VW55X_Wifi_BLE_SDK/GD32VW55x_RELEASE_V1.0.2/MSDK/lwip/lwip-2.1.2/src/core/ipv4\ip4_frag.c ****       return NULL;
 299:C:/Users/stapi/OneDrive/Desktop/GD32VW553/GD32VW55X_Wifi_BLE_SDK/GD32VW55x_RELEASE_V1.0.2/MSDK/lwip/lwip-2.1.2/src/core/ipv4\ip4_frag.c ****     }
 300:C:/Users/stapi/OneDrive/Desktop/GD32VW553/GD32VW55X_Wifi_BLE_SDK/GD32VW55x_RELEASE_V1.0.2/MSDK/lwip/lwip-2.1.2/src/core/ipv4\ip4_frag.c ****   }
 301:C:/Users/stapi/OneDrive/Desktop/GD32VW553/GD32VW55X_Wifi_BLE_SDK/GD32VW55x_RELEASE_V1.0.2/MSDK/lwip/lwip-2.1.2/src/core/ipv4\ip4_frag.c ****   memset(ipr, 0, sizeof(struct ip_reassdata));
 302:C:/Users/stapi/OneDrive/Desktop/GD32VW553/GD32VW55X_Wifi_BLE_SDK/GD32VW55x_RELEASE_V1.0.2/MSDK/lwip/lwip-2.1.2/src/core/ipv4\ip4_frag.c ****   ipr->timer = IP_REASS_MAXAGE;
 303:C:/Users/stapi/OneDrive/Desktop/GD32VW553/GD32VW55X_Wifi_BLE_SDK/GD32VW55x_RELEASE_V1.0.2/MSDK/lwip/lwip-2.1.2/src/core/ipv4\ip4_frag.c **** 
 304:C:/Users/stapi/OneDrive/Desktop/GD32VW553/GD32VW55X_Wifi_BLE_SDK/GD32VW55x_RELEASE_V1.0.2/MSDK/lwip/lwip-2.1.2/src/core/ipv4\ip4_frag.c ****   /* enqueue the new structure to the front of the list */
 305:C:/Users/stapi/OneDrive/Desktop/GD32VW553/GD32VW55X_Wifi_BLE_SDK/GD32VW55x_RELEASE_V1.0.2/MSDK/lwip/lwip-2.1.2/src/core/ipv4\ip4_frag.c ****   ipr->next = reassdatagrams;
 306:C:/Users/stapi/OneDrive/Desktop/GD32VW553/GD32VW55X_Wifi_BLE_SDK/GD32VW55x_RELEASE_V1.0.2/MSDK/lwip/lwip-2.1.2/src/core/ipv4\ip4_frag.c ****   reassdatagrams = ipr;
 307:C:/Users/stapi/OneDrive/Desktop/GD32VW553/GD32VW55X_Wifi_BLE_SDK/GD32VW55x_RELEASE_V1.0.2/MSDK/lwip/lwip-2.1.2/src/core/ipv4\ip4_frag.c ****   /* copy the ip header for later tests and input */
 308:C:/Users/stapi/OneDrive/Desktop/GD32VW553/GD32VW55X_Wifi_BLE_SDK/GD32VW55x_RELEASE_V1.0.2/MSDK/lwip/lwip-2.1.2/src/core/ipv4\ip4_frag.c ****   /* @todo: no ip options supported? */
 309:C:/Users/stapi/OneDrive/Desktop/GD32VW553/GD32VW55X_Wifi_BLE_SDK/GD32VW55x_RELEASE_V1.0.2/MSDK/lwip/lwip-2.1.2/src/core/ipv4\ip4_frag.c ****   SMEMCPY(&(ipr->iphdr), fraghdr, IP_HLEN);
 310:C:/Users/stapi/OneDrive/Desktop/GD32VW553/GD32VW55X_Wifi_BLE_SDK/GD32VW55x_RELEASE_V1.0.2/MSDK/lwip/lwip-2.1.2/src/core/ipv4\ip4_frag.c ****   return ipr;
 311:C:/Users/stapi/OneDrive/Desktop/GD32VW553/GD32VW55X_Wifi_BLE_SDK/GD32VW55x_RELEASE_V1.0.2/MSDK/lwip/lwip-2.1.2/src/core/ipv4\ip4_frag.c **** }
 312:C:/Users/stapi/OneDrive/Desktop/GD32VW553/GD32VW55X_Wifi_BLE_SDK/GD32VW55x_RELEASE_V1.0.2/MSDK/lwip/lwip-2.1.2/src/core/ipv4\ip4_frag.c **** 
 313:C:/Users/stapi/OneDrive/Desktop/GD32VW553/GD32VW55X_Wifi_BLE_SDK/GD32VW55x_RELEASE_V1.0.2/MSDK/lwip/lwip-2.1.2/src/core/ipv4\ip4_frag.c **** /**
 314:C:/Users/stapi/OneDrive/Desktop/GD32VW553/GD32VW55X_Wifi_BLE_SDK/GD32VW55x_RELEASE_V1.0.2/MSDK/lwip/lwip-2.1.2/src/core/ipv4\ip4_frag.c ****  * Dequeues a datagram from the datagram queue. Doesn't deallocate the pbufs.
 315:C:/Users/stapi/OneDrive/Desktop/GD32VW553/GD32VW55X_Wifi_BLE_SDK/GD32VW55x_RELEASE_V1.0.2/MSDK/lwip/lwip-2.1.2/src/core/ipv4\ip4_frag.c ****  * @param ipr points to the queue entry to dequeue
 316:C:/Users/stapi/OneDrive/Desktop/GD32VW553/GD32VW55X_Wifi_BLE_SDK/GD32VW55x_RELEASE_V1.0.2/MSDK/lwip/lwip-2.1.2/src/core/ipv4\ip4_frag.c ****  */
 317:C:/Users/stapi/OneDrive/Desktop/GD32VW553/GD32VW55X_Wifi_BLE_SDK/GD32VW55x_RELEASE_V1.0.2/MSDK/lwip/lwip-2.1.2/src/core/ipv4\ip4_frag.c **** static void
 318:C:/Users/stapi/OneDrive/Desktop/GD32VW553/GD32VW55X_Wifi_BLE_SDK/GD32VW55x_RELEASE_V1.0.2/MSDK/lwip/lwip-2.1.2/src/core/ipv4\ip4_frag.c **** ip_reass_dequeue_datagram(struct ip_reassdata *ipr, struct ip_reassdata *prev)
 319:C:/Users/stapi/OneDrive/Desktop/GD32VW553/GD32VW55X_Wifi_BLE_SDK/GD32VW55x_RELEASE_V1.0.2/MSDK/lwip/lwip-2.1.2/src/core/ipv4\ip4_frag.c **** {
  25              		.loc 1 319 1
  26              		.cfi_startproc
  27              	.LVL0:
  28 0000 17030000 		call	t0,__riscv_save_0
  28      E7020300 
  29              		.cfi_offset 1, -4
  30              		.cfi_def_cfa_offset 16
 320:C:/Users/stapi/OneDrive/Desktop/GD32VW553/GD32VW55X_Wifi_BLE_SDK/GD32VW55x_RELEASE_V1.0.2/MSDK/lwip/lwip-2.1.2/src/core/ipv4\ip4_frag.c ****   /* dequeue the reass struct  */
 321:C:/Users/stapi/OneDrive/Desktop/GD32VW553/GD32VW55X_Wifi_BLE_SDK/GD32VW55x_RELEASE_V1.0.2/MSDK/lwip/lwip-2.1.2/src/core/ipv4\ip4_frag.c ****   if (reassdatagrams == ipr) {
  31              		.loc 1 321 3
  32              		.loc 1 321 22 is_stmt 0
  33 0008 B7070000 		lui	a5,%hi(.LANCHOR0)
  34 000c 93870700 		addi	a5,a5,%lo(.LANCHOR0)
  35              		.loc 1 321 6
  36 0010 9843     		lw	a4,0(a5)
  37 0012 631EA700 		bne	a4,a0,.L2
 322:C:/Users/stapi/OneDrive/Desktop/GD32VW553/GD32VW55X_Wifi_BLE_SDK/GD32VW55x_RELEASE_V1.0.2/MSDK/lwip/lwip-2.1.2/src/core/ipv4\ip4_frag.c ****     /* it was the first in the list */
 323:C:/Users/stapi/OneDrive/Desktop/GD32VW553/GD32VW55X_Wifi_BLE_SDK/GD32VW55x_RELEASE_V1.0.2/MSDK/lwip/lwip-2.1.2/src/core/ipv4\ip4_frag.c ****     reassdatagrams = ipr->next;
  38              		.loc 1 323 5 is_stmt 1
  39              		.loc 1 323 20 is_stmt 0
  40 0016 1841     		lw	a4,0(a0)
  41 0018 98C3     		sw	a4,0(a5)
  42              	.L3:
 324:C:/Users/stapi/OneDrive/Desktop/GD32VW553/GD32VW55X_Wifi_BLE_SDK/GD32VW55x_RELEASE_V1.0.2/MSDK/lwip/lwip-2.1.2/src/core/ipv4\ip4_frag.c ****   } else {
 325:C:/Users/stapi/OneDrive/Desktop/GD32VW553/GD32VW55X_Wifi_BLE_SDK/GD32VW55x_RELEASE_V1.0.2/MSDK/lwip/lwip-2.1.2/src/core/ipv4\ip4_frag.c ****     /* it wasn't the first, so it must have a valid 'prev' */
 326:C:/Users/stapi/OneDrive/Desktop/GD32VW553/GD32VW55X_Wifi_BLE_SDK/GD32VW55x_RELEASE_V1.0.2/MSDK/lwip/lwip-2.1.2/src/core/ipv4\ip4_frag.c ****     LWIP_ASSERT("sanity check linked list", prev != NULL);
 327:C:/Users/stapi/OneDrive/Desktop/GD32VW553/GD32VW55X_Wifi_BLE_SDK/GD32VW55x_RELEASE_V1.0.2/MSDK/lwip/lwip-2.1.2/src/core/ipv4\ip4_frag.c ****     prev->next = ipr->next;
 328:C:/Users/stapi/OneDrive/Desktop/GD32VW553/GD32VW55X_Wifi_BLE_SDK/GD32VW55x_RELEASE_V1.0.2/MSDK/lwip/lwip-2.1.2/src/core/ipv4\ip4_frag.c ****   }
 329:C:/Users/stapi/OneDrive/Desktop/GD32VW553/GD32VW55X_Wifi_BLE_SDK/GD32VW55x_RELEASE_V1.0.2/MSDK/lwip/lwip-2.1.2/src/core/ipv4\ip4_frag.c **** 
 330:C:/Users/stapi/OneDrive/Desktop/GD32VW553/GD32VW55X_Wifi_BLE_SDK/GD32VW55x_RELEASE_V1.0.2/MSDK/lwip/lwip-2.1.2/src/core/ipv4\ip4_frag.c ****   /* now we can free the ip_reassdata struct */
 331:C:/Users/stapi/OneDrive/Desktop/GD32VW553/GD32VW55X_Wifi_BLE_SDK/GD32VW55x_RELEASE_V1.0.2/MSDK/lwip/lwip-2.1.2/src/core/ipv4\ip4_frag.c ****   memp_free(MEMP_REASSDATA, ipr);
  43              		.loc 1 331 3 is_stmt 1
  44 001a AA85     		mv	a1,a0
  45              	.LVL1:
  46 001c 1945     		li	a0,6
  47              	.LVL2:
  48 001e 97000000 		call	memp_free
  48      E7800000 
  49              	.LVL3:
 332:C:/Users/stapi/OneDrive/Desktop/GD32VW553/GD32VW55X_Wifi_BLE_SDK/GD32VW55x_RELEASE_V1.0.2/MSDK/lwip/lwip-2.1.2/src/core/ipv4\ip4_frag.c **** }
  50              		.loc 1 332 1 is_stmt 0
  51 0026 17030000 		tail	__riscv_restore_0
  51      67000300 
  52              		.cfi_remember_state
  53              		.cfi_restore 1
  54              		.cfi_def_cfa_offset 0
  55              	.LVL4:
  56              	.L2:
  57              		.cfi_restore_state
 326:C:/Users/stapi/OneDrive/Desktop/GD32VW553/GD32VW55X_Wifi_BLE_SDK/GD32VW55x_RELEASE_V1.0.2/MSDK/lwip/lwip-2.1.2/src/core/ipv4\ip4_frag.c ****     prev->next = ipr->next;
  58              		.loc 1 326 5 is_stmt 1
 326:C:/Users/stapi/OneDrive/Desktop/GD32VW553/GD32VW55X_Wifi_BLE_SDK/GD32VW55x_RELEASE_V1.0.2/MSDK/lwip/lwip-2.1.2/src/core/ipv4\ip4_frag.c ****     prev->next = ipr->next;
  59              		.loc 1 326 5
  60 002e 85E5     		bne	a1,zero,.L4
  61              	.LVL5:
  62              	.LBB5:
  63              	.LBB6:
 326:C:/Users/stapi/OneDrive/Desktop/GD32VW553/GD32VW55X_Wifi_BLE_SDK/GD32VW55x_RELEASE_V1.0.2/MSDK/lwip/lwip-2.1.2/src/core/ipv4\ip4_frag.c ****     prev->next = ipr->next;
  64              		.loc 1 326 5
 326:C:/Users/stapi/OneDrive/Desktop/GD32VW553/GD32VW55X_Wifi_BLE_SDK/GD32VW55x_RELEASE_V1.0.2/MSDK/lwip/lwip-2.1.2/src/core/ipv4\ip4_frag.c ****     prev->next = ipr->next;
  65              		.loc 1 326 5
  66 0030 B7060000 		lui	a3,%hi(.LC0)
  67 0034 B7050000 		lui	a1,%hi(.LC1)
  68              	.LVL6:
  69 0038 37050000 		lui	a0,%hi(.LC2)
  70              	.LVL7:
  71 003c 93860600 		addi	a3,a3,%lo(.LC0)
  72 0040 13066014 		li	a2,326
  73 0044 93850500 		addi	a1,a1,%lo(.LC1)
  74 0048 13050500 		addi	a0,a0,%lo(.LC2)
  75 004c 97000000 		call	printf
  75      E7800000 
  76              	.LVL8:
  77              	.L5:
 326:C:/Users/stapi/OneDrive/Desktop/GD32VW553/GD32VW55X_Wifi_BLE_SDK/GD32VW55x_RELEASE_V1.0.2/MSDK/lwip/lwip-2.1.2/src/core/ipv4\ip4_frag.c ****     prev->next = ipr->next;
  78              		.loc 1 326 5
 326:C:/Users/stapi/OneDrive/Desktop/GD32VW553/GD32VW55X_Wifi_BLE_SDK/GD32VW55x_RELEASE_V1.0.2/MSDK/lwip/lwip-2.1.2/src/core/ipv4\ip4_frag.c ****     prev->next = ipr->next;
  79              		.loc 1 326 5
 326:C:/Users/stapi/OneDrive/Desktop/GD32VW553/GD32VW55X_Wifi_BLE_SDK/GD32VW55x_RELEASE_V1.0.2/MSDK/lwip/lwip-2.1.2/src/core/ipv4\ip4_frag.c ****     prev->next = ipr->next;
  80              		.loc 1 326 5
  81 0054 01A0     		j	.L5
  82              	.LVL9:
  83              	.L4:
  84              	.LBE6:
  85              	.LBE5:
 326:C:/Users/stapi/OneDrive/Desktop/GD32VW553/GD32VW55X_Wifi_BLE_SDK/GD32VW55x_RELEASE_V1.0.2/MSDK/lwip/lwip-2.1.2/src/core/ipv4\ip4_frag.c ****     prev->next = ipr->next;
  86              		.loc 1 326 5 discriminator 2
 326:C:/Users/stapi/OneDrive/Desktop/GD32VW553/GD32VW55X_Wifi_BLE_SDK/GD32VW55x_RELEASE_V1.0.2/MSDK/lwip/lwip-2.1.2/src/core/ipv4\ip4_frag.c ****     prev->next = ipr->next;
  87              		.loc 1 326 5 discriminator 2
 327:C:/Users/stapi/OneDrive/Desktop/GD32VW553/GD32VW55X_Wifi_BLE_SDK/GD32VW55x_RELEASE_V1.0.2/MSDK/lwip/lwip-2.1.2/src/core/ipv4\ip4_frag.c ****   }
  88              		.loc 1 327 5 discriminator 2
 327:C:/Users/stapi/OneDrive/Desktop/GD32VW553/GD32VW55X_Wifi_BLE_SDK/GD32VW55x_RELEASE_V1.0.2/MSDK/lwip/lwip-2.1.2/src/core/ipv4\ip4_frag.c ****   }
  89              		.loc 1 327 21 is_stmt 0 discriminator 2
  90 0056 1C41     		lw	a5,0(a0)
 327:C:/Users/stapi/OneDrive/Desktop/GD32VW553/GD32VW55X_Wifi_BLE_SDK/GD32VW55x_RELEASE_V1.0.2/MSDK/lwip/lwip-2.1.2/src/core/ipv4\ip4_frag.c ****   }
  91              		.loc 1 327 16 discriminator 2
  92 0058 9CC1     		sw	a5,0(a1)
  93 005a C1B7     		j	.L3
  94              		.cfi_endproc
  95              	.LFE8:
  97              		.section	.rodata.ip_reass_free_complete_datagram.str1.4,"aMS",@progbits,1
  98              		.align	2
  99              	.LC3:
 100 0000 70726576 		.string	"prev != ipr"
 100      20213D20 
 100      69707200 
 101              		.align	2
 102              	.LC4:
 103 000c 70726576 		.string	"prev->next == ipr"
 103      2D3E6E65 
 103      7874203D 
 103      3D206970 
 103      7200
 104 001e 0000     		.align	2
 105              	.LC5:
 106 0020 70627566 		.string	"pbufs_freed + clen <= 0xffff"
 106      735F6672 
 106      65656420 
 106      2B20636C 
 106      656E203C 
 107 003d 000000   		.align	2
 108              	.LC6:
 109 0040 69705F72 		.string	"ip_reass_pbufcount >= pbufs_freed"
 109      65617373 
 109      5F706275 
 109      66636F75 
 109      6E74203E 
 110              		.section	.text.ip_reass_free_complete_datagram,"ax",@progbits
 111              		.align	1
 113              	ip_reass_free_complete_datagram:
 114              	.LFB5:
 166:C:/Users/stapi/OneDrive/Desktop/GD32VW553/GD32VW55X_Wifi_BLE_SDK/GD32VW55x_RELEASE_V1.0.2/MSDK/lwip/lwip-2.1.2/src/core/ipv4\ip4_frag.c ****   u16_t pbufs_freed = 0;
 115              		.loc 1 166 1 is_stmt 1
 116              		.cfi_startproc
 117              	.LVL10:
 118 0000 17030000 		call	t0,__riscv_save_6
 118      E7020300 
 119              		.cfi_offset 21, -28
 120              		.cfi_offset 20, -24
 121              		.cfi_offset 19, -20
 122              		.cfi_offset 18, -16
 123              		.cfi_offset 9, -12
 124              		.cfi_offset 8, -8
 125              		.cfi_offset 1, -4
 126              		.cfi_def_cfa_offset 32
 167:C:/Users/stapi/OneDrive/Desktop/GD32VW553/GD32VW55X_Wifi_BLE_SDK/GD32VW55x_RELEASE_V1.0.2/MSDK/lwip/lwip-2.1.2/src/core/ipv4\ip4_frag.c ****   u16_t clen;
 127              		.loc 1 167 3
 128              	.LVL11:
 168:C:/Users/stapi/OneDrive/Desktop/GD32VW553/GD32VW55X_Wifi_BLE_SDK/GD32VW55x_RELEASE_V1.0.2/MSDK/lwip/lwip-2.1.2/src/core/ipv4\ip4_frag.c ****   struct pbuf *p;
 129              		.loc 1 168 3
 169:C:/Users/stapi/OneDrive/Desktop/GD32VW553/GD32VW55X_Wifi_BLE_SDK/GD32VW55x_RELEASE_V1.0.2/MSDK/lwip/lwip-2.1.2/src/core/ipv4\ip4_frag.c ****   struct ip_reass_helper *iprh;
 130              		.loc 1 169 3
 170:C:/Users/stapi/OneDrive/Desktop/GD32VW553/GD32VW55X_Wifi_BLE_SDK/GD32VW55x_RELEASE_V1.0.2/MSDK/lwip/lwip-2.1.2/src/core/ipv4\ip4_frag.c **** 
 131              		.loc 1 170 3
 172:C:/Users/stapi/OneDrive/Desktop/GD32VW553/GD32VW55X_Wifi_BLE_SDK/GD32VW55x_RELEASE_V1.0.2/MSDK/lwip/lwip-2.1.2/src/core/ipv4\ip4_frag.c ****   if (prev != NULL) {
 132              		.loc 1 172 3
 172:C:/Users/stapi/OneDrive/Desktop/GD32VW553/GD32VW55X_Wifi_BLE_SDK/GD32VW55x_RELEASE_V1.0.2/MSDK/lwip/lwip-2.1.2/src/core/ipv4\ip4_frag.c ****   if (prev != NULL) {
 133              		.loc 1 172 3
 134 0008 6395A502 		bne	a1,a0,.L8
 172:C:/Users/stapi/OneDrive/Desktop/GD32VW553/GD32VW55X_Wifi_BLE_SDK/GD32VW55x_RELEASE_V1.0.2/MSDK/lwip/lwip-2.1.2/src/core/ipv4\ip4_frag.c ****   if (prev != NULL) {
 135              		.loc 1 172 3 discriminator 1
 172:C:/Users/stapi/OneDrive/Desktop/GD32VW553/GD32VW55X_Wifi_BLE_SDK/GD32VW55x_RELEASE_V1.0.2/MSDK/lwip/lwip-2.1.2/src/core/ipv4\ip4_frag.c ****   if (prev != NULL) {
 136              		.loc 1 172 3 discriminator 1
 137 000c B7060000 		lui	a3,%hi(.LC0)
 138 0010 B7050000 		lui	a1,%hi(.LC3)
 139              	.LVL12:
 140 0014 37050000 		lui	a0,%hi(.LC2)
 141              	.LVL13:
 142 0018 93860600 		addi	a3,a3,%lo(.LC0)
 143 001c 1306C00A 		li	a2,172
 144 0020 93850500 		addi	a1,a1,%lo(.LC3)
 145 0024 13050500 		addi	a0,a0,%lo(.LC2)
 146 0028 97000000 		call	printf
 146      E7800000 
 147              	.LVL14:
 148              	.L9:
 172:C:/Users/stapi/OneDrive/Desktop/GD32VW553/GD32VW55X_Wifi_BLE_SDK/GD32VW55x_RELEASE_V1.0.2/MSDK/lwip/lwip-2.1.2/src/core/ipv4\ip4_frag.c ****   if (prev != NULL) {
 149              		.loc 1 172 3 discriminator 1
 172:C:/Users/stapi/OneDrive/Desktop/GD32VW553/GD32VW55X_Wifi_BLE_SDK/GD32VW55x_RELEASE_V1.0.2/MSDK/lwip/lwip-2.1.2/src/core/ipv4\ip4_frag.c ****   if (prev != NULL) {
 150              		.loc 1 172 3 discriminator 1
 172:C:/Users/stapi/OneDrive/Desktop/GD32VW553/GD32VW55X_Wifi_BLE_SDK/GD32VW55x_RELEASE_V1.0.2/MSDK/lwip/lwip-2.1.2/src/core/ipv4\ip4_frag.c ****   if (prev != NULL) {
 151              		.loc 1 172 3 discriminator 1
 152 0030 01A0     		j	.L9
 153              	.LVL15:
 154              	.L8:
 155 0032 2A84     		mv	s0,a0
 156 0034 2E89     		mv	s2,a1
 172:C:/Users/stapi/OneDrive/Desktop/GD32VW553/GD32VW55X_Wifi_BLE_SDK/GD32VW55x_RELEASE_V1.0.2/MSDK/lwip/lwip-2.1.2/src/core/ipv4\ip4_frag.c ****   if (prev != NULL) {
 157              		.loc 1 172 3 discriminator 2
 172:C:/Users/stapi/OneDrive/Desktop/GD32VW553/GD32VW55X_Wifi_BLE_SDK/GD32VW55x_RELEASE_V1.0.2/MSDK/lwip/lwip-2.1.2/src/core/ipv4\ip4_frag.c ****   if (prev != NULL) {
 158              		.loc 1 172 3 discriminator 2
 173:C:/Users/stapi/OneDrive/Desktop/GD32VW553/GD32VW55X_Wifi_BLE_SDK/GD32VW55x_RELEASE_V1.0.2/MSDK/lwip/lwip-2.1.2/src/core/ipv4\ip4_frag.c ****     LWIP_ASSERT("prev->next == ipr", prev->next == ipr);
 159              		.loc 1 173 3 discriminator 2
 173:C:/Users/stapi/OneDrive/Desktop/GD32VW553/GD32VW55X_Wifi_BLE_SDK/GD32VW55x_RELEASE_V1.0.2/MSDK/lwip/lwip-2.1.2/src/core/ipv4\ip4_frag.c ****     LWIP_ASSERT("prev->next == ipr", prev->next == ipr);
 160              		.loc 1 173 6 is_stmt 0 discriminator 2
 161 0036 9DC5     		beq	a1,zero,.L10
 162              	.LVL16:
 174:C:/Users/stapi/OneDrive/Desktop/GD32VW553/GD32VW55X_Wifi_BLE_SDK/GD32VW55x_RELEASE_V1.0.2/MSDK/lwip/lwip-2.1.2/src/core/ipv4\ip4_frag.c ****   }
 163              		.loc 1 174 5 is_stmt 1
 174:C:/Users/stapi/OneDrive/Desktop/GD32VW553/GD32VW55X_Wifi_BLE_SDK/GD32VW55x_RELEASE_V1.0.2/MSDK/lwip/lwip-2.1.2/src/core/ipv4\ip4_frag.c ****   }
 164              		.loc 1 174 5
 165 0038 9C41     		lw	a5,0(a1)
 166 003a 6385A702 		beq	a5,a0,.L10
 174:C:/Users/stapi/OneDrive/Desktop/GD32VW553/GD32VW55X_Wifi_BLE_SDK/GD32VW55x_RELEASE_V1.0.2/MSDK/lwip/lwip-2.1.2/src/core/ipv4\ip4_frag.c ****   }
 167              		.loc 1 174 5 discriminator 1
 174:C:/Users/stapi/OneDrive/Desktop/GD32VW553/GD32VW55X_Wifi_BLE_SDK/GD32VW55x_RELEASE_V1.0.2/MSDK/lwip/lwip-2.1.2/src/core/ipv4\ip4_frag.c ****   }
 168              		.loc 1 174 5 discriminator 1
 169 003e B7060000 		lui	a3,%hi(.LC0)
 170 0042 B7050000 		lui	a1,%hi(.LC4)
 171              	.LVL17:
 172 0046 37050000 		lui	a0,%hi(.LC2)
 173 004a 93860600 		addi	a3,a3,%lo(.LC0)
 174 004e 1306E00A 		li	a2,174
 175 0052 93850500 		addi	a1,a1,%lo(.LC4)
 176 0056 13050500 		addi	a0,a0,%lo(.LC2)
 177 005a 97000000 		call	printf
 177      E7800000 
 178              	.LVL18:
 179              	.L11:
 174:C:/Users/stapi/OneDrive/Desktop/GD32VW553/GD32VW55X_Wifi_BLE_SDK/GD32VW55x_RELEASE_V1.0.2/MSDK/lwip/lwip-2.1.2/src/core/ipv4\ip4_frag.c ****   }
 180              		.loc 1 174 5 discriminator 2
 174:C:/Users/stapi/OneDrive/Desktop/GD32VW553/GD32VW55X_Wifi_BLE_SDK/GD32VW55x_RELEASE_V1.0.2/MSDK/lwip/lwip-2.1.2/src/core/ipv4\ip4_frag.c ****   }
 181              		.loc 1 174 5 discriminator 2
 174:C:/Users/stapi/OneDrive/Desktop/GD32VW553/GD32VW55X_Wifi_BLE_SDK/GD32VW55x_RELEASE_V1.0.2/MSDK/lwip/lwip-2.1.2/src/core/ipv4\ip4_frag.c ****   }
 182              		.loc 1 174 5 discriminator 2
 183 0062 01A0     		j	.L11
 184              	.LVL19:
 185              	.L10:
 186              	.LBB10:
 187              	.LBB11:
 174:C:/Users/stapi/OneDrive/Desktop/GD32VW553/GD32VW55X_Wifi_BLE_SDK/GD32VW55x_RELEASE_V1.0.2/MSDK/lwip/lwip-2.1.2/src/core/ipv4\ip4_frag.c ****   }
 188              		.loc 1 174 5
 174:C:/Users/stapi/OneDrive/Desktop/GD32VW553/GD32VW55X_Wifi_BLE_SDK/GD32VW55x_RELEASE_V1.0.2/MSDK/lwip/lwip-2.1.2/src/core/ipv4\ip4_frag.c ****   }
 189              		.loc 1 174 5
 177:C:/Users/stapi/OneDrive/Desktop/GD32VW553/GD32VW55X_Wifi_BLE_SDK/GD32VW55x_RELEASE_V1.0.2/MSDK/lwip/lwip-2.1.2/src/core/ipv4\ip4_frag.c **** #if LWIP_ICMP
 190              		.loc 1 177 36
 179:C:/Users/stapi/OneDrive/Desktop/GD32VW553/GD32VW55X_Wifi_BLE_SDK/GD32VW55x_RELEASE_V1.0.2/MSDK/lwip/lwip-2.1.2/src/core/ipv4\ip4_frag.c ****   if (iprh->start == 0) {
 191              		.loc 1 179 3
 179:C:/Users/stapi/OneDrive/Desktop/GD32VW553/GD32VW55X_Wifi_BLE_SDK/GD32VW55x_RELEASE_V1.0.2/MSDK/lwip/lwip-2.1.2/src/core/ipv4\ip4_frag.c ****   if (iprh->start == 0) {
 192              		.loc 1 179 39 is_stmt 0
 193 0064 83294400 		lw	s3,4(s0)
 167:C:/Users/stapi/OneDrive/Desktop/GD32VW553/GD32VW55X_Wifi_BLE_SDK/GD32VW55x_RELEASE_V1.0.2/MSDK/lwip/lwip-2.1.2/src/core/ipv4\ip4_frag.c ****   u16_t clen;
 194              		.loc 1 167 9
 195 0068 8144     		li	s1,0
 179:C:/Users/stapi/OneDrive/Desktop/GD32VW553/GD32VW55X_Wifi_BLE_SDK/GD32VW55x_RELEASE_V1.0.2/MSDK/lwip/lwip-2.1.2/src/core/ipv4\ip4_frag.c ****   if (iprh->start == 0) {
 196              		.loc 1 179 8
 197 006a 03A54900 		lw	a0,4(s3)
 198              	.LVL20:
 180:C:/Users/stapi/OneDrive/Desktop/GD32VW553/GD32VW55X_Wifi_BLE_SDK/GD32VW55x_RELEASE_V1.0.2/MSDK/lwip/lwip-2.1.2/src/core/ipv4\ip4_frag.c ****     /* The first fragment was received, send ICMP time exceeded. */
 199              		.loc 1 180 3 is_stmt 1
 180:C:/Users/stapi/OneDrive/Desktop/GD32VW553/GD32VW55X_Wifi_BLE_SDK/GD32VW55x_RELEASE_V1.0.2/MSDK/lwip/lwip-2.1.2/src/core/ipv4\ip4_frag.c ****     /* The first fragment was received, send ICMP time exceeded. */
 200              		.loc 1 180 11 is_stmt 0
 201 006e 83475500 		lbu	a5,5(a0)
 202 0072 03474500 		lbu	a4,4(a0)
 203 0076 A207     		slli	a5,a5,8
 180:C:/Users/stapi/OneDrive/Desktop/GD32VW553/GD32VW55X_Wifi_BLE_SDK/GD32VW55x_RELEASE_V1.0.2/MSDK/lwip/lwip-2.1.2/src/core/ipv4\ip4_frag.c ****     /* The first fragment was received, send ICMP time exceeded. */
 204              		.loc 1 180 6
 205 0078 D98F     		or	a5,a5,a4
 206 007a A1EB     		bne	a5,zero,.L12
 183:C:/Users/stapi/OneDrive/Desktop/GD32VW553/GD32VW55X_Wifi_BLE_SDK/GD32VW55x_RELEASE_V1.0.2/MSDK/lwip/lwip-2.1.2/src/core/ipv4\ip4_frag.c ****     ipr->p = iprh->next_pbuf;
 207              		.loc 1 183 5 is_stmt 1
 208              	.LVL21:
 184:C:/Users/stapi/OneDrive/Desktop/GD32VW553/GD32VW55X_Wifi_BLE_SDK/GD32VW55x_RELEASE_V1.0.2/MSDK/lwip/lwip-2.1.2/src/core/ipv4\ip4_frag.c ****     /* Then, copy the original header into it. */
 209              		.loc 1 184 5
 184:C:/Users/stapi/OneDrive/Desktop/GD32VW553/GD32VW55X_Wifi_BLE_SDK/GD32VW55x_RELEASE_V1.0.2/MSDK/lwip/lwip-2.1.2/src/core/ipv4\ip4_frag.c ****     /* Then, copy the original header into it. */
 210              		.loc 1 184 18 is_stmt 0
 211 007c 03471500 		lbu	a4,1(a0)
 212 0080 83470500 		lbu	a5,0(a0)
 186:C:/Users/stapi/OneDrive/Desktop/GD32VW553/GD32VW55X_Wifi_BLE_SDK/GD32VW55x_RELEASE_V1.0.2/MSDK/lwip/lwip-2.1.2/src/core/ipv4\ip4_frag.c ****     icmp_time_exceeded(p, ICMP_TE_FRAG);
 213              		.loc 1 186 5
 214 0084 5146     		li	a2,20
 184:C:/Users/stapi/OneDrive/Desktop/GD32VW553/GD32VW55X_Wifi_BLE_SDK/GD32VW55x_RELEASE_V1.0.2/MSDK/lwip/lwip-2.1.2/src/core/ipv4\ip4_frag.c ****     /* Then, copy the original header into it. */
 215              		.loc 1 184 18
 216 0086 2207     		slli	a4,a4,8
 217 0088 5D8F     		or	a4,a4,a5
 218 008a 83472500 		lbu	a5,2(a0)
 186:C:/Users/stapi/OneDrive/Desktop/GD32VW553/GD32VW55X_Wifi_BLE_SDK/GD32VW55x_RELEASE_V1.0.2/MSDK/lwip/lwip-2.1.2/src/core/ipv4\ip4_frag.c ****     icmp_time_exceeded(p, ICMP_TE_FRAG);
 219              		.loc 1 186 5
 220 008e 93058400 		addi	a1,s0,8
 221              	.LVL22:
 184:C:/Users/stapi/OneDrive/Desktop/GD32VW553/GD32VW55X_Wifi_BLE_SDK/GD32VW55x_RELEASE_V1.0.2/MSDK/lwip/lwip-2.1.2/src/core/ipv4\ip4_frag.c ****     /* Then, copy the original header into it. */
 222              		.loc 1 184 18
 223 0092 C207     		slli	a5,a5,16
 224 0094 5D8F     		or	a4,a5,a4
 225 0096 83473500 		lbu	a5,3(a0)
 226 009a E207     		slli	a5,a5,24
 227 009c D98F     		or	a5,a5,a4
 184:C:/Users/stapi/OneDrive/Desktop/GD32VW553/GD32VW55X_Wifi_BLE_SDK/GD32VW55x_RELEASE_V1.0.2/MSDK/lwip/lwip-2.1.2/src/core/ipv4\ip4_frag.c ****     /* Then, copy the original header into it. */
 228              		.loc 1 184 12
 229 009e 5CC0     		sw	a5,4(s0)
 186:C:/Users/stapi/OneDrive/Desktop/GD32VW553/GD32VW55X_Wifi_BLE_SDK/GD32VW55x_RELEASE_V1.0.2/MSDK/lwip/lwip-2.1.2/src/core/ipv4\ip4_frag.c ****     icmp_time_exceeded(p, ICMP_TE_FRAG);
 230              		.loc 1 186 5 is_stmt 1
 231 00a0 97000000 		call	memcpy
 231      E7800000 
 232              	.LVL23:
 187:C:/Users/stapi/OneDrive/Desktop/GD32VW553/GD32VW55X_Wifi_BLE_SDK/GD32VW55x_RELEASE_V1.0.2/MSDK/lwip/lwip-2.1.2/src/core/ipv4\ip4_frag.c ****     clen = pbuf_clen(p);
 233              		.loc 1 187 5
 234 00a8 8545     		li	a1,1
 235 00aa 4E85     		mv	a0,s3
 236 00ac 97000000 		call	icmp_time_exceeded
 236      E7800000 
 237              	.LVL24:
 188:C:/Users/stapi/OneDrive/Desktop/GD32VW553/GD32VW55X_Wifi_BLE_SDK/GD32VW55x_RELEASE_V1.0.2/MSDK/lwip/lwip-2.1.2/src/core/ipv4\ip4_frag.c ****     LWIP_ASSERT("pbufs_freed + clen <= 0xffff", pbufs_freed + clen <= 0xffff);
 238              		.loc 1 188 5
 188:C:/Users/stapi/OneDrive/Desktop/GD32VW553/GD32VW55X_Wifi_BLE_SDK/GD32VW55x_RELEASE_V1.0.2/MSDK/lwip/lwip-2.1.2/src/core/ipv4\ip4_frag.c ****     LWIP_ASSERT("pbufs_freed + clen <= 0xffff", pbufs_freed + clen <= 0xffff);
 239              		.loc 1 188 12 is_stmt 0
 240 00b4 4E85     		mv	a0,s3
 241 00b6 97000000 		call	pbuf_clen
 241      E7800000 
 242              	.LVL25:
 243 00be AA84     		mv	s1,a0
 244              	.LVL26:
 189:C:/Users/stapi/OneDrive/Desktop/GD32VW553/GD32VW55X_Wifi_BLE_SDK/GD32VW55x_RELEASE_V1.0.2/MSDK/lwip/lwip-2.1.2/src/core/ipv4\ip4_frag.c ****     pbufs_freed = (u16_t)(pbufs_freed + clen);
 245              		.loc 1 189 5 is_stmt 1
 189:C:/Users/stapi/OneDrive/Desktop/GD32VW553/GD32VW55X_Wifi_BLE_SDK/GD32VW55x_RELEASE_V1.0.2/MSDK/lwip/lwip-2.1.2/src/core/ipv4\ip4_frag.c ****     pbufs_freed = (u16_t)(pbufs_freed + clen);
 246              		.loc 1 189 5
 189:C:/Users/stapi/OneDrive/Desktop/GD32VW553/GD32VW55X_Wifi_BLE_SDK/GD32VW55x_RELEASE_V1.0.2/MSDK/lwip/lwip-2.1.2/src/core/ipv4\ip4_frag.c ****     pbufs_freed = (u16_t)(pbufs_freed + clen);
 247              		.loc 1 189 5
 189:C:/Users/stapi/OneDrive/Desktop/GD32VW553/GD32VW55X_Wifi_BLE_SDK/GD32VW55x_RELEASE_V1.0.2/MSDK/lwip/lwip-2.1.2/src/core/ipv4\ip4_frag.c ****     pbufs_freed = (u16_t)(pbufs_freed + clen);
 248              		.loc 1 189 5
 190:C:/Users/stapi/OneDrive/Desktop/GD32VW553/GD32VW55X_Wifi_BLE_SDK/GD32VW55x_RELEASE_V1.0.2/MSDK/lwip/lwip-2.1.2/src/core/ipv4\ip4_frag.c ****     pbuf_free(p);
 249              		.loc 1 190 5
 191:C:/Users/stapi/OneDrive/Desktop/GD32VW553/GD32VW55X_Wifi_BLE_SDK/GD32VW55x_RELEASE_V1.0.2/MSDK/lwip/lwip-2.1.2/src/core/ipv4\ip4_frag.c ****   }
 250              		.loc 1 191 5
 251 00c0 4E85     		mv	a0,s3
 252 00c2 97000000 		call	pbuf_free
 252      E7800000 
 253              	.LVL27:
 254              	.L12:
 197:C:/Users/stapi/OneDrive/Desktop/GD32VW553/GD32VW55X_Wifi_BLE_SDK/GD32VW55x_RELEASE_V1.0.2/MSDK/lwip/lwip-2.1.2/src/core/ipv4\ip4_frag.c ****   while (p != NULL) {
 255              		.loc 1 197 3
 197:C:/Users/stapi/OneDrive/Desktop/GD32VW553/GD32VW55X_Wifi_BLE_SDK/GD32VW55x_RELEASE_V1.0.2/MSDK/lwip/lwip-2.1.2/src/core/ipv4\ip4_frag.c ****   while (p != NULL) {
 256              		.loc 1 197 5 is_stmt 0
 257 00ca 83294400 		lw	s3,4(s0)
 258              	.LVL28:
 198:C:/Users/stapi/OneDrive/Desktop/GD32VW553/GD32VW55X_Wifi_BLE_SDK/GD32VW55x_RELEASE_V1.0.2/MSDK/lwip/lwip-2.1.2/src/core/ipv4\ip4_frag.c ****     struct pbuf *pcur;
 259              		.loc 1 198 3 is_stmt 1
 260              	.LBB12:
 205:C:/Users/stapi/OneDrive/Desktop/GD32VW553/GD32VW55X_Wifi_BLE_SDK/GD32VW55x_RELEASE_V1.0.2/MSDK/lwip/lwip-2.1.2/src/core/ipv4\ip4_frag.c ****     pbufs_freed = (u16_t)(pbufs_freed + clen);
 261              		.loc 1 205 5 is_stmt 0
 262 00ce C16A     		li	s5,65536
 263              	.L13:
 264              	.LBE12:
 198:C:/Users/stapi/OneDrive/Desktop/GD32VW553/GD32VW55X_Wifi_BLE_SDK/GD32VW55x_RELEASE_V1.0.2/MSDK/lwip/lwip-2.1.2/src/core/ipv4\ip4_frag.c ****     struct pbuf *pcur;
 265              		.loc 1 198 9 is_stmt 1
 266 00d0 63930904 		bne	s3,zero,.L16
 210:C:/Users/stapi/OneDrive/Desktop/GD32VW553/GD32VW55X_Wifi_BLE_SDK/GD32VW55x_RELEASE_V1.0.2/MSDK/lwip/lwip-2.1.2/src/core/ipv4\ip4_frag.c ****   LWIP_ASSERT("ip_reass_pbufcount >= pbufs_freed", ip_reass_pbufcount >= pbufs_freed);
 267              		.loc 1 210 3
 268 00d4 CA85     		mv	a1,s2
 269 00d6 2285     		mv	a0,s0
 270 00d8 97000000 		call	ip_reass_dequeue_datagram
 270      E7800000 
 271              	.LVL29:
 211:C:/Users/stapi/OneDrive/Desktop/GD32VW553/GD32VW55X_Wifi_BLE_SDK/GD32VW55x_RELEASE_V1.0.2/MSDK/lwip/lwip-2.1.2/src/core/ipv4\ip4_frag.c ****   ip_reass_pbufcount = (u16_t)(ip_reass_pbufcount - pbufs_freed);
 272              		.loc 1 211 3
 211:C:/Users/stapi/OneDrive/Desktop/GD32VW553/GD32VW55X_Wifi_BLE_SDK/GD32VW55x_RELEASE_V1.0.2/MSDK/lwip/lwip-2.1.2/src/core/ipv4\ip4_frag.c ****   ip_reass_pbufcount = (u16_t)(ip_reass_pbufcount - pbufs_freed);
 273              		.loc 1 211 3
 274 00e0 B7070000 		lui	a5,%hi(.LANCHOR1)
 275 00e4 93870700 		addi	a5,a5,%lo(.LANCHOR1)
 276 00e8 03D70700 		lhu	a4,0(a5)
 277 00ec 637C9708 		bleu	s1,a4,.L17
 211:C:/Users/stapi/OneDrive/Desktop/GD32VW553/GD32VW55X_Wifi_BLE_SDK/GD32VW55x_RELEASE_V1.0.2/MSDK/lwip/lwip-2.1.2/src/core/ipv4\ip4_frag.c ****   ip_reass_pbufcount = (u16_t)(ip_reass_pbufcount - pbufs_freed);
 278              		.loc 1 211 3
 211:C:/Users/stapi/OneDrive/Desktop/GD32VW553/GD32VW55X_Wifi_BLE_SDK/GD32VW55x_RELEASE_V1.0.2/MSDK/lwip/lwip-2.1.2/src/core/ipv4\ip4_frag.c ****   ip_reass_pbufcount = (u16_t)(ip_reass_pbufcount - pbufs_freed);
 279              		.loc 1 211 3
 280 00f0 B7060000 		lui	a3,%hi(.LC0)
 281 00f4 B7050000 		lui	a1,%hi(.LC6)
 282 00f8 37050000 		lui	a0,%hi(.LC2)
 283 00fc 93860600 		addi	a3,a3,%lo(.LC0)
 284 0100 1306300D 		li	a2,211
 285 0104 93850500 		addi	a1,a1,%lo(.LC6)
 286 0108 13050500 		addi	a0,a0,%lo(.LC2)
 287 010c 97000000 		call	printf
 287      E7800000 
 288              	.LVL30:
 289              	.L18:
 211:C:/Users/stapi/OneDrive/Desktop/GD32VW553/GD32VW55X_Wifi_BLE_SDK/GD32VW55x_RELEASE_V1.0.2/MSDK/lwip/lwip-2.1.2/src/core/ipv4\ip4_frag.c ****   ip_reass_pbufcount = (u16_t)(ip_reass_pbufcount - pbufs_freed);
 290              		.loc 1 211 3
 211:C:/Users/stapi/OneDrive/Desktop/GD32VW553/GD32VW55X_Wifi_BLE_SDK/GD32VW55x_RELEASE_V1.0.2/MSDK/lwip/lwip-2.1.2/src/core/ipv4\ip4_frag.c ****   ip_reass_pbufcount = (u16_t)(ip_reass_pbufcount - pbufs_freed);
 291              		.loc 1 211 3
 211:C:/Users/stapi/OneDrive/Desktop/GD32VW553/GD32VW55X_Wifi_BLE_SDK/GD32VW55x_RELEASE_V1.0.2/MSDK/lwip/lwip-2.1.2/src/core/ipv4\ip4_frag.c ****   ip_reass_pbufcount = (u16_t)(ip_reass_pbufcount - pbufs_freed);
 292              		.loc 1 211 3
 293 0114 01A0     		j	.L18
 294              	.L16:
 295              	.LBB13:
 199:C:/Users/stapi/OneDrive/Desktop/GD32VW553/GD32VW55X_Wifi_BLE_SDK/GD32VW55x_RELEASE_V1.0.2/MSDK/lwip/lwip-2.1.2/src/core/ipv4\ip4_frag.c ****     iprh = (struct ip_reass_helper *)p->payload;
 296              		.loc 1 199 5
 200:C:/Users/stapi/OneDrive/Desktop/GD32VW553/GD32VW55X_Wifi_BLE_SDK/GD32VW55x_RELEASE_V1.0.2/MSDK/lwip/lwip-2.1.2/src/core/ipv4\ip4_frag.c ****     pcur = p;
 297              		.loc 1 200 5
 200:C:/Users/stapi/OneDrive/Desktop/GD32VW553/GD32VW55X_Wifi_BLE_SDK/GD32VW55x_RELEASE_V1.0.2/MSDK/lwip/lwip-2.1.2/src/core/ipv4\ip4_frag.c ****     pcur = p;
 298              		.loc 1 200 10 is_stmt 0
 299 0116 03A74900 		lw	a4,4(s3)
 300              	.LVL31:
 201:C:/Users/stapi/OneDrive/Desktop/GD32VW553/GD32VW55X_Wifi_BLE_SDK/GD32VW55x_RELEASE_V1.0.2/MSDK/lwip/lwip-2.1.2/src/core/ipv4\ip4_frag.c ****     /* get the next pointer before freeing */
 301              		.loc 1 201 5 is_stmt 1
 203:C:/Users/stapi/OneDrive/Desktop/GD32VW553/GD32VW55X_Wifi_BLE_SDK/GD32VW55x_RELEASE_V1.0.2/MSDK/lwip/lwip-2.1.2/src/core/ipv4\ip4_frag.c ****     clen = pbuf_clen(pcur);
 302              		.loc 1 203 5
 204:C:/Users/stapi/OneDrive/Desktop/GD32VW553/GD32VW55X_Wifi_BLE_SDK/GD32VW55x_RELEASE_V1.0.2/MSDK/lwip/lwip-2.1.2/src/core/ipv4\ip4_frag.c ****     LWIP_ASSERT("pbufs_freed + clen <= 0xffff", pbufs_freed + clen <= 0xffff);
 303              		.loc 1 204 12 is_stmt 0
 304 011a 4E85     		mv	a0,s3
 203:C:/Users/stapi/OneDrive/Desktop/GD32VW553/GD32VW55X_Wifi_BLE_SDK/GD32VW55x_RELEASE_V1.0.2/MSDK/lwip/lwip-2.1.2/src/core/ipv4\ip4_frag.c ****     clen = pbuf_clen(pcur);
 305              		.loc 1 203 7
 306 011c 83471700 		lbu	a5,1(a4)
 307 0120 034A0700 		lbu	s4,0(a4)
 308 0124 A207     		slli	a5,a5,8
 309 0126 B3E74701 		or	a5,a5,s4
 310 012a 034A2700 		lbu	s4,2(a4)
 311 012e 420A     		slli	s4,s4,16
 312 0130 B367FA00 		or	a5,s4,a5
 313 0134 034A3700 		lbu	s4,3(a4)
 314 0138 620A     		slli	s4,s4,24
 315 013a 336AFA00 		or	s4,s4,a5
 316              	.LVL32:
 204:C:/Users/stapi/OneDrive/Desktop/GD32VW553/GD32VW55X_Wifi_BLE_SDK/GD32VW55x_RELEASE_V1.0.2/MSDK/lwip/lwip-2.1.2/src/core/ipv4\ip4_frag.c ****     LWIP_ASSERT("pbufs_freed + clen <= 0xffff", pbufs_freed + clen <= 0xffff);
 317              		.loc 1 204 5 is_stmt 1
 204:C:/Users/stapi/OneDrive/Desktop/GD32VW553/GD32VW55X_Wifi_BLE_SDK/GD32VW55x_RELEASE_V1.0.2/MSDK/lwip/lwip-2.1.2/src/core/ipv4\ip4_frag.c ****     LWIP_ASSERT("pbufs_freed + clen <= 0xffff", pbufs_freed + clen <= 0xffff);
 318              		.loc 1 204 12 is_stmt 0
 319 013e 97000000 		call	pbuf_clen
 319      E7800000 
 320              	.LVL33:
 205:C:/Users/stapi/OneDrive/Desktop/GD32VW553/GD32VW55X_Wifi_BLE_SDK/GD32VW55x_RELEASE_V1.0.2/MSDK/lwip/lwip-2.1.2/src/core/ipv4\ip4_frag.c ****     pbufs_freed = (u16_t)(pbufs_freed + clen);
 321              		.loc 1 205 5 is_stmt 1
 205:C:/Users/stapi/OneDrive/Desktop/GD32VW553/GD32VW55X_Wifi_BLE_SDK/GD32VW55x_RELEASE_V1.0.2/MSDK/lwip/lwip-2.1.2/src/core/ipv4\ip4_frag.c ****     pbufs_freed = (u16_t)(pbufs_freed + clen);
 322              		.loc 1 205 5
 323 0146 AA94     		add	s1,s1,a0
 324              	.LVL34:
 325 0148 63C55403 		blt	s1,s5,.L14
 205:C:/Users/stapi/OneDrive/Desktop/GD32VW553/GD32VW55X_Wifi_BLE_SDK/GD32VW55x_RELEASE_V1.0.2/MSDK/lwip/lwip-2.1.2/src/core/ipv4\ip4_frag.c ****     pbufs_freed = (u16_t)(pbufs_freed + clen);
 326              		.loc 1 205 5
 205:C:/Users/stapi/OneDrive/Desktop/GD32VW553/GD32VW55X_Wifi_BLE_SDK/GD32VW55x_RELEASE_V1.0.2/MSDK/lwip/lwip-2.1.2/src/core/ipv4\ip4_frag.c ****     pbufs_freed = (u16_t)(pbufs_freed + clen);
 327              		.loc 1 205 5
 328 014c B7060000 		lui	a3,%hi(.LC0)
 329 0150 B7050000 		lui	a1,%hi(.LC5)
 330 0154 37050000 		lui	a0,%hi(.LC2)
 331              	.LVL35:
 332 0158 93860600 		addi	a3,a3,%lo(.LC0)
 333 015c 1306D00C 		li	a2,205
 334 0160 93850500 		addi	a1,a1,%lo(.LC5)
 335 0164 13050500 		addi	a0,a0,%lo(.LC2)
 336 0168 97000000 		call	printf
 336      E7800000 
 337              	.LVL36:
 338              	.L15:
 205:C:/Users/stapi/OneDrive/Desktop/GD32VW553/GD32VW55X_Wifi_BLE_SDK/GD32VW55x_RELEASE_V1.0.2/MSDK/lwip/lwip-2.1.2/src/core/ipv4\ip4_frag.c ****     pbufs_freed = (u16_t)(pbufs_freed + clen);
 339              		.loc 1 205 5
 205:C:/Users/stapi/OneDrive/Desktop/GD32VW553/GD32VW55X_Wifi_BLE_SDK/GD32VW55x_RELEASE_V1.0.2/MSDK/lwip/lwip-2.1.2/src/core/ipv4\ip4_frag.c ****     pbufs_freed = (u16_t)(pbufs_freed + clen);
 340              		.loc 1 205 5
 205:C:/Users/stapi/OneDrive/Desktop/GD32VW553/GD32VW55X_Wifi_BLE_SDK/GD32VW55x_RELEASE_V1.0.2/MSDK/lwip/lwip-2.1.2/src/core/ipv4\ip4_frag.c ****     pbufs_freed = (u16_t)(pbufs_freed + clen);
 341              		.loc 1 205 5
 342 0170 01A0     		j	.L15
 343              	.LVL37:
 344              	.L14:
 205:C:/Users/stapi/OneDrive/Desktop/GD32VW553/GD32VW55X_Wifi_BLE_SDK/GD32VW55x_RELEASE_V1.0.2/MSDK/lwip/lwip-2.1.2/src/core/ipv4\ip4_frag.c ****     pbufs_freed = (u16_t)(pbufs_freed + clen);
 345              		.loc 1 205 5
 205:C:/Users/stapi/OneDrive/Desktop/GD32VW553/GD32VW55X_Wifi_BLE_SDK/GD32VW55x_RELEASE_V1.0.2/MSDK/lwip/lwip-2.1.2/src/core/ipv4\ip4_frag.c ****     pbufs_freed = (u16_t)(pbufs_freed + clen);
 346              		.loc 1 205 5
 206:C:/Users/stapi/OneDrive/Desktop/GD32VW553/GD32VW55X_Wifi_BLE_SDK/GD32VW55x_RELEASE_V1.0.2/MSDK/lwip/lwip-2.1.2/src/core/ipv4\ip4_frag.c ****     pbuf_free(pcur);
 347              		.loc 1 206 5
 207:C:/Users/stapi/OneDrive/Desktop/GD32VW553/GD32VW55X_Wifi_BLE_SDK/GD32VW55x_RELEASE_V1.0.2/MSDK/lwip/lwip-2.1.2/src/core/ipv4\ip4_frag.c ****   }
 348              		.loc 1 207 5 is_stmt 0
 349 0172 4E85     		mv	a0,s3
 350              	.LVL38:
 351 0174 97000000 		call	pbuf_free
 351      E7800000 
 352              	.LVL39:
 203:C:/Users/stapi/OneDrive/Desktop/GD32VW553/GD32VW55X_Wifi_BLE_SDK/GD32VW55x_RELEASE_V1.0.2/MSDK/lwip/lwip-2.1.2/src/core/ipv4\ip4_frag.c ****     clen = pbuf_clen(pcur);
 353              		.loc 1 203 7
 354 017c D289     		mv	s3,s4
 355              	.LVL40:
 206:C:/Users/stapi/OneDrive/Desktop/GD32VW553/GD32VW55X_Wifi_BLE_SDK/GD32VW55x_RELEASE_V1.0.2/MSDK/lwip/lwip-2.1.2/src/core/ipv4\ip4_frag.c ****     pbuf_free(pcur);
 356              		.loc 1 206 17
 357 017e B3C40408 		zext.h	s1,s1
 358              	.LVL41:
 207:C:/Users/stapi/OneDrive/Desktop/GD32VW553/GD32VW55X_Wifi_BLE_SDK/GD32VW55x_RELEASE_V1.0.2/MSDK/lwip/lwip-2.1.2/src/core/ipv4\ip4_frag.c ****   }
 359              		.loc 1 207 5 is_stmt 1
 360 0182 B9B7     		j	.L13
 361              	.LVL42:
 362              	.L17:
 363              	.LBE13:
 211:C:/Users/stapi/OneDrive/Desktop/GD32VW553/GD32VW55X_Wifi_BLE_SDK/GD32VW55x_RELEASE_V1.0.2/MSDK/lwip/lwip-2.1.2/src/core/ipv4\ip4_frag.c ****   ip_reass_pbufcount = (u16_t)(ip_reass_pbufcount - pbufs_freed);
 364              		.loc 1 211 3
 211:C:/Users/stapi/OneDrive/Desktop/GD32VW553/GD32VW55X_Wifi_BLE_SDK/GD32VW55x_RELEASE_V1.0.2/MSDK/lwip/lwip-2.1.2/src/core/ipv4\ip4_frag.c ****   ip_reass_pbufcount = (u16_t)(ip_reass_pbufcount - pbufs_freed);
 365              		.loc 1 211 3
 212:C:/Users/stapi/OneDrive/Desktop/GD32VW553/GD32VW55X_Wifi_BLE_SDK/GD32VW55x_RELEASE_V1.0.2/MSDK/lwip/lwip-2.1.2/src/core/ipv4\ip4_frag.c **** 
 366              		.loc 1 212 3
 212:C:/Users/stapi/OneDrive/Desktop/GD32VW553/GD32VW55X_Wifi_BLE_SDK/GD32VW55x_RELEASE_V1.0.2/MSDK/lwip/lwip-2.1.2/src/core/ipv4\ip4_frag.c **** 
 367              		.loc 1 212 24 is_stmt 0
 368 0184 058F     		sub	a4,a4,s1
 212:C:/Users/stapi/OneDrive/Desktop/GD32VW553/GD32VW55X_Wifi_BLE_SDK/GD32VW55x_RELEASE_V1.0.2/MSDK/lwip/lwip-2.1.2/src/core/ipv4\ip4_frag.c **** 
 369              		.loc 1 212 22
 370 0186 2390E700 		sh	a4,0(a5)
 214:C:/Users/stapi/OneDrive/Desktop/GD32VW553/GD32VW55X_Wifi_BLE_SDK/GD32VW55x_RELEASE_V1.0.2/MSDK/lwip/lwip-2.1.2/src/core/ipv4\ip4_frag.c **** }
 371              		.loc 1 214 3 is_stmt 1
 372              	.LVL43:
 373              	.LBE11:
 374              	.LBE10:
 215:C:/Users/stapi/OneDrive/Desktop/GD32VW553/GD32VW55X_Wifi_BLE_SDK/GD32VW55x_RELEASE_V1.0.2/MSDK/lwip/lwip-2.1.2/src/core/ipv4\ip4_frag.c **** 
 375              		.loc 1 215 1 is_stmt 0
 376 018a 2685     		mv	a0,s1
 377 018c 17030000 		tail	__riscv_restore_6
 377      67000300 
 378              		.cfi_restore 21
 379              		.cfi_restore 20
 380              		.cfi_restore 19
 381              		.cfi_restore 18
 382              		.cfi_restore 9
 383              		.cfi_restore 8
 384              		.cfi_restore 1
 385              		.cfi_def_cfa_offset 0
 386              		.cfi_endproc
 387              	.LFE5:
 389              		.section	.text.ip_reass_remove_oldest_datagram,"ax",@progbits
 390              		.align	1
 392              	ip_reass_remove_oldest_datagram:
 393              	.LFB6:
 229:C:/Users/stapi/OneDrive/Desktop/GD32VW553/GD32VW55X_Wifi_BLE_SDK/GD32VW55x_RELEASE_V1.0.2/MSDK/lwip/lwip-2.1.2/src/core/ipv4\ip4_frag.c ****   /* @todo Can't we simply remove the last datagram in the
 394              		.loc 1 229 1 is_stmt 1
 395              		.cfi_startproc
 396              	.LVL44:
 397 0000 17030000 		call	t0,__riscv_save_6
 397      E7020300 
 398              		.cfi_offset 21, -28
 399              		.cfi_offset 20, -24
 400              		.cfi_offset 19, -20
 401              		.cfi_offset 18, -16
 402              		.cfi_offset 9, -12
 403              		.cfi_offset 8, -8
 404              		.cfi_offset 1, -4
 405              		.cfi_def_cfa_offset 32
 233:C:/Users/stapi/OneDrive/Desktop/GD32VW553/GD32VW55X_Wifi_BLE_SDK/GD32VW55x_RELEASE_V1.0.2/MSDK/lwip/lwip-2.1.2/src/core/ipv4\ip4_frag.c ****   int pbufs_freed = 0, pbufs_freed_current;
 406              		.loc 1 233 3
 234:C:/Users/stapi/OneDrive/Desktop/GD32VW553/GD32VW55X_Wifi_BLE_SDK/GD32VW55x_RELEASE_V1.0.2/MSDK/lwip/lwip-2.1.2/src/core/ipv4\ip4_frag.c ****   int other_datagrams;
 407              		.loc 1 234 3
 408              	.LVL45:
 229:C:/Users/stapi/OneDrive/Desktop/GD32VW553/GD32VW55X_Wifi_BLE_SDK/GD32VW55x_RELEASE_V1.0.2/MSDK/lwip/lwip-2.1.2/src/core/ipv4\ip4_frag.c ****   /* @todo Can't we simply remove the last datagram in the
 409              		.loc 1 229 1 is_stmt 0
 410 0008 2A84     		mv	s0,a0
 411 000a AE89     		mv	s3,a1
 234:C:/Users/stapi/OneDrive/Desktop/GD32VW553/GD32VW55X_Wifi_BLE_SDK/GD32VW55x_RELEASE_V1.0.2/MSDK/lwip/lwip-2.1.2/src/core/ipv4\ip4_frag.c ****   int other_datagrams;
 412              		.loc 1 234 7
 413 000c 8144     		li	s1,0
 244:C:/Users/stapi/OneDrive/Desktop/GD32VW553/GD32VW55X_Wifi_BLE_SDK/GD32VW55x_RELEASE_V1.0.2/MSDK/lwip/lwip-2.1.2/src/core/ipv4\ip4_frag.c ****     while (r != NULL) {
 414              		.loc 1 244 7
 415 000e B70A0000 		lui	s5,%hi(.LANCHOR0)
 267:C:/Users/stapi/OneDrive/Desktop/GD32VW553/GD32VW55X_Wifi_BLE_SDK/GD32VW55x_RELEASE_V1.0.2/MSDK/lwip/lwip-2.1.2/src/core/ipv4\ip4_frag.c ****   return pbufs_freed;
 416              		.loc 1 267 41
 417 0012 054A     		li	s4,1
 418              	.LVL46:
 419              	.L32:
 235:C:/Users/stapi/OneDrive/Desktop/GD32VW553/GD32VW55X_Wifi_BLE_SDK/GD32VW55x_RELEASE_V1.0.2/MSDK/lwip/lwip-2.1.2/src/core/ipv4\ip4_frag.c **** 
 420              		.loc 1 235 3 is_stmt 1
 239:C:/Users/stapi/OneDrive/Desktop/GD32VW553/GD32VW55X_Wifi_BLE_SDK/GD32VW55x_RELEASE_V1.0.2/MSDK/lwip/lwip-2.1.2/src/core/ipv4\ip4_frag.c ****     oldest = NULL;
 421              		.loc 1 239 3
 240:C:/Users/stapi/OneDrive/Desktop/GD32VW553/GD32VW55X_Wifi_BLE_SDK/GD32VW55x_RELEASE_V1.0.2/MSDK/lwip/lwip-2.1.2/src/core/ipv4\ip4_frag.c ****     prev = NULL;
 422              		.loc 1 240 5
 241:C:/Users/stapi/OneDrive/Desktop/GD32VW553/GD32VW55X_Wifi_BLE_SDK/GD32VW55x_RELEASE_V1.0.2/MSDK/lwip/lwip-2.1.2/src/core/ipv4\ip4_frag.c ****     oldest_prev = NULL;
 423              		.loc 1 241 5
 242:C:/Users/stapi/OneDrive/Desktop/GD32VW553/GD32VW55X_Wifi_BLE_SDK/GD32VW55x_RELEASE_V1.0.2/MSDK/lwip/lwip-2.1.2/src/core/ipv4\ip4_frag.c ****     other_datagrams = 0;
 424              		.loc 1 242 5
 243:C:/Users/stapi/OneDrive/Desktop/GD32VW553/GD32VW55X_Wifi_BLE_SDK/GD32VW55x_RELEASE_V1.0.2/MSDK/lwip/lwip-2.1.2/src/core/ipv4\ip4_frag.c ****     r = reassdatagrams;
 425              		.loc 1 243 5
 244:C:/Users/stapi/OneDrive/Desktop/GD32VW553/GD32VW55X_Wifi_BLE_SDK/GD32VW55x_RELEASE_V1.0.2/MSDK/lwip/lwip-2.1.2/src/core/ipv4\ip4_frag.c ****     while (r != NULL) {
 426              		.loc 1 244 5
 244:C:/Users/stapi/OneDrive/Desktop/GD32VW553/GD32VW55X_Wifi_BLE_SDK/GD32VW55x_RELEASE_V1.0.2/MSDK/lwip/lwip-2.1.2/src/core/ipv4\ip4_frag.c ****     while (r != NULL) {
 427              		.loc 1 244 7 is_stmt 0
 428 0014 83A70A00 		lw	a5,%lo(.LANCHOR0)(s5)
 429              	.LVL47:
 245:C:/Users/stapi/OneDrive/Desktop/GD32VW553/GD32VW55X_Wifi_BLE_SDK/GD32VW55x_RELEASE_V1.0.2/MSDK/lwip/lwip-2.1.2/src/core/ipv4\ip4_frag.c ****       if (!IP_ADDRESSES_AND_ID_MATCH(&r->iphdr, fraghdr)) {
 430              		.loc 1 245 5 is_stmt 1
 243:C:/Users/stapi/OneDrive/Desktop/GD32VW553/GD32VW55X_Wifi_BLE_SDK/GD32VW55x_RELEASE_V1.0.2/MSDK/lwip/lwip-2.1.2/src/core/ipv4\ip4_frag.c ****     r = reassdatagrams;
 431              		.loc 1 243 21 is_stmt 0
 432 0018 0149     		li	s2,0
 242:C:/Users/stapi/OneDrive/Desktop/GD32VW553/GD32VW55X_Wifi_BLE_SDK/GD32VW55x_RELEASE_V1.0.2/MSDK/lwip/lwip-2.1.2/src/core/ipv4\ip4_frag.c ****     other_datagrams = 0;
 433              		.loc 1 242 17
 434 001a 8145     		li	a1,0
 241:C:/Users/stapi/OneDrive/Desktop/GD32VW553/GD32VW55X_Wifi_BLE_SDK/GD32VW55x_RELEASE_V1.0.2/MSDK/lwip/lwip-2.1.2/src/core/ipv4\ip4_frag.c ****     oldest_prev = NULL;
 435              		.loc 1 241 10
 436 001c 0146     		li	a2,0
 240:C:/Users/stapi/OneDrive/Desktop/GD32VW553/GD32VW55X_Wifi_BLE_SDK/GD32VW55x_RELEASE_V1.0.2/MSDK/lwip/lwip-2.1.2/src/core/ipv4\ip4_frag.c ****     prev = NULL;
 437              		.loc 1 240 12
 438 001e 0145     		li	a0,0
 439              	.LVL48:
 440              	.L25:
 245:C:/Users/stapi/OneDrive/Desktop/GD32VW553/GD32VW55X_Wifi_BLE_SDK/GD32VW55x_RELEASE_V1.0.2/MSDK/lwip/lwip-2.1.2/src/core/ipv4\ip4_frag.c ****       if (!IP_ADDRESSES_AND_ID_MATCH(&r->iphdr, fraghdr)) {
 441              		.loc 1 245 11 is_stmt 1
 442 0020 85E3     		bne	a5,zero,.L29
 263:C:/Users/stapi/OneDrive/Desktop/GD32VW553/GD32VW55X_Wifi_BLE_SDK/GD32VW55x_RELEASE_V1.0.2/MSDK/lwip/lwip-2.1.2/src/core/ipv4\ip4_frag.c ****       pbufs_freed_current = ip_reass_free_complete_datagram(oldest, oldest_prev);
 443              		.loc 1 263 5
 263:C:/Users/stapi/OneDrive/Desktop/GD32VW553/GD32VW55X_Wifi_BLE_SDK/GD32VW55x_RELEASE_V1.0.2/MSDK/lwip/lwip-2.1.2/src/core/ipv4\ip4_frag.c ****       pbufs_freed_current = ip_reass_free_complete_datagram(oldest, oldest_prev);
 444              		.loc 1 263 8 is_stmt 0
 445 0022 11C5     		beq	a0,zero,.L30
 264:C:/Users/stapi/OneDrive/Desktop/GD32VW553/GD32VW55X_Wifi_BLE_SDK/GD32VW55x_RELEASE_V1.0.2/MSDK/lwip/lwip-2.1.2/src/core/ipv4\ip4_frag.c ****       pbufs_freed += pbufs_freed_current;
 446              		.loc 1 264 7 is_stmt 1
 264:C:/Users/stapi/OneDrive/Desktop/GD32VW553/GD32VW55X_Wifi_BLE_SDK/GD32VW55x_RELEASE_V1.0.2/MSDK/lwip/lwip-2.1.2/src/core/ipv4\ip4_frag.c ****       pbufs_freed += pbufs_freed_current;
 447              		.loc 1 264 29 is_stmt 0
 448 0024 97000000 		call	ip_reass_free_complete_datagram
 448      E7800000 
 449              	.LVL49:
 265:C:/Users/stapi/OneDrive/Desktop/GD32VW553/GD32VW55X_Wifi_BLE_SDK/GD32VW55x_RELEASE_V1.0.2/MSDK/lwip/lwip-2.1.2/src/core/ipv4\ip4_frag.c ****     }
 450              		.loc 1 265 7 is_stmt 1
 265:C:/Users/stapi/OneDrive/Desktop/GD32VW553/GD32VW55X_Wifi_BLE_SDK/GD32VW55x_RELEASE_V1.0.2/MSDK/lwip/lwip-2.1.2/src/core/ipv4\ip4_frag.c ****     }
 451              		.loc 1 265 19 is_stmt 0
 452 002c AA94     		add	s1,s1,a0
 453              	.LVL50:
 454              	.L30:
 267:C:/Users/stapi/OneDrive/Desktop/GD32VW553/GD32VW55X_Wifi_BLE_SDK/GD32VW55x_RELEASE_V1.0.2/MSDK/lwip/lwip-2.1.2/src/core/ipv4\ip4_frag.c ****   return pbufs_freed;
 455              		.loc 1 267 11 is_stmt 1
 267:C:/Users/stapi/OneDrive/Desktop/GD32VW553/GD32VW55X_Wifi_BLE_SDK/GD32VW55x_RELEASE_V1.0.2/MSDK/lwip/lwip-2.1.2/src/core/ipv4\ip4_frag.c ****   return pbufs_freed;
 456              		.loc 1 267 3 is_stmt 0
 457 002e 63D43401 		bge	s1,s3,.L24
 267:C:/Users/stapi/OneDrive/Desktop/GD32VW553/GD32VW55X_Wifi_BLE_SDK/GD32VW55x_RELEASE_V1.0.2/MSDK/lwip/lwip-2.1.2/src/core/ipv4\ip4_frag.c ****   return pbufs_freed;
 458              		.loc 1 267 41 discriminator 1
 459 0032 E3412AFF 		bgt	s2,s4,.L32
 460              	.L24:
 269:C:/Users/stapi/OneDrive/Desktop/GD32VW553/GD32VW55X_Wifi_BLE_SDK/GD32VW55x_RELEASE_V1.0.2/MSDK/lwip/lwip-2.1.2/src/core/ipv4\ip4_frag.c **** #endif /* IP_REASS_FREE_OLDEST */
 461              		.loc 1 269 1
 462 0036 2685     		mv	a0,s1
 463 0038 17030000 		tail	__riscv_restore_6
 463      67000300 
 464              		.cfi_remember_state
 465              		.cfi_restore 21
 466              		.cfi_restore 20
 467              		.cfi_restore 19
 468              		.cfi_restore 18
 469              		.cfi_restore 9
 470              		.cfi_restore 8
 471              		.cfi_restore 1
 472              		.cfi_def_cfa_offset 0
 473              	.LVL51:
 474              	.L29:
 475              		.cfi_restore_state
 246:C:/Users/stapi/OneDrive/Desktop/GD32VW553/GD32VW55X_Wifi_BLE_SDK/GD32VW55x_RELEASE_V1.0.2/MSDK/lwip/lwip-2.1.2/src/core/ipv4\ip4_frag.c ****         /* Not the same datagram as fraghdr */
 476              		.loc 1 246 7 is_stmt 1
 246:C:/Users/stapi/OneDrive/Desktop/GD32VW553/GD32VW55X_Wifi_BLE_SDK/GD32VW55x_RELEASE_V1.0.2/MSDK/lwip/lwip-2.1.2/src/core/ipv4\ip4_frag.c ****         /* Not the same datagram as fraghdr */
 477              		.loc 1 246 12 is_stmt 0
 478 0040 8346D400 		lbu	a3,13(s0)
 479 0044 0347C400 		lbu	a4,12(s0)
 480 0048 A206     		slli	a3,a3,8
 481 004a D98E     		or	a3,a3,a4
 482 004c 0347E400 		lbu	a4,14(s0)
 483 0050 4207     		slli	a4,a4,16
 484 0052 D98E     		or	a3,a4,a3
 485 0054 0347F400 		lbu	a4,15(s0)
 486 0058 6207     		slli	a4,a4,24
 487 005a 558F     		or	a4,a4,a3
 246:C:/Users/stapi/OneDrive/Desktop/GD32VW553/GD32VW55X_Wifi_BLE_SDK/GD32VW55x_RELEASE_V1.0.2/MSDK/lwip/lwip-2.1.2/src/core/ipv4\ip4_frag.c ****         /* Not the same datagram as fraghdr */
 488              		.loc 1 246 10
 489 005c D44B     		lw	a3,20(a5)
 490 005e 639EE602 		bne	a3,a4,.L26
 246:C:/Users/stapi/OneDrive/Desktop/GD32VW553/GD32VW55X_Wifi_BLE_SDK/GD32VW55x_RELEASE_V1.0.2/MSDK/lwip/lwip-2.1.2/src/core/ipv4\ip4_frag.c ****         /* Not the same datagram as fraghdr */
 491              		.loc 1 246 12 discriminator 1
 492 0062 83461401 		lbu	a3,17(s0)
 493 0066 03470401 		lbu	a4,16(s0)
 494 006a A206     		slli	a3,a3,8
 495 006c D98E     		or	a3,a3,a4
 496 006e 03472401 		lbu	a4,18(s0)
 497 0072 4207     		slli	a4,a4,16
 498 0074 D98E     		or	a3,a4,a3
 499 0076 03473401 		lbu	a4,19(s0)
 500 007a 6207     		slli	a4,a4,24
 501 007c 558F     		or	a4,a4,a3
 502 007e 944F     		lw	a3,24(a5)
 503 0080 639DE600 		bne	a3,a4,.L26
 246:C:/Users/stapi/OneDrive/Desktop/GD32VW553/GD32VW55X_Wifi_BLE_SDK/GD32VW55x_RELEASE_V1.0.2/MSDK/lwip/lwip-2.1.2/src/core/ipv4\ip4_frag.c ****         /* Not the same datagram as fraghdr */
 504              		.loc 1 246 12 discriminator 2
 505 0084 03475400 		lbu	a4,5(s0)
 506 0088 03484400 		lbu	a6,4(s0)
 246:C:/Users/stapi/OneDrive/Desktop/GD32VW553/GD32VW55X_Wifi_BLE_SDK/GD32VW55x_RELEASE_V1.0.2/MSDK/lwip/lwip-2.1.2/src/core/ipv4\ip4_frag.c ****         /* Not the same datagram as fraghdr */
 507              		.loc 1 246 11 discriminator 2
 508 008c 83D6C700 		lhu	a3,12(a5)
 246:C:/Users/stapi/OneDrive/Desktop/GD32VW553/GD32VW55X_Wifi_BLE_SDK/GD32VW55x_RELEASE_V1.0.2/MSDK/lwip/lwip-2.1.2/src/core/ipv4\ip4_frag.c ****         /* Not the same datagram as fraghdr */
 509              		.loc 1 246 12 discriminator 2
 510 0090 2207     		slli	a4,a4,8
 246:C:/Users/stapi/OneDrive/Desktop/GD32VW553/GD32VW55X_Wifi_BLE_SDK/GD32VW55x_RELEASE_V1.0.2/MSDK/lwip/lwip-2.1.2/src/core/ipv4\ip4_frag.c ****         /* Not the same datagram as fraghdr */
 511              		.loc 1 246 11 discriminator 2
 512 0092 33670701 		or	a4,a4,a6
 513 0096 638CE600 		beq	a3,a4,.L27
 514              	.L26:
 248:C:/Users/stapi/OneDrive/Desktop/GD32VW553/GD32VW55X_Wifi_BLE_SDK/GD32VW55x_RELEASE_V1.0.2/MSDK/lwip/lwip-2.1.2/src/core/ipv4\ip4_frag.c ****         if (oldest == NULL) {
 515              		.loc 1 248 9 is_stmt 1
 248:C:/Users/stapi/OneDrive/Desktop/GD32VW553/GD32VW55X_Wifi_BLE_SDK/GD32VW55x_RELEASE_V1.0.2/MSDK/lwip/lwip-2.1.2/src/core/ipv4\ip4_frag.c ****         if (oldest == NULL) {
 516              		.loc 1 248 24 is_stmt 0
 517 009a 0509     		addi	s2,s2,1
 518              	.LVL52:
 249:C:/Users/stapi/OneDrive/Desktop/GD32VW553/GD32VW55X_Wifi_BLE_SDK/GD32VW55x_RELEASE_V1.0.2/MSDK/lwip/lwip-2.1.2/src/core/ipv4\ip4_frag.c ****           oldest = r;
 519              		.loc 1 249 9 is_stmt 1
 249:C:/Users/stapi/OneDrive/Desktop/GD32VW553/GD32VW55X_Wifi_BLE_SDK/GD32VW55x_RELEASE_V1.0.2/MSDK/lwip/lwip-2.1.2/src/core/ipv4\ip4_frag.c ****           oldest = r;
 520              		.loc 1 249 12 is_stmt 0
 521 009c 19C5     		beq	a0,zero,.L33
 252:C:/Users/stapi/OneDrive/Desktop/GD32VW553/GD32VW55X_Wifi_BLE_SDK/GD32VW55x_RELEASE_V1.0.2/MSDK/lwip/lwip-2.1.2/src/core/ipv4\ip4_frag.c ****           /* older than the previous oldest */
 522              		.loc 1 252 16 is_stmt 1
 252:C:/Users/stapi/OneDrive/Desktop/GD32VW553/GD32VW55X_Wifi_BLE_SDK/GD32VW55x_RELEASE_V1.0.2/MSDK/lwip/lwip-2.1.2/src/core/ipv4\ip4_frag.c ****           /* older than the previous oldest */
 523              		.loc 1 252 19 is_stmt 0
 524 009e 83C6F701 		lbu	a3,31(a5)
 525 00a2 0347F501 		lbu	a4,31(a0)
 526 00a6 6364D700 		bgtu	a3,a4,.L27
 527              	.L33:
 251:C:/Users/stapi/OneDrive/Desktop/GD32VW553/GD32VW55X_Wifi_BLE_SDK/GD32VW55x_RELEASE_V1.0.2/MSDK/lwip/lwip-2.1.2/src/core/ipv4\ip4_frag.c ****         } else if (r->timer <= oldest->timer) {
 528              		.loc 1 251 23
 529 00aa B285     		mv	a1,a2
 530              	.LVL53:
 531 00ac 3E85     		mv	a0,a5
 532              	.LVL54:
 533              	.L27:
 258:C:/Users/stapi/OneDrive/Desktop/GD32VW553/GD32VW55X_Wifi_BLE_SDK/GD32VW55x_RELEASE_V1.0.2/MSDK/lwip/lwip-2.1.2/src/core/ipv4\ip4_frag.c ****         prev = r;
 534              		.loc 1 258 7 is_stmt 1
 258:C:/Users/stapi/OneDrive/Desktop/GD32VW553/GD32VW55X_Wifi_BLE_SDK/GD32VW55x_RELEASE_V1.0.2/MSDK/lwip/lwip-2.1.2/src/core/ipv4\ip4_frag.c ****         prev = r;
 535              		.loc 1 258 12 is_stmt 0
 536 00ae 9843     		lw	a4,0(a5)
 258:C:/Users/stapi/OneDrive/Desktop/GD32VW553/GD32VW55X_Wifi_BLE_SDK/GD32VW55x_RELEASE_V1.0.2/MSDK/lwip/lwip-2.1.2/src/core/ipv4\ip4_frag.c ****         prev = r;
 537              		.loc 1 258 10
 538 00b0 11C3     		beq	a4,zero,.L28
 539 00b2 3E86     		mv	a2,a5
 540              	.LVL55:
 541              	.L28:
 258:C:/Users/stapi/OneDrive/Desktop/GD32VW553/GD32VW55X_Wifi_BLE_SDK/GD32VW55x_RELEASE_V1.0.2/MSDK/lwip/lwip-2.1.2/src/core/ipv4\ip4_frag.c ****         prev = r;
 542              		.loc 1 258 12
 543 00b4 BA87     		mv	a5,a4
 544              	.LVL56:
 545 00b6 ADB7     		j	.L25
 546              		.cfi_endproc
 547              	.LFE6:
 549              		.section	.rodata.ip_frag_free_pbuf_custom_ref.str1.4,"aMS",@progbits,1
 550              		.align	2
 551              	.LC7:
 552 0000 7020213D 		.string	"p != NULL"
 552      204E554C 
 552      4C00
 553              		.section	.text.ip_frag_free_pbuf_custom_ref,"ax",@progbits
 554              		.align	1
 556              	ip_frag_free_pbuf_custom_ref:
 557              	.LFB12:
 333:C:/Users/stapi/OneDrive/Desktop/GD32VW553/GD32VW55X_Wifi_BLE_SDK/GD32VW55x_RELEASE_V1.0.2/MSDK/lwip/lwip-2.1.2/src/core/ipv4\ip4_frag.c **** 
 334:C:/Users/stapi/OneDrive/Desktop/GD32VW553/GD32VW55X_Wifi_BLE_SDK/GD32VW55x_RELEASE_V1.0.2/MSDK/lwip/lwip-2.1.2/src/core/ipv4\ip4_frag.c **** /**
 335:C:/Users/stapi/OneDrive/Desktop/GD32VW553/GD32VW55X_Wifi_BLE_SDK/GD32VW55x_RELEASE_V1.0.2/MSDK/lwip/lwip-2.1.2/src/core/ipv4\ip4_frag.c ****  * Chain a new pbuf into the pbuf list that composes the datagram.  The pbuf list
 336:C:/Users/stapi/OneDrive/Desktop/GD32VW553/GD32VW55X_Wifi_BLE_SDK/GD32VW55x_RELEASE_V1.0.2/MSDK/lwip/lwip-2.1.2/src/core/ipv4\ip4_frag.c ****  * will grow over time as  new pbufs are rx.
 337:C:/Users/stapi/OneDrive/Desktop/GD32VW553/GD32VW55X_Wifi_BLE_SDK/GD32VW55x_RELEASE_V1.0.2/MSDK/lwip/lwip-2.1.2/src/core/ipv4\ip4_frag.c ****  * Also checks that the datagram passes basic continuity checks (if the last
 338:C:/Users/stapi/OneDrive/Desktop/GD32VW553/GD32VW55X_Wifi_BLE_SDK/GD32VW55x_RELEASE_V1.0.2/MSDK/lwip/lwip-2.1.2/src/core/ipv4\ip4_frag.c ****  * fragment was received at least once).
 339:C:/Users/stapi/OneDrive/Desktop/GD32VW553/GD32VW55X_Wifi_BLE_SDK/GD32VW55x_RELEASE_V1.0.2/MSDK/lwip/lwip-2.1.2/src/core/ipv4\ip4_frag.c ****  * @param ipr points to the reassembly state
 340:C:/Users/stapi/OneDrive/Desktop/GD32VW553/GD32VW55X_Wifi_BLE_SDK/GD32VW55x_RELEASE_V1.0.2/MSDK/lwip/lwip-2.1.2/src/core/ipv4\ip4_frag.c ****  * @param new_p points to the pbuf for the current fragment
 341:C:/Users/stapi/OneDrive/Desktop/GD32VW553/GD32VW55X_Wifi_BLE_SDK/GD32VW55x_RELEASE_V1.0.2/MSDK/lwip/lwip-2.1.2/src/core/ipv4\ip4_frag.c ****  * @param is_last is 1 if this pbuf has MF==0 (ipr->flags not updated yet)
 342:C:/Users/stapi/OneDrive/Desktop/GD32VW553/GD32VW55X_Wifi_BLE_SDK/GD32VW55x_RELEASE_V1.0.2/MSDK/lwip/lwip-2.1.2/src/core/ipv4\ip4_frag.c ****  * @return see IP_REASS_VALIDATE_* defines
 343:C:/Users/stapi/OneDrive/Desktop/GD32VW553/GD32VW55X_Wifi_BLE_SDK/GD32VW55x_RELEASE_V1.0.2/MSDK/lwip/lwip-2.1.2/src/core/ipv4\ip4_frag.c ****  */
 344:C:/Users/stapi/OneDrive/Desktop/GD32VW553/GD32VW55X_Wifi_BLE_SDK/GD32VW55x_RELEASE_V1.0.2/MSDK/lwip/lwip-2.1.2/src/core/ipv4\ip4_frag.c **** static int
 345:C:/Users/stapi/OneDrive/Desktop/GD32VW553/GD32VW55X_Wifi_BLE_SDK/GD32VW55x_RELEASE_V1.0.2/MSDK/lwip/lwip-2.1.2/src/core/ipv4\ip4_frag.c **** ip_reass_chain_frag_into_datagram_and_validate(struct ip_reassdata *ipr, struct pbuf *new_p, int is
 346:C:/Users/stapi/OneDrive/Desktop/GD32VW553/GD32VW55X_Wifi_BLE_SDK/GD32VW55x_RELEASE_V1.0.2/MSDK/lwip/lwip-2.1.2/src/core/ipv4\ip4_frag.c **** {
 347:C:/Users/stapi/OneDrive/Desktop/GD32VW553/GD32VW55X_Wifi_BLE_SDK/GD32VW55x_RELEASE_V1.0.2/MSDK/lwip/lwip-2.1.2/src/core/ipv4\ip4_frag.c ****   struct ip_reass_helper *iprh, *iprh_tmp, *iprh_prev = NULL;
 348:C:/Users/stapi/OneDrive/Desktop/GD32VW553/GD32VW55X_Wifi_BLE_SDK/GD32VW55x_RELEASE_V1.0.2/MSDK/lwip/lwip-2.1.2/src/core/ipv4\ip4_frag.c ****   struct pbuf *q;
 349:C:/Users/stapi/OneDrive/Desktop/GD32VW553/GD32VW55X_Wifi_BLE_SDK/GD32VW55x_RELEASE_V1.0.2/MSDK/lwip/lwip-2.1.2/src/core/ipv4\ip4_frag.c ****   u16_t offset, len;
 350:C:/Users/stapi/OneDrive/Desktop/GD32VW553/GD32VW55X_Wifi_BLE_SDK/GD32VW55x_RELEASE_V1.0.2/MSDK/lwip/lwip-2.1.2/src/core/ipv4\ip4_frag.c ****   u8_t hlen;
 351:C:/Users/stapi/OneDrive/Desktop/GD32VW553/GD32VW55X_Wifi_BLE_SDK/GD32VW55x_RELEASE_V1.0.2/MSDK/lwip/lwip-2.1.2/src/core/ipv4\ip4_frag.c ****   struct ip_hdr *fraghdr;
 352:C:/Users/stapi/OneDrive/Desktop/GD32VW553/GD32VW55X_Wifi_BLE_SDK/GD32VW55x_RELEASE_V1.0.2/MSDK/lwip/lwip-2.1.2/src/core/ipv4\ip4_frag.c ****   int valid = 1;
 353:C:/Users/stapi/OneDrive/Desktop/GD32VW553/GD32VW55X_Wifi_BLE_SDK/GD32VW55x_RELEASE_V1.0.2/MSDK/lwip/lwip-2.1.2/src/core/ipv4\ip4_frag.c **** 
 354:C:/Users/stapi/OneDrive/Desktop/GD32VW553/GD32VW55X_Wifi_BLE_SDK/GD32VW55x_RELEASE_V1.0.2/MSDK/lwip/lwip-2.1.2/src/core/ipv4\ip4_frag.c ****   /* Extract length and fragment offset from current fragment */
 355:C:/Users/stapi/OneDrive/Desktop/GD32VW553/GD32VW55X_Wifi_BLE_SDK/GD32VW55x_RELEASE_V1.0.2/MSDK/lwip/lwip-2.1.2/src/core/ipv4\ip4_frag.c ****   fraghdr = (struct ip_hdr *)new_p->payload;
 356:C:/Users/stapi/OneDrive/Desktop/GD32VW553/GD32VW55X_Wifi_BLE_SDK/GD32VW55x_RELEASE_V1.0.2/MSDK/lwip/lwip-2.1.2/src/core/ipv4\ip4_frag.c ****   len = lwip_ntohs(IPH_LEN(fraghdr));
 357:C:/Users/stapi/OneDrive/Desktop/GD32VW553/GD32VW55X_Wifi_BLE_SDK/GD32VW55x_RELEASE_V1.0.2/MSDK/lwip/lwip-2.1.2/src/core/ipv4\ip4_frag.c ****   hlen = IPH_HL_BYTES(fraghdr);
 358:C:/Users/stapi/OneDrive/Desktop/GD32VW553/GD32VW55X_Wifi_BLE_SDK/GD32VW55x_RELEASE_V1.0.2/MSDK/lwip/lwip-2.1.2/src/core/ipv4\ip4_frag.c ****   if (hlen > len) {
 359:C:/Users/stapi/OneDrive/Desktop/GD32VW553/GD32VW55X_Wifi_BLE_SDK/GD32VW55x_RELEASE_V1.0.2/MSDK/lwip/lwip-2.1.2/src/core/ipv4\ip4_frag.c ****     /* invalid datagram */
 360:C:/Users/stapi/OneDrive/Desktop/GD32VW553/GD32VW55X_Wifi_BLE_SDK/GD32VW55x_RELEASE_V1.0.2/MSDK/lwip/lwip-2.1.2/src/core/ipv4\ip4_frag.c ****     return IP_REASS_VALIDATE_PBUF_DROPPED;
 361:C:/Users/stapi/OneDrive/Desktop/GD32VW553/GD32VW55X_Wifi_BLE_SDK/GD32VW55x_RELEASE_V1.0.2/MSDK/lwip/lwip-2.1.2/src/core/ipv4\ip4_frag.c ****   }
 362:C:/Users/stapi/OneDrive/Desktop/GD32VW553/GD32VW55X_Wifi_BLE_SDK/GD32VW55x_RELEASE_V1.0.2/MSDK/lwip/lwip-2.1.2/src/core/ipv4\ip4_frag.c ****   len = (u16_t)(len - hlen);
 363:C:/Users/stapi/OneDrive/Desktop/GD32VW553/GD32VW55X_Wifi_BLE_SDK/GD32VW55x_RELEASE_V1.0.2/MSDK/lwip/lwip-2.1.2/src/core/ipv4\ip4_frag.c ****   offset = IPH_OFFSET_BYTES(fraghdr);
 364:C:/Users/stapi/OneDrive/Desktop/GD32VW553/GD32VW55X_Wifi_BLE_SDK/GD32VW55x_RELEASE_V1.0.2/MSDK/lwip/lwip-2.1.2/src/core/ipv4\ip4_frag.c **** 
 365:C:/Users/stapi/OneDrive/Desktop/GD32VW553/GD32VW55X_Wifi_BLE_SDK/GD32VW55x_RELEASE_V1.0.2/MSDK/lwip/lwip-2.1.2/src/core/ipv4\ip4_frag.c ****   /* overwrite the fragment's ip header from the pbuf with our helper struct,
 366:C:/Users/stapi/OneDrive/Desktop/GD32VW553/GD32VW55X_Wifi_BLE_SDK/GD32VW55x_RELEASE_V1.0.2/MSDK/lwip/lwip-2.1.2/src/core/ipv4\ip4_frag.c ****    * and setup the embedded helper structure. */
 367:C:/Users/stapi/OneDrive/Desktop/GD32VW553/GD32VW55X_Wifi_BLE_SDK/GD32VW55x_RELEASE_V1.0.2/MSDK/lwip/lwip-2.1.2/src/core/ipv4\ip4_frag.c ****   /* make sure the struct ip_reass_helper fits into the IP header */
 368:C:/Users/stapi/OneDrive/Desktop/GD32VW553/GD32VW55X_Wifi_BLE_SDK/GD32VW55x_RELEASE_V1.0.2/MSDK/lwip/lwip-2.1.2/src/core/ipv4\ip4_frag.c ****   LWIP_ASSERT("sizeof(struct ip_reass_helper) <= IP_HLEN",
 369:C:/Users/stapi/OneDrive/Desktop/GD32VW553/GD32VW55X_Wifi_BLE_SDK/GD32VW55x_RELEASE_V1.0.2/MSDK/lwip/lwip-2.1.2/src/core/ipv4\ip4_frag.c ****               sizeof(struct ip_reass_helper) <= IP_HLEN);
 370:C:/Users/stapi/OneDrive/Desktop/GD32VW553/GD32VW55X_Wifi_BLE_SDK/GD32VW55x_RELEASE_V1.0.2/MSDK/lwip/lwip-2.1.2/src/core/ipv4\ip4_frag.c ****   iprh = (struct ip_reass_helper *)new_p->payload;
 371:C:/Users/stapi/OneDrive/Desktop/GD32VW553/GD32VW55X_Wifi_BLE_SDK/GD32VW55x_RELEASE_V1.0.2/MSDK/lwip/lwip-2.1.2/src/core/ipv4\ip4_frag.c ****   iprh->next_pbuf = NULL;
 372:C:/Users/stapi/OneDrive/Desktop/GD32VW553/GD32VW55X_Wifi_BLE_SDK/GD32VW55x_RELEASE_V1.0.2/MSDK/lwip/lwip-2.1.2/src/core/ipv4\ip4_frag.c ****   iprh->start = offset;
 373:C:/Users/stapi/OneDrive/Desktop/GD32VW553/GD32VW55X_Wifi_BLE_SDK/GD32VW55x_RELEASE_V1.0.2/MSDK/lwip/lwip-2.1.2/src/core/ipv4\ip4_frag.c ****   iprh->end = (u16_t)(offset + len);
 374:C:/Users/stapi/OneDrive/Desktop/GD32VW553/GD32VW55X_Wifi_BLE_SDK/GD32VW55x_RELEASE_V1.0.2/MSDK/lwip/lwip-2.1.2/src/core/ipv4\ip4_frag.c ****   if (iprh->end < offset) {
 375:C:/Users/stapi/OneDrive/Desktop/GD32VW553/GD32VW55X_Wifi_BLE_SDK/GD32VW55x_RELEASE_V1.0.2/MSDK/lwip/lwip-2.1.2/src/core/ipv4\ip4_frag.c ****     /* u16_t overflow, cannot handle this */
 376:C:/Users/stapi/OneDrive/Desktop/GD32VW553/GD32VW55X_Wifi_BLE_SDK/GD32VW55x_RELEASE_V1.0.2/MSDK/lwip/lwip-2.1.2/src/core/ipv4\ip4_frag.c ****     return IP_REASS_VALIDATE_PBUF_DROPPED;
 377:C:/Users/stapi/OneDrive/Desktop/GD32VW553/GD32VW55X_Wifi_BLE_SDK/GD32VW55x_RELEASE_V1.0.2/MSDK/lwip/lwip-2.1.2/src/core/ipv4\ip4_frag.c ****   }
 378:C:/Users/stapi/OneDrive/Desktop/GD32VW553/GD32VW55X_Wifi_BLE_SDK/GD32VW55x_RELEASE_V1.0.2/MSDK/lwip/lwip-2.1.2/src/core/ipv4\ip4_frag.c **** 
 379:C:/Users/stapi/OneDrive/Desktop/GD32VW553/GD32VW55X_Wifi_BLE_SDK/GD32VW55x_RELEASE_V1.0.2/MSDK/lwip/lwip-2.1.2/src/core/ipv4\ip4_frag.c ****   /* Iterate through until we either get to the end of the list (append),
 380:C:/Users/stapi/OneDrive/Desktop/GD32VW553/GD32VW55X_Wifi_BLE_SDK/GD32VW55x_RELEASE_V1.0.2/MSDK/lwip/lwip-2.1.2/src/core/ipv4\ip4_frag.c ****    * or we find one with a larger offset (insert). */
 381:C:/Users/stapi/OneDrive/Desktop/GD32VW553/GD32VW55X_Wifi_BLE_SDK/GD32VW55x_RELEASE_V1.0.2/MSDK/lwip/lwip-2.1.2/src/core/ipv4\ip4_frag.c ****   for (q = ipr->p; q != NULL;) {
 382:C:/Users/stapi/OneDrive/Desktop/GD32VW553/GD32VW55X_Wifi_BLE_SDK/GD32VW55x_RELEASE_V1.0.2/MSDK/lwip/lwip-2.1.2/src/core/ipv4\ip4_frag.c ****     iprh_tmp = (struct ip_reass_helper *)q->payload;
 383:C:/Users/stapi/OneDrive/Desktop/GD32VW553/GD32VW55X_Wifi_BLE_SDK/GD32VW55x_RELEASE_V1.0.2/MSDK/lwip/lwip-2.1.2/src/core/ipv4\ip4_frag.c ****     if (iprh->start < iprh_tmp->start) {
 384:C:/Users/stapi/OneDrive/Desktop/GD32VW553/GD32VW55X_Wifi_BLE_SDK/GD32VW55x_RELEASE_V1.0.2/MSDK/lwip/lwip-2.1.2/src/core/ipv4\ip4_frag.c ****       /* the new pbuf should be inserted before this */
 385:C:/Users/stapi/OneDrive/Desktop/GD32VW553/GD32VW55X_Wifi_BLE_SDK/GD32VW55x_RELEASE_V1.0.2/MSDK/lwip/lwip-2.1.2/src/core/ipv4\ip4_frag.c ****       iprh->next_pbuf = q;
 386:C:/Users/stapi/OneDrive/Desktop/GD32VW553/GD32VW55X_Wifi_BLE_SDK/GD32VW55x_RELEASE_V1.0.2/MSDK/lwip/lwip-2.1.2/src/core/ipv4\ip4_frag.c ****       if (iprh_prev != NULL) {
 387:C:/Users/stapi/OneDrive/Desktop/GD32VW553/GD32VW55X_Wifi_BLE_SDK/GD32VW55x_RELEASE_V1.0.2/MSDK/lwip/lwip-2.1.2/src/core/ipv4\ip4_frag.c ****         /* not the fragment with the lowest offset */
 388:C:/Users/stapi/OneDrive/Desktop/GD32VW553/GD32VW55X_Wifi_BLE_SDK/GD32VW55x_RELEASE_V1.0.2/MSDK/lwip/lwip-2.1.2/src/core/ipv4\ip4_frag.c **** #if IP_REASS_CHECK_OVERLAP
 389:C:/Users/stapi/OneDrive/Desktop/GD32VW553/GD32VW55X_Wifi_BLE_SDK/GD32VW55x_RELEASE_V1.0.2/MSDK/lwip/lwip-2.1.2/src/core/ipv4\ip4_frag.c ****         if ((iprh->start < iprh_prev->end) || (iprh->end > iprh_tmp->start)) {
 390:C:/Users/stapi/OneDrive/Desktop/GD32VW553/GD32VW55X_Wifi_BLE_SDK/GD32VW55x_RELEASE_V1.0.2/MSDK/lwip/lwip-2.1.2/src/core/ipv4\ip4_frag.c ****           /* fragment overlaps with previous or following, throw away */
 391:C:/Users/stapi/OneDrive/Desktop/GD32VW553/GD32VW55X_Wifi_BLE_SDK/GD32VW55x_RELEASE_V1.0.2/MSDK/lwip/lwip-2.1.2/src/core/ipv4\ip4_frag.c ****           return IP_REASS_VALIDATE_PBUF_DROPPED;
 392:C:/Users/stapi/OneDrive/Desktop/GD32VW553/GD32VW55X_Wifi_BLE_SDK/GD32VW55x_RELEASE_V1.0.2/MSDK/lwip/lwip-2.1.2/src/core/ipv4\ip4_frag.c ****         }
 393:C:/Users/stapi/OneDrive/Desktop/GD32VW553/GD32VW55X_Wifi_BLE_SDK/GD32VW55x_RELEASE_V1.0.2/MSDK/lwip/lwip-2.1.2/src/core/ipv4\ip4_frag.c **** #endif /* IP_REASS_CHECK_OVERLAP */
 394:C:/Users/stapi/OneDrive/Desktop/GD32VW553/GD32VW55X_Wifi_BLE_SDK/GD32VW55x_RELEASE_V1.0.2/MSDK/lwip/lwip-2.1.2/src/core/ipv4\ip4_frag.c ****         iprh_prev->next_pbuf = new_p;
 395:C:/Users/stapi/OneDrive/Desktop/GD32VW553/GD32VW55X_Wifi_BLE_SDK/GD32VW55x_RELEASE_V1.0.2/MSDK/lwip/lwip-2.1.2/src/core/ipv4\ip4_frag.c ****         if (iprh_prev->end != iprh->start) {
 396:C:/Users/stapi/OneDrive/Desktop/GD32VW553/GD32VW55X_Wifi_BLE_SDK/GD32VW55x_RELEASE_V1.0.2/MSDK/lwip/lwip-2.1.2/src/core/ipv4\ip4_frag.c ****           /* There is a fragment missing between the current
 397:C:/Users/stapi/OneDrive/Desktop/GD32VW553/GD32VW55X_Wifi_BLE_SDK/GD32VW55x_RELEASE_V1.0.2/MSDK/lwip/lwip-2.1.2/src/core/ipv4\ip4_frag.c ****            * and the previous fragment */
 398:C:/Users/stapi/OneDrive/Desktop/GD32VW553/GD32VW55X_Wifi_BLE_SDK/GD32VW55x_RELEASE_V1.0.2/MSDK/lwip/lwip-2.1.2/src/core/ipv4\ip4_frag.c ****           valid = 0;
 399:C:/Users/stapi/OneDrive/Desktop/GD32VW553/GD32VW55X_Wifi_BLE_SDK/GD32VW55x_RELEASE_V1.0.2/MSDK/lwip/lwip-2.1.2/src/core/ipv4\ip4_frag.c ****         }
 400:C:/Users/stapi/OneDrive/Desktop/GD32VW553/GD32VW55X_Wifi_BLE_SDK/GD32VW55x_RELEASE_V1.0.2/MSDK/lwip/lwip-2.1.2/src/core/ipv4\ip4_frag.c ****       } else {
 401:C:/Users/stapi/OneDrive/Desktop/GD32VW553/GD32VW55X_Wifi_BLE_SDK/GD32VW55x_RELEASE_V1.0.2/MSDK/lwip/lwip-2.1.2/src/core/ipv4\ip4_frag.c **** #if IP_REASS_CHECK_OVERLAP
 402:C:/Users/stapi/OneDrive/Desktop/GD32VW553/GD32VW55X_Wifi_BLE_SDK/GD32VW55x_RELEASE_V1.0.2/MSDK/lwip/lwip-2.1.2/src/core/ipv4\ip4_frag.c ****         if (iprh->end > iprh_tmp->start) {
 403:C:/Users/stapi/OneDrive/Desktop/GD32VW553/GD32VW55X_Wifi_BLE_SDK/GD32VW55x_RELEASE_V1.0.2/MSDK/lwip/lwip-2.1.2/src/core/ipv4\ip4_frag.c ****           /* fragment overlaps with following, throw away */
 404:C:/Users/stapi/OneDrive/Desktop/GD32VW553/GD32VW55X_Wifi_BLE_SDK/GD32VW55x_RELEASE_V1.0.2/MSDK/lwip/lwip-2.1.2/src/core/ipv4\ip4_frag.c ****           return IP_REASS_VALIDATE_PBUF_DROPPED;
 405:C:/Users/stapi/OneDrive/Desktop/GD32VW553/GD32VW55X_Wifi_BLE_SDK/GD32VW55x_RELEASE_V1.0.2/MSDK/lwip/lwip-2.1.2/src/core/ipv4\ip4_frag.c ****         }
 406:C:/Users/stapi/OneDrive/Desktop/GD32VW553/GD32VW55X_Wifi_BLE_SDK/GD32VW55x_RELEASE_V1.0.2/MSDK/lwip/lwip-2.1.2/src/core/ipv4\ip4_frag.c **** #endif /* IP_REASS_CHECK_OVERLAP */
 407:C:/Users/stapi/OneDrive/Desktop/GD32VW553/GD32VW55X_Wifi_BLE_SDK/GD32VW55x_RELEASE_V1.0.2/MSDK/lwip/lwip-2.1.2/src/core/ipv4\ip4_frag.c ****         /* fragment with the lowest offset */
 408:C:/Users/stapi/OneDrive/Desktop/GD32VW553/GD32VW55X_Wifi_BLE_SDK/GD32VW55x_RELEASE_V1.0.2/MSDK/lwip/lwip-2.1.2/src/core/ipv4\ip4_frag.c ****         ipr->p = new_p;
 409:C:/Users/stapi/OneDrive/Desktop/GD32VW553/GD32VW55X_Wifi_BLE_SDK/GD32VW55x_RELEASE_V1.0.2/MSDK/lwip/lwip-2.1.2/src/core/ipv4\ip4_frag.c ****       }
 410:C:/Users/stapi/OneDrive/Desktop/GD32VW553/GD32VW55X_Wifi_BLE_SDK/GD32VW55x_RELEASE_V1.0.2/MSDK/lwip/lwip-2.1.2/src/core/ipv4\ip4_frag.c ****       break;
 411:C:/Users/stapi/OneDrive/Desktop/GD32VW553/GD32VW55X_Wifi_BLE_SDK/GD32VW55x_RELEASE_V1.0.2/MSDK/lwip/lwip-2.1.2/src/core/ipv4\ip4_frag.c ****     } else if (iprh->start == iprh_tmp->start) {
 412:C:/Users/stapi/OneDrive/Desktop/GD32VW553/GD32VW55X_Wifi_BLE_SDK/GD32VW55x_RELEASE_V1.0.2/MSDK/lwip/lwip-2.1.2/src/core/ipv4\ip4_frag.c ****       /* received the same datagram twice: no need to keep the datagram */
 413:C:/Users/stapi/OneDrive/Desktop/GD32VW553/GD32VW55X_Wifi_BLE_SDK/GD32VW55x_RELEASE_V1.0.2/MSDK/lwip/lwip-2.1.2/src/core/ipv4\ip4_frag.c ****       return IP_REASS_VALIDATE_PBUF_DROPPED;
 414:C:/Users/stapi/OneDrive/Desktop/GD32VW553/GD32VW55X_Wifi_BLE_SDK/GD32VW55x_RELEASE_V1.0.2/MSDK/lwip/lwip-2.1.2/src/core/ipv4\ip4_frag.c **** #if IP_REASS_CHECK_OVERLAP
 415:C:/Users/stapi/OneDrive/Desktop/GD32VW553/GD32VW55X_Wifi_BLE_SDK/GD32VW55x_RELEASE_V1.0.2/MSDK/lwip/lwip-2.1.2/src/core/ipv4\ip4_frag.c ****     } else if (iprh->start < iprh_tmp->end) {
 416:C:/Users/stapi/OneDrive/Desktop/GD32VW553/GD32VW55X_Wifi_BLE_SDK/GD32VW55x_RELEASE_V1.0.2/MSDK/lwip/lwip-2.1.2/src/core/ipv4\ip4_frag.c ****       /* overlap: no need to keep the new datagram */
 417:C:/Users/stapi/OneDrive/Desktop/GD32VW553/GD32VW55X_Wifi_BLE_SDK/GD32VW55x_RELEASE_V1.0.2/MSDK/lwip/lwip-2.1.2/src/core/ipv4\ip4_frag.c ****       return IP_REASS_VALIDATE_PBUF_DROPPED;
 418:C:/Users/stapi/OneDrive/Desktop/GD32VW553/GD32VW55X_Wifi_BLE_SDK/GD32VW55x_RELEASE_V1.0.2/MSDK/lwip/lwip-2.1.2/src/core/ipv4\ip4_frag.c **** #endif /* IP_REASS_CHECK_OVERLAP */
 419:C:/Users/stapi/OneDrive/Desktop/GD32VW553/GD32VW55X_Wifi_BLE_SDK/GD32VW55x_RELEASE_V1.0.2/MSDK/lwip/lwip-2.1.2/src/core/ipv4\ip4_frag.c ****     } else {
 420:C:/Users/stapi/OneDrive/Desktop/GD32VW553/GD32VW55X_Wifi_BLE_SDK/GD32VW55x_RELEASE_V1.0.2/MSDK/lwip/lwip-2.1.2/src/core/ipv4\ip4_frag.c ****       /* Check if the fragments received so far have no holes. */
 421:C:/Users/stapi/OneDrive/Desktop/GD32VW553/GD32VW55X_Wifi_BLE_SDK/GD32VW55x_RELEASE_V1.0.2/MSDK/lwip/lwip-2.1.2/src/core/ipv4\ip4_frag.c ****       if (iprh_prev != NULL) {
 422:C:/Users/stapi/OneDrive/Desktop/GD32VW553/GD32VW55X_Wifi_BLE_SDK/GD32VW55x_RELEASE_V1.0.2/MSDK/lwip/lwip-2.1.2/src/core/ipv4\ip4_frag.c ****         if (iprh_prev->end != iprh_tmp->start) {
 423:C:/Users/stapi/OneDrive/Desktop/GD32VW553/GD32VW55X_Wifi_BLE_SDK/GD32VW55x_RELEASE_V1.0.2/MSDK/lwip/lwip-2.1.2/src/core/ipv4\ip4_frag.c ****           /* There is a fragment missing between the current
 424:C:/Users/stapi/OneDrive/Desktop/GD32VW553/GD32VW55X_Wifi_BLE_SDK/GD32VW55x_RELEASE_V1.0.2/MSDK/lwip/lwip-2.1.2/src/core/ipv4\ip4_frag.c ****            * and the previous fragment */
 425:C:/Users/stapi/OneDrive/Desktop/GD32VW553/GD32VW55X_Wifi_BLE_SDK/GD32VW55x_RELEASE_V1.0.2/MSDK/lwip/lwip-2.1.2/src/core/ipv4\ip4_frag.c ****           valid = 0;
 426:C:/Users/stapi/OneDrive/Desktop/GD32VW553/GD32VW55X_Wifi_BLE_SDK/GD32VW55x_RELEASE_V1.0.2/MSDK/lwip/lwip-2.1.2/src/core/ipv4\ip4_frag.c ****         }
 427:C:/Users/stapi/OneDrive/Desktop/GD32VW553/GD32VW55X_Wifi_BLE_SDK/GD32VW55x_RELEASE_V1.0.2/MSDK/lwip/lwip-2.1.2/src/core/ipv4\ip4_frag.c ****       }
 428:C:/Users/stapi/OneDrive/Desktop/GD32VW553/GD32VW55X_Wifi_BLE_SDK/GD32VW55x_RELEASE_V1.0.2/MSDK/lwip/lwip-2.1.2/src/core/ipv4\ip4_frag.c ****     }
 429:C:/Users/stapi/OneDrive/Desktop/GD32VW553/GD32VW55X_Wifi_BLE_SDK/GD32VW55x_RELEASE_V1.0.2/MSDK/lwip/lwip-2.1.2/src/core/ipv4\ip4_frag.c ****     q = iprh_tmp->next_pbuf;
 430:C:/Users/stapi/OneDrive/Desktop/GD32VW553/GD32VW55X_Wifi_BLE_SDK/GD32VW55x_RELEASE_V1.0.2/MSDK/lwip/lwip-2.1.2/src/core/ipv4\ip4_frag.c ****     iprh_prev = iprh_tmp;
 431:C:/Users/stapi/OneDrive/Desktop/GD32VW553/GD32VW55X_Wifi_BLE_SDK/GD32VW55x_RELEASE_V1.0.2/MSDK/lwip/lwip-2.1.2/src/core/ipv4\ip4_frag.c ****   }
 432:C:/Users/stapi/OneDrive/Desktop/GD32VW553/GD32VW55X_Wifi_BLE_SDK/GD32VW55x_RELEASE_V1.0.2/MSDK/lwip/lwip-2.1.2/src/core/ipv4\ip4_frag.c **** 
 433:C:/Users/stapi/OneDrive/Desktop/GD32VW553/GD32VW55X_Wifi_BLE_SDK/GD32VW55x_RELEASE_V1.0.2/MSDK/lwip/lwip-2.1.2/src/core/ipv4\ip4_frag.c ****   /* If q is NULL, then we made it to the end of the list. Determine what to do now */
 434:C:/Users/stapi/OneDrive/Desktop/GD32VW553/GD32VW55X_Wifi_BLE_SDK/GD32VW55x_RELEASE_V1.0.2/MSDK/lwip/lwip-2.1.2/src/core/ipv4\ip4_frag.c ****   if (q == NULL) {
 435:C:/Users/stapi/OneDrive/Desktop/GD32VW553/GD32VW55X_Wifi_BLE_SDK/GD32VW55x_RELEASE_V1.0.2/MSDK/lwip/lwip-2.1.2/src/core/ipv4\ip4_frag.c ****     if (iprh_prev != NULL) {
 436:C:/Users/stapi/OneDrive/Desktop/GD32VW553/GD32VW55X_Wifi_BLE_SDK/GD32VW55x_RELEASE_V1.0.2/MSDK/lwip/lwip-2.1.2/src/core/ipv4\ip4_frag.c ****       /* this is (for now), the fragment with the highest offset:
 437:C:/Users/stapi/OneDrive/Desktop/GD32VW553/GD32VW55X_Wifi_BLE_SDK/GD32VW55x_RELEASE_V1.0.2/MSDK/lwip/lwip-2.1.2/src/core/ipv4\ip4_frag.c ****        * chain it to the last fragment */
 438:C:/Users/stapi/OneDrive/Desktop/GD32VW553/GD32VW55X_Wifi_BLE_SDK/GD32VW55x_RELEASE_V1.0.2/MSDK/lwip/lwip-2.1.2/src/core/ipv4\ip4_frag.c **** #if IP_REASS_CHECK_OVERLAP
 439:C:/Users/stapi/OneDrive/Desktop/GD32VW553/GD32VW55X_Wifi_BLE_SDK/GD32VW55x_RELEASE_V1.0.2/MSDK/lwip/lwip-2.1.2/src/core/ipv4\ip4_frag.c ****       LWIP_ASSERT("check fragments don't overlap", iprh_prev->end <= iprh->start);
 440:C:/Users/stapi/OneDrive/Desktop/GD32VW553/GD32VW55X_Wifi_BLE_SDK/GD32VW55x_RELEASE_V1.0.2/MSDK/lwip/lwip-2.1.2/src/core/ipv4\ip4_frag.c **** #endif /* IP_REASS_CHECK_OVERLAP */
 441:C:/Users/stapi/OneDrive/Desktop/GD32VW553/GD32VW55X_Wifi_BLE_SDK/GD32VW55x_RELEASE_V1.0.2/MSDK/lwip/lwip-2.1.2/src/core/ipv4\ip4_frag.c ****       iprh_prev->next_pbuf = new_p;
 442:C:/Users/stapi/OneDrive/Desktop/GD32VW553/GD32VW55X_Wifi_BLE_SDK/GD32VW55x_RELEASE_V1.0.2/MSDK/lwip/lwip-2.1.2/src/core/ipv4\ip4_frag.c ****       if (iprh_prev->end != iprh->start) {
 443:C:/Users/stapi/OneDrive/Desktop/GD32VW553/GD32VW55X_Wifi_BLE_SDK/GD32VW55x_RELEASE_V1.0.2/MSDK/lwip/lwip-2.1.2/src/core/ipv4\ip4_frag.c ****         valid = 0;
 444:C:/Users/stapi/OneDrive/Desktop/GD32VW553/GD32VW55X_Wifi_BLE_SDK/GD32VW55x_RELEASE_V1.0.2/MSDK/lwip/lwip-2.1.2/src/core/ipv4\ip4_frag.c ****       }
 445:C:/Users/stapi/OneDrive/Desktop/GD32VW553/GD32VW55X_Wifi_BLE_SDK/GD32VW55x_RELEASE_V1.0.2/MSDK/lwip/lwip-2.1.2/src/core/ipv4\ip4_frag.c ****     } else {
 446:C:/Users/stapi/OneDrive/Desktop/GD32VW553/GD32VW55X_Wifi_BLE_SDK/GD32VW55x_RELEASE_V1.0.2/MSDK/lwip/lwip-2.1.2/src/core/ipv4\ip4_frag.c **** #if IP_REASS_CHECK_OVERLAP
 447:C:/Users/stapi/OneDrive/Desktop/GD32VW553/GD32VW55X_Wifi_BLE_SDK/GD32VW55x_RELEASE_V1.0.2/MSDK/lwip/lwip-2.1.2/src/core/ipv4\ip4_frag.c ****       LWIP_ASSERT("no previous fragment, this must be the first fragment!",
 448:C:/Users/stapi/OneDrive/Desktop/GD32VW553/GD32VW55X_Wifi_BLE_SDK/GD32VW55x_RELEASE_V1.0.2/MSDK/lwip/lwip-2.1.2/src/core/ipv4\ip4_frag.c ****                   ipr->p == NULL);
 449:C:/Users/stapi/OneDrive/Desktop/GD32VW553/GD32VW55X_Wifi_BLE_SDK/GD32VW55x_RELEASE_V1.0.2/MSDK/lwip/lwip-2.1.2/src/core/ipv4\ip4_frag.c **** #endif /* IP_REASS_CHECK_OVERLAP */
 450:C:/Users/stapi/OneDrive/Desktop/GD32VW553/GD32VW55X_Wifi_BLE_SDK/GD32VW55x_RELEASE_V1.0.2/MSDK/lwip/lwip-2.1.2/src/core/ipv4\ip4_frag.c ****       /* this is the first fragment we ever received for this ip datagram */
 451:C:/Users/stapi/OneDrive/Desktop/GD32VW553/GD32VW55X_Wifi_BLE_SDK/GD32VW55x_RELEASE_V1.0.2/MSDK/lwip/lwip-2.1.2/src/core/ipv4\ip4_frag.c ****       ipr->p = new_p;
 452:C:/Users/stapi/OneDrive/Desktop/GD32VW553/GD32VW55X_Wifi_BLE_SDK/GD32VW55x_RELEASE_V1.0.2/MSDK/lwip/lwip-2.1.2/src/core/ipv4\ip4_frag.c ****     }
 453:C:/Users/stapi/OneDrive/Desktop/GD32VW553/GD32VW55X_Wifi_BLE_SDK/GD32VW55x_RELEASE_V1.0.2/MSDK/lwip/lwip-2.1.2/src/core/ipv4\ip4_frag.c ****   }
 454:C:/Users/stapi/OneDrive/Desktop/GD32VW553/GD32VW55X_Wifi_BLE_SDK/GD32VW55x_RELEASE_V1.0.2/MSDK/lwip/lwip-2.1.2/src/core/ipv4\ip4_frag.c **** 
 455:C:/Users/stapi/OneDrive/Desktop/GD32VW553/GD32VW55X_Wifi_BLE_SDK/GD32VW55x_RELEASE_V1.0.2/MSDK/lwip/lwip-2.1.2/src/core/ipv4\ip4_frag.c ****   /* At this point, the validation part begins: */
 456:C:/Users/stapi/OneDrive/Desktop/GD32VW553/GD32VW55X_Wifi_BLE_SDK/GD32VW55x_RELEASE_V1.0.2/MSDK/lwip/lwip-2.1.2/src/core/ipv4\ip4_frag.c ****   /* If we already received the last fragment */
 457:C:/Users/stapi/OneDrive/Desktop/GD32VW553/GD32VW55X_Wifi_BLE_SDK/GD32VW55x_RELEASE_V1.0.2/MSDK/lwip/lwip-2.1.2/src/core/ipv4\ip4_frag.c ****   if (is_last || ((ipr->flags & IP_REASS_FLAG_LASTFRAG) != 0)) {
 458:C:/Users/stapi/OneDrive/Desktop/GD32VW553/GD32VW55X_Wifi_BLE_SDK/GD32VW55x_RELEASE_V1.0.2/MSDK/lwip/lwip-2.1.2/src/core/ipv4\ip4_frag.c ****     /* and had no holes so far */
 459:C:/Users/stapi/OneDrive/Desktop/GD32VW553/GD32VW55X_Wifi_BLE_SDK/GD32VW55x_RELEASE_V1.0.2/MSDK/lwip/lwip-2.1.2/src/core/ipv4\ip4_frag.c ****     if (valid) {
 460:C:/Users/stapi/OneDrive/Desktop/GD32VW553/GD32VW55X_Wifi_BLE_SDK/GD32VW55x_RELEASE_V1.0.2/MSDK/lwip/lwip-2.1.2/src/core/ipv4\ip4_frag.c ****       /* then check if the rest of the fragments is here */
 461:C:/Users/stapi/OneDrive/Desktop/GD32VW553/GD32VW55X_Wifi_BLE_SDK/GD32VW55x_RELEASE_V1.0.2/MSDK/lwip/lwip-2.1.2/src/core/ipv4\ip4_frag.c ****       /* Check if the queue starts with the first datagram */
 462:C:/Users/stapi/OneDrive/Desktop/GD32VW553/GD32VW55X_Wifi_BLE_SDK/GD32VW55x_RELEASE_V1.0.2/MSDK/lwip/lwip-2.1.2/src/core/ipv4\ip4_frag.c ****       if ((ipr->p == NULL) || (((struct ip_reass_helper *)ipr->p->payload)->start != 0)) {
 463:C:/Users/stapi/OneDrive/Desktop/GD32VW553/GD32VW55X_Wifi_BLE_SDK/GD32VW55x_RELEASE_V1.0.2/MSDK/lwip/lwip-2.1.2/src/core/ipv4\ip4_frag.c ****         valid = 0;
 464:C:/Users/stapi/OneDrive/Desktop/GD32VW553/GD32VW55X_Wifi_BLE_SDK/GD32VW55x_RELEASE_V1.0.2/MSDK/lwip/lwip-2.1.2/src/core/ipv4\ip4_frag.c ****       } else {
 465:C:/Users/stapi/OneDrive/Desktop/GD32VW553/GD32VW55X_Wifi_BLE_SDK/GD32VW55x_RELEASE_V1.0.2/MSDK/lwip/lwip-2.1.2/src/core/ipv4\ip4_frag.c ****         /* and check that there are no holes after this datagram */
 466:C:/Users/stapi/OneDrive/Desktop/GD32VW553/GD32VW55X_Wifi_BLE_SDK/GD32VW55x_RELEASE_V1.0.2/MSDK/lwip/lwip-2.1.2/src/core/ipv4\ip4_frag.c ****         iprh_prev = iprh;
 467:C:/Users/stapi/OneDrive/Desktop/GD32VW553/GD32VW55X_Wifi_BLE_SDK/GD32VW55x_RELEASE_V1.0.2/MSDK/lwip/lwip-2.1.2/src/core/ipv4\ip4_frag.c ****         q = iprh->next_pbuf;
 468:C:/Users/stapi/OneDrive/Desktop/GD32VW553/GD32VW55X_Wifi_BLE_SDK/GD32VW55x_RELEASE_V1.0.2/MSDK/lwip/lwip-2.1.2/src/core/ipv4\ip4_frag.c ****         while (q != NULL) {
 469:C:/Users/stapi/OneDrive/Desktop/GD32VW553/GD32VW55X_Wifi_BLE_SDK/GD32VW55x_RELEASE_V1.0.2/MSDK/lwip/lwip-2.1.2/src/core/ipv4\ip4_frag.c ****           iprh = (struct ip_reass_helper *)q->payload;
 470:C:/Users/stapi/OneDrive/Desktop/GD32VW553/GD32VW55X_Wifi_BLE_SDK/GD32VW55x_RELEASE_V1.0.2/MSDK/lwip/lwip-2.1.2/src/core/ipv4\ip4_frag.c ****           if (iprh_prev->end != iprh->start) {
 471:C:/Users/stapi/OneDrive/Desktop/GD32VW553/GD32VW55X_Wifi_BLE_SDK/GD32VW55x_RELEASE_V1.0.2/MSDK/lwip/lwip-2.1.2/src/core/ipv4\ip4_frag.c ****             valid = 0;
 472:C:/Users/stapi/OneDrive/Desktop/GD32VW553/GD32VW55X_Wifi_BLE_SDK/GD32VW55x_RELEASE_V1.0.2/MSDK/lwip/lwip-2.1.2/src/core/ipv4\ip4_frag.c ****             break;
 473:C:/Users/stapi/OneDrive/Desktop/GD32VW553/GD32VW55X_Wifi_BLE_SDK/GD32VW55x_RELEASE_V1.0.2/MSDK/lwip/lwip-2.1.2/src/core/ipv4\ip4_frag.c ****           }
 474:C:/Users/stapi/OneDrive/Desktop/GD32VW553/GD32VW55X_Wifi_BLE_SDK/GD32VW55x_RELEASE_V1.0.2/MSDK/lwip/lwip-2.1.2/src/core/ipv4\ip4_frag.c ****           iprh_prev = iprh;
 475:C:/Users/stapi/OneDrive/Desktop/GD32VW553/GD32VW55X_Wifi_BLE_SDK/GD32VW55x_RELEASE_V1.0.2/MSDK/lwip/lwip-2.1.2/src/core/ipv4\ip4_frag.c ****           q = iprh->next_pbuf;
 476:C:/Users/stapi/OneDrive/Desktop/GD32VW553/GD32VW55X_Wifi_BLE_SDK/GD32VW55x_RELEASE_V1.0.2/MSDK/lwip/lwip-2.1.2/src/core/ipv4\ip4_frag.c ****         }
 477:C:/Users/stapi/OneDrive/Desktop/GD32VW553/GD32VW55X_Wifi_BLE_SDK/GD32VW55x_RELEASE_V1.0.2/MSDK/lwip/lwip-2.1.2/src/core/ipv4\ip4_frag.c ****         /* if still valid, all fragments are received
 478:C:/Users/stapi/OneDrive/Desktop/GD32VW553/GD32VW55X_Wifi_BLE_SDK/GD32VW55x_RELEASE_V1.0.2/MSDK/lwip/lwip-2.1.2/src/core/ipv4\ip4_frag.c ****          * (because to the MF==0 already arrived */
 479:C:/Users/stapi/OneDrive/Desktop/GD32VW553/GD32VW55X_Wifi_BLE_SDK/GD32VW55x_RELEASE_V1.0.2/MSDK/lwip/lwip-2.1.2/src/core/ipv4\ip4_frag.c ****         if (valid) {
 480:C:/Users/stapi/OneDrive/Desktop/GD32VW553/GD32VW55X_Wifi_BLE_SDK/GD32VW55x_RELEASE_V1.0.2/MSDK/lwip/lwip-2.1.2/src/core/ipv4\ip4_frag.c ****           LWIP_ASSERT("sanity check", ipr->p != NULL);
 481:C:/Users/stapi/OneDrive/Desktop/GD32VW553/GD32VW55X_Wifi_BLE_SDK/GD32VW55x_RELEASE_V1.0.2/MSDK/lwip/lwip-2.1.2/src/core/ipv4\ip4_frag.c ****           LWIP_ASSERT("sanity check",
 482:C:/Users/stapi/OneDrive/Desktop/GD32VW553/GD32VW55X_Wifi_BLE_SDK/GD32VW55x_RELEASE_V1.0.2/MSDK/lwip/lwip-2.1.2/src/core/ipv4\ip4_frag.c ****                       ((struct ip_reass_helper *)ipr->p->payload) != iprh);
 483:C:/Users/stapi/OneDrive/Desktop/GD32VW553/GD32VW55X_Wifi_BLE_SDK/GD32VW55x_RELEASE_V1.0.2/MSDK/lwip/lwip-2.1.2/src/core/ipv4\ip4_frag.c ****           LWIP_ASSERT("validate_datagram:next_pbuf!=NULL",
 484:C:/Users/stapi/OneDrive/Desktop/GD32VW553/GD32VW55X_Wifi_BLE_SDK/GD32VW55x_RELEASE_V1.0.2/MSDK/lwip/lwip-2.1.2/src/core/ipv4\ip4_frag.c ****                       iprh->next_pbuf == NULL);
 485:C:/Users/stapi/OneDrive/Desktop/GD32VW553/GD32VW55X_Wifi_BLE_SDK/GD32VW55x_RELEASE_V1.0.2/MSDK/lwip/lwip-2.1.2/src/core/ipv4\ip4_frag.c ****         }
 486:C:/Users/stapi/OneDrive/Desktop/GD32VW553/GD32VW55X_Wifi_BLE_SDK/GD32VW55x_RELEASE_V1.0.2/MSDK/lwip/lwip-2.1.2/src/core/ipv4\ip4_frag.c ****       }
 487:C:/Users/stapi/OneDrive/Desktop/GD32VW553/GD32VW55X_Wifi_BLE_SDK/GD32VW55x_RELEASE_V1.0.2/MSDK/lwip/lwip-2.1.2/src/core/ipv4\ip4_frag.c ****     }
 488:C:/Users/stapi/OneDrive/Desktop/GD32VW553/GD32VW55X_Wifi_BLE_SDK/GD32VW55x_RELEASE_V1.0.2/MSDK/lwip/lwip-2.1.2/src/core/ipv4\ip4_frag.c ****     /* If valid is 0 here, there are some fragments missing in the middle
 489:C:/Users/stapi/OneDrive/Desktop/GD32VW553/GD32VW55X_Wifi_BLE_SDK/GD32VW55x_RELEASE_V1.0.2/MSDK/lwip/lwip-2.1.2/src/core/ipv4\ip4_frag.c ****      * (since MF == 0 has already arrived). Such datagrams simply time out if
 490:C:/Users/stapi/OneDrive/Desktop/GD32VW553/GD32VW55X_Wifi_BLE_SDK/GD32VW55x_RELEASE_V1.0.2/MSDK/lwip/lwip-2.1.2/src/core/ipv4\ip4_frag.c ****      * no more fragments are received... */
 491:C:/Users/stapi/OneDrive/Desktop/GD32VW553/GD32VW55X_Wifi_BLE_SDK/GD32VW55x_RELEASE_V1.0.2/MSDK/lwip/lwip-2.1.2/src/core/ipv4\ip4_frag.c ****     return valid ? IP_REASS_VALIDATE_TELEGRAM_FINISHED : IP_REASS_VALIDATE_PBUF_QUEUED;
 492:C:/Users/stapi/OneDrive/Desktop/GD32VW553/GD32VW55X_Wifi_BLE_SDK/GD32VW55x_RELEASE_V1.0.2/MSDK/lwip/lwip-2.1.2/src/core/ipv4\ip4_frag.c ****   }
 493:C:/Users/stapi/OneDrive/Desktop/GD32VW553/GD32VW55X_Wifi_BLE_SDK/GD32VW55x_RELEASE_V1.0.2/MSDK/lwip/lwip-2.1.2/src/core/ipv4\ip4_frag.c ****   /* If we come here, not all fragments were received, yet! */
 494:C:/Users/stapi/OneDrive/Desktop/GD32VW553/GD32VW55X_Wifi_BLE_SDK/GD32VW55x_RELEASE_V1.0.2/MSDK/lwip/lwip-2.1.2/src/core/ipv4\ip4_frag.c ****   return IP_REASS_VALIDATE_PBUF_QUEUED; /* not yet valid! */
 495:C:/Users/stapi/OneDrive/Desktop/GD32VW553/GD32VW55X_Wifi_BLE_SDK/GD32VW55x_RELEASE_V1.0.2/MSDK/lwip/lwip-2.1.2/src/core/ipv4\ip4_frag.c **** }
 496:C:/Users/stapi/OneDrive/Desktop/GD32VW553/GD32VW55X_Wifi_BLE_SDK/GD32VW55x_RELEASE_V1.0.2/MSDK/lwip/lwip-2.1.2/src/core/ipv4\ip4_frag.c **** 
 497:C:/Users/stapi/OneDrive/Desktop/GD32VW553/GD32VW55X_Wifi_BLE_SDK/GD32VW55x_RELEASE_V1.0.2/MSDK/lwip/lwip-2.1.2/src/core/ipv4\ip4_frag.c **** /**
 498:C:/Users/stapi/OneDrive/Desktop/GD32VW553/GD32VW55X_Wifi_BLE_SDK/GD32VW55x_RELEASE_V1.0.2/MSDK/lwip/lwip-2.1.2/src/core/ipv4\ip4_frag.c ****  * Reassembles incoming IP fragments into an IP datagram.
 499:C:/Users/stapi/OneDrive/Desktop/GD32VW553/GD32VW55X_Wifi_BLE_SDK/GD32VW55x_RELEASE_V1.0.2/MSDK/lwip/lwip-2.1.2/src/core/ipv4\ip4_frag.c ****  *
 500:C:/Users/stapi/OneDrive/Desktop/GD32VW553/GD32VW55X_Wifi_BLE_SDK/GD32VW55x_RELEASE_V1.0.2/MSDK/lwip/lwip-2.1.2/src/core/ipv4\ip4_frag.c ****  * @param p points to a pbuf chain of the fragment
 501:C:/Users/stapi/OneDrive/Desktop/GD32VW553/GD32VW55X_Wifi_BLE_SDK/GD32VW55x_RELEASE_V1.0.2/MSDK/lwip/lwip-2.1.2/src/core/ipv4\ip4_frag.c ****  * @return NULL if reassembly is incomplete, ? otherwise
 502:C:/Users/stapi/OneDrive/Desktop/GD32VW553/GD32VW55X_Wifi_BLE_SDK/GD32VW55x_RELEASE_V1.0.2/MSDK/lwip/lwip-2.1.2/src/core/ipv4\ip4_frag.c ****  */
 503:C:/Users/stapi/OneDrive/Desktop/GD32VW553/GD32VW55X_Wifi_BLE_SDK/GD32VW55x_RELEASE_V1.0.2/MSDK/lwip/lwip-2.1.2/src/core/ipv4\ip4_frag.c **** struct pbuf *
 504:C:/Users/stapi/OneDrive/Desktop/GD32VW553/GD32VW55X_Wifi_BLE_SDK/GD32VW55x_RELEASE_V1.0.2/MSDK/lwip/lwip-2.1.2/src/core/ipv4\ip4_frag.c **** ip4_reass(struct pbuf *p)
 505:C:/Users/stapi/OneDrive/Desktop/GD32VW553/GD32VW55X_Wifi_BLE_SDK/GD32VW55x_RELEASE_V1.0.2/MSDK/lwip/lwip-2.1.2/src/core/ipv4\ip4_frag.c **** {
 506:C:/Users/stapi/OneDrive/Desktop/GD32VW553/GD32VW55X_Wifi_BLE_SDK/GD32VW55x_RELEASE_V1.0.2/MSDK/lwip/lwip-2.1.2/src/core/ipv4\ip4_frag.c ****   struct pbuf *r;
 507:C:/Users/stapi/OneDrive/Desktop/GD32VW553/GD32VW55X_Wifi_BLE_SDK/GD32VW55x_RELEASE_V1.0.2/MSDK/lwip/lwip-2.1.2/src/core/ipv4\ip4_frag.c ****   struct ip_hdr *fraghdr;
 508:C:/Users/stapi/OneDrive/Desktop/GD32VW553/GD32VW55X_Wifi_BLE_SDK/GD32VW55x_RELEASE_V1.0.2/MSDK/lwip/lwip-2.1.2/src/core/ipv4\ip4_frag.c ****   struct ip_reassdata *ipr;
 509:C:/Users/stapi/OneDrive/Desktop/GD32VW553/GD32VW55X_Wifi_BLE_SDK/GD32VW55x_RELEASE_V1.0.2/MSDK/lwip/lwip-2.1.2/src/core/ipv4\ip4_frag.c ****   struct ip_reass_helper *iprh;
 510:C:/Users/stapi/OneDrive/Desktop/GD32VW553/GD32VW55X_Wifi_BLE_SDK/GD32VW55x_RELEASE_V1.0.2/MSDK/lwip/lwip-2.1.2/src/core/ipv4\ip4_frag.c ****   u16_t offset, len, clen;
 511:C:/Users/stapi/OneDrive/Desktop/GD32VW553/GD32VW55X_Wifi_BLE_SDK/GD32VW55x_RELEASE_V1.0.2/MSDK/lwip/lwip-2.1.2/src/core/ipv4\ip4_frag.c ****   u8_t hlen;
 512:C:/Users/stapi/OneDrive/Desktop/GD32VW553/GD32VW55X_Wifi_BLE_SDK/GD32VW55x_RELEASE_V1.0.2/MSDK/lwip/lwip-2.1.2/src/core/ipv4\ip4_frag.c ****   int valid;
 513:C:/Users/stapi/OneDrive/Desktop/GD32VW553/GD32VW55X_Wifi_BLE_SDK/GD32VW55x_RELEASE_V1.0.2/MSDK/lwip/lwip-2.1.2/src/core/ipv4\ip4_frag.c ****   int is_last;
 514:C:/Users/stapi/OneDrive/Desktop/GD32VW553/GD32VW55X_Wifi_BLE_SDK/GD32VW55x_RELEASE_V1.0.2/MSDK/lwip/lwip-2.1.2/src/core/ipv4\ip4_frag.c **** 
 515:C:/Users/stapi/OneDrive/Desktop/GD32VW553/GD32VW55X_Wifi_BLE_SDK/GD32VW55x_RELEASE_V1.0.2/MSDK/lwip/lwip-2.1.2/src/core/ipv4\ip4_frag.c ****   IPFRAG_STATS_INC(ip_frag.recv);
 516:C:/Users/stapi/OneDrive/Desktop/GD32VW553/GD32VW55X_Wifi_BLE_SDK/GD32VW55x_RELEASE_V1.0.2/MSDK/lwip/lwip-2.1.2/src/core/ipv4\ip4_frag.c ****   MIB2_STATS_INC(mib2.ipreasmreqds);
 517:C:/Users/stapi/OneDrive/Desktop/GD32VW553/GD32VW55X_Wifi_BLE_SDK/GD32VW55x_RELEASE_V1.0.2/MSDK/lwip/lwip-2.1.2/src/core/ipv4\ip4_frag.c **** 
 518:C:/Users/stapi/OneDrive/Desktop/GD32VW553/GD32VW55X_Wifi_BLE_SDK/GD32VW55x_RELEASE_V1.0.2/MSDK/lwip/lwip-2.1.2/src/core/ipv4\ip4_frag.c ****   fraghdr = (struct ip_hdr *)p->payload;
 519:C:/Users/stapi/OneDrive/Desktop/GD32VW553/GD32VW55X_Wifi_BLE_SDK/GD32VW55x_RELEASE_V1.0.2/MSDK/lwip/lwip-2.1.2/src/core/ipv4\ip4_frag.c **** 
 520:C:/Users/stapi/OneDrive/Desktop/GD32VW553/GD32VW55X_Wifi_BLE_SDK/GD32VW55x_RELEASE_V1.0.2/MSDK/lwip/lwip-2.1.2/src/core/ipv4\ip4_frag.c ****   if (IPH_HL_BYTES(fraghdr) != IP_HLEN) {
 521:C:/Users/stapi/OneDrive/Desktop/GD32VW553/GD32VW55X_Wifi_BLE_SDK/GD32VW55x_RELEASE_V1.0.2/MSDK/lwip/lwip-2.1.2/src/core/ipv4\ip4_frag.c ****     LWIP_DEBUGF(IP_REASS_DEBUG, ("ip4_reass: IP options currently not supported!\n"));
 522:C:/Users/stapi/OneDrive/Desktop/GD32VW553/GD32VW55X_Wifi_BLE_SDK/GD32VW55x_RELEASE_V1.0.2/MSDK/lwip/lwip-2.1.2/src/core/ipv4\ip4_frag.c ****     IPFRAG_STATS_INC(ip_frag.err);
 523:C:/Users/stapi/OneDrive/Desktop/GD32VW553/GD32VW55X_Wifi_BLE_SDK/GD32VW55x_RELEASE_V1.0.2/MSDK/lwip/lwip-2.1.2/src/core/ipv4\ip4_frag.c ****     goto nullreturn;
 524:C:/Users/stapi/OneDrive/Desktop/GD32VW553/GD32VW55X_Wifi_BLE_SDK/GD32VW55x_RELEASE_V1.0.2/MSDK/lwip/lwip-2.1.2/src/core/ipv4\ip4_frag.c ****   }
 525:C:/Users/stapi/OneDrive/Desktop/GD32VW553/GD32VW55X_Wifi_BLE_SDK/GD32VW55x_RELEASE_V1.0.2/MSDK/lwip/lwip-2.1.2/src/core/ipv4\ip4_frag.c **** 
 526:C:/Users/stapi/OneDrive/Desktop/GD32VW553/GD32VW55X_Wifi_BLE_SDK/GD32VW55x_RELEASE_V1.0.2/MSDK/lwip/lwip-2.1.2/src/core/ipv4\ip4_frag.c ****   offset = IPH_OFFSET_BYTES(fraghdr);
 527:C:/Users/stapi/OneDrive/Desktop/GD32VW553/GD32VW55X_Wifi_BLE_SDK/GD32VW55x_RELEASE_V1.0.2/MSDK/lwip/lwip-2.1.2/src/core/ipv4\ip4_frag.c ****   len = lwip_ntohs(IPH_LEN(fraghdr));
 528:C:/Users/stapi/OneDrive/Desktop/GD32VW553/GD32VW55X_Wifi_BLE_SDK/GD32VW55x_RELEASE_V1.0.2/MSDK/lwip/lwip-2.1.2/src/core/ipv4\ip4_frag.c ****   hlen = IPH_HL_BYTES(fraghdr);
 529:C:/Users/stapi/OneDrive/Desktop/GD32VW553/GD32VW55X_Wifi_BLE_SDK/GD32VW55x_RELEASE_V1.0.2/MSDK/lwip/lwip-2.1.2/src/core/ipv4\ip4_frag.c ****   if (hlen > len) {
 530:C:/Users/stapi/OneDrive/Desktop/GD32VW553/GD32VW55X_Wifi_BLE_SDK/GD32VW55x_RELEASE_V1.0.2/MSDK/lwip/lwip-2.1.2/src/core/ipv4\ip4_frag.c ****     /* invalid datagram */
 531:C:/Users/stapi/OneDrive/Desktop/GD32VW553/GD32VW55X_Wifi_BLE_SDK/GD32VW55x_RELEASE_V1.0.2/MSDK/lwip/lwip-2.1.2/src/core/ipv4\ip4_frag.c ****     goto nullreturn;
 532:C:/Users/stapi/OneDrive/Desktop/GD32VW553/GD32VW55X_Wifi_BLE_SDK/GD32VW55x_RELEASE_V1.0.2/MSDK/lwip/lwip-2.1.2/src/core/ipv4\ip4_frag.c ****   }
 533:C:/Users/stapi/OneDrive/Desktop/GD32VW553/GD32VW55X_Wifi_BLE_SDK/GD32VW55x_RELEASE_V1.0.2/MSDK/lwip/lwip-2.1.2/src/core/ipv4\ip4_frag.c ****   len = (u16_t)(len - hlen);
 534:C:/Users/stapi/OneDrive/Desktop/GD32VW553/GD32VW55X_Wifi_BLE_SDK/GD32VW55x_RELEASE_V1.0.2/MSDK/lwip/lwip-2.1.2/src/core/ipv4\ip4_frag.c **** 
 535:C:/Users/stapi/OneDrive/Desktop/GD32VW553/GD32VW55X_Wifi_BLE_SDK/GD32VW55x_RELEASE_V1.0.2/MSDK/lwip/lwip-2.1.2/src/core/ipv4\ip4_frag.c ****   /* Check if we are allowed to enqueue more datagrams. */
 536:C:/Users/stapi/OneDrive/Desktop/GD32VW553/GD32VW55X_Wifi_BLE_SDK/GD32VW55x_RELEASE_V1.0.2/MSDK/lwip/lwip-2.1.2/src/core/ipv4\ip4_frag.c ****   clen = pbuf_clen(p);
 537:C:/Users/stapi/OneDrive/Desktop/GD32VW553/GD32VW55X_Wifi_BLE_SDK/GD32VW55x_RELEASE_V1.0.2/MSDK/lwip/lwip-2.1.2/src/core/ipv4\ip4_frag.c ****   if ((ip_reass_pbufcount + clen) > IP_REASS_MAX_PBUFS) {
 538:C:/Users/stapi/OneDrive/Desktop/GD32VW553/GD32VW55X_Wifi_BLE_SDK/GD32VW55x_RELEASE_V1.0.2/MSDK/lwip/lwip-2.1.2/src/core/ipv4\ip4_frag.c **** #if IP_REASS_FREE_OLDEST
 539:C:/Users/stapi/OneDrive/Desktop/GD32VW553/GD32VW55X_Wifi_BLE_SDK/GD32VW55x_RELEASE_V1.0.2/MSDK/lwip/lwip-2.1.2/src/core/ipv4\ip4_frag.c ****     if (!ip_reass_remove_oldest_datagram(fraghdr, clen) ||
 540:C:/Users/stapi/OneDrive/Desktop/GD32VW553/GD32VW55X_Wifi_BLE_SDK/GD32VW55x_RELEASE_V1.0.2/MSDK/lwip/lwip-2.1.2/src/core/ipv4\ip4_frag.c ****         ((ip_reass_pbufcount + clen) > IP_REASS_MAX_PBUFS))
 541:C:/Users/stapi/OneDrive/Desktop/GD32VW553/GD32VW55X_Wifi_BLE_SDK/GD32VW55x_RELEASE_V1.0.2/MSDK/lwip/lwip-2.1.2/src/core/ipv4\ip4_frag.c **** #endif /* IP_REASS_FREE_OLDEST */
 542:C:/Users/stapi/OneDrive/Desktop/GD32VW553/GD32VW55X_Wifi_BLE_SDK/GD32VW55x_RELEASE_V1.0.2/MSDK/lwip/lwip-2.1.2/src/core/ipv4\ip4_frag.c ****     {
 543:C:/Users/stapi/OneDrive/Desktop/GD32VW553/GD32VW55X_Wifi_BLE_SDK/GD32VW55x_RELEASE_V1.0.2/MSDK/lwip/lwip-2.1.2/src/core/ipv4\ip4_frag.c ****       /* No datagram could be freed and still too many pbufs enqueued */
 544:C:/Users/stapi/OneDrive/Desktop/GD32VW553/GD32VW55X_Wifi_BLE_SDK/GD32VW55x_RELEASE_V1.0.2/MSDK/lwip/lwip-2.1.2/src/core/ipv4\ip4_frag.c ****       LWIP_DEBUGF(IP_REASS_DEBUG, ("ip4_reass: Overflow condition: pbufct=%d, clen=%d, MAX=%d\n",
 545:C:/Users/stapi/OneDrive/Desktop/GD32VW553/GD32VW55X_Wifi_BLE_SDK/GD32VW55x_RELEASE_V1.0.2/MSDK/lwip/lwip-2.1.2/src/core/ipv4\ip4_frag.c ****                                    ip_reass_pbufcount, clen, IP_REASS_MAX_PBUFS));
 546:C:/Users/stapi/OneDrive/Desktop/GD32VW553/GD32VW55X_Wifi_BLE_SDK/GD32VW55x_RELEASE_V1.0.2/MSDK/lwip/lwip-2.1.2/src/core/ipv4\ip4_frag.c ****       IPFRAG_STATS_INC(ip_frag.memerr);
 547:C:/Users/stapi/OneDrive/Desktop/GD32VW553/GD32VW55X_Wifi_BLE_SDK/GD32VW55x_RELEASE_V1.0.2/MSDK/lwip/lwip-2.1.2/src/core/ipv4\ip4_frag.c ****       /* @todo: send ICMP time exceeded here? */
 548:C:/Users/stapi/OneDrive/Desktop/GD32VW553/GD32VW55X_Wifi_BLE_SDK/GD32VW55x_RELEASE_V1.0.2/MSDK/lwip/lwip-2.1.2/src/core/ipv4\ip4_frag.c ****       /* drop this pbuf */
 549:C:/Users/stapi/OneDrive/Desktop/GD32VW553/GD32VW55X_Wifi_BLE_SDK/GD32VW55x_RELEASE_V1.0.2/MSDK/lwip/lwip-2.1.2/src/core/ipv4\ip4_frag.c ****       goto nullreturn;
 550:C:/Users/stapi/OneDrive/Desktop/GD32VW553/GD32VW55X_Wifi_BLE_SDK/GD32VW55x_RELEASE_V1.0.2/MSDK/lwip/lwip-2.1.2/src/core/ipv4\ip4_frag.c ****     }
 551:C:/Users/stapi/OneDrive/Desktop/GD32VW553/GD32VW55X_Wifi_BLE_SDK/GD32VW55x_RELEASE_V1.0.2/MSDK/lwip/lwip-2.1.2/src/core/ipv4\ip4_frag.c ****   }
 552:C:/Users/stapi/OneDrive/Desktop/GD32VW553/GD32VW55X_Wifi_BLE_SDK/GD32VW55x_RELEASE_V1.0.2/MSDK/lwip/lwip-2.1.2/src/core/ipv4\ip4_frag.c **** 
 553:C:/Users/stapi/OneDrive/Desktop/GD32VW553/GD32VW55X_Wifi_BLE_SDK/GD32VW55x_RELEASE_V1.0.2/MSDK/lwip/lwip-2.1.2/src/core/ipv4\ip4_frag.c ****   /* Look for the datagram the fragment belongs to in the current datagram queue,
 554:C:/Users/stapi/OneDrive/Desktop/GD32VW553/GD32VW55X_Wifi_BLE_SDK/GD32VW55x_RELEASE_V1.0.2/MSDK/lwip/lwip-2.1.2/src/core/ipv4\ip4_frag.c ****    * remembering the previous in the queue for later dequeueing. */
 555:C:/Users/stapi/OneDrive/Desktop/GD32VW553/GD32VW55X_Wifi_BLE_SDK/GD32VW55x_RELEASE_V1.0.2/MSDK/lwip/lwip-2.1.2/src/core/ipv4\ip4_frag.c ****   for (ipr = reassdatagrams; ipr != NULL; ipr = ipr->next) {
 556:C:/Users/stapi/OneDrive/Desktop/GD32VW553/GD32VW55X_Wifi_BLE_SDK/GD32VW55x_RELEASE_V1.0.2/MSDK/lwip/lwip-2.1.2/src/core/ipv4\ip4_frag.c ****     /* Check if the incoming fragment matches the one currently present
 557:C:/Users/stapi/OneDrive/Desktop/GD32VW553/GD32VW55X_Wifi_BLE_SDK/GD32VW55x_RELEASE_V1.0.2/MSDK/lwip/lwip-2.1.2/src/core/ipv4\ip4_frag.c ****        in the reassembly buffer. If so, we proceed with copying the
 558:C:/Users/stapi/OneDrive/Desktop/GD32VW553/GD32VW55X_Wifi_BLE_SDK/GD32VW55x_RELEASE_V1.0.2/MSDK/lwip/lwip-2.1.2/src/core/ipv4\ip4_frag.c ****        fragment into the buffer. */
 559:C:/Users/stapi/OneDrive/Desktop/GD32VW553/GD32VW55X_Wifi_BLE_SDK/GD32VW55x_RELEASE_V1.0.2/MSDK/lwip/lwip-2.1.2/src/core/ipv4\ip4_frag.c ****     if (IP_ADDRESSES_AND_ID_MATCH(&ipr->iphdr, fraghdr)) {
 560:C:/Users/stapi/OneDrive/Desktop/GD32VW553/GD32VW55X_Wifi_BLE_SDK/GD32VW55x_RELEASE_V1.0.2/MSDK/lwip/lwip-2.1.2/src/core/ipv4\ip4_frag.c ****       LWIP_DEBUGF(IP_REASS_DEBUG, ("ip4_reass: matching previous fragment ID=%"X16_F"\n",
 561:C:/Users/stapi/OneDrive/Desktop/GD32VW553/GD32VW55X_Wifi_BLE_SDK/GD32VW55x_RELEASE_V1.0.2/MSDK/lwip/lwip-2.1.2/src/core/ipv4\ip4_frag.c ****                                    lwip_ntohs(IPH_ID(fraghdr))));
 562:C:/Users/stapi/OneDrive/Desktop/GD32VW553/GD32VW55X_Wifi_BLE_SDK/GD32VW55x_RELEASE_V1.0.2/MSDK/lwip/lwip-2.1.2/src/core/ipv4\ip4_frag.c ****       IPFRAG_STATS_INC(ip_frag.cachehit);
 563:C:/Users/stapi/OneDrive/Desktop/GD32VW553/GD32VW55X_Wifi_BLE_SDK/GD32VW55x_RELEASE_V1.0.2/MSDK/lwip/lwip-2.1.2/src/core/ipv4\ip4_frag.c ****       break;
 564:C:/Users/stapi/OneDrive/Desktop/GD32VW553/GD32VW55X_Wifi_BLE_SDK/GD32VW55x_RELEASE_V1.0.2/MSDK/lwip/lwip-2.1.2/src/core/ipv4\ip4_frag.c ****     }
 565:C:/Users/stapi/OneDrive/Desktop/GD32VW553/GD32VW55X_Wifi_BLE_SDK/GD32VW55x_RELEASE_V1.0.2/MSDK/lwip/lwip-2.1.2/src/core/ipv4\ip4_frag.c ****   }
 566:C:/Users/stapi/OneDrive/Desktop/GD32VW553/GD32VW55X_Wifi_BLE_SDK/GD32VW55x_RELEASE_V1.0.2/MSDK/lwip/lwip-2.1.2/src/core/ipv4\ip4_frag.c **** 
 567:C:/Users/stapi/OneDrive/Desktop/GD32VW553/GD32VW55X_Wifi_BLE_SDK/GD32VW55x_RELEASE_V1.0.2/MSDK/lwip/lwip-2.1.2/src/core/ipv4\ip4_frag.c ****   if (ipr == NULL) {
 568:C:/Users/stapi/OneDrive/Desktop/GD32VW553/GD32VW55X_Wifi_BLE_SDK/GD32VW55x_RELEASE_V1.0.2/MSDK/lwip/lwip-2.1.2/src/core/ipv4\ip4_frag.c ****     /* Enqueue a new datagram into the datagram queue */
 569:C:/Users/stapi/OneDrive/Desktop/GD32VW553/GD32VW55X_Wifi_BLE_SDK/GD32VW55x_RELEASE_V1.0.2/MSDK/lwip/lwip-2.1.2/src/core/ipv4\ip4_frag.c ****     ipr = ip_reass_enqueue_new_datagram(fraghdr, clen);
 570:C:/Users/stapi/OneDrive/Desktop/GD32VW553/GD32VW55X_Wifi_BLE_SDK/GD32VW55x_RELEASE_V1.0.2/MSDK/lwip/lwip-2.1.2/src/core/ipv4\ip4_frag.c ****     /* Bail if unable to enqueue */
 571:C:/Users/stapi/OneDrive/Desktop/GD32VW553/GD32VW55X_Wifi_BLE_SDK/GD32VW55x_RELEASE_V1.0.2/MSDK/lwip/lwip-2.1.2/src/core/ipv4\ip4_frag.c ****     if (ipr == NULL) {
 572:C:/Users/stapi/OneDrive/Desktop/GD32VW553/GD32VW55X_Wifi_BLE_SDK/GD32VW55x_RELEASE_V1.0.2/MSDK/lwip/lwip-2.1.2/src/core/ipv4\ip4_frag.c ****       goto nullreturn;
 573:C:/Users/stapi/OneDrive/Desktop/GD32VW553/GD32VW55X_Wifi_BLE_SDK/GD32VW55x_RELEASE_V1.0.2/MSDK/lwip/lwip-2.1.2/src/core/ipv4\ip4_frag.c ****     }
 574:C:/Users/stapi/OneDrive/Desktop/GD32VW553/GD32VW55X_Wifi_BLE_SDK/GD32VW55x_RELEASE_V1.0.2/MSDK/lwip/lwip-2.1.2/src/core/ipv4\ip4_frag.c ****   } else {
 575:C:/Users/stapi/OneDrive/Desktop/GD32VW553/GD32VW55X_Wifi_BLE_SDK/GD32VW55x_RELEASE_V1.0.2/MSDK/lwip/lwip-2.1.2/src/core/ipv4\ip4_frag.c ****     if (((lwip_ntohs(IPH_OFFSET(fraghdr)) & IP_OFFMASK) == 0) &&
 576:C:/Users/stapi/OneDrive/Desktop/GD32VW553/GD32VW55X_Wifi_BLE_SDK/GD32VW55x_RELEASE_V1.0.2/MSDK/lwip/lwip-2.1.2/src/core/ipv4\ip4_frag.c ****         ((lwip_ntohs(IPH_OFFSET(&ipr->iphdr)) & IP_OFFMASK) != 0)) {
 577:C:/Users/stapi/OneDrive/Desktop/GD32VW553/GD32VW55X_Wifi_BLE_SDK/GD32VW55x_RELEASE_V1.0.2/MSDK/lwip/lwip-2.1.2/src/core/ipv4\ip4_frag.c ****       /* ipr->iphdr is not the header from the first fragment, but fraghdr is
 578:C:/Users/stapi/OneDrive/Desktop/GD32VW553/GD32VW55X_Wifi_BLE_SDK/GD32VW55x_RELEASE_V1.0.2/MSDK/lwip/lwip-2.1.2/src/core/ipv4\ip4_frag.c ****        * -> copy fraghdr into ipr->iphdr since we want to have the header
 579:C:/Users/stapi/OneDrive/Desktop/GD32VW553/GD32VW55X_Wifi_BLE_SDK/GD32VW55x_RELEASE_V1.0.2/MSDK/lwip/lwip-2.1.2/src/core/ipv4\ip4_frag.c ****        * of the first fragment (for ICMP time exceeded and later, for copying
 580:C:/Users/stapi/OneDrive/Desktop/GD32VW553/GD32VW55X_Wifi_BLE_SDK/GD32VW55x_RELEASE_V1.0.2/MSDK/lwip/lwip-2.1.2/src/core/ipv4\ip4_frag.c ****        * all options, if supported)*/
 581:C:/Users/stapi/OneDrive/Desktop/GD32VW553/GD32VW55X_Wifi_BLE_SDK/GD32VW55x_RELEASE_V1.0.2/MSDK/lwip/lwip-2.1.2/src/core/ipv4\ip4_frag.c ****       SMEMCPY(&ipr->iphdr, fraghdr, IP_HLEN);
 582:C:/Users/stapi/OneDrive/Desktop/GD32VW553/GD32VW55X_Wifi_BLE_SDK/GD32VW55x_RELEASE_V1.0.2/MSDK/lwip/lwip-2.1.2/src/core/ipv4\ip4_frag.c ****     }
 583:C:/Users/stapi/OneDrive/Desktop/GD32VW553/GD32VW55X_Wifi_BLE_SDK/GD32VW55x_RELEASE_V1.0.2/MSDK/lwip/lwip-2.1.2/src/core/ipv4\ip4_frag.c ****   }
 584:C:/Users/stapi/OneDrive/Desktop/GD32VW553/GD32VW55X_Wifi_BLE_SDK/GD32VW55x_RELEASE_V1.0.2/MSDK/lwip/lwip-2.1.2/src/core/ipv4\ip4_frag.c **** 
 585:C:/Users/stapi/OneDrive/Desktop/GD32VW553/GD32VW55X_Wifi_BLE_SDK/GD32VW55x_RELEASE_V1.0.2/MSDK/lwip/lwip-2.1.2/src/core/ipv4\ip4_frag.c ****   /* At this point, we have either created a new entry or pointing
 586:C:/Users/stapi/OneDrive/Desktop/GD32VW553/GD32VW55X_Wifi_BLE_SDK/GD32VW55x_RELEASE_V1.0.2/MSDK/lwip/lwip-2.1.2/src/core/ipv4\ip4_frag.c ****    * to an existing one */
 587:C:/Users/stapi/OneDrive/Desktop/GD32VW553/GD32VW55X_Wifi_BLE_SDK/GD32VW55x_RELEASE_V1.0.2/MSDK/lwip/lwip-2.1.2/src/core/ipv4\ip4_frag.c **** 
 588:C:/Users/stapi/OneDrive/Desktop/GD32VW553/GD32VW55X_Wifi_BLE_SDK/GD32VW55x_RELEASE_V1.0.2/MSDK/lwip/lwip-2.1.2/src/core/ipv4\ip4_frag.c ****   /* check for 'no more fragments', and update queue entry*/
 589:C:/Users/stapi/OneDrive/Desktop/GD32VW553/GD32VW55X_Wifi_BLE_SDK/GD32VW55x_RELEASE_V1.0.2/MSDK/lwip/lwip-2.1.2/src/core/ipv4\ip4_frag.c ****   is_last = (IPH_OFFSET(fraghdr) & PP_NTOHS(IP_MF)) == 0;
 590:C:/Users/stapi/OneDrive/Desktop/GD32VW553/GD32VW55X_Wifi_BLE_SDK/GD32VW55x_RELEASE_V1.0.2/MSDK/lwip/lwip-2.1.2/src/core/ipv4\ip4_frag.c ****   if (is_last) {
 591:C:/Users/stapi/OneDrive/Desktop/GD32VW553/GD32VW55X_Wifi_BLE_SDK/GD32VW55x_RELEASE_V1.0.2/MSDK/lwip/lwip-2.1.2/src/core/ipv4\ip4_frag.c ****     u16_t datagram_len = (u16_t)(offset + len);
 592:C:/Users/stapi/OneDrive/Desktop/GD32VW553/GD32VW55X_Wifi_BLE_SDK/GD32VW55x_RELEASE_V1.0.2/MSDK/lwip/lwip-2.1.2/src/core/ipv4\ip4_frag.c ****     if ((datagram_len < offset) || (datagram_len > (0xFFFF - IP_HLEN))) {
 593:C:/Users/stapi/OneDrive/Desktop/GD32VW553/GD32VW55X_Wifi_BLE_SDK/GD32VW55x_RELEASE_V1.0.2/MSDK/lwip/lwip-2.1.2/src/core/ipv4\ip4_frag.c ****       /* u16_t overflow, cannot handle this */
 594:C:/Users/stapi/OneDrive/Desktop/GD32VW553/GD32VW55X_Wifi_BLE_SDK/GD32VW55x_RELEASE_V1.0.2/MSDK/lwip/lwip-2.1.2/src/core/ipv4\ip4_frag.c ****       goto nullreturn_ipr;
 595:C:/Users/stapi/OneDrive/Desktop/GD32VW553/GD32VW55X_Wifi_BLE_SDK/GD32VW55x_RELEASE_V1.0.2/MSDK/lwip/lwip-2.1.2/src/core/ipv4\ip4_frag.c ****     }
 596:C:/Users/stapi/OneDrive/Desktop/GD32VW553/GD32VW55X_Wifi_BLE_SDK/GD32VW55x_RELEASE_V1.0.2/MSDK/lwip/lwip-2.1.2/src/core/ipv4\ip4_frag.c ****   }
 597:C:/Users/stapi/OneDrive/Desktop/GD32VW553/GD32VW55X_Wifi_BLE_SDK/GD32VW55x_RELEASE_V1.0.2/MSDK/lwip/lwip-2.1.2/src/core/ipv4\ip4_frag.c ****   /* find the right place to insert this pbuf */
 598:C:/Users/stapi/OneDrive/Desktop/GD32VW553/GD32VW55X_Wifi_BLE_SDK/GD32VW55x_RELEASE_V1.0.2/MSDK/lwip/lwip-2.1.2/src/core/ipv4\ip4_frag.c ****   /* @todo: trim pbufs if fragments are overlapping */
 599:C:/Users/stapi/OneDrive/Desktop/GD32VW553/GD32VW55X_Wifi_BLE_SDK/GD32VW55x_RELEASE_V1.0.2/MSDK/lwip/lwip-2.1.2/src/core/ipv4\ip4_frag.c ****   valid = ip_reass_chain_frag_into_datagram_and_validate(ipr, p, is_last);
 600:C:/Users/stapi/OneDrive/Desktop/GD32VW553/GD32VW55X_Wifi_BLE_SDK/GD32VW55x_RELEASE_V1.0.2/MSDK/lwip/lwip-2.1.2/src/core/ipv4\ip4_frag.c ****   if (valid == IP_REASS_VALIDATE_PBUF_DROPPED) {
 601:C:/Users/stapi/OneDrive/Desktop/GD32VW553/GD32VW55X_Wifi_BLE_SDK/GD32VW55x_RELEASE_V1.0.2/MSDK/lwip/lwip-2.1.2/src/core/ipv4\ip4_frag.c ****     goto nullreturn_ipr;
 602:C:/Users/stapi/OneDrive/Desktop/GD32VW553/GD32VW55X_Wifi_BLE_SDK/GD32VW55x_RELEASE_V1.0.2/MSDK/lwip/lwip-2.1.2/src/core/ipv4\ip4_frag.c ****   }
 603:C:/Users/stapi/OneDrive/Desktop/GD32VW553/GD32VW55X_Wifi_BLE_SDK/GD32VW55x_RELEASE_V1.0.2/MSDK/lwip/lwip-2.1.2/src/core/ipv4\ip4_frag.c ****   /* if we come here, the pbuf has been enqueued */
 604:C:/Users/stapi/OneDrive/Desktop/GD32VW553/GD32VW55X_Wifi_BLE_SDK/GD32VW55x_RELEASE_V1.0.2/MSDK/lwip/lwip-2.1.2/src/core/ipv4\ip4_frag.c **** 
 605:C:/Users/stapi/OneDrive/Desktop/GD32VW553/GD32VW55X_Wifi_BLE_SDK/GD32VW55x_RELEASE_V1.0.2/MSDK/lwip/lwip-2.1.2/src/core/ipv4\ip4_frag.c ****   /* Track the current number of pbufs current 'in-flight', in order to limit
 606:C:/Users/stapi/OneDrive/Desktop/GD32VW553/GD32VW55X_Wifi_BLE_SDK/GD32VW55x_RELEASE_V1.0.2/MSDK/lwip/lwip-2.1.2/src/core/ipv4\ip4_frag.c ****      the number of fragments that may be enqueued at any one time
 607:C:/Users/stapi/OneDrive/Desktop/GD32VW553/GD32VW55X_Wifi_BLE_SDK/GD32VW55x_RELEASE_V1.0.2/MSDK/lwip/lwip-2.1.2/src/core/ipv4\ip4_frag.c ****      (overflow checked by testing against IP_REASS_MAX_PBUFS) */
 608:C:/Users/stapi/OneDrive/Desktop/GD32VW553/GD32VW55X_Wifi_BLE_SDK/GD32VW55x_RELEASE_V1.0.2/MSDK/lwip/lwip-2.1.2/src/core/ipv4\ip4_frag.c ****   ip_reass_pbufcount = (u16_t)(ip_reass_pbufcount + clen);
 609:C:/Users/stapi/OneDrive/Desktop/GD32VW553/GD32VW55X_Wifi_BLE_SDK/GD32VW55x_RELEASE_V1.0.2/MSDK/lwip/lwip-2.1.2/src/core/ipv4\ip4_frag.c ****   if (is_last) {
 610:C:/Users/stapi/OneDrive/Desktop/GD32VW553/GD32VW55X_Wifi_BLE_SDK/GD32VW55x_RELEASE_V1.0.2/MSDK/lwip/lwip-2.1.2/src/core/ipv4\ip4_frag.c ****     u16_t datagram_len = (u16_t)(offset + len);
 611:C:/Users/stapi/OneDrive/Desktop/GD32VW553/GD32VW55X_Wifi_BLE_SDK/GD32VW55x_RELEASE_V1.0.2/MSDK/lwip/lwip-2.1.2/src/core/ipv4\ip4_frag.c ****     ipr->datagram_len = datagram_len;
 612:C:/Users/stapi/OneDrive/Desktop/GD32VW553/GD32VW55X_Wifi_BLE_SDK/GD32VW55x_RELEASE_V1.0.2/MSDK/lwip/lwip-2.1.2/src/core/ipv4\ip4_frag.c ****     ipr->flags |= IP_REASS_FLAG_LASTFRAG;
 613:C:/Users/stapi/OneDrive/Desktop/GD32VW553/GD32VW55X_Wifi_BLE_SDK/GD32VW55x_RELEASE_V1.0.2/MSDK/lwip/lwip-2.1.2/src/core/ipv4\ip4_frag.c ****     LWIP_DEBUGF(IP_REASS_DEBUG,
 614:C:/Users/stapi/OneDrive/Desktop/GD32VW553/GD32VW55X_Wifi_BLE_SDK/GD32VW55x_RELEASE_V1.0.2/MSDK/lwip/lwip-2.1.2/src/core/ipv4\ip4_frag.c ****                 ("ip4_reass: last fragment seen, total len %"S16_F"\n",
 615:C:/Users/stapi/OneDrive/Desktop/GD32VW553/GD32VW55X_Wifi_BLE_SDK/GD32VW55x_RELEASE_V1.0.2/MSDK/lwip/lwip-2.1.2/src/core/ipv4\ip4_frag.c ****                  ipr->datagram_len));
 616:C:/Users/stapi/OneDrive/Desktop/GD32VW553/GD32VW55X_Wifi_BLE_SDK/GD32VW55x_RELEASE_V1.0.2/MSDK/lwip/lwip-2.1.2/src/core/ipv4\ip4_frag.c ****   }
 617:C:/Users/stapi/OneDrive/Desktop/GD32VW553/GD32VW55X_Wifi_BLE_SDK/GD32VW55x_RELEASE_V1.0.2/MSDK/lwip/lwip-2.1.2/src/core/ipv4\ip4_frag.c **** 
 618:C:/Users/stapi/OneDrive/Desktop/GD32VW553/GD32VW55X_Wifi_BLE_SDK/GD32VW55x_RELEASE_V1.0.2/MSDK/lwip/lwip-2.1.2/src/core/ipv4\ip4_frag.c ****   if (valid == IP_REASS_VALIDATE_TELEGRAM_FINISHED) {
 619:C:/Users/stapi/OneDrive/Desktop/GD32VW553/GD32VW55X_Wifi_BLE_SDK/GD32VW55x_RELEASE_V1.0.2/MSDK/lwip/lwip-2.1.2/src/core/ipv4\ip4_frag.c ****     struct ip_reassdata *ipr_prev;
 620:C:/Users/stapi/OneDrive/Desktop/GD32VW553/GD32VW55X_Wifi_BLE_SDK/GD32VW55x_RELEASE_V1.0.2/MSDK/lwip/lwip-2.1.2/src/core/ipv4\ip4_frag.c ****     /* the totally last fragment (flag more fragments = 0) was received at least
 621:C:/Users/stapi/OneDrive/Desktop/GD32VW553/GD32VW55X_Wifi_BLE_SDK/GD32VW55x_RELEASE_V1.0.2/MSDK/lwip/lwip-2.1.2/src/core/ipv4\ip4_frag.c ****      * once AND all fragments are received */
 622:C:/Users/stapi/OneDrive/Desktop/GD32VW553/GD32VW55X_Wifi_BLE_SDK/GD32VW55x_RELEASE_V1.0.2/MSDK/lwip/lwip-2.1.2/src/core/ipv4\ip4_frag.c ****     u16_t datagram_len = (u16_t)(ipr->datagram_len + IP_HLEN);
 623:C:/Users/stapi/OneDrive/Desktop/GD32VW553/GD32VW55X_Wifi_BLE_SDK/GD32VW55x_RELEASE_V1.0.2/MSDK/lwip/lwip-2.1.2/src/core/ipv4\ip4_frag.c **** 
 624:C:/Users/stapi/OneDrive/Desktop/GD32VW553/GD32VW55X_Wifi_BLE_SDK/GD32VW55x_RELEASE_V1.0.2/MSDK/lwip/lwip-2.1.2/src/core/ipv4\ip4_frag.c ****     /* save the second pbuf before copying the header over the pointer */
 625:C:/Users/stapi/OneDrive/Desktop/GD32VW553/GD32VW55X_Wifi_BLE_SDK/GD32VW55x_RELEASE_V1.0.2/MSDK/lwip/lwip-2.1.2/src/core/ipv4\ip4_frag.c ****     r = ((struct ip_reass_helper *)ipr->p->payload)->next_pbuf;
 626:C:/Users/stapi/OneDrive/Desktop/GD32VW553/GD32VW55X_Wifi_BLE_SDK/GD32VW55x_RELEASE_V1.0.2/MSDK/lwip/lwip-2.1.2/src/core/ipv4\ip4_frag.c **** 
 627:C:/Users/stapi/OneDrive/Desktop/GD32VW553/GD32VW55X_Wifi_BLE_SDK/GD32VW55x_RELEASE_V1.0.2/MSDK/lwip/lwip-2.1.2/src/core/ipv4\ip4_frag.c ****     /* copy the original ip header back to the first pbuf */
 628:C:/Users/stapi/OneDrive/Desktop/GD32VW553/GD32VW55X_Wifi_BLE_SDK/GD32VW55x_RELEASE_V1.0.2/MSDK/lwip/lwip-2.1.2/src/core/ipv4\ip4_frag.c ****     fraghdr = (struct ip_hdr *)(ipr->p->payload);
 629:C:/Users/stapi/OneDrive/Desktop/GD32VW553/GD32VW55X_Wifi_BLE_SDK/GD32VW55x_RELEASE_V1.0.2/MSDK/lwip/lwip-2.1.2/src/core/ipv4\ip4_frag.c ****     SMEMCPY(fraghdr, &ipr->iphdr, IP_HLEN);
 630:C:/Users/stapi/OneDrive/Desktop/GD32VW553/GD32VW55X_Wifi_BLE_SDK/GD32VW55x_RELEASE_V1.0.2/MSDK/lwip/lwip-2.1.2/src/core/ipv4\ip4_frag.c ****     IPH_LEN_SET(fraghdr, lwip_htons(datagram_len));
 631:C:/Users/stapi/OneDrive/Desktop/GD32VW553/GD32VW55X_Wifi_BLE_SDK/GD32VW55x_RELEASE_V1.0.2/MSDK/lwip/lwip-2.1.2/src/core/ipv4\ip4_frag.c ****     IPH_OFFSET_SET(fraghdr, 0);
 632:C:/Users/stapi/OneDrive/Desktop/GD32VW553/GD32VW55X_Wifi_BLE_SDK/GD32VW55x_RELEASE_V1.0.2/MSDK/lwip/lwip-2.1.2/src/core/ipv4\ip4_frag.c ****     IPH_CHKSUM_SET(fraghdr, 0);
 633:C:/Users/stapi/OneDrive/Desktop/GD32VW553/GD32VW55X_Wifi_BLE_SDK/GD32VW55x_RELEASE_V1.0.2/MSDK/lwip/lwip-2.1.2/src/core/ipv4\ip4_frag.c ****     /* @todo: do we need to set/calculate the correct checksum? */
 634:C:/Users/stapi/OneDrive/Desktop/GD32VW553/GD32VW55X_Wifi_BLE_SDK/GD32VW55x_RELEASE_V1.0.2/MSDK/lwip/lwip-2.1.2/src/core/ipv4\ip4_frag.c **** #if CHECKSUM_GEN_IP
 635:C:/Users/stapi/OneDrive/Desktop/GD32VW553/GD32VW55X_Wifi_BLE_SDK/GD32VW55x_RELEASE_V1.0.2/MSDK/lwip/lwip-2.1.2/src/core/ipv4\ip4_frag.c ****     IF__NETIF_CHECKSUM_ENABLED(ip_current_input_netif(), NETIF_CHECKSUM_GEN_IP) {
 636:C:/Users/stapi/OneDrive/Desktop/GD32VW553/GD32VW55X_Wifi_BLE_SDK/GD32VW55x_RELEASE_V1.0.2/MSDK/lwip/lwip-2.1.2/src/core/ipv4\ip4_frag.c ****       IPH_CHKSUM_SET(fraghdr, inet_chksum(fraghdr, IP_HLEN));
 637:C:/Users/stapi/OneDrive/Desktop/GD32VW553/GD32VW55X_Wifi_BLE_SDK/GD32VW55x_RELEASE_V1.0.2/MSDK/lwip/lwip-2.1.2/src/core/ipv4\ip4_frag.c ****     }
 638:C:/Users/stapi/OneDrive/Desktop/GD32VW553/GD32VW55X_Wifi_BLE_SDK/GD32VW55x_RELEASE_V1.0.2/MSDK/lwip/lwip-2.1.2/src/core/ipv4\ip4_frag.c **** #endif /* CHECKSUM_GEN_IP */
 639:C:/Users/stapi/OneDrive/Desktop/GD32VW553/GD32VW55X_Wifi_BLE_SDK/GD32VW55x_RELEASE_V1.0.2/MSDK/lwip/lwip-2.1.2/src/core/ipv4\ip4_frag.c **** 
 640:C:/Users/stapi/OneDrive/Desktop/GD32VW553/GD32VW55X_Wifi_BLE_SDK/GD32VW55x_RELEASE_V1.0.2/MSDK/lwip/lwip-2.1.2/src/core/ipv4\ip4_frag.c ****     p = ipr->p;
 641:C:/Users/stapi/OneDrive/Desktop/GD32VW553/GD32VW55X_Wifi_BLE_SDK/GD32VW55x_RELEASE_V1.0.2/MSDK/lwip/lwip-2.1.2/src/core/ipv4\ip4_frag.c **** 
 642:C:/Users/stapi/OneDrive/Desktop/GD32VW553/GD32VW55X_Wifi_BLE_SDK/GD32VW55x_RELEASE_V1.0.2/MSDK/lwip/lwip-2.1.2/src/core/ipv4\ip4_frag.c ****     /* chain together the pbufs contained within the reass_data list. */
 643:C:/Users/stapi/OneDrive/Desktop/GD32VW553/GD32VW55X_Wifi_BLE_SDK/GD32VW55x_RELEASE_V1.0.2/MSDK/lwip/lwip-2.1.2/src/core/ipv4\ip4_frag.c ****     while (r != NULL) {
 644:C:/Users/stapi/OneDrive/Desktop/GD32VW553/GD32VW55X_Wifi_BLE_SDK/GD32VW55x_RELEASE_V1.0.2/MSDK/lwip/lwip-2.1.2/src/core/ipv4\ip4_frag.c ****       iprh = (struct ip_reass_helper *)r->payload;
 645:C:/Users/stapi/OneDrive/Desktop/GD32VW553/GD32VW55X_Wifi_BLE_SDK/GD32VW55x_RELEASE_V1.0.2/MSDK/lwip/lwip-2.1.2/src/core/ipv4\ip4_frag.c **** 
 646:C:/Users/stapi/OneDrive/Desktop/GD32VW553/GD32VW55X_Wifi_BLE_SDK/GD32VW55x_RELEASE_V1.0.2/MSDK/lwip/lwip-2.1.2/src/core/ipv4\ip4_frag.c ****       /* hide the ip header for every succeeding fragment */
 647:C:/Users/stapi/OneDrive/Desktop/GD32VW553/GD32VW55X_Wifi_BLE_SDK/GD32VW55x_RELEASE_V1.0.2/MSDK/lwip/lwip-2.1.2/src/core/ipv4\ip4_frag.c ****       pbuf_remove_header(r, IP_HLEN);
 648:C:/Users/stapi/OneDrive/Desktop/GD32VW553/GD32VW55X_Wifi_BLE_SDK/GD32VW55x_RELEASE_V1.0.2/MSDK/lwip/lwip-2.1.2/src/core/ipv4\ip4_frag.c ****       pbuf_cat(p, r);
 649:C:/Users/stapi/OneDrive/Desktop/GD32VW553/GD32VW55X_Wifi_BLE_SDK/GD32VW55x_RELEASE_V1.0.2/MSDK/lwip/lwip-2.1.2/src/core/ipv4\ip4_frag.c ****       r = iprh->next_pbuf;
 650:C:/Users/stapi/OneDrive/Desktop/GD32VW553/GD32VW55X_Wifi_BLE_SDK/GD32VW55x_RELEASE_V1.0.2/MSDK/lwip/lwip-2.1.2/src/core/ipv4\ip4_frag.c ****     }
 651:C:/Users/stapi/OneDrive/Desktop/GD32VW553/GD32VW55X_Wifi_BLE_SDK/GD32VW55x_RELEASE_V1.0.2/MSDK/lwip/lwip-2.1.2/src/core/ipv4\ip4_frag.c **** 
 652:C:/Users/stapi/OneDrive/Desktop/GD32VW553/GD32VW55X_Wifi_BLE_SDK/GD32VW55x_RELEASE_V1.0.2/MSDK/lwip/lwip-2.1.2/src/core/ipv4\ip4_frag.c ****     /* find the previous entry in the linked list */
 653:C:/Users/stapi/OneDrive/Desktop/GD32VW553/GD32VW55X_Wifi_BLE_SDK/GD32VW55x_RELEASE_V1.0.2/MSDK/lwip/lwip-2.1.2/src/core/ipv4\ip4_frag.c ****     if (ipr == reassdatagrams) {
 654:C:/Users/stapi/OneDrive/Desktop/GD32VW553/GD32VW55X_Wifi_BLE_SDK/GD32VW55x_RELEASE_V1.0.2/MSDK/lwip/lwip-2.1.2/src/core/ipv4\ip4_frag.c ****       ipr_prev = NULL;
 655:C:/Users/stapi/OneDrive/Desktop/GD32VW553/GD32VW55X_Wifi_BLE_SDK/GD32VW55x_RELEASE_V1.0.2/MSDK/lwip/lwip-2.1.2/src/core/ipv4\ip4_frag.c ****     } else {
 656:C:/Users/stapi/OneDrive/Desktop/GD32VW553/GD32VW55X_Wifi_BLE_SDK/GD32VW55x_RELEASE_V1.0.2/MSDK/lwip/lwip-2.1.2/src/core/ipv4\ip4_frag.c ****       for (ipr_prev = reassdatagrams; ipr_prev != NULL; ipr_prev = ipr_prev->next) {
 657:C:/Users/stapi/OneDrive/Desktop/GD32VW553/GD32VW55X_Wifi_BLE_SDK/GD32VW55x_RELEASE_V1.0.2/MSDK/lwip/lwip-2.1.2/src/core/ipv4\ip4_frag.c ****         if (ipr_prev->next == ipr) {
 658:C:/Users/stapi/OneDrive/Desktop/GD32VW553/GD32VW55X_Wifi_BLE_SDK/GD32VW55x_RELEASE_V1.0.2/MSDK/lwip/lwip-2.1.2/src/core/ipv4\ip4_frag.c ****           break;
 659:C:/Users/stapi/OneDrive/Desktop/GD32VW553/GD32VW55X_Wifi_BLE_SDK/GD32VW55x_RELEASE_V1.0.2/MSDK/lwip/lwip-2.1.2/src/core/ipv4\ip4_frag.c ****         }
 660:C:/Users/stapi/OneDrive/Desktop/GD32VW553/GD32VW55X_Wifi_BLE_SDK/GD32VW55x_RELEASE_V1.0.2/MSDK/lwip/lwip-2.1.2/src/core/ipv4\ip4_frag.c ****       }
 661:C:/Users/stapi/OneDrive/Desktop/GD32VW553/GD32VW55X_Wifi_BLE_SDK/GD32VW55x_RELEASE_V1.0.2/MSDK/lwip/lwip-2.1.2/src/core/ipv4\ip4_frag.c ****     }
 662:C:/Users/stapi/OneDrive/Desktop/GD32VW553/GD32VW55X_Wifi_BLE_SDK/GD32VW55x_RELEASE_V1.0.2/MSDK/lwip/lwip-2.1.2/src/core/ipv4\ip4_frag.c **** 
 663:C:/Users/stapi/OneDrive/Desktop/GD32VW553/GD32VW55X_Wifi_BLE_SDK/GD32VW55x_RELEASE_V1.0.2/MSDK/lwip/lwip-2.1.2/src/core/ipv4\ip4_frag.c ****     /* release the sources allocate for the fragment queue entry */
 664:C:/Users/stapi/OneDrive/Desktop/GD32VW553/GD32VW55X_Wifi_BLE_SDK/GD32VW55x_RELEASE_V1.0.2/MSDK/lwip/lwip-2.1.2/src/core/ipv4\ip4_frag.c ****     ip_reass_dequeue_datagram(ipr, ipr_prev);
 665:C:/Users/stapi/OneDrive/Desktop/GD32VW553/GD32VW55X_Wifi_BLE_SDK/GD32VW55x_RELEASE_V1.0.2/MSDK/lwip/lwip-2.1.2/src/core/ipv4\ip4_frag.c **** 
 666:C:/Users/stapi/OneDrive/Desktop/GD32VW553/GD32VW55X_Wifi_BLE_SDK/GD32VW55x_RELEASE_V1.0.2/MSDK/lwip/lwip-2.1.2/src/core/ipv4\ip4_frag.c ****     /* and adjust the number of pbufs currently queued for reassembly. */
 667:C:/Users/stapi/OneDrive/Desktop/GD32VW553/GD32VW55X_Wifi_BLE_SDK/GD32VW55x_RELEASE_V1.0.2/MSDK/lwip/lwip-2.1.2/src/core/ipv4\ip4_frag.c ****     clen = pbuf_clen(p);
 668:C:/Users/stapi/OneDrive/Desktop/GD32VW553/GD32VW55X_Wifi_BLE_SDK/GD32VW55x_RELEASE_V1.0.2/MSDK/lwip/lwip-2.1.2/src/core/ipv4\ip4_frag.c ****     LWIP_ASSERT("ip_reass_pbufcount >= clen", ip_reass_pbufcount >= clen);
 669:C:/Users/stapi/OneDrive/Desktop/GD32VW553/GD32VW55X_Wifi_BLE_SDK/GD32VW55x_RELEASE_V1.0.2/MSDK/lwip/lwip-2.1.2/src/core/ipv4\ip4_frag.c ****     ip_reass_pbufcount = (u16_t)(ip_reass_pbufcount - clen);
 670:C:/Users/stapi/OneDrive/Desktop/GD32VW553/GD32VW55X_Wifi_BLE_SDK/GD32VW55x_RELEASE_V1.0.2/MSDK/lwip/lwip-2.1.2/src/core/ipv4\ip4_frag.c **** 
 671:C:/Users/stapi/OneDrive/Desktop/GD32VW553/GD32VW55X_Wifi_BLE_SDK/GD32VW55x_RELEASE_V1.0.2/MSDK/lwip/lwip-2.1.2/src/core/ipv4\ip4_frag.c ****     MIB2_STATS_INC(mib2.ipreasmoks);
 672:C:/Users/stapi/OneDrive/Desktop/GD32VW553/GD32VW55X_Wifi_BLE_SDK/GD32VW55x_RELEASE_V1.0.2/MSDK/lwip/lwip-2.1.2/src/core/ipv4\ip4_frag.c **** 
 673:C:/Users/stapi/OneDrive/Desktop/GD32VW553/GD32VW55X_Wifi_BLE_SDK/GD32VW55x_RELEASE_V1.0.2/MSDK/lwip/lwip-2.1.2/src/core/ipv4\ip4_frag.c ****     /* Return the pbuf chain */
 674:C:/Users/stapi/OneDrive/Desktop/GD32VW553/GD32VW55X_Wifi_BLE_SDK/GD32VW55x_RELEASE_V1.0.2/MSDK/lwip/lwip-2.1.2/src/core/ipv4\ip4_frag.c ****     return p;
 675:C:/Users/stapi/OneDrive/Desktop/GD32VW553/GD32VW55X_Wifi_BLE_SDK/GD32VW55x_RELEASE_V1.0.2/MSDK/lwip/lwip-2.1.2/src/core/ipv4\ip4_frag.c ****   }
 676:C:/Users/stapi/OneDrive/Desktop/GD32VW553/GD32VW55X_Wifi_BLE_SDK/GD32VW55x_RELEASE_V1.0.2/MSDK/lwip/lwip-2.1.2/src/core/ipv4\ip4_frag.c ****   /* the datagram is not (yet?) reassembled completely */
 677:C:/Users/stapi/OneDrive/Desktop/GD32VW553/GD32VW55X_Wifi_BLE_SDK/GD32VW55x_RELEASE_V1.0.2/MSDK/lwip/lwip-2.1.2/src/core/ipv4\ip4_frag.c ****   LWIP_DEBUGF(IP_REASS_DEBUG, ("ip_reass_pbufcount: %d out\n", ip_reass_pbufcount));
 678:C:/Users/stapi/OneDrive/Desktop/GD32VW553/GD32VW55X_Wifi_BLE_SDK/GD32VW55x_RELEASE_V1.0.2/MSDK/lwip/lwip-2.1.2/src/core/ipv4\ip4_frag.c ****   return NULL;
 679:C:/Users/stapi/OneDrive/Desktop/GD32VW553/GD32VW55X_Wifi_BLE_SDK/GD32VW55x_RELEASE_V1.0.2/MSDK/lwip/lwip-2.1.2/src/core/ipv4\ip4_frag.c **** 
 680:C:/Users/stapi/OneDrive/Desktop/GD32VW553/GD32VW55X_Wifi_BLE_SDK/GD32VW55x_RELEASE_V1.0.2/MSDK/lwip/lwip-2.1.2/src/core/ipv4\ip4_frag.c **** nullreturn_ipr:
 681:C:/Users/stapi/OneDrive/Desktop/GD32VW553/GD32VW55X_Wifi_BLE_SDK/GD32VW55x_RELEASE_V1.0.2/MSDK/lwip/lwip-2.1.2/src/core/ipv4\ip4_frag.c ****   LWIP_ASSERT("ipr != NULL", ipr != NULL);
 682:C:/Users/stapi/OneDrive/Desktop/GD32VW553/GD32VW55X_Wifi_BLE_SDK/GD32VW55x_RELEASE_V1.0.2/MSDK/lwip/lwip-2.1.2/src/core/ipv4\ip4_frag.c ****   if (ipr->p == NULL) {
 683:C:/Users/stapi/OneDrive/Desktop/GD32VW553/GD32VW55X_Wifi_BLE_SDK/GD32VW55x_RELEASE_V1.0.2/MSDK/lwip/lwip-2.1.2/src/core/ipv4\ip4_frag.c ****     /* dropped pbuf after creating a new datagram entry: remove the entry, too */
 684:C:/Users/stapi/OneDrive/Desktop/GD32VW553/GD32VW55X_Wifi_BLE_SDK/GD32VW55x_RELEASE_V1.0.2/MSDK/lwip/lwip-2.1.2/src/core/ipv4\ip4_frag.c ****     LWIP_ASSERT("not firstalthough just enqueued", ipr == reassdatagrams);
 685:C:/Users/stapi/OneDrive/Desktop/GD32VW553/GD32VW55X_Wifi_BLE_SDK/GD32VW55x_RELEASE_V1.0.2/MSDK/lwip/lwip-2.1.2/src/core/ipv4\ip4_frag.c ****     ip_reass_dequeue_datagram(ipr, NULL);
 686:C:/Users/stapi/OneDrive/Desktop/GD32VW553/GD32VW55X_Wifi_BLE_SDK/GD32VW55x_RELEASE_V1.0.2/MSDK/lwip/lwip-2.1.2/src/core/ipv4\ip4_frag.c ****   }
 687:C:/Users/stapi/OneDrive/Desktop/GD32VW553/GD32VW55X_Wifi_BLE_SDK/GD32VW55x_RELEASE_V1.0.2/MSDK/lwip/lwip-2.1.2/src/core/ipv4\ip4_frag.c **** 
 688:C:/Users/stapi/OneDrive/Desktop/GD32VW553/GD32VW55X_Wifi_BLE_SDK/GD32VW55x_RELEASE_V1.0.2/MSDK/lwip/lwip-2.1.2/src/core/ipv4\ip4_frag.c **** nullreturn:
 689:C:/Users/stapi/OneDrive/Desktop/GD32VW553/GD32VW55X_Wifi_BLE_SDK/GD32VW55x_RELEASE_V1.0.2/MSDK/lwip/lwip-2.1.2/src/core/ipv4\ip4_frag.c ****   LWIP_DEBUGF(IP_REASS_DEBUG, ("ip4_reass: nullreturn\n"));
 690:C:/Users/stapi/OneDrive/Desktop/GD32VW553/GD32VW55X_Wifi_BLE_SDK/GD32VW55x_RELEASE_V1.0.2/MSDK/lwip/lwip-2.1.2/src/core/ipv4\ip4_frag.c ****   IPFRAG_STATS_INC(ip_frag.drop);
 691:C:/Users/stapi/OneDrive/Desktop/GD32VW553/GD32VW55X_Wifi_BLE_SDK/GD32VW55x_RELEASE_V1.0.2/MSDK/lwip/lwip-2.1.2/src/core/ipv4\ip4_frag.c ****   pbuf_free(p);
 692:C:/Users/stapi/OneDrive/Desktop/GD32VW553/GD32VW55X_Wifi_BLE_SDK/GD32VW55x_RELEASE_V1.0.2/MSDK/lwip/lwip-2.1.2/src/core/ipv4\ip4_frag.c ****   return NULL;
 693:C:/Users/stapi/OneDrive/Desktop/GD32VW553/GD32VW55X_Wifi_BLE_SDK/GD32VW55x_RELEASE_V1.0.2/MSDK/lwip/lwip-2.1.2/src/core/ipv4\ip4_frag.c **** }
 694:C:/Users/stapi/OneDrive/Desktop/GD32VW553/GD32VW55X_Wifi_BLE_SDK/GD32VW55x_RELEASE_V1.0.2/MSDK/lwip/lwip-2.1.2/src/core/ipv4\ip4_frag.c **** #endif /* IP_REASSEMBLY */
 695:C:/Users/stapi/OneDrive/Desktop/GD32VW553/GD32VW55X_Wifi_BLE_SDK/GD32VW55x_RELEASE_V1.0.2/MSDK/lwip/lwip-2.1.2/src/core/ipv4\ip4_frag.c **** 
 696:C:/Users/stapi/OneDrive/Desktop/GD32VW553/GD32VW55X_Wifi_BLE_SDK/GD32VW55x_RELEASE_V1.0.2/MSDK/lwip/lwip-2.1.2/src/core/ipv4\ip4_frag.c **** #if IP_FRAG
 697:C:/Users/stapi/OneDrive/Desktop/GD32VW553/GD32VW55X_Wifi_BLE_SDK/GD32VW55x_RELEASE_V1.0.2/MSDK/lwip/lwip-2.1.2/src/core/ipv4\ip4_frag.c **** #if !LWIP_NETIF_TX_SINGLE_PBUF
 698:C:/Users/stapi/OneDrive/Desktop/GD32VW553/GD32VW55X_Wifi_BLE_SDK/GD32VW55x_RELEASE_V1.0.2/MSDK/lwip/lwip-2.1.2/src/core/ipv4\ip4_frag.c **** /** Allocate a new struct pbuf_custom_ref */
 699:C:/Users/stapi/OneDrive/Desktop/GD32VW553/GD32VW55X_Wifi_BLE_SDK/GD32VW55x_RELEASE_V1.0.2/MSDK/lwip/lwip-2.1.2/src/core/ipv4\ip4_frag.c **** static struct pbuf_custom_ref *
 700:C:/Users/stapi/OneDrive/Desktop/GD32VW553/GD32VW55X_Wifi_BLE_SDK/GD32VW55x_RELEASE_V1.0.2/MSDK/lwip/lwip-2.1.2/src/core/ipv4\ip4_frag.c **** ip_frag_alloc_pbuf_custom_ref(void)
 701:C:/Users/stapi/OneDrive/Desktop/GD32VW553/GD32VW55X_Wifi_BLE_SDK/GD32VW55x_RELEASE_V1.0.2/MSDK/lwip/lwip-2.1.2/src/core/ipv4\ip4_frag.c **** {
 702:C:/Users/stapi/OneDrive/Desktop/GD32VW553/GD32VW55X_Wifi_BLE_SDK/GD32VW55x_RELEASE_V1.0.2/MSDK/lwip/lwip-2.1.2/src/core/ipv4\ip4_frag.c ****   return (struct pbuf_custom_ref *)memp_malloc(MEMP_FRAG_PBUF);
 703:C:/Users/stapi/OneDrive/Desktop/GD32VW553/GD32VW55X_Wifi_BLE_SDK/GD32VW55x_RELEASE_V1.0.2/MSDK/lwip/lwip-2.1.2/src/core/ipv4\ip4_frag.c **** }
 704:C:/Users/stapi/OneDrive/Desktop/GD32VW553/GD32VW55X_Wifi_BLE_SDK/GD32VW55x_RELEASE_V1.0.2/MSDK/lwip/lwip-2.1.2/src/core/ipv4\ip4_frag.c **** 
 705:C:/Users/stapi/OneDrive/Desktop/GD32VW553/GD32VW55X_Wifi_BLE_SDK/GD32VW55x_RELEASE_V1.0.2/MSDK/lwip/lwip-2.1.2/src/core/ipv4\ip4_frag.c **** /** Free a struct pbuf_custom_ref */
 706:C:/Users/stapi/OneDrive/Desktop/GD32VW553/GD32VW55X_Wifi_BLE_SDK/GD32VW55x_RELEASE_V1.0.2/MSDK/lwip/lwip-2.1.2/src/core/ipv4\ip4_frag.c **** static void
 707:C:/Users/stapi/OneDrive/Desktop/GD32VW553/GD32VW55X_Wifi_BLE_SDK/GD32VW55x_RELEASE_V1.0.2/MSDK/lwip/lwip-2.1.2/src/core/ipv4\ip4_frag.c **** ip_frag_free_pbuf_custom_ref(struct pbuf_custom_ref *p)
 708:C:/Users/stapi/OneDrive/Desktop/GD32VW553/GD32VW55X_Wifi_BLE_SDK/GD32VW55x_RELEASE_V1.0.2/MSDK/lwip/lwip-2.1.2/src/core/ipv4\ip4_frag.c **** {
 558              		.loc 1 708 1 is_stmt 1
 559              		.cfi_startproc
 560              	.LVL57:
 561 0000 17030000 		call	t0,__riscv_save_0
 561      E7020300 
 562              		.cfi_offset 1, -4
 563              		.cfi_def_cfa_offset 16
 709:C:/Users/stapi/OneDrive/Desktop/GD32VW553/GD32VW55X_Wifi_BLE_SDK/GD32VW55x_RELEASE_V1.0.2/MSDK/lwip/lwip-2.1.2/src/core/ipv4\ip4_frag.c ****   LWIP_ASSERT("p != NULL", p != NULL);
 564              		.loc 1 709 3
 565              		.loc 1 709 3
 566 0008 05E5     		bne	a0,zero,.L43
 567              	.LVL58:
 568              	.LBB16:
 569              	.LBB17:
 570              		.loc 1 709 3
 571              		.loc 1 709 3
 572 000a B7060000 		lui	a3,%hi(.LC0)
 573 000e B7050000 		lui	a1,%hi(.LC7)
 574 0012 37050000 		lui	a0,%hi(.LC2)
 575              	.LVL59:
 576 0016 93860600 		addi	a3,a3,%lo(.LC0)
 577 001a 1306502C 		li	a2,709
 578 001e 93850500 		addi	a1,a1,%lo(.LC7)
 579 0022 13050500 		addi	a0,a0,%lo(.LC2)
 580 0026 97000000 		call	printf
 580      E7800000 
 581              	.LVL60:
 582              	.L44:
 583              		.loc 1 709 3
 584              		.loc 1 709 3
 585              		.loc 1 709 3
 586 002e 01A0     		j	.L44
 587              	.LVL61:
 588              	.L43:
 589 0030 AA85     		mv	a1,a0
 590              	.LBE17:
 591              	.LBE16:
 592              		.loc 1 709 3 discriminator 2
 593              		.loc 1 709 3 discriminator 2
 710:C:/Users/stapi/OneDrive/Desktop/GD32VW553/GD32VW55X_Wifi_BLE_SDK/GD32VW55x_RELEASE_V1.0.2/MSDK/lwip/lwip-2.1.2/src/core/ipv4\ip4_frag.c ****   memp_free(MEMP_FRAG_PBUF, p);
 594              		.loc 1 710 3 discriminator 2
 595 0032 1D45     		li	a0,7
 596              	.LVL62:
 597 0034 97000000 		call	memp_free
 597      E7800000 
 598              	.LVL63:
 711:C:/Users/stapi/OneDrive/Desktop/GD32VW553/GD32VW55X_Wifi_BLE_SDK/GD32VW55x_RELEASE_V1.0.2/MSDK/lwip/lwip-2.1.2/src/core/ipv4\ip4_frag.c **** }
 599              		.loc 1 711 1 is_stmt 0 discriminator 2
 600 003c 17030000 		tail	__riscv_restore_0
 600      67000300 
 601              		.cfi_restore 1
 602              		.cfi_def_cfa_offset 0
 603              		.cfi_endproc
 604              	.LFE12:
 606              		.section	.rodata.ipfrag_free_pbuf_custom.str1.4,"aMS",@progbits,1
 607              		.align	2
 608              	.LC8:
 609 0000 70637220 		.string	"pcr != NULL"
 609      213D204E 
 609      554C4C00 
 610              		.section	.text.ipfrag_free_pbuf_custom,"ax",@progbits
 611              		.align	1
 613              	ipfrag_free_pbuf_custom:
 614              	.LFB13:
 712:C:/Users/stapi/OneDrive/Desktop/GD32VW553/GD32VW55X_Wifi_BLE_SDK/GD32VW55x_RELEASE_V1.0.2/MSDK/lwip/lwip-2.1.2/src/core/ipv4\ip4_frag.c **** 
 713:C:/Users/stapi/OneDrive/Desktop/GD32VW553/GD32VW55X_Wifi_BLE_SDK/GD32VW55x_RELEASE_V1.0.2/MSDK/lwip/lwip-2.1.2/src/core/ipv4\ip4_frag.c **** /** Free-callback function to free a 'struct pbuf_custom_ref', called by
 714:C:/Users/stapi/OneDrive/Desktop/GD32VW553/GD32VW55X_Wifi_BLE_SDK/GD32VW55x_RELEASE_V1.0.2/MSDK/lwip/lwip-2.1.2/src/core/ipv4\ip4_frag.c ****  * pbuf_free. */
 715:C:/Users/stapi/OneDrive/Desktop/GD32VW553/GD32VW55X_Wifi_BLE_SDK/GD32VW55x_RELEASE_V1.0.2/MSDK/lwip/lwip-2.1.2/src/core/ipv4\ip4_frag.c **** static void
 716:C:/Users/stapi/OneDrive/Desktop/GD32VW553/GD32VW55X_Wifi_BLE_SDK/GD32VW55x_RELEASE_V1.0.2/MSDK/lwip/lwip-2.1.2/src/core/ipv4\ip4_frag.c **** ipfrag_free_pbuf_custom(struct pbuf *p)
 717:C:/Users/stapi/OneDrive/Desktop/GD32VW553/GD32VW55X_Wifi_BLE_SDK/GD32VW55x_RELEASE_V1.0.2/MSDK/lwip/lwip-2.1.2/src/core/ipv4\ip4_frag.c **** {
 615              		.loc 1 717 1 is_stmt 1
 616              		.cfi_startproc
 617              	.LVL64:
 618 0000 17030000 		call	t0,__riscv_save_1
 618      E7020300 
 619              		.cfi_offset 8, -8
 620              		.cfi_offset 1, -4
 621              		.cfi_def_cfa_offset 16
 718:C:/Users/stapi/OneDrive/Desktop/GD32VW553/GD32VW55X_Wifi_BLE_SDK/GD32VW55x_RELEASE_V1.0.2/MSDK/lwip/lwip-2.1.2/src/core/ipv4\ip4_frag.c ****   struct pbuf_custom_ref *pcr = (struct pbuf_custom_ref *)p;
 622              		.loc 1 718 3
 623              	.LVL65:
 719:C:/Users/stapi/OneDrive/Desktop/GD32VW553/GD32VW55X_Wifi_BLE_SDK/GD32VW55x_RELEASE_V1.0.2/MSDK/lwip/lwip-2.1.2/src/core/ipv4\ip4_frag.c ****   LWIP_ASSERT("pcr != NULL", pcr != NULL);
 624              		.loc 1 719 3
 625              		.loc 1 719 3
 626 0008 05E5     		bne	a0,zero,.L47
 627              	.LVL66:
 628              	.LBB20:
 629              	.LBB21:
 630              		.loc 1 719 3
 631              		.loc 1 719 3
 632 000a B7060000 		lui	a3,%hi(.LC0)
 633 000e B7050000 		lui	a1,%hi(.LC8)
 634 0012 37050000 		lui	a0,%hi(.LC2)
 635              	.LVL67:
 636 0016 93860600 		addi	a3,a3,%lo(.LC0)
 637 001a 1306F02C 		li	a2,719
 638 001e 93850500 		addi	a1,a1,%lo(.LC8)
 639 0022 13050500 		addi	a0,a0,%lo(.LC2)
 640 0026 97000000 		call	printf
 640      E7800000 
 641              	.LVL68:
 642              	.L48:
 643              		.loc 1 719 3
 644              		.loc 1 719 3
 645              		.loc 1 719 3
 646 002e 01A0     		j	.L48
 647              	.LVL69:
 648              	.L47:
 649 0030 2A84     		mv	s0,a0
 650              	.LBE21:
 651              	.LBE20:
 652              		.loc 1 719 3 discriminator 2
 653              		.loc 1 719 3 discriminator 2
 720:C:/Users/stapi/OneDrive/Desktop/GD32VW553/GD32VW55X_Wifi_BLE_SDK/GD32VW55x_RELEASE_V1.0.2/MSDK/lwip/lwip-2.1.2/src/core/ipv4\ip4_frag.c ****   LWIP_ASSERT("pcr == p", (void *)pcr == (void *)p);
 654              		.loc 1 720 3 discriminator 2
 655              		.loc 1 720 3 discriminator 2
 656              		.loc 1 720 3 discriminator 2
 657              		.loc 1 720 3 discriminator 2
 721:C:/Users/stapi/OneDrive/Desktop/GD32VW553/GD32VW55X_Wifi_BLE_SDK/GD32VW55x_RELEASE_V1.0.2/MSDK/lwip/lwip-2.1.2/src/core/ipv4\ip4_frag.c ****   if (pcr->original != NULL) {
 658              		.loc 1 721 3 discriminator 2
 659              		.loc 1 721 10 is_stmt 0 discriminator 2
 660 0032 4849     		lw	a0,20(a0)
 661              	.LVL70:
 662              		.loc 1 721 6 discriminator 2
 663 0034 09C5     		beq	a0,zero,.L49
 722:C:/Users/stapi/OneDrive/Desktop/GD32VW553/GD32VW55X_Wifi_BLE_SDK/GD32VW55x_RELEASE_V1.0.2/MSDK/lwip/lwip-2.1.2/src/core/ipv4\ip4_frag.c ****     pbuf_free(pcr->original);
 664              		.loc 1 722 5 is_stmt 1
 665 0036 97000000 		call	pbuf_free
 665      E7800000 
 666              	.LVL71:
 667              	.L49:
 723:C:/Users/stapi/OneDrive/Desktop/GD32VW553/GD32VW55X_Wifi_BLE_SDK/GD32VW55x_RELEASE_V1.0.2/MSDK/lwip/lwip-2.1.2/src/core/ipv4\ip4_frag.c ****   }
 724:C:/Users/stapi/OneDrive/Desktop/GD32VW553/GD32VW55X_Wifi_BLE_SDK/GD32VW55x_RELEASE_V1.0.2/MSDK/lwip/lwip-2.1.2/src/core/ipv4\ip4_frag.c ****   ip_frag_free_pbuf_custom_ref(pcr);
 668              		.loc 1 724 3
 669 003e 2285     		mv	a0,s0
 670 0040 97000000 		call	ip_frag_free_pbuf_custom_ref
 670      E7800000 
 671              	.LVL72:
 725:C:/Users/stapi/OneDrive/Desktop/GD32VW553/GD32VW55X_Wifi_BLE_SDK/GD32VW55x_RELEASE_V1.0.2/MSDK/lwip/lwip-2.1.2/src/core/ipv4\ip4_frag.c **** }
 672              		.loc 1 725 1 is_stmt 0
 673 0048 17030000 		tail	__riscv_restore_1
 673      67000300 
 674              		.cfi_restore 8
 675              		.cfi_restore 1
 676              		.cfi_def_cfa_offset 0
 677              		.cfi_endproc
 678              	.LFE13:
 680              		.section	.text.ip_reass_tmr,"ax",@progbits
 681              		.align	1
 682              		.globl	ip_reass_tmr
 684              	ip_reass_tmr:
 685              	.LFB4:
 130:C:/Users/stapi/OneDrive/Desktop/GD32VW553/GD32VW55X_Wifi_BLE_SDK/GD32VW55x_RELEASE_V1.0.2/MSDK/lwip/lwip-2.1.2/src/core/ipv4\ip4_frag.c ****   struct ip_reassdata *r, *prev = NULL;
 686              		.loc 1 130 1 is_stmt 1
 687              		.cfi_startproc
 688 0000 17030000 		call	t0,__riscv_save_2
 688      E7020300 
 689              		.cfi_offset 9, -12
 690              		.cfi_offset 8, -8
 691              		.cfi_offset 1, -4
 692              		.cfi_def_cfa_offset 16
 131:C:/Users/stapi/OneDrive/Desktop/GD32VW553/GD32VW55X_Wifi_BLE_SDK/GD32VW55x_RELEASE_V1.0.2/MSDK/lwip/lwip-2.1.2/src/core/ipv4\ip4_frag.c **** 
 693              		.loc 1 131 3
 694              	.LVL73:
 133:C:/Users/stapi/OneDrive/Desktop/GD32VW553/GD32VW55X_Wifi_BLE_SDK/GD32VW55x_RELEASE_V1.0.2/MSDK/lwip/lwip-2.1.2/src/core/ipv4\ip4_frag.c ****   while (r != NULL) {
 695              		.loc 1 133 3
 133:C:/Users/stapi/OneDrive/Desktop/GD32VW553/GD32VW55X_Wifi_BLE_SDK/GD32VW55x_RELEASE_V1.0.2/MSDK/lwip/lwip-2.1.2/src/core/ipv4\ip4_frag.c ****   while (r != NULL) {
 696              		.loc 1 133 5 is_stmt 0
 697 0008 B7070000 		lui	a5,%hi(.LANCHOR0)
 698 000c 03A50700 		lw	a0,%lo(.LANCHOR0)(a5)
 699              	.LVL74:
 134:C:/Users/stapi/OneDrive/Desktop/GD32VW553/GD32VW55X_Wifi_BLE_SDK/GD32VW55x_RELEASE_V1.0.2/MSDK/lwip/lwip-2.1.2/src/core/ipv4\ip4_frag.c ****     /* Decrement the timer. Once it reaches 0,
 700              		.loc 1 134 3 is_stmt 1
 131:C:/Users/stapi/OneDrive/Desktop/GD32VW553/GD32VW55X_Wifi_BLE_SDK/GD32VW55x_RELEASE_V1.0.2/MSDK/lwip/lwip-2.1.2/src/core/ipv4\ip4_frag.c **** 
 701              		.loc 1 131 28 is_stmt 0
 702 0010 0144     		li	s0,0
 703              	.LVL75:
 704              	.L55:
 134:C:/Users/stapi/OneDrive/Desktop/GD32VW553/GD32VW55X_Wifi_BLE_SDK/GD32VW55x_RELEASE_V1.0.2/MSDK/lwip/lwip-2.1.2/src/core/ipv4\ip4_frag.c ****     /* Decrement the timer. Once it reaches 0,
 705              		.loc 1 134 9 is_stmt 1
 706 0012 09E5     		bne	a0,zero,.L58
 153:C:/Users/stapi/OneDrive/Desktop/GD32VW553/GD32VW55X_Wifi_BLE_SDK/GD32VW55x_RELEASE_V1.0.2/MSDK/lwip/lwip-2.1.2/src/core/ipv4\ip4_frag.c **** 
 707              		.loc 1 153 1 is_stmt 0
 708 0014 17030000 		tail	__riscv_restore_2
 708      67000300 
 709              		.cfi_remember_state
 710              		.cfi_restore 9
 711              		.cfi_restore 8
 712              		.cfi_restore 1
 713              		.cfi_def_cfa_offset 0
 714              	.L58:
 715              		.cfi_restore_state
 137:C:/Users/stapi/OneDrive/Desktop/GD32VW553/GD32VW55X_Wifi_BLE_SDK/GD32VW55x_RELEASE_V1.0.2/MSDK/lwip/lwip-2.1.2/src/core/ipv4\ip4_frag.c ****       r->timer--;
 716              		.loc 1 137 5 is_stmt 1
 137:C:/Users/stapi/OneDrive/Desktop/GD32VW553/GD32VW55X_Wifi_BLE_SDK/GD32VW55x_RELEASE_V1.0.2/MSDK/lwip/lwip-2.1.2/src/core/ipv4\ip4_frag.c ****       r->timer--;
 717              		.loc 1 137 10 is_stmt 0
 718 001c 8347F501 		lbu	a5,31(a0)
 141:C:/Users/stapi/OneDrive/Desktop/GD32VW553/GD32VW55X_Wifi_BLE_SDK/GD32VW55x_RELEASE_V1.0.2/MSDK/lwip/lwip-2.1.2/src/core/ipv4\ip4_frag.c ****     } else {
 719              		.loc 1 141 9
 720 0020 0441     		lw	s1,0(a0)
 137:C:/Users/stapi/OneDrive/Desktop/GD32VW553/GD32VW55X_Wifi_BLE_SDK/GD32VW55x_RELEASE_V1.0.2/MSDK/lwip/lwip-2.1.2/src/core/ipv4\ip4_frag.c ****       r->timer--;
 721              		.loc 1 137 8
 722 0022 99C7     		beq	a5,zero,.L56
 138:C:/Users/stapi/OneDrive/Desktop/GD32VW553/GD32VW55X_Wifi_BLE_SDK/GD32VW55x_RELEASE_V1.0.2/MSDK/lwip/lwip-2.1.2/src/core/ipv4\ip4_frag.c ****       LWIP_DEBUGF(IP_REASS_DEBUG, ("ip_reass_tmr: timer dec %"U16_F"\n", (u16_t)r->timer));
 723              		.loc 1 138 7 is_stmt 1
 138:C:/Users/stapi/OneDrive/Desktop/GD32VW553/GD32VW55X_Wifi_BLE_SDK/GD32VW55x_RELEASE_V1.0.2/MSDK/lwip/lwip-2.1.2/src/core/ipv4\ip4_frag.c ****       LWIP_DEBUGF(IP_REASS_DEBUG, ("ip_reass_tmr: timer dec %"U16_F"\n", (u16_t)r->timer));
 724              		.loc 1 138 15 is_stmt 0
 725 0024 FD17     		addi	a5,a5,-1
 726 0026 A30FF500 		sb	a5,31(a0)
 139:C:/Users/stapi/OneDrive/Desktop/GD32VW553/GD32VW55X_Wifi_BLE_SDK/GD32VW55x_RELEASE_V1.0.2/MSDK/lwip/lwip-2.1.2/src/core/ipv4\ip4_frag.c ****       prev = r;
 727              		.loc 1 139 91 is_stmt 1
 140:C:/Users/stapi/OneDrive/Desktop/GD32VW553/GD32VW55X_Wifi_BLE_SDK/GD32VW55x_RELEASE_V1.0.2/MSDK/lwip/lwip-2.1.2/src/core/ipv4\ip4_frag.c ****       r = r->next;
 728              		.loc 1 140 7
 729              	.LVL76:
 141:C:/Users/stapi/OneDrive/Desktop/GD32VW553/GD32VW55X_Wifi_BLE_SDK/GD32VW55x_RELEASE_V1.0.2/MSDK/lwip/lwip-2.1.2/src/core/ipv4\ip4_frag.c ****     } else {
 730              		.loc 1 141 7
 731              	.L57:
 732              	.LBB22:
 150:C:/Users/stapi/OneDrive/Desktop/GD32VW553/GD32VW55X_Wifi_BLE_SDK/GD32VW55x_RELEASE_V1.0.2/MSDK/lwip/lwip-2.1.2/src/core/ipv4\ip4_frag.c ****     }
 733              		.loc 1 150 7 is_stmt 0
 734 002a 2A84     		mv	s0,a0
 735 002c 2685     		mv	a0,s1
 736              	.LVL77:
 737 002e D5B7     		j	.L55
 738              	.LVL78:
 739              	.L56:
 144:C:/Users/stapi/OneDrive/Desktop/GD32VW553/GD32VW55X_Wifi_BLE_SDK/GD32VW55x_RELEASE_V1.0.2/MSDK/lwip/lwip-2.1.2/src/core/ipv4\ip4_frag.c ****       LWIP_DEBUGF(IP_REASS_DEBUG, ("ip_reass_tmr: timer timed out\n"));
 740              		.loc 1 144 7 is_stmt 1
 145:C:/Users/stapi/OneDrive/Desktop/GD32VW553/GD32VW55X_Wifi_BLE_SDK/GD32VW55x_RELEASE_V1.0.2/MSDK/lwip/lwip-2.1.2/src/core/ipv4\ip4_frag.c ****       tmp = r;
 741              		.loc 1 145 71
 146:C:/Users/stapi/OneDrive/Desktop/GD32VW553/GD32VW55X_Wifi_BLE_SDK/GD32VW55x_RELEASE_V1.0.2/MSDK/lwip/lwip-2.1.2/src/core/ipv4\ip4_frag.c ****       /* get the next pointer before freeing */
 742              		.loc 1 146 7
 148:C:/Users/stapi/OneDrive/Desktop/GD32VW553/GD32VW55X_Wifi_BLE_SDK/GD32VW55x_RELEASE_V1.0.2/MSDK/lwip/lwip-2.1.2/src/core/ipv4\ip4_frag.c ****       /* free the helper struct and all enqueued pbufs */
 743              		.loc 1 148 7
 150:C:/Users/stapi/OneDrive/Desktop/GD32VW553/GD32VW55X_Wifi_BLE_SDK/GD32VW55x_RELEASE_V1.0.2/MSDK/lwip/lwip-2.1.2/src/core/ipv4\ip4_frag.c ****     }
 744              		.loc 1 150 7
 745 0030 A285     		mv	a1,s0
 746 0032 97000000 		call	ip_reass_free_complete_datagram
 746      E7800000 
 747              	.LVL79:
 748 003a 2285     		mv	a0,s0
 749 003c FDB7     		j	.L57
 750              	.LBE22:
 751              		.cfi_endproc
 752              	.LFE4:
 754              		.section	.rodata.ip4_reass.str1.4,"aMS",@progbits,1
 755              		.align	2
 756              	.LC9:
 757 0000 63686563 		.string	"check fragments don't overlap"
 757      6B206672 
 757      61676D65 
 757      6E747320 
 757      646F6E27 
 758 001e 0000     		.align	2
 759              	.LC10:
 760 0020 6E6F2070 		.string	"no previous fragment, this must be the first fragment!"
 760      72657669 
 760      6F757320 
 760      66726167 
 760      6D656E74 
 761 0057 00       		.align	2
 762              	.LC11:
 763 0058 73616E69 		.string	"sanity check"
 763      74792063 
 763      6865636B 
 763      00
 764 0065 000000   		.align	2
 765              	.LC12:
 766 0068 76616C69 		.string	"validate_datagram:next_pbuf!=NULL"
 766      64617465 
 766      5F646174 
 766      61677261 
 766      6D3A6E65 
 767 008a 0000     		.align	2
 768              	.LC13:
 769 008c 69705F72 		.string	"ip_reass_pbufcount >= clen"
 769      65617373 
 769      5F706275 
 769      66636F75 
 769      6E74203E 
 770 00a7 00       		.align	2
 771              	.LC14:
 772 00a8 6E6F7420 		.string	"not firstalthough just enqueued"
 772      66697273 
 772      74616C74 
 772      686F7567 
 772      68206A75 
 773              		.section	.text.ip4_reass,"ax",@progbits
 774              		.align	1
 775              		.globl	ip4_reass
 777              	ip4_reass:
 778              	.LFB10:
 505:C:/Users/stapi/OneDrive/Desktop/GD32VW553/GD32VW55X_Wifi_BLE_SDK/GD32VW55x_RELEASE_V1.0.2/MSDK/lwip/lwip-2.1.2/src/core/ipv4\ip4_frag.c ****   struct pbuf *r;
 779              		.loc 1 505 1
 780              		.cfi_startproc
 781              	.LVL80:
 782 0000 17030000 		call	t0,__riscv_save_10
 782      E7020300 
 783              		.cfi_offset 25, -44
 784              		.cfi_offset 24, -40
 785              		.cfi_offset 23, -36
 786              		.cfi_offset 22, -32
 787              		.cfi_offset 21, -28
 788              		.cfi_offset 20, -24
 789              		.cfi_offset 19, -20
 790              		.cfi_offset 18, -16
 791              		.cfi_offset 9, -12
 792              		.cfi_offset 8, -8
 793              		.cfi_offset 1, -4
 794              		.cfi_def_cfa_offset 48
 506:C:/Users/stapi/OneDrive/Desktop/GD32VW553/GD32VW55X_Wifi_BLE_SDK/GD32VW55x_RELEASE_V1.0.2/MSDK/lwip/lwip-2.1.2/src/core/ipv4\ip4_frag.c ****   struct ip_hdr *fraghdr;
 795              		.loc 1 506 3
 507:C:/Users/stapi/OneDrive/Desktop/GD32VW553/GD32VW55X_Wifi_BLE_SDK/GD32VW55x_RELEASE_V1.0.2/MSDK/lwip/lwip-2.1.2/src/core/ipv4\ip4_frag.c ****   struct ip_reassdata *ipr;
 796              		.loc 1 507 3
 508:C:/Users/stapi/OneDrive/Desktop/GD32VW553/GD32VW55X_Wifi_BLE_SDK/GD32VW55x_RELEASE_V1.0.2/MSDK/lwip/lwip-2.1.2/src/core/ipv4\ip4_frag.c ****   struct ip_reass_helper *iprh;
 797              		.loc 1 508 3
 509:C:/Users/stapi/OneDrive/Desktop/GD32VW553/GD32VW55X_Wifi_BLE_SDK/GD32VW55x_RELEASE_V1.0.2/MSDK/lwip/lwip-2.1.2/src/core/ipv4\ip4_frag.c ****   u16_t offset, len, clen;
 798              		.loc 1 509 3
 510:C:/Users/stapi/OneDrive/Desktop/GD32VW553/GD32VW55X_Wifi_BLE_SDK/GD32VW55x_RELEASE_V1.0.2/MSDK/lwip/lwip-2.1.2/src/core/ipv4\ip4_frag.c ****   u8_t hlen;
 799              		.loc 1 510 3
 511:C:/Users/stapi/OneDrive/Desktop/GD32VW553/GD32VW55X_Wifi_BLE_SDK/GD32VW55x_RELEASE_V1.0.2/MSDK/lwip/lwip-2.1.2/src/core/ipv4\ip4_frag.c ****   int valid;
 800              		.loc 1 511 3
 512:C:/Users/stapi/OneDrive/Desktop/GD32VW553/GD32VW55X_Wifi_BLE_SDK/GD32VW55x_RELEASE_V1.0.2/MSDK/lwip/lwip-2.1.2/src/core/ipv4\ip4_frag.c ****   int is_last;
 801              		.loc 1 512 3
 513:C:/Users/stapi/OneDrive/Desktop/GD32VW553/GD32VW55X_Wifi_BLE_SDK/GD32VW55x_RELEASE_V1.0.2/MSDK/lwip/lwip-2.1.2/src/core/ipv4\ip4_frag.c **** 
 802              		.loc 1 513 3
 515:C:/Users/stapi/OneDrive/Desktop/GD32VW553/GD32VW55X_Wifi_BLE_SDK/GD32VW55x_RELEASE_V1.0.2/MSDK/lwip/lwip-2.1.2/src/core/ipv4\ip4_frag.c ****   MIB2_STATS_INC(mib2.ipreasmreqds);
 803              		.loc 1 515 33
 516:C:/Users/stapi/OneDrive/Desktop/GD32VW553/GD32VW55X_Wifi_BLE_SDK/GD32VW55x_RELEASE_V1.0.2/MSDK/lwip/lwip-2.1.2/src/core/ipv4\ip4_frag.c **** 
 804              		.loc 1 516 36
 518:C:/Users/stapi/OneDrive/Desktop/GD32VW553/GD32VW55X_Wifi_BLE_SDK/GD32VW55x_RELEASE_V1.0.2/MSDK/lwip/lwip-2.1.2/src/core/ipv4\ip4_frag.c **** 
 805              		.loc 1 518 3
 518:C:/Users/stapi/OneDrive/Desktop/GD32VW553/GD32VW55X_Wifi_BLE_SDK/GD32VW55x_RELEASE_V1.0.2/MSDK/lwip/lwip-2.1.2/src/core/ipv4\ip4_frag.c **** 
 806              		.loc 1 518 11 is_stmt 0
 807 0008 4441     		lw	s1,4(a0)
 808              	.LVL81:
 520:C:/Users/stapi/OneDrive/Desktop/GD32VW553/GD32VW55X_Wifi_BLE_SDK/GD32VW55x_RELEASE_V1.0.2/MSDK/lwip/lwip-2.1.2/src/core/ipv4\ip4_frag.c ****     LWIP_DEBUGF(IP_REASS_DEBUG, ("ip4_reass: IP options currently not supported!\n"));
 809              		.loc 1 520 3 is_stmt 1
 520:C:/Users/stapi/OneDrive/Desktop/GD32VW553/GD32VW55X_Wifi_BLE_SDK/GD32VW55x_RELEASE_V1.0.2/MSDK/lwip/lwip-2.1.2/src/core/ipv4\ip4_frag.c ****     LWIP_DEBUGF(IP_REASS_DEBUG, ("ip4_reass: IP options currently not supported!\n"));
 810              		.loc 1 520 6 is_stmt 0
 811 000a 5147     		li	a4,20
 505:C:/Users/stapi/OneDrive/Desktop/GD32VW553/GD32VW55X_Wifi_BLE_SDK/GD32VW55x_RELEASE_V1.0.2/MSDK/lwip/lwip-2.1.2/src/core/ipv4\ip4_frag.c ****   struct pbuf *r;
 812              		.loc 1 505 1
 813 000c 2A89     		mv	s2,a0
 520:C:/Users/stapi/OneDrive/Desktop/GD32VW553/GD32VW55X_Wifi_BLE_SDK/GD32VW55x_RELEASE_V1.0.2/MSDK/lwip/lwip-2.1.2/src/core/ipv4\ip4_frag.c ****     LWIP_DEBUGF(IP_REASS_DEBUG, ("ip4_reass: IP options currently not supported!\n"));
 814              		.loc 1 520 7
 815 000e 83C70400 		lbu	a5,0(s1)
 816 0012 BD8B     		andi	a5,a5,15
 520:C:/Users/stapi/OneDrive/Desktop/GD32VW553/GD32VW55X_Wifi_BLE_SDK/GD32VW55x_RELEASE_V1.0.2/MSDK/lwip/lwip-2.1.2/src/core/ipv4\ip4_frag.c ****     LWIP_DEBUGF(IP_REASS_DEBUG, ("ip4_reass: IP options currently not supported!\n"));
 817              		.loc 1 520 6
 818 0014 8A07     		slli	a5,a5,2
 819 0016 6394E70E 		bne	a5,a4,.L62
 526:C:/Users/stapi/OneDrive/Desktop/GD32VW553/GD32VW55X_Wifi_BLE_SDK/GD32VW55x_RELEASE_V1.0.2/MSDK/lwip/lwip-2.1.2/src/core/ipv4\ip4_frag.c ****   len = lwip_ntohs(IPH_LEN(fraghdr));
 820              		.loc 1 526 3 is_stmt 1
 526:C:/Users/stapi/OneDrive/Desktop/GD32VW553/GD32VW55X_Wifi_BLE_SDK/GD32VW55x_RELEASE_V1.0.2/MSDK/lwip/lwip-2.1.2/src/core/ipv4\ip4_frag.c ****   len = lwip_ntohs(IPH_LEN(fraghdr));
 821              		.loc 1 526 12 is_stmt 0
 822 001a 83C77400 		lbu	a5,7(s1)
 823 001e 03C56400 		lbu	a0,6(s1)
 824              	.LVL82:
 825 0022 A207     		slli	a5,a5,8
 826 0024 5D8D     		or	a0,a5,a0
 827 0026 97000000 		call	lwip_htons
 827      E7800000 
 828              	.LVL83:
 527:C:/Users/stapi/OneDrive/Desktop/GD32VW553/GD32VW55X_Wifi_BLE_SDK/GD32VW55x_RELEASE_V1.0.2/MSDK/lwip/lwip-2.1.2/src/core/ipv4\ip4_frag.c ****   hlen = IPH_HL_BYTES(fraghdr);
 829              		.loc 1 527 9
 830 002e 83C73400 		lbu	a5,3(s1)
 526:C:/Users/stapi/OneDrive/Desktop/GD32VW553/GD32VW55X_Wifi_BLE_SDK/GD32VW55x_RELEASE_V1.0.2/MSDK/lwip/lwip-2.1.2/src/core/ipv4\ip4_frag.c ****   len = lwip_ntohs(IPH_LEN(fraghdr));
 831              		.loc 1 526 12
 832 0032 AA8B     		mv	s7,a0
 833              	.LVL84:
 527:C:/Users/stapi/OneDrive/Desktop/GD32VW553/GD32VW55X_Wifi_BLE_SDK/GD32VW55x_RELEASE_V1.0.2/MSDK/lwip/lwip-2.1.2/src/core/ipv4\ip4_frag.c ****   hlen = IPH_HL_BYTES(fraghdr);
 834              		.loc 1 527 3 is_stmt 1
 527:C:/Users/stapi/OneDrive/Desktop/GD32VW553/GD32VW55X_Wifi_BLE_SDK/GD32VW55x_RELEASE_V1.0.2/MSDK/lwip/lwip-2.1.2/src/core/ipv4\ip4_frag.c ****   hlen = IPH_HL_BYTES(fraghdr);
 835              		.loc 1 527 9 is_stmt 0
 836 0034 03C52400 		lbu	a0,2(s1)
 837 0038 A207     		slli	a5,a5,8
 838 003a 5D8D     		or	a0,a5,a0
 839 003c 97000000 		call	lwip_htons
 839      E7800000 
 840              	.LVL85:
 528:C:/Users/stapi/OneDrive/Desktop/GD32VW553/GD32VW55X_Wifi_BLE_SDK/GD32VW55x_RELEASE_V1.0.2/MSDK/lwip/lwip-2.1.2/src/core/ipv4\ip4_frag.c ****   if (hlen > len) {
 841              		.loc 1 528 3 is_stmt 1
 529:C:/Users/stapi/OneDrive/Desktop/GD32VW553/GD32VW55X_Wifi_BLE_SDK/GD32VW55x_RELEASE_V1.0.2/MSDK/lwip/lwip-2.1.2/src/core/ipv4\ip4_frag.c ****     /* invalid datagram */
 842              		.loc 1 529 3
 528:C:/Users/stapi/OneDrive/Desktop/GD32VW553/GD32VW55X_Wifi_BLE_SDK/GD32VW55x_RELEASE_V1.0.2/MSDK/lwip/lwip-2.1.2/src/core/ipv4\ip4_frag.c ****   if (hlen > len) {
 843              		.loc 1 528 10 is_stmt 0
 844 0044 83CA0400 		lbu	s5,0(s1)
 845 0048 93FAFA00 		andi	s5,s5,15
 529:C:/Users/stapi/OneDrive/Desktop/GD32VW553/GD32VW55X_Wifi_BLE_SDK/GD32VW55x_RELEASE_V1.0.2/MSDK/lwip/lwip-2.1.2/src/core/ipv4\ip4_frag.c ****     /* invalid datagram */
 846              		.loc 1 529 12
 847 004c 8A0A     		slli	s5,s5,2
 529:C:/Users/stapi/OneDrive/Desktop/GD32VW553/GD32VW55X_Wifi_BLE_SDK/GD32VW55x_RELEASE_V1.0.2/MSDK/lwip/lwip-2.1.2/src/core/ipv4\ip4_frag.c ****     /* invalid datagram */
 848              		.loc 1 529 6
 849 004e 6368550B 		bgtu	s5,a0,.L62
 533:C:/Users/stapi/OneDrive/Desktop/GD32VW553/GD32VW55X_Wifi_BLE_SDK/GD32VW55x_RELEASE_V1.0.2/MSDK/lwip/lwip-2.1.2/src/core/ipv4\ip4_frag.c **** 
 850              		.loc 1 533 3 is_stmt 1
 533:C:/Users/stapi/OneDrive/Desktop/GD32VW553/GD32VW55X_Wifi_BLE_SDK/GD32VW55x_RELEASE_V1.0.2/MSDK/lwip/lwip-2.1.2/src/core/ipv4\ip4_frag.c **** 
 851              		.loc 1 533 7 is_stmt 0
 852 0052 B30A5541 		sub	s5,a0,s5
 536:C:/Users/stapi/OneDrive/Desktop/GD32VW553/GD32VW55X_Wifi_BLE_SDK/GD32VW55x_RELEASE_V1.0.2/MSDK/lwip/lwip-2.1.2/src/core/ipv4\ip4_frag.c ****   if ((ip_reass_pbufcount + clen) > IP_REASS_MAX_PBUFS) {
 853              		.loc 1 536 10
 854 0056 4A85     		mv	a0,s2
 855              	.LVL86:
 856 0058 97000000 		call	pbuf_clen
 856      E7800000 
 857              	.LVL87:
 537:C:/Users/stapi/OneDrive/Desktop/GD32VW553/GD32VW55X_Wifi_BLE_SDK/GD32VW55x_RELEASE_V1.0.2/MSDK/lwip/lwip-2.1.2/src/core/ipv4\ip4_frag.c **** #if IP_REASS_FREE_OLDEST
 858              		.loc 1 537 27
 859 0060 B7090000 		lui	s3,%hi(.LANCHOR1)
 860 0064 83D70900 		lhu	a5,%lo(.LANCHOR1)(s3)
 537:C:/Users/stapi/OneDrive/Desktop/GD32VW553/GD32VW55X_Wifi_BLE_SDK/GD32VW55x_RELEASE_V1.0.2/MSDK/lwip/lwip-2.1.2/src/core/ipv4\ip4_frag.c **** #if IP_REASS_FREE_OLDEST
 861              		.loc 1 537 6
 862 0068 2D44     		li	s0,11
 536:C:/Users/stapi/OneDrive/Desktop/GD32VW553/GD32VW55X_Wifi_BLE_SDK/GD32VW55x_RELEASE_V1.0.2/MSDK/lwip/lwip-2.1.2/src/core/ipv4\ip4_frag.c ****   if ((ip_reass_pbufcount + clen) > IP_REASS_MAX_PBUFS) {
 863              		.loc 1 536 10
 864 006a 2A8B     		mv	s6,a0
 537:C:/Users/stapi/OneDrive/Desktop/GD32VW553/GD32VW55X_Wifi_BLE_SDK/GD32VW55x_RELEASE_V1.0.2/MSDK/lwip/lwip-2.1.2/src/core/ipv4\ip4_frag.c **** #if IP_REASS_FREE_OLDEST
 865              		.loc 1 537 27
 866 006c AA97     		add	a5,a5,a0
 867 006e 93890900 		addi	s3,s3,%lo(.LANCHOR1)
 533:C:/Users/stapi/OneDrive/Desktop/GD32VW553/GD32VW55X_Wifi_BLE_SDK/GD32VW55x_RELEASE_V1.0.2/MSDK/lwip/lwip-2.1.2/src/core/ipv4\ip4_frag.c **** 
 868              		.loc 1 533 7
 869 0072 B3CA0A08 		zext.h	s5,s5
 870              	.LVL88:
 536:C:/Users/stapi/OneDrive/Desktop/GD32VW553/GD32VW55X_Wifi_BLE_SDK/GD32VW55x_RELEASE_V1.0.2/MSDK/lwip/lwip-2.1.2/src/core/ipv4\ip4_frag.c ****   if ((ip_reass_pbufcount + clen) > IP_REASS_MAX_PBUFS) {
 871              		.loc 1 536 3 is_stmt 1
 537:C:/Users/stapi/OneDrive/Desktop/GD32VW553/GD32VW55X_Wifi_BLE_SDK/GD32VW55x_RELEASE_V1.0.2/MSDK/lwip/lwip-2.1.2/src/core/ipv4\ip4_frag.c **** #if IP_REASS_FREE_OLDEST
 872              		.loc 1 537 3
 537:C:/Users/stapi/OneDrive/Desktop/GD32VW553/GD32VW55X_Wifi_BLE_SDK/GD32VW55x_RELEASE_V1.0.2/MSDK/lwip/lwip-2.1.2/src/core/ipv4\ip4_frag.c **** #if IP_REASS_FREE_OLDEST
 873              		.loc 1 537 6 is_stmt 0
 874 0076 6348F406 		bgt	a5,s0,.L64
 875              	.LVL89:
 876              	.L66:
 555:C:/Users/stapi/OneDrive/Desktop/GD32VW553/GD32VW55X_Wifi_BLE_SDK/GD32VW55x_RELEASE_V1.0.2/MSDK/lwip/lwip-2.1.2/src/core/ipv4\ip4_frag.c ****     /* Check if the incoming fragment matches the one currently present
 877              		.loc 1 555 3 is_stmt 1
 555:C:/Users/stapi/OneDrive/Desktop/GD32VW553/GD32VW55X_Wifi_BLE_SDK/GD32VW55x_RELEASE_V1.0.2/MSDK/lwip/lwip-2.1.2/src/core/ipv4\ip4_frag.c ****     /* Check if the incoming fragment matches the one currently present
 878              		.loc 1 555 12 is_stmt 0
 879 007a 370A0000 		lui	s4,%hi(.LANCHOR0)
 880 007e 03240A00 		lw	s0,%lo(.LANCHOR0)(s4)
 881              	.LVL90:
 882 0082 130A0A00 		addi	s4,s4,%lo(.LANCHOR0)
 883              	.L65:
 555:C:/Users/stapi/OneDrive/Desktop/GD32VW553/GD32VW55X_Wifi_BLE_SDK/GD32VW55x_RELEASE_V1.0.2/MSDK/lwip/lwip-2.1.2/src/core/ipv4\ip4_frag.c ****     /* Check if the incoming fragment matches the one currently present
 884              		.loc 1 555 30 is_stmt 1 discriminator 1
 555:C:/Users/stapi/OneDrive/Desktop/GD32VW553/GD32VW55X_Wifi_BLE_SDK/GD32VW55x_RELEASE_V1.0.2/MSDK/lwip/lwip-2.1.2/src/core/ipv4\ip4_frag.c ****     /* Check if the incoming fragment matches the one currently present
 885              		.loc 1 555 3 is_stmt 0 discriminator 1
 886 0086 59E0     		bne	s0,zero,.L69
 567:C:/Users/stapi/OneDrive/Desktop/GD32VW553/GD32VW55X_Wifi_BLE_SDK/GD32VW55x_RELEASE_V1.0.2/MSDK/lwip/lwip-2.1.2/src/core/ipv4\ip4_frag.c ****     /* Enqueue a new datagram into the datagram queue */
 887              		.loc 1 567 3 is_stmt 1
 569:C:/Users/stapi/OneDrive/Desktop/GD32VW553/GD32VW55X_Wifi_BLE_SDK/GD32VW55x_RELEASE_V1.0.2/MSDK/lwip/lwip-2.1.2/src/core/ipv4\ip4_frag.c ****     /* Bail if unable to enqueue */
 888              		.loc 1 569 5
 889              	.LVL91:
 890              	.LBB30:
 891              	.LBB31:
 281:C:/Users/stapi/OneDrive/Desktop/GD32VW553/GD32VW55X_Wifi_BLE_SDK/GD32VW55x_RELEASE_V1.0.2/MSDK/lwip/lwip-2.1.2/src/core/ipv4\ip4_frag.c **** #if ! IP_REASS_FREE_OLDEST
 892              		.loc 1 281 3
 287:C:/Users/stapi/OneDrive/Desktop/GD32VW553/GD32VW55X_Wifi_BLE_SDK/GD32VW55x_RELEASE_V1.0.2/MSDK/lwip/lwip-2.1.2/src/core/ipv4\ip4_frag.c ****   if (ipr == NULL) {
 893              		.loc 1 287 3
 287:C:/Users/stapi/OneDrive/Desktop/GD32VW553/GD32VW55X_Wifi_BLE_SDK/GD32VW55x_RELEASE_V1.0.2/MSDK/lwip/lwip-2.1.2/src/core/ipv4\ip4_frag.c ****   if (ipr == NULL) {
 894              		.loc 1 287 32 is_stmt 0
 895 0088 1945     		li	a0,6
 896 008a 97000000 		call	memp_malloc
 896      E7800000 
 897              	.LVL92:
 898 0092 2A84     		mv	s0,a0
 899              	.LVL93:
 288:C:/Users/stapi/OneDrive/Desktop/GD32VW553/GD32VW55X_Wifi_BLE_SDK/GD32VW55x_RELEASE_V1.0.2/MSDK/lwip/lwip-2.1.2/src/core/ipv4\ip4_frag.c **** #if IP_REASS_FREE_OLDEST
 900              		.loc 1 288 3 is_stmt 1
 288:C:/Users/stapi/OneDrive/Desktop/GD32VW553/GD32VW55X_Wifi_BLE_SDK/GD32VW55x_RELEASE_V1.0.2/MSDK/lwip/lwip-2.1.2/src/core/ipv4\ip4_frag.c **** #if IP_REASS_FREE_OLDEST
 901              		.loc 1 288 6 is_stmt 0
 902 0094 05E1     		bne	a0,zero,.L114
 290:C:/Users/stapi/OneDrive/Desktop/GD32VW553/GD32VW55X_Wifi_BLE_SDK/GD32VW55x_RELEASE_V1.0.2/MSDK/lwip/lwip-2.1.2/src/core/ipv4\ip4_frag.c ****       ipr = (struct ip_reassdata *)memp_malloc(MEMP_REASSDATA);
 903              		.loc 1 290 5 is_stmt 1
 290:C:/Users/stapi/OneDrive/Desktop/GD32VW553/GD32VW55X_Wifi_BLE_SDK/GD32VW55x_RELEASE_V1.0.2/MSDK/lwip/lwip-2.1.2/src/core/ipv4\ip4_frag.c ****       ipr = (struct ip_reassdata *)memp_malloc(MEMP_REASSDATA);
 904              		.loc 1 290 9 is_stmt 0
 905 0096 DA85     		mv	a1,s6
 906 0098 2685     		mv	a0,s1
 907 009a 97000000 		call	ip_reass_remove_oldest_datagram
 907      E7800000 
 908              	.LVL94:
 290:C:/Users/stapi/OneDrive/Desktop/GD32VW553/GD32VW55X_Wifi_BLE_SDK/GD32VW55x_RELEASE_V1.0.2/MSDK/lwip/lwip-2.1.2/src/core/ipv4\ip4_frag.c ****       ipr = (struct ip_reassdata *)memp_malloc(MEMP_REASSDATA);
 909              		.loc 1 290 8
 910 00a2 634E6505 		bgt	s6,a0,.L62
 291:C:/Users/stapi/OneDrive/Desktop/GD32VW553/GD32VW55X_Wifi_BLE_SDK/GD32VW55x_RELEASE_V1.0.2/MSDK/lwip/lwip-2.1.2/src/core/ipv4\ip4_frag.c ****     }
 911              		.loc 1 291 7 is_stmt 1
 291:C:/Users/stapi/OneDrive/Desktop/GD32VW553/GD32VW55X_Wifi_BLE_SDK/GD32VW55x_RELEASE_V1.0.2/MSDK/lwip/lwip-2.1.2/src/core/ipv4\ip4_frag.c ****     }
 912              		.loc 1 291 36 is_stmt 0
 913 00a6 1945     		li	a0,6
 914 00a8 97000000 		call	memp_malloc
 914      E7800000 
 915              	.LVL95:
 916 00b0 2A84     		mv	s0,a0
 917              	.LVL96:
 293:C:/Users/stapi/OneDrive/Desktop/GD32VW553/GD32VW55X_Wifi_BLE_SDK/GD32VW55x_RELEASE_V1.0.2/MSDK/lwip/lwip-2.1.2/src/core/ipv4\ip4_frag.c **** #endif /* IP_REASS_FREE_OLDEST */
 918              		.loc 1 293 5 is_stmt 1
 293:C:/Users/stapi/OneDrive/Desktop/GD32VW553/GD32VW55X_Wifi_BLE_SDK/GD32VW55x_RELEASE_V1.0.2/MSDK/lwip/lwip-2.1.2/src/core/ipv4\ip4_frag.c **** #endif /* IP_REASS_FREE_OLDEST */
 919              		.loc 1 293 8 is_stmt 0
 920 00b2 31C5     		beq	a0,zero,.L62
 921              	.L114:
 301:C:/Users/stapi/OneDrive/Desktop/GD32VW553/GD32VW55X_Wifi_BLE_SDK/GD32VW55x_RELEASE_V1.0.2/MSDK/lwip/lwip-2.1.2/src/core/ipv4\ip4_frag.c ****   ipr->timer = IP_REASS_MAXAGE;
 922              		.loc 1 301 3 is_stmt 1
 923 00b4 7146     		li	a2,28
 924 00b6 8145     		li	a1,0
 925 00b8 13054400 		addi	a0,s0,4
 926 00bc 97000000 		call	memset
 926      E7800000 
 927              	.LVL97:
 302:C:/Users/stapi/OneDrive/Desktop/GD32VW553/GD32VW55X_Wifi_BLE_SDK/GD32VW55x_RELEASE_V1.0.2/MSDK/lwip/lwip-2.1.2/src/core/ipv4\ip4_frag.c **** 
 928              		.loc 1 302 3
 302:C:/Users/stapi/OneDrive/Desktop/GD32VW553/GD32VW55X_Wifi_BLE_SDK/GD32VW55x_RELEASE_V1.0.2/MSDK/lwip/lwip-2.1.2/src/core/ipv4\ip4_frag.c **** 
 929              		.loc 1 302 14 is_stmt 0
 930 00c4 BD47     		li	a5,15
 931 00c6 A30FF400 		sb	a5,31(s0)
 305:C:/Users/stapi/OneDrive/Desktop/GD32VW553/GD32VW55X_Wifi_BLE_SDK/GD32VW55x_RELEASE_V1.0.2/MSDK/lwip/lwip-2.1.2/src/core/ipv4\ip4_frag.c ****   reassdatagrams = ipr;
 932              		.loc 1 305 3 is_stmt 1
 305:C:/Users/stapi/OneDrive/Desktop/GD32VW553/GD32VW55X_Wifi_BLE_SDK/GD32VW55x_RELEASE_V1.0.2/MSDK/lwip/lwip-2.1.2/src/core/ipv4\ip4_frag.c ****   reassdatagrams = ipr;
 933              		.loc 1 305 13 is_stmt 0
 934 00ca 83270A00 		lw	a5,0(s4)
 306:C:/Users/stapi/OneDrive/Desktop/GD32VW553/GD32VW55X_Wifi_BLE_SDK/GD32VW55x_RELEASE_V1.0.2/MSDK/lwip/lwip-2.1.2/src/core/ipv4\ip4_frag.c ****   /* copy the ip header for later tests and input */
 935              		.loc 1 306 18
 936 00ce 23208A00 		sw	s0,0(s4)
 305:C:/Users/stapi/OneDrive/Desktop/GD32VW553/GD32VW55X_Wifi_BLE_SDK/GD32VW55x_RELEASE_V1.0.2/MSDK/lwip/lwip-2.1.2/src/core/ipv4\ip4_frag.c ****   reassdatagrams = ipr;
 937              		.loc 1 305 13
 938 00d2 1CC0     		sw	a5,0(s0)
 306:C:/Users/stapi/OneDrive/Desktop/GD32VW553/GD32VW55X_Wifi_BLE_SDK/GD32VW55x_RELEASE_V1.0.2/MSDK/lwip/lwip-2.1.2/src/core/ipv4\ip4_frag.c ****   /* copy the ip header for later tests and input */
 939              		.loc 1 306 3 is_stmt 1
 309:C:/Users/stapi/OneDrive/Desktop/GD32VW553/GD32VW55X_Wifi_BLE_SDK/GD32VW55x_RELEASE_V1.0.2/MSDK/lwip/lwip-2.1.2/src/core/ipv4\ip4_frag.c ****   return ipr;
 940              		.loc 1 309 3
 941              	.LVL98:
 942              	.L151:
 943              	.LBE31:
 944              	.LBE30:
 581:C:/Users/stapi/OneDrive/Desktop/GD32VW553/GD32VW55X_Wifi_BLE_SDK/GD32VW55x_RELEASE_V1.0.2/MSDK/lwip/lwip-2.1.2/src/core/ipv4\ip4_frag.c ****     }
 945              		.loc 1 581 7
 946 00d4 5146     		li	a2,20
 947 00d6 A685     		mv	a1,s1
 948 00d8 13058400 		addi	a0,s0,8
 949 00dc 97000000 		call	memcpy
 949      E7800000 
 950              	.LVL99:
 951 00e4 3DA6     		j	.L71
 952              	.LVL100:
 953              	.L64:
 539:C:/Users/stapi/OneDrive/Desktop/GD32VW553/GD32VW55X_Wifi_BLE_SDK/GD32VW55x_RELEASE_V1.0.2/MSDK/lwip/lwip-2.1.2/src/core/ipv4\ip4_frag.c ****         ((ip_reass_pbufcount + clen) > IP_REASS_MAX_PBUFS))
 954              		.loc 1 539 5
 539:C:/Users/stapi/OneDrive/Desktop/GD32VW553/GD32VW55X_Wifi_BLE_SDK/GD32VW55x_RELEASE_V1.0.2/MSDK/lwip/lwip-2.1.2/src/core/ipv4\ip4_frag.c ****         ((ip_reass_pbufcount + clen) > IP_REASS_MAX_PBUFS))
 955              		.loc 1 539 10 is_stmt 0
 956 00e6 AA85     		mv	a1,a0
 957 00e8 2685     		mv	a0,s1
 958              	.LVL101:
 959 00ea 97000000 		call	ip_reass_remove_oldest_datagram
 959      E7800000 
 960              	.LVL102:
 539:C:/Users/stapi/OneDrive/Desktop/GD32VW553/GD32VW55X_Wifi_BLE_SDK/GD32VW55x_RELEASE_V1.0.2/MSDK/lwip/lwip-2.1.2/src/core/ipv4\ip4_frag.c ****         ((ip_reass_pbufcount + clen) > IP_REASS_MAX_PBUFS))
 961              		.loc 1 539 8
 962 00f2 11C5     		beq	a0,zero,.L62
 540:C:/Users/stapi/OneDrive/Desktop/GD32VW553/GD32VW55X_Wifi_BLE_SDK/GD32VW55x_RELEASE_V1.0.2/MSDK/lwip/lwip-2.1.2/src/core/ipv4\ip4_frag.c **** #endif /* IP_REASS_FREE_OLDEST */
 963              		.loc 1 540 30 discriminator 1
 964 00f4 83D70900 		lhu	a5,0(s3)
 965 00f8 DA97     		add	a5,a5,s6
 539:C:/Users/stapi/OneDrive/Desktop/GD32VW553/GD32VW55X_Wifi_BLE_SDK/GD32VW55x_RELEASE_V1.0.2/MSDK/lwip/lwip-2.1.2/src/core/ipv4\ip4_frag.c ****         ((ip_reass_pbufcount + clen) > IP_REASS_MAX_PBUFS))
 966              		.loc 1 539 57 discriminator 1
 967 00fa E350F4F8 		ble	a5,s0,.L66
 968              	.LVL103:
 969              	.L62:
 689:C:/Users/stapi/OneDrive/Desktop/GD32VW553/GD32VW55X_Wifi_BLE_SDK/GD32VW55x_RELEASE_V1.0.2/MSDK/lwip/lwip-2.1.2/src/core/ipv4\ip4_frag.c ****   IPFRAG_STATS_INC(ip_frag.drop);
 970              		.loc 1 689 59 is_stmt 1
 690:C:/Users/stapi/OneDrive/Desktop/GD32VW553/GD32VW55X_Wifi_BLE_SDK/GD32VW55x_RELEASE_V1.0.2/MSDK/lwip/lwip-2.1.2/src/core/ipv4\ip4_frag.c ****   pbuf_free(p);
 971              		.loc 1 690 33
 691:C:/Users/stapi/OneDrive/Desktop/GD32VW553/GD32VW55X_Wifi_BLE_SDK/GD32VW55x_RELEASE_V1.0.2/MSDK/lwip/lwip-2.1.2/src/core/ipv4\ip4_frag.c ****   return NULL;
 972              		.loc 1 691 3
 973 00fe 4A85     		mv	a0,s2
 974 0100 97000000 		call	pbuf_free
 974      E7800000 
 975              	.LVL104:
 692:C:/Users/stapi/OneDrive/Desktop/GD32VW553/GD32VW55X_Wifi_BLE_SDK/GD32VW55x_RELEASE_V1.0.2/MSDK/lwip/lwip-2.1.2/src/core/ipv4\ip4_frag.c **** }
 976              		.loc 1 692 3
 692:C:/Users/stapi/OneDrive/Desktop/GD32VW553/GD32VW55X_Wifi_BLE_SDK/GD32VW55x_RELEASE_V1.0.2/MSDK/lwip/lwip-2.1.2/src/core/ipv4\ip4_frag.c **** }
 977              		.loc 1 692 10 is_stmt 0
 978 0108 0149     		li	s2,0
 979              	.LVL105:
 980 010a 59A4     		j	.L60
 981              	.LVL106:
 982              	.L69:
 559:C:/Users/stapi/OneDrive/Desktop/GD32VW553/GD32VW55X_Wifi_BLE_SDK/GD32VW55x_RELEASE_V1.0.2/MSDK/lwip/lwip-2.1.2/src/core/ipv4\ip4_frag.c ****       LWIP_DEBUGF(IP_REASS_DEBUG, ("ip4_reass: matching previous fragment ID=%"X16_F"\n",
 983              		.loc 1 559 5 is_stmt 1
 559:C:/Users/stapi/OneDrive/Desktop/GD32VW553/GD32VW55X_Wifi_BLE_SDK/GD32VW55x_RELEASE_V1.0.2/MSDK/lwip/lwip-2.1.2/src/core/ipv4\ip4_frag.c ****       LWIP_DEBUGF(IP_REASS_DEBUG, ("ip4_reass: matching previous fragment ID=%"X16_F"\n",
 984              		.loc 1 559 9 is_stmt 0
 985 010c 03C7D400 		lbu	a4,13(s1)
 986 0110 83C7C400 		lbu	a5,12(s1)
 987 0114 2207     		slli	a4,a4,8
 988 0116 5D8F     		or	a4,a4,a5
 989 0118 83C7E400 		lbu	a5,14(s1)
 990 011c C207     		slli	a5,a5,16
 991 011e 5D8F     		or	a4,a5,a4
 992 0120 83C7F400 		lbu	a5,15(s1)
 993 0124 E207     		slli	a5,a5,24
 994 0126 D98F     		or	a5,a5,a4
 559:C:/Users/stapi/OneDrive/Desktop/GD32VW553/GD32VW55X_Wifi_BLE_SDK/GD32VW55x_RELEASE_V1.0.2/MSDK/lwip/lwip-2.1.2/src/core/ipv4\ip4_frag.c ****       LWIP_DEBUGF(IP_REASS_DEBUG, ("ip4_reass: matching previous fragment ID=%"X16_F"\n",
 995              		.loc 1 559 8
 996 0128 5848     		lw	a4,20(s0)
 997 012a 631DF702 		bne	a4,a5,.L67
 559:C:/Users/stapi/OneDrive/Desktop/GD32VW553/GD32VW55X_Wifi_BLE_SDK/GD32VW55x_RELEASE_V1.0.2/MSDK/lwip/lwip-2.1.2/src/core/ipv4\ip4_frag.c ****       LWIP_DEBUGF(IP_REASS_DEBUG, ("ip4_reass: matching previous fragment ID=%"X16_F"\n",
 998              		.loc 1 559 9 discriminator 1
 999 012e 03C71401 		lbu	a4,17(s1)
 1000 0132 83C70401 		lbu	a5,16(s1)
 1001 0136 2207     		slli	a4,a4,8
 1002 0138 5D8F     		or	a4,a4,a5
 1003 013a 83C72401 		lbu	a5,18(s1)
 1004 013e C207     		slli	a5,a5,16
 1005 0140 5D8F     		or	a4,a5,a4
 1006 0142 83C73401 		lbu	a5,19(s1)
 1007 0146 E207     		slli	a5,a5,24
 1008 0148 D98F     		or	a5,a5,a4
 1009 014a 184C     		lw	a4,24(s0)
 1010 014c 631CF700 		bne	a4,a5,.L67
 559:C:/Users/stapi/OneDrive/Desktop/GD32VW553/GD32VW55X_Wifi_BLE_SDK/GD32VW55x_RELEASE_V1.0.2/MSDK/lwip/lwip-2.1.2/src/core/ipv4\ip4_frag.c ****       LWIP_DEBUGF(IP_REASS_DEBUG, ("ip4_reass: matching previous fragment ID=%"X16_F"\n",
 1011              		.loc 1 559 9 discriminator 2
 1012 0150 83C75400 		lbu	a5,5(s1)
 1013 0154 83C64400 		lbu	a3,4(s1)
 1014 0158 0357C400 		lhu	a4,12(s0)
 1015 015c A207     		slli	a5,a5,8
 1016 015e D58F     		or	a5,a5,a3
 1017 0160 630EF726 		beq	a4,a5,.L68
 1018              	.L67:
 555:C:/Users/stapi/OneDrive/Desktop/GD32VW553/GD32VW55X_Wifi_BLE_SDK/GD32VW55x_RELEASE_V1.0.2/MSDK/lwip/lwip-2.1.2/src/core/ipv4\ip4_frag.c ****     /* Check if the incoming fragment matches the one currently present
 1019              		.loc 1 555 43 is_stmt 1 discriminator 2
 555:C:/Users/stapi/OneDrive/Desktop/GD32VW553/GD32VW55X_Wifi_BLE_SDK/GD32VW55x_RELEASE_V1.0.2/MSDK/lwip/lwip-2.1.2/src/core/ipv4\ip4_frag.c ****     /* Check if the incoming fragment matches the one currently present
 1020              		.loc 1 555 47 is_stmt 0 discriminator 2
 1021 0164 0040     		lw	s0,0(s0)
 1022              	.LVL107:
 1023 0166 05B7     		j	.L65
 1024              	.LVL108:
 1025              	.L80:
 1026              	.LBB32:
 1027              	.LBB33:
 382:C:/Users/stapi/OneDrive/Desktop/GD32VW553/GD32VW55X_Wifi_BLE_SDK/GD32VW55x_RELEASE_V1.0.2/MSDK/lwip/lwip-2.1.2/src/core/ipv4\ip4_frag.c ****     if (iprh->start < iprh_tmp->start) {
 1028              		.loc 1 382 5 is_stmt 1
 382:C:/Users/stapi/OneDrive/Desktop/GD32VW553/GD32VW55X_Wifi_BLE_SDK/GD32VW55x_RELEASE_V1.0.2/MSDK/lwip/lwip-2.1.2/src/core/ipv4\ip4_frag.c ****     if (iprh->start < iprh_tmp->start) {
 1029              		.loc 1 382 14 is_stmt 0
 1030 0168 4C42     		lw	a1,4(a2)
 1031              	.LVL109:
 383:C:/Users/stapi/OneDrive/Desktop/GD32VW553/GD32VW55X_Wifi_BLE_SDK/GD32VW55x_RELEASE_V1.0.2/MSDK/lwip/lwip-2.1.2/src/core/ipv4\ip4_frag.c ****       /* the new pbuf should be inserted before this */
 1032              		.loc 1 383 5 is_stmt 1
 383:C:/Users/stapi/OneDrive/Desktop/GD32VW553/GD32VW55X_Wifi_BLE_SDK/GD32VW55x_RELEASE_V1.0.2/MSDK/lwip/lwip-2.1.2/src/core/ipv4\ip4_frag.c ****       /* the new pbuf should be inserted before this */
 1033              		.loc 1 383 31 is_stmt 0
 1034 016a 03C55500 		lbu	a0,5(a1)
 1035 016e 03CE4500 		lbu	t3,4(a1)
 1036 0172 2205     		slli	a0,a0,8
 1037 0174 3365C501 		or	a0,a0,t3
 383:C:/Users/stapi/OneDrive/Desktop/GD32VW553/GD32VW55X_Wifi_BLE_SDK/GD32VW55x_RELEASE_V1.0.2/MSDK/lwip/lwip-2.1.2/src/core/ipv4\ip4_frag.c ****       /* the new pbuf should be inserted before this */
 1038              		.loc 1 383 8
 1039 0178 63F8A60C 		bgeu	a3,a0,.L75
 385:C:/Users/stapi/OneDrive/Desktop/GD32VW553/GD32VW55X_Wifi_BLE_SDK/GD32VW55x_RELEASE_V1.0.2/MSDK/lwip/lwip-2.1.2/src/core/ipv4\ip4_frag.c ****       if (iprh_prev != NULL) {
 1040              		.loc 1 385 7 is_stmt 1
 385:C:/Users/stapi/OneDrive/Desktop/GD32VW553/GD32VW55X_Wifi_BLE_SDK/GD32VW55x_RELEASE_V1.0.2/MSDK/lwip/lwip-2.1.2/src/core/ipv4\ip4_frag.c ****       if (iprh_prev != NULL) {
 1041              		.loc 1 385 23 is_stmt 0
 1042 017c 93558600 		srli	a1,a2,8
 1043              	.LVL110:
 1044 0180 2380C700 		sb	a2,0(a5)
 1045 0184 A380B700 		sb	a1,1(a5)
 1046 0188 93550601 		srli	a1,a2,16
 1047 018c 6182     		srli	a2,a2,24
 1048              	.LVL111:
 1049 018e 2381B700 		sb	a1,2(a5)
 1050 0192 A381C700 		sb	a2,3(a5)
 386:C:/Users/stapi/OneDrive/Desktop/GD32VW553/GD32VW55X_Wifi_BLE_SDK/GD32VW55x_RELEASE_V1.0.2/MSDK/lwip/lwip-2.1.2/src/core/ipv4\ip4_frag.c ****         /* not the fragment with the lowest offset */
 1051              		.loc 1 386 7 is_stmt 1
 386:C:/Users/stapi/OneDrive/Desktop/GD32VW553/GD32VW55X_Wifi_BLE_SDK/GD32VW55x_RELEASE_V1.0.2/MSDK/lwip/lwip-2.1.2/src/core/ipv4\ip4_frag.c ****         /* not the fragment with the lowest offset */
 1052              		.loc 1 386 10 is_stmt 0
 1053 0196 45C7     		beq	a4,zero,.L76
 389:C:/Users/stapi/OneDrive/Desktop/GD32VW553/GD32VW55X_Wifi_BLE_SDK/GD32VW55x_RELEASE_V1.0.2/MSDK/lwip/lwip-2.1.2/src/core/ipv4\ip4_frag.c ****           /* fragment overlaps with previous or following, throw away */
 1054              		.loc 1 389 9 is_stmt 1
 389:C:/Users/stapi/OneDrive/Desktop/GD32VW553/GD32VW55X_Wifi_BLE_SDK/GD32VW55x_RELEASE_V1.0.2/MSDK/lwip/lwip-2.1.2/src/core/ipv4\ip4_frag.c ****           /* fragment overlaps with previous or following, throw away */
 1055              		.loc 1 389 37 is_stmt 0
 1056 0198 03467700 		lbu	a2,7(a4)
 1057 019c 83456700 		lbu	a1,6(a4)
 1058 01a0 2206     		slli	a2,a2,8
 1059 01a2 4D8E     		or	a2,a2,a1
 389:C:/Users/stapi/OneDrive/Desktop/GD32VW553/GD32VW55X_Wifi_BLE_SDK/GD32VW55x_RELEASE_V1.0.2/MSDK/lwip/lwip-2.1.2/src/core/ipv4\ip4_frag.c ****           /* fragment overlaps with previous or following, throw away */
 1060              		.loc 1 389 12
 1061 01a4 63E2C620 		bltu	a3,a2,.L73
 389:C:/Users/stapi/OneDrive/Desktop/GD32VW553/GD32VW55X_Wifi_BLE_SDK/GD32VW55x_RELEASE_V1.0.2/MSDK/lwip/lwip-2.1.2/src/core/ipv4\ip4_frag.c ****           /* fragment overlaps with previous or following, throw away */
 1062              		.loc 1 389 44
 1063 01a8 63601521 		bgtu	a7,a0,.L73
 1064              	.L82:
 439:C:/Users/stapi/OneDrive/Desktop/GD32VW553/GD32VW55X_Wifi_BLE_SDK/GD32VW55x_RELEASE_V1.0.2/MSDK/lwip/lwip-2.1.2/src/core/ipv4\ip4_frag.c **** #endif /* IP_REASS_CHECK_OVERLAP */
 1065              		.loc 1 439 7 is_stmt 1
 439:C:/Users/stapi/OneDrive/Desktop/GD32VW553/GD32VW55X_Wifi_BLE_SDK/GD32VW55x_RELEASE_V1.0.2/MSDK/lwip/lwip-2.1.2/src/core/ipv4\ip4_frag.c **** #endif /* IP_REASS_CHECK_OVERLAP */
 1066              		.loc 1 439 7
 441:C:/Users/stapi/OneDrive/Desktop/GD32VW553/GD32VW55X_Wifi_BLE_SDK/GD32VW55x_RELEASE_V1.0.2/MSDK/lwip/lwip-2.1.2/src/core/ipv4\ip4_frag.c ****       if (iprh_prev->end != iprh->start) {
 1067              		.loc 1 441 7
 441:C:/Users/stapi/OneDrive/Desktop/GD32VW553/GD32VW55X_Wifi_BLE_SDK/GD32VW55x_RELEASE_V1.0.2/MSDK/lwip/lwip-2.1.2/src/core/ipv4\ip4_frag.c ****       if (iprh_prev->end != iprh->start) {
 1068              		.loc 1 441 28 is_stmt 0
 1069 01ac 93558900 		srli	a1,s2,8
 1070 01b0 23002701 		sb	s2,0(a4)
 1071 01b4 A300B700 		sb	a1,1(a4)
 1072 01b8 93550901 		srli	a1,s2,16
 1073 01bc 13598901 		srli	s2,s2,24
 1074              	.LVL112:
 1075 01c0 2301B700 		sb	a1,2(a4)
 1076 01c4 A3012701 		sb	s2,3(a4)
 442:C:/Users/stapi/OneDrive/Desktop/GD32VW553/GD32VW55X_Wifi_BLE_SDK/GD32VW55x_RELEASE_V1.0.2/MSDK/lwip/lwip-2.1.2/src/core/ipv4\ip4_frag.c ****         valid = 0;
 1077              		.loc 1 442 7 is_stmt 1
 442:C:/Users/stapi/OneDrive/Desktop/GD32VW553/GD32VW55X_Wifi_BLE_SDK/GD32VW55x_RELEASE_V1.0.2/MSDK/lwip/lwip-2.1.2/src/core/ipv4\ip4_frag.c ****         valid = 0;
 1078              		.loc 1 442 10 is_stmt 0
 1079 01c8 6394C632 		bne	a3,a2,.L77
 1080              	.L78:
 457:C:/Users/stapi/OneDrive/Desktop/GD32VW553/GD32VW55X_Wifi_BLE_SDK/GD32VW55x_RELEASE_V1.0.2/MSDK/lwip/lwip-2.1.2/src/core/ipv4\ip4_frag.c ****     /* and had no holes so far */
 1081              		.loc 1 457 3 is_stmt 1
 457:C:/Users/stapi/OneDrive/Desktop/GD32VW553/GD32VW55X_Wifi_BLE_SDK/GD32VW55x_RELEASE_V1.0.2/MSDK/lwip/lwip-2.1.2/src/core/ipv4\ip4_frag.c ****     /* and had no holes so far */
 1082              		.loc 1 457 6 is_stmt 0
 1083 01cc 63070C00 		beq	s8,zero,.L87
 1084              	.LVL113:
 1085              	.L115:
 457:C:/Users/stapi/OneDrive/Desktop/GD32VW553/GD32VW55X_Wifi_BLE_SDK/GD32VW55x_RELEASE_V1.0.2/MSDK/lwip/lwip-2.1.2/src/core/ipv4\ip4_frag.c ****     /* and had no holes so far */
 1086              		.loc 1 457 15
 1087 01d0 0347E401 		lbu	a4,30(s0)
 1088              	.LVL114:
 1089 01d4 058B     		andi	a4,a4,1
 1090 01d6 63000732 		beq	a4,zero,.L116
 1091              	.L87:
 459:C:/Users/stapi/OneDrive/Desktop/GD32VW553/GD32VW55X_Wifi_BLE_SDK/GD32VW55x_RELEASE_V1.0.2/MSDK/lwip/lwip-2.1.2/src/core/ipv4\ip4_frag.c ****       /* then check if the rest of the fragments is here */
 1092              		.loc 1 459 5 is_stmt 1
 459:C:/Users/stapi/OneDrive/Desktop/GD32VW553/GD32VW55X_Wifi_BLE_SDK/GD32VW55x_RELEASE_V1.0.2/MSDK/lwip/lwip-2.1.2/src/core/ipv4\ip4_frag.c ****       /* then check if the rest of the fragments is here */
 1093              		.loc 1 459 8 is_stmt 0
 1094 01da 630E0830 		beq	a6,zero,.L116
 462:C:/Users/stapi/OneDrive/Desktop/GD32VW553/GD32VW55X_Wifi_BLE_SDK/GD32VW55x_RELEASE_V1.0.2/MSDK/lwip/lwip-2.1.2/src/core/ipv4\ip4_frag.c ****         valid = 0;
 1095              		.loc 1 462 7 is_stmt 1
 462:C:/Users/stapi/OneDrive/Desktop/GD32VW553/GD32VW55X_Wifi_BLE_SDK/GD32VW55x_RELEASE_V1.0.2/MSDK/lwip/lwip-2.1.2/src/core/ipv4\ip4_frag.c ****         valid = 0;
 1096              		.loc 1 462 15 is_stmt 0
 1097 01de 5840     		lw	a4,4(s0)
 462:C:/Users/stapi/OneDrive/Desktop/GD32VW553/GD32VW55X_Wifi_BLE_SDK/GD32VW55x_RELEASE_V1.0.2/MSDK/lwip/lwip-2.1.2/src/core/ipv4\ip4_frag.c ****         valid = 0;
 1098              		.loc 1 462 10
 1099 01e0 630B0730 		beq	a4,zero,.L116
 462:C:/Users/stapi/OneDrive/Desktop/GD32VW553/GD32VW55X_Wifi_BLE_SDK/GD32VW55x_RELEASE_V1.0.2/MSDK/lwip/lwip-2.1.2/src/core/ipv4\ip4_frag.c ****         valid = 0;
 1100              		.loc 1 462 65
 1101 01e4 5443     		lw	a3,4(a4)
 1102              	.LVL115:
 462:C:/Users/stapi/OneDrive/Desktop/GD32VW553/GD32VW55X_Wifi_BLE_SDK/GD32VW55x_RELEASE_V1.0.2/MSDK/lwip/lwip-2.1.2/src/core/ipv4\ip4_frag.c ****         valid = 0;
 1103              		.loc 1 462 75
 1104 01e6 03C75600 		lbu	a4,5(a3)
 1105 01ea 03C64600 		lbu	a2,4(a3)
 1106 01ee 2207     		slli	a4,a4,8
 462:C:/Users/stapi/OneDrive/Desktop/GD32VW553/GD32VW55X_Wifi_BLE_SDK/GD32VW55x_RELEASE_V1.0.2/MSDK/lwip/lwip-2.1.2/src/core/ipv4\ip4_frag.c ****         valid = 0;
 1107              		.loc 1 462 28
 1108 01f0 518F     		or	a4,a4,a2
 1109 01f2 63120730 		bne	a4,zero,.L116
 466:C:/Users/stapi/OneDrive/Desktop/GD32VW553/GD32VW55X_Wifi_BLE_SDK/GD32VW55x_RELEASE_V1.0.2/MSDK/lwip/lwip-2.1.2/src/core/ipv4\ip4_frag.c ****         q = iprh->next_pbuf;
 1110              		.loc 1 466 9 is_stmt 1
 1111              	.LVL116:
 467:C:/Users/stapi/OneDrive/Desktop/GD32VW553/GD32VW55X_Wifi_BLE_SDK/GD32VW55x_RELEASE_V1.0.2/MSDK/lwip/lwip-2.1.2/src/core/ipv4\ip4_frag.c ****         while (q != NULL) {
 1112              		.loc 1 467 9
 467:C:/Users/stapi/OneDrive/Desktop/GD32VW553/GD32VW55X_Wifi_BLE_SDK/GD32VW55x_RELEASE_V1.0.2/MSDK/lwip/lwip-2.1.2/src/core/ipv4\ip4_frag.c ****         while (q != NULL) {
 1113              		.loc 1 467 11 is_stmt 0
 1114 01f6 03C61700 		lbu	a2,1(a5)
 1115 01fa 03C70700 		lbu	a4,0(a5)
 1116 01fe 2206     		slli	a2,a2,8
 1117 0200 598E     		or	a2,a2,a4
 1118 0202 03C72700 		lbu	a4,2(a5)
 1119 0206 4207     		slli	a4,a4,16
 1120 0208 598E     		or	a2,a4,a2
 1121 020a 03C73700 		lbu	a4,3(a5)
 1122 020e 6207     		slli	a4,a4,24
 1123 0210 518F     		or	a4,a4,a2
 1124              	.LVL117:
 468:C:/Users/stapi/OneDrive/Desktop/GD32VW553/GD32VW55X_Wifi_BLE_SDK/GD32VW55x_RELEASE_V1.0.2/MSDK/lwip/lwip-2.1.2/src/core/ipv4\ip4_frag.c ****           iprh = (struct ip_reass_helper *)q->payload;
 1125              		.loc 1 468 9 is_stmt 1
 1126              	.L90:
 468:C:/Users/stapi/OneDrive/Desktop/GD32VW553/GD32VW55X_Wifi_BLE_SDK/GD32VW55x_RELEASE_V1.0.2/MSDK/lwip/lwip-2.1.2/src/core/ipv4\ip4_frag.c ****           iprh = (struct ip_reass_helper *)q->payload;
 1127              		.loc 1 468 15
 1128 0212 5DEB     		bne	a4,zero,.L91
 1129              	.LVL118:
 479:C:/Users/stapi/OneDrive/Desktop/GD32VW553/GD32VW55X_Wifi_BLE_SDK/GD32VW55x_RELEASE_V1.0.2/MSDK/lwip/lwip-2.1.2/src/core/ipv4\ip4_frag.c ****           LWIP_ASSERT("sanity check", ipr->p != NULL);
 1130              		.loc 1 479 9
 480:C:/Users/stapi/OneDrive/Desktop/GD32VW553/GD32VW55X_Wifi_BLE_SDK/GD32VW55x_RELEASE_V1.0.2/MSDK/lwip/lwip-2.1.2/src/core/ipv4\ip4_frag.c ****           LWIP_ASSERT("sanity check",
 1131              		.loc 1 480 11
 480:C:/Users/stapi/OneDrive/Desktop/GD32VW553/GD32VW55X_Wifi_BLE_SDK/GD32VW55x_RELEASE_V1.0.2/MSDK/lwip/lwip-2.1.2/src/core/ipv4\ip4_frag.c ****           LWIP_ASSERT("sanity check",
 1132              		.loc 1 480 11
 480:C:/Users/stapi/OneDrive/Desktop/GD32VW553/GD32VW55X_Wifi_BLE_SDK/GD32VW55x_RELEASE_V1.0.2/MSDK/lwip/lwip-2.1.2/src/core/ipv4\ip4_frag.c ****           LWIP_ASSERT("sanity check",
 1133              		.loc 1 480 11
 480:C:/Users/stapi/OneDrive/Desktop/GD32VW553/GD32VW55X_Wifi_BLE_SDK/GD32VW55x_RELEASE_V1.0.2/MSDK/lwip/lwip-2.1.2/src/core/ipv4\ip4_frag.c ****           LWIP_ASSERT("sanity check",
 1134              		.loc 1 480 11
 481:C:/Users/stapi/OneDrive/Desktop/GD32VW553/GD32VW55X_Wifi_BLE_SDK/GD32VW55x_RELEASE_V1.0.2/MSDK/lwip/lwip-2.1.2/src/core/ipv4\ip4_frag.c ****                       ((struct ip_reass_helper *)ipr->p->payload) != iprh);
 1135              		.loc 1 481 11
 481:C:/Users/stapi/OneDrive/Desktop/GD32VW553/GD32VW55X_Wifi_BLE_SDK/GD32VW55x_RELEASE_V1.0.2/MSDK/lwip/lwip-2.1.2/src/core/ipv4\ip4_frag.c ****                       ((struct ip_reass_helper *)ipr->p->payload) != iprh);
 1136              		.loc 1 481 11
 1137 0214 6399F60E 		bne	a3,a5,.L148
 481:C:/Users/stapi/OneDrive/Desktop/GD32VW553/GD32VW55X_Wifi_BLE_SDK/GD32VW55x_RELEASE_V1.0.2/MSDK/lwip/lwip-2.1.2/src/core/ipv4\ip4_frag.c ****                       ((struct ip_reass_helper *)ipr->p->payload) != iprh);
 1138              		.loc 1 481 11
 481:C:/Users/stapi/OneDrive/Desktop/GD32VW553/GD32VW55X_Wifi_BLE_SDK/GD32VW55x_RELEASE_V1.0.2/MSDK/lwip/lwip-2.1.2/src/core/ipv4\ip4_frag.c ****                       ((struct ip_reass_helper *)ipr->p->payload) != iprh);
 1139              		.loc 1 481 11
 1140 0218 B7060000 		lui	a3,%hi(.LC0)
 1141 021c B7050000 		lui	a1,%hi(.LC11)
 1142 0220 37050000 		lui	a0,%hi(.LC2)
 1143 0224 93860600 		addi	a3,a3,%lo(.LC0)
 1144 0228 1306101E 		li	a2,481
 1145 022c 93850500 		addi	a1,a1,%lo(.LC11)
 1146 0230 13050500 		addi	a0,a0,%lo(.LC2)
 1147 0234 97000000 		call	printf
 1147      E7800000 
 1148              	.LVL119:
 1149              	.L93:
 481:C:/Users/stapi/OneDrive/Desktop/GD32VW553/GD32VW55X_Wifi_BLE_SDK/GD32VW55x_RELEASE_V1.0.2/MSDK/lwip/lwip-2.1.2/src/core/ipv4\ip4_frag.c ****                       ((struct ip_reass_helper *)ipr->p->payload) != iprh);
 1150              		.loc 1 481 11
 481:C:/Users/stapi/OneDrive/Desktop/GD32VW553/GD32VW55X_Wifi_BLE_SDK/GD32VW55x_RELEASE_V1.0.2/MSDK/lwip/lwip-2.1.2/src/core/ipv4\ip4_frag.c ****                       ((struct ip_reass_helper *)ipr->p->payload) != iprh);
 1151              		.loc 1 481 11
 481:C:/Users/stapi/OneDrive/Desktop/GD32VW553/GD32VW55X_Wifi_BLE_SDK/GD32VW55x_RELEASE_V1.0.2/MSDK/lwip/lwip-2.1.2/src/core/ipv4\ip4_frag.c ****                       ((struct ip_reass_helper *)ipr->p->payload) != iprh);
 1152              		.loc 1 481 11
 1153 023c 01A0     		j	.L93
 1154              	.LVL120:
 1155              	.L76:
 402:C:/Users/stapi/OneDrive/Desktop/GD32VW553/GD32VW55X_Wifi_BLE_SDK/GD32VW55x_RELEASE_V1.0.2/MSDK/lwip/lwip-2.1.2/src/core/ipv4\ip4_frag.c ****           /* fragment overlaps with following, throw away */
 1156              		.loc 1 402 9
 402:C:/Users/stapi/OneDrive/Desktop/GD32VW553/GD32VW55X_Wifi_BLE_SDK/GD32VW55x_RELEASE_V1.0.2/MSDK/lwip/lwip-2.1.2/src/core/ipv4\ip4_frag.c ****           /* fragment overlaps with following, throw away */
 1157              		.loc 1 402 12 is_stmt 0
 1158 023e 63651517 		bgtu	a7,a0,.L73
 1159              	.L85:
 447:C:/Users/stapi/OneDrive/Desktop/GD32VW553/GD32VW55X_Wifi_BLE_SDK/GD32VW55x_RELEASE_V1.0.2/MSDK/lwip/lwip-2.1.2/src/core/ipv4\ip4_frag.c ****                   ipr->p == NULL);
 1160              		.loc 1 447 7 is_stmt 1
 447:C:/Users/stapi/OneDrive/Desktop/GD32VW553/GD32VW55X_Wifi_BLE_SDK/GD32VW55x_RELEASE_V1.0.2/MSDK/lwip/lwip-2.1.2/src/core/ipv4\ip4_frag.c ****                   ipr->p == NULL);
 1161              		.loc 1 447 7
 451:C:/Users/stapi/OneDrive/Desktop/GD32VW553/GD32VW55X_Wifi_BLE_SDK/GD32VW55x_RELEASE_V1.0.2/MSDK/lwip/lwip-2.1.2/src/core/ipv4\ip4_frag.c ****     }
 1162              		.loc 1 451 7
 451:C:/Users/stapi/OneDrive/Desktop/GD32VW553/GD32VW55X_Wifi_BLE_SDK/GD32VW55x_RELEASE_V1.0.2/MSDK/lwip/lwip-2.1.2/src/core/ipv4\ip4_frag.c ****     }
 1163              		.loc 1 451 14 is_stmt 0
 1164 0242 23222401 		sw	s2,4(s0)
 1165 0246 59B7     		j	.L78
 1166              	.LVL121:
 1167              	.L75:
 411:C:/Users/stapi/OneDrive/Desktop/GD32VW553/GD32VW55X_Wifi_BLE_SDK/GD32VW55x_RELEASE_V1.0.2/MSDK/lwip/lwip-2.1.2/src/core/ipv4\ip4_frag.c ****       /* received the same datagram twice: no need to keep the datagram */
 1168              		.loc 1 411 12 is_stmt 1
 411:C:/Users/stapi/OneDrive/Desktop/GD32VW553/GD32VW55X_Wifi_BLE_SDK/GD32VW55x_RELEASE_V1.0.2/MSDK/lwip/lwip-2.1.2/src/core/ipv4\ip4_frag.c ****       /* received the same datagram twice: no need to keep the datagram */
 1169              		.loc 1 411 15 is_stmt 0
 1170 0248 6380A616 		beq	a3,a0,.L73
 415:C:/Users/stapi/OneDrive/Desktop/GD32VW553/GD32VW55X_Wifi_BLE_SDK/GD32VW55x_RELEASE_V1.0.2/MSDK/lwip/lwip-2.1.2/src/core/ipv4\ip4_frag.c ****       /* overlap: no need to keep the new datagram */
 1171              		.loc 1 415 12 is_stmt 1
 415:C:/Users/stapi/OneDrive/Desktop/GD32VW553/GD32VW55X_Wifi_BLE_SDK/GD32VW55x_RELEASE_V1.0.2/MSDK/lwip/lwip-2.1.2/src/core/ipv4\ip4_frag.c ****       /* overlap: no need to keep the new datagram */
 1172              		.loc 1 415 38 is_stmt 0
 1173 024c 03C67500 		lbu	a2,7(a1)
 1174              	.LVL122:
 1175 0250 03CE6500 		lbu	t3,6(a1)
 1176 0254 2206     		slli	a2,a2,8
 415:C:/Users/stapi/OneDrive/Desktop/GD32VW553/GD32VW55X_Wifi_BLE_SDK/GD32VW55x_RELEASE_V1.0.2/MSDK/lwip/lwip-2.1.2/src/core/ipv4\ip4_frag.c ****       /* overlap: no need to keep the new datagram */
 1177              		.loc 1 415 15
 1178 0256 3366C601 		or	a2,a2,t3
 1179 025a 63E7C614 		bltu	a3,a2,.L73
 421:C:/Users/stapi/OneDrive/Desktop/GD32VW553/GD32VW55X_Wifi_BLE_SDK/GD32VW55x_RELEASE_V1.0.2/MSDK/lwip/lwip-2.1.2/src/core/ipv4\ip4_frag.c ****         if (iprh_prev->end != iprh_tmp->start) {
 1180              		.loc 1 421 7 is_stmt 1
 421:C:/Users/stapi/OneDrive/Desktop/GD32VW553/GD32VW55X_Wifi_BLE_SDK/GD32VW55x_RELEASE_V1.0.2/MSDK/lwip/lwip-2.1.2/src/core/ipv4\ip4_frag.c ****         if (iprh_prev->end != iprh_tmp->start) {
 1181              		.loc 1 421 10 is_stmt 0
 1182 025e 11CB     		beq	a4,zero,.L79
 422:C:/Users/stapi/OneDrive/Desktop/GD32VW553/GD32VW55X_Wifi_BLE_SDK/GD32VW55x_RELEASE_V1.0.2/MSDK/lwip/lwip-2.1.2/src/core/ipv4\ip4_frag.c ****           /* There is a fragment missing between the current
 1183              		.loc 1 422 9 is_stmt 1
 422:C:/Users/stapi/OneDrive/Desktop/GD32VW553/GD32VW55X_Wifi_BLE_SDK/GD32VW55x_RELEASE_V1.0.2/MSDK/lwip/lwip-2.1.2/src/core/ipv4\ip4_frag.c ****           /* There is a fragment missing between the current
 1184              		.loc 1 422 22 is_stmt 0
 1185 0260 03466700 		lbu	a2,6(a4)
 1186 0264 03477700 		lbu	a4,7(a4)
 1187              	.LVL123:
 1188 0268 2207     		slli	a4,a4,8
 422:C:/Users/stapi/OneDrive/Desktop/GD32VW553/GD32VW55X_Wifi_BLE_SDK/GD32VW55x_RELEASE_V1.0.2/MSDK/lwip/lwip-2.1.2/src/core/ipv4\ip4_frag.c ****           /* There is a fragment missing between the current
 1189              		.loc 1 422 12
 1190 026a 518F     		or	a4,a4,a2
 1191 026c 6303E500 		beq	a0,a4,.L79
 425:C:/Users/stapi/OneDrive/Desktop/GD32VW553/GD32VW55X_Wifi_BLE_SDK/GD32VW55x_RELEASE_V1.0.2/MSDK/lwip/lwip-2.1.2/src/core/ipv4\ip4_frag.c ****         }
 1192              		.loc 1 425 17
 1193 0270 0148     		li	a6,0
 1194              	.LVL124:
 1195              	.L79:
 429:C:/Users/stapi/OneDrive/Desktop/GD32VW553/GD32VW55X_Wifi_BLE_SDK/GD32VW55x_RELEASE_V1.0.2/MSDK/lwip/lwip-2.1.2/src/core/ipv4\ip4_frag.c ****     iprh_prev = iprh_tmp;
 1196              		.loc 1 429 5 is_stmt 1
 429:C:/Users/stapi/OneDrive/Desktop/GD32VW553/GD32VW55X_Wifi_BLE_SDK/GD32VW55x_RELEASE_V1.0.2/MSDK/lwip/lwip-2.1.2/src/core/ipv4\ip4_frag.c ****     iprh_prev = iprh_tmp;
 1197              		.loc 1 429 7 is_stmt 0
 1198 0272 03C71500 		lbu	a4,1(a1)
 1199 0276 03C60500 		lbu	a2,0(a1)
 1200 027a 2207     		slli	a4,a4,8
 1201 027c 518F     		or	a4,a4,a2
 1202 027e 03C62500 		lbu	a2,2(a1)
 1203 0282 4206     		slli	a2,a2,16
 1204 0284 518F     		or	a4,a2,a4
 1205 0286 03C63500 		lbu	a2,3(a1)
 1206 028a 6206     		slli	a2,a2,24
 1207 028c 598E     		or	a2,a2,a4
 1208              	.LVL125:
 430:C:/Users/stapi/OneDrive/Desktop/GD32VW553/GD32VW55X_Wifi_BLE_SDK/GD32VW55x_RELEASE_V1.0.2/MSDK/lwip/lwip-2.1.2/src/core/ipv4\ip4_frag.c ****   }
 1209              		.loc 1 430 5 is_stmt 1
 429:C:/Users/stapi/OneDrive/Desktop/GD32VW553/GD32VW55X_Wifi_BLE_SDK/GD32VW55x_RELEASE_V1.0.2/MSDK/lwip/lwip-2.1.2/src/core/ipv4\ip4_frag.c ****     iprh_prev = iprh_tmp;
 1210              		.loc 1 429 7 is_stmt 0
 1211 028e 2E87     		mv	a4,a1
 1212 0290 3DA4     		j	.L74
 1213              	.LVL126:
 1214              	.L110:
 439:C:/Users/stapi/OneDrive/Desktop/GD32VW553/GD32VW55X_Wifi_BLE_SDK/GD32VW55x_RELEASE_V1.0.2/MSDK/lwip/lwip-2.1.2/src/core/ipv4\ip4_frag.c **** #endif /* IP_REASS_CHECK_OVERLAP */
 1215              		.loc 1 439 7 is_stmt 1
 439:C:/Users/stapi/OneDrive/Desktop/GD32VW553/GD32VW55X_Wifi_BLE_SDK/GD32VW55x_RELEASE_V1.0.2/MSDK/lwip/lwip-2.1.2/src/core/ipv4\ip4_frag.c **** #endif /* IP_REASS_CHECK_OVERLAP */
 1216              		.loc 1 439 7
 1217 0292 03467700 		lbu	a2,7(a4)
 1218              	.LVL127:
 1219 0296 83456700 		lbu	a1,6(a4)
 1220 029a 2206     		slli	a2,a2,8
 1221 029c 4D8E     		or	a2,a2,a1
 1222 029e E3F7C6F0 		bgeu	a3,a2,.L82
 439:C:/Users/stapi/OneDrive/Desktop/GD32VW553/GD32VW55X_Wifi_BLE_SDK/GD32VW55x_RELEASE_V1.0.2/MSDK/lwip/lwip-2.1.2/src/core/ipv4\ip4_frag.c **** #endif /* IP_REASS_CHECK_OVERLAP */
 1223              		.loc 1 439 7
 439:C:/Users/stapi/OneDrive/Desktop/GD32VW553/GD32VW55X_Wifi_BLE_SDK/GD32VW55x_RELEASE_V1.0.2/MSDK/lwip/lwip-2.1.2/src/core/ipv4\ip4_frag.c **** #endif /* IP_REASS_CHECK_OVERLAP */
 1224              		.loc 1 439 7
 1225 02a2 B7060000 		lui	a3,%hi(.LC0)
 1226              	.LVL128:
 1227 02a6 B7050000 		lui	a1,%hi(.LC9)
 1228 02aa 37050000 		lui	a0,%hi(.LC2)
 1229 02ae 93860600 		addi	a3,a3,%lo(.LC0)
 1230 02b2 1306701B 		li	a2,439
 1231 02b6 93850500 		addi	a1,a1,%lo(.LC9)
 1232 02ba 13050500 		addi	a0,a0,%lo(.LC2)
 1233 02be 97000000 		call	printf
 1233      E7800000 
 1234              	.LVL129:
 1235              	.L83:
 439:C:/Users/stapi/OneDrive/Desktop/GD32VW553/GD32VW55X_Wifi_BLE_SDK/GD32VW55x_RELEASE_V1.0.2/MSDK/lwip/lwip-2.1.2/src/core/ipv4\ip4_frag.c **** #endif /* IP_REASS_CHECK_OVERLAP */
 1236              		.loc 1 439 7
 439:C:/Users/stapi/OneDrive/Desktop/GD32VW553/GD32VW55X_Wifi_BLE_SDK/GD32VW55x_RELEASE_V1.0.2/MSDK/lwip/lwip-2.1.2/src/core/ipv4\ip4_frag.c **** #endif /* IP_REASS_CHECK_OVERLAP */
 1237              		.loc 1 439 7
 439:C:/Users/stapi/OneDrive/Desktop/GD32VW553/GD32VW55X_Wifi_BLE_SDK/GD32VW55x_RELEASE_V1.0.2/MSDK/lwip/lwip-2.1.2/src/core/ipv4\ip4_frag.c **** #endif /* IP_REASS_CHECK_OVERLAP */
 1238              		.loc 1 439 7
 1239 02c6 01A0     		j	.L83
 1240              	.LVL130:
 1241              	.L91:
 469:C:/Users/stapi/OneDrive/Desktop/GD32VW553/GD32VW55X_Wifi_BLE_SDK/GD32VW55x_RELEASE_V1.0.2/MSDK/lwip/lwip-2.1.2/src/core/ipv4\ip4_frag.c ****           if (iprh_prev->end != iprh->start) {
 1242              		.loc 1 469 11
 469:C:/Users/stapi/OneDrive/Desktop/GD32VW553/GD32VW55X_Wifi_BLE_SDK/GD32VW55x_RELEASE_V1.0.2/MSDK/lwip/lwip-2.1.2/src/core/ipv4\ip4_frag.c ****           if (iprh_prev->end != iprh->start) {
 1243              		.loc 1 469 16 is_stmt 0
 1244 02c8 5043     		lw	a2,4(a4)
 1245              	.LVL131:
 470:C:/Users/stapi/OneDrive/Desktop/GD32VW553/GD32VW55X_Wifi_BLE_SDK/GD32VW55x_RELEASE_V1.0.2/MSDK/lwip/lwip-2.1.2/src/core/ipv4\ip4_frag.c ****             valid = 0;
 1246              		.loc 1 470 11 is_stmt 1
 470:C:/Users/stapi/OneDrive/Desktop/GD32VW553/GD32VW55X_Wifi_BLE_SDK/GD32VW55x_RELEASE_V1.0.2/MSDK/lwip/lwip-2.1.2/src/core/ipv4\ip4_frag.c ****             valid = 0;
 1247              		.loc 1 470 24 is_stmt 0
 1248 02ca 03C56700 		lbu	a0,6(a5)
 1249 02ce 03C77700 		lbu	a4,7(a5)
 1250              	.LVL132:
 470:C:/Users/stapi/OneDrive/Desktop/GD32VW553/GD32VW55X_Wifi_BLE_SDK/GD32VW55x_RELEASE_V1.0.2/MSDK/lwip/lwip-2.1.2/src/core/ipv4\ip4_frag.c ****             valid = 0;
 1251              		.loc 1 470 37
 1252 02d2 83475600 		lbu	a5,5(a2)
 1253              	.LVL133:
 1254 02d6 83454600 		lbu	a1,4(a2)
 470:C:/Users/stapi/OneDrive/Desktop/GD32VW553/GD32VW55X_Wifi_BLE_SDK/GD32VW55x_RELEASE_V1.0.2/MSDK/lwip/lwip-2.1.2/src/core/ipv4\ip4_frag.c ****             valid = 0;
 1255              		.loc 1 470 24
 1256 02da 2207     		slli	a4,a4,8
 470:C:/Users/stapi/OneDrive/Desktop/GD32VW553/GD32VW55X_Wifi_BLE_SDK/GD32VW55x_RELEASE_V1.0.2/MSDK/lwip/lwip-2.1.2/src/core/ipv4\ip4_frag.c ****             valid = 0;
 1257              		.loc 1 470 37
 1258 02dc A207     		slli	a5,a5,8
 470:C:/Users/stapi/OneDrive/Desktop/GD32VW553/GD32VW55X_Wifi_BLE_SDK/GD32VW55x_RELEASE_V1.0.2/MSDK/lwip/lwip-2.1.2/src/core/ipv4\ip4_frag.c ****             valid = 0;
 1259              		.loc 1 470 14
 1260 02de 498F     		or	a4,a4,a0
 1261 02e0 CD8F     		or	a5,a5,a1
 1262 02e2 631AF720 		bne	a4,a5,.L116
 474:C:/Users/stapi/OneDrive/Desktop/GD32VW553/GD32VW55X_Wifi_BLE_SDK/GD32VW55x_RELEASE_V1.0.2/MSDK/lwip/lwip-2.1.2/src/core/ipv4\ip4_frag.c ****           q = iprh->next_pbuf;
 1263              		.loc 1 474 11 is_stmt 1
 1264              	.LVL134:
 475:C:/Users/stapi/OneDrive/Desktop/GD32VW553/GD32VW55X_Wifi_BLE_SDK/GD32VW55x_RELEASE_V1.0.2/MSDK/lwip/lwip-2.1.2/src/core/ipv4\ip4_frag.c ****         }
 1265              		.loc 1 475 11
 475:C:/Users/stapi/OneDrive/Desktop/GD32VW553/GD32VW55X_Wifi_BLE_SDK/GD32VW55x_RELEASE_V1.0.2/MSDK/lwip/lwip-2.1.2/src/core/ipv4\ip4_frag.c ****         }
 1266              		.loc 1 475 13 is_stmt 0
 1267 02e6 83471600 		lbu	a5,1(a2)
 1268 02ea 03470600 		lbu	a4,0(a2)
 1269 02ee A207     		slli	a5,a5,8
 1270 02f0 D98F     		or	a5,a5,a4
 1271 02f2 03472600 		lbu	a4,2(a2)
 1272 02f6 4207     		slli	a4,a4,16
 1273 02f8 D98F     		or	a5,a4,a5
 1274 02fa 03473600 		lbu	a4,3(a2)
 1275 02fe 6207     		slli	a4,a4,24
 1276 0300 5D8F     		or	a4,a4,a5
 1277              	.LVL135:
 1278 0302 B287     		mv	a5,a2
 1279 0304 39B7     		j	.L90
 1280              	.LVL136:
 1281              	.L148:
 481:C:/Users/stapi/OneDrive/Desktop/GD32VW553/GD32VW55X_Wifi_BLE_SDK/GD32VW55x_RELEASE_V1.0.2/MSDK/lwip/lwip-2.1.2/src/core/ipv4\ip4_frag.c ****                       ((struct ip_reass_helper *)ipr->p->payload) != iprh);
 1282              		.loc 1 481 11 is_stmt 1
 481:C:/Users/stapi/OneDrive/Desktop/GD32VW553/GD32VW55X_Wifi_BLE_SDK/GD32VW55x_RELEASE_V1.0.2/MSDK/lwip/lwip-2.1.2/src/core/ipv4\ip4_frag.c ****                       ((struct ip_reass_helper *)ipr->p->payload) != iprh);
 1283              		.loc 1 481 11
 483:C:/Users/stapi/OneDrive/Desktop/GD32VW553/GD32VW55X_Wifi_BLE_SDK/GD32VW55x_RELEASE_V1.0.2/MSDK/lwip/lwip-2.1.2/src/core/ipv4\ip4_frag.c ****                       iprh->next_pbuf == NULL);
 1284              		.loc 1 483 11
 483:C:/Users/stapi/OneDrive/Desktop/GD32VW553/GD32VW55X_Wifi_BLE_SDK/GD32VW55x_RELEASE_V1.0.2/MSDK/lwip/lwip-2.1.2/src/core/ipv4\ip4_frag.c ****                       iprh->next_pbuf == NULL);
 1285              		.loc 1 483 11
 1286 0306 03C71700 		lbu	a4,1(a5)
 1287              	.LVL137:
 1288 030a 83C60700 		lbu	a3,0(a5)
 1289 030e 2207     		slli	a4,a4,8
 1290 0310 D98E     		or	a3,a4,a3
 1291 0312 03C72700 		lbu	a4,2(a5)
 1292 0316 83C73700 		lbu	a5,3(a5)
 1293              	.LVL138:
 1294 031a 4207     		slli	a4,a4,16
 1295 031c 558F     		or	a4,a4,a3
 1296 031e E207     		slli	a5,a5,24
 1297 0320 D98F     		or	a5,a5,a4
 1298 0322 638B071C 		beq	a5,zero,.L88
 483:C:/Users/stapi/OneDrive/Desktop/GD32VW553/GD32VW55X_Wifi_BLE_SDK/GD32VW55x_RELEASE_V1.0.2/MSDK/lwip/lwip-2.1.2/src/core/ipv4\ip4_frag.c ****                       iprh->next_pbuf == NULL);
 1299              		.loc 1 483 11
 483:C:/Users/stapi/OneDrive/Desktop/GD32VW553/GD32VW55X_Wifi_BLE_SDK/GD32VW55x_RELEASE_V1.0.2/MSDK/lwip/lwip-2.1.2/src/core/ipv4\ip4_frag.c ****                       iprh->next_pbuf == NULL);
 1300              		.loc 1 483 11
 1301 0326 B7060000 		lui	a3,%hi(.LC0)
 1302 032a B7050000 		lui	a1,%hi(.LC12)
 1303 032e 37050000 		lui	a0,%hi(.LC2)
 1304 0332 93860600 		addi	a3,a3,%lo(.LC0)
 1305 0336 1306301E 		li	a2,483
 1306 033a 93850500 		addi	a1,a1,%lo(.LC12)
 1307 033e 13050500 		addi	a0,a0,%lo(.LC2)
 1308 0342 97000000 		call	printf
 1308      E7800000 
 1309              	.LVL139:
 1310              	.L95:
 483:C:/Users/stapi/OneDrive/Desktop/GD32VW553/GD32VW55X_Wifi_BLE_SDK/GD32VW55x_RELEASE_V1.0.2/MSDK/lwip/lwip-2.1.2/src/core/ipv4\ip4_frag.c ****                       iprh->next_pbuf == NULL);
 1311              		.loc 1 483 11
 483:C:/Users/stapi/OneDrive/Desktop/GD32VW553/GD32VW55X_Wifi_BLE_SDK/GD32VW55x_RELEASE_V1.0.2/MSDK/lwip/lwip-2.1.2/src/core/ipv4\ip4_frag.c ****                       iprh->next_pbuf == NULL);
 1312              		.loc 1 483 11
 483:C:/Users/stapi/OneDrive/Desktop/GD32VW553/GD32VW55X_Wifi_BLE_SDK/GD32VW55x_RELEASE_V1.0.2/MSDK/lwip/lwip-2.1.2/src/core/ipv4\ip4_frag.c ****                       iprh->next_pbuf == NULL);
 1313              		.loc 1 483 11
 1314 034a 01A0     		j	.L95
 1315              	.LVL140:
 1316              	.L99:
 1317              	.LBE33:
 1318              	.LBE32:
 1319              	.LBB35:
 644:C:/Users/stapi/OneDrive/Desktop/GD32VW553/GD32VW55X_Wifi_BLE_SDK/GD32VW55x_RELEASE_V1.0.2/MSDK/lwip/lwip-2.1.2/src/core/ipv4\ip4_frag.c **** 
 1320              		.loc 1 644 7
 647:C:/Users/stapi/OneDrive/Desktop/GD32VW553/GD32VW55X_Wifi_BLE_SDK/GD32VW55x_RELEASE_V1.0.2/MSDK/lwip/lwip-2.1.2/src/core/ipv4\ip4_frag.c ****       pbuf_cat(p, r);
 1321              		.loc 1 647 7 is_stmt 0
 1322 034c D145     		li	a1,20
 1323 034e 2685     		mv	a0,s1
 644:C:/Users/stapi/OneDrive/Desktop/GD32VW553/GD32VW55X_Wifi_BLE_SDK/GD32VW55x_RELEASE_V1.0.2/MSDK/lwip/lwip-2.1.2/src/core/ipv4\ip4_frag.c **** 
 1324              		.loc 1 644 12
 1325 0350 83AA4400 		lw	s5,4(s1)
 1326              	.LVL141:
 647:C:/Users/stapi/OneDrive/Desktop/GD32VW553/GD32VW55X_Wifi_BLE_SDK/GD32VW55x_RELEASE_V1.0.2/MSDK/lwip/lwip-2.1.2/src/core/ipv4\ip4_frag.c ****       pbuf_cat(p, r);
 1327              		.loc 1 647 7 is_stmt 1
 1328 0354 97000000 		call	pbuf_remove_header
 1328      E7800000 
 1329              	.LVL142:
 648:C:/Users/stapi/OneDrive/Desktop/GD32VW553/GD32VW55X_Wifi_BLE_SDK/GD32VW55x_RELEASE_V1.0.2/MSDK/lwip/lwip-2.1.2/src/core/ipv4\ip4_frag.c ****       r = iprh->next_pbuf;
 1330              		.loc 1 648 7
 1331 035c A685     		mv	a1,s1
 1332 035e 4A85     		mv	a0,s2
 1333 0360 97000000 		call	pbuf_cat
 1333      E7800000 
 1334              	.LVL143:
 649:C:/Users/stapi/OneDrive/Desktop/GD32VW553/GD32VW55X_Wifi_BLE_SDK/GD32VW55x_RELEASE_V1.0.2/MSDK/lwip/lwip-2.1.2/src/core/ipv4\ip4_frag.c ****     }
 1335              		.loc 1 649 7
 649:C:/Users/stapi/OneDrive/Desktop/GD32VW553/GD32VW55X_Wifi_BLE_SDK/GD32VW55x_RELEASE_V1.0.2/MSDK/lwip/lwip-2.1.2/src/core/ipv4\ip4_frag.c ****     }
 1336              		.loc 1 649 9 is_stmt 0
 1337 0368 83C71A00 		lbu	a5,1(s5)
 1338 036c 83C40A00 		lbu	s1,0(s5)
 1339              	.LVL144:
 1340 0370 A207     		slli	a5,a5,8
 1341 0372 C58F     		or	a5,a5,s1
 1342 0374 83C42A00 		lbu	s1,2(s5)
 1343 0378 C204     		slli	s1,s1,16
 1344 037a C58F     		or	a5,s1,a5
 1345 037c 83C43A00 		lbu	s1,3(s5)
 1346 0380 E204     		slli	s1,s1,24
 1347 0382 DD8C     		or	s1,s1,a5
 1348              	.LVL145:
 1349 0384 11AC     		j	.L98
 1350              	.LVL146:
 1351              	.L102:
 657:C:/Users/stapi/OneDrive/Desktop/GD32VW553/GD32VW55X_Wifi_BLE_SDK/GD32VW55x_RELEASE_V1.0.2/MSDK/lwip/lwip-2.1.2/src/core/ipv4\ip4_frag.c ****           break;
 1352              		.loc 1 657 9 is_stmt 1
 657:C:/Users/stapi/OneDrive/Desktop/GD32VW553/GD32VW55X_Wifi_BLE_SDK/GD32VW55x_RELEASE_V1.0.2/MSDK/lwip/lwip-2.1.2/src/core/ipv4\ip4_frag.c ****           break;
 1353              		.loc 1 657 21 is_stmt 0
 1354 0386 9C40     		lw	a5,0(s1)
 1355 0388 21AC     		j	.L154
 1356              	.LVL147:
 1357              	.L103:
 668:C:/Users/stapi/OneDrive/Desktop/GD32VW553/GD32VW55X_Wifi_BLE_SDK/GD32VW55x_RELEASE_V1.0.2/MSDK/lwip/lwip-2.1.2/src/core/ipv4\ip4_frag.c ****     ip_reass_pbufcount = (u16_t)(ip_reass_pbufcount - clen);
 1358              		.loc 1 668 5 is_stmt 1 discriminator 2
 668:C:/Users/stapi/OneDrive/Desktop/GD32VW553/GD32VW55X_Wifi_BLE_SDK/GD32VW55x_RELEASE_V1.0.2/MSDK/lwip/lwip-2.1.2/src/core/ipv4\ip4_frag.c ****     ip_reass_pbufcount = (u16_t)(ip_reass_pbufcount - clen);
 1359              		.loc 1 668 5 discriminator 2
 669:C:/Users/stapi/OneDrive/Desktop/GD32VW553/GD32VW55X_Wifi_BLE_SDK/GD32VW55x_RELEASE_V1.0.2/MSDK/lwip/lwip-2.1.2/src/core/ipv4\ip4_frag.c **** 
 1360              		.loc 1 669 5 discriminator 2
 669:C:/Users/stapi/OneDrive/Desktop/GD32VW553/GD32VW55X_Wifi_BLE_SDK/GD32VW55x_RELEASE_V1.0.2/MSDK/lwip/lwip-2.1.2/src/core/ipv4\ip4_frag.c **** 
 1361              		.loc 1 669 26 is_stmt 0 discriminator 2
 1362 038a 898F     		sub	a5,a5,a0
 669:C:/Users/stapi/OneDrive/Desktop/GD32VW553/GD32VW55X_Wifi_BLE_SDK/GD32VW55x_RELEASE_V1.0.2/MSDK/lwip/lwip-2.1.2/src/core/ipv4\ip4_frag.c **** 
 1363              		.loc 1 669 24 discriminator 2
 1364 038c 2390F900 		sh	a5,0(s3)
 671:C:/Users/stapi/OneDrive/Desktop/GD32VW553/GD32VW55X_Wifi_BLE_SDK/GD32VW55x_RELEASE_V1.0.2/MSDK/lwip/lwip-2.1.2/src/core/ipv4\ip4_frag.c **** 
 1365              		.loc 1 671 36 is_stmt 1 discriminator 2
 674:C:/Users/stapi/OneDrive/Desktop/GD32VW553/GD32VW55X_Wifi_BLE_SDK/GD32VW55x_RELEASE_V1.0.2/MSDK/lwip/lwip-2.1.2/src/core/ipv4\ip4_frag.c ****   }
 1366              		.loc 1 674 5 discriminator 2
 1367              	.LVL148:
 1368              	.L60:
 1369              	.LBE35:
 693:C:/Users/stapi/OneDrive/Desktop/GD32VW553/GD32VW55X_Wifi_BLE_SDK/GD32VW55x_RELEASE_V1.0.2/MSDK/lwip/lwip-2.1.2/src/core/ipv4\ip4_frag.c **** #endif /* IP_REASSEMBLY */
 1370              		.loc 1 693 1 is_stmt 0
 1371 0390 4A85     		mv	a0,s2
 1372 0392 17030000 		tail	__riscv_restore_10
 1372      67000300 
 1373              		.cfi_remember_state
 1374              		.cfi_restore 25
 1375              		.cfi_restore 24
 1376              		.cfi_restore 23
 1377              		.cfi_restore 22
 1378              		.cfi_restore 21
 1379              		.cfi_restore 20
 1380              		.cfi_restore 19
 1381              		.cfi_restore 18
 1382              		.cfi_restore 9
 1383              		.cfi_restore 8
 1384              		.cfi_restore 1
 1385              		.cfi_def_cfa_offset 0
 1386              	.LVL149:
 1387              	.L105:
 1388              		.cfi_restore_state
 684:C:/Users/stapi/OneDrive/Desktop/GD32VW553/GD32VW55X_Wifi_BLE_SDK/GD32VW55x_RELEASE_V1.0.2/MSDK/lwip/lwip-2.1.2/src/core/ipv4\ip4_frag.c ****     ip_reass_dequeue_datagram(ipr, NULL);
 1389              		.loc 1 684 5 is_stmt 1 discriminator 2
 684:C:/Users/stapi/OneDrive/Desktop/GD32VW553/GD32VW55X_Wifi_BLE_SDK/GD32VW55x_RELEASE_V1.0.2/MSDK/lwip/lwip-2.1.2/src/core/ipv4\ip4_frag.c ****     ip_reass_dequeue_datagram(ipr, NULL);
 1390              		.loc 1 684 5 discriminator 2
 685:C:/Users/stapi/OneDrive/Desktop/GD32VW553/GD32VW55X_Wifi_BLE_SDK/GD32VW55x_RELEASE_V1.0.2/MSDK/lwip/lwip-2.1.2/src/core/ipv4\ip4_frag.c ****   }
 1391              		.loc 1 685 5 discriminator 2
 1392 039a 8145     		li	a1,0
 1393 039c 2285     		mv	a0,s0
 1394 039e 97000000 		call	ip_reass_dequeue_datagram
 1394      E7800000 
 1395              	.LVL150:
 1396 03a6 A1BB     		j	.L62
 1397              	.L73:
 681:C:/Users/stapi/OneDrive/Desktop/GD32VW553/GD32VW55X_Wifi_BLE_SDK/GD32VW55x_RELEASE_V1.0.2/MSDK/lwip/lwip-2.1.2/src/core/ipv4\ip4_frag.c ****   if (ipr->p == NULL) {
 1398              		.loc 1 681 3
 681:C:/Users/stapi/OneDrive/Desktop/GD32VW553/GD32VW55X_Wifi_BLE_SDK/GD32VW55x_RELEASE_V1.0.2/MSDK/lwip/lwip-2.1.2/src/core/ipv4\ip4_frag.c ****   if (ipr->p == NULL) {
 1399              		.loc 1 681 3
 681:C:/Users/stapi/OneDrive/Desktop/GD32VW553/GD32VW55X_Wifi_BLE_SDK/GD32VW55x_RELEASE_V1.0.2/MSDK/lwip/lwip-2.1.2/src/core/ipv4\ip4_frag.c ****   if (ipr->p == NULL) {
 1400              		.loc 1 681 3
 681:C:/Users/stapi/OneDrive/Desktop/GD32VW553/GD32VW55X_Wifi_BLE_SDK/GD32VW55x_RELEASE_V1.0.2/MSDK/lwip/lwip-2.1.2/src/core/ipv4\ip4_frag.c ****   if (ipr->p == NULL) {
 1401              		.loc 1 681 3
 682:C:/Users/stapi/OneDrive/Desktop/GD32VW553/GD32VW55X_Wifi_BLE_SDK/GD32VW55x_RELEASE_V1.0.2/MSDK/lwip/lwip-2.1.2/src/core/ipv4\ip4_frag.c ****     /* dropped pbuf after creating a new datagram entry: remove the entry, too */
 1402              		.loc 1 682 3
 682:C:/Users/stapi/OneDrive/Desktop/GD32VW553/GD32VW55X_Wifi_BLE_SDK/GD32VW55x_RELEASE_V1.0.2/MSDK/lwip/lwip-2.1.2/src/core/ipv4\ip4_frag.c ****     /* dropped pbuf after creating a new datagram entry: remove the entry, too */
 1403              		.loc 1 682 6 is_stmt 0
 1404 03a8 5C40     		lw	a5,4(s0)
 1405 03aa E39A07D4 		bne	a5,zero,.L62
 684:C:/Users/stapi/OneDrive/Desktop/GD32VW553/GD32VW55X_Wifi_BLE_SDK/GD32VW55x_RELEASE_V1.0.2/MSDK/lwip/lwip-2.1.2/src/core/ipv4\ip4_frag.c ****     ip_reass_dequeue_datagram(ipr, NULL);
 1406              		.loc 1 684 5 is_stmt 1
 684:C:/Users/stapi/OneDrive/Desktop/GD32VW553/GD32VW55X_Wifi_BLE_SDK/GD32VW55x_RELEASE_V1.0.2/MSDK/lwip/lwip-2.1.2/src/core/ipv4\ip4_frag.c ****     ip_reass_dequeue_datagram(ipr, NULL);
 1407              		.loc 1 684 5
 1408 03ae 83270A00 		lw	a5,0(s4)
 1409 03b2 E38487FE 		beq	a5,s0,.L105
 684:C:/Users/stapi/OneDrive/Desktop/GD32VW553/GD32VW55X_Wifi_BLE_SDK/GD32VW55x_RELEASE_V1.0.2/MSDK/lwip/lwip-2.1.2/src/core/ipv4\ip4_frag.c ****     ip_reass_dequeue_datagram(ipr, NULL);
 1410              		.loc 1 684 5 discriminator 1
 684:C:/Users/stapi/OneDrive/Desktop/GD32VW553/GD32VW55X_Wifi_BLE_SDK/GD32VW55x_RELEASE_V1.0.2/MSDK/lwip/lwip-2.1.2/src/core/ipv4\ip4_frag.c ****     ip_reass_dequeue_datagram(ipr, NULL);
 1411              		.loc 1 684 5 discriminator 1
 1412 03b6 B7060000 		lui	a3,%hi(.LC0)
 1413 03ba B7050000 		lui	a1,%hi(.LC14)
 1414 03be 37050000 		lui	a0,%hi(.LC2)
 1415 03c2 93860600 		addi	a3,a3,%lo(.LC0)
 1416 03c6 1306C02A 		li	a2,684
 1417 03ca 93850500 		addi	a1,a1,%lo(.LC14)
 1418 03ce 13050500 		addi	a0,a0,%lo(.LC2)
 1419 03d2 97000000 		call	printf
 1419      E7800000 
 1420              	.LVL151:
 1421              	.L106:
 684:C:/Users/stapi/OneDrive/Desktop/GD32VW553/GD32VW55X_Wifi_BLE_SDK/GD32VW55x_RELEASE_V1.0.2/MSDK/lwip/lwip-2.1.2/src/core/ipv4\ip4_frag.c ****     ip_reass_dequeue_datagram(ipr, NULL);
 1422              		.loc 1 684 5 discriminator 3
 684:C:/Users/stapi/OneDrive/Desktop/GD32VW553/GD32VW55X_Wifi_BLE_SDK/GD32VW55x_RELEASE_V1.0.2/MSDK/lwip/lwip-2.1.2/src/core/ipv4\ip4_frag.c ****     ip_reass_dequeue_datagram(ipr, NULL);
 1423              		.loc 1 684 5 discriminator 3
 684:C:/Users/stapi/OneDrive/Desktop/GD32VW553/GD32VW55X_Wifi_BLE_SDK/GD32VW55x_RELEASE_V1.0.2/MSDK/lwip/lwip-2.1.2/src/core/ipv4\ip4_frag.c ****     ip_reass_dequeue_datagram(ipr, NULL);
 1424              		.loc 1 684 5 discriminator 3
 1425 03da 01A0     		j	.L106
 1426              	.LVL152:
 1427              	.L68:
 567:C:/Users/stapi/OneDrive/Desktop/GD32VW553/GD32VW55X_Wifi_BLE_SDK/GD32VW55x_RELEASE_V1.0.2/MSDK/lwip/lwip-2.1.2/src/core/ipv4\ip4_frag.c ****     /* Enqueue a new datagram into the datagram queue */
 1428              		.loc 1 567 3
 575:C:/Users/stapi/OneDrive/Desktop/GD32VW553/GD32VW55X_Wifi_BLE_SDK/GD32VW55x_RELEASE_V1.0.2/MSDK/lwip/lwip-2.1.2/src/core/ipv4\ip4_frag.c ****         ((lwip_ntohs(IPH_OFFSET(&ipr->iphdr)) & IP_OFFMASK) != 0)) {
 1429              		.loc 1 575 5
 575:C:/Users/stapi/OneDrive/Desktop/GD32VW553/GD32VW55X_Wifi_BLE_SDK/GD32VW55x_RELEASE_V1.0.2/MSDK/lwip/lwip-2.1.2/src/core/ipv4\ip4_frag.c ****         ((lwip_ntohs(IPH_OFFSET(&ipr->iphdr)) & IP_OFFMASK) != 0)) {
 1430              		.loc 1 575 11 is_stmt 0
 1431 03dc 83C77400 		lbu	a5,7(s1)
 1432 03e0 03C56400 		lbu	a0,6(s1)
 575:C:/Users/stapi/OneDrive/Desktop/GD32VW553/GD32VW55X_Wifi_BLE_SDK/GD32VW55x_RELEASE_V1.0.2/MSDK/lwip/lwip-2.1.2/src/core/ipv4\ip4_frag.c ****         ((lwip_ntohs(IPH_OFFSET(&ipr->iphdr)) & IP_OFFMASK) != 0)) {
 1433              		.loc 1 575 8
 1434 03e4 096C     		li	s8,8192
 575:C:/Users/stapi/OneDrive/Desktop/GD32VW553/GD32VW55X_Wifi_BLE_SDK/GD32VW55x_RELEASE_V1.0.2/MSDK/lwip/lwip-2.1.2/src/core/ipv4\ip4_frag.c ****         ((lwip_ntohs(IPH_OFFSET(&ipr->iphdr)) & IP_OFFMASK) != 0)) {
 1435              		.loc 1 575 11
 1436 03e6 A207     		slli	a5,a5,8
 1437 03e8 5D8D     		or	a0,a5,a0
 1438 03ea 97000000 		call	lwip_htons
 1438      E7800000 
 1439              	.LVL153:
 575:C:/Users/stapi/OneDrive/Desktop/GD32VW553/GD32VW55X_Wifi_BLE_SDK/GD32VW55x_RELEASE_V1.0.2/MSDK/lwip/lwip-2.1.2/src/core/ipv4\ip4_frag.c ****         ((lwip_ntohs(IPH_OFFSET(&ipr->iphdr)) & IP_OFFMASK) != 0)) {
 1440              		.loc 1 575 8
 1441 03f2 7D1C     		addi	s8,s8,-1
 1442 03f4 33758501 		and	a0,a0,s8
 1443 03f8 33450508 		zext.h	a0,a0
 1444 03fc 19E9     		bne	a0,zero,.L71
 576:C:/Users/stapi/OneDrive/Desktop/GD32VW553/GD32VW55X_Wifi_BLE_SDK/GD32VW55x_RELEASE_V1.0.2/MSDK/lwip/lwip-2.1.2/src/core/ipv4\ip4_frag.c ****       /* ipr->iphdr is not the header from the first fragment, but fraghdr is
 1445              		.loc 1 576 11 discriminator 1
 1446 03fe 0355E400 		lhu	a0,14(s0)
 1447 0402 97000000 		call	lwip_htons
 1447      E7800000 
 1448              	.LVL154:
 575:C:/Users/stapi/OneDrive/Desktop/GD32VW553/GD32VW55X_Wifi_BLE_SDK/GD32VW55x_RELEASE_V1.0.2/MSDK/lwip/lwip-2.1.2/src/core/ipv4\ip4_frag.c ****         ((lwip_ntohs(IPH_OFFSET(&ipr->iphdr)) & IP_OFFMASK) != 0)) {
 1449              		.loc 1 575 63 discriminator 1
 1450 040a 337C8501 		and	s8,a0,s8
 1451 040e E3130CCC 		bne	s8,zero,.L151
 1452              	.LVL155:
 1453              	.L71:
 589:C:/Users/stapi/OneDrive/Desktop/GD32VW553/GD32VW55X_Wifi_BLE_SDK/GD32VW55x_RELEASE_V1.0.2/MSDK/lwip/lwip-2.1.2/src/core/ipv4\ip4_frag.c ****   if (is_last) {
 1454              		.loc 1 589 14
 1455 0412 03CC6400 		lbu	s8,6(s1)
 526:C:/Users/stapi/OneDrive/Desktop/GD32VW553/GD32VW55X_Wifi_BLE_SDK/GD32VW55x_RELEASE_V1.0.2/MSDK/lwip/lwip-2.1.2/src/core/ipv4\ip4_frag.c ****   len = lwip_ntohs(IPH_LEN(fraghdr));
 1456              		.loc 1 526 12
 1457 0416 CE0B     		slli	s7,s7,19
 1458              	.LVL156:
 526:C:/Users/stapi/OneDrive/Desktop/GD32VW553/GD32VW55X_Wifi_BLE_SDK/GD32VW55x_RELEASE_V1.0.2/MSDK/lwip/lwip-2.1.2/src/core/ipv4\ip4_frag.c ****   len = lwip_ntohs(IPH_LEN(fraghdr));
 1459              		.loc 1 526 10
 1460 0418 93DB0B01 		srli	s7,s7,16
 1461              	.LVL157:
 589:C:/Users/stapi/OneDrive/Desktop/GD32VW553/GD32VW55X_Wifi_BLE_SDK/GD32VW55x_RELEASE_V1.0.2/MSDK/lwip/lwip-2.1.2/src/core/ipv4\ip4_frag.c ****   if (is_last) {
 1462              		.loc 1 589 3 is_stmt 1
 1463 041c 137C0C02 		andi	s8,s8,32
 1464              	.LVL158:
 590:C:/Users/stapi/OneDrive/Desktop/GD32VW553/GD32VW55X_Wifi_BLE_SDK/GD32VW55x_RELEASE_V1.0.2/MSDK/lwip/lwip-2.1.2/src/core/ipv4\ip4_frag.c ****     u16_t datagram_len = (u16_t)(offset + len);
 1465              		.loc 1 590 3
 590:C:/Users/stapi/OneDrive/Desktop/GD32VW553/GD32VW55X_Wifi_BLE_SDK/GD32VW55x_RELEASE_V1.0.2/MSDK/lwip/lwip-2.1.2/src/core/ipv4\ip4_frag.c ****     u16_t datagram_len = (u16_t)(offset + len);
 1466              		.loc 1 590 6 is_stmt 0
 1467 0420 631C0C00 		bne	s8,zero,.L72
 1468              	.LBB36:
 591:C:/Users/stapi/OneDrive/Desktop/GD32VW553/GD32VW55X_Wifi_BLE_SDK/GD32VW55x_RELEASE_V1.0.2/MSDK/lwip/lwip-2.1.2/src/core/ipv4\ip4_frag.c ****     if ((datagram_len < offset) || (datagram_len > (0xFFFF - IP_HLEN))) {
 1469              		.loc 1 591 5 is_stmt 1
 591:C:/Users/stapi/OneDrive/Desktop/GD32VW553/GD32VW55X_Wifi_BLE_SDK/GD32VW55x_RELEASE_V1.0.2/MSDK/lwip/lwip-2.1.2/src/core/ipv4\ip4_frag.c ****     if ((datagram_len < offset) || (datagram_len > (0xFFFF - IP_HLEN))) {
 1470              		.loc 1 591 11 is_stmt 0
 1471 0424 B3875B01 		add	a5,s7,s5
 1472 0428 B3C70708 		zext.h	a5,a5
 1473              	.LVL159:
 592:C:/Users/stapi/OneDrive/Desktop/GD32VW553/GD32VW55X_Wifi_BLE_SDK/GD32VW55x_RELEASE_V1.0.2/MSDK/lwip/lwip-2.1.2/src/core/ipv4\ip4_frag.c ****       /* u16_t overflow, cannot handle this */
 1474              		.loc 1 592 5 is_stmt 1
 592:C:/Users/stapi/OneDrive/Desktop/GD32VW553/GD32VW55X_Wifi_BLE_SDK/GD32VW55x_RELEASE_V1.0.2/MSDK/lwip/lwip-2.1.2/src/core/ipv4\ip4_frag.c ****       /* u16_t overflow, cannot handle this */
 1475              		.loc 1 592 8 is_stmt 0
 1476 042c E3EE77F7 		bgtu	s7,a5,.L73
 592:C:/Users/stapi/OneDrive/Desktop/GD32VW553/GD32VW55X_Wifi_BLE_SDK/GD32VW55x_RELEASE_V1.0.2/MSDK/lwip/lwip-2.1.2/src/core/ipv4\ip4_frag.c ****       /* u16_t overflow, cannot handle this */
 1477              		.loc 1 592 33 discriminator 1
 1478 0430 4167     		li	a4,65536
 1479 0432 2D17     		addi	a4,a4,-21
 1480 0434 E36AF7F6 		bgtu	a5,a4,.L73
 1481              	.LVL160:
 1482              	.L72:
 1483              	.LBE36:
 599:C:/Users/stapi/OneDrive/Desktop/GD32VW553/GD32VW55X_Wifi_BLE_SDK/GD32VW55x_RELEASE_V1.0.2/MSDK/lwip/lwip-2.1.2/src/core/ipv4\ip4_frag.c ****   if (valid == IP_REASS_VALIDATE_PBUF_DROPPED) {
 1484              		.loc 1 599 3 is_stmt 1
 1485              	.LBB37:
 1486              	.LBB34:
 347:C:/Users/stapi/OneDrive/Desktop/GD32VW553/GD32VW55X_Wifi_BLE_SDK/GD32VW55x_RELEASE_V1.0.2/MSDK/lwip/lwip-2.1.2/src/core/ipv4\ip4_frag.c ****   struct pbuf *q;
 1487              		.loc 1 347 3
 348:C:/Users/stapi/OneDrive/Desktop/GD32VW553/GD32VW55X_Wifi_BLE_SDK/GD32VW55x_RELEASE_V1.0.2/MSDK/lwip/lwip-2.1.2/src/core/ipv4\ip4_frag.c ****   u16_t offset, len;
 1488              		.loc 1 348 3
 349:C:/Users/stapi/OneDrive/Desktop/GD32VW553/GD32VW55X_Wifi_BLE_SDK/GD32VW55x_RELEASE_V1.0.2/MSDK/lwip/lwip-2.1.2/src/core/ipv4\ip4_frag.c ****   u8_t hlen;
 1489              		.loc 1 349 3
 350:C:/Users/stapi/OneDrive/Desktop/GD32VW553/GD32VW55X_Wifi_BLE_SDK/GD32VW55x_RELEASE_V1.0.2/MSDK/lwip/lwip-2.1.2/src/core/ipv4\ip4_frag.c ****   struct ip_hdr *fraghdr;
 1490              		.loc 1 350 3
 351:C:/Users/stapi/OneDrive/Desktop/GD32VW553/GD32VW55X_Wifi_BLE_SDK/GD32VW55x_RELEASE_V1.0.2/MSDK/lwip/lwip-2.1.2/src/core/ipv4\ip4_frag.c ****   int valid = 1;
 1491              		.loc 1 351 3
 352:C:/Users/stapi/OneDrive/Desktop/GD32VW553/GD32VW55X_Wifi_BLE_SDK/GD32VW55x_RELEASE_V1.0.2/MSDK/lwip/lwip-2.1.2/src/core/ipv4\ip4_frag.c **** 
 1492              		.loc 1 352 3
 355:C:/Users/stapi/OneDrive/Desktop/GD32VW553/GD32VW55X_Wifi_BLE_SDK/GD32VW55x_RELEASE_V1.0.2/MSDK/lwip/lwip-2.1.2/src/core/ipv4\ip4_frag.c ****   len = lwip_ntohs(IPH_LEN(fraghdr));
 1493              		.loc 1 355 3
 355:C:/Users/stapi/OneDrive/Desktop/GD32VW553/GD32VW55X_Wifi_BLE_SDK/GD32VW55x_RELEASE_V1.0.2/MSDK/lwip/lwip-2.1.2/src/core/ipv4\ip4_frag.c ****   len = lwip_ntohs(IPH_LEN(fraghdr));
 1494              		.loc 1 355 11 is_stmt 0
 1495 0438 832C4900 		lw	s9,4(s2)
 1496              	.LVL161:
 356:C:/Users/stapi/OneDrive/Desktop/GD32VW553/GD32VW55X_Wifi_BLE_SDK/GD32VW55x_RELEASE_V1.0.2/MSDK/lwip/lwip-2.1.2/src/core/ipv4\ip4_frag.c ****   hlen = IPH_HL_BYTES(fraghdr);
 1497              		.loc 1 356 3 is_stmt 1
 356:C:/Users/stapi/OneDrive/Desktop/GD32VW553/GD32VW55X_Wifi_BLE_SDK/GD32VW55x_RELEASE_V1.0.2/MSDK/lwip/lwip-2.1.2/src/core/ipv4\ip4_frag.c ****   hlen = IPH_HL_BYTES(fraghdr);
 1498              		.loc 1 356 9 is_stmt 0
 1499 043c 83C73C00 		lbu	a5,3(s9)
 1500 0440 03C52C00 		lbu	a0,2(s9)
 1501 0444 A207     		slli	a5,a5,8
 1502 0446 5D8D     		or	a0,a5,a0
 1503 0448 97000000 		call	lwip_htons
 1503      E7800000 
 1504              	.LVL162:
 357:C:/Users/stapi/OneDrive/Desktop/GD32VW553/GD32VW55X_Wifi_BLE_SDK/GD32VW55x_RELEASE_V1.0.2/MSDK/lwip/lwip-2.1.2/src/core/ipv4\ip4_frag.c ****   if (hlen > len) {
 1505              		.loc 1 357 3 is_stmt 1
 358:C:/Users/stapi/OneDrive/Desktop/GD32VW553/GD32VW55X_Wifi_BLE_SDK/GD32VW55x_RELEASE_V1.0.2/MSDK/lwip/lwip-2.1.2/src/core/ipv4\ip4_frag.c ****     /* invalid datagram */
 1506              		.loc 1 358 3
 357:C:/Users/stapi/OneDrive/Desktop/GD32VW553/GD32VW55X_Wifi_BLE_SDK/GD32VW55x_RELEASE_V1.0.2/MSDK/lwip/lwip-2.1.2/src/core/ipv4\ip4_frag.c ****   if (hlen > len) {
 1507              		.loc 1 357 10 is_stmt 0
 1508 0450 83C40C00 		lbu	s1,0(s9)
 1509              	.LVL163:
 1510 0454 BD88     		andi	s1,s1,15
 358:C:/Users/stapi/OneDrive/Desktop/GD32VW553/GD32VW55X_Wifi_BLE_SDK/GD32VW55x_RELEASE_V1.0.2/MSDK/lwip/lwip-2.1.2/src/core/ipv4\ip4_frag.c ****     /* invalid datagram */
 1511              		.loc 1 358 12
 1512 0456 8A04     		slli	s1,s1,2
 358:C:/Users/stapi/OneDrive/Desktop/GD32VW553/GD32VW55X_Wifi_BLE_SDK/GD32VW55x_RELEASE_V1.0.2/MSDK/lwip/lwip-2.1.2/src/core/ipv4\ip4_frag.c ****     /* invalid datagram */
 1513              		.loc 1 358 6
 1514 0458 E36895F4 		bltu	a0,s1,.L73
 362:C:/Users/stapi/OneDrive/Desktop/GD32VW553/GD32VW55X_Wifi_BLE_SDK/GD32VW55x_RELEASE_V1.0.2/MSDK/lwip/lwip-2.1.2/src/core/ipv4\ip4_frag.c ****   offset = IPH_OFFSET_BYTES(fraghdr);
 1515              		.loc 1 362 3 is_stmt 1
 363:C:/Users/stapi/OneDrive/Desktop/GD32VW553/GD32VW55X_Wifi_BLE_SDK/GD32VW55x_RELEASE_V1.0.2/MSDK/lwip/lwip-2.1.2/src/core/ipv4\ip4_frag.c **** 
 1516              		.loc 1 363 12 is_stmt 0
 1517 045c 83C77C00 		lbu	a5,7(s9)
 362:C:/Users/stapi/OneDrive/Desktop/GD32VW553/GD32VW55X_Wifi_BLE_SDK/GD32VW55x_RELEASE_V1.0.2/MSDK/lwip/lwip-2.1.2/src/core/ipv4\ip4_frag.c ****   offset = IPH_OFFSET_BYTES(fraghdr);
 1518              		.loc 1 362 7
 1519 0460 058D     		sub	a0,a0,s1
 1520              	.LVL164:
 1521 0462 B3440508 		zext.h	s1,a0
 1522              	.LVL165:
 363:C:/Users/stapi/OneDrive/Desktop/GD32VW553/GD32VW55X_Wifi_BLE_SDK/GD32VW55x_RELEASE_V1.0.2/MSDK/lwip/lwip-2.1.2/src/core/ipv4\ip4_frag.c **** 
 1523              		.loc 1 363 3 is_stmt 1
 363:C:/Users/stapi/OneDrive/Desktop/GD32VW553/GD32VW55X_Wifi_BLE_SDK/GD32VW55x_RELEASE_V1.0.2/MSDK/lwip/lwip-2.1.2/src/core/ipv4\ip4_frag.c **** 
 1524              		.loc 1 363 12 is_stmt 0
 1525 0466 03C56C00 		lbu	a0,6(s9)
 1526 046a A207     		slli	a5,a5,8
 1527 046c 5D8D     		or	a0,a5,a0
 1528 046e 97000000 		call	lwip_htons
 1528      E7800000 
 1529              	.LVL166:
 370:C:/Users/stapi/OneDrive/Desktop/GD32VW553/GD32VW55X_Wifi_BLE_SDK/GD32VW55x_RELEASE_V1.0.2/MSDK/lwip/lwip-2.1.2/src/core/ipv4\ip4_frag.c ****   iprh->next_pbuf = NULL;
 1530              		.loc 1 370 8
 1531 0476 83274900 		lw	a5,4(s2)
 363:C:/Users/stapi/OneDrive/Desktop/GD32VW553/GD32VW55X_Wifi_BLE_SDK/GD32VW55x_RELEASE_V1.0.2/MSDK/lwip/lwip-2.1.2/src/core/ipv4\ip4_frag.c **** 
 1532              		.loc 1 363 12
 1533 047a 93163501 		slli	a3,a0,19
 363:C:/Users/stapi/OneDrive/Desktop/GD32VW553/GD32VW55X_Wifi_BLE_SDK/GD32VW55x_RELEASE_V1.0.2/MSDK/lwip/lwip-2.1.2/src/core/ipv4\ip4_frag.c **** 
 1534              		.loc 1 363 10
 1535 047e C182     		srli	a3,a3,16
 1536              	.LVL167:
 368:C:/Users/stapi/OneDrive/Desktop/GD32VW553/GD32VW55X_Wifi_BLE_SDK/GD32VW55x_RELEASE_V1.0.2/MSDK/lwip/lwip-2.1.2/src/core/ipv4\ip4_frag.c ****               sizeof(struct ip_reass_helper) <= IP_HLEN);
 1537              		.loc 1 368 3 is_stmt 1
 368:C:/Users/stapi/OneDrive/Desktop/GD32VW553/GD32VW55X_Wifi_BLE_SDK/GD32VW55x_RELEASE_V1.0.2/MSDK/lwip/lwip-2.1.2/src/core/ipv4\ip4_frag.c ****               sizeof(struct ip_reass_helper) <= IP_HLEN);
 1538              		.loc 1 368 3
 368:C:/Users/stapi/OneDrive/Desktop/GD32VW553/GD32VW55X_Wifi_BLE_SDK/GD32VW55x_RELEASE_V1.0.2/MSDK/lwip/lwip-2.1.2/src/core/ipv4\ip4_frag.c ****               sizeof(struct ip_reass_helper) <= IP_HLEN);
 1539              		.loc 1 368 3
 368:C:/Users/stapi/OneDrive/Desktop/GD32VW553/GD32VW55X_Wifi_BLE_SDK/GD32VW55x_RELEASE_V1.0.2/MSDK/lwip/lwip-2.1.2/src/core/ipv4\ip4_frag.c ****               sizeof(struct ip_reass_helper) <= IP_HLEN);
 1540              		.loc 1 368 3
 370:C:/Users/stapi/OneDrive/Desktop/GD32VW553/GD32VW55X_Wifi_BLE_SDK/GD32VW55x_RELEASE_V1.0.2/MSDK/lwip/lwip-2.1.2/src/core/ipv4\ip4_frag.c ****   iprh->next_pbuf = NULL;
 1541              		.loc 1 370 3
 371:C:/Users/stapi/OneDrive/Desktop/GD32VW553/GD32VW55X_Wifi_BLE_SDK/GD32VW55x_RELEASE_V1.0.2/MSDK/lwip/lwip-2.1.2/src/core/ipv4\ip4_frag.c ****   iprh->start = offset;
 1542              		.loc 1 371 3
 372:C:/Users/stapi/OneDrive/Desktop/GD32VW553/GD32VW55X_Wifi_BLE_SDK/GD32VW55x_RELEASE_V1.0.2/MSDK/lwip/lwip-2.1.2/src/core/ipv4\ip4_frag.c ****   iprh->end = (u16_t)(offset + len);
 1543              		.loc 1 372 15 is_stmt 0
 1544 0480 13D78600 		srli	a4,a3,8
 1545 0484 A382E700 		sb	a4,5(a5)
 373:C:/Users/stapi/OneDrive/Desktop/GD32VW553/GD32VW55X_Wifi_BLE_SDK/GD32VW55x_RELEASE_V1.0.2/MSDK/lwip/lwip-2.1.2/src/core/ipv4\ip4_frag.c ****   if (iprh->end < offset) {
 1546              		.loc 1 373 15
 1547 0488 3387D400 		add	a4,s1,a3
 373:C:/Users/stapi/OneDrive/Desktop/GD32VW553/GD32VW55X_Wifi_BLE_SDK/GD32VW55x_RELEASE_V1.0.2/MSDK/lwip/lwip-2.1.2/src/core/ipv4\ip4_frag.c ****   if (iprh->end < offset) {
 1548              		.loc 1 373 13
 1549 048c 2383E700 		sb	a4,6(a5)
 373:C:/Users/stapi/OneDrive/Desktop/GD32VW553/GD32VW55X_Wifi_BLE_SDK/GD32VW55x_RELEASE_V1.0.2/MSDK/lwip/lwip-2.1.2/src/core/ipv4\ip4_frag.c ****   if (iprh->end < offset) {
 1550              		.loc 1 373 15
 1551 0490 B3480708 		zext.h	a7,a4
 373:C:/Users/stapi/OneDrive/Desktop/GD32VW553/GD32VW55X_Wifi_BLE_SDK/GD32VW55x_RELEASE_V1.0.2/MSDK/lwip/lwip-2.1.2/src/core/ipv4\ip4_frag.c ****   if (iprh->end < offset) {
 1552              		.loc 1 373 13
 1553 0494 13D78800 		srli	a4,a7,8
 371:C:/Users/stapi/OneDrive/Desktop/GD32VW553/GD32VW55X_Wifi_BLE_SDK/GD32VW55x_RELEASE_V1.0.2/MSDK/lwip/lwip-2.1.2/src/core/ipv4\ip4_frag.c ****   iprh->start = offset;
 1554              		.loc 1 371 19
 1555 0498 23800700 		sb	zero,0(a5)
 1556 049c A3800700 		sb	zero,1(a5)
 1557 04a0 23810700 		sb	zero,2(a5)
 1558 04a4 A3810700 		sb	zero,3(a5)
 372:C:/Users/stapi/OneDrive/Desktop/GD32VW553/GD32VW55X_Wifi_BLE_SDK/GD32VW55x_RELEASE_V1.0.2/MSDK/lwip/lwip-2.1.2/src/core/ipv4\ip4_frag.c ****   iprh->end = (u16_t)(offset + len);
 1559              		.loc 1 372 3 is_stmt 1
 373:C:/Users/stapi/OneDrive/Desktop/GD32VW553/GD32VW55X_Wifi_BLE_SDK/GD32VW55x_RELEASE_V1.0.2/MSDK/lwip/lwip-2.1.2/src/core/ipv4\ip4_frag.c ****   if (iprh->end < offset) {
 1560              		.loc 1 373 3
 372:C:/Users/stapi/OneDrive/Desktop/GD32VW553/GD32VW55X_Wifi_BLE_SDK/GD32VW55x_RELEASE_V1.0.2/MSDK/lwip/lwip-2.1.2/src/core/ipv4\ip4_frag.c ****   iprh->end = (u16_t)(offset + len);
 1561              		.loc 1 372 15 is_stmt 0
 1562 04a8 2382D700 		sb	a3,4(a5)
 373:C:/Users/stapi/OneDrive/Desktop/GD32VW553/GD32VW55X_Wifi_BLE_SDK/GD32VW55x_RELEASE_V1.0.2/MSDK/lwip/lwip-2.1.2/src/core/ipv4\ip4_frag.c ****   if (iprh->end < offset) {
 1563              		.loc 1 373 13
 1564 04ac A383E700 		sb	a4,7(a5)
 374:C:/Users/stapi/OneDrive/Desktop/GD32VW553/GD32VW55X_Wifi_BLE_SDK/GD32VW55x_RELEASE_V1.0.2/MSDK/lwip/lwip-2.1.2/src/core/ipv4\ip4_frag.c ****     /* u16_t overflow, cannot handle this */
 1565              		.loc 1 374 3 is_stmt 1
 374:C:/Users/stapi/OneDrive/Desktop/GD32VW553/GD32VW55X_Wifi_BLE_SDK/GD32VW55x_RELEASE_V1.0.2/MSDK/lwip/lwip-2.1.2/src/core/ipv4\ip4_frag.c ****     /* u16_t overflow, cannot handle this */
 1566              		.loc 1 374 6 is_stmt 0
 1567 04b0 E3ECD8EE 		bgtu	a3,a7,.L73
 381:C:/Users/stapi/OneDrive/Desktop/GD32VW553/GD32VW55X_Wifi_BLE_SDK/GD32VW55x_RELEASE_V1.0.2/MSDK/lwip/lwip-2.1.2/src/core/ipv4\ip4_frag.c ****     iprh_tmp = (struct ip_reass_helper *)q->payload;
 1568              		.loc 1 381 3 is_stmt 1
 381:C:/Users/stapi/OneDrive/Desktop/GD32VW553/GD32VW55X_Wifi_BLE_SDK/GD32VW55x_RELEASE_V1.0.2/MSDK/lwip/lwip-2.1.2/src/core/ipv4\ip4_frag.c ****     iprh_tmp = (struct ip_reass_helper *)q->payload;
 1569              		.loc 1 381 10 is_stmt 0
 1570 04b4 03234400 		lw	t1,4(s0)
 1571              	.LVL168:
 352:C:/Users/stapi/OneDrive/Desktop/GD32VW553/GD32VW55X_Wifi_BLE_SDK/GD32VW55x_RELEASE_V1.0.2/MSDK/lwip/lwip-2.1.2/src/core/ipv4\ip4_frag.c **** 
 1572              		.loc 1 352 7
 1573 04b8 0548     		li	a6,1
 347:C:/Users/stapi/OneDrive/Desktop/GD32VW553/GD32VW55X_Wifi_BLE_SDK/GD32VW55x_RELEASE_V1.0.2/MSDK/lwip/lwip-2.1.2/src/core/ipv4\ip4_frag.c ****   struct pbuf *q;
 1574              		.loc 1 347 45
 1575 04ba 0147     		li	a4,0
 381:C:/Users/stapi/OneDrive/Desktop/GD32VW553/GD32VW55X_Wifi_BLE_SDK/GD32VW55x_RELEASE_V1.0.2/MSDK/lwip/lwip-2.1.2/src/core/ipv4\ip4_frag.c ****     iprh_tmp = (struct ip_reass_helper *)q->payload;
 1576              		.loc 1 381 10
 1577 04bc 1A86     		mv	a2,t1
 1578              	.LVL169:
 1579              	.L74:
 381:C:/Users/stapi/OneDrive/Desktop/GD32VW553/GD32VW55X_Wifi_BLE_SDK/GD32VW55x_RELEASE_V1.0.2/MSDK/lwip/lwip-2.1.2/src/core/ipv4\ip4_frag.c ****     iprh_tmp = (struct ip_reass_helper *)q->payload;
 1580              		.loc 1 381 20 is_stmt 1
 381:C:/Users/stapi/OneDrive/Desktop/GD32VW553/GD32VW55X_Wifi_BLE_SDK/GD32VW55x_RELEASE_V1.0.2/MSDK/lwip/lwip-2.1.2/src/core/ipv4\ip4_frag.c ****     iprh_tmp = (struct ip_reass_helper *)q->payload;
 1581              		.loc 1 381 3 is_stmt 0
 1582 04be E31506CA 		bne	a2,zero,.L80
 434:C:/Users/stapi/OneDrive/Desktop/GD32VW553/GD32VW55X_Wifi_BLE_SDK/GD32VW55x_RELEASE_V1.0.2/MSDK/lwip/lwip-2.1.2/src/core/ipv4\ip4_frag.c ****     if (iprh_prev != NULL) {
 1583              		.loc 1 434 3 is_stmt 1
 435:C:/Users/stapi/OneDrive/Desktop/GD32VW553/GD32VW55X_Wifi_BLE_SDK/GD32VW55x_RELEASE_V1.0.2/MSDK/lwip/lwip-2.1.2/src/core/ipv4\ip4_frag.c ****       /* this is (for now), the fragment with the highest offset:
 1584              		.loc 1 435 5
 435:C:/Users/stapi/OneDrive/Desktop/GD32VW553/GD32VW55X_Wifi_BLE_SDK/GD32VW55x_RELEASE_V1.0.2/MSDK/lwip/lwip-2.1.2/src/core/ipv4\ip4_frag.c ****       /* this is (for now), the fragment with the highest offset:
 1585              		.loc 1 435 8 is_stmt 0
 1586 04c2 E31807DC 		bne	a4,zero,.L110
 447:C:/Users/stapi/OneDrive/Desktop/GD32VW553/GD32VW55X_Wifi_BLE_SDK/GD32VW55x_RELEASE_V1.0.2/MSDK/lwip/lwip-2.1.2/src/core/ipv4\ip4_frag.c ****                   ipr->p == NULL);
 1587              		.loc 1 447 7 is_stmt 1
 447:C:/Users/stapi/OneDrive/Desktop/GD32VW553/GD32VW55X_Wifi_BLE_SDK/GD32VW55x_RELEASE_V1.0.2/MSDK/lwip/lwip-2.1.2/src/core/ipv4\ip4_frag.c ****                   ipr->p == NULL);
 1588              		.loc 1 447 7
 1589 04c6 E30E03D6 		beq	t1,zero,.L85
 447:C:/Users/stapi/OneDrive/Desktop/GD32VW553/GD32VW55X_Wifi_BLE_SDK/GD32VW55x_RELEASE_V1.0.2/MSDK/lwip/lwip-2.1.2/src/core/ipv4\ip4_frag.c ****                   ipr->p == NULL);
 1590              		.loc 1 447 7
 447:C:/Users/stapi/OneDrive/Desktop/GD32VW553/GD32VW55X_Wifi_BLE_SDK/GD32VW55x_RELEASE_V1.0.2/MSDK/lwip/lwip-2.1.2/src/core/ipv4\ip4_frag.c ****                   ipr->p == NULL);
 1591              		.loc 1 447 7
 1592 04ca B7060000 		lui	a3,%hi(.LC0)
 1593              	.LVL170:
 1594 04ce B7050000 		lui	a1,%hi(.LC10)
 1595 04d2 37050000 		lui	a0,%hi(.LC2)
 1596 04d6 93860600 		addi	a3,a3,%lo(.LC0)
 1597 04da 1306F01B 		li	a2,447
 1598              	.LVL171:
 1599 04de 93850500 		addi	a1,a1,%lo(.LC10)
 1600 04e2 13050500 		addi	a0,a0,%lo(.LC2)
 1601 04e6 97000000 		call	printf
 1601      E7800000 
 1602              	.LVL172:
 1603              	.L86:
 447:C:/Users/stapi/OneDrive/Desktop/GD32VW553/GD32VW55X_Wifi_BLE_SDK/GD32VW55x_RELEASE_V1.0.2/MSDK/lwip/lwip-2.1.2/src/core/ipv4\ip4_frag.c ****                   ipr->p == NULL);
 1604              		.loc 1 447 7
 447:C:/Users/stapi/OneDrive/Desktop/GD32VW553/GD32VW55X_Wifi_BLE_SDK/GD32VW55x_RELEASE_V1.0.2/MSDK/lwip/lwip-2.1.2/src/core/ipv4\ip4_frag.c ****                   ipr->p == NULL);
 1605              		.loc 1 447 7
 447:C:/Users/stapi/OneDrive/Desktop/GD32VW553/GD32VW55X_Wifi_BLE_SDK/GD32VW55x_RELEASE_V1.0.2/MSDK/lwip/lwip-2.1.2/src/core/ipv4\ip4_frag.c ****                   ipr->p == NULL);
 1606              		.loc 1 447 7
 1607 04ee 01A0     		j	.L86
 1608              	.LVL173:
 1609              	.L77:
 457:C:/Users/stapi/OneDrive/Desktop/GD32VW553/GD32VW55X_Wifi_BLE_SDK/GD32VW55x_RELEASE_V1.0.2/MSDK/lwip/lwip-2.1.2/src/core/ipv4\ip4_frag.c ****     /* and had no holes so far */
 1610              		.loc 1 457 3
 457:C:/Users/stapi/OneDrive/Desktop/GD32VW553/GD32VW55X_Wifi_BLE_SDK/GD32VW55x_RELEASE_V1.0.2/MSDK/lwip/lwip-2.1.2/src/core/ipv4\ip4_frag.c ****     /* and had no holes so far */
 1611              		.loc 1 457 6 is_stmt 0
 1612 04f0 0148     		li	a6,0
 1613 04f2 E31F0CCC 		bne	s8,zero,.L115
 1614              	.LVL174:
 1615              	.L116:
 494:C:/Users/stapi/OneDrive/Desktop/GD32VW553/GD32VW55X_Wifi_BLE_SDK/GD32VW55x_RELEASE_V1.0.2/MSDK/lwip/lwip-2.1.2/src/core/ipv4\ip4_frag.c **** }
 1616              		.loc 1 494 10
 1617 04f6 0148     		li	a6,0
 1618              	.L88:
 1619              	.LVL175:
 1620              	.LBE34:
 1621              	.LBE37:
 608:C:/Users/stapi/OneDrive/Desktop/GD32VW553/GD32VW55X_Wifi_BLE_SDK/GD32VW55x_RELEASE_V1.0.2/MSDK/lwip/lwip-2.1.2/src/core/ipv4\ip4_frag.c ****   if (is_last) {
 1622              		.loc 1 608 3 is_stmt 1
 608:C:/Users/stapi/OneDrive/Desktop/GD32VW553/GD32VW55X_Wifi_BLE_SDK/GD32VW55x_RELEASE_V1.0.2/MSDK/lwip/lwip-2.1.2/src/core/ipv4\ip4_frag.c ****   if (is_last) {
 1623              		.loc 1 608 24 is_stmt 0
 1624 04f8 03D50900 		lhu	a0,0(s3)
 1625 04fc 2A9B     		add	s6,s6,a0
 608:C:/Users/stapi/OneDrive/Desktop/GD32VW553/GD32VW55X_Wifi_BLE_SDK/GD32VW55x_RELEASE_V1.0.2/MSDK/lwip/lwip-2.1.2/src/core/ipv4\ip4_frag.c ****   if (is_last) {
 1626              		.loc 1 608 22
 1627 04fe 23906901 		sh	s6,0(s3)
 609:C:/Users/stapi/OneDrive/Desktop/GD32VW553/GD32VW55X_Wifi_BLE_SDK/GD32VW55x_RELEASE_V1.0.2/MSDK/lwip/lwip-2.1.2/src/core/ipv4\ip4_frag.c ****     u16_t datagram_len = (u16_t)(offset + len);
 1628              		.loc 1 609 3 is_stmt 1
 609:C:/Users/stapi/OneDrive/Desktop/GD32VW553/GD32VW55X_Wifi_BLE_SDK/GD32VW55x_RELEASE_V1.0.2/MSDK/lwip/lwip-2.1.2/src/core/ipv4\ip4_frag.c ****     u16_t datagram_len = (u16_t)(offset + len);
 1629              		.loc 1 609 6 is_stmt 0
 1630 0502 631B0C00 		bne	s8,zero,.L96
 1631              	.LBB38:
 610:C:/Users/stapi/OneDrive/Desktop/GD32VW553/GD32VW55X_Wifi_BLE_SDK/GD32VW55x_RELEASE_V1.0.2/MSDK/lwip/lwip-2.1.2/src/core/ipv4\ip4_frag.c ****     ipr->datagram_len = datagram_len;
 1632              		.loc 1 610 5 is_stmt 1
 1633              	.LVL176:
 611:C:/Users/stapi/OneDrive/Desktop/GD32VW553/GD32VW55X_Wifi_BLE_SDK/GD32VW55x_RELEASE_V1.0.2/MSDK/lwip/lwip-2.1.2/src/core/ipv4\ip4_frag.c ****     ipr->flags |= IP_REASS_FLAG_LASTFRAG;
 1634              		.loc 1 611 5
 612:C:/Users/stapi/OneDrive/Desktop/GD32VW553/GD32VW55X_Wifi_BLE_SDK/GD32VW55x_RELEASE_V1.0.2/MSDK/lwip/lwip-2.1.2/src/core/ipv4\ip4_frag.c ****     LWIP_DEBUGF(IP_REASS_DEBUG,
 1635              		.loc 1 612 16 is_stmt 0
 1636 0506 8347E401 		lbu	a5,30(s0)
 610:C:/Users/stapi/OneDrive/Desktop/GD32VW553/GD32VW55X_Wifi_BLE_SDK/GD32VW55x_RELEASE_V1.0.2/MSDK/lwip/lwip-2.1.2/src/core/ipv4\ip4_frag.c ****     ipr->datagram_len = datagram_len;
 1637              		.loc 1 610 11
 1638 050a DE9A     		add	s5,s7,s5
 1639              	.LVL177:
 611:C:/Users/stapi/OneDrive/Desktop/GD32VW553/GD32VW55X_Wifi_BLE_SDK/GD32VW55x_RELEASE_V1.0.2/MSDK/lwip/lwip-2.1.2/src/core/ipv4\ip4_frag.c ****     ipr->flags |= IP_REASS_FLAG_LASTFRAG;
 1640              		.loc 1 611 23
 1641 050c 231E5401 		sh	s5,28(s0)
 612:C:/Users/stapi/OneDrive/Desktop/GD32VW553/GD32VW55X_Wifi_BLE_SDK/GD32VW55x_RELEASE_V1.0.2/MSDK/lwip/lwip-2.1.2/src/core/ipv4\ip4_frag.c ****     LWIP_DEBUGF(IP_REASS_DEBUG,
 1642              		.loc 1 612 5 is_stmt 1
 612:C:/Users/stapi/OneDrive/Desktop/GD32VW553/GD32VW55X_Wifi_BLE_SDK/GD32VW55x_RELEASE_V1.0.2/MSDK/lwip/lwip-2.1.2/src/core/ipv4\ip4_frag.c ****     LWIP_DEBUGF(IP_REASS_DEBUG,
 1643              		.loc 1 612 16 is_stmt 0
 1644 0510 93E71700 		ori	a5,a5,1
 1645 0514 230FF400 		sb	a5,30(s0)
 1646              	.L96:
 615:C:/Users/stapi/OneDrive/Desktop/GD32VW553/GD32VW55X_Wifi_BLE_SDK/GD32VW55x_RELEASE_V1.0.2/MSDK/lwip/lwip-2.1.2/src/core/ipv4\ip4_frag.c ****   }
 1647              		.loc 1 615 37 is_stmt 1
 1648              	.LBE38:
 618:C:/Users/stapi/OneDrive/Desktop/GD32VW553/GD32VW55X_Wifi_BLE_SDK/GD32VW55x_RELEASE_V1.0.2/MSDK/lwip/lwip-2.1.2/src/core/ipv4\ip4_frag.c ****     struct ip_reassdata *ipr_prev;
 1649              		.loc 1 618 3
 678:C:/Users/stapi/OneDrive/Desktop/GD32VW553/GD32VW55X_Wifi_BLE_SDK/GD32VW55x_RELEASE_V1.0.2/MSDK/lwip/lwip-2.1.2/src/core/ipv4\ip4_frag.c **** 
 1650              		.loc 1 678 10 is_stmt 0
 1651 0518 0149     		li	s2,0
 618:C:/Users/stapi/OneDrive/Desktop/GD32VW553/GD32VW55X_Wifi_BLE_SDK/GD32VW55x_RELEASE_V1.0.2/MSDK/lwip/lwip-2.1.2/src/core/ipv4\ip4_frag.c ****     struct ip_reassdata *ipr_prev;
 1652              		.loc 1 618 6
 1653 051a E30B08E6 		beq	a6,zero,.L60
 1654              	.LBB39:
 619:C:/Users/stapi/OneDrive/Desktop/GD32VW553/GD32VW55X_Wifi_BLE_SDK/GD32VW55x_RELEASE_V1.0.2/MSDK/lwip/lwip-2.1.2/src/core/ipv4\ip4_frag.c ****     /* the totally last fragment (flag more fragments = 0) was received at least
 1655              		.loc 1 619 5 is_stmt 1
 622:C:/Users/stapi/OneDrive/Desktop/GD32VW553/GD32VW55X_Wifi_BLE_SDK/GD32VW55x_RELEASE_V1.0.2/MSDK/lwip/lwip-2.1.2/src/core/ipv4\ip4_frag.c **** 
 1656              		.loc 1 622 5
 625:C:/Users/stapi/OneDrive/Desktop/GD32VW553/GD32VW55X_Wifi_BLE_SDK/GD32VW55x_RELEASE_V1.0.2/MSDK/lwip/lwip-2.1.2/src/core/ipv4\ip4_frag.c **** 
 1657              		.loc 1 625 42 is_stmt 0
 1658 051e 5C40     		lw	a5,4(s0)
 622:C:/Users/stapi/OneDrive/Desktop/GD32VW553/GD32VW55X_Wifi_BLE_SDK/GD32VW55x_RELEASE_V1.0.2/MSDK/lwip/lwip-2.1.2/src/core/ipv4\ip4_frag.c **** 
 1659              		.loc 1 622 11
 1660 0520 835AC401 		lhu	s5,28(s0)
 629:C:/Users/stapi/OneDrive/Desktop/GD32VW553/GD32VW55X_Wifi_BLE_SDK/GD32VW55x_RELEASE_V1.0.2/MSDK/lwip/lwip-2.1.2/src/core/ipv4\ip4_frag.c ****     IPH_LEN_SET(fraghdr, lwip_htons(datagram_len));
 1661              		.loc 1 629 5
 1662 0524 5146     		li	a2,20
 625:C:/Users/stapi/OneDrive/Desktop/GD32VW553/GD32VW55X_Wifi_BLE_SDK/GD32VW55x_RELEASE_V1.0.2/MSDK/lwip/lwip-2.1.2/src/core/ipv4\ip4_frag.c **** 
 1663              		.loc 1 625 42
 1664 0526 03A94700 		lw	s2,4(a5)
 629:C:/Users/stapi/OneDrive/Desktop/GD32VW553/GD32VW55X_Wifi_BLE_SDK/GD32VW55x_RELEASE_V1.0.2/MSDK/lwip/lwip-2.1.2/src/core/ipv4\ip4_frag.c ****     IPH_LEN_SET(fraghdr, lwip_htons(datagram_len));
 1665              		.loc 1 629 5
 1666 052a 93058400 		addi	a1,s0,8
 622:C:/Users/stapi/OneDrive/Desktop/GD32VW553/GD32VW55X_Wifi_BLE_SDK/GD32VW55x_RELEASE_V1.0.2/MSDK/lwip/lwip-2.1.2/src/core/ipv4\ip4_frag.c **** 
 1667              		.loc 1 622 11
 1668 052e D10A     		addi	s5,s5,20
 625:C:/Users/stapi/OneDrive/Desktop/GD32VW553/GD32VW55X_Wifi_BLE_SDK/GD32VW55x_RELEASE_V1.0.2/MSDK/lwip/lwip-2.1.2/src/core/ipv4\ip4_frag.c **** 
 1669              		.loc 1 625 7
 1670 0530 83471900 		lbu	a5,1(s2)
 1671 0534 83440900 		lbu	s1,0(s2)
 629:C:/Users/stapi/OneDrive/Desktop/GD32VW553/GD32VW55X_Wifi_BLE_SDK/GD32VW55x_RELEASE_V1.0.2/MSDK/lwip/lwip-2.1.2/src/core/ipv4\ip4_frag.c ****     IPH_LEN_SET(fraghdr, lwip_htons(datagram_len));
 1672              		.loc 1 629 5
 1673 0538 4A85     		mv	a0,s2
 625:C:/Users/stapi/OneDrive/Desktop/GD32VW553/GD32VW55X_Wifi_BLE_SDK/GD32VW55x_RELEASE_V1.0.2/MSDK/lwip/lwip-2.1.2/src/core/ipv4\ip4_frag.c **** 
 1674              		.loc 1 625 7
 1675 053a A207     		slli	a5,a5,8
 1676 053c C58F     		or	a5,a5,s1
 1677 053e 83442900 		lbu	s1,2(s2)
 622:C:/Users/stapi/OneDrive/Desktop/GD32VW553/GD32VW55X_Wifi_BLE_SDK/GD32VW55x_RELEASE_V1.0.2/MSDK/lwip/lwip-2.1.2/src/core/ipv4\ip4_frag.c **** 
 1678              		.loc 1 622 11
 1679 0542 B3CA0A08 		zext.h	s5,s5
 1680              	.LVL178:
 625:C:/Users/stapi/OneDrive/Desktop/GD32VW553/GD32VW55X_Wifi_BLE_SDK/GD32VW55x_RELEASE_V1.0.2/MSDK/lwip/lwip-2.1.2/src/core/ipv4\ip4_frag.c **** 
 1681              		.loc 1 625 5 is_stmt 1
 625:C:/Users/stapi/OneDrive/Desktop/GD32VW553/GD32VW55X_Wifi_BLE_SDK/GD32VW55x_RELEASE_V1.0.2/MSDK/lwip/lwip-2.1.2/src/core/ipv4\ip4_frag.c **** 
 1682              		.loc 1 625 7 is_stmt 0
 1683 0546 C204     		slli	s1,s1,16
 1684 0548 C58F     		or	a5,s1,a5
 1685 054a 83443900 		lbu	s1,3(s2)
 1686 054e E204     		slli	s1,s1,24
 1687 0550 DD8C     		or	s1,s1,a5
 1688              	.LVL179:
 628:C:/Users/stapi/OneDrive/Desktop/GD32VW553/GD32VW55X_Wifi_BLE_SDK/GD32VW55x_RELEASE_V1.0.2/MSDK/lwip/lwip-2.1.2/src/core/ipv4\ip4_frag.c ****     SMEMCPY(fraghdr, &ipr->iphdr, IP_HLEN);
 1689              		.loc 1 628 5 is_stmt 1
 629:C:/Users/stapi/OneDrive/Desktop/GD32VW553/GD32VW55X_Wifi_BLE_SDK/GD32VW55x_RELEASE_V1.0.2/MSDK/lwip/lwip-2.1.2/src/core/ipv4\ip4_frag.c ****     IPH_LEN_SET(fraghdr, lwip_htons(datagram_len));
 1690              		.loc 1 629 5
 1691 0552 97000000 		call	memcpy
 1691      E7800000 
 1692              	.LVL180:
 630:C:/Users/stapi/OneDrive/Desktop/GD32VW553/GD32VW55X_Wifi_BLE_SDK/GD32VW55x_RELEASE_V1.0.2/MSDK/lwip/lwip-2.1.2/src/core/ipv4\ip4_frag.c ****     IPH_OFFSET_SET(fraghdr, 0);
 1693              		.loc 1 630 5
 1694 055a 5685     		mv	a0,s5
 1695 055c 97000000 		call	lwip_htons
 1695      E7800000 
 1696              	.LVL181:
 1697 0564 2301A900 		sb	a0,2(s2)
 1698 0568 2181     		srli	a0,a0,8
 1699 056a A301A900 		sb	a0,3(s2)
 631:C:/Users/stapi/OneDrive/Desktop/GD32VW553/GD32VW55X_Wifi_BLE_SDK/GD32VW55x_RELEASE_V1.0.2/MSDK/lwip/lwip-2.1.2/src/core/ipv4\ip4_frag.c ****     IPH_CHKSUM_SET(fraghdr, 0);
 1700              		.loc 1 631 5
 1701 056e 23030900 		sb	zero,6(s2)
 1702 0572 A3030900 		sb	zero,7(s2)
 632:C:/Users/stapi/OneDrive/Desktop/GD32VW553/GD32VW55X_Wifi_BLE_SDK/GD32VW55x_RELEASE_V1.0.2/MSDK/lwip/lwip-2.1.2/src/core/ipv4\ip4_frag.c ****     /* @todo: do we need to set/calculate the correct checksum? */
 1703              		.loc 1 632 5
 1704 0576 23050900 		sb	zero,10(s2)
 1705 057a A3050900 		sb	zero,11(s2)
 636:C:/Users/stapi/OneDrive/Desktop/GD32VW553/GD32VW55X_Wifi_BLE_SDK/GD32VW55x_RELEASE_V1.0.2/MSDK/lwip/lwip-2.1.2/src/core/ipv4\ip4_frag.c ****     }
 1706              		.loc 1 636 7
 1707 057e 4A85     		mv	a0,s2
 1708 0580 D145     		li	a1,20
 1709 0582 97000000 		call	inet_chksum
 1709      E7800000 
 1710              	.LVL182:
 1711 058a 2305A900 		sb	a0,10(s2)
 1712 058e 2181     		srli	a0,a0,8
 1713 0590 A305A900 		sb	a0,11(s2)
 640:C:/Users/stapi/OneDrive/Desktop/GD32VW553/GD32VW55X_Wifi_BLE_SDK/GD32VW55x_RELEASE_V1.0.2/MSDK/lwip/lwip-2.1.2/src/core/ipv4\ip4_frag.c **** 
 1714              		.loc 1 640 5
 640:C:/Users/stapi/OneDrive/Desktop/GD32VW553/GD32VW55X_Wifi_BLE_SDK/GD32VW55x_RELEASE_V1.0.2/MSDK/lwip/lwip-2.1.2/src/core/ipv4\ip4_frag.c **** 
 1715              		.loc 1 640 7 is_stmt 0
 1716 0594 03294400 		lw	s2,4(s0)
 1717              	.LVL183:
 643:C:/Users/stapi/OneDrive/Desktop/GD32VW553/GD32VW55X_Wifi_BLE_SDK/GD32VW55x_RELEASE_V1.0.2/MSDK/lwip/lwip-2.1.2/src/core/ipv4\ip4_frag.c ****       iprh = (struct ip_reass_helper *)r->payload;
 1718              		.loc 1 643 5 is_stmt 1
 1719              	.L98:
 643:C:/Users/stapi/OneDrive/Desktop/GD32VW553/GD32VW55X_Wifi_BLE_SDK/GD32VW55x_RELEASE_V1.0.2/MSDK/lwip/lwip-2.1.2/src/core/ipv4\ip4_frag.c ****       iprh = (struct ip_reass_helper *)r->payload;
 1720              		.loc 1 643 11
 1721 0598 E39A04DA 		bne	s1,zero,.L99
 653:C:/Users/stapi/OneDrive/Desktop/GD32VW553/GD32VW55X_Wifi_BLE_SDK/GD32VW55x_RELEASE_V1.0.2/MSDK/lwip/lwip-2.1.2/src/core/ipv4\ip4_frag.c ****       ipr_prev = NULL;
 1722              		.loc 1 653 5
 653:C:/Users/stapi/OneDrive/Desktop/GD32VW553/GD32VW55X_Wifi_BLE_SDK/GD32VW55x_RELEASE_V1.0.2/MSDK/lwip/lwip-2.1.2/src/core/ipv4\ip4_frag.c ****       ipr_prev = NULL;
 1723              		.loc 1 653 13 is_stmt 0
 1724 059c 83270A00 		lw	a5,0(s4)
 1725              	.LVL184:
 1726              	.L154:
 657:C:/Users/stapi/OneDrive/Desktop/GD32VW553/GD32VW55X_Wifi_BLE_SDK/GD32VW55x_RELEASE_V1.0.2/MSDK/lwip/lwip-2.1.2/src/core/ipv4\ip4_frag.c ****           break;
 1727              		.loc 1 657 12
 1728 05a0 63858700 		beq	a5,s0,.L100
 1729 05a4 BE84     		mv	s1,a5
 1730              	.LVL185:
 656:C:/Users/stapi/OneDrive/Desktop/GD32VW553/GD32VW55X_Wifi_BLE_SDK/GD32VW55x_RELEASE_V1.0.2/MSDK/lwip/lwip-2.1.2/src/core/ipv4\ip4_frag.c ****         if (ipr_prev->next == ipr) {
 1731              		.loc 1 656 39 is_stmt 1
 656:C:/Users/stapi/OneDrive/Desktop/GD32VW553/GD32VW55X_Wifi_BLE_SDK/GD32VW55x_RELEASE_V1.0.2/MSDK/lwip/lwip-2.1.2/src/core/ipv4\ip4_frag.c ****         if (ipr_prev->next == ipr) {
 1732              		.loc 1 656 7 is_stmt 0
 1733 05a6 E39007DE 		bne	a5,zero,.L102
 1734              	.LVL186:
 1735              	.L100:
 664:C:/Users/stapi/OneDrive/Desktop/GD32VW553/GD32VW55X_Wifi_BLE_SDK/GD32VW55x_RELEASE_V1.0.2/MSDK/lwip/lwip-2.1.2/src/core/ipv4\ip4_frag.c **** 
 1736              		.loc 1 664 5 is_stmt 1
 1737 05aa A685     		mv	a1,s1
 1738 05ac 2285     		mv	a0,s0
 1739 05ae 97000000 		call	ip_reass_dequeue_datagram
 1739      E7800000 
 1740              	.LVL187:
 667:C:/Users/stapi/OneDrive/Desktop/GD32VW553/GD32VW55X_Wifi_BLE_SDK/GD32VW55x_RELEASE_V1.0.2/MSDK/lwip/lwip-2.1.2/src/core/ipv4\ip4_frag.c ****     LWIP_ASSERT("ip_reass_pbufcount >= clen", ip_reass_pbufcount >= clen);
 1741              		.loc 1 667 5
 667:C:/Users/stapi/OneDrive/Desktop/GD32VW553/GD32VW55X_Wifi_BLE_SDK/GD32VW55x_RELEASE_V1.0.2/MSDK/lwip/lwip-2.1.2/src/core/ipv4\ip4_frag.c ****     LWIP_ASSERT("ip_reass_pbufcount >= clen", ip_reass_pbufcount >= clen);
 1742              		.loc 1 667 12 is_stmt 0
 1743 05b6 4A85     		mv	a0,s2
 1744 05b8 97000000 		call	pbuf_clen
 1744      E7800000 
 1745              	.LVL188:
 668:C:/Users/stapi/OneDrive/Desktop/GD32VW553/GD32VW55X_Wifi_BLE_SDK/GD32VW55x_RELEASE_V1.0.2/MSDK/lwip/lwip-2.1.2/src/core/ipv4\ip4_frag.c ****     ip_reass_pbufcount = (u16_t)(ip_reass_pbufcount - clen);
 1746              		.loc 1 668 5 is_stmt 1
 668:C:/Users/stapi/OneDrive/Desktop/GD32VW553/GD32VW55X_Wifi_BLE_SDK/GD32VW55x_RELEASE_V1.0.2/MSDK/lwip/lwip-2.1.2/src/core/ipv4\ip4_frag.c ****     ip_reass_pbufcount = (u16_t)(ip_reass_pbufcount - clen);
 1747              		.loc 1 668 5
 1748 05c0 83D70900 		lhu	a5,0(s3)
 1749 05c4 E3F3A7DC 		bgeu	a5,a0,.L103
 668:C:/Users/stapi/OneDrive/Desktop/GD32VW553/GD32VW55X_Wifi_BLE_SDK/GD32VW55x_RELEASE_V1.0.2/MSDK/lwip/lwip-2.1.2/src/core/ipv4\ip4_frag.c ****     ip_reass_pbufcount = (u16_t)(ip_reass_pbufcount - clen);
 1750              		.loc 1 668 5 discriminator 1
 668:C:/Users/stapi/OneDrive/Desktop/GD32VW553/GD32VW55X_Wifi_BLE_SDK/GD32VW55x_RELEASE_V1.0.2/MSDK/lwip/lwip-2.1.2/src/core/ipv4\ip4_frag.c ****     ip_reass_pbufcount = (u16_t)(ip_reass_pbufcount - clen);
 1751              		.loc 1 668 5 discriminator 1
 1752 05c8 B7060000 		lui	a3,%hi(.LC0)
 1753 05cc B7050000 		lui	a1,%hi(.LC13)
 1754 05d0 37050000 		lui	a0,%hi(.LC2)
 1755              	.LVL189:
 1756 05d4 93860600 		addi	a3,a3,%lo(.LC0)
 1757 05d8 1306C029 		li	a2,668
 1758 05dc 93850500 		addi	a1,a1,%lo(.LC13)
 1759 05e0 13050500 		addi	a0,a0,%lo(.LC2)
 1760 05e4 97000000 		call	printf
 1760      E7800000 
 1761              	.LVL190:
 1762              	.L104:
 668:C:/Users/stapi/OneDrive/Desktop/GD32VW553/GD32VW55X_Wifi_BLE_SDK/GD32VW55x_RELEASE_V1.0.2/MSDK/lwip/lwip-2.1.2/src/core/ipv4\ip4_frag.c ****     ip_reass_pbufcount = (u16_t)(ip_reass_pbufcount - clen);
 1763              		.loc 1 668 5 discriminator 1
 668:C:/Users/stapi/OneDrive/Desktop/GD32VW553/GD32VW55X_Wifi_BLE_SDK/GD32VW55x_RELEASE_V1.0.2/MSDK/lwip/lwip-2.1.2/src/core/ipv4\ip4_frag.c ****     ip_reass_pbufcount = (u16_t)(ip_reass_pbufcount - clen);
 1764              		.loc 1 668 5 discriminator 1
 668:C:/Users/stapi/OneDrive/Desktop/GD32VW553/GD32VW55X_Wifi_BLE_SDK/GD32VW55x_RELEASE_V1.0.2/MSDK/lwip/lwip-2.1.2/src/core/ipv4\ip4_frag.c ****     ip_reass_pbufcount = (u16_t)(ip_reass_pbufcount - clen);
 1765              		.loc 1 668 5 discriminator 1
 1766 05ec 01A0     		j	.L104
 1767              	.LBE39:
 1768              		.cfi_endproc
 1769              	.LFE10:
 1771              		.section	.rodata.ip4_frag.str1.4,"aMS",@progbits,1
 1772              		.align	2
 1773              	.LC15:
 1774 0000 6970345F 		.string	"ip4_frag(): pbuf too short"
 1774      66726167 
 1774      28293A20 
 1774      70627566 
 1774      20746F6F 
 1775 001b 00       		.align	2
 1776              	.LC16:
 1777 001c 74686973 		.string	"this needs a pbuf in one piece!"
 1777      206E6565 
 1777      64732061 
 1777      20706275 
 1777      6620696E 
 1778              		.align	2
 1779              	.LC17:
 1780 003c 702D3E6C 		.string	"p->len >= poff"
 1780      656E203E 
 1780      3D20706F 
 1780      666600
 1781              		.section	.text.ip4_frag,"ax",@progbits
 1782              		.align	1
 1783              		.globl	ip4_frag
 1785              	ip4_frag:
 1786              	.LFB14:
 726:C:/Users/stapi/OneDrive/Desktop/GD32VW553/GD32VW55X_Wifi_BLE_SDK/GD32VW55x_RELEASE_V1.0.2/MSDK/lwip/lwip-2.1.2/src/core/ipv4\ip4_frag.c **** #endif /* !LWIP_NETIF_TX_SINGLE_PBUF */
 727:C:/Users/stapi/OneDrive/Desktop/GD32VW553/GD32VW55X_Wifi_BLE_SDK/GD32VW55x_RELEASE_V1.0.2/MSDK/lwip/lwip-2.1.2/src/core/ipv4\ip4_frag.c **** 
 728:C:/Users/stapi/OneDrive/Desktop/GD32VW553/GD32VW55X_Wifi_BLE_SDK/GD32VW55x_RELEASE_V1.0.2/MSDK/lwip/lwip-2.1.2/src/core/ipv4\ip4_frag.c **** /**
 729:C:/Users/stapi/OneDrive/Desktop/GD32VW553/GD32VW55X_Wifi_BLE_SDK/GD32VW55x_RELEASE_V1.0.2/MSDK/lwip/lwip-2.1.2/src/core/ipv4\ip4_frag.c ****  * Fragment an IP datagram if too large for the netif.
 730:C:/Users/stapi/OneDrive/Desktop/GD32VW553/GD32VW55X_Wifi_BLE_SDK/GD32VW55x_RELEASE_V1.0.2/MSDK/lwip/lwip-2.1.2/src/core/ipv4\ip4_frag.c ****  *
 731:C:/Users/stapi/OneDrive/Desktop/GD32VW553/GD32VW55X_Wifi_BLE_SDK/GD32VW55x_RELEASE_V1.0.2/MSDK/lwip/lwip-2.1.2/src/core/ipv4\ip4_frag.c ****  * Chop the datagram in MTU sized chunks and send them in order
 732:C:/Users/stapi/OneDrive/Desktop/GD32VW553/GD32VW55X_Wifi_BLE_SDK/GD32VW55x_RELEASE_V1.0.2/MSDK/lwip/lwip-2.1.2/src/core/ipv4\ip4_frag.c ****  * by pointing PBUF_REFs into p.
 733:C:/Users/stapi/OneDrive/Desktop/GD32VW553/GD32VW55X_Wifi_BLE_SDK/GD32VW55x_RELEASE_V1.0.2/MSDK/lwip/lwip-2.1.2/src/core/ipv4\ip4_frag.c ****  *
 734:C:/Users/stapi/OneDrive/Desktop/GD32VW553/GD32VW55X_Wifi_BLE_SDK/GD32VW55x_RELEASE_V1.0.2/MSDK/lwip/lwip-2.1.2/src/core/ipv4\ip4_frag.c ****  * @param p ip packet to send
 735:C:/Users/stapi/OneDrive/Desktop/GD32VW553/GD32VW55X_Wifi_BLE_SDK/GD32VW55x_RELEASE_V1.0.2/MSDK/lwip/lwip-2.1.2/src/core/ipv4\ip4_frag.c ****  * @param netif the netif on which to send
 736:C:/Users/stapi/OneDrive/Desktop/GD32VW553/GD32VW55X_Wifi_BLE_SDK/GD32VW55x_RELEASE_V1.0.2/MSDK/lwip/lwip-2.1.2/src/core/ipv4\ip4_frag.c ****  * @param dest destination ip address to which to send
 737:C:/Users/stapi/OneDrive/Desktop/GD32VW553/GD32VW55X_Wifi_BLE_SDK/GD32VW55x_RELEASE_V1.0.2/MSDK/lwip/lwip-2.1.2/src/core/ipv4\ip4_frag.c ****  *
 738:C:/Users/stapi/OneDrive/Desktop/GD32VW553/GD32VW55X_Wifi_BLE_SDK/GD32VW55x_RELEASE_V1.0.2/MSDK/lwip/lwip-2.1.2/src/core/ipv4\ip4_frag.c ****  * @return ERR_OK if sent successfully, err_t otherwise
 739:C:/Users/stapi/OneDrive/Desktop/GD32VW553/GD32VW55X_Wifi_BLE_SDK/GD32VW55x_RELEASE_V1.0.2/MSDK/lwip/lwip-2.1.2/src/core/ipv4\ip4_frag.c ****  */
 740:C:/Users/stapi/OneDrive/Desktop/GD32VW553/GD32VW55X_Wifi_BLE_SDK/GD32VW55x_RELEASE_V1.0.2/MSDK/lwip/lwip-2.1.2/src/core/ipv4\ip4_frag.c **** err_t
 741:C:/Users/stapi/OneDrive/Desktop/GD32VW553/GD32VW55X_Wifi_BLE_SDK/GD32VW55x_RELEASE_V1.0.2/MSDK/lwip/lwip-2.1.2/src/core/ipv4\ip4_frag.c **** ip4_frag(struct pbuf *p, struct netif *netif, const ip4_addr_t *dest)
 742:C:/Users/stapi/OneDrive/Desktop/GD32VW553/GD32VW55X_Wifi_BLE_SDK/GD32VW55x_RELEASE_V1.0.2/MSDK/lwip/lwip-2.1.2/src/core/ipv4\ip4_frag.c **** {
 1787              		.loc 1 742 1
 1788              		.cfi_startproc
 1789              	.LVL191:
 1790 0000 17030000 		call	t0,__riscv_save_12
 1790      E7020300 
 1791              		.cfi_offset 27, -52
 1792              		.cfi_offset 26, -48
 1793              		.cfi_offset 25, -44
 1794              		.cfi_offset 24, -40
 1795              		.cfi_offset 23, -36
 1796              		.cfi_offset 22, -32
 1797              		.cfi_offset 21, -28
 1798              		.cfi_offset 20, -24
 1799              		.cfi_offset 19, -20
 1800              		.cfi_offset 18, -16
 1801              		.cfi_offset 9, -12
 1802              		.cfi_offset 8, -8
 1803              		.cfi_offset 1, -4
 1804              		.cfi_def_cfa_offset 64
 743:C:/Users/stapi/OneDrive/Desktop/GD32VW553/GD32VW55X_Wifi_BLE_SDK/GD32VW55x_RELEASE_V1.0.2/MSDK/lwip/lwip-2.1.2/src/core/ipv4\ip4_frag.c ****   struct pbuf *rambuf;
 1805              		.loc 1 743 3
 744:C:/Users/stapi/OneDrive/Desktop/GD32VW553/GD32VW55X_Wifi_BLE_SDK/GD32VW55x_RELEASE_V1.0.2/MSDK/lwip/lwip-2.1.2/src/core/ipv4\ip4_frag.c **** #if !LWIP_NETIF_TX_SINGLE_PBUF
 745:C:/Users/stapi/OneDrive/Desktop/GD32VW553/GD32VW55X_Wifi_BLE_SDK/GD32VW55x_RELEASE_V1.0.2/MSDK/lwip/lwip-2.1.2/src/core/ipv4\ip4_frag.c ****   struct pbuf *newpbuf;
 1806              		.loc 1 745 3
 746:C:/Users/stapi/OneDrive/Desktop/GD32VW553/GD32VW55X_Wifi_BLE_SDK/GD32VW55x_RELEASE_V1.0.2/MSDK/lwip/lwip-2.1.2/src/core/ipv4\ip4_frag.c ****   u16_t newpbuflen = 0;
 1807              		.loc 1 746 3
 1808              	.LVL192:
 747:C:/Users/stapi/OneDrive/Desktop/GD32VW553/GD32VW55X_Wifi_BLE_SDK/GD32VW55x_RELEASE_V1.0.2/MSDK/lwip/lwip-2.1.2/src/core/ipv4\ip4_frag.c ****   u16_t left_to_copy;
 1809              		.loc 1 747 3
 748:C:/Users/stapi/OneDrive/Desktop/GD32VW553/GD32VW55X_Wifi_BLE_SDK/GD32VW55x_RELEASE_V1.0.2/MSDK/lwip/lwip-2.1.2/src/core/ipv4\ip4_frag.c **** #endif
 749:C:/Users/stapi/OneDrive/Desktop/GD32VW553/GD32VW55X_Wifi_BLE_SDK/GD32VW55x_RELEASE_V1.0.2/MSDK/lwip/lwip-2.1.2/src/core/ipv4\ip4_frag.c ****   struct ip_hdr *original_iphdr;
 1810              		.loc 1 749 3
 750:C:/Users/stapi/OneDrive/Desktop/GD32VW553/GD32VW55X_Wifi_BLE_SDK/GD32VW55x_RELEASE_V1.0.2/MSDK/lwip/lwip-2.1.2/src/core/ipv4\ip4_frag.c ****   struct ip_hdr *iphdr;
 1811              		.loc 1 750 3
 751:C:/Users/stapi/OneDrive/Desktop/GD32VW553/GD32VW55X_Wifi_BLE_SDK/GD32VW55x_RELEASE_V1.0.2/MSDK/lwip/lwip-2.1.2/src/core/ipv4\ip4_frag.c ****   const u16_t nfb = (u16_t)((netif->mtu - IP_HLEN) / 8);
 1812              		.loc 1 751 3
 752:C:/Users/stapi/OneDrive/Desktop/GD32VW553/GD32VW55X_Wifi_BLE_SDK/GD32VW55x_RELEASE_V1.0.2/MSDK/lwip/lwip-2.1.2/src/core/ipv4\ip4_frag.c ****   u16_t left, fragsize;
 1813              		.loc 1 752 3
 753:C:/Users/stapi/OneDrive/Desktop/GD32VW553/GD32VW55X_Wifi_BLE_SDK/GD32VW55x_RELEASE_V1.0.2/MSDK/lwip/lwip-2.1.2/src/core/ipv4\ip4_frag.c ****   u16_t ofo;
 1814              		.loc 1 753 3
 754:C:/Users/stapi/OneDrive/Desktop/GD32VW553/GD32VW55X_Wifi_BLE_SDK/GD32VW55x_RELEASE_V1.0.2/MSDK/lwip/lwip-2.1.2/src/core/ipv4\ip4_frag.c ****   int last;
 1815              		.loc 1 754 3
 755:C:/Users/stapi/OneDrive/Desktop/GD32VW553/GD32VW55X_Wifi_BLE_SDK/GD32VW55x_RELEASE_V1.0.2/MSDK/lwip/lwip-2.1.2/src/core/ipv4\ip4_frag.c ****   u16_t poff = IP_HLEN;
 1816              		.loc 1 755 3
 756:C:/Users/stapi/OneDrive/Desktop/GD32VW553/GD32VW55X_Wifi_BLE_SDK/GD32VW55x_RELEASE_V1.0.2/MSDK/lwip/lwip-2.1.2/src/core/ipv4\ip4_frag.c ****   u16_t tmp;
 1817              		.loc 1 756 3
 757:C:/Users/stapi/OneDrive/Desktop/GD32VW553/GD32VW55X_Wifi_BLE_SDK/GD32VW55x_RELEASE_V1.0.2/MSDK/lwip/lwip-2.1.2/src/core/ipv4\ip4_frag.c ****   int mf_set;
 1818              		.loc 1 757 3
 758:C:/Users/stapi/OneDrive/Desktop/GD32VW553/GD32VW55X_Wifi_BLE_SDK/GD32VW55x_RELEASE_V1.0.2/MSDK/lwip/lwip-2.1.2/src/core/ipv4\ip4_frag.c **** 
 759:C:/Users/stapi/OneDrive/Desktop/GD32VW553/GD32VW55X_Wifi_BLE_SDK/GD32VW55x_RELEASE_V1.0.2/MSDK/lwip/lwip-2.1.2/src/core/ipv4\ip4_frag.c ****   original_iphdr = (struct ip_hdr *)p->payload;
 1819              		.loc 1 759 3
 1820              		.loc 1 759 18 is_stmt 0
 1821 0008 032D4500 		lw	s10,4(a0)
 1822              	.LVL193:
 760:C:/Users/stapi/OneDrive/Desktop/GD32VW553/GD32VW55X_Wifi_BLE_SDK/GD32VW55x_RELEASE_V1.0.2/MSDK/lwip/lwip-2.1.2/src/core/ipv4\ip4_frag.c ****   iphdr = original_iphdr;
 1823              		.loc 1 760 3 is_stmt 1
 761:C:/Users/stapi/OneDrive/Desktop/GD32VW553/GD32VW55X_Wifi_BLE_SDK/GD32VW55x_RELEASE_V1.0.2/MSDK/lwip/lwip-2.1.2/src/core/ipv4\ip4_frag.c ****   if (IPH_HL_BYTES(iphdr) != IP_HLEN) {
 1824              		.loc 1 761 3
 742:C:/Users/stapi/OneDrive/Desktop/GD32VW553/GD32VW55X_Wifi_BLE_SDK/GD32VW55x_RELEASE_V1.0.2/MSDK/lwip/lwip-2.1.2/src/core/ipv4\ip4_frag.c ****   struct pbuf *rambuf;
 1825              		.loc 1 742 1 is_stmt 0
 1826 000c 0111     		addi	sp,sp,-32
 1827              		.cfi_def_cfa_offset 96
 742:C:/Users/stapi/OneDrive/Desktop/GD32VW553/GD32VW55X_Wifi_BLE_SDK/GD32VW55x_RELEASE_V1.0.2/MSDK/lwip/lwip-2.1.2/src/core/ipv4\ip4_frag.c ****   struct pbuf *rambuf;
 1828              		.loc 1 742 1
 1829 000e 32C8     		sw	a2,16(sp)
 1830              		.loc 1 761 7
 1831 0010 83470D00 		lbu	a5,0(s10)
 1832              		.loc 1 761 6
 1833 0014 5147     		li	a4,20
 1834              		.loc 1 761 7
 1835 0016 BD8B     		andi	a5,a5,15
 1836              		.loc 1 761 6
 1837 0018 8A07     		slli	a5,a5,2
 1838 001a 6398E724 		bne	a5,a4,.L174
 762:C:/Users/stapi/OneDrive/Desktop/GD32VW553/GD32VW55X_Wifi_BLE_SDK/GD32VW55x_RELEASE_V1.0.2/MSDK/lwip/lwip-2.1.2/src/core/ipv4\ip4_frag.c ****     /* ip4_frag() does not support IP options */
 763:C:/Users/stapi/OneDrive/Desktop/GD32VW553/GD32VW55X_Wifi_BLE_SDK/GD32VW55x_RELEASE_V1.0.2/MSDK/lwip/lwip-2.1.2/src/core/ipv4\ip4_frag.c ****     return ERR_VAL;
 764:C:/Users/stapi/OneDrive/Desktop/GD32VW553/GD32VW55X_Wifi_BLE_SDK/GD32VW55x_RELEASE_V1.0.2/MSDK/lwip/lwip-2.1.2/src/core/ipv4\ip4_frag.c ****   }
 765:C:/Users/stapi/OneDrive/Desktop/GD32VW553/GD32VW55X_Wifi_BLE_SDK/GD32VW55x_RELEASE_V1.0.2/MSDK/lwip/lwip-2.1.2/src/core/ipv4\ip4_frag.c ****   LWIP_ERROR("ip4_frag(): pbuf too short", p->len >= IP_HLEN, return ERR_VAL);
 1839              		.loc 1 765 3
 1840 001e 0357A500 		lhu	a4,10(a0)
 1841 0022 CD47     		li	a5,19
 1842 0024 2A84     		mv	s0,a0
 1843              		.loc 1 765 3 is_stmt 1
 1844              		.loc 1 765 3
 1845 0026 63E5E702 		bgtu	a4,a5,.L157
 1846              		.loc 1 765 3 discriminator 1
 1847              		.loc 1 765 3 discriminator 1
 1848 002a B7060000 		lui	a3,%hi(.LC0)
 1849 002e B7050000 		lui	a1,%hi(.LC15)
 1850              	.LVL194:
 1851 0032 37050000 		lui	a0,%hi(.LC2)
 1852              	.LVL195:
 1853 0036 93860600 		addi	a3,a3,%lo(.LC0)
 1854 003a 1306D02F 		li	a2,765
 1855              	.LVL196:
 1856 003e 93850500 		addi	a1,a1,%lo(.LC15)
 1857 0042 13050500 		addi	a0,a0,%lo(.LC2)
 1858 0046 97000000 		call	printf
 1858      E7800000 
 1859              	.LVL197:
 1860              	.L158:
 1861              		.loc 1 765 3 discriminator 1
 1862              		.loc 1 765 3 discriminator 1
 1863              		.loc 1 765 3 discriminator 1
 1864 004e 01A0     		j	.L158
 1865              	.LVL198:
 1866              	.L157:
 751:C:/Users/stapi/OneDrive/Desktop/GD32VW553/GD32VW55X_Wifi_BLE_SDK/GD32VW55x_RELEASE_V1.0.2/MSDK/lwip/lwip-2.1.2/src/core/ipv4\ip4_frag.c ****   u16_t left, fragsize;
 1867              		.loc 1 751 35 is_stmt 0 discriminator 2
 1868 0050 03DB8502 		lhu	s6,40(a1)
 751:C:/Users/stapi/OneDrive/Desktop/GD32VW553/GD32VW55X_Wifi_BLE_SDK/GD32VW55x_RELEASE_V1.0.2/MSDK/lwip/lwip-2.1.2/src/core/ipv4\ip4_frag.c ****   u16_t left, fragsize;
 1869              		.loc 1 751 52 discriminator 2
 1870 0054 A147     		li	a5,8
 1871 0056 2E8C     		mv	s8,a1
 751:C:/Users/stapi/OneDrive/Desktop/GD32VW553/GD32VW55X_Wifi_BLE_SDK/GD32VW55x_RELEASE_V1.0.2/MSDK/lwip/lwip-2.1.2/src/core/ipv4\ip4_frag.c ****   u16_t left, fragsize;
 1872              		.loc 1 751 41 discriminator 2
 1873 0058 311B     		addi	s6,s6,-20
 751:C:/Users/stapi/OneDrive/Desktop/GD32VW553/GD32VW55X_Wifi_BLE_SDK/GD32VW55x_RELEASE_V1.0.2/MSDK/lwip/lwip-2.1.2/src/core/ipv4\ip4_frag.c ****   u16_t left, fragsize;
 1874              		.loc 1 751 52 discriminator 2
 1875 005a 334BFB02 		div	s6,s6,a5
 766:C:/Users/stapi/OneDrive/Desktop/GD32VW553/GD32VW55X_Wifi_BLE_SDK/GD32VW55x_RELEASE_V1.0.2/MSDK/lwip/lwip-2.1.2/src/core/ipv4\ip4_frag.c **** 
 767:C:/Users/stapi/OneDrive/Desktop/GD32VW553/GD32VW55X_Wifi_BLE_SDK/GD32VW55x_RELEASE_V1.0.2/MSDK/lwip/lwip-2.1.2/src/core/ipv4\ip4_frag.c ****   /* Save original offset */
 768:C:/Users/stapi/OneDrive/Desktop/GD32VW553/GD32VW55X_Wifi_BLE_SDK/GD32VW55x_RELEASE_V1.0.2/MSDK/lwip/lwip-2.1.2/src/core/ipv4\ip4_frag.c ****   tmp = lwip_ntohs(IPH_OFFSET(iphdr));
 769:C:/Users/stapi/OneDrive/Desktop/GD32VW553/GD32VW55X_Wifi_BLE_SDK/GD32VW55x_RELEASE_V1.0.2/MSDK/lwip/lwip-2.1.2/src/core/ipv4\ip4_frag.c ****   ofo = tmp & IP_OFFMASK;
 1876              		.loc 1 769 7 discriminator 2
 1877 005e 896D     		li	s11,8192
 1878 0060 FD1D     		addi	s11,s11,-1
 755:C:/Users/stapi/OneDrive/Desktop/GD32VW553/GD32VW55X_Wifi_BLE_SDK/GD32VW55x_RELEASE_V1.0.2/MSDK/lwip/lwip-2.1.2/src/core/ipv4\ip4_frag.c ****   u16_t tmp;
 1879              		.loc 1 755 9 discriminator 2
 1880 0062 514A     		li	s4,20
 746:C:/Users/stapi/OneDrive/Desktop/GD32VW553/GD32VW55X_Wifi_BLE_SDK/GD32VW55x_RELEASE_V1.0.2/MSDK/lwip/lwip-2.1.2/src/core/ipv4\ip4_frag.c ****   u16_t left_to_copy;
 1881              		.loc 1 746 9 discriminator 2
 1882 0064 0149     		li	s2,0
 751:C:/Users/stapi/OneDrive/Desktop/GD32VW553/GD32VW55X_Wifi_BLE_SDK/GD32VW55x_RELEASE_V1.0.2/MSDK/lwip/lwip-2.1.2/src/core/ipv4\ip4_frag.c ****   u16_t left, fragsize;
 1883              		.loc 1 751 15 discriminator 2
 1884 0066 B3470B08 		zext.h	a5,s6
 1885 006a 3EC2     		sw	a5,4(sp)
 765:C:/Users/stapi/OneDrive/Desktop/GD32VW553/GD32VW55X_Wifi_BLE_SDK/GD32VW55x_RELEASE_V1.0.2/MSDK/lwip/lwip-2.1.2/src/core/ipv4\ip4_frag.c **** 
 1886              		.loc 1 765 3 is_stmt 1 discriminator 2
 768:C:/Users/stapi/OneDrive/Desktop/GD32VW553/GD32VW55X_Wifi_BLE_SDK/GD32VW55x_RELEASE_V1.0.2/MSDK/lwip/lwip-2.1.2/src/core/ipv4\ip4_frag.c ****   ofo = tmp & IP_OFFMASK;
 1887              		.loc 1 768 3 discriminator 2
 768:C:/Users/stapi/OneDrive/Desktop/GD32VW553/GD32VW55X_Wifi_BLE_SDK/GD32VW55x_RELEASE_V1.0.2/MSDK/lwip/lwip-2.1.2/src/core/ipv4\ip4_frag.c ****   ofo = tmp & IP_OFFMASK;
 1888              		.loc 1 768 9 is_stmt 0 discriminator 2
 1889 006c 83477D00 		lbu	a5,7(s10)
 1890 0070 03456D00 		lbu	a0,6(s10)
 1891 0074 A207     		slli	a5,a5,8
 1892 0076 5D8D     		or	a0,a5,a0
 1893 0078 97000000 		call	lwip_htons
 1893      E7800000 
 1894              	.LVL199:
 1895              		.loc 1 769 3 is_stmt 1 discriminator 2
 1896 0080 8967     		li	a5,8192
 1897 0082 E98F     		and	a5,a0,a5
 1898 0084 3EC6     		sw	a5,12(sp)
 770:C:/Users/stapi/OneDrive/Desktop/GD32VW553/GD32VW55X_Wifi_BLE_SDK/GD32VW55x_RELEASE_V1.0.2/MSDK/lwip/lwip-2.1.2/src/core/ipv4\ip4_frag.c ****   /* already fragmented? if so, the last fragment we create must have MF, too */
 771:C:/Users/stapi/OneDrive/Desktop/GD32VW553/GD32VW55X_Wifi_BLE_SDK/GD32VW55x_RELEASE_V1.0.2/MSDK/lwip/lwip-2.1.2/src/core/ipv4\ip4_frag.c ****   mf_set = tmp & IP_MF;
 772:C:/Users/stapi/OneDrive/Desktop/GD32VW553/GD32VW55X_Wifi_BLE_SDK/GD32VW55x_RELEASE_V1.0.2/MSDK/lwip/lwip-2.1.2/src/core/ipv4\ip4_frag.c **** 
 773:C:/Users/stapi/OneDrive/Desktop/GD32VW553/GD32VW55X_Wifi_BLE_SDK/GD32VW55x_RELEASE_V1.0.2/MSDK/lwip/lwip-2.1.2/src/core/ipv4\ip4_frag.c ****   left = (u16_t)(p->tot_len - IP_HLEN);
 774:C:/Users/stapi/OneDrive/Desktop/GD32VW553/GD32VW55X_Wifi_BLE_SDK/GD32VW55x_RELEASE_V1.0.2/MSDK/lwip/lwip-2.1.2/src/core/ipv4\ip4_frag.c **** 
 775:C:/Users/stapi/OneDrive/Desktop/GD32VW553/GD32VW55X_Wifi_BLE_SDK/GD32VW55x_RELEASE_V1.0.2/MSDK/lwip/lwip-2.1.2/src/core/ipv4\ip4_frag.c ****   while (left) {
 776:C:/Users/stapi/OneDrive/Desktop/GD32VW553/GD32VW55X_Wifi_BLE_SDK/GD32VW55x_RELEASE_V1.0.2/MSDK/lwip/lwip-2.1.2/src/core/ipv4\ip4_frag.c ****     /* Fill this fragment */
 777:C:/Users/stapi/OneDrive/Desktop/GD32VW553/GD32VW55X_Wifi_BLE_SDK/GD32VW55x_RELEASE_V1.0.2/MSDK/lwip/lwip-2.1.2/src/core/ipv4\ip4_frag.c ****     fragsize = LWIP_MIN(left, (u16_t)(nfb * 8));
 1899              		.loc 1 777 16 is_stmt 0 discriminator 2
 1900 0086 9247     		lw	a5,4(sp)
 773:C:/Users/stapi/OneDrive/Desktop/GD32VW553/GD32VW55X_Wifi_BLE_SDK/GD32VW55x_RELEASE_V1.0.2/MSDK/lwip/lwip-2.1.2/src/core/ipv4\ip4_frag.c **** 
 1901              		.loc 1 773 8 discriminator 2
 1902 0088 83598400 		lhu	s3,8(s0)
 769:C:/Users/stapi/OneDrive/Desktop/GD32VW553/GD32VW55X_Wifi_BLE_SDK/GD32VW55x_RELEASE_V1.0.2/MSDK/lwip/lwip-2.1.2/src/core/ipv4\ip4_frag.c ****   /* already fragmented? if so, the last fragment we create must have MF, too */
 1903              		.loc 1 769 7 discriminator 2
 1904 008c B37BB501 		and	s7,a0,s11
 1905              		.loc 1 777 16 discriminator 2
 1906 0090 8E07     		slli	a5,a5,3
 1907 0092 B3C70708 		zext.h	a5,a5
 1908 0096 3EC4     		sw	a5,8(sp)
 1909              	.LBB44:
 778:C:/Users/stapi/OneDrive/Desktop/GD32VW553/GD32VW55X_Wifi_BLE_SDK/GD32VW55x_RELEASE_V1.0.2/MSDK/lwip/lwip-2.1.2/src/core/ipv4\ip4_frag.c **** 
 779:C:/Users/stapi/OneDrive/Desktop/GD32VW553/GD32VW55X_Wifi_BLE_SDK/GD32VW55x_RELEASE_V1.0.2/MSDK/lwip/lwip-2.1.2/src/core/ipv4\ip4_frag.c **** #if LWIP_NETIF_TX_SINGLE_PBUF
 780:C:/Users/stapi/OneDrive/Desktop/GD32VW553/GD32VW55X_Wifi_BLE_SDK/GD32VW55x_RELEASE_V1.0.2/MSDK/lwip/lwip-2.1.2/src/core/ipv4\ip4_frag.c ****     rambuf = pbuf_alloc(PBUF_IP, fragsize, PBUF_RAM);
 781:C:/Users/stapi/OneDrive/Desktop/GD32VW553/GD32VW55X_Wifi_BLE_SDK/GD32VW55x_RELEASE_V1.0.2/MSDK/lwip/lwip-2.1.2/src/core/ipv4\ip4_frag.c ****     if (rambuf == NULL) {
 782:C:/Users/stapi/OneDrive/Desktop/GD32VW553/GD32VW55X_Wifi_BLE_SDK/GD32VW55x_RELEASE_V1.0.2/MSDK/lwip/lwip-2.1.2/src/core/ipv4\ip4_frag.c ****       goto memerr;
 783:C:/Users/stapi/OneDrive/Desktop/GD32VW553/GD32VW55X_Wifi_BLE_SDK/GD32VW55x_RELEASE_V1.0.2/MSDK/lwip/lwip-2.1.2/src/core/ipv4\ip4_frag.c ****     }
 784:C:/Users/stapi/OneDrive/Desktop/GD32VW553/GD32VW55X_Wifi_BLE_SDK/GD32VW55x_RELEASE_V1.0.2/MSDK/lwip/lwip-2.1.2/src/core/ipv4\ip4_frag.c ****     LWIP_ASSERT("this needs a pbuf in one piece!",
 785:C:/Users/stapi/OneDrive/Desktop/GD32VW553/GD32VW55X_Wifi_BLE_SDK/GD32VW55x_RELEASE_V1.0.2/MSDK/lwip/lwip-2.1.2/src/core/ipv4\ip4_frag.c ****                 (rambuf->len == rambuf->tot_len) && (rambuf->next == NULL));
 786:C:/Users/stapi/OneDrive/Desktop/GD32VW553/GD32VW55X_Wifi_BLE_SDK/GD32VW55x_RELEASE_V1.0.2/MSDK/lwip/lwip-2.1.2/src/core/ipv4\ip4_frag.c ****     poff += pbuf_copy_partial(p, rambuf->payload, fragsize, poff);
 787:C:/Users/stapi/OneDrive/Desktop/GD32VW553/GD32VW55X_Wifi_BLE_SDK/GD32VW55x_RELEASE_V1.0.2/MSDK/lwip/lwip-2.1.2/src/core/ipv4\ip4_frag.c ****     /* make room for the IP header */
 788:C:/Users/stapi/OneDrive/Desktop/GD32VW553/GD32VW55X_Wifi_BLE_SDK/GD32VW55x_RELEASE_V1.0.2/MSDK/lwip/lwip-2.1.2/src/core/ipv4\ip4_frag.c ****     if (pbuf_add_header(rambuf, IP_HLEN)) {
 789:C:/Users/stapi/OneDrive/Desktop/GD32VW553/GD32VW55X_Wifi_BLE_SDK/GD32VW55x_RELEASE_V1.0.2/MSDK/lwip/lwip-2.1.2/src/core/ipv4\ip4_frag.c ****       pbuf_free(rambuf);
 790:C:/Users/stapi/OneDrive/Desktop/GD32VW553/GD32VW55X_Wifi_BLE_SDK/GD32VW55x_RELEASE_V1.0.2/MSDK/lwip/lwip-2.1.2/src/core/ipv4\ip4_frag.c ****       goto memerr;
 791:C:/Users/stapi/OneDrive/Desktop/GD32VW553/GD32VW55X_Wifi_BLE_SDK/GD32VW55x_RELEASE_V1.0.2/MSDK/lwip/lwip-2.1.2/src/core/ipv4\ip4_frag.c ****     }
 792:C:/Users/stapi/OneDrive/Desktop/GD32VW553/GD32VW55X_Wifi_BLE_SDK/GD32VW55x_RELEASE_V1.0.2/MSDK/lwip/lwip-2.1.2/src/core/ipv4\ip4_frag.c ****     /* fill in the IP header */
 793:C:/Users/stapi/OneDrive/Desktop/GD32VW553/GD32VW55X_Wifi_BLE_SDK/GD32VW55x_RELEASE_V1.0.2/MSDK/lwip/lwip-2.1.2/src/core/ipv4\ip4_frag.c ****     SMEMCPY(rambuf->payload, original_iphdr, IP_HLEN);
 794:C:/Users/stapi/OneDrive/Desktop/GD32VW553/GD32VW55X_Wifi_BLE_SDK/GD32VW55x_RELEASE_V1.0.2/MSDK/lwip/lwip-2.1.2/src/core/ipv4\ip4_frag.c ****     iphdr = (struct ip_hdr *)rambuf->payload;
 795:C:/Users/stapi/OneDrive/Desktop/GD32VW553/GD32VW55X_Wifi_BLE_SDK/GD32VW55x_RELEASE_V1.0.2/MSDK/lwip/lwip-2.1.2/src/core/ipv4\ip4_frag.c **** #else /* LWIP_NETIF_TX_SINGLE_PBUF */
 796:C:/Users/stapi/OneDrive/Desktop/GD32VW553/GD32VW55X_Wifi_BLE_SDK/GD32VW55x_RELEASE_V1.0.2/MSDK/lwip/lwip-2.1.2/src/core/ipv4\ip4_frag.c ****     /* When not using a static buffer, create a chain of pbufs.
 797:C:/Users/stapi/OneDrive/Desktop/GD32VW553/GD32VW55X_Wifi_BLE_SDK/GD32VW55x_RELEASE_V1.0.2/MSDK/lwip/lwip-2.1.2/src/core/ipv4\ip4_frag.c ****      * The first will be a PBUF_RAM holding the link and IP header.
 798:C:/Users/stapi/OneDrive/Desktop/GD32VW553/GD32VW55X_Wifi_BLE_SDK/GD32VW55x_RELEASE_V1.0.2/MSDK/lwip/lwip-2.1.2/src/core/ipv4\ip4_frag.c ****      * The rest will be PBUF_REFs mirroring the pbuf chain to be fragged,
 799:C:/Users/stapi/OneDrive/Desktop/GD32VW553/GD32VW55X_Wifi_BLE_SDK/GD32VW55x_RELEASE_V1.0.2/MSDK/lwip/lwip-2.1.2/src/core/ipv4\ip4_frag.c ****      * but limited to the size of an mtu.
 800:C:/Users/stapi/OneDrive/Desktop/GD32VW553/GD32VW55X_Wifi_BLE_SDK/GD32VW55x_RELEASE_V1.0.2/MSDK/lwip/lwip-2.1.2/src/core/ipv4\ip4_frag.c ****      */
 801:C:/Users/stapi/OneDrive/Desktop/GD32VW553/GD32VW55X_Wifi_BLE_SDK/GD32VW55x_RELEASE_V1.0.2/MSDK/lwip/lwip-2.1.2/src/core/ipv4\ip4_frag.c ****     rambuf = pbuf_alloc(PBUF_LINK, IP_HLEN, PBUF_RAM);
 802:C:/Users/stapi/OneDrive/Desktop/GD32VW553/GD32VW55X_Wifi_BLE_SDK/GD32VW55x_RELEASE_V1.0.2/MSDK/lwip/lwip-2.1.2/src/core/ipv4\ip4_frag.c ****     if (rambuf == NULL) {
 803:C:/Users/stapi/OneDrive/Desktop/GD32VW553/GD32VW55X_Wifi_BLE_SDK/GD32VW55x_RELEASE_V1.0.2/MSDK/lwip/lwip-2.1.2/src/core/ipv4\ip4_frag.c ****       goto memerr;
 804:C:/Users/stapi/OneDrive/Desktop/GD32VW553/GD32VW55X_Wifi_BLE_SDK/GD32VW55x_RELEASE_V1.0.2/MSDK/lwip/lwip-2.1.2/src/core/ipv4\ip4_frag.c ****     }
 805:C:/Users/stapi/OneDrive/Desktop/GD32VW553/GD32VW55X_Wifi_BLE_SDK/GD32VW55x_RELEASE_V1.0.2/MSDK/lwip/lwip-2.1.2/src/core/ipv4\ip4_frag.c ****     LWIP_ASSERT("this needs a pbuf in one piece!",
 806:C:/Users/stapi/OneDrive/Desktop/GD32VW553/GD32VW55X_Wifi_BLE_SDK/GD32VW55x_RELEASE_V1.0.2/MSDK/lwip/lwip-2.1.2/src/core/ipv4\ip4_frag.c ****                 (rambuf->len >= (IP_HLEN)));
 807:C:/Users/stapi/OneDrive/Desktop/GD32VW553/GD32VW55X_Wifi_BLE_SDK/GD32VW55x_RELEASE_V1.0.2/MSDK/lwip/lwip-2.1.2/src/core/ipv4\ip4_frag.c ****     SMEMCPY(rambuf->payload, original_iphdr, IP_HLEN);
 808:C:/Users/stapi/OneDrive/Desktop/GD32VW553/GD32VW55X_Wifi_BLE_SDK/GD32VW55x_RELEASE_V1.0.2/MSDK/lwip/lwip-2.1.2/src/core/ipv4\ip4_frag.c ****     iphdr = (struct ip_hdr *)rambuf->payload;
 809:C:/Users/stapi/OneDrive/Desktop/GD32VW553/GD32VW55X_Wifi_BLE_SDK/GD32VW55x_RELEASE_V1.0.2/MSDK/lwip/lwip-2.1.2/src/core/ipv4\ip4_frag.c **** 
 810:C:/Users/stapi/OneDrive/Desktop/GD32VW553/GD32VW55X_Wifi_BLE_SDK/GD32VW55x_RELEASE_V1.0.2/MSDK/lwip/lwip-2.1.2/src/core/ipv4\ip4_frag.c ****     left_to_copy = fragsize;
 811:C:/Users/stapi/OneDrive/Desktop/GD32VW553/GD32VW55X_Wifi_BLE_SDK/GD32VW55x_RELEASE_V1.0.2/MSDK/lwip/lwip-2.1.2/src/core/ipv4\ip4_frag.c ****     while (left_to_copy) {
 812:C:/Users/stapi/OneDrive/Desktop/GD32VW553/GD32VW55X_Wifi_BLE_SDK/GD32VW55x_RELEASE_V1.0.2/MSDK/lwip/lwip-2.1.2/src/core/ipv4\ip4_frag.c ****       struct pbuf_custom_ref *pcr;
 813:C:/Users/stapi/OneDrive/Desktop/GD32VW553/GD32VW55X_Wifi_BLE_SDK/GD32VW55x_RELEASE_V1.0.2/MSDK/lwip/lwip-2.1.2/src/core/ipv4\ip4_frag.c ****       u16_t plen = (u16_t)(p->len - poff);
 814:C:/Users/stapi/OneDrive/Desktop/GD32VW553/GD32VW55X_Wifi_BLE_SDK/GD32VW55x_RELEASE_V1.0.2/MSDK/lwip/lwip-2.1.2/src/core/ipv4\ip4_frag.c ****       LWIP_ASSERT("p->len >= poff", p->len >= poff);
 815:C:/Users/stapi/OneDrive/Desktop/GD32VW553/GD32VW55X_Wifi_BLE_SDK/GD32VW55x_RELEASE_V1.0.2/MSDK/lwip/lwip-2.1.2/src/core/ipv4\ip4_frag.c ****       newpbuflen = LWIP_MIN(left_to_copy, plen);
 816:C:/Users/stapi/OneDrive/Desktop/GD32VW553/GD32VW55X_Wifi_BLE_SDK/GD32VW55x_RELEASE_V1.0.2/MSDK/lwip/lwip-2.1.2/src/core/ipv4\ip4_frag.c ****       /* Is this pbuf already empty? */
 817:C:/Users/stapi/OneDrive/Desktop/GD32VW553/GD32VW55X_Wifi_BLE_SDK/GD32VW55x_RELEASE_V1.0.2/MSDK/lwip/lwip-2.1.2/src/core/ipv4\ip4_frag.c ****       if (!newpbuflen) {
 818:C:/Users/stapi/OneDrive/Desktop/GD32VW553/GD32VW55X_Wifi_BLE_SDK/GD32VW55x_RELEASE_V1.0.2/MSDK/lwip/lwip-2.1.2/src/core/ipv4\ip4_frag.c ****         poff = 0;
 819:C:/Users/stapi/OneDrive/Desktop/GD32VW553/GD32VW55X_Wifi_BLE_SDK/GD32VW55x_RELEASE_V1.0.2/MSDK/lwip/lwip-2.1.2/src/core/ipv4\ip4_frag.c ****         p = p->next;
 820:C:/Users/stapi/OneDrive/Desktop/GD32VW553/GD32VW55X_Wifi_BLE_SDK/GD32VW55x_RELEASE_V1.0.2/MSDK/lwip/lwip-2.1.2/src/core/ipv4\ip4_frag.c ****         continue;
 821:C:/Users/stapi/OneDrive/Desktop/GD32VW553/GD32VW55X_Wifi_BLE_SDK/GD32VW55x_RELEASE_V1.0.2/MSDK/lwip/lwip-2.1.2/src/core/ipv4\ip4_frag.c ****       }
 822:C:/Users/stapi/OneDrive/Desktop/GD32VW553/GD32VW55X_Wifi_BLE_SDK/GD32VW55x_RELEASE_V1.0.2/MSDK/lwip/lwip-2.1.2/src/core/ipv4\ip4_frag.c ****       pcr = ip_frag_alloc_pbuf_custom_ref();
 823:C:/Users/stapi/OneDrive/Desktop/GD32VW553/GD32VW55X_Wifi_BLE_SDK/GD32VW55x_RELEASE_V1.0.2/MSDK/lwip/lwip-2.1.2/src/core/ipv4\ip4_frag.c ****       if (pcr == NULL) {
 824:C:/Users/stapi/OneDrive/Desktop/GD32VW553/GD32VW55X_Wifi_BLE_SDK/GD32VW55x_RELEASE_V1.0.2/MSDK/lwip/lwip-2.1.2/src/core/ipv4\ip4_frag.c ****         pbuf_free(rambuf);
 825:C:/Users/stapi/OneDrive/Desktop/GD32VW553/GD32VW55X_Wifi_BLE_SDK/GD32VW55x_RELEASE_V1.0.2/MSDK/lwip/lwip-2.1.2/src/core/ipv4\ip4_frag.c ****         goto memerr;
 826:C:/Users/stapi/OneDrive/Desktop/GD32VW553/GD32VW55X_Wifi_BLE_SDK/GD32VW55x_RELEASE_V1.0.2/MSDK/lwip/lwip-2.1.2/src/core/ipv4\ip4_frag.c ****       }
 827:C:/Users/stapi/OneDrive/Desktop/GD32VW553/GD32VW55X_Wifi_BLE_SDK/GD32VW55x_RELEASE_V1.0.2/MSDK/lwip/lwip-2.1.2/src/core/ipv4\ip4_frag.c ****       /* Mirror this pbuf, although we might not need all of it. */
 828:C:/Users/stapi/OneDrive/Desktop/GD32VW553/GD32VW55X_Wifi_BLE_SDK/GD32VW55x_RELEASE_V1.0.2/MSDK/lwip/lwip-2.1.2/src/core/ipv4\ip4_frag.c ****       newpbuf = pbuf_alloced_custom(PBUF_RAW, newpbuflen, PBUF_REF, &pcr->pc,
 829:C:/Users/stapi/OneDrive/Desktop/GD32VW553/GD32VW55X_Wifi_BLE_SDK/GD32VW55x_RELEASE_V1.0.2/MSDK/lwip/lwip-2.1.2/src/core/ipv4\ip4_frag.c ****                                     (u8_t *)p->payload + poff, newpbuflen);
 830:C:/Users/stapi/OneDrive/Desktop/GD32VW553/GD32VW55X_Wifi_BLE_SDK/GD32VW55x_RELEASE_V1.0.2/MSDK/lwip/lwip-2.1.2/src/core/ipv4\ip4_frag.c ****       if (newpbuf == NULL) {
 831:C:/Users/stapi/OneDrive/Desktop/GD32VW553/GD32VW55X_Wifi_BLE_SDK/GD32VW55x_RELEASE_V1.0.2/MSDK/lwip/lwip-2.1.2/src/core/ipv4\ip4_frag.c ****         ip_frag_free_pbuf_custom_ref(pcr);
 832:C:/Users/stapi/OneDrive/Desktop/GD32VW553/GD32VW55X_Wifi_BLE_SDK/GD32VW55x_RELEASE_V1.0.2/MSDK/lwip/lwip-2.1.2/src/core/ipv4\ip4_frag.c ****         pbuf_free(rambuf);
 833:C:/Users/stapi/OneDrive/Desktop/GD32VW553/GD32VW55X_Wifi_BLE_SDK/GD32VW55x_RELEASE_V1.0.2/MSDK/lwip/lwip-2.1.2/src/core/ipv4\ip4_frag.c ****         goto memerr;
 834:C:/Users/stapi/OneDrive/Desktop/GD32VW553/GD32VW55X_Wifi_BLE_SDK/GD32VW55x_RELEASE_V1.0.2/MSDK/lwip/lwip-2.1.2/src/core/ipv4\ip4_frag.c ****       }
 835:C:/Users/stapi/OneDrive/Desktop/GD32VW553/GD32VW55X_Wifi_BLE_SDK/GD32VW55x_RELEASE_V1.0.2/MSDK/lwip/lwip-2.1.2/src/core/ipv4\ip4_frag.c ****       pbuf_ref(p);
 836:C:/Users/stapi/OneDrive/Desktop/GD32VW553/GD32VW55X_Wifi_BLE_SDK/GD32VW55x_RELEASE_V1.0.2/MSDK/lwip/lwip-2.1.2/src/core/ipv4\ip4_frag.c ****       pcr->original = p;
 837:C:/Users/stapi/OneDrive/Desktop/GD32VW553/GD32VW55X_Wifi_BLE_SDK/GD32VW55x_RELEASE_V1.0.2/MSDK/lwip/lwip-2.1.2/src/core/ipv4\ip4_frag.c ****       pcr->pc.custom_free_function = ipfrag_free_pbuf_custom;
 1910              		.loc 1 837 36 discriminator 2
 1911 0098 B7070000 		lui	a5,%hi(ipfrag_free_pbuf_custom)
 1912 009c 93870700 		addi	a5,a5,%lo(ipfrag_free_pbuf_custom)
 1913              	.LBE44:
 773:C:/Users/stapi/OneDrive/Desktop/GD32VW553/GD32VW55X_Wifi_BLE_SDK/GD32VW55x_RELEASE_V1.0.2/MSDK/lwip/lwip-2.1.2/src/core/ipv4\ip4_frag.c **** 
 1914              		.loc 1 773 8 discriminator 2
 1915 00a0 B119     		addi	s3,s3,-20
 1916              	.LBB47:
 1917              		.loc 1 837 36 discriminator 2
 1918 00a2 3ECA     		sw	a5,20(sp)
 1919              	.LBE47:
 769:C:/Users/stapi/OneDrive/Desktop/GD32VW553/GD32VW55X_Wifi_BLE_SDK/GD32VW55x_RELEASE_V1.0.2/MSDK/lwip/lwip-2.1.2/src/core/ipv4\ip4_frag.c ****   /* already fragmented? if so, the last fragment we create must have MF, too */
 1920              		.loc 1 769 7 discriminator 2
 1921 00a4 B3CB0B08 		zext.h	s7,s7
 1922              	.LVL200:
 771:C:/Users/stapi/OneDrive/Desktop/GD32VW553/GD32VW55X_Wifi_BLE_SDK/GD32VW55x_RELEASE_V1.0.2/MSDK/lwip/lwip-2.1.2/src/core/ipv4\ip4_frag.c **** 
 1923              		.loc 1 771 3 is_stmt 1 discriminator 2
 773:C:/Users/stapi/OneDrive/Desktop/GD32VW553/GD32VW55X_Wifi_BLE_SDK/GD32VW55x_RELEASE_V1.0.2/MSDK/lwip/lwip-2.1.2/src/core/ipv4\ip4_frag.c **** 
 1924              		.loc 1 773 3 discriminator 2
 773:C:/Users/stapi/OneDrive/Desktop/GD32VW553/GD32VW55X_Wifi_BLE_SDK/GD32VW55x_RELEASE_V1.0.2/MSDK/lwip/lwip-2.1.2/src/core/ipv4\ip4_frag.c **** 
 1925              		.loc 1 773 8 is_stmt 0 discriminator 2
 1926 00a8 B3C90908 		zext.h	s3,s3
 1927              	.LVL201:
 775:C:/Users/stapi/OneDrive/Desktop/GD32VW553/GD32VW55X_Wifi_BLE_SDK/GD32VW55x_RELEASE_V1.0.2/MSDK/lwip/lwip-2.1.2/src/core/ipv4\ip4_frag.c ****     /* Fill this fragment */
 1928              		.loc 1 775 3 is_stmt 1 discriminator 2
 1929              	.L159:
 775:C:/Users/stapi/OneDrive/Desktop/GD32VW553/GD32VW55X_Wifi_BLE_SDK/GD32VW55x_RELEASE_V1.0.2/MSDK/lwip/lwip-2.1.2/src/core/ipv4\ip4_frag.c ****     /* Fill this fragment */
 1930              		.loc 1 775 9
 1931 00ac 63980900 		bne	s3,zero,.L173
 838:C:/Users/stapi/OneDrive/Desktop/GD32VW553/GD32VW55X_Wifi_BLE_SDK/GD32VW55x_RELEASE_V1.0.2/MSDK/lwip/lwip-2.1.2/src/core/ipv4\ip4_frag.c **** 
 839:C:/Users/stapi/OneDrive/Desktop/GD32VW553/GD32VW55X_Wifi_BLE_SDK/GD32VW55x_RELEASE_V1.0.2/MSDK/lwip/lwip-2.1.2/src/core/ipv4\ip4_frag.c ****       /* Add it to end of rambuf's chain, but using pbuf_cat, not pbuf_chain
 840:C:/Users/stapi/OneDrive/Desktop/GD32VW553/GD32VW55X_Wifi_BLE_SDK/GD32VW55x_RELEASE_V1.0.2/MSDK/lwip/lwip-2.1.2/src/core/ipv4\ip4_frag.c ****        * so that it is removed when pbuf_dechain is later called on rambuf.
 841:C:/Users/stapi/OneDrive/Desktop/GD32VW553/GD32VW55X_Wifi_BLE_SDK/GD32VW55x_RELEASE_V1.0.2/MSDK/lwip/lwip-2.1.2/src/core/ipv4\ip4_frag.c ****        */
 842:C:/Users/stapi/OneDrive/Desktop/GD32VW553/GD32VW55X_Wifi_BLE_SDK/GD32VW55x_RELEASE_V1.0.2/MSDK/lwip/lwip-2.1.2/src/core/ipv4\ip4_frag.c ****       pbuf_cat(rambuf, newpbuf);
 843:C:/Users/stapi/OneDrive/Desktop/GD32VW553/GD32VW55X_Wifi_BLE_SDK/GD32VW55x_RELEASE_V1.0.2/MSDK/lwip/lwip-2.1.2/src/core/ipv4\ip4_frag.c ****       left_to_copy = (u16_t)(left_to_copy - newpbuflen);
 844:C:/Users/stapi/OneDrive/Desktop/GD32VW553/GD32VW55X_Wifi_BLE_SDK/GD32VW55x_RELEASE_V1.0.2/MSDK/lwip/lwip-2.1.2/src/core/ipv4\ip4_frag.c ****       if (left_to_copy) {
 845:C:/Users/stapi/OneDrive/Desktop/GD32VW553/GD32VW55X_Wifi_BLE_SDK/GD32VW55x_RELEASE_V1.0.2/MSDK/lwip/lwip-2.1.2/src/core/ipv4\ip4_frag.c ****         poff = 0;
 846:C:/Users/stapi/OneDrive/Desktop/GD32VW553/GD32VW55X_Wifi_BLE_SDK/GD32VW55x_RELEASE_V1.0.2/MSDK/lwip/lwip-2.1.2/src/core/ipv4\ip4_frag.c ****         p = p->next;
 847:C:/Users/stapi/OneDrive/Desktop/GD32VW553/GD32VW55X_Wifi_BLE_SDK/GD32VW55x_RELEASE_V1.0.2/MSDK/lwip/lwip-2.1.2/src/core/ipv4\ip4_frag.c ****       }
 848:C:/Users/stapi/OneDrive/Desktop/GD32VW553/GD32VW55X_Wifi_BLE_SDK/GD32VW55x_RELEASE_V1.0.2/MSDK/lwip/lwip-2.1.2/src/core/ipv4\ip4_frag.c ****     }
 849:C:/Users/stapi/OneDrive/Desktop/GD32VW553/GD32VW55X_Wifi_BLE_SDK/GD32VW55x_RELEASE_V1.0.2/MSDK/lwip/lwip-2.1.2/src/core/ipv4\ip4_frag.c ****     poff = (u16_t)(poff + newpbuflen);
 850:C:/Users/stapi/OneDrive/Desktop/GD32VW553/GD32VW55X_Wifi_BLE_SDK/GD32VW55x_RELEASE_V1.0.2/MSDK/lwip/lwip-2.1.2/src/core/ipv4\ip4_frag.c **** #endif /* LWIP_NETIF_TX_SINGLE_PBUF */
 851:C:/Users/stapi/OneDrive/Desktop/GD32VW553/GD32VW55X_Wifi_BLE_SDK/GD32VW55x_RELEASE_V1.0.2/MSDK/lwip/lwip-2.1.2/src/core/ipv4\ip4_frag.c **** 
 852:C:/Users/stapi/OneDrive/Desktop/GD32VW553/GD32VW55X_Wifi_BLE_SDK/GD32VW55x_RELEASE_V1.0.2/MSDK/lwip/lwip-2.1.2/src/core/ipv4\ip4_frag.c ****     /* Correct header */
 853:C:/Users/stapi/OneDrive/Desktop/GD32VW553/GD32VW55X_Wifi_BLE_SDK/GD32VW55x_RELEASE_V1.0.2/MSDK/lwip/lwip-2.1.2/src/core/ipv4\ip4_frag.c ****     last = (left <= netif->mtu - IP_HLEN);
 854:C:/Users/stapi/OneDrive/Desktop/GD32VW553/GD32VW55X_Wifi_BLE_SDK/GD32VW55x_RELEASE_V1.0.2/MSDK/lwip/lwip-2.1.2/src/core/ipv4\ip4_frag.c **** 
 855:C:/Users/stapi/OneDrive/Desktop/GD32VW553/GD32VW55X_Wifi_BLE_SDK/GD32VW55x_RELEASE_V1.0.2/MSDK/lwip/lwip-2.1.2/src/core/ipv4\ip4_frag.c ****     /* Set new offset and MF flag */
 856:C:/Users/stapi/OneDrive/Desktop/GD32VW553/GD32VW55X_Wifi_BLE_SDK/GD32VW55x_RELEASE_V1.0.2/MSDK/lwip/lwip-2.1.2/src/core/ipv4\ip4_frag.c ****     tmp = (IP_OFFMASK & (ofo));
 857:C:/Users/stapi/OneDrive/Desktop/GD32VW553/GD32VW55X_Wifi_BLE_SDK/GD32VW55x_RELEASE_V1.0.2/MSDK/lwip/lwip-2.1.2/src/core/ipv4\ip4_frag.c ****     if (!last || mf_set) {
 858:C:/Users/stapi/OneDrive/Desktop/GD32VW553/GD32VW55X_Wifi_BLE_SDK/GD32VW55x_RELEASE_V1.0.2/MSDK/lwip/lwip-2.1.2/src/core/ipv4\ip4_frag.c ****       /* the last fragment has MF set if the input frame had it */
 859:C:/Users/stapi/OneDrive/Desktop/GD32VW553/GD32VW55X_Wifi_BLE_SDK/GD32VW55x_RELEASE_V1.0.2/MSDK/lwip/lwip-2.1.2/src/core/ipv4\ip4_frag.c ****       tmp = tmp | IP_MF;
 860:C:/Users/stapi/OneDrive/Desktop/GD32VW553/GD32VW55X_Wifi_BLE_SDK/GD32VW55x_RELEASE_V1.0.2/MSDK/lwip/lwip-2.1.2/src/core/ipv4\ip4_frag.c ****     }
 861:C:/Users/stapi/OneDrive/Desktop/GD32VW553/GD32VW55X_Wifi_BLE_SDK/GD32VW55x_RELEASE_V1.0.2/MSDK/lwip/lwip-2.1.2/src/core/ipv4\ip4_frag.c ****     IPH_OFFSET_SET(iphdr, lwip_htons(tmp));
 862:C:/Users/stapi/OneDrive/Desktop/GD32VW553/GD32VW55X_Wifi_BLE_SDK/GD32VW55x_RELEASE_V1.0.2/MSDK/lwip/lwip-2.1.2/src/core/ipv4\ip4_frag.c ****     IPH_LEN_SET(iphdr, lwip_htons((u16_t)(fragsize + IP_HLEN)));
 863:C:/Users/stapi/OneDrive/Desktop/GD32VW553/GD32VW55X_Wifi_BLE_SDK/GD32VW55x_RELEASE_V1.0.2/MSDK/lwip/lwip-2.1.2/src/core/ipv4\ip4_frag.c ****     IPH_CHKSUM_SET(iphdr, 0);
 864:C:/Users/stapi/OneDrive/Desktop/GD32VW553/GD32VW55X_Wifi_BLE_SDK/GD32VW55x_RELEASE_V1.0.2/MSDK/lwip/lwip-2.1.2/src/core/ipv4\ip4_frag.c **** #if CHECKSUM_GEN_IP
 865:C:/Users/stapi/OneDrive/Desktop/GD32VW553/GD32VW55X_Wifi_BLE_SDK/GD32VW55x_RELEASE_V1.0.2/MSDK/lwip/lwip-2.1.2/src/core/ipv4\ip4_frag.c ****     IF__NETIF_CHECKSUM_ENABLED(netif, NETIF_CHECKSUM_GEN_IP) {
 866:C:/Users/stapi/OneDrive/Desktop/GD32VW553/GD32VW55X_Wifi_BLE_SDK/GD32VW55x_RELEASE_V1.0.2/MSDK/lwip/lwip-2.1.2/src/core/ipv4\ip4_frag.c ****       IPH_CHKSUM_SET(iphdr, inet_chksum(iphdr, IP_HLEN));
 867:C:/Users/stapi/OneDrive/Desktop/GD32VW553/GD32VW55X_Wifi_BLE_SDK/GD32VW55x_RELEASE_V1.0.2/MSDK/lwip/lwip-2.1.2/src/core/ipv4\ip4_frag.c ****     }
 868:C:/Users/stapi/OneDrive/Desktop/GD32VW553/GD32VW55X_Wifi_BLE_SDK/GD32VW55x_RELEASE_V1.0.2/MSDK/lwip/lwip-2.1.2/src/core/ipv4\ip4_frag.c **** #endif /* CHECKSUM_GEN_IP */
 869:C:/Users/stapi/OneDrive/Desktop/GD32VW553/GD32VW55X_Wifi_BLE_SDK/GD32VW55x_RELEASE_V1.0.2/MSDK/lwip/lwip-2.1.2/src/core/ipv4\ip4_frag.c **** 
 870:C:/Users/stapi/OneDrive/Desktop/GD32VW553/GD32VW55X_Wifi_BLE_SDK/GD32VW55x_RELEASE_V1.0.2/MSDK/lwip/lwip-2.1.2/src/core/ipv4\ip4_frag.c ****     /* No need for separate header pbuf - we allowed room for it in rambuf
 871:C:/Users/stapi/OneDrive/Desktop/GD32VW553/GD32VW55X_Wifi_BLE_SDK/GD32VW55x_RELEASE_V1.0.2/MSDK/lwip/lwip-2.1.2/src/core/ipv4\ip4_frag.c ****      * when allocated.
 872:C:/Users/stapi/OneDrive/Desktop/GD32VW553/GD32VW55X_Wifi_BLE_SDK/GD32VW55x_RELEASE_V1.0.2/MSDK/lwip/lwip-2.1.2/src/core/ipv4\ip4_frag.c ****      */
 873:C:/Users/stapi/OneDrive/Desktop/GD32VW553/GD32VW55X_Wifi_BLE_SDK/GD32VW55x_RELEASE_V1.0.2/MSDK/lwip/lwip-2.1.2/src/core/ipv4\ip4_frag.c **** /* FT TAG */
 874:C:/Users/stapi/OneDrive/Desktop/GD32VW553/GD32VW55X_Wifi_BLE_SDK/GD32VW55x_RELEASE_V1.0.2/MSDK/lwip/lwip-2.1.2/src/core/ipv4\ip4_frag.c ****     {
 875:C:/Users/stapi/OneDrive/Desktop/GD32VW553/GD32VW55X_Wifi_BLE_SDK/GD32VW55x_RELEASE_V1.0.2/MSDK/lwip/lwip-2.1.2/src/core/ipv4\ip4_frag.c ****         int ret = netif->output(netif, rambuf, dest);
 876:C:/Users/stapi/OneDrive/Desktop/GD32VW553/GD32VW55X_Wifi_BLE_SDK/GD32VW55x_RELEASE_V1.0.2/MSDK/lwip/lwip-2.1.2/src/core/ipv4\ip4_frag.c ****         if (ret != ERR_OK) {
 877:C:/Users/stapi/OneDrive/Desktop/GD32VW553/GD32VW55X_Wifi_BLE_SDK/GD32VW55x_RELEASE_V1.0.2/MSDK/lwip/lwip-2.1.2/src/core/ipv4\ip4_frag.c ****             pbuf_free(rambuf);
 878:C:/Users/stapi/OneDrive/Desktop/GD32VW553/GD32VW55X_Wifi_BLE_SDK/GD32VW55x_RELEASE_V1.0.2/MSDK/lwip/lwip-2.1.2/src/core/ipv4\ip4_frag.c ****             goto memerr;
 879:C:/Users/stapi/OneDrive/Desktop/GD32VW553/GD32VW55X_Wifi_BLE_SDK/GD32VW55x_RELEASE_V1.0.2/MSDK/lwip/lwip-2.1.2/src/core/ipv4\ip4_frag.c ****         }
 880:C:/Users/stapi/OneDrive/Desktop/GD32VW553/GD32VW55X_Wifi_BLE_SDK/GD32VW55x_RELEASE_V1.0.2/MSDK/lwip/lwip-2.1.2/src/core/ipv4\ip4_frag.c ****     }
 881:C:/Users/stapi/OneDrive/Desktop/GD32VW553/GD32VW55X_Wifi_BLE_SDK/GD32VW55x_RELEASE_V1.0.2/MSDK/lwip/lwip-2.1.2/src/core/ipv4\ip4_frag.c ****     // netif->output(netif, rambuf, dest);
 882:C:/Users/stapi/OneDrive/Desktop/GD32VW553/GD32VW55X_Wifi_BLE_SDK/GD32VW55x_RELEASE_V1.0.2/MSDK/lwip/lwip-2.1.2/src/core/ipv4\ip4_frag.c **** /* FT TAG */
 883:C:/Users/stapi/OneDrive/Desktop/GD32VW553/GD32VW55X_Wifi_BLE_SDK/GD32VW55x_RELEASE_V1.0.2/MSDK/lwip/lwip-2.1.2/src/core/ipv4\ip4_frag.c ****     IPFRAG_STATS_INC(ip_frag.xmit);
 884:C:/Users/stapi/OneDrive/Desktop/GD32VW553/GD32VW55X_Wifi_BLE_SDK/GD32VW55x_RELEASE_V1.0.2/MSDK/lwip/lwip-2.1.2/src/core/ipv4\ip4_frag.c **** 
 885:C:/Users/stapi/OneDrive/Desktop/GD32VW553/GD32VW55X_Wifi_BLE_SDK/GD32VW55x_RELEASE_V1.0.2/MSDK/lwip/lwip-2.1.2/src/core/ipv4\ip4_frag.c ****     /* Unfortunately we can't reuse rambuf - the hardware may still be
 886:C:/Users/stapi/OneDrive/Desktop/GD32VW553/GD32VW55X_Wifi_BLE_SDK/GD32VW55x_RELEASE_V1.0.2/MSDK/lwip/lwip-2.1.2/src/core/ipv4\ip4_frag.c ****      * using the buffer. Instead we free it (and the ensuing chain) and
 887:C:/Users/stapi/OneDrive/Desktop/GD32VW553/GD32VW55X_Wifi_BLE_SDK/GD32VW55x_RELEASE_V1.0.2/MSDK/lwip/lwip-2.1.2/src/core/ipv4\ip4_frag.c ****      * recreate it next time round the loop. If we're lucky the hardware
 888:C:/Users/stapi/OneDrive/Desktop/GD32VW553/GD32VW55X_Wifi_BLE_SDK/GD32VW55x_RELEASE_V1.0.2/MSDK/lwip/lwip-2.1.2/src/core/ipv4\ip4_frag.c ****      * will have already sent the packet, the free will really free, and
 889:C:/Users/stapi/OneDrive/Desktop/GD32VW553/GD32VW55X_Wifi_BLE_SDK/GD32VW55x_RELEASE_V1.0.2/MSDK/lwip/lwip-2.1.2/src/core/ipv4\ip4_frag.c ****      * there will be zero memory penalty.
 890:C:/Users/stapi/OneDrive/Desktop/GD32VW553/GD32VW55X_Wifi_BLE_SDK/GD32VW55x_RELEASE_V1.0.2/MSDK/lwip/lwip-2.1.2/src/core/ipv4\ip4_frag.c ****      */
 891:C:/Users/stapi/OneDrive/Desktop/GD32VW553/GD32VW55X_Wifi_BLE_SDK/GD32VW55x_RELEASE_V1.0.2/MSDK/lwip/lwip-2.1.2/src/core/ipv4\ip4_frag.c **** 
 892:C:/Users/stapi/OneDrive/Desktop/GD32VW553/GD32VW55X_Wifi_BLE_SDK/GD32VW55x_RELEASE_V1.0.2/MSDK/lwip/lwip-2.1.2/src/core/ipv4\ip4_frag.c ****     pbuf_free(rambuf);
 893:C:/Users/stapi/OneDrive/Desktop/GD32VW553/GD32VW55X_Wifi_BLE_SDK/GD32VW55x_RELEASE_V1.0.2/MSDK/lwip/lwip-2.1.2/src/core/ipv4\ip4_frag.c ****     left = (u16_t)(left - fragsize);
 894:C:/Users/stapi/OneDrive/Desktop/GD32VW553/GD32VW55X_Wifi_BLE_SDK/GD32VW55x_RELEASE_V1.0.2/MSDK/lwip/lwip-2.1.2/src/core/ipv4\ip4_frag.c ****     ofo = (u16_t)(ofo + nfb);
 895:C:/Users/stapi/OneDrive/Desktop/GD32VW553/GD32VW55X_Wifi_BLE_SDK/GD32VW55x_RELEASE_V1.0.2/MSDK/lwip/lwip-2.1.2/src/core/ipv4\ip4_frag.c ****   }
 896:C:/Users/stapi/OneDrive/Desktop/GD32VW553/GD32VW55X_Wifi_BLE_SDK/GD32VW55x_RELEASE_V1.0.2/MSDK/lwip/lwip-2.1.2/src/core/ipv4\ip4_frag.c ****   MIB2_STATS_INC(mib2.ipfragoks);
 897:C:/Users/stapi/OneDrive/Desktop/GD32VW553/GD32VW55X_Wifi_BLE_SDK/GD32VW55x_RELEASE_V1.0.2/MSDK/lwip/lwip-2.1.2/src/core/ipv4\ip4_frag.c ****   return ERR_OK;
 1932              		.loc 1 897 10 is_stmt 0
 1933 00b0 0145     		li	a0,0
 1934              	.LVL202:
 1935              	.L156:
 898:C:/Users/stapi/OneDrive/Desktop/GD32VW553/GD32VW55X_Wifi_BLE_SDK/GD32VW55x_RELEASE_V1.0.2/MSDK/lwip/lwip-2.1.2/src/core/ipv4\ip4_frag.c **** memerr:
 899:C:/Users/stapi/OneDrive/Desktop/GD32VW553/GD32VW55X_Wifi_BLE_SDK/GD32VW55x_RELEASE_V1.0.2/MSDK/lwip/lwip-2.1.2/src/core/ipv4\ip4_frag.c ****   MIB2_STATS_INC(mib2.ipfragfails);
 900:C:/Users/stapi/OneDrive/Desktop/GD32VW553/GD32VW55X_Wifi_BLE_SDK/GD32VW55x_RELEASE_V1.0.2/MSDK/lwip/lwip-2.1.2/src/core/ipv4\ip4_frag.c ****   return ERR_MEM;
 901:C:/Users/stapi/OneDrive/Desktop/GD32VW553/GD32VW55X_Wifi_BLE_SDK/GD32VW55x_RELEASE_V1.0.2/MSDK/lwip/lwip-2.1.2/src/core/ipv4\ip4_frag.c **** }
 1936              		.loc 1 901 1
 1937 00b2 0561     		addi	sp,sp,32
 1938              		.cfi_remember_state
 1939              		.cfi_def_cfa_offset 0
 1940              	.LVL203:
 1941 00b4 17030000 		tail	__riscv_restore_12
 1941      67000300 
 1942              		.cfi_restore 27
 1943              		.cfi_restore 26
 1944              		.cfi_restore 25
 1945              		.cfi_restore 24
 1946              		.cfi_restore 23
 1947              		.cfi_restore 22
 1948              		.cfi_restore 21
 1949              		.cfi_restore 20
 1950              		.cfi_restore 19
 1951              		.cfi_restore 18
 1952              		.cfi_restore 9
 1953              		.cfi_restore 8
 1954              		.cfi_restore 1
 1955              		.cfi_def_cfa_offset -64
 1956              	.LVL204:
 1957              	.L173:
 1958              		.cfi_restore_state
 777:C:/Users/stapi/OneDrive/Desktop/GD32VW553/GD32VW55X_Wifi_BLE_SDK/GD32VW55x_RELEASE_V1.0.2/MSDK/lwip/lwip-2.1.2/src/core/ipv4\ip4_frag.c **** 
 1959              		.loc 1 777 5 is_stmt 1
 777:C:/Users/stapi/OneDrive/Desktop/GD32VW553/GD32VW55X_Wifi_BLE_SDK/GD32VW55x_RELEASE_V1.0.2/MSDK/lwip/lwip-2.1.2/src/core/ipv4\ip4_frag.c **** 
 1960              		.loc 1 777 14 is_stmt 0
 1961 00bc A247     		lw	a5,8(sp)
 801:C:/Users/stapi/OneDrive/Desktop/GD32VW553/GD32VW55X_Wifi_BLE_SDK/GD32VW55x_RELEASE_V1.0.2/MSDK/lwip/lwip-2.1.2/src/core/ipv4\ip4_frag.c ****     if (rambuf == NULL) {
 1962              		.loc 1 801 14
 1963 00be 13060028 		li	a2,640
 1964 00c2 D145     		li	a1,20
 1965 00c4 1305A016 		li	a0,362
 777:C:/Users/stapi/OneDrive/Desktop/GD32VW553/GD32VW55X_Wifi_BLE_SDK/GD32VW55x_RELEASE_V1.0.2/MSDK/lwip/lwip-2.1.2/src/core/ipv4\ip4_frag.c **** 
 1966              		.loc 1 777 14
 1967 00c8 B3DC370B 		minu	s9,a5,s3
 1968              	.LVL205:
 801:C:/Users/stapi/OneDrive/Desktop/GD32VW553/GD32VW55X_Wifi_BLE_SDK/GD32VW55x_RELEASE_V1.0.2/MSDK/lwip/lwip-2.1.2/src/core/ipv4\ip4_frag.c ****     if (rambuf == NULL) {
 1969              		.loc 1 801 5 is_stmt 1
 801:C:/Users/stapi/OneDrive/Desktop/GD32VW553/GD32VW55X_Wifi_BLE_SDK/GD32VW55x_RELEASE_V1.0.2/MSDK/lwip/lwip-2.1.2/src/core/ipv4\ip4_frag.c ****     if (rambuf == NULL) {
 1970              		.loc 1 801 14 is_stmt 0
 1971 00cc 97000000 		call	pbuf_alloc
 1971      E7800000 
 1972              	.LVL206:
 1973 00d4 AA84     		mv	s1,a0
 1974              	.LVL207:
 802:C:/Users/stapi/OneDrive/Desktop/GD32VW553/GD32VW55X_Wifi_BLE_SDK/GD32VW55x_RELEASE_V1.0.2/MSDK/lwip/lwip-2.1.2/src/core/ipv4\ip4_frag.c ****       goto memerr;
 1975              		.loc 1 802 5 is_stmt 1
 802:C:/Users/stapi/OneDrive/Desktop/GD32VW553/GD32VW55X_Wifi_BLE_SDK/GD32VW55x_RELEASE_V1.0.2/MSDK/lwip/lwip-2.1.2/src/core/ipv4\ip4_frag.c ****       goto memerr;
 1976              		.loc 1 802 8 is_stmt 0
 1977 00d6 5DC1     		beq	a0,zero,.L175
 805:C:/Users/stapi/OneDrive/Desktop/GD32VW553/GD32VW55X_Wifi_BLE_SDK/GD32VW55x_RELEASE_V1.0.2/MSDK/lwip/lwip-2.1.2/src/core/ipv4\ip4_frag.c ****                 (rambuf->len >= (IP_HLEN)));
 1978              		.loc 1 805 5 is_stmt 1
 805:C:/Users/stapi/OneDrive/Desktop/GD32VW553/GD32VW55X_Wifi_BLE_SDK/GD32VW55x_RELEASE_V1.0.2/MSDK/lwip/lwip-2.1.2/src/core/ipv4\ip4_frag.c ****                 (rambuf->len >= (IP_HLEN)));
 1979              		.loc 1 805 5
 1980 00d8 8357A500 		lhu	a5,10(a0)
 1981 00dc 4D47     		li	a4,19
 1982 00de 6365F702 		bgtu	a5,a4,.L160
 805:C:/Users/stapi/OneDrive/Desktop/GD32VW553/GD32VW55X_Wifi_BLE_SDK/GD32VW55x_RELEASE_V1.0.2/MSDK/lwip/lwip-2.1.2/src/core/ipv4\ip4_frag.c ****                 (rambuf->len >= (IP_HLEN)));
 1983              		.loc 1 805 5 discriminator 1
 805:C:/Users/stapi/OneDrive/Desktop/GD32VW553/GD32VW55X_Wifi_BLE_SDK/GD32VW55x_RELEASE_V1.0.2/MSDK/lwip/lwip-2.1.2/src/core/ipv4\ip4_frag.c ****                 (rambuf->len >= (IP_HLEN)));
 1984              		.loc 1 805 5 discriminator 1
 1985 00e2 B7060000 		lui	a3,%hi(.LC0)
 1986 00e6 B7050000 		lui	a1,%hi(.LC16)
 1987 00ea 37050000 		lui	a0,%hi(.LC2)
 1988 00ee 93860600 		addi	a3,a3,%lo(.LC0)
 1989 00f2 13065032 		li	a2,805
 1990 00f6 93850500 		addi	a1,a1,%lo(.LC16)
 1991 00fa 13050500 		addi	a0,a0,%lo(.LC2)
 1992 00fe 97000000 		call	printf
 1992      E7800000 
 1993              	.LVL208:
 1994              	.L161:
 805:C:/Users/stapi/OneDrive/Desktop/GD32VW553/GD32VW55X_Wifi_BLE_SDK/GD32VW55x_RELEASE_V1.0.2/MSDK/lwip/lwip-2.1.2/src/core/ipv4\ip4_frag.c ****                 (rambuf->len >= (IP_HLEN)));
 1995              		.loc 1 805 5 discriminator 2
 805:C:/Users/stapi/OneDrive/Desktop/GD32VW553/GD32VW55X_Wifi_BLE_SDK/GD32VW55x_RELEASE_V1.0.2/MSDK/lwip/lwip-2.1.2/src/core/ipv4\ip4_frag.c ****                 (rambuf->len >= (IP_HLEN)));
 1996              		.loc 1 805 5 discriminator 2
 805:C:/Users/stapi/OneDrive/Desktop/GD32VW553/GD32VW55X_Wifi_BLE_SDK/GD32VW55x_RELEASE_V1.0.2/MSDK/lwip/lwip-2.1.2/src/core/ipv4\ip4_frag.c ****                 (rambuf->len >= (IP_HLEN)));
 1997              		.loc 1 805 5 discriminator 2
 1998 0106 01A0     		j	.L161
 1999              	.L160:
 805:C:/Users/stapi/OneDrive/Desktop/GD32VW553/GD32VW55X_Wifi_BLE_SDK/GD32VW55x_RELEASE_V1.0.2/MSDK/lwip/lwip-2.1.2/src/core/ipv4\ip4_frag.c ****                 (rambuf->len >= (IP_HLEN)));
 2000              		.loc 1 805 5 discriminator 2
 805:C:/Users/stapi/OneDrive/Desktop/GD32VW553/GD32VW55X_Wifi_BLE_SDK/GD32VW55x_RELEASE_V1.0.2/MSDK/lwip/lwip-2.1.2/src/core/ipv4\ip4_frag.c ****                 (rambuf->len >= (IP_HLEN)));
 2001              		.loc 1 805 5 discriminator 2
 807:C:/Users/stapi/OneDrive/Desktop/GD32VW553/GD32VW55X_Wifi_BLE_SDK/GD32VW55x_RELEASE_V1.0.2/MSDK/lwip/lwip-2.1.2/src/core/ipv4\ip4_frag.c ****     iphdr = (struct ip_hdr *)rambuf->payload;
 2002              		.loc 1 807 5 discriminator 2
 2003 0108 4841     		lw	a0,4(a0)
 2004 010a 5146     		li	a2,20
 2005 010c EA85     		mv	a1,s10
 2006 010e 97000000 		call	memcpy
 2006      E7800000 
 2007              	.LVL209:
 808:C:/Users/stapi/OneDrive/Desktop/GD32VW553/GD32VW55X_Wifi_BLE_SDK/GD32VW55x_RELEASE_V1.0.2/MSDK/lwip/lwip-2.1.2/src/core/ipv4\ip4_frag.c **** 
 2008              		.loc 1 808 5 discriminator 2
 808:C:/Users/stapi/OneDrive/Desktop/GD32VW553/GD32VW55X_Wifi_BLE_SDK/GD32VW55x_RELEASE_V1.0.2/MSDK/lwip/lwip-2.1.2/src/core/ipv4\ip4_frag.c **** 
 2009              		.loc 1 808 11 is_stmt 0 discriminator 2
 2010 0116 83AA4400 		lw	s5,4(s1)
 2011              	.LVL210:
 810:C:/Users/stapi/OneDrive/Desktop/GD32VW553/GD32VW55X_Wifi_BLE_SDK/GD32VW55x_RELEASE_V1.0.2/MSDK/lwip/lwip-2.1.2/src/core/ipv4\ip4_frag.c ****     while (left_to_copy) {
 2012              		.loc 1 810 5 is_stmt 1 discriminator 2
 811:C:/Users/stapi/OneDrive/Desktop/GD32VW553/GD32VW55X_Wifi_BLE_SDK/GD32VW55x_RELEASE_V1.0.2/MSDK/lwip/lwip-2.1.2/src/core/ipv4\ip4_frag.c ****       struct pbuf_custom_ref *pcr;
 2013              		.loc 1 811 5 discriminator 2
 810:C:/Users/stapi/OneDrive/Desktop/GD32VW553/GD32VW55X_Wifi_BLE_SDK/GD32VW55x_RELEASE_V1.0.2/MSDK/lwip/lwip-2.1.2/src/core/ipv4\ip4_frag.c ****     while (left_to_copy) {
 2014              		.loc 1 810 18 is_stmt 0 discriminator 2
 2015 011a 668B     		mv	s6,s9
 2016              	.LVL211:
 2017              	.L162:
 811:C:/Users/stapi/OneDrive/Desktop/GD32VW553/GD32VW55X_Wifi_BLE_SDK/GD32VW55x_RELEASE_V1.0.2/MSDK/lwip/lwip-2.1.2/src/core/ipv4\ip4_frag.c ****       struct pbuf_custom_ref *pcr;
 2018              		.loc 1 811 11 is_stmt 1
 2019 011c 630D0B0A 		beq	s6,zero,.L182
 2020              	.LBB48:
 812:C:/Users/stapi/OneDrive/Desktop/GD32VW553/GD32VW55X_Wifi_BLE_SDK/GD32VW55x_RELEASE_V1.0.2/MSDK/lwip/lwip-2.1.2/src/core/ipv4\ip4_frag.c ****       u16_t plen = (u16_t)(p->len - poff);
 2021              		.loc 1 812 7
 813:C:/Users/stapi/OneDrive/Desktop/GD32VW553/GD32VW55X_Wifi_BLE_SDK/GD32VW55x_RELEASE_V1.0.2/MSDK/lwip/lwip-2.1.2/src/core/ipv4\ip4_frag.c ****       LWIP_ASSERT("p->len >= poff", p->len >= poff);
 2022              		.loc 1 813 7
 813:C:/Users/stapi/OneDrive/Desktop/GD32VW553/GD32VW55X_Wifi_BLE_SDK/GD32VW55x_RELEASE_V1.0.2/MSDK/lwip/lwip-2.1.2/src/core/ipv4\ip4_frag.c ****       LWIP_ASSERT("p->len >= poff", p->len >= poff);
 2023              		.loc 1 813 29 is_stmt 0
 2024 0120 8357A400 		lhu	a5,10(s0)
 813:C:/Users/stapi/OneDrive/Desktop/GD32VW553/GD32VW55X_Wifi_BLE_SDK/GD32VW55x_RELEASE_V1.0.2/MSDK/lwip/lwip-2.1.2/src/core/ipv4\ip4_frag.c ****       LWIP_ASSERT("p->len >= poff", p->len >= poff);
 2025              		.loc 1 813 13
 2026 0124 33894741 		sub	s2,a5,s4
 2027              	.LVL212:
 2028 0128 33490908 		zext.h	s2,s2
 2029              	.LVL213:
 814:C:/Users/stapi/OneDrive/Desktop/GD32VW553/GD32VW55X_Wifi_BLE_SDK/GD32VW55x_RELEASE_V1.0.2/MSDK/lwip/lwip-2.1.2/src/core/ipv4\ip4_frag.c ****       newpbuflen = LWIP_MIN(left_to_copy, plen);
 2030              		.loc 1 814 7 is_stmt 1
 814:C:/Users/stapi/OneDrive/Desktop/GD32VW553/GD32VW55X_Wifi_BLE_SDK/GD32VW55x_RELEASE_V1.0.2/MSDK/lwip/lwip-2.1.2/src/core/ipv4\ip4_frag.c ****       newpbuflen = LWIP_MIN(left_to_copy, plen);
 2031              		.loc 1 814 7
 2032 012c 63F54703 		bgeu	a5,s4,.L163
 814:C:/Users/stapi/OneDrive/Desktop/GD32VW553/GD32VW55X_Wifi_BLE_SDK/GD32VW55x_RELEASE_V1.0.2/MSDK/lwip/lwip-2.1.2/src/core/ipv4\ip4_frag.c ****       newpbuflen = LWIP_MIN(left_to_copy, plen);
 2033              		.loc 1 814 7 discriminator 1
 814:C:/Users/stapi/OneDrive/Desktop/GD32VW553/GD32VW55X_Wifi_BLE_SDK/GD32VW55x_RELEASE_V1.0.2/MSDK/lwip/lwip-2.1.2/src/core/ipv4\ip4_frag.c ****       newpbuflen = LWIP_MIN(left_to_copy, plen);
 2034              		.loc 1 814 7 discriminator 1
 2035 0130 B7060000 		lui	a3,%hi(.LC0)
 2036 0134 B7050000 		lui	a1,%hi(.LC17)
 2037 0138 37050000 		lui	a0,%hi(.LC2)
 2038 013c 93860600 		addi	a3,a3,%lo(.LC0)
 2039 0140 1306E032 		li	a2,814
 2040 0144 93850500 		addi	a1,a1,%lo(.LC17)
 2041 0148 13050500 		addi	a0,a0,%lo(.LC2)
 2042 014c 97000000 		call	printf
 2042      E7800000 
 2043              	.LVL214:
 2044              	.L164:
 814:C:/Users/stapi/OneDrive/Desktop/GD32VW553/GD32VW55X_Wifi_BLE_SDK/GD32VW55x_RELEASE_V1.0.2/MSDK/lwip/lwip-2.1.2/src/core/ipv4\ip4_frag.c ****       newpbuflen = LWIP_MIN(left_to_copy, plen);
 2045              		.loc 1 814 7 discriminator 3
 814:C:/Users/stapi/OneDrive/Desktop/GD32VW553/GD32VW55X_Wifi_BLE_SDK/GD32VW55x_RELEASE_V1.0.2/MSDK/lwip/lwip-2.1.2/src/core/ipv4\ip4_frag.c ****       newpbuflen = LWIP_MIN(left_to_copy, plen);
 2046              		.loc 1 814 7 discriminator 3
 814:C:/Users/stapi/OneDrive/Desktop/GD32VW553/GD32VW55X_Wifi_BLE_SDK/GD32VW55x_RELEASE_V1.0.2/MSDK/lwip/lwip-2.1.2/src/core/ipv4\ip4_frag.c ****       newpbuflen = LWIP_MIN(left_to_copy, plen);
 2047              		.loc 1 814 7 discriminator 3
 2048 0154 01A0     		j	.L164
 2049              	.L163:
 814:C:/Users/stapi/OneDrive/Desktop/GD32VW553/GD32VW55X_Wifi_BLE_SDK/GD32VW55x_RELEASE_V1.0.2/MSDK/lwip/lwip-2.1.2/src/core/ipv4\ip4_frag.c ****       newpbuflen = LWIP_MIN(left_to_copy, plen);
 2050              		.loc 1 814 7 discriminator 2
 814:C:/Users/stapi/OneDrive/Desktop/GD32VW553/GD32VW55X_Wifi_BLE_SDK/GD32VW55x_RELEASE_V1.0.2/MSDK/lwip/lwip-2.1.2/src/core/ipv4\ip4_frag.c ****       newpbuflen = LWIP_MIN(left_to_copy, plen);
 2051              		.loc 1 814 7 discriminator 2
 815:C:/Users/stapi/OneDrive/Desktop/GD32VW553/GD32VW55X_Wifi_BLE_SDK/GD32VW55x_RELEASE_V1.0.2/MSDK/lwip/lwip-2.1.2/src/core/ipv4\ip4_frag.c ****       /* Is this pbuf already empty? */
 2052              		.loc 1 815 7 discriminator 2
 815:C:/Users/stapi/OneDrive/Desktop/GD32VW553/GD32VW55X_Wifi_BLE_SDK/GD32VW55x_RELEASE_V1.0.2/MSDK/lwip/lwip-2.1.2/src/core/ipv4\ip4_frag.c ****       /* Is this pbuf already empty? */
 2053              		.loc 1 815 18 is_stmt 0 discriminator 2
 2054 0156 33592B0B 		minu	s2,s6,s2
 2055              	.LVL215:
 817:C:/Users/stapi/OneDrive/Desktop/GD32VW553/GD32VW55X_Wifi_BLE_SDK/GD32VW55x_RELEASE_V1.0.2/MSDK/lwip/lwip-2.1.2/src/core/ipv4\ip4_frag.c ****         poff = 0;
 2056              		.loc 1 817 7 is_stmt 1 discriminator 2
 817:C:/Users/stapi/OneDrive/Desktop/GD32VW553/GD32VW55X_Wifi_BLE_SDK/GD32VW55x_RELEASE_V1.0.2/MSDK/lwip/lwip-2.1.2/src/core/ipv4\ip4_frag.c ****         poff = 0;
 2057              		.loc 1 817 10 is_stmt 0 discriminator 2
 2058 015a 63150900 		bne	s2,zero,.L165
 2059              	.LVL216:
 2060              	.L184:
 845:C:/Users/stapi/OneDrive/Desktop/GD32VW553/GD32VW55X_Wifi_BLE_SDK/GD32VW55x_RELEASE_V1.0.2/MSDK/lwip/lwip-2.1.2/src/core/ipv4\ip4_frag.c ****         p = p->next;
 2061              		.loc 1 845 9 is_stmt 1
 846:C:/Users/stapi/OneDrive/Desktop/GD32VW553/GD32VW55X_Wifi_BLE_SDK/GD32VW55x_RELEASE_V1.0.2/MSDK/lwip/lwip-2.1.2/src/core/ipv4\ip4_frag.c ****       }
 2062              		.loc 1 846 9
 846:C:/Users/stapi/OneDrive/Desktop/GD32VW553/GD32VW55X_Wifi_BLE_SDK/GD32VW55x_RELEASE_V1.0.2/MSDK/lwip/lwip-2.1.2/src/core/ipv4\ip4_frag.c ****       }
 2063              		.loc 1 846 11 is_stmt 0
 2064 015e 0040     		lw	s0,0(s0)
 2065              	.LVL217:
 845:C:/Users/stapi/OneDrive/Desktop/GD32VW553/GD32VW55X_Wifi_BLE_SDK/GD32VW55x_RELEASE_V1.0.2/MSDK/lwip/lwip-2.1.2/src/core/ipv4\ip4_frag.c ****         p = p->next;
 2066              		.loc 1 845 14
 2067 0160 014A     		li	s4,0
 2068 0162 6DBF     		j	.L162
 2069              	.LVL218:
 2070              	.L165:
 822:C:/Users/stapi/OneDrive/Desktop/GD32VW553/GD32VW55X_Wifi_BLE_SDK/GD32VW55x_RELEASE_V1.0.2/MSDK/lwip/lwip-2.1.2/src/core/ipv4\ip4_frag.c ****       if (pcr == NULL) {
 2071              		.loc 1 822 7 is_stmt 1
 2072              	.LBB45:
 2073              	.LBB46:
 702:C:/Users/stapi/OneDrive/Desktop/GD32VW553/GD32VW55X_Wifi_BLE_SDK/GD32VW55x_RELEASE_V1.0.2/MSDK/lwip/lwip-2.1.2/src/core/ipv4\ip4_frag.c **** }
 2074              		.loc 1 702 3
 702:C:/Users/stapi/OneDrive/Desktop/GD32VW553/GD32VW55X_Wifi_BLE_SDK/GD32VW55x_RELEASE_V1.0.2/MSDK/lwip/lwip-2.1.2/src/core/ipv4\ip4_frag.c **** }
 2075              		.loc 1 702 36 is_stmt 0
 2076 0164 1D45     		li	a0,7
 2077 0166 97000000 		call	memp_malloc
 2077      E7800000 
 2078              	.LVL219:
 2079 016e AA86     		mv	a3,a0
 2080              	.LVL220:
 2081              	.LBE46:
 2082              	.LBE45:
 823:C:/Users/stapi/OneDrive/Desktop/GD32VW553/GD32VW55X_Wifi_BLE_SDK/GD32VW55x_RELEASE_V1.0.2/MSDK/lwip/lwip-2.1.2/src/core/ipv4\ip4_frag.c ****         pbuf_free(rambuf);
 2083              		.loc 1 823 7 is_stmt 1
 823:C:/Users/stapi/OneDrive/Desktop/GD32VW553/GD32VW55X_Wifi_BLE_SDK/GD32VW55x_RELEASE_V1.0.2/MSDK/lwip/lwip-2.1.2/src/core/ipv4\ip4_frag.c ****         pbuf_free(rambuf);
 2084              		.loc 1 823 10 is_stmt 0
 2085 0170 01E9     		bne	a0,zero,.L167
 2086              	.LVL221:
 2087              	.L185:
 2088              	.LBE48:
 2089              	.LBB49:
 877:C:/Users/stapi/OneDrive/Desktop/GD32VW553/GD32VW55X_Wifi_BLE_SDK/GD32VW55x_RELEASE_V1.0.2/MSDK/lwip/lwip-2.1.2/src/core/ipv4\ip4_frag.c ****             goto memerr;
 2090              		.loc 1 877 13 is_stmt 1
 2091 0172 2685     		mv	a0,s1
 2092 0174 97000000 		call	pbuf_free
 2092      E7800000 
 2093              	.LVL222:
 878:C:/Users/stapi/OneDrive/Desktop/GD32VW553/GD32VW55X_Wifi_BLE_SDK/GD32VW55x_RELEASE_V1.0.2/MSDK/lwip/lwip-2.1.2/src/core/ipv4\ip4_frag.c ****         }
 2094              		.loc 1 878 13
 2095              	.L175:
 2096              	.LBE49:
 900:C:/Users/stapi/OneDrive/Desktop/GD32VW553/GD32VW55X_Wifi_BLE_SDK/GD32VW55x_RELEASE_V1.0.2/MSDK/lwip/lwip-2.1.2/src/core/ipv4\ip4_frag.c **** }
 2097              		.loc 1 900 10 is_stmt 0
 2098 017c 7D55     		li	a0,-1
 2099 017e 15BF     		j	.L156
 2100              	.LVL223:
 2101              	.L167:
 2102              	.LBB50:
 828:C:/Users/stapi/OneDrive/Desktop/GD32VW553/GD32VW55X_Wifi_BLE_SDK/GD32VW55x_RELEASE_V1.0.2/MSDK/lwip/lwip-2.1.2/src/core/ipv4\ip4_frag.c ****                                     (u8_t *)p->payload + poff, newpbuflen);
 2103              		.loc 1 828 7 is_stmt 1
 828:C:/Users/stapi/OneDrive/Desktop/GD32VW553/GD32VW55X_Wifi_BLE_SDK/GD32VW55x_RELEASE_V1.0.2/MSDK/lwip/lwip-2.1.2/src/core/ipv4\ip4_frag.c ****                                     (u8_t *)p->payload + poff, newpbuflen);
 2104              		.loc 1 828 17 is_stmt 0
 2105 0180 5840     		lw	a4,4(s0)
 2106 0182 2ACC     		sw	a0,24(sp)
 2107 0184 CA87     		mv	a5,s2
 2108 0186 5297     		add	a4,a4,s4
 2109 0188 13061004 		li	a2,65
 2110 018c CA85     		mv	a1,s2
 2111 018e 0145     		li	a0,0
 2112              	.LVL224:
 2113 0190 97000000 		call	pbuf_alloced_custom
 2113      E7800000 
 2114              	.LVL225:
 830:C:/Users/stapi/OneDrive/Desktop/GD32VW553/GD32VW55X_Wifi_BLE_SDK/GD32VW55x_RELEASE_V1.0.2/MSDK/lwip/lwip-2.1.2/src/core/ipv4\ip4_frag.c ****         ip_frag_free_pbuf_custom_ref(pcr);
 2115              		.loc 1 830 7 is_stmt 1
 830:C:/Users/stapi/OneDrive/Desktop/GD32VW553/GD32VW55X_Wifi_BLE_SDK/GD32VW55x_RELEASE_V1.0.2/MSDK/lwip/lwip-2.1.2/src/core/ipv4\ip4_frag.c ****         ip_frag_free_pbuf_custom_ref(pcr);
 2116              		.loc 1 830 10 is_stmt 0
 2117 0198 E246     		lw	a3,24(sp)
 2118 019a 19E5     		bne	a0,zero,.L168
 831:C:/Users/stapi/OneDrive/Desktop/GD32VW553/GD32VW55X_Wifi_BLE_SDK/GD32VW55x_RELEASE_V1.0.2/MSDK/lwip/lwip-2.1.2/src/core/ipv4\ip4_frag.c ****         pbuf_free(rambuf);
 2119              		.loc 1 831 9 is_stmt 1
 2120 019c 3685     		mv	a0,a3
 2121              	.LVL226:
 2122 019e 97000000 		call	ip_frag_free_pbuf_custom_ref
 2122      E7800000 
 2123              	.LVL227:
 832:C:/Users/stapi/OneDrive/Desktop/GD32VW553/GD32VW55X_Wifi_BLE_SDK/GD32VW55x_RELEASE_V1.0.2/MSDK/lwip/lwip-2.1.2/src/core/ipv4\ip4_frag.c ****         goto memerr;
 2124              		.loc 1 832 9
 2125 01a6 F1B7     		j	.L185
 2126              	.LVL228:
 2127              	.L168:
 2128 01a8 2ACC     		sw	a0,24(sp)
 2129              	.LVL229:
 835:C:/Users/stapi/OneDrive/Desktop/GD32VW553/GD32VW55X_Wifi_BLE_SDK/GD32VW55x_RELEASE_V1.0.2/MSDK/lwip/lwip-2.1.2/src/core/ipv4\ip4_frag.c ****       pcr->original = p;
 2130              		.loc 1 835 7
 2131 01aa 2285     		mv	a0,s0
 2132              	.LVL230:
 2133 01ac 36CE     		sw	a3,28(sp)
 2134 01ae 97000000 		call	pbuf_ref
 2134      E7800000 
 2135              	.LVL231:
 836:C:/Users/stapi/OneDrive/Desktop/GD32VW553/GD32VW55X_Wifi_BLE_SDK/GD32VW55x_RELEASE_V1.0.2/MSDK/lwip/lwip-2.1.2/src/core/ipv4\ip4_frag.c ****       pcr->pc.custom_free_function = ipfrag_free_pbuf_custom;
 2136              		.loc 1 836 7
 836:C:/Users/stapi/OneDrive/Desktop/GD32VW553/GD32VW55X_Wifi_BLE_SDK/GD32VW55x_RELEASE_V1.0.2/MSDK/lwip/lwip-2.1.2/src/core/ipv4\ip4_frag.c ****       pcr->pc.custom_free_function = ipfrag_free_pbuf_custom;
 2137              		.loc 1 836 21 is_stmt 0
 2138 01b6 F246     		lw	a3,28(sp)
 837:C:/Users/stapi/OneDrive/Desktop/GD32VW553/GD32VW55X_Wifi_BLE_SDK/GD32VW55x_RELEASE_V1.0.2/MSDK/lwip/lwip-2.1.2/src/core/ipv4\ip4_frag.c **** 
 2139              		.loc 1 837 36
 2140 01b8 D247     		lw	a5,20(sp)
 842:C:/Users/stapi/OneDrive/Desktop/GD32VW553/GD32VW55X_Wifi_BLE_SDK/GD32VW55x_RELEASE_V1.0.2/MSDK/lwip/lwip-2.1.2/src/core/ipv4\ip4_frag.c ****       left_to_copy = (u16_t)(left_to_copy - newpbuflen);
 2141              		.loc 1 842 7
 2142 01ba E245     		lw	a1,24(sp)
 836:C:/Users/stapi/OneDrive/Desktop/GD32VW553/GD32VW55X_Wifi_BLE_SDK/GD32VW55x_RELEASE_V1.0.2/MSDK/lwip/lwip-2.1.2/src/core/ipv4\ip4_frag.c ****       pcr->pc.custom_free_function = ipfrag_free_pbuf_custom;
 2143              		.loc 1 836 21
 2144 01bc C0CA     		sw	s0,20(a3)
 837:C:/Users/stapi/OneDrive/Desktop/GD32VW553/GD32VW55X_Wifi_BLE_SDK/GD32VW55x_RELEASE_V1.0.2/MSDK/lwip/lwip-2.1.2/src/core/ipv4\ip4_frag.c **** 
 2145              		.loc 1 837 7 is_stmt 1
 837:C:/Users/stapi/OneDrive/Desktop/GD32VW553/GD32VW55X_Wifi_BLE_SDK/GD32VW55x_RELEASE_V1.0.2/MSDK/lwip/lwip-2.1.2/src/core/ipv4\ip4_frag.c **** 
 2146              		.loc 1 837 36 is_stmt 0
 2147 01be 9CCA     		sw	a5,16(a3)
 842:C:/Users/stapi/OneDrive/Desktop/GD32VW553/GD32VW55X_Wifi_BLE_SDK/GD32VW55x_RELEASE_V1.0.2/MSDK/lwip/lwip-2.1.2/src/core/ipv4\ip4_frag.c ****       left_to_copy = (u16_t)(left_to_copy - newpbuflen);
 2148              		.loc 1 842 7 is_stmt 1
 2149 01c0 2685     		mv	a0,s1
 2150 01c2 97000000 		call	pbuf_cat
 2150      E7800000 
 2151              	.LVL232:
 843:C:/Users/stapi/OneDrive/Desktop/GD32VW553/GD32VW55X_Wifi_BLE_SDK/GD32VW55x_RELEASE_V1.0.2/MSDK/lwip/lwip-2.1.2/src/core/ipv4\ip4_frag.c ****       if (left_to_copy) {
 2152              		.loc 1 843 7
 843:C:/Users/stapi/OneDrive/Desktop/GD32VW553/GD32VW55X_Wifi_BLE_SDK/GD32VW55x_RELEASE_V1.0.2/MSDK/lwip/lwip-2.1.2/src/core/ipv4\ip4_frag.c ****       if (left_to_copy) {
 2153              		.loc 1 843 20 is_stmt 0
 2154 01ca 33082B41 		sub	a6,s6,s2
 2155 01ce 334B0808 		zext.h	s6,a6
 2156              	.LVL233:
 844:C:/Users/stapi/OneDrive/Desktop/GD32VW553/GD32VW55X_Wifi_BLE_SDK/GD32VW55x_RELEASE_V1.0.2/MSDK/lwip/lwip-2.1.2/src/core/ipv4\ip4_frag.c ****         poff = 0;
 2157              		.loc 1 844 7 is_stmt 1
 844:C:/Users/stapi/OneDrive/Desktop/GD32VW553/GD32VW55X_Wifi_BLE_SDK/GD32VW55x_RELEASE_V1.0.2/MSDK/lwip/lwip-2.1.2/src/core/ipv4\ip4_frag.c ****         poff = 0;
 2158              		.loc 1 844 10 is_stmt 0
 2159 01d2 E3160BF8 		bne	s6,zero,.L184
 2160              	.LVL234:
 2161              	.L182:
 2162              	.LBE50:
 849:C:/Users/stapi/OneDrive/Desktop/GD32VW553/GD32VW55X_Wifi_BLE_SDK/GD32VW55x_RELEASE_V1.0.2/MSDK/lwip/lwip-2.1.2/src/core/ipv4\ip4_frag.c **** #endif /* LWIP_NETIF_TX_SINGLE_PBUF */
 2163              		.loc 1 849 5 is_stmt 1
 853:C:/Users/stapi/OneDrive/Desktop/GD32VW553/GD32VW55X_Wifi_BLE_SDK/GD32VW55x_RELEASE_V1.0.2/MSDK/lwip/lwip-2.1.2/src/core/ipv4\ip4_frag.c **** 
 2164              		.loc 1 853 26 is_stmt 0
 2165 01d6 83578C02 		lhu	a5,40(s8)
 849:C:/Users/stapi/OneDrive/Desktop/GD32VW553/GD32VW55X_Wifi_BLE_SDK/GD32VW55x_RELEASE_V1.0.2/MSDK/lwip/lwip-2.1.2/src/core/ipv4\ip4_frag.c **** #endif /* LWIP_NETIF_TX_SINGLE_PBUF */
 2166              		.loc 1 849 10
 2167 01da 4A9A     		add	s4,s2,s4
 2168              	.LVL235:
 856:C:/Users/stapi/OneDrive/Desktop/GD32VW553/GD32VW55X_Wifi_BLE_SDK/GD32VW55x_RELEASE_V1.0.2/MSDK/lwip/lwip-2.1.2/src/core/ipv4\ip4_frag.c ****     if (!last || mf_set) {
 2169              		.loc 1 856 9
 2170 01dc 33F5BB01 		and	a0,s7,s11
 853:C:/Users/stapi/OneDrive/Desktop/GD32VW553/GD32VW55X_Wifi_BLE_SDK/GD32VW55x_RELEASE_V1.0.2/MSDK/lwip/lwip-2.1.2/src/core/ipv4\ip4_frag.c **** 
 2171              		.loc 1 853 18
 2172 01e0 B517     		addi	a5,a5,-19
 849:C:/Users/stapi/OneDrive/Desktop/GD32VW553/GD32VW55X_Wifi_BLE_SDK/GD32VW55x_RELEASE_V1.0.2/MSDK/lwip/lwip-2.1.2/src/core/ipv4\ip4_frag.c **** #endif /* LWIP_NETIF_TX_SINGLE_PBUF */
 2173              		.loc 1 849 10
 2174 01e2 334A0A08 		zext.h	s4,s4
 2175              	.LVL236:
 853:C:/Users/stapi/OneDrive/Desktop/GD32VW553/GD32VW55X_Wifi_BLE_SDK/GD32VW55x_RELEASE_V1.0.2/MSDK/lwip/lwip-2.1.2/src/core/ipv4\ip4_frag.c **** 
 2176              		.loc 1 853 5 is_stmt 1
 856:C:/Users/stapi/OneDrive/Desktop/GD32VW553/GD32VW55X_Wifi_BLE_SDK/GD32VW55x_RELEASE_V1.0.2/MSDK/lwip/lwip-2.1.2/src/core/ipv4\ip4_frag.c ****     if (!last || mf_set) {
 2177              		.loc 1 856 5
 857:C:/Users/stapi/OneDrive/Desktop/GD32VW553/GD32VW55X_Wifi_BLE_SDK/GD32VW55x_RELEASE_V1.0.2/MSDK/lwip/lwip-2.1.2/src/core/ipv4\ip4_frag.c ****       /* the last fragment has MF set if the input frame had it */
 2178              		.loc 1 857 5
 857:C:/Users/stapi/OneDrive/Desktop/GD32VW553/GD32VW55X_Wifi_BLE_SDK/GD32VW55x_RELEASE_V1.0.2/MSDK/lwip/lwip-2.1.2/src/core/ipv4\ip4_frag.c ****       /* the last fragment has MF set if the input frame had it */
 2179              		.loc 1 857 8 is_stmt 0
 2180 01e6 63D4F900 		ble	a5,s3,.L170
 857:C:/Users/stapi/OneDrive/Desktop/GD32VW553/GD32VW55X_Wifi_BLE_SDK/GD32VW55x_RELEASE_V1.0.2/MSDK/lwip/lwip-2.1.2/src/core/ipv4\ip4_frag.c ****       /* the last fragment has MF set if the input frame had it */
 2181              		.loc 1 857 15 discriminator 1
 2182 01ea B247     		lw	a5,12(sp)
 2183 01ec 89C7     		beq	a5,zero,.L171
 2184              	.L170:
 859:C:/Users/stapi/OneDrive/Desktop/GD32VW553/GD32VW55X_Wifi_BLE_SDK/GD32VW55x_RELEASE_V1.0.2/MSDK/lwip/lwip-2.1.2/src/core/ipv4\ip4_frag.c ****     }
 2185              		.loc 1 859 7 is_stmt 1
 859:C:/Users/stapi/OneDrive/Desktop/GD32VW553/GD32VW55X_Wifi_BLE_SDK/GD32VW55x_RELEASE_V1.0.2/MSDK/lwip/lwip-2.1.2/src/core/ipv4\ip4_frag.c ****     }
 2186              		.loc 1 859 11 is_stmt 0
 2187 01ee 8967     		li	a5,8192
 2188 01f0 5D8D     		or	a0,a0,a5
 2189              	.LVL237:
 2190 01f2 33450508 		zext.h	a0,a0
 2191              	.LVL238:
 2192              	.L171:
 861:C:/Users/stapi/OneDrive/Desktop/GD32VW553/GD32VW55X_Wifi_BLE_SDK/GD32VW55x_RELEASE_V1.0.2/MSDK/lwip/lwip-2.1.2/src/core/ipv4\ip4_frag.c ****     IPH_LEN_SET(iphdr, lwip_htons((u16_t)(fragsize + IP_HLEN)));
 2193              		.loc 1 861 5 is_stmt 1
 2194 01f6 97000000 		call	lwip_htons
 2194      E7800000 
 2195              	.LVL239:
 2196 01fe 2383AA00 		sb	a0,6(s5)
 2197 0202 2181     		srli	a0,a0,8
 2198 0204 A383AA00 		sb	a0,7(s5)
 862:C:/Users/stapi/OneDrive/Desktop/GD32VW553/GD32VW55X_Wifi_BLE_SDK/GD32VW55x_RELEASE_V1.0.2/MSDK/lwip/lwip-2.1.2/src/core/ipv4\ip4_frag.c ****     IPH_CHKSUM_SET(iphdr, 0);
 2199              		.loc 1 862 5
 2200 0208 13854C01 		addi	a0,s9,20
 2201 020c 33450508 		zext.h	a0,a0
 2202 0210 97000000 		call	lwip_htons
 2202      E7800000 
 2203              	.LVL240:
 2204 0218 2381AA00 		sb	a0,2(s5)
 2205 021c 2181     		srli	a0,a0,8
 2206 021e A381AA00 		sb	a0,3(s5)
 863:C:/Users/stapi/OneDrive/Desktop/GD32VW553/GD32VW55X_Wifi_BLE_SDK/GD32VW55x_RELEASE_V1.0.2/MSDK/lwip/lwip-2.1.2/src/core/ipv4\ip4_frag.c **** #if CHECKSUM_GEN_IP
 2207              		.loc 1 863 5
 866:C:/Users/stapi/OneDrive/Desktop/GD32VW553/GD32VW55X_Wifi_BLE_SDK/GD32VW55x_RELEASE_V1.0.2/MSDK/lwip/lwip-2.1.2/src/core/ipv4\ip4_frag.c ****     }
 2208              		.loc 1 866 7 is_stmt 0
 2209 0222 D145     		li	a1,20
 863:C:/Users/stapi/OneDrive/Desktop/GD32VW553/GD32VW55X_Wifi_BLE_SDK/GD32VW55x_RELEASE_V1.0.2/MSDK/lwip/lwip-2.1.2/src/core/ipv4\ip4_frag.c **** #if CHECKSUM_GEN_IP
 2210              		.loc 1 863 5
 2211 0224 23850A00 		sb	zero,10(s5)
 2212 0228 A3850A00 		sb	zero,11(s5)
 866:C:/Users/stapi/OneDrive/Desktop/GD32VW553/GD32VW55X_Wifi_BLE_SDK/GD32VW55x_RELEASE_V1.0.2/MSDK/lwip/lwip-2.1.2/src/core/ipv4\ip4_frag.c ****     }
 2213              		.loc 1 866 7 is_stmt 1
 2214 022c 5685     		mv	a0,s5
 2215 022e 97000000 		call	inet_chksum
 2215      E7800000 
 2216              	.LVL241:
 2217              	.LBB51:
 875:C:/Users/stapi/OneDrive/Desktop/GD32VW553/GD32VW55X_Wifi_BLE_SDK/GD32VW55x_RELEASE_V1.0.2/MSDK/lwip/lwip-2.1.2/src/core/ipv4\ip4_frag.c ****         if (ret != ERR_OK) {
 2218              		.loc 1 875 19 is_stmt 0
 2219 0236 83274C01 		lw	a5,20(s8)
 2220 023a 4246     		lw	a2,16(sp)
 2221              	.LBE51:
 866:C:/Users/stapi/OneDrive/Desktop/GD32VW553/GD32VW55X_Wifi_BLE_SDK/GD32VW55x_RELEASE_V1.0.2/MSDK/lwip/lwip-2.1.2/src/core/ipv4\ip4_frag.c ****     }
 2222              		.loc 1 866 7
 2223 023c 2385AA00 		sb	a0,10(s5)
 2224 0240 2181     		srli	a0,a0,8
 2225 0242 A385AA00 		sb	a0,11(s5)
 2226              	.LBB52:
 875:C:/Users/stapi/OneDrive/Desktop/GD32VW553/GD32VW55X_Wifi_BLE_SDK/GD32VW55x_RELEASE_V1.0.2/MSDK/lwip/lwip-2.1.2/src/core/ipv4\ip4_frag.c ****         if (ret != ERR_OK) {
 2227              		.loc 1 875 9 is_stmt 1
 875:C:/Users/stapi/OneDrive/Desktop/GD32VW553/GD32VW55X_Wifi_BLE_SDK/GD32VW55x_RELEASE_V1.0.2/MSDK/lwip/lwip-2.1.2/src/core/ipv4\ip4_frag.c ****         if (ret != ERR_OK) {
 2228              		.loc 1 875 19 is_stmt 0
 2229 0246 A685     		mv	a1,s1
 2230 0248 6285     		mv	a0,s8
 2231 024a 8297     		jalr	a5
 2232              	.LVL242:
 876:C:/Users/stapi/OneDrive/Desktop/GD32VW553/GD32VW55X_Wifi_BLE_SDK/GD32VW55x_RELEASE_V1.0.2/MSDK/lwip/lwip-2.1.2/src/core/ipv4\ip4_frag.c ****             pbuf_free(rambuf);
 2233              		.loc 1 876 9 is_stmt 1
 876:C:/Users/stapi/OneDrive/Desktop/GD32VW553/GD32VW55X_Wifi_BLE_SDK/GD32VW55x_RELEASE_V1.0.2/MSDK/lwip/lwip-2.1.2/src/core/ipv4\ip4_frag.c ****             pbuf_free(rambuf);
 2234              		.loc 1 876 12 is_stmt 0
 2235 024c 1DF1     		bne	a0,zero,.L185
 2236              	.LBE52:
 883:C:/Users/stapi/OneDrive/Desktop/GD32VW553/GD32VW55X_Wifi_BLE_SDK/GD32VW55x_RELEASE_V1.0.2/MSDK/lwip/lwip-2.1.2/src/core/ipv4\ip4_frag.c **** 
 2237              		.loc 1 883 35 is_stmt 1
 892:C:/Users/stapi/OneDrive/Desktop/GD32VW553/GD32VW55X_Wifi_BLE_SDK/GD32VW55x_RELEASE_V1.0.2/MSDK/lwip/lwip-2.1.2/src/core/ipv4\ip4_frag.c ****     left = (u16_t)(left - fragsize);
 2238              		.loc 1 892 5
 2239 024e 2685     		mv	a0,s1
 2240              	.LVL243:
 2241 0250 97000000 		call	pbuf_free
 2241      E7800000 
 2242              	.LVL244:
 893:C:/Users/stapi/OneDrive/Desktop/GD32VW553/GD32VW55X_Wifi_BLE_SDK/GD32VW55x_RELEASE_V1.0.2/MSDK/lwip/lwip-2.1.2/src/core/ipv4\ip4_frag.c ****     ofo = (u16_t)(ofo + nfb);
 2243              		.loc 1 893 5
 894:C:/Users/stapi/OneDrive/Desktop/GD32VW553/GD32VW55X_Wifi_BLE_SDK/GD32VW55x_RELEASE_V1.0.2/MSDK/lwip/lwip-2.1.2/src/core/ipv4\ip4_frag.c ****   }
 2244              		.loc 1 894 9 is_stmt 0
 2245 0258 9247     		lw	a5,4(sp)
 893:C:/Users/stapi/OneDrive/Desktop/GD32VW553/GD32VW55X_Wifi_BLE_SDK/GD32VW55x_RELEASE_V1.0.2/MSDK/lwip/lwip-2.1.2/src/core/ipv4\ip4_frag.c ****     ofo = (u16_t)(ofo + nfb);
 2246              		.loc 1 893 10
 2247 025a B3899941 		sub	s3,s3,s9
 2248              	.LVL245:
 2249 025e B3C90908 		zext.h	s3,s3
 2250              	.LVL246:
 894:C:/Users/stapi/OneDrive/Desktop/GD32VW553/GD32VW55X_Wifi_BLE_SDK/GD32VW55x_RELEASE_V1.0.2/MSDK/lwip/lwip-2.1.2/src/core/ipv4\ip4_frag.c ****   }
 2251              		.loc 1 894 5 is_stmt 1
 894:C:/Users/stapi/OneDrive/Desktop/GD32VW553/GD32VW55X_Wifi_BLE_SDK/GD32VW55x_RELEASE_V1.0.2/MSDK/lwip/lwip-2.1.2/src/core/ipv4\ip4_frag.c ****   }
 2252              		.loc 1 894 9 is_stmt 0
 2253 0262 BE9B     		add	s7,s7,a5
 2254              	.LVL247:
 2255 0264 B3CB0B08 		zext.h	s7,s7
 2256              	.LVL248:
 2257 0268 91B5     		j	.L159
 2258              	.LVL249:
 2259              	.L174:
 763:C:/Users/stapi/OneDrive/Desktop/GD32VW553/GD32VW55X_Wifi_BLE_SDK/GD32VW55x_RELEASE_V1.0.2/MSDK/lwip/lwip-2.1.2/src/core/ipv4\ip4_frag.c ****   }
 2260              		.loc 1 763 12
 2261 026a 6955     		li	a0,-6
 2262              	.LVL250:
 2263 026c 99B5     		j	.L156
 2264              		.cfi_endproc
 2265              	.LFE14:
 2267              		.section	.sbss.ip_reass_pbufcount,"aw",@nobits
 2268              		.align	1
 2269              		.set	.LANCHOR1,. + 0
 2272              	ip_reass_pbufcount:
 2273 0000 0000     		.zero	2
 2274              		.section	.sbss.reassdatagrams,"aw",@nobits
 2275              		.align	2
 2276              		.set	.LANCHOR0,. + 0
 2279              	reassdatagrams:
 2280 0000 00000000 		.zero	4
 2281              		.text
 2282              	.Letext0:
 2283              		.file 2 "c:\\users\\stapi\\onedrive\\desktop\\gd32vw553\\embeddedbuilder_v1.4.7.26843\\tools\\nucl
 2284              		.file 3 "c:\\users\\stapi\\onedrive\\desktop\\gd32vw553\\embeddedbuilder_v1.4.7.26843\\tools\\nucl
 2285              		.file 4 "..\\..\\..\\..\\lwip\\lwip-2.1.2\\src\\include/lwip/arch.h"
 2286              		.file 5 "..\\..\\..\\..\\lwip\\lwip-2.1.2\\src\\include/lwip/err.h"
 2287              		.file 6 "..\\..\\..\\..\\lwip\\lwip-2.1.2\\src\\include/lwip/pbuf.h"
 2288              		.file 7 "..\\..\\..\\..\\lwip\\lwip-2.1.2\\src\\include/lwip/ip4_addr.h"
 2289              		.file 8 "..\\..\\..\\..\\lwip\\lwip-2.1.2\\src\\include/lwip/ip_addr.h"
 2290              		.file 9 "..\\..\\..\\..\\lwip\\lwip-2.1.2\\src\\include/lwip/memp.h"
 2291              		.file 10 "..\\..\\..\\..\\lwip\\lwip-2.1.2\\src\\include/lwip/netif.h"
 2292              		.file 11 "..\\..\\..\\..\\lwip\\lwip-2.1.2\\src\\include/lwip/prot/ip4.h"
 2293              		.file 12 "..\\..\\..\\..\\lwip\\lwip-2.1.2\\src\\include/lwip/ip4_frag.h"
 2294              		.file 13 "..\\..\\..\\..\\lwip\\lwip-2.1.2\\src\\include/lwip/icmp.h"
 2295              		.file 14 "c:\\users\\stapi\\onedrive\\desktop\\gd32vw553\\embeddedbuilder_v1.4.7.26843\\tools\\nuc
 2296              		.file 15 "..\\..\\..\\..\\lwip\\lwip-2.1.2\\src\\include/lwip/def.h"
 2297              		.file 16 "..\\..\\..\\..\\lwip\\lwip-2.1.2\\src\\include/lwip/inet_chksum.h"
 2298              		.file 17 "<built-in>"
DEFINED SYMBOLS
                            *ABS*:0000000000000000 ip4_frag.c
C:\Users\stapi\AppData\Local\Temp\ccH5TxCZ.s:22     .text.ip_reass_dequeue_datagram:0000000000000000 ip_reass_dequeue_datagram
C:\Users\stapi\AppData\Local\Temp\ccH5TxCZ.s:26     .text.ip_reass_dequeue_datagram:0000000000000000 .L0 
C:\Users\stapi\AppData\Local\Temp\ccH5TxCZ.s:28     .text.ip_reass_dequeue_datagram:0000000000000000 .L0 
C:\Users\stapi\AppData\Local\Temp\ccH5TxCZ.s:29     .text.ip_reass_dequeue_datagram:0000000000000008 .L0 
C:\Users\stapi\AppData\Local\Temp\ccH5TxCZ.s:30     .text.ip_reass_dequeue_datagram:0000000000000008 .L0 
C:\Users\stapi\AppData\Local\Temp\ccH5TxCZ.s:32     .text.ip_reass_dequeue_datagram:0000000000000008 .L0 
C:\Users\stapi\AppData\Local\Temp\ccH5TxCZ.s:33     .text.ip_reass_dequeue_datagram:0000000000000008 .L0 
C:\Users\stapi\AppData\Local\Temp\ccH5TxCZ.s:36     .text.ip_reass_dequeue_datagram:0000000000000010 .L0 
C:\Users\stapi\AppData\Local\Temp\ccH5TxCZ.s:39     .text.ip_reass_dequeue_datagram:0000000000000016 .L0 
C:\Users\stapi\AppData\Local\Temp\ccH5TxCZ.s:40     .text.ip_reass_dequeue_datagram:0000000000000016 .L0 
C:\Users\stapi\AppData\Local\Temp\ccH5TxCZ.s:44     .text.ip_reass_dequeue_datagram:000000000000001a .L0 
C:\Users\stapi\AppData\Local\Temp\ccH5TxCZ.s:51     .text.ip_reass_dequeue_datagram:0000000000000026 .L0 
C:\Users\stapi\AppData\Local\Temp\ccH5TxCZ.s:52     .text.ip_reass_dequeue_datagram:000000000000002e .L0 
C:\Users\stapi\AppData\Local\Temp\ccH5TxCZ.s:53     .text.ip_reass_dequeue_datagram:000000000000002e .L0 
C:\Users\stapi\AppData\Local\Temp\ccH5TxCZ.s:54     .text.ip_reass_dequeue_datagram:000000000000002e .L0 
C:\Users\stapi\AppData\Local\Temp\ccH5TxCZ.s:57     .text.ip_reass_dequeue_datagram:000000000000002e .L0 
C:\Users\stapi\AppData\Local\Temp\ccH5TxCZ.s:59     .text.ip_reass_dequeue_datagram:000000000000002e .L0 
C:\Users\stapi\AppData\Local\Temp\ccH5TxCZ.s:60     .text.ip_reass_dequeue_datagram:000000000000002e .L0 
C:\Users\stapi\AppData\Local\Temp\ccH5TxCZ.s:65     .text.ip_reass_dequeue_datagram:0000000000000030 .L0 
C:\Users\stapi\AppData\Local\Temp\ccH5TxCZ.s:66     .text.ip_reass_dequeue_datagram:0000000000000030 .L0 
C:\Users\stapi\AppData\Local\Temp\ccH5TxCZ.s:79     .text.ip_reass_dequeue_datagram:0000000000000054 .L0 
C:\Users\stapi\AppData\Local\Temp\ccH5TxCZ.s:80     .text.ip_reass_dequeue_datagram:0000000000000054 .L0 
C:\Users\stapi\AppData\Local\Temp\ccH5TxCZ.s:81     .text.ip_reass_dequeue_datagram:0000000000000054 .L0 
C:\Users\stapi\AppData\Local\Temp\ccH5TxCZ.s:87     .text.ip_reass_dequeue_datagram:0000000000000056 .L0 
C:\Users\stapi\AppData\Local\Temp\ccH5TxCZ.s:88     .text.ip_reass_dequeue_datagram:0000000000000056 .L0 
C:\Users\stapi\AppData\Local\Temp\ccH5TxCZ.s:89     .text.ip_reass_dequeue_datagram:0000000000000056 .L0 
C:\Users\stapi\AppData\Local\Temp\ccH5TxCZ.s:90     .text.ip_reass_dequeue_datagram:0000000000000056 .L0 
C:\Users\stapi\AppData\Local\Temp\ccH5TxCZ.s:92     .text.ip_reass_dequeue_datagram:0000000000000058 .L0 
C:\Users\stapi\AppData\Local\Temp\ccH5TxCZ.s:94     .text.ip_reass_dequeue_datagram:000000000000005c .L0 
C:\Users\stapi\AppData\Local\Temp\ccH5TxCZ.s:113    .text.ip_reass_free_complete_datagram:0000000000000000 ip_reass_free_complete_datagram
C:\Users\stapi\AppData\Local\Temp\ccH5TxCZ.s:116    .text.ip_reass_free_complete_datagram:0000000000000000 .L0 
C:\Users\stapi\AppData\Local\Temp\ccH5TxCZ.s:118    .text.ip_reass_free_complete_datagram:0000000000000000 .L0 
C:\Users\stapi\AppData\Local\Temp\ccH5TxCZ.s:119    .text.ip_reass_free_complete_datagram:0000000000000008 .L0 
C:\Users\stapi\AppData\Local\Temp\ccH5TxCZ.s:120    .text.ip_reass_free_complete_datagram:0000000000000008 .L0 
C:\Users\stapi\AppData\Local\Temp\ccH5TxCZ.s:121    .text.ip_reass_free_complete_datagram:0000000000000008 .L0 
C:\Users\stapi\AppData\Local\Temp\ccH5TxCZ.s:122    .text.ip_reass_free_complete_datagram:0000000000000008 .L0 
C:\Users\stapi\AppData\Local\Temp\ccH5TxCZ.s:123    .text.ip_reass_free_complete_datagram:0000000000000008 .L0 
C:\Users\stapi\AppData\Local\Temp\ccH5TxCZ.s:124    .text.ip_reass_free_complete_datagram:0000000000000008 .L0 
C:\Users\stapi\AppData\Local\Temp\ccH5TxCZ.s:125    .text.ip_reass_free_complete_datagram:0000000000000008 .L0 
C:\Users\stapi\AppData\Local\Temp\ccH5TxCZ.s:126    .text.ip_reass_free_complete_datagram:0000000000000008 .L0 
C:\Users\stapi\AppData\Local\Temp\ccH5TxCZ.s:129    .text.ip_reass_free_complete_datagram:0000000000000008 .L0 
C:\Users\stapi\AppData\Local\Temp\ccH5TxCZ.s:130    .text.ip_reass_free_complete_datagram:0000000000000008 .L0 
C:\Users\stapi\AppData\Local\Temp\ccH5TxCZ.s:131    .text.ip_reass_free_complete_datagram:0000000000000008 .L0 
C:\Users\stapi\AppData\Local\Temp\ccH5TxCZ.s:132    .text.ip_reass_free_complete_datagram:0000000000000008 .L0 
C:\Users\stapi\AppData\Local\Temp\ccH5TxCZ.s:133    .text.ip_reass_free_complete_datagram:0000000000000008 .L0 
C:\Users\stapi\AppData\Local\Temp\ccH5TxCZ.s:134    .text.ip_reass_free_complete_datagram:0000000000000008 .L0 
C:\Users\stapi\AppData\Local\Temp\ccH5TxCZ.s:136    .text.ip_reass_free_complete_datagram:000000000000000c .L0 
C:\Users\stapi\AppData\Local\Temp\ccH5TxCZ.s:137    .text.ip_reass_free_complete_datagram:000000000000000c .L0 
C:\Users\stapi\AppData\Local\Temp\ccH5TxCZ.s:150    .text.ip_reass_free_complete_datagram:0000000000000030 .L0 
C:\Users\stapi\AppData\Local\Temp\ccH5TxCZ.s:151    .text.ip_reass_free_complete_datagram:0000000000000030 .L0 
C:\Users\stapi\AppData\Local\Temp\ccH5TxCZ.s:152    .text.ip_reass_free_complete_datagram:0000000000000030 .L0 
C:\Users\stapi\AppData\Local\Temp\ccH5TxCZ.s:158    .text.ip_reass_free_complete_datagram:0000000000000036 .L0 
C:\Users\stapi\AppData\Local\Temp\ccH5TxCZ.s:159    .text.ip_reass_free_complete_datagram:0000000000000036 .L0 
C:\Users\stapi\AppData\Local\Temp\ccH5TxCZ.s:160    .text.ip_reass_free_complete_datagram:0000000000000036 .L0 
C:\Users\stapi\AppData\Local\Temp\ccH5TxCZ.s:161    .text.ip_reass_free_complete_datagram:0000000000000036 .L0 
C:\Users\stapi\AppData\Local\Temp\ccH5TxCZ.s:164    .text.ip_reass_free_complete_datagram:0000000000000038 .L0 
C:\Users\stapi\AppData\Local\Temp\ccH5TxCZ.s:165    .text.ip_reass_free_complete_datagram:0000000000000038 .L0 
C:\Users\stapi\AppData\Local\Temp\ccH5TxCZ.s:168    .text.ip_reass_free_complete_datagram:000000000000003e .L0 
C:\Users\stapi\AppData\Local\Temp\ccH5TxCZ.s:169    .text.ip_reass_free_complete_datagram:000000000000003e .L0 
C:\Users\stapi\AppData\Local\Temp\ccH5TxCZ.s:181    .text.ip_reass_free_complete_datagram:0000000000000062 .L0 
C:\Users\stapi\AppData\Local\Temp\ccH5TxCZ.s:182    .text.ip_reass_free_complete_datagram:0000000000000062 .L0 
C:\Users\stapi\AppData\Local\Temp\ccH5TxCZ.s:183    .text.ip_reass_free_complete_datagram:0000000000000062 .L0 
C:\Users\stapi\AppData\Local\Temp\ccH5TxCZ.s:189    .text.ip_reass_free_complete_datagram:0000000000000064 .L0 
C:\Users\stapi\AppData\Local\Temp\ccH5TxCZ.s:190    .text.ip_reass_free_complete_datagram:0000000000000064 .L0 
C:\Users\stapi\AppData\Local\Temp\ccH5TxCZ.s:191    .text.ip_reass_free_complete_datagram:0000000000000064 .L0 
C:\Users\stapi\AppData\Local\Temp\ccH5TxCZ.s:192    .text.ip_reass_free_complete_datagram:0000000000000064 .L0 
C:\Users\stapi\AppData\Local\Temp\ccH5TxCZ.s:193    .text.ip_reass_free_complete_datagram:0000000000000064 .L0 
C:\Users\stapi\AppData\Local\Temp\ccH5TxCZ.s:195    .text.ip_reass_free_complete_datagram:0000000000000068 .L0 
C:\Users\stapi\AppData\Local\Temp\ccH5TxCZ.s:197    .text.ip_reass_free_complete_datagram:000000000000006a .L0 
C:\Users\stapi\AppData\Local\Temp\ccH5TxCZ.s:200    .text.ip_reass_free_complete_datagram:000000000000006e .L0 
C:\Users\stapi\AppData\Local\Temp\ccH5TxCZ.s:201    .text.ip_reass_free_complete_datagram:000000000000006e .L0 
C:\Users\stapi\AppData\Local\Temp\ccH5TxCZ.s:205    .text.ip_reass_free_complete_datagram:0000000000000078 .L0 
C:\Users\stapi\AppData\Local\Temp\ccH5TxCZ.s:209    .text.ip_reass_free_complete_datagram:000000000000007c .L0 
C:\Users\stapi\AppData\Local\Temp\ccH5TxCZ.s:210    .text.ip_reass_free_complete_datagram:000000000000007c .L0 
C:\Users\stapi\AppData\Local\Temp\ccH5TxCZ.s:211    .text.ip_reass_free_complete_datagram:000000000000007c .L0 
C:\Users\stapi\AppData\Local\Temp\ccH5TxCZ.s:214    .text.ip_reass_free_complete_datagram:0000000000000084 .L0 
C:\Users\stapi\AppData\Local\Temp\ccH5TxCZ.s:216    .text.ip_reass_free_complete_datagram:0000000000000086 .L0 
C:\Users\stapi\AppData\Local\Temp\ccH5TxCZ.s:220    .text.ip_reass_free_complete_datagram:000000000000008e .L0 
C:\Users\stapi\AppData\Local\Temp\ccH5TxCZ.s:223    .text.ip_reass_free_complete_datagram:0000000000000092 .L0 
C:\Users\stapi\AppData\Local\Temp\ccH5TxCZ.s:229    .text.ip_reass_free_complete_datagram:000000000000009e .L0 
C:\Users\stapi\AppData\Local\Temp\ccH5TxCZ.s:231    .text.ip_reass_free_complete_datagram:00000000000000a0 .L0 
C:\Users\stapi\AppData\Local\Temp\ccH5TxCZ.s:234    .text.ip_reass_free_complete_datagram:00000000000000a8 .L0 
C:\Users\stapi\AppData\Local\Temp\ccH5TxCZ.s:239    .text.ip_reass_free_complete_datagram:00000000000000b4 .L0 
C:\Users\stapi\AppData\Local\Temp\ccH5TxCZ.s:240    .text.ip_reass_free_complete_datagram:00000000000000b4 .L0 
C:\Users\stapi\AppData\Local\Temp\ccH5TxCZ.s:246    .text.ip_reass_free_complete_datagram:00000000000000c0 .L0 
C:\Users\stapi\AppData\Local\Temp\ccH5TxCZ.s:247    .text.ip_reass_free_complete_datagram:00000000000000c0 .L0 
C:\Users\stapi\AppData\Local\Temp\ccH5TxCZ.s:248    .text.ip_reass_free_complete_datagram:00000000000000c0 .L0 
C:\Users\stapi\AppData\Local\Temp\ccH5TxCZ.s:249    .text.ip_reass_free_complete_datagram:00000000000000c0 .L0 
C:\Users\stapi\AppData\Local\Temp\ccH5TxCZ.s:250    .text.ip_reass_free_complete_datagram:00000000000000c0 .L0 
C:\Users\stapi\AppData\Local\Temp\ccH5TxCZ.s:251    .text.ip_reass_free_complete_datagram:00000000000000c0 .L0 
C:\Users\stapi\AppData\Local\Temp\ccH5TxCZ.s:256    .text.ip_reass_free_complete_datagram:00000000000000ca .L0 
C:\Users\stapi\AppData\Local\Temp\ccH5TxCZ.s:257    .text.ip_reass_free_complete_datagram:00000000000000ca .L0 
C:\Users\stapi\AppData\Local\Temp\ccH5TxCZ.s:261    .text.ip_reass_free_complete_datagram:00000000000000ce .L0 
C:\Users\stapi\AppData\Local\Temp\ccH5TxCZ.s:262    .text.ip_reass_free_complete_datagram:00000000000000ce .L0 
C:\Users\stapi\AppData\Local\Temp\ccH5TxCZ.s:266    .text.ip_reass_free_complete_datagram:00000000000000d0 .L0 
C:\Users\stapi\AppData\Local\Temp\ccH5TxCZ.s:268    .text.ip_reass_free_complete_datagram:00000000000000d4 .L0 
C:\Users\stapi\AppData\Local\Temp\ccH5TxCZ.s:273    .text.ip_reass_free_complete_datagram:00000000000000e0 .L0 
C:\Users\stapi\AppData\Local\Temp\ccH5TxCZ.s:274    .text.ip_reass_free_complete_datagram:00000000000000e0 .L0 
C:\Users\stapi\AppData\Local\Temp\ccH5TxCZ.s:279    .text.ip_reass_free_complete_datagram:00000000000000f0 .L0 
C:\Users\stapi\AppData\Local\Temp\ccH5TxCZ.s:280    .text.ip_reass_free_complete_datagram:00000000000000f0 .L0 
C:\Users\stapi\AppData\Local\Temp\ccH5TxCZ.s:291    .text.ip_reass_free_complete_datagram:0000000000000114 .L0 
C:\Users\stapi\AppData\Local\Temp\ccH5TxCZ.s:292    .text.ip_reass_free_complete_datagram:0000000000000114 .L0 
C:\Users\stapi\AppData\Local\Temp\ccH5TxCZ.s:293    .text.ip_reass_free_complete_datagram:0000000000000114 .L0 
C:\Users\stapi\AppData\Local\Temp\ccH5TxCZ.s:297    .text.ip_reass_free_complete_datagram:0000000000000116 .L0 
C:\Users\stapi\AppData\Local\Temp\ccH5TxCZ.s:298    .text.ip_reass_free_complete_datagram:0000000000000116 .L0 
C:\Users\stapi\AppData\Local\Temp\ccH5TxCZ.s:299    .text.ip_reass_free_complete_datagram:0000000000000116 .L0 
C:\Users\stapi\AppData\Local\Temp\ccH5TxCZ.s:302    .text.ip_reass_free_complete_datagram:000000000000011a .L0 
C:\Users\stapi\AppData\Local\Temp\ccH5TxCZ.s:303    .text.ip_reass_free_complete_datagram:000000000000011a .L0 
C:\Users\stapi\AppData\Local\Temp\ccH5TxCZ.s:304    .text.ip_reass_free_complete_datagram:000000000000011a .L0 
C:\Users\stapi\AppData\Local\Temp\ccH5TxCZ.s:306    .text.ip_reass_free_complete_datagram:000000000000011c .L0 
C:\Users\stapi\AppData\Local\Temp\ccH5TxCZ.s:318    .text.ip_reass_free_complete_datagram:000000000000013e .L0 
C:\Users\stapi\AppData\Local\Temp\ccH5TxCZ.s:319    .text.ip_reass_free_complete_datagram:000000000000013e .L0 
C:\Users\stapi\AppData\Local\Temp\ccH5TxCZ.s:322    .text.ip_reass_free_complete_datagram:0000000000000146 .L0 
C:\Users\stapi\AppData\Local\Temp\ccH5TxCZ.s:323    .text.ip_reass_free_complete_datagram:0000000000000146 .L0 
C:\Users\stapi\AppData\Local\Temp\ccH5TxCZ.s:327    .text.ip_reass_free_complete_datagram:000000000000014c .L0 
C:\Users\stapi\AppData\Local\Temp\ccH5TxCZ.s:328    .text.ip_reass_free_complete_datagram:000000000000014c .L0 
C:\Users\stapi\AppData\Local\Temp\ccH5TxCZ.s:340    .text.ip_reass_free_complete_datagram:0000000000000170 .L0 
C:\Users\stapi\AppData\Local\Temp\ccH5TxCZ.s:341    .text.ip_reass_free_complete_datagram:0000000000000170 .L0 
C:\Users\stapi\AppData\Local\Temp\ccH5TxCZ.s:342    .text.ip_reass_free_complete_datagram:0000000000000170 .L0 
C:\Users\stapi\AppData\Local\Temp\ccH5TxCZ.s:346    .text.ip_reass_free_complete_datagram:0000000000000172 .L0 
C:\Users\stapi\AppData\Local\Temp\ccH5TxCZ.s:347    .text.ip_reass_free_complete_datagram:0000000000000172 .L0 
C:\Users\stapi\AppData\Local\Temp\ccH5TxCZ.s:348    .text.ip_reass_free_complete_datagram:0000000000000172 .L0 
C:\Users\stapi\AppData\Local\Temp\ccH5TxCZ.s:349    .text.ip_reass_free_complete_datagram:0000000000000172 .L0 
C:\Users\stapi\AppData\Local\Temp\ccH5TxCZ.s:354    .text.ip_reass_free_complete_datagram:000000000000017c .L0 
C:\Users\stapi\AppData\Local\Temp\ccH5TxCZ.s:357    .text.ip_reass_free_complete_datagram:000000000000017e .L0 
C:\Users\stapi\AppData\Local\Temp\ccH5TxCZ.s:360    .text.ip_reass_free_complete_datagram:0000000000000182 .L0 
C:\Users\stapi\AppData\Local\Temp\ccH5TxCZ.s:365    .text.ip_reass_free_complete_datagram:0000000000000184 .L0 
C:\Users\stapi\AppData\Local\Temp\ccH5TxCZ.s:366    .text.ip_reass_free_complete_datagram:0000000000000184 .L0 
C:\Users\stapi\AppData\Local\Temp\ccH5TxCZ.s:367    .text.ip_reass_free_complete_datagram:0000000000000184 .L0 
C:\Users\stapi\AppData\Local\Temp\ccH5TxCZ.s:368    .text.ip_reass_free_complete_datagram:0000000000000184 .L0 
C:\Users\stapi\AppData\Local\Temp\ccH5TxCZ.s:370    .text.ip_reass_free_complete_datagram:0000000000000186 .L0 
C:\Users\stapi\AppData\Local\Temp\ccH5TxCZ.s:375    .text.ip_reass_free_complete_datagram:000000000000018a .L0 
C:\Users\stapi\AppData\Local\Temp\ccH5TxCZ.s:376    .text.ip_reass_free_complete_datagram:000000000000018a .L0 
C:\Users\stapi\AppData\Local\Temp\ccH5TxCZ.s:378    .text.ip_reass_free_complete_datagram:0000000000000194 .L0 
C:\Users\stapi\AppData\Local\Temp\ccH5TxCZ.s:379    .text.ip_reass_free_complete_datagram:0000000000000194 .L0 
C:\Users\stapi\AppData\Local\Temp\ccH5TxCZ.s:380    .text.ip_reass_free_complete_datagram:0000000000000194 .L0 
C:\Users\stapi\AppData\Local\Temp\ccH5TxCZ.s:381    .text.ip_reass_free_complete_datagram:0000000000000194 .L0 
C:\Users\stapi\AppData\Local\Temp\ccH5TxCZ.s:382    .text.ip_reass_free_complete_datagram:0000000000000194 .L0 
C:\Users\stapi\AppData\Local\Temp\ccH5TxCZ.s:383    .text.ip_reass_free_complete_datagram:0000000000000194 .L0 
C:\Users\stapi\AppData\Local\Temp\ccH5TxCZ.s:384    .text.ip_reass_free_complete_datagram:0000000000000194 .L0 
C:\Users\stapi\AppData\Local\Temp\ccH5TxCZ.s:385    .text.ip_reass_free_complete_datagram:0000000000000194 .L0 
C:\Users\stapi\AppData\Local\Temp\ccH5TxCZ.s:386    .text.ip_reass_free_complete_datagram:0000000000000194 .L0 
C:\Users\stapi\AppData\Local\Temp\ccH5TxCZ.s:392    .text.ip_reass_remove_oldest_datagram:0000000000000000 ip_reass_remove_oldest_datagram
C:\Users\stapi\AppData\Local\Temp\ccH5TxCZ.s:395    .text.ip_reass_remove_oldest_datagram:0000000000000000 .L0 
C:\Users\stapi\AppData\Local\Temp\ccH5TxCZ.s:397    .text.ip_reass_remove_oldest_datagram:0000000000000000 .L0 
C:\Users\stapi\AppData\Local\Temp\ccH5TxCZ.s:398    .text.ip_reass_remove_oldest_datagram:0000000000000008 .L0 
C:\Users\stapi\AppData\Local\Temp\ccH5TxCZ.s:399    .text.ip_reass_remove_oldest_datagram:0000000000000008 .L0 
C:\Users\stapi\AppData\Local\Temp\ccH5TxCZ.s:400    .text.ip_reass_remove_oldest_datagram:0000000000000008 .L0 
C:\Users\stapi\AppData\Local\Temp\ccH5TxCZ.s:401    .text.ip_reass_remove_oldest_datagram:0000000000000008 .L0 
C:\Users\stapi\AppData\Local\Temp\ccH5TxCZ.s:402    .text.ip_reass_remove_oldest_datagram:0000000000000008 .L0 
C:\Users\stapi\AppData\Local\Temp\ccH5TxCZ.s:403    .text.ip_reass_remove_oldest_datagram:0000000000000008 .L0 
C:\Users\stapi\AppData\Local\Temp\ccH5TxCZ.s:404    .text.ip_reass_remove_oldest_datagram:0000000000000008 .L0 
C:\Users\stapi\AppData\Local\Temp\ccH5TxCZ.s:405    .text.ip_reass_remove_oldest_datagram:0000000000000008 .L0 
C:\Users\stapi\AppData\Local\Temp\ccH5TxCZ.s:407    .text.ip_reass_remove_oldest_datagram:0000000000000008 .L0 
C:\Users\stapi\AppData\Local\Temp\ccH5TxCZ.s:409    .text.ip_reass_remove_oldest_datagram:0000000000000008 .L0 
C:\Users\stapi\AppData\Local\Temp\ccH5TxCZ.s:410    .text.ip_reass_remove_oldest_datagram:0000000000000008 .L0 
C:\Users\stapi\AppData\Local\Temp\ccH5TxCZ.s:413    .text.ip_reass_remove_oldest_datagram:000000000000000c .L0 
C:\Users\stapi\AppData\Local\Temp\ccH5TxCZ.s:415    .text.ip_reass_remove_oldest_datagram:000000000000000e .L0 
C:\Users\stapi\AppData\Local\Temp\ccH5TxCZ.s:417    .text.ip_reass_remove_oldest_datagram:0000000000000012 .L0 
C:\Users\stapi\AppData\Local\Temp\ccH5TxCZ.s:421    .text.ip_reass_remove_oldest_datagram:0000000000000014 .L0 
C:\Users\stapi\AppData\Local\Temp\ccH5TxCZ.s:422    .text.ip_reass_remove_oldest_datagram:0000000000000014 .L0 
C:\Users\stapi\AppData\Local\Temp\ccH5TxCZ.s:423    .text.ip_reass_remove_oldest_datagram:0000000000000014 .L0 
C:\Users\stapi\AppData\Local\Temp\ccH5TxCZ.s:424    .text.ip_reass_remove_oldest_datagram:0000000000000014 .L0 
C:\Users\stapi\AppData\Local\Temp\ccH5TxCZ.s:425    .text.ip_reass_remove_oldest_datagram:0000000000000014 .L0 
C:\Users\stapi\AppData\Local\Temp\ccH5TxCZ.s:426    .text.ip_reass_remove_oldest_datagram:0000000000000014 .L0 
C:\Users\stapi\AppData\Local\Temp\ccH5TxCZ.s:427    .text.ip_reass_remove_oldest_datagram:0000000000000014 .L0 
C:\Users\stapi\AppData\Local\Temp\ccH5TxCZ.s:428    .text.ip_reass_remove_oldest_datagram:0000000000000014 .L0 
C:\Users\stapi\AppData\Local\Temp\ccH5TxCZ.s:431    .text.ip_reass_remove_oldest_datagram:0000000000000018 .L0 
C:\Users\stapi\AppData\Local\Temp\ccH5TxCZ.s:432    .text.ip_reass_remove_oldest_datagram:0000000000000018 .L0 
C:\Users\stapi\AppData\Local\Temp\ccH5TxCZ.s:434    .text.ip_reass_remove_oldest_datagram:000000000000001a .L0 
C:\Users\stapi\AppData\Local\Temp\ccH5TxCZ.s:436    .text.ip_reass_remove_oldest_datagram:000000000000001c .L0 
C:\Users\stapi\AppData\Local\Temp\ccH5TxCZ.s:438    .text.ip_reass_remove_oldest_datagram:000000000000001e .L0 
C:\Users\stapi\AppData\Local\Temp\ccH5TxCZ.s:442    .text.ip_reass_remove_oldest_datagram:0000000000000020 .L0 
C:\Users\stapi\AppData\Local\Temp\ccH5TxCZ.s:444    .text.ip_reass_remove_oldest_datagram:0000000000000022 .L0 
C:\Users\stapi\AppData\Local\Temp\ccH5TxCZ.s:445    .text.ip_reass_remove_oldest_datagram:0000000000000022 .L0 
C:\Users\stapi\AppData\Local\Temp\ccH5TxCZ.s:447    .text.ip_reass_remove_oldest_datagram:0000000000000024 .L0 
C:\Users\stapi\AppData\Local\Temp\ccH5TxCZ.s:448    .text.ip_reass_remove_oldest_datagram:0000000000000024 .L0 
C:\Users\stapi\AppData\Local\Temp\ccH5TxCZ.s:451    .text.ip_reass_remove_oldest_datagram:000000000000002c .L0 
C:\Users\stapi\AppData\Local\Temp\ccH5TxCZ.s:452    .text.ip_reass_remove_oldest_datagram:000000000000002c .L0 
C:\Users\stapi\AppData\Local\Temp\ccH5TxCZ.s:456    .text.ip_reass_remove_oldest_datagram:000000000000002e .L0 
C:\Users\stapi\AppData\Local\Temp\ccH5TxCZ.s:457    .text.ip_reass_remove_oldest_datagram:000000000000002e .L0 
C:\Users\stapi\AppData\Local\Temp\ccH5TxCZ.s:459    .text.ip_reass_remove_oldest_datagram:0000000000000032 .L0 
C:\Users\stapi\AppData\Local\Temp\ccH5TxCZ.s:462    .text.ip_reass_remove_oldest_datagram:0000000000000036 .L0 
C:\Users\stapi\AppData\Local\Temp\ccH5TxCZ.s:464    .text.ip_reass_remove_oldest_datagram:0000000000000040 .L0 
C:\Users\stapi\AppData\Local\Temp\ccH5TxCZ.s:465    .text.ip_reass_remove_oldest_datagram:0000000000000040 .L0 
C:\Users\stapi\AppData\Local\Temp\ccH5TxCZ.s:466    .text.ip_reass_remove_oldest_datagram:0000000000000040 .L0 
C:\Users\stapi\AppData\Local\Temp\ccH5TxCZ.s:467    .text.ip_reass_remove_oldest_datagram:0000000000000040 .L0 
C:\Users\stapi\AppData\Local\Temp\ccH5TxCZ.s:468    .text.ip_reass_remove_oldest_datagram:0000000000000040 .L0 
C:\Users\stapi\AppData\Local\Temp\ccH5TxCZ.s:469    .text.ip_reass_remove_oldest_datagram:0000000000000040 .L0 
C:\Users\stapi\AppData\Local\Temp\ccH5TxCZ.s:470    .text.ip_reass_remove_oldest_datagram:0000000000000040 .L0 
C:\Users\stapi\AppData\Local\Temp\ccH5TxCZ.s:471    .text.ip_reass_remove_oldest_datagram:0000000000000040 .L0 
C:\Users\stapi\AppData\Local\Temp\ccH5TxCZ.s:472    .text.ip_reass_remove_oldest_datagram:0000000000000040 .L0 
C:\Users\stapi\AppData\Local\Temp\ccH5TxCZ.s:475    .text.ip_reass_remove_oldest_datagram:0000000000000040 .L0 
C:\Users\stapi\AppData\Local\Temp\ccH5TxCZ.s:477    .text.ip_reass_remove_oldest_datagram:0000000000000040 .L0 
C:\Users\stapi\AppData\Local\Temp\ccH5TxCZ.s:478    .text.ip_reass_remove_oldest_datagram:0000000000000040 .L0 
C:\Users\stapi\AppData\Local\Temp\ccH5TxCZ.s:489    .text.ip_reass_remove_oldest_datagram:000000000000005c .L0 
C:\Users\stapi\AppData\Local\Temp\ccH5TxCZ.s:492    .text.ip_reass_remove_oldest_datagram:0000000000000062 .L0 
C:\Users\stapi\AppData\Local\Temp\ccH5TxCZ.s:505    .text.ip_reass_remove_oldest_datagram:0000000000000084 .L0 
C:\Users\stapi\AppData\Local\Temp\ccH5TxCZ.s:508    .text.ip_reass_remove_oldest_datagram:000000000000008c .L0 
C:\Users\stapi\AppData\Local\Temp\ccH5TxCZ.s:510    .text.ip_reass_remove_oldest_datagram:0000000000000090 .L0 
C:\Users\stapi\AppData\Local\Temp\ccH5TxCZ.s:512    .text.ip_reass_remove_oldest_datagram:0000000000000092 .L0 
C:\Users\stapi\AppData\Local\Temp\ccH5TxCZ.s:516    .text.ip_reass_remove_oldest_datagram:000000000000009a .L0 
C:\Users\stapi\AppData\Local\Temp\ccH5TxCZ.s:517    .text.ip_reass_remove_oldest_datagram:000000000000009a .L0 
C:\Users\stapi\AppData\Local\Temp\ccH5TxCZ.s:520    .text.ip_reass_remove_oldest_datagram:000000000000009c .L0 
C:\Users\stapi\AppData\Local\Temp\ccH5TxCZ.s:521    .text.ip_reass_remove_oldest_datagram:000000000000009c .L0 
C:\Users\stapi\AppData\Local\Temp\ccH5TxCZ.s:523    .text.ip_reass_remove_oldest_datagram:000000000000009e .L0 
C:\Users\stapi\AppData\Local\Temp\ccH5TxCZ.s:524    .text.ip_reass_remove_oldest_datagram:000000000000009e .L0 
C:\Users\stapi\AppData\Local\Temp\ccH5TxCZ.s:529    .text.ip_reass_remove_oldest_datagram:00000000000000aa .L0 
C:\Users\stapi\AppData\Local\Temp\ccH5TxCZ.s:535    .text.ip_reass_remove_oldest_datagram:00000000000000ae .L0 
C:\Users\stapi\AppData\Local\Temp\ccH5TxCZ.s:536    .text.ip_reass_remove_oldest_datagram:00000000000000ae .L0 
C:\Users\stapi\AppData\Local\Temp\ccH5TxCZ.s:538    .text.ip_reass_remove_oldest_datagram:00000000000000b0 .L0 
C:\Users\stapi\AppData\Local\Temp\ccH5TxCZ.s:543    .text.ip_reass_remove_oldest_datagram:00000000000000b4 .L0 
C:\Users\stapi\AppData\Local\Temp\ccH5TxCZ.s:546    .text.ip_reass_remove_oldest_datagram:00000000000000b8 .L0 
C:\Users\stapi\AppData\Local\Temp\ccH5TxCZ.s:556    .text.ip_frag_free_pbuf_custom_ref:0000000000000000 ip_frag_free_pbuf_custom_ref
C:\Users\stapi\AppData\Local\Temp\ccH5TxCZ.s:559    .text.ip_frag_free_pbuf_custom_ref:0000000000000000 .L0 
C:\Users\stapi\AppData\Local\Temp\ccH5TxCZ.s:561    .text.ip_frag_free_pbuf_custom_ref:0000000000000000 .L0 
C:\Users\stapi\AppData\Local\Temp\ccH5TxCZ.s:562    .text.ip_frag_free_pbuf_custom_ref:0000000000000008 .L0 
C:\Users\stapi\AppData\Local\Temp\ccH5TxCZ.s:563    .text.ip_frag_free_pbuf_custom_ref:0000000000000008 .L0 
C:\Users\stapi\AppData\Local\Temp\ccH5TxCZ.s:565    .text.ip_frag_free_pbuf_custom_ref:0000000000000008 .L0 
C:\Users\stapi\AppData\Local\Temp\ccH5TxCZ.s:566    .text.ip_frag_free_pbuf_custom_ref:0000000000000008 .L0 
C:\Users\stapi\AppData\Local\Temp\ccH5TxCZ.s:571    .text.ip_frag_free_pbuf_custom_ref:000000000000000a .L0 
C:\Users\stapi\AppData\Local\Temp\ccH5TxCZ.s:572    .text.ip_frag_free_pbuf_custom_ref:000000000000000a .L0 
C:\Users\stapi\AppData\Local\Temp\ccH5TxCZ.s:584    .text.ip_frag_free_pbuf_custom_ref:000000000000002e .L0 
C:\Users\stapi\AppData\Local\Temp\ccH5TxCZ.s:585    .text.ip_frag_free_pbuf_custom_ref:000000000000002e .L0 
C:\Users\stapi\AppData\Local\Temp\ccH5TxCZ.s:586    .text.ip_frag_free_pbuf_custom_ref:000000000000002e .L0 
C:\Users\stapi\AppData\Local\Temp\ccH5TxCZ.s:593    .text.ip_frag_free_pbuf_custom_ref:0000000000000032 .L0 
C:\Users\stapi\AppData\Local\Temp\ccH5TxCZ.s:594    .text.ip_frag_free_pbuf_custom_ref:0000000000000032 .L0 
C:\Users\stapi\AppData\Local\Temp\ccH5TxCZ.s:595    .text.ip_frag_free_pbuf_custom_ref:0000000000000032 .L0 
C:\Users\stapi\AppData\Local\Temp\ccH5TxCZ.s:600    .text.ip_frag_free_pbuf_custom_ref:000000000000003c .L0 
C:\Users\stapi\AppData\Local\Temp\ccH5TxCZ.s:601    .text.ip_frag_free_pbuf_custom_ref:0000000000000044 .L0 
C:\Users\stapi\AppData\Local\Temp\ccH5TxCZ.s:602    .text.ip_frag_free_pbuf_custom_ref:0000000000000044 .L0 
C:\Users\stapi\AppData\Local\Temp\ccH5TxCZ.s:603    .text.ip_frag_free_pbuf_custom_ref:0000000000000044 .L0 
C:\Users\stapi\AppData\Local\Temp\ccH5TxCZ.s:613    .text.ipfrag_free_pbuf_custom:0000000000000000 ipfrag_free_pbuf_custom
C:\Users\stapi\AppData\Local\Temp\ccH5TxCZ.s:616    .text.ipfrag_free_pbuf_custom:0000000000000000 .L0 
C:\Users\stapi\AppData\Local\Temp\ccH5TxCZ.s:618    .text.ipfrag_free_pbuf_custom:0000000000000000 .L0 
C:\Users\stapi\AppData\Local\Temp\ccH5TxCZ.s:619    .text.ipfrag_free_pbuf_custom:0000000000000008 .L0 
C:\Users\stapi\AppData\Local\Temp\ccH5TxCZ.s:620    .text.ipfrag_free_pbuf_custom:0000000000000008 .L0 
C:\Users\stapi\AppData\Local\Temp\ccH5TxCZ.s:621    .text.ipfrag_free_pbuf_custom:0000000000000008 .L0 
C:\Users\stapi\AppData\Local\Temp\ccH5TxCZ.s:624    .text.ipfrag_free_pbuf_custom:0000000000000008 .L0 
C:\Users\stapi\AppData\Local\Temp\ccH5TxCZ.s:625    .text.ipfrag_free_pbuf_custom:0000000000000008 .L0 
C:\Users\stapi\AppData\Local\Temp\ccH5TxCZ.s:626    .text.ipfrag_free_pbuf_custom:0000000000000008 .L0 
C:\Users\stapi\AppData\Local\Temp\ccH5TxCZ.s:631    .text.ipfrag_free_pbuf_custom:000000000000000a .L0 
C:\Users\stapi\AppData\Local\Temp\ccH5TxCZ.s:632    .text.ipfrag_free_pbuf_custom:000000000000000a .L0 
C:\Users\stapi\AppData\Local\Temp\ccH5TxCZ.s:644    .text.ipfrag_free_pbuf_custom:000000000000002e .L0 
C:\Users\stapi\AppData\Local\Temp\ccH5TxCZ.s:645    .text.ipfrag_free_pbuf_custom:000000000000002e .L0 
C:\Users\stapi\AppData\Local\Temp\ccH5TxCZ.s:646    .text.ipfrag_free_pbuf_custom:000000000000002e .L0 
C:\Users\stapi\AppData\Local\Temp\ccH5TxCZ.s:653    .text.ipfrag_free_pbuf_custom:0000000000000032 .L0 
C:\Users\stapi\AppData\Local\Temp\ccH5TxCZ.s:654    .text.ipfrag_free_pbuf_custom:0000000000000032 .L0 
C:\Users\stapi\AppData\Local\Temp\ccH5TxCZ.s:655    .text.ipfrag_free_pbuf_custom:0000000000000032 .L0 
C:\Users\stapi\AppData\Local\Temp\ccH5TxCZ.s:656    .text.ipfrag_free_pbuf_custom:0000000000000032 .L0 
C:\Users\stapi\AppData\Local\Temp\ccH5TxCZ.s:657    .text.ipfrag_free_pbuf_custom:0000000000000032 .L0 
C:\Users\stapi\AppData\Local\Temp\ccH5TxCZ.s:658    .text.ipfrag_free_pbuf_custom:0000000000000032 .L0 
C:\Users\stapi\AppData\Local\Temp\ccH5TxCZ.s:659    .text.ipfrag_free_pbuf_custom:0000000000000032 .L0 
C:\Users\stapi\AppData\Local\Temp\ccH5TxCZ.s:660    .text.ipfrag_free_pbuf_custom:0000000000000032 .L0 
C:\Users\stapi\AppData\Local\Temp\ccH5TxCZ.s:663    .text.ipfrag_free_pbuf_custom:0000000000000034 .L0 
C:\Users\stapi\AppData\Local\Temp\ccH5TxCZ.s:665    .text.ipfrag_free_pbuf_custom:0000000000000036 .L0 
C:\Users\stapi\AppData\Local\Temp\ccH5TxCZ.s:669    .text.ipfrag_free_pbuf_custom:000000000000003e .L0 
C:\Users\stapi\AppData\Local\Temp\ccH5TxCZ.s:673    .text.ipfrag_free_pbuf_custom:0000000000000048 .L0 
C:\Users\stapi\AppData\Local\Temp\ccH5TxCZ.s:674    .text.ipfrag_free_pbuf_custom:0000000000000050 .L0 
C:\Users\stapi\AppData\Local\Temp\ccH5TxCZ.s:675    .text.ipfrag_free_pbuf_custom:0000000000000050 .L0 
C:\Users\stapi\AppData\Local\Temp\ccH5TxCZ.s:676    .text.ipfrag_free_pbuf_custom:0000000000000050 .L0 
C:\Users\stapi\AppData\Local\Temp\ccH5TxCZ.s:677    .text.ipfrag_free_pbuf_custom:0000000000000050 .L0 
C:\Users\stapi\AppData\Local\Temp\ccH5TxCZ.s:684    .text.ip_reass_tmr:0000000000000000 ip_reass_tmr
C:\Users\stapi\AppData\Local\Temp\ccH5TxCZ.s:687    .text.ip_reass_tmr:0000000000000000 .L0 
C:\Users\stapi\AppData\Local\Temp\ccH5TxCZ.s:688    .text.ip_reass_tmr:0000000000000000 .L0 
C:\Users\stapi\AppData\Local\Temp\ccH5TxCZ.s:689    .text.ip_reass_tmr:0000000000000008 .L0 
C:\Users\stapi\AppData\Local\Temp\ccH5TxCZ.s:690    .text.ip_reass_tmr:0000000000000008 .L0 
C:\Users\stapi\AppData\Local\Temp\ccH5TxCZ.s:691    .text.ip_reass_tmr:0000000000000008 .L0 
C:\Users\stapi\AppData\Local\Temp\ccH5TxCZ.s:692    .text.ip_reass_tmr:0000000000000008 .L0 
C:\Users\stapi\AppData\Local\Temp\ccH5TxCZ.s:695    .text.ip_reass_tmr:0000000000000008 .L0 
C:\Users\stapi\AppData\Local\Temp\ccH5TxCZ.s:696    .text.ip_reass_tmr:0000000000000008 .L0 
C:\Users\stapi\AppData\Local\Temp\ccH5TxCZ.s:697    .text.ip_reass_tmr:0000000000000008 .L0 
C:\Users\stapi\AppData\Local\Temp\ccH5TxCZ.s:701    .text.ip_reass_tmr:0000000000000010 .L0 
C:\Users\stapi\AppData\Local\Temp\ccH5TxCZ.s:702    .text.ip_reass_tmr:0000000000000010 .L0 
C:\Users\stapi\AppData\Local\Temp\ccH5TxCZ.s:706    .text.ip_reass_tmr:0000000000000012 .L0 
C:\Users\stapi\AppData\Local\Temp\ccH5TxCZ.s:708    .text.ip_reass_tmr:0000000000000014 .L0 
C:\Users\stapi\AppData\Local\Temp\ccH5TxCZ.s:709    .text.ip_reass_tmr:000000000000001c .L0 
C:\Users\stapi\AppData\Local\Temp\ccH5TxCZ.s:710    .text.ip_reass_tmr:000000000000001c .L0 
C:\Users\stapi\AppData\Local\Temp\ccH5TxCZ.s:711    .text.ip_reass_tmr:000000000000001c .L0 
C:\Users\stapi\AppData\Local\Temp\ccH5TxCZ.s:712    .text.ip_reass_tmr:000000000000001c .L0 
C:\Users\stapi\AppData\Local\Temp\ccH5TxCZ.s:713    .text.ip_reass_tmr:000000000000001c .L0 
C:\Users\stapi\AppData\Local\Temp\ccH5TxCZ.s:715    .text.ip_reass_tmr:000000000000001c .L0 
C:\Users\stapi\AppData\Local\Temp\ccH5TxCZ.s:717    .text.ip_reass_tmr:000000000000001c .L0 
C:\Users\stapi\AppData\Local\Temp\ccH5TxCZ.s:718    .text.ip_reass_tmr:000000000000001c .L0 
C:\Users\stapi\AppData\Local\Temp\ccH5TxCZ.s:720    .text.ip_reass_tmr:0000000000000020 .L0 
C:\Users\stapi\AppData\Local\Temp\ccH5TxCZ.s:722    .text.ip_reass_tmr:0000000000000022 .L0 
C:\Users\stapi\AppData\Local\Temp\ccH5TxCZ.s:724    .text.ip_reass_tmr:0000000000000024 .L0 
C:\Users\stapi\AppData\Local\Temp\ccH5TxCZ.s:725    .text.ip_reass_tmr:0000000000000024 .L0 
C:\Users\stapi\AppData\Local\Temp\ccH5TxCZ.s:728    .text.ip_reass_tmr:000000000000002a .L0 
C:\Users\stapi\AppData\Local\Temp\ccH5TxCZ.s:730    .text.ip_reass_tmr:000000000000002a .L0 
C:\Users\stapi\AppData\Local\Temp\ccH5TxCZ.s:733    .text.ip_reass_tmr:000000000000002a .L0 
C:\Users\stapi\AppData\Local\Temp\ccH5TxCZ.s:734    .text.ip_reass_tmr:000000000000002a .L0 
C:\Users\stapi\AppData\Local\Temp\ccH5TxCZ.s:741    .text.ip_reass_tmr:0000000000000030 .L0 
C:\Users\stapi\AppData\Local\Temp\ccH5TxCZ.s:742    .text.ip_reass_tmr:0000000000000030 .L0 
C:\Users\stapi\AppData\Local\Temp\ccH5TxCZ.s:743    .text.ip_reass_tmr:0000000000000030 .L0 
C:\Users\stapi\AppData\Local\Temp\ccH5TxCZ.s:744    .text.ip_reass_tmr:0000000000000030 .L0 
C:\Users\stapi\AppData\Local\Temp\ccH5TxCZ.s:745    .text.ip_reass_tmr:0000000000000030 .L0 
C:\Users\stapi\AppData\Local\Temp\ccH5TxCZ.s:751    .text.ip_reass_tmr:000000000000003e .L0 
C:\Users\stapi\AppData\Local\Temp\ccH5TxCZ.s:777    .text.ip4_reass:0000000000000000 ip4_reass
C:\Users\stapi\AppData\Local\Temp\ccH5TxCZ.s:780    .text.ip4_reass:0000000000000000 .L0 
C:\Users\stapi\AppData\Local\Temp\ccH5TxCZ.s:782    .text.ip4_reass:0000000000000000 .L0 
C:\Users\stapi\AppData\Local\Temp\ccH5TxCZ.s:783    .text.ip4_reass:0000000000000008 .L0 
C:\Users\stapi\AppData\Local\Temp\ccH5TxCZ.s:784    .text.ip4_reass:0000000000000008 .L0 
C:\Users\stapi\AppData\Local\Temp\ccH5TxCZ.s:785    .text.ip4_reass:0000000000000008 .L0 
C:\Users\stapi\AppData\Local\Temp\ccH5TxCZ.s:786    .text.ip4_reass:0000000000000008 .L0 
C:\Users\stapi\AppData\Local\Temp\ccH5TxCZ.s:787    .text.ip4_reass:0000000000000008 .L0 
C:\Users\stapi\AppData\Local\Temp\ccH5TxCZ.s:788    .text.ip4_reass:0000000000000008 .L0 
C:\Users\stapi\AppData\Local\Temp\ccH5TxCZ.s:789    .text.ip4_reass:0000000000000008 .L0 
C:\Users\stapi\AppData\Local\Temp\ccH5TxCZ.s:790    .text.ip4_reass:0000000000000008 .L0 
C:\Users\stapi\AppData\Local\Temp\ccH5TxCZ.s:791    .text.ip4_reass:0000000000000008 .L0 
C:\Users\stapi\AppData\Local\Temp\ccH5TxCZ.s:792    .text.ip4_reass:0000000000000008 .L0 
C:\Users\stapi\AppData\Local\Temp\ccH5TxCZ.s:793    .text.ip4_reass:0000000000000008 .L0 
C:\Users\stapi\AppData\Local\Temp\ccH5TxCZ.s:794    .text.ip4_reass:0000000000000008 .L0 
C:\Users\stapi\AppData\Local\Temp\ccH5TxCZ.s:796    .text.ip4_reass:0000000000000008 .L0 
C:\Users\stapi\AppData\Local\Temp\ccH5TxCZ.s:797    .text.ip4_reass:0000000000000008 .L0 
C:\Users\stapi\AppData\Local\Temp\ccH5TxCZ.s:798    .text.ip4_reass:0000000000000008 .L0 
C:\Users\stapi\AppData\Local\Temp\ccH5TxCZ.s:799    .text.ip4_reass:0000000000000008 .L0 
C:\Users\stapi\AppData\Local\Temp\ccH5TxCZ.s:800    .text.ip4_reass:0000000000000008 .L0 
C:\Users\stapi\AppData\Local\Temp\ccH5TxCZ.s:801    .text.ip4_reass:0000000000000008 .L0 
C:\Users\stapi\AppData\Local\Temp\ccH5TxCZ.s:802    .text.ip4_reass:0000000000000008 .L0 
C:\Users\stapi\AppData\Local\Temp\ccH5TxCZ.s:803    .text.ip4_reass:0000000000000008 .L0 
C:\Users\stapi\AppData\Local\Temp\ccH5TxCZ.s:804    .text.ip4_reass:0000000000000008 .L0 
C:\Users\stapi\AppData\Local\Temp\ccH5TxCZ.s:805    .text.ip4_reass:0000000000000008 .L0 
C:\Users\stapi\AppData\Local\Temp\ccH5TxCZ.s:806    .text.ip4_reass:0000000000000008 .L0 
C:\Users\stapi\AppData\Local\Temp\ccH5TxCZ.s:807    .text.ip4_reass:0000000000000008 .L0 
C:\Users\stapi\AppData\Local\Temp\ccH5TxCZ.s:810    .text.ip4_reass:000000000000000a .L0 
C:\Users\stapi\AppData\Local\Temp\ccH5TxCZ.s:811    .text.ip4_reass:000000000000000a .L0 
C:\Users\stapi\AppData\Local\Temp\ccH5TxCZ.s:813    .text.ip4_reass:000000000000000c .L0 
C:\Users\stapi\AppData\Local\Temp\ccH5TxCZ.s:815    .text.ip4_reass:000000000000000e .L0 
C:\Users\stapi\AppData\Local\Temp\ccH5TxCZ.s:818    .text.ip4_reass:0000000000000014 .L0 
C:\Users\stapi\AppData\Local\Temp\ccH5TxCZ.s:821    .text.ip4_reass:000000000000001a .L0 
C:\Users\stapi\AppData\Local\Temp\ccH5TxCZ.s:822    .text.ip4_reass:000000000000001a .L0 
C:\Users\stapi\AppData\Local\Temp\ccH5TxCZ.s:830    .text.ip4_reass:000000000000002e .L0 
C:\Users\stapi\AppData\Local\Temp\ccH5TxCZ.s:832    .text.ip4_reass:0000000000000032 .L0 
C:\Users\stapi\AppData\Local\Temp\ccH5TxCZ.s:835    .text.ip4_reass:0000000000000034 .L0 
C:\Users\stapi\AppData\Local\Temp\ccH5TxCZ.s:836    .text.ip4_reass:0000000000000034 .L0 
C:\Users\stapi\AppData\Local\Temp\ccH5TxCZ.s:842    .text.ip4_reass:0000000000000044 .L0 
C:\Users\stapi\AppData\Local\Temp\ccH5TxCZ.s:843    .text.ip4_reass:0000000000000044 .L0 
C:\Users\stapi\AppData\Local\Temp\ccH5TxCZ.s:844    .text.ip4_reass:0000000000000044 .L0 
C:\Users\stapi\AppData\Local\Temp\ccH5TxCZ.s:847    .text.ip4_reass:000000000000004c .L0 
C:\Users\stapi\AppData\Local\Temp\ccH5TxCZ.s:849    .text.ip4_reass:000000000000004e .L0 
C:\Users\stapi\AppData\Local\Temp\ccH5TxCZ.s:851    .text.ip4_reass:0000000000000052 .L0 
C:\Users\stapi\AppData\Local\Temp\ccH5TxCZ.s:852    .text.ip4_reass:0000000000000052 .L0 
C:\Users\stapi\AppData\Local\Temp\ccH5TxCZ.s:854    .text.ip4_reass:0000000000000056 .L0 
C:\Users\stapi\AppData\Local\Temp\ccH5TxCZ.s:859    .text.ip4_reass:0000000000000060 .L0 
C:\Users\stapi\AppData\Local\Temp\ccH5TxCZ.s:862    .text.ip4_reass:0000000000000068 .L0 
C:\Users\stapi\AppData\Local\Temp\ccH5TxCZ.s:864    .text.ip4_reass:000000000000006a .L0 
C:\Users\stapi\AppData\Local\Temp\ccH5TxCZ.s:866    .text.ip4_reass:000000000000006c .L0 
C:\Users\stapi\AppData\Local\Temp\ccH5TxCZ.s:869    .text.ip4_reass:0000000000000072 .L0 
C:\Users\stapi\AppData\Local\Temp\ccH5TxCZ.s:872    .text.ip4_reass:0000000000000076 .L0 
C:\Users\stapi\AppData\Local\Temp\ccH5TxCZ.s:873    .text.ip4_reass:0000000000000076 .L0 
C:\Users\stapi\AppData\Local\Temp\ccH5TxCZ.s:874    .text.ip4_reass:0000000000000076 .L0 
C:\Users\stapi\AppData\Local\Temp\ccH5TxCZ.s:878    .text.ip4_reass:000000000000007a .L0 
C:\Users\stapi\AppData\Local\Temp\ccH5TxCZ.s:879    .text.ip4_reass:000000000000007a .L0 
C:\Users\stapi\AppData\Local\Temp\ccH5TxCZ.s:885    .text.ip4_reass:0000000000000086 .L0 
C:\Users\stapi\AppData\Local\Temp\ccH5TxCZ.s:886    .text.ip4_reass:0000000000000086 .L0 
C:\Users\stapi\AppData\Local\Temp\ccH5TxCZ.s:888    .text.ip4_reass:0000000000000088 .L0 
C:\Users\stapi\AppData\Local\Temp\ccH5TxCZ.s:892    .text.ip4_reass:0000000000000088 .L0 
C:\Users\stapi\AppData\Local\Temp\ccH5TxCZ.s:893    .text.ip4_reass:0000000000000088 .L0 
C:\Users\stapi\AppData\Local\Temp\ccH5TxCZ.s:894    .text.ip4_reass:0000000000000088 .L0 
C:\Users\stapi\AppData\Local\Temp\ccH5TxCZ.s:895    .text.ip4_reass:0000000000000088 .L0 
C:\Users\stapi\AppData\Local\Temp\ccH5TxCZ.s:901    .text.ip4_reass:0000000000000094 .L0 
C:\Users\stapi\AppData\Local\Temp\ccH5TxCZ.s:902    .text.ip4_reass:0000000000000094 .L0 
C:\Users\stapi\AppData\Local\Temp\ccH5TxCZ.s:904    .text.ip4_reass:0000000000000096 .L0 
C:\Users\stapi\AppData\Local\Temp\ccH5TxCZ.s:905    .text.ip4_reass:0000000000000096 .L0 
C:\Users\stapi\AppData\Local\Temp\ccH5TxCZ.s:910    .text.ip4_reass:00000000000000a2 .L0 
C:\Users\stapi\AppData\Local\Temp\ccH5TxCZ.s:912    .text.ip4_reass:00000000000000a6 .L0 
C:\Users\stapi\AppData\Local\Temp\ccH5TxCZ.s:913    .text.ip4_reass:00000000000000a6 .L0 
C:\Users\stapi\AppData\Local\Temp\ccH5TxCZ.s:919    .text.ip4_reass:00000000000000b2 .L0 
C:\Users\stapi\AppData\Local\Temp\ccH5TxCZ.s:920    .text.ip4_reass:00000000000000b2 .L0 
C:\Users\stapi\AppData\Local\Temp\ccH5TxCZ.s:923    .text.ip4_reass:00000000000000b4 .L0 
C:\Users\stapi\AppData\Local\Temp\ccH5TxCZ.s:929    .text.ip4_reass:00000000000000c4 .L0 
C:\Users\stapi\AppData\Local\Temp\ccH5TxCZ.s:930    .text.ip4_reass:00000000000000c4 .L0 
C:\Users\stapi\AppData\Local\Temp\ccH5TxCZ.s:933    .text.ip4_reass:00000000000000ca .L0 
C:\Users\stapi\AppData\Local\Temp\ccH5TxCZ.s:934    .text.ip4_reass:00000000000000ca .L0 
C:\Users\stapi\AppData\Local\Temp\ccH5TxCZ.s:936    .text.ip4_reass:00000000000000ce .L0 
C:\Users\stapi\AppData\Local\Temp\ccH5TxCZ.s:938    .text.ip4_reass:00000000000000d2 .L0 
C:\Users\stapi\AppData\Local\Temp\ccH5TxCZ.s:940    .text.ip4_reass:00000000000000d4 .L0 
C:\Users\stapi\AppData\Local\Temp\ccH5TxCZ.s:945    .text.ip4_reass:00000000000000d4 .L0 
C:\Users\stapi\AppData\Local\Temp\ccH5TxCZ.s:946    .text.ip4_reass:00000000000000d4 .L0 
C:\Users\stapi\AppData\Local\Temp\ccH5TxCZ.s:955    .text.ip4_reass:00000000000000e6 .L0 
C:\Users\stapi\AppData\Local\Temp\ccH5TxCZ.s:956    .text.ip4_reass:00000000000000e6 .L0 
C:\Users\stapi\AppData\Local\Temp\ccH5TxCZ.s:962    .text.ip4_reass:00000000000000f2 .L0 
C:\Users\stapi\AppData\Local\Temp\ccH5TxCZ.s:964    .text.ip4_reass:00000000000000f4 .L0 
C:\Users\stapi\AppData\Local\Temp\ccH5TxCZ.s:967    .text.ip4_reass:00000000000000fa .L0 
C:\Users\stapi\AppData\Local\Temp\ccH5TxCZ.s:971    .text.ip4_reass:00000000000000fe .L0 
C:\Users\stapi\AppData\Local\Temp\ccH5TxCZ.s:972    .text.ip4_reass:00000000000000fe .L0 
C:\Users\stapi\AppData\Local\Temp\ccH5TxCZ.s:973    .text.ip4_reass:00000000000000fe .L0 
C:\Users\stapi\AppData\Local\Temp\ccH5TxCZ.s:977    .text.ip4_reass:0000000000000108 .L0 
C:\Users\stapi\AppData\Local\Temp\ccH5TxCZ.s:978    .text.ip4_reass:0000000000000108 .L0 
C:\Users\stapi\AppData\Local\Temp\ccH5TxCZ.s:984    .text.ip4_reass:000000000000010c .L0 
C:\Users\stapi\AppData\Local\Temp\ccH5TxCZ.s:985    .text.ip4_reass:000000000000010c .L0 
C:\Users\stapi\AppData\Local\Temp\ccH5TxCZ.s:996    .text.ip4_reass:0000000000000128 .L0 
C:\Users\stapi\AppData\Local\Temp\ccH5TxCZ.s:999    .text.ip4_reass:000000000000012e .L0 
C:\Users\stapi\AppData\Local\Temp\ccH5TxCZ.s:1012   .text.ip4_reass:0000000000000150 .L0 
C:\Users\stapi\AppData\Local\Temp\ccH5TxCZ.s:1020   .text.ip4_reass:0000000000000164 .L0 
C:\Users\stapi\AppData\Local\Temp\ccH5TxCZ.s:1021   .text.ip4_reass:0000000000000164 .L0 
C:\Users\stapi\AppData\Local\Temp\ccH5TxCZ.s:1029   .text.ip4_reass:0000000000000168 .L0 
C:\Users\stapi\AppData\Local\Temp\ccH5TxCZ.s:1030   .text.ip4_reass:0000000000000168 .L0 
C:\Users\stapi\AppData\Local\Temp\ccH5TxCZ.s:1033   .text.ip4_reass:000000000000016a .L0 
C:\Users\stapi\AppData\Local\Temp\ccH5TxCZ.s:1034   .text.ip4_reass:000000000000016a .L0 
C:\Users\stapi\AppData\Local\Temp\ccH5TxCZ.s:1039   .text.ip4_reass:0000000000000178 .L0 
C:\Users\stapi\AppData\Local\Temp\ccH5TxCZ.s:1041   .text.ip4_reass:000000000000017c .L0 
C:\Users\stapi\AppData\Local\Temp\ccH5TxCZ.s:1042   .text.ip4_reass:000000000000017c .L0 
C:\Users\stapi\AppData\Local\Temp\ccH5TxCZ.s:1052   .text.ip4_reass:0000000000000196 .L0 
C:\Users\stapi\AppData\Local\Temp\ccH5TxCZ.s:1053   .text.ip4_reass:0000000000000196 .L0 
C:\Users\stapi\AppData\Local\Temp\ccH5TxCZ.s:1055   .text.ip4_reass:0000000000000198 .L0 
C:\Users\stapi\AppData\Local\Temp\ccH5TxCZ.s:1056   .text.ip4_reass:0000000000000198 .L0 
C:\Users\stapi\AppData\Local\Temp\ccH5TxCZ.s:1061   .text.ip4_reass:00000000000001a4 .L0 
C:\Users\stapi\AppData\Local\Temp\ccH5TxCZ.s:1063   .text.ip4_reass:00000000000001a8 .L0 
C:\Users\stapi\AppData\Local\Temp\ccH5TxCZ.s:1066   .text.ip4_reass:00000000000001ac .L0 
C:\Users\stapi\AppData\Local\Temp\ccH5TxCZ.s:1067   .text.ip4_reass:00000000000001ac .L0 
C:\Users\stapi\AppData\Local\Temp\ccH5TxCZ.s:1068   .text.ip4_reass:00000000000001ac .L0 
C:\Users\stapi\AppData\Local\Temp\ccH5TxCZ.s:1069   .text.ip4_reass:00000000000001ac .L0 
C:\Users\stapi\AppData\Local\Temp\ccH5TxCZ.s:1078   .text.ip4_reass:00000000000001c8 .L0 
C:\Users\stapi\AppData\Local\Temp\ccH5TxCZ.s:1079   .text.ip4_reass:00000000000001c8 .L0 
C:\Users\stapi\AppData\Local\Temp\ccH5TxCZ.s:1082   .text.ip4_reass:00000000000001cc .L0 
C:\Users\stapi\AppData\Local\Temp\ccH5TxCZ.s:1083   .text.ip4_reass:00000000000001cc .L0 
C:\Users\stapi\AppData\Local\Temp\ccH5TxCZ.s:1087   .text.ip4_reass:00000000000001d0 .L0 
C:\Users\stapi\AppData\Local\Temp\ccH5TxCZ.s:1093   .text.ip4_reass:00000000000001da .L0 
C:\Users\stapi\AppData\Local\Temp\ccH5TxCZ.s:1094   .text.ip4_reass:00000000000001da .L0 
C:\Users\stapi\AppData\Local\Temp\ccH5TxCZ.s:1096   .text.ip4_reass:00000000000001de .L0 
C:\Users\stapi\AppData\Local\Temp\ccH5TxCZ.s:1097   .text.ip4_reass:00000000000001de .L0 
C:\Users\stapi\AppData\Local\Temp\ccH5TxCZ.s:1099   .text.ip4_reass:00000000000001e0 .L0 
C:\Users\stapi\AppData\Local\Temp\ccH5TxCZ.s:1101   .text.ip4_reass:00000000000001e4 .L0 
C:\Users\stapi\AppData\Local\Temp\ccH5TxCZ.s:1104   .text.ip4_reass:00000000000001e6 .L0 
C:\Users\stapi\AppData\Local\Temp\ccH5TxCZ.s:1108   .text.ip4_reass:00000000000001f0 .L0 
C:\Users\stapi\AppData\Local\Temp\ccH5TxCZ.s:1112   .text.ip4_reass:00000000000001f6 .L0 
C:\Users\stapi\AppData\Local\Temp\ccH5TxCZ.s:1113   .text.ip4_reass:00000000000001f6 .L0 
C:\Users\stapi\AppData\Local\Temp\ccH5TxCZ.s:1114   .text.ip4_reass:00000000000001f6 .L0 
C:\Users\stapi\AppData\Local\Temp\ccH5TxCZ.s:1127   .text.ip4_reass:0000000000000212 .L0 
C:\Users\stapi\AppData\Local\Temp\ccH5TxCZ.s:1128   .text.ip4_reass:0000000000000212 .L0 
C:\Users\stapi\AppData\Local\Temp\ccH5TxCZ.s:1131   .text.ip4_reass:0000000000000214 .L0 
C:\Users\stapi\AppData\Local\Temp\ccH5TxCZ.s:1132   .text.ip4_reass:0000000000000214 .L0 
C:\Users\stapi\AppData\Local\Temp\ccH5TxCZ.s:1133   .text.ip4_reass:0000000000000214 .L0 
C:\Users\stapi\AppData\Local\Temp\ccH5TxCZ.s:1134   .text.ip4_reass:0000000000000214 .L0 
C:\Users\stapi\AppData\Local\Temp\ccH5TxCZ.s:1135   .text.ip4_reass:0000000000000214 .L0 
C:\Users\stapi\AppData\Local\Temp\ccH5TxCZ.s:1136   .text.ip4_reass:0000000000000214 .L0 
C:\Users\stapi\AppData\Local\Temp\ccH5TxCZ.s:1137   .text.ip4_reass:0000000000000214 .L0 
C:\Users\stapi\AppData\Local\Temp\ccH5TxCZ.s:1139   .text.ip4_reass:0000000000000218 .L0 
C:\Users\stapi\AppData\Local\Temp\ccH5TxCZ.s:1140   .text.ip4_reass:0000000000000218 .L0 
C:\Users\stapi\AppData\Local\Temp\ccH5TxCZ.s:1151   .text.ip4_reass:000000000000023c .L0 
C:\Users\stapi\AppData\Local\Temp\ccH5TxCZ.s:1152   .text.ip4_reass:000000000000023c .L0 
C:\Users\stapi\AppData\Local\Temp\ccH5TxCZ.s:1153   .text.ip4_reass:000000000000023c .L0 
C:\Users\stapi\AppData\Local\Temp\ccH5TxCZ.s:1157   .text.ip4_reass:000000000000023e .L0 
C:\Users\stapi\AppData\Local\Temp\ccH5TxCZ.s:1158   .text.ip4_reass:000000000000023e .L0 
C:\Users\stapi\AppData\Local\Temp\ccH5TxCZ.s:1161   .text.ip4_reass:0000000000000242 .L0 
C:\Users\stapi\AppData\Local\Temp\ccH5TxCZ.s:1162   .text.ip4_reass:0000000000000242 .L0 
C:\Users\stapi\AppData\Local\Temp\ccH5TxCZ.s:1163   .text.ip4_reass:0000000000000242 .L0 
C:\Users\stapi\AppData\Local\Temp\ccH5TxCZ.s:1164   .text.ip4_reass:0000000000000242 .L0 
C:\Users\stapi\AppData\Local\Temp\ccH5TxCZ.s:1169   .text.ip4_reass:0000000000000248 .L0 
C:\Users\stapi\AppData\Local\Temp\ccH5TxCZ.s:1170   .text.ip4_reass:0000000000000248 .L0 
C:\Users\stapi\AppData\Local\Temp\ccH5TxCZ.s:1172   .text.ip4_reass:000000000000024c .L0 
C:\Users\stapi\AppData\Local\Temp\ccH5TxCZ.s:1173   .text.ip4_reass:000000000000024c .L0 
C:\Users\stapi\AppData\Local\Temp\ccH5TxCZ.s:1178   .text.ip4_reass:0000000000000256 .L0 
C:\Users\stapi\AppData\Local\Temp\ccH5TxCZ.s:1181   .text.ip4_reass:000000000000025e .L0 
C:\Users\stapi\AppData\Local\Temp\ccH5TxCZ.s:1182   .text.ip4_reass:000000000000025e .L0 
C:\Users\stapi\AppData\Local\Temp\ccH5TxCZ.s:1184   .text.ip4_reass:0000000000000260 .L0 
C:\Users\stapi\AppData\Local\Temp\ccH5TxCZ.s:1185   .text.ip4_reass:0000000000000260 .L0 
C:\Users\stapi\AppData\Local\Temp\ccH5TxCZ.s:1190   .text.ip4_reass:000000000000026a .L0 
C:\Users\stapi\AppData\Local\Temp\ccH5TxCZ.s:1193   .text.ip4_reass:0000000000000270 .L0 
C:\Users\stapi\AppData\Local\Temp\ccH5TxCZ.s:1197   .text.ip4_reass:0000000000000272 .L0 
C:\Users\stapi\AppData\Local\Temp\ccH5TxCZ.s:1198   .text.ip4_reass:0000000000000272 .L0 
C:\Users\stapi\AppData\Local\Temp\ccH5TxCZ.s:1210   .text.ip4_reass:000000000000028e .L0 
C:\Users\stapi\AppData\Local\Temp\ccH5TxCZ.s:1211   .text.ip4_reass:000000000000028e .L0 
C:\Users\stapi\AppData\Local\Temp\ccH5TxCZ.s:1216   .text.ip4_reass:0000000000000292 .L0 
C:\Users\stapi\AppData\Local\Temp\ccH5TxCZ.s:1217   .text.ip4_reass:0000000000000292 .L0 
C:\Users\stapi\AppData\Local\Temp\ccH5TxCZ.s:1224   .text.ip4_reass:00000000000002a2 .L0 
C:\Users\stapi\AppData\Local\Temp\ccH5TxCZ.s:1225   .text.ip4_reass:00000000000002a2 .L0 
C:\Users\stapi\AppData\Local\Temp\ccH5TxCZ.s:1237   .text.ip4_reass:00000000000002c6 .L0 
C:\Users\stapi\AppData\Local\Temp\ccH5TxCZ.s:1238   .text.ip4_reass:00000000000002c6 .L0 
C:\Users\stapi\AppData\Local\Temp\ccH5TxCZ.s:1239   .text.ip4_reass:00000000000002c6 .L0 
C:\Users\stapi\AppData\Local\Temp\ccH5TxCZ.s:1243   .text.ip4_reass:00000000000002c8 .L0 
C:\Users\stapi\AppData\Local\Temp\ccH5TxCZ.s:1244   .text.ip4_reass:00000000000002c8 .L0 
C:\Users\stapi\AppData\Local\Temp\ccH5TxCZ.s:1247   .text.ip4_reass:00000000000002ca .L0 
C:\Users\stapi\AppData\Local\Temp\ccH5TxCZ.s:1248   .text.ip4_reass:00000000000002ca .L0 
C:\Users\stapi\AppData\Local\Temp\ccH5TxCZ.s:1252   .text.ip4_reass:00000000000002d2 .L0 
C:\Users\stapi\AppData\Local\Temp\ccH5TxCZ.s:1256   .text.ip4_reass:00000000000002da .L0 
C:\Users\stapi\AppData\Local\Temp\ccH5TxCZ.s:1258   .text.ip4_reass:00000000000002dc .L0 
C:\Users\stapi\AppData\Local\Temp\ccH5TxCZ.s:1260   .text.ip4_reass:00000000000002de .L0 
C:\Users\stapi\AppData\Local\Temp\ccH5TxCZ.s:1265   .text.ip4_reass:00000000000002e6 .L0 
C:\Users\stapi\AppData\Local\Temp\ccH5TxCZ.s:1266   .text.ip4_reass:00000000000002e6 .L0 
C:\Users\stapi\AppData\Local\Temp\ccH5TxCZ.s:1267   .text.ip4_reass:00000000000002e6 .L0 
C:\Users\stapi\AppData\Local\Temp\ccH5TxCZ.s:1283   .text.ip4_reass:0000000000000306 .L0 
C:\Users\stapi\AppData\Local\Temp\ccH5TxCZ.s:1284   .text.ip4_reass:0000000000000306 .L0 
C:\Users\stapi\AppData\Local\Temp\ccH5TxCZ.s:1285   .text.ip4_reass:0000000000000306 .L0 
C:\Users\stapi\AppData\Local\Temp\ccH5TxCZ.s:1286   .text.ip4_reass:0000000000000306 .L0 
C:\Users\stapi\AppData\Local\Temp\ccH5TxCZ.s:1300   .text.ip4_reass:0000000000000326 .L0 
C:\Users\stapi\AppData\Local\Temp\ccH5TxCZ.s:1301   .text.ip4_reass:0000000000000326 .L0 
C:\Users\stapi\AppData\Local\Temp\ccH5TxCZ.s:1312   .text.ip4_reass:000000000000034a .L0 
C:\Users\stapi\AppData\Local\Temp\ccH5TxCZ.s:1313   .text.ip4_reass:000000000000034a .L0 
C:\Users\stapi\AppData\Local\Temp\ccH5TxCZ.s:1314   .text.ip4_reass:000000000000034a .L0 
C:\Users\stapi\AppData\Local\Temp\ccH5TxCZ.s:1321   .text.ip4_reass:000000000000034c .L0 
C:\Users\stapi\AppData\Local\Temp\ccH5TxCZ.s:1322   .text.ip4_reass:000000000000034c .L0 
C:\Users\stapi\AppData\Local\Temp\ccH5TxCZ.s:1325   .text.ip4_reass:0000000000000350 .L0 
C:\Users\stapi\AppData\Local\Temp\ccH5TxCZ.s:1328   .text.ip4_reass:0000000000000354 .L0 
C:\Users\stapi\AppData\Local\Temp\ccH5TxCZ.s:1331   .text.ip4_reass:000000000000035c .L0 
C:\Users\stapi\AppData\Local\Temp\ccH5TxCZ.s:1336   .text.ip4_reass:0000000000000368 .L0 
C:\Users\stapi\AppData\Local\Temp\ccH5TxCZ.s:1337   .text.ip4_reass:0000000000000368 .L0 
C:\Users\stapi\AppData\Local\Temp\ccH5TxCZ.s:1353   .text.ip4_reass:0000000000000386 .L0 
C:\Users\stapi\AppData\Local\Temp\ccH5TxCZ.s:1354   .text.ip4_reass:0000000000000386 .L0 
C:\Users\stapi\AppData\Local\Temp\ccH5TxCZ.s:1359   .text.ip4_reass:000000000000038a .L0 
C:\Users\stapi\AppData\Local\Temp\ccH5TxCZ.s:1360   .text.ip4_reass:000000000000038a .L0 
C:\Users\stapi\AppData\Local\Temp\ccH5TxCZ.s:1361   .text.ip4_reass:000000000000038a .L0 
C:\Users\stapi\AppData\Local\Temp\ccH5TxCZ.s:1362   .text.ip4_reass:000000000000038a .L0 
C:\Users\stapi\AppData\Local\Temp\ccH5TxCZ.s:1364   .text.ip4_reass:000000000000038c .L0 
C:\Users\stapi\AppData\Local\Temp\ccH5TxCZ.s:1366   .text.ip4_reass:0000000000000390 .L0 
C:\Users\stapi\AppData\Local\Temp\ccH5TxCZ.s:1370   .text.ip4_reass:0000000000000390 .L0 
C:\Users\stapi\AppData\Local\Temp\ccH5TxCZ.s:1371   .text.ip4_reass:0000000000000390 .L0 
C:\Users\stapi\AppData\Local\Temp\ccH5TxCZ.s:1373   .text.ip4_reass:000000000000039a .L0 
C:\Users\stapi\AppData\Local\Temp\ccH5TxCZ.s:1374   .text.ip4_reass:000000000000039a .L0 
C:\Users\stapi\AppData\Local\Temp\ccH5TxCZ.s:1375   .text.ip4_reass:000000000000039a .L0 
C:\Users\stapi\AppData\Local\Temp\ccH5TxCZ.s:1376   .text.ip4_reass:000000000000039a .L0 
C:\Users\stapi\AppData\Local\Temp\ccH5TxCZ.s:1377   .text.ip4_reass:000000000000039a .L0 
C:\Users\stapi\AppData\Local\Temp\ccH5TxCZ.s:1378   .text.ip4_reass:000000000000039a .L0 
C:\Users\stapi\AppData\Local\Temp\ccH5TxCZ.s:1379   .text.ip4_reass:000000000000039a .L0 
C:\Users\stapi\AppData\Local\Temp\ccH5TxCZ.s:1380   .text.ip4_reass:000000000000039a .L0 
C:\Users\stapi\AppData\Local\Temp\ccH5TxCZ.s:1381   .text.ip4_reass:000000000000039a .L0 
C:\Users\stapi\AppData\Local\Temp\ccH5TxCZ.s:1382   .text.ip4_reass:000000000000039a .L0 
C:\Users\stapi\AppData\Local\Temp\ccH5TxCZ.s:1383   .text.ip4_reass:000000000000039a .L0 
C:\Users\stapi\AppData\Local\Temp\ccH5TxCZ.s:1384   .text.ip4_reass:000000000000039a .L0 
C:\Users\stapi\AppData\Local\Temp\ccH5TxCZ.s:1385   .text.ip4_reass:000000000000039a .L0 
C:\Users\stapi\AppData\Local\Temp\ccH5TxCZ.s:1388   .text.ip4_reass:000000000000039a .L0 
C:\Users\stapi\AppData\Local\Temp\ccH5TxCZ.s:1390   .text.ip4_reass:000000000000039a .L0 
C:\Users\stapi\AppData\Local\Temp\ccH5TxCZ.s:1391   .text.ip4_reass:000000000000039a .L0 
C:\Users\stapi\AppData\Local\Temp\ccH5TxCZ.s:1392   .text.ip4_reass:000000000000039a .L0 
C:\Users\stapi\AppData\Local\Temp\ccH5TxCZ.s:1399   .text.ip4_reass:00000000000003a8 .L0 
C:\Users\stapi\AppData\Local\Temp\ccH5TxCZ.s:1400   .text.ip4_reass:00000000000003a8 .L0 
C:\Users\stapi\AppData\Local\Temp\ccH5TxCZ.s:1401   .text.ip4_reass:00000000000003a8 .L0 
C:\Users\stapi\AppData\Local\Temp\ccH5TxCZ.s:1402   .text.ip4_reass:00000000000003a8 .L0 
C:\Users\stapi\AppData\Local\Temp\ccH5TxCZ.s:1403   .text.ip4_reass:00000000000003a8 .L0 
C:\Users\stapi\AppData\Local\Temp\ccH5TxCZ.s:1404   .text.ip4_reass:00000000000003a8 .L0 
C:\Users\stapi\AppData\Local\Temp\ccH5TxCZ.s:1407   .text.ip4_reass:00000000000003ae .L0 
C:\Users\stapi\AppData\Local\Temp\ccH5TxCZ.s:1408   .text.ip4_reass:00000000000003ae .L0 
C:\Users\stapi\AppData\Local\Temp\ccH5TxCZ.s:1411   .text.ip4_reass:00000000000003b6 .L0 
C:\Users\stapi\AppData\Local\Temp\ccH5TxCZ.s:1412   .text.ip4_reass:00000000000003b6 .L0 
C:\Users\stapi\AppData\Local\Temp\ccH5TxCZ.s:1423   .text.ip4_reass:00000000000003da .L0 
C:\Users\stapi\AppData\Local\Temp\ccH5TxCZ.s:1424   .text.ip4_reass:00000000000003da .L0 
C:\Users\stapi\AppData\Local\Temp\ccH5TxCZ.s:1425   .text.ip4_reass:00000000000003da .L0 
C:\Users\stapi\AppData\Local\Temp\ccH5TxCZ.s:1429   .text.ip4_reass:00000000000003dc .L0 
C:\Users\stapi\AppData\Local\Temp\ccH5TxCZ.s:1430   .text.ip4_reass:00000000000003dc .L0 
C:\Users\stapi\AppData\Local\Temp\ccH5TxCZ.s:1431   .text.ip4_reass:00000000000003dc .L0 
C:\Users\stapi\AppData\Local\Temp\ccH5TxCZ.s:1434   .text.ip4_reass:00000000000003e4 .L0 
C:\Users\stapi\AppData\Local\Temp\ccH5TxCZ.s:1436   .text.ip4_reass:00000000000003e6 .L0 
C:\Users\stapi\AppData\Local\Temp\ccH5TxCZ.s:1441   .text.ip4_reass:00000000000003f2 .L0 
C:\Users\stapi\AppData\Local\Temp\ccH5TxCZ.s:1446   .text.ip4_reass:00000000000003fe .L0 
C:\Users\stapi\AppData\Local\Temp\ccH5TxCZ.s:1450   .text.ip4_reass:000000000000040a .L0 
C:\Users\stapi\AppData\Local\Temp\ccH5TxCZ.s:1455   .text.ip4_reass:0000000000000412 .L0 
C:\Users\stapi\AppData\Local\Temp\ccH5TxCZ.s:1457   .text.ip4_reass:0000000000000416 .L0 
C:\Users\stapi\AppData\Local\Temp\ccH5TxCZ.s:1460   .text.ip4_reass:0000000000000418 .L0 
C:\Users\stapi\AppData\Local\Temp\ccH5TxCZ.s:1463   .text.ip4_reass:000000000000041c .L0 
C:\Users\stapi\AppData\Local\Temp\ccH5TxCZ.s:1466   .text.ip4_reass:0000000000000420 .L0 
C:\Users\stapi\AppData\Local\Temp\ccH5TxCZ.s:1467   .text.ip4_reass:0000000000000420 .L0 
C:\Users\stapi\AppData\Local\Temp\ccH5TxCZ.s:1470   .text.ip4_reass:0000000000000424 .L0 
C:\Users\stapi\AppData\Local\Temp\ccH5TxCZ.s:1471   .text.ip4_reass:0000000000000424 .L0 
C:\Users\stapi\AppData\Local\Temp\ccH5TxCZ.s:1475   .text.ip4_reass:000000000000042c .L0 
C:\Users\stapi\AppData\Local\Temp\ccH5TxCZ.s:1476   .text.ip4_reass:000000000000042c .L0 
C:\Users\stapi\AppData\Local\Temp\ccH5TxCZ.s:1478   .text.ip4_reass:0000000000000430 .L0 
C:\Users\stapi\AppData\Local\Temp\ccH5TxCZ.s:1487   .text.ip4_reass:0000000000000438 .L0 
C:\Users\stapi\AppData\Local\Temp\ccH5TxCZ.s:1488   .text.ip4_reass:0000000000000438 .L0 
C:\Users\stapi\AppData\Local\Temp\ccH5TxCZ.s:1489   .text.ip4_reass:0000000000000438 .L0 
C:\Users\stapi\AppData\Local\Temp\ccH5TxCZ.s:1490   .text.ip4_reass:0000000000000438 .L0 
C:\Users\stapi\AppData\Local\Temp\ccH5TxCZ.s:1491   .text.ip4_reass:0000000000000438 .L0 
C:\Users\stapi\AppData\Local\Temp\ccH5TxCZ.s:1492   .text.ip4_reass:0000000000000438 .L0 
C:\Users\stapi\AppData\Local\Temp\ccH5TxCZ.s:1493   .text.ip4_reass:0000000000000438 .L0 
C:\Users\stapi\AppData\Local\Temp\ccH5TxCZ.s:1494   .text.ip4_reass:0000000000000438 .L0 
C:\Users\stapi\AppData\Local\Temp\ccH5TxCZ.s:1495   .text.ip4_reass:0000000000000438 .L0 
C:\Users\stapi\AppData\Local\Temp\ccH5TxCZ.s:1498   .text.ip4_reass:000000000000043c .L0 
C:\Users\stapi\AppData\Local\Temp\ccH5TxCZ.s:1499   .text.ip4_reass:000000000000043c .L0 
C:\Users\stapi\AppData\Local\Temp\ccH5TxCZ.s:1506   .text.ip4_reass:0000000000000450 .L0 
C:\Users\stapi\AppData\Local\Temp\ccH5TxCZ.s:1507   .text.ip4_reass:0000000000000450 .L0 
C:\Users\stapi\AppData\Local\Temp\ccH5TxCZ.s:1508   .text.ip4_reass:0000000000000450 .L0 
C:\Users\stapi\AppData\Local\Temp\ccH5TxCZ.s:1512   .text.ip4_reass:0000000000000456 .L0 
C:\Users\stapi\AppData\Local\Temp\ccH5TxCZ.s:1514   .text.ip4_reass:0000000000000458 .L0 
C:\Users\stapi\AppData\Local\Temp\ccH5TxCZ.s:1516   .text.ip4_reass:000000000000045c .L0 
C:\Users\stapi\AppData\Local\Temp\ccH5TxCZ.s:1517   .text.ip4_reass:000000000000045c .L0 
C:\Users\stapi\AppData\Local\Temp\ccH5TxCZ.s:1519   .text.ip4_reass:0000000000000460 .L0 
C:\Users\stapi\AppData\Local\Temp\ccH5TxCZ.s:1524   .text.ip4_reass:0000000000000466 .L0 
C:\Users\stapi\AppData\Local\Temp\ccH5TxCZ.s:1525   .text.ip4_reass:0000000000000466 .L0 
C:\Users\stapi\AppData\Local\Temp\ccH5TxCZ.s:1531   .text.ip4_reass:0000000000000476 .L0 
C:\Users\stapi\AppData\Local\Temp\ccH5TxCZ.s:1533   .text.ip4_reass:000000000000047a .L0 
C:\Users\stapi\AppData\Local\Temp\ccH5TxCZ.s:1535   .text.ip4_reass:000000000000047e .L0 
C:\Users\stapi\AppData\Local\Temp\ccH5TxCZ.s:1538   .text.ip4_reass:0000000000000480 .L0 
C:\Users\stapi\AppData\Local\Temp\ccH5TxCZ.s:1539   .text.ip4_reass:0000000000000480 .L0 
C:\Users\stapi\AppData\Local\Temp\ccH5TxCZ.s:1540   .text.ip4_reass:0000000000000480 .L0 
C:\Users\stapi\AppData\Local\Temp\ccH5TxCZ.s:1541   .text.ip4_reass:0000000000000480 .L0 
C:\Users\stapi\AppData\Local\Temp\ccH5TxCZ.s:1542   .text.ip4_reass:0000000000000480 .L0 
C:\Users\stapi\AppData\Local\Temp\ccH5TxCZ.s:1543   .text.ip4_reass:0000000000000480 .L0 
C:\Users\stapi\AppData\Local\Temp\ccH5TxCZ.s:1544   .text.ip4_reass:0000000000000480 .L0 
C:\Users\stapi\AppData\Local\Temp\ccH5TxCZ.s:1547   .text.ip4_reass:0000000000000488 .L0 
C:\Users\stapi\AppData\Local\Temp\ccH5TxCZ.s:1549   .text.ip4_reass:000000000000048c .L0 
C:\Users\stapi\AppData\Local\Temp\ccH5TxCZ.s:1551   .text.ip4_reass:0000000000000490 .L0 
C:\Users\stapi\AppData\Local\Temp\ccH5TxCZ.s:1553   .text.ip4_reass:0000000000000494 .L0 
C:\Users\stapi\AppData\Local\Temp\ccH5TxCZ.s:1555   .text.ip4_reass:0000000000000498 .L0 
C:\Users\stapi\AppData\Local\Temp\ccH5TxCZ.s:1560   .text.ip4_reass:00000000000004a8 .L0 
C:\Users\stapi\AppData\Local\Temp\ccH5TxCZ.s:1561   .text.ip4_reass:00000000000004a8 .L0 
C:\Users\stapi\AppData\Local\Temp\ccH5TxCZ.s:1562   .text.ip4_reass:00000000000004a8 .L0 
C:\Users\stapi\AppData\Local\Temp\ccH5TxCZ.s:1564   .text.ip4_reass:00000000000004ac .L0 
C:\Users\stapi\AppData\Local\Temp\ccH5TxCZ.s:1566   .text.ip4_reass:00000000000004b0 .L0 
C:\Users\stapi\AppData\Local\Temp\ccH5TxCZ.s:1567   .text.ip4_reass:00000000000004b0 .L0 
C:\Users\stapi\AppData\Local\Temp\ccH5TxCZ.s:1569   .text.ip4_reass:00000000000004b4 .L0 
C:\Users\stapi\AppData\Local\Temp\ccH5TxCZ.s:1570   .text.ip4_reass:00000000000004b4 .L0 
C:\Users\stapi\AppData\Local\Temp\ccH5TxCZ.s:1573   .text.ip4_reass:00000000000004b8 .L0 
C:\Users\stapi\AppData\Local\Temp\ccH5TxCZ.s:1575   .text.ip4_reass:00000000000004ba .L0 
C:\Users\stapi\AppData\Local\Temp\ccH5TxCZ.s:1577   .text.ip4_reass:00000000000004bc .L0 
C:\Users\stapi\AppData\Local\Temp\ccH5TxCZ.s:1581   .text.ip4_reass:00000000000004be .L0 
C:\Users\stapi\AppData\Local\Temp\ccH5TxCZ.s:1582   .text.ip4_reass:00000000000004be .L0 
C:\Users\stapi\AppData\Local\Temp\ccH5TxCZ.s:1584   .text.ip4_reass:00000000000004c2 .L0 
C:\Users\stapi\AppData\Local\Temp\ccH5TxCZ.s:1585   .text.ip4_reass:00000000000004c2 .L0 
C:\Users\stapi\AppData\Local\Temp\ccH5TxCZ.s:1586   .text.ip4_reass:00000000000004c2 .L0 
C:\Users\stapi\AppData\Local\Temp\ccH5TxCZ.s:1588   .text.ip4_reass:00000000000004c6 .L0 
C:\Users\stapi\AppData\Local\Temp\ccH5TxCZ.s:1589   .text.ip4_reass:00000000000004c6 .L0 
C:\Users\stapi\AppData\Local\Temp\ccH5TxCZ.s:1591   .text.ip4_reass:00000000000004ca .L0 
C:\Users\stapi\AppData\Local\Temp\ccH5TxCZ.s:1592   .text.ip4_reass:00000000000004ca .L0 
C:\Users\stapi\AppData\Local\Temp\ccH5TxCZ.s:1605   .text.ip4_reass:00000000000004ee .L0 
C:\Users\stapi\AppData\Local\Temp\ccH5TxCZ.s:1606   .text.ip4_reass:00000000000004ee .L0 
C:\Users\stapi\AppData\Local\Temp\ccH5TxCZ.s:1607   .text.ip4_reass:00000000000004ee .L0 
C:\Users\stapi\AppData\Local\Temp\ccH5TxCZ.s:1611   .text.ip4_reass:00000000000004f0 .L0 
C:\Users\stapi\AppData\Local\Temp\ccH5TxCZ.s:1612   .text.ip4_reass:00000000000004f0 .L0 
C:\Users\stapi\AppData\Local\Temp\ccH5TxCZ.s:1617   .text.ip4_reass:00000000000004f6 .L0 
C:\Users\stapi\AppData\Local\Temp\ccH5TxCZ.s:1623   .text.ip4_reass:00000000000004f8 .L0 
C:\Users\stapi\AppData\Local\Temp\ccH5TxCZ.s:1624   .text.ip4_reass:00000000000004f8 .L0 
C:\Users\stapi\AppData\Local\Temp\ccH5TxCZ.s:1627   .text.ip4_reass:00000000000004fe .L0 
C:\Users\stapi\AppData\Local\Temp\ccH5TxCZ.s:1629   .text.ip4_reass:0000000000000502 .L0 
C:\Users\stapi\AppData\Local\Temp\ccH5TxCZ.s:1630   .text.ip4_reass:0000000000000502 .L0 
C:\Users\stapi\AppData\Local\Temp\ccH5TxCZ.s:1634   .text.ip4_reass:0000000000000506 .L0 
C:\Users\stapi\AppData\Local\Temp\ccH5TxCZ.s:1635   .text.ip4_reass:0000000000000506 .L0 
C:\Users\stapi\AppData\Local\Temp\ccH5TxCZ.s:1636   .text.ip4_reass:0000000000000506 .L0 
C:\Users\stapi\AppData\Local\Temp\ccH5TxCZ.s:1638   .text.ip4_reass:000000000000050a .L0 
C:\Users\stapi\AppData\Local\Temp\ccH5TxCZ.s:1641   .text.ip4_reass:000000000000050c .L0 
C:\Users\stapi\AppData\Local\Temp\ccH5TxCZ.s:1643   .text.ip4_reass:0000000000000510 .L0 
C:\Users\stapi\AppData\Local\Temp\ccH5TxCZ.s:1644   .text.ip4_reass:0000000000000510 .L0 
C:\Users\stapi\AppData\Local\Temp\ccH5TxCZ.s:1649   .text.ip4_reass:0000000000000518 .L0 
C:\Users\stapi\AppData\Local\Temp\ccH5TxCZ.s:1650   .text.ip4_reass:0000000000000518 .L0 
C:\Users\stapi\AppData\Local\Temp\ccH5TxCZ.s:1651   .text.ip4_reass:0000000000000518 .L0 
C:\Users\stapi\AppData\Local\Temp\ccH5TxCZ.s:1653   .text.ip4_reass:000000000000051a .L0 
C:\Users\stapi\AppData\Local\Temp\ccH5TxCZ.s:1656   .text.ip4_reass:000000000000051e .L0 
C:\Users\stapi\AppData\Local\Temp\ccH5TxCZ.s:1657   .text.ip4_reass:000000000000051e .L0 
C:\Users\stapi\AppData\Local\Temp\ccH5TxCZ.s:1658   .text.ip4_reass:000000000000051e .L0 
C:\Users\stapi\AppData\Local\Temp\ccH5TxCZ.s:1660   .text.ip4_reass:0000000000000520 .L0 
C:\Users\stapi\AppData\Local\Temp\ccH5TxCZ.s:1662   .text.ip4_reass:0000000000000524 .L0 
C:\Users\stapi\AppData\Local\Temp\ccH5TxCZ.s:1664   .text.ip4_reass:0000000000000526 .L0 
C:\Users\stapi\AppData\Local\Temp\ccH5TxCZ.s:1666   .text.ip4_reass:000000000000052a .L0 
C:\Users\stapi\AppData\Local\Temp\ccH5TxCZ.s:1668   .text.ip4_reass:000000000000052e .L0 
C:\Users\stapi\AppData\Local\Temp\ccH5TxCZ.s:1670   .text.ip4_reass:0000000000000530 .L0 
C:\Users\stapi\AppData\Local\Temp\ccH5TxCZ.s:1673   .text.ip4_reass:0000000000000538 .L0 
C:\Users\stapi\AppData\Local\Temp\ccH5TxCZ.s:1675   .text.ip4_reass:000000000000053a .L0 
C:\Users\stapi\AppData\Local\Temp\ccH5TxCZ.s:1679   .text.ip4_reass:0000000000000542 .L0 
C:\Users\stapi\AppData\Local\Temp\ccH5TxCZ.s:1682   .text.ip4_reass:0000000000000546 .L0 
C:\Users\stapi\AppData\Local\Temp\ccH5TxCZ.s:1683   .text.ip4_reass:0000000000000546 .L0 
C:\Users\stapi\AppData\Local\Temp\ccH5TxCZ.s:1690   .text.ip4_reass:0000000000000552 .L0 
C:\Users\stapi\AppData\Local\Temp\ccH5TxCZ.s:1691   .text.ip4_reass:0000000000000552 .L0 
C:\Users\stapi\AppData\Local\Temp\ccH5TxCZ.s:1694   .text.ip4_reass:000000000000055a .L0 
C:\Users\stapi\AppData\Local\Temp\ccH5TxCZ.s:1701   .text.ip4_reass:000000000000056e .L0 
C:\Users\stapi\AppData\Local\Temp\ccH5TxCZ.s:1704   .text.ip4_reass:0000000000000576 .L0 
C:\Users\stapi\AppData\Local\Temp\ccH5TxCZ.s:1707   .text.ip4_reass:000000000000057e .L0 
C:\Users\stapi\AppData\Local\Temp\ccH5TxCZ.s:1715   .text.ip4_reass:0000000000000594 .L0 
C:\Users\stapi\AppData\Local\Temp\ccH5TxCZ.s:1716   .text.ip4_reass:0000000000000594 .L0 
C:\Users\stapi\AppData\Local\Temp\ccH5TxCZ.s:1720   .text.ip4_reass:0000000000000598 .L0 
C:\Users\stapi\AppData\Local\Temp\ccH5TxCZ.s:1721   .text.ip4_reass:0000000000000598 .L0 
C:\Users\stapi\AppData\Local\Temp\ccH5TxCZ.s:1723   .text.ip4_reass:000000000000059c .L0 
C:\Users\stapi\AppData\Local\Temp\ccH5TxCZ.s:1724   .text.ip4_reass:000000000000059c .L0 
C:\Users\stapi\AppData\Local\Temp\ccH5TxCZ.s:1728   .text.ip4_reass:00000000000005a0 .L0 
C:\Users\stapi\AppData\Local\Temp\ccH5TxCZ.s:1732   .text.ip4_reass:00000000000005a6 .L0 
C:\Users\stapi\AppData\Local\Temp\ccH5TxCZ.s:1733   .text.ip4_reass:00000000000005a6 .L0 
C:\Users\stapi\AppData\Local\Temp\ccH5TxCZ.s:1737   .text.ip4_reass:00000000000005aa .L0 
C:\Users\stapi\AppData\Local\Temp\ccH5TxCZ.s:1742   .text.ip4_reass:00000000000005b6 .L0 
C:\Users\stapi\AppData\Local\Temp\ccH5TxCZ.s:1743   .text.ip4_reass:00000000000005b6 .L0 
C:\Users\stapi\AppData\Local\Temp\ccH5TxCZ.s:1747   .text.ip4_reass:00000000000005c0 .L0 
C:\Users\stapi\AppData\Local\Temp\ccH5TxCZ.s:1748   .text.ip4_reass:00000000000005c0 .L0 
C:\Users\stapi\AppData\Local\Temp\ccH5TxCZ.s:1751   .text.ip4_reass:00000000000005c8 .L0 
C:\Users\stapi\AppData\Local\Temp\ccH5TxCZ.s:1752   .text.ip4_reass:00000000000005c8 .L0 
C:\Users\stapi\AppData\Local\Temp\ccH5TxCZ.s:1764   .text.ip4_reass:00000000000005ec .L0 
C:\Users\stapi\AppData\Local\Temp\ccH5TxCZ.s:1765   .text.ip4_reass:00000000000005ec .L0 
C:\Users\stapi\AppData\Local\Temp\ccH5TxCZ.s:1766   .text.ip4_reass:00000000000005ec .L0 
C:\Users\stapi\AppData\Local\Temp\ccH5TxCZ.s:1768   .text.ip4_reass:00000000000005ee .L0 
C:\Users\stapi\AppData\Local\Temp\ccH5TxCZ.s:1785   .text.ip4_frag:0000000000000000 ip4_frag
C:\Users\stapi\AppData\Local\Temp\ccH5TxCZ.s:1788   .text.ip4_frag:0000000000000000 .L0 
C:\Users\stapi\AppData\Local\Temp\ccH5TxCZ.s:1790   .text.ip4_frag:0000000000000000 .L0 
C:\Users\stapi\AppData\Local\Temp\ccH5TxCZ.s:1791   .text.ip4_frag:0000000000000008 .L0 
C:\Users\stapi\AppData\Local\Temp\ccH5TxCZ.s:1792   .text.ip4_frag:0000000000000008 .L0 
C:\Users\stapi\AppData\Local\Temp\ccH5TxCZ.s:1793   .text.ip4_frag:0000000000000008 .L0 
C:\Users\stapi\AppData\Local\Temp\ccH5TxCZ.s:1794   .text.ip4_frag:0000000000000008 .L0 
C:\Users\stapi\AppData\Local\Temp\ccH5TxCZ.s:1795   .text.ip4_frag:0000000000000008 .L0 
C:\Users\stapi\AppData\Local\Temp\ccH5TxCZ.s:1796   .text.ip4_frag:0000000000000008 .L0 
C:\Users\stapi\AppData\Local\Temp\ccH5TxCZ.s:1797   .text.ip4_frag:0000000000000008 .L0 
C:\Users\stapi\AppData\Local\Temp\ccH5TxCZ.s:1798   .text.ip4_frag:0000000000000008 .L0 
C:\Users\stapi\AppData\Local\Temp\ccH5TxCZ.s:1799   .text.ip4_frag:0000000000000008 .L0 
C:\Users\stapi\AppData\Local\Temp\ccH5TxCZ.s:1800   .text.ip4_frag:0000000000000008 .L0 
C:\Users\stapi\AppData\Local\Temp\ccH5TxCZ.s:1801   .text.ip4_frag:0000000000000008 .L0 
C:\Users\stapi\AppData\Local\Temp\ccH5TxCZ.s:1802   .text.ip4_frag:0000000000000008 .L0 
C:\Users\stapi\AppData\Local\Temp\ccH5TxCZ.s:1803   .text.ip4_frag:0000000000000008 .L0 
C:\Users\stapi\AppData\Local\Temp\ccH5TxCZ.s:1804   .text.ip4_frag:0000000000000008 .L0 
C:\Users\stapi\AppData\Local\Temp\ccH5TxCZ.s:1806   .text.ip4_frag:0000000000000008 .L0 
C:\Users\stapi\AppData\Local\Temp\ccH5TxCZ.s:1807   .text.ip4_frag:0000000000000008 .L0 
C:\Users\stapi\AppData\Local\Temp\ccH5TxCZ.s:1809   .text.ip4_frag:0000000000000008 .L0 
C:\Users\stapi\AppData\Local\Temp\ccH5TxCZ.s:1810   .text.ip4_frag:0000000000000008 .L0 
C:\Users\stapi\AppData\Local\Temp\ccH5TxCZ.s:1811   .text.ip4_frag:0000000000000008 .L0 
C:\Users\stapi\AppData\Local\Temp\ccH5TxCZ.s:1812   .text.ip4_frag:0000000000000008 .L0 
C:\Users\stapi\AppData\Local\Temp\ccH5TxCZ.s:1813   .text.ip4_frag:0000000000000008 .L0 
C:\Users\stapi\AppData\Local\Temp\ccH5TxCZ.s:1814   .text.ip4_frag:0000000000000008 .L0 
C:\Users\stapi\AppData\Local\Temp\ccH5TxCZ.s:1815   .text.ip4_frag:0000000000000008 .L0 
C:\Users\stapi\AppData\Local\Temp\ccH5TxCZ.s:1816   .text.ip4_frag:0000000000000008 .L0 
C:\Users\stapi\AppData\Local\Temp\ccH5TxCZ.s:1817   .text.ip4_frag:0000000000000008 .L0 
C:\Users\stapi\AppData\Local\Temp\ccH5TxCZ.s:1818   .text.ip4_frag:0000000000000008 .L0 
C:\Users\stapi\AppData\Local\Temp\ccH5TxCZ.s:1819   .text.ip4_frag:0000000000000008 .L0 
C:\Users\stapi\AppData\Local\Temp\ccH5TxCZ.s:1820   .text.ip4_frag:0000000000000008 .L0 
C:\Users\stapi\AppData\Local\Temp\ccH5TxCZ.s:1821   .text.ip4_frag:0000000000000008 .L0 
C:\Users\stapi\AppData\Local\Temp\ccH5TxCZ.s:1824   .text.ip4_frag:000000000000000c .L0 
C:\Users\stapi\AppData\Local\Temp\ccH5TxCZ.s:1825   .text.ip4_frag:000000000000000c .L0 
C:\Users\stapi\AppData\Local\Temp\ccH5TxCZ.s:1826   .text.ip4_frag:000000000000000c .L0 
C:\Users\stapi\AppData\Local\Temp\ccH5TxCZ.s:1827   .text.ip4_frag:000000000000000e .L0 
C:\Users\stapi\AppData\Local\Temp\ccH5TxCZ.s:1829   .text.ip4_frag:000000000000000e .L0 
C:\Users\stapi\AppData\Local\Temp\ccH5TxCZ.s:1831   .text.ip4_frag:0000000000000010 .L0 
C:\Users\stapi\AppData\Local\Temp\ccH5TxCZ.s:1833   .text.ip4_frag:0000000000000014 .L0 
C:\Users\stapi\AppData\Local\Temp\ccH5TxCZ.s:1835   .text.ip4_frag:0000000000000016 .L0 
C:\Users\stapi\AppData\Local\Temp\ccH5TxCZ.s:1837   .text.ip4_frag:0000000000000018 .L0 
C:\Users\stapi\AppData\Local\Temp\ccH5TxCZ.s:1840   .text.ip4_frag:000000000000001e .L0 
C:\Users\stapi\AppData\Local\Temp\ccH5TxCZ.s:1844   .text.ip4_frag:0000000000000026 .L0 
C:\Users\stapi\AppData\Local\Temp\ccH5TxCZ.s:1845   .text.ip4_frag:0000000000000026 .L0 
C:\Users\stapi\AppData\Local\Temp\ccH5TxCZ.s:1847   .text.ip4_frag:000000000000002a .L0 
C:\Users\stapi\AppData\Local\Temp\ccH5TxCZ.s:1848   .text.ip4_frag:000000000000002a .L0 
C:\Users\stapi\AppData\Local\Temp\ccH5TxCZ.s:1862   .text.ip4_frag:000000000000004e .L0 
C:\Users\stapi\AppData\Local\Temp\ccH5TxCZ.s:1863   .text.ip4_frag:000000000000004e .L0 
C:\Users\stapi\AppData\Local\Temp\ccH5TxCZ.s:1864   .text.ip4_frag:000000000000004e .L0 
C:\Users\stapi\AppData\Local\Temp\ccH5TxCZ.s:1868   .text.ip4_frag:0000000000000050 .L0 
C:\Users\stapi\AppData\Local\Temp\ccH5TxCZ.s:1870   .text.ip4_frag:0000000000000054 .L0 
C:\Users\stapi\AppData\Local\Temp\ccH5TxCZ.s:1873   .text.ip4_frag:0000000000000058 .L0 
C:\Users\stapi\AppData\Local\Temp\ccH5TxCZ.s:1875   .text.ip4_frag:000000000000005a .L0 
C:\Users\stapi\AppData\Local\Temp\ccH5TxCZ.s:1877   .text.ip4_frag:000000000000005e .L0 
C:\Users\stapi\AppData\Local\Temp\ccH5TxCZ.s:1880   .text.ip4_frag:0000000000000062 .L0 
C:\Users\stapi\AppData\Local\Temp\ccH5TxCZ.s:1882   .text.ip4_frag:0000000000000064 .L0 
C:\Users\stapi\AppData\Local\Temp\ccH5TxCZ.s:1884   .text.ip4_frag:0000000000000066 .L0 
C:\Users\stapi\AppData\Local\Temp\ccH5TxCZ.s:1887   .text.ip4_frag:000000000000006c .L0 
C:\Users\stapi\AppData\Local\Temp\ccH5TxCZ.s:1888   .text.ip4_frag:000000000000006c .L0 
C:\Users\stapi\AppData\Local\Temp\ccH5TxCZ.s:1889   .text.ip4_frag:000000000000006c .L0 
C:\Users\stapi\AppData\Local\Temp\ccH5TxCZ.s:1896   .text.ip4_frag:0000000000000080 .L0 
C:\Users\stapi\AppData\Local\Temp\ccH5TxCZ.s:1900   .text.ip4_frag:0000000000000086 .L0 
C:\Users\stapi\AppData\Local\Temp\ccH5TxCZ.s:1902   .text.ip4_frag:0000000000000088 .L0 
C:\Users\stapi\AppData\Local\Temp\ccH5TxCZ.s:1904   .text.ip4_frag:000000000000008c .L0 
C:\Users\stapi\AppData\Local\Temp\ccH5TxCZ.s:1906   .text.ip4_frag:0000000000000090 .L0 
C:\Users\stapi\AppData\Local\Temp\ccH5TxCZ.s:1911   .text.ip4_frag:0000000000000098 .L0 
C:\Users\stapi\AppData\Local\Temp\ccH5TxCZ.s:1915   .text.ip4_frag:00000000000000a0 .L0 
C:\Users\stapi\AppData\Local\Temp\ccH5TxCZ.s:1918   .text.ip4_frag:00000000000000a2 .L0 
C:\Users\stapi\AppData\Local\Temp\ccH5TxCZ.s:1921   .text.ip4_frag:00000000000000a4 .L0 
C:\Users\stapi\AppData\Local\Temp\ccH5TxCZ.s:1924   .text.ip4_frag:00000000000000a8 .L0 
C:\Users\stapi\AppData\Local\Temp\ccH5TxCZ.s:1925   .text.ip4_frag:00000000000000a8 .L0 
C:\Users\stapi\AppData\Local\Temp\ccH5TxCZ.s:1926   .text.ip4_frag:00000000000000a8 .L0 
C:\Users\stapi\AppData\Local\Temp\ccH5TxCZ.s:1930   .text.ip4_frag:00000000000000ac .L0 
C:\Users\stapi\AppData\Local\Temp\ccH5TxCZ.s:1931   .text.ip4_frag:00000000000000ac .L0 
C:\Users\stapi\AppData\Local\Temp\ccH5TxCZ.s:1933   .text.ip4_frag:00000000000000b0 .L0 
C:\Users\stapi\AppData\Local\Temp\ccH5TxCZ.s:1937   .text.ip4_frag:00000000000000b2 .L0 
C:\Users\stapi\AppData\Local\Temp\ccH5TxCZ.s:1938   .text.ip4_frag:00000000000000b4 .L0 
C:\Users\stapi\AppData\Local\Temp\ccH5TxCZ.s:1939   .text.ip4_frag:00000000000000b4 .L0 
C:\Users\stapi\AppData\Local\Temp\ccH5TxCZ.s:1942   .text.ip4_frag:00000000000000bc .L0 
C:\Users\stapi\AppData\Local\Temp\ccH5TxCZ.s:1943   .text.ip4_frag:00000000000000bc .L0 
C:\Users\stapi\AppData\Local\Temp\ccH5TxCZ.s:1944   .text.ip4_frag:00000000000000bc .L0 
C:\Users\stapi\AppData\Local\Temp\ccH5TxCZ.s:1945   .text.ip4_frag:00000000000000bc .L0 
C:\Users\stapi\AppData\Local\Temp\ccH5TxCZ.s:1946   .text.ip4_frag:00000000000000bc .L0 
C:\Users\stapi\AppData\Local\Temp\ccH5TxCZ.s:1947   .text.ip4_frag:00000000000000bc .L0 
C:\Users\stapi\AppData\Local\Temp\ccH5TxCZ.s:1948   .text.ip4_frag:00000000000000bc .L0 
C:\Users\stapi\AppData\Local\Temp\ccH5TxCZ.s:1949   .text.ip4_frag:00000000000000bc .L0 
C:\Users\stapi\AppData\Local\Temp\ccH5TxCZ.s:1950   .text.ip4_frag:00000000000000bc .L0 
C:\Users\stapi\AppData\Local\Temp\ccH5TxCZ.s:1951   .text.ip4_frag:00000000000000bc .L0 
C:\Users\stapi\AppData\Local\Temp\ccH5TxCZ.s:1952   .text.ip4_frag:00000000000000bc .L0 
C:\Users\stapi\AppData\Local\Temp\ccH5TxCZ.s:1953   .text.ip4_frag:00000000000000bc .L0 
C:\Users\stapi\AppData\Local\Temp\ccH5TxCZ.s:1954   .text.ip4_frag:00000000000000bc .L0 
C:\Users\stapi\AppData\Local\Temp\ccH5TxCZ.s:1955   .text.ip4_frag:00000000000000bc .L0 
C:\Users\stapi\AppData\Local\Temp\ccH5TxCZ.s:1958   .text.ip4_frag:00000000000000bc .L0 
C:\Users\stapi\AppData\Local\Temp\ccH5TxCZ.s:1960   .text.ip4_frag:00000000000000bc .L0 
C:\Users\stapi\AppData\Local\Temp\ccH5TxCZ.s:1961   .text.ip4_frag:00000000000000bc .L0 
C:\Users\stapi\AppData\Local\Temp\ccH5TxCZ.s:1963   .text.ip4_frag:00000000000000be .L0 
C:\Users\stapi\AppData\Local\Temp\ccH5TxCZ.s:1967   .text.ip4_frag:00000000000000c8 .L0 
C:\Users\stapi\AppData\Local\Temp\ccH5TxCZ.s:1970   .text.ip4_frag:00000000000000cc .L0 
C:\Users\stapi\AppData\Local\Temp\ccH5TxCZ.s:1971   .text.ip4_frag:00000000000000cc .L0 
C:\Users\stapi\AppData\Local\Temp\ccH5TxCZ.s:1976   .text.ip4_frag:00000000000000d6 .L0 
C:\Users\stapi\AppData\Local\Temp\ccH5TxCZ.s:1977   .text.ip4_frag:00000000000000d6 .L0 
C:\Users\stapi\AppData\Local\Temp\ccH5TxCZ.s:1979   .text.ip4_frag:00000000000000d8 .L0 
C:\Users\stapi\AppData\Local\Temp\ccH5TxCZ.s:1980   .text.ip4_frag:00000000000000d8 .L0 
C:\Users\stapi\AppData\Local\Temp\ccH5TxCZ.s:1984   .text.ip4_frag:00000000000000e2 .L0 
C:\Users\stapi\AppData\Local\Temp\ccH5TxCZ.s:1985   .text.ip4_frag:00000000000000e2 .L0 
C:\Users\stapi\AppData\Local\Temp\ccH5TxCZ.s:1996   .text.ip4_frag:0000000000000106 .L0 
C:\Users\stapi\AppData\Local\Temp\ccH5TxCZ.s:1997   .text.ip4_frag:0000000000000106 .L0 
C:\Users\stapi\AppData\Local\Temp\ccH5TxCZ.s:1998   .text.ip4_frag:0000000000000106 .L0 
C:\Users\stapi\AppData\Local\Temp\ccH5TxCZ.s:2001   .text.ip4_frag:0000000000000108 .L0 
C:\Users\stapi\AppData\Local\Temp\ccH5TxCZ.s:2002   .text.ip4_frag:0000000000000108 .L0 
C:\Users\stapi\AppData\Local\Temp\ccH5TxCZ.s:2003   .text.ip4_frag:0000000000000108 .L0 
C:\Users\stapi\AppData\Local\Temp\ccH5TxCZ.s:2009   .text.ip4_frag:0000000000000116 .L0 
C:\Users\stapi\AppData\Local\Temp\ccH5TxCZ.s:2010   .text.ip4_frag:0000000000000116 .L0 
C:\Users\stapi\AppData\Local\Temp\ccH5TxCZ.s:2013   .text.ip4_frag:000000000000011a .L0 
C:\Users\stapi\AppData\Local\Temp\ccH5TxCZ.s:2014   .text.ip4_frag:000000000000011a .L0 
C:\Users\stapi\AppData\Local\Temp\ccH5TxCZ.s:2015   .text.ip4_frag:000000000000011a .L0 
C:\Users\stapi\AppData\Local\Temp\ccH5TxCZ.s:2019   .text.ip4_frag:000000000000011c .L0 
C:\Users\stapi\AppData\Local\Temp\ccH5TxCZ.s:2022   .text.ip4_frag:0000000000000120 .L0 
C:\Users\stapi\AppData\Local\Temp\ccH5TxCZ.s:2023   .text.ip4_frag:0000000000000120 .L0 
C:\Users\stapi\AppData\Local\Temp\ccH5TxCZ.s:2024   .text.ip4_frag:0000000000000120 .L0 
C:\Users\stapi\AppData\Local\Temp\ccH5TxCZ.s:2026   .text.ip4_frag:0000000000000124 .L0 
C:\Users\stapi\AppData\Local\Temp\ccH5TxCZ.s:2031   .text.ip4_frag:000000000000012c .L0 
C:\Users\stapi\AppData\Local\Temp\ccH5TxCZ.s:2032   .text.ip4_frag:000000000000012c .L0 
C:\Users\stapi\AppData\Local\Temp\ccH5TxCZ.s:2034   .text.ip4_frag:0000000000000130 .L0 
C:\Users\stapi\AppData\Local\Temp\ccH5TxCZ.s:2035   .text.ip4_frag:0000000000000130 .L0 
C:\Users\stapi\AppData\Local\Temp\ccH5TxCZ.s:2046   .text.ip4_frag:0000000000000154 .L0 
C:\Users\stapi\AppData\Local\Temp\ccH5TxCZ.s:2047   .text.ip4_frag:0000000000000154 .L0 
C:\Users\stapi\AppData\Local\Temp\ccH5TxCZ.s:2048   .text.ip4_frag:0000000000000154 .L0 
C:\Users\stapi\AppData\Local\Temp\ccH5TxCZ.s:2051   .text.ip4_frag:0000000000000156 .L0 
C:\Users\stapi\AppData\Local\Temp\ccH5TxCZ.s:2052   .text.ip4_frag:0000000000000156 .L0 
C:\Users\stapi\AppData\Local\Temp\ccH5TxCZ.s:2053   .text.ip4_frag:0000000000000156 .L0 
C:\Users\stapi\AppData\Local\Temp\ccH5TxCZ.s:2054   .text.ip4_frag:0000000000000156 .L0 
C:\Users\stapi\AppData\Local\Temp\ccH5TxCZ.s:2057   .text.ip4_frag:000000000000015a .L0 
C:\Users\stapi\AppData\Local\Temp\ccH5TxCZ.s:2058   .text.ip4_frag:000000000000015a .L0 
C:\Users\stapi\AppData\Local\Temp\ccH5TxCZ.s:2062   .text.ip4_frag:000000000000015e .L0 
C:\Users\stapi\AppData\Local\Temp\ccH5TxCZ.s:2063   .text.ip4_frag:000000000000015e .L0 
C:\Users\stapi\AppData\Local\Temp\ccH5TxCZ.s:2064   .text.ip4_frag:000000000000015e .L0 
C:\Users\stapi\AppData\Local\Temp\ccH5TxCZ.s:2067   .text.ip4_frag:0000000000000160 .L0 
C:\Users\stapi\AppData\Local\Temp\ccH5TxCZ.s:2074   .text.ip4_frag:0000000000000164 .L0 
C:\Users\stapi\AppData\Local\Temp\ccH5TxCZ.s:2075   .text.ip4_frag:0000000000000164 .L0 
C:\Users\stapi\AppData\Local\Temp\ccH5TxCZ.s:2076   .text.ip4_frag:0000000000000164 .L0 
C:\Users\stapi\AppData\Local\Temp\ccH5TxCZ.s:2084   .text.ip4_frag:0000000000000170 .L0 
C:\Users\stapi\AppData\Local\Temp\ccH5TxCZ.s:2085   .text.ip4_frag:0000000000000170 .L0 
C:\Users\stapi\AppData\Local\Temp\ccH5TxCZ.s:2091   .text.ip4_frag:0000000000000172 .L0 
C:\Users\stapi\AppData\Local\Temp\ccH5TxCZ.s:2097   .text.ip4_frag:000000000000017c .L0 
C:\Users\stapi\AppData\Local\Temp\ccH5TxCZ.s:2098   .text.ip4_frag:000000000000017c .L0 
C:\Users\stapi\AppData\Local\Temp\ccH5TxCZ.s:2104   .text.ip4_frag:0000000000000180 .L0 
C:\Users\stapi\AppData\Local\Temp\ccH5TxCZ.s:2105   .text.ip4_frag:0000000000000180 .L0 
C:\Users\stapi\AppData\Local\Temp\ccH5TxCZ.s:2116   .text.ip4_frag:0000000000000198 .L0 
C:\Users\stapi\AppData\Local\Temp\ccH5TxCZ.s:2117   .text.ip4_frag:0000000000000198 .L0 
C:\Users\stapi\AppData\Local\Temp\ccH5TxCZ.s:2120   .text.ip4_frag:000000000000019c .L0 
C:\Users\stapi\AppData\Local\Temp\ccH5TxCZ.s:2125   .text.ip4_frag:00000000000001a6 .L0 
C:\Users\stapi\AppData\Local\Temp\ccH5TxCZ.s:2131   .text.ip4_frag:00000000000001aa .L0 
C:\Users\stapi\AppData\Local\Temp\ccH5TxCZ.s:2137   .text.ip4_frag:00000000000001b6 .L0 
C:\Users\stapi\AppData\Local\Temp\ccH5TxCZ.s:2138   .text.ip4_frag:00000000000001b6 .L0 
C:\Users\stapi\AppData\Local\Temp\ccH5TxCZ.s:2140   .text.ip4_frag:00000000000001b8 .L0 
C:\Users\stapi\AppData\Local\Temp\ccH5TxCZ.s:2142   .text.ip4_frag:00000000000001ba .L0 
C:\Users\stapi\AppData\Local\Temp\ccH5TxCZ.s:2144   .text.ip4_frag:00000000000001bc .L0 
C:\Users\stapi\AppData\Local\Temp\ccH5TxCZ.s:2146   .text.ip4_frag:00000000000001be .L0 
C:\Users\stapi\AppData\Local\Temp\ccH5TxCZ.s:2147   .text.ip4_frag:00000000000001be .L0 
C:\Users\stapi\AppData\Local\Temp\ccH5TxCZ.s:2149   .text.ip4_frag:00000000000001c0 .L0 
C:\Users\stapi\AppData\Local\Temp\ccH5TxCZ.s:2153   .text.ip4_frag:00000000000001ca .L0 
C:\Users\stapi\AppData\Local\Temp\ccH5TxCZ.s:2154   .text.ip4_frag:00000000000001ca .L0 
C:\Users\stapi\AppData\Local\Temp\ccH5TxCZ.s:2158   .text.ip4_frag:00000000000001d2 .L0 
C:\Users\stapi\AppData\Local\Temp\ccH5TxCZ.s:2159   .text.ip4_frag:00000000000001d2 .L0 
C:\Users\stapi\AppData\Local\Temp\ccH5TxCZ.s:2164   .text.ip4_frag:00000000000001d6 .L0 
C:\Users\stapi\AppData\Local\Temp\ccH5TxCZ.s:2165   .text.ip4_frag:00000000000001d6 .L0 
C:\Users\stapi\AppData\Local\Temp\ccH5TxCZ.s:2167   .text.ip4_frag:00000000000001da .L0 
C:\Users\stapi\AppData\Local\Temp\ccH5TxCZ.s:2170   .text.ip4_frag:00000000000001dc .L0 
C:\Users\stapi\AppData\Local\Temp\ccH5TxCZ.s:2172   .text.ip4_frag:00000000000001e0 .L0 
C:\Users\stapi\AppData\Local\Temp\ccH5TxCZ.s:2174   .text.ip4_frag:00000000000001e2 .L0 
C:\Users\stapi\AppData\Local\Temp\ccH5TxCZ.s:2177   .text.ip4_frag:00000000000001e6 .L0 
C:\Users\stapi\AppData\Local\Temp\ccH5TxCZ.s:2178   .text.ip4_frag:00000000000001e6 .L0 
C:\Users\stapi\AppData\Local\Temp\ccH5TxCZ.s:2179   .text.ip4_frag:00000000000001e6 .L0 
C:\Users\stapi\AppData\Local\Temp\ccH5TxCZ.s:2180   .text.ip4_frag:00000000000001e6 .L0 
C:\Users\stapi\AppData\Local\Temp\ccH5TxCZ.s:2182   .text.ip4_frag:00000000000001ea .L0 
C:\Users\stapi\AppData\Local\Temp\ccH5TxCZ.s:2186   .text.ip4_frag:00000000000001ee .L0 
C:\Users\stapi\AppData\Local\Temp\ccH5TxCZ.s:2187   .text.ip4_frag:00000000000001ee .L0 
C:\Users\stapi\AppData\Local\Temp\ccH5TxCZ.s:2194   .text.ip4_frag:00000000000001f6 .L0 
C:\Users\stapi\AppData\Local\Temp\ccH5TxCZ.s:2200   .text.ip4_frag:0000000000000208 .L0 
C:\Users\stapi\AppData\Local\Temp\ccH5TxCZ.s:2208   .text.ip4_frag:0000000000000222 .L0 
C:\Users\stapi\AppData\Local\Temp\ccH5TxCZ.s:2209   .text.ip4_frag:0000000000000222 .L0 
C:\Users\stapi\AppData\Local\Temp\ccH5TxCZ.s:2211   .text.ip4_frag:0000000000000224 .L0 
C:\Users\stapi\AppData\Local\Temp\ccH5TxCZ.s:2214   .text.ip4_frag:000000000000022c .L0 
C:\Users\stapi\AppData\Local\Temp\ccH5TxCZ.s:2219   .text.ip4_frag:0000000000000236 .L0 
C:\Users\stapi\AppData\Local\Temp\ccH5TxCZ.s:2223   .text.ip4_frag:000000000000023c .L0 
C:\Users\stapi\AppData\Local\Temp\ccH5TxCZ.s:2228   .text.ip4_frag:0000000000000246 .L0 
C:\Users\stapi\AppData\Local\Temp\ccH5TxCZ.s:2229   .text.ip4_frag:0000000000000246 .L0 
C:\Users\stapi\AppData\Local\Temp\ccH5TxCZ.s:2234   .text.ip4_frag:000000000000024c .L0 
C:\Users\stapi\AppData\Local\Temp\ccH5TxCZ.s:2235   .text.ip4_frag:000000000000024c .L0 
C:\Users\stapi\AppData\Local\Temp\ccH5TxCZ.s:2238   .text.ip4_frag:000000000000024e .L0 
C:\Users\stapi\AppData\Local\Temp\ccH5TxCZ.s:2239   .text.ip4_frag:000000000000024e .L0 
C:\Users\stapi\AppData\Local\Temp\ccH5TxCZ.s:2244   .text.ip4_frag:0000000000000258 .L0 
C:\Users\stapi\AppData\Local\Temp\ccH5TxCZ.s:2245   .text.ip4_frag:0000000000000258 .L0 
C:\Users\stapi\AppData\Local\Temp\ccH5TxCZ.s:2247   .text.ip4_frag:000000000000025a .L0 
C:\Users\stapi\AppData\Local\Temp\ccH5TxCZ.s:2252   .text.ip4_frag:0000000000000262 .L0 
C:\Users\stapi\AppData\Local\Temp\ccH5TxCZ.s:2253   .text.ip4_frag:0000000000000262 .L0 
C:\Users\stapi\AppData\Local\Temp\ccH5TxCZ.s:2261   .text.ip4_frag:000000000000026a .L0 
C:\Users\stapi\AppData\Local\Temp\ccH5TxCZ.s:2264   .text.ip4_frag:000000000000026e .L0 
C:\Users\stapi\AppData\Local\Temp\ccH5TxCZ.s:2269   .sbss.ip_reass_pbufcount:0000000000000000 .LANCHOR1
C:\Users\stapi\AppData\Local\Temp\ccH5TxCZ.s:2272   .sbss.ip_reass_pbufcount:0000000000000000 ip_reass_pbufcount
C:\Users\stapi\AppData\Local\Temp\ccH5TxCZ.s:2276   .sbss.reassdatagrams:0000000000000000 .LANCHOR0
C:\Users\stapi\AppData\Local\Temp\ccH5TxCZ.s:2279   .sbss.reassdatagrams:0000000000000000 reassdatagrams
C:\Users\stapi\AppData\Local\Temp\ccH5TxCZ.s:97     .text.ip_reass_dequeue_datagram:000000000000005c .L0 
C:\Users\stapi\AppData\Local\Temp\ccH5TxCZ.s:389    .text.ip_reass_free_complete_datagram:0000000000000194 .L0 
C:\Users\stapi\AppData\Local\Temp\ccH5TxCZ.s:549    .text.ip_reass_remove_oldest_datagram:00000000000000b8 .L0 
C:\Users\stapi\AppData\Local\Temp\ccH5TxCZ.s:606    .text.ip_frag_free_pbuf_custom_ref:0000000000000044 .L0 
C:\Users\stapi\AppData\Local\Temp\ccH5TxCZ.s:680    .text.ipfrag_free_pbuf_custom:0000000000000050 .L0 
C:\Users\stapi\AppData\Local\Temp\ccH5TxCZ.s:754    .text.ip_reass_tmr:000000000000003e .L0 
C:\Users\stapi\AppData\Local\Temp\ccH5TxCZ.s:1771   .text.ip4_reass:00000000000005ee .L0 
C:\Users\stapi\AppData\Local\Temp\ccH5TxCZ.s:2267   .text.ip4_frag:000000000000026e .L0 
                     .debug_frame:0000000000000000 .L0 
C:\Users\stapi\AppData\Local\Temp\ccH5TxCZ.s:11     .rodata.ip_reass_dequeue_datagram.str1.4:0000000000000000 .LC0
C:\Users\stapi\AppData\Local\Temp\ccH5TxCZ.s:14     .rodata.ip_reass_dequeue_datagram.str1.4:0000000000000088 .LC1
C:\Users\stapi\AppData\Local\Temp\ccH5TxCZ.s:17     .rodata.ip_reass_dequeue_datagram.str1.4:00000000000000a4 .LC2
C:\Users\stapi\AppData\Local\Temp\ccH5TxCZ.s:56     .text.ip_reass_dequeue_datagram:000000000000002e .L2
C:\Users\stapi\AppData\Local\Temp\ccH5TxCZ.s:83     .text.ip_reass_dequeue_datagram:0000000000000056 .L4
C:\Users\stapi\AppData\Local\Temp\ccH5TxCZ.s:77     .text.ip_reass_dequeue_datagram:0000000000000054 .L5
C:\Users\stapi\AppData\Local\Temp\ccH5TxCZ.s:42     .text.ip_reass_dequeue_datagram:000000000000001a .L3
C:\Users\stapi\AppData\Local\Temp\ccH5TxCZ.s:99     .rodata.ip_reass_free_complete_datagram.str1.4:0000000000000000 .LC3
C:\Users\stapi\AppData\Local\Temp\ccH5TxCZ.s:102    .rodata.ip_reass_free_complete_datagram.str1.4:000000000000000c .LC4
C:\Users\stapi\AppData\Local\Temp\ccH5TxCZ.s:108    .rodata.ip_reass_free_complete_datagram.str1.4:0000000000000040 .LC6
C:\Users\stapi\AppData\Local\Temp\ccH5TxCZ.s:105    .rodata.ip_reass_free_complete_datagram.str1.4:0000000000000020 .LC5
C:\Users\stapi\AppData\Local\Temp\ccH5TxCZ.s:154    .text.ip_reass_free_complete_datagram:0000000000000032 .L8
C:\Users\stapi\AppData\Local\Temp\ccH5TxCZ.s:148    .text.ip_reass_free_complete_datagram:0000000000000030 .L9
C:\Users\stapi\AppData\Local\Temp\ccH5TxCZ.s:185    .text.ip_reass_free_complete_datagram:0000000000000064 .L10
C:\Users\stapi\AppData\Local\Temp\ccH5TxCZ.s:179    .text.ip_reass_free_complete_datagram:0000000000000062 .L11
C:\Users\stapi\AppData\Local\Temp\ccH5TxCZ.s:254    .text.ip_reass_free_complete_datagram:00000000000000ca .L12
C:\Users\stapi\AppData\Local\Temp\ccH5TxCZ.s:294    .text.ip_reass_free_complete_datagram:0000000000000116 .L16
C:\Users\stapi\AppData\Local\Temp\ccH5TxCZ.s:362    .text.ip_reass_free_complete_datagram:0000000000000184 .L17
C:\Users\stapi\AppData\Local\Temp\ccH5TxCZ.s:289    .text.ip_reass_free_complete_datagram:0000000000000114 .L18
C:\Users\stapi\AppData\Local\Temp\ccH5TxCZ.s:344    .text.ip_reass_free_complete_datagram:0000000000000172 .L14
C:\Users\stapi\AppData\Local\Temp\ccH5TxCZ.s:338    .text.ip_reass_free_complete_datagram:0000000000000170 .L15
C:\Users\stapi\AppData\Local\Temp\ccH5TxCZ.s:263    .text.ip_reass_free_complete_datagram:00000000000000d0 .L13
C:\Users\stapi\AppData\Local\Temp\ccH5TxCZ.s:474    .text.ip_reass_remove_oldest_datagram:0000000000000040 .L29
C:\Users\stapi\AppData\Local\Temp\ccH5TxCZ.s:454    .text.ip_reass_remove_oldest_datagram:000000000000002e .L30
C:\Users\stapi\AppData\Local\Temp\ccH5TxCZ.s:460    .text.ip_reass_remove_oldest_datagram:0000000000000036 .L24
C:\Users\stapi\AppData\Local\Temp\ccH5TxCZ.s:419    .text.ip_reass_remove_oldest_datagram:0000000000000014 .L32
C:\Users\stapi\AppData\Local\Temp\ccH5TxCZ.s:514    .text.ip_reass_remove_oldest_datagram:000000000000009a .L26
C:\Users\stapi\AppData\Local\Temp\ccH5TxCZ.s:533    .text.ip_reass_remove_oldest_datagram:00000000000000ae .L27
C:\Users\stapi\AppData\Local\Temp\ccH5TxCZ.s:527    .text.ip_reass_remove_oldest_datagram:00000000000000aa .L33
C:\Users\stapi\AppData\Local\Temp\ccH5TxCZ.s:541    .text.ip_reass_remove_oldest_datagram:00000000000000b4 .L28
C:\Users\stapi\AppData\Local\Temp\ccH5TxCZ.s:440    .text.ip_reass_remove_oldest_datagram:0000000000000020 .L25
C:\Users\stapi\AppData\Local\Temp\ccH5TxCZ.s:551    .rodata.ip_frag_free_pbuf_custom_ref.str1.4:0000000000000000 .LC7
C:\Users\stapi\AppData\Local\Temp\ccH5TxCZ.s:588    .text.ip_frag_free_pbuf_custom_ref:0000000000000030 .L43
C:\Users\stapi\AppData\Local\Temp\ccH5TxCZ.s:582    .text.ip_frag_free_pbuf_custom_ref:000000000000002e .L44
C:\Users\stapi\AppData\Local\Temp\ccH5TxCZ.s:608    .rodata.ipfrag_free_pbuf_custom.str1.4:0000000000000000 .LC8
C:\Users\stapi\AppData\Local\Temp\ccH5TxCZ.s:648    .text.ipfrag_free_pbuf_custom:0000000000000030 .L47
C:\Users\stapi\AppData\Local\Temp\ccH5TxCZ.s:642    .text.ipfrag_free_pbuf_custom:000000000000002e .L48
C:\Users\stapi\AppData\Local\Temp\ccH5TxCZ.s:667    .text.ipfrag_free_pbuf_custom:000000000000003e .L49
C:\Users\stapi\AppData\Local\Temp\ccH5TxCZ.s:714    .text.ip_reass_tmr:000000000000001c .L58
C:\Users\stapi\AppData\Local\Temp\ccH5TxCZ.s:739    .text.ip_reass_tmr:0000000000000030 .L56
C:\Users\stapi\AppData\Local\Temp\ccH5TxCZ.s:704    .text.ip_reass_tmr:0000000000000012 .L55
C:\Users\stapi\AppData\Local\Temp\ccH5TxCZ.s:731    .text.ip_reass_tmr:000000000000002a .L57
C:\Users\stapi\AppData\Local\Temp\ccH5TxCZ.s:762    .rodata.ip4_reass.str1.4:0000000000000058 .LC11
C:\Users\stapi\AppData\Local\Temp\ccH5TxCZ.s:756    .rodata.ip4_reass.str1.4:0000000000000000 .LC9
C:\Users\stapi\AppData\Local\Temp\ccH5TxCZ.s:765    .rodata.ip4_reass.str1.4:0000000000000068 .LC12
C:\Users\stapi\AppData\Local\Temp\ccH5TxCZ.s:771    .rodata.ip4_reass.str1.4:00000000000000a8 .LC14
C:\Users\stapi\AppData\Local\Temp\ccH5TxCZ.s:759    .rodata.ip4_reass.str1.4:0000000000000020 .LC10
C:\Users\stapi\AppData\Local\Temp\ccH5TxCZ.s:768    .rodata.ip4_reass.str1.4:000000000000008c .LC13
C:\Users\stapi\AppData\Local\Temp\ccH5TxCZ.s:969    .text.ip4_reass:00000000000000fe .L62
C:\Users\stapi\AppData\Local\Temp\ccH5TxCZ.s:953    .text.ip4_reass:00000000000000e6 .L64
C:\Users\stapi\AppData\Local\Temp\ccH5TxCZ.s:982    .text.ip4_reass:000000000000010c .L69
C:\Users\stapi\AppData\Local\Temp\ccH5TxCZ.s:921    .text.ip4_reass:00000000000000b4 .L114
C:\Users\stapi\AppData\Local\Temp\ccH5TxCZ.s:1453   .text.ip4_reass:0000000000000412 .L71
C:\Users\stapi\AppData\Local\Temp\ccH5TxCZ.s:876    .text.ip4_reass:000000000000007a .L66
C:\Users\stapi\AppData\Local\Temp\ccH5TxCZ.s:1368   .text.ip4_reass:0000000000000390 .L60
C:\Users\stapi\AppData\Local\Temp\ccH5TxCZ.s:1018   .text.ip4_reass:0000000000000164 .L67
C:\Users\stapi\AppData\Local\Temp\ccH5TxCZ.s:1427   .text.ip4_reass:00000000000003dc .L68
C:\Users\stapi\AppData\Local\Temp\ccH5TxCZ.s:883    .text.ip4_reass:0000000000000086 .L65
C:\Users\stapi\AppData\Local\Temp\ccH5TxCZ.s:1167   .text.ip4_reass:0000000000000248 .L75
C:\Users\stapi\AppData\Local\Temp\ccH5TxCZ.s:1155   .text.ip4_reass:000000000000023e .L76
C:\Users\stapi\AppData\Local\Temp\ccH5TxCZ.s:1397   .text.ip4_reass:00000000000003a8 .L73
C:\Users\stapi\AppData\Local\Temp\ccH5TxCZ.s:1609   .text.ip4_reass:00000000000004f0 .L77
C:\Users\stapi\AppData\Local\Temp\ccH5TxCZ.s:1091   .text.ip4_reass:00000000000001da .L87
C:\Users\stapi\AppData\Local\Temp\ccH5TxCZ.s:1615   .text.ip4_reass:00000000000004f6 .L116
C:\Users\stapi\AppData\Local\Temp\ccH5TxCZ.s:1241   .text.ip4_reass:00000000000002c8 .L91
C:\Users\stapi\AppData\Local\Temp\ccH5TxCZ.s:1281   .text.ip4_reass:0000000000000306 .L148
C:\Users\stapi\AppData\Local\Temp\ccH5TxCZ.s:1149   .text.ip4_reass:000000000000023c .L93
C:\Users\stapi\AppData\Local\Temp\ccH5TxCZ.s:1080   .text.ip4_reass:00000000000001cc .L78
C:\Users\stapi\AppData\Local\Temp\ccH5TxCZ.s:1195   .text.ip4_reass:0000000000000272 .L79
C:\Users\stapi\AppData\Local\Temp\ccH5TxCZ.s:1579   .text.ip4_reass:00000000000004be .L74
C:\Users\stapi\AppData\Local\Temp\ccH5TxCZ.s:1064   .text.ip4_reass:00000000000001ac .L82
C:\Users\stapi\AppData\Local\Temp\ccH5TxCZ.s:1235   .text.ip4_reass:00000000000002c6 .L83
C:\Users\stapi\AppData\Local\Temp\ccH5TxCZ.s:1126   .text.ip4_reass:0000000000000212 .L90
C:\Users\stapi\AppData\Local\Temp\ccH5TxCZ.s:1618   .text.ip4_reass:00000000000004f8 .L88
C:\Users\stapi\AppData\Local\Temp\ccH5TxCZ.s:1310   .text.ip4_reass:000000000000034a .L95
C:\Users\stapi\AppData\Local\Temp\ccH5TxCZ.s:1719   .text.ip4_reass:0000000000000598 .L98
C:\Users\stapi\AppData\Local\Temp\ccH5TxCZ.s:1726   .text.ip4_reass:00000000000005a0 .L154
C:\Users\stapi\AppData\Local\Temp\ccH5TxCZ.s:1387   .text.ip4_reass:000000000000039a .L105
C:\Users\stapi\AppData\Local\Temp\ccH5TxCZ.s:1421   .text.ip4_reass:00000000000003da .L106
C:\Users\stapi\AppData\Local\Temp\ccH5TxCZ.s:942    .text.ip4_reass:00000000000000d4 .L151
C:\Users\stapi\AppData\Local\Temp\ccH5TxCZ.s:1482   .text.ip4_reass:0000000000000438 .L72
C:\Users\stapi\AppData\Local\Temp\ccH5TxCZ.s:1025   .text.ip4_reass:0000000000000168 .L80
C:\Users\stapi\AppData\Local\Temp\ccH5TxCZ.s:1214   .text.ip4_reass:0000000000000292 .L110
C:\Users\stapi\AppData\Local\Temp\ccH5TxCZ.s:1159   .text.ip4_reass:0000000000000242 .L85
C:\Users\stapi\AppData\Local\Temp\ccH5TxCZ.s:1603   .text.ip4_reass:00000000000004ee .L86
C:\Users\stapi\AppData\Local\Temp\ccH5TxCZ.s:1085   .text.ip4_reass:00000000000001d0 .L115
C:\Users\stapi\AppData\Local\Temp\ccH5TxCZ.s:1646   .text.ip4_reass:0000000000000518 .L96
C:\Users\stapi\AppData\Local\Temp\ccH5TxCZ.s:1316   .text.ip4_reass:000000000000034c .L99
C:\Users\stapi\AppData\Local\Temp\ccH5TxCZ.s:1735   .text.ip4_reass:00000000000005aa .L100
C:\Users\stapi\AppData\Local\Temp\ccH5TxCZ.s:1351   .text.ip4_reass:0000000000000386 .L102
C:\Users\stapi\AppData\Local\Temp\ccH5TxCZ.s:1357   .text.ip4_reass:000000000000038a .L103
C:\Users\stapi\AppData\Local\Temp\ccH5TxCZ.s:1762   .text.ip4_reass:00000000000005ec .L104
C:\Users\stapi\AppData\Local\Temp\ccH5TxCZ.s:1773   .rodata.ip4_frag.str1.4:0000000000000000 .LC15
C:\Users\stapi\AppData\Local\Temp\ccH5TxCZ.s:1776   .rodata.ip4_frag.str1.4:000000000000001c .LC16
C:\Users\stapi\AppData\Local\Temp\ccH5TxCZ.s:1779   .rodata.ip4_frag.str1.4:000000000000003c .LC17
C:\Users\stapi\AppData\Local\Temp\ccH5TxCZ.s:2259   .text.ip4_frag:000000000000026a .L174
C:\Users\stapi\AppData\Local\Temp\ccH5TxCZ.s:1866   .text.ip4_frag:0000000000000050 .L157
C:\Users\stapi\AppData\Local\Temp\ccH5TxCZ.s:1860   .text.ip4_frag:000000000000004e .L158
C:\Users\stapi\AppData\Local\Temp\ccH5TxCZ.s:1957   .text.ip4_frag:00000000000000bc .L173
C:\Users\stapi\AppData\Local\Temp\ccH5TxCZ.s:2095   .text.ip4_frag:000000000000017c .L175
C:\Users\stapi\AppData\Local\Temp\ccH5TxCZ.s:1999   .text.ip4_frag:0000000000000108 .L160
C:\Users\stapi\AppData\Local\Temp\ccH5TxCZ.s:1994   .text.ip4_frag:0000000000000106 .L161
C:\Users\stapi\AppData\Local\Temp\ccH5TxCZ.s:2161   .text.ip4_frag:00000000000001d6 .L182
C:\Users\stapi\AppData\Local\Temp\ccH5TxCZ.s:2049   .text.ip4_frag:0000000000000156 .L163
C:\Users\stapi\AppData\Local\Temp\ccH5TxCZ.s:2044   .text.ip4_frag:0000000000000154 .L164
C:\Users\stapi\AppData\Local\Temp\ccH5TxCZ.s:2070   .text.ip4_frag:0000000000000164 .L165
C:\Users\stapi\AppData\Local\Temp\ccH5TxCZ.s:2017   .text.ip4_frag:000000000000011c .L162
C:\Users\stapi\AppData\Local\Temp\ccH5TxCZ.s:2101   .text.ip4_frag:0000000000000180 .L167
C:\Users\stapi\AppData\Local\Temp\ccH5TxCZ.s:1935   .text.ip4_frag:00000000000000b2 .L156
C:\Users\stapi\AppData\Local\Temp\ccH5TxCZ.s:2127   .text.ip4_frag:00000000000001a8 .L168
C:\Users\stapi\AppData\Local\Temp\ccH5TxCZ.s:2087   .text.ip4_frag:0000000000000172 .L185
C:\Users\stapi\AppData\Local\Temp\ccH5TxCZ.s:2060   .text.ip4_frag:000000000000015e .L184
C:\Users\stapi\AppData\Local\Temp\ccH5TxCZ.s:2184   .text.ip4_frag:00000000000001ee .L170
C:\Users\stapi\AppData\Local\Temp\ccH5TxCZ.s:2192   .text.ip4_frag:00000000000001f6 .L171
C:\Users\stapi\AppData\Local\Temp\ccH5TxCZ.s:1929   .text.ip4_frag:00000000000000ac .L159
C:\Users\stapi\AppData\Local\Temp\ccH5TxCZ.s:5263   .debug_abbrev:0000000000000000 .Ldebug_abbrev0
C:\Users\stapi\AppData\Local\Temp\ccH5TxCZ.s:8275   .debug_str:00000000000009ba .LASF189
C:\Users\stapi\AppData\Local\Temp\ccH5TxCZ.s:8259   .debug_str:00000000000008f2 .LASF190
C:\Users\stapi\AppData\Local\Temp\ccH5TxCZ.s:8079   .debug_str:00000000000003ee .LASF191
C:\Users\stapi\AppData\Local\Temp\ccH5TxCZ.s:7849   .debug_ranges:0000000000000000 .Ldebug_ranges0
C:\Users\stapi\AppData\Local\Temp\ccH5TxCZ.s:7905   .debug_line:0000000000000000 .Ldebug_line0
C:\Users\stapi\AppData\Local\Temp\ccH5TxCZ.s:8129   .debug_str:0000000000000583 .LASF0
C:\Users\stapi\AppData\Local\Temp\ccH5TxCZ.s:8255   .debug_str:00000000000008d3 .LASF2
C:\Users\stapi\AppData\Local\Temp\ccH5TxCZ.s:8181   .debug_str:00000000000006df .LASF1
C:\Users\stapi\AppData\Local\Temp\ccH5TxCZ.s:8217   .debug_str:00000000000007e7 .LASF3
C:\Users\stapi\AppData\Local\Temp\ccH5TxCZ.s:8153   .debug_str:0000000000000619 .LASF4
C:\Users\stapi\AppData\Local\Temp\ccH5TxCZ.s:8005   .debug_str:0000000000000230 .LASF5
C:\Users\stapi\AppData\Local\Temp\ccH5TxCZ.s:8257   .debug_str:00000000000008df .LASF6
C:\Users\stapi\AppData\Local\Temp\ccH5TxCZ.s:8157   .debug_str:000000000000062e .LASF7
C:\Users\stapi\AppData\Local\Temp\ccH5TxCZ.s:8219   .debug_str:00000000000007f5 .LASF8
C:\Users\stapi\AppData\Local\Temp\ccH5TxCZ.s:8211   .debug_str:00000000000007b0 .LASF9
C:\Users\stapi\AppData\Local\Temp\ccH5TxCZ.s:8097   .debug_str:00000000000004c8 .LASF10
C:\Users\stapi\AppData\Local\Temp\ccH5TxCZ.s:7993   .debug_str:00000000000001dd .LASF11
C:\Users\stapi\AppData\Local\Temp\ccH5TxCZ.s:7939   .debug_str:00000000000000c7 .LASF12
C:\Users\stapi\AppData\Local\Temp\ccH5TxCZ.s:7981   .debug_str:000000000000018c .LASF13
C:\Users\stapi\AppData\Local\Temp\ccH5TxCZ.s:8077   .debug_str:00000000000003e6 .LASF14
C:\Users\stapi\AppData\Local\Temp\ccH5TxCZ.s:8137   .debug_str:00000000000005c3 .LASF15
C:\Users\stapi\AppData\Local\Temp\ccH5TxCZ.s:7979   .debug_str:0000000000000183 .LASF16
C:\Users\stapi\AppData\Local\Temp\ccH5TxCZ.s:8065   .debug_str:000000000000038f .LASF17
C:\Users\stapi\AppData\Local\Temp\ccH5TxCZ.s:8107   .debug_str:00000000000004f7 .LASF18
C:\Users\stapi\AppData\Local\Temp\ccH5TxCZ.s:8047   .debug_str:0000000000000323 .LASF19
C:\Users\stapi\AppData\Local\Temp\ccH5TxCZ.s:7951   .debug_str:00000000000000fa .LASF20
C:\Users\stapi\AppData\Local\Temp\ccH5TxCZ.s:8151   .debug_str:0000000000000613 .LASF21
C:\Users\stapi\AppData\Local\Temp\ccH5TxCZ.s:8249   .debug_str:00000000000008a0 .LASF22
C:\Users\stapi\AppData\Local\Temp\ccH5TxCZ.s:8287   .debug_str:0000000000000ae2 .LASF23
C:\Users\stapi\AppData\Local\Temp\ccH5TxCZ.s:8147   .debug_str:00000000000005fe .LASF24
C:\Users\stapi\AppData\Local\Temp\ccH5TxCZ.s:8059   .debug_str:000000000000036d .LASF25
C:\Users\stapi\AppData\Local\Temp\ccH5TxCZ.s:8267   .debug_str:000000000000099b .LASF26
C:\Users\stapi\AppData\Local\Temp\ccH5TxCZ.s:8175   .debug_str:00000000000006c2 .LASF27
C:\Users\stapi\AppData\Local\Temp\ccH5TxCZ.s:8015   .debug_str:000000000000025b .LASF28
C:\Users\stapi\AppData\Local\Temp\ccH5TxCZ.s:8057   .debug_str:000000000000035e .LASF29
C:\Users\stapi\AppData\Local\Temp\ccH5TxCZ.s:7933   .debug_str:0000000000000097 .LASF30
C:\Users\stapi\AppData\Local\Temp\ccH5TxCZ.s:7975   .debug_str:0000000000000168 .LASF31
C:\Users\stapi\AppData\Local\Temp\ccH5TxCZ.s:8183   .debug_str:00000000000006e9 .LASF32
C:\Users\stapi\AppData\Local\Temp\ccH5TxCZ.s:8265   .debug_str:0000000000000992 .LASF33
C:\Users\stapi\AppData\Local\Temp\ccH5TxCZ.s:8101   .debug_str:00000000000004dd .LASF34
C:\Users\stapi\AppData\Local\Temp\ccH5TxCZ.s:8241   .debug_str:000000000000086d .LASF35
C:\Users\stapi\AppData\Local\Temp\ccH5TxCZ.s:7969   .debug_str:000000000000014c .LASF36
C:\Users\stapi\AppData\Local\Temp\ccH5TxCZ.s:7931   .debug_str:000000000000008e .LASF37
C:\Users\stapi\AppData\Local\Temp\ccH5TxCZ.s:7935   .debug_str:000000000000009f .LASF38
C:\Users\stapi\AppData\Local\Temp\ccH5TxCZ.s:7945   .debug_str:00000000000000e4 .LASF39
C:\Users\stapi\AppData\Local\Temp\ccH5TxCZ.s:7973   .debug_str:0000000000000159 .LASF40
C:\Users\stapi\AppData\Local\Temp\ccH5TxCZ.s:8033   .debug_str:00000000000002e5 .LASF41
C:\Users\stapi\AppData\Local\Temp\ccH5TxCZ.s:8123   .debug_str:0000000000000555 .LASF42
C:\Users\stapi\AppData\Local\Temp\ccH5TxCZ.s:8279   .debug_str:0000000000000abe .LASF43
C:\Users\stapi\AppData\Local\Temp\ccH5TxCZ.s:7927   .debug_str:000000000000007f .LASF44
C:\Users\stapi\AppData\Local\Temp\ccH5TxCZ.s:7921   .debug_str:000000000000004c .LASF45
C:\Users\stapi\AppData\Local\Temp\ccH5TxCZ.s:8281   .debug_str:0000000000000aca .LASF46
C:\Users\stapi\AppData\Local\Temp\ccH5TxCZ.s:8019   .debug_str:0000000000000278 .LASF47
C:\Users\stapi\AppData\Local\Temp\ccH5TxCZ.s:8043   .debug_str:0000000000000310 .LASF48
C:\Users\stapi\AppData\Local\Temp\ccH5TxCZ.s:8041   .debug_str:000000000000030b .LASF56
C:\Users\stapi\AppData\Local\Temp\ccH5TxCZ.s:7941   .debug_str:00000000000000d4 .LASF49
C:\Users\stapi\AppData\Local\Temp\ccH5TxCZ.s:8031   .debug_str:00000000000002dd .LASF50
C:\Users\stapi\AppData\Local\Temp\ccH5TxCZ.s:8029   .debug_str:00000000000002d5 .LASF51
C:\Users\stapi\AppData\Local\Temp\ccH5TxCZ.s:8027   .debug_str:00000000000002c7 .LASF52
C:\Users\stapi\AppData\Local\Temp\ccH5TxCZ.s:7929   .debug_str:0000000000000088 .LASF53
C:\Users\stapi\AppData\Local\Temp\ccH5TxCZ.s:8139   .debug_str:00000000000005cc .LASF54
C:\Users\stapi\AppData\Local\Temp\ccH5TxCZ.s:8159   .debug_str:0000000000000637 .LASF55
C:\Users\stapi\AppData\Local\Temp\ccH5TxCZ.s:7955   .debug_str:0000000000000105 .LASF57
C:\Users\stapi\AppData\Local\Temp\ccH5TxCZ.s:8143   .debug_str:00000000000005e0 .LASF58
C:\Users\stapi\AppData\Local\Temp\ccH5TxCZ.s:8177   .debug_str:00000000000006d1 .LASF59
C:\Users\stapi\AppData\Local\Temp\ccH5TxCZ.s:8231   .debug_str:0000000000000833 .LASF60
C:\Users\stapi\AppData\Local\Temp\ccH5TxCZ.s:8155   .debug_str:0000000000000623 .LASF61
C:\Users\stapi\AppData\Local\Temp\ccH5TxCZ.s:8273   .debug_str:00000000000009b0 .LASF62
C:\Users\stapi\AppData\Local\Temp\ccH5TxCZ.s:8205   .debug_str:0000000000000794 .LASF63
C:\Users\stapi\AppData\Local\Temp\ccH5TxCZ.s:8169   .debug_str:0000000000000683 .LASF64
C:\Users\stapi\AppData\Local\Temp\ccH5TxCZ.s:8105   .debug_str:00000000000004ea .LASF65
C:\Users\stapi\AppData\Local\Temp\ccH5TxCZ.s:7917   .debug_str:0000000000000032 .LASF66
C:\Users\stapi\AppData\Local\Temp\ccH5TxCZ.s:8223   .debug_str:0000000000000807 .LASF67
C:\Users\stapi\AppData\Local\Temp\ccH5TxCZ.s:8125   .debug_str:000000000000055f .LASF68
C:\Users\stapi\AppData\Local\Temp\ccH5TxCZ.s:8119   .debug_str:000000000000053f .LASF69
C:\Users\stapi\AppData\Local\Temp\ccH5TxCZ.s:8197   .debug_str:0000000000000755 .LASF70
C:\Users\stapi\AppData\Local\Temp\ccH5TxCZ.s:8093   .debug_str:00000000000004b4 .LASF71
C:\Users\stapi\AppData\Local\Temp\ccH5TxCZ.s:8053   .debug_str:0000000000000347 .LASF72
C:\Users\stapi\AppData\Local\Temp\ccH5TxCZ.s:7985   .debug_str:00000000000001a3 .LASF73
C:\Users\stapi\AppData\Local\Temp\ccH5TxCZ.s:8017   .debug_str:0000000000000263 .LASF74
C:\Users\stapi\AppData\Local\Temp\ccH5TxCZ.s:7983   .debug_str:0000000000000193 .LASF75
C:\Users\stapi\AppData\Local\Temp\ccH5TxCZ.s:8163   .debug_str:000000000000065f .LASF76
C:\Users\stapi\AppData\Local\Temp\ccH5TxCZ.s:8277   .debug_str:0000000000000ab3 .LASF77
C:\Users\stapi\AppData\Local\Temp\ccH5TxCZ.s:8061   .debug_str:0000000000000379 .LASF78
C:\Users\stapi\AppData\Local\Temp\ccH5TxCZ.s:7965   .debug_str:0000000000000138 .LASF79
C:\Users\stapi\AppData\Local\Temp\ccH5TxCZ.s:8045   .debug_str:000000000000031a .LASF80
C:\Users\stapi\AppData\Local\Temp\ccH5TxCZ.s:8025   .debug_str:00000000000002a1 .LASF84
C:\Users\stapi\AppData\Local\Temp\ccH5TxCZ.s:8253   .debug_str:00000000000008b1 .LASF81
C:\Users\stapi\AppData\Local\Temp\ccH5TxCZ.s:7925   .debug_str:000000000000005d .LASF82
C:\Users\stapi\AppData\Local\Temp\ccH5TxCZ.s:8135   .debug_str:00000000000005a2 .LASF83
C:\Users\stapi\AppData\Local\Temp\ccH5TxCZ.s:8213   .debug_str:00000000000007c2 .LASF85
C:\Users\stapi\AppData\Local\Temp\ccH5TxCZ.s:8127   .debug_str:000000000000056e .LASF86
C:\Users\stapi\AppData\Local\Temp\ccH5TxCZ.s:8075   .debug_str:00000000000003d1 .LASF87
C:\Users\stapi\AppData\Local\Temp\ccH5TxCZ.s:8239   .debug_str:0000000000000867 .LASF88
C:\Users\stapi\AppData\Local\Temp\ccH5TxCZ.s:8295   .debug_str:0000000000000b10 .LASF89
C:\Users\stapi\AppData\Local\Temp\ccH5TxCZ.s:8095   .debug_str:00000000000004c0 .LASF90
C:\Users\stapi\AppData\Local\Temp\ccH5TxCZ.s:7919   .debug_str:0000000000000046 .LASF91
C:\Users\stapi\AppData\Local\Temp\ccH5TxCZ.s:8037   .debug_str:00000000000002fa .LASF92
C:\Users\stapi\AppData\Local\Temp\ccH5TxCZ.s:7947   .debug_str:00000000000000ea .LASF93
C:\Users\stapi\AppData\Local\Temp\ccH5TxCZ.s:8233   .debug_str:0000000000000838 .LASF94
C:\Users\stapi\AppData\Local\Temp\ccH5TxCZ.s:8063   .debug_str:0000000000000383 .LASF95
C:\Users\stapi\AppData\Local\Temp\ccH5TxCZ.s:7991   .debug_str:00000000000001d6 .LASF96
C:\Users\stapi\AppData\Local\Temp\ccH5TxCZ.s:8011   .debug_str:0000000000000248 .LASF97
C:\Users\stapi\AppData\Local\Temp\ccH5TxCZ.s:8189   .debug_str:0000000000000707 .LASF98
C:\Users\stapi\AppData\Local\Temp\ccH5TxCZ.s:8199   .debug_str:0000000000000764 .LASF99
C:\Users\stapi\AppData\Local\Temp\ccH5TxCZ.s:8067   .debug_str:0000000000000394 .LASF100
C:\Users\stapi\AppData\Local\Temp\ccH5TxCZ.s:8167   .debug_str:0000000000000678 .LASF101
C:\Users\stapi\AppData\Local\Temp\ccH5TxCZ.s:8039   .debug_str:0000000000000301 .LASF102
C:\Users\stapi\AppData\Local\Temp\ccH5TxCZ.s:7977   .debug_str:0000000000000174 .LASF103
C:\Users\stapi\AppData\Local\Temp\ccH5TxCZ.s:7961   .debug_str:000000000000011d .LASF104
C:\Users\stapi\AppData\Local\Temp\ccH5TxCZ.s:8195   .debug_str:0000000000000741 .LASF105
C:\Users\stapi\AppData\Local\Temp\ccH5TxCZ.s:8247   .debug_str:0000000000000887 .LASF106
C:\Users\stapi\AppData\Local\Temp\ccH5TxCZ.s:7989   .debug_str:00000000000001c6 .LASF107
C:\Users\stapi\AppData\Local\Temp\ccH5TxCZ.s:8141   .debug_str:00000000000005d3 .LASF108
C:\Users\stapi\AppData\Local\Temp\ccH5TxCZ.s:8185   .debug_str:00000000000006f4 .LASF109
C:\Users\stapi\AppData\Local\Temp\ccH5TxCZ.s:8111   .debug_str:000000000000051a .LASF110
C:\Users\stapi\AppData\Local\Temp\ccH5TxCZ.s:8209   .debug_str:00000000000007ab .LASF111
C:\Users\stapi\AppData\Local\Temp\ccH5TxCZ.s:8271   .debug_str:00000000000009ab .LASF112
C:\Users\stapi\AppData\Local\Temp\ccH5TxCZ.s:8013   .debug_str:0000000000000253 .LASF113
C:\Users\stapi\AppData\Local\Temp\ccH5TxCZ.s:7953   .debug_str:0000000000000100 .LASF114
C:\Users\stapi\AppData\Local\Temp\ccH5TxCZ.s:8081   .debug_str:000000000000046c .LASF115
C:\Users\stapi\AppData\Local\Temp\ccH5TxCZ.s:8007   .debug_str:000000000000023b .LASF116
C:\Users\stapi\AppData\Local\Temp\ccH5TxCZ.s:8289   .debug_str:0000000000000aea .LASF117
C:\Users\stapi\AppData\Local\Temp\ccH5TxCZ.s:8293   .debug_str:0000000000000b03 .LASF118
C:\Users\stapi\AppData\Local\Temp\ccH5TxCZ.s:8245   .debug_str:0000000000000881 .LASF119
C:\Users\stapi\AppData\Local\Temp\ccH5TxCZ.s:8227   .debug_str:000000000000081d .LASF120
C:\Users\stapi\AppData\Local\Temp\ccH5TxCZ.s:8283   .debug_str:0000000000000ad3 .LASF121
C:\Users\stapi\AppData\Local\Temp\ccH5TxCZ.s:7995   .debug_str:00000000000001f4 .LASF122
C:\Users\stapi\AppData\Local\Temp\ccH5TxCZ.s:8145   .debug_str:00000000000005f5 .LASF123
C:\Users\stapi\AppData\Local\Temp\ccH5TxCZ.s:8087   .debug_str:0000000000000491 .LASF124
C:\Users\stapi\AppData\Local\Temp\ccH5TxCZ.s:8187   .debug_str:00000000000006fb .LASF125
C:\Users\stapi\AppData\Local\Temp\ccH5TxCZ.s:8149   .debug_str:0000000000000606 .LASF126
C:\Users\stapi\AppData\Local\Temp\ccH5TxCZ.s:7987   .debug_str:00000000000001b6 .LASF127
C:\Users\stapi\AppData\Local\Temp\ccH5TxCZ.s:8133   .debug_str:0000000000000598 .LASF128
C:\Users\stapi\AppData\Local\Temp\ccH5TxCZ.s:8191   .debug_str:000000000000070c .LASF129
C:\Users\stapi\AppData\Local\Temp\ccH5TxCZ.s:8115   .debug_str:0000000000000527 .LASF130
C:\Users\stapi\AppData\Local\Temp\ccH5TxCZ.s:8049   .debug_str:0000000000000328 .LASF131
C:\Users\stapi\AppData\Local\Temp\ccH5TxCZ.s:8285   .debug_str:0000000000000ad9 .LASF145
C:\Users\stapi\AppData\Local\Temp\ccH5TxCZ.s:1786   .text.ip4_frag:0000000000000000 .LFB14
C:\Users\stapi\AppData\Local\Temp\ccH5TxCZ.s:2265   .text.ip4_frag:000000000000026e .LFE14
C:\Users\stapi\AppData\Local\Temp\ccH5TxCZ.s:6299   .debug_loc:0000000000000000 .LLST59
C:\Users\stapi\AppData\Local\Temp\ccH5TxCZ.s:6325   .debug_loc:0000000000000042 .LLST60
C:\Users\stapi\AppData\Local\Temp\ccH5TxCZ.s:6362   .debug_loc:000000000000009d .LLST61
C:\Users\stapi\AppData\Local\Temp\ccH5TxCZ.s:8121   .debug_str:000000000000054e .LASF132
C:\Users\stapi\AppData\Local\Temp\ccH5TxCZ.s:6397   .debug_loc:00000000000000f6 .LLST62
C:\Users\stapi\AppData\Local\Temp\ccH5TxCZ.s:8165   .debug_str:0000000000000670 .LASF133
C:\Users\stapi\AppData\Local\Temp\ccH5TxCZ.s:6404   .debug_loc:0000000000000109 .LLST63
C:\Users\stapi\AppData\Local\Temp\ccH5TxCZ.s:8243   .debug_str:0000000000000876 .LASF134
C:\Users\stapi\AppData\Local\Temp\ccH5TxCZ.s:6420   .debug_loc:0000000000000133 .LLST64
C:\Users\stapi\AppData\Local\Temp\ccH5TxCZ.s:8215   .debug_str:00000000000007da .LASF135
C:\Users\stapi\AppData\Local\Temp\ccH5TxCZ.s:6445   .debug_loc:0000000000000174 .LLST65
C:\Users\stapi\AppData\Local\Temp\ccH5TxCZ.s:7915   .debug_str:0000000000000023 .LASF136
C:\Users\stapi\AppData\Local\Temp\ccH5TxCZ.s:6460   .debug_loc:000000000000019d .LLST66
C:\Users\stapi\AppData\Local\Temp\ccH5TxCZ.s:6479   .debug_loc:00000000000001d1 .LLST67
C:\Users\stapi\AppData\Local\Temp\ccH5TxCZ.s:8179   .debug_str:00000000000006da .LASF137
C:\Users\stapi\AppData\Local\Temp\ccH5TxCZ.s:6545   .debug_loc:0000000000000238 .LLST68
C:\Users\stapi\AppData\Local\Temp\ccH5TxCZ.s:7909   .debug_str:0000000000000005 .LASF138
C:\Users\stapi\AppData\Local\Temp\ccH5TxCZ.s:6560   .debug_loc:0000000000000261 .LLST69
C:\Users\stapi\AppData\Local\Temp\ccH5TxCZ.s:6567   .debug_loc:0000000000000274 .LLST70
C:\Users\stapi\AppData\Local\Temp\ccH5TxCZ.s:7911   .debug_str:000000000000000e .LASF139
C:\Users\stapi\AppData\Local\Temp\ccH5TxCZ.s:6582   .debug_loc:000000000000029d .LLST71
C:\Users\stapi\AppData\Local\Temp\ccH5TxCZ.s:7907   .debug_str:0000000000000000 .LASF140
C:\Users\stapi\AppData\Local\Temp\ccH5TxCZ.s:6607   .debug_loc:00000000000002c4 .LLST72
C:\Users\stapi\AppData\Local\Temp\ccH5TxCZ.s:6641   .debug_loc:000000000000031c .LLST73
C:\Users\stapi\AppData\Local\Temp\ccH5TxCZ.s:7957   .debug_str:0000000000000111 .LASF141
C:\Users\stapi\AppData\Local\Temp\ccH5TxCZ.s:6665   .debug_loc:0000000000000355 .LLST74
C:\Users\stapi\AppData\Local\Temp\ccH5TxCZ.s:8221   .debug_str:0000000000000800 .LASF154
C:\Users\stapi\AppData\Local\Temp\ccH5TxCZ.s:6690   .debug_loc:0000000000000383 .LLST75
C:\Users\stapi\AppData\Local\Temp\ccH5TxCZ.s:8009   .debug_str:0000000000000243 .LASF142
C:\Users\stapi\AppData\Local\Temp\ccH5TxCZ.s:6710   .debug_loc:00000000000003b8 .LLST76
C:\Users\stapi\AppData\Local\Temp\ccH5TxCZ.s:2072   .text.ip4_frag:0000000000000164 .LBB45
C:\Users\stapi\AppData\Local\Temp\ccH5TxCZ.s:2082   .text.ip4_frag:0000000000000170 .LBE45
C:\Users\stapi\AppData\Local\Temp\ccH5TxCZ.s:2078   .text.ip4_frag:000000000000016e .LVL219
C:\Users\stapi\AppData\Local\Temp\ccH5TxCZ.s:2043   .text.ip4_frag:0000000000000154 .LVL214
C:\Users\stapi\AppData\Local\Temp\ccH5TxCZ.s:2114   .text.ip4_frag:0000000000000198 .LVL225
C:\Users\stapi\AppData\Local\Temp\ccH5TxCZ.s:2123   .text.ip4_frag:00000000000001a6 .LVL227
C:\Users\stapi\AppData\Local\Temp\ccH5TxCZ.s:2135   .text.ip4_frag:00000000000001b6 .LVL231
C:\Users\stapi\AppData\Local\Temp\ccH5TxCZ.s:2151   .text.ip4_frag:00000000000001ca .LVL232
C:\Users\stapi\AppData\Local\Temp\ccH5TxCZ.s:6735   .debug_loc:00000000000003eb .LLST77
C:\Users\stapi\AppData\Local\Temp\ccH5TxCZ.s:2093   .text.ip4_frag:000000000000017c .LVL222
C:\Users\stapi\AppData\Local\Temp\ccH5TxCZ.s:2232   .text.ip4_frag:000000000000024c .LVL242
C:\Users\stapi\AppData\Local\Temp\ccH5TxCZ.s:1859   .text.ip4_frag:000000000000004e .LVL197
C:\Users\stapi\AppData\Local\Temp\ccH5TxCZ.s:1894   .text.ip4_frag:0000000000000080 .LVL199
C:\Users\stapi\AppData\Local\Temp\ccH5TxCZ.s:1972   .text.ip4_frag:00000000000000d4 .LVL206
C:\Users\stapi\AppData\Local\Temp\ccH5TxCZ.s:1993   .text.ip4_frag:0000000000000106 .LVL208
C:\Users\stapi\AppData\Local\Temp\ccH5TxCZ.s:2007   .text.ip4_frag:0000000000000116 .LVL209
C:\Users\stapi\AppData\Local\Temp\ccH5TxCZ.s:2195   .text.ip4_frag:00000000000001fe .LVL239
C:\Users\stapi\AppData\Local\Temp\ccH5TxCZ.s:2203   .text.ip4_frag:0000000000000218 .LVL240
C:\Users\stapi\AppData\Local\Temp\ccH5TxCZ.s:2216   .text.ip4_frag:0000000000000236 .LVL241
C:\Users\stapi\AppData\Local\Temp\ccH5TxCZ.s:2242   .text.ip4_frag:0000000000000258 .LVL244
C:\Users\stapi\AppData\Local\Temp\ccH5TxCZ.s:8171   .debug_str:0000000000000690 .LASF143
C:\Users\stapi\AppData\Local\Temp\ccH5TxCZ.s:8237   .debug_str:000000000000084a .LASF144
C:\Users\stapi\AppData\Local\Temp\ccH5TxCZ.s:8201   .debug_str:000000000000076d .LASF192
C:\Users\stapi\AppData\Local\Temp\ccH5TxCZ.s:8297   .debug_str:0000000000000b18 .LASF146
C:\Users\stapi\AppData\Local\Temp\ccH5TxCZ.s:778    .text.ip4_reass:0000000000000000 .LFB10
C:\Users\stapi\AppData\Local\Temp\ccH5TxCZ.s:1769   .text.ip4_reass:00000000000005ee .LFE10
C:\Users\stapi\AppData\Local\Temp\ccH5TxCZ.s:6748   .debug_loc:0000000000000404 .LLST30
C:\Users\stapi\AppData\Local\Temp\ccH5TxCZ.s:6807   .debug_loc:0000000000000491 .LLST31
C:\Users\stapi\AppData\Local\Temp\ccH5TxCZ.s:7923   .debug_str:0000000000000055 .LASF147
C:\Users\stapi\AppData\Local\Temp\ccH5TxCZ.s:6822   .debug_loc:00000000000004ba .LLST32
C:\Users\stapi\AppData\Local\Temp\ccH5TxCZ.s:6845   .debug_loc:00000000000004f9 .LLST33
C:\Users\stapi\AppData\Local\Temp\ccH5TxCZ.s:7967   .debug_str:0000000000000147 .LASF148
C:\Users\stapi\AppData\Local\Temp\ccH5TxCZ.s:6864   .debug_loc:000000000000052d .LLST34
C:\Users\stapi\AppData\Local\Temp\ccH5TxCZ.s:7999   .debug_str:0000000000000217 .LASF149
C:\Users\stapi\AppData\Local\Temp\ccH5TxCZ.s:6871   .debug_loc:0000000000000540 .LLST35
C:\Users\stapi\AppData\Local\Temp\ccH5TxCZ.s:6907   .debug_loc:0000000000000581 .LLST36
C:\Users\stapi\AppData\Local\Temp\ccH5TxCZ.s:8001   .debug_str:000000000000021e .LASF150
C:\Users\stapi\AppData\Local\Temp\ccH5TxCZ.s:6926   .debug_loc:00000000000005b5 .LLST37
C:\Users\stapi\AppData\Local\Temp\ccH5TxCZ.s:7959   .debug_str:0000000000000118 .LASF151
C:\Users\stapi\AppData\Local\Temp\ccH5TxCZ.s:6945   .debug_loc:00000000000005e9 .LLST38
C:\Users\stapi\AppData\Local\Temp\ccH5TxCZ.s:8103   .debug_str:00000000000004e4 .LASF152
C:\Users\stapi\AppData\Local\Temp\ccH5TxCZ.s:8269   .debug_str:00000000000009a3 .LASF153
C:\Users\stapi\AppData\Local\Temp\ccH5TxCZ.s:6960   .debug_loc:0000000000000604 .LLST39
C:\Users\stapi\AppData\Local\Temp\ccH5TxCZ.s:7943   .debug_str:00000000000000d9 .LASF193
C:\Users\stapi\AppData\Local\Temp\ccH5TxCZ.s:8023   .debug_str:0000000000000292 .LASF155
C:\Users\stapi\AppData\Local\Temp\ccH5TxCZ.s:1468   .text.ip4_reass:0000000000000424 .LBB36
C:\Users\stapi\AppData\Local\Temp\ccH5TxCZ.s:1483   .text.ip4_reass:0000000000000438 .LBE36
C:\Users\stapi\AppData\Local\Temp\ccH5TxCZ.s:7002   .debug_loc:0000000000000648 .LLST57
C:\Users\stapi\AppData\Local\Temp\ccH5TxCZ.s:1631   .text.ip4_reass:0000000000000506 .LBB38
C:\Users\stapi\AppData\Local\Temp\ccH5TxCZ.s:1648   .text.ip4_reass:0000000000000518 .LBE38
C:\Users\stapi\AppData\Local\Temp\ccH5TxCZ.s:7009   .debug_loc:000000000000065b .LLST58
C:\Users\stapi\AppData\Local\Temp\ccH5TxCZ.s:8225   .debug_str:0000000000000814 .LASF156
C:\Users\stapi\AppData\Local\Temp\ccH5TxCZ.s:7021   .debug_loc:0000000000000673 .LLST55
C:\Users\stapi\AppData\Local\Temp\ccH5TxCZ.s:7032   .debug_loc:0000000000000691 .LLST56
C:\Users\stapi\AppData\Local\Temp\ccH5TxCZ.s:1329   .text.ip4_reass:000000000000035c .LVL142
C:\Users\stapi\AppData\Local\Temp\ccH5TxCZ.s:1334   .text.ip4_reass:0000000000000368 .LVL143
C:\Users\stapi\AppData\Local\Temp\ccH5TxCZ.s:1692   .text.ip4_reass:000000000000055a .LVL180
C:\Users\stapi\AppData\Local\Temp\ccH5TxCZ.s:1696   .text.ip4_reass:0000000000000564 .LVL181
C:\Users\stapi\AppData\Local\Temp\ccH5TxCZ.s:1710   .text.ip4_reass:000000000000058a .LVL182
C:\Users\stapi\AppData\Local\Temp\ccH5TxCZ.s:1740   .text.ip4_reass:00000000000005b6 .LVL187
C:\Users\stapi\AppData\Local\Temp\ccH5TxCZ.s:1745   .text.ip4_reass:00000000000005c0 .LVL188
C:\Users\stapi\AppData\Local\Temp\ccH5TxCZ.s:1761   .text.ip4_reass:00000000000005ec .LVL190
C:\Users\stapi\AppData\Local\Temp\ccH5TxCZ.s:890    .text.ip4_reass:0000000000000088 .LBB30
C:\Users\stapi\AppData\Local\Temp\ccH5TxCZ.s:944    .text.ip4_reass:00000000000000d4 .LBE30
C:\Users\stapi\AppData\Local\Temp\ccH5TxCZ.s:7039   .debug_loc:00000000000006a4 .LLST40
C:\Users\stapi\AppData\Local\Temp\ccH5TxCZ.s:7046   .debug_loc:00000000000006b7 .LLST41
C:\Users\stapi\AppData\Local\Temp\ccH5TxCZ.s:7053   .debug_loc:00000000000006ca .LLST42
C:\Users\stapi\AppData\Local\Temp\ccH5TxCZ.s:897    .text.ip4_reass:0000000000000092 .LVL92
C:\Users\stapi\AppData\Local\Temp\ccH5TxCZ.s:908    .text.ip4_reass:00000000000000a2 .LVL94
C:\Users\stapi\AppData\Local\Temp\ccH5TxCZ.s:915    .text.ip4_reass:00000000000000b0 .LVL95
C:\Users\stapi\AppData\Local\Temp\ccH5TxCZ.s:927    .text.ip4_reass:00000000000000c4 .LVL97
C:\Users\stapi\AppData\Local\Temp\ccH5TxCZ.s:1026   .text.ip4_reass:0000000000000168 .LBB32
C:\Users\stapi\AppData\Local\Temp\ccH5TxCZ.s:7060   .debug_loc:00000000000006dd .LLST43
C:\Users\stapi\AppData\Local\Temp\ccH5TxCZ.s:7089   .debug_loc:000000000000070d .LLST44
C:\Users\stapi\AppData\Local\Temp\ccH5TxCZ.s:7125   .debug_loc:0000000000000760 .LLST45
C:\Users\stapi\AppData\Local\Temp\ccH5TxCZ.s:7136   .debug_loc:000000000000077e .LLST46
C:\Users\stapi\AppData\Local\Temp\ccH5TxCZ.s:7167   .debug_loc:00000000000007d3 .LLST47
C:\Users\stapi\AppData\Local\Temp\ccH5TxCZ.s:7183   .debug_loc:00000000000007fd .LLST48
C:\Users\stapi\AppData\Local\Temp\ccH5TxCZ.s:7231   .debug_loc:000000000000087f .LLST49
C:\Users\stapi\AppData\Local\Temp\ccH5TxCZ.s:7266   .debug_loc:00000000000008df .LLST50
C:\Users\stapi\AppData\Local\Temp\ccH5TxCZ.s:7285   .debug_loc:0000000000000913 .LLST51
C:\Users\stapi\AppData\Local\Temp\ccH5TxCZ.s:7300   .debug_loc:000000000000093c .LLST52
C:\Users\stapi\AppData\Local\Temp\ccH5TxCZ.s:7315   .debug_loc:0000000000000957 .LLST53
C:\Users\stapi\AppData\Local\Temp\ccH5TxCZ.s:7326   .debug_loc:0000000000000975 .LLST54
C:\Users\stapi\AppData\Local\Temp\ccH5TxCZ.s:1148   .text.ip4_reass:000000000000023c .LVL119
C:\Users\stapi\AppData\Local\Temp\ccH5TxCZ.s:1234   .text.ip4_reass:00000000000002c6 .LVL129
C:\Users\stapi\AppData\Local\Temp\ccH5TxCZ.s:1309   .text.ip4_reass:000000000000034a .LVL139
C:\Users\stapi\AppData\Local\Temp\ccH5TxCZ.s:1504   .text.ip4_reass:0000000000000450 .LVL162
C:\Users\stapi\AppData\Local\Temp\ccH5TxCZ.s:1529   .text.ip4_reass:0000000000000476 .LVL166
C:\Users\stapi\AppData\Local\Temp\ccH5TxCZ.s:1602   .text.ip4_reass:00000000000004ee .LVL172
C:\Users\stapi\AppData\Local\Temp\ccH5TxCZ.s:828    .text.ip4_reass:000000000000002e .LVL83
C:\Users\stapi\AppData\Local\Temp\ccH5TxCZ.s:840    .text.ip4_reass:0000000000000044 .LVL85
C:\Users\stapi\AppData\Local\Temp\ccH5TxCZ.s:857    .text.ip4_reass:0000000000000060 .LVL87
C:\Users\stapi\AppData\Local\Temp\ccH5TxCZ.s:950    .text.ip4_reass:00000000000000e4 .LVL99
C:\Users\stapi\AppData\Local\Temp\ccH5TxCZ.s:960    .text.ip4_reass:00000000000000f2 .LVL102
C:\Users\stapi\AppData\Local\Temp\ccH5TxCZ.s:975    .text.ip4_reass:0000000000000108 .LVL104
C:\Users\stapi\AppData\Local\Temp\ccH5TxCZ.s:1395   .text.ip4_reass:00000000000003a6 .LVL150
C:\Users\stapi\AppData\Local\Temp\ccH5TxCZ.s:1420   .text.ip4_reass:00000000000003da .LVL151
C:\Users\stapi\AppData\Local\Temp\ccH5TxCZ.s:1439   .text.ip4_reass:00000000000003f2 .LVL153
C:\Users\stapi\AppData\Local\Temp\ccH5TxCZ.s:1448   .text.ip4_reass:000000000000040a .LVL154
C:\Users\stapi\AppData\Local\Temp\ccH5TxCZ.s:8193   .debug_str:0000000000000712 .LASF162
C:\Users\stapi\AppData\Local\Temp\ccH5TxCZ.s:8069   .debug_str:00000000000003a4 .LASF157
C:\Users\stapi\AppData\Local\Temp\ccH5TxCZ.s:8229   .debug_str:000000000000082a .LASF158
C:\Users\stapi\AppData\Local\Temp\ccH5TxCZ.s:8207   .debug_str:00000000000007a1 .LASF159
C:\Users\stapi\AppData\Local\Temp\ccH5TxCZ.s:8173   .debug_str:00000000000006a8 .LASF160
C:\Users\stapi\AppData\Local\Temp\ccH5TxCZ.s:7949   .debug_str:00000000000000f5 .LASF161
C:\Users\stapi\AppData\Local\Temp\ccH5TxCZ.s:8109   .debug_str:00000000000004fc .LASF163
C:\Users\stapi\AppData\Local\Temp\ccH5TxCZ.s:7937   .debug_str:00000000000000a7 .LASF194
C:\Users\stapi\AppData\Local\Temp\ccH5TxCZ.s:393    .text.ip_reass_remove_oldest_datagram:0000000000000000 .LFB6
C:\Users\stapi\AppData\Local\Temp\ccH5TxCZ.s:547    .text.ip_reass_remove_oldest_datagram:00000000000000b8 .LFE6
C:\Users\stapi\AppData\Local\Temp\ccH5TxCZ.s:7361   .debug_loc:00000000000009ce .LLST13
C:\Users\stapi\AppData\Local\Temp\ccH5TxCZ.s:8003   .debug_str:0000000000000223 .LASF164
C:\Users\stapi\AppData\Local\Temp\ccH5TxCZ.s:7372   .debug_loc:00000000000009ec .LLST14
C:\Users\stapi\AppData\Local\Temp\ccH5TxCZ.s:7383   .debug_loc:0000000000000a0a .LLST15
C:\Users\stapi\AppData\Local\Temp\ccH5TxCZ.s:8073   .debug_str:00000000000003ca .LASF165
C:\Users\stapi\AppData\Local\Temp\ccH5TxCZ.s:7394   .debug_loc:0000000000000a28 .LLST16
C:\Users\stapi\AppData\Local\Temp\ccH5TxCZ.s:7410   .debug_loc:0000000000000a52 .LLST17
C:\Users\stapi\AppData\Local\Temp\ccH5TxCZ.s:8051   .debug_str:000000000000033b .LASF166
C:\Users\stapi\AppData\Local\Temp\ccH5TxCZ.s:7426   .debug_loc:0000000000000a7c .LLST18
C:\Users\stapi\AppData\Local\Temp\ccH5TxCZ.s:8235   .debug_str:000000000000083e .LASF167
C:\Users\stapi\AppData\Local\Temp\ccH5TxCZ.s:7446   .debug_loc:0000000000000ab1 .LLST19
C:\Users\stapi\AppData\Local\Temp\ccH5TxCZ.s:8291   .debug_str:0000000000000aef .LASF168
C:\Users\stapi\AppData\Local\Temp\ccH5TxCZ.s:7458   .debug_loc:0000000000000ad0 .LLST20
C:\Users\stapi\AppData\Local\Temp\ccH5TxCZ.s:7913   .debug_str:0000000000000013 .LASF169
C:\Users\stapi\AppData\Local\Temp\ccH5TxCZ.s:7465   .debug_loc:0000000000000ae3 .LLST21
C:\Users\stapi\AppData\Local\Temp\ccH5TxCZ.s:449    .text.ip_reass_remove_oldest_datagram:000000000000002c .LVL49
C:\Users\stapi\AppData\Local\Temp\ccH5TxCZ.s:8071   .debug_str:00000000000003aa .LASF170
C:\Users\stapi\AppData\Local\Temp\ccH5TxCZ.s:7971   .debug_str:0000000000000154 .LASF171
C:\Users\stapi\AppData\Local\Temp\ccH5TxCZ.s:8035   .debug_str:00000000000002ed .LASF195
C:\Users\stapi\AppData\Local\Temp\ccH5TxCZ.s:685    .text.ip_reass_tmr:0000000000000000 .LFB4
C:\Users\stapi\AppData\Local\Temp\ccH5TxCZ.s:752    .text.ip_reass_tmr:000000000000003e .LFE4
C:\Users\stapi\AppData\Local\Temp\ccH5TxCZ.s:7477   .debug_loc:0000000000000b02 .LLST27
C:\Users\stapi\AppData\Local\Temp\ccH5TxCZ.s:7489   .debug_loc:0000000000000b21 .LLST28
C:\Users\stapi\AppData\Local\Temp\ccH5TxCZ.s:732    .text.ip_reass_tmr:000000000000002a .LBB22
C:\Users\stapi\AppData\Local\Temp\ccH5TxCZ.s:750    .text.ip_reass_tmr:000000000000003e .LBE22
C:\Users\stapi\AppData\Local\Temp\ccH5TxCZ.s:7509   .debug_loc:0000000000000b56 .LLST29
C:\Users\stapi\AppData\Local\Temp\ccH5TxCZ.s:747    .text.ip_reass_tmr:000000000000003a .LVL79
C:\Users\stapi\AppData\Local\Temp\ccH5TxCZ.s:23     .text.ip_reass_dequeue_datagram:0000000000000000 .LFB8
C:\Users\stapi\AppData\Local\Temp\ccH5TxCZ.s:95     .text.ip_reass_dequeue_datagram:000000000000005c .LFE8
C:\Users\stapi\AppData\Local\Temp\ccH5TxCZ.s:7516   .debug_loc:0000000000000b69 .LLST0
C:\Users\stapi\AppData\Local\Temp\ccH5TxCZ.s:7549   .debug_loc:0000000000000bb9 .LLST1
C:\Users\stapi\AppData\Local\Temp\ccH5TxCZ.s:62     .text.ip_reass_dequeue_datagram:0000000000000030 .LBB5
C:\Users\stapi\AppData\Local\Temp\ccH5TxCZ.s:85     .text.ip_reass_dequeue_datagram:0000000000000056 .LBE5
C:\Users\stapi\AppData\Local\Temp\ccH5TxCZ.s:7578   .debug_loc:0000000000000bfe .LLST2
C:\Users\stapi\AppData\Local\Temp\ccH5TxCZ.s:7592   .debug_loc:0000000000000c1f .LLST3
C:\Users\stapi\AppData\Local\Temp\ccH5TxCZ.s:76     .text.ip_reass_dequeue_datagram:0000000000000054 .LVL8
C:\Users\stapi\AppData\Local\Temp\ccH5TxCZ.s:49     .text.ip_reass_dequeue_datagram:0000000000000026 .LVL3
C:\Users\stapi\AppData\Local\Temp\ccH5TxCZ.s:114    .text.ip_reass_free_complete_datagram:0000000000000000 .LFB5
C:\Users\stapi\AppData\Local\Temp\ccH5TxCZ.s:387    .text.ip_reass_free_complete_datagram:0000000000000194 .LFE5
C:\Users\stapi\AppData\Local\Temp\ccH5TxCZ.s:7600   .debug_loc:0000000000000c33 .LLST4
C:\Users\stapi\AppData\Local\Temp\ccH5TxCZ.s:7622   .debug_loc:0000000000000c6a .LLST5
C:\Users\stapi\AppData\Local\Temp\ccH5TxCZ.s:186    .text.ip_reass_free_complete_datagram:0000000000000064 .LBB10
C:\Users\stapi\AppData\Local\Temp\ccH5TxCZ.s:374    .text.ip_reass_free_complete_datagram:000000000000018a .LBE10
C:\Users\stapi\AppData\Local\Temp\ccH5TxCZ.s:7652   .debug_loc:0000000000000cb7 .LLST6
C:\Users\stapi\AppData\Local\Temp\ccH5TxCZ.s:7663   .debug_loc:0000000000000cd5 .LLST7
C:\Users\stapi\AppData\Local\Temp\ccH5TxCZ.s:7670   .debug_loc:0000000000000ce8 .LLST8
C:\Users\stapi\AppData\Local\Temp\ccH5TxCZ.s:7681   .debug_loc:0000000000000d06 .LLST9
C:\Users\stapi\AppData\Local\Temp\ccH5TxCZ.s:7696   .debug_loc:0000000000000d2f .LLST10
C:\Users\stapi\AppData\Local\Temp\ccH5TxCZ.s:7715   .debug_loc:0000000000000d63 .LLST11
C:\Users\stapi\AppData\Local\Temp\ccH5TxCZ.s:7726   .debug_loc:0000000000000d81 .LLST12
C:\Users\stapi\AppData\Local\Temp\ccH5TxCZ.s:320    .text.ip_reass_free_complete_datagram:0000000000000146 .LVL33
C:\Users\stapi\AppData\Local\Temp\ccH5TxCZ.s:337    .text.ip_reass_free_complete_datagram:0000000000000170 .LVL36
C:\Users\stapi\AppData\Local\Temp\ccH5TxCZ.s:352    .text.ip_reass_free_complete_datagram:000000000000017c .LVL39
C:\Users\stapi\AppData\Local\Temp\ccH5TxCZ.s:232    .text.ip_reass_free_complete_datagram:00000000000000a8 .LVL23
C:\Users\stapi\AppData\Local\Temp\ccH5TxCZ.s:237    .text.ip_reass_free_complete_datagram:00000000000000b4 .LVL24
C:\Users\stapi\AppData\Local\Temp\ccH5TxCZ.s:242    .text.ip_reass_free_complete_datagram:00000000000000be .LVL25
C:\Users\stapi\AppData\Local\Temp\ccH5TxCZ.s:253    .text.ip_reass_free_complete_datagram:00000000000000ca .LVL27
C:\Users\stapi\AppData\Local\Temp\ccH5TxCZ.s:271    .text.ip_reass_free_complete_datagram:00000000000000e0 .LVL29
C:\Users\stapi\AppData\Local\Temp\ccH5TxCZ.s:288    .text.ip_reass_free_complete_datagram:0000000000000114 .LVL30
C:\Users\stapi\AppData\Local\Temp\ccH5TxCZ.s:147    .text.ip_reass_free_complete_datagram:0000000000000030 .LVL14
C:\Users\stapi\AppData\Local\Temp\ccH5TxCZ.s:178    .text.ip_reass_free_complete_datagram:0000000000000062 .LVL18
C:\Users\stapi\AppData\Local\Temp\ccH5TxCZ.s:557    .text.ip_frag_free_pbuf_custom_ref:0000000000000000 .LFB12
C:\Users\stapi\AppData\Local\Temp\ccH5TxCZ.s:604    .text.ip_frag_free_pbuf_custom_ref:0000000000000044 .LFE12
C:\Users\stapi\AppData\Local\Temp\ccH5TxCZ.s:7733   .debug_loc:0000000000000d94 .LLST22
C:\Users\stapi\AppData\Local\Temp\ccH5TxCZ.s:568    .text.ip_frag_free_pbuf_custom_ref:000000000000000a .LBB16
C:\Users\stapi\AppData\Local\Temp\ccH5TxCZ.s:591    .text.ip_frag_free_pbuf_custom_ref:0000000000000032 .LBE16
C:\Users\stapi\AppData\Local\Temp\ccH5TxCZ.s:7762   .debug_loc:0000000000000dd9 .LLST23
C:\Users\stapi\AppData\Local\Temp\ccH5TxCZ.s:581    .text.ip_frag_free_pbuf_custom_ref:000000000000002e .LVL60
C:\Users\stapi\AppData\Local\Temp\ccH5TxCZ.s:598    .text.ip_frag_free_pbuf_custom_ref:000000000000003c .LVL63
C:\Users\stapi\AppData\Local\Temp\ccH5TxCZ.s:614    .text.ipfrag_free_pbuf_custom:0000000000000000 .LFB13
C:\Users\stapi\AppData\Local\Temp\ccH5TxCZ.s:678    .text.ipfrag_free_pbuf_custom:0000000000000050 .LFE13
C:\Users\stapi\AppData\Local\Temp\ccH5TxCZ.s:7770   .debug_loc:0000000000000ded .LLST24
C:\Users\stapi\AppData\Local\Temp\ccH5TxCZ.s:7792   .debug_loc:0000000000000e24 .LLST25
C:\Users\stapi\AppData\Local\Temp\ccH5TxCZ.s:628    .text.ipfrag_free_pbuf_custom:000000000000000a .LBB20
C:\Users\stapi\AppData\Local\Temp\ccH5TxCZ.s:651    .text.ipfrag_free_pbuf_custom:0000000000000032 .LBE20
C:\Users\stapi\AppData\Local\Temp\ccH5TxCZ.s:7814   .debug_loc:0000000000000e5b .LLST26
C:\Users\stapi\AppData\Local\Temp\ccH5TxCZ.s:641    .text.ipfrag_free_pbuf_custom:000000000000002e .LVL68
C:\Users\stapi\AppData\Local\Temp\ccH5TxCZ.s:666    .text.ipfrag_free_pbuf_custom:000000000000003e .LVL71
C:\Users\stapi\AppData\Local\Temp\ccH5TxCZ.s:671    .text.ipfrag_free_pbuf_custom:0000000000000048 .LVL72
C:\Users\stapi\AppData\Local\Temp\ccH5TxCZ.s:8091   .debug_str:00000000000004a8 .LASF172
C:\Users\stapi\AppData\Local\Temp\ccH5TxCZ.s:8099   .debug_str:00000000000004d6 .LASF173
C:\Users\stapi\AppData\Local\Temp\ccH5TxCZ.s:8161   .debug_str:000000000000064b .LASF174
C:\Users\stapi\AppData\Local\Temp\ccH5TxCZ.s:8203   .debug_str:000000000000078b .LASF175
C:\Users\stapi\AppData\Local\Temp\ccH5TxCZ.s:8117   .debug_str:0000000000000536 .LASF176
C:\Users\stapi\AppData\Local\Temp\ccH5TxCZ.s:8089   .debug_str:000000000000049e .LASF177
C:\Users\stapi\AppData\Local\Temp\ccH5TxCZ.s:7963   .debug_str:000000000000012d .LASF178
C:\Users\stapi\AppData\Local\Temp\ccH5TxCZ.s:8083   .debug_str:0000000000000473 .LASF179
C:\Users\stapi\AppData\Local\Temp\ccH5TxCZ.s:8261   .debug_str:000000000000097a .LASF183
C:\Users\stapi\AppData\Local\Temp\ccH5TxCZ.s:8263   .debug_str:0000000000000981 .LASF185
C:\Users\stapi\AppData\Local\Temp\ccH5TxCZ.s:8131   .debug_str:000000000000058c .LASF180
C:\Users\stapi\AppData\Local\Temp\ccH5TxCZ.s:8085   .debug_str:000000000000047e .LASF181
C:\Users\stapi\AppData\Local\Temp\ccH5TxCZ.s:8055   .debug_str:0000000000000354 .LASF182
C:\Users\stapi\AppData\Local\Temp\ccH5TxCZ.s:8113   .debug_str:0000000000000520 .LASF184
C:\Users\stapi\AppData\Local\Temp\ccH5TxCZ.s:8021   .debug_str:0000000000000281 .LASF186
C:\Users\stapi\AppData\Local\Temp\ccH5TxCZ.s:8251   .debug_str:00000000000008a7 .LASF187
C:\Users\stapi\AppData\Local\Temp\ccH5TxCZ.s:7997   .debug_str:0000000000000204 .LASF188
C:\Users\stapi\AppData\Local\Temp\ccH5TxCZ.s:1789   .text.ip4_frag:0000000000000000 .LVL191
C:\Users\stapi\AppData\Local\Temp\ccH5TxCZ.s:1852   .text.ip4_frag:0000000000000036 .LVL195
C:\Users\stapi\AppData\Local\Temp\ccH5TxCZ.s:1934   .text.ip4_frag:00000000000000b2 .LVL202
C:\Users\stapi\AppData\Local\Temp\ccH5TxCZ.s:1956   .text.ip4_frag:00000000000000bc .LVL204
C:\Users\stapi\AppData\Local\Temp\ccH5TxCZ.s:2258   .text.ip4_frag:000000000000026a .LVL249
C:\Users\stapi\AppData\Local\Temp\ccH5TxCZ.s:2262   .text.ip4_frag:000000000000026c .LVL250
C:\Users\stapi\AppData\Local\Temp\ccH5TxCZ.s:1850   .text.ip4_frag:0000000000000032 .LVL194
C:\Users\stapi\AppData\Local\Temp\ccH5TxCZ.s:1865   .text.ip4_frag:0000000000000050 .LVL198
C:\Users\stapi\AppData\Local\Temp\ccH5TxCZ.s:1855   .text.ip4_frag:000000000000003e .LVL196
C:\Users\stapi\AppData\Local\Temp\ccH5TxCZ.s:1940   .text.ip4_frag:00000000000000b4 .LVL203
C:\Users\stapi\AppData\Local\Temp\ccH5TxCZ.s:1974   .text.ip4_frag:00000000000000d6 .LVL207
C:\Users\stapi\AppData\Local\Temp\ccH5TxCZ.s:2121   .text.ip4_frag:000000000000019e .LVL226
C:\Users\stapi\AppData\Local\Temp\ccH5TxCZ.s:2126   .text.ip4_frag:00000000000001a8 .LVL228
C:\Users\stapi\AppData\Local\Temp\ccH5TxCZ.s:2132   .text.ip4_frag:00000000000001ac .LVL230
C:\Users\stapi\AppData\Local\Temp\ccH5TxCZ.s:2160   .text.ip4_frag:00000000000001d6 .LVL234
C:\Users\stapi\AppData\Local\Temp\ccH5TxCZ.s:1808   .text.ip4_frag:0000000000000008 .LVL192
C:\Users\stapi\AppData\Local\Temp\ccH5TxCZ.s:1927   .text.ip4_frag:00000000000000ac .LVL201
C:\Users\stapi\AppData\Local\Temp\ccH5TxCZ.s:2027   .text.ip4_frag:0000000000000128 .LVL212
C:\Users\stapi\AppData\Local\Temp\ccH5TxCZ.s:2055   .text.ip4_frag:000000000000015a .LVL215
C:\Users\stapi\AppData\Local\Temp\ccH5TxCZ.s:2011   .text.ip4_frag:000000000000011a .LVL210
C:\Users\stapi\AppData\Local\Temp\ccH5TxCZ.s:2016   .text.ip4_frag:000000000000011c .LVL211
C:\Users\stapi\AppData\Local\Temp\ccH5TxCZ.s:2100   .text.ip4_frag:0000000000000180 .LVL223
C:\Users\stapi\AppData\Local\Temp\ccH5TxCZ.s:1822   .text.ip4_frag:000000000000000c .LVL193
C:\Users\stapi\AppData\Local\Temp\ccH5TxCZ.s:2248   .text.ip4_frag:000000000000025e .LVL245
C:\Users\stapi\AppData\Local\Temp\ccH5TxCZ.s:2250   .text.ip4_frag:0000000000000262 .LVL246
C:\Users\stapi\AppData\Local\Temp\ccH5TxCZ.s:1968   .text.ip4_frag:00000000000000cc .LVL205
C:\Users\stapi\AppData\Local\Temp\ccH5TxCZ.s:1922   .text.ip4_frag:00000000000000a8 .LVL200
C:\Users\stapi\AppData\Local\Temp\ccH5TxCZ.s:2254   .text.ip4_frag:0000000000000264 .LVL247
C:\Users\stapi\AppData\Local\Temp\ccH5TxCZ.s:2256   .text.ip4_frag:0000000000000268 .LVL248
C:\Users\stapi\AppData\Local\Temp\ccH5TxCZ.s:2175   .text.ip4_frag:00000000000001e6 .LVL236
C:\Users\stapi\AppData\Local\Temp\ccH5TxCZ.s:2059   .text.ip4_frag:000000000000015e .LVL216
C:\Users\stapi\AppData\Local\Temp\ccH5TxCZ.s:2069   .text.ip4_frag:0000000000000164 .LVL218
C:\Users\stapi\AppData\Local\Temp\ccH5TxCZ.s:2168   .text.ip4_frag:00000000000001dc .LVL235
C:\Users\stapi\AppData\Local\Temp\ccH5TxCZ.s:2189   .text.ip4_frag:00000000000001f2 .LVL237
C:\Users\stapi\AppData\Local\Temp\ccH5TxCZ.s:2191   .text.ip4_frag:00000000000001f6 .LVL238
C:\Users\stapi\AppData\Local\Temp\ccH5TxCZ.s:2080   .text.ip4_frag:0000000000000170 .LVL220
C:\Users\stapi\AppData\Local\Temp\ccH5TxCZ.s:2086   .text.ip4_frag:0000000000000172 .LVL221
C:\Users\stapi\AppData\Local\Temp\ccH5TxCZ.s:2112   .text.ip4_frag:0000000000000190 .LVL224
C:\Users\stapi\AppData\Local\Temp\ccH5TxCZ.s:2129   .text.ip4_frag:00000000000001aa .LVL229
C:\Users\stapi\AppData\Local\Temp\ccH5TxCZ.s:2029   .text.ip4_frag:000000000000012c .LVL213
C:\Users\stapi\AppData\Local\Temp\ccH5TxCZ.s:2240   .text.ip4_frag:0000000000000250 .LVL243
C:\Users\stapi\AppData\Local\Temp\ccH5TxCZ.s:781    .text.ip4_reass:0000000000000000 .LVL80
C:\Users\stapi\AppData\Local\Temp\ccH5TxCZ.s:824    .text.ip4_reass:0000000000000022 .LVL82
C:\Users\stapi\AppData\Local\Temp\ccH5TxCZ.s:979    .text.ip4_reass:000000000000010a .LVL105
C:\Users\stapi\AppData\Local\Temp\ccH5TxCZ.s:981    .text.ip4_reass:000000000000010c .LVL106
C:\Users\stapi\AppData\Local\Temp\ccH5TxCZ.s:1074   .text.ip4_reass:00000000000001c0 .LVL112
C:\Users\stapi\AppData\Local\Temp\ccH5TxCZ.s:1154   .text.ip4_reass:000000000000023e .LVL120
C:\Users\stapi\AppData\Local\Temp\ccH5TxCZ.s:1240   .text.ip4_reass:00000000000002c8 .LVL130
C:\Users\stapi\AppData\Local\Temp\ccH5TxCZ.s:1315   .text.ip4_reass:000000000000034c .LVL140
C:\Users\stapi\AppData\Local\Temp\ccH5TxCZ.s:1367   .text.ip4_reass:0000000000000390 .LVL148
C:\Users\stapi\AppData\Local\Temp\ccH5TxCZ.s:1386   .text.ip4_reass:000000000000039a .LVL149
C:\Users\stapi\AppData\Local\Temp\ccH5TxCZ.s:1608   .text.ip4_reass:00000000000004f0 .LVL173
C:\Users\stapi\AppData\Local\Temp\ccH5TxCZ.s:1717   .text.ip4_reass:0000000000000598 .LVL183
C:\Users\stapi\AppData\Local\Temp\ccH5TxCZ.s:1339   .text.ip4_reass:0000000000000370 .LVL144
C:\Users\stapi\AppData\Local\Temp\ccH5TxCZ.s:1348   .text.ip4_reass:0000000000000384 .LVL145
C:\Users\stapi\AppData\Local\Temp\ccH5TxCZ.s:1350   .text.ip4_reass:0000000000000386 .LVL146
C:\Users\stapi\AppData\Local\Temp\ccH5TxCZ.s:1688   .text.ip4_reass:0000000000000552 .LVL179
C:\Users\stapi\AppData\Local\Temp\ccH5TxCZ.s:1725   .text.ip4_reass:00000000000005a0 .LVL184
C:\Users\stapi\AppData\Local\Temp\ccH5TxCZ.s:808    .text.ip4_reass:000000000000000a .LVL81
C:\Users\stapi\AppData\Local\Temp\ccH5TxCZ.s:968    .text.ip4_reass:00000000000000fe .LVL103
C:\Users\stapi\AppData\Local\Temp\ccH5TxCZ.s:1024   .text.ip4_reass:0000000000000168 .LVL108
C:\Users\stapi\AppData\Local\Temp\ccH5TxCZ.s:1426   .text.ip4_reass:00000000000003dc .LVL152
C:\Users\stapi\AppData\Local\Temp\ccH5TxCZ.s:1509   .text.ip4_reass:0000000000000454 .LVL163
C:\Users\stapi\AppData\Local\Temp\ccH5TxCZ.s:881    .text.ip4_reass:0000000000000082 .LVL90
C:\Users\stapi\AppData\Local\Temp\ccH5TxCZ.s:899    .text.ip4_reass:0000000000000094 .LVL93
C:\Users\stapi\AppData\Local\Temp\ccH5TxCZ.s:1452   .text.ip4_reass:0000000000000412 .LVL155
C:\Users\stapi\AppData\Local\Temp\ccH5TxCZ.s:1461   .text.ip4_reass:000000000000041c .LVL157
C:\Users\stapi\AppData\Local\Temp\ccH5TxCZ.s:1326   .text.ip4_reass:0000000000000354 .LVL141
C:\Users\stapi\AppData\Local\Temp\ccH5TxCZ.s:833    .text.ip4_reass:0000000000000034 .LVL84
C:\Users\stapi\AppData\Local\Temp\ccH5TxCZ.s:1458   .text.ip4_reass:0000000000000418 .LVL156
C:\Users\stapi\AppData\Local\Temp\ccH5TxCZ.s:855    .text.ip4_reass:0000000000000058 .LVL86
C:\Users\stapi\AppData\Local\Temp\ccH5TxCZ.s:870    .text.ip4_reass:0000000000000076 .LVL88
C:\Users\stapi\AppData\Local\Temp\ccH5TxCZ.s:1639   .text.ip4_reass:000000000000050c .LVL177
C:\Users\stapi\AppData\Local\Temp\ccH5TxCZ.s:875    .text.ip4_reass:000000000000007a .LVL89
C:\Users\stapi\AppData\Local\Temp\ccH5TxCZ.s:952    .text.ip4_reass:00000000000000e6 .LVL100
C:\Users\stapi\AppData\Local\Temp\ccH5TxCZ.s:958    .text.ip4_reass:00000000000000ea .LVL101
C:\Users\stapi\AppData\Local\Temp\ccH5TxCZ.s:1356   .text.ip4_reass:000000000000038a .LVL147
C:\Users\stapi\AppData\Local\Temp\ccH5TxCZ.s:1755   .text.ip4_reass:00000000000005d4 .LVL189
C:\Users\stapi\AppData\Local\Temp\ccH5TxCZ.s:1464   .text.ip4_reass:0000000000000420 .LVL158
C:\Users\stapi\AppData\Local\Temp\ccH5TxCZ.s:1473   .text.ip4_reass:000000000000042c .LVL159
C:\Users\stapi\AppData\Local\Temp\ccH5TxCZ.s:1481   .text.ip4_reass:0000000000000438 .LVL160
C:\Users\stapi\AppData\Local\Temp\ccH5TxCZ.s:1633   .text.ip4_reass:0000000000000506 .LVL176
C:\Users\stapi\AppData\Local\Temp\ccH5TxCZ.s:1730   .text.ip4_reass:00000000000005a6 .LVL185
C:\Users\stapi\AppData\Local\Temp\ccH5TxCZ.s:1680   .text.ip4_reass:0000000000000546 .LVL178
C:\Users\stapi\AppData\Local\Temp\ccH5TxCZ.s:889    .text.ip4_reass:0000000000000088 .LVL91
C:\Users\stapi\AppData\Local\Temp\ccH5TxCZ.s:941    .text.ip4_reass:00000000000000d4 .LVL98
C:\Users\stapi\AppData\Local\Temp\ccH5TxCZ.s:1619   .text.ip4_reass:00000000000004f8 .LVL175
C:\Users\stapi\AppData\Local\Temp\ccH5TxCZ.s:1245   .text.ip4_reass:00000000000002ca .LVL131
C:\Users\stapi\AppData\Local\Temp\ccH5TxCZ.s:1280   .text.ip4_reass:0000000000000306 .LVL136
C:\Users\stapi\AppData\Local\Temp\ccH5TxCZ.s:1293   .text.ip4_reass:000000000000031a .LVL138
C:\Users\stapi\AppData\Local\Temp\ccH5TxCZ.s:1536   .text.ip4_reass:0000000000000480 .LVL167
C:\Users\stapi\AppData\Local\Temp\ccH5TxCZ.s:1614   .text.ip4_reass:00000000000004f6 .LVL174
C:\Users\stapi\AppData\Local\Temp\ccH5TxCZ.s:1031   .text.ip4_reass:000000000000016a .LVL109
C:\Users\stapi\AppData\Local\Temp\ccH5TxCZ.s:1043   .text.ip4_reass:0000000000000180 .LVL110
C:\Users\stapi\AppData\Local\Temp\ccH5TxCZ.s:1048   .text.ip4_reass:000000000000018e .LVL111
C:\Users\stapi\AppData\Local\Temp\ccH5TxCZ.s:1166   .text.ip4_reass:0000000000000248 .LVL121
C:\Users\stapi\AppData\Local\Temp\ccH5TxCZ.s:1213   .text.ip4_reass:0000000000000292 .LVL126
C:\Users\stapi\AppData\Local\Temp\ccH5TxCZ.s:1088   .text.ip4_reass:00000000000001d4 .LVL114
C:\Users\stapi\AppData\Local\Temp\ccH5TxCZ.s:1111   .text.ip4_reass:00000000000001f6 .LVL116
C:\Users\stapi\AppData\Local\Temp\ccH5TxCZ.s:1187   .text.ip4_reass:0000000000000268 .LVL123
C:\Users\stapi\AppData\Local\Temp\ccH5TxCZ.s:1208   .text.ip4_reass:000000000000028e .LVL125
C:\Users\stapi\AppData\Local\Temp\ccH5TxCZ.s:1253   .text.ip4_reass:00000000000002d6 .LVL133
C:\Users\stapi\AppData\Local\Temp\ccH5TxCZ.s:1264   .text.ip4_reass:00000000000002e6 .LVL134
C:\Users\stapi\AppData\Local\Temp\ccH5TxCZ.s:1578   .text.ip4_reass:00000000000004be .LVL169
C:\Users\stapi\AppData\Local\Temp\ccH5TxCZ.s:1124   .text.ip4_reass:0000000000000212 .LVL117
C:\Users\stapi\AppData\Local\Temp\ccH5TxCZ.s:1174   .text.ip4_reass:0000000000000250 .LVL122
C:\Users\stapi\AppData\Local\Temp\ccH5TxCZ.s:1218   .text.ip4_reass:0000000000000296 .LVL127
C:\Users\stapi\AppData\Local\Temp\ccH5TxCZ.s:1250   .text.ip4_reass:00000000000002d2 .LVL132
C:\Users\stapi\AppData\Local\Temp\ccH5TxCZ.s:1277   .text.ip4_reass:0000000000000302 .LVL135
C:\Users\stapi\AppData\Local\Temp\ccH5TxCZ.s:1287   .text.ip4_reass:000000000000030a .LVL137
C:\Users\stapi\AppData\Local\Temp\ccH5TxCZ.s:1571   .text.ip4_reass:00000000000004b8 .LVL168
C:\Users\stapi\AppData\Local\Temp\ccH5TxCZ.s:1598   .text.ip4_reass:00000000000004de .LVL171
C:\Users\stapi\AppData\Local\Temp\ccH5TxCZ.s:1102   .text.ip4_reass:00000000000001e6 .LVL115
C:\Users\stapi\AppData\Local\Temp\ccH5TxCZ.s:1226   .text.ip4_reass:00000000000002a6 .LVL128
C:\Users\stapi\AppData\Local\Temp\ccH5TxCZ.s:1593   .text.ip4_reass:00000000000004ce .LVL170
C:\Users\stapi\AppData\Local\Temp\ccH5TxCZ.s:1520   .text.ip4_reass:0000000000000462 .LVL164
C:\Users\stapi\AppData\Local\Temp\ccH5TxCZ.s:1522   .text.ip4_reass:0000000000000466 .LVL165
C:\Users\stapi\AppData\Local\Temp\ccH5TxCZ.s:1496   .text.ip4_reass:000000000000043c .LVL161
C:\Users\stapi\AppData\Local\Temp\ccH5TxCZ.s:1084   .text.ip4_reass:00000000000001d0 .LVL113
C:\Users\stapi\AppData\Local\Temp\ccH5TxCZ.s:1129   .text.ip4_reass:0000000000000214 .LVL118
C:\Users\stapi\AppData\Local\Temp\ccH5TxCZ.s:396    .text.ip_reass_remove_oldest_datagram:0000000000000000 .LVL44
C:\Users\stapi\AppData\Local\Temp\ccH5TxCZ.s:418    .text.ip_reass_remove_oldest_datagram:0000000000000014 .LVL46
C:\Users\stapi\AppData\Local\Temp\ccH5TxCZ.s:429    .text.ip_reass_remove_oldest_datagram:0000000000000018 .LVL47
C:\Users\stapi\AppData\Local\Temp\ccH5TxCZ.s:473    .text.ip_reass_remove_oldest_datagram:0000000000000040 .LVL51
C:\Users\stapi\AppData\Local\Temp\ccH5TxCZ.s:544    .text.ip_reass_remove_oldest_datagram:00000000000000b6 .LVL56
C:\Users\stapi\AppData\Local\Temp\ccH5TxCZ.s:439    .text.ip_reass_remove_oldest_datagram:0000000000000020 .LVL48
C:\Users\stapi\AppData\Local\Temp\ccH5TxCZ.s:540    .text.ip_reass_remove_oldest_datagram:00000000000000b4 .LVL55
C:\Users\stapi\AppData\Local\Temp\ccH5TxCZ.s:530    .text.ip_reass_remove_oldest_datagram:00000000000000ac .LVL53
C:\Users\stapi\AppData\Local\Temp\ccH5TxCZ.s:532    .text.ip_reass_remove_oldest_datagram:00000000000000ae .LVL54
C:\Users\stapi\AppData\Local\Temp\ccH5TxCZ.s:408    .text.ip_reass_remove_oldest_datagram:0000000000000008 .LVL45
C:\Users\stapi\AppData\Local\Temp\ccH5TxCZ.s:453    .text.ip_reass_remove_oldest_datagram:000000000000002e .LVL50
C:\Users\stapi\AppData\Local\Temp\ccH5TxCZ.s:699    .text.ip_reass_tmr:0000000000000010 .LVL74
C:\Users\stapi\AppData\Local\Temp\ccH5TxCZ.s:729    .text.ip_reass_tmr:000000000000002a .LVL76
C:\Users\stapi\AppData\Local\Temp\ccH5TxCZ.s:738    .text.ip_reass_tmr:0000000000000030 .LVL78
C:\Users\stapi\AppData\Local\Temp\ccH5TxCZ.s:694    .text.ip_reass_tmr:0000000000000008 .LVL73
C:\Users\stapi\AppData\Local\Temp\ccH5TxCZ.s:703    .text.ip_reass_tmr:0000000000000012 .LVL75
C:\Users\stapi\AppData\Local\Temp\ccH5TxCZ.s:736    .text.ip_reass_tmr:000000000000002e .LVL77
C:\Users\stapi\AppData\Local\Temp\ccH5TxCZ.s:27     .text.ip_reass_dequeue_datagram:0000000000000000 .LVL0
C:\Users\stapi\AppData\Local\Temp\ccH5TxCZ.s:47     .text.ip_reass_dequeue_datagram:000000000000001e .LVL2
C:\Users\stapi\AppData\Local\Temp\ccH5TxCZ.s:55     .text.ip_reass_dequeue_datagram:000000000000002e .LVL4
C:\Users\stapi\AppData\Local\Temp\ccH5TxCZ.s:70     .text.ip_reass_dequeue_datagram:000000000000003c .LVL7
C:\Users\stapi\AppData\Local\Temp\ccH5TxCZ.s:82     .text.ip_reass_dequeue_datagram:0000000000000056 .LVL9
C:\Users\stapi\AppData\Local\Temp\ccH5TxCZ.s:45     .text.ip_reass_dequeue_datagram:000000000000001c .LVL1
C:\Users\stapi\AppData\Local\Temp\ccH5TxCZ.s:68     .text.ip_reass_dequeue_datagram:0000000000000038 .LVL6
C:\Users\stapi\AppData\Local\Temp\ccH5TxCZ.s:61     .text.ip_reass_dequeue_datagram:0000000000000030 .LVL5
C:\Users\stapi\AppData\Local\Temp\ccH5TxCZ.s:117    .text.ip_reass_free_complete_datagram:0000000000000000 .LVL10
C:\Users\stapi\AppData\Local\Temp\ccH5TxCZ.s:141    .text.ip_reass_free_complete_datagram:0000000000000018 .LVL13
C:\Users\stapi\AppData\Local\Temp\ccH5TxCZ.s:153    .text.ip_reass_free_complete_datagram:0000000000000032 .LVL15
C:\Users\stapi\AppData\Local\Temp\ccH5TxCZ.s:162    .text.ip_reass_free_complete_datagram:0000000000000038 .LVL16
C:\Users\stapi\AppData\Local\Temp\ccH5TxCZ.s:139    .text.ip_reass_free_complete_datagram:0000000000000014 .LVL12
C:\Users\stapi\AppData\Local\Temp\ccH5TxCZ.s:171    .text.ip_reass_free_complete_datagram:0000000000000046 .LVL17
C:\Users\stapi\AppData\Local\Temp\ccH5TxCZ.s:184    .text.ip_reass_free_complete_datagram:0000000000000064 .LVL19
C:\Users\stapi\AppData\Local\Temp\ccH5TxCZ.s:221    .text.ip_reass_free_complete_datagram:0000000000000092 .LVL22
C:\Users\stapi\AppData\Local\Temp\ccH5TxCZ.s:372    .text.ip_reass_free_complete_datagram:000000000000018a .LVL43
C:\Users\stapi\AppData\Local\Temp\ccH5TxCZ.s:244    .text.ip_reass_free_complete_datagram:00000000000000c0 .LVL26
C:\Users\stapi\AppData\Local\Temp\ccH5TxCZ.s:324    .text.ip_reass_free_complete_datagram:0000000000000148 .LVL34
C:\Users\stapi\AppData\Local\Temp\ccH5TxCZ.s:358    .text.ip_reass_free_complete_datagram:0000000000000182 .LVL41
C:\Users\stapi\AppData\Local\Temp\ccH5TxCZ.s:331    .text.ip_reass_free_complete_datagram:0000000000000158 .LVL35
C:\Users\stapi\AppData\Local\Temp\ccH5TxCZ.s:343    .text.ip_reass_free_complete_datagram:0000000000000172 .LVL37
C:\Users\stapi\AppData\Local\Temp\ccH5TxCZ.s:350    .text.ip_reass_free_complete_datagram:0000000000000174 .LVL38
C:\Users\stapi\AppData\Local\Temp\ccH5TxCZ.s:208    .text.ip_reass_free_complete_datagram:000000000000007c .LVL21
C:\Users\stapi\AppData\Local\Temp\ccH5TxCZ.s:258    .text.ip_reass_free_complete_datagram:00000000000000ce .LVL28
C:\Users\stapi\AppData\Local\Temp\ccH5TxCZ.s:316    .text.ip_reass_free_complete_datagram:000000000000013e .LVL32
C:\Users\stapi\AppData\Local\Temp\ccH5TxCZ.s:361    .text.ip_reass_free_complete_datagram:0000000000000184 .LVL42
C:\Users\stapi\AppData\Local\Temp\ccH5TxCZ.s:198    .text.ip_reass_free_complete_datagram:000000000000006e .LVL20
C:\Users\stapi\AppData\Local\Temp\ccH5TxCZ.s:300    .text.ip_reass_free_complete_datagram:000000000000011a .LVL31
C:\Users\stapi\AppData\Local\Temp\ccH5TxCZ.s:355    .text.ip_reass_free_complete_datagram:000000000000017e .LVL40
C:\Users\stapi\AppData\Local\Temp\ccH5TxCZ.s:560    .text.ip_frag_free_pbuf_custom_ref:0000000000000000 .LVL57
C:\Users\stapi\AppData\Local\Temp\ccH5TxCZ.s:575    .text.ip_frag_free_pbuf_custom_ref:0000000000000016 .LVL59
C:\Users\stapi\AppData\Local\Temp\ccH5TxCZ.s:587    .text.ip_frag_free_pbuf_custom_ref:0000000000000030 .LVL61
C:\Users\stapi\AppData\Local\Temp\ccH5TxCZ.s:596    .text.ip_frag_free_pbuf_custom_ref:0000000000000034 .LVL62
C:\Users\stapi\AppData\Local\Temp\ccH5TxCZ.s:567    .text.ip_frag_free_pbuf_custom_ref:000000000000000a .LVL58
C:\Users\stapi\AppData\Local\Temp\ccH5TxCZ.s:617    .text.ipfrag_free_pbuf_custom:0000000000000000 .LVL64
C:\Users\stapi\AppData\Local\Temp\ccH5TxCZ.s:635    .text.ipfrag_free_pbuf_custom:0000000000000016 .LVL67
C:\Users\stapi\AppData\Local\Temp\ccH5TxCZ.s:647    .text.ipfrag_free_pbuf_custom:0000000000000030 .LVL69
C:\Users\stapi\AppData\Local\Temp\ccH5TxCZ.s:661    .text.ipfrag_free_pbuf_custom:0000000000000034 .LVL70
C:\Users\stapi\AppData\Local\Temp\ccH5TxCZ.s:623    .text.ipfrag_free_pbuf_custom:0000000000000008 .LVL65
C:\Users\stapi\AppData\Local\Temp\ccH5TxCZ.s:627    .text.ipfrag_free_pbuf_custom:000000000000000a .LVL66
C:\Users\stapi\AppData\Local\Temp\ccH5TxCZ.s:2300   .debug_info:0000000000000000 .Ldebug_info0
C:\Users\stapi\AppData\Local\Temp\ccH5TxCZ.s:260    .text.ip_reass_free_complete_datagram:00000000000000ce .LBB12
C:\Users\stapi\AppData\Local\Temp\ccH5TxCZ.s:264    .text.ip_reass_free_complete_datagram:00000000000000d0 .LBE12
C:\Users\stapi\AppData\Local\Temp\ccH5TxCZ.s:295    .text.ip_reass_free_complete_datagram:0000000000000116 .LBB13
C:\Users\stapi\AppData\Local\Temp\ccH5TxCZ.s:363    .text.ip_reass_free_complete_datagram:0000000000000184 .LBE13
C:\Users\stapi\AppData\Local\Temp\ccH5TxCZ.s:1318   .text.ip4_reass:000000000000034c .LBE32
C:\Users\stapi\AppData\Local\Temp\ccH5TxCZ.s:1485   .text.ip4_reass:0000000000000438 .LBB37
C:\Users\stapi\AppData\Local\Temp\ccH5TxCZ.s:1621   .text.ip4_reass:00000000000004f8 .LBE37
C:\Users\stapi\AppData\Local\Temp\ccH5TxCZ.s:1319   .text.ip4_reass:000000000000034c .LBB35
C:\Users\stapi\AppData\Local\Temp\ccH5TxCZ.s:1369   .text.ip4_reass:0000000000000390 .LBE35
C:\Users\stapi\AppData\Local\Temp\ccH5TxCZ.s:1654   .text.ip4_reass:000000000000051e .LBB39
C:\Users\stapi\AppData\Local\Temp\ccH5TxCZ.s:1767   .text.ip4_reass:00000000000005ee .LBE39
C:\Users\stapi\AppData\Local\Temp\ccH5TxCZ.s:1909   .text.ip4_frag:0000000000000098 .LBB44
C:\Users\stapi\AppData\Local\Temp\ccH5TxCZ.s:1913   .text.ip4_frag:00000000000000a0 .LBE44
C:\Users\stapi\AppData\Local\Temp\ccH5TxCZ.s:1916   .text.ip4_frag:00000000000000a2 .LBB47
C:\Users\stapi\AppData\Local\Temp\ccH5TxCZ.s:1919   .text.ip4_frag:00000000000000a4 .LBE47
C:\Users\stapi\AppData\Local\Temp\ccH5TxCZ.s:2020   .text.ip4_frag:0000000000000120 .LBB48
C:\Users\stapi\AppData\Local\Temp\ccH5TxCZ.s:2088   .text.ip4_frag:0000000000000172 .LBE48
C:\Users\stapi\AppData\Local\Temp\ccH5TxCZ.s:2102   .text.ip4_frag:0000000000000180 .LBB50
C:\Users\stapi\AppData\Local\Temp\ccH5TxCZ.s:2162   .text.ip4_frag:00000000000001d6 .LBE50
C:\Users\stapi\AppData\Local\Temp\ccH5TxCZ.s:2089   .text.ip4_frag:0000000000000172 .LBB49
C:\Users\stapi\AppData\Local\Temp\ccH5TxCZ.s:2096   .text.ip4_frag:000000000000017c .LBE49
C:\Users\stapi\AppData\Local\Temp\ccH5TxCZ.s:2217   .text.ip4_frag:0000000000000236 .LBB51
C:\Users\stapi\AppData\Local\Temp\ccH5TxCZ.s:2221   .text.ip4_frag:000000000000023c .LBE51
C:\Users\stapi\AppData\Local\Temp\ccH5TxCZ.s:2226   .text.ip4_frag:0000000000000246 .LBB52
C:\Users\stapi\AppData\Local\Temp\ccH5TxCZ.s:2236   .text.ip4_frag:000000000000024e .LBE52

UNDEFINED SYMBOLS
__riscv_save_0
memp_free
__riscv_restore_0
printf
__riscv_save_6
memcpy
icmp_time_exceeded
pbuf_clen
pbuf_free
__riscv_restore_6
__riscv_save_1
__riscv_restore_1
__riscv_save_2
__riscv_restore_2
__riscv_save_10
lwip_htons
memp_malloc
memset
pbuf_remove_header
pbuf_cat
__riscv_restore_10
inet_chksum
__riscv_save_12
__riscv_restore_12
pbuf_alloc
pbuf_alloced_custom
pbuf_ref
