   1              		.file	"ip4_addr.c"
   2              		.option nopic
   3              		.attribute arch, "rv32i2p0_m2p0_a2p0_f2p0_c2p0_b_p0p94"
   4              		.attribute unaligned_access, 0
   5              		.attribute stack_align, 16
   6              		.text
   7              	.Ltext0:
   8              		.cfi_sections	.debug_frame
   9              		.section	.text.ip4_addr_isbroadcast_u32,"ax",@progbits
  10              		.align	1
  11              		.globl	ip4_addr_isbroadcast_u32
  13              	ip4_addr_isbroadcast_u32:
  14              	.LFB3:
  15              		.file 1 "C:/Users/stapi/OneDrive/Desktop/GD32VW553/V1_MQTT_OK/GD32VW55X_Wifi_BLE_SDK/GD32VW55x_REL
   1:C:/Users/stapi/OneDrive/Desktop/GD32VW553/V1_MQTT_OK/GD32VW55X_Wifi_BLE_SDK/GD32VW55x_RELEASE_V1.0.2/MSDK/lwip/lwip-2.1.2/src/core/ipv4\ip4_addr.c **** /**
   2:C:/Users/stapi/OneDrive/Desktop/GD32VW553/V1_MQTT_OK/GD32VW55X_Wifi_BLE_SDK/GD32VW55x_RELEASE_V1.0.2/MSDK/lwip/lwip-2.1.2/src/core/ipv4\ip4_addr.c ****  * @file
   3:C:/Users/stapi/OneDrive/Desktop/GD32VW553/V1_MQTT_OK/GD32VW55X_Wifi_BLE_SDK/GD32VW55x_RELEASE_V1.0.2/MSDK/lwip/lwip-2.1.2/src/core/ipv4\ip4_addr.c ****  * This is the IPv4 address tools implementation.
   4:C:/Users/stapi/OneDrive/Desktop/GD32VW553/V1_MQTT_OK/GD32VW55X_Wifi_BLE_SDK/GD32VW55x_RELEASE_V1.0.2/MSDK/lwip/lwip-2.1.2/src/core/ipv4\ip4_addr.c ****  *
   5:C:/Users/stapi/OneDrive/Desktop/GD32VW553/V1_MQTT_OK/GD32VW55X_Wifi_BLE_SDK/GD32VW55x_RELEASE_V1.0.2/MSDK/lwip/lwip-2.1.2/src/core/ipv4\ip4_addr.c ****  */
   6:C:/Users/stapi/OneDrive/Desktop/GD32VW553/V1_MQTT_OK/GD32VW55X_Wifi_BLE_SDK/GD32VW55x_RELEASE_V1.0.2/MSDK/lwip/lwip-2.1.2/src/core/ipv4\ip4_addr.c **** 
   7:C:/Users/stapi/OneDrive/Desktop/GD32VW553/V1_MQTT_OK/GD32VW55X_Wifi_BLE_SDK/GD32VW55x_RELEASE_V1.0.2/MSDK/lwip/lwip-2.1.2/src/core/ipv4\ip4_addr.c **** /*
   8:C:/Users/stapi/OneDrive/Desktop/GD32VW553/V1_MQTT_OK/GD32VW55X_Wifi_BLE_SDK/GD32VW55x_RELEASE_V1.0.2/MSDK/lwip/lwip-2.1.2/src/core/ipv4\ip4_addr.c ****  * Copyright (c) 2001-2004 Swedish Institute of Computer Science.
   9:C:/Users/stapi/OneDrive/Desktop/GD32VW553/V1_MQTT_OK/GD32VW55X_Wifi_BLE_SDK/GD32VW55x_RELEASE_V1.0.2/MSDK/lwip/lwip-2.1.2/src/core/ipv4\ip4_addr.c ****  * All rights reserved.
  10:C:/Users/stapi/OneDrive/Desktop/GD32VW553/V1_MQTT_OK/GD32VW55X_Wifi_BLE_SDK/GD32VW55x_RELEASE_V1.0.2/MSDK/lwip/lwip-2.1.2/src/core/ipv4\ip4_addr.c ****  *
  11:C:/Users/stapi/OneDrive/Desktop/GD32VW553/V1_MQTT_OK/GD32VW55X_Wifi_BLE_SDK/GD32VW55x_RELEASE_V1.0.2/MSDK/lwip/lwip-2.1.2/src/core/ipv4\ip4_addr.c ****  * Redistribution and use in source and binary forms, with or without modification,
  12:C:/Users/stapi/OneDrive/Desktop/GD32VW553/V1_MQTT_OK/GD32VW55X_Wifi_BLE_SDK/GD32VW55x_RELEASE_V1.0.2/MSDK/lwip/lwip-2.1.2/src/core/ipv4\ip4_addr.c ****  * are permitted provided that the following conditions are met:
  13:C:/Users/stapi/OneDrive/Desktop/GD32VW553/V1_MQTT_OK/GD32VW55X_Wifi_BLE_SDK/GD32VW55x_RELEASE_V1.0.2/MSDK/lwip/lwip-2.1.2/src/core/ipv4\ip4_addr.c ****  *
  14:C:/Users/stapi/OneDrive/Desktop/GD32VW553/V1_MQTT_OK/GD32VW55X_Wifi_BLE_SDK/GD32VW55x_RELEASE_V1.0.2/MSDK/lwip/lwip-2.1.2/src/core/ipv4\ip4_addr.c ****  * 1. Redistributions of source code must retain the above copyright notice,
  15:C:/Users/stapi/OneDrive/Desktop/GD32VW553/V1_MQTT_OK/GD32VW55X_Wifi_BLE_SDK/GD32VW55x_RELEASE_V1.0.2/MSDK/lwip/lwip-2.1.2/src/core/ipv4\ip4_addr.c ****  *    this list of conditions and the following disclaimer.
  16:C:/Users/stapi/OneDrive/Desktop/GD32VW553/V1_MQTT_OK/GD32VW55X_Wifi_BLE_SDK/GD32VW55x_RELEASE_V1.0.2/MSDK/lwip/lwip-2.1.2/src/core/ipv4\ip4_addr.c ****  * 2. Redistributions in binary form must reproduce the above copyright notice,
  17:C:/Users/stapi/OneDrive/Desktop/GD32VW553/V1_MQTT_OK/GD32VW55X_Wifi_BLE_SDK/GD32VW55x_RELEASE_V1.0.2/MSDK/lwip/lwip-2.1.2/src/core/ipv4\ip4_addr.c ****  *    this list of conditions and the following disclaimer in the documentation
  18:C:/Users/stapi/OneDrive/Desktop/GD32VW553/V1_MQTT_OK/GD32VW55X_Wifi_BLE_SDK/GD32VW55x_RELEASE_V1.0.2/MSDK/lwip/lwip-2.1.2/src/core/ipv4\ip4_addr.c ****  *    and/or other materials provided with the distribution.
  19:C:/Users/stapi/OneDrive/Desktop/GD32VW553/V1_MQTT_OK/GD32VW55X_Wifi_BLE_SDK/GD32VW55x_RELEASE_V1.0.2/MSDK/lwip/lwip-2.1.2/src/core/ipv4\ip4_addr.c ****  * 3. The name of the author may not be used to endorse or promote products
  20:C:/Users/stapi/OneDrive/Desktop/GD32VW553/V1_MQTT_OK/GD32VW55X_Wifi_BLE_SDK/GD32VW55x_RELEASE_V1.0.2/MSDK/lwip/lwip-2.1.2/src/core/ipv4\ip4_addr.c ****  *    derived from this software without specific prior written permission.
  21:C:/Users/stapi/OneDrive/Desktop/GD32VW553/V1_MQTT_OK/GD32VW55X_Wifi_BLE_SDK/GD32VW55x_RELEASE_V1.0.2/MSDK/lwip/lwip-2.1.2/src/core/ipv4\ip4_addr.c ****  *
  22:C:/Users/stapi/OneDrive/Desktop/GD32VW553/V1_MQTT_OK/GD32VW55X_Wifi_BLE_SDK/GD32VW55x_RELEASE_V1.0.2/MSDK/lwip/lwip-2.1.2/src/core/ipv4\ip4_addr.c ****  * THIS SOFTWARE IS PROVIDED BY THE AUTHOR ``AS IS'' AND ANY EXPRESS OR IMPLIED
  23:C:/Users/stapi/OneDrive/Desktop/GD32VW553/V1_MQTT_OK/GD32VW55X_Wifi_BLE_SDK/GD32VW55x_RELEASE_V1.0.2/MSDK/lwip/lwip-2.1.2/src/core/ipv4\ip4_addr.c ****  * WARRANTIES, INCLUDING, BUT NOT LIMITED TO, THE IMPLIED WARRANTIES OF
  24:C:/Users/stapi/OneDrive/Desktop/GD32VW553/V1_MQTT_OK/GD32VW55X_Wifi_BLE_SDK/GD32VW55x_RELEASE_V1.0.2/MSDK/lwip/lwip-2.1.2/src/core/ipv4\ip4_addr.c ****  * MERCHANTABILITY AND FITNESS FOR A PARTICULAR PURPOSE ARE DISCLAIMED. IN NO EVENT
  25:C:/Users/stapi/OneDrive/Desktop/GD32VW553/V1_MQTT_OK/GD32VW55X_Wifi_BLE_SDK/GD32VW55x_RELEASE_V1.0.2/MSDK/lwip/lwip-2.1.2/src/core/ipv4\ip4_addr.c ****  * SHALL THE AUTHOR BE LIABLE FOR ANY DIRECT, INDIRECT, INCIDENTAL, SPECIAL,
  26:C:/Users/stapi/OneDrive/Desktop/GD32VW553/V1_MQTT_OK/GD32VW55X_Wifi_BLE_SDK/GD32VW55x_RELEASE_V1.0.2/MSDK/lwip/lwip-2.1.2/src/core/ipv4\ip4_addr.c ****  * EXEMPLARY, OR CONSEQUENTIAL DAMAGES (INCLUDING, BUT NOT LIMITED TO, PROCUREMENT
  27:C:/Users/stapi/OneDrive/Desktop/GD32VW553/V1_MQTT_OK/GD32VW55X_Wifi_BLE_SDK/GD32VW55x_RELEASE_V1.0.2/MSDK/lwip/lwip-2.1.2/src/core/ipv4\ip4_addr.c ****  * OF SUBSTITUTE GOODS OR SERVICES; LOSS OF USE, DATA, OR PROFITS; OR BUSINESS
  28:C:/Users/stapi/OneDrive/Desktop/GD32VW553/V1_MQTT_OK/GD32VW55X_Wifi_BLE_SDK/GD32VW55x_RELEASE_V1.0.2/MSDK/lwip/lwip-2.1.2/src/core/ipv4\ip4_addr.c ****  * INTERRUPTION) HOWEVER CAUSED AND ON ANY THEORY OF LIABILITY, WHETHER IN
  29:C:/Users/stapi/OneDrive/Desktop/GD32VW553/V1_MQTT_OK/GD32VW55X_Wifi_BLE_SDK/GD32VW55x_RELEASE_V1.0.2/MSDK/lwip/lwip-2.1.2/src/core/ipv4\ip4_addr.c ****  * CONTRACT, STRICT LIABILITY, OR TORT (INCLUDING NEGLIGENCE OR OTHERWISE) ARISING
  30:C:/Users/stapi/OneDrive/Desktop/GD32VW553/V1_MQTT_OK/GD32VW55X_Wifi_BLE_SDK/GD32VW55x_RELEASE_V1.0.2/MSDK/lwip/lwip-2.1.2/src/core/ipv4\ip4_addr.c ****  * IN ANY WAY OUT OF THE USE OF THIS SOFTWARE, EVEN IF ADVISED OF THE POSSIBILITY
  31:C:/Users/stapi/OneDrive/Desktop/GD32VW553/V1_MQTT_OK/GD32VW55X_Wifi_BLE_SDK/GD32VW55x_RELEASE_V1.0.2/MSDK/lwip/lwip-2.1.2/src/core/ipv4\ip4_addr.c ****  * OF SUCH DAMAGE.
  32:C:/Users/stapi/OneDrive/Desktop/GD32VW553/V1_MQTT_OK/GD32VW55X_Wifi_BLE_SDK/GD32VW55x_RELEASE_V1.0.2/MSDK/lwip/lwip-2.1.2/src/core/ipv4\ip4_addr.c ****  *
  33:C:/Users/stapi/OneDrive/Desktop/GD32VW553/V1_MQTT_OK/GD32VW55X_Wifi_BLE_SDK/GD32VW55x_RELEASE_V1.0.2/MSDK/lwip/lwip-2.1.2/src/core/ipv4\ip4_addr.c ****  * This file is part of the lwIP TCP/IP stack.
  34:C:/Users/stapi/OneDrive/Desktop/GD32VW553/V1_MQTT_OK/GD32VW55X_Wifi_BLE_SDK/GD32VW55x_RELEASE_V1.0.2/MSDK/lwip/lwip-2.1.2/src/core/ipv4\ip4_addr.c ****  *
  35:C:/Users/stapi/OneDrive/Desktop/GD32VW553/V1_MQTT_OK/GD32VW55X_Wifi_BLE_SDK/GD32VW55x_RELEASE_V1.0.2/MSDK/lwip/lwip-2.1.2/src/core/ipv4\ip4_addr.c ****  * Author: Adam Dunkels <adam@sics.se>
  36:C:/Users/stapi/OneDrive/Desktop/GD32VW553/V1_MQTT_OK/GD32VW55X_Wifi_BLE_SDK/GD32VW55x_RELEASE_V1.0.2/MSDK/lwip/lwip-2.1.2/src/core/ipv4\ip4_addr.c ****  *
  37:C:/Users/stapi/OneDrive/Desktop/GD32VW553/V1_MQTT_OK/GD32VW55X_Wifi_BLE_SDK/GD32VW55x_RELEASE_V1.0.2/MSDK/lwip/lwip-2.1.2/src/core/ipv4\ip4_addr.c ****  */
  38:C:/Users/stapi/OneDrive/Desktop/GD32VW553/V1_MQTT_OK/GD32VW55X_Wifi_BLE_SDK/GD32VW55x_RELEASE_V1.0.2/MSDK/lwip/lwip-2.1.2/src/core/ipv4\ip4_addr.c **** 
  39:C:/Users/stapi/OneDrive/Desktop/GD32VW553/V1_MQTT_OK/GD32VW55X_Wifi_BLE_SDK/GD32VW55x_RELEASE_V1.0.2/MSDK/lwip/lwip-2.1.2/src/core/ipv4\ip4_addr.c **** #include "lwip/opt.h"
  40:C:/Users/stapi/OneDrive/Desktop/GD32VW553/V1_MQTT_OK/GD32VW55X_Wifi_BLE_SDK/GD32VW55x_RELEASE_V1.0.2/MSDK/lwip/lwip-2.1.2/src/core/ipv4\ip4_addr.c **** 
  41:C:/Users/stapi/OneDrive/Desktop/GD32VW553/V1_MQTT_OK/GD32VW55X_Wifi_BLE_SDK/GD32VW55x_RELEASE_V1.0.2/MSDK/lwip/lwip-2.1.2/src/core/ipv4\ip4_addr.c **** #if LWIP_IPV4
  42:C:/Users/stapi/OneDrive/Desktop/GD32VW553/V1_MQTT_OK/GD32VW55X_Wifi_BLE_SDK/GD32VW55x_RELEASE_V1.0.2/MSDK/lwip/lwip-2.1.2/src/core/ipv4\ip4_addr.c **** 
  43:C:/Users/stapi/OneDrive/Desktop/GD32VW553/V1_MQTT_OK/GD32VW55X_Wifi_BLE_SDK/GD32VW55x_RELEASE_V1.0.2/MSDK/lwip/lwip-2.1.2/src/core/ipv4\ip4_addr.c **** #include "lwip/ip_addr.h"
  44:C:/Users/stapi/OneDrive/Desktop/GD32VW553/V1_MQTT_OK/GD32VW55X_Wifi_BLE_SDK/GD32VW55x_RELEASE_V1.0.2/MSDK/lwip/lwip-2.1.2/src/core/ipv4\ip4_addr.c **** #include "lwip/netif.h"
  45:C:/Users/stapi/OneDrive/Desktop/GD32VW553/V1_MQTT_OK/GD32VW55X_Wifi_BLE_SDK/GD32VW55x_RELEASE_V1.0.2/MSDK/lwip/lwip-2.1.2/src/core/ipv4\ip4_addr.c **** 
  46:C:/Users/stapi/OneDrive/Desktop/GD32VW553/V1_MQTT_OK/GD32VW55X_Wifi_BLE_SDK/GD32VW55x_RELEASE_V1.0.2/MSDK/lwip/lwip-2.1.2/src/core/ipv4\ip4_addr.c **** /* used by IP4_ADDR_ANY and IP_ADDR_BROADCAST in ip_addr.h */
  47:C:/Users/stapi/OneDrive/Desktop/GD32VW553/V1_MQTT_OK/GD32VW55X_Wifi_BLE_SDK/GD32VW55x_RELEASE_V1.0.2/MSDK/lwip/lwip-2.1.2/src/core/ipv4\ip4_addr.c **** const ip_addr_t ip_addr_any = IPADDR4_INIT(IPADDR_ANY);
  48:C:/Users/stapi/OneDrive/Desktop/GD32VW553/V1_MQTT_OK/GD32VW55X_Wifi_BLE_SDK/GD32VW55x_RELEASE_V1.0.2/MSDK/lwip/lwip-2.1.2/src/core/ipv4\ip4_addr.c **** const ip_addr_t ip_addr_broadcast = IPADDR4_INIT(IPADDR_BROADCAST);
  49:C:/Users/stapi/OneDrive/Desktop/GD32VW553/V1_MQTT_OK/GD32VW55X_Wifi_BLE_SDK/GD32VW55x_RELEASE_V1.0.2/MSDK/lwip/lwip-2.1.2/src/core/ipv4\ip4_addr.c **** 
  50:C:/Users/stapi/OneDrive/Desktop/GD32VW553/V1_MQTT_OK/GD32VW55X_Wifi_BLE_SDK/GD32VW55x_RELEASE_V1.0.2/MSDK/lwip/lwip-2.1.2/src/core/ipv4\ip4_addr.c **** /**
  51:C:/Users/stapi/OneDrive/Desktop/GD32VW553/V1_MQTT_OK/GD32VW55X_Wifi_BLE_SDK/GD32VW55x_RELEASE_V1.0.2/MSDK/lwip/lwip-2.1.2/src/core/ipv4\ip4_addr.c ****  * Determine if an address is a broadcast address on a network interface
  52:C:/Users/stapi/OneDrive/Desktop/GD32VW553/V1_MQTT_OK/GD32VW55X_Wifi_BLE_SDK/GD32VW55x_RELEASE_V1.0.2/MSDK/lwip/lwip-2.1.2/src/core/ipv4\ip4_addr.c ****  *
  53:C:/Users/stapi/OneDrive/Desktop/GD32VW553/V1_MQTT_OK/GD32VW55X_Wifi_BLE_SDK/GD32VW55x_RELEASE_V1.0.2/MSDK/lwip/lwip-2.1.2/src/core/ipv4\ip4_addr.c ****  * @param addr address to be checked
  54:C:/Users/stapi/OneDrive/Desktop/GD32VW553/V1_MQTT_OK/GD32VW55X_Wifi_BLE_SDK/GD32VW55x_RELEASE_V1.0.2/MSDK/lwip/lwip-2.1.2/src/core/ipv4\ip4_addr.c ****  * @param netif the network interface against which the address is checked
  55:C:/Users/stapi/OneDrive/Desktop/GD32VW553/V1_MQTT_OK/GD32VW55X_Wifi_BLE_SDK/GD32VW55x_RELEASE_V1.0.2/MSDK/lwip/lwip-2.1.2/src/core/ipv4\ip4_addr.c ****  * @return returns non-zero if the address is a broadcast address
  56:C:/Users/stapi/OneDrive/Desktop/GD32VW553/V1_MQTT_OK/GD32VW55X_Wifi_BLE_SDK/GD32VW55x_RELEASE_V1.0.2/MSDK/lwip/lwip-2.1.2/src/core/ipv4\ip4_addr.c ****  */
  57:C:/Users/stapi/OneDrive/Desktop/GD32VW553/V1_MQTT_OK/GD32VW55X_Wifi_BLE_SDK/GD32VW55x_RELEASE_V1.0.2/MSDK/lwip/lwip-2.1.2/src/core/ipv4\ip4_addr.c **** u8_t
  58:C:/Users/stapi/OneDrive/Desktop/GD32VW553/V1_MQTT_OK/GD32VW55X_Wifi_BLE_SDK/GD32VW55x_RELEASE_V1.0.2/MSDK/lwip/lwip-2.1.2/src/core/ipv4\ip4_addr.c **** ip4_addr_isbroadcast_u32(u32_t addr, const struct netif *netif)
  59:C:/Users/stapi/OneDrive/Desktop/GD32VW553/V1_MQTT_OK/GD32VW55X_Wifi_BLE_SDK/GD32VW55x_RELEASE_V1.0.2/MSDK/lwip/lwip-2.1.2/src/core/ipv4\ip4_addr.c **** {
  16              		.loc 1 59 1
  17              		.cfi_startproc
  18              	.LVL0:
  60:C:/Users/stapi/OneDrive/Desktop/GD32VW553/V1_MQTT_OK/GD32VW55X_Wifi_BLE_SDK/GD32VW55x_RELEASE_V1.0.2/MSDK/lwip/lwip-2.1.2/src/core/ipv4\ip4_addr.c ****   ip4_addr_t ipaddr;
  19              		.loc 1 60 3
  61:C:/Users/stapi/OneDrive/Desktop/GD32VW553/V1_MQTT_OK/GD32VW55X_Wifi_BLE_SDK/GD32VW55x_RELEASE_V1.0.2/MSDK/lwip/lwip-2.1.2/src/core/ipv4\ip4_addr.c ****   ip4_addr_set_u32(&ipaddr, addr);
  20              		.loc 1 61 3
  62:C:/Users/stapi/OneDrive/Desktop/GD32VW553/V1_MQTT_OK/GD32VW55X_Wifi_BLE_SDK/GD32VW55x_RELEASE_V1.0.2/MSDK/lwip/lwip-2.1.2/src/core/ipv4\ip4_addr.c **** 
  63:C:/Users/stapi/OneDrive/Desktop/GD32VW553/V1_MQTT_OK/GD32VW55X_Wifi_BLE_SDK/GD32VW55x_RELEASE_V1.0.2/MSDK/lwip/lwip-2.1.2/src/core/ipv4\ip4_addr.c ****   /* all ones (broadcast) or all zeroes (old skool broadcast) */
  64:C:/Users/stapi/OneDrive/Desktop/GD32VW553/V1_MQTT_OK/GD32VW55X_Wifi_BLE_SDK/GD32VW55x_RELEASE_V1.0.2/MSDK/lwip/lwip-2.1.2/src/core/ipv4\ip4_addr.c ****   if ((~addr == IPADDR_ANY) ||
  21              		.loc 1 64 3
  22              		.loc 1 64 29 is_stmt 0
  23 0000 9306F5FF 		addi	a3,a0,-1
  24              		.loc 1 64 6
  25 0004 F557     		li	a5,-3
  59:C:/Users/stapi/OneDrive/Desktop/GD32VW553/V1_MQTT_OK/GD32VW55X_Wifi_BLE_SDK/GD32VW55x_RELEASE_V1.0.2/MSDK/lwip/lwip-2.1.2/src/core/ipv4\ip4_addr.c ****   ip4_addr_t ipaddr;
  26              		.loc 1 59 1
  27 0006 2A87     		mv	a4,a0
  28              		.loc 1 64 6
  29 0008 63E6D702 		bgtu	a3,a5,.L3
  65:C:/Users/stapi/OneDrive/Desktop/GD32VW553/V1_MQTT_OK/GD32VW55X_Wifi_BLE_SDK/GD32VW55x_RELEASE_V1.0.2/MSDK/lwip/lwip-2.1.2/src/core/ipv4\ip4_addr.c ****       (addr == IPADDR_ANY)) {
  66:C:/Users/stapi/OneDrive/Desktop/GD32VW553/V1_MQTT_OK/GD32VW55X_Wifi_BLE_SDK/GD32VW55x_RELEASE_V1.0.2/MSDK/lwip/lwip-2.1.2/src/core/ipv4\ip4_addr.c ****     return 1;
  67:C:/Users/stapi/OneDrive/Desktop/GD32VW553/V1_MQTT_OK/GD32VW55X_Wifi_BLE_SDK/GD32VW55x_RELEASE_V1.0.2/MSDK/lwip/lwip-2.1.2/src/core/ipv4\ip4_addr.c ****     /* no broadcast support on this network interface? */
  68:C:/Users/stapi/OneDrive/Desktop/GD32VW553/V1_MQTT_OK/GD32VW55X_Wifi_BLE_SDK/GD32VW55x_RELEASE_V1.0.2/MSDK/lwip/lwip-2.1.2/src/core/ipv4\ip4_addr.c ****   } else if ((netif->flags & NETIF_FLAG_BROADCAST) == 0) {
  30              		.loc 1 68 10 is_stmt 1
  31 000c 83C71503 		lbu	a5,49(a1)
  32 0010 13F52700 		andi	a0,a5,2
  33              	.LVL1:
  34              		.loc 1 68 13 is_stmt 0
  35 0014 0DC1     		beq	a0,zero,.L2
  69:C:/Users/stapi/OneDrive/Desktop/GD32VW553/V1_MQTT_OK/GD32VW55X_Wifi_BLE_SDK/GD32VW55x_RELEASE_V1.0.2/MSDK/lwip/lwip-2.1.2/src/core/ipv4\ip4_addr.c ****     /* the given address cannot be a broadcast address
  70:C:/Users/stapi/OneDrive/Desktop/GD32VW553/V1_MQTT_OK/GD32VW55X_Wifi_BLE_SDK/GD32VW55x_RELEASE_V1.0.2/MSDK/lwip/lwip-2.1.2/src/core/ipv4\ip4_addr.c ****      * nor can we check against any broadcast addresses */
  71:C:/Users/stapi/OneDrive/Desktop/GD32VW553/V1_MQTT_OK/GD32VW55X_Wifi_BLE_SDK/GD32VW55x_RELEASE_V1.0.2/MSDK/lwip/lwip-2.1.2/src/core/ipv4\ip4_addr.c ****     return 0;
  72:C:/Users/stapi/OneDrive/Desktop/GD32VW553/V1_MQTT_OK/GD32VW55X_Wifi_BLE_SDK/GD32VW55x_RELEASE_V1.0.2/MSDK/lwip/lwip-2.1.2/src/core/ipv4\ip4_addr.c ****     /* address matches network interface address exactly? => no broadcast */
  73:C:/Users/stapi/OneDrive/Desktop/GD32VW553/V1_MQTT_OK/GD32VW55X_Wifi_BLE_SDK/GD32VW55x_RELEASE_V1.0.2/MSDK/lwip/lwip-2.1.2/src/core/ipv4\ip4_addr.c ****   } else if (addr == ip4_addr_get_u32(netif_ip4_addr(netif))) {
  36              		.loc 1 73 10 is_stmt 1
  37              		.loc 1 73 22 is_stmt 0
  38 0016 DC41     		lw	a5,4(a1)
  74:C:/Users/stapi/OneDrive/Desktop/GD32VW553/V1_MQTT_OK/GD32VW55X_Wifi_BLE_SDK/GD32VW55x_RELEASE_V1.0.2/MSDK/lwip/lwip-2.1.2/src/core/ipv4\ip4_addr.c ****     return 0;
  75:C:/Users/stapi/OneDrive/Desktop/GD32VW553/V1_MQTT_OK/GD32VW55X_Wifi_BLE_SDK/GD32VW55x_RELEASE_V1.0.2/MSDK/lwip/lwip-2.1.2/src/core/ipv4\ip4_addr.c ****     /*  on the same (sub) network... */
  76:C:/Users/stapi/OneDrive/Desktop/GD32VW553/V1_MQTT_OK/GD32VW55X_Wifi_BLE_SDK/GD32VW55x_RELEASE_V1.0.2/MSDK/lwip/lwip-2.1.2/src/core/ipv4\ip4_addr.c ****   } else if (ip4_addr_netcmp(&ipaddr, netif_ip4_addr(netif), netif_ip4_netmask(netif))
  77:C:/Users/stapi/OneDrive/Desktop/GD32VW553/V1_MQTT_OK/GD32VW55X_Wifi_BLE_SDK/GD32VW55x_RELEASE_V1.0.2/MSDK/lwip/lwip-2.1.2/src/core/ipv4\ip4_addr.c ****              /* ...and host identifier bits are all ones? =>... */
  78:C:/Users/stapi/OneDrive/Desktop/GD32VW553/V1_MQTT_OK/GD32VW55X_Wifi_BLE_SDK/GD32VW55x_RELEASE_V1.0.2/MSDK/lwip/lwip-2.1.2/src/core/ipv4\ip4_addr.c ****              && ((addr & ~ip4_addr_get_u32(netif_ip4_netmask(netif))) ==
  79:C:/Users/stapi/OneDrive/Desktop/GD32VW553/V1_MQTT_OK/GD32VW55X_Wifi_BLE_SDK/GD32VW55x_RELEASE_V1.0.2/MSDK/lwip/lwip-2.1.2/src/core/ipv4\ip4_addr.c ****                  (IPADDR_BROADCAST & ~ip4_addr_get_u32(netif_ip4_netmask(netif))))) {
  80:C:/Users/stapi/OneDrive/Desktop/GD32VW553/V1_MQTT_OK/GD32VW55X_Wifi_BLE_SDK/GD32VW55x_RELEASE_V1.0.2/MSDK/lwip/lwip-2.1.2/src/core/ipv4\ip4_addr.c ****     /* => network broadcast address */
  81:C:/Users/stapi/OneDrive/Desktop/GD32VW553/V1_MQTT_OK/GD32VW55X_Wifi_BLE_SDK/GD32VW55x_RELEASE_V1.0.2/MSDK/lwip/lwip-2.1.2/src/core/ipv4\ip4_addr.c ****     return 1;
  82:C:/Users/stapi/OneDrive/Desktop/GD32VW553/V1_MQTT_OK/GD32VW55X_Wifi_BLE_SDK/GD32VW55x_RELEASE_V1.0.2/MSDK/lwip/lwip-2.1.2/src/core/ipv4\ip4_addr.c ****   } else {
  83:C:/Users/stapi/OneDrive/Desktop/GD32VW553/V1_MQTT_OK/GD32VW55X_Wifi_BLE_SDK/GD32VW55x_RELEASE_V1.0.2/MSDK/lwip/lwip-2.1.2/src/core/ipv4\ip4_addr.c ****     return 0;
  39              		.loc 1 83 12
  40 0018 0145     		li	a0,0
  73:C:/Users/stapi/OneDrive/Desktop/GD32VW553/V1_MQTT_OK/GD32VW55X_Wifi_BLE_SDK/GD32VW55x_RELEASE_V1.0.2/MSDK/lwip/lwip-2.1.2/src/core/ipv4\ip4_addr.c ****     return 0;
  41              		.loc 1 73 13
  42 001a 638EE700 		beq	a5,a4,.L2
  76:C:/Users/stapi/OneDrive/Desktop/GD32VW553/V1_MQTT_OK/GD32VW55X_Wifi_BLE_SDK/GD32VW55x_RELEASE_V1.0.2/MSDK/lwip/lwip-2.1.2/src/core/ipv4\ip4_addr.c ****              /* ...and host identifier bits are all ones? =>... */
  43              		.loc 1 76 10 is_stmt 1
  76:C:/Users/stapi/OneDrive/Desktop/GD32VW553/V1_MQTT_OK/GD32VW55X_Wifi_BLE_SDK/GD32VW55x_RELEASE_V1.0.2/MSDK/lwip/lwip-2.1.2/src/core/ipv4\ip4_addr.c ****              /* ...and host identifier bits are all ones? =>... */
  44              		.loc 1 76 14 is_stmt 0
  45 001e 9445     		lw	a3,8(a1)
  46 0020 B98F     		xor	a5,a5,a4
  47 0022 F58F     		and	a5,a5,a3
  76:C:/Users/stapi/OneDrive/Desktop/GD32VW553/V1_MQTT_OK/GD32VW55X_Wifi_BLE_SDK/GD32VW55x_RELEASE_V1.0.2/MSDK/lwip/lwip-2.1.2/src/core/ipv4\ip4_addr.c ****              /* ...and host identifier bits are all ones? =>... */
  48              		.loc 1 76 13
  49 0024 89EB     		bne	a5,zero,.L2
  78:C:/Users/stapi/OneDrive/Desktop/GD32VW553/V1_MQTT_OK/GD32VW55X_Wifi_BLE_SDK/GD32VW55x_RELEASE_V1.0.2/MSDK/lwip/lwip-2.1.2/src/core/ipv4\ip4_addr.c ****                  (IPADDR_BROADCAST & ~ip4_addr_get_u32(netif_ip4_netmask(netif))))) {
  50              		.loc 1 78 26
  51 0026 13C5F6FF 		not	a0,a3
  78:C:/Users/stapi/OneDrive/Desktop/GD32VW553/V1_MQTT_OK/GD32VW55X_Wifi_BLE_SDK/GD32VW55x_RELEASE_V1.0.2/MSDK/lwip/lwip-2.1.2/src/core/ipv4\ip4_addr.c ****                  (IPADDR_BROADCAST & ~ip4_addr_get_u32(netif_ip4_netmask(netif))))) {
  52              		.loc 1 78 14
  53 002a 3375E540 		andn	a0,a0,a4
  54              		.loc 1 83 12
  55 002e 13351500 		seqz	a0,a0
  56 0032 8280     		ret
  57              	.LVL2:
  58              	.L3:
  66:C:/Users/stapi/OneDrive/Desktop/GD32VW553/V1_MQTT_OK/GD32VW55X_Wifi_BLE_SDK/GD32VW55x_RELEASE_V1.0.2/MSDK/lwip/lwip-2.1.2/src/core/ipv4\ip4_addr.c ****     /* no broadcast support on this network interface? */
  59              		.loc 1 66 12
  60 0034 0545     		li	a0,1
  61              	.LVL3:
  62              	.L2:
  84:C:/Users/stapi/OneDrive/Desktop/GD32VW553/V1_MQTT_OK/GD32VW55X_Wifi_BLE_SDK/GD32VW55x_RELEASE_V1.0.2/MSDK/lwip/lwip-2.1.2/src/core/ipv4\ip4_addr.c ****   }
  85:C:/Users/stapi/OneDrive/Desktop/GD32VW553/V1_MQTT_OK/GD32VW55X_Wifi_BLE_SDK/GD32VW55x_RELEASE_V1.0.2/MSDK/lwip/lwip-2.1.2/src/core/ipv4\ip4_addr.c **** }
  63              		.loc 1 85 1
  64 0036 8280     		ret
  65              		.cfi_endproc
  66              	.LFE3:
  68              		.section	.text.ip4_addr_netmask_valid,"ax",@progbits
  69              		.align	1
  70              		.globl	ip4_addr_netmask_valid
  72              	ip4_addr_netmask_valid:
  73              	.LFB4:
  86:C:/Users/stapi/OneDrive/Desktop/GD32VW553/V1_MQTT_OK/GD32VW55X_Wifi_BLE_SDK/GD32VW55x_RELEASE_V1.0.2/MSDK/lwip/lwip-2.1.2/src/core/ipv4\ip4_addr.c **** 
  87:C:/Users/stapi/OneDrive/Desktop/GD32VW553/V1_MQTT_OK/GD32VW55X_Wifi_BLE_SDK/GD32VW55x_RELEASE_V1.0.2/MSDK/lwip/lwip-2.1.2/src/core/ipv4\ip4_addr.c **** /** Checks if a netmask is valid (starting with ones, then only zeros)
  88:C:/Users/stapi/OneDrive/Desktop/GD32VW553/V1_MQTT_OK/GD32VW55X_Wifi_BLE_SDK/GD32VW55x_RELEASE_V1.0.2/MSDK/lwip/lwip-2.1.2/src/core/ipv4\ip4_addr.c ****  *
  89:C:/Users/stapi/OneDrive/Desktop/GD32VW553/V1_MQTT_OK/GD32VW55X_Wifi_BLE_SDK/GD32VW55x_RELEASE_V1.0.2/MSDK/lwip/lwip-2.1.2/src/core/ipv4\ip4_addr.c ****  * @param netmask the IPv4 netmask to check (in network byte order!)
  90:C:/Users/stapi/OneDrive/Desktop/GD32VW553/V1_MQTT_OK/GD32VW55X_Wifi_BLE_SDK/GD32VW55x_RELEASE_V1.0.2/MSDK/lwip/lwip-2.1.2/src/core/ipv4\ip4_addr.c ****  * @return 1 if the netmask is valid, 0 if it is not
  91:C:/Users/stapi/OneDrive/Desktop/GD32VW553/V1_MQTT_OK/GD32VW55X_Wifi_BLE_SDK/GD32VW55x_RELEASE_V1.0.2/MSDK/lwip/lwip-2.1.2/src/core/ipv4\ip4_addr.c ****  */
  92:C:/Users/stapi/OneDrive/Desktop/GD32VW553/V1_MQTT_OK/GD32VW55X_Wifi_BLE_SDK/GD32VW55x_RELEASE_V1.0.2/MSDK/lwip/lwip-2.1.2/src/core/ipv4\ip4_addr.c **** u8_t
  93:C:/Users/stapi/OneDrive/Desktop/GD32VW553/V1_MQTT_OK/GD32VW55X_Wifi_BLE_SDK/GD32VW55x_RELEASE_V1.0.2/MSDK/lwip/lwip-2.1.2/src/core/ipv4\ip4_addr.c **** ip4_addr_netmask_valid(u32_t netmask)
  94:C:/Users/stapi/OneDrive/Desktop/GD32VW553/V1_MQTT_OK/GD32VW55X_Wifi_BLE_SDK/GD32VW55x_RELEASE_V1.0.2/MSDK/lwip/lwip-2.1.2/src/core/ipv4\ip4_addr.c **** {
  74              		.loc 1 94 1 is_stmt 1
  75              		.cfi_startproc
  76              	.LVL4:
  77 0000 17030000 		call	t0,__riscv_save_0
  77      E7020300 
  78              		.cfi_offset 1, -4
  79              		.cfi_def_cfa_offset 16
  95:C:/Users/stapi/OneDrive/Desktop/GD32VW553/V1_MQTT_OK/GD32VW55X_Wifi_BLE_SDK/GD32VW55x_RELEASE_V1.0.2/MSDK/lwip/lwip-2.1.2/src/core/ipv4\ip4_addr.c ****   u32_t mask;
  80              		.loc 1 95 3
  96:C:/Users/stapi/OneDrive/Desktop/GD32VW553/V1_MQTT_OK/GD32VW55X_Wifi_BLE_SDK/GD32VW55x_RELEASE_V1.0.2/MSDK/lwip/lwip-2.1.2/src/core/ipv4\ip4_addr.c ****   u32_t nm_hostorder = lwip_htonl(netmask);
  81              		.loc 1 96 3
  82              		.loc 1 96 24 is_stmt 0
  83 0008 97000000 		call	lwip_htonl
  83      E7800000 
  84              	.LVL5:
  97:C:/Users/stapi/OneDrive/Desktop/GD32VW553/V1_MQTT_OK/GD32VW55X_Wifi_BLE_SDK/GD32VW55x_RELEASE_V1.0.2/MSDK/lwip/lwip-2.1.2/src/core/ipv4\ip4_addr.c **** 
  98:C:/Users/stapi/OneDrive/Desktop/GD32VW553/V1_MQTT_OK/GD32VW55X_Wifi_BLE_SDK/GD32VW55x_RELEASE_V1.0.2/MSDK/lwip/lwip-2.1.2/src/core/ipv4\ip4_addr.c ****   /* first, check for the first zero */
  99:C:/Users/stapi/OneDrive/Desktop/GD32VW553/V1_MQTT_OK/GD32VW55X_Wifi_BLE_SDK/GD32VW55x_RELEASE_V1.0.2/MSDK/lwip/lwip-2.1.2/src/core/ipv4\ip4_addr.c ****   for (mask = 1UL << 31 ; mask != 0; mask >>= 1) {
  85              		.loc 1 99 3 is_stmt 1
  86              		.loc 1 99 27
  96:C:/Users/stapi/OneDrive/Desktop/GD32VW553/V1_MQTT_OK/GD32VW55X_Wifi_BLE_SDK/GD32VW55x_RELEASE_V1.0.2/MSDK/lwip/lwip-2.1.2/src/core/ipv4\ip4_addr.c ****   u32_t nm_hostorder = lwip_htonl(netmask);
  87              		.loc 1 96 24 is_stmt 0
  88 0010 13070002 		li	a4,32
  89              		.loc 1 99 13
  90 0014 B7070080 		li	a5,-2147483648
  91              	.LVL6:
  92              	.L11:
 100:C:/Users/stapi/OneDrive/Desktop/GD32VW553/V1_MQTT_OK/GD32VW55X_Wifi_BLE_SDK/GD32VW55x_RELEASE_V1.0.2/MSDK/lwip/lwip-2.1.2/src/core/ipv4\ip4_addr.c ****     if ((nm_hostorder & mask) == 0) {
  93              		.loc 1 100 5 is_stmt 1
  94              		.loc 1 100 23 is_stmt 0
  95 0018 B376F500 		and	a3,a0,a5
  96              		.loc 1 100 8
  97 001c 89CE     		beq	a3,zero,.L10
  99:C:/Users/stapi/OneDrive/Desktop/GD32VW553/V1_MQTT_OK/GD32VW55X_Wifi_BLE_SDK/GD32VW55x_RELEASE_V1.0.2/MSDK/lwip/lwip-2.1.2/src/core/ipv4\ip4_addr.c ****     if ((nm_hostorder & mask) == 0) {
  98              		.loc 1 99 38 is_stmt 1 discriminator 2
  99:C:/Users/stapi/OneDrive/Desktop/GD32VW553/V1_MQTT_OK/GD32VW55X_Wifi_BLE_SDK/GD32VW55x_RELEASE_V1.0.2/MSDK/lwip/lwip-2.1.2/src/core/ipv4\ip4_addr.c ****     if ((nm_hostorder & mask) == 0) {
  99              		.loc 1 99 3 is_stmt 0 discriminator 2
 100 001e 7D17     		addi	a4,a4,-1
  99:C:/Users/stapi/OneDrive/Desktop/GD32VW553/V1_MQTT_OK/GD32VW55X_Wifi_BLE_SDK/GD32VW55x_RELEASE_V1.0.2/MSDK/lwip/lwip-2.1.2/src/core/ipv4\ip4_addr.c ****     if ((nm_hostorder & mask) == 0) {
 101              		.loc 1 99 43 discriminator 2
 102 0020 8583     		srli	a5,a5,1
 103              	.LVL7:
  99:C:/Users/stapi/OneDrive/Desktop/GD32VW553/V1_MQTT_OK/GD32VW55X_Wifi_BLE_SDK/GD32VW55x_RELEASE_V1.0.2/MSDK/lwip/lwip-2.1.2/src/core/ipv4\ip4_addr.c ****     if ((nm_hostorder & mask) == 0) {
 104              		.loc 1 99 27 is_stmt 1 discriminator 2
  99:C:/Users/stapi/OneDrive/Desktop/GD32VW553/V1_MQTT_OK/GD32VW55X_Wifi_BLE_SDK/GD32VW55x_RELEASE_V1.0.2/MSDK/lwip/lwip-2.1.2/src/core/ipv4\ip4_addr.c ****     if ((nm_hostorder & mask) == 0) {
 105              		.loc 1 99 3 is_stmt 0 discriminator 2
 106 0022 7DFB     		bne	a4,zero,.L11
 107              	.L19:
 101:C:/Users/stapi/OneDrive/Desktop/GD32VW553/V1_MQTT_OK/GD32VW55X_Wifi_BLE_SDK/GD32VW55x_RELEASE_V1.0.2/MSDK/lwip/lwip-2.1.2/src/core/ipv4\ip4_addr.c ****       break;
 102:C:/Users/stapi/OneDrive/Desktop/GD32VW553/V1_MQTT_OK/GD32VW55X_Wifi_BLE_SDK/GD32VW55x_RELEASE_V1.0.2/MSDK/lwip/lwip-2.1.2/src/core/ipv4\ip4_addr.c ****     }
 103:C:/Users/stapi/OneDrive/Desktop/GD32VW553/V1_MQTT_OK/GD32VW55X_Wifi_BLE_SDK/GD32VW55x_RELEASE_V1.0.2/MSDK/lwip/lwip-2.1.2/src/core/ipv4\ip4_addr.c ****   }
 104:C:/Users/stapi/OneDrive/Desktop/GD32VW553/V1_MQTT_OK/GD32VW55X_Wifi_BLE_SDK/GD32VW55x_RELEASE_V1.0.2/MSDK/lwip/lwip-2.1.2/src/core/ipv4\ip4_addr.c ****   /* then check that there is no one */
 105:C:/Users/stapi/OneDrive/Desktop/GD32VW553/V1_MQTT_OK/GD32VW55X_Wifi_BLE_SDK/GD32VW55x_RELEASE_V1.0.2/MSDK/lwip/lwip-2.1.2/src/core/ipv4\ip4_addr.c ****   for (; mask != 0; mask >>= 1) {
 106:C:/Users/stapi/OneDrive/Desktop/GD32VW553/V1_MQTT_OK/GD32VW55X_Wifi_BLE_SDK/GD32VW55x_RELEASE_V1.0.2/MSDK/lwip/lwip-2.1.2/src/core/ipv4\ip4_addr.c ****     if ((nm_hostorder & mask) != 0) {
 107:C:/Users/stapi/OneDrive/Desktop/GD32VW553/V1_MQTT_OK/GD32VW55X_Wifi_BLE_SDK/GD32VW55x_RELEASE_V1.0.2/MSDK/lwip/lwip-2.1.2/src/core/ipv4\ip4_addr.c ****       /* there is a one after the first zero -> invalid */
 108:C:/Users/stapi/OneDrive/Desktop/GD32VW553/V1_MQTT_OK/GD32VW55X_Wifi_BLE_SDK/GD32VW55x_RELEASE_V1.0.2/MSDK/lwip/lwip-2.1.2/src/core/ipv4\ip4_addr.c ****       return 0;
 109:C:/Users/stapi/OneDrive/Desktop/GD32VW553/V1_MQTT_OK/GD32VW55X_Wifi_BLE_SDK/GD32VW55x_RELEASE_V1.0.2/MSDK/lwip/lwip-2.1.2/src/core/ipv4\ip4_addr.c ****     }
 110:C:/Users/stapi/OneDrive/Desktop/GD32VW553/V1_MQTT_OK/GD32VW55X_Wifi_BLE_SDK/GD32VW55x_RELEASE_V1.0.2/MSDK/lwip/lwip-2.1.2/src/core/ipv4\ip4_addr.c ****   }
 111:C:/Users/stapi/OneDrive/Desktop/GD32VW553/V1_MQTT_OK/GD32VW55X_Wifi_BLE_SDK/GD32VW55x_RELEASE_V1.0.2/MSDK/lwip/lwip-2.1.2/src/core/ipv4\ip4_addr.c ****   /* no one after the first zero -> valid */
 112:C:/Users/stapi/OneDrive/Desktop/GD32VW553/V1_MQTT_OK/GD32VW55X_Wifi_BLE_SDK/GD32VW55x_RELEASE_V1.0.2/MSDK/lwip/lwip-2.1.2/src/core/ipv4\ip4_addr.c ****   return 1;
 108              		.loc 1 112 10
 109 0024 0545     		li	a0,1
 110              	.LVL8:
 111              	.L12:
 113:C:/Users/stapi/OneDrive/Desktop/GD32VW553/V1_MQTT_OK/GD32VW55X_Wifi_BLE_SDK/GD32VW55x_RELEASE_V1.0.2/MSDK/lwip/lwip-2.1.2/src/core/ipv4\ip4_addr.c **** }
 112              		.loc 1 113 1
 113 0026 17030000 		tail	__riscv_restore_0
 113      67000300 
 114              		.cfi_remember_state
 115              		.cfi_restore 1
 116              		.cfi_def_cfa_offset 0
 117              	.LVL9:
 118              	.L13:
 119              		.cfi_restore_state
 106:C:/Users/stapi/OneDrive/Desktop/GD32VW553/V1_MQTT_OK/GD32VW55X_Wifi_BLE_SDK/GD32VW55x_RELEASE_V1.0.2/MSDK/lwip/lwip-2.1.2/src/core/ipv4\ip4_addr.c ****       /* there is a one after the first zero -> invalid */
 120              		.loc 1 106 5 is_stmt 1
 106:C:/Users/stapi/OneDrive/Desktop/GD32VW553/V1_MQTT_OK/GD32VW55X_Wifi_BLE_SDK/GD32VW55x_RELEASE_V1.0.2/MSDK/lwip/lwip-2.1.2/src/core/ipv4\ip4_addr.c ****       /* there is a one after the first zero -> invalid */
 121              		.loc 1 106 23 is_stmt 0
 122 002e 33F7A700 		and	a4,a5,a0
 106:C:/Users/stapi/OneDrive/Desktop/GD32VW553/V1_MQTT_OK/GD32VW55X_Wifi_BLE_SDK/GD32VW55x_RELEASE_V1.0.2/MSDK/lwip/lwip-2.1.2/src/core/ipv4\ip4_addr.c ****       /* there is a one after the first zero -> invalid */
 123              		.loc 1 106 8
 124 0032 01E7     		bne	a4,zero,.L14
 105:C:/Users/stapi/OneDrive/Desktop/GD32VW553/V1_MQTT_OK/GD32VW55X_Wifi_BLE_SDK/GD32VW55x_RELEASE_V1.0.2/MSDK/lwip/lwip-2.1.2/src/core/ipv4\ip4_addr.c ****     if ((nm_hostorder & mask) != 0) {
 125              		.loc 1 105 21 is_stmt 1
 105:C:/Users/stapi/OneDrive/Desktop/GD32VW553/V1_MQTT_OK/GD32VW55X_Wifi_BLE_SDK/GD32VW55x_RELEASE_V1.0.2/MSDK/lwip/lwip-2.1.2/src/core/ipv4\ip4_addr.c ****     if ((nm_hostorder & mask) != 0) {
 126              		.loc 1 105 26 is_stmt 0
 127 0034 8583     		srli	a5,a5,1
 128              	.LVL10:
 129              	.L10:
 105:C:/Users/stapi/OneDrive/Desktop/GD32VW553/V1_MQTT_OK/GD32VW55X_Wifi_BLE_SDK/GD32VW55x_RELEASE_V1.0.2/MSDK/lwip/lwip-2.1.2/src/core/ipv4\ip4_addr.c ****     if ((nm_hostorder & mask) != 0) {
 130              		.loc 1 105 10 is_stmt 1 discriminator 1
 105:C:/Users/stapi/OneDrive/Desktop/GD32VW553/V1_MQTT_OK/GD32VW55X_Wifi_BLE_SDK/GD32VW55x_RELEASE_V1.0.2/MSDK/lwip/lwip-2.1.2/src/core/ipv4\ip4_addr.c ****     if ((nm_hostorder & mask) != 0) {
 131              		.loc 1 105 3 is_stmt 0 discriminator 1
 132 0036 E5FF     		bne	a5,zero,.L13
 133 0038 F5B7     		j	.L19
 134              	.L14:
 108:C:/Users/stapi/OneDrive/Desktop/GD32VW553/V1_MQTT_OK/GD32VW55X_Wifi_BLE_SDK/GD32VW55x_RELEASE_V1.0.2/MSDK/lwip/lwip-2.1.2/src/core/ipv4\ip4_addr.c ****     }
 135              		.loc 1 108 14
 136 003a 0145     		li	a0,0
 137              	.LVL11:
 138 003c EDB7     		j	.L12
 139              		.cfi_endproc
 140              	.LFE4:
 142              		.section	.rodata.ip4addr_aton.str1.4,"aMS",@progbits,1
 143              		.align	2
 144              	.LC0:
 145 0000 433A2F55 		.string	"C:/Users/stapi/OneDrive/Desktop/GD32VW553/V1_MQTT_OK/GD32VW55X_Wifi_BLE_SDK/GD32VW55x_REL
 145      73657273 
 145      2F737461 
 145      70692F4F 
 145      6E654472 
 146 0093 00       		.align	2
 147              	.LC1:
 148 0094 756E6861 		.string	"unhandled"
 148      6E646C65 
 148      6400
 149 009e 0000     		.align	2
 150              	.LC2:
 151 00a0 41737365 		.string	"Assertion \"%s\" failed at line %d in %s\n"
 151      7274696F 
 151      6E202225 
 151      73222066 
 151      61696C65 
 152              		.section	.text.ip4addr_aton,"ax",@progbits
 153              		.align	1
 154              		.globl	ip4addr_aton
 156              	ip4addr_aton:
 157              	.LFB6:
 114:C:/Users/stapi/OneDrive/Desktop/GD32VW553/V1_MQTT_OK/GD32VW55X_Wifi_BLE_SDK/GD32VW55x_RELEASE_V1.0.2/MSDK/lwip/lwip-2.1.2/src/core/ipv4\ip4_addr.c **** 
 115:C:/Users/stapi/OneDrive/Desktop/GD32VW553/V1_MQTT_OK/GD32VW55X_Wifi_BLE_SDK/GD32VW55x_RELEASE_V1.0.2/MSDK/lwip/lwip-2.1.2/src/core/ipv4\ip4_addr.c **** /**
 116:C:/Users/stapi/OneDrive/Desktop/GD32VW553/V1_MQTT_OK/GD32VW55X_Wifi_BLE_SDK/GD32VW55x_RELEASE_V1.0.2/MSDK/lwip/lwip-2.1.2/src/core/ipv4\ip4_addr.c ****  * Ascii internet address interpretation routine.
 117:C:/Users/stapi/OneDrive/Desktop/GD32VW553/V1_MQTT_OK/GD32VW55X_Wifi_BLE_SDK/GD32VW55x_RELEASE_V1.0.2/MSDK/lwip/lwip-2.1.2/src/core/ipv4\ip4_addr.c ****  * The value returned is in network order.
 118:C:/Users/stapi/OneDrive/Desktop/GD32VW553/V1_MQTT_OK/GD32VW55X_Wifi_BLE_SDK/GD32VW55x_RELEASE_V1.0.2/MSDK/lwip/lwip-2.1.2/src/core/ipv4\ip4_addr.c ****  *
 119:C:/Users/stapi/OneDrive/Desktop/GD32VW553/V1_MQTT_OK/GD32VW55X_Wifi_BLE_SDK/GD32VW55x_RELEASE_V1.0.2/MSDK/lwip/lwip-2.1.2/src/core/ipv4\ip4_addr.c ****  * @param cp IP address in ascii representation (e.g. "127.0.0.1")
 120:C:/Users/stapi/OneDrive/Desktop/GD32VW553/V1_MQTT_OK/GD32VW55X_Wifi_BLE_SDK/GD32VW55x_RELEASE_V1.0.2/MSDK/lwip/lwip-2.1.2/src/core/ipv4\ip4_addr.c ****  * @return ip address in network order
 121:C:/Users/stapi/OneDrive/Desktop/GD32VW553/V1_MQTT_OK/GD32VW55X_Wifi_BLE_SDK/GD32VW55x_RELEASE_V1.0.2/MSDK/lwip/lwip-2.1.2/src/core/ipv4\ip4_addr.c ****  */
 122:C:/Users/stapi/OneDrive/Desktop/GD32VW553/V1_MQTT_OK/GD32VW55X_Wifi_BLE_SDK/GD32VW55x_RELEASE_V1.0.2/MSDK/lwip/lwip-2.1.2/src/core/ipv4\ip4_addr.c **** u32_t
 123:C:/Users/stapi/OneDrive/Desktop/GD32VW553/V1_MQTT_OK/GD32VW55X_Wifi_BLE_SDK/GD32VW55x_RELEASE_V1.0.2/MSDK/lwip/lwip-2.1.2/src/core/ipv4\ip4_addr.c **** ipaddr_addr(const char *cp)
 124:C:/Users/stapi/OneDrive/Desktop/GD32VW553/V1_MQTT_OK/GD32VW55X_Wifi_BLE_SDK/GD32VW55x_RELEASE_V1.0.2/MSDK/lwip/lwip-2.1.2/src/core/ipv4\ip4_addr.c **** {
 125:C:/Users/stapi/OneDrive/Desktop/GD32VW553/V1_MQTT_OK/GD32VW55X_Wifi_BLE_SDK/GD32VW55x_RELEASE_V1.0.2/MSDK/lwip/lwip-2.1.2/src/core/ipv4\ip4_addr.c ****   ip4_addr_t val;
 126:C:/Users/stapi/OneDrive/Desktop/GD32VW553/V1_MQTT_OK/GD32VW55X_Wifi_BLE_SDK/GD32VW55x_RELEASE_V1.0.2/MSDK/lwip/lwip-2.1.2/src/core/ipv4\ip4_addr.c **** 
 127:C:/Users/stapi/OneDrive/Desktop/GD32VW553/V1_MQTT_OK/GD32VW55X_Wifi_BLE_SDK/GD32VW55x_RELEASE_V1.0.2/MSDK/lwip/lwip-2.1.2/src/core/ipv4\ip4_addr.c ****   if (ip4addr_aton(cp, &val)) {
 128:C:/Users/stapi/OneDrive/Desktop/GD32VW553/V1_MQTT_OK/GD32VW55X_Wifi_BLE_SDK/GD32VW55x_RELEASE_V1.0.2/MSDK/lwip/lwip-2.1.2/src/core/ipv4\ip4_addr.c ****     return ip4_addr_get_u32(&val);
 129:C:/Users/stapi/OneDrive/Desktop/GD32VW553/V1_MQTT_OK/GD32VW55X_Wifi_BLE_SDK/GD32VW55x_RELEASE_V1.0.2/MSDK/lwip/lwip-2.1.2/src/core/ipv4\ip4_addr.c ****   }
 130:C:/Users/stapi/OneDrive/Desktop/GD32VW553/V1_MQTT_OK/GD32VW55X_Wifi_BLE_SDK/GD32VW55x_RELEASE_V1.0.2/MSDK/lwip/lwip-2.1.2/src/core/ipv4\ip4_addr.c ****   return (IPADDR_NONE);
 131:C:/Users/stapi/OneDrive/Desktop/GD32VW553/V1_MQTT_OK/GD32VW55X_Wifi_BLE_SDK/GD32VW55x_RELEASE_V1.0.2/MSDK/lwip/lwip-2.1.2/src/core/ipv4\ip4_addr.c **** }
 132:C:/Users/stapi/OneDrive/Desktop/GD32VW553/V1_MQTT_OK/GD32VW55X_Wifi_BLE_SDK/GD32VW55x_RELEASE_V1.0.2/MSDK/lwip/lwip-2.1.2/src/core/ipv4\ip4_addr.c **** 
 133:C:/Users/stapi/OneDrive/Desktop/GD32VW553/V1_MQTT_OK/GD32VW55X_Wifi_BLE_SDK/GD32VW55x_RELEASE_V1.0.2/MSDK/lwip/lwip-2.1.2/src/core/ipv4\ip4_addr.c **** /**
 134:C:/Users/stapi/OneDrive/Desktop/GD32VW553/V1_MQTT_OK/GD32VW55X_Wifi_BLE_SDK/GD32VW55x_RELEASE_V1.0.2/MSDK/lwip/lwip-2.1.2/src/core/ipv4\ip4_addr.c ****  * Check whether "cp" is a valid ascii representation
 135:C:/Users/stapi/OneDrive/Desktop/GD32VW553/V1_MQTT_OK/GD32VW55X_Wifi_BLE_SDK/GD32VW55x_RELEASE_V1.0.2/MSDK/lwip/lwip-2.1.2/src/core/ipv4\ip4_addr.c ****  * of an Internet address and convert to a binary address.
 136:C:/Users/stapi/OneDrive/Desktop/GD32VW553/V1_MQTT_OK/GD32VW55X_Wifi_BLE_SDK/GD32VW55x_RELEASE_V1.0.2/MSDK/lwip/lwip-2.1.2/src/core/ipv4\ip4_addr.c ****  * Returns 1 if the address is valid, 0 if not.
 137:C:/Users/stapi/OneDrive/Desktop/GD32VW553/V1_MQTT_OK/GD32VW55X_Wifi_BLE_SDK/GD32VW55x_RELEASE_V1.0.2/MSDK/lwip/lwip-2.1.2/src/core/ipv4\ip4_addr.c ****  * This replaces inet_addr, the return value from which
 138:C:/Users/stapi/OneDrive/Desktop/GD32VW553/V1_MQTT_OK/GD32VW55X_Wifi_BLE_SDK/GD32VW55x_RELEASE_V1.0.2/MSDK/lwip/lwip-2.1.2/src/core/ipv4\ip4_addr.c ****  * cannot distinguish between failure and a local broadcast address.
 139:C:/Users/stapi/OneDrive/Desktop/GD32VW553/V1_MQTT_OK/GD32VW55X_Wifi_BLE_SDK/GD32VW55x_RELEASE_V1.0.2/MSDK/lwip/lwip-2.1.2/src/core/ipv4\ip4_addr.c ****  *
 140:C:/Users/stapi/OneDrive/Desktop/GD32VW553/V1_MQTT_OK/GD32VW55X_Wifi_BLE_SDK/GD32VW55x_RELEASE_V1.0.2/MSDK/lwip/lwip-2.1.2/src/core/ipv4\ip4_addr.c ****  * @param cp IP address in ascii representation (e.g. "127.0.0.1")
 141:C:/Users/stapi/OneDrive/Desktop/GD32VW553/V1_MQTT_OK/GD32VW55X_Wifi_BLE_SDK/GD32VW55x_RELEASE_V1.0.2/MSDK/lwip/lwip-2.1.2/src/core/ipv4\ip4_addr.c ****  * @param addr pointer to which to save the ip address in network order
 142:C:/Users/stapi/OneDrive/Desktop/GD32VW553/V1_MQTT_OK/GD32VW55X_Wifi_BLE_SDK/GD32VW55x_RELEASE_V1.0.2/MSDK/lwip/lwip-2.1.2/src/core/ipv4\ip4_addr.c ****  * @return 1 if cp could be converted to addr, 0 on failure
 143:C:/Users/stapi/OneDrive/Desktop/GD32VW553/V1_MQTT_OK/GD32VW55X_Wifi_BLE_SDK/GD32VW55x_RELEASE_V1.0.2/MSDK/lwip/lwip-2.1.2/src/core/ipv4\ip4_addr.c ****  */
 144:C:/Users/stapi/OneDrive/Desktop/GD32VW553/V1_MQTT_OK/GD32VW55X_Wifi_BLE_SDK/GD32VW55x_RELEASE_V1.0.2/MSDK/lwip/lwip-2.1.2/src/core/ipv4\ip4_addr.c **** int
 145:C:/Users/stapi/OneDrive/Desktop/GD32VW553/V1_MQTT_OK/GD32VW55X_Wifi_BLE_SDK/GD32VW55x_RELEASE_V1.0.2/MSDK/lwip/lwip-2.1.2/src/core/ipv4\ip4_addr.c **** ip4addr_aton(const char *cp, ip4_addr_t *addr)
 146:C:/Users/stapi/OneDrive/Desktop/GD32VW553/V1_MQTT_OK/GD32VW55X_Wifi_BLE_SDK/GD32VW55x_RELEASE_V1.0.2/MSDK/lwip/lwip-2.1.2/src/core/ipv4\ip4_addr.c **** {
 158              		.loc 1 146 1 is_stmt 1
 159              		.cfi_startproc
 160              	.LVL12:
 161 0000 17030000 		call	t0,__riscv_save_2
 161      E7020300 
 162              		.cfi_offset 9, -12
 163              		.cfi_offset 8, -8
 164              		.cfi_offset 1, -4
 165              		.cfi_def_cfa_offset 16
 147:C:/Users/stapi/OneDrive/Desktop/GD32VW553/V1_MQTT_OK/GD32VW55X_Wifi_BLE_SDK/GD32VW55x_RELEASE_V1.0.2/MSDK/lwip/lwip-2.1.2/src/core/ipv4\ip4_addr.c ****   u32_t val;
 166              		.loc 1 147 3
 148:C:/Users/stapi/OneDrive/Desktop/GD32VW553/V1_MQTT_OK/GD32VW55X_Wifi_BLE_SDK/GD32VW55x_RELEASE_V1.0.2/MSDK/lwip/lwip-2.1.2/src/core/ipv4\ip4_addr.c ****   u8_t base;
 167              		.loc 1 148 3
 149:C:/Users/stapi/OneDrive/Desktop/GD32VW553/V1_MQTT_OK/GD32VW55X_Wifi_BLE_SDK/GD32VW55x_RELEASE_V1.0.2/MSDK/lwip/lwip-2.1.2/src/core/ipv4\ip4_addr.c ****   char c;
 168              		.loc 1 149 3
 150:C:/Users/stapi/OneDrive/Desktop/GD32VW553/V1_MQTT_OK/GD32VW55X_Wifi_BLE_SDK/GD32VW55x_RELEASE_V1.0.2/MSDK/lwip/lwip-2.1.2/src/core/ipv4\ip4_addr.c ****   u32_t parts[4];
 169              		.loc 1 150 3
 151:C:/Users/stapi/OneDrive/Desktop/GD32VW553/V1_MQTT_OK/GD32VW55X_Wifi_BLE_SDK/GD32VW55x_RELEASE_V1.0.2/MSDK/lwip/lwip-2.1.2/src/core/ipv4\ip4_addr.c ****   u32_t *pp = parts;
 170              		.loc 1 151 3
 146:C:/Users/stapi/OneDrive/Desktop/GD32VW553/V1_MQTT_OK/GD32VW55X_Wifi_BLE_SDK/GD32VW55x_RELEASE_V1.0.2/MSDK/lwip/lwip-2.1.2/src/core/ipv4\ip4_addr.c ****   u32_t val;
 171              		.loc 1 146 1 is_stmt 0
 172 0008 4111     		addi	sp,sp,-16
 173              		.cfi_def_cfa_offset 32
 174              	.LVL13:
 152:C:/Users/stapi/OneDrive/Desktop/GD32VW553/V1_MQTT_OK/GD32VW55X_Wifi_BLE_SDK/GD32VW55x_RELEASE_V1.0.2/MSDK/lwip/lwip-2.1.2/src/core/ipv4\ip4_addr.c **** 
 153:C:/Users/stapi/OneDrive/Desktop/GD32VW553/V1_MQTT_OK/GD32VW55X_Wifi_BLE_SDK/GD32VW55x_RELEASE_V1.0.2/MSDK/lwip/lwip-2.1.2/src/core/ipv4\ip4_addr.c ****   c = *cp;
 175              		.loc 1 153 3 is_stmt 1
 146:C:/Users/stapi/OneDrive/Desktop/GD32VW553/V1_MQTT_OK/GD32VW55X_Wifi_BLE_SDK/GD32VW55x_RELEASE_V1.0.2/MSDK/lwip/lwip-2.1.2/src/core/ipv4\ip4_addr.c ****   u32_t val;
 176              		.loc 1 146 1 is_stmt 0
 177 000a AE84     		mv	s1,a1
 151:C:/Users/stapi/OneDrive/Desktop/GD32VW553/V1_MQTT_OK/GD32VW55X_Wifi_BLE_SDK/GD32VW55x_RELEASE_V1.0.2/MSDK/lwip/lwip-2.1.2/src/core/ipv4\ip4_addr.c **** 
 178              		.loc 1 151 10
 179 000c 0A84     		mv	s0,sp
 154:C:/Users/stapi/OneDrive/Desktop/GD32VW553/V1_MQTT_OK/GD32VW55X_Wifi_BLE_SDK/GD32VW55x_RELEASE_V1.0.2/MSDK/lwip/lwip-2.1.2/src/core/ipv4\ip4_addr.c ****   for (;;) {
 155:C:/Users/stapi/OneDrive/Desktop/GD32VW553/V1_MQTT_OK/GD32VW55X_Wifi_BLE_SDK/GD32VW55x_RELEASE_V1.0.2/MSDK/lwip/lwip-2.1.2/src/core/ipv4\ip4_addr.c ****     /*
 156:C:/Users/stapi/OneDrive/Desktop/GD32VW553/V1_MQTT_OK/GD32VW55X_Wifi_BLE_SDK/GD32VW55x_RELEASE_V1.0.2/MSDK/lwip/lwip-2.1.2/src/core/ipv4\ip4_addr.c ****      * Collect number up to ``.''.
 157:C:/Users/stapi/OneDrive/Desktop/GD32VW553/V1_MQTT_OK/GD32VW55X_Wifi_BLE_SDK/GD32VW55x_RELEASE_V1.0.2/MSDK/lwip/lwip-2.1.2/src/core/ipv4\ip4_addr.c ****      * Values are specified as for C:
 158:C:/Users/stapi/OneDrive/Desktop/GD32VW553/V1_MQTT_OK/GD32VW55X_Wifi_BLE_SDK/GD32VW55x_RELEASE_V1.0.2/MSDK/lwip/lwip-2.1.2/src/core/ipv4\ip4_addr.c ****      * 0x=hex, 0=octal, 1-9=decimal.
 159:C:/Users/stapi/OneDrive/Desktop/GD32VW553/V1_MQTT_OK/GD32VW55X_Wifi_BLE_SDK/GD32VW55x_RELEASE_V1.0.2/MSDK/lwip/lwip-2.1.2/src/core/ipv4\ip4_addr.c ****      */
 160:C:/Users/stapi/OneDrive/Desktop/GD32VW553/V1_MQTT_OK/GD32VW55X_Wifi_BLE_SDK/GD32VW55x_RELEASE_V1.0.2/MSDK/lwip/lwip-2.1.2/src/core/ipv4\ip4_addr.c ****     if (!lwip_isdigit(c)) {
 180              		.loc 1 160 10
 181 000e B7050000 		lui	a1,%hi(_ctype_+1)
 182              	.LVL14:
 183 0012 A288     		mv	a7,s0
 184 0014 93851500 		addi	a1,a1,%lo(_ctype_+1)
 161:C:/Users/stapi/OneDrive/Desktop/GD32VW553/V1_MQTT_OK/GD32VW55X_Wifi_BLE_SDK/GD32VW55x_RELEASE_V1.0.2/MSDK/lwip/lwip-2.1.2/src/core/ipv4\ip4_addr.c ****       return 0;
 162:C:/Users/stapi/OneDrive/Desktop/GD32VW553/V1_MQTT_OK/GD32VW55X_Wifi_BLE_SDK/GD32VW55x_RELEASE_V1.0.2/MSDK/lwip/lwip-2.1.2/src/core/ipv4\ip4_addr.c ****     }
 163:C:/Users/stapi/OneDrive/Desktop/GD32VW553/V1_MQTT_OK/GD32VW55X_Wifi_BLE_SDK/GD32VW55x_RELEASE_V1.0.2/MSDK/lwip/lwip-2.1.2/src/core/ipv4\ip4_addr.c ****     val = 0;
 164:C:/Users/stapi/OneDrive/Desktop/GD32VW553/V1_MQTT_OK/GD32VW55X_Wifi_BLE_SDK/GD32VW55x_RELEASE_V1.0.2/MSDK/lwip/lwip-2.1.2/src/core/ipv4\ip4_addr.c ****     base = 10;
 165:C:/Users/stapi/OneDrive/Desktop/GD32VW553/V1_MQTT_OK/GD32VW55X_Wifi_BLE_SDK/GD32VW55x_RELEASE_V1.0.2/MSDK/lwip/lwip-2.1.2/src/core/ipv4\ip4_addr.c ****     if (c == '0') {
 185              		.loc 1 165 8
 186 0018 13030003 		li	t1,48
 166:C:/Users/stapi/OneDrive/Desktop/GD32VW553/V1_MQTT_OK/GD32VW55X_Wifi_BLE_SDK/GD32VW55x_RELEASE_V1.0.2/MSDK/lwip/lwip-2.1.2/src/core/ipv4\ip4_addr.c ****       c = *++cp;
 167:C:/Users/stapi/OneDrive/Desktop/GD32VW553/V1_MQTT_OK/GD32VW55X_Wifi_BLE_SDK/GD32VW55x_RELEASE_V1.0.2/MSDK/lwip/lwip-2.1.2/src/core/ipv4\ip4_addr.c ****       if (c == 'x' || c == 'X') {
 187              		.loc 1 167 20
 188 001c 130E8005 		li	t3,88
 168:C:/Users/stapi/OneDrive/Desktop/GD32VW553/V1_MQTT_OK/GD32VW55X_Wifi_BLE_SDK/GD32VW55x_RELEASE_V1.0.2/MSDK/lwip/lwip-2.1.2/src/core/ipv4\ip4_addr.c ****         base = 16;
 189              		.loc 1 168 14
 190 0020 C14E     		li	t4,16
 169:C:/Users/stapi/OneDrive/Desktop/GD32VW553/V1_MQTT_OK/GD32VW55X_Wifi_BLE_SDK/GD32VW55x_RELEASE_V1.0.2/MSDK/lwip/lwip-2.1.2/src/core/ipv4\ip4_addr.c ****         c = *++cp;
 170:C:/Users/stapi/OneDrive/Desktop/GD32VW553/V1_MQTT_OK/GD32VW55X_Wifi_BLE_SDK/GD32VW55x_RELEASE_V1.0.2/MSDK/lwip/lwip-2.1.2/src/core/ipv4\ip4_addr.c ****       } else {
 171:C:/Users/stapi/OneDrive/Desktop/GD32VW553/V1_MQTT_OK/GD32VW55X_Wifi_BLE_SDK/GD32VW55x_RELEASE_V1.0.2/MSDK/lwip/lwip-2.1.2/src/core/ipv4\ip4_addr.c ****         base = 8;
 172:C:/Users/stapi/OneDrive/Desktop/GD32VW553/V1_MQTT_OK/GD32VW55X_Wifi_BLE_SDK/GD32VW55x_RELEASE_V1.0.2/MSDK/lwip/lwip-2.1.2/src/core/ipv4\ip4_addr.c ****       }
 173:C:/Users/stapi/OneDrive/Desktop/GD32VW553/V1_MQTT_OK/GD32VW55X_Wifi_BLE_SDK/GD32VW55x_RELEASE_V1.0.2/MSDK/lwip/lwip-2.1.2/src/core/ipv4\ip4_addr.c ****     }
 174:C:/Users/stapi/OneDrive/Desktop/GD32VW553/V1_MQTT_OK/GD32VW55X_Wifi_BLE_SDK/GD32VW55x_RELEASE_V1.0.2/MSDK/lwip/lwip-2.1.2/src/core/ipv4\ip4_addr.c ****     for (;;) {
 175:C:/Users/stapi/OneDrive/Desktop/GD32VW553/V1_MQTT_OK/GD32VW55X_Wifi_BLE_SDK/GD32VW55x_RELEASE_V1.0.2/MSDK/lwip/lwip-2.1.2/src/core/ipv4\ip4_addr.c ****       if (lwip_isdigit(c)) {
 176:C:/Users/stapi/OneDrive/Desktop/GD32VW553/V1_MQTT_OK/GD32VW55X_Wifi_BLE_SDK/GD32VW55x_RELEASE_V1.0.2/MSDK/lwip/lwip-2.1.2/src/core/ipv4\ip4_addr.c ****         val = (val * base) + (u32_t)(c - '0');
 177:C:/Users/stapi/OneDrive/Desktop/GD32VW553/V1_MQTT_OK/GD32VW55X_Wifi_BLE_SDK/GD32VW55x_RELEASE_V1.0.2/MSDK/lwip/lwip-2.1.2/src/core/ipv4\ip4_addr.c ****         c = *++cp;
 178:C:/Users/stapi/OneDrive/Desktop/GD32VW553/V1_MQTT_OK/GD32VW55X_Wifi_BLE_SDK/GD32VW55x_RELEASE_V1.0.2/MSDK/lwip/lwip-2.1.2/src/core/ipv4\ip4_addr.c ****       } else if (base == 16 && lwip_isxdigit(c)) {
 179:C:/Users/stapi/OneDrive/Desktop/GD32VW553/V1_MQTT_OK/GD32VW55X_Wifi_BLE_SDK/GD32VW55x_RELEASE_V1.0.2/MSDK/lwip/lwip-2.1.2/src/core/ipv4\ip4_addr.c ****         val = (val << 4) | (u32_t)(c + 10 - (lwip_islower(c) ? 'a' : 'A'));
 191              		.loc 1 179 68
 192 0022 094F     		li	t5,2
 180:C:/Users/stapi/OneDrive/Desktop/GD32VW553/V1_MQTT_OK/GD32VW55X_Wifi_BLE_SDK/GD32VW55x_RELEASE_V1.0.2/MSDK/lwip/lwip-2.1.2/src/core/ipv4\ip4_addr.c ****         c = *++cp;
 181:C:/Users/stapi/OneDrive/Desktop/GD32VW553/V1_MQTT_OK/GD32VW55X_Wifi_BLE_SDK/GD32VW55x_RELEASE_V1.0.2/MSDK/lwip/lwip-2.1.2/src/core/ipv4\ip4_addr.c ****       } else {
 182:C:/Users/stapi/OneDrive/Desktop/GD32VW553/V1_MQTT_OK/GD32VW55X_Wifi_BLE_SDK/GD32VW55x_RELEASE_V1.0.2/MSDK/lwip/lwip-2.1.2/src/core/ipv4\ip4_addr.c ****         break;
 183:C:/Users/stapi/OneDrive/Desktop/GD32VW553/V1_MQTT_OK/GD32VW55X_Wifi_BLE_SDK/GD32VW55x_RELEASE_V1.0.2/MSDK/lwip/lwip-2.1.2/src/core/ipv4\ip4_addr.c ****       }
 184:C:/Users/stapi/OneDrive/Desktop/GD32VW553/V1_MQTT_OK/GD32VW55X_Wifi_BLE_SDK/GD32VW55x_RELEASE_V1.0.2/MSDK/lwip/lwip-2.1.2/src/core/ipv4\ip4_addr.c ****     }
 185:C:/Users/stapi/OneDrive/Desktop/GD32VW553/V1_MQTT_OK/GD32VW55X_Wifi_BLE_SDK/GD32VW55x_RELEASE_V1.0.2/MSDK/lwip/lwip-2.1.2/src/core/ipv4\ip4_addr.c ****     if (c == '.') {
 193              		.loc 1 185 8
 194 0024 930FE002 		li	t6,46
 186:C:/Users/stapi/OneDrive/Desktop/GD32VW553/V1_MQTT_OK/GD32VW55X_Wifi_BLE_SDK/GD32VW55x_RELEASE_V1.0.2/MSDK/lwip/lwip-2.1.2/src/core/ipv4\ip4_addr.c ****       /*
 187:C:/Users/stapi/OneDrive/Desktop/GD32VW553/V1_MQTT_OK/GD32VW55X_Wifi_BLE_SDK/GD32VW55x_RELEASE_V1.0.2/MSDK/lwip/lwip-2.1.2/src/core/ipv4\ip4_addr.c ****        * Internet format:
 188:C:/Users/stapi/OneDrive/Desktop/GD32VW553/V1_MQTT_OK/GD32VW55X_Wifi_BLE_SDK/GD32VW55x_RELEASE_V1.0.2/MSDK/lwip/lwip-2.1.2/src/core/ipv4\ip4_addr.c ****        *  a.b.c.d
 189:C:/Users/stapi/OneDrive/Desktop/GD32VW553/V1_MQTT_OK/GD32VW55X_Wifi_BLE_SDK/GD32VW55x_RELEASE_V1.0.2/MSDK/lwip/lwip-2.1.2/src/core/ipv4\ip4_addr.c ****        *  a.b.c   (with c treated as 16 bits)
 190:C:/Users/stapi/OneDrive/Desktop/GD32VW553/V1_MQTT_OK/GD32VW55X_Wifi_BLE_SDK/GD32VW55x_RELEASE_V1.0.2/MSDK/lwip/lwip-2.1.2/src/core/ipv4\ip4_addr.c ****        *  a.b (with b treated as 24 bits)
 191:C:/Users/stapi/OneDrive/Desktop/GD32VW553/V1_MQTT_OK/GD32VW55X_Wifi_BLE_SDK/GD32VW55x_RELEASE_V1.0.2/MSDK/lwip/lwip-2.1.2/src/core/ipv4\ip4_addr.c ****        */
 192:C:/Users/stapi/OneDrive/Desktop/GD32VW553/V1_MQTT_OK/GD32VW55X_Wifi_BLE_SDK/GD32VW55x_RELEASE_V1.0.2/MSDK/lwip/lwip-2.1.2/src/core/ipv4\ip4_addr.c ****       if (pp >= parts + 3) {
 195              		.loc 1 192 10
 196 0028 9302C100 		addi	t0,sp,12
 153:C:/Users/stapi/OneDrive/Desktop/GD32VW553/V1_MQTT_OK/GD32VW55X_Wifi_BLE_SDK/GD32VW55x_RELEASE_V1.0.2/MSDK/lwip/lwip-2.1.2/src/core/ipv4\ip4_addr.c ****   for (;;) {
 197              		.loc 1 153 5
 198 002c 83070500 		lb	a5,0(a0)
 199              	.LVL15:
 200              	.L30:
 154:C:/Users/stapi/OneDrive/Desktop/GD32VW553/V1_MQTT_OK/GD32VW55X_Wifi_BLE_SDK/GD32VW55x_RELEASE_V1.0.2/MSDK/lwip/lwip-2.1.2/src/core/ipv4\ip4_addr.c ****     /*
 201              		.loc 1 154 3 is_stmt 1
 160:C:/Users/stapi/OneDrive/Desktop/GD32VW553/V1_MQTT_OK/GD32VW55X_Wifi_BLE_SDK/GD32VW55x_RELEASE_V1.0.2/MSDK/lwip/lwip-2.1.2/src/core/ipv4\ip4_addr.c ****       return 0;
 202              		.loc 1 160 5
 160:C:/Users/stapi/OneDrive/Desktop/GD32VW553/V1_MQTT_OK/GD32VW55X_Wifi_BLE_SDK/GD32VW55x_RELEASE_V1.0.2/MSDK/lwip/lwip-2.1.2/src/core/ipv4\ip4_addr.c ****       return 0;
 203              		.loc 1 160 10 is_stmt 0
 204 0030 13F7F70F 		andi	a4,a5,0xff
 205 0034 2E97     		add	a4,a4,a1
 160:C:/Users/stapi/OneDrive/Desktop/GD32VW553/V1_MQTT_OK/GD32VW55X_Wifi_BLE_SDK/GD32VW55x_RELEASE_V1.0.2/MSDK/lwip/lwip-2.1.2/src/core/ipv4\ip4_addr.c ****       return 0;
 206              		.loc 1 160 8
 207 0036 03470700 		lbu	a4,0(a4)
 208 003a 118B     		andi	a4,a4,4
 209 003c 63080714 		beq	a4,zero,.L43
 163:C:/Users/stapi/OneDrive/Desktop/GD32VW553/V1_MQTT_OK/GD32VW55X_Wifi_BLE_SDK/GD32VW55x_RELEASE_V1.0.2/MSDK/lwip/lwip-2.1.2/src/core/ipv4\ip4_addr.c ****     base = 10;
 210              		.loc 1 163 5 is_stmt 1
 211              	.LVL16:
 164:C:/Users/stapi/OneDrive/Desktop/GD32VW553/V1_MQTT_OK/GD32VW55X_Wifi_BLE_SDK/GD32VW55x_RELEASE_V1.0.2/MSDK/lwip/lwip-2.1.2/src/core/ipv4\ip4_addr.c ****     if (c == '0') {
 212              		.loc 1 164 5
 165:C:/Users/stapi/OneDrive/Desktop/GD32VW553/V1_MQTT_OK/GD32VW55X_Wifi_BLE_SDK/GD32VW55x_RELEASE_V1.0.2/MSDK/lwip/lwip-2.1.2/src/core/ipv4\ip4_addr.c ****       c = *++cp;
 213              		.loc 1 165 5
 164:C:/Users/stapi/OneDrive/Desktop/GD32VW553/V1_MQTT_OK/GD32VW55X_Wifi_BLE_SDK/GD32VW55x_RELEASE_V1.0.2/MSDK/lwip/lwip-2.1.2/src/core/ipv4\ip4_addr.c ****     if (c == '0') {
 214              		.loc 1 164 10 is_stmt 0
 215 0040 2946     		li	a2,10
 165:C:/Users/stapi/OneDrive/Desktop/GD32VW553/V1_MQTT_OK/GD32VW55X_Wifi_BLE_SDK/GD32VW55x_RELEASE_V1.0.2/MSDK/lwip/lwip-2.1.2/src/core/ipv4\ip4_addr.c ****       c = *++cp;
 216              		.loc 1 165 8
 217 0042 639A6700 		bne	a5,t1,.L22
 166:C:/Users/stapi/OneDrive/Desktop/GD32VW553/V1_MQTT_OK/GD32VW55X_Wifi_BLE_SDK/GD32VW55x_RELEASE_V1.0.2/MSDK/lwip/lwip-2.1.2/src/core/ipv4\ip4_addr.c ****       if (c == 'x' || c == 'X') {
 218              		.loc 1 166 7 is_stmt 1
 219              	.LVL17:
 166:C:/Users/stapi/OneDrive/Desktop/GD32VW553/V1_MQTT_OK/GD32VW55X_Wifi_BLE_SDK/GD32VW55x_RELEASE_V1.0.2/MSDK/lwip/lwip-2.1.2/src/core/ipv4\ip4_addr.c ****       if (c == 'x' || c == 'X') {
 220              		.loc 1 166 9 is_stmt 0
 221 0046 83071500 		lb	a5,1(a0)
 222              	.LVL18:
 167:C:/Users/stapi/OneDrive/Desktop/GD32VW553/V1_MQTT_OK/GD32VW55X_Wifi_BLE_SDK/GD32VW55x_RELEASE_V1.0.2/MSDK/lwip/lwip-2.1.2/src/core/ipv4\ip4_addr.c ****         base = 16;
 223              		.loc 1 167 7 is_stmt 1
 167:C:/Users/stapi/OneDrive/Desktop/GD32VW553/V1_MQTT_OK/GD32VW55X_Wifi_BLE_SDK/GD32VW55x_RELEASE_V1.0.2/MSDK/lwip/lwip-2.1.2/src/core/ipv4\ip4_addr.c ****         base = 16;
 224              		.loc 1 167 20 is_stmt 0
 225 004a 13F7F7FD 		andi	a4,a5,-33
 226 004e 630AC703 		beq	a4,t3,.L23
 166:C:/Users/stapi/OneDrive/Desktop/GD32VW553/V1_MQTT_OK/GD32VW55X_Wifi_BLE_SDK/GD32VW55x_RELEASE_V1.0.2/MSDK/lwip/lwip-2.1.2/src/core/ipv4\ip4_addr.c ****       if (c == 'x' || c == 'X') {
 227              		.loc 1 166 9
 228 0052 0505     		addi	a0,a0,1
 229              	.LVL19:
 171:C:/Users/stapi/OneDrive/Desktop/GD32VW553/V1_MQTT_OK/GD32VW55X_Wifi_BLE_SDK/GD32VW55x_RELEASE_V1.0.2/MSDK/lwip/lwip-2.1.2/src/core/ipv4\ip4_addr.c ****       }
 230              		.loc 1 171 14
 231 0054 2146     		li	a2,8
 232              	.LVL20:
 233              	.L22:
 234 0056 13071500 		addi	a4,a0,1
 164:C:/Users/stapi/OneDrive/Desktop/GD32VW553/V1_MQTT_OK/GD32VW55X_Wifi_BLE_SDK/GD32VW55x_RELEASE_V1.0.2/MSDK/lwip/lwip-2.1.2/src/core/ipv4\ip4_addr.c ****     if (c == '0') {
 235              		.loc 1 164 10
 236 005a 0145     		li	a0,0
 237              	.LVL21:
 238              	.L24:
 175:C:/Users/stapi/OneDrive/Desktop/GD32VW553/V1_MQTT_OK/GD32VW55X_Wifi_BLE_SDK/GD32VW55x_RELEASE_V1.0.2/MSDK/lwip/lwip-2.1.2/src/core/ipv4\ip4_addr.c ****         val = (val * base) + (u32_t)(c - '0');
 239              		.loc 1 175 11
 240 005c 93F6F70F 		andi	a3,a5,0xff
 241 0060 AE96     		add	a3,a1,a3
 242 0062 83C60600 		lbu	a3,0(a3)
 243 0066 1308F7FF 		addi	a6,a4,-1
 244              	.LVL22:
 174:C:/Users/stapi/OneDrive/Desktop/GD32VW553/V1_MQTT_OK/GD32VW55X_Wifi_BLE_SDK/GD32VW55x_RELEASE_V1.0.2/MSDK/lwip/lwip-2.1.2/src/core/ipv4\ip4_addr.c ****       if (lwip_isdigit(c)) {
 245              		.loc 1 174 5 is_stmt 1
 175:C:/Users/stapi/OneDrive/Desktop/GD32VW553/V1_MQTT_OK/GD32VW55X_Wifi_BLE_SDK/GD32VW55x_RELEASE_V1.0.2/MSDK/lwip/lwip-2.1.2/src/core/ipv4\ip4_addr.c ****         val = (val * base) + (u32_t)(c - '0');
 246              		.loc 1 175 7
 175:C:/Users/stapi/OneDrive/Desktop/GD32VW553/V1_MQTT_OK/GD32VW55X_Wifi_BLE_SDK/GD32VW55x_RELEASE_V1.0.2/MSDK/lwip/lwip-2.1.2/src/core/ipv4\ip4_addr.c ****         val = (val * base) + (u32_t)(c - '0');
 247              		.loc 1 175 10 is_stmt 0
 248 006a 93F34600 		andi	t2,a3,4
 249 006e 638F0300 		beq	t2,zero,.L25
 176:C:/Users/stapi/OneDrive/Desktop/GD32VW553/V1_MQTT_OK/GD32VW55X_Wifi_BLE_SDK/GD32VW55x_RELEASE_V1.0.2/MSDK/lwip/lwip-2.1.2/src/core/ipv4\ip4_addr.c ****         c = *++cp;
 250              		.loc 1 176 9 is_stmt 1
 176:C:/Users/stapi/OneDrive/Desktop/GD32VW553/V1_MQTT_OK/GD32VW55X_Wifi_BLE_SDK/GD32VW55x_RELEASE_V1.0.2/MSDK/lwip/lwip-2.1.2/src/core/ipv4\ip4_addr.c ****         c = *++cp;
 251              		.loc 1 176 28 is_stmt 0
 252 0072 FF17A6C4 		maddr32	a5, a2, a0
 253              	.LVL23:
 176:C:/Users/stapi/OneDrive/Desktop/GD32VW553/V1_MQTT_OK/GD32VW55X_Wifi_BLE_SDK/GD32VW55x_RELEASE_V1.0.2/MSDK/lwip/lwip-2.1.2/src/core/ipv4\ip4_addr.c ****         c = *++cp;
 254              		.loc 1 176 13
 255 0076 138507FD 		addi	a0,a5,-48
 256              	.LVL24:
 177:C:/Users/stapi/OneDrive/Desktop/GD32VW553/V1_MQTT_OK/GD32VW55X_Wifi_BLE_SDK/GD32VW55x_RELEASE_V1.0.2/MSDK/lwip/lwip-2.1.2/src/core/ipv4\ip4_addr.c ****       } else if (base == 16 && lwip_isxdigit(c)) {
 257              		.loc 1 177 9 is_stmt 1
 258              	.L62:
 180:C:/Users/stapi/OneDrive/Desktop/GD32VW553/V1_MQTT_OK/GD32VW55X_Wifi_BLE_SDK/GD32VW55x_RELEASE_V1.0.2/MSDK/lwip/lwip-2.1.2/src/core/ipv4\ip4_addr.c ****       } else {
 259              		.loc 1 180 9 discriminator 4
 180:C:/Users/stapi/OneDrive/Desktop/GD32VW553/V1_MQTT_OK/GD32VW55X_Wifi_BLE_SDK/GD32VW55x_RELEASE_V1.0.2/MSDK/lwip/lwip-2.1.2/src/core/ipv4\ip4_addr.c ****       } else {
 260              		.loc 1 180 11 is_stmt 0 discriminator 4
 261 007a 83070700 		lb	a5,0(a4)
 262              	.LVL25:
 263 007e 0507     		addi	a4,a4,1
 264              	.LVL26:
 265 0080 F1BF     		j	.L24
 266              	.LVL27:
 267              	.L23:
 168:C:/Users/stapi/OneDrive/Desktop/GD32VW553/V1_MQTT_OK/GD32VW55X_Wifi_BLE_SDK/GD32VW55x_RELEASE_V1.0.2/MSDK/lwip/lwip-2.1.2/src/core/ipv4\ip4_addr.c ****         c = *++cp;
 268              		.loc 1 168 9 is_stmt 1
 169:C:/Users/stapi/OneDrive/Desktop/GD32VW553/V1_MQTT_OK/GD32VW55X_Wifi_BLE_SDK/GD32VW55x_RELEASE_V1.0.2/MSDK/lwip/lwip-2.1.2/src/core/ipv4\ip4_addr.c ****       } else {
 269              		.loc 1 169 9
 169:C:/Users/stapi/OneDrive/Desktop/GD32VW553/V1_MQTT_OK/GD32VW55X_Wifi_BLE_SDK/GD32VW55x_RELEASE_V1.0.2/MSDK/lwip/lwip-2.1.2/src/core/ipv4\ip4_addr.c ****       } else {
 270              		.loc 1 169 11 is_stmt 0
 271 0082 83072500 		lb	a5,2(a0)
 272              	.LVL28:
 168:C:/Users/stapi/OneDrive/Desktop/GD32VW553/V1_MQTT_OK/GD32VW55X_Wifi_BLE_SDK/GD32VW55x_RELEASE_V1.0.2/MSDK/lwip/lwip-2.1.2/src/core/ipv4\ip4_addr.c ****         c = *++cp;
 273              		.loc 1 168 14
 274 0086 4146     		li	a2,16
 169:C:/Users/stapi/OneDrive/Desktop/GD32VW553/V1_MQTT_OK/GD32VW55X_Wifi_BLE_SDK/GD32VW55x_RELEASE_V1.0.2/MSDK/lwip/lwip-2.1.2/src/core/ipv4\ip4_addr.c ****       } else {
 275              		.loc 1 169 11
 276 0088 0905     		addi	a0,a0,2
 277              	.LVL29:
 278 008a F1B7     		j	.L22
 279              	.LVL30:
 280              	.L25:
 178:C:/Users/stapi/OneDrive/Desktop/GD32VW553/V1_MQTT_OK/GD32VW55X_Wifi_BLE_SDK/GD32VW55x_RELEASE_V1.0.2/MSDK/lwip/lwip-2.1.2/src/core/ipv4\ip4_addr.c ****         val = (val << 4) | (u32_t)(c + 10 - (lwip_islower(c) ? 'a' : 'A'));
 281              		.loc 1 178 14 is_stmt 1
 178:C:/Users/stapi/OneDrive/Desktop/GD32VW553/V1_MQTT_OK/GD32VW55X_Wifi_BLE_SDK/GD32VW55x_RELEASE_V1.0.2/MSDK/lwip/lwip-2.1.2/src/core/ipv4\ip4_addr.c ****         val = (val << 4) | (u32_t)(c + 10 - (lwip_islower(c) ? 'a' : 'A'));
 282              		.loc 1 178 17 is_stmt 0
 283 008c 6313D603 		bne	a2,t4,.L27
 178:C:/Users/stapi/OneDrive/Desktop/GD32VW553/V1_MQTT_OK/GD32VW55X_Wifi_BLE_SDK/GD32VW55x_RELEASE_V1.0.2/MSDK/lwip/lwip-2.1.2/src/core/ipv4\ip4_addr.c ****         val = (val << 4) | (u32_t)(c + 10 - (lwip_islower(c) ? 'a' : 'A'));
 284              		.loc 1 178 29 discriminator 1
 285 0090 93F34604 		andi	t2,a3,68
 286 0094 638F0300 		beq	t2,zero,.L27
 179:C:/Users/stapi/OneDrive/Desktop/GD32VW553/V1_MQTT_OK/GD32VW55X_Wifi_BLE_SDK/GD32VW55x_RELEASE_V1.0.2/MSDK/lwip/lwip-2.1.2/src/core/ipv4\ip4_addr.c ****         c = *++cp;
 287              		.loc 1 179 9 is_stmt 1
 179:C:/Users/stapi/OneDrive/Desktop/GD32VW553/V1_MQTT_OK/GD32VW55X_Wifi_BLE_SDK/GD32VW55x_RELEASE_V1.0.2/MSDK/lwip/lwip-2.1.2/src/core/ipv4\ip4_addr.c ****         c = *++cp;
 288              		.loc 1 179 68 is_stmt 0
 289 0098 8D8A     		andi	a3,a3,3
 179:C:/Users/stapi/OneDrive/Desktop/GD32VW553/V1_MQTT_OK/GD32VW55X_Wifi_BLE_SDK/GD32VW55x_RELEASE_V1.0.2/MSDK/lwip/lwip-2.1.2/src/core/ipv4\ip4_addr.c ****         c = *++cp;
 290              		.loc 1 179 20
 291 009a 1205     		slli	a0,a0,4
 292              	.LVL31:
 179:C:/Users/stapi/OneDrive/Desktop/GD32VW553/V1_MQTT_OK/GD32VW55X_Wifi_BLE_SDK/GD32VW55x_RELEASE_V1.0.2/MSDK/lwip/lwip-2.1.2/src/core/ipv4\ip4_addr.c ****         c = *++cp;
 293              		.loc 1 179 38
 294 009c A907     		addi	a5,a5,10
 295              	.LVL32:
 179:C:/Users/stapi/OneDrive/Desktop/GD32VW553/V1_MQTT_OK/GD32VW55X_Wifi_BLE_SDK/GD32VW55x_RELEASE_V1.0.2/MSDK/lwip/lwip-2.1.2/src/core/ipv4\ip4_addr.c ****         c = *++cp;
 296              		.loc 1 179 68
 297 009e 13081006 		li	a6,97
 298              	.LVL33:
 299 00a2 6384E601 		beq	a3,t5,.L28
 300 00a6 13081004 		li	a6,65
 301              	.L28:
 179:C:/Users/stapi/OneDrive/Desktop/GD32VW553/V1_MQTT_OK/GD32VW55X_Wifi_BLE_SDK/GD32VW55x_RELEASE_V1.0.2/MSDK/lwip/lwip-2.1.2/src/core/ipv4\ip4_addr.c ****         c = *++cp;
 302              		.loc 1 179 43 discriminator 4
 303 00aa B3870741 		sub	a5,a5,a6
 179:C:/Users/stapi/OneDrive/Desktop/GD32VW553/V1_MQTT_OK/GD32VW55X_Wifi_BLE_SDK/GD32VW55x_RELEASE_V1.0.2/MSDK/lwip/lwip-2.1.2/src/core/ipv4\ip4_addr.c ****         c = *++cp;
 304              		.loc 1 179 13 discriminator 4
 305 00ae 5D8D     		or	a0,a5,a0
 306 00b0 E9B7     		j	.L62
 307              	.LVL34:
 308              	.L27:
 185:C:/Users/stapi/OneDrive/Desktop/GD32VW553/V1_MQTT_OK/GD32VW55X_Wifi_BLE_SDK/GD32VW55x_RELEASE_V1.0.2/MSDK/lwip/lwip-2.1.2/src/core/ipv4\ip4_addr.c ****       /*
 309              		.loc 1 185 5 is_stmt 1
 185:C:/Users/stapi/OneDrive/Desktop/GD32VW553/V1_MQTT_OK/GD32VW55X_Wifi_BLE_SDK/GD32VW55x_RELEASE_V1.0.2/MSDK/lwip/lwip-2.1.2/src/core/ipv4\ip4_addr.c ****       /*
 310              		.loc 1 185 8 is_stmt 0
 311 00b2 639CF701 		bne	a5,t6,.L29
 312              		.loc 1 192 7 is_stmt 1
 313              		.loc 1 192 10 is_stmt 0
 314 00b6 630B540C 		beq	s0,t0,.L43
 193:C:/Users/stapi/OneDrive/Desktop/GD32VW553/V1_MQTT_OK/GD32VW55X_Wifi_BLE_SDK/GD32VW55x_RELEASE_V1.0.2/MSDK/lwip/lwip-2.1.2/src/core/ipv4\ip4_addr.c ****         return 0;
 194:C:/Users/stapi/OneDrive/Desktop/GD32VW553/V1_MQTT_OK/GD32VW55X_Wifi_BLE_SDK/GD32VW55x_RELEASE_V1.0.2/MSDK/lwip/lwip-2.1.2/src/core/ipv4\ip4_addr.c ****       }
 195:C:/Users/stapi/OneDrive/Desktop/GD32VW553/V1_MQTT_OK/GD32VW55X_Wifi_BLE_SDK/GD32VW55x_RELEASE_V1.0.2/MSDK/lwip/lwip-2.1.2/src/core/ipv4\ip4_addr.c ****       *pp++ = val;
 315              		.loc 1 195 7 is_stmt 1
 316              		.loc 1 195 10 is_stmt 0
 317 00ba 1104     		addi	s0,s0,4
 318              	.LVL35:
 319              		.loc 1 195 13
 320 00bc 232EA4FE 		sw	a0,-4(s0)
 196:C:/Users/stapi/OneDrive/Desktop/GD32VW553/V1_MQTT_OK/GD32VW55X_Wifi_BLE_SDK/GD32VW55x_RELEASE_V1.0.2/MSDK/lwip/lwip-2.1.2/src/core/ipv4\ip4_addr.c ****       c = *++cp;
 321              		.loc 1 196 7 is_stmt 1
 322              		.loc 1 196 9 is_stmt 0
 323 00c0 83071800 		lb	a5,1(a6)
 324              	.LVL36:
 325 00c4 13051800 		addi	a0,a6,1
 326              	.LVL37:
 154:C:/Users/stapi/OneDrive/Desktop/GD32VW553/V1_MQTT_OK/GD32VW55X_Wifi_BLE_SDK/GD32VW55x_RELEASE_V1.0.2/MSDK/lwip/lwip-2.1.2/src/core/ipv4\ip4_addr.c ****     /*
 327              		.loc 1 154 9 is_stmt 1
 160:C:/Users/stapi/OneDrive/Desktop/GD32VW553/V1_MQTT_OK/GD32VW55X_Wifi_BLE_SDK/GD32VW55x_RELEASE_V1.0.2/MSDK/lwip/lwip-2.1.2/src/core/ipv4\ip4_addr.c ****       return 0;
 328              		.loc 1 160 8 is_stmt 0
 329 00c8 A5B7     		j	.L30
 330              	.LVL38:
 331              	.L29:
 197:C:/Users/stapi/OneDrive/Desktop/GD32VW553/V1_MQTT_OK/GD32VW55X_Wifi_BLE_SDK/GD32VW55x_RELEASE_V1.0.2/MSDK/lwip/lwip-2.1.2/src/core/ipv4\ip4_addr.c ****     } else {
 198:C:/Users/stapi/OneDrive/Desktop/GD32VW553/V1_MQTT_OK/GD32VW55X_Wifi_BLE_SDK/GD32VW55x_RELEASE_V1.0.2/MSDK/lwip/lwip-2.1.2/src/core/ipv4\ip4_addr.c ****       break;
 199:C:/Users/stapi/OneDrive/Desktop/GD32VW553/V1_MQTT_OK/GD32VW55X_Wifi_BLE_SDK/GD32VW55x_RELEASE_V1.0.2/MSDK/lwip/lwip-2.1.2/src/core/ipv4\ip4_addr.c ****     }
 200:C:/Users/stapi/OneDrive/Desktop/GD32VW553/V1_MQTT_OK/GD32VW55X_Wifi_BLE_SDK/GD32VW55x_RELEASE_V1.0.2/MSDK/lwip/lwip-2.1.2/src/core/ipv4\ip4_addr.c ****   }
 201:C:/Users/stapi/OneDrive/Desktop/GD32VW553/V1_MQTT_OK/GD32VW55X_Wifi_BLE_SDK/GD32VW55x_RELEASE_V1.0.2/MSDK/lwip/lwip-2.1.2/src/core/ipv4\ip4_addr.c ****   /*
 202:C:/Users/stapi/OneDrive/Desktop/GD32VW553/V1_MQTT_OK/GD32VW55X_Wifi_BLE_SDK/GD32VW55x_RELEASE_V1.0.2/MSDK/lwip/lwip-2.1.2/src/core/ipv4\ip4_addr.c ****    * Check for trailing characters.
 203:C:/Users/stapi/OneDrive/Desktop/GD32VW553/V1_MQTT_OK/GD32VW55X_Wifi_BLE_SDK/GD32VW55x_RELEASE_V1.0.2/MSDK/lwip/lwip-2.1.2/src/core/ipv4\ip4_addr.c ****    */
 204:C:/Users/stapi/OneDrive/Desktop/GD32VW553/V1_MQTT_OK/GD32VW55X_Wifi_BLE_SDK/GD32VW55x_RELEASE_V1.0.2/MSDK/lwip/lwip-2.1.2/src/core/ipv4\ip4_addr.c ****   if (c != '\0' && !lwip_isspace(c)) {
 332              		.loc 1 204 3 is_stmt 1
 333              		.loc 1 204 6 is_stmt 0
 334 00ca 99C3     		beq	a5,zero,.L31
 335              		.loc 1 204 17 discriminator 1
 336 00cc A18A     		andi	a3,a3,8
 337 00ce DDCE     		beq	a3,zero,.L43
 338              	.L31:
 205:C:/Users/stapi/OneDrive/Desktop/GD32VW553/V1_MQTT_OK/GD32VW55X_Wifi_BLE_SDK/GD32VW55x_RELEASE_V1.0.2/MSDK/lwip/lwip-2.1.2/src/core/ipv4\ip4_addr.c ****     return 0;
 206:C:/Users/stapi/OneDrive/Desktop/GD32VW553/V1_MQTT_OK/GD32VW55X_Wifi_BLE_SDK/GD32VW55x_RELEASE_V1.0.2/MSDK/lwip/lwip-2.1.2/src/core/ipv4\ip4_addr.c ****   }
 207:C:/Users/stapi/OneDrive/Desktop/GD32VW553/V1_MQTT_OK/GD32VW55X_Wifi_BLE_SDK/GD32VW55x_RELEASE_V1.0.2/MSDK/lwip/lwip-2.1.2/src/core/ipv4\ip4_addr.c ****   /*
 208:C:/Users/stapi/OneDrive/Desktop/GD32VW553/V1_MQTT_OK/GD32VW55X_Wifi_BLE_SDK/GD32VW55x_RELEASE_V1.0.2/MSDK/lwip/lwip-2.1.2/src/core/ipv4\ip4_addr.c ****    * Concoct the address according to
 209:C:/Users/stapi/OneDrive/Desktop/GD32VW553/V1_MQTT_OK/GD32VW55X_Wifi_BLE_SDK/GD32VW55x_RELEASE_V1.0.2/MSDK/lwip/lwip-2.1.2/src/core/ipv4\ip4_addr.c ****    * the number of parts specified.
 210:C:/Users/stapi/OneDrive/Desktop/GD32VW553/V1_MQTT_OK/GD32VW55X_Wifi_BLE_SDK/GD32VW55x_RELEASE_V1.0.2/MSDK/lwip/lwip-2.1.2/src/core/ipv4\ip4_addr.c ****    */
 211:C:/Users/stapi/OneDrive/Desktop/GD32VW553/V1_MQTT_OK/GD32VW55X_Wifi_BLE_SDK/GD32VW55x_RELEASE_V1.0.2/MSDK/lwip/lwip-2.1.2/src/core/ipv4\ip4_addr.c ****   switch (pp - parts + 1) {
 339              		.loc 1 211 3 is_stmt 1
 340              		.loc 1 211 14 is_stmt 0
 341 00d0 33041441 		sub	s0,s0,a7
 342              	.LVL39:
 343 00d4 0984     		srai	s0,s0,2
 344              		.loc 1 211 22
 345 00d6 0504     		addi	s0,s0,1
 346 00d8 9147     		li	a5,4
 347              	.LVL40:
 348 00da 63E68708 		bgtu	s0,a5,.L32
 349 00de B7070000 		lui	a5,%hi(.L34)
 350 00e2 93870700 		addi	a5,a5,%lo(.L34)
 351 00e6 B347F420 		sh2add	a5,s0,a5
 352 00ea 9C43     		lw	a5,0(a5)
 353 00ec 8287     		jr	a5
 354              		.section	.rodata.ip4addr_aton,"a",@progbits
 355              		.align	2
 356              		.align	2
 357              	.L34:
 358 0000 00000000 		.word	.L20
 359 0004 00000000 		.word	.L37
 360 0008 00000000 		.word	.L36
 361 000c 00000000 		.word	.L35
 362 0010 00000000 		.word	.L33
 363              		.section	.text.ip4addr_aton
 364              	.L36:
 212:C:/Users/stapi/OneDrive/Desktop/GD32VW553/V1_MQTT_OK/GD32VW55X_Wifi_BLE_SDK/GD32VW55x_RELEASE_V1.0.2/MSDK/lwip/lwip-2.1.2/src/core/ipv4\ip4_addr.c **** 
 213:C:/Users/stapi/OneDrive/Desktop/GD32VW553/V1_MQTT_OK/GD32VW55X_Wifi_BLE_SDK/GD32VW55x_RELEASE_V1.0.2/MSDK/lwip/lwip-2.1.2/src/core/ipv4\ip4_addr.c ****     case 0:
 214:C:/Users/stapi/OneDrive/Desktop/GD32VW553/V1_MQTT_OK/GD32VW55X_Wifi_BLE_SDK/GD32VW55x_RELEASE_V1.0.2/MSDK/lwip/lwip-2.1.2/src/core/ipv4\ip4_addr.c ****       return 0;       /* initial nondigit */
 215:C:/Users/stapi/OneDrive/Desktop/GD32VW553/V1_MQTT_OK/GD32VW55X_Wifi_BLE_SDK/GD32VW55x_RELEASE_V1.0.2/MSDK/lwip/lwip-2.1.2/src/core/ipv4\ip4_addr.c **** 
 216:C:/Users/stapi/OneDrive/Desktop/GD32VW553/V1_MQTT_OK/GD32VW55X_Wifi_BLE_SDK/GD32VW55x_RELEASE_V1.0.2/MSDK/lwip/lwip-2.1.2/src/core/ipv4\ip4_addr.c ****     case 1:             /* a -- 32 bits */
 217:C:/Users/stapi/OneDrive/Desktop/GD32VW553/V1_MQTT_OK/GD32VW55X_Wifi_BLE_SDK/GD32VW55x_RELEASE_V1.0.2/MSDK/lwip/lwip-2.1.2/src/core/ipv4\ip4_addr.c ****       break;
 218:C:/Users/stapi/OneDrive/Desktop/GD32VW553/V1_MQTT_OK/GD32VW55X_Wifi_BLE_SDK/GD32VW55x_RELEASE_V1.0.2/MSDK/lwip/lwip-2.1.2/src/core/ipv4\ip4_addr.c **** 
 219:C:/Users/stapi/OneDrive/Desktop/GD32VW553/V1_MQTT_OK/GD32VW55X_Wifi_BLE_SDK/GD32VW55x_RELEASE_V1.0.2/MSDK/lwip/lwip-2.1.2/src/core/ipv4\ip4_addr.c ****     case 2:             /* a.b -- 8.24 bits */
 220:C:/Users/stapi/OneDrive/Desktop/GD32VW553/V1_MQTT_OK/GD32VW55X_Wifi_BLE_SDK/GD32VW55x_RELEASE_V1.0.2/MSDK/lwip/lwip-2.1.2/src/core/ipv4\ip4_addr.c ****       if (val > 0xffffffUL) {
 365              		.loc 1 220 7 is_stmt 1
 366              		.loc 1 220 10 is_stmt 0
 367 00ee B7070001 		li	a5,16777216
 161:C:/Users/stapi/OneDrive/Desktop/GD32VW553/V1_MQTT_OK/GD32VW55X_Wifi_BLE_SDK/GD32VW55x_RELEASE_V1.0.2/MSDK/lwip/lwip-2.1.2/src/core/ipv4\ip4_addr.c ****     }
 368              		.loc 1 161 14
 369 00f2 0144     		li	s0,0
 370              		.loc 1 220 10
 371 00f4 6370F502 		bgeu	a0,a5,.L20
 221:C:/Users/stapi/OneDrive/Desktop/GD32VW553/V1_MQTT_OK/GD32VW55X_Wifi_BLE_SDK/GD32VW55x_RELEASE_V1.0.2/MSDK/lwip/lwip-2.1.2/src/core/ipv4\ip4_addr.c ****         return 0;
 222:C:/Users/stapi/OneDrive/Desktop/GD32VW553/V1_MQTT_OK/GD32VW55X_Wifi_BLE_SDK/GD32VW55x_RELEASE_V1.0.2/MSDK/lwip/lwip-2.1.2/src/core/ipv4\ip4_addr.c ****       }
 223:C:/Users/stapi/OneDrive/Desktop/GD32VW553/V1_MQTT_OK/GD32VW55X_Wifi_BLE_SDK/GD32VW55x_RELEASE_V1.0.2/MSDK/lwip/lwip-2.1.2/src/core/ipv4\ip4_addr.c ****       if (parts[0] > 0xff) {
 372              		.loc 1 223 7 is_stmt 1
 373              		.loc 1 223 16 is_stmt 0
 374 00f8 8247     		lw	a5,0(sp)
 375              		.loc 1 223 10
 376 00fa 1307F00F 		li	a4,255
 377 00fe 636BF700 		bgtu	a5,a4,.L20
 224:C:/Users/stapi/OneDrive/Desktop/GD32VW553/V1_MQTT_OK/GD32VW55X_Wifi_BLE_SDK/GD32VW55x_RELEASE_V1.0.2/MSDK/lwip/lwip-2.1.2/src/core/ipv4\ip4_addr.c ****         return 0;
 225:C:/Users/stapi/OneDrive/Desktop/GD32VW553/V1_MQTT_OK/GD32VW55X_Wifi_BLE_SDK/GD32VW55x_RELEASE_V1.0.2/MSDK/lwip/lwip-2.1.2/src/core/ipv4\ip4_addr.c ****       }
 226:C:/Users/stapi/OneDrive/Desktop/GD32VW553/V1_MQTT_OK/GD32VW55X_Wifi_BLE_SDK/GD32VW55x_RELEASE_V1.0.2/MSDK/lwip/lwip-2.1.2/src/core/ipv4\ip4_addr.c ****       val |= parts[0] << 24;
 378              		.loc 1 226 7 is_stmt 1
 379              		.loc 1 226 23 is_stmt 0
 380 0102 E207     		slli	a5,a5,24
 381              	.LVL41:
 382              	.L64:
 227:C:/Users/stapi/OneDrive/Desktop/GD32VW553/V1_MQTT_OK/GD32VW55X_Wifi_BLE_SDK/GD32VW55x_RELEASE_V1.0.2/MSDK/lwip/lwip-2.1.2/src/core/ipv4\ip4_addr.c ****       break;
 228:C:/Users/stapi/OneDrive/Desktop/GD32VW553/V1_MQTT_OK/GD32VW55X_Wifi_BLE_SDK/GD32VW55x_RELEASE_V1.0.2/MSDK/lwip/lwip-2.1.2/src/core/ipv4\ip4_addr.c **** 
 229:C:/Users/stapi/OneDrive/Desktop/GD32VW553/V1_MQTT_OK/GD32VW55X_Wifi_BLE_SDK/GD32VW55x_RELEASE_V1.0.2/MSDK/lwip/lwip-2.1.2/src/core/ipv4\ip4_addr.c ****     case 3:             /* a.b.c -- 8.8.16 bits */
 230:C:/Users/stapi/OneDrive/Desktop/GD32VW553/V1_MQTT_OK/GD32VW55X_Wifi_BLE_SDK/GD32VW55x_RELEASE_V1.0.2/MSDK/lwip/lwip-2.1.2/src/core/ipv4\ip4_addr.c ****       if (val > 0xffff) {
 231:C:/Users/stapi/OneDrive/Desktop/GD32VW553/V1_MQTT_OK/GD32VW55X_Wifi_BLE_SDK/GD32VW55x_RELEASE_V1.0.2/MSDK/lwip/lwip-2.1.2/src/core/ipv4\ip4_addr.c ****         return 0;
 232:C:/Users/stapi/OneDrive/Desktop/GD32VW553/V1_MQTT_OK/GD32VW55X_Wifi_BLE_SDK/GD32VW55x_RELEASE_V1.0.2/MSDK/lwip/lwip-2.1.2/src/core/ipv4\ip4_addr.c ****       }
 233:C:/Users/stapi/OneDrive/Desktop/GD32VW553/V1_MQTT_OK/GD32VW55X_Wifi_BLE_SDK/GD32VW55x_RELEASE_V1.0.2/MSDK/lwip/lwip-2.1.2/src/core/ipv4\ip4_addr.c ****       if ((parts[0] > 0xff) || (parts[1] > 0xff)) {
 234:C:/Users/stapi/OneDrive/Desktop/GD32VW553/V1_MQTT_OK/GD32VW55X_Wifi_BLE_SDK/GD32VW55x_RELEASE_V1.0.2/MSDK/lwip/lwip-2.1.2/src/core/ipv4\ip4_addr.c ****         return 0;
 235:C:/Users/stapi/OneDrive/Desktop/GD32VW553/V1_MQTT_OK/GD32VW55X_Wifi_BLE_SDK/GD32VW55x_RELEASE_V1.0.2/MSDK/lwip/lwip-2.1.2/src/core/ipv4\ip4_addr.c ****       }
 236:C:/Users/stapi/OneDrive/Desktop/GD32VW553/V1_MQTT_OK/GD32VW55X_Wifi_BLE_SDK/GD32VW55x_RELEASE_V1.0.2/MSDK/lwip/lwip-2.1.2/src/core/ipv4\ip4_addr.c ****       val |= (parts[0] << 24) | (parts[1] << 16);
 237:C:/Users/stapi/OneDrive/Desktop/GD32VW553/V1_MQTT_OK/GD32VW55X_Wifi_BLE_SDK/GD32VW55x_RELEASE_V1.0.2/MSDK/lwip/lwip-2.1.2/src/core/ipv4\ip4_addr.c ****       break;
 238:C:/Users/stapi/OneDrive/Desktop/GD32VW553/V1_MQTT_OK/GD32VW55X_Wifi_BLE_SDK/GD32VW55x_RELEASE_V1.0.2/MSDK/lwip/lwip-2.1.2/src/core/ipv4\ip4_addr.c **** 
 239:C:/Users/stapi/OneDrive/Desktop/GD32VW553/V1_MQTT_OK/GD32VW55X_Wifi_BLE_SDK/GD32VW55x_RELEASE_V1.0.2/MSDK/lwip/lwip-2.1.2/src/core/ipv4\ip4_addr.c ****     case 4:             /* a.b.c.d -- 8.8.8.8 bits */
 240:C:/Users/stapi/OneDrive/Desktop/GD32VW553/V1_MQTT_OK/GD32VW55X_Wifi_BLE_SDK/GD32VW55x_RELEASE_V1.0.2/MSDK/lwip/lwip-2.1.2/src/core/ipv4\ip4_addr.c ****       if (val > 0xff) {
 241:C:/Users/stapi/OneDrive/Desktop/GD32VW553/V1_MQTT_OK/GD32VW55X_Wifi_BLE_SDK/GD32VW55x_RELEASE_V1.0.2/MSDK/lwip/lwip-2.1.2/src/core/ipv4\ip4_addr.c ****         return 0;
 242:C:/Users/stapi/OneDrive/Desktop/GD32VW553/V1_MQTT_OK/GD32VW55X_Wifi_BLE_SDK/GD32VW55x_RELEASE_V1.0.2/MSDK/lwip/lwip-2.1.2/src/core/ipv4\ip4_addr.c ****       }
 243:C:/Users/stapi/OneDrive/Desktop/GD32VW553/V1_MQTT_OK/GD32VW55X_Wifi_BLE_SDK/GD32VW55x_RELEASE_V1.0.2/MSDK/lwip/lwip-2.1.2/src/core/ipv4\ip4_addr.c ****       if ((parts[0] > 0xff) || (parts[1] > 0xff) || (parts[2] > 0xff)) {
 244:C:/Users/stapi/OneDrive/Desktop/GD32VW553/V1_MQTT_OK/GD32VW55X_Wifi_BLE_SDK/GD32VW55x_RELEASE_V1.0.2/MSDK/lwip/lwip-2.1.2/src/core/ipv4\ip4_addr.c ****         return 0;
 245:C:/Users/stapi/OneDrive/Desktop/GD32VW553/V1_MQTT_OK/GD32VW55X_Wifi_BLE_SDK/GD32VW55x_RELEASE_V1.0.2/MSDK/lwip/lwip-2.1.2/src/core/ipv4\ip4_addr.c ****       }
 246:C:/Users/stapi/OneDrive/Desktop/GD32VW553/V1_MQTT_OK/GD32VW55X_Wifi_BLE_SDK/GD32VW55x_RELEASE_V1.0.2/MSDK/lwip/lwip-2.1.2/src/core/ipv4\ip4_addr.c ****       val |= (parts[0] << 24) | (parts[1] << 16) | (parts[2] << 8);
 383              		.loc 1 246 11
 384 0104 5D8D     		or	a0,a0,a5
 385              	.LVL42:
 247:C:/Users/stapi/OneDrive/Desktop/GD32VW553/V1_MQTT_OK/GD32VW55X_Wifi_BLE_SDK/GD32VW55x_RELEASE_V1.0.2/MSDK/lwip/lwip-2.1.2/src/core/ipv4\ip4_addr.c ****       break;
 386              		.loc 1 247 7 is_stmt 1
 387              	.L37:
 248:C:/Users/stapi/OneDrive/Desktop/GD32VW553/V1_MQTT_OK/GD32VW55X_Wifi_BLE_SDK/GD32VW55x_RELEASE_V1.0.2/MSDK/lwip/lwip-2.1.2/src/core/ipv4\ip4_addr.c ****     default:
 249:C:/Users/stapi/OneDrive/Desktop/GD32VW553/V1_MQTT_OK/GD32VW55X_Wifi_BLE_SDK/GD32VW55x_RELEASE_V1.0.2/MSDK/lwip/lwip-2.1.2/src/core/ipv4\ip4_addr.c ****       LWIP_ASSERT("unhandled", 0);
 250:C:/Users/stapi/OneDrive/Desktop/GD32VW553/V1_MQTT_OK/GD32VW55X_Wifi_BLE_SDK/GD32VW55x_RELEASE_V1.0.2/MSDK/lwip/lwip-2.1.2/src/core/ipv4\ip4_addr.c ****       break;
 251:C:/Users/stapi/OneDrive/Desktop/GD32VW553/V1_MQTT_OK/GD32VW55X_Wifi_BLE_SDK/GD32VW55x_RELEASE_V1.0.2/MSDK/lwip/lwip-2.1.2/src/core/ipv4\ip4_addr.c ****   }
 252:C:/Users/stapi/OneDrive/Desktop/GD32VW553/V1_MQTT_OK/GD32VW55X_Wifi_BLE_SDK/GD32VW55x_RELEASE_V1.0.2/MSDK/lwip/lwip-2.1.2/src/core/ipv4\ip4_addr.c ****   if (addr) {
 388              		.loc 1 252 3
 253:C:/Users/stapi/OneDrive/Desktop/GD32VW553/V1_MQTT_OK/GD32VW55X_Wifi_BLE_SDK/GD32VW55x_RELEASE_V1.0.2/MSDK/lwip/lwip-2.1.2/src/core/ipv4\ip4_addr.c ****     ip4_addr_set_u32(addr, lwip_htonl(val));
 254:C:/Users/stapi/OneDrive/Desktop/GD32VW553/V1_MQTT_OK/GD32VW55X_Wifi_BLE_SDK/GD32VW55x_RELEASE_V1.0.2/MSDK/lwip/lwip-2.1.2/src/core/ipv4\ip4_addr.c ****   }
 255:C:/Users/stapi/OneDrive/Desktop/GD32VW553/V1_MQTT_OK/GD32VW55X_Wifi_BLE_SDK/GD32VW55x_RELEASE_V1.0.2/MSDK/lwip/lwip-2.1.2/src/core/ipv4\ip4_addr.c ****   return 1;
 389              		.loc 1 255 10 is_stmt 0
 390 0106 0544     		li	s0,1
 252:C:/Users/stapi/OneDrive/Desktop/GD32VW553/V1_MQTT_OK/GD32VW55X_Wifi_BLE_SDK/GD32VW55x_RELEASE_V1.0.2/MSDK/lwip/lwip-2.1.2/src/core/ipv4\ip4_addr.c ****     ip4_addr_set_u32(addr, lwip_htonl(val));
 391              		.loc 1 252 6
 392 0108 91C4     		beq	s1,zero,.L20
 253:C:/Users/stapi/OneDrive/Desktop/GD32VW553/V1_MQTT_OK/GD32VW55X_Wifi_BLE_SDK/GD32VW55x_RELEASE_V1.0.2/MSDK/lwip/lwip-2.1.2/src/core/ipv4\ip4_addr.c ****     ip4_addr_set_u32(addr, lwip_htonl(val));
 393              		.loc 1 253 5 is_stmt 1
 394 010a 97000000 		call	lwip_htonl
 394      E7800000 
 395              	.LVL43:
 396 0112 88C0     		sw	a0,0(s1)
 397              	.L20:
 256:C:/Users/stapi/OneDrive/Desktop/GD32VW553/V1_MQTT_OK/GD32VW55X_Wifi_BLE_SDK/GD32VW55x_RELEASE_V1.0.2/MSDK/lwip/lwip-2.1.2/src/core/ipv4\ip4_addr.c **** }
 398              		.loc 1 256 1 is_stmt 0
 399 0114 2285     		mv	a0,s0
 400 0116 4101     		addi	sp,sp,16
 401              		.cfi_remember_state
 402              		.cfi_def_cfa_offset 0
 403 0118 17030000 		tail	__riscv_restore_2
 403      67000300 
 404              		.cfi_restore 9
 405              		.cfi_restore 8
 406              		.cfi_restore 1
 407              		.cfi_def_cfa_offset -16
 408              	.LVL44:
 409              	.L35:
 410              		.cfi_restore_state
 230:C:/Users/stapi/OneDrive/Desktop/GD32VW553/V1_MQTT_OK/GD32VW55X_Wifi_BLE_SDK/GD32VW55x_RELEASE_V1.0.2/MSDK/lwip/lwip-2.1.2/src/core/ipv4\ip4_addr.c ****         return 0;
 411              		.loc 1 230 7 is_stmt 1
 230:C:/Users/stapi/OneDrive/Desktop/GD32VW553/V1_MQTT_OK/GD32VW55X_Wifi_BLE_SDK/GD32VW55x_RELEASE_V1.0.2/MSDK/lwip/lwip-2.1.2/src/core/ipv4\ip4_addr.c ****         return 0;
 412              		.loc 1 230 10 is_stmt 0
 413 0120 C167     		li	a5,65536
 161:C:/Users/stapi/OneDrive/Desktop/GD32VW553/V1_MQTT_OK/GD32VW55X_Wifi_BLE_SDK/GD32VW55x_RELEASE_V1.0.2/MSDK/lwip/lwip-2.1.2/src/core/ipv4\ip4_addr.c ****     }
 414              		.loc 1 161 14
 415 0122 0144     		li	s0,0
 230:C:/Users/stapi/OneDrive/Desktop/GD32VW553/V1_MQTT_OK/GD32VW55X_Wifi_BLE_SDK/GD32VW55x_RELEASE_V1.0.2/MSDK/lwip/lwip-2.1.2/src/core/ipv4\ip4_addr.c ****         return 0;
 416              		.loc 1 230 10
 417 0124 E378F5FE 		bgeu	a0,a5,.L20
 233:C:/Users/stapi/OneDrive/Desktop/GD32VW553/V1_MQTT_OK/GD32VW55X_Wifi_BLE_SDK/GD32VW55x_RELEASE_V1.0.2/MSDK/lwip/lwip-2.1.2/src/core/ipv4\ip4_addr.c ****         return 0;
 418              		.loc 1 233 7 is_stmt 1
 233:C:/Users/stapi/OneDrive/Desktop/GD32VW553/V1_MQTT_OK/GD32VW55X_Wifi_BLE_SDK/GD32VW55x_RELEASE_V1.0.2/MSDK/lwip/lwip-2.1.2/src/core/ipv4\ip4_addr.c ****         return 0;
 419              		.loc 1 233 17 is_stmt 0
 420 0128 8247     		lw	a5,0(sp)
 233:C:/Users/stapi/OneDrive/Desktop/GD32VW553/V1_MQTT_OK/GD32VW55X_Wifi_BLE_SDK/GD32VW55x_RELEASE_V1.0.2/MSDK/lwip/lwip-2.1.2/src/core/ipv4\ip4_addr.c ****         return 0;
 421              		.loc 1 233 10
 422 012a 9306F00F 		li	a3,255
 423 012e E3E3F6FE 		bgtu	a5,a3,.L20
 233:C:/Users/stapi/OneDrive/Desktop/GD32VW553/V1_MQTT_OK/GD32VW55X_Wifi_BLE_SDK/GD32VW55x_RELEASE_V1.0.2/MSDK/lwip/lwip-2.1.2/src/core/ipv4\ip4_addr.c ****         return 0;
 424              		.loc 1 233 38 discriminator 1
 425 0132 1247     		lw	a4,4(sp)
 233:C:/Users/stapi/OneDrive/Desktop/GD32VW553/V1_MQTT_OK/GD32VW55X_Wifi_BLE_SDK/GD32VW55x_RELEASE_V1.0.2/MSDK/lwip/lwip-2.1.2/src/core/ipv4\ip4_addr.c ****         return 0;
 426              		.loc 1 233 29 discriminator 1
 427 0134 E3E0E6FE 		bgtu	a4,a3,.L20
 236:C:/Users/stapi/OneDrive/Desktop/GD32VW553/V1_MQTT_OK/GD32VW55X_Wifi_BLE_SDK/GD32VW55x_RELEASE_V1.0.2/MSDK/lwip/lwip-2.1.2/src/core/ipv4\ip4_addr.c ****       break;
 428              		.loc 1 236 7 is_stmt 1
 236:C:/Users/stapi/OneDrive/Desktop/GD32VW553/V1_MQTT_OK/GD32VW55X_Wifi_BLE_SDK/GD32VW55x_RELEASE_V1.0.2/MSDK/lwip/lwip-2.1.2/src/core/ipv4\ip4_addr.c ****       break;
 429              		.loc 1 236 24 is_stmt 0
 430 0138 E207     		slli	a5,a5,24
 236:C:/Users/stapi/OneDrive/Desktop/GD32VW553/V1_MQTT_OK/GD32VW55X_Wifi_BLE_SDK/GD32VW55x_RELEASE_V1.0.2/MSDK/lwip/lwip-2.1.2/src/core/ipv4\ip4_addr.c ****       break;
 431              		.loc 1 236 43
 432 013a 4207     		slli	a4,a4,16
 433              	.LVL45:
 434              	.L63:
 246:C:/Users/stapi/OneDrive/Desktop/GD32VW553/V1_MQTT_OK/GD32VW55X_Wifi_BLE_SDK/GD32VW55x_RELEASE_V1.0.2/MSDK/lwip/lwip-2.1.2/src/core/ipv4\ip4_addr.c ****       break;
 435              		.loc 1 246 50
 436 013c D98F     		or	a5,a5,a4
 437 013e D9B7     		j	.L64
 438              	.LVL46:
 439              	.L33:
 240:C:/Users/stapi/OneDrive/Desktop/GD32VW553/V1_MQTT_OK/GD32VW55X_Wifi_BLE_SDK/GD32VW55x_RELEASE_V1.0.2/MSDK/lwip/lwip-2.1.2/src/core/ipv4\ip4_addr.c ****         return 0;
 440              		.loc 1 240 7 is_stmt 1
 240:C:/Users/stapi/OneDrive/Desktop/GD32VW553/V1_MQTT_OK/GD32VW55X_Wifi_BLE_SDK/GD32VW55x_RELEASE_V1.0.2/MSDK/lwip/lwip-2.1.2/src/core/ipv4\ip4_addr.c ****         return 0;
 441              		.loc 1 240 10 is_stmt 0
 442 0140 1306F00F 		li	a2,255
 443              	.LVL47:
 161:C:/Users/stapi/OneDrive/Desktop/GD32VW553/V1_MQTT_OK/GD32VW55X_Wifi_BLE_SDK/GD32VW55x_RELEASE_V1.0.2/MSDK/lwip/lwip-2.1.2/src/core/ipv4\ip4_addr.c ****     }
 444              		.loc 1 161 14
 445 0144 0144     		li	s0,0
 240:C:/Users/stapi/OneDrive/Desktop/GD32VW553/V1_MQTT_OK/GD32VW55X_Wifi_BLE_SDK/GD32VW55x_RELEASE_V1.0.2/MSDK/lwip/lwip-2.1.2/src/core/ipv4\ip4_addr.c ****         return 0;
 446              		.loc 1 240 10
 447 0146 E367A6FC 		bgtu	a0,a2,.L20
 243:C:/Users/stapi/OneDrive/Desktop/GD32VW553/V1_MQTT_OK/GD32VW55X_Wifi_BLE_SDK/GD32VW55x_RELEASE_V1.0.2/MSDK/lwip/lwip-2.1.2/src/core/ipv4\ip4_addr.c ****         return 0;
 448              		.loc 1 243 7 is_stmt 1
 243:C:/Users/stapi/OneDrive/Desktop/GD32VW553/V1_MQTT_OK/GD32VW55X_Wifi_BLE_SDK/GD32VW55x_RELEASE_V1.0.2/MSDK/lwip/lwip-2.1.2/src/core/ipv4\ip4_addr.c ****         return 0;
 449              		.loc 1 243 17 is_stmt 0
 450 014a 8247     		lw	a5,0(sp)
 243:C:/Users/stapi/OneDrive/Desktop/GD32VW553/V1_MQTT_OK/GD32VW55X_Wifi_BLE_SDK/GD32VW55x_RELEASE_V1.0.2/MSDK/lwip/lwip-2.1.2/src/core/ipv4\ip4_addr.c ****         return 0;
 451              		.loc 1 243 10
 452 014c E364F6FC 		bgtu	a5,a2,.L20
 243:C:/Users/stapi/OneDrive/Desktop/GD32VW553/V1_MQTT_OK/GD32VW55X_Wifi_BLE_SDK/GD32VW55x_RELEASE_V1.0.2/MSDK/lwip/lwip-2.1.2/src/core/ipv4\ip4_addr.c ****         return 0;
 453              		.loc 1 243 38 discriminator 1
 454 0150 9246     		lw	a3,4(sp)
 243:C:/Users/stapi/OneDrive/Desktop/GD32VW553/V1_MQTT_OK/GD32VW55X_Wifi_BLE_SDK/GD32VW55x_RELEASE_V1.0.2/MSDK/lwip/lwip-2.1.2/src/core/ipv4\ip4_addr.c ****         return 0;
 455              		.loc 1 243 29 discriminator 1
 456 0152 E361D6FC 		bgtu	a3,a2,.L20
 243:C:/Users/stapi/OneDrive/Desktop/GD32VW553/V1_MQTT_OK/GD32VW55X_Wifi_BLE_SDK/GD32VW55x_RELEASE_V1.0.2/MSDK/lwip/lwip-2.1.2/src/core/ipv4\ip4_addr.c ****         return 0;
 457              		.loc 1 243 59 discriminator 2
 458 0156 2247     		lw	a4,8(sp)
 243:C:/Users/stapi/OneDrive/Desktop/GD32VW553/V1_MQTT_OK/GD32VW55X_Wifi_BLE_SDK/GD32VW55x_RELEASE_V1.0.2/MSDK/lwip/lwip-2.1.2/src/core/ipv4\ip4_addr.c ****         return 0;
 459              		.loc 1 243 50 discriminator 2
 460 0158 E36EE6FA 		bgtu	a4,a2,.L20
 246:C:/Users/stapi/OneDrive/Desktop/GD32VW553/V1_MQTT_OK/GD32VW55X_Wifi_BLE_SDK/GD32VW55x_RELEASE_V1.0.2/MSDK/lwip/lwip-2.1.2/src/core/ipv4\ip4_addr.c ****       break;
 461              		.loc 1 246 7 is_stmt 1
 246:C:/Users/stapi/OneDrive/Desktop/GD32VW553/V1_MQTT_OK/GD32VW55X_Wifi_BLE_SDK/GD32VW55x_RELEASE_V1.0.2/MSDK/lwip/lwip-2.1.2/src/core/ipv4\ip4_addr.c ****       break;
 462              		.loc 1 246 24 is_stmt 0
 463 015c E207     		slli	a5,a5,24
 246:C:/Users/stapi/OneDrive/Desktop/GD32VW553/V1_MQTT_OK/GD32VW55X_Wifi_BLE_SDK/GD32VW55x_RELEASE_V1.0.2/MSDK/lwip/lwip-2.1.2/src/core/ipv4\ip4_addr.c ****       break;
 464              		.loc 1 246 43
 465 015e C206     		slli	a3,a3,16
 246:C:/Users/stapi/OneDrive/Desktop/GD32VW553/V1_MQTT_OK/GD32VW55X_Wifi_BLE_SDK/GD32VW55x_RELEASE_V1.0.2/MSDK/lwip/lwip-2.1.2/src/core/ipv4\ip4_addr.c ****       break;
 466              		.loc 1 246 31
 467 0160 D58F     		or	a5,a5,a3
 246:C:/Users/stapi/OneDrive/Desktop/GD32VW553/V1_MQTT_OK/GD32VW55X_Wifi_BLE_SDK/GD32VW55x_RELEASE_V1.0.2/MSDK/lwip/lwip-2.1.2/src/core/ipv4\ip4_addr.c ****       break;
 468              		.loc 1 246 62
 469 0162 2207     		slli	a4,a4,8
 470 0164 E1BF     		j	.L63
 471              	.LVL48:
 472              	.L32:
 249:C:/Users/stapi/OneDrive/Desktop/GD32VW553/V1_MQTT_OK/GD32VW55X_Wifi_BLE_SDK/GD32VW55x_RELEASE_V1.0.2/MSDK/lwip/lwip-2.1.2/src/core/ipv4\ip4_addr.c ****       break;
 473              		.loc 1 249 7 is_stmt 1 discriminator 1
 249:C:/Users/stapi/OneDrive/Desktop/GD32VW553/V1_MQTT_OK/GD32VW55X_Wifi_BLE_SDK/GD32VW55x_RELEASE_V1.0.2/MSDK/lwip/lwip-2.1.2/src/core/ipv4\ip4_addr.c ****       break;
 474              		.loc 1 249 7 discriminator 1
 249:C:/Users/stapi/OneDrive/Desktop/GD32VW553/V1_MQTT_OK/GD32VW55X_Wifi_BLE_SDK/GD32VW55x_RELEASE_V1.0.2/MSDK/lwip/lwip-2.1.2/src/core/ipv4\ip4_addr.c ****       break;
 475              		.loc 1 249 7 discriminator 1
 249:C:/Users/stapi/OneDrive/Desktop/GD32VW553/V1_MQTT_OK/GD32VW55X_Wifi_BLE_SDK/GD32VW55x_RELEASE_V1.0.2/MSDK/lwip/lwip-2.1.2/src/core/ipv4\ip4_addr.c ****       break;
 476              		.loc 1 249 7 discriminator 1
 477 0166 B7060000 		lui	a3,%hi(.LC0)
 478 016a B7050000 		lui	a1,%hi(.LC1)
 479 016e 37050000 		lui	a0,%hi(.LC2)
 480              	.LVL49:
 481 0172 93860600 		addi	a3,a3,%lo(.LC0)
 482 0176 1306900F 		li	a2,249
 483              	.LVL50:
 484 017a 93850500 		addi	a1,a1,%lo(.LC1)
 485 017e 13050500 		addi	a0,a0,%lo(.LC2)
 486 0182 97000000 		call	printf
 486      E7800000 
 487              	.LVL51:
 488              	.L38:
 249:C:/Users/stapi/OneDrive/Desktop/GD32VW553/V1_MQTT_OK/GD32VW55X_Wifi_BLE_SDK/GD32VW55x_RELEASE_V1.0.2/MSDK/lwip/lwip-2.1.2/src/core/ipv4\ip4_addr.c ****       break;
 489              		.loc 1 249 7 discriminator 1
 249:C:/Users/stapi/OneDrive/Desktop/GD32VW553/V1_MQTT_OK/GD32VW55X_Wifi_BLE_SDK/GD32VW55x_RELEASE_V1.0.2/MSDK/lwip/lwip-2.1.2/src/core/ipv4\ip4_addr.c ****       break;
 490              		.loc 1 249 7 discriminator 1
 249:C:/Users/stapi/OneDrive/Desktop/GD32VW553/V1_MQTT_OK/GD32VW55X_Wifi_BLE_SDK/GD32VW55x_RELEASE_V1.0.2/MSDK/lwip/lwip-2.1.2/src/core/ipv4\ip4_addr.c ****       break;
 491              		.loc 1 249 7 discriminator 1
 492 018a 01A0     		j	.L38
 493              	.LVL52:
 494              	.L43:
 161:C:/Users/stapi/OneDrive/Desktop/GD32VW553/V1_MQTT_OK/GD32VW55X_Wifi_BLE_SDK/GD32VW55x_RELEASE_V1.0.2/MSDK/lwip/lwip-2.1.2/src/core/ipv4\ip4_addr.c ****     }
 495              		.loc 1 161 14 is_stmt 0
 496 018c 0144     		li	s0,0
 497              	.LVL53:
 498 018e 59B7     		j	.L20
 499              		.cfi_endproc
 500              	.LFE6:
 502              		.section	.text.ipaddr_addr,"ax",@progbits
 503              		.align	1
 504              		.globl	ipaddr_addr
 506              	ipaddr_addr:
 507              	.LFB5:
 124:C:/Users/stapi/OneDrive/Desktop/GD32VW553/V1_MQTT_OK/GD32VW55X_Wifi_BLE_SDK/GD32VW55x_RELEASE_V1.0.2/MSDK/lwip/lwip-2.1.2/src/core/ipv4\ip4_addr.c ****   ip4_addr_t val;
 508              		.loc 1 124 1 is_stmt 1
 509              		.cfi_startproc
 510              	.LVL54:
 511 0000 17030000 		call	t0,__riscv_save_0
 511      E7020300 
 512              		.cfi_offset 1, -4
 513              		.cfi_def_cfa_offset 16
 125:C:/Users/stapi/OneDrive/Desktop/GD32VW553/V1_MQTT_OK/GD32VW55X_Wifi_BLE_SDK/GD32VW55x_RELEASE_V1.0.2/MSDK/lwip/lwip-2.1.2/src/core/ipv4\ip4_addr.c **** 
 514              		.loc 1 125 3
 127:C:/Users/stapi/OneDrive/Desktop/GD32VW553/V1_MQTT_OK/GD32VW55X_Wifi_BLE_SDK/GD32VW55x_RELEASE_V1.0.2/MSDK/lwip/lwip-2.1.2/src/core/ipv4\ip4_addr.c ****     return ip4_addr_get_u32(&val);
 515              		.loc 1 127 3
 124:C:/Users/stapi/OneDrive/Desktop/GD32VW553/V1_MQTT_OK/GD32VW55X_Wifi_BLE_SDK/GD32VW55x_RELEASE_V1.0.2/MSDK/lwip/lwip-2.1.2/src/core/ipv4\ip4_addr.c ****   ip4_addr_t val;
 516              		.loc 1 124 1 is_stmt 0
 517 0008 4111     		addi	sp,sp,-16
 518              		.cfi_def_cfa_offset 32
 127:C:/Users/stapi/OneDrive/Desktop/GD32VW553/V1_MQTT_OK/GD32VW55X_Wifi_BLE_SDK/GD32VW55x_RELEASE_V1.0.2/MSDK/lwip/lwip-2.1.2/src/core/ipv4\ip4_addr.c ****     return ip4_addr_get_u32(&val);
 519              		.loc 1 127 7
 520 000a 6C00     		addi	a1,sp,12
 521 000c 97000000 		call	ip4addr_aton
 521      E7800000 
 522              	.LVL55:
 127:C:/Users/stapi/OneDrive/Desktop/GD32VW553/V1_MQTT_OK/GD32VW55X_Wifi_BLE_SDK/GD32VW55x_RELEASE_V1.0.2/MSDK/lwip/lwip-2.1.2/src/core/ipv4\ip4_addr.c ****     return ip4_addr_get_u32(&val);
 523              		.loc 1 127 6
 524 0014 19C5     		beq	a0,zero,.L67
 128:C:/Users/stapi/OneDrive/Desktop/GD32VW553/V1_MQTT_OK/GD32VW55X_Wifi_BLE_SDK/GD32VW55x_RELEASE_V1.0.2/MSDK/lwip/lwip-2.1.2/src/core/ipv4\ip4_addr.c ****   }
 525              		.loc 1 128 5 is_stmt 1
 128:C:/Users/stapi/OneDrive/Desktop/GD32VW553/V1_MQTT_OK/GD32VW55X_Wifi_BLE_SDK/GD32VW55x_RELEASE_V1.0.2/MSDK/lwip/lwip-2.1.2/src/core/ipv4\ip4_addr.c ****   }
 526              		.loc 1 128 12 is_stmt 0
 527 0016 3245     		lw	a0,12(sp)
 528              	.L65:
 131:C:/Users/stapi/OneDrive/Desktop/GD32VW553/V1_MQTT_OK/GD32VW55X_Wifi_BLE_SDK/GD32VW55x_RELEASE_V1.0.2/MSDK/lwip/lwip-2.1.2/src/core/ipv4\ip4_addr.c **** 
 529              		.loc 1 131 1
 530 0018 4101     		addi	sp,sp,16
 531              		.cfi_remember_state
 532              		.cfi_def_cfa_offset 0
 533 001a 17030000 		tail	__riscv_restore_0
 533      67000300 
 534              		.cfi_restore 1
 535              		.cfi_def_cfa_offset -16
 536              	.L67:
 537              		.cfi_restore_state
 130:C:/Users/stapi/OneDrive/Desktop/GD32VW553/V1_MQTT_OK/GD32VW55X_Wifi_BLE_SDK/GD32VW55x_RELEASE_V1.0.2/MSDK/lwip/lwip-2.1.2/src/core/ipv4\ip4_addr.c **** }
 538              		.loc 1 130 10
 539 0022 7D55     		li	a0,-1
 540 0024 D5BF     		j	.L65
 541              		.cfi_endproc
 542              	.LFE5:
 544              		.section	.text.ip4addr_ntoa_r,"ax",@progbits
 545              		.align	1
 546              		.globl	ip4addr_ntoa_r
 548              	ip4addr_ntoa_r:
 549              	.LFB8:
 257:C:/Users/stapi/OneDrive/Desktop/GD32VW553/V1_MQTT_OK/GD32VW55X_Wifi_BLE_SDK/GD32VW55x_RELEASE_V1.0.2/MSDK/lwip/lwip-2.1.2/src/core/ipv4\ip4_addr.c **** 
 258:C:/Users/stapi/OneDrive/Desktop/GD32VW553/V1_MQTT_OK/GD32VW55X_Wifi_BLE_SDK/GD32VW55x_RELEASE_V1.0.2/MSDK/lwip/lwip-2.1.2/src/core/ipv4\ip4_addr.c **** /**
 259:C:/Users/stapi/OneDrive/Desktop/GD32VW553/V1_MQTT_OK/GD32VW55X_Wifi_BLE_SDK/GD32VW55x_RELEASE_V1.0.2/MSDK/lwip/lwip-2.1.2/src/core/ipv4\ip4_addr.c ****  * Convert numeric IP address into decimal dotted ASCII representation.
 260:C:/Users/stapi/OneDrive/Desktop/GD32VW553/V1_MQTT_OK/GD32VW55X_Wifi_BLE_SDK/GD32VW55x_RELEASE_V1.0.2/MSDK/lwip/lwip-2.1.2/src/core/ipv4\ip4_addr.c ****  * returns ptr to static buffer; not reentrant!
 261:C:/Users/stapi/OneDrive/Desktop/GD32VW553/V1_MQTT_OK/GD32VW55X_Wifi_BLE_SDK/GD32VW55x_RELEASE_V1.0.2/MSDK/lwip/lwip-2.1.2/src/core/ipv4\ip4_addr.c ****  *
 262:C:/Users/stapi/OneDrive/Desktop/GD32VW553/V1_MQTT_OK/GD32VW55X_Wifi_BLE_SDK/GD32VW55x_RELEASE_V1.0.2/MSDK/lwip/lwip-2.1.2/src/core/ipv4\ip4_addr.c ****  * @param addr ip address in network order to convert
 263:C:/Users/stapi/OneDrive/Desktop/GD32VW553/V1_MQTT_OK/GD32VW55X_Wifi_BLE_SDK/GD32VW55x_RELEASE_V1.0.2/MSDK/lwip/lwip-2.1.2/src/core/ipv4\ip4_addr.c ****  * @return pointer to a global static (!) buffer that holds the ASCII
 264:C:/Users/stapi/OneDrive/Desktop/GD32VW553/V1_MQTT_OK/GD32VW55X_Wifi_BLE_SDK/GD32VW55x_RELEASE_V1.0.2/MSDK/lwip/lwip-2.1.2/src/core/ipv4\ip4_addr.c ****  *         representation of addr
 265:C:/Users/stapi/OneDrive/Desktop/GD32VW553/V1_MQTT_OK/GD32VW55X_Wifi_BLE_SDK/GD32VW55x_RELEASE_V1.0.2/MSDK/lwip/lwip-2.1.2/src/core/ipv4\ip4_addr.c ****  */
 266:C:/Users/stapi/OneDrive/Desktop/GD32VW553/V1_MQTT_OK/GD32VW55X_Wifi_BLE_SDK/GD32VW55x_RELEASE_V1.0.2/MSDK/lwip/lwip-2.1.2/src/core/ipv4\ip4_addr.c **** char *
 267:C:/Users/stapi/OneDrive/Desktop/GD32VW553/V1_MQTT_OK/GD32VW55X_Wifi_BLE_SDK/GD32VW55x_RELEASE_V1.0.2/MSDK/lwip/lwip-2.1.2/src/core/ipv4\ip4_addr.c **** ip4addr_ntoa(const ip4_addr_t *addr)
 268:C:/Users/stapi/OneDrive/Desktop/GD32VW553/V1_MQTT_OK/GD32VW55X_Wifi_BLE_SDK/GD32VW55x_RELEASE_V1.0.2/MSDK/lwip/lwip-2.1.2/src/core/ipv4\ip4_addr.c **** {
 269:C:/Users/stapi/OneDrive/Desktop/GD32VW553/V1_MQTT_OK/GD32VW55X_Wifi_BLE_SDK/GD32VW55x_RELEASE_V1.0.2/MSDK/lwip/lwip-2.1.2/src/core/ipv4\ip4_addr.c ****   static char str[IP4ADDR_STRLEN_MAX];
 270:C:/Users/stapi/OneDrive/Desktop/GD32VW553/V1_MQTT_OK/GD32VW55X_Wifi_BLE_SDK/GD32VW55x_RELEASE_V1.0.2/MSDK/lwip/lwip-2.1.2/src/core/ipv4\ip4_addr.c ****   return ip4addr_ntoa_r(addr, str, IP4ADDR_STRLEN_MAX);
 271:C:/Users/stapi/OneDrive/Desktop/GD32VW553/V1_MQTT_OK/GD32VW55X_Wifi_BLE_SDK/GD32VW55x_RELEASE_V1.0.2/MSDK/lwip/lwip-2.1.2/src/core/ipv4\ip4_addr.c **** }
 272:C:/Users/stapi/OneDrive/Desktop/GD32VW553/V1_MQTT_OK/GD32VW55X_Wifi_BLE_SDK/GD32VW55x_RELEASE_V1.0.2/MSDK/lwip/lwip-2.1.2/src/core/ipv4\ip4_addr.c **** 
 273:C:/Users/stapi/OneDrive/Desktop/GD32VW553/V1_MQTT_OK/GD32VW55X_Wifi_BLE_SDK/GD32VW55x_RELEASE_V1.0.2/MSDK/lwip/lwip-2.1.2/src/core/ipv4\ip4_addr.c **** /**
 274:C:/Users/stapi/OneDrive/Desktop/GD32VW553/V1_MQTT_OK/GD32VW55X_Wifi_BLE_SDK/GD32VW55x_RELEASE_V1.0.2/MSDK/lwip/lwip-2.1.2/src/core/ipv4\ip4_addr.c ****  * Same as ip4addr_ntoa, but reentrant since a user-supplied buffer is used.
 275:C:/Users/stapi/OneDrive/Desktop/GD32VW553/V1_MQTT_OK/GD32VW55X_Wifi_BLE_SDK/GD32VW55x_RELEASE_V1.0.2/MSDK/lwip/lwip-2.1.2/src/core/ipv4\ip4_addr.c ****  *
 276:C:/Users/stapi/OneDrive/Desktop/GD32VW553/V1_MQTT_OK/GD32VW55X_Wifi_BLE_SDK/GD32VW55x_RELEASE_V1.0.2/MSDK/lwip/lwip-2.1.2/src/core/ipv4\ip4_addr.c ****  * @param addr ip address in network order to convert
 277:C:/Users/stapi/OneDrive/Desktop/GD32VW553/V1_MQTT_OK/GD32VW55X_Wifi_BLE_SDK/GD32VW55x_RELEASE_V1.0.2/MSDK/lwip/lwip-2.1.2/src/core/ipv4\ip4_addr.c ****  * @param buf target buffer where the string is stored
 278:C:/Users/stapi/OneDrive/Desktop/GD32VW553/V1_MQTT_OK/GD32VW55X_Wifi_BLE_SDK/GD32VW55x_RELEASE_V1.0.2/MSDK/lwip/lwip-2.1.2/src/core/ipv4\ip4_addr.c ****  * @param buflen length of buf
 279:C:/Users/stapi/OneDrive/Desktop/GD32VW553/V1_MQTT_OK/GD32VW55X_Wifi_BLE_SDK/GD32VW55x_RELEASE_V1.0.2/MSDK/lwip/lwip-2.1.2/src/core/ipv4\ip4_addr.c ****  * @return either pointer to buf which now holds the ASCII
 280:C:/Users/stapi/OneDrive/Desktop/GD32VW553/V1_MQTT_OK/GD32VW55X_Wifi_BLE_SDK/GD32VW55x_RELEASE_V1.0.2/MSDK/lwip/lwip-2.1.2/src/core/ipv4\ip4_addr.c ****  *         representation of addr or NULL if buf was too small
 281:C:/Users/stapi/OneDrive/Desktop/GD32VW553/V1_MQTT_OK/GD32VW55X_Wifi_BLE_SDK/GD32VW55x_RELEASE_V1.0.2/MSDK/lwip/lwip-2.1.2/src/core/ipv4\ip4_addr.c ****  */
 282:C:/Users/stapi/OneDrive/Desktop/GD32VW553/V1_MQTT_OK/GD32VW55X_Wifi_BLE_SDK/GD32VW55x_RELEASE_V1.0.2/MSDK/lwip/lwip-2.1.2/src/core/ipv4\ip4_addr.c **** char *
 283:C:/Users/stapi/OneDrive/Desktop/GD32VW553/V1_MQTT_OK/GD32VW55X_Wifi_BLE_SDK/GD32VW55x_RELEASE_V1.0.2/MSDK/lwip/lwip-2.1.2/src/core/ipv4\ip4_addr.c **** ip4addr_ntoa_r(const ip4_addr_t *addr, char *buf, int buflen)
 284:C:/Users/stapi/OneDrive/Desktop/GD32VW553/V1_MQTT_OK/GD32VW55X_Wifi_BLE_SDK/GD32VW55x_RELEASE_V1.0.2/MSDK/lwip/lwip-2.1.2/src/core/ipv4\ip4_addr.c **** {
 550              		.loc 1 284 1 is_stmt 1
 551              		.cfi_startproc
 552              	.LVL56:
 285:C:/Users/stapi/OneDrive/Desktop/GD32VW553/V1_MQTT_OK/GD32VW55X_Wifi_BLE_SDK/GD32VW55x_RELEASE_V1.0.2/MSDK/lwip/lwip-2.1.2/src/core/ipv4\ip4_addr.c ****   u32_t s_addr;
 553              		.loc 1 285 3
 286:C:/Users/stapi/OneDrive/Desktop/GD32VW553/V1_MQTT_OK/GD32VW55X_Wifi_BLE_SDK/GD32VW55x_RELEASE_V1.0.2/MSDK/lwip/lwip-2.1.2/src/core/ipv4\ip4_addr.c ****   char inv[3];
 554              		.loc 1 286 3
 287:C:/Users/stapi/OneDrive/Desktop/GD32VW553/V1_MQTT_OK/GD32VW55X_Wifi_BLE_SDK/GD32VW55x_RELEASE_V1.0.2/MSDK/lwip/lwip-2.1.2/src/core/ipv4\ip4_addr.c ****   char *rp;
 555              		.loc 1 287 3
 288:C:/Users/stapi/OneDrive/Desktop/GD32VW553/V1_MQTT_OK/GD32VW55X_Wifi_BLE_SDK/GD32VW55x_RELEASE_V1.0.2/MSDK/lwip/lwip-2.1.2/src/core/ipv4\ip4_addr.c ****   u8_t *ap;
 556              		.loc 1 288 3
 289:C:/Users/stapi/OneDrive/Desktop/GD32VW553/V1_MQTT_OK/GD32VW55X_Wifi_BLE_SDK/GD32VW55x_RELEASE_V1.0.2/MSDK/lwip/lwip-2.1.2/src/core/ipv4\ip4_addr.c ****   u8_t rem;
 557              		.loc 1 289 3
 290:C:/Users/stapi/OneDrive/Desktop/GD32VW553/V1_MQTT_OK/GD32VW55X_Wifi_BLE_SDK/GD32VW55x_RELEASE_V1.0.2/MSDK/lwip/lwip-2.1.2/src/core/ipv4\ip4_addr.c ****   u8_t n;
 558              		.loc 1 290 3
 291:C:/Users/stapi/OneDrive/Desktop/GD32VW553/V1_MQTT_OK/GD32VW55X_Wifi_BLE_SDK/GD32VW55x_RELEASE_V1.0.2/MSDK/lwip/lwip-2.1.2/src/core/ipv4\ip4_addr.c ****   u8_t i;
 559              		.loc 1 291 3
 292:C:/Users/stapi/OneDrive/Desktop/GD32VW553/V1_MQTT_OK/GD32VW55X_Wifi_BLE_SDK/GD32VW55x_RELEASE_V1.0.2/MSDK/lwip/lwip-2.1.2/src/core/ipv4\ip4_addr.c ****   int len = 0;
 560              		.loc 1 292 3
 293:C:/Users/stapi/OneDrive/Desktop/GD32VW553/V1_MQTT_OK/GD32VW55X_Wifi_BLE_SDK/GD32VW55x_RELEASE_V1.0.2/MSDK/lwip/lwip-2.1.2/src/core/ipv4\ip4_addr.c **** 
 294:C:/Users/stapi/OneDrive/Desktop/GD32VW553/V1_MQTT_OK/GD32VW55X_Wifi_BLE_SDK/GD32VW55x_RELEASE_V1.0.2/MSDK/lwip/lwip-2.1.2/src/core/ipv4\ip4_addr.c ****   s_addr = ip4_addr_get_u32(addr);
 561              		.loc 1 294 3
 562              		.loc 1 294 10 is_stmt 0
 563 0000 1C41     		lw	a5,0(a0)
 284:C:/Users/stapi/OneDrive/Desktop/GD32VW553/V1_MQTT_OK/GD32VW55X_Wifi_BLE_SDK/GD32VW55x_RELEASE_V1.0.2/MSDK/lwip/lwip-2.1.2/src/core/ipv4\ip4_addr.c ****   u32_t s_addr;
 564              		.loc 1 284 1
 565 0002 4111     		addi	sp,sp,-16
 566              		.cfi_def_cfa_offset 16
 295:C:/Users/stapi/OneDrive/Desktop/GD32VW553/V1_MQTT_OK/GD32VW55X_Wifi_BLE_SDK/GD32VW55x_RELEASE_V1.0.2/MSDK/lwip/lwip-2.1.2/src/core/ipv4\ip4_addr.c **** 
 296:C:/Users/stapi/OneDrive/Desktop/GD32VW553/V1_MQTT_OK/GD32VW55X_Wifi_BLE_SDK/GD32VW55x_RELEASE_V1.0.2/MSDK/lwip/lwip-2.1.2/src/core/ipv4\ip4_addr.c ****   rp = buf;
 567              		.loc 1 296 6
 568 0004 2E83     		mv	t1,a1
 294:C:/Users/stapi/OneDrive/Desktop/GD32VW553/V1_MQTT_OK/GD32VW55X_Wifi_BLE_SDK/GD32VW55x_RELEASE_V1.0.2/MSDK/lwip/lwip-2.1.2/src/core/ipv4\ip4_addr.c **** 
 569              		.loc 1 294 10
 570 0006 3EC6     		sw	a5,12(sp)
 571              		.loc 1 296 3 is_stmt 1
 572              	.LVL57:
 297:C:/Users/stapi/OneDrive/Desktop/GD32VW553/V1_MQTT_OK/GD32VW55X_Wifi_BLE_SDK/GD32VW55x_RELEASE_V1.0.2/MSDK/lwip/lwip-2.1.2/src/core/ipv4\ip4_addr.c ****   ap = (u8_t *)&s_addr;
 573              		.loc 1 297 3
 298:C:/Users/stapi/OneDrive/Desktop/GD32VW553/V1_MQTT_OK/GD32VW55X_Wifi_BLE_SDK/GD32VW55x_RELEASE_V1.0.2/MSDK/lwip/lwip-2.1.2/src/core/ipv4\ip4_addr.c ****   for (n = 0; n < 4; n++) {
 574              		.loc 1 298 3
 575              		.loc 1 298 15
 292:C:/Users/stapi/OneDrive/Desktop/GD32VW553/V1_MQTT_OK/GD32VW55X_Wifi_BLE_SDK/GD32VW55x_RELEASE_V1.0.2/MSDK/lwip/lwip-2.1.2/src/core/ipv4\ip4_addr.c **** 
 576              		.loc 1 292 7 is_stmt 0
 577 0008 0145     		li	a0,0
 578              	.LVL58:
 297:C:/Users/stapi/OneDrive/Desktop/GD32VW553/V1_MQTT_OK/GD32VW55X_Wifi_BLE_SDK/GD32VW55x_RELEASE_V1.0.2/MSDK/lwip/lwip-2.1.2/src/core/ipv4\ip4_addr.c ****   ap = (u8_t *)&s_addr;
 579              		.loc 1 297 6
 580 000a 7400     		addi	a3,sp,12
 581              	.LVL59:
 299:C:/Users/stapi/OneDrive/Desktop/GD32VW553/V1_MQTT_OK/GD32VW55X_Wifi_BLE_SDK/GD32VW55x_RELEASE_V1.0.2/MSDK/lwip/lwip-2.1.2/src/core/ipv4\ip4_addr.c ****     i = 0;
 300:C:/Users/stapi/OneDrive/Desktop/GD32VW553/V1_MQTT_OK/GD32VW55X_Wifi_BLE_SDK/GD32VW55x_RELEASE_V1.0.2/MSDK/lwip/lwip-2.1.2/src/core/ipv4\ip4_addr.c ****     do {
 301:C:/Users/stapi/OneDrive/Desktop/GD32VW553/V1_MQTT_OK/GD32VW55X_Wifi_BLE_SDK/GD32VW55x_RELEASE_V1.0.2/MSDK/lwip/lwip-2.1.2/src/core/ipv4\ip4_addr.c ****       rem = *ap % (u8_t)10;
 582              		.loc 1 301 11
 583 000c 294E     		li	t3,10
 302:C:/Users/stapi/OneDrive/Desktop/GD32VW553/V1_MQTT_OK/GD32VW55X_Wifi_BLE_SDK/GD32VW55x_RELEASE_V1.0.2/MSDK/lwip/lwip-2.1.2/src/core/ipv4\ip4_addr.c ****       *ap /= (u8_t)10;
 303:C:/Users/stapi/OneDrive/Desktop/GD32VW553/V1_MQTT_OK/GD32VW55X_Wifi_BLE_SDK/GD32VW55x_RELEASE_V1.0.2/MSDK/lwip/lwip-2.1.2/src/core/ipv4\ip4_addr.c ****       inv[i++] = (char)('0' + rem);
 304:C:/Users/stapi/OneDrive/Desktop/GD32VW553/V1_MQTT_OK/GD32VW55X_Wifi_BLE_SDK/GD32VW55x_RELEASE_V1.0.2/MSDK/lwip/lwip-2.1.2/src/core/ipv4\ip4_addr.c ****     } while (*ap);
 584              		.loc 1 304 5
 585 000e 254F     		li	t5,9
 305:C:/Users/stapi/OneDrive/Desktop/GD32VW553/V1_MQTT_OK/GD32VW55X_Wifi_BLE_SDK/GD32VW55x_RELEASE_V1.0.2/MSDK/lwip/lwip-2.1.2/src/core/ipv4\ip4_addr.c ****     while (i--) {
 586              		.loc 1 305 11
 587 0010 930FF00F 		li	t6,255
 306:C:/Users/stapi/OneDrive/Desktop/GD32VW553/V1_MQTT_OK/GD32VW55X_Wifi_BLE_SDK/GD32VW55x_RELEASE_V1.0.2/MSDK/lwip/lwip-2.1.2/src/core/ipv4\ip4_addr.c ****       if (len++ >= buflen) {
 307:C:/Users/stapi/OneDrive/Desktop/GD32VW553/V1_MQTT_OK/GD32VW55X_Wifi_BLE_SDK/GD32VW55x_RELEASE_V1.0.2/MSDK/lwip/lwip-2.1.2/src/core/ipv4\ip4_addr.c ****         return NULL;
 308:C:/Users/stapi/OneDrive/Desktop/GD32VW553/V1_MQTT_OK/GD32VW55X_Wifi_BLE_SDK/GD32VW55x_RELEASE_V1.0.2/MSDK/lwip/lwip-2.1.2/src/core/ipv4\ip4_addr.c ****       }
 309:C:/Users/stapi/OneDrive/Desktop/GD32VW553/V1_MQTT_OK/GD32VW55X_Wifi_BLE_SDK/GD32VW55x_RELEASE_V1.0.2/MSDK/lwip/lwip-2.1.2/src/core/ipv4\ip4_addr.c ****       *rp++ = inv[i];
 310:C:/Users/stapi/OneDrive/Desktop/GD32VW553/V1_MQTT_OK/GD32VW55X_Wifi_BLE_SDK/GD32VW55x_RELEASE_V1.0.2/MSDK/lwip/lwip-2.1.2/src/core/ipv4\ip4_addr.c ****     }
 311:C:/Users/stapi/OneDrive/Desktop/GD32VW553/V1_MQTT_OK/GD32VW55X_Wifi_BLE_SDK/GD32VW55x_RELEASE_V1.0.2/MSDK/lwip/lwip-2.1.2/src/core/ipv4\ip4_addr.c ****     if (len++ >= buflen) {
 312:C:/Users/stapi/OneDrive/Desktop/GD32VW553/V1_MQTT_OK/GD32VW55X_Wifi_BLE_SDK/GD32VW55x_RELEASE_V1.0.2/MSDK/lwip/lwip-2.1.2/src/core/ipv4\ip4_addr.c ****       return NULL;
 313:C:/Users/stapi/OneDrive/Desktop/GD32VW553/V1_MQTT_OK/GD32VW55X_Wifi_BLE_SDK/GD32VW55x_RELEASE_V1.0.2/MSDK/lwip/lwip-2.1.2/src/core/ipv4\ip4_addr.c ****     }
 314:C:/Users/stapi/OneDrive/Desktop/GD32VW553/V1_MQTT_OK/GD32VW55X_Wifi_BLE_SDK/GD32VW55x_RELEASE_V1.0.2/MSDK/lwip/lwip-2.1.2/src/core/ipv4\ip4_addr.c ****     *rp++ = '.';
 588              		.loc 1 314 11
 589 0014 930EE002 		li	t4,46
 590              	.LVL60:
 591              	.L74:
 592 0018 03C70600 		lbu	a4,0(a3)
 299:C:/Users/stapi/OneDrive/Desktop/GD32VW553/V1_MQTT_OK/GD32VW55X_Wifi_BLE_SDK/GD32VW55x_RELEASE_V1.0.2/MSDK/lwip/lwip-2.1.2/src/core/ipv4\ip4_addr.c ****     do {
 593              		.loc 1 299 7
 594 001c 0148     		li	a6,0
 595              	.L70:
 596              	.LVL61:
 300:C:/Users/stapi/OneDrive/Desktop/GD32VW553/V1_MQTT_OK/GD32VW55X_Wifi_BLE_SDK/GD32VW55x_RELEASE_V1.0.2/MSDK/lwip/lwip-2.1.2/src/core/ipv4\ip4_addr.c ****       rem = *ap % (u8_t)10;
 597              		.loc 1 300 5 is_stmt 1 discriminator 1
 301:C:/Users/stapi/OneDrive/Desktop/GD32VW553/V1_MQTT_OK/GD32VW55X_Wifi_BLE_SDK/GD32VW55x_RELEASE_V1.0.2/MSDK/lwip/lwip-2.1.2/src/core/ipv4\ip4_addr.c ****       *ap /= (u8_t)10;
 598              		.loc 1 301 7 discriminator 1
 301:C:/Users/stapi/OneDrive/Desktop/GD32VW553/V1_MQTT_OK/GD32VW55X_Wifi_BLE_SDK/GD32VW55x_RELEASE_V1.0.2/MSDK/lwip/lwip-2.1.2/src/core/ipv4\ip4_addr.c ****       *ap /= (u8_t)10;
 599              		.loc 1 301 11 is_stmt 0 discriminator 1
 600 001e B378C703 		remu	a7,a4,t3
 601              	.LVL62:
 302:C:/Users/stapi/OneDrive/Desktop/GD32VW553/V1_MQTT_OK/GD32VW55X_Wifi_BLE_SDK/GD32VW55x_RELEASE_V1.0.2/MSDK/lwip/lwip-2.1.2/src/core/ipv4\ip4_addr.c ****       inv[i++] = (char)('0' + rem);
 602              		.loc 1 302 7 is_stmt 1 discriminator 1
 603 0022 C287     		mv	a5,a6
 303:C:/Users/stapi/OneDrive/Desktop/GD32VW553/V1_MQTT_OK/GD32VW55X_Wifi_BLE_SDK/GD32VW55x_RELEASE_V1.0.2/MSDK/lwip/lwip-2.1.2/src/core/ipv4\ip4_addr.c ****     } while (*ap);
 604              		.loc 1 303 16 is_stmt 0 discriminator 1
 605 0024 93030101 		addi	t2,sp,16
 606              	.LVL63:
 607 0028 BE93     		add	t2,t2,a5
 608              	.LVL64:
 609 002a BA82     		mv	t0,a4
 303:C:/Users/stapi/OneDrive/Desktop/GD32VW553/V1_MQTT_OK/GD32VW55X_Wifi_BLE_SDK/GD32VW55x_RELEASE_V1.0.2/MSDK/lwip/lwip-2.1.2/src/core/ipv4\ip4_addr.c ****     } while (*ap);
 610              		.loc 1 303 12 discriminator 1
 611 002c 0508     		addi	a6,a6,1
 612              	.LVL65:
 613 002e 1378F80F 		andi	a6,a6,0xff
 303:C:/Users/stapi/OneDrive/Desktop/GD32VW553/V1_MQTT_OK/GD32VW55X_Wifi_BLE_SDK/GD32VW55x_RELEASE_V1.0.2/MSDK/lwip/lwip-2.1.2/src/core/ipv4\ip4_addr.c ****     } while (*ap);
 614              		.loc 1 303 29 discriminator 1
 615 0032 93880803 		addi	a7,a7,48
 616              	.LVL66:
 303:C:/Users/stapi/OneDrive/Desktop/GD32VW553/V1_MQTT_OK/GD32VW55X_Wifi_BLE_SDK/GD32VW55x_RELEASE_V1.0.2/MSDK/lwip/lwip-2.1.2/src/core/ipv4\ip4_addr.c ****     } while (*ap);
 617              		.loc 1 303 16 discriminator 1
 618 0036 238C13FF 		sb	a7,-8(t2)
 302:C:/Users/stapi/OneDrive/Desktop/GD32VW553/V1_MQTT_OK/GD32VW55X_Wifi_BLE_SDK/GD32VW55x_RELEASE_V1.0.2/MSDK/lwip/lwip-2.1.2/src/core/ipv4\ip4_addr.c ****       inv[i++] = (char)('0' + rem);
 619              		.loc 1 302 11 discriminator 1
 620 003a 3357C703 		divu	a4,a4,t3
 303:C:/Users/stapi/OneDrive/Desktop/GD32VW553/V1_MQTT_OK/GD32VW55X_Wifi_BLE_SDK/GD32VW55x_RELEASE_V1.0.2/MSDK/lwip/lwip-2.1.2/src/core/ipv4\ip4_addr.c ****     } while (*ap);
 621              		.loc 1 303 7 is_stmt 1 discriminator 1
 622              	.LVL67:
 304:C:/Users/stapi/OneDrive/Desktop/GD32VW553/V1_MQTT_OK/GD32VW55X_Wifi_BLE_SDK/GD32VW55x_RELEASE_V1.0.2/MSDK/lwip/lwip-2.1.2/src/core/ipv4\ip4_addr.c ****     while (i--) {
 623              		.loc 1 304 13 discriminator 1
 304:C:/Users/stapi/OneDrive/Desktop/GD32VW553/V1_MQTT_OK/GD32VW55X_Wifi_BLE_SDK/GD32VW55x_RELEASE_V1.0.2/MSDK/lwip/lwip-2.1.2/src/core/ipv4\ip4_addr.c ****     while (i--) {
 624              		.loc 1 304 5 is_stmt 0 discriminator 1
 625 003e E3605FFE 		bgtu	t0,t5,.L70
 626 0042 2380E600 		sb	a4,0(a3)
 304:C:/Users/stapi/OneDrive/Desktop/GD32VW553/V1_MQTT_OK/GD32VW55X_Wifi_BLE_SDK/GD32VW55x_RELEASE_V1.0.2/MSDK/lwip/lwip-2.1.2/src/core/ipv4\ip4_addr.c ****     while (i--) {
 627              		.loc 1 304 5
 628 0046 2A88     		mv	a6,a0
 629              	.LVL68:
 630 0048 1A87     		mv	a4,t1
 631              	.LVL69:
 632              	.L71:
 305:C:/Users/stapi/OneDrive/Desktop/GD32VW553/V1_MQTT_OK/GD32VW55X_Wifi_BLE_SDK/GD32VW55x_RELEASE_V1.0.2/MSDK/lwip/lwip-2.1.2/src/core/ipv4\ip4_addr.c ****       if (len++ >= buflen) {
 633              		.loc 1 305 11 is_stmt 1
 306:C:/Users/stapi/OneDrive/Desktop/GD32VW553/V1_MQTT_OK/GD32VW55X_Wifi_BLE_SDK/GD32VW55x_RELEASE_V1.0.2/MSDK/lwip/lwip-2.1.2/src/core/ipv4\ip4_addr.c ****         return NULL;
 634              		.loc 1 306 14 is_stmt 0
 635 004a 0505     		addi	a0,a0,1
 636              	.LVL70:
 305:C:/Users/stapi/OneDrive/Desktop/GD32VW553/V1_MQTT_OK/GD32VW55X_Wifi_BLE_SDK/GD32VW55x_RELEASE_V1.0.2/MSDK/lwip/lwip-2.1.2/src/core/ipv4\ip4_addr.c ****       if (len++ >= buflen) {
 637              		.loc 1 305 11
 638 004c 6391F703 		bne	a5,t6,.L73
 311:C:/Users/stapi/OneDrive/Desktop/GD32VW553/V1_MQTT_OK/GD32VW55X_Wifi_BLE_SDK/GD32VW55x_RELEASE_V1.0.2/MSDK/lwip/lwip-2.1.2/src/core/ipv4\ip4_addr.c ****       return NULL;
 639              		.loc 1 311 5 is_stmt 1
 640              	.LVL71:
 311:C:/Users/stapi/OneDrive/Desktop/GD32VW553/V1_MQTT_OK/GD32VW55X_Wifi_BLE_SDK/GD32VW55x_RELEASE_V1.0.2/MSDK/lwip/lwip-2.1.2/src/core/ipv4\ip4_addr.c ****       return NULL;
 641              		.loc 1 311 8 is_stmt 0
 642 0050 6350C804 		bge	a6,a2,.L76
 643              		.loc 1 314 5 is_stmt 1 discriminator 2
 644              		.loc 1 314 11 is_stmt 0 discriminator 2
 645 0054 2300D701 		sb	t4,0(a4)
 315:C:/Users/stapi/OneDrive/Desktop/GD32VW553/V1_MQTT_OK/GD32VW55X_Wifi_BLE_SDK/GD32VW55x_RELEASE_V1.0.2/MSDK/lwip/lwip-2.1.2/src/core/ipv4\ip4_addr.c ****     ap++;
 646              		.loc 1 315 7 discriminator 2
 647 0058 8506     		addi	a3,a3,1
 648              	.LVL72:
 298:C:/Users/stapi/OneDrive/Desktop/GD32VW553/V1_MQTT_OK/GD32VW55X_Wifi_BLE_SDK/GD32VW55x_RELEASE_V1.0.2/MSDK/lwip/lwip-2.1.2/src/core/ipv4\ip4_addr.c ****     i = 0;
 649              		.loc 1 298 3 discriminator 2
 650 005a 1C08     		addi	a5,sp,16
 651              	.LVL73:
 314:C:/Users/stapi/OneDrive/Desktop/GD32VW553/V1_MQTT_OK/GD32VW55X_Wifi_BLE_SDK/GD32VW55x_RELEASE_V1.0.2/MSDK/lwip/lwip-2.1.2/src/core/ipv4\ip4_addr.c ****     ap++;
 652              		.loc 1 314 8 discriminator 2
 653 005c 13031700 		addi	t1,a4,1
 654              	.LVL74:
 655              		.loc 1 315 5 is_stmt 1 discriminator 2
 298:C:/Users/stapi/OneDrive/Desktop/GD32VW553/V1_MQTT_OK/GD32VW55X_Wifi_BLE_SDK/GD32VW55x_RELEASE_V1.0.2/MSDK/lwip/lwip-2.1.2/src/core/ipv4\ip4_addr.c ****     i = 0;
 656              		.loc 1 298 22 discriminator 2
 298:C:/Users/stapi/OneDrive/Desktop/GD32VW553/V1_MQTT_OK/GD32VW55X_Wifi_BLE_SDK/GD32VW55x_RELEASE_V1.0.2/MSDK/lwip/lwip-2.1.2/src/core/ipv4\ip4_addr.c ****     i = 0;
 657              		.loc 1 298 15 discriminator 2
 298:C:/Users/stapi/OneDrive/Desktop/GD32VW553/V1_MQTT_OK/GD32VW55X_Wifi_BLE_SDK/GD32VW55x_RELEASE_V1.0.2/MSDK/lwip/lwip-2.1.2/src/core/ipv4\ip4_addr.c ****     i = 0;
 658              		.loc 1 298 3 is_stmt 0 discriminator 2
 659 0060 E39CF6FA 		bne	a3,a5,.L74
 316:C:/Users/stapi/OneDrive/Desktop/GD32VW553/V1_MQTT_OK/GD32VW55X_Wifi_BLE_SDK/GD32VW55x_RELEASE_V1.0.2/MSDK/lwip/lwip-2.1.2/src/core/ipv4\ip4_addr.c ****   }
 317:C:/Users/stapi/OneDrive/Desktop/GD32VW553/V1_MQTT_OK/GD32VW55X_Wifi_BLE_SDK/GD32VW55x_RELEASE_V1.0.2/MSDK/lwip/lwip-2.1.2/src/core/ipv4\ip4_addr.c ****   *--rp = 0;
 660              		.loc 1 317 3 is_stmt 1
 661              	.LVL75:
 662              		.loc 1 317 9 is_stmt 0
 663 0064 23000700 		sb	zero,0(a4)
 318:C:/Users/stapi/OneDrive/Desktop/GD32VW553/V1_MQTT_OK/GD32VW55X_Wifi_BLE_SDK/GD32VW55x_RELEASE_V1.0.2/MSDK/lwip/lwip-2.1.2/src/core/ipv4\ip4_addr.c ****   return buf;
 664              		.loc 1 318 3 is_stmt 1
 665              		.loc 1 318 10 is_stmt 0
 666 0068 2E85     		mv	a0,a1
 667              	.LVL76:
 668              	.L69:
 319:C:/Users/stapi/OneDrive/Desktop/GD32VW553/V1_MQTT_OK/GD32VW55X_Wifi_BLE_SDK/GD32VW55x_RELEASE_V1.0.2/MSDK/lwip/lwip-2.1.2/src/core/ipv4\ip4_addr.c **** }
 669              		.loc 1 319 1
 670 006a 4101     		addi	sp,sp,16
 671              		.cfi_remember_state
 672              		.cfi_def_cfa_offset 0
 673 006c 8280     		jr	ra
 674              	.LVL77:
 675              	.L73:
 676              		.cfi_restore_state
 306:C:/Users/stapi/OneDrive/Desktop/GD32VW553/V1_MQTT_OK/GD32VW55X_Wifi_BLE_SDK/GD32VW55x_RELEASE_V1.0.2/MSDK/lwip/lwip-2.1.2/src/core/ipv4\ip4_addr.c ****         return NULL;
 677              		.loc 1 306 7 is_stmt 1
 306:C:/Users/stapi/OneDrive/Desktop/GD32VW553/V1_MQTT_OK/GD32VW55X_Wifi_BLE_SDK/GD32VW55x_RELEASE_V1.0.2/MSDK/lwip/lwip-2.1.2/src/core/ipv4\ip4_addr.c ****         return NULL;
 678              		.loc 1 306 10 is_stmt 0
 679 006e 9388F7FF 		addi	a7,a5,-1
 680 0072 93F8F80F 		andi	a7,a7,0xff
 681 0076 635DC800 		bge	a6,a2,.L76
 309:C:/Users/stapi/OneDrive/Desktop/GD32VW553/V1_MQTT_OK/GD32VW55X_Wifi_BLE_SDK/GD32VW55x_RELEASE_V1.0.2/MSDK/lwip/lwip-2.1.2/src/core/ipv4\ip4_addr.c ****     }
 682              		.loc 1 309 7 is_stmt 1
 309:C:/Users/stapi/OneDrive/Desktop/GD32VW553/V1_MQTT_OK/GD32VW55X_Wifi_BLE_SDK/GD32VW55x_RELEASE_V1.0.2/MSDK/lwip/lwip-2.1.2/src/core/ipv4\ip4_addr.c ****     }
 683              		.loc 1 309 18 is_stmt 0
 684 007a 13080101 		addi	a6,sp,16
 685              	.LVL78:
 686 007e C297     		add	a5,a6,a5
 687              	.LVL79:
 309:C:/Users/stapi/OneDrive/Desktop/GD32VW553/V1_MQTT_OK/GD32VW55X_Wifi_BLE_SDK/GD32VW55x_RELEASE_V1.0.2/MSDK/lwip/lwip-2.1.2/src/core/ipv4\ip4_addr.c ****     }
 688              		.loc 1 309 13
 689 0080 83C787FF 		lbu	a5,-8(a5)
 309:C:/Users/stapi/OneDrive/Desktop/GD32VW553/V1_MQTT_OK/GD32VW55X_Wifi_BLE_SDK/GD32VW55x_RELEASE_V1.0.2/MSDK/lwip/lwip-2.1.2/src/core/ipv4\ip4_addr.c ****     }
 690              		.loc 1 309 10
 691 0084 0507     		addi	a4,a4,1
 692              	.LVL80:
 306:C:/Users/stapi/OneDrive/Desktop/GD32VW553/V1_MQTT_OK/GD32VW55X_Wifi_BLE_SDK/GD32VW55x_RELEASE_V1.0.2/MSDK/lwip/lwip-2.1.2/src/core/ipv4\ip4_addr.c ****         return NULL;
 693              		.loc 1 306 14
 694 0086 2A88     		mv	a6,a0
 695              	.LVL81:
 309:C:/Users/stapi/OneDrive/Desktop/GD32VW553/V1_MQTT_OK/GD32VW55X_Wifi_BLE_SDK/GD32VW55x_RELEASE_V1.0.2/MSDK/lwip/lwip-2.1.2/src/core/ipv4\ip4_addr.c ****     }
 696              		.loc 1 309 13
 697 0088 A30FF7FE 		sb	a5,-1(a4)
 698 008c C687     		mv	a5,a7
 699 008e 75BF     		j	.L71
 700              	.LVL82:
 701              	.L76:
 307:C:/Users/stapi/OneDrive/Desktop/GD32VW553/V1_MQTT_OK/GD32VW55X_Wifi_BLE_SDK/GD32VW55x_RELEASE_V1.0.2/MSDK/lwip/lwip-2.1.2/src/core/ipv4\ip4_addr.c ****       }
 702              		.loc 1 307 16
 703 0090 0145     		li	a0,0
 704 0092 E1BF     		j	.L69
 705              		.cfi_endproc
 706              	.LFE8:
 708              		.section	.text.ip4addr_ntoa,"ax",@progbits
 709              		.align	1
 710              		.globl	ip4addr_ntoa
 712              	ip4addr_ntoa:
 713              	.LFB7:
 268:C:/Users/stapi/OneDrive/Desktop/GD32VW553/V1_MQTT_OK/GD32VW55X_Wifi_BLE_SDK/GD32VW55x_RELEASE_V1.0.2/MSDK/lwip/lwip-2.1.2/src/core/ipv4\ip4_addr.c ****   static char str[IP4ADDR_STRLEN_MAX];
 714              		.loc 1 268 1 is_stmt 1
 715              		.cfi_startproc
 716              	.LVL83:
 269:C:/Users/stapi/OneDrive/Desktop/GD32VW553/V1_MQTT_OK/GD32VW55X_Wifi_BLE_SDK/GD32VW55x_RELEASE_V1.0.2/MSDK/lwip/lwip-2.1.2/src/core/ipv4\ip4_addr.c ****   return ip4addr_ntoa_r(addr, str, IP4ADDR_STRLEN_MAX);
 717              		.loc 1 269 3
 270:C:/Users/stapi/OneDrive/Desktop/GD32VW553/V1_MQTT_OK/GD32VW55X_Wifi_BLE_SDK/GD32VW55x_RELEASE_V1.0.2/MSDK/lwip/lwip-2.1.2/src/core/ipv4\ip4_addr.c **** }
 718              		.loc 1 270 3
 270:C:/Users/stapi/OneDrive/Desktop/GD32VW553/V1_MQTT_OK/GD32VW55X_Wifi_BLE_SDK/GD32VW55x_RELEASE_V1.0.2/MSDK/lwip/lwip-2.1.2/src/core/ipv4\ip4_addr.c **** }
 719              		.loc 1 270 10 is_stmt 0
 720 0000 B7050000 		lui	a1,%hi(.LANCHOR0)
 721 0004 4146     		li	a2,16
 722 0006 93850500 		addi	a1,a1,%lo(.LANCHOR0)
 723 000a 17030000 		tail	ip4addr_ntoa_r
 723      67000300 
 724              	.LVL84:
 725              		.cfi_endproc
 726              	.LFE7:
 728              		.globl	ip_addr_broadcast
 729              		.globl	ip_addr_any
 730              		.section	.bss.str.0,"aw",@nobits
 731              		.align	2
 732              		.set	.LANCHOR0,. + 0
 735              	str.0:
 736 0000 00000000 		.zero	16
 736      00000000 
 736      00000000 
 736      00000000 
 737              		.section	.srodata.ip_addr_any,"a"
 738              		.align	2
 741              	ip_addr_any:
 742 0000 00000000 		.zero	4
 743              		.section	.srodata.ip_addr_broadcast,"a"
 744              		.align	2
 747              	ip_addr_broadcast:
 748 0000 FFFFFFFF 		.word	-1
 749              		.text
 750              	.Letext0:
 751              		.file 2 "c:\\users\\stapi\\onedrive\\desktop\\gd32vw553\\embeddedbuilder_v1.4.7.26843\\tools\\nucl
 752              		.file 3 "c:\\users\\stapi\\onedrive\\desktop\\gd32vw553\\embeddedbuilder_v1.4.7.26843\\tools\\nucl
 753              		.file 4 "..\\..\\..\\..\\lwip\\lwip-2.1.2\\src\\include/lwip/arch.h"
 754              		.file 5 "..\\..\\..\\..\\lwip\\lwip-2.1.2\\src\\include/lwip/ip4_addr.h"
 755              		.file 6 "..\\..\\..\\..\\lwip\\lwip-2.1.2\\src\\include/lwip/ip_addr.h"
 756              		.file 7 "c:\\users\\stapi\\onedrive\\desktop\\gd32vw553\\embeddedbuilder_v1.4.7.26843\\tools\\nucl
 757              		.file 8 "..\\..\\..\\..\\lwip\\lwip-2.1.2\\src\\include/lwip/err.h"
 758              		.file 9 "..\\..\\..\\..\\lwip\\lwip-2.1.2\\src\\include/lwip/pbuf.h"
 759              		.file 10 "..\\..\\..\\..\\lwip\\lwip-2.1.2\\src\\include/lwip/netif.h"
 760              		.file 11 "..\\..\\..\\..\\lwip\\lwip-2.1.2\\src\\include/lwip/def.h"
 761              		.file 12 "c:\\users\\stapi\\onedrive\\desktop\\gd32vw553\\embeddedbuilder_v1.4.7.26843\\tools\\nuc
 762              		.file 13 "..\\..\\..\\..\\lwip\\lwip-2.1.2\\src\\include/lwip/memp.h"
DEFINED SYMBOLS
                            *ABS*:0000000000000000 ip4_addr.c
C:\Users\stapi\AppData\Local\Temp\ccxXyLJa.s:13     .text.ip4_addr_isbroadcast_u32:0000000000000000 ip4_addr_isbroadcast_u32
C:\Users\stapi\AppData\Local\Temp\ccxXyLJa.s:17     .text.ip4_addr_isbroadcast_u32:0000000000000000 .L0 
C:\Users\stapi\AppData\Local\Temp\ccxXyLJa.s:19     .text.ip4_addr_isbroadcast_u32:0000000000000000 .L0 
C:\Users\stapi\AppData\Local\Temp\ccxXyLJa.s:20     .text.ip4_addr_isbroadcast_u32:0000000000000000 .L0 
C:\Users\stapi\AppData\Local\Temp\ccxXyLJa.s:21     .text.ip4_addr_isbroadcast_u32:0000000000000000 .L0 
C:\Users\stapi\AppData\Local\Temp\ccxXyLJa.s:22     .text.ip4_addr_isbroadcast_u32:0000000000000000 .L0 
C:\Users\stapi\AppData\Local\Temp\ccxXyLJa.s:23     .text.ip4_addr_isbroadcast_u32:0000000000000000 .L0 
C:\Users\stapi\AppData\Local\Temp\ccxXyLJa.s:25     .text.ip4_addr_isbroadcast_u32:0000000000000004 .L0 
C:\Users\stapi\AppData\Local\Temp\ccxXyLJa.s:27     .text.ip4_addr_isbroadcast_u32:0000000000000006 .L0 
C:\Users\stapi\AppData\Local\Temp\ccxXyLJa.s:29     .text.ip4_addr_isbroadcast_u32:0000000000000008 .L0 
C:\Users\stapi\AppData\Local\Temp\ccxXyLJa.s:31     .text.ip4_addr_isbroadcast_u32:000000000000000c .L0 
C:\Users\stapi\AppData\Local\Temp\ccxXyLJa.s:35     .text.ip4_addr_isbroadcast_u32:0000000000000014 .L0 
C:\Users\stapi\AppData\Local\Temp\ccxXyLJa.s:37     .text.ip4_addr_isbroadcast_u32:0000000000000016 .L0 
C:\Users\stapi\AppData\Local\Temp\ccxXyLJa.s:38     .text.ip4_addr_isbroadcast_u32:0000000000000016 .L0 
C:\Users\stapi\AppData\Local\Temp\ccxXyLJa.s:40     .text.ip4_addr_isbroadcast_u32:0000000000000018 .L0 
C:\Users\stapi\AppData\Local\Temp\ccxXyLJa.s:42     .text.ip4_addr_isbroadcast_u32:000000000000001a .L0 
C:\Users\stapi\AppData\Local\Temp\ccxXyLJa.s:44     .text.ip4_addr_isbroadcast_u32:000000000000001e .L0 
C:\Users\stapi\AppData\Local\Temp\ccxXyLJa.s:45     .text.ip4_addr_isbroadcast_u32:000000000000001e .L0 
C:\Users\stapi\AppData\Local\Temp\ccxXyLJa.s:49     .text.ip4_addr_isbroadcast_u32:0000000000000024 .L0 
C:\Users\stapi\AppData\Local\Temp\ccxXyLJa.s:51     .text.ip4_addr_isbroadcast_u32:0000000000000026 .L0 
C:\Users\stapi\AppData\Local\Temp\ccxXyLJa.s:53     .text.ip4_addr_isbroadcast_u32:000000000000002a .L0 
C:\Users\stapi\AppData\Local\Temp\ccxXyLJa.s:55     .text.ip4_addr_isbroadcast_u32:000000000000002e .L0 
C:\Users\stapi\AppData\Local\Temp\ccxXyLJa.s:60     .text.ip4_addr_isbroadcast_u32:0000000000000034 .L0 
C:\Users\stapi\AppData\Local\Temp\ccxXyLJa.s:64     .text.ip4_addr_isbroadcast_u32:0000000000000036 .L0 
C:\Users\stapi\AppData\Local\Temp\ccxXyLJa.s:65     .text.ip4_addr_isbroadcast_u32:0000000000000038 .L0 
C:\Users\stapi\AppData\Local\Temp\ccxXyLJa.s:72     .text.ip4_addr_netmask_valid:0000000000000000 ip4_addr_netmask_valid
C:\Users\stapi\AppData\Local\Temp\ccxXyLJa.s:75     .text.ip4_addr_netmask_valid:0000000000000000 .L0 
C:\Users\stapi\AppData\Local\Temp\ccxXyLJa.s:77     .text.ip4_addr_netmask_valid:0000000000000000 .L0 
C:\Users\stapi\AppData\Local\Temp\ccxXyLJa.s:78     .text.ip4_addr_netmask_valid:0000000000000008 .L0 
C:\Users\stapi\AppData\Local\Temp\ccxXyLJa.s:79     .text.ip4_addr_netmask_valid:0000000000000008 .L0 
C:\Users\stapi\AppData\Local\Temp\ccxXyLJa.s:81     .text.ip4_addr_netmask_valid:0000000000000008 .L0 
C:\Users\stapi\AppData\Local\Temp\ccxXyLJa.s:82     .text.ip4_addr_netmask_valid:0000000000000008 .L0 
C:\Users\stapi\AppData\Local\Temp\ccxXyLJa.s:83     .text.ip4_addr_netmask_valid:0000000000000008 .L0 
C:\Users\stapi\AppData\Local\Temp\ccxXyLJa.s:86     .text.ip4_addr_netmask_valid:0000000000000010 .L0 
C:\Users\stapi\AppData\Local\Temp\ccxXyLJa.s:87     .text.ip4_addr_netmask_valid:0000000000000010 .L0 
C:\Users\stapi\AppData\Local\Temp\ccxXyLJa.s:88     .text.ip4_addr_netmask_valid:0000000000000010 .L0 
C:\Users\stapi\AppData\Local\Temp\ccxXyLJa.s:90     .text.ip4_addr_netmask_valid:0000000000000014 .L0 
C:\Users\stapi\AppData\Local\Temp\ccxXyLJa.s:94     .text.ip4_addr_netmask_valid:0000000000000018 .L0 
C:\Users\stapi\AppData\Local\Temp\ccxXyLJa.s:95     .text.ip4_addr_netmask_valid:0000000000000018 .L0 
C:\Users\stapi\AppData\Local\Temp\ccxXyLJa.s:97     .text.ip4_addr_netmask_valid:000000000000001c .L0 
C:\Users\stapi\AppData\Local\Temp\ccxXyLJa.s:99     .text.ip4_addr_netmask_valid:000000000000001e .L0 
C:\Users\stapi\AppData\Local\Temp\ccxXyLJa.s:100    .text.ip4_addr_netmask_valid:000000000000001e .L0 
C:\Users\stapi\AppData\Local\Temp\ccxXyLJa.s:102    .text.ip4_addr_netmask_valid:0000000000000020 .L0 
C:\Users\stapi\AppData\Local\Temp\ccxXyLJa.s:105    .text.ip4_addr_netmask_valid:0000000000000022 .L0 
C:\Users\stapi\AppData\Local\Temp\ccxXyLJa.s:106    .text.ip4_addr_netmask_valid:0000000000000022 .L0 
C:\Users\stapi\AppData\Local\Temp\ccxXyLJa.s:109    .text.ip4_addr_netmask_valid:0000000000000024 .L0 
C:\Users\stapi\AppData\Local\Temp\ccxXyLJa.s:113    .text.ip4_addr_netmask_valid:0000000000000026 .L0 
C:\Users\stapi\AppData\Local\Temp\ccxXyLJa.s:114    .text.ip4_addr_netmask_valid:000000000000002e .L0 
C:\Users\stapi\AppData\Local\Temp\ccxXyLJa.s:115    .text.ip4_addr_netmask_valid:000000000000002e .L0 
C:\Users\stapi\AppData\Local\Temp\ccxXyLJa.s:116    .text.ip4_addr_netmask_valid:000000000000002e .L0 
C:\Users\stapi\AppData\Local\Temp\ccxXyLJa.s:119    .text.ip4_addr_netmask_valid:000000000000002e .L0 
C:\Users\stapi\AppData\Local\Temp\ccxXyLJa.s:121    .text.ip4_addr_netmask_valid:000000000000002e .L0 
C:\Users\stapi\AppData\Local\Temp\ccxXyLJa.s:122    .text.ip4_addr_netmask_valid:000000000000002e .L0 
C:\Users\stapi\AppData\Local\Temp\ccxXyLJa.s:124    .text.ip4_addr_netmask_valid:0000000000000032 .L0 
C:\Users\stapi\AppData\Local\Temp\ccxXyLJa.s:126    .text.ip4_addr_netmask_valid:0000000000000034 .L0 
C:\Users\stapi\AppData\Local\Temp\ccxXyLJa.s:127    .text.ip4_addr_netmask_valid:0000000000000034 .L0 
C:\Users\stapi\AppData\Local\Temp\ccxXyLJa.s:131    .text.ip4_addr_netmask_valid:0000000000000036 .L0 
C:\Users\stapi\AppData\Local\Temp\ccxXyLJa.s:132    .text.ip4_addr_netmask_valid:0000000000000036 .L0 
C:\Users\stapi\AppData\Local\Temp\ccxXyLJa.s:136    .text.ip4_addr_netmask_valid:000000000000003a .L0 
C:\Users\stapi\AppData\Local\Temp\ccxXyLJa.s:139    .text.ip4_addr_netmask_valid:000000000000003e .L0 
C:\Users\stapi\AppData\Local\Temp\ccxXyLJa.s:156    .text.ip4addr_aton:0000000000000000 ip4addr_aton
C:\Users\stapi\AppData\Local\Temp\ccxXyLJa.s:159    .text.ip4addr_aton:0000000000000000 .L0 
C:\Users\stapi\AppData\Local\Temp\ccxXyLJa.s:161    .text.ip4addr_aton:0000000000000000 .L0 
C:\Users\stapi\AppData\Local\Temp\ccxXyLJa.s:162    .text.ip4addr_aton:0000000000000008 .L0 
C:\Users\stapi\AppData\Local\Temp\ccxXyLJa.s:163    .text.ip4addr_aton:0000000000000008 .L0 
C:\Users\stapi\AppData\Local\Temp\ccxXyLJa.s:164    .text.ip4addr_aton:0000000000000008 .L0 
C:\Users\stapi\AppData\Local\Temp\ccxXyLJa.s:165    .text.ip4addr_aton:0000000000000008 .L0 
C:\Users\stapi\AppData\Local\Temp\ccxXyLJa.s:167    .text.ip4addr_aton:0000000000000008 .L0 
C:\Users\stapi\AppData\Local\Temp\ccxXyLJa.s:168    .text.ip4addr_aton:0000000000000008 .L0 
C:\Users\stapi\AppData\Local\Temp\ccxXyLJa.s:169    .text.ip4addr_aton:0000000000000008 .L0 
C:\Users\stapi\AppData\Local\Temp\ccxXyLJa.s:170    .text.ip4addr_aton:0000000000000008 .L0 
C:\Users\stapi\AppData\Local\Temp\ccxXyLJa.s:171    .text.ip4addr_aton:0000000000000008 .L0 
C:\Users\stapi\AppData\Local\Temp\ccxXyLJa.s:172    .text.ip4addr_aton:0000000000000008 .L0 
C:\Users\stapi\AppData\Local\Temp\ccxXyLJa.s:173    .text.ip4addr_aton:000000000000000a .L0 
C:\Users\stapi\AppData\Local\Temp\ccxXyLJa.s:176    .text.ip4addr_aton:000000000000000a .L0 
C:\Users\stapi\AppData\Local\Temp\ccxXyLJa.s:177    .text.ip4addr_aton:000000000000000a .L0 
C:\Users\stapi\AppData\Local\Temp\ccxXyLJa.s:179    .text.ip4addr_aton:000000000000000c .L0 
C:\Users\stapi\AppData\Local\Temp\ccxXyLJa.s:181    .text.ip4addr_aton:000000000000000e .L0 
C:\Users\stapi\AppData\Local\Temp\ccxXyLJa.s:186    .text.ip4addr_aton:0000000000000018 .L0 
C:\Users\stapi\AppData\Local\Temp\ccxXyLJa.s:188    .text.ip4addr_aton:000000000000001c .L0 
C:\Users\stapi\AppData\Local\Temp\ccxXyLJa.s:190    .text.ip4addr_aton:0000000000000020 .L0 
C:\Users\stapi\AppData\Local\Temp\ccxXyLJa.s:192    .text.ip4addr_aton:0000000000000022 .L0 
C:\Users\stapi\AppData\Local\Temp\ccxXyLJa.s:194    .text.ip4addr_aton:0000000000000024 .L0 
C:\Users\stapi\AppData\Local\Temp\ccxXyLJa.s:196    .text.ip4addr_aton:0000000000000028 .L0 
C:\Users\stapi\AppData\Local\Temp\ccxXyLJa.s:198    .text.ip4addr_aton:000000000000002c .L0 
C:\Users\stapi\AppData\Local\Temp\ccxXyLJa.s:202    .text.ip4addr_aton:0000000000000030 .L0 
C:\Users\stapi\AppData\Local\Temp\ccxXyLJa.s:203    .text.ip4addr_aton:0000000000000030 .L0 
C:\Users\stapi\AppData\Local\Temp\ccxXyLJa.s:204    .text.ip4addr_aton:0000000000000030 .L0 
C:\Users\stapi\AppData\Local\Temp\ccxXyLJa.s:207    .text.ip4addr_aton:0000000000000036 .L0 
C:\Users\stapi\AppData\Local\Temp\ccxXyLJa.s:212    .text.ip4addr_aton:0000000000000040 .L0 
C:\Users\stapi\AppData\Local\Temp\ccxXyLJa.s:213    .text.ip4addr_aton:0000000000000040 .L0 
C:\Users\stapi\AppData\Local\Temp\ccxXyLJa.s:214    .text.ip4addr_aton:0000000000000040 .L0 
C:\Users\stapi\AppData\Local\Temp\ccxXyLJa.s:215    .text.ip4addr_aton:0000000000000040 .L0 
C:\Users\stapi\AppData\Local\Temp\ccxXyLJa.s:217    .text.ip4addr_aton:0000000000000042 .L0 
C:\Users\stapi\AppData\Local\Temp\ccxXyLJa.s:220    .text.ip4addr_aton:0000000000000046 .L0 
C:\Users\stapi\AppData\Local\Temp\ccxXyLJa.s:221    .text.ip4addr_aton:0000000000000046 .L0 
C:\Users\stapi\AppData\Local\Temp\ccxXyLJa.s:224    .text.ip4addr_aton:000000000000004a .L0 
C:\Users\stapi\AppData\Local\Temp\ccxXyLJa.s:225    .text.ip4addr_aton:000000000000004a .L0 
C:\Users\stapi\AppData\Local\Temp\ccxXyLJa.s:228    .text.ip4addr_aton:0000000000000052 .L0 
C:\Users\stapi\AppData\Local\Temp\ccxXyLJa.s:231    .text.ip4addr_aton:0000000000000054 .L0 
C:\Users\stapi\AppData\Local\Temp\ccxXyLJa.s:236    .text.ip4addr_aton:000000000000005a .L0 
C:\Users\stapi\AppData\Local\Temp\ccxXyLJa.s:240    .text.ip4addr_aton:000000000000005c .L0 
C:\Users\stapi\AppData\Local\Temp\ccxXyLJa.s:246    .text.ip4addr_aton:000000000000006a .L0 
C:\Users\stapi\AppData\Local\Temp\ccxXyLJa.s:247    .text.ip4addr_aton:000000000000006a .L0 
C:\Users\stapi\AppData\Local\Temp\ccxXyLJa.s:248    .text.ip4addr_aton:000000000000006a .L0 
C:\Users\stapi\AppData\Local\Temp\ccxXyLJa.s:251    .text.ip4addr_aton:0000000000000072 .L0 
C:\Users\stapi\AppData\Local\Temp\ccxXyLJa.s:252    .text.ip4addr_aton:0000000000000072 .L0 
C:\Users\stapi\AppData\Local\Temp\ccxXyLJa.s:255    .text.ip4addr_aton:0000000000000076 .L0 
C:\Users\stapi\AppData\Local\Temp\ccxXyLJa.s:259    .text.ip4addr_aton:000000000000007a .L0 
C:\Users\stapi\AppData\Local\Temp\ccxXyLJa.s:260    .text.ip4addr_aton:000000000000007a .L0 
C:\Users\stapi\AppData\Local\Temp\ccxXyLJa.s:261    .text.ip4addr_aton:000000000000007a .L0 
C:\Users\stapi\AppData\Local\Temp\ccxXyLJa.s:269    .text.ip4addr_aton:0000000000000082 .L0 
C:\Users\stapi\AppData\Local\Temp\ccxXyLJa.s:270    .text.ip4addr_aton:0000000000000082 .L0 
C:\Users\stapi\AppData\Local\Temp\ccxXyLJa.s:271    .text.ip4addr_aton:0000000000000082 .L0 
C:\Users\stapi\AppData\Local\Temp\ccxXyLJa.s:274    .text.ip4addr_aton:0000000000000086 .L0 
C:\Users\stapi\AppData\Local\Temp\ccxXyLJa.s:276    .text.ip4addr_aton:0000000000000088 .L0 
C:\Users\stapi\AppData\Local\Temp\ccxXyLJa.s:282    .text.ip4addr_aton:000000000000008c .L0 
C:\Users\stapi\AppData\Local\Temp\ccxXyLJa.s:283    .text.ip4addr_aton:000000000000008c .L0 
C:\Users\stapi\AppData\Local\Temp\ccxXyLJa.s:285    .text.ip4addr_aton:0000000000000090 .L0 
C:\Users\stapi\AppData\Local\Temp\ccxXyLJa.s:288    .text.ip4addr_aton:0000000000000098 .L0 
C:\Users\stapi\AppData\Local\Temp\ccxXyLJa.s:289    .text.ip4addr_aton:0000000000000098 .L0 
C:\Users\stapi\AppData\Local\Temp\ccxXyLJa.s:291    .text.ip4addr_aton:000000000000009a .L0 
C:\Users\stapi\AppData\Local\Temp\ccxXyLJa.s:294    .text.ip4addr_aton:000000000000009c .L0 
C:\Users\stapi\AppData\Local\Temp\ccxXyLJa.s:297    .text.ip4addr_aton:000000000000009e .L0 
C:\Users\stapi\AppData\Local\Temp\ccxXyLJa.s:303    .text.ip4addr_aton:00000000000000aa .L0 
C:\Users\stapi\AppData\Local\Temp\ccxXyLJa.s:305    .text.ip4addr_aton:00000000000000ae .L0 
C:\Users\stapi\AppData\Local\Temp\ccxXyLJa.s:310    .text.ip4addr_aton:00000000000000b2 .L0 
C:\Users\stapi\AppData\Local\Temp\ccxXyLJa.s:311    .text.ip4addr_aton:00000000000000b2 .L0 
C:\Users\stapi\AppData\Local\Temp\ccxXyLJa.s:313    .text.ip4addr_aton:00000000000000b6 .L0 
C:\Users\stapi\AppData\Local\Temp\ccxXyLJa.s:314    .text.ip4addr_aton:00000000000000b6 .L0 
C:\Users\stapi\AppData\Local\Temp\ccxXyLJa.s:316    .text.ip4addr_aton:00000000000000ba .L0 
C:\Users\stapi\AppData\Local\Temp\ccxXyLJa.s:317    .text.ip4addr_aton:00000000000000ba .L0 
C:\Users\stapi\AppData\Local\Temp\ccxXyLJa.s:320    .text.ip4addr_aton:00000000000000bc .L0 
C:\Users\stapi\AppData\Local\Temp\ccxXyLJa.s:322    .text.ip4addr_aton:00000000000000c0 .L0 
C:\Users\stapi\AppData\Local\Temp\ccxXyLJa.s:323    .text.ip4addr_aton:00000000000000c0 .L0 
C:\Users\stapi\AppData\Local\Temp\ccxXyLJa.s:328    .text.ip4addr_aton:00000000000000c8 .L0 
C:\Users\stapi\AppData\Local\Temp\ccxXyLJa.s:329    .text.ip4addr_aton:00000000000000c8 .L0 
C:\Users\stapi\AppData\Local\Temp\ccxXyLJa.s:333    .text.ip4addr_aton:00000000000000ca .L0 
C:\Users\stapi\AppData\Local\Temp\ccxXyLJa.s:334    .text.ip4addr_aton:00000000000000ca .L0 
C:\Users\stapi\AppData\Local\Temp\ccxXyLJa.s:336    .text.ip4addr_aton:00000000000000cc .L0 
C:\Users\stapi\AppData\Local\Temp\ccxXyLJa.s:340    .text.ip4addr_aton:00000000000000d0 .L0 
C:\Users\stapi\AppData\Local\Temp\ccxXyLJa.s:341    .text.ip4addr_aton:00000000000000d0 .L0 
C:\Users\stapi\AppData\Local\Temp\ccxXyLJa.s:345    .text.ip4addr_aton:00000000000000d6 .L0 
C:\Users\stapi\AppData\Local\Temp\ccxXyLJa.s:366    .text.ip4addr_aton:00000000000000ee .L0 
C:\Users\stapi\AppData\Local\Temp\ccxXyLJa.s:367    .text.ip4addr_aton:00000000000000ee .L0 
C:\Users\stapi\AppData\Local\Temp\ccxXyLJa.s:369    .text.ip4addr_aton:00000000000000f2 .L0 
C:\Users\stapi\AppData\Local\Temp\ccxXyLJa.s:371    .text.ip4addr_aton:00000000000000f4 .L0 
C:\Users\stapi\AppData\Local\Temp\ccxXyLJa.s:373    .text.ip4addr_aton:00000000000000f8 .L0 
C:\Users\stapi\AppData\Local\Temp\ccxXyLJa.s:374    .text.ip4addr_aton:00000000000000f8 .L0 
C:\Users\stapi\AppData\Local\Temp\ccxXyLJa.s:376    .text.ip4addr_aton:00000000000000fa .L0 
C:\Users\stapi\AppData\Local\Temp\ccxXyLJa.s:379    .text.ip4addr_aton:0000000000000102 .L0 
C:\Users\stapi\AppData\Local\Temp\ccxXyLJa.s:380    .text.ip4addr_aton:0000000000000102 .L0 
C:\Users\stapi\AppData\Local\Temp\ccxXyLJa.s:384    .text.ip4addr_aton:0000000000000104 .L0 
C:\Users\stapi\AppData\Local\Temp\ccxXyLJa.s:388    .text.ip4addr_aton:0000000000000106 .L0 
C:\Users\stapi\AppData\Local\Temp\ccxXyLJa.s:389    .text.ip4addr_aton:0000000000000106 .L0 
C:\Users\stapi\AppData\Local\Temp\ccxXyLJa.s:390    .text.ip4addr_aton:0000000000000106 .L0 
C:\Users\stapi\AppData\Local\Temp\ccxXyLJa.s:392    .text.ip4addr_aton:0000000000000108 .L0 
C:\Users\stapi\AppData\Local\Temp\ccxXyLJa.s:394    .text.ip4addr_aton:000000000000010a .L0 
C:\Users\stapi\AppData\Local\Temp\ccxXyLJa.s:399    .text.ip4addr_aton:0000000000000114 .L0 
C:\Users\stapi\AppData\Local\Temp\ccxXyLJa.s:401    .text.ip4addr_aton:0000000000000118 .L0 
C:\Users\stapi\AppData\Local\Temp\ccxXyLJa.s:402    .text.ip4addr_aton:0000000000000118 .L0 
C:\Users\stapi\AppData\Local\Temp\ccxXyLJa.s:404    .text.ip4addr_aton:0000000000000120 .L0 
C:\Users\stapi\AppData\Local\Temp\ccxXyLJa.s:405    .text.ip4addr_aton:0000000000000120 .L0 
C:\Users\stapi\AppData\Local\Temp\ccxXyLJa.s:406    .text.ip4addr_aton:0000000000000120 .L0 
C:\Users\stapi\AppData\Local\Temp\ccxXyLJa.s:407    .text.ip4addr_aton:0000000000000120 .L0 
C:\Users\stapi\AppData\Local\Temp\ccxXyLJa.s:410    .text.ip4addr_aton:0000000000000120 .L0 
C:\Users\stapi\AppData\Local\Temp\ccxXyLJa.s:412    .text.ip4addr_aton:0000000000000120 .L0 
C:\Users\stapi\AppData\Local\Temp\ccxXyLJa.s:413    .text.ip4addr_aton:0000000000000120 .L0 
C:\Users\stapi\AppData\Local\Temp\ccxXyLJa.s:415    .text.ip4addr_aton:0000000000000122 .L0 
C:\Users\stapi\AppData\Local\Temp\ccxXyLJa.s:417    .text.ip4addr_aton:0000000000000124 .L0 
C:\Users\stapi\AppData\Local\Temp\ccxXyLJa.s:419    .text.ip4addr_aton:0000000000000128 .L0 
C:\Users\stapi\AppData\Local\Temp\ccxXyLJa.s:420    .text.ip4addr_aton:0000000000000128 .L0 
C:\Users\stapi\AppData\Local\Temp\ccxXyLJa.s:422    .text.ip4addr_aton:000000000000012a .L0 
C:\Users\stapi\AppData\Local\Temp\ccxXyLJa.s:425    .text.ip4addr_aton:0000000000000132 .L0 
C:\Users\stapi\AppData\Local\Temp\ccxXyLJa.s:427    .text.ip4addr_aton:0000000000000134 .L0 
C:\Users\stapi\AppData\Local\Temp\ccxXyLJa.s:429    .text.ip4addr_aton:0000000000000138 .L0 
C:\Users\stapi\AppData\Local\Temp\ccxXyLJa.s:430    .text.ip4addr_aton:0000000000000138 .L0 
C:\Users\stapi\AppData\Local\Temp\ccxXyLJa.s:432    .text.ip4addr_aton:000000000000013a .L0 
C:\Users\stapi\AppData\Local\Temp\ccxXyLJa.s:436    .text.ip4addr_aton:000000000000013c .L0 
C:\Users\stapi\AppData\Local\Temp\ccxXyLJa.s:441    .text.ip4addr_aton:0000000000000140 .L0 
C:\Users\stapi\AppData\Local\Temp\ccxXyLJa.s:442    .text.ip4addr_aton:0000000000000140 .L0 
C:\Users\stapi\AppData\Local\Temp\ccxXyLJa.s:445    .text.ip4addr_aton:0000000000000144 .L0 
C:\Users\stapi\AppData\Local\Temp\ccxXyLJa.s:447    .text.ip4addr_aton:0000000000000146 .L0 
C:\Users\stapi\AppData\Local\Temp\ccxXyLJa.s:449    .text.ip4addr_aton:000000000000014a .L0 
C:\Users\stapi\AppData\Local\Temp\ccxXyLJa.s:450    .text.ip4addr_aton:000000000000014a .L0 
C:\Users\stapi\AppData\Local\Temp\ccxXyLJa.s:452    .text.ip4addr_aton:000000000000014c .L0 
C:\Users\stapi\AppData\Local\Temp\ccxXyLJa.s:454    .text.ip4addr_aton:0000000000000150 .L0 
C:\Users\stapi\AppData\Local\Temp\ccxXyLJa.s:456    .text.ip4addr_aton:0000000000000152 .L0 
C:\Users\stapi\AppData\Local\Temp\ccxXyLJa.s:458    .text.ip4addr_aton:0000000000000156 .L0 
C:\Users\stapi\AppData\Local\Temp\ccxXyLJa.s:460    .text.ip4addr_aton:0000000000000158 .L0 
C:\Users\stapi\AppData\Local\Temp\ccxXyLJa.s:462    .text.ip4addr_aton:000000000000015c .L0 
C:\Users\stapi\AppData\Local\Temp\ccxXyLJa.s:463    .text.ip4addr_aton:000000000000015c .L0 
C:\Users\stapi\AppData\Local\Temp\ccxXyLJa.s:465    .text.ip4addr_aton:000000000000015e .L0 
C:\Users\stapi\AppData\Local\Temp\ccxXyLJa.s:467    .text.ip4addr_aton:0000000000000160 .L0 
C:\Users\stapi\AppData\Local\Temp\ccxXyLJa.s:469    .text.ip4addr_aton:0000000000000162 .L0 
C:\Users\stapi\AppData\Local\Temp\ccxXyLJa.s:474    .text.ip4addr_aton:0000000000000166 .L0 
C:\Users\stapi\AppData\Local\Temp\ccxXyLJa.s:475    .text.ip4addr_aton:0000000000000166 .L0 
C:\Users\stapi\AppData\Local\Temp\ccxXyLJa.s:476    .text.ip4addr_aton:0000000000000166 .L0 
C:\Users\stapi\AppData\Local\Temp\ccxXyLJa.s:477    .text.ip4addr_aton:0000000000000166 .L0 
C:\Users\stapi\AppData\Local\Temp\ccxXyLJa.s:490    .text.ip4addr_aton:000000000000018a .L0 
C:\Users\stapi\AppData\Local\Temp\ccxXyLJa.s:491    .text.ip4addr_aton:000000000000018a .L0 
C:\Users\stapi\AppData\Local\Temp\ccxXyLJa.s:492    .text.ip4addr_aton:000000000000018a .L0 
C:\Users\stapi\AppData\Local\Temp\ccxXyLJa.s:496    .text.ip4addr_aton:000000000000018c .L0 
C:\Users\stapi\AppData\Local\Temp\ccxXyLJa.s:499    .text.ip4addr_aton:0000000000000190 .L0 
C:\Users\stapi\AppData\Local\Temp\ccxXyLJa.s:506    .text.ipaddr_addr:0000000000000000 ipaddr_addr
C:\Users\stapi\AppData\Local\Temp\ccxXyLJa.s:509    .text.ipaddr_addr:0000000000000000 .L0 
C:\Users\stapi\AppData\Local\Temp\ccxXyLJa.s:511    .text.ipaddr_addr:0000000000000000 .L0 
C:\Users\stapi\AppData\Local\Temp\ccxXyLJa.s:512    .text.ipaddr_addr:0000000000000008 .L0 
C:\Users\stapi\AppData\Local\Temp\ccxXyLJa.s:513    .text.ipaddr_addr:0000000000000008 .L0 
C:\Users\stapi\AppData\Local\Temp\ccxXyLJa.s:515    .text.ipaddr_addr:0000000000000008 .L0 
C:\Users\stapi\AppData\Local\Temp\ccxXyLJa.s:516    .text.ipaddr_addr:0000000000000008 .L0 
C:\Users\stapi\AppData\Local\Temp\ccxXyLJa.s:517    .text.ipaddr_addr:0000000000000008 .L0 
C:\Users\stapi\AppData\Local\Temp\ccxXyLJa.s:518    .text.ipaddr_addr:000000000000000a .L0 
C:\Users\stapi\AppData\Local\Temp\ccxXyLJa.s:520    .text.ipaddr_addr:000000000000000a .L0 
C:\Users\stapi\AppData\Local\Temp\ccxXyLJa.s:524    .text.ipaddr_addr:0000000000000014 .L0 
C:\Users\stapi\AppData\Local\Temp\ccxXyLJa.s:526    .text.ipaddr_addr:0000000000000016 .L0 
C:\Users\stapi\AppData\Local\Temp\ccxXyLJa.s:527    .text.ipaddr_addr:0000000000000016 .L0 
C:\Users\stapi\AppData\Local\Temp\ccxXyLJa.s:530    .text.ipaddr_addr:0000000000000018 .L0 
C:\Users\stapi\AppData\Local\Temp\ccxXyLJa.s:531    .text.ipaddr_addr:000000000000001a .L0 
C:\Users\stapi\AppData\Local\Temp\ccxXyLJa.s:532    .text.ipaddr_addr:000000000000001a .L0 
C:\Users\stapi\AppData\Local\Temp\ccxXyLJa.s:534    .text.ipaddr_addr:0000000000000022 .L0 
C:\Users\stapi\AppData\Local\Temp\ccxXyLJa.s:535    .text.ipaddr_addr:0000000000000022 .L0 
C:\Users\stapi\AppData\Local\Temp\ccxXyLJa.s:537    .text.ipaddr_addr:0000000000000022 .L0 
C:\Users\stapi\AppData\Local\Temp\ccxXyLJa.s:539    .text.ipaddr_addr:0000000000000022 .L0 
C:\Users\stapi\AppData\Local\Temp\ccxXyLJa.s:541    .text.ipaddr_addr:0000000000000026 .L0 
C:\Users\stapi\AppData\Local\Temp\ccxXyLJa.s:548    .text.ip4addr_ntoa_r:0000000000000000 ip4addr_ntoa_r
C:\Users\stapi\AppData\Local\Temp\ccxXyLJa.s:551    .text.ip4addr_ntoa_r:0000000000000000 .L0 
C:\Users\stapi\AppData\Local\Temp\ccxXyLJa.s:553    .text.ip4addr_ntoa_r:0000000000000000 .L0 
C:\Users\stapi\AppData\Local\Temp\ccxXyLJa.s:554    .text.ip4addr_ntoa_r:0000000000000000 .L0 
C:\Users\stapi\AppData\Local\Temp\ccxXyLJa.s:555    .text.ip4addr_ntoa_r:0000000000000000 .L0 
C:\Users\stapi\AppData\Local\Temp\ccxXyLJa.s:556    .text.ip4addr_ntoa_r:0000000000000000 .L0 
C:\Users\stapi\AppData\Local\Temp\ccxXyLJa.s:557    .text.ip4addr_ntoa_r:0000000000000000 .L0 
C:\Users\stapi\AppData\Local\Temp\ccxXyLJa.s:558    .text.ip4addr_ntoa_r:0000000000000000 .L0 
C:\Users\stapi\AppData\Local\Temp\ccxXyLJa.s:559    .text.ip4addr_ntoa_r:0000000000000000 .L0 
C:\Users\stapi\AppData\Local\Temp\ccxXyLJa.s:560    .text.ip4addr_ntoa_r:0000000000000000 .L0 
C:\Users\stapi\AppData\Local\Temp\ccxXyLJa.s:561    .text.ip4addr_ntoa_r:0000000000000000 .L0 
C:\Users\stapi\AppData\Local\Temp\ccxXyLJa.s:562    .text.ip4addr_ntoa_r:0000000000000000 .L0 
C:\Users\stapi\AppData\Local\Temp\ccxXyLJa.s:563    .text.ip4addr_ntoa_r:0000000000000000 .L0 
C:\Users\stapi\AppData\Local\Temp\ccxXyLJa.s:565    .text.ip4addr_ntoa_r:0000000000000002 .L0 
C:\Users\stapi\AppData\Local\Temp\ccxXyLJa.s:566    .text.ip4addr_ntoa_r:0000000000000004 .L0 
C:\Users\stapi\AppData\Local\Temp\ccxXyLJa.s:568    .text.ip4addr_ntoa_r:0000000000000004 .L0 
C:\Users\stapi\AppData\Local\Temp\ccxXyLJa.s:570    .text.ip4addr_ntoa_r:0000000000000006 .L0 
C:\Users\stapi\AppData\Local\Temp\ccxXyLJa.s:573    .text.ip4addr_ntoa_r:0000000000000008 .L0 
C:\Users\stapi\AppData\Local\Temp\ccxXyLJa.s:574    .text.ip4addr_ntoa_r:0000000000000008 .L0 
C:\Users\stapi\AppData\Local\Temp\ccxXyLJa.s:575    .text.ip4addr_ntoa_r:0000000000000008 .L0 
C:\Users\stapi\AppData\Local\Temp\ccxXyLJa.s:576    .text.ip4addr_ntoa_r:0000000000000008 .L0 
C:\Users\stapi\AppData\Local\Temp\ccxXyLJa.s:577    .text.ip4addr_ntoa_r:0000000000000008 .L0 
C:\Users\stapi\AppData\Local\Temp\ccxXyLJa.s:580    .text.ip4addr_ntoa_r:000000000000000a .L0 
C:\Users\stapi\AppData\Local\Temp\ccxXyLJa.s:583    .text.ip4addr_ntoa_r:000000000000000c .L0 
C:\Users\stapi\AppData\Local\Temp\ccxXyLJa.s:585    .text.ip4addr_ntoa_r:000000000000000e .L0 
C:\Users\stapi\AppData\Local\Temp\ccxXyLJa.s:587    .text.ip4addr_ntoa_r:0000000000000010 .L0 
C:\Users\stapi\AppData\Local\Temp\ccxXyLJa.s:589    .text.ip4addr_ntoa_r:0000000000000014 .L0 
C:\Users\stapi\AppData\Local\Temp\ccxXyLJa.s:594    .text.ip4addr_ntoa_r:000000000000001c .L0 
C:\Users\stapi\AppData\Local\Temp\ccxXyLJa.s:598    .text.ip4addr_ntoa_r:000000000000001e .L0 
C:\Users\stapi\AppData\Local\Temp\ccxXyLJa.s:599    .text.ip4addr_ntoa_r:000000000000001e .L0 
C:\Users\stapi\AppData\Local\Temp\ccxXyLJa.s:600    .text.ip4addr_ntoa_r:000000000000001e .L0 
C:\Users\stapi\AppData\Local\Temp\ccxXyLJa.s:603    .text.ip4addr_ntoa_r:0000000000000022 .L0 
C:\Users\stapi\AppData\Local\Temp\ccxXyLJa.s:605    .text.ip4addr_ntoa_r:0000000000000024 .L0 
C:\Users\stapi\AppData\Local\Temp\ccxXyLJa.s:611    .text.ip4addr_ntoa_r:000000000000002c .L0 
C:\Users\stapi\AppData\Local\Temp\ccxXyLJa.s:615    .text.ip4addr_ntoa_r:0000000000000032 .L0 
C:\Users\stapi\AppData\Local\Temp\ccxXyLJa.s:618    .text.ip4addr_ntoa_r:0000000000000036 .L0 
C:\Users\stapi\AppData\Local\Temp\ccxXyLJa.s:620    .text.ip4addr_ntoa_r:000000000000003a .L0 
C:\Users\stapi\AppData\Local\Temp\ccxXyLJa.s:623    .text.ip4addr_ntoa_r:000000000000003e .L0 
C:\Users\stapi\AppData\Local\Temp\ccxXyLJa.s:624    .text.ip4addr_ntoa_r:000000000000003e .L0 
C:\Users\stapi\AppData\Local\Temp\ccxXyLJa.s:625    .text.ip4addr_ntoa_r:000000000000003e .L0 
C:\Users\stapi\AppData\Local\Temp\ccxXyLJa.s:628    .text.ip4addr_ntoa_r:0000000000000046 .L0 
C:\Users\stapi\AppData\Local\Temp\ccxXyLJa.s:634    .text.ip4addr_ntoa_r:000000000000004a .L0 
C:\Users\stapi\AppData\Local\Temp\ccxXyLJa.s:635    .text.ip4addr_ntoa_r:000000000000004a .L0 
C:\Users\stapi\AppData\Local\Temp\ccxXyLJa.s:638    .text.ip4addr_ntoa_r:000000000000004c .L0 
C:\Users\stapi\AppData\Local\Temp\ccxXyLJa.s:641    .text.ip4addr_ntoa_r:0000000000000050 .L0 
C:\Users\stapi\AppData\Local\Temp\ccxXyLJa.s:642    .text.ip4addr_ntoa_r:0000000000000050 .L0 
C:\Users\stapi\AppData\Local\Temp\ccxXyLJa.s:644    .text.ip4addr_ntoa_r:0000000000000054 .L0 
C:\Users\stapi\AppData\Local\Temp\ccxXyLJa.s:645    .text.ip4addr_ntoa_r:0000000000000054 .L0 
C:\Users\stapi\AppData\Local\Temp\ccxXyLJa.s:647    .text.ip4addr_ntoa_r:0000000000000058 .L0 
C:\Users\stapi\AppData\Local\Temp\ccxXyLJa.s:650    .text.ip4addr_ntoa_r:000000000000005a .L0 
C:\Users\stapi\AppData\Local\Temp\ccxXyLJa.s:653    .text.ip4addr_ntoa_r:000000000000005c .L0 
C:\Users\stapi\AppData\Local\Temp\ccxXyLJa.s:656    .text.ip4addr_ntoa_r:0000000000000060 .L0 
C:\Users\stapi\AppData\Local\Temp\ccxXyLJa.s:657    .text.ip4addr_ntoa_r:0000000000000060 .L0 
C:\Users\stapi\AppData\Local\Temp\ccxXyLJa.s:658    .text.ip4addr_ntoa_r:0000000000000060 .L0 
C:\Users\stapi\AppData\Local\Temp\ccxXyLJa.s:659    .text.ip4addr_ntoa_r:0000000000000060 .L0 
C:\Users\stapi\AppData\Local\Temp\ccxXyLJa.s:662    .text.ip4addr_ntoa_r:0000000000000064 .L0 
C:\Users\stapi\AppData\Local\Temp\ccxXyLJa.s:663    .text.ip4addr_ntoa_r:0000000000000064 .L0 
C:\Users\stapi\AppData\Local\Temp\ccxXyLJa.s:665    .text.ip4addr_ntoa_r:0000000000000068 .L0 
C:\Users\stapi\AppData\Local\Temp\ccxXyLJa.s:666    .text.ip4addr_ntoa_r:0000000000000068 .L0 
C:\Users\stapi\AppData\Local\Temp\ccxXyLJa.s:670    .text.ip4addr_ntoa_r:000000000000006a .L0 
C:\Users\stapi\AppData\Local\Temp\ccxXyLJa.s:671    .text.ip4addr_ntoa_r:000000000000006c .L0 
C:\Users\stapi\AppData\Local\Temp\ccxXyLJa.s:672    .text.ip4addr_ntoa_r:000000000000006c .L0 
C:\Users\stapi\AppData\Local\Temp\ccxXyLJa.s:676    .text.ip4addr_ntoa_r:000000000000006e .L0 
C:\Users\stapi\AppData\Local\Temp\ccxXyLJa.s:678    .text.ip4addr_ntoa_r:000000000000006e .L0 
C:\Users\stapi\AppData\Local\Temp\ccxXyLJa.s:679    .text.ip4addr_ntoa_r:000000000000006e .L0 
C:\Users\stapi\AppData\Local\Temp\ccxXyLJa.s:683    .text.ip4addr_ntoa_r:000000000000007a .L0 
C:\Users\stapi\AppData\Local\Temp\ccxXyLJa.s:684    .text.ip4addr_ntoa_r:000000000000007a .L0 
C:\Users\stapi\AppData\Local\Temp\ccxXyLJa.s:689    .text.ip4addr_ntoa_r:0000000000000080 .L0 
C:\Users\stapi\AppData\Local\Temp\ccxXyLJa.s:691    .text.ip4addr_ntoa_r:0000000000000084 .L0 
C:\Users\stapi\AppData\Local\Temp\ccxXyLJa.s:694    .text.ip4addr_ntoa_r:0000000000000086 .L0 
C:\Users\stapi\AppData\Local\Temp\ccxXyLJa.s:697    .text.ip4addr_ntoa_r:0000000000000088 .L0 
C:\Users\stapi\AppData\Local\Temp\ccxXyLJa.s:703    .text.ip4addr_ntoa_r:0000000000000090 .L0 
C:\Users\stapi\AppData\Local\Temp\ccxXyLJa.s:705    .text.ip4addr_ntoa_r:0000000000000094 .L0 
C:\Users\stapi\AppData\Local\Temp\ccxXyLJa.s:712    .text.ip4addr_ntoa:0000000000000000 ip4addr_ntoa
C:\Users\stapi\AppData\Local\Temp\ccxXyLJa.s:715    .text.ip4addr_ntoa:0000000000000000 .L0 
C:\Users\stapi\AppData\Local\Temp\ccxXyLJa.s:717    .text.ip4addr_ntoa:0000000000000000 .L0 
C:\Users\stapi\AppData\Local\Temp\ccxXyLJa.s:718    .text.ip4addr_ntoa:0000000000000000 .L0 
C:\Users\stapi\AppData\Local\Temp\ccxXyLJa.s:719    .text.ip4addr_ntoa:0000000000000000 .L0 
C:\Users\stapi\AppData\Local\Temp\ccxXyLJa.s:720    .text.ip4addr_ntoa:0000000000000000 .L0 
C:\Users\stapi\AppData\Local\Temp\ccxXyLJa.s:725    .text.ip4addr_ntoa:0000000000000012 .L0 
C:\Users\stapi\AppData\Local\Temp\ccxXyLJa.s:747    .srodata.ip_addr_broadcast:0000000000000000 ip_addr_broadcast
C:\Users\stapi\AppData\Local\Temp\ccxXyLJa.s:741    .srodata.ip_addr_any:0000000000000000 ip_addr_any
C:\Users\stapi\AppData\Local\Temp\ccxXyLJa.s:732    .bss.str.0:0000000000000000 .LANCHOR0
C:\Users\stapi\AppData\Local\Temp\ccxXyLJa.s:735    .bss.str.0:0000000000000000 str.0
C:\Users\stapi\AppData\Local\Temp\ccxXyLJa.s:68     .text.ip4_addr_isbroadcast_u32:0000000000000038 .L0 
C:\Users\stapi\AppData\Local\Temp\ccxXyLJa.s:142    .text.ip4_addr_netmask_valid:000000000000003e .L0 
C:\Users\stapi\AppData\Local\Temp\ccxXyLJa.s:502    .text.ip4addr_aton:0000000000000190 .L0 
C:\Users\stapi\AppData\Local\Temp\ccxXyLJa.s:544    .text.ipaddr_addr:0000000000000026 .L0 
C:\Users\stapi\AppData\Local\Temp\ccxXyLJa.s:708    .text.ip4addr_ntoa_r:0000000000000094 .L0 
C:\Users\stapi\AppData\Local\Temp\ccxXyLJa.s:730    .text.ip4addr_ntoa:0000000000000012 .L0 
                     .debug_frame:0000000000000000 .L0 
C:\Users\stapi\AppData\Local\Temp\ccxXyLJa.s:58     .text.ip4_addr_isbroadcast_u32:0000000000000034 .L3
C:\Users\stapi\AppData\Local\Temp\ccxXyLJa.s:62     .text.ip4_addr_isbroadcast_u32:0000000000000036 .L2
C:\Users\stapi\AppData\Local\Temp\ccxXyLJa.s:129    .text.ip4_addr_netmask_valid:0000000000000036 .L10
C:\Users\stapi\AppData\Local\Temp\ccxXyLJa.s:92     .text.ip4_addr_netmask_valid:0000000000000018 .L11
C:\Users\stapi\AppData\Local\Temp\ccxXyLJa.s:134    .text.ip4_addr_netmask_valid:000000000000003a .L14
C:\Users\stapi\AppData\Local\Temp\ccxXyLJa.s:118    .text.ip4_addr_netmask_valid:000000000000002e .L13
C:\Users\stapi\AppData\Local\Temp\ccxXyLJa.s:107    .text.ip4_addr_netmask_valid:0000000000000024 .L19
C:\Users\stapi\AppData\Local\Temp\ccxXyLJa.s:111    .text.ip4_addr_netmask_valid:0000000000000026 .L12
C:\Users\stapi\AppData\Local\Temp\ccxXyLJa.s:357    .rodata.ip4addr_aton:0000000000000000 .L34
C:\Users\stapi\AppData\Local\Temp\ccxXyLJa.s:144    .rodata.ip4addr_aton.str1.4:0000000000000000 .LC0
C:\Users\stapi\AppData\Local\Temp\ccxXyLJa.s:147    .rodata.ip4addr_aton.str1.4:0000000000000094 .LC1
C:\Users\stapi\AppData\Local\Temp\ccxXyLJa.s:150    .rodata.ip4addr_aton.str1.4:00000000000000a0 .LC2
C:\Users\stapi\AppData\Local\Temp\ccxXyLJa.s:494    .text.ip4addr_aton:000000000000018c .L43
C:\Users\stapi\AppData\Local\Temp\ccxXyLJa.s:233    .text.ip4addr_aton:0000000000000056 .L22
C:\Users\stapi\AppData\Local\Temp\ccxXyLJa.s:267    .text.ip4addr_aton:0000000000000082 .L23
C:\Users\stapi\AppData\Local\Temp\ccxXyLJa.s:280    .text.ip4addr_aton:000000000000008c .L25
C:\Users\stapi\AppData\Local\Temp\ccxXyLJa.s:238    .text.ip4addr_aton:000000000000005c .L24
C:\Users\stapi\AppData\Local\Temp\ccxXyLJa.s:308    .text.ip4addr_aton:00000000000000b2 .L27
C:\Users\stapi\AppData\Local\Temp\ccxXyLJa.s:301    .text.ip4addr_aton:00000000000000aa .L28
C:\Users\stapi\AppData\Local\Temp\ccxXyLJa.s:258    .text.ip4addr_aton:000000000000007a .L62
C:\Users\stapi\AppData\Local\Temp\ccxXyLJa.s:331    .text.ip4addr_aton:00000000000000ca .L29
C:\Users\stapi\AppData\Local\Temp\ccxXyLJa.s:200    .text.ip4addr_aton:0000000000000030 .L30
C:\Users\stapi\AppData\Local\Temp\ccxXyLJa.s:338    .text.ip4addr_aton:00000000000000d0 .L31
C:\Users\stapi\AppData\Local\Temp\ccxXyLJa.s:472    .text.ip4addr_aton:0000000000000166 .L32
C:\Users\stapi\AppData\Local\Temp\ccxXyLJa.s:397    .text.ip4addr_aton:0000000000000114 .L20
C:\Users\stapi\AppData\Local\Temp\ccxXyLJa.s:382    .text.ip4addr_aton:0000000000000104 .L64
C:\Users\stapi\AppData\Local\Temp\ccxXyLJa.s:434    .text.ip4addr_aton:000000000000013c .L63
C:\Users\stapi\AppData\Local\Temp\ccxXyLJa.s:488    .text.ip4addr_aton:000000000000018a .L38
C:\Users\stapi\AppData\Local\Temp\ccxXyLJa.s:387    .text.ip4addr_aton:0000000000000106 .L37
C:\Users\stapi\AppData\Local\Temp\ccxXyLJa.s:364    .text.ip4addr_aton:00000000000000ee .L36
C:\Users\stapi\AppData\Local\Temp\ccxXyLJa.s:409    .text.ip4addr_aton:0000000000000120 .L35
C:\Users\stapi\AppData\Local\Temp\ccxXyLJa.s:439    .text.ip4addr_aton:0000000000000140 .L33
C:\Users\stapi\AppData\Local\Temp\ccxXyLJa.s:536    .text.ipaddr_addr:0000000000000022 .L67
C:\Users\stapi\AppData\Local\Temp\ccxXyLJa.s:528    .text.ipaddr_addr:0000000000000018 .L65
C:\Users\stapi\AppData\Local\Temp\ccxXyLJa.s:595    .text.ip4addr_ntoa_r:000000000000001e .L70
C:\Users\stapi\AppData\Local\Temp\ccxXyLJa.s:675    .text.ip4addr_ntoa_r:000000000000006e .L73
C:\Users\stapi\AppData\Local\Temp\ccxXyLJa.s:701    .text.ip4addr_ntoa_r:0000000000000090 .L76
C:\Users\stapi\AppData\Local\Temp\ccxXyLJa.s:591    .text.ip4addr_ntoa_r:0000000000000018 .L74
C:\Users\stapi\AppData\Local\Temp\ccxXyLJa.s:632    .text.ip4addr_ntoa_r:000000000000004a .L71
C:\Users\stapi\AppData\Local\Temp\ccxXyLJa.s:668    .text.ip4addr_ntoa_r:000000000000006a .L69
C:\Users\stapi\AppData\Local\Temp\ccxXyLJa.s:1797   .debug_abbrev:0000000000000000 .Ldebug_abbrev0
C:\Users\stapi\AppData\Local\Temp\ccxXyLJa.s:3086   .debug_str:000000000000012e .LASF96
C:\Users\stapi\AppData\Local\Temp\ccxXyLJa.s:3108   .debug_str:00000000000002dc .LASF97
C:\Users\stapi\AppData\Local\Temp\ccxXyLJa.s:3182   .debug_str:0000000000000546 .LASF98
C:\Users\stapi\AppData\Local\Temp\ccxXyLJa.s:3016   .debug_ranges:0000000000000000 .Ldebug_ranges0
C:\Users\stapi\AppData\Local\Temp\ccxXyLJa.s:3032   .debug_line:0000000000000000 .Ldebug_line0
C:\Users\stapi\AppData\Local\Temp\ccxXyLJa.s:3156   .debug_str:00000000000004b9 .LASF0
C:\Users\stapi\AppData\Local\Temp\ccxXyLJa.s:3080   .debug_str:0000000000000112 .LASF2
C:\Users\stapi\AppData\Local\Temp\ccxXyLJa.s:3228   .debug_str:00000000000006be .LASF1
C:\Users\stapi\AppData\Local\Temp\ccxXyLJa.s:3120   .debug_str:00000000000003c4 .LASF3
C:\Users\stapi\AppData\Local\Temp\ccxXyLJa.s:3050   .debug_str:0000000000000046 .LASF4
C:\Users\stapi\AppData\Local\Temp\ccxXyLJa.s:3064   .debug_str:00000000000000a0 .LASF5
C:\Users\stapi\AppData\Local\Temp\ccxXyLJa.s:3152   .debug_str:0000000000000497 .LASF6
C:\Users\stapi\AppData\Local\Temp\ccxXyLJa.s:3098   .debug_str:000000000000029d .LASF7
C:\Users\stapi\AppData\Local\Temp\ccxXyLJa.s:3062   .debug_str:0000000000000095 .LASF8
C:\Users\stapi\AppData\Local\Temp\ccxXyLJa.s:3178   .debug_str:0000000000000527 .LASF9
C:\Users\stapi\AppData\Local\Temp\ccxXyLJa.s:3088   .debug_str:0000000000000227 .LASF10
C:\Users\stapi\AppData\Local\Temp\ccxXyLJa.s:3090   .debug_str:0000000000000235 .LASF11
C:\Users\stapi\AppData\Local\Temp\ccxXyLJa.s:3142   .debug_str:0000000000000451 .LASF12
C:\Users\stapi\AppData\Local\Temp\ccxXyLJa.s:3042   .debug_str:0000000000000022 .LASF13
C:\Users\stapi\AppData\Local\Temp\ccxXyLJa.s:3072   .debug_str:00000000000000dc .LASF14
C:\Users\stapi\AppData\Local\Temp\ccxXyLJa.s:3144   .debug_str:000000000000045e .LASF15
C:\Users\stapi\AppData\Local\Temp\ccxXyLJa.s:3138   .debug_str:000000000000043d .LASF16
C:\Users\stapi\AppData\Local\Temp\ccxXyLJa.s:3160   .debug_str:00000000000004c8 .LASF17
C:\Users\stapi\AppData\Local\Temp\ccxXyLJa.s:3216   .debug_str:000000000000068f .LASF18
C:\Users\stapi\AppData\Local\Temp\ccxXyLJa.s:3084   .debug_str:0000000000000129 .LASF19
C:\Users\stapi\AppData\Local\Temp\ccxXyLJa.s:3198   .debug_str:000000000000061f .LASF20
C:\Users\stapi\AppData\Local\Temp\ccxXyLJa.s:3192   .debug_str:0000000000000603 .LASF21
C:\Users\stapi\AppData\Local\Temp\ccxXyLJa.s:3164   .debug_str:00000000000004e0 .LASF24
C:\Users\stapi\AppData\Local\Temp\ccxXyLJa.s:3170   .debug_str:00000000000004fb .LASF28
C:\Users\stapi\AppData\Local\Temp\ccxXyLJa.s:3038   .debug_str:0000000000000016 .LASF30
C:\Users\stapi\AppData\Local\Temp\ccxXyLJa.s:3126   .debug_str:00000000000003ed .LASF22
C:\Users\stapi\AppData\Local\Temp\ccxXyLJa.s:3102   .debug_str:00000000000002be .LASF23
C:\Users\stapi\AppData\Local\Temp\ccxXyLJa.s:3122   .debug_str:00000000000003d2 .LASF25
C:\Users\stapi\AppData\Local\Temp\ccxXyLJa.s:3058   .debug_str:000000000000006a .LASF26
C:\Users\stapi\AppData\Local\Temp\ccxXyLJa.s:3158   .debug_str:00000000000004c2 .LASF27
C:\Users\stapi\AppData\Local\Temp\ccxXyLJa.s:3230   .debug_str:00000000000006c8 .LASF29
C:\Users\stapi\AppData\Local\Temp\ccxXyLJa.s:3226   .debug_str:00000000000006b9 .LASF31
C:\Users\stapi\AppData\Local\Temp\ccxXyLJa.s:3176   .debug_str:000000000000051f .LASF32
C:\Users\stapi\AppData\Local\Temp\ccxXyLJa.s:3056   .debug_str:0000000000000062 .LASF33
C:\Users\stapi\AppData\Local\Temp\ccxXyLJa.s:3112   .debug_str:0000000000000376 .LASF34
C:\Users\stapi\AppData\Local\Temp\ccxXyLJa.s:3134   .debug_str:0000000000000415 .LASF35
C:\Users\stapi\AppData\Local\Temp\ccxXyLJa.s:3130   .debug_str:0000000000000401 .LASF36
C:\Users\stapi\AppData\Local\Temp\ccxXyLJa.s:3180   .debug_str:0000000000000539 .LASF37
C:\Users\stapi\AppData\Local\Temp\ccxXyLJa.s:3214   .debug_str:0000000000000682 .LASF38
C:\Users\stapi\AppData\Local\Temp\ccxXyLJa.s:3212   .debug_str:0000000000000675 .LASF39
C:\Users\stapi\AppData\Local\Temp\ccxXyLJa.s:3074   .debug_str:00000000000000e4 .LASF40
C:\Users\stapi\AppData\Local\Temp\ccxXyLJa.s:3202   .debug_str:0000000000000634 .LASF41
C:\Users\stapi\AppData\Local\Temp\ccxXyLJa.s:3034   .debug_str:0000000000000000 .LASF42
C:\Users\stapi\AppData\Local\Temp\ccxXyLJa.s:3154   .debug_str:00000000000004aa .LASF43
C:\Users\stapi\AppData\Local\Temp\ccxXyLJa.s:3078   .debug_str:0000000000000103 .LASF44
C:\Users\stapi\AppData\Local\Temp\ccxXyLJa.s:3052   .debug_str:0000000000000050 .LASF45
C:\Users\stapi\AppData\Local\Temp\ccxXyLJa.s:3132   .debug_str:0000000000000408 .LASF46
C:\Users\stapi\AppData\Local\Temp\ccxXyLJa.s:3162   .debug_str:00000000000004cd .LASF47
C:\Users\stapi\AppData\Local\Temp\ccxXyLJa.s:3208   .debug_str:0000000000000659 .LASF48
C:\Users\stapi\AppData\Local\Temp\ccxXyLJa.s:3148   .debug_str:0000000000000472 .LASF49
C:\Users\stapi\AppData\Local\Temp\ccxXyLJa.s:3174   .debug_str:000000000000050e .LASF50
C:\Users\stapi\AppData\Local\Temp\ccxXyLJa.s:3076   .debug_str:00000000000000f8 .LASF51
C:\Users\stapi\AppData\Local\Temp\ccxXyLJa.s:3172   .debug_str:0000000000000504 .LASF52
C:\Users\stapi\AppData\Local\Temp\ccxXyLJa.s:3200   .debug_str:0000000000000625 .LASF53
C:\Users\stapi\AppData\Local\Temp\ccxXyLJa.s:3128   .debug_str:00000000000003f8 .LASF54
C:\Users\stapi\AppData\Local\Temp\ccxXyLJa.s:3092   .debug_str:000000000000024c .LASF58
C:\Users\stapi\AppData\Local\Temp\ccxXyLJa.s:3118   .debug_str:00000000000003a2 .LASF55
C:\Users\stapi\AppData\Local\Temp\ccxXyLJa.s:3136   .debug_str:000000000000041b .LASF56
C:\Users\stapi\AppData\Local\Temp\ccxXyLJa.s:3186   .debug_str:00000000000005d5 .LASF57
C:\Users\stapi\AppData\Local\Temp\ccxXyLJa.s:3100   .debug_str:00000000000002a6 .LASF59
C:\Users\stapi\AppData\Local\Temp\ccxXyLJa.s:3068   .debug_str:00000000000000b7 .LASF60
C:\Users\stapi\AppData\Local\Temp\ccxXyLJa.s:3150   .debug_str:0000000000000482 .LASF61
C:\Users\stapi\AppData\Local\Temp\ccxXyLJa.s:3184   .debug_str:00000000000005cf .LASF62
C:\Users\stapi\AppData\Local\Temp\ccxXyLJa.s:3220   .debug_str:0000000000000699 .LASF63
C:\Users\stapi\AppData\Local\Temp\ccxXyLJa.s:3190   .debug_str:00000000000005fb .LASF64
C:\Users\stapi\AppData\Local\Temp\ccxXyLJa.s:3054   .debug_str:000000000000005c .LASF65
C:\Users\stapi\AppData\Local\Temp\ccxXyLJa.s:3210   .debug_str:000000000000066e .LASF66
C:\Users\stapi\AppData\Local\Temp\ccxXyLJa.s:3082   .debug_str:000000000000011e .LASF67
C:\Users\stapi\AppData\Local\Temp\ccxXyLJa.s:3044   .debug_str:0000000000000029 .LASF68
C:\Users\stapi\AppData\Local\Temp\ccxXyLJa.s:3066   .debug_str:00000000000000ab .LASF69
C:\Users\stapi\AppData\Local\Temp\ccxXyLJa.s:3040   .debug_str:000000000000001b .LASF70
C:\Users\stapi\AppData\Local\Temp\ccxXyLJa.s:3224   .debug_str:00000000000006ae .LASF71
C:\Users\stapi\AppData\Local\Temp\ccxXyLJa.s:3116   .debug_str:000000000000039d .LASF72
C:\Users\stapi\AppData\Local\Temp\ccxXyLJa.s:3206   .debug_str:0000000000000650 .LASF73
C:\Users\stapi\AppData\Local\Temp\ccxXyLJa.s:3070   .debug_str:00000000000000cc .LASF74
C:\Users\stapi\AppData\Local\Temp\ccxXyLJa.s:3140   .debug_str:0000000000000446 .LASF75
C:\Users\stapi\AppData\Local\Temp\ccxXyLJa.s:3194   .debug_str:0000000000000609 .LASF76
C:\Users\stapi\AppData\Local\Temp\ccxXyLJa.s:3124   .debug_str:00000000000003de .LASF77
C:\Users\stapi\AppData\Local\Temp\ccxXyLJa.s:3046   .debug_str:000000000000002f .LASF78
C:\Users\stapi\AppData\Local\Temp\ccxXyLJa.s:3094   .debug_str:0000000000000272 .LASF79
C:\Users\stapi\AppData\Local\Temp\ccxXyLJa.s:3114   .debug_str:0000000000000384 .LASF80
C:\Users\stapi\AppData\Local\Temp\ccxXyLJa.s:3204   .debug_str:0000000000000641 .LASF83
C:\Users\stapi\AppData\Local\Temp\ccxXyLJa.s:549    .text.ip4addr_ntoa_r:0000000000000000 .LFB8
C:\Users\stapi\AppData\Local\Temp\ccxXyLJa.s:706    .text.ip4addr_ntoa_r:0000000000000094 .LFE8
C:\Users\stapi\AppData\Local\Temp\ccxXyLJa.s:2476   .debug_loc:0000000000000000 .LLST12
C:\Users\stapi\AppData\Local\Temp\ccxXyLJa.s:3036   .debug_str:000000000000000f .LASF81
C:\Users\stapi\AppData\Local\Temp\ccxXyLJa.s:3110   .debug_str:000000000000036f .LASF82
C:\Users\stapi\AppData\Local\Temp\ccxXyLJa.s:2490   .debug_loc:0000000000000021 .LLST13
C:\Users\stapi\AppData\Local\Temp\ccxXyLJa.s:2519   .debug_loc:000000000000006d .LLST14
C:\Users\stapi\AppData\Local\Temp\ccxXyLJa.s:2542   .debug_loc:00000000000000a5 .LLST15
C:\Users\stapi\AppData\Local\Temp\ccxXyLJa.s:2564   .debug_loc:00000000000000d5 .LLST16
C:\Users\stapi\AppData\Local\Temp\ccxXyLJa.s:2635   .debug_loc:0000000000000159 .LLST17
C:\Users\stapi\AppData\Local\Temp\ccxXyLJa.s:2664   .debug_loc:00000000000001a5 .LLST18
C:\Users\stapi\AppData\Local\Temp\ccxXyLJa.s:3168   .debug_str:00000000000004ee .LASF84
C:\Users\stapi\AppData\Local\Temp\ccxXyLJa.s:713    .text.ip4addr_ntoa:0000000000000000 .LFB7
C:\Users\stapi\AppData\Local\Temp\ccxXyLJa.s:726    .text.ip4addr_ntoa:0000000000000012 .LFE7
C:\Users\stapi\AppData\Local\Temp\ccxXyLJa.s:2694   .debug_loc:00000000000001eb .LLST19
C:\Users\stapi\AppData\Local\Temp\ccxXyLJa.s:724    .text.ip4addr_ntoa:0000000000000012 .LVL84
C:\Users\stapi\AppData\Local\Temp\ccxXyLJa.s:3104   .debug_str:00000000000002c8 .LASF85
C:\Users\stapi\AppData\Local\Temp\ccxXyLJa.s:157    .text.ip4addr_aton:0000000000000000 .LFB6
C:\Users\stapi\AppData\Local\Temp\ccxXyLJa.s:500    .text.ip4addr_aton:0000000000000190 .LFE6
C:\Users\stapi\AppData\Local\Temp\ccxXyLJa.s:2708   .debug_loc:000000000000020c .LLST5
C:\Users\stapi\AppData\Local\Temp\ccxXyLJa.s:2775   .debug_loc:00000000000002b6 .LLST6
C:\Users\stapi\AppData\Local\Temp\ccxXyLJa.s:2786   .debug_loc:00000000000002d4 .LLST7
C:\Users\stapi\AppData\Local\Temp\ccxXyLJa.s:3218   .debug_str:0000000000000694 .LASF86
C:\Users\stapi\AppData\Local\Temp\ccxXyLJa.s:2824   .debug_loc:0000000000000337 .LLST8
C:\Users\stapi\AppData\Local\Temp\ccxXyLJa.s:2857   .debug_loc:000000000000038e .LLST9
C:\Users\stapi\AppData\Local\Temp\ccxXyLJa.s:3166   .debug_str:00000000000004e8 .LASF87
C:\Users\stapi\AppData\Local\Temp\ccxXyLJa.s:2880   .debug_loc:00000000000003cd .LLST10
C:\Users\stapi\AppData\Local\Temp\ccxXyLJa.s:395    .text.ip4addr_aton:0000000000000112 .LVL43
C:\Users\stapi\AppData\Local\Temp\ccxXyLJa.s:487    .text.ip4addr_aton:000000000000018a .LVL51
C:\Users\stapi\AppData\Local\Temp\ccxXyLJa.s:3196   .debug_str:0000000000000613 .LASF88
C:\Users\stapi\AppData\Local\Temp\ccxXyLJa.s:507    .text.ipaddr_addr:0000000000000000 .LFB5
C:\Users\stapi\AppData\Local\Temp\ccxXyLJa.s:542    .text.ipaddr_addr:0000000000000026 .LFE5
C:\Users\stapi\AppData\Local\Temp\ccxXyLJa.s:2895   .debug_loc:00000000000003f6 .LLST11
C:\Users\stapi\AppData\Local\Temp\ccxXyLJa.s:522    .text.ipaddr_addr:0000000000000014 .LVL55
C:\Users\stapi\AppData\Local\Temp\ccxXyLJa.s:3096   .debug_str:0000000000000286 .LASF89
C:\Users\stapi\AppData\Local\Temp\ccxXyLJa.s:73     .text.ip4_addr_netmask_valid:0000000000000000 .LFB4
C:\Users\stapi\AppData\Local\Temp\ccxXyLJa.s:140    .text.ip4_addr_netmask_valid:000000000000003e .LFE4
C:\Users\stapi\AppData\Local\Temp\ccxXyLJa.s:2909   .debug_loc:0000000000000417 .LLST2
C:\Users\stapi\AppData\Local\Temp\ccxXyLJa.s:3188   .debug_str:00000000000005f6 .LASF90
C:\Users\stapi\AppData\Local\Temp\ccxXyLJa.s:2923   .debug_loc:0000000000000438 .LLST3
C:\Users\stapi\AppData\Local\Temp\ccxXyLJa.s:3222   .debug_str:00000000000006a1 .LASF91
C:\Users\stapi\AppData\Local\Temp\ccxXyLJa.s:2942   .debug_loc:0000000000000465 .LLST4
C:\Users\stapi\AppData\Local\Temp\ccxXyLJa.s:84     .text.ip4_addr_netmask_valid:0000000000000010 .LVL5
C:\Users\stapi\AppData\Local\Temp\ccxXyLJa.s:3060   .debug_str:000000000000007c .LASF92
C:\Users\stapi\AppData\Local\Temp\ccxXyLJa.s:14     .text.ip4_addr_isbroadcast_u32:0000000000000000 .LFB3
C:\Users\stapi\AppData\Local\Temp\ccxXyLJa.s:66     .text.ip4_addr_isbroadcast_u32:0000000000000038 .LFE3
C:\Users\stapi\AppData\Local\Temp\ccxXyLJa.s:2953   .debug_loc:0000000000000483 .LLST0
C:\Users\stapi\AppData\Local\Temp\ccxXyLJa.s:3048   .debug_str:000000000000003f .LASF93
C:\Users\stapi\AppData\Local\Temp\ccxXyLJa.s:2972   .debug_loc:00000000000004b7 .LLST1
C:\Users\stapi\AppData\Local\Temp\ccxXyLJa.s:3146   .debug_str:0000000000000467 .LASF94
C:\Users\stapi\AppData\Local\Temp\ccxXyLJa.s:3106   .debug_str:00000000000002d5 .LASF95
C:\Users\stapi\AppData\Local\Temp\ccxXyLJa.s:552    .text.ip4addr_ntoa_r:0000000000000000 .LVL56
C:\Users\stapi\AppData\Local\Temp\ccxXyLJa.s:578    .text.ip4addr_ntoa_r:000000000000000a .LVL58
C:\Users\stapi\AppData\Local\Temp\ccxXyLJa.s:572    .text.ip4addr_ntoa_r:0000000000000008 .LVL57
C:\Users\stapi\AppData\Local\Temp\ccxXyLJa.s:590    .text.ip4addr_ntoa_r:0000000000000018 .LVL60
C:\Users\stapi\AppData\Local\Temp\ccxXyLJa.s:631    .text.ip4addr_ntoa_r:000000000000004a .LVL69
C:\Users\stapi\AppData\Local\Temp\ccxXyLJa.s:654    .text.ip4addr_ntoa_r:0000000000000060 .LVL74
C:\Users\stapi\AppData\Local\Temp\ccxXyLJa.s:661    .text.ip4addr_ntoa_r:0000000000000064 .LVL75
C:\Users\stapi\AppData\Local\Temp\ccxXyLJa.s:667    .text.ip4addr_ntoa_r:000000000000006a .LVL76
C:\Users\stapi\AppData\Local\Temp\ccxXyLJa.s:674    .text.ip4addr_ntoa_r:000000000000006e .LVL77
C:\Users\stapi\AppData\Local\Temp\ccxXyLJa.s:581    .text.ip4addr_ntoa_r:000000000000000c .LVL59
C:\Users\stapi\AppData\Local\Temp\ccxXyLJa.s:648    .text.ip4addr_ntoa_r:000000000000005a .LVL72
C:\Users\stapi\AppData\Local\Temp\ccxXyLJa.s:601    .text.ip4addr_ntoa_r:0000000000000022 .LVL62
C:\Users\stapi\AppData\Local\Temp\ccxXyLJa.s:616    .text.ip4addr_ntoa_r:0000000000000036 .LVL66
C:\Users\stapi\AppData\Local\Temp\ccxXyLJa.s:606    .text.ip4addr_ntoa_r:0000000000000028 .LVL63
C:\Users\stapi\AppData\Local\Temp\ccxXyLJa.s:608    .text.ip4addr_ntoa_r:000000000000002a .LVL64
C:\Users\stapi\AppData\Local\Temp\ccxXyLJa.s:685    .text.ip4addr_ntoa_r:000000000000007e .LVL78
C:\Users\stapi\AppData\Local\Temp\ccxXyLJa.s:695    .text.ip4addr_ntoa_r:0000000000000088 .LVL81
C:\Users\stapi\AppData\Local\Temp\ccxXyLJa.s:596    .text.ip4addr_ntoa_r:000000000000001e .LVL61
C:\Users\stapi\AppData\Local\Temp\ccxXyLJa.s:612    .text.ip4addr_ntoa_r:000000000000002e .LVL65
C:\Users\stapi\AppData\Local\Temp\ccxXyLJa.s:622    .text.ip4addr_ntoa_r:000000000000003e .LVL67
C:\Users\stapi\AppData\Local\Temp\ccxXyLJa.s:629    .text.ip4addr_ntoa_r:0000000000000048 .LVL68
C:\Users\stapi\AppData\Local\Temp\ccxXyLJa.s:651    .text.ip4addr_ntoa_r:000000000000005c .LVL73
C:\Users\stapi\AppData\Local\Temp\ccxXyLJa.s:687    .text.ip4addr_ntoa_r:0000000000000080 .LVL79
C:\Users\stapi\AppData\Local\Temp\ccxXyLJa.s:700    .text.ip4addr_ntoa_r:0000000000000090 .LVL82
C:\Users\stapi\AppData\Local\Temp\ccxXyLJa.s:636    .text.ip4addr_ntoa_r:000000000000004c .LVL70
C:\Users\stapi\AppData\Local\Temp\ccxXyLJa.s:640    .text.ip4addr_ntoa_r:0000000000000050 .LVL71
C:\Users\stapi\AppData\Local\Temp\ccxXyLJa.s:716    .text.ip4addr_ntoa:0000000000000000 .LVL83
C:\Users\stapi\AppData\Local\Temp\ccxXyLJa.s:160    .text.ip4addr_aton:0000000000000000 .LVL12
C:\Users\stapi\AppData\Local\Temp\ccxXyLJa.s:219    .text.ip4addr_aton:0000000000000046 .LVL17
C:\Users\stapi\AppData\Local\Temp\ccxXyLJa.s:229    .text.ip4addr_aton:0000000000000054 .LVL19
C:\Users\stapi\AppData\Local\Temp\ccxXyLJa.s:237    .text.ip4addr_aton:000000000000005c .LVL21
C:\Users\stapi\AppData\Local\Temp\ccxXyLJa.s:244    .text.ip4addr_aton:000000000000006a .LVL22
C:\Users\stapi\AppData\Local\Temp\ccxXyLJa.s:256    .text.ip4addr_aton:000000000000007a .LVL24
C:\Users\stapi\AppData\Local\Temp\ccxXyLJa.s:264    .text.ip4addr_aton:0000000000000080 .LVL26
C:\Users\stapi\AppData\Local\Temp\ccxXyLJa.s:266    .text.ip4addr_aton:0000000000000082 .LVL27
C:\Users\stapi\AppData\Local\Temp\ccxXyLJa.s:277    .text.ip4addr_aton:000000000000008a .LVL29
C:\Users\stapi\AppData\Local\Temp\ccxXyLJa.s:279    .text.ip4addr_aton:000000000000008c .LVL30
C:\Users\stapi\AppData\Local\Temp\ccxXyLJa.s:298    .text.ip4addr_aton:00000000000000a2 .LVL33
C:\Users\stapi\AppData\Local\Temp\ccxXyLJa.s:307    .text.ip4addr_aton:00000000000000b2 .LVL34
C:\Users\stapi\AppData\Local\Temp\ccxXyLJa.s:326    .text.ip4addr_aton:00000000000000c8 .LVL37
C:\Users\stapi\AppData\Local\Temp\ccxXyLJa.s:330    .text.ip4addr_aton:00000000000000ca .LVL38
C:\Users\stapi\AppData\Local\Temp\ccxXyLJa.s:408    .text.ip4addr_aton:0000000000000120 .LVL44
C:\Users\stapi\AppData\Local\Temp\ccxXyLJa.s:182    .text.ip4addr_aton:0000000000000012 .LVL14
C:\Users\stapi\AppData\Local\Temp\ccxXyLJa.s:211    .text.ip4addr_aton:0000000000000040 .LVL16
C:\Users\stapi\AppData\Local\Temp\ccxXyLJa.s:292    .text.ip4addr_aton:000000000000009c .LVL31
C:\Users\stapi\AppData\Local\Temp\ccxXyLJa.s:480    .text.ip4addr_aton:0000000000000172 .LVL49
C:\Users\stapi\AppData\Local\Temp\ccxXyLJa.s:232    .text.ip4addr_aton:0000000000000056 .LVL20
C:\Users\stapi\AppData\Local\Temp\ccxXyLJa.s:381    .text.ip4addr_aton:0000000000000104 .LVL41
C:\Users\stapi\AppData\Local\Temp\ccxXyLJa.s:433    .text.ip4addr_aton:000000000000013c .LVL45
C:\Users\stapi\AppData\Local\Temp\ccxXyLJa.s:438    .text.ip4addr_aton:0000000000000140 .LVL46
C:\Users\stapi\AppData\Local\Temp\ccxXyLJa.s:443    .text.ip4addr_aton:0000000000000144 .LVL47
C:\Users\stapi\AppData\Local\Temp\ccxXyLJa.s:471    .text.ip4addr_aton:0000000000000166 .LVL48
C:\Users\stapi\AppData\Local\Temp\ccxXyLJa.s:483    .text.ip4addr_aton:000000000000017a .LVL50
C:\Users\stapi\AppData\Local\Temp\ccxXyLJa.s:199    .text.ip4addr_aton:0000000000000030 .LVL15
C:\Users\stapi\AppData\Local\Temp\ccxXyLJa.s:253    .text.ip4addr_aton:0000000000000076 .LVL23
C:\Users\stapi\AppData\Local\Temp\ccxXyLJa.s:262    .text.ip4addr_aton:000000000000007e .LVL25
C:\Users\stapi\AppData\Local\Temp\ccxXyLJa.s:295    .text.ip4addr_aton:000000000000009e .LVL32
C:\Users\stapi\AppData\Local\Temp\ccxXyLJa.s:324    .text.ip4addr_aton:00000000000000c4 .LVL36
C:\Users\stapi\AppData\Local\Temp\ccxXyLJa.s:347    .text.ip4addr_aton:00000000000000da .LVL40
C:\Users\stapi\AppData\Local\Temp\ccxXyLJa.s:493    .text.ip4addr_aton:000000000000018c .LVL52
C:\Users\stapi\AppData\Local\Temp\ccxXyLJa.s:174    .text.ip4addr_aton:000000000000000a .LVL13
C:\Users\stapi\AppData\Local\Temp\ccxXyLJa.s:342    .text.ip4addr_aton:00000000000000d4 .LVL39
C:\Users\stapi\AppData\Local\Temp\ccxXyLJa.s:497    .text.ip4addr_aton:000000000000018e .LVL53
C:\Users\stapi\AppData\Local\Temp\ccxXyLJa.s:510    .text.ipaddr_addr:0000000000000000 .LVL54
C:\Users\stapi\AppData\Local\Temp\ccxXyLJa.s:76     .text.ip4_addr_netmask_valid:0000000000000000 .LVL4
C:\Users\stapi\AppData\Local\Temp\ccxXyLJa.s:91     .text.ip4_addr_netmask_valid:0000000000000018 .LVL6
C:\Users\stapi\AppData\Local\Temp\ccxXyLJa.s:110    .text.ip4_addr_netmask_valid:0000000000000026 .LVL8
C:\Users\stapi\AppData\Local\Temp\ccxXyLJa.s:117    .text.ip4_addr_netmask_valid:000000000000002e .LVL9
C:\Users\stapi\AppData\Local\Temp\ccxXyLJa.s:137    .text.ip4_addr_netmask_valid:000000000000003c .LVL11
C:\Users\stapi\AppData\Local\Temp\ccxXyLJa.s:18     .text.ip4_addr_isbroadcast_u32:0000000000000000 .LVL0
C:\Users\stapi\AppData\Local\Temp\ccxXyLJa.s:33     .text.ip4_addr_isbroadcast_u32:0000000000000014 .LVL1
C:\Users\stapi\AppData\Local\Temp\ccxXyLJa.s:57     .text.ip4_addr_isbroadcast_u32:0000000000000034 .LVL2
C:\Users\stapi\AppData\Local\Temp\ccxXyLJa.s:61     .text.ip4_addr_isbroadcast_u32:0000000000000036 .LVL3
C:\Users\stapi\AppData\Local\Temp\ccxXyLJa.s:764    .debug_info:0000000000000000 .Ldebug_info0

UNDEFINED SYMBOLS
__riscv_save_0
lwip_htonl
__riscv_restore_0
__riscv_save_2
_ctype_
__riscv_restore_2
printf
