   1              		.file	"ip4_frag.c"
   2              		.option nopic
   3              		.attribute arch, "rv32i2p0_m2p0_a2p0_f2p0_c2p0_b_p0p94"
   4              		.attribute unaligned_access, 0
   5              		.attribute stack_align, 16
   6              		.text
   7              	.Ltext0:
   8              		.cfi_sections	.debug_frame
   9              		.section	.rodata.ip_reass_dequeue_datagram.str1.4,"aMS",@progbits,1
  10              		.align	2
  11              	.LC0:
  12 0000 433A2F55 		.string	"C:/Users/stapi/OneDrive/Desktop/GD32VW553/GD32VW55X_Wifi_BLE_SDK/GD32VW55x_RELEASE_V1.0.2
  12      73657273 
  12      2F737461 
  12      70692F4F 
  12      6E654472 
  13              		.align	2
  14              	.LC1:
  15 0088 73616E69 		.string	"sanity check linked list"
  15      74792063 
  15      6865636B 
  15      206C696E 
  15      6B656420 
  16 00a1 000000   		.align	2
  17              	.LC2:
  18 00a4 41737365 		.string	"Assertion \"%s\" failed at line %d in %s\n"
  18      7274696F 
  18      6E202225 
  18      73222066 
  18      61696C65 
  19              		.section	.text.ip_reass_dequeue_datagram,"ax",@progbits
  20              		.align	1
  22              	ip_reass_dequeue_datagram:
  23              	.LFB8:
  24              		.file 1 "C:/Users/stapi/OneDrive/Desktop/GD32VW553/GD32VW55X_Wifi_BLE_SDK/GD32VW55x_RELEASE_V1.0.2
   1:C:/Users/stapi/OneDrive/Desktop/GD32VW553/GD32VW55X_Wifi_BLE_SDK/GD32VW55x_RELEASE_V1.0.2/MSDK/lwip/lwip-2.1.2/src/core/ipv4\ip4_frag.c **** /**
   2:C:/Users/stapi/OneDrive/Desktop/GD32VW553/GD32VW55X_Wifi_BLE_SDK/GD32VW55x_RELEASE_V1.0.2/MSDK/lwip/lwip-2.1.2/src/core/ipv4\ip4_frag.c ****  * @file
   3:C:/Users/stapi/OneDrive/Desktop/GD32VW553/GD32VW55X_Wifi_BLE_SDK/GD32VW55x_RELEASE_V1.0.2/MSDK/lwip/lwip-2.1.2/src/core/ipv4\ip4_frag.c ****  * This is the IPv4 packet segmentation and reassembly implementation.
   4:C:/Users/stapi/OneDrive/Desktop/GD32VW553/GD32VW55X_Wifi_BLE_SDK/GD32VW55x_RELEASE_V1.0.2/MSDK/lwip/lwip-2.1.2/src/core/ipv4\ip4_frag.c ****  *
   5:C:/Users/stapi/OneDrive/Desktop/GD32VW553/GD32VW55X_Wifi_BLE_SDK/GD32VW55x_RELEASE_V1.0.2/MSDK/lwip/lwip-2.1.2/src/core/ipv4\ip4_frag.c ****  */
   6:C:/Users/stapi/OneDrive/Desktop/GD32VW553/GD32VW55X_Wifi_BLE_SDK/GD32VW55x_RELEASE_V1.0.2/MSDK/lwip/lwip-2.1.2/src/core/ipv4\ip4_frag.c **** 
   7:C:/Users/stapi/OneDrive/Desktop/GD32VW553/GD32VW55X_Wifi_BLE_SDK/GD32VW55x_RELEASE_V1.0.2/MSDK/lwip/lwip-2.1.2/src/core/ipv4\ip4_frag.c **** /*
   8:C:/Users/stapi/OneDrive/Desktop/GD32VW553/GD32VW55X_Wifi_BLE_SDK/GD32VW55x_RELEASE_V1.0.2/MSDK/lwip/lwip-2.1.2/src/core/ipv4\ip4_frag.c ****  * Copyright (c) 2001-2004 Swedish Institute of Computer Science.
   9:C:/Users/stapi/OneDrive/Desktop/GD32VW553/GD32VW55X_Wifi_BLE_SDK/GD32VW55x_RELEASE_V1.0.2/MSDK/lwip/lwip-2.1.2/src/core/ipv4\ip4_frag.c ****  * Copyright (c) 2024, GigaDevice Semiconductor Inc.
  10:C:/Users/stapi/OneDrive/Desktop/GD32VW553/GD32VW55X_Wifi_BLE_SDK/GD32VW55x_RELEASE_V1.0.2/MSDK/lwip/lwip-2.1.2/src/core/ipv4\ip4_frag.c ****  * All rights reserved.
  11:C:/Users/stapi/OneDrive/Desktop/GD32VW553/GD32VW55X_Wifi_BLE_SDK/GD32VW55x_RELEASE_V1.0.2/MSDK/lwip/lwip-2.1.2/src/core/ipv4\ip4_frag.c ****  *
  12:C:/Users/stapi/OneDrive/Desktop/GD32VW553/GD32VW55X_Wifi_BLE_SDK/GD32VW55x_RELEASE_V1.0.2/MSDK/lwip/lwip-2.1.2/src/core/ipv4\ip4_frag.c ****  * Redistribution and use in source and binary forms, with or without modification,
  13:C:/Users/stapi/OneDrive/Desktop/GD32VW553/GD32VW55X_Wifi_BLE_SDK/GD32VW55x_RELEASE_V1.0.2/MSDK/lwip/lwip-2.1.2/src/core/ipv4\ip4_frag.c ****  * are permitted provided that the following conditions are met:
  14:C:/Users/stapi/OneDrive/Desktop/GD32VW553/GD32VW55X_Wifi_BLE_SDK/GD32VW55x_RELEASE_V1.0.2/MSDK/lwip/lwip-2.1.2/src/core/ipv4\ip4_frag.c ****  *
  15:C:/Users/stapi/OneDrive/Desktop/GD32VW553/GD32VW55X_Wifi_BLE_SDK/GD32VW55x_RELEASE_V1.0.2/MSDK/lwip/lwip-2.1.2/src/core/ipv4\ip4_frag.c ****  * 1. Redistributions of source code must retain the above copyright notice,
  16:C:/Users/stapi/OneDrive/Desktop/GD32VW553/GD32VW55X_Wifi_BLE_SDK/GD32VW55x_RELEASE_V1.0.2/MSDK/lwip/lwip-2.1.2/src/core/ipv4\ip4_frag.c ****  *    this list of conditions and the following disclaimer.
  17:C:/Users/stapi/OneDrive/Desktop/GD32VW553/GD32VW55X_Wifi_BLE_SDK/GD32VW55x_RELEASE_V1.0.2/MSDK/lwip/lwip-2.1.2/src/core/ipv4\ip4_frag.c ****  * 2. Redistributions in binary form must reproduce the above copyright notice,
  18:C:/Users/stapi/OneDrive/Desktop/GD32VW553/GD32VW55X_Wifi_BLE_SDK/GD32VW55x_RELEASE_V1.0.2/MSDK/lwip/lwip-2.1.2/src/core/ipv4\ip4_frag.c ****  *    this list of conditions and the following disclaimer in the documentation
  19:C:/Users/stapi/OneDrive/Desktop/GD32VW553/GD32VW55X_Wifi_BLE_SDK/GD32VW55x_RELEASE_V1.0.2/MSDK/lwip/lwip-2.1.2/src/core/ipv4\ip4_frag.c ****  *    and/or other materials provided with the distribution.
  20:C:/Users/stapi/OneDrive/Desktop/GD32VW553/GD32VW55X_Wifi_BLE_SDK/GD32VW55x_RELEASE_V1.0.2/MSDK/lwip/lwip-2.1.2/src/core/ipv4\ip4_frag.c ****  * 3. The name of the author may not be used to endorse or promote products
  21:C:/Users/stapi/OneDrive/Desktop/GD32VW553/GD32VW55X_Wifi_BLE_SDK/GD32VW55x_RELEASE_V1.0.2/MSDK/lwip/lwip-2.1.2/src/core/ipv4\ip4_frag.c ****  *    derived from this software without specific prior written permission.
  22:C:/Users/stapi/OneDrive/Desktop/GD32VW553/GD32VW55X_Wifi_BLE_SDK/GD32VW55x_RELEASE_V1.0.2/MSDK/lwip/lwip-2.1.2/src/core/ipv4\ip4_frag.c ****  *
  23:C:/Users/stapi/OneDrive/Desktop/GD32VW553/GD32VW55X_Wifi_BLE_SDK/GD32VW55x_RELEASE_V1.0.2/MSDK/lwip/lwip-2.1.2/src/core/ipv4\ip4_frag.c ****  * THIS SOFTWARE IS PROVIDED BY THE AUTHOR ``AS IS'' AND ANY EXPRESS OR IMPLIED
  24:C:/Users/stapi/OneDrive/Desktop/GD32VW553/GD32VW55X_Wifi_BLE_SDK/GD32VW55x_RELEASE_V1.0.2/MSDK/lwip/lwip-2.1.2/src/core/ipv4\ip4_frag.c ****  * WARRANTIES, INCLUDING, BUT NOT LIMITED TO, THE IMPLIED WARRANTIES OF
  25:C:/Users/stapi/OneDrive/Desktop/GD32VW553/GD32VW55X_Wifi_BLE_SDK/GD32VW55x_RELEASE_V1.0.2/MSDK/lwip/lwip-2.1.2/src/core/ipv4\ip4_frag.c ****  * MERCHANTABILITY AND FITNESS FOR A PARTICULAR PURPOSE ARE DISCLAIMED. IN NO EVENT
  26:C:/Users/stapi/OneDrive/Desktop/GD32VW553/GD32VW55X_Wifi_BLE_SDK/GD32VW55x_RELEASE_V1.0.2/MSDK/lwip/lwip-2.1.2/src/core/ipv4\ip4_frag.c ****  * SHALL THE AUTHOR BE LIABLE FOR ANY DIRECT, INDIRECT, INCIDENTAL, SPECIAL,
  27:C:/Users/stapi/OneDrive/Desktop/GD32VW553/GD32VW55X_Wifi_BLE_SDK/GD32VW55x_RELEASE_V1.0.2/MSDK/lwip/lwip-2.1.2/src/core/ipv4\ip4_frag.c ****  * EXEMPLARY, OR CONSEQUENTIAL DAMAGES (INCLUDING, BUT NOT LIMITED TO, PROCUREMENT
  28:C:/Users/stapi/OneDrive/Desktop/GD32VW553/GD32VW55X_Wifi_BLE_SDK/GD32VW55x_RELEASE_V1.0.2/MSDK/lwip/lwip-2.1.2/src/core/ipv4\ip4_frag.c ****  * OF SUBSTITUTE GOODS OR SERVICES; LOSS OF USE, DATA, OR PROFITS; OR BUSINESS
  29:C:/Users/stapi/OneDrive/Desktop/GD32VW553/GD32VW55X_Wifi_BLE_SDK/GD32VW55x_RELEASE_V1.0.2/MSDK/lwip/lwip-2.1.2/src/core/ipv4\ip4_frag.c ****  * INTERRUPTION) HOWEVER CAUSED AND ON ANY THEORY OF LIABILITY, WHETHER IN
  30:C:/Users/stapi/OneDrive/Desktop/GD32VW553/GD32VW55X_Wifi_BLE_SDK/GD32VW55x_RELEASE_V1.0.2/MSDK/lwip/lwip-2.1.2/src/core/ipv4\ip4_frag.c ****  * CONTRACT, STRICT LIABILITY, OR TORT (INCLUDING NEGLIGENCE OR OTHERWISE) ARISING
  31:C:/Users/stapi/OneDrive/Desktop/GD32VW553/GD32VW55X_Wifi_BLE_SDK/GD32VW55x_RELEASE_V1.0.2/MSDK/lwip/lwip-2.1.2/src/core/ipv4\ip4_frag.c ****  * IN ANY WAY OUT OF THE USE OF THIS SOFTWARE, EVEN IF ADVISED OF THE POSSIBILITY
  32:C:/Users/stapi/OneDrive/Desktop/GD32VW553/GD32VW55X_Wifi_BLE_SDK/GD32VW55x_RELEASE_V1.0.2/MSDK/lwip/lwip-2.1.2/src/core/ipv4\ip4_frag.c ****  * OF SUCH DAMAGE.
  33:C:/Users/stapi/OneDrive/Desktop/GD32VW553/GD32VW55X_Wifi_BLE_SDK/GD32VW55x_RELEASE_V1.0.2/MSDK/lwip/lwip-2.1.2/src/core/ipv4\ip4_frag.c ****  *
  34:C:/Users/stapi/OneDrive/Desktop/GD32VW553/GD32VW55X_Wifi_BLE_SDK/GD32VW55x_RELEASE_V1.0.2/MSDK/lwip/lwip-2.1.2/src/core/ipv4\ip4_frag.c ****  * This file is part of the lwIP TCP/IP stack.
  35:C:/Users/stapi/OneDrive/Desktop/GD32VW553/GD32VW55X_Wifi_BLE_SDK/GD32VW55x_RELEASE_V1.0.2/MSDK/lwip/lwip-2.1.2/src/core/ipv4\ip4_frag.c ****  *
  36:C:/Users/stapi/OneDrive/Desktop/GD32VW553/GD32VW55X_Wifi_BLE_SDK/GD32VW55x_RELEASE_V1.0.2/MSDK/lwip/lwip-2.1.2/src/core/ipv4\ip4_frag.c ****  * Author: Jani Monoses <jani@iv.ro>
  37:C:/Users/stapi/OneDrive/Desktop/GD32VW553/GD32VW55X_Wifi_BLE_SDK/GD32VW55x_RELEASE_V1.0.2/MSDK/lwip/lwip-2.1.2/src/core/ipv4\ip4_frag.c ****  *         Simon Goldschmidt
  38:C:/Users/stapi/OneDrive/Desktop/GD32VW553/GD32VW55X_Wifi_BLE_SDK/GD32VW55x_RELEASE_V1.0.2/MSDK/lwip/lwip-2.1.2/src/core/ipv4\ip4_frag.c ****  * original reassembly code by Adam Dunkels <adam@sics.se>
  39:C:/Users/stapi/OneDrive/Desktop/GD32VW553/GD32VW55X_Wifi_BLE_SDK/GD32VW55x_RELEASE_V1.0.2/MSDK/lwip/lwip-2.1.2/src/core/ipv4\ip4_frag.c ****  *
  40:C:/Users/stapi/OneDrive/Desktop/GD32VW553/GD32VW55X_Wifi_BLE_SDK/GD32VW55x_RELEASE_V1.0.2/MSDK/lwip/lwip-2.1.2/src/core/ipv4\ip4_frag.c ****  */
  41:C:/Users/stapi/OneDrive/Desktop/GD32VW553/GD32VW55X_Wifi_BLE_SDK/GD32VW55x_RELEASE_V1.0.2/MSDK/lwip/lwip-2.1.2/src/core/ipv4\ip4_frag.c **** 
  42:C:/Users/stapi/OneDrive/Desktop/GD32VW553/GD32VW55X_Wifi_BLE_SDK/GD32VW55x_RELEASE_V1.0.2/MSDK/lwip/lwip-2.1.2/src/core/ipv4\ip4_frag.c **** #include "lwip/opt.h"
  43:C:/Users/stapi/OneDrive/Desktop/GD32VW553/GD32VW55X_Wifi_BLE_SDK/GD32VW55x_RELEASE_V1.0.2/MSDK/lwip/lwip-2.1.2/src/core/ipv4\ip4_frag.c **** 
  44:C:/Users/stapi/OneDrive/Desktop/GD32VW553/GD32VW55X_Wifi_BLE_SDK/GD32VW55x_RELEASE_V1.0.2/MSDK/lwip/lwip-2.1.2/src/core/ipv4\ip4_frag.c **** #if LWIP_IPV4
  45:C:/Users/stapi/OneDrive/Desktop/GD32VW553/GD32VW55X_Wifi_BLE_SDK/GD32VW55x_RELEASE_V1.0.2/MSDK/lwip/lwip-2.1.2/src/core/ipv4\ip4_frag.c **** 
  46:C:/Users/stapi/OneDrive/Desktop/GD32VW553/GD32VW55X_Wifi_BLE_SDK/GD32VW55x_RELEASE_V1.0.2/MSDK/lwip/lwip-2.1.2/src/core/ipv4\ip4_frag.c **** #include "lwip/ip4_frag.h"
  47:C:/Users/stapi/OneDrive/Desktop/GD32VW553/GD32VW55X_Wifi_BLE_SDK/GD32VW55x_RELEASE_V1.0.2/MSDK/lwip/lwip-2.1.2/src/core/ipv4\ip4_frag.c **** #include "lwip/def.h"
  48:C:/Users/stapi/OneDrive/Desktop/GD32VW553/GD32VW55X_Wifi_BLE_SDK/GD32VW55x_RELEASE_V1.0.2/MSDK/lwip/lwip-2.1.2/src/core/ipv4\ip4_frag.c **** #include "lwip/inet_chksum.h"
  49:C:/Users/stapi/OneDrive/Desktop/GD32VW553/GD32VW55X_Wifi_BLE_SDK/GD32VW55x_RELEASE_V1.0.2/MSDK/lwip/lwip-2.1.2/src/core/ipv4\ip4_frag.c **** #include "lwip/netif.h"
  50:C:/Users/stapi/OneDrive/Desktop/GD32VW553/GD32VW55X_Wifi_BLE_SDK/GD32VW55x_RELEASE_V1.0.2/MSDK/lwip/lwip-2.1.2/src/core/ipv4\ip4_frag.c **** #include "lwip/stats.h"
  51:C:/Users/stapi/OneDrive/Desktop/GD32VW553/GD32VW55X_Wifi_BLE_SDK/GD32VW55x_RELEASE_V1.0.2/MSDK/lwip/lwip-2.1.2/src/core/ipv4\ip4_frag.c **** #include "lwip/icmp.h"
  52:C:/Users/stapi/OneDrive/Desktop/GD32VW553/GD32VW55X_Wifi_BLE_SDK/GD32VW55x_RELEASE_V1.0.2/MSDK/lwip/lwip-2.1.2/src/core/ipv4\ip4_frag.c **** 
  53:C:/Users/stapi/OneDrive/Desktop/GD32VW553/GD32VW55X_Wifi_BLE_SDK/GD32VW55x_RELEASE_V1.0.2/MSDK/lwip/lwip-2.1.2/src/core/ipv4\ip4_frag.c **** #include <string.h>
  54:C:/Users/stapi/OneDrive/Desktop/GD32VW553/GD32VW55X_Wifi_BLE_SDK/GD32VW55x_RELEASE_V1.0.2/MSDK/lwip/lwip-2.1.2/src/core/ipv4\ip4_frag.c **** 
  55:C:/Users/stapi/OneDrive/Desktop/GD32VW553/GD32VW55X_Wifi_BLE_SDK/GD32VW55x_RELEASE_V1.0.2/MSDK/lwip/lwip-2.1.2/src/core/ipv4\ip4_frag.c **** #if IP_REASSEMBLY
  56:C:/Users/stapi/OneDrive/Desktop/GD32VW553/GD32VW55X_Wifi_BLE_SDK/GD32VW55x_RELEASE_V1.0.2/MSDK/lwip/lwip-2.1.2/src/core/ipv4\ip4_frag.c **** /**
  57:C:/Users/stapi/OneDrive/Desktop/GD32VW553/GD32VW55X_Wifi_BLE_SDK/GD32VW55x_RELEASE_V1.0.2/MSDK/lwip/lwip-2.1.2/src/core/ipv4\ip4_frag.c ****  * The IP reassembly code currently has the following limitations:
  58:C:/Users/stapi/OneDrive/Desktop/GD32VW553/GD32VW55X_Wifi_BLE_SDK/GD32VW55x_RELEASE_V1.0.2/MSDK/lwip/lwip-2.1.2/src/core/ipv4\ip4_frag.c ****  * - IP header options are not supported
  59:C:/Users/stapi/OneDrive/Desktop/GD32VW553/GD32VW55X_Wifi_BLE_SDK/GD32VW55x_RELEASE_V1.0.2/MSDK/lwip/lwip-2.1.2/src/core/ipv4\ip4_frag.c ****  * - fragments must not overlap (e.g. due to different routes),
  60:C:/Users/stapi/OneDrive/Desktop/GD32VW553/GD32VW55X_Wifi_BLE_SDK/GD32VW55x_RELEASE_V1.0.2/MSDK/lwip/lwip-2.1.2/src/core/ipv4\ip4_frag.c ****  *   currently, overlapping or duplicate fragments are thrown away
  61:C:/Users/stapi/OneDrive/Desktop/GD32VW553/GD32VW55X_Wifi_BLE_SDK/GD32VW55x_RELEASE_V1.0.2/MSDK/lwip/lwip-2.1.2/src/core/ipv4\ip4_frag.c ****  *   if IP_REASS_CHECK_OVERLAP=1 (the default)!
  62:C:/Users/stapi/OneDrive/Desktop/GD32VW553/GD32VW55X_Wifi_BLE_SDK/GD32VW55x_RELEASE_V1.0.2/MSDK/lwip/lwip-2.1.2/src/core/ipv4\ip4_frag.c ****  *
  63:C:/Users/stapi/OneDrive/Desktop/GD32VW553/GD32VW55X_Wifi_BLE_SDK/GD32VW55x_RELEASE_V1.0.2/MSDK/lwip/lwip-2.1.2/src/core/ipv4\ip4_frag.c ****  * @todo: work with IP header options
  64:C:/Users/stapi/OneDrive/Desktop/GD32VW553/GD32VW55X_Wifi_BLE_SDK/GD32VW55x_RELEASE_V1.0.2/MSDK/lwip/lwip-2.1.2/src/core/ipv4\ip4_frag.c ****  */
  65:C:/Users/stapi/OneDrive/Desktop/GD32VW553/GD32VW55X_Wifi_BLE_SDK/GD32VW55x_RELEASE_V1.0.2/MSDK/lwip/lwip-2.1.2/src/core/ipv4\ip4_frag.c **** 
  66:C:/Users/stapi/OneDrive/Desktop/GD32VW553/GD32VW55X_Wifi_BLE_SDK/GD32VW55x_RELEASE_V1.0.2/MSDK/lwip/lwip-2.1.2/src/core/ipv4\ip4_frag.c **** /** Setting this to 0, you can turn off checking the fragments for overlapping
  67:C:/Users/stapi/OneDrive/Desktop/GD32VW553/GD32VW55X_Wifi_BLE_SDK/GD32VW55x_RELEASE_V1.0.2/MSDK/lwip/lwip-2.1.2/src/core/ipv4\ip4_frag.c ****  * regions. The code gets a little smaller. Only use this if you know that
  68:C:/Users/stapi/OneDrive/Desktop/GD32VW553/GD32VW55X_Wifi_BLE_SDK/GD32VW55x_RELEASE_V1.0.2/MSDK/lwip/lwip-2.1.2/src/core/ipv4\ip4_frag.c ****  * overlapping won't occur on your network! */
  69:C:/Users/stapi/OneDrive/Desktop/GD32VW553/GD32VW55X_Wifi_BLE_SDK/GD32VW55x_RELEASE_V1.0.2/MSDK/lwip/lwip-2.1.2/src/core/ipv4\ip4_frag.c **** #ifndef IP_REASS_CHECK_OVERLAP
  70:C:/Users/stapi/OneDrive/Desktop/GD32VW553/GD32VW55X_Wifi_BLE_SDK/GD32VW55x_RELEASE_V1.0.2/MSDK/lwip/lwip-2.1.2/src/core/ipv4\ip4_frag.c **** #define IP_REASS_CHECK_OVERLAP 1
  71:C:/Users/stapi/OneDrive/Desktop/GD32VW553/GD32VW55X_Wifi_BLE_SDK/GD32VW55x_RELEASE_V1.0.2/MSDK/lwip/lwip-2.1.2/src/core/ipv4\ip4_frag.c **** #endif /* IP_REASS_CHECK_OVERLAP */
  72:C:/Users/stapi/OneDrive/Desktop/GD32VW553/GD32VW55X_Wifi_BLE_SDK/GD32VW55x_RELEASE_V1.0.2/MSDK/lwip/lwip-2.1.2/src/core/ipv4\ip4_frag.c **** 
  73:C:/Users/stapi/OneDrive/Desktop/GD32VW553/GD32VW55X_Wifi_BLE_SDK/GD32VW55x_RELEASE_V1.0.2/MSDK/lwip/lwip-2.1.2/src/core/ipv4\ip4_frag.c **** /** Set to 0 to prevent freeing the oldest datagram when the reassembly buffer is
  74:C:/Users/stapi/OneDrive/Desktop/GD32VW553/GD32VW55X_Wifi_BLE_SDK/GD32VW55x_RELEASE_V1.0.2/MSDK/lwip/lwip-2.1.2/src/core/ipv4\ip4_frag.c ****  * full (IP_REASS_MAX_PBUFS pbufs are enqueued). The code gets a little smaller.
  75:C:/Users/stapi/OneDrive/Desktop/GD32VW553/GD32VW55X_Wifi_BLE_SDK/GD32VW55x_RELEASE_V1.0.2/MSDK/lwip/lwip-2.1.2/src/core/ipv4\ip4_frag.c ****  * Datagrams will be freed by timeout only. Especially useful when MEMP_NUM_REASSDATA
  76:C:/Users/stapi/OneDrive/Desktop/GD32VW553/GD32VW55X_Wifi_BLE_SDK/GD32VW55x_RELEASE_V1.0.2/MSDK/lwip/lwip-2.1.2/src/core/ipv4\ip4_frag.c ****  * is set to 1, so one datagram can be reassembled at a time, only. */
  77:C:/Users/stapi/OneDrive/Desktop/GD32VW553/GD32VW55X_Wifi_BLE_SDK/GD32VW55x_RELEASE_V1.0.2/MSDK/lwip/lwip-2.1.2/src/core/ipv4\ip4_frag.c **** #ifndef IP_REASS_FREE_OLDEST
  78:C:/Users/stapi/OneDrive/Desktop/GD32VW553/GD32VW55X_Wifi_BLE_SDK/GD32VW55x_RELEASE_V1.0.2/MSDK/lwip/lwip-2.1.2/src/core/ipv4\ip4_frag.c **** #define IP_REASS_FREE_OLDEST 1
  79:C:/Users/stapi/OneDrive/Desktop/GD32VW553/GD32VW55X_Wifi_BLE_SDK/GD32VW55x_RELEASE_V1.0.2/MSDK/lwip/lwip-2.1.2/src/core/ipv4\ip4_frag.c **** #endif /* IP_REASS_FREE_OLDEST */
  80:C:/Users/stapi/OneDrive/Desktop/GD32VW553/GD32VW55X_Wifi_BLE_SDK/GD32VW55x_RELEASE_V1.0.2/MSDK/lwip/lwip-2.1.2/src/core/ipv4\ip4_frag.c **** 
  81:C:/Users/stapi/OneDrive/Desktop/GD32VW553/GD32VW55X_Wifi_BLE_SDK/GD32VW55x_RELEASE_V1.0.2/MSDK/lwip/lwip-2.1.2/src/core/ipv4\ip4_frag.c **** #define IP_REASS_FLAG_LASTFRAG 0x01
  82:C:/Users/stapi/OneDrive/Desktop/GD32VW553/GD32VW55X_Wifi_BLE_SDK/GD32VW55x_RELEASE_V1.0.2/MSDK/lwip/lwip-2.1.2/src/core/ipv4\ip4_frag.c **** 
  83:C:/Users/stapi/OneDrive/Desktop/GD32VW553/GD32VW55X_Wifi_BLE_SDK/GD32VW55x_RELEASE_V1.0.2/MSDK/lwip/lwip-2.1.2/src/core/ipv4\ip4_frag.c **** #define IP_REASS_VALIDATE_TELEGRAM_FINISHED  1
  84:C:/Users/stapi/OneDrive/Desktop/GD32VW553/GD32VW55X_Wifi_BLE_SDK/GD32VW55x_RELEASE_V1.0.2/MSDK/lwip/lwip-2.1.2/src/core/ipv4\ip4_frag.c **** #define IP_REASS_VALIDATE_PBUF_QUEUED        0
  85:C:/Users/stapi/OneDrive/Desktop/GD32VW553/GD32VW55X_Wifi_BLE_SDK/GD32VW55x_RELEASE_V1.0.2/MSDK/lwip/lwip-2.1.2/src/core/ipv4\ip4_frag.c **** #define IP_REASS_VALIDATE_PBUF_DROPPED       -1
  86:C:/Users/stapi/OneDrive/Desktop/GD32VW553/GD32VW55X_Wifi_BLE_SDK/GD32VW55x_RELEASE_V1.0.2/MSDK/lwip/lwip-2.1.2/src/core/ipv4\ip4_frag.c **** 
  87:C:/Users/stapi/OneDrive/Desktop/GD32VW553/GD32VW55X_Wifi_BLE_SDK/GD32VW55x_RELEASE_V1.0.2/MSDK/lwip/lwip-2.1.2/src/core/ipv4\ip4_frag.c **** /** This is a helper struct which holds the starting
  88:C:/Users/stapi/OneDrive/Desktop/GD32VW553/GD32VW55X_Wifi_BLE_SDK/GD32VW55x_RELEASE_V1.0.2/MSDK/lwip/lwip-2.1.2/src/core/ipv4\ip4_frag.c ****  * offset and the ending offset of this fragment to
  89:C:/Users/stapi/OneDrive/Desktop/GD32VW553/GD32VW55X_Wifi_BLE_SDK/GD32VW55x_RELEASE_V1.0.2/MSDK/lwip/lwip-2.1.2/src/core/ipv4\ip4_frag.c ****  * easily chain the fragments.
  90:C:/Users/stapi/OneDrive/Desktop/GD32VW553/GD32VW55X_Wifi_BLE_SDK/GD32VW55x_RELEASE_V1.0.2/MSDK/lwip/lwip-2.1.2/src/core/ipv4\ip4_frag.c ****  * It has the same packing requirements as the IP header, since it replaces
  91:C:/Users/stapi/OneDrive/Desktop/GD32VW553/GD32VW55X_Wifi_BLE_SDK/GD32VW55x_RELEASE_V1.0.2/MSDK/lwip/lwip-2.1.2/src/core/ipv4\ip4_frag.c ****  * the IP header in memory in incoming fragments (after copying it) to keep
  92:C:/Users/stapi/OneDrive/Desktop/GD32VW553/GD32VW55X_Wifi_BLE_SDK/GD32VW55x_RELEASE_V1.0.2/MSDK/lwip/lwip-2.1.2/src/core/ipv4\ip4_frag.c ****  * track of the various fragments. (-> If the IP header doesn't need packing,
  93:C:/Users/stapi/OneDrive/Desktop/GD32VW553/GD32VW55X_Wifi_BLE_SDK/GD32VW55x_RELEASE_V1.0.2/MSDK/lwip/lwip-2.1.2/src/core/ipv4\ip4_frag.c ****  * this struct doesn't need packing, too.)
  94:C:/Users/stapi/OneDrive/Desktop/GD32VW553/GD32VW55X_Wifi_BLE_SDK/GD32VW55x_RELEASE_V1.0.2/MSDK/lwip/lwip-2.1.2/src/core/ipv4\ip4_frag.c ****  */
  95:C:/Users/stapi/OneDrive/Desktop/GD32VW553/GD32VW55X_Wifi_BLE_SDK/GD32VW55x_RELEASE_V1.0.2/MSDK/lwip/lwip-2.1.2/src/core/ipv4\ip4_frag.c **** #ifdef PACK_STRUCT_USE_INCLUDES
  96:C:/Users/stapi/OneDrive/Desktop/GD32VW553/GD32VW55X_Wifi_BLE_SDK/GD32VW55x_RELEASE_V1.0.2/MSDK/lwip/lwip-2.1.2/src/core/ipv4\ip4_frag.c **** #  include "arch/bpstruct.h"
  97:C:/Users/stapi/OneDrive/Desktop/GD32VW553/GD32VW55X_Wifi_BLE_SDK/GD32VW55x_RELEASE_V1.0.2/MSDK/lwip/lwip-2.1.2/src/core/ipv4\ip4_frag.c **** #endif
  98:C:/Users/stapi/OneDrive/Desktop/GD32VW553/GD32VW55X_Wifi_BLE_SDK/GD32VW55x_RELEASE_V1.0.2/MSDK/lwip/lwip-2.1.2/src/core/ipv4\ip4_frag.c **** PACK_STRUCT_BEGIN
  99:C:/Users/stapi/OneDrive/Desktop/GD32VW553/GD32VW55X_Wifi_BLE_SDK/GD32VW55x_RELEASE_V1.0.2/MSDK/lwip/lwip-2.1.2/src/core/ipv4\ip4_frag.c **** struct ip_reass_helper {
 100:C:/Users/stapi/OneDrive/Desktop/GD32VW553/GD32VW55X_Wifi_BLE_SDK/GD32VW55x_RELEASE_V1.0.2/MSDK/lwip/lwip-2.1.2/src/core/ipv4\ip4_frag.c ****   PACK_STRUCT_FIELD(struct pbuf *next_pbuf);
 101:C:/Users/stapi/OneDrive/Desktop/GD32VW553/GD32VW55X_Wifi_BLE_SDK/GD32VW55x_RELEASE_V1.0.2/MSDK/lwip/lwip-2.1.2/src/core/ipv4\ip4_frag.c ****   PACK_STRUCT_FIELD(u16_t start);
 102:C:/Users/stapi/OneDrive/Desktop/GD32VW553/GD32VW55X_Wifi_BLE_SDK/GD32VW55x_RELEASE_V1.0.2/MSDK/lwip/lwip-2.1.2/src/core/ipv4\ip4_frag.c ****   PACK_STRUCT_FIELD(u16_t end);
 103:C:/Users/stapi/OneDrive/Desktop/GD32VW553/GD32VW55X_Wifi_BLE_SDK/GD32VW55x_RELEASE_V1.0.2/MSDK/lwip/lwip-2.1.2/src/core/ipv4\ip4_frag.c **** } PACK_STRUCT_STRUCT;
 104:C:/Users/stapi/OneDrive/Desktop/GD32VW553/GD32VW55X_Wifi_BLE_SDK/GD32VW55x_RELEASE_V1.0.2/MSDK/lwip/lwip-2.1.2/src/core/ipv4\ip4_frag.c **** PACK_STRUCT_END
 105:C:/Users/stapi/OneDrive/Desktop/GD32VW553/GD32VW55X_Wifi_BLE_SDK/GD32VW55x_RELEASE_V1.0.2/MSDK/lwip/lwip-2.1.2/src/core/ipv4\ip4_frag.c **** #ifdef PACK_STRUCT_USE_INCLUDES
 106:C:/Users/stapi/OneDrive/Desktop/GD32VW553/GD32VW55X_Wifi_BLE_SDK/GD32VW55x_RELEASE_V1.0.2/MSDK/lwip/lwip-2.1.2/src/core/ipv4\ip4_frag.c **** #  include "arch/epstruct.h"
 107:C:/Users/stapi/OneDrive/Desktop/GD32VW553/GD32VW55X_Wifi_BLE_SDK/GD32VW55x_RELEASE_V1.0.2/MSDK/lwip/lwip-2.1.2/src/core/ipv4\ip4_frag.c **** #endif
 108:C:/Users/stapi/OneDrive/Desktop/GD32VW553/GD32VW55X_Wifi_BLE_SDK/GD32VW55x_RELEASE_V1.0.2/MSDK/lwip/lwip-2.1.2/src/core/ipv4\ip4_frag.c **** 
 109:C:/Users/stapi/OneDrive/Desktop/GD32VW553/GD32VW55X_Wifi_BLE_SDK/GD32VW55x_RELEASE_V1.0.2/MSDK/lwip/lwip-2.1.2/src/core/ipv4\ip4_frag.c **** #define IP_ADDRESSES_AND_ID_MATCH(iphdrA, iphdrB)  \
 110:C:/Users/stapi/OneDrive/Desktop/GD32VW553/GD32VW55X_Wifi_BLE_SDK/GD32VW55x_RELEASE_V1.0.2/MSDK/lwip/lwip-2.1.2/src/core/ipv4\ip4_frag.c ****   (ip4_addr_cmp(&(iphdrA)->src, &(iphdrB)->src) && \
 111:C:/Users/stapi/OneDrive/Desktop/GD32VW553/GD32VW55X_Wifi_BLE_SDK/GD32VW55x_RELEASE_V1.0.2/MSDK/lwip/lwip-2.1.2/src/core/ipv4\ip4_frag.c ****    ip4_addr_cmp(&(iphdrA)->dest, &(iphdrB)->dest) && \
 112:C:/Users/stapi/OneDrive/Desktop/GD32VW553/GD32VW55X_Wifi_BLE_SDK/GD32VW55x_RELEASE_V1.0.2/MSDK/lwip/lwip-2.1.2/src/core/ipv4\ip4_frag.c ****    IPH_ID(iphdrA) == IPH_ID(iphdrB)) ? 1 : 0
 113:C:/Users/stapi/OneDrive/Desktop/GD32VW553/GD32VW55X_Wifi_BLE_SDK/GD32VW55x_RELEASE_V1.0.2/MSDK/lwip/lwip-2.1.2/src/core/ipv4\ip4_frag.c **** 
 114:C:/Users/stapi/OneDrive/Desktop/GD32VW553/GD32VW55X_Wifi_BLE_SDK/GD32VW55x_RELEASE_V1.0.2/MSDK/lwip/lwip-2.1.2/src/core/ipv4\ip4_frag.c **** /* global variables */
 115:C:/Users/stapi/OneDrive/Desktop/GD32VW553/GD32VW55X_Wifi_BLE_SDK/GD32VW55x_RELEASE_V1.0.2/MSDK/lwip/lwip-2.1.2/src/core/ipv4\ip4_frag.c **** static struct ip_reassdata *reassdatagrams;
 116:C:/Users/stapi/OneDrive/Desktop/GD32VW553/GD32VW55X_Wifi_BLE_SDK/GD32VW55x_RELEASE_V1.0.2/MSDK/lwip/lwip-2.1.2/src/core/ipv4\ip4_frag.c **** static u16_t ip_reass_pbufcount;
 117:C:/Users/stapi/OneDrive/Desktop/GD32VW553/GD32VW55X_Wifi_BLE_SDK/GD32VW55x_RELEASE_V1.0.2/MSDK/lwip/lwip-2.1.2/src/core/ipv4\ip4_frag.c **** 
 118:C:/Users/stapi/OneDrive/Desktop/GD32VW553/GD32VW55X_Wifi_BLE_SDK/GD32VW55x_RELEASE_V1.0.2/MSDK/lwip/lwip-2.1.2/src/core/ipv4\ip4_frag.c **** /* function prototypes */
 119:C:/Users/stapi/OneDrive/Desktop/GD32VW553/GD32VW55X_Wifi_BLE_SDK/GD32VW55x_RELEASE_V1.0.2/MSDK/lwip/lwip-2.1.2/src/core/ipv4\ip4_frag.c **** static void ip_reass_dequeue_datagram(struct ip_reassdata *ipr, struct ip_reassdata *prev);
 120:C:/Users/stapi/OneDrive/Desktop/GD32VW553/GD32VW55X_Wifi_BLE_SDK/GD32VW55x_RELEASE_V1.0.2/MSDK/lwip/lwip-2.1.2/src/core/ipv4\ip4_frag.c **** static int ip_reass_free_complete_datagram(struct ip_reassdata *ipr, struct ip_reassdata *prev);
 121:C:/Users/stapi/OneDrive/Desktop/GD32VW553/GD32VW55X_Wifi_BLE_SDK/GD32VW55x_RELEASE_V1.0.2/MSDK/lwip/lwip-2.1.2/src/core/ipv4\ip4_frag.c **** 
 122:C:/Users/stapi/OneDrive/Desktop/GD32VW553/GD32VW55X_Wifi_BLE_SDK/GD32VW55x_RELEASE_V1.0.2/MSDK/lwip/lwip-2.1.2/src/core/ipv4\ip4_frag.c **** /**
 123:C:/Users/stapi/OneDrive/Desktop/GD32VW553/GD32VW55X_Wifi_BLE_SDK/GD32VW55x_RELEASE_V1.0.2/MSDK/lwip/lwip-2.1.2/src/core/ipv4\ip4_frag.c ****  * Reassembly timer base function
 124:C:/Users/stapi/OneDrive/Desktop/GD32VW553/GD32VW55X_Wifi_BLE_SDK/GD32VW55x_RELEASE_V1.0.2/MSDK/lwip/lwip-2.1.2/src/core/ipv4\ip4_frag.c ****  * for both NO_SYS == 0 and 1 (!).
 125:C:/Users/stapi/OneDrive/Desktop/GD32VW553/GD32VW55X_Wifi_BLE_SDK/GD32VW55x_RELEASE_V1.0.2/MSDK/lwip/lwip-2.1.2/src/core/ipv4\ip4_frag.c ****  *
 126:C:/Users/stapi/OneDrive/Desktop/GD32VW553/GD32VW55X_Wifi_BLE_SDK/GD32VW55x_RELEASE_V1.0.2/MSDK/lwip/lwip-2.1.2/src/core/ipv4\ip4_frag.c ****  * Should be called every 1000 msec (defined by IP_TMR_INTERVAL).
 127:C:/Users/stapi/OneDrive/Desktop/GD32VW553/GD32VW55X_Wifi_BLE_SDK/GD32VW55x_RELEASE_V1.0.2/MSDK/lwip/lwip-2.1.2/src/core/ipv4\ip4_frag.c ****  */
 128:C:/Users/stapi/OneDrive/Desktop/GD32VW553/GD32VW55X_Wifi_BLE_SDK/GD32VW55x_RELEASE_V1.0.2/MSDK/lwip/lwip-2.1.2/src/core/ipv4\ip4_frag.c **** void
 129:C:/Users/stapi/OneDrive/Desktop/GD32VW553/GD32VW55X_Wifi_BLE_SDK/GD32VW55x_RELEASE_V1.0.2/MSDK/lwip/lwip-2.1.2/src/core/ipv4\ip4_frag.c **** ip_reass_tmr(void)
 130:C:/Users/stapi/OneDrive/Desktop/GD32VW553/GD32VW55X_Wifi_BLE_SDK/GD32VW55x_RELEASE_V1.0.2/MSDK/lwip/lwip-2.1.2/src/core/ipv4\ip4_frag.c **** {
 131:C:/Users/stapi/OneDrive/Desktop/GD32VW553/GD32VW55X_Wifi_BLE_SDK/GD32VW55x_RELEASE_V1.0.2/MSDK/lwip/lwip-2.1.2/src/core/ipv4\ip4_frag.c ****   struct ip_reassdata *r, *prev = NULL;
 132:C:/Users/stapi/OneDrive/Desktop/GD32VW553/GD32VW55X_Wifi_BLE_SDK/GD32VW55x_RELEASE_V1.0.2/MSDK/lwip/lwip-2.1.2/src/core/ipv4\ip4_frag.c **** 
 133:C:/Users/stapi/OneDrive/Desktop/GD32VW553/GD32VW55X_Wifi_BLE_SDK/GD32VW55x_RELEASE_V1.0.2/MSDK/lwip/lwip-2.1.2/src/core/ipv4\ip4_frag.c ****   r = reassdatagrams;
 134:C:/Users/stapi/OneDrive/Desktop/GD32VW553/GD32VW55X_Wifi_BLE_SDK/GD32VW55x_RELEASE_V1.0.2/MSDK/lwip/lwip-2.1.2/src/core/ipv4\ip4_frag.c ****   while (r != NULL) {
 135:C:/Users/stapi/OneDrive/Desktop/GD32VW553/GD32VW55X_Wifi_BLE_SDK/GD32VW55x_RELEASE_V1.0.2/MSDK/lwip/lwip-2.1.2/src/core/ipv4\ip4_frag.c ****     /* Decrement the timer. Once it reaches 0,
 136:C:/Users/stapi/OneDrive/Desktop/GD32VW553/GD32VW55X_Wifi_BLE_SDK/GD32VW55x_RELEASE_V1.0.2/MSDK/lwip/lwip-2.1.2/src/core/ipv4\ip4_frag.c ****      * clean up the incomplete fragment assembly */
 137:C:/Users/stapi/OneDrive/Desktop/GD32VW553/GD32VW55X_Wifi_BLE_SDK/GD32VW55x_RELEASE_V1.0.2/MSDK/lwip/lwip-2.1.2/src/core/ipv4\ip4_frag.c ****     if (r->timer > 0) {
 138:C:/Users/stapi/OneDrive/Desktop/GD32VW553/GD32VW55X_Wifi_BLE_SDK/GD32VW55x_RELEASE_V1.0.2/MSDK/lwip/lwip-2.1.2/src/core/ipv4\ip4_frag.c ****       r->timer--;
 139:C:/Users/stapi/OneDrive/Desktop/GD32VW553/GD32VW55X_Wifi_BLE_SDK/GD32VW55x_RELEASE_V1.0.2/MSDK/lwip/lwip-2.1.2/src/core/ipv4\ip4_frag.c ****       LWIP_DEBUGF(IP_REASS_DEBUG, ("ip_reass_tmr: timer dec %"U16_F"\n", (u16_t)r->timer));
 140:C:/Users/stapi/OneDrive/Desktop/GD32VW553/GD32VW55X_Wifi_BLE_SDK/GD32VW55x_RELEASE_V1.0.2/MSDK/lwip/lwip-2.1.2/src/core/ipv4\ip4_frag.c ****       prev = r;
 141:C:/Users/stapi/OneDrive/Desktop/GD32VW553/GD32VW55X_Wifi_BLE_SDK/GD32VW55x_RELEASE_V1.0.2/MSDK/lwip/lwip-2.1.2/src/core/ipv4\ip4_frag.c ****       r = r->next;
 142:C:/Users/stapi/OneDrive/Desktop/GD32VW553/GD32VW55X_Wifi_BLE_SDK/GD32VW55x_RELEASE_V1.0.2/MSDK/lwip/lwip-2.1.2/src/core/ipv4\ip4_frag.c ****     } else {
 143:C:/Users/stapi/OneDrive/Desktop/GD32VW553/GD32VW55X_Wifi_BLE_SDK/GD32VW55x_RELEASE_V1.0.2/MSDK/lwip/lwip-2.1.2/src/core/ipv4\ip4_frag.c ****       /* reassembly timed out */
 144:C:/Users/stapi/OneDrive/Desktop/GD32VW553/GD32VW55X_Wifi_BLE_SDK/GD32VW55x_RELEASE_V1.0.2/MSDK/lwip/lwip-2.1.2/src/core/ipv4\ip4_frag.c ****       struct ip_reassdata *tmp;
 145:C:/Users/stapi/OneDrive/Desktop/GD32VW553/GD32VW55X_Wifi_BLE_SDK/GD32VW55x_RELEASE_V1.0.2/MSDK/lwip/lwip-2.1.2/src/core/ipv4\ip4_frag.c ****       LWIP_DEBUGF(IP_REASS_DEBUG, ("ip_reass_tmr: timer timed out\n"));
 146:C:/Users/stapi/OneDrive/Desktop/GD32VW553/GD32VW55X_Wifi_BLE_SDK/GD32VW55x_RELEASE_V1.0.2/MSDK/lwip/lwip-2.1.2/src/core/ipv4\ip4_frag.c ****       tmp = r;
 147:C:/Users/stapi/OneDrive/Desktop/GD32VW553/GD32VW55X_Wifi_BLE_SDK/GD32VW55x_RELEASE_V1.0.2/MSDK/lwip/lwip-2.1.2/src/core/ipv4\ip4_frag.c ****       /* get the next pointer before freeing */
 148:C:/Users/stapi/OneDrive/Desktop/GD32VW553/GD32VW55X_Wifi_BLE_SDK/GD32VW55x_RELEASE_V1.0.2/MSDK/lwip/lwip-2.1.2/src/core/ipv4\ip4_frag.c ****       r = r->next;
 149:C:/Users/stapi/OneDrive/Desktop/GD32VW553/GD32VW55X_Wifi_BLE_SDK/GD32VW55x_RELEASE_V1.0.2/MSDK/lwip/lwip-2.1.2/src/core/ipv4\ip4_frag.c ****       /* free the helper struct and all enqueued pbufs */
 150:C:/Users/stapi/OneDrive/Desktop/GD32VW553/GD32VW55X_Wifi_BLE_SDK/GD32VW55x_RELEASE_V1.0.2/MSDK/lwip/lwip-2.1.2/src/core/ipv4\ip4_frag.c ****       ip_reass_free_complete_datagram(tmp, prev);
 151:C:/Users/stapi/OneDrive/Desktop/GD32VW553/GD32VW55X_Wifi_BLE_SDK/GD32VW55x_RELEASE_V1.0.2/MSDK/lwip/lwip-2.1.2/src/core/ipv4\ip4_frag.c ****     }
 152:C:/Users/stapi/OneDrive/Desktop/GD32VW553/GD32VW55X_Wifi_BLE_SDK/GD32VW55x_RELEASE_V1.0.2/MSDK/lwip/lwip-2.1.2/src/core/ipv4\ip4_frag.c ****   }
 153:C:/Users/stapi/OneDrive/Desktop/GD32VW553/GD32VW55X_Wifi_BLE_SDK/GD32VW55x_RELEASE_V1.0.2/MSDK/lwip/lwip-2.1.2/src/core/ipv4\ip4_frag.c **** }
 154:C:/Users/stapi/OneDrive/Desktop/GD32VW553/GD32VW55X_Wifi_BLE_SDK/GD32VW55x_RELEASE_V1.0.2/MSDK/lwip/lwip-2.1.2/src/core/ipv4\ip4_frag.c **** 
 155:C:/Users/stapi/OneDrive/Desktop/GD32VW553/GD32VW55X_Wifi_BLE_SDK/GD32VW55x_RELEASE_V1.0.2/MSDK/lwip/lwip-2.1.2/src/core/ipv4\ip4_frag.c **** /**
 156:C:/Users/stapi/OneDrive/Desktop/GD32VW553/GD32VW55X_Wifi_BLE_SDK/GD32VW55x_RELEASE_V1.0.2/MSDK/lwip/lwip-2.1.2/src/core/ipv4\ip4_frag.c ****  * Free a datagram (struct ip_reassdata) and all its pbufs.
 157:C:/Users/stapi/OneDrive/Desktop/GD32VW553/GD32VW55X_Wifi_BLE_SDK/GD32VW55x_RELEASE_V1.0.2/MSDK/lwip/lwip-2.1.2/src/core/ipv4\ip4_frag.c ****  * Updates the total count of enqueued pbufs (ip_reass_pbufcount),
 158:C:/Users/stapi/OneDrive/Desktop/GD32VW553/GD32VW55X_Wifi_BLE_SDK/GD32VW55x_RELEASE_V1.0.2/MSDK/lwip/lwip-2.1.2/src/core/ipv4\ip4_frag.c ****  * SNMP counters and sends an ICMP time exceeded packet.
 159:C:/Users/stapi/OneDrive/Desktop/GD32VW553/GD32VW55X_Wifi_BLE_SDK/GD32VW55x_RELEASE_V1.0.2/MSDK/lwip/lwip-2.1.2/src/core/ipv4\ip4_frag.c ****  *
 160:C:/Users/stapi/OneDrive/Desktop/GD32VW553/GD32VW55X_Wifi_BLE_SDK/GD32VW55x_RELEASE_V1.0.2/MSDK/lwip/lwip-2.1.2/src/core/ipv4\ip4_frag.c ****  * @param ipr datagram to free
 161:C:/Users/stapi/OneDrive/Desktop/GD32VW553/GD32VW55X_Wifi_BLE_SDK/GD32VW55x_RELEASE_V1.0.2/MSDK/lwip/lwip-2.1.2/src/core/ipv4\ip4_frag.c ****  * @param prev the previous datagram in the linked list
 162:C:/Users/stapi/OneDrive/Desktop/GD32VW553/GD32VW55X_Wifi_BLE_SDK/GD32VW55x_RELEASE_V1.0.2/MSDK/lwip/lwip-2.1.2/src/core/ipv4\ip4_frag.c ****  * @return the number of pbufs freed
 163:C:/Users/stapi/OneDrive/Desktop/GD32VW553/GD32VW55X_Wifi_BLE_SDK/GD32VW55x_RELEASE_V1.0.2/MSDK/lwip/lwip-2.1.2/src/core/ipv4\ip4_frag.c ****  */
 164:C:/Users/stapi/OneDrive/Desktop/GD32VW553/GD32VW55X_Wifi_BLE_SDK/GD32VW55x_RELEASE_V1.0.2/MSDK/lwip/lwip-2.1.2/src/core/ipv4\ip4_frag.c **** static int
 165:C:/Users/stapi/OneDrive/Desktop/GD32VW553/GD32VW55X_Wifi_BLE_SDK/GD32VW55x_RELEASE_V1.0.2/MSDK/lwip/lwip-2.1.2/src/core/ipv4\ip4_frag.c **** ip_reass_free_complete_datagram(struct ip_reassdata *ipr, struct ip_reassdata *prev)
 166:C:/Users/stapi/OneDrive/Desktop/GD32VW553/GD32VW55X_Wifi_BLE_SDK/GD32VW55x_RELEASE_V1.0.2/MSDK/lwip/lwip-2.1.2/src/core/ipv4\ip4_frag.c **** {
 167:C:/Users/stapi/OneDrive/Desktop/GD32VW553/GD32VW55X_Wifi_BLE_SDK/GD32VW55x_RELEASE_V1.0.2/MSDK/lwip/lwip-2.1.2/src/core/ipv4\ip4_frag.c ****   u16_t pbufs_freed = 0;
 168:C:/Users/stapi/OneDrive/Desktop/GD32VW553/GD32VW55X_Wifi_BLE_SDK/GD32VW55x_RELEASE_V1.0.2/MSDK/lwip/lwip-2.1.2/src/core/ipv4\ip4_frag.c ****   u16_t clen;
 169:C:/Users/stapi/OneDrive/Desktop/GD32VW553/GD32VW55X_Wifi_BLE_SDK/GD32VW55x_RELEASE_V1.0.2/MSDK/lwip/lwip-2.1.2/src/core/ipv4\ip4_frag.c ****   struct pbuf *p;
 170:C:/Users/stapi/OneDrive/Desktop/GD32VW553/GD32VW55X_Wifi_BLE_SDK/GD32VW55x_RELEASE_V1.0.2/MSDK/lwip/lwip-2.1.2/src/core/ipv4\ip4_frag.c ****   struct ip_reass_helper *iprh;
 171:C:/Users/stapi/OneDrive/Desktop/GD32VW553/GD32VW55X_Wifi_BLE_SDK/GD32VW55x_RELEASE_V1.0.2/MSDK/lwip/lwip-2.1.2/src/core/ipv4\ip4_frag.c **** 
 172:C:/Users/stapi/OneDrive/Desktop/GD32VW553/GD32VW55X_Wifi_BLE_SDK/GD32VW55x_RELEASE_V1.0.2/MSDK/lwip/lwip-2.1.2/src/core/ipv4\ip4_frag.c ****   LWIP_ASSERT("prev != ipr", prev != ipr);
 173:C:/Users/stapi/OneDrive/Desktop/GD32VW553/GD32VW55X_Wifi_BLE_SDK/GD32VW55x_RELEASE_V1.0.2/MSDK/lwip/lwip-2.1.2/src/core/ipv4\ip4_frag.c ****   if (prev != NULL) {
 174:C:/Users/stapi/OneDrive/Desktop/GD32VW553/GD32VW55X_Wifi_BLE_SDK/GD32VW55x_RELEASE_V1.0.2/MSDK/lwip/lwip-2.1.2/src/core/ipv4\ip4_frag.c ****     LWIP_ASSERT("prev->next == ipr", prev->next == ipr);
 175:C:/Users/stapi/OneDrive/Desktop/GD32VW553/GD32VW55X_Wifi_BLE_SDK/GD32VW55x_RELEASE_V1.0.2/MSDK/lwip/lwip-2.1.2/src/core/ipv4\ip4_frag.c ****   }
 176:C:/Users/stapi/OneDrive/Desktop/GD32VW553/GD32VW55X_Wifi_BLE_SDK/GD32VW55x_RELEASE_V1.0.2/MSDK/lwip/lwip-2.1.2/src/core/ipv4\ip4_frag.c **** 
 177:C:/Users/stapi/OneDrive/Desktop/GD32VW553/GD32VW55X_Wifi_BLE_SDK/GD32VW55x_RELEASE_V1.0.2/MSDK/lwip/lwip-2.1.2/src/core/ipv4\ip4_frag.c ****   MIB2_STATS_INC(mib2.ipreasmfails);
 178:C:/Users/stapi/OneDrive/Desktop/GD32VW553/GD32VW55X_Wifi_BLE_SDK/GD32VW55x_RELEASE_V1.0.2/MSDK/lwip/lwip-2.1.2/src/core/ipv4\ip4_frag.c **** #if LWIP_ICMP
 179:C:/Users/stapi/OneDrive/Desktop/GD32VW553/GD32VW55X_Wifi_BLE_SDK/GD32VW55x_RELEASE_V1.0.2/MSDK/lwip/lwip-2.1.2/src/core/ipv4\ip4_frag.c ****   iprh = (struct ip_reass_helper *)ipr->p->payload;
 180:C:/Users/stapi/OneDrive/Desktop/GD32VW553/GD32VW55X_Wifi_BLE_SDK/GD32VW55x_RELEASE_V1.0.2/MSDK/lwip/lwip-2.1.2/src/core/ipv4\ip4_frag.c ****   if (iprh->start == 0) {
 181:C:/Users/stapi/OneDrive/Desktop/GD32VW553/GD32VW55X_Wifi_BLE_SDK/GD32VW55x_RELEASE_V1.0.2/MSDK/lwip/lwip-2.1.2/src/core/ipv4\ip4_frag.c ****     /* The first fragment was received, send ICMP time exceeded. */
 182:C:/Users/stapi/OneDrive/Desktop/GD32VW553/GD32VW55X_Wifi_BLE_SDK/GD32VW55x_RELEASE_V1.0.2/MSDK/lwip/lwip-2.1.2/src/core/ipv4\ip4_frag.c ****     /* First, de-queue the first pbuf from r->p. */
 183:C:/Users/stapi/OneDrive/Desktop/GD32VW553/GD32VW55X_Wifi_BLE_SDK/GD32VW55x_RELEASE_V1.0.2/MSDK/lwip/lwip-2.1.2/src/core/ipv4\ip4_frag.c ****     p = ipr->p;
 184:C:/Users/stapi/OneDrive/Desktop/GD32VW553/GD32VW55X_Wifi_BLE_SDK/GD32VW55x_RELEASE_V1.0.2/MSDK/lwip/lwip-2.1.2/src/core/ipv4\ip4_frag.c ****     ipr->p = iprh->next_pbuf;
 185:C:/Users/stapi/OneDrive/Desktop/GD32VW553/GD32VW55X_Wifi_BLE_SDK/GD32VW55x_RELEASE_V1.0.2/MSDK/lwip/lwip-2.1.2/src/core/ipv4\ip4_frag.c ****     /* Then, copy the original header into it. */
 186:C:/Users/stapi/OneDrive/Desktop/GD32VW553/GD32VW55X_Wifi_BLE_SDK/GD32VW55x_RELEASE_V1.0.2/MSDK/lwip/lwip-2.1.2/src/core/ipv4\ip4_frag.c ****     SMEMCPY(p->payload, &ipr->iphdr, IP_HLEN);
 187:C:/Users/stapi/OneDrive/Desktop/GD32VW553/GD32VW55X_Wifi_BLE_SDK/GD32VW55x_RELEASE_V1.0.2/MSDK/lwip/lwip-2.1.2/src/core/ipv4\ip4_frag.c ****     icmp_time_exceeded(p, ICMP_TE_FRAG);
 188:C:/Users/stapi/OneDrive/Desktop/GD32VW553/GD32VW55X_Wifi_BLE_SDK/GD32VW55x_RELEASE_V1.0.2/MSDK/lwip/lwip-2.1.2/src/core/ipv4\ip4_frag.c ****     clen = pbuf_clen(p);
 189:C:/Users/stapi/OneDrive/Desktop/GD32VW553/GD32VW55X_Wifi_BLE_SDK/GD32VW55x_RELEASE_V1.0.2/MSDK/lwip/lwip-2.1.2/src/core/ipv4\ip4_frag.c ****     LWIP_ASSERT("pbufs_freed + clen <= 0xffff", pbufs_freed + clen <= 0xffff);
 190:C:/Users/stapi/OneDrive/Desktop/GD32VW553/GD32VW55X_Wifi_BLE_SDK/GD32VW55x_RELEASE_V1.0.2/MSDK/lwip/lwip-2.1.2/src/core/ipv4\ip4_frag.c ****     pbufs_freed = (u16_t)(pbufs_freed + clen);
 191:C:/Users/stapi/OneDrive/Desktop/GD32VW553/GD32VW55X_Wifi_BLE_SDK/GD32VW55x_RELEASE_V1.0.2/MSDK/lwip/lwip-2.1.2/src/core/ipv4\ip4_frag.c ****     pbuf_free(p);
 192:C:/Users/stapi/OneDrive/Desktop/GD32VW553/GD32VW55X_Wifi_BLE_SDK/GD32VW55x_RELEASE_V1.0.2/MSDK/lwip/lwip-2.1.2/src/core/ipv4\ip4_frag.c ****   }
 193:C:/Users/stapi/OneDrive/Desktop/GD32VW553/GD32VW55X_Wifi_BLE_SDK/GD32VW55x_RELEASE_V1.0.2/MSDK/lwip/lwip-2.1.2/src/core/ipv4\ip4_frag.c **** #endif /* LWIP_ICMP */
 194:C:/Users/stapi/OneDrive/Desktop/GD32VW553/GD32VW55X_Wifi_BLE_SDK/GD32VW55x_RELEASE_V1.0.2/MSDK/lwip/lwip-2.1.2/src/core/ipv4\ip4_frag.c **** 
 195:C:/Users/stapi/OneDrive/Desktop/GD32VW553/GD32VW55X_Wifi_BLE_SDK/GD32VW55x_RELEASE_V1.0.2/MSDK/lwip/lwip-2.1.2/src/core/ipv4\ip4_frag.c ****   /* First, free all received pbufs.  The individual pbufs need to be released
 196:C:/Users/stapi/OneDrive/Desktop/GD32VW553/GD32VW55X_Wifi_BLE_SDK/GD32VW55x_RELEASE_V1.0.2/MSDK/lwip/lwip-2.1.2/src/core/ipv4\ip4_frag.c ****      separately as they have not yet been chained */
 197:C:/Users/stapi/OneDrive/Desktop/GD32VW553/GD32VW55X_Wifi_BLE_SDK/GD32VW55x_RELEASE_V1.0.2/MSDK/lwip/lwip-2.1.2/src/core/ipv4\ip4_frag.c ****   p = ipr->p;
 198:C:/Users/stapi/OneDrive/Desktop/GD32VW553/GD32VW55X_Wifi_BLE_SDK/GD32VW55x_RELEASE_V1.0.2/MSDK/lwip/lwip-2.1.2/src/core/ipv4\ip4_frag.c ****   while (p != NULL) {
 199:C:/Users/stapi/OneDrive/Desktop/GD32VW553/GD32VW55X_Wifi_BLE_SDK/GD32VW55x_RELEASE_V1.0.2/MSDK/lwip/lwip-2.1.2/src/core/ipv4\ip4_frag.c ****     struct pbuf *pcur;
 200:C:/Users/stapi/OneDrive/Desktop/GD32VW553/GD32VW55X_Wifi_BLE_SDK/GD32VW55x_RELEASE_V1.0.2/MSDK/lwip/lwip-2.1.2/src/core/ipv4\ip4_frag.c ****     iprh = (struct ip_reass_helper *)p->payload;
 201:C:/Users/stapi/OneDrive/Desktop/GD32VW553/GD32VW55X_Wifi_BLE_SDK/GD32VW55x_RELEASE_V1.0.2/MSDK/lwip/lwip-2.1.2/src/core/ipv4\ip4_frag.c ****     pcur = p;
 202:C:/Users/stapi/OneDrive/Desktop/GD32VW553/GD32VW55X_Wifi_BLE_SDK/GD32VW55x_RELEASE_V1.0.2/MSDK/lwip/lwip-2.1.2/src/core/ipv4\ip4_frag.c ****     /* get the next pointer before freeing */
 203:C:/Users/stapi/OneDrive/Desktop/GD32VW553/GD32VW55X_Wifi_BLE_SDK/GD32VW55x_RELEASE_V1.0.2/MSDK/lwip/lwip-2.1.2/src/core/ipv4\ip4_frag.c ****     p = iprh->next_pbuf;
 204:C:/Users/stapi/OneDrive/Desktop/GD32VW553/GD32VW55X_Wifi_BLE_SDK/GD32VW55x_RELEASE_V1.0.2/MSDK/lwip/lwip-2.1.2/src/core/ipv4\ip4_frag.c ****     clen = pbuf_clen(pcur);
 205:C:/Users/stapi/OneDrive/Desktop/GD32VW553/GD32VW55X_Wifi_BLE_SDK/GD32VW55x_RELEASE_V1.0.2/MSDK/lwip/lwip-2.1.2/src/core/ipv4\ip4_frag.c ****     LWIP_ASSERT("pbufs_freed + clen <= 0xffff", pbufs_freed + clen <= 0xffff);
 206:C:/Users/stapi/OneDrive/Desktop/GD32VW553/GD32VW55X_Wifi_BLE_SDK/GD32VW55x_RELEASE_V1.0.2/MSDK/lwip/lwip-2.1.2/src/core/ipv4\ip4_frag.c ****     pbufs_freed = (u16_t)(pbufs_freed + clen);
 207:C:/Users/stapi/OneDrive/Desktop/GD32VW553/GD32VW55X_Wifi_BLE_SDK/GD32VW55x_RELEASE_V1.0.2/MSDK/lwip/lwip-2.1.2/src/core/ipv4\ip4_frag.c ****     pbuf_free(pcur);
 208:C:/Users/stapi/OneDrive/Desktop/GD32VW553/GD32VW55X_Wifi_BLE_SDK/GD32VW55x_RELEASE_V1.0.2/MSDK/lwip/lwip-2.1.2/src/core/ipv4\ip4_frag.c ****   }
 209:C:/Users/stapi/OneDrive/Desktop/GD32VW553/GD32VW55X_Wifi_BLE_SDK/GD32VW55x_RELEASE_V1.0.2/MSDK/lwip/lwip-2.1.2/src/core/ipv4\ip4_frag.c ****   /* Then, unchain the struct ip_reassdata from the list and free it. */
 210:C:/Users/stapi/OneDrive/Desktop/GD32VW553/GD32VW55X_Wifi_BLE_SDK/GD32VW55x_RELEASE_V1.0.2/MSDK/lwip/lwip-2.1.2/src/core/ipv4\ip4_frag.c ****   ip_reass_dequeue_datagram(ipr, prev);
 211:C:/Users/stapi/OneDrive/Desktop/GD32VW553/GD32VW55X_Wifi_BLE_SDK/GD32VW55x_RELEASE_V1.0.2/MSDK/lwip/lwip-2.1.2/src/core/ipv4\ip4_frag.c ****   LWIP_ASSERT("ip_reass_pbufcount >= pbufs_freed", ip_reass_pbufcount >= pbufs_freed);
 212:C:/Users/stapi/OneDrive/Desktop/GD32VW553/GD32VW55X_Wifi_BLE_SDK/GD32VW55x_RELEASE_V1.0.2/MSDK/lwip/lwip-2.1.2/src/core/ipv4\ip4_frag.c ****   ip_reass_pbufcount = (u16_t)(ip_reass_pbufcount - pbufs_freed);
 213:C:/Users/stapi/OneDrive/Desktop/GD32VW553/GD32VW55X_Wifi_BLE_SDK/GD32VW55x_RELEASE_V1.0.2/MSDK/lwip/lwip-2.1.2/src/core/ipv4\ip4_frag.c **** 
 214:C:/Users/stapi/OneDrive/Desktop/GD32VW553/GD32VW55X_Wifi_BLE_SDK/GD32VW55x_RELEASE_V1.0.2/MSDK/lwip/lwip-2.1.2/src/core/ipv4\ip4_frag.c ****   return pbufs_freed;
 215:C:/Users/stapi/OneDrive/Desktop/GD32VW553/GD32VW55X_Wifi_BLE_SDK/GD32VW55x_RELEASE_V1.0.2/MSDK/lwip/lwip-2.1.2/src/core/ipv4\ip4_frag.c **** }
 216:C:/Users/stapi/OneDrive/Desktop/GD32VW553/GD32VW55X_Wifi_BLE_SDK/GD32VW55x_RELEASE_V1.0.2/MSDK/lwip/lwip-2.1.2/src/core/ipv4\ip4_frag.c **** 
 217:C:/Users/stapi/OneDrive/Desktop/GD32VW553/GD32VW55X_Wifi_BLE_SDK/GD32VW55x_RELEASE_V1.0.2/MSDK/lwip/lwip-2.1.2/src/core/ipv4\ip4_frag.c **** #if IP_REASS_FREE_OLDEST
 218:C:/Users/stapi/OneDrive/Desktop/GD32VW553/GD32VW55X_Wifi_BLE_SDK/GD32VW55x_RELEASE_V1.0.2/MSDK/lwip/lwip-2.1.2/src/core/ipv4\ip4_frag.c **** /**
 219:C:/Users/stapi/OneDrive/Desktop/GD32VW553/GD32VW55X_Wifi_BLE_SDK/GD32VW55x_RELEASE_V1.0.2/MSDK/lwip/lwip-2.1.2/src/core/ipv4\ip4_frag.c ****  * Free the oldest datagram to make room for enqueueing new fragments.
 220:C:/Users/stapi/OneDrive/Desktop/GD32VW553/GD32VW55X_Wifi_BLE_SDK/GD32VW55x_RELEASE_V1.0.2/MSDK/lwip/lwip-2.1.2/src/core/ipv4\ip4_frag.c ****  * The datagram 'fraghdr' belongs to is not freed!
 221:C:/Users/stapi/OneDrive/Desktop/GD32VW553/GD32VW55X_Wifi_BLE_SDK/GD32VW55x_RELEASE_V1.0.2/MSDK/lwip/lwip-2.1.2/src/core/ipv4\ip4_frag.c ****  *
 222:C:/Users/stapi/OneDrive/Desktop/GD32VW553/GD32VW55X_Wifi_BLE_SDK/GD32VW55x_RELEASE_V1.0.2/MSDK/lwip/lwip-2.1.2/src/core/ipv4\ip4_frag.c ****  * @param fraghdr IP header of the current fragment
 223:C:/Users/stapi/OneDrive/Desktop/GD32VW553/GD32VW55X_Wifi_BLE_SDK/GD32VW55x_RELEASE_V1.0.2/MSDK/lwip/lwip-2.1.2/src/core/ipv4\ip4_frag.c ****  * @param pbufs_needed number of pbufs needed to enqueue
 224:C:/Users/stapi/OneDrive/Desktop/GD32VW553/GD32VW55X_Wifi_BLE_SDK/GD32VW55x_RELEASE_V1.0.2/MSDK/lwip/lwip-2.1.2/src/core/ipv4\ip4_frag.c ****  *        (used for freeing other datagrams if not enough space)
 225:C:/Users/stapi/OneDrive/Desktop/GD32VW553/GD32VW55X_Wifi_BLE_SDK/GD32VW55x_RELEASE_V1.0.2/MSDK/lwip/lwip-2.1.2/src/core/ipv4\ip4_frag.c ****  * @return the number of pbufs freed
 226:C:/Users/stapi/OneDrive/Desktop/GD32VW553/GD32VW55X_Wifi_BLE_SDK/GD32VW55x_RELEASE_V1.0.2/MSDK/lwip/lwip-2.1.2/src/core/ipv4\ip4_frag.c ****  */
 227:C:/Users/stapi/OneDrive/Desktop/GD32VW553/GD32VW55X_Wifi_BLE_SDK/GD32VW55x_RELEASE_V1.0.2/MSDK/lwip/lwip-2.1.2/src/core/ipv4\ip4_frag.c **** static int
 228:C:/Users/stapi/OneDrive/Desktop/GD32VW553/GD32VW55X_Wifi_BLE_SDK/GD32VW55x_RELEASE_V1.0.2/MSDK/lwip/lwip-2.1.2/src/core/ipv4\ip4_frag.c **** ip_reass_remove_oldest_datagram(struct ip_hdr *fraghdr, int pbufs_needed)
 229:C:/Users/stapi/OneDrive/Desktop/GD32VW553/GD32VW55X_Wifi_BLE_SDK/GD32VW55x_RELEASE_V1.0.2/MSDK/lwip/lwip-2.1.2/src/core/ipv4\ip4_frag.c **** {
 230:C:/Users/stapi/OneDrive/Desktop/GD32VW553/GD32VW55X_Wifi_BLE_SDK/GD32VW55x_RELEASE_V1.0.2/MSDK/lwip/lwip-2.1.2/src/core/ipv4\ip4_frag.c ****   /* @todo Can't we simply remove the last datagram in the
 231:C:/Users/stapi/OneDrive/Desktop/GD32VW553/GD32VW55X_Wifi_BLE_SDK/GD32VW55x_RELEASE_V1.0.2/MSDK/lwip/lwip-2.1.2/src/core/ipv4\ip4_frag.c ****    *       linked list behind reassdatagrams?
 232:C:/Users/stapi/OneDrive/Desktop/GD32VW553/GD32VW55X_Wifi_BLE_SDK/GD32VW55x_RELEASE_V1.0.2/MSDK/lwip/lwip-2.1.2/src/core/ipv4\ip4_frag.c ****    */
 233:C:/Users/stapi/OneDrive/Desktop/GD32VW553/GD32VW55X_Wifi_BLE_SDK/GD32VW55x_RELEASE_V1.0.2/MSDK/lwip/lwip-2.1.2/src/core/ipv4\ip4_frag.c ****   struct ip_reassdata *r, *oldest, *prev, *oldest_prev;
 234:C:/Users/stapi/OneDrive/Desktop/GD32VW553/GD32VW55X_Wifi_BLE_SDK/GD32VW55x_RELEASE_V1.0.2/MSDK/lwip/lwip-2.1.2/src/core/ipv4\ip4_frag.c ****   int pbufs_freed = 0, pbufs_freed_current;
 235:C:/Users/stapi/OneDrive/Desktop/GD32VW553/GD32VW55X_Wifi_BLE_SDK/GD32VW55x_RELEASE_V1.0.2/MSDK/lwip/lwip-2.1.2/src/core/ipv4\ip4_frag.c ****   int other_datagrams;
 236:C:/Users/stapi/OneDrive/Desktop/GD32VW553/GD32VW55X_Wifi_BLE_SDK/GD32VW55x_RELEASE_V1.0.2/MSDK/lwip/lwip-2.1.2/src/core/ipv4\ip4_frag.c **** 
 237:C:/Users/stapi/OneDrive/Desktop/GD32VW553/GD32VW55X_Wifi_BLE_SDK/GD32VW55x_RELEASE_V1.0.2/MSDK/lwip/lwip-2.1.2/src/core/ipv4\ip4_frag.c ****   /* Free datagrams until being allowed to enqueue 'pbufs_needed' pbufs,
 238:C:/Users/stapi/OneDrive/Desktop/GD32VW553/GD32VW55X_Wifi_BLE_SDK/GD32VW55x_RELEASE_V1.0.2/MSDK/lwip/lwip-2.1.2/src/core/ipv4\ip4_frag.c ****    * but don't free the datagram that 'fraghdr' belongs to! */
 239:C:/Users/stapi/OneDrive/Desktop/GD32VW553/GD32VW55X_Wifi_BLE_SDK/GD32VW55x_RELEASE_V1.0.2/MSDK/lwip/lwip-2.1.2/src/core/ipv4\ip4_frag.c ****   do {
 240:C:/Users/stapi/OneDrive/Desktop/GD32VW553/GD32VW55X_Wifi_BLE_SDK/GD32VW55x_RELEASE_V1.0.2/MSDK/lwip/lwip-2.1.2/src/core/ipv4\ip4_frag.c ****     oldest = NULL;
 241:C:/Users/stapi/OneDrive/Desktop/GD32VW553/GD32VW55X_Wifi_BLE_SDK/GD32VW55x_RELEASE_V1.0.2/MSDK/lwip/lwip-2.1.2/src/core/ipv4\ip4_frag.c ****     prev = NULL;
 242:C:/Users/stapi/OneDrive/Desktop/GD32VW553/GD32VW55X_Wifi_BLE_SDK/GD32VW55x_RELEASE_V1.0.2/MSDK/lwip/lwip-2.1.2/src/core/ipv4\ip4_frag.c ****     oldest_prev = NULL;
 243:C:/Users/stapi/OneDrive/Desktop/GD32VW553/GD32VW55X_Wifi_BLE_SDK/GD32VW55x_RELEASE_V1.0.2/MSDK/lwip/lwip-2.1.2/src/core/ipv4\ip4_frag.c ****     other_datagrams = 0;
 244:C:/Users/stapi/OneDrive/Desktop/GD32VW553/GD32VW55X_Wifi_BLE_SDK/GD32VW55x_RELEASE_V1.0.2/MSDK/lwip/lwip-2.1.2/src/core/ipv4\ip4_frag.c ****     r = reassdatagrams;
 245:C:/Users/stapi/OneDrive/Desktop/GD32VW553/GD32VW55X_Wifi_BLE_SDK/GD32VW55x_RELEASE_V1.0.2/MSDK/lwip/lwip-2.1.2/src/core/ipv4\ip4_frag.c ****     while (r != NULL) {
 246:C:/Users/stapi/OneDrive/Desktop/GD32VW553/GD32VW55X_Wifi_BLE_SDK/GD32VW55x_RELEASE_V1.0.2/MSDK/lwip/lwip-2.1.2/src/core/ipv4\ip4_frag.c ****       if (!IP_ADDRESSES_AND_ID_MATCH(&r->iphdr, fraghdr)) {
 247:C:/Users/stapi/OneDrive/Desktop/GD32VW553/GD32VW55X_Wifi_BLE_SDK/GD32VW55x_RELEASE_V1.0.2/MSDK/lwip/lwip-2.1.2/src/core/ipv4\ip4_frag.c ****         /* Not the same datagram as fraghdr */
 248:C:/Users/stapi/OneDrive/Desktop/GD32VW553/GD32VW55X_Wifi_BLE_SDK/GD32VW55x_RELEASE_V1.0.2/MSDK/lwip/lwip-2.1.2/src/core/ipv4\ip4_frag.c ****         other_datagrams++;
 249:C:/Users/stapi/OneDrive/Desktop/GD32VW553/GD32VW55X_Wifi_BLE_SDK/GD32VW55x_RELEASE_V1.0.2/MSDK/lwip/lwip-2.1.2/src/core/ipv4\ip4_frag.c ****         if (oldest == NULL) {
 250:C:/Users/stapi/OneDrive/Desktop/GD32VW553/GD32VW55X_Wifi_BLE_SDK/GD32VW55x_RELEASE_V1.0.2/MSDK/lwip/lwip-2.1.2/src/core/ipv4\ip4_frag.c ****           oldest = r;
 251:C:/Users/stapi/OneDrive/Desktop/GD32VW553/GD32VW55X_Wifi_BLE_SDK/GD32VW55x_RELEASE_V1.0.2/MSDK/lwip/lwip-2.1.2/src/core/ipv4\ip4_frag.c ****           oldest_prev = prev;
 252:C:/Users/stapi/OneDrive/Desktop/GD32VW553/GD32VW55X_Wifi_BLE_SDK/GD32VW55x_RELEASE_V1.0.2/MSDK/lwip/lwip-2.1.2/src/core/ipv4\ip4_frag.c ****         } else if (r->timer <= oldest->timer) {
 253:C:/Users/stapi/OneDrive/Desktop/GD32VW553/GD32VW55X_Wifi_BLE_SDK/GD32VW55x_RELEASE_V1.0.2/MSDK/lwip/lwip-2.1.2/src/core/ipv4\ip4_frag.c ****           /* older than the previous oldest */
 254:C:/Users/stapi/OneDrive/Desktop/GD32VW553/GD32VW55X_Wifi_BLE_SDK/GD32VW55x_RELEASE_V1.0.2/MSDK/lwip/lwip-2.1.2/src/core/ipv4\ip4_frag.c ****           oldest = r;
 255:C:/Users/stapi/OneDrive/Desktop/GD32VW553/GD32VW55X_Wifi_BLE_SDK/GD32VW55x_RELEASE_V1.0.2/MSDK/lwip/lwip-2.1.2/src/core/ipv4\ip4_frag.c ****           oldest_prev = prev;
 256:C:/Users/stapi/OneDrive/Desktop/GD32VW553/GD32VW55X_Wifi_BLE_SDK/GD32VW55x_RELEASE_V1.0.2/MSDK/lwip/lwip-2.1.2/src/core/ipv4\ip4_frag.c ****         }
 257:C:/Users/stapi/OneDrive/Desktop/GD32VW553/GD32VW55X_Wifi_BLE_SDK/GD32VW55x_RELEASE_V1.0.2/MSDK/lwip/lwip-2.1.2/src/core/ipv4\ip4_frag.c ****       }
 258:C:/Users/stapi/OneDrive/Desktop/GD32VW553/GD32VW55X_Wifi_BLE_SDK/GD32VW55x_RELEASE_V1.0.2/MSDK/lwip/lwip-2.1.2/src/core/ipv4\ip4_frag.c ****       if (r->next != NULL) {
 259:C:/Users/stapi/OneDrive/Desktop/GD32VW553/GD32VW55X_Wifi_BLE_SDK/GD32VW55x_RELEASE_V1.0.2/MSDK/lwip/lwip-2.1.2/src/core/ipv4\ip4_frag.c ****         prev = r;
 260:C:/Users/stapi/OneDrive/Desktop/GD32VW553/GD32VW55X_Wifi_BLE_SDK/GD32VW55x_RELEASE_V1.0.2/MSDK/lwip/lwip-2.1.2/src/core/ipv4\ip4_frag.c ****       }
 261:C:/Users/stapi/OneDrive/Desktop/GD32VW553/GD32VW55X_Wifi_BLE_SDK/GD32VW55x_RELEASE_V1.0.2/MSDK/lwip/lwip-2.1.2/src/core/ipv4\ip4_frag.c ****       r = r->next;
 262:C:/Users/stapi/OneDrive/Desktop/GD32VW553/GD32VW55X_Wifi_BLE_SDK/GD32VW55x_RELEASE_V1.0.2/MSDK/lwip/lwip-2.1.2/src/core/ipv4\ip4_frag.c ****     }
 263:C:/Users/stapi/OneDrive/Desktop/GD32VW553/GD32VW55X_Wifi_BLE_SDK/GD32VW55x_RELEASE_V1.0.2/MSDK/lwip/lwip-2.1.2/src/core/ipv4\ip4_frag.c ****     if (oldest != NULL) {
 264:C:/Users/stapi/OneDrive/Desktop/GD32VW553/GD32VW55X_Wifi_BLE_SDK/GD32VW55x_RELEASE_V1.0.2/MSDK/lwip/lwip-2.1.2/src/core/ipv4\ip4_frag.c ****       pbufs_freed_current = ip_reass_free_complete_datagram(oldest, oldest_prev);
 265:C:/Users/stapi/OneDrive/Desktop/GD32VW553/GD32VW55X_Wifi_BLE_SDK/GD32VW55x_RELEASE_V1.0.2/MSDK/lwip/lwip-2.1.2/src/core/ipv4\ip4_frag.c ****       pbufs_freed += pbufs_freed_current;
 266:C:/Users/stapi/OneDrive/Desktop/GD32VW553/GD32VW55X_Wifi_BLE_SDK/GD32VW55x_RELEASE_V1.0.2/MSDK/lwip/lwip-2.1.2/src/core/ipv4\ip4_frag.c ****     }
 267:C:/Users/stapi/OneDrive/Desktop/GD32VW553/GD32VW55X_Wifi_BLE_SDK/GD32VW55x_RELEASE_V1.0.2/MSDK/lwip/lwip-2.1.2/src/core/ipv4\ip4_frag.c ****   } while ((pbufs_freed < pbufs_needed) && (other_datagrams > 1));
 268:C:/Users/stapi/OneDrive/Desktop/GD32VW553/GD32VW55X_Wifi_BLE_SDK/GD32VW55x_RELEASE_V1.0.2/MSDK/lwip/lwip-2.1.2/src/core/ipv4\ip4_frag.c ****   return pbufs_freed;
 269:C:/Users/stapi/OneDrive/Desktop/GD32VW553/GD32VW55X_Wifi_BLE_SDK/GD32VW55x_RELEASE_V1.0.2/MSDK/lwip/lwip-2.1.2/src/core/ipv4\ip4_frag.c **** }
 270:C:/Users/stapi/OneDrive/Desktop/GD32VW553/GD32VW55X_Wifi_BLE_SDK/GD32VW55x_RELEASE_V1.0.2/MSDK/lwip/lwip-2.1.2/src/core/ipv4\ip4_frag.c **** #endif /* IP_REASS_FREE_OLDEST */
 271:C:/Users/stapi/OneDrive/Desktop/GD32VW553/GD32VW55X_Wifi_BLE_SDK/GD32VW55x_RELEASE_V1.0.2/MSDK/lwip/lwip-2.1.2/src/core/ipv4\ip4_frag.c **** 
 272:C:/Users/stapi/OneDrive/Desktop/GD32VW553/GD32VW55X_Wifi_BLE_SDK/GD32VW55x_RELEASE_V1.0.2/MSDK/lwip/lwip-2.1.2/src/core/ipv4\ip4_frag.c **** /**
 273:C:/Users/stapi/OneDrive/Desktop/GD32VW553/GD32VW55X_Wifi_BLE_SDK/GD32VW55x_RELEASE_V1.0.2/MSDK/lwip/lwip-2.1.2/src/core/ipv4\ip4_frag.c ****  * Enqueues a new fragment into the fragment queue
 274:C:/Users/stapi/OneDrive/Desktop/GD32VW553/GD32VW55X_Wifi_BLE_SDK/GD32VW55x_RELEASE_V1.0.2/MSDK/lwip/lwip-2.1.2/src/core/ipv4\ip4_frag.c ****  * @param fraghdr points to the new fragments IP hdr
 275:C:/Users/stapi/OneDrive/Desktop/GD32VW553/GD32VW55X_Wifi_BLE_SDK/GD32VW55x_RELEASE_V1.0.2/MSDK/lwip/lwip-2.1.2/src/core/ipv4\ip4_frag.c ****  * @param clen number of pbufs needed to enqueue (used for freeing other datagrams if not enough sp
 276:C:/Users/stapi/OneDrive/Desktop/GD32VW553/GD32VW55X_Wifi_BLE_SDK/GD32VW55x_RELEASE_V1.0.2/MSDK/lwip/lwip-2.1.2/src/core/ipv4\ip4_frag.c ****  * @return A pointer to the queue location into which the fragment was enqueued
 277:C:/Users/stapi/OneDrive/Desktop/GD32VW553/GD32VW55X_Wifi_BLE_SDK/GD32VW55x_RELEASE_V1.0.2/MSDK/lwip/lwip-2.1.2/src/core/ipv4\ip4_frag.c ****  */
 278:C:/Users/stapi/OneDrive/Desktop/GD32VW553/GD32VW55X_Wifi_BLE_SDK/GD32VW55x_RELEASE_V1.0.2/MSDK/lwip/lwip-2.1.2/src/core/ipv4\ip4_frag.c **** static struct ip_reassdata *
 279:C:/Users/stapi/OneDrive/Desktop/GD32VW553/GD32VW55X_Wifi_BLE_SDK/GD32VW55x_RELEASE_V1.0.2/MSDK/lwip/lwip-2.1.2/src/core/ipv4\ip4_frag.c **** ip_reass_enqueue_new_datagram(struct ip_hdr *fraghdr, int clen)
 280:C:/Users/stapi/OneDrive/Desktop/GD32VW553/GD32VW55X_Wifi_BLE_SDK/GD32VW55x_RELEASE_V1.0.2/MSDK/lwip/lwip-2.1.2/src/core/ipv4\ip4_frag.c **** {
 281:C:/Users/stapi/OneDrive/Desktop/GD32VW553/GD32VW55X_Wifi_BLE_SDK/GD32VW55x_RELEASE_V1.0.2/MSDK/lwip/lwip-2.1.2/src/core/ipv4\ip4_frag.c ****   struct ip_reassdata *ipr;
 282:C:/Users/stapi/OneDrive/Desktop/GD32VW553/GD32VW55X_Wifi_BLE_SDK/GD32VW55x_RELEASE_V1.0.2/MSDK/lwip/lwip-2.1.2/src/core/ipv4\ip4_frag.c **** #if ! IP_REASS_FREE_OLDEST
 283:C:/Users/stapi/OneDrive/Desktop/GD32VW553/GD32VW55X_Wifi_BLE_SDK/GD32VW55x_RELEASE_V1.0.2/MSDK/lwip/lwip-2.1.2/src/core/ipv4\ip4_frag.c ****   LWIP_UNUSED_ARG(clen);
 284:C:/Users/stapi/OneDrive/Desktop/GD32VW553/GD32VW55X_Wifi_BLE_SDK/GD32VW55x_RELEASE_V1.0.2/MSDK/lwip/lwip-2.1.2/src/core/ipv4\ip4_frag.c **** #endif
 285:C:/Users/stapi/OneDrive/Desktop/GD32VW553/GD32VW55X_Wifi_BLE_SDK/GD32VW55x_RELEASE_V1.0.2/MSDK/lwip/lwip-2.1.2/src/core/ipv4\ip4_frag.c **** 
 286:C:/Users/stapi/OneDrive/Desktop/GD32VW553/GD32VW55X_Wifi_BLE_SDK/GD32VW55x_RELEASE_V1.0.2/MSDK/lwip/lwip-2.1.2/src/core/ipv4\ip4_frag.c ****   /* No matching previous fragment found, allocate a new reassdata struct */
 287:C:/Users/stapi/OneDrive/Desktop/GD32VW553/GD32VW55X_Wifi_BLE_SDK/GD32VW55x_RELEASE_V1.0.2/MSDK/lwip/lwip-2.1.2/src/core/ipv4\ip4_frag.c ****   ipr = (struct ip_reassdata *)memp_malloc(MEMP_REASSDATA);
 288:C:/Users/stapi/OneDrive/Desktop/GD32VW553/GD32VW55X_Wifi_BLE_SDK/GD32VW55x_RELEASE_V1.0.2/MSDK/lwip/lwip-2.1.2/src/core/ipv4\ip4_frag.c ****   if (ipr == NULL) {
 289:C:/Users/stapi/OneDrive/Desktop/GD32VW553/GD32VW55X_Wifi_BLE_SDK/GD32VW55x_RELEASE_V1.0.2/MSDK/lwip/lwip-2.1.2/src/core/ipv4\ip4_frag.c **** #if IP_REASS_FREE_OLDEST
 290:C:/Users/stapi/OneDrive/Desktop/GD32VW553/GD32VW55X_Wifi_BLE_SDK/GD32VW55x_RELEASE_V1.0.2/MSDK/lwip/lwip-2.1.2/src/core/ipv4\ip4_frag.c ****     if (ip_reass_remove_oldest_datagram(fraghdr, clen) >= clen) {
 291:C:/Users/stapi/OneDrive/Desktop/GD32VW553/GD32VW55X_Wifi_BLE_SDK/GD32VW55x_RELEASE_V1.0.2/MSDK/lwip/lwip-2.1.2/src/core/ipv4\ip4_frag.c ****       ipr = (struct ip_reassdata *)memp_malloc(MEMP_REASSDATA);
 292:C:/Users/stapi/OneDrive/Desktop/GD32VW553/GD32VW55X_Wifi_BLE_SDK/GD32VW55x_RELEASE_V1.0.2/MSDK/lwip/lwip-2.1.2/src/core/ipv4\ip4_frag.c ****     }
 293:C:/Users/stapi/OneDrive/Desktop/GD32VW553/GD32VW55X_Wifi_BLE_SDK/GD32VW55x_RELEASE_V1.0.2/MSDK/lwip/lwip-2.1.2/src/core/ipv4\ip4_frag.c ****     if (ipr == NULL)
 294:C:/Users/stapi/OneDrive/Desktop/GD32VW553/GD32VW55X_Wifi_BLE_SDK/GD32VW55x_RELEASE_V1.0.2/MSDK/lwip/lwip-2.1.2/src/core/ipv4\ip4_frag.c **** #endif /* IP_REASS_FREE_OLDEST */
 295:C:/Users/stapi/OneDrive/Desktop/GD32VW553/GD32VW55X_Wifi_BLE_SDK/GD32VW55x_RELEASE_V1.0.2/MSDK/lwip/lwip-2.1.2/src/core/ipv4\ip4_frag.c ****     {
 296:C:/Users/stapi/OneDrive/Desktop/GD32VW553/GD32VW55X_Wifi_BLE_SDK/GD32VW55x_RELEASE_V1.0.2/MSDK/lwip/lwip-2.1.2/src/core/ipv4\ip4_frag.c ****       IPFRAG_STATS_INC(ip_frag.memerr);
 297:C:/Users/stapi/OneDrive/Desktop/GD32VW553/GD32VW55X_Wifi_BLE_SDK/GD32VW55x_RELEASE_V1.0.2/MSDK/lwip/lwip-2.1.2/src/core/ipv4\ip4_frag.c ****       LWIP_DEBUGF(IP_REASS_DEBUG, ("Failed to alloc reassdata struct\n"));
 298:C:/Users/stapi/OneDrive/Desktop/GD32VW553/GD32VW55X_Wifi_BLE_SDK/GD32VW55x_RELEASE_V1.0.2/MSDK/lwip/lwip-2.1.2/src/core/ipv4\ip4_frag.c ****       return NULL;
 299:C:/Users/stapi/OneDrive/Desktop/GD32VW553/GD32VW55X_Wifi_BLE_SDK/GD32VW55x_RELEASE_V1.0.2/MSDK/lwip/lwip-2.1.2/src/core/ipv4\ip4_frag.c ****     }
 300:C:/Users/stapi/OneDrive/Desktop/GD32VW553/GD32VW55X_Wifi_BLE_SDK/GD32VW55x_RELEASE_V1.0.2/MSDK/lwip/lwip-2.1.2/src/core/ipv4\ip4_frag.c ****   }
 301:C:/Users/stapi/OneDrive/Desktop/GD32VW553/GD32VW55X_Wifi_BLE_SDK/GD32VW55x_RELEASE_V1.0.2/MSDK/lwip/lwip-2.1.2/src/core/ipv4\ip4_frag.c ****   memset(ipr, 0, sizeof(struct ip_reassdata));
 302:C:/Users/stapi/OneDrive/Desktop/GD32VW553/GD32VW55X_Wifi_BLE_SDK/GD32VW55x_RELEASE_V1.0.2/MSDK/lwip/lwip-2.1.2/src/core/ipv4\ip4_frag.c ****   ipr->timer = IP_REASS_MAXAGE;
 303:C:/Users/stapi/OneDrive/Desktop/GD32VW553/GD32VW55X_Wifi_BLE_SDK/GD32VW55x_RELEASE_V1.0.2/MSDK/lwip/lwip-2.1.2/src/core/ipv4\ip4_frag.c **** 
 304:C:/Users/stapi/OneDrive/Desktop/GD32VW553/GD32VW55X_Wifi_BLE_SDK/GD32VW55x_RELEASE_V1.0.2/MSDK/lwip/lwip-2.1.2/src/core/ipv4\ip4_frag.c ****   /* enqueue the new structure to the front of the list */
 305:C:/Users/stapi/OneDrive/Desktop/GD32VW553/GD32VW55X_Wifi_BLE_SDK/GD32VW55x_RELEASE_V1.0.2/MSDK/lwip/lwip-2.1.2/src/core/ipv4\ip4_frag.c ****   ipr->next = reassdatagrams;
 306:C:/Users/stapi/OneDrive/Desktop/GD32VW553/GD32VW55X_Wifi_BLE_SDK/GD32VW55x_RELEASE_V1.0.2/MSDK/lwip/lwip-2.1.2/src/core/ipv4\ip4_frag.c ****   reassdatagrams = ipr;
 307:C:/Users/stapi/OneDrive/Desktop/GD32VW553/GD32VW55X_Wifi_BLE_SDK/GD32VW55x_RELEASE_V1.0.2/MSDK/lwip/lwip-2.1.2/src/core/ipv4\ip4_frag.c ****   /* copy the ip header for later tests and input */
 308:C:/Users/stapi/OneDrive/Desktop/GD32VW553/GD32VW55X_Wifi_BLE_SDK/GD32VW55x_RELEASE_V1.0.2/MSDK/lwip/lwip-2.1.2/src/core/ipv4\ip4_frag.c ****   /* @todo: no ip options supported? */
 309:C:/Users/stapi/OneDrive/Desktop/GD32VW553/GD32VW55X_Wifi_BLE_SDK/GD32VW55x_RELEASE_V1.0.2/MSDK/lwip/lwip-2.1.2/src/core/ipv4\ip4_frag.c ****   SMEMCPY(&(ipr->iphdr), fraghdr, IP_HLEN);
 310:C:/Users/stapi/OneDrive/Desktop/GD32VW553/GD32VW55X_Wifi_BLE_SDK/GD32VW55x_RELEASE_V1.0.2/MSDK/lwip/lwip-2.1.2/src/core/ipv4\ip4_frag.c ****   return ipr;
 311:C:/Users/stapi/OneDrive/Desktop/GD32VW553/GD32VW55X_Wifi_BLE_SDK/GD32VW55x_RELEASE_V1.0.2/MSDK/lwip/lwip-2.1.2/src/core/ipv4\ip4_frag.c **** }
 312:C:/Users/stapi/OneDrive/Desktop/GD32VW553/GD32VW55X_Wifi_BLE_SDK/GD32VW55x_RELEASE_V1.0.2/MSDK/lwip/lwip-2.1.2/src/core/ipv4\ip4_frag.c **** 
 313:C:/Users/stapi/OneDrive/Desktop/GD32VW553/GD32VW55X_Wifi_BLE_SDK/GD32VW55x_RELEASE_V1.0.2/MSDK/lwip/lwip-2.1.2/src/core/ipv4\ip4_frag.c **** /**
 314:C:/Users/stapi/OneDrive/Desktop/GD32VW553/GD32VW55X_Wifi_BLE_SDK/GD32VW55x_RELEASE_V1.0.2/MSDK/lwip/lwip-2.1.2/src/core/ipv4\ip4_frag.c ****  * Dequeues a datagram from the datagram queue. Doesn't deallocate the pbufs.
 315:C:/Users/stapi/OneDrive/Desktop/GD32VW553/GD32VW55X_Wifi_BLE_SDK/GD32VW55x_RELEASE_V1.0.2/MSDK/lwip/lwip-2.1.2/src/core/ipv4\ip4_frag.c ****  * @param ipr points to the queue entry to dequeue
 316:C:/Users/stapi/OneDrive/Desktop/GD32VW553/GD32VW55X_Wifi_BLE_SDK/GD32VW55x_RELEASE_V1.0.2/MSDK/lwip/lwip-2.1.2/src/core/ipv4\ip4_frag.c ****  */
 317:C:/Users/stapi/OneDrive/Desktop/GD32VW553/GD32VW55X_Wifi_BLE_SDK/GD32VW55x_RELEASE_V1.0.2/MSDK/lwip/lwip-2.1.2/src/core/ipv4\ip4_frag.c **** static void
 318:C:/Users/stapi/OneDrive/Desktop/GD32VW553/GD32VW55X_Wifi_BLE_SDK/GD32VW55x_RELEASE_V1.0.2/MSDK/lwip/lwip-2.1.2/src/core/ipv4\ip4_frag.c **** ip_reass_dequeue_datagram(struct ip_reassdata *ipr, struct ip_reassdata *prev)
 319:C:/Users/stapi/OneDrive/Desktop/GD32VW553/GD32VW55X_Wifi_BLE_SDK/GD32VW55x_RELEASE_V1.0.2/MSDK/lwip/lwip-2.1.2/src/core/ipv4\ip4_frag.c **** {
  25              		.loc 1 319 1
  26              		.cfi_startproc
  27              	.LVL0:
  28 0000 17030000 		call	t0,__riscv_save_0
  28      E7020300 
  29              		.cfi_offset 1, -4
  30              		.cfi_def_cfa_offset 16
 320:C:/Users/stapi/OneDrive/Desktop/GD32VW553/GD32VW55X_Wifi_BLE_SDK/GD32VW55x_RELEASE_V1.0.2/MSDK/lwip/lwip-2.1.2/src/core/ipv4\ip4_frag.c ****   /* dequeue the reass struct  */
 321:C:/Users/stapi/OneDrive/Desktop/GD32VW553/GD32VW55X_Wifi_BLE_SDK/GD32VW55x_RELEASE_V1.0.2/MSDK/lwip/lwip-2.1.2/src/core/ipv4\ip4_frag.c ****   if (reassdatagrams == ipr) {
  31              		.loc 1 321 3
  32              		.loc 1 321 22 is_stmt 0
  33 0008 B7070000 		lui	a5,%hi(.LANCHOR0)
  34 000c 93870700 		addi	a5,a5,%lo(.LANCHOR0)
  35              		.loc 1 321 6
  36 0010 9843     		lw	a4,0(a5)
  37 0012 631EA700 		bne	a4,a0,.L2
 322:C:/Users/stapi/OneDrive/Desktop/GD32VW553/GD32VW55X_Wifi_BLE_SDK/GD32VW55x_RELEASE_V1.0.2/MSDK/lwip/lwip-2.1.2/src/core/ipv4\ip4_frag.c ****     /* it was the first in the list */
 323:C:/Users/stapi/OneDrive/Desktop/GD32VW553/GD32VW55X_Wifi_BLE_SDK/GD32VW55x_RELEASE_V1.0.2/MSDK/lwip/lwip-2.1.2/src/core/ipv4\ip4_frag.c ****     reassdatagrams = ipr->next;
  38              		.loc 1 323 5 is_stmt 1
  39              		.loc 1 323 20 is_stmt 0
  40 0016 1841     		lw	a4,0(a0)
  41 0018 98C3     		sw	a4,0(a5)
  42              	.L3:
 324:C:/Users/stapi/OneDrive/Desktop/GD32VW553/GD32VW55X_Wifi_BLE_SDK/GD32VW55x_RELEASE_V1.0.2/MSDK/lwip/lwip-2.1.2/src/core/ipv4\ip4_frag.c ****   } else {
 325:C:/Users/stapi/OneDrive/Desktop/GD32VW553/GD32VW55X_Wifi_BLE_SDK/GD32VW55x_RELEASE_V1.0.2/MSDK/lwip/lwip-2.1.2/src/core/ipv4\ip4_frag.c ****     /* it wasn't the first, so it must have a valid 'prev' */
 326:C:/Users/stapi/OneDrive/Desktop/GD32VW553/GD32VW55X_Wifi_BLE_SDK/GD32VW55x_RELEASE_V1.0.2/MSDK/lwip/lwip-2.1.2/src/core/ipv4\ip4_frag.c ****     LWIP_ASSERT("sanity check linked list", prev != NULL);
 327:C:/Users/stapi/OneDrive/Desktop/GD32VW553/GD32VW55X_Wifi_BLE_SDK/GD32VW55x_RELEASE_V1.0.2/MSDK/lwip/lwip-2.1.2/src/core/ipv4\ip4_frag.c ****     prev->next = ipr->next;
 328:C:/Users/stapi/OneDrive/Desktop/GD32VW553/GD32VW55X_Wifi_BLE_SDK/GD32VW55x_RELEASE_V1.0.2/MSDK/lwip/lwip-2.1.2/src/core/ipv4\ip4_frag.c ****   }
 329:C:/Users/stapi/OneDrive/Desktop/GD32VW553/GD32VW55X_Wifi_BLE_SDK/GD32VW55x_RELEASE_V1.0.2/MSDK/lwip/lwip-2.1.2/src/core/ipv4\ip4_frag.c **** 
 330:C:/Users/stapi/OneDrive/Desktop/GD32VW553/GD32VW55X_Wifi_BLE_SDK/GD32VW55x_RELEASE_V1.0.2/MSDK/lwip/lwip-2.1.2/src/core/ipv4\ip4_frag.c ****   /* now we can free the ip_reassdata struct */
 331:C:/Users/stapi/OneDrive/Desktop/GD32VW553/GD32VW55X_Wifi_BLE_SDK/GD32VW55x_RELEASE_V1.0.2/MSDK/lwip/lwip-2.1.2/src/core/ipv4\ip4_frag.c ****   memp_free(MEMP_REASSDATA, ipr);
  43              		.loc 1 331 3 is_stmt 1
  44 001a AA85     		mv	a1,a0
  45              	.LVL1:
  46 001c 1945     		li	a0,6
  47              	.LVL2:
  48 001e 97000000 		call	memp_free
  48      E7800000 
  49              	.LVL3:
 332:C:/Users/stapi/OneDrive/Desktop/GD32VW553/GD32VW55X_Wifi_BLE_SDK/GD32VW55x_RELEASE_V1.0.2/MSDK/lwip/lwip-2.1.2/src/core/ipv4\ip4_frag.c **** }
  50              		.loc 1 332 1 is_stmt 0
  51 0026 17030000 		tail	__riscv_restore_0
  51      67000300 
  52              		.cfi_remember_state
  53              		.cfi_restore 1
  54              		.cfi_def_cfa_offset 0
  55              	.LVL4:
  56              	.L2:
  57              		.cfi_restore_state
 326:C:/Users/stapi/OneDrive/Desktop/GD32VW553/GD32VW55X_Wifi_BLE_SDK/GD32VW55x_RELEASE_V1.0.2/MSDK/lwip/lwip-2.1.2/src/core/ipv4\ip4_frag.c ****     prev->next = ipr->next;
  58              		.loc 1 326 5 is_stmt 1
 326:C:/Users/stapi/OneDrive/Desktop/GD32VW553/GD32VW55X_Wifi_BLE_SDK/GD32VW55x_RELEASE_V1.0.2/MSDK/lwip/lwip-2.1.2/src/core/ipv4\ip4_frag.c ****     prev->next = ipr->next;
  59              		.loc 1 326 5
  60 002e 85E5     		bne	a1,zero,.L4
  61              	.LVL5:
  62              	.LBB5:
  63              	.LBB6:
 326:C:/Users/stapi/OneDrive/Desktop/GD32VW553/GD32VW55X_Wifi_BLE_SDK/GD32VW55x_RELEASE_V1.0.2/MSDK/lwip/lwip-2.1.2/src/core/ipv4\ip4_frag.c ****     prev->next = ipr->next;
  64              		.loc 1 326 5
 326:C:/Users/stapi/OneDrive/Desktop/GD32VW553/GD32VW55X_Wifi_BLE_SDK/GD32VW55x_RELEASE_V1.0.2/MSDK/lwip/lwip-2.1.2/src/core/ipv4\ip4_frag.c ****     prev->next = ipr->next;
  65              		.loc 1 326 5
  66 0030 B7060000 		lui	a3,%hi(.LC0)
  67 0034 B7050000 		lui	a1,%hi(.LC1)
  68              	.LVL6:
  69 0038 37050000 		lui	a0,%hi(.LC2)
  70              	.LVL7:
  71 003c 93860600 		addi	a3,a3,%lo(.LC0)
  72 0040 13066014 		li	a2,326
  73 0044 93850500 		addi	a1,a1,%lo(.LC1)
  74 0048 13050500 		addi	a0,a0,%lo(.LC2)
  75 004c 97000000 		call	printf
  75      E7800000 
  76              	.LVL8:
  77              	.L5:
 326:C:/Users/stapi/OneDrive/Desktop/GD32VW553/GD32VW55X_Wifi_BLE_SDK/GD32VW55x_RELEASE_V1.0.2/MSDK/lwip/lwip-2.1.2/src/core/ipv4\ip4_frag.c ****     prev->next = ipr->next;
  78              		.loc 1 326 5
 326:C:/Users/stapi/OneDrive/Desktop/GD32VW553/GD32VW55X_Wifi_BLE_SDK/GD32VW55x_RELEASE_V1.0.2/MSDK/lwip/lwip-2.1.2/src/core/ipv4\ip4_frag.c ****     prev->next = ipr->next;
  79              		.loc 1 326 5
 326:C:/Users/stapi/OneDrive/Desktop/GD32VW553/GD32VW55X_Wifi_BLE_SDK/GD32VW55x_RELEASE_V1.0.2/MSDK/lwip/lwip-2.1.2/src/core/ipv4\ip4_frag.c ****     prev->next = ipr->next;
  80              		.loc 1 326 5
  81 0054 01A0     		j	.L5
  82              	.LVL9:
  83              	.L4:
  84              	.LBE6:
  85              	.LBE5:
 326:C:/Users/stapi/OneDrive/Desktop/GD32VW553/GD32VW55X_Wifi_BLE_SDK/GD32VW55x_RELEASE_V1.0.2/MSDK/lwip/lwip-2.1.2/src/core/ipv4\ip4_frag.c ****     prev->next = ipr->next;
  86              		.loc 1 326 5 discriminator 2
 326:C:/Users/stapi/OneDrive/Desktop/GD32VW553/GD32VW55X_Wifi_BLE_SDK/GD32VW55x_RELEASE_V1.0.2/MSDK/lwip/lwip-2.1.2/src/core/ipv4\ip4_frag.c ****     prev->next = ipr->next;
  87              		.loc 1 326 5 discriminator 2
 327:C:/Users/stapi/OneDrive/Desktop/GD32VW553/GD32VW55X_Wifi_BLE_SDK/GD32VW55x_RELEASE_V1.0.2/MSDK/lwip/lwip-2.1.2/src/core/ipv4\ip4_frag.c ****   }
  88              		.loc 1 327 5 discriminator 2
 327:C:/Users/stapi/OneDrive/Desktop/GD32VW553/GD32VW55X_Wifi_BLE_SDK/GD32VW55x_RELEASE_V1.0.2/MSDK/lwip/lwip-2.1.2/src/core/ipv4\ip4_frag.c ****   }
  89              		.loc 1 327 21 is_stmt 0 discriminator 2
  90 0056 1C41     		lw	a5,0(a0)
 327:C:/Users/stapi/OneDrive/Desktop/GD32VW553/GD32VW55X_Wifi_BLE_SDK/GD32VW55x_RELEASE_V1.0.2/MSDK/lwip/lwip-2.1.2/src/core/ipv4\ip4_frag.c ****   }
  91              		.loc 1 327 16 discriminator 2
  92 0058 9CC1     		sw	a5,0(a1)
  93 005a C1B7     		j	.L3
  94              		.cfi_endproc
  95              	.LFE8:
  97              		.section	.rodata.ip_reass_free_complete_datagram.str1.4,"aMS",@progbits,1
  98              		.align	2
  99              	.LC3:
 100 0000 70726576 		.string	"prev != ipr"
 100      20213D20 
 100      69707200 
 101              		.align	2
 102              	.LC4:
 103 000c 70726576 		.string	"prev->next == ipr"
 103      2D3E6E65 
 103      7874203D 
 103      3D206970 
 103      7200
 104 001e 0000     		.align	2
 105              	.LC5:
 106 0020 70627566 		.string	"pbufs_freed + clen <= 0xffff"
 106      735F6672 
 106      65656420 
 106      2B20636C 
 106      656E203C 
 107 003d 000000   		.align	2
 108              	.LC6:
 109 0040 69705F72 		.string	"ip_reass_pbufcount >= pbufs_freed"
 109      65617373 
 109      5F706275 
 109      66636F75 
 109      6E74203E 
 110              		.section	.text.ip_reass_free_complete_datagram,"ax",@progbits
 111              		.align	1
 113              	ip_reass_free_complete_datagram:
 114              	.LFB5:
 166:C:/Users/stapi/OneDrive/Desktop/GD32VW553/GD32VW55X_Wifi_BLE_SDK/GD32VW55x_RELEASE_V1.0.2/MSDK/lwip/lwip-2.1.2/src/core/ipv4\ip4_frag.c ****   u16_t pbufs_freed = 0;
 115              		.loc 1 166 1 is_stmt 1
 116              		.cfi_startproc
 117              	.LVL10:
 118 0000 17030000 		call	t0,__riscv_save_6
 118      E7020300 
 119              		.cfi_offset 21, -28
 120              		.cfi_offset 20, -24
 121              		.cfi_offset 19, -20
 122              		.cfi_offset 18, -16
 123              		.cfi_offset 9, -12
 124              		.cfi_offset 8, -8
 125              		.cfi_offset 1, -4
 126              		.cfi_def_cfa_offset 32
 167:C:/Users/stapi/OneDrive/Desktop/GD32VW553/GD32VW55X_Wifi_BLE_SDK/GD32VW55x_RELEASE_V1.0.2/MSDK/lwip/lwip-2.1.2/src/core/ipv4\ip4_frag.c ****   u16_t clen;
 127              		.loc 1 167 3
 128              	.LVL11:
 168:C:/Users/stapi/OneDrive/Desktop/GD32VW553/GD32VW55X_Wifi_BLE_SDK/GD32VW55x_RELEASE_V1.0.2/MSDK/lwip/lwip-2.1.2/src/core/ipv4\ip4_frag.c ****   struct pbuf *p;
 129              		.loc 1 168 3
 169:C:/Users/stapi/OneDrive/Desktop/GD32VW553/GD32VW55X_Wifi_BLE_SDK/GD32VW55x_RELEASE_V1.0.2/MSDK/lwip/lwip-2.1.2/src/core/ipv4\ip4_frag.c ****   struct ip_reass_helper *iprh;
 130              		.loc 1 169 3
 170:C:/Users/stapi/OneDrive/Desktop/GD32VW553/GD32VW55X_Wifi_BLE_SDK/GD32VW55x_RELEASE_V1.0.2/MSDK/lwip/lwip-2.1.2/src/core/ipv4\ip4_frag.c **** 
 131              		.loc 1 170 3
 172:C:/Users/stapi/OneDrive/Desktop/GD32VW553/GD32VW55X_Wifi_BLE_SDK/GD32VW55x_RELEASE_V1.0.2/MSDK/lwip/lwip-2.1.2/src/core/ipv4\ip4_frag.c ****   if (prev != NULL) {
 132              		.loc 1 172 3
 172:C:/Users/stapi/OneDrive/Desktop/GD32VW553/GD32VW55X_Wifi_BLE_SDK/GD32VW55x_RELEASE_V1.0.2/MSDK/lwip/lwip-2.1.2/src/core/ipv4\ip4_frag.c ****   if (prev != NULL) {
 133              		.loc 1 172 3
 134 0008 6395A502 		bne	a1,a0,.L8
 172:C:/Users/stapi/OneDrive/Desktop/GD32VW553/GD32VW55X_Wifi_BLE_SDK/GD32VW55x_RELEASE_V1.0.2/MSDK/lwip/lwip-2.1.2/src/core/ipv4\ip4_frag.c ****   if (prev != NULL) {
 135              		.loc 1 172 3 discriminator 1
 172:C:/Users/stapi/OneDrive/Desktop/GD32VW553/GD32VW55X_Wifi_BLE_SDK/GD32VW55x_RELEASE_V1.0.2/MSDK/lwip/lwip-2.1.2/src/core/ipv4\ip4_frag.c ****   if (prev != NULL) {
 136              		.loc 1 172 3 discriminator 1
 137 000c B7060000 		lui	a3,%hi(.LC0)
 138 0010 B7050000 		lui	a1,%hi(.LC3)
 139              	.LVL12:
 140 0014 37050000 		lui	a0,%hi(.LC2)
 141              	.LVL13:
 142 0018 93860600 		addi	a3,a3,%lo(.LC0)
 143 001c 1306C00A 		li	a2,172
 144 0020 93850500 		addi	a1,a1,%lo(.LC3)
 145 0024 13050500 		addi	a0,a0,%lo(.LC2)
 146 0028 97000000 		call	printf
 146      E7800000 
 147              	.LVL14:
 148              	.L9:
 172:C:/Users/stapi/OneDrive/Desktop/GD32VW553/GD32VW55X_Wifi_BLE_SDK/GD32VW55x_RELEASE_V1.0.2/MSDK/lwip/lwip-2.1.2/src/core/ipv4\ip4_frag.c ****   if (prev != NULL) {
 149              		.loc 1 172 3 discriminator 1
 172:C:/Users/stapi/OneDrive/Desktop/GD32VW553/GD32VW55X_Wifi_BLE_SDK/GD32VW55x_RELEASE_V1.0.2/MSDK/lwip/lwip-2.1.2/src/core/ipv4\ip4_frag.c ****   if (prev != NULL) {
 150              		.loc 1 172 3 discriminator 1
 172:C:/Users/stapi/OneDrive/Desktop/GD32VW553/GD32VW55X_Wifi_BLE_SDK/GD32VW55x_RELEASE_V1.0.2/MSDK/lwip/lwip-2.1.2/src/core/ipv4\ip4_frag.c ****   if (prev != NULL) {
 151              		.loc 1 172 3 discriminator 1
 152 0030 01A0     		j	.L9
 153              	.LVL15:
 154              	.L8:
 155 0032 2A84     		mv	s0,a0
 156 0034 2E89     		mv	s2,a1
 172:C:/Users/stapi/OneDrive/Desktop/GD32VW553/GD32VW55X_Wifi_BLE_SDK/GD32VW55x_RELEASE_V1.0.2/MSDK/lwip/lwip-2.1.2/src/core/ipv4\ip4_frag.c ****   if (prev != NULL) {
 157              		.loc 1 172 3 discriminator 2
 172:C:/Users/stapi/OneDrive/Desktop/GD32VW553/GD32VW55X_Wifi_BLE_SDK/GD32VW55x_RELEASE_V1.0.2/MSDK/lwip/lwip-2.1.2/src/core/ipv4\ip4_frag.c ****   if (prev != NULL) {
 158              		.loc 1 172 3 discriminator 2
 173:C:/Users/stapi/OneDrive/Desktop/GD32VW553/GD32VW55X_Wifi_BLE_SDK/GD32VW55x_RELEASE_V1.0.2/MSDK/lwip/lwip-2.1.2/src/core/ipv4\ip4_frag.c ****     LWIP_ASSERT("prev->next == ipr", prev->next == ipr);
 159              		.loc 1 173 3 discriminator 2
 173:C:/Users/stapi/OneDrive/Desktop/GD32VW553/GD32VW55X_Wifi_BLE_SDK/GD32VW55x_RELEASE_V1.0.2/MSDK/lwip/lwip-2.1.2/src/core/ipv4\ip4_frag.c ****     LWIP_ASSERT("prev->next == ipr", prev->next == ipr);
 160              		.loc 1 173 6 is_stmt 0 discriminator 2
 161 0036 9DC5     		beq	a1,zero,.L10
 162              	.LVL16:
 174:C:/Users/stapi/OneDrive/Desktop/GD32VW553/GD32VW55X_Wifi_BLE_SDK/GD32VW55x_RELEASE_V1.0.2/MSDK/lwip/lwip-2.1.2/src/core/ipv4\ip4_frag.c ****   }
 163              		.loc 1 174 5 is_stmt 1
 174:C:/Users/stapi/OneDrive/Desktop/GD32VW553/GD32VW55X_Wifi_BLE_SDK/GD32VW55x_RELEASE_V1.0.2/MSDK/lwip/lwip-2.1.2/src/core/ipv4\ip4_frag.c ****   }
 164              		.loc 1 174 5
 165 0038 9C41     		lw	a5,0(a1)
 166 003a 6385A702 		beq	a5,a0,.L10
 174:C:/Users/stapi/OneDrive/Desktop/GD32VW553/GD32VW55X_Wifi_BLE_SDK/GD32VW55x_RELEASE_V1.0.2/MSDK/lwip/lwip-2.1.2/src/core/ipv4\ip4_frag.c ****   }
 167              		.loc 1 174 5 discriminator 1
 174:C:/Users/stapi/OneDrive/Desktop/GD32VW553/GD32VW55X_Wifi_BLE_SDK/GD32VW55x_RELEASE_V1.0.2/MSDK/lwip/lwip-2.1.2/src/core/ipv4\ip4_frag.c ****   }
 168              		.loc 1 174 5 discriminator 1
 169 003e B7060000 		lui	a3,%hi(.LC0)
 170 0042 B7050000 		lui	a1,%hi(.LC4)
 171              	.LVL17:
 172 0046 37050000 		lui	a0,%hi(.LC2)
 173 004a 93860600 		addi	a3,a3,%lo(.LC0)
 174 004e 1306E00A 		li	a2,174
 175 0052 93850500 		addi	a1,a1,%lo(.LC4)
 176 0056 13050500 		addi	a0,a0,%lo(.LC2)
 177 005a 97000000 		call	printf
 177      E7800000 
 178              	.LVL18:
 179              	.L11:
 174:C:/Users/stapi/OneDrive/Desktop/GD32VW553/GD32VW55X_Wifi_BLE_SDK/GD32VW55x_RELEASE_V1.0.2/MSDK/lwip/lwip-2.1.2/src/core/ipv4\ip4_frag.c ****   }
 180              		.loc 1 174 5 discriminator 2
 174:C:/Users/stapi/OneDrive/Desktop/GD32VW553/GD32VW55X_Wifi_BLE_SDK/GD32VW55x_RELEASE_V1.0.2/MSDK/lwip/lwip-2.1.2/src/core/ipv4\ip4_frag.c ****   }
 181              		.loc 1 174 5 discriminator 2
 174:C:/Users/stapi/OneDrive/Desktop/GD32VW553/GD32VW55X_Wifi_BLE_SDK/GD32VW55x_RELEASE_V1.0.2/MSDK/lwip/lwip-2.1.2/src/core/ipv4\ip4_frag.c ****   }
 182              		.loc 1 174 5 discriminator 2
 183 0062 01A0     		j	.L11
 184              	.LVL19:
 185              	.L10:
 186              	.LBB10:
 187              	.LBB11:
 174:C:/Users/stapi/OneDrive/Desktop/GD32VW553/GD32VW55X_Wifi_BLE_SDK/GD32VW55x_RELEASE_V1.0.2/MSDK/lwip/lwip-2.1.2/src/core/ipv4\ip4_frag.c ****   }
 188              		.loc 1 174 5
 174:C:/Users/stapi/OneDrive/Desktop/GD32VW553/GD32VW55X_Wifi_BLE_SDK/GD32VW55x_RELEASE_V1.0.2/MSDK/lwip/lwip-2.1.2/src/core/ipv4\ip4_frag.c ****   }
 189              		.loc 1 174 5
 177:C:/Users/stapi/OneDrive/Desktop/GD32VW553/GD32VW55X_Wifi_BLE_SDK/GD32VW55x_RELEASE_V1.0.2/MSDK/lwip/lwip-2.1.2/src/core/ipv4\ip4_frag.c **** #if LWIP_ICMP
 190              		.loc 1 177 36
 179:C:/Users/stapi/OneDrive/Desktop/GD32VW553/GD32VW55X_Wifi_BLE_SDK/GD32VW55x_RELEASE_V1.0.2/MSDK/lwip/lwip-2.1.2/src/core/ipv4\ip4_frag.c ****   if (iprh->start == 0) {
 191              		.loc 1 179 3
 179:C:/Users/stapi/OneDrive/Desktop/GD32VW553/GD32VW55X_Wifi_BLE_SDK/GD32VW55x_RELEASE_V1.0.2/MSDK/lwip/lwip-2.1.2/src/core/ipv4\ip4_frag.c ****   if (iprh->start == 0) {
 192              		.loc 1 179 39 is_stmt 0
 193 0064 83294400 		lw	s3,4(s0)
 167:C:/Users/stapi/OneDrive/Desktop/GD32VW553/GD32VW55X_Wifi_BLE_SDK/GD32VW55x_RELEASE_V1.0.2/MSDK/lwip/lwip-2.1.2/src/core/ipv4\ip4_frag.c ****   u16_t clen;
 194              		.loc 1 167 9
 195 0068 8144     		li	s1,0
 179:C:/Users/stapi/OneDrive/Desktop/GD32VW553/GD32VW55X_Wifi_BLE_SDK/GD32VW55x_RELEASE_V1.0.2/MSDK/lwip/lwip-2.1.2/src/core/ipv4\ip4_frag.c ****   if (iprh->start == 0) {
 196              		.loc 1 179 8
 197 006a 03A54900 		lw	a0,4(s3)
 198              	.LVL20:
 180:C:/Users/stapi/OneDrive/Desktop/GD32VW553/GD32VW55X_Wifi_BLE_SDK/GD32VW55x_RELEASE_V1.0.2/MSDK/lwip/lwip-2.1.2/src/core/ipv4\ip4_frag.c ****     /* The first fragment was received, send ICMP time exceeded. */
 199              		.loc 1 180 3 is_stmt 1
 180:C:/Users/stapi/OneDrive/Desktop/GD32VW553/GD32VW55X_Wifi_BLE_SDK/GD32VW55x_RELEASE_V1.0.2/MSDK/lwip/lwip-2.1.2/src/core/ipv4\ip4_frag.c ****     /* The first fragment was received, send ICMP time exceeded. */
 200              		.loc 1 180 11 is_stmt 0
 201 006e 83475500 		lbu	a5,5(a0)
 202 0072 03474500 		lbu	a4,4(a0)
 203 0076 A207     		slli	a5,a5,8
 180:C:/Users/stapi/OneDrive/Desktop/GD32VW553/GD32VW55X_Wifi_BLE_SDK/GD32VW55x_RELEASE_V1.0.2/MSDK/lwip/lwip-2.1.2/src/core/ipv4\ip4_frag.c ****     /* The first fragment was received, send ICMP time exceeded. */
 204              		.loc 1 180 6
 205 0078 D98F     		or	a5,a5,a4
 206 007a A1EB     		bne	a5,zero,.L12
 183:C:/Users/stapi/OneDrive/Desktop/GD32VW553/GD32VW55X_Wifi_BLE_SDK/GD32VW55x_RELEASE_V1.0.2/MSDK/lwip/lwip-2.1.2/src/core/ipv4\ip4_frag.c ****     ipr->p = iprh->next_pbuf;
 207              		.loc 1 183 5 is_stmt 1
 208              	.LVL21:
 184:C:/Users/stapi/OneDrive/Desktop/GD32VW553/GD32VW55X_Wifi_BLE_SDK/GD32VW55x_RELEASE_V1.0.2/MSDK/lwip/lwip-2.1.2/src/core/ipv4\ip4_frag.c ****     /* Then, copy the original header into it. */
 209              		.loc 1 184 5
 184:C:/Users/stapi/OneDrive/Desktop/GD32VW553/GD32VW55X_Wifi_BLE_SDK/GD32VW55x_RELEASE_V1.0.2/MSDK/lwip/lwip-2.1.2/src/core/ipv4\ip4_frag.c ****     /* Then, copy the original header into it. */
 210              		.loc 1 184 18 is_stmt 0
 211 007c 03471500 		lbu	a4,1(a0)
 212 0080 83470500 		lbu	a5,0(a0)
 186:C:/Users/stapi/OneDrive/Desktop/GD32VW553/GD32VW55X_Wifi_BLE_SDK/GD32VW55x_RELEASE_V1.0.2/MSDK/lwip/lwip-2.1.2/src/core/ipv4\ip4_frag.c ****     icmp_time_exceeded(p, ICMP_TE_FRAG);
 213              		.loc 1 186 5
 214 0084 5146     		li	a2,20
 184:C:/Users/stapi/OneDrive/Desktop/GD32VW553/GD32VW55X_Wifi_BLE_SDK/GD32VW55x_RELEASE_V1.0.2/MSDK/lwip/lwip-2.1.2/src/core/ipv4\ip4_frag.c ****     /* Then, copy the original header into it. */
 215              		.loc 1 184 18
 216 0086 2207     		slli	a4,a4,8
 217 0088 5D8F     		or	a4,a4,a5
 218 008a 83472500 		lbu	a5,2(a0)
 186:C:/Users/stapi/OneDrive/Desktop/GD32VW553/GD32VW55X_Wifi_BLE_SDK/GD32VW55x_RELEASE_V1.0.2/MSDK/lwip/lwip-2.1.2/src/core/ipv4\ip4_frag.c ****     icmp_time_exceeded(p, ICMP_TE_FRAG);
 219              		.loc 1 186 5
 220 008e 93058400 		addi	a1,s0,8
 221              	.LVL22:
 184:C:/Users/stapi/OneDrive/Desktop/GD32VW553/GD32VW55X_Wifi_BLE_SDK/GD32VW55x_RELEASE_V1.0.2/MSDK/lwip/lwip-2.1.2/src/core/ipv4\ip4_frag.c ****     /* Then, copy the original header into it. */
 222              		.loc 1 184 18
 223 0092 C207     		slli	a5,a5,16
 224 0094 5D8F     		or	a4,a5,a4
 225 0096 83473500 		lbu	a5,3(a0)
 226 009a E207     		slli	a5,a5,24
 227 009c D98F     		or	a5,a5,a4
 184:C:/Users/stapi/OneDrive/Desktop/GD32VW553/GD32VW55X_Wifi_BLE_SDK/GD32VW55x_RELEASE_V1.0.2/MSDK/lwip/lwip-2.1.2/src/core/ipv4\ip4_frag.c ****     /* Then, copy the original header into it. */
 228              		.loc 1 184 12
 229 009e 5CC0     		sw	a5,4(s0)
 186:C:/Users/stapi/OneDrive/Desktop/GD32VW553/GD32VW55X_Wifi_BLE_SDK/GD32VW55x_RELEASE_V1.0.2/MSDK/lwip/lwip-2.1.2/src/core/ipv4\ip4_frag.c ****     icmp_time_exceeded(p, ICMP_TE_FRAG);
 230              		.loc 1 186 5 is_stmt 1
 231 00a0 97000000 		call	memcpy
 231      E7800000 
 232              	.LVL23:
 187:C:/Users/stapi/OneDrive/Desktop/GD32VW553/GD32VW55X_Wifi_BLE_SDK/GD32VW55x_RELEASE_V1.0.2/MSDK/lwip/lwip-2.1.2/src/core/ipv4\ip4_frag.c ****     clen = pbuf_clen(p);
 233              		.loc 1 187 5
 234 00a8 8545     		li	a1,1
 235 00aa 4E85     		mv	a0,s3
 236 00ac 97000000 		call	icmp_time_exceeded
 236      E7800000 
 237              	.LVL24:
 188:C:/Users/stapi/OneDrive/Desktop/GD32VW553/GD32VW55X_Wifi_BLE_SDK/GD32VW55x_RELEASE_V1.0.2/MSDK/lwip/lwip-2.1.2/src/core/ipv4\ip4_frag.c ****     LWIP_ASSERT("pbufs_freed + clen <= 0xffff", pbufs_freed + clen <= 0xffff);
 238              		.loc 1 188 5
 188:C:/Users/stapi/OneDrive/Desktop/GD32VW553/GD32VW55X_Wifi_BLE_SDK/GD32VW55x_RELEASE_V1.0.2/MSDK/lwip/lwip-2.1.2/src/core/ipv4\ip4_frag.c ****     LWIP_ASSERT("pbufs_freed + clen <= 0xffff", pbufs_freed + clen <= 0xffff);
 239              		.loc 1 188 12 is_stmt 0
 240 00b4 4E85     		mv	a0,s3
 241 00b6 97000000 		call	pbuf_clen
 241      E7800000 
 242              	.LVL25:
 243 00be AA84     		mv	s1,a0
 244              	.LVL26:
 189:C:/Users/stapi/OneDrive/Desktop/GD32VW553/GD32VW55X_Wifi_BLE_SDK/GD32VW55x_RELEASE_V1.0.2/MSDK/lwip/lwip-2.1.2/src/core/ipv4\ip4_frag.c ****     pbufs_freed = (u16_t)(pbufs_freed + clen);
 245              		.loc 1 189 5 is_stmt 1
 189:C:/Users/stapi/OneDrive/Desktop/GD32VW553/GD32VW55X_Wifi_BLE_SDK/GD32VW55x_RELEASE_V1.0.2/MSDK/lwip/lwip-2.1.2/src/core/ipv4\ip4_frag.c ****     pbufs_freed = (u16_t)(pbufs_freed + clen);
 246              		.loc 1 189 5
 189:C:/Users/stapi/OneDrive/Desktop/GD32VW553/GD32VW55X_Wifi_BLE_SDK/GD32VW55x_RELEASE_V1.0.2/MSDK/lwip/lwip-2.1.2/src/core/ipv4\ip4_frag.c ****     pbufs_freed = (u16_t)(pbufs_freed + clen);
 247              		.loc 1 189 5
 189:C:/Users/stapi/OneDrive/Desktop/GD32VW553/GD32VW55X_Wifi_BLE_SDK/GD32VW55x_RELEASE_V1.0.2/MSDK/lwip/lwip-2.1.2/src/core/ipv4\ip4_frag.c ****     pbufs_freed = (u16_t)(pbufs_freed + clen);
 248              		.loc 1 189 5
 190:C:/Users/stapi/OneDrive/Desktop/GD32VW553/GD32VW55X_Wifi_BLE_SDK/GD32VW55x_RELEASE_V1.0.2/MSDK/lwip/lwip-2.1.2/src/core/ipv4\ip4_frag.c ****     pbuf_free(p);
 249              		.loc 1 190 5
 191:C:/Users/stapi/OneDrive/Desktop/GD32VW553/GD32VW55X_Wifi_BLE_SDK/GD32VW55x_RELEASE_V1.0.2/MSDK/lwip/lwip-2.1.2/src/core/ipv4\ip4_frag.c ****   }
 250              		.loc 1 191 5
 251 00c0 4E85     		mv	a0,s3
 252 00c2 97000000 		call	pbuf_free
 252      E7800000 
 253              	.LVL27:
 254              	.L12:
 197:C:/Users/stapi/OneDrive/Desktop/GD32VW553/GD32VW55X_Wifi_BLE_SDK/GD32VW55x_RELEASE_V1.0.2/MSDK/lwip/lwip-2.1.2/src/core/ipv4\ip4_frag.c ****   while (p != NULL) {
 255              		.loc 1 197 3
 197:C:/Users/stapi/OneDrive/Desktop/GD32VW553/GD32VW55X_Wifi_BLE_SDK/GD32VW55x_RELEASE_V1.0.2/MSDK/lwip/lwip-2.1.2/src/core/ipv4\ip4_frag.c ****   while (p != NULL) {
 256              		.loc 1 197 5 is_stmt 0
 257 00ca 83294400 		lw	s3,4(s0)
 258              	.LVL28:
 198:C:/Users/stapi/OneDrive/Desktop/GD32VW553/GD32VW55X_Wifi_BLE_SDK/GD32VW55x_RELEASE_V1.0.2/MSDK/lwip/lwip-2.1.2/src/core/ipv4\ip4_frag.c ****     struct pbuf *pcur;
 259              		.loc 1 198 3 is_stmt 1
 260              	.LBB12:
 205:C:/Users/stapi/OneDrive/Desktop/GD32VW553/GD32VW55X_Wifi_BLE_SDK/GD32VW55x_RELEASE_V1.0.2/MSDK/lwip/lwip-2.1.2/src/core/ipv4\ip4_frag.c ****     pbufs_freed = (u16_t)(pbufs_freed + clen);
 261              		.loc 1 205 5 is_stmt 0
 262 00ce C16A     		li	s5,65536
 263              	.L13:
 264              	.LBE12:
 198:C:/Users/stapi/OneDrive/Desktop/GD32VW553/GD32VW55X_Wifi_BLE_SDK/GD32VW55x_RELEASE_V1.0.2/MSDK/lwip/lwip-2.1.2/src/core/ipv4\ip4_frag.c ****     struct pbuf *pcur;
 265              		.loc 1 198 9 is_stmt 1
 266 00d0 63930904 		bne	s3,zero,.L16
 210:C:/Users/stapi/OneDrive/Desktop/GD32VW553/GD32VW55X_Wifi_BLE_SDK/GD32VW55x_RELEASE_V1.0.2/MSDK/lwip/lwip-2.1.2/src/core/ipv4\ip4_frag.c ****   LWIP_ASSERT("ip_reass_pbufcount >= pbufs_freed", ip_reass_pbufcount >= pbufs_freed);
 267              		.loc 1 210 3
 268 00d4 CA85     		mv	a1,s2
 269 00d6 2285     		mv	a0,s0
 270 00d8 97000000 		call	ip_reass_dequeue_datagram
 270      E7800000 
 271              	.LVL29:
 211:C:/Users/stapi/OneDrive/Desktop/GD32VW553/GD32VW55X_Wifi_BLE_SDK/GD32VW55x_RELEASE_V1.0.2/MSDK/lwip/lwip-2.1.2/src/core/ipv4\ip4_frag.c ****   ip_reass_pbufcount = (u16_t)(ip_reass_pbufcount - pbufs_freed);
 272              		.loc 1 211 3
 211:C:/Users/stapi/OneDrive/Desktop/GD32VW553/GD32VW55X_Wifi_BLE_SDK/GD32VW55x_RELEASE_V1.0.2/MSDK/lwip/lwip-2.1.2/src/core/ipv4\ip4_frag.c ****   ip_reass_pbufcount = (u16_t)(ip_reass_pbufcount - pbufs_freed);
 273              		.loc 1 211 3
 274 00e0 B7070000 		lui	a5,%hi(.LANCHOR1)
 275 00e4 93870700 		addi	a5,a5,%lo(.LANCHOR1)
 276 00e8 03D70700 		lhu	a4,0(a5)
 277 00ec 637C9708 		bleu	s1,a4,.L17
 211:C:/Users/stapi/OneDrive/Desktop/GD32VW553/GD32VW55X_Wifi_BLE_SDK/GD32VW55x_RELEASE_V1.0.2/MSDK/lwip/lwip-2.1.2/src/core/ipv4\ip4_frag.c ****   ip_reass_pbufcount = (u16_t)(ip_reass_pbufcount - pbufs_freed);
 278              		.loc 1 211 3
 211:C:/Users/stapi/OneDrive/Desktop/GD32VW553/GD32VW55X_Wifi_BLE_SDK/GD32VW55x_RELEASE_V1.0.2/MSDK/lwip/lwip-2.1.2/src/core/ipv4\ip4_frag.c ****   ip_reass_pbufcount = (u16_t)(ip_reass_pbufcount - pbufs_freed);
 279              		.loc 1 211 3
 280 00f0 B7060000 		lui	a3,%hi(.LC0)
 281 00f4 B7050000 		lui	a1,%hi(.LC6)
 282 00f8 37050000 		lui	a0,%hi(.LC2)
 283 00fc 93860600 		addi	a3,a3,%lo(.LC0)
 284 0100 1306300D 		li	a2,211
 285 0104 93850500 		addi	a1,a1,%lo(.LC6)
 286 0108 13050500 		addi	a0,a0,%lo(.LC2)
 287 010c 97000000 		call	printf
 287      E7800000 
 288              	.LVL30:
 289              	.L18:
 211:C:/Users/stapi/OneDrive/Desktop/GD32VW553/GD32VW55X_Wifi_BLE_SDK/GD32VW55x_RELEASE_V1.0.2/MSDK/lwip/lwip-2.1.2/src/core/ipv4\ip4_frag.c ****   ip_reass_pbufcount = (u16_t)(ip_reass_pbufcount - pbufs_freed);
 290              		.loc 1 211 3
 211:C:/Users/stapi/OneDrive/Desktop/GD32VW553/GD32VW55X_Wifi_BLE_SDK/GD32VW55x_RELEASE_V1.0.2/MSDK/lwip/lwip-2.1.2/src/core/ipv4\ip4_frag.c ****   ip_reass_pbufcount = (u16_t)(ip_reass_pbufcount - pbufs_freed);
 291              		.loc 1 211 3
 211:C:/Users/stapi/OneDrive/Desktop/GD32VW553/GD32VW55X_Wifi_BLE_SDK/GD32VW55x_RELEASE_V1.0.2/MSDK/lwip/lwip-2.1.2/src/core/ipv4\ip4_frag.c ****   ip_reass_pbufcount = (u16_t)(ip_reass_pbufcount - pbufs_freed);
 292              		.loc 1 211 3
 293 0114 01A0     		j	.L18
 294              	.L16:
 295              	.LBB13:
 199:C:/Users/stapi/OneDrive/Desktop/GD32VW553/GD32VW55X_Wifi_BLE_SDK/GD32VW55x_RELEASE_V1.0.2/MSDK/lwip/lwip-2.1.2/src/core/ipv4\ip4_frag.c ****     iprh = (struct ip_reass_helper *)p->payload;
 296              		.loc 1 199 5
 200:C:/Users/stapi/OneDrive/Desktop/GD32VW553/GD32VW55X_Wifi_BLE_SDK/GD32VW55x_RELEASE_V1.0.2/MSDK/lwip/lwip-2.1.2/src/core/ipv4\ip4_frag.c ****     pcur = p;
 297              		.loc 1 200 5
 200:C:/Users/stapi/OneDrive/Desktop/GD32VW553/GD32VW55X_Wifi_BLE_SDK/GD32VW55x_RELEASE_V1.0.2/MSDK/lwip/lwip-2.1.2/src/core/ipv4\ip4_frag.c ****     pcur = p;
 298              		.loc 1 200 10 is_stmt 0
 299 0116 03A74900 		lw	a4,4(s3)
 300              	.LVL31:
 201:C:/Users/stapi/OneDrive/Desktop/GD32VW553/GD32VW55X_Wifi_BLE_SDK/GD32VW55x_RELEASE_V1.0.2/MSDK/lwip/lwip-2.1.2/src/core/ipv4\ip4_frag.c ****     /* get the next pointer before freeing */
 301              		.loc 1 201 5 is_stmt 1
 203:C:/Users/stapi/OneDrive/Desktop/GD32VW553/GD32VW55X_Wifi_BLE_SDK/GD32VW55x_RELEASE_V1.0.2/MSDK/lwip/lwip-2.1.2/src/core/ipv4\ip4_frag.c ****     clen = pbuf_clen(pcur);
 302              		.loc 1 203 5
 204:C:/Users/stapi/OneDrive/Desktop/GD32VW553/GD32VW55X_Wifi_BLE_SDK/GD32VW55x_RELEASE_V1.0.2/MSDK/lwip/lwip-2.1.2/src/core/ipv4\ip4_frag.c ****     LWIP_ASSERT("pbufs_freed + clen <= 0xffff", pbufs_freed + clen <= 0xffff);
 303              		.loc 1 204 12 is_stmt 0
 304 011a 4E85     		mv	a0,s3
 203:C:/Users/stapi/OneDrive/Desktop/GD32VW553/GD32VW55X_Wifi_BLE_SDK/GD32VW55x_RELEASE_V1.0.2/MSDK/lwip/lwip-2.1.2/src/core/ipv4\ip4_frag.c ****     clen = pbuf_clen(pcur);
 305              		.loc 1 203 7
 306 011c 83471700 		lbu	a5,1(a4)
 307 0120 034A0700 		lbu	s4,0(a4)
 308 0124 A207     		slli	a5,a5,8
 309 0126 B3E74701 		or	a5,a5,s4
 310 012a 034A2700 		lbu	s4,2(a4)
 311 012e 420A     		slli	s4,s4,16
 312 0130 B367FA00 		or	a5,s4,a5
 313 0134 034A3700 		lbu	s4,3(a4)
 314 0138 620A     		slli	s4,s4,24
 315 013a 336AFA00 		or	s4,s4,a5
 316              	.LVL32:
 204:C:/Users/stapi/OneDrive/Desktop/GD32VW553/GD32VW55X_Wifi_BLE_SDK/GD32VW55x_RELEASE_V1.0.2/MSDK/lwip/lwip-2.1.2/src/core/ipv4\ip4_frag.c ****     LWIP_ASSERT("pbufs_freed + clen <= 0xffff", pbufs_freed + clen <= 0xffff);
 317              		.loc 1 204 5 is_stmt 1
 204:C:/Users/stapi/OneDrive/Desktop/GD32VW553/GD32VW55X_Wifi_BLE_SDK/GD32VW55x_RELEASE_V1.0.2/MSDK/lwip/lwip-2.1.2/src/core/ipv4\ip4_frag.c ****     LWIP_ASSERT("pbufs_freed + clen <= 0xffff", pbufs_freed + clen <= 0xffff);
 318              		.loc 1 204 12 is_stmt 0
 319 013e 97000000 		call	pbuf_clen
 319      E7800000 
 320              	.LVL33:
 205:C:/Users/stapi/OneDrive/Desktop/GD32VW553/GD32VW55X_Wifi_BLE_SDK/GD32VW55x_RELEASE_V1.0.2/MSDK/lwip/lwip-2.1.2/src/core/ipv4\ip4_frag.c ****     pbufs_freed = (u16_t)(pbufs_freed + clen);
 321              		.loc 1 205 5 is_stmt 1
 205:C:/Users/stapi/OneDrive/Desktop/GD32VW553/GD32VW55X_Wifi_BLE_SDK/GD32VW55x_RELEASE_V1.0.2/MSDK/lwip/lwip-2.1.2/src/core/ipv4\ip4_frag.c ****     pbufs_freed = (u16_t)(pbufs_freed + clen);
 322              		.loc 1 205 5
 323 0146 AA94     		add	s1,s1,a0
 324              	.LVL34:
 325 0148 63C55403 		blt	s1,s5,.L14
 205:C:/Users/stapi/OneDrive/Desktop/GD32VW553/GD32VW55X_Wifi_BLE_SDK/GD32VW55x_RELEASE_V1.0.2/MSDK/lwip/lwip-2.1.2/src/core/ipv4\ip4_frag.c ****     pbufs_freed = (u16_t)(pbufs_freed + clen);
 326              		.loc 1 205 5
 205:C:/Users/stapi/OneDrive/Desktop/GD32VW553/GD32VW55X_Wifi_BLE_SDK/GD32VW55x_RELEASE_V1.0.2/MSDK/lwip/lwip-2.1.2/src/core/ipv4\ip4_frag.c ****     pbufs_freed = (u16_t)(pbufs_freed + clen);
 327              		.loc 1 205 5
 328 014c B7060000 		lui	a3,%hi(.LC0)
 329 0150 B7050000 		lui	a1,%hi(.LC5)
 330 0154 37050000 		lui	a0,%hi(.LC2)
 331              	.LVL35:
 332 0158 93860600 		addi	a3,a3,%lo(.LC0)
 333 015c 1306D00C 		li	a2,205
 334 0160 93850500 		addi	a1,a1,%lo(.LC5)
 335 0164 13050500 		addi	a0,a0,%lo(.LC2)
 336 0168 97000000 		call	printf
 336      E7800000 
 337              	.LVL36:
 338              	.L15:
 205:C:/Users/stapi/OneDrive/Desktop/GD32VW553/GD32VW55X_Wifi_BLE_SDK/GD32VW55x_RELEASE_V1.0.2/MSDK/lwip/lwip-2.1.2/src/core/ipv4\ip4_frag.c ****     pbufs_freed = (u16_t)(pbufs_freed + clen);
 339              		.loc 1 205 5
 205:C:/Users/stapi/OneDrive/Desktop/GD32VW553/GD32VW55X_Wifi_BLE_SDK/GD32VW55x_RELEASE_V1.0.2/MSDK/lwip/lwip-2.1.2/src/core/ipv4\ip4_frag.c ****     pbufs_freed = (u16_t)(pbufs_freed + clen);
 340              		.loc 1 205 5
 205:C:/Users/stapi/OneDrive/Desktop/GD32VW553/GD32VW55X_Wifi_BLE_SDK/GD32VW55x_RELEASE_V1.0.2/MSDK/lwip/lwip-2.1.2/src/core/ipv4\ip4_frag.c ****     pbufs_freed = (u16_t)(pbufs_freed + clen);
 341              		.loc 1 205 5
 342 0170 01A0     		j	.L15
 343              	.LVL37:
 344              	.L14:
 205:C:/Users/stapi/OneDrive/Desktop/GD32VW553/GD32VW55X_Wifi_BLE_SDK/GD32VW55x_RELEASE_V1.0.2/MSDK/lwip/lwip-2.1.2/src/core/ipv4\ip4_frag.c ****     pbufs_freed = (u16_t)(pbufs_freed + clen);
 345              		.loc 1 205 5
 205:C:/Users/stapi/OneDrive/Desktop/GD32VW553/GD32VW55X_Wifi_BLE_SDK/GD32VW55x_RELEASE_V1.0.2/MSDK/lwip/lwip-2.1.2/src/core/ipv4\ip4_frag.c ****     pbufs_freed = (u16_t)(pbufs_freed + clen);
 346              		.loc 1 205 5
 206:C:/Users/stapi/OneDrive/Desktop/GD32VW553/GD32VW55X_Wifi_BLE_SDK/GD32VW55x_RELEASE_V1.0.2/MSDK/lwip/lwip-2.1.2/src/core/ipv4\ip4_frag.c ****     pbuf_free(pcur);
 347              		.loc 1 206 5
 207:C:/Users/stapi/OneDrive/Desktop/GD32VW553/GD32VW55X_Wifi_BLE_SDK/GD32VW55x_RELEASE_V1.0.2/MSDK/lwip/lwip-2.1.2/src/core/ipv4\ip4_frag.c ****   }
 348              		.loc 1 207 5 is_stmt 0
 349 0172 4E85     		mv	a0,s3
 350              	.LVL38:
 351 0174 97000000 		call	pbuf_free
 351      E7800000 
 352              	.LVL39:
 203:C:/Users/stapi/OneDrive/Desktop/GD32VW553/GD32VW55X_Wifi_BLE_SDK/GD32VW55x_RELEASE_V1.0.2/MSDK/lwip/lwip-2.1.2/src/core/ipv4\ip4_frag.c ****     clen = pbuf_clen(pcur);
 353              		.loc 1 203 7
 354 017c D289     		mv	s3,s4
 355              	.LVL40:
 206:C:/Users/stapi/OneDrive/Desktop/GD32VW553/GD32VW55X_Wifi_BLE_SDK/GD32VW55x_RELEASE_V1.0.2/MSDK/lwip/lwip-2.1.2/src/core/ipv4\ip4_frag.c ****     pbuf_free(pcur);
 356              		.loc 1 206 17
 357 017e B3C40408 		zext.h	s1,s1
 358              	.LVL41:
 207:C:/Users/stapi/OneDrive/Desktop/GD32VW553/GD32VW55X_Wifi_BLE_SDK/GD32VW55x_RELEASE_V1.0.2/MSDK/lwip/lwip-2.1.2/src/core/ipv4\ip4_frag.c ****   }
 359              		.loc 1 207 5 is_stmt 1
 360 0182 B9B7     		j	.L13
 361              	.LVL42:
 362              	.L17:
 363              	.LBE13:
 211:C:/Users/stapi/OneDrive/Desktop/GD32VW553/GD32VW55X_Wifi_BLE_SDK/GD32VW55x_RELEASE_V1.0.2/MSDK/lwip/lwip-2.1.2/src/core/ipv4\ip4_frag.c ****   ip_reass_pbufcount = (u16_t)(ip_reass_pbufcount - pbufs_freed);
 364              		.loc 1 211 3
 211:C:/Users/stapi/OneDrive/Desktop/GD32VW553/GD32VW55X_Wifi_BLE_SDK/GD32VW55x_RELEASE_V1.0.2/MSDK/lwip/lwip-2.1.2/src/core/ipv4\ip4_frag.c ****   ip_reass_pbufcount = (u16_t)(ip_reass_pbufcount - pbufs_freed);
 365              		.loc 1 211 3
 212:C:/Users/stapi/OneDrive/Desktop/GD32VW553/GD32VW55X_Wifi_BLE_SDK/GD32VW55x_RELEASE_V1.0.2/MSDK/lwip/lwip-2.1.2/src/core/ipv4\ip4_frag.c **** 
 366              		.loc 1 212 3
 212:C:/Users/stapi/OneDrive/Desktop/GD32VW553/GD32VW55X_Wifi_BLE_SDK/GD32VW55x_RELEASE_V1.0.2/MSDK/lwip/lwip-2.1.2/src/core/ipv4\ip4_frag.c **** 
 367              		.loc 1 212 24 is_stmt 0
 368 0184 058F     		sub	a4,a4,s1
 212:C:/Users/stapi/OneDrive/Desktop/GD32VW553/GD32VW55X_Wifi_BLE_SDK/GD32VW55x_RELEASE_V1.0.2/MSDK/lwip/lwip-2.1.2/src/core/ipv4\ip4_frag.c **** 
 369              		.loc 1 212 22
 370 0186 2390E700 		sh	a4,0(a5)
 214:C:/Users/stapi/OneDrive/Desktop/GD32VW553/GD32VW55X_Wifi_BLE_SDK/GD32VW55x_RELEASE_V1.0.2/MSDK/lwip/lwip-2.1.2/src/core/ipv4\ip4_frag.c **** }
 371              		.loc 1 214 3 is_stmt 1
 372              	.LVL43:
 373              	.LBE11:
 374              	.LBE10:
 215:C:/Users/stapi/OneDrive/Desktop/GD32VW553/GD32VW55X_Wifi_BLE_SDK/GD32VW55x_RELEASE_V1.0.2/MSDK/lwip/lwip-2.1.2/src/core/ipv4\ip4_frag.c **** 
 375              		.loc 1 215 1 is_stmt 0
 376 018a 2685     		mv	a0,s1
 377 018c 17030000 		tail	__riscv_restore_6
 377      67000300 
 378              		.cfi_restore 21
 379              		.cfi_restore 20
 380              		.cfi_restore 19
 381              		.cfi_restore 18
 382              		.cfi_restore 9
 383              		.cfi_restore 8
 384              		.cfi_restore 1
 385              		.cfi_def_cfa_offset 0
 386              		.cfi_endproc
 387              	.LFE5:
 389              		.section	.text.ip_reass_remove_oldest_datagram,"ax",@progbits
 390              		.align	1
 392              	ip_reass_remove_oldest_datagram:
 393              	.LFB6:
 229:C:/Users/stapi/OneDrive/Desktop/GD32VW553/GD32VW55X_Wifi_BLE_SDK/GD32VW55x_RELEASE_V1.0.2/MSDK/lwip/lwip-2.1.2/src/core/ipv4\ip4_frag.c ****   /* @todo Can't we simply remove the last datagram in the
 394              		.loc 1 229 1 is_stmt 1
 395              		.cfi_startproc
 396              	.LVL44:
 397 0000 17030000 		call	t0,__riscv_save_6
 397      E7020300 
 398              		.cfi_offset 21, -28
 399              		.cfi_offset 20, -24
 400              		.cfi_offset 19, -20
 401              		.cfi_offset 18, -16
 402              		.cfi_offset 9, -12
 403              		.cfi_offset 8, -8
 404              		.cfi_offset 1, -4
 405              		.cfi_def_cfa_offset 32
 233:C:/Users/stapi/OneDrive/Desktop/GD32VW553/GD32VW55X_Wifi_BLE_SDK/GD32VW55x_RELEASE_V1.0.2/MSDK/lwip/lwip-2.1.2/src/core/ipv4\ip4_frag.c ****   int pbufs_freed = 0, pbufs_freed_current;
 406              		.loc 1 233 3
 234:C:/Users/stapi/OneDrive/Desktop/GD32VW553/GD32VW55X_Wifi_BLE_SDK/GD32VW55x_RELEASE_V1.0.2/MSDK/lwip/lwip-2.1.2/src/core/ipv4\ip4_frag.c ****   int other_datagrams;
 407              		.loc 1 234 3
 408              	.LVL45:
 229:C:/Users/stapi/OneDrive/Desktop/GD32VW553/GD32VW55X_Wifi_BLE_SDK/GD32VW55x_RELEASE_V1.0.2/MSDK/lwip/lwip-2.1.2/src/core/ipv4\ip4_frag.c ****   /* @todo Can't we simply remove the last datagram in the
 409              		.loc 1 229 1 is_stmt 0
 410 0008 2A84     		mv	s0,a0
 411 000a AE89     		mv	s3,a1
 234:C:/Users/stapi/OneDrive/Desktop/GD32VW553/GD32VW55X_Wifi_BLE_SDK/GD32VW55x_RELEASE_V1.0.2/MSDK/lwip/lwip-2.1.2/src/core/ipv4\ip4_frag.c ****   int other_datagrams;
 412              		.loc 1 234 7
 413 000c 8144     		li	s1,0
 244:C:/Users/stapi/OneDrive/Desktop/GD32VW553/GD32VW55X_Wifi_BLE_SDK/GD32VW55x_RELEASE_V1.0.2/MSDK/lwip/lwip-2.1.2/src/core/ipv4\ip4_frag.c ****     while (r != NULL) {
 414              		.loc 1 244 7
 415 000e B70A0000 		lui	s5,%hi(.LANCHOR0)
 267:C:/Users/stapi/OneDrive/Desktop/GD32VW553/GD32VW55X_Wifi_BLE_SDK/GD32VW55x_RELEASE_V1.0.2/MSDK/lwip/lwip-2.1.2/src/core/ipv4\ip4_frag.c ****   return pbufs_freed;
 416              		.loc 1 267 41
 417 0012 054A     		li	s4,1
 418              	.LVL46:
 419              	.L32:
 235:C:/Users/stapi/OneDrive/Desktop/GD32VW553/GD32VW55X_Wifi_BLE_SDK/GD32VW55x_RELEASE_V1.0.2/MSDK/lwip/lwip-2.1.2/src/core/ipv4\ip4_frag.c **** 
 420              		.loc 1 235 3 is_stmt 1
 239:C:/Users/stapi/OneDrive/Desktop/GD32VW553/GD32VW55X_Wifi_BLE_SDK/GD32VW55x_RELEASE_V1.0.2/MSDK/lwip/lwip-2.1.2/src/core/ipv4\ip4_frag.c ****     oldest = NULL;
 421              		.loc 1 239 3
 240:C:/Users/stapi/OneDrive/Desktop/GD32VW553/GD32VW55X_Wifi_BLE_SDK/GD32VW55x_RELEASE_V1.0.2/MSDK/lwip/lwip-2.1.2/src/core/ipv4\ip4_frag.c ****     prev = NULL;
 422              		.loc 1 240 5
 241:C:/Users/stapi/OneDrive/Desktop/GD32VW553/GD32VW55X_Wifi_BLE_SDK/GD32VW55x_RELEASE_V1.0.2/MSDK/lwip/lwip-2.1.2/src/core/ipv4\ip4_frag.c ****     oldest_prev = NULL;
 423              		.loc 1 241 5
 242:C:/Users/stapi/OneDrive/Desktop/GD32VW553/GD32VW55X_Wifi_BLE_SDK/GD32VW55x_RELEASE_V1.0.2/MSDK/lwip/lwip-2.1.2/src/core/ipv4\ip4_frag.c ****     other_datagrams = 0;
 424              		.loc 1 242 5
 243:C:/Users/stapi/OneDrive/Desktop/GD32VW553/GD32VW55X_Wifi_BLE_SDK/GD32VW55x_RELEASE_V1.0.2/MSDK/lwip/lwip-2.1.2/src/core/ipv4\ip4_frag.c ****     r = reassdatagrams;
 425              		.loc 1 243 5
 244:C:/Users/stapi/OneDrive/Desktop/GD32VW553/GD32VW55X_Wifi_BLE_SDK/GD32VW55x_RELEASE_V1.0.2/MSDK/lwip/lwip-2.1.2/src/core/ipv4\ip4_frag.c ****     while (r != NULL) {
 426              		.loc 1 244 5
 244:C:/Users/stapi/OneDrive/Desktop/GD32VW553/GD32VW55X_Wifi_BLE_SDK/GD32VW55x_RELEASE_V1.0.2/MSDK/lwip/lwip-2.1.2/src/core/ipv4\ip4_frag.c ****     while (r != NULL) {
 427              		.loc 1 244 7 is_stmt 0
 428 0014 83A70A00 		lw	a5,%lo(.LANCHOR0)(s5)
 429              	.LVL47:
 245:C:/Users/stapi/OneDrive/Desktop/GD32VW553/GD32VW55X_Wifi_BLE_SDK/GD32VW55x_RELEASE_V1.0.2/MSDK/lwip/lwip-2.1.2/src/core/ipv4\ip4_frag.c ****       if (!IP_ADDRESSES_AND_ID_MATCH(&r->iphdr, fraghdr)) {
 430              		.loc 1 245 5 is_stmt 1
 243:C:/Users/stapi/OneDrive/Desktop/GD32VW553/GD32VW55X_Wifi_BLE_SDK/GD32VW55x_RELEASE_V1.0.2/MSDK/lwip/lwip-2.1.2/src/core/ipv4\ip4_frag.c ****     r = reassdatagrams;
 431              		.loc 1 243 21 is_stmt 0
 432 0018 0149     		li	s2,0
 242:C:/Users/stapi/OneDrive/Desktop/GD32VW553/GD32VW55X_Wifi_BLE_SDK/GD32VW55x_RELEASE_V1.0.2/MSDK/lwip/lwip-2.1.2/src/core/ipv4\ip4_frag.c ****     other_datagrams = 0;
 433              		.loc 1 242 17
 434 001a 8145     		li	a1,0
 241:C:/Users/stapi/OneDrive/Desktop/GD32VW553/GD32VW55X_Wifi_BLE_SDK/GD32VW55x_RELEASE_V1.0.2/MSDK/lwip/lwip-2.1.2/src/core/ipv4\ip4_frag.c ****     oldest_prev = NULL;
 435              		.loc 1 241 10
 436 001c 0146     		li	a2,0
 240:C:/Users/stapi/OneDrive/Desktop/GD32VW553/GD32VW55X_Wifi_BLE_SDK/GD32VW55x_RELEASE_V1.0.2/MSDK/lwip/lwip-2.1.2/src/core/ipv4\ip4_frag.c ****     prev = NULL;
 437              		.loc 1 240 12
 438 001e 0145     		li	a0,0
 439              	.LVL48:
 440              	.L25:
 245:C:/Users/stapi/OneDrive/Desktop/GD32VW553/GD32VW55X_Wifi_BLE_SDK/GD32VW55x_RELEASE_V1.0.2/MSDK/lwip/lwip-2.1.2/src/core/ipv4\ip4_frag.c ****       if (!IP_ADDRESSES_AND_ID_MATCH(&r->iphdr, fraghdr)) {
 441              		.loc 1 245 11 is_stmt 1
 442 0020 85E3     		bne	a5,zero,.L29
 263:C:/Users/stapi/OneDrive/Desktop/GD32VW553/GD32VW55X_Wifi_BLE_SDK/GD32VW55x_RELEASE_V1.0.2/MSDK/lwip/lwip-2.1.2/src/core/ipv4\ip4_frag.c ****       pbufs_freed_current = ip_reass_free_complete_datagram(oldest, oldest_prev);
 443              		.loc 1 263 5
 263:C:/Users/stapi/OneDrive/Desktop/GD32VW553/GD32VW55X_Wifi_BLE_SDK/GD32VW55x_RELEASE_V1.0.2/MSDK/lwip/lwip-2.1.2/src/core/ipv4\ip4_frag.c ****       pbufs_freed_current = ip_reass_free_complete_datagram(oldest, oldest_prev);
 444              		.loc 1 263 8 is_stmt 0
 445 0022 11C5     		beq	a0,zero,.L30
 264:C:/Users/stapi/OneDrive/Desktop/GD32VW553/GD32VW55X_Wifi_BLE_SDK/GD32VW55x_RELEASE_V1.0.2/MSDK/lwip/lwip-2.1.2/src/core/ipv4\ip4_frag.c ****       pbufs_freed += pbufs_freed_current;
 446              		.loc 1 264 7 is_stmt 1
 264:C:/Users/stapi/OneDrive/Desktop/GD32VW553/GD32VW55X_Wifi_BLE_SDK/GD32VW55x_RELEASE_V1.0.2/MSDK/lwip/lwip-2.1.2/src/core/ipv4\ip4_frag.c ****       pbufs_freed += pbufs_freed_current;
 447              		.loc 1 264 29 is_stmt 0
 448 0024 97000000 		call	ip_reass_free_complete_datagram
 448      E7800000 
 449              	.LVL49:
 265:C:/Users/stapi/OneDrive/Desktop/GD32VW553/GD32VW55X_Wifi_BLE_SDK/GD32VW55x_RELEASE_V1.0.2/MSDK/lwip/lwip-2.1.2/src/core/ipv4\ip4_frag.c ****     }
 450              		.loc 1 265 7 is_stmt 1
 265:C:/Users/stapi/OneDrive/Desktop/GD32VW553/GD32VW55X_Wifi_BLE_SDK/GD32VW55x_RELEASE_V1.0.2/MSDK/lwip/lwip-2.1.2/src/core/ipv4\ip4_frag.c ****     }
 451              		.loc 1 265 19 is_stmt 0
 452 002c AA94     		add	s1,s1,a0
 453              	.LVL50:
 454              	.L30:
 267:C:/Users/stapi/OneDrive/Desktop/GD32VW553/GD32VW55X_Wifi_BLE_SDK/GD32VW55x_RELEASE_V1.0.2/MSDK/lwip/lwip-2.1.2/src/core/ipv4\ip4_frag.c ****   return pbufs_freed;
 455              		.loc 1 267 11 is_stmt 1
 267:C:/Users/stapi/OneDrive/Desktop/GD32VW553/GD32VW55X_Wifi_BLE_SDK/GD32VW55x_RELEASE_V1.0.2/MSDK/lwip/lwip-2.1.2/src/core/ipv4\ip4_frag.c ****   return pbufs_freed;
 456              		.loc 1 267 3 is_stmt 0
 457 002e 63D43401 		bge	s1,s3,.L24
 267:C:/Users/stapi/OneDrive/Desktop/GD32VW553/GD32VW55X_Wifi_BLE_SDK/GD32VW55x_RELEASE_V1.0.2/MSDK/lwip/lwip-2.1.2/src/core/ipv4\ip4_frag.c ****   return pbufs_freed;
 458              		.loc 1 267 41 discriminator 1
 459 0032 E3412AFF 		bgt	s2,s4,.L32
 460              	.L24:
 269:C:/Users/stapi/OneDrive/Desktop/GD32VW553/GD32VW55X_Wifi_BLE_SDK/GD32VW55x_RELEASE_V1.0.2/MSDK/lwip/lwip-2.1.2/src/core/ipv4\ip4_frag.c **** #endif /* IP_REASS_FREE_OLDEST */
 461              		.loc 1 269 1
 462 0036 2685     		mv	a0,s1
 463 0038 17030000 		tail	__riscv_restore_6
 463      67000300 
 464              		.cfi_remember_state
 465              		.cfi_restore 21
 466              		.cfi_restore 20
 467              		.cfi_restore 19
 468              		.cfi_restore 18
 469              		.cfi_restore 9
 470              		.cfi_restore 8
 471              		.cfi_restore 1
 472              		.cfi_def_cfa_offset 0
 473              	.LVL51:
 474              	.L29:
 475              		.cfi_restore_state
 246:C:/Users/stapi/OneDrive/Desktop/GD32VW553/GD32VW55X_Wifi_BLE_SDK/GD32VW55x_RELEASE_V1.0.2/MSDK/lwip/lwip-2.1.2/src/core/ipv4\ip4_frag.c ****         /* Not the same datagram as fraghdr */
 476              		.loc 1 246 7 is_stmt 1
 246:C:/Users/stapi/OneDrive/Desktop/GD32VW553/GD32VW55X_Wifi_BLE_SDK/GD32VW55x_RELEASE_V1.0.2/MSDK/lwip/lwip-2.1.2/src/core/ipv4\ip4_frag.c ****         /* Not the same datagram as fraghdr */
 477              		.loc 1 246 12 is_stmt 0
 478 0040 8346D400 		lbu	a3,13(s0)
 479 0044 0347C400 		lbu	a4,12(s0)
 480 0048 A206     		slli	a3,a3,8
 481 004a D98E     		or	a3,a3,a4
 482 004c 0347E400 		lbu	a4,14(s0)
 483 0050 4207     		slli	a4,a4,16
 484 0052 D98E     		or	a3,a4,a3
 485 0054 0347F400 		lbu	a4,15(s0)
 486 0058 6207     		slli	a4,a4,24
 487 005a 558F     		or	a4,a4,a3
 246:C:/Users/stapi/OneDrive/Desktop/GD32VW553/GD32VW55X_Wifi_BLE_SDK/GD32VW55x_RELEASE_V1.0.2/MSDK/lwip/lwip-2.1.2/src/core/ipv4\ip4_frag.c ****         /* Not the same datagram as fraghdr */
 488              		.loc 1 246 10
 489 005c D44B     		lw	a3,20(a5)
 490 005e 639EE602 		bne	a3,a4,.L26
 246:C:/Users/stapi/OneDrive/Desktop/GD32VW553/GD32VW55X_Wifi_BLE_SDK/GD32VW55x_RELEASE_V1.0.2/MSDK/lwip/lwip-2.1.2/src/core/ipv4\ip4_frag.c ****         /* Not the same datagram as fraghdr */
 491              		.loc 1 246 12 discriminator 1
 492 0062 83461401 		lbu	a3,17(s0)
 493 0066 03470401 		lbu	a4,16(s0)
 494 006a A206     		slli	a3,a3,8
 495 006c D98E     		or	a3,a3,a4
 496 006e 03472401 		lbu	a4,18(s0)
 497 0072 4207     		slli	a4,a4,16
 498 0074 D98E     		or	a3,a4,a3
 499 0076 03473401 		lbu	a4,19(s0)
 500 007a 6207     		slli	a4,a4,24
 501 007c 558F     		or	a4,a4,a3
 502 007e 944F     		lw	a3,24(a5)
 503 0080 639DE600 		bne	a3,a4,.L26
 246:C:/Users/stapi/OneDrive/Desktop/GD32VW553/GD32VW55X_Wifi_BLE_SDK/GD32VW55x_RELEASE_V1.0.2/MSDK/lwip/lwip-2.1.2/src/core/ipv4\ip4_frag.c ****         /* Not the same datagram as fraghdr */
 504              		.loc 1 246 12 discriminator 2
 505 0084 03475400 		lbu	a4,5(s0)
 506 0088 03484400 		lbu	a6,4(s0)
 246:C:/Users/stapi/OneDrive/Desktop/GD32VW553/GD32VW55X_Wifi_BLE_SDK/GD32VW55x_RELEASE_V1.0.2/MSDK/lwip/lwip-2.1.2/src/core/ipv4\ip4_frag.c ****         /* Not the same datagram as fraghdr */
 507              		.loc 1 246 11 discriminator 2
 508 008c 83D6C700 		lhu	a3,12(a5)
 246:C:/Users/stapi/OneDrive/Desktop/GD32VW553/GD32VW55X_Wifi_BLE_SDK/GD32VW55x_RELEASE_V1.0.2/MSDK/lwip/lwip-2.1.2/src/core/ipv4\ip4_frag.c ****         /* Not the same datagram as fraghdr */
 509              		.loc 1 246 12 discriminator 2
 510 0090 2207     		slli	a4,a4,8
 246:C:/Users/stapi/OneDrive/Desktop/GD32VW553/GD32VW55X_Wifi_BLE_SDK/GD32VW55x_RELEASE_V1.0.2/MSDK/lwip/lwip-2.1.2/src/core/ipv4\ip4_frag.c ****         /* Not the same datagram as fraghdr */
 511              		.loc 1 246 11 discriminator 2
 512 0092 33670701 		or	a4,a4,a6
 513 0096 638CE600 		beq	a3,a4,.L27
 514              	.L26:
 248:C:/Users/stapi/OneDrive/Desktop/GD32VW553/GD32VW55X_Wifi_BLE_SDK/GD32VW55x_RELEASE_V1.0.2/MSDK/lwip/lwip-2.1.2/src/core/ipv4\ip4_frag.c ****         if (oldest == NULL) {
 515              		.loc 1 248 9 is_stmt 1
 248:C:/Users/stapi/OneDrive/Desktop/GD32VW553/GD32VW55X_Wifi_BLE_SDK/GD32VW55x_RELEASE_V1.0.2/MSDK/lwip/lwip-2.1.2/src/core/ipv4\ip4_frag.c ****         if (oldest == NULL) {
 516              		.loc 1 248 24 is_stmt 0
 517 009a 0509     		addi	s2,s2,1
 518              	.LVL52:
 249:C:/Users/stapi/OneDrive/Desktop/GD32VW553/GD32VW55X_Wifi_BLE_SDK/GD32VW55x_RELEASE_V1.0.2/MSDK/lwip/lwip-2.1.2/src/core/ipv4\ip4_frag.c ****           oldest = r;
 519              		.loc 1 249 9 is_stmt 1
 249:C:/Users/stapi/OneDrive/Desktop/GD32VW553/GD32VW55X_Wifi_BLE_SDK/GD32VW55x_RELEASE_V1.0.2/MSDK/lwip/lwip-2.1.2/src/core/ipv4\ip4_frag.c ****           oldest = r;
 520              		.loc 1 249 12 is_stmt 0
 521 009c 19C5     		beq	a0,zero,.L33
 252:C:/Users/stapi/OneDrive/Desktop/GD32VW553/GD32VW55X_Wifi_BLE_SDK/GD32VW55x_RELEASE_V1.0.2/MSDK/lwip/lwip-2.1.2/src/core/ipv4\ip4_frag.c ****           /* older than the previous oldest */
 522              		.loc 1 252 16 is_stmt 1
 252:C:/Users/stapi/OneDrive/Desktop/GD32VW553/GD32VW55X_Wifi_BLE_SDK/GD32VW55x_RELEASE_V1.0.2/MSDK/lwip/lwip-2.1.2/src/core/ipv4\ip4_frag.c ****           /* older than the previous oldest */
 523              		.loc 1 252 19 is_stmt 0
 524 009e 83C6F701 		lbu	a3,31(a5)
 525 00a2 0347F501 		lbu	a4,31(a0)
 526 00a6 6364D700 		bgtu	a3,a4,.L27
 527              	.L33:
 251:C:/Users/stapi/OneDrive/Desktop/GD32VW553/GD32VW55X_Wifi_BLE_SDK/GD32VW55x_RELEASE_V1.0.2/MSDK/lwip/lwip-2.1.2/src/core/ipv4\ip4_frag.c ****         } else if (r->timer <= oldest->timer) {
 528              		.loc 1 251 23
 529 00aa B285     		mv	a1,a2
 530              	.LVL53:
 531 00ac 3E85     		mv	a0,a5
 532              	.LVL54:
 533              	.L27:
 258:C:/Users/stapi/OneDrive/Desktop/GD32VW553/GD32VW55X_Wifi_BLE_SDK/GD32VW55x_RELEASE_V1.0.2/MSDK/lwip/lwip-2.1.2/src/core/ipv4\ip4_frag.c ****         prev = r;
 534              		.loc 1 258 7 is_stmt 1
 258:C:/Users/stapi/OneDrive/Desktop/GD32VW553/GD32VW55X_Wifi_BLE_SDK/GD32VW55x_RELEASE_V1.0.2/MSDK/lwip/lwip-2.1.2/src/core/ipv4\ip4_frag.c ****         prev = r;
 535              		.loc 1 258 12 is_stmt 0
 536 00ae 9843     		lw	a4,0(a5)
 258:C:/Users/stapi/OneDrive/Desktop/GD32VW553/GD32VW55X_Wifi_BLE_SDK/GD32VW55x_RELEASE_V1.0.2/MSDK/lwip/lwip-2.1.2/src/core/ipv4\ip4_frag.c ****         prev = r;
 537              		.loc 1 258 10
 538 00b0 11C3     		beq	a4,zero,.L28
 539 00b2 3E86     		mv	a2,a5
 540              	.LVL55:
 541              	.L28:
 258:C:/Users/stapi/OneDrive/Desktop/GD32VW553/GD32VW55X_Wifi_BLE_SDK/GD32VW55x_RELEASE_V1.0.2/MSDK/lwip/lwip-2.1.2/src/core/ipv4\ip4_frag.c ****         prev = r;
 542              		.loc 1 258 12
 543 00b4 BA87     		mv	a5,a4
 544              	.LVL56:
 545 00b6 ADB7     		j	.L25
 546              		.cfi_endproc
 547              	.LFE6:
 549              		.section	.rodata.ip_frag_free_pbuf_custom_ref.str1.4,"aMS",@progbits,1
 550              		.align	2
 551              	.LC7:
 552 0000 7020213D 		.string	"p != NULL"
 552      204E554C 
 552      4C00
 553              		.section	.text.ip_frag_free_pbuf_custom_ref,"ax",@progbits
 554              		.align	1
 556              	ip_frag_free_pbuf_custom_ref:
 557              	.LFB12:
 333:C:/Users/stapi/OneDrive/Desktop/GD32VW553/GD32VW55X_Wifi_BLE_SDK/GD32VW55x_RELEASE_V1.0.2/MSDK/lwip/lwip-2.1.2/src/core/ipv4\ip4_frag.c **** 
 334:C:/Users/stapi/OneDrive/Desktop/GD32VW553/GD32VW55X_Wifi_BLE_SDK/GD32VW55x_RELEASE_V1.0.2/MSDK/lwip/lwip-2.1.2/src/core/ipv4\ip4_frag.c **** /**
 335:C:/Users/stapi/OneDrive/Desktop/GD32VW553/GD32VW55X_Wifi_BLE_SDK/GD32VW55x_RELEASE_V1.0.2/MSDK/lwip/lwip-2.1.2/src/core/ipv4\ip4_frag.c ****  * Chain a new pbuf into the pbuf list that composes the datagram.  The pbuf list
 336:C:/Users/stapi/OneDrive/Desktop/GD32VW553/GD32VW55X_Wifi_BLE_SDK/GD32VW55x_RELEASE_V1.0.2/MSDK/lwip/lwip-2.1.2/src/core/ipv4\ip4_frag.c ****  * will grow over time as  new pbufs are rx.
 337:C:/Users/stapi/OneDrive/Desktop/GD32VW553/GD32VW55X_Wifi_BLE_SDK/GD32VW55x_RELEASE_V1.0.2/MSDK/lwip/lwip-2.1.2/src/core/ipv4\ip4_frag.c ****  * Also checks that the datagram passes basic continuity checks (if the last
 338:C:/Users/stapi/OneDrive/Desktop/GD32VW553/GD32VW55X_Wifi_BLE_SDK/GD32VW55x_RELEASE_V1.0.2/MSDK/lwip/lwip-2.1.2/src/core/ipv4\ip4_frag.c ****  * fragment was received at least once).
 339:C:/Users/stapi/OneDrive/Desktop/GD32VW553/GD32VW55X_Wifi_BLE_SDK/GD32VW55x_RELEASE_V1.0.2/MSDK/lwip/lwip-2.1.2/src/core/ipv4\ip4_frag.c ****  * @param ipr points to the reassembly state
 340:C:/Users/stapi/OneDrive/Desktop/GD32VW553/GD32VW55X_Wifi_BLE_SDK/GD32VW55x_RELEASE_V1.0.2/MSDK/lwip/lwip-2.1.2/src/core/ipv4\ip4_frag.c ****  * @param new_p points to the pbuf for the current fragment
 341:C:/Users/stapi/OneDrive/Desktop/GD32VW553/GD32VW55X_Wifi_BLE_SDK/GD32VW55x_RELEASE_V1.0.2/MSDK/lwip/lwip-2.1.2/src/core/ipv4\ip4_frag.c ****  * @param is_last is 1 if this pbuf has MF==0 (ipr->flags not updated yet)
 342:C:/Users/stapi/OneDrive/Desktop/GD32VW553/GD32VW55X_Wifi_BLE_SDK/GD32VW55x_RELEASE_V1.0.2/MSDK/lwip/lwip-2.1.2/src/core/ipv4\ip4_frag.c ****  * @return see IP_REASS_VALIDATE_* defines
 343:C:/Users/stapi/OneDrive/Desktop/GD32VW553/GD32VW55X_Wifi_BLE_SDK/GD32VW55x_RELEASE_V1.0.2/MSDK/lwip/lwip-2.1.2/src/core/ipv4\ip4_frag.c ****  */
 344:C:/Users/stapi/OneDrive/Desktop/GD32VW553/GD32VW55X_Wifi_BLE_SDK/GD32VW55x_RELEASE_V1.0.2/MSDK/lwip/lwip-2.1.2/src/core/ipv4\ip4_frag.c **** static int
 345:C:/Users/stapi/OneDrive/Desktop/GD32VW553/GD32VW55X_Wifi_BLE_SDK/GD32VW55x_RELEASE_V1.0.2/MSDK/lwip/lwip-2.1.2/src/core/ipv4\ip4_frag.c **** ip_reass_chain_frag_into_datagram_and_validate(struct ip_reassdata *ipr, struct pbuf *new_p, int is
 346:C:/Users/stapi/OneDrive/Desktop/GD32VW553/GD32VW55X_Wifi_BLE_SDK/GD32VW55x_RELEASE_V1.0.2/MSDK/lwip/lwip-2.1.2/src/core/ipv4\ip4_frag.c **** {
 347:C:/Users/stapi/OneDrive/Desktop/GD32VW553/GD32VW55X_Wifi_BLE_SDK/GD32VW55x_RELEASE_V1.0.2/MSDK/lwip/lwip-2.1.2/src/core/ipv4\ip4_frag.c ****   struct ip_reass_helper *iprh, *iprh_tmp, *iprh_prev = NULL;
 348:C:/Users/stapi/OneDrive/Desktop/GD32VW553/GD32VW55X_Wifi_BLE_SDK/GD32VW55x_RELEASE_V1.0.2/MSDK/lwip/lwip-2.1.2/src/core/ipv4\ip4_frag.c ****   struct pbuf *q;
 349:C:/Users/stapi/OneDrive/Desktop/GD32VW553/GD32VW55X_Wifi_BLE_SDK/GD32VW55x_RELEASE_V1.0.2/MSDK/lwip/lwip-2.1.2/src/core/ipv4\ip4_frag.c ****   u16_t offset, len;
 350:C:/Users/stapi/OneDrive/Desktop/GD32VW553/GD32VW55X_Wifi_BLE_SDK/GD32VW55x_RELEASE_V1.0.2/MSDK/lwip/lwip-2.1.2/src/core/ipv4\ip4_frag.c ****   u8_t hlen;
 351:C:/Users/stapi/OneDrive/Desktop/GD32VW553/GD32VW55X_Wifi_BLE_SDK/GD32VW55x_RELEASE_V1.0.2/MSDK/lwip/lwip-2.1.2/src/core/ipv4\ip4_frag.c ****   struct ip_hdr *fraghdr;
 352:C:/Users/stapi/OneDrive/Desktop/GD32VW553/GD32VW55X_Wifi_BLE_SDK/GD32VW55x_RELEASE_V1.0.2/MSDK/lwip/lwip-2.1.2/src/core/ipv4\ip4_frag.c ****   int valid = 1;
 353:C:/Users/stapi/OneDrive/Desktop/GD32VW553/GD32VW55X_Wifi_BLE_SDK/GD32VW55x_RELEASE_V1.0.2/MSDK/lwip/lwip-2.1.2/src/core/ipv4\ip4_frag.c **** 
 354:C:/Users/stapi/OneDrive/Desktop/GD32VW553/GD32VW55X_Wifi_BLE_SDK/GD32VW55x_RELEASE_V1.0.2/MSDK/lwip/lwip-2.1.2/src/core/ipv4\ip4_frag.c ****   /* Extract length and fragment offset from current fragment */
 355:C:/Users/stapi/OneDrive/Desktop/GD32VW553/GD32VW55X_Wifi_BLE_SDK/GD32VW55x_RELEASE_V1.0.2/MSDK/lwip/lwip-2.1.2/src/core/ipv4\ip4_frag.c ****   fraghdr = (struct ip_hdr *)new_p->payload;
 356:C:/Users/stapi/OneDrive/Desktop/GD32VW553/GD32VW55X_Wifi_BLE_SDK/GD32VW55x_RELEASE_V1.0.2/MSDK/lwip/lwip-2.1.2/src/core/ipv4\ip4_frag.c ****   len = lwip_ntohs(IPH_LEN(fraghdr));
 357:C:/Users/stapi/OneDrive/Desktop/GD32VW553/GD32VW55X_Wifi_BLE_SDK/GD32VW55x_RELEASE_V1.0.2/MSDK/lwip/lwip-2.1.2/src/core/ipv4\ip4_frag.c ****   hlen = IPH_HL_BYTES(fraghdr);
 358:C:/Users/stapi/OneDrive/Desktop/GD32VW553/GD32VW55X_Wifi_BLE_SDK/GD32VW55x_RELEASE_V1.0.2/MSDK/lwip/lwip-2.1.2/src/core/ipv4\ip4_frag.c ****   if (hlen > len) {
 359:C:/Users/stapi/OneDrive/Desktop/GD32VW553/GD32VW55X_Wifi_BLE_SDK/GD32VW55x_RELEASE_V1.0.2/MSDK/lwip/lwip-2.1.2/src/core/ipv4\ip4_frag.c ****     /* invalid datagram */
 360:C:/Users/stapi/OneDrive/Desktop/GD32VW553/GD32VW55X_Wifi_BLE_SDK/GD32VW55x_RELEASE_V1.0.2/MSDK/lwip/lwip-2.1.2/src/core/ipv4\ip4_frag.c ****     return IP_REASS_VALIDATE_PBUF_DROPPED;
 361:C:/Users/stapi/OneDrive/Desktop/GD32VW553/GD32VW55X_Wifi_BLE_SDK/GD32VW55x_RELEASE_V1.0.2/MSDK/lwip/lwip-2.1.2/src/core/ipv4\ip4_frag.c ****   }
 362:C:/Users/stapi/OneDrive/Desktop/GD32VW553/GD32VW55X_Wifi_BLE_SDK/GD32VW55x_RELEASE_V1.0.2/MSDK/lwip/lwip-2.1.2/src/core/ipv4\ip4_frag.c ****   len = (u16_t)(len - hlen);
 363:C:/Users/stapi/OneDrive/Desktop/GD32VW553/GD32VW55X_Wifi_BLE_SDK/GD32VW55x_RELEASE_V1.0.2/MSDK/lwip/lwip-2.1.2/src/core/ipv4\ip4_frag.c ****   offset = IPH_OFFSET_BYTES(fraghdr);
 364:C:/Users/stapi/OneDrive/Desktop/GD32VW553/GD32VW55X_Wifi_BLE_SDK/GD32VW55x_RELEASE_V1.0.2/MSDK/lwip/lwip-2.1.2/src/core/ipv4\ip4_frag.c **** 
 365:C:/Users/stapi/OneDrive/Desktop/GD32VW553/GD32VW55X_Wifi_BLE_SDK/GD32VW55x_RELEASE_V1.0.2/MSDK/lwip/lwip-2.1.2/src/core/ipv4\ip4_frag.c ****   /* overwrite the fragment's ip header from the pbuf with our helper struct,
 366:C:/Users/stapi/OneDrive/Desktop/GD32VW553/GD32VW55X_Wifi_BLE_SDK/GD32VW55x_RELEASE_V1.0.2/MSDK/lwip/lwip-2.1.2/src/core/ipv4\ip4_frag.c ****    * and setup the embedded helper structure. */
 367:C:/Users/stapi/OneDrive/Desktop/GD32VW553/GD32VW55X_Wifi_BLE_SDK/GD32VW55x_RELEASE_V1.0.2/MSDK/lwip/lwip-2.1.2/src/core/ipv4\ip4_frag.c ****   /* make sure the struct ip_reass_helper fits into the IP header */
 368:C:/Users/stapi/OneDrive/Desktop/GD32VW553/GD32VW55X_Wifi_BLE_SDK/GD32VW55x_RELEASE_V1.0.2/MSDK/lwip/lwip-2.1.2/src/core/ipv4\ip4_frag.c ****   LWIP_ASSERT("sizeof(struct ip_reass_helper) <= IP_HLEN",
 369:C:/Users/stapi/OneDrive/Desktop/GD32VW553/GD32VW55X_Wifi_BLE_SDK/GD32VW55x_RELEASE_V1.0.2/MSDK/lwip/lwip-2.1.2/src/core/ipv4\ip4_frag.c ****               sizeof(struct ip_reass_helper) <= IP_HLEN);
 370:C:/Users/stapi/OneDrive/Desktop/GD32VW553/GD32VW55X_Wifi_BLE_SDK/GD32VW55x_RELEASE_V1.0.2/MSDK/lwip/lwip-2.1.2/src/core/ipv4\ip4_frag.c ****   iprh = (struct ip_reass_helper *)new_p->payload;
 371:C:/Users/stapi/OneDrive/Desktop/GD32VW553/GD32VW55X_Wifi_BLE_SDK/GD32VW55x_RELEASE_V1.0.2/MSDK/lwip/lwip-2.1.2/src/core/ipv4\ip4_frag.c ****   iprh->next_pbuf = NULL;
 372:C:/Users/stapi/OneDrive/Desktop/GD32VW553/GD32VW55X_Wifi_BLE_SDK/GD32VW55x_RELEASE_V1.0.2/MSDK/lwip/lwip-2.1.2/src/core/ipv4\ip4_frag.c ****   iprh->start = offset;
 373:C:/Users/stapi/OneDrive/Desktop/GD32VW553/GD32VW55X_Wifi_BLE_SDK/GD32VW55x_RELEASE_V1.0.2/MSDK/lwip/lwip-2.1.2/src/core/ipv4\ip4_frag.c ****   iprh->end = (u16_t)(offset + len);
 374:C:/Users/stapi/OneDrive/Desktop/GD32VW553/GD32VW55X_Wifi_BLE_SDK/GD32VW55x_RELEASE_V1.0.2/MSDK/lwip/lwip-2.1.2/src/core/ipv4\ip4_frag.c ****   if (iprh->end < offset) {
 375:C:/Users/stapi/OneDrive/Desktop/GD32VW553/GD32VW55X_Wifi_BLE_SDK/GD32VW55x_RELEASE_V1.0.2/MSDK/lwip/lwip-2.1.2/src/core/ipv4\ip4_frag.c ****     /* u16_t overflow, cannot handle this */
 376:C:/Users/stapi/OneDrive/Desktop/GD32VW553/GD32VW55X_Wifi_BLE_SDK/GD32VW55x_RELEASE_V1.0.2/MSDK/lwip/lwip-2.1.2/src/core/ipv4\ip4_frag.c ****     return IP_REASS_VALIDATE_PBUF_DROPPED;
 377:C:/Users/stapi/OneDrive/Desktop/GD32VW553/GD32VW55X_Wifi_BLE_SDK/GD32VW55x_RELEASE_V1.0.2/MSDK/lwip/lwip-2.1.2/src/core/ipv4\ip4_frag.c ****   }
 378:C:/Users/stapi/OneDrive/Desktop/GD32VW553/GD32VW55X_Wifi_BLE_SDK/GD32VW55x_RELEASE_V1.0.2/MSDK/lwip/lwip-2.1.2/src/core/ipv4\ip4_frag.c **** 
 379:C:/Users/stapi/OneDrive/Desktop/GD32VW553/GD32VW55X_Wifi_BLE_SDK/GD32VW55x_RELEASE_V1.0.2/MSDK/lwip/lwip-2.1.2/src/core/ipv4\ip4_frag.c ****   /* Iterate through until we either get to the end of the list (append),
 380:C:/Users/stapi/OneDrive/Desktop/GD32VW553/GD32VW55X_Wifi_BLE_SDK/GD32VW55x_RELEASE_V1.0.2/MSDK/lwip/lwip-2.1.2/src/core/ipv4\ip4_frag.c ****    * or we find one with a larger offset (insert). */
 381:C:/Users/stapi/OneDrive/Desktop/GD32VW553/GD32VW55X_Wifi_BLE_SDK/GD32VW55x_RELEASE_V1.0.2/MSDK/lwip/lwip-2.1.2/src/core/ipv4\ip4_frag.c ****   for (q = ipr->p; q != NULL;) {
 382:C:/Users/stapi/OneDrive/Desktop/GD32VW553/GD32VW55X_Wifi_BLE_SDK/GD32VW55x_RELEASE_V1.0.2/MSDK/lwip/lwip-2.1.2/src/core/ipv4\ip4_frag.c ****     iprh_tmp = (struct ip_reass_helper *)q->payload;
 383:C:/Users/stapi/OneDrive/Desktop/GD32VW553/GD32VW55X_Wifi_BLE_SDK/GD32VW55x_RELEASE_V1.0.2/MSDK/lwip/lwip-2.1.2/src/core/ipv4\ip4_frag.c ****     if (iprh->start < iprh_tmp->start) {
 384:C:/Users/stapi/OneDrive/Desktop/GD32VW553/GD32VW55X_Wifi_BLE_SDK/GD32VW55x_RELEASE_V1.0.2/MSDK/lwip/lwip-2.1.2/src/core/ipv4\ip4_frag.c ****       /* the new pbuf should be inserted before this */
 385:C:/Users/stapi/OneDrive/Desktop/GD32VW553/GD32VW55X_Wifi_BLE_SDK/GD32VW55x_RELEASE_V1.0.2/MSDK/lwip/lwip-2.1.2/src/core/ipv4\ip4_frag.c ****       iprh->next_pbuf = q;
 386:C:/Users/stapi/OneDrive/Desktop/GD32VW553/GD32VW55X_Wifi_BLE_SDK/GD32VW55x_RELEASE_V1.0.2/MSDK/lwip/lwip-2.1.2/src/core/ipv4\ip4_frag.c ****       if (iprh_prev != NULL) {
 387:C:/Users/stapi/OneDrive/Desktop/GD32VW553/GD32VW55X_Wifi_BLE_SDK/GD32VW55x_RELEASE_V1.0.2/MSDK/lwip/lwip-2.1.2/src/core/ipv4\ip4_frag.c ****         /* not the fragment with the lowest offset */
 388:C:/Users/stapi/OneDrive/Desktop/GD32VW553/GD32VW55X_Wifi_BLE_SDK/GD32VW55x_RELEASE_V1.0.2/MSDK/lwip/lwip-2.1.2/src/core/ipv4\ip4_frag.c **** #if IP_REASS_CHECK_OVERLAP
 389:C:/Users/stapi/OneDrive/Desktop/GD32VW553/GD32VW55X_Wifi_BLE_SDK/GD32VW55x_RELEASE_V1.0.2/MSDK/lwip/lwip-2.1.2/src/core/ipv4\ip4_frag.c ****         if ((iprh->start < iprh_prev->end) || (iprh->end > iprh_tmp->start)) {
 390:C:/Users/stapi/OneDrive/Desktop/GD32VW553/GD32VW55X_Wifi_BLE_SDK/GD32VW55x_RELEASE_V1.0.2/MSDK/lwip/lwip-2.1.2/src/core/ipv4\ip4_frag.c ****           /* fragment overlaps with previous or following, throw away */
 391:C:/Users/stapi/OneDrive/Desktop/GD32VW553/GD32VW55X_Wifi_BLE_SDK/GD32VW55x_RELEASE_V1.0.2/MSDK/lwip/lwip-2.1.2/src/core/ipv4\ip4_frag.c ****           return IP_REASS_VALIDATE_PBUF_DROPPED;
 392:C:/Users/stapi/OneDrive/Desktop/GD32VW553/GD32VW55X_Wifi_BLE_SDK/GD32VW55x_RELEASE_V1.0.2/MSDK/lwip/lwip-2.1.2/src/core/ipv4\ip4_frag.c ****         }
 393:C:/Users/stapi/OneDrive/Desktop/GD32VW553/GD32VW55X_Wifi_BLE_SDK/GD32VW55x_RELEASE_V1.0.2/MSDK/lwip/lwip-2.1.2/src/core/ipv4\ip4_frag.c **** #endif /* IP_REASS_CHECK_OVERLAP */
 394:C:/Users/stapi/OneDrive/Desktop/GD32VW553/GD32VW55X_Wifi_BLE_SDK/GD32VW55x_RELEASE_V1.0.2/MSDK/lwip/lwip-2.1.2/src/core/ipv4\ip4_frag.c ****         iprh_prev->next_pbuf = new_p;
 395:C:/Users/stapi/OneDrive/Desktop/GD32VW553/GD32VW55X_Wifi_BLE_SDK/GD32VW55x_RELEASE_V1.0.2/MSDK/lwip/lwip-2.1.2/src/core/ipv4\ip4_frag.c ****         if (iprh_prev->end != iprh->start) {
 396:C:/Users/stapi/OneDrive/Desktop/GD32VW553/GD32VW55X_Wifi_BLE_SDK/GD32VW55x_RELEASE_V1.0.2/MSDK/lwip/lwip-2.1.2/src/core/ipv4\ip4_frag.c ****           /* There is a fragment missing between the current
 397:C:/Users/stapi/OneDrive/Desktop/GD32VW553/GD32VW55X_Wifi_BLE_SDK/GD32VW55x_RELEASE_V1.0.2/MSDK/lwip/lwip-2.1.2/src/core/ipv4\ip4_frag.c ****            * and the previous fragment */
 398:C:/Users/stapi/OneDrive/Desktop/GD32VW553/GD32VW55X_Wifi_BLE_SDK/GD32VW55x_RELEASE_V1.0.2/MSDK/lwip/lwip-2.1.2/src/core/ipv4\ip4_frag.c ****           valid = 0;
 399:C:/Users/stapi/OneDrive/Desktop/GD32VW553/GD32VW55X_Wifi_BLE_SDK/GD32VW55x_RELEASE_V1.0.2/MSDK/lwip/lwip-2.1.2/src/core/ipv4\ip4_frag.c ****         }
 400:C:/Users/stapi/OneDrive/Desktop/GD32VW553/GD32VW55X_Wifi_BLE_SDK/GD32VW55x_RELEASE_V1.0.2/MSDK/lwip/lwip-2.1.2/src/core/ipv4\ip4_frag.c ****       } else {
 401:C:/Users/stapi/OneDrive/Desktop/GD32VW553/GD32VW55X_Wifi_BLE_SDK/GD32VW55x_RELEASE_V1.0.2/MSDK/lwip/lwip-2.1.2/src/core/ipv4\ip4_frag.c **** #if IP_REASS_CHECK_OVERLAP
 402:C:/Users/stapi/OneDrive/Desktop/GD32VW553/GD32VW55X_Wifi_BLE_SDK/GD32VW55x_RELEASE_V1.0.2/MSDK/lwip/lwip-2.1.2/src/core/ipv4\ip4_frag.c ****         if (iprh->end > iprh_tmp->start) {
 403:C:/Users/stapi/OneDrive/Desktop/GD32VW553/GD32VW55X_Wifi_BLE_SDK/GD32VW55x_RELEASE_V1.0.2/MSDK/lwip/lwip-2.1.2/src/core/ipv4\ip4_frag.c ****           /* fragment overlaps with following, throw away */
 404:C:/Users/stapi/OneDrive/Desktop/GD32VW553/GD32VW55X_Wifi_BLE_SDK/GD32VW55x_RELEASE_V1.0.2/MSDK/lwip/lwip-2.1.2/src/core/ipv4\ip4_frag.c ****           return IP_REASS_VALIDATE_PBUF_DROPPED;
 405:C:/Users/stapi/OneDrive/Desktop/GD32VW553/GD32VW55X_Wifi_BLE_SDK/GD32VW55x_RELEASE_V1.0.2/MSDK/lwip/lwip-2.1.2/src/core/ipv4\ip4_frag.c ****         }
 406:C:/Users/stapi/OneDrive/Desktop/GD32VW553/GD32VW55X_Wifi_BLE_SDK/GD32VW55x_RELEASE_V1.0.2/MSDK/lwip/lwip-2.1.2/src/core/ipv4\ip4_frag.c **** #endif /* IP_REASS_CHECK_OVERLAP */
 407:C:/Users/stapi/OneDrive/Desktop/GD32VW553/GD32VW55X_Wifi_BLE_SDK/GD32VW55x_RELEASE_V1.0.2/MSDK/lwip/lwip-2.1.2/src/core/ipv4\ip4_frag.c ****         /* fragment with the lowest offset */
 408:C:/Users/stapi/OneDrive/Desktop/GD32VW553/GD32VW55X_Wifi_BLE_SDK/GD32VW55x_RELEASE_V1.0.2/MSDK/lwip/lwip-2.1.2/src/core/ipv4\ip4_frag.c ****         ipr->p = new_p;
 409:C:/Users/stapi/OneDrive/Desktop/GD32VW553/GD32VW55X_Wifi_BLE_SDK/GD32VW55x_RELEASE_V1.0.2/MSDK/lwip/lwip-2.1.2/src/core/ipv4\ip4_frag.c ****       }
 410:C:/Users/stapi/OneDrive/Desktop/GD32VW553/GD32VW55X_Wifi_BLE_SDK/GD32VW55x_RELEASE_V1.0.2/MSDK/lwip/lwip-2.1.2/src/core/ipv4\ip4_frag.c ****       break;
 411:C:/Users/stapi/OneDrive/Desktop/GD32VW553/GD32VW55X_Wifi_BLE_SDK/GD32VW55x_RELEASE_V1.0.2/MSDK/lwip/lwip-2.1.2/src/core/ipv4\ip4_frag.c ****     } else if (iprh->start == iprh_tmp->start) {
 412:C:/Users/stapi/OneDrive/Desktop/GD32VW553/GD32VW55X_Wifi_BLE_SDK/GD32VW55x_RELEASE_V1.0.2/MSDK/lwip/lwip-2.1.2/src/core/ipv4\ip4_frag.c ****       /* received the same datagram twice: no need to keep the datagram */
 413:C:/Users/stapi/OneDrive/Desktop/GD32VW553/GD32VW55X_Wifi_BLE_SDK/GD32VW55x_RELEASE_V1.0.2/MSDK/lwip/lwip-2.1.2/src/core/ipv4\ip4_frag.c ****       return IP_REASS_VALIDATE_PBUF_DROPPED;
 414:C:/Users/stapi/OneDrive/Desktop/GD32VW553/GD32VW55X_Wifi_BLE_SDK/GD32VW55x_RELEASE_V1.0.2/MSDK/lwip/lwip-2.1.2/src/core/ipv4\ip4_frag.c **** #if IP_REASS_CHECK_OVERLAP
 415:C:/Users/stapi/OneDrive/Desktop/GD32VW553/GD32VW55X_Wifi_BLE_SDK/GD32VW55x_RELEASE_V1.0.2/MSDK/lwip/lwip-2.1.2/src/core/ipv4\ip4_frag.c ****     } else if (iprh->start < iprh_tmp->end) {
 416:C:/Users/stapi/OneDrive/Desktop/GD32VW553/GD32VW55X_Wifi_BLE_SDK/GD32VW55x_RELEASE_V1.0.2/MSDK/lwip/lwip-2.1.2/src/core/ipv4\ip4_frag.c ****       /* overlap: no need to keep the new datagram */
 417:C:/Users/stapi/OneDrive/Desktop/GD32VW553/GD32VW55X_Wifi_BLE_SDK/GD32VW55x_RELEASE_V1.0.2/MSDK/lwip/lwip-2.1.2/src/core/ipv4\ip4_frag.c ****       return IP_REASS_VALIDATE_PBUF_DROPPED;
 418:C:/Users/stapi/OneDrive/Desktop/GD32VW553/GD32VW55X_Wifi_BLE_SDK/GD32VW55x_RELEASE_V1.0.2/MSDK/lwip/lwip-2.1.2/src/core/ipv4\ip4_frag.c **** #endif /* IP_REASS_CHECK_OVERLAP */
 419:C:/Users/stapi/OneDrive/Desktop/GD32VW553/GD32VW55X_Wifi_BLE_SDK/GD32VW55x_RELEASE_V1.0.2/MSDK/lwip/lwip-2.1.2/src/core/ipv4\ip4_frag.c ****     } else {
 420:C:/Users/stapi/OneDrive/Desktop/GD32VW553/GD32VW55X_Wifi_BLE_SDK/GD32VW55x_RELEASE_V1.0.2/MSDK/lwip/lwip-2.1.2/src/core/ipv4\ip4_frag.c ****       /* Check if the fragments received so far have no holes. */
 421:C:/Users/stapi/OneDrive/Desktop/GD32VW553/GD32VW55X_Wifi_BLE_SDK/GD32VW55x_RELEASE_V1.0.2/MSDK/lwip/lwip-2.1.2/src/core/ipv4\ip4_frag.c ****       if (iprh_prev != NULL) {
 422:C:/Users/stapi/OneDrive/Desktop/GD32VW553/GD32VW55X_Wifi_BLE_SDK/GD32VW55x_RELEASE_V1.0.2/MSDK/lwip/lwip-2.1.2/src/core/ipv4\ip4_frag.c ****         if (iprh_prev->end != iprh_tmp->start) {
 423:C:/Users/stapi/OneDrive/Desktop/GD32VW553/GD32VW55X_Wifi_BLE_SDK/GD32VW55x_RELEASE_V1.0.2/MSDK/lwip/lwip-2.1.2/src/core/ipv4\ip4_frag.c ****           /* There is a fragment missing between the current
 424:C:/Users/stapi/OneDrive/Desktop/GD32VW553/GD32VW55X_Wifi_BLE_SDK/GD32VW55x_RELEASE_V1.0.2/MSDK/lwip/lwip-2.1.2/src/core/ipv4\ip4_frag.c ****            * and the previous fragment */
 425:C:/Users/stapi/OneDrive/Desktop/GD32VW553/GD32VW55X_Wifi_BLE_SDK/GD32VW55x_RELEASE_V1.0.2/MSDK/lwip/lwip-2.1.2/src/core/ipv4\ip4_frag.c ****           valid = 0;
 426:C:/Users/stapi/OneDrive/Desktop/GD32VW553/GD32VW55X_Wifi_BLE_SDK/GD32VW55x_RELEASE_V1.0.2/MSDK/lwip/lwip-2.1.2/src/core/ipv4\ip4_frag.c ****         }
 427:C:/Users/stapi/OneDrive/Desktop/GD32VW553/GD32VW55X_Wifi_BLE_SDK/GD32VW55x_RELEASE_V1.0.2/MSDK/lwip/lwip-2.1.2/src/core/ipv4\ip4_frag.c ****       }
 428:C:/Users/stapi/OneDrive/Desktop/GD32VW553/GD32VW55X_Wifi_BLE_SDK/GD32VW55x_RELEASE_V1.0.2/MSDK/lwip/lwip-2.1.2/src/core/ipv4\ip4_frag.c ****     }
 429:C:/Users/stapi/OneDrive/Desktop/GD32VW553/GD32VW55X_Wifi_BLE_SDK/GD32VW55x_RELEASE_V1.0.2/MSDK/lwip/lwip-2.1.2/src/core/ipv4\ip4_frag.c ****     q = iprh_tmp->next_pbuf;
 430:C:/Users/stapi/OneDrive/Desktop/GD32VW553/GD32VW55X_Wifi_BLE_SDK/GD32VW55x_RELEASE_V1.0.2/MSDK/lwip/lwip-2.1.2/src/core/ipv4\ip4_frag.c ****     iprh_prev = iprh_tmp;
 431:C:/Users/stapi/OneDrive/Desktop/GD32VW553/GD32VW55X_Wifi_BLE_SDK/GD32VW55x_RELEASE_V1.0.2/MSDK/lwip/lwip-2.1.2/src/core/ipv4\ip4_frag.c ****   }
 432:C:/Users/stapi/OneDrive/Desktop/GD32VW553/GD32VW55X_Wifi_BLE_SDK/GD32VW55x_RELEASE_V1.0.2/MSDK/lwip/lwip-2.1.2/src/core/ipv4\ip4_frag.c **** 
 433:C:/Users/stapi/OneDrive/Desktop/GD32VW553/GD32VW55X_Wifi_BLE_SDK/GD32VW55x_RELEASE_V1.0.2/MSDK/lwip/lwip-2.1.2/src/core/ipv4\ip4_frag.c ****   /* If q is NULL, then we made it to the end of the list. Determine what to do now */
 434:C:/Users/stapi/OneDrive/Desktop/GD32VW553/GD32VW55X_Wifi_BLE_SDK/GD32VW55x_RELEASE_V1.0.2/MSDK/lwip/lwip-2.1.2/src/core/ipv4\ip4_frag.c ****   if (q == NULL) {
 435:C:/Users/stapi/OneDrive/Desktop/GD32VW553/GD32VW55X_Wifi_BLE_SDK/GD32VW55x_RELEASE_V1.0.2/MSDK/lwip/lwip-2.1.2/src/core/ipv4\ip4_frag.c ****     if (iprh_prev != NULL) {
 436:C:/Users/stapi/OneDrive/Desktop/GD32VW553/GD32VW55X_Wifi_BLE_SDK/GD32VW55x_RELEASE_V1.0.2/MSDK/lwip/lwip-2.1.2/src/core/ipv4\ip4_frag.c ****       /* this is (for now), the fragment with the highest offset:
 437:C:/Users/stapi/OneDrive/Desktop/GD32VW553/GD32VW55X_Wifi_BLE_SDK/GD32VW55x_RELEASE_V1.0.2/MSDK/lwip/lwip-2.1.2/src/core/ipv4\ip4_frag.c ****        * chain it to the last fragment */
 438:C:/Users/stapi/OneDrive/Desktop/GD32VW553/GD32VW55X_Wifi_BLE_SDK/GD32VW55x_RELEASE_V1.0.2/MSDK/lwip/lwip-2.1.2/src/core/ipv4\ip4_frag.c **** #if IP_REASS_CHECK_OVERLAP
 439:C:/Users/stapi/OneDrive/Desktop/GD32VW553/GD32VW55X_Wifi_BLE_SDK/GD32VW55x_RELEASE_V1.0.2/MSDK/lwip/lwip-2.1.2/src/core/ipv4\ip4_frag.c ****       LWIP_ASSERT("check fragments don't overlap", iprh_prev->end <= iprh->start);
 440:C:/Users/stapi/OneDrive/Desktop/GD32VW553/GD32VW55X_Wifi_BLE_SDK/GD32VW55x_RELEASE_V1.0.2/MSDK/lwip/lwip-2.1.2/src/core/ipv4\ip4_frag.c **** #endif /* IP_REASS_CHECK_OVERLAP */
 441:C:/Users/stapi/OneDrive/Desktop/GD32VW553/GD32VW55X_Wifi_BLE_SDK/GD32VW55x_RELEASE_V1.0.2/MSDK/lwip/lwip-2.1.2/src/core/ipv4\ip4_frag.c ****       iprh_prev->next_pbuf = new_p;
 442:C:/Users/stapi/OneDrive/Desktop/GD32VW553/GD32VW55X_Wifi_BLE_SDK/GD32VW55x_RELEASE_V1.0.2/MSDK/lwip/lwip-2.1.2/src/core/ipv4\ip4_frag.c ****       if (iprh_prev->end != iprh->start) {
 443:C:/Users/stapi/OneDrive/Desktop/GD32VW553/GD32VW55X_Wifi_BLE_SDK/GD32VW55x_RELEASE_V1.0.2/MSDK/lwip/lwip-2.1.2/src/core/ipv4\ip4_frag.c ****         valid = 0;
 444:C:/Users/stapi/OneDrive/Desktop/GD32VW553/GD32VW55X_Wifi_BLE_SDK/GD32VW55x_RELEASE_V1.0.2/MSDK/lwip/lwip-2.1.2/src/core/ipv4\ip4_frag.c ****       }
 445:C:/Users/stapi/OneDrive/Desktop/GD32VW553/GD32VW55X_Wifi_BLE_SDK/GD32VW55x_RELEASE_V1.0.2/MSDK/lwip/lwip-2.1.2/src/core/ipv4\ip4_frag.c ****     } else {
 446:C:/Users/stapi/OneDrive/Desktop/GD32VW553/GD32VW55X_Wifi_BLE_SDK/GD32VW55x_RELEASE_V1.0.2/MSDK/lwip/lwip-2.1.2/src/core/ipv4\ip4_frag.c **** #if IP_REASS_CHECK_OVERLAP
 447:C:/Users/stapi/OneDrive/Desktop/GD32VW553/GD32VW55X_Wifi_BLE_SDK/GD32VW55x_RELEASE_V1.0.2/MSDK/lwip/lwip-2.1.2/src/core/ipv4\ip4_frag.c ****       LWIP_ASSERT("no previous fragment, this must be the first fragment!",
 448:C:/Users/stapi/OneDrive/Desktop/GD32VW553/GD32VW55X_Wifi_BLE_SDK/GD32VW55x_RELEASE_V1.0.2/MSDK/lwip/lwip-2.1.2/src/core/ipv4\ip4_frag.c ****                   ipr->p == NULL);
 449:C:/Users/stapi/OneDrive/Desktop/GD32VW553/GD32VW55X_Wifi_BLE_SDK/GD32VW55x_RELEASE_V1.0.2/MSDK/lwip/lwip-2.1.2/src/core/ipv4\ip4_frag.c **** #endif /* IP_REASS_CHECK_OVERLAP */
 450:C:/Users/stapi/OneDrive/Desktop/GD32VW553/GD32VW55X_Wifi_BLE_SDK/GD32VW55x_RELEASE_V1.0.2/MSDK/lwip/lwip-2.1.2/src/core/ipv4\ip4_frag.c ****       /* this is the first fragment we ever received for this ip datagram */
 451:C:/Users/stapi/OneDrive/Desktop/GD32VW553/GD32VW55X_Wifi_BLE_SDK/GD32VW55x_RELEASE_V1.0.2/MSDK/lwip/lwip-2.1.2/src/core/ipv4\ip4_frag.c ****       ipr->p = new_p;
 452:C:/Users/stapi/OneDrive/Desktop/GD32VW553/GD32VW55X_Wifi_BLE_SDK/GD32VW55x_RELEASE_V1.0.2/MSDK/lwip/lwip-2.1.2/src/core/ipv4\ip4_frag.c ****     }
 453:C:/Users/stapi/OneDrive/Desktop/GD32VW553/GD32VW55X_Wifi_BLE_SDK/GD32VW55x_RELEASE_V1.0.2/MSDK/lwip/lwip-2.1.2/src/core/ipv4\ip4_frag.c ****   }
 454:C:/Users/stapi/OneDrive/Desktop/GD32VW553/GD32VW55X_Wifi_BLE_SDK/GD32VW55x_RELEASE_V1.0.2/MSDK/lwip/lwip-2.1.2/src/core/ipv4\ip4_frag.c **** 
 455:C:/Users/stapi/OneDrive/Desktop/GD32VW553/GD32VW55X_Wifi_BLE_SDK/GD32VW55x_RELEASE_V1.0.2/MSDK/lwip/lwip-2.1.2/src/core/ipv4\ip4_frag.c ****   /* At this point, the validation part begins: */
 456:C:/Users/stapi/OneDrive/Desktop/GD32VW553/GD32VW55X_Wifi_BLE_SDK/GD32VW55x_RELEASE_V1.0.2/MSDK/lwip/lwip-2.1.2/src/core/ipv4\ip4_frag.c ****   /* If we already received the last fragment */
 457:C:/Users/stapi/OneDrive/Desktop/GD32VW553/GD32VW55X_Wifi_BLE_SDK/GD32VW55x_RELEASE_V1.0.2/MSDK/lwip/lwip-2.1.2/src/core/ipv4\ip4_frag.c ****   if (is_last || ((ipr->flags & IP_REASS_FLAG_LASTFRAG) != 0)) {
 458:C:/Users/stapi/OneDrive/Desktop/GD32VW553/GD32VW55X_Wifi_BLE_SDK/GD32VW55x_RELEASE_V1.0.2/MSDK/lwip/lwip-2.1.2/src/core/ipv4\ip4_frag.c ****     /* and had no holes so far */
 459:C:/Users/stapi/OneDrive/Desktop/GD32VW553/GD32VW55X_Wifi_BLE_SDK/GD32VW55x_RELEASE_V1.0.2/MSDK/lwip/lwip-2.1.2/src/core/ipv4\ip4_frag.c ****     if (valid) {
 460:C:/Users/stapi/OneDrive/Desktop/GD32VW553/GD32VW55X_Wifi_BLE_SDK/GD32VW55x_RELEASE_V1.0.2/MSDK/lwip/lwip-2.1.2/src/core/ipv4\ip4_frag.c ****       /* then check if the rest of the fragments is here */
 461:C:/Users/stapi/OneDrive/Desktop/GD32VW553/GD32VW55X_Wifi_BLE_SDK/GD32VW55x_RELEASE_V1.0.2/MSDK/lwip/lwip-2.1.2/src/core/ipv4\ip4_frag.c ****       /* Check if the queue starts with the first datagram */
 462:C:/Users/stapi/OneDrive/Desktop/GD32VW553/GD32VW55X_Wifi_BLE_SDK/GD32VW55x_RELEASE_V1.0.2/MSDK/lwip/lwip-2.1.2/src/core/ipv4\ip4_frag.c ****       if ((ipr->p == NULL) || (((struct ip_reass_helper *)ipr->p->payload)->start != 0)) {
 463:C:/Users/stapi/OneDrive/Desktop/GD32VW553/GD32VW55X_Wifi_BLE_SDK/GD32VW55x_RELEASE_V1.0.2/MSDK/lwip/lwip-2.1.2/src/core/ipv4\ip4_frag.c ****         valid = 0;
 464:C:/Users/stapi/OneDrive/Desktop/GD32VW553/GD32VW55X_Wifi_BLE_SDK/GD32VW55x_RELEASE_V1.0.2/MSDK/lwip/lwip-2.1.2/src/core/ipv4\ip4_frag.c ****       } else {
 465:C:/Users/stapi/OneDrive/Desktop/GD32VW553/GD32VW55X_Wifi_BLE_SDK/GD32VW55x_RELEASE_V1.0.2/MSDK/lwip/lwip-2.1.2/src/core/ipv4\ip4_frag.c ****         /* and check that there are no holes after this datagram */
 466:C:/Users/stapi/OneDrive/Desktop/GD32VW553/GD32VW55X_Wifi_BLE_SDK/GD32VW55x_RELEASE_V1.0.2/MSDK/lwip/lwip-2.1.2/src/core/ipv4\ip4_frag.c ****         iprh_prev = iprh;
 467:C:/Users/stapi/OneDrive/Desktop/GD32VW553/GD32VW55X_Wifi_BLE_SDK/GD32VW55x_RELEASE_V1.0.2/MSDK/lwip/lwip-2.1.2/src/core/ipv4\ip4_frag.c ****         q = iprh->next_pbuf;
 468:C:/Users/stapi/OneDrive/Desktop/GD32VW553/GD32VW55X_Wifi_BLE_SDK/GD32VW55x_RELEASE_V1.0.2/MSDK/lwip/lwip-2.1.2/src/core/ipv4\ip4_frag.c ****         while (q != NULL) {
 469:C:/Users/stapi/OneDrive/Desktop/GD32VW553/GD32VW55X_Wifi_BLE_SDK/GD32VW55x_RELEASE_V1.0.2/MSDK/lwip/lwip-2.1.2/src/core/ipv4\ip4_frag.c ****           iprh = (struct ip_reass_helper *)q->payload;
 470:C:/Users/stapi/OneDrive/Desktop/GD32VW553/GD32VW55X_Wifi_BLE_SDK/GD32VW55x_RELEASE_V1.0.2/MSDK/lwip/lwip-2.1.2/src/core/ipv4\ip4_frag.c ****           if (iprh_prev->end != iprh->start) {
 471:C:/Users/stapi/OneDrive/Desktop/GD32VW553/GD32VW55X_Wifi_BLE_SDK/GD32VW55x_RELEASE_V1.0.2/MSDK/lwip/lwip-2.1.2/src/core/ipv4\ip4_frag.c ****             valid = 0;
 472:C:/Users/stapi/OneDrive/Desktop/GD32VW553/GD32VW55X_Wifi_BLE_SDK/GD32VW55x_RELEASE_V1.0.2/MSDK/lwip/lwip-2.1.2/src/core/ipv4\ip4_frag.c ****             break;
 473:C:/Users/stapi/OneDrive/Desktop/GD32VW553/GD32VW55X_Wifi_BLE_SDK/GD32VW55x_RELEASE_V1.0.2/MSDK/lwip/lwip-2.1.2/src/core/ipv4\ip4_frag.c ****           }
 474:C:/Users/stapi/OneDrive/Desktop/GD32VW553/GD32VW55X_Wifi_BLE_SDK/GD32VW55x_RELEASE_V1.0.2/MSDK/lwip/lwip-2.1.2/src/core/ipv4\ip4_frag.c ****           iprh_prev = iprh;
 475:C:/Users/stapi/OneDrive/Desktop/GD32VW553/GD32VW55X_Wifi_BLE_SDK/GD32VW55x_RELEASE_V1.0.2/MSDK/lwip/lwip-2.1.2/src/core/ipv4\ip4_frag.c ****           q = iprh->next_pbuf;
 476:C:/Users/stapi/OneDrive/Desktop/GD32VW553/GD32VW55X_Wifi_BLE_SDK/GD32VW55x_RELEASE_V1.0.2/MSDK/lwip/lwip-2.1.2/src/core/ipv4\ip4_frag.c ****         }
 477:C:/Users/stapi/OneDrive/Desktop/GD32VW553/GD32VW55X_Wifi_BLE_SDK/GD32VW55x_RELEASE_V1.0.2/MSDK/lwip/lwip-2.1.2/src/core/ipv4\ip4_frag.c ****         /* if still valid, all fragments are received
 478:C:/Users/stapi/OneDrive/Desktop/GD32VW553/GD32VW55X_Wifi_BLE_SDK/GD32VW55x_RELEASE_V1.0.2/MSDK/lwip/lwip-2.1.2/src/core/ipv4\ip4_frag.c ****          * (because to the MF==0 already arrived */
 479:C:/Users/stapi/OneDrive/Desktop/GD32VW553/GD32VW55X_Wifi_BLE_SDK/GD32VW55x_RELEASE_V1.0.2/MSDK/lwip/lwip-2.1.2/src/core/ipv4\ip4_frag.c ****         if (valid) {
 480:C:/Users/stapi/OneDrive/Desktop/GD32VW553/GD32VW55X_Wifi_BLE_SDK/GD32VW55x_RELEASE_V1.0.2/MSDK/lwip/lwip-2.1.2/src/core/ipv4\ip4_frag.c ****           LWIP_ASSERT("sanity check", ipr->p != NULL);
 481:C:/Users/stapi/OneDrive/Desktop/GD32VW553/GD32VW55X_Wifi_BLE_SDK/GD32VW55x_RELEASE_V1.0.2/MSDK/lwip/lwip-2.1.2/src/core/ipv4\ip4_frag.c ****           LWIP_ASSERT("sanity check",
 482:C:/Users/stapi/OneDrive/Desktop/GD32VW553/GD32VW55X_Wifi_BLE_SDK/GD32VW55x_RELEASE_V1.0.2/MSDK/lwip/lwip-2.1.2/src/core/ipv4\ip4_frag.c ****                       ((struct ip_reass_helper *)ipr->p->payload) != iprh);
 483:C:/Users/stapi/OneDrive/Desktop/GD32VW553/GD32VW55X_Wifi_BLE_SDK/GD32VW55x_RELEASE_V1.0.2/MSDK/lwip/lwip-2.1.2/src/core/ipv4\ip4_frag.c ****           LWIP_ASSERT("validate_datagram:next_pbuf!=NULL",
 484:C:/Users/stapi/OneDrive/Desktop/GD32VW553/GD32VW55X_Wifi_BLE_SDK/GD32VW55x_RELEASE_V1.0.2/MSDK/lwip/lwip-2.1.2/src/core/ipv4\ip4_frag.c ****                       iprh->next_pbuf == NULL);
 485:C:/Users/stapi/OneDrive/Desktop/GD32VW553/GD32VW55X_Wifi_BLE_SDK/GD32VW55x_RELEASE_V1.0.2/MSDK/lwip/lwip-2.1.2/src/core/ipv4\ip4_frag.c ****         }
 486:C:/Users/stapi/OneDrive/Desktop/GD32VW553/GD32VW55X_Wifi_BLE_SDK/GD32VW55x_RELEASE_V1.0.2/MSDK/lwip/lwip-2.1.2/src/core/ipv4\ip4_frag.c ****       }
 487:C:/Users/stapi/OneDrive/Desktop/GD32VW553/GD32VW55X_Wifi_BLE_SDK/GD32VW55x_RELEASE_V1.0.2/MSDK/lwip/lwip-2.1.2/src/core/ipv4\ip4_frag.c ****     }
 488:C:/Users/stapi/OneDrive/Desktop/GD32VW553/GD32VW55X_Wifi_BLE_SDK/GD32VW55x_RELEASE_V1.0.2/MSDK/lwip/lwip-2.1.2/src/core/ipv4\ip4_frag.c ****     /* If valid is 0 here, there are some fragments missing in the middle
 489:C:/Users/stapi/OneDrive/Desktop/GD32VW553/GD32VW55X_Wifi_BLE_SDK/GD32VW55x_RELEASE_V1.0.2/MSDK/lwip/lwip-2.1.2/src/core/ipv4\ip4_frag.c ****      * (since MF == 0 has already arrived). Such datagrams simply time out if
 490:C:/Users/stapi/OneDrive/Desktop/GD32VW553/GD32VW55X_Wifi_BLE_SDK/GD32VW55x_RELEASE_V1.0.2/MSDK/lwip/lwip-2.1.2/src/core/ipv4\ip4_frag.c ****      * no more fragments are received... */
 491:C:/Users/stapi/OneDrive/Desktop/GD32VW553/GD32VW55X_Wifi_BLE_SDK/GD32VW55x_RELEASE_V1.0.2/MSDK/lwip/lwip-2.1.2/src/core/ipv4\ip4_frag.c ****     return valid ? IP_REASS_VALIDATE_TELEGRAM_FINISHED : IP_REASS_VALIDATE_PBUF_QUEUED;
 492:C:/Users/stapi/OneDrive/Desktop/GD32VW553/GD32VW55X_Wifi_BLE_SDK/GD32VW55x_RELEASE_V1.0.2/MSDK/lwip/lwip-2.1.2/src/core/ipv4\ip4_frag.c ****   }
 493:C:/Users/stapi/OneDrive/Desktop/GD32VW553/GD32VW55X_Wifi_BLE_SDK/GD32VW55x_RELEASE_V1.0.2/MSDK/lwip/lwip-2.1.2/src/core/ipv4\ip4_frag.c ****   /* If we come here, not all fragments were received, yet! */
 494:C:/Users/stapi/OneDrive/Desktop/GD32VW553/GD32VW55X_Wifi_BLE_SDK/GD32VW55x_RELEASE_V1.0.2/MSDK/lwip/lwip-2.1.2/src/core/ipv4\ip4_frag.c ****   return IP_REASS_VALIDATE_PBUF_QUEUED; /* not yet valid! */
 495:C:/Users/stapi/OneDrive/Desktop/GD32VW553/GD32VW55X_Wifi_BLE_SDK/GD32VW55x_RELEASE_V1.0.2/MSDK/lwip/lwip-2.1.2/src/core/ipv4\ip4_frag.c **** }
 496:C:/Users/stapi/OneDrive/Desktop/GD32VW553/GD32VW55X_Wifi_BLE_SDK/GD32VW55x_RELEASE_V1.0.2/MSDK/lwip/lwip-2.1.2/src/core/ipv4\ip4_frag.c **** 
 497:C:/Users/stapi/OneDrive/Desktop/GD32VW553/GD32VW55X_Wifi_BLE_SDK/GD32VW55x_RELEASE_V1.0.2/MSDK/lwip/lwip-2.1.2/src/core/ipv4\ip4_frag.c **** /**
 498:C:/Users/stapi/OneDrive/Desktop/GD32VW553/GD32VW55X_Wifi_BLE_SDK/GD32VW55x_RELEASE_V1.0.2/MSDK/lwip/lwip-2.1.2/src/core/ipv4\ip4_frag.c ****  * Reassembles incoming IP fragments into an IP datagram.
 499:C:/Users/stapi/OneDrive/Desktop/GD32VW553/GD32VW55X_Wifi_BLE_SDK/GD32VW55x_RELEASE_V1.0.2/MSDK/lwip/lwip-2.1.2/src/core/ipv4\ip4_frag.c ****  *
 500:C:/Users/stapi/OneDrive/Desktop/GD32VW553/GD32VW55X_Wifi_BLE_SDK/GD32VW55x_RELEASE_V1.0.2/MSDK/lwip/lwip-2.1.2/src/core/ipv4\ip4_frag.c ****  * @param p points to a pbuf chain of the fragment
 501:C:/Users/stapi/OneDrive/Desktop/GD32VW553/GD32VW55X_Wifi_BLE_SDK/GD32VW55x_RELEASE_V1.0.2/MSDK/lwip/lwip-2.1.2/src/core/ipv4\ip4_frag.c ****  * @return NULL if reassembly is incomplete, ? otherwise
 502:C:/Users/stapi/OneDrive/Desktop/GD32VW553/GD32VW55X_Wifi_BLE_SDK/GD32VW55x_RELEASE_V1.0.2/MSDK/lwip/lwip-2.1.2/src/core/ipv4\ip4_frag.c ****  */
 503:C:/Users/stapi/OneDrive/Desktop/GD32VW553/GD32VW55X_Wifi_BLE_SDK/GD32VW55x_RELEASE_V1.0.2/MSDK/lwip/lwip-2.1.2/src/core/ipv4\ip4_frag.c **** struct pbuf *
 504:C:/Users/stapi/OneDrive/Desktop/GD32VW553/GD32VW55X_Wifi_BLE_SDK/GD32VW55x_RELEASE_V1.0.2/MSDK/lwip/lwip-2.1.2/src/core/ipv4\ip4_frag.c **** ip4_reass(struct pbuf *p)
 505:C:/Users/stapi/OneDrive/Desktop/GD32VW553/GD32VW55X_Wifi_BLE_SDK/GD32VW55x_RELEASE_V1.0.2/MSDK/lwip/lwip-2.1.2/src/core/ipv4\ip4_frag.c **** {
 506:C:/Users/stapi/OneDrive/Desktop/GD32VW553/GD32VW55X_Wifi_BLE_SDK/GD32VW55x_RELEASE_V1.0.2/MSDK/lwip/lwip-2.1.2/src/core/ipv4\ip4_frag.c ****   struct pbuf *r;
 507:C:/Users/stapi/OneDrive/Desktop/GD32VW553/GD32VW55X_Wifi_BLE_SDK/GD32VW55x_RELEASE_V1.0.2/MSDK/lwip/lwip-2.1.2/src/core/ipv4\ip4_frag.c ****   struct ip_hdr *fraghdr;
 508:C:/Users/stapi/OneDrive/Desktop/GD32VW553/GD32VW55X_Wifi_BLE_SDK/GD32VW55x_RELEASE_V1.0.2/MSDK/lwip/lwip-2.1.2/src/core/ipv4\ip4_frag.c ****   struct ip_reassdata *ipr;
 509:C:/Users/stapi/OneDrive/Desktop/GD32VW553/GD32VW55X_Wifi_BLE_SDK/GD32VW55x_RELEASE_V1.0.2/MSDK/lwip/lwip-2.1.2/src/core/ipv4\ip4_frag.c ****   struct ip_reass_helper *iprh;
 510:C:/Users/stapi/OneDrive/Desktop/GD32VW553/GD32VW55X_Wifi_BLE_SDK/GD32VW55x_RELEASE_V1.0.2/MSDK/lwip/lwip-2.1.2/src/core/ipv4\ip4_frag.c ****   u16_t offset, len, clen;
 511:C:/Users/stapi/OneDrive/Desktop/GD32VW553/GD32VW55X_Wifi_BLE_SDK/GD32VW55x_RELEASE_V1.0.2/MSDK/lwip/lwip-2.1.2/src/core/ipv4\ip4_frag.c ****   u8_t hlen;
 512:C:/Users/stapi/OneDrive/Desktop/GD32VW553/GD32VW55X_Wifi_BLE_SDK/GD32VW55x_RELEASE_V1.0.2/MSDK/lwip/lwip-2.1.2/src/core/ipv4\ip4_frag.c ****   int valid;
 513:C:/Users/stapi/OneDrive/Desktop/GD32VW553/GD32VW55X_Wifi_BLE_SDK/GD32VW55x_RELEASE_V1.0.2/MSDK/lwip/lwip-2.1.2/src/core/ipv4\ip4_frag.c ****   int is_last;
 514:C:/Users/stapi/OneDrive/Desktop/GD32VW553/GD32VW55X_Wifi_BLE_SDK/GD32VW55x_RELEASE_V1.0.2/MSDK/lwip/lwip-2.1.2/src/core/ipv4\ip4_frag.c **** 
 515:C:/Users/stapi/OneDrive/Desktop/GD32VW553/GD32VW55X_Wifi_BLE_SDK/GD32VW55x_RELEASE_V1.0.2/MSDK/lwip/lwip-2.1.2/src/core/ipv4\ip4_frag.c ****   IPFRAG_STATS_INC(ip_frag.recv);
 516:C:/Users/stapi/OneDrive/Desktop/GD32VW553/GD32VW55X_Wifi_BLE_SDK/GD32VW55x_RELEASE_V1.0.2/MSDK/lwip/lwip-2.1.2/src/core/ipv4\ip4_frag.c ****   MIB2_STATS_INC(mib2.ipreasmreqds);
 517:C:/Users/stapi/OneDrive/Desktop/GD32VW553/GD32VW55X_Wifi_BLE_SDK/GD32VW55x_RELEASE_V1.0.2/MSDK/lwip/lwip-2.1.2/src/core/ipv4\ip4_frag.c **** 
 518:C:/Users/stapi/OneDrive/Desktop/GD32VW553/GD32VW55X_Wifi_BLE_SDK/GD32VW55x_RELEASE_V1.0.2/MSDK/lwip/lwip-2.1.2/src/core/ipv4\ip4_frag.c ****   fraghdr = (struct ip_hdr *)p->payload;
 519:C:/Users/stapi/OneDrive/Desktop/GD32VW553/GD32VW55X_Wifi_BLE_SDK/GD32VW55x_RELEASE_V1.0.2/MSDK/lwip/lwip-2.1.2/src/core/ipv4\ip4_frag.c **** 
 520:C:/Users/stapi/OneDrive/Desktop/GD32VW553/GD32VW55X_Wifi_BLE_SDK/GD32VW55x_RELEASE_V1.0.2/MSDK/lwip/lwip-2.1.2/src/core/ipv4\ip4_frag.c ****   if (IPH_HL_BYTES(fraghdr) != IP_HLEN) {
 521:C:/Users/stapi/OneDrive/Desktop/GD32VW553/GD32VW55X_Wifi_BLE_SDK/GD32VW55x_RELEASE_V1.0.2/MSDK/lwip/lwip-2.1.2/src/core/ipv4\ip4_frag.c ****     LWIP_DEBUGF(IP_REASS_DEBUG, ("ip4_reass: IP options currently not supported!\n"));
 522:C:/Users/stapi/OneDrive/Desktop/GD32VW553/GD32VW55X_Wifi_BLE_SDK/GD32VW55x_RELEASE_V1.0.2/MSDK/lwip/lwip-2.1.2/src/core/ipv4\ip4_frag.c ****     IPFRAG_STATS_INC(ip_frag.err);
 523:C:/Users/stapi/OneDrive/Desktop/GD32VW553/GD32VW55X_Wifi_BLE_SDK/GD32VW55x_RELEASE_V1.0.2/MSDK/lwip/lwip-2.1.2/src/core/ipv4\ip4_frag.c ****     goto nullreturn;
 524:C:/Users/stapi/OneDrive/Desktop/GD32VW553/GD32VW55X_Wifi_BLE_SDK/GD32VW55x_RELEASE_V1.0.2/MSDK/lwip/lwip-2.1.2/src/core/ipv4\ip4_frag.c ****   }
 525:C:/Users/stapi/OneDrive/Desktop/GD32VW553/GD32VW55X_Wifi_BLE_SDK/GD32VW55x_RELEASE_V1.0.2/MSDK/lwip/lwip-2.1.2/src/core/ipv4\ip4_frag.c **** 
 526:C:/Users/stapi/OneDrive/Desktop/GD32VW553/GD32VW55X_Wifi_BLE_SDK/GD32VW55x_RELEASE_V1.0.2/MSDK/lwip/lwip-2.1.2/src/core/ipv4\ip4_frag.c ****   offset = IPH_OFFSET_BYTES(fraghdr);
 527:C:/Users/stapi/OneDrive/Desktop/GD32VW553/GD32VW55X_Wifi_BLE_SDK/GD32VW55x_RELEASE_V1.0.2/MSDK/lwip/lwip-2.1.2/src/core/ipv4\ip4_frag.c ****   len = lwip_ntohs(IPH_LEN(fraghdr));
 528:C:/Users/stapi/OneDrive/Desktop/GD32VW553/GD32VW55X_Wifi_BLE_SDK/GD32VW55x_RELEASE_V1.0.2/MSDK/lwip/lwip-2.1.2/src/core/ipv4\ip4_frag.c ****   hlen = IPH_HL_BYTES(fraghdr);
 529:C:/Users/stapi/OneDrive/Desktop/GD32VW553/GD32VW55X_Wifi_BLE_SDK/GD32VW55x_RELEASE_V1.0.2/MSDK/lwip/lwip-2.1.2/src/core/ipv4\ip4_frag.c ****   if (hlen > len) {
 530:C:/Users/stapi/OneDrive/Desktop/GD32VW553/GD32VW55X_Wifi_BLE_SDK/GD32VW55x_RELEASE_V1.0.2/MSDK/lwip/lwip-2.1.2/src/core/ipv4\ip4_frag.c ****     /* invalid datagram */
 531:C:/Users/stapi/OneDrive/Desktop/GD32VW553/GD32VW55X_Wifi_BLE_SDK/GD32VW55x_RELEASE_V1.0.2/MSDK/lwip/lwip-2.1.2/src/core/ipv4\ip4_frag.c ****     goto nullreturn;
 532:C:/Users/stapi/OneDrive/Desktop/GD32VW553/GD32VW55X_Wifi_BLE_SDK/GD32VW55x_RELEASE_V1.0.2/MSDK/lwip/lwip-2.1.2/src/core/ipv4\ip4_frag.c ****   }
 533:C:/Users/stapi/OneDrive/Desktop/GD32VW553/GD32VW55X_Wifi_BLE_SDK/GD32VW55x_RELEASE_V1.0.2/MSDK/lwip/lwip-2.1.2/src/core/ipv4\ip4_frag.c ****   len = (u16_t)(len - hlen);
 534:C:/Users/stapi/OneDrive/Desktop/GD32VW553/GD32VW55X_Wifi_BLE_SDK/GD32VW55x_RELEASE_V1.0.2/MSDK/lwip/lwip-2.1.2/src/core/ipv4\ip4_frag.c **** 
 535:C:/Users/stapi/OneDrive/Desktop/GD32VW553/GD32VW55X_Wifi_BLE_SDK/GD32VW55x_RELEASE_V1.0.2/MSDK/lwip/lwip-2.1.2/src/core/ipv4\ip4_frag.c ****   /* Check if we are allowed to enqueue more datagrams. */
 536:C:/Users/stapi/OneDrive/Desktop/GD32VW553/GD32VW55X_Wifi_BLE_SDK/GD32VW55x_RELEASE_V1.0.2/MSDK/lwip/lwip-2.1.2/src/core/ipv4\ip4_frag.c ****   clen = pbuf_clen(p);
 537:C:/Users/stapi/OneDrive/Desktop/GD32VW553/GD32VW55X_Wifi_BLE_SDK/GD32VW55x_RELEASE_V1.0.2/MSDK/lwip/lwip-2.1.2/src/core/ipv4\ip4_frag.c ****   if ((ip_reass_pbufcount + clen) > IP_REASS_MAX_PBUFS) {
 538:C:/Users/stapi/OneDrive/Desktop/GD32VW553/GD32VW55X_Wifi_BLE_SDK/GD32VW55x_RELEASE_V1.0.2/MSDK/lwip/lwip-2.1.2/src/core/ipv4\ip4_frag.c **** #if IP_REASS_FREE_OLDEST
 539:C:/Users/stapi/OneDrive/Desktop/GD32VW553/GD32VW55X_Wifi_BLE_SDK/GD32VW55x_RELEASE_V1.0.2/MSDK/lwip/lwip-2.1.2/src/core/ipv4\ip4_frag.c ****     if (!ip_reass_remove_oldest_datagram(fraghdr, clen) ||
 540:C:/Users/stapi/OneDrive/Desktop/GD32VW553/GD32VW55X_Wifi_BLE_SDK/GD32VW55x_RELEASE_V1.0.2/MSDK/lwip/lwip-2.1.2/src/core/ipv4\ip4_frag.c ****         ((ip_reass_pbufcount + clen) > IP_REASS_MAX_PBUFS))
 541:C:/Users/stapi/OneDrive/Desktop/GD32VW553/GD32VW55X_Wifi_BLE_SDK/GD32VW55x_RELEASE_V1.0.2/MSDK/lwip/lwip-2.1.2/src/core/ipv4\ip4_frag.c **** #endif /* IP_REASS_FREE_OLDEST */
 542:C:/Users/stapi/OneDrive/Desktop/GD32VW553/GD32VW55X_Wifi_BLE_SDK/GD32VW55x_RELEASE_V1.0.2/MSDK/lwip/lwip-2.1.2/src/core/ipv4\ip4_frag.c ****     {
 543:C:/Users/stapi/OneDrive/Desktop/GD32VW553/GD32VW55X_Wifi_BLE_SDK/GD32VW55x_RELEASE_V1.0.2/MSDK/lwip/lwip-2.1.2/src/core/ipv4\ip4_frag.c ****       /* No datagram could be freed and still too many pbufs enqueued */
 544:C:/Users/stapi/OneDrive/Desktop/GD32VW553/GD32VW55X_Wifi_BLE_SDK/GD32VW55x_RELEASE_V1.0.2/MSDK/lwip/lwip-2.1.2/src/core/ipv4\ip4_frag.c ****       LWIP_DEBUGF(IP_REASS_DEBUG, ("ip4_reass: Overflow condition: pbufct=%d, clen=%d, MAX=%d\n",
 545:C:/Users/stapi/OneDrive/Desktop/GD32VW553/GD32VW55X_Wifi_BLE_SDK/GD32VW55x_RELEASE_V1.0.2/MSDK/lwip/lwip-2.1.2/src/core/ipv4\ip4_frag.c ****                                    ip_reass_pbufcount, clen, IP_REASS_MAX_PBUFS));
 546:C:/Users/stapi/OneDrive/Desktop/GD32VW553/GD32VW55X_Wifi_BLE_SDK/GD32VW55x_RELEASE_V1.0.2/MSDK/lwip/lwip-2.1.2/src/core/ipv4\ip4_frag.c ****       IPFRAG_STATS_INC(ip_frag.memerr);
 547:C:/Users/stapi/OneDrive/Desktop/GD32VW553/GD32VW55X_Wifi_BLE_SDK/GD32VW55x_RELEASE_V1.0.2/MSDK/lwip/lwip-2.1.2/src/core/ipv4\ip4_frag.c ****       /* @todo: send ICMP time exceeded here? */
 548:C:/Users/stapi/OneDrive/Desktop/GD32VW553/GD32VW55X_Wifi_BLE_SDK/GD32VW55x_RELEASE_V1.0.2/MSDK/lwip/lwip-2.1.2/src/core/ipv4\ip4_frag.c ****       /* drop this pbuf */
 549:C:/Users/stapi/OneDrive/Desktop/GD32VW553/GD32VW55X_Wifi_BLE_SDK/GD32VW55x_RELEASE_V1.0.2/MSDK/lwip/lwip-2.1.2/src/core/ipv4\ip4_frag.c ****       goto nullreturn;
 550:C:/Users/stapi/OneDrive/Desktop/GD32VW553/GD32VW55X_Wifi_BLE_SDK/GD32VW55x_RELEASE_V1.0.2/MSDK/lwip/lwip-2.1.2/src/core/ipv4\ip4_frag.c ****     }
 551:C:/Users/stapi/OneDrive/Desktop/GD32VW553/GD32VW55X_Wifi_BLE_SDK/GD32VW55x_RELEASE_V1.0.2/MSDK/lwip/lwip-2.1.2/src/core/ipv4\ip4_frag.c ****   }
 552:C:/Users/stapi/OneDrive/Desktop/GD32VW553/GD32VW55X_Wifi_BLE_SDK/GD32VW55x_RELEASE_V1.0.2/MSDK/lwip/lwip-2.1.2/src/core/ipv4\ip4_frag.c **** 
 553:C:/Users/stapi/OneDrive/Desktop/GD32VW553/GD32VW55X_Wifi_BLE_SDK/GD32VW55x_RELEASE_V1.0.2/MSDK/lwip/lwip-2.1.2/src/core/ipv4\ip4_frag.c ****   /* Look for the datagram the fragment belongs to in the current datagram queue,
 554:C:/Users/stapi/OneDrive/Desktop/GD32VW553/GD32VW55X_Wifi_BLE_SDK/GD32VW55x_RELEASE_V1.0.2/MSDK/lwip/lwip-2.1.2/src/core/ipv4\ip4_frag.c ****    * remembering the previous in the queue for later dequeueing. */
 555:C:/Users/stapi/OneDrive/Desktop/GD32VW553/GD32VW55X_Wifi_BLE_SDK/GD32VW55x_RELEASE_V1.0.2/MSDK/lwip/lwip-2.1.2/src/core/ipv4\ip4_frag.c ****   for (ipr = reassdatagrams; ipr != NULL; ipr = ipr->next) {
 556:C:/Users/stapi/OneDrive/Desktop/GD32VW553/GD32VW55X_Wifi_BLE_SDK/GD32VW55x_RELEASE_V1.0.2/MSDK/lwip/lwip-2.1.2/src/core/ipv4\ip4_frag.c ****     /* Check if the incoming fragment matches the one currently present
 557:C:/Users/stapi/OneDrive/Desktop/GD32VW553/GD32VW55X_Wifi_BLE_SDK/GD32VW55x_RELEASE_V1.0.2/MSDK/lwip/lwip-2.1.2/src/core/ipv4\ip4_frag.c ****        in the reassembly buffer. If so, we proceed with copying the
 558:C:/Users/stapi/OneDrive/Desktop/GD32VW553/GD32VW55X_Wifi_BLE_SDK/GD32VW55x_RELEASE_V1.0.2/MSDK/lwip/lwip-2.1.2/src/core/ipv4\ip4_frag.c ****        fragment into the buffer. */
 559:C:/Users/stapi/OneDrive/Desktop/GD32VW553/GD32VW55X_Wifi_BLE_SDK/GD32VW55x_RELEASE_V1.0.2/MSDK/lwip/lwip-2.1.2/src/core/ipv4\ip4_frag.c ****     if (IP_ADDRESSES_AND_ID_MATCH(&ipr->iphdr, fraghdr)) {
 560:C:/Users/stapi/OneDrive/Desktop/GD32VW553/GD32VW55X_Wifi_BLE_SDK/GD32VW55x_RELEASE_V1.0.2/MSDK/lwip/lwip-2.1.2/src/core/ipv4\ip4_frag.c ****       LWIP_DEBUGF(IP_REASS_DEBUG, ("ip4_reass: matching previous fragment ID=%"X16_F"\n",
 561:C:/Users/stapi/OneDrive/Desktop/GD32VW553/GD32VW55X_Wifi_BLE_SDK/GD32VW55x_RELEASE_V1.0.2/MSDK/lwip/lwip-2.1.2/src/core/ipv4\ip4_frag.c ****                                    lwip_ntohs(IPH_ID(fraghdr))));
 562:C:/Users/stapi/OneDrive/Desktop/GD32VW553/GD32VW55X_Wifi_BLE_SDK/GD32VW55x_RELEASE_V1.0.2/MSDK/lwip/lwip-2.1.2/src/core/ipv4\ip4_frag.c ****       IPFRAG_STATS_INC(ip_frag.cachehit);
 563:C:/Users/stapi/OneDrive/Desktop/GD32VW553/GD32VW55X_Wifi_BLE_SDK/GD32VW55x_RELEASE_V1.0.2/MSDK/lwip/lwip-2.1.2/src/core/ipv4\ip4_frag.c ****       break;
 564:C:/Users/stapi/OneDrive/Desktop/GD32VW553/GD32VW55X_Wifi_BLE_SDK/GD32VW55x_RELEASE_V1.0.2/MSDK/lwip/lwip-2.1.2/src/core/ipv4\ip4_frag.c ****     }
 565:C:/Users/stapi/OneDrive/Desktop/GD32VW553/GD32VW55X_Wifi_BLE_SDK/GD32VW55x_RELEASE_V1.0.2/MSDK/lwip/lwip-2.1.2/src/core/ipv4\ip4_frag.c ****   }
 566:C:/Users/stapi/OneDrive/Desktop/GD32VW553/GD32VW55X_Wifi_BLE_SDK/GD32VW55x_RELEASE_V1.0.2/MSDK/lwip/lwip-2.1.2/src/core/ipv4\ip4_frag.c **** 
 567:C:/Users/stapi/OneDrive/Desktop/GD32VW553/GD32VW55X_Wifi_BLE_SDK/GD32VW55x_RELEASE_V1.0.2/MSDK/lwip/lwip-2.1.2/src/core/ipv4\ip4_frag.c ****   if (ipr == NULL) {
 568:C:/Users/stapi/OneDrive/Desktop/GD32VW553/GD32VW55X_Wifi_BLE_SDK/GD32VW55x_RELEASE_V1.0.2/MSDK/lwip/lwip-2.1.2/src/core/ipv4\ip4_frag.c ****     /* Enqueue a new datagram into the datagram queue */
 569:C:/Users/stapi/OneDrive/Desktop/GD32VW553/GD32VW55X_Wifi_BLE_SDK/GD32VW55x_RELEASE_V1.0.2/MSDK/lwip/lwip-2.1.2/src/core/ipv4\ip4_frag.c ****     ipr = ip_reass_enqueue_new_datagram(fraghdr, clen);
 570:C:/Users/stapi/OneDrive/Desktop/GD32VW553/GD32VW55X_Wifi_BLE_SDK/GD32VW55x_RELEASE_V1.0.2/MSDK/lwip/lwip-2.1.2/src/core/ipv4\ip4_frag.c ****     /* Bail if unable to enqueue */
 571:C:/Users/stapi/OneDrive/Desktop/GD32VW553/GD32VW55X_Wifi_BLE_SDK/GD32VW55x_RELEASE_V1.0.2/MSDK/lwip/lwip-2.1.2/src/core/ipv4\ip4_frag.c ****     if (ipr == NULL) {
 572:C:/Users/stapi/OneDrive/Desktop/GD32VW553/GD32VW55X_Wifi_BLE_SDK/GD32VW55x_RELEASE_V1.0.2/MSDK/lwip/lwip-2.1.2/src/core/ipv4\ip4_frag.c ****       goto nullreturn;
 573:C:/Users/stapi/OneDrive/Desktop/GD32VW553/GD32VW55X_Wifi_BLE_SDK/GD32VW55x_RELEASE_V1.0.2/MSDK/lwip/lwip-2.1.2/src/core/ipv4\ip4_frag.c ****     }
 574:C:/Users/stapi/OneDrive/Desktop/GD32VW553/GD32VW55X_Wifi_BLE_SDK/GD32VW55x_RELEASE_V1.0.2/MSDK/lwip/lwip-2.1.2/src/core/ipv4\ip4_frag.c ****   } else {
 575:C:/Users/stapi/OneDrive/Desktop/GD32VW553/GD32VW55X_Wifi_BLE_SDK/GD32VW55x_RELEASE_V1.0.2/MSDK/lwip/lwip-2.1.2/src/core/ipv4\ip4_frag.c ****     if (((lwip_ntohs(IPH_OFFSET(fraghdr)) & IP_OFFMASK) == 0) &&
 576:C:/Users/stapi/OneDrive/Desktop/GD32VW553/GD32VW55X_Wifi_BLE_SDK/GD32VW55x_RELEASE_V1.0.2/MSDK/lwip/lwip-2.1.2/src/core/ipv4\ip4_frag.c ****         ((lwip_ntohs(IPH_OFFSET(&ipr->iphdr)) & IP_OFFMASK) != 0)) {
 577:C:/Users/stapi/OneDrive/Desktop/GD32VW553/GD32VW55X_Wifi_BLE_SDK/GD32VW55x_RELEASE_V1.0.2/MSDK/lwip/lwip-2.1.2/src/core/ipv4\ip4_frag.c ****       /* ipr->iphdr is not the header from the first fragment, but fraghdr is
 578:C:/Users/stapi/OneDrive/Desktop/GD32VW553/GD32VW55X_Wifi_BLE_SDK/GD32VW55x_RELEASE_V1.0.2/MSDK/lwip/lwip-2.1.2/src/core/ipv4\ip4_frag.c ****        * -> copy fraghdr into ipr->iphdr since we want to have the header
 579:C:/Users/stapi/OneDrive/Desktop/GD32VW553/GD32VW55X_Wifi_BLE_SDK/GD32VW55x_RELEASE_V1.0.2/MSDK/lwip/lwip-2.1.2/src/core/ipv4\ip4_frag.c ****        * of the first fragment (for ICMP time exceeded and later, for copying
 580:C:/Users/stapi/OneDrive/Desktop/GD32VW553/GD32VW55X_Wifi_BLE_SDK/GD32VW55x_RELEASE_V1.0.2/MSDK/lwip/lwip-2.1.2/src/core/ipv4\ip4_frag.c ****        * all options, if supported)*/
 581:C:/Users/stapi/OneDrive/Desktop/GD32VW553/GD32VW55X_Wifi_BLE_SDK/GD32VW55x_RELEASE_V1.0.2/MSDK/lwip/lwip-2.1.2/src/core/ipv4\ip4_frag.c ****       SMEMCPY(&ipr->iphdr, fraghdr, IP_HLEN);
 582:C:/Users/stapi/OneDrive/Desktop/GD32VW553/GD32VW55X_Wifi_BLE_SDK/GD32VW55x_RELEASE_V1.0.2/MSDK/lwip/lwip-2.1.2/src/core/ipv4\ip4_frag.c ****     }
 583:C:/Users/stapi/OneDrive/Desktop/GD32VW553/GD32VW55X_Wifi_BLE_SDK/GD32VW55x_RELEASE_V1.0.2/MSDK/lwip/lwip-2.1.2/src/core/ipv4\ip4_frag.c ****   }
 584:C:/Users/stapi/OneDrive/Desktop/GD32VW553/GD32VW55X_Wifi_BLE_SDK/GD32VW55x_RELEASE_V1.0.2/MSDK/lwip/lwip-2.1.2/src/core/ipv4\ip4_frag.c **** 
 585:C:/Users/stapi/OneDrive/Desktop/GD32VW553/GD32VW55X_Wifi_BLE_SDK/GD32VW55x_RELEASE_V1.0.2/MSDK/lwip/lwip-2.1.2/src/core/ipv4\ip4_frag.c ****   /* At this point, we have either created a new entry or pointing
 586:C:/Users/stapi/OneDrive/Desktop/GD32VW553/GD32VW55X_Wifi_BLE_SDK/GD32VW55x_RELEASE_V1.0.2/MSDK/lwip/lwip-2.1.2/src/core/ipv4\ip4_frag.c ****    * to an existing one */
 587:C:/Users/stapi/OneDrive/Desktop/GD32VW553/GD32VW55X_Wifi_BLE_SDK/GD32VW55x_RELEASE_V1.0.2/MSDK/lwip/lwip-2.1.2/src/core/ipv4\ip4_frag.c **** 
 588:C:/Users/stapi/OneDrive/Desktop/GD32VW553/GD32VW55X_Wifi_BLE_SDK/GD32VW55x_RELEASE_V1.0.2/MSDK/lwip/lwip-2.1.2/src/core/ipv4\ip4_frag.c ****   /* check for 'no more fragments', and update queue entry*/
 589:C:/Users/stapi/OneDrive/Desktop/GD32VW553/GD32VW55X_Wifi_BLE_SDK/GD32VW55x_RELEASE_V1.0.2/MSDK/lwip/lwip-2.1.2/src/core/ipv4\ip4_frag.c ****   is_last = (IPH_OFFSET(fraghdr) & PP_NTOHS(IP_MF)) == 0;
 590:C:/Users/stapi/OneDrive/Desktop/GD32VW553/GD32VW55X_Wifi_BLE_SDK/GD32VW55x_RELEASE_V1.0.2/MSDK/lwip/lwip-2.1.2/src/core/ipv4\ip4_frag.c ****   if (is_last) {
 591:C:/Users/stapi/OneDrive/Desktop/GD32VW553/GD32VW55X_Wifi_BLE_SDK/GD32VW55x_RELEASE_V1.0.2/MSDK/lwip/lwip-2.1.2/src/core/ipv4\ip4_frag.c ****     u16_t datagram_len = (u16_t)(offset + len);
 592:C:/Users/stapi/OneDrive/Desktop/GD32VW553/GD32VW55X_Wifi_BLE_SDK/GD32VW55x_RELEASE_V1.0.2/MSDK/lwip/lwip-2.1.2/src/core/ipv4\ip4_frag.c ****     if ((datagram_len < offset) || (datagram_len > (0xFFFF - IP_HLEN))) {
 593:C:/Users/stapi/OneDrive/Desktop/GD32VW553/GD32VW55X_Wifi_BLE_SDK/GD32VW55x_RELEASE_V1.0.2/MSDK/lwip/lwip-2.1.2/src/core/ipv4\ip4_frag.c ****       /* u16_t overflow, cannot handle this */
 594:C:/Users/stapi/OneDrive/Desktop/GD32VW553/GD32VW55X_Wifi_BLE_SDK/GD32VW55x_RELEASE_V1.0.2/MSDK/lwip/lwip-2.1.2/src/core/ipv4\ip4_frag.c ****       goto nullreturn_ipr;
 595:C:/Users/stapi/OneDrive/Desktop/GD32VW553/GD32VW55X_Wifi_BLE_SDK/GD32VW55x_RELEASE_V1.0.2/MSDK/lwip/lwip-2.1.2/src/core/ipv4\ip4_frag.c ****     }
 596:C:/Users/stapi/OneDrive/Desktop/GD32VW553/GD32VW55X_Wifi_BLE_SDK/GD32VW55x_RELEASE_V1.0.2/MSDK/lwip/lwip-2.1.2/src/core/ipv4\ip4_frag.c ****   }
 597:C:/Users/stapi/OneDrive/Desktop/GD32VW553/GD32VW55X_Wifi_BLE_SDK/GD32VW55x_RELEASE_V1.0.2/MSDK/lwip/lwip-2.1.2/src/core/ipv4\ip4_frag.c ****   /* find the right place to insert this pbuf */
 598:C:/Users/stapi/OneDrive/Desktop/GD32VW553/GD32VW55X_Wifi_BLE_SDK/GD32VW55x_RELEASE_V1.0.2/MSDK/lwip/lwip-2.1.2/src/core/ipv4\ip4_frag.c ****   /* @todo: trim pbufs if fragments are overlapping */
 599:C:/Users/stapi/OneDrive/Desktop/GD32VW553/GD32VW55X_Wifi_BLE_SDK/GD32VW55x_RELEASE_V1.0.2/MSDK/lwip/lwip-2.1.2/src/core/ipv4\ip4_frag.c ****   valid = ip_reass_chain_frag_into_datagram_and_validate(ipr, p, is_last);
 600:C:/Users/stapi/OneDrive/Desktop/GD32VW553/GD32VW55X_Wifi_BLE_SDK/GD32VW55x_RELEASE_V1.0.2/MSDK/lwip/lwip-2.1.2/src/core/ipv4\ip4_frag.c ****   if (valid == IP_REASS_VALIDATE_PBUF_DROPPED) {
 601:C:/Users/stapi/OneDrive/Desktop/GD32VW553/GD32VW55X_Wifi_BLE_SDK/GD32VW55x_RELEASE_V1.0.2/MSDK/lwip/lwip-2.1.2/src/core/ipv4\ip4_frag.c ****     goto nullreturn_ipr;
 602:C:/Users/stapi/OneDrive/Desktop/GD32VW553/GD32VW55X_Wifi_BLE_SDK/GD32VW55x_RELEASE_V1.0.2/MSDK/lwip/lwip-2.1.2/src/core/ipv4\ip4_frag.c ****   }
 603:C:/Users/stapi/OneDrive/Desktop/GD32VW553/GD32VW55X_Wifi_BLE_SDK/GD32VW55x_RELEASE_V1.0.2/MSDK/lwip/lwip-2.1.2/src/core/ipv4\ip4_frag.c ****   /* if we come here, the pbuf has been enqueued */
 604:C:/Users/stapi/OneDrive/Desktop/GD32VW553/GD32VW55X_Wifi_BLE_SDK/GD32VW55x_RELEASE_V1.0.2/MSDK/lwip/lwip-2.1.2/src/core/ipv4\ip4_frag.c **** 
 605:C:/Users/stapi/OneDrive/Desktop/GD32VW553/GD32VW55X_Wifi_BLE_SDK/GD32VW55x_RELEASE_V1.0.2/MSDK/lwip/lwip-2.1.2/src/core/ipv4\ip4_frag.c ****   /* Track the current number of pbufs current 'in-flight', in order to limit
 606:C:/Users/stapi/OneDrive/Desktop/GD32VW553/GD32VW55X_Wifi_BLE_SDK/GD32VW55x_RELEASE_V1.0.2/MSDK/lwip/lwip-2.1.2/src/core/ipv4\ip4_frag.c ****      the number of fragments that may be enqueued at any one time
 607:C:/Users/stapi/OneDrive/Desktop/GD32VW553/GD32VW55X_Wifi_BLE_SDK/GD32VW55x_RELEASE_V1.0.2/MSDK/lwip/lwip-2.1.2/src/core/ipv4\ip4_frag.c ****      (overflow checked by testing against IP_REASS_MAX_PBUFS) */
 608:C:/Users/stapi/OneDrive/Desktop/GD32VW553/GD32VW55X_Wifi_BLE_SDK/GD32VW55x_RELEASE_V1.0.2/MSDK/lwip/lwip-2.1.2/src/core/ipv4\ip4_frag.c ****   ip_reass_pbufcount = (u16_t)(ip_reass_pbufcount + clen);
 609:C:/Users/stapi/OneDrive/Desktop/GD32VW553/GD32VW55X_Wifi_BLE_SDK/GD32VW55x_RELEASE_V1.0.2/MSDK/lwip/lwip-2.1.2/src/core/ipv4\ip4_frag.c ****   if (is_last) {
 610:C:/Users/stapi/OneDrive/Desktop/GD32VW553/GD32VW55X_Wifi_BLE_SDK/GD32VW55x_RELEASE_V1.0.2/MSDK/lwip/lwip-2.1.2/src/core/ipv4\ip4_frag.c ****     u16_t datagram_len = (u16_t)(offset + len);
 611:C:/Users/stapi/OneDrive/Desktop/GD32VW553/GD32VW55X_Wifi_BLE_SDK/GD32VW55x_RELEASE_V1.0.2/MSDK/lwip/lwip-2.1.2/src/core/ipv4\ip4_frag.c ****     ipr->datagram_len = datagram_len;
 612:C:/Users/stapi/OneDrive/Desktop/GD32VW553/GD32VW55X_Wifi_BLE_SDK/GD32VW55x_RELEASE_V1.0.2/MSDK/lwip/lwip-2.1.2/src/core/ipv4\ip4_frag.c ****     ipr->flags |= IP_REASS_FLAG_LASTFRAG;
 613:C:/Users/stapi/OneDrive/Desktop/GD32VW553/GD32VW55X_Wifi_BLE_SDK/GD32VW55x_RELEASE_V1.0.2/MSDK/lwip/lwip-2.1.2/src/core/ipv4\ip4_frag.c ****     LWIP_DEBUGF(IP_REASS_DEBUG,
 614:C:/Users/stapi/OneDrive/Desktop/GD32VW553/GD32VW55X_Wifi_BLE_SDK/GD32VW55x_RELEASE_V1.0.2/MSDK/lwip/lwip-2.1.2/src/core/ipv4\ip4_frag.c ****                 ("ip4_reass: last fragment seen, total len %"S16_F"\n",
 615:C:/Users/stapi/OneDrive/Desktop/GD32VW553/GD32VW55X_Wifi_BLE_SDK/GD32VW55x_RELEASE_V1.0.2/MSDK/lwip/lwip-2.1.2/src/core/ipv4\ip4_frag.c ****                  ipr->datagram_len));
 616:C:/Users/stapi/OneDrive/Desktop/GD32VW553/GD32VW55X_Wifi_BLE_SDK/GD32VW55x_RELEASE_V1.0.2/MSDK/lwip/lwip-2.1.2/src/core/ipv4\ip4_frag.c ****   }
 617:C:/Users/stapi/OneDrive/Desktop/GD32VW553/GD32VW55X_Wifi_BLE_SDK/GD32VW55x_RELEASE_V1.0.2/MSDK/lwip/lwip-2.1.2/src/core/ipv4\ip4_frag.c **** 
 618:C:/Users/stapi/OneDrive/Desktop/GD32VW553/GD32VW55X_Wifi_BLE_SDK/GD32VW55x_RELEASE_V1.0.2/MSDK/lwip/lwip-2.1.2/src/core/ipv4\ip4_frag.c ****   if (valid == IP_REASS_VALIDATE_TELEGRAM_FINISHED) {
 619:C:/Users/stapi/OneDrive/Desktop/GD32VW553/GD32VW55X_Wifi_BLE_SDK/GD32VW55x_RELEASE_V1.0.2/MSDK/lwip/lwip-2.1.2/src/core/ipv4\ip4_frag.c ****     struct ip_reassdata *ipr_prev;
 620:C:/Users/stapi/OneDrive/Desktop/GD32VW553/GD32VW55X_Wifi_BLE_SDK/GD32VW55x_RELEASE_V1.0.2/MSDK/lwip/lwip-2.1.2/src/core/ipv4\ip4_frag.c ****     /* the totally last fragment (flag more fragments = 0) was received at least
 621:C:/Users/stapi/OneDrive/Desktop/GD32VW553/GD32VW55X_Wifi_BLE_SDK/GD32VW55x_RELEASE_V1.0.2/MSDK/lwip/lwip-2.1.2/src/core/ipv4\ip4_frag.c ****      * once AND all fragments are received */
 622:C:/Users/stapi/OneDrive/Desktop/GD32VW553/GD32VW55X_Wifi_BLE_SDK/GD32VW55x_RELEASE_V1.0.2/MSDK/lwip/lwip-2.1.2/src/core/ipv4\ip4_frag.c ****     u16_t datagram_len = (u16_t)(ipr->datagram_len + IP_HLEN);
 623:C:/Users/stapi/OneDrive/Desktop/GD32VW553/GD32VW55X_Wifi_BLE_SDK/GD32VW55x_RELEASE_V1.0.2/MSDK/lwip/lwip-2.1.2/src/core/ipv4\ip4_frag.c **** 
 624:C:/Users/stapi/OneDrive/Desktop/GD32VW553/GD32VW55X_Wifi_BLE_SDK/GD32VW55x_RELEASE_V1.0.2/MSDK/lwip/lwip-2.1.2/src/core/ipv4\ip4_frag.c ****     /* save the second pbuf before copying the header over the pointer */
 625:C:/Users/stapi/OneDrive/Desktop/GD32VW553/GD32VW55X_Wifi_BLE_SDK/GD32VW55x_RELEASE_V1.0.2/MSDK/lwip/lwip-2.1.2/src/core/ipv4\ip4_frag.c ****     r = ((struct ip_reass_helper *)ipr->p->payload)->next_pbuf;
 626:C:/Users/stapi/OneDrive/Desktop/GD32VW553/GD32VW55X_Wifi_BLE_SDK/GD32VW55x_RELEASE_V1.0.2/MSDK/lwip/lwip-2.1.2/src/core/ipv4\ip4_frag.c **** 
 627:C:/Users/stapi/OneDrive/Desktop/GD32VW553/GD32VW55X_Wifi_BLE_SDK/GD32VW55x_RELEASE_V1.0.2/MSDK/lwip/lwip-2.1.2/src/core/ipv4\ip4_frag.c ****     /* copy the original ip header back to the first pbuf */
 628:C:/Users/stapi/OneDrive/Desktop/GD32VW553/GD32VW55X_Wifi_BLE_SDK/GD32VW55x_RELEASE_V1.0.2/MSDK/lwip/lwip-2.1.2/src/core/ipv4\ip4_frag.c ****     fraghdr = (struct ip_hdr *)(ipr->p->payload);
 629:C:/Users/stapi/OneDrive/Desktop/GD32VW553/GD32VW55X_Wifi_BLE_SDK/GD32VW55x_RELEASE_V1.0.2/MSDK/lwip/lwip-2.1.2/src/core/ipv4\ip4_frag.c ****     SMEMCPY(fraghdr, &ipr->iphdr, IP_HLEN);
 630:C:/Users/stapi/OneDrive/Desktop/GD32VW553/GD32VW55X_Wifi_BLE_SDK/GD32VW55x_RELEASE_V1.0.2/MSDK/lwip/lwip-2.1.2/src/core/ipv4\ip4_frag.c ****     IPH_LEN_SET(fraghdr, lwip_htons(datagram_len));
 631:C:/Users/stapi/OneDrive/Desktop/GD32VW553/GD32VW55X_Wifi_BLE_SDK/GD32VW55x_RELEASE_V1.0.2/MSDK/lwip/lwip-2.1.2/src/core/ipv4\ip4_frag.c ****     IPH_OFFSET_SET(fraghdr, 0);
 632:C:/Users/stapi/OneDrive/Desktop/GD32VW553/GD32VW55X_Wifi_BLE_SDK/GD32VW55x_RELEASE_V1.0.2/MSDK/lwip/lwip-2.1.2/src/core/ipv4\ip4_frag.c ****     IPH_CHKSUM_SET(fraghdr, 0);
 633:C:/Users/stapi/OneDrive/Desktop/GD32VW553/GD32VW55X_Wifi_BLE_SDK/GD32VW55x_RELEASE_V1.0.2/MSDK/lwip/lwip-2.1.2/src/core/ipv4\ip4_frag.c ****     /* @todo: do we need to set/calculate the correct checksum? */
 634:C:/Users/stapi/OneDrive/Desktop/GD32VW553/GD32VW55X_Wifi_BLE_SDK/GD32VW55x_RELEASE_V1.0.2/MSDK/lwip/lwip-2.1.2/src/core/ipv4\ip4_frag.c **** #if CHECKSUM_GEN_IP
 635:C:/Users/stapi/OneDrive/Desktop/GD32VW553/GD32VW55X_Wifi_BLE_SDK/GD32VW55x_RELEASE_V1.0.2/MSDK/lwip/lwip-2.1.2/src/core/ipv4\ip4_frag.c ****     IF__NETIF_CHECKSUM_ENABLED(ip_current_input_netif(), NETIF_CHECKSUM_GEN_IP) {
 636:C:/Users/stapi/OneDrive/Desktop/GD32VW553/GD32VW55X_Wifi_BLE_SDK/GD32VW55x_RELEASE_V1.0.2/MSDK/lwip/lwip-2.1.2/src/core/ipv4\ip4_frag.c ****       IPH_CHKSUM_SET(fraghdr, inet_chksum(fraghdr, IP_HLEN));
 637:C:/Users/stapi/OneDrive/Desktop/GD32VW553/GD32VW55X_Wifi_BLE_SDK/GD32VW55x_RELEASE_V1.0.2/MSDK/lwip/lwip-2.1.2/src/core/ipv4\ip4_frag.c ****     }
 638:C:/Users/stapi/OneDrive/Desktop/GD32VW553/GD32VW55X_Wifi_BLE_SDK/GD32VW55x_RELEASE_V1.0.2/MSDK/lwip/lwip-2.1.2/src/core/ipv4\ip4_frag.c **** #endif /* CHECKSUM_GEN_IP */
 639:C:/Users/stapi/OneDrive/Desktop/GD32VW553/GD32VW55X_Wifi_BLE_SDK/GD32VW55x_RELEASE_V1.0.2/MSDK/lwip/lwip-2.1.2/src/core/ipv4\ip4_frag.c **** 
 640:C:/Users/stapi/OneDrive/Desktop/GD32VW553/GD32VW55X_Wifi_BLE_SDK/GD32VW55x_RELEASE_V1.0.2/MSDK/lwip/lwip-2.1.2/src/core/ipv4\ip4_frag.c ****     p = ipr->p;
 641:C:/Users/stapi/OneDrive/Desktop/GD32VW553/GD32VW55X_Wifi_BLE_SDK/GD32VW55x_RELEASE_V1.0.2/MSDK/lwip/lwip-2.1.2/src/core/ipv4\ip4_frag.c **** 
 642:C:/Users/stapi/OneDrive/Desktop/GD32VW553/GD32VW55X_Wifi_BLE_SDK/GD32VW55x_RELEASE_V1.0.2/MSDK/lwip/lwip-2.1.2/src/core/ipv4\ip4_frag.c ****     /* chain together the pbufs contained within the reass_data list. */
 643:C:/Users/stapi/OneDrive/Desktop/GD32VW553/GD32VW55X_Wifi_BLE_SDK/GD32VW55x_RELEASE_V1.0.2/MSDK/lwip/lwip-2.1.2/src/core/ipv4\ip4_frag.c ****     while (r != NULL) {
 644:C:/Users/stapi/OneDrive/Desktop/GD32VW553/GD32VW55X_Wifi_BLE_SDK/GD32VW55x_RELEASE_V1.0.2/MSDK/lwip/lwip-2.1.2/src/core/ipv4\ip4_frag.c ****       iprh = (struct ip_reass_helper *)r->payload;
 645:C:/Users/stapi/OneDrive/Desktop/GD32VW553/GD32VW55X_Wifi_BLE_SDK/GD32VW55x_RELEASE_V1.0.2/MSDK/lwip/lwip-2.1.2/src/core/ipv4\ip4_frag.c **** 
 646:C:/Users/stapi/OneDrive/Desktop/GD32VW553/GD32VW55X_Wifi_BLE_SDK/GD32VW55x_RELEASE_V1.0.2/MSDK/lwip/lwip-2.1.2/src/core/ipv4\ip4_frag.c ****       /* hide the ip header for every succeeding fragment */
 647:C:/Users/stapi/OneDrive/Desktop/GD32VW553/GD32VW55X_Wifi_BLE_SDK/GD32VW55x_RELEASE_V1.0.2/MSDK/lwip/lwip-2.1.2/src/core/ipv4\ip4_frag.c ****       pbuf_remove_header(r, IP_HLEN);
 648:C:/Users/stapi/OneDrive/Desktop/GD32VW553/GD32VW55X_Wifi_BLE_SDK/GD32VW55x_RELEASE_V1.0.2/MSDK/lwip/lwip-2.1.2/src/core/ipv4\ip4_frag.c ****       pbuf_cat(p, r);
 649:C:/Users/stapi/OneDrive/Desktop/GD32VW553/GD32VW55X_Wifi_BLE_SDK/GD32VW55x_RELEASE_V1.0.2/MSDK/lwip/lwip-2.1.2/src/core/ipv4\ip4_frag.c ****       r = iprh->next_pbuf;
 650:C:/Users/stapi/OneDrive/Desktop/GD32VW553/GD32VW55X_Wifi_BLE_SDK/GD32VW55x_RELEASE_V1.0.2/MSDK/lwip/lwip-2.1.2/src/core/ipv4\ip4_frag.c ****     }
 651:C:/Users/stapi/OneDrive/Desktop/GD32VW553/GD32VW55X_Wifi_BLE_SDK/GD32VW55x_RELEASE_V1.0.2/MSDK/lwip/lwip-2.1.2/src/core/ipv4\ip4_frag.c **** 
 652:C:/Users/stapi/OneDrive/Desktop/GD32VW553/GD32VW55X_Wifi_BLE_SDK/GD32VW55x_RELEASE_V1.0.2/MSDK/lwip/lwip-2.1.2/src/core/ipv4\ip4_frag.c ****     /* find the previous entry in the linked list */
 653:C:/Users/stapi/OneDrive/Desktop/GD32VW553/GD32VW55X_Wifi_BLE_SDK/GD32VW55x_RELEASE_V1.0.2/MSDK/lwip/lwip-2.1.2/src/core/ipv4\ip4_frag.c ****     if (ipr == reassdatagrams) {
 654:C:/Users/stapi/OneDrive/Desktop/GD32VW553/GD32VW55X_Wifi_BLE_SDK/GD32VW55x_RELEASE_V1.0.2/MSDK/lwip/lwip-2.1.2/src/core/ipv4\ip4_frag.c ****       ipr_prev = NULL;
 655:C:/Users/stapi/OneDrive/Desktop/GD32VW553/GD32VW55X_Wifi_BLE_SDK/GD32VW55x_RELEASE_V1.0.2/MSDK/lwip/lwip-2.1.2/src/core/ipv4\ip4_frag.c ****     } else {
 656:C:/Users/stapi/OneDrive/Desktop/GD32VW553/GD32VW55X_Wifi_BLE_SDK/GD32VW55x_RELEASE_V1.0.2/MSDK/lwip/lwip-2.1.2/src/core/ipv4\ip4_frag.c ****       for (ipr_prev = reassdatagrams; ipr_prev != NULL; ipr_prev = ipr_prev->next) {
 657:C:/Users/stapi/OneDrive/Desktop/GD32VW553/GD32VW55X_Wifi_BLE_SDK/GD32VW55x_RELEASE_V1.0.2/MSDK/lwip/lwip-2.1.2/src/core/ipv4\ip4_frag.c ****         if (ipr_prev->next == ipr) {
 658:C:/Users/stapi/OneDrive/Desktop/GD32VW553/GD32VW55X_Wifi_BLE_SDK/GD32VW55x_RELEASE_V1.0.2/MSDK/lwip/lwip-2.1.2/src/core/ipv4\ip4_frag.c ****           break;
 659:C:/Users/stapi/OneDrive/Desktop/GD32VW553/GD32VW55X_Wifi_BLE_SDK/GD32VW55x_RELEASE_V1.0.2/MSDK/lwip/lwip-2.1.2/src/core/ipv4\ip4_frag.c ****         }
 660:C:/Users/stapi/OneDrive/Desktop/GD32VW553/GD32VW55X_Wifi_BLE_SDK/GD32VW55x_RELEASE_V1.0.2/MSDK/lwip/lwip-2.1.2/src/core/ipv4\ip4_frag.c ****       }
 661:C:/Users/stapi/OneDrive/Desktop/GD32VW553/GD32VW55X_Wifi_BLE_SDK/GD32VW55x_RELEASE_V1.0.2/MSDK/lwip/lwip-2.1.2/src/core/ipv4\ip4_frag.c ****     }
 662:C:/Users/stapi/OneDrive/Desktop/GD32VW553/GD32VW55X_Wifi_BLE_SDK/GD32VW55x_RELEASE_V1.0.2/MSDK/lwip/lwip-2.1.2/src/core/ipv4\ip4_frag.c **** 
 663:C:/Users/stapi/OneDrive/Desktop/GD32VW553/GD32VW55X_Wifi_BLE_SDK/GD32VW55x_RELEASE_V1.0.2/MSDK/lwip/lwip-2.1.2/src/core/ipv4\ip4_frag.c ****     /* release the sources allocate for the fragment queue entry */
 664:C:/Users/stapi/OneDrive/Desktop/GD32VW553/GD32VW55X_Wifi_BLE_SDK/GD32VW55x_RELEASE_V1.0.2/MSDK/lwip/lwip-2.1.2/src/core/ipv4\ip4_frag.c ****     ip_reass_dequeue_datagram(ipr, ipr_prev);
 665:C:/Users/stapi/OneDrive/Desktop/GD32VW553/GD32VW55X_Wifi_BLE_SDK/GD32VW55x_RELEASE_V1.0.2/MSDK/lwip/lwip-2.1.2/src/core/ipv4\ip4_frag.c **** 
 666:C:/Users/stapi/OneDrive/Desktop/GD32VW553/GD32VW55X_Wifi_BLE_SDK/GD32VW55x_RELEASE_V1.0.2/MSDK/lwip/lwip-2.1.2/src/core/ipv4\ip4_frag.c ****     /* and adjust the number of pbufs currently queued for reassembly. */
 667:C:/Users/stapi/OneDrive/Desktop/GD32VW553/GD32VW55X_Wifi_BLE_SDK/GD32VW55x_RELEASE_V1.0.2/MSDK/lwip/lwip-2.1.2/src/core/ipv4\ip4_frag.c ****     clen = pbuf_clen(p);
 668:C:/Users/stapi/OneDrive/Desktop/GD32VW553/GD32VW55X_Wifi_BLE_SDK/GD32VW55x_RELEASE_V1.0.2/MSDK/lwip/lwip-2.1.2/src/core/ipv4\ip4_frag.c ****     LWIP_ASSERT("ip_reass_pbufcount >= clen", ip_reass_pbufcount >= clen);
 669:C:/Users/stapi/OneDrive/Desktop/GD32VW553/GD32VW55X_Wifi_BLE_SDK/GD32VW55x_RELEASE_V1.0.2/MSDK/lwip/lwip-2.1.2/src/core/ipv4\ip4_frag.c ****     ip_reass_pbufcount = (u16_t)(ip_reass_pbufcount - clen);
 670:C:/Users/stapi/OneDrive/Desktop/GD32VW553/GD32VW55X_Wifi_BLE_SDK/GD32VW55x_RELEASE_V1.0.2/MSDK/lwip/lwip-2.1.2/src/core/ipv4\ip4_frag.c **** 
 671:C:/Users/stapi/OneDrive/Desktop/GD32VW553/GD32VW55X_Wifi_BLE_SDK/GD32VW55x_RELEASE_V1.0.2/MSDK/lwip/lwip-2.1.2/src/core/ipv4\ip4_frag.c ****     MIB2_STATS_INC(mib2.ipreasmoks);
 672:C:/Users/stapi/OneDrive/Desktop/GD32VW553/GD32VW55X_Wifi_BLE_SDK/GD32VW55x_RELEASE_V1.0.2/MSDK/lwip/lwip-2.1.2/src/core/ipv4\ip4_frag.c **** 
 673:C:/Users/stapi/OneDrive/Desktop/GD32VW553/GD32VW55X_Wifi_BLE_SDK/GD32VW55x_RELEASE_V1.0.2/MSDK/lwip/lwip-2.1.2/src/core/ipv4\ip4_frag.c ****     /* Return the pbuf chain */
 674:C:/Users/stapi/OneDrive/Desktop/GD32VW553/GD32VW55X_Wifi_BLE_SDK/GD32VW55x_RELEASE_V1.0.2/MSDK/lwip/lwip-2.1.2/src/core/ipv4\ip4_frag.c ****     return p;
 675:C:/Users/stapi/OneDrive/Desktop/GD32VW553/GD32VW55X_Wifi_BLE_SDK/GD32VW55x_RELEASE_V1.0.2/MSDK/lwip/lwip-2.1.2/src/core/ipv4\ip4_frag.c ****   }
 676:C:/Users/stapi/OneDrive/Desktop/GD32VW553/GD32VW55X_Wifi_BLE_SDK/GD32VW55x_RELEASE_V1.0.2/MSDK/lwip/lwip-2.1.2/src/core/ipv4\ip4_frag.c ****   /* the datagram is not (yet?) reassembled completely */
 677:C:/Users/stapi/OneDrive/Desktop/GD32VW553/GD32VW55X_Wifi_BLE_SDK/GD32VW55x_RELEASE_V1.0.2/MSDK/lwip/lwip-2.1.2/src/core/ipv4\ip4_frag.c ****   LWIP_DEBUGF(IP_REASS_DEBUG, ("ip_reass_pbufcount: %d out\n", ip_reass_pbufcount));
 678:C:/Users/stapi/OneDrive/Desktop/GD32VW553/GD32VW55X_Wifi_BLE_SDK/GD32VW55x_RELEASE_V1.0.2/MSDK/lwip/lwip-2.1.2/src/core/ipv4\ip4_frag.c ****   return NULL;
 679:C:/Users/stapi/OneDrive/Desktop/GD32VW553/GD32VW55X_Wifi_BLE_SDK/GD32VW55x_RELEASE_V1.0.2/MSDK/lwip/lwip-2.1.2/src/core/ipv4\ip4_frag.c **** 
 680:C:/Users/stapi/OneDrive/Desktop/GD32VW553/GD32VW55X_Wifi_BLE_SDK/GD32VW55x_RELEASE_V1.0.2/MSDK/lwip/lwip-2.1.2/src/core/ipv4\ip4_frag.c **** nullreturn_ipr:
 681:C:/Users/stapi/OneDrive/Desktop/GD32VW553/GD32VW55X_Wifi_BLE_SDK/GD32VW55x_RELEASE_V1.0.2/MSDK/lwip/lwip-2.1.2/src/core/ipv4\ip4_frag.c ****   LWIP_ASSERT("ipr != NULL", ipr != NULL);
 682:C:/Users/stapi/OneDrive/Desktop/GD32VW553/GD32VW55X_Wifi_BLE_SDK/GD32VW55x_RELEASE_V1.0.2/MSDK/lwip/lwip-2.1.2/src/core/ipv4\ip4_frag.c ****   if (ipr->p == NULL) {
 683:C:/Users/stapi/OneDrive/Desktop/GD32VW553/GD32VW55X_Wifi_BLE_SDK/GD32VW55x_RELEASE_V1.0.2/MSDK/lwip/lwip-2.1.2/src/core/ipv4\ip4_frag.c ****     /* dropped pbuf after creating a new datagram entry: remove the entry, too */
 684:C:/Users/stapi/OneDrive/Desktop/GD32VW553/GD32VW55X_Wifi_BLE_SDK/GD32VW55x_RELEASE_V1.0.2/MSDK/lwip/lwip-2.1.2/src/core/ipv4\ip4_frag.c ****     LWIP_ASSERT("not firstalthough just enqueued", ipr == reassdatagrams);
 685:C:/Users/stapi/OneDrive/Desktop/GD32VW553/GD32VW55X_Wifi_BLE_SDK/GD32VW55x_RELEASE_V1.0.2/MSDK/lwip/lwip-2.1.2/src/core/ipv4\ip4_frag.c ****     ip_reass_dequeue_datagram(ipr, NULL);
 686:C:/Users/stapi/OneDrive/Desktop/GD32VW553/GD32VW55X_Wifi_BLE_SDK/GD32VW55x_RELEASE_V1.0.2/MSDK/lwip/lwip-2.1.2/src/core/ipv4\ip4_frag.c ****   }
 687:C:/Users/stapi/OneDrive/Desktop/GD32VW553/GD32VW55X_Wifi_BLE_SDK/GD32VW55x_RELEASE_V1.0.2/MSDK/lwip/lwip-2.1.2/src/core/ipv4\ip4_frag.c **** 
 688:C:/Users/stapi/OneDrive/Desktop/GD32VW553/GD32VW55X_Wifi_BLE_SDK/GD32VW55x_RELEASE_V1.0.2/MSDK/lwip/lwip-2.1.2/src/core/ipv4\ip4_frag.c **** nullreturn:
 689:C:/Users/stapi/OneDrive/Desktop/GD32VW553/GD32VW55X_Wifi_BLE_SDK/GD32VW55x_RELEASE_V1.0.2/MSDK/lwip/lwip-2.1.2/src/core/ipv4\ip4_frag.c ****   LWIP_DEBUGF(IP_REASS_DEBUG, ("ip4_reass: nullreturn\n"));
 690:C:/Users/stapi/OneDrive/Desktop/GD32VW553/GD32VW55X_Wifi_BLE_SDK/GD32VW55x_RELEASE_V1.0.2/MSDK/lwip/lwip-2.1.2/src/core/ipv4\ip4_frag.c ****   IPFRAG_STATS_INC(ip_frag.drop);
 691:C:/Users/stapi/OneDrive/Desktop/GD32VW553/GD32VW55X_Wifi_BLE_SDK/GD32VW55x_RELEASE_V1.0.2/MSDK/lwip/lwip-2.1.2/src/core/ipv4\ip4_frag.c ****   pbuf_free(p);
 692:C:/Users/stapi/OneDrive/Desktop/GD32VW553/GD32VW55X_Wifi_BLE_SDK/GD32VW55x_RELEASE_V1.0.2/MSDK/lwip/lwip-2.1.2/src/core/ipv4\ip4_frag.c ****   return NULL;
 693:C:/Users/stapi/OneDrive/Desktop/GD32VW553/GD32VW55X_Wifi_BLE_SDK/GD32VW55x_RELEASE_V1.0.2/MSDK/lwip/lwip-2.1.2/src/core/ipv4\ip4_frag.c **** }
 694:C:/Users/stapi/OneDrive/Desktop/GD32VW553/GD32VW55X_Wifi_BLE_SDK/GD32VW55x_RELEASE_V1.0.2/MSDK/lwip/lwip-2.1.2/src/core/ipv4\ip4_frag.c **** #endif /* IP_REASSEMBLY */
 695:C:/Users/stapi/OneDrive/Desktop/GD32VW553/GD32VW55X_Wifi_BLE_SDK/GD32VW55x_RELEASE_V1.0.2/MSDK/lwip/lwip-2.1.2/src/core/ipv4\ip4_frag.c **** 
 696:C:/Users/stapi/OneDrive/Desktop/GD32VW553/GD32VW55X_Wifi_BLE_SDK/GD32VW55x_RELEASE_V1.0.2/MSDK/lwip/lwip-2.1.2/src/core/ipv4\ip4_frag.c **** #if IP_FRAG
 697:C:/Users/stapi/OneDrive/Desktop/GD32VW553/GD32VW55X_Wifi_BLE_SDK/GD32VW55x_RELEASE_V1.0.2/MSDK/lwip/lwip-2.1.2/src/core/ipv4\ip4_frag.c **** #if !LWIP_NETIF_TX_SINGLE_PBUF
 698:C:/Users/stapi/OneDrive/Desktop/GD32VW553/GD32VW55X_Wifi_BLE_SDK/GD32VW55x_RELEASE_V1.0.2/MSDK/lwip/lwip-2.1.2/src/core/ipv4\ip4_frag.c **** /** Allocate a new struct pbuf_custom_ref */
 699:C:/Users/stapi/OneDrive/Desktop/GD32VW553/GD32VW55X_Wifi_BLE_SDK/GD32VW55x_RELEASE_V1.0.2/MSDK/lwip/lwip-2.1.2/src/core/ipv4\ip4_frag.c **** static struct pbuf_custom_ref *
 700:C:/Users/stapi/OneDrive/Desktop/GD32VW553/GD32VW55X_Wifi_BLE_SDK/GD32VW55x_RELEASE_V1.0.2/MSDK/lwip/lwip-2.1.2/src/core/ipv4\ip4_frag.c **** ip_frag_alloc_pbuf_custom_ref(void)
 701:C:/Users/stapi/OneDrive/Desktop/GD32VW553/GD32VW55X_Wifi_BLE_SDK/GD32VW55x_RELEASE_V1.0.2/MSDK/lwip/lwip-2.1.2/src/core/ipv4\ip4_frag.c **** {
 702:C:/Users/stapi/OneDrive/Desktop/GD32VW553/GD32VW55X_Wifi_BLE_SDK/GD32VW55x_RELEASE_V1.0.2/MSDK/lwip/lwip-2.1.2/src/core/ipv4\ip4_frag.c ****   return (struct pbuf_custom_ref *)memp_malloc(MEMP_FRAG_PBUF);
 703:C:/Users/stapi/OneDrive/Desktop/GD32VW553/GD32VW55X_Wifi_BLE_SDK/GD32VW55x_RELEASE_V1.0.2/MSDK/lwip/lwip-2.1.2/src/core/ipv4\ip4_frag.c **** }
 704:C:/Users/stapi/OneDrive/Desktop/GD32VW553/GD32VW55X_Wifi_BLE_SDK/GD32VW55x_RELEASE_V1.0.2/MSDK/lwip/lwip-2.1.2/src/core/ipv4\ip4_frag.c **** 
 705:C:/Users/stapi/OneDrive/Desktop/GD32VW553/GD32VW55X_Wifi_BLE_SDK/GD32VW55x_RELEASE_V1.0.2/MSDK/lwip/lwip-2.1.2/src/core/ipv4\ip4_frag.c **** /** Free a struct pbuf_custom_ref */
 706:C:/Users/stapi/OneDrive/Desktop/GD32VW553/GD32VW55X_Wifi_BLE_SDK/GD32VW55x_RELEASE_V1.0.2/MSDK/lwip/lwip-2.1.2/src/core/ipv4\ip4_frag.c **** static void
 707:C:/Users/stapi/OneDrive/Desktop/GD32VW553/GD32VW55X_Wifi_BLE_SDK/GD32VW55x_RELEASE_V1.0.2/MSDK/lwip/lwip-2.1.2/src/core/ipv4\ip4_frag.c **** ip_frag_free_pbuf_custom_ref(struct pbuf_custom_ref *p)
 708:C:/Users/stapi/OneDrive/Desktop/GD32VW553/GD32VW55X_Wifi_BLE_SDK/GD32VW55x_RELEASE_V1.0.2/MSDK/lwip/lwip-2.1.2/src/core/ipv4\ip4_frag.c **** {
 558              		.loc 1 708 1 is_stmt 1
 559              		.cfi_startproc
 560              	.LVL57:
 561 0000 17030000 		call	t0,__riscv_save_0
 561      E7020300 
 562              		.cfi_offset 1, -4
 563              		.cfi_def_cfa_offset 16
 709:C:/Users/stapi/OneDrive/Desktop/GD32VW553/GD32VW55X_Wifi_BLE_SDK/GD32VW55x_RELEASE_V1.0.2/MSDK/lwip/lwip-2.1.2/src/core/ipv4\ip4_frag.c ****   LWIP_ASSERT("p != NULL", p != NULL);
 564              		.loc 1 709 3
 565              		.loc 1 709 3
 566 0008 05E5     		bne	a0,zero,.L43
 567              	.LVL58:
 568              	.LBB16:
 569              	.LBB17:
 570              		.loc 1 709 3
 571              		.loc 1 709 3
 572 000a B7060000 		lui	a3,%hi(.LC0)
 573 000e B7050000 		lui	a1,%hi(.LC7)
 574 0012 37050000 		lui	a0,%hi(.LC2)
 575              	.LVL59:
 576 0016 93860600 		addi	a3,a3,%lo(.LC0)
 577 001a 1306502C 		li	a2,709
 578 001e 93850500 		addi	a1,a1,%lo(.LC7)
 579 0022 13050500 		addi	a0,a0,%lo(.LC2)
 580 0026 97000000 		call	printf
 580      E7800000 
 581              	.LVL60:
 582              	.L44:
 583              		.loc 1 709 3
 584              		.loc 1 709 3
 585              		.loc 1 709 3
 586 002e 01A0     		j	.L44
 587              	.LVL61:
 588              	.L43:
 589 0030 AA85     		mv	a1,a0
 590              	.LBE17:
 591              	.LBE16:
 592              		.loc 1 709 3 discriminator 2
 593              		.loc 1 709 3 discriminator 2
 710:C:/Users/stapi/OneDrive/Desktop/GD32VW553/GD32VW55X_Wifi_BLE_SDK/GD32VW55x_RELEASE_V1.0.2/MSDK/lwip/lwip-2.1.2/src/core/ipv4\ip4_frag.c ****   memp_free(MEMP_FRAG_PBUF, p);
 594              		.loc 1 710 3 discriminator 2
 595 0032 1D45     		li	a0,7
 596              	.LVL62:
 597 0034 97000000 		call	memp_free
 597      E7800000 
 598              	.LVL63:
 711:C:/Users/stapi/OneDrive/Desktop/GD32VW553/GD32VW55X_Wifi_BLE_SDK/GD32VW55x_RELEASE_V1.0.2/MSDK/lwip/lwip-2.1.2/src/core/ipv4\ip4_frag.c **** }
 599              		.loc 1 711 1 is_stmt 0 discriminator 2
 600 003c 17030000 		tail	__riscv_restore_0
 600      67000300 
 601              		.cfi_restore 1
 602              		.cfi_def_cfa_offset 0
 603              		.cfi_endproc
 604              	.LFE12:
 606              		.section	.rodata.ipfrag_free_pbuf_custom.str1.4,"aMS",@progbits,1
 607              		.align	2
 608              	.LC8:
 609 0000 70637220 		.string	"pcr != NULL"
 609      213D204E 
 609      554C4C00 
 610              		.section	.text.ipfrag_free_pbuf_custom,"ax",@progbits
 611              		.align	1
 613              	ipfrag_free_pbuf_custom:
 614              	.LFB13:
 712:C:/Users/stapi/OneDrive/Desktop/GD32VW553/GD32VW55X_Wifi_BLE_SDK/GD32VW55x_RELEASE_V1.0.2/MSDK/lwip/lwip-2.1.2/src/core/ipv4\ip4_frag.c **** 
 713:C:/Users/stapi/OneDrive/Desktop/GD32VW553/GD32VW55X_Wifi_BLE_SDK/GD32VW55x_RELEASE_V1.0.2/MSDK/lwip/lwip-2.1.2/src/core/ipv4\ip4_frag.c **** /** Free-callback function to free a 'struct pbuf_custom_ref', called by
 714:C:/Users/stapi/OneDrive/Desktop/GD32VW553/GD32VW55X_Wifi_BLE_SDK/GD32VW55x_RELEASE_V1.0.2/MSDK/lwip/lwip-2.1.2/src/core/ipv4\ip4_frag.c ****  * pbuf_free. */
 715:C:/Users/stapi/OneDrive/Desktop/GD32VW553/GD32VW55X_Wifi_BLE_SDK/GD32VW55x_RELEASE_V1.0.2/MSDK/lwip/lwip-2.1.2/src/core/ipv4\ip4_frag.c **** static void
 716:C:/Users/stapi/OneDrive/Desktop/GD32VW553/GD32VW55X_Wifi_BLE_SDK/GD32VW55x_RELEASE_V1.0.2/MSDK/lwip/lwip-2.1.2/src/core/ipv4\ip4_frag.c **** ipfrag_free_pbuf_custom(struct pbuf *p)
 717:C:/Users/stapi/OneDrive/Desktop/GD32VW553/GD32VW55X_Wifi_BLE_SDK/GD32VW55x_RELEASE_V1.0.2/MSDK/lwip/lwip-2.1.2/src/core/ipv4\ip4_frag.c **** {
 615              		.loc 1 717 1 is_stmt 1
 616              		.cfi_startproc
 617              	.LVL64:
 618 0000 17030000 		call	t0,__riscv_save_1
 618      E7020300 
 619              		.cfi_offset 8, -8
 620              		.cfi_offset 1, -4
 621              		.cfi_def_cfa_offset 16
 718:C:/Users/stapi/OneDrive/Desktop/GD32VW553/GD32VW55X_Wifi_BLE_SDK/GD32VW55x_RELEASE_V1.0.2/MSDK/lwip/lwip-2.1.2/src/core/ipv4\ip4_frag.c ****   struct pbuf_custom_ref *pcr = (struct pbuf_custom_ref *)p;
 622              		.loc 1 718 3
 623              	.LVL65:
 719:C:/Users/stapi/OneDrive/Desktop/GD32VW553/GD32VW55X_Wifi_BLE_SDK/GD32VW55x_RELEASE_V1.0.2/MSDK/lwip/lwip-2.1.2/src/core/ipv4\ip4_frag.c ****   LWIP_ASSERT("pcr != NULL", pcr != NULL);
 624              		.loc 1 719 3
 625              		.loc 1 719 3
 626 0008 05E5     		bne	a0,zero,.L47
 627              	.LVL66:
 628              	.LBB20:
 629              	.LBB21:
 630              		.loc 1 719 3
 631              		.loc 1 719 3
 632 000a B7060000 		lui	a3,%hi(.LC0)
 633 000e B7050000 		lui	a1,%hi(.LC8)
 634 0012 37050000 		lui	a0,%hi(.LC2)
 635              	.LVL67:
 636 0016 93860600 		addi	a3,a3,%lo(.LC0)
 637 001a 1306F02C 		li	a2,719
 638 001e 93850500 		addi	a1,a1,%lo(.LC8)
 639 0022 13050500 		addi	a0,a0,%lo(.LC2)
 640 0026 97000000 		call	printf
 640      E7800000 
 641              	.LVL68:
 642              	.L48:
 643              		.loc 1 719 3
 644              		.loc 1 719 3
 645              		.loc 1 719 3
 646 002e 01A0     		j	.L48
 647              	.LVL69:
 648              	.L47:
 649 0030 2A84     		mv	s0,a0
 650              	.LBE21:
 651              	.LBE20:
 652              		.loc 1 719 3 discriminator 2
 653              		.loc 1 719 3 discriminator 2
 720:C:/Users/stapi/OneDrive/Desktop/GD32VW553/GD32VW55X_Wifi_BLE_SDK/GD32VW55x_RELEASE_V1.0.2/MSDK/lwip/lwip-2.1.2/src/core/ipv4\ip4_frag.c ****   LWIP_ASSERT("pcr == p", (void *)pcr == (void *)p);
 654              		.loc 1 720 3 discriminator 2
 655              		.loc 1 720 3 discriminator 2
 656              		.loc 1 720 3 discriminator 2
 657              		.loc 1 720 3 discriminator 2
 721:C:/Users/stapi/OneDrive/Desktop/GD32VW553/GD32VW55X_Wifi_BLE_SDK/GD32VW55x_RELEASE_V1.0.2/MSDK/lwip/lwip-2.1.2/src/core/ipv4\ip4_frag.c ****   if (pcr->original != NULL) {
 658              		.loc 1 721 3 discriminator 2
 659              		.loc 1 721 10 is_stmt 0 discriminator 2
 660 0032 4849     		lw	a0,20(a0)
 661              	.LVL70:
 662              		.loc 1 721 6 discriminator 2
 663 0034 09C5     		beq	a0,zero,.L49
 722:C:/Users/stapi/OneDrive/Desktop/GD32VW553/GD32VW55X_Wifi_BLE_SDK/GD32VW55x_RELEASE_V1.0.2/MSDK/lwip/lwip-2.1.2/src/core/ipv4\ip4_frag.c ****     pbuf_free(pcr->original);
 664              		.loc 1 722 5 is_stmt 1
 665 0036 97000000 		call	pbuf_free
 665      E7800000 
 666              	.LVL71:
 667              	.L49:
 723:C:/Users/stapi/OneDrive/Desktop/GD32VW553/GD32VW55X_Wifi_BLE_SDK/GD32VW55x_RELEASE_V1.0.2/MSDK/lwip/lwip-2.1.2/src/core/ipv4\ip4_frag.c ****   }
 724:C:/Users/stapi/OneDrive/Desktop/GD32VW553/GD32VW55X_Wifi_BLE_SDK/GD32VW55x_RELEASE_V1.0.2/MSDK/lwip/lwip-2.1.2/src/core/ipv4\ip4_frag.c ****   ip_frag_free_pbuf_custom_ref(pcr);
 668              		.loc 1 724 3
 669 003e 2285     		mv	a0,s0
 670 0040 97000000 		call	ip_frag_free_pbuf_custom_ref
 670      E7800000 
 671              	.LVL72:
 725:C:/Users/stapi/OneDrive/Desktop/GD32VW553/GD32VW55X_Wifi_BLE_SDK/GD32VW55x_RELEASE_V1.0.2/MSDK/lwip/lwip-2.1.2/src/core/ipv4\ip4_frag.c **** }
 672              		.loc 1 725 1 is_stmt 0
 673 0048 17030000 		tail	__riscv_restore_1
 673      67000300 
 674              		.cfi_restore 8
 675              		.cfi_restore 1
 676              		.cfi_def_cfa_offset 0
 677              		.cfi_endproc
 678              	.LFE13:
 680              		.section	.text.ip_reass_tmr,"ax",@progbits
 681              		.align	1
 682              		.globl	ip_reass_tmr
 684              	ip_reass_tmr:
 685              	.LFB4:
 130:C:/Users/stapi/OneDrive/Desktop/GD32VW553/GD32VW55X_Wifi_BLE_SDK/GD32VW55x_RELEASE_V1.0.2/MSDK/lwip/lwip-2.1.2/src/core/ipv4\ip4_frag.c ****   struct ip_reassdata *r, *prev = NULL;
 686              		.loc 1 130 1 is_stmt 1
 687              		.cfi_startproc
 688 0000 17030000 		call	t0,__riscv_save_2
 688      E7020300 
 689              		.cfi_offset 9, -12
 690              		.cfi_offset 8, -8
 691              		.cfi_offset 1, -4
 692              		.cfi_def_cfa_offset 16
 131:C:/Users/stapi/OneDrive/Desktop/GD32VW553/GD32VW55X_Wifi_BLE_SDK/GD32VW55x_RELEASE_V1.0.2/MSDK/lwip/lwip-2.1.2/src/core/ipv4\ip4_frag.c **** 
 693              		.loc 1 131 3
 694              	.LVL73:
 133:C:/Users/stapi/OneDrive/Desktop/GD32VW553/GD32VW55X_Wifi_BLE_SDK/GD32VW55x_RELEASE_V1.0.2/MSDK/lwip/lwip-2.1.2/src/core/ipv4\ip4_frag.c ****   while (r != NULL) {
 695              		.loc 1 133 3
 133:C:/Users/stapi/OneDrive/Desktop/GD32VW553/GD32VW55X_Wifi_BLE_SDK/GD32VW55x_RELEASE_V1.0.2/MSDK/lwip/lwip-2.1.2/src/core/ipv4\ip4_frag.c ****   while (r != NULL) {
 696              		.loc 1 133 5 is_stmt 0
 697 0008 B7070000 		lui	a5,%hi(.LANCHOR0)
 698 000c 03A50700 		lw	a0,%lo(.LANCHOR0)(a5)
 699              	.LVL74:
 134:C:/Users/stapi/OneDrive/Desktop/GD32VW553/GD32VW55X_Wifi_BLE_SDK/GD32VW55x_RELEASE_V1.0.2/MSDK/lwip/lwip-2.1.2/src/core/ipv4\ip4_frag.c ****     /* Decrement the timer. Once it reaches 0,
 700              		.loc 1 134 3 is_stmt 1
 131:C:/Users/stapi/OneDrive/Desktop/GD32VW553/GD32VW55X_Wifi_BLE_SDK/GD32VW55x_RELEASE_V1.0.2/MSDK/lwip/lwip-2.1.2/src/core/ipv4\ip4_frag.c **** 
 701              		.loc 1 131 28 is_stmt 0
 702 0010 0144     		li	s0,0
 703              	.LVL75:
 704              	.L55:
 134:C:/Users/stapi/OneDrive/Desktop/GD32VW553/GD32VW55X_Wifi_BLE_SDK/GD32VW55x_RELEASE_V1.0.2/MSDK/lwip/lwip-2.1.2/src/core/ipv4\ip4_frag.c ****     /* Decrement the timer. Once it reaches 0,
 705              		.loc 1 134 9 is_stmt 1
 706 0012 09E5     		bne	a0,zero,.L58
 153:C:/Users/stapi/OneDrive/Desktop/GD32VW553/GD32VW55X_Wifi_BLE_SDK/GD32VW55x_RELEASE_V1.0.2/MSDK/lwip/lwip-2.1.2/src/core/ipv4\ip4_frag.c **** 
 707              		.loc 1 153 1 is_stmt 0
 708 0014 17030000 		tail	__riscv_restore_2
 708      67000300 
 709              		.cfi_remember_state
 710              		.cfi_restore 9
 711              		.cfi_restore 8
 712              		.cfi_restore 1
 713              		.cfi_def_cfa_offset 0
 714              	.L58:
 715              		.cfi_restore_state
 137:C:/Users/stapi/OneDrive/Desktop/GD32VW553/GD32VW55X_Wifi_BLE_SDK/GD32VW55x_RELEASE_V1.0.2/MSDK/lwip/lwip-2.1.2/src/core/ipv4\ip4_frag.c ****       r->timer--;
 716              		.loc 1 137 5 is_stmt 1
 137:C:/Users/stapi/OneDrive/Desktop/GD32VW553/GD32VW55X_Wifi_BLE_SDK/GD32VW55x_RELEASE_V1.0.2/MSDK/lwip/lwip-2.1.2/src/core/ipv4\ip4_frag.c ****       r->timer--;
 717              		.loc 1 137 10 is_stmt 0
 718 001c 8347F501 		lbu	a5,31(a0)
 141:C:/Users/stapi/OneDrive/Desktop/GD32VW553/GD32VW55X_Wifi_BLE_SDK/GD32VW55x_RELEASE_V1.0.2/MSDK/lwip/lwip-2.1.2/src/core/ipv4\ip4_frag.c ****     } else {
 719              		.loc 1 141 9
 720 0020 0441     		lw	s1,0(a0)
 137:C:/Users/stapi/OneDrive/Desktop/GD32VW553/GD32VW55X_Wifi_BLE_SDK/GD32VW55x_RELEASE_V1.0.2/MSDK/lwip/lwip-2.1.2/src/core/ipv4\ip4_frag.c ****       r->timer--;
 721              		.loc 1 137 8
 722 0022 99C7     		beq	a5,zero,.L56
 138:C:/Users/stapi/OneDrive/Desktop/GD32VW553/GD32VW55X_Wifi_BLE_SDK/GD32VW55x_RELEASE_V1.0.2/MSDK/lwip/lwip-2.1.2/src/core/ipv4\ip4_frag.c ****       LWIP_DEBUGF(IP_REASS_DEBUG, ("ip_reass_tmr: timer dec %"U16_F"\n", (u16_t)r->timer));
 723              		.loc 1 138 7 is_stmt 1
 138:C:/Users/stapi/OneDrive/Desktop/GD32VW553/GD32VW55X_Wifi_BLE_SDK/GD32VW55x_RELEASE_V1.0.2/MSDK/lwip/lwip-2.1.2/src/core/ipv4\ip4_frag.c ****       LWIP_DEBUGF(IP_REASS_DEBUG, ("ip_reass_tmr: timer dec %"U16_F"\n", (u16_t)r->timer));
 724              		.loc 1 138 15 is_stmt 0
 725 0024 FD17     		addi	a5,a5,-1
 726 0026 A30FF500 		sb	a5,31(a0)
 139:C:/Users/stapi/OneDrive/Desktop/GD32VW553/GD32VW55X_Wifi_BLE_SDK/GD32VW55x_RELEASE_V1.0.2/MSDK/lwip/lwip-2.1.2/src/core/ipv4\ip4_frag.c ****       prev = r;
 727              		.loc 1 139 91 is_stmt 1
 140:C:/Users/stapi/OneDrive/Desktop/GD32VW553/GD32VW55X_Wifi_BLE_SDK/GD32VW55x_RELEASE_V1.0.2/MSDK/lwip/lwip-2.1.2/src/core/ipv4\ip4_frag.c ****       r = r->next;
 728              		.loc 1 140 7
 729              	.LVL76:
 141:C:/Users/stapi/OneDrive/Desktop/GD32VW553/GD32VW55X_Wifi_BLE_SDK/GD32VW55x_RELEASE_V1.0.2/MSDK/lwip/lwip-2.1.2/src/core/ipv4\ip4_frag.c ****     } else {
 730              		.loc 1 141 7
 731              	.L57:
 732              	.LBB22:
 150:C:/Users/stapi/OneDrive/Desktop/GD32VW553/GD32VW55X_Wifi_BLE_SDK/GD32VW55x_RELEASE_V1.0.2/MSDK/lwip/lwip-2.1.2/src/core/ipv4\ip4_frag.c ****     }
 733              		.loc 1 150 7 is_stmt 0
 734 002a 2A84     		mv	s0,a0
 735 002c 2685     		mv	a0,s1
 736              	.LVL77:
 737 002e D5B7     		j	.L55
 738              	.LVL78:
 739              	.L56:
 144:C:/Users/stapi/OneDrive/Desktop/GD32VW553/GD32VW55X_Wifi_BLE_SDK/GD32VW55x_RELEASE_V1.0.2/MSDK/lwip/lwip-2.1.2/src/core/ipv4\ip4_frag.c ****       LWIP_DEBUGF(IP_REASS_DEBUG, ("ip_reass_tmr: timer timed out\n"));
 740              		.loc 1 144 7 is_stmt 1
 145:C:/Users/stapi/OneDrive/Desktop/GD32VW553/GD32VW55X_Wifi_BLE_SDK/GD32VW55x_RELEASE_V1.0.2/MSDK/lwip/lwip-2.1.2/src/core/ipv4\ip4_frag.c ****       tmp = r;
 741              		.loc 1 145 71
 146:C:/Users/stapi/OneDrive/Desktop/GD32VW553/GD32VW55X_Wifi_BLE_SDK/GD32VW55x_RELEASE_V1.0.2/MSDK/lwip/lwip-2.1.2/src/core/ipv4\ip4_frag.c ****       /* get the next pointer before freeing */
 742              		.loc 1 146 7
 148:C:/Users/stapi/OneDrive/Desktop/GD32VW553/GD32VW55X_Wifi_BLE_SDK/GD32VW55x_RELEASE_V1.0.2/MSDK/lwip/lwip-2.1.2/src/core/ipv4\ip4_frag.c ****       /* free the helper struct and all enqueued pbufs */
 743              		.loc 1 148 7
 150:C:/Users/stapi/OneDrive/Desktop/GD32VW553/GD32VW55X_Wifi_BLE_SDK/GD32VW55x_RELEASE_V1.0.2/MSDK/lwip/lwip-2.1.2/src/core/ipv4\ip4_frag.c ****     }
 744              		.loc 1 150 7
 745 0030 A285     		mv	a1,s0
 746 0032 97000000 		call	ip_reass_free_complete_datagram
 746      E7800000 
 747              	.LVL79:
 748 003a 2285     		mv	a0,s0
 749 003c FDB7     		j	.L57
 750              	.LBE22:
 751              		.cfi_endproc
 752              	.LFE4:
 754              		.section	.rodata.ip4_reass.str1.4,"aMS",@progbits,1
 755              		.align	2
 756              	.LC9:
 757 0000 63686563 		.string	"check fragments don't overlap"
 757      6B206672 
 757      61676D65 
 757      6E747320 
 757      646F6E27 
 758 001e 0000     		.align	2
 759              	.LC10:
 760 0020 6E6F2070 		.string	"no previous fragment, this must be the first fragment!"
 760      72657669 
 760      6F757320 
 760      66726167 
 760      6D656E74 
 761 0057 00       		.align	2
 762              	.LC11:
 763 0058 73616E69 		.string	"sanity check"
 763      74792063 
 763      6865636B 
 763      00
 764 0065 000000   		.align	2
 765              	.LC12:
 766 0068 76616C69 		.string	"validate_datagram:next_pbuf!=NULL"
 766      64617465 
 766      5F646174 
 766      61677261 
 766      6D3A6E65 
 767 008a 0000     		.align	2
 768              	.LC13:
 769 008c 69705F72 		.string	"ip_reass_pbufcount >= clen"
 769      65617373 
 769      5F706275 
 769      66636F75 
 769      6E74203E 
 770 00a7 00       		.align	2
 771              	.LC14:
 772 00a8 6E6F7420 		.string	"not firstalthough just enqueued"
 772      66697273 
 772      74616C74 
 772      686F7567 
 772      68206A75 
 773              		.section	.text.ip4_reass,"ax",@progbits
 774              		.align	1
 775              		.globl	ip4_reass
 777              	ip4_reass:
 778              	.LFB10:
 505:C:/Users/stapi/OneDrive/Desktop/GD32VW553/GD32VW55X_Wifi_BLE_SDK/GD32VW55x_RELEASE_V1.0.2/MSDK/lwip/lwip-2.1.2/src/core/ipv4\ip4_frag.c ****   struct pbuf *r;
 779              		.loc 1 505 1
 780              		.cfi_startproc
 781              	.LVL80:
 782 0000 17030000 		call	t0,__riscv_save_10
 782      E7020300 
 783              		.cfi_offset 25, -44
 784              		.cfi_offset 24, -40
 785              		.cfi_offset 23, -36
 786              		.cfi_offset 22, -32
 787              		.cfi_offset 21, -28
 788              		.cfi_offset 20, -24
 789              		.cfi_offset 19, -20
 790              		.cfi_offset 18, -16
 791              		.cfi_offset 9, -12
 792              		.cfi_offset 8, -8
 793              		.cfi_offset 1, -4
 794              		.cfi_def_cfa_offset 48
 506:C:/Users/stapi/OneDrive/Desktop/GD32VW553/GD32VW55X_Wifi_BLE_SDK/GD32VW55x_RELEASE_V1.0.2/MSDK/lwip/lwip-2.1.2/src/core/ipv4\ip4_frag.c ****   struct ip_hdr *fraghdr;
 795              		.loc 1 506 3
 507:C:/Users/stapi/OneDrive/Desktop/GD32VW553/GD32VW55X_Wifi_BLE_SDK/GD32VW55x_RELEASE_V1.0.2/MSDK/lwip/lwip-2.1.2/src/core/ipv4\ip4_frag.c ****   struct ip_reassdata *ipr;
 796              		.loc 1 507 3
 508:C:/Users/stapi/OneDrive/Desktop/GD32VW553/GD32VW55X_Wifi_BLE_SDK/GD32VW55x_RELEASE_V1.0.2/MSDK/lwip/lwip-2.1.2/src/core/ipv4\ip4_frag.c ****   struct ip_reass_helper *iprh;
 797              		.loc 1 508 3
 509:C:/Users/stapi/OneDrive/Desktop/GD32VW553/GD32VW55X_Wifi_BLE_SDK/GD32VW55x_RELEASE_V1.0.2/MSDK/lwip/lwip-2.1.2/src/core/ipv4\ip4_frag.c ****   u16_t offset, len, clen;
 798              		.loc 1 509 3
 510:C:/Users/stapi/OneDrive/Desktop/GD32VW553/GD32VW55X_Wifi_BLE_SDK/GD32VW55x_RELEASE_V1.0.2/MSDK/lwip/lwip-2.1.2/src/core/ipv4\ip4_frag.c ****   u8_t hlen;
 799              		.loc 1 510 3
 511:C:/Users/stapi/OneDrive/Desktop/GD32VW553/GD32VW55X_Wifi_BLE_SDK/GD32VW55x_RELEASE_V1.0.2/MSDK/lwip/lwip-2.1.2/src/core/ipv4\ip4_frag.c ****   int valid;
 800              		.loc 1 511 3
 512:C:/Users/stapi/OneDrive/Desktop/GD32VW553/GD32VW55X_Wifi_BLE_SDK/GD32VW55x_RELEASE_V1.0.2/MSDK/lwip/lwip-2.1.2/src/core/ipv4\ip4_frag.c ****   int is_last;
 801              		.loc 1 512 3
 513:C:/Users/stapi/OneDrive/Desktop/GD32VW553/GD32VW55X_Wifi_BLE_SDK/GD32VW55x_RELEASE_V1.0.2/MSDK/lwip/lwip-2.1.2/src/core/ipv4\ip4_frag.c **** 
 802              		.loc 1 513 3
 515:C:/Users/stapi/OneDrive/Desktop/GD32VW553/GD32VW55X_Wifi_BLE_SDK/GD32VW55x_RELEASE_V1.0.2/MSDK/lwip/lwip-2.1.2/src/core/ipv4\ip4_frag.c ****   MIB2_STATS_INC(mib2.ipreasmreqds);
 803              		.loc 1 515 33
 516:C:/Users/stapi/OneDrive/Desktop/GD32VW553/GD32VW55X_Wifi_BLE_SDK/GD32VW55x_RELEASE_V1.0.2/MSDK/lwip/lwip-2.1.2/src/core/ipv4\ip4_frag.c **** 
 804              		.loc 1 516 36
 518:C:/Users/stapi/OneDrive/Desktop/GD32VW553/GD32VW55X_Wifi_BLE_SDK/GD32VW55x_RELEASE_V1.0.2/MSDK/lwip/lwip-2.1.2/src/core/ipv4\ip4_frag.c **** 
 805              		.loc 1 518 3
 518:C:/Users/stapi/OneDrive/Desktop/GD32VW553/GD32VW55X_Wifi_BLE_SDK/GD32VW55x_RELEASE_V1.0.2/MSDK/lwip/lwip-2.1.2/src/core/ipv4\ip4_frag.c **** 
 806              		.loc 1 518 11 is_stmt 0
 807 0008 4441     		lw	s1,4(a0)
 808              	.LVL81:
 520:C:/Users/stapi/OneDrive/Desktop/GD32VW553/GD32VW55X_Wifi_BLE_SDK/GD32VW55x_RELEASE_V1.0.2/MSDK/lwip/lwip-2.1.2/src/core/ipv4\ip4_frag.c ****     LWIP_DEBUGF(IP_REASS_DEBUG, ("ip4_reass: IP options currently not supported!\n"));
 809              		.loc 1 520 3 is_stmt 1
 520:C:/Users/stapi/OneDrive/Desktop/GD32VW553/GD32VW55X_Wifi_BLE_SDK/GD32VW55x_RELEASE_V1.0.2/MSDK/lwip/lwip-2.1.2/src/core/ipv4\ip4_frag.c ****     LWIP_DEBUGF(IP_REASS_DEBUG, ("ip4_reass: IP options currently not supported!\n"));
 810              		.loc 1 520 6 is_stmt 0
 811 000a 5147     		li	a4,20
 505:C:/Users/stapi/OneDrive/Desktop/GD32VW553/GD32VW55X_Wifi_BLE_SDK/GD32VW55x_RELEASE_V1.0.2/MSDK/lwip/lwip-2.1.2/src/core/ipv4\ip4_frag.c ****   struct pbuf *r;
 812              		.loc 1 505 1
 813 000c 2A89     		mv	s2,a0
 520:C:/Users/stapi/OneDrive/Desktop/GD32VW553/GD32VW55X_Wifi_BLE_SDK/GD32VW55x_RELEASE_V1.0.2/MSDK/lwip/lwip-2.1.2/src/core/ipv4\ip4_frag.c ****     LWIP_DEBUGF(IP_REASS_DEBUG, ("ip4_reass: IP options currently not supported!\n"));
 814              		.loc 1 520 7
 815 000e 83C70400 		lbu	a5,0(s1)
 816 0012 BD8B     		andi	a5,a5,15
 520:C:/Users/stapi/OneDrive/Desktop/GD32VW553/GD32VW55X_Wifi_BLE_SDK/GD32VW55x_RELEASE_V1.0.2/MSDK/lwip/lwip-2.1.2/src/core/ipv4\ip4_frag.c ****     LWIP_DEBUGF(IP_REASS_DEBUG, ("ip4_reass: IP options currently not supported!\n"));
 817              		.loc 1 520 6
 818 0014 8A07     		slli	a5,a5,2
 819 0016 6394E70E 		bne	a5,a4,.L62
 526:C:/Users/stapi/OneDrive/Desktop/GD32VW553/GD32VW55X_Wifi_BLE_SDK/GD32VW55x_RELEASE_V1.0.2/MSDK/lwip/lwip-2.1.2/src/core/ipv4\ip4_frag.c ****   len = lwip_ntohs(IPH_LEN(fraghdr));
 820              		.loc 1 526 3 is_stmt 1
 526:C:/Users/stapi/OneDrive/Desktop/GD32VW553/GD32VW55X_Wifi_BLE_SDK/GD32VW55x_RELEASE_V1.0.2/MSDK/lwip/lwip-2.1.2/src/core/ipv4\ip4_frag.c ****   len = lwip_ntohs(IPH_LEN(fraghdr));
 821              		.loc 1 526 12 is_stmt 0
 822 001a 83C77400 		lbu	a5,7(s1)
 823 001e 03C56400 		lbu	a0,6(s1)
 824              	.LVL82:
 825 0022 A207     		slli	a5,a5,8
 826 0024 5D8D     		or	a0,a5,a0
 827 0026 97000000 		call	lwip_htons
 827      E7800000 
 828              	.LVL83:
 527:C:/Users/stapi/OneDrive/Desktop/GD32VW553/GD32VW55X_Wifi_BLE_SDK/GD32VW55x_RELEASE_V1.0.2/MSDK/lwip/lwip-2.1.2/src/core/ipv4\ip4_frag.c ****   hlen = IPH_HL_BYTES(fraghdr);
 829              		.loc 1 527 9
 830 002e 83C73400 		lbu	a5,3(s1)
 526:C:/Users/stapi/OneDrive/Desktop/GD32VW553/GD32VW55X_Wifi_BLE_SDK/GD32VW55x_RELEASE_V1.0.2/MSDK/lwip/lwip-2.1.2/src/core/ipv4\ip4_frag.c ****   len = lwip_ntohs(IPH_LEN(fraghdr));
 831              		.loc 1 526 12
 832 0032 AA8B     		mv	s7,a0
 833              	.LVL84:
 527:C:/Users/stapi/OneDrive/Desktop/GD32VW553/GD32VW55X_Wifi_BLE_SDK/GD32VW55x_RELEASE_V1.0.2/MSDK/lwip/lwip-2.1.2/src/core/ipv4\ip4_frag.c ****   hlen = IPH_HL_BYTES(fraghdr);
 834              		.loc 1 527 3 is_stmt 1
 527:C:/Users/stapi/OneDrive/Desktop/GD32VW553/GD32VW55X_Wifi_BLE_SDK/GD32VW55x_RELEASE_V1.0.2/MSDK/lwip/lwip-2.1.2/src/core/ipv4\ip4_frag.c ****   hlen = IPH_HL_BYTES(fraghdr);
 835              		.loc 1 527 9 is_stmt 0
 836 0034 03C52400 		lbu	a0,2(s1)
 837 0038 A207     		slli	a5,a5,8
 838 003a 5D8D     		or	a0,a5,a0
 839 003c 97000000 		call	lwip_htons
 839      E7800000 
 840              	.LVL85:
 528:C:/Users/stapi/OneDrive/Desktop/GD32VW553/GD32VW55X_Wifi_BLE_SDK/GD32VW55x_RELEASE_V1.0.2/MSDK/lwip/lwip-2.1.2/src/core/ipv4\ip4_frag.c ****   if (hlen > len) {
 841              		.loc 1 528 3 is_stmt 1
 529:C:/Users/stapi/OneDrive/Desktop/GD32VW553/GD32VW55X_Wifi_BLE_SDK/GD32VW55x_RELEASE_V1.0.2/MSDK/lwip/lwip-2.1.2/src/core/ipv4\ip4_frag.c ****     /* invalid datagram */
 842              		.loc 1 529 3
 528:C:/Users/stapi/OneDrive/Desktop/GD32VW553/GD32VW55X_Wifi_BLE_SDK/GD32VW55x_RELEASE_V1.0.2/MSDK/lwip/lwip-2.1.2/src/core/ipv4\ip4_frag.c ****   if (hlen > len) {
 843              		.loc 1 528 10 is_stmt 0
 844 0044 83CA0400 		lbu	s5,0(s1)
 845 0048 93FAFA00 		andi	s5,s5,15
 529:C:/Users/stapi/OneDrive/Desktop/GD32VW553/GD32VW55X_Wifi_BLE_SDK/GD32VW55x_RELEASE_V1.0.2/MSDK/lwip/lwip-2.1.2/src/core/ipv4\ip4_frag.c ****     /* invalid datagram */
 846              		.loc 1 529 12
 847 004c 8A0A     		slli	s5,s5,2
 529:C:/Users/stapi/OneDrive/Desktop/GD32VW553/GD32VW55X_Wifi_BLE_SDK/GD32VW55x_RELEASE_V1.0.2/MSDK/lwip/lwip-2.1.2/src/core/ipv4\ip4_frag.c ****     /* invalid datagram */
 848              		.loc 1 529 6
 849 004e 6368550B 		bgtu	s5,a0,.L62
 533:C:/Users/stapi/OneDrive/Desktop/GD32VW553/GD32VW55X_Wifi_BLE_SDK/GD32VW55x_RELEASE_V1.0.2/MSDK/lwip/lwip-2.1.2/src/core/ipv4\ip4_frag.c **** 
 850              		.loc 1 533 3 is_stmt 1
 533:C:/Users/stapi/OneDrive/Desktop/GD32VW553/GD32VW55X_Wifi_BLE_SDK/GD32VW55x_RELEASE_V1.0.2/MSDK/lwip/lwip-2.1.2/src/core/ipv4\ip4_frag.c **** 
 851              		.loc 1 533 7 is_stmt 0
 852 0052 B30A5541 		sub	s5,a0,s5
 536:C:/Users/stapi/OneDrive/Desktop/GD32VW553/GD32VW55X_Wifi_BLE_SDK/GD32VW55x_RELEASE_V1.0.2/MSDK/lwip/lwip-2.1.2/src/core/ipv4\ip4_frag.c ****   if ((ip_reass_pbufcount + clen) > IP_REASS_MAX_PBUFS) {
 853              		.loc 1 536 10
 854 0056 4A85     		mv	a0,s2
 855              	.LVL86:
 856 0058 97000000 		call	pbuf_clen
 856      E7800000 
 857              	.LVL87:
 537:C:/Users/stapi/OneDrive/Desktop/GD32VW553/GD32VW55X_Wifi_BLE_SDK/GD32VW55x_RELEASE_V1.0.2/MSDK/lwip/lwip-2.1.2/src/core/ipv4\ip4_frag.c **** #if IP_REASS_FREE_OLDEST
 858              		.loc 1 537 27
 859 0060 B7090000 		lui	s3,%hi(.LANCHOR1)
 860 0064 83D70900 		lhu	a5,%lo(.LANCHOR1)(s3)
 537:C:/Users/stapi/OneDrive/Desktop/GD32VW553/GD32VW55X_Wifi_BLE_SDK/GD32VW55x_RELEASE_V1.0.2/MSDK/lwip/lwip-2.1.2/src/core/ipv4\ip4_frag.c **** #if IP_REASS_FREE_OLDEST
 861              		.loc 1 537 6
 862 0068 2D44     		li	s0,11
 536:C:/Users/stapi/OneDrive/Desktop/GD32VW553/GD32VW55X_Wifi_BLE_SDK/GD32VW55x_RELEASE_V1.0.2/MSDK/lwip/lwip-2.1.2/src/core/ipv4\ip4_frag.c ****   if ((ip_reass_pbufcount + clen) > IP_REASS_MAX_PBUFS) {
 863              		.loc 1 536 10
 864 006a 2A8B     		mv	s6,a0
 537:C:/Users/stapi/OneDrive/Desktop/GD32VW553/GD32VW55X_Wifi_BLE_SDK/GD32VW55x_RELEASE_V1.0.2/MSDK/lwip/lwip-2.1.2/src/core/ipv4\ip4_frag.c **** #if IP_REASS_FREE_OLDEST
 865              		.loc 1 537 27
 866 006c AA97     		add	a5,a5,a0
 867 006e 93890900 		addi	s3,s3,%lo(.LANCHOR1)
 533:C:/Users/stapi/OneDrive/Desktop/GD32VW553/GD32VW55X_Wifi_BLE_SDK/GD32VW55x_RELEASE_V1.0.2/MSDK/lwip/lwip-2.1.2/src/core/ipv4\ip4_frag.c **** 
 868              		.loc 1 533 7
 869 0072 B3CA0A08 		zext.h	s5,s5
 870              	.LVL88:
 536:C:/Users/stapi/OneDrive/Desktop/GD32VW553/GD32VW55X_Wifi_BLE_SDK/GD32VW55x_RELEASE_V1.0.2/MSDK/lwip/lwip-2.1.2/src/core/ipv4\ip4_frag.c ****   if ((ip_reass_pbufcount + clen) > IP_REASS_MAX_PBUFS) {
 871              		.loc 1 536 3 is_stmt 1
 537:C:/Users/stapi/OneDrive/Desktop/GD32VW553/GD32VW55X_Wifi_BLE_SDK/GD32VW55x_RELEASE_V1.0.2/MSDK/lwip/lwip-2.1.2/src/core/ipv4\ip4_frag.c **** #if IP_REASS_FREE_OLDEST
 872              		.loc 1 537 3
 537:C:/Users/stapi/OneDrive/Desktop/GD32VW553/GD32VW55X_Wifi_BLE_SDK/GD32VW55x_RELEASE_V1.0.2/MSDK/lwip/lwip-2.1.2/src/core/ipv4\ip4_frag.c **** #if IP_REASS_FREE_OLDEST
 873              		.loc 1 537 6 is_stmt 0
 874 0076 6348F406 		bgt	a5,s0,.L64
 875              	.LVL89:
 876              	.L66:
 555:C:/Users/stapi/OneDrive/Desktop/GD32VW553/GD32VW55X_Wifi_BLE_SDK/GD32VW55x_RELEASE_V1.0.2/MSDK/lwip/lwip-2.1.2/src/core/ipv4\ip4_frag.c ****     /* Check if the incoming fragment matches the one currently present
 877              		.loc 1 555 3 is_stmt 1
 555:C:/Users/stapi/OneDrive/Desktop/GD32VW553/GD32VW55X_Wifi_BLE_SDK/GD32VW55x_RELEASE_V1.0.2/MSDK/lwip/lwip-2.1.2/src/core/ipv4\ip4_frag.c ****     /* Check if the incoming fragment matches the one currently present
 878              		.loc 1 555 12 is_stmt 0
 879 007a 370A0000 		lui	s4,%hi(.LANCHOR0)
 880 007e 03240A00 		lw	s0,%lo(.LANCHOR0)(s4)
 881              	.LVL90:
 882 0082 130A0A00 		addi	s4,s4,%lo(.LANCHOR0)
 883              	.L65:
 555:C:/Users/stapi/OneDrive/Desktop/GD32VW553/GD32VW55X_Wifi_BLE_SDK/GD32VW55x_RELEASE_V1.0.2/MSDK/lwip/lwip-2.1.2/src/core/ipv4\ip4_frag.c ****     /* Check if the incoming fragment matches the one currently present
 884              		.loc 1 555 30 is_stmt 1 discriminator 1
 555:C:/Users/stapi/OneDrive/Desktop/GD32VW553/GD32VW55X_Wifi_BLE_SDK/GD32VW55x_RELEASE_V1.0.2/MSDK/lwip/lwip-2.1.2/src/core/ipv4\ip4_frag.c ****     /* Check if the incoming fragment matches the one currently present
 885              		.loc 1 555 3 is_stmt 0 discriminator 1
 886 0086 59E0     		bne	s0,zero,.L69
 567:C:/Users/stapi/OneDrive/Desktop/GD32VW553/GD32VW55X_Wifi_BLE_SDK/GD32VW55x_RELEASE_V1.0.2/MSDK/lwip/lwip-2.1.2/src/core/ipv4\ip4_frag.c ****     /* Enqueue a new datagram into the datagram queue */
 887              		.loc 1 567 3 is_stmt 1
 569:C:/Users/stapi/OneDrive/Desktop/GD32VW553/GD32VW55X_Wifi_BLE_SDK/GD32VW55x_RELEASE_V1.0.2/MSDK/lwip/lwip-2.1.2/src/core/ipv4\ip4_frag.c ****     /* Bail if unable to enqueue */
 888              		.loc 1 569 5
 889              	.LVL91:
 890              	.LBB30:
 891              	.LBB31:
 281:C:/Users/stapi/OneDrive/Desktop/GD32VW553/GD32VW55X_Wifi_BLE_SDK/GD32VW55x_RELEASE_V1.0.2/MSDK/lwip/lwip-2.1.2/src/core/ipv4\ip4_frag.c **** #if ! IP_REASS_FREE_OLDEST
 892              		.loc 1 281 3
 287:C:/Users/stapi/OneDrive/Desktop/GD32VW553/GD32VW55X_Wifi_BLE_SDK/GD32VW55x_RELEASE_V1.0.2/MSDK/lwip/lwip-2.1.2/src/core/ipv4\ip4_frag.c ****   if (ipr == NULL) {
 893              		.loc 1 287 3
 287:C:/Users/stapi/OneDrive/Desktop/GD32VW553/GD32VW55X_Wifi_BLE_SDK/GD32VW55x_RELEASE_V1.0.2/MSDK/lwip/lwip-2.1.2/src/core/ipv4\ip4_frag.c ****   if (ipr == NULL) {
 894              		.loc 1 287 32 is_stmt 0
 895 0088 1945     		li	a0,6
 896 008a 97000000 		call	memp_malloc
 896      E7800000 
 897              	.LVL92:
 898 0092 2A84     		mv	s0,a0
 899              	.LVL93:
 288:C:/Users/stapi/OneDrive/Desktop/GD32VW553/GD32VW55X_Wifi_BLE_SDK/GD32VW55x_RELEASE_V1.0.2/MSDK/lwip/lwip-2.1.2/src/core/ipv4\ip4_frag.c **** #if IP_REASS_FREE_OLDEST
 900              		.loc 1 288 3 is_stmt 1
 288:C:/Users/stapi/OneDrive/Desktop/GD32VW553/GD32VW55X_Wifi_BLE_SDK/GD32VW55x_RELEASE_V1.0.2/MSDK/lwip/lwip-2.1.2/src/core/ipv4\ip4_frag.c **** #if IP_REASS_FREE_OLDEST
 901              		.loc 1 288 6 is_stmt 0
 902 0094 05E1     		bne	a0,zero,.L114
 290:C:/Users/stapi/OneDrive/Desktop/GD32VW553/GD32VW55X_Wifi_BLE_SDK/GD32VW55x_RELEASE_V1.0.2/MSDK/lwip/lwip-2.1.2/src/core/ipv4\ip4_frag.c ****       ipr = (struct ip_reassdata *)memp_malloc(MEMP_REASSDATA);
 903              		.loc 1 290 5 is_stmt 1
 290:C:/Users/stapi/OneDrive/Desktop/GD32VW553/GD32VW55X_Wifi_BLE_SDK/GD32VW55x_RELEASE_V1.0.2/MSDK/lwip/lwip-2.1.2/src/core/ipv4\ip4_frag.c ****       ipr = (struct ip_reassdata *)memp_malloc(MEMP_REASSDATA);
 904              		.loc 1 290 9 is_stmt 0
 905 0096 DA85     		mv	a1,s6
 906 0098 2685     		mv	a0,s1
 907 009a 97000000 		call	ip_reass_remove_oldest_datagram
 907      E7800000 
 908              	.LVL94:
 290:C:/Users/stapi/OneDrive/Desktop/GD32VW553/GD32VW55X_Wifi_BLE_SDK/GD32VW55x_RELEASE_V1.0.2/MSDK/lwip/lwip-2.1.2/src/core/ipv4\ip4_frag.c ****       ipr = (struct ip_reassdata *)memp_malloc(MEMP_REASSDATA);
 909              		.loc 1 290 8
 910 00a2 634E6505 		bgt	s6,a0,.L62
 291:C:/Users/stapi/OneDrive/Desktop/GD32VW553/GD32VW55X_Wifi_BLE_SDK/GD32VW55x_RELEASE_V1.0.2/MSDK/lwip/lwip-2.1.2/src/core/ipv4\ip4_frag.c ****     }
 911              		.loc 1 291 7 is_stmt 1
 291:C:/Users/stapi/OneDrive/Desktop/GD32VW553/GD32VW55X_Wifi_BLE_SDK/GD32VW55x_RELEASE_V1.0.2/MSDK/lwip/lwip-2.1.2/src/core/ipv4\ip4_frag.c ****     }
 912              		.loc 1 291 36 is_stmt 0
 913 00a6 1945     		li	a0,6
 914 00a8 97000000 		call	memp_malloc
 914      E7800000 
 915              	.LVL95:
 916 00b0 2A84     		mv	s0,a0
 917              	.LVL96:
 293:C:/Users/stapi/OneDrive/Desktop/GD32VW553/GD32VW55X_Wifi_BLE_SDK/GD32VW55x_RELEASE_V1.0.2/MSDK/lwip/lwip-2.1.2/src/core/ipv4\ip4_frag.c **** #endif /* IP_REASS_FREE_OLDEST */
 918              		.loc 1 293 5 is_stmt 1
 293:C:/Users/stapi/OneDrive/Desktop/GD32VW553/GD32VW55X_Wifi_BLE_SDK/GD32VW55x_RELEASE_V1.0.2/MSDK/lwip/lwip-2.1.2/src/core/ipv4\ip4_frag.c **** #endif /* IP_REASS_FREE_OLDEST */
 919              		.loc 1 293 8 is_stmt 0
 920 00b2 31C5     		beq	a0,zero,.L62
 921              	.L114:
 301:C:/Users/stapi/OneDrive/Desktop/GD32VW553/GD32VW55X_Wifi_BLE_SDK/GD32VW55x_RELEASE_V1.0.2/MSDK/lwip/lwip-2.1.2/src/core/ipv4\ip4_frag.c ****   ipr->timer = IP_REASS_MAXAGE;
 922              		.loc 1 301 3 is_stmt 1
 923 00b4 7146     		li	a2,28
 924 00b6 8145     		li	a1,0
 925 00b8 13054400 		addi	a0,s0,4
 926 00bc 97000000 		call	memset
 926      E7800000 
 927              	.LVL97:
 302:C:/Users/stapi/OneDrive/Desktop/GD32VW553/GD32VW55X_Wifi_BLE_SDK/GD32VW55x_RELEASE_V1.0.2/MSDK/lwip/lwip-2.1.2/src/core/ipv4\ip4_frag.c **** 
 928              		.loc 1 302 3
 302:C:/Users/stapi/OneDrive/Desktop/GD32VW553/GD32VW55X_Wifi_BLE_SDK/GD32VW55x_RELEASE_V1.0.2/MSDK/lwip/lwip-2.1.2/src/core/ipv4\ip4_frag.c **** 
 929              		.loc 1 302 14 is_stmt 0
 930 00c4 BD47     		li	a5,15
 931 00c6 A30FF400 		sb	a5,31(s0)
 305:C:/Users/stapi/OneDrive/Desktop/GD32VW553/GD32VW55X_Wifi_BLE_SDK/GD32VW55x_RELEASE_V1.0.2/MSDK/lwip/lwip-2.1.2/src/core/ipv4\ip4_frag.c ****   reassdatagrams = ipr;
 932              		.loc 1 305 3 is_stmt 1
 305:C:/Users/stapi/OneDrive/Desktop/GD32VW553/GD32VW55X_Wifi_BLE_SDK/GD32VW55x_RELEASE_V1.0.2/MSDK/lwip/lwip-2.1.2/src/core/ipv4\ip4_frag.c ****   reassdatagrams = ipr;
 933              		.loc 1 305 13 is_stmt 0
 934 00ca 83270A00 		lw	a5,0(s4)
 306:C:/Users/stapi/OneDrive/Desktop/GD32VW553/GD32VW55X_Wifi_BLE_SDK/GD32VW55x_RELEASE_V1.0.2/MSDK/lwip/lwip-2.1.2/src/core/ipv4\ip4_frag.c ****   /* copy the ip header for later tests and input */
 935              		.loc 1 306 18
 936 00ce 23208A00 		sw	s0,0(s4)
 305:C:/Users/stapi/OneDrive/Desktop/GD32VW553/GD32VW55X_Wifi_BLE_SDK/GD32VW55x_RELEASE_V1.0.2/MSDK/lwip/lwip-2.1.2/src/core/ipv4\ip4_frag.c ****   reassdatagrams = ipr;
 937              		.loc 1 305 13
 938 00d2 1CC0     		sw	a5,0(s0)
 306:C:/Users/stapi/OneDrive/Desktop/GD32VW553/GD32VW55X_Wifi_BLE_SDK/GD32VW55x_RELEASE_V1.0.2/MSDK/lwip/lwip-2.1.2/src/core/ipv4\ip4_frag.c ****   /* copy the ip header for later tests and input */
 939              		.loc 1 306 3 is_stmt 1
 309:C:/Users/stapi/OneDrive/Desktop/GD32VW553/GD32VW55X_Wifi_BLE_SDK/GD32VW55x_RELEASE_V1.0.2/MSDK/lwip/lwip-2.1.2/src/core/ipv4\ip4_frag.c ****   return ipr;
 940              		.loc 1 309 3
 941              	.LVL98:
 942              	.L151:
 943              	.LBE31:
 944              	.LBE30:
 581:C:/Users/stapi/OneDrive/Desktop/GD32VW553/GD32VW55X_Wifi_BLE_SDK/GD32VW55x_RELEASE_V1.0.2/MSDK/lwip/lwip-2.1.2/src/core/ipv4\ip4_frag.c ****     }
 945              		.loc 1 581 7
 946 00d4 5146     		li	a2,20
 947 00d6 A685     		mv	a1,s1
 948 00d8 13058400 		addi	a0,s0,8
 949 00dc 97000000 		call	memcpy
 949      E7800000 
 950              	.LVL99:
 951 00e4 3DA6     		j	.L71
 952              	.LVL100:
 953              	.L64:
 539:C:/Users/stapi/OneDrive/Desktop/GD32VW553/GD32VW55X_Wifi_BLE_SDK/GD32VW55x_RELEASE_V1.0.2/MSDK/lwip/lwip-2.1.2/src/core/ipv4\ip4_frag.c ****         ((ip_reass_pbufcount + clen) > IP_REASS_MAX_PBUFS))
 954              		.loc 1 539 5
 539:C:/Users/stapi/OneDrive/Desktop/GD32VW553/GD32VW55X_Wifi_BLE_SDK/GD32VW55x_RELEASE_V1.0.2/MSDK/lwip/lwip-2.1.2/src/core/ipv4\ip4_frag.c ****         ((ip_reass_pbufcount + clen) > IP_REASS_MAX_PBUFS))
 955              		.loc 1 539 10 is_stmt 0
 956 00e6 AA85     		mv	a1,a0
 957 00e8 2685     		mv	a0,s1
 958              	.LVL101:
 959 00ea 97000000 		call	ip_reass_remove_oldest_datagram
 959      E7800000 
 960              	.LVL102:
 539:C:/Users/stapi/OneDrive/Desktop/GD32VW553/GD32VW55X_Wifi_BLE_SDK/GD32VW55x_RELEASE_V1.0.2/MSDK/lwip/lwip-2.1.2/src/core/ipv4\ip4_frag.c ****         ((ip_reass_pbufcount + clen) > IP_REASS_MAX_PBUFS))
 961              		.loc 1 539 8
 962 00f2 11C5     		beq	a0,zero,.L62
 540:C:/Users/stapi/OneDrive/Desktop/GD32VW553/GD32VW55X_Wifi_BLE_SDK/GD32VW55x_RELEASE_V1.0.2/MSDK/lwip/lwip-2.1.2/src/core/ipv4\ip4_frag.c **** #endif /* IP_REASS_FREE_OLDEST */
 963              		.loc 1 540 30 discriminator 1
 964 00f4 83D70900 		lhu	a5,0(s3)
 965 00f8 DA97     		add	a5,a5,s6
 539:C:/Users/stapi/OneDrive/Desktop/GD32VW553/GD32VW55X_Wifi_BLE_SDK/GD32VW55x_RELEASE_V1.0.2/MSDK/lwip/lwip-2.1.2/src/core/ipv4\ip4_frag.c ****         ((ip_reass_pbufcount + clen) > IP_REASS_MAX_PBUFS))
 966              		.loc 1 539 57 discriminator 1
 967 00fa E350F4F8 		ble	a5,s0,.L66
 968              	.LVL103:
 969              	.L62:
 689:C:/Users/stapi/OneDrive/Desktop/GD32VW553/GD32VW55X_Wifi_BLE_SDK/GD32VW55x_RELEASE_V1.0.2/MSDK/lwip/lwip-2.1.2/src/core/ipv4\ip4_frag.c ****   IPFRAG_STATS_INC(ip_frag.drop);
 970              		.loc 1 689 59 is_stmt 1
 690:C:/Users/stapi/OneDrive/Desktop/GD32VW553/GD32VW55X_Wifi_BLE_SDK/GD32VW55x_RELEASE_V1.0.2/MSDK/lwip/lwip-2.1.2/src/core/ipv4\ip4_frag.c ****   pbuf_free(p);
 971              		.loc 1 690 33
 691:C:/Users/stapi/OneDrive/Desktop/GD32VW553/GD32VW55X_Wifi_BLE_SDK/GD32VW55x_RELEASE_V1.0.2/MSDK/lwip/lwip-2.1.2/src/core/ipv4\ip4_frag.c ****   return NULL;
 972              		.loc 1 691 3
 973 00fe 4A85     		mv	a0,s2
 974 0100 97000000 		call	pbuf_free
 974      E7800000 
 975              	.LVL104:
 692:C:/Users/stapi/OneDrive/Desktop/GD32VW553/GD32VW55X_Wifi_BLE_SDK/GD32VW55x_RELEASE_V1.0.2/MSDK/lwip/lwip-2.1.2/src/core/ipv4\ip4_frag.c **** }
 976              		.loc 1 692 3
 692:C:/Users/stapi/OneDrive/Desktop/GD32VW553/GD32VW55X_Wifi_BLE_SDK/GD32VW55x_RELEASE_V1.0.2/MSDK/lwip/lwip-2.1.2/src/core/ipv4\ip4_frag.c **** }
 977              		.loc 1 692 10 is_stmt 0
 978 0108 0149     		li	s2,0
 979              	.LVL105:
 980 010a 59A4     		j	.L60
 981              	.LVL106:
 982              	.L69:
 559:C:/Users/stapi/OneDrive/Desktop/GD32VW553/GD32VW55X_Wifi_BLE_SDK/GD32VW55x_RELEASE_V1.0.2/MSDK/lwip/lwip-2.1.2/src/core/ipv4\ip4_frag.c ****       LWIP_DEBUGF(IP_REASS_DEBUG, ("ip4_reass: matching previous fragment ID=%"X16_F"\n",
 983              		.loc 1 559 5 is_stmt 1
 559:C:/Users/stapi/OneDrive/Desktop/GD32VW553/GD32VW55X_Wifi_BLE_SDK/GD32VW55x_RELEASE_V1.0.2/MSDK/lwip/lwip-2.1.2/src/core/ipv4\ip4_frag.c ****       LWIP_DEBUGF(IP_REASS_DEBUG, ("ip4_reass: matching previous fragment ID=%"X16_F"\n",
 984              		.loc 1 559 9 is_stmt 0
 985 010c 03C7D400 		lbu	a4,13(s1)
 986 0110 83C7C400 		lbu	a5,12(s1)
 987 0114 2207     		slli	a4,a4,8
 988 0116 5D8F     		or	a4,a4,a5
 989 0118 83C7E400 		lbu	a5,14(s1)
 990 011c C207     		slli	a5,a5,16
 991 011e 5D8F     		or	a4,a5,a4
 992 0120 83C7F400 		lbu	a5,15(s1)
 993 0124 E207     		slli	a5,a5,24
 994 0126 D98F     		or	a5,a5,a4
 559:C:/Users/stapi/OneDrive/Desktop/GD32VW553/GD32VW55X_Wifi_BLE_SDK/GD32VW55x_RELEASE_V1.0.2/MSDK/lwip/lwip-2.1.2/src/core/ipv4\ip4_frag.c ****       LWIP_DEBUGF(IP_REASS_DEBUG, ("ip4_reass: matching previous fragment ID=%"X16_F"\n",
 995              		.loc 1 559 8
 996 0128 5848     		lw	a4,20(s0)
 997 012a 631DF702 		bne	a4,a5,.L67
 559:C:/Users/stapi/OneDrive/Desktop/GD32VW553/GD32VW55X_Wifi_BLE_SDK/GD32VW55x_RELEASE_V1.0.2/MSDK/lwip/lwip-2.1.2/src/core/ipv4\ip4_frag.c ****       LWIP_DEBUGF(IP_REASS_DEBUG, ("ip4_reass: matching previous fragment ID=%"X16_F"\n",
 998              		.loc 1 559 9 discriminator 1
 999 012e 03C71401 		lbu	a4,17(s1)
 1000 0132 83C70401 		lbu	a5,16(s1)
 1001 0136 2207     		slli	a4,a4,8
 1002 0138 5D8F     		or	a4,a4,a5
 1003 013a 83C72401 		lbu	a5,18(s1)
 1004 013e C207     		slli	a5,a5,16
 1005 0140 5D8F     		or	a4,a5,a4
 1006 0142 83C73401 		lbu	a5,19(s1)
 1007 0146 E207     		slli	a5,a5,24
 1008 0148 D98F     		or	a5,a5,a4
 1009 014a 184C     		lw	a4,24(s0)
 1010 014c 631CF700 		bne	a4,a5,.L67
 559:C:/Users/stapi/OneDrive/Desktop/GD32VW553/GD32VW55X_Wifi_BLE_SDK/GD32VW55x_RELEASE_V1.0.2/MSDK/lwip/lwip-2.1.2/src/core/ipv4\ip4_frag.c ****       LWIP_DEBUGF(IP_REASS_DEBUG, ("ip4_reass: matching previous fragment ID=%"X16_F"\n",
 1011              		.loc 1 559 9 discriminator 2
 1012 0150 83C75400 		lbu	a5,5(s1)
 1013 0154 83C64400 		lbu	a3,4(s1)
 1014 0158 0357C400 		lhu	a4,12(s0)
 1015 015c A207     		slli	a5,a5,8
 1016 015e D58F     		or	a5,a5,a3
 1017 0160 630EF726 		beq	a4,a5,.L68
 1018              	.L67:
 555:C:/Users/stapi/OneDrive/Desktop/GD32VW553/GD32VW55X_Wifi_BLE_SDK/GD32VW55x_RELEASE_V1.0.2/MSDK/lwip/lwip-2.1.2/src/core/ipv4\ip4_frag.c ****     /* Check if the incoming fragment matches the one currently present
 1019              		.loc 1 555 43 is_stmt 1 discriminator 2
 555:C:/Users/stapi/OneDrive/Desktop/GD32VW553/GD32VW55X_Wifi_BLE_SDK/GD32VW55x_RELEASE_V1.0.2/MSDK/lwip/lwip-2.1.2/src/core/ipv4\ip4_frag.c ****     /* Check if the incoming fragment matches the one currently present
 1020              		.loc 1 555 47 is_stmt 0 discriminator 2
 1021 0164 0040     		lw	s0,0(s0)
 1022              	.LVL107:
 1023 0166 05B7     		j	.L65
 1024              	.LVL108:
 1025              	.L80:
 1026              	.LBB32:
 1027              	.LBB33:
 382:C:/Users/stapi/OneDrive/Desktop/GD32VW553/GD32VW55X_Wifi_BLE_SDK/GD32VW55x_RELEASE_V1.0.2/MSDK/lwip/lwip-2.1.2/src/core/ipv4\ip4_frag.c ****     if (iprh->start < iprh_tmp->start) {
 1028              		.loc 1 382 5 is_stmt 1
 382:C:/Users/stapi/OneDrive/Desktop/GD32VW553/GD32VW55X_Wifi_BLE_SDK/GD32VW55x_RELEASE_V1.0.2/MSDK/lwip/lwip-2.1.2/src/core/ipv4\ip4_frag.c ****     if (iprh->start < iprh_tmp->start) {
 1029              		.loc 1 382 14 is_stmt 0
 1030 0168 4C42     		lw	a1,4(a2)
 1031              	.LVL109:
 383:C:/Users/stapi/OneDrive/Desktop/GD32VW553/GD32VW55X_Wifi_BLE_SDK/GD32VW55x_RELEASE_V1.0.2/MSDK/lwip/lwip-2.1.2/src/core/ipv4\ip4_frag.c ****       /* the new pbuf should be inserted before this */
 1032              		.loc 1 383 5 is_stmt 1
 383:C:/Users/stapi/OneDrive/Desktop/GD32VW553/GD32VW55X_Wifi_BLE_SDK/GD32VW55x_RELEASE_V1.0.2/MSDK/lwip/lwip-2.1.2/src/core/ipv4\ip4_frag.c ****       /* the new pbuf should be inserted before this */
 1033              		.loc 1 383 31 is_stmt 0
 1034 016a 03C55500 		lbu	a0,5(a1)
 1035 016e 03CE4500 		lbu	t3,4(a1)
 1036 0172 2205     		slli	a0,a0,8
 1037 0174 3365C501 		or	a0,a0,t3
 383:C:/Users/stapi/OneDrive/Desktop/GD32VW553/GD32VW55X_Wifi_BLE_SDK/GD32VW55x_RELEASE_V1.0.2/MSDK/lwip/lwip-2.1.2/src/core/ipv4\ip4_frag.c ****       /* the new pbuf should be inserted before this */
 1038              		.loc 1 383 8
 1039 0178 63F8A60C 		bgeu	a3,a0,.L75
 385:C:/Users/stapi/OneDrive/Desktop/GD32VW553/GD32VW55X_Wifi_BLE_SDK/GD32VW55x_RELEASE_V1.0.2/MSDK/lwip/lwip-2.1.2/src/core/ipv4\ip4_frag.c ****       if (iprh_prev != NULL) {
 1040              		.loc 1 385 7 is_stmt 1
 385:C:/Users/stapi/OneDrive/Desktop/GD32VW553/GD32VW55X_Wifi_BLE_SDK/GD32VW55x_RELEASE_V1.0.2/MSDK/lwip/lwip-2.1.2/src/core/ipv4\ip4_frag.c ****       if (iprh_prev != NULL) {
 1041              		.loc 1 385 23 is_stmt 0
 1042 017c 93558600 		srli	a1,a2,8
 1043              	.LVL110:
 1044 0180 2380C700 		sb	a2,0(a5)
 1045 0184 A380B700 		sb	a1,1(a5)
 1046 0188 93550601 		srli	a1,a2,16
 1047 018c 6182     		srli	a2,a2,24
 1048              	.LVL111:
 1049 018e 2381B700 		sb	a1,2(a5)
 1050 0192 A381C700 		sb	a2,3(a5)
 386:C:/Users/stapi/OneDrive/Desktop/GD32VW553/GD32VW55X_Wifi_BLE_SDK/GD32VW55x_RELEASE_V1.0.2/MSDK/lwip/lwip-2.1.2/src/core/ipv4\ip4_frag.c ****         /* not the fragment with the lowest offset */
 1051              		.loc 1 386 7 is_stmt 1
 386:C:/Users/stapi/OneDrive/Desktop/GD32VW553/GD32VW55X_Wifi_BLE_SDK/GD32VW55x_RELEASE_V1.0.2/MSDK/lwip/lwip-2.1.2/src/core/ipv4\ip4_frag.c ****         /* not the fragment with the lowest offset */
 1052              		.loc 1 386 10 is_stmt 0
 1053 0196 45C7     		beq	a4,zero,.L76
 389:C:/Users/stapi/OneDrive/Desktop/GD32VW553/GD32VW55X_Wifi_BLE_SDK/GD32VW55x_RELEASE_V1.0.2/MSDK/lwip/lwip-2.1.2/src/core/ipv4\ip4_frag.c ****           /* fragment overlaps with previous or following, throw away */
 1054              		.loc 1 389 9 is_stmt 1
 389:C:/Users/stapi/OneDrive/Desktop/GD32VW553/GD32VW55X_Wifi_BLE_SDK/GD32VW55x_RELEASE_V1.0.2/MSDK/lwip/lwip-2.1.2/src/core/ipv4\ip4_frag.c ****           /* fragment overlaps with previous or following, throw away */
 1055              		.loc 1 389 37 is_stmt 0
 1056 0198 03467700 		lbu	a2,7(a4)
 1057 019c 83456700 		lbu	a1,6(a4)
 1058 01a0 2206     		slli	a2,a2,8
 1059 01a2 4D8E     		or	a2,a2,a1
 389:C:/Users/stapi/OneDrive/Desktop/GD32VW553/GD32VW55X_Wifi_BLE_SDK/GD32VW55x_RELEASE_V1.0.2/MSDK/lwip/lwip-2.1.2/src/core/ipv4\ip4_frag.c ****           /* fragment overlaps with previous or following, throw away */
 1060              		.loc 1 389 12
 1061 01a4 63E2C620 		bltu	a3,a2,.L73
 389:C:/Users/stapi/OneDrive/Desktop/GD32VW553/GD32VW55X_Wifi_BLE_SDK/GD32VW55x_RELEASE_V1.0.2/MSDK/lwip/lwip-2.1.2/src/core/ipv4\ip4_frag.c ****           /* fragment overlaps with previous or following, throw away */
 1062              		.loc 1 389 44
 1063 01a8 63601521 		bgtu	a7,a0,.L73
 1064              	.L82:
 439:C:/Users/stapi/OneDrive/Desktop/GD32VW553/GD32VW55X_Wifi_BLE_SDK/GD32VW55x_RELEASE_V1.0.2/MSDK/lwip/lwip-2.1.2/src/core/ipv4\ip4_frag.c **** #endif /* IP_REASS_CHECK_OVERLAP */
 1065              		.loc 1 439 7 is_stmt 1
 439:C:/Users/stapi/OneDrive/Desktop/GD32VW553/GD32VW55X_Wifi_BLE_SDK/GD32VW55x_RELEASE_V1.0.2/MSDK/lwip/lwip-2.1.2/src/core/ipv4\ip4_frag.c **** #endif /* IP_REASS_CHECK_OVERLAP */
 1066              		.loc 1 439 7
 441:C:/Users/stapi/OneDrive/Desktop/GD32VW553/GD32VW55X_Wifi_BLE_SDK/GD32VW55x_RELEASE_V1.0.2/MSDK/lwip/lwip-2.1.2/src/core/ipv4\ip4_frag.c ****       if (iprh_prev->end != iprh->start) {
 1067              		.loc 1 441 7
 441:C:/Users/stapi/OneDrive/Desktop/GD32VW553/GD32VW55X_Wifi_BLE_SDK/GD32VW55x_RELEASE_V1.0.2/MSDK/lwip/lwip-2.1.2/src/core/ipv4\ip4_frag.c ****       if (iprh_prev->end != iprh->start) {
 1068              		.loc 1 441 28 is_stmt 0
 1069 01ac 93558900 		srli	a1,s2,8
 1070 01b0 23002701 		sb	s2,0(a4)
 1071 01b4 A300B700 		sb	a1,1(a4)
 1072 01b8 93550901 		srli	a1,s2,16
 1073 01bc 13598901 		srli	s2,s2,24
 1074              	.LVL112:
 1075 01c0 2301B700 		sb	a1,2(a4)
 1076 01c4 A3012701 		sb	s2,3(a4)
 442:C:/Users/stapi/OneDrive/Desktop/GD32VW553/GD32VW55X_Wifi_BLE_SDK/GD32VW55x_RELEASE_V1.0.2/MSDK/lwip/lwip-2.1.2/src/core/ipv4\ip4_frag.c ****         valid = 0;
 1077              		.loc 1 442 7 is_stmt 1
 442:C:/Users/stapi/OneDrive/Desktop/GD32VW553/GD32VW55X_Wifi_BLE_SDK/GD32VW55x_RELEASE_V1.0.2/MSDK/lwip/lwip-2.1.2/src/core/ipv4\ip4_frag.c ****         valid = 0;
 1078              		.loc 1 442 10 is_stmt 0
 1079 01c8 6394C632 		bne	a3,a2,.L77
 1080              	.L78:
 457:C:/Users/stapi/OneDrive/Desktop/GD32VW553/GD32VW55X_Wifi_BLE_SDK/GD32VW55x_RELEASE_V1.0.2/MSDK/lwip/lwip-2.1.2/src/core/ipv4\ip4_frag.c ****     /* and had no holes so far */
 1081              		.loc 1 457 3 is_stmt 1
 457:C:/Users/stapi/OneDrive/Desktop/GD32VW553/GD32VW55X_Wifi_BLE_SDK/GD32VW55x_RELEASE_V1.0.2/MSDK/lwip/lwip-2.1.2/src/core/ipv4\ip4_frag.c ****     /* and had no holes so far */
 1082              		.loc 1 457 6 is_stmt 0
 1083 01cc 63070C00 		beq	s8,zero,.L87
 1084              	.LVL113:
 1085              	.L115:
 457:C:/Users/stapi/OneDrive/Desktop/GD32VW553/GD32VW55X_Wifi_BLE_SDK/GD32VW55x_RELEASE_V1.0.2/MSDK/lwip/lwip-2.1.2/src/core/ipv4\ip4_frag.c ****     /* and had no holes so far */
 1086              		.loc 1 457 15
 1087 01d0 0347E401 		lbu	a4,30(s0)
 1088              	.LVL114:
 1089 01d4 058B     		andi	a4,a4,1
 1090 01d6 63000732 		beq	a4,zero,.L116
 1091              	.L87:
 459:C:/Users/stapi/OneDrive/Desktop/GD32VW553/GD32VW55X_Wifi_BLE_SDK/GD32VW55x_RELEASE_V1.0.2/MSDK/lwip/lwip-2.1.2/src/core/ipv4\ip4_frag.c ****       /* then check if the rest of the fragments is here */
 1092              		.loc 1 459 5 is_stmt 1
 459:C:/Users/stapi/OneDrive/Desktop/GD32VW553/GD32VW55X_Wifi_BLE_SDK/GD32VW55x_RELEASE_V1.0.2/MSDK/lwip/lwip-2.1.2/src/core/ipv4\ip4_frag.c ****       /* then check if the rest of the fragments is here */
 1093              		.loc 1 459 8 is_stmt 0
 1094 01da 630E0830 		beq	a6,zero,.L116
 462:C:/Users/stapi/OneDrive/Desktop/GD32VW553/GD32VW55X_Wifi_BLE_SDK/GD32VW55x_RELEASE_V1.0.2/MSDK/lwip/lwip-2.1.2/src/core/ipv4\ip4_frag.c ****         valid = 0;
 1095              		.loc 1 462 7 is_stmt 1
 462:C:/Users/stapi/OneDrive/Desktop/GD32VW553/GD32VW55X_Wifi_BLE_SDK/GD32VW55x_RELEASE_V1.0.2/MSDK/lwip/lwip-2.1.2/src/core/ipv4\ip4_frag.c ****         valid = 0;
 1096              		.loc 1 462 15 is_stmt 0
 1097 01de 5840     		lw	a4,4(s0)
 462:C:/Users/stapi/OneDrive/Desktop/GD32VW553/GD32VW55X_Wifi_BLE_SDK/GD32VW55x_RELEASE_V1.0.2/MSDK/lwip/lwip-2.1.2/src/core/ipv4\ip4_frag.c ****         valid = 0;
 1098              		.loc 1 462 10
 1099 01e0 630B0730 		beq	a4,zero,.L116
 462:C:/Users/stapi/OneDrive/Desktop/GD32VW553/GD32VW55X_Wifi_BLE_SDK/GD32VW55x_RELEASE_V1.0.2/MSDK/lwip/lwip-2.1.2/src/core/ipv4\ip4_frag.c ****         valid = 0;
 1100              		.loc 1 462 65
 1101 01e4 5443     		lw	a3,4(a4)
 1102              	.LVL115:
 462:C:/Users/stapi/OneDrive/Desktop/GD32VW553/GD32VW55X_Wifi_BLE_SDK/GD32VW55x_RELEASE_V1.0.2/MSDK/lwip/lwip-2.1.2/src/core/ipv4\ip4_frag.c ****         valid = 0;
 1103              		.loc 1 462 75
 1104 01e6 03C75600 		lbu	a4,5(a3)
 1105 01ea 03C64600 		lbu	a2,4(a3)
 1106 01ee 2207     		slli	a4,a4,8
 462:C:/Users/stapi/OneDrive/Desktop/GD32VW553/GD32VW55X_Wifi_BLE_SDK/GD32VW55x_RELEASE_V1.0.2/MSDK/lwip/lwip-2.1.2/src/core/ipv4\ip4_frag.c ****         valid = 0;
 1107              		.loc 1 462 28
 1108 01f0 518F     		or	a4,a4,a2
 1109 01f2 63120730 		bne	a4,zero,.L116
 466:C:/Users/stapi/OneDrive/Desktop/GD32VW553/GD32VW55X_Wifi_BLE_SDK/GD32VW55x_RELEASE_V1.0.2/MSDK/lwip/lwip-2.1.2/src/core/ipv4\ip4_frag.c ****         q = iprh->next_pbuf;
 1110              		.loc 1 466 9 is_stmt 1
 1111              	.LVL116:
 467:C:/Users/stapi/OneDrive/Desktop/GD32VW553/GD32VW55X_Wifi_BLE_SDK/GD32VW55x_RELEASE_V1.0.2/MSDK/lwip/lwip-2.1.2/src/core/ipv4\ip4_frag.c ****         while (q != NULL) {
 1112              		.loc 1 467 9
 467:C:/Users/stapi/OneDrive/Desktop/GD32VW553/GD32VW55X_Wifi_BLE_SDK/GD32VW55x_RELEASE_V1.0.2/MSDK/lwip/lwip-2.1.2/src/core/ipv4\ip4_frag.c ****         while (q != NULL) {
 1113              		.loc 1 467 11 is_stmt 0
 1114 01f6 03C61700 		lbu	a2,1(a5)
 1115 01fa 03C70700 		lbu	a4,0(a5)
 1116 01fe 2206     		slli	a2,a2,8
 1117 0200 598E     		or	a2,a2,a4
 1118 0202 03C72700 		lbu	a4,2(a5)
 1119 0206 4207     		slli	a4,a4,16
 1120 0208 598E     		or	a2,a4,a2
 1121 020a 03C73700 		lbu	a4,3(a5)
 1122 020e 6207     		slli	a4,a4,24
 1123 0210 518F     		or	a4,a4,a2
 1124              	.LVL117:
 468:C:/Users/stapi/OneDrive/Desktop/GD32VW553/GD32VW55X_Wifi_BLE_SDK/GD32VW55x_RELEASE_V1.0.2/MSDK/lwip/lwip-2.1.2/src/core/ipv4\ip4_frag.c ****           iprh = (struct ip_reass_helper *)q->payload;
 1125              		.loc 1 468 9 is_stmt 1
 1126              	.L90:
 468:C:/Users/stapi/OneDrive/Desktop/GD32VW553/GD32VW55X_Wifi_BLE_SDK/GD32VW55x_RELEASE_V1.0.2/MSDK/lwip/lwip-2.1.2/src/core/ipv4\ip4_frag.c ****           iprh = (struct ip_reass_helper *)q->payload;
 1127              		.loc 1 468 15
 1128 0212 5DEB     		bne	a4,zero,.L91
 1129              	.LVL118:
 479:C:/Users/stapi/OneDrive/Desktop/GD32VW553/GD32VW55X_Wifi_BLE_SDK/GD32VW55x_RELEASE_V1.0.2/MSDK/lwip/lwip-2.1.2/src/core/ipv4\ip4_frag.c ****           LWIP_ASSERT("sanity check", ipr->p != NULL);
 1130              		.loc 1 479 9
 480:C:/Users/stapi/OneDrive/Desktop/GD32VW553/GD32VW55X_Wifi_BLE_SDK/GD32VW55x_RELEASE_V1.0.2/MSDK/lwip/lwip-2.1.2/src/core/ipv4\ip4_frag.c ****           LWIP_ASSERT("sanity check",
 1131              		.loc 1 480 11
 480:C:/Users/stapi/OneDrive/Desktop/GD32VW553/GD32VW55X_Wifi_BLE_SDK/GD32VW55x_RELEASE_V1.0.2/MSDK/lwip/lwip-2.1.2/src/core/ipv4\ip4_frag.c ****           LWIP_ASSERT("sanity check",
 1132              		.loc 1 480 11
 480:C:/Users/stapi/OneDrive/Desktop/GD32VW553/GD32VW55X_Wifi_BLE_SDK/GD32VW55x_RELEASE_V1.0.2/MSDK/lwip/lwip-2.1.2/src/core/ipv4\ip4_frag.c ****           LWIP_ASSERT("sanity check",
 1133              		.loc 1 480 11
 480:C:/Users/stapi/OneDrive/Desktop/GD32VW553/GD32VW55X_Wifi_BLE_SDK/GD32VW55x_RELEASE_V1.0.2/MSDK/lwip/lwip-2.1.2/src/core/ipv4\ip4_frag.c ****           LWIP_ASSERT("sanity check",
 1134              		.loc 1 480 11
 481:C:/Users/stapi/OneDrive/Desktop/GD32VW553/GD32VW55X_Wifi_BLE_SDK/GD32VW55x_RELEASE_V1.0.2/MSDK/lwip/lwip-2.1.2/src/core/ipv4\ip4_frag.c ****                       ((struct ip_reass_helper *)ipr->p->payload) != iprh);
 1135              		.loc 1 481 11
 481:C:/Users/stapi/OneDrive/Desktop/GD32VW553/GD32VW55X_Wifi_BLE_SDK/GD32VW55x_RELEASE_V1.0.2/MSDK/lwip/lwip-2.1.2/src/core/ipv4\ip4_frag.c ****                       ((struct ip_reass_helper *)ipr->p->payload) != iprh);
 1136              		.loc 1 481 11
 1137 0214 6399F60E 		bne	a3,a5,.L148
 481:C:/Users/stapi/OneDrive/Desktop/GD32VW553/GD32VW55X_Wifi_BLE_SDK/GD32VW55x_RELEASE_V1.0.2/MSDK/lwip/lwip-2.1.2/src/core/ipv4\ip4_frag.c ****                       ((struct ip_reass_helper *)ipr->p->payload) != iprh);
 1138              		.loc 1 481 11
 481:C:/Users/stapi/OneDrive/Desktop/GD32VW553/GD32VW55X_Wifi_BLE_SDK/GD32VW55x_RELEASE_V1.0.2/MSDK/lwip/lwip-2.1.2/src/core/ipv4\ip4_frag.c ****                       ((struct ip_reass_helper *)ipr->p->payload) != iprh);
 1139              		.loc 1 481 11
 1140 0218 B7060000 		lui	a3,%hi(.LC0)
 1141 021c B7050000 		lui	a1,%hi(.LC11)
 1142 0220 37050000 		lui	a0,%hi(.LC2)
 1143 0224 93860600 		addi	a3,a3,%lo(.LC0)
 1144 0228 1306101E 		li	a2,481
 1145 022c 93850500 		addi	a1,a1,%lo(.LC11)
 1146 0230 13050500 		addi	a0,a0,%lo(.LC2)
 1147 0234 97000000 		call	printf
 1147      E7800000 
 1148              	.LVL119:
 1149              	.L93:
 481:C:/Users/stapi/OneDrive/Desktop/GD32VW553/GD32VW55X_Wifi_BLE_SDK/GD32VW55x_RELEASE_V1.0.2/MSDK/lwip/lwip-2.1.2/src/core/ipv4\ip4_frag.c ****                       ((struct ip_reass_helper *)ipr->p->payload) != iprh);
 1150              		.loc 1 481 11
 481:C:/Users/stapi/OneDrive/Desktop/GD32VW553/GD32VW55X_Wifi_BLE_SDK/GD32VW55x_RELEASE_V1.0.2/MSDK/lwip/lwip-2.1.2/src/core/ipv4\ip4_frag.c ****                       ((struct ip_reass_helper *)ipr->p->payload) != iprh);
 1151              		.loc 1 481 11
 481:C:/Users/stapi/OneDrive/Desktop/GD32VW553/GD32VW55X_Wifi_BLE_SDK/GD32VW55x_RELEASE_V1.0.2/MSDK/lwip/lwip-2.1.2/src/core/ipv4\ip4_frag.c ****                       ((struct ip_reass_helper *)ipr->p->payload) != iprh);
 1152              		.loc 1 481 11
 1153 023c 01A0     		j	.L93
 1154              	.LVL120:
 1155              	.L76:
 402:C:/Users/stapi/OneDrive/Desktop/GD32VW553/GD32VW55X_Wifi_BLE_SDK/GD32VW55x_RELEASE_V1.0.2/MSDK/lwip/lwip-2.1.2/src/core/ipv4\ip4_frag.c ****           /* fragment overlaps with following, throw away */
 1156              		.loc 1 402 9
 402:C:/Users/stapi/OneDrive/Desktop/GD32VW553/GD32VW55X_Wifi_BLE_SDK/GD32VW55x_RELEASE_V1.0.2/MSDK/lwip/lwip-2.1.2/src/core/ipv4\ip4_frag.c ****           /* fragment overlaps with following, throw away */
 1157              		.loc 1 402 12 is_stmt 0
 1158 023e 63651517 		bgtu	a7,a0,.L73
 1159              	.L85:
 447:C:/Users/stapi/OneDrive/Desktop/GD32VW553/GD32VW55X_Wifi_BLE_SDK/GD32VW55x_RELEASE_V1.0.2/MSDK/lwip/lwip-2.1.2/src/core/ipv4\ip4_frag.c ****                   ipr->p == NULL);
 1160              		.loc 1 447 7 is_stmt 1
 447:C:/Users/stapi/OneDrive/Desktop/GD32VW553/GD32VW55X_Wifi_BLE_SDK/GD32VW55x_RELEASE_V1.0.2/MSDK/lwip/lwip-2.1.2/src/core/ipv4\ip4_frag.c ****                   ipr->p == NULL);
 1161              		.loc 1 447 7
 451:C:/Users/stapi/OneDrive/Desktop/GD32VW553/GD32VW55X_Wifi_BLE_SDK/GD32VW55x_RELEASE_V1.0.2/MSDK/lwip/lwip-2.1.2/src/core/ipv4\ip4_frag.c ****     }
 1162              		.loc 1 451 7
 451:C:/Users/stapi/OneDrive/Desktop/GD32VW553/GD32VW55X_Wifi_BLE_SDK/GD32VW55x_RELEASE_V1.0.2/MSDK/lwip/lwip-2.1.2/src/core/ipv4\ip4_frag.c ****     }
 1163              		.loc 1 451 14 is_stmt 0
 1164 0242 23222401 		sw	s2,4(s0)
 1165 0246 59B7     		j	.L78
 1166              	.LVL121:
 1167              	.L75:
 411:C:/Users/stapi/OneDrive/Desktop/GD32VW553/GD32VW55X_Wifi_BLE_SDK/GD32VW55x_RELEASE_V1.0.2/MSDK/lwip/lwip-2.1.2/src/core/ipv4\ip4_frag.c ****       /* received the same datagram twice: no need to keep the datagram */
 1168              		.loc 1 411 12 is_stmt 1
 411:C:/Users/stapi/OneDrive/Desktop/GD32VW553/GD32VW55X_Wifi_BLE_SDK/GD32VW55x_RELEASE_V1.0.2/MSDK/lwip/lwip-2.1.2/src/core/ipv4\ip4_frag.c ****       /* received the same datagram twice: no need to keep the datagram */
 1169              		.loc 1 411 15 is_stmt 0
 1170 0248 6380A616 		beq	a3,a0,.L73
 415:C:/Users/stapi/OneDrive/Desktop/GD32VW553/GD32VW55X_Wifi_BLE_SDK/GD32VW55x_RELEASE_V1.0.2/MSDK/lwip/lwip-2.1.2/src/core/ipv4\ip4_frag.c ****       /* overlap: no need to keep the new datagram */
 1171              		.loc 1 415 12 is_stmt 1
 415:C:/Users/stapi/OneDrive/Desktop/GD32VW553/GD32VW55X_Wifi_BLE_SDK/GD32VW55x_RELEASE_V1.0.2/MSDK/lwip/lwip-2.1.2/src/core/ipv4\ip4_frag.c ****       /* overlap: no need to keep the new datagram */
 1172              		.loc 1 415 38 is_stmt 0
 1173 024c 03C67500 		lbu	a2,7(a1)
 1174              	.LVL122:
 1175 0250 03CE6500 		lbu	t3,6(a1)
 1176 0254 2206     		slli	a2,a2,8
 415:C:/Users/stapi/OneDrive/Desktop/GD32VW553/GD32VW55X_Wifi_BLE_SDK/GD32VW55x_RELEASE_V1.0.2/MSDK/lwip/lwip-2.1.2/src/core/ipv4\ip4_frag.c ****       /* overlap: no need to keep the new datagram */
 1177              		.loc 1 415 15
 1178 0256 3366C601 		or	a2,a2,t3
 1179 025a 63E7C614 		bltu	a3,a2,.L73
 421:C:/Users/stapi/OneDrive/Desktop/GD32VW553/GD32VW55X_Wifi_BLE_SDK/GD32VW55x_RELEASE_V1.0.2/MSDK/lwip/lwip-2.1.2/src/core/ipv4\ip4_frag.c ****         if (iprh_prev->end != iprh_tmp->start) {
 1180              		.loc 1 421 7 is_stmt 1
 421:C:/Users/stapi/OneDrive/Desktop/GD32VW553/GD32VW55X_Wifi_BLE_SDK/GD32VW55x_RELEASE_V1.0.2/MSDK/lwip/lwip-2.1.2/src/core/ipv4\ip4_frag.c ****         if (iprh_prev->end != iprh_tmp->start) {
 1181              		.loc 1 421 10 is_stmt 0
 1182 025e 11CB     		beq	a4,zero,.L79
 422:C:/Users/stapi/OneDrive/Desktop/GD32VW553/GD32VW55X_Wifi_BLE_SDK/GD32VW55x_RELEASE_V1.0.2/MSDK/lwip/lwip-2.1.2/src/core/ipv4\ip4_frag.c ****           /* There is a fragment missing between the current
 1183              		.loc 1 422 9 is_stmt 1
 422:C:/Users/stapi/OneDrive/Desktop/GD32VW553/GD32VW55X_Wifi_BLE_SDK/GD32VW55x_RELEASE_V1.0.2/MSDK/lwip/lwip-2.1.2/src/core/ipv4\ip4_frag.c ****           /* There is a fragment missing between the current
 1184              		.loc 1 422 22 is_stmt 0
 1185 0260 03466700 		lbu	a2,6(a4)
 1186 0264 03477700 		lbu	a4,7(a4)
 1187              	.LVL123:
 1188 0268 2207     		slli	a4,a4,8
 422:C:/Users/stapi/OneDrive/Desktop/GD32VW553/GD32VW55X_Wifi_BLE_SDK/GD32VW55x_RELEASE_V1.0.2/MSDK/lwip/lwip-2.1.2/src/core/ipv4\ip4_frag.c ****           /* There is a fragment missing between the current
 1189              		.loc 1 422 12
 1190 026a 518F     		or	a4,a4,a2
 1191 026c 6303E500 		beq	a0,a4,.L79
 425:C:/Users/stapi/OneDrive/Desktop/GD32VW553/GD32VW55X_Wifi_BLE_SDK/GD32VW55x_RELEASE_V1.0.2/MSDK/lwip/lwip-2.1.2/src/core/ipv4\ip4_frag.c ****         }
 1192              		.loc 1 425 17
 1193 0270 0148     		li	a6,0
 1194              	.LVL124:
 1195              	.L79:
 429:C:/Users/stapi/OneDrive/Desktop/GD32VW553/GD32VW55X_Wifi_BLE_SDK/GD32VW55x_RELEASE_V1.0.2/MSDK/lwip/lwip-2.1.2/src/core/ipv4\ip4_frag.c ****     iprh_prev = iprh_tmp;
 1196              		.loc 1 429 5 is_stmt 1
 429:C:/Users/stapi/OneDrive/Desktop/GD32VW553/GD32VW55X_Wifi_BLE_SDK/GD32VW55x_RELEASE_V1.0.2/MSDK/lwip/lwip-2.1.2/src/core/ipv4\ip4_frag.c ****     iprh_prev = iprh_tmp;
 1197              		.loc 1 429 7 is_stmt 0
 1198 0272 03C71500 		lbu	a4,1(a1)
 1199 0276 03C60500 		lbu	a2,0(a1)
 1200 027a 2207     		slli	a4,a4,8
 1201 027c 518F     		or	a4,a4,a2
 1202 027e 03C62500 		lbu	a2,2(a1)
 1203 0282 4206     		slli	a2,a2,16
 1204 0284 518F     		or	a4,a2,a4
 1205 0286 03C63500 		lbu	a2,3(a1)
 1206 028a 6206     		slli	a2,a2,24
 1207 028c 598E     		or	a2,a2,a4
 1208              	.LVL125:
 430:C:/Users/stapi/OneDrive/Desktop/GD32VW553/GD32VW55X_Wifi_BLE_SDK/GD32VW55x_RELEASE_V1.0.2/MSDK/lwip/lwip-2.1.2/src/core/ipv4\ip4_frag.c ****   }
 1209              		.loc 1 430 5 is_stmt 1
 429:C:/Users/stapi/OneDrive/Desktop/GD32VW553/GD32VW55X_Wifi_BLE_SDK/GD32VW55x_RELEASE_V1.0.2/MSDK/lwip/lwip-2.1.2/src/core/ipv4\ip4_frag.c ****     iprh_prev = iprh_tmp;
 1210              		.loc 1 429 7 is_stmt 0
 1211 028e 2E87     		mv	a4,a1
 1212 0290 3DA4     		j	.L74
 1213              	.LVL126:
 1214              	.L110:
 439:C:/Users/stapi/OneDrive/Desktop/GD32VW553/GD32VW55X_Wifi_BLE_SDK/GD32VW55x_RELEASE_V1.0.2/MSDK/lwip/lwip-2.1.2/src/core/ipv4\ip4_frag.c **** #endif /* IP_REASS_CHECK_OVERLAP */
 1215              		.loc 1 439 7 is_stmt 1
 439:C:/Users/stapi/OneDrive/Desktop/GD32VW553/GD32VW55X_Wifi_BLE_SDK/GD32VW55x_RELEASE_V1.0.2/MSDK/lwip/lwip-2.1.2/src/core/ipv4\ip4_frag.c **** #endif /* IP_REASS_CHECK_OVERLAP */
 1216              		.loc 1 439 7
 1217 0292 03467700 		lbu	a2,7(a4)
 1218              	.LVL127:
 1219 0296 83456700 		lbu	a1,6(a4)
 1220 029a 2206     		slli	a2,a2,8
 1221 029c 4D8E     		or	a2,a2,a1
 1222 029e E3F7C6F0 		bgeu	a3,a2,.L82
 439:C:/Users/stapi/OneDrive/Desktop/GD32VW553/GD32VW55X_Wifi_BLE_SDK/GD32VW55x_RELEASE_V1.0.2/MSDK/lwip/lwip-2.1.2/src/core/ipv4\ip4_frag.c **** #endif /* IP_REASS_CHECK_OVERLAP */
 1223              		.loc 1 439 7
 439:C:/Users/stapi/OneDrive/Desktop/GD32VW553/GD32VW55X_Wifi_BLE_SDK/GD32VW55x_RELEASE_V1.0.2/MSDK/lwip/lwip-2.1.2/src/core/ipv4\ip4_frag.c **** #endif /* IP_REASS_CHECK_OVERLAP */
 1224              		.loc 1 439 7
 1225 02a2 B7060000 		lui	a3,%hi(.LC0)
 1226              	.LVL128:
 1227 02a6 B7050000 		lui	a1,%hi(.LC9)
 1228 02aa 37050000 		lui	a0,%hi(.LC2)
 1229 02ae 93860600 		addi	a3,a3,%lo(.LC0)
 1230 02b2 1306701B 		li	a2,439
 1231 02b6 93850500 		addi	a1,a1,%lo(.LC9)
 1232 02ba 13050500 		addi	a0,a0,%lo(.LC2)
 1233 02be 97000000 		call	printf
 1233      E7800000 
 1234              	.LVL129:
 1235              	.L83:
 439:C:/Users/stapi/OneDrive/Desktop/GD32VW553/GD32VW55X_Wifi_BLE_SDK/GD32VW55x_RELEASE_V1.0.2/MSDK/lwip/lwip-2.1.2/src/core/ipv4\ip4_frag.c **** #endif /* IP_REASS_CHECK_OVERLAP */
 1236              		.loc 1 439 7
 439:C:/Users/stapi/OneDrive/Desktop/GD32VW553/GD32VW55X_Wifi_BLE_SDK/GD32VW55x_RELEASE_V1.0.2/MSDK/lwip/lwip-2.1.2/src/core/ipv4\ip4_frag.c **** #endif /* IP_REASS_CHECK_OVERLAP */
 1237              		.loc 1 439 7
 439:C:/Users/stapi/OneDrive/Desktop/GD32VW553/GD32VW55X_Wifi_BLE_SDK/GD32VW55x_RELEASE_V1.0.2/MSDK/lwip/lwip-2.1.2/src/core/ipv4\ip4_frag.c **** #endif /* IP_REASS_CHECK_OVERLAP */
 1238              		.loc 1 439 7
 1239 02c6 01A0     		j	.L83
 1240              	.LVL130:
 1241              	.L91:
 469:C:/Users/stapi/OneDrive/Desktop/GD32VW553/GD32VW55X_Wifi_BLE_SDK/GD32VW55x_RELEASE_V1.0.2/MSDK/lwip/lwip-2.1.2/src/core/ipv4\ip4_frag.c ****           if (iprh_prev->end != iprh->start) {
 1242              		.loc 1 469 11
 469:C:/Users/stapi/OneDrive/Desktop/GD32VW553/GD32VW55X_Wifi_BLE_SDK/GD32VW55x_RELEASE_V1.0.2/MSDK/lwip/lwip-2.1.2/src/core/ipv4\ip4_frag.c ****           if (iprh_prev->end != iprh->start) {
 1243              		.loc 1 469 16 is_stmt 0
 1244 02c8 5043     		lw	a2,4(a4)
 1245              	.LVL131:
 470:C:/Users/stapi/OneDrive/Desktop/GD32VW553/GD32VW55X_Wifi_BLE_SDK/GD32VW55x_RELEASE_V1.0.2/MSDK/lwip/lwip-2.1.2/src/core/ipv4\ip4_frag.c ****             valid = 0;
 1246              		.loc 1 470 11 is_stmt 1
 470:C:/Users/stapi/OneDrive/Desktop/GD32VW553/GD32VW55X_Wifi_BLE_SDK/GD32VW55x_RELEASE_V1.0.2/MSDK/lwip/lwip-2.1.2/src/core/ipv4\ip4_frag.c ****             valid = 0;
 1247              		.loc 1 470 24 is_stmt 0
 1248 02ca 03C56700 		lbu	a0,6(a5)
 1249 02ce 03C77700 		lbu	a4,7(a5)
 1250              	.LVL132:
 470:C:/Users/stapi/OneDrive/Desktop/GD32VW553/GD32VW55X_Wifi_BLE_SDK/GD32VW55x_RELEASE_V1.0.2/MSDK/lwip/lwip-2.1.2/src/core/ipv4\ip4_frag.c ****             valid = 0;
 1251              		.loc 1 470 37
 1252 02d2 83475600 		lbu	a5,5(a2)
 1253              	.LVL133:
 1254 02d6 83454600 		lbu	a1,4(a2)
 470:C:/Users/stapi/OneDrive/Desktop/GD32VW553/GD32VW55X_Wifi_BLE_SDK/GD32VW55x_RELEASE_V1.0.2/MSDK/lwip/lwip-2.1.2/src/core/ipv4\ip4_frag.c ****             valid = 0;
 1255              		.loc 1 470 24
 1256 02da 2207     		slli	a4,a4,8
 470:C:/Users/stapi/OneDrive/Desktop/GD32VW553/GD32VW55X_Wifi_BLE_SDK/GD32VW55x_RELEASE_V1.0.2/MSDK/lwip/lwip-2.1.2/src/core/ipv4\ip4_frag.c ****             valid = 0;
 1257              		.loc 1 470 37
 1258 02dc A207     		slli	a5,a5,8
 470:C:/Users/stapi/OneDrive/Desktop/GD32VW553/GD32VW55X_Wifi_BLE_SDK/GD32VW55x_RELEASE_V1.0.2/MSDK/lwip/lwip-2.1.2/src/core/ipv4\ip4_frag.c ****             valid = 0;
 1259              		.loc 1 470 14
 1260 02de 498F     		or	a4,a4,a0
 1261 02e0 CD8F     		or	a5,a5,a1
 1262 02e2 631AF720 		bne	a4,a5,.L116
 474:C:/Users/stapi/OneDrive/Desktop/GD32VW553/GD32VW55X_Wifi_BLE_SDK/GD32VW55x_RELEASE_V1.0.2/MSDK/lwip/lwip-2.1.2/src/core/ipv4\ip4_frag.c ****           q = iprh->next_pbuf;
 1263              		.loc 1 474 11 is_stmt 1
 1264              	.LVL134:
 475:C:/Users/stapi/OneDrive/Desktop/GD32VW553/GD32VW55X_Wifi_BLE_SDK/GD32VW55x_RELEASE_V1.0.2/MSDK/lwip/lwip-2.1.2/src/core/ipv4\ip4_frag.c ****         }
 1265              		.loc 1 475 11
 475:C:/Users/stapi/OneDrive/Desktop/GD32VW553/GD32VW55X_Wifi_BLE_SDK/GD32VW55x_RELEASE_V1.0.2/MSDK/lwip/lwip-2.1.2/src/core/ipv4\ip4_frag.c ****         }
 1266              		.loc 1 475 13 is_stmt 0
 1267 02e6 83471600 		lbu	a5,1(a2)
 1268 02ea 03470600 		lbu	a4,0(a2)
 1269 02ee A207     		slli	a5,a5,8
 1270 02f0 D98F     		or	a5,a5,a4
 1271 02f2 03472600 		lbu	a4,2(a2)
 1272 02f6 4207     		slli	a4,a4,16
 1273 02f8 D98F     		or	a5,a4,a5
 1274 02fa 03473600 		lbu	a4,3(a2)
 1275 02fe 6207     		slli	a4,a4,24
 1276 0300 5D8F     		or	a4,a4,a5
 1277              	.LVL135:
 1278 0302 B287     		mv	a5,a2
 1279 0304 39B7     		j	.L90
 1280              	.LVL136:
 1281              	.L148:
 481:C:/Users/stapi/OneDrive/Desktop/GD32VW553/GD32VW55X_Wifi_BLE_SDK/GD32VW55x_RELEASE_V1.0.2/MSDK/lwip/lwip-2.1.2/src/core/ipv4\ip4_frag.c ****                       ((struct ip_reass_helper *)ipr->p->payload) != iprh);
 1282              		.loc 1 481 11 is_stmt 1
 481:C:/Users/stapi/OneDrive/Desktop/GD32VW553/GD32VW55X_Wifi_BLE_SDK/GD32VW55x_RELEASE_V1.0.2/MSDK/lwip/lwip-2.1.2/src/core/ipv4\ip4_frag.c ****                       ((struct ip_reass_helper *)ipr->p->payload) != iprh);
 1283              		.loc 1 481 11
 483:C:/Users/stapi/OneDrive/Desktop/GD32VW553/GD32VW55X_Wifi_BLE_SDK/GD32VW55x_RELEASE_V1.0.2/MSDK/lwip/lwip-2.1.2/src/core/ipv4\ip4_frag.c ****                       iprh->next_pbuf == NULL);
 1284              		.loc 1 483 11
 483:C:/Users/stapi/OneDrive/Desktop/GD32VW553/GD32VW55X_Wifi_BLE_SDK/GD32VW55x_RELEASE_V1.0.2/MSDK/lwip/lwip-2.1.2/src/core/ipv4\ip4_frag.c ****                       iprh->next_pbuf == NULL);
 1285              		.loc 1 483 11
 1286 0306 03C71700 		lbu	a4,1(a5)
 1287              	.LVL137:
 1288 030a 83C60700 		lbu	a3,0(a5)
 1289 030e 2207     		slli	a4,a4,8
 1290 0310 D98E     		or	a3,a4,a3
 1291 0312 03C72700 		lbu	a4,2(a5)
 1292 0316 83C73700 		lbu	a5,3(a5)
 1293              	.LVL138:
 1294 031a 4207     		slli	a4,a4,16
 1295 031c 558F     		or	a4,a4,a3
 1296 031e E207     		slli	a5,a5,24
 1297 0320 D98F     		or	a5,a5,a4
 1298 0322 638B071C 		beq	a5,zero,.L88
 483:C:/Users/stapi/OneDrive/Desktop/GD32VW553/GD32VW55X_Wifi_BLE_SDK/GD32VW55x_RELEASE_V1.0.2/MSDK/lwip/lwip-2.1.2/src/core/ipv4\ip4_frag.c ****                       iprh->next_pbuf == NULL);
 1299              		.loc 1 483 11
 483:C:/Users/stapi/OneDrive/Desktop/GD32VW553/GD32VW55X_Wifi_BLE_SDK/GD32VW55x_RELEASE_V1.0.2/MSDK/lwip/lwip-2.1.2/src/core/ipv4\ip4_frag.c ****                       iprh->next_pbuf == NULL);
 1300              		.loc 1 483 11
 1301 0326 B7060000 		lui	a3,%hi(.LC0)
 1302 032a B7050000 		lui	a1,%hi(.LC12)
 1303 032e 37050000 		lui	a0,%hi(.LC2)
 1304 0332 93860600 		addi	a3,a3,%lo(.LC0)
 1305 0336 1306301E 		li	a2,483
 1306 033a 93850500 		addi	a1,a1,%lo(.LC12)
 1307 033e 13050500 		addi	a0,a0,%lo(.LC2)
 1308 0342 97000000 		call	printf
 1308      E7800000 
 1309              	.LVL139:
 1310              	.L95:
 483:C:/Users/stapi/OneDrive/Desktop/GD32VW553/GD32VW55X_Wifi_BLE_SDK/GD32VW55x_RELEASE_V1.0.2/MSDK/lwip/lwip-2.1.2/src/core/ipv4\ip4_frag.c ****                       iprh->next_pbuf == NULL);
 1311              		.loc 1 483 11
 483:C:/Users/stapi/OneDrive/Desktop/GD32VW553/GD32VW55X_Wifi_BLE_SDK/GD32VW55x_RELEASE_V1.0.2/MSDK/lwip/lwip-2.1.2/src/core/ipv4\ip4_frag.c ****                       iprh->next_pbuf == NULL);
 1312              		.loc 1 483 11
 483:C:/Users/stapi/OneDrive/Desktop/GD32VW553/GD32VW55X_Wifi_BLE_SDK/GD32VW55x_RELEASE_V1.0.2/MSDK/lwip/lwip-2.1.2/src/core/ipv4\ip4_frag.c ****                       iprh->next_pbuf == NULL);
 1313              		.loc 1 483 11
 1314 034a 01A0     		j	.L95
 1315              	.LVL140:
 1316              	.L99:
 1317              	.LBE33:
 1318              	.LBE32:
 1319              	.LBB35:
 644:C:/Users/stapi/OneDrive/Desktop/GD32VW553/GD32VW55X_Wifi_BLE_SDK/GD32VW55x_RELEASE_V1.0.2/MSDK/lwip/lwip-2.1.2/src/core/ipv4\ip4_frag.c **** 
 1320              		.loc 1 644 7
 647:C:/Users/stapi/OneDrive/Desktop/GD32VW553/GD32VW55X_Wifi_BLE_SDK/GD32VW55x_RELEASE_V1.0.2/MSDK/lwip/lwip-2.1.2/src/core/ipv4\ip4_frag.c ****       pbuf_cat(p, r);
 1321              		.loc 1 647 7 is_stmt 0
 1322 034c D145     		li	a1,20
 1323 034e 2685     		mv	a0,s1
 644:C:/Users/stapi/OneDrive/Desktop/GD32VW553/GD32VW55X_Wifi_BLE_SDK/GD32VW55x_RELEASE_V1.0.2/MSDK/lwip/lwip-2.1.2/src/core/ipv4\ip4_frag.c **** 
 1324              		.loc 1 644 12
 1325 0350 83AA4400 		lw	s5,4(s1)
 1326              	.LVL141:
 647:C:/Users/stapi/OneDrive/Desktop/GD32VW553/GD32VW55X_Wifi_BLE_SDK/GD32VW55x_RELEASE_V1.0.2/MSDK/lwip/lwip-2.1.2/src/core/ipv4\ip4_frag.c ****       pbuf_cat(p, r);
 1327              		.loc 1 647 7 is_stmt 1
 1328 0354 97000000 		call	pbuf_remove_header
 1328      E7800000 
 1329              	.LVL142:
 648:C:/Users/stapi/OneDrive/Desktop/GD32VW553/GD32VW55X_Wifi_BLE_SDK/GD32VW55x_RELEASE_V1.0.2/MSDK/lwip/lwip-2.1.2/src/core/ipv4\ip4_frag.c ****       r = iprh->next_pbuf;
 1330              		.loc 1 648 7
 1331 035c A685     		mv	a1,s1
 1332 035e 4A85     		mv	a0,s2
 1333 0360 97000000 		call	pbuf_cat
 1333      E7800000 
 1334              	.LVL143:
 649:C:/Users/stapi/OneDrive/Desktop/GD32VW553/GD32VW55X_Wifi_BLE_SDK/GD32VW55x_RELEASE_V1.0.2/MSDK/lwip/lwip-2.1.2/src/core/ipv4\ip4_frag.c ****     }
 1335              		.loc 1 649 7
 649:C:/Users/stapi/OneDrive/Desktop/GD32VW553/GD32VW55X_Wifi_BLE_SDK/GD32VW55x_RELEASE_V1.0.2/MSDK/lwip/lwip-2.1.2/src/core/ipv4\ip4_frag.c ****     }
 1336              		.loc 1 649 9 is_stmt 0
 1337 0368 83C71A00 		lbu	a5,1(s5)
 1338 036c 83C40A00 		lbu	s1,0(s5)
 1339              	.LVL144:
 1340 0370 A207     		slli	a5,a5,8
 1341 0372 C58F     		or	a5,a5,s1
 1342 0374 83C42A00 		lbu	s1,2(s5)
 1343 0378 C204     		slli	s1,s1,16
 1344 037a C58F     		or	a5,s1,a5
 1345 037c 83C43A00 		lbu	s1,3(s5)
 1346 0380 E204     		slli	s1,s1,24
 1347 0382 DD8C     		or	s1,s1,a5
 1348              	.LVL145:
 1349 0384 11AC     		j	.L98
 1350              	.LVL146:
 1351              	.L102:
 657:C:/Users/stapi/OneDrive/Desktop/GD32VW553/GD32VW55X_Wifi_BLE_SDK/GD32VW55x_RELEASE_V1.0.2/MSDK/lwip/lwip-2.1.2/src/core/ipv4\ip4_frag.c ****           break;
 1352              		.loc 1 657 9 is_stmt 1
 657:C:/Users/stapi/OneDrive/Desktop/GD32VW553/GD32VW55X_Wifi_BLE_SDK/GD32VW55x_RELEASE_V1.0.2/MSDK/lwip/lwip-2.1.2/src/core/ipv4\ip4_frag.c ****           break;
 1353              		.loc 1 657 21 is_stmt 0
 1354 0386 9C40     		lw	a5,0(s1)
 1355 0388 21AC     		j	.L154
 1356              	.LVL147:
 1357              	.L103:
 668:C:/Users/stapi/OneDrive/Desktop/GD32VW553/GD32VW55X_Wifi_BLE_SDK/GD32VW55x_RELEASE_V1.0.2/MSDK/lwip/lwip-2.1.2/src/core/ipv4\ip4_frag.c ****     ip_reass_pbufcount = (u16_t)(ip_reass_pbufcount - clen);
 1358              		.loc 1 668 5 is_stmt 1 discriminator 2
 668:C:/Users/stapi/OneDrive/Desktop/GD32VW553/GD32VW55X_Wifi_BLE_SDK/GD32VW55x_RELEASE_V1.0.2/MSDK/lwip/lwip-2.1.2/src/core/ipv4\ip4_frag.c ****     ip_reass_pbufcount = (u16_t)(ip_reass_pbufcount - clen);
 1359              		.loc 1 668 5 discriminator 2
 669:C:/Users/stapi/OneDrive/Desktop/GD32VW553/GD32VW55X_Wifi_BLE_SDK/GD32VW55x_RELEASE_V1.0.2/MSDK/lwip/lwip-2.1.2/src/core/ipv4\ip4_frag.c **** 
 1360              		.loc 1 669 5 discriminator 2
 669:C:/Users/stapi/OneDrive/Desktop/GD32VW553/GD32VW55X_Wifi_BLE_SDK/GD32VW55x_RELEASE_V1.0.2/MSDK/lwip/lwip-2.1.2/src/core/ipv4\ip4_frag.c **** 
 1361              		.loc 1 669 26 is_stmt 0 discriminator 2
 1362 038a 898F     		sub	a5,a5,a0
 669:C:/Users/stapi/OneDrive/Desktop/GD32VW553/GD32VW55X_Wifi_BLE_SDK/GD32VW55x_RELEASE_V1.0.2/MSDK/lwip/lwip-2.1.2/src/core/ipv4\ip4_frag.c **** 
 1363              		.loc 1 669 24 discriminator 2
 1364 038c 2390F900 		sh	a5,0(s3)
 671:C:/Users/stapi/OneDrive/Desktop/GD32VW553/GD32VW55X_Wifi_BLE_SDK/GD32VW55x_RELEASE_V1.0.2/MSDK/lwip/lwip-2.1.2/src/core/ipv4\ip4_frag.c **** 
 1365              		.loc 1 671 36 is_stmt 1 discriminator 2
 674:C:/Users/stapi/OneDrive/Desktop/GD32VW553/GD32VW55X_Wifi_BLE_SDK/GD32VW55x_RELEASE_V1.0.2/MSDK/lwip/lwip-2.1.2/src/core/ipv4\ip4_frag.c ****   }
 1366              		.loc 1 674 5 discriminator 2
 1367              	.LVL148:
 1368              	.L60:
 1369              	.LBE35:
 693:C:/Users/stapi/OneDrive/Desktop/GD32VW553/GD32VW55X_Wifi_BLE_SDK/GD32VW55x_RELEASE_V1.0.2/MSDK/lwip/lwip-2.1.2/src/core/ipv4\ip4_frag.c **** #endif /* IP_REASSEMBLY */
 1370              		.loc 1 693 1 is_stmt 0
 1371 0390 4A85     		mv	a0,s2
 1372 0392 17030000 		tail	__riscv_restore_10
