   1              		.file	"lwiperf.c"
   2              		.option nopic
   3              		.attribute arch, "rv32i2p0_m2p0_a2p0_f2p0_c2p0_b_p0p94"
   4              		.attribute unaligned_access, 0
   5              		.attribute stack_align, 16
   6              		.text
   7              	.Ltext0:
   8              		.cfi_sections	.debug_frame
   9              		.section	.rodata.lwiperf_tcp_close.str1.4,"aMS",@progbits,1
  10              		.align	2
  11              	.LC0:
  12 0000 433A2F55 		.string	"C:/Users/stapi/OneDrive/Desktop/GD32VW553/V1_MQTT_OK/GD32VW55X_Wifi_BLE_SDK/GD32VW55x_REL
  12      73657273 
  12      2F737461 
  12      70692F4F 
  12      6E654472 
  13 0095 000000   		.align	2
  14              	.LC1:
  15 0098 6475706C 		.string	"duplicate entry"
  15      69636174 
  15      6520656E 
  15      74727900 
  16              		.align	2
  17              	.LC2:
  18 00a8 41737365 		.string	"Assertion \"%s\" failed at line %d in %s\n"
  18      7274696F 
  18      6E202225 
  18      73222066 
  18      61696C65 
  19              		.align	2
  20              	.LC3:
  21 00d0 6572726F 		.string	"error"
  21      7200
  22              		.section	.text.lwiperf_tcp_close,"ax",@progbits
  23              		.align	1
  25              	lwiperf_tcp_close:
  26              	.LFB8:
  27              		.file 1 "C:/Users/stapi/OneDrive/Desktop/GD32VW553/V1_MQTT_OK/GD32VW55X_Wifi_BLE_SDK/GD32VW55x_REL
   1:C:/Users/stapi/OneDrive/Desktop/GD32VW553/V1_MQTT_OK/GD32VW55X_Wifi_BLE_SDK/GD32VW55x_RELEASE_V1.0.2/MSDK/lwip/lwip-2.1.2/src/apps/lwiperf\lwiperf.c **** /**
   2:C:/Users/stapi/OneDrive/Desktop/GD32VW553/V1_MQTT_OK/GD32VW55X_Wifi_BLE_SDK/GD32VW55x_RELEASE_V1.0.2/MSDK/lwip/lwip-2.1.2/src/apps/lwiperf\lwiperf.c ****  * @file
   3:C:/Users/stapi/OneDrive/Desktop/GD32VW553/V1_MQTT_OK/GD32VW55X_Wifi_BLE_SDK/GD32VW55x_RELEASE_V1.0.2/MSDK/lwip/lwip-2.1.2/src/apps/lwiperf\lwiperf.c ****  * lwIP iPerf server implementation
   4:C:/Users/stapi/OneDrive/Desktop/GD32VW553/V1_MQTT_OK/GD32VW55X_Wifi_BLE_SDK/GD32VW55x_RELEASE_V1.0.2/MSDK/lwip/lwip-2.1.2/src/apps/lwiperf\lwiperf.c ****  */
   5:C:/Users/stapi/OneDrive/Desktop/GD32VW553/V1_MQTT_OK/GD32VW55X_Wifi_BLE_SDK/GD32VW55x_RELEASE_V1.0.2/MSDK/lwip/lwip-2.1.2/src/apps/lwiperf\lwiperf.c **** 
   6:C:/Users/stapi/OneDrive/Desktop/GD32VW553/V1_MQTT_OK/GD32VW55X_Wifi_BLE_SDK/GD32VW55x_RELEASE_V1.0.2/MSDK/lwip/lwip-2.1.2/src/apps/lwiperf\lwiperf.c **** /**
   7:C:/Users/stapi/OneDrive/Desktop/GD32VW553/V1_MQTT_OK/GD32VW55X_Wifi_BLE_SDK/GD32VW55x_RELEASE_V1.0.2/MSDK/lwip/lwip-2.1.2/src/apps/lwiperf\lwiperf.c ****  * @defgroup iperf Iperf server
   8:C:/Users/stapi/OneDrive/Desktop/GD32VW553/V1_MQTT_OK/GD32VW55X_Wifi_BLE_SDK/GD32VW55x_RELEASE_V1.0.2/MSDK/lwip/lwip-2.1.2/src/apps/lwiperf\lwiperf.c ****  * @ingroup apps
   9:C:/Users/stapi/OneDrive/Desktop/GD32VW553/V1_MQTT_OK/GD32VW55X_Wifi_BLE_SDK/GD32VW55x_RELEASE_V1.0.2/MSDK/lwip/lwip-2.1.2/src/apps/lwiperf\lwiperf.c ****  *
  10:C:/Users/stapi/OneDrive/Desktop/GD32VW553/V1_MQTT_OK/GD32VW55X_Wifi_BLE_SDK/GD32VW55x_RELEASE_V1.0.2/MSDK/lwip/lwip-2.1.2/src/apps/lwiperf\lwiperf.c ****  * This is a simple performance measuring client/server to check your bandwith using
  11:C:/Users/stapi/OneDrive/Desktop/GD32VW553/V1_MQTT_OK/GD32VW55X_Wifi_BLE_SDK/GD32VW55x_RELEASE_V1.0.2/MSDK/lwip/lwip-2.1.2/src/apps/lwiperf\lwiperf.c ****  * iPerf2 on a PC as server/client.
  12:C:/Users/stapi/OneDrive/Desktop/GD32VW553/V1_MQTT_OK/GD32VW55X_Wifi_BLE_SDK/GD32VW55x_RELEASE_V1.0.2/MSDK/lwip/lwip-2.1.2/src/apps/lwiperf\lwiperf.c ****  * It is currently a minimal implementation providing a TCP client/server only.
  13:C:/Users/stapi/OneDrive/Desktop/GD32VW553/V1_MQTT_OK/GD32VW55X_Wifi_BLE_SDK/GD32VW55x_RELEASE_V1.0.2/MSDK/lwip/lwip-2.1.2/src/apps/lwiperf\lwiperf.c ****  *
  14:C:/Users/stapi/OneDrive/Desktop/GD32VW553/V1_MQTT_OK/GD32VW55X_Wifi_BLE_SDK/GD32VW55x_RELEASE_V1.0.2/MSDK/lwip/lwip-2.1.2/src/apps/lwiperf\lwiperf.c ****  * @todo:
  15:C:/Users/stapi/OneDrive/Desktop/GD32VW553/V1_MQTT_OK/GD32VW55X_Wifi_BLE_SDK/GD32VW55x_RELEASE_V1.0.2/MSDK/lwip/lwip-2.1.2/src/apps/lwiperf\lwiperf.c ****  * - implement UDP mode
  16:C:/Users/stapi/OneDrive/Desktop/GD32VW553/V1_MQTT_OK/GD32VW55X_Wifi_BLE_SDK/GD32VW55x_RELEASE_V1.0.2/MSDK/lwip/lwip-2.1.2/src/apps/lwiperf\lwiperf.c ****  * - protect combined sessions handling (via 'related_master_state') against reallocation
  17:C:/Users/stapi/OneDrive/Desktop/GD32VW553/V1_MQTT_OK/GD32VW55X_Wifi_BLE_SDK/GD32VW55x_RELEASE_V1.0.2/MSDK/lwip/lwip-2.1.2/src/apps/lwiperf\lwiperf.c ****  *   (this is a pointer address, currently, so if the same memory is allocated again,
  18:C:/Users/stapi/OneDrive/Desktop/GD32VW553/V1_MQTT_OK/GD32VW55X_Wifi_BLE_SDK/GD32VW55x_RELEASE_V1.0.2/MSDK/lwip/lwip-2.1.2/src/apps/lwiperf\lwiperf.c ****  *    session pairs (tx/rx) can be confused on reallocation)
  19:C:/Users/stapi/OneDrive/Desktop/GD32VW553/V1_MQTT_OK/GD32VW55X_Wifi_BLE_SDK/GD32VW55x_RELEASE_V1.0.2/MSDK/lwip/lwip-2.1.2/src/apps/lwiperf\lwiperf.c ****  */
  20:C:/Users/stapi/OneDrive/Desktop/GD32VW553/V1_MQTT_OK/GD32VW55X_Wifi_BLE_SDK/GD32VW55x_RELEASE_V1.0.2/MSDK/lwip/lwip-2.1.2/src/apps/lwiperf\lwiperf.c **** 
  21:C:/Users/stapi/OneDrive/Desktop/GD32VW553/V1_MQTT_OK/GD32VW55X_Wifi_BLE_SDK/GD32VW55x_RELEASE_V1.0.2/MSDK/lwip/lwip-2.1.2/src/apps/lwiperf\lwiperf.c **** /*
  22:C:/Users/stapi/OneDrive/Desktop/GD32VW553/V1_MQTT_OK/GD32VW55X_Wifi_BLE_SDK/GD32VW55x_RELEASE_V1.0.2/MSDK/lwip/lwip-2.1.2/src/apps/lwiperf\lwiperf.c ****  * Copyright (c) 2014 Simon Goldschmidt
  23:C:/Users/stapi/OneDrive/Desktop/GD32VW553/V1_MQTT_OK/GD32VW55X_Wifi_BLE_SDK/GD32VW55x_RELEASE_V1.0.2/MSDK/lwip/lwip-2.1.2/src/apps/lwiperf\lwiperf.c ****  * Copyright (c) 2024, GigaDevice Semiconductor Inc.
  24:C:/Users/stapi/OneDrive/Desktop/GD32VW553/V1_MQTT_OK/GD32VW55X_Wifi_BLE_SDK/GD32VW55x_RELEASE_V1.0.2/MSDK/lwip/lwip-2.1.2/src/apps/lwiperf\lwiperf.c ****  * All rights reserved.
  25:C:/Users/stapi/OneDrive/Desktop/GD32VW553/V1_MQTT_OK/GD32VW55X_Wifi_BLE_SDK/GD32VW55x_RELEASE_V1.0.2/MSDK/lwip/lwip-2.1.2/src/apps/lwiperf\lwiperf.c ****  *
  26:C:/Users/stapi/OneDrive/Desktop/GD32VW553/V1_MQTT_OK/GD32VW55X_Wifi_BLE_SDK/GD32VW55x_RELEASE_V1.0.2/MSDK/lwip/lwip-2.1.2/src/apps/lwiperf\lwiperf.c ****  * Redistribution and use in source and binary forms, with or without modification,
  27:C:/Users/stapi/OneDrive/Desktop/GD32VW553/V1_MQTT_OK/GD32VW55X_Wifi_BLE_SDK/GD32VW55x_RELEASE_V1.0.2/MSDK/lwip/lwip-2.1.2/src/apps/lwiperf\lwiperf.c ****  * are permitted provided that the following conditions are met:
  28:C:/Users/stapi/OneDrive/Desktop/GD32VW553/V1_MQTT_OK/GD32VW55X_Wifi_BLE_SDK/GD32VW55x_RELEASE_V1.0.2/MSDK/lwip/lwip-2.1.2/src/apps/lwiperf\lwiperf.c ****  *
  29:C:/Users/stapi/OneDrive/Desktop/GD32VW553/V1_MQTT_OK/GD32VW55X_Wifi_BLE_SDK/GD32VW55x_RELEASE_V1.0.2/MSDK/lwip/lwip-2.1.2/src/apps/lwiperf\lwiperf.c ****  * 1. Redistributions of source code must retain the above copyright notice,
  30:C:/Users/stapi/OneDrive/Desktop/GD32VW553/V1_MQTT_OK/GD32VW55X_Wifi_BLE_SDK/GD32VW55x_RELEASE_V1.0.2/MSDK/lwip/lwip-2.1.2/src/apps/lwiperf\lwiperf.c ****  *    this list of conditions and the following disclaimer.
  31:C:/Users/stapi/OneDrive/Desktop/GD32VW553/V1_MQTT_OK/GD32VW55X_Wifi_BLE_SDK/GD32VW55x_RELEASE_V1.0.2/MSDK/lwip/lwip-2.1.2/src/apps/lwiperf\lwiperf.c ****  * 2. Redistributions in binary form must reproduce the above copyright notice,
  32:C:/Users/stapi/OneDrive/Desktop/GD32VW553/V1_MQTT_OK/GD32VW55X_Wifi_BLE_SDK/GD32VW55x_RELEASE_V1.0.2/MSDK/lwip/lwip-2.1.2/src/apps/lwiperf\lwiperf.c ****  *    this list of conditions and the following disclaimer in the documentation
  33:C:/Users/stapi/OneDrive/Desktop/GD32VW553/V1_MQTT_OK/GD32VW55X_Wifi_BLE_SDK/GD32VW55x_RELEASE_V1.0.2/MSDK/lwip/lwip-2.1.2/src/apps/lwiperf\lwiperf.c ****  *    and/or other materials provided with the distribution.
  34:C:/Users/stapi/OneDrive/Desktop/GD32VW553/V1_MQTT_OK/GD32VW55X_Wifi_BLE_SDK/GD32VW55x_RELEASE_V1.0.2/MSDK/lwip/lwip-2.1.2/src/apps/lwiperf\lwiperf.c ****  * 3. The name of the author may not be used to endorse or promote products
  35:C:/Users/stapi/OneDrive/Desktop/GD32VW553/V1_MQTT_OK/GD32VW55X_Wifi_BLE_SDK/GD32VW55x_RELEASE_V1.0.2/MSDK/lwip/lwip-2.1.2/src/apps/lwiperf\lwiperf.c ****  *    derived from this software without specific prior written permission.
  36:C:/Users/stapi/OneDrive/Desktop/GD32VW553/V1_MQTT_OK/GD32VW55X_Wifi_BLE_SDK/GD32VW55x_RELEASE_V1.0.2/MSDK/lwip/lwip-2.1.2/src/apps/lwiperf\lwiperf.c ****  *
  37:C:/Users/stapi/OneDrive/Desktop/GD32VW553/V1_MQTT_OK/GD32VW55X_Wifi_BLE_SDK/GD32VW55x_RELEASE_V1.0.2/MSDK/lwip/lwip-2.1.2/src/apps/lwiperf\lwiperf.c ****  * THIS SOFTWARE IS PROVIDED BY THE AUTHOR ``AS IS'' AND ANY EXPRESS OR IMPLIED
  38:C:/Users/stapi/OneDrive/Desktop/GD32VW553/V1_MQTT_OK/GD32VW55X_Wifi_BLE_SDK/GD32VW55x_RELEASE_V1.0.2/MSDK/lwip/lwip-2.1.2/src/apps/lwiperf\lwiperf.c ****  * WARRANTIES, INCLUDING, BUT NOT LIMITED TO, THE IMPLIED WARRANTIES OF
  39:C:/Users/stapi/OneDrive/Desktop/GD32VW553/V1_MQTT_OK/GD32VW55X_Wifi_BLE_SDK/GD32VW55x_RELEASE_V1.0.2/MSDK/lwip/lwip-2.1.2/src/apps/lwiperf\lwiperf.c ****  * MERCHANTABILITY AND FITNESS FOR A PARTICULAR PURPOSE ARE DISCLAIMED. IN NO EVENT
  40:C:/Users/stapi/OneDrive/Desktop/GD32VW553/V1_MQTT_OK/GD32VW55X_Wifi_BLE_SDK/GD32VW55x_RELEASE_V1.0.2/MSDK/lwip/lwip-2.1.2/src/apps/lwiperf\lwiperf.c ****  * SHALL THE AUTHOR BE LIABLE FOR ANY DIRECT, INDIRECT, INCIDENTAL, SPECIAL,
  41:C:/Users/stapi/OneDrive/Desktop/GD32VW553/V1_MQTT_OK/GD32VW55X_Wifi_BLE_SDK/GD32VW55x_RELEASE_V1.0.2/MSDK/lwip/lwip-2.1.2/src/apps/lwiperf\lwiperf.c ****  * EXEMPLARY, OR CONSEQUENTIAL DAMAGES (INCLUDING, BUT NOT LIMITED TO, PROCUREMENT
  42:C:/Users/stapi/OneDrive/Desktop/GD32VW553/V1_MQTT_OK/GD32VW55X_Wifi_BLE_SDK/GD32VW55x_RELEASE_V1.0.2/MSDK/lwip/lwip-2.1.2/src/apps/lwiperf\lwiperf.c ****  * OF SUBSTITUTE GOODS OR SERVICES; LOSS OF USE, DATA, OR PROFITS; OR BUSINESS
  43:C:/Users/stapi/OneDrive/Desktop/GD32VW553/V1_MQTT_OK/GD32VW55X_Wifi_BLE_SDK/GD32VW55x_RELEASE_V1.0.2/MSDK/lwip/lwip-2.1.2/src/apps/lwiperf\lwiperf.c ****  * INTERRUPTION) HOWEVER CAUSED AND ON ANY THEORY OF LIABILITY, WHETHER IN
  44:C:/Users/stapi/OneDrive/Desktop/GD32VW553/V1_MQTT_OK/GD32VW55X_Wifi_BLE_SDK/GD32VW55x_RELEASE_V1.0.2/MSDK/lwip/lwip-2.1.2/src/apps/lwiperf\lwiperf.c ****  * CONTRACT, STRICT LIABILITY, OR TORT (INCLUDING NEGLIGENCE OR OTHERWISE) ARISING
  45:C:/Users/stapi/OneDrive/Desktop/GD32VW553/V1_MQTT_OK/GD32VW55X_Wifi_BLE_SDK/GD32VW55x_RELEASE_V1.0.2/MSDK/lwip/lwip-2.1.2/src/apps/lwiperf\lwiperf.c ****  * IN ANY WAY OUT OF THE USE OF THIS SOFTWARE, EVEN IF ADVISED OF THE POSSIBILITY
  46:C:/Users/stapi/OneDrive/Desktop/GD32VW553/V1_MQTT_OK/GD32VW55X_Wifi_BLE_SDK/GD32VW55x_RELEASE_V1.0.2/MSDK/lwip/lwip-2.1.2/src/apps/lwiperf\lwiperf.c ****  * OF SUCH DAMAGE.
  47:C:/Users/stapi/OneDrive/Desktop/GD32VW553/V1_MQTT_OK/GD32VW55X_Wifi_BLE_SDK/GD32VW55x_RELEASE_V1.0.2/MSDK/lwip/lwip-2.1.2/src/apps/lwiperf\lwiperf.c ****  *
  48:C:/Users/stapi/OneDrive/Desktop/GD32VW553/V1_MQTT_OK/GD32VW55X_Wifi_BLE_SDK/GD32VW55x_RELEASE_V1.0.2/MSDK/lwip/lwip-2.1.2/src/apps/lwiperf\lwiperf.c ****  * This file is part of the lwIP TCP/IP stack.
  49:C:/Users/stapi/OneDrive/Desktop/GD32VW553/V1_MQTT_OK/GD32VW55X_Wifi_BLE_SDK/GD32VW55x_RELEASE_V1.0.2/MSDK/lwip/lwip-2.1.2/src/apps/lwiperf\lwiperf.c ****  *
  50:C:/Users/stapi/OneDrive/Desktop/GD32VW553/V1_MQTT_OK/GD32VW55X_Wifi_BLE_SDK/GD32VW55x_RELEASE_V1.0.2/MSDK/lwip/lwip-2.1.2/src/apps/lwiperf\lwiperf.c ****  * Author: Simon Goldschmidt
  51:C:/Users/stapi/OneDrive/Desktop/GD32VW553/V1_MQTT_OK/GD32VW55X_Wifi_BLE_SDK/GD32VW55x_RELEASE_V1.0.2/MSDK/lwip/lwip-2.1.2/src/apps/lwiperf\lwiperf.c ****  */
  52:C:/Users/stapi/OneDrive/Desktop/GD32VW553/V1_MQTT_OK/GD32VW55X_Wifi_BLE_SDK/GD32VW55x_RELEASE_V1.0.2/MSDK/lwip/lwip-2.1.2/src/apps/lwiperf\lwiperf.c **** 
  53:C:/Users/stapi/OneDrive/Desktop/GD32VW553/V1_MQTT_OK/GD32VW55X_Wifi_BLE_SDK/GD32VW55x_RELEASE_V1.0.2/MSDK/lwip/lwip-2.1.2/src/apps/lwiperf\lwiperf.c **** #include "lwip/apps/lwiperf.h"
  54:C:/Users/stapi/OneDrive/Desktop/GD32VW553/V1_MQTT_OK/GD32VW55X_Wifi_BLE_SDK/GD32VW55x_RELEASE_V1.0.2/MSDK/lwip/lwip-2.1.2/src/apps/lwiperf\lwiperf.c **** 
  55:C:/Users/stapi/OneDrive/Desktop/GD32VW553/V1_MQTT_OK/GD32VW55X_Wifi_BLE_SDK/GD32VW55x_RELEASE_V1.0.2/MSDK/lwip/lwip-2.1.2/src/apps/lwiperf\lwiperf.c **** #include "lwip/tcp.h"
  56:C:/Users/stapi/OneDrive/Desktop/GD32VW553/V1_MQTT_OK/GD32VW55X_Wifi_BLE_SDK/GD32VW55x_RELEASE_V1.0.2/MSDK/lwip/lwip-2.1.2/src/apps/lwiperf\lwiperf.c **** #include "lwip/sys.h"
  57:C:/Users/stapi/OneDrive/Desktop/GD32VW553/V1_MQTT_OK/GD32VW55X_Wifi_BLE_SDK/GD32VW55x_RELEASE_V1.0.2/MSDK/lwip/lwip-2.1.2/src/apps/lwiperf\lwiperf.c **** 
  58:C:/Users/stapi/OneDrive/Desktop/GD32VW553/V1_MQTT_OK/GD32VW55X_Wifi_BLE_SDK/GD32VW55x_RELEASE_V1.0.2/MSDK/lwip/lwip-2.1.2/src/apps/lwiperf\lwiperf.c **** #include <string.h>
  59:C:/Users/stapi/OneDrive/Desktop/GD32VW553/V1_MQTT_OK/GD32VW55X_Wifi_BLE_SDK/GD32VW55x_RELEASE_V1.0.2/MSDK/lwip/lwip-2.1.2/src/apps/lwiperf\lwiperf.c **** 
  60:C:/Users/stapi/OneDrive/Desktop/GD32VW553/V1_MQTT_OK/GD32VW55X_Wifi_BLE_SDK/GD32VW55x_RELEASE_V1.0.2/MSDK/lwip/lwip-2.1.2/src/apps/lwiperf\lwiperf.c **** /* Currently, only TCP is implemented */
  61:C:/Users/stapi/OneDrive/Desktop/GD32VW553/V1_MQTT_OK/GD32VW55X_Wifi_BLE_SDK/GD32VW55x_RELEASE_V1.0.2/MSDK/lwip/lwip-2.1.2/src/apps/lwiperf\lwiperf.c **** #if LWIP_TCP && LWIP_CALLBACK_API
  62:C:/Users/stapi/OneDrive/Desktop/GD32VW553/V1_MQTT_OK/GD32VW55X_Wifi_BLE_SDK/GD32VW55x_RELEASE_V1.0.2/MSDK/lwip/lwip-2.1.2/src/apps/lwiperf\lwiperf.c **** 
  63:C:/Users/stapi/OneDrive/Desktop/GD32VW553/V1_MQTT_OK/GD32VW55X_Wifi_BLE_SDK/GD32VW55x_RELEASE_V1.0.2/MSDK/lwip/lwip-2.1.2/src/apps/lwiperf\lwiperf.c **** /** Specify the idle timeout (in seconds) after that the test fails */
  64:C:/Users/stapi/OneDrive/Desktop/GD32VW553/V1_MQTT_OK/GD32VW55X_Wifi_BLE_SDK/GD32VW55x_RELEASE_V1.0.2/MSDK/lwip/lwip-2.1.2/src/apps/lwiperf\lwiperf.c **** #ifndef LWIPERF_TCP_MAX_IDLE_SEC
  65:C:/Users/stapi/OneDrive/Desktop/GD32VW553/V1_MQTT_OK/GD32VW55X_Wifi_BLE_SDK/GD32VW55x_RELEASE_V1.0.2/MSDK/lwip/lwip-2.1.2/src/apps/lwiperf\lwiperf.c **** #define LWIPERF_TCP_MAX_IDLE_SEC    10U
  66:C:/Users/stapi/OneDrive/Desktop/GD32VW553/V1_MQTT_OK/GD32VW55X_Wifi_BLE_SDK/GD32VW55x_RELEASE_V1.0.2/MSDK/lwip/lwip-2.1.2/src/apps/lwiperf\lwiperf.c **** #endif
  67:C:/Users/stapi/OneDrive/Desktop/GD32VW553/V1_MQTT_OK/GD32VW55X_Wifi_BLE_SDK/GD32VW55x_RELEASE_V1.0.2/MSDK/lwip/lwip-2.1.2/src/apps/lwiperf\lwiperf.c **** #if LWIPERF_TCP_MAX_IDLE_SEC > 255
  68:C:/Users/stapi/OneDrive/Desktop/GD32VW553/V1_MQTT_OK/GD32VW55X_Wifi_BLE_SDK/GD32VW55x_RELEASE_V1.0.2/MSDK/lwip/lwip-2.1.2/src/apps/lwiperf\lwiperf.c **** #error LWIPERF_TCP_MAX_IDLE_SEC must fit into an u8_t
  69:C:/Users/stapi/OneDrive/Desktop/GD32VW553/V1_MQTT_OK/GD32VW55X_Wifi_BLE_SDK/GD32VW55x_RELEASE_V1.0.2/MSDK/lwip/lwip-2.1.2/src/apps/lwiperf\lwiperf.c **** #endif
  70:C:/Users/stapi/OneDrive/Desktop/GD32VW553/V1_MQTT_OK/GD32VW55X_Wifi_BLE_SDK/GD32VW55x_RELEASE_V1.0.2/MSDK/lwip/lwip-2.1.2/src/apps/lwiperf\lwiperf.c **** 
  71:C:/Users/stapi/OneDrive/Desktop/GD32VW553/V1_MQTT_OK/GD32VW55X_Wifi_BLE_SDK/GD32VW55x_RELEASE_V1.0.2/MSDK/lwip/lwip-2.1.2/src/apps/lwiperf\lwiperf.c **** /** Change this if you don't want to lwiperf to listen to any IP version */
  72:C:/Users/stapi/OneDrive/Desktop/GD32VW553/V1_MQTT_OK/GD32VW55X_Wifi_BLE_SDK/GD32VW55x_RELEASE_V1.0.2/MSDK/lwip/lwip-2.1.2/src/apps/lwiperf\lwiperf.c **** #ifndef LWIPERF_SERVER_IP_TYPE
  73:C:/Users/stapi/OneDrive/Desktop/GD32VW553/V1_MQTT_OK/GD32VW55X_Wifi_BLE_SDK/GD32VW55x_RELEASE_V1.0.2/MSDK/lwip/lwip-2.1.2/src/apps/lwiperf\lwiperf.c **** #define LWIPERF_SERVER_IP_TYPE      IPADDR_TYPE_ANY
  74:C:/Users/stapi/OneDrive/Desktop/GD32VW553/V1_MQTT_OK/GD32VW55X_Wifi_BLE_SDK/GD32VW55x_RELEASE_V1.0.2/MSDK/lwip/lwip-2.1.2/src/apps/lwiperf\lwiperf.c **** #endif
  75:C:/Users/stapi/OneDrive/Desktop/GD32VW553/V1_MQTT_OK/GD32VW55X_Wifi_BLE_SDK/GD32VW55x_RELEASE_V1.0.2/MSDK/lwip/lwip-2.1.2/src/apps/lwiperf\lwiperf.c **** 
  76:C:/Users/stapi/OneDrive/Desktop/GD32VW553/V1_MQTT_OK/GD32VW55X_Wifi_BLE_SDK/GD32VW55x_RELEASE_V1.0.2/MSDK/lwip/lwip-2.1.2/src/apps/lwiperf\lwiperf.c **** /* File internal memory allocation (struct lwiperf_*): this defaults to
  77:C:/Users/stapi/OneDrive/Desktop/GD32VW553/V1_MQTT_OK/GD32VW55X_Wifi_BLE_SDK/GD32VW55x_RELEASE_V1.0.2/MSDK/lwip/lwip-2.1.2/src/apps/lwiperf\lwiperf.c ****    the heap */
  78:C:/Users/stapi/OneDrive/Desktop/GD32VW553/V1_MQTT_OK/GD32VW55X_Wifi_BLE_SDK/GD32VW55x_RELEASE_V1.0.2/MSDK/lwip/lwip-2.1.2/src/apps/lwiperf\lwiperf.c **** #ifndef LWIPERF_ALLOC
  79:C:/Users/stapi/OneDrive/Desktop/GD32VW553/V1_MQTT_OK/GD32VW55X_Wifi_BLE_SDK/GD32VW55x_RELEASE_V1.0.2/MSDK/lwip/lwip-2.1.2/src/apps/lwiperf\lwiperf.c **** #define LWIPERF_ALLOC(type)         mem_malloc(sizeof(type))
  80:C:/Users/stapi/OneDrive/Desktop/GD32VW553/V1_MQTT_OK/GD32VW55X_Wifi_BLE_SDK/GD32VW55x_RELEASE_V1.0.2/MSDK/lwip/lwip-2.1.2/src/apps/lwiperf\lwiperf.c **** #define LWIPERF_FREE(type, item)    mem_free(item)
  81:C:/Users/stapi/OneDrive/Desktop/GD32VW553/V1_MQTT_OK/GD32VW55X_Wifi_BLE_SDK/GD32VW55x_RELEASE_V1.0.2/MSDK/lwip/lwip-2.1.2/src/apps/lwiperf\lwiperf.c **** #endif
  82:C:/Users/stapi/OneDrive/Desktop/GD32VW553/V1_MQTT_OK/GD32VW55X_Wifi_BLE_SDK/GD32VW55x_RELEASE_V1.0.2/MSDK/lwip/lwip-2.1.2/src/apps/lwiperf\lwiperf.c **** 
  83:C:/Users/stapi/OneDrive/Desktop/GD32VW553/V1_MQTT_OK/GD32VW55X_Wifi_BLE_SDK/GD32VW55x_RELEASE_V1.0.2/MSDK/lwip/lwip-2.1.2/src/apps/lwiperf\lwiperf.c **** /** If this is 1, check that received data has the correct format */
  84:C:/Users/stapi/OneDrive/Desktop/GD32VW553/V1_MQTT_OK/GD32VW55X_Wifi_BLE_SDK/GD32VW55x_RELEASE_V1.0.2/MSDK/lwip/lwip-2.1.2/src/apps/lwiperf\lwiperf.c **** #ifndef LWIPERF_CHECK_RX_DATA
  85:C:/Users/stapi/OneDrive/Desktop/GD32VW553/V1_MQTT_OK/GD32VW55X_Wifi_BLE_SDK/GD32VW55x_RELEASE_V1.0.2/MSDK/lwip/lwip-2.1.2/src/apps/lwiperf\lwiperf.c **** #define LWIPERF_CHECK_RX_DATA       0
  86:C:/Users/stapi/OneDrive/Desktop/GD32VW553/V1_MQTT_OK/GD32VW55X_Wifi_BLE_SDK/GD32VW55x_RELEASE_V1.0.2/MSDK/lwip/lwip-2.1.2/src/apps/lwiperf\lwiperf.c **** #endif
  87:C:/Users/stapi/OneDrive/Desktop/GD32VW553/V1_MQTT_OK/GD32VW55X_Wifi_BLE_SDK/GD32VW55x_RELEASE_V1.0.2/MSDK/lwip/lwip-2.1.2/src/apps/lwiperf\lwiperf.c **** 
  88:C:/Users/stapi/OneDrive/Desktop/GD32VW553/V1_MQTT_OK/GD32VW55X_Wifi_BLE_SDK/GD32VW55x_RELEASE_V1.0.2/MSDK/lwip/lwip-2.1.2/src/apps/lwiperf\lwiperf.c **** /** This is the Iperf settings struct sent from the client */
  89:C:/Users/stapi/OneDrive/Desktop/GD32VW553/V1_MQTT_OK/GD32VW55X_Wifi_BLE_SDK/GD32VW55x_RELEASE_V1.0.2/MSDK/lwip/lwip-2.1.2/src/apps/lwiperf\lwiperf.c **** typedef struct _lwiperf_settings {
  90:C:/Users/stapi/OneDrive/Desktop/GD32VW553/V1_MQTT_OK/GD32VW55X_Wifi_BLE_SDK/GD32VW55x_RELEASE_V1.0.2/MSDK/lwip/lwip-2.1.2/src/apps/lwiperf\lwiperf.c **** #define LWIPERF_FLAGS_ANSWER_TEST 0x80000000
  91:C:/Users/stapi/OneDrive/Desktop/GD32VW553/V1_MQTT_OK/GD32VW55X_Wifi_BLE_SDK/GD32VW55x_RELEASE_V1.0.2/MSDK/lwip/lwip-2.1.2/src/apps/lwiperf\lwiperf.c **** #define LWIPERF_FLAGS_ANSWER_NOW  0x00000001
  92:C:/Users/stapi/OneDrive/Desktop/GD32VW553/V1_MQTT_OK/GD32VW55X_Wifi_BLE_SDK/GD32VW55x_RELEASE_V1.0.2/MSDK/lwip/lwip-2.1.2/src/apps/lwiperf\lwiperf.c ****   u32_t flags;
  93:C:/Users/stapi/OneDrive/Desktop/GD32VW553/V1_MQTT_OK/GD32VW55X_Wifi_BLE_SDK/GD32VW55x_RELEASE_V1.0.2/MSDK/lwip/lwip-2.1.2/src/apps/lwiperf\lwiperf.c ****   u32_t num_threads; /* unused for now */
  94:C:/Users/stapi/OneDrive/Desktop/GD32VW553/V1_MQTT_OK/GD32VW55X_Wifi_BLE_SDK/GD32VW55x_RELEASE_V1.0.2/MSDK/lwip/lwip-2.1.2/src/apps/lwiperf\lwiperf.c ****   u32_t remote_port;
  95:C:/Users/stapi/OneDrive/Desktop/GD32VW553/V1_MQTT_OK/GD32VW55X_Wifi_BLE_SDK/GD32VW55x_RELEASE_V1.0.2/MSDK/lwip/lwip-2.1.2/src/apps/lwiperf\lwiperf.c ****   u32_t buffer_len; /* unused for now */
  96:C:/Users/stapi/OneDrive/Desktop/GD32VW553/V1_MQTT_OK/GD32VW55X_Wifi_BLE_SDK/GD32VW55x_RELEASE_V1.0.2/MSDK/lwip/lwip-2.1.2/src/apps/lwiperf\lwiperf.c ****   u32_t win_band; /* TCP window / UDP rate: unused for now */
  97:C:/Users/stapi/OneDrive/Desktop/GD32VW553/V1_MQTT_OK/GD32VW55X_Wifi_BLE_SDK/GD32VW55x_RELEASE_V1.0.2/MSDK/lwip/lwip-2.1.2/src/apps/lwiperf\lwiperf.c ****   u32_t amount; /* pos. value: bytes?; neg. values: time (unit is 10ms: 1/100 second) */
  98:C:/Users/stapi/OneDrive/Desktop/GD32VW553/V1_MQTT_OK/GD32VW55X_Wifi_BLE_SDK/GD32VW55x_RELEASE_V1.0.2/MSDK/lwip/lwip-2.1.2/src/apps/lwiperf\lwiperf.c **** } lwiperf_settings_t;
  99:C:/Users/stapi/OneDrive/Desktop/GD32VW553/V1_MQTT_OK/GD32VW55X_Wifi_BLE_SDK/GD32VW55x_RELEASE_V1.0.2/MSDK/lwip/lwip-2.1.2/src/apps/lwiperf\lwiperf.c **** 
 100:C:/Users/stapi/OneDrive/Desktop/GD32VW553/V1_MQTT_OK/GD32VW55X_Wifi_BLE_SDK/GD32VW55x_RELEASE_V1.0.2/MSDK/lwip/lwip-2.1.2/src/apps/lwiperf\lwiperf.c **** /** Basic connection handle */
 101:C:/Users/stapi/OneDrive/Desktop/GD32VW553/V1_MQTT_OK/GD32VW55X_Wifi_BLE_SDK/GD32VW55x_RELEASE_V1.0.2/MSDK/lwip/lwip-2.1.2/src/apps/lwiperf\lwiperf.c **** struct _lwiperf_state_base;
 102:C:/Users/stapi/OneDrive/Desktop/GD32VW553/V1_MQTT_OK/GD32VW55X_Wifi_BLE_SDK/GD32VW55x_RELEASE_V1.0.2/MSDK/lwip/lwip-2.1.2/src/apps/lwiperf\lwiperf.c **** typedef struct _lwiperf_state_base lwiperf_state_base_t;
 103:C:/Users/stapi/OneDrive/Desktop/GD32VW553/V1_MQTT_OK/GD32VW55X_Wifi_BLE_SDK/GD32VW55x_RELEASE_V1.0.2/MSDK/lwip/lwip-2.1.2/src/apps/lwiperf\lwiperf.c **** struct _lwiperf_state_base {
 104:C:/Users/stapi/OneDrive/Desktop/GD32VW553/V1_MQTT_OK/GD32VW55X_Wifi_BLE_SDK/GD32VW55x_RELEASE_V1.0.2/MSDK/lwip/lwip-2.1.2/src/apps/lwiperf\lwiperf.c ****   /* linked list */
 105:C:/Users/stapi/OneDrive/Desktop/GD32VW553/V1_MQTT_OK/GD32VW55X_Wifi_BLE_SDK/GD32VW55x_RELEASE_V1.0.2/MSDK/lwip/lwip-2.1.2/src/apps/lwiperf\lwiperf.c ****   lwiperf_state_base_t *next;
 106:C:/Users/stapi/OneDrive/Desktop/GD32VW553/V1_MQTT_OK/GD32VW55X_Wifi_BLE_SDK/GD32VW55x_RELEASE_V1.0.2/MSDK/lwip/lwip-2.1.2/src/apps/lwiperf\lwiperf.c ****   /* 1=tcp, 0=udp */
 107:C:/Users/stapi/OneDrive/Desktop/GD32VW553/V1_MQTT_OK/GD32VW55X_Wifi_BLE_SDK/GD32VW55x_RELEASE_V1.0.2/MSDK/lwip/lwip-2.1.2/src/apps/lwiperf\lwiperf.c ****   u8_t tcp;
 108:C:/Users/stapi/OneDrive/Desktop/GD32VW553/V1_MQTT_OK/GD32VW55X_Wifi_BLE_SDK/GD32VW55x_RELEASE_V1.0.2/MSDK/lwip/lwip-2.1.2/src/apps/lwiperf\lwiperf.c ****   /* 1=server, 0=client */
 109:C:/Users/stapi/OneDrive/Desktop/GD32VW553/V1_MQTT_OK/GD32VW55X_Wifi_BLE_SDK/GD32VW55x_RELEASE_V1.0.2/MSDK/lwip/lwip-2.1.2/src/apps/lwiperf\lwiperf.c ****   u8_t server;
 110:C:/Users/stapi/OneDrive/Desktop/GD32VW553/V1_MQTT_OK/GD32VW55X_Wifi_BLE_SDK/GD32VW55x_RELEASE_V1.0.2/MSDK/lwip/lwip-2.1.2/src/apps/lwiperf\lwiperf.c ****   /* master state used to abort sessions (e.g. listener, main client) */
 111:C:/Users/stapi/OneDrive/Desktop/GD32VW553/V1_MQTT_OK/GD32VW55X_Wifi_BLE_SDK/GD32VW55x_RELEASE_V1.0.2/MSDK/lwip/lwip-2.1.2/src/apps/lwiperf\lwiperf.c ****   lwiperf_state_base_t *related_master_state;
 112:C:/Users/stapi/OneDrive/Desktop/GD32VW553/V1_MQTT_OK/GD32VW55X_Wifi_BLE_SDK/GD32VW55x_RELEASE_V1.0.2/MSDK/lwip/lwip-2.1.2/src/apps/lwiperf\lwiperf.c **** };
 113:C:/Users/stapi/OneDrive/Desktop/GD32VW553/V1_MQTT_OK/GD32VW55X_Wifi_BLE_SDK/GD32VW55x_RELEASE_V1.0.2/MSDK/lwip/lwip-2.1.2/src/apps/lwiperf\lwiperf.c **** 
 114:C:/Users/stapi/OneDrive/Desktop/GD32VW553/V1_MQTT_OK/GD32VW55X_Wifi_BLE_SDK/GD32VW55x_RELEASE_V1.0.2/MSDK/lwip/lwip-2.1.2/src/apps/lwiperf\lwiperf.c **** /** Connection handle for a TCP iperf session */
 115:C:/Users/stapi/OneDrive/Desktop/GD32VW553/V1_MQTT_OK/GD32VW55X_Wifi_BLE_SDK/GD32VW55x_RELEASE_V1.0.2/MSDK/lwip/lwip-2.1.2/src/apps/lwiperf\lwiperf.c **** typedef struct _lwiperf_state_tcp {
 116:C:/Users/stapi/OneDrive/Desktop/GD32VW553/V1_MQTT_OK/GD32VW55X_Wifi_BLE_SDK/GD32VW55x_RELEASE_V1.0.2/MSDK/lwip/lwip-2.1.2/src/apps/lwiperf\lwiperf.c ****   lwiperf_state_base_t base;
 117:C:/Users/stapi/OneDrive/Desktop/GD32VW553/V1_MQTT_OK/GD32VW55X_Wifi_BLE_SDK/GD32VW55x_RELEASE_V1.0.2/MSDK/lwip/lwip-2.1.2/src/apps/lwiperf\lwiperf.c ****   struct tcp_pcb *server_pcb;
 118:C:/Users/stapi/OneDrive/Desktop/GD32VW553/V1_MQTT_OK/GD32VW55X_Wifi_BLE_SDK/GD32VW55x_RELEASE_V1.0.2/MSDK/lwip/lwip-2.1.2/src/apps/lwiperf\lwiperf.c ****   struct tcp_pcb *conn_pcb;
 119:C:/Users/stapi/OneDrive/Desktop/GD32VW553/V1_MQTT_OK/GD32VW55X_Wifi_BLE_SDK/GD32VW55x_RELEASE_V1.0.2/MSDK/lwip/lwip-2.1.2/src/apps/lwiperf\lwiperf.c ****   u32_t time_started;
 120:C:/Users/stapi/OneDrive/Desktop/GD32VW553/V1_MQTT_OK/GD32VW55X_Wifi_BLE_SDK/GD32VW55x_RELEASE_V1.0.2/MSDK/lwip/lwip-2.1.2/src/apps/lwiperf\lwiperf.c ****   lwiperf_report_fn report_fn;
 121:C:/Users/stapi/OneDrive/Desktop/GD32VW553/V1_MQTT_OK/GD32VW55X_Wifi_BLE_SDK/GD32VW55x_RELEASE_V1.0.2/MSDK/lwip/lwip-2.1.2/src/apps/lwiperf\lwiperf.c ****   void *report_arg;
 122:C:/Users/stapi/OneDrive/Desktop/GD32VW553/V1_MQTT_OK/GD32VW55X_Wifi_BLE_SDK/GD32VW55x_RELEASE_V1.0.2/MSDK/lwip/lwip-2.1.2/src/apps/lwiperf\lwiperf.c ****   u8_t poll_count;
 123:C:/Users/stapi/OneDrive/Desktop/GD32VW553/V1_MQTT_OK/GD32VW55X_Wifi_BLE_SDK/GD32VW55x_RELEASE_V1.0.2/MSDK/lwip/lwip-2.1.2/src/apps/lwiperf\lwiperf.c ****   u8_t next_num;
 124:C:/Users/stapi/OneDrive/Desktop/GD32VW553/V1_MQTT_OK/GD32VW55X_Wifi_BLE_SDK/GD32VW55x_RELEASE_V1.0.2/MSDK/lwip/lwip-2.1.2/src/apps/lwiperf\lwiperf.c ****   /* 1=start server when client is closed */
 125:C:/Users/stapi/OneDrive/Desktop/GD32VW553/V1_MQTT_OK/GD32VW55X_Wifi_BLE_SDK/GD32VW55x_RELEASE_V1.0.2/MSDK/lwip/lwip-2.1.2/src/apps/lwiperf\lwiperf.c ****   u8_t client_tradeoff_mode;
 126:C:/Users/stapi/OneDrive/Desktop/GD32VW553/V1_MQTT_OK/GD32VW55X_Wifi_BLE_SDK/GD32VW55x_RELEASE_V1.0.2/MSDK/lwip/lwip-2.1.2/src/apps/lwiperf\lwiperf.c ****   u32_t bytes_transferred;
 127:C:/Users/stapi/OneDrive/Desktop/GD32VW553/V1_MQTT_OK/GD32VW55X_Wifi_BLE_SDK/GD32VW55x_RELEASE_V1.0.2/MSDK/lwip/lwip-2.1.2/src/apps/lwiperf\lwiperf.c ****   lwiperf_settings_t settings;
 128:C:/Users/stapi/OneDrive/Desktop/GD32VW553/V1_MQTT_OK/GD32VW55X_Wifi_BLE_SDK/GD32VW55x_RELEASE_V1.0.2/MSDK/lwip/lwip-2.1.2/src/apps/lwiperf\lwiperf.c ****   u8_t have_settings_buf;
 129:C:/Users/stapi/OneDrive/Desktop/GD32VW553/V1_MQTT_OK/GD32VW55X_Wifi_BLE_SDK/GD32VW55x_RELEASE_V1.0.2/MSDK/lwip/lwip-2.1.2/src/apps/lwiperf\lwiperf.c ****   u8_t specific_remote;
 130:C:/Users/stapi/OneDrive/Desktop/GD32VW553/V1_MQTT_OK/GD32VW55X_Wifi_BLE_SDK/GD32VW55x_RELEASE_V1.0.2/MSDK/lwip/lwip-2.1.2/src/apps/lwiperf\lwiperf.c ****   ip_addr_t remote_addr;
 131:C:/Users/stapi/OneDrive/Desktop/GD32VW553/V1_MQTT_OK/GD32VW55X_Wifi_BLE_SDK/GD32VW55x_RELEASE_V1.0.2/MSDK/lwip/lwip-2.1.2/src/apps/lwiperf\lwiperf.c **** } lwiperf_state_tcp_t;
 132:C:/Users/stapi/OneDrive/Desktop/GD32VW553/V1_MQTT_OK/GD32VW55X_Wifi_BLE_SDK/GD32VW55x_RELEASE_V1.0.2/MSDK/lwip/lwip-2.1.2/src/apps/lwiperf\lwiperf.c **** 
 133:C:/Users/stapi/OneDrive/Desktop/GD32VW553/V1_MQTT_OK/GD32VW55X_Wifi_BLE_SDK/GD32VW55x_RELEASE_V1.0.2/MSDK/lwip/lwip-2.1.2/src/apps/lwiperf\lwiperf.c **** /** List of active iperf sessions */
 134:C:/Users/stapi/OneDrive/Desktop/GD32VW553/V1_MQTT_OK/GD32VW55X_Wifi_BLE_SDK/GD32VW55x_RELEASE_V1.0.2/MSDK/lwip/lwip-2.1.2/src/apps/lwiperf\lwiperf.c **** static lwiperf_state_base_t *lwiperf_all_connections;
 135:C:/Users/stapi/OneDrive/Desktop/GD32VW553/V1_MQTT_OK/GD32VW55X_Wifi_BLE_SDK/GD32VW55x_RELEASE_V1.0.2/MSDK/lwip/lwip-2.1.2/src/apps/lwiperf\lwiperf.c **** /** A const buffer to send from: we want to measure sending, not copying! */
 136:C:/Users/stapi/OneDrive/Desktop/GD32VW553/V1_MQTT_OK/GD32VW55X_Wifi_BLE_SDK/GD32VW55x_RELEASE_V1.0.2/MSDK/lwip/lwip-2.1.2/src/apps/lwiperf\lwiperf.c **** /* FT TAG */
 137:C:/Users/stapi/OneDrive/Desktop/GD32VW553/V1_MQTT_OK/GD32VW55X_Wifi_BLE_SDK/GD32VW55x_RELEASE_V1.0.2/MSDK/lwip/lwip-2.1.2/src/apps/lwiperf\lwiperf.c **** static u8_t lwiperf_txbuf_const[1600]  __SHAREDRAM;
 138:C:/Users/stapi/OneDrive/Desktop/GD32VW553/V1_MQTT_OK/GD32VW55X_Wifi_BLE_SDK/GD32VW55x_RELEASE_V1.0.2/MSDK/lwip/lwip-2.1.2/src/apps/lwiperf\lwiperf.c **** /* FT TAG */
 139:C:/Users/stapi/OneDrive/Desktop/GD32VW553/V1_MQTT_OK/GD32VW55X_Wifi_BLE_SDK/GD32VW55x_RELEASE_V1.0.2/MSDK/lwip/lwip-2.1.2/src/apps/lwiperf\lwiperf.c **** 
 140:C:/Users/stapi/OneDrive/Desktop/GD32VW553/V1_MQTT_OK/GD32VW55X_Wifi_BLE_SDK/GD32VW55x_RELEASE_V1.0.2/MSDK/lwip/lwip-2.1.2/src/apps/lwiperf\lwiperf.c **** static err_t lwiperf_tcp_poll(void *arg, struct tcp_pcb *tpcb);
 141:C:/Users/stapi/OneDrive/Desktop/GD32VW553/V1_MQTT_OK/GD32VW55X_Wifi_BLE_SDK/GD32VW55x_RELEASE_V1.0.2/MSDK/lwip/lwip-2.1.2/src/apps/lwiperf\lwiperf.c **** static void lwiperf_tcp_err(void *arg, err_t err);
 142:C:/Users/stapi/OneDrive/Desktop/GD32VW553/V1_MQTT_OK/GD32VW55X_Wifi_BLE_SDK/GD32VW55x_RELEASE_V1.0.2/MSDK/lwip/lwip-2.1.2/src/apps/lwiperf\lwiperf.c **** static err_t lwiperf_start_tcp_server_impl(const ip_addr_t *local_addr, u16_t local_port,
 143:C:/Users/stapi/OneDrive/Desktop/GD32VW553/V1_MQTT_OK/GD32VW55X_Wifi_BLE_SDK/GD32VW55x_RELEASE_V1.0.2/MSDK/lwip/lwip-2.1.2/src/apps/lwiperf\lwiperf.c ****                                            lwiperf_report_fn report_fn, void *report_arg,
 144:C:/Users/stapi/OneDrive/Desktop/GD32VW553/V1_MQTT_OK/GD32VW55X_Wifi_BLE_SDK/GD32VW55x_RELEASE_V1.0.2/MSDK/lwip/lwip-2.1.2/src/apps/lwiperf\lwiperf.c ****                                            lwiperf_state_base_t *related_master_state, lwiperf_stat
 145:C:/Users/stapi/OneDrive/Desktop/GD32VW553/V1_MQTT_OK/GD32VW55X_Wifi_BLE_SDK/GD32VW55x_RELEASE_V1.0.2/MSDK/lwip/lwip-2.1.2/src/apps/lwiperf\lwiperf.c **** 
 146:C:/Users/stapi/OneDrive/Desktop/GD32VW553/V1_MQTT_OK/GD32VW55X_Wifi_BLE_SDK/GD32VW55x_RELEASE_V1.0.2/MSDK/lwip/lwip-2.1.2/src/apps/lwiperf\lwiperf.c **** 
 147:C:/Users/stapi/OneDrive/Desktop/GD32VW553/V1_MQTT_OK/GD32VW55X_Wifi_BLE_SDK/GD32VW55x_RELEASE_V1.0.2/MSDK/lwip/lwip-2.1.2/src/apps/lwiperf\lwiperf.c **** /** Add an iperf session to the 'active' list */
 148:C:/Users/stapi/OneDrive/Desktop/GD32VW553/V1_MQTT_OK/GD32VW55X_Wifi_BLE_SDK/GD32VW55x_RELEASE_V1.0.2/MSDK/lwip/lwip-2.1.2/src/apps/lwiperf\lwiperf.c **** static void
 149:C:/Users/stapi/OneDrive/Desktop/GD32VW553/V1_MQTT_OK/GD32VW55X_Wifi_BLE_SDK/GD32VW55x_RELEASE_V1.0.2/MSDK/lwip/lwip-2.1.2/src/apps/lwiperf\lwiperf.c **** lwiperf_list_add(lwiperf_state_base_t *item)
 150:C:/Users/stapi/OneDrive/Desktop/GD32VW553/V1_MQTT_OK/GD32VW55X_Wifi_BLE_SDK/GD32VW55x_RELEASE_V1.0.2/MSDK/lwip/lwip-2.1.2/src/apps/lwiperf\lwiperf.c **** {
 151:C:/Users/stapi/OneDrive/Desktop/GD32VW553/V1_MQTT_OK/GD32VW55X_Wifi_BLE_SDK/GD32VW55x_RELEASE_V1.0.2/MSDK/lwip/lwip-2.1.2/src/apps/lwiperf\lwiperf.c ****   item->next = lwiperf_all_connections;
 152:C:/Users/stapi/OneDrive/Desktop/GD32VW553/V1_MQTT_OK/GD32VW55X_Wifi_BLE_SDK/GD32VW55x_RELEASE_V1.0.2/MSDK/lwip/lwip-2.1.2/src/apps/lwiperf\lwiperf.c ****   lwiperf_all_connections = item;
 153:C:/Users/stapi/OneDrive/Desktop/GD32VW553/V1_MQTT_OK/GD32VW55X_Wifi_BLE_SDK/GD32VW55x_RELEASE_V1.0.2/MSDK/lwip/lwip-2.1.2/src/apps/lwiperf\lwiperf.c **** }
 154:C:/Users/stapi/OneDrive/Desktop/GD32VW553/V1_MQTT_OK/GD32VW55X_Wifi_BLE_SDK/GD32VW55x_RELEASE_V1.0.2/MSDK/lwip/lwip-2.1.2/src/apps/lwiperf\lwiperf.c **** 
 155:C:/Users/stapi/OneDrive/Desktop/GD32VW553/V1_MQTT_OK/GD32VW55X_Wifi_BLE_SDK/GD32VW55x_RELEASE_V1.0.2/MSDK/lwip/lwip-2.1.2/src/apps/lwiperf\lwiperf.c **** /** Remove an iperf session from the 'active' list */
 156:C:/Users/stapi/OneDrive/Desktop/GD32VW553/V1_MQTT_OK/GD32VW55X_Wifi_BLE_SDK/GD32VW55x_RELEASE_V1.0.2/MSDK/lwip/lwip-2.1.2/src/apps/lwiperf\lwiperf.c **** static void
 157:C:/Users/stapi/OneDrive/Desktop/GD32VW553/V1_MQTT_OK/GD32VW55X_Wifi_BLE_SDK/GD32VW55x_RELEASE_V1.0.2/MSDK/lwip/lwip-2.1.2/src/apps/lwiperf\lwiperf.c **** lwiperf_list_remove(lwiperf_state_base_t *item)
 158:C:/Users/stapi/OneDrive/Desktop/GD32VW553/V1_MQTT_OK/GD32VW55X_Wifi_BLE_SDK/GD32VW55x_RELEASE_V1.0.2/MSDK/lwip/lwip-2.1.2/src/apps/lwiperf\lwiperf.c **** {
 159:C:/Users/stapi/OneDrive/Desktop/GD32VW553/V1_MQTT_OK/GD32VW55X_Wifi_BLE_SDK/GD32VW55x_RELEASE_V1.0.2/MSDK/lwip/lwip-2.1.2/src/apps/lwiperf\lwiperf.c ****   lwiperf_state_base_t *prev = NULL;
 160:C:/Users/stapi/OneDrive/Desktop/GD32VW553/V1_MQTT_OK/GD32VW55X_Wifi_BLE_SDK/GD32VW55x_RELEASE_V1.0.2/MSDK/lwip/lwip-2.1.2/src/apps/lwiperf\lwiperf.c ****   lwiperf_state_base_t *iter;
 161:C:/Users/stapi/OneDrive/Desktop/GD32VW553/V1_MQTT_OK/GD32VW55X_Wifi_BLE_SDK/GD32VW55x_RELEASE_V1.0.2/MSDK/lwip/lwip-2.1.2/src/apps/lwiperf\lwiperf.c ****   for (iter = lwiperf_all_connections; iter != NULL; prev = iter, iter = iter->next) {
 162:C:/Users/stapi/OneDrive/Desktop/GD32VW553/V1_MQTT_OK/GD32VW55X_Wifi_BLE_SDK/GD32VW55x_RELEASE_V1.0.2/MSDK/lwip/lwip-2.1.2/src/apps/lwiperf\lwiperf.c ****     if (iter == item) {
 163:C:/Users/stapi/OneDrive/Desktop/GD32VW553/V1_MQTT_OK/GD32VW55X_Wifi_BLE_SDK/GD32VW55x_RELEASE_V1.0.2/MSDK/lwip/lwip-2.1.2/src/apps/lwiperf\lwiperf.c ****       if (prev == NULL) {
 164:C:/Users/stapi/OneDrive/Desktop/GD32VW553/V1_MQTT_OK/GD32VW55X_Wifi_BLE_SDK/GD32VW55x_RELEASE_V1.0.2/MSDK/lwip/lwip-2.1.2/src/apps/lwiperf\lwiperf.c ****         lwiperf_all_connections = iter->next;
 165:C:/Users/stapi/OneDrive/Desktop/GD32VW553/V1_MQTT_OK/GD32VW55X_Wifi_BLE_SDK/GD32VW55x_RELEASE_V1.0.2/MSDK/lwip/lwip-2.1.2/src/apps/lwiperf\lwiperf.c ****       } else {
 166:C:/Users/stapi/OneDrive/Desktop/GD32VW553/V1_MQTT_OK/GD32VW55X_Wifi_BLE_SDK/GD32VW55x_RELEASE_V1.0.2/MSDK/lwip/lwip-2.1.2/src/apps/lwiperf\lwiperf.c ****         prev->next = iter->next;
 167:C:/Users/stapi/OneDrive/Desktop/GD32VW553/V1_MQTT_OK/GD32VW55X_Wifi_BLE_SDK/GD32VW55x_RELEASE_V1.0.2/MSDK/lwip/lwip-2.1.2/src/apps/lwiperf\lwiperf.c ****       }
 168:C:/Users/stapi/OneDrive/Desktop/GD32VW553/V1_MQTT_OK/GD32VW55X_Wifi_BLE_SDK/GD32VW55x_RELEASE_V1.0.2/MSDK/lwip/lwip-2.1.2/src/apps/lwiperf\lwiperf.c ****       /* @debug: ensure this item is listed only once */
 169:C:/Users/stapi/OneDrive/Desktop/GD32VW553/V1_MQTT_OK/GD32VW55X_Wifi_BLE_SDK/GD32VW55x_RELEASE_V1.0.2/MSDK/lwip/lwip-2.1.2/src/apps/lwiperf\lwiperf.c ****       for (iter = iter->next; iter != NULL; iter = iter->next) {
 170:C:/Users/stapi/OneDrive/Desktop/GD32VW553/V1_MQTT_OK/GD32VW55X_Wifi_BLE_SDK/GD32VW55x_RELEASE_V1.0.2/MSDK/lwip/lwip-2.1.2/src/apps/lwiperf\lwiperf.c ****         LWIP_ASSERT("duplicate entry", iter != item);
 171:C:/Users/stapi/OneDrive/Desktop/GD32VW553/V1_MQTT_OK/GD32VW55X_Wifi_BLE_SDK/GD32VW55x_RELEASE_V1.0.2/MSDK/lwip/lwip-2.1.2/src/apps/lwiperf\lwiperf.c ****       }
 172:C:/Users/stapi/OneDrive/Desktop/GD32VW553/V1_MQTT_OK/GD32VW55X_Wifi_BLE_SDK/GD32VW55x_RELEASE_V1.0.2/MSDK/lwip/lwip-2.1.2/src/apps/lwiperf\lwiperf.c ****       break;
 173:C:/Users/stapi/OneDrive/Desktop/GD32VW553/V1_MQTT_OK/GD32VW55X_Wifi_BLE_SDK/GD32VW55x_RELEASE_V1.0.2/MSDK/lwip/lwip-2.1.2/src/apps/lwiperf\lwiperf.c ****     }
 174:C:/Users/stapi/OneDrive/Desktop/GD32VW553/V1_MQTT_OK/GD32VW55X_Wifi_BLE_SDK/GD32VW55x_RELEASE_V1.0.2/MSDK/lwip/lwip-2.1.2/src/apps/lwiperf\lwiperf.c ****   }
 175:C:/Users/stapi/OneDrive/Desktop/GD32VW553/V1_MQTT_OK/GD32VW55X_Wifi_BLE_SDK/GD32VW55x_RELEASE_V1.0.2/MSDK/lwip/lwip-2.1.2/src/apps/lwiperf\lwiperf.c **** }
 176:C:/Users/stapi/OneDrive/Desktop/GD32VW553/V1_MQTT_OK/GD32VW55X_Wifi_BLE_SDK/GD32VW55x_RELEASE_V1.0.2/MSDK/lwip/lwip-2.1.2/src/apps/lwiperf\lwiperf.c **** 
 177:C:/Users/stapi/OneDrive/Desktop/GD32VW553/V1_MQTT_OK/GD32VW55X_Wifi_BLE_SDK/GD32VW55x_RELEASE_V1.0.2/MSDK/lwip/lwip-2.1.2/src/apps/lwiperf\lwiperf.c **** static lwiperf_state_base_t *
 178:C:/Users/stapi/OneDrive/Desktop/GD32VW553/V1_MQTT_OK/GD32VW55X_Wifi_BLE_SDK/GD32VW55x_RELEASE_V1.0.2/MSDK/lwip/lwip-2.1.2/src/apps/lwiperf\lwiperf.c **** lwiperf_list_find(lwiperf_state_base_t *item)
 179:C:/Users/stapi/OneDrive/Desktop/GD32VW553/V1_MQTT_OK/GD32VW55X_Wifi_BLE_SDK/GD32VW55x_RELEASE_V1.0.2/MSDK/lwip/lwip-2.1.2/src/apps/lwiperf\lwiperf.c **** {
 180:C:/Users/stapi/OneDrive/Desktop/GD32VW553/V1_MQTT_OK/GD32VW55X_Wifi_BLE_SDK/GD32VW55x_RELEASE_V1.0.2/MSDK/lwip/lwip-2.1.2/src/apps/lwiperf\lwiperf.c ****   lwiperf_state_base_t *iter;
 181:C:/Users/stapi/OneDrive/Desktop/GD32VW553/V1_MQTT_OK/GD32VW55X_Wifi_BLE_SDK/GD32VW55x_RELEASE_V1.0.2/MSDK/lwip/lwip-2.1.2/src/apps/lwiperf\lwiperf.c ****   for (iter = lwiperf_all_connections; iter != NULL; iter = iter->next) {
 182:C:/Users/stapi/OneDrive/Desktop/GD32VW553/V1_MQTT_OK/GD32VW55X_Wifi_BLE_SDK/GD32VW55x_RELEASE_V1.0.2/MSDK/lwip/lwip-2.1.2/src/apps/lwiperf\lwiperf.c ****     if (iter == item) {
 183:C:/Users/stapi/OneDrive/Desktop/GD32VW553/V1_MQTT_OK/GD32VW55X_Wifi_BLE_SDK/GD32VW55x_RELEASE_V1.0.2/MSDK/lwip/lwip-2.1.2/src/apps/lwiperf\lwiperf.c ****       return item;
 184:C:/Users/stapi/OneDrive/Desktop/GD32VW553/V1_MQTT_OK/GD32VW55X_Wifi_BLE_SDK/GD32VW55x_RELEASE_V1.0.2/MSDK/lwip/lwip-2.1.2/src/apps/lwiperf\lwiperf.c ****     }
 185:C:/Users/stapi/OneDrive/Desktop/GD32VW553/V1_MQTT_OK/GD32VW55X_Wifi_BLE_SDK/GD32VW55x_RELEASE_V1.0.2/MSDK/lwip/lwip-2.1.2/src/apps/lwiperf\lwiperf.c ****   }
 186:C:/Users/stapi/OneDrive/Desktop/GD32VW553/V1_MQTT_OK/GD32VW55X_Wifi_BLE_SDK/GD32VW55x_RELEASE_V1.0.2/MSDK/lwip/lwip-2.1.2/src/apps/lwiperf\lwiperf.c ****   return NULL;
 187:C:/Users/stapi/OneDrive/Desktop/GD32VW553/V1_MQTT_OK/GD32VW55X_Wifi_BLE_SDK/GD32VW55x_RELEASE_V1.0.2/MSDK/lwip/lwip-2.1.2/src/apps/lwiperf\lwiperf.c **** }
 188:C:/Users/stapi/OneDrive/Desktop/GD32VW553/V1_MQTT_OK/GD32VW55X_Wifi_BLE_SDK/GD32VW55x_RELEASE_V1.0.2/MSDK/lwip/lwip-2.1.2/src/apps/lwiperf\lwiperf.c **** 
 189:C:/Users/stapi/OneDrive/Desktop/GD32VW553/V1_MQTT_OK/GD32VW55X_Wifi_BLE_SDK/GD32VW55x_RELEASE_V1.0.2/MSDK/lwip/lwip-2.1.2/src/apps/lwiperf\lwiperf.c **** /** Call the report function of an iperf tcp session */
 190:C:/Users/stapi/OneDrive/Desktop/GD32VW553/V1_MQTT_OK/GD32VW55X_Wifi_BLE_SDK/GD32VW55x_RELEASE_V1.0.2/MSDK/lwip/lwip-2.1.2/src/apps/lwiperf\lwiperf.c **** static void
 191:C:/Users/stapi/OneDrive/Desktop/GD32VW553/V1_MQTT_OK/GD32VW55X_Wifi_BLE_SDK/GD32VW55x_RELEASE_V1.0.2/MSDK/lwip/lwip-2.1.2/src/apps/lwiperf\lwiperf.c **** lwip_tcp_conn_report(lwiperf_state_tcp_t *conn, enum lwiperf_report_type report_type)
 192:C:/Users/stapi/OneDrive/Desktop/GD32VW553/V1_MQTT_OK/GD32VW55X_Wifi_BLE_SDK/GD32VW55x_RELEASE_V1.0.2/MSDK/lwip/lwip-2.1.2/src/apps/lwiperf\lwiperf.c **** {
 193:C:/Users/stapi/OneDrive/Desktop/GD32VW553/V1_MQTT_OK/GD32VW55X_Wifi_BLE_SDK/GD32VW55x_RELEASE_V1.0.2/MSDK/lwip/lwip-2.1.2/src/apps/lwiperf\lwiperf.c ****   if ((conn != NULL) && (conn->report_fn != NULL)) {
 194:C:/Users/stapi/OneDrive/Desktop/GD32VW553/V1_MQTT_OK/GD32VW55X_Wifi_BLE_SDK/GD32VW55x_RELEASE_V1.0.2/MSDK/lwip/lwip-2.1.2/src/apps/lwiperf\lwiperf.c ****     u32_t now, duration_ms, bandwidth_kbitpsec;
 195:C:/Users/stapi/OneDrive/Desktop/GD32VW553/V1_MQTT_OK/GD32VW55X_Wifi_BLE_SDK/GD32VW55x_RELEASE_V1.0.2/MSDK/lwip/lwip-2.1.2/src/apps/lwiperf\lwiperf.c ****     now = sys_now();
 196:C:/Users/stapi/OneDrive/Desktop/GD32VW553/V1_MQTT_OK/GD32VW55X_Wifi_BLE_SDK/GD32VW55x_RELEASE_V1.0.2/MSDK/lwip/lwip-2.1.2/src/apps/lwiperf\lwiperf.c ****     duration_ms = now - conn->time_started;
 197:C:/Users/stapi/OneDrive/Desktop/GD32VW553/V1_MQTT_OK/GD32VW55X_Wifi_BLE_SDK/GD32VW55x_RELEASE_V1.0.2/MSDK/lwip/lwip-2.1.2/src/apps/lwiperf\lwiperf.c ****     if (duration_ms == 0) {
 198:C:/Users/stapi/OneDrive/Desktop/GD32VW553/V1_MQTT_OK/GD32VW55X_Wifi_BLE_SDK/GD32VW55x_RELEASE_V1.0.2/MSDK/lwip/lwip-2.1.2/src/apps/lwiperf\lwiperf.c ****       bandwidth_kbitpsec = 0;
 199:C:/Users/stapi/OneDrive/Desktop/GD32VW553/V1_MQTT_OK/GD32VW55X_Wifi_BLE_SDK/GD32VW55x_RELEASE_V1.0.2/MSDK/lwip/lwip-2.1.2/src/apps/lwiperf\lwiperf.c ****     } else {
 200:C:/Users/stapi/OneDrive/Desktop/GD32VW553/V1_MQTT_OK/GD32VW55X_Wifi_BLE_SDK/GD32VW55x_RELEASE_V1.0.2/MSDK/lwip/lwip-2.1.2/src/apps/lwiperf\lwiperf.c ****       bandwidth_kbitpsec = (conn->bytes_transferred / duration_ms) * 8U;
 201:C:/Users/stapi/OneDrive/Desktop/GD32VW553/V1_MQTT_OK/GD32VW55X_Wifi_BLE_SDK/GD32VW55x_RELEASE_V1.0.2/MSDK/lwip/lwip-2.1.2/src/apps/lwiperf\lwiperf.c ****     }
 202:C:/Users/stapi/OneDrive/Desktop/GD32VW553/V1_MQTT_OK/GD32VW55X_Wifi_BLE_SDK/GD32VW55x_RELEASE_V1.0.2/MSDK/lwip/lwip-2.1.2/src/apps/lwiperf\lwiperf.c ****     conn->report_fn(conn->report_arg, report_type,
 203:C:/Users/stapi/OneDrive/Desktop/GD32VW553/V1_MQTT_OK/GD32VW55X_Wifi_BLE_SDK/GD32VW55x_RELEASE_V1.0.2/MSDK/lwip/lwip-2.1.2/src/apps/lwiperf\lwiperf.c ****                     &conn->conn_pcb->local_ip, conn->conn_pcb->local_port,
 204:C:/Users/stapi/OneDrive/Desktop/GD32VW553/V1_MQTT_OK/GD32VW55X_Wifi_BLE_SDK/GD32VW55x_RELEASE_V1.0.2/MSDK/lwip/lwip-2.1.2/src/apps/lwiperf\lwiperf.c ****                     &conn->conn_pcb->remote_ip, conn->conn_pcb->remote_port,
 205:C:/Users/stapi/OneDrive/Desktop/GD32VW553/V1_MQTT_OK/GD32VW55X_Wifi_BLE_SDK/GD32VW55x_RELEASE_V1.0.2/MSDK/lwip/lwip-2.1.2/src/apps/lwiperf\lwiperf.c ****                     conn->bytes_transferred, duration_ms, bandwidth_kbitpsec);
 206:C:/Users/stapi/OneDrive/Desktop/GD32VW553/V1_MQTT_OK/GD32VW55X_Wifi_BLE_SDK/GD32VW55x_RELEASE_V1.0.2/MSDK/lwip/lwip-2.1.2/src/apps/lwiperf\lwiperf.c ****   }
 207:C:/Users/stapi/OneDrive/Desktop/GD32VW553/V1_MQTT_OK/GD32VW55X_Wifi_BLE_SDK/GD32VW55x_RELEASE_V1.0.2/MSDK/lwip/lwip-2.1.2/src/apps/lwiperf\lwiperf.c **** }
 208:C:/Users/stapi/OneDrive/Desktop/GD32VW553/V1_MQTT_OK/GD32VW55X_Wifi_BLE_SDK/GD32VW55x_RELEASE_V1.0.2/MSDK/lwip/lwip-2.1.2/src/apps/lwiperf\lwiperf.c **** 
 209:C:/Users/stapi/OneDrive/Desktop/GD32VW553/V1_MQTT_OK/GD32VW55X_Wifi_BLE_SDK/GD32VW55x_RELEASE_V1.0.2/MSDK/lwip/lwip-2.1.2/src/apps/lwiperf\lwiperf.c **** /** Close an iperf tcp session */
 210:C:/Users/stapi/OneDrive/Desktop/GD32VW553/V1_MQTT_OK/GD32VW55X_Wifi_BLE_SDK/GD32VW55x_RELEASE_V1.0.2/MSDK/lwip/lwip-2.1.2/src/apps/lwiperf\lwiperf.c **** static void
 211:C:/Users/stapi/OneDrive/Desktop/GD32VW553/V1_MQTT_OK/GD32VW55X_Wifi_BLE_SDK/GD32VW55x_RELEASE_V1.0.2/MSDK/lwip/lwip-2.1.2/src/apps/lwiperf\lwiperf.c **** lwiperf_tcp_close(lwiperf_state_tcp_t *conn, enum lwiperf_report_type report_type)
 212:C:/Users/stapi/OneDrive/Desktop/GD32VW553/V1_MQTT_OK/GD32VW55X_Wifi_BLE_SDK/GD32VW55x_RELEASE_V1.0.2/MSDK/lwip/lwip-2.1.2/src/apps/lwiperf\lwiperf.c **** {
  28              		.loc 1 212 1
  29              		.cfi_startproc
  30              	.LVL0:
  31 0000 17030000 		call	t0,__riscv_save_1
  31      E7020300 
  32              		.cfi_offset 8, -8
  33              		.cfi_offset 1, -4
  34              		.cfi_def_cfa_offset 16
 213:C:/Users/stapi/OneDrive/Desktop/GD32VW553/V1_MQTT_OK/GD32VW55X_Wifi_BLE_SDK/GD32VW55x_RELEASE_V1.0.2/MSDK/lwip/lwip-2.1.2/src/apps/lwiperf\lwiperf.c ****   err_t err;
  35              		.loc 1 213 3
 214:C:/Users/stapi/OneDrive/Desktop/GD32VW553/V1_MQTT_OK/GD32VW55X_Wifi_BLE_SDK/GD32VW55x_RELEASE_V1.0.2/MSDK/lwip/lwip-2.1.2/src/apps/lwiperf\lwiperf.c **** 
 215:C:/Users/stapi/OneDrive/Desktop/GD32VW553/V1_MQTT_OK/GD32VW55X_Wifi_BLE_SDK/GD32VW55x_RELEASE_V1.0.2/MSDK/lwip/lwip-2.1.2/src/apps/lwiperf\lwiperf.c ****   lwiperf_list_remove(&conn->base);
  36              		.loc 1 215 3
  37              	.LBB10:
  38              	.LBB11:
 161:C:/Users/stapi/OneDrive/Desktop/GD32VW553/V1_MQTT_OK/GD32VW55X_Wifi_BLE_SDK/GD32VW55x_RELEASE_V1.0.2/MSDK/lwip/lwip-2.1.2/src/apps/lwiperf\lwiperf.c ****     if (iter == item) {
  39              		.loc 1 161 13 is_stmt 0
  40 0008 37070000 		lui	a4,%hi(.LANCHOR0)
  41 000c 83270700 		lw	a5,%lo(.LANCHOR0)(a4)
  42              	.LBE11:
  43              	.LBE10:
 212:C:/Users/stapi/OneDrive/Desktop/GD32VW553/V1_MQTT_OK/GD32VW55X_Wifi_BLE_SDK/GD32VW55x_RELEASE_V1.0.2/MSDK/lwip/lwip-2.1.2/src/apps/lwiperf\lwiperf.c ****   err_t err;
  44              		.loc 1 212 1
  45 0010 0111     		addi	sp,sp,-32
  46              		.cfi_def_cfa_offset 48
 212:C:/Users/stapi/OneDrive/Desktop/GD32VW553/V1_MQTT_OK/GD32VW55X_Wifi_BLE_SDK/GD32VW55x_RELEASE_V1.0.2/MSDK/lwip/lwip-2.1.2/src/apps/lwiperf\lwiperf.c ****   err_t err;
  47              		.loc 1 212 1
  48 0012 2A84     		mv	s0,a0
  49              	.LVL1:
  50              	.LBB14:
  51              	.LBB12:
 159:C:/Users/stapi/OneDrive/Desktop/GD32VW553/V1_MQTT_OK/GD32VW55X_Wifi_BLE_SDK/GD32VW55x_RELEASE_V1.0.2/MSDK/lwip/lwip-2.1.2/src/apps/lwiperf\lwiperf.c ****   lwiperf_state_base_t *iter;
  52              		.loc 1 159 3 is_stmt 1
 160:C:/Users/stapi/OneDrive/Desktop/GD32VW553/V1_MQTT_OK/GD32VW55X_Wifi_BLE_SDK/GD32VW55x_RELEASE_V1.0.2/MSDK/lwip/lwip-2.1.2/src/apps/lwiperf\lwiperf.c ****   for (iter = lwiperf_all_connections; iter != NULL; prev = iter, iter = iter->next) {
  53              		.loc 1 160 3
 161:C:/Users/stapi/OneDrive/Desktop/GD32VW553/V1_MQTT_OK/GD32VW55X_Wifi_BLE_SDK/GD32VW55x_RELEASE_V1.0.2/MSDK/lwip/lwip-2.1.2/src/apps/lwiperf\lwiperf.c ****     if (iter == item) {
  54              		.loc 1 161 3
 159:C:/Users/stapi/OneDrive/Desktop/GD32VW553/V1_MQTT_OK/GD32VW55X_Wifi_BLE_SDK/GD32VW55x_RELEASE_V1.0.2/MSDK/lwip/lwip-2.1.2/src/apps/lwiperf\lwiperf.c ****   lwiperf_state_base_t *iter;
  55              		.loc 1 159 25 is_stmt 0
  56 0014 8146     		li	a3,0
  57 0016 13070700 		addi	a4,a4,%lo(.LANCHOR0)
  58              	.LVL2:
  59              	.L2:
 161:C:/Users/stapi/OneDrive/Desktop/GD32VW553/V1_MQTT_OK/GD32VW55X_Wifi_BLE_SDK/GD32VW55x_RELEASE_V1.0.2/MSDK/lwip/lwip-2.1.2/src/apps/lwiperf\lwiperf.c ****     if (iter == item) {
  60              		.loc 1 161 40 is_stmt 1
 161:C:/Users/stapi/OneDrive/Desktop/GD32VW553/V1_MQTT_OK/GD32VW55X_Wifi_BLE_SDK/GD32VW55x_RELEASE_V1.0.2/MSDK/lwip/lwip-2.1.2/src/apps/lwiperf\lwiperf.c ****     if (iter == item) {
  61              		.loc 1 161 3 is_stmt 0
  62 001a 81CB     		beq	a5,zero,.L12
 162:C:/Users/stapi/OneDrive/Desktop/GD32VW553/V1_MQTT_OK/GD32VW55X_Wifi_BLE_SDK/GD32VW55x_RELEASE_V1.0.2/MSDK/lwip/lwip-2.1.2/src/apps/lwiperf\lwiperf.c ****       if (prev == NULL) {
  63              		.loc 1 162 5 is_stmt 1
 164:C:/Users/stapi/OneDrive/Desktop/GD32VW553/V1_MQTT_OK/GD32VW55X_Wifi_BLE_SDK/GD32VW55x_RELEASE_V1.0.2/MSDK/lwip/lwip-2.1.2/src/apps/lwiperf\lwiperf.c ****       } else {
  64              		.loc 1 164 39 is_stmt 0
  65 001c 9043     		lw	a2,0(a5)
 162:C:/Users/stapi/OneDrive/Desktop/GD32VW553/V1_MQTT_OK/GD32VW55X_Wifi_BLE_SDK/GD32VW55x_RELEASE_V1.0.2/MSDK/lwip/lwip-2.1.2/src/apps/lwiperf\lwiperf.c ****       if (prev == NULL) {
  66              		.loc 1 162 8
  67 001e 6313F40A 		bne	s0,a5,.L18
 163:C:/Users/stapi/OneDrive/Desktop/GD32VW553/V1_MQTT_OK/GD32VW55X_Wifi_BLE_SDK/GD32VW55x_RELEASE_V1.0.2/MSDK/lwip/lwip-2.1.2/src/apps/lwiperf\lwiperf.c ****         lwiperf_all_connections = iter->next;
  68              		.loc 1 163 7 is_stmt 1
 163:C:/Users/stapi/OneDrive/Desktop/GD32VW553/V1_MQTT_OK/GD32VW55X_Wifi_BLE_SDK/GD32VW55x_RELEASE_V1.0.2/MSDK/lwip/lwip-2.1.2/src/apps/lwiperf\lwiperf.c ****         lwiperf_all_connections = iter->next;
  69              		.loc 1 163 10 is_stmt 0
  70 0022 B5EA     		bne	a3,zero,.L3
 164:C:/Users/stapi/OneDrive/Desktop/GD32VW553/V1_MQTT_OK/GD32VW55X_Wifi_BLE_SDK/GD32VW55x_RELEASE_V1.0.2/MSDK/lwip/lwip-2.1.2/src/apps/lwiperf\lwiperf.c ****       } else {
  71              		.loc 1 164 9 is_stmt 1
 164:C:/Users/stapi/OneDrive/Desktop/GD32VW553/V1_MQTT_OK/GD32VW55X_Wifi_BLE_SDK/GD32VW55x_RELEASE_V1.0.2/MSDK/lwip/lwip-2.1.2/src/apps/lwiperf\lwiperf.c ****       } else {
  72              		.loc 1 164 33 is_stmt 0
  73 0024 10C3     		sw	a2,0(a4)
  74              	.L6:
 170:C:/Users/stapi/OneDrive/Desktop/GD32VW553/V1_MQTT_OK/GD32VW55X_Wifi_BLE_SDK/GD32VW55x_RELEASE_V1.0.2/MSDK/lwip/lwip-2.1.2/src/apps/lwiperf\lwiperf.c ****       }
  75              		.loc 1 170 9 is_stmt 1
 170:C:/Users/stapi/OneDrive/Desktop/GD32VW553/V1_MQTT_OK/GD32VW55X_Wifi_BLE_SDK/GD32VW55x_RELEASE_V1.0.2/MSDK/lwip/lwip-2.1.2/src/apps/lwiperf\lwiperf.c ****       }
  76              		.loc 1 170 9
 169:C:/Users/stapi/OneDrive/Desktop/GD32VW553/V1_MQTT_OK/GD32VW55X_Wifi_BLE_SDK/GD32VW55x_RELEASE_V1.0.2/MSDK/lwip/lwip-2.1.2/src/apps/lwiperf\lwiperf.c ****         LWIP_ASSERT("duplicate entry", iter != item);
  77              		.loc 1 169 45
 169:C:/Users/stapi/OneDrive/Desktop/GD32VW553/V1_MQTT_OK/GD32VW55X_Wifi_BLE_SDK/GD32VW55x_RELEASE_V1.0.2/MSDK/lwip/lwip-2.1.2/src/apps/lwiperf\lwiperf.c ****         LWIP_ASSERT("duplicate entry", iter != item);
  78              		.loc 1 169 50 is_stmt 0
  79 0026 9C43     		lw	a5,0(a5)
  80              	.LVL3:
 169:C:/Users/stapi/OneDrive/Desktop/GD32VW553/V1_MQTT_OK/GD32VW55X_Wifi_BLE_SDK/GD32VW55x_RELEASE_V1.0.2/MSDK/lwip/lwip-2.1.2/src/apps/lwiperf\lwiperf.c ****         LWIP_ASSERT("duplicate entry", iter != item);
  81              		.loc 1 169 31 is_stmt 1
 169:C:/Users/stapi/OneDrive/Desktop/GD32VW553/V1_MQTT_OK/GD32VW55X_Wifi_BLE_SDK/GD32VW55x_RELEASE_V1.0.2/MSDK/lwip/lwip-2.1.2/src/apps/lwiperf\lwiperf.c ****         LWIP_ASSERT("duplicate entry", iter != item);
  82              		.loc 1 169 7 is_stmt 0
  83 0028 ADEB     		bne	a5,zero,.L8
  84              	.L12:
  85              	.LVL4:
  86              	.LBE12:
  87              	.LBE14:
 216:C:/Users/stapi/OneDrive/Desktop/GD32VW553/V1_MQTT_OK/GD32VW55X_Wifi_BLE_SDK/GD32VW55x_RELEASE_V1.0.2/MSDK/lwip/lwip-2.1.2/src/apps/lwiperf\lwiperf.c ****   lwip_tcp_conn_report(conn, report_type);
  88              		.loc 1 216 3 is_stmt 1
  89              	.LBB15:
  90              	.LBB16:
 193:C:/Users/stapi/OneDrive/Desktop/GD32VW553/V1_MQTT_OK/GD32VW55X_Wifi_BLE_SDK/GD32VW55x_RELEASE_V1.0.2/MSDK/lwip/lwip-2.1.2/src/apps/lwiperf\lwiperf.c ****     u32_t now, duration_ms, bandwidth_kbitpsec;
  91              		.loc 1 193 3
 193:C:/Users/stapi/OneDrive/Desktop/GD32VW553/V1_MQTT_OK/GD32VW55X_Wifi_BLE_SDK/GD32VW55x_RELEASE_V1.0.2/MSDK/lwip/lwip-2.1.2/src/apps/lwiperf\lwiperf.c ****     u32_t now, duration_ms, bandwidth_kbitpsec;
  92              		.loc 1 193 6 is_stmt 0
  93 002a 45E0     		bne	s0,zero,.L9
  94              	.LVL5:
  95              	.L10:
  96              	.LBE16:
  97              	.LBE15:
 217:C:/Users/stapi/OneDrive/Desktop/GD32VW553/V1_MQTT_OK/GD32VW55X_Wifi_BLE_SDK/GD32VW55x_RELEASE_V1.0.2/MSDK/lwip/lwip-2.1.2/src/apps/lwiperf\lwiperf.c ****   if (conn->conn_pcb != NULL) {
  98              		.loc 1 217 3 is_stmt 1
  99              		.loc 1 217 11 is_stmt 0
 100 002c 0848     		lw	a0,16(s0)
 101              		.loc 1 217 6
 102 002e 71CD     		beq	a0,zero,.L14
 218:C:/Users/stapi/OneDrive/Desktop/GD32VW553/V1_MQTT_OK/GD32VW55X_Wifi_BLE_SDK/GD32VW55x_RELEASE_V1.0.2/MSDK/lwip/lwip-2.1.2/src/apps/lwiperf\lwiperf.c ****     tcp_arg(conn->conn_pcb, NULL);
 103              		.loc 1 218 5 is_stmt 1
 104 0030 8145     		li	a1,0
 105 0032 97000000 		call	tcp_arg
 105      E7800000 
 106              	.LVL6:
 219:C:/Users/stapi/OneDrive/Desktop/GD32VW553/V1_MQTT_OK/GD32VW55X_Wifi_BLE_SDK/GD32VW55x_RELEASE_V1.0.2/MSDK/lwip/lwip-2.1.2/src/apps/lwiperf\lwiperf.c ****     tcp_poll(conn->conn_pcb, NULL, 0);
 107              		.loc 1 219 5
 108 003a 0848     		lw	a0,16(s0)
 109 003c 0146     		li	a2,0
 110 003e 8145     		li	a1,0
 111 0040 97000000 		call	tcp_poll
 111      E7800000 
 112              	.LVL7:
 220:C:/Users/stapi/OneDrive/Desktop/GD32VW553/V1_MQTT_OK/GD32VW55X_Wifi_BLE_SDK/GD32VW55x_RELEASE_V1.0.2/MSDK/lwip/lwip-2.1.2/src/apps/lwiperf\lwiperf.c ****     tcp_sent(conn->conn_pcb, NULL);
 113              		.loc 1 220 5
 114 0048 0848     		lw	a0,16(s0)
 115 004a 8145     		li	a1,0
 116 004c 97000000 		call	tcp_sent
 116      E7800000 
 117              	.LVL8:
 221:C:/Users/stapi/OneDrive/Desktop/GD32VW553/V1_MQTT_OK/GD32VW55X_Wifi_BLE_SDK/GD32VW55x_RELEASE_V1.0.2/MSDK/lwip/lwip-2.1.2/src/apps/lwiperf\lwiperf.c ****     tcp_recv(conn->conn_pcb, NULL);
 118              		.loc 1 221 5
 119 0054 0848     		lw	a0,16(s0)
 120 0056 8145     		li	a1,0
 121 0058 97000000 		call	tcp_recv
 121      E7800000 
 122              	.LVL9:
 222:C:/Users/stapi/OneDrive/Desktop/GD32VW553/V1_MQTT_OK/GD32VW55X_Wifi_BLE_SDK/GD32VW55x_RELEASE_V1.0.2/MSDK/lwip/lwip-2.1.2/src/apps/lwiperf\lwiperf.c ****     tcp_err(conn->conn_pcb, NULL);
 123              		.loc 1 222 5
 124 0060 0848     		lw	a0,16(s0)
 125 0062 8145     		li	a1,0
 126 0064 97000000 		call	tcp_err
 126      E7800000 
 127              	.LVL10:
 223:C:/Users/stapi/OneDrive/Desktop/GD32VW553/V1_MQTT_OK/GD32VW55X_Wifi_BLE_SDK/GD32VW55x_RELEASE_V1.0.2/MSDK/lwip/lwip-2.1.2/src/apps/lwiperf\lwiperf.c ****     err = tcp_close(conn->conn_pcb);
 128              		.loc 1 223 5
 129              		.loc 1 223 11 is_stmt 0
 130 006c 0848     		lw	a0,16(s0)
 131 006e 97000000 		call	tcp_close
 131      E7800000 
 132              	.LVL11:
 224:C:/Users/stapi/OneDrive/Desktop/GD32VW553/V1_MQTT_OK/GD32VW55X_Wifi_BLE_SDK/GD32VW55x_RELEASE_V1.0.2/MSDK/lwip/lwip-2.1.2/src/apps/lwiperf\lwiperf.c ****     if (err != ERR_OK) {
 133              		.loc 1 224 5 is_stmt 1
 134              		.loc 1 224 8 is_stmt 0
 135 0076 11C5     		beq	a0,zero,.L16
 225:C:/Users/stapi/OneDrive/Desktop/GD32VW553/V1_MQTT_OK/GD32VW55X_Wifi_BLE_SDK/GD32VW55x_RELEASE_V1.0.2/MSDK/lwip/lwip-2.1.2/src/apps/lwiperf\lwiperf.c ****       /* don't want to wait for free memory here... */
 226:C:/Users/stapi/OneDrive/Desktop/GD32VW553/V1_MQTT_OK/GD32VW55X_Wifi_BLE_SDK/GD32VW55x_RELEASE_V1.0.2/MSDK/lwip/lwip-2.1.2/src/apps/lwiperf\lwiperf.c ****       tcp_abort(conn->conn_pcb);
 136              		.loc 1 226 7 is_stmt 1
 137 0078 0848     		lw	a0,16(s0)
 138              	.LVL12:
 139 007a 97000000 		call	tcp_abort
 139      E7800000 
 140              	.LVL13:
 141              	.L16:
 227:C:/Users/stapi/OneDrive/Desktop/GD32VW553/V1_MQTT_OK/GD32VW55X_Wifi_BLE_SDK/GD32VW55x_RELEASE_V1.0.2/MSDK/lwip/lwip-2.1.2/src/apps/lwiperf\lwiperf.c ****     }
 228:C:/Users/stapi/OneDrive/Desktop/GD32VW553/V1_MQTT_OK/GD32VW55X_Wifi_BLE_SDK/GD32VW55x_RELEASE_V1.0.2/MSDK/lwip/lwip-2.1.2/src/apps/lwiperf\lwiperf.c ****   } else {
 229:C:/Users/stapi/OneDrive/Desktop/GD32VW553/V1_MQTT_OK/GD32VW55X_Wifi_BLE_SDK/GD32VW55x_RELEASE_V1.0.2/MSDK/lwip/lwip-2.1.2/src/apps/lwiperf\lwiperf.c ****     /* no conn pcb, this is the listener pcb */
 230:C:/Users/stapi/OneDrive/Desktop/GD32VW553/V1_MQTT_OK/GD32VW55X_Wifi_BLE_SDK/GD32VW55x_RELEASE_V1.0.2/MSDK/lwip/lwip-2.1.2/src/apps/lwiperf\lwiperf.c ****     err = tcp_close(conn->server_pcb);
 231:C:/Users/stapi/OneDrive/Desktop/GD32VW553/V1_MQTT_OK/GD32VW55X_Wifi_BLE_SDK/GD32VW55x_RELEASE_V1.0.2/MSDK/lwip/lwip-2.1.2/src/apps/lwiperf\lwiperf.c ****     LWIP_ASSERT("error", err == ERR_OK);
 142              		.loc 1 231 5 discriminator 2
 143              		.loc 1 231 5 discriminator 2
 232:C:/Users/stapi/OneDrive/Desktop/GD32VW553/V1_MQTT_OK/GD32VW55X_Wifi_BLE_SDK/GD32VW55x_RELEASE_V1.0.2/MSDK/lwip/lwip-2.1.2/src/apps/lwiperf\lwiperf.c ****   }
 233:C:/Users/stapi/OneDrive/Desktop/GD32VW553/V1_MQTT_OK/GD32VW55X_Wifi_BLE_SDK/GD32VW55x_RELEASE_V1.0.2/MSDK/lwip/lwip-2.1.2/src/apps/lwiperf\lwiperf.c ****   LWIPERF_FREE(lwiperf_state_tcp_t, conn);
 144              		.loc 1 233 3 discriminator 2
 145 0082 2285     		mv	a0,s0
 146 0084 97000000 		call	mem_free
 146      E7800000 
 147              	.LVL14:
 234:C:/Users/stapi/OneDrive/Desktop/GD32VW553/V1_MQTT_OK/GD32VW55X_Wifi_BLE_SDK/GD32VW55x_RELEASE_V1.0.2/MSDK/lwip/lwip-2.1.2/src/apps/lwiperf\lwiperf.c **** }
 148              		.loc 1 234 1 is_stmt 0 discriminator 2
 149 008c 0561     		addi	sp,sp,32
 150              		.cfi_remember_state
 151              		.cfi_def_cfa_offset 0
 152 008e 17030000 		tail	__riscv_restore_1
 152      67000300 
 153              		.cfi_restore 8
 154              		.cfi_restore 1
 155              		.cfi_def_cfa_offset -16
 156              	.LVL15:
 157              	.L3:
 158              		.cfi_restore_state
 159              	.LBB19:
 160              	.LBB13:
 166:C:/Users/stapi/OneDrive/Desktop/GD32VW553/V1_MQTT_OK/GD32VW55X_Wifi_BLE_SDK/GD32VW55x_RELEASE_V1.0.2/MSDK/lwip/lwip-2.1.2/src/apps/lwiperf\lwiperf.c ****       }
 161              		.loc 1 166 9 is_stmt 1
 166:C:/Users/stapi/OneDrive/Desktop/GD32VW553/V1_MQTT_OK/GD32VW55X_Wifi_BLE_SDK/GD32VW55x_RELEASE_V1.0.2/MSDK/lwip/lwip-2.1.2/src/apps/lwiperf\lwiperf.c ****       }
 162              		.loc 1 166 20 is_stmt 0
 163 0096 90C2     		sw	a2,0(a3)
 169:C:/Users/stapi/OneDrive/Desktop/GD32VW553/V1_MQTT_OK/GD32VW55X_Wifi_BLE_SDK/GD32VW55x_RELEASE_V1.0.2/MSDK/lwip/lwip-2.1.2/src/apps/lwiperf\lwiperf.c ****         LWIP_ASSERT("duplicate entry", iter != item);
 164              		.loc 1 169 7 is_stmt 1
 165 0098 79B7     		j	.L6
 166              	.L8:
 170:C:/Users/stapi/OneDrive/Desktop/GD32VW553/V1_MQTT_OK/GD32VW55X_Wifi_BLE_SDK/GD32VW55x_RELEASE_V1.0.2/MSDK/lwip/lwip-2.1.2/src/apps/lwiperf\lwiperf.c ****       }
 167              		.loc 1 170 9
 170:C:/Users/stapi/OneDrive/Desktop/GD32VW553/V1_MQTT_OK/GD32VW55X_Wifi_BLE_SDK/GD32VW55x_RELEASE_V1.0.2/MSDK/lwip/lwip-2.1.2/src/apps/lwiperf\lwiperf.c ****       }
 168              		.loc 1 170 9
 169 009a E316F4F8 		bne	s0,a5,.L6
 170:C:/Users/stapi/OneDrive/Desktop/GD32VW553/V1_MQTT_OK/GD32VW55X_Wifi_BLE_SDK/GD32VW55x_RELEASE_V1.0.2/MSDK/lwip/lwip-2.1.2/src/apps/lwiperf\lwiperf.c ****       }
 170              		.loc 1 170 9
 170:C:/Users/stapi/OneDrive/Desktop/GD32VW553/V1_MQTT_OK/GD32VW55X_Wifi_BLE_SDK/GD32VW55x_RELEASE_V1.0.2/MSDK/lwip/lwip-2.1.2/src/apps/lwiperf\lwiperf.c ****       }
 171              		.loc 1 170 9
 172 009e B7060000 		lui	a3,%hi(.LC0)
 173              	.LVL16:
 174 00a2 B7050000 		lui	a1,%hi(.LC1)
 175              	.LVL17:
 176 00a6 37050000 		lui	a0,%hi(.LC2)
 177 00aa 93860600 		addi	a3,a3,%lo(.LC0)
 178 00ae 1306A00A 		li	a2,170
 179 00b2 93850500 		addi	a1,a1,%lo(.LC1)
 180 00b6 13050500 		addi	a0,a0,%lo(.LC2)
 181 00ba 97000000 		call	printf
 181      E7800000 
 182              	.LVL18:
 183              	.L7:
 170:C:/Users/stapi/OneDrive/Desktop/GD32VW553/V1_MQTT_OK/GD32VW55X_Wifi_BLE_SDK/GD32VW55x_RELEASE_V1.0.2/MSDK/lwip/lwip-2.1.2/src/apps/lwiperf\lwiperf.c ****       }
 184              		.loc 1 170 9
 170:C:/Users/stapi/OneDrive/Desktop/GD32VW553/V1_MQTT_OK/GD32VW55X_Wifi_BLE_SDK/GD32VW55x_RELEASE_V1.0.2/MSDK/lwip/lwip-2.1.2/src/apps/lwiperf\lwiperf.c ****       }
 185              		.loc 1 170 9
 170:C:/Users/stapi/OneDrive/Desktop/GD32VW553/V1_MQTT_OK/GD32VW55X_Wifi_BLE_SDK/GD32VW55x_RELEASE_V1.0.2/MSDK/lwip/lwip-2.1.2/src/apps/lwiperf\lwiperf.c ****       }
 186              		.loc 1 170 9
 187 00c2 01A0     		j	.L7
 188              	.LVL19:
 189              	.L18:
 190 00c4 BE86     		mv	a3,a5
 191              	.LVL20:
 164:C:/Users/stapi/OneDrive/Desktop/GD32VW553/V1_MQTT_OK/GD32VW55X_Wifi_BLE_SDK/GD32VW55x_RELEASE_V1.0.2/MSDK/lwip/lwip-2.1.2/src/apps/lwiperf\lwiperf.c ****       } else {
 192              		.loc 1 164 39 is_stmt 0
 193 00c6 B287     		mv	a5,a2
 194              	.LVL21:
 195 00c8 89BF     		j	.L2
 196              	.LVL22:
 197              	.L9:
 198              	.LBE13:
 199              	.LBE19:
 200              	.LBB20:
 201              	.LBB18:
 193:C:/Users/stapi/OneDrive/Desktop/GD32VW553/V1_MQTT_OK/GD32VW55X_Wifi_BLE_SDK/GD32VW55x_RELEASE_V1.0.2/MSDK/lwip/lwip-2.1.2/src/apps/lwiperf\lwiperf.c ****     u32_t now, duration_ms, bandwidth_kbitpsec;
 202              		.loc 1 193 22
 203 00ca 1C4C     		lw	a5,24(s0)
 204 00cc 2ECE     		sw	a1,28(sp)
 205 00ce B9DF     		beq	a5,zero,.L10
 206              	.LBB17:
 194:C:/Users/stapi/OneDrive/Desktop/GD32VW553/V1_MQTT_OK/GD32VW55X_Wifi_BLE_SDK/GD32VW55x_RELEASE_V1.0.2/MSDK/lwip/lwip-2.1.2/src/apps/lwiperf\lwiperf.c ****     now = sys_now();
 207              		.loc 1 194 5 is_stmt 1
 195:C:/Users/stapi/OneDrive/Desktop/GD32VW553/V1_MQTT_OK/GD32VW55X_Wifi_BLE_SDK/GD32VW55x_RELEASE_V1.0.2/MSDK/lwip/lwip-2.1.2/src/apps/lwiperf\lwiperf.c ****     duration_ms = now - conn->time_started;
 208              		.loc 1 195 5
 195:C:/Users/stapi/OneDrive/Desktop/GD32VW553/V1_MQTT_OK/GD32VW55X_Wifi_BLE_SDK/GD32VW55x_RELEASE_V1.0.2/MSDK/lwip/lwip-2.1.2/src/apps/lwiperf\lwiperf.c ****     duration_ms = now - conn->time_started;
 209              		.loc 1 195 11 is_stmt 0
 210 00d0 97000000 		call	sys_now
 210      E7800000 
 211              	.LVL23:
 196:C:/Users/stapi/OneDrive/Desktop/GD32VW553/V1_MQTT_OK/GD32VW55X_Wifi_BLE_SDK/GD32VW55x_RELEASE_V1.0.2/MSDK/lwip/lwip-2.1.2/src/apps/lwiperf\lwiperf.c ****     if (duration_ms == 0) {
 212              		.loc 1 196 5 is_stmt 1
 196:C:/Users/stapi/OneDrive/Desktop/GD32VW553/V1_MQTT_OK/GD32VW55X_Wifi_BLE_SDK/GD32VW55x_RELEASE_V1.0.2/MSDK/lwip/lwip-2.1.2/src/apps/lwiperf\lwiperf.c ****     if (duration_ms == 0) {
 213              		.loc 1 196 17 is_stmt 0
 214 00d8 5C48     		lw	a5,20(s0)
 215 00da 03284402 		lw	a6,36(s0)
 197:C:/Users/stapi/OneDrive/Desktop/GD32VW553/V1_MQTT_OK/GD32VW55X_Wifi_BLE_SDK/GD32VW55x_RELEASE_V1.0.2/MSDK/lwip/lwip-2.1.2/src/apps/lwiperf\lwiperf.c ****       bandwidth_kbitpsec = 0;
 216              		.loc 1 197 8
 217 00de F245     		lw	a1,28(sp)
 196:C:/Users/stapi/OneDrive/Desktop/GD32VW553/V1_MQTT_OK/GD32VW55X_Wifi_BLE_SDK/GD32VW55x_RELEASE_V1.0.2/MSDK/lwip/lwip-2.1.2/src/apps/lwiperf\lwiperf.c ****     if (duration_ms == 0) {
 218              		.loc 1 196 17
 219 00e0 B308F540 		sub	a7,a0,a5
 220              	.LVL24:
 197:C:/Users/stapi/OneDrive/Desktop/GD32VW553/V1_MQTT_OK/GD32VW55X_Wifi_BLE_SDK/GD32VW55x_RELEASE_V1.0.2/MSDK/lwip/lwip-2.1.2/src/apps/lwiperf\lwiperf.c ****       bandwidth_kbitpsec = 0;
 221              		.loc 1 197 5 is_stmt 1
 198:C:/Users/stapi/OneDrive/Desktop/GD32VW553/V1_MQTT_OK/GD32VW55X_Wifi_BLE_SDK/GD32VW55x_RELEASE_V1.0.2/MSDK/lwip/lwip-2.1.2/src/apps/lwiperf\lwiperf.c ****     } else {
 222              		.loc 1 198 26 is_stmt 0
 223 00e4 0147     		li	a4,0
 197:C:/Users/stapi/OneDrive/Desktop/GD32VW553/V1_MQTT_OK/GD32VW55X_Wifi_BLE_SDK/GD32VW55x_RELEASE_V1.0.2/MSDK/lwip/lwip-2.1.2/src/apps/lwiperf\lwiperf.c ****       bandwidth_kbitpsec = 0;
 224              		.loc 1 197 8
 225 00e6 6305F500 		beq	a0,a5,.L13
 200:C:/Users/stapi/OneDrive/Desktop/GD32VW553/V1_MQTT_OK/GD32VW55X_Wifi_BLE_SDK/GD32VW55x_RELEASE_V1.0.2/MSDK/lwip/lwip-2.1.2/src/apps/lwiperf\lwiperf.c ****     }
 226              		.loc 1 200 7 is_stmt 1
 200:C:/Users/stapi/OneDrive/Desktop/GD32VW553/V1_MQTT_OK/GD32VW55X_Wifi_BLE_SDK/GD32VW55x_RELEASE_V1.0.2/MSDK/lwip/lwip-2.1.2/src/apps/lwiperf\lwiperf.c ****     }
 227              		.loc 1 200 53 is_stmt 0
 228 00ea 33571803 		divu	a4,a6,a7
 200:C:/Users/stapi/OneDrive/Desktop/GD32VW553/V1_MQTT_OK/GD32VW55X_Wifi_BLE_SDK/GD32VW55x_RELEASE_V1.0.2/MSDK/lwip/lwip-2.1.2/src/apps/lwiperf\lwiperf.c ****     }
 229              		.loc 1 200 26
 230 00ee 0E07     		slli	a4,a4,3
 231              	.LVL25:
 232              	.L13:
 202:C:/Users/stapi/OneDrive/Desktop/GD32VW553/V1_MQTT_OK/GD32VW55X_Wifi_BLE_SDK/GD32VW55x_RELEASE_V1.0.2/MSDK/lwip/lwip-2.1.2/src/apps/lwiperf\lwiperf.c ****                     &conn->conn_pcb->local_ip, conn->conn_pcb->local_port,
 233              		.loc 1 202 5 is_stmt 1
 203:C:/Users/stapi/OneDrive/Desktop/GD32VW553/V1_MQTT_OK/GD32VW55X_Wifi_BLE_SDK/GD32VW55x_RELEASE_V1.0.2/MSDK/lwip/lwip-2.1.2/src/apps/lwiperf\lwiperf.c ****                     &conn->conn_pcb->remote_ip, conn->conn_pcb->remote_port,
 234              		.loc 1 203 26 is_stmt 0
 235 00f0 1048     		lw	a2,16(s0)
 202:C:/Users/stapi/OneDrive/Desktop/GD32VW553/V1_MQTT_OK/GD32VW55X_Wifi_BLE_SDK/GD32VW55x_RELEASE_V1.0.2/MSDK/lwip/lwip-2.1.2/src/apps/lwiperf\lwiperf.c ****                     &conn->conn_pcb->local_ip, conn->conn_pcb->local_port,
 236              		.loc 1 202 5
 237 00f2 03238401 		lw	t1,24(s0)
 238 00f6 484C     		lw	a0,28(s0)
 239              	.LVL26:
 240 00f8 8357C601 		lhu	a5,28(a2)
 241 00fc 8356A601 		lhu	a3,26(a2)
 242 0100 3AC0     		sw	a4,0(sp)
 243 0102 13074600 		addi	a4,a2,4
 244              	.LVL27:
 245 0106 0293     		jalr	t1
 246              	.LVL28:
 247 0108 15B7     		j	.L10
 248              	.LVL29:
 249              	.L14:
 250              	.LBE17:
 251              	.LBE18:
 252              	.LBE20:
 230:C:/Users/stapi/OneDrive/Desktop/GD32VW553/V1_MQTT_OK/GD32VW55X_Wifi_BLE_SDK/GD32VW55x_RELEASE_V1.0.2/MSDK/lwip/lwip-2.1.2/src/apps/lwiperf\lwiperf.c ****     LWIP_ASSERT("error", err == ERR_OK);
 253              		.loc 1 230 5 is_stmt 1
 230:C:/Users/stapi/OneDrive/Desktop/GD32VW553/V1_MQTT_OK/GD32VW55X_Wifi_BLE_SDK/GD32VW55x_RELEASE_V1.0.2/MSDK/lwip/lwip-2.1.2/src/apps/lwiperf\lwiperf.c ****     LWIP_ASSERT("error", err == ERR_OK);
 254              		.loc 1 230 11 is_stmt 0
 255 010a 4844     		lw	a0,12(s0)
 256 010c 97000000 		call	tcp_close
 256      E7800000 
 257              	.LVL30:
 231:C:/Users/stapi/OneDrive/Desktop/GD32VW553/V1_MQTT_OK/GD32VW55X_Wifi_BLE_SDK/GD32VW55x_RELEASE_V1.0.2/MSDK/lwip/lwip-2.1.2/src/apps/lwiperf\lwiperf.c ****   }
 258              		.loc 1 231 5 is_stmt 1
 231:C:/Users/stapi/OneDrive/Desktop/GD32VW553/V1_MQTT_OK/GD32VW55X_Wifi_BLE_SDK/GD32VW55x_RELEASE_V1.0.2/MSDK/lwip/lwip-2.1.2/src/apps/lwiperf\lwiperf.c ****   }
 259              		.loc 1 231 5
 260 0114 3DD5     		beq	a0,zero,.L16
 231:C:/Users/stapi/OneDrive/Desktop/GD32VW553/V1_MQTT_OK/GD32VW55X_Wifi_BLE_SDK/GD32VW55x_RELEASE_V1.0.2/MSDK/lwip/lwip-2.1.2/src/apps/lwiperf\lwiperf.c ****   }
 261              		.loc 1 231 5 discriminator 1
 231:C:/Users/stapi/OneDrive/Desktop/GD32VW553/V1_MQTT_OK/GD32VW55X_Wifi_BLE_SDK/GD32VW55x_RELEASE_V1.0.2/MSDK/lwip/lwip-2.1.2/src/apps/lwiperf\lwiperf.c ****   }
 262              		.loc 1 231 5 discriminator 1
 263 0116 B7060000 		lui	a3,%hi(.LC0)
 264 011a B7050000 		lui	a1,%hi(.LC3)
 265 011e 37050000 		lui	a0,%hi(.LC2)
 266              	.LVL31:
 267 0122 93860600 		addi	a3,a3,%lo(.LC0)
 268 0126 1306700E 		li	a2,231
 269 012a 93850500 		addi	a1,a1,%lo(.LC3)
 270 012e 13050500 		addi	a0,a0,%lo(.LC2)
 271 0132 97000000 		call	printf
 271      E7800000 
 272              	.LVL32:
 273              	.L17:
 231:C:/Users/stapi/OneDrive/Desktop/GD32VW553/V1_MQTT_OK/GD32VW55X_Wifi_BLE_SDK/GD32VW55x_RELEASE_V1.0.2/MSDK/lwip/lwip-2.1.2/src/apps/lwiperf\lwiperf.c ****   }
 274              		.loc 1 231 5 discriminator 1
 231:C:/Users/stapi/OneDrive/Desktop/GD32VW553/V1_MQTT_OK/GD32VW55X_Wifi_BLE_SDK/GD32VW55x_RELEASE_V1.0.2/MSDK/lwip/lwip-2.1.2/src/apps/lwiperf\lwiperf.c ****   }
 275              		.loc 1 231 5 discriminator 1
 231:C:/Users/stapi/OneDrive/Desktop/GD32VW553/V1_MQTT_OK/GD32VW55X_Wifi_BLE_SDK/GD32VW55x_RELEASE_V1.0.2/MSDK/lwip/lwip-2.1.2/src/apps/lwiperf\lwiperf.c ****   }
 276              		.loc 1 231 5 discriminator 1
 277 013a 01A0     		j	.L17
 278              		.cfi_endproc
 279              	.LFE8:
 281              		.section	.text.lwiperf_tcp_err,"ax",@progbits
 282              		.align	1
 284              	lwiperf_tcp_err:
 285              	.LFB15:
 235:C:/Users/stapi/OneDrive/Desktop/GD32VW553/V1_MQTT_OK/GD32VW55X_Wifi_BLE_SDK/GD32VW55x_RELEASE_V1.0.2/MSDK/lwip/lwip-2.1.2/src/apps/lwiperf\lwiperf.c **** 
 236:C:/Users/stapi/OneDrive/Desktop/GD32VW553/V1_MQTT_OK/GD32VW55X_Wifi_BLE_SDK/GD32VW55x_RELEASE_V1.0.2/MSDK/lwip/lwip-2.1.2/src/apps/lwiperf\lwiperf.c **** /** Try to send more data on an iperf tcp session */
 237:C:/Users/stapi/OneDrive/Desktop/GD32VW553/V1_MQTT_OK/GD32VW55X_Wifi_BLE_SDK/GD32VW55x_RELEASE_V1.0.2/MSDK/lwip/lwip-2.1.2/src/apps/lwiperf\lwiperf.c **** static err_t
 238:C:/Users/stapi/OneDrive/Desktop/GD32VW553/V1_MQTT_OK/GD32VW55X_Wifi_BLE_SDK/GD32VW55x_RELEASE_V1.0.2/MSDK/lwip/lwip-2.1.2/src/apps/lwiperf\lwiperf.c **** lwiperf_tcp_client_send_more(lwiperf_state_tcp_t *conn)
 239:C:/Users/stapi/OneDrive/Desktop/GD32VW553/V1_MQTT_OK/GD32VW55X_Wifi_BLE_SDK/GD32VW55x_RELEASE_V1.0.2/MSDK/lwip/lwip-2.1.2/src/apps/lwiperf\lwiperf.c **** {
 240:C:/Users/stapi/OneDrive/Desktop/GD32VW553/V1_MQTT_OK/GD32VW55X_Wifi_BLE_SDK/GD32VW55x_RELEASE_V1.0.2/MSDK/lwip/lwip-2.1.2/src/apps/lwiperf\lwiperf.c ****   int send_more;
 241:C:/Users/stapi/OneDrive/Desktop/GD32VW553/V1_MQTT_OK/GD32VW55X_Wifi_BLE_SDK/GD32VW55x_RELEASE_V1.0.2/MSDK/lwip/lwip-2.1.2/src/apps/lwiperf\lwiperf.c ****   err_t err;
 242:C:/Users/stapi/OneDrive/Desktop/GD32VW553/V1_MQTT_OK/GD32VW55X_Wifi_BLE_SDK/GD32VW55x_RELEASE_V1.0.2/MSDK/lwip/lwip-2.1.2/src/apps/lwiperf\lwiperf.c ****   u16_t txlen;
 243:C:/Users/stapi/OneDrive/Desktop/GD32VW553/V1_MQTT_OK/GD32VW55X_Wifi_BLE_SDK/GD32VW55x_RELEASE_V1.0.2/MSDK/lwip/lwip-2.1.2/src/apps/lwiperf\lwiperf.c ****   u16_t txlen_max;
 244:C:/Users/stapi/OneDrive/Desktop/GD32VW553/V1_MQTT_OK/GD32VW55X_Wifi_BLE_SDK/GD32VW55x_RELEASE_V1.0.2/MSDK/lwip/lwip-2.1.2/src/apps/lwiperf\lwiperf.c ****   void *txptr;
 245:C:/Users/stapi/OneDrive/Desktop/GD32VW553/V1_MQTT_OK/GD32VW55X_Wifi_BLE_SDK/GD32VW55x_RELEASE_V1.0.2/MSDK/lwip/lwip-2.1.2/src/apps/lwiperf\lwiperf.c ****   u8_t apiflags;
 246:C:/Users/stapi/OneDrive/Desktop/GD32VW553/V1_MQTT_OK/GD32VW55X_Wifi_BLE_SDK/GD32VW55x_RELEASE_V1.0.2/MSDK/lwip/lwip-2.1.2/src/apps/lwiperf\lwiperf.c **** 
 247:C:/Users/stapi/OneDrive/Desktop/GD32VW553/V1_MQTT_OK/GD32VW55X_Wifi_BLE_SDK/GD32VW55x_RELEASE_V1.0.2/MSDK/lwip/lwip-2.1.2/src/apps/lwiperf\lwiperf.c ****   LWIP_ASSERT("conn invalid", (conn != NULL) && conn->base.tcp && (conn->base.server == 0));
 248:C:/Users/stapi/OneDrive/Desktop/GD32VW553/V1_MQTT_OK/GD32VW55X_Wifi_BLE_SDK/GD32VW55x_RELEASE_V1.0.2/MSDK/lwip/lwip-2.1.2/src/apps/lwiperf\lwiperf.c **** 
 249:C:/Users/stapi/OneDrive/Desktop/GD32VW553/V1_MQTT_OK/GD32VW55X_Wifi_BLE_SDK/GD32VW55x_RELEASE_V1.0.2/MSDK/lwip/lwip-2.1.2/src/apps/lwiperf\lwiperf.c ****   do {
 250:C:/Users/stapi/OneDrive/Desktop/GD32VW553/V1_MQTT_OK/GD32VW55X_Wifi_BLE_SDK/GD32VW55x_RELEASE_V1.0.2/MSDK/lwip/lwip-2.1.2/src/apps/lwiperf\lwiperf.c ****     send_more = 0;
 251:C:/Users/stapi/OneDrive/Desktop/GD32VW553/V1_MQTT_OK/GD32VW55X_Wifi_BLE_SDK/GD32VW55x_RELEASE_V1.0.2/MSDK/lwip/lwip-2.1.2/src/apps/lwiperf\lwiperf.c ****     if (conn->settings.amount & PP_HTONL(0x80000000)) {
 252:C:/Users/stapi/OneDrive/Desktop/GD32VW553/V1_MQTT_OK/GD32VW55X_Wifi_BLE_SDK/GD32VW55x_RELEASE_V1.0.2/MSDK/lwip/lwip-2.1.2/src/apps/lwiperf\lwiperf.c ****       /* this session is time-limited */
 253:C:/Users/stapi/OneDrive/Desktop/GD32VW553/V1_MQTT_OK/GD32VW55X_Wifi_BLE_SDK/GD32VW55x_RELEASE_V1.0.2/MSDK/lwip/lwip-2.1.2/src/apps/lwiperf\lwiperf.c ****       u32_t now = sys_now();
 254:C:/Users/stapi/OneDrive/Desktop/GD32VW553/V1_MQTT_OK/GD32VW55X_Wifi_BLE_SDK/GD32VW55x_RELEASE_V1.0.2/MSDK/lwip/lwip-2.1.2/src/apps/lwiperf\lwiperf.c ****       u32_t diff_ms = now - conn->time_started;
 255:C:/Users/stapi/OneDrive/Desktop/GD32VW553/V1_MQTT_OK/GD32VW55X_Wifi_BLE_SDK/GD32VW55x_RELEASE_V1.0.2/MSDK/lwip/lwip-2.1.2/src/apps/lwiperf\lwiperf.c ****       u32_t time = (u32_t) - (s32_t)lwip_htonl(conn->settings.amount);
 256:C:/Users/stapi/OneDrive/Desktop/GD32VW553/V1_MQTT_OK/GD32VW55X_Wifi_BLE_SDK/GD32VW55x_RELEASE_V1.0.2/MSDK/lwip/lwip-2.1.2/src/apps/lwiperf\lwiperf.c ****       u32_t time_ms = time * 10;
 257:C:/Users/stapi/OneDrive/Desktop/GD32VW553/V1_MQTT_OK/GD32VW55X_Wifi_BLE_SDK/GD32VW55x_RELEASE_V1.0.2/MSDK/lwip/lwip-2.1.2/src/apps/lwiperf\lwiperf.c ****       if (diff_ms >= time_ms) {
 258:C:/Users/stapi/OneDrive/Desktop/GD32VW553/V1_MQTT_OK/GD32VW55X_Wifi_BLE_SDK/GD32VW55x_RELEASE_V1.0.2/MSDK/lwip/lwip-2.1.2/src/apps/lwiperf\lwiperf.c ****         /* time specified by the client is over -> close the connection */
 259:C:/Users/stapi/OneDrive/Desktop/GD32VW553/V1_MQTT_OK/GD32VW55X_Wifi_BLE_SDK/GD32VW55x_RELEASE_V1.0.2/MSDK/lwip/lwip-2.1.2/src/apps/lwiperf\lwiperf.c ****         lwiperf_tcp_close(conn, LWIPERF_TCP_DONE_CLIENT);
 260:C:/Users/stapi/OneDrive/Desktop/GD32VW553/V1_MQTT_OK/GD32VW55X_Wifi_BLE_SDK/GD32VW55x_RELEASE_V1.0.2/MSDK/lwip/lwip-2.1.2/src/apps/lwiperf\lwiperf.c ****         return ERR_OK;
 261:C:/Users/stapi/OneDrive/Desktop/GD32VW553/V1_MQTT_OK/GD32VW55X_Wifi_BLE_SDK/GD32VW55x_RELEASE_V1.0.2/MSDK/lwip/lwip-2.1.2/src/apps/lwiperf\lwiperf.c ****       }
 262:C:/Users/stapi/OneDrive/Desktop/GD32VW553/V1_MQTT_OK/GD32VW55X_Wifi_BLE_SDK/GD32VW55x_RELEASE_V1.0.2/MSDK/lwip/lwip-2.1.2/src/apps/lwiperf\lwiperf.c ****     } else {
 263:C:/Users/stapi/OneDrive/Desktop/GD32VW553/V1_MQTT_OK/GD32VW55X_Wifi_BLE_SDK/GD32VW55x_RELEASE_V1.0.2/MSDK/lwip/lwip-2.1.2/src/apps/lwiperf\lwiperf.c ****       /* this session is byte-limited */
 264:C:/Users/stapi/OneDrive/Desktop/GD32VW553/V1_MQTT_OK/GD32VW55X_Wifi_BLE_SDK/GD32VW55x_RELEASE_V1.0.2/MSDK/lwip/lwip-2.1.2/src/apps/lwiperf\lwiperf.c ****       u32_t amount_bytes = lwip_htonl(conn->settings.amount);
 265:C:/Users/stapi/OneDrive/Desktop/GD32VW553/V1_MQTT_OK/GD32VW55X_Wifi_BLE_SDK/GD32VW55x_RELEASE_V1.0.2/MSDK/lwip/lwip-2.1.2/src/apps/lwiperf\lwiperf.c ****       /* @todo: this can send up to 1*MSS more than requested... */
 266:C:/Users/stapi/OneDrive/Desktop/GD32VW553/V1_MQTT_OK/GD32VW55X_Wifi_BLE_SDK/GD32VW55x_RELEASE_V1.0.2/MSDK/lwip/lwip-2.1.2/src/apps/lwiperf\lwiperf.c ****       if (amount_bytes >= conn->bytes_transferred) {
 267:C:/Users/stapi/OneDrive/Desktop/GD32VW553/V1_MQTT_OK/GD32VW55X_Wifi_BLE_SDK/GD32VW55x_RELEASE_V1.0.2/MSDK/lwip/lwip-2.1.2/src/apps/lwiperf\lwiperf.c ****         /* all requested bytes transferred -> close the connection */
 268:C:/Users/stapi/OneDrive/Desktop/GD32VW553/V1_MQTT_OK/GD32VW55X_Wifi_BLE_SDK/GD32VW55x_RELEASE_V1.0.2/MSDK/lwip/lwip-2.1.2/src/apps/lwiperf\lwiperf.c ****         lwiperf_tcp_close(conn, LWIPERF_TCP_DONE_CLIENT);
 269:C:/Users/stapi/OneDrive/Desktop/GD32VW553/V1_MQTT_OK/GD32VW55X_Wifi_BLE_SDK/GD32VW55x_RELEASE_V1.0.2/MSDK/lwip/lwip-2.1.2/src/apps/lwiperf\lwiperf.c ****         return ERR_OK;
 270:C:/Users/stapi/OneDrive/Desktop/GD32VW553/V1_MQTT_OK/GD32VW55X_Wifi_BLE_SDK/GD32VW55x_RELEASE_V1.0.2/MSDK/lwip/lwip-2.1.2/src/apps/lwiperf\lwiperf.c ****       }
 271:C:/Users/stapi/OneDrive/Desktop/GD32VW553/V1_MQTT_OK/GD32VW55X_Wifi_BLE_SDK/GD32VW55x_RELEASE_V1.0.2/MSDK/lwip/lwip-2.1.2/src/apps/lwiperf\lwiperf.c ****     }
 272:C:/Users/stapi/OneDrive/Desktop/GD32VW553/V1_MQTT_OK/GD32VW55X_Wifi_BLE_SDK/GD32VW55x_RELEASE_V1.0.2/MSDK/lwip/lwip-2.1.2/src/apps/lwiperf\lwiperf.c **** 
 273:C:/Users/stapi/OneDrive/Desktop/GD32VW553/V1_MQTT_OK/GD32VW55X_Wifi_BLE_SDK/GD32VW55x_RELEASE_V1.0.2/MSDK/lwip/lwip-2.1.2/src/apps/lwiperf\lwiperf.c ****     if (conn->bytes_transferred < 24) {
 274:C:/Users/stapi/OneDrive/Desktop/GD32VW553/V1_MQTT_OK/GD32VW55X_Wifi_BLE_SDK/GD32VW55x_RELEASE_V1.0.2/MSDK/lwip/lwip-2.1.2/src/apps/lwiperf\lwiperf.c ****       /* transmit the settings a first time */
 275:C:/Users/stapi/OneDrive/Desktop/GD32VW553/V1_MQTT_OK/GD32VW55X_Wifi_BLE_SDK/GD32VW55x_RELEASE_V1.0.2/MSDK/lwip/lwip-2.1.2/src/apps/lwiperf\lwiperf.c ****       txptr = &((u8_t *)&conn->settings)[conn->bytes_transferred];
 276:C:/Users/stapi/OneDrive/Desktop/GD32VW553/V1_MQTT_OK/GD32VW55X_Wifi_BLE_SDK/GD32VW55x_RELEASE_V1.0.2/MSDK/lwip/lwip-2.1.2/src/apps/lwiperf\lwiperf.c ****       txlen_max = (u16_t)(24 - conn->bytes_transferred);
 277:C:/Users/stapi/OneDrive/Desktop/GD32VW553/V1_MQTT_OK/GD32VW55X_Wifi_BLE_SDK/GD32VW55x_RELEASE_V1.0.2/MSDK/lwip/lwip-2.1.2/src/apps/lwiperf\lwiperf.c ****       apiflags = TCP_WRITE_FLAG_COPY;
 278:C:/Users/stapi/OneDrive/Desktop/GD32VW553/V1_MQTT_OK/GD32VW55X_Wifi_BLE_SDK/GD32VW55x_RELEASE_V1.0.2/MSDK/lwip/lwip-2.1.2/src/apps/lwiperf\lwiperf.c ****     } else if (conn->bytes_transferred < 48) {
 279:C:/Users/stapi/OneDrive/Desktop/GD32VW553/V1_MQTT_OK/GD32VW55X_Wifi_BLE_SDK/GD32VW55x_RELEASE_V1.0.2/MSDK/lwip/lwip-2.1.2/src/apps/lwiperf\lwiperf.c ****       /* transmit the settings a second time */
 280:C:/Users/stapi/OneDrive/Desktop/GD32VW553/V1_MQTT_OK/GD32VW55X_Wifi_BLE_SDK/GD32VW55x_RELEASE_V1.0.2/MSDK/lwip/lwip-2.1.2/src/apps/lwiperf\lwiperf.c ****       txptr = &((u8_t *)&conn->settings)[conn->bytes_transferred - 24];
 281:C:/Users/stapi/OneDrive/Desktop/GD32VW553/V1_MQTT_OK/GD32VW55X_Wifi_BLE_SDK/GD32VW55x_RELEASE_V1.0.2/MSDK/lwip/lwip-2.1.2/src/apps/lwiperf\lwiperf.c ****       txlen_max = (u16_t)(48 - conn->bytes_transferred);
 282:C:/Users/stapi/OneDrive/Desktop/GD32VW553/V1_MQTT_OK/GD32VW55X_Wifi_BLE_SDK/GD32VW55x_RELEASE_V1.0.2/MSDK/lwip/lwip-2.1.2/src/apps/lwiperf\lwiperf.c ****       apiflags = TCP_WRITE_FLAG_COPY | TCP_WRITE_FLAG_MORE;
 283:C:/Users/stapi/OneDrive/Desktop/GD32VW553/V1_MQTT_OK/GD32VW55X_Wifi_BLE_SDK/GD32VW55x_RELEASE_V1.0.2/MSDK/lwip/lwip-2.1.2/src/apps/lwiperf\lwiperf.c ****       send_more = 1;
 284:C:/Users/stapi/OneDrive/Desktop/GD32VW553/V1_MQTT_OK/GD32VW55X_Wifi_BLE_SDK/GD32VW55x_RELEASE_V1.0.2/MSDK/lwip/lwip-2.1.2/src/apps/lwiperf\lwiperf.c ****     } else {
 285:C:/Users/stapi/OneDrive/Desktop/GD32VW553/V1_MQTT_OK/GD32VW55X_Wifi_BLE_SDK/GD32VW55x_RELEASE_V1.0.2/MSDK/lwip/lwip-2.1.2/src/apps/lwiperf\lwiperf.c ****       /* transmit data */
 286:C:/Users/stapi/OneDrive/Desktop/GD32VW553/V1_MQTT_OK/GD32VW55X_Wifi_BLE_SDK/GD32VW55x_RELEASE_V1.0.2/MSDK/lwip/lwip-2.1.2/src/apps/lwiperf\lwiperf.c ****       /* @todo: every x bytes, transmit the settings again */
 287:C:/Users/stapi/OneDrive/Desktop/GD32VW553/V1_MQTT_OK/GD32VW55X_Wifi_BLE_SDK/GD32VW55x_RELEASE_V1.0.2/MSDK/lwip/lwip-2.1.2/src/apps/lwiperf\lwiperf.c ****       txptr = LWIP_CONST_CAST(void *, &lwiperf_txbuf_const[conn->bytes_transferred % 10]);
 288:C:/Users/stapi/OneDrive/Desktop/GD32VW553/V1_MQTT_OK/GD32VW55X_Wifi_BLE_SDK/GD32VW55x_RELEASE_V1.0.2/MSDK/lwip/lwip-2.1.2/src/apps/lwiperf\lwiperf.c ****       txlen_max = TCP_MSS;
 289:C:/Users/stapi/OneDrive/Desktop/GD32VW553/V1_MQTT_OK/GD32VW55X_Wifi_BLE_SDK/GD32VW55x_RELEASE_V1.0.2/MSDK/lwip/lwip-2.1.2/src/apps/lwiperf\lwiperf.c ****       if (conn->bytes_transferred == 48) { /* @todo: fix this for intermediate settings, too */
 290:C:/Users/stapi/OneDrive/Desktop/GD32VW553/V1_MQTT_OK/GD32VW55X_Wifi_BLE_SDK/GD32VW55x_RELEASE_V1.0.2/MSDK/lwip/lwip-2.1.2/src/apps/lwiperf\lwiperf.c ****         txlen_max = TCP_MSS - 24;
 291:C:/Users/stapi/OneDrive/Desktop/GD32VW553/V1_MQTT_OK/GD32VW55X_Wifi_BLE_SDK/GD32VW55x_RELEASE_V1.0.2/MSDK/lwip/lwip-2.1.2/src/apps/lwiperf\lwiperf.c ****       }
 292:C:/Users/stapi/OneDrive/Desktop/GD32VW553/V1_MQTT_OK/GD32VW55X_Wifi_BLE_SDK/GD32VW55x_RELEASE_V1.0.2/MSDK/lwip/lwip-2.1.2/src/apps/lwiperf\lwiperf.c ****       apiflags = 0; /* no copying needed */
 293:C:/Users/stapi/OneDrive/Desktop/GD32VW553/V1_MQTT_OK/GD32VW55X_Wifi_BLE_SDK/GD32VW55x_RELEASE_V1.0.2/MSDK/lwip/lwip-2.1.2/src/apps/lwiperf\lwiperf.c ****       send_more = 1;
 294:C:/Users/stapi/OneDrive/Desktop/GD32VW553/V1_MQTT_OK/GD32VW55X_Wifi_BLE_SDK/GD32VW55x_RELEASE_V1.0.2/MSDK/lwip/lwip-2.1.2/src/apps/lwiperf\lwiperf.c ****     }
 295:C:/Users/stapi/OneDrive/Desktop/GD32VW553/V1_MQTT_OK/GD32VW55X_Wifi_BLE_SDK/GD32VW55x_RELEASE_V1.0.2/MSDK/lwip/lwip-2.1.2/src/apps/lwiperf\lwiperf.c ****     txlen = txlen_max;
 296:C:/Users/stapi/OneDrive/Desktop/GD32VW553/V1_MQTT_OK/GD32VW55X_Wifi_BLE_SDK/GD32VW55x_RELEASE_V1.0.2/MSDK/lwip/lwip-2.1.2/src/apps/lwiperf\lwiperf.c ****     do {
 297:C:/Users/stapi/OneDrive/Desktop/GD32VW553/V1_MQTT_OK/GD32VW55X_Wifi_BLE_SDK/GD32VW55x_RELEASE_V1.0.2/MSDK/lwip/lwip-2.1.2/src/apps/lwiperf\lwiperf.c ****       err = tcp_write(conn->conn_pcb, txptr, txlen, apiflags);
 298:C:/Users/stapi/OneDrive/Desktop/GD32VW553/V1_MQTT_OK/GD32VW55X_Wifi_BLE_SDK/GD32VW55x_RELEASE_V1.0.2/MSDK/lwip/lwip-2.1.2/src/apps/lwiperf\lwiperf.c ****       if (err ==  ERR_MEM) {
 299:C:/Users/stapi/OneDrive/Desktop/GD32VW553/V1_MQTT_OK/GD32VW55X_Wifi_BLE_SDK/GD32VW55x_RELEASE_V1.0.2/MSDK/lwip/lwip-2.1.2/src/apps/lwiperf\lwiperf.c ****         txlen /= 2;
 300:C:/Users/stapi/OneDrive/Desktop/GD32VW553/V1_MQTT_OK/GD32VW55X_Wifi_BLE_SDK/GD32VW55x_RELEASE_V1.0.2/MSDK/lwip/lwip-2.1.2/src/apps/lwiperf\lwiperf.c ****       }
 301:C:/Users/stapi/OneDrive/Desktop/GD32VW553/V1_MQTT_OK/GD32VW55X_Wifi_BLE_SDK/GD32VW55x_RELEASE_V1.0.2/MSDK/lwip/lwip-2.1.2/src/apps/lwiperf\lwiperf.c ****     } while ((err == ERR_MEM) && (txlen >= (TCP_MSS / 2)));
 302:C:/Users/stapi/OneDrive/Desktop/GD32VW553/V1_MQTT_OK/GD32VW55X_Wifi_BLE_SDK/GD32VW55x_RELEASE_V1.0.2/MSDK/lwip/lwip-2.1.2/src/apps/lwiperf\lwiperf.c **** 
 303:C:/Users/stapi/OneDrive/Desktop/GD32VW553/V1_MQTT_OK/GD32VW55X_Wifi_BLE_SDK/GD32VW55x_RELEASE_V1.0.2/MSDK/lwip/lwip-2.1.2/src/apps/lwiperf\lwiperf.c ****     if (err == ERR_OK) {
 304:C:/Users/stapi/OneDrive/Desktop/GD32VW553/V1_MQTT_OK/GD32VW55X_Wifi_BLE_SDK/GD32VW55x_RELEASE_V1.0.2/MSDK/lwip/lwip-2.1.2/src/apps/lwiperf\lwiperf.c ****       conn->bytes_transferred += txlen;
 305:C:/Users/stapi/OneDrive/Desktop/GD32VW553/V1_MQTT_OK/GD32VW55X_Wifi_BLE_SDK/GD32VW55x_RELEASE_V1.0.2/MSDK/lwip/lwip-2.1.2/src/apps/lwiperf\lwiperf.c ****     } else {
 306:C:/Users/stapi/OneDrive/Desktop/GD32VW553/V1_MQTT_OK/GD32VW55X_Wifi_BLE_SDK/GD32VW55x_RELEASE_V1.0.2/MSDK/lwip/lwip-2.1.2/src/apps/lwiperf\lwiperf.c ****       send_more = 0;
 307:C:/Users/stapi/OneDrive/Desktop/GD32VW553/V1_MQTT_OK/GD32VW55X_Wifi_BLE_SDK/GD32VW55x_RELEASE_V1.0.2/MSDK/lwip/lwip-2.1.2/src/apps/lwiperf\lwiperf.c ****     }
 308:C:/Users/stapi/OneDrive/Desktop/GD32VW553/V1_MQTT_OK/GD32VW55X_Wifi_BLE_SDK/GD32VW55x_RELEASE_V1.0.2/MSDK/lwip/lwip-2.1.2/src/apps/lwiperf\lwiperf.c ****   } while (send_more);
 309:C:/Users/stapi/OneDrive/Desktop/GD32VW553/V1_MQTT_OK/GD32VW55X_Wifi_BLE_SDK/GD32VW55x_RELEASE_V1.0.2/MSDK/lwip/lwip-2.1.2/src/apps/lwiperf\lwiperf.c **** 
 310:C:/Users/stapi/OneDrive/Desktop/GD32VW553/V1_MQTT_OK/GD32VW55X_Wifi_BLE_SDK/GD32VW55x_RELEASE_V1.0.2/MSDK/lwip/lwip-2.1.2/src/apps/lwiperf\lwiperf.c ****   tcp_output(conn->conn_pcb);
 311:C:/Users/stapi/OneDrive/Desktop/GD32VW553/V1_MQTT_OK/GD32VW55X_Wifi_BLE_SDK/GD32VW55x_RELEASE_V1.0.2/MSDK/lwip/lwip-2.1.2/src/apps/lwiperf\lwiperf.c ****   return ERR_OK;
 312:C:/Users/stapi/OneDrive/Desktop/GD32VW553/V1_MQTT_OK/GD32VW55X_Wifi_BLE_SDK/GD32VW55x_RELEASE_V1.0.2/MSDK/lwip/lwip-2.1.2/src/apps/lwiperf\lwiperf.c **** }
 313:C:/Users/stapi/OneDrive/Desktop/GD32VW553/V1_MQTT_OK/GD32VW55X_Wifi_BLE_SDK/GD32VW55x_RELEASE_V1.0.2/MSDK/lwip/lwip-2.1.2/src/apps/lwiperf\lwiperf.c **** 
 314:C:/Users/stapi/OneDrive/Desktop/GD32VW553/V1_MQTT_OK/GD32VW55X_Wifi_BLE_SDK/GD32VW55x_RELEASE_V1.0.2/MSDK/lwip/lwip-2.1.2/src/apps/lwiperf\lwiperf.c **** /** TCP sent callback, try to send more data */
 315:C:/Users/stapi/OneDrive/Desktop/GD32VW553/V1_MQTT_OK/GD32VW55X_Wifi_BLE_SDK/GD32VW55x_RELEASE_V1.0.2/MSDK/lwip/lwip-2.1.2/src/apps/lwiperf\lwiperf.c **** static err_t
 316:C:/Users/stapi/OneDrive/Desktop/GD32VW553/V1_MQTT_OK/GD32VW55X_Wifi_BLE_SDK/GD32VW55x_RELEASE_V1.0.2/MSDK/lwip/lwip-2.1.2/src/apps/lwiperf\lwiperf.c **** lwiperf_tcp_client_sent(void *arg, struct tcp_pcb *tpcb, u16_t len)
 317:C:/Users/stapi/OneDrive/Desktop/GD32VW553/V1_MQTT_OK/GD32VW55X_Wifi_BLE_SDK/GD32VW55x_RELEASE_V1.0.2/MSDK/lwip/lwip-2.1.2/src/apps/lwiperf\lwiperf.c **** {
 318:C:/Users/stapi/OneDrive/Desktop/GD32VW553/V1_MQTT_OK/GD32VW55X_Wifi_BLE_SDK/GD32VW55x_RELEASE_V1.0.2/MSDK/lwip/lwip-2.1.2/src/apps/lwiperf\lwiperf.c ****   lwiperf_state_tcp_t *conn = (lwiperf_state_tcp_t *)arg;
 319:C:/Users/stapi/OneDrive/Desktop/GD32VW553/V1_MQTT_OK/GD32VW55X_Wifi_BLE_SDK/GD32VW55x_RELEASE_V1.0.2/MSDK/lwip/lwip-2.1.2/src/apps/lwiperf\lwiperf.c ****   /* @todo: check 'len' (e.g. to time ACK of all data)? for now, we just send more... */
 320:C:/Users/stapi/OneDrive/Desktop/GD32VW553/V1_MQTT_OK/GD32VW55X_Wifi_BLE_SDK/GD32VW55x_RELEASE_V1.0.2/MSDK/lwip/lwip-2.1.2/src/apps/lwiperf\lwiperf.c ****   LWIP_ASSERT("invalid conn", conn->conn_pcb == tpcb);
 321:C:/Users/stapi/OneDrive/Desktop/GD32VW553/V1_MQTT_OK/GD32VW55X_Wifi_BLE_SDK/GD32VW55x_RELEASE_V1.0.2/MSDK/lwip/lwip-2.1.2/src/apps/lwiperf\lwiperf.c ****   LWIP_UNUSED_ARG(tpcb);
 322:C:/Users/stapi/OneDrive/Desktop/GD32VW553/V1_MQTT_OK/GD32VW55X_Wifi_BLE_SDK/GD32VW55x_RELEASE_V1.0.2/MSDK/lwip/lwip-2.1.2/src/apps/lwiperf\lwiperf.c ****   LWIP_UNUSED_ARG(len);
 323:C:/Users/stapi/OneDrive/Desktop/GD32VW553/V1_MQTT_OK/GD32VW55X_Wifi_BLE_SDK/GD32VW55x_RELEASE_V1.0.2/MSDK/lwip/lwip-2.1.2/src/apps/lwiperf\lwiperf.c **** 
 324:C:/Users/stapi/OneDrive/Desktop/GD32VW553/V1_MQTT_OK/GD32VW55X_Wifi_BLE_SDK/GD32VW55x_RELEASE_V1.0.2/MSDK/lwip/lwip-2.1.2/src/apps/lwiperf\lwiperf.c ****   conn->poll_count = 0;
 325:C:/Users/stapi/OneDrive/Desktop/GD32VW553/V1_MQTT_OK/GD32VW55X_Wifi_BLE_SDK/GD32VW55x_RELEASE_V1.0.2/MSDK/lwip/lwip-2.1.2/src/apps/lwiperf\lwiperf.c **** 
 326:C:/Users/stapi/OneDrive/Desktop/GD32VW553/V1_MQTT_OK/GD32VW55X_Wifi_BLE_SDK/GD32VW55x_RELEASE_V1.0.2/MSDK/lwip/lwip-2.1.2/src/apps/lwiperf\lwiperf.c ****   return lwiperf_tcp_client_send_more(conn);
 327:C:/Users/stapi/OneDrive/Desktop/GD32VW553/V1_MQTT_OK/GD32VW55X_Wifi_BLE_SDK/GD32VW55x_RELEASE_V1.0.2/MSDK/lwip/lwip-2.1.2/src/apps/lwiperf\lwiperf.c **** }
 328:C:/Users/stapi/OneDrive/Desktop/GD32VW553/V1_MQTT_OK/GD32VW55X_Wifi_BLE_SDK/GD32VW55x_RELEASE_V1.0.2/MSDK/lwip/lwip-2.1.2/src/apps/lwiperf\lwiperf.c **** 
 329:C:/Users/stapi/OneDrive/Desktop/GD32VW553/V1_MQTT_OK/GD32VW55X_Wifi_BLE_SDK/GD32VW55x_RELEASE_V1.0.2/MSDK/lwip/lwip-2.1.2/src/apps/lwiperf\lwiperf.c **** /** TCP connected callback (active connection), send data now */
 330:C:/Users/stapi/OneDrive/Desktop/GD32VW553/V1_MQTT_OK/GD32VW55X_Wifi_BLE_SDK/GD32VW55x_RELEASE_V1.0.2/MSDK/lwip/lwip-2.1.2/src/apps/lwiperf\lwiperf.c **** static err_t
 331:C:/Users/stapi/OneDrive/Desktop/GD32VW553/V1_MQTT_OK/GD32VW55X_Wifi_BLE_SDK/GD32VW55x_RELEASE_V1.0.2/MSDK/lwip/lwip-2.1.2/src/apps/lwiperf\lwiperf.c **** lwiperf_tcp_client_connected(void *arg, struct tcp_pcb *tpcb, err_t err)
 332:C:/Users/stapi/OneDrive/Desktop/GD32VW553/V1_MQTT_OK/GD32VW55X_Wifi_BLE_SDK/GD32VW55x_RELEASE_V1.0.2/MSDK/lwip/lwip-2.1.2/src/apps/lwiperf\lwiperf.c **** {
 333:C:/Users/stapi/OneDrive/Desktop/GD32VW553/V1_MQTT_OK/GD32VW55X_Wifi_BLE_SDK/GD32VW55x_RELEASE_V1.0.2/MSDK/lwip/lwip-2.1.2/src/apps/lwiperf\lwiperf.c ****   lwiperf_state_tcp_t *conn = (lwiperf_state_tcp_t *)arg;
 334:C:/Users/stapi/OneDrive/Desktop/GD32VW553/V1_MQTT_OK/GD32VW55X_Wifi_BLE_SDK/GD32VW55x_RELEASE_V1.0.2/MSDK/lwip/lwip-2.1.2/src/apps/lwiperf\lwiperf.c ****   LWIP_ASSERT("invalid conn", conn->conn_pcb == tpcb);
 335:C:/Users/stapi/OneDrive/Desktop/GD32VW553/V1_MQTT_OK/GD32VW55X_Wifi_BLE_SDK/GD32VW55x_RELEASE_V1.0.2/MSDK/lwip/lwip-2.1.2/src/apps/lwiperf\lwiperf.c ****   LWIP_UNUSED_ARG(tpcb);
 336:C:/Users/stapi/OneDrive/Desktop/GD32VW553/V1_MQTT_OK/GD32VW55X_Wifi_BLE_SDK/GD32VW55x_RELEASE_V1.0.2/MSDK/lwip/lwip-2.1.2/src/apps/lwiperf\lwiperf.c ****   if (err != ERR_OK) {
 337:C:/Users/stapi/OneDrive/Desktop/GD32VW553/V1_MQTT_OK/GD32VW55X_Wifi_BLE_SDK/GD32VW55x_RELEASE_V1.0.2/MSDK/lwip/lwip-2.1.2/src/apps/lwiperf\lwiperf.c ****     lwiperf_tcp_close(conn, LWIPERF_TCP_ABORTED_REMOTE);
 338:C:/Users/stapi/OneDrive/Desktop/GD32VW553/V1_MQTT_OK/GD32VW55X_Wifi_BLE_SDK/GD32VW55x_RELEASE_V1.0.2/MSDK/lwip/lwip-2.1.2/src/apps/lwiperf\lwiperf.c ****     return ERR_OK;
 339:C:/Users/stapi/OneDrive/Desktop/GD32VW553/V1_MQTT_OK/GD32VW55X_Wifi_BLE_SDK/GD32VW55x_RELEASE_V1.0.2/MSDK/lwip/lwip-2.1.2/src/apps/lwiperf\lwiperf.c ****   }
 340:C:/Users/stapi/OneDrive/Desktop/GD32VW553/V1_MQTT_OK/GD32VW55X_Wifi_BLE_SDK/GD32VW55x_RELEASE_V1.0.2/MSDK/lwip/lwip-2.1.2/src/apps/lwiperf\lwiperf.c ****   conn->poll_count = 0;
 341:C:/Users/stapi/OneDrive/Desktop/GD32VW553/V1_MQTT_OK/GD32VW55X_Wifi_BLE_SDK/GD32VW55x_RELEASE_V1.0.2/MSDK/lwip/lwip-2.1.2/src/apps/lwiperf\lwiperf.c ****   conn->time_started = sys_now();
 342:C:/Users/stapi/OneDrive/Desktop/GD32VW553/V1_MQTT_OK/GD32VW55X_Wifi_BLE_SDK/GD32VW55x_RELEASE_V1.0.2/MSDK/lwip/lwip-2.1.2/src/apps/lwiperf\lwiperf.c ****   return lwiperf_tcp_client_send_more(conn);
 343:C:/Users/stapi/OneDrive/Desktop/GD32VW553/V1_MQTT_OK/GD32VW55X_Wifi_BLE_SDK/GD32VW55x_RELEASE_V1.0.2/MSDK/lwip/lwip-2.1.2/src/apps/lwiperf\lwiperf.c **** }
 344:C:/Users/stapi/OneDrive/Desktop/GD32VW553/V1_MQTT_OK/GD32VW55X_Wifi_BLE_SDK/GD32VW55x_RELEASE_V1.0.2/MSDK/lwip/lwip-2.1.2/src/apps/lwiperf\lwiperf.c **** 
 345:C:/Users/stapi/OneDrive/Desktop/GD32VW553/V1_MQTT_OK/GD32VW55X_Wifi_BLE_SDK/GD32VW55x_RELEASE_V1.0.2/MSDK/lwip/lwip-2.1.2/src/apps/lwiperf\lwiperf.c **** /** Start TCP connection back to the client (either parallel or after the
 346:C:/Users/stapi/OneDrive/Desktop/GD32VW553/V1_MQTT_OK/GD32VW55X_Wifi_BLE_SDK/GD32VW55x_RELEASE_V1.0.2/MSDK/lwip/lwip-2.1.2/src/apps/lwiperf\lwiperf.c ****  * receive test has finished.
 347:C:/Users/stapi/OneDrive/Desktop/GD32VW553/V1_MQTT_OK/GD32VW55X_Wifi_BLE_SDK/GD32VW55x_RELEASE_V1.0.2/MSDK/lwip/lwip-2.1.2/src/apps/lwiperf\lwiperf.c ****  */
 348:C:/Users/stapi/OneDrive/Desktop/GD32VW553/V1_MQTT_OK/GD32VW55X_Wifi_BLE_SDK/GD32VW55x_RELEASE_V1.0.2/MSDK/lwip/lwip-2.1.2/src/apps/lwiperf\lwiperf.c **** static err_t
 349:C:/Users/stapi/OneDrive/Desktop/GD32VW553/V1_MQTT_OK/GD32VW55X_Wifi_BLE_SDK/GD32VW55x_RELEASE_V1.0.2/MSDK/lwip/lwip-2.1.2/src/apps/lwiperf\lwiperf.c **** lwiperf_tx_start_impl(const ip_addr_t *remote_ip, u16_t remote_port, lwiperf_settings_t *settings, 
 350:C:/Users/stapi/OneDrive/Desktop/GD32VW553/V1_MQTT_OK/GD32VW55X_Wifi_BLE_SDK/GD32VW55x_RELEASE_V1.0.2/MSDK/lwip/lwip-2.1.2/src/apps/lwiperf\lwiperf.c ****                       void *report_arg, lwiperf_state_base_t *related_master_state, lwiperf_state_t
 351:C:/Users/stapi/OneDrive/Desktop/GD32VW553/V1_MQTT_OK/GD32VW55X_Wifi_BLE_SDK/GD32VW55x_RELEASE_V1.0.2/MSDK/lwip/lwip-2.1.2/src/apps/lwiperf\lwiperf.c **** {
 352:C:/Users/stapi/OneDrive/Desktop/GD32VW553/V1_MQTT_OK/GD32VW55X_Wifi_BLE_SDK/GD32VW55x_RELEASE_V1.0.2/MSDK/lwip/lwip-2.1.2/src/apps/lwiperf\lwiperf.c ****   err_t err;
 353:C:/Users/stapi/OneDrive/Desktop/GD32VW553/V1_MQTT_OK/GD32VW55X_Wifi_BLE_SDK/GD32VW55x_RELEASE_V1.0.2/MSDK/lwip/lwip-2.1.2/src/apps/lwiperf\lwiperf.c ****   lwiperf_state_tcp_t *client_conn;
 354:C:/Users/stapi/OneDrive/Desktop/GD32VW553/V1_MQTT_OK/GD32VW55X_Wifi_BLE_SDK/GD32VW55x_RELEASE_V1.0.2/MSDK/lwip/lwip-2.1.2/src/apps/lwiperf\lwiperf.c ****   struct tcp_pcb *newpcb;
 355:C:/Users/stapi/OneDrive/Desktop/GD32VW553/V1_MQTT_OK/GD32VW55X_Wifi_BLE_SDK/GD32VW55x_RELEASE_V1.0.2/MSDK/lwip/lwip-2.1.2/src/apps/lwiperf\lwiperf.c ****   ip_addr_t remote_addr;
 356:C:/Users/stapi/OneDrive/Desktop/GD32VW553/V1_MQTT_OK/GD32VW55X_Wifi_BLE_SDK/GD32VW55x_RELEASE_V1.0.2/MSDK/lwip/lwip-2.1.2/src/apps/lwiperf\lwiperf.c **** 
 357:C:/Users/stapi/OneDrive/Desktop/GD32VW553/V1_MQTT_OK/GD32VW55X_Wifi_BLE_SDK/GD32VW55x_RELEASE_V1.0.2/MSDK/lwip/lwip-2.1.2/src/apps/lwiperf\lwiperf.c ****   LWIP_ASSERT("remote_ip != NULL", remote_ip != NULL);
 358:C:/Users/stapi/OneDrive/Desktop/GD32VW553/V1_MQTT_OK/GD32VW55X_Wifi_BLE_SDK/GD32VW55x_RELEASE_V1.0.2/MSDK/lwip/lwip-2.1.2/src/apps/lwiperf\lwiperf.c ****   LWIP_ASSERT("remote_ip != NULL", settings != NULL);
 359:C:/Users/stapi/OneDrive/Desktop/GD32VW553/V1_MQTT_OK/GD32VW55X_Wifi_BLE_SDK/GD32VW55x_RELEASE_V1.0.2/MSDK/lwip/lwip-2.1.2/src/apps/lwiperf\lwiperf.c ****   LWIP_ASSERT("new_conn != NULL", new_conn != NULL);
 360:C:/Users/stapi/OneDrive/Desktop/GD32VW553/V1_MQTT_OK/GD32VW55X_Wifi_BLE_SDK/GD32VW55x_RELEASE_V1.0.2/MSDK/lwip/lwip-2.1.2/src/apps/lwiperf\lwiperf.c ****   *new_conn = NULL;
 361:C:/Users/stapi/OneDrive/Desktop/GD32VW553/V1_MQTT_OK/GD32VW55X_Wifi_BLE_SDK/GD32VW55x_RELEASE_V1.0.2/MSDK/lwip/lwip-2.1.2/src/apps/lwiperf\lwiperf.c **** 
 362:C:/Users/stapi/OneDrive/Desktop/GD32VW553/V1_MQTT_OK/GD32VW55X_Wifi_BLE_SDK/GD32VW55x_RELEASE_V1.0.2/MSDK/lwip/lwip-2.1.2/src/apps/lwiperf\lwiperf.c ****   client_conn = (lwiperf_state_tcp_t *)LWIPERF_ALLOC(lwiperf_state_tcp_t);
 363:C:/Users/stapi/OneDrive/Desktop/GD32VW553/V1_MQTT_OK/GD32VW55X_Wifi_BLE_SDK/GD32VW55x_RELEASE_V1.0.2/MSDK/lwip/lwip-2.1.2/src/apps/lwiperf\lwiperf.c ****   if (client_conn == NULL) {
 364:C:/Users/stapi/OneDrive/Desktop/GD32VW553/V1_MQTT_OK/GD32VW55X_Wifi_BLE_SDK/GD32VW55x_RELEASE_V1.0.2/MSDK/lwip/lwip-2.1.2/src/apps/lwiperf\lwiperf.c ****     return ERR_MEM;
 365:C:/Users/stapi/OneDrive/Desktop/GD32VW553/V1_MQTT_OK/GD32VW55X_Wifi_BLE_SDK/GD32VW55x_RELEASE_V1.0.2/MSDK/lwip/lwip-2.1.2/src/apps/lwiperf\lwiperf.c ****   }
 366:C:/Users/stapi/OneDrive/Desktop/GD32VW553/V1_MQTT_OK/GD32VW55X_Wifi_BLE_SDK/GD32VW55x_RELEASE_V1.0.2/MSDK/lwip/lwip-2.1.2/src/apps/lwiperf\lwiperf.c ****   newpcb = tcp_new_ip_type(IP_GET_TYPE(remote_ip));
 367:C:/Users/stapi/OneDrive/Desktop/GD32VW553/V1_MQTT_OK/GD32VW55X_Wifi_BLE_SDK/GD32VW55x_RELEASE_V1.0.2/MSDK/lwip/lwip-2.1.2/src/apps/lwiperf\lwiperf.c ****   if (newpcb == NULL) {
 368:C:/Users/stapi/OneDrive/Desktop/GD32VW553/V1_MQTT_OK/GD32VW55X_Wifi_BLE_SDK/GD32VW55x_RELEASE_V1.0.2/MSDK/lwip/lwip-2.1.2/src/apps/lwiperf\lwiperf.c ****     LWIPERF_FREE(lwiperf_state_tcp_t, client_conn);
 369:C:/Users/stapi/OneDrive/Desktop/GD32VW553/V1_MQTT_OK/GD32VW55X_Wifi_BLE_SDK/GD32VW55x_RELEASE_V1.0.2/MSDK/lwip/lwip-2.1.2/src/apps/lwiperf\lwiperf.c ****     return ERR_MEM;
 370:C:/Users/stapi/OneDrive/Desktop/GD32VW553/V1_MQTT_OK/GD32VW55X_Wifi_BLE_SDK/GD32VW55x_RELEASE_V1.0.2/MSDK/lwip/lwip-2.1.2/src/apps/lwiperf\lwiperf.c ****   }
 371:C:/Users/stapi/OneDrive/Desktop/GD32VW553/V1_MQTT_OK/GD32VW55X_Wifi_BLE_SDK/GD32VW55x_RELEASE_V1.0.2/MSDK/lwip/lwip-2.1.2/src/apps/lwiperf\lwiperf.c ****   memset(client_conn, 0, sizeof(lwiperf_state_tcp_t));
 372:C:/Users/stapi/OneDrive/Desktop/GD32VW553/V1_MQTT_OK/GD32VW55X_Wifi_BLE_SDK/GD32VW55x_RELEASE_V1.0.2/MSDK/lwip/lwip-2.1.2/src/apps/lwiperf\lwiperf.c ****   client_conn->base.tcp = 1;
 373:C:/Users/stapi/OneDrive/Desktop/GD32VW553/V1_MQTT_OK/GD32VW55X_Wifi_BLE_SDK/GD32VW55x_RELEASE_V1.0.2/MSDK/lwip/lwip-2.1.2/src/apps/lwiperf\lwiperf.c ****   client_conn->base.related_master_state = related_master_state;
 374:C:/Users/stapi/OneDrive/Desktop/GD32VW553/V1_MQTT_OK/GD32VW55X_Wifi_BLE_SDK/GD32VW55x_RELEASE_V1.0.2/MSDK/lwip/lwip-2.1.2/src/apps/lwiperf\lwiperf.c ****   client_conn->conn_pcb = newpcb;
 375:C:/Users/stapi/OneDrive/Desktop/GD32VW553/V1_MQTT_OK/GD32VW55X_Wifi_BLE_SDK/GD32VW55x_RELEASE_V1.0.2/MSDK/lwip/lwip-2.1.2/src/apps/lwiperf\lwiperf.c ****   client_conn->time_started = sys_now(); /* @todo: set this again on 'connected' */
 376:C:/Users/stapi/OneDrive/Desktop/GD32VW553/V1_MQTT_OK/GD32VW55X_Wifi_BLE_SDK/GD32VW55x_RELEASE_V1.0.2/MSDK/lwip/lwip-2.1.2/src/apps/lwiperf\lwiperf.c ****   client_conn->report_fn = report_fn;
 377:C:/Users/stapi/OneDrive/Desktop/GD32VW553/V1_MQTT_OK/GD32VW55X_Wifi_BLE_SDK/GD32VW55x_RELEASE_V1.0.2/MSDK/lwip/lwip-2.1.2/src/apps/lwiperf\lwiperf.c ****   client_conn->report_arg = report_arg;
 378:C:/Users/stapi/OneDrive/Desktop/GD32VW553/V1_MQTT_OK/GD32VW55X_Wifi_BLE_SDK/GD32VW55x_RELEASE_V1.0.2/MSDK/lwip/lwip-2.1.2/src/apps/lwiperf\lwiperf.c ****   client_conn->next_num = 4; /* initial nr is '4' since the header has 24 byte */
 379:C:/Users/stapi/OneDrive/Desktop/GD32VW553/V1_MQTT_OK/GD32VW55X_Wifi_BLE_SDK/GD32VW55x_RELEASE_V1.0.2/MSDK/lwip/lwip-2.1.2/src/apps/lwiperf\lwiperf.c ****   client_conn->bytes_transferred = 0;
 380:C:/Users/stapi/OneDrive/Desktop/GD32VW553/V1_MQTT_OK/GD32VW55X_Wifi_BLE_SDK/GD32VW55x_RELEASE_V1.0.2/MSDK/lwip/lwip-2.1.2/src/apps/lwiperf\lwiperf.c ****   memcpy(&client_conn->settings, settings, sizeof(*settings));
 381:C:/Users/stapi/OneDrive/Desktop/GD32VW553/V1_MQTT_OK/GD32VW55X_Wifi_BLE_SDK/GD32VW55x_RELEASE_V1.0.2/MSDK/lwip/lwip-2.1.2/src/apps/lwiperf\lwiperf.c ****   client_conn->have_settings_buf = 1;
 382:C:/Users/stapi/OneDrive/Desktop/GD32VW553/V1_MQTT_OK/GD32VW55X_Wifi_BLE_SDK/GD32VW55x_RELEASE_V1.0.2/MSDK/lwip/lwip-2.1.2/src/apps/lwiperf\lwiperf.c **** 
 383:C:/Users/stapi/OneDrive/Desktop/GD32VW553/V1_MQTT_OK/GD32VW55X_Wifi_BLE_SDK/GD32VW55x_RELEASE_V1.0.2/MSDK/lwip/lwip-2.1.2/src/apps/lwiperf\lwiperf.c ****   tcp_arg(newpcb, client_conn);
 384:C:/Users/stapi/OneDrive/Desktop/GD32VW553/V1_MQTT_OK/GD32VW55X_Wifi_BLE_SDK/GD32VW55x_RELEASE_V1.0.2/MSDK/lwip/lwip-2.1.2/src/apps/lwiperf\lwiperf.c ****   tcp_sent(newpcb, lwiperf_tcp_client_sent);
 385:C:/Users/stapi/OneDrive/Desktop/GD32VW553/V1_MQTT_OK/GD32VW55X_Wifi_BLE_SDK/GD32VW55x_RELEASE_V1.0.2/MSDK/lwip/lwip-2.1.2/src/apps/lwiperf\lwiperf.c ****   tcp_poll(newpcb, lwiperf_tcp_poll, 2U);
 386:C:/Users/stapi/OneDrive/Desktop/GD32VW553/V1_MQTT_OK/GD32VW55X_Wifi_BLE_SDK/GD32VW55x_RELEASE_V1.0.2/MSDK/lwip/lwip-2.1.2/src/apps/lwiperf\lwiperf.c ****   tcp_err(newpcb, lwiperf_tcp_err);
 387:C:/Users/stapi/OneDrive/Desktop/GD32VW553/V1_MQTT_OK/GD32VW55X_Wifi_BLE_SDK/GD32VW55x_RELEASE_V1.0.2/MSDK/lwip/lwip-2.1.2/src/apps/lwiperf\lwiperf.c **** 
 388:C:/Users/stapi/OneDrive/Desktop/GD32VW553/V1_MQTT_OK/GD32VW55X_Wifi_BLE_SDK/GD32VW55x_RELEASE_V1.0.2/MSDK/lwip/lwip-2.1.2/src/apps/lwiperf\lwiperf.c ****   ip_addr_copy(remote_addr, *remote_ip);
 389:C:/Users/stapi/OneDrive/Desktop/GD32VW553/V1_MQTT_OK/GD32VW55X_Wifi_BLE_SDK/GD32VW55x_RELEASE_V1.0.2/MSDK/lwip/lwip-2.1.2/src/apps/lwiperf\lwiperf.c **** 
 390:C:/Users/stapi/OneDrive/Desktop/GD32VW553/V1_MQTT_OK/GD32VW55X_Wifi_BLE_SDK/GD32VW55x_RELEASE_V1.0.2/MSDK/lwip/lwip-2.1.2/src/apps/lwiperf\lwiperf.c ****   err = tcp_connect(newpcb, &remote_addr, remote_port, lwiperf_tcp_client_connected);
 391:C:/Users/stapi/OneDrive/Desktop/GD32VW553/V1_MQTT_OK/GD32VW55X_Wifi_BLE_SDK/GD32VW55x_RELEASE_V1.0.2/MSDK/lwip/lwip-2.1.2/src/apps/lwiperf\lwiperf.c ****   if (err != ERR_OK) {
 392:C:/Users/stapi/OneDrive/Desktop/GD32VW553/V1_MQTT_OK/GD32VW55X_Wifi_BLE_SDK/GD32VW55x_RELEASE_V1.0.2/MSDK/lwip/lwip-2.1.2/src/apps/lwiperf\lwiperf.c ****     lwiperf_tcp_close(client_conn, LWIPERF_TCP_ABORTED_LOCAL);
 393:C:/Users/stapi/OneDrive/Desktop/GD32VW553/V1_MQTT_OK/GD32VW55X_Wifi_BLE_SDK/GD32VW55x_RELEASE_V1.0.2/MSDK/lwip/lwip-2.1.2/src/apps/lwiperf\lwiperf.c ****     return err;
 394:C:/Users/stapi/OneDrive/Desktop/GD32VW553/V1_MQTT_OK/GD32VW55X_Wifi_BLE_SDK/GD32VW55x_RELEASE_V1.0.2/MSDK/lwip/lwip-2.1.2/src/apps/lwiperf\lwiperf.c ****   }
 395:C:/Users/stapi/OneDrive/Desktop/GD32VW553/V1_MQTT_OK/GD32VW55X_Wifi_BLE_SDK/GD32VW55x_RELEASE_V1.0.2/MSDK/lwip/lwip-2.1.2/src/apps/lwiperf\lwiperf.c ****   lwiperf_list_add(&client_conn->base);
 396:C:/Users/stapi/OneDrive/Desktop/GD32VW553/V1_MQTT_OK/GD32VW55X_Wifi_BLE_SDK/GD32VW55x_RELEASE_V1.0.2/MSDK/lwip/lwip-2.1.2/src/apps/lwiperf\lwiperf.c ****   *new_conn = client_conn;
 397:C:/Users/stapi/OneDrive/Desktop/GD32VW553/V1_MQTT_OK/GD32VW55X_Wifi_BLE_SDK/GD32VW55x_RELEASE_V1.0.2/MSDK/lwip/lwip-2.1.2/src/apps/lwiperf\lwiperf.c ****   return ERR_OK;
 398:C:/Users/stapi/OneDrive/Desktop/GD32VW553/V1_MQTT_OK/GD32VW55X_Wifi_BLE_SDK/GD32VW55x_RELEASE_V1.0.2/MSDK/lwip/lwip-2.1.2/src/apps/lwiperf\lwiperf.c **** }
 399:C:/Users/stapi/OneDrive/Desktop/GD32VW553/V1_MQTT_OK/GD32VW55X_Wifi_BLE_SDK/GD32VW55x_RELEASE_V1.0.2/MSDK/lwip/lwip-2.1.2/src/apps/lwiperf\lwiperf.c **** 
 400:C:/Users/stapi/OneDrive/Desktop/GD32VW553/V1_MQTT_OK/GD32VW55X_Wifi_BLE_SDK/GD32VW55x_RELEASE_V1.0.2/MSDK/lwip/lwip-2.1.2/src/apps/lwiperf\lwiperf.c **** static err_t
 401:C:/Users/stapi/OneDrive/Desktop/GD32VW553/V1_MQTT_OK/GD32VW55X_Wifi_BLE_SDK/GD32VW55x_RELEASE_V1.0.2/MSDK/lwip/lwip-2.1.2/src/apps/lwiperf\lwiperf.c **** lwiperf_tx_start_passive(lwiperf_state_tcp_t *conn)
 402:C:/Users/stapi/OneDrive/Desktop/GD32VW553/V1_MQTT_OK/GD32VW55X_Wifi_BLE_SDK/GD32VW55x_RELEASE_V1.0.2/MSDK/lwip/lwip-2.1.2/src/apps/lwiperf\lwiperf.c **** {
 403:C:/Users/stapi/OneDrive/Desktop/GD32VW553/V1_MQTT_OK/GD32VW55X_Wifi_BLE_SDK/GD32VW55x_RELEASE_V1.0.2/MSDK/lwip/lwip-2.1.2/src/apps/lwiperf\lwiperf.c ****   err_t ret;
 404:C:/Users/stapi/OneDrive/Desktop/GD32VW553/V1_MQTT_OK/GD32VW55X_Wifi_BLE_SDK/GD32VW55x_RELEASE_V1.0.2/MSDK/lwip/lwip-2.1.2/src/apps/lwiperf\lwiperf.c ****   lwiperf_state_tcp_t *new_conn = NULL;
 405:C:/Users/stapi/OneDrive/Desktop/GD32VW553/V1_MQTT_OK/GD32VW55X_Wifi_BLE_SDK/GD32VW55x_RELEASE_V1.0.2/MSDK/lwip/lwip-2.1.2/src/apps/lwiperf\lwiperf.c ****   u16_t remote_port = (u16_t)lwip_htonl(conn->settings.remote_port);
 406:C:/Users/stapi/OneDrive/Desktop/GD32VW553/V1_MQTT_OK/GD32VW55X_Wifi_BLE_SDK/GD32VW55x_RELEASE_V1.0.2/MSDK/lwip/lwip-2.1.2/src/apps/lwiperf\lwiperf.c **** 
 407:C:/Users/stapi/OneDrive/Desktop/GD32VW553/V1_MQTT_OK/GD32VW55X_Wifi_BLE_SDK/GD32VW55x_RELEASE_V1.0.2/MSDK/lwip/lwip-2.1.2/src/apps/lwiperf\lwiperf.c ****   ret = lwiperf_tx_start_impl(&conn->conn_pcb->remote_ip, remote_port, &conn->settings, conn->repor
 408:C:/Users/stapi/OneDrive/Desktop/GD32VW553/V1_MQTT_OK/GD32VW55X_Wifi_BLE_SDK/GD32VW55x_RELEASE_V1.0.2/MSDK/lwip/lwip-2.1.2/src/apps/lwiperf\lwiperf.c ****     conn->base.related_master_state, &new_conn);
 409:C:/Users/stapi/OneDrive/Desktop/GD32VW553/V1_MQTT_OK/GD32VW55X_Wifi_BLE_SDK/GD32VW55x_RELEASE_V1.0.2/MSDK/lwip/lwip-2.1.2/src/apps/lwiperf\lwiperf.c ****   if (ret == ERR_OK) {
 410:C:/Users/stapi/OneDrive/Desktop/GD32VW553/V1_MQTT_OK/GD32VW55X_Wifi_BLE_SDK/GD32VW55x_RELEASE_V1.0.2/MSDK/lwip/lwip-2.1.2/src/apps/lwiperf\lwiperf.c ****     LWIP_ASSERT("new_conn != NULL", new_conn != NULL);
 411:C:/Users/stapi/OneDrive/Desktop/GD32VW553/V1_MQTT_OK/GD32VW55X_Wifi_BLE_SDK/GD32VW55x_RELEASE_V1.0.2/MSDK/lwip/lwip-2.1.2/src/apps/lwiperf\lwiperf.c ****     new_conn->settings.flags = 0; /* prevent the remote side starting back as client again */
 412:C:/Users/stapi/OneDrive/Desktop/GD32VW553/V1_MQTT_OK/GD32VW55X_Wifi_BLE_SDK/GD32VW55x_RELEASE_V1.0.2/MSDK/lwip/lwip-2.1.2/src/apps/lwiperf\lwiperf.c ****   }
 413:C:/Users/stapi/OneDrive/Desktop/GD32VW553/V1_MQTT_OK/GD32VW55X_Wifi_BLE_SDK/GD32VW55x_RELEASE_V1.0.2/MSDK/lwip/lwip-2.1.2/src/apps/lwiperf\lwiperf.c ****   return ret;
 414:C:/Users/stapi/OneDrive/Desktop/GD32VW553/V1_MQTT_OK/GD32VW55X_Wifi_BLE_SDK/GD32VW55x_RELEASE_V1.0.2/MSDK/lwip/lwip-2.1.2/src/apps/lwiperf\lwiperf.c **** }
 415:C:/Users/stapi/OneDrive/Desktop/GD32VW553/V1_MQTT_OK/GD32VW55X_Wifi_BLE_SDK/GD32VW55x_RELEASE_V1.0.2/MSDK/lwip/lwip-2.1.2/src/apps/lwiperf\lwiperf.c **** 
 416:C:/Users/stapi/OneDrive/Desktop/GD32VW553/V1_MQTT_OK/GD32VW55X_Wifi_BLE_SDK/GD32VW55x_RELEASE_V1.0.2/MSDK/lwip/lwip-2.1.2/src/apps/lwiperf\lwiperf.c **** /** Receive data on an iperf tcp session */
 417:C:/Users/stapi/OneDrive/Desktop/GD32VW553/V1_MQTT_OK/GD32VW55X_Wifi_BLE_SDK/GD32VW55x_RELEASE_V1.0.2/MSDK/lwip/lwip-2.1.2/src/apps/lwiperf\lwiperf.c **** static err_t
 418:C:/Users/stapi/OneDrive/Desktop/GD32VW553/V1_MQTT_OK/GD32VW55X_Wifi_BLE_SDK/GD32VW55x_RELEASE_V1.0.2/MSDK/lwip/lwip-2.1.2/src/apps/lwiperf\lwiperf.c **** lwiperf_tcp_recv(void *arg, struct tcp_pcb *tpcb, struct pbuf *p, err_t err)
 419:C:/Users/stapi/OneDrive/Desktop/GD32VW553/V1_MQTT_OK/GD32VW55X_Wifi_BLE_SDK/GD32VW55x_RELEASE_V1.0.2/MSDK/lwip/lwip-2.1.2/src/apps/lwiperf\lwiperf.c **** {
 420:C:/Users/stapi/OneDrive/Desktop/GD32VW553/V1_MQTT_OK/GD32VW55X_Wifi_BLE_SDK/GD32VW55x_RELEASE_V1.0.2/MSDK/lwip/lwip-2.1.2/src/apps/lwiperf\lwiperf.c ****   u8_t tmp;
 421:C:/Users/stapi/OneDrive/Desktop/GD32VW553/V1_MQTT_OK/GD32VW55X_Wifi_BLE_SDK/GD32VW55x_RELEASE_V1.0.2/MSDK/lwip/lwip-2.1.2/src/apps/lwiperf\lwiperf.c ****   u16_t tot_len;
 422:C:/Users/stapi/OneDrive/Desktop/GD32VW553/V1_MQTT_OK/GD32VW55X_Wifi_BLE_SDK/GD32VW55x_RELEASE_V1.0.2/MSDK/lwip/lwip-2.1.2/src/apps/lwiperf\lwiperf.c ****   u32_t packet_idx;
 423:C:/Users/stapi/OneDrive/Desktop/GD32VW553/V1_MQTT_OK/GD32VW55X_Wifi_BLE_SDK/GD32VW55x_RELEASE_V1.0.2/MSDK/lwip/lwip-2.1.2/src/apps/lwiperf\lwiperf.c ****   struct pbuf *q;
 424:C:/Users/stapi/OneDrive/Desktop/GD32VW553/V1_MQTT_OK/GD32VW55X_Wifi_BLE_SDK/GD32VW55x_RELEASE_V1.0.2/MSDK/lwip/lwip-2.1.2/src/apps/lwiperf\lwiperf.c ****   lwiperf_state_tcp_t *conn = (lwiperf_state_tcp_t *)arg;
 425:C:/Users/stapi/OneDrive/Desktop/GD32VW553/V1_MQTT_OK/GD32VW55X_Wifi_BLE_SDK/GD32VW55x_RELEASE_V1.0.2/MSDK/lwip/lwip-2.1.2/src/apps/lwiperf\lwiperf.c **** 
 426:C:/Users/stapi/OneDrive/Desktop/GD32VW553/V1_MQTT_OK/GD32VW55X_Wifi_BLE_SDK/GD32VW55x_RELEASE_V1.0.2/MSDK/lwip/lwip-2.1.2/src/apps/lwiperf\lwiperf.c ****   LWIP_ASSERT("pcb mismatch", conn->conn_pcb == tpcb);
 427:C:/Users/stapi/OneDrive/Desktop/GD32VW553/V1_MQTT_OK/GD32VW55X_Wifi_BLE_SDK/GD32VW55x_RELEASE_V1.0.2/MSDK/lwip/lwip-2.1.2/src/apps/lwiperf\lwiperf.c ****   LWIP_UNUSED_ARG(tpcb);
 428:C:/Users/stapi/OneDrive/Desktop/GD32VW553/V1_MQTT_OK/GD32VW55X_Wifi_BLE_SDK/GD32VW55x_RELEASE_V1.0.2/MSDK/lwip/lwip-2.1.2/src/apps/lwiperf\lwiperf.c **** 
 429:C:/Users/stapi/OneDrive/Desktop/GD32VW553/V1_MQTT_OK/GD32VW55X_Wifi_BLE_SDK/GD32VW55x_RELEASE_V1.0.2/MSDK/lwip/lwip-2.1.2/src/apps/lwiperf\lwiperf.c ****   if (err != ERR_OK) {
 430:C:/Users/stapi/OneDrive/Desktop/GD32VW553/V1_MQTT_OK/GD32VW55X_Wifi_BLE_SDK/GD32VW55x_RELEASE_V1.0.2/MSDK/lwip/lwip-2.1.2/src/apps/lwiperf\lwiperf.c ****     lwiperf_tcp_close(conn, LWIPERF_TCP_ABORTED_REMOTE);
 431:C:/Users/stapi/OneDrive/Desktop/GD32VW553/V1_MQTT_OK/GD32VW55X_Wifi_BLE_SDK/GD32VW55x_RELEASE_V1.0.2/MSDK/lwip/lwip-2.1.2/src/apps/lwiperf\lwiperf.c ****     return ERR_OK;
 432:C:/Users/stapi/OneDrive/Desktop/GD32VW553/V1_MQTT_OK/GD32VW55X_Wifi_BLE_SDK/GD32VW55x_RELEASE_V1.0.2/MSDK/lwip/lwip-2.1.2/src/apps/lwiperf\lwiperf.c ****   }
 433:C:/Users/stapi/OneDrive/Desktop/GD32VW553/V1_MQTT_OK/GD32VW55X_Wifi_BLE_SDK/GD32VW55x_RELEASE_V1.0.2/MSDK/lwip/lwip-2.1.2/src/apps/lwiperf\lwiperf.c ****   if (p == NULL) {
 434:C:/Users/stapi/OneDrive/Desktop/GD32VW553/V1_MQTT_OK/GD32VW55X_Wifi_BLE_SDK/GD32VW55x_RELEASE_V1.0.2/MSDK/lwip/lwip-2.1.2/src/apps/lwiperf\lwiperf.c ****     /* connection closed -> test done */
 435:C:/Users/stapi/OneDrive/Desktop/GD32VW553/V1_MQTT_OK/GD32VW55X_Wifi_BLE_SDK/GD32VW55x_RELEASE_V1.0.2/MSDK/lwip/lwip-2.1.2/src/apps/lwiperf\lwiperf.c ****     if (conn->settings.flags & PP_HTONL(LWIPERF_FLAGS_ANSWER_TEST)) {
 436:C:/Users/stapi/OneDrive/Desktop/GD32VW553/V1_MQTT_OK/GD32VW55X_Wifi_BLE_SDK/GD32VW55x_RELEASE_V1.0.2/MSDK/lwip/lwip-2.1.2/src/apps/lwiperf\lwiperf.c ****       if ((conn->settings.flags & PP_HTONL(LWIPERF_FLAGS_ANSWER_NOW)) == 0) {
 437:C:/Users/stapi/OneDrive/Desktop/GD32VW553/V1_MQTT_OK/GD32VW55X_Wifi_BLE_SDK/GD32VW55x_RELEASE_V1.0.2/MSDK/lwip/lwip-2.1.2/src/apps/lwiperf\lwiperf.c ****         /* client requested transmission after end of test */
 438:C:/Users/stapi/OneDrive/Desktop/GD32VW553/V1_MQTT_OK/GD32VW55X_Wifi_BLE_SDK/GD32VW55x_RELEASE_V1.0.2/MSDK/lwip/lwip-2.1.2/src/apps/lwiperf\lwiperf.c ****         lwiperf_tx_start_passive(conn);
 439:C:/Users/stapi/OneDrive/Desktop/GD32VW553/V1_MQTT_OK/GD32VW55X_Wifi_BLE_SDK/GD32VW55x_RELEASE_V1.0.2/MSDK/lwip/lwip-2.1.2/src/apps/lwiperf\lwiperf.c ****       }
 440:C:/Users/stapi/OneDrive/Desktop/GD32VW553/V1_MQTT_OK/GD32VW55X_Wifi_BLE_SDK/GD32VW55x_RELEASE_V1.0.2/MSDK/lwip/lwip-2.1.2/src/apps/lwiperf\lwiperf.c ****     }
 441:C:/Users/stapi/OneDrive/Desktop/GD32VW553/V1_MQTT_OK/GD32VW55X_Wifi_BLE_SDK/GD32VW55x_RELEASE_V1.0.2/MSDK/lwip/lwip-2.1.2/src/apps/lwiperf\lwiperf.c ****     lwiperf_tcp_close(conn, LWIPERF_TCP_DONE_SERVER);
 442:C:/Users/stapi/OneDrive/Desktop/GD32VW553/V1_MQTT_OK/GD32VW55X_Wifi_BLE_SDK/GD32VW55x_RELEASE_V1.0.2/MSDK/lwip/lwip-2.1.2/src/apps/lwiperf\lwiperf.c ****     return ERR_OK;
 443:C:/Users/stapi/OneDrive/Desktop/GD32VW553/V1_MQTT_OK/GD32VW55X_Wifi_BLE_SDK/GD32VW55x_RELEASE_V1.0.2/MSDK/lwip/lwip-2.1.2/src/apps/lwiperf\lwiperf.c ****   }
 444:C:/Users/stapi/OneDrive/Desktop/GD32VW553/V1_MQTT_OK/GD32VW55X_Wifi_BLE_SDK/GD32VW55x_RELEASE_V1.0.2/MSDK/lwip/lwip-2.1.2/src/apps/lwiperf\lwiperf.c ****   tot_len = p->tot_len;
 445:C:/Users/stapi/OneDrive/Desktop/GD32VW553/V1_MQTT_OK/GD32VW55X_Wifi_BLE_SDK/GD32VW55x_RELEASE_V1.0.2/MSDK/lwip/lwip-2.1.2/src/apps/lwiperf\lwiperf.c **** 
 446:C:/Users/stapi/OneDrive/Desktop/GD32VW553/V1_MQTT_OK/GD32VW55X_Wifi_BLE_SDK/GD32VW55x_RELEASE_V1.0.2/MSDK/lwip/lwip-2.1.2/src/apps/lwiperf\lwiperf.c ****   conn->poll_count = 0;
 447:C:/Users/stapi/OneDrive/Desktop/GD32VW553/V1_MQTT_OK/GD32VW55X_Wifi_BLE_SDK/GD32VW55x_RELEASE_V1.0.2/MSDK/lwip/lwip-2.1.2/src/apps/lwiperf\lwiperf.c **** 
 448:C:/Users/stapi/OneDrive/Desktop/GD32VW553/V1_MQTT_OK/GD32VW55X_Wifi_BLE_SDK/GD32VW55x_RELEASE_V1.0.2/MSDK/lwip/lwip-2.1.2/src/apps/lwiperf\lwiperf.c ****   if ((!conn->have_settings_buf) || ((conn->bytes_transferred - 24) % (1024 * 128) == 0)) {
 449:C:/Users/stapi/OneDrive/Desktop/GD32VW553/V1_MQTT_OK/GD32VW55X_Wifi_BLE_SDK/GD32VW55x_RELEASE_V1.0.2/MSDK/lwip/lwip-2.1.2/src/apps/lwiperf\lwiperf.c ****     /* wait for 24-byte header */
 450:C:/Users/stapi/OneDrive/Desktop/GD32VW553/V1_MQTT_OK/GD32VW55X_Wifi_BLE_SDK/GD32VW55x_RELEASE_V1.0.2/MSDK/lwip/lwip-2.1.2/src/apps/lwiperf\lwiperf.c ****     if (p->tot_len < sizeof(lwiperf_settings_t)) {
 451:C:/Users/stapi/OneDrive/Desktop/GD32VW553/V1_MQTT_OK/GD32VW55X_Wifi_BLE_SDK/GD32VW55x_RELEASE_V1.0.2/MSDK/lwip/lwip-2.1.2/src/apps/lwiperf\lwiperf.c ****       lwiperf_tcp_close(conn, LWIPERF_TCP_ABORTED_LOCAL_DATAERROR);
 452:C:/Users/stapi/OneDrive/Desktop/GD32VW553/V1_MQTT_OK/GD32VW55X_Wifi_BLE_SDK/GD32VW55x_RELEASE_V1.0.2/MSDK/lwip/lwip-2.1.2/src/apps/lwiperf\lwiperf.c ****       pbuf_free(p);
 453:C:/Users/stapi/OneDrive/Desktop/GD32VW553/V1_MQTT_OK/GD32VW55X_Wifi_BLE_SDK/GD32VW55x_RELEASE_V1.0.2/MSDK/lwip/lwip-2.1.2/src/apps/lwiperf\lwiperf.c ****       return ERR_OK;
 454:C:/Users/stapi/OneDrive/Desktop/GD32VW553/V1_MQTT_OK/GD32VW55X_Wifi_BLE_SDK/GD32VW55x_RELEASE_V1.0.2/MSDK/lwip/lwip-2.1.2/src/apps/lwiperf\lwiperf.c ****     }
 455:C:/Users/stapi/OneDrive/Desktop/GD32VW553/V1_MQTT_OK/GD32VW55X_Wifi_BLE_SDK/GD32VW55x_RELEASE_V1.0.2/MSDK/lwip/lwip-2.1.2/src/apps/lwiperf\lwiperf.c ****     if (!conn->have_settings_buf) {
 456:C:/Users/stapi/OneDrive/Desktop/GD32VW553/V1_MQTT_OK/GD32VW55X_Wifi_BLE_SDK/GD32VW55x_RELEASE_V1.0.2/MSDK/lwip/lwip-2.1.2/src/apps/lwiperf\lwiperf.c ****       if (pbuf_copy_partial(p, &conn->settings, sizeof(lwiperf_settings_t), 0) != sizeof(lwiperf_se
 457:C:/Users/stapi/OneDrive/Desktop/GD32VW553/V1_MQTT_OK/GD32VW55X_Wifi_BLE_SDK/GD32VW55x_RELEASE_V1.0.2/MSDK/lwip/lwip-2.1.2/src/apps/lwiperf\lwiperf.c ****         lwiperf_tcp_close(conn, LWIPERF_TCP_ABORTED_LOCAL);
 458:C:/Users/stapi/OneDrive/Desktop/GD32VW553/V1_MQTT_OK/GD32VW55X_Wifi_BLE_SDK/GD32VW55x_RELEASE_V1.0.2/MSDK/lwip/lwip-2.1.2/src/apps/lwiperf\lwiperf.c ****         pbuf_free(p);
 459:C:/Users/stapi/OneDrive/Desktop/GD32VW553/V1_MQTT_OK/GD32VW55X_Wifi_BLE_SDK/GD32VW55x_RELEASE_V1.0.2/MSDK/lwip/lwip-2.1.2/src/apps/lwiperf\lwiperf.c ****         return ERR_OK;
 460:C:/Users/stapi/OneDrive/Desktop/GD32VW553/V1_MQTT_OK/GD32VW55X_Wifi_BLE_SDK/GD32VW55x_RELEASE_V1.0.2/MSDK/lwip/lwip-2.1.2/src/apps/lwiperf\lwiperf.c ****       }
 461:C:/Users/stapi/OneDrive/Desktop/GD32VW553/V1_MQTT_OK/GD32VW55X_Wifi_BLE_SDK/GD32VW55x_RELEASE_V1.0.2/MSDK/lwip/lwip-2.1.2/src/apps/lwiperf\lwiperf.c ****       conn->have_settings_buf = 1;
 462:C:/Users/stapi/OneDrive/Desktop/GD32VW553/V1_MQTT_OK/GD32VW55X_Wifi_BLE_SDK/GD32VW55x_RELEASE_V1.0.2/MSDK/lwip/lwip-2.1.2/src/apps/lwiperf\lwiperf.c ****       if (conn->settings.flags & PP_HTONL(LWIPERF_FLAGS_ANSWER_TEST)) {
 463:C:/Users/stapi/OneDrive/Desktop/GD32VW553/V1_MQTT_OK/GD32VW55X_Wifi_BLE_SDK/GD32VW55x_RELEASE_V1.0.2/MSDK/lwip/lwip-2.1.2/src/apps/lwiperf\lwiperf.c ****         if (conn->settings.flags & PP_HTONL(LWIPERF_FLAGS_ANSWER_NOW)) {
 464:C:/Users/stapi/OneDrive/Desktop/GD32VW553/V1_MQTT_OK/GD32VW55X_Wifi_BLE_SDK/GD32VW55x_RELEASE_V1.0.2/MSDK/lwip/lwip-2.1.2/src/apps/lwiperf\lwiperf.c ****           /* client requested parallel transmission test */
 465:C:/Users/stapi/OneDrive/Desktop/GD32VW553/V1_MQTT_OK/GD32VW55X_Wifi_BLE_SDK/GD32VW55x_RELEASE_V1.0.2/MSDK/lwip/lwip-2.1.2/src/apps/lwiperf\lwiperf.c ****           err_t err2 = lwiperf_tx_start_passive(conn);
 466:C:/Users/stapi/OneDrive/Desktop/GD32VW553/V1_MQTT_OK/GD32VW55X_Wifi_BLE_SDK/GD32VW55x_RELEASE_V1.0.2/MSDK/lwip/lwip-2.1.2/src/apps/lwiperf\lwiperf.c ****           if (err2 != ERR_OK) {
 467:C:/Users/stapi/OneDrive/Desktop/GD32VW553/V1_MQTT_OK/GD32VW55X_Wifi_BLE_SDK/GD32VW55x_RELEASE_V1.0.2/MSDK/lwip/lwip-2.1.2/src/apps/lwiperf\lwiperf.c ****             lwiperf_tcp_close(conn, LWIPERF_TCP_ABORTED_LOCAL_TXERROR);
 468:C:/Users/stapi/OneDrive/Desktop/GD32VW553/V1_MQTT_OK/GD32VW55X_Wifi_BLE_SDK/GD32VW55x_RELEASE_V1.0.2/MSDK/lwip/lwip-2.1.2/src/apps/lwiperf\lwiperf.c ****             pbuf_free(p);
 469:C:/Users/stapi/OneDrive/Desktop/GD32VW553/V1_MQTT_OK/GD32VW55X_Wifi_BLE_SDK/GD32VW55x_RELEASE_V1.0.2/MSDK/lwip/lwip-2.1.2/src/apps/lwiperf\lwiperf.c ****             return ERR_OK;
 470:C:/Users/stapi/OneDrive/Desktop/GD32VW553/V1_MQTT_OK/GD32VW55X_Wifi_BLE_SDK/GD32VW55x_RELEASE_V1.0.2/MSDK/lwip/lwip-2.1.2/src/apps/lwiperf\lwiperf.c ****           }
 471:C:/Users/stapi/OneDrive/Desktop/GD32VW553/V1_MQTT_OK/GD32VW55X_Wifi_BLE_SDK/GD32VW55x_RELEASE_V1.0.2/MSDK/lwip/lwip-2.1.2/src/apps/lwiperf\lwiperf.c ****         }
 472:C:/Users/stapi/OneDrive/Desktop/GD32VW553/V1_MQTT_OK/GD32VW55X_Wifi_BLE_SDK/GD32VW55x_RELEASE_V1.0.2/MSDK/lwip/lwip-2.1.2/src/apps/lwiperf\lwiperf.c ****       }
 473:C:/Users/stapi/OneDrive/Desktop/GD32VW553/V1_MQTT_OK/GD32VW55X_Wifi_BLE_SDK/GD32VW55x_RELEASE_V1.0.2/MSDK/lwip/lwip-2.1.2/src/apps/lwiperf\lwiperf.c ****     } else {
 474:C:/Users/stapi/OneDrive/Desktop/GD32VW553/V1_MQTT_OK/GD32VW55X_Wifi_BLE_SDK/GD32VW55x_RELEASE_V1.0.2/MSDK/lwip/lwip-2.1.2/src/apps/lwiperf\lwiperf.c ****       if (conn->settings.flags & PP_HTONL(LWIPERF_FLAGS_ANSWER_TEST)) {
 475:C:/Users/stapi/OneDrive/Desktop/GD32VW553/V1_MQTT_OK/GD32VW55X_Wifi_BLE_SDK/GD32VW55x_RELEASE_V1.0.2/MSDK/lwip/lwip-2.1.2/src/apps/lwiperf\lwiperf.c ****         if (pbuf_memcmp(p, 0, &conn->settings, sizeof(lwiperf_settings_t)) != 0) {
 476:C:/Users/stapi/OneDrive/Desktop/GD32VW553/V1_MQTT_OK/GD32VW55X_Wifi_BLE_SDK/GD32VW55x_RELEASE_V1.0.2/MSDK/lwip/lwip-2.1.2/src/apps/lwiperf\lwiperf.c ****           lwiperf_tcp_close(conn, LWIPERF_TCP_ABORTED_LOCAL_DATAERROR);
 477:C:/Users/stapi/OneDrive/Desktop/GD32VW553/V1_MQTT_OK/GD32VW55X_Wifi_BLE_SDK/GD32VW55x_RELEASE_V1.0.2/MSDK/lwip/lwip-2.1.2/src/apps/lwiperf\lwiperf.c ****           pbuf_free(p);
 478:C:/Users/stapi/OneDrive/Desktop/GD32VW553/V1_MQTT_OK/GD32VW55X_Wifi_BLE_SDK/GD32VW55x_RELEASE_V1.0.2/MSDK/lwip/lwip-2.1.2/src/apps/lwiperf\lwiperf.c ****           return ERR_OK;
 479:C:/Users/stapi/OneDrive/Desktop/GD32VW553/V1_MQTT_OK/GD32VW55X_Wifi_BLE_SDK/GD32VW55x_RELEASE_V1.0.2/MSDK/lwip/lwip-2.1.2/src/apps/lwiperf\lwiperf.c ****         }
 480:C:/Users/stapi/OneDrive/Desktop/GD32VW553/V1_MQTT_OK/GD32VW55X_Wifi_BLE_SDK/GD32VW55x_RELEASE_V1.0.2/MSDK/lwip/lwip-2.1.2/src/apps/lwiperf\lwiperf.c ****       }
 481:C:/Users/stapi/OneDrive/Desktop/GD32VW553/V1_MQTT_OK/GD32VW55X_Wifi_BLE_SDK/GD32VW55x_RELEASE_V1.0.2/MSDK/lwip/lwip-2.1.2/src/apps/lwiperf\lwiperf.c ****     }
 482:C:/Users/stapi/OneDrive/Desktop/GD32VW553/V1_MQTT_OK/GD32VW55X_Wifi_BLE_SDK/GD32VW55x_RELEASE_V1.0.2/MSDK/lwip/lwip-2.1.2/src/apps/lwiperf\lwiperf.c ****     conn->bytes_transferred += sizeof(lwiperf_settings_t);
 483:C:/Users/stapi/OneDrive/Desktop/GD32VW553/V1_MQTT_OK/GD32VW55X_Wifi_BLE_SDK/GD32VW55x_RELEASE_V1.0.2/MSDK/lwip/lwip-2.1.2/src/apps/lwiperf\lwiperf.c ****     if (conn->bytes_transferred <= 24) {
 484:C:/Users/stapi/OneDrive/Desktop/GD32VW553/V1_MQTT_OK/GD32VW55X_Wifi_BLE_SDK/GD32VW55x_RELEASE_V1.0.2/MSDK/lwip/lwip-2.1.2/src/apps/lwiperf\lwiperf.c ****       conn->time_started = sys_now();
 485:C:/Users/stapi/OneDrive/Desktop/GD32VW553/V1_MQTT_OK/GD32VW55X_Wifi_BLE_SDK/GD32VW55x_RELEASE_V1.0.2/MSDK/lwip/lwip-2.1.2/src/apps/lwiperf\lwiperf.c ****       tcp_recved(tpcb, p->tot_len);
 486:C:/Users/stapi/OneDrive/Desktop/GD32VW553/V1_MQTT_OK/GD32VW55X_Wifi_BLE_SDK/GD32VW55x_RELEASE_V1.0.2/MSDK/lwip/lwip-2.1.2/src/apps/lwiperf\lwiperf.c ****       pbuf_free(p);
 487:C:/Users/stapi/OneDrive/Desktop/GD32VW553/V1_MQTT_OK/GD32VW55X_Wifi_BLE_SDK/GD32VW55x_RELEASE_V1.0.2/MSDK/lwip/lwip-2.1.2/src/apps/lwiperf\lwiperf.c ****       return ERR_OK;
 488:C:/Users/stapi/OneDrive/Desktop/GD32VW553/V1_MQTT_OK/GD32VW55X_Wifi_BLE_SDK/GD32VW55x_RELEASE_V1.0.2/MSDK/lwip/lwip-2.1.2/src/apps/lwiperf\lwiperf.c ****     }
 489:C:/Users/stapi/OneDrive/Desktop/GD32VW553/V1_MQTT_OK/GD32VW55X_Wifi_BLE_SDK/GD32VW55x_RELEASE_V1.0.2/MSDK/lwip/lwip-2.1.2/src/apps/lwiperf\lwiperf.c ****     conn->next_num = 4; /* 24 bytes received... */
 490:C:/Users/stapi/OneDrive/Desktop/GD32VW553/V1_MQTT_OK/GD32VW55X_Wifi_BLE_SDK/GD32VW55x_RELEASE_V1.0.2/MSDK/lwip/lwip-2.1.2/src/apps/lwiperf\lwiperf.c ****     tmp = pbuf_remove_header(p, 24);
 491:C:/Users/stapi/OneDrive/Desktop/GD32VW553/V1_MQTT_OK/GD32VW55X_Wifi_BLE_SDK/GD32VW55x_RELEASE_V1.0.2/MSDK/lwip/lwip-2.1.2/src/apps/lwiperf\lwiperf.c ****     LWIP_ASSERT("pbuf_remove_header failed", tmp == 0);
 492:C:/Users/stapi/OneDrive/Desktop/GD32VW553/V1_MQTT_OK/GD32VW55X_Wifi_BLE_SDK/GD32VW55x_RELEASE_V1.0.2/MSDK/lwip/lwip-2.1.2/src/apps/lwiperf\lwiperf.c ****     LWIP_UNUSED_ARG(tmp); /* for LWIP_NOASSERT */
 493:C:/Users/stapi/OneDrive/Desktop/GD32VW553/V1_MQTT_OK/GD32VW55X_Wifi_BLE_SDK/GD32VW55x_RELEASE_V1.0.2/MSDK/lwip/lwip-2.1.2/src/apps/lwiperf\lwiperf.c ****   }
 494:C:/Users/stapi/OneDrive/Desktop/GD32VW553/V1_MQTT_OK/GD32VW55X_Wifi_BLE_SDK/GD32VW55x_RELEASE_V1.0.2/MSDK/lwip/lwip-2.1.2/src/apps/lwiperf\lwiperf.c **** 
 495:C:/Users/stapi/OneDrive/Desktop/GD32VW553/V1_MQTT_OK/GD32VW55X_Wifi_BLE_SDK/GD32VW55x_RELEASE_V1.0.2/MSDK/lwip/lwip-2.1.2/src/apps/lwiperf\lwiperf.c ****   packet_idx = 0;
 496:C:/Users/stapi/OneDrive/Desktop/GD32VW553/V1_MQTT_OK/GD32VW55X_Wifi_BLE_SDK/GD32VW55x_RELEASE_V1.0.2/MSDK/lwip/lwip-2.1.2/src/apps/lwiperf\lwiperf.c ****   for (q = p; q != NULL; q = q->next) {
 497:C:/Users/stapi/OneDrive/Desktop/GD32VW553/V1_MQTT_OK/GD32VW55X_Wifi_BLE_SDK/GD32VW55x_RELEASE_V1.0.2/MSDK/lwip/lwip-2.1.2/src/apps/lwiperf\lwiperf.c **** #if LWIPERF_CHECK_RX_DATA
 498:C:/Users/stapi/OneDrive/Desktop/GD32VW553/V1_MQTT_OK/GD32VW55X_Wifi_BLE_SDK/GD32VW55x_RELEASE_V1.0.2/MSDK/lwip/lwip-2.1.2/src/apps/lwiperf\lwiperf.c ****     const u8_t *payload = (const u8_t *)q->payload;
 499:C:/Users/stapi/OneDrive/Desktop/GD32VW553/V1_MQTT_OK/GD32VW55X_Wifi_BLE_SDK/GD32VW55x_RELEASE_V1.0.2/MSDK/lwip/lwip-2.1.2/src/apps/lwiperf\lwiperf.c ****     u16_t i;
 500:C:/Users/stapi/OneDrive/Desktop/GD32VW553/V1_MQTT_OK/GD32VW55X_Wifi_BLE_SDK/GD32VW55x_RELEASE_V1.0.2/MSDK/lwip/lwip-2.1.2/src/apps/lwiperf\lwiperf.c ****     for (i = 0; i < q->len; i++) {
 501:C:/Users/stapi/OneDrive/Desktop/GD32VW553/V1_MQTT_OK/GD32VW55X_Wifi_BLE_SDK/GD32VW55x_RELEASE_V1.0.2/MSDK/lwip/lwip-2.1.2/src/apps/lwiperf\lwiperf.c ****       u8_t val = payload[i];
 502:C:/Users/stapi/OneDrive/Desktop/GD32VW553/V1_MQTT_OK/GD32VW55X_Wifi_BLE_SDK/GD32VW55x_RELEASE_V1.0.2/MSDK/lwip/lwip-2.1.2/src/apps/lwiperf\lwiperf.c ****       u8_t num = val - '0';
 503:C:/Users/stapi/OneDrive/Desktop/GD32VW553/V1_MQTT_OK/GD32VW55X_Wifi_BLE_SDK/GD32VW55x_RELEASE_V1.0.2/MSDK/lwip/lwip-2.1.2/src/apps/lwiperf\lwiperf.c ****       if (num == conn->next_num) {
 504:C:/Users/stapi/OneDrive/Desktop/GD32VW553/V1_MQTT_OK/GD32VW55X_Wifi_BLE_SDK/GD32VW55x_RELEASE_V1.0.2/MSDK/lwip/lwip-2.1.2/src/apps/lwiperf\lwiperf.c ****         conn->next_num++;
 505:C:/Users/stapi/OneDrive/Desktop/GD32VW553/V1_MQTT_OK/GD32VW55X_Wifi_BLE_SDK/GD32VW55x_RELEASE_V1.0.2/MSDK/lwip/lwip-2.1.2/src/apps/lwiperf\lwiperf.c ****         if (conn->next_num == 10) {
 506:C:/Users/stapi/OneDrive/Desktop/GD32VW553/V1_MQTT_OK/GD32VW55X_Wifi_BLE_SDK/GD32VW55x_RELEASE_V1.0.2/MSDK/lwip/lwip-2.1.2/src/apps/lwiperf\lwiperf.c ****           conn->next_num = 0;
 507:C:/Users/stapi/OneDrive/Desktop/GD32VW553/V1_MQTT_OK/GD32VW55X_Wifi_BLE_SDK/GD32VW55x_RELEASE_V1.0.2/MSDK/lwip/lwip-2.1.2/src/apps/lwiperf\lwiperf.c ****         }
 508:C:/Users/stapi/OneDrive/Desktop/GD32VW553/V1_MQTT_OK/GD32VW55X_Wifi_BLE_SDK/GD32VW55x_RELEASE_V1.0.2/MSDK/lwip/lwip-2.1.2/src/apps/lwiperf\lwiperf.c ****       } else {
 509:C:/Users/stapi/OneDrive/Desktop/GD32VW553/V1_MQTT_OK/GD32VW55X_Wifi_BLE_SDK/GD32VW55x_RELEASE_V1.0.2/MSDK/lwip/lwip-2.1.2/src/apps/lwiperf\lwiperf.c ****         lwiperf_tcp_close(conn, LWIPERF_TCP_ABORTED_LOCAL_DATAERROR);
 510:C:/Users/stapi/OneDrive/Desktop/GD32VW553/V1_MQTT_OK/GD32VW55X_Wifi_BLE_SDK/GD32VW55x_RELEASE_V1.0.2/MSDK/lwip/lwip-2.1.2/src/apps/lwiperf\lwiperf.c ****         pbuf_free(p);
 511:C:/Users/stapi/OneDrive/Desktop/GD32VW553/V1_MQTT_OK/GD32VW55X_Wifi_BLE_SDK/GD32VW55x_RELEASE_V1.0.2/MSDK/lwip/lwip-2.1.2/src/apps/lwiperf\lwiperf.c ****         return ERR_OK;
 512:C:/Users/stapi/OneDrive/Desktop/GD32VW553/V1_MQTT_OK/GD32VW55X_Wifi_BLE_SDK/GD32VW55x_RELEASE_V1.0.2/MSDK/lwip/lwip-2.1.2/src/apps/lwiperf\lwiperf.c ****       }
 513:C:/Users/stapi/OneDrive/Desktop/GD32VW553/V1_MQTT_OK/GD32VW55X_Wifi_BLE_SDK/GD32VW55x_RELEASE_V1.0.2/MSDK/lwip/lwip-2.1.2/src/apps/lwiperf\lwiperf.c ****     }
 514:C:/Users/stapi/OneDrive/Desktop/GD32VW553/V1_MQTT_OK/GD32VW55X_Wifi_BLE_SDK/GD32VW55x_RELEASE_V1.0.2/MSDK/lwip/lwip-2.1.2/src/apps/lwiperf\lwiperf.c **** #endif
 515:C:/Users/stapi/OneDrive/Desktop/GD32VW553/V1_MQTT_OK/GD32VW55X_Wifi_BLE_SDK/GD32VW55x_RELEASE_V1.0.2/MSDK/lwip/lwip-2.1.2/src/apps/lwiperf\lwiperf.c ****     packet_idx += q->len;
 516:C:/Users/stapi/OneDrive/Desktop/GD32VW553/V1_MQTT_OK/GD32VW55X_Wifi_BLE_SDK/GD32VW55x_RELEASE_V1.0.2/MSDK/lwip/lwip-2.1.2/src/apps/lwiperf\lwiperf.c ****   }
 517:C:/Users/stapi/OneDrive/Desktop/GD32VW553/V1_MQTT_OK/GD32VW55X_Wifi_BLE_SDK/GD32VW55x_RELEASE_V1.0.2/MSDK/lwip/lwip-2.1.2/src/apps/lwiperf\lwiperf.c ****   LWIP_ASSERT("count mismatch", packet_idx == p->tot_len);
 518:C:/Users/stapi/OneDrive/Desktop/GD32VW553/V1_MQTT_OK/GD32VW55X_Wifi_BLE_SDK/GD32VW55x_RELEASE_V1.0.2/MSDK/lwip/lwip-2.1.2/src/apps/lwiperf\lwiperf.c ****   conn->bytes_transferred += packet_idx;
 519:C:/Users/stapi/OneDrive/Desktop/GD32VW553/V1_MQTT_OK/GD32VW55X_Wifi_BLE_SDK/GD32VW55x_RELEASE_V1.0.2/MSDK/lwip/lwip-2.1.2/src/apps/lwiperf\lwiperf.c ****   tcp_recved(tpcb, tot_len);
 520:C:/Users/stapi/OneDrive/Desktop/GD32VW553/V1_MQTT_OK/GD32VW55X_Wifi_BLE_SDK/GD32VW55x_RELEASE_V1.0.2/MSDK/lwip/lwip-2.1.2/src/apps/lwiperf\lwiperf.c ****   pbuf_free(p);
 521:C:/Users/stapi/OneDrive/Desktop/GD32VW553/V1_MQTT_OK/GD32VW55X_Wifi_BLE_SDK/GD32VW55x_RELEASE_V1.0.2/MSDK/lwip/lwip-2.1.2/src/apps/lwiperf\lwiperf.c ****   return ERR_OK;
 522:C:/Users/stapi/OneDrive/Desktop/GD32VW553/V1_MQTT_OK/GD32VW55X_Wifi_BLE_SDK/GD32VW55x_RELEASE_V1.0.2/MSDK/lwip/lwip-2.1.2/src/apps/lwiperf\lwiperf.c **** }
 523:C:/Users/stapi/OneDrive/Desktop/GD32VW553/V1_MQTT_OK/GD32VW55X_Wifi_BLE_SDK/GD32VW55x_RELEASE_V1.0.2/MSDK/lwip/lwip-2.1.2/src/apps/lwiperf\lwiperf.c **** 
 524:C:/Users/stapi/OneDrive/Desktop/GD32VW553/V1_MQTT_OK/GD32VW55X_Wifi_BLE_SDK/GD32VW55x_RELEASE_V1.0.2/MSDK/lwip/lwip-2.1.2/src/apps/lwiperf\lwiperf.c **** /** Error callback, iperf tcp session aborted */
 525:C:/Users/stapi/OneDrive/Desktop/GD32VW553/V1_MQTT_OK/GD32VW55X_Wifi_BLE_SDK/GD32VW55x_RELEASE_V1.0.2/MSDK/lwip/lwip-2.1.2/src/apps/lwiperf\lwiperf.c **** static void
 526:C:/Users/stapi/OneDrive/Desktop/GD32VW553/V1_MQTT_OK/GD32VW55X_Wifi_BLE_SDK/GD32VW55x_RELEASE_V1.0.2/MSDK/lwip/lwip-2.1.2/src/apps/lwiperf\lwiperf.c **** lwiperf_tcp_err(void *arg, err_t err)
 527:C:/Users/stapi/OneDrive/Desktop/GD32VW553/V1_MQTT_OK/GD32VW55X_Wifi_BLE_SDK/GD32VW55x_RELEASE_V1.0.2/MSDK/lwip/lwip-2.1.2/src/apps/lwiperf\lwiperf.c **** {
 286              		.loc 1 527 1
 287              		.cfi_startproc
 288              	.LVL33:
 528:C:/Users/stapi/OneDrive/Desktop/GD32VW553/V1_MQTT_OK/GD32VW55X_Wifi_BLE_SDK/GD32VW55x_RELEASE_V1.0.2/MSDK/lwip/lwip-2.1.2/src/apps/lwiperf\lwiperf.c ****   lwiperf_state_tcp_t *conn = (lwiperf_state_tcp_t *)arg;
 289              		.loc 1 528 3
 529:C:/Users/stapi/OneDrive/Desktop/GD32VW553/V1_MQTT_OK/GD32VW55X_Wifi_BLE_SDK/GD32VW55x_RELEASE_V1.0.2/MSDK/lwip/lwip-2.1.2/src/apps/lwiperf\lwiperf.c ****   LWIP_UNUSED_ARG(err);
 290              		.loc 1 529 3
 530:C:/Users/stapi/OneDrive/Desktop/GD32VW553/V1_MQTT_OK/GD32VW55X_Wifi_BLE_SDK/GD32VW55x_RELEASE_V1.0.2/MSDK/lwip/lwip-2.1.2/src/apps/lwiperf\lwiperf.c ****   lwiperf_tcp_close(conn, LWIPERF_TCP_ABORTED_REMOTE);
 291              		.loc 1 530 3
 292 0000 9545     		li	a1,5
 293              	.LVL34:
 294 0002 17030000 		tail	lwiperf_tcp_close
 294      67000300 
 295              	.LVL35:
 296              		.cfi_endproc
 297              	.LFE15:
 299              		.section	.rodata.lwiperf_tcp_accept.str1.4,"aMS",@progbits,1
 300              		.align	2
 301              	.LC4:
 302 0000 696E7661 		.string	"invalid session"
 302      6C696420 
 302      73657373 
 302      696F6E00 
 303              		.align	2
 304              	.LC5:
 305 0010 696E7661 		.string	"invalid listen pcb"
 305      6C696420 
 305      6C697374 
 305      656E2070 
 305      636200
 306 0023 00       		.align	2
 307              	.LC6:
 308 0024 696E7661 		.string	"invalid conn pcb"
 308      6C696420 
 308      636F6E6E 
 308      20706362 
 308      00
 309 0035 000000   		.align	2
 310              	.LC7:
 311 0038 732D3E62 		.string	"s->base.related_master_state != NULL"
 311      6173652E 
 311      72656C61 
 311      7465645F 
 311      6D617374 
 312 005d 000000   		.align	2
 313              	.LC8:
 314 0060 732D3E62 		.string	"s->base.related_master_state == NULL"
 314      6173652E 
 314      72656C61 
 314      7465645F 
 314      6D617374 
 315              		.section	.text.lwiperf_tcp_accept,"ax",@progbits
 316              		.align	1
 318              	lwiperf_tcp_accept:
 319              	.LFB17:
 531:C:/Users/stapi/OneDrive/Desktop/GD32VW553/V1_MQTT_OK/GD32VW55X_Wifi_BLE_SDK/GD32VW55x_RELEASE_V1.0.2/MSDK/lwip/lwip-2.1.2/src/apps/lwiperf\lwiperf.c **** }
 532:C:/Users/stapi/OneDrive/Desktop/GD32VW553/V1_MQTT_OK/GD32VW55X_Wifi_BLE_SDK/GD32VW55x_RELEASE_V1.0.2/MSDK/lwip/lwip-2.1.2/src/apps/lwiperf\lwiperf.c **** 
 533:C:/Users/stapi/OneDrive/Desktop/GD32VW553/V1_MQTT_OK/GD32VW55X_Wifi_BLE_SDK/GD32VW55x_RELEASE_V1.0.2/MSDK/lwip/lwip-2.1.2/src/apps/lwiperf\lwiperf.c **** /** TCP poll callback, try to send more data */
 534:C:/Users/stapi/OneDrive/Desktop/GD32VW553/V1_MQTT_OK/GD32VW55X_Wifi_BLE_SDK/GD32VW55x_RELEASE_V1.0.2/MSDK/lwip/lwip-2.1.2/src/apps/lwiperf\lwiperf.c **** static err_t
 535:C:/Users/stapi/OneDrive/Desktop/GD32VW553/V1_MQTT_OK/GD32VW55X_Wifi_BLE_SDK/GD32VW55x_RELEASE_V1.0.2/MSDK/lwip/lwip-2.1.2/src/apps/lwiperf\lwiperf.c **** lwiperf_tcp_poll(void *arg, struct tcp_pcb *tpcb)
 536:C:/Users/stapi/OneDrive/Desktop/GD32VW553/V1_MQTT_OK/GD32VW55X_Wifi_BLE_SDK/GD32VW55x_RELEASE_V1.0.2/MSDK/lwip/lwip-2.1.2/src/apps/lwiperf\lwiperf.c **** {
 537:C:/Users/stapi/OneDrive/Desktop/GD32VW553/V1_MQTT_OK/GD32VW55X_Wifi_BLE_SDK/GD32VW55x_RELEASE_V1.0.2/MSDK/lwip/lwip-2.1.2/src/apps/lwiperf\lwiperf.c ****   lwiperf_state_tcp_t *conn = (lwiperf_state_tcp_t *)arg;
 538:C:/Users/stapi/OneDrive/Desktop/GD32VW553/V1_MQTT_OK/GD32VW55X_Wifi_BLE_SDK/GD32VW55x_RELEASE_V1.0.2/MSDK/lwip/lwip-2.1.2/src/apps/lwiperf\lwiperf.c ****   LWIP_ASSERT("pcb mismatch", conn->conn_pcb == tpcb);
 539:C:/Users/stapi/OneDrive/Desktop/GD32VW553/V1_MQTT_OK/GD32VW55X_Wifi_BLE_SDK/GD32VW55x_RELEASE_V1.0.2/MSDK/lwip/lwip-2.1.2/src/apps/lwiperf\lwiperf.c ****   LWIP_UNUSED_ARG(tpcb);
 540:C:/Users/stapi/OneDrive/Desktop/GD32VW553/V1_MQTT_OK/GD32VW55X_Wifi_BLE_SDK/GD32VW55x_RELEASE_V1.0.2/MSDK/lwip/lwip-2.1.2/src/apps/lwiperf\lwiperf.c ****   if (++conn->poll_count >= LWIPERF_TCP_MAX_IDLE_SEC) {
 541:C:/Users/stapi/OneDrive/Desktop/GD32VW553/V1_MQTT_OK/GD32VW55X_Wifi_BLE_SDK/GD32VW55x_RELEASE_V1.0.2/MSDK/lwip/lwip-2.1.2/src/apps/lwiperf\lwiperf.c ****     lwiperf_tcp_close(conn, LWIPERF_TCP_ABORTED_LOCAL);
 542:C:/Users/stapi/OneDrive/Desktop/GD32VW553/V1_MQTT_OK/GD32VW55X_Wifi_BLE_SDK/GD32VW55x_RELEASE_V1.0.2/MSDK/lwip/lwip-2.1.2/src/apps/lwiperf\lwiperf.c ****     return ERR_OK; /* lwiperf_tcp_close frees conn */
 543:C:/Users/stapi/OneDrive/Desktop/GD32VW553/V1_MQTT_OK/GD32VW55X_Wifi_BLE_SDK/GD32VW55x_RELEASE_V1.0.2/MSDK/lwip/lwip-2.1.2/src/apps/lwiperf\lwiperf.c ****   }
 544:C:/Users/stapi/OneDrive/Desktop/GD32VW553/V1_MQTT_OK/GD32VW55X_Wifi_BLE_SDK/GD32VW55x_RELEASE_V1.0.2/MSDK/lwip/lwip-2.1.2/src/apps/lwiperf\lwiperf.c **** 
 545:C:/Users/stapi/OneDrive/Desktop/GD32VW553/V1_MQTT_OK/GD32VW55X_Wifi_BLE_SDK/GD32VW55x_RELEASE_V1.0.2/MSDK/lwip/lwip-2.1.2/src/apps/lwiperf\lwiperf.c ****   if (!conn->base.server) {
 546:C:/Users/stapi/OneDrive/Desktop/GD32VW553/V1_MQTT_OK/GD32VW55X_Wifi_BLE_SDK/GD32VW55x_RELEASE_V1.0.2/MSDK/lwip/lwip-2.1.2/src/apps/lwiperf\lwiperf.c ****     lwiperf_tcp_client_send_more(conn);
 547:C:/Users/stapi/OneDrive/Desktop/GD32VW553/V1_MQTT_OK/GD32VW55X_Wifi_BLE_SDK/GD32VW55x_RELEASE_V1.0.2/MSDK/lwip/lwip-2.1.2/src/apps/lwiperf\lwiperf.c ****   }
 548:C:/Users/stapi/OneDrive/Desktop/GD32VW553/V1_MQTT_OK/GD32VW55X_Wifi_BLE_SDK/GD32VW55x_RELEASE_V1.0.2/MSDK/lwip/lwip-2.1.2/src/apps/lwiperf\lwiperf.c **** 
 549:C:/Users/stapi/OneDrive/Desktop/GD32VW553/V1_MQTT_OK/GD32VW55X_Wifi_BLE_SDK/GD32VW55x_RELEASE_V1.0.2/MSDK/lwip/lwip-2.1.2/src/apps/lwiperf\lwiperf.c ****   return ERR_OK;
 550:C:/Users/stapi/OneDrive/Desktop/GD32VW553/V1_MQTT_OK/GD32VW55X_Wifi_BLE_SDK/GD32VW55x_RELEASE_V1.0.2/MSDK/lwip/lwip-2.1.2/src/apps/lwiperf\lwiperf.c **** }
 551:C:/Users/stapi/OneDrive/Desktop/GD32VW553/V1_MQTT_OK/GD32VW55X_Wifi_BLE_SDK/GD32VW55x_RELEASE_V1.0.2/MSDK/lwip/lwip-2.1.2/src/apps/lwiperf\lwiperf.c **** 
 552:C:/Users/stapi/OneDrive/Desktop/GD32VW553/V1_MQTT_OK/GD32VW55X_Wifi_BLE_SDK/GD32VW55x_RELEASE_V1.0.2/MSDK/lwip/lwip-2.1.2/src/apps/lwiperf\lwiperf.c **** /** This is called when a new client connects for an iperf tcp session */
 553:C:/Users/stapi/OneDrive/Desktop/GD32VW553/V1_MQTT_OK/GD32VW55X_Wifi_BLE_SDK/GD32VW55x_RELEASE_V1.0.2/MSDK/lwip/lwip-2.1.2/src/apps/lwiperf\lwiperf.c **** static err_t
 554:C:/Users/stapi/OneDrive/Desktop/GD32VW553/V1_MQTT_OK/GD32VW55X_Wifi_BLE_SDK/GD32VW55x_RELEASE_V1.0.2/MSDK/lwip/lwip-2.1.2/src/apps/lwiperf\lwiperf.c **** lwiperf_tcp_accept(void *arg, struct tcp_pcb *newpcb, err_t err)
 555:C:/Users/stapi/OneDrive/Desktop/GD32VW553/V1_MQTT_OK/GD32VW55X_Wifi_BLE_SDK/GD32VW55x_RELEASE_V1.0.2/MSDK/lwip/lwip-2.1.2/src/apps/lwiperf\lwiperf.c **** {
 320              		.loc 1 555 1
 321              		.cfi_startproc
 322              	.LVL36:
 323 0000 17030000 		call	t0,__riscv_save_4
 323      E7020300 
 324              		.cfi_offset 19, -20
 325              		.cfi_offset 18, -16
 326              		.cfi_offset 9, -12
 327              		.cfi_offset 8, -8
 328              		.cfi_offset 1, -4
 329              		.cfi_def_cfa_offset 32
 556:C:/Users/stapi/OneDrive/Desktop/GD32VW553/V1_MQTT_OK/GD32VW55X_Wifi_BLE_SDK/GD32VW55x_RELEASE_V1.0.2/MSDK/lwip/lwip-2.1.2/src/apps/lwiperf\lwiperf.c ****   lwiperf_state_tcp_t *s, *conn;
 330              		.loc 1 556 3
 557:C:/Users/stapi/OneDrive/Desktop/GD32VW553/V1_MQTT_OK/GD32VW55X_Wifi_BLE_SDK/GD32VW55x_RELEASE_V1.0.2/MSDK/lwip/lwip-2.1.2/src/apps/lwiperf\lwiperf.c ****   if ((err != ERR_OK) || (newpcb == NULL) || (arg == NULL)) {
 331              		.loc 1 557 3
 332              		.loc 1 557 6 is_stmt 0
 333 0008 71E2     		bne	a2,zero,.L55
 334 000a AE89     		mv	s3,a1
 335              		.loc 1 557 23 discriminator 1
 336 000c E1C1     		beq	a1,zero,.L55
 337 000e 2A84     		mv	s0,a0
 338              		.loc 1 557 43 discriminator 2
 339 0010 55CD     		beq	a0,zero,.L55
 558:C:/Users/stapi/OneDrive/Desktop/GD32VW553/V1_MQTT_OK/GD32VW55X_Wifi_BLE_SDK/GD32VW55x_RELEASE_V1.0.2/MSDK/lwip/lwip-2.1.2/src/apps/lwiperf\lwiperf.c ****     return ERR_VAL;
 559:C:/Users/stapi/OneDrive/Desktop/GD32VW553/V1_MQTT_OK/GD32VW55X_Wifi_BLE_SDK/GD32VW55x_RELEASE_V1.0.2/MSDK/lwip/lwip-2.1.2/src/apps/lwiperf\lwiperf.c ****   }
 560:C:/Users/stapi/OneDrive/Desktop/GD32VW553/V1_MQTT_OK/GD32VW55X_Wifi_BLE_SDK/GD32VW55x_RELEASE_V1.0.2/MSDK/lwip/lwip-2.1.2/src/apps/lwiperf\lwiperf.c **** 
 561:C:/Users/stapi/OneDrive/Desktop/GD32VW553/V1_MQTT_OK/GD32VW55X_Wifi_BLE_SDK/GD32VW55x_RELEASE_V1.0.2/MSDK/lwip/lwip-2.1.2/src/apps/lwiperf\lwiperf.c ****   s = (lwiperf_state_tcp_t *)arg;
 340              		.loc 1 561 3 is_stmt 1
 341              	.LVL37:
 562:C:/Users/stapi/OneDrive/Desktop/GD32VW553/V1_MQTT_OK/GD32VW55X_Wifi_BLE_SDK/GD32VW55x_RELEASE_V1.0.2/MSDK/lwip/lwip-2.1.2/src/apps/lwiperf\lwiperf.c ****   LWIP_ASSERT("invalid session", s->base.server);
 342              		.loc 1 562 3
 343              		.loc 1 562 3
 344 0012 83475500 		lbu	a5,5(a0)
 345 0016 85E7     		bne	a5,zero,.L35
 346              		.loc 1 562 3 discriminator 1
 347              		.loc 1 562 3 discriminator 1
 348 0018 B7060000 		lui	a3,%hi(.LC0)
 349 001c B7050000 		lui	a1,%hi(.LC4)
 350              	.LVL38:
 351 0020 37050000 		lui	a0,%hi(.LC2)
 352              	.LVL39:
 353 0024 93860600 		addi	a3,a3,%lo(.LC0)
 354 0028 13062023 		li	a2,562
 355              	.LVL40:
 356 002c 93850500 		addi	a1,a1,%lo(.LC4)
 357 0030 13050500 		addi	a0,a0,%lo(.LC2)
 358 0034 97000000 		call	printf
 358      E7800000 
 359              	.LVL41:
 360              	.L36:
 361              		.loc 1 562 3 discriminator 1
 362              		.loc 1 562 3 discriminator 1
 363              		.loc 1 562 3 discriminator 1
 364 003c 01A0     		j	.L36
 365              	.LVL42:
 366              	.L35:
 367              	.LBB27:
 368              	.LBB28:
 369              		.loc 1 562 3
 370              		.loc 1 562 3
 563:C:/Users/stapi/OneDrive/Desktop/GD32VW553/V1_MQTT_OK/GD32VW55X_Wifi_BLE_SDK/GD32VW55x_RELEASE_V1.0.2/MSDK/lwip/lwip-2.1.2/src/apps/lwiperf\lwiperf.c ****   LWIP_ASSERT("invalid listen pcb", s->server_pcb != NULL);
 371              		.loc 1 563 3
 372              		.loc 1 563 3
 373 003e 5C45     		lw	a5,12(a0)
 374 0040 85E7     		bne	a5,zero,.L37
 375              		.loc 1 563 3
 376              		.loc 1 563 3
 377 0042 B7060000 		lui	a3,%hi(.LC0)
 378 0046 B7050000 		lui	a1,%hi(.LC5)
 379              	.LVL43:
 380 004a 37050000 		lui	a0,%hi(.LC2)
 381 004e 93860600 		addi	a3,a3,%lo(.LC0)
 382 0052 13063023 		li	a2,563
 383              	.LVL44:
 384 0056 93850500 		addi	a1,a1,%lo(.LC5)
 385 005a 13050500 		addi	a0,a0,%lo(.LC2)
 386 005e 97000000 		call	printf
 386      E7800000 
 387              	.LVL45:
 388              	.L38:
 389              		.loc 1 563 3
 390              		.loc 1 563 3
 391              		.loc 1 563 3
 392 0066 01A0     		j	.L38
 393              	.LVL46:
 394              	.L37:
 395              		.loc 1 563 3
 396              		.loc 1 563 3
 564:C:/Users/stapi/OneDrive/Desktop/GD32VW553/V1_MQTT_OK/GD32VW55X_Wifi_BLE_SDK/GD32VW55x_RELEASE_V1.0.2/MSDK/lwip/lwip-2.1.2/src/apps/lwiperf\lwiperf.c ****   LWIP_ASSERT("invalid conn pcb", s->conn_pcb == NULL);
 397              		.loc 1 564 3
 398              		.loc 1 564 3
 399 0068 1C49     		lw	a5,16(a0)
 400 006a 85C7     		beq	a5,zero,.L39
 401              		.loc 1 564 3
 402              		.loc 1 564 3
 403 006c B7060000 		lui	a3,%hi(.LC0)
 404 0070 B7050000 		lui	a1,%hi(.LC6)
 405              	.LVL47:
 406 0074 37050000 		lui	a0,%hi(.LC2)
 407 0078 93860600 		addi	a3,a3,%lo(.LC0)
 408 007c 13064023 		li	a2,564
 409              	.LVL48:
 410 0080 93850500 		addi	a1,a1,%lo(.LC6)
 411 0084 13050500 		addi	a0,a0,%lo(.LC2)
 412 0088 97000000 		call	printf
 412      E7800000 
 413              	.LVL49:
 414              	.L40:
 415              		.loc 1 564 3
 416              		.loc 1 564 3
 417              		.loc 1 564 3
 418 0090 01A0     		j	.L40
 419              	.LVL50:
 420              	.L39:
 565:C:/Users/stapi/OneDrive/Desktop/GD32VW553/V1_MQTT_OK/GD32VW55X_Wifi_BLE_SDK/GD32VW55x_RELEASE_V1.0.2/MSDK/lwip/lwip-2.1.2/src/apps/lwiperf\lwiperf.c ****   if (s->specific_remote) {
 421              		.loc 1 565 6 is_stmt 0
 422 0092 03471504 		lbu	a4,65(a0)
 566:C:/Users/stapi/OneDrive/Desktop/GD32VW553/V1_MQTT_OK/GD32VW55X_Wifi_BLE_SDK/GD32VW55x_RELEASE_V1.0.2/MSDK/lwip/lwip-2.1.2/src/apps/lwiperf\lwiperf.c ****     LWIP_ASSERT("s->base.related_master_state != NULL", s->base.related_master_state != NULL);
 423              		.loc 1 566 5
 424 0096 1C45     		lw	a5,8(a0)
 425 0098 3289     		mv	s2,a2
 564:C:/Users/stapi/OneDrive/Desktop/GD32VW553/V1_MQTT_OK/GD32VW55X_Wifi_BLE_SDK/GD32VW55x_RELEASE_V1.0.2/MSDK/lwip/lwip-2.1.2/src/apps/lwiperf\lwiperf.c ****   LWIP_ASSERT("invalid conn pcb", s->conn_pcb == NULL);
 426              		.loc 1 564 3 is_stmt 1
 564:C:/Users/stapi/OneDrive/Desktop/GD32VW553/V1_MQTT_OK/GD32VW55X_Wifi_BLE_SDK/GD32VW55x_RELEASE_V1.0.2/MSDK/lwip/lwip-2.1.2/src/apps/lwiperf\lwiperf.c ****   LWIP_ASSERT("invalid conn pcb", s->conn_pcb == NULL);
 427              		.loc 1 564 3
 565:C:/Users/stapi/OneDrive/Desktop/GD32VW553/V1_MQTT_OK/GD32VW55X_Wifi_BLE_SDK/GD32VW55x_RELEASE_V1.0.2/MSDK/lwip/lwip-2.1.2/src/apps/lwiperf\lwiperf.c ****   if (s->specific_remote) {
 428              		.loc 1 565 3
 565:C:/Users/stapi/OneDrive/Desktop/GD32VW553/V1_MQTT_OK/GD32VW55X_Wifi_BLE_SDK/GD32VW55x_RELEASE_V1.0.2/MSDK/lwip/lwip-2.1.2/src/apps/lwiperf\lwiperf.c ****   if (s->specific_remote) {
 429              		.loc 1 565 6 is_stmt 0
 430 009a 1DCB     		beq	a4,zero,.L41
 431              		.loc 1 566 5 is_stmt 1
 432              		.loc 1 566 5
 433 009c 85E7     		bne	a5,zero,.L42
 434              		.loc 1 566 5
 435              		.loc 1 566 5
 436 009e B7060000 		lui	a3,%hi(.LC0)
 437 00a2 B7050000 		lui	a1,%hi(.LC7)
 438              	.LVL51:
 439 00a6 37050000 		lui	a0,%hi(.LC2)
 440 00aa 93860600 		addi	a3,a3,%lo(.LC0)
 441 00ae 13066023 		li	a2,566
 442              	.LVL52:
 443 00b2 93850500 		addi	a1,a1,%lo(.LC7)
 444 00b6 13050500 		addi	a0,a0,%lo(.LC2)
 445 00ba 97000000 		call	printf
 445      E7800000 
 446              	.LVL53:
 447              	.L43:
 448              		.loc 1 566 5
 449              		.loc 1 566 5
 450              		.loc 1 566 5
 451 00c2 01A0     		j	.L43
 452              	.LVL54:
 453              	.L42:
 454              		.loc 1 566 5
 455              		.loc 1 566 5
 567:C:/Users/stapi/OneDrive/Desktop/GD32VW553/V1_MQTT_OK/GD32VW55X_Wifi_BLE_SDK/GD32VW55x_RELEASE_V1.0.2/MSDK/lwip/lwip-2.1.2/src/apps/lwiperf\lwiperf.c ****     if (!ip_addr_cmp(&newpcb->remote_ip, &s->remote_addr)) {
 456              		.loc 1 567 5
 457              		.loc 1 567 8 is_stmt 0
 458 00c4 D841     		lw	a4,4(a1)
 459 00c6 7C41     		lw	a5,68(a0)
 460 00c8 6308F702 		beq	a4,a5,.L44
 461              	.LVL55:
 462              	.L55:
 463              	.LBE28:
 464              	.LBE27:
 558:C:/Users/stapi/OneDrive/Desktop/GD32VW553/V1_MQTT_OK/GD32VW55X_Wifi_BLE_SDK/GD32VW55x_RELEASE_V1.0.2/MSDK/lwip/lwip-2.1.2/src/apps/lwiperf\lwiperf.c ****   }
 465              		.loc 1 558 12
 466 00cc 6959     		li	s2,-6
 467 00ce D5A0     		j	.L34
 468              	.LVL56:
 469              	.L41:
 470              	.LBB37:
 471              	.LBB35:
 568:C:/Users/stapi/OneDrive/Desktop/GD32VW553/V1_MQTT_OK/GD32VW55X_Wifi_BLE_SDK/GD32VW55x_RELEASE_V1.0.2/MSDK/lwip/lwip-2.1.2/src/apps/lwiperf\lwiperf.c ****       /* this listener belongs to a client session, and this is not the correct remote */
 569:C:/Users/stapi/OneDrive/Desktop/GD32VW553/V1_MQTT_OK/GD32VW55X_Wifi_BLE_SDK/GD32VW55x_RELEASE_V1.0.2/MSDK/lwip/lwip-2.1.2/src/apps/lwiperf\lwiperf.c ****       return ERR_VAL;
 570:C:/Users/stapi/OneDrive/Desktop/GD32VW553/V1_MQTT_OK/GD32VW55X_Wifi_BLE_SDK/GD32VW55x_RELEASE_V1.0.2/MSDK/lwip/lwip-2.1.2/src/apps/lwiperf\lwiperf.c ****     }
 571:C:/Users/stapi/OneDrive/Desktop/GD32VW553/V1_MQTT_OK/GD32VW55X_Wifi_BLE_SDK/GD32VW55x_RELEASE_V1.0.2/MSDK/lwip/lwip-2.1.2/src/apps/lwiperf\lwiperf.c ****   } else {
 572:C:/Users/stapi/OneDrive/Desktop/GD32VW553/V1_MQTT_OK/GD32VW55X_Wifi_BLE_SDK/GD32VW55x_RELEASE_V1.0.2/MSDK/lwip/lwip-2.1.2/src/apps/lwiperf\lwiperf.c ****     LWIP_ASSERT("s->base.related_master_state == NULL", s->base.related_master_state == NULL);
 472              		.loc 1 572 5 is_stmt 1
 473              		.loc 1 572 5
 474 00d0 85C7     		beq	a5,zero,.L44
 475              		.loc 1 572 5
 476              		.loc 1 572 5
 477 00d2 B7060000 		lui	a3,%hi(.LC0)
 478 00d6 B7050000 		lui	a1,%hi(.LC8)
 479              	.LVL57:
 480 00da 37050000 		lui	a0,%hi(.LC2)
 481 00de 93860600 		addi	a3,a3,%lo(.LC0)
 482 00e2 1306C023 		li	a2,572
 483              	.LVL58:
 484 00e6 93850500 		addi	a1,a1,%lo(.LC8)
 485 00ea 13050500 		addi	a0,a0,%lo(.LC2)
 486 00ee 97000000 		call	printf
 486      E7800000 
 487              	.LVL59:
 488              	.L45:
 489              		.loc 1 572 5
 490              		.loc 1 572 5
 491              		.loc 1 572 5
 492 00f6 01A0     		j	.L45
 493              	.LVL60:
 494              	.L44:
 495              		.loc 1 572 5
 496              		.loc 1 572 5
 573:C:/Users/stapi/OneDrive/Desktop/GD32VW553/V1_MQTT_OK/GD32VW55X_Wifi_BLE_SDK/GD32VW55x_RELEASE_V1.0.2/MSDK/lwip/lwip-2.1.2/src/apps/lwiperf\lwiperf.c ****   }
 574:C:/Users/stapi/OneDrive/Desktop/GD32VW553/V1_MQTT_OK/GD32VW55X_Wifi_BLE_SDK/GD32VW55x_RELEASE_V1.0.2/MSDK/lwip/lwip-2.1.2/src/apps/lwiperf\lwiperf.c **** 
 575:C:/Users/stapi/OneDrive/Desktop/GD32VW553/V1_MQTT_OK/GD32VW55X_Wifi_BLE_SDK/GD32VW55x_RELEASE_V1.0.2/MSDK/lwip/lwip-2.1.2/src/apps/lwiperf\lwiperf.c ****   conn = (lwiperf_state_tcp_t *)LWIPERF_ALLOC(lwiperf_state_tcp_t);
 497              		.loc 1 575 3
 498              		.loc 1 575 33 is_stmt 0
 499 00f8 13058004 		li	a0,72
 500 00fc 97000000 		call	mem_malloc
 500      E7800000 
 501              	.LVL61:
 502 0104 AA84     		mv	s1,a0
 503              	.LVL62:
 576:C:/Users/stapi/OneDrive/Desktop/GD32VW553/V1_MQTT_OK/GD32VW55X_Wifi_BLE_SDK/GD32VW55x_RELEASE_V1.0.2/MSDK/lwip/lwip-2.1.2/src/apps/lwiperf\lwiperf.c ****   if (conn == NULL) {
 504              		.loc 1 576 3 is_stmt 1
 505              		.loc 1 576 6 is_stmt 0
 506 0106 5DCD     		beq	a0,zero,.L56
 577:C:/Users/stapi/OneDrive/Desktop/GD32VW553/V1_MQTT_OK/GD32VW55X_Wifi_BLE_SDK/GD32VW55x_RELEASE_V1.0.2/MSDK/lwip/lwip-2.1.2/src/apps/lwiperf\lwiperf.c ****     return ERR_MEM;
 578:C:/Users/stapi/OneDrive/Desktop/GD32VW553/V1_MQTT_OK/GD32VW55X_Wifi_BLE_SDK/GD32VW55x_RELEASE_V1.0.2/MSDK/lwip/lwip-2.1.2/src/apps/lwiperf\lwiperf.c ****   }
 579:C:/Users/stapi/OneDrive/Desktop/GD32VW553/V1_MQTT_OK/GD32VW55X_Wifi_BLE_SDK/GD32VW55x_RELEASE_V1.0.2/MSDK/lwip/lwip-2.1.2/src/apps/lwiperf\lwiperf.c ****   memset(conn, 0, sizeof(lwiperf_state_tcp_t));
 507              		.loc 1 579 3 is_stmt 1
 508 0108 13068004 		li	a2,72
 509 010c 8145     		li	a1,0
 510 010e 97000000 		call	memset
 510      E7800000 
 511              	.LVL63:
 580:C:/Users/stapi/OneDrive/Desktop/GD32VW553/V1_MQTT_OK/GD32VW55X_Wifi_BLE_SDK/GD32VW55x_RELEASE_V1.0.2/MSDK/lwip/lwip-2.1.2/src/apps/lwiperf\lwiperf.c ****   conn->base.tcp = 1;
 512              		.loc 1 580 3
 581:C:/Users/stapi/OneDrive/Desktop/GD32VW553/V1_MQTT_OK/GD32VW55X_Wifi_BLE_SDK/GD32VW55x_RELEASE_V1.0.2/MSDK/lwip/lwip-2.1.2/src/apps/lwiperf\lwiperf.c ****   conn->base.server = 1;
 513              		.loc 1 581 3
 580:C:/Users/stapi/OneDrive/Desktop/GD32VW553/V1_MQTT_OK/GD32VW55X_Wifi_BLE_SDK/GD32VW55x_RELEASE_V1.0.2/MSDK/lwip/lwip-2.1.2/src/apps/lwiperf\lwiperf.c ****   conn->base.tcp = 1;
 514              		.loc 1 580 18 is_stmt 0
 515 0116 93071010 		li	a5,257
 516 011a 2392F400 		sh	a5,4(s1)
 582:C:/Users/stapi/OneDrive/Desktop/GD32VW553/V1_MQTT_OK/GD32VW55X_Wifi_BLE_SDK/GD32VW55x_RELEASE_V1.0.2/MSDK/lwip/lwip-2.1.2/src/apps/lwiperf\lwiperf.c ****   conn->base.related_master_state = &s->base;
 517              		.loc 1 582 3 is_stmt 1
 583:C:/Users/stapi/OneDrive/Desktop/GD32VW553/V1_MQTT_OK/GD32VW55X_Wifi_BLE_SDK/GD32VW55x_RELEASE_V1.0.2/MSDK/lwip/lwip-2.1.2/src/apps/lwiperf\lwiperf.c ****   conn->conn_pcb = newpcb;
 518              		.loc 1 583 18 is_stmt 0
 519 011e 23A83401 		sw	s3,16(s1)
 582:C:/Users/stapi/OneDrive/Desktop/GD32VW553/V1_MQTT_OK/GD32VW55X_Wifi_BLE_SDK/GD32VW55x_RELEASE_V1.0.2/MSDK/lwip/lwip-2.1.2/src/apps/lwiperf\lwiperf.c ****   conn->base.related_master_state = &s->base;
 520              		.loc 1 582 35
 521 0122 80C4     		sw	s0,8(s1)
 522              		.loc 1 583 3 is_stmt 1
 584:C:/Users/stapi/OneDrive/Desktop/GD32VW553/V1_MQTT_OK/GD32VW55X_Wifi_BLE_SDK/GD32VW55x_RELEASE_V1.0.2/MSDK/lwip/lwip-2.1.2/src/apps/lwiperf\lwiperf.c ****   conn->time_started = sys_now();
 523              		.loc 1 584 3
 524              		.loc 1 584 24 is_stmt 0
 525 0124 97000000 		call	sys_now
 525      E7800000 
 526              	.LVL64:
 585:C:/Users/stapi/OneDrive/Desktop/GD32VW553/V1_MQTT_OK/GD32VW55X_Wifi_BLE_SDK/GD32VW55x_RELEASE_V1.0.2/MSDK/lwip/lwip-2.1.2/src/apps/lwiperf\lwiperf.c ****   conn->report_fn = s->report_fn;
 527              		.loc 1 585 22
 528 012c 1C4C     		lw	a5,24(s0)
 584:C:/Users/stapi/OneDrive/Desktop/GD32VW553/V1_MQTT_OK/GD32VW55X_Wifi_BLE_SDK/GD32VW55x_RELEASE_V1.0.2/MSDK/lwip/lwip-2.1.2/src/apps/lwiperf\lwiperf.c ****   conn->time_started = sys_now();
 529              		.loc 1 584 22
 530 012e C8C8     		sw	a0,20(s1)
 531              		.loc 1 585 3 is_stmt 1
 586:C:/Users/stapi/OneDrive/Desktop/GD32VW553/V1_MQTT_OK/GD32VW55X_Wifi_BLE_SDK/GD32VW55x_RELEASE_V1.0.2/MSDK/lwip/lwip-2.1.2/src/apps/lwiperf\lwiperf.c ****   conn->report_arg = s->report_arg;
 587:C:/Users/stapi/OneDrive/Desktop/GD32VW553/V1_MQTT_OK/GD32VW55X_Wifi_BLE_SDK/GD32VW55x_RELEASE_V1.0.2/MSDK/lwip/lwip-2.1.2/src/apps/lwiperf\lwiperf.c **** 
 588:C:/Users/stapi/OneDrive/Desktop/GD32VW553/V1_MQTT_OK/GD32VW55X_Wifi_BLE_SDK/GD32VW55x_RELEASE_V1.0.2/MSDK/lwip/lwip-2.1.2/src/apps/lwiperf\lwiperf.c ****   /* setup the tcp rx connection */
 589:C:/Users/stapi/OneDrive/Desktop/GD32VW553/V1_MQTT_OK/GD32VW55X_Wifi_BLE_SDK/GD32VW55x_RELEASE_V1.0.2/MSDK/lwip/lwip-2.1.2/src/apps/lwiperf\lwiperf.c ****   tcp_arg(newpcb, conn);
 532              		.loc 1 589 3 is_stmt 0
 533 0130 A685     		mv	a1,s1
 585:C:/Users/stapi/OneDrive/Desktop/GD32VW553/V1_MQTT_OK/GD32VW55X_Wifi_BLE_SDK/GD32VW55x_RELEASE_V1.0.2/MSDK/lwip/lwip-2.1.2/src/apps/lwiperf\lwiperf.c ****   conn->report_fn = s->report_fn;
 534              		.loc 1 585 19
 535 0132 9CCC     		sw	a5,24(s1)
 586:C:/Users/stapi/OneDrive/Desktop/GD32VW553/V1_MQTT_OK/GD32VW55X_Wifi_BLE_SDK/GD32VW55x_RELEASE_V1.0.2/MSDK/lwip/lwip-2.1.2/src/apps/lwiperf\lwiperf.c ****   conn->report_arg = s->report_arg;
 536              		.loc 1 586 3 is_stmt 1
 586:C:/Users/stapi/OneDrive/Desktop/GD32VW553/V1_MQTT_OK/GD32VW55X_Wifi_BLE_SDK/GD32VW55x_RELEASE_V1.0.2/MSDK/lwip/lwip-2.1.2/src/apps/lwiperf\lwiperf.c ****   conn->report_arg = s->report_arg;
 537              		.loc 1 586 23 is_stmt 0
 538 0134 5C4C     		lw	a5,28(s0)
 539              		.loc 1 589 3
 540 0136 4E85     		mv	a0,s3
 586:C:/Users/stapi/OneDrive/Desktop/GD32VW553/V1_MQTT_OK/GD32VW55X_Wifi_BLE_SDK/GD32VW55x_RELEASE_V1.0.2/MSDK/lwip/lwip-2.1.2/src/apps/lwiperf\lwiperf.c ****   conn->report_arg = s->report_arg;
 541              		.loc 1 586 20
 542 0138 DCCC     		sw	a5,28(s1)
 543              		.loc 1 589 3 is_stmt 1
 544 013a 97000000 		call	tcp_arg
 544      E7800000 
 545              	.LVL65:
 590:C:/Users/stapi/OneDrive/Desktop/GD32VW553/V1_MQTT_OK/GD32VW55X_Wifi_BLE_SDK/GD32VW55x_RELEASE_V1.0.2/MSDK/lwip/lwip-2.1.2/src/apps/lwiperf\lwiperf.c ****   tcp_recv(newpcb, lwiperf_tcp_recv);
 546              		.loc 1 590 3
 547 0142 B7050000 		lui	a1,%hi(lwiperf_tcp_recv)
 548 0146 4E85     		mv	a0,s3
 549 0148 93850500 		addi	a1,a1,%lo(lwiperf_tcp_recv)
 550 014c 97000000 		call	tcp_recv
 550      E7800000 
 551              	.LVL66:
 591:C:/Users/stapi/OneDrive/Desktop/GD32VW553/V1_MQTT_OK/GD32VW55X_Wifi_BLE_SDK/GD32VW55x_RELEASE_V1.0.2/MSDK/lwip/lwip-2.1.2/src/apps/lwiperf\lwiperf.c ****   tcp_poll(newpcb, lwiperf_tcp_poll, 2U);
 552              		.loc 1 591 3
 553 0154 B7050000 		lui	a1,%hi(lwiperf_tcp_poll)
 554 0158 4E85     		mv	a0,s3
 555 015a 0946     		li	a2,2
 556 015c 93850500 		addi	a1,a1,%lo(lwiperf_tcp_poll)
 557 0160 97000000 		call	tcp_poll
 557      E7800000 
 558              	.LVL67:
 592:C:/Users/stapi/OneDrive/Desktop/GD32VW553/V1_MQTT_OK/GD32VW55X_Wifi_BLE_SDK/GD32VW55x_RELEASE_V1.0.2/MSDK/lwip/lwip-2.1.2/src/apps/lwiperf\lwiperf.c ****   tcp_err(conn->conn_pcb, lwiperf_tcp_err);
 559              		.loc 1 592 3
 560 0168 8848     		lw	a0,16(s1)
 561 016a B7050000 		lui	a1,%hi(lwiperf_tcp_err)
 562 016e 93850500 		addi	a1,a1,%lo(lwiperf_tcp_err)
 563 0172 97000000 		call	tcp_err
 563      E7800000 
 564              	.LVL68:
 593:C:/Users/stapi/OneDrive/Desktop/GD32VW553/V1_MQTT_OK/GD32VW55X_Wifi_BLE_SDK/GD32VW55x_RELEASE_V1.0.2/MSDK/lwip/lwip-2.1.2/src/apps/lwiperf\lwiperf.c **** 
 594:C:/Users/stapi/OneDrive/Desktop/GD32VW553/V1_MQTT_OK/GD32VW55X_Wifi_BLE_SDK/GD32VW55x_RELEASE_V1.0.2/MSDK/lwip/lwip-2.1.2/src/apps/lwiperf\lwiperf.c ****   if (s->specific_remote) {
 565              		.loc 1 594 3
 566              		.loc 1 594 6 is_stmt 0
 567 017a 83471404 		lbu	a5,65(s0)
 568 017e B7090000 		lui	s3,%hi(.LANCHOR0)
 569              	.LVL69:
 570 0182 93890900 		addi	s3,s3,%lo(.LANCHOR0)
 571 0186 8DC3     		beq	a5,zero,.L47
 595:C:/Users/stapi/OneDrive/Desktop/GD32VW553/V1_MQTT_OK/GD32VW55X_Wifi_BLE_SDK/GD32VW55x_RELEASE_V1.0.2/MSDK/lwip/lwip-2.1.2/src/apps/lwiperf\lwiperf.c ****     /* this listener belongs to a client, so make the client the master of the newly created connec
 596:C:/Users/stapi/OneDrive/Desktop/GD32VW553/V1_MQTT_OK/GD32VW55X_Wifi_BLE_SDK/GD32VW55x_RELEASE_V1.0.2/MSDK/lwip/lwip-2.1.2/src/apps/lwiperf\lwiperf.c ****     conn->base.related_master_state = s->base.related_master_state;
 572              		.loc 1 596 5 is_stmt 1
 573              		.loc 1 596 46 is_stmt 0
 574 0188 1844     		lw	a4,8(s0)
 575              		.loc 1 596 37
 576 018a 98C4     		sw	a4,8(s1)
 597:C:/Users/stapi/OneDrive/Desktop/GD32VW553/V1_MQTT_OK/GD32VW55X_Wifi_BLE_SDK/GD32VW55x_RELEASE_V1.0.2/MSDK/lwip/lwip-2.1.2/src/apps/lwiperf\lwiperf.c ****     /* if dual mode or (tradeoff mode AND client is done): close the listener */
 598:C:/Users/stapi/OneDrive/Desktop/GD32VW553/V1_MQTT_OK/GD32VW55X_Wifi_BLE_SDK/GD32VW55x_RELEASE_V1.0.2/MSDK/lwip/lwip-2.1.2/src/apps/lwiperf\lwiperf.c ****     if (!s->client_tradeoff_mode || !lwiperf_list_find(s->base.related_master_state)) {
 577              		.loc 1 598 5 is_stmt 1
 578              		.loc 1 598 8 is_stmt 0
 579 018c 83472402 		lbu	a5,34(s0)
 580 0190 81C7     		beq	a5,zero,.L48
 581              	.LVL70:
 582              	.LBB29:
 583              	.LBB30:
 180:C:/Users/stapi/OneDrive/Desktop/GD32VW553/V1_MQTT_OK/GD32VW55X_Wifi_BLE_SDK/GD32VW55x_RELEASE_V1.0.2/MSDK/lwip/lwip-2.1.2/src/apps/lwiperf\lwiperf.c ****   for (iter = lwiperf_all_connections; iter != NULL; iter = iter->next) {
 584              		.loc 1 180 3 is_stmt 1
 181:C:/Users/stapi/OneDrive/Desktop/GD32VW553/V1_MQTT_OK/GD32VW55X_Wifi_BLE_SDK/GD32VW55x_RELEASE_V1.0.2/MSDK/lwip/lwip-2.1.2/src/apps/lwiperf\lwiperf.c ****     if (iter == item) {
 585              		.loc 1 181 3
 181:C:/Users/stapi/OneDrive/Desktop/GD32VW553/V1_MQTT_OK/GD32VW55X_Wifi_BLE_SDK/GD32VW55x_RELEASE_V1.0.2/MSDK/lwip/lwip-2.1.2/src/apps/lwiperf\lwiperf.c ****     if (iter == item) {
 586              		.loc 1 181 13 is_stmt 0
 587 0192 83A70900 		lw	a5,0(s3)
 588              	.LVL71:
 589              	.L49:
 181:C:/Users/stapi/OneDrive/Desktop/GD32VW553/V1_MQTT_OK/GD32VW55X_Wifi_BLE_SDK/GD32VW55x_RELEASE_V1.0.2/MSDK/lwip/lwip-2.1.2/src/apps/lwiperf\lwiperf.c ****     if (iter == item) {
 590              		.loc 1 181 40 is_stmt 1
 181:C:/Users/stapi/OneDrive/Desktop/GD32VW553/V1_MQTT_OK/GD32VW55X_Wifi_BLE_SDK/GD32VW55x_RELEASE_V1.0.2/MSDK/lwip/lwip-2.1.2/src/apps/lwiperf\lwiperf.c ****     if (iter == item) {
 591              		.loc 1 181 3 is_stmt 0
 592 0196 9DE3     		bne	a5,zero,.L51
 593              	.LVL72:
 594              	.L48:
 595              	.LBE30:
 596              	.LBE29:
 599:C:/Users/stapi/OneDrive/Desktop/GD32VW553/V1_MQTT_OK/GD32VW55X_Wifi_BLE_SDK/GD32VW55x_RELEASE_V1.0.2/MSDK/lwip/lwip-2.1.2/src/apps/lwiperf\lwiperf.c ****       /* prevent report when closing: this is expected */
 600:C:/Users/stapi/OneDrive/Desktop/GD32VW553/V1_MQTT_OK/GD32VW55X_Wifi_BLE_SDK/GD32VW55x_RELEASE_V1.0.2/MSDK/lwip/lwip-2.1.2/src/apps/lwiperf\lwiperf.c ****       s->report_fn = NULL;
 597              		.loc 1 600 7 is_stmt 1
 598              		.loc 1 600 20 is_stmt 0
 599 0198 232C0400 		sw	zero,24(s0)
 601:C:/Users/stapi/OneDrive/Desktop/GD32VW553/V1_MQTT_OK/GD32VW55X_Wifi_BLE_SDK/GD32VW55x_RELEASE_V1.0.2/MSDK/lwip/lwip-2.1.2/src/apps/lwiperf\lwiperf.c ****       lwiperf_tcp_close(s, LWIPERF_TCP_ABORTED_LOCAL);
 600              		.loc 1 601 7 is_stmt 1
 601 019c 8945     		li	a1,2
 602 019e 2285     		mv	a0,s0
 603 01a0 97000000 		call	lwiperf_tcp_close
 603      E7800000 
 604              	.LVL73:
 605              	.L47:
 602:C:/Users/stapi/OneDrive/Desktop/GD32VW553/V1_MQTT_OK/GD32VW55X_Wifi_BLE_SDK/GD32VW55x_RELEASE_V1.0.2/MSDK/lwip/lwip-2.1.2/src/apps/lwiperf\lwiperf.c ****     }
 603:C:/Users/stapi/OneDrive/Desktop/GD32VW553/V1_MQTT_OK/GD32VW55X_Wifi_BLE_SDK/GD32VW55x_RELEASE_V1.0.2/MSDK/lwip/lwip-2.1.2/src/apps/lwiperf\lwiperf.c ****   }
 604:C:/Users/stapi/OneDrive/Desktop/GD32VW553/V1_MQTT_OK/GD32VW55X_Wifi_BLE_SDK/GD32VW55x_RELEASE_V1.0.2/MSDK/lwip/lwip-2.1.2/src/apps/lwiperf\lwiperf.c ****   lwiperf_list_add(&conn->base);
 606              		.loc 1 604 3
 607              	.LBB32:
 608              	.LBB33:
 151:C:/Users/stapi/OneDrive/Desktop/GD32VW553/V1_MQTT_OK/GD32VW55X_Wifi_BLE_SDK/GD32VW55x_RELEASE_V1.0.2/MSDK/lwip/lwip-2.1.2/src/apps/lwiperf\lwiperf.c ****   lwiperf_all_connections = item;
 609              		.loc 1 151 3
 151:C:/Users/stapi/OneDrive/Desktop/GD32VW553/V1_MQTT_OK/GD32VW55X_Wifi_BLE_SDK/GD32VW55x_RELEASE_V1.0.2/MSDK/lwip/lwip-2.1.2/src/apps/lwiperf\lwiperf.c ****   lwiperf_all_connections = item;
 610              		.loc 1 151 14 is_stmt 0
 611 01a8 83A70900 		lw	a5,0(s3)
 152:C:/Users/stapi/OneDrive/Desktop/GD32VW553/V1_MQTT_OK/GD32VW55X_Wifi_BLE_SDK/GD32VW55x_RELEASE_V1.0.2/MSDK/lwip/lwip-2.1.2/src/apps/lwiperf\lwiperf.c **** }
 612              		.loc 1 152 27
 613 01ac 23A09900 		sw	s1,0(s3)
 151:C:/Users/stapi/OneDrive/Desktop/GD32VW553/V1_MQTT_OK/GD32VW55X_Wifi_BLE_SDK/GD32VW55x_RELEASE_V1.0.2/MSDK/lwip/lwip-2.1.2/src/apps/lwiperf\lwiperf.c ****   lwiperf_all_connections = item;
 614              		.loc 1 151 14
 615 01b0 9CC0     		sw	a5,0(s1)
 152:C:/Users/stapi/OneDrive/Desktop/GD32VW553/V1_MQTT_OK/GD32VW55X_Wifi_BLE_SDK/GD32VW55x_RELEASE_V1.0.2/MSDK/lwip/lwip-2.1.2/src/apps/lwiperf\lwiperf.c **** }
 616              		.loc 1 152 3 is_stmt 1
 617              	.LVL74:
 618              	.L34:
 619              	.LBE33:
 620              	.LBE32:
 621              	.LBE35:
 622              	.LBE37:
 605:C:/Users/stapi/OneDrive/Desktop/GD32VW553/V1_MQTT_OK/GD32VW55X_Wifi_BLE_SDK/GD32VW55x_RELEASE_V1.0.2/MSDK/lwip/lwip-2.1.2/src/apps/lwiperf\lwiperf.c ****   return ERR_OK;
 606:C:/Users/stapi/OneDrive/Desktop/GD32VW553/V1_MQTT_OK/GD32VW55X_Wifi_BLE_SDK/GD32VW55x_RELEASE_V1.0.2/MSDK/lwip/lwip-2.1.2/src/apps/lwiperf\lwiperf.c **** }
 623              		.loc 1 606 1 is_stmt 0
 624 01b2 4A85     		mv	a0,s2
 625 01b4 17030000 		tail	__riscv_restore_4
 625      67000300 
 626              		.cfi_remember_state
 627              		.cfi_restore 19
 628              		.cfi_restore 18
 629              		.cfi_restore 9
 630              		.cfi_restore 8
 631              		.cfi_restore 1
 632              		.cfi_def_cfa_offset 0
 633              	.LVL75:
 634              	.L51:
 635              		.cfi_restore_state
 636              	.LBB38:
 637              	.LBB36:
 638              	.LBB34:
 639              	.LBB31:
 182:C:/Users/stapi/OneDrive/Desktop/GD32VW553/V1_MQTT_OK/GD32VW55X_Wifi_BLE_SDK/GD32VW55x_RELEASE_V1.0.2/MSDK/lwip/lwip-2.1.2/src/apps/lwiperf\lwiperf.c ****       return item;
 640              		.loc 1 182 5 is_stmt 1
 182:C:/Users/stapi/OneDrive/Desktop/GD32VW553/V1_MQTT_OK/GD32VW55X_Wifi_BLE_SDK/GD32VW55x_RELEASE_V1.0.2/MSDK/lwip/lwip-2.1.2/src/apps/lwiperf\lwiperf.c ****       return item;
 641              		.loc 1 182 8 is_stmt 0
 642 01bc E306F7FE 		beq	a4,a5,.L47
 181:C:/Users/stapi/OneDrive/Desktop/GD32VW553/V1_MQTT_OK/GD32VW55X_Wifi_BLE_SDK/GD32VW55x_RELEASE_V1.0.2/MSDK/lwip/lwip-2.1.2/src/apps/lwiperf\lwiperf.c ****     if (iter == item) {
 643              		.loc 1 181 54 is_stmt 1
 181:C:/Users/stapi/OneDrive/Desktop/GD32VW553/V1_MQTT_OK/GD32VW55X_Wifi_BLE_SDK/GD32VW55x_RELEASE_V1.0.2/MSDK/lwip/lwip-2.1.2/src/apps/lwiperf\lwiperf.c ****     if (iter == item) {
 644              		.loc 1 181 59 is_stmt 0
 645 01c0 9C43     		lw	a5,0(a5)
 646              	.LVL76:
 647 01c2 D1BF     		j	.L49
 648              	.LVL77:
 649              	.L56:
 650              	.LBE31:
 651              	.LBE34:
 577:C:/Users/stapi/OneDrive/Desktop/GD32VW553/V1_MQTT_OK/GD32VW55X_Wifi_BLE_SDK/GD32VW55x_RELEASE_V1.0.2/MSDK/lwip/lwip-2.1.2/src/apps/lwiperf\lwiperf.c ****   }
 652              		.loc 1 577 12
 653 01c4 7D59     		li	s2,-1
 654 01c6 F5B7     		j	.L34
 655              	.LBE36:
 656              	.LBE38:
 657              		.cfi_endproc
 658              	.LFE17:
 660              		.section	.rodata.lwiperf_tcp_client_send_more.str1.4,"aMS",@progbits,1
 661              		.align	2
 662              	.LC9:
 663 0000 636F6E6E 		.string	"conn invalid"
 663      20696E76 
 663      616C6964 
 663      00
 664              		.section	.text.lwiperf_tcp_client_send_more,"ax",@progbits
 665              		.align	1
 667              	lwiperf_tcp_client_send_more:
 668              	.LFB9:
 239:C:/Users/stapi/OneDrive/Desktop/GD32VW553/V1_MQTT_OK/GD32VW55X_Wifi_BLE_SDK/GD32VW55x_RELEASE_V1.0.2/MSDK/lwip/lwip-2.1.2/src/apps/lwiperf\lwiperf.c ****   int send_more;
 669              		.loc 1 239 1 is_stmt 1
 670              		.cfi_startproc
 671              	.LVL78:
 672 0000 17030000 		call	t0,__riscv_save_12
 672      E7020300 
 673              		.cfi_offset 27, -52
 674              		.cfi_offset 26, -48
 675              		.cfi_offset 25, -44
 676              		.cfi_offset 24, -40
 677              		.cfi_offset 23, -36
 678              		.cfi_offset 22, -32
 679              		.cfi_offset 21, -28
 680              		.cfi_offset 20, -24
 681              		.cfi_offset 19, -20
 682              		.cfi_offset 18, -16
 683              		.cfi_offset 9, -12
 684              		.cfi_offset 8, -8
 685              		.cfi_offset 1, -4
 686              		.cfi_def_cfa_offset 64
 240:C:/Users/stapi/OneDrive/Desktop/GD32VW553/V1_MQTT_OK/GD32VW55X_Wifi_BLE_SDK/GD32VW55x_RELEASE_V1.0.2/MSDK/lwip/lwip-2.1.2/src/apps/lwiperf\lwiperf.c ****   err_t err;
 687              		.loc 1 240 3
 241:C:/Users/stapi/OneDrive/Desktop/GD32VW553/V1_MQTT_OK/GD32VW55X_Wifi_BLE_SDK/GD32VW55x_RELEASE_V1.0.2/MSDK/lwip/lwip-2.1.2/src/apps/lwiperf\lwiperf.c ****   u16_t txlen;
 688              		.loc 1 241 3
 242:C:/Users/stapi/OneDrive/Desktop/GD32VW553/V1_MQTT_OK/GD32VW55X_Wifi_BLE_SDK/GD32VW55x_RELEASE_V1.0.2/MSDK/lwip/lwip-2.1.2/src/apps/lwiperf\lwiperf.c ****   u16_t txlen_max;
 689              		.loc 1 242 3
 243:C:/Users/stapi/OneDrive/Desktop/GD32VW553/V1_MQTT_OK/GD32VW55X_Wifi_BLE_SDK/GD32VW55x_RELEASE_V1.0.2/MSDK/lwip/lwip-2.1.2/src/apps/lwiperf\lwiperf.c ****   void *txptr;
 690              		.loc 1 243 3
 244:C:/Users/stapi/OneDrive/Desktop/GD32VW553/V1_MQTT_OK/GD32VW55X_Wifi_BLE_SDK/GD32VW55x_RELEASE_V1.0.2/MSDK/lwip/lwip-2.1.2/src/apps/lwiperf\lwiperf.c ****   u8_t apiflags;
 691              		.loc 1 244 3
 245:C:/Users/stapi/OneDrive/Desktop/GD32VW553/V1_MQTT_OK/GD32VW55X_Wifi_BLE_SDK/GD32VW55x_RELEASE_V1.0.2/MSDK/lwip/lwip-2.1.2/src/apps/lwiperf\lwiperf.c **** 
 692              		.loc 1 245 3
 247:C:/Users/stapi/OneDrive/Desktop/GD32VW553/V1_MQTT_OK/GD32VW55X_Wifi_BLE_SDK/GD32VW55x_RELEASE_V1.0.2/MSDK/lwip/lwip-2.1.2/src/apps/lwiperf\lwiperf.c **** 
 693              		.loc 1 247 3
 247:C:/Users/stapi/OneDrive/Desktop/GD32VW553/V1_MQTT_OK/GD32VW55X_Wifi_BLE_SDK/GD32VW55x_RELEASE_V1.0.2/MSDK/lwip/lwip-2.1.2/src/apps/lwiperf\lwiperf.c **** 
 694              		.loc 1 247 3
 695 0008 3DC1     		beq	a0,zero,.L65
 247:C:/Users/stapi/OneDrive/Desktop/GD32VW553/V1_MQTT_OK/GD32VW55X_Wifi_BLE_SDK/GD32VW55x_RELEASE_V1.0.2/MSDK/lwip/lwip-2.1.2/src/apps/lwiperf\lwiperf.c **** 
 696              		.loc 1 247 3 is_stmt 0 discriminator 2
 697 000a 83474500 		lbu	a5,4(a0)
 698 000e 2A84     		mv	s0,a0
 699 0010 B9CF     		beq	a5,zero,.L65
 247:C:/Users/stapi/OneDrive/Desktop/GD32VW553/V1_MQTT_OK/GD32VW55X_Wifi_BLE_SDK/GD32VW55x_RELEASE_V1.0.2/MSDK/lwip/lwip-2.1.2/src/apps/lwiperf\lwiperf.c **** 
 700              		.loc 1 247 3 discriminator 4
 701 0012 83475500 		lbu	a5,5(a0)
 702 0016 A1EF     		bne	a5,zero,.L65
 703              	.LBB43:
 704              	.LBB44:
 287:C:/Users/stapi/OneDrive/Desktop/GD32VW553/V1_MQTT_OK/GD32VW55X_Wifi_BLE_SDK/GD32VW55x_RELEASE_V1.0.2/MSDK/lwip/lwip-2.1.2/src/apps/lwiperf\lwiperf.c ****       txlen_max = TCP_MSS;
 705              		.loc 1 287 13
 706 0018 37090000 		lui	s2,%hi(.LANCHOR1)
 707              	.LBB45:
 256:C:/Users/stapi/OneDrive/Desktop/GD32VW553/V1_MQTT_OK/GD32VW55X_Wifi_BLE_SDK/GD32VW55x_RELEASE_V1.0.2/MSDK/lwip/lwip-2.1.2/src/apps/lwiperf\lwiperf.c ****       if (diff_ms >= time_ms) {
 708              		.loc 1 256 13
 709 001c 595A     		li	s4,-10
 710              	.LBE45:
 273:C:/Users/stapi/OneDrive/Desktop/GD32VW553/V1_MQTT_OK/GD32VW55X_Wifi_BLE_SDK/GD32VW55x_RELEASE_V1.0.2/MSDK/lwip/lwip-2.1.2/src/apps/lwiperf\lwiperf.c ****       /* transmit the settings a first time */
 711              		.loc 1 273 8
 712 001e DD4A     		li	s5,23
 278:C:/Users/stapi/OneDrive/Desktop/GD32VW553/V1_MQTT_OK/GD32VW55X_Wifi_BLE_SDK/GD32VW55x_RELEASE_V1.0.2/MSDK/lwip/lwip-2.1.2/src/apps/lwiperf\lwiperf.c ****       /* transmit the settings a second time */
 713              		.loc 1 278 15
 714 0020 130BF002 		li	s6,47
 287:C:/Users/stapi/OneDrive/Desktop/GD32VW553/V1_MQTT_OK/GD32VW55X_Wifi_BLE_SDK/GD32VW55x_RELEASE_V1.0.2/MSDK/lwip/lwip-2.1.2/src/apps/lwiperf\lwiperf.c ****       txlen_max = TCP_MSS;
 715              		.loc 1 287 13
 716 0024 13090900 		addi	s2,s2,%lo(.LANCHOR1)
 280:C:/Users/stapi/OneDrive/Desktop/GD32VW553/V1_MQTT_OK/GD32VW55X_Wifi_BLE_SDK/GD32VW55x_RELEASE_V1.0.2/MSDK/lwip/lwip-2.1.2/src/apps/lwiperf\lwiperf.c ****       txlen_max = (u16_t)(48 - conn->bytes_transferred);
 717              		.loc 1 280 25
 718 0028 93098502 		addi	s3,a0,40
 301:C:/Users/stapi/OneDrive/Desktop/GD32VW553/V1_MQTT_OK/GD32VW55X_Wifi_BLE_SDK/GD32VW55x_RELEASE_V1.0.2/MSDK/lwip/lwip-2.1.2/src/apps/lwiperf\lwiperf.c **** 
 719              		.loc 1 301 31
 720 002c 930BA02D 		li	s7,730
 721              	.LVL79:
 722              	.L66:
 247:C:/Users/stapi/OneDrive/Desktop/GD32VW553/V1_MQTT_OK/GD32VW55X_Wifi_BLE_SDK/GD32VW55x_RELEASE_V1.0.2/MSDK/lwip/lwip-2.1.2/src/apps/lwiperf\lwiperf.c **** 
 723              		.loc 1 247 3 is_stmt 1
 247:C:/Users/stapi/OneDrive/Desktop/GD32VW553/V1_MQTT_OK/GD32VW55X_Wifi_BLE_SDK/GD32VW55x_RELEASE_V1.0.2/MSDK/lwip/lwip-2.1.2/src/apps/lwiperf\lwiperf.c **** 
 724              		.loc 1 247 3
 249:C:/Users/stapi/OneDrive/Desktop/GD32VW553/V1_MQTT_OK/GD32VW55X_Wifi_BLE_SDK/GD32VW55x_RELEASE_V1.0.2/MSDK/lwip/lwip-2.1.2/src/apps/lwiperf\lwiperf.c ****     send_more = 0;
 725              		.loc 1 249 3
 250:C:/Users/stapi/OneDrive/Desktop/GD32VW553/V1_MQTT_OK/GD32VW55X_Wifi_BLE_SDK/GD32VW55x_RELEASE_V1.0.2/MSDK/lwip/lwip-2.1.2/src/apps/lwiperf\lwiperf.c ****     if (conn->settings.amount & PP_HTONL(0x80000000)) {
 726              		.loc 1 250 5
 251:C:/Users/stapi/OneDrive/Desktop/GD32VW553/V1_MQTT_OK/GD32VW55X_Wifi_BLE_SDK/GD32VW55x_RELEASE_V1.0.2/MSDK/lwip/lwip-2.1.2/src/apps/lwiperf\lwiperf.c ****       /* this session is time-limited */
 727              		.loc 1 251 5
 251:C:/Users/stapi/OneDrive/Desktop/GD32VW553/V1_MQTT_OK/GD32VW55X_Wifi_BLE_SDK/GD32VW55x_RELEASE_V1.0.2/MSDK/lwip/lwip-2.1.2/src/apps/lwiperf\lwiperf.c ****       /* this session is time-limited */
 728              		.loc 1 251 23 is_stmt 0
 729 0030 485C     		lw	a0,60(s0)
 251:C:/Users/stapi/OneDrive/Desktop/GD32VW553/V1_MQTT_OK/GD32VW55X_Wifi_BLE_SDK/GD32VW55x_RELEASE_V1.0.2/MSDK/lwip/lwip-2.1.2/src/apps/lwiperf\lwiperf.c ****       /* this session is time-limited */
 730              		.loc 1 251 31
 731 0032 93770508 		andi	a5,a0,128
 251:C:/Users/stapi/OneDrive/Desktop/GD32VW553/V1_MQTT_OK/GD32VW55X_Wifi_BLE_SDK/GD32VW55x_RELEASE_V1.0.2/MSDK/lwip/lwip-2.1.2/src/apps/lwiperf\lwiperf.c ****       /* this session is time-limited */
 732              		.loc 1 251 8
 733 0036 B9CF     		beq	a5,zero,.L68
 734              	.LBB46:
 253:C:/Users/stapi/OneDrive/Desktop/GD32VW553/V1_MQTT_OK/GD32VW55X_Wifi_BLE_SDK/GD32VW55x_RELEASE_V1.0.2/MSDK/lwip/lwip-2.1.2/src/apps/lwiperf\lwiperf.c ****       u32_t diff_ms = now - conn->time_started;
 735              		.loc 1 253 7 is_stmt 1
 253:C:/Users/stapi/OneDrive/Desktop/GD32VW553/V1_MQTT_OK/GD32VW55X_Wifi_BLE_SDK/GD32VW55x_RELEASE_V1.0.2/MSDK/lwip/lwip-2.1.2/src/apps/lwiperf\lwiperf.c ****       u32_t diff_ms = now - conn->time_started;
 736              		.loc 1 253 19 is_stmt 0
 737 0038 97000000 		call	sys_now
 737      E7800000 
 738              	.LVL80:
 254:C:/Users/stapi/OneDrive/Desktop/GD32VW553/V1_MQTT_OK/GD32VW55X_Wifi_BLE_SDK/GD32VW55x_RELEASE_V1.0.2/MSDK/lwip/lwip-2.1.2/src/apps/lwiperf\lwiperf.c ****       u32_t time = (u32_t) - (s32_t)lwip_htonl(conn->settings.amount);
 739              		.loc 1 254 7 is_stmt 1
 254:C:/Users/stapi/OneDrive/Desktop/GD32VW553/V1_MQTT_OK/GD32VW55X_Wifi_BLE_SDK/GD32VW55x_RELEASE_V1.0.2/MSDK/lwip/lwip-2.1.2/src/apps/lwiperf\lwiperf.c ****       u32_t time = (u32_t) - (s32_t)lwip_htonl(conn->settings.amount);
 740              		.loc 1 254 13 is_stmt 0
 741 0040 4448     		lw	s1,20(s0)
 742 0042 B3049540 		sub	s1,a0,s1
 743              	.LVL81:
 255:C:/Users/stapi/OneDrive/Desktop/GD32VW553/V1_MQTT_OK/GD32VW55X_Wifi_BLE_SDK/GD32VW55x_RELEASE_V1.0.2/MSDK/lwip/lwip-2.1.2/src/apps/lwiperf\lwiperf.c ****       u32_t time_ms = time * 10;
 744              		.loc 1 255 7 is_stmt 1
 255:C:/Users/stapi/OneDrive/Desktop/GD32VW553/V1_MQTT_OK/GD32VW55X_Wifi_BLE_SDK/GD32VW55x_RELEASE_V1.0.2/MSDK/lwip/lwip-2.1.2/src/apps/lwiperf\lwiperf.c ****       u32_t time_ms = time * 10;
 745              		.loc 1 255 37 is_stmt 0
 746 0046 485C     		lw	a0,60(s0)
 747              	.LVL82:
 748 0048 97000000 		call	lwip_htonl
 748      E7800000 
 749              	.LVL83:
 256:C:/Users/stapi/OneDrive/Desktop/GD32VW553/V1_MQTT_OK/GD32VW55X_Wifi_BLE_SDK/GD32VW55x_RELEASE_V1.0.2/MSDK/lwip/lwip-2.1.2/src/apps/lwiperf\lwiperf.c ****       if (diff_ms >= time_ms) {
 750              		.loc 1 256 7 is_stmt 1
 257:C:/Users/stapi/OneDrive/Desktop/GD32VW553/V1_MQTT_OK/GD32VW55X_Wifi_BLE_SDK/GD32VW55x_RELEASE_V1.0.2/MSDK/lwip/lwip-2.1.2/src/apps/lwiperf\lwiperf.c ****         /* time specified by the client is over -> close the connection */
 751              		.loc 1 257 7
 256:C:/Users/stapi/OneDrive/Desktop/GD32VW553/V1_MQTT_OK/GD32VW55X_Wifi_BLE_SDK/GD32VW55x_RELEASE_V1.0.2/MSDK/lwip/lwip-2.1.2/src/apps/lwiperf\lwiperf.c ****       if (diff_ms >= time_ms) {
 752              		.loc 1 256 13 is_stmt 0
 753 0050 33054503 		mul	a0,a0,s4
 754              	.LVL84:
 257:C:/Users/stapi/OneDrive/Desktop/GD32VW553/V1_MQTT_OK/GD32VW55X_Wifi_BLE_SDK/GD32VW55x_RELEASE_V1.0.2/MSDK/lwip/lwip-2.1.2/src/apps/lwiperf\lwiperf.c ****         /* time specified by the client is over -> close the connection */
 755              		.loc 1 257 10
 756 0054 63E7A404 		bltu	s1,a0,.L69
 757              	.LVL85:
 758              	.L71:
 259:C:/Users/stapi/OneDrive/Desktop/GD32VW553/V1_MQTT_OK/GD32VW55X_Wifi_BLE_SDK/GD32VW55x_RELEASE_V1.0.2/MSDK/lwip/lwip-2.1.2/src/apps/lwiperf\lwiperf.c ****         return ERR_OK;
 759              		.loc 1 259 9 is_stmt 1
 760 0058 8545     		li	a1,1
 761 005a 2285     		mv	a0,s0
 762 005c 97000000 		call	lwiperf_tcp_close
 762      E7800000 
 763              	.LVL86:
 260:C:/Users/stapi/OneDrive/Desktop/GD32VW553/V1_MQTT_OK/GD32VW55X_Wifi_BLE_SDK/GD32VW55x_RELEASE_V1.0.2/MSDK/lwip/lwip-2.1.2/src/apps/lwiperf\lwiperf.c ****       }
 764              		.loc 1 260 9
 765              	.L89:
 766              	.LBE46:
 767              	.LBE44:
 768              	.LBE43:
 312:C:/Users/stapi/OneDrive/Desktop/GD32VW553/V1_MQTT_OK/GD32VW55X_Wifi_BLE_SDK/GD32VW55x_RELEASE_V1.0.2/MSDK/lwip/lwip-2.1.2/src/apps/lwiperf\lwiperf.c **** 
 769              		.loc 1 312 1 is_stmt 0
 770 0064 0145     		li	a0,0
 771 0066 17030000 		tail	__riscv_restore_12
 771      67000300 
 772              		.cfi_remember_state
 773              		.cfi_restore 27
 774              		.cfi_restore 26
 775              		.cfi_restore 25
 776              		.cfi_restore 24
 777              		.cfi_restore 23
 778              		.cfi_restore 22
 779              		.cfi_restore 21
 780              		.cfi_restore 20
 781              		.cfi_restore 19
 782              		.cfi_restore 18
 783              		.cfi_restore 9
 784              		.cfi_restore 8
 785              		.cfi_restore 1
 786              		.cfi_def_cfa_offset 0
 787              	.LVL87:
 788              	.L65:
 789              		.cfi_restore_state
 247:C:/Users/stapi/OneDrive/Desktop/GD32VW553/V1_MQTT_OK/GD32VW55X_Wifi_BLE_SDK/GD32VW55x_RELEASE_V1.0.2/MSDK/lwip/lwip-2.1.2/src/apps/lwiperf\lwiperf.c **** 
 790              		.loc 1 247 3 is_stmt 1 discriminator 5
 247:C:/Users/stapi/OneDrive/Desktop/GD32VW553/V1_MQTT_OK/GD32VW55X_Wifi_BLE_SDK/GD32VW55x_RELEASE_V1.0.2/MSDK/lwip/lwip-2.1.2/src/apps/lwiperf\lwiperf.c **** 
 791              		.loc 1 247 3 discriminator 5
 792 006e B7060000 		lui	a3,%hi(.LC0)
 793 0072 B7050000 		lui	a1,%hi(.LC9)
 794 0076 37050000 		lui	a0,%hi(.LC2)
 795              	.LVL88:
 796 007a 93860600 		addi	a3,a3,%lo(.LC0)
 797 007e 1306700F 		li	a2,247
 798 0082 93850500 		addi	a1,a1,%lo(.LC9)
 799 0086 13050500 		addi	a0,a0,%lo(.LC2)
 800 008a 97000000 		call	printf
 800      E7800000 
 801              	.LVL89:
 802              	.L67:
 247:C:/Users/stapi/OneDrive/Desktop/GD32VW553/V1_MQTT_OK/GD32VW55X_Wifi_BLE_SDK/GD32VW55x_RELEASE_V1.0.2/MSDK/lwip/lwip-2.1.2/src/apps/lwiperf\lwiperf.c **** 
 803              		.loc 1 247 3 discriminator 1
 247:C:/Users/stapi/OneDrive/Desktop/GD32VW553/V1_MQTT_OK/GD32VW55X_Wifi_BLE_SDK/GD32VW55x_RELEASE_V1.0.2/MSDK/lwip/lwip-2.1.2/src/apps/lwiperf\lwiperf.c **** 
 804              		.loc 1 247 3 discriminator 1
 247:C:/Users/stapi/OneDrive/Desktop/GD32VW553/V1_MQTT_OK/GD32VW55X_Wifi_BLE_SDK/GD32VW55x_RELEASE_V1.0.2/MSDK/lwip/lwip-2.1.2/src/apps/lwiperf\lwiperf.c **** 
 805              		.loc 1 247 3 discriminator 1
 806 0092 01A0     		j	.L67
 807              	.LVL90:
 808              	.L68:
 809              	.LBB49:
 810              	.LBB48:
 811              	.LBB47:
 264:C:/Users/stapi/OneDrive/Desktop/GD32VW553/V1_MQTT_OK/GD32VW55X_Wifi_BLE_SDK/GD32VW55x_RELEASE_V1.0.2/MSDK/lwip/lwip-2.1.2/src/apps/lwiperf\lwiperf.c ****       /* @todo: this can send up to 1*MSS more than requested... */
 812              		.loc 1 264 7
 264:C:/Users/stapi/OneDrive/Desktop/GD32VW553/V1_MQTT_OK/GD32VW55X_Wifi_BLE_SDK/GD32VW55x_RELEASE_V1.0.2/MSDK/lwip/lwip-2.1.2/src/apps/lwiperf\lwiperf.c ****       /* @todo: this can send up to 1*MSS more than requested... */
 813              		.loc 1 264 28 is_stmt 0
 814 0094 97000000 		call	lwip_htonl
 814      E7800000 
 815              	.LVL91:
 266:C:/Users/stapi/OneDrive/Desktop/GD32VW553/V1_MQTT_OK/GD32VW55X_Wifi_BLE_SDK/GD32VW55x_RELEASE_V1.0.2/MSDK/lwip/lwip-2.1.2/src/apps/lwiperf\lwiperf.c ****         /* all requested bytes transferred -> close the connection */
 816              		.loc 1 266 7 is_stmt 1
 266:C:/Users/stapi/OneDrive/Desktop/GD32VW553/V1_MQTT_OK/GD32VW55X_Wifi_BLE_SDK/GD32VW55x_RELEASE_V1.0.2/MSDK/lwip/lwip-2.1.2/src/apps/lwiperf\lwiperf.c ****         /* all requested bytes transferred -> close the connection */
 817              		.loc 1 266 10 is_stmt 0
 818 009c 5C50     		lw	a5,36(s0)
 819 009e E37DF5FA 		bgeu	a0,a5,.L71
 820              	.LVL92:
 821              	.L69:
 822              	.LBE47:
 273:C:/Users/stapi/OneDrive/Desktop/GD32VW553/V1_MQTT_OK/GD32VW55X_Wifi_BLE_SDK/GD32VW55x_RELEASE_V1.0.2/MSDK/lwip/lwip-2.1.2/src/apps/lwiperf\lwiperf.c ****       /* transmit the settings a first time */
 823              		.loc 1 273 5 is_stmt 1
 273:C:/Users/stapi/OneDrive/Desktop/GD32VW553/V1_MQTT_OK/GD32VW55X_Wifi_BLE_SDK/GD32VW55x_RELEASE_V1.0.2/MSDK/lwip/lwip-2.1.2/src/apps/lwiperf\lwiperf.c ****       /* transmit the settings a first time */
 824              		.loc 1 273 13 is_stmt 0
 825 00a2 5050     		lw	a2,36(s0)
 273:C:/Users/stapi/OneDrive/Desktop/GD32VW553/V1_MQTT_OK/GD32VW55X_Wifi_BLE_SDK/GD32VW55x_RELEASE_V1.0.2/MSDK/lwip/lwip-2.1.2/src/apps/lwiperf\lwiperf.c ****       /* transmit the settings a first time */
 826              		.loc 1 273 8
 827 00a4 63EECA02 		bgtu	a2,s5,.L72
 275:C:/Users/stapi/OneDrive/Desktop/GD32VW553/V1_MQTT_OK/GD32VW55X_Wifi_BLE_SDK/GD32VW55x_RELEASE_V1.0.2/MSDK/lwip/lwip-2.1.2/src/apps/lwiperf\lwiperf.c ****       txlen_max = (u16_t)(24 - conn->bytes_transferred);
 828              		.loc 1 275 7 is_stmt 1
 276:C:/Users/stapi/OneDrive/Desktop/GD32VW553/V1_MQTT_OK/GD32VW55X_Wifi_BLE_SDK/GD32VW55x_RELEASE_V1.0.2/MSDK/lwip/lwip-2.1.2/src/apps/lwiperf\lwiperf.c ****       apiflags = TCP_WRITE_FLAG_COPY;
 829              		.loc 1 276 17 is_stmt 0
 830 00a8 E144     		li	s1,24
 831 00aa 918C     		sub	s1,s1,a2
 275:C:/Users/stapi/OneDrive/Desktop/GD32VW553/V1_MQTT_OK/GD32VW55X_Wifi_BLE_SDK/GD32VW55x_RELEASE_V1.0.2/MSDK/lwip/lwip-2.1.2/src/apps/lwiperf\lwiperf.c ****       txlen_max = (u16_t)(24 - conn->bytes_transferred);
 832              		.loc 1 275 13
 833 00ac 338CC900 		add	s8,s3,a2
 834              	.LVL93:
 276:C:/Users/stapi/OneDrive/Desktop/GD32VW553/V1_MQTT_OK/GD32VW55X_Wifi_BLE_SDK/GD32VW55x_RELEASE_V1.0.2/MSDK/lwip/lwip-2.1.2/src/apps/lwiperf\lwiperf.c ****       apiflags = TCP_WRITE_FLAG_COPY;
 835              		.loc 1 276 7 is_stmt 1
 277:C:/Users/stapi/OneDrive/Desktop/GD32VW553/V1_MQTT_OK/GD32VW55X_Wifi_BLE_SDK/GD32VW55x_RELEASE_V1.0.2/MSDK/lwip/lwip-2.1.2/src/apps/lwiperf\lwiperf.c ****     } else if (conn->bytes_transferred < 48) {
 836              		.loc 1 277 16 is_stmt 0
 837 00b0 054D     		li	s10,1
 250:C:/Users/stapi/OneDrive/Desktop/GD32VW553/V1_MQTT_OK/GD32VW55X_Wifi_BLE_SDK/GD32VW55x_RELEASE_V1.0.2/MSDK/lwip/lwip-2.1.2/src/apps/lwiperf\lwiperf.c ****     if (conn->settings.amount & PP_HTONL(0x80000000)) {
 838              		.loc 1 250 15
 839 00b2 814C     		li	s9,0
 276:C:/Users/stapi/OneDrive/Desktop/GD32VW553/V1_MQTT_OK/GD32VW55X_Wifi_BLE_SDK/GD32VW55x_RELEASE_V1.0.2/MSDK/lwip/lwip-2.1.2/src/apps/lwiperf\lwiperf.c ****       apiflags = TCP_WRITE_FLAG_COPY;
 840              		.loc 1 276 17
 841 00b4 B3C40408 		zext.h	s1,s1
 842              	.LVL94:
 277:C:/Users/stapi/OneDrive/Desktop/GD32VW553/V1_MQTT_OK/GD32VW55X_Wifi_BLE_SDK/GD32VW55x_RELEASE_V1.0.2/MSDK/lwip/lwip-2.1.2/src/apps/lwiperf\lwiperf.c ****     } else if (conn->bytes_transferred < 48) {
 843              		.loc 1 277 7 is_stmt 1
 844              	.L73:
 295:C:/Users/stapi/OneDrive/Desktop/GD32VW553/V1_MQTT_OK/GD32VW55X_Wifi_BLE_SDK/GD32VW55x_RELEASE_V1.0.2/MSDK/lwip/lwip-2.1.2/src/apps/lwiperf\lwiperf.c ****     do {
 845              		.loc 1 295 5
 298:C:/Users/stapi/OneDrive/Desktop/GD32VW553/V1_MQTT_OK/GD32VW55X_Wifi_BLE_SDK/GD32VW55x_RELEASE_V1.0.2/MSDK/lwip/lwip-2.1.2/src/apps/lwiperf\lwiperf.c ****         txlen /= 2;
 846              		.loc 1 298 10 is_stmt 0
 847 00b8 FD5D     		li	s11,-1
 848              	.LVL95:
 849              	.L76:
 296:C:/Users/stapi/OneDrive/Desktop/GD32VW553/V1_MQTT_OK/GD32VW55X_Wifi_BLE_SDK/GD32VW55x_RELEASE_V1.0.2/MSDK/lwip/lwip-2.1.2/src/apps/lwiperf\lwiperf.c ****       err = tcp_write(conn->conn_pcb, txptr, txlen, apiflags);
 850              		.loc 1 296 5 is_stmt 1
 297:C:/Users/stapi/OneDrive/Desktop/GD32VW553/V1_MQTT_OK/GD32VW55X_Wifi_BLE_SDK/GD32VW55x_RELEASE_V1.0.2/MSDK/lwip/lwip-2.1.2/src/apps/lwiperf\lwiperf.c ****       if (err ==  ERR_MEM) {
 851              		.loc 1 297 7
 297:C:/Users/stapi/OneDrive/Desktop/GD32VW553/V1_MQTT_OK/GD32VW55X_Wifi_BLE_SDK/GD32VW55x_RELEASE_V1.0.2/MSDK/lwip/lwip-2.1.2/src/apps/lwiperf\lwiperf.c ****       if (err ==  ERR_MEM) {
 852              		.loc 1 297 13 is_stmt 0
 853 00ba 0848     		lw	a0,16(s0)
 854 00bc EA86     		mv	a3,s10
 855 00be 2686     		mv	a2,s1
 856 00c0 E285     		mv	a1,s8
 857 00c2 97000000 		call	tcp_write
 857      E7800000 
 858              	.LVL96:
 298:C:/Users/stapi/OneDrive/Desktop/GD32VW553/V1_MQTT_OK/GD32VW55X_Wifi_BLE_SDK/GD32VW55x_RELEASE_V1.0.2/MSDK/lwip/lwip-2.1.2/src/apps/lwiperf\lwiperf.c ****         txlen /= 2;
 859              		.loc 1 298 7 is_stmt 1
 298:C:/Users/stapi/OneDrive/Desktop/GD32VW553/V1_MQTT_OK/GD32VW55X_Wifi_BLE_SDK/GD32VW55x_RELEASE_V1.0.2/MSDK/lwip/lwip-2.1.2/src/apps/lwiperf\lwiperf.c ****         txlen /= 2;
 860              		.loc 1 298 10 is_stmt 0
 861 00ca 6316B505 		bne	a0,s11,.L75
 299:C:/Users/stapi/OneDrive/Desktop/GD32VW553/V1_MQTT_OK/GD32VW55X_Wifi_BLE_SDK/GD32VW55x_RELEASE_V1.0.2/MSDK/lwip/lwip-2.1.2/src/apps/lwiperf\lwiperf.c ****       }
 862              		.loc 1 299 9 is_stmt 1
 299:C:/Users/stapi/OneDrive/Desktop/GD32VW553/V1_MQTT_OK/GD32VW55X_Wifi_BLE_SDK/GD32VW55x_RELEASE_V1.0.2/MSDK/lwip/lwip-2.1.2/src/apps/lwiperf\lwiperf.c ****       }
 863              		.loc 1 299 15 is_stmt 0
 864 00ce 8580     		srli	s1,s1,1
 865              	.LVL97:
 301:C:/Users/stapi/OneDrive/Desktop/GD32VW553/V1_MQTT_OK/GD32VW55X_Wifi_BLE_SDK/GD32VW55x_RELEASE_V1.0.2/MSDK/lwip/lwip-2.1.2/src/apps/lwiperf\lwiperf.c **** 
 866              		.loc 1 301 13 is_stmt 1
 301:C:/Users/stapi/OneDrive/Desktop/GD32VW553/V1_MQTT_OK/GD32VW55X_Wifi_BLE_SDK/GD32VW55x_RELEASE_V1.0.2/MSDK/lwip/lwip-2.1.2/src/apps/lwiperf\lwiperf.c **** 
 867              		.loc 1 301 31 is_stmt 0
 868 00d0 E38574FF 		beq	s1,s7,.L76
 869              	.L77:
 870              	.LVL98:
 310:C:/Users/stapi/OneDrive/Desktop/GD32VW553/V1_MQTT_OK/GD32VW55X_Wifi_BLE_SDK/GD32VW55x_RELEASE_V1.0.2/MSDK/lwip/lwip-2.1.2/src/apps/lwiperf\lwiperf.c ****   return ERR_OK;
 871              		.loc 1 310 3 is_stmt 1
 872 00d4 0848     		lw	a0,16(s0)
 873              	.LVL99:
 874 00d6 97000000 		call	tcp_output
 874      E7800000 
 875              	.LVL100:
 311:C:/Users/stapi/OneDrive/Desktop/GD32VW553/V1_MQTT_OK/GD32VW55X_Wifi_BLE_SDK/GD32VW55x_RELEASE_V1.0.2/MSDK/lwip/lwip-2.1.2/src/apps/lwiperf\lwiperf.c **** }
 876              		.loc 1 311 3
 311:C:/Users/stapi/OneDrive/Desktop/GD32VW553/V1_MQTT_OK/GD32VW55X_Wifi_BLE_SDK/GD32VW55x_RELEASE_V1.0.2/MSDK/lwip/lwip-2.1.2/src/apps/lwiperf\lwiperf.c **** }
 877              		.loc 1 311 10 is_stmt 0
 878 00de 59B7     		j	.L89
 879              	.LVL101:
 880              	.L72:
 278:C:/Users/stapi/OneDrive/Desktop/GD32VW553/V1_MQTT_OK/GD32VW55X_Wifi_BLE_SDK/GD32VW55x_RELEASE_V1.0.2/MSDK/lwip/lwip-2.1.2/src/apps/lwiperf\lwiperf.c ****       /* transmit the settings a second time */
 881              		.loc 1 278 12 is_stmt 1
 278:C:/Users/stapi/OneDrive/Desktop/GD32VW553/V1_MQTT_OK/GD32VW55X_Wifi_BLE_SDK/GD32VW55x_RELEASE_V1.0.2/MSDK/lwip/lwip-2.1.2/src/apps/lwiperf\lwiperf.c ****       /* transmit the settings a second time */
 882              		.loc 1 278 15 is_stmt 0
 883 00e0 636DCB00 		bgtu	a2,s6,.L74
 280:C:/Users/stapi/OneDrive/Desktop/GD32VW553/V1_MQTT_OK/GD32VW55X_Wifi_BLE_SDK/GD32VW55x_RELEASE_V1.0.2/MSDK/lwip/lwip-2.1.2/src/apps/lwiperf\lwiperf.c ****       txlen_max = (u16_t)(48 - conn->bytes_transferred);
 884              		.loc 1 280 7 is_stmt 1
 280:C:/Users/stapi/OneDrive/Desktop/GD32VW553/V1_MQTT_OK/GD32VW55X_Wifi_BLE_SDK/GD32VW55x_RELEASE_V1.0.2/MSDK/lwip/lwip-2.1.2/src/apps/lwiperf\lwiperf.c ****       txlen_max = (u16_t)(48 - conn->bytes_transferred);
 885              		.loc 1 280 41 is_stmt 0
 886 00e4 130C86FE 		addi	s8,a2,-24
 281:C:/Users/stapi/OneDrive/Desktop/GD32VW553/V1_MQTT_OK/GD32VW55X_Wifi_BLE_SDK/GD32VW55x_RELEASE_V1.0.2/MSDK/lwip/lwip-2.1.2/src/apps/lwiperf\lwiperf.c ****       apiflags = TCP_WRITE_FLAG_COPY | TCP_WRITE_FLAG_MORE;
 887              		.loc 1 281 17
 888 00e8 93040003 		li	s1,48
 889 00ec 918C     		sub	s1,s1,a2
 280:C:/Users/stapi/OneDrive/Desktop/GD32VW553/V1_MQTT_OK/GD32VW55X_Wifi_BLE_SDK/GD32VW55x_RELEASE_V1.0.2/MSDK/lwip/lwip-2.1.2/src/apps/lwiperf\lwiperf.c ****       txlen_max = (u16_t)(48 - conn->bytes_transferred);
 890              		.loc 1 280 13
 891 00ee 4E9C     		add	s8,s3,s8
 892              	.LVL102:
 281:C:/Users/stapi/OneDrive/Desktop/GD32VW553/V1_MQTT_OK/GD32VW55X_Wifi_BLE_SDK/GD32VW55x_RELEASE_V1.0.2/MSDK/lwip/lwip-2.1.2/src/apps/lwiperf\lwiperf.c ****       apiflags = TCP_WRITE_FLAG_COPY | TCP_WRITE_FLAG_MORE;
 893              		.loc 1 281 7 is_stmt 1
 282:C:/Users/stapi/OneDrive/Desktop/GD32VW553/V1_MQTT_OK/GD32VW55X_Wifi_BLE_SDK/GD32VW55x_RELEASE_V1.0.2/MSDK/lwip/lwip-2.1.2/src/apps/lwiperf\lwiperf.c ****       send_more = 1;
 894              		.loc 1 282 16 is_stmt 0
 895 00f0 0D4D     		li	s10,3
 281:C:/Users/stapi/OneDrive/Desktop/GD32VW553/V1_MQTT_OK/GD32VW55X_Wifi_BLE_SDK/GD32VW55x_RELEASE_V1.0.2/MSDK/lwip/lwip-2.1.2/src/apps/lwiperf\lwiperf.c ****       apiflags = TCP_WRITE_FLAG_COPY | TCP_WRITE_FLAG_MORE;
 896              		.loc 1 281 17
 897 00f2 B3C40408 		zext.h	s1,s1
 898              	.LVL103:
 282:C:/Users/stapi/OneDrive/Desktop/GD32VW553/V1_MQTT_OK/GD32VW55X_Wifi_BLE_SDK/GD32VW55x_RELEASE_V1.0.2/MSDK/lwip/lwip-2.1.2/src/apps/lwiperf\lwiperf.c ****       send_more = 1;
 899              		.loc 1 282 7 is_stmt 1
 283:C:/Users/stapi/OneDrive/Desktop/GD32VW553/V1_MQTT_OK/GD32VW55X_Wifi_BLE_SDK/GD32VW55x_RELEASE_V1.0.2/MSDK/lwip/lwip-2.1.2/src/apps/lwiperf\lwiperf.c ****     } else {
 900              		.loc 1 283 7
 901              	.L91:
 293:C:/Users/stapi/OneDrive/Desktop/GD32VW553/V1_MQTT_OK/GD32VW55X_Wifi_BLE_SDK/GD32VW55x_RELEASE_V1.0.2/MSDK/lwip/lwip-2.1.2/src/apps/lwiperf\lwiperf.c ****     }
 902              		.loc 1 293 17 is_stmt 0
 903 00f6 854C     		li	s9,1
 904 00f8 C1B7     		j	.L73
 905              	.LVL104:
 906              	.L74:
 287:C:/Users/stapi/OneDrive/Desktop/GD32VW553/V1_MQTT_OK/GD32VW55X_Wifi_BLE_SDK/GD32VW55x_RELEASE_V1.0.2/MSDK/lwip/lwip-2.1.2/src/apps/lwiperf\lwiperf.c ****       txlen_max = TCP_MSS;
 907              		.loc 1 287 7 is_stmt 1
 287:C:/Users/stapi/OneDrive/Desktop/GD32VW553/V1_MQTT_OK/GD32VW55X_Wifi_BLE_SDK/GD32VW55x_RELEASE_V1.0.2/MSDK/lwip/lwip-2.1.2/src/apps/lwiperf\lwiperf.c ****       txlen_max = TCP_MSS;
 908              		.loc 1 287 15 is_stmt 0
 909 00fa 294C     		li	s8,10
 910 00fc 337C8603 		remu	s8,a2,s8
 289:C:/Users/stapi/OneDrive/Desktop/GD32VW553/V1_MQTT_OK/GD32VW55X_Wifi_BLE_SDK/GD32VW55x_RELEASE_V1.0.2/MSDK/lwip/lwip-2.1.2/src/apps/lwiperf\lwiperf.c ****         txlen_max = TCP_MSS - 24;
 911              		.loc 1 289 10
 912 0100 93070003 		li	a5,48
 292:C:/Users/stapi/OneDrive/Desktop/GD32VW553/V1_MQTT_OK/GD32VW55X_Wifi_BLE_SDK/GD32VW55x_RELEASE_V1.0.2/MSDK/lwip/lwip-2.1.2/src/apps/lwiperf\lwiperf.c ****       send_more = 1;
 913              		.loc 1 292 16
 914 0104 014D     		li	s10,0
 290:C:/Users/stapi/OneDrive/Desktop/GD32VW553/V1_MQTT_OK/GD32VW55X_Wifi_BLE_SDK/GD32VW55x_RELEASE_V1.0.2/MSDK/lwip/lwip-2.1.2/src/apps/lwiperf\lwiperf.c ****       }
 915              		.loc 1 290 19
 916 0106 9304C059 		li	s1,1436
 287:C:/Users/stapi/OneDrive/Desktop/GD32VW553/V1_MQTT_OK/GD32VW55X_Wifi_BLE_SDK/GD32VW55x_RELEASE_V1.0.2/MSDK/lwip/lwip-2.1.2/src/apps/lwiperf\lwiperf.c ****       txlen_max = TCP_MSS;
 917              		.loc 1 287 13
 918 010a 4A9C     		add	s8,s2,s8
 919              	.LVL105:
 288:C:/Users/stapi/OneDrive/Desktop/GD32VW553/V1_MQTT_OK/GD32VW55X_Wifi_BLE_SDK/GD32VW55x_RELEASE_V1.0.2/MSDK/lwip/lwip-2.1.2/src/apps/lwiperf\lwiperf.c ****       if (conn->bytes_transferred == 48) { /* @todo: fix this for intermediate settings, too */
 920              		.loc 1 288 7 is_stmt 1
 289:C:/Users/stapi/OneDrive/Desktop/GD32VW553/V1_MQTT_OK/GD32VW55X_Wifi_BLE_SDK/GD32VW55x_RELEASE_V1.0.2/MSDK/lwip/lwip-2.1.2/src/apps/lwiperf\lwiperf.c ****         txlen_max = TCP_MSS - 24;
 921              		.loc 1 289 7
 289:C:/Users/stapi/OneDrive/Desktop/GD32VW553/V1_MQTT_OK/GD32VW55X_Wifi_BLE_SDK/GD32VW55x_RELEASE_V1.0.2/MSDK/lwip/lwip-2.1.2/src/apps/lwiperf\lwiperf.c ****         txlen_max = TCP_MSS - 24;
 922              		.loc 1 289 10 is_stmt 0
 923 010c E305F6FE 		beq	a2,a5,.L91
 288:C:/Users/stapi/OneDrive/Desktop/GD32VW553/V1_MQTT_OK/GD32VW55X_Wifi_BLE_SDK/GD32VW55x_RELEASE_V1.0.2/MSDK/lwip/lwip-2.1.2/src/apps/lwiperf\lwiperf.c ****       if (conn->bytes_transferred == 48) { /* @todo: fix this for intermediate settings, too */
 924              		.loc 1 288 17
 925 0110 9304405B 		li	s1,1460
 926 0114 CDB7     		j	.L91
 927              	.LVL106:
 928              	.L75:
 301:C:/Users/stapi/OneDrive/Desktop/GD32VW553/V1_MQTT_OK/GD32VW55X_Wifi_BLE_SDK/GD32VW55x_RELEASE_V1.0.2/MSDK/lwip/lwip-2.1.2/src/apps/lwiperf\lwiperf.c **** 
 929              		.loc 1 301 13 is_stmt 1
 303:C:/Users/stapi/OneDrive/Desktop/GD32VW553/V1_MQTT_OK/GD32VW55X_Wifi_BLE_SDK/GD32VW55x_RELEASE_V1.0.2/MSDK/lwip/lwip-2.1.2/src/apps/lwiperf\lwiperf.c ****       conn->bytes_transferred += txlen;
 930              		.loc 1 303 5
 303:C:/Users/stapi/OneDrive/Desktop/GD32VW553/V1_MQTT_OK/GD32VW55X_Wifi_BLE_SDK/GD32VW55x_RELEASE_V1.0.2/MSDK/lwip/lwip-2.1.2/src/apps/lwiperf\lwiperf.c ****       conn->bytes_transferred += txlen;
 931              		.loc 1 303 8 is_stmt 0
 932 0116 5DFD     		bne	a0,zero,.L77
 304:C:/Users/stapi/OneDrive/Desktop/GD32VW553/V1_MQTT_OK/GD32VW55X_Wifi_BLE_SDK/GD32VW55x_RELEASE_V1.0.2/MSDK/lwip/lwip-2.1.2/src/apps/lwiperf\lwiperf.c ****     } else {
 933              		.loc 1 304 7 is_stmt 1
 304:C:/Users/stapi/OneDrive/Desktop/GD32VW553/V1_MQTT_OK/GD32VW55X_Wifi_BLE_SDK/GD32VW55x_RELEASE_V1.0.2/MSDK/lwip/lwip-2.1.2/src/apps/lwiperf\lwiperf.c ****     } else {
 934              		.loc 1 304 31 is_stmt 0
 935 0118 5C50     		lw	a5,36(s0)
 936 011a A697     		add	a5,a5,s1
 937 011c 5CD0     		sw	a5,36(s0)
 308:C:/Users/stapi/OneDrive/Desktop/GD32VW553/V1_MQTT_OK/GD32VW55X_Wifi_BLE_SDK/GD32VW55x_RELEASE_V1.0.2/MSDK/lwip/lwip-2.1.2/src/apps/lwiperf\lwiperf.c **** 
 938              		.loc 1 308 11 is_stmt 1
 308:C:/Users/stapi/OneDrive/Desktop/GD32VW553/V1_MQTT_OK/GD32VW55X_Wifi_BLE_SDK/GD32VW55x_RELEASE_V1.0.2/MSDK/lwip/lwip-2.1.2/src/apps/lwiperf\lwiperf.c **** 
 939              		.loc 1 308 3 is_stmt 0
 940 011e E3990CF0 		bne	s9,zero,.L66
 941 0122 4DBF     		j	.L77
 942              	.LBE48:
 943              	.LBE49:
 944              		.cfi_endproc
 945              	.LFE9:
 947              		.section	.rodata.lwiperf_tcp_client_sent.str1.4,"aMS",@progbits,1
 948              		.align	2
 949              	.LC10:
 950 0000 696E7661 		.string	"invalid conn"
 950      6C696420 
 950      636F6E6E 
 950      00
 951              		.section	.text.lwiperf_tcp_client_sent,"ax",@progbits
 952              		.align	1
 954              	lwiperf_tcp_client_sent:
 955              	.LFB10:
 317:C:/Users/stapi/OneDrive/Desktop/GD32VW553/V1_MQTT_OK/GD32VW55X_Wifi_BLE_SDK/GD32VW55x_RELEASE_V1.0.2/MSDK/lwip/lwip-2.1.2/src/apps/lwiperf\lwiperf.c ****   lwiperf_state_tcp_t *conn = (lwiperf_state_tcp_t *)arg;
 956              		.loc 1 317 1 is_stmt 1
 957              		.cfi_startproc
 958              	.LVL107:
 959 0000 17030000 		call	t0,__riscv_save_0
 959      E7020300 
 960              		.cfi_offset 1, -4
 961              		.cfi_def_cfa_offset 16
 318:C:/Users/stapi/OneDrive/Desktop/GD32VW553/V1_MQTT_OK/GD32VW55X_Wifi_BLE_SDK/GD32VW55x_RELEASE_V1.0.2/MSDK/lwip/lwip-2.1.2/src/apps/lwiperf\lwiperf.c ****   /* @todo: check 'len' (e.g. to time ACK of all data)? for now, we just send more... */
 962              		.loc 1 318 3
 963              	.LVL108:
 320:C:/Users/stapi/OneDrive/Desktop/GD32VW553/V1_MQTT_OK/GD32VW55X_Wifi_BLE_SDK/GD32VW55x_RELEASE_V1.0.2/MSDK/lwip/lwip-2.1.2/src/apps/lwiperf\lwiperf.c ****   LWIP_UNUSED_ARG(tpcb);
 964              		.loc 1 320 3
 320:C:/Users/stapi/OneDrive/Desktop/GD32VW553/V1_MQTT_OK/GD32VW55X_Wifi_BLE_SDK/GD32VW55x_RELEASE_V1.0.2/MSDK/lwip/lwip-2.1.2/src/apps/lwiperf\lwiperf.c ****   LWIP_UNUSED_ARG(tpcb);
 965              		.loc 1 320 3
 966 0008 1849     		lw	a4,16(a0)
 967 000a 6305B702 		beq	a4,a1,.L93
 320:C:/Users/stapi/OneDrive/Desktop/GD32VW553/V1_MQTT_OK/GD32VW55X_Wifi_BLE_SDK/GD32VW55x_RELEASE_V1.0.2/MSDK/lwip/lwip-2.1.2/src/apps/lwiperf\lwiperf.c ****   LWIP_UNUSED_ARG(tpcb);
 968              		.loc 1 320 3 discriminator 1
 320:C:/Users/stapi/OneDrive/Desktop/GD32VW553/V1_MQTT_OK/GD32VW55X_Wifi_BLE_SDK/GD32VW55x_RELEASE_V1.0.2/MSDK/lwip/lwip-2.1.2/src/apps/lwiperf\lwiperf.c ****   LWIP_UNUSED_ARG(tpcb);
 969              		.loc 1 320 3 discriminator 1
 970 000e B7060000 		lui	a3,%hi(.LC0)
 971 0012 B7050000 		lui	a1,%hi(.LC10)
 972              	.LVL109:
 973 0016 37050000 		lui	a0,%hi(.LC2)
 974              	.LVL110:
 975 001a 93860600 		addi	a3,a3,%lo(.LC0)
 976 001e 13060014 		li	a2,320
 977              	.LVL111:
 978 0022 93850500 		addi	a1,a1,%lo(.LC10)
 979 0026 13050500 		addi	a0,a0,%lo(.LC2)
 980 002a 97000000 		call	printf
 980      E7800000 
 981              	.LVL112:
 982              	.L94:
 320:C:/Users/stapi/OneDrive/Desktop/GD32VW553/V1_MQTT_OK/GD32VW55X_Wifi_BLE_SDK/GD32VW55x_RELEASE_V1.0.2/MSDK/lwip/lwip-2.1.2/src/apps/lwiperf\lwiperf.c ****   LWIP_UNUSED_ARG(tpcb);
 983              		.loc 1 320 3 discriminator 1
 320:C:/Users/stapi/OneDrive/Desktop/GD32VW553/V1_MQTT_OK/GD32VW55X_Wifi_BLE_SDK/GD32VW55x_RELEASE_V1.0.2/MSDK/lwip/lwip-2.1.2/src/apps/lwiperf\lwiperf.c ****   LWIP_UNUSED_ARG(tpcb);
 984              		.loc 1 320 3 discriminator 1
 320:C:/Users/stapi/OneDrive/Desktop/GD32VW553/V1_MQTT_OK/GD32VW55X_Wifi_BLE_SDK/GD32VW55x_RELEASE_V1.0.2/MSDK/lwip/lwip-2.1.2/src/apps/lwiperf\lwiperf.c ****   LWIP_UNUSED_ARG(tpcb);
 985              		.loc 1 320 3 discriminator 1
 986 0032 01A0     		j	.L94
 987              	.LVL113:
 988              	.L93:
 989              	.LBB52:
 990              	.LBB53:
 320:C:/Users/stapi/OneDrive/Desktop/GD32VW553/V1_MQTT_OK/GD32VW55X_Wifi_BLE_SDK/GD32VW55x_RELEASE_V1.0.2/MSDK/lwip/lwip-2.1.2/src/apps/lwiperf\lwiperf.c ****   LWIP_UNUSED_ARG(tpcb);
 991              		.loc 1 320 3
 320:C:/Users/stapi/OneDrive/Desktop/GD32VW553/V1_MQTT_OK/GD32VW55X_Wifi_BLE_SDK/GD32VW55x_RELEASE_V1.0.2/MSDK/lwip/lwip-2.1.2/src/apps/lwiperf\lwiperf.c ****   LWIP_UNUSED_ARG(tpcb);
 992              		.loc 1 320 3
 321:C:/Users/stapi/OneDrive/Desktop/GD32VW553/V1_MQTT_OK/GD32VW55X_Wifi_BLE_SDK/GD32VW55x_RELEASE_V1.0.2/MSDK/lwip/lwip-2.1.2/src/apps/lwiperf\lwiperf.c ****   LWIP_UNUSED_ARG(len);
 993              		.loc 1 321 3
 322:C:/Users/stapi/OneDrive/Desktop/GD32VW553/V1_MQTT_OK/GD32VW55X_Wifi_BLE_SDK/GD32VW55x_RELEASE_V1.0.2/MSDK/lwip/lwip-2.1.2/src/apps/lwiperf\lwiperf.c **** 
 994              		.loc 1 322 3
 324:C:/Users/stapi/OneDrive/Desktop/GD32VW553/V1_MQTT_OK/GD32VW55X_Wifi_BLE_SDK/GD32VW55x_RELEASE_V1.0.2/MSDK/lwip/lwip-2.1.2/src/apps/lwiperf\lwiperf.c **** 
 995              		.loc 1 324 3
 324:C:/Users/stapi/OneDrive/Desktop/GD32VW553/V1_MQTT_OK/GD32VW55X_Wifi_BLE_SDK/GD32VW55x_RELEASE_V1.0.2/MSDK/lwip/lwip-2.1.2/src/apps/lwiperf\lwiperf.c **** 
 996              		.loc 1 324 20 is_stmt 0
 997 0034 23000502 		sb	zero,32(a0)
 326:C:/Users/stapi/OneDrive/Desktop/GD32VW553/V1_MQTT_OK/GD32VW55X_Wifi_BLE_SDK/GD32VW55x_RELEASE_V1.0.2/MSDK/lwip/lwip-2.1.2/src/apps/lwiperf\lwiperf.c **** }
 998              		.loc 1 326 3 is_stmt 1
 326:C:/Users/stapi/OneDrive/Desktop/GD32VW553/V1_MQTT_OK/GD32VW55X_Wifi_BLE_SDK/GD32VW55x_RELEASE_V1.0.2/MSDK/lwip/lwip-2.1.2/src/apps/lwiperf\lwiperf.c **** }
 999              		.loc 1 326 10 is_stmt 0
 1000 0038 97000000 		call	lwiperf_tcp_client_send_more
 1000      E7800000 
 1001              	.LVL114:
 1002              	.LBE53:
 1003              	.LBE52:
 327:C:/Users/stapi/OneDrive/Desktop/GD32VW553/V1_MQTT_OK/GD32VW55X_Wifi_BLE_SDK/GD32VW55x_RELEASE_V1.0.2/MSDK/lwip/lwip-2.1.2/src/apps/lwiperf\lwiperf.c **** 
 1004              		.loc 1 327 1
 1005 0040 17030000 		tail	__riscv_restore_0
 1005      67000300 
 1006              		.cfi_restore 1
 1007              		.cfi_def_cfa_offset 0
 1008              		.cfi_endproc
 1009              	.LFE10:
 1011              		.section	.rodata.lwiperf_tcp_poll.str1.4,"aMS",@progbits,1
 1012              		.align	2
 1013              	.LC11:
 1014 0000 70636220 		.string	"pcb mismatch"
 1014      6D69736D 
 1014      61746368 
 1014      00
 1015              		.section	.text.lwiperf_tcp_poll,"ax",@progbits
 1016              		.align	1
 1018              	lwiperf_tcp_poll:
 1019              	.LFB16:
 536:C:/Users/stapi/OneDrive/Desktop/GD32VW553/V1_MQTT_OK/GD32VW55X_Wifi_BLE_SDK/GD32VW55x_RELEASE_V1.0.2/MSDK/lwip/lwip-2.1.2/src/apps/lwiperf\lwiperf.c ****   lwiperf_state_tcp_t *conn = (lwiperf_state_tcp_t *)arg;
 1020              		.loc 1 536 1 is_stmt 1
 1021              		.cfi_startproc
 1022              	.LVL115:
 1023 0000 17030000 		call	t0,__riscv_save_0
 1023      E7020300 
 1024              		.cfi_offset 1, -4
 1025              		.cfi_def_cfa_offset 16
 537:C:/Users/stapi/OneDrive/Desktop/GD32VW553/V1_MQTT_OK/GD32VW55X_Wifi_BLE_SDK/GD32VW55x_RELEASE_V1.0.2/MSDK/lwip/lwip-2.1.2/src/apps/lwiperf\lwiperf.c ****   LWIP_ASSERT("pcb mismatch", conn->conn_pcb == tpcb);
 1026              		.loc 1 537 3
 1027              	.LVL116:
 538:C:/Users/stapi/OneDrive/Desktop/GD32VW553/V1_MQTT_OK/GD32VW55X_Wifi_BLE_SDK/GD32VW55x_RELEASE_V1.0.2/MSDK/lwip/lwip-2.1.2/src/apps/lwiperf\lwiperf.c ****   LWIP_UNUSED_ARG(tpcb);
 1028              		.loc 1 538 3
 538:C:/Users/stapi/OneDrive/Desktop/GD32VW553/V1_MQTT_OK/GD32VW55X_Wifi_BLE_SDK/GD32VW55x_RELEASE_V1.0.2/MSDK/lwip/lwip-2.1.2/src/apps/lwiperf\lwiperf.c ****   LWIP_UNUSED_ARG(tpcb);
 1029              		.loc 1 538 3
 1030 0008 1849     		lw	a4,16(a0)
 1031 000a 6305B702 		beq	a4,a1,.L97
 538:C:/Users/stapi/OneDrive/Desktop/GD32VW553/V1_MQTT_OK/GD32VW55X_Wifi_BLE_SDK/GD32VW55x_RELEASE_V1.0.2/MSDK/lwip/lwip-2.1.2/src/apps/lwiperf\lwiperf.c ****   LWIP_UNUSED_ARG(tpcb);
 1032              		.loc 1 538 3 discriminator 1
 538:C:/Users/stapi/OneDrive/Desktop/GD32VW553/V1_MQTT_OK/GD32VW55X_Wifi_BLE_SDK/GD32VW55x_RELEASE_V1.0.2/MSDK/lwip/lwip-2.1.2/src/apps/lwiperf\lwiperf.c ****   LWIP_UNUSED_ARG(tpcb);
 1033              		.loc 1 538 3 discriminator 1
 1034 000e B7060000 		lui	a3,%hi(.LC0)
 1035 0012 B7050000 		lui	a1,%hi(.LC11)
 1036              	.LVL117:
 1037 0016 37050000 		lui	a0,%hi(.LC2)
 1038              	.LVL118:
 1039 001a 93860600 		addi	a3,a3,%lo(.LC0)
 1040 001e 1306A021 		li	a2,538
 1041 0022 93850500 		addi	a1,a1,%lo(.LC11)
 1042 0026 13050500 		addi	a0,a0,%lo(.LC2)
 1043 002a 97000000 		call	printf
 1043      E7800000 
 1044              	.LVL119:
 1045              	.L98:
 538:C:/Users/stapi/OneDrive/Desktop/GD32VW553/V1_MQTT_OK/GD32VW55X_Wifi_BLE_SDK/GD32VW55x_RELEASE_V1.0.2/MSDK/lwip/lwip-2.1.2/src/apps/lwiperf\lwiperf.c ****   LWIP_UNUSED_ARG(tpcb);
 1046              		.loc 1 538 3 discriminator 1
 538:C:/Users/stapi/OneDrive/Desktop/GD32VW553/V1_MQTT_OK/GD32VW55X_Wifi_BLE_SDK/GD32VW55x_RELEASE_V1.0.2/MSDK/lwip/lwip-2.1.2/src/apps/lwiperf\lwiperf.c ****   LWIP_UNUSED_ARG(tpcb);
 1047              		.loc 1 538 3 discriminator 1
 538:C:/Users/stapi/OneDrive/Desktop/GD32VW553/V1_MQTT_OK/GD32VW55X_Wifi_BLE_SDK/GD32VW55x_RELEASE_V1.0.2/MSDK/lwip/lwip-2.1.2/src/apps/lwiperf\lwiperf.c ****   LWIP_UNUSED_ARG(tpcb);
 1048              		.loc 1 538 3 discriminator 1
 1049 0032 01A0     		j	.L98
 1050              	.LVL120:
 1051              	.L97:
 538:C:/Users/stapi/OneDrive/Desktop/GD32VW553/V1_MQTT_OK/GD32VW55X_Wifi_BLE_SDK/GD32VW55x_RELEASE_V1.0.2/MSDK/lwip/lwip-2.1.2/src/apps/lwiperf\lwiperf.c ****   LWIP_UNUSED_ARG(tpcb);
 1052              		.loc 1 538 3 discriminator 2
 538:C:/Users/stapi/OneDrive/Desktop/GD32VW553/V1_MQTT_OK/GD32VW55X_Wifi_BLE_SDK/GD32VW55x_RELEASE_V1.0.2/MSDK/lwip/lwip-2.1.2/src/apps/lwiperf\lwiperf.c ****   LWIP_UNUSED_ARG(tpcb);
 1053              		.loc 1 538 3 discriminator 2
 539:C:/Users/stapi/OneDrive/Desktop/GD32VW553/V1_MQTT_OK/GD32VW55X_Wifi_BLE_SDK/GD32VW55x_RELEASE_V1.0.2/MSDK/lwip/lwip-2.1.2/src/apps/lwiperf\lwiperf.c ****   if (++conn->poll_count >= LWIPERF_TCP_MAX_IDLE_SEC) {
 1054              		.loc 1 539 3 discriminator 2
 540:C:/Users/stapi/OneDrive/Desktop/GD32VW553/V1_MQTT_OK/GD32VW55X_Wifi_BLE_SDK/GD32VW55x_RELEASE_V1.0.2/MSDK/lwip/lwip-2.1.2/src/apps/lwiperf\lwiperf.c ****     lwiperf_tcp_close(conn, LWIPERF_TCP_ABORTED_LOCAL);
 1055              		.loc 1 540 3 discriminator 2
 540:C:/Users/stapi/OneDrive/Desktop/GD32VW553/V1_MQTT_OK/GD32VW55X_Wifi_BLE_SDK/GD32VW55x_RELEASE_V1.0.2/MSDK/lwip/lwip-2.1.2/src/apps/lwiperf\lwiperf.c ****     lwiperf_tcp_close(conn, LWIPERF_TCP_ABORTED_LOCAL);
 1056              		.loc 1 540 7 is_stmt 0 discriminator 2
 1057 0034 03470502 		lbu	a4,32(a0)
 540:C:/Users/stapi/OneDrive/Desktop/GD32VW553/V1_MQTT_OK/GD32VW55X_Wifi_BLE_SDK/GD32VW55x_RELEASE_V1.0.2/MSDK/lwip/lwip-2.1.2/src/apps/lwiperf\lwiperf.c ****     lwiperf_tcp_close(conn, LWIPERF_TCP_ABORTED_LOCAL);
 1058              		.loc 1 540 6 discriminator 2
 1059 0038 A546     		li	a3,9
 540:C:/Users/stapi/OneDrive/Desktop/GD32VW553/V1_MQTT_OK/GD32VW55X_Wifi_BLE_SDK/GD32VW55x_RELEASE_V1.0.2/MSDK/lwip/lwip-2.1.2/src/apps/lwiperf\lwiperf.c ****     lwiperf_tcp_close(conn, LWIPERF_TCP_ABORTED_LOCAL);
 1060              		.loc 1 540 7 discriminator 2
 1061 003a 0507     		addi	a4,a4,1
 1062 003c 1377F70F 		andi	a4,a4,0xff
 540:C:/Users/stapi/OneDrive/Desktop/GD32VW553/V1_MQTT_OK/GD32VW55X_Wifi_BLE_SDK/GD32VW55x_RELEASE_V1.0.2/MSDK/lwip/lwip-2.1.2/src/apps/lwiperf\lwiperf.c ****     lwiperf_tcp_close(conn, LWIPERF_TCP_ABORTED_LOCAL);
 1063              		.loc 1 540 6 discriminator 2
 1064 0040 2300E502 		sb	a4,32(a0)
 1065 0044 63FCE600 		bleu	a4,a3,.L99
 541:C:/Users/stapi/OneDrive/Desktop/GD32VW553/V1_MQTT_OK/GD32VW55X_Wifi_BLE_SDK/GD32VW55x_RELEASE_V1.0.2/MSDK/lwip/lwip-2.1.2/src/apps/lwiperf\lwiperf.c ****     return ERR_OK; /* lwiperf_tcp_close frees conn */
 1066              		.loc 1 541 5 is_stmt 1
 1067 0048 8945     		li	a1,2
 1068              	.LVL121:
 1069 004a 97000000 		call	lwiperf_tcp_close
 1069      E7800000 
 1070              	.LVL122:
 542:C:/Users/stapi/OneDrive/Desktop/GD32VW553/V1_MQTT_OK/GD32VW55X_Wifi_BLE_SDK/GD32VW55x_RELEASE_V1.0.2/MSDK/lwip/lwip-2.1.2/src/apps/lwiperf\lwiperf.c ****   }
 1071              		.loc 1 542 5
 1072              	.L100:
 550:C:/Users/stapi/OneDrive/Desktop/GD32VW553/V1_MQTT_OK/GD32VW55X_Wifi_BLE_SDK/GD32VW55x_RELEASE_V1.0.2/MSDK/lwip/lwip-2.1.2/src/apps/lwiperf\lwiperf.c **** 
 1073              		.loc 1 550 1 is_stmt 0
 1074 0052 0145     		li	a0,0
 1075 0054 17030000 		tail	__riscv_restore_0
 1075      67000300 
 1076              		.cfi_remember_state
 1077              		.cfi_restore 1
 1078              		.cfi_def_cfa_offset 0
 1079              	.LVL123:
 1080              	.L99:
 1081              		.cfi_restore_state
 1082              	.LBB56:
 1083              	.LBB57:
 545:C:/Users/stapi/OneDrive/Desktop/GD32VW553/V1_MQTT_OK/GD32VW55X_Wifi_BLE_SDK/GD32VW55x_RELEASE_V1.0.2/MSDK/lwip/lwip-2.1.2/src/apps/lwiperf\lwiperf.c ****     lwiperf_tcp_client_send_more(conn);
 1084              		.loc 1 545 3 is_stmt 1
 545:C:/Users/stapi/OneDrive/Desktop/GD32VW553/V1_MQTT_OK/GD32VW55X_Wifi_BLE_SDK/GD32VW55x_RELEASE_V1.0.2/MSDK/lwip/lwip-2.1.2/src/apps/lwiperf\lwiperf.c ****     lwiperf_tcp_client_send_more(conn);
 1085              		.loc 1 545 6 is_stmt 0
 1086 005c 83475500 		lbu	a5,5(a0)
 1087 0060 EDFB     		bne	a5,zero,.L100
 546:C:/Users/stapi/OneDrive/Desktop/GD32VW553/V1_MQTT_OK/GD32VW55X_Wifi_BLE_SDK/GD32VW55x_RELEASE_V1.0.2/MSDK/lwip/lwip-2.1.2/src/apps/lwiperf\lwiperf.c ****   }
 1088              		.loc 1 546 5 is_stmt 1
 1089 0062 97000000 		call	lwiperf_tcp_client_send_more
 1089      E7800000 
 1090              	.LVL124:
 1091 006a E5B7     		j	.L100
 1092              	.LBE57:
 1093              	.LBE56:
 1094              		.cfi_endproc
 1095              	.LFE16:
 1097              		.section	.text.lwiperf_tcp_client_connected,"ax",@progbits
 1098              		.align	1
 1100              	lwiperf_tcp_client_connected:
 1101              	.LFB11:
 332:C:/Users/stapi/OneDrive/Desktop/GD32VW553/V1_MQTT_OK/GD32VW55X_Wifi_BLE_SDK/GD32VW55x_RELEASE_V1.0.2/MSDK/lwip/lwip-2.1.2/src/apps/lwiperf\lwiperf.c ****   lwiperf_state_tcp_t *conn = (lwiperf_state_tcp_t *)arg;
 1102              		.loc 1 332 1
 1103              		.cfi_startproc
 1104              	.LVL125:
 1105 0000 17030000 		call	t0,__riscv_save_1
 1105      E7020300 
 1106              		.cfi_offset 8, -8
 1107              		.cfi_offset 1, -4
 1108              		.cfi_def_cfa_offset 16
 333:C:/Users/stapi/OneDrive/Desktop/GD32VW553/V1_MQTT_OK/GD32VW55X_Wifi_BLE_SDK/GD32VW55x_RELEASE_V1.0.2/MSDK/lwip/lwip-2.1.2/src/apps/lwiperf\lwiperf.c ****   LWIP_ASSERT("invalid conn", conn->conn_pcb == tpcb);
 1109              		.loc 1 333 3
 1110              	.LVL126:
 334:C:/Users/stapi/OneDrive/Desktop/GD32VW553/V1_MQTT_OK/GD32VW55X_Wifi_BLE_SDK/GD32VW55x_RELEASE_V1.0.2/MSDK/lwip/lwip-2.1.2/src/apps/lwiperf\lwiperf.c ****   LWIP_UNUSED_ARG(tpcb);
 1111              		.loc 1 334 3
 334:C:/Users/stapi/OneDrive/Desktop/GD32VW553/V1_MQTT_OK/GD32VW55X_Wifi_BLE_SDK/GD32VW55x_RELEASE_V1.0.2/MSDK/lwip/lwip-2.1.2/src/apps/lwiperf\lwiperf.c ****   LWIP_UNUSED_ARG(tpcb);
 1112              		.loc 1 334 3
 1113 0008 1C49     		lw	a5,16(a0)
 1114 000a 6385B702 		beq	a5,a1,.L103
 334:C:/Users/stapi/OneDrive/Desktop/GD32VW553/V1_MQTT_OK/GD32VW55X_Wifi_BLE_SDK/GD32VW55x_RELEASE_V1.0.2/MSDK/lwip/lwip-2.1.2/src/apps/lwiperf\lwiperf.c ****   LWIP_UNUSED_ARG(tpcb);
 1115              		.loc 1 334 3 discriminator 1
 334:C:/Users/stapi/OneDrive/Desktop/GD32VW553/V1_MQTT_OK/GD32VW55X_Wifi_BLE_SDK/GD32VW55x_RELEASE_V1.0.2/MSDK/lwip/lwip-2.1.2/src/apps/lwiperf\lwiperf.c ****   LWIP_UNUSED_ARG(tpcb);
 1116              		.loc 1 334 3 discriminator 1
 1117 000e B7060000 		lui	a3,%hi(.LC0)
 1118 0012 B7050000 		lui	a1,%hi(.LC10)
 1119              	.LVL127:
 1120 0016 37050000 		lui	a0,%hi(.LC2)
 1121              	.LVL128:
 1122 001a 93860600 		addi	a3,a3,%lo(.LC0)
 1123 001e 1306E014 		li	a2,334
 1124              	.LVL129:
 1125 0022 93850500 		addi	a1,a1,%lo(.LC10)
 1126 0026 13050500 		addi	a0,a0,%lo(.LC2)
 1127 002a 97000000 		call	printf
 1127      E7800000 
 1128              	.LVL130:
 1129              	.L104:
 334:C:/Users/stapi/OneDrive/Desktop/GD32VW553/V1_MQTT_OK/GD32VW55X_Wifi_BLE_SDK/GD32VW55x_RELEASE_V1.0.2/MSDK/lwip/lwip-2.1.2/src/apps/lwiperf\lwiperf.c ****   LWIP_UNUSED_ARG(tpcb);
 1130              		.loc 1 334 3 discriminator 1
 334:C:/Users/stapi/OneDrive/Desktop/GD32VW553/V1_MQTT_OK/GD32VW55X_Wifi_BLE_SDK/GD32VW55x_RELEASE_V1.0.2/MSDK/lwip/lwip-2.1.2/src/apps/lwiperf\lwiperf.c ****   LWIP_UNUSED_ARG(tpcb);
 1131              		.loc 1 334 3 discriminator 1
 334:C:/Users/stapi/OneDrive/Desktop/GD32VW553/V1_MQTT_OK/GD32VW55X_Wifi_BLE_SDK/GD32VW55x_RELEASE_V1.0.2/MSDK/lwip/lwip-2.1.2/src/apps/lwiperf\lwiperf.c ****   LWIP_UNUSED_ARG(tpcb);
 1132              		.loc 1 334 3 discriminator 1
 1133 0032 01A0     		j	.L104
 1134              	.LVL131:
 1135              	.L103:
 334:C:/Users/stapi/OneDrive/Desktop/GD32VW553/V1_MQTT_OK/GD32VW55X_Wifi_BLE_SDK/GD32VW55x_RELEASE_V1.0.2/MSDK/lwip/lwip-2.1.2/src/apps/lwiperf\lwiperf.c ****   LWIP_UNUSED_ARG(tpcb);
 1136              		.loc 1 334 3 discriminator 2
 334:C:/Users/stapi/OneDrive/Desktop/GD32VW553/V1_MQTT_OK/GD32VW55X_Wifi_BLE_SDK/GD32VW55x_RELEASE_V1.0.2/MSDK/lwip/lwip-2.1.2/src/apps/lwiperf\lwiperf.c ****   LWIP_UNUSED_ARG(tpcb);
 1137              		.loc 1 334 3 discriminator 2
 335:C:/Users/stapi/OneDrive/Desktop/GD32VW553/V1_MQTT_OK/GD32VW55X_Wifi_BLE_SDK/GD32VW55x_RELEASE_V1.0.2/MSDK/lwip/lwip-2.1.2/src/apps/lwiperf\lwiperf.c ****   if (err != ERR_OK) {
 1138              		.loc 1 335 3 discriminator 2
 336:C:/Users/stapi/OneDrive/Desktop/GD32VW553/V1_MQTT_OK/GD32VW55X_Wifi_BLE_SDK/GD32VW55x_RELEASE_V1.0.2/MSDK/lwip/lwip-2.1.2/src/apps/lwiperf\lwiperf.c ****     lwiperf_tcp_close(conn, LWIPERF_TCP_ABORTED_REMOTE);
 1139              		.loc 1 336 3 discriminator 2
 336:C:/Users/stapi/OneDrive/Desktop/GD32VW553/V1_MQTT_OK/GD32VW55X_Wifi_BLE_SDK/GD32VW55x_RELEASE_V1.0.2/MSDK/lwip/lwip-2.1.2/src/apps/lwiperf\lwiperf.c ****     lwiperf_tcp_close(conn, LWIPERF_TCP_ABORTED_REMOTE);
 1140              		.loc 1 336 6 is_stmt 0 discriminator 2
 1141 0034 19CA     		beq	a2,zero,.L105
 337:C:/Users/stapi/OneDrive/Desktop/GD32VW553/V1_MQTT_OK/GD32VW55X_Wifi_BLE_SDK/GD32VW55x_RELEASE_V1.0.2/MSDK/lwip/lwip-2.1.2/src/apps/lwiperf\lwiperf.c ****     return ERR_OK;
 1142              		.loc 1 337 5 is_stmt 1
 1143 0036 9545     		li	a1,5
 1144              	.LVL132:
 1145 0038 97000000 		call	lwiperf_tcp_close
 1145      E7800000 
 1146              	.LVL133:
 338:C:/Users/stapi/OneDrive/Desktop/GD32VW553/V1_MQTT_OK/GD32VW55X_Wifi_BLE_SDK/GD32VW55x_RELEASE_V1.0.2/MSDK/lwip/lwip-2.1.2/src/apps/lwiperf\lwiperf.c ****   }
 1147              		.loc 1 338 5
 338:C:/Users/stapi/OneDrive/Desktop/GD32VW553/V1_MQTT_OK/GD32VW55X_Wifi_BLE_SDK/GD32VW55x_RELEASE_V1.0.2/MSDK/lwip/lwip-2.1.2/src/apps/lwiperf\lwiperf.c ****   }
 1148              		.loc 1 338 12 is_stmt 0
 1149 0040 0145     		li	a0,0
 1150              	.L106:
 343:C:/Users/stapi/OneDrive/Desktop/GD32VW553/V1_MQTT_OK/GD32VW55X_Wifi_BLE_SDK/GD32VW55x_RELEASE_V1.0.2/MSDK/lwip/lwip-2.1.2/src/apps/lwiperf\lwiperf.c **** 
 1151              		.loc 1 343 1
 1152 0042 17030000 		tail	__riscv_restore_1
 1152      67000300 
 1153              		.cfi_remember_state
 1154              		.cfi_restore 8
 1155              		.cfi_restore 1
 1156              		.cfi_def_cfa_offset 0
 1157              	.LVL134:
 1158              	.L105:
 1159              		.cfi_restore_state
 1160              	.LBB60:
 1161              	.LBB61:
 340:C:/Users/stapi/OneDrive/Desktop/GD32VW553/V1_MQTT_OK/GD32VW55X_Wifi_BLE_SDK/GD32VW55x_RELEASE_V1.0.2/MSDK/lwip/lwip-2.1.2/src/apps/lwiperf\lwiperf.c ****   conn->time_started = sys_now();
 1162              		.loc 1 340 20
 1163 004a 23000502 		sb	zero,32(a0)
 1164 004e 2A84     		mv	s0,a0
 1165              	.LVL135:
 340:C:/Users/stapi/OneDrive/Desktop/GD32VW553/V1_MQTT_OK/GD32VW55X_Wifi_BLE_SDK/GD32VW55x_RELEASE_V1.0.2/MSDK/lwip/lwip-2.1.2/src/apps/lwiperf\lwiperf.c ****   conn->time_started = sys_now();
 1166              		.loc 1 340 3 is_stmt 1
 341:C:/Users/stapi/OneDrive/Desktop/GD32VW553/V1_MQTT_OK/GD32VW55X_Wifi_BLE_SDK/GD32VW55x_RELEASE_V1.0.2/MSDK/lwip/lwip-2.1.2/src/apps/lwiperf\lwiperf.c ****   return lwiperf_tcp_client_send_more(conn);
 1167              		.loc 1 341 3
 341:C:/Users/stapi/OneDrive/Desktop/GD32VW553/V1_MQTT_OK/GD32VW55X_Wifi_BLE_SDK/GD32VW55x_RELEASE_V1.0.2/MSDK/lwip/lwip-2.1.2/src/apps/lwiperf\lwiperf.c ****   return lwiperf_tcp_client_send_more(conn);
 1168              		.loc 1 341 24 is_stmt 0
 1169 0050 97000000 		call	sys_now
 1169      E7800000 
 1170              	.LVL136:
 341:C:/Users/stapi/OneDrive/Desktop/GD32VW553/V1_MQTT_OK/GD32VW55X_Wifi_BLE_SDK/GD32VW55x_RELEASE_V1.0.2/MSDK/lwip/lwip-2.1.2/src/apps/lwiperf\lwiperf.c ****   return lwiperf_tcp_client_send_more(conn);
 1171              		.loc 1 341 22
 1172 0058 48C8     		sw	a0,20(s0)
 342:C:/Users/stapi/OneDrive/Desktop/GD32VW553/V1_MQTT_OK/GD32VW55X_Wifi_BLE_SDK/GD32VW55x_RELEASE_V1.0.2/MSDK/lwip/lwip-2.1.2/src/apps/lwiperf\lwiperf.c **** }
 1173              		.loc 1 342 3 is_stmt 1
 342:C:/Users/stapi/OneDrive/Desktop/GD32VW553/V1_MQTT_OK/GD32VW55X_Wifi_BLE_SDK/GD32VW55x_RELEASE_V1.0.2/MSDK/lwip/lwip-2.1.2/src/apps/lwiperf\lwiperf.c **** }
 1174              		.loc 1 342 10 is_stmt 0
 1175 005a 2285     		mv	a0,s0
 1176 005c 97000000 		call	lwiperf_tcp_client_send_more
 1176      E7800000 
 1177              	.LVL137:
 1178 0064 F9BF     		j	.L106
 1179              	.LBE61:
 1180              	.LBE60:
 1181              		.cfi_endproc
 1182              	.LFE11:
 1184              		.section	.text.lwiperf_start_tcp_server_impl.constprop.0,"ax",@progbits
 1185              		.align	1
 1187              	lwiperf_start_tcp_server_impl.constprop.0:
 1188              	.LFB31:
 607:C:/Users/stapi/OneDrive/Desktop/GD32VW553/V1_MQTT_OK/GD32VW55X_Wifi_BLE_SDK/GD32VW55x_RELEASE_V1.0.2/MSDK/lwip/lwip-2.1.2/src/apps/lwiperf\lwiperf.c **** 
 608:C:/Users/stapi/OneDrive/Desktop/GD32VW553/V1_MQTT_OK/GD32VW55X_Wifi_BLE_SDK/GD32VW55x_RELEASE_V1.0.2/MSDK/lwip/lwip-2.1.2/src/apps/lwiperf\lwiperf.c **** /**
 609:C:/Users/stapi/OneDrive/Desktop/GD32VW553/V1_MQTT_OK/GD32VW55X_Wifi_BLE_SDK/GD32VW55x_RELEASE_V1.0.2/MSDK/lwip/lwip-2.1.2/src/apps/lwiperf\lwiperf.c ****  * @ingroup iperf
 610:C:/Users/stapi/OneDrive/Desktop/GD32VW553/V1_MQTT_OK/GD32VW55X_Wifi_BLE_SDK/GD32VW55x_RELEASE_V1.0.2/MSDK/lwip/lwip-2.1.2/src/apps/lwiperf\lwiperf.c ****  * Start a TCP iperf server on the default TCP port (5001) and listen for
 611:C:/Users/stapi/OneDrive/Desktop/GD32VW553/V1_MQTT_OK/GD32VW55X_Wifi_BLE_SDK/GD32VW55x_RELEASE_V1.0.2/MSDK/lwip/lwip-2.1.2/src/apps/lwiperf\lwiperf.c ****  * incoming connections from iperf clients.
 612:C:/Users/stapi/OneDrive/Desktop/GD32VW553/V1_MQTT_OK/GD32VW55X_Wifi_BLE_SDK/GD32VW55x_RELEASE_V1.0.2/MSDK/lwip/lwip-2.1.2/src/apps/lwiperf\lwiperf.c ****  *
 613:C:/Users/stapi/OneDrive/Desktop/GD32VW553/V1_MQTT_OK/GD32VW55X_Wifi_BLE_SDK/GD32VW55x_RELEASE_V1.0.2/MSDK/lwip/lwip-2.1.2/src/apps/lwiperf\lwiperf.c ****  * @returns a connection handle that can be used to abort the server
 614:C:/Users/stapi/OneDrive/Desktop/GD32VW553/V1_MQTT_OK/GD32VW55X_Wifi_BLE_SDK/GD32VW55x_RELEASE_V1.0.2/MSDK/lwip/lwip-2.1.2/src/apps/lwiperf\lwiperf.c ****  *          by calling @ref lwiperf_abort()
 615:C:/Users/stapi/OneDrive/Desktop/GD32VW553/V1_MQTT_OK/GD32VW55X_Wifi_BLE_SDK/GD32VW55x_RELEASE_V1.0.2/MSDK/lwip/lwip-2.1.2/src/apps/lwiperf\lwiperf.c ****  */
 616:C:/Users/stapi/OneDrive/Desktop/GD32VW553/V1_MQTT_OK/GD32VW55X_Wifi_BLE_SDK/GD32VW55x_RELEASE_V1.0.2/MSDK/lwip/lwip-2.1.2/src/apps/lwiperf\lwiperf.c **** void *
 617:C:/Users/stapi/OneDrive/Desktop/GD32VW553/V1_MQTT_OK/GD32VW55X_Wifi_BLE_SDK/GD32VW55x_RELEASE_V1.0.2/MSDK/lwip/lwip-2.1.2/src/apps/lwiperf\lwiperf.c **** lwiperf_start_tcp_server_default(lwiperf_report_fn report_fn, void *report_arg)
 618:C:/Users/stapi/OneDrive/Desktop/GD32VW553/V1_MQTT_OK/GD32VW55X_Wifi_BLE_SDK/GD32VW55x_RELEASE_V1.0.2/MSDK/lwip/lwip-2.1.2/src/apps/lwiperf\lwiperf.c **** {
 619:C:/Users/stapi/OneDrive/Desktop/GD32VW553/V1_MQTT_OK/GD32VW55X_Wifi_BLE_SDK/GD32VW55x_RELEASE_V1.0.2/MSDK/lwip/lwip-2.1.2/src/apps/lwiperf\lwiperf.c ****   return lwiperf_start_tcp_server(IP_ADDR_ANY, LWIPERF_TCP_PORT_DEFAULT,
 620:C:/Users/stapi/OneDrive/Desktop/GD32VW553/V1_MQTT_OK/GD32VW55X_Wifi_BLE_SDK/GD32VW55x_RELEASE_V1.0.2/MSDK/lwip/lwip-2.1.2/src/apps/lwiperf\lwiperf.c ****                                   report_fn, report_arg);
 621:C:/Users/stapi/OneDrive/Desktop/GD32VW553/V1_MQTT_OK/GD32VW55X_Wifi_BLE_SDK/GD32VW55x_RELEASE_V1.0.2/MSDK/lwip/lwip-2.1.2/src/apps/lwiperf\lwiperf.c **** }
 622:C:/Users/stapi/OneDrive/Desktop/GD32VW553/V1_MQTT_OK/GD32VW55X_Wifi_BLE_SDK/GD32VW55x_RELEASE_V1.0.2/MSDK/lwip/lwip-2.1.2/src/apps/lwiperf\lwiperf.c **** 
 623:C:/Users/stapi/OneDrive/Desktop/GD32VW553/V1_MQTT_OK/GD32VW55X_Wifi_BLE_SDK/GD32VW55x_RELEASE_V1.0.2/MSDK/lwip/lwip-2.1.2/src/apps/lwiperf\lwiperf.c **** /**
 624:C:/Users/stapi/OneDrive/Desktop/GD32VW553/V1_MQTT_OK/GD32VW55X_Wifi_BLE_SDK/GD32VW55x_RELEASE_V1.0.2/MSDK/lwip/lwip-2.1.2/src/apps/lwiperf\lwiperf.c ****  * @ingroup iperf
 625:C:/Users/stapi/OneDrive/Desktop/GD32VW553/V1_MQTT_OK/GD32VW55X_Wifi_BLE_SDK/GD32VW55x_RELEASE_V1.0.2/MSDK/lwip/lwip-2.1.2/src/apps/lwiperf\lwiperf.c ****  * Start a TCP iperf server on a specific IP address and port and listen for
 626:C:/Users/stapi/OneDrive/Desktop/GD32VW553/V1_MQTT_OK/GD32VW55X_Wifi_BLE_SDK/GD32VW55x_RELEASE_V1.0.2/MSDK/lwip/lwip-2.1.2/src/apps/lwiperf\lwiperf.c ****  * incoming connections from iperf clients.
 627:C:/Users/stapi/OneDrive/Desktop/GD32VW553/V1_MQTT_OK/GD32VW55X_Wifi_BLE_SDK/GD32VW55x_RELEASE_V1.0.2/MSDK/lwip/lwip-2.1.2/src/apps/lwiperf\lwiperf.c ****  *
 628:C:/Users/stapi/OneDrive/Desktop/GD32VW553/V1_MQTT_OK/GD32VW55X_Wifi_BLE_SDK/GD32VW55x_RELEASE_V1.0.2/MSDK/lwip/lwip-2.1.2/src/apps/lwiperf\lwiperf.c ****  * @returns a connection handle that can be used to abort the server
 629:C:/Users/stapi/OneDrive/Desktop/GD32VW553/V1_MQTT_OK/GD32VW55X_Wifi_BLE_SDK/GD32VW55x_RELEASE_V1.0.2/MSDK/lwip/lwip-2.1.2/src/apps/lwiperf\lwiperf.c ****  *          by calling @ref lwiperf_abort()
 630:C:/Users/stapi/OneDrive/Desktop/GD32VW553/V1_MQTT_OK/GD32VW55X_Wifi_BLE_SDK/GD32VW55x_RELEASE_V1.0.2/MSDK/lwip/lwip-2.1.2/src/apps/lwiperf\lwiperf.c ****  */
 631:C:/Users/stapi/OneDrive/Desktop/GD32VW553/V1_MQTT_OK/GD32VW55X_Wifi_BLE_SDK/GD32VW55x_RELEASE_V1.0.2/MSDK/lwip/lwip-2.1.2/src/apps/lwiperf\lwiperf.c **** void *
 632:C:/Users/stapi/OneDrive/Desktop/GD32VW553/V1_MQTT_OK/GD32VW55X_Wifi_BLE_SDK/GD32VW55x_RELEASE_V1.0.2/MSDK/lwip/lwip-2.1.2/src/apps/lwiperf\lwiperf.c **** lwiperf_start_tcp_server(const ip_addr_t *local_addr, u16_t local_port,
 633:C:/Users/stapi/OneDrive/Desktop/GD32VW553/V1_MQTT_OK/GD32VW55X_Wifi_BLE_SDK/GD32VW55x_RELEASE_V1.0.2/MSDK/lwip/lwip-2.1.2/src/apps/lwiperf\lwiperf.c ****                          lwiperf_report_fn report_fn, void *report_arg)
 634:C:/Users/stapi/OneDrive/Desktop/GD32VW553/V1_MQTT_OK/GD32VW55X_Wifi_BLE_SDK/GD32VW55x_RELEASE_V1.0.2/MSDK/lwip/lwip-2.1.2/src/apps/lwiperf\lwiperf.c **** {
 635:C:/Users/stapi/OneDrive/Desktop/GD32VW553/V1_MQTT_OK/GD32VW55X_Wifi_BLE_SDK/GD32VW55x_RELEASE_V1.0.2/MSDK/lwip/lwip-2.1.2/src/apps/lwiperf\lwiperf.c ****   err_t err;
 636:C:/Users/stapi/OneDrive/Desktop/GD32VW553/V1_MQTT_OK/GD32VW55X_Wifi_BLE_SDK/GD32VW55x_RELEASE_V1.0.2/MSDK/lwip/lwip-2.1.2/src/apps/lwiperf\lwiperf.c ****   lwiperf_state_tcp_t *state = NULL;
 637:C:/Users/stapi/OneDrive/Desktop/GD32VW553/V1_MQTT_OK/GD32VW55X_Wifi_BLE_SDK/GD32VW55x_RELEASE_V1.0.2/MSDK/lwip/lwip-2.1.2/src/apps/lwiperf\lwiperf.c **** 
 638:C:/Users/stapi/OneDrive/Desktop/GD32VW553/V1_MQTT_OK/GD32VW55X_Wifi_BLE_SDK/GD32VW55x_RELEASE_V1.0.2/MSDK/lwip/lwip-2.1.2/src/apps/lwiperf\lwiperf.c ****   err = lwiperf_start_tcp_server_impl(local_addr, local_port, report_fn, report_arg,
 639:C:/Users/stapi/OneDrive/Desktop/GD32VW553/V1_MQTT_OK/GD32VW55X_Wifi_BLE_SDK/GD32VW55x_RELEASE_V1.0.2/MSDK/lwip/lwip-2.1.2/src/apps/lwiperf\lwiperf.c ****     NULL, &state);
 640:C:/Users/stapi/OneDrive/Desktop/GD32VW553/V1_MQTT_OK/GD32VW55X_Wifi_BLE_SDK/GD32VW55x_RELEASE_V1.0.2/MSDK/lwip/lwip-2.1.2/src/apps/lwiperf\lwiperf.c ****   if (err == ERR_OK) {
 641:C:/Users/stapi/OneDrive/Desktop/GD32VW553/V1_MQTT_OK/GD32VW55X_Wifi_BLE_SDK/GD32VW55x_RELEASE_V1.0.2/MSDK/lwip/lwip-2.1.2/src/apps/lwiperf\lwiperf.c ****     return state;
 642:C:/Users/stapi/OneDrive/Desktop/GD32VW553/V1_MQTT_OK/GD32VW55X_Wifi_BLE_SDK/GD32VW55x_RELEASE_V1.0.2/MSDK/lwip/lwip-2.1.2/src/apps/lwiperf\lwiperf.c ****   }
 643:C:/Users/stapi/OneDrive/Desktop/GD32VW553/V1_MQTT_OK/GD32VW55X_Wifi_BLE_SDK/GD32VW55x_RELEASE_V1.0.2/MSDK/lwip/lwip-2.1.2/src/apps/lwiperf\lwiperf.c ****   return NULL;
 644:C:/Users/stapi/OneDrive/Desktop/GD32VW553/V1_MQTT_OK/GD32VW55X_Wifi_BLE_SDK/GD32VW55x_RELEASE_V1.0.2/MSDK/lwip/lwip-2.1.2/src/apps/lwiperf\lwiperf.c **** }
 645:C:/Users/stapi/OneDrive/Desktop/GD32VW553/V1_MQTT_OK/GD32VW55X_Wifi_BLE_SDK/GD32VW55x_RELEASE_V1.0.2/MSDK/lwip/lwip-2.1.2/src/apps/lwiperf\lwiperf.c **** 
 646:C:/Users/stapi/OneDrive/Desktop/GD32VW553/V1_MQTT_OK/GD32VW55X_Wifi_BLE_SDK/GD32VW55x_RELEASE_V1.0.2/MSDK/lwip/lwip-2.1.2/src/apps/lwiperf\lwiperf.c **** static err_t lwiperf_start_tcp_server_impl(const ip_addr_t *local_addr, u16_t local_port,
 1189              		.loc 1 646 14 is_stmt 1
 1190              		.cfi_startproc
 1191              	.LVL138:
 1192 0000 17030000 		call	t0,__riscv_save_7
 1192      E7020300 
 1193              		.cfi_offset 22, -32
 1194              		.cfi_offset 21, -28
 1195              		.cfi_offset 20, -24
 1196              		.cfi_offset 19, -20
 1197              		.cfi_offset 18, -16
 1198              		.cfi_offset 9, -12
 1199              		.cfi_offset 8, -8
 1200              		.cfi_offset 1, -4
 1201              		.cfi_def_cfa_offset 32
 647:C:/Users/stapi/OneDrive/Desktop/GD32VW553/V1_MQTT_OK/GD32VW55X_Wifi_BLE_SDK/GD32VW55x_RELEASE_V1.0.2/MSDK/lwip/lwip-2.1.2/src/apps/lwiperf\lwiperf.c ****                                            lwiperf_report_fn report_fn, void *report_arg,
 648:C:/Users/stapi/OneDrive/Desktop/GD32VW553/V1_MQTT_OK/GD32VW55X_Wifi_BLE_SDK/GD32VW55x_RELEASE_V1.0.2/MSDK/lwip/lwip-2.1.2/src/apps/lwiperf\lwiperf.c ****                                            lwiperf_state_base_t *related_master_state, lwiperf_stat
 649:C:/Users/stapi/OneDrive/Desktop/GD32VW553/V1_MQTT_OK/GD32VW55X_Wifi_BLE_SDK/GD32VW55x_RELEASE_V1.0.2/MSDK/lwip/lwip-2.1.2/src/apps/lwiperf\lwiperf.c **** {
 650:C:/Users/stapi/OneDrive/Desktop/GD32VW553/V1_MQTT_OK/GD32VW55X_Wifi_BLE_SDK/GD32VW55x_RELEASE_V1.0.2/MSDK/lwip/lwip-2.1.2/src/apps/lwiperf\lwiperf.c ****   err_t err;
 1202              		.loc 1 650 3
 651:C:/Users/stapi/OneDrive/Desktop/GD32VW553/V1_MQTT_OK/GD32VW55X_Wifi_BLE_SDK/GD32VW55x_RELEASE_V1.0.2/MSDK/lwip/lwip-2.1.2/src/apps/lwiperf\lwiperf.c ****   struct tcp_pcb *pcb;
 1203              		.loc 1 651 3
 652:C:/Users/stapi/OneDrive/Desktop/GD32VW553/V1_MQTT_OK/GD32VW55X_Wifi_BLE_SDK/GD32VW55x_RELEASE_V1.0.2/MSDK/lwip/lwip-2.1.2/src/apps/lwiperf\lwiperf.c ****   lwiperf_state_tcp_t *s;
 1204              		.loc 1 652 3
 653:C:/Users/stapi/OneDrive/Desktop/GD32VW553/V1_MQTT_OK/GD32VW55X_Wifi_BLE_SDK/GD32VW55x_RELEASE_V1.0.2/MSDK/lwip/lwip-2.1.2/src/apps/lwiperf\lwiperf.c **** /* FT TAG */
 654:C:/Users/stapi/OneDrive/Desktop/GD32VW553/V1_MQTT_OK/GD32VW55X_Wifi_BLE_SDK/GD32VW55x_RELEASE_V1.0.2/MSDK/lwip/lwip-2.1.2/src/apps/lwiperf\lwiperf.c ****   unsigned int i;
 1205              		.loc 1 654 3
 655:C:/Users/stapi/OneDrive/Desktop/GD32VW553/V1_MQTT_OK/GD32VW55X_Wifi_BLE_SDK/GD32VW55x_RELEASE_V1.0.2/MSDK/lwip/lwip-2.1.2/src/apps/lwiperf\lwiperf.c **** /* FT TAG */
 656:C:/Users/stapi/OneDrive/Desktop/GD32VW553/V1_MQTT_OK/GD32VW55X_Wifi_BLE_SDK/GD32VW55x_RELEASE_V1.0.2/MSDK/lwip/lwip-2.1.2/src/apps/lwiperf\lwiperf.c ****   LWIP_ASSERT_CORE_LOCKED();
 1206              		.loc 1 656 28
 657:C:/Users/stapi/OneDrive/Desktop/GD32VW553/V1_MQTT_OK/GD32VW55X_Wifi_BLE_SDK/GD32VW55x_RELEASE_V1.0.2/MSDK/lwip/lwip-2.1.2/src/apps/lwiperf\lwiperf.c **** 
 658:C:/Users/stapi/OneDrive/Desktop/GD32VW553/V1_MQTT_OK/GD32VW55X_Wifi_BLE_SDK/GD32VW55x_RELEASE_V1.0.2/MSDK/lwip/lwip-2.1.2/src/apps/lwiperf\lwiperf.c ****   LWIP_ASSERT("state != NULL", state != NULL);
 1207              		.loc 1 658 3
 1208              		.loc 1 658 3
 1209              		.loc 1 658 3
 1210              		.loc 1 658 3
 659:C:/Users/stapi/OneDrive/Desktop/GD32VW553/V1_MQTT_OK/GD32VW55X_Wifi_BLE_SDK/GD32VW55x_RELEASE_V1.0.2/MSDK/lwip/lwip-2.1.2/src/apps/lwiperf\lwiperf.c **** 
 660:C:/Users/stapi/OneDrive/Desktop/GD32VW553/V1_MQTT_OK/GD32VW55X_Wifi_BLE_SDK/GD32VW55x_RELEASE_V1.0.2/MSDK/lwip/lwip-2.1.2/src/apps/lwiperf\lwiperf.c ****   if (local_addr == NULL) {
 1211              		.loc 1 660 3
 661:C:/Users/stapi/OneDrive/Desktop/GD32VW553/V1_MQTT_OK/GD32VW55X_Wifi_BLE_SDK/GD32VW55x_RELEASE_V1.0.2/MSDK/lwip/lwip-2.1.2/src/apps/lwiperf\lwiperf.c ****     return ERR_ARG;
 1212              		.loc 1 661 12 is_stmt 0
 1213 0008 C154     		li	s1,-16
 660:C:/Users/stapi/OneDrive/Desktop/GD32VW553/V1_MQTT_OK/GD32VW55X_Wifi_BLE_SDK/GD32VW55x_RELEASE_V1.0.2/MSDK/lwip/lwip-2.1.2/src/apps/lwiperf\lwiperf.c ****     return ERR_ARG;
 1214              		.loc 1 660 6
 1215 000a 05C1     		beq	a0,zero,.L109
 1216 000c AA84     		mv	s1,a0
 662:C:/Users/stapi/OneDrive/Desktop/GD32VW553/V1_MQTT_OK/GD32VW55X_Wifi_BLE_SDK/GD32VW55x_RELEASE_V1.0.2/MSDK/lwip/lwip-2.1.2/src/apps/lwiperf\lwiperf.c ****   }
 663:C:/Users/stapi/OneDrive/Desktop/GD32VW553/V1_MQTT_OK/GD32VW55X_Wifi_BLE_SDK/GD32VW55x_RELEASE_V1.0.2/MSDK/lwip/lwip-2.1.2/src/apps/lwiperf\lwiperf.c **** 
 664:C:/Users/stapi/OneDrive/Desktop/GD32VW553/V1_MQTT_OK/GD32VW55X_Wifi_BLE_SDK/GD32VW55x_RELEASE_V1.0.2/MSDK/lwip/lwip-2.1.2/src/apps/lwiperf\lwiperf.c ****   s = (lwiperf_state_tcp_t *)LWIPERF_ALLOC(lwiperf_state_tcp_t);
 1217              		.loc 1 664 30
 1218 000e 13058004 		li	a0,72
 1219              	.LVL139:
 1220 0012 2E8A     		mv	s4,a1
 1221 0014 B28A     		mv	s5,a2
 1222 0016 3689     		mv	s2,a3
 1223 0018 3A8B     		mv	s6,a4
 1224 001a BE89     		mv	s3,a5
 1225              		.loc 1 664 3 is_stmt 1
 1226              		.loc 1 664 30 is_stmt 0
 1227 001c 97000000 		call	mem_malloc
 1227      E7800000 
 1228              	.LVL140:
 1229 0024 2A84     		mv	s0,a0
 1230              	.LVL141:
 665:C:/Users/stapi/OneDrive/Desktop/GD32VW553/V1_MQTT_OK/GD32VW55X_Wifi_BLE_SDK/GD32VW55x_RELEASE_V1.0.2/MSDK/lwip/lwip-2.1.2/src/apps/lwiperf\lwiperf.c ****   if (s == NULL) {
 1231              		.loc 1 665 3 is_stmt 1
 1232              		.loc 1 665 6 is_stmt 0
 1233 0026 19E5     		bne	a0,zero,.L110
 1234              	.LVL142:
 1235              	.L122:
 666:C:/Users/stapi/OneDrive/Desktop/GD32VW553/V1_MQTT_OK/GD32VW55X_Wifi_BLE_SDK/GD32VW55x_RELEASE_V1.0.2/MSDK/lwip/lwip-2.1.2/src/apps/lwiperf\lwiperf.c ****     return ERR_MEM;
 667:C:/Users/stapi/OneDrive/Desktop/GD32VW553/V1_MQTT_OK/GD32VW55X_Wifi_BLE_SDK/GD32VW55x_RELEASE_V1.0.2/MSDK/lwip/lwip-2.1.2/src/apps/lwiperf\lwiperf.c ****   }
 668:C:/Users/stapi/OneDrive/Desktop/GD32VW553/V1_MQTT_OK/GD32VW55X_Wifi_BLE_SDK/GD32VW55x_RELEASE_V1.0.2/MSDK/lwip/lwip-2.1.2/src/apps/lwiperf\lwiperf.c ****   memset(s, 0, sizeof(lwiperf_state_tcp_t));
 669:C:/Users/stapi/OneDrive/Desktop/GD32VW553/V1_MQTT_OK/GD32VW55X_Wifi_BLE_SDK/GD32VW55x_RELEASE_V1.0.2/MSDK/lwip/lwip-2.1.2/src/apps/lwiperf\lwiperf.c ****   s->base.tcp = 1;
 670:C:/Users/stapi/OneDrive/Desktop/GD32VW553/V1_MQTT_OK/GD32VW55X_Wifi_BLE_SDK/GD32VW55x_RELEASE_V1.0.2/MSDK/lwip/lwip-2.1.2/src/apps/lwiperf\lwiperf.c ****   s->base.server = 1;
 671:C:/Users/stapi/OneDrive/Desktop/GD32VW553/V1_MQTT_OK/GD32VW55X_Wifi_BLE_SDK/GD32VW55x_RELEASE_V1.0.2/MSDK/lwip/lwip-2.1.2/src/apps/lwiperf\lwiperf.c ****   s->base.related_master_state = related_master_state;
 672:C:/Users/stapi/OneDrive/Desktop/GD32VW553/V1_MQTT_OK/GD32VW55X_Wifi_BLE_SDK/GD32VW55x_RELEASE_V1.0.2/MSDK/lwip/lwip-2.1.2/src/apps/lwiperf\lwiperf.c ****   s->report_fn = report_fn;
 673:C:/Users/stapi/OneDrive/Desktop/GD32VW553/V1_MQTT_OK/GD32VW55X_Wifi_BLE_SDK/GD32VW55x_RELEASE_V1.0.2/MSDK/lwip/lwip-2.1.2/src/apps/lwiperf\lwiperf.c ****   s->report_arg = report_arg;
 674:C:/Users/stapi/OneDrive/Desktop/GD32VW553/V1_MQTT_OK/GD32VW55X_Wifi_BLE_SDK/GD32VW55x_RELEASE_V1.0.2/MSDK/lwip/lwip-2.1.2/src/apps/lwiperf\lwiperf.c **** 
 675:C:/Users/stapi/OneDrive/Desktop/GD32VW553/V1_MQTT_OK/GD32VW55X_Wifi_BLE_SDK/GD32VW55x_RELEASE_V1.0.2/MSDK/lwip/lwip-2.1.2/src/apps/lwiperf\lwiperf.c ****   pcb = tcp_new_ip_type(LWIPERF_SERVER_IP_TYPE);
 676:C:/Users/stapi/OneDrive/Desktop/GD32VW553/V1_MQTT_OK/GD32VW55X_Wifi_BLE_SDK/GD32VW55x_RELEASE_V1.0.2/MSDK/lwip/lwip-2.1.2/src/apps/lwiperf\lwiperf.c ****   if (pcb == NULL) {
 677:C:/Users/stapi/OneDrive/Desktop/GD32VW553/V1_MQTT_OK/GD32VW55X_Wifi_BLE_SDK/GD32VW55x_RELEASE_V1.0.2/MSDK/lwip/lwip-2.1.2/src/apps/lwiperf\lwiperf.c ****     return ERR_MEM;
 678:C:/Users/stapi/OneDrive/Desktop/GD32VW553/V1_MQTT_OK/GD32VW55X_Wifi_BLE_SDK/GD32VW55x_RELEASE_V1.0.2/MSDK/lwip/lwip-2.1.2/src/apps/lwiperf\lwiperf.c ****   }
 679:C:/Users/stapi/OneDrive/Desktop/GD32VW553/V1_MQTT_OK/GD32VW55X_Wifi_BLE_SDK/GD32VW55x_RELEASE_V1.0.2/MSDK/lwip/lwip-2.1.2/src/apps/lwiperf\lwiperf.c ****   err = tcp_bind(pcb, local_addr, local_port);
 680:C:/Users/stapi/OneDrive/Desktop/GD32VW553/V1_MQTT_OK/GD32VW55X_Wifi_BLE_SDK/GD32VW55x_RELEASE_V1.0.2/MSDK/lwip/lwip-2.1.2/src/apps/lwiperf\lwiperf.c ****   if (err != ERR_OK) {
 681:C:/Users/stapi/OneDrive/Desktop/GD32VW553/V1_MQTT_OK/GD32VW55X_Wifi_BLE_SDK/GD32VW55x_RELEASE_V1.0.2/MSDK/lwip/lwip-2.1.2/src/apps/lwiperf\lwiperf.c ****     return err;
 682:C:/Users/stapi/OneDrive/Desktop/GD32VW553/V1_MQTT_OK/GD32VW55X_Wifi_BLE_SDK/GD32VW55x_RELEASE_V1.0.2/MSDK/lwip/lwip-2.1.2/src/apps/lwiperf\lwiperf.c ****   }
 683:C:/Users/stapi/OneDrive/Desktop/GD32VW553/V1_MQTT_OK/GD32VW55X_Wifi_BLE_SDK/GD32VW55x_RELEASE_V1.0.2/MSDK/lwip/lwip-2.1.2/src/apps/lwiperf\lwiperf.c ****   s->server_pcb = tcp_listen_with_backlog(pcb, 1);
 684:C:/Users/stapi/OneDrive/Desktop/GD32VW553/V1_MQTT_OK/GD32VW55X_Wifi_BLE_SDK/GD32VW55x_RELEASE_V1.0.2/MSDK/lwip/lwip-2.1.2/src/apps/lwiperf\lwiperf.c ****   if (s->server_pcb == NULL) {
 685:C:/Users/stapi/OneDrive/Desktop/GD32VW553/V1_MQTT_OK/GD32VW55X_Wifi_BLE_SDK/GD32VW55x_RELEASE_V1.0.2/MSDK/lwip/lwip-2.1.2/src/apps/lwiperf\lwiperf.c ****     if (pcb != NULL) {
 686:C:/Users/stapi/OneDrive/Desktop/GD32VW553/V1_MQTT_OK/GD32VW55X_Wifi_BLE_SDK/GD32VW55x_RELEASE_V1.0.2/MSDK/lwip/lwip-2.1.2/src/apps/lwiperf\lwiperf.c ****       tcp_close(pcb);
 687:C:/Users/stapi/OneDrive/Desktop/GD32VW553/V1_MQTT_OK/GD32VW55X_Wifi_BLE_SDK/GD32VW55x_RELEASE_V1.0.2/MSDK/lwip/lwip-2.1.2/src/apps/lwiperf\lwiperf.c ****     }
 688:C:/Users/stapi/OneDrive/Desktop/GD32VW553/V1_MQTT_OK/GD32VW55X_Wifi_BLE_SDK/GD32VW55x_RELEASE_V1.0.2/MSDK/lwip/lwip-2.1.2/src/apps/lwiperf\lwiperf.c ****     LWIPERF_FREE(lwiperf_state_tcp_t, s);
 689:C:/Users/stapi/OneDrive/Desktop/GD32VW553/V1_MQTT_OK/GD32VW55X_Wifi_BLE_SDK/GD32VW55x_RELEASE_V1.0.2/MSDK/lwip/lwip-2.1.2/src/apps/lwiperf\lwiperf.c ****     return ERR_MEM;
 1236              		.loc 1 689 5 is_stmt 1
 1237              		.loc 1 689 12 is_stmt 0
 1238 0028 FD54     		li	s1,-1
 1239              	.LVL143:
 1240              	.L109:
 690:C:/Users/stapi/OneDrive/Desktop/GD32VW553/V1_MQTT_OK/GD32VW55X_Wifi_BLE_SDK/GD32VW55x_RELEASE_V1.0.2/MSDK/lwip/lwip-2.1.2/src/apps/lwiperf\lwiperf.c ****   }
 691:C:/Users/stapi/OneDrive/Desktop/GD32VW553/V1_MQTT_OK/GD32VW55X_Wifi_BLE_SDK/GD32VW55x_RELEASE_V1.0.2/MSDK/lwip/lwip-2.1.2/src/apps/lwiperf\lwiperf.c ****   pcb = NULL;
 692:C:/Users/stapi/OneDrive/Desktop/GD32VW553/V1_MQTT_OK/GD32VW55X_Wifi_BLE_SDK/GD32VW55x_RELEASE_V1.0.2/MSDK/lwip/lwip-2.1.2/src/apps/lwiperf\lwiperf.c **** /* FT TAG */
 693:C:/Users/stapi/OneDrive/Desktop/GD32VW553/V1_MQTT_OK/GD32VW55X_Wifi_BLE_SDK/GD32VW55x_RELEASE_V1.0.2/MSDK/lwip/lwip-2.1.2/src/apps/lwiperf\lwiperf.c ****   for (i = 0; i < sizeof(lwiperf_txbuf_const); i++)
 694:C:/Users/stapi/OneDrive/Desktop/GD32VW553/V1_MQTT_OK/GD32VW55X_Wifi_BLE_SDK/GD32VW55x_RELEASE_V1.0.2/MSDK/lwip/lwip-2.1.2/src/apps/lwiperf\lwiperf.c ****   {
 695:C:/Users/stapi/OneDrive/Desktop/GD32VW553/V1_MQTT_OK/GD32VW55X_Wifi_BLE_SDK/GD32VW55x_RELEASE_V1.0.2/MSDK/lwip/lwip-2.1.2/src/apps/lwiperf\lwiperf.c ****       lwiperf_txbuf_const[i] = 0x30 + i % 10;
 696:C:/Users/stapi/OneDrive/Desktop/GD32VW553/V1_MQTT_OK/GD32VW55X_Wifi_BLE_SDK/GD32VW55x_RELEASE_V1.0.2/MSDK/lwip/lwip-2.1.2/src/apps/lwiperf\lwiperf.c ****   }
 697:C:/Users/stapi/OneDrive/Desktop/GD32VW553/V1_MQTT_OK/GD32VW55X_Wifi_BLE_SDK/GD32VW55x_RELEASE_V1.0.2/MSDK/lwip/lwip-2.1.2/src/apps/lwiperf\lwiperf.c **** /* FT TAG */
 698:C:/Users/stapi/OneDrive/Desktop/GD32VW553/V1_MQTT_OK/GD32VW55X_Wifi_BLE_SDK/GD32VW55x_RELEASE_V1.0.2/MSDK/lwip/lwip-2.1.2/src/apps/lwiperf\lwiperf.c ****   tcp_arg(s->server_pcb, s);
 699:C:/Users/stapi/OneDrive/Desktop/GD32VW553/V1_MQTT_OK/GD32VW55X_Wifi_BLE_SDK/GD32VW55x_RELEASE_V1.0.2/MSDK/lwip/lwip-2.1.2/src/apps/lwiperf\lwiperf.c ****   tcp_accept(s->server_pcb, lwiperf_tcp_accept);
 700:C:/Users/stapi/OneDrive/Desktop/GD32VW553/V1_MQTT_OK/GD32VW55X_Wifi_BLE_SDK/GD32VW55x_RELEASE_V1.0.2/MSDK/lwip/lwip-2.1.2/src/apps/lwiperf\lwiperf.c **** 
 701:C:/Users/stapi/OneDrive/Desktop/GD32VW553/V1_MQTT_OK/GD32VW55X_Wifi_BLE_SDK/GD32VW55x_RELEASE_V1.0.2/MSDK/lwip/lwip-2.1.2/src/apps/lwiperf\lwiperf.c ****   lwiperf_list_add(&s->base);
 702:C:/Users/stapi/OneDrive/Desktop/GD32VW553/V1_MQTT_OK/GD32VW55X_Wifi_BLE_SDK/GD32VW55x_RELEASE_V1.0.2/MSDK/lwip/lwip-2.1.2/src/apps/lwiperf\lwiperf.c ****   *state = s;
 703:C:/Users/stapi/OneDrive/Desktop/GD32VW553/V1_MQTT_OK/GD32VW55X_Wifi_BLE_SDK/GD32VW55x_RELEASE_V1.0.2/MSDK/lwip/lwip-2.1.2/src/apps/lwiperf\lwiperf.c ****   return ERR_OK;
 704:C:/Users/stapi/OneDrive/Desktop/GD32VW553/V1_MQTT_OK/GD32VW55X_Wifi_BLE_SDK/GD32VW55x_RELEASE_V1.0.2/MSDK/lwip/lwip-2.1.2/src/apps/lwiperf\lwiperf.c **** }
 1241              		.loc 1 704 1
 1242 002a 2685     		mv	a0,s1
 1243 002c 17030000 		tail	__riscv_restore_7
 1243      67000300 
 1244              		.cfi_remember_state
 1245              		.cfi_restore 22
 1246              		.cfi_restore 21
 1247              		.cfi_restore 20
 1248              		.cfi_restore 19
 1249              		.cfi_restore 18
 1250              		.cfi_restore 9
 1251              		.cfi_restore 8
 1252              		.cfi_restore 1
 1253              		.cfi_def_cfa_offset 0
 1254              	.LVL144:
 1255              	.L110:
 1256              		.cfi_restore_state
 668:C:/Users/stapi/OneDrive/Desktop/GD32VW553/V1_MQTT_OK/GD32VW55X_Wifi_BLE_SDK/GD32VW55x_RELEASE_V1.0.2/MSDK/lwip/lwip-2.1.2/src/apps/lwiperf\lwiperf.c ****   s->base.tcp = 1;
 1257              		.loc 1 668 3 is_stmt 1
 1258 0034 13068004 		li	a2,72
 1259 0038 8145     		li	a1,0
 1260 003a 97000000 		call	memset
 1260      E7800000 
 1261              	.LVL145:
 669:C:/Users/stapi/OneDrive/Desktop/GD32VW553/V1_MQTT_OK/GD32VW55X_Wifi_BLE_SDK/GD32VW55x_RELEASE_V1.0.2/MSDK/lwip/lwip-2.1.2/src/apps/lwiperf\lwiperf.c ****   s->base.server = 1;
 1262              		.loc 1 669 3
 670:C:/Users/stapi/OneDrive/Desktop/GD32VW553/V1_MQTT_OK/GD32VW55X_Wifi_BLE_SDK/GD32VW55x_RELEASE_V1.0.2/MSDK/lwip/lwip-2.1.2/src/apps/lwiperf\lwiperf.c ****   s->base.related_master_state = related_master_state;
 1263              		.loc 1 670 3
 669:C:/Users/stapi/OneDrive/Desktop/GD32VW553/V1_MQTT_OK/GD32VW55X_Wifi_BLE_SDK/GD32VW55x_RELEASE_V1.0.2/MSDK/lwip/lwip-2.1.2/src/apps/lwiperf\lwiperf.c ****   s->base.server = 1;
 1264              		.loc 1 669 15 is_stmt 0
 1265 0042 93071010 		li	a5,257
 673:C:/Users/stapi/OneDrive/Desktop/GD32VW553/V1_MQTT_OK/GD32VW55X_Wifi_BLE_SDK/GD32VW55x_RELEASE_V1.0.2/MSDK/lwip/lwip-2.1.2/src/apps/lwiperf\lwiperf.c **** 
 1266              		.loc 1 673 17
 1267 0046 232E2401 		sw	s2,28(s0)
 669:C:/Users/stapi/OneDrive/Desktop/GD32VW553/V1_MQTT_OK/GD32VW55X_Wifi_BLE_SDK/GD32VW55x_RELEASE_V1.0.2/MSDK/lwip/lwip-2.1.2/src/apps/lwiperf\lwiperf.c ****   s->base.server = 1;
 1268              		.loc 1 669 15
 1269 004a 2312F400 		sh	a5,4(s0)
 671:C:/Users/stapi/OneDrive/Desktop/GD32VW553/V1_MQTT_OK/GD32VW55X_Wifi_BLE_SDK/GD32VW55x_RELEASE_V1.0.2/MSDK/lwip/lwip-2.1.2/src/apps/lwiperf\lwiperf.c ****   s->report_fn = report_fn;
 1270              		.loc 1 671 3 is_stmt 1
 671:C:/Users/stapi/OneDrive/Desktop/GD32VW553/V1_MQTT_OK/GD32VW55X_Wifi_BLE_SDK/GD32VW55x_RELEASE_V1.0.2/MSDK/lwip/lwip-2.1.2/src/apps/lwiperf\lwiperf.c ****   s->report_fn = report_fn;
 1271              		.loc 1 671 32 is_stmt 0
 1272 004e 23246401 		sw	s6,8(s0)
 672:C:/Users/stapi/OneDrive/Desktop/GD32VW553/V1_MQTT_OK/GD32VW55X_Wifi_BLE_SDK/GD32VW55x_RELEASE_V1.0.2/MSDK/lwip/lwip-2.1.2/src/apps/lwiperf\lwiperf.c ****   s->report_arg = report_arg;
 1273              		.loc 1 672 3 is_stmt 1
 672:C:/Users/stapi/OneDrive/Desktop/GD32VW553/V1_MQTT_OK/GD32VW55X_Wifi_BLE_SDK/GD32VW55x_RELEASE_V1.0.2/MSDK/lwip/lwip-2.1.2/src/apps/lwiperf\lwiperf.c ****   s->report_arg = report_arg;
 1274              		.loc 1 672 16 is_stmt 0
 1275 0052 232C5401 		sw	s5,24(s0)
 673:C:/Users/stapi/OneDrive/Desktop/GD32VW553/V1_MQTT_OK/GD32VW55X_Wifi_BLE_SDK/GD32VW55x_RELEASE_V1.0.2/MSDK/lwip/lwip-2.1.2/src/apps/lwiperf\lwiperf.c **** 
 1276              		.loc 1 673 3 is_stmt 1
 675:C:/Users/stapi/OneDrive/Desktop/GD32VW553/V1_MQTT_OK/GD32VW55X_Wifi_BLE_SDK/GD32VW55x_RELEASE_V1.0.2/MSDK/lwip/lwip-2.1.2/src/apps/lwiperf\lwiperf.c ****   if (pcb == NULL) {
 1277              		.loc 1 675 3
 675:C:/Users/stapi/OneDrive/Desktop/GD32VW553/V1_MQTT_OK/GD32VW55X_Wifi_BLE_SDK/GD32VW55x_RELEASE_V1.0.2/MSDK/lwip/lwip-2.1.2/src/apps/lwiperf\lwiperf.c ****   if (pcb == NULL) {
 1278              		.loc 1 675 9 is_stmt 0
 1279 0056 1305E002 		li	a0,46
 1280 005a 97000000 		call	tcp_new_ip_type
 1280      E7800000 
 1281              	.LVL146:
 1282 0062 2A89     		mv	s2,a0
 1283              	.LVL147:
 676:C:/Users/stapi/OneDrive/Desktop/GD32VW553/V1_MQTT_OK/GD32VW55X_Wifi_BLE_SDK/GD32VW55x_RELEASE_V1.0.2/MSDK/lwip/lwip-2.1.2/src/apps/lwiperf\lwiperf.c ****     return ERR_MEM;
 1284              		.loc 1 676 3 is_stmt 1
 676:C:/Users/stapi/OneDrive/Desktop/GD32VW553/V1_MQTT_OK/GD32VW55X_Wifi_BLE_SDK/GD32VW55x_RELEASE_V1.0.2/MSDK/lwip/lwip-2.1.2/src/apps/lwiperf\lwiperf.c ****     return ERR_MEM;
 1285              		.loc 1 676 6 is_stmt 0
 1286 0064 71D1     		beq	a0,zero,.L122
 679:C:/Users/stapi/OneDrive/Desktop/GD32VW553/V1_MQTT_OK/GD32VW55X_Wifi_BLE_SDK/GD32VW55x_RELEASE_V1.0.2/MSDK/lwip/lwip-2.1.2/src/apps/lwiperf\lwiperf.c ****   if (err != ERR_OK) {
 1287              		.loc 1 679 3 is_stmt 1
 679:C:/Users/stapi/OneDrive/Desktop/GD32VW553/V1_MQTT_OK/GD32VW55X_Wifi_BLE_SDK/GD32VW55x_RELEASE_V1.0.2/MSDK/lwip/lwip-2.1.2/src/apps/lwiperf\lwiperf.c ****   if (err != ERR_OK) {
 1288              		.loc 1 679 9 is_stmt 0
 1289 0066 A685     		mv	a1,s1
 1290 0068 5286     		mv	a2,s4
 1291 006a 97000000 		call	tcp_bind
 1291      E7800000 
 1292              	.LVL148:
 1293 0072 AA84     		mv	s1,a0
 1294              	.LVL149:
 680:C:/Users/stapi/OneDrive/Desktop/GD32VW553/V1_MQTT_OK/GD32VW55X_Wifi_BLE_SDK/GD32VW55x_RELEASE_V1.0.2/MSDK/lwip/lwip-2.1.2/src/apps/lwiperf\lwiperf.c ****     return err;
 1295              		.loc 1 680 3 is_stmt 1
 680:C:/Users/stapi/OneDrive/Desktop/GD32VW553/V1_MQTT_OK/GD32VW55X_Wifi_BLE_SDK/GD32VW55x_RELEASE_V1.0.2/MSDK/lwip/lwip-2.1.2/src/apps/lwiperf\lwiperf.c ****     return err;
 1296              		.loc 1 680 6 is_stmt 0
 1297 0074 5DF9     		bne	a0,zero,.L109
 683:C:/Users/stapi/OneDrive/Desktop/GD32VW553/V1_MQTT_OK/GD32VW55X_Wifi_BLE_SDK/GD32VW55x_RELEASE_V1.0.2/MSDK/lwip/lwip-2.1.2/src/apps/lwiperf\lwiperf.c ****   if (s->server_pcb == NULL) {
 1298              		.loc 1 683 3 is_stmt 1
 683:C:/Users/stapi/OneDrive/Desktop/GD32VW553/V1_MQTT_OK/GD32VW55X_Wifi_BLE_SDK/GD32VW55x_RELEASE_V1.0.2/MSDK/lwip/lwip-2.1.2/src/apps/lwiperf\lwiperf.c ****   if (s->server_pcb == NULL) {
 1299              		.loc 1 683 19 is_stmt 0
 1300 0076 8545     		li	a1,1
 1301 0078 4A85     		mv	a0,s2
 1302              	.LVL150:
 1303 007a 97000000 		call	tcp_listen_with_backlog
 1303      E7800000 
 1304              	.LVL151:
 683:C:/Users/stapi/OneDrive/Desktop/GD32VW553/V1_MQTT_OK/GD32VW55X_Wifi_BLE_SDK/GD32VW55x_RELEASE_V1.0.2/MSDK/lwip/lwip-2.1.2/src/apps/lwiperf\lwiperf.c ****   if (s->server_pcb == NULL) {
 1305              		.loc 1 683 17
 1306 0082 48C4     		sw	a0,12(s0)
 684:C:/Users/stapi/OneDrive/Desktop/GD32VW553/V1_MQTT_OK/GD32VW55X_Wifi_BLE_SDK/GD32VW55x_RELEASE_V1.0.2/MSDK/lwip/lwip-2.1.2/src/apps/lwiperf\lwiperf.c ****     if (pcb != NULL) {
 1307              		.loc 1 684 3 is_stmt 1
 693:C:/Users/stapi/OneDrive/Desktop/GD32VW553/V1_MQTT_OK/GD32VW55X_Wifi_BLE_SDK/GD32VW55x_RELEASE_V1.0.2/MSDK/lwip/lwip-2.1.2/src/apps/lwiperf\lwiperf.c ****   {
 1308              		.loc 1 693 10 is_stmt 0
 1309 0084 0147     		li	a4,0
 684:C:/Users/stapi/OneDrive/Desktop/GD32VW553/V1_MQTT_OK/GD32VW55X_Wifi_BLE_SDK/GD32VW55x_RELEASE_V1.0.2/MSDK/lwip/lwip-2.1.2/src/apps/lwiperf\lwiperf.c ****     if (pcb != NULL) {
 1310              		.loc 1 684 6
 1311 0086 21CD     		beq	a0,zero,.L120
 695:C:/Users/stapi/OneDrive/Desktop/GD32VW553/V1_MQTT_OK/GD32VW55X_Wifi_BLE_SDK/GD32VW55x_RELEASE_V1.0.2/MSDK/lwip/lwip-2.1.2/src/apps/lwiperf\lwiperf.c ****   }
 1312              		.loc 1 695 30
 1313 0088 B7060000 		lui	a3,%hi(.LANCHOR1)
 1314 008c 93860600 		addi	a3,a3,%lo(.LANCHOR1)
 695:C:/Users/stapi/OneDrive/Desktop/GD32VW553/V1_MQTT_OK/GD32VW55X_Wifi_BLE_SDK/GD32VW55x_RELEASE_V1.0.2/MSDK/lwip/lwip-2.1.2/src/apps/lwiperf\lwiperf.c ****   }
 1315              		.loc 1 695 41
 1316 0090 2945     		li	a0,10
 693:C:/Users/stapi/OneDrive/Desktop/GD32VW553/V1_MQTT_OK/GD32VW55X_Wifi_BLE_SDK/GD32VW55x_RELEASE_V1.0.2/MSDK/lwip/lwip-2.1.2/src/apps/lwiperf\lwiperf.c ****   {
 1317              		.loc 1 693 3
 1318 0092 13060064 		li	a2,1600
 1319              	.LVL152:
 1320              	.L112:
 695:C:/Users/stapi/OneDrive/Desktop/GD32VW553/V1_MQTT_OK/GD32VW55X_Wifi_BLE_SDK/GD32VW55x_RELEASE_V1.0.2/MSDK/lwip/lwip-2.1.2/src/apps/lwiperf\lwiperf.c ****   }
 1321              		.loc 1 695 7 is_stmt 1
 695:C:/Users/stapi/OneDrive/Desktop/GD32VW553/V1_MQTT_OK/GD32VW55X_Wifi_BLE_SDK/GD32VW55x_RELEASE_V1.0.2/MSDK/lwip/lwip-2.1.2/src/apps/lwiperf\lwiperf.c ****   }
 1322              		.loc 1 695 41 is_stmt 0
 1323 0096 B377A702 		remu	a5,a4,a0
 695:C:/Users/stapi/OneDrive/Desktop/GD32VW553/V1_MQTT_OK/GD32VW55X_Wifi_BLE_SDK/GD32VW55x_RELEASE_V1.0.2/MSDK/lwip/lwip-2.1.2/src/apps/lwiperf\lwiperf.c ****   }
 1324              		.loc 1 695 30
 1325 009a B385E600 		add	a1,a3,a4
 693:C:/Users/stapi/OneDrive/Desktop/GD32VW553/V1_MQTT_OK/GD32VW55X_Wifi_BLE_SDK/GD32VW55x_RELEASE_V1.0.2/MSDK/lwip/lwip-2.1.2/src/apps/lwiperf\lwiperf.c ****   {
 1326              		.loc 1 693 49
 1327 009e 0507     		addi	a4,a4,1
 1328              	.LVL153:
 695:C:/Users/stapi/OneDrive/Desktop/GD32VW553/V1_MQTT_OK/GD32VW55X_Wifi_BLE_SDK/GD32VW55x_RELEASE_V1.0.2/MSDK/lwip/lwip-2.1.2/src/apps/lwiperf\lwiperf.c ****   }
 1329              		.loc 1 695 37
 1330 00a0 93870703 		addi	a5,a5,48
 695:C:/Users/stapi/OneDrive/Desktop/GD32VW553/V1_MQTT_OK/GD32VW55X_Wifi_BLE_SDK/GD32VW55x_RELEASE_V1.0.2/MSDK/lwip/lwip-2.1.2/src/apps/lwiperf\lwiperf.c ****   }
 1331              		.loc 1 695 30
 1332 00a4 2380F500 		sb	a5,0(a1)
 693:C:/Users/stapi/OneDrive/Desktop/GD32VW553/V1_MQTT_OK/GD32VW55X_Wifi_BLE_SDK/GD32VW55x_RELEASE_V1.0.2/MSDK/lwip/lwip-2.1.2/src/apps/lwiperf\lwiperf.c ****   {
 1333              		.loc 1 693 48 is_stmt 1
 1334              	.LVL154:
 693:C:/Users/stapi/OneDrive/Desktop/GD32VW553/V1_MQTT_OK/GD32VW55X_Wifi_BLE_SDK/GD32VW55x_RELEASE_V1.0.2/MSDK/lwip/lwip-2.1.2/src/apps/lwiperf\lwiperf.c ****   {
 1335              		.loc 1 693 15
 693:C:/Users/stapi/OneDrive/Desktop/GD32VW553/V1_MQTT_OK/GD32VW55X_Wifi_BLE_SDK/GD32VW55x_RELEASE_V1.0.2/MSDK/lwip/lwip-2.1.2/src/apps/lwiperf\lwiperf.c ****   {
 1336              		.loc 1 693 3 is_stmt 0
 1337 00a8 E317C7FE 		bne	a4,a2,.L112
 698:C:/Users/stapi/OneDrive/Desktop/GD32VW553/V1_MQTT_OK/GD32VW55X_Wifi_BLE_SDK/GD32VW55x_RELEASE_V1.0.2/MSDK/lwip/lwip-2.1.2/src/apps/lwiperf\lwiperf.c ****   tcp_accept(s->server_pcb, lwiperf_tcp_accept);
 1338              		.loc 1 698 3 is_stmt 1
 1339 00ac 4844     		lw	a0,12(s0)
 1340 00ae A285     		mv	a1,s0
 1341 00b0 97000000 		call	tcp_arg
 1341      E7800000 
 1342              	.LVL155:
 699:C:/Users/stapi/OneDrive/Desktop/GD32VW553/V1_MQTT_OK/GD32VW55X_Wifi_BLE_SDK/GD32VW55x_RELEASE_V1.0.2/MSDK/lwip/lwip-2.1.2/src/apps/lwiperf\lwiperf.c **** 
 1343              		.loc 1 699 3
 1344 00b8 4844     		lw	a0,12(s0)
 1345 00ba B7050000 		lui	a1,%hi(lwiperf_tcp_accept)
 1346 00be 93850500 		addi	a1,a1,%lo(lwiperf_tcp_accept)
 1347 00c2 97000000 		call	tcp_accept
 1347      E7800000 
 1348              	.LVL156:
 701:C:/Users/stapi/OneDrive/Desktop/GD32VW553/V1_MQTT_OK/GD32VW55X_Wifi_BLE_SDK/GD32VW55x_RELEASE_V1.0.2/MSDK/lwip/lwip-2.1.2/src/apps/lwiperf\lwiperf.c ****   *state = s;
 1349              		.loc 1 701 3
 1350              	.LBB64:
 1351              	.LBB65:
 151:C:/Users/stapi/OneDrive/Desktop/GD32VW553/V1_MQTT_OK/GD32VW55X_Wifi_BLE_SDK/GD32VW55x_RELEASE_V1.0.2/MSDK/lwip/lwip-2.1.2/src/apps/lwiperf\lwiperf.c ****   lwiperf_all_connections = item;
 1352              		.loc 1 151 3
 151:C:/Users/stapi/OneDrive/Desktop/GD32VW553/V1_MQTT_OK/GD32VW55X_Wifi_BLE_SDK/GD32VW55x_RELEASE_V1.0.2/MSDK/lwip/lwip-2.1.2/src/apps/lwiperf\lwiperf.c ****   lwiperf_all_connections = item;
 1353              		.loc 1 151 14 is_stmt 0
 1354 00ca 37070000 		lui	a4,%hi(.LANCHOR0)
 1355 00ce 13070700 		addi	a4,a4,%lo(.LANCHOR0)
 1356 00d2 1C43     		lw	a5,0(a4)
 152:C:/Users/stapi/OneDrive/Desktop/GD32VW553/V1_MQTT_OK/GD32VW55X_Wifi_BLE_SDK/GD32VW55x_RELEASE_V1.0.2/MSDK/lwip/lwip-2.1.2/src/apps/lwiperf\lwiperf.c **** }
 1357              		.loc 1 152 27
 1358 00d4 00C3     		sw	s0,0(a4)
 151:C:/Users/stapi/OneDrive/Desktop/GD32VW553/V1_MQTT_OK/GD32VW55X_Wifi_BLE_SDK/GD32VW55x_RELEASE_V1.0.2/MSDK/lwip/lwip-2.1.2/src/apps/lwiperf\lwiperf.c ****   lwiperf_all_connections = item;
 1359              		.loc 1 151 14
 1360 00d6 1CC0     		sw	a5,0(s0)
 152:C:/Users/stapi/OneDrive/Desktop/GD32VW553/V1_MQTT_OK/GD32VW55X_Wifi_BLE_SDK/GD32VW55x_RELEASE_V1.0.2/MSDK/lwip/lwip-2.1.2/src/apps/lwiperf\lwiperf.c **** }
 1361              		.loc 1 152 3 is_stmt 1
 1362              	.LVL157:
 1363              	.LBE65:
 1364              	.LBE64:
 702:C:/Users/stapi/OneDrive/Desktop/GD32VW553/V1_MQTT_OK/GD32VW55X_Wifi_BLE_SDK/GD32VW55x_RELEASE_V1.0.2/MSDK/lwip/lwip-2.1.2/src/apps/lwiperf\lwiperf.c ****   return ERR_OK;
 1365              		.loc 1 702 3
 702:C:/Users/stapi/OneDrive/Desktop/GD32VW553/V1_MQTT_OK/GD32VW55X_Wifi_BLE_SDK/GD32VW55x_RELEASE_V1.0.2/MSDK/lwip/lwip-2.1.2/src/apps/lwiperf\lwiperf.c ****   return ERR_OK;
 1366              		.loc 1 702 10 is_stmt 0
 1367 00d8 23A08900 		sw	s0,0(s3)
 703:C:/Users/stapi/OneDrive/Desktop/GD32VW553/V1_MQTT_OK/GD32VW55X_Wifi_BLE_SDK/GD32VW55x_RELEASE_V1.0.2/MSDK/lwip/lwip-2.1.2/src/apps/lwiperf\lwiperf.c **** }
 1368              		.loc 1 703 3 is_stmt 1
 703:C:/Users/stapi/OneDrive/Desktop/GD32VW553/V1_MQTT_OK/GD32VW55X_Wifi_BLE_SDK/GD32VW55x_RELEASE_V1.0.2/MSDK/lwip/lwip-2.1.2/src/apps/lwiperf\lwiperf.c **** }
 1369              		.loc 1 703 10 is_stmt 0
 1370 00dc B9B7     		j	.L109
 1371              	.LVL158:
 1372              	.L120:
 685:C:/Users/stapi/OneDrive/Desktop/GD32VW553/V1_MQTT_OK/GD32VW55X_Wifi_BLE_SDK/GD32VW55x_RELEASE_V1.0.2/MSDK/lwip/lwip-2.1.2/src/apps/lwiperf\lwiperf.c ****       tcp_close(pcb);
 1373              		.loc 1 685 5 is_stmt 1
 686:C:/Users/stapi/OneDrive/Desktop/GD32VW553/V1_MQTT_OK/GD32VW55X_Wifi_BLE_SDK/GD32VW55x_RELEASE_V1.0.2/MSDK/lwip/lwip-2.1.2/src/apps/lwiperf\lwiperf.c ****     }
 1374              		.loc 1 686 7
 1375 00de 4A85     		mv	a0,s2
 1376 00e0 97000000 		call	tcp_close
 1376      E7800000 
 1377              	.LVL159:
 688:C:/Users/stapi/OneDrive/Desktop/GD32VW553/V1_MQTT_OK/GD32VW55X_Wifi_BLE_SDK/GD32VW55x_RELEASE_V1.0.2/MSDK/lwip/lwip-2.1.2/src/apps/lwiperf\lwiperf.c ****     return ERR_MEM;
 1378              		.loc 1 688 5
 1379 00e8 2285     		mv	a0,s0
 1380 00ea 97000000 		call	mem_free
 1380      E7800000 
 1381              	.LVL160:
 1382 00f2 1DBF     		j	.L122
 1383              		.cfi_endproc
 1384              	.LFE31:
 1386              		.section	.rodata.lwiperf_tx_start_impl.str1.4,"aMS",@progbits,1
 1387              		.align	2
 1388              	.LC12:
 1389 0000 72656D6F 		.string	"remote_ip != NULL"
 1389      74655F69 
 1389      7020213D 
 1389      204E554C 
 1389      4C00
 1390              		.section	.text.lwiperf_tx_start_impl,"ax",@progbits
 1391              		.align	1
 1393              	lwiperf_tx_start_impl:
 1394              	.LFB12:
 351:C:/Users/stapi/OneDrive/Desktop/GD32VW553/V1_MQTT_OK/GD32VW55X_Wifi_BLE_SDK/GD32VW55x_RELEASE_V1.0.2/MSDK/lwip/lwip-2.1.2/src/apps/lwiperf\lwiperf.c ****   err_t err;
 1395              		.loc 1 351 1
 1396              		.cfi_startproc
 1397              	.LVL161:
 1398 0000 17030000 		call	t0,__riscv_save_10
 1398      E7020300 
 1399              		.cfi_offset 25, -44
 1400              		.cfi_offset 24, -40
 1401              		.cfi_offset 23, -36
 1402              		.cfi_offset 22, -32
 1403              		.cfi_offset 21, -28
 1404              		.cfi_offset 20, -24
 1405              		.cfi_offset 19, -20
 1406              		.cfi_offset 18, -16
 1407              		.cfi_offset 9, -12
 1408              		.cfi_offset 8, -8
 1409              		.cfi_offset 1, -4
 1410              		.cfi_def_cfa_offset 48
 352:C:/Users/stapi/OneDrive/Desktop/GD32VW553/V1_MQTT_OK/GD32VW55X_Wifi_BLE_SDK/GD32VW55x_RELEASE_V1.0.2/MSDK/lwip/lwip-2.1.2/src/apps/lwiperf\lwiperf.c ****   lwiperf_state_tcp_t *client_conn;
 1411              		.loc 1 352 3
 353:C:/Users/stapi/OneDrive/Desktop/GD32VW553/V1_MQTT_OK/GD32VW55X_Wifi_BLE_SDK/GD32VW55x_RELEASE_V1.0.2/MSDK/lwip/lwip-2.1.2/src/apps/lwiperf\lwiperf.c ****   struct tcp_pcb *newpcb;
 1412              		.loc 1 353 3
 354:C:/Users/stapi/OneDrive/Desktop/GD32VW553/V1_MQTT_OK/GD32VW55X_Wifi_BLE_SDK/GD32VW55x_RELEASE_V1.0.2/MSDK/lwip/lwip-2.1.2/src/apps/lwiperf\lwiperf.c ****   ip_addr_t remote_addr;
 1413              		.loc 1 354 3
 355:C:/Users/stapi/OneDrive/Desktop/GD32VW553/V1_MQTT_OK/GD32VW55X_Wifi_BLE_SDK/GD32VW55x_RELEASE_V1.0.2/MSDK/lwip/lwip-2.1.2/src/apps/lwiperf\lwiperf.c **** 
 1414              		.loc 1 355 3
 357:C:/Users/stapi/OneDrive/Desktop/GD32VW553/V1_MQTT_OK/GD32VW55X_Wifi_BLE_SDK/GD32VW55x_RELEASE_V1.0.2/MSDK/lwip/lwip-2.1.2/src/apps/lwiperf\lwiperf.c ****   LWIP_ASSERT("remote_ip != NULL", settings != NULL);
 1415              		.loc 1 357 3
 357:C:/Users/stapi/OneDrive/Desktop/GD32VW553/V1_MQTT_OK/GD32VW55X_Wifi_BLE_SDK/GD32VW55x_RELEASE_V1.0.2/MSDK/lwip/lwip-2.1.2/src/apps/lwiperf\lwiperf.c ****   LWIP_ASSERT("remote_ip != NULL", settings != NULL);
 1416              		.loc 1 357 3
 351:C:/Users/stapi/OneDrive/Desktop/GD32VW553/V1_MQTT_OK/GD32VW55X_Wifi_BLE_SDK/GD32VW55x_RELEASE_V1.0.2/MSDK/lwip/lwip-2.1.2/src/apps/lwiperf\lwiperf.c ****   err_t err;
 1417              		.loc 1 351 1 is_stmt 0
 1418 0008 4111     		addi	sp,sp,-16
 1419              		.cfi_def_cfa_offset 64
 357:C:/Users/stapi/OneDrive/Desktop/GD32VW553/V1_MQTT_OK/GD32VW55X_Wifi_BLE_SDK/GD32VW55x_RELEASE_V1.0.2/MSDK/lwip/lwip-2.1.2/src/apps/lwiperf\lwiperf.c ****   LWIP_ASSERT("remote_ip != NULL", settings != NULL);
 1420              		.loc 1 357 3
 1421 000a 05E5     		bne	a0,zero,.L124
 357:C:/Users/stapi/OneDrive/Desktop/GD32VW553/V1_MQTT_OK/GD32VW55X_Wifi_BLE_SDK/GD32VW55x_RELEASE_V1.0.2/MSDK/lwip/lwip-2.1.2/src/apps/lwiperf\lwiperf.c ****   LWIP_ASSERT("remote_ip != NULL", settings != NULL);
 1422              		.loc 1 357 3 is_stmt 1 discriminator 1
 357:C:/Users/stapi/OneDrive/Desktop/GD32VW553/V1_MQTT_OK/GD32VW55X_Wifi_BLE_SDK/GD32VW55x_RELEASE_V1.0.2/MSDK/lwip/lwip-2.1.2/src/apps/lwiperf\lwiperf.c ****   LWIP_ASSERT("remote_ip != NULL", settings != NULL);
 1423              		.loc 1 357 3 discriminator 1
 1424 000c B7060000 		lui	a3,%hi(.LC0)
 1425              	.LVL162:
 1426 0010 B7050000 		lui	a1,%hi(.LC12)
 1427              	.LVL163:
 1428 0014 37050000 		lui	a0,%hi(.LC2)
 1429              	.LVL164:
 1430 0018 93860600 		addi	a3,a3,%lo(.LC0)
 1431 001c 13065016 		li	a2,357
 1432              	.LVL165:
 1433 0020 93850500 		addi	a1,a1,%lo(.LC12)
 1434 0024 13050500 		addi	a0,a0,%lo(.LC2)
 1435 0028 97000000 		call	printf
 1435      E7800000 
 1436              	.LVL166:
 1437              	.L125:
 357:C:/Users/stapi/OneDrive/Desktop/GD32VW553/V1_MQTT_OK/GD32VW55X_Wifi_BLE_SDK/GD32VW55x_RELEASE_V1.0.2/MSDK/lwip/lwip-2.1.2/src/apps/lwiperf\lwiperf.c ****   LWIP_ASSERT("remote_ip != NULL", settings != NULL);
 1438              		.loc 1 357 3 discriminator 1
 357:C:/Users/stapi/OneDrive/Desktop/GD32VW553/V1_MQTT_OK/GD32VW55X_Wifi_BLE_SDK/GD32VW55x_RELEASE_V1.0.2/MSDK/lwip/lwip-2.1.2/src/apps/lwiperf\lwiperf.c ****   LWIP_ASSERT("remote_ip != NULL", settings != NULL);
 1439              		.loc 1 357 3 discriminator 1
 357:C:/Users/stapi/OneDrive/Desktop/GD32VW553/V1_MQTT_OK/GD32VW55X_Wifi_BLE_SDK/GD32VW55x_RELEASE_V1.0.2/MSDK/lwip/lwip-2.1.2/src/apps/lwiperf\lwiperf.c ****   LWIP_ASSERT("remote_ip != NULL", settings != NULL);
 1440              		.loc 1 357 3 discriminator 1
 1441 0030 01A0     		j	.L125
 1442              	.LVL167:
 1443              	.L124:
 1444 0032 AA89     		mv	s3,a0
 1445              	.LBB70:
 1446              	.LBB71:
 360:C:/Users/stapi/OneDrive/Desktop/GD32VW553/V1_MQTT_OK/GD32VW55X_Wifi_BLE_SDK/GD32VW55x_RELEASE_V1.0.2/MSDK/lwip/lwip-2.1.2/src/apps/lwiperf\lwiperf.c **** 
 1447              		.loc 1 360 13 is_stmt 0
 1448 0034 23200800 		sw	zero,0(a6)
 362:C:/Users/stapi/OneDrive/Desktop/GD32VW553/V1_MQTT_OK/GD32VW55X_Wifi_BLE_SDK/GD32VW55x_RELEASE_V1.0.2/MSDK/lwip/lwip-2.1.2/src/apps/lwiperf\lwiperf.c ****   if (client_conn == NULL) {
 1449              		.loc 1 362 40
 1450 0038 13058004 		li	a0,72
 1451              	.LVL168:
 1452 003c 2E8A     		mv	s4,a1
 1453 003e B28A     		mv	s5,a2
 1454 0040 B68B     		mv	s7,a3
 1455 0042 3A8B     		mv	s6,a4
 1456 0044 3E8C     		mv	s8,a5
 1457 0046 4289     		mv	s2,a6
 1458              	.LBE71:
 1459              	.LBE70:
 357:C:/Users/stapi/OneDrive/Desktop/GD32VW553/V1_MQTT_OK/GD32VW55X_Wifi_BLE_SDK/GD32VW55x_RELEASE_V1.0.2/MSDK/lwip/lwip-2.1.2/src/apps/lwiperf\lwiperf.c ****   LWIP_ASSERT("remote_ip != NULL", settings != NULL);
 1460              		.loc 1 357 3 is_stmt 1
 357:C:/Users/stapi/OneDrive/Desktop/GD32VW553/V1_MQTT_OK/GD32VW55X_Wifi_BLE_SDK/GD32VW55x_RELEASE_V1.0.2/MSDK/lwip/lwip-2.1.2/src/apps/lwiperf\lwiperf.c ****   LWIP_ASSERT("remote_ip != NULL", settings != NULL);
 1461              		.loc 1 357 3
 358:C:/Users/stapi/OneDrive/Desktop/GD32VW553/V1_MQTT_OK/GD32VW55X_Wifi_BLE_SDK/GD32VW55x_RELEASE_V1.0.2/MSDK/lwip/lwip-2.1.2/src/apps/lwiperf\lwiperf.c ****   LWIP_ASSERT("new_conn != NULL", new_conn != NULL);
 1462              		.loc 1 358 3
 358:C:/Users/stapi/OneDrive/Desktop/GD32VW553/V1_MQTT_OK/GD32VW55X_Wifi_BLE_SDK/GD32VW55x_RELEASE_V1.0.2/MSDK/lwip/lwip-2.1.2/src/apps/lwiperf\lwiperf.c ****   LWIP_ASSERT("new_conn != NULL", new_conn != NULL);
 1463              		.loc 1 358 3
 1464              	.LVL169:
 1465              	.LBB76:
 1466              	.LBB74:
 358:C:/Users/stapi/OneDrive/Desktop/GD32VW553/V1_MQTT_OK/GD32VW55X_Wifi_BLE_SDK/GD32VW55x_RELEASE_V1.0.2/MSDK/lwip/lwip-2.1.2/src/apps/lwiperf\lwiperf.c ****   LWIP_ASSERT("new_conn != NULL", new_conn != NULL);
 1467              		.loc 1 358 3
 358:C:/Users/stapi/OneDrive/Desktop/GD32VW553/V1_MQTT_OK/GD32VW55X_Wifi_BLE_SDK/GD32VW55x_RELEASE_V1.0.2/MSDK/lwip/lwip-2.1.2/src/apps/lwiperf\lwiperf.c ****   LWIP_ASSERT("new_conn != NULL", new_conn != NULL);
 1468              		.loc 1 358 3
 359:C:/Users/stapi/OneDrive/Desktop/GD32VW553/V1_MQTT_OK/GD32VW55X_Wifi_BLE_SDK/GD32VW55x_RELEASE_V1.0.2/MSDK/lwip/lwip-2.1.2/src/apps/lwiperf\lwiperf.c ****   *new_conn = NULL;
 1469              		.loc 1 359 3
 359:C:/Users/stapi/OneDrive/Desktop/GD32VW553/V1_MQTT_OK/GD32VW55X_Wifi_BLE_SDK/GD32VW55x_RELEASE_V1.0.2/MSDK/lwip/lwip-2.1.2/src/apps/lwiperf\lwiperf.c ****   *new_conn = NULL;
 1470              		.loc 1 359 3
 359:C:/Users/stapi/OneDrive/Desktop/GD32VW553/V1_MQTT_OK/GD32VW55X_Wifi_BLE_SDK/GD32VW55x_RELEASE_V1.0.2/MSDK/lwip/lwip-2.1.2/src/apps/lwiperf\lwiperf.c ****   *new_conn = NULL;
 1471              		.loc 1 359 3
 359:C:/Users/stapi/OneDrive/Desktop/GD32VW553/V1_MQTT_OK/GD32VW55X_Wifi_BLE_SDK/GD32VW55x_RELEASE_V1.0.2/MSDK/lwip/lwip-2.1.2/src/apps/lwiperf\lwiperf.c ****   *new_conn = NULL;
 1472              		.loc 1 359 3
 360:C:/Users/stapi/OneDrive/Desktop/GD32VW553/V1_MQTT_OK/GD32VW55X_Wifi_BLE_SDK/GD32VW55x_RELEASE_V1.0.2/MSDK/lwip/lwip-2.1.2/src/apps/lwiperf\lwiperf.c **** 
 1473              		.loc 1 360 3
 362:C:/Users/stapi/OneDrive/Desktop/GD32VW553/V1_MQTT_OK/GD32VW55X_Wifi_BLE_SDK/GD32VW55x_RELEASE_V1.0.2/MSDK/lwip/lwip-2.1.2/src/apps/lwiperf\lwiperf.c ****   if (client_conn == NULL) {
 1474              		.loc 1 362 3
 362:C:/Users/stapi/OneDrive/Desktop/GD32VW553/V1_MQTT_OK/GD32VW55X_Wifi_BLE_SDK/GD32VW55x_RELEASE_V1.0.2/MSDK/lwip/lwip-2.1.2/src/apps/lwiperf\lwiperf.c ****   if (client_conn == NULL) {
 1475              		.loc 1 362 40 is_stmt 0
 1476 0048 97000000 		call	mem_malloc
 1476      E7800000 
 1477              	.LVL170:
 1478 0050 2A84     		mv	s0,a0
 1479              	.LVL171:
 363:C:/Users/stapi/OneDrive/Desktop/GD32VW553/V1_MQTT_OK/GD32VW55X_Wifi_BLE_SDK/GD32VW55x_RELEASE_V1.0.2/MSDK/lwip/lwip-2.1.2/src/apps/lwiperf\lwiperf.c ****     return ERR_MEM;
 1480              		.loc 1 363 3 is_stmt 1
 364:C:/Users/stapi/OneDrive/Desktop/GD32VW553/V1_MQTT_OK/GD32VW55X_Wifi_BLE_SDK/GD32VW55x_RELEASE_V1.0.2/MSDK/lwip/lwip-2.1.2/src/apps/lwiperf\lwiperf.c ****   }
 1481              		.loc 1 364 12 is_stmt 0
 1482 0052 FD54     		li	s1,-1
 363:C:/Users/stapi/OneDrive/Desktop/GD32VW553/V1_MQTT_OK/GD32VW55X_Wifi_BLE_SDK/GD32VW55x_RELEASE_V1.0.2/MSDK/lwip/lwip-2.1.2/src/apps/lwiperf\lwiperf.c ****     return ERR_MEM;
 1483              		.loc 1 363 6
 1484 0054 11CD     		beq	a0,zero,.L126
 366:C:/Users/stapi/OneDrive/Desktop/GD32VW553/V1_MQTT_OK/GD32VW55X_Wifi_BLE_SDK/GD32VW55x_RELEASE_V1.0.2/MSDK/lwip/lwip-2.1.2/src/apps/lwiperf\lwiperf.c ****   if (newpcb == NULL) {
 1485              		.loc 1 366 3 is_stmt 1
 366:C:/Users/stapi/OneDrive/Desktop/GD32VW553/V1_MQTT_OK/GD32VW55X_Wifi_BLE_SDK/GD32VW55x_RELEASE_V1.0.2/MSDK/lwip/lwip-2.1.2/src/apps/lwiperf\lwiperf.c ****   if (newpcb == NULL) {
 1486              		.loc 1 366 12 is_stmt 0
 1487 0056 0145     		li	a0,0
 1488 0058 97000000 		call	tcp_new_ip_type
 1488      E7800000 
 1489              	.LVL172:
 1490 0060 AA84     		mv	s1,a0
 1491              	.LVL173:
 367:C:/Users/stapi/OneDrive/Desktop/GD32VW553/V1_MQTT_OK/GD32VW55X_Wifi_BLE_SDK/GD32VW55x_RELEASE_V1.0.2/MSDK/lwip/lwip-2.1.2/src/apps/lwiperf\lwiperf.c ****     LWIPERF_FREE(lwiperf_state_tcp_t, client_conn);
 1492              		.loc 1 367 3 is_stmt 1
 367:C:/Users/stapi/OneDrive/Desktop/GD32VW553/V1_MQTT_OK/GD32VW55X_Wifi_BLE_SDK/GD32VW55x_RELEASE_V1.0.2/MSDK/lwip/lwip-2.1.2/src/apps/lwiperf\lwiperf.c ****     LWIPERF_FREE(lwiperf_state_tcp_t, client_conn);
 1493              		.loc 1 367 6 is_stmt 0
 1494 0062 09ED     		bne	a0,zero,.L127
 368:C:/Users/stapi/OneDrive/Desktop/GD32VW553/V1_MQTT_OK/GD32VW55X_Wifi_BLE_SDK/GD32VW55x_RELEASE_V1.0.2/MSDK/lwip/lwip-2.1.2/src/apps/lwiperf\lwiperf.c ****     return ERR_MEM;
 1495              		.loc 1 368 5 is_stmt 1
 1496 0064 2285     		mv	a0,s0
 1497 0066 97000000 		call	mem_free
 1497      E7800000 
 1498              	.LVL174:
 369:C:/Users/stapi/OneDrive/Desktop/GD32VW553/V1_MQTT_OK/GD32VW55X_Wifi_BLE_SDK/GD32VW55x_RELEASE_V1.0.2/MSDK/lwip/lwip-2.1.2/src/apps/lwiperf\lwiperf.c ****   }
 1499              		.loc 1 369 5
 369:C:/Users/stapi/OneDrive/Desktop/GD32VW553/V1_MQTT_OK/GD32VW55X_Wifi_BLE_SDK/GD32VW55x_RELEASE_V1.0.2/MSDK/lwip/lwip-2.1.2/src/apps/lwiperf\lwiperf.c ****   }
 1500              		.loc 1 369 12 is_stmt 0
 1501 006e FD54     		li	s1,-1
 1502              	.LVL175:
 1503              	.L126:
 1504              	.LBE74:
 1505              	.LBE76:
 398:C:/Users/stapi/OneDrive/Desktop/GD32VW553/V1_MQTT_OK/GD32VW55X_Wifi_BLE_SDK/GD32VW55x_RELEASE_V1.0.2/MSDK/lwip/lwip-2.1.2/src/apps/lwiperf\lwiperf.c **** 
 1506              		.loc 1 398 1
 1507 0070 2685     		mv	a0,s1
 1508 0072 4101     		addi	sp,sp,16
 1509              		.cfi_remember_state
 1510              		.cfi_def_cfa_offset 0
 1511 0074 17030000 		tail	__riscv_restore_10
 1511      67000300 
 1512              		.cfi_restore 25
 1513              		.cfi_restore 24
 1514              		.cfi_restore 23
 1515              		.cfi_restore 22
 1516              		.cfi_restore 21
 1517              		.cfi_restore 20
 1518              		.cfi_restore 19
 1519              		.cfi_restore 18
 1520              		.cfi_restore 9
 1521              		.cfi_restore 8
 1522              		.cfi_restore 1
 1523              		.cfi_def_cfa_offset -48
 1524              	.LVL176:
 1525              	.L127:
 1526              		.cfi_restore_state
 1527              	.LBB77:
 1528              	.LBB75:
 371:C:/Users/stapi/OneDrive/Desktop/GD32VW553/V1_MQTT_OK/GD32VW55X_Wifi_BLE_SDK/GD32VW55x_RELEASE_V1.0.2/MSDK/lwip/lwip-2.1.2/src/apps/lwiperf\lwiperf.c ****   client_conn->base.tcp = 1;
 1529              		.loc 1 371 3 is_stmt 1
 1530 007c 13068004 		li	a2,72
 1531 0080 8145     		li	a1,0
 372:C:/Users/stapi/OneDrive/Desktop/GD32VW553/V1_MQTT_OK/GD32VW55X_Wifi_BLE_SDK/GD32VW55x_RELEASE_V1.0.2/MSDK/lwip/lwip-2.1.2/src/apps/lwiperf\lwiperf.c ****   client_conn->base.related_master_state = related_master_state;
 1532              		.loc 1 372 25 is_stmt 0
 1533 0082 854C     		li	s9,1
 371:C:/Users/stapi/OneDrive/Desktop/GD32VW553/V1_MQTT_OK/GD32VW55X_Wifi_BLE_SDK/GD32VW55x_RELEASE_V1.0.2/MSDK/lwip/lwip-2.1.2/src/apps/lwiperf\lwiperf.c ****   client_conn->base.tcp = 1;
 1534              		.loc 1 371 3
 1535 0084 2285     		mv	a0,s0
 1536 0086 97000000 		call	memset
 1536      E7800000 
 1537              	.LVL177:
 372:C:/Users/stapi/OneDrive/Desktop/GD32VW553/V1_MQTT_OK/GD32VW55X_Wifi_BLE_SDK/GD32VW55x_RELEASE_V1.0.2/MSDK/lwip/lwip-2.1.2/src/apps/lwiperf\lwiperf.c ****   client_conn->base.related_master_state = related_master_state;
 1538              		.loc 1 372 3 is_stmt 1
 374:C:/Users/stapi/OneDrive/Desktop/GD32VW553/V1_MQTT_OK/GD32VW55X_Wifi_BLE_SDK/GD32VW55x_RELEASE_V1.0.2/MSDK/lwip/lwip-2.1.2/src/apps/lwiperf\lwiperf.c ****   client_conn->time_started = sys_now(); /* @todo: set this again on 'connected' */
 1539              		.loc 1 374 25 is_stmt 0
 1540 008e 04C8     		sw	s1,16(s0)
 372:C:/Users/stapi/OneDrive/Desktop/GD32VW553/V1_MQTT_OK/GD32VW55X_Wifi_BLE_SDK/GD32VW55x_RELEASE_V1.0.2/MSDK/lwip/lwip-2.1.2/src/apps/lwiperf\lwiperf.c ****   client_conn->base.related_master_state = related_master_state;
 1541              		.loc 1 372 25
 1542 0090 23029401 		sb	s9,4(s0)
 373:C:/Users/stapi/OneDrive/Desktop/GD32VW553/V1_MQTT_OK/GD32VW55X_Wifi_BLE_SDK/GD32VW55x_RELEASE_V1.0.2/MSDK/lwip/lwip-2.1.2/src/apps/lwiperf\lwiperf.c ****   client_conn->conn_pcb = newpcb;
 1543              		.loc 1 373 3 is_stmt 1
 373:C:/Users/stapi/OneDrive/Desktop/GD32VW553/V1_MQTT_OK/GD32VW55X_Wifi_BLE_SDK/GD32VW55x_RELEASE_V1.0.2/MSDK/lwip/lwip-2.1.2/src/apps/lwiperf\lwiperf.c ****   client_conn->conn_pcb = newpcb;
 1544              		.loc 1 373 42 is_stmt 0
 1545 0094 23248401 		sw	s8,8(s0)
 374:C:/Users/stapi/OneDrive/Desktop/GD32VW553/V1_MQTT_OK/GD32VW55X_Wifi_BLE_SDK/GD32VW55x_RELEASE_V1.0.2/MSDK/lwip/lwip-2.1.2/src/apps/lwiperf\lwiperf.c ****   client_conn->time_started = sys_now(); /* @todo: set this again on 'connected' */
 1546              		.loc 1 374 3 is_stmt 1
 375:C:/Users/stapi/OneDrive/Desktop/GD32VW553/V1_MQTT_OK/GD32VW55X_Wifi_BLE_SDK/GD32VW55x_RELEASE_V1.0.2/MSDK/lwip/lwip-2.1.2/src/apps/lwiperf\lwiperf.c ****   client_conn->report_fn = report_fn;
 1547              		.loc 1 375 3
 375:C:/Users/stapi/OneDrive/Desktop/GD32VW553/V1_MQTT_OK/GD32VW55X_Wifi_BLE_SDK/GD32VW55x_RELEASE_V1.0.2/MSDK/lwip/lwip-2.1.2/src/apps/lwiperf\lwiperf.c ****   client_conn->report_fn = report_fn;
 1548              		.loc 1 375 31 is_stmt 0
 1549 0098 97000000 		call	sys_now
 1549      E7800000 
 1550              	.LVL178:
 378:C:/Users/stapi/OneDrive/Desktop/GD32VW553/V1_MQTT_OK/GD32VW55X_Wifi_BLE_SDK/GD32VW55x_RELEASE_V1.0.2/MSDK/lwip/lwip-2.1.2/src/apps/lwiperf\lwiperf.c ****   client_conn->bytes_transferred = 0;
 1551              		.loc 1 378 25
 1552 00a0 9147     		li	a5,4
 1553 00a2 A300F402 		sb	a5,33(s0)
 380:C:/Users/stapi/OneDrive/Desktop/GD32VW553/V1_MQTT_OK/GD32VW55X_Wifi_BLE_SDK/GD32VW55x_RELEASE_V1.0.2/MSDK/lwip/lwip-2.1.2/src/apps/lwiperf\lwiperf.c ****   client_conn->have_settings_buf = 1;
 1554              		.loc 1 380 3
 1555 00a6 6146     		li	a2,24
 375:C:/Users/stapi/OneDrive/Desktop/GD32VW553/V1_MQTT_OK/GD32VW55X_Wifi_BLE_SDK/GD32VW55x_RELEASE_V1.0.2/MSDK/lwip/lwip-2.1.2/src/apps/lwiperf\lwiperf.c ****   client_conn->report_fn = report_fn;
 1556              		.loc 1 375 29
 1557 00a8 48C8     		sw	a0,20(s0)
 376:C:/Users/stapi/OneDrive/Desktop/GD32VW553/V1_MQTT_OK/GD32VW55X_Wifi_BLE_SDK/GD32VW55x_RELEASE_V1.0.2/MSDK/lwip/lwip-2.1.2/src/apps/lwiperf\lwiperf.c ****   client_conn->report_arg = report_arg;
 1558              		.loc 1 376 3 is_stmt 1
 380:C:/Users/stapi/OneDrive/Desktop/GD32VW553/V1_MQTT_OK/GD32VW55X_Wifi_BLE_SDK/GD32VW55x_RELEASE_V1.0.2/MSDK/lwip/lwip-2.1.2/src/apps/lwiperf\lwiperf.c ****   client_conn->have_settings_buf = 1;
 1559              		.loc 1 380 3 is_stmt 0
 1560 00aa D685     		mv	a1,s5
 376:C:/Users/stapi/OneDrive/Desktop/GD32VW553/V1_MQTT_OK/GD32VW55X_Wifi_BLE_SDK/GD32VW55x_RELEASE_V1.0.2/MSDK/lwip/lwip-2.1.2/src/apps/lwiperf\lwiperf.c ****   client_conn->report_arg = report_arg;
 1561              		.loc 1 376 26
 1562 00ac 232C7401 		sw	s7,24(s0)
 377:C:/Users/stapi/OneDrive/Desktop/GD32VW553/V1_MQTT_OK/GD32VW55X_Wifi_BLE_SDK/GD32VW55x_RELEASE_V1.0.2/MSDK/lwip/lwip-2.1.2/src/apps/lwiperf\lwiperf.c ****   client_conn->next_num = 4; /* initial nr is '4' since the header has 24 byte */
 1563              		.loc 1 377 3 is_stmt 1
 377:C:/Users/stapi/OneDrive/Desktop/GD32VW553/V1_MQTT_OK/GD32VW55X_Wifi_BLE_SDK/GD32VW55x_RELEASE_V1.0.2/MSDK/lwip/lwip-2.1.2/src/apps/lwiperf\lwiperf.c ****   client_conn->next_num = 4; /* initial nr is '4' since the header has 24 byte */
 1564              		.loc 1 377 27 is_stmt 0
 1565 00b0 232E6401 		sw	s6,28(s0)
 378:C:/Users/stapi/OneDrive/Desktop/GD32VW553/V1_MQTT_OK/GD32VW55X_Wifi_BLE_SDK/GD32VW55x_RELEASE_V1.0.2/MSDK/lwip/lwip-2.1.2/src/apps/lwiperf\lwiperf.c ****   client_conn->bytes_transferred = 0;
 1566              		.loc 1 378 3 is_stmt 1
 379:C:/Users/stapi/OneDrive/Desktop/GD32VW553/V1_MQTT_OK/GD32VW55X_Wifi_BLE_SDK/GD32VW55x_RELEASE_V1.0.2/MSDK/lwip/lwip-2.1.2/src/apps/lwiperf\lwiperf.c ****   memcpy(&client_conn->settings, settings, sizeof(*settings));
 1567              		.loc 1 379 3
 379:C:/Users/stapi/OneDrive/Desktop/GD32VW553/V1_MQTT_OK/GD32VW55X_Wifi_BLE_SDK/GD32VW55x_RELEASE_V1.0.2/MSDK/lwip/lwip-2.1.2/src/apps/lwiperf\lwiperf.c ****   memcpy(&client_conn->settings, settings, sizeof(*settings));
 1568              		.loc 1 379 34 is_stmt 0
 1569 00b4 23220402 		sw	zero,36(s0)
 380:C:/Users/stapi/OneDrive/Desktop/GD32VW553/V1_MQTT_OK/GD32VW55X_Wifi_BLE_SDK/GD32VW55x_RELEASE_V1.0.2/MSDK/lwip/lwip-2.1.2/src/apps/lwiperf\lwiperf.c ****   client_conn->have_settings_buf = 1;
 1570              		.loc 1 380 3 is_stmt 1
 1571 00b8 13058402 		addi	a0,s0,40
 1572 00bc 97000000 		call	memcpy
 1572      E7800000 
 1573              	.LVL179:
 381:C:/Users/stapi/OneDrive/Desktop/GD32VW553/V1_MQTT_OK/GD32VW55X_Wifi_BLE_SDK/GD32VW55x_RELEASE_V1.0.2/MSDK/lwip/lwip-2.1.2/src/apps/lwiperf\lwiperf.c **** 
 1574              		.loc 1 381 3
 383:C:/Users/stapi/OneDrive/Desktop/GD32VW553/V1_MQTT_OK/GD32VW55X_Wifi_BLE_SDK/GD32VW55x_RELEASE_V1.0.2/MSDK/lwip/lwip-2.1.2/src/apps/lwiperf\lwiperf.c ****   tcp_sent(newpcb, lwiperf_tcp_client_sent);
 1575              		.loc 1 383 3 is_stmt 0
 1576 00c4 2685     		mv	a0,s1
 1577 00c6 A285     		mv	a1,s0
 381:C:/Users/stapi/OneDrive/Desktop/GD32VW553/V1_MQTT_OK/GD32VW55X_Wifi_BLE_SDK/GD32VW55x_RELEASE_V1.0.2/MSDK/lwip/lwip-2.1.2/src/apps/lwiperf\lwiperf.c **** 
 1578              		.loc 1 381 34
 1579 00c8 23009405 		sb	s9,64(s0)
 383:C:/Users/stapi/OneDrive/Desktop/GD32VW553/V1_MQTT_OK/GD32VW55X_Wifi_BLE_SDK/GD32VW55x_RELEASE_V1.0.2/MSDK/lwip/lwip-2.1.2/src/apps/lwiperf\lwiperf.c ****   tcp_sent(newpcb, lwiperf_tcp_client_sent);
 1580              		.loc 1 383 3 is_stmt 1
 1581 00cc 97000000 		call	tcp_arg
 1581      E7800000 
 1582              	.LVL180:
 384:C:/Users/stapi/OneDrive/Desktop/GD32VW553/V1_MQTT_OK/GD32VW55X_Wifi_BLE_SDK/GD32VW55x_RELEASE_V1.0.2/MSDK/lwip/lwip-2.1.2/src/apps/lwiperf\lwiperf.c ****   tcp_poll(newpcb, lwiperf_tcp_poll, 2U);
 1583              		.loc 1 384 3
 1584 00d4 B7050000 		lui	a1,%hi(lwiperf_tcp_client_sent)
 1585 00d8 2685     		mv	a0,s1
 1586 00da 93850500 		addi	a1,a1,%lo(lwiperf_tcp_client_sent)
 1587 00de 97000000 		call	tcp_sent
 1587      E7800000 
 1588              	.LVL181:
 385:C:/Users/stapi/OneDrive/Desktop/GD32VW553/V1_MQTT_OK/GD32VW55X_Wifi_BLE_SDK/GD32VW55x_RELEASE_V1.0.2/MSDK/lwip/lwip-2.1.2/src/apps/lwiperf\lwiperf.c ****   tcp_err(newpcb, lwiperf_tcp_err);
 1589              		.loc 1 385 3
 1590 00e6 B7050000 		lui	a1,%hi(lwiperf_tcp_poll)
 1591 00ea 0946     		li	a2,2
 1592 00ec 2685     		mv	a0,s1
 1593 00ee 93850500 		addi	a1,a1,%lo(lwiperf_tcp_poll)
 1594 00f2 97000000 		call	tcp_poll
 1594      E7800000 
 1595              	.LVL182:
 386:C:/Users/stapi/OneDrive/Desktop/GD32VW553/V1_MQTT_OK/GD32VW55X_Wifi_BLE_SDK/GD32VW55x_RELEASE_V1.0.2/MSDK/lwip/lwip-2.1.2/src/apps/lwiperf\lwiperf.c **** 
 1596              		.loc 1 386 3
 1597 00fa B7050000 		lui	a1,%hi(lwiperf_tcp_err)
 1598 00fe 2685     		mv	a0,s1
 1599 0100 93850500 		addi	a1,a1,%lo(lwiperf_tcp_err)
 1600 0104 97000000 		call	tcp_err
 1600      E7800000 
 1601              	.LVL183:
 388:C:/Users/stapi/OneDrive/Desktop/GD32VW553/V1_MQTT_OK/GD32VW55X_Wifi_BLE_SDK/GD32VW55x_RELEASE_V1.0.2/MSDK/lwip/lwip-2.1.2/src/apps/lwiperf\lwiperf.c **** 
 1602              		.loc 1 388 3
 1603 010c 83A70900 		lw	a5,0(s3)
 390:C:/Users/stapi/OneDrive/Desktop/GD32VW553/V1_MQTT_OK/GD32VW55X_Wifi_BLE_SDK/GD32VW55x_RELEASE_V1.0.2/MSDK/lwip/lwip-2.1.2/src/apps/lwiperf\lwiperf.c ****   if (err != ERR_OK) {
 1604              		.loc 1 390 9 is_stmt 0
 1605 0110 B7060000 		lui	a3,%hi(lwiperf_tcp_client_connected)
 1606 0114 2685     		mv	a0,s1
 1607 0116 93860600 		addi	a3,a3,%lo(lwiperf_tcp_client_connected)
 1608 011a 5286     		mv	a2,s4
 1609 011c 6C00     		addi	a1,sp,12
 388:C:/Users/stapi/OneDrive/Desktop/GD32VW553/V1_MQTT_OK/GD32VW55X_Wifi_BLE_SDK/GD32VW55x_RELEASE_V1.0.2/MSDK/lwip/lwip-2.1.2/src/apps/lwiperf\lwiperf.c **** 
 1610              		.loc 1 388 3
 1611 011e 3EC6     		sw	a5,12(sp)
 390:C:/Users/stapi/OneDrive/Desktop/GD32VW553/V1_MQTT_OK/GD32VW55X_Wifi_BLE_SDK/GD32VW55x_RELEASE_V1.0.2/MSDK/lwip/lwip-2.1.2/src/apps/lwiperf\lwiperf.c ****   if (err != ERR_OK) {
 1612              		.loc 1 390 3 is_stmt 1
 390:C:/Users/stapi/OneDrive/Desktop/GD32VW553/V1_MQTT_OK/GD32VW55X_Wifi_BLE_SDK/GD32VW55x_RELEASE_V1.0.2/MSDK/lwip/lwip-2.1.2/src/apps/lwiperf\lwiperf.c ****   if (err != ERR_OK) {
 1613              		.loc 1 390 9 is_stmt 0
 1614 0120 97000000 		call	tcp_connect
 1614      E7800000 
 1615              	.LVL184:
 1616 0128 AA84     		mv	s1,a0
 1617              	.LVL185:
 391:C:/Users/stapi/OneDrive/Desktop/GD32VW553/V1_MQTT_OK/GD32VW55X_Wifi_BLE_SDK/GD32VW55x_RELEASE_V1.0.2/MSDK/lwip/lwip-2.1.2/src/apps/lwiperf\lwiperf.c ****     lwiperf_tcp_close(client_conn, LWIPERF_TCP_ABORTED_LOCAL);
 1618              		.loc 1 391 3 is_stmt 1
 391:C:/Users/stapi/OneDrive/Desktop/GD32VW553/V1_MQTT_OK/GD32VW55X_Wifi_BLE_SDK/GD32VW55x_RELEASE_V1.0.2/MSDK/lwip/lwip-2.1.2/src/apps/lwiperf\lwiperf.c ****     lwiperf_tcp_close(client_conn, LWIPERF_TCP_ABORTED_LOCAL);
 1619              		.loc 1 391 6 is_stmt 0
 1620 012a 01C9     		beq	a0,zero,.L128
 392:C:/Users/stapi/OneDrive/Desktop/GD32VW553/V1_MQTT_OK/GD32VW55X_Wifi_BLE_SDK/GD32VW55x_RELEASE_V1.0.2/MSDK/lwip/lwip-2.1.2/src/apps/lwiperf\lwiperf.c ****     return err;
 1621              		.loc 1 392 5 is_stmt 1
 1622 012c 8945     		li	a1,2
 1623 012e 2285     		mv	a0,s0
 1624              	.LVL186:
 1625 0130 97000000 		call	lwiperf_tcp_close
 1625      E7800000 
 1626              	.LVL187:
 393:C:/Users/stapi/OneDrive/Desktop/GD32VW553/V1_MQTT_OK/GD32VW55X_Wifi_BLE_SDK/GD32VW55x_RELEASE_V1.0.2/MSDK/lwip/lwip-2.1.2/src/apps/lwiperf\lwiperf.c ****   }
 1627              		.loc 1 393 5
 393:C:/Users/stapi/OneDrive/Desktop/GD32VW553/V1_MQTT_OK/GD32VW55X_Wifi_BLE_SDK/GD32VW55x_RELEASE_V1.0.2/MSDK/lwip/lwip-2.1.2/src/apps/lwiperf\lwiperf.c ****   }
 1628              		.loc 1 393 12 is_stmt 0
 1629 0138 25BF     		j	.L126
 1630              	.LVL188:
 1631              	.L128:
 395:C:/Users/stapi/OneDrive/Desktop/GD32VW553/V1_MQTT_OK/GD32VW55X_Wifi_BLE_SDK/GD32VW55x_RELEASE_V1.0.2/MSDK/lwip/lwip-2.1.2/src/apps/lwiperf\lwiperf.c ****   *new_conn = client_conn;
 1632              		.loc 1 395 3 is_stmt 1
 1633              	.LBB72:
 1634              	.LBB73:
 151:C:/Users/stapi/OneDrive/Desktop/GD32VW553/V1_MQTT_OK/GD32VW55X_Wifi_BLE_SDK/GD32VW55x_RELEASE_V1.0.2/MSDK/lwip/lwip-2.1.2/src/apps/lwiperf\lwiperf.c ****   lwiperf_all_connections = item;
 1635              		.loc 1 151 3
 151:C:/Users/stapi/OneDrive/Desktop/GD32VW553/V1_MQTT_OK/GD32VW55X_Wifi_BLE_SDK/GD32VW55x_RELEASE_V1.0.2/MSDK/lwip/lwip-2.1.2/src/apps/lwiperf\lwiperf.c ****   lwiperf_all_connections = item;
 1636              		.loc 1 151 14 is_stmt 0
 1637 013a B7070000 		lui	a5,%hi(.LANCHOR0)
 1638 013e 93870700 		addi	a5,a5,%lo(.LANCHOR0)
 1639 0142 9843     		lw	a4,0(a5)
 152:C:/Users/stapi/OneDrive/Desktop/GD32VW553/V1_MQTT_OK/GD32VW55X_Wifi_BLE_SDK/GD32VW55x_RELEASE_V1.0.2/MSDK/lwip/lwip-2.1.2/src/apps/lwiperf\lwiperf.c **** }
 1640              		.loc 1 152 27
 1641 0144 80C3     		sw	s0,0(a5)
 151:C:/Users/stapi/OneDrive/Desktop/GD32VW553/V1_MQTT_OK/GD32VW55X_Wifi_BLE_SDK/GD32VW55x_RELEASE_V1.0.2/MSDK/lwip/lwip-2.1.2/src/apps/lwiperf\lwiperf.c ****   lwiperf_all_connections = item;
 1642              		.loc 1 151 14
 1643 0146 18C0     		sw	a4,0(s0)
 152:C:/Users/stapi/OneDrive/Desktop/GD32VW553/V1_MQTT_OK/GD32VW55X_Wifi_BLE_SDK/GD32VW55x_RELEASE_V1.0.2/MSDK/lwip/lwip-2.1.2/src/apps/lwiperf\lwiperf.c **** }
 1644              		.loc 1 152 3 is_stmt 1
 1645              	.LVL189:
 1646              	.LBE73:
 1647              	.LBE72:
 396:C:/Users/stapi/OneDrive/Desktop/GD32VW553/V1_MQTT_OK/GD32VW55X_Wifi_BLE_SDK/GD32VW55x_RELEASE_V1.0.2/MSDK/lwip/lwip-2.1.2/src/apps/lwiperf\lwiperf.c ****   return ERR_OK;
 1648              		.loc 1 396 3
 396:C:/Users/stapi/OneDrive/Desktop/GD32VW553/V1_MQTT_OK/GD32VW55X_Wifi_BLE_SDK/GD32VW55x_RELEASE_V1.0.2/MSDK/lwip/lwip-2.1.2/src/apps/lwiperf\lwiperf.c ****   return ERR_OK;
 1649              		.loc 1 396 13 is_stmt 0
 1650 0148 23208900 		sw	s0,0(s2)
 397:C:/Users/stapi/OneDrive/Desktop/GD32VW553/V1_MQTT_OK/GD32VW55X_Wifi_BLE_SDK/GD32VW55x_RELEASE_V1.0.2/MSDK/lwip/lwip-2.1.2/src/apps/lwiperf\lwiperf.c **** }
 1651              		.loc 1 397 3 is_stmt 1
 397:C:/Users/stapi/OneDrive/Desktop/GD32VW553/V1_MQTT_OK/GD32VW55X_Wifi_BLE_SDK/GD32VW55x_RELEASE_V1.0.2/MSDK/lwip/lwip-2.1.2/src/apps/lwiperf\lwiperf.c **** }
 1652              		.loc 1 397 10 is_stmt 0
 1653 014c 15B7     		j	.L126
 1654              	.LBE75:
 1655              	.LBE77:
 1656              		.cfi_endproc
 1657              	.LFE12:
 1659              		.section	.rodata.lwiperf_tx_start_passive.str1.4,"aMS",@progbits,1
 1660              		.align	2
 1661              	.LC13:
 1662 0000 6E65775F 		.string	"new_conn != NULL"
 1662      636F6E6E 
 1662      20213D20 
 1662      4E554C4C 
 1662      00
 1663              		.section	.text.lwiperf_tx_start_passive,"ax",@progbits
 1664              		.align	1
 1666              	lwiperf_tx_start_passive:
 1667              	.LFB13:
 402:C:/Users/stapi/OneDrive/Desktop/GD32VW553/V1_MQTT_OK/GD32VW55X_Wifi_BLE_SDK/GD32VW55x_RELEASE_V1.0.2/MSDK/lwip/lwip-2.1.2/src/apps/lwiperf\lwiperf.c ****   err_t ret;
 1668              		.loc 1 402 1 is_stmt 1
 1669              		.cfi_startproc
 1670              	.LVL190:
 1671 0000 17030000 		call	t0,__riscv_save_1
 1671      E7020300 
 1672              		.cfi_offset 8, -8
 1673              		.cfi_offset 1, -4
 1674              		.cfi_def_cfa_offset 16
 403:C:/Users/stapi/OneDrive/Desktop/GD32VW553/V1_MQTT_OK/GD32VW55X_Wifi_BLE_SDK/GD32VW55x_RELEASE_V1.0.2/MSDK/lwip/lwip-2.1.2/src/apps/lwiperf\lwiperf.c ****   lwiperf_state_tcp_t *new_conn = NULL;
 1675              		.loc 1 403 3
 404:C:/Users/stapi/OneDrive/Desktop/GD32VW553/V1_MQTT_OK/GD32VW55X_Wifi_BLE_SDK/GD32VW55x_RELEASE_V1.0.2/MSDK/lwip/lwip-2.1.2/src/apps/lwiperf\lwiperf.c ****   u16_t remote_port = (u16_t)lwip_htonl(conn->settings.remote_port);
 1676              		.loc 1 404 3
 402:C:/Users/stapi/OneDrive/Desktop/GD32VW553/V1_MQTT_OK/GD32VW55X_Wifi_BLE_SDK/GD32VW55x_RELEASE_V1.0.2/MSDK/lwip/lwip-2.1.2/src/apps/lwiperf\lwiperf.c ****   err_t ret;
 1677              		.loc 1 402 1 is_stmt 0
 1678 0008 2A84     		mv	s0,a0
 405:C:/Users/stapi/OneDrive/Desktop/GD32VW553/V1_MQTT_OK/GD32VW55X_Wifi_BLE_SDK/GD32VW55x_RELEASE_V1.0.2/MSDK/lwip/lwip-2.1.2/src/apps/lwiperf\lwiperf.c **** 
 1679              		.loc 1 405 30
 1680 000a 0859     		lw	a0,48(a0)
 1681              	.LVL191:
 402:C:/Users/stapi/OneDrive/Desktop/GD32VW553/V1_MQTT_OK/GD32VW55X_Wifi_BLE_SDK/GD32VW55x_RELEASE_V1.0.2/MSDK/lwip/lwip-2.1.2/src/apps/lwiperf\lwiperf.c ****   err_t ret;
 1682              		.loc 1 402 1
 1683 000c 4111     		addi	sp,sp,-16
 1684              		.cfi_def_cfa_offset 32
 404:C:/Users/stapi/OneDrive/Desktop/GD32VW553/V1_MQTT_OK/GD32VW55X_Wifi_BLE_SDK/GD32VW55x_RELEASE_V1.0.2/MSDK/lwip/lwip-2.1.2/src/apps/lwiperf\lwiperf.c ****   u16_t remote_port = (u16_t)lwip_htonl(conn->settings.remote_port);
 1685              		.loc 1 404 24
 1686 000e 02C6     		sw	zero,12(sp)
 405:C:/Users/stapi/OneDrive/Desktop/GD32VW553/V1_MQTT_OK/GD32VW55X_Wifi_BLE_SDK/GD32VW55x_RELEASE_V1.0.2/MSDK/lwip/lwip-2.1.2/src/apps/lwiperf\lwiperf.c **** 
 1687              		.loc 1 405 3 is_stmt 1
 405:C:/Users/stapi/OneDrive/Desktop/GD32VW553/V1_MQTT_OK/GD32VW55X_Wifi_BLE_SDK/GD32VW55x_RELEASE_V1.0.2/MSDK/lwip/lwip-2.1.2/src/apps/lwiperf\lwiperf.c **** 
 1688              		.loc 1 405 30 is_stmt 0
 1689 0010 97000000 		call	lwip_htonl
 1689      E7800000 
 1690              	.LVL192:
 407:C:/Users/stapi/OneDrive/Desktop/GD32VW553/V1_MQTT_OK/GD32VW55X_Wifi_BLE_SDK/GD32VW55x_RELEASE_V1.0.2/MSDK/lwip/lwip-2.1.2/src/apps/lwiperf\lwiperf.c ****     conn->base.related_master_state, &new_conn);
 1691              		.loc 1 407 3 is_stmt 1
 407:C:/Users/stapi/OneDrive/Desktop/GD32VW553/V1_MQTT_OK/GD32VW55X_Wifi_BLE_SDK/GD32VW55x_RELEASE_V1.0.2/MSDK/lwip/lwip-2.1.2/src/apps/lwiperf\lwiperf.c ****     conn->base.related_master_state, &new_conn);
 1692              		.loc 1 407 31 is_stmt 0
 1693 0018 83280401 		lw	a7,16(s0)
 407:C:/Users/stapi/OneDrive/Desktop/GD32VW553/V1_MQTT_OK/GD32VW55X_Wifi_BLE_SDK/GD32VW55x_RELEASE_V1.0.2/MSDK/lwip/lwip-2.1.2/src/apps/lwiperf\lwiperf.c ****     conn->base.related_master_state, &new_conn);
 1694              		.loc 1 407 9
 1695 001c 1C44     		lw	a5,8(s0)
 1696 001e 584C     		lw	a4,28(s0)
 1697 0020 144C     		lw	a3,24(s0)
 1698 0022 B3450508 		zext.h	a1,a0
 1699 0026 1308C100 		addi	a6,sp,12
 1700 002a 13068402 		addi	a2,s0,40
 1701 002e 13854800 		addi	a0,a7,4
 1702              	.LVL193:
 1703 0032 97000000 		call	lwiperf_tx_start_impl
 1703      E7800000 
 1704              	.LVL194:
 409:C:/Users/stapi/OneDrive/Desktop/GD32VW553/V1_MQTT_OK/GD32VW55X_Wifi_BLE_SDK/GD32VW55x_RELEASE_V1.0.2/MSDK/lwip/lwip-2.1.2/src/apps/lwiperf\lwiperf.c ****     LWIP_ASSERT("new_conn != NULL", new_conn != NULL);
 1705              		.loc 1 409 3 is_stmt 1
 409:C:/Users/stapi/OneDrive/Desktop/GD32VW553/V1_MQTT_OK/GD32VW55X_Wifi_BLE_SDK/GD32VW55x_RELEASE_V1.0.2/MSDK/lwip/lwip-2.1.2/src/apps/lwiperf\lwiperf.c ****     LWIP_ASSERT("new_conn != NULL", new_conn != NULL);
 1706              		.loc 1 409 6 is_stmt 0
 1707 003a 05E9     		bne	a0,zero,.L132
 410:C:/Users/stapi/OneDrive/Desktop/GD32VW553/V1_MQTT_OK/GD32VW55X_Wifi_BLE_SDK/GD32VW55x_RELEASE_V1.0.2/MSDK/lwip/lwip-2.1.2/src/apps/lwiperf\lwiperf.c ****     new_conn->settings.flags = 0; /* prevent the remote side starting back as client again */
 1708              		.loc 1 410 5 is_stmt 1
 410:C:/Users/stapi/OneDrive/Desktop/GD32VW553/V1_MQTT_OK/GD32VW55X_Wifi_BLE_SDK/GD32VW55x_RELEASE_V1.0.2/MSDK/lwip/lwip-2.1.2/src/apps/lwiperf\lwiperf.c ****     new_conn->settings.flags = 0; /* prevent the remote side starting back as client again */
 1709              		.loc 1 410 5
 1710 003c B247     		lw	a5,12(sp)
 1711 003e 85E7     		bne	a5,zero,.L133
 410:C:/Users/stapi/OneDrive/Desktop/GD32VW553/V1_MQTT_OK/GD32VW55X_Wifi_BLE_SDK/GD32VW55x_RELEASE_V1.0.2/MSDK/lwip/lwip-2.1.2/src/apps/lwiperf\lwiperf.c ****     new_conn->settings.flags = 0; /* prevent the remote side starting back as client again */
 1712              		.loc 1 410 5 discriminator 1
 410:C:/Users/stapi/OneDrive/Desktop/GD32VW553/V1_MQTT_OK/GD32VW55X_Wifi_BLE_SDK/GD32VW55x_RELEASE_V1.0.2/MSDK/lwip/lwip-2.1.2/src/apps/lwiperf\lwiperf.c ****     new_conn->settings.flags = 0; /* prevent the remote side starting back as client again */
 1713              		.loc 1 410 5 discriminator 1
 1714 0040 B7060000 		lui	a3,%hi(.LC0)
 1715 0044 B7050000 		lui	a1,%hi(.LC13)
 1716 0048 37050000 		lui	a0,%hi(.LC2)
 1717              	.LVL195:
 1718 004c 93860600 		addi	a3,a3,%lo(.LC0)
 1719 0050 1306A019 		li	a2,410
 1720 0054 93850500 		addi	a1,a1,%lo(.LC13)
 1721 0058 13050500 		addi	a0,a0,%lo(.LC2)
 1722 005c 97000000 		call	printf
 1722      E7800000 
 1723              	.LVL196:
 1724              	.L134:
 410:C:/Users/stapi/OneDrive/Desktop/GD32VW553/V1_MQTT_OK/GD32VW55X_Wifi_BLE_SDK/GD32VW55x_RELEASE_V1.0.2/MSDK/lwip/lwip-2.1.2/src/apps/lwiperf\lwiperf.c ****     new_conn->settings.flags = 0; /* prevent the remote side starting back as client again */
 1725              		.loc 1 410 5 discriminator 1
 410:C:/Users/stapi/OneDrive/Desktop/GD32VW553/V1_MQTT_OK/GD32VW55X_Wifi_BLE_SDK/GD32VW55x_RELEASE_V1.0.2/MSDK/lwip/lwip-2.1.2/src/apps/lwiperf\lwiperf.c ****     new_conn->settings.flags = 0; /* prevent the remote side starting back as client again */
 1726              		.loc 1 410 5 discriminator 1
 410:C:/Users/stapi/OneDrive/Desktop/GD32VW553/V1_MQTT_OK/GD32VW55X_Wifi_BLE_SDK/GD32VW55x_RELEASE_V1.0.2/MSDK/lwip/lwip-2.1.2/src/apps/lwiperf\lwiperf.c ****     new_conn->settings.flags = 0; /* prevent the remote side starting back as client again */
 1727              		.loc 1 410 5 discriminator 1
 1728 0064 01A0     		j	.L134
 1729              	.LVL197:
 1730              	.L133:
 410:C:/Users/stapi/OneDrive/Desktop/GD32VW553/V1_MQTT_OK/GD32VW55X_Wifi_BLE_SDK/GD32VW55x_RELEASE_V1.0.2/MSDK/lwip/lwip-2.1.2/src/apps/lwiperf\lwiperf.c ****     new_conn->settings.flags = 0; /* prevent the remote side starting back as client again */
 1731              		.loc 1 410 5 discriminator 2
 410:C:/Users/stapi/OneDrive/Desktop/GD32VW553/V1_MQTT_OK/GD32VW55X_Wifi_BLE_SDK/GD32VW55x_RELEASE_V1.0.2/MSDK/lwip/lwip-2.1.2/src/apps/lwiperf\lwiperf.c ****     new_conn->settings.flags = 0; /* prevent the remote side starting back as client again */
 1732              		.loc 1 410 5 discriminator 2
 411:C:/Users/stapi/OneDrive/Desktop/GD32VW553/V1_MQTT_OK/GD32VW55X_Wifi_BLE_SDK/GD32VW55x_RELEASE_V1.0.2/MSDK/lwip/lwip-2.1.2/src/apps/lwiperf\lwiperf.c ****   }
 1733              		.loc 1 411 5 discriminator 2
 411:C:/Users/stapi/OneDrive/Desktop/GD32VW553/V1_MQTT_OK/GD32VW55X_Wifi_BLE_SDK/GD32VW55x_RELEASE_V1.0.2/MSDK/lwip/lwip-2.1.2/src/apps/lwiperf\lwiperf.c ****   }
 1734              		.loc 1 411 30 is_stmt 0 discriminator 2
 1735 0066 23A40702 		sw	zero,40(a5)
 1736              	.L132:
 413:C:/Users/stapi/OneDrive/Desktop/GD32VW553/V1_MQTT_OK/GD32VW55X_Wifi_BLE_SDK/GD32VW55x_RELEASE_V1.0.2/MSDK/lwip/lwip-2.1.2/src/apps/lwiperf\lwiperf.c **** }
 1737              		.loc 1 413 3 is_stmt 1
 414:C:/Users/stapi/OneDrive/Desktop/GD32VW553/V1_MQTT_OK/GD32VW55X_Wifi_BLE_SDK/GD32VW55x_RELEASE_V1.0.2/MSDK/lwip/lwip-2.1.2/src/apps/lwiperf\lwiperf.c **** 
 1738              		.loc 1 414 1 is_stmt 0
 1739 006a 4101     		addi	sp,sp,16
 1740              		.cfi_def_cfa_offset 0
 1741 006c 17030000 		tail	__riscv_restore_1
 1741      67000300 
 1742              		.cfi_restore 8
 1743              		.cfi_restore 1
 1744              		.cfi_def_cfa_offset -16
 1745              		.cfi_endproc
 1746              	.LFE13:
 1748              		.section	.rodata.lwiperf_tcp_recv.str1.4,"aMS",@progbits,1
 1749              		.align	2
 1750              	.LC14:
 1751 0000 70627566 		.string	"pbuf_remove_header failed"
 1751      5F72656D 
 1751      6F76655F 
 1751      68656164 
 1751      65722066 
 1752 001a 0000     		.align	2
 1753              	.LC15:
 1754 001c 636F756E 		.string	"count mismatch"
 1754      74206D69 
 1754      736D6174 
 1754      636800
 1755              		.section	.text.lwiperf_tcp_recv,"ax",@progbits
 1756              		.align	1
 1758              	lwiperf_tcp_recv:
 1759              	.LFB14:
 419:C:/Users/stapi/OneDrive/Desktop/GD32VW553/V1_MQTT_OK/GD32VW55X_Wifi_BLE_SDK/GD32VW55x_RELEASE_V1.0.2/MSDK/lwip/lwip-2.1.2/src/apps/lwiperf\lwiperf.c ****   u8_t tmp;
 1760              		.loc 1 419 1 is_stmt 1
 1761              		.cfi_startproc
 1762              	.LVL198:
 1763 0000 17030000 		call	t0,__riscv_save_4
 1763      E7020300 
 1764              		.cfi_offset 19, -20
 1765              		.cfi_offset 18, -16
 1766              		.cfi_offset 9, -12
 1767              		.cfi_offset 8, -8
 1768              		.cfi_offset 1, -4
 1769              		.cfi_def_cfa_offset 32
 420:C:/Users/stapi/OneDrive/Desktop/GD32VW553/V1_MQTT_OK/GD32VW55X_Wifi_BLE_SDK/GD32VW55x_RELEASE_V1.0.2/MSDK/lwip/lwip-2.1.2/src/apps/lwiperf\lwiperf.c ****   u16_t tot_len;
 1770              		.loc 1 420 3
 421:C:/Users/stapi/OneDrive/Desktop/GD32VW553/V1_MQTT_OK/GD32VW55X_Wifi_BLE_SDK/GD32VW55x_RELEASE_V1.0.2/MSDK/lwip/lwip-2.1.2/src/apps/lwiperf\lwiperf.c ****   u32_t packet_idx;
 1771              		.loc 1 421 3
 422:C:/Users/stapi/OneDrive/Desktop/GD32VW553/V1_MQTT_OK/GD32VW55X_Wifi_BLE_SDK/GD32VW55x_RELEASE_V1.0.2/MSDK/lwip/lwip-2.1.2/src/apps/lwiperf\lwiperf.c ****   struct pbuf *q;
 1772              		.loc 1 422 3
 423:C:/Users/stapi/OneDrive/Desktop/GD32VW553/V1_MQTT_OK/GD32VW55X_Wifi_BLE_SDK/GD32VW55x_RELEASE_V1.0.2/MSDK/lwip/lwip-2.1.2/src/apps/lwiperf\lwiperf.c ****   lwiperf_state_tcp_t *conn = (lwiperf_state_tcp_t *)arg;
 1773              		.loc 1 423 3
 424:C:/Users/stapi/OneDrive/Desktop/GD32VW553/V1_MQTT_OK/GD32VW55X_Wifi_BLE_SDK/GD32VW55x_RELEASE_V1.0.2/MSDK/lwip/lwip-2.1.2/src/apps/lwiperf\lwiperf.c **** 
 1774              		.loc 1 424 3
 1775              	.LVL199:
 426:C:/Users/stapi/OneDrive/Desktop/GD32VW553/V1_MQTT_OK/GD32VW55X_Wifi_BLE_SDK/GD32VW55x_RELEASE_V1.0.2/MSDK/lwip/lwip-2.1.2/src/apps/lwiperf\lwiperf.c ****   LWIP_UNUSED_ARG(tpcb);
 1776              		.loc 1 426 3
 426:C:/Users/stapi/OneDrive/Desktop/GD32VW553/V1_MQTT_OK/GD32VW55X_Wifi_BLE_SDK/GD32VW55x_RELEASE_V1.0.2/MSDK/lwip/lwip-2.1.2/src/apps/lwiperf\lwiperf.c ****   LWIP_UNUSED_ARG(tpcb);
 1777              		.loc 1 426 3
 1778 0008 1849     		lw	a4,16(a0)
 1779 000a 6305B702 		beq	a4,a1,.L137
 426:C:/Users/stapi/OneDrive/Desktop/GD32VW553/V1_MQTT_OK/GD32VW55X_Wifi_BLE_SDK/GD32VW55x_RELEASE_V1.0.2/MSDK/lwip/lwip-2.1.2/src/apps/lwiperf\lwiperf.c ****   LWIP_UNUSED_ARG(tpcb);
 1780              		.loc 1 426 3 discriminator 1
 426:C:/Users/stapi/OneDrive/Desktop/GD32VW553/V1_MQTT_OK/GD32VW55X_Wifi_BLE_SDK/GD32VW55x_RELEASE_V1.0.2/MSDK/lwip/lwip-2.1.2/src/apps/lwiperf\lwiperf.c ****   LWIP_UNUSED_ARG(tpcb);
 1781              		.loc 1 426 3 discriminator 1
 1782 000e B7060000 		lui	a3,%hi(.LC0)
 1783              	.LVL200:
 1784 0012 B7050000 		lui	a1,%hi(.LC11)
 1785              	.LVL201:
 1786 0016 37050000 		lui	a0,%hi(.LC2)
 1787              	.LVL202:
 1788 001a 93860600 		addi	a3,a3,%lo(.LC0)
 1789 001e 1306A01A 		li	a2,426
 1790              	.LVL203:
 1791 0022 93850500 		addi	a1,a1,%lo(.LC11)
 1792 0026 13050500 		addi	a0,a0,%lo(.LC2)
 1793 002a 97000000 		call	printf
 1793      E7800000 
 1794              	.LVL204:
 1795              	.L138:
 426:C:/Users/stapi/OneDrive/Desktop/GD32VW553/V1_MQTT_OK/GD32VW55X_Wifi_BLE_SDK/GD32VW55x_RELEASE_V1.0.2/MSDK/lwip/lwip-2.1.2/src/apps/lwiperf\lwiperf.c ****   LWIP_UNUSED_ARG(tpcb);
 1796              		.loc 1 426 3 discriminator 1
 426:C:/Users/stapi/OneDrive/Desktop/GD32VW553/V1_MQTT_OK/GD32VW55X_Wifi_BLE_SDK/GD32VW55x_RELEASE_V1.0.2/MSDK/lwip/lwip-2.1.2/src/apps/lwiperf\lwiperf.c ****   LWIP_UNUSED_ARG(tpcb);
 1797              		.loc 1 426 3 discriminator 1
 426:C:/Users/stapi/OneDrive/Desktop/GD32VW553/V1_MQTT_OK/GD32VW55X_Wifi_BLE_SDK/GD32VW55x_RELEASE_V1.0.2/MSDK/lwip/lwip-2.1.2/src/apps/lwiperf\lwiperf.c ****   LWIP_UNUSED_ARG(tpcb);
 1798              		.loc 1 426 3 discriminator 1
 1799 0032 01A0     		j	.L138
 1800              	.LVL205:
 1801              	.L137:
 426:C:/Users/stapi/OneDrive/Desktop/GD32VW553/V1_MQTT_OK/GD32VW55X_Wifi_BLE_SDK/GD32VW55x_RELEASE_V1.0.2/MSDK/lwip/lwip-2.1.2/src/apps/lwiperf\lwiperf.c ****   LWIP_UNUSED_ARG(tpcb);
 1802              		.loc 1 426 3 discriminator 2
 426:C:/Users/stapi/OneDrive/Desktop/GD32VW553/V1_MQTT_OK/GD32VW55X_Wifi_BLE_SDK/GD32VW55x_RELEASE_V1.0.2/MSDK/lwip/lwip-2.1.2/src/apps/lwiperf\lwiperf.c ****   LWIP_UNUSED_ARG(tpcb);
 1803              		.loc 1 426 3 discriminator 2
 427:C:/Users/stapi/OneDrive/Desktop/GD32VW553/V1_MQTT_OK/GD32VW55X_Wifi_BLE_SDK/GD32VW55x_RELEASE_V1.0.2/MSDK/lwip/lwip-2.1.2/src/apps/lwiperf\lwiperf.c **** 
 1804              		.loc 1 427 3 discriminator 2
 429:C:/Users/stapi/OneDrive/Desktop/GD32VW553/V1_MQTT_OK/GD32VW55X_Wifi_BLE_SDK/GD32VW55x_RELEASE_V1.0.2/MSDK/lwip/lwip-2.1.2/src/apps/lwiperf\lwiperf.c ****     lwiperf_tcp_close(conn, LWIPERF_TCP_ABORTED_REMOTE);
 1805              		.loc 1 429 3 discriminator 2
 429:C:/Users/stapi/OneDrive/Desktop/GD32VW553/V1_MQTT_OK/GD32VW55X_Wifi_BLE_SDK/GD32VW55x_RELEASE_V1.0.2/MSDK/lwip/lwip-2.1.2/src/apps/lwiperf\lwiperf.c ****     lwiperf_tcp_close(conn, LWIPERF_TCP_ABORTED_REMOTE);
 1806              		.loc 1 429 6 is_stmt 0 discriminator 2
 1807 0034 99CA     		beq	a3,zero,.L139
 430:C:/Users/stapi/OneDrive/Desktop/GD32VW553/V1_MQTT_OK/GD32VW55X_Wifi_BLE_SDK/GD32VW55x_RELEASE_V1.0.2/MSDK/lwip/lwip-2.1.2/src/apps/lwiperf\lwiperf.c ****     return ERR_OK;
 1808              		.loc 1 430 5 is_stmt 1
 1809 0036 9545     		li	a1,5
 1810              	.LVL206:
 1811              	.L175:
 1812              	.LBB81:
 1813              	.LBB82:
 441:C:/Users/stapi/OneDrive/Desktop/GD32VW553/V1_MQTT_OK/GD32VW55X_Wifi_BLE_SDK/GD32VW55x_RELEASE_V1.0.2/MSDK/lwip/lwip-2.1.2/src/apps/lwiperf\lwiperf.c ****     return ERR_OK;
 1814              		.loc 1 441 5 is_stmt 0
 1815 0038 97000000 		call	lwiperf_tcp_close
 1815      E7800000 
 1816              	.LVL207:
 442:C:/Users/stapi/OneDrive/Desktop/GD32VW553/V1_MQTT_OK/GD32VW55X_Wifi_BLE_SDK/GD32VW55x_RELEASE_V1.0.2/MSDK/lwip/lwip-2.1.2/src/apps/lwiperf\lwiperf.c ****   }
 1817              		.loc 1 442 5 is_stmt 1
 1818              	.L169:
 1819              	.LBE82:
 1820              	.LBE81:
 522:C:/Users/stapi/OneDrive/Desktop/GD32VW553/V1_MQTT_OK/GD32VW55X_Wifi_BLE_SDK/GD32VW55x_RELEASE_V1.0.2/MSDK/lwip/lwip-2.1.2/src/apps/lwiperf\lwiperf.c **** 
 1821              		.loc 1 522 1 is_stmt 0
 1822 0040 0145     		li	a0,0
 1823 0042 17030000 		tail	__riscv_restore_4
 1823      67000300 
 1824              		.cfi_remember_state
 1825              		.cfi_restore 19
 1826              		.cfi_restore 18
 1827              		.cfi_restore 9
 1828              		.cfi_restore 8
 1829              		.cfi_restore 1
 1830              		.cfi_def_cfa_offset 0
 1831              	.LVL208:
 1832              	.L139:
 1833              		.cfi_restore_state
 1834 004a 2A84     		mv	s0,a0
 1835 004c B284     		mv	s1,a2
 1836              	.LVL209:
 1837              	.LBB87:
 1838              	.LBB85:
 433:C:/Users/stapi/OneDrive/Desktop/GD32VW553/V1_MQTT_OK/GD32VW55X_Wifi_BLE_SDK/GD32VW55x_RELEASE_V1.0.2/MSDK/lwip/lwip-2.1.2/src/apps/lwiperf\lwiperf.c ****     /* connection closed -> test done */
 1839              		.loc 1 433 3 is_stmt 1
 433:C:/Users/stapi/OneDrive/Desktop/GD32VW553/V1_MQTT_OK/GD32VW55X_Wifi_BLE_SDK/GD32VW55x_RELEASE_V1.0.2/MSDK/lwip/lwip-2.1.2/src/apps/lwiperf\lwiperf.c ****     /* connection closed -> test done */
 1840              		.loc 1 433 6 is_stmt 0
 1841 004e 05E2     		bne	a2,zero,.L141
 1842              	.LVL210:
 435:C:/Users/stapi/OneDrive/Desktop/GD32VW553/V1_MQTT_OK/GD32VW55X_Wifi_BLE_SDK/GD32VW55x_RELEASE_V1.0.2/MSDK/lwip/lwip-2.1.2/src/apps/lwiperf\lwiperf.c ****       if ((conn->settings.flags & PP_HTONL(LWIPERF_FLAGS_ANSWER_NOW)) == 0) {
 1843              		.loc 1 435 5 is_stmt 1
 435:C:/Users/stapi/OneDrive/Desktop/GD32VW553/V1_MQTT_OK/GD32VW55X_Wifi_BLE_SDK/GD32VW55x_RELEASE_V1.0.2/MSDK/lwip/lwip-2.1.2/src/apps/lwiperf\lwiperf.c ****       if ((conn->settings.flags & PP_HTONL(LWIPERF_FLAGS_ANSWER_NOW)) == 0) {
 1844              		.loc 1 435 23 is_stmt 0
 1845 0050 1C55     		lw	a5,40(a0)
 435:C:/Users/stapi/OneDrive/Desktop/GD32VW553/V1_MQTT_OK/GD32VW55X_Wifi_BLE_SDK/GD32VW55x_RELEASE_V1.0.2/MSDK/lwip/lwip-2.1.2/src/apps/lwiperf\lwiperf.c ****       if ((conn->settings.flags & PP_HTONL(LWIPERF_FLAGS_ANSWER_NOW)) == 0) {
 1846              		.loc 1 435 30
 1847 0052 13F70708 		andi	a4,a5,128
 435:C:/Users/stapi/OneDrive/Desktop/GD32VW553/V1_MQTT_OK/GD32VW55X_Wifi_BLE_SDK/GD32VW55x_RELEASE_V1.0.2/MSDK/lwip/lwip-2.1.2/src/apps/lwiperf\lwiperf.c ****       if ((conn->settings.flags & PP_HTONL(LWIPERF_FLAGS_ANSWER_NOW)) == 0) {
 1848              		.loc 1 435 8
 1849 0056 09CB     		beq	a4,zero,.L142
 436:C:/Users/stapi/OneDrive/Desktop/GD32VW553/V1_MQTT_OK/GD32VW55X_Wifi_BLE_SDK/GD32VW55x_RELEASE_V1.0.2/MSDK/lwip/lwip-2.1.2/src/apps/lwiperf\lwiperf.c ****         /* client requested transmission after end of test */
 1850              		.loc 1 436 7 is_stmt 1
 436:C:/Users/stapi/OneDrive/Desktop/GD32VW553/V1_MQTT_OK/GD32VW55X_Wifi_BLE_SDK/GD32VW55x_RELEASE_V1.0.2/MSDK/lwip/lwip-2.1.2/src/apps/lwiperf\lwiperf.c ****         /* client requested transmission after end of test */
 1851              		.loc 1 436 33 is_stmt 0
 1852 0058 37070001 		li	a4,16777216
 1853 005c F98F     		and	a5,a5,a4
 436:C:/Users/stapi/OneDrive/Desktop/GD32VW553/V1_MQTT_OK/GD32VW55X_Wifi_BLE_SDK/GD32VW55x_RELEASE_V1.0.2/MSDK/lwip/lwip-2.1.2/src/apps/lwiperf\lwiperf.c ****         /* client requested transmission after end of test */
 1854              		.loc 1 436 10
 1855 005e 89E7     		bne	a5,zero,.L142
 438:C:/Users/stapi/OneDrive/Desktop/GD32VW553/V1_MQTT_OK/GD32VW55X_Wifi_BLE_SDK/GD32VW55x_RELEASE_V1.0.2/MSDK/lwip/lwip-2.1.2/src/apps/lwiperf\lwiperf.c ****       }
 1856              		.loc 1 438 9 is_stmt 1
 1857 0060 97000000 		call	lwiperf_tx_start_passive
 1857      E7800000 
 1858              	.LVL211:
 1859              	.L142:
 441:C:/Users/stapi/OneDrive/Desktop/GD32VW553/V1_MQTT_OK/GD32VW55X_Wifi_BLE_SDK/GD32VW55x_RELEASE_V1.0.2/MSDK/lwip/lwip-2.1.2/src/apps/lwiperf\lwiperf.c ****     return ERR_OK;
 1860              		.loc 1 441 5
 1861 0068 8145     		li	a1,0
 1862 006a 2285     		mv	a0,s0
 1863 006c F1B7     		j	.L175
 1864              	.LVL212:
 1865              	.L141:
 448:C:/Users/stapi/OneDrive/Desktop/GD32VW553/V1_MQTT_OK/GD32VW55X_Wifi_BLE_SDK/GD32VW55x_RELEASE_V1.0.2/MSDK/lwip/lwip-2.1.2/src/apps/lwiperf\lwiperf.c ****     /* wait for 24-byte header */
 1866              		.loc 1 448 6 is_stmt 0
 1867 006e 83470504 		lbu	a5,64(a0)
 444:C:/Users/stapi/OneDrive/Desktop/GD32VW553/V1_MQTT_OK/GD32VW55X_Wifi_BLE_SDK/GD32VW55x_RELEASE_V1.0.2/MSDK/lwip/lwip-2.1.2/src/apps/lwiperf\lwiperf.c **** 
 1868              		.loc 1 444 11
 1869 0072 83598600 		lhu	s3,8(a2)
 446:C:/Users/stapi/OneDrive/Desktop/GD32VW553/V1_MQTT_OK/GD32VW55X_Wifi_BLE_SDK/GD32VW55x_RELEASE_V1.0.2/MSDK/lwip/lwip-2.1.2/src/apps/lwiperf\lwiperf.c **** 
 1870              		.loc 1 446 20
 1871 0076 23000502 		sb	zero,32(a0)
 1872 007a 2E89     		mv	s2,a1
 444:C:/Users/stapi/OneDrive/Desktop/GD32VW553/V1_MQTT_OK/GD32VW55X_Wifi_BLE_SDK/GD32VW55x_RELEASE_V1.0.2/MSDK/lwip/lwip-2.1.2/src/apps/lwiperf\lwiperf.c **** 
 1873              		.loc 1 444 3 is_stmt 1
 1874              	.LVL213:
 446:C:/Users/stapi/OneDrive/Desktop/GD32VW553/V1_MQTT_OK/GD32VW55X_Wifi_BLE_SDK/GD32VW55x_RELEASE_V1.0.2/MSDK/lwip/lwip-2.1.2/src/apps/lwiperf\lwiperf.c **** 
 1875              		.loc 1 446 3
 448:C:/Users/stapi/OneDrive/Desktop/GD32VW553/V1_MQTT_OK/GD32VW55X_Wifi_BLE_SDK/GD32VW55x_RELEASE_V1.0.2/MSDK/lwip/lwip-2.1.2/src/apps/lwiperf\lwiperf.c ****     /* wait for 24-byte header */
 1876              		.loc 1 448 3
 448:C:/Users/stapi/OneDrive/Desktop/GD32VW553/V1_MQTT_OK/GD32VW55X_Wifi_BLE_SDK/GD32VW55x_RELEASE_V1.0.2/MSDK/lwip/lwip-2.1.2/src/apps/lwiperf\lwiperf.c ****     /* wait for 24-byte header */
 1877              		.loc 1 448 6 is_stmt 0
 1878 007c EDC7     		beq	a5,zero,.L143
 448:C:/Users/stapi/OneDrive/Desktop/GD32VW553/V1_MQTT_OK/GD32VW55X_Wifi_BLE_SDK/GD32VW55x_RELEASE_V1.0.2/MSDK/lwip/lwip-2.1.2/src/apps/lwiperf\lwiperf.c ****     /* wait for 24-byte header */
 1879              		.loc 1 448 63
 1880 007e 5C51     		lw	a5,36(a0)
 1881 0080 A117     		addi	a5,a5,-24
 448:C:/Users/stapi/OneDrive/Desktop/GD32VW553/V1_MQTT_OK/GD32VW55X_Wifi_BLE_SDK/GD32VW55x_RELEASE_V1.0.2/MSDK/lwip/lwip-2.1.2/src/apps/lwiperf\lwiperf.c ****     /* wait for 24-byte header */
 1882              		.loc 1 448 69
 1883 0082 BE07     		slli	a5,a5,15
 448:C:/Users/stapi/OneDrive/Desktop/GD32VW553/V1_MQTT_OK/GD32VW55X_Wifi_BLE_SDK/GD32VW55x_RELEASE_V1.0.2/MSDK/lwip/lwip-2.1.2/src/apps/lwiperf\lwiperf.c ****     /* wait for 24-byte header */
 1884              		.loc 1 448 34
 1885 0084 F1C3     		beq	a5,zero,.L144
 1886              	.LVL214:
 1887              	.L145:
 1888              	.LBE85:
 1889              	.LBE87:
 419:C:/Users/stapi/OneDrive/Desktop/GD32VW553/V1_MQTT_OK/GD32VW55X_Wifi_BLE_SDK/GD32VW55x_RELEASE_V1.0.2/MSDK/lwip/lwip-2.1.2/src/apps/lwiperf\lwiperf.c ****   u8_t tmp;
 1890              		.loc 1 419 1
 1891 0086 2687     		mv	a4,s1
 1892              	.LBB88:
 1893              	.LBB86:
 495:C:/Users/stapi/OneDrive/Desktop/GD32VW553/V1_MQTT_OK/GD32VW55X_Wifi_BLE_SDK/GD32VW55x_RELEASE_V1.0.2/MSDK/lwip/lwip-2.1.2/src/apps/lwiperf\lwiperf.c ****   for (q = p; q != NULL; q = q->next) {
 1894              		.loc 1 495 14
 1895 0088 8147     		li	a5,0
 1896              	.L151:
 1897              	.LVL215:
 515:C:/Users/stapi/OneDrive/Desktop/GD32VW553/V1_MQTT_OK/GD32VW55X_Wifi_BLE_SDK/GD32VW55x_RELEASE_V1.0.2/MSDK/lwip/lwip-2.1.2/src/apps/lwiperf\lwiperf.c ****   }
 1898              		.loc 1 515 5 is_stmt 1
 515:C:/Users/stapi/OneDrive/Desktop/GD32VW553/V1_MQTT_OK/GD32VW55X_Wifi_BLE_SDK/GD32VW55x_RELEASE_V1.0.2/MSDK/lwip/lwip-2.1.2/src/apps/lwiperf\lwiperf.c ****   }
 1899              		.loc 1 515 20 is_stmt 0
 1900 008a 8356A700 		lhu	a3,10(a4)
 496:C:/Users/stapi/OneDrive/Desktop/GD32VW553/V1_MQTT_OK/GD32VW55X_Wifi_BLE_SDK/GD32VW55x_RELEASE_V1.0.2/MSDK/lwip/lwip-2.1.2/src/apps/lwiperf\lwiperf.c **** #if LWIPERF_CHECK_RX_DATA
 1901              		.loc 1 496 28
 1902 008e 1843     		lw	a4,0(a4)
 1903              	.LVL216:
 515:C:/Users/stapi/OneDrive/Desktop/GD32VW553/V1_MQTT_OK/GD32VW55X_Wifi_BLE_SDK/GD32VW55x_RELEASE_V1.0.2/MSDK/lwip/lwip-2.1.2/src/apps/lwiperf\lwiperf.c ****   }
 1904              		.loc 1 515 16
 1905 0090 B697     		add	a5,a5,a3
 1906              	.LVL217:
 496:C:/Users/stapi/OneDrive/Desktop/GD32VW553/V1_MQTT_OK/GD32VW55X_Wifi_BLE_SDK/GD32VW55x_RELEASE_V1.0.2/MSDK/lwip/lwip-2.1.2/src/apps/lwiperf\lwiperf.c **** #if LWIPERF_CHECK_RX_DATA
 1907              		.loc 1 496 26 is_stmt 1
 496:C:/Users/stapi/OneDrive/Desktop/GD32VW553/V1_MQTT_OK/GD32VW55X_Wifi_BLE_SDK/GD32VW55x_RELEASE_V1.0.2/MSDK/lwip/lwip-2.1.2/src/apps/lwiperf\lwiperf.c **** #if LWIPERF_CHECK_RX_DATA
 1908              		.loc 1 496 15
 496:C:/Users/stapi/OneDrive/Desktop/GD32VW553/V1_MQTT_OK/GD32VW55X_Wifi_BLE_SDK/GD32VW55x_RELEASE_V1.0.2/MSDK/lwip/lwip-2.1.2/src/apps/lwiperf\lwiperf.c **** #if LWIPERF_CHECK_RX_DATA
 1909              		.loc 1 496 3 is_stmt 0
 1910 0092 65FF     		bne	a4,zero,.L151
 517:C:/Users/stapi/OneDrive/Desktop/GD32VW553/V1_MQTT_OK/GD32VW55X_Wifi_BLE_SDK/GD32VW55x_RELEASE_V1.0.2/MSDK/lwip/lwip-2.1.2/src/apps/lwiperf\lwiperf.c ****   conn->bytes_transferred += packet_idx;
 1911              		.loc 1 517 3 is_stmt 1
 517:C:/Users/stapi/OneDrive/Desktop/GD32VW553/V1_MQTT_OK/GD32VW55X_Wifi_BLE_SDK/GD32VW55x_RELEASE_V1.0.2/MSDK/lwip/lwip-2.1.2/src/apps/lwiperf\lwiperf.c ****   conn->bytes_transferred += packet_idx;
 1912              		.loc 1 517 3
 1913 0094 03D78400 		lhu	a4,8(s1)
 1914              	.LVL218:
 1915 0098 6383E70A 		beq	a5,a4,.L152
 517:C:/Users/stapi/OneDrive/Desktop/GD32VW553/V1_MQTT_OK/GD32VW55X_Wifi_BLE_SDK/GD32VW55x_RELEASE_V1.0.2/MSDK/lwip/lwip-2.1.2/src/apps/lwiperf\lwiperf.c ****   conn->bytes_transferred += packet_idx;
 1916              		.loc 1 517 3
 517:C:/Users/stapi/OneDrive/Desktop/GD32VW553/V1_MQTT_OK/GD32VW55X_Wifi_BLE_SDK/GD32VW55x_RELEASE_V1.0.2/MSDK/lwip/lwip-2.1.2/src/apps/lwiperf\lwiperf.c ****   conn->bytes_transferred += packet_idx;
 1917              		.loc 1 517 3
 1918 009c B7060000 		lui	a3,%hi(.LC0)
 1919 00a0 B7050000 		lui	a1,%hi(.LC15)
 1920 00a4 37050000 		lui	a0,%hi(.LC2)
 1921 00a8 93860600 		addi	a3,a3,%lo(.LC0)
 1922 00ac 13065020 		li	a2,517
 1923 00b0 93850500 		addi	a1,a1,%lo(.LC15)
 1924 00b4 13050500 		addi	a0,a0,%lo(.LC2)
 1925 00b8 97000000 		call	printf
 1925      E7800000 
 1926              	.LVL219:
 1927              	.L153:
 517:C:/Users/stapi/OneDrive/Desktop/GD32VW553/V1_MQTT_OK/GD32VW55X_Wifi_BLE_SDK/GD32VW55x_RELEASE_V1.0.2/MSDK/lwip/lwip-2.1.2/src/apps/lwiperf\lwiperf.c ****   conn->bytes_transferred += packet_idx;
 1928              		.loc 1 517 3
 517:C:/Users/stapi/OneDrive/Desktop/GD32VW553/V1_MQTT_OK/GD32VW55X_Wifi_BLE_SDK/GD32VW55x_RELEASE_V1.0.2/MSDK/lwip/lwip-2.1.2/src/apps/lwiperf\lwiperf.c ****   conn->bytes_transferred += packet_idx;
 1929              		.loc 1 517 3
 517:C:/Users/stapi/OneDrive/Desktop/GD32VW553/V1_MQTT_OK/GD32VW55X_Wifi_BLE_SDK/GD32VW55x_RELEASE_V1.0.2/MSDK/lwip/lwip-2.1.2/src/apps/lwiperf\lwiperf.c ****   conn->bytes_transferred += packet_idx;
 1930              		.loc 1 517 3
 1931 00c0 01A0     		j	.L153
 1932              	.LVL220:
 1933              	.L170:
 455:C:/Users/stapi/OneDrive/Desktop/GD32VW553/V1_MQTT_OK/GD32VW55X_Wifi_BLE_SDK/GD32VW55x_RELEASE_V1.0.2/MSDK/lwip/lwip-2.1.2/src/apps/lwiperf\lwiperf.c ****       if (pbuf_copy_partial(p, &conn->settings, sizeof(lwiperf_settings_t), 0) != sizeof(lwiperf_se
 1934              		.loc 1 455 5
 474:C:/Users/stapi/OneDrive/Desktop/GD32VW553/V1_MQTT_OK/GD32VW55X_Wifi_BLE_SDK/GD32VW55x_RELEASE_V1.0.2/MSDK/lwip/lwip-2.1.2/src/apps/lwiperf\lwiperf.c ****         if (pbuf_memcmp(p, 0, &conn->settings, sizeof(lwiperf_settings_t)) != 0) {
 1935              		.loc 1 474 7
 474:C:/Users/stapi/OneDrive/Desktop/GD32VW553/V1_MQTT_OK/GD32VW55X_Wifi_BLE_SDK/GD32VW55x_RELEASE_V1.0.2/MSDK/lwip/lwip-2.1.2/src/apps/lwiperf\lwiperf.c ****         if (pbuf_memcmp(p, 0, &conn->settings, sizeof(lwiperf_settings_t)) != 0) {
 1936              		.loc 1 474 32 is_stmt 0
 1937 00c2 1C54     		lw	a5,40(s0)
 1938 00c4 93F70708 		andi	a5,a5,128
 474:C:/Users/stapi/OneDrive/Desktop/GD32VW553/V1_MQTT_OK/GD32VW55X_Wifi_BLE_SDK/GD32VW55x_RELEASE_V1.0.2/MSDK/lwip/lwip-2.1.2/src/apps/lwiperf\lwiperf.c ****         if (pbuf_memcmp(p, 0, &conn->settings, sizeof(lwiperf_settings_t)) != 0) {
 1939              		.loc 1 474 10
 1940 00c8 99CB     		beq	a5,zero,.L147
 475:C:/Users/stapi/OneDrive/Desktop/GD32VW553/V1_MQTT_OK/GD32VW55X_Wifi_BLE_SDK/GD32VW55x_RELEASE_V1.0.2/MSDK/lwip/lwip-2.1.2/src/apps/lwiperf\lwiperf.c ****           lwiperf_tcp_close(conn, LWIPERF_TCP_ABORTED_LOCAL_DATAERROR);
 1941              		.loc 1 475 9 is_stmt 1
 475:C:/Users/stapi/OneDrive/Desktop/GD32VW553/V1_MQTT_OK/GD32VW55X_Wifi_BLE_SDK/GD32VW55x_RELEASE_V1.0.2/MSDK/lwip/lwip-2.1.2/src/apps/lwiperf\lwiperf.c ****           lwiperf_tcp_close(conn, LWIPERF_TCP_ABORTED_LOCAL_DATAERROR);
 1942              		.loc 1 475 13 is_stmt 0
 1943 00ca E146     		li	a3,24
 1944              	.LVL221:
 1945 00cc 13068402 		addi	a2,s0,40
 1946 00d0 8145     		li	a1,0
 1947              	.LVL222:
 1948 00d2 2685     		mv	a0,s1
 1949 00d4 97000000 		call	pbuf_memcmp
 1949      E7800000 
 1950              	.LVL223:
 475:C:/Users/stapi/OneDrive/Desktop/GD32VW553/V1_MQTT_OK/GD32VW55X_Wifi_BLE_SDK/GD32VW55x_RELEASE_V1.0.2/MSDK/lwip/lwip-2.1.2/src/apps/lwiperf\lwiperf.c ****           lwiperf_tcp_close(conn, LWIPERF_TCP_ABORTED_LOCAL_DATAERROR);
 1951              		.loc 1 475 12
 1952 00dc 2DE9     		bne	a0,zero,.L148
 1953              	.L147:
 482:C:/Users/stapi/OneDrive/Desktop/GD32VW553/V1_MQTT_OK/GD32VW55X_Wifi_BLE_SDK/GD32VW55x_RELEASE_V1.0.2/MSDK/lwip/lwip-2.1.2/src/apps/lwiperf\lwiperf.c ****     if (conn->bytes_transferred <= 24) {
 1954              		.loc 1 482 5 is_stmt 1
 482:C:/Users/stapi/OneDrive/Desktop/GD32VW553/V1_MQTT_OK/GD32VW55X_Wifi_BLE_SDK/GD32VW55x_RELEASE_V1.0.2/MSDK/lwip/lwip-2.1.2/src/apps/lwiperf\lwiperf.c ****     if (conn->bytes_transferred <= 24) {
 1955              		.loc 1 482 29 is_stmt 0
 1956 00de 5C50     		lw	a5,36(s0)
 483:C:/Users/stapi/OneDrive/Desktop/GD32VW553/V1_MQTT_OK/GD32VW55X_Wifi_BLE_SDK/GD32VW55x_RELEASE_V1.0.2/MSDK/lwip/lwip-2.1.2/src/apps/lwiperf\lwiperf.c ****       conn->time_started = sys_now();
 1957              		.loc 1 483 8
 1958 00e0 6147     		li	a4,24
 482:C:/Users/stapi/OneDrive/Desktop/GD32VW553/V1_MQTT_OK/GD32VW55X_Wifi_BLE_SDK/GD32VW55x_RELEASE_V1.0.2/MSDK/lwip/lwip-2.1.2/src/apps/lwiperf\lwiperf.c ****     if (conn->bytes_transferred <= 24) {
 1959              		.loc 1 482 29
 1960 00e2 E107     		addi	a5,a5,24
 1961 00e4 5CD0     		sw	a5,36(s0)
 483:C:/Users/stapi/OneDrive/Desktop/GD32VW553/V1_MQTT_OK/GD32VW55X_Wifi_BLE_SDK/GD32VW55x_RELEASE_V1.0.2/MSDK/lwip/lwip-2.1.2/src/apps/lwiperf\lwiperf.c ****       conn->time_started = sys_now();
 1962              		.loc 1 483 5 is_stmt 1
 483:C:/Users/stapi/OneDrive/Desktop/GD32VW553/V1_MQTT_OK/GD32VW55X_Wifi_BLE_SDK/GD32VW55x_RELEASE_V1.0.2/MSDK/lwip/lwip-2.1.2/src/apps/lwiperf\lwiperf.c ****       conn->time_started = sys_now();
 1963              		.loc 1 483 8 is_stmt 0
 1964 00e6 636FF700 		bgtu	a5,a4,.L149
 484:C:/Users/stapi/OneDrive/Desktop/GD32VW553/V1_MQTT_OK/GD32VW55X_Wifi_BLE_SDK/GD32VW55x_RELEASE_V1.0.2/MSDK/lwip/lwip-2.1.2/src/apps/lwiperf\lwiperf.c ****       tcp_recved(tpcb, p->tot_len);
 1965              		.loc 1 484 7 is_stmt 1
 484:C:/Users/stapi/OneDrive/Desktop/GD32VW553/V1_MQTT_OK/GD32VW55X_Wifi_BLE_SDK/GD32VW55x_RELEASE_V1.0.2/MSDK/lwip/lwip-2.1.2/src/apps/lwiperf\lwiperf.c ****       tcp_recved(tpcb, p->tot_len);
 1966              		.loc 1 484 28 is_stmt 0
 1967 00ea 97000000 		call	sys_now
 1967      E7800000 
 1968              	.LVL224:
 485:C:/Users/stapi/OneDrive/Desktop/GD32VW553/V1_MQTT_OK/GD32VW55X_Wifi_BLE_SDK/GD32VW55x_RELEASE_V1.0.2/MSDK/lwip/lwip-2.1.2/src/apps/lwiperf\lwiperf.c ****       pbuf_free(p);
 1969              		.loc 1 485 7
 1970 00f2 83D58400 		lhu	a1,8(s1)
 484:C:/Users/stapi/OneDrive/Desktop/GD32VW553/V1_MQTT_OK/GD32VW55X_Wifi_BLE_SDK/GD32VW55x_RELEASE_V1.0.2/MSDK/lwip/lwip-2.1.2/src/apps/lwiperf\lwiperf.c ****       tcp_recved(tpcb, p->tot_len);
 1971              		.loc 1 484 26
 1972 00f6 48C8     		sw	a0,20(s0)
 485:C:/Users/stapi/OneDrive/Desktop/GD32VW553/V1_MQTT_OK/GD32VW55X_Wifi_BLE_SDK/GD32VW55x_RELEASE_V1.0.2/MSDK/lwip/lwip-2.1.2/src/apps/lwiperf\lwiperf.c ****       pbuf_free(p);
 1973              		.loc 1 485 7 is_stmt 1
 1974              	.L173:
 519:C:/Users/stapi/OneDrive/Desktop/GD32VW553/V1_MQTT_OK/GD32VW55X_Wifi_BLE_SDK/GD32VW55x_RELEASE_V1.0.2/MSDK/lwip/lwip-2.1.2/src/apps/lwiperf\lwiperf.c ****   pbuf_free(p);
 1975              		.loc 1 519 3 is_stmt 0
 1976 00f8 4A85     		mv	a0,s2
 1977 00fa 97000000 		call	tcp_recved
 1977      E7800000 
 1978              	.LVL225:
 1979 0102 A1A8     		j	.L174
 1980              	.L149:
 489:C:/Users/stapi/OneDrive/Desktop/GD32VW553/V1_MQTT_OK/GD32VW55X_Wifi_BLE_SDK/GD32VW55x_RELEASE_V1.0.2/MSDK/lwip/lwip-2.1.2/src/apps/lwiperf\lwiperf.c ****     tmp = pbuf_remove_header(p, 24);
 1981              		.loc 1 489 5 is_stmt 1
 489:C:/Users/stapi/OneDrive/Desktop/GD32VW553/V1_MQTT_OK/GD32VW55X_Wifi_BLE_SDK/GD32VW55x_RELEASE_V1.0.2/MSDK/lwip/lwip-2.1.2/src/apps/lwiperf\lwiperf.c ****     tmp = pbuf_remove_header(p, 24);
 1982              		.loc 1 489 20 is_stmt 0
 1983 0104 9147     		li	a5,4
 1984 0106 A300F402 		sb	a5,33(s0)
 490:C:/Users/stapi/OneDrive/Desktop/GD32VW553/V1_MQTT_OK/GD32VW55X_Wifi_BLE_SDK/GD32VW55x_RELEASE_V1.0.2/MSDK/lwip/lwip-2.1.2/src/apps/lwiperf\lwiperf.c ****     LWIP_ASSERT("pbuf_remove_header failed", tmp == 0);
 1985              		.loc 1 490 5 is_stmt 1
 490:C:/Users/stapi/OneDrive/Desktop/GD32VW553/V1_MQTT_OK/GD32VW55X_Wifi_BLE_SDK/GD32VW55x_RELEASE_V1.0.2/MSDK/lwip/lwip-2.1.2/src/apps/lwiperf\lwiperf.c ****     LWIP_ASSERT("pbuf_remove_header failed", tmp == 0);
 1986              		.loc 1 490 11 is_stmt 0
 1987 010a E145     		li	a1,24
 1988 010c 2685     		mv	a0,s1
 1989 010e 97000000 		call	pbuf_remove_header
 1989      E7800000 
 1990              	.LVL226:
 491:C:/Users/stapi/OneDrive/Desktop/GD32VW553/V1_MQTT_OK/GD32VW55X_Wifi_BLE_SDK/GD32VW55x_RELEASE_V1.0.2/MSDK/lwip/lwip-2.1.2/src/apps/lwiperf\lwiperf.c ****     LWIP_UNUSED_ARG(tmp); /* for LWIP_NOASSERT */
 1991              		.loc 1 491 5 is_stmt 1
 491:C:/Users/stapi/OneDrive/Desktop/GD32VW553/V1_MQTT_OK/GD32VW55X_Wifi_BLE_SDK/GD32VW55x_RELEASE_V1.0.2/MSDK/lwip/lwip-2.1.2/src/apps/lwiperf\lwiperf.c ****     LWIP_UNUSED_ARG(tmp); /* for LWIP_NOASSERT */
 1992              		.loc 1 491 5
 1993 0116 25D9     		beq	a0,zero,.L145
 491:C:/Users/stapi/OneDrive/Desktop/GD32VW553/V1_MQTT_OK/GD32VW55X_Wifi_BLE_SDK/GD32VW55x_RELEASE_V1.0.2/MSDK/lwip/lwip-2.1.2/src/apps/lwiperf\lwiperf.c ****     LWIP_UNUSED_ARG(tmp); /* for LWIP_NOASSERT */
 1994              		.loc 1 491 5
 491:C:/Users/stapi/OneDrive/Desktop/GD32VW553/V1_MQTT_OK/GD32VW55X_Wifi_BLE_SDK/GD32VW55x_RELEASE_V1.0.2/MSDK/lwip/lwip-2.1.2/src/apps/lwiperf\lwiperf.c ****     LWIP_UNUSED_ARG(tmp); /* for LWIP_NOASSERT */
 1995              		.loc 1 491 5
 1996 0118 B7060000 		lui	a3,%hi(.LC0)
 1997 011c B7050000 		lui	a1,%hi(.LC14)
 1998 0120 37050000 		lui	a0,%hi(.LC2)
 1999              	.LVL227:
 2000 0124 93860600 		addi	a3,a3,%lo(.LC0)
 2001 0128 1306B01E 		li	a2,491
 2002 012c 93850500 		addi	a1,a1,%lo(.LC14)
 2003 0130 13050500 		addi	a0,a0,%lo(.LC2)
 2004 0134 97000000 		call	printf
 2004      E7800000 
 2005              	.LVL228:
 2006              	.L150:
 491:C:/Users/stapi/OneDrive/Desktop/GD32VW553/V1_MQTT_OK/GD32VW55X_Wifi_BLE_SDK/GD32VW55x_RELEASE_V1.0.2/MSDK/lwip/lwip-2.1.2/src/apps/lwiperf\lwiperf.c ****     LWIP_UNUSED_ARG(tmp); /* for LWIP_NOASSERT */
 2007              		.loc 1 491 5
 491:C:/Users/stapi/OneDrive/Desktop/GD32VW553/V1_MQTT_OK/GD32VW55X_Wifi_BLE_SDK/GD32VW55x_RELEASE_V1.0.2/MSDK/lwip/lwip-2.1.2/src/apps/lwiperf\lwiperf.c ****     LWIP_UNUSED_ARG(tmp); /* for LWIP_NOASSERT */
 2008              		.loc 1 491 5
 491:C:/Users/stapi/OneDrive/Desktop/GD32VW553/V1_MQTT_OK/GD32VW55X_Wifi_BLE_SDK/GD32VW55x_RELEASE_V1.0.2/MSDK/lwip/lwip-2.1.2/src/apps/lwiperf\lwiperf.c ****     LWIP_UNUSED_ARG(tmp); /* for LWIP_NOASSERT */
 2009              		.loc 1 491 5
 2010 013c 01A0     		j	.L150
 2011              	.LVL229:
 2012              	.L152:
 517:C:/Users/stapi/OneDrive/Desktop/GD32VW553/V1_MQTT_OK/GD32VW55X_Wifi_BLE_SDK/GD32VW55x_RELEASE_V1.0.2/MSDK/lwip/lwip-2.1.2/src/apps/lwiperf\lwiperf.c ****   conn->bytes_transferred += packet_idx;
 2013              		.loc 1 517 3
 517:C:/Users/stapi/OneDrive/Desktop/GD32VW553/V1_MQTT_OK/GD32VW55X_Wifi_BLE_SDK/GD32VW55x_RELEASE_V1.0.2/MSDK/lwip/lwip-2.1.2/src/apps/lwiperf\lwiperf.c ****   conn->bytes_transferred += packet_idx;
 2014              		.loc 1 517 3
 518:C:/Users/stapi/OneDrive/Desktop/GD32VW553/V1_MQTT_OK/GD32VW55X_Wifi_BLE_SDK/GD32VW55x_RELEASE_V1.0.2/MSDK/lwip/lwip-2.1.2/src/apps/lwiperf\lwiperf.c ****   tcp_recved(tpcb, tot_len);
 2015              		.loc 1 518 3
 518:C:/Users/stapi/OneDrive/Desktop/GD32VW553/V1_MQTT_OK/GD32VW55X_Wifi_BLE_SDK/GD32VW55x_RELEASE_V1.0.2/MSDK/lwip/lwip-2.1.2/src/apps/lwiperf\lwiperf.c ****   tcp_recved(tpcb, tot_len);
 2016              		.loc 1 518 27 is_stmt 0
 2017 013e 5850     		lw	a4,36(s0)
 519:C:/Users/stapi/OneDrive/Desktop/GD32VW553/V1_MQTT_OK/GD32VW55X_Wifi_BLE_SDK/GD32VW55x_RELEASE_V1.0.2/MSDK/lwip/lwip-2.1.2/src/apps/lwiperf\lwiperf.c ****   pbuf_free(p);
 2018              		.loc 1 519 3
 2019 0140 CE85     		mv	a1,s3
 518:C:/Users/stapi/OneDrive/Desktop/GD32VW553/V1_MQTT_OK/GD32VW55X_Wifi_BLE_SDK/GD32VW55x_RELEASE_V1.0.2/MSDK/lwip/lwip-2.1.2/src/apps/lwiperf\lwiperf.c ****   tcp_recved(tpcb, tot_len);
 2020              		.loc 1 518 27
 2021 0142 BA97     		add	a5,a4,a5
 2022              	.LVL230:
 2023 0144 5CD0     		sw	a5,36(s0)
 519:C:/Users/stapi/OneDrive/Desktop/GD32VW553/V1_MQTT_OK/GD32VW55X_Wifi_BLE_SDK/GD32VW55x_RELEASE_V1.0.2/MSDK/lwip/lwip-2.1.2/src/apps/lwiperf\lwiperf.c ****   pbuf_free(p);
 2024              		.loc 1 519 3 is_stmt 1
 2025 0146 4DBF     		j	.L173
 2026              	.LVL231:
 2027              	.L144:
 450:C:/Users/stapi/OneDrive/Desktop/GD32VW553/V1_MQTT_OK/GD32VW55X_Wifi_BLE_SDK/GD32VW55x_RELEASE_V1.0.2/MSDK/lwip/lwip-2.1.2/src/apps/lwiperf\lwiperf.c ****       lwiperf_tcp_close(conn, LWIPERF_TCP_ABORTED_LOCAL_DATAERROR);
 2028              		.loc 1 450 5
 450:C:/Users/stapi/OneDrive/Desktop/GD32VW553/V1_MQTT_OK/GD32VW55X_Wifi_BLE_SDK/GD32VW55x_RELEASE_V1.0.2/MSDK/lwip/lwip-2.1.2/src/apps/lwiperf\lwiperf.c ****       lwiperf_tcp_close(conn, LWIPERF_TCP_ABORTED_LOCAL_DATAERROR);
 2029              		.loc 1 450 8 is_stmt 0
 2030 0148 DD47     		li	a5,23
 2031 014a E3EC37F7 		bgtu	s3,a5,.L170
 2032              	.LVL232:
 2033              	.L148:
 451:C:/Users/stapi/OneDrive/Desktop/GD32VW553/V1_MQTT_OK/GD32VW55X_Wifi_BLE_SDK/GD32VW55x_RELEASE_V1.0.2/MSDK/lwip/lwip-2.1.2/src/apps/lwiperf\lwiperf.c ****       pbuf_free(p);
 2034              		.loc 1 451 7 is_stmt 1
 2035 014e 8D45     		li	a1,3
 2036              	.L176:
 2037              	.LBB83:
 467:C:/Users/stapi/OneDrive/Desktop/GD32VW553/V1_MQTT_OK/GD32VW55X_Wifi_BLE_SDK/GD32VW55x_RELEASE_V1.0.2/MSDK/lwip/lwip-2.1.2/src/apps/lwiperf\lwiperf.c ****             pbuf_free(p);
 2038              		.loc 1 467 13 is_stmt 0
 2039 0150 2285     		mv	a0,s0
 2040 0152 97000000 		call	lwiperf_tcp_close
 2040      E7800000 
 2041              	.LVL233:
 468:C:/Users/stapi/OneDrive/Desktop/GD32VW553/V1_MQTT_OK/GD32VW55X_Wifi_BLE_SDK/GD32VW55x_RELEASE_V1.0.2/MSDK/lwip/lwip-2.1.2/src/apps/lwiperf\lwiperf.c ****             return ERR_OK;
 2042              		.loc 1 468 13 is_stmt 1
 2043              	.L174:
 2044              	.LBE83:
 520:C:/Users/stapi/OneDrive/Desktop/GD32VW553/V1_MQTT_OK/GD32VW55X_Wifi_BLE_SDK/GD32VW55x_RELEASE_V1.0.2/MSDK/lwip/lwip-2.1.2/src/apps/lwiperf\lwiperf.c ****   return ERR_OK;
 2045              		.loc 1 520 3
 2046 015a 2685     		mv	a0,s1
 2047 015c 97000000 		call	pbuf_free
 2047      E7800000 
 2048              	.LVL234:
 521:C:/Users/stapi/OneDrive/Desktop/GD32VW553/V1_MQTT_OK/GD32VW55X_Wifi_BLE_SDK/GD32VW55x_RELEASE_V1.0.2/MSDK/lwip/lwip-2.1.2/src/apps/lwiperf\lwiperf.c **** }
 2049              		.loc 1 521 3
 521:C:/Users/stapi/OneDrive/Desktop/GD32VW553/V1_MQTT_OK/GD32VW55X_Wifi_BLE_SDK/GD32VW55x_RELEASE_V1.0.2/MSDK/lwip/lwip-2.1.2/src/apps/lwiperf\lwiperf.c **** }
 2050              		.loc 1 521 10 is_stmt 0
 2051 0164 F1BD     		j	.L169
 2052              	.LVL235:
 2053              	.L143:
 450:C:/Users/stapi/OneDrive/Desktop/GD32VW553/V1_MQTT_OK/GD32VW55X_Wifi_BLE_SDK/GD32VW55x_RELEASE_V1.0.2/MSDK/lwip/lwip-2.1.2/src/apps/lwiperf\lwiperf.c ****       lwiperf_tcp_close(conn, LWIPERF_TCP_ABORTED_LOCAL_DATAERROR);
 2054              		.loc 1 450 5 is_stmt 1
 450:C:/Users/stapi/OneDrive/Desktop/GD32VW553/V1_MQTT_OK/GD32VW55X_Wifi_BLE_SDK/GD32VW55x_RELEASE_V1.0.2/MSDK/lwip/lwip-2.1.2/src/apps/lwiperf\lwiperf.c ****       lwiperf_tcp_close(conn, LWIPERF_TCP_ABORTED_LOCAL_DATAERROR);
 2055              		.loc 1 450 8 is_stmt 0
 2056 0166 DD47     		li	a5,23
 2057 0168 E3F337FF 		bleu	s3,a5,.L148
 455:C:/Users/stapi/OneDrive/Desktop/GD32VW553/V1_MQTT_OK/GD32VW55X_Wifi_BLE_SDK/GD32VW55x_RELEASE_V1.0.2/MSDK/lwip/lwip-2.1.2/src/apps/lwiperf\lwiperf.c ****       if (pbuf_copy_partial(p, &conn->settings, sizeof(lwiperf_settings_t), 0) != sizeof(lwiperf_se
 2058              		.loc 1 455 5 is_stmt 1
 456:C:/Users/stapi/OneDrive/Desktop/GD32VW553/V1_MQTT_OK/GD32VW55X_Wifi_BLE_SDK/GD32VW55x_RELEASE_V1.0.2/MSDK/lwip/lwip-2.1.2/src/apps/lwiperf\lwiperf.c ****         lwiperf_tcp_close(conn, LWIPERF_TCP_ABORTED_LOCAL);
 2059              		.loc 1 456 7
 456:C:/Users/stapi/OneDrive/Desktop/GD32VW553/V1_MQTT_OK/GD32VW55X_Wifi_BLE_SDK/GD32VW55x_RELEASE_V1.0.2/MSDK/lwip/lwip-2.1.2/src/apps/lwiperf\lwiperf.c ****         lwiperf_tcp_close(conn, LWIPERF_TCP_ABORTED_LOCAL);
 2060              		.loc 1 456 11 is_stmt 0
 2061 016c 93058402 		addi	a1,s0,40
 2062              	.LVL236:
 2063 0170 6146     		li	a2,24
 2064 0172 2685     		mv	a0,s1
 2065 0174 97000000 		call	pbuf_copy_partial
 2065      E7800000 
 2066              	.LVL237:
 456:C:/Users/stapi/OneDrive/Desktop/GD32VW553/V1_MQTT_OK/GD32VW55X_Wifi_BLE_SDK/GD32VW55x_RELEASE_V1.0.2/MSDK/lwip/lwip-2.1.2/src/apps/lwiperf\lwiperf.c ****         lwiperf_tcp_close(conn, LWIPERF_TCP_ABORTED_LOCAL);
 2067              		.loc 1 456 10
 2068 017c E147     		li	a5,24
 457:C:/Users/stapi/OneDrive/Desktop/GD32VW553/V1_MQTT_OK/GD32VW55X_Wifi_BLE_SDK/GD32VW55x_RELEASE_V1.0.2/MSDK/lwip/lwip-2.1.2/src/apps/lwiperf\lwiperf.c ****         pbuf_free(p);
 2069              		.loc 1 457 9
 2070 017e 8945     		li	a1,2
 456:C:/Users/stapi/OneDrive/Desktop/GD32VW553/V1_MQTT_OK/GD32VW55X_Wifi_BLE_SDK/GD32VW55x_RELEASE_V1.0.2/MSDK/lwip/lwip-2.1.2/src/apps/lwiperf\lwiperf.c ****         lwiperf_tcp_close(conn, LWIPERF_TCP_ABORTED_LOCAL);
 2071              		.loc 1 456 10
 2072 0180 E318F5FC 		bne	a0,a5,.L176
 461:C:/Users/stapi/OneDrive/Desktop/GD32VW553/V1_MQTT_OK/GD32VW55X_Wifi_BLE_SDK/GD32VW55x_RELEASE_V1.0.2/MSDK/lwip/lwip-2.1.2/src/apps/lwiperf\lwiperf.c ****       if (conn->settings.flags & PP_HTONL(LWIPERF_FLAGS_ANSWER_TEST)) {
 2073              		.loc 1 461 7 is_stmt 1
 461:C:/Users/stapi/OneDrive/Desktop/GD32VW553/V1_MQTT_OK/GD32VW55X_Wifi_BLE_SDK/GD32VW55x_RELEASE_V1.0.2/MSDK/lwip/lwip-2.1.2/src/apps/lwiperf\lwiperf.c ****       if (conn->settings.flags & PP_HTONL(LWIPERF_FLAGS_ANSWER_TEST)) {
 2074              		.loc 1 461 31 is_stmt 0
 2075 0184 8547     		li	a5,1
 463:C:/Users/stapi/OneDrive/Desktop/GD32VW553/V1_MQTT_OK/GD32VW55X_Wifi_BLE_SDK/GD32VW55x_RELEASE_V1.0.2/MSDK/lwip/lwip-2.1.2/src/apps/lwiperf\lwiperf.c ****           /* client requested parallel transmission test */
 2076              		.loc 1 463 12
 2077 0186 1854     		lw	a4,40(s0)
 461:C:/Users/stapi/OneDrive/Desktop/GD32VW553/V1_MQTT_OK/GD32VW55X_Wifi_BLE_SDK/GD32VW55x_RELEASE_V1.0.2/MSDK/lwip/lwip-2.1.2/src/apps/lwiperf\lwiperf.c ****       if (conn->settings.flags & PP_HTONL(LWIPERF_FLAGS_ANSWER_TEST)) {
 2078              		.loc 1 461 31
 2079 0188 2300F404 		sb	a5,64(s0)
 462:C:/Users/stapi/OneDrive/Desktop/GD32VW553/V1_MQTT_OK/GD32VW55X_Wifi_BLE_SDK/GD32VW55x_RELEASE_V1.0.2/MSDK/lwip/lwip-2.1.2/src/apps/lwiperf\lwiperf.c ****         if (conn->settings.flags & PP_HTONL(LWIPERF_FLAGS_ANSWER_NOW)) {
 2080              		.loc 1 462 7 is_stmt 1
 463:C:/Users/stapi/OneDrive/Desktop/GD32VW553/V1_MQTT_OK/GD32VW55X_Wifi_BLE_SDK/GD32VW55x_RELEASE_V1.0.2/MSDK/lwip/lwip-2.1.2/src/apps/lwiperf\lwiperf.c ****           /* client requested parallel transmission test */
 2081              		.loc 1 463 9
 463:C:/Users/stapi/OneDrive/Desktop/GD32VW553/V1_MQTT_OK/GD32VW55X_Wifi_BLE_SDK/GD32VW55x_RELEASE_V1.0.2/MSDK/lwip/lwip-2.1.2/src/apps/lwiperf\lwiperf.c ****           /* client requested parallel transmission test */
 2082              		.loc 1 463 12 is_stmt 0
 2083 018c B7070001 		li	a5,16777216
 2084 0190 93870708 		addi	a5,a5,128
 2085 0194 7D8F     		and	a4,a4,a5
 2086 0196 E314F7F4 		bne	a4,a5,.L147
 2087              	.LBB84:
 465:C:/Users/stapi/OneDrive/Desktop/GD32VW553/V1_MQTT_OK/GD32VW55X_Wifi_BLE_SDK/GD32VW55x_RELEASE_V1.0.2/MSDK/lwip/lwip-2.1.2/src/apps/lwiperf\lwiperf.c ****           if (err2 != ERR_OK) {
 2088              		.loc 1 465 11 is_stmt 1
 465:C:/Users/stapi/OneDrive/Desktop/GD32VW553/V1_MQTT_OK/GD32VW55X_Wifi_BLE_SDK/GD32VW55x_RELEASE_V1.0.2/MSDK/lwip/lwip-2.1.2/src/apps/lwiperf\lwiperf.c ****           if (err2 != ERR_OK) {
 2089              		.loc 1 465 24 is_stmt 0
 2090 019a 2285     		mv	a0,s0
 2091 019c 97000000 		call	lwiperf_tx_start_passive
 2091      E7800000 
 2092              	.LVL238:
 466:C:/Users/stapi/OneDrive/Desktop/GD32VW553/V1_MQTT_OK/GD32VW55X_Wifi_BLE_SDK/GD32VW55x_RELEASE_V1.0.2/MSDK/lwip/lwip-2.1.2/src/apps/lwiperf\lwiperf.c ****             lwiperf_tcp_close(conn, LWIPERF_TCP_ABORTED_LOCAL_TXERROR);
 2093              		.loc 1 466 11 is_stmt 1
 466:C:/Users/stapi/OneDrive/Desktop/GD32VW553/V1_MQTT_OK/GD32VW55X_Wifi_BLE_SDK/GD32VW55x_RELEASE_V1.0.2/MSDK/lwip/lwip-2.1.2/src/apps/lwiperf\lwiperf.c ****             lwiperf_tcp_close(conn, LWIPERF_TCP_ABORTED_LOCAL_TXERROR);
 2094              		.loc 1 466 14 is_stmt 0
 2095 01a4 0DDD     		beq	a0,zero,.L147
 467:C:/Users/stapi/OneDrive/Desktop/GD32VW553/V1_MQTT_OK/GD32VW55X_Wifi_BLE_SDK/GD32VW55x_RELEASE_V1.0.2/MSDK/lwip/lwip-2.1.2/src/apps/lwiperf\lwiperf.c ****             pbuf_free(p);
 2096              		.loc 1 467 13 is_stmt 1
 2097 01a6 9145     		li	a1,4
 2098 01a8 65B7     		j	.L176
 2099              	.LBE84:
 2100              	.LBE86:
 2101              	.LBE88:
 2102              		.cfi_endproc
 2103              	.LFE14:
 2105              		.section	.text.lwiperf_start_tcp_server,"ax",@progbits
 2106              		.align	1
 2107              		.globl	lwiperf_start_tcp_server
 2109              	lwiperf_start_tcp_server:
 2110              	.LFB19:
 634:C:/Users/stapi/OneDrive/Desktop/GD32VW553/V1_MQTT_OK/GD32VW55X_Wifi_BLE_SDK/GD32VW55x_RELEASE_V1.0.2/MSDK/lwip/lwip-2.1.2/src/apps/lwiperf\lwiperf.c ****   err_t err;
 2111              		.loc 1 634 1
 2112              		.cfi_startproc
 2113              	.LVL239:
 2114 0000 17030000 		call	t0,__riscv_save_0
 2114      E7020300 
 2115              		.cfi_offset 1, -4
 2116              		.cfi_def_cfa_offset 16
 635:C:/Users/stapi/OneDrive/Desktop/GD32VW553/V1_MQTT_OK/GD32VW55X_Wifi_BLE_SDK/GD32VW55x_RELEASE_V1.0.2/MSDK/lwip/lwip-2.1.2/src/apps/lwiperf\lwiperf.c ****   lwiperf_state_tcp_t *state = NULL;
 2117              		.loc 1 635 3
 636:C:/Users/stapi/OneDrive/Desktop/GD32VW553/V1_MQTT_OK/GD32VW55X_Wifi_BLE_SDK/GD32VW55x_RELEASE_V1.0.2/MSDK/lwip/lwip-2.1.2/src/apps/lwiperf\lwiperf.c **** 
 2118              		.loc 1 636 3
 634:C:/Users/stapi/OneDrive/Desktop/GD32VW553/V1_MQTT_OK/GD32VW55X_Wifi_BLE_SDK/GD32VW55x_RELEASE_V1.0.2/MSDK/lwip/lwip-2.1.2/src/apps/lwiperf\lwiperf.c ****   err_t err;
 2119              		.loc 1 634 1 is_stmt 0
 2120 0008 4111     		addi	sp,sp,-16
 2121              		.cfi_def_cfa_offset 32
 638:C:/Users/stapi/OneDrive/Desktop/GD32VW553/V1_MQTT_OK/GD32VW55X_Wifi_BLE_SDK/GD32VW55x_RELEASE_V1.0.2/MSDK/lwip/lwip-2.1.2/src/apps/lwiperf\lwiperf.c ****     NULL, &state);
 2122              		.loc 1 638 9
 2123 000a 7C00     		addi	a5,sp,12
 2124 000c 0147     		li	a4,0
 636:C:/Users/stapi/OneDrive/Desktop/GD32VW553/V1_MQTT_OK/GD32VW55X_Wifi_BLE_SDK/GD32VW55x_RELEASE_V1.0.2/MSDK/lwip/lwip-2.1.2/src/apps/lwiperf\lwiperf.c **** 
 2125              		.loc 1 636 24
 2126 000e 02C6     		sw	zero,12(sp)
 638:C:/Users/stapi/OneDrive/Desktop/GD32VW553/V1_MQTT_OK/GD32VW55X_Wifi_BLE_SDK/GD32VW55x_RELEASE_V1.0.2/MSDK/lwip/lwip-2.1.2/src/apps/lwiperf\lwiperf.c ****     NULL, &state);
 2127              		.loc 1 638 3 is_stmt 1
 638:C:/Users/stapi/OneDrive/Desktop/GD32VW553/V1_MQTT_OK/GD32VW55X_Wifi_BLE_SDK/GD32VW55x_RELEASE_V1.0.2/MSDK/lwip/lwip-2.1.2/src/apps/lwiperf\lwiperf.c ****     NULL, &state);
 2128              		.loc 1 638 9 is_stmt 0
 2129 0010 97000000 		call	lwiperf_start_tcp_server_impl.constprop.0
 2129      E7800000 
 2130              	.LVL240:
 640:C:/Users/stapi/OneDrive/Desktop/GD32VW553/V1_MQTT_OK/GD32VW55X_Wifi_BLE_SDK/GD32VW55x_RELEASE_V1.0.2/MSDK/lwip/lwip-2.1.2/src/apps/lwiperf\lwiperf.c ****     return state;
 2131              		.loc 1 640 3 is_stmt 1
 640:C:/Users/stapi/OneDrive/Desktop/GD32VW553/V1_MQTT_OK/GD32VW55X_Wifi_BLE_SDK/GD32VW55x_RELEASE_V1.0.2/MSDK/lwip/lwip-2.1.2/src/apps/lwiperf\lwiperf.c ****     return state;
 2132              		.loc 1 640 6 is_stmt 0
 2133 0018 19E5     		bne	a0,zero,.L179
 641:C:/Users/stapi/OneDrive/Desktop/GD32VW553/V1_MQTT_OK/GD32VW55X_Wifi_BLE_SDK/GD32VW55x_RELEASE_V1.0.2/MSDK/lwip/lwip-2.1.2/src/apps/lwiperf\lwiperf.c ****   }
 2134              		.loc 1 641 5 is_stmt 1
 641:C:/Users/stapi/OneDrive/Desktop/GD32VW553/V1_MQTT_OK/GD32VW55X_Wifi_BLE_SDK/GD32VW55x_RELEASE_V1.0.2/MSDK/lwip/lwip-2.1.2/src/apps/lwiperf\lwiperf.c ****   }
 2135              		.loc 1 641 12 is_stmt 0
 2136 001a 3245     		lw	a0,12(sp)
 2137              	.LVL241:
 2138              	.L177:
 644:C:/Users/stapi/OneDrive/Desktop/GD32VW553/V1_MQTT_OK/GD32VW55X_Wifi_BLE_SDK/GD32VW55x_RELEASE_V1.0.2/MSDK/lwip/lwip-2.1.2/src/apps/lwiperf\lwiperf.c **** 
 2139              		.loc 1 644 1
 2140 001c 4101     		addi	sp,sp,16
 2141              		.cfi_remember_state
 2142              		.cfi_def_cfa_offset 0
 2143 001e 17030000 		tail	__riscv_restore_0
 2143      67000300 
 2144              		.cfi_restore 1
 2145              		.cfi_def_cfa_offset -16
 2146              	.LVL242:
 2147              	.L179:
 2148              		.cfi_restore_state
 643:C:/Users/stapi/OneDrive/Desktop/GD32VW553/V1_MQTT_OK/GD32VW55X_Wifi_BLE_SDK/GD32VW55x_RELEASE_V1.0.2/MSDK/lwip/lwip-2.1.2/src/apps/lwiperf\lwiperf.c **** }
 2149              		.loc 1 643 10
 2150 0026 0145     		li	a0,0
 2151              	.LVL243:
 2152 0028 D5BF     		j	.L177
 2153              		.cfi_endproc
 2154              	.LFE19:
 2156              		.section	.text.lwiperf_start_tcp_server_default,"ax",@progbits
 2157              		.align	1
 2158              		.globl	lwiperf_start_tcp_server_default
 2160              	lwiperf_start_tcp_server_default:
 2161              	.LFB18:
 618:C:/Users/stapi/OneDrive/Desktop/GD32VW553/V1_MQTT_OK/GD32VW55X_Wifi_BLE_SDK/GD32VW55x_RELEASE_V1.0.2/MSDK/lwip/lwip-2.1.2/src/apps/lwiperf\lwiperf.c ****   return lwiperf_start_tcp_server(IP_ADDR_ANY, LWIPERF_TCP_PORT_DEFAULT,
 2162              		.loc 1 618 1 is_stmt 1
 2163              		.cfi_startproc
 2164              	.LVL244:
 619:C:/Users/stapi/OneDrive/Desktop/GD32VW553/V1_MQTT_OK/GD32VW55X_Wifi_BLE_SDK/GD32VW55x_RELEASE_V1.0.2/MSDK/lwip/lwip-2.1.2/src/apps/lwiperf\lwiperf.c ****                                   report_fn, report_arg);
 2165              		.loc 1 619 3
 618:C:/Users/stapi/OneDrive/Desktop/GD32VW553/V1_MQTT_OK/GD32VW55X_Wifi_BLE_SDK/GD32VW55x_RELEASE_V1.0.2/MSDK/lwip/lwip-2.1.2/src/apps/lwiperf\lwiperf.c ****   return lwiperf_start_tcp_server(IP_ADDR_ANY, LWIPERF_TCP_PORT_DEFAULT,
 2166              		.loc 1 618 1 is_stmt 0
 2167 0000 2A86     		mv	a2,a0
 2168 0002 AE86     		mv	a3,a1
 619:C:/Users/stapi/OneDrive/Desktop/GD32VW553/V1_MQTT_OK/GD32VW55X_Wifi_BLE_SDK/GD32VW55x_RELEASE_V1.0.2/MSDK/lwip/lwip-2.1.2/src/apps/lwiperf\lwiperf.c ****                                   report_fn, report_arg);
 2169              		.loc 1 619 10
 2170 0004 37050000 		lui	a0,%hi(ip_addr_any)
 2171              	.LVL245:
 2172 0008 8565     		li	a1,4096
 2173              	.LVL246:
 2174 000a 93859538 		addi	a1,a1,905
 2175 000e 13050500 		addi	a0,a0,%lo(ip_addr_any)
 2176 0012 17030000 		tail	lwiperf_start_tcp_server
 2176      67000300 
 2177              	.LVL247:
 2178              		.cfi_endproc
 2179              	.LFE18:
 2181              		.section	.text.lwiperf_abort,"ax",@progbits
 2182              		.align	1
 2183              		.globl	lwiperf_abort
 2185              	lwiperf_abort:
 2186              	.LFB23:
 705:C:/Users/stapi/OneDrive/Desktop/GD32VW553/V1_MQTT_OK/GD32VW55X_Wifi_BLE_SDK/GD32VW55x_RELEASE_V1.0.2/MSDK/lwip/lwip-2.1.2/src/apps/lwiperf\lwiperf.c **** 
 706:C:/Users/stapi/OneDrive/Desktop/GD32VW553/V1_MQTT_OK/GD32VW55X_Wifi_BLE_SDK/GD32VW55x_RELEASE_V1.0.2/MSDK/lwip/lwip-2.1.2/src/apps/lwiperf\lwiperf.c **** /**
 707:C:/Users/stapi/OneDrive/Desktop/GD32VW553/V1_MQTT_OK/GD32VW55X_Wifi_BLE_SDK/GD32VW55x_RELEASE_V1.0.2/MSDK/lwip/lwip-2.1.2/src/apps/lwiperf\lwiperf.c ****  * @ingroup iperf
 708:C:/Users/stapi/OneDrive/Desktop/GD32VW553/V1_MQTT_OK/GD32VW55X_Wifi_BLE_SDK/GD32VW55x_RELEASE_V1.0.2/MSDK/lwip/lwip-2.1.2/src/apps/lwiperf\lwiperf.c ****  * Start a TCP iperf client to the default TCP port (5001).
 709:C:/Users/stapi/OneDrive/Desktop/GD32VW553/V1_MQTT_OK/GD32VW55X_Wifi_BLE_SDK/GD32VW55x_RELEASE_V1.0.2/MSDK/lwip/lwip-2.1.2/src/apps/lwiperf\lwiperf.c ****  *
 710:C:/Users/stapi/OneDrive/Desktop/GD32VW553/V1_MQTT_OK/GD32VW55X_Wifi_BLE_SDK/GD32VW55x_RELEASE_V1.0.2/MSDK/lwip/lwip-2.1.2/src/apps/lwiperf\lwiperf.c ****  * @returns a connection handle that can be used to abort the client
 711:C:/Users/stapi/OneDrive/Desktop/GD32VW553/V1_MQTT_OK/GD32VW55X_Wifi_BLE_SDK/GD32VW55x_RELEASE_V1.0.2/MSDK/lwip/lwip-2.1.2/src/apps/lwiperf\lwiperf.c ****  *          by calling @ref lwiperf_abort()
 712:C:/Users/stapi/OneDrive/Desktop/GD32VW553/V1_MQTT_OK/GD32VW55X_Wifi_BLE_SDK/GD32VW55x_RELEASE_V1.0.2/MSDK/lwip/lwip-2.1.2/src/apps/lwiperf\lwiperf.c ****  */
 713:C:/Users/stapi/OneDrive/Desktop/GD32VW553/V1_MQTT_OK/GD32VW55X_Wifi_BLE_SDK/GD32VW55x_RELEASE_V1.0.2/MSDK/lwip/lwip-2.1.2/src/apps/lwiperf\lwiperf.c **** void* lwiperf_start_tcp_client_default(const ip_addr_t* remote_addr,
 714:C:/Users/stapi/OneDrive/Desktop/GD32VW553/V1_MQTT_OK/GD32VW55X_Wifi_BLE_SDK/GD32VW55x_RELEASE_V1.0.2/MSDK/lwip/lwip-2.1.2/src/apps/lwiperf\lwiperf.c ****                                lwiperf_report_fn report_fn, void* report_arg)
 715:C:/Users/stapi/OneDrive/Desktop/GD32VW553/V1_MQTT_OK/GD32VW55X_Wifi_BLE_SDK/GD32VW55x_RELEASE_V1.0.2/MSDK/lwip/lwip-2.1.2/src/apps/lwiperf\lwiperf.c **** {
 716:C:/Users/stapi/OneDrive/Desktop/GD32VW553/V1_MQTT_OK/GD32VW55X_Wifi_BLE_SDK/GD32VW55x_RELEASE_V1.0.2/MSDK/lwip/lwip-2.1.2/src/apps/lwiperf\lwiperf.c ****   return lwiperf_start_tcp_client(remote_addr, LWIPERF_TCP_PORT_DEFAULT, LWIPERF_CLIENT,
 717:C:/Users/stapi/OneDrive/Desktop/GD32VW553/V1_MQTT_OK/GD32VW55X_Wifi_BLE_SDK/GD32VW55x_RELEASE_V1.0.2/MSDK/lwip/lwip-2.1.2/src/apps/lwiperf\lwiperf.c ****                                   report_fn, report_arg);
 718:C:/Users/stapi/OneDrive/Desktop/GD32VW553/V1_MQTT_OK/GD32VW55X_Wifi_BLE_SDK/GD32VW55x_RELEASE_V1.0.2/MSDK/lwip/lwip-2.1.2/src/apps/lwiperf\lwiperf.c **** }
 719:C:/Users/stapi/OneDrive/Desktop/GD32VW553/V1_MQTT_OK/GD32VW55X_Wifi_BLE_SDK/GD32VW55x_RELEASE_V1.0.2/MSDK/lwip/lwip-2.1.2/src/apps/lwiperf\lwiperf.c **** 
 720:C:/Users/stapi/OneDrive/Desktop/GD32VW553/V1_MQTT_OK/GD32VW55X_Wifi_BLE_SDK/GD32VW55x_RELEASE_V1.0.2/MSDK/lwip/lwip-2.1.2/src/apps/lwiperf\lwiperf.c **** /**
 721:C:/Users/stapi/OneDrive/Desktop/GD32VW553/V1_MQTT_OK/GD32VW55X_Wifi_BLE_SDK/GD32VW55x_RELEASE_V1.0.2/MSDK/lwip/lwip-2.1.2/src/apps/lwiperf\lwiperf.c ****  * @ingroup iperf
 722:C:/Users/stapi/OneDrive/Desktop/GD32VW553/V1_MQTT_OK/GD32VW55X_Wifi_BLE_SDK/GD32VW55x_RELEASE_V1.0.2/MSDK/lwip/lwip-2.1.2/src/apps/lwiperf\lwiperf.c ****  * Start a TCP iperf client to a specific IP address and port.
 723:C:/Users/stapi/OneDrive/Desktop/GD32VW553/V1_MQTT_OK/GD32VW55X_Wifi_BLE_SDK/GD32VW55x_RELEASE_V1.0.2/MSDK/lwip/lwip-2.1.2/src/apps/lwiperf\lwiperf.c ****  *
 724:C:/Users/stapi/OneDrive/Desktop/GD32VW553/V1_MQTT_OK/GD32VW55X_Wifi_BLE_SDK/GD32VW55x_RELEASE_V1.0.2/MSDK/lwip/lwip-2.1.2/src/apps/lwiperf\lwiperf.c ****  * @returns a connection handle that can be used to abort the client
 725:C:/Users/stapi/OneDrive/Desktop/GD32VW553/V1_MQTT_OK/GD32VW55X_Wifi_BLE_SDK/GD32VW55x_RELEASE_V1.0.2/MSDK/lwip/lwip-2.1.2/src/apps/lwiperf\lwiperf.c ****  *          by calling @ref lwiperf_abort()
 726:C:/Users/stapi/OneDrive/Desktop/GD32VW553/V1_MQTT_OK/GD32VW55X_Wifi_BLE_SDK/GD32VW55x_RELEASE_V1.0.2/MSDK/lwip/lwip-2.1.2/src/apps/lwiperf\lwiperf.c ****  */
 727:C:/Users/stapi/OneDrive/Desktop/GD32VW553/V1_MQTT_OK/GD32VW55X_Wifi_BLE_SDK/GD32VW55x_RELEASE_V1.0.2/MSDK/lwip/lwip-2.1.2/src/apps/lwiperf\lwiperf.c **** void* lwiperf_start_tcp_client(const ip_addr_t* remote_addr, u16_t remote_port,
 728:C:/Users/stapi/OneDrive/Desktop/GD32VW553/V1_MQTT_OK/GD32VW55X_Wifi_BLE_SDK/GD32VW55x_RELEASE_V1.0.2/MSDK/lwip/lwip-2.1.2/src/apps/lwiperf\lwiperf.c ****   enum lwiperf_client_type type, lwiperf_report_fn report_fn, void* report_arg)
 729:C:/Users/stapi/OneDrive/Desktop/GD32VW553/V1_MQTT_OK/GD32VW55X_Wifi_BLE_SDK/GD32VW55x_RELEASE_V1.0.2/MSDK/lwip/lwip-2.1.2/src/apps/lwiperf\lwiperf.c **** {
 730:C:/Users/stapi/OneDrive/Desktop/GD32VW553/V1_MQTT_OK/GD32VW55X_Wifi_BLE_SDK/GD32VW55x_RELEASE_V1.0.2/MSDK/lwip/lwip-2.1.2/src/apps/lwiperf\lwiperf.c ****   err_t ret;
 731:C:/Users/stapi/OneDrive/Desktop/GD32VW553/V1_MQTT_OK/GD32VW55X_Wifi_BLE_SDK/GD32VW55x_RELEASE_V1.0.2/MSDK/lwip/lwip-2.1.2/src/apps/lwiperf\lwiperf.c ****   lwiperf_settings_t settings;
 732:C:/Users/stapi/OneDrive/Desktop/GD32VW553/V1_MQTT_OK/GD32VW55X_Wifi_BLE_SDK/GD32VW55x_RELEASE_V1.0.2/MSDK/lwip/lwip-2.1.2/src/apps/lwiperf\lwiperf.c ****   lwiperf_state_tcp_t *state = NULL;
 733:C:/Users/stapi/OneDrive/Desktop/GD32VW553/V1_MQTT_OK/GD32VW55X_Wifi_BLE_SDK/GD32VW55x_RELEASE_V1.0.2/MSDK/lwip/lwip-2.1.2/src/apps/lwiperf\lwiperf.c **** 
 734:C:/Users/stapi/OneDrive/Desktop/GD32VW553/V1_MQTT_OK/GD32VW55X_Wifi_BLE_SDK/GD32VW55x_RELEASE_V1.0.2/MSDK/lwip/lwip-2.1.2/src/apps/lwiperf\lwiperf.c ****   memset(&settings, 0, sizeof(settings));
 735:C:/Users/stapi/OneDrive/Desktop/GD32VW553/V1_MQTT_OK/GD32VW55X_Wifi_BLE_SDK/GD32VW55x_RELEASE_V1.0.2/MSDK/lwip/lwip-2.1.2/src/apps/lwiperf\lwiperf.c ****   switch (type) {
 736:C:/Users/stapi/OneDrive/Desktop/GD32VW553/V1_MQTT_OK/GD32VW55X_Wifi_BLE_SDK/GD32VW55x_RELEASE_V1.0.2/MSDK/lwip/lwip-2.1.2/src/apps/lwiperf\lwiperf.c ****   case LWIPERF_CLIENT:
 737:C:/Users/stapi/OneDrive/Desktop/GD32VW553/V1_MQTT_OK/GD32VW55X_Wifi_BLE_SDK/GD32VW55x_RELEASE_V1.0.2/MSDK/lwip/lwip-2.1.2/src/apps/lwiperf\lwiperf.c ****     /* Unidirectional tx only test */
 738:C:/Users/stapi/OneDrive/Desktop/GD32VW553/V1_MQTT_OK/GD32VW55X_Wifi_BLE_SDK/GD32VW55x_RELEASE_V1.0.2/MSDK/lwip/lwip-2.1.2/src/apps/lwiperf\lwiperf.c ****     settings.flags = 0;
 739:C:/Users/stapi/OneDrive/Desktop/GD32VW553/V1_MQTT_OK/GD32VW55X_Wifi_BLE_SDK/GD32VW55x_RELEASE_V1.0.2/MSDK/lwip/lwip-2.1.2/src/apps/lwiperf\lwiperf.c ****     break;
 740:C:/Users/stapi/OneDrive/Desktop/GD32VW553/V1_MQTT_OK/GD32VW55X_Wifi_BLE_SDK/GD32VW55x_RELEASE_V1.0.2/MSDK/lwip/lwip-2.1.2/src/apps/lwiperf\lwiperf.c ****   case LWIPERF_DUAL:
 741:C:/Users/stapi/OneDrive/Desktop/GD32VW553/V1_MQTT_OK/GD32VW55X_Wifi_BLE_SDK/GD32VW55x_RELEASE_V1.0.2/MSDK/lwip/lwip-2.1.2/src/apps/lwiperf\lwiperf.c ****     /* Do a bidirectional test simultaneously */
 742:C:/Users/stapi/OneDrive/Desktop/GD32VW553/V1_MQTT_OK/GD32VW55X_Wifi_BLE_SDK/GD32VW55x_RELEASE_V1.0.2/MSDK/lwip/lwip-2.1.2/src/apps/lwiperf\lwiperf.c ****     settings.flags = htonl(LWIPERF_FLAGS_ANSWER_TEST | LWIPERF_FLAGS_ANSWER_NOW);
 743:C:/Users/stapi/OneDrive/Desktop/GD32VW553/V1_MQTT_OK/GD32VW55X_Wifi_BLE_SDK/GD32VW55x_RELEASE_V1.0.2/MSDK/lwip/lwip-2.1.2/src/apps/lwiperf\lwiperf.c ****     break;
 744:C:/Users/stapi/OneDrive/Desktop/GD32VW553/V1_MQTT_OK/GD32VW55X_Wifi_BLE_SDK/GD32VW55x_RELEASE_V1.0.2/MSDK/lwip/lwip-2.1.2/src/apps/lwiperf\lwiperf.c ****   case LWIPERF_TRADEOFF:
 745:C:/Users/stapi/OneDrive/Desktop/GD32VW553/V1_MQTT_OK/GD32VW55X_Wifi_BLE_SDK/GD32VW55x_RELEASE_V1.0.2/MSDK/lwip/lwip-2.1.2/src/apps/lwiperf\lwiperf.c ****     /* Do a bidirectional test individually */
 746:C:/Users/stapi/OneDrive/Desktop/GD32VW553/V1_MQTT_OK/GD32VW55X_Wifi_BLE_SDK/GD32VW55x_RELEASE_V1.0.2/MSDK/lwip/lwip-2.1.2/src/apps/lwiperf\lwiperf.c ****     settings.flags = htonl(LWIPERF_FLAGS_ANSWER_TEST);
 747:C:/Users/stapi/OneDrive/Desktop/GD32VW553/V1_MQTT_OK/GD32VW55X_Wifi_BLE_SDK/GD32VW55x_RELEASE_V1.0.2/MSDK/lwip/lwip-2.1.2/src/apps/lwiperf\lwiperf.c ****     break;
 748:C:/Users/stapi/OneDrive/Desktop/GD32VW553/V1_MQTT_OK/GD32VW55X_Wifi_BLE_SDK/GD32VW55x_RELEASE_V1.0.2/MSDK/lwip/lwip-2.1.2/src/apps/lwiperf\lwiperf.c ****   default:
 749:C:/Users/stapi/OneDrive/Desktop/GD32VW553/V1_MQTT_OK/GD32VW55X_Wifi_BLE_SDK/GD32VW55x_RELEASE_V1.0.2/MSDK/lwip/lwip-2.1.2/src/apps/lwiperf\lwiperf.c ****     /* invalid argument */
 750:C:/Users/stapi/OneDrive/Desktop/GD32VW553/V1_MQTT_OK/GD32VW55X_Wifi_BLE_SDK/GD32VW55x_RELEASE_V1.0.2/MSDK/lwip/lwip-2.1.2/src/apps/lwiperf\lwiperf.c ****     return NULL;
 751:C:/Users/stapi/OneDrive/Desktop/GD32VW553/V1_MQTT_OK/GD32VW55X_Wifi_BLE_SDK/GD32VW55x_RELEASE_V1.0.2/MSDK/lwip/lwip-2.1.2/src/apps/lwiperf\lwiperf.c ****   }
 752:C:/Users/stapi/OneDrive/Desktop/GD32VW553/V1_MQTT_OK/GD32VW55X_Wifi_BLE_SDK/GD32VW55x_RELEASE_V1.0.2/MSDK/lwip/lwip-2.1.2/src/apps/lwiperf\lwiperf.c ****   settings.num_threads = htonl(1);
 753:C:/Users/stapi/OneDrive/Desktop/GD32VW553/V1_MQTT_OK/GD32VW55X_Wifi_BLE_SDK/GD32VW55x_RELEASE_V1.0.2/MSDK/lwip/lwip-2.1.2/src/apps/lwiperf\lwiperf.c ****   settings.remote_port = htonl(LWIPERF_TCP_PORT_DEFAULT);
 754:C:/Users/stapi/OneDrive/Desktop/GD32VW553/V1_MQTT_OK/GD32VW55X_Wifi_BLE_SDK/GD32VW55x_RELEASE_V1.0.2/MSDK/lwip/lwip-2.1.2/src/apps/lwiperf\lwiperf.c ****   /* TODO: implement passing duration/amount of bytes to transfer */
 755:C:/Users/stapi/OneDrive/Desktop/GD32VW553/V1_MQTT_OK/GD32VW55X_Wifi_BLE_SDK/GD32VW55x_RELEASE_V1.0.2/MSDK/lwip/lwip-2.1.2/src/apps/lwiperf\lwiperf.c ****   settings.amount = htonl((u32_t)-1000);
 756:C:/Users/stapi/OneDrive/Desktop/GD32VW553/V1_MQTT_OK/GD32VW55X_Wifi_BLE_SDK/GD32VW55x_RELEASE_V1.0.2/MSDK/lwip/lwip-2.1.2/src/apps/lwiperf\lwiperf.c **** 
 757:C:/Users/stapi/OneDrive/Desktop/GD32VW553/V1_MQTT_OK/GD32VW55X_Wifi_BLE_SDK/GD32VW55x_RELEASE_V1.0.2/MSDK/lwip/lwip-2.1.2/src/apps/lwiperf\lwiperf.c ****   ret = lwiperf_tx_start_impl(remote_addr, remote_port, &settings, report_fn, report_arg, NULL, &st
 758:C:/Users/stapi/OneDrive/Desktop/GD32VW553/V1_MQTT_OK/GD32VW55X_Wifi_BLE_SDK/GD32VW55x_RELEASE_V1.0.2/MSDK/lwip/lwip-2.1.2/src/apps/lwiperf\lwiperf.c ****   if (ret == ERR_OK) {
 759:C:/Users/stapi/OneDrive/Desktop/GD32VW553/V1_MQTT_OK/GD32VW55X_Wifi_BLE_SDK/GD32VW55x_RELEASE_V1.0.2/MSDK/lwip/lwip-2.1.2/src/apps/lwiperf\lwiperf.c ****     LWIP_ASSERT("state != NULL", state != NULL);
 760:C:/Users/stapi/OneDrive/Desktop/GD32VW553/V1_MQTT_OK/GD32VW55X_Wifi_BLE_SDK/GD32VW55x_RELEASE_V1.0.2/MSDK/lwip/lwip-2.1.2/src/apps/lwiperf\lwiperf.c ****     if (type != LWIPERF_CLIENT) {
 761:C:/Users/stapi/OneDrive/Desktop/GD32VW553/V1_MQTT_OK/GD32VW55X_Wifi_BLE_SDK/GD32VW55x_RELEASE_V1.0.2/MSDK/lwip/lwip-2.1.2/src/apps/lwiperf\lwiperf.c ****       /* start corresponding server now */
 762:C:/Users/stapi/OneDrive/Desktop/GD32VW553/V1_MQTT_OK/GD32VW55X_Wifi_BLE_SDK/GD32VW55x_RELEASE_V1.0.2/MSDK/lwip/lwip-2.1.2/src/apps/lwiperf\lwiperf.c ****       lwiperf_state_tcp_t *server = NULL;
 763:C:/Users/stapi/OneDrive/Desktop/GD32VW553/V1_MQTT_OK/GD32VW55X_Wifi_BLE_SDK/GD32VW55x_RELEASE_V1.0.2/MSDK/lwip/lwip-2.1.2/src/apps/lwiperf\lwiperf.c ****       ret = lwiperf_start_tcp_server_impl(&state->conn_pcb->local_ip, LWIPERF_TCP_PORT_DEFAULT,
 764:C:/Users/stapi/OneDrive/Desktop/GD32VW553/V1_MQTT_OK/GD32VW55X_Wifi_BLE_SDK/GD32VW55x_RELEASE_V1.0.2/MSDK/lwip/lwip-2.1.2/src/apps/lwiperf\lwiperf.c ****         report_fn, report_arg, (lwiperf_state_base_t *)state, &server);
 765:C:/Users/stapi/OneDrive/Desktop/GD32VW553/V1_MQTT_OK/GD32VW55X_Wifi_BLE_SDK/GD32VW55x_RELEASE_V1.0.2/MSDK/lwip/lwip-2.1.2/src/apps/lwiperf\lwiperf.c ****       if (ret != ERR_OK) {
 766:C:/Users/stapi/OneDrive/Desktop/GD32VW553/V1_MQTT_OK/GD32VW55X_Wifi_BLE_SDK/GD32VW55x_RELEASE_V1.0.2/MSDK/lwip/lwip-2.1.2/src/apps/lwiperf\lwiperf.c ****         /* starting server failed, abort client */
 767:C:/Users/stapi/OneDrive/Desktop/GD32VW553/V1_MQTT_OK/GD32VW55X_Wifi_BLE_SDK/GD32VW55x_RELEASE_V1.0.2/MSDK/lwip/lwip-2.1.2/src/apps/lwiperf\lwiperf.c ****         lwiperf_abort(state);
 768:C:/Users/stapi/OneDrive/Desktop/GD32VW553/V1_MQTT_OK/GD32VW55X_Wifi_BLE_SDK/GD32VW55x_RELEASE_V1.0.2/MSDK/lwip/lwip-2.1.2/src/apps/lwiperf\lwiperf.c ****         return NULL;
 769:C:/Users/stapi/OneDrive/Desktop/GD32VW553/V1_MQTT_OK/GD32VW55X_Wifi_BLE_SDK/GD32VW55x_RELEASE_V1.0.2/MSDK/lwip/lwip-2.1.2/src/apps/lwiperf\lwiperf.c ****       }
 770:C:/Users/stapi/OneDrive/Desktop/GD32VW553/V1_MQTT_OK/GD32VW55X_Wifi_BLE_SDK/GD32VW55x_RELEASE_V1.0.2/MSDK/lwip/lwip-2.1.2/src/apps/lwiperf\lwiperf.c ****       /* make this server accept one connection only */
 771:C:/Users/stapi/OneDrive/Desktop/GD32VW553/V1_MQTT_OK/GD32VW55X_Wifi_BLE_SDK/GD32VW55x_RELEASE_V1.0.2/MSDK/lwip/lwip-2.1.2/src/apps/lwiperf\lwiperf.c ****       server->specific_remote = 1;
 772:C:/Users/stapi/OneDrive/Desktop/GD32VW553/V1_MQTT_OK/GD32VW55X_Wifi_BLE_SDK/GD32VW55x_RELEASE_V1.0.2/MSDK/lwip/lwip-2.1.2/src/apps/lwiperf\lwiperf.c ****       server->remote_addr = state->conn_pcb->remote_ip;
 773:C:/Users/stapi/OneDrive/Desktop/GD32VW553/V1_MQTT_OK/GD32VW55X_Wifi_BLE_SDK/GD32VW55x_RELEASE_V1.0.2/MSDK/lwip/lwip-2.1.2/src/apps/lwiperf\lwiperf.c ****       if (type == LWIPERF_TRADEOFF) {
 774:C:/Users/stapi/OneDrive/Desktop/GD32VW553/V1_MQTT_OK/GD32VW55X_Wifi_BLE_SDK/GD32VW55x_RELEASE_V1.0.2/MSDK/lwip/lwip-2.1.2/src/apps/lwiperf\lwiperf.c ****         /* tradeoff means that the remote host connects only after the client is done,
 775:C:/Users/stapi/OneDrive/Desktop/GD32VW553/V1_MQTT_OK/GD32VW55X_Wifi_BLE_SDK/GD32VW55x_RELEASE_V1.0.2/MSDK/lwip/lwip-2.1.2/src/apps/lwiperf\lwiperf.c ****            so keep the listen pcb open until the client is done */
 776:C:/Users/stapi/OneDrive/Desktop/GD32VW553/V1_MQTT_OK/GD32VW55X_Wifi_BLE_SDK/GD32VW55x_RELEASE_V1.0.2/MSDK/lwip/lwip-2.1.2/src/apps/lwiperf\lwiperf.c ****         server->client_tradeoff_mode = 1;
 777:C:/Users/stapi/OneDrive/Desktop/GD32VW553/V1_MQTT_OK/GD32VW55X_Wifi_BLE_SDK/GD32VW55x_RELEASE_V1.0.2/MSDK/lwip/lwip-2.1.2/src/apps/lwiperf\lwiperf.c ****       }
 778:C:/Users/stapi/OneDrive/Desktop/GD32VW553/V1_MQTT_OK/GD32VW55X_Wifi_BLE_SDK/GD32VW55x_RELEASE_V1.0.2/MSDK/lwip/lwip-2.1.2/src/apps/lwiperf\lwiperf.c ****     }
 779:C:/Users/stapi/OneDrive/Desktop/GD32VW553/V1_MQTT_OK/GD32VW55X_Wifi_BLE_SDK/GD32VW55x_RELEASE_V1.0.2/MSDK/lwip/lwip-2.1.2/src/apps/lwiperf\lwiperf.c ****     return state;
 780:C:/Users/stapi/OneDrive/Desktop/GD32VW553/V1_MQTT_OK/GD32VW55X_Wifi_BLE_SDK/GD32VW55x_RELEASE_V1.0.2/MSDK/lwip/lwip-2.1.2/src/apps/lwiperf\lwiperf.c ****   }
 781:C:/Users/stapi/OneDrive/Desktop/GD32VW553/V1_MQTT_OK/GD32VW55X_Wifi_BLE_SDK/GD32VW55x_RELEASE_V1.0.2/MSDK/lwip/lwip-2.1.2/src/apps/lwiperf\lwiperf.c ****   return NULL;
 782:C:/Users/stapi/OneDrive/Desktop/GD32VW553/V1_MQTT_OK/GD32VW55X_Wifi_BLE_SDK/GD32VW55x_RELEASE_V1.0.2/MSDK/lwip/lwip-2.1.2/src/apps/lwiperf\lwiperf.c **** }
 783:C:/Users/stapi/OneDrive/Desktop/GD32VW553/V1_MQTT_OK/GD32VW55X_Wifi_BLE_SDK/GD32VW55x_RELEASE_V1.0.2/MSDK/lwip/lwip-2.1.2/src/apps/lwiperf\lwiperf.c **** 
 784:C:/Users/stapi/OneDrive/Desktop/GD32VW553/V1_MQTT_OK/GD32VW55X_Wifi_BLE_SDK/GD32VW55x_RELEASE_V1.0.2/MSDK/lwip/lwip-2.1.2/src/apps/lwiperf\lwiperf.c **** /**
 785:C:/Users/stapi/OneDrive/Desktop/GD32VW553/V1_MQTT_OK/GD32VW55X_Wifi_BLE_SDK/GD32VW55x_RELEASE_V1.0.2/MSDK/lwip/lwip-2.1.2/src/apps/lwiperf\lwiperf.c ****  * @ingroup iperf
 786:C:/Users/stapi/OneDrive/Desktop/GD32VW553/V1_MQTT_OK/GD32VW55X_Wifi_BLE_SDK/GD32VW55x_RELEASE_V1.0.2/MSDK/lwip/lwip-2.1.2/src/apps/lwiperf\lwiperf.c ****  * Abort an iperf session (handle returned by lwiperf_start_tcp_server*())
 787:C:/Users/stapi/OneDrive/Desktop/GD32VW553/V1_MQTT_OK/GD32VW55X_Wifi_BLE_SDK/GD32VW55x_RELEASE_V1.0.2/MSDK/lwip/lwip-2.1.2/src/apps/lwiperf\lwiperf.c ****  */
 788:C:/Users/stapi/OneDrive/Desktop/GD32VW553/V1_MQTT_OK/GD32VW55X_Wifi_BLE_SDK/GD32VW55x_RELEASE_V1.0.2/MSDK/lwip/lwip-2.1.2/src/apps/lwiperf\lwiperf.c **** void
 789:C:/Users/stapi/OneDrive/Desktop/GD32VW553/V1_MQTT_OK/GD32VW55X_Wifi_BLE_SDK/GD32VW55x_RELEASE_V1.0.2/MSDK/lwip/lwip-2.1.2/src/apps/lwiperf\lwiperf.c **** lwiperf_abort(void *lwiperf_session)
 790:C:/Users/stapi/OneDrive/Desktop/GD32VW553/V1_MQTT_OK/GD32VW55X_Wifi_BLE_SDK/GD32VW55x_RELEASE_V1.0.2/MSDK/lwip/lwip-2.1.2/src/apps/lwiperf\lwiperf.c **** {
 2187              		.loc 1 790 1 is_stmt 1
 2188              		.cfi_startproc
 2189              	.LVL248:
 2190 0000 17030000 		call	t0,__riscv_save_3
 2190      E7020300 
 2191              		.cfi_offset 18, -16
 2192              		.cfi_offset 9, -12
 2193              		.cfi_offset 8, -8
 2194              		.cfi_offset 1, -4
 2195              		.cfi_def_cfa_offset 16
 791:C:/Users/stapi/OneDrive/Desktop/GD32VW553/V1_MQTT_OK/GD32VW55X_Wifi_BLE_SDK/GD32VW55x_RELEASE_V1.0.2/MSDK/lwip/lwip-2.1.2/src/apps/lwiperf\lwiperf.c ****   lwiperf_state_base_t *i, *dealloc, *last = NULL;
 2196              		.loc 1 791 3
 2197              	.LVL249:
 792:C:/Users/stapi/OneDrive/Desktop/GD32VW553/V1_MQTT_OK/GD32VW55X_Wifi_BLE_SDK/GD32VW55x_RELEASE_V1.0.2/MSDK/lwip/lwip-2.1.2/src/apps/lwiperf\lwiperf.c **** 
 793:C:/Users/stapi/OneDrive/Desktop/GD32VW553/V1_MQTT_OK/GD32VW55X_Wifi_BLE_SDK/GD32VW55x_RELEASE_V1.0.2/MSDK/lwip/lwip-2.1.2/src/apps/lwiperf\lwiperf.c ****   LWIP_ASSERT_CORE_LOCKED();
 2198              		.loc 1 793 28
 794:C:/Users/stapi/OneDrive/Desktop/GD32VW553/V1_MQTT_OK/GD32VW55X_Wifi_BLE_SDK/GD32VW55x_RELEASE_V1.0.2/MSDK/lwip/lwip-2.1.2/src/apps/lwiperf\lwiperf.c **** 
 795:C:/Users/stapi/OneDrive/Desktop/GD32VW553/V1_MQTT_OK/GD32VW55X_Wifi_BLE_SDK/GD32VW55x_RELEASE_V1.0.2/MSDK/lwip/lwip-2.1.2/src/apps/lwiperf\lwiperf.c ****   for (i = lwiperf_all_connections; i != NULL; ) {
 2199              		.loc 1 795 3
 2200              		.loc 1 795 10 is_stmt 0
 2201 0008 B7070000 		lui	a5,%hi(.LANCHOR0)
 790:C:/Users/stapi/OneDrive/Desktop/GD32VW553/V1_MQTT_OK/GD32VW55X_Wifi_BLE_SDK/GD32VW55x_RELEASE_V1.0.2/MSDK/lwip/lwip-2.1.2/src/apps/lwiperf\lwiperf.c ****   lwiperf_state_base_t *i, *dealloc, *last = NULL;
 2202              		.loc 1 790 1
 2203 000c AA84     		mv	s1,a0
 2204              		.loc 1 795 10
 2205 000e 03A50700 		lw	a0,%lo(.LANCHOR0)(a5)
 2206              	.LVL250:
 791:C:/Users/stapi/OneDrive/Desktop/GD32VW553/V1_MQTT_OK/GD32VW55X_Wifi_BLE_SDK/GD32VW55x_RELEASE_V1.0.2/MSDK/lwip/lwip-2.1.2/src/apps/lwiperf\lwiperf.c **** 
 2207              		.loc 1 791 39
 2208 0012 0144     		li	s0,0
 2209              	.LVL251:
 2210              	.L184:
 2211              		.loc 1 795 37 is_stmt 1 discriminator 1
 2212              		.loc 1 795 3 is_stmt 0 discriminator 1
 2213 0014 09E5     		bne	a0,zero,.L188
 796:C:/Users/stapi/OneDrive/Desktop/GD32VW553/V1_MQTT_OK/GD32VW55X_Wifi_BLE_SDK/GD32VW55x_RELEASE_V1.0.2/MSDK/lwip/lwip-2.1.2/src/apps/lwiperf\lwiperf.c ****     if ((i == lwiperf_session) || (i->related_master_state == lwiperf_session)) {
 797:C:/Users/stapi/OneDrive/Desktop/GD32VW553/V1_MQTT_OK/GD32VW55X_Wifi_BLE_SDK/GD32VW55x_RELEASE_V1.0.2/MSDK/lwip/lwip-2.1.2/src/apps/lwiperf\lwiperf.c ****       dealloc = i;
 798:C:/Users/stapi/OneDrive/Desktop/GD32VW553/V1_MQTT_OK/GD32VW55X_Wifi_BLE_SDK/GD32VW55x_RELEASE_V1.0.2/MSDK/lwip/lwip-2.1.2/src/apps/lwiperf\lwiperf.c ****       i = i->next;
 799:C:/Users/stapi/OneDrive/Desktop/GD32VW553/V1_MQTT_OK/GD32VW55X_Wifi_BLE_SDK/GD32VW55x_RELEASE_V1.0.2/MSDK/lwip/lwip-2.1.2/src/apps/lwiperf\lwiperf.c ****       if (last != NULL) {
 800:C:/Users/stapi/OneDrive/Desktop/GD32VW553/V1_MQTT_OK/GD32VW55X_Wifi_BLE_SDK/GD32VW55x_RELEASE_V1.0.2/MSDK/lwip/lwip-2.1.2/src/apps/lwiperf\lwiperf.c ****         last->next = i;
 801:C:/Users/stapi/OneDrive/Desktop/GD32VW553/V1_MQTT_OK/GD32VW55X_Wifi_BLE_SDK/GD32VW55x_RELEASE_V1.0.2/MSDK/lwip/lwip-2.1.2/src/apps/lwiperf\lwiperf.c ****       }
 802:C:/Users/stapi/OneDrive/Desktop/GD32VW553/V1_MQTT_OK/GD32VW55X_Wifi_BLE_SDK/GD32VW55x_RELEASE_V1.0.2/MSDK/lwip/lwip-2.1.2/src/apps/lwiperf\lwiperf.c ****       LWIPERF_FREE(lwiperf_state_tcp_t, dealloc); /* @todo: type? */
 803:C:/Users/stapi/OneDrive/Desktop/GD32VW553/V1_MQTT_OK/GD32VW55X_Wifi_BLE_SDK/GD32VW55x_RELEASE_V1.0.2/MSDK/lwip/lwip-2.1.2/src/apps/lwiperf\lwiperf.c ****     } else {
 804:C:/Users/stapi/OneDrive/Desktop/GD32VW553/V1_MQTT_OK/GD32VW55X_Wifi_BLE_SDK/GD32VW55x_RELEASE_V1.0.2/MSDK/lwip/lwip-2.1.2/src/apps/lwiperf\lwiperf.c ****       last = i;
 805:C:/Users/stapi/OneDrive/Desktop/GD32VW553/V1_MQTT_OK/GD32VW55X_Wifi_BLE_SDK/GD32VW55x_RELEASE_V1.0.2/MSDK/lwip/lwip-2.1.2/src/apps/lwiperf\lwiperf.c ****       i = i->next;
 806:C:/Users/stapi/OneDrive/Desktop/GD32VW553/V1_MQTT_OK/GD32VW55X_Wifi_BLE_SDK/GD32VW55x_RELEASE_V1.0.2/MSDK/lwip/lwip-2.1.2/src/apps/lwiperf\lwiperf.c ****     }
 807:C:/Users/stapi/OneDrive/Desktop/GD32VW553/V1_MQTT_OK/GD32VW55X_Wifi_BLE_SDK/GD32VW55x_RELEASE_V1.0.2/MSDK/lwip/lwip-2.1.2/src/apps/lwiperf\lwiperf.c ****   }
 808:C:/Users/stapi/OneDrive/Desktop/GD32VW553/V1_MQTT_OK/GD32VW55X_Wifi_BLE_SDK/GD32VW55x_RELEASE_V1.0.2/MSDK/lwip/lwip-2.1.2/src/apps/lwiperf\lwiperf.c **** }
 2214              		.loc 1 808 1
 2215 0016 17030000 		tail	__riscv_restore_3
 2215      67000300 
 2216              		.cfi_remember_state
 2217              		.cfi_restore 18
 2218              		.cfi_restore 9
 2219              		.cfi_restore 8
 2220              		.cfi_restore 1
 2221              		.cfi_def_cfa_offset 0
 2222              	.L188:
 2223              		.cfi_restore_state
 796:C:/Users/stapi/OneDrive/Desktop/GD32VW553/V1_MQTT_OK/GD32VW55X_Wifi_BLE_SDK/GD32VW55x_RELEASE_V1.0.2/MSDK/lwip/lwip-2.1.2/src/apps/lwiperf\lwiperf.c ****     if ((i == lwiperf_session) || (i->related_master_state == lwiperf_session)) {
 2224              		.loc 1 796 5 is_stmt 1
 805:C:/Users/stapi/OneDrive/Desktop/GD32VW553/V1_MQTT_OK/GD32VW55X_Wifi_BLE_SDK/GD32VW55x_RELEASE_V1.0.2/MSDK/lwip/lwip-2.1.2/src/apps/lwiperf\lwiperf.c ****     }
 2225              		.loc 1 805 9 is_stmt 0
 2226 001e 03290500 		lw	s2,0(a0)
 796:C:/Users/stapi/OneDrive/Desktop/GD32VW553/V1_MQTT_OK/GD32VW55X_Wifi_BLE_SDK/GD32VW55x_RELEASE_V1.0.2/MSDK/lwip/lwip-2.1.2/src/apps/lwiperf\lwiperf.c ****     if ((i == lwiperf_session) || (i->related_master_state == lwiperf_session)) {
 2227              		.loc 1 796 8
 2228 0022 63059500 		beq	a0,s1,.L185
 796:C:/Users/stapi/OneDrive/Desktop/GD32VW553/V1_MQTT_OK/GD32VW55X_Wifi_BLE_SDK/GD32VW55x_RELEASE_V1.0.2/MSDK/lwip/lwip-2.1.2/src/apps/lwiperf\lwiperf.c ****     if ((i == lwiperf_session) || (i->related_master_state == lwiperf_session)) {
 2229              		.loc 1 796 32 discriminator 1
 2230 0026 1C45     		lw	a5,8(a0)
 2231 0028 639A9700 		bne	a5,s1,.L186
 2232              	.L185:
 797:C:/Users/stapi/OneDrive/Desktop/GD32VW553/V1_MQTT_OK/GD32VW55X_Wifi_BLE_SDK/GD32VW55x_RELEASE_V1.0.2/MSDK/lwip/lwip-2.1.2/src/apps/lwiperf\lwiperf.c ****       i = i->next;
 2233              		.loc 1 797 7 is_stmt 1
 2234              	.LVL252:
 798:C:/Users/stapi/OneDrive/Desktop/GD32VW553/V1_MQTT_OK/GD32VW55X_Wifi_BLE_SDK/GD32VW55x_RELEASE_V1.0.2/MSDK/lwip/lwip-2.1.2/src/apps/lwiperf\lwiperf.c ****       if (last != NULL) {
 2235              		.loc 1 798 7
 799:C:/Users/stapi/OneDrive/Desktop/GD32VW553/V1_MQTT_OK/GD32VW55X_Wifi_BLE_SDK/GD32VW55x_RELEASE_V1.0.2/MSDK/lwip/lwip-2.1.2/src/apps/lwiperf\lwiperf.c ****         last->next = i;
 2236              		.loc 1 799 7
 799:C:/Users/stapi/OneDrive/Desktop/GD32VW553/V1_MQTT_OK/GD32VW55X_Wifi_BLE_SDK/GD32VW55x_RELEASE_V1.0.2/MSDK/lwip/lwip-2.1.2/src/apps/lwiperf\lwiperf.c ****         last->next = i;
 2237              		.loc 1 799 10 is_stmt 0
 2238 002c 19C0     		beq	s0,zero,.L187
 800:C:/Users/stapi/OneDrive/Desktop/GD32VW553/V1_MQTT_OK/GD32VW55X_Wifi_BLE_SDK/GD32VW55x_RELEASE_V1.0.2/MSDK/lwip/lwip-2.1.2/src/apps/lwiperf\lwiperf.c ****       }
 2239              		.loc 1 800 9 is_stmt 1
 800:C:/Users/stapi/OneDrive/Desktop/GD32VW553/V1_MQTT_OK/GD32VW55X_Wifi_BLE_SDK/GD32VW55x_RELEASE_V1.0.2/MSDK/lwip/lwip-2.1.2/src/apps/lwiperf\lwiperf.c ****       }
 2240              		.loc 1 800 20 is_stmt 0
 2241 002e 23202401 		sw	s2,0(s0)
 2242              	.LVL253:
 2243              	.L187:
 802:C:/Users/stapi/OneDrive/Desktop/GD32VW553/V1_MQTT_OK/GD32VW55X_Wifi_BLE_SDK/GD32VW55x_RELEASE_V1.0.2/MSDK/lwip/lwip-2.1.2/src/apps/lwiperf\lwiperf.c ****     } else {
 2244              		.loc 1 802 7 is_stmt 1
 2245 0032 97000000 		call	mem_free
 2245      E7800000 
 2246              	.LVL254:
 2247 003a 2285     		mv	a0,s0
 2248              	.L186:
 2249              	.LVL255:
 802:C:/Users/stapi/OneDrive/Desktop/GD32VW553/V1_MQTT_OK/GD32VW55X_Wifi_BLE_SDK/GD32VW55x_RELEASE_V1.0.2/MSDK/lwip/lwip-2.1.2/src/apps/lwiperf\lwiperf.c ****     } else {
 2250              		.loc 1 802 7 is_stmt 0 discriminator 1
 2251 003c 2A84     		mv	s0,a0
 2252 003e 4A85     		mv	a0,s2
 2253 0040 D1BF     		j	.L184
 2254              		.cfi_endproc
 2255              	.LFE23:
 2257              		.section	.rodata.lwiperf_start_tcp_client.str1.4,"aMS",@progbits,1
 2258              		.align	2
 2259              	.LC16:
 2260 0000 73746174 		.string	"state != NULL"
 2260      6520213D 
 2260      204E554C 
 2260      4C00
 2261              		.section	.text.lwiperf_start_tcp_client,"ax",@progbits
 2262              		.align	1
 2263              		.globl	lwiperf_start_tcp_client
 2265              	lwiperf_start_tcp_client:
 2266              	.LFB22:
 729:C:/Users/stapi/OneDrive/Desktop/GD32VW553/V1_MQTT_OK/GD32VW55X_Wifi_BLE_SDK/GD32VW55x_RELEASE_V1.0.2/MSDK/lwip/lwip-2.1.2/src/apps/lwiperf\lwiperf.c ****   err_t ret;
 2267              		.loc 1 729 1 is_stmt 1
 2268              		.cfi_startproc
 2269              	.LVL256:
 2270 0000 17030000 		call	t0,__riscv_save_6
 2270      E7020300 
 2271              		.cfi_offset 21, -28
 2272              		.cfi_offset 20, -24
 2273              		.cfi_offset 19, -20
 2274              		.cfi_offset 18, -16
 2275              		.cfi_offset 9, -12
 2276              		.cfi_offset 8, -8
 2277              		.cfi_offset 1, -4
 2278              		.cfi_def_cfa_offset 32
 730:C:/Users/stapi/OneDrive/Desktop/GD32VW553/V1_MQTT_OK/GD32VW55X_Wifi_BLE_SDK/GD32VW55x_RELEASE_V1.0.2/MSDK/lwip/lwip-2.1.2/src/apps/lwiperf\lwiperf.c ****   lwiperf_settings_t settings;
 2279              		.loc 1 730 3
 731:C:/Users/stapi/OneDrive/Desktop/GD32VW553/V1_MQTT_OK/GD32VW55X_Wifi_BLE_SDK/GD32VW55x_RELEASE_V1.0.2/MSDK/lwip/lwip-2.1.2/src/apps/lwiperf\lwiperf.c ****   lwiperf_state_tcp_t *state = NULL;
 2280              		.loc 1 731 3
 732:C:/Users/stapi/OneDrive/Desktop/GD32VW553/V1_MQTT_OK/GD32VW55X_Wifi_BLE_SDK/GD32VW55x_RELEASE_V1.0.2/MSDK/lwip/lwip-2.1.2/src/apps/lwiperf\lwiperf.c **** 
 2281              		.loc 1 732 3
 729:C:/Users/stapi/OneDrive/Desktop/GD32VW553/V1_MQTT_OK/GD32VW55X_Wifi_BLE_SDK/GD32VW55x_RELEASE_V1.0.2/MSDK/lwip/lwip-2.1.2/src/apps/lwiperf\lwiperf.c ****   err_t ret;
 2282              		.loc 1 729 1 is_stmt 0
 2283 0008 0111     		addi	sp,sp,-32
 2284              		.cfi_def_cfa_offset 64
 729:C:/Users/stapi/OneDrive/Desktop/GD32VW553/V1_MQTT_OK/GD32VW55X_Wifi_BLE_SDK/GD32VW55x_RELEASE_V1.0.2/MSDK/lwip/lwip-2.1.2/src/apps/lwiperf\lwiperf.c ****   err_t ret;
 2285              		.loc 1 729 1
 2286 000a AA89     		mv	s3,a0
 2287 000c 2E8A     		mv	s4,a1
 2288 000e 3284     		mv	s0,a2
 734:C:/Users/stapi/OneDrive/Desktop/GD32VW553/V1_MQTT_OK/GD32VW55X_Wifi_BLE_SDK/GD32VW55x_RELEASE_V1.0.2/MSDK/lwip/lwip-2.1.2/src/apps/lwiperf\lwiperf.c ****   switch (type) {
 2289              		.loc 1 734 3
 2290 0010 8145     		li	a1,0
 2291              	.LVL257:
 2292 0012 6146     		li	a2,24
 2293              	.LVL258:
 2294 0014 2800     		addi	a0,sp,8
 2295              	.LVL259:
 729:C:/Users/stapi/OneDrive/Desktop/GD32VW553/V1_MQTT_OK/GD32VW55X_Wifi_BLE_SDK/GD32VW55x_RELEASE_V1.0.2/MSDK/lwip/lwip-2.1.2/src/apps/lwiperf\lwiperf.c ****   err_t ret;
 2296              		.loc 1 729 1
 2297 0016 B684     		mv	s1,a3
 2298 0018 3A89     		mv	s2,a4
 732:C:/Users/stapi/OneDrive/Desktop/GD32VW553/V1_MQTT_OK/GD32VW55X_Wifi_BLE_SDK/GD32VW55x_RELEASE_V1.0.2/MSDK/lwip/lwip-2.1.2/src/apps/lwiperf\lwiperf.c **** 
 2299              		.loc 1 732 24
 2300 001a 02C0     		sw	zero,0(sp)
 734:C:/Users/stapi/OneDrive/Desktop/GD32VW553/V1_MQTT_OK/GD32VW55X_Wifi_BLE_SDK/GD32VW55x_RELEASE_V1.0.2/MSDK/lwip/lwip-2.1.2/src/apps/lwiperf\lwiperf.c ****   switch (type) {
 2301              		.loc 1 734 3 is_stmt 1
 2302 001c 97000000 		call	memset
 2302      E7800000 
 2303              	.LVL260:
 735:C:/Users/stapi/OneDrive/Desktop/GD32VW553/V1_MQTT_OK/GD32VW55X_Wifi_BLE_SDK/GD32VW55x_RELEASE_V1.0.2/MSDK/lwip/lwip-2.1.2/src/apps/lwiperf\lwiperf.c ****   case LWIPERF_CLIENT:
 2304              		.loc 1 735 3
 2305 0024 8547     		li	a5,1
 2306 0026 6308F400 		beq	s0,a5,.L194
 2307 002a 8947     		li	a5,2
 2308 002c 6303F408 		beq	s0,a5,.L195
 2309 0030 19C8     		beq	s0,zero,.L196
 2310              	.L203:
 781:C:/Users/stapi/OneDrive/Desktop/GD32VW553/V1_MQTT_OK/GD32VW55X_Wifi_BLE_SDK/GD32VW55x_RELEASE_V1.0.2/MSDK/lwip/lwip-2.1.2/src/apps/lwiperf\lwiperf.c **** }
 2311              		.loc 1 781 10 is_stmt 0
 2312 0032 0145     		li	a0,0
 2313 0034 D9A0     		j	.L193
 2314              	.L194:
 742:C:/Users/stapi/OneDrive/Desktop/GD32VW553/V1_MQTT_OK/GD32VW55X_Wifi_BLE_SDK/GD32VW55x_RELEASE_V1.0.2/MSDK/lwip/lwip-2.1.2/src/apps/lwiperf\lwiperf.c ****     break;
 2315              		.loc 1 742 5 is_stmt 1
 742:C:/Users/stapi/OneDrive/Desktop/GD32VW553/V1_MQTT_OK/GD32VW55X_Wifi_BLE_SDK/GD32VW55x_RELEASE_V1.0.2/MSDK/lwip/lwip-2.1.2/src/apps/lwiperf\lwiperf.c ****     break;
 2316              		.loc 1 742 22 is_stmt 0
 2317 0036 37050080 		li	a0,-2147483648
 2318 003a 0505     		addi	a0,a0,1
 2319              	.L211:
 746:C:/Users/stapi/OneDrive/Desktop/GD32VW553/V1_MQTT_OK/GD32VW55X_Wifi_BLE_SDK/GD32VW55x_RELEASE_V1.0.2/MSDK/lwip/lwip-2.1.2/src/apps/lwiperf\lwiperf.c ****     break;
 2320              		.loc 1 746 22
 2321 003c 97000000 		call	lwip_htonl
 2321      E7800000 
 2322              	.LVL261:
 746:C:/Users/stapi/OneDrive/Desktop/GD32VW553/V1_MQTT_OK/GD32VW55X_Wifi_BLE_SDK/GD32VW55x_RELEASE_V1.0.2/MSDK/lwip/lwip-2.1.2/src/apps/lwiperf\lwiperf.c ****     break;
 2323              		.loc 1 746 20
 2324 0044 2AC4     		sw	a0,8(sp)
 747:C:/Users/stapi/OneDrive/Desktop/GD32VW553/V1_MQTT_OK/GD32VW55X_Wifi_BLE_SDK/GD32VW55x_RELEASE_V1.0.2/MSDK/lwip/lwip-2.1.2/src/apps/lwiperf\lwiperf.c ****   default:
 2325              		.loc 1 747 5 is_stmt 1
 2326              	.L196:
 752:C:/Users/stapi/OneDrive/Desktop/GD32VW553/V1_MQTT_OK/GD32VW55X_Wifi_BLE_SDK/GD32VW55x_RELEASE_V1.0.2/MSDK/lwip/lwip-2.1.2/src/apps/lwiperf\lwiperf.c ****   settings.remote_port = htonl(LWIPERF_TCP_PORT_DEFAULT);
 2327              		.loc 1 752 3
 752:C:/Users/stapi/OneDrive/Desktop/GD32VW553/V1_MQTT_OK/GD32VW55X_Wifi_BLE_SDK/GD32VW55x_RELEASE_V1.0.2/MSDK/lwip/lwip-2.1.2/src/apps/lwiperf\lwiperf.c ****   settings.remote_port = htonl(LWIPERF_TCP_PORT_DEFAULT);
 2328              		.loc 1 752 26 is_stmt 0
 2329 0046 0545     		li	a0,1
 2330 0048 97000000 		call	lwip_htonl
 2330      E7800000 
 2331              	.LVL262:
 753:C:/Users/stapi/OneDrive/Desktop/GD32VW553/V1_MQTT_OK/GD32VW55X_Wifi_BLE_SDK/GD32VW55x_RELEASE_V1.0.2/MSDK/lwip/lwip-2.1.2/src/apps/lwiperf\lwiperf.c ****   /* TODO: implement passing duration/amount of bytes to transfer */
 2332              		.loc 1 753 26
 2333 0050 856A     		li	s5,4096
 752:C:/Users/stapi/OneDrive/Desktop/GD32VW553/V1_MQTT_OK/GD32VW55X_Wifi_BLE_SDK/GD32VW55x_RELEASE_V1.0.2/MSDK/lwip/lwip-2.1.2/src/apps/lwiperf\lwiperf.c ****   settings.remote_port = htonl(LWIPERF_TCP_PORT_DEFAULT);
 2334              		.loc 1 752 24
 2335 0052 2AC6     		sw	a0,12(sp)
 753:C:/Users/stapi/OneDrive/Desktop/GD32VW553/V1_MQTT_OK/GD32VW55X_Wifi_BLE_SDK/GD32VW55x_RELEASE_V1.0.2/MSDK/lwip/lwip-2.1.2/src/apps/lwiperf\lwiperf.c ****   /* TODO: implement passing duration/amount of bytes to transfer */
 2336              		.loc 1 753 3 is_stmt 1
 753:C:/Users/stapi/OneDrive/Desktop/GD32VW553/V1_MQTT_OK/GD32VW55X_Wifi_BLE_SDK/GD32VW55x_RELEASE_V1.0.2/MSDK/lwip/lwip-2.1.2/src/apps/lwiperf\lwiperf.c ****   /* TODO: implement passing duration/amount of bytes to transfer */
 2337              		.loc 1 753 26 is_stmt 0
 2338 0054 13859A38 		addi	a0,s5,905
 2339 0058 97000000 		call	lwip_htonl
 2339      E7800000 
 2340              	.LVL263:
 753:C:/Users/stapi/OneDrive/Desktop/GD32VW553/V1_MQTT_OK/GD32VW55X_Wifi_BLE_SDK/GD32VW55x_RELEASE_V1.0.2/MSDK/lwip/lwip-2.1.2/src/apps/lwiperf\lwiperf.c ****   /* TODO: implement passing duration/amount of bytes to transfer */
 2341              		.loc 1 753 24
 2342 0060 2AC8     		sw	a0,16(sp)
 755:C:/Users/stapi/OneDrive/Desktop/GD32VW553/V1_MQTT_OK/GD32VW55X_Wifi_BLE_SDK/GD32VW55x_RELEASE_V1.0.2/MSDK/lwip/lwip-2.1.2/src/apps/lwiperf\lwiperf.c **** 
 2343              		.loc 1 755 3 is_stmt 1
 755:C:/Users/stapi/OneDrive/Desktop/GD32VW553/V1_MQTT_OK/GD32VW55X_Wifi_BLE_SDK/GD32VW55x_RELEASE_V1.0.2/MSDK/lwip/lwip-2.1.2/src/apps/lwiperf\lwiperf.c **** 
 2344              		.loc 1 755 21 is_stmt 0
 2345 0062 130580C1 		li	a0,-1000
 2346 0066 97000000 		call	lwip_htonl
 2346      E7800000 
 2347              	.LVL264:
 755:C:/Users/stapi/OneDrive/Desktop/GD32VW553/V1_MQTT_OK/GD32VW55X_Wifi_BLE_SDK/GD32VW55x_RELEASE_V1.0.2/MSDK/lwip/lwip-2.1.2/src/apps/lwiperf\lwiperf.c **** 
 2348              		.loc 1 755 19
 2349 006e 2ACE     		sw	a0,28(sp)
 757:C:/Users/stapi/OneDrive/Desktop/GD32VW553/V1_MQTT_OK/GD32VW55X_Wifi_BLE_SDK/GD32VW55x_RELEASE_V1.0.2/MSDK/lwip/lwip-2.1.2/src/apps/lwiperf\lwiperf.c ****   if (ret == ERR_OK) {
 2350              		.loc 1 757 3 is_stmt 1
 757:C:/Users/stapi/OneDrive/Desktop/GD32VW553/V1_MQTT_OK/GD32VW55X_Wifi_BLE_SDK/GD32VW55x_RELEASE_V1.0.2/MSDK/lwip/lwip-2.1.2/src/apps/lwiperf\lwiperf.c ****   if (ret == ERR_OK) {
 2351              		.loc 1 757 9 is_stmt 0
 2352 0070 0A88     		mv	a6,sp
 2353 0072 8147     		li	a5,0
 2354 0074 4A87     		mv	a4,s2
 2355 0076 A686     		mv	a3,s1
 2356 0078 3000     		addi	a2,sp,8
 2357 007a D285     		mv	a1,s4
 2358 007c 4E85     		mv	a0,s3
 2359 007e 97000000 		call	lwiperf_tx_start_impl
 2359      E7800000 
 2360              	.LVL265:
 758:C:/Users/stapi/OneDrive/Desktop/GD32VW553/V1_MQTT_OK/GD32VW55X_Wifi_BLE_SDK/GD32VW55x_RELEASE_V1.0.2/MSDK/lwip/lwip-2.1.2/src/apps/lwiperf\lwiperf.c ****     LWIP_ASSERT("state != NULL", state != NULL);
 2361              		.loc 1 758 3 is_stmt 1
 758:C:/Users/stapi/OneDrive/Desktop/GD32VW553/V1_MQTT_OK/GD32VW55X_Wifi_BLE_SDK/GD32VW55x_RELEASE_V1.0.2/MSDK/lwip/lwip-2.1.2/src/apps/lwiperf\lwiperf.c ****     LWIP_ASSERT("state != NULL", state != NULL);
 2362              		.loc 1 758 6 is_stmt 0
 2363 0086 55F5     		bne	a0,zero,.L203
 759:C:/Users/stapi/OneDrive/Desktop/GD32VW553/V1_MQTT_OK/GD32VW55X_Wifi_BLE_SDK/GD32VW55x_RELEASE_V1.0.2/MSDK/lwip/lwip-2.1.2/src/apps/lwiperf\lwiperf.c ****     if (type != LWIPERF_CLIENT) {
 2364              		.loc 1 759 5 is_stmt 1
 759:C:/Users/stapi/OneDrive/Desktop/GD32VW553/V1_MQTT_OK/GD32VW55X_Wifi_BLE_SDK/GD32VW55x_RELEASE_V1.0.2/MSDK/lwip/lwip-2.1.2/src/apps/lwiperf\lwiperf.c ****     if (type != LWIPERF_CLIENT) {
 2365              		.loc 1 759 5
 2366 0088 0247     		lw	a4,0(sp)
 2367 008a 1DE7     		bne	a4,zero,.L198
 759:C:/Users/stapi/OneDrive/Desktop/GD32VW553/V1_MQTT_OK/GD32VW55X_Wifi_BLE_SDK/GD32VW55x_RELEASE_V1.0.2/MSDK/lwip/lwip-2.1.2/src/apps/lwiperf\lwiperf.c ****     if (type != LWIPERF_CLIENT) {
 2368              		.loc 1 759 5 discriminator 1
 759:C:/Users/stapi/OneDrive/Desktop/GD32VW553/V1_MQTT_OK/GD32VW55X_Wifi_BLE_SDK/GD32VW55x_RELEASE_V1.0.2/MSDK/lwip/lwip-2.1.2/src/apps/lwiperf\lwiperf.c ****     if (type != LWIPERF_CLIENT) {
 2369              		.loc 1 759 5 discriminator 1
 2370 008c B7060000 		lui	a3,%hi(.LC0)
 2371 0090 B7050000 		lui	a1,%hi(.LC16)
 2372 0094 37050000 		lui	a0,%hi(.LC2)
 2373              	.LVL266:
 2374 0098 93860600 		addi	a3,a3,%lo(.LC0)
 2375 009c 1306702F 		li	a2,759
 2376 00a0 93850500 		addi	a1,a1,%lo(.LC16)
 2377 00a4 13050500 		addi	a0,a0,%lo(.LC2)
 2378 00a8 97000000 		call	printf
 2378      E7800000 
 2379              	.LVL267:
 2380              	.L199:
 759:C:/Users/stapi/OneDrive/Desktop/GD32VW553/V1_MQTT_OK/GD32VW55X_Wifi_BLE_SDK/GD32VW55x_RELEASE_V1.0.2/MSDK/lwip/lwip-2.1.2/src/apps/lwiperf\lwiperf.c ****     if (type != LWIPERF_CLIENT) {
 2381              		.loc 1 759 5 discriminator 1
 759:C:/Users/stapi/OneDrive/Desktop/GD32VW553/V1_MQTT_OK/GD32VW55X_Wifi_BLE_SDK/GD32VW55x_RELEASE_V1.0.2/MSDK/lwip/lwip-2.1.2/src/apps/lwiperf\lwiperf.c ****     if (type != LWIPERF_CLIENT) {
 2382              		.loc 1 759 5 discriminator 1
 759:C:/Users/stapi/OneDrive/Desktop/GD32VW553/V1_MQTT_OK/GD32VW55X_Wifi_BLE_SDK/GD32VW55x_RELEASE_V1.0.2/MSDK/lwip/lwip-2.1.2/src/apps/lwiperf\lwiperf.c ****     if (type != LWIPERF_CLIENT) {
 2383              		.loc 1 759 5 discriminator 1
 2384 00b0 01A0     		j	.L199
 2385              	.L195:
 746:C:/Users/stapi/OneDrive/Desktop/GD32VW553/V1_MQTT_OK/GD32VW55X_Wifi_BLE_SDK/GD32VW55x_RELEASE_V1.0.2/MSDK/lwip/lwip-2.1.2/src/apps/lwiperf\lwiperf.c ****     break;
 2386              		.loc 1 746 5
 746:C:/Users/stapi/OneDrive/Desktop/GD32VW553/V1_MQTT_OK/GD32VW55X_Wifi_BLE_SDK/GD32VW55x_RELEASE_V1.0.2/MSDK/lwip/lwip-2.1.2/src/apps/lwiperf\lwiperf.c ****     break;
 2387              		.loc 1 746 22 is_stmt 0
 2388 00b2 37050080 		li	a0,-2147483648
 2389 00b6 59B7     		j	.L211
 2390              	.LVL268:
 2391              	.L198:
 759:C:/Users/stapi/OneDrive/Desktop/GD32VW553/V1_MQTT_OK/GD32VW55X_Wifi_BLE_SDK/GD32VW55x_RELEASE_V1.0.2/MSDK/lwip/lwip-2.1.2/src/apps/lwiperf\lwiperf.c ****     if (type != LWIPERF_CLIENT) {
 2392              		.loc 1 759 5 is_stmt 1 discriminator 2
 759:C:/Users/stapi/OneDrive/Desktop/GD32VW553/V1_MQTT_OK/GD32VW55X_Wifi_BLE_SDK/GD32VW55x_RELEASE_V1.0.2/MSDK/lwip/lwip-2.1.2/src/apps/lwiperf\lwiperf.c ****     if (type != LWIPERF_CLIENT) {
 2393              		.loc 1 759 5 discriminator 2
 760:C:/Users/stapi/OneDrive/Desktop/GD32VW553/V1_MQTT_OK/GD32VW55X_Wifi_BLE_SDK/GD32VW55x_RELEASE_V1.0.2/MSDK/lwip/lwip-2.1.2/src/apps/lwiperf\lwiperf.c ****       /* start corresponding server now */
 2394              		.loc 1 760 5 discriminator 2
 760:C:/Users/stapi/OneDrive/Desktop/GD32VW553/V1_MQTT_OK/GD32VW55X_Wifi_BLE_SDK/GD32VW55x_RELEASE_V1.0.2/MSDK/lwip/lwip-2.1.2/src/apps/lwiperf\lwiperf.c ****       /* start corresponding server now */
 2395              		.loc 1 760 8 is_stmt 0 discriminator 2
 2396 00b8 21C0     		beq	s0,zero,.L200
 2397              	.LBB89:
 762:C:/Users/stapi/OneDrive/Desktop/GD32VW553/V1_MQTT_OK/GD32VW55X_Wifi_BLE_SDK/GD32VW55x_RELEASE_V1.0.2/MSDK/lwip/lwip-2.1.2/src/apps/lwiperf\lwiperf.c ****       ret = lwiperf_start_tcp_server_impl(&state->conn_pcb->local_ip, LWIPERF_TCP_PORT_DEFAULT,
 2398              		.loc 1 762 7 is_stmt 1
 763:C:/Users/stapi/OneDrive/Desktop/GD32VW553/V1_MQTT_OK/GD32VW55X_Wifi_BLE_SDK/GD32VW55x_RELEASE_V1.0.2/MSDK/lwip/lwip-2.1.2/src/apps/lwiperf\lwiperf.c ****         report_fn, report_arg, (lwiperf_state_base_t *)state, &server);
 2399              		.loc 1 763 13 is_stmt 0
 2400 00ba 084B     		lw	a0,16(a4)
 2401              	.LVL269:
 2402 00bc CA86     		mv	a3,s2
 2403 00be 5C00     		addi	a5,sp,4
 2404 00c0 2686     		mv	a2,s1
 2405 00c2 93859A38 		addi	a1,s5,905
 762:C:/Users/stapi/OneDrive/Desktop/GD32VW553/V1_MQTT_OK/GD32VW55X_Wifi_BLE_SDK/GD32VW55x_RELEASE_V1.0.2/MSDK/lwip/lwip-2.1.2/src/apps/lwiperf\lwiperf.c ****       ret = lwiperf_start_tcp_server_impl(&state->conn_pcb->local_ip, LWIPERF_TCP_PORT_DEFAULT,
 2406              		.loc 1 762 28
 2407 00c6 02C2     		sw	zero,4(sp)
 763:C:/Users/stapi/OneDrive/Desktop/GD32VW553/V1_MQTT_OK/GD32VW55X_Wifi_BLE_SDK/GD32VW55x_RELEASE_V1.0.2/MSDK/lwip/lwip-2.1.2/src/apps/lwiperf\lwiperf.c ****         report_fn, report_arg, (lwiperf_state_base_t *)state, &server);
 2408              		.loc 1 763 7 is_stmt 1
 763:C:/Users/stapi/OneDrive/Desktop/GD32VW553/V1_MQTT_OK/GD32VW55X_Wifi_BLE_SDK/GD32VW55x_RELEASE_V1.0.2/MSDK/lwip/lwip-2.1.2/src/apps/lwiperf\lwiperf.c ****         report_fn, report_arg, (lwiperf_state_base_t *)state, &server);
 2409              		.loc 1 763 13 is_stmt 0
 2410 00c8 97000000 		call	lwiperf_start_tcp_server_impl.constprop.0
 2410      E7800000 
 2411              	.LVL270:
 765:C:/Users/stapi/OneDrive/Desktop/GD32VW553/V1_MQTT_OK/GD32VW55X_Wifi_BLE_SDK/GD32VW55x_RELEASE_V1.0.2/MSDK/lwip/lwip-2.1.2/src/apps/lwiperf\lwiperf.c ****         /* starting server failed, abort client */
 2412              		.loc 1 765 7 is_stmt 1
 2413 00d0 8246     		lw	a3,0(sp)
 765:C:/Users/stapi/OneDrive/Desktop/GD32VW553/V1_MQTT_OK/GD32VW55X_Wifi_BLE_SDK/GD32VW55x_RELEASE_V1.0.2/MSDK/lwip/lwip-2.1.2/src/apps/lwiperf\lwiperf.c ****         /* starting server failed, abort client */
 2414              		.loc 1 765 10 is_stmt 0
 2415 00d2 19C5     		beq	a0,zero,.L201
 767:C:/Users/stapi/OneDrive/Desktop/GD32VW553/V1_MQTT_OK/GD32VW55X_Wifi_BLE_SDK/GD32VW55x_RELEASE_V1.0.2/MSDK/lwip/lwip-2.1.2/src/apps/lwiperf\lwiperf.c ****         return NULL;
 2416              		.loc 1 767 9 is_stmt 1
 2417 00d4 3685     		mv	a0,a3
 2418              	.LVL271:
 2419 00d6 97000000 		call	lwiperf_abort
 2419      E7800000 
 2420              	.LVL272:
 768:C:/Users/stapi/OneDrive/Desktop/GD32VW553/V1_MQTT_OK/GD32VW55X_Wifi_BLE_SDK/GD32VW55x_RELEASE_V1.0.2/MSDK/lwip/lwip-2.1.2/src/apps/lwiperf\lwiperf.c ****       }
 2421              		.loc 1 768 9
 2422 00de 91BF     		j	.L203
 2423              	.LVL273:
 2424              	.L201:
 771:C:/Users/stapi/OneDrive/Desktop/GD32VW553/V1_MQTT_OK/GD32VW55X_Wifi_BLE_SDK/GD32VW55x_RELEASE_V1.0.2/MSDK/lwip/lwip-2.1.2/src/apps/lwiperf\lwiperf.c ****       server->remote_addr = state->conn_pcb->remote_ip;
 2425              		.loc 1 771 7
 771:C:/Users/stapi/OneDrive/Desktop/GD32VW553/V1_MQTT_OK/GD32VW55X_Wifi_BLE_SDK/GD32VW55x_RELEASE_V1.0.2/MSDK/lwip/lwip-2.1.2/src/apps/lwiperf\lwiperf.c ****       server->remote_addr = state->conn_pcb->remote_ip;
 2426              		.loc 1 771 13 is_stmt 0
 2427 00e0 9247     		lw	a5,4(sp)
 771:C:/Users/stapi/OneDrive/Desktop/GD32VW553/V1_MQTT_OK/GD32VW55X_Wifi_BLE_SDK/GD32VW55x_RELEASE_V1.0.2/MSDK/lwip/lwip-2.1.2/src/apps/lwiperf\lwiperf.c ****       server->remote_addr = state->conn_pcb->remote_ip;
 2428              		.loc 1 771 31
 2429 00e2 0547     		li	a4,1
 2430 00e4 A380E704 		sb	a4,65(a5)
 772:C:/Users/stapi/OneDrive/Desktop/GD32VW553/V1_MQTT_OK/GD32VW55X_Wifi_BLE_SDK/GD32VW55x_RELEASE_V1.0.2/MSDK/lwip/lwip-2.1.2/src/apps/lwiperf\lwiperf.c ****       if (type == LWIPERF_TRADEOFF) {
 2431              		.loc 1 772 7 is_stmt 1
 772:C:/Users/stapi/OneDrive/Desktop/GD32VW553/V1_MQTT_OK/GD32VW55X_Wifi_BLE_SDK/GD32VW55x_RELEASE_V1.0.2/MSDK/lwip/lwip-2.1.2/src/apps/lwiperf\lwiperf.c ****       if (type == LWIPERF_TRADEOFF) {
 2432              		.loc 1 772 27 is_stmt 0
 2433 00e8 944A     		lw	a3,16(a3)
 2434 00ea D442     		lw	a3,4(a3)
 2435 00ec F4C3     		sw	a3,68(a5)
 773:C:/Users/stapi/OneDrive/Desktop/GD32VW553/V1_MQTT_OK/GD32VW55X_Wifi_BLE_SDK/GD32VW55x_RELEASE_V1.0.2/MSDK/lwip/lwip-2.1.2/src/apps/lwiperf\lwiperf.c ****         /* tradeoff means that the remote host connects only after the client is done,
 2436              		.loc 1 773 7 is_stmt 1
 773:C:/Users/stapi/OneDrive/Desktop/GD32VW553/V1_MQTT_OK/GD32VW55X_Wifi_BLE_SDK/GD32VW55x_RELEASE_V1.0.2/MSDK/lwip/lwip-2.1.2/src/apps/lwiperf\lwiperf.c ****         /* tradeoff means that the remote host connects only after the client is done,
 2437              		.loc 1 773 10 is_stmt 0
 2438 00ee 8946     		li	a3,2
 2439 00f0 6314D400 		bne	s0,a3,.L200
 776:C:/Users/stapi/OneDrive/Desktop/GD32VW553/V1_MQTT_OK/GD32VW55X_Wifi_BLE_SDK/GD32VW55x_RELEASE_V1.0.2/MSDK/lwip/lwip-2.1.2/src/apps/lwiperf\lwiperf.c ****       }
 2440              		.loc 1 776 9 is_stmt 1
 776:C:/Users/stapi/OneDrive/Desktop/GD32VW553/V1_MQTT_OK/GD32VW55X_Wifi_BLE_SDK/GD32VW55x_RELEASE_V1.0.2/MSDK/lwip/lwip-2.1.2/src/apps/lwiperf\lwiperf.c ****       }
 2441              		.loc 1 776 38 is_stmt 0
 2442 00f4 2381E702 		sb	a4,34(a5)
 2443              	.L200:
 2444              	.LBE89:
 779:C:/Users/stapi/OneDrive/Desktop/GD32VW553/V1_MQTT_OK/GD32VW55X_Wifi_BLE_SDK/GD32VW55x_RELEASE_V1.0.2/MSDK/lwip/lwip-2.1.2/src/apps/lwiperf\lwiperf.c ****   }
 2445              		.loc 1 779 5 is_stmt 1
 779:C:/Users/stapi/OneDrive/Desktop/GD32VW553/V1_MQTT_OK/GD32VW55X_Wifi_BLE_SDK/GD32VW55x_RELEASE_V1.0.2/MSDK/lwip/lwip-2.1.2/src/apps/lwiperf\lwiperf.c ****   }
 2446              		.loc 1 779 12 is_stmt 0
 2447 00f8 0245     		lw	a0,0(sp)
 2448              	.LVL274:
 2449              	.L193:
 782:C:/Users/stapi/OneDrive/Desktop/GD32VW553/V1_MQTT_OK/GD32VW55X_Wifi_BLE_SDK/GD32VW55x_RELEASE_V1.0.2/MSDK/lwip/lwip-2.1.2/src/apps/lwiperf\lwiperf.c **** 
 2450              		.loc 1 782 1
 2451 00fa 0561     		addi	sp,sp,32
 2452              		.cfi_def_cfa_offset 0
 2453 00fc 17030000 		tail	__riscv_restore_6
 2453      67000300 
 2454              		.cfi_restore 21
 2455              		.cfi_restore 20
 2456              		.cfi_restore 19
 2457              		.cfi_restore 18
 2458              		.cfi_restore 9
 2459              		.cfi_restore 8
 2460              		.cfi_restore 1
 2461              		.cfi_def_cfa_offset -32
 2462              		.cfi_endproc
 2463              	.LFE22:
 2465              		.section	.text.lwiperf_start_tcp_client_default,"ax",@progbits
 2466              		.align	1
 2467              		.globl	lwiperf_start_tcp_client_default
 2469              	lwiperf_start_tcp_client_default:
 2470              	.LFB21:
 715:C:/Users/stapi/OneDrive/Desktop/GD32VW553/V1_MQTT_OK/GD32VW55X_Wifi_BLE_SDK/GD32VW55x_RELEASE_V1.0.2/MSDK/lwip/lwip-2.1.2/src/apps/lwiperf\lwiperf.c ****   return lwiperf_start_tcp_client(remote_addr, LWIPERF_TCP_PORT_DEFAULT, LWIPERF_CLIENT,
 2471              		.loc 1 715 1 is_stmt 1
 2472              		.cfi_startproc
 2473              	.LVL275:
 716:C:/Users/stapi/OneDrive/Desktop/GD32VW553/V1_MQTT_OK/GD32VW55X_Wifi_BLE_SDK/GD32VW55x_RELEASE_V1.0.2/MSDK/lwip/lwip-2.1.2/src/apps/lwiperf\lwiperf.c ****                                   report_fn, report_arg);
 2474              		.loc 1 716 3
 715:C:/Users/stapi/OneDrive/Desktop/GD32VW553/V1_MQTT_OK/GD32VW55X_Wifi_BLE_SDK/GD32VW55x_RELEASE_V1.0.2/MSDK/lwip/lwip-2.1.2/src/apps/lwiperf\lwiperf.c ****   return lwiperf_start_tcp_client(remote_addr, LWIPERF_TCP_PORT_DEFAULT, LWIPERF_CLIENT,
 2475              		.loc 1 715 1 is_stmt 0
 2476 0000 AE86     		mv	a3,a1
 716:C:/Users/stapi/OneDrive/Desktop/GD32VW553/V1_MQTT_OK/GD32VW55X_Wifi_BLE_SDK/GD32VW55x_RELEASE_V1.0.2/MSDK/lwip/lwip-2.1.2/src/apps/lwiperf\lwiperf.c ****                                   report_fn, report_arg);
 2477              		.loc 1 716 10
 2478 0002 8565     		li	a1,4096
 2479              	.LVL276:
 715:C:/Users/stapi/OneDrive/Desktop/GD32VW553/V1_MQTT_OK/GD32VW55X_Wifi_BLE_SDK/GD32VW55x_RELEASE_V1.0.2/MSDK/lwip/lwip-2.1.2/src/apps/lwiperf\lwiperf.c ****   return lwiperf_start_tcp_client(remote_addr, LWIPERF_TCP_PORT_DEFAULT, LWIPERF_CLIENT,
 2480              		.loc 1 715 1
 2481 0004 3287     		mv	a4,a2
 716:C:/Users/stapi/OneDrive/Desktop/GD32VW553/V1_MQTT_OK/GD32VW55X_Wifi_BLE_SDK/GD32VW55x_RELEASE_V1.0.2/MSDK/lwip/lwip-2.1.2/src/apps/lwiperf\lwiperf.c ****                                   report_fn, report_arg);
 2482              		.loc 1 716 10
 2483 0006 93859538 		addi	a1,a1,905
 2484 000a 0146     		li	a2,0
 2485              	.LVL277:
 2486 000c 17030000 		tail	lwiperf_start_tcp_client
 2486      67000300 
 2487              	.LVL278:
 2488              		.cfi_endproc
 2489              	.LFE21:
 2491              		.section	.bss.lwiperf_txbuf_const,"aw",@nobits
 2492              		.align	2
 2493              		.set	.LANCHOR1,. + 0
 2496              	lwiperf_txbuf_const:
 2497 0000 00000000 		.zero	1600
 2497      00000000 
 2497      00000000 
 2497      00000000 
 2497      00000000 
 2498              		.section	.sbss.lwiperf_all_connections,"aw",@nobits
 2499              		.align	2
 2500              		.set	.LANCHOR0,. + 0
 2503              	lwiperf_all_connections:
 2504 0000 00000000 		.zero	4
 2505              		.text
 2506              	.Letext0:
 2507              		.file 2 "c:\\users\\stapi\\onedrive\\desktop\\gd32vw553\\embeddedbuilder_v1.4.7.26843\\tools\\nucl
 2508              		.file 3 "c:\\users\\stapi\\onedrive\\desktop\\gd32vw553\\embeddedbuilder_v1.4.7.26843\\tools\\nucl
 2509              		.file 4 "c:\\users\\stapi\\onedrive\\desktop\\gd32vw553\\embeddedbuilder_v1.4.7.26843\\tools\\nucl
 2510              		.file 5 "..\\..\\..\\..\\lwip\\lwip-2.1.2\\src\\include/lwip/arch.h"
 2511              		.file 6 "..\\..\\..\\..\\lwip\\lwip-2.1.2\\src\\include/lwip/ip4_addr.h"
 2512              		.file 7 "..\\..\\..\\..\\lwip\\lwip-2.1.2\\src\\include/lwip/ip_addr.h"
 2513              		.file 8 "..\\..\\..\\..\\lwip\\lwip-2.1.2\\src\\include/lwip/apps/lwiperf.h"
 2514              		.file 9 "..\\..\\..\\..\\lwip\\lwip-2.1.2\\src\\include/lwip/tcpbase.h"
 2515              		.file 10 "..\\..\\..\\..\\lwip\\lwip-2.1.2\\src\\include/lwip/err.h"
 2516              		.file 11 "..\\..\\..\\..\\lwip\\lwip-2.1.2\\src\\include/lwip/pbuf.h"
 2517              		.file 12 "..\\..\\..\\..\\lwip\\lwip-2.1.2\\src\\include/lwip/memp.h"
 2518              		.file 13 "..\\..\\..\\..\\lwip\\lwip-2.1.2\\src\\include/lwip/netif.h"
 2519              		.file 14 "..\\..\\..\\..\\lwip\\lwip-2.1.2\\src\\include/lwip/tcp.h"
 2520              		.file 15 "..\\..\\..\\..\\lwip\\lwip-2.1.2\\src\\include/lwip/mem.h"
 2521              		.file 16 "..\\..\\..\\..\\lwip\\lwip-2.1.2\\src\\include/lwip/def.h"
 2522              		.file 17 "c:\\users\\stapi\\onedrive\\desktop\\gd32vw553\\embeddedbuilder_v1.4.7.26843\\tools\\nuc
 2523              		.file 18 "..\\..\\..\\..\\lwip\\lwip-2.1.2\\src\\include/lwip/sys.h"
 2524              		.file 19 "<built-in>"
DEFINED SYMBOLS
                            *ABS*:0000000000000000 lwiperf.c
C:\Users\stapi\AppData\Local\Temp\ccDKHoe4.s:25     .text.lwiperf_tcp_close:0000000000000000 lwiperf_tcp_close
C:\Users\stapi\AppData\Local\Temp\ccDKHoe4.s:29     .text.lwiperf_tcp_close:0000000000000000 .L0 
C:\Users\stapi\AppData\Local\Temp\ccDKHoe4.s:31     .text.lwiperf_tcp_close:0000000000000000 .L0 
C:\Users\stapi\AppData\Local\Temp\ccDKHoe4.s:32     .text.lwiperf_tcp_close:0000000000000008 .L0 
C:\Users\stapi\AppData\Local\Temp\ccDKHoe4.s:33     .text.lwiperf_tcp_close:0000000000000008 .L0 
C:\Users\stapi\AppData\Local\Temp\ccDKHoe4.s:34     .text.lwiperf_tcp_close:0000000000000008 .L0 
C:\Users\stapi\AppData\Local\Temp\ccDKHoe4.s:36     .text.lwiperf_tcp_close:0000000000000008 .L0 
C:\Users\stapi\AppData\Local\Temp\ccDKHoe4.s:39     .text.lwiperf_tcp_close:0000000000000008 .L0 
C:\Users\stapi\AppData\Local\Temp\ccDKHoe4.s:40     .text.lwiperf_tcp_close:0000000000000008 .L0 
C:\Users\stapi\AppData\Local\Temp\ccDKHoe4.s:45     .text.lwiperf_tcp_close:0000000000000010 .L0 
C:\Users\stapi\AppData\Local\Temp\ccDKHoe4.s:46     .text.lwiperf_tcp_close:0000000000000012 .L0 
C:\Users\stapi\AppData\Local\Temp\ccDKHoe4.s:48     .text.lwiperf_tcp_close:0000000000000012 .L0 
C:\Users\stapi\AppData\Local\Temp\ccDKHoe4.s:53     .text.lwiperf_tcp_close:0000000000000014 .L0 
C:\Users\stapi\AppData\Local\Temp\ccDKHoe4.s:54     .text.lwiperf_tcp_close:0000000000000014 .L0 
C:\Users\stapi\AppData\Local\Temp\ccDKHoe4.s:55     .text.lwiperf_tcp_close:0000000000000014 .L0 
C:\Users\stapi\AppData\Local\Temp\ccDKHoe4.s:56     .text.lwiperf_tcp_close:0000000000000014 .L0 
C:\Users\stapi\AppData\Local\Temp\ccDKHoe4.s:61     .text.lwiperf_tcp_close:000000000000001a .L0 
C:\Users\stapi\AppData\Local\Temp\ccDKHoe4.s:62     .text.lwiperf_tcp_close:000000000000001a .L0 
C:\Users\stapi\AppData\Local\Temp\ccDKHoe4.s:64     .text.lwiperf_tcp_close:000000000000001c .L0 
C:\Users\stapi\AppData\Local\Temp\ccDKHoe4.s:65     .text.lwiperf_tcp_close:000000000000001c .L0 
C:\Users\stapi\AppData\Local\Temp\ccDKHoe4.s:67     .text.lwiperf_tcp_close:000000000000001e .L0 
C:\Users\stapi\AppData\Local\Temp\ccDKHoe4.s:69     .text.lwiperf_tcp_close:0000000000000022 .L0 
C:\Users\stapi\AppData\Local\Temp\ccDKHoe4.s:70     .text.lwiperf_tcp_close:0000000000000022 .L0 
C:\Users\stapi\AppData\Local\Temp\ccDKHoe4.s:72     .text.lwiperf_tcp_close:0000000000000024 .L0 
C:\Users\stapi\AppData\Local\Temp\ccDKHoe4.s:73     .text.lwiperf_tcp_close:0000000000000024 .L0 
C:\Users\stapi\AppData\Local\Temp\ccDKHoe4.s:76     .text.lwiperf_tcp_close:0000000000000026 .L0 
C:\Users\stapi\AppData\Local\Temp\ccDKHoe4.s:77     .text.lwiperf_tcp_close:0000000000000026 .L0 
C:\Users\stapi\AppData\Local\Temp\ccDKHoe4.s:78     .text.lwiperf_tcp_close:0000000000000026 .L0 
C:\Users\stapi\AppData\Local\Temp\ccDKHoe4.s:79     .text.lwiperf_tcp_close:0000000000000026 .L0 
C:\Users\stapi\AppData\Local\Temp\ccDKHoe4.s:82     .text.lwiperf_tcp_close:0000000000000028 .L0 
C:\Users\stapi\AppData\Local\Temp\ccDKHoe4.s:83     .text.lwiperf_tcp_close:0000000000000028 .L0 
C:\Users\stapi\AppData\Local\Temp\ccDKHoe4.s:91     .text.lwiperf_tcp_close:000000000000002a .L0 
C:\Users\stapi\AppData\Local\Temp\ccDKHoe4.s:92     .text.lwiperf_tcp_close:000000000000002a .L0 
C:\Users\stapi\AppData\Local\Temp\ccDKHoe4.s:93     .text.lwiperf_tcp_close:000000000000002a .L0 
C:\Users\stapi\AppData\Local\Temp\ccDKHoe4.s:99     .text.lwiperf_tcp_close:000000000000002c .L0 
C:\Users\stapi\AppData\Local\Temp\ccDKHoe4.s:100    .text.lwiperf_tcp_close:000000000000002c .L0 
C:\Users\stapi\AppData\Local\Temp\ccDKHoe4.s:102    .text.lwiperf_tcp_close:000000000000002e .L0 
C:\Users\stapi\AppData\Local\Temp\ccDKHoe4.s:104    .text.lwiperf_tcp_close:0000000000000030 .L0 
C:\Users\stapi\AppData\Local\Temp\ccDKHoe4.s:108    .text.lwiperf_tcp_close:000000000000003a .L0 
C:\Users\stapi\AppData\Local\Temp\ccDKHoe4.s:114    .text.lwiperf_tcp_close:0000000000000048 .L0 
C:\Users\stapi\AppData\Local\Temp\ccDKHoe4.s:119    .text.lwiperf_tcp_close:0000000000000054 .L0 
C:\Users\stapi\AppData\Local\Temp\ccDKHoe4.s:124    .text.lwiperf_tcp_close:0000000000000060 .L0 
C:\Users\stapi\AppData\Local\Temp\ccDKHoe4.s:129    .text.lwiperf_tcp_close:000000000000006c .L0 
C:\Users\stapi\AppData\Local\Temp\ccDKHoe4.s:130    .text.lwiperf_tcp_close:000000000000006c .L0 
C:\Users\stapi\AppData\Local\Temp\ccDKHoe4.s:134    .text.lwiperf_tcp_close:0000000000000076 .L0 
C:\Users\stapi\AppData\Local\Temp\ccDKHoe4.s:135    .text.lwiperf_tcp_close:0000000000000076 .L0 
C:\Users\stapi\AppData\Local\Temp\ccDKHoe4.s:137    .text.lwiperf_tcp_close:0000000000000078 .L0 
C:\Users\stapi\AppData\Local\Temp\ccDKHoe4.s:143    .text.lwiperf_tcp_close:0000000000000082 .L0 
C:\Users\stapi\AppData\Local\Temp\ccDKHoe4.s:144    .text.lwiperf_tcp_close:0000000000000082 .L0 
C:\Users\stapi\AppData\Local\Temp\ccDKHoe4.s:145    .text.lwiperf_tcp_close:0000000000000082 .L0 
C:\Users\stapi\AppData\Local\Temp\ccDKHoe4.s:149    .text.lwiperf_tcp_close:000000000000008c .L0 
C:\Users\stapi\AppData\Local\Temp\ccDKHoe4.s:150    .text.lwiperf_tcp_close:000000000000008e .L0 
C:\Users\stapi\AppData\Local\Temp\ccDKHoe4.s:151    .text.lwiperf_tcp_close:000000000000008e .L0 
C:\Users\stapi\AppData\Local\Temp\ccDKHoe4.s:153    .text.lwiperf_tcp_close:0000000000000096 .L0 
C:\Users\stapi\AppData\Local\Temp\ccDKHoe4.s:154    .text.lwiperf_tcp_close:0000000000000096 .L0 
C:\Users\stapi\AppData\Local\Temp\ccDKHoe4.s:155    .text.lwiperf_tcp_close:0000000000000096 .L0 
C:\Users\stapi\AppData\Local\Temp\ccDKHoe4.s:158    .text.lwiperf_tcp_close:0000000000000096 .L0 
C:\Users\stapi\AppData\Local\Temp\ccDKHoe4.s:162    .text.lwiperf_tcp_close:0000000000000096 .L0 
C:\Users\stapi\AppData\Local\Temp\ccDKHoe4.s:163    .text.lwiperf_tcp_close:0000000000000096 .L0 
C:\Users\stapi\AppData\Local\Temp\ccDKHoe4.s:165    .text.lwiperf_tcp_close:0000000000000098 .L0 
C:\Users\stapi\AppData\Local\Temp\ccDKHoe4.s:168    .text.lwiperf_tcp_close:000000000000009a .L0 
C:\Users\stapi\AppData\Local\Temp\ccDKHoe4.s:169    .text.lwiperf_tcp_close:000000000000009a .L0 
C:\Users\stapi\AppData\Local\Temp\ccDKHoe4.s:171    .text.lwiperf_tcp_close:000000000000009e .L0 
C:\Users\stapi\AppData\Local\Temp\ccDKHoe4.s:172    .text.lwiperf_tcp_close:000000000000009e .L0 
C:\Users\stapi\AppData\Local\Temp\ccDKHoe4.s:185    .text.lwiperf_tcp_close:00000000000000c2 .L0 
C:\Users\stapi\AppData\Local\Temp\ccDKHoe4.s:186    .text.lwiperf_tcp_close:00000000000000c2 .L0 
C:\Users\stapi\AppData\Local\Temp\ccDKHoe4.s:187    .text.lwiperf_tcp_close:00000000000000c2 .L0 
C:\Users\stapi\AppData\Local\Temp\ccDKHoe4.s:193    .text.lwiperf_tcp_close:00000000000000c6 .L0 
C:\Users\stapi\AppData\Local\Temp\ccDKHoe4.s:203    .text.lwiperf_tcp_close:00000000000000ca .L0 
C:\Users\stapi\AppData\Local\Temp\ccDKHoe4.s:208    .text.lwiperf_tcp_close:00000000000000d0 .L0 
C:\Users\stapi\AppData\Local\Temp\ccDKHoe4.s:209    .text.lwiperf_tcp_close:00000000000000d0 .L0 
C:\Users\stapi\AppData\Local\Temp\ccDKHoe4.s:210    .text.lwiperf_tcp_close:00000000000000d0 .L0 
C:\Users\stapi\AppData\Local\Temp\ccDKHoe4.s:213    .text.lwiperf_tcp_close:00000000000000d8 .L0 
C:\Users\stapi\AppData\Local\Temp\ccDKHoe4.s:214    .text.lwiperf_tcp_close:00000000000000d8 .L0 
C:\Users\stapi\AppData\Local\Temp\ccDKHoe4.s:217    .text.lwiperf_tcp_close:00000000000000de .L0 
C:\Users\stapi\AppData\Local\Temp\ccDKHoe4.s:219    .text.lwiperf_tcp_close:00000000000000e0 .L0 
C:\Users\stapi\AppData\Local\Temp\ccDKHoe4.s:222    .text.lwiperf_tcp_close:00000000000000e4 .L0 
C:\Users\stapi\AppData\Local\Temp\ccDKHoe4.s:223    .text.lwiperf_tcp_close:00000000000000e4 .L0 
C:\Users\stapi\AppData\Local\Temp\ccDKHoe4.s:225    .text.lwiperf_tcp_close:00000000000000e6 .L0 
C:\Users\stapi\AppData\Local\Temp\ccDKHoe4.s:227    .text.lwiperf_tcp_close:00000000000000ea .L0 
C:\Users\stapi\AppData\Local\Temp\ccDKHoe4.s:228    .text.lwiperf_tcp_close:00000000000000ea .L0 
C:\Users\stapi\AppData\Local\Temp\ccDKHoe4.s:230    .text.lwiperf_tcp_close:00000000000000ee .L0 
C:\Users\stapi\AppData\Local\Temp\ccDKHoe4.s:234    .text.lwiperf_tcp_close:00000000000000f0 .L0 
C:\Users\stapi\AppData\Local\Temp\ccDKHoe4.s:235    .text.lwiperf_tcp_close:00000000000000f0 .L0 
C:\Users\stapi\AppData\Local\Temp\ccDKHoe4.s:237    .text.lwiperf_tcp_close:00000000000000f2 .L0 
C:\Users\stapi\AppData\Local\Temp\ccDKHoe4.s:254    .text.lwiperf_tcp_close:000000000000010a .L0 
C:\Users\stapi\AppData\Local\Temp\ccDKHoe4.s:255    .text.lwiperf_tcp_close:000000000000010a .L0 
C:\Users\stapi\AppData\Local\Temp\ccDKHoe4.s:259    .text.lwiperf_tcp_close:0000000000000114 .L0 
C:\Users\stapi\AppData\Local\Temp\ccDKHoe4.s:260    .text.lwiperf_tcp_close:0000000000000114 .L0 
C:\Users\stapi\AppData\Local\Temp\ccDKHoe4.s:262    .text.lwiperf_tcp_close:0000000000000116 .L0 
C:\Users\stapi\AppData\Local\Temp\ccDKHoe4.s:263    .text.lwiperf_tcp_close:0000000000000116 .L0 
C:\Users\stapi\AppData\Local\Temp\ccDKHoe4.s:275    .text.lwiperf_tcp_close:000000000000013a .L0 
C:\Users\stapi\AppData\Local\Temp\ccDKHoe4.s:276    .text.lwiperf_tcp_close:000000000000013a .L0 
C:\Users\stapi\AppData\Local\Temp\ccDKHoe4.s:277    .text.lwiperf_tcp_close:000000000000013a .L0 
C:\Users\stapi\AppData\Local\Temp\ccDKHoe4.s:278    .text.lwiperf_tcp_close:000000000000013c .L0 
C:\Users\stapi\AppData\Local\Temp\ccDKHoe4.s:284    .text.lwiperf_tcp_err:0000000000000000 lwiperf_tcp_err
C:\Users\stapi\AppData\Local\Temp\ccDKHoe4.s:287    .text.lwiperf_tcp_err:0000000000000000 .L0 
C:\Users\stapi\AppData\Local\Temp\ccDKHoe4.s:289    .text.lwiperf_tcp_err:0000000000000000 .L0 
C:\Users\stapi\AppData\Local\Temp\ccDKHoe4.s:290    .text.lwiperf_tcp_err:0000000000000000 .L0 
C:\Users\stapi\AppData\Local\Temp\ccDKHoe4.s:291    .text.lwiperf_tcp_err:0000000000000000 .L0 
C:\Users\stapi\AppData\Local\Temp\ccDKHoe4.s:292    .text.lwiperf_tcp_err:0000000000000000 .L0 
C:\Users\stapi\AppData\Local\Temp\ccDKHoe4.s:296    .text.lwiperf_tcp_err:000000000000000a .L0 
C:\Users\stapi\AppData\Local\Temp\ccDKHoe4.s:318    .text.lwiperf_tcp_accept:0000000000000000 lwiperf_tcp_accept
C:\Users\stapi\AppData\Local\Temp\ccDKHoe4.s:321    .text.lwiperf_tcp_accept:0000000000000000 .L0 
C:\Users\stapi\AppData\Local\Temp\ccDKHoe4.s:323    .text.lwiperf_tcp_accept:0000000000000000 .L0 
C:\Users\stapi\AppData\Local\Temp\ccDKHoe4.s:324    .text.lwiperf_tcp_accept:0000000000000008 .L0 
C:\Users\stapi\AppData\Local\Temp\ccDKHoe4.s:325    .text.lwiperf_tcp_accept:0000000000000008 .L0 
C:\Users\stapi\AppData\Local\Temp\ccDKHoe4.s:326    .text.lwiperf_tcp_accept:0000000000000008 .L0 
C:\Users\stapi\AppData\Local\Temp\ccDKHoe4.s:327    .text.lwiperf_tcp_accept:0000000000000008 .L0 
C:\Users\stapi\AppData\Local\Temp\ccDKHoe4.s:328    .text.lwiperf_tcp_accept:0000000000000008 .L0 
C:\Users\stapi\AppData\Local\Temp\ccDKHoe4.s:329    .text.lwiperf_tcp_accept:0000000000000008 .L0 
C:\Users\stapi\AppData\Local\Temp\ccDKHoe4.s:331    .text.lwiperf_tcp_accept:0000000000000008 .L0 
C:\Users\stapi\AppData\Local\Temp\ccDKHoe4.s:332    .text.lwiperf_tcp_accept:0000000000000008 .L0 
C:\Users\stapi\AppData\Local\Temp\ccDKHoe4.s:333    .text.lwiperf_tcp_accept:0000000000000008 .L0 
C:\Users\stapi\AppData\Local\Temp\ccDKHoe4.s:336    .text.lwiperf_tcp_accept:000000000000000c .L0 
C:\Users\stapi\AppData\Local\Temp\ccDKHoe4.s:339    .text.lwiperf_tcp_accept:0000000000000010 .L0 
C:\Users\stapi\AppData\Local\Temp\ccDKHoe4.s:342    .text.lwiperf_tcp_accept:0000000000000012 .L0 
C:\Users\stapi\AppData\Local\Temp\ccDKHoe4.s:343    .text.lwiperf_tcp_accept:0000000000000012 .L0 
C:\Users\stapi\AppData\Local\Temp\ccDKHoe4.s:344    .text.lwiperf_tcp_accept:0000000000000012 .L0 
C:\Users\stapi\AppData\Local\Temp\ccDKHoe4.s:347    .text.lwiperf_tcp_accept:0000000000000018 .L0 
C:\Users\stapi\AppData\Local\Temp\ccDKHoe4.s:348    .text.lwiperf_tcp_accept:0000000000000018 .L0 
C:\Users\stapi\AppData\Local\Temp\ccDKHoe4.s:362    .text.lwiperf_tcp_accept:000000000000003c .L0 
C:\Users\stapi\AppData\Local\Temp\ccDKHoe4.s:363    .text.lwiperf_tcp_accept:000000000000003c .L0 
C:\Users\stapi\AppData\Local\Temp\ccDKHoe4.s:364    .text.lwiperf_tcp_accept:000000000000003c .L0 
C:\Users\stapi\AppData\Local\Temp\ccDKHoe4.s:370    .text.lwiperf_tcp_accept:000000000000003e .L0 
C:\Users\stapi\AppData\Local\Temp\ccDKHoe4.s:371    .text.lwiperf_tcp_accept:000000000000003e .L0 
C:\Users\stapi\AppData\Local\Temp\ccDKHoe4.s:372    .text.lwiperf_tcp_accept:000000000000003e .L0 
C:\Users\stapi\AppData\Local\Temp\ccDKHoe4.s:373    .text.lwiperf_tcp_accept:000000000000003e .L0 
C:\Users\stapi\AppData\Local\Temp\ccDKHoe4.s:376    .text.lwiperf_tcp_accept:0000000000000042 .L0 
C:\Users\stapi\AppData\Local\Temp\ccDKHoe4.s:377    .text.lwiperf_tcp_accept:0000000000000042 .L0 
C:\Users\stapi\AppData\Local\Temp\ccDKHoe4.s:390    .text.lwiperf_tcp_accept:0000000000000066 .L0 
C:\Users\stapi\AppData\Local\Temp\ccDKHoe4.s:391    .text.lwiperf_tcp_accept:0000000000000066 .L0 
C:\Users\stapi\AppData\Local\Temp\ccDKHoe4.s:392    .text.lwiperf_tcp_accept:0000000000000066 .L0 
C:\Users\stapi\AppData\Local\Temp\ccDKHoe4.s:396    .text.lwiperf_tcp_accept:0000000000000068 .L0 
C:\Users\stapi\AppData\Local\Temp\ccDKHoe4.s:397    .text.lwiperf_tcp_accept:0000000000000068 .L0 
C:\Users\stapi\AppData\Local\Temp\ccDKHoe4.s:398    .text.lwiperf_tcp_accept:0000000000000068 .L0 
C:\Users\stapi\AppData\Local\Temp\ccDKHoe4.s:399    .text.lwiperf_tcp_accept:0000000000000068 .L0 
C:\Users\stapi\AppData\Local\Temp\ccDKHoe4.s:402    .text.lwiperf_tcp_accept:000000000000006c .L0 
C:\Users\stapi\AppData\Local\Temp\ccDKHoe4.s:403    .text.lwiperf_tcp_accept:000000000000006c .L0 
C:\Users\stapi\AppData\Local\Temp\ccDKHoe4.s:416    .text.lwiperf_tcp_accept:0000000000000090 .L0 
C:\Users\stapi\AppData\Local\Temp\ccDKHoe4.s:417    .text.lwiperf_tcp_accept:0000000000000090 .L0 
C:\Users\stapi\AppData\Local\Temp\ccDKHoe4.s:418    .text.lwiperf_tcp_accept:0000000000000090 .L0 
C:\Users\stapi\AppData\Local\Temp\ccDKHoe4.s:422    .text.lwiperf_tcp_accept:0000000000000092 .L0 
C:\Users\stapi\AppData\Local\Temp\ccDKHoe4.s:424    .text.lwiperf_tcp_accept:0000000000000096 .L0 
C:\Users\stapi\AppData\Local\Temp\ccDKHoe4.s:427    .text.lwiperf_tcp_accept:000000000000009a .L0 
C:\Users\stapi\AppData\Local\Temp\ccDKHoe4.s:428    .text.lwiperf_tcp_accept:000000000000009a .L0 
C:\Users\stapi\AppData\Local\Temp\ccDKHoe4.s:429    .text.lwiperf_tcp_accept:000000000000009a .L0 
C:\Users\stapi\AppData\Local\Temp\ccDKHoe4.s:430    .text.lwiperf_tcp_accept:000000000000009a .L0 
C:\Users\stapi\AppData\Local\Temp\ccDKHoe4.s:432    .text.lwiperf_tcp_accept:000000000000009c .L0 
C:\Users\stapi\AppData\Local\Temp\ccDKHoe4.s:433    .text.lwiperf_tcp_accept:000000000000009c .L0 
C:\Users\stapi\AppData\Local\Temp\ccDKHoe4.s:435    .text.lwiperf_tcp_accept:000000000000009e .L0 
C:\Users\stapi\AppData\Local\Temp\ccDKHoe4.s:436    .text.lwiperf_tcp_accept:000000000000009e .L0 
C:\Users\stapi\AppData\Local\Temp\ccDKHoe4.s:449    .text.lwiperf_tcp_accept:00000000000000c2 .L0 
C:\Users\stapi\AppData\Local\Temp\ccDKHoe4.s:450    .text.lwiperf_tcp_accept:00000000000000c2 .L0 
C:\Users\stapi\AppData\Local\Temp\ccDKHoe4.s:451    .text.lwiperf_tcp_accept:00000000000000c2 .L0 
C:\Users\stapi\AppData\Local\Temp\ccDKHoe4.s:455    .text.lwiperf_tcp_accept:00000000000000c4 .L0 
C:\Users\stapi\AppData\Local\Temp\ccDKHoe4.s:456    .text.lwiperf_tcp_accept:00000000000000c4 .L0 
C:\Users\stapi\AppData\Local\Temp\ccDKHoe4.s:457    .text.lwiperf_tcp_accept:00000000000000c4 .L0 
C:\Users\stapi\AppData\Local\Temp\ccDKHoe4.s:458    .text.lwiperf_tcp_accept:00000000000000c4 .L0 
C:\Users\stapi\AppData\Local\Temp\ccDKHoe4.s:466    .text.lwiperf_tcp_accept:00000000000000cc .L0 
C:\Users\stapi\AppData\Local\Temp\ccDKHoe4.s:473    .text.lwiperf_tcp_accept:00000000000000d0 .L0 
C:\Users\stapi\AppData\Local\Temp\ccDKHoe4.s:474    .text.lwiperf_tcp_accept:00000000000000d0 .L0 
C:\Users\stapi\AppData\Local\Temp\ccDKHoe4.s:476    .text.lwiperf_tcp_accept:00000000000000d2 .L0 
C:\Users\stapi\AppData\Local\Temp\ccDKHoe4.s:477    .text.lwiperf_tcp_accept:00000000000000d2 .L0 
C:\Users\stapi\AppData\Local\Temp\ccDKHoe4.s:490    .text.lwiperf_tcp_accept:00000000000000f6 .L0 
C:\Users\stapi\AppData\Local\Temp\ccDKHoe4.s:491    .text.lwiperf_tcp_accept:00000000000000f6 .L0 
C:\Users\stapi\AppData\Local\Temp\ccDKHoe4.s:492    .text.lwiperf_tcp_accept:00000000000000f6 .L0 
C:\Users\stapi\AppData\Local\Temp\ccDKHoe4.s:496    .text.lwiperf_tcp_accept:00000000000000f8 .L0 
C:\Users\stapi\AppData\Local\Temp\ccDKHoe4.s:497    .text.lwiperf_tcp_accept:00000000000000f8 .L0 
C:\Users\stapi\AppData\Local\Temp\ccDKHoe4.s:498    .text.lwiperf_tcp_accept:00000000000000f8 .L0 
C:\Users\stapi\AppData\Local\Temp\ccDKHoe4.s:499    .text.lwiperf_tcp_accept:00000000000000f8 .L0 
C:\Users\stapi\AppData\Local\Temp\ccDKHoe4.s:505    .text.lwiperf_tcp_accept:0000000000000106 .L0 
C:\Users\stapi\AppData\Local\Temp\ccDKHoe4.s:506    .text.lwiperf_tcp_accept:0000000000000106 .L0 
C:\Users\stapi\AppData\Local\Temp\ccDKHoe4.s:508    .text.lwiperf_tcp_accept:0000000000000108 .L0 
C:\Users\stapi\AppData\Local\Temp\ccDKHoe4.s:513    .text.lwiperf_tcp_accept:0000000000000116 .L0 
C:\Users\stapi\AppData\Local\Temp\ccDKHoe4.s:514    .text.lwiperf_tcp_accept:0000000000000116 .L0 
C:\Users\stapi\AppData\Local\Temp\ccDKHoe4.s:515    .text.lwiperf_tcp_accept:0000000000000116 .L0 
C:\Users\stapi\AppData\Local\Temp\ccDKHoe4.s:518    .text.lwiperf_tcp_accept:000000000000011e .L0 
C:\Users\stapi\AppData\Local\Temp\ccDKHoe4.s:519    .text.lwiperf_tcp_accept:000000000000011e .L0 
C:\Users\stapi\AppData\Local\Temp\ccDKHoe4.s:521    .text.lwiperf_tcp_accept:0000000000000122 .L0 
C:\Users\stapi\AppData\Local\Temp\ccDKHoe4.s:523    .text.lwiperf_tcp_accept:0000000000000124 .L0 
C:\Users\stapi\AppData\Local\Temp\ccDKHoe4.s:524    .text.lwiperf_tcp_accept:0000000000000124 .L0 
C:\Users\stapi\AppData\Local\Temp\ccDKHoe4.s:525    .text.lwiperf_tcp_accept:0000000000000124 .L0 
C:\Users\stapi\AppData\Local\Temp\ccDKHoe4.s:528    .text.lwiperf_tcp_accept:000000000000012c .L0 
C:\Users\stapi\AppData\Local\Temp\ccDKHoe4.s:530    .text.lwiperf_tcp_accept:000000000000012e .L0 
C:\Users\stapi\AppData\Local\Temp\ccDKHoe4.s:532    .text.lwiperf_tcp_accept:0000000000000130 .L0 
C:\Users\stapi\AppData\Local\Temp\ccDKHoe4.s:533    .text.lwiperf_tcp_accept:0000000000000130 .L0 
C:\Users\stapi\AppData\Local\Temp\ccDKHoe4.s:535    .text.lwiperf_tcp_accept:0000000000000132 .L0 
C:\Users\stapi\AppData\Local\Temp\ccDKHoe4.s:537    .text.lwiperf_tcp_accept:0000000000000134 .L0 
C:\Users\stapi\AppData\Local\Temp\ccDKHoe4.s:538    .text.lwiperf_tcp_accept:0000000000000134 .L0 
C:\Users\stapi\AppData\Local\Temp\ccDKHoe4.s:540    .text.lwiperf_tcp_accept:0000000000000136 .L0 
C:\Users\stapi\AppData\Local\Temp\ccDKHoe4.s:542    .text.lwiperf_tcp_accept:0000000000000138 .L0 
C:\Users\stapi\AppData\Local\Temp\ccDKHoe4.s:544    .text.lwiperf_tcp_accept:000000000000013a .L0 
C:\Users\stapi\AppData\Local\Temp\ccDKHoe4.s:1758   .text.lwiperf_tcp_recv:0000000000000000 lwiperf_tcp_recv
C:\Users\stapi\AppData\Local\Temp\ccDKHoe4.s:547    .text.lwiperf_tcp_accept:0000000000000142 .L0 
C:\Users\stapi\AppData\Local\Temp\ccDKHoe4.s:1018   .text.lwiperf_tcp_poll:0000000000000000 lwiperf_tcp_poll
C:\Users\stapi\AppData\Local\Temp\ccDKHoe4.s:553    .text.lwiperf_tcp_accept:0000000000000154 .L0 
C:\Users\stapi\AppData\Local\Temp\ccDKHoe4.s:560    .text.lwiperf_tcp_accept:0000000000000168 .L0 
C:\Users\stapi\AppData\Local\Temp\ccDKHoe4.s:566    .text.lwiperf_tcp_accept:000000000000017a .L0 
C:\Users\stapi\AppData\Local\Temp\ccDKHoe4.s:567    .text.lwiperf_tcp_accept:000000000000017a .L0 
C:\Users\stapi\AppData\Local\Temp\ccDKHoe4.s:573    .text.lwiperf_tcp_accept:0000000000000188 .L0 
C:\Users\stapi\AppData\Local\Temp\ccDKHoe4.s:574    .text.lwiperf_tcp_accept:0000000000000188 .L0 
C:\Users\stapi\AppData\Local\Temp\ccDKHoe4.s:576    .text.lwiperf_tcp_accept:000000000000018a .L0 
C:\Users\stapi\AppData\Local\Temp\ccDKHoe4.s:578    .text.lwiperf_tcp_accept:000000000000018c .L0 
C:\Users\stapi\AppData\Local\Temp\ccDKHoe4.s:579    .text.lwiperf_tcp_accept:000000000000018c .L0 
C:\Users\stapi\AppData\Local\Temp\ccDKHoe4.s:585    .text.lwiperf_tcp_accept:0000000000000192 .L0 
C:\Users\stapi\AppData\Local\Temp\ccDKHoe4.s:586    .text.lwiperf_tcp_accept:0000000000000192 .L0 
C:\Users\stapi\AppData\Local\Temp\ccDKHoe4.s:587    .text.lwiperf_tcp_accept:0000000000000192 .L0 
C:\Users\stapi\AppData\Local\Temp\ccDKHoe4.s:591    .text.lwiperf_tcp_accept:0000000000000196 .L0 
C:\Users\stapi\AppData\Local\Temp\ccDKHoe4.s:592    .text.lwiperf_tcp_accept:0000000000000196 .L0 
C:\Users\stapi\AppData\Local\Temp\ccDKHoe4.s:598    .text.lwiperf_tcp_accept:0000000000000198 .L0 
C:\Users\stapi\AppData\Local\Temp\ccDKHoe4.s:599    .text.lwiperf_tcp_accept:0000000000000198 .L0 
C:\Users\stapi\AppData\Local\Temp\ccDKHoe4.s:601    .text.lwiperf_tcp_accept:000000000000019c .L0 
C:\Users\stapi\AppData\Local\Temp\ccDKHoe4.s:609    .text.lwiperf_tcp_accept:00000000000001a8 .L0 
C:\Users\stapi\AppData\Local\Temp\ccDKHoe4.s:610    .text.lwiperf_tcp_accept:00000000000001a8 .L0 
C:\Users\stapi\AppData\Local\Temp\ccDKHoe4.s:611    .text.lwiperf_tcp_accept:00000000000001a8 .L0 
C:\Users\stapi\AppData\Local\Temp\ccDKHoe4.s:613    .text.lwiperf_tcp_accept:00000000000001ac .L0 
C:\Users\stapi\AppData\Local\Temp\ccDKHoe4.s:615    .text.lwiperf_tcp_accept:00000000000001b0 .L0 
C:\Users\stapi\AppData\Local\Temp\ccDKHoe4.s:623    .text.lwiperf_tcp_accept:00000000000001b2 .L0 
C:\Users\stapi\AppData\Local\Temp\ccDKHoe4.s:624    .text.lwiperf_tcp_accept:00000000000001b2 .L0 
C:\Users\stapi\AppData\Local\Temp\ccDKHoe4.s:626    .text.lwiperf_tcp_accept:00000000000001bc .L0 
C:\Users\stapi\AppData\Local\Temp\ccDKHoe4.s:627    .text.lwiperf_tcp_accept:00000000000001bc .L0 
C:\Users\stapi\AppData\Local\Temp\ccDKHoe4.s:628    .text.lwiperf_tcp_accept:00000000000001bc .L0 
C:\Users\stapi\AppData\Local\Temp\ccDKHoe4.s:629    .text.lwiperf_tcp_accept:00000000000001bc .L0 
C:\Users\stapi\AppData\Local\Temp\ccDKHoe4.s:630    .text.lwiperf_tcp_accept:00000000000001bc .L0 
C:\Users\stapi\AppData\Local\Temp\ccDKHoe4.s:631    .text.lwiperf_tcp_accept:00000000000001bc .L0 
C:\Users\stapi\AppData\Local\Temp\ccDKHoe4.s:632    .text.lwiperf_tcp_accept:00000000000001bc .L0 
C:\Users\stapi\AppData\Local\Temp\ccDKHoe4.s:635    .text.lwiperf_tcp_accept:00000000000001bc .L0 
C:\Users\stapi\AppData\Local\Temp\ccDKHoe4.s:641    .text.lwiperf_tcp_accept:00000000000001bc .L0 
C:\Users\stapi\AppData\Local\Temp\ccDKHoe4.s:642    .text.lwiperf_tcp_accept:00000000000001bc .L0 
C:\Users\stapi\AppData\Local\Temp\ccDKHoe4.s:644    .text.lwiperf_tcp_accept:00000000000001c0 .L0 
C:\Users\stapi\AppData\Local\Temp\ccDKHoe4.s:645    .text.lwiperf_tcp_accept:00000000000001c0 .L0 
C:\Users\stapi\AppData\Local\Temp\ccDKHoe4.s:653    .text.lwiperf_tcp_accept:00000000000001c4 .L0 
C:\Users\stapi\AppData\Local\Temp\ccDKHoe4.s:657    .text.lwiperf_tcp_accept:00000000000001c8 .L0 
C:\Users\stapi\AppData\Local\Temp\ccDKHoe4.s:667    .text.lwiperf_tcp_client_send_more:0000000000000000 lwiperf_tcp_client_send_more
C:\Users\stapi\AppData\Local\Temp\ccDKHoe4.s:670    .text.lwiperf_tcp_client_send_more:0000000000000000 .L0 
C:\Users\stapi\AppData\Local\Temp\ccDKHoe4.s:672    .text.lwiperf_tcp_client_send_more:0000000000000000 .L0 
C:\Users\stapi\AppData\Local\Temp\ccDKHoe4.s:673    .text.lwiperf_tcp_client_send_more:0000000000000008 .L0 
C:\Users\stapi\AppData\Local\Temp\ccDKHoe4.s:674    .text.lwiperf_tcp_client_send_more:0000000000000008 .L0 
C:\Users\stapi\AppData\Local\Temp\ccDKHoe4.s:675    .text.lwiperf_tcp_client_send_more:0000000000000008 .L0 
C:\Users\stapi\AppData\Local\Temp\ccDKHoe4.s:676    .text.lwiperf_tcp_client_send_more:0000000000000008 .L0 
C:\Users\stapi\AppData\Local\Temp\ccDKHoe4.s:677    .text.lwiperf_tcp_client_send_more:0000000000000008 .L0 
C:\Users\stapi\AppData\Local\Temp\ccDKHoe4.s:678    .text.lwiperf_tcp_client_send_more:0000000000000008 .L0 
C:\Users\stapi\AppData\Local\Temp\ccDKHoe4.s:679    .text.lwiperf_tcp_client_send_more:0000000000000008 .L0 
C:\Users\stapi\AppData\Local\Temp\ccDKHoe4.s:680    .text.lwiperf_tcp_client_send_more:0000000000000008 .L0 
C:\Users\stapi\AppData\Local\Temp\ccDKHoe4.s:681    .text.lwiperf_tcp_client_send_more:0000000000000008 .L0 
C:\Users\stapi\AppData\Local\Temp\ccDKHoe4.s:682    .text.lwiperf_tcp_client_send_more:0000000000000008 .L0 
C:\Users\stapi\AppData\Local\Temp\ccDKHoe4.s:683    .text.lwiperf_tcp_client_send_more:0000000000000008 .L0 
C:\Users\stapi\AppData\Local\Temp\ccDKHoe4.s:684    .text.lwiperf_tcp_client_send_more:0000000000000008 .L0 
C:\Users\stapi\AppData\Local\Temp\ccDKHoe4.s:685    .text.lwiperf_tcp_client_send_more:0000000000000008 .L0 
C:\Users\stapi\AppData\Local\Temp\ccDKHoe4.s:686    .text.lwiperf_tcp_client_send_more:0000000000000008 .L0 
C:\Users\stapi\AppData\Local\Temp\ccDKHoe4.s:688    .text.lwiperf_tcp_client_send_more:0000000000000008 .L0 
C:\Users\stapi\AppData\Local\Temp\ccDKHoe4.s:689    .text.lwiperf_tcp_client_send_more:0000000000000008 .L0 
C:\Users\stapi\AppData\Local\Temp\ccDKHoe4.s:690    .text.lwiperf_tcp_client_send_more:0000000000000008 .L0 
C:\Users\stapi\AppData\Local\Temp\ccDKHoe4.s:691    .text.lwiperf_tcp_client_send_more:0000000000000008 .L0 
C:\Users\stapi\AppData\Local\Temp\ccDKHoe4.s:692    .text.lwiperf_tcp_client_send_more:0000000000000008 .L0 
C:\Users\stapi\AppData\Local\Temp\ccDKHoe4.s:693    .text.lwiperf_tcp_client_send_more:0000000000000008 .L0 
C:\Users\stapi\AppData\Local\Temp\ccDKHoe4.s:694    .text.lwiperf_tcp_client_send_more:0000000000000008 .L0 
C:\Users\stapi\AppData\Local\Temp\ccDKHoe4.s:695    .text.lwiperf_tcp_client_send_more:0000000000000008 .L0 
C:\Users\stapi\AppData\Local\Temp\ccDKHoe4.s:697    .text.lwiperf_tcp_client_send_more:000000000000000a .L0 
C:\Users\stapi\AppData\Local\Temp\ccDKHoe4.s:701    .text.lwiperf_tcp_client_send_more:0000000000000012 .L0 
C:\Users\stapi\AppData\Local\Temp\ccDKHoe4.s:706    .text.lwiperf_tcp_client_send_more:0000000000000018 .L0 
C:\Users\stapi\AppData\Local\Temp\ccDKHoe4.s:709    .text.lwiperf_tcp_client_send_more:000000000000001c .L0 
C:\Users\stapi\AppData\Local\Temp\ccDKHoe4.s:712    .text.lwiperf_tcp_client_send_more:000000000000001e .L0 
C:\Users\stapi\AppData\Local\Temp\ccDKHoe4.s:714    .text.lwiperf_tcp_client_send_more:0000000000000020 .L0 
C:\Users\stapi\AppData\Local\Temp\ccDKHoe4.s:716    .text.lwiperf_tcp_client_send_more:0000000000000024 .L0 
C:\Users\stapi\AppData\Local\Temp\ccDKHoe4.s:718    .text.lwiperf_tcp_client_send_more:0000000000000028 .L0 
C:\Users\stapi\AppData\Local\Temp\ccDKHoe4.s:720    .text.lwiperf_tcp_client_send_more:000000000000002c .L0 
C:\Users\stapi\AppData\Local\Temp\ccDKHoe4.s:724    .text.lwiperf_tcp_client_send_more:0000000000000030 .L0 
C:\Users\stapi\AppData\Local\Temp\ccDKHoe4.s:725    .text.lwiperf_tcp_client_send_more:0000000000000030 .L0 
C:\Users\stapi\AppData\Local\Temp\ccDKHoe4.s:726    .text.lwiperf_tcp_client_send_more:0000000000000030 .L0 
C:\Users\stapi\AppData\Local\Temp\ccDKHoe4.s:727    .text.lwiperf_tcp_client_send_more:0000000000000030 .L0 
C:\Users\stapi\AppData\Local\Temp\ccDKHoe4.s:728    .text.lwiperf_tcp_client_send_more:0000000000000030 .L0 
C:\Users\stapi\AppData\Local\Temp\ccDKHoe4.s:729    .text.lwiperf_tcp_client_send_more:0000000000000030 .L0 
C:\Users\stapi\AppData\Local\Temp\ccDKHoe4.s:731    .text.lwiperf_tcp_client_send_more:0000000000000032 .L0 
C:\Users\stapi\AppData\Local\Temp\ccDKHoe4.s:733    .text.lwiperf_tcp_client_send_more:0000000000000036 .L0 
C:\Users\stapi\AppData\Local\Temp\ccDKHoe4.s:736    .text.lwiperf_tcp_client_send_more:0000000000000038 .L0 
C:\Users\stapi\AppData\Local\Temp\ccDKHoe4.s:737    .text.lwiperf_tcp_client_send_more:0000000000000038 .L0 
C:\Users\stapi\AppData\Local\Temp\ccDKHoe4.s:740    .text.lwiperf_tcp_client_send_more:0000000000000040 .L0 
C:\Users\stapi\AppData\Local\Temp\ccDKHoe4.s:741    .text.lwiperf_tcp_client_send_more:0000000000000040 .L0 
C:\Users\stapi\AppData\Local\Temp\ccDKHoe4.s:745    .text.lwiperf_tcp_client_send_more:0000000000000046 .L0 
C:\Users\stapi\AppData\Local\Temp\ccDKHoe4.s:746    .text.lwiperf_tcp_client_send_more:0000000000000046 .L0 
C:\Users\stapi\AppData\Local\Temp\ccDKHoe4.s:751    .text.lwiperf_tcp_client_send_more:0000000000000050 .L0 
C:\Users\stapi\AppData\Local\Temp\ccDKHoe4.s:752    .text.lwiperf_tcp_client_send_more:0000000000000050 .L0 
C:\Users\stapi\AppData\Local\Temp\ccDKHoe4.s:753    .text.lwiperf_tcp_client_send_more:0000000000000050 .L0 
C:\Users\stapi\AppData\Local\Temp\ccDKHoe4.s:756    .text.lwiperf_tcp_client_send_more:0000000000000054 .L0 
C:\Users\stapi\AppData\Local\Temp\ccDKHoe4.s:760    .text.lwiperf_tcp_client_send_more:0000000000000058 .L0 
C:\Users\stapi\AppData\Local\Temp\ccDKHoe4.s:769    .text.lwiperf_tcp_client_send_more:0000000000000064 .L0 
C:\Users\stapi\AppData\Local\Temp\ccDKHoe4.s:770    .text.lwiperf_tcp_client_send_more:0000000000000064 .L0 
C:\Users\stapi\AppData\Local\Temp\ccDKHoe4.s:772    .text.lwiperf_tcp_client_send_more:000000000000006e .L0 
C:\Users\stapi\AppData\Local\Temp\ccDKHoe4.s:773    .text.lwiperf_tcp_client_send_more:000000000000006e .L0 
C:\Users\stapi\AppData\Local\Temp\ccDKHoe4.s:774    .text.lwiperf_tcp_client_send_more:000000000000006e .L0 
C:\Users\stapi\AppData\Local\Temp\ccDKHoe4.s:775    .text.lwiperf_tcp_client_send_more:000000000000006e .L0 
C:\Users\stapi\AppData\Local\Temp\ccDKHoe4.s:776    .text.lwiperf_tcp_client_send_more:000000000000006e .L0 
C:\Users\stapi\AppData\Local\Temp\ccDKHoe4.s:777    .text.lwiperf_tcp_client_send_more:000000000000006e .L0 
C:\Users\stapi\AppData\Local\Temp\ccDKHoe4.s:778    .text.lwiperf_tcp_client_send_more:000000000000006e .L0 
C:\Users\stapi\AppData\Local\Temp\ccDKHoe4.s:779    .text.lwiperf_tcp_client_send_more:000000000000006e .L0 
C:\Users\stapi\AppData\Local\Temp\ccDKHoe4.s:780    .text.lwiperf_tcp_client_send_more:000000000000006e .L0 
C:\Users\stapi\AppData\Local\Temp\ccDKHoe4.s:781    .text.lwiperf_tcp_client_send_more:000000000000006e .L0 
C:\Users\stapi\AppData\Local\Temp\ccDKHoe4.s:782    .text.lwiperf_tcp_client_send_more:000000000000006e .L0 
C:\Users\stapi\AppData\Local\Temp\ccDKHoe4.s:783    .text.lwiperf_tcp_client_send_more:000000000000006e .L0 
C:\Users\stapi\AppData\Local\Temp\ccDKHoe4.s:784    .text.lwiperf_tcp_client_send_more:000000000000006e .L0 
C:\Users\stapi\AppData\Local\Temp\ccDKHoe4.s:785    .text.lwiperf_tcp_client_send_more:000000000000006e .L0 
C:\Users\stapi\AppData\Local\Temp\ccDKHoe4.s:786    .text.lwiperf_tcp_client_send_more:000000000000006e .L0 
C:\Users\stapi\AppData\Local\Temp\ccDKHoe4.s:789    .text.lwiperf_tcp_client_send_more:000000000000006e .L0 
C:\Users\stapi\AppData\Local\Temp\ccDKHoe4.s:791    .text.lwiperf_tcp_client_send_more:000000000000006e .L0 
C:\Users\stapi\AppData\Local\Temp\ccDKHoe4.s:792    .text.lwiperf_tcp_client_send_more:000000000000006e .L0 
C:\Users\stapi\AppData\Local\Temp\ccDKHoe4.s:804    .text.lwiperf_tcp_client_send_more:0000000000000092 .L0 
C:\Users\stapi\AppData\Local\Temp\ccDKHoe4.s:805    .text.lwiperf_tcp_client_send_more:0000000000000092 .L0 
C:\Users\stapi\AppData\Local\Temp\ccDKHoe4.s:806    .text.lwiperf_tcp_client_send_more:0000000000000092 .L0 
C:\Users\stapi\AppData\Local\Temp\ccDKHoe4.s:813    .text.lwiperf_tcp_client_send_more:0000000000000094 .L0 
C:\Users\stapi\AppData\Local\Temp\ccDKHoe4.s:814    .text.lwiperf_tcp_client_send_more:0000000000000094 .L0 
C:\Users\stapi\AppData\Local\Temp\ccDKHoe4.s:817    .text.lwiperf_tcp_client_send_more:000000000000009c .L0 
C:\Users\stapi\AppData\Local\Temp\ccDKHoe4.s:818    .text.lwiperf_tcp_client_send_more:000000000000009c .L0 
C:\Users\stapi\AppData\Local\Temp\ccDKHoe4.s:824    .text.lwiperf_tcp_client_send_more:00000000000000a2 .L0 
C:\Users\stapi\AppData\Local\Temp\ccDKHoe4.s:825    .text.lwiperf_tcp_client_send_more:00000000000000a2 .L0 
C:\Users\stapi\AppData\Local\Temp\ccDKHoe4.s:827    .text.lwiperf_tcp_client_send_more:00000000000000a4 .L0 
C:\Users\stapi\AppData\Local\Temp\ccDKHoe4.s:829    .text.lwiperf_tcp_client_send_more:00000000000000a8 .L0 
C:\Users\stapi\AppData\Local\Temp\ccDKHoe4.s:830    .text.lwiperf_tcp_client_send_more:00000000000000a8 .L0 
C:\Users\stapi\AppData\Local\Temp\ccDKHoe4.s:833    .text.lwiperf_tcp_client_send_more:00000000000000ac .L0 
C:\Users\stapi\AppData\Local\Temp\ccDKHoe4.s:836    .text.lwiperf_tcp_client_send_more:00000000000000b0 .L0 
C:\Users\stapi\AppData\Local\Temp\ccDKHoe4.s:837    .text.lwiperf_tcp_client_send_more:00000000000000b0 .L0 
C:\Users\stapi\AppData\Local\Temp\ccDKHoe4.s:839    .text.lwiperf_tcp_client_send_more:00000000000000b2 .L0 
C:\Users\stapi\AppData\Local\Temp\ccDKHoe4.s:841    .text.lwiperf_tcp_client_send_more:00000000000000b4 .L0 
C:\Users\stapi\AppData\Local\Temp\ccDKHoe4.s:845    .text.lwiperf_tcp_client_send_more:00000000000000b8 .L0 
C:\Users\stapi\AppData\Local\Temp\ccDKHoe4.s:846    .text.lwiperf_tcp_client_send_more:00000000000000b8 .L0 
C:\Users\stapi\AppData\Local\Temp\ccDKHoe4.s:847    .text.lwiperf_tcp_client_send_more:00000000000000b8 .L0 
C:\Users\stapi\AppData\Local\Temp\ccDKHoe4.s:851    .text.lwiperf_tcp_client_send_more:00000000000000ba .L0 
C:\Users\stapi\AppData\Local\Temp\ccDKHoe4.s:852    .text.lwiperf_tcp_client_send_more:00000000000000ba .L0 
C:\Users\stapi\AppData\Local\Temp\ccDKHoe4.s:853    .text.lwiperf_tcp_client_send_more:00000000000000ba .L0 
C:\Users\stapi\AppData\Local\Temp\ccDKHoe4.s:860    .text.lwiperf_tcp_client_send_more:00000000000000ca .L0 
C:\Users\stapi\AppData\Local\Temp\ccDKHoe4.s:861    .text.lwiperf_tcp_client_send_more:00000000000000ca .L0 
C:\Users\stapi\AppData\Local\Temp\ccDKHoe4.s:863    .text.lwiperf_tcp_client_send_more:00000000000000ce .L0 
C:\Users\stapi\AppData\Local\Temp\ccDKHoe4.s:864    .text.lwiperf_tcp_client_send_more:00000000000000ce .L0 
C:\Users\stapi\AppData\Local\Temp\ccDKHoe4.s:867    .text.lwiperf_tcp_client_send_more:00000000000000d0 .L0 
C:\Users\stapi\AppData\Local\Temp\ccDKHoe4.s:868    .text.lwiperf_tcp_client_send_more:00000000000000d0 .L0 
C:\Users\stapi\AppData\Local\Temp\ccDKHoe4.s:872    .text.lwiperf_tcp_client_send_more:00000000000000d4 .L0 
C:\Users\stapi\AppData\Local\Temp\ccDKHoe4.s:877    .text.lwiperf_tcp_client_send_more:00000000000000de .L0 
C:\Users\stapi\AppData\Local\Temp\ccDKHoe4.s:878    .text.lwiperf_tcp_client_send_more:00000000000000de .L0 
C:\Users\stapi\AppData\Local\Temp\ccDKHoe4.s:882    .text.lwiperf_tcp_client_send_more:00000000000000e0 .L0 
C:\Users\stapi\AppData\Local\Temp\ccDKHoe4.s:883    .text.lwiperf_tcp_client_send_more:00000000000000e0 .L0 
C:\Users\stapi\AppData\Local\Temp\ccDKHoe4.s:885    .text.lwiperf_tcp_client_send_more:00000000000000e4 .L0 
C:\Users\stapi\AppData\Local\Temp\ccDKHoe4.s:886    .text.lwiperf_tcp_client_send_more:00000000000000e4 .L0 
C:\Users\stapi\AppData\Local\Temp\ccDKHoe4.s:888    .text.lwiperf_tcp_client_send_more:00000000000000e8 .L0 
C:\Users\stapi\AppData\Local\Temp\ccDKHoe4.s:891    .text.lwiperf_tcp_client_send_more:00000000000000ee .L0 
C:\Users\stapi\AppData\Local\Temp\ccDKHoe4.s:894    .text.lwiperf_tcp_client_send_more:00000000000000f0 .L0 
C:\Users\stapi\AppData\Local\Temp\ccDKHoe4.s:895    .text.lwiperf_tcp_client_send_more:00000000000000f0 .L0 
C:\Users\stapi\AppData\Local\Temp\ccDKHoe4.s:897    .text.lwiperf_tcp_client_send_more:00000000000000f2 .L0 
C:\Users\stapi\AppData\Local\Temp\ccDKHoe4.s:900    .text.lwiperf_tcp_client_send_more:00000000000000f6 .L0 
C:\Users\stapi\AppData\Local\Temp\ccDKHoe4.s:902    .text.lwiperf_tcp_client_send_more:00000000000000f6 .L0 
C:\Users\stapi\AppData\Local\Temp\ccDKHoe4.s:903    .text.lwiperf_tcp_client_send_more:00000000000000f6 .L0 
C:\Users\stapi\AppData\Local\Temp\ccDKHoe4.s:908    .text.lwiperf_tcp_client_send_more:00000000000000fa .L0 
C:\Users\stapi\AppData\Local\Temp\ccDKHoe4.s:909    .text.lwiperf_tcp_client_send_more:00000000000000fa .L0 
C:\Users\stapi\AppData\Local\Temp\ccDKHoe4.s:912    .text.lwiperf_tcp_client_send_more:0000000000000100 .L0 
C:\Users\stapi\AppData\Local\Temp\ccDKHoe4.s:914    .text.lwiperf_tcp_client_send_more:0000000000000104 .L0 
C:\Users\stapi\AppData\Local\Temp\ccDKHoe4.s:916    .text.lwiperf_tcp_client_send_more:0000000000000106 .L0 
C:\Users\stapi\AppData\Local\Temp\ccDKHoe4.s:918    .text.lwiperf_tcp_client_send_more:000000000000010a .L0 
C:\Users\stapi\AppData\Local\Temp\ccDKHoe4.s:921    .text.lwiperf_tcp_client_send_more:000000000000010c .L0 
C:\Users\stapi\AppData\Local\Temp\ccDKHoe4.s:922    .text.lwiperf_tcp_client_send_more:000000000000010c .L0 
C:\Users\stapi\AppData\Local\Temp\ccDKHoe4.s:923    .text.lwiperf_tcp_client_send_more:000000000000010c .L0 
C:\Users\stapi\AppData\Local\Temp\ccDKHoe4.s:925    .text.lwiperf_tcp_client_send_more:0000000000000110 .L0 
C:\Users\stapi\AppData\Local\Temp\ccDKHoe4.s:930    .text.lwiperf_tcp_client_send_more:0000000000000116 .L0 
C:\Users\stapi\AppData\Local\Temp\ccDKHoe4.s:931    .text.lwiperf_tcp_client_send_more:0000000000000116 .L0 
C:\Users\stapi\AppData\Local\Temp\ccDKHoe4.s:932    .text.lwiperf_tcp_client_send_more:0000000000000116 .L0 
C:\Users\stapi\AppData\Local\Temp\ccDKHoe4.s:934    .text.lwiperf_tcp_client_send_more:0000000000000118 .L0 
C:\Users\stapi\AppData\Local\Temp\ccDKHoe4.s:935    .text.lwiperf_tcp_client_send_more:0000000000000118 .L0 
C:\Users\stapi\AppData\Local\Temp\ccDKHoe4.s:939    .text.lwiperf_tcp_client_send_more:000000000000011e .L0 
C:\Users\stapi\AppData\Local\Temp\ccDKHoe4.s:940    .text.lwiperf_tcp_client_send_more:000000000000011e .L0 
C:\Users\stapi\AppData\Local\Temp\ccDKHoe4.s:944    .text.lwiperf_tcp_client_send_more:0000000000000124 .L0 
C:\Users\stapi\AppData\Local\Temp\ccDKHoe4.s:954    .text.lwiperf_tcp_client_sent:0000000000000000 lwiperf_tcp_client_sent
C:\Users\stapi\AppData\Local\Temp\ccDKHoe4.s:957    .text.lwiperf_tcp_client_sent:0000000000000000 .L0 
C:\Users\stapi\AppData\Local\Temp\ccDKHoe4.s:959    .text.lwiperf_tcp_client_sent:0000000000000000 .L0 
C:\Users\stapi\AppData\Local\Temp\ccDKHoe4.s:960    .text.lwiperf_tcp_client_sent:0000000000000008 .L0 
C:\Users\stapi\AppData\Local\Temp\ccDKHoe4.s:961    .text.lwiperf_tcp_client_sent:0000000000000008 .L0 
C:\Users\stapi\AppData\Local\Temp\ccDKHoe4.s:964    .text.lwiperf_tcp_client_sent:0000000000000008 .L0 
C:\Users\stapi\AppData\Local\Temp\ccDKHoe4.s:965    .text.lwiperf_tcp_client_sent:0000000000000008 .L0 
C:\Users\stapi\AppData\Local\Temp\ccDKHoe4.s:966    .text.lwiperf_tcp_client_sent:0000000000000008 .L0 
C:\Users\stapi\AppData\Local\Temp\ccDKHoe4.s:969    .text.lwiperf_tcp_client_sent:000000000000000e .L0 
C:\Users\stapi\AppData\Local\Temp\ccDKHoe4.s:970    .text.lwiperf_tcp_client_sent:000000000000000e .L0 
C:\Users\stapi\AppData\Local\Temp\ccDKHoe4.s:984    .text.lwiperf_tcp_client_sent:0000000000000032 .L0 
C:\Users\stapi\AppData\Local\Temp\ccDKHoe4.s:985    .text.lwiperf_tcp_client_sent:0000000000000032 .L0 
C:\Users\stapi\AppData\Local\Temp\ccDKHoe4.s:986    .text.lwiperf_tcp_client_sent:0000000000000032 .L0 
C:\Users\stapi\AppData\Local\Temp\ccDKHoe4.s:992    .text.lwiperf_tcp_client_sent:0000000000000034 .L0 
C:\Users\stapi\AppData\Local\Temp\ccDKHoe4.s:993    .text.lwiperf_tcp_client_sent:0000000000000034 .L0 
C:\Users\stapi\AppData\Local\Temp\ccDKHoe4.s:994    .text.lwiperf_tcp_client_sent:0000000000000034 .L0 
C:\Users\stapi\AppData\Local\Temp\ccDKHoe4.s:995    .text.lwiperf_tcp_client_sent:0000000000000034 .L0 
C:\Users\stapi\AppData\Local\Temp\ccDKHoe4.s:996    .text.lwiperf_tcp_client_sent:0000000000000034 .L0 
C:\Users\stapi\AppData\Local\Temp\ccDKHoe4.s:997    .text.lwiperf_tcp_client_sent:0000000000000034 .L0 
C:\Users\stapi\AppData\Local\Temp\ccDKHoe4.s:999    .text.lwiperf_tcp_client_sent:0000000000000038 .L0 
C:\Users\stapi\AppData\Local\Temp\ccDKHoe4.s:1000   .text.lwiperf_tcp_client_sent:0000000000000038 .L0 
C:\Users\stapi\AppData\Local\Temp\ccDKHoe4.s:1005   .text.lwiperf_tcp_client_sent:0000000000000040 .L0 
C:\Users\stapi\AppData\Local\Temp\ccDKHoe4.s:1006   .text.lwiperf_tcp_client_sent:0000000000000048 .L0 
C:\Users\stapi\AppData\Local\Temp\ccDKHoe4.s:1007   .text.lwiperf_tcp_client_sent:0000000000000048 .L0 
C:\Users\stapi\AppData\Local\Temp\ccDKHoe4.s:1008   .text.lwiperf_tcp_client_sent:0000000000000048 .L0 
C:\Users\stapi\AppData\Local\Temp\ccDKHoe4.s:1021   .text.lwiperf_tcp_poll:0000000000000000 .L0 
C:\Users\stapi\AppData\Local\Temp\ccDKHoe4.s:1023   .text.lwiperf_tcp_poll:0000000000000000 .L0 
C:\Users\stapi\AppData\Local\Temp\ccDKHoe4.s:1024   .text.lwiperf_tcp_poll:0000000000000008 .L0 
C:\Users\stapi\AppData\Local\Temp\ccDKHoe4.s:1025   .text.lwiperf_tcp_poll:0000000000000008 .L0 
C:\Users\stapi\AppData\Local\Temp\ccDKHoe4.s:1028   .text.lwiperf_tcp_poll:0000000000000008 .L0 
C:\Users\stapi\AppData\Local\Temp\ccDKHoe4.s:1029   .text.lwiperf_tcp_poll:0000000000000008 .L0 
C:\Users\stapi\AppData\Local\Temp\ccDKHoe4.s:1030   .text.lwiperf_tcp_poll:0000000000000008 .L0 
C:\Users\stapi\AppData\Local\Temp\ccDKHoe4.s:1033   .text.lwiperf_tcp_poll:000000000000000e .L0 
C:\Users\stapi\AppData\Local\Temp\ccDKHoe4.s:1034   .text.lwiperf_tcp_poll:000000000000000e .L0 
C:\Users\stapi\AppData\Local\Temp\ccDKHoe4.s:1047   .text.lwiperf_tcp_poll:0000000000000032 .L0 
C:\Users\stapi\AppData\Local\Temp\ccDKHoe4.s:1048   .text.lwiperf_tcp_poll:0000000000000032 .L0 
C:\Users\stapi\AppData\Local\Temp\ccDKHoe4.s:1049   .text.lwiperf_tcp_poll:0000000000000032 .L0 
C:\Users\stapi\AppData\Local\Temp\ccDKHoe4.s:1053   .text.lwiperf_tcp_poll:0000000000000034 .L0 
C:\Users\stapi\AppData\Local\Temp\ccDKHoe4.s:1054   .text.lwiperf_tcp_poll:0000000000000034 .L0 
C:\Users\stapi\AppData\Local\Temp\ccDKHoe4.s:1055   .text.lwiperf_tcp_poll:0000000000000034 .L0 
C:\Users\stapi\AppData\Local\Temp\ccDKHoe4.s:1056   .text.lwiperf_tcp_poll:0000000000000034 .L0 
C:\Users\stapi\AppData\Local\Temp\ccDKHoe4.s:1057   .text.lwiperf_tcp_poll:0000000000000034 .L0 
C:\Users\stapi\AppData\Local\Temp\ccDKHoe4.s:1059   .text.lwiperf_tcp_poll:0000000000000038 .L0 
C:\Users\stapi\AppData\Local\Temp\ccDKHoe4.s:1061   .text.lwiperf_tcp_poll:000000000000003a .L0 
C:\Users\stapi\AppData\Local\Temp\ccDKHoe4.s:1064   .text.lwiperf_tcp_poll:0000000000000040 .L0 
C:\Users\stapi\AppData\Local\Temp\ccDKHoe4.s:1067   .text.lwiperf_tcp_poll:0000000000000048 .L0 
C:\Users\stapi\AppData\Local\Temp\ccDKHoe4.s:1073   .text.lwiperf_tcp_poll:0000000000000052 .L0 
C:\Users\stapi\AppData\Local\Temp\ccDKHoe4.s:1074   .text.lwiperf_tcp_poll:0000000000000052 .L0 
C:\Users\stapi\AppData\Local\Temp\ccDKHoe4.s:1076   .text.lwiperf_tcp_poll:000000000000005c .L0 
C:\Users\stapi\AppData\Local\Temp\ccDKHoe4.s:1077   .text.lwiperf_tcp_poll:000000000000005c .L0 
C:\Users\stapi\AppData\Local\Temp\ccDKHoe4.s:1078   .text.lwiperf_tcp_poll:000000000000005c .L0 
C:\Users\stapi\AppData\Local\Temp\ccDKHoe4.s:1081   .text.lwiperf_tcp_poll:000000000000005c .L0 
C:\Users\stapi\AppData\Local\Temp\ccDKHoe4.s:1085   .text.lwiperf_tcp_poll:000000000000005c .L0 
C:\Users\stapi\AppData\Local\Temp\ccDKHoe4.s:1086   .text.lwiperf_tcp_poll:000000000000005c .L0 
C:\Users\stapi\AppData\Local\Temp\ccDKHoe4.s:1089   .text.lwiperf_tcp_poll:0000000000000062 .L0 
C:\Users\stapi\AppData\Local\Temp\ccDKHoe4.s:1094   .text.lwiperf_tcp_poll:000000000000006c .L0 
C:\Users\stapi\AppData\Local\Temp\ccDKHoe4.s:1100   .text.lwiperf_tcp_client_connected:0000000000000000 lwiperf_tcp_client_connected
C:\Users\stapi\AppData\Local\Temp\ccDKHoe4.s:1103   .text.lwiperf_tcp_client_connected:0000000000000000 .L0 
C:\Users\stapi\AppData\Local\Temp\ccDKHoe4.s:1105   .text.lwiperf_tcp_client_connected:0000000000000000 .L0 
C:\Users\stapi\AppData\Local\Temp\ccDKHoe4.s:1106   .text.lwiperf_tcp_client_connected:0000000000000008 .L0 
C:\Users\stapi\AppData\Local\Temp\ccDKHoe4.s:1107   .text.lwiperf_tcp_client_connected:0000000000000008 .L0 
C:\Users\stapi\AppData\Local\Temp\ccDKHoe4.s:1108   .text.lwiperf_tcp_client_connected:0000000000000008 .L0 
C:\Users\stapi\AppData\Local\Temp\ccDKHoe4.s:1111   .text.lwiperf_tcp_client_connected:0000000000000008 .L0 
C:\Users\stapi\AppData\Local\Temp\ccDKHoe4.s:1112   .text.lwiperf_tcp_client_connected:0000000000000008 .L0 
C:\Users\stapi\AppData\Local\Temp\ccDKHoe4.s:1113   .text.lwiperf_tcp_client_connected:0000000000000008 .L0 
C:\Users\stapi\AppData\Local\Temp\ccDKHoe4.s:1116   .text.lwiperf_tcp_client_connected:000000000000000e .L0 
C:\Users\stapi\AppData\Local\Temp\ccDKHoe4.s:1117   .text.lwiperf_tcp_client_connected:000000000000000e .L0 
C:\Users\stapi\AppData\Local\Temp\ccDKHoe4.s:1131   .text.lwiperf_tcp_client_connected:0000000000000032 .L0 
C:\Users\stapi\AppData\Local\Temp\ccDKHoe4.s:1132   .text.lwiperf_tcp_client_connected:0000000000000032 .L0 
C:\Users\stapi\AppData\Local\Temp\ccDKHoe4.s:1133   .text.lwiperf_tcp_client_connected:0000000000000032 .L0 
C:\Users\stapi\AppData\Local\Temp\ccDKHoe4.s:1137   .text.lwiperf_tcp_client_connected:0000000000000034 .L0 
C:\Users\stapi\AppData\Local\Temp\ccDKHoe4.s:1138   .text.lwiperf_tcp_client_connected:0000000000000034 .L0 
C:\Users\stapi\AppData\Local\Temp\ccDKHoe4.s:1139   .text.lwiperf_tcp_client_connected:0000000000000034 .L0 
C:\Users\stapi\AppData\Local\Temp\ccDKHoe4.s:1140   .text.lwiperf_tcp_client_connected:0000000000000034 .L0 
C:\Users\stapi\AppData\Local\Temp\ccDKHoe4.s:1141   .text.lwiperf_tcp_client_connected:0000000000000034 .L0 
C:\Users\stapi\AppData\Local\Temp\ccDKHoe4.s:1143   .text.lwiperf_tcp_client_connected:0000000000000036 .L0 
C:\Users\stapi\AppData\Local\Temp\ccDKHoe4.s:1148   .text.lwiperf_tcp_client_connected:0000000000000040 .L0 
C:\Users\stapi\AppData\Local\Temp\ccDKHoe4.s:1149   .text.lwiperf_tcp_client_connected:0000000000000040 .L0 
C:\Users\stapi\AppData\Local\Temp\ccDKHoe4.s:1152   .text.lwiperf_tcp_client_connected:0000000000000042 .L0 
C:\Users\stapi\AppData\Local\Temp\ccDKHoe4.s:1153   .text.lwiperf_tcp_client_connected:000000000000004a .L0 
C:\Users\stapi\AppData\Local\Temp\ccDKHoe4.s:1154   .text.lwiperf_tcp_client_connected:000000000000004a .L0 
C:\Users\stapi\AppData\Local\Temp\ccDKHoe4.s:1155   .text.lwiperf_tcp_client_connected:000000000000004a .L0 
C:\Users\stapi\AppData\Local\Temp\ccDKHoe4.s:1156   .text.lwiperf_tcp_client_connected:000000000000004a .L0 
C:\Users\stapi\AppData\Local\Temp\ccDKHoe4.s:1159   .text.lwiperf_tcp_client_connected:000000000000004a .L0 
C:\Users\stapi\AppData\Local\Temp\ccDKHoe4.s:1163   .text.lwiperf_tcp_client_connected:000000000000004a .L0 
C:\Users\stapi\AppData\Local\Temp\ccDKHoe4.s:1167   .text.lwiperf_tcp_client_connected:0000000000000050 .L0 
C:\Users\stapi\AppData\Local\Temp\ccDKHoe4.s:1168   .text.lwiperf_tcp_client_connected:0000000000000050 .L0 
C:\Users\stapi\AppData\Local\Temp\ccDKHoe4.s:1169   .text.lwiperf_tcp_client_connected:0000000000000050 .L0 
C:\Users\stapi\AppData\Local\Temp\ccDKHoe4.s:1172   .text.lwiperf_tcp_client_connected:0000000000000058 .L0 
C:\Users\stapi\AppData\Local\Temp\ccDKHoe4.s:1174   .text.lwiperf_tcp_client_connected:000000000000005a .L0 
C:\Users\stapi\AppData\Local\Temp\ccDKHoe4.s:1175   .text.lwiperf_tcp_client_connected:000000000000005a .L0 
C:\Users\stapi\AppData\Local\Temp\ccDKHoe4.s:1181   .text.lwiperf_tcp_client_connected:0000000000000066 .L0 
C:\Users\stapi\AppData\Local\Temp\ccDKHoe4.s:1187   .text.lwiperf_start_tcp_server_impl.constprop.0:0000000000000000 lwiperf_start_tcp_server_impl.constprop.0
C:\Users\stapi\AppData\Local\Temp\ccDKHoe4.s:1190   .text.lwiperf_start_tcp_server_impl.constprop.0:0000000000000000 .L0 
C:\Users\stapi\AppData\Local\Temp\ccDKHoe4.s:1192   .text.lwiperf_start_tcp_server_impl.constprop.0:0000000000000000 .L0 
C:\Users\stapi\AppData\Local\Temp\ccDKHoe4.s:1193   .text.lwiperf_start_tcp_server_impl.constprop.0:0000000000000008 .L0 
C:\Users\stapi\AppData\Local\Temp\ccDKHoe4.s:1194   .text.lwiperf_start_tcp_server_impl.constprop.0:0000000000000008 .L0 
C:\Users\stapi\AppData\Local\Temp\ccDKHoe4.s:1195   .text.lwiperf_start_tcp_server_impl.constprop.0:0000000000000008 .L0 
C:\Users\stapi\AppData\Local\Temp\ccDKHoe4.s:1196   .text.lwiperf_start_tcp_server_impl.constprop.0:0000000000000008 .L0 
C:\Users\stapi\AppData\Local\Temp\ccDKHoe4.s:1197   .text.lwiperf_start_tcp_server_impl.constprop.0:0000000000000008 .L0 
C:\Users\stapi\AppData\Local\Temp\ccDKHoe4.s:1198   .text.lwiperf_start_tcp_server_impl.constprop.0:0000000000000008 .L0 
C:\Users\stapi\AppData\Local\Temp\ccDKHoe4.s:1199   .text.lwiperf_start_tcp_server_impl.constprop.0:0000000000000008 .L0 
C:\Users\stapi\AppData\Local\Temp\ccDKHoe4.s:1200   .text.lwiperf_start_tcp_server_impl.constprop.0:0000000000000008 .L0 
C:\Users\stapi\AppData\Local\Temp\ccDKHoe4.s:1201   .text.lwiperf_start_tcp_server_impl.constprop.0:0000000000000008 .L0 
C:\Users\stapi\AppData\Local\Temp\ccDKHoe4.s:1203   .text.lwiperf_start_tcp_server_impl.constprop.0:0000000000000008 .L0 
C:\Users\stapi\AppData\Local\Temp\ccDKHoe4.s:1204   .text.lwiperf_start_tcp_server_impl.constprop.0:0000000000000008 .L0 
C:\Users\stapi\AppData\Local\Temp\ccDKHoe4.s:1205   .text.lwiperf_start_tcp_server_impl.constprop.0:0000000000000008 .L0 
C:\Users\stapi\AppData\Local\Temp\ccDKHoe4.s:1206   .text.lwiperf_start_tcp_server_impl.constprop.0:0000000000000008 .L0 
C:\Users\stapi\AppData\Local\Temp\ccDKHoe4.s:1207   .text.lwiperf_start_tcp_server_impl.constprop.0:0000000000000008 .L0 
C:\Users\stapi\AppData\Local\Temp\ccDKHoe4.s:1208   .text.lwiperf_start_tcp_server_impl.constprop.0:0000000000000008 .L0 
C:\Users\stapi\AppData\Local\Temp\ccDKHoe4.s:1209   .text.lwiperf_start_tcp_server_impl.constprop.0:0000000000000008 .L0 
C:\Users\stapi\AppData\Local\Temp\ccDKHoe4.s:1210   .text.lwiperf_start_tcp_server_impl.constprop.0:0000000000000008 .L0 
C:\Users\stapi\AppData\Local\Temp\ccDKHoe4.s:1211   .text.lwiperf_start_tcp_server_impl.constprop.0:0000000000000008 .L0 
C:\Users\stapi\AppData\Local\Temp\ccDKHoe4.s:1212   .text.lwiperf_start_tcp_server_impl.constprop.0:0000000000000008 .L0 
C:\Users\stapi\AppData\Local\Temp\ccDKHoe4.s:1213   .text.lwiperf_start_tcp_server_impl.constprop.0:0000000000000008 .L0 
C:\Users\stapi\AppData\Local\Temp\ccDKHoe4.s:1215   .text.lwiperf_start_tcp_server_impl.constprop.0:000000000000000a .L0 
C:\Users\stapi\AppData\Local\Temp\ccDKHoe4.s:1218   .text.lwiperf_start_tcp_server_impl.constprop.0:000000000000000e .L0 
C:\Users\stapi\AppData\Local\Temp\ccDKHoe4.s:1226   .text.lwiperf_start_tcp_server_impl.constprop.0:000000000000001c .L0 
C:\Users\stapi\AppData\Local\Temp\ccDKHoe4.s:1227   .text.lwiperf_start_tcp_server_impl.constprop.0:000000000000001c .L0 
C:\Users\stapi\AppData\Local\Temp\ccDKHoe4.s:1232   .text.lwiperf_start_tcp_server_impl.constprop.0:0000000000000026 .L0 
C:\Users\stapi\AppData\Local\Temp\ccDKHoe4.s:1233   .text.lwiperf_start_tcp_server_impl.constprop.0:0000000000000026 .L0 
C:\Users\stapi\AppData\Local\Temp\ccDKHoe4.s:1237   .text.lwiperf_start_tcp_server_impl.constprop.0:0000000000000028 .L0 
C:\Users\stapi\AppData\Local\Temp\ccDKHoe4.s:1238   .text.lwiperf_start_tcp_server_impl.constprop.0:0000000000000028 .L0 
C:\Users\stapi\AppData\Local\Temp\ccDKHoe4.s:1242   .text.lwiperf_start_tcp_server_impl.constprop.0:000000000000002a .L0 
C:\Users\stapi\AppData\Local\Temp\ccDKHoe4.s:1244   .text.lwiperf_start_tcp_server_impl.constprop.0:0000000000000034 .L0 
C:\Users\stapi\AppData\Local\Temp\ccDKHoe4.s:1245   .text.lwiperf_start_tcp_server_impl.constprop.0:0000000000000034 .L0 
C:\Users\stapi\AppData\Local\Temp\ccDKHoe4.s:1246   .text.lwiperf_start_tcp_server_impl.constprop.0:0000000000000034 .L0 
C:\Users\stapi\AppData\Local\Temp\ccDKHoe4.s:1247   .text.lwiperf_start_tcp_server_impl.constprop.0:0000000000000034 .L0 
C:\Users\stapi\AppData\Local\Temp\ccDKHoe4.s:1248   .text.lwiperf_start_tcp_server_impl.constprop.0:0000000000000034 .L0 
C:\Users\stapi\AppData\Local\Temp\ccDKHoe4.s:1249   .text.lwiperf_start_tcp_server_impl.constprop.0:0000000000000034 .L0 
C:\Users\stapi\AppData\Local\Temp\ccDKHoe4.s:1250   .text.lwiperf_start_tcp_server_impl.constprop.0:0000000000000034 .L0 
C:\Users\stapi\AppData\Local\Temp\ccDKHoe4.s:1251   .text.lwiperf_start_tcp_server_impl.constprop.0:0000000000000034 .L0 
C:\Users\stapi\AppData\Local\Temp\ccDKHoe4.s:1252   .text.lwiperf_start_tcp_server_impl.constprop.0:0000000000000034 .L0 
C:\Users\stapi\AppData\Local\Temp\ccDKHoe4.s:1253   .text.lwiperf_start_tcp_server_impl.constprop.0:0000000000000034 .L0 
C:\Users\stapi\AppData\Local\Temp\ccDKHoe4.s:1256   .text.lwiperf_start_tcp_server_impl.constprop.0:0000000000000034 .L0 
C:\Users\stapi\AppData\Local\Temp\ccDKHoe4.s:1258   .text.lwiperf_start_tcp_server_impl.constprop.0:0000000000000034 .L0 
C:\Users\stapi\AppData\Local\Temp\ccDKHoe4.s:1263   .text.lwiperf_start_tcp_server_impl.constprop.0:0000000000000042 .L0 
C:\Users\stapi\AppData\Local\Temp\ccDKHoe4.s:1264   .text.lwiperf_start_tcp_server_impl.constprop.0:0000000000000042 .L0 
C:\Users\stapi\AppData\Local\Temp\ccDKHoe4.s:1265   .text.lwiperf_start_tcp_server_impl.constprop.0:0000000000000042 .L0 
C:\Users\stapi\AppData\Local\Temp\ccDKHoe4.s:1267   .text.lwiperf_start_tcp_server_impl.constprop.0:0000000000000046 .L0 
C:\Users\stapi\AppData\Local\Temp\ccDKHoe4.s:1269   .text.lwiperf_start_tcp_server_impl.constprop.0:000000000000004a .L0 
C:\Users\stapi\AppData\Local\Temp\ccDKHoe4.s:1271   .text.lwiperf_start_tcp_server_impl.constprop.0:000000000000004e .L0 
C:\Users\stapi\AppData\Local\Temp\ccDKHoe4.s:1272   .text.lwiperf_start_tcp_server_impl.constprop.0:000000000000004e .L0 
C:\Users\stapi\AppData\Local\Temp\ccDKHoe4.s:1274   .text.lwiperf_start_tcp_server_impl.constprop.0:0000000000000052 .L0 
C:\Users\stapi\AppData\Local\Temp\ccDKHoe4.s:1275   .text.lwiperf_start_tcp_server_impl.constprop.0:0000000000000052 .L0 
C:\Users\stapi\AppData\Local\Temp\ccDKHoe4.s:1277   .text.lwiperf_start_tcp_server_impl.constprop.0:0000000000000056 .L0 
C:\Users\stapi\AppData\Local\Temp\ccDKHoe4.s:1278   .text.lwiperf_start_tcp_server_impl.constprop.0:0000000000000056 .L0 
C:\Users\stapi\AppData\Local\Temp\ccDKHoe4.s:1279   .text.lwiperf_start_tcp_server_impl.constprop.0:0000000000000056 .L0 
C:\Users\stapi\AppData\Local\Temp\ccDKHoe4.s:1285   .text.lwiperf_start_tcp_server_impl.constprop.0:0000000000000064 .L0 
C:\Users\stapi\AppData\Local\Temp\ccDKHoe4.s:1286   .text.lwiperf_start_tcp_server_impl.constprop.0:0000000000000064 .L0 
C:\Users\stapi\AppData\Local\Temp\ccDKHoe4.s:1288   .text.lwiperf_start_tcp_server_impl.constprop.0:0000000000000066 .L0 
C:\Users\stapi\AppData\Local\Temp\ccDKHoe4.s:1289   .text.lwiperf_start_tcp_server_impl.constprop.0:0000000000000066 .L0 
C:\Users\stapi\AppData\Local\Temp\ccDKHoe4.s:1296   .text.lwiperf_start_tcp_server_impl.constprop.0:0000000000000074 .L0 
C:\Users\stapi\AppData\Local\Temp\ccDKHoe4.s:1297   .text.lwiperf_start_tcp_server_impl.constprop.0:0000000000000074 .L0 
C:\Users\stapi\AppData\Local\Temp\ccDKHoe4.s:1299   .text.lwiperf_start_tcp_server_impl.constprop.0:0000000000000076 .L0 
C:\Users\stapi\AppData\Local\Temp\ccDKHoe4.s:1300   .text.lwiperf_start_tcp_server_impl.constprop.0:0000000000000076 .L0 
C:\Users\stapi\AppData\Local\Temp\ccDKHoe4.s:1306   .text.lwiperf_start_tcp_server_impl.constprop.0:0000000000000082 .L0 
C:\Users\stapi\AppData\Local\Temp\ccDKHoe4.s:1308   .text.lwiperf_start_tcp_server_impl.constprop.0:0000000000000084 .L0 
C:\Users\stapi\AppData\Local\Temp\ccDKHoe4.s:1309   .text.lwiperf_start_tcp_server_impl.constprop.0:0000000000000084 .L0 
C:\Users\stapi\AppData\Local\Temp\ccDKHoe4.s:1311   .text.lwiperf_start_tcp_server_impl.constprop.0:0000000000000086 .L0 
C:\Users\stapi\AppData\Local\Temp\ccDKHoe4.s:1313   .text.lwiperf_start_tcp_server_impl.constprop.0:0000000000000088 .L0 
C:\Users\stapi\AppData\Local\Temp\ccDKHoe4.s:1316   .text.lwiperf_start_tcp_server_impl.constprop.0:0000000000000090 .L0 
C:\Users\stapi\AppData\Local\Temp\ccDKHoe4.s:1318   .text.lwiperf_start_tcp_server_impl.constprop.0:0000000000000092 .L0 
C:\Users\stapi\AppData\Local\Temp\ccDKHoe4.s:1322   .text.lwiperf_start_tcp_server_impl.constprop.0:0000000000000096 .L0 
C:\Users\stapi\AppData\Local\Temp\ccDKHoe4.s:1323   .text.lwiperf_start_tcp_server_impl.constprop.0:0000000000000096 .L0 
C:\Users\stapi\AppData\Local\Temp\ccDKHoe4.s:1325   .text.lwiperf_start_tcp_server_impl.constprop.0:000000000000009a .L0 
C:\Users\stapi\AppData\Local\Temp\ccDKHoe4.s:1327   .text.lwiperf_start_tcp_server_impl.constprop.0:000000000000009e .L0 
C:\Users\stapi\AppData\Local\Temp\ccDKHoe4.s:1330   .text.lwiperf_start_tcp_server_impl.constprop.0:00000000000000a0 .L0 
C:\Users\stapi\AppData\Local\Temp\ccDKHoe4.s:1332   .text.lwiperf_start_tcp_server_impl.constprop.0:00000000000000a4 .L0 
C:\Users\stapi\AppData\Local\Temp\ccDKHoe4.s:1335   .text.lwiperf_start_tcp_server_impl.constprop.0:00000000000000a8 .L0 
C:\Users\stapi\AppData\Local\Temp\ccDKHoe4.s:1336   .text.lwiperf_start_tcp_server_impl.constprop.0:00000000000000a8 .L0 
C:\Users\stapi\AppData\Local\Temp\ccDKHoe4.s:1337   .text.lwiperf_start_tcp_server_impl.constprop.0:00000000000000a8 .L0 
C:\Users\stapi\AppData\Local\Temp\ccDKHoe4.s:1339   .text.lwiperf_start_tcp_server_impl.constprop.0:00000000000000ac .L0 
C:\Users\stapi\AppData\Local\Temp\ccDKHoe4.s:1344   .text.lwiperf_start_tcp_server_impl.constprop.0:00000000000000b8 .L0 
C:\Users\stapi\AppData\Local\Temp\ccDKHoe4.s:1352   .text.lwiperf_start_tcp_server_impl.constprop.0:00000000000000ca .L0 
C:\Users\stapi\AppData\Local\Temp\ccDKHoe4.s:1353   .text.lwiperf_start_tcp_server_impl.constprop.0:00000000000000ca .L0 
C:\Users\stapi\AppData\Local\Temp\ccDKHoe4.s:1354   .text.lwiperf_start_tcp_server_impl.constprop.0:00000000000000ca .L0 
C:\Users\stapi\AppData\Local\Temp\ccDKHoe4.s:1358   .text.lwiperf_start_tcp_server_impl.constprop.0:00000000000000d4 .L0 
C:\Users\stapi\AppData\Local\Temp\ccDKHoe4.s:1360   .text.lwiperf_start_tcp_server_impl.constprop.0:00000000000000d6 .L0 
C:\Users\stapi\AppData\Local\Temp\ccDKHoe4.s:1365   .text.lwiperf_start_tcp_server_impl.constprop.0:00000000000000d8 .L0 
C:\Users\stapi\AppData\Local\Temp\ccDKHoe4.s:1366   .text.lwiperf_start_tcp_server_impl.constprop.0:00000000000000d8 .L0 
C:\Users\stapi\AppData\Local\Temp\ccDKHoe4.s:1367   .text.lwiperf_start_tcp_server_impl.constprop.0:00000000000000d8 .L0 
C:\Users\stapi\AppData\Local\Temp\ccDKHoe4.s:1369   .text.lwiperf_start_tcp_server_impl.constprop.0:00000000000000dc .L0 
C:\Users\stapi\AppData\Local\Temp\ccDKHoe4.s:1370   .text.lwiperf_start_tcp_server_impl.constprop.0:00000000000000dc .L0 
C:\Users\stapi\AppData\Local\Temp\ccDKHoe4.s:1374   .text.lwiperf_start_tcp_server_impl.constprop.0:00000000000000de .L0 
C:\Users\stapi\AppData\Local\Temp\ccDKHoe4.s:1375   .text.lwiperf_start_tcp_server_impl.constprop.0:00000000000000de .L0 
C:\Users\stapi\AppData\Local\Temp\ccDKHoe4.s:1379   .text.lwiperf_start_tcp_server_impl.constprop.0:00000000000000e8 .L0 
C:\Users\stapi\AppData\Local\Temp\ccDKHoe4.s:1383   .text.lwiperf_start_tcp_server_impl.constprop.0:00000000000000f4 .L0 
C:\Users\stapi\AppData\Local\Temp\ccDKHoe4.s:1393   .text.lwiperf_tx_start_impl:0000000000000000 lwiperf_tx_start_impl
C:\Users\stapi\AppData\Local\Temp\ccDKHoe4.s:1396   .text.lwiperf_tx_start_impl:0000000000000000 .L0 
C:\Users\stapi\AppData\Local\Temp\ccDKHoe4.s:1398   .text.lwiperf_tx_start_impl:0000000000000000 .L0 
C:\Users\stapi\AppData\Local\Temp\ccDKHoe4.s:1399   .text.lwiperf_tx_start_impl:0000000000000008 .L0 
C:\Users\stapi\AppData\Local\Temp\ccDKHoe4.s:1400   .text.lwiperf_tx_start_impl:0000000000000008 .L0 
C:\Users\stapi\AppData\Local\Temp\ccDKHoe4.s:1401   .text.lwiperf_tx_start_impl:0000000000000008 .L0 
C:\Users\stapi\AppData\Local\Temp\ccDKHoe4.s:1402   .text.lwiperf_tx_start_impl:0000000000000008 .L0 
C:\Users\stapi\AppData\Local\Temp\ccDKHoe4.s:1403   .text.lwiperf_tx_start_impl:0000000000000008 .L0 
C:\Users\stapi\AppData\Local\Temp\ccDKHoe4.s:1404   .text.lwiperf_tx_start_impl:0000000000000008 .L0 
C:\Users\stapi\AppData\Local\Temp\ccDKHoe4.s:1405   .text.lwiperf_tx_start_impl:0000000000000008 .L0 
C:\Users\stapi\AppData\Local\Temp\ccDKHoe4.s:1406   .text.lwiperf_tx_start_impl:0000000000000008 .L0 
C:\Users\stapi\AppData\Local\Temp\ccDKHoe4.s:1407   .text.lwiperf_tx_start_impl:0000000000000008 .L0 
C:\Users\stapi\AppData\Local\Temp\ccDKHoe4.s:1408   .text.lwiperf_tx_start_impl:0000000000000008 .L0 
C:\Users\stapi\AppData\Local\Temp\ccDKHoe4.s:1409   .text.lwiperf_tx_start_impl:0000000000000008 .L0 
C:\Users\stapi\AppData\Local\Temp\ccDKHoe4.s:1410   .text.lwiperf_tx_start_impl:0000000000000008 .L0 
C:\Users\stapi\AppData\Local\Temp\ccDKHoe4.s:1412   .text.lwiperf_tx_start_impl:0000000000000008 .L0 
C:\Users\stapi\AppData\Local\Temp\ccDKHoe4.s:1413   .text.lwiperf_tx_start_impl:0000000000000008 .L0 
C:\Users\stapi\AppData\Local\Temp\ccDKHoe4.s:1414   .text.lwiperf_tx_start_impl:0000000000000008 .L0 
C:\Users\stapi\AppData\Local\Temp\ccDKHoe4.s:1415   .text.lwiperf_tx_start_impl:0000000000000008 .L0 
C:\Users\stapi\AppData\Local\Temp\ccDKHoe4.s:1416   .text.lwiperf_tx_start_impl:0000000000000008 .L0 
C:\Users\stapi\AppData\Local\Temp\ccDKHoe4.s:1417   .text.lwiperf_tx_start_impl:0000000000000008 .L0 
C:\Users\stapi\AppData\Local\Temp\ccDKHoe4.s:1418   .text.lwiperf_tx_start_impl:0000000000000008 .L0 
C:\Users\stapi\AppData\Local\Temp\ccDKHoe4.s:1419   .text.lwiperf_tx_start_impl:000000000000000a .L0 
C:\Users\stapi\AppData\Local\Temp\ccDKHoe4.s:1421   .text.lwiperf_tx_start_impl:000000000000000a .L0 
C:\Users\stapi\AppData\Local\Temp\ccDKHoe4.s:1423   .text.lwiperf_tx_start_impl:000000000000000c .L0 
C:\Users\stapi\AppData\Local\Temp\ccDKHoe4.s:1424   .text.lwiperf_tx_start_impl:000000000000000c .L0 
C:\Users\stapi\AppData\Local\Temp\ccDKHoe4.s:1439   .text.lwiperf_tx_start_impl:0000000000000030 .L0 
C:\Users\stapi\AppData\Local\Temp\ccDKHoe4.s:1440   .text.lwiperf_tx_start_impl:0000000000000030 .L0 
C:\Users\stapi\AppData\Local\Temp\ccDKHoe4.s:1441   .text.lwiperf_tx_start_impl:0000000000000030 .L0 
C:\Users\stapi\AppData\Local\Temp\ccDKHoe4.s:1448   .text.lwiperf_tx_start_impl:0000000000000034 .L0 
C:\Users\stapi\AppData\Local\Temp\ccDKHoe4.s:1450   .text.lwiperf_tx_start_impl:0000000000000038 .L0 
C:\Users\stapi\AppData\Local\Temp\ccDKHoe4.s:1461   .text.lwiperf_tx_start_impl:0000000000000048 .L0 
C:\Users\stapi\AppData\Local\Temp\ccDKHoe4.s:1462   .text.lwiperf_tx_start_impl:0000000000000048 .L0 
C:\Users\stapi\AppData\Local\Temp\ccDKHoe4.s:1463   .text.lwiperf_tx_start_impl:0000000000000048 .L0 
C:\Users\stapi\AppData\Local\Temp\ccDKHoe4.s:1467   .text.lwiperf_tx_start_impl:0000000000000048 .L0 
C:\Users\stapi\AppData\Local\Temp\ccDKHoe4.s:1468   .text.lwiperf_tx_start_impl:0000000000000048 .L0 
C:\Users\stapi\AppData\Local\Temp\ccDKHoe4.s:1469   .text.lwiperf_tx_start_impl:0000000000000048 .L0 
C:\Users\stapi\AppData\Local\Temp\ccDKHoe4.s:1470   .text.lwiperf_tx_start_impl:0000000000000048 .L0 
C:\Users\stapi\AppData\Local\Temp\ccDKHoe4.s:1471   .text.lwiperf_tx_start_impl:0000000000000048 .L0 
C:\Users\stapi\AppData\Local\Temp\ccDKHoe4.s:1472   .text.lwiperf_tx_start_impl:0000000000000048 .L0 
C:\Users\stapi\AppData\Local\Temp\ccDKHoe4.s:1473   .text.lwiperf_tx_start_impl:0000000000000048 .L0 
C:\Users\stapi\AppData\Local\Temp\ccDKHoe4.s:1474   .text.lwiperf_tx_start_impl:0000000000000048 .L0 
C:\Users\stapi\AppData\Local\Temp\ccDKHoe4.s:1475   .text.lwiperf_tx_start_impl:0000000000000048 .L0 
C:\Users\stapi\AppData\Local\Temp\ccDKHoe4.s:1476   .text.lwiperf_tx_start_impl:0000000000000048 .L0 
C:\Users\stapi\AppData\Local\Temp\ccDKHoe4.s:1481   .text.lwiperf_tx_start_impl:0000000000000052 .L0 
C:\Users\stapi\AppData\Local\Temp\ccDKHoe4.s:1482   .text.lwiperf_tx_start_impl:0000000000000052 .L0 
C:\Users\stapi\AppData\Local\Temp\ccDKHoe4.s:1484   .text.lwiperf_tx_start_impl:0000000000000054 .L0 
C:\Users\stapi\AppData\Local\Temp\ccDKHoe4.s:1486   .text.lwiperf_tx_start_impl:0000000000000056 .L0 
C:\Users\stapi\AppData\Local\Temp\ccDKHoe4.s:1487   .text.lwiperf_tx_start_impl:0000000000000056 .L0 
C:\Users\stapi\AppData\Local\Temp\ccDKHoe4.s:1493   .text.lwiperf_tx_start_impl:0000000000000062 .L0 
C:\Users\stapi\AppData\Local\Temp\ccDKHoe4.s:1494   .text.lwiperf_tx_start_impl:0000000000000062 .L0 
C:\Users\stapi\AppData\Local\Temp\ccDKHoe4.s:1496   .text.lwiperf_tx_start_impl:0000000000000064 .L0 
C:\Users\stapi\AppData\Local\Temp\ccDKHoe4.s:1500   .text.lwiperf_tx_start_impl:000000000000006e .L0 
C:\Users\stapi\AppData\Local\Temp\ccDKHoe4.s:1501   .text.lwiperf_tx_start_impl:000000000000006e .L0 
C:\Users\stapi\AppData\Local\Temp\ccDKHoe4.s:1507   .text.lwiperf_tx_start_impl:0000000000000070 .L0 
C:\Users\stapi\AppData\Local\Temp\ccDKHoe4.s:1509   .text.lwiperf_tx_start_impl:0000000000000074 .L0 
C:\Users\stapi\AppData\Local\Temp\ccDKHoe4.s:1510   .text.lwiperf_tx_start_impl:0000000000000074 .L0 
C:\Users\stapi\AppData\Local\Temp\ccDKHoe4.s:1512   .text.lwiperf_tx_start_impl:000000000000007c .L0 
C:\Users\stapi\AppData\Local\Temp\ccDKHoe4.s:1513   .text.lwiperf_tx_start_impl:000000000000007c .L0 
C:\Users\stapi\AppData\Local\Temp\ccDKHoe4.s:1514   .text.lwiperf_tx_start_impl:000000000000007c .L0 
C:\Users\stapi\AppData\Local\Temp\ccDKHoe4.s:1515   .text.lwiperf_tx_start_impl:000000000000007c .L0 
C:\Users\stapi\AppData\Local\Temp\ccDKHoe4.s:1516   .text.lwiperf_tx_start_impl:000000000000007c .L0 
C:\Users\stapi\AppData\Local\Temp\ccDKHoe4.s:1517   .text.lwiperf_tx_start_impl:000000000000007c .L0 
C:\Users\stapi\AppData\Local\Temp\ccDKHoe4.s:1518   .text.lwiperf_tx_start_impl:000000000000007c .L0 
C:\Users\stapi\AppData\Local\Temp\ccDKHoe4.s:1519   .text.lwiperf_tx_start_impl:000000000000007c .L0 
C:\Users\stapi\AppData\Local\Temp\ccDKHoe4.s:1520   .text.lwiperf_tx_start_impl:000000000000007c .L0 
C:\Users\stapi\AppData\Local\Temp\ccDKHoe4.s:1521   .text.lwiperf_tx_start_impl:000000000000007c .L0 
C:\Users\stapi\AppData\Local\Temp\ccDKHoe4.s:1522   .text.lwiperf_tx_start_impl:000000000000007c .L0 
C:\Users\stapi\AppData\Local\Temp\ccDKHoe4.s:1523   .text.lwiperf_tx_start_impl:000000000000007c .L0 
C:\Users\stapi\AppData\Local\Temp\ccDKHoe4.s:1526   .text.lwiperf_tx_start_impl:000000000000007c .L0 
C:\Users\stapi\AppData\Local\Temp\ccDKHoe4.s:1530   .text.lwiperf_tx_start_impl:000000000000007c .L0 
C:\Users\stapi\AppData\Local\Temp\ccDKHoe4.s:1533   .text.lwiperf_tx_start_impl:0000000000000082 .L0 
C:\Users\stapi\AppData\Local\Temp\ccDKHoe4.s:1535   .text.lwiperf_tx_start_impl:0000000000000084 .L0 
C:\Users\stapi\AppData\Local\Temp\ccDKHoe4.s:1539   .text.lwiperf_tx_start_impl:000000000000008e .L0 
C:\Users\stapi\AppData\Local\Temp\ccDKHoe4.s:1540   .text.lwiperf_tx_start_impl:000000000000008e .L0 
C:\Users\stapi\AppData\Local\Temp\ccDKHoe4.s:1542   .text.lwiperf_tx_start_impl:0000000000000090 .L0 
C:\Users\stapi\AppData\Local\Temp\ccDKHoe4.s:1544   .text.lwiperf_tx_start_impl:0000000000000094 .L0 
C:\Users\stapi\AppData\Local\Temp\ccDKHoe4.s:1545   .text.lwiperf_tx_start_impl:0000000000000094 .L0 
C:\Users\stapi\AppData\Local\Temp\ccDKHoe4.s:1547   .text.lwiperf_tx_start_impl:0000000000000098 .L0 
C:\Users\stapi\AppData\Local\Temp\ccDKHoe4.s:1548   .text.lwiperf_tx_start_impl:0000000000000098 .L0 
C:\Users\stapi\AppData\Local\Temp\ccDKHoe4.s:1549   .text.lwiperf_tx_start_impl:0000000000000098 .L0 
C:\Users\stapi\AppData\Local\Temp\ccDKHoe4.s:1552   .text.lwiperf_tx_start_impl:00000000000000a0 .L0 
C:\Users\stapi\AppData\Local\Temp\ccDKHoe4.s:1555   .text.lwiperf_tx_start_impl:00000000000000a6 .L0 
C:\Users\stapi\AppData\Local\Temp\ccDKHoe4.s:1557   .text.lwiperf_tx_start_impl:00000000000000a8 .L0 
C:\Users\stapi\AppData\Local\Temp\ccDKHoe4.s:1559   .text.lwiperf_tx_start_impl:00000000000000aa .L0 
C:\Users\stapi\AppData\Local\Temp\ccDKHoe4.s:1560   .text.lwiperf_tx_start_impl:00000000000000aa .L0 
C:\Users\stapi\AppData\Local\Temp\ccDKHoe4.s:1562   .text.lwiperf_tx_start_impl:00000000000000ac .L0 
C:\Users\stapi\AppData\Local\Temp\ccDKHoe4.s:1564   .text.lwiperf_tx_start_impl:00000000000000b0 .L0 
C:\Users\stapi\AppData\Local\Temp\ccDKHoe4.s:1565   .text.lwiperf_tx_start_impl:00000000000000b0 .L0 
C:\Users\stapi\AppData\Local\Temp\ccDKHoe4.s:1567   .text.lwiperf_tx_start_impl:00000000000000b4 .L0 
C:\Users\stapi\AppData\Local\Temp\ccDKHoe4.s:1568   .text.lwiperf_tx_start_impl:00000000000000b4 .L0 
C:\Users\stapi\AppData\Local\Temp\ccDKHoe4.s:1569   .text.lwiperf_tx_start_impl:00000000000000b4 .L0 
C:\Users\stapi\AppData\Local\Temp\ccDKHoe4.s:1571   .text.lwiperf_tx_start_impl:00000000000000b8 .L0 
C:\Users\stapi\AppData\Local\Temp\ccDKHoe4.s:1575   .text.lwiperf_tx_start_impl:00000000000000c4 .L0 
C:\Users\stapi\AppData\Local\Temp\ccDKHoe4.s:1576   .text.lwiperf_tx_start_impl:00000000000000c4 .L0 
C:\Users\stapi\AppData\Local\Temp\ccDKHoe4.s:1579   .text.lwiperf_tx_start_impl:00000000000000c8 .L0 
C:\Users\stapi\AppData\Local\Temp\ccDKHoe4.s:1581   .text.lwiperf_tx_start_impl:00000000000000cc .L0 
C:\Users\stapi\AppData\Local\Temp\ccDKHoe4.s:1584   .text.lwiperf_tx_start_impl:00000000000000d4 .L0 
C:\Users\stapi\AppData\Local\Temp\ccDKHoe4.s:1590   .text.lwiperf_tx_start_impl:00000000000000e6 .L0 
C:\Users\stapi\AppData\Local\Temp\ccDKHoe4.s:1597   .text.lwiperf_tx_start_impl:00000000000000fa .L0 
C:\Users\stapi\AppData\Local\Temp\ccDKHoe4.s:1603   .text.lwiperf_tx_start_impl:000000000000010c .L0 
C:\Users\stapi\AppData\Local\Temp\ccDKHoe4.s:1605   .text.lwiperf_tx_start_impl:0000000000000110 .L0 
C:\Users\stapi\AppData\Local\Temp\ccDKHoe4.s:1611   .text.lwiperf_tx_start_impl:000000000000011e .L0 
C:\Users\stapi\AppData\Local\Temp\ccDKHoe4.s:1613   .text.lwiperf_tx_start_impl:0000000000000120 .L0 
C:\Users\stapi\AppData\Local\Temp\ccDKHoe4.s:1614   .text.lwiperf_tx_start_impl:0000000000000120 .L0 
C:\Users\stapi\AppData\Local\Temp\ccDKHoe4.s:1619   .text.lwiperf_tx_start_impl:000000000000012a .L0 
C:\Users\stapi\AppData\Local\Temp\ccDKHoe4.s:1620   .text.lwiperf_tx_start_impl:000000000000012a .L0 
C:\Users\stapi\AppData\Local\Temp\ccDKHoe4.s:1622   .text.lwiperf_tx_start_impl:000000000000012c .L0 
C:\Users\stapi\AppData\Local\Temp\ccDKHoe4.s:1628   .text.lwiperf_tx_start_impl:0000000000000138 .L0 
C:\Users\stapi\AppData\Local\Temp\ccDKHoe4.s:1629   .text.lwiperf_tx_start_impl:0000000000000138 .L0 
C:\Users\stapi\AppData\Local\Temp\ccDKHoe4.s:1635   .text.lwiperf_tx_start_impl:000000000000013a .L0 
C:\Users\stapi\AppData\Local\Temp\ccDKHoe4.s:1636   .text.lwiperf_tx_start_impl:000000000000013a .L0 
C:\Users\stapi\AppData\Local\Temp\ccDKHoe4.s:1637   .text.lwiperf_tx_start_impl:000000000000013a .L0 
C:\Users\stapi\AppData\Local\Temp\ccDKHoe4.s:1641   .text.lwiperf_tx_start_impl:0000000000000144 .L0 
C:\Users\stapi\AppData\Local\Temp\ccDKHoe4.s:1643   .text.lwiperf_tx_start_impl:0000000000000146 .L0 
C:\Users\stapi\AppData\Local\Temp\ccDKHoe4.s:1648   .text.lwiperf_tx_start_impl:0000000000000148 .L0 
C:\Users\stapi\AppData\Local\Temp\ccDKHoe4.s:1649   .text.lwiperf_tx_start_impl:0000000000000148 .L0 
C:\Users\stapi\AppData\Local\Temp\ccDKHoe4.s:1650   .text.lwiperf_tx_start_impl:0000000000000148 .L0 
C:\Users\stapi\AppData\Local\Temp\ccDKHoe4.s:1652   .text.lwiperf_tx_start_impl:000000000000014c .L0 
C:\Users\stapi\AppData\Local\Temp\ccDKHoe4.s:1653   .text.lwiperf_tx_start_impl:000000000000014c .L0 
C:\Users\stapi\AppData\Local\Temp\ccDKHoe4.s:1656   .text.lwiperf_tx_start_impl:000000000000014e .L0 
C:\Users\stapi\AppData\Local\Temp\ccDKHoe4.s:1666   .text.lwiperf_tx_start_passive:0000000000000000 lwiperf_tx_start_passive
C:\Users\stapi\AppData\Local\Temp\ccDKHoe4.s:1669   .text.lwiperf_tx_start_passive:0000000000000000 .L0 
C:\Users\stapi\AppData\Local\Temp\ccDKHoe4.s:1671   .text.lwiperf_tx_start_passive:0000000000000000 .L0 
C:\Users\stapi\AppData\Local\Temp\ccDKHoe4.s:1672   .text.lwiperf_tx_start_passive:0000000000000008 .L0 
C:\Users\stapi\AppData\Local\Temp\ccDKHoe4.s:1673   .text.lwiperf_tx_start_passive:0000000000000008 .L0 
C:\Users\stapi\AppData\Local\Temp\ccDKHoe4.s:1674   .text.lwiperf_tx_start_passive:0000000000000008 .L0 
C:\Users\stapi\AppData\Local\Temp\ccDKHoe4.s:1676   .text.lwiperf_tx_start_passive:0000000000000008 .L0 
C:\Users\stapi\AppData\Local\Temp\ccDKHoe4.s:1677   .text.lwiperf_tx_start_passive:0000000000000008 .L0 
C:\Users\stapi\AppData\Local\Temp\ccDKHoe4.s:1678   .text.lwiperf_tx_start_passive:0000000000000008 .L0 
C:\Users\stapi\AppData\Local\Temp\ccDKHoe4.s:1680   .text.lwiperf_tx_start_passive:000000000000000a .L0 
C:\Users\stapi\AppData\Local\Temp\ccDKHoe4.s:1683   .text.lwiperf_tx_start_passive:000000000000000c .L0 
C:\Users\stapi\AppData\Local\Temp\ccDKHoe4.s:1684   .text.lwiperf_tx_start_passive:000000000000000e .L0 
C:\Users\stapi\AppData\Local\Temp\ccDKHoe4.s:1686   .text.lwiperf_tx_start_passive:000000000000000e .L0 
C:\Users\stapi\AppData\Local\Temp\ccDKHoe4.s:1688   .text.lwiperf_tx_start_passive:0000000000000010 .L0 
C:\Users\stapi\AppData\Local\Temp\ccDKHoe4.s:1689   .text.lwiperf_tx_start_passive:0000000000000010 .L0 
C:\Users\stapi\AppData\Local\Temp\ccDKHoe4.s:1692   .text.lwiperf_tx_start_passive:0000000000000018 .L0 
C:\Users\stapi\AppData\Local\Temp\ccDKHoe4.s:1693   .text.lwiperf_tx_start_passive:0000000000000018 .L0 
C:\Users\stapi\AppData\Local\Temp\ccDKHoe4.s:1695   .text.lwiperf_tx_start_passive:000000000000001c .L0 
C:\Users\stapi\AppData\Local\Temp\ccDKHoe4.s:1706   .text.lwiperf_tx_start_passive:000000000000003a .L0 
C:\Users\stapi\AppData\Local\Temp\ccDKHoe4.s:1707   .text.lwiperf_tx_start_passive:000000000000003a .L0 
C:\Users\stapi\AppData\Local\Temp\ccDKHoe4.s:1709   .text.lwiperf_tx_start_passive:000000000000003c .L0 
C:\Users\stapi\AppData\Local\Temp\ccDKHoe4.s:1710   .text.lwiperf_tx_start_passive:000000000000003c .L0 
C:\Users\stapi\AppData\Local\Temp\ccDKHoe4.s:1713   .text.lwiperf_tx_start_passive:0000000000000040 .L0 
C:\Users\stapi\AppData\Local\Temp\ccDKHoe4.s:1714   .text.lwiperf_tx_start_passive:0000000000000040 .L0 
C:\Users\stapi\AppData\Local\Temp\ccDKHoe4.s:1726   .text.lwiperf_tx_start_passive:0000000000000064 .L0 
C:\Users\stapi\AppData\Local\Temp\ccDKHoe4.s:1727   .text.lwiperf_tx_start_passive:0000000000000064 .L0 
C:\Users\stapi\AppData\Local\Temp\ccDKHoe4.s:1728   .text.lwiperf_tx_start_passive:0000000000000064 .L0 
C:\Users\stapi\AppData\Local\Temp\ccDKHoe4.s:1732   .text.lwiperf_tx_start_passive:0000000000000066 .L0 
C:\Users\stapi\AppData\Local\Temp\ccDKHoe4.s:1733   .text.lwiperf_tx_start_passive:0000000000000066 .L0 
C:\Users\stapi\AppData\Local\Temp\ccDKHoe4.s:1734   .text.lwiperf_tx_start_passive:0000000000000066 .L0 
C:\Users\stapi\AppData\Local\Temp\ccDKHoe4.s:1735   .text.lwiperf_tx_start_passive:0000000000000066 .L0 
C:\Users\stapi\AppData\Local\Temp\ccDKHoe4.s:1738   .text.lwiperf_tx_start_passive:000000000000006a .L0 
C:\Users\stapi\AppData\Local\Temp\ccDKHoe4.s:1739   .text.lwiperf_tx_start_passive:000000000000006a .L0 
C:\Users\stapi\AppData\Local\Temp\ccDKHoe4.s:1740   .text.lwiperf_tx_start_passive:000000000000006c .L0 
C:\Users\stapi\AppData\Local\Temp\ccDKHoe4.s:1742   .text.lwiperf_tx_start_passive:0000000000000074 .L0 
C:\Users\stapi\AppData\Local\Temp\ccDKHoe4.s:1743   .text.lwiperf_tx_start_passive:0000000000000074 .L0 
C:\Users\stapi\AppData\Local\Temp\ccDKHoe4.s:1744   .text.lwiperf_tx_start_passive:0000000000000074 .L0 
C:\Users\stapi\AppData\Local\Temp\ccDKHoe4.s:1745   .text.lwiperf_tx_start_passive:0000000000000074 .L0 
C:\Users\stapi\AppData\Local\Temp\ccDKHoe4.s:1761   .text.lwiperf_tcp_recv:0000000000000000 .L0 
C:\Users\stapi\AppData\Local\Temp\ccDKHoe4.s:1763   .text.lwiperf_tcp_recv:0000000000000000 .L0 
C:\Users\stapi\AppData\Local\Temp\ccDKHoe4.s:1764   .text.lwiperf_tcp_recv:0000000000000008 .L0 
C:\Users\stapi\AppData\Local\Temp\ccDKHoe4.s:1765   .text.lwiperf_tcp_recv:0000000000000008 .L0 
C:\Users\stapi\AppData\Local\Temp\ccDKHoe4.s:1766   .text.lwiperf_tcp_recv:0000000000000008 .L0 
C:\Users\stapi\AppData\Local\Temp\ccDKHoe4.s:1767   .text.lwiperf_tcp_recv:0000000000000008 .L0 
C:\Users\stapi\AppData\Local\Temp\ccDKHoe4.s:1768   .text.lwiperf_tcp_recv:0000000000000008 .L0 
C:\Users\stapi\AppData\Local\Temp\ccDKHoe4.s:1769   .text.lwiperf_tcp_recv:0000000000000008 .L0 
C:\Users\stapi\AppData\Local\Temp\ccDKHoe4.s:1771   .text.lwiperf_tcp_recv:0000000000000008 .L0 
C:\Users\stapi\AppData\Local\Temp\ccDKHoe4.s:1772   .text.lwiperf_tcp_recv:0000000000000008 .L0 
C:\Users\stapi\AppData\Local\Temp\ccDKHoe4.s:1773   .text.lwiperf_tcp_recv:0000000000000008 .L0 
C:\Users\stapi\AppData\Local\Temp\ccDKHoe4.s:1774   .text.lwiperf_tcp_recv:0000000000000008 .L0 
C:\Users\stapi\AppData\Local\Temp\ccDKHoe4.s:1776   .text.lwiperf_tcp_recv:0000000000000008 .L0 
C:\Users\stapi\AppData\Local\Temp\ccDKHoe4.s:1777   .text.lwiperf_tcp_recv:0000000000000008 .L0 
C:\Users\stapi\AppData\Local\Temp\ccDKHoe4.s:1778   .text.lwiperf_tcp_recv:0000000000000008 .L0 
C:\Users\stapi\AppData\Local\Temp\ccDKHoe4.s:1781   .text.lwiperf_tcp_recv:000000000000000e .L0 
C:\Users\stapi\AppData\Local\Temp\ccDKHoe4.s:1782   .text.lwiperf_tcp_recv:000000000000000e .L0 
C:\Users\stapi\AppData\Local\Temp\ccDKHoe4.s:1797   .text.lwiperf_tcp_recv:0000000000000032 .L0 
C:\Users\stapi\AppData\Local\Temp\ccDKHoe4.s:1798   .text.lwiperf_tcp_recv:0000000000000032 .L0 
C:\Users\stapi\AppData\Local\Temp\ccDKHoe4.s:1799   .text.lwiperf_tcp_recv:0000000000000032 .L0 
C:\Users\stapi\AppData\Local\Temp\ccDKHoe4.s:1803   .text.lwiperf_tcp_recv:0000000000000034 .L0 
C:\Users\stapi\AppData\Local\Temp\ccDKHoe4.s:1804   .text.lwiperf_tcp_recv:0000000000000034 .L0 
C:\Users\stapi\AppData\Local\Temp\ccDKHoe4.s:1805   .text.lwiperf_tcp_recv:0000000000000034 .L0 
C:\Users\stapi\AppData\Local\Temp\ccDKHoe4.s:1806   .text.lwiperf_tcp_recv:0000000000000034 .L0 
C:\Users\stapi\AppData\Local\Temp\ccDKHoe4.s:1807   .text.lwiperf_tcp_recv:0000000000000034 .L0 
C:\Users\stapi\AppData\Local\Temp\ccDKHoe4.s:1809   .text.lwiperf_tcp_recv:0000000000000036 .L0 
C:\Users\stapi\AppData\Local\Temp\ccDKHoe4.s:1815   .text.lwiperf_tcp_recv:0000000000000038 .L0 
C:\Users\stapi\AppData\Local\Temp\ccDKHoe4.s:1821   .text.lwiperf_tcp_recv:0000000000000040 .L0 
C:\Users\stapi\AppData\Local\Temp\ccDKHoe4.s:1822   .text.lwiperf_tcp_recv:0000000000000040 .L0 
C:\Users\stapi\AppData\Local\Temp\ccDKHoe4.s:1824   .text.lwiperf_tcp_recv:000000000000004a .L0 
C:\Users\stapi\AppData\Local\Temp\ccDKHoe4.s:1825   .text.lwiperf_tcp_recv:000000000000004a .L0 
C:\Users\stapi\AppData\Local\Temp\ccDKHoe4.s:1826   .text.lwiperf_tcp_recv:000000000000004a .L0 
C:\Users\stapi\AppData\Local\Temp\ccDKHoe4.s:1827   .text.lwiperf_tcp_recv:000000000000004a .L0 
C:\Users\stapi\AppData\Local\Temp\ccDKHoe4.s:1828   .text.lwiperf_tcp_recv:000000000000004a .L0 
C:\Users\stapi\AppData\Local\Temp\ccDKHoe4.s:1829   .text.lwiperf_tcp_recv:000000000000004a .L0 
C:\Users\stapi\AppData\Local\Temp\ccDKHoe4.s:1830   .text.lwiperf_tcp_recv:000000000000004a .L0 
C:\Users\stapi\AppData\Local\Temp\ccDKHoe4.s:1833   .text.lwiperf_tcp_recv:000000000000004a .L0 
C:\Users\stapi\AppData\Local\Temp\ccDKHoe4.s:1840   .text.lwiperf_tcp_recv:000000000000004e .L0 
C:\Users\stapi\AppData\Local\Temp\ccDKHoe4.s:1841   .text.lwiperf_tcp_recv:000000000000004e .L0 
C:\Users\stapi\AppData\Local\Temp\ccDKHoe4.s:1844   .text.lwiperf_tcp_recv:0000000000000050 .L0 
C:\Users\stapi\AppData\Local\Temp\ccDKHoe4.s:1845   .text.lwiperf_tcp_recv:0000000000000050 .L0 
C:\Users\stapi\AppData\Local\Temp\ccDKHoe4.s:1847   .text.lwiperf_tcp_recv:0000000000000052 .L0 
C:\Users\stapi\AppData\Local\Temp\ccDKHoe4.s:1849   .text.lwiperf_tcp_recv:0000000000000056 .L0 
C:\Users\stapi\AppData\Local\Temp\ccDKHoe4.s:1851   .text.lwiperf_tcp_recv:0000000000000058 .L0 
C:\Users\stapi\AppData\Local\Temp\ccDKHoe4.s:1852   .text.lwiperf_tcp_recv:0000000000000058 .L0 
C:\Users\stapi\AppData\Local\Temp\ccDKHoe4.s:1855   .text.lwiperf_tcp_recv:000000000000005e .L0 
C:\Users\stapi\AppData\Local\Temp\ccDKHoe4.s:1857   .text.lwiperf_tcp_recv:0000000000000060 .L0 
C:\Users\stapi\AppData\Local\Temp\ccDKHoe4.s:1861   .text.lwiperf_tcp_recv:0000000000000068 .L0 
C:\Users\stapi\AppData\Local\Temp\ccDKHoe4.s:1867   .text.lwiperf_tcp_recv:000000000000006e .L0 
C:\Users\stapi\AppData\Local\Temp\ccDKHoe4.s:1869   .text.lwiperf_tcp_recv:0000000000000072 .L0 
C:\Users\stapi\AppData\Local\Temp\ccDKHoe4.s:1871   .text.lwiperf_tcp_recv:0000000000000076 .L0 
C:\Users\stapi\AppData\Local\Temp\ccDKHoe4.s:1875   .text.lwiperf_tcp_recv:000000000000007c .L0 
C:\Users\stapi\AppData\Local\Temp\ccDKHoe4.s:1876   .text.lwiperf_tcp_recv:000000000000007c .L0 
C:\Users\stapi\AppData\Local\Temp\ccDKHoe4.s:1877   .text.lwiperf_tcp_recv:000000000000007c .L0 
C:\Users\stapi\AppData\Local\Temp\ccDKHoe4.s:1878   .text.lwiperf_tcp_recv:000000000000007c .L0 
C:\Users\stapi\AppData\Local\Temp\ccDKHoe4.s:1880   .text.lwiperf_tcp_recv:000000000000007e .L0 
C:\Users\stapi\AppData\Local\Temp\ccDKHoe4.s:1883   .text.lwiperf_tcp_recv:0000000000000082 .L0 
C:\Users\stapi\AppData\Local\Temp\ccDKHoe4.s:1885   .text.lwiperf_tcp_recv:0000000000000084 .L0 
C:\Users\stapi\AppData\Local\Temp\ccDKHoe4.s:1891   .text.lwiperf_tcp_recv:0000000000000086 .L0 
C:\Users\stapi\AppData\Local\Temp\ccDKHoe4.s:1895   .text.lwiperf_tcp_recv:0000000000000088 .L0 
C:\Users\stapi\AppData\Local\Temp\ccDKHoe4.s:1899   .text.lwiperf_tcp_recv:000000000000008a .L0 
C:\Users\stapi\AppData\Local\Temp\ccDKHoe4.s:1900   .text.lwiperf_tcp_recv:000000000000008a .L0 
C:\Users\stapi\AppData\Local\Temp\ccDKHoe4.s:1902   .text.lwiperf_tcp_recv:000000000000008e .L0 
C:\Users\stapi\AppData\Local\Temp\ccDKHoe4.s:1905   .text.lwiperf_tcp_recv:0000000000000090 .L0 
C:\Users\stapi\AppData\Local\Temp\ccDKHoe4.s:1908   .text.lwiperf_tcp_recv:0000000000000092 .L0 
C:\Users\stapi\AppData\Local\Temp\ccDKHoe4.s:1909   .text.lwiperf_tcp_recv:0000000000000092 .L0 
C:\Users\stapi\AppData\Local\Temp\ccDKHoe4.s:1910   .text.lwiperf_tcp_recv:0000000000000092 .L0 
C:\Users\stapi\AppData\Local\Temp\ccDKHoe4.s:1912   .text.lwiperf_tcp_recv:0000000000000094 .L0 
C:\Users\stapi\AppData\Local\Temp\ccDKHoe4.s:1913   .text.lwiperf_tcp_recv:0000000000000094 .L0 
C:\Users\stapi\AppData\Local\Temp\ccDKHoe4.s:1917   .text.lwiperf_tcp_recv:000000000000009c .L0 
C:\Users\stapi\AppData\Local\Temp\ccDKHoe4.s:1918   .text.lwiperf_tcp_recv:000000000000009c .L0 
C:\Users\stapi\AppData\Local\Temp\ccDKHoe4.s:1929   .text.lwiperf_tcp_recv:00000000000000c0 .L0 
C:\Users\stapi\AppData\Local\Temp\ccDKHoe4.s:1930   .text.lwiperf_tcp_recv:00000000000000c0 .L0 
C:\Users\stapi\AppData\Local\Temp\ccDKHoe4.s:1931   .text.lwiperf_tcp_recv:00000000000000c0 .L0 
C:\Users\stapi\AppData\Local\Temp\ccDKHoe4.s:1935   .text.lwiperf_tcp_recv:00000000000000c2 .L0 
C:\Users\stapi\AppData\Local\Temp\ccDKHoe4.s:1936   .text.lwiperf_tcp_recv:00000000000000c2 .L0 
C:\Users\stapi\AppData\Local\Temp\ccDKHoe4.s:1937   .text.lwiperf_tcp_recv:00000000000000c2 .L0 
C:\Users\stapi\AppData\Local\Temp\ccDKHoe4.s:1940   .text.lwiperf_tcp_recv:00000000000000c8 .L0 
C:\Users\stapi\AppData\Local\Temp\ccDKHoe4.s:1942   .text.lwiperf_tcp_recv:00000000000000ca .L0 
C:\Users\stapi\AppData\Local\Temp\ccDKHoe4.s:1943   .text.lwiperf_tcp_recv:00000000000000ca .L0 
C:\Users\stapi\AppData\Local\Temp\ccDKHoe4.s:1952   .text.lwiperf_tcp_recv:00000000000000dc .L0 
C:\Users\stapi\AppData\Local\Temp\ccDKHoe4.s:1955   .text.lwiperf_tcp_recv:00000000000000de .L0 
C:\Users\stapi\AppData\Local\Temp\ccDKHoe4.s:1956   .text.lwiperf_tcp_recv:00000000000000de .L0 
C:\Users\stapi\AppData\Local\Temp\ccDKHoe4.s:1958   .text.lwiperf_tcp_recv:00000000000000e0 .L0 
C:\Users\stapi\AppData\Local\Temp\ccDKHoe4.s:1960   .text.lwiperf_tcp_recv:00000000000000e2 .L0 
C:\Users\stapi\AppData\Local\Temp\ccDKHoe4.s:1963   .text.lwiperf_tcp_recv:00000000000000e6 .L0 
C:\Users\stapi\AppData\Local\Temp\ccDKHoe4.s:1964   .text.lwiperf_tcp_recv:00000000000000e6 .L0 
C:\Users\stapi\AppData\Local\Temp\ccDKHoe4.s:1966   .text.lwiperf_tcp_recv:00000000000000ea .L0 
C:\Users\stapi\AppData\Local\Temp\ccDKHoe4.s:1967   .text.lwiperf_tcp_recv:00000000000000ea .L0 
C:\Users\stapi\AppData\Local\Temp\ccDKHoe4.s:1970   .text.lwiperf_tcp_recv:00000000000000f2 .L0 
C:\Users\stapi\AppData\Local\Temp\ccDKHoe4.s:1972   .text.lwiperf_tcp_recv:00000000000000f6 .L0 
C:\Users\stapi\AppData\Local\Temp\ccDKHoe4.s:1975   .text.lwiperf_tcp_recv:00000000000000f8 .L0 
C:\Users\stapi\AppData\Local\Temp\ccDKHoe4.s:1976   .text.lwiperf_tcp_recv:00000000000000f8 .L0 
C:\Users\stapi\AppData\Local\Temp\ccDKHoe4.s:1982   .text.lwiperf_tcp_recv:0000000000000104 .L0 
C:\Users\stapi\AppData\Local\Temp\ccDKHoe4.s:1983   .text.lwiperf_tcp_recv:0000000000000104 .L0 
C:\Users\stapi\AppData\Local\Temp\ccDKHoe4.s:1986   .text.lwiperf_tcp_recv:000000000000010a .L0 
C:\Users\stapi\AppData\Local\Temp\ccDKHoe4.s:1987   .text.lwiperf_tcp_recv:000000000000010a .L0 
C:\Users\stapi\AppData\Local\Temp\ccDKHoe4.s:1992   .text.lwiperf_tcp_recv:0000000000000116 .L0 
C:\Users\stapi\AppData\Local\Temp\ccDKHoe4.s:1993   .text.lwiperf_tcp_recv:0000000000000116 .L0 
C:\Users\stapi\AppData\Local\Temp\ccDKHoe4.s:1995   .text.lwiperf_tcp_recv:0000000000000118 .L0 
C:\Users\stapi\AppData\Local\Temp\ccDKHoe4.s:1996   .text.lwiperf_tcp_recv:0000000000000118 .L0 
C:\Users\stapi\AppData\Local\Temp\ccDKHoe4.s:2008   .text.lwiperf_tcp_recv:000000000000013c .L0 
C:\Users\stapi\AppData\Local\Temp\ccDKHoe4.s:2009   .text.lwiperf_tcp_recv:000000000000013c .L0 
C:\Users\stapi\AppData\Local\Temp\ccDKHoe4.s:2010   .text.lwiperf_tcp_recv:000000000000013c .L0 
C:\Users\stapi\AppData\Local\Temp\ccDKHoe4.s:2014   .text.lwiperf_tcp_recv:000000000000013e .L0 
C:\Users\stapi\AppData\Local\Temp\ccDKHoe4.s:2015   .text.lwiperf_tcp_recv:000000000000013e .L0 
C:\Users\stapi\AppData\Local\Temp\ccDKHoe4.s:2016   .text.lwiperf_tcp_recv:000000000000013e .L0 
C:\Users\stapi\AppData\Local\Temp\ccDKHoe4.s:2017   .text.lwiperf_tcp_recv:000000000000013e .L0 
C:\Users\stapi\AppData\Local\Temp\ccDKHoe4.s:2019   .text.lwiperf_tcp_recv:0000000000000140 .L0 
C:\Users\stapi\AppData\Local\Temp\ccDKHoe4.s:2021   .text.lwiperf_tcp_recv:0000000000000142 .L0 
C:\Users\stapi\AppData\Local\Temp\ccDKHoe4.s:2025   .text.lwiperf_tcp_recv:0000000000000146 .L0 
C:\Users\stapi\AppData\Local\Temp\ccDKHoe4.s:2029   .text.lwiperf_tcp_recv:0000000000000148 .L0 
C:\Users\stapi\AppData\Local\Temp\ccDKHoe4.s:2030   .text.lwiperf_tcp_recv:0000000000000148 .L0 
C:\Users\stapi\AppData\Local\Temp\ccDKHoe4.s:2035   .text.lwiperf_tcp_recv:000000000000014e .L0 
C:\Users\stapi\AppData\Local\Temp\ccDKHoe4.s:2039   .text.lwiperf_tcp_recv:0000000000000150 .L0 
C:\Users\stapi\AppData\Local\Temp\ccDKHoe4.s:2045   .text.lwiperf_tcp_recv:000000000000015a .L0 
C:\Users\stapi\AppData\Local\Temp\ccDKHoe4.s:2046   .text.lwiperf_tcp_recv:000000000000015a .L0 
C:\Users\stapi\AppData\Local\Temp\ccDKHoe4.s:2050   .text.lwiperf_tcp_recv:0000000000000164 .L0 
C:\Users\stapi\AppData\Local\Temp\ccDKHoe4.s:2051   .text.lwiperf_tcp_recv:0000000000000164 .L0 
C:\Users\stapi\AppData\Local\Temp\ccDKHoe4.s:2055   .text.lwiperf_tcp_recv:0000000000000166 .L0 
C:\Users\stapi\AppData\Local\Temp\ccDKHoe4.s:2056   .text.lwiperf_tcp_recv:0000000000000166 .L0 
C:\Users\stapi\AppData\Local\Temp\ccDKHoe4.s:2059   .text.lwiperf_tcp_recv:000000000000016c .L0 
C:\Users\stapi\AppData\Local\Temp\ccDKHoe4.s:2060   .text.lwiperf_tcp_recv:000000000000016c .L0 
C:\Users\stapi\AppData\Local\Temp\ccDKHoe4.s:2061   .text.lwiperf_tcp_recv:000000000000016c .L0 
C:\Users\stapi\AppData\Local\Temp\ccDKHoe4.s:2068   .text.lwiperf_tcp_recv:000000000000017c .L0 
C:\Users\stapi\AppData\Local\Temp\ccDKHoe4.s:2070   .text.lwiperf_tcp_recv:000000000000017e .L0 
C:\Users\stapi\AppData\Local\Temp\ccDKHoe4.s:2072   .text.lwiperf_tcp_recv:0000000000000180 .L0 
C:\Users\stapi\AppData\Local\Temp\ccDKHoe4.s:2074   .text.lwiperf_tcp_recv:0000000000000184 .L0 
C:\Users\stapi\AppData\Local\Temp\ccDKHoe4.s:2075   .text.lwiperf_tcp_recv:0000000000000184 .L0 
C:\Users\stapi\AppData\Local\Temp\ccDKHoe4.s:2077   .text.lwiperf_tcp_recv:0000000000000186 .L0 
C:\Users\stapi\AppData\Local\Temp\ccDKHoe4.s:2079   .text.lwiperf_tcp_recv:0000000000000188 .L0 
C:\Users\stapi\AppData\Local\Temp\ccDKHoe4.s:2081   .text.lwiperf_tcp_recv:000000000000018c .L0 
C:\Users\stapi\AppData\Local\Temp\ccDKHoe4.s:2082   .text.lwiperf_tcp_recv:000000000000018c .L0 
C:\Users\stapi\AppData\Local\Temp\ccDKHoe4.s:2083   .text.lwiperf_tcp_recv:000000000000018c .L0 
C:\Users\stapi\AppData\Local\Temp\ccDKHoe4.s:2089   .text.lwiperf_tcp_recv:000000000000019a .L0 
C:\Users\stapi\AppData\Local\Temp\ccDKHoe4.s:2090   .text.lwiperf_tcp_recv:000000000000019a .L0 
C:\Users\stapi\AppData\Local\Temp\ccDKHoe4.s:2094   .text.lwiperf_tcp_recv:00000000000001a4 .L0 
C:\Users\stapi\AppData\Local\Temp\ccDKHoe4.s:2095   .text.lwiperf_tcp_recv:00000000000001a4 .L0 
C:\Users\stapi\AppData\Local\Temp\ccDKHoe4.s:2097   .text.lwiperf_tcp_recv:00000000000001a6 .L0 
C:\Users\stapi\AppData\Local\Temp\ccDKHoe4.s:2102   .text.lwiperf_tcp_recv:00000000000001aa .L0 
C:\Users\stapi\AppData\Local\Temp\ccDKHoe4.s:2109   .text.lwiperf_start_tcp_server:0000000000000000 lwiperf_start_tcp_server
C:\Users\stapi\AppData\Local\Temp\ccDKHoe4.s:2112   .text.lwiperf_start_tcp_server:0000000000000000 .L0 
C:\Users\stapi\AppData\Local\Temp\ccDKHoe4.s:2114   .text.lwiperf_start_tcp_server:0000000000000000 .L0 
C:\Users\stapi\AppData\Local\Temp\ccDKHoe4.s:2115   .text.lwiperf_start_tcp_server:0000000000000008 .L0 
C:\Users\stapi\AppData\Local\Temp\ccDKHoe4.s:2116   .text.lwiperf_start_tcp_server:0000000000000008 .L0 
C:\Users\stapi\AppData\Local\Temp\ccDKHoe4.s:2118   .text.lwiperf_start_tcp_server:0000000000000008 .L0 
C:\Users\stapi\AppData\Local\Temp\ccDKHoe4.s:2119   .text.lwiperf_start_tcp_server:0000000000000008 .L0 
C:\Users\stapi\AppData\Local\Temp\ccDKHoe4.s:2120   .text.lwiperf_start_tcp_server:0000000000000008 .L0 
C:\Users\stapi\AppData\Local\Temp\ccDKHoe4.s:2121   .text.lwiperf_start_tcp_server:000000000000000a .L0 
C:\Users\stapi\AppData\Local\Temp\ccDKHoe4.s:2123   .text.lwiperf_start_tcp_server:000000000000000a .L0 
C:\Users\stapi\AppData\Local\Temp\ccDKHoe4.s:2126   .text.lwiperf_start_tcp_server:000000000000000e .L0 
C:\Users\stapi\AppData\Local\Temp\ccDKHoe4.s:2128   .text.lwiperf_start_tcp_server:0000000000000010 .L0 
C:\Users\stapi\AppData\Local\Temp\ccDKHoe4.s:2129   .text.lwiperf_start_tcp_server:0000000000000010 .L0 
C:\Users\stapi\AppData\Local\Temp\ccDKHoe4.s:2132   .text.lwiperf_start_tcp_server:0000000000000018 .L0 
C:\Users\stapi\AppData\Local\Temp\ccDKHoe4.s:2133   .text.lwiperf_start_tcp_server:0000000000000018 .L0 
C:\Users\stapi\AppData\Local\Temp\ccDKHoe4.s:2135   .text.lwiperf_start_tcp_server:000000000000001a .L0 
C:\Users\stapi\AppData\Local\Temp\ccDKHoe4.s:2136   .text.lwiperf_start_tcp_server:000000000000001a .L0 
C:\Users\stapi\AppData\Local\Temp\ccDKHoe4.s:2140   .text.lwiperf_start_tcp_server:000000000000001c .L0 
C:\Users\stapi\AppData\Local\Temp\ccDKHoe4.s:2141   .text.lwiperf_start_tcp_server:000000000000001e .L0 
C:\Users\stapi\AppData\Local\Temp\ccDKHoe4.s:2142   .text.lwiperf_start_tcp_server:000000000000001e .L0 
C:\Users\stapi\AppData\Local\Temp\ccDKHoe4.s:2144   .text.lwiperf_start_tcp_server:0000000000000026 .L0 
C:\Users\stapi\AppData\Local\Temp\ccDKHoe4.s:2145   .text.lwiperf_start_tcp_server:0000000000000026 .L0 
C:\Users\stapi\AppData\Local\Temp\ccDKHoe4.s:2148   .text.lwiperf_start_tcp_server:0000000000000026 .L0 
C:\Users\stapi\AppData\Local\Temp\ccDKHoe4.s:2150   .text.lwiperf_start_tcp_server:0000000000000026 .L0 
C:\Users\stapi\AppData\Local\Temp\ccDKHoe4.s:2153   .text.lwiperf_start_tcp_server:000000000000002a .L0 
C:\Users\stapi\AppData\Local\Temp\ccDKHoe4.s:2160   .text.lwiperf_start_tcp_server_default:0000000000000000 lwiperf_start_tcp_server_default
C:\Users\stapi\AppData\Local\Temp\ccDKHoe4.s:2163   .text.lwiperf_start_tcp_server_default:0000000000000000 .L0 
C:\Users\stapi\AppData\Local\Temp\ccDKHoe4.s:2165   .text.lwiperf_start_tcp_server_default:0000000000000000 .L0 
C:\Users\stapi\AppData\Local\Temp\ccDKHoe4.s:2166   .text.lwiperf_start_tcp_server_default:0000000000000000 .L0 
C:\Users\stapi\AppData\Local\Temp\ccDKHoe4.s:2167   .text.lwiperf_start_tcp_server_default:0000000000000000 .L0 
C:\Users\stapi\AppData\Local\Temp\ccDKHoe4.s:2170   .text.lwiperf_start_tcp_server_default:0000000000000004 .L0 
C:\Users\stapi\AppData\Local\Temp\ccDKHoe4.s:2178   .text.lwiperf_start_tcp_server_default:000000000000001a .L0 
C:\Users\stapi\AppData\Local\Temp\ccDKHoe4.s:2185   .text.lwiperf_abort:0000000000000000 lwiperf_abort
C:\Users\stapi\AppData\Local\Temp\ccDKHoe4.s:2188   .text.lwiperf_abort:0000000000000000 .L0 
C:\Users\stapi\AppData\Local\Temp\ccDKHoe4.s:2190   .text.lwiperf_abort:0000000000000000 .L0 
C:\Users\stapi\AppData\Local\Temp\ccDKHoe4.s:2191   .text.lwiperf_abort:0000000000000008 .L0 
C:\Users\stapi\AppData\Local\Temp\ccDKHoe4.s:2192   .text.lwiperf_abort:0000000000000008 .L0 
C:\Users\stapi\AppData\Local\Temp\ccDKHoe4.s:2193   .text.lwiperf_abort:0000000000000008 .L0 
C:\Users\stapi\AppData\Local\Temp\ccDKHoe4.s:2194   .text.lwiperf_abort:0000000000000008 .L0 
C:\Users\stapi\AppData\Local\Temp\ccDKHoe4.s:2195   .text.lwiperf_abort:0000000000000008 .L0 
C:\Users\stapi\AppData\Local\Temp\ccDKHoe4.s:2198   .text.lwiperf_abort:0000000000000008 .L0 
C:\Users\stapi\AppData\Local\Temp\ccDKHoe4.s:2199   .text.lwiperf_abort:0000000000000008 .L0 
C:\Users\stapi\AppData\Local\Temp\ccDKHoe4.s:2200   .text.lwiperf_abort:0000000000000008 .L0 
C:\Users\stapi\AppData\Local\Temp\ccDKHoe4.s:2201   .text.lwiperf_abort:0000000000000008 .L0 
C:\Users\stapi\AppData\Local\Temp\ccDKHoe4.s:2203   .text.lwiperf_abort:000000000000000c .L0 
C:\Users\stapi\AppData\Local\Temp\ccDKHoe4.s:2205   .text.lwiperf_abort:000000000000000e .L0 
C:\Users\stapi\AppData\Local\Temp\ccDKHoe4.s:2208   .text.lwiperf_abort:0000000000000012 .L0 
C:\Users\stapi\AppData\Local\Temp\ccDKHoe4.s:2212   .text.lwiperf_abort:0000000000000014 .L0 
C:\Users\stapi\AppData\Local\Temp\ccDKHoe4.s:2213   .text.lwiperf_abort:0000000000000014 .L0 
C:\Users\stapi\AppData\Local\Temp\ccDKHoe4.s:2215   .text.lwiperf_abort:0000000000000016 .L0 
C:\Users\stapi\AppData\Local\Temp\ccDKHoe4.s:2216   .text.lwiperf_abort:000000000000001e .L0 
C:\Users\stapi\AppData\Local\Temp\ccDKHoe4.s:2217   .text.lwiperf_abort:000000000000001e .L0 
C:\Users\stapi\AppData\Local\Temp\ccDKHoe4.s:2218   .text.lwiperf_abort:000000000000001e .L0 
C:\Users\stapi\AppData\Local\Temp\ccDKHoe4.s:2219   .text.lwiperf_abort:000000000000001e .L0 
C:\Users\stapi\AppData\Local\Temp\ccDKHoe4.s:2220   .text.lwiperf_abort:000000000000001e .L0 
C:\Users\stapi\AppData\Local\Temp\ccDKHoe4.s:2221   .text.lwiperf_abort:000000000000001e .L0 
C:\Users\stapi\AppData\Local\Temp\ccDKHoe4.s:2223   .text.lwiperf_abort:000000000000001e .L0 
C:\Users\stapi\AppData\Local\Temp\ccDKHoe4.s:2225   .text.lwiperf_abort:000000000000001e .L0 
C:\Users\stapi\AppData\Local\Temp\ccDKHoe4.s:2226   .text.lwiperf_abort:000000000000001e .L0 
C:\Users\stapi\AppData\Local\Temp\ccDKHoe4.s:2228   .text.lwiperf_abort:0000000000000022 .L0 
C:\Users\stapi\AppData\Local\Temp\ccDKHoe4.s:2230   .text.lwiperf_abort:0000000000000026 .L0 
C:\Users\stapi\AppData\Local\Temp\ccDKHoe4.s:2235   .text.lwiperf_abort:000000000000002c .L0 
C:\Users\stapi\AppData\Local\Temp\ccDKHoe4.s:2236   .text.lwiperf_abort:000000000000002c .L0 
C:\Users\stapi\AppData\Local\Temp\ccDKHoe4.s:2237   .text.lwiperf_abort:000000000000002c .L0 
C:\Users\stapi\AppData\Local\Temp\ccDKHoe4.s:2238   .text.lwiperf_abort:000000000000002c .L0 
C:\Users\stapi\AppData\Local\Temp\ccDKHoe4.s:2240   .text.lwiperf_abort:000000000000002e .L0 
C:\Users\stapi\AppData\Local\Temp\ccDKHoe4.s:2241   .text.lwiperf_abort:000000000000002e .L0 
C:\Users\stapi\AppData\Local\Temp\ccDKHoe4.s:2245   .text.lwiperf_abort:0000000000000032 .L0 
C:\Users\stapi\AppData\Local\Temp\ccDKHoe4.s:2251   .text.lwiperf_abort:000000000000003c .L0 
C:\Users\stapi\AppData\Local\Temp\ccDKHoe4.s:2254   .text.lwiperf_abort:0000000000000042 .L0 
C:\Users\stapi\AppData\Local\Temp\ccDKHoe4.s:2265   .text.lwiperf_start_tcp_client:0000000000000000 lwiperf_start_tcp_client
C:\Users\stapi\AppData\Local\Temp\ccDKHoe4.s:2268   .text.lwiperf_start_tcp_client:0000000000000000 .L0 
C:\Users\stapi\AppData\Local\Temp\ccDKHoe4.s:2270   .text.lwiperf_start_tcp_client:0000000000000000 .L0 
C:\Users\stapi\AppData\Local\Temp\ccDKHoe4.s:2271   .text.lwiperf_start_tcp_client:0000000000000008 .L0 
C:\Users\stapi\AppData\Local\Temp\ccDKHoe4.s:2272   .text.lwiperf_start_tcp_client:0000000000000008 .L0 
C:\Users\stapi\AppData\Local\Temp\ccDKHoe4.s:2273   .text.lwiperf_start_tcp_client:0000000000000008 .L0 
C:\Users\stapi\AppData\Local\Temp\ccDKHoe4.s:2274   .text.lwiperf_start_tcp_client:0000000000000008 .L0 
C:\Users\stapi\AppData\Local\Temp\ccDKHoe4.s:2275   .text.lwiperf_start_tcp_client:0000000000000008 .L0 
C:\Users\stapi\AppData\Local\Temp\ccDKHoe4.s:2276   .text.lwiperf_start_tcp_client:0000000000000008 .L0 
C:\Users\stapi\AppData\Local\Temp\ccDKHoe4.s:2277   .text.lwiperf_start_tcp_client:0000000000000008 .L0 
C:\Users\stapi\AppData\Local\Temp\ccDKHoe4.s:2278   .text.lwiperf_start_tcp_client:0000000000000008 .L0 
C:\Users\stapi\AppData\Local\Temp\ccDKHoe4.s:2280   .text.lwiperf_start_tcp_client:0000000000000008 .L0 
C:\Users\stapi\AppData\Local\Temp\ccDKHoe4.s:2281   .text.lwiperf_start_tcp_client:0000000000000008 .L0 
C:\Users\stapi\AppData\Local\Temp\ccDKHoe4.s:2282   .text.lwiperf_start_tcp_client:0000000000000008 .L0 
C:\Users\stapi\AppData\Local\Temp\ccDKHoe4.s:2283   .text.lwiperf_start_tcp_client:0000000000000008 .L0 
C:\Users\stapi\AppData\Local\Temp\ccDKHoe4.s:2284   .text.lwiperf_start_tcp_client:000000000000000a .L0 
C:\Users\stapi\AppData\Local\Temp\ccDKHoe4.s:2286   .text.lwiperf_start_tcp_client:000000000000000a .L0 
C:\Users\stapi\AppData\Local\Temp\ccDKHoe4.s:2290   .text.lwiperf_start_tcp_client:0000000000000010 .L0 
C:\Users\stapi\AppData\Local\Temp\ccDKHoe4.s:2297   .text.lwiperf_start_tcp_client:0000000000000016 .L0 
C:\Users\stapi\AppData\Local\Temp\ccDKHoe4.s:2300   .text.lwiperf_start_tcp_client:000000000000001a .L0 
C:\Users\stapi\AppData\Local\Temp\ccDKHoe4.s:2302   .text.lwiperf_start_tcp_client:000000000000001c .L0 
C:\Users\stapi\AppData\Local\Temp\ccDKHoe4.s:2305   .text.lwiperf_start_tcp_client:0000000000000024 .L0 
C:\Users\stapi\AppData\Local\Temp\ccDKHoe4.s:2312   .text.lwiperf_start_tcp_client:0000000000000032 .L0 
C:\Users\stapi\AppData\Local\Temp\ccDKHoe4.s:2316   .text.lwiperf_start_tcp_client:0000000000000036 .L0 
C:\Users\stapi\AppData\Local\Temp\ccDKHoe4.s:2317   .text.lwiperf_start_tcp_client:0000000000000036 .L0 
C:\Users\stapi\AppData\Local\Temp\ccDKHoe4.s:2321   .text.lwiperf_start_tcp_client:000000000000003c .L0 
C:\Users\stapi\AppData\Local\Temp\ccDKHoe4.s:2324   .text.lwiperf_start_tcp_client:0000000000000044 .L0 
C:\Users\stapi\AppData\Local\Temp\ccDKHoe4.s:2327   .text.lwiperf_start_tcp_client:0000000000000046 .L0 
C:\Users\stapi\AppData\Local\Temp\ccDKHoe4.s:2328   .text.lwiperf_start_tcp_client:0000000000000046 .L0 
C:\Users\stapi\AppData\Local\Temp\ccDKHoe4.s:2329   .text.lwiperf_start_tcp_client:0000000000000046 .L0 
C:\Users\stapi\AppData\Local\Temp\ccDKHoe4.s:2333   .text.lwiperf_start_tcp_client:0000000000000050 .L0 
C:\Users\stapi\AppData\Local\Temp\ccDKHoe4.s:2335   .text.lwiperf_start_tcp_client:0000000000000052 .L0 
C:\Users\stapi\AppData\Local\Temp\ccDKHoe4.s:2337   .text.lwiperf_start_tcp_client:0000000000000054 .L0 
C:\Users\stapi\AppData\Local\Temp\ccDKHoe4.s:2338   .text.lwiperf_start_tcp_client:0000000000000054 .L0 
C:\Users\stapi\AppData\Local\Temp\ccDKHoe4.s:2342   .text.lwiperf_start_tcp_client:0000000000000060 .L0 
C:\Users\stapi\AppData\Local\Temp\ccDKHoe4.s:2344   .text.lwiperf_start_tcp_client:0000000000000062 .L0 
C:\Users\stapi\AppData\Local\Temp\ccDKHoe4.s:2345   .text.lwiperf_start_tcp_client:0000000000000062 .L0 
C:\Users\stapi\AppData\Local\Temp\ccDKHoe4.s:2349   .text.lwiperf_start_tcp_client:000000000000006e .L0 
C:\Users\stapi\AppData\Local\Temp\ccDKHoe4.s:2351   .text.lwiperf_start_tcp_client:0000000000000070 .L0 
C:\Users\stapi\AppData\Local\Temp\ccDKHoe4.s:2352   .text.lwiperf_start_tcp_client:0000000000000070 .L0 
C:\Users\stapi\AppData\Local\Temp\ccDKHoe4.s:2362   .text.lwiperf_start_tcp_client:0000000000000086 .L0 
C:\Users\stapi\AppData\Local\Temp\ccDKHoe4.s:2363   .text.lwiperf_start_tcp_client:0000000000000086 .L0 
C:\Users\stapi\AppData\Local\Temp\ccDKHoe4.s:2365   .text.lwiperf_start_tcp_client:0000000000000088 .L0 
C:\Users\stapi\AppData\Local\Temp\ccDKHoe4.s:2366   .text.lwiperf_start_tcp_client:0000000000000088 .L0 
C:\Users\stapi\AppData\Local\Temp\ccDKHoe4.s:2369   .text.lwiperf_start_tcp_client:000000000000008c .L0 
C:\Users\stapi\AppData\Local\Temp\ccDKHoe4.s:2370   .text.lwiperf_start_tcp_client:000000000000008c .L0 
C:\Users\stapi\AppData\Local\Temp\ccDKHoe4.s:2382   .text.lwiperf_start_tcp_client:00000000000000b0 .L0 
C:\Users\stapi\AppData\Local\Temp\ccDKHoe4.s:2383   .text.lwiperf_start_tcp_client:00000000000000b0 .L0 
C:\Users\stapi\AppData\Local\Temp\ccDKHoe4.s:2384   .text.lwiperf_start_tcp_client:00000000000000b0 .L0 
C:\Users\stapi\AppData\Local\Temp\ccDKHoe4.s:2387   .text.lwiperf_start_tcp_client:00000000000000b2 .L0 
C:\Users\stapi\AppData\Local\Temp\ccDKHoe4.s:2388   .text.lwiperf_start_tcp_client:00000000000000b2 .L0 
C:\Users\stapi\AppData\Local\Temp\ccDKHoe4.s:2393   .text.lwiperf_start_tcp_client:00000000000000b8 .L0 
C:\Users\stapi\AppData\Local\Temp\ccDKHoe4.s:2394   .text.lwiperf_start_tcp_client:00000000000000b8 .L0 
C:\Users\stapi\AppData\Local\Temp\ccDKHoe4.s:2395   .text.lwiperf_start_tcp_client:00000000000000b8 .L0 
C:\Users\stapi\AppData\Local\Temp\ccDKHoe4.s:2396   .text.lwiperf_start_tcp_client:00000000000000b8 .L0 
C:\Users\stapi\AppData\Local\Temp\ccDKHoe4.s:2399   .text.lwiperf_start_tcp_client:00000000000000ba .L0 
C:\Users\stapi\AppData\Local\Temp\ccDKHoe4.s:2400   .text.lwiperf_start_tcp_client:00000000000000ba .L0 
C:\Users\stapi\AppData\Local\Temp\ccDKHoe4.s:2407   .text.lwiperf_start_tcp_client:00000000000000c6 .L0 
C:\Users\stapi\AppData\Local\Temp\ccDKHoe4.s:2409   .text.lwiperf_start_tcp_client:00000000000000c8 .L0 
C:\Users\stapi\AppData\Local\Temp\ccDKHoe4.s:2410   .text.lwiperf_start_tcp_client:00000000000000c8 .L0 
C:\Users\stapi\AppData\Local\Temp\ccDKHoe4.s:2413   .text.lwiperf_start_tcp_client:00000000000000d0 .L0 
C:\Users\stapi\AppData\Local\Temp\ccDKHoe4.s:2415   .text.lwiperf_start_tcp_client:00000000000000d2 .L0 
C:\Users\stapi\AppData\Local\Temp\ccDKHoe4.s:2417   .text.lwiperf_start_tcp_client:00000000000000d4 .L0 
C:\Users\stapi\AppData\Local\Temp\ccDKHoe4.s:2422   .text.lwiperf_start_tcp_client:00000000000000de .L0 
C:\Users\stapi\AppData\Local\Temp\ccDKHoe4.s:2426   .text.lwiperf_start_tcp_client:00000000000000e0 .L0 
C:\Users\stapi\AppData\Local\Temp\ccDKHoe4.s:2427   .text.lwiperf_start_tcp_client:00000000000000e0 .L0 
C:\Users\stapi\AppData\Local\Temp\ccDKHoe4.s:2429   .text.lwiperf_start_tcp_client:00000000000000e2 .L0 
C:\Users\stapi\AppData\Local\Temp\ccDKHoe4.s:2432   .text.lwiperf_start_tcp_client:00000000000000e8 .L0 
C:\Users\stapi\AppData\Local\Temp\ccDKHoe4.s:2433   .text.lwiperf_start_tcp_client:00000000000000e8 .L0 
C:\Users\stapi\AppData\Local\Temp\ccDKHoe4.s:2437   .text.lwiperf_start_tcp_client:00000000000000ee .L0 
C:\Users\stapi\AppData\Local\Temp\ccDKHoe4.s:2438   .text.lwiperf_start_tcp_client:00000000000000ee .L0 
C:\Users\stapi\AppData\Local\Temp\ccDKHoe4.s:2441   .text.lwiperf_start_tcp_client:00000000000000f4 .L0 
C:\Users\stapi\AppData\Local\Temp\ccDKHoe4.s:2442   .text.lwiperf_start_tcp_client:00000000000000f4 .L0 
C:\Users\stapi\AppData\Local\Temp\ccDKHoe4.s:2446   .text.lwiperf_start_tcp_client:00000000000000f8 .L0 
C:\Users\stapi\AppData\Local\Temp\ccDKHoe4.s:2447   .text.lwiperf_start_tcp_client:00000000000000f8 .L0 
C:\Users\stapi\AppData\Local\Temp\ccDKHoe4.s:2451   .text.lwiperf_start_tcp_client:00000000000000fa .L0 
C:\Users\stapi\AppData\Local\Temp\ccDKHoe4.s:2452   .text.lwiperf_start_tcp_client:00000000000000fc .L0 
C:\Users\stapi\AppData\Local\Temp\ccDKHoe4.s:2454   .text.lwiperf_start_tcp_client:0000000000000104 .L0 
C:\Users\stapi\AppData\Local\Temp\ccDKHoe4.s:2455   .text.lwiperf_start_tcp_client:0000000000000104 .L0 
C:\Users\stapi\AppData\Local\Temp\ccDKHoe4.s:2456   .text.lwiperf_start_tcp_client:0000000000000104 .L0 
C:\Users\stapi\AppData\Local\Temp\ccDKHoe4.s:2457   .text.lwiperf_start_tcp_client:0000000000000104 .L0 
C:\Users\stapi\AppData\Local\Temp\ccDKHoe4.s:2458   .text.lwiperf_start_tcp_client:0000000000000104 .L0 
C:\Users\stapi\AppData\Local\Temp\ccDKHoe4.s:2459   .text.lwiperf_start_tcp_client:0000000000000104 .L0 
C:\Users\stapi\AppData\Local\Temp\ccDKHoe4.s:2460   .text.lwiperf_start_tcp_client:0000000000000104 .L0 
C:\Users\stapi\AppData\Local\Temp\ccDKHoe4.s:2461   .text.lwiperf_start_tcp_client:0000000000000104 .L0 
C:\Users\stapi\AppData\Local\Temp\ccDKHoe4.s:2462   .text.lwiperf_start_tcp_client:0000000000000104 .L0 
C:\Users\stapi\AppData\Local\Temp\ccDKHoe4.s:2469   .text.lwiperf_start_tcp_client_default:0000000000000000 lwiperf_start_tcp_client_default
C:\Users\stapi\AppData\Local\Temp\ccDKHoe4.s:2472   .text.lwiperf_start_tcp_client_default:0000000000000000 .L0 
C:\Users\stapi\AppData\Local\Temp\ccDKHoe4.s:2474   .text.lwiperf_start_tcp_client_default:0000000000000000 .L0 
C:\Users\stapi\AppData\Local\Temp\ccDKHoe4.s:2475   .text.lwiperf_start_tcp_client_default:0000000000000000 .L0 
C:\Users\stapi\AppData\Local\Temp\ccDKHoe4.s:2476   .text.lwiperf_start_tcp_client_default:0000000000000000 .L0 
C:\Users\stapi\AppData\Local\Temp\ccDKHoe4.s:2478   .text.lwiperf_start_tcp_client_default:0000000000000002 .L0 
C:\Users\stapi\AppData\Local\Temp\ccDKHoe4.s:2481   .text.lwiperf_start_tcp_client_default:0000000000000004 .L0 
C:\Users\stapi\AppData\Local\Temp\ccDKHoe4.s:2483   .text.lwiperf_start_tcp_client_default:0000000000000006 .L0 
C:\Users\stapi\AppData\Local\Temp\ccDKHoe4.s:2488   .text.lwiperf_start_tcp_client_default:0000000000000014 .L0 
C:\Users\stapi\AppData\Local\Temp\ccDKHoe4.s:2493   .bss.lwiperf_txbuf_const:0000000000000000 .LANCHOR1
C:\Users\stapi\AppData\Local\Temp\ccDKHoe4.s:2496   .bss.lwiperf_txbuf_const:0000000000000000 lwiperf_txbuf_const
C:\Users\stapi\AppData\Local\Temp\ccDKHoe4.s:2500   .sbss.lwiperf_all_connections:0000000000000000 .LANCHOR0
C:\Users\stapi\AppData\Local\Temp\ccDKHoe4.s:2503   .sbss.lwiperf_all_connections:0000000000000000 lwiperf_all_connections
C:\Users\stapi\AppData\Local\Temp\ccDKHoe4.s:281    .text.lwiperf_tcp_close:000000000000013c .L0 
C:\Users\stapi\AppData\Local\Temp\ccDKHoe4.s:299    .text.lwiperf_tcp_err:000000000000000a .L0 
C:\Users\stapi\AppData\Local\Temp\ccDKHoe4.s:660    .text.lwiperf_tcp_accept:00000000000001c8 .L0 
C:\Users\stapi\AppData\Local\Temp\ccDKHoe4.s:947    .text.lwiperf_tcp_client_send_more:0000000000000124 .L0 
C:\Users\stapi\AppData\Local\Temp\ccDKHoe4.s:1011   .text.lwiperf_tcp_client_sent:0000000000000048 .L0 
C:\Users\stapi\AppData\Local\Temp\ccDKHoe4.s:1097   .text.lwiperf_tcp_poll:000000000000006c .L0 
C:\Users\stapi\AppData\Local\Temp\ccDKHoe4.s:1184   .text.lwiperf_tcp_client_connected:0000000000000066 .L0 
C:\Users\stapi\AppData\Local\Temp\ccDKHoe4.s:1386   .text.lwiperf_start_tcp_server_impl.constprop.0:00000000000000f4 .L0 
C:\Users\stapi\AppData\Local\Temp\ccDKHoe4.s:1659   .text.lwiperf_tx_start_impl:000000000000014e .L0 
C:\Users\stapi\AppData\Local\Temp\ccDKHoe4.s:1748   .text.lwiperf_tx_start_passive:0000000000000074 .L0 
C:\Users\stapi\AppData\Local\Temp\ccDKHoe4.s:2105   .text.lwiperf_tcp_recv:00000000000001aa .L0 
C:\Users\stapi\AppData\Local\Temp\ccDKHoe4.s:2156   .text.lwiperf_start_tcp_server:000000000000002a .L0 
C:\Users\stapi\AppData\Local\Temp\ccDKHoe4.s:2181   .text.lwiperf_start_tcp_server_default:000000000000001a .L0 
C:\Users\stapi\AppData\Local\Temp\ccDKHoe4.s:2257   .text.lwiperf_abort:0000000000000042 .L0 
C:\Users\stapi\AppData\Local\Temp\ccDKHoe4.s:2465   .text.lwiperf_start_tcp_client:0000000000000104 .L0 
C:\Users\stapi\AppData\Local\Temp\ccDKHoe4.s:2491   .text.lwiperf_start_tcp_client_default:0000000000000014 .L0 
                     .debug_frame:0000000000000000 .L0 
C:\Users\stapi\AppData\Local\Temp\ccDKHoe4.s:11     .rodata.lwiperf_tcp_close.str1.4:0000000000000000 .LC0
C:\Users\stapi\AppData\Local\Temp\ccDKHoe4.s:14     .rodata.lwiperf_tcp_close.str1.4:0000000000000098 .LC1
C:\Users\stapi\AppData\Local\Temp\ccDKHoe4.s:17     .rodata.lwiperf_tcp_close.str1.4:00000000000000a8 .LC2
C:\Users\stapi\AppData\Local\Temp\ccDKHoe4.s:20     .rodata.lwiperf_tcp_close.str1.4:00000000000000d0 .LC3
C:\Users\stapi\AppData\Local\Temp\ccDKHoe4.s:84     .text.lwiperf_tcp_close:000000000000002a .L12
C:\Users\stapi\AppData\Local\Temp\ccDKHoe4.s:189    .text.lwiperf_tcp_close:00000000000000c4 .L18
C:\Users\stapi\AppData\Local\Temp\ccDKHoe4.s:157    .text.lwiperf_tcp_close:0000000000000096 .L3
C:\Users\stapi\AppData\Local\Temp\ccDKHoe4.s:166    .text.lwiperf_tcp_close:000000000000009a .L8
C:\Users\stapi\AppData\Local\Temp\ccDKHoe4.s:197    .text.lwiperf_tcp_close:00000000000000ca .L9
C:\Users\stapi\AppData\Local\Temp\ccDKHoe4.s:249    .text.lwiperf_tcp_close:000000000000010a .L14
C:\Users\stapi\AppData\Local\Temp\ccDKHoe4.s:141    .text.lwiperf_tcp_close:0000000000000082 .L16
C:\Users\stapi\AppData\Local\Temp\ccDKHoe4.s:74     .text.lwiperf_tcp_close:0000000000000026 .L6
C:\Users\stapi\AppData\Local\Temp\ccDKHoe4.s:183    .text.lwiperf_tcp_close:00000000000000c2 .L7
C:\Users\stapi\AppData\Local\Temp\ccDKHoe4.s:59     .text.lwiperf_tcp_close:000000000000001a .L2
C:\Users\stapi\AppData\Local\Temp\ccDKHoe4.s:95     .text.lwiperf_tcp_close:000000000000002c .L10
C:\Users\stapi\AppData\Local\Temp\ccDKHoe4.s:232    .text.lwiperf_tcp_close:00000000000000f0 .L13
C:\Users\stapi\AppData\Local\Temp\ccDKHoe4.s:273    .text.lwiperf_tcp_close:000000000000013a .L17
C:\Users\stapi\AppData\Local\Temp\ccDKHoe4.s:301    .rodata.lwiperf_tcp_accept.str1.4:0000000000000000 .LC4
C:\Users\stapi\AppData\Local\Temp\ccDKHoe4.s:304    .rodata.lwiperf_tcp_accept.str1.4:0000000000000010 .LC5
C:\Users\stapi\AppData\Local\Temp\ccDKHoe4.s:307    .rodata.lwiperf_tcp_accept.str1.4:0000000000000024 .LC6
C:\Users\stapi\AppData\Local\Temp\ccDKHoe4.s:310    .rodata.lwiperf_tcp_accept.str1.4:0000000000000038 .LC7
C:\Users\stapi\AppData\Local\Temp\ccDKHoe4.s:313    .rodata.lwiperf_tcp_accept.str1.4:0000000000000060 .LC8
C:\Users\stapi\AppData\Local\Temp\ccDKHoe4.s:462    .text.lwiperf_tcp_accept:00000000000000cc .L55
C:\Users\stapi\AppData\Local\Temp\ccDKHoe4.s:366    .text.lwiperf_tcp_accept:000000000000003e .L35
C:\Users\stapi\AppData\Local\Temp\ccDKHoe4.s:360    .text.lwiperf_tcp_accept:000000000000003c .L36
C:\Users\stapi\AppData\Local\Temp\ccDKHoe4.s:394    .text.lwiperf_tcp_accept:0000000000000068 .L37
C:\Users\stapi\AppData\Local\Temp\ccDKHoe4.s:388    .text.lwiperf_tcp_accept:0000000000000066 .L38
C:\Users\stapi\AppData\Local\Temp\ccDKHoe4.s:420    .text.lwiperf_tcp_accept:0000000000000092 .L39
C:\Users\stapi\AppData\Local\Temp\ccDKHoe4.s:414    .text.lwiperf_tcp_accept:0000000000000090 .L40
C:\Users\stapi\AppData\Local\Temp\ccDKHoe4.s:469    .text.lwiperf_tcp_accept:00000000000000d0 .L41
C:\Users\stapi\AppData\Local\Temp\ccDKHoe4.s:453    .text.lwiperf_tcp_accept:00000000000000c4 .L42
C:\Users\stapi\AppData\Local\Temp\ccDKHoe4.s:447    .text.lwiperf_tcp_accept:00000000000000c2 .L43
C:\Users\stapi\AppData\Local\Temp\ccDKHoe4.s:494    .text.lwiperf_tcp_accept:00000000000000f8 .L44
C:\Users\stapi\AppData\Local\Temp\ccDKHoe4.s:618    .text.lwiperf_tcp_accept:00000000000001b2 .L34
C:\Users\stapi\AppData\Local\Temp\ccDKHoe4.s:488    .text.lwiperf_tcp_accept:00000000000000f6 .L45
C:\Users\stapi\AppData\Local\Temp\ccDKHoe4.s:649    .text.lwiperf_tcp_accept:00000000000001c4 .L56
C:\Users\stapi\AppData\Local\Temp\ccDKHoe4.s:605    .text.lwiperf_tcp_accept:00000000000001a8 .L47
C:\Users\stapi\AppData\Local\Temp\ccDKHoe4.s:594    .text.lwiperf_tcp_accept:0000000000000198 .L48
C:\Users\stapi\AppData\Local\Temp\ccDKHoe4.s:634    .text.lwiperf_tcp_accept:00000000000001bc .L51
C:\Users\stapi\AppData\Local\Temp\ccDKHoe4.s:589    .text.lwiperf_tcp_accept:0000000000000196 .L49
C:\Users\stapi\AppData\Local\Temp\ccDKHoe4.s:662    .rodata.lwiperf_tcp_client_send_more.str1.4:0000000000000000 .LC9
C:\Users\stapi\AppData\Local\Temp\ccDKHoe4.s:788    .text.lwiperf_tcp_client_send_more:000000000000006e .L65
C:\Users\stapi\AppData\Local\Temp\ccDKHoe4.s:808    .text.lwiperf_tcp_client_send_more:0000000000000094 .L68
C:\Users\stapi\AppData\Local\Temp\ccDKHoe4.s:821    .text.lwiperf_tcp_client_send_more:00000000000000a2 .L69
C:\Users\stapi\AppData\Local\Temp\ccDKHoe4.s:802    .text.lwiperf_tcp_client_send_more:0000000000000092 .L67
C:\Users\stapi\AppData\Local\Temp\ccDKHoe4.s:758    .text.lwiperf_tcp_client_send_more:0000000000000058 .L71
C:\Users\stapi\AppData\Local\Temp\ccDKHoe4.s:880    .text.lwiperf_tcp_client_send_more:00000000000000e0 .L72
C:\Users\stapi\AppData\Local\Temp\ccDKHoe4.s:928    .text.lwiperf_tcp_client_send_more:0000000000000116 .L75
C:\Users\stapi\AppData\Local\Temp\ccDKHoe4.s:849    .text.lwiperf_tcp_client_send_more:00000000000000ba .L76
C:\Users\stapi\AppData\Local\Temp\ccDKHoe4.s:765    .text.lwiperf_tcp_client_send_more:0000000000000064 .L89
C:\Users\stapi\AppData\Local\Temp\ccDKHoe4.s:906    .text.lwiperf_tcp_client_send_more:00000000000000fa .L74
C:\Users\stapi\AppData\Local\Temp\ccDKHoe4.s:844    .text.lwiperf_tcp_client_send_more:00000000000000b8 .L73
C:\Users\stapi\AppData\Local\Temp\ccDKHoe4.s:901    .text.lwiperf_tcp_client_send_more:00000000000000f6 .L91
C:\Users\stapi\AppData\Local\Temp\ccDKHoe4.s:869    .text.lwiperf_tcp_client_send_more:00000000000000d4 .L77
C:\Users\stapi\AppData\Local\Temp\ccDKHoe4.s:722    .text.lwiperf_tcp_client_send_more:0000000000000030 .L66
C:\Users\stapi\AppData\Local\Temp\ccDKHoe4.s:949    .rodata.lwiperf_tcp_client_sent.str1.4:0000000000000000 .LC10
C:\Users\stapi\AppData\Local\Temp\ccDKHoe4.s:988    .text.lwiperf_tcp_client_sent:0000000000000034 .L93
C:\Users\stapi\AppData\Local\Temp\ccDKHoe4.s:982    .text.lwiperf_tcp_client_sent:0000000000000032 .L94
C:\Users\stapi\AppData\Local\Temp\ccDKHoe4.s:1013   .rodata.lwiperf_tcp_poll.str1.4:0000000000000000 .LC11
C:\Users\stapi\AppData\Local\Temp\ccDKHoe4.s:1051   .text.lwiperf_tcp_poll:0000000000000034 .L97
C:\Users\stapi\AppData\Local\Temp\ccDKHoe4.s:1045   .text.lwiperf_tcp_poll:0000000000000032 .L98
C:\Users\stapi\AppData\Local\Temp\ccDKHoe4.s:1080   .text.lwiperf_tcp_poll:000000000000005c .L99
C:\Users\stapi\AppData\Local\Temp\ccDKHoe4.s:1072   .text.lwiperf_tcp_poll:0000000000000052 .L100
C:\Users\stapi\AppData\Local\Temp\ccDKHoe4.s:1135   .text.lwiperf_tcp_client_connected:0000000000000034 .L103
C:\Users\stapi\AppData\Local\Temp\ccDKHoe4.s:1129   .text.lwiperf_tcp_client_connected:0000000000000032 .L104
C:\Users\stapi\AppData\Local\Temp\ccDKHoe4.s:1158   .text.lwiperf_tcp_client_connected:000000000000004a .L105
C:\Users\stapi\AppData\Local\Temp\ccDKHoe4.s:1150   .text.lwiperf_tcp_client_connected:0000000000000042 .L106
C:\Users\stapi\AppData\Local\Temp\ccDKHoe4.s:1240   .text.lwiperf_start_tcp_server_impl.constprop.0:000000000000002a .L109
C:\Users\stapi\AppData\Local\Temp\ccDKHoe4.s:1255   .text.lwiperf_start_tcp_server_impl.constprop.0:0000000000000034 .L110
C:\Users\stapi\AppData\Local\Temp\ccDKHoe4.s:1235   .text.lwiperf_start_tcp_server_impl.constprop.0:0000000000000028 .L122
C:\Users\stapi\AppData\Local\Temp\ccDKHoe4.s:1372   .text.lwiperf_start_tcp_server_impl.constprop.0:00000000000000de .L120
C:\Users\stapi\AppData\Local\Temp\ccDKHoe4.s:1320   .text.lwiperf_start_tcp_server_impl.constprop.0:0000000000000096 .L112
C:\Users\stapi\AppData\Local\Temp\ccDKHoe4.s:1388   .rodata.lwiperf_tx_start_impl.str1.4:0000000000000000 .LC12
C:\Users\stapi\AppData\Local\Temp\ccDKHoe4.s:1443   .text.lwiperf_tx_start_impl:0000000000000032 .L124
C:\Users\stapi\AppData\Local\Temp\ccDKHoe4.s:1437   .text.lwiperf_tx_start_impl:0000000000000030 .L125
C:\Users\stapi\AppData\Local\Temp\ccDKHoe4.s:1503   .text.lwiperf_tx_start_impl:0000000000000070 .L126
C:\Users\stapi\AppData\Local\Temp\ccDKHoe4.s:1525   .text.lwiperf_tx_start_impl:000000000000007c .L127
C:\Users\stapi\AppData\Local\Temp\ccDKHoe4.s:1631   .text.lwiperf_tx_start_impl:000000000000013a .L128
C:\Users\stapi\AppData\Local\Temp\ccDKHoe4.s:1661   .rodata.lwiperf_tx_start_passive.str1.4:0000000000000000 .LC13
C:\Users\stapi\AppData\Local\Temp\ccDKHoe4.s:1736   .text.lwiperf_tx_start_passive:000000000000006a .L132
C:\Users\stapi\AppData\Local\Temp\ccDKHoe4.s:1730   .text.lwiperf_tx_start_passive:0000000000000066 .L133
C:\Users\stapi\AppData\Local\Temp\ccDKHoe4.s:1724   .text.lwiperf_tx_start_passive:0000000000000064 .L134
C:\Users\stapi\AppData\Local\Temp\ccDKHoe4.s:1753   .rodata.lwiperf_tcp_recv.str1.4:000000000000001c .LC15
C:\Users\stapi\AppData\Local\Temp\ccDKHoe4.s:1750   .rodata.lwiperf_tcp_recv.str1.4:0000000000000000 .LC14
C:\Users\stapi\AppData\Local\Temp\ccDKHoe4.s:1801   .text.lwiperf_tcp_recv:0000000000000034 .L137
C:\Users\stapi\AppData\Local\Temp\ccDKHoe4.s:1795   .text.lwiperf_tcp_recv:0000000000000032 .L138
C:\Users\stapi\AppData\Local\Temp\ccDKHoe4.s:1832   .text.lwiperf_tcp_recv:000000000000004a .L139
C:\Users\stapi\AppData\Local\Temp\ccDKHoe4.s:1865   .text.lwiperf_tcp_recv:000000000000006e .L141
C:\Users\stapi\AppData\Local\Temp\ccDKHoe4.s:1859   .text.lwiperf_tcp_recv:0000000000000068 .L142
C:\Users\stapi\AppData\Local\Temp\ccDKHoe4.s:1811   .text.lwiperf_tcp_recv:0000000000000038 .L175
C:\Users\stapi\AppData\Local\Temp\ccDKHoe4.s:2053   .text.lwiperf_tcp_recv:0000000000000166 .L143
C:\Users\stapi\AppData\Local\Temp\ccDKHoe4.s:2027   .text.lwiperf_tcp_recv:0000000000000148 .L144
C:\Users\stapi\AppData\Local\Temp\ccDKHoe4.s:1896   .text.lwiperf_tcp_recv:000000000000008a .L151
C:\Users\stapi\AppData\Local\Temp\ccDKHoe4.s:2012   .text.lwiperf_tcp_recv:000000000000013e .L152
C:\Users\stapi\AppData\Local\Temp\ccDKHoe4.s:1927   .text.lwiperf_tcp_recv:00000000000000c0 .L153
C:\Users\stapi\AppData\Local\Temp\ccDKHoe4.s:1953   .text.lwiperf_tcp_recv:00000000000000de .L147
C:\Users\stapi\AppData\Local\Temp\ccDKHoe4.s:2033   .text.lwiperf_tcp_recv:000000000000014e .L148
C:\Users\stapi\AppData\Local\Temp\ccDKHoe4.s:1980   .text.lwiperf_tcp_recv:0000000000000104 .L149
C:\Users\stapi\AppData\Local\Temp\ccDKHoe4.s:2043   .text.lwiperf_tcp_recv:000000000000015a .L174
C:\Users\stapi\AppData\Local\Temp\ccDKHoe4.s:1887   .text.lwiperf_tcp_recv:0000000000000086 .L145
C:\Users\stapi\AppData\Local\Temp\ccDKHoe4.s:2006   .text.lwiperf_tcp_recv:000000000000013c .L150
C:\Users\stapi\AppData\Local\Temp\ccDKHoe4.s:1974   .text.lwiperf_tcp_recv:00000000000000f8 .L173
C:\Users\stapi\AppData\Local\Temp\ccDKHoe4.s:1933   .text.lwiperf_tcp_recv:00000000000000c2 .L170
C:\Users\stapi\AppData\Local\Temp\ccDKHoe4.s:1818   .text.lwiperf_tcp_recv:0000000000000040 .L169
C:\Users\stapi\AppData\Local\Temp\ccDKHoe4.s:2036   .text.lwiperf_tcp_recv:0000000000000150 .L176
C:\Users\stapi\AppData\Local\Temp\ccDKHoe4.s:2147   .text.lwiperf_start_tcp_server:0000000000000026 .L179
C:\Users\stapi\AppData\Local\Temp\ccDKHoe4.s:2138   .text.lwiperf_start_tcp_server:000000000000001c .L177
C:\Users\stapi\AppData\Local\Temp\ccDKHoe4.s:2222   .text.lwiperf_abort:000000000000001e .L188
C:\Users\stapi\AppData\Local\Temp\ccDKHoe4.s:2232   .text.lwiperf_abort:000000000000002c .L185
C:\Users\stapi\AppData\Local\Temp\ccDKHoe4.s:2248   .text.lwiperf_abort:000000000000003c .L186
C:\Users\stapi\AppData\Local\Temp\ccDKHoe4.s:2243   .text.lwiperf_abort:0000000000000032 .L187
C:\Users\stapi\AppData\Local\Temp\ccDKHoe4.s:2210   .text.lwiperf_abort:0000000000000014 .L184
C:\Users\stapi\AppData\Local\Temp\ccDKHoe4.s:2259   .rodata.lwiperf_start_tcp_client.str1.4:0000000000000000 .LC16
C:\Users\stapi\AppData\Local\Temp\ccDKHoe4.s:2314   .text.lwiperf_start_tcp_client:0000000000000036 .L194
C:\Users\stapi\AppData\Local\Temp\ccDKHoe4.s:2385   .text.lwiperf_start_tcp_client:00000000000000b2 .L195
C:\Users\stapi\AppData\Local\Temp\ccDKHoe4.s:2326   .text.lwiperf_start_tcp_client:0000000000000046 .L196
C:\Users\stapi\AppData\Local\Temp\ccDKHoe4.s:2449   .text.lwiperf_start_tcp_client:00000000000000fa .L193
C:\Users\stapi\AppData\Local\Temp\ccDKHoe4.s:2310   .text.lwiperf_start_tcp_client:0000000000000032 .L203
C:\Users\stapi\AppData\Local\Temp\ccDKHoe4.s:2391   .text.lwiperf_start_tcp_client:00000000000000b8 .L198
C:\Users\stapi\AppData\Local\Temp\ccDKHoe4.s:2380   .text.lwiperf_start_tcp_client:00000000000000b0 .L199
C:\Users\stapi\AppData\Local\Temp\ccDKHoe4.s:2319   .text.lwiperf_start_tcp_client:000000000000003c .L211
C:\Users\stapi\AppData\Local\Temp\ccDKHoe4.s:2443   .text.lwiperf_start_tcp_client:00000000000000f8 .L200
C:\Users\stapi\AppData\Local\Temp\ccDKHoe4.s:2424   .text.lwiperf_start_tcp_client:00000000000000e0 .L201
C:\Users\stapi\AppData\Local\Temp\ccDKHoe4.s:7103   .debug_abbrev:0000000000000000 .Ldebug_abbrev0
C:\Users\stapi\AppData\Local\Temp\ccDKHoe4.s:11056  .debug_str:0000000000000e4d .LASF276
C:\Users\stapi\AppData\Local\Temp\ccDKHoe4.s:10600  .debug_str:0000000000000202 .LASF277
C:\Users\stapi\AppData\Local\Temp\ccDKHoe4.s:10714  .debug_str:000000000000056c .LASF278
C:\Users\stapi\AppData\Local\Temp\ccDKHoe4.s:10412  .debug_ranges:0000000000000000 .Ldebug_ranges0
C:\Users\stapi\AppData\Local\Temp\ccDKHoe4.s:10510  .debug_line:0000000000000000 .Ldebug_line0
C:\Users\stapi\AppData\Local\Temp\ccDKHoe4.s:10854  .debug_str:0000000000000968 .LASF0
C:\Users\stapi\AppData\Local\Temp\ccDKHoe4.s:11028  .debug_str:0000000000000d95 .LASF2
C:\Users\stapi\AppData\Local\Temp\ccDKHoe4.s:10926  .debug_str:0000000000000b20 .LASF1
C:\Users\stapi\AppData\Local\Temp\ccDKHoe4.s:10976  .debug_str:0000000000000c57 .LASF3
C:\Users\stapi\AppData\Local\Temp\ccDKHoe4.s:10820  .debug_str:000000000000085d .LASF4
C:\Users\stapi\AppData\Local\Temp\ccDKHoe4.s:10890  .debug_str:0000000000000a36 .LASF5
C:\Users\stapi\AppData\Local\Temp\ccDKHoe4.s:10654  .debug_str:00000000000003df .LASF6
C:\Users\stapi\AppData\Local\Temp\ccDKHoe4.s:11034  .debug_str:0000000000000db1 .LASF7
C:\Users\stapi\AppData\Local\Temp\ccDKHoe4.s:10570  .debug_str:0000000000000152 .LASF8
C:\Users\stapi\AppData\Local\Temp\ccDKHoe4.s:10896  .debug_str:0000000000000a60 .LASF9
C:\Users\stapi\AppData\Local\Temp\ccDKHoe4.s:10978  .debug_str:0000000000000c65 .LASF10
C:\Users\stapi\AppData\Local\Temp\ccDKHoe4.s:10950  .debug_str:0000000000000bce .LASF11
C:\Users\stapi\AppData\Local\Temp\ccDKHoe4.s:10796  .debug_str:00000000000007af .LASF12
C:\Users\stapi\AppData\Local\Temp\ccDKHoe4.s:10648  .debug_str:00000000000003af .LASF13
C:\Users\stapi\AppData\Local\Temp\ccDKHoe4.s:10560  .debug_str:000000000000011c .LASF14
C:\Users\stapi\AppData\Local\Temp\ccDKHoe4.s:10616  .debug_str:00000000000002fd .LASF15
C:\Users\stapi\AppData\Local\Temp\ccDKHoe4.s:10772  .debug_str:000000000000072d .LASF16
C:\Users\stapi\AppData\Local\Temp\ccDKHoe4.s:10642  .debug_str:0000000000000398 .LASF17
C:\Users\stapi\AppData\Local\Temp\ccDKHoe4.s:10864  .debug_str:00000000000009b6 .LASF18
C:\Users\stapi\AppData\Local\Temp\ccDKHoe4.s:10958  .debug_str:0000000000000bf6 .LASF19
C:\Users\stapi\AppData\Local\Temp\ccDKHoe4.s:10614  .debug_str:00000000000002f4 .LASF20
C:\Users\stapi\AppData\Local\Temp\ccDKHoe4.s:10758  .debug_str:00000000000006d8 .LASF21
C:\Users\stapi\AppData\Local\Temp\ccDKHoe4.s:10750  .debug_str:00000000000006a9 .LASF22
C:\Users\stapi\AppData\Local\Temp\ccDKHoe4.s:10814  .debug_str:000000000000083a .LASF23
C:\Users\stapi\AppData\Local\Temp\ccDKHoe4.s:10718  .debug_str:00000000000005fe .LASF24
C:\Users\stapi\AppData\Local\Temp\ccDKHoe4.s:10574  .debug_str:0000000000000161 .LASF25
C:\Users\stapi\AppData\Local\Temp\ccDKHoe4.s:10956  .debug_str:0000000000000bf0 .LASF26
C:\Users\stapi\AppData\Local\Temp\ccDKHoe4.s:10888  .debug_str:0000000000000a30 .LASF27
C:\Users\stapi\AppData\Local\Temp\ccDKHoe4.s:10720  .debug_str:0000000000000603 .LASF28
C:\Users\stapi\AppData\Local\Temp\ccDKHoe4.s:10922  .debug_str:0000000000000b12 .LASF78
C:\Users\stapi\AppData\Local\Temp\ccDKHoe4.s:10996  .debug_str:0000000000000ccd .LASF80
C:\Users\stapi\AppData\Local\Temp\ccDKHoe4.s:10894  .debug_str:0000000000000a55 .LASF29
C:\Users\stapi\AppData\Local\Temp\ccDKHoe4.s:10608  .debug_str:00000000000002c0 .LASF34
C:\Users\stapi\AppData\Local\Temp\ccDKHoe4.s:10982  .debug_str:0000000000000c7b .LASF30
C:\Users\stapi\AppData\Local\Temp\ccDKHoe4.s:10984  .debug_str:0000000000000c8a .LASF31
C:\Users\stapi\AppData\Local\Temp\ccDKHoe4.s:10800  .debug_str:00000000000007cc .LASF32
C:\Users\stapi\AppData\Local\Temp\ccDKHoe4.s:11054  .debug_str:0000000000000e43 .LASF33
C:\Users\stapi\AppData\Local\Temp\ccDKHoe4.s:11008  .debug_str:0000000000000d0c .LASF279
C:\Users\stapi\AppData\Local\Temp\ccDKHoe4.s:10938  .debug_str:0000000000000b65 .LASF35
C:\Users\stapi\AppData\Local\Temp\ccDKHoe4.s:10832  .debug_str:00000000000008a6 .LASF36
C:\Users\stapi\AppData\Local\Temp\ccDKHoe4.s:11010  .debug_str:0000000000000d18 .LASF37
C:\Users\stapi\AppData\Local\Temp\ccDKHoe4.s:11076  .debug_str:0000000000000f95 .LASF38
C:\Users\stapi\AppData\Local\Temp\ccDKHoe4.s:10942  .debug_str:0000000000000b81 .LASF39
C:\Users\stapi\AppData\Local\Temp\ccDKHoe4.s:10834  .debug_str:00000000000008be .LASF40
C:\Users\stapi\AppData\Local\Temp\ccDKHoe4.s:10670  .debug_str:000000000000042d .LASF41
C:\Users\stapi\AppData\Local\Temp\ccDKHoe4.s:10568  .debug_str:000000000000013e .LASF42
C:\Users\stapi\AppData\Local\Temp\ccDKHoe4.s:10962  .debug_str:0000000000000c07 .LASF43
C:\Users\stapi\AppData\Local\Temp\ccDKHoe4.s:10746  .debug_str:000000000000068c .LASF44
C:\Users\stapi\AppData\Local\Temp\ccDKHoe4.s:10878  .debug_str:00000000000009fe .LASF45
C:\Users\stapi\AppData\Local\Temp\ccDKHoe4.s:10780  .debug_str:000000000000074f .LASF46
C:\Users\stapi\AppData\Local\Temp\ccDKHoe4.s:10966  .debug_str:0000000000000c23 .LASF47
C:\Users\stapi\AppData\Local\Temp\ccDKHoe4.s:10656  .debug_str:00000000000003ea .LASF48
C:\Users\stapi\AppData\Local\Temp\ccDKHoe4.s:10886  .debug_str:0000000000000a29 .LASF49
C:\Users\stapi\AppData\Local\Temp\ccDKHoe4.s:10994  .debug_str:0000000000000cc6 .LASF50
C:\Users\stapi\AppData\Local\Temp\ccDKHoe4.s:10988  .debug_str:0000000000000ca6 .LASF51
C:\Users\stapi\AppData\Local\Temp\ccDKHoe4.s:11072  .debug_str:0000000000000f83 .LASF52
C:\Users\stapi\AppData\Local\Temp\ccDKHoe4.s:10928  .debug_str:0000000000000b2a .LASF53
C:\Users\stapi\AppData\Local\Temp\ccDKHoe4.s:10680  .debug_str:000000000000047e .LASF54
C:\Users\stapi\AppData\Local\Temp\ccDKHoe4.s:10980  .debug_str:0000000000000c70 .LASF55
C:\Users\stapi\AppData\Local\Temp\ccDKHoe4.s:10760  .debug_str:00000000000006e2 .LASF56
C:\Users\stapi\AppData\Local\Temp\ccDKHoe4.s:10708  .debug_str:0000000000000553 .LASF57
C:\Users\stapi\AppData\Local\Temp\ccDKHoe4.s:10686  .debug_str:00000000000004c0 .LASF58
C:\Users\stapi\AppData\Local\Temp\ccDKHoe4.s:10558  .debug_str:0000000000000112 .LASF59
C:\Users\stapi\AppData\Local\Temp\ccDKHoe4.s:11020  .debug_str:0000000000000d5c .LASF60
C:\Users\stapi\AppData\Local\Temp\ccDKHoe4.s:11068  .debug_str:0000000000000f73 .LASF61
C:\Users\stapi\AppData\Local\Temp\ccDKHoe4.s:10884  .debug_str:0000000000000a21 .LASF62
C:\Users\stapi\AppData\Local\Temp\ccDKHoe4.s:10728  .debug_str:0000000000000630 .LASF63
C:\Users\stapi\AppData\Local\Temp\ccDKHoe4.s:11048  .debug_str:0000000000000e16 .LASF64
C:\Users\stapi\AppData\Local\Temp\ccDKHoe4.s:10916  .debug_str:0000000000000ad9 .LASF65
C:\Users\stapi\AppData\Local\Temp\ccDKHoe4.s:10668  .debug_str:0000000000000425 .LASF66
C:\Users\stapi\AppData\Local\Temp\ccDKHoe4.s:10726  .debug_str:0000000000000621 .LASF67
C:\Users\stapi\AppData\Local\Temp\ccDKHoe4.s:10550  .debug_str:00000000000000ef .LASF68
C:\Users\stapi\AppData\Local\Temp\ccDKHoe4.s:10606  .debug_str:00000000000002b4 .LASF69
C:\Users\stapi\AppData\Local\Temp\ccDKHoe4.s:10930  .debug_str:0000000000000b36 .LASF70
C:\Users\stapi\AppData\Local\Temp\ccDKHoe4.s:11040  .debug_str:0000000000000dd9 .LASF71
C:\Users\stapi\AppData\Local\Temp\ccDKHoe4.s:10804  .debug_str:00000000000007e3 .LASF72
C:\Users\stapi\AppData\Local\Temp\ccDKHoe4.s:10526  .debug_str:0000000000000057 .LASF73
C:\Users\stapi\AppData\Local\Temp\ccDKHoe4.s:10598  .debug_str:00000000000001fa .LASF74
C:\Users\stapi\AppData\Local\Temp\ccDKHoe4.s:10548  .debug_str:00000000000000e6 .LASF75
C:\Users\stapi\AppData\Local\Temp\ccDKHoe4.s:10552  .debug_str:00000000000000f7 .LASF76
C:\Users\stapi\AppData\Local\Temp\ccDKHoe4.s:10566  .debug_str:0000000000000138 .LASF77
C:\Users\stapi\AppData\Local\Temp\ccDKHoe4.s:10702  .debug_str:000000000000051b .LASF79
C:\Users\stapi\AppData\Local\Temp\ccDKHoe4.s:10564  .debug_str:0000000000000133 .LASF81
C:\Users\stapi\AppData\Local\Temp\ccDKHoe4.s:10694  .debug_str:00000000000004ea .LASF82
C:\Users\stapi\AppData\Local\Temp\ccDKHoe4.s:10690  .debug_str:00000000000004d7 .LASF83
C:\Users\stapi\AppData\Local\Temp\ccDKHoe4.s:10688  .debug_str:00000000000004c9 .LASF84
C:\Users\stapi\AppData\Local\Temp\ccDKHoe4.s:10546  .debug_str:00000000000000e0 .LASF85
C:\Users\stapi\AppData\Local\Temp\ccDKHoe4.s:10874  .debug_str:00000000000009e2 .LASF86
C:\Users\stapi\AppData\Local\Temp\ccDKHoe4.s:10944  .debug_str:0000000000000ba5 .LASF87
C:\Users\stapi\AppData\Local\Temp\ccDKHoe4.s:10906  .debug_str:0000000000000a94 .LASF88
C:\Users\stapi\AppData\Local\Temp\ccDKHoe4.s:10812  .debug_str:000000000000082d .LASF89
C:\Users\stapi\AppData\Local\Temp\ccDKHoe4.s:10520  .debug_str:000000000000002c .LASF90
C:\Users\stapi\AppData\Local\Temp\ccDKHoe4.s:10986  .debug_str:0000000000000c99 .LASF91
C:\Users\stapi\AppData\Local\Temp\ccDKHoe4.s:10850  .debug_str:000000000000094e .LASF92
C:\Users\stapi\AppData\Local\Temp\ccDKHoe4.s:10836  .debug_str:00000000000008e0 .LASF93
C:\Users\stapi\AppData\Local\Temp\ccDKHoe4.s:10934  .debug_str:0000000000000b4d .LASF94
C:\Users\stapi\AppData\Local\Temp\ccDKHoe4.s:10794  .debug_str:00000000000007a3 .LASF95
C:\Users\stapi\AppData\Local\Temp\ccDKHoe4.s:10722  .debug_str:0000000000000609 .LASF96
C:\Users\stapi\AppData\Local\Temp\ccDKHoe4.s:10626  .debug_str:000000000000032b .LASF97
C:\Users\stapi\AppData\Local\Temp\ccDKHoe4.s:10674  .debug_str:0000000000000450 .LASF98
C:\Users\stapi\AppData\Local\Temp\ccDKHoe4.s:10622  .debug_str:0000000000000314 .LASF99
C:\Users\stapi\AppData\Local\Temp\ccDKHoe4.s:10898  .debug_str:0000000000000a69 .LASF100
C:\Users\stapi\AppData\Local\Temp\ccDKHoe4.s:11058  .debug_str:0000000000000f46 .LASF101
C:\Users\stapi\AppData\Local\Temp\ccDKHoe4.s:10740  .debug_str:0000000000000669 .LASF102
C:\Users\stapi\AppData\Local\Temp\ccDKHoe4.s:10592  .debug_str:00000000000001d6 .LASF103
C:\Users\stapi\AppData\Local\Temp\ccDKHoe4.s:10716  .debug_str:00000000000005f5 .LASF104
C:\Users\stapi\AppData\Local\Temp\ccDKHoe4.s:10684  .debug_str:000000000000049a .LASF105
C:\Users\stapi\AppData\Local\Temp\ccDKHoe4.s:11026  .debug_str:0000000000000d73 .LASF106
C:\Users\stapi\AppData\Local\Temp\ccDKHoe4.s:10538  .debug_str:00000000000000a1 .LASF107
C:\Users\stapi\AppData\Local\Temp\ccDKHoe4.s:10862  .debug_str:0000000000000995 .LASF108
C:\Users\stapi\AppData\Local\Temp\ccDKHoe4.s:10544  .debug_str:00000000000000d2 .LASF109
C:\Users\stapi\AppData\Local\Temp\ccDKHoe4.s:11032  .debug_str:0000000000000da9 .LASF110
C:\Users\stapi\AppData\Local\Temp\ccDKHoe4.s:10908  .debug_str:0000000000000aa1 .LASF111
C:\Users\stapi\AppData\Local\Temp\ccDKHoe4.s:11044  .debug_str:0000000000000dee .LASF112
C:\Users\stapi\AppData\Local\Temp\ccDKHoe4.s:10562  .debug_str:0000000000000129 .LASF113
C:\Users\stapi\AppData\Local\Temp\ccDKHoe4.s:10522  .debug_str:0000000000000040 .LASF114
C:\Users\stapi\AppData\Local\Temp\ccDKHoe4.s:10992  .debug_str:0000000000000cb9 .LASF115
C:\Users\stapi\AppData\Local\Temp\ccDKHoe4.s:11002  .debug_str:0000000000000ce9 .LASF116
C:\Users\stapi\AppData\Local\Temp\ccDKHoe4.s:10736  .debug_str:0000000000000657 .LASF117
C:\Users\stapi\AppData\Local\Temp\ccDKHoe4.s:10630  .debug_str:0000000000000350 .LASF118
C:\Users\stapi\AppData\Local\Temp\ccDKHoe4.s:10828  .debug_str:000000000000088e .LASF119
C:\Users\stapi\AppData\Local\Temp\ccDKHoe4.s:10542  .debug_str:00000000000000ca .LASF120
C:\Users\stapi\AppData\Local\Temp\ccDKHoe4.s:10738  .debug_str:000000000000065c .LASF121
C:\Users\stapi\AppData\Local\Temp\ccDKHoe4.s:10904  .debug_str:0000000000000a89 .LASF122
C:\Users\stapi\AppData\Local\Temp\ccDKHoe4.s:10672  .debug_str:0000000000000448 .LASF123
C:\Users\stapi\AppData\Local\Temp\ccDKHoe4.s:10900  .debug_str:0000000000000a7a .LASF124
C:\Users\stapi\AppData\Local\Temp\ccDKHoe4.s:10830  .debug_str:000000000000089a .LASF125
C:\Users\stapi\AppData\Local\Temp\ccDKHoe4.s:10580  .debug_str:0000000000000184 .LASF126
C:\Users\stapi\AppData\Local\Temp\ccDKHoe4.s:10700  .debug_str:0000000000000511 .LASF127
C:\Users\stapi\AppData\Local\Temp\ccDKHoe4.s:10658  .debug_str:00000000000003f4 .LASF128
C:\Users\stapi\AppData\Local\Temp\ccDKHoe4.s:10902  .debug_str:0000000000000a82 .LASF129
C:\Users\stapi\AppData\Local\Temp\ccDKHoe4.s:10652  .debug_str:00000000000003d9 .LASF130
C:\Users\stapi\AppData\Local\Temp\ccDKHoe4.s:11064  .debug_str:0000000000000f61 .LASF131
C:\Users\stapi\AppData\Local\Temp\ccDKHoe4.s:10732  .debug_str:0000000000000645 .LASF132
C:\Users\stapi\AppData\Local\Temp\ccDKHoe4.s:10712  .debug_str:0000000000000564 .LASF133
C:\Users\stapi\AppData\Local\Temp\ccDKHoe4.s:10620  .debug_str:000000000000030f .LASF134
C:\Users\stapi\AppData\Local\Temp\ccDKHoe4.s:10936  .debug_str:0000000000000b5c .LASF135
C:\Users\stapi\AppData\Local\Temp\ccDKHoe4.s:10972  .debug_str:0000000000000c4a .LASF136
C:\Users\stapi\AppData\Local\Temp\ccDKHoe4.s:11030  .debug_str:0000000000000da1 .LASF137
C:\Users\stapi\AppData\Local\Temp\ccDKHoe4.s:10774  .debug_str:0000000000000735 .LASF138
C:\Users\stapi\AppData\Local\Temp\ccDKHoe4.s:10776  .debug_str:000000000000073d .LASF139
C:\Users\stapi\AppData\Local\Temp\ccDKHoe4.s:10792  .debug_str:000000000000079b .LASF140
C:\Users\stapi\AppData\Local\Temp\ccDKHoe4.s:10870  .debug_str:00000000000009cf .LASF141
C:\Users\stapi\AppData\Local\Temp\ccDKHoe4.s:10932  .debug_str:0000000000000b41 .LASF142
C:\Users\stapi\AppData\Local\Temp\ccDKHoe4.s:10940  .debug_str:0000000000000b79 .LASF143
C:\Users\stapi\AppData\Local\Temp\ccDKHoe4.s:11066  .debug_str:0000000000000f66 .LASF144
C:\Users\stapi\AppData\Local\Temp\ccDKHoe4.s:10914  .debug_str:0000000000000ac9 .LASF145
C:\Users\stapi\AppData\Local\Temp\ccDKHoe4.s:10860  .debug_str:0000000000000989 .LASF146
C:\Users\stapi\AppData\Local\Temp\ccDKHoe4.s:10764  .debug_str:0000000000000700 .LASF147
C:\Users\stapi\AppData\Local\Temp\ccDKHoe4.s:10678  .debug_str:0000000000000476 .LASF148
C:\Users\stapi\AppData\Local\Temp\ccDKHoe4.s:10882  .debug_str:0000000000000a1b .LASF149
C:\Users\stapi\AppData\Local\Temp\ccDKHoe4.s:10964  .debug_str:0000000000000c16 .LASF150
C:\Users\stapi\AppData\Local\Temp\ccDKHoe4.s:10536  .debug_str:0000000000000098 .LASF151
C:\Users\stapi\AppData\Local\Temp\ccDKHoe4.s:10770  .debug_str:0000000000000728 .LASF152
C:\Users\stapi\AppData\Local\Temp\ccDKHoe4.s:11022  .debug_str:0000000000000d63 .LASF153
C:\Users\stapi\AppData\Local\Temp\ccDKHoe4.s:10698  .debug_str:0000000000000507 .LASF154
C:\Users\stapi\AppData\Local\Temp\ccDKHoe4.s:10742  .debug_str:0000000000000673 .LASF155
C:\Users\stapi\AppData\Local\Temp\ccDKHoe4.s:10868  .debug_str:00000000000009ca .LASF156
C:\Users\stapi\AppData\Local\Temp\ccDKHoe4.s:10990  .debug_str:0000000000000caf .LASF157
C:\Users\stapi\AppData\Local\Temp\ccDKHoe4.s:11042  .debug_str:0000000000000de2 .LASF158
C:\Users\stapi\AppData\Local\Temp\ccDKHoe4.s:10806  .debug_str:00000000000007ea .LASF159
C:\Users\stapi\AppData\Local\Temp\ccDKHoe4.s:10532  .debug_str:0000000000000071 .LASF160
C:\Users\stapi\AppData\Local\Temp\ccDKHoe4.s:10590  .debug_str:00000000000001c8 .LASF161
C:\Users\stapi\AppData\Local\Temp\ccDKHoe4.s:10734  .debug_str:000000000000064d .LASF162
C:\Users\stapi\AppData\Local\Temp\ccDKHoe4.s:10954  .debug_str:0000000000000be6 .LASF163
C:\Users\stapi\AppData\Local\Temp\ccDKHoe4.s:10840  .debug_str:0000000000000910 .LASF164
C:\Users\stapi\AppData\Local\Temp\ccDKHoe4.s:10596  .debug_str:00000000000001ee .LASF165
C:\Users\stapi\AppData\Local\Temp\ccDKHoe4.s:10856  .debug_str:0000000000000971 .LASF166
C:\Users\stapi\AppData\Local\Temp\ccDKHoe4.s:10784  .debug_str:000000000000076d .LASF167
C:\Users\stapi\AppData\Local\Temp\ccDKHoe4.s:10638  .debug_str:0000000000000382 .LASF168
C:\Users\stapi\AppData\Local\Temp\ccDKHoe4.s:10768  .debug_str:0000000000000719 .LASF169
C:\Users\stapi\AppData\Local\Temp\ccDKHoe4.s:10924  .debug_str:0000000000000b1b .LASF170
C:\Users\stapi\AppData\Local\Temp\ccDKHoe4.s:10790  .debug_str:0000000000000795 .LASF171
C:\Users\stapi\AppData\Local\Temp\ccDKHoe4.s:10798  .debug_str:00000000000007bd .LASF172
C:\Users\stapi\AppData\Local\Temp\ccDKHoe4.s:10624  .debug_str:0000000000000324 .LASF173
C:\Users\stapi\AppData\Local\Temp\ccDKHoe4.s:10866  .debug_str:00000000000009bf .LASF174
C:\Users\stapi\AppData\Local\Temp\ccDKHoe4.s:10646  .debug_str:00000000000003a7 .LASF280
C:\Users\stapi\AppData\Local\Temp\ccDKHoe4.s:10970  .debug_str:0000000000000c38 .LASF175
C:\Users\stapi\AppData\Local\Temp\ccDKHoe4.s:10880  .debug_str:0000000000000a0f .LASF176
C:\Users\stapi\AppData\Local\Temp\ccDKHoe4.s:10852  .debug_str:000000000000095d .LASF177
C:\Users\stapi\AppData\Local\Temp\ccDKHoe4.s:11074  .debug_str:0000000000000f8c .LASF178
C:\Users\stapi\AppData\Local\Temp\ccDKHoe4.s:10540  .debug_str:00000000000000c3 .LASF179
C:\Users\stapi\AppData\Local\Temp\ccDKHoe4.s:10762  .debug_str:00000000000006ed .LASF180
C:\Users\stapi\AppData\Local\Temp\ccDKHoe4.s:10912  .debug_str:0000000000000ab4 .LASF181
C:\Users\stapi\AppData\Local\Temp\ccDKHoe4.s:10576  .debug_str:0000000000000167 .LASF182
C:\Users\stapi\AppData\Local\Temp\ccDKHoe4.s:10644  .debug_str:00000000000003a0 .LASF183
C:\Users\stapi\AppData\Local\Temp\ccDKHoe4.s:10696  .debug_str:00000000000004f2 .LASF184
C:\Users\stapi\AppData\Local\Temp\ccDKHoe4.s:11050  .debug_str:0000000000000e1e .LASF185
C:\Users\stapi\AppData\Local\Temp\ccDKHoe4.s:10640  .debug_str:0000000000000393 .LASF186
C:\Users\stapi\AppData\Local\Temp\ccDKHoe4.s:11024  .debug_str:0000000000000d68 .LASF187
C:\Users\stapi\AppData\Local\Temp\ccDKHoe4.s:10710  .debug_str:000000000000055b .LASF188
C:\Users\stapi\AppData\Local\Temp\ccDKHoe4.s:10518  .debug_str:000000000000001f .LASF189
C:\Users\stapi\AppData\Local\Temp\ccDKHoe4.s:10946  .debug_str:0000000000000bb2 .LASF190
C:\Users\stapi\AppData\Local\Temp\ccDKHoe4.s:10618  .debug_str:0000000000000304 .LASF191
C:\Users\stapi\AppData\Local\Temp\ccDKHoe4.s:10998  .debug_str:0000000000000cd2 .LASF192
C:\Users\stapi\AppData\Local\Temp\ccDKHoe4.s:10578  .debug_str:000000000000017b .LASF193
C:\Users\stapi\AppData\Local\Temp\ccDKHoe4.s:10876  .debug_str:00000000000009e9 .LASF194
C:\Users\stapi\AppData\Local\Temp\ccDKHoe4.s:10948  .debug_str:0000000000000bbc .LASF195
C:\Users\stapi\AppData\Local\Temp\ccDKHoe4.s:10730  .debug_str:000000000000063c .LASF196
C:\Users\stapi\AppData\Local\Temp\ccDKHoe4.s:10628  .debug_str:000000000000033e .LASF197
C:\Users\stapi\AppData\Local\Temp\ccDKHoe4.s:10748  .debug_str:0000000000000699 .LASF198
C:\Users\stapi\AppData\Local\Temp\ccDKHoe4.s:10858  .debug_str:000000000000097d .LASF199
C:\Users\stapi\AppData\Local\Temp\ccDKHoe4.s:10744  .debug_str:0000000000000678 .LASF200
C:\Users\stapi\AppData\Local\Temp\ccDKHoe4.s:10756  .debug_str:00000000000006c0 .LASF201
C:\Users\stapi\AppData\Local\Temp\ccDKHoe4.s:10602  .debug_str:0000000000000297 .LASF202
C:\Users\stapi\AppData\Local\Temp\ccDKHoe4.s:11038  .debug_str:0000000000000dcb .LASF281
C:\Users\stapi\AppData\Local\Temp\ccDKHoe4.s:2186   .text.lwiperf_abort:0000000000000000 .LFB23
C:\Users\stapi\AppData\Local\Temp\ccDKHoe4.s:2255   .text.lwiperf_abort:0000000000000042 .LFE23
C:\Users\stapi\AppData\Local\Temp\ccDKHoe4.s:10846  .debug_str:0000000000000934 .LASF205
C:\Users\stapi\AppData\Local\Temp\ccDKHoe4.s:8145   .debug_loc:0000000000000000 .LLST107
C:\Users\stapi\AppData\Local\Temp\ccDKHoe4.s:8156   .debug_loc:000000000000001e .LLST108
C:\Users\stapi\AppData\Local\Temp\ccDKHoe4.s:10752  .debug_str:00000000000006ae .LASF203
C:\Users\stapi\AppData\Local\Temp\ccDKHoe4.s:8168   .debug_loc:000000000000003d .LLST109
C:\Users\stapi\AppData\Local\Temp\ccDKHoe4.s:10514  .debug_str:0000000000000011 .LASF204
C:\Users\stapi\AppData\Local\Temp\ccDKHoe4.s:8175   .debug_loc:0000000000000050 .LLST110
C:\Users\stapi\AppData\Local\Temp\ccDKHoe4.s:2246   .text.lwiperf_abort:000000000000003a .LVL254
C:\Users\stapi\AppData\Local\Temp\ccDKHoe4.s:10534  .debug_str:000000000000007f .LASF207
C:\Users\stapi\AppData\Local\Temp\ccDKHoe4.s:2266   .text.lwiperf_start_tcp_client:0000000000000000 .LFB22
C:\Users\stapi\AppData\Local\Temp\ccDKHoe4.s:2463   .text.lwiperf_start_tcp_client:0000000000000104 .LFE22
C:\Users\stapi\AppData\Local\Temp\ccDKHoe4.s:8187   .debug_loc:000000000000006f .LLST111
C:\Users\stapi\AppData\Local\Temp\ccDKHoe4.s:8198   .debug_loc:000000000000008d .LLST112
C:\Users\stapi\AppData\Local\Temp\ccDKHoe4.s:10974  .debug_str:0000000000000c52 .LASF206
C:\Users\stapi\AppData\Local\Temp\ccDKHoe4.s:8212   .debug_loc:00000000000000ae .LLST113
C:\Users\stapi\AppData\Local\Temp\ccDKHoe4.s:8223   .debug_loc:00000000000000cc .LLST114
C:\Users\stapi\AppData\Local\Temp\ccDKHoe4.s:8234   .debug_loc:00000000000000ea .LLST115
C:\Users\stapi\AppData\Local\Temp\ccDKHoe4.s:8245   .debug_loc:0000000000000108 .LLST116
C:\Users\stapi\AppData\Local\Temp\ccDKHoe4.s:2397   .text.lwiperf_start_tcp_client:00000000000000ba .LBB89
C:\Users\stapi\AppData\Local\Temp\ccDKHoe4.s:2444   .text.lwiperf_start_tcp_client:00000000000000f8 .LBE89
C:\Users\stapi\AppData\Local\Temp\ccDKHoe4.s:2411   .text.lwiperf_start_tcp_client:00000000000000d0 .LVL270
C:\Users\stapi\AppData\Local\Temp\ccDKHoe4.s:2420   .text.lwiperf_start_tcp_client:00000000000000de .LVL272
C:\Users\stapi\AppData\Local\Temp\ccDKHoe4.s:2303   .text.lwiperf_start_tcp_client:0000000000000024 .LVL260
C:\Users\stapi\AppData\Local\Temp\ccDKHoe4.s:2322   .text.lwiperf_start_tcp_client:0000000000000044 .LVL261
C:\Users\stapi\AppData\Local\Temp\ccDKHoe4.s:2331   .text.lwiperf_start_tcp_client:0000000000000050 .LVL262
C:\Users\stapi\AppData\Local\Temp\ccDKHoe4.s:2340   .text.lwiperf_start_tcp_client:0000000000000060 .LVL263
C:\Users\stapi\AppData\Local\Temp\ccDKHoe4.s:2347   .text.lwiperf_start_tcp_client:000000000000006e .LVL264
C:\Users\stapi\AppData\Local\Temp\ccDKHoe4.s:2360   .text.lwiperf_start_tcp_client:0000000000000086 .LVL265
C:\Users\stapi\AppData\Local\Temp\ccDKHoe4.s:2379   .text.lwiperf_start_tcp_client:00000000000000b0 .LVL267
C:\Users\stapi\AppData\Local\Temp\ccDKHoe4.s:10838  .debug_str:00000000000008ef .LASF208
C:\Users\stapi\AppData\Local\Temp\ccDKHoe4.s:2470   .text.lwiperf_start_tcp_client_default:0000000000000000 .LFB21
C:\Users\stapi\AppData\Local\Temp\ccDKHoe4.s:2489   .text.lwiperf_start_tcp_client_default:0000000000000014 .LFE21
C:\Users\stapi\AppData\Local\Temp\ccDKHoe4.s:8264   .debug_loc:000000000000013c .LLST117
C:\Users\stapi\AppData\Local\Temp\ccDKHoe4.s:8278   .debug_loc:000000000000015d .LLST118
C:\Users\stapi\AppData\Local\Temp\ccDKHoe4.s:8296   .debug_loc:0000000000000189 .LLST119
C:\Users\stapi\AppData\Local\Temp\ccDKHoe4.s:2487   .text.lwiperf_start_tcp_client_default:0000000000000014 .LVL278
C:\Users\stapi\AppData\Local\Temp\ccDKHoe4.s:11046  .debug_str:0000000000000df8 .LASF212
C:\Users\stapi\AppData\Local\Temp\ccDKHoe4.s:10662  .debug_str:0000000000000405 .LASF209
C:\Users\stapi\AppData\Local\Temp\ccDKHoe4.s:10816  .debug_str:000000000000083f .LASF210
C:\Users\stapi\AppData\Local\Temp\ccDKHoe4.s:2110   .text.lwiperf_start_tcp_server:0000000000000000 .LFB19
C:\Users\stapi\AppData\Local\Temp\ccDKHoe4.s:2154   .text.lwiperf_start_tcp_server:000000000000002a .LFE19
C:\Users\stapi\AppData\Local\Temp\ccDKHoe4.s:8314   .debug_loc:00000000000001b5 .LLST100
C:\Users\stapi\AppData\Local\Temp\ccDKHoe4.s:8328   .debug_loc:00000000000001d6 .LLST101
C:\Users\stapi\AppData\Local\Temp\ccDKHoe4.s:8342   .debug_loc:00000000000001f7 .LLST102
C:\Users\stapi\AppData\Local\Temp\ccDKHoe4.s:8356   .debug_loc:0000000000000218 .LLST103
C:\Users\stapi\AppData\Local\Temp\ccDKHoe4.s:8370   .debug_loc:0000000000000239 .LLST104
C:\Users\stapi\AppData\Local\Temp\ccDKHoe4.s:2130   .text.lwiperf_start_tcp_server:0000000000000018 .LVL240
C:\Users\stapi\AppData\Local\Temp\ccDKHoe4.s:10808  .debug_str:00000000000007fa .LASF211
C:\Users\stapi\AppData\Local\Temp\ccDKHoe4.s:2161   .text.lwiperf_start_tcp_server_default:0000000000000000 .LFB18
C:\Users\stapi\AppData\Local\Temp\ccDKHoe4.s:2179   .text.lwiperf_start_tcp_server_default:000000000000001a .LFE18
C:\Users\stapi\AppData\Local\Temp\ccDKHoe4.s:8381   .debug_loc:0000000000000257 .LLST105
C:\Users\stapi\AppData\Local\Temp\ccDKHoe4.s:8399   .debug_loc:0000000000000283 .LLST106
C:\Users\stapi\AppData\Local\Temp\ccDKHoe4.s:2177   .text.lwiperf_start_tcp_server_default:000000000000001a .LVL247
C:\Users\stapi\AppData\Local\Temp\ccDKHoe4.s:10650  .debug_str:00000000000003c6 .LASF213
C:\Users\stapi\AppData\Local\Temp\ccDKHoe4.s:10968  .debug_str:0000000000000c31 .LASF214
C:\Users\stapi\AppData\Local\Temp\ccDKHoe4.s:10528  .debug_str:0000000000000060 .LASF215
C:\Users\stapi\AppData\Local\Temp\ccDKHoe4.s:10634  .debug_str:0000000000000361 .LASF216
C:\Users\stapi\AppData\Local\Temp\ccDKHoe4.s:10818  .debug_str:0000000000000858 .LASF217
C:\Users\stapi\AppData\Local\Temp\ccDKHoe4.s:10664  .debug_str:0000000000000410 .LASF236
C:\Users\stapi\AppData\Local\Temp\ccDKHoe4.s:285    .text.lwiperf_tcp_err:0000000000000000 .LFB15
C:\Users\stapi\AppData\Local\Temp\ccDKHoe4.s:297    .text.lwiperf_tcp_err:000000000000000a .LFE15
C:\Users\stapi\AppData\Local\Temp\ccDKHoe4.s:8417   .debug_loc:00000000000002af .LLST11
C:\Users\stapi\AppData\Local\Temp\ccDKHoe4.s:8431   .debug_loc:00000000000002d0 .LLST12
C:\Users\stapi\AppData\Local\Temp\ccDKHoe4.s:8445   .debug_loc:00000000000002f1 .LLST13
C:\Users\stapi\AppData\Local\Temp\ccDKHoe4.s:295    .text.lwiperf_tcp_err:000000000000000a .LVL35
C:\Users\stapi\AppData\Local\Temp\ccDKHoe4.s:10512  .debug_str:0000000000000000 .LASF218
C:\Users\stapi\AppData\Local\Temp\ccDKHoe4.s:10554  .debug_str:00000000000000ff .LASF219
C:\Users\stapi\AppData\Local\Temp\ccDKHoe4.s:10842  .debug_str:000000000000091c .LASF220
C:\Users\stapi\AppData\Local\Temp\ccDKHoe4.s:10610  .debug_str:00000000000002d2 .LASF282
C:\Users\stapi\AppData\Local\Temp\ccDKHoe4.s:1667   .text.lwiperf_tx_start_passive:0000000000000000 .LFB13
C:\Users\stapi\AppData\Local\Temp\ccDKHoe4.s:1746   .text.lwiperf_tx_start_passive:0000000000000074 .LFE13
C:\Users\stapi\AppData\Local\Temp\ccDKHoe4.s:8459   .debug_loc:0000000000000312 .LLST85
C:\Users\stapi\AppData\Local\Temp\ccDKHoe4.s:8470   .debug_loc:0000000000000330 .LLST86
C:\Users\stapi\AppData\Local\Temp\ccDKHoe4.s:10586  .debug_str:00000000000001ae .LASF221
C:\Users\stapi\AppData\Local\Temp\ccDKHoe4.s:8481   .debug_loc:000000000000034e .LLST87
C:\Users\stapi\AppData\Local\Temp\ccDKHoe4.s:1690   .text.lwiperf_tx_start_passive:0000000000000018 .LVL192
C:\Users\stapi\AppData\Local\Temp\ccDKHoe4.s:1704   .text.lwiperf_tx_start_passive:000000000000003a .LVL194
C:\Users\stapi\AppData\Local\Temp\ccDKHoe4.s:1723   .text.lwiperf_tx_start_passive:0000000000000064 .LVL196
C:\Users\stapi\AppData\Local\Temp\ccDKHoe4.s:10704  .debug_str:0000000000000520 .LASF222
C:\Users\stapi\AppData\Local\Temp\ccDKHoe4.s:11000  .debug_str:0000000000000cdd .LASF223
C:\Users\stapi\AppData\Local\Temp\ccDKHoe4.s:10918  .debug_str:0000000000000ae8 .LASF224
C:\Users\stapi\AppData\Local\Temp\ccDKHoe4.s:11014  .debug_str:0000000000000d35 .LASF225
C:\Users\stapi\AppData\Local\Temp\ccDKHoe4.s:10706  .debug_str:0000000000000536 .LASF226
C:\Users\stapi\AppData\Local\Temp\ccDKHoe4.s:10754  .debug_str:00000000000006b6 .LASF227
C:\Users\stapi\AppData\Local\Temp\ccDKHoe4.s:10632  .debug_str:000000000000035b .LASF228
C:\Users\stapi\AppData\Local\Temp\ccDKHoe4.s:10778  .debug_str:0000000000000745 .LASF229
C:\Users\stapi\AppData\Local\Temp\ccDKHoe4.s:10952  .debug_str:0000000000000be0 .LASF230
C:\Users\stapi\AppData\Local\Temp\ccDKHoe4.s:10960  .debug_str:0000000000000bfe .LASF231
C:\Users\stapi\AppData\Local\Temp\ccDKHoe4.s:10556  .debug_str:000000000000010a .LASF232
C:\Users\stapi\AppData\Local\Temp\ccDKHoe4.s:10666  .debug_str:0000000000000420 .LASF233
C:\Users\stapi\AppData\Local\Temp\ccDKHoe4.s:11062  .debug_str:0000000000000f59 .LASF234
C:\Users\stapi\AppData\Local\Temp\ccDKHoe4.s:10920  .debug_str:0000000000000b05 .LASF235
C:\Users\stapi\AppData\Local\Temp\ccDKHoe4.s:10810  .debug_str:000000000000081b .LASF237
C:\Users\stapi\AppData\Local\Temp\ccDKHoe4.s:26     .text.lwiperf_tcp_close:0000000000000000 .LFB8
C:\Users\stapi\AppData\Local\Temp\ccDKHoe4.s:279    .text.lwiperf_tcp_close:000000000000013c .LFE8
C:\Users\stapi\AppData\Local\Temp\ccDKHoe4.s:8492   .debug_loc:000000000000036c .LLST0
C:\Users\stapi\AppData\Local\Temp\ccDKHoe4.s:10782  .debug_str:0000000000000761 .LASF238
C:\Users\stapi\AppData\Local\Temp\ccDKHoe4.s:8503   .debug_loc:000000000000038a .LLST1
C:\Users\stapi\AppData\Local\Temp\ccDKHoe4.s:8544   .debug_loc:00000000000003e9 .LLST2
C:\Users\stapi\AppData\Local\Temp\ccDKHoe4.s:37     .text.lwiperf_tcp_close:0000000000000008 .LBB10
C:\Users\stapi\AppData\Local\Temp\ccDKHoe4.s:8555   .debug_loc:0000000000000407 .LLST3
C:\Users\stapi\AppData\Local\Temp\ccDKHoe4.s:8566   .debug_loc:0000000000000425 .LLST4
C:\Users\stapi\AppData\Local\Temp\ccDKHoe4.s:8586   .debug_loc:000000000000045a .LLST5
C:\Users\stapi\AppData\Local\Temp\ccDKHoe4.s:182    .text.lwiperf_tcp_close:00000000000000c2 .LVL18
C:\Users\stapi\AppData\Local\Temp\ccDKHoe4.s:89     .text.lwiperf_tcp_close:000000000000002a .LBB15
C:\Users\stapi\AppData\Local\Temp\ccDKHoe4.s:8605   .debug_loc:000000000000048e .LLST6
C:\Users\stapi\AppData\Local\Temp\ccDKHoe4.s:8621   .debug_loc:00000000000004b8 .LLST7
C:\Users\stapi\AppData\Local\Temp\ccDKHoe4.s:206    .text.lwiperf_tcp_close:00000000000000d0 .LBB17
C:\Users\stapi\AppData\Local\Temp\ccDKHoe4.s:250    .text.lwiperf_tcp_close:000000000000010a .LBE17
C:\Users\stapi\AppData\Local\Temp\ccDKHoe4.s:8632   .debug_loc:00000000000004d6 .LLST8
C:\Users\stapi\AppData\Local\Temp\ccDKHoe4.s:8639   .debug_loc:00000000000004e9 .LLST9
C:\Users\stapi\AppData\Local\Temp\ccDKHoe4.s:8646   .debug_loc:00000000000004fc .LLST10
C:\Users\stapi\AppData\Local\Temp\ccDKHoe4.s:211    .text.lwiperf_tcp_close:00000000000000d8 .LVL23
C:\Users\stapi\AppData\Local\Temp\ccDKHoe4.s:106    .text.lwiperf_tcp_close:000000000000003a .LVL6
C:\Users\stapi\AppData\Local\Temp\ccDKHoe4.s:112    .text.lwiperf_tcp_close:0000000000000048 .LVL7
C:\Users\stapi\AppData\Local\Temp\ccDKHoe4.s:117    .text.lwiperf_tcp_close:0000000000000054 .LVL8
C:\Users\stapi\AppData\Local\Temp\ccDKHoe4.s:122    .text.lwiperf_tcp_close:0000000000000060 .LVL9
C:\Users\stapi\AppData\Local\Temp\ccDKHoe4.s:127    .text.lwiperf_tcp_close:000000000000006c .LVL10
C:\Users\stapi\AppData\Local\Temp\ccDKHoe4.s:132    .text.lwiperf_tcp_close:0000000000000076 .LVL11
C:\Users\stapi\AppData\Local\Temp\ccDKHoe4.s:140    .text.lwiperf_tcp_close:0000000000000082 .LVL13
C:\Users\stapi\AppData\Local\Temp\ccDKHoe4.s:147    .text.lwiperf_tcp_close:000000000000008c .LVL14
C:\Users\stapi\AppData\Local\Temp\ccDKHoe4.s:257    .text.lwiperf_tcp_close:0000000000000114 .LVL30
C:\Users\stapi\AppData\Local\Temp\ccDKHoe4.s:272    .text.lwiperf_tcp_close:000000000000013a .LVL32
C:\Users\stapi\AppData\Local\Temp\ccDKHoe4.s:10892  .debug_str:0000000000000a40 .LASF244
C:\Users\stapi\AppData\Local\Temp\ccDKHoe4.s:10582  .debug_str:0000000000000197 .LASF239
C:\Users\stapi\AppData\Local\Temp\ccDKHoe4.s:10844  .debug_str:0000000000000921 .LASF240
C:\Users\stapi\AppData\Local\Temp\ccDKHoe4.s:11052  .debug_str:0000000000000e31 .LASF241
C:\Users\stapi\AppData\Local\Temp\ccDKHoe4.s:11012  .debug_str:0000000000000d30 .LASF242
C:\Users\stapi\AppData\Local\Temp\ccDKHoe4.s:11018  .debug_str:0000000000000d57 .LASF243
C:\Users\stapi\AppData\Local\Temp\ccDKHoe4.s:11006  .debug_str:0000000000000cf8 .LASF245
C:\Users\stapi\AppData\Local\Temp\ccDKHoe4.s:10572  .debug_str:000000000000015c .LASF246
C:\Users\stapi\AppData\Local\Temp\ccDKHoe4.s:10682  .debug_str:0000000000000489 .LASF247
C:\Users\stapi\AppData\Local\Temp\ccDKHoe4.s:319    .text.lwiperf_tcp_accept:0000000000000000 .LFB17
C:\Users\stapi\AppData\Local\Temp\ccDKHoe4.s:658    .text.lwiperf_tcp_accept:00000000000001c8 .LFE17
C:\Users\stapi\AppData\Local\Temp\ccDKHoe4.s:8658   .debug_loc:000000000000051b .LLST14
C:\Users\stapi\AppData\Local\Temp\ccDKHoe4.s:8688   .debug_loc:0000000000000568 .LLST15
C:\Users\stapi\AppData\Local\Temp\ccDKHoe4.s:8750   .debug_loc:000000000000060d .LLST16
C:\Users\stapi\AppData\Local\Temp\ccDKHoe4.s:8819   .debug_loc:00000000000006ab .LLST17
C:\Users\stapi\AppData\Local\Temp\ccDKHoe4.s:367    .text.lwiperf_tcp_accept:000000000000003e .LBB27
C:\Users\stapi\AppData\Local\Temp\ccDKHoe4.s:8838   .debug_loc:00000000000006df .LLST18
C:\Users\stapi\AppData\Local\Temp\ccDKHoe4.s:8856   .debug_loc:000000000000070b .LLST19
C:\Users\stapi\AppData\Local\Temp\ccDKHoe4.s:8921   .debug_loc:00000000000007b3 .LLST20
C:\Users\stapi\AppData\Local\Temp\ccDKHoe4.s:8936   .debug_loc:00000000000007dc .LLST21
C:\Users\stapi\AppData\Local\Temp\ccDKHoe4.s:582    .text.lwiperf_tcp_accept:0000000000000192 .LBB29
C:\Users\stapi\AppData\Local\Temp\ccDKHoe4.s:8947   .debug_loc:00000000000007fa .LLST22
C:\Users\stapi\AppData\Local\Temp\ccDKHoe4.s:8958   .debug_loc:0000000000000818 .LLST23
C:\Users\stapi\AppData\Local\Temp\ccDKHoe4.s:607    .text.lwiperf_tcp_accept:00000000000001a8 .LBB32
C:\Users\stapi\AppData\Local\Temp\ccDKHoe4.s:620    .text.lwiperf_tcp_accept:00000000000001b2 .LBE32
C:\Users\stapi\AppData\Local\Temp\ccDKHoe4.s:8969   .debug_loc:0000000000000836 .LLST24
C:\Users\stapi\AppData\Local\Temp\ccDKHoe4.s:387    .text.lwiperf_tcp_accept:0000000000000066 .LVL45
C:\Users\stapi\AppData\Local\Temp\ccDKHoe4.s:413    .text.lwiperf_tcp_accept:0000000000000090 .LVL49
C:\Users\stapi\AppData\Local\Temp\ccDKHoe4.s:446    .text.lwiperf_tcp_accept:00000000000000c2 .LVL53
C:\Users\stapi\AppData\Local\Temp\ccDKHoe4.s:487    .text.lwiperf_tcp_accept:00000000000000f6 .LVL59
C:\Users\stapi\AppData\Local\Temp\ccDKHoe4.s:501    .text.lwiperf_tcp_accept:0000000000000104 .LVL61
C:\Users\stapi\AppData\Local\Temp\ccDKHoe4.s:511    .text.lwiperf_tcp_accept:0000000000000116 .LVL63
C:\Users\stapi\AppData\Local\Temp\ccDKHoe4.s:526    .text.lwiperf_tcp_accept:000000000000012c .LVL64
C:\Users\stapi\AppData\Local\Temp\ccDKHoe4.s:545    .text.lwiperf_tcp_accept:0000000000000142 .LVL65
C:\Users\stapi\AppData\Local\Temp\ccDKHoe4.s:551    .text.lwiperf_tcp_accept:0000000000000154 .LVL66
C:\Users\stapi\AppData\Local\Temp\ccDKHoe4.s:558    .text.lwiperf_tcp_accept:0000000000000168 .LVL67
C:\Users\stapi\AppData\Local\Temp\ccDKHoe4.s:564    .text.lwiperf_tcp_accept:000000000000017a .LVL68
C:\Users\stapi\AppData\Local\Temp\ccDKHoe4.s:604    .text.lwiperf_tcp_accept:00000000000001a8 .LVL73
C:\Users\stapi\AppData\Local\Temp\ccDKHoe4.s:359    .text.lwiperf_tcp_accept:000000000000003c .LVL41
C:\Users\stapi\AppData\Local\Temp\ccDKHoe4.s:668    .text.lwiperf_tcp_client_send_more:0000000000000000 .LFB9
C:\Users\stapi\AppData\Local\Temp\ccDKHoe4.s:945    .text.lwiperf_tcp_client_send_more:0000000000000124 .LFE9
C:\Users\stapi\AppData\Local\Temp\ccDKHoe4.s:8976   .debug_loc:0000000000000849 .LLST25
C:\Users\stapi\AppData\Local\Temp\ccDKHoe4.s:703    .text.lwiperf_tcp_client_send_more:0000000000000018 .LBB43
C:\Users\stapi\AppData\Local\Temp\ccDKHoe4.s:9002   .debug_loc:000000000000088b .LLST26
C:\Users\stapi\AppData\Local\Temp\ccDKHoe4.s:9033   .debug_loc:00000000000008d9 .LLST27
C:\Users\stapi\AppData\Local\Temp\ccDKHoe4.s:9044   .debug_loc:00000000000008f7 .LLST28
C:\Users\stapi\AppData\Local\Temp\ccDKHoe4.s:9055   .debug_loc:0000000000000915 .LLST29
C:\Users\stapi\AppData\Local\Temp\ccDKHoe4.s:9068   .debug_loc:0000000000000936 .LLST30
C:\Users\stapi\AppData\Local\Temp\ccDKHoe4.s:9083   .debug_loc:000000000000095f .LLST31
C:\Users\stapi\AppData\Local\Temp\ccDKHoe4.s:9094   .debug_loc:000000000000097d .LLST32
C:\Users\stapi\AppData\Local\Temp\ccDKHoe4.s:9101   .debug_loc:0000000000000990 .LLST33
C:\Users\stapi\AppData\Local\Temp\ccDKHoe4.s:9108   .debug_loc:00000000000009a3 .LLST34
C:\Users\stapi\AppData\Local\Temp\ccDKHoe4.s:9118   .debug_loc:00000000000009b9 .LLST35
C:\Users\stapi\AppData\Local\Temp\ccDKHoe4.s:738    .text.lwiperf_tcp_client_send_more:0000000000000040 .LVL80
C:\Users\stapi\AppData\Local\Temp\ccDKHoe4.s:749    .text.lwiperf_tcp_client_send_more:0000000000000050 .LVL83
C:\Users\stapi\AppData\Local\Temp\ccDKHoe4.s:763    .text.lwiperf_tcp_client_send_more:0000000000000064 .LVL86
C:\Users\stapi\AppData\Local\Temp\ccDKHoe4.s:811    .text.lwiperf_tcp_client_send_more:0000000000000094 .LBB47
C:\Users\stapi\AppData\Local\Temp\ccDKHoe4.s:822    .text.lwiperf_tcp_client_send_more:00000000000000a2 .LBE47
C:\Users\stapi\AppData\Local\Temp\ccDKHoe4.s:9130   .debug_loc:00000000000009d1 .LLST36
C:\Users\stapi\AppData\Local\Temp\ccDKHoe4.s:815    .text.lwiperf_tcp_client_send_more:000000000000009c .LVL91
C:\Users\stapi\AppData\Local\Temp\ccDKHoe4.s:858    .text.lwiperf_tcp_client_send_more:00000000000000ca .LVL96
C:\Users\stapi\AppData\Local\Temp\ccDKHoe4.s:875    .text.lwiperf_tcp_client_send_more:00000000000000de .LVL100
C:\Users\stapi\AppData\Local\Temp\ccDKHoe4.s:801    .text.lwiperf_tcp_client_send_more:0000000000000092 .LVL89
C:\Users\stapi\AppData\Local\Temp\ccDKHoe4.s:955    .text.lwiperf_tcp_client_sent:0000000000000000 .LFB10
C:\Users\stapi\AppData\Local\Temp\ccDKHoe4.s:1009   .text.lwiperf_tcp_client_sent:0000000000000048 .LFE10
C:\Users\stapi\AppData\Local\Temp\ccDKHoe4.s:9137   .debug_loc:00000000000009e4 .LLST37
C:\Users\stapi\AppData\Local\Temp\ccDKHoe4.s:9162   .debug_loc:0000000000000a1e .LLST38
C:\Users\stapi\AppData\Local\Temp\ccDKHoe4.s:9187   .debug_loc:0000000000000a58 .LLST39
C:\Users\stapi\AppData\Local\Temp\ccDKHoe4.s:9212   .debug_loc:0000000000000a92 .LLST40
C:\Users\stapi\AppData\Local\Temp\ccDKHoe4.s:989    .text.lwiperf_tcp_client_sent:0000000000000034 .LBB52
C:\Users\stapi\AppData\Local\Temp\ccDKHoe4.s:1003   .text.lwiperf_tcp_client_sent:0000000000000040 .LBE52
C:\Users\stapi\AppData\Local\Temp\ccDKHoe4.s:9237   .debug_loc:0000000000000acc .LLST41
C:\Users\stapi\AppData\Local\Temp\ccDKHoe4.s:9251   .debug_loc:0000000000000aed .LLST42
C:\Users\stapi\AppData\Local\Temp\ccDKHoe4.s:9261   .debug_loc:0000000000000b03 .LLST43
C:\Users\stapi\AppData\Local\Temp\ccDKHoe4.s:1001   .text.lwiperf_tcp_client_sent:0000000000000040 .LVL114
C:\Users\stapi\AppData\Local\Temp\ccDKHoe4.s:981    .text.lwiperf_tcp_client_sent:0000000000000032 .LVL112
C:\Users\stapi\AppData\Local\Temp\ccDKHoe4.s:1019   .text.lwiperf_tcp_poll:0000000000000000 .LFB16
C:\Users\stapi\AppData\Local\Temp\ccDKHoe4.s:1095   .text.lwiperf_tcp_poll:000000000000006c .LFE16
C:\Users\stapi\AppData\Local\Temp\ccDKHoe4.s:9275   .debug_loc:0000000000000b24 .LLST44
C:\Users\stapi\AppData\Local\Temp\ccDKHoe4.s:9311   .debug_loc:0000000000000b77 .LLST45
C:\Users\stapi\AppData\Local\Temp\ccDKHoe4.s:9347   .debug_loc:0000000000000bca .LLST46
C:\Users\stapi\AppData\Local\Temp\ccDKHoe4.s:1082   .text.lwiperf_tcp_poll:000000000000005c .LBB56
C:\Users\stapi\AppData\Local\Temp\ccDKHoe4.s:1093   .text.lwiperf_tcp_poll:000000000000006c .LBE56
C:\Users\stapi\AppData\Local\Temp\ccDKHoe4.s:9383   .debug_loc:0000000000000c1d .LLST47
C:\Users\stapi\AppData\Local\Temp\ccDKHoe4.s:9397   .debug_loc:0000000000000c3e .LLST48
C:\Users\stapi\AppData\Local\Temp\ccDKHoe4.s:1090   .text.lwiperf_tcp_poll:000000000000006a .LVL124
C:\Users\stapi\AppData\Local\Temp\ccDKHoe4.s:1044   .text.lwiperf_tcp_poll:0000000000000032 .LVL119
C:\Users\stapi\AppData\Local\Temp\ccDKHoe4.s:1070   .text.lwiperf_tcp_poll:0000000000000052 .LVL122
C:\Users\stapi\AppData\Local\Temp\ccDKHoe4.s:1101   .text.lwiperf_tcp_client_connected:0000000000000000 .LFB11
C:\Users\stapi\AppData\Local\Temp\ccDKHoe4.s:1182   .text.lwiperf_tcp_client_connected:0000000000000066 .LFE11
C:\Users\stapi\AppData\Local\Temp\ccDKHoe4.s:9411   .debug_loc:0000000000000c5f .LLST49
C:\Users\stapi\AppData\Local\Temp\ccDKHoe4.s:9444   .debug_loc:0000000000000caf .LLST50
C:\Users\stapi\AppData\Local\Temp\ccDKHoe4.s:9480   .debug_loc:0000000000000d02 .LLST51
C:\Users\stapi\AppData\Local\Temp\ccDKHoe4.s:9516   .debug_loc:0000000000000d55 .LLST52
C:\Users\stapi\AppData\Local\Temp\ccDKHoe4.s:1160   .text.lwiperf_tcp_client_connected:000000000000004a .LBB60
C:\Users\stapi\AppData\Local\Temp\ccDKHoe4.s:1180   .text.lwiperf_tcp_client_connected:0000000000000066 .LBE60
C:\Users\stapi\AppData\Local\Temp\ccDKHoe4.s:9549   .debug_loc:0000000000000da5 .LLST53
C:\Users\stapi\AppData\Local\Temp\ccDKHoe4.s:9563   .debug_loc:0000000000000dc6 .LLST54
C:\Users\stapi\AppData\Local\Temp\ccDKHoe4.s:9571   .debug_loc:0000000000000dda .LLST55
C:\Users\stapi\AppData\Local\Temp\ccDKHoe4.s:1170   .text.lwiperf_tcp_client_connected:0000000000000058 .LVL136
C:\Users\stapi\AppData\Local\Temp\ccDKHoe4.s:1177   .text.lwiperf_tcp_client_connected:0000000000000064 .LVL137
C:\Users\stapi\AppData\Local\Temp\ccDKHoe4.s:1128   .text.lwiperf_tcp_client_connected:0000000000000032 .LVL130
C:\Users\stapi\AppData\Local\Temp\ccDKHoe4.s:1146   .text.lwiperf_tcp_client_connected:0000000000000040 .LVL133
C:\Users\stapi\AppData\Local\Temp\ccDKHoe4.s:1188   .text.lwiperf_start_tcp_server_impl.constprop.0:0000000000000000 .LFB31
C:\Users\stapi\AppData\Local\Temp\ccDKHoe4.s:1384   .text.lwiperf_start_tcp_server_impl.constprop.0:00000000000000f4 .LFE31
C:\Users\stapi\AppData\Local\Temp\ccDKHoe4.s:9578   .debug_loc:0000000000000ded .LLST56
C:\Users\stapi\AppData\Local\Temp\ccDKHoe4.s:9607   .debug_loc:0000000000000e32 .LLST57
C:\Users\stapi\AppData\Local\Temp\ccDKHoe4.s:9621   .debug_loc:0000000000000e53 .LLST58
C:\Users\stapi\AppData\Local\Temp\ccDKHoe4.s:9643   .debug_loc:0000000000000e8a .LLST59
C:\Users\stapi\AppData\Local\Temp\ccDKHoe4.s:9672   .debug_loc:0000000000000ecf .LLST60
C:\Users\stapi\AppData\Local\Temp\ccDKHoe4.s:9694   .debug_loc:0000000000000f06 .LLST61
C:\Users\stapi\AppData\Local\Temp\ccDKHoe4.s:9716   .debug_loc:0000000000000f3d .LLST62
C:\Users\stapi\AppData\Local\Temp\ccDKHoe4.s:9723   .debug_loc:0000000000000f50 .LLST63
C:\Users\stapi\AppData\Local\Temp\ccDKHoe4.s:9738   .debug_loc:0000000000000f79 .LLST64
C:\Users\stapi\AppData\Local\Temp\ccDKHoe4.s:9749   .debug_loc:0000000000000f97 .LLST65
C:\Users\stapi\AppData\Local\Temp\ccDKHoe4.s:1350   .text.lwiperf_start_tcp_server_impl.constprop.0:00000000000000ca .LBB64
C:\Users\stapi\AppData\Local\Temp\ccDKHoe4.s:1364   .text.lwiperf_start_tcp_server_impl.constprop.0:00000000000000d8 .LBE64
C:\Users\stapi\AppData\Local\Temp\ccDKHoe4.s:9766   .debug_loc:0000000000000fc2 .LLST66
C:\Users\stapi\AppData\Local\Temp\ccDKHoe4.s:1228   .text.lwiperf_start_tcp_server_impl.constprop.0:0000000000000024 .LVL140
C:\Users\stapi\AppData\Local\Temp\ccDKHoe4.s:1261   .text.lwiperf_start_tcp_server_impl.constprop.0:0000000000000042 .LVL145
C:\Users\stapi\AppData\Local\Temp\ccDKHoe4.s:1281   .text.lwiperf_start_tcp_server_impl.constprop.0:0000000000000062 .LVL146
C:\Users\stapi\AppData\Local\Temp\ccDKHoe4.s:1292   .text.lwiperf_start_tcp_server_impl.constprop.0:0000000000000072 .LVL148
C:\Users\stapi\AppData\Local\Temp\ccDKHoe4.s:1304   .text.lwiperf_start_tcp_server_impl.constprop.0:0000000000000082 .LVL151
C:\Users\stapi\AppData\Local\Temp\ccDKHoe4.s:1342   .text.lwiperf_start_tcp_server_impl.constprop.0:00000000000000b8 .LVL155
C:\Users\stapi\AppData\Local\Temp\ccDKHoe4.s:1348   .text.lwiperf_start_tcp_server_impl.constprop.0:00000000000000ca .LVL156
C:\Users\stapi\AppData\Local\Temp\ccDKHoe4.s:1377   .text.lwiperf_start_tcp_server_impl.constprop.0:00000000000000e8 .LVL159
C:\Users\stapi\AppData\Local\Temp\ccDKHoe4.s:1381   .text.lwiperf_start_tcp_server_impl.constprop.0:00000000000000f2 .LVL160
C:\Users\stapi\AppData\Local\Temp\ccDKHoe4.s:1394   .text.lwiperf_tx_start_impl:0000000000000000 .LFB12
C:\Users\stapi\AppData\Local\Temp\ccDKHoe4.s:1657   .text.lwiperf_tx_start_impl:000000000000014e .LFE12
C:\Users\stapi\AppData\Local\Temp\ccDKHoe4.s:9773   .debug_loc:0000000000000fd5 .LLST67
C:\Users\stapi\AppData\Local\Temp\ccDKHoe4.s:9795   .debug_loc:000000000000100c .LLST68
C:\Users\stapi\AppData\Local\Temp\ccDKHoe4.s:9820   .debug_loc:0000000000001046 .LLST69
C:\Users\stapi\AppData\Local\Temp\ccDKHoe4.s:9842   .debug_loc:000000000000107d .LLST70
C:\Users\stapi\AppData\Local\Temp\ccDKHoe4.s:9864   .debug_loc:00000000000010b4 .LLST71
C:\Users\stapi\AppData\Local\Temp\ccDKHoe4.s:9886   .debug_loc:00000000000010eb .LLST72
C:\Users\stapi\AppData\Local\Temp\ccDKHoe4.s:9908   .debug_loc:0000000000001122 .LLST73
C:\Users\stapi\AppData\Local\Temp\ccDKHoe4.s:1445   .text.lwiperf_tx_start_impl:0000000000000034 .LBB70
C:\Users\stapi\AppData\Local\Temp\ccDKHoe4.s:9930   .debug_loc:0000000000001159 .LLST74
C:\Users\stapi\AppData\Local\Temp\ccDKHoe4.s:9941   .debug_loc:0000000000001177 .LLST75
C:\Users\stapi\AppData\Local\Temp\ccDKHoe4.s:9952   .debug_loc:0000000000001195 .LLST76
C:\Users\stapi\AppData\Local\Temp\ccDKHoe4.s:9963   .debug_loc:00000000000011b3 .LLST77
C:\Users\stapi\AppData\Local\Temp\ccDKHoe4.s:9974   .debug_loc:00000000000011d1 .LLST78
C:\Users\stapi\AppData\Local\Temp\ccDKHoe4.s:9985   .debug_loc:00000000000011ef .LLST79
C:\Users\stapi\AppData\Local\Temp\ccDKHoe4.s:9996   .debug_loc:000000000000120d .LLST80
C:\Users\stapi\AppData\Local\Temp\ccDKHoe4.s:10007  .debug_loc:000000000000122b .LLST81
C:\Users\stapi\AppData\Local\Temp\ccDKHoe4.s:10018  .debug_loc:0000000000001249 .LLST82
C:\Users\stapi\AppData\Local\Temp\ccDKHoe4.s:10029  .debug_loc:0000000000001267 .LLST83
C:\Users\stapi\AppData\Local\Temp\ccDKHoe4.s:1633   .text.lwiperf_tx_start_impl:000000000000013a .LBB72
C:\Users\stapi\AppData\Local\Temp\ccDKHoe4.s:1647   .text.lwiperf_tx_start_impl:0000000000000148 .LBE72
C:\Users\stapi\AppData\Local\Temp\ccDKHoe4.s:10040  .debug_loc:0000000000001285 .LLST84
C:\Users\stapi\AppData\Local\Temp\ccDKHoe4.s:1477   .text.lwiperf_tx_start_impl:0000000000000050 .LVL170
C:\Users\stapi\AppData\Local\Temp\ccDKHoe4.s:1489   .text.lwiperf_tx_start_impl:0000000000000060 .LVL172
C:\Users\stapi\AppData\Local\Temp\ccDKHoe4.s:1498   .text.lwiperf_tx_start_impl:000000000000006e .LVL174
C:\Users\stapi\AppData\Local\Temp\ccDKHoe4.s:1537   .text.lwiperf_tx_start_impl:000000000000008e .LVL177
C:\Users\stapi\AppData\Local\Temp\ccDKHoe4.s:1550   .text.lwiperf_tx_start_impl:00000000000000a0 .LVL178
C:\Users\stapi\AppData\Local\Temp\ccDKHoe4.s:1573   .text.lwiperf_tx_start_impl:00000000000000c4 .LVL179
C:\Users\stapi\AppData\Local\Temp\ccDKHoe4.s:1582   .text.lwiperf_tx_start_impl:00000000000000d4 .LVL180
C:\Users\stapi\AppData\Local\Temp\ccDKHoe4.s:1588   .text.lwiperf_tx_start_impl:00000000000000e6 .LVL181
C:\Users\stapi\AppData\Local\Temp\ccDKHoe4.s:1595   .text.lwiperf_tx_start_impl:00000000000000fa .LVL182
C:\Users\stapi\AppData\Local\Temp\ccDKHoe4.s:1601   .text.lwiperf_tx_start_impl:000000000000010c .LVL183
C:\Users\stapi\AppData\Local\Temp\ccDKHoe4.s:1615   .text.lwiperf_tx_start_impl:0000000000000128 .LVL184
C:\Users\stapi\AppData\Local\Temp\ccDKHoe4.s:1626   .text.lwiperf_tx_start_impl:0000000000000138 .LVL187
C:\Users\stapi\AppData\Local\Temp\ccDKHoe4.s:1436   .text.lwiperf_tx_start_impl:0000000000000030 .LVL166
C:\Users\stapi\AppData\Local\Temp\ccDKHoe4.s:1759   .text.lwiperf_tcp_recv:0000000000000000 .LFB14
C:\Users\stapi\AppData\Local\Temp\ccDKHoe4.s:2103   .text.lwiperf_tcp_recv:00000000000001aa .LFE14
C:\Users\stapi\AppData\Local\Temp\ccDKHoe4.s:10047  .debug_loc:0000000000001298 .LLST88
C:\Users\stapi\AppData\Local\Temp\ccDKHoe4.s:10080  .debug_loc:00000000000012e8 .LLST89
C:\Users\stapi\AppData\Local\Temp\ccDKHoe4.s:10148  .debug_loc:0000000000001393 .LLST90
C:\Users\stapi\AppData\Local\Temp\ccDKHoe4.s:10181  .debug_loc:00000000000013e3 .LLST91
C:\Users\stapi\AppData\Local\Temp\ccDKHoe4.s:10261  .debug_loc:000000000000149a .LLST92
C:\Users\stapi\AppData\Local\Temp\ccDKHoe4.s:1812   .text.lwiperf_tcp_recv:0000000000000038 .LBB81
C:\Users\stapi\AppData\Local\Temp\ccDKHoe4.s:10294  .debug_loc:00000000000014ea .LLST93
C:\Users\stapi\AppData\Local\Temp\ccDKHoe4.s:10307  .debug_loc:000000000000150a .LLST94
C:\Users\stapi\AppData\Local\Temp\ccDKHoe4.s:10318  .debug_loc:0000000000001528 .LLST95
C:\Users\stapi\AppData\Local\Temp\ccDKHoe4.s:10329  .debug_loc:0000000000001546 .LLST96
C:\Users\stapi\AppData\Local\Temp\ccDKHoe4.s:10336  .debug_loc:0000000000001559 .LLST97
C:\Users\stapi\AppData\Local\Temp\ccDKHoe4.s:10347  .debug_loc:0000000000001577 .LLST98
C:\Users\stapi\AppData\Local\Temp\ccDKHoe4.s:10358  .debug_loc:0000000000001595 .LLST99
C:\Users\stapi\AppData\Local\Temp\ccDKHoe4.s:2041   .text.lwiperf_tcp_recv:000000000000015a .LVL233
C:\Users\stapi\AppData\Local\Temp\ccDKHoe4.s:2092   .text.lwiperf_tcp_recv:00000000000001a4 .LVL238
C:\Users\stapi\AppData\Local\Temp\ccDKHoe4.s:1816   .text.lwiperf_tcp_recv:0000000000000040 .LVL207
C:\Users\stapi\AppData\Local\Temp\ccDKHoe4.s:1858   .text.lwiperf_tcp_recv:0000000000000068 .LVL211
C:\Users\stapi\AppData\Local\Temp\ccDKHoe4.s:1926   .text.lwiperf_tcp_recv:00000000000000c0 .LVL219
C:\Users\stapi\AppData\Local\Temp\ccDKHoe4.s:1950   .text.lwiperf_tcp_recv:00000000000000dc .LVL223
C:\Users\stapi\AppData\Local\Temp\ccDKHoe4.s:1968   .text.lwiperf_tcp_recv:00000000000000f2 .LVL224
C:\Users\stapi\AppData\Local\Temp\ccDKHoe4.s:1978   .text.lwiperf_tcp_recv:0000000000000102 .LVL225
C:\Users\stapi\AppData\Local\Temp\ccDKHoe4.s:1990   .text.lwiperf_tcp_recv:0000000000000116 .LVL226
C:\Users\stapi\AppData\Local\Temp\ccDKHoe4.s:2005   .text.lwiperf_tcp_recv:000000000000013c .LVL228
C:\Users\stapi\AppData\Local\Temp\ccDKHoe4.s:2048   .text.lwiperf_tcp_recv:0000000000000164 .LVL234
C:\Users\stapi\AppData\Local\Temp\ccDKHoe4.s:2066   .text.lwiperf_tcp_recv:000000000000017c .LVL237
C:\Users\stapi\AppData\Local\Temp\ccDKHoe4.s:1794   .text.lwiperf_tcp_recv:0000000000000032 .LVL204
C:\Users\stapi\AppData\Local\Temp\ccDKHoe4.s:10516  .debug_str:0000000000000016 .LASF248
C:\Users\stapi\AppData\Local\Temp\ccDKHoe4.s:10822  .debug_str:0000000000000867 .LASF266
C:\Users\stapi\AppData\Local\Temp\ccDKHoe4.s:10676  .debug_str:0000000000000465 .LASF268
C:\Users\stapi\AppData\Local\Temp\ccDKHoe4.s:10584  .debug_str:00000000000001a3 .LASF249
C:\Users\stapi\AppData\Local\Temp\ccDKHoe4.s:10802  .debug_str:00000000000007dc .LASF250
C:\Users\stapi\AppData\Local\Temp\ccDKHoe4.s:11070  .debug_str:0000000000000f7b .LASF251
C:\Users\stapi\AppData\Local\Temp\ccDKHoe4.s:11060  .debug_str:0000000000000f51 .LASF252
C:\Users\stapi\AppData\Local\Temp\ccDKHoe4.s:11004  .debug_str:0000000000000cef .LASF253
C:\Users\stapi\AppData\Local\Temp\ccDKHoe4.s:10604  .debug_str:00000000000002ab .LASF254
C:\Users\stapi\AppData\Local\Temp\ccDKHoe4.s:10594  .debug_str:00000000000001e5 .LASF255
C:\Users\stapi\AppData\Local\Temp\ccDKHoe4.s:10826  .debug_str:0000000000000886 .LASF256
C:\Users\stapi\AppData\Local\Temp\ccDKHoe4.s:10910  .debug_str:0000000000000aaa .LASF257
C:\Users\stapi\AppData\Local\Temp\ccDKHoe4.s:10848  .debug_str:0000000000000944 .LASF258
C:\Users\stapi\AppData\Local\Temp\ccDKHoe4.s:10692  .debug_str:00000000000004df .LASF259
C:\Users\stapi\AppData\Local\Temp\ccDKHoe4.s:11016  .debug_str:0000000000000d4d .LASF260
C:\Users\stapi\AppData\Local\Temp\ccDKHoe4.s:10724  .debug_str:0000000000000616 .LASF261
C:\Users\stapi\AppData\Local\Temp\ccDKHoe4.s:10636  .debug_str:0000000000000372 .LASF262
C:\Users\stapi\AppData\Local\Temp\ccDKHoe4.s:10612  .debug_str:00000000000002eb .LASF263
C:\Users\stapi\AppData\Local\Temp\ccDKHoe4.s:10824  .debug_str:000000000000086e .LASF264
C:\Users\stapi\AppData\Local\Temp\ccDKHoe4.s:10872  .debug_str:00000000000009d7 .LASF265
C:\Users\stapi\AppData\Local\Temp\ccDKHoe4.s:11036  .debug_str:0000000000000dc4 .LASF267
C:\Users\stapi\AppData\Local\Temp\ccDKHoe4.s:10588  .debug_str:00000000000001b7 .LASF269
C:\Users\stapi\AppData\Local\Temp\ccDKHoe4.s:10524  .debug_str:000000000000004b .LASF270
C:\Users\stapi\AppData\Local\Temp\ccDKHoe4.s:10530  .debug_str:0000000000000065 .LASF271
C:\Users\stapi\AppData\Local\Temp\ccDKHoe4.s:10660  .debug_str:00000000000003fa .LASF272
C:\Users\stapi\AppData\Local\Temp\ccDKHoe4.s:10786  .debug_str:0000000000000778 .LASF273
C:\Users\stapi\AppData\Local\Temp\ccDKHoe4.s:10788  .debug_str:000000000000078b .LASF274
C:\Users\stapi\AppData\Local\Temp\ccDKHoe4.s:10766  .debug_str:0000000000000707 .LASF275
C:\Users\stapi\AppData\Local\Temp\ccDKHoe4.s:2189   .text.lwiperf_abort:0000000000000000 .LVL248
C:\Users\stapi\AppData\Local\Temp\ccDKHoe4.s:2206   .text.lwiperf_abort:0000000000000012 .LVL250
C:\Users\stapi\AppData\Local\Temp\ccDKHoe4.s:2234   .text.lwiperf_abort:000000000000002c .LVL252
C:\Users\stapi\AppData\Local\Temp\ccDKHoe4.s:2242   .text.lwiperf_abort:0000000000000032 .LVL253
C:\Users\stapi\AppData\Local\Temp\ccDKHoe4.s:2197   .text.lwiperf_abort:0000000000000008 .LVL249
C:\Users\stapi\AppData\Local\Temp\ccDKHoe4.s:2209   .text.lwiperf_abort:0000000000000014 .LVL251
C:\Users\stapi\AppData\Local\Temp\ccDKHoe4.s:2249   .text.lwiperf_abort:000000000000003c .LVL255
C:\Users\stapi\AppData\Local\Temp\ccDKHoe4.s:2269   .text.lwiperf_start_tcp_client:0000000000000000 .LVL256
C:\Users\stapi\AppData\Local\Temp\ccDKHoe4.s:2295   .text.lwiperf_start_tcp_client:0000000000000016 .LVL259
C:\Users\stapi\AppData\Local\Temp\ccDKHoe4.s:2291   .text.lwiperf_start_tcp_client:0000000000000012 .LVL257
C:\Users\stapi\AppData\Local\Temp\ccDKHoe4.s:2293   .text.lwiperf_start_tcp_client:0000000000000014 .LVL258
C:\Users\stapi\AppData\Local\Temp\ccDKHoe4.s:2373   .text.lwiperf_start_tcp_client:0000000000000098 .LVL266
C:\Users\stapi\AppData\Local\Temp\ccDKHoe4.s:2390   .text.lwiperf_start_tcp_client:00000000000000b8 .LVL268
C:\Users\stapi\AppData\Local\Temp\ccDKHoe4.s:2401   .text.lwiperf_start_tcp_client:00000000000000bc .LVL269
C:\Users\stapi\AppData\Local\Temp\ccDKHoe4.s:2418   .text.lwiperf_start_tcp_client:00000000000000d6 .LVL271
C:\Users\stapi\AppData\Local\Temp\ccDKHoe4.s:2423   .text.lwiperf_start_tcp_client:00000000000000e0 .LVL273
C:\Users\stapi\AppData\Local\Temp\ccDKHoe4.s:2448   .text.lwiperf_start_tcp_client:00000000000000fa .LVL274
C:\Users\stapi\AppData\Local\Temp\ccDKHoe4.s:2473   .text.lwiperf_start_tcp_client_default:0000000000000000 .LVL275
C:\Users\stapi\AppData\Local\Temp\ccDKHoe4.s:2479   .text.lwiperf_start_tcp_client_default:0000000000000004 .LVL276
C:\Users\stapi\AppData\Local\Temp\ccDKHoe4.s:2485   .text.lwiperf_start_tcp_client_default:000000000000000c .LVL277
C:\Users\stapi\AppData\Local\Temp\ccDKHoe4.s:2113   .text.lwiperf_start_tcp_server:0000000000000000 .LVL239
C:\Users\stapi\AppData\Local\Temp\ccDKHoe4.s:2137   .text.lwiperf_start_tcp_server:000000000000001c .LVL241
C:\Users\stapi\AppData\Local\Temp\ccDKHoe4.s:2146   .text.lwiperf_start_tcp_server:0000000000000026 .LVL242
C:\Users\stapi\AppData\Local\Temp\ccDKHoe4.s:2151   .text.lwiperf_start_tcp_server:0000000000000028 .LVL243
C:\Users\stapi\AppData\Local\Temp\ccDKHoe4.s:2164   .text.lwiperf_start_tcp_server_default:0000000000000000 .LVL244
C:\Users\stapi\AppData\Local\Temp\ccDKHoe4.s:2171   .text.lwiperf_start_tcp_server_default:0000000000000008 .LVL245
C:\Users\stapi\AppData\Local\Temp\ccDKHoe4.s:2173   .text.lwiperf_start_tcp_server_default:000000000000000a .LVL246
C:\Users\stapi\AppData\Local\Temp\ccDKHoe4.s:288    .text.lwiperf_tcp_err:0000000000000000 .LVL33
C:\Users\stapi\AppData\Local\Temp\ccDKHoe4.s:293    .text.lwiperf_tcp_err:0000000000000002 .LVL34
C:\Users\stapi\AppData\Local\Temp\ccDKHoe4.s:1670   .text.lwiperf_tx_start_passive:0000000000000000 .LVL190
C:\Users\stapi\AppData\Local\Temp\ccDKHoe4.s:1681   .text.lwiperf_tx_start_passive:000000000000000c .LVL191
C:\Users\stapi\AppData\Local\Temp\ccDKHoe4.s:1717   .text.lwiperf_tx_start_passive:000000000000004c .LVL195
C:\Users\stapi\AppData\Local\Temp\ccDKHoe4.s:1729   .text.lwiperf_tx_start_passive:0000000000000066 .LVL197
C:\Users\stapi\AppData\Local\Temp\ccDKHoe4.s:1702   .text.lwiperf_tx_start_passive:0000000000000032 .LVL193
C:\Users\stapi\AppData\Local\Temp\ccDKHoe4.s:30     .text.lwiperf_tcp_close:0000000000000000 .LVL0
C:\Users\stapi\AppData\Local\Temp\ccDKHoe4.s:94     .text.lwiperf_tcp_close:000000000000002c .LVL5
C:\Users\stapi\AppData\Local\Temp\ccDKHoe4.s:156    .text.lwiperf_tcp_close:0000000000000096 .LVL15
C:\Users\stapi\AppData\Local\Temp\ccDKHoe4.s:175    .text.lwiperf_tcp_close:00000000000000a6 .LVL17
C:\Users\stapi\AppData\Local\Temp\ccDKHoe4.s:188    .text.lwiperf_tcp_close:00000000000000c4 .LVL19
C:\Users\stapi\AppData\Local\Temp\ccDKHoe4.s:248    .text.lwiperf_tcp_close:000000000000010a .LVL29
C:\Users\stapi\AppData\Local\Temp\ccDKHoe4.s:138    .text.lwiperf_tcp_close:000000000000007a .LVL12
C:\Users\stapi\AppData\Local\Temp\ccDKHoe4.s:266    .text.lwiperf_tcp_close:0000000000000122 .LVL31
C:\Users\stapi\AppData\Local\Temp\ccDKHoe4.s:49     .text.lwiperf_tcp_close:0000000000000014 .LVL1
C:\Users\stapi\AppData\Local\Temp\ccDKHoe4.s:85     .text.lwiperf_tcp_close:000000000000002a .LVL4
C:\Users\stapi\AppData\Local\Temp\ccDKHoe4.s:196    .text.lwiperf_tcp_close:00000000000000ca .LVL22
C:\Users\stapi\AppData\Local\Temp\ccDKHoe4.s:58     .text.lwiperf_tcp_close:000000000000001a .LVL2
C:\Users\stapi\AppData\Local\Temp\ccDKHoe4.s:173    .text.lwiperf_tcp_close:00000000000000a2 .LVL16
C:\Users\stapi\AppData\Local\Temp\ccDKHoe4.s:191    .text.lwiperf_tcp_close:00000000000000c6 .LVL20
C:\Users\stapi\AppData\Local\Temp\ccDKHoe4.s:194    .text.lwiperf_tcp_close:00000000000000c8 .LVL21
C:\Users\stapi\AppData\Local\Temp\ccDKHoe4.s:239    .text.lwiperf_tcp_close:00000000000000f8 .LVL26
C:\Users\stapi\AppData\Local\Temp\ccDKHoe4.s:220    .text.lwiperf_tcp_close:00000000000000e4 .LVL24
C:\Users\stapi\AppData\Local\Temp\ccDKHoe4.s:246    .text.lwiperf_tcp_close:0000000000000108 .LVL28
C:\Users\stapi\AppData\Local\Temp\ccDKHoe4.s:231    .text.lwiperf_tcp_close:00000000000000f0 .LVL25
C:\Users\stapi\AppData\Local\Temp\ccDKHoe4.s:244    .text.lwiperf_tcp_close:0000000000000106 .LVL27
C:\Users\stapi\AppData\Local\Temp\ccDKHoe4.s:322    .text.lwiperf_tcp_accept:0000000000000000 .LVL36
C:\Users\stapi\AppData\Local\Temp\ccDKHoe4.s:352    .text.lwiperf_tcp_accept:0000000000000024 .LVL39
C:\Users\stapi\AppData\Local\Temp\ccDKHoe4.s:461    .text.lwiperf_tcp_accept:00000000000000cc .LVL55
C:\Users\stapi\AppData\Local\Temp\ccDKHoe4.s:468    .text.lwiperf_tcp_accept:00000000000000d0 .LVL56
C:\Users\stapi\AppData\Local\Temp\ccDKHoe4.s:617    .text.lwiperf_tcp_accept:00000000000001b2 .LVL74
C:\Users\stapi\AppData\Local\Temp\ccDKHoe4.s:633    .text.lwiperf_tcp_accept:00000000000001bc .LVL75
C:\Users\stapi\AppData\Local\Temp\ccDKHoe4.s:350    .text.lwiperf_tcp_accept:0000000000000020 .LVL38
C:\Users\stapi\AppData\Local\Temp\ccDKHoe4.s:365    .text.lwiperf_tcp_accept:000000000000003e .LVL42
C:\Users\stapi\AppData\Local\Temp\ccDKHoe4.s:379    .text.lwiperf_tcp_accept:000000000000004a .LVL43
C:\Users\stapi\AppData\Local\Temp\ccDKHoe4.s:393    .text.lwiperf_tcp_accept:0000000000000068 .LVL46
C:\Users\stapi\AppData\Local\Temp\ccDKHoe4.s:405    .text.lwiperf_tcp_accept:0000000000000074 .LVL47
C:\Users\stapi\AppData\Local\Temp\ccDKHoe4.s:419    .text.lwiperf_tcp_accept:0000000000000092 .LVL50
C:\Users\stapi\AppData\Local\Temp\ccDKHoe4.s:438    .text.lwiperf_tcp_accept:00000000000000a6 .LVL51
C:\Users\stapi\AppData\Local\Temp\ccDKHoe4.s:452    .text.lwiperf_tcp_accept:00000000000000c4 .LVL54
C:\Users\stapi\AppData\Local\Temp\ccDKHoe4.s:479    .text.lwiperf_tcp_accept:00000000000000da .LVL57
C:\Users\stapi\AppData\Local\Temp\ccDKHoe4.s:493    .text.lwiperf_tcp_accept:00000000000000f8 .LVL60
C:\Users\stapi\AppData\Local\Temp\ccDKHoe4.s:569    .text.lwiperf_tcp_accept:0000000000000182 .LVL69
C:\Users\stapi\AppData\Local\Temp\ccDKHoe4.s:648    .text.lwiperf_tcp_accept:00000000000001c4 .LVL77
C:\Users\stapi\AppData\Local\Temp\ccDKHoe4.s:355    .text.lwiperf_tcp_accept:000000000000002c .LVL40
C:\Users\stapi\AppData\Local\Temp\ccDKHoe4.s:383    .text.lwiperf_tcp_accept:0000000000000056 .LVL44
C:\Users\stapi\AppData\Local\Temp\ccDKHoe4.s:409    .text.lwiperf_tcp_accept:0000000000000080 .LVL48
C:\Users\stapi\AppData\Local\Temp\ccDKHoe4.s:442    .text.lwiperf_tcp_accept:00000000000000b2 .LVL52
C:\Users\stapi\AppData\Local\Temp\ccDKHoe4.s:483    .text.lwiperf_tcp_accept:00000000000000e6 .LVL58
C:\Users\stapi\AppData\Local\Temp\ccDKHoe4.s:341    .text.lwiperf_tcp_accept:0000000000000012 .LVL37
C:\Users\stapi\AppData\Local\Temp\ccDKHoe4.s:503    .text.lwiperf_tcp_accept:0000000000000106 .LVL62
C:\Users\stapi\AppData\Local\Temp\ccDKHoe4.s:581    .text.lwiperf_tcp_accept:0000000000000192 .LVL70
C:\Users\stapi\AppData\Local\Temp\ccDKHoe4.s:593    .text.lwiperf_tcp_accept:0000000000000198 .LVL72
C:\Users\stapi\AppData\Local\Temp\ccDKHoe4.s:588    .text.lwiperf_tcp_accept:0000000000000196 .LVL71
C:\Users\stapi\AppData\Local\Temp\ccDKHoe4.s:671    .text.lwiperf_tcp_client_send_more:0000000000000000 .LVL78
C:\Users\stapi\AppData\Local\Temp\ccDKHoe4.s:721    .text.lwiperf_tcp_client_send_more:0000000000000030 .LVL79
C:\Users\stapi\AppData\Local\Temp\ccDKHoe4.s:787    .text.lwiperf_tcp_client_send_more:000000000000006e .LVL87
C:\Users\stapi\AppData\Local\Temp\ccDKHoe4.s:795    .text.lwiperf_tcp_client_send_more:000000000000007a .LVL88
C:\Users\stapi\AppData\Local\Temp\ccDKHoe4.s:807    .text.lwiperf_tcp_client_send_more:0000000000000094 .LVL90
C:\Users\stapi\AppData\Local\Temp\ccDKHoe4.s:842    .text.lwiperf_tcp_client_send_more:00000000000000b8 .LVL94
C:\Users\stapi\AppData\Local\Temp\ccDKHoe4.s:870    .text.lwiperf_tcp_client_send_more:00000000000000d4 .LVL98
C:\Users\stapi\AppData\Local\Temp\ccDKHoe4.s:879    .text.lwiperf_tcp_client_send_more:00000000000000e0 .LVL101
C:\Users\stapi\AppData\Local\Temp\ccDKHoe4.s:898    .text.lwiperf_tcp_client_send_more:00000000000000f6 .LVL103
C:\Users\stapi\AppData\Local\Temp\ccDKHoe4.s:905    .text.lwiperf_tcp_client_send_more:00000000000000fa .LVL104
C:\Users\stapi\AppData\Local\Temp\ccDKHoe4.s:927    .text.lwiperf_tcp_client_send_more:0000000000000116 .LVL106
C:\Users\stapi\AppData\Local\Temp\ccDKHoe4.s:873    .text.lwiperf_tcp_client_send_more:00000000000000d6 .LVL99
C:\Users\stapi\AppData\Local\Temp\ccDKHoe4.s:848    .text.lwiperf_tcp_client_send_more:00000000000000ba .LVL95
C:\Users\stapi\AppData\Local\Temp\ccDKHoe4.s:919    .text.lwiperf_tcp_client_send_more:000000000000010c .LVL105
C:\Users\stapi\AppData\Local\Temp\ccDKHoe4.s:834    .text.lwiperf_tcp_client_send_more:00000000000000b0 .LVL93
C:\Users\stapi\AppData\Local\Temp\ccDKHoe4.s:892    .text.lwiperf_tcp_client_send_more:00000000000000f0 .LVL102
C:\Users\stapi\AppData\Local\Temp\ccDKHoe4.s:747    .text.lwiperf_tcp_client_send_more:0000000000000048 .LVL82
C:\Users\stapi\AppData\Local\Temp\ccDKHoe4.s:743    .text.lwiperf_tcp_client_send_more:0000000000000046 .LVL81
C:\Users\stapi\AppData\Local\Temp\ccDKHoe4.s:757    .text.lwiperf_tcp_client_send_more:0000000000000058 .LVL85
C:\Users\stapi\AppData\Local\Temp\ccDKHoe4.s:754    .text.lwiperf_tcp_client_send_more:0000000000000054 .LVL84
C:\Users\stapi\AppData\Local\Temp\ccDKHoe4.s:820    .text.lwiperf_tcp_client_send_more:00000000000000a2 .LVL92
C:\Users\stapi\AppData\Local\Temp\ccDKHoe4.s:958    .text.lwiperf_tcp_client_sent:0000000000000000 .LVL107
C:\Users\stapi\AppData\Local\Temp\ccDKHoe4.s:974    .text.lwiperf_tcp_client_sent:000000000000001a .LVL110
C:\Users\stapi\AppData\Local\Temp\ccDKHoe4.s:987    .text.lwiperf_tcp_client_sent:0000000000000034 .LVL113
C:\Users\stapi\AppData\Local\Temp\ccDKHoe4.s:972    .text.lwiperf_tcp_client_sent:0000000000000016 .LVL109
C:\Users\stapi\AppData\Local\Temp\ccDKHoe4.s:977    .text.lwiperf_tcp_client_sent:0000000000000022 .LVL111
C:\Users\stapi\AppData\Local\Temp\ccDKHoe4.s:963    .text.lwiperf_tcp_client_sent:0000000000000008 .LVL108
C:\Users\stapi\AppData\Local\Temp\ccDKHoe4.s:1022   .text.lwiperf_tcp_poll:0000000000000000 .LVL115
C:\Users\stapi\AppData\Local\Temp\ccDKHoe4.s:1038   .text.lwiperf_tcp_poll:000000000000001a .LVL118
C:\Users\stapi\AppData\Local\Temp\ccDKHoe4.s:1050   .text.lwiperf_tcp_poll:0000000000000034 .LVL120
C:\Users\stapi\AppData\Local\Temp\ccDKHoe4.s:1079   .text.lwiperf_tcp_poll:000000000000005c .LVL123
C:\Users\stapi\AppData\Local\Temp\ccDKHoe4.s:1036   .text.lwiperf_tcp_poll:0000000000000016 .LVL117
C:\Users\stapi\AppData\Local\Temp\ccDKHoe4.s:1068   .text.lwiperf_tcp_poll:000000000000004a .LVL121
C:\Users\stapi\AppData\Local\Temp\ccDKHoe4.s:1027   .text.lwiperf_tcp_poll:0000000000000008 .LVL116
C:\Users\stapi\AppData\Local\Temp\ccDKHoe4.s:1104   .text.lwiperf_tcp_client_connected:0000000000000000 .LVL125
C:\Users\stapi\AppData\Local\Temp\ccDKHoe4.s:1121   .text.lwiperf_tcp_client_connected:000000000000001a .LVL128
C:\Users\stapi\AppData\Local\Temp\ccDKHoe4.s:1134   .text.lwiperf_tcp_client_connected:0000000000000034 .LVL131
C:\Users\stapi\AppData\Local\Temp\ccDKHoe4.s:1157   .text.lwiperf_tcp_client_connected:000000000000004a .LVL134
C:\Users\stapi\AppData\Local\Temp\ccDKHoe4.s:1119   .text.lwiperf_tcp_client_connected:0000000000000016 .LVL127
C:\Users\stapi\AppData\Local\Temp\ccDKHoe4.s:1144   .text.lwiperf_tcp_client_connected:0000000000000038 .LVL132
C:\Users\stapi\AppData\Local\Temp\ccDKHoe4.s:1124   .text.lwiperf_tcp_client_connected:0000000000000022 .LVL129
C:\Users\stapi\AppData\Local\Temp\ccDKHoe4.s:1110   .text.lwiperf_tcp_client_connected:0000000000000008 .LVL126
C:\Users\stapi\AppData\Local\Temp\ccDKHoe4.s:1165   .text.lwiperf_tcp_client_connected:0000000000000050 .LVL135
C:\Users\stapi\AppData\Local\Temp\ccDKHoe4.s:1191   .text.lwiperf_start_tcp_server_impl.constprop.0:0000000000000000 .LVL138
C:\Users\stapi\AppData\Local\Temp\ccDKHoe4.s:1219   .text.lwiperf_start_tcp_server_impl.constprop.0:0000000000000012 .LVL139
C:\Users\stapi\AppData\Local\Temp\ccDKHoe4.s:1234   .text.lwiperf_start_tcp_server_impl.constprop.0:0000000000000028 .LVL142
C:\Users\stapi\AppData\Local\Temp\ccDKHoe4.s:1254   .text.lwiperf_start_tcp_server_impl.constprop.0:0000000000000034 .LVL144
C:\Users\stapi\AppData\Local\Temp\ccDKHoe4.s:1294   .text.lwiperf_start_tcp_server_impl.constprop.0:0000000000000074 .LVL149
C:\Users\stapi\AppData\Local\Temp\ccDKHoe4.s:1239   .text.lwiperf_start_tcp_server_impl.constprop.0:000000000000002a .LVL143
C:\Users\stapi\AppData\Local\Temp\ccDKHoe4.s:1283   .text.lwiperf_start_tcp_server_impl.constprop.0:0000000000000064 .LVL147
C:\Users\stapi\AppData\Local\Temp\ccDKHoe4.s:1302   .text.lwiperf_start_tcp_server_impl.constprop.0:000000000000007a .LVL150
C:\Users\stapi\AppData\Local\Temp\ccDKHoe4.s:1319   .text.lwiperf_start_tcp_server_impl.constprop.0:0000000000000096 .LVL152
C:\Users\stapi\AppData\Local\Temp\ccDKHoe4.s:1371   .text.lwiperf_start_tcp_server_impl.constprop.0:00000000000000de .LVL158
C:\Users\stapi\AppData\Local\Temp\ccDKHoe4.s:1230   .text.lwiperf_start_tcp_server_impl.constprop.0:0000000000000026 .LVL141
C:\Users\stapi\AppData\Local\Temp\ccDKHoe4.s:1328   .text.lwiperf_start_tcp_server_impl.constprop.0:00000000000000a0 .LVL153
C:\Users\stapi\AppData\Local\Temp\ccDKHoe4.s:1334   .text.lwiperf_start_tcp_server_impl.constprop.0:00000000000000a8 .LVL154
C:\Users\stapi\AppData\Local\Temp\ccDKHoe4.s:1362   .text.lwiperf_start_tcp_server_impl.constprop.0:00000000000000d8 .LVL157
C:\Users\stapi\AppData\Local\Temp\ccDKHoe4.s:1397   .text.lwiperf_tx_start_impl:0000000000000000 .LVL161
C:\Users\stapi\AppData\Local\Temp\ccDKHoe4.s:1429   .text.lwiperf_tx_start_impl:0000000000000018 .LVL164
C:\Users\stapi\AppData\Local\Temp\ccDKHoe4.s:1442   .text.lwiperf_tx_start_impl:0000000000000032 .LVL167
C:\Users\stapi\AppData\Local\Temp\ccDKHoe4.s:1451   .text.lwiperf_tx_start_impl:000000000000003c .LVL168
C:\Users\stapi\AppData\Local\Temp\ccDKHoe4.s:1427   .text.lwiperf_tx_start_impl:0000000000000014 .LVL163
C:\Users\stapi\AppData\Local\Temp\ccDKHoe4.s:1432   .text.lwiperf_tx_start_impl:0000000000000020 .LVL165
C:\Users\stapi\AppData\Local\Temp\ccDKHoe4.s:1425   .text.lwiperf_tx_start_impl:0000000000000010 .LVL162
C:\Users\stapi\AppData\Local\Temp\ccDKHoe4.s:1464   .text.lwiperf_tx_start_impl:0000000000000048 .LVL169
C:\Users\stapi\AppData\Local\Temp\ccDKHoe4.s:1502   .text.lwiperf_tx_start_impl:0000000000000070 .LVL175
C:\Users\stapi\AppData\Local\Temp\ccDKHoe4.s:1524   .text.lwiperf_tx_start_impl:000000000000007c .LVL176
C:\Users\stapi\AppData\Local\Temp\ccDKHoe4.s:1617   .text.lwiperf_tx_start_impl:000000000000012a .LVL185
C:\Users\stapi\AppData\Local\Temp\ccDKHoe4.s:1624   .text.lwiperf_tx_start_impl:0000000000000130 .LVL186
C:\Users\stapi\AppData\Local\Temp\ccDKHoe4.s:1630   .text.lwiperf_tx_start_impl:000000000000013a .LVL188
C:\Users\stapi\AppData\Local\Temp\ccDKHoe4.s:1479   .text.lwiperf_tx_start_impl:0000000000000052 .LVL171
C:\Users\stapi\AppData\Local\Temp\ccDKHoe4.s:1491   .text.lwiperf_tx_start_impl:0000000000000062 .LVL173
C:\Users\stapi\AppData\Local\Temp\ccDKHoe4.s:1645   .text.lwiperf_tx_start_impl:0000000000000148 .LVL189
C:\Users\stapi\AppData\Local\Temp\ccDKHoe4.s:1762   .text.lwiperf_tcp_recv:0000000000000000 .LVL198
C:\Users\stapi\AppData\Local\Temp\ccDKHoe4.s:1787   .text.lwiperf_tcp_recv:000000000000001a .LVL202
C:\Users\stapi\AppData\Local\Temp\ccDKHoe4.s:1800   .text.lwiperf_tcp_recv:0000000000000034 .LVL205
C:\Users\stapi\AppData\Local\Temp\ccDKHoe4.s:1831   .text.lwiperf_tcp_recv:000000000000004a .LVL208
C:\Users\stapi\AppData\Local\Temp\ccDKHoe4.s:1842   .text.lwiperf_tcp_recv:0000000000000050 .LVL210
C:\Users\stapi\AppData\Local\Temp\ccDKHoe4.s:1785   .text.lwiperf_tcp_recv:0000000000000016 .LVL201
C:\Users\stapi\AppData\Local\Temp\ccDKHoe4.s:1810   .text.lwiperf_tcp_recv:0000000000000038 .LVL206
C:\Users\stapi\AppData\Local\Temp\ccDKHoe4.s:1864   .text.lwiperf_tcp_recv:000000000000006e .LVL212
C:\Users\stapi\AppData\Local\Temp\ccDKHoe4.s:1886   .text.lwiperf_tcp_recv:0000000000000086 .LVL214
C:\Users\stapi\AppData\Local\Temp\ccDKHoe4.s:1932   .text.lwiperf_tcp_recv:00000000000000c2 .LVL220
C:\Users\stapi\AppData\Local\Temp\ccDKHoe4.s:1947   .text.lwiperf_tcp_recv:00000000000000d2 .LVL222
C:\Users\stapi\AppData\Local\Temp\ccDKHoe4.s:2026   .text.lwiperf_tcp_recv:0000000000000148 .LVL231
C:\Users\stapi\AppData\Local\Temp\ccDKHoe4.s:2032   .text.lwiperf_tcp_recv:000000000000014e .LVL232
C:\Users\stapi\AppData\Local\Temp\ccDKHoe4.s:2052   .text.lwiperf_tcp_recv:0000000000000166 .LVL235
C:\Users\stapi\AppData\Local\Temp\ccDKHoe4.s:2062   .text.lwiperf_tcp_recv:0000000000000170 .LVL236
C:\Users\stapi\AppData\Local\Temp\ccDKHoe4.s:1790   .text.lwiperf_tcp_recv:0000000000000022 .LVL203
C:\Users\stapi\AppData\Local\Temp\ccDKHoe4.s:1783   .text.lwiperf_tcp_recv:0000000000000012 .LVL200
C:\Users\stapi\AppData\Local\Temp\ccDKHoe4.s:1944   .text.lwiperf_tcp_recv:00000000000000cc .LVL221
C:\Users\stapi\AppData\Local\Temp\ccDKHoe4.s:1775   .text.lwiperf_tcp_recv:0000000000000008 .LVL199
C:\Users\stapi\AppData\Local\Temp\ccDKHoe4.s:1836   .text.lwiperf_tcp_recv:000000000000004e .LVL209
C:\Users\stapi\AppData\Local\Temp\ccDKHoe4.s:1999   .text.lwiperf_tcp_recv:0000000000000124 .LVL227
C:\Users\stapi\AppData\Local\Temp\ccDKHoe4.s:1874   .text.lwiperf_tcp_recv:000000000000007c .LVL213
C:\Users\stapi\AppData\Local\Temp\ccDKHoe4.s:1897   .text.lwiperf_tcp_recv:000000000000008a .LVL215
C:\Users\stapi\AppData\Local\Temp\ccDKHoe4.s:2011   .text.lwiperf_tcp_recv:000000000000013e .LVL229
C:\Users\stapi\AppData\Local\Temp\ccDKHoe4.s:2022   .text.lwiperf_tcp_recv:0000000000000144 .LVL230
C:\Users\stapi\AppData\Local\Temp\ccDKHoe4.s:1903   .text.lwiperf_tcp_recv:0000000000000090 .LVL216
C:\Users\stapi\AppData\Local\Temp\ccDKHoe4.s:1906   .text.lwiperf_tcp_recv:0000000000000092 .LVL217
C:\Users\stapi\AppData\Local\Temp\ccDKHoe4.s:1914   .text.lwiperf_tcp_recv:0000000000000098 .LVL218
C:\Users\stapi\AppData\Local\Temp\ccDKHoe4.s:2526   .debug_info:0000000000000000 .Ldebug_info0
C:\Users\stapi\AppData\Local\Temp\ccDKHoe4.s:43     .text.lwiperf_tcp_close:0000000000000010 .LBE10
C:\Users\stapi\AppData\Local\Temp\ccDKHoe4.s:50     .text.lwiperf_tcp_close:0000000000000014 .LBB14
C:\Users\stapi\AppData\Local\Temp\ccDKHoe4.s:87     .text.lwiperf_tcp_close:000000000000002a .LBE14
C:\Users\stapi\AppData\Local\Temp\ccDKHoe4.s:159    .text.lwiperf_tcp_close:0000000000000096 .LBB19
C:\Users\stapi\AppData\Local\Temp\ccDKHoe4.s:199    .text.lwiperf_tcp_close:00000000000000ca .LBE19
C:\Users\stapi\AppData\Local\Temp\ccDKHoe4.s:97     .text.lwiperf_tcp_close:000000000000002c .LBE15
C:\Users\stapi\AppData\Local\Temp\ccDKHoe4.s:200    .text.lwiperf_tcp_close:00000000000000ca .LBB20
C:\Users\stapi\AppData\Local\Temp\ccDKHoe4.s:252    .text.lwiperf_tcp_close:000000000000010a .LBE20
C:\Users\stapi\AppData\Local\Temp\ccDKHoe4.s:464    .text.lwiperf_tcp_accept:00000000000000cc .LBE27
C:\Users\stapi\AppData\Local\Temp\ccDKHoe4.s:470    .text.lwiperf_tcp_accept:00000000000000d0 .LBB37
C:\Users\stapi\AppData\Local\Temp\ccDKHoe4.s:622    .text.lwiperf_tcp_accept:00000000000001b2 .LBE37
C:\Users\stapi\AppData\Local\Temp\ccDKHoe4.s:636    .text.lwiperf_tcp_accept:00000000000001bc .LBB38
C:\Users\stapi\AppData\Local\Temp\ccDKHoe4.s:656    .text.lwiperf_tcp_accept:00000000000001c8 .LBE38
C:\Users\stapi\AppData\Local\Temp\ccDKHoe4.s:596    .text.lwiperf_tcp_accept:0000000000000198 .LBE29
C:\Users\stapi\AppData\Local\Temp\ccDKHoe4.s:638    .text.lwiperf_tcp_accept:00000000000001bc .LBB34
C:\Users\stapi\AppData\Local\Temp\ccDKHoe4.s:651    .text.lwiperf_tcp_accept:00000000000001c4 .LBE34
C:\Users\stapi\AppData\Local\Temp\ccDKHoe4.s:768    .text.lwiperf_tcp_client_send_more:0000000000000064 .LBE43
C:\Users\stapi\AppData\Local\Temp\ccDKHoe4.s:809    .text.lwiperf_tcp_client_send_more:0000000000000094 .LBB49
C:\Users\stapi\AppData\Local\Temp\ccDKHoe4.s:943    .text.lwiperf_tcp_client_send_more:0000000000000124 .LBE49
C:\Users\stapi\AppData\Local\Temp\ccDKHoe4.s:707    .text.lwiperf_tcp_client_send_more:000000000000001c .LBB45
C:\Users\stapi\AppData\Local\Temp\ccDKHoe4.s:710    .text.lwiperf_tcp_client_send_more:000000000000001e .LBE45
C:\Users\stapi\AppData\Local\Temp\ccDKHoe4.s:734    .text.lwiperf_tcp_client_send_more:0000000000000038 .LBB46
C:\Users\stapi\AppData\Local\Temp\ccDKHoe4.s:766    .text.lwiperf_tcp_client_send_more:0000000000000064 .LBE46
C:\Users\stapi\AppData\Local\Temp\ccDKHoe4.s:1459   .text.lwiperf_tx_start_impl:0000000000000048 .LBE70
C:\Users\stapi\AppData\Local\Temp\ccDKHoe4.s:1465   .text.lwiperf_tx_start_impl:0000000000000048 .LBB76
C:\Users\stapi\AppData\Local\Temp\ccDKHoe4.s:1505   .text.lwiperf_tx_start_impl:0000000000000070 .LBE76
C:\Users\stapi\AppData\Local\Temp\ccDKHoe4.s:1527   .text.lwiperf_tx_start_impl:000000000000007c .LBB77
C:\Users\stapi\AppData\Local\Temp\ccDKHoe4.s:1655   .text.lwiperf_tx_start_impl:000000000000014e .LBE77
C:\Users\stapi\AppData\Local\Temp\ccDKHoe4.s:1820   .text.lwiperf_tcp_recv:0000000000000040 .LBE81
C:\Users\stapi\AppData\Local\Temp\ccDKHoe4.s:1837   .text.lwiperf_tcp_recv:000000000000004e .LBB87
C:\Users\stapi\AppData\Local\Temp\ccDKHoe4.s:1889   .text.lwiperf_tcp_recv:0000000000000086 .LBE87
C:\Users\stapi\AppData\Local\Temp\ccDKHoe4.s:1892   .text.lwiperf_tcp_recv:0000000000000088 .LBB88
C:\Users\stapi\AppData\Local\Temp\ccDKHoe4.s:2101   .text.lwiperf_tcp_recv:00000000000001aa .LBE88
C:\Users\stapi\AppData\Local\Temp\ccDKHoe4.s:2037   .text.lwiperf_tcp_recv:0000000000000150 .LBB83
C:\Users\stapi\AppData\Local\Temp\ccDKHoe4.s:2044   .text.lwiperf_tcp_recv:000000000000015a .LBE83
C:\Users\stapi\AppData\Local\Temp\ccDKHoe4.s:2087   .text.lwiperf_tcp_recv:000000000000019a .LBB84
C:\Users\stapi\AppData\Local\Temp\ccDKHoe4.s:2099   .text.lwiperf_tcp_recv:00000000000001aa .LBE84

UNDEFINED SYMBOLS
__riscv_save_1
tcp_arg
tcp_poll
tcp_sent
tcp_recv
tcp_err
tcp_close
tcp_abort
mem_free
__riscv_restore_1
printf
sys_now
__riscv_save_4
mem_malloc
memset
__riscv_restore_4
__riscv_save_12
lwip_htonl
__riscv_restore_12
tcp_write
tcp_output
__riscv_save_0
__riscv_restore_0
__riscv_save_7
__riscv_restore_7
tcp_new_ip_type
tcp_bind
tcp_listen_with_backlog
tcp_accept
__riscv_save_10
__riscv_restore_10
memcpy
tcp_connect
pbuf_memcmp
tcp_recved
pbuf_remove_header
pbuf_free
pbuf_copy_partial
ip_addr_any
__riscv_save_3
__riscv_restore_3
__riscv_save_6
__riscv_restore_6
