   1              		.file	"mem.c"
   2              		.option nopic
   3              		.attribute arch, "rv32i2p0_m2p0_a2p0_f2p0_c2p0_b_p0p94"
   4              		.attribute unaligned_access, 0
   5              		.attribute stack_align, 16
   6              		.text
   7              	.Ltext0:
   8              		.cfi_sections	.debug_frame
   9              		.section	.rodata.mem_init.str1.4,"aMS",@progbits,1
  10              		.align	2
  11              	.LC0:
  12 0000 433A2F55 		.string	"C:/Users/stapi/OneDrive/Desktop/GD32VW553/V1_MQTT_OK/GD32VW55X_Wifi_BLE_SDK/GD32VW55x_REL
  12      73657273 
  12      2F737461 
  12      70692F4F 
  12      6E654472 
  13 0089 000000   		.align	2
  14              	.LC1:
  15 008c 6661696C 		.string	"failed to create mem_mutex"
  15      65642074 
  15      6F206372 
  15      65617465 
  15      206D656D 
  16 00a7 00       		.align	2
  17              	.LC2:
  18 00a8 41737365 		.string	"Assertion \"%s\" failed at line %d in %s\n"
  18      7274696F 
  18      6E202225 
  18      73222066 
  18      61696C65 
  19              		.section	.text.mem_init,"ax",@progbits
  20              		.align	1
  21              		.globl	mem_init
  23              	mem_init:
  24              	.LFB7:
  25              		.file 1 "C:/Users/stapi/OneDrive/Desktop/GD32VW553/V1_MQTT_OK/GD32VW55X_Wifi_BLE_SDK/GD32VW55x_REL
   1:C:/Users/stapi/OneDrive/Desktop/GD32VW553/V1_MQTT_OK/GD32VW55X_Wifi_BLE_SDK/GD32VW55x_RELEASE_V1.0.2/MSDK/lwip/lwip-2.1.2/src/core\mem.c **** /**
   2:C:/Users/stapi/OneDrive/Desktop/GD32VW553/V1_MQTT_OK/GD32VW55X_Wifi_BLE_SDK/GD32VW55x_RELEASE_V1.0.2/MSDK/lwip/lwip-2.1.2/src/core\mem.c ****  * @file
   3:C:/Users/stapi/OneDrive/Desktop/GD32VW553/V1_MQTT_OK/GD32VW55X_Wifi_BLE_SDK/GD32VW55x_RELEASE_V1.0.2/MSDK/lwip/lwip-2.1.2/src/core\mem.c ****  * Dynamic memory manager
   4:C:/Users/stapi/OneDrive/Desktop/GD32VW553/V1_MQTT_OK/GD32VW55X_Wifi_BLE_SDK/GD32VW55x_RELEASE_V1.0.2/MSDK/lwip/lwip-2.1.2/src/core\mem.c ****  *
   5:C:/Users/stapi/OneDrive/Desktop/GD32VW553/V1_MQTT_OK/GD32VW55X_Wifi_BLE_SDK/GD32VW55x_RELEASE_V1.0.2/MSDK/lwip/lwip-2.1.2/src/core\mem.c ****  * This is a lightweight replacement for the standard C library malloc().
   6:C:/Users/stapi/OneDrive/Desktop/GD32VW553/V1_MQTT_OK/GD32VW55X_Wifi_BLE_SDK/GD32VW55x_RELEASE_V1.0.2/MSDK/lwip/lwip-2.1.2/src/core\mem.c ****  *
   7:C:/Users/stapi/OneDrive/Desktop/GD32VW553/V1_MQTT_OK/GD32VW55X_Wifi_BLE_SDK/GD32VW55x_RELEASE_V1.0.2/MSDK/lwip/lwip-2.1.2/src/core\mem.c ****  * If you want to use the standard C library malloc() instead, define
   8:C:/Users/stapi/OneDrive/Desktop/GD32VW553/V1_MQTT_OK/GD32VW55X_Wifi_BLE_SDK/GD32VW55x_RELEASE_V1.0.2/MSDK/lwip/lwip-2.1.2/src/core\mem.c ****  * MEM_LIBC_MALLOC to 1 in your lwipopts.h
   9:C:/Users/stapi/OneDrive/Desktop/GD32VW553/V1_MQTT_OK/GD32VW55X_Wifi_BLE_SDK/GD32VW55x_RELEASE_V1.0.2/MSDK/lwip/lwip-2.1.2/src/core\mem.c ****  *
  10:C:/Users/stapi/OneDrive/Desktop/GD32VW553/V1_MQTT_OK/GD32VW55X_Wifi_BLE_SDK/GD32VW55x_RELEASE_V1.0.2/MSDK/lwip/lwip-2.1.2/src/core\mem.c ****  * To let mem_malloc() use pools (prevents fragmentation and is much faster than
  11:C:/Users/stapi/OneDrive/Desktop/GD32VW553/V1_MQTT_OK/GD32VW55X_Wifi_BLE_SDK/GD32VW55x_RELEASE_V1.0.2/MSDK/lwip/lwip-2.1.2/src/core\mem.c ****  * a heap but might waste some memory), define MEM_USE_POOLS to 1, define
  12:C:/Users/stapi/OneDrive/Desktop/GD32VW553/V1_MQTT_OK/GD32VW55X_Wifi_BLE_SDK/GD32VW55x_RELEASE_V1.0.2/MSDK/lwip/lwip-2.1.2/src/core\mem.c ****  * MEMP_USE_CUSTOM_POOLS to 1 and create a file "lwippools.h" that includes a list
  13:C:/Users/stapi/OneDrive/Desktop/GD32VW553/V1_MQTT_OK/GD32VW55X_Wifi_BLE_SDK/GD32VW55x_RELEASE_V1.0.2/MSDK/lwip/lwip-2.1.2/src/core\mem.c ****  * of pools like this (more pools can be added between _START and _END):
  14:C:/Users/stapi/OneDrive/Desktop/GD32VW553/V1_MQTT_OK/GD32VW55X_Wifi_BLE_SDK/GD32VW55x_RELEASE_V1.0.2/MSDK/lwip/lwip-2.1.2/src/core\mem.c ****  *
  15:C:/Users/stapi/OneDrive/Desktop/GD32VW553/V1_MQTT_OK/GD32VW55X_Wifi_BLE_SDK/GD32VW55x_RELEASE_V1.0.2/MSDK/lwip/lwip-2.1.2/src/core\mem.c ****  * Define three pools with sizes 256, 512, and 1512 bytes
  16:C:/Users/stapi/OneDrive/Desktop/GD32VW553/V1_MQTT_OK/GD32VW55X_Wifi_BLE_SDK/GD32VW55x_RELEASE_V1.0.2/MSDK/lwip/lwip-2.1.2/src/core\mem.c ****  * LWIP_MALLOC_MEMPOOL_START
  17:C:/Users/stapi/OneDrive/Desktop/GD32VW553/V1_MQTT_OK/GD32VW55X_Wifi_BLE_SDK/GD32VW55x_RELEASE_V1.0.2/MSDK/lwip/lwip-2.1.2/src/core\mem.c ****  * LWIP_MALLOC_MEMPOOL(20, 256)
  18:C:/Users/stapi/OneDrive/Desktop/GD32VW553/V1_MQTT_OK/GD32VW55X_Wifi_BLE_SDK/GD32VW55x_RELEASE_V1.0.2/MSDK/lwip/lwip-2.1.2/src/core\mem.c ****  * LWIP_MALLOC_MEMPOOL(10, 512)
  19:C:/Users/stapi/OneDrive/Desktop/GD32VW553/V1_MQTT_OK/GD32VW55X_Wifi_BLE_SDK/GD32VW55x_RELEASE_V1.0.2/MSDK/lwip/lwip-2.1.2/src/core\mem.c ****  * LWIP_MALLOC_MEMPOOL(5, 1512)
  20:C:/Users/stapi/OneDrive/Desktop/GD32VW553/V1_MQTT_OK/GD32VW55X_Wifi_BLE_SDK/GD32VW55x_RELEASE_V1.0.2/MSDK/lwip/lwip-2.1.2/src/core\mem.c ****  * LWIP_MALLOC_MEMPOOL_END
  21:C:/Users/stapi/OneDrive/Desktop/GD32VW553/V1_MQTT_OK/GD32VW55X_Wifi_BLE_SDK/GD32VW55x_RELEASE_V1.0.2/MSDK/lwip/lwip-2.1.2/src/core\mem.c ****  */
  22:C:/Users/stapi/OneDrive/Desktop/GD32VW553/V1_MQTT_OK/GD32VW55X_Wifi_BLE_SDK/GD32VW55x_RELEASE_V1.0.2/MSDK/lwip/lwip-2.1.2/src/core\mem.c **** 
  23:C:/Users/stapi/OneDrive/Desktop/GD32VW553/V1_MQTT_OK/GD32VW55X_Wifi_BLE_SDK/GD32VW55x_RELEASE_V1.0.2/MSDK/lwip/lwip-2.1.2/src/core\mem.c **** /*
  24:C:/Users/stapi/OneDrive/Desktop/GD32VW553/V1_MQTT_OK/GD32VW55X_Wifi_BLE_SDK/GD32VW55x_RELEASE_V1.0.2/MSDK/lwip/lwip-2.1.2/src/core\mem.c ****  * Copyright (c) 2001-2004 Swedish Institute of Computer Science.
  25:C:/Users/stapi/OneDrive/Desktop/GD32VW553/V1_MQTT_OK/GD32VW55X_Wifi_BLE_SDK/GD32VW55x_RELEASE_V1.0.2/MSDK/lwip/lwip-2.1.2/src/core\mem.c ****  * All rights reserved.
  26:C:/Users/stapi/OneDrive/Desktop/GD32VW553/V1_MQTT_OK/GD32VW55X_Wifi_BLE_SDK/GD32VW55x_RELEASE_V1.0.2/MSDK/lwip/lwip-2.1.2/src/core\mem.c ****  *
  27:C:/Users/stapi/OneDrive/Desktop/GD32VW553/V1_MQTT_OK/GD32VW55X_Wifi_BLE_SDK/GD32VW55x_RELEASE_V1.0.2/MSDK/lwip/lwip-2.1.2/src/core\mem.c ****  * Redistribution and use in source and binary forms, with or without modification,
  28:C:/Users/stapi/OneDrive/Desktop/GD32VW553/V1_MQTT_OK/GD32VW55X_Wifi_BLE_SDK/GD32VW55x_RELEASE_V1.0.2/MSDK/lwip/lwip-2.1.2/src/core\mem.c ****  * are permitted provided that the following conditions are met:
  29:C:/Users/stapi/OneDrive/Desktop/GD32VW553/V1_MQTT_OK/GD32VW55X_Wifi_BLE_SDK/GD32VW55x_RELEASE_V1.0.2/MSDK/lwip/lwip-2.1.2/src/core\mem.c ****  *
  30:C:/Users/stapi/OneDrive/Desktop/GD32VW553/V1_MQTT_OK/GD32VW55X_Wifi_BLE_SDK/GD32VW55x_RELEASE_V1.0.2/MSDK/lwip/lwip-2.1.2/src/core\mem.c ****  * 1. Redistributions of source code must retain the above copyright notice,
  31:C:/Users/stapi/OneDrive/Desktop/GD32VW553/V1_MQTT_OK/GD32VW55X_Wifi_BLE_SDK/GD32VW55x_RELEASE_V1.0.2/MSDK/lwip/lwip-2.1.2/src/core\mem.c ****  *    this list of conditions and the following disclaimer.
  32:C:/Users/stapi/OneDrive/Desktop/GD32VW553/V1_MQTT_OK/GD32VW55X_Wifi_BLE_SDK/GD32VW55x_RELEASE_V1.0.2/MSDK/lwip/lwip-2.1.2/src/core\mem.c ****  * 2. Redistributions in binary form must reproduce the above copyright notice,
  33:C:/Users/stapi/OneDrive/Desktop/GD32VW553/V1_MQTT_OK/GD32VW55X_Wifi_BLE_SDK/GD32VW55x_RELEASE_V1.0.2/MSDK/lwip/lwip-2.1.2/src/core\mem.c ****  *    this list of conditions and the following disclaimer in the documentation
  34:C:/Users/stapi/OneDrive/Desktop/GD32VW553/V1_MQTT_OK/GD32VW55X_Wifi_BLE_SDK/GD32VW55x_RELEASE_V1.0.2/MSDK/lwip/lwip-2.1.2/src/core\mem.c ****  *    and/or other materials provided with the distribution.
  35:C:/Users/stapi/OneDrive/Desktop/GD32VW553/V1_MQTT_OK/GD32VW55X_Wifi_BLE_SDK/GD32VW55x_RELEASE_V1.0.2/MSDK/lwip/lwip-2.1.2/src/core\mem.c ****  * 3. The name of the author may not be used to endorse or promote products
  36:C:/Users/stapi/OneDrive/Desktop/GD32VW553/V1_MQTT_OK/GD32VW55X_Wifi_BLE_SDK/GD32VW55x_RELEASE_V1.0.2/MSDK/lwip/lwip-2.1.2/src/core\mem.c ****  *    derived from this software without specific prior written permission.
  37:C:/Users/stapi/OneDrive/Desktop/GD32VW553/V1_MQTT_OK/GD32VW55X_Wifi_BLE_SDK/GD32VW55x_RELEASE_V1.0.2/MSDK/lwip/lwip-2.1.2/src/core\mem.c ****  *
  38:C:/Users/stapi/OneDrive/Desktop/GD32VW553/V1_MQTT_OK/GD32VW55X_Wifi_BLE_SDK/GD32VW55x_RELEASE_V1.0.2/MSDK/lwip/lwip-2.1.2/src/core\mem.c ****  * THIS SOFTWARE IS PROVIDED BY THE AUTHOR ``AS IS'' AND ANY EXPRESS OR IMPLIED
  39:C:/Users/stapi/OneDrive/Desktop/GD32VW553/V1_MQTT_OK/GD32VW55X_Wifi_BLE_SDK/GD32VW55x_RELEASE_V1.0.2/MSDK/lwip/lwip-2.1.2/src/core\mem.c ****  * WARRANTIES, INCLUDING, BUT NOT LIMITED TO, THE IMPLIED WARRANTIES OF
  40:C:/Users/stapi/OneDrive/Desktop/GD32VW553/V1_MQTT_OK/GD32VW55X_Wifi_BLE_SDK/GD32VW55x_RELEASE_V1.0.2/MSDK/lwip/lwip-2.1.2/src/core\mem.c ****  * MERCHANTABILITY AND FITNESS FOR A PARTICULAR PURPOSE ARE DISCLAIMED. IN NO EVENT
  41:C:/Users/stapi/OneDrive/Desktop/GD32VW553/V1_MQTT_OK/GD32VW55X_Wifi_BLE_SDK/GD32VW55x_RELEASE_V1.0.2/MSDK/lwip/lwip-2.1.2/src/core\mem.c ****  * SHALL THE AUTHOR BE LIABLE FOR ANY DIRECT, INDIRECT, INCIDENTAL, SPECIAL,
  42:C:/Users/stapi/OneDrive/Desktop/GD32VW553/V1_MQTT_OK/GD32VW55X_Wifi_BLE_SDK/GD32VW55x_RELEASE_V1.0.2/MSDK/lwip/lwip-2.1.2/src/core\mem.c ****  * EXEMPLARY, OR CONSEQUENTIAL DAMAGES (INCLUDING, BUT NOT LIMITED TO, PROCUREMENT
  43:C:/Users/stapi/OneDrive/Desktop/GD32VW553/V1_MQTT_OK/GD32VW55X_Wifi_BLE_SDK/GD32VW55x_RELEASE_V1.0.2/MSDK/lwip/lwip-2.1.2/src/core\mem.c ****  * OF SUBSTITUTE GOODS OR SERVICES; LOSS OF USE, DATA, OR PROFITS; OR BUSINESS
  44:C:/Users/stapi/OneDrive/Desktop/GD32VW553/V1_MQTT_OK/GD32VW55X_Wifi_BLE_SDK/GD32VW55x_RELEASE_V1.0.2/MSDK/lwip/lwip-2.1.2/src/core\mem.c ****  * INTERRUPTION) HOWEVER CAUSED AND ON ANY THEORY OF LIABILITY, WHETHER IN
  45:C:/Users/stapi/OneDrive/Desktop/GD32VW553/V1_MQTT_OK/GD32VW55X_Wifi_BLE_SDK/GD32VW55x_RELEASE_V1.0.2/MSDK/lwip/lwip-2.1.2/src/core\mem.c ****  * CONTRACT, STRICT LIABILITY, OR TORT (INCLUDING NEGLIGENCE OR OTHERWISE) ARISING
  46:C:/Users/stapi/OneDrive/Desktop/GD32VW553/V1_MQTT_OK/GD32VW55X_Wifi_BLE_SDK/GD32VW55x_RELEASE_V1.0.2/MSDK/lwip/lwip-2.1.2/src/core\mem.c ****  * IN ANY WAY OUT OF THE USE OF THIS SOFTWARE, EVEN IF ADVISED OF THE POSSIBILITY
  47:C:/Users/stapi/OneDrive/Desktop/GD32VW553/V1_MQTT_OK/GD32VW55X_Wifi_BLE_SDK/GD32VW55x_RELEASE_V1.0.2/MSDK/lwip/lwip-2.1.2/src/core\mem.c ****  * OF SUCH DAMAGE.
  48:C:/Users/stapi/OneDrive/Desktop/GD32VW553/V1_MQTT_OK/GD32VW55X_Wifi_BLE_SDK/GD32VW55x_RELEASE_V1.0.2/MSDK/lwip/lwip-2.1.2/src/core\mem.c ****  *
  49:C:/Users/stapi/OneDrive/Desktop/GD32VW553/V1_MQTT_OK/GD32VW55X_Wifi_BLE_SDK/GD32VW55x_RELEASE_V1.0.2/MSDK/lwip/lwip-2.1.2/src/core\mem.c ****  * This file is part of the lwIP TCP/IP stack.
  50:C:/Users/stapi/OneDrive/Desktop/GD32VW553/V1_MQTT_OK/GD32VW55X_Wifi_BLE_SDK/GD32VW55x_RELEASE_V1.0.2/MSDK/lwip/lwip-2.1.2/src/core\mem.c ****  *
  51:C:/Users/stapi/OneDrive/Desktop/GD32VW553/V1_MQTT_OK/GD32VW55X_Wifi_BLE_SDK/GD32VW55x_RELEASE_V1.0.2/MSDK/lwip/lwip-2.1.2/src/core\mem.c ****  * Author: Adam Dunkels <adam@sics.se>
  52:C:/Users/stapi/OneDrive/Desktop/GD32VW553/V1_MQTT_OK/GD32VW55X_Wifi_BLE_SDK/GD32VW55x_RELEASE_V1.0.2/MSDK/lwip/lwip-2.1.2/src/core\mem.c ****  *         Simon Goldschmidt
  53:C:/Users/stapi/OneDrive/Desktop/GD32VW553/V1_MQTT_OK/GD32VW55X_Wifi_BLE_SDK/GD32VW55x_RELEASE_V1.0.2/MSDK/lwip/lwip-2.1.2/src/core\mem.c ****  *
  54:C:/Users/stapi/OneDrive/Desktop/GD32VW553/V1_MQTT_OK/GD32VW55X_Wifi_BLE_SDK/GD32VW55x_RELEASE_V1.0.2/MSDK/lwip/lwip-2.1.2/src/core\mem.c ****  */
  55:C:/Users/stapi/OneDrive/Desktop/GD32VW553/V1_MQTT_OK/GD32VW55X_Wifi_BLE_SDK/GD32VW55x_RELEASE_V1.0.2/MSDK/lwip/lwip-2.1.2/src/core\mem.c **** 
  56:C:/Users/stapi/OneDrive/Desktop/GD32VW553/V1_MQTT_OK/GD32VW55X_Wifi_BLE_SDK/GD32VW55x_RELEASE_V1.0.2/MSDK/lwip/lwip-2.1.2/src/core\mem.c **** #include "lwip/opt.h"
  57:C:/Users/stapi/OneDrive/Desktop/GD32VW553/V1_MQTT_OK/GD32VW55X_Wifi_BLE_SDK/GD32VW55x_RELEASE_V1.0.2/MSDK/lwip/lwip-2.1.2/src/core\mem.c **** #include "lwip/mem.h"
  58:C:/Users/stapi/OneDrive/Desktop/GD32VW553/V1_MQTT_OK/GD32VW55X_Wifi_BLE_SDK/GD32VW55x_RELEASE_V1.0.2/MSDK/lwip/lwip-2.1.2/src/core\mem.c **** #include "lwip/def.h"
  59:C:/Users/stapi/OneDrive/Desktop/GD32VW553/V1_MQTT_OK/GD32VW55X_Wifi_BLE_SDK/GD32VW55x_RELEASE_V1.0.2/MSDK/lwip/lwip-2.1.2/src/core\mem.c **** #include "lwip/sys.h"
  60:C:/Users/stapi/OneDrive/Desktop/GD32VW553/V1_MQTT_OK/GD32VW55X_Wifi_BLE_SDK/GD32VW55x_RELEASE_V1.0.2/MSDK/lwip/lwip-2.1.2/src/core\mem.c **** #include "lwip/stats.h"
  61:C:/Users/stapi/OneDrive/Desktop/GD32VW553/V1_MQTT_OK/GD32VW55X_Wifi_BLE_SDK/GD32VW55x_RELEASE_V1.0.2/MSDK/lwip/lwip-2.1.2/src/core\mem.c **** #include "lwip/err.h"
  62:C:/Users/stapi/OneDrive/Desktop/GD32VW553/V1_MQTT_OK/GD32VW55X_Wifi_BLE_SDK/GD32VW55x_RELEASE_V1.0.2/MSDK/lwip/lwip-2.1.2/src/core\mem.c **** 
  63:C:/Users/stapi/OneDrive/Desktop/GD32VW553/V1_MQTT_OK/GD32VW55X_Wifi_BLE_SDK/GD32VW55x_RELEASE_V1.0.2/MSDK/lwip/lwip-2.1.2/src/core\mem.c **** #include <string.h>
  64:C:/Users/stapi/OneDrive/Desktop/GD32VW553/V1_MQTT_OK/GD32VW55X_Wifi_BLE_SDK/GD32VW55x_RELEASE_V1.0.2/MSDK/lwip/lwip-2.1.2/src/core\mem.c **** 
  65:C:/Users/stapi/OneDrive/Desktop/GD32VW553/V1_MQTT_OK/GD32VW55X_Wifi_BLE_SDK/GD32VW55x_RELEASE_V1.0.2/MSDK/lwip/lwip-2.1.2/src/core\mem.c **** #if MEM_LIBC_MALLOC
  66:C:/Users/stapi/OneDrive/Desktop/GD32VW553/V1_MQTT_OK/GD32VW55X_Wifi_BLE_SDK/GD32VW55x_RELEASE_V1.0.2/MSDK/lwip/lwip-2.1.2/src/core\mem.c **** #include <stdlib.h> /* for malloc()/free() */
  67:C:/Users/stapi/OneDrive/Desktop/GD32VW553/V1_MQTT_OK/GD32VW55X_Wifi_BLE_SDK/GD32VW55x_RELEASE_V1.0.2/MSDK/lwip/lwip-2.1.2/src/core\mem.c **** #endif
  68:C:/Users/stapi/OneDrive/Desktop/GD32VW553/V1_MQTT_OK/GD32VW55X_Wifi_BLE_SDK/GD32VW55x_RELEASE_V1.0.2/MSDK/lwip/lwip-2.1.2/src/core\mem.c **** 
  69:C:/Users/stapi/OneDrive/Desktop/GD32VW553/V1_MQTT_OK/GD32VW55X_Wifi_BLE_SDK/GD32VW55x_RELEASE_V1.0.2/MSDK/lwip/lwip-2.1.2/src/core\mem.c **** /* This is overridable for tests only... */
  70:C:/Users/stapi/OneDrive/Desktop/GD32VW553/V1_MQTT_OK/GD32VW55X_Wifi_BLE_SDK/GD32VW55x_RELEASE_V1.0.2/MSDK/lwip/lwip-2.1.2/src/core\mem.c **** #ifndef LWIP_MEM_ILLEGAL_FREE
  71:C:/Users/stapi/OneDrive/Desktop/GD32VW553/V1_MQTT_OK/GD32VW55X_Wifi_BLE_SDK/GD32VW55x_RELEASE_V1.0.2/MSDK/lwip/lwip-2.1.2/src/core\mem.c **** #define LWIP_MEM_ILLEGAL_FREE(msg)         LWIP_ASSERT(msg, 0)
  72:C:/Users/stapi/OneDrive/Desktop/GD32VW553/V1_MQTT_OK/GD32VW55X_Wifi_BLE_SDK/GD32VW55x_RELEASE_V1.0.2/MSDK/lwip/lwip-2.1.2/src/core\mem.c **** #endif
  73:C:/Users/stapi/OneDrive/Desktop/GD32VW553/V1_MQTT_OK/GD32VW55X_Wifi_BLE_SDK/GD32VW55x_RELEASE_V1.0.2/MSDK/lwip/lwip-2.1.2/src/core\mem.c **** 
  74:C:/Users/stapi/OneDrive/Desktop/GD32VW553/V1_MQTT_OK/GD32VW55X_Wifi_BLE_SDK/GD32VW55x_RELEASE_V1.0.2/MSDK/lwip/lwip-2.1.2/src/core\mem.c **** #define MEM_STATS_INC_LOCKED(x)         SYS_ARCH_LOCKED(MEM_STATS_INC(x))
  75:C:/Users/stapi/OneDrive/Desktop/GD32VW553/V1_MQTT_OK/GD32VW55X_Wifi_BLE_SDK/GD32VW55x_RELEASE_V1.0.2/MSDK/lwip/lwip-2.1.2/src/core\mem.c **** #define MEM_STATS_INC_USED_LOCKED(x, y) SYS_ARCH_LOCKED(MEM_STATS_INC_USED(x, y))
  76:C:/Users/stapi/OneDrive/Desktop/GD32VW553/V1_MQTT_OK/GD32VW55X_Wifi_BLE_SDK/GD32VW55x_RELEASE_V1.0.2/MSDK/lwip/lwip-2.1.2/src/core\mem.c **** #define MEM_STATS_DEC_USED_LOCKED(x, y) SYS_ARCH_LOCKED(MEM_STATS_DEC_USED(x, y))
  77:C:/Users/stapi/OneDrive/Desktop/GD32VW553/V1_MQTT_OK/GD32VW55X_Wifi_BLE_SDK/GD32VW55x_RELEASE_V1.0.2/MSDK/lwip/lwip-2.1.2/src/core\mem.c **** 
  78:C:/Users/stapi/OneDrive/Desktop/GD32VW553/V1_MQTT_OK/GD32VW55X_Wifi_BLE_SDK/GD32VW55x_RELEASE_V1.0.2/MSDK/lwip/lwip-2.1.2/src/core\mem.c **** #if MEM_OVERFLOW_CHECK
  79:C:/Users/stapi/OneDrive/Desktop/GD32VW553/V1_MQTT_OK/GD32VW55X_Wifi_BLE_SDK/GD32VW55x_RELEASE_V1.0.2/MSDK/lwip/lwip-2.1.2/src/core\mem.c **** #define MEM_SANITY_OFFSET   MEM_SANITY_REGION_BEFORE_ALIGNED
  80:C:/Users/stapi/OneDrive/Desktop/GD32VW553/V1_MQTT_OK/GD32VW55X_Wifi_BLE_SDK/GD32VW55x_RELEASE_V1.0.2/MSDK/lwip/lwip-2.1.2/src/core\mem.c **** #define MEM_SANITY_OVERHEAD (MEM_SANITY_REGION_BEFORE_ALIGNED + MEM_SANITY_REGION_AFTER_ALIGNED)
  81:C:/Users/stapi/OneDrive/Desktop/GD32VW553/V1_MQTT_OK/GD32VW55X_Wifi_BLE_SDK/GD32VW55x_RELEASE_V1.0.2/MSDK/lwip/lwip-2.1.2/src/core\mem.c **** #else
  82:C:/Users/stapi/OneDrive/Desktop/GD32VW553/V1_MQTT_OK/GD32VW55X_Wifi_BLE_SDK/GD32VW55x_RELEASE_V1.0.2/MSDK/lwip/lwip-2.1.2/src/core\mem.c **** #define MEM_SANITY_OFFSET   0
  83:C:/Users/stapi/OneDrive/Desktop/GD32VW553/V1_MQTT_OK/GD32VW55X_Wifi_BLE_SDK/GD32VW55x_RELEASE_V1.0.2/MSDK/lwip/lwip-2.1.2/src/core\mem.c **** #define MEM_SANITY_OVERHEAD 0
  84:C:/Users/stapi/OneDrive/Desktop/GD32VW553/V1_MQTT_OK/GD32VW55X_Wifi_BLE_SDK/GD32VW55x_RELEASE_V1.0.2/MSDK/lwip/lwip-2.1.2/src/core\mem.c **** #endif
  85:C:/Users/stapi/OneDrive/Desktop/GD32VW553/V1_MQTT_OK/GD32VW55X_Wifi_BLE_SDK/GD32VW55x_RELEASE_V1.0.2/MSDK/lwip/lwip-2.1.2/src/core\mem.c **** 
  86:C:/Users/stapi/OneDrive/Desktop/GD32VW553/V1_MQTT_OK/GD32VW55X_Wifi_BLE_SDK/GD32VW55x_RELEASE_V1.0.2/MSDK/lwip/lwip-2.1.2/src/core\mem.c **** #if MEM_OVERFLOW_CHECK || MEMP_OVERFLOW_CHECK
  87:C:/Users/stapi/OneDrive/Desktop/GD32VW553/V1_MQTT_OK/GD32VW55X_Wifi_BLE_SDK/GD32VW55x_RELEASE_V1.0.2/MSDK/lwip/lwip-2.1.2/src/core\mem.c **** /**
  88:C:/Users/stapi/OneDrive/Desktop/GD32VW553/V1_MQTT_OK/GD32VW55X_Wifi_BLE_SDK/GD32VW55x_RELEASE_V1.0.2/MSDK/lwip/lwip-2.1.2/src/core\mem.c ****  * Check if a mep element was victim of an overflow or underflow
  89:C:/Users/stapi/OneDrive/Desktop/GD32VW553/V1_MQTT_OK/GD32VW55X_Wifi_BLE_SDK/GD32VW55x_RELEASE_V1.0.2/MSDK/lwip/lwip-2.1.2/src/core\mem.c ****  * (e.g. the restricted area after/before it has been altered)
  90:C:/Users/stapi/OneDrive/Desktop/GD32VW553/V1_MQTT_OK/GD32VW55X_Wifi_BLE_SDK/GD32VW55x_RELEASE_V1.0.2/MSDK/lwip/lwip-2.1.2/src/core\mem.c ****  *
  91:C:/Users/stapi/OneDrive/Desktop/GD32VW553/V1_MQTT_OK/GD32VW55X_Wifi_BLE_SDK/GD32VW55x_RELEASE_V1.0.2/MSDK/lwip/lwip-2.1.2/src/core\mem.c ****  * @param p the mem element to check
  92:C:/Users/stapi/OneDrive/Desktop/GD32VW553/V1_MQTT_OK/GD32VW55X_Wifi_BLE_SDK/GD32VW55x_RELEASE_V1.0.2/MSDK/lwip/lwip-2.1.2/src/core\mem.c ****  * @param size allocated size of the element
  93:C:/Users/stapi/OneDrive/Desktop/GD32VW553/V1_MQTT_OK/GD32VW55X_Wifi_BLE_SDK/GD32VW55x_RELEASE_V1.0.2/MSDK/lwip/lwip-2.1.2/src/core\mem.c ****  * @param descr1 description of the element source shown on error
  94:C:/Users/stapi/OneDrive/Desktop/GD32VW553/V1_MQTT_OK/GD32VW55X_Wifi_BLE_SDK/GD32VW55x_RELEASE_V1.0.2/MSDK/lwip/lwip-2.1.2/src/core\mem.c ****  * @param descr2 description of the element source shown on error
  95:C:/Users/stapi/OneDrive/Desktop/GD32VW553/V1_MQTT_OK/GD32VW55X_Wifi_BLE_SDK/GD32VW55x_RELEASE_V1.0.2/MSDK/lwip/lwip-2.1.2/src/core\mem.c ****  */
  96:C:/Users/stapi/OneDrive/Desktop/GD32VW553/V1_MQTT_OK/GD32VW55X_Wifi_BLE_SDK/GD32VW55x_RELEASE_V1.0.2/MSDK/lwip/lwip-2.1.2/src/core\mem.c **** void
  97:C:/Users/stapi/OneDrive/Desktop/GD32VW553/V1_MQTT_OK/GD32VW55X_Wifi_BLE_SDK/GD32VW55x_RELEASE_V1.0.2/MSDK/lwip/lwip-2.1.2/src/core\mem.c **** mem_overflow_check_raw(void *p, size_t size, const char *descr1, const char *descr2)
  98:C:/Users/stapi/OneDrive/Desktop/GD32VW553/V1_MQTT_OK/GD32VW55X_Wifi_BLE_SDK/GD32VW55x_RELEASE_V1.0.2/MSDK/lwip/lwip-2.1.2/src/core\mem.c **** {
  99:C:/Users/stapi/OneDrive/Desktop/GD32VW553/V1_MQTT_OK/GD32VW55X_Wifi_BLE_SDK/GD32VW55x_RELEASE_V1.0.2/MSDK/lwip/lwip-2.1.2/src/core\mem.c **** #if MEM_SANITY_REGION_AFTER_ALIGNED || MEM_SANITY_REGION_BEFORE_ALIGNED
 100:C:/Users/stapi/OneDrive/Desktop/GD32VW553/V1_MQTT_OK/GD32VW55X_Wifi_BLE_SDK/GD32VW55x_RELEASE_V1.0.2/MSDK/lwip/lwip-2.1.2/src/core\mem.c ****   u16_t k;
 101:C:/Users/stapi/OneDrive/Desktop/GD32VW553/V1_MQTT_OK/GD32VW55X_Wifi_BLE_SDK/GD32VW55x_RELEASE_V1.0.2/MSDK/lwip/lwip-2.1.2/src/core\mem.c ****   u8_t *m;
 102:C:/Users/stapi/OneDrive/Desktop/GD32VW553/V1_MQTT_OK/GD32VW55X_Wifi_BLE_SDK/GD32VW55x_RELEASE_V1.0.2/MSDK/lwip/lwip-2.1.2/src/core\mem.c **** 
 103:C:/Users/stapi/OneDrive/Desktop/GD32VW553/V1_MQTT_OK/GD32VW55X_Wifi_BLE_SDK/GD32VW55x_RELEASE_V1.0.2/MSDK/lwip/lwip-2.1.2/src/core\mem.c **** #if MEM_SANITY_REGION_AFTER_ALIGNED > 0
 104:C:/Users/stapi/OneDrive/Desktop/GD32VW553/V1_MQTT_OK/GD32VW55X_Wifi_BLE_SDK/GD32VW55x_RELEASE_V1.0.2/MSDK/lwip/lwip-2.1.2/src/core\mem.c ****   m = (u8_t *)p + size;
 105:C:/Users/stapi/OneDrive/Desktop/GD32VW553/V1_MQTT_OK/GD32VW55X_Wifi_BLE_SDK/GD32VW55x_RELEASE_V1.0.2/MSDK/lwip/lwip-2.1.2/src/core\mem.c ****   for (k = 0; k < MEM_SANITY_REGION_AFTER_ALIGNED; k++) {
 106:C:/Users/stapi/OneDrive/Desktop/GD32VW553/V1_MQTT_OK/GD32VW55X_Wifi_BLE_SDK/GD32VW55x_RELEASE_V1.0.2/MSDK/lwip/lwip-2.1.2/src/core\mem.c ****     if (m[k] != 0xcd) {
 107:C:/Users/stapi/OneDrive/Desktop/GD32VW553/V1_MQTT_OK/GD32VW55X_Wifi_BLE_SDK/GD32VW55x_RELEASE_V1.0.2/MSDK/lwip/lwip-2.1.2/src/core\mem.c ****       char errstr[128];
 108:C:/Users/stapi/OneDrive/Desktop/GD32VW553/V1_MQTT_OK/GD32VW55X_Wifi_BLE_SDK/GD32VW55x_RELEASE_V1.0.2/MSDK/lwip/lwip-2.1.2/src/core\mem.c ****       snprintf(errstr, sizeof(errstr), "detected mem overflow in %s%s", descr1, descr2);
 109:C:/Users/stapi/OneDrive/Desktop/GD32VW553/V1_MQTT_OK/GD32VW55X_Wifi_BLE_SDK/GD32VW55x_RELEASE_V1.0.2/MSDK/lwip/lwip-2.1.2/src/core\mem.c ****       LWIP_ASSERT(errstr, 0);
 110:C:/Users/stapi/OneDrive/Desktop/GD32VW553/V1_MQTT_OK/GD32VW55X_Wifi_BLE_SDK/GD32VW55x_RELEASE_V1.0.2/MSDK/lwip/lwip-2.1.2/src/core\mem.c ****     }
 111:C:/Users/stapi/OneDrive/Desktop/GD32VW553/V1_MQTT_OK/GD32VW55X_Wifi_BLE_SDK/GD32VW55x_RELEASE_V1.0.2/MSDK/lwip/lwip-2.1.2/src/core\mem.c ****   }
 112:C:/Users/stapi/OneDrive/Desktop/GD32VW553/V1_MQTT_OK/GD32VW55X_Wifi_BLE_SDK/GD32VW55x_RELEASE_V1.0.2/MSDK/lwip/lwip-2.1.2/src/core\mem.c **** #endif /* MEM_SANITY_REGION_AFTER_ALIGNED > 0 */
 113:C:/Users/stapi/OneDrive/Desktop/GD32VW553/V1_MQTT_OK/GD32VW55X_Wifi_BLE_SDK/GD32VW55x_RELEASE_V1.0.2/MSDK/lwip/lwip-2.1.2/src/core\mem.c **** 
 114:C:/Users/stapi/OneDrive/Desktop/GD32VW553/V1_MQTT_OK/GD32VW55X_Wifi_BLE_SDK/GD32VW55x_RELEASE_V1.0.2/MSDK/lwip/lwip-2.1.2/src/core\mem.c **** #if MEM_SANITY_REGION_BEFORE_ALIGNED > 0
 115:C:/Users/stapi/OneDrive/Desktop/GD32VW553/V1_MQTT_OK/GD32VW55X_Wifi_BLE_SDK/GD32VW55x_RELEASE_V1.0.2/MSDK/lwip/lwip-2.1.2/src/core\mem.c ****   m = (u8_t *)p - MEM_SANITY_REGION_BEFORE_ALIGNED;
 116:C:/Users/stapi/OneDrive/Desktop/GD32VW553/V1_MQTT_OK/GD32VW55X_Wifi_BLE_SDK/GD32VW55x_RELEASE_V1.0.2/MSDK/lwip/lwip-2.1.2/src/core\mem.c ****   for (k = 0; k < MEM_SANITY_REGION_BEFORE_ALIGNED; k++) {
 117:C:/Users/stapi/OneDrive/Desktop/GD32VW553/V1_MQTT_OK/GD32VW55X_Wifi_BLE_SDK/GD32VW55x_RELEASE_V1.0.2/MSDK/lwip/lwip-2.1.2/src/core\mem.c ****     if (m[k] != 0xcd) {
 118:C:/Users/stapi/OneDrive/Desktop/GD32VW553/V1_MQTT_OK/GD32VW55X_Wifi_BLE_SDK/GD32VW55x_RELEASE_V1.0.2/MSDK/lwip/lwip-2.1.2/src/core\mem.c ****       char errstr[128];
 119:C:/Users/stapi/OneDrive/Desktop/GD32VW553/V1_MQTT_OK/GD32VW55X_Wifi_BLE_SDK/GD32VW55x_RELEASE_V1.0.2/MSDK/lwip/lwip-2.1.2/src/core\mem.c ****       snprintf(errstr, sizeof(errstr), "detected mem underflow in %s%s", descr1, descr2);
 120:C:/Users/stapi/OneDrive/Desktop/GD32VW553/V1_MQTT_OK/GD32VW55X_Wifi_BLE_SDK/GD32VW55x_RELEASE_V1.0.2/MSDK/lwip/lwip-2.1.2/src/core\mem.c ****       LWIP_ASSERT(errstr, 0);
 121:C:/Users/stapi/OneDrive/Desktop/GD32VW553/V1_MQTT_OK/GD32VW55X_Wifi_BLE_SDK/GD32VW55x_RELEASE_V1.0.2/MSDK/lwip/lwip-2.1.2/src/core\mem.c ****     }
 122:C:/Users/stapi/OneDrive/Desktop/GD32VW553/V1_MQTT_OK/GD32VW55X_Wifi_BLE_SDK/GD32VW55x_RELEASE_V1.0.2/MSDK/lwip/lwip-2.1.2/src/core\mem.c ****   }
 123:C:/Users/stapi/OneDrive/Desktop/GD32VW553/V1_MQTT_OK/GD32VW55X_Wifi_BLE_SDK/GD32VW55x_RELEASE_V1.0.2/MSDK/lwip/lwip-2.1.2/src/core\mem.c **** #endif /* MEM_SANITY_REGION_BEFORE_ALIGNED > 0 */
 124:C:/Users/stapi/OneDrive/Desktop/GD32VW553/V1_MQTT_OK/GD32VW55X_Wifi_BLE_SDK/GD32VW55x_RELEASE_V1.0.2/MSDK/lwip/lwip-2.1.2/src/core\mem.c **** #else
 125:C:/Users/stapi/OneDrive/Desktop/GD32VW553/V1_MQTT_OK/GD32VW55X_Wifi_BLE_SDK/GD32VW55x_RELEASE_V1.0.2/MSDK/lwip/lwip-2.1.2/src/core\mem.c ****   LWIP_UNUSED_ARG(p);
 126:C:/Users/stapi/OneDrive/Desktop/GD32VW553/V1_MQTT_OK/GD32VW55X_Wifi_BLE_SDK/GD32VW55x_RELEASE_V1.0.2/MSDK/lwip/lwip-2.1.2/src/core\mem.c ****   LWIP_UNUSED_ARG(desc);
 127:C:/Users/stapi/OneDrive/Desktop/GD32VW553/V1_MQTT_OK/GD32VW55X_Wifi_BLE_SDK/GD32VW55x_RELEASE_V1.0.2/MSDK/lwip/lwip-2.1.2/src/core\mem.c ****   LWIP_UNUSED_ARG(descr);
 128:C:/Users/stapi/OneDrive/Desktop/GD32VW553/V1_MQTT_OK/GD32VW55X_Wifi_BLE_SDK/GD32VW55x_RELEASE_V1.0.2/MSDK/lwip/lwip-2.1.2/src/core\mem.c **** #endif
 129:C:/Users/stapi/OneDrive/Desktop/GD32VW553/V1_MQTT_OK/GD32VW55X_Wifi_BLE_SDK/GD32VW55x_RELEASE_V1.0.2/MSDK/lwip/lwip-2.1.2/src/core\mem.c **** }
 130:C:/Users/stapi/OneDrive/Desktop/GD32VW553/V1_MQTT_OK/GD32VW55X_Wifi_BLE_SDK/GD32VW55x_RELEASE_V1.0.2/MSDK/lwip/lwip-2.1.2/src/core\mem.c **** 
 131:C:/Users/stapi/OneDrive/Desktop/GD32VW553/V1_MQTT_OK/GD32VW55X_Wifi_BLE_SDK/GD32VW55x_RELEASE_V1.0.2/MSDK/lwip/lwip-2.1.2/src/core\mem.c **** /**
 132:C:/Users/stapi/OneDrive/Desktop/GD32VW553/V1_MQTT_OK/GD32VW55X_Wifi_BLE_SDK/GD32VW55x_RELEASE_V1.0.2/MSDK/lwip/lwip-2.1.2/src/core\mem.c ****  * Initialize the restricted area of a mem element.
 133:C:/Users/stapi/OneDrive/Desktop/GD32VW553/V1_MQTT_OK/GD32VW55X_Wifi_BLE_SDK/GD32VW55x_RELEASE_V1.0.2/MSDK/lwip/lwip-2.1.2/src/core\mem.c ****  */
 134:C:/Users/stapi/OneDrive/Desktop/GD32VW553/V1_MQTT_OK/GD32VW55X_Wifi_BLE_SDK/GD32VW55x_RELEASE_V1.0.2/MSDK/lwip/lwip-2.1.2/src/core\mem.c **** void
 135:C:/Users/stapi/OneDrive/Desktop/GD32VW553/V1_MQTT_OK/GD32VW55X_Wifi_BLE_SDK/GD32VW55x_RELEASE_V1.0.2/MSDK/lwip/lwip-2.1.2/src/core\mem.c **** mem_overflow_init_raw(void *p, size_t size)
 136:C:/Users/stapi/OneDrive/Desktop/GD32VW553/V1_MQTT_OK/GD32VW55X_Wifi_BLE_SDK/GD32VW55x_RELEASE_V1.0.2/MSDK/lwip/lwip-2.1.2/src/core\mem.c **** {
 137:C:/Users/stapi/OneDrive/Desktop/GD32VW553/V1_MQTT_OK/GD32VW55X_Wifi_BLE_SDK/GD32VW55x_RELEASE_V1.0.2/MSDK/lwip/lwip-2.1.2/src/core\mem.c **** #if MEM_SANITY_REGION_BEFORE_ALIGNED > 0 || MEM_SANITY_REGION_AFTER_ALIGNED > 0
 138:C:/Users/stapi/OneDrive/Desktop/GD32VW553/V1_MQTT_OK/GD32VW55X_Wifi_BLE_SDK/GD32VW55x_RELEASE_V1.0.2/MSDK/lwip/lwip-2.1.2/src/core\mem.c ****   u8_t *m;
 139:C:/Users/stapi/OneDrive/Desktop/GD32VW553/V1_MQTT_OK/GD32VW55X_Wifi_BLE_SDK/GD32VW55x_RELEASE_V1.0.2/MSDK/lwip/lwip-2.1.2/src/core\mem.c **** #if MEM_SANITY_REGION_BEFORE_ALIGNED > 0
 140:C:/Users/stapi/OneDrive/Desktop/GD32VW553/V1_MQTT_OK/GD32VW55X_Wifi_BLE_SDK/GD32VW55x_RELEASE_V1.0.2/MSDK/lwip/lwip-2.1.2/src/core\mem.c ****   m = (u8_t *)p - MEM_SANITY_REGION_BEFORE_ALIGNED;
 141:C:/Users/stapi/OneDrive/Desktop/GD32VW553/V1_MQTT_OK/GD32VW55X_Wifi_BLE_SDK/GD32VW55x_RELEASE_V1.0.2/MSDK/lwip/lwip-2.1.2/src/core\mem.c ****   memset(m, 0xcd, MEM_SANITY_REGION_BEFORE_ALIGNED);
 142:C:/Users/stapi/OneDrive/Desktop/GD32VW553/V1_MQTT_OK/GD32VW55X_Wifi_BLE_SDK/GD32VW55x_RELEASE_V1.0.2/MSDK/lwip/lwip-2.1.2/src/core\mem.c **** #endif
 143:C:/Users/stapi/OneDrive/Desktop/GD32VW553/V1_MQTT_OK/GD32VW55X_Wifi_BLE_SDK/GD32VW55x_RELEASE_V1.0.2/MSDK/lwip/lwip-2.1.2/src/core\mem.c **** #if MEM_SANITY_REGION_AFTER_ALIGNED > 0
 144:C:/Users/stapi/OneDrive/Desktop/GD32VW553/V1_MQTT_OK/GD32VW55X_Wifi_BLE_SDK/GD32VW55x_RELEASE_V1.0.2/MSDK/lwip/lwip-2.1.2/src/core\mem.c ****   m = (u8_t *)p + size;
 145:C:/Users/stapi/OneDrive/Desktop/GD32VW553/V1_MQTT_OK/GD32VW55X_Wifi_BLE_SDK/GD32VW55x_RELEASE_V1.0.2/MSDK/lwip/lwip-2.1.2/src/core\mem.c ****   memset(m, 0xcd, MEM_SANITY_REGION_AFTER_ALIGNED);
 146:C:/Users/stapi/OneDrive/Desktop/GD32VW553/V1_MQTT_OK/GD32VW55X_Wifi_BLE_SDK/GD32VW55x_RELEASE_V1.0.2/MSDK/lwip/lwip-2.1.2/src/core\mem.c **** #endif
 147:C:/Users/stapi/OneDrive/Desktop/GD32VW553/V1_MQTT_OK/GD32VW55X_Wifi_BLE_SDK/GD32VW55x_RELEASE_V1.0.2/MSDK/lwip/lwip-2.1.2/src/core\mem.c **** #else /* MEM_SANITY_REGION_BEFORE_ALIGNED > 0 || MEM_SANITY_REGION_AFTER_ALIGNED > 0 */
 148:C:/Users/stapi/OneDrive/Desktop/GD32VW553/V1_MQTT_OK/GD32VW55X_Wifi_BLE_SDK/GD32VW55x_RELEASE_V1.0.2/MSDK/lwip/lwip-2.1.2/src/core\mem.c ****   LWIP_UNUSED_ARG(p);
 149:C:/Users/stapi/OneDrive/Desktop/GD32VW553/V1_MQTT_OK/GD32VW55X_Wifi_BLE_SDK/GD32VW55x_RELEASE_V1.0.2/MSDK/lwip/lwip-2.1.2/src/core\mem.c ****   LWIP_UNUSED_ARG(desc);
 150:C:/Users/stapi/OneDrive/Desktop/GD32VW553/V1_MQTT_OK/GD32VW55X_Wifi_BLE_SDK/GD32VW55x_RELEASE_V1.0.2/MSDK/lwip/lwip-2.1.2/src/core\mem.c **** #endif /* MEM_SANITY_REGION_BEFORE_ALIGNED > 0 || MEM_SANITY_REGION_AFTER_ALIGNED > 0 */
 151:C:/Users/stapi/OneDrive/Desktop/GD32VW553/V1_MQTT_OK/GD32VW55X_Wifi_BLE_SDK/GD32VW55x_RELEASE_V1.0.2/MSDK/lwip/lwip-2.1.2/src/core\mem.c **** }
 152:C:/Users/stapi/OneDrive/Desktop/GD32VW553/V1_MQTT_OK/GD32VW55X_Wifi_BLE_SDK/GD32VW55x_RELEASE_V1.0.2/MSDK/lwip/lwip-2.1.2/src/core\mem.c **** #endif /* MEM_OVERFLOW_CHECK || MEMP_OVERFLOW_CHECK */
 153:C:/Users/stapi/OneDrive/Desktop/GD32VW553/V1_MQTT_OK/GD32VW55X_Wifi_BLE_SDK/GD32VW55x_RELEASE_V1.0.2/MSDK/lwip/lwip-2.1.2/src/core\mem.c **** 
 154:C:/Users/stapi/OneDrive/Desktop/GD32VW553/V1_MQTT_OK/GD32VW55X_Wifi_BLE_SDK/GD32VW55x_RELEASE_V1.0.2/MSDK/lwip/lwip-2.1.2/src/core\mem.c **** #if MEM_LIBC_MALLOC || MEM_USE_POOLS
 155:C:/Users/stapi/OneDrive/Desktop/GD32VW553/V1_MQTT_OK/GD32VW55X_Wifi_BLE_SDK/GD32VW55x_RELEASE_V1.0.2/MSDK/lwip/lwip-2.1.2/src/core\mem.c **** 
 156:C:/Users/stapi/OneDrive/Desktop/GD32VW553/V1_MQTT_OK/GD32VW55X_Wifi_BLE_SDK/GD32VW55x_RELEASE_V1.0.2/MSDK/lwip/lwip-2.1.2/src/core\mem.c **** /** mem_init is not used when using pools instead of a heap or using
 157:C:/Users/stapi/OneDrive/Desktop/GD32VW553/V1_MQTT_OK/GD32VW55X_Wifi_BLE_SDK/GD32VW55x_RELEASE_V1.0.2/MSDK/lwip/lwip-2.1.2/src/core\mem.c ****  * C library malloc().
 158:C:/Users/stapi/OneDrive/Desktop/GD32VW553/V1_MQTT_OK/GD32VW55X_Wifi_BLE_SDK/GD32VW55x_RELEASE_V1.0.2/MSDK/lwip/lwip-2.1.2/src/core\mem.c ****  */
 159:C:/Users/stapi/OneDrive/Desktop/GD32VW553/V1_MQTT_OK/GD32VW55X_Wifi_BLE_SDK/GD32VW55x_RELEASE_V1.0.2/MSDK/lwip/lwip-2.1.2/src/core\mem.c **** void
 160:C:/Users/stapi/OneDrive/Desktop/GD32VW553/V1_MQTT_OK/GD32VW55X_Wifi_BLE_SDK/GD32VW55x_RELEASE_V1.0.2/MSDK/lwip/lwip-2.1.2/src/core\mem.c **** mem_init(void)
 161:C:/Users/stapi/OneDrive/Desktop/GD32VW553/V1_MQTT_OK/GD32VW55X_Wifi_BLE_SDK/GD32VW55x_RELEASE_V1.0.2/MSDK/lwip/lwip-2.1.2/src/core\mem.c **** {
 162:C:/Users/stapi/OneDrive/Desktop/GD32VW553/V1_MQTT_OK/GD32VW55X_Wifi_BLE_SDK/GD32VW55x_RELEASE_V1.0.2/MSDK/lwip/lwip-2.1.2/src/core\mem.c **** }
 163:C:/Users/stapi/OneDrive/Desktop/GD32VW553/V1_MQTT_OK/GD32VW55X_Wifi_BLE_SDK/GD32VW55x_RELEASE_V1.0.2/MSDK/lwip/lwip-2.1.2/src/core\mem.c **** 
 164:C:/Users/stapi/OneDrive/Desktop/GD32VW553/V1_MQTT_OK/GD32VW55X_Wifi_BLE_SDK/GD32VW55x_RELEASE_V1.0.2/MSDK/lwip/lwip-2.1.2/src/core\mem.c **** /** mem_trim is not used when using pools instead of a heap or using
 165:C:/Users/stapi/OneDrive/Desktop/GD32VW553/V1_MQTT_OK/GD32VW55X_Wifi_BLE_SDK/GD32VW55x_RELEASE_V1.0.2/MSDK/lwip/lwip-2.1.2/src/core\mem.c ****  * C library malloc(): we can't free part of a pool element and the stack
 166:C:/Users/stapi/OneDrive/Desktop/GD32VW553/V1_MQTT_OK/GD32VW55X_Wifi_BLE_SDK/GD32VW55x_RELEASE_V1.0.2/MSDK/lwip/lwip-2.1.2/src/core\mem.c ****  * support mem_trim() to return a different pointer
 167:C:/Users/stapi/OneDrive/Desktop/GD32VW553/V1_MQTT_OK/GD32VW55X_Wifi_BLE_SDK/GD32VW55x_RELEASE_V1.0.2/MSDK/lwip/lwip-2.1.2/src/core\mem.c ****  */
 168:C:/Users/stapi/OneDrive/Desktop/GD32VW553/V1_MQTT_OK/GD32VW55X_Wifi_BLE_SDK/GD32VW55x_RELEASE_V1.0.2/MSDK/lwip/lwip-2.1.2/src/core\mem.c **** void *
 169:C:/Users/stapi/OneDrive/Desktop/GD32VW553/V1_MQTT_OK/GD32VW55X_Wifi_BLE_SDK/GD32VW55x_RELEASE_V1.0.2/MSDK/lwip/lwip-2.1.2/src/core\mem.c **** mem_trim(void *mem, mem_size_t size)
 170:C:/Users/stapi/OneDrive/Desktop/GD32VW553/V1_MQTT_OK/GD32VW55X_Wifi_BLE_SDK/GD32VW55x_RELEASE_V1.0.2/MSDK/lwip/lwip-2.1.2/src/core\mem.c **** {
 171:C:/Users/stapi/OneDrive/Desktop/GD32VW553/V1_MQTT_OK/GD32VW55X_Wifi_BLE_SDK/GD32VW55x_RELEASE_V1.0.2/MSDK/lwip/lwip-2.1.2/src/core\mem.c ****   LWIP_UNUSED_ARG(size);
 172:C:/Users/stapi/OneDrive/Desktop/GD32VW553/V1_MQTT_OK/GD32VW55X_Wifi_BLE_SDK/GD32VW55x_RELEASE_V1.0.2/MSDK/lwip/lwip-2.1.2/src/core\mem.c ****   return mem;
 173:C:/Users/stapi/OneDrive/Desktop/GD32VW553/V1_MQTT_OK/GD32VW55X_Wifi_BLE_SDK/GD32VW55x_RELEASE_V1.0.2/MSDK/lwip/lwip-2.1.2/src/core\mem.c **** }
 174:C:/Users/stapi/OneDrive/Desktop/GD32VW553/V1_MQTT_OK/GD32VW55X_Wifi_BLE_SDK/GD32VW55x_RELEASE_V1.0.2/MSDK/lwip/lwip-2.1.2/src/core\mem.c **** #endif /* MEM_LIBC_MALLOC || MEM_USE_POOLS */
 175:C:/Users/stapi/OneDrive/Desktop/GD32VW553/V1_MQTT_OK/GD32VW55X_Wifi_BLE_SDK/GD32VW55x_RELEASE_V1.0.2/MSDK/lwip/lwip-2.1.2/src/core\mem.c **** 
 176:C:/Users/stapi/OneDrive/Desktop/GD32VW553/V1_MQTT_OK/GD32VW55X_Wifi_BLE_SDK/GD32VW55x_RELEASE_V1.0.2/MSDK/lwip/lwip-2.1.2/src/core\mem.c **** #if MEM_LIBC_MALLOC
 177:C:/Users/stapi/OneDrive/Desktop/GD32VW553/V1_MQTT_OK/GD32VW55X_Wifi_BLE_SDK/GD32VW55x_RELEASE_V1.0.2/MSDK/lwip/lwip-2.1.2/src/core\mem.c **** /* lwIP heap implemented using C library malloc() */
 178:C:/Users/stapi/OneDrive/Desktop/GD32VW553/V1_MQTT_OK/GD32VW55X_Wifi_BLE_SDK/GD32VW55x_RELEASE_V1.0.2/MSDK/lwip/lwip-2.1.2/src/core\mem.c **** 
 179:C:/Users/stapi/OneDrive/Desktop/GD32VW553/V1_MQTT_OK/GD32VW55X_Wifi_BLE_SDK/GD32VW55x_RELEASE_V1.0.2/MSDK/lwip/lwip-2.1.2/src/core\mem.c **** /* in case C library malloc() needs extra protection,
 180:C:/Users/stapi/OneDrive/Desktop/GD32VW553/V1_MQTT_OK/GD32VW55X_Wifi_BLE_SDK/GD32VW55x_RELEASE_V1.0.2/MSDK/lwip/lwip-2.1.2/src/core\mem.c ****  * allow these defines to be overridden.
 181:C:/Users/stapi/OneDrive/Desktop/GD32VW553/V1_MQTT_OK/GD32VW55X_Wifi_BLE_SDK/GD32VW55x_RELEASE_V1.0.2/MSDK/lwip/lwip-2.1.2/src/core\mem.c ****  */
 182:C:/Users/stapi/OneDrive/Desktop/GD32VW553/V1_MQTT_OK/GD32VW55X_Wifi_BLE_SDK/GD32VW55x_RELEASE_V1.0.2/MSDK/lwip/lwip-2.1.2/src/core\mem.c **** #ifndef mem_clib_free
 183:C:/Users/stapi/OneDrive/Desktop/GD32VW553/V1_MQTT_OK/GD32VW55X_Wifi_BLE_SDK/GD32VW55x_RELEASE_V1.0.2/MSDK/lwip/lwip-2.1.2/src/core\mem.c **** #define mem_clib_free free
 184:C:/Users/stapi/OneDrive/Desktop/GD32VW553/V1_MQTT_OK/GD32VW55X_Wifi_BLE_SDK/GD32VW55x_RELEASE_V1.0.2/MSDK/lwip/lwip-2.1.2/src/core\mem.c **** #endif
 185:C:/Users/stapi/OneDrive/Desktop/GD32VW553/V1_MQTT_OK/GD32VW55X_Wifi_BLE_SDK/GD32VW55x_RELEASE_V1.0.2/MSDK/lwip/lwip-2.1.2/src/core\mem.c **** #ifndef mem_clib_malloc
 186:C:/Users/stapi/OneDrive/Desktop/GD32VW553/V1_MQTT_OK/GD32VW55X_Wifi_BLE_SDK/GD32VW55x_RELEASE_V1.0.2/MSDK/lwip/lwip-2.1.2/src/core\mem.c **** #define mem_clib_malloc malloc
 187:C:/Users/stapi/OneDrive/Desktop/GD32VW553/V1_MQTT_OK/GD32VW55X_Wifi_BLE_SDK/GD32VW55x_RELEASE_V1.0.2/MSDK/lwip/lwip-2.1.2/src/core\mem.c **** #endif
 188:C:/Users/stapi/OneDrive/Desktop/GD32VW553/V1_MQTT_OK/GD32VW55X_Wifi_BLE_SDK/GD32VW55x_RELEASE_V1.0.2/MSDK/lwip/lwip-2.1.2/src/core\mem.c **** #ifndef mem_clib_calloc
 189:C:/Users/stapi/OneDrive/Desktop/GD32VW553/V1_MQTT_OK/GD32VW55X_Wifi_BLE_SDK/GD32VW55x_RELEASE_V1.0.2/MSDK/lwip/lwip-2.1.2/src/core\mem.c **** #define mem_clib_calloc calloc
 190:C:/Users/stapi/OneDrive/Desktop/GD32VW553/V1_MQTT_OK/GD32VW55X_Wifi_BLE_SDK/GD32VW55x_RELEASE_V1.0.2/MSDK/lwip/lwip-2.1.2/src/core\mem.c **** #endif
 191:C:/Users/stapi/OneDrive/Desktop/GD32VW553/V1_MQTT_OK/GD32VW55X_Wifi_BLE_SDK/GD32VW55x_RELEASE_V1.0.2/MSDK/lwip/lwip-2.1.2/src/core\mem.c **** 
 192:C:/Users/stapi/OneDrive/Desktop/GD32VW553/V1_MQTT_OK/GD32VW55X_Wifi_BLE_SDK/GD32VW55x_RELEASE_V1.0.2/MSDK/lwip/lwip-2.1.2/src/core\mem.c **** #if LWIP_STATS && MEM_STATS
 193:C:/Users/stapi/OneDrive/Desktop/GD32VW553/V1_MQTT_OK/GD32VW55X_Wifi_BLE_SDK/GD32VW55x_RELEASE_V1.0.2/MSDK/lwip/lwip-2.1.2/src/core\mem.c **** #define MEM_LIBC_STATSHELPER_SIZE LWIP_MEM_ALIGN_SIZE(sizeof(mem_size_t))
 194:C:/Users/stapi/OneDrive/Desktop/GD32VW553/V1_MQTT_OK/GD32VW55X_Wifi_BLE_SDK/GD32VW55x_RELEASE_V1.0.2/MSDK/lwip/lwip-2.1.2/src/core\mem.c **** #else
 195:C:/Users/stapi/OneDrive/Desktop/GD32VW553/V1_MQTT_OK/GD32VW55X_Wifi_BLE_SDK/GD32VW55x_RELEASE_V1.0.2/MSDK/lwip/lwip-2.1.2/src/core\mem.c **** #define MEM_LIBC_STATSHELPER_SIZE 0
 196:C:/Users/stapi/OneDrive/Desktop/GD32VW553/V1_MQTT_OK/GD32VW55X_Wifi_BLE_SDK/GD32VW55x_RELEASE_V1.0.2/MSDK/lwip/lwip-2.1.2/src/core\mem.c **** #endif
 197:C:/Users/stapi/OneDrive/Desktop/GD32VW553/V1_MQTT_OK/GD32VW55X_Wifi_BLE_SDK/GD32VW55x_RELEASE_V1.0.2/MSDK/lwip/lwip-2.1.2/src/core\mem.c **** 
 198:C:/Users/stapi/OneDrive/Desktop/GD32VW553/V1_MQTT_OK/GD32VW55X_Wifi_BLE_SDK/GD32VW55x_RELEASE_V1.0.2/MSDK/lwip/lwip-2.1.2/src/core\mem.c **** /**
 199:C:/Users/stapi/OneDrive/Desktop/GD32VW553/V1_MQTT_OK/GD32VW55X_Wifi_BLE_SDK/GD32VW55x_RELEASE_V1.0.2/MSDK/lwip/lwip-2.1.2/src/core\mem.c ****  * Allocate a block of memory with a minimum of 'size' bytes.
 200:C:/Users/stapi/OneDrive/Desktop/GD32VW553/V1_MQTT_OK/GD32VW55X_Wifi_BLE_SDK/GD32VW55x_RELEASE_V1.0.2/MSDK/lwip/lwip-2.1.2/src/core\mem.c ****  *
 201:C:/Users/stapi/OneDrive/Desktop/GD32VW553/V1_MQTT_OK/GD32VW55X_Wifi_BLE_SDK/GD32VW55x_RELEASE_V1.0.2/MSDK/lwip/lwip-2.1.2/src/core\mem.c ****  * @param size is the minimum size of the requested block in bytes.
 202:C:/Users/stapi/OneDrive/Desktop/GD32VW553/V1_MQTT_OK/GD32VW55X_Wifi_BLE_SDK/GD32VW55x_RELEASE_V1.0.2/MSDK/lwip/lwip-2.1.2/src/core\mem.c ****  * @return pointer to allocated memory or NULL if no free memory was found.
 203:C:/Users/stapi/OneDrive/Desktop/GD32VW553/V1_MQTT_OK/GD32VW55X_Wifi_BLE_SDK/GD32VW55x_RELEASE_V1.0.2/MSDK/lwip/lwip-2.1.2/src/core\mem.c ****  *
 204:C:/Users/stapi/OneDrive/Desktop/GD32VW553/V1_MQTT_OK/GD32VW55X_Wifi_BLE_SDK/GD32VW55x_RELEASE_V1.0.2/MSDK/lwip/lwip-2.1.2/src/core\mem.c ****  * Note that the returned value must always be aligned (as defined by MEM_ALIGNMENT).
 205:C:/Users/stapi/OneDrive/Desktop/GD32VW553/V1_MQTT_OK/GD32VW55X_Wifi_BLE_SDK/GD32VW55x_RELEASE_V1.0.2/MSDK/lwip/lwip-2.1.2/src/core\mem.c ****  */
 206:C:/Users/stapi/OneDrive/Desktop/GD32VW553/V1_MQTT_OK/GD32VW55X_Wifi_BLE_SDK/GD32VW55x_RELEASE_V1.0.2/MSDK/lwip/lwip-2.1.2/src/core\mem.c **** void *
 207:C:/Users/stapi/OneDrive/Desktop/GD32VW553/V1_MQTT_OK/GD32VW55X_Wifi_BLE_SDK/GD32VW55x_RELEASE_V1.0.2/MSDK/lwip/lwip-2.1.2/src/core\mem.c **** mem_malloc(mem_size_t size)
 208:C:/Users/stapi/OneDrive/Desktop/GD32VW553/V1_MQTT_OK/GD32VW55X_Wifi_BLE_SDK/GD32VW55x_RELEASE_V1.0.2/MSDK/lwip/lwip-2.1.2/src/core\mem.c **** {
 209:C:/Users/stapi/OneDrive/Desktop/GD32VW553/V1_MQTT_OK/GD32VW55X_Wifi_BLE_SDK/GD32VW55x_RELEASE_V1.0.2/MSDK/lwip/lwip-2.1.2/src/core\mem.c ****   void *ret = mem_clib_malloc(size + MEM_LIBC_STATSHELPER_SIZE);
 210:C:/Users/stapi/OneDrive/Desktop/GD32VW553/V1_MQTT_OK/GD32VW55X_Wifi_BLE_SDK/GD32VW55x_RELEASE_V1.0.2/MSDK/lwip/lwip-2.1.2/src/core\mem.c ****   if (ret == NULL) {
 211:C:/Users/stapi/OneDrive/Desktop/GD32VW553/V1_MQTT_OK/GD32VW55X_Wifi_BLE_SDK/GD32VW55x_RELEASE_V1.0.2/MSDK/lwip/lwip-2.1.2/src/core\mem.c ****     MEM_STATS_INC_LOCKED(err);
 212:C:/Users/stapi/OneDrive/Desktop/GD32VW553/V1_MQTT_OK/GD32VW55X_Wifi_BLE_SDK/GD32VW55x_RELEASE_V1.0.2/MSDK/lwip/lwip-2.1.2/src/core\mem.c ****   } else {
 213:C:/Users/stapi/OneDrive/Desktop/GD32VW553/V1_MQTT_OK/GD32VW55X_Wifi_BLE_SDK/GD32VW55x_RELEASE_V1.0.2/MSDK/lwip/lwip-2.1.2/src/core\mem.c ****     LWIP_ASSERT("malloc() must return aligned memory", LWIP_MEM_ALIGN(ret) == ret);
 214:C:/Users/stapi/OneDrive/Desktop/GD32VW553/V1_MQTT_OK/GD32VW55X_Wifi_BLE_SDK/GD32VW55x_RELEASE_V1.0.2/MSDK/lwip/lwip-2.1.2/src/core\mem.c **** #if LWIP_STATS && MEM_STATS
 215:C:/Users/stapi/OneDrive/Desktop/GD32VW553/V1_MQTT_OK/GD32VW55X_Wifi_BLE_SDK/GD32VW55x_RELEASE_V1.0.2/MSDK/lwip/lwip-2.1.2/src/core\mem.c ****     *(mem_size_t *)ret = size;
 216:C:/Users/stapi/OneDrive/Desktop/GD32VW553/V1_MQTT_OK/GD32VW55X_Wifi_BLE_SDK/GD32VW55x_RELEASE_V1.0.2/MSDK/lwip/lwip-2.1.2/src/core\mem.c ****     ret = (u8_t *)ret + MEM_LIBC_STATSHELPER_SIZE;
 217:C:/Users/stapi/OneDrive/Desktop/GD32VW553/V1_MQTT_OK/GD32VW55X_Wifi_BLE_SDK/GD32VW55x_RELEASE_V1.0.2/MSDK/lwip/lwip-2.1.2/src/core\mem.c ****     MEM_STATS_INC_USED_LOCKED(used, size);
 218:C:/Users/stapi/OneDrive/Desktop/GD32VW553/V1_MQTT_OK/GD32VW55X_Wifi_BLE_SDK/GD32VW55x_RELEASE_V1.0.2/MSDK/lwip/lwip-2.1.2/src/core\mem.c **** #endif
 219:C:/Users/stapi/OneDrive/Desktop/GD32VW553/V1_MQTT_OK/GD32VW55X_Wifi_BLE_SDK/GD32VW55x_RELEASE_V1.0.2/MSDK/lwip/lwip-2.1.2/src/core\mem.c ****   }
 220:C:/Users/stapi/OneDrive/Desktop/GD32VW553/V1_MQTT_OK/GD32VW55X_Wifi_BLE_SDK/GD32VW55x_RELEASE_V1.0.2/MSDK/lwip/lwip-2.1.2/src/core\mem.c ****   return ret;
 221:C:/Users/stapi/OneDrive/Desktop/GD32VW553/V1_MQTT_OK/GD32VW55X_Wifi_BLE_SDK/GD32VW55x_RELEASE_V1.0.2/MSDK/lwip/lwip-2.1.2/src/core\mem.c **** }
 222:C:/Users/stapi/OneDrive/Desktop/GD32VW553/V1_MQTT_OK/GD32VW55X_Wifi_BLE_SDK/GD32VW55x_RELEASE_V1.0.2/MSDK/lwip/lwip-2.1.2/src/core\mem.c **** 
 223:C:/Users/stapi/OneDrive/Desktop/GD32VW553/V1_MQTT_OK/GD32VW55X_Wifi_BLE_SDK/GD32VW55x_RELEASE_V1.0.2/MSDK/lwip/lwip-2.1.2/src/core\mem.c **** /** Put memory back on the heap
 224:C:/Users/stapi/OneDrive/Desktop/GD32VW553/V1_MQTT_OK/GD32VW55X_Wifi_BLE_SDK/GD32VW55x_RELEASE_V1.0.2/MSDK/lwip/lwip-2.1.2/src/core\mem.c ****  *
 225:C:/Users/stapi/OneDrive/Desktop/GD32VW553/V1_MQTT_OK/GD32VW55X_Wifi_BLE_SDK/GD32VW55x_RELEASE_V1.0.2/MSDK/lwip/lwip-2.1.2/src/core\mem.c ****  * @param rmem is the pointer as returned by a previous call to mem_malloc()
 226:C:/Users/stapi/OneDrive/Desktop/GD32VW553/V1_MQTT_OK/GD32VW55X_Wifi_BLE_SDK/GD32VW55x_RELEASE_V1.0.2/MSDK/lwip/lwip-2.1.2/src/core\mem.c ****  */
 227:C:/Users/stapi/OneDrive/Desktop/GD32VW553/V1_MQTT_OK/GD32VW55X_Wifi_BLE_SDK/GD32VW55x_RELEASE_V1.0.2/MSDK/lwip/lwip-2.1.2/src/core\mem.c **** void
 228:C:/Users/stapi/OneDrive/Desktop/GD32VW553/V1_MQTT_OK/GD32VW55X_Wifi_BLE_SDK/GD32VW55x_RELEASE_V1.0.2/MSDK/lwip/lwip-2.1.2/src/core\mem.c **** mem_free(void *rmem)
 229:C:/Users/stapi/OneDrive/Desktop/GD32VW553/V1_MQTT_OK/GD32VW55X_Wifi_BLE_SDK/GD32VW55x_RELEASE_V1.0.2/MSDK/lwip/lwip-2.1.2/src/core\mem.c **** {
 230:C:/Users/stapi/OneDrive/Desktop/GD32VW553/V1_MQTT_OK/GD32VW55X_Wifi_BLE_SDK/GD32VW55x_RELEASE_V1.0.2/MSDK/lwip/lwip-2.1.2/src/core\mem.c ****   LWIP_ASSERT("rmem != NULL", (rmem != NULL));
 231:C:/Users/stapi/OneDrive/Desktop/GD32VW553/V1_MQTT_OK/GD32VW55X_Wifi_BLE_SDK/GD32VW55x_RELEASE_V1.0.2/MSDK/lwip/lwip-2.1.2/src/core\mem.c ****   LWIP_ASSERT("rmem == MEM_ALIGN(rmem)", (rmem == LWIP_MEM_ALIGN(rmem)));
 232:C:/Users/stapi/OneDrive/Desktop/GD32VW553/V1_MQTT_OK/GD32VW55X_Wifi_BLE_SDK/GD32VW55x_RELEASE_V1.0.2/MSDK/lwip/lwip-2.1.2/src/core\mem.c **** #if LWIP_STATS && MEM_STATS
 233:C:/Users/stapi/OneDrive/Desktop/GD32VW553/V1_MQTT_OK/GD32VW55X_Wifi_BLE_SDK/GD32VW55x_RELEASE_V1.0.2/MSDK/lwip/lwip-2.1.2/src/core\mem.c ****   rmem = (u8_t *)rmem - MEM_LIBC_STATSHELPER_SIZE;
 234:C:/Users/stapi/OneDrive/Desktop/GD32VW553/V1_MQTT_OK/GD32VW55X_Wifi_BLE_SDK/GD32VW55x_RELEASE_V1.0.2/MSDK/lwip/lwip-2.1.2/src/core\mem.c ****   MEM_STATS_DEC_USED_LOCKED(used, *(mem_size_t *)rmem);
 235:C:/Users/stapi/OneDrive/Desktop/GD32VW553/V1_MQTT_OK/GD32VW55X_Wifi_BLE_SDK/GD32VW55x_RELEASE_V1.0.2/MSDK/lwip/lwip-2.1.2/src/core\mem.c **** #endif
 236:C:/Users/stapi/OneDrive/Desktop/GD32VW553/V1_MQTT_OK/GD32VW55X_Wifi_BLE_SDK/GD32VW55x_RELEASE_V1.0.2/MSDK/lwip/lwip-2.1.2/src/core\mem.c ****   mem_clib_free(rmem);
 237:C:/Users/stapi/OneDrive/Desktop/GD32VW553/V1_MQTT_OK/GD32VW55X_Wifi_BLE_SDK/GD32VW55x_RELEASE_V1.0.2/MSDK/lwip/lwip-2.1.2/src/core\mem.c **** }
 238:C:/Users/stapi/OneDrive/Desktop/GD32VW553/V1_MQTT_OK/GD32VW55X_Wifi_BLE_SDK/GD32VW55x_RELEASE_V1.0.2/MSDK/lwip/lwip-2.1.2/src/core\mem.c **** 
 239:C:/Users/stapi/OneDrive/Desktop/GD32VW553/V1_MQTT_OK/GD32VW55X_Wifi_BLE_SDK/GD32VW55x_RELEASE_V1.0.2/MSDK/lwip/lwip-2.1.2/src/core\mem.c **** #elif MEM_USE_POOLS
 240:C:/Users/stapi/OneDrive/Desktop/GD32VW553/V1_MQTT_OK/GD32VW55X_Wifi_BLE_SDK/GD32VW55x_RELEASE_V1.0.2/MSDK/lwip/lwip-2.1.2/src/core\mem.c **** 
 241:C:/Users/stapi/OneDrive/Desktop/GD32VW553/V1_MQTT_OK/GD32VW55X_Wifi_BLE_SDK/GD32VW55x_RELEASE_V1.0.2/MSDK/lwip/lwip-2.1.2/src/core\mem.c **** /* lwIP heap implemented with different sized pools */
 242:C:/Users/stapi/OneDrive/Desktop/GD32VW553/V1_MQTT_OK/GD32VW55X_Wifi_BLE_SDK/GD32VW55x_RELEASE_V1.0.2/MSDK/lwip/lwip-2.1.2/src/core\mem.c **** 
 243:C:/Users/stapi/OneDrive/Desktop/GD32VW553/V1_MQTT_OK/GD32VW55X_Wifi_BLE_SDK/GD32VW55x_RELEASE_V1.0.2/MSDK/lwip/lwip-2.1.2/src/core\mem.c **** /**
 244:C:/Users/stapi/OneDrive/Desktop/GD32VW553/V1_MQTT_OK/GD32VW55X_Wifi_BLE_SDK/GD32VW55x_RELEASE_V1.0.2/MSDK/lwip/lwip-2.1.2/src/core\mem.c ****  * Allocate memory: determine the smallest pool that is big enough
 245:C:/Users/stapi/OneDrive/Desktop/GD32VW553/V1_MQTT_OK/GD32VW55X_Wifi_BLE_SDK/GD32VW55x_RELEASE_V1.0.2/MSDK/lwip/lwip-2.1.2/src/core\mem.c ****  * to contain an element of 'size' and get an element from that pool.
 246:C:/Users/stapi/OneDrive/Desktop/GD32VW553/V1_MQTT_OK/GD32VW55X_Wifi_BLE_SDK/GD32VW55x_RELEASE_V1.0.2/MSDK/lwip/lwip-2.1.2/src/core\mem.c ****  *
 247:C:/Users/stapi/OneDrive/Desktop/GD32VW553/V1_MQTT_OK/GD32VW55X_Wifi_BLE_SDK/GD32VW55x_RELEASE_V1.0.2/MSDK/lwip/lwip-2.1.2/src/core\mem.c ****  * @param size the size in bytes of the memory needed
 248:C:/Users/stapi/OneDrive/Desktop/GD32VW553/V1_MQTT_OK/GD32VW55X_Wifi_BLE_SDK/GD32VW55x_RELEASE_V1.0.2/MSDK/lwip/lwip-2.1.2/src/core\mem.c ****  * @return a pointer to the allocated memory or NULL if the pool is empty
 249:C:/Users/stapi/OneDrive/Desktop/GD32VW553/V1_MQTT_OK/GD32VW55X_Wifi_BLE_SDK/GD32VW55x_RELEASE_V1.0.2/MSDK/lwip/lwip-2.1.2/src/core\mem.c ****  */
 250:C:/Users/stapi/OneDrive/Desktop/GD32VW553/V1_MQTT_OK/GD32VW55X_Wifi_BLE_SDK/GD32VW55x_RELEASE_V1.0.2/MSDK/lwip/lwip-2.1.2/src/core\mem.c **** void *
 251:C:/Users/stapi/OneDrive/Desktop/GD32VW553/V1_MQTT_OK/GD32VW55X_Wifi_BLE_SDK/GD32VW55x_RELEASE_V1.0.2/MSDK/lwip/lwip-2.1.2/src/core\mem.c **** mem_malloc(mem_size_t size)
 252:C:/Users/stapi/OneDrive/Desktop/GD32VW553/V1_MQTT_OK/GD32VW55X_Wifi_BLE_SDK/GD32VW55x_RELEASE_V1.0.2/MSDK/lwip/lwip-2.1.2/src/core\mem.c **** {
 253:C:/Users/stapi/OneDrive/Desktop/GD32VW553/V1_MQTT_OK/GD32VW55X_Wifi_BLE_SDK/GD32VW55x_RELEASE_V1.0.2/MSDK/lwip/lwip-2.1.2/src/core\mem.c ****   void *ret;
 254:C:/Users/stapi/OneDrive/Desktop/GD32VW553/V1_MQTT_OK/GD32VW55X_Wifi_BLE_SDK/GD32VW55x_RELEASE_V1.0.2/MSDK/lwip/lwip-2.1.2/src/core\mem.c ****   struct memp_malloc_helper *element = NULL;
 255:C:/Users/stapi/OneDrive/Desktop/GD32VW553/V1_MQTT_OK/GD32VW55X_Wifi_BLE_SDK/GD32VW55x_RELEASE_V1.0.2/MSDK/lwip/lwip-2.1.2/src/core\mem.c ****   memp_t poolnr;
 256:C:/Users/stapi/OneDrive/Desktop/GD32VW553/V1_MQTT_OK/GD32VW55X_Wifi_BLE_SDK/GD32VW55x_RELEASE_V1.0.2/MSDK/lwip/lwip-2.1.2/src/core\mem.c ****   mem_size_t required_size = size + LWIP_MEM_ALIGN_SIZE(sizeof(struct memp_malloc_helper));
 257:C:/Users/stapi/OneDrive/Desktop/GD32VW553/V1_MQTT_OK/GD32VW55X_Wifi_BLE_SDK/GD32VW55x_RELEASE_V1.0.2/MSDK/lwip/lwip-2.1.2/src/core\mem.c **** 
 258:C:/Users/stapi/OneDrive/Desktop/GD32VW553/V1_MQTT_OK/GD32VW55X_Wifi_BLE_SDK/GD32VW55x_RELEASE_V1.0.2/MSDK/lwip/lwip-2.1.2/src/core\mem.c ****   for (poolnr = MEMP_POOL_FIRST; poolnr <= MEMP_POOL_LAST; poolnr = (memp_t)(poolnr + 1)) {
 259:C:/Users/stapi/OneDrive/Desktop/GD32VW553/V1_MQTT_OK/GD32VW55X_Wifi_BLE_SDK/GD32VW55x_RELEASE_V1.0.2/MSDK/lwip/lwip-2.1.2/src/core\mem.c ****     /* is this pool big enough to hold an element of the required size
 260:C:/Users/stapi/OneDrive/Desktop/GD32VW553/V1_MQTT_OK/GD32VW55X_Wifi_BLE_SDK/GD32VW55x_RELEASE_V1.0.2/MSDK/lwip/lwip-2.1.2/src/core\mem.c ****        plus a struct memp_malloc_helper that saves the pool this element came from? */
 261:C:/Users/stapi/OneDrive/Desktop/GD32VW553/V1_MQTT_OK/GD32VW55X_Wifi_BLE_SDK/GD32VW55x_RELEASE_V1.0.2/MSDK/lwip/lwip-2.1.2/src/core\mem.c ****     if (required_size <= memp_pools[poolnr]->size) {
 262:C:/Users/stapi/OneDrive/Desktop/GD32VW553/V1_MQTT_OK/GD32VW55X_Wifi_BLE_SDK/GD32VW55x_RELEASE_V1.0.2/MSDK/lwip/lwip-2.1.2/src/core\mem.c ****       element = (struct memp_malloc_helper *)memp_malloc(poolnr);
 263:C:/Users/stapi/OneDrive/Desktop/GD32VW553/V1_MQTT_OK/GD32VW55X_Wifi_BLE_SDK/GD32VW55x_RELEASE_V1.0.2/MSDK/lwip/lwip-2.1.2/src/core\mem.c ****       if (element == NULL) {
 264:C:/Users/stapi/OneDrive/Desktop/GD32VW553/V1_MQTT_OK/GD32VW55X_Wifi_BLE_SDK/GD32VW55x_RELEASE_V1.0.2/MSDK/lwip/lwip-2.1.2/src/core\mem.c ****         /* No need to DEBUGF or ASSERT: This error is already taken care of in memp.c */
 265:C:/Users/stapi/OneDrive/Desktop/GD32VW553/V1_MQTT_OK/GD32VW55X_Wifi_BLE_SDK/GD32VW55x_RELEASE_V1.0.2/MSDK/lwip/lwip-2.1.2/src/core\mem.c **** #if MEM_USE_POOLS_TRY_BIGGER_POOL
 266:C:/Users/stapi/OneDrive/Desktop/GD32VW553/V1_MQTT_OK/GD32VW55X_Wifi_BLE_SDK/GD32VW55x_RELEASE_V1.0.2/MSDK/lwip/lwip-2.1.2/src/core\mem.c ****         /** Try a bigger pool if this one is empty! */
 267:C:/Users/stapi/OneDrive/Desktop/GD32VW553/V1_MQTT_OK/GD32VW55X_Wifi_BLE_SDK/GD32VW55x_RELEASE_V1.0.2/MSDK/lwip/lwip-2.1.2/src/core\mem.c ****         if (poolnr < MEMP_POOL_LAST) {
 268:C:/Users/stapi/OneDrive/Desktop/GD32VW553/V1_MQTT_OK/GD32VW55X_Wifi_BLE_SDK/GD32VW55x_RELEASE_V1.0.2/MSDK/lwip/lwip-2.1.2/src/core\mem.c ****           continue;
 269:C:/Users/stapi/OneDrive/Desktop/GD32VW553/V1_MQTT_OK/GD32VW55X_Wifi_BLE_SDK/GD32VW55x_RELEASE_V1.0.2/MSDK/lwip/lwip-2.1.2/src/core\mem.c ****         }
 270:C:/Users/stapi/OneDrive/Desktop/GD32VW553/V1_MQTT_OK/GD32VW55X_Wifi_BLE_SDK/GD32VW55x_RELEASE_V1.0.2/MSDK/lwip/lwip-2.1.2/src/core\mem.c **** #endif /* MEM_USE_POOLS_TRY_BIGGER_POOL */
 271:C:/Users/stapi/OneDrive/Desktop/GD32VW553/V1_MQTT_OK/GD32VW55X_Wifi_BLE_SDK/GD32VW55x_RELEASE_V1.0.2/MSDK/lwip/lwip-2.1.2/src/core\mem.c ****         MEM_STATS_INC_LOCKED(err);
 272:C:/Users/stapi/OneDrive/Desktop/GD32VW553/V1_MQTT_OK/GD32VW55X_Wifi_BLE_SDK/GD32VW55x_RELEASE_V1.0.2/MSDK/lwip/lwip-2.1.2/src/core\mem.c ****         return NULL;
 273:C:/Users/stapi/OneDrive/Desktop/GD32VW553/V1_MQTT_OK/GD32VW55X_Wifi_BLE_SDK/GD32VW55x_RELEASE_V1.0.2/MSDK/lwip/lwip-2.1.2/src/core\mem.c ****       }
 274:C:/Users/stapi/OneDrive/Desktop/GD32VW553/V1_MQTT_OK/GD32VW55X_Wifi_BLE_SDK/GD32VW55x_RELEASE_V1.0.2/MSDK/lwip/lwip-2.1.2/src/core\mem.c ****       break;
 275:C:/Users/stapi/OneDrive/Desktop/GD32VW553/V1_MQTT_OK/GD32VW55X_Wifi_BLE_SDK/GD32VW55x_RELEASE_V1.0.2/MSDK/lwip/lwip-2.1.2/src/core\mem.c ****     }
 276:C:/Users/stapi/OneDrive/Desktop/GD32VW553/V1_MQTT_OK/GD32VW55X_Wifi_BLE_SDK/GD32VW55x_RELEASE_V1.0.2/MSDK/lwip/lwip-2.1.2/src/core\mem.c ****   }
 277:C:/Users/stapi/OneDrive/Desktop/GD32VW553/V1_MQTT_OK/GD32VW55X_Wifi_BLE_SDK/GD32VW55x_RELEASE_V1.0.2/MSDK/lwip/lwip-2.1.2/src/core\mem.c ****   if (poolnr > MEMP_POOL_LAST) {
 278:C:/Users/stapi/OneDrive/Desktop/GD32VW553/V1_MQTT_OK/GD32VW55X_Wifi_BLE_SDK/GD32VW55x_RELEASE_V1.0.2/MSDK/lwip/lwip-2.1.2/src/core\mem.c ****     LWIP_ASSERT("mem_malloc(): no pool is that big!", 0);
 279:C:/Users/stapi/OneDrive/Desktop/GD32VW553/V1_MQTT_OK/GD32VW55X_Wifi_BLE_SDK/GD32VW55x_RELEASE_V1.0.2/MSDK/lwip/lwip-2.1.2/src/core\mem.c ****     MEM_STATS_INC_LOCKED(err);
 280:C:/Users/stapi/OneDrive/Desktop/GD32VW553/V1_MQTT_OK/GD32VW55X_Wifi_BLE_SDK/GD32VW55x_RELEASE_V1.0.2/MSDK/lwip/lwip-2.1.2/src/core\mem.c ****     return NULL;
 281:C:/Users/stapi/OneDrive/Desktop/GD32VW553/V1_MQTT_OK/GD32VW55X_Wifi_BLE_SDK/GD32VW55x_RELEASE_V1.0.2/MSDK/lwip/lwip-2.1.2/src/core\mem.c ****   }
 282:C:/Users/stapi/OneDrive/Desktop/GD32VW553/V1_MQTT_OK/GD32VW55X_Wifi_BLE_SDK/GD32VW55x_RELEASE_V1.0.2/MSDK/lwip/lwip-2.1.2/src/core\mem.c **** 
 283:C:/Users/stapi/OneDrive/Desktop/GD32VW553/V1_MQTT_OK/GD32VW55X_Wifi_BLE_SDK/GD32VW55x_RELEASE_V1.0.2/MSDK/lwip/lwip-2.1.2/src/core\mem.c ****   /* save the pool number this element came from */
 284:C:/Users/stapi/OneDrive/Desktop/GD32VW553/V1_MQTT_OK/GD32VW55X_Wifi_BLE_SDK/GD32VW55x_RELEASE_V1.0.2/MSDK/lwip/lwip-2.1.2/src/core\mem.c ****   element->poolnr = poolnr;
 285:C:/Users/stapi/OneDrive/Desktop/GD32VW553/V1_MQTT_OK/GD32VW55X_Wifi_BLE_SDK/GD32VW55x_RELEASE_V1.0.2/MSDK/lwip/lwip-2.1.2/src/core\mem.c ****   /* and return a pointer to the memory directly after the struct memp_malloc_helper */
 286:C:/Users/stapi/OneDrive/Desktop/GD32VW553/V1_MQTT_OK/GD32VW55X_Wifi_BLE_SDK/GD32VW55x_RELEASE_V1.0.2/MSDK/lwip/lwip-2.1.2/src/core\mem.c ****   ret = (u8_t *)element + LWIP_MEM_ALIGN_SIZE(sizeof(struct memp_malloc_helper));
 287:C:/Users/stapi/OneDrive/Desktop/GD32VW553/V1_MQTT_OK/GD32VW55X_Wifi_BLE_SDK/GD32VW55x_RELEASE_V1.0.2/MSDK/lwip/lwip-2.1.2/src/core\mem.c **** 
 288:C:/Users/stapi/OneDrive/Desktop/GD32VW553/V1_MQTT_OK/GD32VW55X_Wifi_BLE_SDK/GD32VW55x_RELEASE_V1.0.2/MSDK/lwip/lwip-2.1.2/src/core\mem.c **** #if MEMP_OVERFLOW_CHECK || (LWIP_STATS && MEM_STATS)
 289:C:/Users/stapi/OneDrive/Desktop/GD32VW553/V1_MQTT_OK/GD32VW55X_Wifi_BLE_SDK/GD32VW55x_RELEASE_V1.0.2/MSDK/lwip/lwip-2.1.2/src/core\mem.c ****   /* truncating to u16_t is safe because struct memp_desc::size is u16_t */
 290:C:/Users/stapi/OneDrive/Desktop/GD32VW553/V1_MQTT_OK/GD32VW55X_Wifi_BLE_SDK/GD32VW55x_RELEASE_V1.0.2/MSDK/lwip/lwip-2.1.2/src/core\mem.c ****   element->size = (u16_t)size;
 291:C:/Users/stapi/OneDrive/Desktop/GD32VW553/V1_MQTT_OK/GD32VW55X_Wifi_BLE_SDK/GD32VW55x_RELEASE_V1.0.2/MSDK/lwip/lwip-2.1.2/src/core\mem.c ****   MEM_STATS_INC_USED_LOCKED(used, element->size);
 292:C:/Users/stapi/OneDrive/Desktop/GD32VW553/V1_MQTT_OK/GD32VW55X_Wifi_BLE_SDK/GD32VW55x_RELEASE_V1.0.2/MSDK/lwip/lwip-2.1.2/src/core\mem.c **** #endif /* MEMP_OVERFLOW_CHECK || (LWIP_STATS && MEM_STATS) */
 293:C:/Users/stapi/OneDrive/Desktop/GD32VW553/V1_MQTT_OK/GD32VW55X_Wifi_BLE_SDK/GD32VW55x_RELEASE_V1.0.2/MSDK/lwip/lwip-2.1.2/src/core\mem.c **** #if MEMP_OVERFLOW_CHECK
 294:C:/Users/stapi/OneDrive/Desktop/GD32VW553/V1_MQTT_OK/GD32VW55X_Wifi_BLE_SDK/GD32VW55x_RELEASE_V1.0.2/MSDK/lwip/lwip-2.1.2/src/core\mem.c ****   /* initialize unused memory (diff between requested size and selected pool's size) */
 295:C:/Users/stapi/OneDrive/Desktop/GD32VW553/V1_MQTT_OK/GD32VW55X_Wifi_BLE_SDK/GD32VW55x_RELEASE_V1.0.2/MSDK/lwip/lwip-2.1.2/src/core\mem.c ****   memset((u8_t *)ret + size, 0xcd, memp_pools[poolnr]->size - size);
 296:C:/Users/stapi/OneDrive/Desktop/GD32VW553/V1_MQTT_OK/GD32VW55X_Wifi_BLE_SDK/GD32VW55x_RELEASE_V1.0.2/MSDK/lwip/lwip-2.1.2/src/core\mem.c **** #endif /* MEMP_OVERFLOW_CHECK */
 297:C:/Users/stapi/OneDrive/Desktop/GD32VW553/V1_MQTT_OK/GD32VW55X_Wifi_BLE_SDK/GD32VW55x_RELEASE_V1.0.2/MSDK/lwip/lwip-2.1.2/src/core\mem.c ****   return ret;
 298:C:/Users/stapi/OneDrive/Desktop/GD32VW553/V1_MQTT_OK/GD32VW55X_Wifi_BLE_SDK/GD32VW55x_RELEASE_V1.0.2/MSDK/lwip/lwip-2.1.2/src/core\mem.c **** }
 299:C:/Users/stapi/OneDrive/Desktop/GD32VW553/V1_MQTT_OK/GD32VW55X_Wifi_BLE_SDK/GD32VW55x_RELEASE_V1.0.2/MSDK/lwip/lwip-2.1.2/src/core\mem.c **** 
 300:C:/Users/stapi/OneDrive/Desktop/GD32VW553/V1_MQTT_OK/GD32VW55X_Wifi_BLE_SDK/GD32VW55x_RELEASE_V1.0.2/MSDK/lwip/lwip-2.1.2/src/core\mem.c **** /**
 301:C:/Users/stapi/OneDrive/Desktop/GD32VW553/V1_MQTT_OK/GD32VW55X_Wifi_BLE_SDK/GD32VW55x_RELEASE_V1.0.2/MSDK/lwip/lwip-2.1.2/src/core\mem.c ****  * Free memory previously allocated by mem_malloc. Loads the pool number
 302:C:/Users/stapi/OneDrive/Desktop/GD32VW553/V1_MQTT_OK/GD32VW55X_Wifi_BLE_SDK/GD32VW55x_RELEASE_V1.0.2/MSDK/lwip/lwip-2.1.2/src/core\mem.c ****  * and calls memp_free with that pool number to put the element back into
 303:C:/Users/stapi/OneDrive/Desktop/GD32VW553/V1_MQTT_OK/GD32VW55X_Wifi_BLE_SDK/GD32VW55x_RELEASE_V1.0.2/MSDK/lwip/lwip-2.1.2/src/core\mem.c ****  * its pool
 304:C:/Users/stapi/OneDrive/Desktop/GD32VW553/V1_MQTT_OK/GD32VW55X_Wifi_BLE_SDK/GD32VW55x_RELEASE_V1.0.2/MSDK/lwip/lwip-2.1.2/src/core\mem.c ****  *
 305:C:/Users/stapi/OneDrive/Desktop/GD32VW553/V1_MQTT_OK/GD32VW55X_Wifi_BLE_SDK/GD32VW55x_RELEASE_V1.0.2/MSDK/lwip/lwip-2.1.2/src/core\mem.c ****  * @param rmem the memory element to free
 306:C:/Users/stapi/OneDrive/Desktop/GD32VW553/V1_MQTT_OK/GD32VW55X_Wifi_BLE_SDK/GD32VW55x_RELEASE_V1.0.2/MSDK/lwip/lwip-2.1.2/src/core\mem.c ****  */
 307:C:/Users/stapi/OneDrive/Desktop/GD32VW553/V1_MQTT_OK/GD32VW55X_Wifi_BLE_SDK/GD32VW55x_RELEASE_V1.0.2/MSDK/lwip/lwip-2.1.2/src/core\mem.c **** void
 308:C:/Users/stapi/OneDrive/Desktop/GD32VW553/V1_MQTT_OK/GD32VW55X_Wifi_BLE_SDK/GD32VW55x_RELEASE_V1.0.2/MSDK/lwip/lwip-2.1.2/src/core\mem.c **** mem_free(void *rmem)
 309:C:/Users/stapi/OneDrive/Desktop/GD32VW553/V1_MQTT_OK/GD32VW55X_Wifi_BLE_SDK/GD32VW55x_RELEASE_V1.0.2/MSDK/lwip/lwip-2.1.2/src/core\mem.c **** {
 310:C:/Users/stapi/OneDrive/Desktop/GD32VW553/V1_MQTT_OK/GD32VW55X_Wifi_BLE_SDK/GD32VW55x_RELEASE_V1.0.2/MSDK/lwip/lwip-2.1.2/src/core\mem.c ****   struct memp_malloc_helper *hmem;
 311:C:/Users/stapi/OneDrive/Desktop/GD32VW553/V1_MQTT_OK/GD32VW55X_Wifi_BLE_SDK/GD32VW55x_RELEASE_V1.0.2/MSDK/lwip/lwip-2.1.2/src/core\mem.c **** 
 312:C:/Users/stapi/OneDrive/Desktop/GD32VW553/V1_MQTT_OK/GD32VW55X_Wifi_BLE_SDK/GD32VW55x_RELEASE_V1.0.2/MSDK/lwip/lwip-2.1.2/src/core\mem.c ****   LWIP_ASSERT("rmem != NULL", (rmem != NULL));
 313:C:/Users/stapi/OneDrive/Desktop/GD32VW553/V1_MQTT_OK/GD32VW55X_Wifi_BLE_SDK/GD32VW55x_RELEASE_V1.0.2/MSDK/lwip/lwip-2.1.2/src/core\mem.c ****   LWIP_ASSERT("rmem == MEM_ALIGN(rmem)", (rmem == LWIP_MEM_ALIGN(rmem)));
 314:C:/Users/stapi/OneDrive/Desktop/GD32VW553/V1_MQTT_OK/GD32VW55X_Wifi_BLE_SDK/GD32VW55x_RELEASE_V1.0.2/MSDK/lwip/lwip-2.1.2/src/core\mem.c **** 
 315:C:/Users/stapi/OneDrive/Desktop/GD32VW553/V1_MQTT_OK/GD32VW55X_Wifi_BLE_SDK/GD32VW55x_RELEASE_V1.0.2/MSDK/lwip/lwip-2.1.2/src/core\mem.c ****   /* get the original struct memp_malloc_helper */
 316:C:/Users/stapi/OneDrive/Desktop/GD32VW553/V1_MQTT_OK/GD32VW55X_Wifi_BLE_SDK/GD32VW55x_RELEASE_V1.0.2/MSDK/lwip/lwip-2.1.2/src/core\mem.c ****   /* cast through void* to get rid of alignment warnings */
 317:C:/Users/stapi/OneDrive/Desktop/GD32VW553/V1_MQTT_OK/GD32VW55X_Wifi_BLE_SDK/GD32VW55x_RELEASE_V1.0.2/MSDK/lwip/lwip-2.1.2/src/core\mem.c ****   hmem = (struct memp_malloc_helper *)(void *)((u8_t *)rmem - LWIP_MEM_ALIGN_SIZE(sizeof(struct mem
 318:C:/Users/stapi/OneDrive/Desktop/GD32VW553/V1_MQTT_OK/GD32VW55X_Wifi_BLE_SDK/GD32VW55x_RELEASE_V1.0.2/MSDK/lwip/lwip-2.1.2/src/core\mem.c **** 
 319:C:/Users/stapi/OneDrive/Desktop/GD32VW553/V1_MQTT_OK/GD32VW55X_Wifi_BLE_SDK/GD32VW55x_RELEASE_V1.0.2/MSDK/lwip/lwip-2.1.2/src/core\mem.c ****   LWIP_ASSERT("hmem != NULL", (hmem != NULL));
 320:C:/Users/stapi/OneDrive/Desktop/GD32VW553/V1_MQTT_OK/GD32VW55X_Wifi_BLE_SDK/GD32VW55x_RELEASE_V1.0.2/MSDK/lwip/lwip-2.1.2/src/core\mem.c ****   LWIP_ASSERT("hmem == MEM_ALIGN(hmem)", (hmem == LWIP_MEM_ALIGN(hmem)));
 321:C:/Users/stapi/OneDrive/Desktop/GD32VW553/V1_MQTT_OK/GD32VW55X_Wifi_BLE_SDK/GD32VW55x_RELEASE_V1.0.2/MSDK/lwip/lwip-2.1.2/src/core\mem.c ****   LWIP_ASSERT("hmem->poolnr < MEMP_MAX", (hmem->poolnr < MEMP_MAX));
 322:C:/Users/stapi/OneDrive/Desktop/GD32VW553/V1_MQTT_OK/GD32VW55X_Wifi_BLE_SDK/GD32VW55x_RELEASE_V1.0.2/MSDK/lwip/lwip-2.1.2/src/core\mem.c **** 
 323:C:/Users/stapi/OneDrive/Desktop/GD32VW553/V1_MQTT_OK/GD32VW55X_Wifi_BLE_SDK/GD32VW55x_RELEASE_V1.0.2/MSDK/lwip/lwip-2.1.2/src/core\mem.c ****   MEM_STATS_DEC_USED_LOCKED(used, hmem->size);
 324:C:/Users/stapi/OneDrive/Desktop/GD32VW553/V1_MQTT_OK/GD32VW55X_Wifi_BLE_SDK/GD32VW55x_RELEASE_V1.0.2/MSDK/lwip/lwip-2.1.2/src/core\mem.c **** #if MEMP_OVERFLOW_CHECK
 325:C:/Users/stapi/OneDrive/Desktop/GD32VW553/V1_MQTT_OK/GD32VW55X_Wifi_BLE_SDK/GD32VW55x_RELEASE_V1.0.2/MSDK/lwip/lwip-2.1.2/src/core\mem.c ****   {
 326:C:/Users/stapi/OneDrive/Desktop/GD32VW553/V1_MQTT_OK/GD32VW55X_Wifi_BLE_SDK/GD32VW55x_RELEASE_V1.0.2/MSDK/lwip/lwip-2.1.2/src/core\mem.c ****     u16_t i;
 327:C:/Users/stapi/OneDrive/Desktop/GD32VW553/V1_MQTT_OK/GD32VW55X_Wifi_BLE_SDK/GD32VW55x_RELEASE_V1.0.2/MSDK/lwip/lwip-2.1.2/src/core\mem.c ****     LWIP_ASSERT("MEM_USE_POOLS: invalid chunk size",
 328:C:/Users/stapi/OneDrive/Desktop/GD32VW553/V1_MQTT_OK/GD32VW55X_Wifi_BLE_SDK/GD32VW55x_RELEASE_V1.0.2/MSDK/lwip/lwip-2.1.2/src/core\mem.c ****                 hmem->size <= memp_pools[hmem->poolnr]->size);
 329:C:/Users/stapi/OneDrive/Desktop/GD32VW553/V1_MQTT_OK/GD32VW55X_Wifi_BLE_SDK/GD32VW55x_RELEASE_V1.0.2/MSDK/lwip/lwip-2.1.2/src/core\mem.c ****     /* check that unused memory remained untouched (diff between requested size and selected pool's
 330:C:/Users/stapi/OneDrive/Desktop/GD32VW553/V1_MQTT_OK/GD32VW55X_Wifi_BLE_SDK/GD32VW55x_RELEASE_V1.0.2/MSDK/lwip/lwip-2.1.2/src/core\mem.c ****     for (i = hmem->size; i < memp_pools[hmem->poolnr]->size; i++) {
 331:C:/Users/stapi/OneDrive/Desktop/GD32VW553/V1_MQTT_OK/GD32VW55X_Wifi_BLE_SDK/GD32VW55x_RELEASE_V1.0.2/MSDK/lwip/lwip-2.1.2/src/core\mem.c ****       u8_t data = *((u8_t *)rmem + i);
 332:C:/Users/stapi/OneDrive/Desktop/GD32VW553/V1_MQTT_OK/GD32VW55X_Wifi_BLE_SDK/GD32VW55x_RELEASE_V1.0.2/MSDK/lwip/lwip-2.1.2/src/core\mem.c ****       LWIP_ASSERT("MEM_USE_POOLS: mem overflow detected", data == 0xcd);
 333:C:/Users/stapi/OneDrive/Desktop/GD32VW553/V1_MQTT_OK/GD32VW55X_Wifi_BLE_SDK/GD32VW55x_RELEASE_V1.0.2/MSDK/lwip/lwip-2.1.2/src/core\mem.c ****     }
 334:C:/Users/stapi/OneDrive/Desktop/GD32VW553/V1_MQTT_OK/GD32VW55X_Wifi_BLE_SDK/GD32VW55x_RELEASE_V1.0.2/MSDK/lwip/lwip-2.1.2/src/core\mem.c ****   }
 335:C:/Users/stapi/OneDrive/Desktop/GD32VW553/V1_MQTT_OK/GD32VW55X_Wifi_BLE_SDK/GD32VW55x_RELEASE_V1.0.2/MSDK/lwip/lwip-2.1.2/src/core\mem.c **** #endif /* MEMP_OVERFLOW_CHECK */
 336:C:/Users/stapi/OneDrive/Desktop/GD32VW553/V1_MQTT_OK/GD32VW55X_Wifi_BLE_SDK/GD32VW55x_RELEASE_V1.0.2/MSDK/lwip/lwip-2.1.2/src/core\mem.c **** 
 337:C:/Users/stapi/OneDrive/Desktop/GD32VW553/V1_MQTT_OK/GD32VW55X_Wifi_BLE_SDK/GD32VW55x_RELEASE_V1.0.2/MSDK/lwip/lwip-2.1.2/src/core\mem.c ****   /* and put it in the pool we saved earlier */
 338:C:/Users/stapi/OneDrive/Desktop/GD32VW553/V1_MQTT_OK/GD32VW55X_Wifi_BLE_SDK/GD32VW55x_RELEASE_V1.0.2/MSDK/lwip/lwip-2.1.2/src/core\mem.c ****   memp_free(hmem->poolnr, hmem);
 339:C:/Users/stapi/OneDrive/Desktop/GD32VW553/V1_MQTT_OK/GD32VW55X_Wifi_BLE_SDK/GD32VW55x_RELEASE_V1.0.2/MSDK/lwip/lwip-2.1.2/src/core\mem.c **** }
 340:C:/Users/stapi/OneDrive/Desktop/GD32VW553/V1_MQTT_OK/GD32VW55X_Wifi_BLE_SDK/GD32VW55x_RELEASE_V1.0.2/MSDK/lwip/lwip-2.1.2/src/core\mem.c **** 
 341:C:/Users/stapi/OneDrive/Desktop/GD32VW553/V1_MQTT_OK/GD32VW55X_Wifi_BLE_SDK/GD32VW55x_RELEASE_V1.0.2/MSDK/lwip/lwip-2.1.2/src/core\mem.c **** #else /* MEM_USE_POOLS */
 342:C:/Users/stapi/OneDrive/Desktop/GD32VW553/V1_MQTT_OK/GD32VW55X_Wifi_BLE_SDK/GD32VW55x_RELEASE_V1.0.2/MSDK/lwip/lwip-2.1.2/src/core\mem.c **** /* lwIP replacement for your libc malloc() */
 343:C:/Users/stapi/OneDrive/Desktop/GD32VW553/V1_MQTT_OK/GD32VW55X_Wifi_BLE_SDK/GD32VW55x_RELEASE_V1.0.2/MSDK/lwip/lwip-2.1.2/src/core\mem.c **** 
 344:C:/Users/stapi/OneDrive/Desktop/GD32VW553/V1_MQTT_OK/GD32VW55X_Wifi_BLE_SDK/GD32VW55x_RELEASE_V1.0.2/MSDK/lwip/lwip-2.1.2/src/core\mem.c **** /**
 345:C:/Users/stapi/OneDrive/Desktop/GD32VW553/V1_MQTT_OK/GD32VW55X_Wifi_BLE_SDK/GD32VW55x_RELEASE_V1.0.2/MSDK/lwip/lwip-2.1.2/src/core\mem.c ****  * The heap is made up as a list of structs of this type.
 346:C:/Users/stapi/OneDrive/Desktop/GD32VW553/V1_MQTT_OK/GD32VW55X_Wifi_BLE_SDK/GD32VW55x_RELEASE_V1.0.2/MSDK/lwip/lwip-2.1.2/src/core\mem.c ****  * This does not have to be aligned since for getting its size,
 347:C:/Users/stapi/OneDrive/Desktop/GD32VW553/V1_MQTT_OK/GD32VW55X_Wifi_BLE_SDK/GD32VW55x_RELEASE_V1.0.2/MSDK/lwip/lwip-2.1.2/src/core\mem.c ****  * we only use the macro SIZEOF_STRUCT_MEM, which automatically aligns.
 348:C:/Users/stapi/OneDrive/Desktop/GD32VW553/V1_MQTT_OK/GD32VW55X_Wifi_BLE_SDK/GD32VW55x_RELEASE_V1.0.2/MSDK/lwip/lwip-2.1.2/src/core\mem.c ****  */
 349:C:/Users/stapi/OneDrive/Desktop/GD32VW553/V1_MQTT_OK/GD32VW55X_Wifi_BLE_SDK/GD32VW55x_RELEASE_V1.0.2/MSDK/lwip/lwip-2.1.2/src/core\mem.c **** struct mem {
 350:C:/Users/stapi/OneDrive/Desktop/GD32VW553/V1_MQTT_OK/GD32VW55X_Wifi_BLE_SDK/GD32VW55x_RELEASE_V1.0.2/MSDK/lwip/lwip-2.1.2/src/core\mem.c ****   /** index (-> ram[next]) of the next struct */
 351:C:/Users/stapi/OneDrive/Desktop/GD32VW553/V1_MQTT_OK/GD32VW55X_Wifi_BLE_SDK/GD32VW55x_RELEASE_V1.0.2/MSDK/lwip/lwip-2.1.2/src/core\mem.c ****   mem_size_t next;
 352:C:/Users/stapi/OneDrive/Desktop/GD32VW553/V1_MQTT_OK/GD32VW55X_Wifi_BLE_SDK/GD32VW55x_RELEASE_V1.0.2/MSDK/lwip/lwip-2.1.2/src/core\mem.c ****   /** index (-> ram[prev]) of the previous struct */
 353:C:/Users/stapi/OneDrive/Desktop/GD32VW553/V1_MQTT_OK/GD32VW55X_Wifi_BLE_SDK/GD32VW55x_RELEASE_V1.0.2/MSDK/lwip/lwip-2.1.2/src/core\mem.c ****   mem_size_t prev;
 354:C:/Users/stapi/OneDrive/Desktop/GD32VW553/V1_MQTT_OK/GD32VW55X_Wifi_BLE_SDK/GD32VW55x_RELEASE_V1.0.2/MSDK/lwip/lwip-2.1.2/src/core\mem.c ****   /** 1: this area is used; 0: this area is unused */
 355:C:/Users/stapi/OneDrive/Desktop/GD32VW553/V1_MQTT_OK/GD32VW55X_Wifi_BLE_SDK/GD32VW55x_RELEASE_V1.0.2/MSDK/lwip/lwip-2.1.2/src/core\mem.c ****   u8_t used;
 356:C:/Users/stapi/OneDrive/Desktop/GD32VW553/V1_MQTT_OK/GD32VW55X_Wifi_BLE_SDK/GD32VW55x_RELEASE_V1.0.2/MSDK/lwip/lwip-2.1.2/src/core\mem.c **** #if MEM_OVERFLOW_CHECK
 357:C:/Users/stapi/OneDrive/Desktop/GD32VW553/V1_MQTT_OK/GD32VW55X_Wifi_BLE_SDK/GD32VW55x_RELEASE_V1.0.2/MSDK/lwip/lwip-2.1.2/src/core\mem.c ****   /** this keeps track of the user allocation size for guard checks */
 358:C:/Users/stapi/OneDrive/Desktop/GD32VW553/V1_MQTT_OK/GD32VW55X_Wifi_BLE_SDK/GD32VW55x_RELEASE_V1.0.2/MSDK/lwip/lwip-2.1.2/src/core\mem.c ****   mem_size_t user_size;
 359:C:/Users/stapi/OneDrive/Desktop/GD32VW553/V1_MQTT_OK/GD32VW55X_Wifi_BLE_SDK/GD32VW55x_RELEASE_V1.0.2/MSDK/lwip/lwip-2.1.2/src/core\mem.c **** #endif
 360:C:/Users/stapi/OneDrive/Desktop/GD32VW553/V1_MQTT_OK/GD32VW55X_Wifi_BLE_SDK/GD32VW55x_RELEASE_V1.0.2/MSDK/lwip/lwip-2.1.2/src/core\mem.c **** };
 361:C:/Users/stapi/OneDrive/Desktop/GD32VW553/V1_MQTT_OK/GD32VW55X_Wifi_BLE_SDK/GD32VW55x_RELEASE_V1.0.2/MSDK/lwip/lwip-2.1.2/src/core\mem.c **** 
 362:C:/Users/stapi/OneDrive/Desktop/GD32VW553/V1_MQTT_OK/GD32VW55X_Wifi_BLE_SDK/GD32VW55x_RELEASE_V1.0.2/MSDK/lwip/lwip-2.1.2/src/core\mem.c **** /** All allocated blocks will be MIN_SIZE bytes big, at least!
 363:C:/Users/stapi/OneDrive/Desktop/GD32VW553/V1_MQTT_OK/GD32VW55X_Wifi_BLE_SDK/GD32VW55x_RELEASE_V1.0.2/MSDK/lwip/lwip-2.1.2/src/core\mem.c ****  * MIN_SIZE can be overridden to suit your needs. Smaller values save space,
 364:C:/Users/stapi/OneDrive/Desktop/GD32VW553/V1_MQTT_OK/GD32VW55X_Wifi_BLE_SDK/GD32VW55x_RELEASE_V1.0.2/MSDK/lwip/lwip-2.1.2/src/core\mem.c ****  * larger values could prevent too small blocks to fragment the RAM too much. */
 365:C:/Users/stapi/OneDrive/Desktop/GD32VW553/V1_MQTT_OK/GD32VW55X_Wifi_BLE_SDK/GD32VW55x_RELEASE_V1.0.2/MSDK/lwip/lwip-2.1.2/src/core\mem.c **** #ifndef MIN_SIZE
 366:C:/Users/stapi/OneDrive/Desktop/GD32VW553/V1_MQTT_OK/GD32VW55X_Wifi_BLE_SDK/GD32VW55x_RELEASE_V1.0.2/MSDK/lwip/lwip-2.1.2/src/core\mem.c **** #define MIN_SIZE             12
 367:C:/Users/stapi/OneDrive/Desktop/GD32VW553/V1_MQTT_OK/GD32VW55X_Wifi_BLE_SDK/GD32VW55x_RELEASE_V1.0.2/MSDK/lwip/lwip-2.1.2/src/core\mem.c **** #endif /* MIN_SIZE */
 368:C:/Users/stapi/OneDrive/Desktop/GD32VW553/V1_MQTT_OK/GD32VW55X_Wifi_BLE_SDK/GD32VW55x_RELEASE_V1.0.2/MSDK/lwip/lwip-2.1.2/src/core\mem.c **** /* some alignment macros: we define them here for better source code layout */
 369:C:/Users/stapi/OneDrive/Desktop/GD32VW553/V1_MQTT_OK/GD32VW55X_Wifi_BLE_SDK/GD32VW55x_RELEASE_V1.0.2/MSDK/lwip/lwip-2.1.2/src/core\mem.c **** #define MIN_SIZE_ALIGNED     LWIP_MEM_ALIGN_SIZE(MIN_SIZE)
 370:C:/Users/stapi/OneDrive/Desktop/GD32VW553/V1_MQTT_OK/GD32VW55X_Wifi_BLE_SDK/GD32VW55x_RELEASE_V1.0.2/MSDK/lwip/lwip-2.1.2/src/core\mem.c **** #define SIZEOF_STRUCT_MEM    LWIP_MEM_ALIGN_SIZE(sizeof(struct mem))
 371:C:/Users/stapi/OneDrive/Desktop/GD32VW553/V1_MQTT_OK/GD32VW55X_Wifi_BLE_SDK/GD32VW55x_RELEASE_V1.0.2/MSDK/lwip/lwip-2.1.2/src/core\mem.c **** #define MEM_SIZE_ALIGNED     LWIP_MEM_ALIGN_SIZE(MEM_SIZE)
 372:C:/Users/stapi/OneDrive/Desktop/GD32VW553/V1_MQTT_OK/GD32VW55X_Wifi_BLE_SDK/GD32VW55x_RELEASE_V1.0.2/MSDK/lwip/lwip-2.1.2/src/core\mem.c **** 
 373:C:/Users/stapi/OneDrive/Desktop/GD32VW553/V1_MQTT_OK/GD32VW55X_Wifi_BLE_SDK/GD32VW55x_RELEASE_V1.0.2/MSDK/lwip/lwip-2.1.2/src/core\mem.c **** /** If you want to relocate the heap to external memory, simply define
 374:C:/Users/stapi/OneDrive/Desktop/GD32VW553/V1_MQTT_OK/GD32VW55X_Wifi_BLE_SDK/GD32VW55x_RELEASE_V1.0.2/MSDK/lwip/lwip-2.1.2/src/core\mem.c ****  * LWIP_RAM_HEAP_POINTER as a void-pointer to that location.
 375:C:/Users/stapi/OneDrive/Desktop/GD32VW553/V1_MQTT_OK/GD32VW55X_Wifi_BLE_SDK/GD32VW55x_RELEASE_V1.0.2/MSDK/lwip/lwip-2.1.2/src/core\mem.c ****  * If so, make sure the memory at that location is big enough (see below on
 376:C:/Users/stapi/OneDrive/Desktop/GD32VW553/V1_MQTT_OK/GD32VW55X_Wifi_BLE_SDK/GD32VW55x_RELEASE_V1.0.2/MSDK/lwip/lwip-2.1.2/src/core\mem.c ****  * how that space is calculated). */
 377:C:/Users/stapi/OneDrive/Desktop/GD32VW553/V1_MQTT_OK/GD32VW55X_Wifi_BLE_SDK/GD32VW55x_RELEASE_V1.0.2/MSDK/lwip/lwip-2.1.2/src/core\mem.c **** #ifndef LWIP_RAM_HEAP_POINTER
 378:C:/Users/stapi/OneDrive/Desktop/GD32VW553/V1_MQTT_OK/GD32VW55X_Wifi_BLE_SDK/GD32VW55x_RELEASE_V1.0.2/MSDK/lwip/lwip-2.1.2/src/core\mem.c **** /** the heap. we need one struct mem at the end and some room for alignment */
 379:C:/Users/stapi/OneDrive/Desktop/GD32VW553/V1_MQTT_OK/GD32VW55X_Wifi_BLE_SDK/GD32VW55x_RELEASE_V1.0.2/MSDK/lwip/lwip-2.1.2/src/core\mem.c **** LWIP_DECLARE_MEMORY_ALIGNED(ram_heap, MEM_SIZE_ALIGNED + (2U * SIZEOF_STRUCT_MEM));
 380:C:/Users/stapi/OneDrive/Desktop/GD32VW553/V1_MQTT_OK/GD32VW55X_Wifi_BLE_SDK/GD32VW55x_RELEASE_V1.0.2/MSDK/lwip/lwip-2.1.2/src/core\mem.c **** #define LWIP_RAM_HEAP_POINTER ram_heap
 381:C:/Users/stapi/OneDrive/Desktop/GD32VW553/V1_MQTT_OK/GD32VW55X_Wifi_BLE_SDK/GD32VW55x_RELEASE_V1.0.2/MSDK/lwip/lwip-2.1.2/src/core\mem.c **** #endif /* LWIP_RAM_HEAP_POINTER */
 382:C:/Users/stapi/OneDrive/Desktop/GD32VW553/V1_MQTT_OK/GD32VW55X_Wifi_BLE_SDK/GD32VW55x_RELEASE_V1.0.2/MSDK/lwip/lwip-2.1.2/src/core\mem.c **** 
 383:C:/Users/stapi/OneDrive/Desktop/GD32VW553/V1_MQTT_OK/GD32VW55X_Wifi_BLE_SDK/GD32VW55x_RELEASE_V1.0.2/MSDK/lwip/lwip-2.1.2/src/core\mem.c **** /** pointer to the heap (ram_heap): for alignment, ram is now a pointer instead of an array */
 384:C:/Users/stapi/OneDrive/Desktop/GD32VW553/V1_MQTT_OK/GD32VW55X_Wifi_BLE_SDK/GD32VW55x_RELEASE_V1.0.2/MSDK/lwip/lwip-2.1.2/src/core\mem.c **** static u8_t *ram;
 385:C:/Users/stapi/OneDrive/Desktop/GD32VW553/V1_MQTT_OK/GD32VW55X_Wifi_BLE_SDK/GD32VW55x_RELEASE_V1.0.2/MSDK/lwip/lwip-2.1.2/src/core\mem.c **** /** the last entry, always unused! */
 386:C:/Users/stapi/OneDrive/Desktop/GD32VW553/V1_MQTT_OK/GD32VW55X_Wifi_BLE_SDK/GD32VW55x_RELEASE_V1.0.2/MSDK/lwip/lwip-2.1.2/src/core\mem.c **** static struct mem *ram_end;
 387:C:/Users/stapi/OneDrive/Desktop/GD32VW553/V1_MQTT_OK/GD32VW55X_Wifi_BLE_SDK/GD32VW55x_RELEASE_V1.0.2/MSDK/lwip/lwip-2.1.2/src/core\mem.c **** 
 388:C:/Users/stapi/OneDrive/Desktop/GD32VW553/V1_MQTT_OK/GD32VW55X_Wifi_BLE_SDK/GD32VW55x_RELEASE_V1.0.2/MSDK/lwip/lwip-2.1.2/src/core\mem.c **** /** concurrent access protection */
 389:C:/Users/stapi/OneDrive/Desktop/GD32VW553/V1_MQTT_OK/GD32VW55X_Wifi_BLE_SDK/GD32VW55x_RELEASE_V1.0.2/MSDK/lwip/lwip-2.1.2/src/core\mem.c **** #if !NO_SYS
 390:C:/Users/stapi/OneDrive/Desktop/GD32VW553/V1_MQTT_OK/GD32VW55X_Wifi_BLE_SDK/GD32VW55x_RELEASE_V1.0.2/MSDK/lwip/lwip-2.1.2/src/core\mem.c **** static sys_mutex_t mem_mutex;
 391:C:/Users/stapi/OneDrive/Desktop/GD32VW553/V1_MQTT_OK/GD32VW55X_Wifi_BLE_SDK/GD32VW55x_RELEASE_V1.0.2/MSDK/lwip/lwip-2.1.2/src/core\mem.c **** #endif
 392:C:/Users/stapi/OneDrive/Desktop/GD32VW553/V1_MQTT_OK/GD32VW55X_Wifi_BLE_SDK/GD32VW55x_RELEASE_V1.0.2/MSDK/lwip/lwip-2.1.2/src/core\mem.c **** 
 393:C:/Users/stapi/OneDrive/Desktop/GD32VW553/V1_MQTT_OK/GD32VW55X_Wifi_BLE_SDK/GD32VW55x_RELEASE_V1.0.2/MSDK/lwip/lwip-2.1.2/src/core\mem.c **** #if LWIP_ALLOW_MEM_FREE_FROM_OTHER_CONTEXT
 394:C:/Users/stapi/OneDrive/Desktop/GD32VW553/V1_MQTT_OK/GD32VW55X_Wifi_BLE_SDK/GD32VW55x_RELEASE_V1.0.2/MSDK/lwip/lwip-2.1.2/src/core\mem.c **** 
 395:C:/Users/stapi/OneDrive/Desktop/GD32VW553/V1_MQTT_OK/GD32VW55X_Wifi_BLE_SDK/GD32VW55x_RELEASE_V1.0.2/MSDK/lwip/lwip-2.1.2/src/core\mem.c **** static volatile u8_t mem_free_count;
 396:C:/Users/stapi/OneDrive/Desktop/GD32VW553/V1_MQTT_OK/GD32VW55X_Wifi_BLE_SDK/GD32VW55x_RELEASE_V1.0.2/MSDK/lwip/lwip-2.1.2/src/core\mem.c **** 
 397:C:/Users/stapi/OneDrive/Desktop/GD32VW553/V1_MQTT_OK/GD32VW55X_Wifi_BLE_SDK/GD32VW55x_RELEASE_V1.0.2/MSDK/lwip/lwip-2.1.2/src/core\mem.c **** /* Allow mem_free from other (e.g. interrupt) context */
 398:C:/Users/stapi/OneDrive/Desktop/GD32VW553/V1_MQTT_OK/GD32VW55X_Wifi_BLE_SDK/GD32VW55x_RELEASE_V1.0.2/MSDK/lwip/lwip-2.1.2/src/core\mem.c **** #define LWIP_MEM_FREE_DECL_PROTECT()  SYS_ARCH_DECL_PROTECT(lev_free)
 399:C:/Users/stapi/OneDrive/Desktop/GD32VW553/V1_MQTT_OK/GD32VW55X_Wifi_BLE_SDK/GD32VW55x_RELEASE_V1.0.2/MSDK/lwip/lwip-2.1.2/src/core\mem.c **** #define LWIP_MEM_FREE_PROTECT()       SYS_ARCH_PROTECT(lev_free)
 400:C:/Users/stapi/OneDrive/Desktop/GD32VW553/V1_MQTT_OK/GD32VW55X_Wifi_BLE_SDK/GD32VW55x_RELEASE_V1.0.2/MSDK/lwip/lwip-2.1.2/src/core\mem.c **** #define LWIP_MEM_FREE_UNPROTECT()     SYS_ARCH_UNPROTECT(lev_free)
 401:C:/Users/stapi/OneDrive/Desktop/GD32VW553/V1_MQTT_OK/GD32VW55X_Wifi_BLE_SDK/GD32VW55x_RELEASE_V1.0.2/MSDK/lwip/lwip-2.1.2/src/core\mem.c **** #define LWIP_MEM_ALLOC_DECL_PROTECT() SYS_ARCH_DECL_PROTECT(lev_alloc)
 402:C:/Users/stapi/OneDrive/Desktop/GD32VW553/V1_MQTT_OK/GD32VW55X_Wifi_BLE_SDK/GD32VW55x_RELEASE_V1.0.2/MSDK/lwip/lwip-2.1.2/src/core\mem.c **** #define LWIP_MEM_ALLOC_PROTECT()      SYS_ARCH_PROTECT(lev_alloc)
 403:C:/Users/stapi/OneDrive/Desktop/GD32VW553/V1_MQTT_OK/GD32VW55X_Wifi_BLE_SDK/GD32VW55x_RELEASE_V1.0.2/MSDK/lwip/lwip-2.1.2/src/core\mem.c **** #define LWIP_MEM_ALLOC_UNPROTECT()    SYS_ARCH_UNPROTECT(lev_alloc)
 404:C:/Users/stapi/OneDrive/Desktop/GD32VW553/V1_MQTT_OK/GD32VW55X_Wifi_BLE_SDK/GD32VW55x_RELEASE_V1.0.2/MSDK/lwip/lwip-2.1.2/src/core\mem.c **** #define LWIP_MEM_LFREE_VOLATILE       volatile
 405:C:/Users/stapi/OneDrive/Desktop/GD32VW553/V1_MQTT_OK/GD32VW55X_Wifi_BLE_SDK/GD32VW55x_RELEASE_V1.0.2/MSDK/lwip/lwip-2.1.2/src/core\mem.c **** 
 406:C:/Users/stapi/OneDrive/Desktop/GD32VW553/V1_MQTT_OK/GD32VW55X_Wifi_BLE_SDK/GD32VW55x_RELEASE_V1.0.2/MSDK/lwip/lwip-2.1.2/src/core\mem.c **** #else /* LWIP_ALLOW_MEM_FREE_FROM_OTHER_CONTEXT */
 407:C:/Users/stapi/OneDrive/Desktop/GD32VW553/V1_MQTT_OK/GD32VW55X_Wifi_BLE_SDK/GD32VW55x_RELEASE_V1.0.2/MSDK/lwip/lwip-2.1.2/src/core\mem.c **** 
 408:C:/Users/stapi/OneDrive/Desktop/GD32VW553/V1_MQTT_OK/GD32VW55X_Wifi_BLE_SDK/GD32VW55x_RELEASE_V1.0.2/MSDK/lwip/lwip-2.1.2/src/core\mem.c **** /* Protect the heap only by using a mutex */
 409:C:/Users/stapi/OneDrive/Desktop/GD32VW553/V1_MQTT_OK/GD32VW55X_Wifi_BLE_SDK/GD32VW55x_RELEASE_V1.0.2/MSDK/lwip/lwip-2.1.2/src/core\mem.c **** #define LWIP_MEM_FREE_DECL_PROTECT()
 410:C:/Users/stapi/OneDrive/Desktop/GD32VW553/V1_MQTT_OK/GD32VW55X_Wifi_BLE_SDK/GD32VW55x_RELEASE_V1.0.2/MSDK/lwip/lwip-2.1.2/src/core\mem.c **** #define LWIP_MEM_FREE_PROTECT()    sys_mutex_lock(&mem_mutex)
 411:C:/Users/stapi/OneDrive/Desktop/GD32VW553/V1_MQTT_OK/GD32VW55X_Wifi_BLE_SDK/GD32VW55x_RELEASE_V1.0.2/MSDK/lwip/lwip-2.1.2/src/core\mem.c **** #define LWIP_MEM_FREE_UNPROTECT()  sys_mutex_unlock(&mem_mutex)
 412:C:/Users/stapi/OneDrive/Desktop/GD32VW553/V1_MQTT_OK/GD32VW55X_Wifi_BLE_SDK/GD32VW55x_RELEASE_V1.0.2/MSDK/lwip/lwip-2.1.2/src/core\mem.c **** /* mem_malloc is protected using mutex AND LWIP_MEM_ALLOC_PROTECT */
 413:C:/Users/stapi/OneDrive/Desktop/GD32VW553/V1_MQTT_OK/GD32VW55X_Wifi_BLE_SDK/GD32VW55x_RELEASE_V1.0.2/MSDK/lwip/lwip-2.1.2/src/core\mem.c **** #define LWIP_MEM_ALLOC_DECL_PROTECT()
 414:C:/Users/stapi/OneDrive/Desktop/GD32VW553/V1_MQTT_OK/GD32VW55X_Wifi_BLE_SDK/GD32VW55x_RELEASE_V1.0.2/MSDK/lwip/lwip-2.1.2/src/core\mem.c **** #define LWIP_MEM_ALLOC_PROTECT()
 415:C:/Users/stapi/OneDrive/Desktop/GD32VW553/V1_MQTT_OK/GD32VW55X_Wifi_BLE_SDK/GD32VW55x_RELEASE_V1.0.2/MSDK/lwip/lwip-2.1.2/src/core\mem.c **** #define LWIP_MEM_ALLOC_UNPROTECT()
 416:C:/Users/stapi/OneDrive/Desktop/GD32VW553/V1_MQTT_OK/GD32VW55X_Wifi_BLE_SDK/GD32VW55x_RELEASE_V1.0.2/MSDK/lwip/lwip-2.1.2/src/core\mem.c **** #define LWIP_MEM_LFREE_VOLATILE
 417:C:/Users/stapi/OneDrive/Desktop/GD32VW553/V1_MQTT_OK/GD32VW55X_Wifi_BLE_SDK/GD32VW55x_RELEASE_V1.0.2/MSDK/lwip/lwip-2.1.2/src/core\mem.c **** 
 418:C:/Users/stapi/OneDrive/Desktop/GD32VW553/V1_MQTT_OK/GD32VW55X_Wifi_BLE_SDK/GD32VW55x_RELEASE_V1.0.2/MSDK/lwip/lwip-2.1.2/src/core\mem.c **** #endif /* LWIP_ALLOW_MEM_FREE_FROM_OTHER_CONTEXT */
 419:C:/Users/stapi/OneDrive/Desktop/GD32VW553/V1_MQTT_OK/GD32VW55X_Wifi_BLE_SDK/GD32VW55x_RELEASE_V1.0.2/MSDK/lwip/lwip-2.1.2/src/core\mem.c **** 
 420:C:/Users/stapi/OneDrive/Desktop/GD32VW553/V1_MQTT_OK/GD32VW55X_Wifi_BLE_SDK/GD32VW55x_RELEASE_V1.0.2/MSDK/lwip/lwip-2.1.2/src/core\mem.c **** /** pointer to the lowest free block, this is used for faster search */
 421:C:/Users/stapi/OneDrive/Desktop/GD32VW553/V1_MQTT_OK/GD32VW55X_Wifi_BLE_SDK/GD32VW55x_RELEASE_V1.0.2/MSDK/lwip/lwip-2.1.2/src/core\mem.c **** static struct mem * LWIP_MEM_LFREE_VOLATILE lfree;
 422:C:/Users/stapi/OneDrive/Desktop/GD32VW553/V1_MQTT_OK/GD32VW55X_Wifi_BLE_SDK/GD32VW55x_RELEASE_V1.0.2/MSDK/lwip/lwip-2.1.2/src/core\mem.c **** 
 423:C:/Users/stapi/OneDrive/Desktop/GD32VW553/V1_MQTT_OK/GD32VW55X_Wifi_BLE_SDK/GD32VW55x_RELEASE_V1.0.2/MSDK/lwip/lwip-2.1.2/src/core\mem.c **** #if MEM_SANITY_CHECK
 424:C:/Users/stapi/OneDrive/Desktop/GD32VW553/V1_MQTT_OK/GD32VW55X_Wifi_BLE_SDK/GD32VW55x_RELEASE_V1.0.2/MSDK/lwip/lwip-2.1.2/src/core\mem.c **** static void mem_sanity(void);
 425:C:/Users/stapi/OneDrive/Desktop/GD32VW553/V1_MQTT_OK/GD32VW55X_Wifi_BLE_SDK/GD32VW55x_RELEASE_V1.0.2/MSDK/lwip/lwip-2.1.2/src/core\mem.c **** #define MEM_SANITY() mem_sanity()
 426:C:/Users/stapi/OneDrive/Desktop/GD32VW553/V1_MQTT_OK/GD32VW55X_Wifi_BLE_SDK/GD32VW55x_RELEASE_V1.0.2/MSDK/lwip/lwip-2.1.2/src/core\mem.c **** #else
 427:C:/Users/stapi/OneDrive/Desktop/GD32VW553/V1_MQTT_OK/GD32VW55X_Wifi_BLE_SDK/GD32VW55x_RELEASE_V1.0.2/MSDK/lwip/lwip-2.1.2/src/core\mem.c **** #define MEM_SANITY()
 428:C:/Users/stapi/OneDrive/Desktop/GD32VW553/V1_MQTT_OK/GD32VW55X_Wifi_BLE_SDK/GD32VW55x_RELEASE_V1.0.2/MSDK/lwip/lwip-2.1.2/src/core\mem.c **** #endif
 429:C:/Users/stapi/OneDrive/Desktop/GD32VW553/V1_MQTT_OK/GD32VW55X_Wifi_BLE_SDK/GD32VW55x_RELEASE_V1.0.2/MSDK/lwip/lwip-2.1.2/src/core\mem.c **** 
 430:C:/Users/stapi/OneDrive/Desktop/GD32VW553/V1_MQTT_OK/GD32VW55X_Wifi_BLE_SDK/GD32VW55x_RELEASE_V1.0.2/MSDK/lwip/lwip-2.1.2/src/core\mem.c **** #if MEM_OVERFLOW_CHECK
 431:C:/Users/stapi/OneDrive/Desktop/GD32VW553/V1_MQTT_OK/GD32VW55X_Wifi_BLE_SDK/GD32VW55x_RELEASE_V1.0.2/MSDK/lwip/lwip-2.1.2/src/core\mem.c **** static void
 432:C:/Users/stapi/OneDrive/Desktop/GD32VW553/V1_MQTT_OK/GD32VW55X_Wifi_BLE_SDK/GD32VW55x_RELEASE_V1.0.2/MSDK/lwip/lwip-2.1.2/src/core\mem.c **** mem_overflow_init_element(struct mem *mem, mem_size_t user_size)
 433:C:/Users/stapi/OneDrive/Desktop/GD32VW553/V1_MQTT_OK/GD32VW55X_Wifi_BLE_SDK/GD32VW55x_RELEASE_V1.0.2/MSDK/lwip/lwip-2.1.2/src/core\mem.c **** {
 434:C:/Users/stapi/OneDrive/Desktop/GD32VW553/V1_MQTT_OK/GD32VW55X_Wifi_BLE_SDK/GD32VW55x_RELEASE_V1.0.2/MSDK/lwip/lwip-2.1.2/src/core\mem.c ****   void *p = (u8_t *)mem + SIZEOF_STRUCT_MEM + MEM_SANITY_OFFSET;
 435:C:/Users/stapi/OneDrive/Desktop/GD32VW553/V1_MQTT_OK/GD32VW55X_Wifi_BLE_SDK/GD32VW55x_RELEASE_V1.0.2/MSDK/lwip/lwip-2.1.2/src/core\mem.c ****   mem->user_size = user_size;
 436:C:/Users/stapi/OneDrive/Desktop/GD32VW553/V1_MQTT_OK/GD32VW55X_Wifi_BLE_SDK/GD32VW55x_RELEASE_V1.0.2/MSDK/lwip/lwip-2.1.2/src/core\mem.c ****   mem_overflow_init_raw(p, user_size);
 437:C:/Users/stapi/OneDrive/Desktop/GD32VW553/V1_MQTT_OK/GD32VW55X_Wifi_BLE_SDK/GD32VW55x_RELEASE_V1.0.2/MSDK/lwip/lwip-2.1.2/src/core\mem.c **** }
 438:C:/Users/stapi/OneDrive/Desktop/GD32VW553/V1_MQTT_OK/GD32VW55X_Wifi_BLE_SDK/GD32VW55x_RELEASE_V1.0.2/MSDK/lwip/lwip-2.1.2/src/core\mem.c **** 
 439:C:/Users/stapi/OneDrive/Desktop/GD32VW553/V1_MQTT_OK/GD32VW55X_Wifi_BLE_SDK/GD32VW55x_RELEASE_V1.0.2/MSDK/lwip/lwip-2.1.2/src/core\mem.c **** static void
 440:C:/Users/stapi/OneDrive/Desktop/GD32VW553/V1_MQTT_OK/GD32VW55X_Wifi_BLE_SDK/GD32VW55x_RELEASE_V1.0.2/MSDK/lwip/lwip-2.1.2/src/core\mem.c **** mem_overflow_check_element(struct mem *mem)
 441:C:/Users/stapi/OneDrive/Desktop/GD32VW553/V1_MQTT_OK/GD32VW55X_Wifi_BLE_SDK/GD32VW55x_RELEASE_V1.0.2/MSDK/lwip/lwip-2.1.2/src/core\mem.c **** {
 442:C:/Users/stapi/OneDrive/Desktop/GD32VW553/V1_MQTT_OK/GD32VW55X_Wifi_BLE_SDK/GD32VW55x_RELEASE_V1.0.2/MSDK/lwip/lwip-2.1.2/src/core\mem.c ****   void *p = (u8_t *)mem + SIZEOF_STRUCT_MEM + MEM_SANITY_OFFSET;
 443:C:/Users/stapi/OneDrive/Desktop/GD32VW553/V1_MQTT_OK/GD32VW55X_Wifi_BLE_SDK/GD32VW55x_RELEASE_V1.0.2/MSDK/lwip/lwip-2.1.2/src/core\mem.c ****   mem_overflow_check_raw(p, mem->user_size, "heap", "");
 444:C:/Users/stapi/OneDrive/Desktop/GD32VW553/V1_MQTT_OK/GD32VW55X_Wifi_BLE_SDK/GD32VW55x_RELEASE_V1.0.2/MSDK/lwip/lwip-2.1.2/src/core\mem.c **** }
 445:C:/Users/stapi/OneDrive/Desktop/GD32VW553/V1_MQTT_OK/GD32VW55X_Wifi_BLE_SDK/GD32VW55x_RELEASE_V1.0.2/MSDK/lwip/lwip-2.1.2/src/core\mem.c **** #else /* MEM_OVERFLOW_CHECK */
 446:C:/Users/stapi/OneDrive/Desktop/GD32VW553/V1_MQTT_OK/GD32VW55X_Wifi_BLE_SDK/GD32VW55x_RELEASE_V1.0.2/MSDK/lwip/lwip-2.1.2/src/core\mem.c **** #define mem_overflow_init_element(mem, size)
 447:C:/Users/stapi/OneDrive/Desktop/GD32VW553/V1_MQTT_OK/GD32VW55X_Wifi_BLE_SDK/GD32VW55x_RELEASE_V1.0.2/MSDK/lwip/lwip-2.1.2/src/core\mem.c **** #define mem_overflow_check_element(mem)
 448:C:/Users/stapi/OneDrive/Desktop/GD32VW553/V1_MQTT_OK/GD32VW55X_Wifi_BLE_SDK/GD32VW55x_RELEASE_V1.0.2/MSDK/lwip/lwip-2.1.2/src/core\mem.c **** #endif /* MEM_OVERFLOW_CHECK */
 449:C:/Users/stapi/OneDrive/Desktop/GD32VW553/V1_MQTT_OK/GD32VW55X_Wifi_BLE_SDK/GD32VW55x_RELEASE_V1.0.2/MSDK/lwip/lwip-2.1.2/src/core\mem.c **** 
 450:C:/Users/stapi/OneDrive/Desktop/GD32VW553/V1_MQTT_OK/GD32VW55X_Wifi_BLE_SDK/GD32VW55x_RELEASE_V1.0.2/MSDK/lwip/lwip-2.1.2/src/core\mem.c **** static struct mem *
 451:C:/Users/stapi/OneDrive/Desktop/GD32VW553/V1_MQTT_OK/GD32VW55X_Wifi_BLE_SDK/GD32VW55x_RELEASE_V1.0.2/MSDK/lwip/lwip-2.1.2/src/core\mem.c **** ptr_to_mem(mem_size_t ptr)
 452:C:/Users/stapi/OneDrive/Desktop/GD32VW553/V1_MQTT_OK/GD32VW55X_Wifi_BLE_SDK/GD32VW55x_RELEASE_V1.0.2/MSDK/lwip/lwip-2.1.2/src/core\mem.c **** {
 453:C:/Users/stapi/OneDrive/Desktop/GD32VW553/V1_MQTT_OK/GD32VW55X_Wifi_BLE_SDK/GD32VW55x_RELEASE_V1.0.2/MSDK/lwip/lwip-2.1.2/src/core\mem.c ****   return (struct mem *)(void *)&ram[ptr];
 454:C:/Users/stapi/OneDrive/Desktop/GD32VW553/V1_MQTT_OK/GD32VW55X_Wifi_BLE_SDK/GD32VW55x_RELEASE_V1.0.2/MSDK/lwip/lwip-2.1.2/src/core\mem.c **** }
 455:C:/Users/stapi/OneDrive/Desktop/GD32VW553/V1_MQTT_OK/GD32VW55X_Wifi_BLE_SDK/GD32VW55x_RELEASE_V1.0.2/MSDK/lwip/lwip-2.1.2/src/core\mem.c **** 
 456:C:/Users/stapi/OneDrive/Desktop/GD32VW553/V1_MQTT_OK/GD32VW55X_Wifi_BLE_SDK/GD32VW55x_RELEASE_V1.0.2/MSDK/lwip/lwip-2.1.2/src/core\mem.c **** static mem_size_t
 457:C:/Users/stapi/OneDrive/Desktop/GD32VW553/V1_MQTT_OK/GD32VW55X_Wifi_BLE_SDK/GD32VW55x_RELEASE_V1.0.2/MSDK/lwip/lwip-2.1.2/src/core\mem.c **** mem_to_ptr(void *mem)
 458:C:/Users/stapi/OneDrive/Desktop/GD32VW553/V1_MQTT_OK/GD32VW55X_Wifi_BLE_SDK/GD32VW55x_RELEASE_V1.0.2/MSDK/lwip/lwip-2.1.2/src/core\mem.c **** {
 459:C:/Users/stapi/OneDrive/Desktop/GD32VW553/V1_MQTT_OK/GD32VW55X_Wifi_BLE_SDK/GD32VW55x_RELEASE_V1.0.2/MSDK/lwip/lwip-2.1.2/src/core\mem.c ****   return (mem_size_t)((u8_t *)mem - ram);
 460:C:/Users/stapi/OneDrive/Desktop/GD32VW553/V1_MQTT_OK/GD32VW55X_Wifi_BLE_SDK/GD32VW55x_RELEASE_V1.0.2/MSDK/lwip/lwip-2.1.2/src/core\mem.c **** }
 461:C:/Users/stapi/OneDrive/Desktop/GD32VW553/V1_MQTT_OK/GD32VW55X_Wifi_BLE_SDK/GD32VW55x_RELEASE_V1.0.2/MSDK/lwip/lwip-2.1.2/src/core\mem.c **** 
 462:C:/Users/stapi/OneDrive/Desktop/GD32VW553/V1_MQTT_OK/GD32VW55X_Wifi_BLE_SDK/GD32VW55x_RELEASE_V1.0.2/MSDK/lwip/lwip-2.1.2/src/core\mem.c **** /**
 463:C:/Users/stapi/OneDrive/Desktop/GD32VW553/V1_MQTT_OK/GD32VW55X_Wifi_BLE_SDK/GD32VW55x_RELEASE_V1.0.2/MSDK/lwip/lwip-2.1.2/src/core\mem.c ****  * "Plug holes" by combining adjacent empty struct mems.
 464:C:/Users/stapi/OneDrive/Desktop/GD32VW553/V1_MQTT_OK/GD32VW55X_Wifi_BLE_SDK/GD32VW55x_RELEASE_V1.0.2/MSDK/lwip/lwip-2.1.2/src/core\mem.c ****  * After this function is through, there should not exist
 465:C:/Users/stapi/OneDrive/Desktop/GD32VW553/V1_MQTT_OK/GD32VW55X_Wifi_BLE_SDK/GD32VW55x_RELEASE_V1.0.2/MSDK/lwip/lwip-2.1.2/src/core\mem.c ****  * one empty struct mem pointing to another empty struct mem.
 466:C:/Users/stapi/OneDrive/Desktop/GD32VW553/V1_MQTT_OK/GD32VW55X_Wifi_BLE_SDK/GD32VW55x_RELEASE_V1.0.2/MSDK/lwip/lwip-2.1.2/src/core\mem.c ****  *
 467:C:/Users/stapi/OneDrive/Desktop/GD32VW553/V1_MQTT_OK/GD32VW55X_Wifi_BLE_SDK/GD32VW55x_RELEASE_V1.0.2/MSDK/lwip/lwip-2.1.2/src/core\mem.c ****  * @param mem this points to a struct mem which just has been freed
 468:C:/Users/stapi/OneDrive/Desktop/GD32VW553/V1_MQTT_OK/GD32VW55X_Wifi_BLE_SDK/GD32VW55x_RELEASE_V1.0.2/MSDK/lwip/lwip-2.1.2/src/core\mem.c ****  * @internal this function is only called by mem_free() and mem_trim()
 469:C:/Users/stapi/OneDrive/Desktop/GD32VW553/V1_MQTT_OK/GD32VW55X_Wifi_BLE_SDK/GD32VW55x_RELEASE_V1.0.2/MSDK/lwip/lwip-2.1.2/src/core\mem.c ****  *
 470:C:/Users/stapi/OneDrive/Desktop/GD32VW553/V1_MQTT_OK/GD32VW55X_Wifi_BLE_SDK/GD32VW55x_RELEASE_V1.0.2/MSDK/lwip/lwip-2.1.2/src/core\mem.c ****  * This assumes access to the heap is protected by the calling function
 471:C:/Users/stapi/OneDrive/Desktop/GD32VW553/V1_MQTT_OK/GD32VW55X_Wifi_BLE_SDK/GD32VW55x_RELEASE_V1.0.2/MSDK/lwip/lwip-2.1.2/src/core\mem.c ****  * already.
 472:C:/Users/stapi/OneDrive/Desktop/GD32VW553/V1_MQTT_OK/GD32VW55X_Wifi_BLE_SDK/GD32VW55x_RELEASE_V1.0.2/MSDK/lwip/lwip-2.1.2/src/core\mem.c ****  */
 473:C:/Users/stapi/OneDrive/Desktop/GD32VW553/V1_MQTT_OK/GD32VW55X_Wifi_BLE_SDK/GD32VW55x_RELEASE_V1.0.2/MSDK/lwip/lwip-2.1.2/src/core\mem.c **** static void
 474:C:/Users/stapi/OneDrive/Desktop/GD32VW553/V1_MQTT_OK/GD32VW55X_Wifi_BLE_SDK/GD32VW55x_RELEASE_V1.0.2/MSDK/lwip/lwip-2.1.2/src/core\mem.c **** plug_holes(struct mem *mem)
 475:C:/Users/stapi/OneDrive/Desktop/GD32VW553/V1_MQTT_OK/GD32VW55X_Wifi_BLE_SDK/GD32VW55x_RELEASE_V1.0.2/MSDK/lwip/lwip-2.1.2/src/core\mem.c **** {
 476:C:/Users/stapi/OneDrive/Desktop/GD32VW553/V1_MQTT_OK/GD32VW55X_Wifi_BLE_SDK/GD32VW55x_RELEASE_V1.0.2/MSDK/lwip/lwip-2.1.2/src/core\mem.c ****   struct mem *nmem;
 477:C:/Users/stapi/OneDrive/Desktop/GD32VW553/V1_MQTT_OK/GD32VW55X_Wifi_BLE_SDK/GD32VW55x_RELEASE_V1.0.2/MSDK/lwip/lwip-2.1.2/src/core\mem.c ****   struct mem *pmem;
 478:C:/Users/stapi/OneDrive/Desktop/GD32VW553/V1_MQTT_OK/GD32VW55X_Wifi_BLE_SDK/GD32VW55x_RELEASE_V1.0.2/MSDK/lwip/lwip-2.1.2/src/core\mem.c **** 
 479:C:/Users/stapi/OneDrive/Desktop/GD32VW553/V1_MQTT_OK/GD32VW55X_Wifi_BLE_SDK/GD32VW55x_RELEASE_V1.0.2/MSDK/lwip/lwip-2.1.2/src/core\mem.c ****   LWIP_ASSERT("plug_holes: mem >= ram", (u8_t *)mem >= ram);
 480:C:/Users/stapi/OneDrive/Desktop/GD32VW553/V1_MQTT_OK/GD32VW55X_Wifi_BLE_SDK/GD32VW55x_RELEASE_V1.0.2/MSDK/lwip/lwip-2.1.2/src/core\mem.c ****   LWIP_ASSERT("plug_holes: mem < ram_end", (u8_t *)mem < (u8_t *)ram_end);
 481:C:/Users/stapi/OneDrive/Desktop/GD32VW553/V1_MQTT_OK/GD32VW55X_Wifi_BLE_SDK/GD32VW55x_RELEASE_V1.0.2/MSDK/lwip/lwip-2.1.2/src/core\mem.c ****   LWIP_ASSERT("plug_holes: mem->used == 0", mem->used == 0);
 482:C:/Users/stapi/OneDrive/Desktop/GD32VW553/V1_MQTT_OK/GD32VW55X_Wifi_BLE_SDK/GD32VW55x_RELEASE_V1.0.2/MSDK/lwip/lwip-2.1.2/src/core\mem.c **** 
 483:C:/Users/stapi/OneDrive/Desktop/GD32VW553/V1_MQTT_OK/GD32VW55X_Wifi_BLE_SDK/GD32VW55x_RELEASE_V1.0.2/MSDK/lwip/lwip-2.1.2/src/core\mem.c ****   /* plug hole forward */
 484:C:/Users/stapi/OneDrive/Desktop/GD32VW553/V1_MQTT_OK/GD32VW55X_Wifi_BLE_SDK/GD32VW55x_RELEASE_V1.0.2/MSDK/lwip/lwip-2.1.2/src/core\mem.c ****   LWIP_ASSERT("plug_holes: mem->next <= MEM_SIZE_ALIGNED", mem->next <= MEM_SIZE_ALIGNED);
 485:C:/Users/stapi/OneDrive/Desktop/GD32VW553/V1_MQTT_OK/GD32VW55X_Wifi_BLE_SDK/GD32VW55x_RELEASE_V1.0.2/MSDK/lwip/lwip-2.1.2/src/core\mem.c **** 
 486:C:/Users/stapi/OneDrive/Desktop/GD32VW553/V1_MQTT_OK/GD32VW55X_Wifi_BLE_SDK/GD32VW55x_RELEASE_V1.0.2/MSDK/lwip/lwip-2.1.2/src/core\mem.c ****   nmem = ptr_to_mem(mem->next);
 487:C:/Users/stapi/OneDrive/Desktop/GD32VW553/V1_MQTT_OK/GD32VW55X_Wifi_BLE_SDK/GD32VW55x_RELEASE_V1.0.2/MSDK/lwip/lwip-2.1.2/src/core\mem.c ****   if (mem != nmem && nmem->used == 0 && (u8_t *)nmem != (u8_t *)ram_end) {
 488:C:/Users/stapi/OneDrive/Desktop/GD32VW553/V1_MQTT_OK/GD32VW55X_Wifi_BLE_SDK/GD32VW55x_RELEASE_V1.0.2/MSDK/lwip/lwip-2.1.2/src/core\mem.c ****     /* if mem->next is unused and not end of ram, combine mem and mem->next */
 489:C:/Users/stapi/OneDrive/Desktop/GD32VW553/V1_MQTT_OK/GD32VW55X_Wifi_BLE_SDK/GD32VW55x_RELEASE_V1.0.2/MSDK/lwip/lwip-2.1.2/src/core\mem.c ****     if (lfree == nmem) {
 490:C:/Users/stapi/OneDrive/Desktop/GD32VW553/V1_MQTT_OK/GD32VW55X_Wifi_BLE_SDK/GD32VW55x_RELEASE_V1.0.2/MSDK/lwip/lwip-2.1.2/src/core\mem.c ****       lfree = mem;
 491:C:/Users/stapi/OneDrive/Desktop/GD32VW553/V1_MQTT_OK/GD32VW55X_Wifi_BLE_SDK/GD32VW55x_RELEASE_V1.0.2/MSDK/lwip/lwip-2.1.2/src/core\mem.c ****     }
 492:C:/Users/stapi/OneDrive/Desktop/GD32VW553/V1_MQTT_OK/GD32VW55X_Wifi_BLE_SDK/GD32VW55x_RELEASE_V1.0.2/MSDK/lwip/lwip-2.1.2/src/core\mem.c ****     mem->next = nmem->next;
 493:C:/Users/stapi/OneDrive/Desktop/GD32VW553/V1_MQTT_OK/GD32VW55X_Wifi_BLE_SDK/GD32VW55x_RELEASE_V1.0.2/MSDK/lwip/lwip-2.1.2/src/core\mem.c ****     if (nmem->next != MEM_SIZE_ALIGNED) {
 494:C:/Users/stapi/OneDrive/Desktop/GD32VW553/V1_MQTT_OK/GD32VW55X_Wifi_BLE_SDK/GD32VW55x_RELEASE_V1.0.2/MSDK/lwip/lwip-2.1.2/src/core\mem.c ****       ptr_to_mem(nmem->next)->prev = mem_to_ptr(mem);
 495:C:/Users/stapi/OneDrive/Desktop/GD32VW553/V1_MQTT_OK/GD32VW55X_Wifi_BLE_SDK/GD32VW55x_RELEASE_V1.0.2/MSDK/lwip/lwip-2.1.2/src/core\mem.c ****     }
 496:C:/Users/stapi/OneDrive/Desktop/GD32VW553/V1_MQTT_OK/GD32VW55X_Wifi_BLE_SDK/GD32VW55x_RELEASE_V1.0.2/MSDK/lwip/lwip-2.1.2/src/core\mem.c ****   }
 497:C:/Users/stapi/OneDrive/Desktop/GD32VW553/V1_MQTT_OK/GD32VW55X_Wifi_BLE_SDK/GD32VW55x_RELEASE_V1.0.2/MSDK/lwip/lwip-2.1.2/src/core\mem.c **** 
 498:C:/Users/stapi/OneDrive/Desktop/GD32VW553/V1_MQTT_OK/GD32VW55X_Wifi_BLE_SDK/GD32VW55x_RELEASE_V1.0.2/MSDK/lwip/lwip-2.1.2/src/core\mem.c ****   /* plug hole backward */
 499:C:/Users/stapi/OneDrive/Desktop/GD32VW553/V1_MQTT_OK/GD32VW55X_Wifi_BLE_SDK/GD32VW55x_RELEASE_V1.0.2/MSDK/lwip/lwip-2.1.2/src/core\mem.c ****   pmem = ptr_to_mem(mem->prev);
 500:C:/Users/stapi/OneDrive/Desktop/GD32VW553/V1_MQTT_OK/GD32VW55X_Wifi_BLE_SDK/GD32VW55x_RELEASE_V1.0.2/MSDK/lwip/lwip-2.1.2/src/core\mem.c ****   if (pmem != mem && pmem->used == 0) {
 501:C:/Users/stapi/OneDrive/Desktop/GD32VW553/V1_MQTT_OK/GD32VW55X_Wifi_BLE_SDK/GD32VW55x_RELEASE_V1.0.2/MSDK/lwip/lwip-2.1.2/src/core\mem.c ****     /* if mem->prev is unused, combine mem and mem->prev */
 502:C:/Users/stapi/OneDrive/Desktop/GD32VW553/V1_MQTT_OK/GD32VW55X_Wifi_BLE_SDK/GD32VW55x_RELEASE_V1.0.2/MSDK/lwip/lwip-2.1.2/src/core\mem.c ****     if (lfree == mem) {
 503:C:/Users/stapi/OneDrive/Desktop/GD32VW553/V1_MQTT_OK/GD32VW55X_Wifi_BLE_SDK/GD32VW55x_RELEASE_V1.0.2/MSDK/lwip/lwip-2.1.2/src/core\mem.c ****       lfree = pmem;
 504:C:/Users/stapi/OneDrive/Desktop/GD32VW553/V1_MQTT_OK/GD32VW55X_Wifi_BLE_SDK/GD32VW55x_RELEASE_V1.0.2/MSDK/lwip/lwip-2.1.2/src/core\mem.c ****     }
 505:C:/Users/stapi/OneDrive/Desktop/GD32VW553/V1_MQTT_OK/GD32VW55X_Wifi_BLE_SDK/GD32VW55x_RELEASE_V1.0.2/MSDK/lwip/lwip-2.1.2/src/core\mem.c ****     pmem->next = mem->next;
 506:C:/Users/stapi/OneDrive/Desktop/GD32VW553/V1_MQTT_OK/GD32VW55X_Wifi_BLE_SDK/GD32VW55x_RELEASE_V1.0.2/MSDK/lwip/lwip-2.1.2/src/core\mem.c ****     if (mem->next != MEM_SIZE_ALIGNED) {
 507:C:/Users/stapi/OneDrive/Desktop/GD32VW553/V1_MQTT_OK/GD32VW55X_Wifi_BLE_SDK/GD32VW55x_RELEASE_V1.0.2/MSDK/lwip/lwip-2.1.2/src/core\mem.c ****       ptr_to_mem(mem->next)->prev = mem_to_ptr(pmem);
 508:C:/Users/stapi/OneDrive/Desktop/GD32VW553/V1_MQTT_OK/GD32VW55X_Wifi_BLE_SDK/GD32VW55x_RELEASE_V1.0.2/MSDK/lwip/lwip-2.1.2/src/core\mem.c ****     }
 509:C:/Users/stapi/OneDrive/Desktop/GD32VW553/V1_MQTT_OK/GD32VW55X_Wifi_BLE_SDK/GD32VW55x_RELEASE_V1.0.2/MSDK/lwip/lwip-2.1.2/src/core\mem.c ****   }
 510:C:/Users/stapi/OneDrive/Desktop/GD32VW553/V1_MQTT_OK/GD32VW55X_Wifi_BLE_SDK/GD32VW55x_RELEASE_V1.0.2/MSDK/lwip/lwip-2.1.2/src/core\mem.c **** }
 511:C:/Users/stapi/OneDrive/Desktop/GD32VW553/V1_MQTT_OK/GD32VW55X_Wifi_BLE_SDK/GD32VW55x_RELEASE_V1.0.2/MSDK/lwip/lwip-2.1.2/src/core\mem.c **** 
 512:C:/Users/stapi/OneDrive/Desktop/GD32VW553/V1_MQTT_OK/GD32VW55X_Wifi_BLE_SDK/GD32VW55x_RELEASE_V1.0.2/MSDK/lwip/lwip-2.1.2/src/core\mem.c **** /**
 513:C:/Users/stapi/OneDrive/Desktop/GD32VW553/V1_MQTT_OK/GD32VW55X_Wifi_BLE_SDK/GD32VW55x_RELEASE_V1.0.2/MSDK/lwip/lwip-2.1.2/src/core\mem.c ****  * Zero the heap and initialize start, end and lowest-free
 514:C:/Users/stapi/OneDrive/Desktop/GD32VW553/V1_MQTT_OK/GD32VW55X_Wifi_BLE_SDK/GD32VW55x_RELEASE_V1.0.2/MSDK/lwip/lwip-2.1.2/src/core\mem.c ****  */
 515:C:/Users/stapi/OneDrive/Desktop/GD32VW553/V1_MQTT_OK/GD32VW55X_Wifi_BLE_SDK/GD32VW55x_RELEASE_V1.0.2/MSDK/lwip/lwip-2.1.2/src/core\mem.c **** void
 516:C:/Users/stapi/OneDrive/Desktop/GD32VW553/V1_MQTT_OK/GD32VW55X_Wifi_BLE_SDK/GD32VW55x_RELEASE_V1.0.2/MSDK/lwip/lwip-2.1.2/src/core\mem.c **** mem_init(void)
 517:C:/Users/stapi/OneDrive/Desktop/GD32VW553/V1_MQTT_OK/GD32VW55X_Wifi_BLE_SDK/GD32VW55x_RELEASE_V1.0.2/MSDK/lwip/lwip-2.1.2/src/core\mem.c **** {
  26              		.loc 1 517 1
  27              		.cfi_startproc
  28 0000 17030000 		call	t0,__riscv_save_0
  28      E7020300 
  29              		.cfi_offset 1, -4
  30              		.cfi_def_cfa_offset 16
 518:C:/Users/stapi/OneDrive/Desktop/GD32VW553/V1_MQTT_OK/GD32VW55X_Wifi_BLE_SDK/GD32VW55x_RELEASE_V1.0.2/MSDK/lwip/lwip-2.1.2/src/core\mem.c ****   struct mem *mem;
  31              		.loc 1 518 3
 519:C:/Users/stapi/OneDrive/Desktop/GD32VW553/V1_MQTT_OK/GD32VW55X_Wifi_BLE_SDK/GD32VW55x_RELEASE_V1.0.2/MSDK/lwip/lwip-2.1.2/src/core\mem.c **** 
 520:C:/Users/stapi/OneDrive/Desktop/GD32VW553/V1_MQTT_OK/GD32VW55X_Wifi_BLE_SDK/GD32VW55x_RELEASE_V1.0.2/MSDK/lwip/lwip-2.1.2/src/core\mem.c ****   LWIP_ASSERT("Sanity check alignment",
  32              		.loc 1 520 3
  33              		.loc 1 520 3
  34              		.loc 1 520 3
  35              		.loc 1 520 3
 521:C:/Users/stapi/OneDrive/Desktop/GD32VW553/V1_MQTT_OK/GD32VW55X_Wifi_BLE_SDK/GD32VW55x_RELEASE_V1.0.2/MSDK/lwip/lwip-2.1.2/src/core\mem.c ****               (SIZEOF_STRUCT_MEM & (MEM_ALIGNMENT - 1)) == 0);
 522:C:/Users/stapi/OneDrive/Desktop/GD32VW553/V1_MQTT_OK/GD32VW55X_Wifi_BLE_SDK/GD32VW55x_RELEASE_V1.0.2/MSDK/lwip/lwip-2.1.2/src/core\mem.c **** 
 523:C:/Users/stapi/OneDrive/Desktop/GD32VW553/V1_MQTT_OK/GD32VW55X_Wifi_BLE_SDK/GD32VW55x_RELEASE_V1.0.2/MSDK/lwip/lwip-2.1.2/src/core\mem.c ****   /* align the heap */
 524:C:/Users/stapi/OneDrive/Desktop/GD32VW553/V1_MQTT_OK/GD32VW55X_Wifi_BLE_SDK/GD32VW55x_RELEASE_V1.0.2/MSDK/lwip/lwip-2.1.2/src/core\mem.c ****   ram = (u8_t *)LWIP_MEM_ALIGN(LWIP_RAM_HEAP_POINTER);
  36              		.loc 1 524 3
  37              		.loc 1 524 17 is_stmt 0
  38 0008 B7070000 		lui	a5,%hi(ram_heap+3)
  39 000c 93873700 		addi	a5,a5,%lo(ram_heap+3)
  40 0010 F19B     		andi	a5,a5,-4
  41              		.loc 1 524 7
  42 0012 37070000 		lui	a4,%hi(.LANCHOR0)
  43 0016 2320F700 		sw	a5,%lo(.LANCHOR0)(a4)
 525:C:/Users/stapi/OneDrive/Desktop/GD32VW553/V1_MQTT_OK/GD32VW55X_Wifi_BLE_SDK/GD32VW55x_RELEASE_V1.0.2/MSDK/lwip/lwip-2.1.2/src/core\mem.c ****   /* initialize the start of the heap */
 526:C:/Users/stapi/OneDrive/Desktop/GD32VW553/V1_MQTT_OK/GD32VW55X_Wifi_BLE_SDK/GD32VW55x_RELEASE_V1.0.2/MSDK/lwip/lwip-2.1.2/src/core\mem.c ****   mem = (struct mem *)(void *)ram;
  44              		.loc 1 526 3 is_stmt 1
  45              	.LVL0:
 527:C:/Users/stapi/OneDrive/Desktop/GD32VW553/V1_MQTT_OK/GD32VW55X_Wifi_BLE_SDK/GD32VW55x_RELEASE_V1.0.2/MSDK/lwip/lwip-2.1.2/src/core\mem.c ****   mem->next = MEM_SIZE_ALIGNED;
  46              		.loc 1 527 3
 528:C:/Users/stapi/OneDrive/Desktop/GD32VW553/V1_MQTT_OK/GD32VW55X_Wifi_BLE_SDK/GD32VW55x_RELEASE_V1.0.2/MSDK/lwip/lwip-2.1.2/src/core\mem.c ****   mem->prev = 0;
  47              		.loc 1 528 3
 529:C:/Users/stapi/OneDrive/Desktop/GD32VW553/V1_MQTT_OK/GD32VW55X_Wifi_BLE_SDK/GD32VW55x_RELEASE_V1.0.2/MSDK/lwip/lwip-2.1.2/src/core\mem.c ****   mem->used = 0;
  48              		.loc 1 529 3
 527:C:/Users/stapi/OneDrive/Desktop/GD32VW553/V1_MQTT_OK/GD32VW55X_Wifi_BLE_SDK/GD32VW55x_RELEASE_V1.0.2/MSDK/lwip/lwip-2.1.2/src/core\mem.c ****   mem->next = MEM_SIZE_ALIGNED;
  49              		.loc 1 527 13 is_stmt 0
  50 001a 1967     		li	a4,24576
  51 001c 9306C74E 		addi	a3,a4,1260
  52 0020 94C3     		sw	a3,0(a5)
 530:C:/Users/stapi/OneDrive/Desktop/GD32VW553/V1_MQTT_OK/GD32VW55X_Wifi_BLE_SDK/GD32VW55x_RELEASE_V1.0.2/MSDK/lwip/lwip-2.1.2/src/core\mem.c ****   /* initialize the end of the heap */
 531:C:/Users/stapi/OneDrive/Desktop/GD32VW553/V1_MQTT_OK/GD32VW55X_Wifi_BLE_SDK/GD32VW55x_RELEASE_V1.0.2/MSDK/lwip/lwip-2.1.2/src/core\mem.c ****   ram_end = ptr_to_mem(MEM_SIZE_ALIGNED);
  53              		.loc 1 531 11
  54 0022 37060000 		lui	a2,%hi(.LANCHOR1)
  55              	.LBB50:
  56              	.LBB51:
 453:C:/Users/stapi/OneDrive/Desktop/GD32VW553/V1_MQTT_OK/GD32VW55X_Wifi_BLE_SDK/GD32VW55x_RELEASE_V1.0.2/MSDK/lwip/lwip-2.1.2/src/core\mem.c **** }
  57              		.loc 1 453 10
  58 0026 BE96     		add	a3,a5,a3
  59              	.LBE51:
  60              	.LBE50:
  61              		.loc 1 531 11
  62 0028 2320D600 		sw	a3,%lo(.LANCHOR1)(a2)
 532:C:/Users/stapi/OneDrive/Desktop/GD32VW553/V1_MQTT_OK/GD32VW55X_Wifi_BLE_SDK/GD32VW55x_RELEASE_V1.0.2/MSDK/lwip/lwip-2.1.2/src/core\mem.c ****   ram_end->used = 1;
 533:C:/Users/stapi/OneDrive/Desktop/GD32VW553/V1_MQTT_OK/GD32VW55X_Wifi_BLE_SDK/GD32VW55x_RELEASE_V1.0.2/MSDK/lwip/lwip-2.1.2/src/core\mem.c ****   ram_end->next = MEM_SIZE_ALIGNED;
  63              		.loc 1 533 17
  64 002c B766EC64 		li	a3,1693212672
  65 0030 3E97     		add	a4,a5,a4
 529:C:/Users/stapi/OneDrive/Desktop/GD32VW553/V1_MQTT_OK/GD32VW55X_Wifi_BLE_SDK/GD32VW55x_RELEASE_V1.0.2/MSDK/lwip/lwip-2.1.2/src/core\mem.c ****   /* initialize the end of the heap */
  66              		.loc 1 529 13
  67 0032 23820700 		sb	zero,4(a5)
 531:C:/Users/stapi/OneDrive/Desktop/GD32VW553/V1_MQTT_OK/GD32VW55X_Wifi_BLE_SDK/GD32VW55x_RELEASE_V1.0.2/MSDK/lwip/lwip-2.1.2/src/core\mem.c ****   ram_end->used = 1;
  68              		.loc 1 531 3 is_stmt 1
  69              	.LVL1:
  70              	.LBB53:
  71              	.LBB52:
 453:C:/Users/stapi/OneDrive/Desktop/GD32VW553/V1_MQTT_OK/GD32VW55X_Wifi_BLE_SDK/GD32VW55x_RELEASE_V1.0.2/MSDK/lwip/lwip-2.1.2/src/core\mem.c **** }
  72              		.loc 1 453 3
  73              	.LBE52:
  74              	.LBE53:
 532:C:/Users/stapi/OneDrive/Desktop/GD32VW553/V1_MQTT_OK/GD32VW55X_Wifi_BLE_SDK/GD32VW55x_RELEASE_V1.0.2/MSDK/lwip/lwip-2.1.2/src/core\mem.c ****   ram_end->next = MEM_SIZE_ALIGNED;
  75              		.loc 1 532 3
  76              		.loc 1 533 3
 534:C:/Users/stapi/OneDrive/Desktop/GD32VW553/V1_MQTT_OK/GD32VW55X_Wifi_BLE_SDK/GD32VW55x_RELEASE_V1.0.2/MSDK/lwip/lwip-2.1.2/src/core\mem.c ****   ram_end->prev = MEM_SIZE_ALIGNED;
  77              		.loc 1 534 3
 533:C:/Users/stapi/OneDrive/Desktop/GD32VW553/V1_MQTT_OK/GD32VW55X_Wifi_BLE_SDK/GD32VW55x_RELEASE_V1.0.2/MSDK/lwip/lwip-2.1.2/src/core\mem.c ****   ram_end->prev = MEM_SIZE_ALIGNED;
  78              		.loc 1 533 17 is_stmt 0
  79 0036 9386C64E 		addi	a3,a3,1260
  80 003a 2326D74E 		sw	a3,1260(a4)
 535:C:/Users/stapi/OneDrive/Desktop/GD32VW553/V1_MQTT_OK/GD32VW55X_Wifi_BLE_SDK/GD32VW55x_RELEASE_V1.0.2/MSDK/lwip/lwip-2.1.2/src/core\mem.c ****   MEM_SANITY();
 536:C:/Users/stapi/OneDrive/Desktop/GD32VW553/V1_MQTT_OK/GD32VW55X_Wifi_BLE_SDK/GD32VW55x_RELEASE_V1.0.2/MSDK/lwip/lwip-2.1.2/src/core\mem.c **** 
 537:C:/Users/stapi/OneDrive/Desktop/GD32VW553/V1_MQTT_OK/GD32VW55X_Wifi_BLE_SDK/GD32VW55x_RELEASE_V1.0.2/MSDK/lwip/lwip-2.1.2/src/core\mem.c ****   /* initialize the lowest-free pointer to the start of the heap */
 538:C:/Users/stapi/OneDrive/Desktop/GD32VW553/V1_MQTT_OK/GD32VW55X_Wifi_BLE_SDK/GD32VW55x_RELEASE_V1.0.2/MSDK/lwip/lwip-2.1.2/src/core\mem.c ****   lfree = (struct mem *)(void *)ram;
 539:C:/Users/stapi/OneDrive/Desktop/GD32VW553/V1_MQTT_OK/GD32VW55X_Wifi_BLE_SDK/GD32VW55x_RELEASE_V1.0.2/MSDK/lwip/lwip-2.1.2/src/core\mem.c **** 
 540:C:/Users/stapi/OneDrive/Desktop/GD32VW553/V1_MQTT_OK/GD32VW55X_Wifi_BLE_SDK/GD32VW55x_RELEASE_V1.0.2/MSDK/lwip/lwip-2.1.2/src/core\mem.c ****   MEM_STATS_AVAIL(avail, MEM_SIZE_ALIGNED);
 541:C:/Users/stapi/OneDrive/Desktop/GD32VW553/V1_MQTT_OK/GD32VW55X_Wifi_BLE_SDK/GD32VW55x_RELEASE_V1.0.2/MSDK/lwip/lwip-2.1.2/src/core\mem.c **** 
 542:C:/Users/stapi/OneDrive/Desktop/GD32VW553/V1_MQTT_OK/GD32VW55X_Wifi_BLE_SDK/GD32VW55x_RELEASE_V1.0.2/MSDK/lwip/lwip-2.1.2/src/core\mem.c ****   if (sys_mutex_new(&mem_mutex) != ERR_OK) {
  81              		.loc 1 542 7
  82 003e 37050000 		lui	a0,%hi(.LANCHOR3)
 532:C:/Users/stapi/OneDrive/Desktop/GD32VW553/V1_MQTT_OK/GD32VW55X_Wifi_BLE_SDK/GD32VW55x_RELEASE_V1.0.2/MSDK/lwip/lwip-2.1.2/src/core\mem.c ****   ram_end->next = MEM_SIZE_ALIGNED;
  83              		.loc 1 532 17
  84 0042 8546     		li	a3,1
  85 0044 2308D74E 		sb	a3,1264(a4)
 535:C:/Users/stapi/OneDrive/Desktop/GD32VW553/V1_MQTT_OK/GD32VW55X_Wifi_BLE_SDK/GD32VW55x_RELEASE_V1.0.2/MSDK/lwip/lwip-2.1.2/src/core\mem.c ****   MEM_SANITY();
  86              		.loc 1 535 15 is_stmt 1
 538:C:/Users/stapi/OneDrive/Desktop/GD32VW553/V1_MQTT_OK/GD32VW55X_Wifi_BLE_SDK/GD32VW55x_RELEASE_V1.0.2/MSDK/lwip/lwip-2.1.2/src/core\mem.c **** 
  87              		.loc 1 538 3
  88              		.loc 1 542 7 is_stmt 0
  89 0048 13050500 		addi	a0,a0,%lo(.LANCHOR3)
 538:C:/Users/stapi/OneDrive/Desktop/GD32VW553/V1_MQTT_OK/GD32VW55X_Wifi_BLE_SDK/GD32VW55x_RELEASE_V1.0.2/MSDK/lwip/lwip-2.1.2/src/core\mem.c **** 
  90              		.loc 1 538 9
  91 004c 37070000 		lui	a4,%hi(.LANCHOR2)
  92 0050 2320F700 		sw	a5,%lo(.LANCHOR2)(a4)
 540:C:/Users/stapi/OneDrive/Desktop/GD32VW553/V1_MQTT_OK/GD32VW55X_Wifi_BLE_SDK/GD32VW55x_RELEASE_V1.0.2/MSDK/lwip/lwip-2.1.2/src/core\mem.c **** 
  93              		.loc 1 540 43 is_stmt 1
  94              		.loc 1 542 3
  95              		.loc 1 542 7 is_stmt 0
  96 0054 97000000 		call	sys_mutex_init
  96      E7800000 
  97              	.LVL2:
  98              		.loc 1 542 6
  99 005c 05C5     		beq	a0,zero,.L1
 543:C:/Users/stapi/OneDrive/Desktop/GD32VW553/V1_MQTT_OK/GD32VW55X_Wifi_BLE_SDK/GD32VW55x_RELEASE_V1.0.2/MSDK/lwip/lwip-2.1.2/src/core\mem.c ****     LWIP_ASSERT("failed to create mem_mutex", 0);
 100              		.loc 1 543 5 is_stmt 1 discriminator 1
 101              		.loc 1 543 5 discriminator 1
 102              		.loc 1 543 5 discriminator 1
 103              		.loc 1 543 5 discriminator 1
 104 005e B7060000 		lui	a3,%hi(.LC0)
 105 0062 B7050000 		lui	a1,%hi(.LC1)
 106 0066 37050000 		lui	a0,%hi(.LC2)
 107 006a 93860600 		addi	a3,a3,%lo(.LC0)
 108 006e 1306F021 		li	a2,543
 109 0072 93850500 		addi	a1,a1,%lo(.LC1)
 110 0076 13050500 		addi	a0,a0,%lo(.LC2)
 111 007a 97000000 		call	printf
 111      E7800000 
 112              	.LVL3:
 113              	.L3:
 114              		.loc 1 543 5 discriminator 2
 115              		.loc 1 543 5 discriminator 2
 116              		.loc 1 543 5 discriminator 2
 117 0082 01A0     		j	.L3
 118              	.L1:
 544:C:/Users/stapi/OneDrive/Desktop/GD32VW553/V1_MQTT_OK/GD32VW55X_Wifi_BLE_SDK/GD32VW55x_RELEASE_V1.0.2/MSDK/lwip/lwip-2.1.2/src/core\mem.c ****   }
 545:C:/Users/stapi/OneDrive/Desktop/GD32VW553/V1_MQTT_OK/GD32VW55X_Wifi_BLE_SDK/GD32VW55x_RELEASE_V1.0.2/MSDK/lwip/lwip-2.1.2/src/core\mem.c **** }
 119              		.loc 1 545 1 is_stmt 0
 120 0084 17030000 		tail	__riscv_restore_0
 120      67000300 
 121              		.cfi_restore 1
 122              		.cfi_def_cfa_offset 0
 123              		.cfi_endproc
 124              	.LFE7:
 126              		.section	.rodata.mem_free.str1.4,"aMS",@progbits,1
 127              		.align	2
 128              	.LC3:
 129 0000 6D656D5F 		.string	"mem_free: sanity check alignment"
 129      66726565 
 129      3A207361 
 129      6E697479 
 129      20636865 
 130 0021 000000   		.align	2
 131              	.LC4:
 132 0024 6D656D5F 		.string	"mem_free: illegal memory"
 132      66726565 
 132      3A20696C 
 132      6C656761 
 132      6C206D65 
 133 003d 000000   		.align	2
 134              	.LC5:
 135 0040 6D656D5F 		.string	"mem_free: illegal memory: double free"
 135      66726565 
 135      3A20696C 
 135      6C656761 
 135      6C206D65 
 136 0066 0000     		.align	2
 137              	.LC6:
 138 0068 6D656D5F 		.string	"mem_free: illegal memory: non-linked: double free"
 138      66726565 
 138      3A20696C 
 138      6C656761 
 138      6C206D65 
 139 009a 0000     		.align	2
 140              	.LC7:
 141 009c 706C7567 		.string	"plug_holes: mem >= ram"
 141      5F686F6C 
 141      65733A20 
 141      6D656D20 
 141      3E3D2072 
 142 00b3 00       		.align	2
 143              	.LC8:
 144 00b4 706C7567 		.string	"plug_holes: mem < ram_end"
 144      5F686F6C 
 144      65733A20 
 144      6D656D20 
 144      3C207261 
 145              		.section	.text.mem_free,"ax",@progbits
 146              		.align	1
 147              		.globl	mem_free
 149              	mem_free:
 150              	.LFB9:
 546:C:/Users/stapi/OneDrive/Desktop/GD32VW553/V1_MQTT_OK/GD32VW55X_Wifi_BLE_SDK/GD32VW55x_RELEASE_V1.0.2/MSDK/lwip/lwip-2.1.2/src/core\mem.c **** 
 547:C:/Users/stapi/OneDrive/Desktop/GD32VW553/V1_MQTT_OK/GD32VW55X_Wifi_BLE_SDK/GD32VW55x_RELEASE_V1.0.2/MSDK/lwip/lwip-2.1.2/src/core\mem.c **** /* Check if a struct mem is correctly linked.
 548:C:/Users/stapi/OneDrive/Desktop/GD32VW553/V1_MQTT_OK/GD32VW55X_Wifi_BLE_SDK/GD32VW55x_RELEASE_V1.0.2/MSDK/lwip/lwip-2.1.2/src/core\mem.c ****  * If not, double-free is a possible reason.
 549:C:/Users/stapi/OneDrive/Desktop/GD32VW553/V1_MQTT_OK/GD32VW55X_Wifi_BLE_SDK/GD32VW55x_RELEASE_V1.0.2/MSDK/lwip/lwip-2.1.2/src/core\mem.c ****  */
 550:C:/Users/stapi/OneDrive/Desktop/GD32VW553/V1_MQTT_OK/GD32VW55X_Wifi_BLE_SDK/GD32VW55x_RELEASE_V1.0.2/MSDK/lwip/lwip-2.1.2/src/core\mem.c **** static int
 551:C:/Users/stapi/OneDrive/Desktop/GD32VW553/V1_MQTT_OK/GD32VW55X_Wifi_BLE_SDK/GD32VW55x_RELEASE_V1.0.2/MSDK/lwip/lwip-2.1.2/src/core\mem.c **** mem_link_valid(struct mem *mem)
 552:C:/Users/stapi/OneDrive/Desktop/GD32VW553/V1_MQTT_OK/GD32VW55X_Wifi_BLE_SDK/GD32VW55x_RELEASE_V1.0.2/MSDK/lwip/lwip-2.1.2/src/core\mem.c **** {
 553:C:/Users/stapi/OneDrive/Desktop/GD32VW553/V1_MQTT_OK/GD32VW55X_Wifi_BLE_SDK/GD32VW55x_RELEASE_V1.0.2/MSDK/lwip/lwip-2.1.2/src/core\mem.c ****   struct mem *nmem, *pmem;
 554:C:/Users/stapi/OneDrive/Desktop/GD32VW553/V1_MQTT_OK/GD32VW55X_Wifi_BLE_SDK/GD32VW55x_RELEASE_V1.0.2/MSDK/lwip/lwip-2.1.2/src/core\mem.c ****   mem_size_t rmem_idx;
 555:C:/Users/stapi/OneDrive/Desktop/GD32VW553/V1_MQTT_OK/GD32VW55X_Wifi_BLE_SDK/GD32VW55x_RELEASE_V1.0.2/MSDK/lwip/lwip-2.1.2/src/core\mem.c ****   rmem_idx = mem_to_ptr(mem);
 556:C:/Users/stapi/OneDrive/Desktop/GD32VW553/V1_MQTT_OK/GD32VW55X_Wifi_BLE_SDK/GD32VW55x_RELEASE_V1.0.2/MSDK/lwip/lwip-2.1.2/src/core\mem.c ****   nmem = ptr_to_mem(mem->next);
 557:C:/Users/stapi/OneDrive/Desktop/GD32VW553/V1_MQTT_OK/GD32VW55X_Wifi_BLE_SDK/GD32VW55x_RELEASE_V1.0.2/MSDK/lwip/lwip-2.1.2/src/core\mem.c ****   pmem = ptr_to_mem(mem->prev);
 558:C:/Users/stapi/OneDrive/Desktop/GD32VW553/V1_MQTT_OK/GD32VW55X_Wifi_BLE_SDK/GD32VW55x_RELEASE_V1.0.2/MSDK/lwip/lwip-2.1.2/src/core\mem.c ****   if ((mem->next > MEM_SIZE_ALIGNED) || (mem->prev > MEM_SIZE_ALIGNED) ||
 559:C:/Users/stapi/OneDrive/Desktop/GD32VW553/V1_MQTT_OK/GD32VW55X_Wifi_BLE_SDK/GD32VW55x_RELEASE_V1.0.2/MSDK/lwip/lwip-2.1.2/src/core\mem.c ****       ((mem->prev != rmem_idx) && (pmem->next != rmem_idx)) ||
 560:C:/Users/stapi/OneDrive/Desktop/GD32VW553/V1_MQTT_OK/GD32VW55X_Wifi_BLE_SDK/GD32VW55x_RELEASE_V1.0.2/MSDK/lwip/lwip-2.1.2/src/core\mem.c ****       ((nmem != ram_end) && (nmem->prev != rmem_idx))) {
 561:C:/Users/stapi/OneDrive/Desktop/GD32VW553/V1_MQTT_OK/GD32VW55X_Wifi_BLE_SDK/GD32VW55x_RELEASE_V1.0.2/MSDK/lwip/lwip-2.1.2/src/core\mem.c ****     return 0;
 562:C:/Users/stapi/OneDrive/Desktop/GD32VW553/V1_MQTT_OK/GD32VW55X_Wifi_BLE_SDK/GD32VW55x_RELEASE_V1.0.2/MSDK/lwip/lwip-2.1.2/src/core\mem.c ****   }
 563:C:/Users/stapi/OneDrive/Desktop/GD32VW553/V1_MQTT_OK/GD32VW55X_Wifi_BLE_SDK/GD32VW55x_RELEASE_V1.0.2/MSDK/lwip/lwip-2.1.2/src/core\mem.c ****   return 1;
 564:C:/Users/stapi/OneDrive/Desktop/GD32VW553/V1_MQTT_OK/GD32VW55X_Wifi_BLE_SDK/GD32VW55x_RELEASE_V1.0.2/MSDK/lwip/lwip-2.1.2/src/core\mem.c **** }
 565:C:/Users/stapi/OneDrive/Desktop/GD32VW553/V1_MQTT_OK/GD32VW55X_Wifi_BLE_SDK/GD32VW55x_RELEASE_V1.0.2/MSDK/lwip/lwip-2.1.2/src/core\mem.c **** 
 566:C:/Users/stapi/OneDrive/Desktop/GD32VW553/V1_MQTT_OK/GD32VW55X_Wifi_BLE_SDK/GD32VW55x_RELEASE_V1.0.2/MSDK/lwip/lwip-2.1.2/src/core\mem.c **** #if MEM_SANITY_CHECK
 567:C:/Users/stapi/OneDrive/Desktop/GD32VW553/V1_MQTT_OK/GD32VW55X_Wifi_BLE_SDK/GD32VW55x_RELEASE_V1.0.2/MSDK/lwip/lwip-2.1.2/src/core\mem.c **** static void
 568:C:/Users/stapi/OneDrive/Desktop/GD32VW553/V1_MQTT_OK/GD32VW55X_Wifi_BLE_SDK/GD32VW55x_RELEASE_V1.0.2/MSDK/lwip/lwip-2.1.2/src/core\mem.c **** mem_sanity(void)
 569:C:/Users/stapi/OneDrive/Desktop/GD32VW553/V1_MQTT_OK/GD32VW55X_Wifi_BLE_SDK/GD32VW55x_RELEASE_V1.0.2/MSDK/lwip/lwip-2.1.2/src/core\mem.c **** {
 570:C:/Users/stapi/OneDrive/Desktop/GD32VW553/V1_MQTT_OK/GD32VW55X_Wifi_BLE_SDK/GD32VW55x_RELEASE_V1.0.2/MSDK/lwip/lwip-2.1.2/src/core\mem.c ****   struct mem *mem;
 571:C:/Users/stapi/OneDrive/Desktop/GD32VW553/V1_MQTT_OK/GD32VW55X_Wifi_BLE_SDK/GD32VW55x_RELEASE_V1.0.2/MSDK/lwip/lwip-2.1.2/src/core\mem.c ****   u8_t last_used;
 572:C:/Users/stapi/OneDrive/Desktop/GD32VW553/V1_MQTT_OK/GD32VW55X_Wifi_BLE_SDK/GD32VW55x_RELEASE_V1.0.2/MSDK/lwip/lwip-2.1.2/src/core\mem.c **** 
 573:C:/Users/stapi/OneDrive/Desktop/GD32VW553/V1_MQTT_OK/GD32VW55X_Wifi_BLE_SDK/GD32VW55x_RELEASE_V1.0.2/MSDK/lwip/lwip-2.1.2/src/core\mem.c ****   /* begin with first element here */
 574:C:/Users/stapi/OneDrive/Desktop/GD32VW553/V1_MQTT_OK/GD32VW55X_Wifi_BLE_SDK/GD32VW55x_RELEASE_V1.0.2/MSDK/lwip/lwip-2.1.2/src/core\mem.c ****   mem = (struct mem *)ram;
 575:C:/Users/stapi/OneDrive/Desktop/GD32VW553/V1_MQTT_OK/GD32VW55X_Wifi_BLE_SDK/GD32VW55x_RELEASE_V1.0.2/MSDK/lwip/lwip-2.1.2/src/core\mem.c ****   LWIP_ASSERT("heap element used valid", (mem->used == 0) || (mem->used == 1));
 576:C:/Users/stapi/OneDrive/Desktop/GD32VW553/V1_MQTT_OK/GD32VW55X_Wifi_BLE_SDK/GD32VW55x_RELEASE_V1.0.2/MSDK/lwip/lwip-2.1.2/src/core\mem.c ****   last_used = mem->used;
 577:C:/Users/stapi/OneDrive/Desktop/GD32VW553/V1_MQTT_OK/GD32VW55X_Wifi_BLE_SDK/GD32VW55x_RELEASE_V1.0.2/MSDK/lwip/lwip-2.1.2/src/core\mem.c ****   LWIP_ASSERT("heap element prev ptr valid", mem->prev == 0);
 578:C:/Users/stapi/OneDrive/Desktop/GD32VW553/V1_MQTT_OK/GD32VW55X_Wifi_BLE_SDK/GD32VW55x_RELEASE_V1.0.2/MSDK/lwip/lwip-2.1.2/src/core\mem.c ****   LWIP_ASSERT("heap element next ptr valid", mem->next <= MEM_SIZE_ALIGNED);
 579:C:/Users/stapi/OneDrive/Desktop/GD32VW553/V1_MQTT_OK/GD32VW55X_Wifi_BLE_SDK/GD32VW55x_RELEASE_V1.0.2/MSDK/lwip/lwip-2.1.2/src/core\mem.c ****   LWIP_ASSERT("heap element next ptr aligned", LWIP_MEM_ALIGN(ptr_to_mem(mem->next) == ptr_to_mem(m
 580:C:/Users/stapi/OneDrive/Desktop/GD32VW553/V1_MQTT_OK/GD32VW55X_Wifi_BLE_SDK/GD32VW55x_RELEASE_V1.0.2/MSDK/lwip/lwip-2.1.2/src/core\mem.c **** 
 581:C:/Users/stapi/OneDrive/Desktop/GD32VW553/V1_MQTT_OK/GD32VW55X_Wifi_BLE_SDK/GD32VW55x_RELEASE_V1.0.2/MSDK/lwip/lwip-2.1.2/src/core\mem.c ****   /* check all elements before the end of the heap */
 582:C:/Users/stapi/OneDrive/Desktop/GD32VW553/V1_MQTT_OK/GD32VW55X_Wifi_BLE_SDK/GD32VW55x_RELEASE_V1.0.2/MSDK/lwip/lwip-2.1.2/src/core\mem.c ****   for (mem = ptr_to_mem(mem->next);
 583:C:/Users/stapi/OneDrive/Desktop/GD32VW553/V1_MQTT_OK/GD32VW55X_Wifi_BLE_SDK/GD32VW55x_RELEASE_V1.0.2/MSDK/lwip/lwip-2.1.2/src/core\mem.c ****        ((u8_t *)mem > ram) && (mem < ram_end);
 584:C:/Users/stapi/OneDrive/Desktop/GD32VW553/V1_MQTT_OK/GD32VW55X_Wifi_BLE_SDK/GD32VW55x_RELEASE_V1.0.2/MSDK/lwip/lwip-2.1.2/src/core\mem.c ****        mem = ptr_to_mem(mem->next)) {
 585:C:/Users/stapi/OneDrive/Desktop/GD32VW553/V1_MQTT_OK/GD32VW55X_Wifi_BLE_SDK/GD32VW55x_RELEASE_V1.0.2/MSDK/lwip/lwip-2.1.2/src/core\mem.c ****     LWIP_ASSERT("heap element aligned", LWIP_MEM_ALIGN(mem) == mem);
 586:C:/Users/stapi/OneDrive/Desktop/GD32VW553/V1_MQTT_OK/GD32VW55X_Wifi_BLE_SDK/GD32VW55x_RELEASE_V1.0.2/MSDK/lwip/lwip-2.1.2/src/core\mem.c ****     LWIP_ASSERT("heap element prev ptr valid", mem->prev <= MEM_SIZE_ALIGNED);
 587:C:/Users/stapi/OneDrive/Desktop/GD32VW553/V1_MQTT_OK/GD32VW55X_Wifi_BLE_SDK/GD32VW55x_RELEASE_V1.0.2/MSDK/lwip/lwip-2.1.2/src/core\mem.c ****     LWIP_ASSERT("heap element next ptr valid", mem->next <= MEM_SIZE_ALIGNED);
 588:C:/Users/stapi/OneDrive/Desktop/GD32VW553/V1_MQTT_OK/GD32VW55X_Wifi_BLE_SDK/GD32VW55x_RELEASE_V1.0.2/MSDK/lwip/lwip-2.1.2/src/core\mem.c ****     LWIP_ASSERT("heap element prev ptr aligned", LWIP_MEM_ALIGN(ptr_to_mem(mem->prev) == ptr_to_mem
 589:C:/Users/stapi/OneDrive/Desktop/GD32VW553/V1_MQTT_OK/GD32VW55X_Wifi_BLE_SDK/GD32VW55x_RELEASE_V1.0.2/MSDK/lwip/lwip-2.1.2/src/core\mem.c ****     LWIP_ASSERT("heap element next ptr aligned", LWIP_MEM_ALIGN(ptr_to_mem(mem->next) == ptr_to_mem
 590:C:/Users/stapi/OneDrive/Desktop/GD32VW553/V1_MQTT_OK/GD32VW55X_Wifi_BLE_SDK/GD32VW55x_RELEASE_V1.0.2/MSDK/lwip/lwip-2.1.2/src/core\mem.c **** 
 591:C:/Users/stapi/OneDrive/Desktop/GD32VW553/V1_MQTT_OK/GD32VW55X_Wifi_BLE_SDK/GD32VW55x_RELEASE_V1.0.2/MSDK/lwip/lwip-2.1.2/src/core\mem.c ****     if (last_used == 0) {
 592:C:/Users/stapi/OneDrive/Desktop/GD32VW553/V1_MQTT_OK/GD32VW55X_Wifi_BLE_SDK/GD32VW55x_RELEASE_V1.0.2/MSDK/lwip/lwip-2.1.2/src/core\mem.c ****       /* 2 unused elements in a row? */
 593:C:/Users/stapi/OneDrive/Desktop/GD32VW553/V1_MQTT_OK/GD32VW55X_Wifi_BLE_SDK/GD32VW55x_RELEASE_V1.0.2/MSDK/lwip/lwip-2.1.2/src/core\mem.c ****       LWIP_ASSERT("heap element unused?", mem->used == 1);
 594:C:/Users/stapi/OneDrive/Desktop/GD32VW553/V1_MQTT_OK/GD32VW55X_Wifi_BLE_SDK/GD32VW55x_RELEASE_V1.0.2/MSDK/lwip/lwip-2.1.2/src/core\mem.c ****     } else {
 595:C:/Users/stapi/OneDrive/Desktop/GD32VW553/V1_MQTT_OK/GD32VW55X_Wifi_BLE_SDK/GD32VW55x_RELEASE_V1.0.2/MSDK/lwip/lwip-2.1.2/src/core\mem.c ****       LWIP_ASSERT("heap element unused member", (mem->used == 0) || (mem->used == 1));
 596:C:/Users/stapi/OneDrive/Desktop/GD32VW553/V1_MQTT_OK/GD32VW55X_Wifi_BLE_SDK/GD32VW55x_RELEASE_V1.0.2/MSDK/lwip/lwip-2.1.2/src/core\mem.c ****     }
 597:C:/Users/stapi/OneDrive/Desktop/GD32VW553/V1_MQTT_OK/GD32VW55X_Wifi_BLE_SDK/GD32VW55x_RELEASE_V1.0.2/MSDK/lwip/lwip-2.1.2/src/core\mem.c **** 
 598:C:/Users/stapi/OneDrive/Desktop/GD32VW553/V1_MQTT_OK/GD32VW55X_Wifi_BLE_SDK/GD32VW55x_RELEASE_V1.0.2/MSDK/lwip/lwip-2.1.2/src/core\mem.c ****     LWIP_ASSERT("heap element link valid", mem_link_valid(mem));
 599:C:/Users/stapi/OneDrive/Desktop/GD32VW553/V1_MQTT_OK/GD32VW55X_Wifi_BLE_SDK/GD32VW55x_RELEASE_V1.0.2/MSDK/lwip/lwip-2.1.2/src/core\mem.c **** 
 600:C:/Users/stapi/OneDrive/Desktop/GD32VW553/V1_MQTT_OK/GD32VW55X_Wifi_BLE_SDK/GD32VW55x_RELEASE_V1.0.2/MSDK/lwip/lwip-2.1.2/src/core\mem.c ****     /* used/unused altering */
 601:C:/Users/stapi/OneDrive/Desktop/GD32VW553/V1_MQTT_OK/GD32VW55X_Wifi_BLE_SDK/GD32VW55x_RELEASE_V1.0.2/MSDK/lwip/lwip-2.1.2/src/core\mem.c ****     last_used = mem->used;
 602:C:/Users/stapi/OneDrive/Desktop/GD32VW553/V1_MQTT_OK/GD32VW55X_Wifi_BLE_SDK/GD32VW55x_RELEASE_V1.0.2/MSDK/lwip/lwip-2.1.2/src/core\mem.c ****   }
 603:C:/Users/stapi/OneDrive/Desktop/GD32VW553/V1_MQTT_OK/GD32VW55X_Wifi_BLE_SDK/GD32VW55x_RELEASE_V1.0.2/MSDK/lwip/lwip-2.1.2/src/core\mem.c ****   LWIP_ASSERT("heap end ptr sanity", mem == ptr_to_mem(MEM_SIZE_ALIGNED));
 604:C:/Users/stapi/OneDrive/Desktop/GD32VW553/V1_MQTT_OK/GD32VW55X_Wifi_BLE_SDK/GD32VW55x_RELEASE_V1.0.2/MSDK/lwip/lwip-2.1.2/src/core\mem.c ****   LWIP_ASSERT("heap element used valid", mem->used == 1);
 605:C:/Users/stapi/OneDrive/Desktop/GD32VW553/V1_MQTT_OK/GD32VW55X_Wifi_BLE_SDK/GD32VW55x_RELEASE_V1.0.2/MSDK/lwip/lwip-2.1.2/src/core\mem.c ****   LWIP_ASSERT("heap element prev ptr valid", mem->prev == MEM_SIZE_ALIGNED);
 606:C:/Users/stapi/OneDrive/Desktop/GD32VW553/V1_MQTT_OK/GD32VW55X_Wifi_BLE_SDK/GD32VW55x_RELEASE_V1.0.2/MSDK/lwip/lwip-2.1.2/src/core\mem.c ****   LWIP_ASSERT("heap element next ptr valid", mem->next == MEM_SIZE_ALIGNED);
 607:C:/Users/stapi/OneDrive/Desktop/GD32VW553/V1_MQTT_OK/GD32VW55X_Wifi_BLE_SDK/GD32VW55x_RELEASE_V1.0.2/MSDK/lwip/lwip-2.1.2/src/core\mem.c **** }
 608:C:/Users/stapi/OneDrive/Desktop/GD32VW553/V1_MQTT_OK/GD32VW55X_Wifi_BLE_SDK/GD32VW55x_RELEASE_V1.0.2/MSDK/lwip/lwip-2.1.2/src/core\mem.c **** #endif /* MEM_SANITY_CHECK */
 609:C:/Users/stapi/OneDrive/Desktop/GD32VW553/V1_MQTT_OK/GD32VW55X_Wifi_BLE_SDK/GD32VW55x_RELEASE_V1.0.2/MSDK/lwip/lwip-2.1.2/src/core\mem.c **** 
 610:C:/Users/stapi/OneDrive/Desktop/GD32VW553/V1_MQTT_OK/GD32VW55X_Wifi_BLE_SDK/GD32VW55x_RELEASE_V1.0.2/MSDK/lwip/lwip-2.1.2/src/core\mem.c **** /**
 611:C:/Users/stapi/OneDrive/Desktop/GD32VW553/V1_MQTT_OK/GD32VW55X_Wifi_BLE_SDK/GD32VW55x_RELEASE_V1.0.2/MSDK/lwip/lwip-2.1.2/src/core\mem.c ****  * Put a struct mem back on the heap
 612:C:/Users/stapi/OneDrive/Desktop/GD32VW553/V1_MQTT_OK/GD32VW55X_Wifi_BLE_SDK/GD32VW55x_RELEASE_V1.0.2/MSDK/lwip/lwip-2.1.2/src/core\mem.c ****  *
 613:C:/Users/stapi/OneDrive/Desktop/GD32VW553/V1_MQTT_OK/GD32VW55X_Wifi_BLE_SDK/GD32VW55x_RELEASE_V1.0.2/MSDK/lwip/lwip-2.1.2/src/core\mem.c ****  * @param rmem is the data portion of a struct mem as returned by a previous
 614:C:/Users/stapi/OneDrive/Desktop/GD32VW553/V1_MQTT_OK/GD32VW55X_Wifi_BLE_SDK/GD32VW55x_RELEASE_V1.0.2/MSDK/lwip/lwip-2.1.2/src/core\mem.c ****  *             call to mem_malloc()
 615:C:/Users/stapi/OneDrive/Desktop/GD32VW553/V1_MQTT_OK/GD32VW55X_Wifi_BLE_SDK/GD32VW55x_RELEASE_V1.0.2/MSDK/lwip/lwip-2.1.2/src/core\mem.c ****  */
 616:C:/Users/stapi/OneDrive/Desktop/GD32VW553/V1_MQTT_OK/GD32VW55X_Wifi_BLE_SDK/GD32VW55x_RELEASE_V1.0.2/MSDK/lwip/lwip-2.1.2/src/core\mem.c **** void
 617:C:/Users/stapi/OneDrive/Desktop/GD32VW553/V1_MQTT_OK/GD32VW55X_Wifi_BLE_SDK/GD32VW55x_RELEASE_V1.0.2/MSDK/lwip/lwip-2.1.2/src/core\mem.c **** mem_free(void *rmem)
 618:C:/Users/stapi/OneDrive/Desktop/GD32VW553/V1_MQTT_OK/GD32VW55X_Wifi_BLE_SDK/GD32VW55x_RELEASE_V1.0.2/MSDK/lwip/lwip-2.1.2/src/core\mem.c **** {
 151              		.loc 1 618 1 is_stmt 1
 152              		.cfi_startproc
 153              	.LVL4:
 619:C:/Users/stapi/OneDrive/Desktop/GD32VW553/V1_MQTT_OK/GD32VW55X_Wifi_BLE_SDK/GD32VW55x_RELEASE_V1.0.2/MSDK/lwip/lwip-2.1.2/src/core\mem.c ****   struct mem *mem;
 154              		.loc 1 619 3
 620:C:/Users/stapi/OneDrive/Desktop/GD32VW553/V1_MQTT_OK/GD32VW55X_Wifi_BLE_SDK/GD32VW55x_RELEASE_V1.0.2/MSDK/lwip/lwip-2.1.2/src/core\mem.c ****   LWIP_MEM_FREE_DECL_PROTECT();
 155              		.loc 1 620 31
 621:C:/Users/stapi/OneDrive/Desktop/GD32VW553/V1_MQTT_OK/GD32VW55X_Wifi_BLE_SDK/GD32VW55x_RELEASE_V1.0.2/MSDK/lwip/lwip-2.1.2/src/core\mem.c **** 
 622:C:/Users/stapi/OneDrive/Desktop/GD32VW553/V1_MQTT_OK/GD32VW55X_Wifi_BLE_SDK/GD32VW55x_RELEASE_V1.0.2/MSDK/lwip/lwip-2.1.2/src/core\mem.c ****   if (rmem == NULL) {
 156              		.loc 1 622 3
 157              		.loc 1 622 6 is_stmt 0
 158 0000 63090520 		beq	a0,zero,.L35
 618:C:/Users/stapi/OneDrive/Desktop/GD32VW553/V1_MQTT_OK/GD32VW55X_Wifi_BLE_SDK/GD32VW55x_RELEASE_V1.0.2/MSDK/lwip/lwip-2.1.2/src/core\mem.c ****   struct mem *mem;
 159              		.loc 1 618 1
 160 0004 17030000 		call	t0,__riscv_save_5
 160      E7020300 
 161              		.cfi_offset 20, -24
 162              		.cfi_offset 19, -20
 163              		.cfi_offset 18, -16
 164              		.cfi_offset 9, -12
 165              		.cfi_offset 8, -8
 166              		.cfi_offset 1, -4
 167              		.cfi_def_cfa_offset 32
 623:C:/Users/stapi/OneDrive/Desktop/GD32VW553/V1_MQTT_OK/GD32VW55X_Wifi_BLE_SDK/GD32VW55x_RELEASE_V1.0.2/MSDK/lwip/lwip-2.1.2/src/core\mem.c ****     LWIP_DEBUGF(MEM_DEBUG | LWIP_DBG_TRACE | LWIP_DBG_LEVEL_SERIOUS, ("mem_free(p == NULL) was call
 624:C:/Users/stapi/OneDrive/Desktop/GD32VW553/V1_MQTT_OK/GD32VW55X_Wifi_BLE_SDK/GD32VW55x_RELEASE_V1.0.2/MSDK/lwip/lwip-2.1.2/src/core\mem.c ****     return;
 625:C:/Users/stapi/OneDrive/Desktop/GD32VW553/V1_MQTT_OK/GD32VW55X_Wifi_BLE_SDK/GD32VW55x_RELEASE_V1.0.2/MSDK/lwip/lwip-2.1.2/src/core\mem.c ****   }
 626:C:/Users/stapi/OneDrive/Desktop/GD32VW553/V1_MQTT_OK/GD32VW55X_Wifi_BLE_SDK/GD32VW55x_RELEASE_V1.0.2/MSDK/lwip/lwip-2.1.2/src/core\mem.c ****   if ((((mem_ptr_t)rmem) & (MEM_ALIGNMENT - 1)) != 0) {
 168              		.loc 1 626 26
 169 000c 93773500 		andi	a5,a0,3
 170 0010 2A84     		mv	s0,a0
 171              		.loc 1 626 3 is_stmt 1
 172              		.loc 1 626 6 is_stmt 0
 173 0012 85C7     		beq	a5,zero,.L7
 627:C:/Users/stapi/OneDrive/Desktop/GD32VW553/V1_MQTT_OK/GD32VW55X_Wifi_BLE_SDK/GD32VW55x_RELEASE_V1.0.2/MSDK/lwip/lwip-2.1.2/src/core\mem.c ****     LWIP_MEM_ILLEGAL_FREE("mem_free: sanity check alignment");
 174              		.loc 1 627 5 is_stmt 1 discriminator 1
 175              		.loc 1 627 5 discriminator 1
 176              		.loc 1 627 5 discriminator 1
 177              		.loc 1 627 5 discriminator 1
 178 0014 B7060000 		lui	a3,%hi(.LC0)
 179 0018 B7050000 		lui	a1,%hi(.LC3)
 180 001c 37050000 		lui	a0,%hi(.LC2)
 181              	.LVL5:
 182 0020 93860600 		addi	a3,a3,%lo(.LC0)
 183 0024 13063027 		li	a2,627
 184 0028 93850500 		addi	a1,a1,%lo(.LC3)
 185 002c 13050500 		addi	a0,a0,%lo(.LC2)
 186 0030 97000000 		call	printf
 186      E7800000 
 187              	.LVL6:
 188              	.L8:
 189              		.loc 1 627 5 discriminator 1
 190              		.loc 1 627 5 discriminator 1
 191              		.loc 1 627 5 discriminator 1
 192 0038 01A0     		j	.L8
 193              	.L7:
 628:C:/Users/stapi/OneDrive/Desktop/GD32VW553/V1_MQTT_OK/GD32VW55X_Wifi_BLE_SDK/GD32VW55x_RELEASE_V1.0.2/MSDK/lwip/lwip-2.1.2/src/core\mem.c ****     LWIP_DEBUGF(MEM_DEBUG | LWIP_DBG_LEVEL_SEVERE, ("mem_free: sanity check alignment\n"));
 629:C:/Users/stapi/OneDrive/Desktop/GD32VW553/V1_MQTT_OK/GD32VW55X_Wifi_BLE_SDK/GD32VW55x_RELEASE_V1.0.2/MSDK/lwip/lwip-2.1.2/src/core\mem.c ****     /* protect mem stats from concurrent access */
 630:C:/Users/stapi/OneDrive/Desktop/GD32VW553/V1_MQTT_OK/GD32VW55X_Wifi_BLE_SDK/GD32VW55x_RELEASE_V1.0.2/MSDK/lwip/lwip-2.1.2/src/core\mem.c ****     MEM_STATS_INC_LOCKED(illegal);
 631:C:/Users/stapi/OneDrive/Desktop/GD32VW553/V1_MQTT_OK/GD32VW55X_Wifi_BLE_SDK/GD32VW55x_RELEASE_V1.0.2/MSDK/lwip/lwip-2.1.2/src/core\mem.c ****     return;
 632:C:/Users/stapi/OneDrive/Desktop/GD32VW553/V1_MQTT_OK/GD32VW55X_Wifi_BLE_SDK/GD32VW55x_RELEASE_V1.0.2/MSDK/lwip/lwip-2.1.2/src/core\mem.c ****   }
 633:C:/Users/stapi/OneDrive/Desktop/GD32VW553/V1_MQTT_OK/GD32VW55X_Wifi_BLE_SDK/GD32VW55x_RELEASE_V1.0.2/MSDK/lwip/lwip-2.1.2/src/core\mem.c **** 
 634:C:/Users/stapi/OneDrive/Desktop/GD32VW553/V1_MQTT_OK/GD32VW55X_Wifi_BLE_SDK/GD32VW55x_RELEASE_V1.0.2/MSDK/lwip/lwip-2.1.2/src/core\mem.c ****   /* Get the corresponding struct mem: */
 635:C:/Users/stapi/OneDrive/Desktop/GD32VW553/V1_MQTT_OK/GD32VW55X_Wifi_BLE_SDK/GD32VW55x_RELEASE_V1.0.2/MSDK/lwip/lwip-2.1.2/src/core\mem.c ****   /* cast through void* to get rid of alignment warnings */
 636:C:/Users/stapi/OneDrive/Desktop/GD32VW553/V1_MQTT_OK/GD32VW55X_Wifi_BLE_SDK/GD32VW55x_RELEASE_V1.0.2/MSDK/lwip/lwip-2.1.2/src/core\mem.c ****   mem = (struct mem *)(void *)((u8_t *)rmem - (SIZEOF_STRUCT_MEM + MEM_SANITY_OFFSET));
 194              		.loc 1 636 3
 637:C:/Users/stapi/OneDrive/Desktop/GD32VW553/V1_MQTT_OK/GD32VW55X_Wifi_BLE_SDK/GD32VW55x_RELEASE_V1.0.2/MSDK/lwip/lwip-2.1.2/src/core\mem.c **** 
 638:C:/Users/stapi/OneDrive/Desktop/GD32VW553/V1_MQTT_OK/GD32VW55X_Wifi_BLE_SDK/GD32VW55x_RELEASE_V1.0.2/MSDK/lwip/lwip-2.1.2/src/core\mem.c ****   if ((u8_t *)mem < ram || (u8_t *)rmem + MIN_SIZE_ALIGNED > (u8_t *)ram_end) {
 195              		.loc 1 638 19 is_stmt 0
 196 003a B7090000 		lui	s3,%hi(.LANCHOR0)
 197 003e 93890900 		addi	s3,s3,%lo(.LANCHOR0)
 198              		.loc 1 638 6
 199 0042 83A70900 		lw	a5,0(s3)
 636:C:/Users/stapi/OneDrive/Desktop/GD32VW553/V1_MQTT_OK/GD32VW55X_Wifi_BLE_SDK/GD32VW55x_RELEASE_V1.0.2/MSDK/lwip/lwip-2.1.2/src/core\mem.c **** 
 200              		.loc 1 636 7
 201 0046 930485FF 		addi	s1,a0,-8
 202              	.LVL7:
 203              		.loc 1 638 3 is_stmt 1
 204              		.loc 1 638 6 is_stmt 0
 205 004a 63ECF400 		bgtu	a5,s1,.L9
 206              		.loc 1 638 62 discriminator 1
 207 004e B7070000 		lui	a5,%hi(.LANCHOR1)
 208              		.loc 1 638 25 discriminator 1
 209 0052 83A60700 		lw	a3,%lo(.LANCHOR1)(a5)
 210              		.loc 1 638 41 discriminator 1
 211 0056 1307C500 		addi	a4,a0,12
 212 005a 13890700 		addi	s2,a5,%lo(.LANCHOR1)
 213              		.loc 1 638 25 discriminator 1
 214 005e 63F5E602 		bgeu	a3,a4,.L10
 215              	.L9:
 639:C:/Users/stapi/OneDrive/Desktop/GD32VW553/V1_MQTT_OK/GD32VW55X_Wifi_BLE_SDK/GD32VW55x_RELEASE_V1.0.2/MSDK/lwip/lwip-2.1.2/src/core\mem.c ****     LWIP_MEM_ILLEGAL_FREE("mem_free: illegal memory");
 216              		.loc 1 639 5 is_stmt 1 discriminator 1
 217              		.loc 1 639 5 discriminator 1
 218              		.loc 1 639 5 discriminator 1
 219              		.loc 1 639 5 discriminator 1
 220 0062 B7060000 		lui	a3,%hi(.LC0)
 221 0066 B7050000 		lui	a1,%hi(.LC4)
 222 006a 37050000 		lui	a0,%hi(.LC2)
 223 006e 93860600 		addi	a3,a3,%lo(.LC0)
 224 0072 1306F027 		li	a2,639
 225 0076 93850500 		addi	a1,a1,%lo(.LC4)
 226 007a 13050500 		addi	a0,a0,%lo(.LC2)
 227 007e 97000000 		call	printf
 227      E7800000 
 228              	.LVL8:
 229              	.L11:
 230              		.loc 1 639 5 discriminator 2
 231              		.loc 1 639 5 discriminator 2
 232              		.loc 1 639 5 discriminator 2
 233 0086 01A0     		j	.L11
 234              	.L10:
 640:C:/Users/stapi/OneDrive/Desktop/GD32VW553/V1_MQTT_OK/GD32VW55X_Wifi_BLE_SDK/GD32VW55x_RELEASE_V1.0.2/MSDK/lwip/lwip-2.1.2/src/core\mem.c ****     LWIP_DEBUGF(MEM_DEBUG | LWIP_DBG_LEVEL_SEVERE, ("mem_free: illegal memory\n"));
 641:C:/Users/stapi/OneDrive/Desktop/GD32VW553/V1_MQTT_OK/GD32VW55X_Wifi_BLE_SDK/GD32VW55x_RELEASE_V1.0.2/MSDK/lwip/lwip-2.1.2/src/core\mem.c ****     /* protect mem stats from concurrent access */
 642:C:/Users/stapi/OneDrive/Desktop/GD32VW553/V1_MQTT_OK/GD32VW55X_Wifi_BLE_SDK/GD32VW55x_RELEASE_V1.0.2/MSDK/lwip/lwip-2.1.2/src/core\mem.c ****     MEM_STATS_INC_LOCKED(illegal);
 643:C:/Users/stapi/OneDrive/Desktop/GD32VW553/V1_MQTT_OK/GD32VW55X_Wifi_BLE_SDK/GD32VW55x_RELEASE_V1.0.2/MSDK/lwip/lwip-2.1.2/src/core\mem.c ****     return;
 644:C:/Users/stapi/OneDrive/Desktop/GD32VW553/V1_MQTT_OK/GD32VW55X_Wifi_BLE_SDK/GD32VW55x_RELEASE_V1.0.2/MSDK/lwip/lwip-2.1.2/src/core\mem.c ****   }
 645:C:/Users/stapi/OneDrive/Desktop/GD32VW553/V1_MQTT_OK/GD32VW55X_Wifi_BLE_SDK/GD32VW55x_RELEASE_V1.0.2/MSDK/lwip/lwip-2.1.2/src/core\mem.c **** #if MEM_OVERFLOW_CHECK
 646:C:/Users/stapi/OneDrive/Desktop/GD32VW553/V1_MQTT_OK/GD32VW55X_Wifi_BLE_SDK/GD32VW55x_RELEASE_V1.0.2/MSDK/lwip/lwip-2.1.2/src/core\mem.c ****   mem_overflow_check_element(mem);
 647:C:/Users/stapi/OneDrive/Desktop/GD32VW553/V1_MQTT_OK/GD32VW55X_Wifi_BLE_SDK/GD32VW55x_RELEASE_V1.0.2/MSDK/lwip/lwip-2.1.2/src/core\mem.c **** #endif
 648:C:/Users/stapi/OneDrive/Desktop/GD32VW553/V1_MQTT_OK/GD32VW55X_Wifi_BLE_SDK/GD32VW55x_RELEASE_V1.0.2/MSDK/lwip/lwip-2.1.2/src/core\mem.c ****   /* protect the heap from concurrent access */
 649:C:/Users/stapi/OneDrive/Desktop/GD32VW553/V1_MQTT_OK/GD32VW55X_Wifi_BLE_SDK/GD32VW55x_RELEASE_V1.0.2/MSDK/lwip/lwip-2.1.2/src/core\mem.c ****   LWIP_MEM_FREE_PROTECT();
 235              		.loc 1 649 3
 236 0088 370A0000 		lui	s4,%hi(.LANCHOR3)
 237 008c 13050A00 		addi	a0,s4,%lo(.LANCHOR3)
 238 0090 97000000 		call	sys_mutex_get
 238      E7800000 
 239              	.LVL9:
 650:C:/Users/stapi/OneDrive/Desktop/GD32VW553/V1_MQTT_OK/GD32VW55X_Wifi_BLE_SDK/GD32VW55x_RELEASE_V1.0.2/MSDK/lwip/lwip-2.1.2/src/core\mem.c ****   /* mem has to be in a used state */
 651:C:/Users/stapi/OneDrive/Desktop/GD32VW553/V1_MQTT_OK/GD32VW55X_Wifi_BLE_SDK/GD32VW55x_RELEASE_V1.0.2/MSDK/lwip/lwip-2.1.2/src/core\mem.c ****   if (!mem->used) {
 240              		.loc 1 651 3
 241              		.loc 1 651 6 is_stmt 0
 242 0098 8347C4FF 		lbu	a5,-4(s0)
 243 009c 85E7     		bne	a5,zero,.L12
 652:C:/Users/stapi/OneDrive/Desktop/GD32VW553/V1_MQTT_OK/GD32VW55X_Wifi_BLE_SDK/GD32VW55x_RELEASE_V1.0.2/MSDK/lwip/lwip-2.1.2/src/core\mem.c ****     LWIP_MEM_ILLEGAL_FREE("mem_free: illegal memory: double free");
 244              		.loc 1 652 5 is_stmt 1 discriminator 1
 245              		.loc 1 652 5 discriminator 1
 246              		.loc 1 652 5 discriminator 1
 247              		.loc 1 652 5 discriminator 1
 248 009e B7060000 		lui	a3,%hi(.LC0)
 249 00a2 B7050000 		lui	a1,%hi(.LC5)
 250 00a6 37050000 		lui	a0,%hi(.LC2)
 251 00aa 93860600 		addi	a3,a3,%lo(.LC0)
 252 00ae 1306C028 		li	a2,652
 253 00b2 93850500 		addi	a1,a1,%lo(.LC5)
 254 00b6 13050500 		addi	a0,a0,%lo(.LC2)
 255 00ba 97000000 		call	printf
 255      E7800000 
 256              	.LVL10:
 257              	.L13:
 258              		.loc 1 652 5 discriminator 3
 259              		.loc 1 652 5 discriminator 3
 260              		.loc 1 652 5 discriminator 3
 261 00c2 01A0     		j	.L13
 262              	.L12:
 653:C:/Users/stapi/OneDrive/Desktop/GD32VW553/V1_MQTT_OK/GD32VW55X_Wifi_BLE_SDK/GD32VW55x_RELEASE_V1.0.2/MSDK/lwip/lwip-2.1.2/src/core\mem.c ****     LWIP_MEM_FREE_UNPROTECT();
 654:C:/Users/stapi/OneDrive/Desktop/GD32VW553/V1_MQTT_OK/GD32VW55X_Wifi_BLE_SDK/GD32VW55x_RELEASE_V1.0.2/MSDK/lwip/lwip-2.1.2/src/core\mem.c ****     LWIP_DEBUGF(MEM_DEBUG | LWIP_DBG_LEVEL_SEVERE, ("mem_free: illegal memory: double free?\n"));
 655:C:/Users/stapi/OneDrive/Desktop/GD32VW553/V1_MQTT_OK/GD32VW55X_Wifi_BLE_SDK/GD32VW55x_RELEASE_V1.0.2/MSDK/lwip/lwip-2.1.2/src/core\mem.c ****     /* protect mem stats from concurrent access */
 656:C:/Users/stapi/OneDrive/Desktop/GD32VW553/V1_MQTT_OK/GD32VW55X_Wifi_BLE_SDK/GD32VW55x_RELEASE_V1.0.2/MSDK/lwip/lwip-2.1.2/src/core\mem.c ****     MEM_STATS_INC_LOCKED(illegal);
 657:C:/Users/stapi/OneDrive/Desktop/GD32VW553/V1_MQTT_OK/GD32VW55X_Wifi_BLE_SDK/GD32VW55x_RELEASE_V1.0.2/MSDK/lwip/lwip-2.1.2/src/core\mem.c ****     return;
 658:C:/Users/stapi/OneDrive/Desktop/GD32VW553/V1_MQTT_OK/GD32VW55X_Wifi_BLE_SDK/GD32VW55x_RELEASE_V1.0.2/MSDK/lwip/lwip-2.1.2/src/core\mem.c ****   }
 659:C:/Users/stapi/OneDrive/Desktop/GD32VW553/V1_MQTT_OK/GD32VW55X_Wifi_BLE_SDK/GD32VW55x_RELEASE_V1.0.2/MSDK/lwip/lwip-2.1.2/src/core\mem.c **** 
 660:C:/Users/stapi/OneDrive/Desktop/GD32VW553/V1_MQTT_OK/GD32VW55X_Wifi_BLE_SDK/GD32VW55x_RELEASE_V1.0.2/MSDK/lwip/lwip-2.1.2/src/core\mem.c ****   if (!mem_link_valid(mem)) {
 263              		.loc 1 660 3
 264              	.LVL11:
 265              	.LBB76:
 266              	.LBB77:
 553:C:/Users/stapi/OneDrive/Desktop/GD32VW553/V1_MQTT_OK/GD32VW55X_Wifi_BLE_SDK/GD32VW55x_RELEASE_V1.0.2/MSDK/lwip/lwip-2.1.2/src/core\mem.c ****   mem_size_t rmem_idx;
 267              		.loc 1 553 3
 554:C:/Users/stapi/OneDrive/Desktop/GD32VW553/V1_MQTT_OK/GD32VW55X_Wifi_BLE_SDK/GD32VW55x_RELEASE_V1.0.2/MSDK/lwip/lwip-2.1.2/src/core\mem.c ****   rmem_idx = mem_to_ptr(mem);
 268              		.loc 1 554 3
 555:C:/Users/stapi/OneDrive/Desktop/GD32VW553/V1_MQTT_OK/GD32VW55X_Wifi_BLE_SDK/GD32VW55x_RELEASE_V1.0.2/MSDK/lwip/lwip-2.1.2/src/core\mem.c ****   nmem = ptr_to_mem(mem->next);
 269              		.loc 1 555 3
 270              	.LBB78:
 271              	.LBB79:
 459:C:/Users/stapi/OneDrive/Desktop/GD32VW553/V1_MQTT_OK/GD32VW55X_Wifi_BLE_SDK/GD32VW55x_RELEASE_V1.0.2/MSDK/lwip/lwip-2.1.2/src/core\mem.c **** }
 272              		.loc 1 459 3
 273              	.LBE79:
 274              	.LBE78:
 556:C:/Users/stapi/OneDrive/Desktop/GD32VW553/V1_MQTT_OK/GD32VW55X_Wifi_BLE_SDK/GD32VW55x_RELEASE_V1.0.2/MSDK/lwip/lwip-2.1.2/src/core\mem.c ****   pmem = ptr_to_mem(mem->prev);
 275              		.loc 1 556 3
 556:C:/Users/stapi/OneDrive/Desktop/GD32VW553/V1_MQTT_OK/GD32VW55X_Wifi_BLE_SDK/GD32VW55x_RELEASE_V1.0.2/MSDK/lwip/lwip-2.1.2/src/core\mem.c ****   pmem = ptr_to_mem(mem->prev);
 276              		.loc 1 556 10 is_stmt 0
 277 00c4 835784FF 		lhu	a5,-8(s0)
 278              	.LVL12:
 279              	.LBB81:
 280              	.LBB82:
 453:C:/Users/stapi/OneDrive/Desktop/GD32VW553/V1_MQTT_OK/GD32VW55X_Wifi_BLE_SDK/GD32VW55x_RELEASE_V1.0.2/MSDK/lwip/lwip-2.1.2/src/core\mem.c **** }
 281              		.loc 1 453 3 is_stmt 1
 282              	.LBE82:
 283              	.LBE81:
 557:C:/Users/stapi/OneDrive/Desktop/GD32VW553/V1_MQTT_OK/GD32VW55X_Wifi_BLE_SDK/GD32VW55x_RELEASE_V1.0.2/MSDK/lwip/lwip-2.1.2/src/core\mem.c ****   if ((mem->next > MEM_SIZE_ALIGNED) || (mem->prev > MEM_SIZE_ALIGNED) ||
 284              		.loc 1 557 3
 285              	.LBB84:
 286              	.LBB85:
 453:C:/Users/stapi/OneDrive/Desktop/GD32VW553/V1_MQTT_OK/GD32VW55X_Wifi_BLE_SDK/GD32VW55x_RELEASE_V1.0.2/MSDK/lwip/lwip-2.1.2/src/core\mem.c **** }
 287              		.loc 1 453 3
 288              	.LBE85:
 289              	.LBE84:
 558:C:/Users/stapi/OneDrive/Desktop/GD32VW553/V1_MQTT_OK/GD32VW55X_Wifi_BLE_SDK/GD32VW55x_RELEASE_V1.0.2/MSDK/lwip/lwip-2.1.2/src/core\mem.c ****       ((mem->prev != rmem_idx) && (pmem->next != rmem_idx)) ||
 290              		.loc 1 558 3
 558:C:/Users/stapi/OneDrive/Desktop/GD32VW553/V1_MQTT_OK/GD32VW55X_Wifi_BLE_SDK/GD32VW55x_RELEASE_V1.0.2/MSDK/lwip/lwip-2.1.2/src/core\mem.c ****       ((mem->prev != rmem_idx) && (pmem->next != rmem_idx)) ||
 291              		.loc 1 558 6 is_stmt 0
 292 00c8 1967     		li	a4,24576
 293 00ca 1307C74E 		addi	a4,a4,1260
 294 00ce 636CF702 		bgtu	a5,a4,.L14
 557:C:/Users/stapi/OneDrive/Desktop/GD32VW553/V1_MQTT_OK/GD32VW55X_Wifi_BLE_SDK/GD32VW55x_RELEASE_V1.0.2/MSDK/lwip/lwip-2.1.2/src/core\mem.c ****   if ((mem->next > MEM_SIZE_ALIGNED) || (mem->prev > MEM_SIZE_ALIGNED) ||
 295              		.loc 1 557 10
 296 00d2 8356A4FF 		lhu	a3,-6(s0)
 558:C:/Users/stapi/OneDrive/Desktop/GD32VW553/V1_MQTT_OK/GD32VW55X_Wifi_BLE_SDK/GD32VW55x_RELEASE_V1.0.2/MSDK/lwip/lwip-2.1.2/src/core\mem.c ****       ((mem->prev != rmem_idx) && (pmem->next != rmem_idx)) ||
 297              		.loc 1 558 38
 298 00d6 6368D702 		bgtu	a3,a4,.L14
 299              	.LBB86:
 300              	.LBB80:
 459:C:/Users/stapi/OneDrive/Desktop/GD32VW553/V1_MQTT_OK/GD32VW55X_Wifi_BLE_SDK/GD32VW55x_RELEASE_V1.0.2/MSDK/lwip/lwip-2.1.2/src/core\mem.c **** }
 301              		.loc 1 459 35
 302 00da 03A70900 		lw	a4,0(s3)
 303 00de 3386E440 		sub	a2,s1,a4
 459:C:/Users/stapi/OneDrive/Desktop/GD32VW553/V1_MQTT_OK/GD32VW55X_Wifi_BLE_SDK/GD32VW55x_RELEASE_V1.0.2/MSDK/lwip/lwip-2.1.2/src/core\mem.c **** }
 304              		.loc 1 459 10
 305 00e2 33460608 		zext.h	a2,a2
 306              	.LBE80:
 307              	.LBE86:
 558:C:/Users/stapi/OneDrive/Desktop/GD32VW553/V1_MQTT_OK/GD32VW55X_Wifi_BLE_SDK/GD32VW55x_RELEASE_V1.0.2/MSDK/lwip/lwip-2.1.2/src/core\mem.c ****       ((mem->prev != rmem_idx) && (pmem->next != rmem_idx)) ||
 308              		.loc 1 558 72
 309 00e6 6307D600 		beq	a2,a3,.L15
 559:C:/Users/stapi/OneDrive/Desktop/GD32VW553/V1_MQTT_OK/GD32VW55X_Wifi_BLE_SDK/GD32VW55x_RELEASE_V1.0.2/MSDK/lwip/lwip-2.1.2/src/core\mem.c ****       ((nmem != ram_end) && (nmem->prev != rmem_idx))) {
 310              		.loc 1 559 40
 311 00ea BA96     		add	a3,a4,a3
 559:C:/Users/stapi/OneDrive/Desktop/GD32VW553/V1_MQTT_OK/GD32VW55X_Wifi_BLE_SDK/GD32VW55x_RELEASE_V1.0.2/MSDK/lwip/lwip-2.1.2/src/core\mem.c ****       ((nmem != ram_end) && (nmem->prev != rmem_idx))) {
 312              		.loc 1 559 32
 313 00ec 83D60600 		lhu	a3,0(a3)
 314 00f0 639BC600 		bne	a3,a2,.L14
 315              	.L15:
 560:C:/Users/stapi/OneDrive/Desktop/GD32VW553/V1_MQTT_OK/GD32VW55X_Wifi_BLE_SDK/GD32VW55x_RELEASE_V1.0.2/MSDK/lwip/lwip-2.1.2/src/core\mem.c ****     return 0;
 316              		.loc 1 560 14
 317 00f4 83250900 		lw	a1,0(s2)
 318              	.LBB87:
 319              	.LBB83:
 453:C:/Users/stapi/OneDrive/Desktop/GD32VW553/V1_MQTT_OK/GD32VW55X_Wifi_BLE_SDK/GD32VW55x_RELEASE_V1.0.2/MSDK/lwip/lwip-2.1.2/src/core\mem.c **** }
 320              		.loc 1 453 10
 321 00f8 BA97     		add	a5,a4,a5
 322              	.LVL13:
 323              	.LBE83:
 324              	.LBE87:
 559:C:/Users/stapi/OneDrive/Desktop/GD32VW553/V1_MQTT_OK/GD32VW55X_Wifi_BLE_SDK/GD32VW55x_RELEASE_V1.0.2/MSDK/lwip/lwip-2.1.2/src/core\mem.c ****       ((nmem != ram_end) && (nmem->prev != rmem_idx))) {
 325              		.loc 1 559 61
 326 00fa 6389B702 		beq	a5,a1,.L16
 560:C:/Users/stapi/OneDrive/Desktop/GD32VW553/V1_MQTT_OK/GD32VW55X_Wifi_BLE_SDK/GD32VW55x_RELEASE_V1.0.2/MSDK/lwip/lwip-2.1.2/src/core\mem.c ****     return 0;
 327              		.loc 1 560 26
 328 00fe 83D62700 		lhu	a3,2(a5)
 329 0102 6385C602 		beq	a3,a2,.L16
 330              	.L14:
 561:C:/Users/stapi/OneDrive/Desktop/GD32VW553/V1_MQTT_OK/GD32VW55X_Wifi_BLE_SDK/GD32VW55x_RELEASE_V1.0.2/MSDK/lwip/lwip-2.1.2/src/core\mem.c ****   }
 331              		.loc 1 561 5 is_stmt 1
 332              	.LVL14:
 333              	.LBE77:
 334              	.LBE76:
 661:C:/Users/stapi/OneDrive/Desktop/GD32VW553/V1_MQTT_OK/GD32VW55X_Wifi_BLE_SDK/GD32VW55x_RELEASE_V1.0.2/MSDK/lwip/lwip-2.1.2/src/core\mem.c ****     LWIP_MEM_ILLEGAL_FREE("mem_free: illegal memory: non-linked: double free");
 335              		.loc 1 661 5
 336              		.loc 1 661 5
 337              		.loc 1 661 5
 338              		.loc 1 661 5
 339 0106 B7060000 		lui	a3,%hi(.LC0)
 340 010a B7050000 		lui	a1,%hi(.LC6)
 341 010e 37050000 		lui	a0,%hi(.LC2)
 342 0112 93860600 		addi	a3,a3,%lo(.LC0)
 343 0116 13065029 		li	a2,661
 344 011a 93850500 		addi	a1,a1,%lo(.LC6)
 345 011e 13050500 		addi	a0,a0,%lo(.LC2)
 346 0122 97000000 		call	printf
 346      E7800000 
 347              	.LVL15:
 348              	.L17:
 349              		.loc 1 661 5 discriminator 4
 350              		.loc 1 661 5 discriminator 4
 351              		.loc 1 661 5 discriminator 4
 352 012a 01A0     		j	.L17
 353              	.LVL16:
 354              	.L16:
 662:C:/Users/stapi/OneDrive/Desktop/GD32VW553/V1_MQTT_OK/GD32VW55X_Wifi_BLE_SDK/GD32VW55x_RELEASE_V1.0.2/MSDK/lwip/lwip-2.1.2/src/core\mem.c ****     LWIP_MEM_FREE_UNPROTECT();
 663:C:/Users/stapi/OneDrive/Desktop/GD32VW553/V1_MQTT_OK/GD32VW55X_Wifi_BLE_SDK/GD32VW55x_RELEASE_V1.0.2/MSDK/lwip/lwip-2.1.2/src/core\mem.c ****     LWIP_DEBUGF(MEM_DEBUG | LWIP_DBG_LEVEL_SEVERE, ("mem_free: illegal memory: non-linked: double f
 664:C:/Users/stapi/OneDrive/Desktop/GD32VW553/V1_MQTT_OK/GD32VW55X_Wifi_BLE_SDK/GD32VW55x_RELEASE_V1.0.2/MSDK/lwip/lwip-2.1.2/src/core\mem.c ****     /* protect mem stats from concurrent access */
 665:C:/Users/stapi/OneDrive/Desktop/GD32VW553/V1_MQTT_OK/GD32VW55X_Wifi_BLE_SDK/GD32VW55x_RELEASE_V1.0.2/MSDK/lwip/lwip-2.1.2/src/core\mem.c ****     MEM_STATS_INC_LOCKED(illegal);
 666:C:/Users/stapi/OneDrive/Desktop/GD32VW553/V1_MQTT_OK/GD32VW55X_Wifi_BLE_SDK/GD32VW55x_RELEASE_V1.0.2/MSDK/lwip/lwip-2.1.2/src/core\mem.c ****     return;
 667:C:/Users/stapi/OneDrive/Desktop/GD32VW553/V1_MQTT_OK/GD32VW55X_Wifi_BLE_SDK/GD32VW55x_RELEASE_V1.0.2/MSDK/lwip/lwip-2.1.2/src/core\mem.c ****   }
 668:C:/Users/stapi/OneDrive/Desktop/GD32VW553/V1_MQTT_OK/GD32VW55X_Wifi_BLE_SDK/GD32VW55x_RELEASE_V1.0.2/MSDK/lwip/lwip-2.1.2/src/core\mem.c **** 
 669:C:/Users/stapi/OneDrive/Desktop/GD32VW553/V1_MQTT_OK/GD32VW55X_Wifi_BLE_SDK/GD32VW55x_RELEASE_V1.0.2/MSDK/lwip/lwip-2.1.2/src/core\mem.c ****   /* mem is now unused. */
 670:C:/Users/stapi/OneDrive/Desktop/GD32VW553/V1_MQTT_OK/GD32VW55X_Wifi_BLE_SDK/GD32VW55x_RELEASE_V1.0.2/MSDK/lwip/lwip-2.1.2/src/core\mem.c ****   mem->used = 0;
 355              		.loc 1 670 3
 671:C:/Users/stapi/OneDrive/Desktop/GD32VW553/V1_MQTT_OK/GD32VW55X_Wifi_BLE_SDK/GD32VW55x_RELEASE_V1.0.2/MSDK/lwip/lwip-2.1.2/src/core\mem.c **** 
 672:C:/Users/stapi/OneDrive/Desktop/GD32VW553/V1_MQTT_OK/GD32VW55X_Wifi_BLE_SDK/GD32VW55x_RELEASE_V1.0.2/MSDK/lwip/lwip-2.1.2/src/core\mem.c ****   if (mem < lfree) {
 356              		.loc 1 672 11 is_stmt 0
 357 012c B7060000 		lui	a3,%hi(.LANCHOR2)
 358              		.loc 1 672 6
 359 0130 03A50600 		lw	a0,%lo(.LANCHOR2)(a3)
 670:C:/Users/stapi/OneDrive/Desktop/GD32VW553/V1_MQTT_OK/GD32VW55X_Wifi_BLE_SDK/GD32VW55x_RELEASE_V1.0.2/MSDK/lwip/lwip-2.1.2/src/core\mem.c **** 
 360              		.loc 1 670 13
 361 0134 230E04FE 		sb	zero,-4(s0)
 362              		.loc 1 672 3 is_stmt 1
 363 0138 93860600 		addi	a3,a3,%lo(.LANCHOR2)
 364              		.loc 1 672 6 is_stmt 0
 365 013c 63F3A400 		bleu	a0,s1,.L18
 673:C:/Users/stapi/OneDrive/Desktop/GD32VW553/V1_MQTT_OK/GD32VW55X_Wifi_BLE_SDK/GD32VW55x_RELEASE_V1.0.2/MSDK/lwip/lwip-2.1.2/src/core\mem.c ****     /* the newly freed struct is now the lowest */
 674:C:/Users/stapi/OneDrive/Desktop/GD32VW553/V1_MQTT_OK/GD32VW55X_Wifi_BLE_SDK/GD32VW55x_RELEASE_V1.0.2/MSDK/lwip/lwip-2.1.2/src/core\mem.c ****     lfree = mem;
 366              		.loc 1 674 5 is_stmt 1
 367              		.loc 1 674 11 is_stmt 0
 368 0140 84C2     		sw	s1,0(a3)
 369              	.L18:
 675:C:/Users/stapi/OneDrive/Desktop/GD32VW553/V1_MQTT_OK/GD32VW55X_Wifi_BLE_SDK/GD32VW55x_RELEASE_V1.0.2/MSDK/lwip/lwip-2.1.2/src/core\mem.c ****   }
 676:C:/Users/stapi/OneDrive/Desktop/GD32VW553/V1_MQTT_OK/GD32VW55X_Wifi_BLE_SDK/GD32VW55x_RELEASE_V1.0.2/MSDK/lwip/lwip-2.1.2/src/core\mem.c **** 
 677:C:/Users/stapi/OneDrive/Desktop/GD32VW553/V1_MQTT_OK/GD32VW55X_Wifi_BLE_SDK/GD32VW55x_RELEASE_V1.0.2/MSDK/lwip/lwip-2.1.2/src/core\mem.c ****   MEM_STATS_DEC_USED(used, mem->next - (mem_size_t)(((u8_t *)mem - ram)));
 370              		.loc 1 677 74 is_stmt 1
 678:C:/Users/stapi/OneDrive/Desktop/GD32VW553/V1_MQTT_OK/GD32VW55X_Wifi_BLE_SDK/GD32VW55x_RELEASE_V1.0.2/MSDK/lwip/lwip-2.1.2/src/core\mem.c **** 
 679:C:/Users/stapi/OneDrive/Desktop/GD32VW553/V1_MQTT_OK/GD32VW55X_Wifi_BLE_SDK/GD32VW55x_RELEASE_V1.0.2/MSDK/lwip/lwip-2.1.2/src/core\mem.c ****   /* finally, see if prev or next are free also */
 680:C:/Users/stapi/OneDrive/Desktop/GD32VW553/V1_MQTT_OK/GD32VW55X_Wifi_BLE_SDK/GD32VW55x_RELEASE_V1.0.2/MSDK/lwip/lwip-2.1.2/src/core\mem.c ****   plug_holes(mem);
 371              		.loc 1 680 3
 372              	.LVL17:
 373              	.LBB88:
 374              	.LBB89:
 476:C:/Users/stapi/OneDrive/Desktop/GD32VW553/V1_MQTT_OK/GD32VW55X_Wifi_BLE_SDK/GD32VW55x_RELEASE_V1.0.2/MSDK/lwip/lwip-2.1.2/src/core\mem.c ****   struct mem *pmem;
 375              		.loc 1 476 3
 477:C:/Users/stapi/OneDrive/Desktop/GD32VW553/V1_MQTT_OK/GD32VW55X_Wifi_BLE_SDK/GD32VW55x_RELEASE_V1.0.2/MSDK/lwip/lwip-2.1.2/src/core\mem.c **** 
 376              		.loc 1 477 3
 479:C:/Users/stapi/OneDrive/Desktop/GD32VW553/V1_MQTT_OK/GD32VW55X_Wifi_BLE_SDK/GD32VW55x_RELEASE_V1.0.2/MSDK/lwip/lwip-2.1.2/src/core\mem.c ****   LWIP_ASSERT("plug_holes: mem < ram_end", (u8_t *)mem < (u8_t *)ram_end);
 377              		.loc 1 479 3
 479:C:/Users/stapi/OneDrive/Desktop/GD32VW553/V1_MQTT_OK/GD32VW55X_Wifi_BLE_SDK/GD32VW55x_RELEASE_V1.0.2/MSDK/lwip/lwip-2.1.2/src/core\mem.c ****   LWIP_ASSERT("plug_holes: mem < ram_end", (u8_t *)mem < (u8_t *)ram_end);
 378              		.loc 1 479 3
 379 0142 63F5E402 		bgeu	s1,a4,.L19
 479:C:/Users/stapi/OneDrive/Desktop/GD32VW553/V1_MQTT_OK/GD32VW55X_Wifi_BLE_SDK/GD32VW55x_RELEASE_V1.0.2/MSDK/lwip/lwip-2.1.2/src/core\mem.c ****   LWIP_ASSERT("plug_holes: mem < ram_end", (u8_t *)mem < (u8_t *)ram_end);
 380              		.loc 1 479 3
 479:C:/Users/stapi/OneDrive/Desktop/GD32VW553/V1_MQTT_OK/GD32VW55X_Wifi_BLE_SDK/GD32VW55x_RELEASE_V1.0.2/MSDK/lwip/lwip-2.1.2/src/core\mem.c ****   LWIP_ASSERT("plug_holes: mem < ram_end", (u8_t *)mem < (u8_t *)ram_end);
 381              		.loc 1 479 3
 382 0146 B7060000 		lui	a3,%hi(.LC0)
 383 014a B7050000 		lui	a1,%hi(.LC7)
 384 014e 37050000 		lui	a0,%hi(.LC2)
 385 0152 93860600 		addi	a3,a3,%lo(.LC0)
 386 0156 1306F01D 		li	a2,479
 387 015a 93850500 		addi	a1,a1,%lo(.LC7)
 388 015e 13050500 		addi	a0,a0,%lo(.LC2)
 389 0162 97000000 		call	printf
 389      E7800000 
 390              	.LVL18:
 391              	.L20:
 479:C:/Users/stapi/OneDrive/Desktop/GD32VW553/V1_MQTT_OK/GD32VW55X_Wifi_BLE_SDK/GD32VW55x_RELEASE_V1.0.2/MSDK/lwip/lwip-2.1.2/src/core\mem.c ****   LWIP_ASSERT("plug_holes: mem < ram_end", (u8_t *)mem < (u8_t *)ram_end);
 392              		.loc 1 479 3
 479:C:/Users/stapi/OneDrive/Desktop/GD32VW553/V1_MQTT_OK/GD32VW55X_Wifi_BLE_SDK/GD32VW55x_RELEASE_V1.0.2/MSDK/lwip/lwip-2.1.2/src/core\mem.c ****   LWIP_ASSERT("plug_holes: mem < ram_end", (u8_t *)mem < (u8_t *)ram_end);
 393              		.loc 1 479 3
 479:C:/Users/stapi/OneDrive/Desktop/GD32VW553/V1_MQTT_OK/GD32VW55X_Wifi_BLE_SDK/GD32VW55x_RELEASE_V1.0.2/MSDK/lwip/lwip-2.1.2/src/core\mem.c ****   LWIP_ASSERT("plug_holes: mem < ram_end", (u8_t *)mem < (u8_t *)ram_end);
 394              		.loc 1 479 3
 395 016a 01A0     		j	.L20
 396              	.LVL19:
 397              	.L19:
 479:C:/Users/stapi/OneDrive/Desktop/GD32VW553/V1_MQTT_OK/GD32VW55X_Wifi_BLE_SDK/GD32VW55x_RELEASE_V1.0.2/MSDK/lwip/lwip-2.1.2/src/core\mem.c ****   LWIP_ASSERT("plug_holes: mem < ram_end", (u8_t *)mem < (u8_t *)ram_end);
 398              		.loc 1 479 3
 479:C:/Users/stapi/OneDrive/Desktop/GD32VW553/V1_MQTT_OK/GD32VW55X_Wifi_BLE_SDK/GD32VW55x_RELEASE_V1.0.2/MSDK/lwip/lwip-2.1.2/src/core\mem.c ****   LWIP_ASSERT("plug_holes: mem < ram_end", (u8_t *)mem < (u8_t *)ram_end);
 399              		.loc 1 479 3
 480:C:/Users/stapi/OneDrive/Desktop/GD32VW553/V1_MQTT_OK/GD32VW55X_Wifi_BLE_SDK/GD32VW55x_RELEASE_V1.0.2/MSDK/lwip/lwip-2.1.2/src/core\mem.c ****   LWIP_ASSERT("plug_holes: mem->used == 0", mem->used == 0);
 400              		.loc 1 480 3
 480:C:/Users/stapi/OneDrive/Desktop/GD32VW553/V1_MQTT_OK/GD32VW55X_Wifi_BLE_SDK/GD32VW55x_RELEASE_V1.0.2/MSDK/lwip/lwip-2.1.2/src/core\mem.c ****   LWIP_ASSERT("plug_holes: mem->used == 0", mem->used == 0);
 401              		.loc 1 480 3
 402 016c 63E5B402 		bltu	s1,a1,.L21
 480:C:/Users/stapi/OneDrive/Desktop/GD32VW553/V1_MQTT_OK/GD32VW55X_Wifi_BLE_SDK/GD32VW55x_RELEASE_V1.0.2/MSDK/lwip/lwip-2.1.2/src/core\mem.c ****   LWIP_ASSERT("plug_holes: mem->used == 0", mem->used == 0);
 403              		.loc 1 480 3
 480:C:/Users/stapi/OneDrive/Desktop/GD32VW553/V1_MQTT_OK/GD32VW55X_Wifi_BLE_SDK/GD32VW55x_RELEASE_V1.0.2/MSDK/lwip/lwip-2.1.2/src/core\mem.c ****   LWIP_ASSERT("plug_holes: mem->used == 0", mem->used == 0);
 404              		.loc 1 480 3
 405 0170 B7060000 		lui	a3,%hi(.LC0)
 406 0174 B7050000 		lui	a1,%hi(.LC8)
 407 0178 37050000 		lui	a0,%hi(.LC2)
 408 017c 93860600 		addi	a3,a3,%lo(.LC0)
 409 0180 1306001E 		li	a2,480
 410 0184 93850500 		addi	a1,a1,%lo(.LC8)
 411 0188 13050500 		addi	a0,a0,%lo(.LC2)
 412 018c 97000000 		call	printf
 412      E7800000 
 413              	.LVL20:
 414              	.L22:
 480:C:/Users/stapi/OneDrive/Desktop/GD32VW553/V1_MQTT_OK/GD32VW55X_Wifi_BLE_SDK/GD32VW55x_RELEASE_V1.0.2/MSDK/lwip/lwip-2.1.2/src/core\mem.c ****   LWIP_ASSERT("plug_holes: mem->used == 0", mem->used == 0);
 415              		.loc 1 480 3
 480:C:/Users/stapi/OneDrive/Desktop/GD32VW553/V1_MQTT_OK/GD32VW55X_Wifi_BLE_SDK/GD32VW55x_RELEASE_V1.0.2/MSDK/lwip/lwip-2.1.2/src/core\mem.c ****   LWIP_ASSERT("plug_holes: mem->used == 0", mem->used == 0);
 416              		.loc 1 480 3
 480:C:/Users/stapi/OneDrive/Desktop/GD32VW553/V1_MQTT_OK/GD32VW55X_Wifi_BLE_SDK/GD32VW55x_RELEASE_V1.0.2/MSDK/lwip/lwip-2.1.2/src/core\mem.c ****   LWIP_ASSERT("plug_holes: mem->used == 0", mem->used == 0);
 417              		.loc 1 480 3
 418 0194 01A0     		j	.L22
 419              	.LVL21:
 420              	.L21:
 480:C:/Users/stapi/OneDrive/Desktop/GD32VW553/V1_MQTT_OK/GD32VW55X_Wifi_BLE_SDK/GD32VW55x_RELEASE_V1.0.2/MSDK/lwip/lwip-2.1.2/src/core\mem.c ****   LWIP_ASSERT("plug_holes: mem->used == 0", mem->used == 0);
 421              		.loc 1 480 3
 480:C:/Users/stapi/OneDrive/Desktop/GD32VW553/V1_MQTT_OK/GD32VW55X_Wifi_BLE_SDK/GD32VW55x_RELEASE_V1.0.2/MSDK/lwip/lwip-2.1.2/src/core\mem.c ****   LWIP_ASSERT("plug_holes: mem->used == 0", mem->used == 0);
 422              		.loc 1 480 3
 481:C:/Users/stapi/OneDrive/Desktop/GD32VW553/V1_MQTT_OK/GD32VW55X_Wifi_BLE_SDK/GD32VW55x_RELEASE_V1.0.2/MSDK/lwip/lwip-2.1.2/src/core\mem.c **** 
 423              		.loc 1 481 3
 481:C:/Users/stapi/OneDrive/Desktop/GD32VW553/V1_MQTT_OK/GD32VW55X_Wifi_BLE_SDK/GD32VW55x_RELEASE_V1.0.2/MSDK/lwip/lwip-2.1.2/src/core\mem.c **** 
 424              		.loc 1 481 3
 481:C:/Users/stapi/OneDrive/Desktop/GD32VW553/V1_MQTT_OK/GD32VW55X_Wifi_BLE_SDK/GD32VW55x_RELEASE_V1.0.2/MSDK/lwip/lwip-2.1.2/src/core\mem.c **** 
 425              		.loc 1 481 3
 481:C:/Users/stapi/OneDrive/Desktop/GD32VW553/V1_MQTT_OK/GD32VW55X_Wifi_BLE_SDK/GD32VW55x_RELEASE_V1.0.2/MSDK/lwip/lwip-2.1.2/src/core\mem.c **** 
 426              		.loc 1 481 3
 484:C:/Users/stapi/OneDrive/Desktop/GD32VW553/V1_MQTT_OK/GD32VW55X_Wifi_BLE_SDK/GD32VW55x_RELEASE_V1.0.2/MSDK/lwip/lwip-2.1.2/src/core\mem.c **** 
 427              		.loc 1 484 3
 484:C:/Users/stapi/OneDrive/Desktop/GD32VW553/V1_MQTT_OK/GD32VW55X_Wifi_BLE_SDK/GD32VW55x_RELEASE_V1.0.2/MSDK/lwip/lwip-2.1.2/src/core\mem.c **** 
 428              		.loc 1 484 3
 484:C:/Users/stapi/OneDrive/Desktop/GD32VW553/V1_MQTT_OK/GD32VW55X_Wifi_BLE_SDK/GD32VW55x_RELEASE_V1.0.2/MSDK/lwip/lwip-2.1.2/src/core\mem.c **** 
 429              		.loc 1 484 3
 484:C:/Users/stapi/OneDrive/Desktop/GD32VW553/V1_MQTT_OK/GD32VW55X_Wifi_BLE_SDK/GD32VW55x_RELEASE_V1.0.2/MSDK/lwip/lwip-2.1.2/src/core\mem.c **** 
 430              		.loc 1 484 3
 486:C:/Users/stapi/OneDrive/Desktop/GD32VW553/V1_MQTT_OK/GD32VW55X_Wifi_BLE_SDK/GD32VW55x_RELEASE_V1.0.2/MSDK/lwip/lwip-2.1.2/src/core\mem.c ****   if (mem != nmem && nmem->used == 0 && (u8_t *)nmem != (u8_t *)ram_end) {
 431              		.loc 1 486 3
 432              	.LBE89:
 433              	.LBE88:
 453:C:/Users/stapi/OneDrive/Desktop/GD32VW553/V1_MQTT_OK/GD32VW55X_Wifi_BLE_SDK/GD32VW55x_RELEASE_V1.0.2/MSDK/lwip/lwip-2.1.2/src/core\mem.c **** }
 434              		.loc 1 453 3
 435              	.LBB99:
 436              	.LBB96:
 487:C:/Users/stapi/OneDrive/Desktop/GD32VW553/V1_MQTT_OK/GD32VW55X_Wifi_BLE_SDK/GD32VW55x_RELEASE_V1.0.2/MSDK/lwip/lwip-2.1.2/src/core\mem.c ****     /* if mem->next is unused and not end of ram, combine mem and mem->next */
 437              		.loc 1 487 3
 487:C:/Users/stapi/OneDrive/Desktop/GD32VW553/V1_MQTT_OK/GD32VW55X_Wifi_BLE_SDK/GD32VW55x_RELEASE_V1.0.2/MSDK/lwip/lwip-2.1.2/src/core\mem.c ****     /* if mem->next is unused and not end of ram, combine mem and mem->next */
 438              		.loc 1 487 6 is_stmt 0
 439 0196 6389F402 		beq	s1,a5,.L24
 487:C:/Users/stapi/OneDrive/Desktop/GD32VW553/V1_MQTT_OK/GD32VW55X_Wifi_BLE_SDK/GD32VW55x_RELEASE_V1.0.2/MSDK/lwip/lwip-2.1.2/src/core\mem.c ****     /* if mem->next is unused and not end of ram, combine mem and mem->next */
 440              		.loc 1 487 19
 441 019a 03C54700 		lbu	a0,4(a5)
 442 019e 0DE5     		bne	a0,zero,.L24
 487:C:/Users/stapi/OneDrive/Desktop/GD32VW553/V1_MQTT_OK/GD32VW55X_Wifi_BLE_SDK/GD32VW55x_RELEASE_V1.0.2/MSDK/lwip/lwip-2.1.2/src/core\mem.c ****     /* if mem->next is unused and not end of ram, combine mem and mem->next */
 443              		.loc 1 487 38
 444 01a0 6384B702 		beq	a5,a1,.L24
 489:C:/Users/stapi/OneDrive/Desktop/GD32VW553/V1_MQTT_OK/GD32VW55X_Wifi_BLE_SDK/GD32VW55x_RELEASE_V1.0.2/MSDK/lwip/lwip-2.1.2/src/core\mem.c ****       lfree = mem;
 445              		.loc 1 489 5 is_stmt 1
 489:C:/Users/stapi/OneDrive/Desktop/GD32VW553/V1_MQTT_OK/GD32VW55X_Wifi_BLE_SDK/GD32VW55x_RELEASE_V1.0.2/MSDK/lwip/lwip-2.1.2/src/core\mem.c ****       lfree = mem;
 446              		.loc 1 489 8 is_stmt 0
 447 01a4 8C42     		lw	a1,0(a3)
 448 01a6 6393B700 		bne	a5,a1,.L26
 490:C:/Users/stapi/OneDrive/Desktop/GD32VW553/V1_MQTT_OK/GD32VW55X_Wifi_BLE_SDK/GD32VW55x_RELEASE_V1.0.2/MSDK/lwip/lwip-2.1.2/src/core\mem.c ****     }
 449              		.loc 1 490 7 is_stmt 1
 490:C:/Users/stapi/OneDrive/Desktop/GD32VW553/V1_MQTT_OK/GD32VW55X_Wifi_BLE_SDK/GD32VW55x_RELEASE_V1.0.2/MSDK/lwip/lwip-2.1.2/src/core\mem.c ****     }
 450              		.loc 1 490 13 is_stmt 0
 451 01aa 84C2     		sw	s1,0(a3)
 452              	.L26:
 492:C:/Users/stapi/OneDrive/Desktop/GD32VW553/V1_MQTT_OK/GD32VW55X_Wifi_BLE_SDK/GD32VW55x_RELEASE_V1.0.2/MSDK/lwip/lwip-2.1.2/src/core\mem.c ****     if (nmem->next != MEM_SIZE_ALIGNED) {
 453              		.loc 1 492 5 is_stmt 1
 492:C:/Users/stapi/OneDrive/Desktop/GD32VW553/V1_MQTT_OK/GD32VW55X_Wifi_BLE_SDK/GD32VW55x_RELEASE_V1.0.2/MSDK/lwip/lwip-2.1.2/src/core\mem.c ****     if (nmem->next != MEM_SIZE_ALIGNED) {
 454              		.loc 1 492 21 is_stmt 0
 455 01ac 83D50700 		lhu	a1,0(a5)
 492:C:/Users/stapi/OneDrive/Desktop/GD32VW553/V1_MQTT_OK/GD32VW55X_Wifi_BLE_SDK/GD32VW55x_RELEASE_V1.0.2/MSDK/lwip/lwip-2.1.2/src/core\mem.c ****     if (nmem->next != MEM_SIZE_ALIGNED) {
 456              		.loc 1 492 15
 457 01b0 231CB4FE 		sh	a1,-8(s0)
 458              	.LVL22:
 493:C:/Users/stapi/OneDrive/Desktop/GD32VW553/V1_MQTT_OK/GD32VW55X_Wifi_BLE_SDK/GD32VW55x_RELEASE_V1.0.2/MSDK/lwip/lwip-2.1.2/src/core\mem.c ****       ptr_to_mem(nmem->next)->prev = mem_to_ptr(mem);
 459              		.loc 1 493 5 is_stmt 1
 493:C:/Users/stapi/OneDrive/Desktop/GD32VW553/V1_MQTT_OK/GD32VW55X_Wifi_BLE_SDK/GD32VW55x_RELEASE_V1.0.2/MSDK/lwip/lwip-2.1.2/src/core\mem.c ****       ptr_to_mem(nmem->next)->prev = mem_to_ptr(mem);
 460              		.loc 1 493 13 is_stmt 0
 461 01b4 83D70700 		lhu	a5,0(a5)
 493:C:/Users/stapi/OneDrive/Desktop/GD32VW553/V1_MQTT_OK/GD32VW55X_Wifi_BLE_SDK/GD32VW55x_RELEASE_V1.0.2/MSDK/lwip/lwip-2.1.2/src/core\mem.c ****       ptr_to_mem(nmem->next)->prev = mem_to_ptr(mem);
 462              		.loc 1 493 8
 463 01b8 9965     		li	a1,24576
 464 01ba 9385C54E 		addi	a1,a1,1260
 465 01be 6385B700 		beq	a5,a1,.L24
 494:C:/Users/stapi/OneDrive/Desktop/GD32VW553/V1_MQTT_OK/GD32VW55X_Wifi_BLE_SDK/GD32VW55x_RELEASE_V1.0.2/MSDK/lwip/lwip-2.1.2/src/core\mem.c ****     }
 466              		.loc 1 494 7 is_stmt 1
 467              	.LVL23:
 468              	.LBB90:
 469              	.LBB91:
 453:C:/Users/stapi/OneDrive/Desktop/GD32VW553/V1_MQTT_OK/GD32VW55X_Wifi_BLE_SDK/GD32VW55x_RELEASE_V1.0.2/MSDK/lwip/lwip-2.1.2/src/core\mem.c **** }
 470              		.loc 1 453 3
 471              	.LBE91:
 472              	.LBE90:
 473              	.LBE96:
 474              	.LBE99:
 459:C:/Users/stapi/OneDrive/Desktop/GD32VW553/V1_MQTT_OK/GD32VW55X_Wifi_BLE_SDK/GD32VW55x_RELEASE_V1.0.2/MSDK/lwip/lwip-2.1.2/src/core\mem.c **** }
 475              		.loc 1 459 3
 476              	.LBB100:
 477              	.LBB97:
 494:C:/Users/stapi/OneDrive/Desktop/GD32VW553/V1_MQTT_OK/GD32VW55X_Wifi_BLE_SDK/GD32VW55x_RELEASE_V1.0.2/MSDK/lwip/lwip-2.1.2/src/core\mem.c ****     }
 478              		.loc 1 494 36 is_stmt 0
 479 01c2 BA97     		add	a5,a4,a5
 480 01c4 2391C700 		sh	a2,2(a5)
 481              	.LVL24:
 482              	.L24:
 499:C:/Users/stapi/OneDrive/Desktop/GD32VW553/V1_MQTT_OK/GD32VW55X_Wifi_BLE_SDK/GD32VW55x_RELEASE_V1.0.2/MSDK/lwip/lwip-2.1.2/src/core\mem.c ****   if (pmem != mem && pmem->used == 0) {
 483              		.loc 1 499 3 is_stmt 1
 499:C:/Users/stapi/OneDrive/Desktop/GD32VW553/V1_MQTT_OK/GD32VW55X_Wifi_BLE_SDK/GD32VW55x_RELEASE_V1.0.2/MSDK/lwip/lwip-2.1.2/src/core\mem.c ****   if (pmem != mem && pmem->used == 0) {
 484              		.loc 1 499 10 is_stmt 0
 485 01c8 0356A4FF 		lhu	a2,-6(s0)
 486              	.LVL25:
 487              	.LBB92:
 488              	.LBB93:
 453:C:/Users/stapi/OneDrive/Desktop/GD32VW553/V1_MQTT_OK/GD32VW55X_Wifi_BLE_SDK/GD32VW55x_RELEASE_V1.0.2/MSDK/lwip/lwip-2.1.2/src/core\mem.c **** }
 489              		.loc 1 453 3 is_stmt 1
 453:C:/Users/stapi/OneDrive/Desktop/GD32VW553/V1_MQTT_OK/GD32VW55X_Wifi_BLE_SDK/GD32VW55x_RELEASE_V1.0.2/MSDK/lwip/lwip-2.1.2/src/core\mem.c **** }
 490              		.loc 1 453 10 is_stmt 0
 491 01cc B307C700 		add	a5,a4,a2
 492              	.LVL26:
 493              	.LBE93:
 494              	.LBE92:
 500:C:/Users/stapi/OneDrive/Desktop/GD32VW553/V1_MQTT_OK/GD32VW55X_Wifi_BLE_SDK/GD32VW55x_RELEASE_V1.0.2/MSDK/lwip/lwip-2.1.2/src/core\mem.c ****     /* if mem->prev is unused, combine mem and mem->prev */
 495              		.loc 1 500 3 is_stmt 1
 500:C:/Users/stapi/OneDrive/Desktop/GD32VW553/V1_MQTT_OK/GD32VW55X_Wifi_BLE_SDK/GD32VW55x_RELEASE_V1.0.2/MSDK/lwip/lwip-2.1.2/src/core\mem.c ****     /* if mem->prev is unused, combine mem and mem->prev */
 496              		.loc 1 500 6 is_stmt 0
 497 01d0 6387F402 		beq	s1,a5,.L28
 500:C:/Users/stapi/OneDrive/Desktop/GD32VW553/V1_MQTT_OK/GD32VW55X_Wifi_BLE_SDK/GD32VW55x_RELEASE_V1.0.2/MSDK/lwip/lwip-2.1.2/src/core\mem.c ****     /* if mem->prev is unused, combine mem and mem->prev */
 498              		.loc 1 500 19
 499 01d4 83C54700 		lbu	a1,4(a5)
 500 01d8 9DE1     		bne	a1,zero,.L28
 502:C:/Users/stapi/OneDrive/Desktop/GD32VW553/V1_MQTT_OK/GD32VW55X_Wifi_BLE_SDK/GD32VW55x_RELEASE_V1.0.2/MSDK/lwip/lwip-2.1.2/src/core\mem.c ****       lfree = pmem;
 501              		.loc 1 502 5 is_stmt 1
 502:C:/Users/stapi/OneDrive/Desktop/GD32VW553/V1_MQTT_OK/GD32VW55X_Wifi_BLE_SDK/GD32VW55x_RELEASE_V1.0.2/MSDK/lwip/lwip-2.1.2/src/core\mem.c ****       lfree = pmem;
 502              		.loc 1 502 8 is_stmt 0
 503 01da 8C42     		lw	a1,0(a3)
 504 01dc 6393B400 		bne	s1,a1,.L30
 503:C:/Users/stapi/OneDrive/Desktop/GD32VW553/V1_MQTT_OK/GD32VW55X_Wifi_BLE_SDK/GD32VW55x_RELEASE_V1.0.2/MSDK/lwip/lwip-2.1.2/src/core\mem.c ****     }
 505              		.loc 1 503 7 is_stmt 1
 503:C:/Users/stapi/OneDrive/Desktop/GD32VW553/V1_MQTT_OK/GD32VW55X_Wifi_BLE_SDK/GD32VW55x_RELEASE_V1.0.2/MSDK/lwip/lwip-2.1.2/src/core\mem.c ****     }
 506              		.loc 1 503 13 is_stmt 0
 507 01e0 9CC2     		sw	a5,0(a3)
 508              	.L30:
 505:C:/Users/stapi/OneDrive/Desktop/GD32VW553/V1_MQTT_OK/GD32VW55X_Wifi_BLE_SDK/GD32VW55x_RELEASE_V1.0.2/MSDK/lwip/lwip-2.1.2/src/core\mem.c ****     if (mem->next != MEM_SIZE_ALIGNED) {
 509              		.loc 1 505 5 is_stmt 1
 505:C:/Users/stapi/OneDrive/Desktop/GD32VW553/V1_MQTT_OK/GD32VW55X_Wifi_BLE_SDK/GD32VW55x_RELEASE_V1.0.2/MSDK/lwip/lwip-2.1.2/src/core\mem.c ****     if (mem->next != MEM_SIZE_ALIGNED) {
 510              		.loc 1 505 21 is_stmt 0
 511 01e2 835684FF 		lhu	a3,-8(s0)
 505:C:/Users/stapi/OneDrive/Desktop/GD32VW553/V1_MQTT_OK/GD32VW55X_Wifi_BLE_SDK/GD32VW55x_RELEASE_V1.0.2/MSDK/lwip/lwip-2.1.2/src/core\mem.c ****     if (mem->next != MEM_SIZE_ALIGNED) {
 512              		.loc 1 505 16
 513 01e6 2390D700 		sh	a3,0(a5)
 506:C:/Users/stapi/OneDrive/Desktop/GD32VW553/V1_MQTT_OK/GD32VW55X_Wifi_BLE_SDK/GD32VW55x_RELEASE_V1.0.2/MSDK/lwip/lwip-2.1.2/src/core\mem.c ****       ptr_to_mem(mem->next)->prev = mem_to_ptr(pmem);
 514              		.loc 1 506 5 is_stmt 1
 506:C:/Users/stapi/OneDrive/Desktop/GD32VW553/V1_MQTT_OK/GD32VW55X_Wifi_BLE_SDK/GD32VW55x_RELEASE_V1.0.2/MSDK/lwip/lwip-2.1.2/src/core\mem.c ****       ptr_to_mem(mem->next)->prev = mem_to_ptr(pmem);
 515              		.loc 1 506 12 is_stmt 0
 516 01ea 835684FF 		lhu	a3,-8(s0)
 506:C:/Users/stapi/OneDrive/Desktop/GD32VW553/V1_MQTT_OK/GD32VW55X_Wifi_BLE_SDK/GD32VW55x_RELEASE_V1.0.2/MSDK/lwip/lwip-2.1.2/src/core\mem.c ****       ptr_to_mem(mem->next)->prev = mem_to_ptr(pmem);
 517              		.loc 1 506 8
 518 01ee 9967     		li	a5,24576
 519              	.LVL27:
 520 01f0 9387C74E 		addi	a5,a5,1260
 521 01f4 6385F600 		beq	a3,a5,.L28
 507:C:/Users/stapi/OneDrive/Desktop/GD32VW553/V1_MQTT_OK/GD32VW55X_Wifi_BLE_SDK/GD32VW55x_RELEASE_V1.0.2/MSDK/lwip/lwip-2.1.2/src/core\mem.c ****     }
 522              		.loc 1 507 7 is_stmt 1
 523              	.LVL28:
 524              	.LBB94:
 525              	.LBB95:
 453:C:/Users/stapi/OneDrive/Desktop/GD32VW553/V1_MQTT_OK/GD32VW55X_Wifi_BLE_SDK/GD32VW55x_RELEASE_V1.0.2/MSDK/lwip/lwip-2.1.2/src/core\mem.c **** }
 526              		.loc 1 453 3
 527              	.LBE95:
 528              	.LBE94:
 529              	.LBE97:
 530              	.LBE100:
 459:C:/Users/stapi/OneDrive/Desktop/GD32VW553/V1_MQTT_OK/GD32VW55X_Wifi_BLE_SDK/GD32VW55x_RELEASE_V1.0.2/MSDK/lwip/lwip-2.1.2/src/core\mem.c **** }
 531              		.loc 1 459 3
 532              	.LBB101:
 533              	.LBB98:
 507:C:/Users/stapi/OneDrive/Desktop/GD32VW553/V1_MQTT_OK/GD32VW55X_Wifi_BLE_SDK/GD32VW55x_RELEASE_V1.0.2/MSDK/lwip/lwip-2.1.2/src/core\mem.c ****     }
 534              		.loc 1 507 35 is_stmt 0
 535 01f8 3697     		add	a4,a4,a3
 536              	.LVL29:
 537 01fa 2311C700 		sh	a2,2(a4)
 538              	.L28:
 539              	.LVL30:
 540              	.LBE98:
 541              	.LBE101:
 681:C:/Users/stapi/OneDrive/Desktop/GD32VW553/V1_MQTT_OK/GD32VW55X_Wifi_BLE_SDK/GD32VW55x_RELEASE_V1.0.2/MSDK/lwip/lwip-2.1.2/src/core\mem.c ****   MEM_SANITY();
 542              		.loc 1 681 15 is_stmt 1
 682:C:/Users/stapi/OneDrive/Desktop/GD32VW553/V1_MQTT_OK/GD32VW55X_Wifi_BLE_SDK/GD32VW55x_RELEASE_V1.0.2/MSDK/lwip/lwip-2.1.2/src/core\mem.c **** #if LWIP_ALLOW_MEM_FREE_FROM_OTHER_CONTEXT
 683:C:/Users/stapi/OneDrive/Desktop/GD32VW553/V1_MQTT_OK/GD32VW55X_Wifi_BLE_SDK/GD32VW55x_RELEASE_V1.0.2/MSDK/lwip/lwip-2.1.2/src/core\mem.c ****   mem_free_count = 1;
 684:C:/Users/stapi/OneDrive/Desktop/GD32VW553/V1_MQTT_OK/GD32VW55X_Wifi_BLE_SDK/GD32VW55x_RELEASE_V1.0.2/MSDK/lwip/lwip-2.1.2/src/core\mem.c **** #endif /* LWIP_ALLOW_MEM_FREE_FROM_OTHER_CONTEXT */
 685:C:/Users/stapi/OneDrive/Desktop/GD32VW553/V1_MQTT_OK/GD32VW55X_Wifi_BLE_SDK/GD32VW55x_RELEASE_V1.0.2/MSDK/lwip/lwip-2.1.2/src/core\mem.c ****   LWIP_MEM_FREE_UNPROTECT();
 543              		.loc 1 685 3
 544 01fe 13050A00 		addi	a0,s4,%lo(.LANCHOR3)
 545 0202 97000000 		call	sys_mutex_put
 545      E7800000 
 546              	.LVL31:
 686:C:/Users/stapi/OneDrive/Desktop/GD32VW553/V1_MQTT_OK/GD32VW55X_Wifi_BLE_SDK/GD32VW55x_RELEASE_V1.0.2/MSDK/lwip/lwip-2.1.2/src/core\mem.c **** }
 547              		.loc 1 686 1 is_stmt 0
 548 020a 17030000 		tail	__riscv_restore_5
 548      67000300 
 549              		.cfi_restore 20
 550              		.cfi_restore 19
 551              		.cfi_restore 18
 552              		.cfi_restore 9
 553              		.cfi_restore 8
 554              		.cfi_restore 1
 555              		.cfi_def_cfa_offset 0
 556              	.LVL32:
 557              	.L35:
 558 0212 8280     		ret
 559              		.cfi_endproc
 560              	.LFE9:
 562              		.section	.rodata.mem_trim.str1.4,"aMS",@progbits,1
 563              		.align	2
 564              	.LC9:
 565 0000 6D656D5F 		.string	"mem_trim: legal memory"
 565      7472696D 
 565      3A206C65 
 565      67616C20 
 565      6D656D6F 
 566 0017 00       		.align	2
 567              	.LC10:
 568 0018 6D656D5F 		.string	"mem_trim can only shrink memory"
 568      7472696D 
 568      2063616E 
 568      206F6E6C 
 568      79207368 
 569              		.align	2
 570              	.LC11:
 571 0038 696E7661 		.string	"invalid next ptr"
 571      6C696420 
 571      6E657874 
 571      20707472 
 571      00
 572              		.section	.text.mem_trim,"ax",@progbits
 573              		.align	1
 574              		.globl	mem_trim
 576              	mem_trim:
 577              	.LFB10:
 687:C:/Users/stapi/OneDrive/Desktop/GD32VW553/V1_MQTT_OK/GD32VW55X_Wifi_BLE_SDK/GD32VW55x_RELEASE_V1.0.2/MSDK/lwip/lwip-2.1.2/src/core\mem.c **** 
 688:C:/Users/stapi/OneDrive/Desktop/GD32VW553/V1_MQTT_OK/GD32VW55X_Wifi_BLE_SDK/GD32VW55x_RELEASE_V1.0.2/MSDK/lwip/lwip-2.1.2/src/core\mem.c **** /**
 689:C:/Users/stapi/OneDrive/Desktop/GD32VW553/V1_MQTT_OK/GD32VW55X_Wifi_BLE_SDK/GD32VW55x_RELEASE_V1.0.2/MSDK/lwip/lwip-2.1.2/src/core\mem.c ****  * Shrink memory returned by mem_malloc().
 690:C:/Users/stapi/OneDrive/Desktop/GD32VW553/V1_MQTT_OK/GD32VW55X_Wifi_BLE_SDK/GD32VW55x_RELEASE_V1.0.2/MSDK/lwip/lwip-2.1.2/src/core\mem.c ****  *
 691:C:/Users/stapi/OneDrive/Desktop/GD32VW553/V1_MQTT_OK/GD32VW55X_Wifi_BLE_SDK/GD32VW55x_RELEASE_V1.0.2/MSDK/lwip/lwip-2.1.2/src/core\mem.c ****  * @param rmem pointer to memory allocated by mem_malloc the is to be shrinked
 692:C:/Users/stapi/OneDrive/Desktop/GD32VW553/V1_MQTT_OK/GD32VW55X_Wifi_BLE_SDK/GD32VW55x_RELEASE_V1.0.2/MSDK/lwip/lwip-2.1.2/src/core\mem.c ****  * @param new_size required size after shrinking (needs to be smaller than or
 693:C:/Users/stapi/OneDrive/Desktop/GD32VW553/V1_MQTT_OK/GD32VW55X_Wifi_BLE_SDK/GD32VW55x_RELEASE_V1.0.2/MSDK/lwip/lwip-2.1.2/src/core\mem.c ****  *                equal to the previous size)
 694:C:/Users/stapi/OneDrive/Desktop/GD32VW553/V1_MQTT_OK/GD32VW55X_Wifi_BLE_SDK/GD32VW55x_RELEASE_V1.0.2/MSDK/lwip/lwip-2.1.2/src/core\mem.c ****  * @return for compatibility reasons: is always == rmem, at the moment
 695:C:/Users/stapi/OneDrive/Desktop/GD32VW553/V1_MQTT_OK/GD32VW55X_Wifi_BLE_SDK/GD32VW55x_RELEASE_V1.0.2/MSDK/lwip/lwip-2.1.2/src/core\mem.c ****  *         or NULL if newsize is > old size, in which case rmem is NOT touched
 696:C:/Users/stapi/OneDrive/Desktop/GD32VW553/V1_MQTT_OK/GD32VW55X_Wifi_BLE_SDK/GD32VW55x_RELEASE_V1.0.2/MSDK/lwip/lwip-2.1.2/src/core\mem.c ****  *         or freed!
 697:C:/Users/stapi/OneDrive/Desktop/GD32VW553/V1_MQTT_OK/GD32VW55X_Wifi_BLE_SDK/GD32VW55x_RELEASE_V1.0.2/MSDK/lwip/lwip-2.1.2/src/core\mem.c ****  */
 698:C:/Users/stapi/OneDrive/Desktop/GD32VW553/V1_MQTT_OK/GD32VW55X_Wifi_BLE_SDK/GD32VW55x_RELEASE_V1.0.2/MSDK/lwip/lwip-2.1.2/src/core\mem.c **** void *
 699:C:/Users/stapi/OneDrive/Desktop/GD32VW553/V1_MQTT_OK/GD32VW55X_Wifi_BLE_SDK/GD32VW55x_RELEASE_V1.0.2/MSDK/lwip/lwip-2.1.2/src/core\mem.c **** mem_trim(void *rmem, mem_size_t new_size)
 700:C:/Users/stapi/OneDrive/Desktop/GD32VW553/V1_MQTT_OK/GD32VW55X_Wifi_BLE_SDK/GD32VW55x_RELEASE_V1.0.2/MSDK/lwip/lwip-2.1.2/src/core\mem.c **** {
 578              		.loc 1 700 1 is_stmt 1
 579              		.cfi_startproc
 580              	.LVL33:
 581 0000 17030000 		call	t0,__riscv_save_6
 581      E7020300 
 582              		.cfi_offset 21, -28
 583              		.cfi_offset 20, -24
 584              		.cfi_offset 19, -20
 585              		.cfi_offset 18, -16
 586              		.cfi_offset 9, -12
 587              		.cfi_offset 8, -8
 588              		.cfi_offset 1, -4
 589              		.cfi_def_cfa_offset 32
 701:C:/Users/stapi/OneDrive/Desktop/GD32VW553/V1_MQTT_OK/GD32VW55X_Wifi_BLE_SDK/GD32VW55x_RELEASE_V1.0.2/MSDK/lwip/lwip-2.1.2/src/core\mem.c ****   mem_size_t size, newsize;
 590              		.loc 1 701 3
 702:C:/Users/stapi/OneDrive/Desktop/GD32VW553/V1_MQTT_OK/GD32VW55X_Wifi_BLE_SDK/GD32VW55x_RELEASE_V1.0.2/MSDK/lwip/lwip-2.1.2/src/core\mem.c ****   mem_size_t ptr, ptr2;
 591              		.loc 1 702 3
 703:C:/Users/stapi/OneDrive/Desktop/GD32VW553/V1_MQTT_OK/GD32VW55X_Wifi_BLE_SDK/GD32VW55x_RELEASE_V1.0.2/MSDK/lwip/lwip-2.1.2/src/core\mem.c ****   struct mem *mem, *mem2;
 592              		.loc 1 703 3
 704:C:/Users/stapi/OneDrive/Desktop/GD32VW553/V1_MQTT_OK/GD32VW55X_Wifi_BLE_SDK/GD32VW55x_RELEASE_V1.0.2/MSDK/lwip/lwip-2.1.2/src/core\mem.c ****   /* use the FREE_PROTECT here: it protects with sem OR SYS_ARCH_PROTECT */
 705:C:/Users/stapi/OneDrive/Desktop/GD32VW553/V1_MQTT_OK/GD32VW55X_Wifi_BLE_SDK/GD32VW55x_RELEASE_V1.0.2/MSDK/lwip/lwip-2.1.2/src/core\mem.c ****   LWIP_MEM_FREE_DECL_PROTECT();
 593              		.loc 1 705 31
 706:C:/Users/stapi/OneDrive/Desktop/GD32VW553/V1_MQTT_OK/GD32VW55X_Wifi_BLE_SDK/GD32VW55x_RELEASE_V1.0.2/MSDK/lwip/lwip-2.1.2/src/core\mem.c **** 
 707:C:/Users/stapi/OneDrive/Desktop/GD32VW553/V1_MQTT_OK/GD32VW55X_Wifi_BLE_SDK/GD32VW55x_RELEASE_V1.0.2/MSDK/lwip/lwip-2.1.2/src/core\mem.c ****   /* Expand the size of the allocated memory region so that we can
 708:C:/Users/stapi/OneDrive/Desktop/GD32VW553/V1_MQTT_OK/GD32VW55X_Wifi_BLE_SDK/GD32VW55x_RELEASE_V1.0.2/MSDK/lwip/lwip-2.1.2/src/core\mem.c ****      adjust for alignment. */
 709:C:/Users/stapi/OneDrive/Desktop/GD32VW553/V1_MQTT_OK/GD32VW55X_Wifi_BLE_SDK/GD32VW55x_RELEASE_V1.0.2/MSDK/lwip/lwip-2.1.2/src/core\mem.c ****   newsize = (mem_size_t)LWIP_MEM_ALIGN_SIZE(new_size);
 594              		.loc 1 709 3
 595              		.loc 1 709 25 is_stmt 0
 596 0008 13843500 		addi	s0,a1,3
 597              		.loc 1 709 11
 598 000c 7198     		andi	s0,s0,-4
 710:C:/Users/stapi/OneDrive/Desktop/GD32VW553/V1_MQTT_OK/GD32VW55X_Wifi_BLE_SDK/GD32VW55x_RELEASE_V1.0.2/MSDK/lwip/lwip-2.1.2/src/core\mem.c ****   if (newsize < MIN_SIZE_ALIGNED) {
 599              		.loc 1 710 6
 600 000e AD47     		li	a5,11
 700:C:/Users/stapi/OneDrive/Desktop/GD32VW553/V1_MQTT_OK/GD32VW55X_Wifi_BLE_SDK/GD32VW55x_RELEASE_V1.0.2/MSDK/lwip/lwip-2.1.2/src/core\mem.c ****   mem_size_t size, newsize;
 601              		.loc 1 700 1
 602 0010 AA84     		mv	s1,a0
 709:C:/Users/stapi/OneDrive/Desktop/GD32VW553/V1_MQTT_OK/GD32VW55X_Wifi_BLE_SDK/GD32VW55x_RELEASE_V1.0.2/MSDK/lwip/lwip-2.1.2/src/core\mem.c ****   if (newsize < MIN_SIZE_ALIGNED) {
 603              		.loc 1 709 11
 604 0012 33440408 		zext.h	s0,s0
 605              	.LVL34:
 606              		.loc 1 710 3 is_stmt 1
 607              		.loc 1 710 6 is_stmt 0
 608 0016 63F98700 		bleu	s0,a5,.L56
 711:C:/Users/stapi/OneDrive/Desktop/GD32VW553/V1_MQTT_OK/GD32VW55X_Wifi_BLE_SDK/GD32VW55x_RELEASE_V1.0.2/MSDK/lwip/lwip-2.1.2/src/core\mem.c ****     /* every data block must be at least MIN_SIZE_ALIGNED long */
 712:C:/Users/stapi/OneDrive/Desktop/GD32VW553/V1_MQTT_OK/GD32VW55X_Wifi_BLE_SDK/GD32VW55x_RELEASE_V1.0.2/MSDK/lwip/lwip-2.1.2/src/core\mem.c ****     newsize = MIN_SIZE_ALIGNED;
 713:C:/Users/stapi/OneDrive/Desktop/GD32VW553/V1_MQTT_OK/GD32VW55X_Wifi_BLE_SDK/GD32VW55x_RELEASE_V1.0.2/MSDK/lwip/lwip-2.1.2/src/core\mem.c ****   }
 714:C:/Users/stapi/OneDrive/Desktop/GD32VW553/V1_MQTT_OK/GD32VW55X_Wifi_BLE_SDK/GD32VW55x_RELEASE_V1.0.2/MSDK/lwip/lwip-2.1.2/src/core\mem.c **** #if MEM_OVERFLOW_CHECK
 715:C:/Users/stapi/OneDrive/Desktop/GD32VW553/V1_MQTT_OK/GD32VW55X_Wifi_BLE_SDK/GD32VW55x_RELEASE_V1.0.2/MSDK/lwip/lwip-2.1.2/src/core\mem.c ****   newsize += MEM_SANITY_REGION_BEFORE_ALIGNED + MEM_SANITY_REGION_AFTER_ALIGNED;
 716:C:/Users/stapi/OneDrive/Desktop/GD32VW553/V1_MQTT_OK/GD32VW55X_Wifi_BLE_SDK/GD32VW55x_RELEASE_V1.0.2/MSDK/lwip/lwip-2.1.2/src/core\mem.c **** #endif
 717:C:/Users/stapi/OneDrive/Desktop/GD32VW553/V1_MQTT_OK/GD32VW55X_Wifi_BLE_SDK/GD32VW55x_RELEASE_V1.0.2/MSDK/lwip/lwip-2.1.2/src/core\mem.c ****   if ((newsize > MEM_SIZE_ALIGNED) || (newsize < new_size)) {
 609              		.loc 1 717 3 is_stmt 1
 610              		.loc 1 717 6 is_stmt 0
 611 001a 9967     		li	a5,24576
 612 001c 9387C74E 		addi	a5,a5,1260
 613 0020 63F58700 		bleu	s0,a5,.L39
 614              	.LVL35:
 615              	.L58:
 718:C:/Users/stapi/OneDrive/Desktop/GD32VW553/V1_MQTT_OK/GD32VW55X_Wifi_BLE_SDK/GD32VW55x_RELEASE_V1.0.2/MSDK/lwip/lwip-2.1.2/src/core\mem.c ****     return NULL;
 616              		.loc 1 718 12
 617 0024 8144     		li	s1,0
 618 0026 15AA     		j	.L40
 619              	.LVL36:
 620              	.L56:
 712:C:/Users/stapi/OneDrive/Desktop/GD32VW553/V1_MQTT_OK/GD32VW55X_Wifi_BLE_SDK/GD32VW55x_RELEASE_V1.0.2/MSDK/lwip/lwip-2.1.2/src/core\mem.c ****   }
 621              		.loc 1 712 13
 622 0028 3144     		li	s0,12
 623              	.LVL37:
 624              	.L39:
 717:C:/Users/stapi/OneDrive/Desktop/GD32VW553/V1_MQTT_OK/GD32VW55X_Wifi_BLE_SDK/GD32VW55x_RELEASE_V1.0.2/MSDK/lwip/lwip-2.1.2/src/core\mem.c ****     return NULL;
 625              		.loc 1 717 36 discriminator 1
 626 002a E36DB4FE 		bgtu	a1,s0,.L58
 719:C:/Users/stapi/OneDrive/Desktop/GD32VW553/V1_MQTT_OK/GD32VW55X_Wifi_BLE_SDK/GD32VW55x_RELEASE_V1.0.2/MSDK/lwip/lwip-2.1.2/src/core\mem.c ****   }
 720:C:/Users/stapi/OneDrive/Desktop/GD32VW553/V1_MQTT_OK/GD32VW55X_Wifi_BLE_SDK/GD32VW55x_RELEASE_V1.0.2/MSDK/lwip/lwip-2.1.2/src/core\mem.c **** 
 721:C:/Users/stapi/OneDrive/Desktop/GD32VW553/V1_MQTT_OK/GD32VW55X_Wifi_BLE_SDK/GD32VW55x_RELEASE_V1.0.2/MSDK/lwip/lwip-2.1.2/src/core\mem.c ****   LWIP_ASSERT("mem_trim: legal memory", (u8_t *)rmem >= (u8_t *)ram &&
 627              		.loc 1 721 3 is_stmt 1
 628              		.loc 1 721 3
 629 002e 370A0000 		lui	s4,%hi(.LANCHOR0)
 630 0032 130A0A00 		addi	s4,s4,%lo(.LANCHOR0)
 631 0036 83270A00 		lw	a5,0(s4)
 632 003a 63E8F400 		bgtu	a5,s1,.L41
 633              		.loc 1 721 3 is_stmt 0 discriminator 2
 634 003e 37070000 		lui	a4,%hi(.LANCHOR1)
 635 0042 03270700 		lw	a4,%lo(.LANCHOR1)(a4)
 636 0046 63E5E402 		bgtu	a4,s1,.L42
 637              	.L41:
 638              		.loc 1 721 3 is_stmt 1 discriminator 3
 639              		.loc 1 721 3 discriminator 3
 640 004a B7060000 		lui	a3,%hi(.LC0)
 641 004e B7050000 		lui	a1,%hi(.LC9)
 642              	.LVL38:
 643 0052 37050000 		lui	a0,%hi(.LC2)
 644 0056 93860600 		addi	a3,a3,%lo(.LC0)
 645 005a 1306102D 		li	a2,721
 646 005e 93850500 		addi	a1,a1,%lo(.LC9)
 647 0062 13050500 		addi	a0,a0,%lo(.LC2)
 648 0066 97000000 		call	printf
 648      E7800000 
 649              	.LVL39:
 650              	.L43:
 651              		.loc 1 721 3 discriminator 1
 652              		.loc 1 721 3 discriminator 1
 653              		.loc 1 721 3 discriminator 1
 654 006e 01A0     		j	.L43
 655              	.LVL40:
 656              	.L42:
 657              		.loc 1 721 3
 658              		.loc 1 721 3
 722:C:/Users/stapi/OneDrive/Desktop/GD32VW553/V1_MQTT_OK/GD32VW55X_Wifi_BLE_SDK/GD32VW55x_RELEASE_V1.0.2/MSDK/lwip/lwip-2.1.2/src/core\mem.c ****               (u8_t *)rmem < (u8_t *)ram_end);
 723:C:/Users/stapi/OneDrive/Desktop/GD32VW553/V1_MQTT_OK/GD32VW55X_Wifi_BLE_SDK/GD32VW55x_RELEASE_V1.0.2/MSDK/lwip/lwip-2.1.2/src/core\mem.c **** 
 724:C:/Users/stapi/OneDrive/Desktop/GD32VW553/V1_MQTT_OK/GD32VW55X_Wifi_BLE_SDK/GD32VW55x_RELEASE_V1.0.2/MSDK/lwip/lwip-2.1.2/src/core\mem.c ****   if ((u8_t *)rmem < (u8_t *)ram || (u8_t *)rmem >= (u8_t *)ram_end) {
 659              		.loc 1 724 3
 725:C:/Users/stapi/OneDrive/Desktop/GD32VW553/V1_MQTT_OK/GD32VW55X_Wifi_BLE_SDK/GD32VW55x_RELEASE_V1.0.2/MSDK/lwip/lwip-2.1.2/src/core\mem.c ****     LWIP_DEBUGF(MEM_DEBUG | LWIP_DBG_LEVEL_SEVERE, ("mem_trim: illegal memory\n"));
 726:C:/Users/stapi/OneDrive/Desktop/GD32VW553/V1_MQTT_OK/GD32VW55X_Wifi_BLE_SDK/GD32VW55x_RELEASE_V1.0.2/MSDK/lwip/lwip-2.1.2/src/core\mem.c ****     /* protect mem stats from concurrent access */
 727:C:/Users/stapi/OneDrive/Desktop/GD32VW553/V1_MQTT_OK/GD32VW55X_Wifi_BLE_SDK/GD32VW55x_RELEASE_V1.0.2/MSDK/lwip/lwip-2.1.2/src/core\mem.c ****     MEM_STATS_INC_LOCKED(illegal);
 728:C:/Users/stapi/OneDrive/Desktop/GD32VW553/V1_MQTT_OK/GD32VW55X_Wifi_BLE_SDK/GD32VW55x_RELEASE_V1.0.2/MSDK/lwip/lwip-2.1.2/src/core\mem.c ****     return rmem;
 729:C:/Users/stapi/OneDrive/Desktop/GD32VW553/V1_MQTT_OK/GD32VW55X_Wifi_BLE_SDK/GD32VW55x_RELEASE_V1.0.2/MSDK/lwip/lwip-2.1.2/src/core\mem.c ****   }
 730:C:/Users/stapi/OneDrive/Desktop/GD32VW553/V1_MQTT_OK/GD32VW55X_Wifi_BLE_SDK/GD32VW55x_RELEASE_V1.0.2/MSDK/lwip/lwip-2.1.2/src/core\mem.c ****   /* Get the corresponding struct mem ... */
 731:C:/Users/stapi/OneDrive/Desktop/GD32VW553/V1_MQTT_OK/GD32VW55X_Wifi_BLE_SDK/GD32VW55x_RELEASE_V1.0.2/MSDK/lwip/lwip-2.1.2/src/core\mem.c ****   /* cast through void* to get rid of alignment warnings */
 732:C:/Users/stapi/OneDrive/Desktop/GD32VW553/V1_MQTT_OK/GD32VW55X_Wifi_BLE_SDK/GD32VW55x_RELEASE_V1.0.2/MSDK/lwip/lwip-2.1.2/src/core\mem.c ****   mem = (struct mem *)(void *)((u8_t *)rmem - (SIZEOF_STRUCT_MEM + MEM_SANITY_OFFSET));
 660              		.loc 1 732 3
 733:C:/Users/stapi/OneDrive/Desktop/GD32VW553/V1_MQTT_OK/GD32VW55X_Wifi_BLE_SDK/GD32VW55x_RELEASE_V1.0.2/MSDK/lwip/lwip-2.1.2/src/core\mem.c **** #if MEM_OVERFLOW_CHECK
 734:C:/Users/stapi/OneDrive/Desktop/GD32VW553/V1_MQTT_OK/GD32VW55X_Wifi_BLE_SDK/GD32VW55x_RELEASE_V1.0.2/MSDK/lwip/lwip-2.1.2/src/core\mem.c ****   mem_overflow_check_element(mem);
 735:C:/Users/stapi/OneDrive/Desktop/GD32VW553/V1_MQTT_OK/GD32VW55X_Wifi_BLE_SDK/GD32VW55x_RELEASE_V1.0.2/MSDK/lwip/lwip-2.1.2/src/core\mem.c **** #endif
 736:C:/Users/stapi/OneDrive/Desktop/GD32VW553/V1_MQTT_OK/GD32VW55X_Wifi_BLE_SDK/GD32VW55x_RELEASE_V1.0.2/MSDK/lwip/lwip-2.1.2/src/core\mem.c ****   /* ... and its offset pointer */
 737:C:/Users/stapi/OneDrive/Desktop/GD32VW553/V1_MQTT_OK/GD32VW55X_Wifi_BLE_SDK/GD32VW55x_RELEASE_V1.0.2/MSDK/lwip/lwip-2.1.2/src/core\mem.c ****   ptr = mem_to_ptr(mem);
 661              		.loc 1 737 3
 662              	.LBB102:
 663              	.LBB103:
 459:C:/Users/stapi/OneDrive/Desktop/GD32VW553/V1_MQTT_OK/GD32VW55X_Wifi_BLE_SDK/GD32VW55x_RELEASE_V1.0.2/MSDK/lwip/lwip-2.1.2/src/core\mem.c **** }
 664              		.loc 1 459 3
 665              	.LBE103:
 666              	.LBE102:
 738:C:/Users/stapi/OneDrive/Desktop/GD32VW553/V1_MQTT_OK/GD32VW55X_Wifi_BLE_SDK/GD32VW55x_RELEASE_V1.0.2/MSDK/lwip/lwip-2.1.2/src/core\mem.c **** 
 739:C:/Users/stapi/OneDrive/Desktop/GD32VW553/V1_MQTT_OK/GD32VW55X_Wifi_BLE_SDK/GD32VW55x_RELEASE_V1.0.2/MSDK/lwip/lwip-2.1.2/src/core\mem.c ****   size = (mem_size_t)((mem_size_t)(mem->next - ptr) - (SIZEOF_STRUCT_MEM + MEM_SANITY_OVERHEAD));
 667              		.loc 1 739 8 is_stmt 0
 668 0070 83D984FF 		lhu	s3,-8(s1)
 732:C:/Users/stapi/OneDrive/Desktop/GD32VW553/V1_MQTT_OK/GD32VW55X_Wifi_BLE_SDK/GD32VW55x_RELEASE_V1.0.2/MSDK/lwip/lwip-2.1.2/src/core\mem.c **** #if MEM_OVERFLOW_CHECK
 669              		.loc 1 732 7
 670 0074 138984FF 		addi	s2,s1,-8
 671              	.LVL41:
 672              	.LBB106:
 673              	.LBB104:
 459:C:/Users/stapi/OneDrive/Desktop/GD32VW553/V1_MQTT_OK/GD32VW55X_Wifi_BLE_SDK/GD32VW55x_RELEASE_V1.0.2/MSDK/lwip/lwip-2.1.2/src/core\mem.c **** }
 674              		.loc 1 459 35
 675 0078 3309F940 		sub	s2,s2,a5
 676              	.LVL42:
 677              	.LBE104:
 678              	.LBE106:
 679              		.loc 1 739 8
 680 007c E119     		addi	s3,s3,-8
 681              	.LBB107:
 682              	.LBB105:
 459:C:/Users/stapi/OneDrive/Desktop/GD32VW553/V1_MQTT_OK/GD32VW55X_Wifi_BLE_SDK/GD32VW55x_RELEASE_V1.0.2/MSDK/lwip/lwip-2.1.2/src/core\mem.c **** }
 683              		.loc 1 459 10
 684 007e 33490908 		zext.h	s2,s2
 685              	.LVL43:
 686              	.LBE105:
 687              	.LBE107:
 688              		.loc 1 739 3 is_stmt 1
 689              		.loc 1 739 8 is_stmt 0
 690 0082 B3892941 		sub	s3,s3,s2
 691 0086 B3C90908 		zext.h	s3,s3
 692              	.LVL44:
 740:C:/Users/stapi/OneDrive/Desktop/GD32VW553/V1_MQTT_OK/GD32VW55X_Wifi_BLE_SDK/GD32VW55x_RELEASE_V1.0.2/MSDK/lwip/lwip-2.1.2/src/core\mem.c ****   LWIP_ASSERT("mem_trim can only shrink memory", newsize <= size);
 693              		.loc 1 740 3 is_stmt 1
 694              		.loc 1 740 3
 695 008a 63F58902 		bgeu	s3,s0,.L44
 696              		.loc 1 740 3 discriminator 1
 697              		.loc 1 740 3 discriminator 1
 698 008e B7060000 		lui	a3,%hi(.LC0)
 699 0092 B7050000 		lui	a1,%hi(.LC10)
 700              	.LVL45:
 701 0096 37050000 		lui	a0,%hi(.LC2)
 702 009a 93860600 		addi	a3,a3,%lo(.LC0)
 703 009e 1306402E 		li	a2,740
 704 00a2 93850500 		addi	a1,a1,%lo(.LC10)
 705 00a6 13050500 		addi	a0,a0,%lo(.LC2)
 706 00aa 97000000 		call	printf
 706      E7800000 
 707              	.LVL46:
 708              	.L45:
 709              		.loc 1 740 3 discriminator 2
 710              		.loc 1 740 3 discriminator 2
 711              		.loc 1 740 3 discriminator 2
 712 00b2 01A0     		j	.L45
 713              	.LVL47:
 714              	.L44:
 715              		.loc 1 740 3
 716              		.loc 1 740 3
 741:C:/Users/stapi/OneDrive/Desktop/GD32VW553/V1_MQTT_OK/GD32VW55X_Wifi_BLE_SDK/GD32VW55x_RELEASE_V1.0.2/MSDK/lwip/lwip-2.1.2/src/core\mem.c ****   if (newsize > size) {
 717              		.loc 1 741 3
 742:C:/Users/stapi/OneDrive/Desktop/GD32VW553/V1_MQTT_OK/GD32VW55X_Wifi_BLE_SDK/GD32VW55x_RELEASE_V1.0.2/MSDK/lwip/lwip-2.1.2/src/core\mem.c ****     /* not supported */
 743:C:/Users/stapi/OneDrive/Desktop/GD32VW553/V1_MQTT_OK/GD32VW55X_Wifi_BLE_SDK/GD32VW55x_RELEASE_V1.0.2/MSDK/lwip/lwip-2.1.2/src/core\mem.c ****     return NULL;
 744:C:/Users/stapi/OneDrive/Desktop/GD32VW553/V1_MQTT_OK/GD32VW55X_Wifi_BLE_SDK/GD32VW55x_RELEASE_V1.0.2/MSDK/lwip/lwip-2.1.2/src/core\mem.c ****   }
 745:C:/Users/stapi/OneDrive/Desktop/GD32VW553/V1_MQTT_OK/GD32VW55X_Wifi_BLE_SDK/GD32VW55x_RELEASE_V1.0.2/MSDK/lwip/lwip-2.1.2/src/core\mem.c ****   if (newsize == size) {
 718              		.loc 1 745 3
 719              		.loc 1 745 6 is_stmt 0
 720 00b4 6383890A 		beq	s3,s0,.L40
 746:C:/Users/stapi/OneDrive/Desktop/GD32VW553/V1_MQTT_OK/GD32VW55X_Wifi_BLE_SDK/GD32VW55x_RELEASE_V1.0.2/MSDK/lwip/lwip-2.1.2/src/core\mem.c ****     /* No change in size, simply return */
 747:C:/Users/stapi/OneDrive/Desktop/GD32VW553/V1_MQTT_OK/GD32VW55X_Wifi_BLE_SDK/GD32VW55x_RELEASE_V1.0.2/MSDK/lwip/lwip-2.1.2/src/core\mem.c ****     return rmem;
 748:C:/Users/stapi/OneDrive/Desktop/GD32VW553/V1_MQTT_OK/GD32VW55X_Wifi_BLE_SDK/GD32VW55x_RELEASE_V1.0.2/MSDK/lwip/lwip-2.1.2/src/core\mem.c ****   }
 749:C:/Users/stapi/OneDrive/Desktop/GD32VW553/V1_MQTT_OK/GD32VW55X_Wifi_BLE_SDK/GD32VW55x_RELEASE_V1.0.2/MSDK/lwip/lwip-2.1.2/src/core\mem.c **** 
 750:C:/Users/stapi/OneDrive/Desktop/GD32VW553/V1_MQTT_OK/GD32VW55X_Wifi_BLE_SDK/GD32VW55x_RELEASE_V1.0.2/MSDK/lwip/lwip-2.1.2/src/core\mem.c ****   /* protect the heap from concurrent access */
 751:C:/Users/stapi/OneDrive/Desktop/GD32VW553/V1_MQTT_OK/GD32VW55X_Wifi_BLE_SDK/GD32VW55x_RELEASE_V1.0.2/MSDK/lwip/lwip-2.1.2/src/core\mem.c ****   LWIP_MEM_FREE_PROTECT();
 721              		.loc 1 751 3 is_stmt 1
 722 00b8 B70A0000 		lui	s5,%hi(.LANCHOR3)
 723 00bc 13850A00 		addi	a0,s5,%lo(.LANCHOR3)
 724 00c0 97000000 		call	sys_mutex_get
 724      E7800000 
 725              	.LVL48:
 752:C:/Users/stapi/OneDrive/Desktop/GD32VW553/V1_MQTT_OK/GD32VW55X_Wifi_BLE_SDK/GD32VW55x_RELEASE_V1.0.2/MSDK/lwip/lwip-2.1.2/src/core\mem.c **** 
 753:C:/Users/stapi/OneDrive/Desktop/GD32VW553/V1_MQTT_OK/GD32VW55X_Wifi_BLE_SDK/GD32VW55x_RELEASE_V1.0.2/MSDK/lwip/lwip-2.1.2/src/core\mem.c ****   mem2 = ptr_to_mem(mem->next);
 726              		.loc 1 753 3
 727              		.loc 1 753 10 is_stmt 0
 728 00c8 83D684FF 		lhu	a3,-8(s1)
 729              	.LVL49:
 730              	.LBB108:
 731              	.LBB109:
 453:C:/Users/stapi/OneDrive/Desktop/GD32VW553/V1_MQTT_OK/GD32VW55X_Wifi_BLE_SDK/GD32VW55x_RELEASE_V1.0.2/MSDK/lwip/lwip-2.1.2/src/core\mem.c **** }
 732              		.loc 1 453 3 is_stmt 1
 453:C:/Users/stapi/OneDrive/Desktop/GD32VW553/V1_MQTT_OK/GD32VW55X_Wifi_BLE_SDK/GD32VW55x_RELEASE_V1.0.2/MSDK/lwip/lwip-2.1.2/src/core\mem.c **** }
 733              		.loc 1 453 32 is_stmt 0
 734 00cc 83270A00 		lw	a5,0(s4)
 453:C:/Users/stapi/OneDrive/Desktop/GD32VW553/V1_MQTT_OK/GD32VW55X_Wifi_BLE_SDK/GD32VW55x_RELEASE_V1.0.2/MSDK/lwip/lwip-2.1.2/src/core\mem.c **** }
 735              		.loc 1 453 10
 736 00d0 3386D700 		add	a2,a5,a3
 737              	.LVL50:
 738              	.LBE109:
 739              	.LBE108:
 754:C:/Users/stapi/OneDrive/Desktop/GD32VW553/V1_MQTT_OK/GD32VW55X_Wifi_BLE_SDK/GD32VW55x_RELEASE_V1.0.2/MSDK/lwip/lwip-2.1.2/src/core\mem.c ****   if (mem2->used == 0) {
 740              		.loc 1 754 3 is_stmt 1
 741              		.loc 1 754 6 is_stmt 0
 742 00d4 03474600 		lbu	a4,4(a2)
 743 00d8 51E7     		bne	a4,zero,.L46
 744              	.LBB110:
 755:C:/Users/stapi/OneDrive/Desktop/GD32VW553/V1_MQTT_OK/GD32VW55X_Wifi_BLE_SDK/GD32VW55x_RELEASE_V1.0.2/MSDK/lwip/lwip-2.1.2/src/core\mem.c ****     /* The next struct is unused, we can simply move it at little */
 756:C:/Users/stapi/OneDrive/Desktop/GD32VW553/V1_MQTT_OK/GD32VW55X_Wifi_BLE_SDK/GD32VW55x_RELEASE_V1.0.2/MSDK/lwip/lwip-2.1.2/src/core\mem.c ****     mem_size_t next;
 745              		.loc 1 756 5 is_stmt 1
 757:C:/Users/stapi/OneDrive/Desktop/GD32VW553/V1_MQTT_OK/GD32VW55X_Wifi_BLE_SDK/GD32VW55x_RELEASE_V1.0.2/MSDK/lwip/lwip-2.1.2/src/core\mem.c ****     LWIP_ASSERT("invalid next ptr", mem->next != MEM_SIZE_ALIGNED);
 746              		.loc 1 757 5
 747              		.loc 1 757 5
 748 00da 1967     		li	a4,24576
 749 00dc 1307C74E 		addi	a4,a4,1260
 750 00e0 6395E602 		bne	a3,a4,.L47
 751              		.loc 1 757 5 discriminator 1
 752              		.loc 1 757 5 discriminator 1
 753 00e4 B7060000 		lui	a3,%hi(.LC0)
 754 00e8 B7050000 		lui	a1,%hi(.LC11)
 755 00ec 37050000 		lui	a0,%hi(.LC2)
 756 00f0 93860600 		addi	a3,a3,%lo(.LC0)
 757 00f4 1306502F 		li	a2,757
 758              	.LVL51:
 759 00f8 93850500 		addi	a1,a1,%lo(.LC11)
 760 00fc 13050500 		addi	a0,a0,%lo(.LC2)
 761 0100 97000000 		call	printf
 761      E7800000 
 762              	.LVL52:
 763              	.L48:
 764              		.loc 1 757 5 discriminator 3
 765              		.loc 1 757 5 discriminator 3
 766              		.loc 1 757 5 discriminator 3
 767 0108 01A0     		j	.L48
 768              	.LVL53:
 769              	.L47:
 770              		.loc 1 757 5 discriminator 2
 771              		.loc 1 757 5 discriminator 2
 758:C:/Users/stapi/OneDrive/Desktop/GD32VW553/V1_MQTT_OK/GD32VW55X_Wifi_BLE_SDK/GD32VW55x_RELEASE_V1.0.2/MSDK/lwip/lwip-2.1.2/src/core\mem.c ****     /* remember the old next pointer */
 759:C:/Users/stapi/OneDrive/Desktop/GD32VW553/V1_MQTT_OK/GD32VW55X_Wifi_BLE_SDK/GD32VW55x_RELEASE_V1.0.2/MSDK/lwip/lwip-2.1.2/src/core\mem.c ****     next = mem2->next;
 772              		.loc 1 759 5 discriminator 2
 760:C:/Users/stapi/OneDrive/Desktop/GD32VW553/V1_MQTT_OK/GD32VW55X_Wifi_BLE_SDK/GD32VW55x_RELEASE_V1.0.2/MSDK/lwip/lwip-2.1.2/src/core\mem.c ****     /* create new struct mem which is moved directly after the shrinked mem */
 761:C:/Users/stapi/OneDrive/Desktop/GD32VW553/V1_MQTT_OK/GD32VW55X_Wifi_BLE_SDK/GD32VW55x_RELEASE_V1.0.2/MSDK/lwip/lwip-2.1.2/src/core\mem.c ****     ptr2 = (mem_size_t)(ptr + SIZEOF_STRUCT_MEM + newsize);
 762:C:/Users/stapi/OneDrive/Desktop/GD32VW553/V1_MQTT_OK/GD32VW55X_Wifi_BLE_SDK/GD32VW55x_RELEASE_V1.0.2/MSDK/lwip/lwip-2.1.2/src/core\mem.c ****     if (lfree == mem2) {
 773              		.loc 1 762 15 is_stmt 0 discriminator 2
 774 010a B7060000 		lui	a3,%hi(.LANCHOR2)
 775 010e 93860600 		addi	a3,a3,%lo(.LANCHOR2)
 776              		.loc 1 762 8 discriminator 2
 777 0112 03A80600 		lw	a6,0(a3)
 761:C:/Users/stapi/OneDrive/Desktop/GD32VW553/V1_MQTT_OK/GD32VW55X_Wifi_BLE_SDK/GD32VW55x_RELEASE_V1.0.2/MSDK/lwip/lwip-2.1.2/src/core\mem.c ****     if (lfree == mem2) {
 778              		.loc 1 761 10 discriminator 2
 779 0116 13078900 		addi	a4,s2,8
 780 011a 3A94     		add	s0,s0,a4
 781 011c 33440408 		zext.h	s0,s0
 759:C:/Users/stapi/OneDrive/Desktop/GD32VW553/V1_MQTT_OK/GD32VW55X_Wifi_BLE_SDK/GD32VW55x_RELEASE_V1.0.2/MSDK/lwip/lwip-2.1.2/src/core\mem.c ****     /* create new struct mem which is moved directly after the shrinked mem */
 782              		.loc 1 759 10 discriminator 2
 783 0120 83550600 		lhu	a1,0(a2)
 784              	.LVL54:
 761:C:/Users/stapi/OneDrive/Desktop/GD32VW553/V1_MQTT_OK/GD32VW55X_Wifi_BLE_SDK/GD32VW55x_RELEASE_V1.0.2/MSDK/lwip/lwip-2.1.2/src/core\mem.c ****     if (lfree == mem2) {
 785              		.loc 1 761 5 is_stmt 1 discriminator 2
 786              		.loc 1 762 5 discriminator 2
 787              	.LBB111:
 788              	.LBB112:
 453:C:/Users/stapi/OneDrive/Desktop/GD32VW553/V1_MQTT_OK/GD32VW55X_Wifi_BLE_SDK/GD32VW55x_RELEASE_V1.0.2/MSDK/lwip/lwip-2.1.2/src/core\mem.c **** }
 789              		.loc 1 453 10 is_stmt 0 discriminator 2
 790 0124 33878700 		add	a4,a5,s0
 791              	.LBE112:
 792              	.LBE111:
 793              		.loc 1 762 8 discriminator 2
 794 0128 6313C800 		bne	a6,a2,.L49
 763:C:/Users/stapi/OneDrive/Desktop/GD32VW553/V1_MQTT_OK/GD32VW55X_Wifi_BLE_SDK/GD32VW55x_RELEASE_V1.0.2/MSDK/lwip/lwip-2.1.2/src/core\mem.c ****       lfree = ptr_to_mem(ptr2);
 795              		.loc 1 763 7 is_stmt 1
 796              	.LVL55:
 797              	.LBB114:
 798              	.LBB113:
 453:C:/Users/stapi/OneDrive/Desktop/GD32VW553/V1_MQTT_OK/GD32VW55X_Wifi_BLE_SDK/GD32VW55x_RELEASE_V1.0.2/MSDK/lwip/lwip-2.1.2/src/core\mem.c **** }
 799              		.loc 1 453 3
 800              	.LBE113:
 801              	.LBE114:
 802              		.loc 1 763 13 is_stmt 0
 803 012c 98C2     		sw	a4,0(a3)
 804              	.L49:
 764:C:/Users/stapi/OneDrive/Desktop/GD32VW553/V1_MQTT_OK/GD32VW55X_Wifi_BLE_SDK/GD32VW55x_RELEASE_V1.0.2/MSDK/lwip/lwip-2.1.2/src/core\mem.c ****     }
 765:C:/Users/stapi/OneDrive/Desktop/GD32VW553/V1_MQTT_OK/GD32VW55X_Wifi_BLE_SDK/GD32VW55x_RELEASE_V1.0.2/MSDK/lwip/lwip-2.1.2/src/core\mem.c ****     mem2 = ptr_to_mem(ptr2);
 805              		.loc 1 765 5 is_stmt 1
 806              	.LVL56:
 807              	.LBE110:
 453:C:/Users/stapi/OneDrive/Desktop/GD32VW553/V1_MQTT_OK/GD32VW55X_Wifi_BLE_SDK/GD32VW55x_RELEASE_V1.0.2/MSDK/lwip/lwip-2.1.2/src/core\mem.c **** }
 808              		.loc 1 453 3
 809              	.LBB115:
 766:C:/Users/stapi/OneDrive/Desktop/GD32VW553/V1_MQTT_OK/GD32VW55X_Wifi_BLE_SDK/GD32VW55x_RELEASE_V1.0.2/MSDK/lwip/lwip-2.1.2/src/core\mem.c ****     mem2->used = 0;
 810              		.loc 1 766 5
 811              		.loc 1 766 16 is_stmt 0
 812 012e 23020700 		sb	zero,4(a4)
 767:C:/Users/stapi/OneDrive/Desktop/GD32VW553/V1_MQTT_OK/GD32VW55X_Wifi_BLE_SDK/GD32VW55x_RELEASE_V1.0.2/MSDK/lwip/lwip-2.1.2/src/core\mem.c ****     /* restore the next pointer */
 768:C:/Users/stapi/OneDrive/Desktop/GD32VW553/V1_MQTT_OK/GD32VW55X_Wifi_BLE_SDK/GD32VW55x_RELEASE_V1.0.2/MSDK/lwip/lwip-2.1.2/src/core\mem.c ****     mem2->next = next;
 813              		.loc 1 768 5 is_stmt 1
 814              		.loc 1 768 16 is_stmt 0
 815 0132 2310B700 		sh	a1,0(a4)
 769:C:/Users/stapi/OneDrive/Desktop/GD32VW553/V1_MQTT_OK/GD32VW55X_Wifi_BLE_SDK/GD32VW55x_RELEASE_V1.0.2/MSDK/lwip/lwip-2.1.2/src/core\mem.c ****     /* link it back to mem */
 770:C:/Users/stapi/OneDrive/Desktop/GD32VW553/V1_MQTT_OK/GD32VW55X_Wifi_BLE_SDK/GD32VW55x_RELEASE_V1.0.2/MSDK/lwip/lwip-2.1.2/src/core\mem.c ****     mem2->prev = ptr;
 816              		.loc 1 770 5 is_stmt 1
 817              		.loc 1 770 16 is_stmt 0
 818 0136 23112701 		sh	s2,2(a4)
 771:C:/Users/stapi/OneDrive/Desktop/GD32VW553/V1_MQTT_OK/GD32VW55X_Wifi_BLE_SDK/GD32VW55x_RELEASE_V1.0.2/MSDK/lwip/lwip-2.1.2/src/core\mem.c ****     /* link mem to it */
 772:C:/Users/stapi/OneDrive/Desktop/GD32VW553/V1_MQTT_OK/GD32VW55X_Wifi_BLE_SDK/GD32VW55x_RELEASE_V1.0.2/MSDK/lwip/lwip-2.1.2/src/core\mem.c ****     mem->next = ptr2;
 819              		.loc 1 772 5 is_stmt 1
 820              		.loc 1 772 15 is_stmt 0
 821 013a 239C84FE 		sh	s0,-8(s1)
 773:C:/Users/stapi/OneDrive/Desktop/GD32VW553/V1_MQTT_OK/GD32VW55X_Wifi_BLE_SDK/GD32VW55x_RELEASE_V1.0.2/MSDK/lwip/lwip-2.1.2/src/core\mem.c ****     /* last thing to restore linked list: as we have moved mem2,
 774:C:/Users/stapi/OneDrive/Desktop/GD32VW553/V1_MQTT_OK/GD32VW55X_Wifi_BLE_SDK/GD32VW55x_RELEASE_V1.0.2/MSDK/lwip/lwip-2.1.2/src/core\mem.c ****      * let 'mem2->next->prev' point to mem2 again. but only if mem2->next is not
 775:C:/Users/stapi/OneDrive/Desktop/GD32VW553/V1_MQTT_OK/GD32VW55X_Wifi_BLE_SDK/GD32VW55x_RELEASE_V1.0.2/MSDK/lwip/lwip-2.1.2/src/core\mem.c ****      * the end of the heap */
 776:C:/Users/stapi/OneDrive/Desktop/GD32VW553/V1_MQTT_OK/GD32VW55X_Wifi_BLE_SDK/GD32VW55x_RELEASE_V1.0.2/MSDK/lwip/lwip-2.1.2/src/core\mem.c ****     if (mem2->next != MEM_SIZE_ALIGNED) {
 822              		.loc 1 776 5 is_stmt 1
 823              		.loc 1 776 13 is_stmt 0
 824 013e 03570700 		lhu	a4,0(a4)
 825              		.loc 1 776 8
 826 0142 9966     		li	a3,24576
 827 0144 9386C64E 		addi	a3,a3,1260
 777:C:/Users/stapi/OneDrive/Desktop/GD32VW553/V1_MQTT_OK/GD32VW55X_Wifi_BLE_SDK/GD32VW55x_RELEASE_V1.0.2/MSDK/lwip/lwip-2.1.2/src/core\mem.c ****       ptr_to_mem(mem2->next)->prev = ptr2;
 828              		.loc 1 777 36
 829 0148 BA97     		add	a5,a5,a4
 830              	.LVL57:
 776:C:/Users/stapi/OneDrive/Desktop/GD32VW553/V1_MQTT_OK/GD32VW55X_Wifi_BLE_SDK/GD32VW55x_RELEASE_V1.0.2/MSDK/lwip/lwip-2.1.2/src/core\mem.c ****       ptr_to_mem(mem2->next)->prev = ptr2;
 831              		.loc 1 776 8
 832 014a 631AD708 		bne	a4,a3,.L60
 833              	.LVL58:
 834              	.L51:
 835              	.LBE115:
 778:C:/Users/stapi/OneDrive/Desktop/GD32VW553/V1_MQTT_OK/GD32VW55X_Wifi_BLE_SDK/GD32VW55x_RELEASE_V1.0.2/MSDK/lwip/lwip-2.1.2/src/core\mem.c ****     }
 779:C:/Users/stapi/OneDrive/Desktop/GD32VW553/V1_MQTT_OK/GD32VW55X_Wifi_BLE_SDK/GD32VW55x_RELEASE_V1.0.2/MSDK/lwip/lwip-2.1.2/src/core\mem.c ****     MEM_STATS_DEC_USED(used, (size - newsize));
 780:C:/Users/stapi/OneDrive/Desktop/GD32VW553/V1_MQTT_OK/GD32VW55X_Wifi_BLE_SDK/GD32VW55x_RELEASE_V1.0.2/MSDK/lwip/lwip-2.1.2/src/core\mem.c ****     /* no need to plug holes, we've already done that */
 781:C:/Users/stapi/OneDrive/Desktop/GD32VW553/V1_MQTT_OK/GD32VW55X_Wifi_BLE_SDK/GD32VW55x_RELEASE_V1.0.2/MSDK/lwip/lwip-2.1.2/src/core\mem.c ****   } else if (newsize + SIZEOF_STRUCT_MEM + MIN_SIZE_ALIGNED <= size) {
 782:C:/Users/stapi/OneDrive/Desktop/GD32VW553/V1_MQTT_OK/GD32VW55X_Wifi_BLE_SDK/GD32VW55x_RELEASE_V1.0.2/MSDK/lwip/lwip-2.1.2/src/core\mem.c ****     /* Next struct is used but there's room for another struct mem with
 783:C:/Users/stapi/OneDrive/Desktop/GD32VW553/V1_MQTT_OK/GD32VW55X_Wifi_BLE_SDK/GD32VW55x_RELEASE_V1.0.2/MSDK/lwip/lwip-2.1.2/src/core\mem.c ****      * at least MIN_SIZE_ALIGNED of data.
 784:C:/Users/stapi/OneDrive/Desktop/GD32VW553/V1_MQTT_OK/GD32VW55X_Wifi_BLE_SDK/GD32VW55x_RELEASE_V1.0.2/MSDK/lwip/lwip-2.1.2/src/core\mem.c ****      * Old size ('size') must be big enough to contain at least 'newsize' plus a struct mem
 785:C:/Users/stapi/OneDrive/Desktop/GD32VW553/V1_MQTT_OK/GD32VW55X_Wifi_BLE_SDK/GD32VW55x_RELEASE_V1.0.2/MSDK/lwip/lwip-2.1.2/src/core\mem.c ****      * ('SIZEOF_STRUCT_MEM') with some data ('MIN_SIZE_ALIGNED').
 786:C:/Users/stapi/OneDrive/Desktop/GD32VW553/V1_MQTT_OK/GD32VW55X_Wifi_BLE_SDK/GD32VW55x_RELEASE_V1.0.2/MSDK/lwip/lwip-2.1.2/src/core\mem.c ****      * @todo we could leave out MIN_SIZE_ALIGNED. We would create an empty
 787:C:/Users/stapi/OneDrive/Desktop/GD32VW553/V1_MQTT_OK/GD32VW55X_Wifi_BLE_SDK/GD32VW55x_RELEASE_V1.0.2/MSDK/lwip/lwip-2.1.2/src/core\mem.c ****      *       region that couldn't hold data, but when mem->next gets freed,
 788:C:/Users/stapi/OneDrive/Desktop/GD32VW553/V1_MQTT_OK/GD32VW55X_Wifi_BLE_SDK/GD32VW55x_RELEASE_V1.0.2/MSDK/lwip/lwip-2.1.2/src/core\mem.c ****      *       the 2 regions would be combined, resulting in more free memory */
 789:C:/Users/stapi/OneDrive/Desktop/GD32VW553/V1_MQTT_OK/GD32VW55X_Wifi_BLE_SDK/GD32VW55x_RELEASE_V1.0.2/MSDK/lwip/lwip-2.1.2/src/core\mem.c ****     ptr2 = (mem_size_t)(ptr + SIZEOF_STRUCT_MEM + newsize);
 790:C:/Users/stapi/OneDrive/Desktop/GD32VW553/V1_MQTT_OK/GD32VW55X_Wifi_BLE_SDK/GD32VW55x_RELEASE_V1.0.2/MSDK/lwip/lwip-2.1.2/src/core\mem.c ****     LWIP_ASSERT("invalid next ptr", mem->next != MEM_SIZE_ALIGNED);
 791:C:/Users/stapi/OneDrive/Desktop/GD32VW553/V1_MQTT_OK/GD32VW55X_Wifi_BLE_SDK/GD32VW55x_RELEASE_V1.0.2/MSDK/lwip/lwip-2.1.2/src/core\mem.c ****     mem2 = ptr_to_mem(ptr2);
 792:C:/Users/stapi/OneDrive/Desktop/GD32VW553/V1_MQTT_OK/GD32VW55X_Wifi_BLE_SDK/GD32VW55x_RELEASE_V1.0.2/MSDK/lwip/lwip-2.1.2/src/core\mem.c ****     if (mem2 < lfree) {
 793:C:/Users/stapi/OneDrive/Desktop/GD32VW553/V1_MQTT_OK/GD32VW55X_Wifi_BLE_SDK/GD32VW55x_RELEASE_V1.0.2/MSDK/lwip/lwip-2.1.2/src/core\mem.c ****       lfree = mem2;
 794:C:/Users/stapi/OneDrive/Desktop/GD32VW553/V1_MQTT_OK/GD32VW55X_Wifi_BLE_SDK/GD32VW55x_RELEASE_V1.0.2/MSDK/lwip/lwip-2.1.2/src/core\mem.c ****     }
 795:C:/Users/stapi/OneDrive/Desktop/GD32VW553/V1_MQTT_OK/GD32VW55X_Wifi_BLE_SDK/GD32VW55x_RELEASE_V1.0.2/MSDK/lwip/lwip-2.1.2/src/core\mem.c ****     mem2->used = 0;
 796:C:/Users/stapi/OneDrive/Desktop/GD32VW553/V1_MQTT_OK/GD32VW55X_Wifi_BLE_SDK/GD32VW55x_RELEASE_V1.0.2/MSDK/lwip/lwip-2.1.2/src/core\mem.c ****     mem2->next = mem->next;
 797:C:/Users/stapi/OneDrive/Desktop/GD32VW553/V1_MQTT_OK/GD32VW55X_Wifi_BLE_SDK/GD32VW55x_RELEASE_V1.0.2/MSDK/lwip/lwip-2.1.2/src/core\mem.c ****     mem2->prev = ptr;
 798:C:/Users/stapi/OneDrive/Desktop/GD32VW553/V1_MQTT_OK/GD32VW55X_Wifi_BLE_SDK/GD32VW55x_RELEASE_V1.0.2/MSDK/lwip/lwip-2.1.2/src/core\mem.c ****     mem->next = ptr2;
 799:C:/Users/stapi/OneDrive/Desktop/GD32VW553/V1_MQTT_OK/GD32VW55X_Wifi_BLE_SDK/GD32VW55x_RELEASE_V1.0.2/MSDK/lwip/lwip-2.1.2/src/core\mem.c ****     if (mem2->next != MEM_SIZE_ALIGNED) {
 800:C:/Users/stapi/OneDrive/Desktop/GD32VW553/V1_MQTT_OK/GD32VW55X_Wifi_BLE_SDK/GD32VW55x_RELEASE_V1.0.2/MSDK/lwip/lwip-2.1.2/src/core\mem.c ****       ptr_to_mem(mem2->next)->prev = ptr2;
 801:C:/Users/stapi/OneDrive/Desktop/GD32VW553/V1_MQTT_OK/GD32VW55X_Wifi_BLE_SDK/GD32VW55x_RELEASE_V1.0.2/MSDK/lwip/lwip-2.1.2/src/core\mem.c ****     }
 802:C:/Users/stapi/OneDrive/Desktop/GD32VW553/V1_MQTT_OK/GD32VW55X_Wifi_BLE_SDK/GD32VW55x_RELEASE_V1.0.2/MSDK/lwip/lwip-2.1.2/src/core\mem.c ****     MEM_STATS_DEC_USED(used, (size - newsize));
 836              		.loc 1 802 47 is_stmt 1
 803:C:/Users/stapi/OneDrive/Desktop/GD32VW553/V1_MQTT_OK/GD32VW55X_Wifi_BLE_SDK/GD32VW55x_RELEASE_V1.0.2/MSDK/lwip/lwip-2.1.2/src/core\mem.c ****     /* the original mem->next is used, so no need to plug holes! */
 804:C:/Users/stapi/OneDrive/Desktop/GD32VW553/V1_MQTT_OK/GD32VW55X_Wifi_BLE_SDK/GD32VW55x_RELEASE_V1.0.2/MSDK/lwip/lwip-2.1.2/src/core\mem.c ****   }
 805:C:/Users/stapi/OneDrive/Desktop/GD32VW553/V1_MQTT_OK/GD32VW55X_Wifi_BLE_SDK/GD32VW55x_RELEASE_V1.0.2/MSDK/lwip/lwip-2.1.2/src/core\mem.c ****   /* else {
 806:C:/Users/stapi/OneDrive/Desktop/GD32VW553/V1_MQTT_OK/GD32VW55X_Wifi_BLE_SDK/GD32VW55x_RELEASE_V1.0.2/MSDK/lwip/lwip-2.1.2/src/core\mem.c ****     next struct mem is used but size between mem and mem2 is not big enough
 807:C:/Users/stapi/OneDrive/Desktop/GD32VW553/V1_MQTT_OK/GD32VW55X_Wifi_BLE_SDK/GD32VW55x_RELEASE_V1.0.2/MSDK/lwip/lwip-2.1.2/src/core\mem.c ****     to create another struct mem
 808:C:/Users/stapi/OneDrive/Desktop/GD32VW553/V1_MQTT_OK/GD32VW55X_Wifi_BLE_SDK/GD32VW55x_RELEASE_V1.0.2/MSDK/lwip/lwip-2.1.2/src/core\mem.c ****     -> don't do anyhting.
 809:C:/Users/stapi/OneDrive/Desktop/GD32VW553/V1_MQTT_OK/GD32VW55X_Wifi_BLE_SDK/GD32VW55x_RELEASE_V1.0.2/MSDK/lwip/lwip-2.1.2/src/core\mem.c ****     -> the remaining space stays unused since it is too small
 810:C:/Users/stapi/OneDrive/Desktop/GD32VW553/V1_MQTT_OK/GD32VW55X_Wifi_BLE_SDK/GD32VW55x_RELEASE_V1.0.2/MSDK/lwip/lwip-2.1.2/src/core\mem.c ****   } */
 811:C:/Users/stapi/OneDrive/Desktop/GD32VW553/V1_MQTT_OK/GD32VW55X_Wifi_BLE_SDK/GD32VW55x_RELEASE_V1.0.2/MSDK/lwip/lwip-2.1.2/src/core\mem.c **** #if MEM_OVERFLOW_CHECK
 812:C:/Users/stapi/OneDrive/Desktop/GD32VW553/V1_MQTT_OK/GD32VW55X_Wifi_BLE_SDK/GD32VW55x_RELEASE_V1.0.2/MSDK/lwip/lwip-2.1.2/src/core\mem.c ****   mem_overflow_init_element(mem, new_size);
 813:C:/Users/stapi/OneDrive/Desktop/GD32VW553/V1_MQTT_OK/GD32VW55X_Wifi_BLE_SDK/GD32VW55x_RELEASE_V1.0.2/MSDK/lwip/lwip-2.1.2/src/core\mem.c **** #endif
 814:C:/Users/stapi/OneDrive/Desktop/GD32VW553/V1_MQTT_OK/GD32VW55X_Wifi_BLE_SDK/GD32VW55x_RELEASE_V1.0.2/MSDK/lwip/lwip-2.1.2/src/core\mem.c ****   MEM_SANITY();
 837              		.loc 1 814 15
 815:C:/Users/stapi/OneDrive/Desktop/GD32VW553/V1_MQTT_OK/GD32VW55X_Wifi_BLE_SDK/GD32VW55x_RELEASE_V1.0.2/MSDK/lwip/lwip-2.1.2/src/core\mem.c **** #if LWIP_ALLOW_MEM_FREE_FROM_OTHER_CONTEXT
 816:C:/Users/stapi/OneDrive/Desktop/GD32VW553/V1_MQTT_OK/GD32VW55X_Wifi_BLE_SDK/GD32VW55x_RELEASE_V1.0.2/MSDK/lwip/lwip-2.1.2/src/core\mem.c ****   mem_free_count = 1;
 817:C:/Users/stapi/OneDrive/Desktop/GD32VW553/V1_MQTT_OK/GD32VW55X_Wifi_BLE_SDK/GD32VW55x_RELEASE_V1.0.2/MSDK/lwip/lwip-2.1.2/src/core\mem.c **** #endif /* LWIP_ALLOW_MEM_FREE_FROM_OTHER_CONTEXT */
 818:C:/Users/stapi/OneDrive/Desktop/GD32VW553/V1_MQTT_OK/GD32VW55X_Wifi_BLE_SDK/GD32VW55x_RELEASE_V1.0.2/MSDK/lwip/lwip-2.1.2/src/core\mem.c ****   LWIP_MEM_FREE_UNPROTECT();
 838              		.loc 1 818 3
 839 014e 13850A00 		addi	a0,s5,%lo(.LANCHOR3)
 840 0152 97000000 		call	sys_mutex_put
 840      E7800000 
 841              	.LVL59:
 819:C:/Users/stapi/OneDrive/Desktop/GD32VW553/V1_MQTT_OK/GD32VW55X_Wifi_BLE_SDK/GD32VW55x_RELEASE_V1.0.2/MSDK/lwip/lwip-2.1.2/src/core\mem.c ****   return rmem;
 842              		.loc 1 819 3
 843              	.L40:
 820:C:/Users/stapi/OneDrive/Desktop/GD32VW553/V1_MQTT_OK/GD32VW55X_Wifi_BLE_SDK/GD32VW55x_RELEASE_V1.0.2/MSDK/lwip/lwip-2.1.2/src/core\mem.c **** }
 844              		.loc 1 820 1 is_stmt 0
 845 015a 2685     		mv	a0,s1
 846 015c 17030000 		tail	__riscv_restore_6
 846      67000300 
 847              		.cfi_remember_state
 848              		.cfi_restore 21
 849              		.cfi_restore 20
 850              		.cfi_restore 19
 851              		.cfi_restore 18
 852              		.cfi_restore 9
 853              		.cfi_restore 8
 854              		.cfi_restore 1
 855              		.cfi_def_cfa_offset 0
 856              	.LVL60:
 857              	.L46:
 858              		.cfi_restore_state
 781:C:/Users/stapi/OneDrive/Desktop/GD32VW553/V1_MQTT_OK/GD32VW55X_Wifi_BLE_SDK/GD32VW55x_RELEASE_V1.0.2/MSDK/lwip/lwip-2.1.2/src/core\mem.c ****     /* Next struct is used but there's room for another struct mem with
 859              		.loc 1 781 10 is_stmt 1
 781:C:/Users/stapi/OneDrive/Desktop/GD32VW553/V1_MQTT_OK/GD32VW55X_Wifi_BLE_SDK/GD32VW55x_RELEASE_V1.0.2/MSDK/lwip/lwip-2.1.2/src/core\mem.c ****     /* Next struct is used but there's room for another struct mem with
 860              		.loc 1 781 13 is_stmt 0
 861 0164 13074401 		addi	a4,s0,20
 862 0168 33470708 		zext.h	a4,a4
 863 016c E3E1E9FE 		bltu	s3,a4,.L51
 789:C:/Users/stapi/OneDrive/Desktop/GD32VW553/V1_MQTT_OK/GD32VW55X_Wifi_BLE_SDK/GD32VW55x_RELEASE_V1.0.2/MSDK/lwip/lwip-2.1.2/src/core\mem.c ****     LWIP_ASSERT("invalid next ptr", mem->next != MEM_SIZE_ALIGNED);
 864              		.loc 1 789 5 is_stmt 1
 789:C:/Users/stapi/OneDrive/Desktop/GD32VW553/V1_MQTT_OK/GD32VW55X_Wifi_BLE_SDK/GD32VW55x_RELEASE_V1.0.2/MSDK/lwip/lwip-2.1.2/src/core\mem.c ****     LWIP_ASSERT("invalid next ptr", mem->next != MEM_SIZE_ALIGNED);
 865              		.loc 1 789 10 is_stmt 0
 866 0170 13078900 		addi	a4,s2,8
 867 0174 3A94     		add	s0,s0,a4
 790:C:/Users/stapi/OneDrive/Desktop/GD32VW553/V1_MQTT_OK/GD32VW55X_Wifi_BLE_SDK/GD32VW55x_RELEASE_V1.0.2/MSDK/lwip/lwip-2.1.2/src/core\mem.c ****     mem2 = ptr_to_mem(ptr2);
 868              		.loc 1 790 5
 869 0176 1967     		li	a4,24576
 870 0178 1307C74E 		addi	a4,a4,1260
 789:C:/Users/stapi/OneDrive/Desktop/GD32VW553/V1_MQTT_OK/GD32VW55X_Wifi_BLE_SDK/GD32VW55x_RELEASE_V1.0.2/MSDK/lwip/lwip-2.1.2/src/core\mem.c ****     LWIP_ASSERT("invalid next ptr", mem->next != MEM_SIZE_ALIGNED);
 871              		.loc 1 789 10
 872 017c 33440408 		zext.h	s0,s0
 873              	.LVL61:
 790:C:/Users/stapi/OneDrive/Desktop/GD32VW553/V1_MQTT_OK/GD32VW55X_Wifi_BLE_SDK/GD32VW55x_RELEASE_V1.0.2/MSDK/lwip/lwip-2.1.2/src/core\mem.c ****     mem2 = ptr_to_mem(ptr2);
 874              		.loc 1 790 5 is_stmt 1
 790:C:/Users/stapi/OneDrive/Desktop/GD32VW553/V1_MQTT_OK/GD32VW55X_Wifi_BLE_SDK/GD32VW55x_RELEASE_V1.0.2/MSDK/lwip/lwip-2.1.2/src/core\mem.c ****     mem2 = ptr_to_mem(ptr2);
 875              		.loc 1 790 5
 876 0180 6395E602 		bne	a3,a4,.L53
 790:C:/Users/stapi/OneDrive/Desktop/GD32VW553/V1_MQTT_OK/GD32VW55X_Wifi_BLE_SDK/GD32VW55x_RELEASE_V1.0.2/MSDK/lwip/lwip-2.1.2/src/core\mem.c ****     mem2 = ptr_to_mem(ptr2);
 877              		.loc 1 790 5 discriminator 1
 790:C:/Users/stapi/OneDrive/Desktop/GD32VW553/V1_MQTT_OK/GD32VW55X_Wifi_BLE_SDK/GD32VW55x_RELEASE_V1.0.2/MSDK/lwip/lwip-2.1.2/src/core\mem.c ****     mem2 = ptr_to_mem(ptr2);
 878              		.loc 1 790 5 discriminator 1
 879 0184 B7060000 		lui	a3,%hi(.LC0)
 880 0188 B7050000 		lui	a1,%hi(.LC11)
 881 018c 37050000 		lui	a0,%hi(.LC2)
 882 0190 93860600 		addi	a3,a3,%lo(.LC0)
 883 0194 13066031 		li	a2,790
 884              	.LVL62:
 885 0198 93850500 		addi	a1,a1,%lo(.LC11)
 886 019c 13050500 		addi	a0,a0,%lo(.LC2)
 887 01a0 97000000 		call	printf
 887      E7800000 
 888              	.LVL63:
 889              	.L54:
 790:C:/Users/stapi/OneDrive/Desktop/GD32VW553/V1_MQTT_OK/GD32VW55X_Wifi_BLE_SDK/GD32VW55x_RELEASE_V1.0.2/MSDK/lwip/lwip-2.1.2/src/core\mem.c ****     mem2 = ptr_to_mem(ptr2);
 890              		.loc 1 790 5 discriminator 4
 790:C:/Users/stapi/OneDrive/Desktop/GD32VW553/V1_MQTT_OK/GD32VW55X_Wifi_BLE_SDK/GD32VW55x_RELEASE_V1.0.2/MSDK/lwip/lwip-2.1.2/src/core\mem.c ****     mem2 = ptr_to_mem(ptr2);
 891              		.loc 1 790 5 discriminator 4
 790:C:/Users/stapi/OneDrive/Desktop/GD32VW553/V1_MQTT_OK/GD32VW55X_Wifi_BLE_SDK/GD32VW55x_RELEASE_V1.0.2/MSDK/lwip/lwip-2.1.2/src/core\mem.c ****     mem2 = ptr_to_mem(ptr2);
 892              		.loc 1 790 5 discriminator 4
 893 01a8 01A0     		j	.L54
 894              	.LVL64:
 895              	.L53:
 790:C:/Users/stapi/OneDrive/Desktop/GD32VW553/V1_MQTT_OK/GD32VW55X_Wifi_BLE_SDK/GD32VW55x_RELEASE_V1.0.2/MSDK/lwip/lwip-2.1.2/src/core\mem.c ****     mem2 = ptr_to_mem(ptr2);
 896              		.loc 1 790 5
 790:C:/Users/stapi/OneDrive/Desktop/GD32VW553/V1_MQTT_OK/GD32VW55X_Wifi_BLE_SDK/GD32VW55x_RELEASE_V1.0.2/MSDK/lwip/lwip-2.1.2/src/core\mem.c ****     mem2 = ptr_to_mem(ptr2);
 897              		.loc 1 790 5
 791:C:/Users/stapi/OneDrive/Desktop/GD32VW553/V1_MQTT_OK/GD32VW55X_Wifi_BLE_SDK/GD32VW55x_RELEASE_V1.0.2/MSDK/lwip/lwip-2.1.2/src/core\mem.c ****     if (mem2 < lfree) {
 898              		.loc 1 791 5
 899              	.LBB116:
 900              	.LBB117:
 453:C:/Users/stapi/OneDrive/Desktop/GD32VW553/V1_MQTT_OK/GD32VW55X_Wifi_BLE_SDK/GD32VW55x_RELEASE_V1.0.2/MSDK/lwip/lwip-2.1.2/src/core\mem.c **** }
 901              		.loc 1 453 3
 902              	.LBE117:
 903              	.LBE116:
 792:C:/Users/stapi/OneDrive/Desktop/GD32VW553/V1_MQTT_OK/GD32VW55X_Wifi_BLE_SDK/GD32VW55x_RELEASE_V1.0.2/MSDK/lwip/lwip-2.1.2/src/core\mem.c ****       lfree = mem2;
 904              		.loc 1 792 14 is_stmt 0
 905 01aa 37060000 		lui	a2,%hi(.LANCHOR2)
 906              	.LVL65:
 907 01ae 13060600 		addi	a2,a2,%lo(.LANCHOR2)
 792:C:/Users/stapi/OneDrive/Desktop/GD32VW553/V1_MQTT_OK/GD32VW55X_Wifi_BLE_SDK/GD32VW55x_RELEASE_V1.0.2/MSDK/lwip/lwip-2.1.2/src/core\mem.c ****       lfree = mem2;
 908              		.loc 1 792 8
 909 01b2 0C42     		lw	a1,0(a2)
 910              	.LBB119:
 911              	.LBB118:
 453:C:/Users/stapi/OneDrive/Desktop/GD32VW553/V1_MQTT_OK/GD32VW55X_Wifi_BLE_SDK/GD32VW55x_RELEASE_V1.0.2/MSDK/lwip/lwip-2.1.2/src/core\mem.c **** }
 912              		.loc 1 453 10
 913 01b4 33878700 		add	a4,a5,s0
 914              	.LVL66:
 915              	.LBE118:
 916              	.LBE119:
 792:C:/Users/stapi/OneDrive/Desktop/GD32VW553/V1_MQTT_OK/GD32VW55X_Wifi_BLE_SDK/GD32VW55x_RELEASE_V1.0.2/MSDK/lwip/lwip-2.1.2/src/core\mem.c ****       lfree = mem2;
 917              		.loc 1 792 5 is_stmt 1
 792:C:/Users/stapi/OneDrive/Desktop/GD32VW553/V1_MQTT_OK/GD32VW55X_Wifi_BLE_SDK/GD32VW55x_RELEASE_V1.0.2/MSDK/lwip/lwip-2.1.2/src/core\mem.c ****       lfree = mem2;
 918              		.loc 1 792 8 is_stmt 0
 919 01b8 6373B700 		bleu	a1,a4,.L55
 793:C:/Users/stapi/OneDrive/Desktop/GD32VW553/V1_MQTT_OK/GD32VW55X_Wifi_BLE_SDK/GD32VW55x_RELEASE_V1.0.2/MSDK/lwip/lwip-2.1.2/src/core\mem.c ****     }
 920              		.loc 1 793 7 is_stmt 1
 793:C:/Users/stapi/OneDrive/Desktop/GD32VW553/V1_MQTT_OK/GD32VW55X_Wifi_BLE_SDK/GD32VW55x_RELEASE_V1.0.2/MSDK/lwip/lwip-2.1.2/src/core\mem.c ****     }
 921              		.loc 1 793 13 is_stmt 0
 922 01bc 18C2     		sw	a4,0(a2)
 923              	.L55:
 795:C:/Users/stapi/OneDrive/Desktop/GD32VW553/V1_MQTT_OK/GD32VW55X_Wifi_BLE_SDK/GD32VW55x_RELEASE_V1.0.2/MSDK/lwip/lwip-2.1.2/src/core\mem.c ****     mem2->next = mem->next;
 924              		.loc 1 795 5 is_stmt 1
 796:C:/Users/stapi/OneDrive/Desktop/GD32VW553/V1_MQTT_OK/GD32VW55X_Wifi_BLE_SDK/GD32VW55x_RELEASE_V1.0.2/MSDK/lwip/lwip-2.1.2/src/core\mem.c ****     mem2->prev = ptr;
 925              		.loc 1 796 16 is_stmt 0
 926 01be 2310D700 		sh	a3,0(a4)
 795:C:/Users/stapi/OneDrive/Desktop/GD32VW553/V1_MQTT_OK/GD32VW55X_Wifi_BLE_SDK/GD32VW55x_RELEASE_V1.0.2/MSDK/lwip/lwip-2.1.2/src/core\mem.c ****     mem2->next = mem->next;
 927              		.loc 1 795 16
 928 01c2 23020700 		sb	zero,4(a4)
 796:C:/Users/stapi/OneDrive/Desktop/GD32VW553/V1_MQTT_OK/GD32VW55X_Wifi_BLE_SDK/GD32VW55x_RELEASE_V1.0.2/MSDK/lwip/lwip-2.1.2/src/core\mem.c ****     mem2->prev = ptr;
 929              		.loc 1 796 5 is_stmt 1
 797:C:/Users/stapi/OneDrive/Desktop/GD32VW553/V1_MQTT_OK/GD32VW55X_Wifi_BLE_SDK/GD32VW55x_RELEASE_V1.0.2/MSDK/lwip/lwip-2.1.2/src/core\mem.c ****     mem->next = ptr2;
 930              		.loc 1 797 5
 797:C:/Users/stapi/OneDrive/Desktop/GD32VW553/V1_MQTT_OK/GD32VW55X_Wifi_BLE_SDK/GD32VW55x_RELEASE_V1.0.2/MSDK/lwip/lwip-2.1.2/src/core\mem.c ****     mem->next = ptr2;
 931              		.loc 1 797 16 is_stmt 0
 932 01c6 23112701 		sh	s2,2(a4)
 798:C:/Users/stapi/OneDrive/Desktop/GD32VW553/V1_MQTT_OK/GD32VW55X_Wifi_BLE_SDK/GD32VW55x_RELEASE_V1.0.2/MSDK/lwip/lwip-2.1.2/src/core\mem.c ****     if (mem2->next != MEM_SIZE_ALIGNED) {
 933              		.loc 1 798 5 is_stmt 1
 798:C:/Users/stapi/OneDrive/Desktop/GD32VW553/V1_MQTT_OK/GD32VW55X_Wifi_BLE_SDK/GD32VW55x_RELEASE_V1.0.2/MSDK/lwip/lwip-2.1.2/src/core\mem.c ****     if (mem2->next != MEM_SIZE_ALIGNED) {
 934              		.loc 1 798 15 is_stmt 0
 935 01ca 239C84FE 		sh	s0,-8(s1)
 799:C:/Users/stapi/OneDrive/Desktop/GD32VW553/V1_MQTT_OK/GD32VW55X_Wifi_BLE_SDK/GD32VW55x_RELEASE_V1.0.2/MSDK/lwip/lwip-2.1.2/src/core\mem.c ****       ptr_to_mem(mem2->next)->prev = ptr2;
 936              		.loc 1 799 5 is_stmt 1
 799:C:/Users/stapi/OneDrive/Desktop/GD32VW553/V1_MQTT_OK/GD32VW55X_Wifi_BLE_SDK/GD32VW55x_RELEASE_V1.0.2/MSDK/lwip/lwip-2.1.2/src/core\mem.c ****       ptr_to_mem(mem2->next)->prev = ptr2;
 937              		.loc 1 799 13 is_stmt 0
 938 01ce 83560700 		lhu	a3,0(a4)
 799:C:/Users/stapi/OneDrive/Desktop/GD32VW553/V1_MQTT_OK/GD32VW55X_Wifi_BLE_SDK/GD32VW55x_RELEASE_V1.0.2/MSDK/lwip/lwip-2.1.2/src/core\mem.c ****       ptr_to_mem(mem2->next)->prev = ptr2;
 939              		.loc 1 799 8
 940 01d2 1967     		li	a4,24576
 941              	.LVL67:
 942 01d4 1307C74E 		addi	a4,a4,1260
 943 01d8 E38BE6F6 		beq	a3,a4,.L51
 800:C:/Users/stapi/OneDrive/Desktop/GD32VW553/V1_MQTT_OK/GD32VW55X_Wifi_BLE_SDK/GD32VW55x_RELEASE_V1.0.2/MSDK/lwip/lwip-2.1.2/src/core\mem.c ****     }
 944              		.loc 1 800 7 is_stmt 1
 945              	.LVL68:
 946              	.LBB120:
 947              	.LBB121:
 453:C:/Users/stapi/OneDrive/Desktop/GD32VW553/V1_MQTT_OK/GD32VW55X_Wifi_BLE_SDK/GD32VW55x_RELEASE_V1.0.2/MSDK/lwip/lwip-2.1.2/src/core\mem.c **** }
 948              		.loc 1 453 3
 949              	.LBE121:
 950              	.LBE120:
 800:C:/Users/stapi/OneDrive/Desktop/GD32VW553/V1_MQTT_OK/GD32VW55X_Wifi_BLE_SDK/GD32VW55x_RELEASE_V1.0.2/MSDK/lwip/lwip-2.1.2/src/core\mem.c ****     }
 951              		.loc 1 800 36 is_stmt 0
 952 01dc B697     		add	a5,a5,a3
 953              	.LVL69:
 954              	.L60:
 955 01de 23918700 		sh	s0,2(a5)
 956 01e2 B5B7     		j	.L51
 957              		.cfi_endproc
 958              	.LFE10:
 960              		.section	.rodata.mem_malloc.str1.4,"aMS",@progbits,1
 961              		.align	2
 962              	.LC12:
 963 0000 6D656D5F 		.string	"mem_malloc: !lfree->used"
 963      6D616C6C 
 963      6F633A20 
 963      216C6672 
 963      65652D3E 
 964 0019 000000   		.align	2
 965              	.LC13:
 966 001c 6D656D5F 		.string	"mem_malloc: allocated memory not above ram_end."
 966      6D616C6C 
 966      6F633A20 
 966      616C6C6F 
 966      63617465 
 967              		.align	2
 968              	.LC14:
 969 004c 6D656D5F 		.string	"mem_malloc: allocated memory properly aligned."
 969      6D616C6C 
 969      6F633A20 
 969      616C6C6F 
 969      63617465 
 970              		.section	.text.mem_malloc,"ax",@progbits
 971              		.align	1
 972              		.globl	mem_malloc
 974              	mem_malloc:
 975              	.LFB11:
 821:C:/Users/stapi/OneDrive/Desktop/GD32VW553/V1_MQTT_OK/GD32VW55X_Wifi_BLE_SDK/GD32VW55x_RELEASE_V1.0.2/MSDK/lwip/lwip-2.1.2/src/core\mem.c **** 
 822:C:/Users/stapi/OneDrive/Desktop/GD32VW553/V1_MQTT_OK/GD32VW55X_Wifi_BLE_SDK/GD32VW55x_RELEASE_V1.0.2/MSDK/lwip/lwip-2.1.2/src/core\mem.c **** /**
 823:C:/Users/stapi/OneDrive/Desktop/GD32VW553/V1_MQTT_OK/GD32VW55X_Wifi_BLE_SDK/GD32VW55x_RELEASE_V1.0.2/MSDK/lwip/lwip-2.1.2/src/core\mem.c ****  * Allocate a block of memory with a minimum of 'size' bytes.
 824:C:/Users/stapi/OneDrive/Desktop/GD32VW553/V1_MQTT_OK/GD32VW55X_Wifi_BLE_SDK/GD32VW55x_RELEASE_V1.0.2/MSDK/lwip/lwip-2.1.2/src/core\mem.c ****  *
 825:C:/Users/stapi/OneDrive/Desktop/GD32VW553/V1_MQTT_OK/GD32VW55X_Wifi_BLE_SDK/GD32VW55x_RELEASE_V1.0.2/MSDK/lwip/lwip-2.1.2/src/core\mem.c ****  * @param size_in is the minimum size of the requested block in bytes.
 826:C:/Users/stapi/OneDrive/Desktop/GD32VW553/V1_MQTT_OK/GD32VW55X_Wifi_BLE_SDK/GD32VW55x_RELEASE_V1.0.2/MSDK/lwip/lwip-2.1.2/src/core\mem.c ****  * @return pointer to allocated memory or NULL if no free memory was found.
 827:C:/Users/stapi/OneDrive/Desktop/GD32VW553/V1_MQTT_OK/GD32VW55X_Wifi_BLE_SDK/GD32VW55x_RELEASE_V1.0.2/MSDK/lwip/lwip-2.1.2/src/core\mem.c ****  *
 828:C:/Users/stapi/OneDrive/Desktop/GD32VW553/V1_MQTT_OK/GD32VW55X_Wifi_BLE_SDK/GD32VW55x_RELEASE_V1.0.2/MSDK/lwip/lwip-2.1.2/src/core\mem.c ****  * Note that the returned value will always be aligned (as defined by MEM_ALIGNMENT).
 829:C:/Users/stapi/OneDrive/Desktop/GD32VW553/V1_MQTT_OK/GD32VW55X_Wifi_BLE_SDK/GD32VW55x_RELEASE_V1.0.2/MSDK/lwip/lwip-2.1.2/src/core\mem.c ****  */
 830:C:/Users/stapi/OneDrive/Desktop/GD32VW553/V1_MQTT_OK/GD32VW55X_Wifi_BLE_SDK/GD32VW55x_RELEASE_V1.0.2/MSDK/lwip/lwip-2.1.2/src/core\mem.c **** void *
 831:C:/Users/stapi/OneDrive/Desktop/GD32VW553/V1_MQTT_OK/GD32VW55X_Wifi_BLE_SDK/GD32VW55x_RELEASE_V1.0.2/MSDK/lwip/lwip-2.1.2/src/core\mem.c **** mem_malloc(mem_size_t size_in)
 832:C:/Users/stapi/OneDrive/Desktop/GD32VW553/V1_MQTT_OK/GD32VW55X_Wifi_BLE_SDK/GD32VW55x_RELEASE_V1.0.2/MSDK/lwip/lwip-2.1.2/src/core\mem.c **** {
 976              		.loc 1 832 1 is_stmt 1
 977              		.cfi_startproc
 978              	.LVL70:
 833:C:/Users/stapi/OneDrive/Desktop/GD32VW553/V1_MQTT_OK/GD32VW55X_Wifi_BLE_SDK/GD32VW55x_RELEASE_V1.0.2/MSDK/lwip/lwip-2.1.2/src/core\mem.c ****   mem_size_t ptr, ptr2, size;
 979              		.loc 1 833 3
 834:C:/Users/stapi/OneDrive/Desktop/GD32VW553/V1_MQTT_OK/GD32VW55X_Wifi_BLE_SDK/GD32VW55x_RELEASE_V1.0.2/MSDK/lwip/lwip-2.1.2/src/core\mem.c ****   struct mem *mem, *mem2;
 980              		.loc 1 834 3
 835:C:/Users/stapi/OneDrive/Desktop/GD32VW553/V1_MQTT_OK/GD32VW55X_Wifi_BLE_SDK/GD32VW55x_RELEASE_V1.0.2/MSDK/lwip/lwip-2.1.2/src/core\mem.c **** #if LWIP_ALLOW_MEM_FREE_FROM_OTHER_CONTEXT
 836:C:/Users/stapi/OneDrive/Desktop/GD32VW553/V1_MQTT_OK/GD32VW55X_Wifi_BLE_SDK/GD32VW55x_RELEASE_V1.0.2/MSDK/lwip/lwip-2.1.2/src/core\mem.c ****   u8_t local_mem_free_count = 0;
 837:C:/Users/stapi/OneDrive/Desktop/GD32VW553/V1_MQTT_OK/GD32VW55X_Wifi_BLE_SDK/GD32VW55x_RELEASE_V1.0.2/MSDK/lwip/lwip-2.1.2/src/core\mem.c **** #endif /* LWIP_ALLOW_MEM_FREE_FROM_OTHER_CONTEXT */
 838:C:/Users/stapi/OneDrive/Desktop/GD32VW553/V1_MQTT_OK/GD32VW55X_Wifi_BLE_SDK/GD32VW55x_RELEASE_V1.0.2/MSDK/lwip/lwip-2.1.2/src/core\mem.c ****   LWIP_MEM_ALLOC_DECL_PROTECT();
 981              		.loc 1 838 32
 839:C:/Users/stapi/OneDrive/Desktop/GD32VW553/V1_MQTT_OK/GD32VW55X_Wifi_BLE_SDK/GD32VW55x_RELEASE_V1.0.2/MSDK/lwip/lwip-2.1.2/src/core\mem.c **** 
 840:C:/Users/stapi/OneDrive/Desktop/GD32VW553/V1_MQTT_OK/GD32VW55X_Wifi_BLE_SDK/GD32VW55x_RELEASE_V1.0.2/MSDK/lwip/lwip-2.1.2/src/core\mem.c ****   if (size_in == 0) {
 982              		.loc 1 840 3
 983              		.loc 1 840 6 is_stmt 0
 984 0000 630B051C 		beq	a0,zero,.L79
 832:C:/Users/stapi/OneDrive/Desktop/GD32VW553/V1_MQTT_OK/GD32VW55X_Wifi_BLE_SDK/GD32VW55x_RELEASE_V1.0.2/MSDK/lwip/lwip-2.1.2/src/core\mem.c ****   mem_size_t ptr, ptr2, size;
 985              		.loc 1 832 1
 986 0004 17030000 		call	t0,__riscv_save_3
 986      E7020300 
 987              		.cfi_offset 18, -16
 988              		.cfi_offset 9, -12
 989              		.cfi_offset 8, -8
 990              		.cfi_offset 1, -4
 991              		.cfi_def_cfa_offset 16
 841:C:/Users/stapi/OneDrive/Desktop/GD32VW553/V1_MQTT_OK/GD32VW55X_Wifi_BLE_SDK/GD32VW55x_RELEASE_V1.0.2/MSDK/lwip/lwip-2.1.2/src/core\mem.c ****     return NULL;
 842:C:/Users/stapi/OneDrive/Desktop/GD32VW553/V1_MQTT_OK/GD32VW55X_Wifi_BLE_SDK/GD32VW55x_RELEASE_V1.0.2/MSDK/lwip/lwip-2.1.2/src/core\mem.c ****   }
 843:C:/Users/stapi/OneDrive/Desktop/GD32VW553/V1_MQTT_OK/GD32VW55X_Wifi_BLE_SDK/GD32VW55x_RELEASE_V1.0.2/MSDK/lwip/lwip-2.1.2/src/core\mem.c **** 
 844:C:/Users/stapi/OneDrive/Desktop/GD32VW553/V1_MQTT_OK/GD32VW55X_Wifi_BLE_SDK/GD32VW55x_RELEASE_V1.0.2/MSDK/lwip/lwip-2.1.2/src/core\mem.c ****   /* Expand the size of the allocated memory region so that we can
 845:C:/Users/stapi/OneDrive/Desktop/GD32VW553/V1_MQTT_OK/GD32VW55X_Wifi_BLE_SDK/GD32VW55x_RELEASE_V1.0.2/MSDK/lwip/lwip-2.1.2/src/core\mem.c ****      adjust for alignment. */
 846:C:/Users/stapi/OneDrive/Desktop/GD32VW553/V1_MQTT_OK/GD32VW55X_Wifi_BLE_SDK/GD32VW55x_RELEASE_V1.0.2/MSDK/lwip/lwip-2.1.2/src/core\mem.c ****   size = (mem_size_t)LWIP_MEM_ALIGN_SIZE(size_in);
 992              		.loc 1 846 3 is_stmt 1
 993              		.loc 1 846 22 is_stmt 0
 994 000c 13043500 		addi	s0,a0,3
 995              		.loc 1 846 8
 996 0010 7198     		andi	s0,s0,-4
 847:C:/Users/stapi/OneDrive/Desktop/GD32VW553/V1_MQTT_OK/GD32VW55X_Wifi_BLE_SDK/GD32VW55x_RELEASE_V1.0.2/MSDK/lwip/lwip-2.1.2/src/core\mem.c ****   if (size < MIN_SIZE_ALIGNED) {
 997              		.loc 1 847 6
 998 0012 AD47     		li	a5,11
 846:C:/Users/stapi/OneDrive/Desktop/GD32VW553/V1_MQTT_OK/GD32VW55X_Wifi_BLE_SDK/GD32VW55x_RELEASE_V1.0.2/MSDK/lwip/lwip-2.1.2/src/core\mem.c ****   if (size < MIN_SIZE_ALIGNED) {
 999              		.loc 1 846 8
 1000 0014 33440408 		zext.h	s0,s0
 1001              	.LVL71:
 1002              		.loc 1 847 3 is_stmt 1
 1003              		.loc 1 847 6 is_stmt 0
 1004 0018 63FC8700 		bleu	s0,a5,.L80
 848:C:/Users/stapi/OneDrive/Desktop/GD32VW553/V1_MQTT_OK/GD32VW55X_Wifi_BLE_SDK/GD32VW55x_RELEASE_V1.0.2/MSDK/lwip/lwip-2.1.2/src/core\mem.c ****     /* every data block must be at least MIN_SIZE_ALIGNED long */
 849:C:/Users/stapi/OneDrive/Desktop/GD32VW553/V1_MQTT_OK/GD32VW55X_Wifi_BLE_SDK/GD32VW55x_RELEASE_V1.0.2/MSDK/lwip/lwip-2.1.2/src/core\mem.c ****     size = MIN_SIZE_ALIGNED;
 850:C:/Users/stapi/OneDrive/Desktop/GD32VW553/V1_MQTT_OK/GD32VW55X_Wifi_BLE_SDK/GD32VW55x_RELEASE_V1.0.2/MSDK/lwip/lwip-2.1.2/src/core\mem.c ****   }
 851:C:/Users/stapi/OneDrive/Desktop/GD32VW553/V1_MQTT_OK/GD32VW55X_Wifi_BLE_SDK/GD32VW55x_RELEASE_V1.0.2/MSDK/lwip/lwip-2.1.2/src/core\mem.c **** #if MEM_OVERFLOW_CHECK
 852:C:/Users/stapi/OneDrive/Desktop/GD32VW553/V1_MQTT_OK/GD32VW55X_Wifi_BLE_SDK/GD32VW55x_RELEASE_V1.0.2/MSDK/lwip/lwip-2.1.2/src/core\mem.c ****   size += MEM_SANITY_REGION_BEFORE_ALIGNED + MEM_SANITY_REGION_AFTER_ALIGNED;
 853:C:/Users/stapi/OneDrive/Desktop/GD32VW553/V1_MQTT_OK/GD32VW55X_Wifi_BLE_SDK/GD32VW55x_RELEASE_V1.0.2/MSDK/lwip/lwip-2.1.2/src/core\mem.c **** #endif
 854:C:/Users/stapi/OneDrive/Desktop/GD32VW553/V1_MQTT_OK/GD32VW55X_Wifi_BLE_SDK/GD32VW55x_RELEASE_V1.0.2/MSDK/lwip/lwip-2.1.2/src/core\mem.c ****   if ((size > MEM_SIZE_ALIGNED) || (size < size_in)) {
 1005              		.loc 1 854 3 is_stmt 1
 1006              		.loc 1 854 6 is_stmt 0
 1007 001c 9967     		li	a5,24576
 1008 001e 9387C74E 		addi	a5,a5,1260
 1009 0022 63F88700 		bleu	s0,a5,.L63
 1010              	.LVL72:
 1011              	.L82:
 841:C:/Users/stapi/OneDrive/Desktop/GD32VW553/V1_MQTT_OK/GD32VW55X_Wifi_BLE_SDK/GD32VW55x_RELEASE_V1.0.2/MSDK/lwip/lwip-2.1.2/src/core\mem.c ****   }
 1012              		.loc 1 841 12
 1013 0026 0145     		li	a0,0
 1014              	.L61:
 855:C:/Users/stapi/OneDrive/Desktop/GD32VW553/V1_MQTT_OK/GD32VW55X_Wifi_BLE_SDK/GD32VW55x_RELEASE_V1.0.2/MSDK/lwip/lwip-2.1.2/src/core\mem.c ****     return NULL;
 856:C:/Users/stapi/OneDrive/Desktop/GD32VW553/V1_MQTT_OK/GD32VW55X_Wifi_BLE_SDK/GD32VW55x_RELEASE_V1.0.2/MSDK/lwip/lwip-2.1.2/src/core\mem.c ****   }
 857:C:/Users/stapi/OneDrive/Desktop/GD32VW553/V1_MQTT_OK/GD32VW55X_Wifi_BLE_SDK/GD32VW55x_RELEASE_V1.0.2/MSDK/lwip/lwip-2.1.2/src/core\mem.c **** 
 858:C:/Users/stapi/OneDrive/Desktop/GD32VW553/V1_MQTT_OK/GD32VW55X_Wifi_BLE_SDK/GD32VW55x_RELEASE_V1.0.2/MSDK/lwip/lwip-2.1.2/src/core\mem.c ****   /* protect the heap from concurrent access */
 859:C:/Users/stapi/OneDrive/Desktop/GD32VW553/V1_MQTT_OK/GD32VW55X_Wifi_BLE_SDK/GD32VW55x_RELEASE_V1.0.2/MSDK/lwip/lwip-2.1.2/src/core\mem.c ****   sys_mutex_lock(&mem_mutex);
 860:C:/Users/stapi/OneDrive/Desktop/GD32VW553/V1_MQTT_OK/GD32VW55X_Wifi_BLE_SDK/GD32VW55x_RELEASE_V1.0.2/MSDK/lwip/lwip-2.1.2/src/core\mem.c ****   LWIP_MEM_ALLOC_PROTECT();
 861:C:/Users/stapi/OneDrive/Desktop/GD32VW553/V1_MQTT_OK/GD32VW55X_Wifi_BLE_SDK/GD32VW55x_RELEASE_V1.0.2/MSDK/lwip/lwip-2.1.2/src/core\mem.c **** #if LWIP_ALLOW_MEM_FREE_FROM_OTHER_CONTEXT
 862:C:/Users/stapi/OneDrive/Desktop/GD32VW553/V1_MQTT_OK/GD32VW55X_Wifi_BLE_SDK/GD32VW55x_RELEASE_V1.0.2/MSDK/lwip/lwip-2.1.2/src/core\mem.c ****   /* run as long as a mem_free disturbed mem_malloc or mem_trim */
 863:C:/Users/stapi/OneDrive/Desktop/GD32VW553/V1_MQTT_OK/GD32VW55X_Wifi_BLE_SDK/GD32VW55x_RELEASE_V1.0.2/MSDK/lwip/lwip-2.1.2/src/core\mem.c ****   do {
 864:C:/Users/stapi/OneDrive/Desktop/GD32VW553/V1_MQTT_OK/GD32VW55X_Wifi_BLE_SDK/GD32VW55x_RELEASE_V1.0.2/MSDK/lwip/lwip-2.1.2/src/core\mem.c ****     local_mem_free_count = 0;
 865:C:/Users/stapi/OneDrive/Desktop/GD32VW553/V1_MQTT_OK/GD32VW55X_Wifi_BLE_SDK/GD32VW55x_RELEASE_V1.0.2/MSDK/lwip/lwip-2.1.2/src/core\mem.c **** #endif /* LWIP_ALLOW_MEM_FREE_FROM_OTHER_CONTEXT */
 866:C:/Users/stapi/OneDrive/Desktop/GD32VW553/V1_MQTT_OK/GD32VW55X_Wifi_BLE_SDK/GD32VW55x_RELEASE_V1.0.2/MSDK/lwip/lwip-2.1.2/src/core\mem.c **** 
 867:C:/Users/stapi/OneDrive/Desktop/GD32VW553/V1_MQTT_OK/GD32VW55X_Wifi_BLE_SDK/GD32VW55x_RELEASE_V1.0.2/MSDK/lwip/lwip-2.1.2/src/core\mem.c ****     /* Scan through the heap searching for a free block that is big enough,
 868:C:/Users/stapi/OneDrive/Desktop/GD32VW553/V1_MQTT_OK/GD32VW55X_Wifi_BLE_SDK/GD32VW55x_RELEASE_V1.0.2/MSDK/lwip/lwip-2.1.2/src/core\mem.c ****      * beginning with the lowest free block.
 869:C:/Users/stapi/OneDrive/Desktop/GD32VW553/V1_MQTT_OK/GD32VW55X_Wifi_BLE_SDK/GD32VW55x_RELEASE_V1.0.2/MSDK/lwip/lwip-2.1.2/src/core\mem.c ****      */
 870:C:/Users/stapi/OneDrive/Desktop/GD32VW553/V1_MQTT_OK/GD32VW55X_Wifi_BLE_SDK/GD32VW55x_RELEASE_V1.0.2/MSDK/lwip/lwip-2.1.2/src/core\mem.c ****     for (ptr = mem_to_ptr(lfree); ptr < MEM_SIZE_ALIGNED - size;
 871:C:/Users/stapi/OneDrive/Desktop/GD32VW553/V1_MQTT_OK/GD32VW55X_Wifi_BLE_SDK/GD32VW55x_RELEASE_V1.0.2/MSDK/lwip/lwip-2.1.2/src/core\mem.c ****          ptr = ptr_to_mem(ptr)->next) {
 872:C:/Users/stapi/OneDrive/Desktop/GD32VW553/V1_MQTT_OK/GD32VW55X_Wifi_BLE_SDK/GD32VW55x_RELEASE_V1.0.2/MSDK/lwip/lwip-2.1.2/src/core\mem.c ****       mem = ptr_to_mem(ptr);
 873:C:/Users/stapi/OneDrive/Desktop/GD32VW553/V1_MQTT_OK/GD32VW55X_Wifi_BLE_SDK/GD32VW55x_RELEASE_V1.0.2/MSDK/lwip/lwip-2.1.2/src/core\mem.c **** #if LWIP_ALLOW_MEM_FREE_FROM_OTHER_CONTEXT
 874:C:/Users/stapi/OneDrive/Desktop/GD32VW553/V1_MQTT_OK/GD32VW55X_Wifi_BLE_SDK/GD32VW55x_RELEASE_V1.0.2/MSDK/lwip/lwip-2.1.2/src/core\mem.c ****       mem_free_count = 0;
 875:C:/Users/stapi/OneDrive/Desktop/GD32VW553/V1_MQTT_OK/GD32VW55X_Wifi_BLE_SDK/GD32VW55x_RELEASE_V1.0.2/MSDK/lwip/lwip-2.1.2/src/core\mem.c ****       LWIP_MEM_ALLOC_UNPROTECT();
 876:C:/Users/stapi/OneDrive/Desktop/GD32VW553/V1_MQTT_OK/GD32VW55X_Wifi_BLE_SDK/GD32VW55x_RELEASE_V1.0.2/MSDK/lwip/lwip-2.1.2/src/core\mem.c ****       /* allow mem_free or mem_trim to run */
 877:C:/Users/stapi/OneDrive/Desktop/GD32VW553/V1_MQTT_OK/GD32VW55X_Wifi_BLE_SDK/GD32VW55x_RELEASE_V1.0.2/MSDK/lwip/lwip-2.1.2/src/core\mem.c ****       LWIP_MEM_ALLOC_PROTECT();
 878:C:/Users/stapi/OneDrive/Desktop/GD32VW553/V1_MQTT_OK/GD32VW55X_Wifi_BLE_SDK/GD32VW55x_RELEASE_V1.0.2/MSDK/lwip/lwip-2.1.2/src/core\mem.c ****       if (mem_free_count != 0) {
 879:C:/Users/stapi/OneDrive/Desktop/GD32VW553/V1_MQTT_OK/GD32VW55X_Wifi_BLE_SDK/GD32VW55x_RELEASE_V1.0.2/MSDK/lwip/lwip-2.1.2/src/core\mem.c ****         /* If mem_free or mem_trim have run, we have to restart since they
 880:C:/Users/stapi/OneDrive/Desktop/GD32VW553/V1_MQTT_OK/GD32VW55X_Wifi_BLE_SDK/GD32VW55x_RELEASE_V1.0.2/MSDK/lwip/lwip-2.1.2/src/core\mem.c ****            could have altered our current struct mem. */
 881:C:/Users/stapi/OneDrive/Desktop/GD32VW553/V1_MQTT_OK/GD32VW55X_Wifi_BLE_SDK/GD32VW55x_RELEASE_V1.0.2/MSDK/lwip/lwip-2.1.2/src/core\mem.c ****         local_mem_free_count = 1;
 882:C:/Users/stapi/OneDrive/Desktop/GD32VW553/V1_MQTT_OK/GD32VW55X_Wifi_BLE_SDK/GD32VW55x_RELEASE_V1.0.2/MSDK/lwip/lwip-2.1.2/src/core\mem.c ****         break;
 883:C:/Users/stapi/OneDrive/Desktop/GD32VW553/V1_MQTT_OK/GD32VW55X_Wifi_BLE_SDK/GD32VW55x_RELEASE_V1.0.2/MSDK/lwip/lwip-2.1.2/src/core\mem.c ****       }
 884:C:/Users/stapi/OneDrive/Desktop/GD32VW553/V1_MQTT_OK/GD32VW55X_Wifi_BLE_SDK/GD32VW55x_RELEASE_V1.0.2/MSDK/lwip/lwip-2.1.2/src/core\mem.c **** #endif /* LWIP_ALLOW_MEM_FREE_FROM_OTHER_CONTEXT */
 885:C:/Users/stapi/OneDrive/Desktop/GD32VW553/V1_MQTT_OK/GD32VW55X_Wifi_BLE_SDK/GD32VW55x_RELEASE_V1.0.2/MSDK/lwip/lwip-2.1.2/src/core\mem.c **** 
 886:C:/Users/stapi/OneDrive/Desktop/GD32VW553/V1_MQTT_OK/GD32VW55X_Wifi_BLE_SDK/GD32VW55x_RELEASE_V1.0.2/MSDK/lwip/lwip-2.1.2/src/core\mem.c ****       if ((!mem->used) &&
 887:C:/Users/stapi/OneDrive/Desktop/GD32VW553/V1_MQTT_OK/GD32VW55X_Wifi_BLE_SDK/GD32VW55x_RELEASE_V1.0.2/MSDK/lwip/lwip-2.1.2/src/core\mem.c ****           (mem->next - (ptr + SIZEOF_STRUCT_MEM)) >= size) {
 888:C:/Users/stapi/OneDrive/Desktop/GD32VW553/V1_MQTT_OK/GD32VW55X_Wifi_BLE_SDK/GD32VW55x_RELEASE_V1.0.2/MSDK/lwip/lwip-2.1.2/src/core\mem.c ****         /* mem is not used and at least perfect fit is possible:
 889:C:/Users/stapi/OneDrive/Desktop/GD32VW553/V1_MQTT_OK/GD32VW55X_Wifi_BLE_SDK/GD32VW55x_RELEASE_V1.0.2/MSDK/lwip/lwip-2.1.2/src/core\mem.c ****          * mem->next - (ptr + SIZEOF_STRUCT_MEM) gives us the 'user data size' of mem */
 890:C:/Users/stapi/OneDrive/Desktop/GD32VW553/V1_MQTT_OK/GD32VW55X_Wifi_BLE_SDK/GD32VW55x_RELEASE_V1.0.2/MSDK/lwip/lwip-2.1.2/src/core\mem.c **** 
 891:C:/Users/stapi/OneDrive/Desktop/GD32VW553/V1_MQTT_OK/GD32VW55X_Wifi_BLE_SDK/GD32VW55x_RELEASE_V1.0.2/MSDK/lwip/lwip-2.1.2/src/core\mem.c ****         if (mem->next - (ptr + SIZEOF_STRUCT_MEM) >= (size + SIZEOF_STRUCT_MEM + MIN_SIZE_ALIGNED))
 892:C:/Users/stapi/OneDrive/Desktop/GD32VW553/V1_MQTT_OK/GD32VW55X_Wifi_BLE_SDK/GD32VW55x_RELEASE_V1.0.2/MSDK/lwip/lwip-2.1.2/src/core\mem.c ****           /* (in addition to the above, we test if another struct mem (SIZEOF_STRUCT_MEM) containin
 893:C:/Users/stapi/OneDrive/Desktop/GD32VW553/V1_MQTT_OK/GD32VW55X_Wifi_BLE_SDK/GD32VW55x_RELEASE_V1.0.2/MSDK/lwip/lwip-2.1.2/src/core\mem.c ****            * at least MIN_SIZE_ALIGNED of data also fits in the 'user data space' of 'mem')
 894:C:/Users/stapi/OneDrive/Desktop/GD32VW553/V1_MQTT_OK/GD32VW55X_Wifi_BLE_SDK/GD32VW55x_RELEASE_V1.0.2/MSDK/lwip/lwip-2.1.2/src/core\mem.c ****            * -> split large block, create empty remainder,
 895:C:/Users/stapi/OneDrive/Desktop/GD32VW553/V1_MQTT_OK/GD32VW55X_Wifi_BLE_SDK/GD32VW55x_RELEASE_V1.0.2/MSDK/lwip/lwip-2.1.2/src/core\mem.c ****            * remainder must be large enough to contain MIN_SIZE_ALIGNED data: if
 896:C:/Users/stapi/OneDrive/Desktop/GD32VW553/V1_MQTT_OK/GD32VW55X_Wifi_BLE_SDK/GD32VW55x_RELEASE_V1.0.2/MSDK/lwip/lwip-2.1.2/src/core\mem.c ****            * mem->next - (ptr + (2*SIZEOF_STRUCT_MEM)) == size,
 897:C:/Users/stapi/OneDrive/Desktop/GD32VW553/V1_MQTT_OK/GD32VW55X_Wifi_BLE_SDK/GD32VW55x_RELEASE_V1.0.2/MSDK/lwip/lwip-2.1.2/src/core\mem.c ****            * struct mem would fit in but no data between mem2 and mem2->next
 898:C:/Users/stapi/OneDrive/Desktop/GD32VW553/V1_MQTT_OK/GD32VW55X_Wifi_BLE_SDK/GD32VW55x_RELEASE_V1.0.2/MSDK/lwip/lwip-2.1.2/src/core\mem.c ****            * @todo we could leave out MIN_SIZE_ALIGNED. We would create an empty
 899:C:/Users/stapi/OneDrive/Desktop/GD32VW553/V1_MQTT_OK/GD32VW55X_Wifi_BLE_SDK/GD32VW55x_RELEASE_V1.0.2/MSDK/lwip/lwip-2.1.2/src/core\mem.c ****            *       region that couldn't hold data, but when mem->next gets freed,
 900:C:/Users/stapi/OneDrive/Desktop/GD32VW553/V1_MQTT_OK/GD32VW55X_Wifi_BLE_SDK/GD32VW55x_RELEASE_V1.0.2/MSDK/lwip/lwip-2.1.2/src/core\mem.c ****            *       the 2 regions would be combined, resulting in more free memory
 901:C:/Users/stapi/OneDrive/Desktop/GD32VW553/V1_MQTT_OK/GD32VW55X_Wifi_BLE_SDK/GD32VW55x_RELEASE_V1.0.2/MSDK/lwip/lwip-2.1.2/src/core\mem.c ****            */
 902:C:/Users/stapi/OneDrive/Desktop/GD32VW553/V1_MQTT_OK/GD32VW55X_Wifi_BLE_SDK/GD32VW55x_RELEASE_V1.0.2/MSDK/lwip/lwip-2.1.2/src/core\mem.c ****           ptr2 = (mem_size_t)(ptr + SIZEOF_STRUCT_MEM + size);
 903:C:/Users/stapi/OneDrive/Desktop/GD32VW553/V1_MQTT_OK/GD32VW55X_Wifi_BLE_SDK/GD32VW55x_RELEASE_V1.0.2/MSDK/lwip/lwip-2.1.2/src/core\mem.c ****           LWIP_ASSERT("invalid next ptr",ptr2 != MEM_SIZE_ALIGNED);
 904:C:/Users/stapi/OneDrive/Desktop/GD32VW553/V1_MQTT_OK/GD32VW55X_Wifi_BLE_SDK/GD32VW55x_RELEASE_V1.0.2/MSDK/lwip/lwip-2.1.2/src/core\mem.c ****           /* create mem2 struct */
 905:C:/Users/stapi/OneDrive/Desktop/GD32VW553/V1_MQTT_OK/GD32VW55X_Wifi_BLE_SDK/GD32VW55x_RELEASE_V1.0.2/MSDK/lwip/lwip-2.1.2/src/core\mem.c ****           mem2 = ptr_to_mem(ptr2);
 906:C:/Users/stapi/OneDrive/Desktop/GD32VW553/V1_MQTT_OK/GD32VW55X_Wifi_BLE_SDK/GD32VW55x_RELEASE_V1.0.2/MSDK/lwip/lwip-2.1.2/src/core\mem.c ****           mem2->used = 0;
 907:C:/Users/stapi/OneDrive/Desktop/GD32VW553/V1_MQTT_OK/GD32VW55X_Wifi_BLE_SDK/GD32VW55x_RELEASE_V1.0.2/MSDK/lwip/lwip-2.1.2/src/core\mem.c ****           mem2->next = mem->next;
 908:C:/Users/stapi/OneDrive/Desktop/GD32VW553/V1_MQTT_OK/GD32VW55X_Wifi_BLE_SDK/GD32VW55x_RELEASE_V1.0.2/MSDK/lwip/lwip-2.1.2/src/core\mem.c ****           mem2->prev = ptr;
 909:C:/Users/stapi/OneDrive/Desktop/GD32VW553/V1_MQTT_OK/GD32VW55X_Wifi_BLE_SDK/GD32VW55x_RELEASE_V1.0.2/MSDK/lwip/lwip-2.1.2/src/core\mem.c ****           /* and insert it between mem and mem->next */
 910:C:/Users/stapi/OneDrive/Desktop/GD32VW553/V1_MQTT_OK/GD32VW55X_Wifi_BLE_SDK/GD32VW55x_RELEASE_V1.0.2/MSDK/lwip/lwip-2.1.2/src/core\mem.c ****           mem->next = ptr2;
 911:C:/Users/stapi/OneDrive/Desktop/GD32VW553/V1_MQTT_OK/GD32VW55X_Wifi_BLE_SDK/GD32VW55x_RELEASE_V1.0.2/MSDK/lwip/lwip-2.1.2/src/core\mem.c ****           mem->used = 1;
 912:C:/Users/stapi/OneDrive/Desktop/GD32VW553/V1_MQTT_OK/GD32VW55X_Wifi_BLE_SDK/GD32VW55x_RELEASE_V1.0.2/MSDK/lwip/lwip-2.1.2/src/core\mem.c **** 
 913:C:/Users/stapi/OneDrive/Desktop/GD32VW553/V1_MQTT_OK/GD32VW55X_Wifi_BLE_SDK/GD32VW55x_RELEASE_V1.0.2/MSDK/lwip/lwip-2.1.2/src/core\mem.c ****           if (mem2->next != MEM_SIZE_ALIGNED) {
 914:C:/Users/stapi/OneDrive/Desktop/GD32VW553/V1_MQTT_OK/GD32VW55X_Wifi_BLE_SDK/GD32VW55x_RELEASE_V1.0.2/MSDK/lwip/lwip-2.1.2/src/core\mem.c ****             ptr_to_mem(mem2->next)->prev = ptr2;
 915:C:/Users/stapi/OneDrive/Desktop/GD32VW553/V1_MQTT_OK/GD32VW55X_Wifi_BLE_SDK/GD32VW55x_RELEASE_V1.0.2/MSDK/lwip/lwip-2.1.2/src/core\mem.c ****           }
 916:C:/Users/stapi/OneDrive/Desktop/GD32VW553/V1_MQTT_OK/GD32VW55X_Wifi_BLE_SDK/GD32VW55x_RELEASE_V1.0.2/MSDK/lwip/lwip-2.1.2/src/core\mem.c ****           MEM_STATS_INC_USED(used, (size + SIZEOF_STRUCT_MEM));
 917:C:/Users/stapi/OneDrive/Desktop/GD32VW553/V1_MQTT_OK/GD32VW55X_Wifi_BLE_SDK/GD32VW55x_RELEASE_V1.0.2/MSDK/lwip/lwip-2.1.2/src/core\mem.c ****         } else {
 918:C:/Users/stapi/OneDrive/Desktop/GD32VW553/V1_MQTT_OK/GD32VW55X_Wifi_BLE_SDK/GD32VW55x_RELEASE_V1.0.2/MSDK/lwip/lwip-2.1.2/src/core\mem.c ****           /* (a mem2 struct does no fit into the user data space of mem and mem->next will always
 919:C:/Users/stapi/OneDrive/Desktop/GD32VW553/V1_MQTT_OK/GD32VW55X_Wifi_BLE_SDK/GD32VW55x_RELEASE_V1.0.2/MSDK/lwip/lwip-2.1.2/src/core\mem.c ****            * be used at this point: if not we have 2 unused structs in a row, plug_holes should hav
 920:C:/Users/stapi/OneDrive/Desktop/GD32VW553/V1_MQTT_OK/GD32VW55X_Wifi_BLE_SDK/GD32VW55x_RELEASE_V1.0.2/MSDK/lwip/lwip-2.1.2/src/core\mem.c ****            * take care of this).
 921:C:/Users/stapi/OneDrive/Desktop/GD32VW553/V1_MQTT_OK/GD32VW55X_Wifi_BLE_SDK/GD32VW55x_RELEASE_V1.0.2/MSDK/lwip/lwip-2.1.2/src/core\mem.c ****            * -> near fit or exact fit: do not split, no mem2 creation
 922:C:/Users/stapi/OneDrive/Desktop/GD32VW553/V1_MQTT_OK/GD32VW55X_Wifi_BLE_SDK/GD32VW55x_RELEASE_V1.0.2/MSDK/lwip/lwip-2.1.2/src/core\mem.c ****            * also can't move mem->next directly behind mem, since mem->next
 923:C:/Users/stapi/OneDrive/Desktop/GD32VW553/V1_MQTT_OK/GD32VW55X_Wifi_BLE_SDK/GD32VW55x_RELEASE_V1.0.2/MSDK/lwip/lwip-2.1.2/src/core\mem.c ****            * will always be used at this point!
 924:C:/Users/stapi/OneDrive/Desktop/GD32VW553/V1_MQTT_OK/GD32VW55X_Wifi_BLE_SDK/GD32VW55x_RELEASE_V1.0.2/MSDK/lwip/lwip-2.1.2/src/core\mem.c ****            */
 925:C:/Users/stapi/OneDrive/Desktop/GD32VW553/V1_MQTT_OK/GD32VW55X_Wifi_BLE_SDK/GD32VW55x_RELEASE_V1.0.2/MSDK/lwip/lwip-2.1.2/src/core\mem.c ****           mem->used = 1;
 926:C:/Users/stapi/OneDrive/Desktop/GD32VW553/V1_MQTT_OK/GD32VW55X_Wifi_BLE_SDK/GD32VW55x_RELEASE_V1.0.2/MSDK/lwip/lwip-2.1.2/src/core\mem.c ****           MEM_STATS_INC_USED(used, mem->next - mem_to_ptr(mem));
 927:C:/Users/stapi/OneDrive/Desktop/GD32VW553/V1_MQTT_OK/GD32VW55X_Wifi_BLE_SDK/GD32VW55x_RELEASE_V1.0.2/MSDK/lwip/lwip-2.1.2/src/core\mem.c ****         }
 928:C:/Users/stapi/OneDrive/Desktop/GD32VW553/V1_MQTT_OK/GD32VW55X_Wifi_BLE_SDK/GD32VW55x_RELEASE_V1.0.2/MSDK/lwip/lwip-2.1.2/src/core\mem.c **** #if LWIP_ALLOW_MEM_FREE_FROM_OTHER_CONTEXT
 929:C:/Users/stapi/OneDrive/Desktop/GD32VW553/V1_MQTT_OK/GD32VW55X_Wifi_BLE_SDK/GD32VW55x_RELEASE_V1.0.2/MSDK/lwip/lwip-2.1.2/src/core\mem.c **** mem_malloc_adjust_lfree:
 930:C:/Users/stapi/OneDrive/Desktop/GD32VW553/V1_MQTT_OK/GD32VW55X_Wifi_BLE_SDK/GD32VW55x_RELEASE_V1.0.2/MSDK/lwip/lwip-2.1.2/src/core\mem.c **** #endif /* LWIP_ALLOW_MEM_FREE_FROM_OTHER_CONTEXT */
 931:C:/Users/stapi/OneDrive/Desktop/GD32VW553/V1_MQTT_OK/GD32VW55X_Wifi_BLE_SDK/GD32VW55x_RELEASE_V1.0.2/MSDK/lwip/lwip-2.1.2/src/core\mem.c ****         if (mem == lfree) {
 932:C:/Users/stapi/OneDrive/Desktop/GD32VW553/V1_MQTT_OK/GD32VW55X_Wifi_BLE_SDK/GD32VW55x_RELEASE_V1.0.2/MSDK/lwip/lwip-2.1.2/src/core\mem.c ****           struct mem *cur = lfree;
 933:C:/Users/stapi/OneDrive/Desktop/GD32VW553/V1_MQTT_OK/GD32VW55X_Wifi_BLE_SDK/GD32VW55x_RELEASE_V1.0.2/MSDK/lwip/lwip-2.1.2/src/core\mem.c ****           /* Find next free block after mem and update lowest free pointer */
 934:C:/Users/stapi/OneDrive/Desktop/GD32VW553/V1_MQTT_OK/GD32VW55X_Wifi_BLE_SDK/GD32VW55x_RELEASE_V1.0.2/MSDK/lwip/lwip-2.1.2/src/core\mem.c ****           while (cur->used && cur != ram_end) {
 935:C:/Users/stapi/OneDrive/Desktop/GD32VW553/V1_MQTT_OK/GD32VW55X_Wifi_BLE_SDK/GD32VW55x_RELEASE_V1.0.2/MSDK/lwip/lwip-2.1.2/src/core\mem.c **** #if LWIP_ALLOW_MEM_FREE_FROM_OTHER_CONTEXT
 936:C:/Users/stapi/OneDrive/Desktop/GD32VW553/V1_MQTT_OK/GD32VW55X_Wifi_BLE_SDK/GD32VW55x_RELEASE_V1.0.2/MSDK/lwip/lwip-2.1.2/src/core\mem.c ****             mem_free_count = 0;
 937:C:/Users/stapi/OneDrive/Desktop/GD32VW553/V1_MQTT_OK/GD32VW55X_Wifi_BLE_SDK/GD32VW55x_RELEASE_V1.0.2/MSDK/lwip/lwip-2.1.2/src/core\mem.c ****             LWIP_MEM_ALLOC_UNPROTECT();
 938:C:/Users/stapi/OneDrive/Desktop/GD32VW553/V1_MQTT_OK/GD32VW55X_Wifi_BLE_SDK/GD32VW55x_RELEASE_V1.0.2/MSDK/lwip/lwip-2.1.2/src/core\mem.c ****             /* prevent high interrupt latency... */
 939:C:/Users/stapi/OneDrive/Desktop/GD32VW553/V1_MQTT_OK/GD32VW55X_Wifi_BLE_SDK/GD32VW55x_RELEASE_V1.0.2/MSDK/lwip/lwip-2.1.2/src/core\mem.c ****             LWIP_MEM_ALLOC_PROTECT();
 940:C:/Users/stapi/OneDrive/Desktop/GD32VW553/V1_MQTT_OK/GD32VW55X_Wifi_BLE_SDK/GD32VW55x_RELEASE_V1.0.2/MSDK/lwip/lwip-2.1.2/src/core\mem.c ****             if (mem_free_count != 0) {
 941:C:/Users/stapi/OneDrive/Desktop/GD32VW553/V1_MQTT_OK/GD32VW55X_Wifi_BLE_SDK/GD32VW55x_RELEASE_V1.0.2/MSDK/lwip/lwip-2.1.2/src/core\mem.c ****               /* If mem_free or mem_trim have run, we have to restart since they
 942:C:/Users/stapi/OneDrive/Desktop/GD32VW553/V1_MQTT_OK/GD32VW55X_Wifi_BLE_SDK/GD32VW55x_RELEASE_V1.0.2/MSDK/lwip/lwip-2.1.2/src/core\mem.c ****                  could have altered our current struct mem or lfree. */
 943:C:/Users/stapi/OneDrive/Desktop/GD32VW553/V1_MQTT_OK/GD32VW55X_Wifi_BLE_SDK/GD32VW55x_RELEASE_V1.0.2/MSDK/lwip/lwip-2.1.2/src/core\mem.c ****               goto mem_malloc_adjust_lfree;
 944:C:/Users/stapi/OneDrive/Desktop/GD32VW553/V1_MQTT_OK/GD32VW55X_Wifi_BLE_SDK/GD32VW55x_RELEASE_V1.0.2/MSDK/lwip/lwip-2.1.2/src/core\mem.c ****             }
 945:C:/Users/stapi/OneDrive/Desktop/GD32VW553/V1_MQTT_OK/GD32VW55X_Wifi_BLE_SDK/GD32VW55x_RELEASE_V1.0.2/MSDK/lwip/lwip-2.1.2/src/core\mem.c **** #endif /* LWIP_ALLOW_MEM_FREE_FROM_OTHER_CONTEXT */
 946:C:/Users/stapi/OneDrive/Desktop/GD32VW553/V1_MQTT_OK/GD32VW55X_Wifi_BLE_SDK/GD32VW55x_RELEASE_V1.0.2/MSDK/lwip/lwip-2.1.2/src/core\mem.c ****             cur = ptr_to_mem(cur->next);
 947:C:/Users/stapi/OneDrive/Desktop/GD32VW553/V1_MQTT_OK/GD32VW55X_Wifi_BLE_SDK/GD32VW55x_RELEASE_V1.0.2/MSDK/lwip/lwip-2.1.2/src/core\mem.c ****           }
 948:C:/Users/stapi/OneDrive/Desktop/GD32VW553/V1_MQTT_OK/GD32VW55X_Wifi_BLE_SDK/GD32VW55x_RELEASE_V1.0.2/MSDK/lwip/lwip-2.1.2/src/core\mem.c ****           lfree = cur;
 949:C:/Users/stapi/OneDrive/Desktop/GD32VW553/V1_MQTT_OK/GD32VW55X_Wifi_BLE_SDK/GD32VW55x_RELEASE_V1.0.2/MSDK/lwip/lwip-2.1.2/src/core\mem.c ****           LWIP_ASSERT("mem_malloc: !lfree->used", ((lfree == ram_end) || (!lfree->used)));
 950:C:/Users/stapi/OneDrive/Desktop/GD32VW553/V1_MQTT_OK/GD32VW55X_Wifi_BLE_SDK/GD32VW55x_RELEASE_V1.0.2/MSDK/lwip/lwip-2.1.2/src/core\mem.c ****         }
 951:C:/Users/stapi/OneDrive/Desktop/GD32VW553/V1_MQTT_OK/GD32VW55X_Wifi_BLE_SDK/GD32VW55x_RELEASE_V1.0.2/MSDK/lwip/lwip-2.1.2/src/core\mem.c ****         LWIP_MEM_ALLOC_UNPROTECT();
 952:C:/Users/stapi/OneDrive/Desktop/GD32VW553/V1_MQTT_OK/GD32VW55X_Wifi_BLE_SDK/GD32VW55x_RELEASE_V1.0.2/MSDK/lwip/lwip-2.1.2/src/core\mem.c ****         sys_mutex_unlock(&mem_mutex);
 953:C:/Users/stapi/OneDrive/Desktop/GD32VW553/V1_MQTT_OK/GD32VW55X_Wifi_BLE_SDK/GD32VW55x_RELEASE_V1.0.2/MSDK/lwip/lwip-2.1.2/src/core\mem.c ****         LWIP_ASSERT("mem_malloc: allocated memory not above ram_end.",
 954:C:/Users/stapi/OneDrive/Desktop/GD32VW553/V1_MQTT_OK/GD32VW55X_Wifi_BLE_SDK/GD32VW55x_RELEASE_V1.0.2/MSDK/lwip/lwip-2.1.2/src/core\mem.c ****                     (mem_ptr_t)mem + SIZEOF_STRUCT_MEM + size <= (mem_ptr_t)ram_end);
 955:C:/Users/stapi/OneDrive/Desktop/GD32VW553/V1_MQTT_OK/GD32VW55X_Wifi_BLE_SDK/GD32VW55x_RELEASE_V1.0.2/MSDK/lwip/lwip-2.1.2/src/core\mem.c ****         LWIP_ASSERT("mem_malloc: allocated memory properly aligned.",
 956:C:/Users/stapi/OneDrive/Desktop/GD32VW553/V1_MQTT_OK/GD32VW55X_Wifi_BLE_SDK/GD32VW55x_RELEASE_V1.0.2/MSDK/lwip/lwip-2.1.2/src/core\mem.c ****                     ((mem_ptr_t)mem + SIZEOF_STRUCT_MEM) % MEM_ALIGNMENT == 0);
 957:C:/Users/stapi/OneDrive/Desktop/GD32VW553/V1_MQTT_OK/GD32VW55X_Wifi_BLE_SDK/GD32VW55x_RELEASE_V1.0.2/MSDK/lwip/lwip-2.1.2/src/core\mem.c ****         LWIP_ASSERT("mem_malloc: sanity check alignment",
 958:C:/Users/stapi/OneDrive/Desktop/GD32VW553/V1_MQTT_OK/GD32VW55X_Wifi_BLE_SDK/GD32VW55x_RELEASE_V1.0.2/MSDK/lwip/lwip-2.1.2/src/core\mem.c ****                     (((mem_ptr_t)mem) & (MEM_ALIGNMENT - 1)) == 0);
 959:C:/Users/stapi/OneDrive/Desktop/GD32VW553/V1_MQTT_OK/GD32VW55X_Wifi_BLE_SDK/GD32VW55x_RELEASE_V1.0.2/MSDK/lwip/lwip-2.1.2/src/core\mem.c **** 
 960:C:/Users/stapi/OneDrive/Desktop/GD32VW553/V1_MQTT_OK/GD32VW55X_Wifi_BLE_SDK/GD32VW55x_RELEASE_V1.0.2/MSDK/lwip/lwip-2.1.2/src/core\mem.c **** #if MEM_OVERFLOW_CHECK
 961:C:/Users/stapi/OneDrive/Desktop/GD32VW553/V1_MQTT_OK/GD32VW55X_Wifi_BLE_SDK/GD32VW55x_RELEASE_V1.0.2/MSDK/lwip/lwip-2.1.2/src/core\mem.c ****         mem_overflow_init_element(mem, size_in);
 962:C:/Users/stapi/OneDrive/Desktop/GD32VW553/V1_MQTT_OK/GD32VW55X_Wifi_BLE_SDK/GD32VW55x_RELEASE_V1.0.2/MSDK/lwip/lwip-2.1.2/src/core\mem.c **** #endif
 963:C:/Users/stapi/OneDrive/Desktop/GD32VW553/V1_MQTT_OK/GD32VW55X_Wifi_BLE_SDK/GD32VW55x_RELEASE_V1.0.2/MSDK/lwip/lwip-2.1.2/src/core\mem.c ****         MEM_SANITY();
 964:C:/Users/stapi/OneDrive/Desktop/GD32VW553/V1_MQTT_OK/GD32VW55X_Wifi_BLE_SDK/GD32VW55x_RELEASE_V1.0.2/MSDK/lwip/lwip-2.1.2/src/core\mem.c ****         return (u8_t *)mem + SIZEOF_STRUCT_MEM + MEM_SANITY_OFFSET;
 965:C:/Users/stapi/OneDrive/Desktop/GD32VW553/V1_MQTT_OK/GD32VW55X_Wifi_BLE_SDK/GD32VW55x_RELEASE_V1.0.2/MSDK/lwip/lwip-2.1.2/src/core\mem.c ****       }
 966:C:/Users/stapi/OneDrive/Desktop/GD32VW553/V1_MQTT_OK/GD32VW55X_Wifi_BLE_SDK/GD32VW55x_RELEASE_V1.0.2/MSDK/lwip/lwip-2.1.2/src/core\mem.c ****     }
 967:C:/Users/stapi/OneDrive/Desktop/GD32VW553/V1_MQTT_OK/GD32VW55X_Wifi_BLE_SDK/GD32VW55x_RELEASE_V1.0.2/MSDK/lwip/lwip-2.1.2/src/core\mem.c **** #if LWIP_ALLOW_MEM_FREE_FROM_OTHER_CONTEXT
 968:C:/Users/stapi/OneDrive/Desktop/GD32VW553/V1_MQTT_OK/GD32VW55X_Wifi_BLE_SDK/GD32VW55x_RELEASE_V1.0.2/MSDK/lwip/lwip-2.1.2/src/core\mem.c ****     /* if we got interrupted by a mem_free, try again */
 969:C:/Users/stapi/OneDrive/Desktop/GD32VW553/V1_MQTT_OK/GD32VW55X_Wifi_BLE_SDK/GD32VW55x_RELEASE_V1.0.2/MSDK/lwip/lwip-2.1.2/src/core\mem.c ****   } while (local_mem_free_count != 0);
 970:C:/Users/stapi/OneDrive/Desktop/GD32VW553/V1_MQTT_OK/GD32VW55X_Wifi_BLE_SDK/GD32VW55x_RELEASE_V1.0.2/MSDK/lwip/lwip-2.1.2/src/core\mem.c **** #endif /* LWIP_ALLOW_MEM_FREE_FROM_OTHER_CONTEXT */
 971:C:/Users/stapi/OneDrive/Desktop/GD32VW553/V1_MQTT_OK/GD32VW55X_Wifi_BLE_SDK/GD32VW55x_RELEASE_V1.0.2/MSDK/lwip/lwip-2.1.2/src/core\mem.c ****   MEM_STATS_INC(err);
 972:C:/Users/stapi/OneDrive/Desktop/GD32VW553/V1_MQTT_OK/GD32VW55X_Wifi_BLE_SDK/GD32VW55x_RELEASE_V1.0.2/MSDK/lwip/lwip-2.1.2/src/core\mem.c ****   LWIP_MEM_ALLOC_UNPROTECT();
 973:C:/Users/stapi/OneDrive/Desktop/GD32VW553/V1_MQTT_OK/GD32VW55X_Wifi_BLE_SDK/GD32VW55x_RELEASE_V1.0.2/MSDK/lwip/lwip-2.1.2/src/core\mem.c ****   sys_mutex_unlock(&mem_mutex);
 974:C:/Users/stapi/OneDrive/Desktop/GD32VW553/V1_MQTT_OK/GD32VW55X_Wifi_BLE_SDK/GD32VW55x_RELEASE_V1.0.2/MSDK/lwip/lwip-2.1.2/src/core\mem.c ****   LWIP_DEBUGF(MEM_DEBUG | LWIP_DBG_LEVEL_SERIOUS, ("mem_malloc: could not allocate %"S16_F" bytes\n
 975:C:/Users/stapi/OneDrive/Desktop/GD32VW553/V1_MQTT_OK/GD32VW55X_Wifi_BLE_SDK/GD32VW55x_RELEASE_V1.0.2/MSDK/lwip/lwip-2.1.2/src/core\mem.c ****   return NULL;
 976:C:/Users/stapi/OneDrive/Desktop/GD32VW553/V1_MQTT_OK/GD32VW55X_Wifi_BLE_SDK/GD32VW55x_RELEASE_V1.0.2/MSDK/lwip/lwip-2.1.2/src/core\mem.c **** }
 1015              		.loc 1 976 1
 1016 0028 17030000 		tail	__riscv_restore_3
 1016      67000300 
 1017              		.cfi_remember_state
 1018              		.cfi_restore 18
 1019              		.cfi_restore 9
 1020              		.cfi_restore 8
 1021              		.cfi_restore 1
 1022              		.cfi_def_cfa_offset 0
 1023              	.LVL73:
 1024              	.L80:
 1025              		.cfi_restore_state
 849:C:/Users/stapi/OneDrive/Desktop/GD32VW553/V1_MQTT_OK/GD32VW55X_Wifi_BLE_SDK/GD32VW55x_RELEASE_V1.0.2/MSDK/lwip/lwip-2.1.2/src/core\mem.c ****   }
 1026              		.loc 1 849 10
 1027 0030 3144     		li	s0,12
 1028              	.LVL74:
 1029              	.L63:
 854:C:/Users/stapi/OneDrive/Desktop/GD32VW553/V1_MQTT_OK/GD32VW55X_Wifi_BLE_SDK/GD32VW55x_RELEASE_V1.0.2/MSDK/lwip/lwip-2.1.2/src/core\mem.c ****     return NULL;
 1030              		.loc 1 854 33 discriminator 1
 1031 0032 E36AA4FE 		bgtu	a0,s0,.L82
 859:C:/Users/stapi/OneDrive/Desktop/GD32VW553/V1_MQTT_OK/GD32VW55X_Wifi_BLE_SDK/GD32VW55x_RELEASE_V1.0.2/MSDK/lwip/lwip-2.1.2/src/core\mem.c ****   LWIP_MEM_ALLOC_PROTECT();
 1032              		.loc 1 859 3 is_stmt 1
 1033 0036 B7040000 		lui	s1,%hi(.LANCHOR3)
 1034 003a 13850400 		addi	a0,s1,%lo(.LANCHOR3)
 1035              	.LVL75:
 1036 003e 97000000 		call	sys_mutex_get
 1036      E7800000 
 1037              	.LVL76:
 860:C:/Users/stapi/OneDrive/Desktop/GD32VW553/V1_MQTT_OK/GD32VW55X_Wifi_BLE_SDK/GD32VW55x_RELEASE_V1.0.2/MSDK/lwip/lwip-2.1.2/src/core\mem.c **** #if LWIP_ALLOW_MEM_FREE_FROM_OTHER_CONTEXT
 1038              		.loc 1 860 27
 870:C:/Users/stapi/OneDrive/Desktop/GD32VW553/V1_MQTT_OK/GD32VW55X_Wifi_BLE_SDK/GD32VW55x_RELEASE_V1.0.2/MSDK/lwip/lwip-2.1.2/src/core\mem.c ****          ptr = ptr_to_mem(ptr)->next) {
 1039              		.loc 1 870 5
 870:C:/Users/stapi/OneDrive/Desktop/GD32VW553/V1_MQTT_OK/GD32VW55X_Wifi_BLE_SDK/GD32VW55x_RELEASE_V1.0.2/MSDK/lwip/lwip-2.1.2/src/core\mem.c ****          ptr = ptr_to_mem(ptr)->next) {
 1040              		.loc 1 870 16 is_stmt 0
 1041 0046 B7060000 		lui	a3,%hi(.LANCHOR2)
 1042              	.LBB122:
 1043              	.LBB123:
 459:C:/Users/stapi/OneDrive/Desktop/GD32VW553/V1_MQTT_OK/GD32VW55X_Wifi_BLE_SDK/GD32VW55x_RELEASE_V1.0.2/MSDK/lwip/lwip-2.1.2/src/core\mem.c **** }
 1044              		.loc 1 459 35
 1045 004a 37070000 		lui	a4,%hi(.LANCHOR0)
 1046              	.LBE123:
 1047              	.LBE122:
 870:C:/Users/stapi/OneDrive/Desktop/GD32VW553/V1_MQTT_OK/GD32VW55X_Wifi_BLE_SDK/GD32VW55x_RELEASE_V1.0.2/MSDK/lwip/lwip-2.1.2/src/core\mem.c ****          ptr = ptr_to_mem(ptr)->next) {
 1048              		.loc 1 870 16
 1049 004e 83A70600 		lw	a5,%lo(.LANCHOR2)(a3)
 1050              	.LVL77:
 1051              	.LBB127:
 1052              	.LBB124:
 459:C:/Users/stapi/OneDrive/Desktop/GD32VW553/V1_MQTT_OK/GD32VW55X_Wifi_BLE_SDK/GD32VW55x_RELEASE_V1.0.2/MSDK/lwip/lwip-2.1.2/src/core\mem.c **** }
 1053              		.loc 1 459 3 is_stmt 1
 459:C:/Users/stapi/OneDrive/Desktop/GD32VW553/V1_MQTT_OK/GD32VW55X_Wifi_BLE_SDK/GD32VW55x_RELEASE_V1.0.2/MSDK/lwip/lwip-2.1.2/src/core\mem.c **** }
 1054              		.loc 1 459 35 is_stmt 0
 1055 0052 03230700 		lw	t1,%lo(.LANCHOR0)(a4)
 1056              	.LBE124:
 1057              	.LBE127:
 870:C:/Users/stapi/OneDrive/Desktop/GD32VW553/V1_MQTT_OK/GD32VW55X_Wifi_BLE_SDK/GD32VW55x_RELEASE_V1.0.2/MSDK/lwip/lwip-2.1.2/src/core\mem.c ****          ptr = ptr_to_mem(ptr)->next) {
 1058              		.loc 1 870 58
 1059 0056 1966     		li	a2,24576
 1060 0058 1306C64E 		addi	a2,a2,1260
 1061              	.LBB128:
 1062              	.LBB125:
 459:C:/Users/stapi/OneDrive/Desktop/GD32VW553/V1_MQTT_OK/GD32VW55X_Wifi_BLE_SDK/GD32VW55x_RELEASE_V1.0.2/MSDK/lwip/lwip-2.1.2/src/core\mem.c **** }
 1063              		.loc 1 459 35
 1064 005c 33876740 		sub	a4,a5,t1
 1065 0060 2685     		mv	a0,s1
 1066 0062 93880600 		addi	a7,a3,%lo(.LANCHOR2)
 1067              	.LBE125:
 1068              	.LBE128:
 870:C:/Users/stapi/OneDrive/Desktop/GD32VW553/V1_MQTT_OK/GD32VW55X_Wifi_BLE_SDK/GD32VW55x_RELEASE_V1.0.2/MSDK/lwip/lwip-2.1.2/src/core\mem.c ****          ptr = ptr_to_mem(ptr)->next) {
 1069              		.loc 1 870 58
 1070 0066 33088640 		sub	a6,a2,s0
 887:C:/Users/stapi/OneDrive/Desktop/GD32VW553/V1_MQTT_OK/GD32VW55X_Wifi_BLE_SDK/GD32VW55x_RELEASE_V1.0.2/MSDK/lwip/lwip-2.1.2/src/core\mem.c ****         /* mem is not used and at least perfect fit is possible:
 1071              		.loc 1 887 22
 1072 006a 615E     		li	t3,-8
 1073              	.LBB129:
 1074              	.LBB126:
 459:C:/Users/stapi/OneDrive/Desktop/GD32VW553/V1_MQTT_OK/GD32VW55X_Wifi_BLE_SDK/GD32VW55x_RELEASE_V1.0.2/MSDK/lwip/lwip-2.1.2/src/core\mem.c **** }
 1075              		.loc 1 459 10
 1076 006c 33470708 		zext.h	a4,a4
 1077              	.LVL78:
 1078              	.L92:
 1079              	.LBE126:
 1080              	.LBE129:
 870:C:/Users/stapi/OneDrive/Desktop/GD32VW553/V1_MQTT_OK/GD32VW55X_Wifi_BLE_SDK/GD32VW55x_RELEASE_V1.0.2/MSDK/lwip/lwip-2.1.2/src/core\mem.c ****          ptr = ptr_to_mem(ptr)->next) {
 1081              		.loc 1 870 35 is_stmt 1 discriminator 1
 870:C:/Users/stapi/OneDrive/Desktop/GD32VW553/V1_MQTT_OK/GD32VW55X_Wifi_BLE_SDK/GD32VW55x_RELEASE_V1.0.2/MSDK/lwip/lwip-2.1.2/src/core\mem.c ****          ptr = ptr_to_mem(ptr)->next) {
 1082              		.loc 1 870 5 is_stmt 0 discriminator 1
 1083 0070 63690701 		bltu	a4,a6,.L78
 971:C:/Users/stapi/OneDrive/Desktop/GD32VW553/V1_MQTT_OK/GD32VW55X_Wifi_BLE_SDK/GD32VW55x_RELEASE_V1.0.2/MSDK/lwip/lwip-2.1.2/src/core\mem.c ****   LWIP_MEM_ALLOC_UNPROTECT();
 1084              		.loc 1 971 21 is_stmt 1
 972:C:/Users/stapi/OneDrive/Desktop/GD32VW553/V1_MQTT_OK/GD32VW55X_Wifi_BLE_SDK/GD32VW55x_RELEASE_V1.0.2/MSDK/lwip/lwip-2.1.2/src/core\mem.c ****   sys_mutex_unlock(&mem_mutex);
 1085              		.loc 1 972 29
 973:C:/Users/stapi/OneDrive/Desktop/GD32VW553/V1_MQTT_OK/GD32VW55X_Wifi_BLE_SDK/GD32VW55x_RELEASE_V1.0.2/MSDK/lwip/lwip-2.1.2/src/core\mem.c ****   LWIP_DEBUGF(MEM_DEBUG | LWIP_DBG_LEVEL_SERIOUS, ("mem_malloc: could not allocate %"S16_F" bytes\n
 1086              		.loc 1 973 3
 1087 0074 13050500 		addi	a0,a0,%lo(.LANCHOR3)
 1088 0078 97000000 		call	sys_mutex_put
 1088      E7800000 
 1089              	.LVL79:
 974:C:/Users/stapi/OneDrive/Desktop/GD32VW553/V1_MQTT_OK/GD32VW55X_Wifi_BLE_SDK/GD32VW55x_RELEASE_V1.0.2/MSDK/lwip/lwip-2.1.2/src/core\mem.c ****   return NULL;
 1090              		.loc 1 974 116
 975:C:/Users/stapi/OneDrive/Desktop/GD32VW553/V1_MQTT_OK/GD32VW55X_Wifi_BLE_SDK/GD32VW55x_RELEASE_V1.0.2/MSDK/lwip/lwip-2.1.2/src/core\mem.c **** }
 1091              		.loc 1 975 3
 1092 0080 5DB7     		j	.L82
 1093              	.LVL80:
 1094              	.L78:
 872:C:/Users/stapi/OneDrive/Desktop/GD32VW553/V1_MQTT_OK/GD32VW55X_Wifi_BLE_SDK/GD32VW55x_RELEASE_V1.0.2/MSDK/lwip/lwip-2.1.2/src/core\mem.c **** #if LWIP_ALLOW_MEM_FREE_FROM_OTHER_CONTEXT
 1095              		.loc 1 872 7
 1096              	.LBB130:
 1097              	.LBB131:
 453:C:/Users/stapi/OneDrive/Desktop/GD32VW553/V1_MQTT_OK/GD32VW55X_Wifi_BLE_SDK/GD32VW55x_RELEASE_V1.0.2/MSDK/lwip/lwip-2.1.2/src/core\mem.c **** }
 1098              		.loc 1 453 3
 453:C:/Users/stapi/OneDrive/Desktop/GD32VW553/V1_MQTT_OK/GD32VW55X_Wifi_BLE_SDK/GD32VW55x_RELEASE_V1.0.2/MSDK/lwip/lwip-2.1.2/src/core\mem.c **** }
 1099              		.loc 1 453 10 is_stmt 0
 1100 0082 B304E300 		add	s1,t1,a4
 1101              	.LVL81:
 1102              	.LBE131:
 1103              	.LBE130:
 886:C:/Users/stapi/OneDrive/Desktop/GD32VW553/V1_MQTT_OK/GD32VW55X_Wifi_BLE_SDK/GD32VW55x_RELEASE_V1.0.2/MSDK/lwip/lwip-2.1.2/src/core\mem.c ****           (mem->next - (ptr + SIZEOF_STRUCT_MEM)) >= size) {
 1104              		.loc 1 886 7 is_stmt 1
 886:C:/Users/stapi/OneDrive/Desktop/GD32VW553/V1_MQTT_OK/GD32VW55X_Wifi_BLE_SDK/GD32VW55x_RELEASE_V1.0.2/MSDK/lwip/lwip-2.1.2/src/core\mem.c ****           (mem->next - (ptr + SIZEOF_STRUCT_MEM)) >= size) {
 1105              		.loc 1 886 10 is_stmt 0
 1106 0086 83C64400 		lbu	a3,4(s1)
 887:C:/Users/stapi/OneDrive/Desktop/GD32VW553/V1_MQTT_OK/GD32VW55X_Wifi_BLE_SDK/GD32VW55x_RELEASE_V1.0.2/MSDK/lwip/lwip-2.1.2/src/core\mem.c ****         /* mem is not used and at least perfect fit is possible:
 1107              		.loc 1 887 15
 1108 008a 83D50400 		lhu	a1,0(s1)
 886:C:/Users/stapi/OneDrive/Desktop/GD32VW553/V1_MQTT_OK/GD32VW55X_Wifi_BLE_SDK/GD32VW55x_RELEASE_V1.0.2/MSDK/lwip/lwip-2.1.2/src/core\mem.c ****           (mem->next - (ptr + SIZEOF_STRUCT_MEM)) >= size) {
 1109              		.loc 1 886 10
 1110 008e 63920614 		bne	a3,zero,.L84
 887:C:/Users/stapi/OneDrive/Desktop/GD32VW553/V1_MQTT_OK/GD32VW55X_Wifi_BLE_SDK/GD32VW55x_RELEASE_V1.0.2/MSDK/lwip/lwip-2.1.2/src/core\mem.c ****         /* mem is not used and at least perfect fit is possible:
 1111              		.loc 1 887 22 discriminator 1
 1112 0092 B306EE40 		sub	a3,t3,a4
 1113 0096 AE96     		add	a3,a3,a1
 886:C:/Users/stapi/OneDrive/Desktop/GD32VW553/V1_MQTT_OK/GD32VW55X_Wifi_BLE_SDK/GD32VW55x_RELEASE_V1.0.2/MSDK/lwip/lwip-2.1.2/src/core\mem.c ****           (mem->next - (ptr + SIZEOF_STRUCT_MEM)) >= size) {
 1114              		.loc 1 886 24 discriminator 1
 1115 0098 63ED8612 		bltu	a3,s0,.L84
 891:C:/Users/stapi/OneDrive/Desktop/GD32VW553/V1_MQTT_OK/GD32VW55X_Wifi_BLE_SDK/GD32VW55x_RELEASE_V1.0.2/MSDK/lwip/lwip-2.1.2/src/core\mem.c ****           /* (in addition to the above, we test if another struct mem (SIZEOF_STRUCT_MEM) containin
 1116              		.loc 1 891 9 is_stmt 1
 891:C:/Users/stapi/OneDrive/Desktop/GD32VW553/V1_MQTT_OK/GD32VW55X_Wifi_BLE_SDK/GD32VW55x_RELEASE_V1.0.2/MSDK/lwip/lwip-2.1.2/src/core\mem.c ****           /* (in addition to the above, we test if another struct mem (SIZEOF_STRUCT_MEM) containin
 1117              		.loc 1 891 80 is_stmt 0
 1118 009c 13084401 		addi	a6,s0,20
 1119 00a0 33480808 		zext.h	a6,a6
 891:C:/Users/stapi/OneDrive/Desktop/GD32VW553/V1_MQTT_OK/GD32VW55X_Wifi_BLE_SDK/GD32VW55x_RELEASE_V1.0.2/MSDK/lwip/lwip-2.1.2/src/core\mem.c ****           /* (in addition to the above, we test if another struct mem (SIZEOF_STRUCT_MEM) containin
 1120              		.loc 1 891 12
 1121 00a4 63E5060B 		bltu	a3,a6,.L65
 902:C:/Users/stapi/OneDrive/Desktop/GD32VW553/V1_MQTT_OK/GD32VW55X_Wifi_BLE_SDK/GD32VW55x_RELEASE_V1.0.2/MSDK/lwip/lwip-2.1.2/src/core\mem.c ****           LWIP_ASSERT("invalid next ptr",ptr2 != MEM_SIZE_ALIGNED);
 1122              		.loc 1 902 11 is_stmt 1
 902:C:/Users/stapi/OneDrive/Desktop/GD32VW553/V1_MQTT_OK/GD32VW55X_Wifi_BLE_SDK/GD32VW55x_RELEASE_V1.0.2/MSDK/lwip/lwip-2.1.2/src/core\mem.c ****           LWIP_ASSERT("invalid next ptr",ptr2 != MEM_SIZE_ALIGNED);
 1123              		.loc 1 902 16 is_stmt 0
 1124 00a8 93068400 		addi	a3,s0,8
 1125 00ac BA96     		add	a3,a4,a3
 1126 00ae B3C60608 		zext.h	a3,a3
 1127              	.LVL82:
 903:C:/Users/stapi/OneDrive/Desktop/GD32VW553/V1_MQTT_OK/GD32VW55X_Wifi_BLE_SDK/GD32VW55x_RELEASE_V1.0.2/MSDK/lwip/lwip-2.1.2/src/core\mem.c ****           /* create mem2 struct */
 1128              		.loc 1 903 11 is_stmt 1
 903:C:/Users/stapi/OneDrive/Desktop/GD32VW553/V1_MQTT_OK/GD32VW55X_Wifi_BLE_SDK/GD32VW55x_RELEASE_V1.0.2/MSDK/lwip/lwip-2.1.2/src/core\mem.c ****           /* create mem2 struct */
 1129              		.loc 1 903 11
 1130 00b2 6395C602 		bne	a3,a2,.L66
 903:C:/Users/stapi/OneDrive/Desktop/GD32VW553/V1_MQTT_OK/GD32VW55X_Wifi_BLE_SDK/GD32VW55x_RELEASE_V1.0.2/MSDK/lwip/lwip-2.1.2/src/core\mem.c ****           /* create mem2 struct */
 1131              		.loc 1 903 11 discriminator 1
 903:C:/Users/stapi/OneDrive/Desktop/GD32VW553/V1_MQTT_OK/GD32VW55X_Wifi_BLE_SDK/GD32VW55x_RELEASE_V1.0.2/MSDK/lwip/lwip-2.1.2/src/core\mem.c ****           /* create mem2 struct */
 1132              		.loc 1 903 11 discriminator 1
 1133 00b6 B7060000 		lui	a3,%hi(.LC0)
 1134              	.LVL83:
 1135 00ba B7050000 		lui	a1,%hi(.LC11)
 1136 00be 37050000 		lui	a0,%hi(.LC2)
 1137 00c2 93860600 		addi	a3,a3,%lo(.LC0)
 1138 00c6 13067038 		li	a2,903
 1139 00ca 93850500 		addi	a1,a1,%lo(.LC11)
 1140 00ce 13050500 		addi	a0,a0,%lo(.LC2)
 1141 00d2 97000000 		call	printf
 1141      E7800000 
 1142              	.LVL84:
 1143              	.L67:
 903:C:/Users/stapi/OneDrive/Desktop/GD32VW553/V1_MQTT_OK/GD32VW55X_Wifi_BLE_SDK/GD32VW55x_RELEASE_V1.0.2/MSDK/lwip/lwip-2.1.2/src/core\mem.c ****           /* create mem2 struct */
 1144              		.loc 1 903 11 discriminator 1
 903:C:/Users/stapi/OneDrive/Desktop/GD32VW553/V1_MQTT_OK/GD32VW55X_Wifi_BLE_SDK/GD32VW55x_RELEASE_V1.0.2/MSDK/lwip/lwip-2.1.2/src/core\mem.c ****           /* create mem2 struct */
 1145              		.loc 1 903 11 discriminator 1
 903:C:/Users/stapi/OneDrive/Desktop/GD32VW553/V1_MQTT_OK/GD32VW55X_Wifi_BLE_SDK/GD32VW55x_RELEASE_V1.0.2/MSDK/lwip/lwip-2.1.2/src/core\mem.c ****           /* create mem2 struct */
 1146              		.loc 1 903 11 discriminator 1
 1147 00da 01A0     		j	.L67
 1148              	.LVL85:
 1149              	.L66:
 903:C:/Users/stapi/OneDrive/Desktop/GD32VW553/V1_MQTT_OK/GD32VW55X_Wifi_BLE_SDK/GD32VW55x_RELEASE_V1.0.2/MSDK/lwip/lwip-2.1.2/src/core\mem.c ****           /* create mem2 struct */
 1150              		.loc 1 903 11
 903:C:/Users/stapi/OneDrive/Desktop/GD32VW553/V1_MQTT_OK/GD32VW55X_Wifi_BLE_SDK/GD32VW55x_RELEASE_V1.0.2/MSDK/lwip/lwip-2.1.2/src/core\mem.c ****           /* create mem2 struct */
 1151              		.loc 1 903 11
 905:C:/Users/stapi/OneDrive/Desktop/GD32VW553/V1_MQTT_OK/GD32VW55X_Wifi_BLE_SDK/GD32VW55x_RELEASE_V1.0.2/MSDK/lwip/lwip-2.1.2/src/core\mem.c ****           mem2->used = 0;
 1152              		.loc 1 905 11
 1153              	.LBB132:
 1154              	.LBB133:
 453:C:/Users/stapi/OneDrive/Desktop/GD32VW553/V1_MQTT_OK/GD32VW55X_Wifi_BLE_SDK/GD32VW55x_RELEASE_V1.0.2/MSDK/lwip/lwip-2.1.2/src/core\mem.c **** }
 1155              		.loc 1 453 3
 453:C:/Users/stapi/OneDrive/Desktop/GD32VW553/V1_MQTT_OK/GD32VW55X_Wifi_BLE_SDK/GD32VW55x_RELEASE_V1.0.2/MSDK/lwip/lwip-2.1.2/src/core\mem.c **** }
 1156              		.loc 1 453 10 is_stmt 0
 1157 00dc 3308D300 		add	a6,t1,a3
 1158              	.LVL86:
 1159              	.LBE133:
 1160              	.LBE132:
 906:C:/Users/stapi/OneDrive/Desktop/GD32VW553/V1_MQTT_OK/GD32VW55X_Wifi_BLE_SDK/GD32VW55x_RELEASE_V1.0.2/MSDK/lwip/lwip-2.1.2/src/core\mem.c ****           mem2->next = mem->next;
 1161              		.loc 1 906 11 is_stmt 1
 907:C:/Users/stapi/OneDrive/Desktop/GD32VW553/V1_MQTT_OK/GD32VW55X_Wifi_BLE_SDK/GD32VW55x_RELEASE_V1.0.2/MSDK/lwip/lwip-2.1.2/src/core\mem.c ****           mem2->prev = ptr;
 1162              		.loc 1 907 22 is_stmt 0
 1163 00e0 2310B800 		sh	a1,0(a6)
 908:C:/Users/stapi/OneDrive/Desktop/GD32VW553/V1_MQTT_OK/GD32VW55X_Wifi_BLE_SDK/GD32VW55x_RELEASE_V1.0.2/MSDK/lwip/lwip-2.1.2/src/core\mem.c ****           /* and insert it between mem and mem->next */
 1164              		.loc 1 908 22
 1165 00e4 2311E800 		sh	a4,2(a6)
 906:C:/Users/stapi/OneDrive/Desktop/GD32VW553/V1_MQTT_OK/GD32VW55X_Wifi_BLE_SDK/GD32VW55x_RELEASE_V1.0.2/MSDK/lwip/lwip-2.1.2/src/core\mem.c ****           mem2->next = mem->next;
 1166              		.loc 1 906 22
 1167 00e8 23020800 		sb	zero,4(a6)
 907:C:/Users/stapi/OneDrive/Desktop/GD32VW553/V1_MQTT_OK/GD32VW55X_Wifi_BLE_SDK/GD32VW55x_RELEASE_V1.0.2/MSDK/lwip/lwip-2.1.2/src/core\mem.c ****           mem2->prev = ptr;
 1168              		.loc 1 907 11 is_stmt 1
 908:C:/Users/stapi/OneDrive/Desktop/GD32VW553/V1_MQTT_OK/GD32VW55X_Wifi_BLE_SDK/GD32VW55x_RELEASE_V1.0.2/MSDK/lwip/lwip-2.1.2/src/core\mem.c ****           /* and insert it between mem and mem->next */
 1169              		.loc 1 908 11
 910:C:/Users/stapi/OneDrive/Desktop/GD32VW553/V1_MQTT_OK/GD32VW55X_Wifi_BLE_SDK/GD32VW55x_RELEASE_V1.0.2/MSDK/lwip/lwip-2.1.2/src/core\mem.c ****           mem->used = 1;
 1170              		.loc 1 910 11
 911:C:/Users/stapi/OneDrive/Desktop/GD32VW553/V1_MQTT_OK/GD32VW55X_Wifi_BLE_SDK/GD32VW55x_RELEASE_V1.0.2/MSDK/lwip/lwip-2.1.2/src/core\mem.c **** 
 1171              		.loc 1 911 21 is_stmt 0
 1172 00ec 0547     		li	a4,1
 1173              	.LVL87:
 910:C:/Users/stapi/OneDrive/Desktop/GD32VW553/V1_MQTT_OK/GD32VW55X_Wifi_BLE_SDK/GD32VW55x_RELEASE_V1.0.2/MSDK/lwip/lwip-2.1.2/src/core\mem.c ****           mem->used = 1;
 1174              		.loc 1 910 21
 1175 00ee 2390D400 		sh	a3,0(s1)
 911:C:/Users/stapi/OneDrive/Desktop/GD32VW553/V1_MQTT_OK/GD32VW55X_Wifi_BLE_SDK/GD32VW55x_RELEASE_V1.0.2/MSDK/lwip/lwip-2.1.2/src/core\mem.c **** 
 1176              		.loc 1 911 11 is_stmt 1
 911:C:/Users/stapi/OneDrive/Desktop/GD32VW553/V1_MQTT_OK/GD32VW55X_Wifi_BLE_SDK/GD32VW55x_RELEASE_V1.0.2/MSDK/lwip/lwip-2.1.2/src/core\mem.c **** 
 1177              		.loc 1 911 21 is_stmt 0
 1178 00f2 2382E400 		sb	a4,4(s1)
 1179              	.LVL88:
 913:C:/Users/stapi/OneDrive/Desktop/GD32VW553/V1_MQTT_OK/GD32VW55X_Wifi_BLE_SDK/GD32VW55x_RELEASE_V1.0.2/MSDK/lwip/lwip-2.1.2/src/core\mem.c ****             ptr_to_mem(mem2->next)->prev = ptr2;
 1180              		.loc 1 913 11 is_stmt 1
 913:C:/Users/stapi/OneDrive/Desktop/GD32VW553/V1_MQTT_OK/GD32VW55X_Wifi_BLE_SDK/GD32VW55x_RELEASE_V1.0.2/MSDK/lwip/lwip-2.1.2/src/core\mem.c ****             ptr_to_mem(mem2->next)->prev = ptr2;
 1181              		.loc 1 913 19 is_stmt 0
 1182 00f6 03570800 		lhu	a4,0(a6)
 913:C:/Users/stapi/OneDrive/Desktop/GD32VW553/V1_MQTT_OK/GD32VW55X_Wifi_BLE_SDK/GD32VW55x_RELEASE_V1.0.2/MSDK/lwip/lwip-2.1.2/src/core\mem.c ****             ptr_to_mem(mem2->next)->prev = ptr2;
 1183              		.loc 1 913 14
 1184 00fa 6305C700 		beq	a4,a2,.L68
 914:C:/Users/stapi/OneDrive/Desktop/GD32VW553/V1_MQTT_OK/GD32VW55X_Wifi_BLE_SDK/GD32VW55x_RELEASE_V1.0.2/MSDK/lwip/lwip-2.1.2/src/core\mem.c ****           }
 1185              		.loc 1 914 13 is_stmt 1
 1186              	.LVL89:
 1187              	.LBB134:
 1188              	.LBB135:
 453:C:/Users/stapi/OneDrive/Desktop/GD32VW553/V1_MQTT_OK/GD32VW55X_Wifi_BLE_SDK/GD32VW55x_RELEASE_V1.0.2/MSDK/lwip/lwip-2.1.2/src/core\mem.c **** }
 1189              		.loc 1 453 3
 1190              	.LBE135:
 1191              	.LBE134:
 914:C:/Users/stapi/OneDrive/Desktop/GD32VW553/V1_MQTT_OK/GD32VW55X_Wifi_BLE_SDK/GD32VW55x_RELEASE_V1.0.2/MSDK/lwip/lwip-2.1.2/src/core\mem.c ****           }
 1192              		.loc 1 914 42 is_stmt 0
 1193 00fe 1A97     		add	a4,t1,a4
 1194 0100 2311D700 		sh	a3,2(a4)
 1195              	.LVL90:
 1196              	.L68:
 926:C:/Users/stapi/OneDrive/Desktop/GD32VW553/V1_MQTT_OK/GD32VW55X_Wifi_BLE_SDK/GD32VW55x_RELEASE_V1.0.2/MSDK/lwip/lwip-2.1.2/src/core\mem.c ****         }
 1197              		.loc 1 926 64 is_stmt 1
 931:C:/Users/stapi/OneDrive/Desktop/GD32VW553/V1_MQTT_OK/GD32VW55X_Wifi_BLE_SDK/GD32VW55x_RELEASE_V1.0.2/MSDK/lwip/lwip-2.1.2/src/core\mem.c ****           struct mem *cur = lfree;
 1198              		.loc 1 931 9
 1199 0104 37090000 		lui	s2,%hi(.LANCHOR1)
 1200 0108 13090900 		addi	s2,s2,%lo(.LANCHOR1)
 931:C:/Users/stapi/OneDrive/Desktop/GD32VW553/V1_MQTT_OK/GD32VW55X_Wifi_BLE_SDK/GD32VW55x_RELEASE_V1.0.2/MSDK/lwip/lwip-2.1.2/src/core\mem.c ****           struct mem *cur = lfree;
 1201              		.loc 1 931 12 is_stmt 0
 1202 010c 63999704 		bne	a5,s1,.L69
 1203              	.LBB136:
 934:C:/Users/stapi/OneDrive/Desktop/GD32VW553/V1_MQTT_OK/GD32VW55X_Wifi_BLE_SDK/GD32VW55x_RELEASE_V1.0.2/MSDK/lwip/lwip-2.1.2/src/core\mem.c **** #if LWIP_ALLOW_MEM_FREE_FROM_OTHER_CONTEXT
 1204              		.loc 1 934 35
 1205 0110 83260900 		lw	a3,0(s2)
 1206              	.L70:
 1207              	.LVL91:
 934:C:/Users/stapi/OneDrive/Desktop/GD32VW553/V1_MQTT_OK/GD32VW55X_Wifi_BLE_SDK/GD32VW55x_RELEASE_V1.0.2/MSDK/lwip/lwip-2.1.2/src/core\mem.c **** #if LWIP_ALLOW_MEM_FREE_FROM_OTHER_CONTEXT
 1208              		.loc 1 934 17 is_stmt 1
 934:C:/Users/stapi/OneDrive/Desktop/GD32VW553/V1_MQTT_OK/GD32VW55X_Wifi_BLE_SDK/GD32VW55x_RELEASE_V1.0.2/MSDK/lwip/lwip-2.1.2/src/core\mem.c **** #if LWIP_ALLOW_MEM_FREE_FROM_OTHER_CONTEXT
 1209              		.loc 1 934 21 is_stmt 0
 1210 0114 03C74700 		lbu	a4,4(a5)
 934:C:/Users/stapi/OneDrive/Desktop/GD32VW553/V1_MQTT_OK/GD32VW55X_Wifi_BLE_SDK/GD32VW55x_RELEASE_V1.0.2/MSDK/lwip/lwip-2.1.2/src/core\mem.c **** #if LWIP_ALLOW_MEM_FREE_FROM_OTHER_CONTEXT
 1211              		.loc 1 934 17
 1212 0118 19C3     		beq	a4,zero,.L71
 934:C:/Users/stapi/OneDrive/Desktop/GD32VW553/V1_MQTT_OK/GD32VW55X_Wifi_BLE_SDK/GD32VW55x_RELEASE_V1.0.2/MSDK/lwip/lwip-2.1.2/src/core\mem.c **** #if LWIP_ALLOW_MEM_FREE_FROM_OTHER_CONTEXT
 1213              		.loc 1 934 28 discriminator 1
 1214 011a 639EF602 		bne	a3,a5,.L72
 1215              	.L71:
 948:C:/Users/stapi/OneDrive/Desktop/GD32VW553/V1_MQTT_OK/GD32VW55X_Wifi_BLE_SDK/GD32VW55x_RELEASE_V1.0.2/MSDK/lwip/lwip-2.1.2/src/core\mem.c ****           LWIP_ASSERT("mem_malloc: !lfree->used", ((lfree == ram_end) || (!lfree->used)));
 1216              		.loc 1 948 11 is_stmt 1
 948:C:/Users/stapi/OneDrive/Desktop/GD32VW553/V1_MQTT_OK/GD32VW55X_Wifi_BLE_SDK/GD32VW55x_RELEASE_V1.0.2/MSDK/lwip/lwip-2.1.2/src/core\mem.c ****           LWIP_ASSERT("mem_malloc: !lfree->used", ((lfree == ram_end) || (!lfree->used)));
 1217              		.loc 1 948 17 is_stmt 0
 1218 011e 23A0F800 		sw	a5,0(a7)
 949:C:/Users/stapi/OneDrive/Desktop/GD32VW553/V1_MQTT_OK/GD32VW55X_Wifi_BLE_SDK/GD32VW55x_RELEASE_V1.0.2/MSDK/lwip/lwip-2.1.2/src/core\mem.c ****         }
 1219              		.loc 1 949 11 is_stmt 1
 949:C:/Users/stapi/OneDrive/Desktop/GD32VW553/V1_MQTT_OK/GD32VW55X_Wifi_BLE_SDK/GD32VW55x_RELEASE_V1.0.2/MSDK/lwip/lwip-2.1.2/src/core\mem.c ****         }
 1220              		.loc 1 949 11
 1221 0122 638EF602 		beq	a3,a5,.L69
 949:C:/Users/stapi/OneDrive/Desktop/GD32VW553/V1_MQTT_OK/GD32VW55X_Wifi_BLE_SDK/GD32VW55x_RELEASE_V1.0.2/MSDK/lwip/lwip-2.1.2/src/core\mem.c ****         }
 1222              		.loc 1 949 11 is_stmt 0 discriminator 1
 1223 0126 05CF     		beq	a4,zero,.L69
 949:C:/Users/stapi/OneDrive/Desktop/GD32VW553/V1_MQTT_OK/GD32VW55X_Wifi_BLE_SDK/GD32VW55x_RELEASE_V1.0.2/MSDK/lwip/lwip-2.1.2/src/core\mem.c ****         }
 1224              		.loc 1 949 11 is_stmt 1 discriminator 3
 949:C:/Users/stapi/OneDrive/Desktop/GD32VW553/V1_MQTT_OK/GD32VW55X_Wifi_BLE_SDK/GD32VW55x_RELEASE_V1.0.2/MSDK/lwip/lwip-2.1.2/src/core\mem.c ****         }
 1225              		.loc 1 949 11 discriminator 3
 1226 0128 B7060000 		lui	a3,%hi(.LC0)
 1227 012c B7050000 		lui	a1,%hi(.LC12)
 1228 0130 37050000 		lui	a0,%hi(.LC2)
 1229 0134 93860600 		addi	a3,a3,%lo(.LC0)
 1230 0138 1306503B 		li	a2,949
 1231 013c 93850500 		addi	a1,a1,%lo(.LC12)
 1232 0140 13050500 		addi	a0,a0,%lo(.LC2)
 1233 0144 97000000 		call	printf
 1233      E7800000 
 1234              	.LVL92:
 1235              	.L73:
 949:C:/Users/stapi/OneDrive/Desktop/GD32VW553/V1_MQTT_OK/GD32VW55X_Wifi_BLE_SDK/GD32VW55x_RELEASE_V1.0.2/MSDK/lwip/lwip-2.1.2/src/core\mem.c ****         }
 1236              		.loc 1 949 11 discriminator 2
 949:C:/Users/stapi/OneDrive/Desktop/GD32VW553/V1_MQTT_OK/GD32VW55X_Wifi_BLE_SDK/GD32VW55x_RELEASE_V1.0.2/MSDK/lwip/lwip-2.1.2/src/core\mem.c ****         }
 1237              		.loc 1 949 11 discriminator 2
 949:C:/Users/stapi/OneDrive/Desktop/GD32VW553/V1_MQTT_OK/GD32VW55X_Wifi_BLE_SDK/GD32VW55x_RELEASE_V1.0.2/MSDK/lwip/lwip-2.1.2/src/core\mem.c ****         }
 1238              		.loc 1 949 11 discriminator 2
 1239 014c 01A0     		j	.L73
 1240              	.LVL93:
 1241              	.L65:
 1242              	.LBE136:
 925:C:/Users/stapi/OneDrive/Desktop/GD32VW553/V1_MQTT_OK/GD32VW55X_Wifi_BLE_SDK/GD32VW55x_RELEASE_V1.0.2/MSDK/lwip/lwip-2.1.2/src/core\mem.c ****           MEM_STATS_INC_USED(used, mem->next - mem_to_ptr(mem));
 1243              		.loc 1 925 11
 925:C:/Users/stapi/OneDrive/Desktop/GD32VW553/V1_MQTT_OK/GD32VW55X_Wifi_BLE_SDK/GD32VW55x_RELEASE_V1.0.2/MSDK/lwip/lwip-2.1.2/src/core\mem.c ****           MEM_STATS_INC_USED(used, mem->next - mem_to_ptr(mem));
 1244              		.loc 1 925 21 is_stmt 0
 1245 014e 0547     		li	a4,1
 1246              	.LVL94:
 1247 0150 2382E400 		sb	a4,4(s1)
 1248 0154 45BF     		j	.L68
 1249              	.LVL95:
 1250              	.L72:
 1251              	.LBB139:
 946:C:/Users/stapi/OneDrive/Desktop/GD32VW553/V1_MQTT_OK/GD32VW55X_Wifi_BLE_SDK/GD32VW55x_RELEASE_V1.0.2/MSDK/lwip/lwip-2.1.2/src/core\mem.c ****           }
 1252              		.loc 1 946 13 is_stmt 1
 1253              	.LBB137:
 1254              	.LBB138:
 453:C:/Users/stapi/OneDrive/Desktop/GD32VW553/V1_MQTT_OK/GD32VW55X_Wifi_BLE_SDK/GD32VW55x_RELEASE_V1.0.2/MSDK/lwip/lwip-2.1.2/src/core\mem.c **** }
 1255              		.loc 1 453 3
 453:C:/Users/stapi/OneDrive/Desktop/GD32VW553/V1_MQTT_OK/GD32VW55X_Wifi_BLE_SDK/GD32VW55x_RELEASE_V1.0.2/MSDK/lwip/lwip-2.1.2/src/core\mem.c **** }
 1256              		.loc 1 453 32 is_stmt 0
 1257 0156 83D70700 		lhu	a5,0(a5)
 1258              	.LVL96:
 453:C:/Users/stapi/OneDrive/Desktop/GD32VW553/V1_MQTT_OK/GD32VW55X_Wifi_BLE_SDK/GD32VW55x_RELEASE_V1.0.2/MSDK/lwip/lwip-2.1.2/src/core\mem.c **** }
 1259              		.loc 1 453 10
 1260 015a 9A97     		add	a5,t1,a5
 1261              	.LVL97:
 1262 015c 65BF     		j	.L70
 1263              	.LVL98:
 1264              	.L69:
 1265              	.LBE138:
 1266              	.LBE137:
 949:C:/Users/stapi/OneDrive/Desktop/GD32VW553/V1_MQTT_OK/GD32VW55X_Wifi_BLE_SDK/GD32VW55x_RELEASE_V1.0.2/MSDK/lwip/lwip-2.1.2/src/core\mem.c ****         }
 1267              		.loc 1 949 11 is_stmt 1
 949:C:/Users/stapi/OneDrive/Desktop/GD32VW553/V1_MQTT_OK/GD32VW55X_Wifi_BLE_SDK/GD32VW55x_RELEASE_V1.0.2/MSDK/lwip/lwip-2.1.2/src/core\mem.c ****         }
 1268              		.loc 1 949 11
 1269              	.LBE139:
 951:C:/Users/stapi/OneDrive/Desktop/GD32VW553/V1_MQTT_OK/GD32VW55X_Wifi_BLE_SDK/GD32VW55x_RELEASE_V1.0.2/MSDK/lwip/lwip-2.1.2/src/core\mem.c ****         sys_mutex_unlock(&mem_mutex);
 1270              		.loc 1 951 35
 952:C:/Users/stapi/OneDrive/Desktop/GD32VW553/V1_MQTT_OK/GD32VW55X_Wifi_BLE_SDK/GD32VW55x_RELEASE_V1.0.2/MSDK/lwip/lwip-2.1.2/src/core\mem.c ****         LWIP_ASSERT("mem_malloc: allocated memory not above ram_end.",
 1271              		.loc 1 952 9
 1272 015e 13050500 		addi	a0,a0,%lo(.LANCHOR3)
 1273 0162 97000000 		call	sys_mutex_put
 1273      E7800000 
 1274              	.LVL99:
 953:C:/Users/stapi/OneDrive/Desktop/GD32VW553/V1_MQTT_OK/GD32VW55X_Wifi_BLE_SDK/GD32VW55x_RELEASE_V1.0.2/MSDK/lwip/lwip-2.1.2/src/core\mem.c ****                     (mem_ptr_t)mem + SIZEOF_STRUCT_MEM + size <= (mem_ptr_t)ram_end);
 1275              		.loc 1 953 9
 953:C:/Users/stapi/OneDrive/Desktop/GD32VW553/V1_MQTT_OK/GD32VW55X_Wifi_BLE_SDK/GD32VW55x_RELEASE_V1.0.2/MSDK/lwip/lwip-2.1.2/src/core\mem.c ****                     (mem_ptr_t)mem + SIZEOF_STRUCT_MEM + size <= (mem_ptr_t)ram_end);
 1276              		.loc 1 953 9
 1277 016a 83270900 		lw	a5,0(s2)
 1278 016e 2104     		addi	s0,s0,8
 1279 0170 33440408 		zext.h	s0,s0
 1280 0174 2694     		add	s0,s0,s1
 1281 0176 63F58702 		bgeu	a5,s0,.L74
 953:C:/Users/stapi/OneDrive/Desktop/GD32VW553/V1_MQTT_OK/GD32VW55X_Wifi_BLE_SDK/GD32VW55x_RELEASE_V1.0.2/MSDK/lwip/lwip-2.1.2/src/core\mem.c ****                     (mem_ptr_t)mem + SIZEOF_STRUCT_MEM + size <= (mem_ptr_t)ram_end);
 1282              		.loc 1 953 9 discriminator 1
 953:C:/Users/stapi/OneDrive/Desktop/GD32VW553/V1_MQTT_OK/GD32VW55X_Wifi_BLE_SDK/GD32VW55x_RELEASE_V1.0.2/MSDK/lwip/lwip-2.1.2/src/core\mem.c ****                     (mem_ptr_t)mem + SIZEOF_STRUCT_MEM + size <= (mem_ptr_t)ram_end);
 1283              		.loc 1 953 9 discriminator 1
 1284 017a B7060000 		lui	a3,%hi(.LC0)
 1285 017e B7050000 		lui	a1,%hi(.LC13)
 1286 0182 37050000 		lui	a0,%hi(.LC2)
 1287 0186 93860600 		addi	a3,a3,%lo(.LC0)
 1288 018a 1306903B 		li	a2,953
 1289 018e 93850500 		addi	a1,a1,%lo(.LC13)
 1290 0192 13050500 		addi	a0,a0,%lo(.LC2)
 1291 0196 97000000 		call	printf
 1291      E7800000 
 1292              	.LVL100:
 1293              	.L75:
 953:C:/Users/stapi/OneDrive/Desktop/GD32VW553/V1_MQTT_OK/GD32VW55X_Wifi_BLE_SDK/GD32VW55x_RELEASE_V1.0.2/MSDK/lwip/lwip-2.1.2/src/core\mem.c ****                     (mem_ptr_t)mem + SIZEOF_STRUCT_MEM + size <= (mem_ptr_t)ram_end);
 1294              		.loc 1 953 9 discriminator 3
 953:C:/Users/stapi/OneDrive/Desktop/GD32VW553/V1_MQTT_OK/GD32VW55X_Wifi_BLE_SDK/GD32VW55x_RELEASE_V1.0.2/MSDK/lwip/lwip-2.1.2/src/core\mem.c ****                     (mem_ptr_t)mem + SIZEOF_STRUCT_MEM + size <= (mem_ptr_t)ram_end);
 1295              		.loc 1 953 9 discriminator 3
 953:C:/Users/stapi/OneDrive/Desktop/GD32VW553/V1_MQTT_OK/GD32VW55X_Wifi_BLE_SDK/GD32VW55x_RELEASE_V1.0.2/MSDK/lwip/lwip-2.1.2/src/core\mem.c ****                     (mem_ptr_t)mem + SIZEOF_STRUCT_MEM + size <= (mem_ptr_t)ram_end);
 1296              		.loc 1 953 9 discriminator 3
 1297 019e 01A0     		j	.L75
 1298              	.L74:
 953:C:/Users/stapi/OneDrive/Desktop/GD32VW553/V1_MQTT_OK/GD32VW55X_Wifi_BLE_SDK/GD32VW55x_RELEASE_V1.0.2/MSDK/lwip/lwip-2.1.2/src/core\mem.c ****                     (mem_ptr_t)mem + SIZEOF_STRUCT_MEM + size <= (mem_ptr_t)ram_end);
 1299              		.loc 1 953 9 discriminator 2
 953:C:/Users/stapi/OneDrive/Desktop/GD32VW553/V1_MQTT_OK/GD32VW55X_Wifi_BLE_SDK/GD32VW55x_RELEASE_V1.0.2/MSDK/lwip/lwip-2.1.2/src/core\mem.c ****                     (mem_ptr_t)mem + SIZEOF_STRUCT_MEM + size <= (mem_ptr_t)ram_end);
 1300              		.loc 1 953 9 discriminator 2
 955:C:/Users/stapi/OneDrive/Desktop/GD32VW553/V1_MQTT_OK/GD32VW55X_Wifi_BLE_SDK/GD32VW55x_RELEASE_V1.0.2/MSDK/lwip/lwip-2.1.2/src/core\mem.c ****                     ((mem_ptr_t)mem + SIZEOF_STRUCT_MEM) % MEM_ALIGNMENT == 0);
 1301              		.loc 1 955 9 discriminator 2
 955:C:/Users/stapi/OneDrive/Desktop/GD32VW553/V1_MQTT_OK/GD32VW55X_Wifi_BLE_SDK/GD32VW55x_RELEASE_V1.0.2/MSDK/lwip/lwip-2.1.2/src/core\mem.c ****                     ((mem_ptr_t)mem + SIZEOF_STRUCT_MEM) % MEM_ALIGNMENT == 0);
 1302              		.loc 1 955 9 discriminator 2
 1303 01a0 93F73400 		andi	a5,s1,3
 964:C:/Users/stapi/OneDrive/Desktop/GD32VW553/V1_MQTT_OK/GD32VW55X_Wifi_BLE_SDK/GD32VW55x_RELEASE_V1.0.2/MSDK/lwip/lwip-2.1.2/src/core\mem.c ****       }
 1304              		.loc 1 964 48 is_stmt 0 discriminator 2
 1305 01a4 13858400 		addi	a0,s1,8
 955:C:/Users/stapi/OneDrive/Desktop/GD32VW553/V1_MQTT_OK/GD32VW55X_Wifi_BLE_SDK/GD32VW55x_RELEASE_V1.0.2/MSDK/lwip/lwip-2.1.2/src/core\mem.c ****                     ((mem_ptr_t)mem + SIZEOF_STRUCT_MEM) % MEM_ALIGNMENT == 0);
 1306              		.loc 1 955 9 discriminator 2
 1307 01a8 E38007E8 		beq	a5,zero,.L61
 955:C:/Users/stapi/OneDrive/Desktop/GD32VW553/V1_MQTT_OK/GD32VW55X_Wifi_BLE_SDK/GD32VW55x_RELEASE_V1.0.2/MSDK/lwip/lwip-2.1.2/src/core\mem.c ****                     ((mem_ptr_t)mem + SIZEOF_STRUCT_MEM) % MEM_ALIGNMENT == 0);
 1308              		.loc 1 955 9 is_stmt 1 discriminator 1
 955:C:/Users/stapi/OneDrive/Desktop/GD32VW553/V1_MQTT_OK/GD32VW55X_Wifi_BLE_SDK/GD32VW55x_RELEASE_V1.0.2/MSDK/lwip/lwip-2.1.2/src/core\mem.c ****                     ((mem_ptr_t)mem + SIZEOF_STRUCT_MEM) % MEM_ALIGNMENT == 0);
 1309              		.loc 1 955 9 discriminator 1
 1310 01ac B7060000 		lui	a3,%hi(.LC0)
 1311 01b0 B7050000 		lui	a1,%hi(.LC14)
 1312 01b4 37050000 		lui	a0,%hi(.LC2)
 1313 01b8 93860600 		addi	a3,a3,%lo(.LC0)
 1314 01bc 1306B03B 		li	a2,955
 1315 01c0 93850500 		addi	a1,a1,%lo(.LC14)
 1316 01c4 13050500 		addi	a0,a0,%lo(.LC2)
 1317 01c8 97000000 		call	printf
 1317      E7800000 
 1318              	.LVL101:
 1319              	.L77:
 955:C:/Users/stapi/OneDrive/Desktop/GD32VW553/V1_MQTT_OK/GD32VW55X_Wifi_BLE_SDK/GD32VW55x_RELEASE_V1.0.2/MSDK/lwip/lwip-2.1.2/src/core\mem.c ****                     ((mem_ptr_t)mem + SIZEOF_STRUCT_MEM) % MEM_ALIGNMENT == 0);
 1320              		.loc 1 955 9 discriminator 4
 955:C:/Users/stapi/OneDrive/Desktop/GD32VW553/V1_MQTT_OK/GD32VW55X_Wifi_BLE_SDK/GD32VW55x_RELEASE_V1.0.2/MSDK/lwip/lwip-2.1.2/src/core\mem.c ****                     ((mem_ptr_t)mem + SIZEOF_STRUCT_MEM) % MEM_ALIGNMENT == 0);
 1321              		.loc 1 955 9 discriminator 4
 955:C:/Users/stapi/OneDrive/Desktop/GD32VW553/V1_MQTT_OK/GD32VW55X_Wifi_BLE_SDK/GD32VW55x_RELEASE_V1.0.2/MSDK/lwip/lwip-2.1.2/src/core\mem.c ****                     ((mem_ptr_t)mem + SIZEOF_STRUCT_MEM) % MEM_ALIGNMENT == 0);
 1322              		.loc 1 955 9 discriminator 4
 1323 01d0 01A0     		j	.L77
 1324              	.LVL102:
 1325              	.L84:
 1326 01d2 2E87     		mv	a4,a1
 1327              	.LVL103:
 1328 01d4 71BD     		j	.L92
 1329              	.LVL104:
 1330              	.L79:
 1331              		.cfi_def_cfa_offset 0
 1332              		.cfi_restore 1
 1333              		.cfi_restore 8
 1334              		.cfi_restore 9
 1335              		.cfi_restore 18
 841:C:/Users/stapi/OneDrive/Desktop/GD32VW553/V1_MQTT_OK/GD32VW55X_Wifi_BLE_SDK/GD32VW55x_RELEASE_V1.0.2/MSDK/lwip/lwip-2.1.2/src/core\mem.c ****   }
 1336              		.loc 1 841 12 is_stmt 0
 1337 01d6 0145     		li	a0,0
 1338              	.LVL105:
 1339              		.loc 1 976 1
 1340 01d8 8280     		ret
 1341              		.cfi_endproc
 1342              	.LFE11:
 1344              		.section	.text.mem_calloc,"ax",@progbits
 1345              		.align	1
 1346              		.globl	mem_calloc
 1348              	mem_calloc:
 1349              	.LFB12:
 977:C:/Users/stapi/OneDrive/Desktop/GD32VW553/V1_MQTT_OK/GD32VW55X_Wifi_BLE_SDK/GD32VW55x_RELEASE_V1.0.2/MSDK/lwip/lwip-2.1.2/src/core\mem.c **** 
 978:C:/Users/stapi/OneDrive/Desktop/GD32VW553/V1_MQTT_OK/GD32VW55X_Wifi_BLE_SDK/GD32VW55x_RELEASE_V1.0.2/MSDK/lwip/lwip-2.1.2/src/core\mem.c **** #endif /* MEM_USE_POOLS */
 979:C:/Users/stapi/OneDrive/Desktop/GD32VW553/V1_MQTT_OK/GD32VW55X_Wifi_BLE_SDK/GD32VW55x_RELEASE_V1.0.2/MSDK/lwip/lwip-2.1.2/src/core\mem.c **** 
 980:C:/Users/stapi/OneDrive/Desktop/GD32VW553/V1_MQTT_OK/GD32VW55X_Wifi_BLE_SDK/GD32VW55x_RELEASE_V1.0.2/MSDK/lwip/lwip-2.1.2/src/core\mem.c **** #if MEM_LIBC_MALLOC && (!LWIP_STATS || !MEM_STATS)
 981:C:/Users/stapi/OneDrive/Desktop/GD32VW553/V1_MQTT_OK/GD32VW55X_Wifi_BLE_SDK/GD32VW55x_RELEASE_V1.0.2/MSDK/lwip/lwip-2.1.2/src/core\mem.c **** void *
 982:C:/Users/stapi/OneDrive/Desktop/GD32VW553/V1_MQTT_OK/GD32VW55X_Wifi_BLE_SDK/GD32VW55x_RELEASE_V1.0.2/MSDK/lwip/lwip-2.1.2/src/core\mem.c **** mem_calloc(mem_size_t count, mem_size_t size)
 983:C:/Users/stapi/OneDrive/Desktop/GD32VW553/V1_MQTT_OK/GD32VW55X_Wifi_BLE_SDK/GD32VW55x_RELEASE_V1.0.2/MSDK/lwip/lwip-2.1.2/src/core\mem.c **** {
 984:C:/Users/stapi/OneDrive/Desktop/GD32VW553/V1_MQTT_OK/GD32VW55X_Wifi_BLE_SDK/GD32VW55x_RELEASE_V1.0.2/MSDK/lwip/lwip-2.1.2/src/core\mem.c ****   return mem_clib_calloc(count, size);
 985:C:/Users/stapi/OneDrive/Desktop/GD32VW553/V1_MQTT_OK/GD32VW55X_Wifi_BLE_SDK/GD32VW55x_RELEASE_V1.0.2/MSDK/lwip/lwip-2.1.2/src/core\mem.c **** }
 986:C:/Users/stapi/OneDrive/Desktop/GD32VW553/V1_MQTT_OK/GD32VW55X_Wifi_BLE_SDK/GD32VW55x_RELEASE_V1.0.2/MSDK/lwip/lwip-2.1.2/src/core\mem.c **** 
 987:C:/Users/stapi/OneDrive/Desktop/GD32VW553/V1_MQTT_OK/GD32VW55X_Wifi_BLE_SDK/GD32VW55x_RELEASE_V1.0.2/MSDK/lwip/lwip-2.1.2/src/core\mem.c **** #else /* MEM_LIBC_MALLOC && (!LWIP_STATS || !MEM_STATS) */
 988:C:/Users/stapi/OneDrive/Desktop/GD32VW553/V1_MQTT_OK/GD32VW55X_Wifi_BLE_SDK/GD32VW55x_RELEASE_V1.0.2/MSDK/lwip/lwip-2.1.2/src/core\mem.c **** /**
 989:C:/Users/stapi/OneDrive/Desktop/GD32VW553/V1_MQTT_OK/GD32VW55X_Wifi_BLE_SDK/GD32VW55x_RELEASE_V1.0.2/MSDK/lwip/lwip-2.1.2/src/core\mem.c ****  * Contiguously allocates enough space for count objects that are size bytes
 990:C:/Users/stapi/OneDrive/Desktop/GD32VW553/V1_MQTT_OK/GD32VW55X_Wifi_BLE_SDK/GD32VW55x_RELEASE_V1.0.2/MSDK/lwip/lwip-2.1.2/src/core\mem.c ****  * of memory each and returns a pointer to the allocated memory.
 991:C:/Users/stapi/OneDrive/Desktop/GD32VW553/V1_MQTT_OK/GD32VW55X_Wifi_BLE_SDK/GD32VW55x_RELEASE_V1.0.2/MSDK/lwip/lwip-2.1.2/src/core\mem.c ****  *
 992:C:/Users/stapi/OneDrive/Desktop/GD32VW553/V1_MQTT_OK/GD32VW55X_Wifi_BLE_SDK/GD32VW55x_RELEASE_V1.0.2/MSDK/lwip/lwip-2.1.2/src/core\mem.c ****  * The allocated memory is filled with bytes of value zero.
 993:C:/Users/stapi/OneDrive/Desktop/GD32VW553/V1_MQTT_OK/GD32VW55X_Wifi_BLE_SDK/GD32VW55x_RELEASE_V1.0.2/MSDK/lwip/lwip-2.1.2/src/core\mem.c ****  *
 994:C:/Users/stapi/OneDrive/Desktop/GD32VW553/V1_MQTT_OK/GD32VW55X_Wifi_BLE_SDK/GD32VW55x_RELEASE_V1.0.2/MSDK/lwip/lwip-2.1.2/src/core\mem.c ****  * @param count number of objects to allocate
 995:C:/Users/stapi/OneDrive/Desktop/GD32VW553/V1_MQTT_OK/GD32VW55X_Wifi_BLE_SDK/GD32VW55x_RELEASE_V1.0.2/MSDK/lwip/lwip-2.1.2/src/core\mem.c ****  * @param size size of the objects to allocate
 996:C:/Users/stapi/OneDrive/Desktop/GD32VW553/V1_MQTT_OK/GD32VW55X_Wifi_BLE_SDK/GD32VW55x_RELEASE_V1.0.2/MSDK/lwip/lwip-2.1.2/src/core\mem.c ****  * @return pointer to allocated memory / NULL pointer if there is an error
 997:C:/Users/stapi/OneDrive/Desktop/GD32VW553/V1_MQTT_OK/GD32VW55X_Wifi_BLE_SDK/GD32VW55x_RELEASE_V1.0.2/MSDK/lwip/lwip-2.1.2/src/core\mem.c ****  */
 998:C:/Users/stapi/OneDrive/Desktop/GD32VW553/V1_MQTT_OK/GD32VW55X_Wifi_BLE_SDK/GD32VW55x_RELEASE_V1.0.2/MSDK/lwip/lwip-2.1.2/src/core\mem.c **** void *
 999:C:/Users/stapi/OneDrive/Desktop/GD32VW553/V1_MQTT_OK/GD32VW55X_Wifi_BLE_SDK/GD32VW55x_RELEASE_V1.0.2/MSDK/lwip/lwip-2.1.2/src/core\mem.c **** mem_calloc(mem_size_t count, mem_size_t size)
1000:C:/Users/stapi/OneDrive/Desktop/GD32VW553/V1_MQTT_OK/GD32VW55X_Wifi_BLE_SDK/GD32VW55x_RELEASE_V1.0.2/MSDK/lwip/lwip-2.1.2/src/core\mem.c **** {
 1350              		.loc 1 1000 1 is_stmt 1
 1351              		.cfi_startproc
 1352              	.LVL106:
 1353 0000 17030000 		call	t0,__riscv_save_1
 1353      E7020300 
 1354              		.cfi_offset 8, -8
 1355              		.cfi_offset 1, -4
 1356              		.cfi_def_cfa_offset 16
1001:C:/Users/stapi/OneDrive/Desktop/GD32VW553/V1_MQTT_OK/GD32VW55X_Wifi_BLE_SDK/GD32VW55x_RELEASE_V1.0.2/MSDK/lwip/lwip-2.1.2/src/core\mem.c ****   void *p;
 1357              		.loc 1 1001 3
1002:C:/Users/stapi/OneDrive/Desktop/GD32VW553/V1_MQTT_OK/GD32VW55X_Wifi_BLE_SDK/GD32VW55x_RELEASE_V1.0.2/MSDK/lwip/lwip-2.1.2/src/core\mem.c ****   size_t alloc_size = (size_t)count * (size_t)size;
 1358              		.loc 1 1002 3
 1359              		.loc 1 1002 10 is_stmt 0
 1360 0008 3306B502 		mul	a2,a0,a1
 1361              	.LVL107:
1003:C:/Users/stapi/OneDrive/Desktop/GD32VW553/V1_MQTT_OK/GD32VW55X_Wifi_BLE_SDK/GD32VW55x_RELEASE_V1.0.2/MSDK/lwip/lwip-2.1.2/src/core\mem.c **** 
1004:C:/Users/stapi/OneDrive/Desktop/GD32VW553/V1_MQTT_OK/GD32VW55X_Wifi_BLE_SDK/GD32VW55x_RELEASE_V1.0.2/MSDK/lwip/lwip-2.1.2/src/core\mem.c ****   if ((size_t)(mem_size_t)alloc_size != alloc_size) {
 1362              		.loc 1 1004 3 is_stmt 1
1000:C:/Users/stapi/OneDrive/Desktop/GD32VW553/V1_MQTT_OK/GD32VW55X_Wifi_BLE_SDK/GD32VW55x_RELEASE_V1.0.2/MSDK/lwip/lwip-2.1.2/src/core\mem.c ****   void *p;
 1363              		.loc 1 1000 1 is_stmt 0
 1364 000c 4111     		addi	sp,sp,-16
 1365              		.cfi_def_cfa_offset 32
1005:C:/Users/stapi/OneDrive/Desktop/GD32VW553/V1_MQTT_OK/GD32VW55X_Wifi_BLE_SDK/GD32VW55x_RELEASE_V1.0.2/MSDK/lwip/lwip-2.1.2/src/core\mem.c ****     LWIP_DEBUGF(MEM_DEBUG | LWIP_DBG_LEVEL_SERIOUS, ("mem_calloc: could not allocate %"SZT_F" bytes
1006:C:/Users/stapi/OneDrive/Desktop/GD32VW553/V1_MQTT_OK/GD32VW55X_Wifi_BLE_SDK/GD32VW55x_RELEASE_V1.0.2/MSDK/lwip/lwip-2.1.2/src/core\mem.c ****     return NULL;
 1366              		.loc 1 1006 12
 1367 000e 0144     		li	s0,0
1004:C:/Users/stapi/OneDrive/Desktop/GD32VW553/V1_MQTT_OK/GD32VW55X_Wifi_BLE_SDK/GD32VW55x_RELEASE_V1.0.2/MSDK/lwip/lwip-2.1.2/src/core\mem.c ****     LWIP_DEBUGF(MEM_DEBUG | LWIP_DBG_LEVEL_SERIOUS, ("mem_calloc: could not allocate %"SZT_F" bytes
 1368              		.loc 1 1004 6
 1369 0010 B3470608 		zext.h	a5,a2
 1370 0014 6310F602 		bne	a2,a5,.L97
1007:C:/Users/stapi/OneDrive/Desktop/GD32VW553/V1_MQTT_OK/GD32VW55X_Wifi_BLE_SDK/GD32VW55x_RELEASE_V1.0.2/MSDK/lwip/lwip-2.1.2/src/core\mem.c ****   }
1008:C:/Users/stapi/OneDrive/Desktop/GD32VW553/V1_MQTT_OK/GD32VW55X_Wifi_BLE_SDK/GD32VW55x_RELEASE_V1.0.2/MSDK/lwip/lwip-2.1.2/src/core\mem.c **** 
1009:C:/Users/stapi/OneDrive/Desktop/GD32VW553/V1_MQTT_OK/GD32VW55X_Wifi_BLE_SDK/GD32VW55x_RELEASE_V1.0.2/MSDK/lwip/lwip-2.1.2/src/core\mem.c ****   /* allocate 'count' objects of size 'size' */
1010:C:/Users/stapi/OneDrive/Desktop/GD32VW553/V1_MQTT_OK/GD32VW55X_Wifi_BLE_SDK/GD32VW55x_RELEASE_V1.0.2/MSDK/lwip/lwip-2.1.2/src/core\mem.c ****   p = mem_malloc((mem_size_t)alloc_size);
 1371              		.loc 1 1010 3 is_stmt 1
 1372              		.loc 1 1010 7 is_stmt 0
 1373 0018 3E85     		mv	a0,a5
 1374              	.LVL108:
 1375 001a 32C6     		sw	a2,12(sp)
 1376 001c 97000000 		call	mem_malloc
 1376      E7800000 
 1377              	.LVL109:
 1378 0024 2A84     		mv	s0,a0
 1379              	.LVL110:
1011:C:/Users/stapi/OneDrive/Desktop/GD32VW553/V1_MQTT_OK/GD32VW55X_Wifi_BLE_SDK/GD32VW55x_RELEASE_V1.0.2/MSDK/lwip/lwip-2.1.2/src/core\mem.c ****   if (p) {
 1380              		.loc 1 1011 3 is_stmt 1
 1381              		.loc 1 1011 6 is_stmt 0
 1382 0026 19C5     		beq	a0,zero,.L97
1012:C:/Users/stapi/OneDrive/Desktop/GD32VW553/V1_MQTT_OK/GD32VW55X_Wifi_BLE_SDK/GD32VW55x_RELEASE_V1.0.2/MSDK/lwip/lwip-2.1.2/src/core\mem.c ****     /* zero the memory */
1013:C:/Users/stapi/OneDrive/Desktop/GD32VW553/V1_MQTT_OK/GD32VW55X_Wifi_BLE_SDK/GD32VW55x_RELEASE_V1.0.2/MSDK/lwip/lwip-2.1.2/src/core\mem.c ****     memset(p, 0, alloc_size);
 1383              		.loc 1 1013 5 is_stmt 1
 1384 0028 3246     		lw	a2,12(sp)
 1385 002a 8145     		li	a1,0
 1386 002c 97000000 		call	memset
 1386      E7800000 
 1387              	.LVL111:
 1388              	.L97:
1014:C:/Users/stapi/OneDrive/Desktop/GD32VW553/V1_MQTT_OK/GD32VW55X_Wifi_BLE_SDK/GD32VW55x_RELEASE_V1.0.2/MSDK/lwip/lwip-2.1.2/src/core\mem.c ****   }
1015:C:/Users/stapi/OneDrive/Desktop/GD32VW553/V1_MQTT_OK/GD32VW55X_Wifi_BLE_SDK/GD32VW55x_RELEASE_V1.0.2/MSDK/lwip/lwip-2.1.2/src/core\mem.c ****   return p;
1016:C:/Users/stapi/OneDrive/Desktop/GD32VW553/V1_MQTT_OK/GD32VW55X_Wifi_BLE_SDK/GD32VW55x_RELEASE_V1.0.2/MSDK/lwip/lwip-2.1.2/src/core\mem.c **** }
 1389              		.loc 1 1016 1 is_stmt 0
 1390 0034 2285     		mv	a0,s0
 1391 0036 4101     		addi	sp,sp,16
 1392              		.cfi_def_cfa_offset 0
 1393 0038 17030000 		tail	__riscv_restore_1
 1393      67000300 
 1394              		.cfi_restore 8
 1395              		.cfi_restore 1
 1396              		.cfi_def_cfa_offset -16
 1397              		.cfi_endproc
 1398              	.LFE12:
 1400              		.globl	ram_heap
 1401              		.section	.bss.ram_heap,"aw",@nobits
 1402              		.align	2
 1405              	ram_heap:
 1406 0000 00000000 		.zero	25852
 1406      00000000 
 1406      00000000 
 1406      00000000 
 1406      00000000 
 1407              		.section	.sbss.lfree,"aw",@nobits
 1408              		.align	2
 1409              		.set	.LANCHOR2,. + 0
 1412              	lfree:
 1413 0000 00000000 		.zero	4
 1414              		.section	.sbss.mem_mutex,"aw",@nobits
 1415              		.align	2
 1416              		.set	.LANCHOR3,. + 0
 1419              	mem_mutex:
 1420 0000 00000000 		.zero	4
 1421              		.section	.sbss.ram,"aw",@nobits
 1422              		.align	2
 1423              		.set	.LANCHOR0,. + 0
 1426              	ram:
 1427 0000 00000000 		.zero	4
 1428              		.section	.sbss.ram_end,"aw",@nobits
 1429              		.align	2
 1430              		.set	.LANCHOR1,. + 0
 1433              	ram_end:
 1434 0000 00000000 		.zero	4
 1435              		.text
 1436              	.Letext0:
 1437              		.file 2 "c:\\users\\stapi\\onedrive\\desktop\\gd32vw553\\embeddedbuilder_v1.4.7.26843\\tools\\nucl
 1438              		.file 3 "c:\\users\\stapi\\onedrive\\desktop\\gd32vw553\\embeddedbuilder_v1.4.7.26843\\tools\\nucl
 1439              		.file 4 "c:\\users\\stapi\\onedrive\\desktop\\gd32vw553\\embeddedbuilder_v1.4.7.26843\\tools\\nucl
 1440              		.file 5 "..\\..\\..\\..\\lwip\\lwip-2.1.2\\src\\include/lwip/arch.h"
 1441              		.file 6 "..\\..\\..\\..\\lwip\\lwip-2.1.2\\src\\include/lwip/mem.h"
 1442              		.file 7 "..\\..\\..\\..\\rtos\\rtos_wrapper/wrapper_os.h"
 1443              		.file 8 "..\\..\\..\\..\\lwip\\lwip-2.1.2\\port/arch/sys_arch.h"
 1444              		.file 9 "..\\..\\..\\..\\lwip\\lwip-2.1.2\\src\\include/lwip/err.h"
 1445              		.file 10 "..\\..\\..\\..\\lwip\\lwip-2.1.2\\src\\include/lwip/memp.h"
 1446              		.file 11 "c:\\users\\stapi\\onedrive\\desktop\\gd32vw553\\embeddedbuilder_v1.4.7.26843\\tools\\nuc
 1447              		.file 12 "<built-in>"
DEFINED SYMBOLS
                            *ABS*:0000000000000000 mem.c
C:\Users\stapi\AppData\Local\Temp\ccXC0MMf.s:23     .text.mem_init:0000000000000000 mem_init
C:\Users\stapi\AppData\Local\Temp\ccXC0MMf.s:27     .text.mem_init:0000000000000000 .L0 
C:\Users\stapi\AppData\Local\Temp\ccXC0MMf.s:28     .text.mem_init:0000000000000000 .L0 
C:\Users\stapi\AppData\Local\Temp\ccXC0MMf.s:29     .text.mem_init:0000000000000008 .L0 
C:\Users\stapi\AppData\Local\Temp\ccXC0MMf.s:30     .text.mem_init:0000000000000008 .L0 
C:\Users\stapi\AppData\Local\Temp\ccXC0MMf.s:32     .text.mem_init:0000000000000008 .L0 
C:\Users\stapi\AppData\Local\Temp\ccXC0MMf.s:33     .text.mem_init:0000000000000008 .L0 
C:\Users\stapi\AppData\Local\Temp\ccXC0MMf.s:34     .text.mem_init:0000000000000008 .L0 
C:\Users\stapi\AppData\Local\Temp\ccXC0MMf.s:35     .text.mem_init:0000000000000008 .L0 
C:\Users\stapi\AppData\Local\Temp\ccXC0MMf.s:36     .text.mem_init:0000000000000008 .L0 
C:\Users\stapi\AppData\Local\Temp\ccXC0MMf.s:37     .text.mem_init:0000000000000008 .L0 
C:\Users\stapi\AppData\Local\Temp\ccXC0MMf.s:1405   .bss.ram_heap:0000000000000000 ram_heap
C:\Users\stapi\AppData\Local\Temp\ccXC0MMf.s:38     .text.mem_init:0000000000000008 .L0 
C:\Users\stapi\AppData\Local\Temp\ccXC0MMf.s:42     .text.mem_init:0000000000000012 .L0 
C:\Users\stapi\AppData\Local\Temp\ccXC0MMf.s:46     .text.mem_init:000000000000001a .L0 
C:\Users\stapi\AppData\Local\Temp\ccXC0MMf.s:47     .text.mem_init:000000000000001a .L0 
C:\Users\stapi\AppData\Local\Temp\ccXC0MMf.s:48     .text.mem_init:000000000000001a .L0 
C:\Users\stapi\AppData\Local\Temp\ccXC0MMf.s:49     .text.mem_init:000000000000001a .L0 
C:\Users\stapi\AppData\Local\Temp\ccXC0MMf.s:50     .text.mem_init:000000000000001a .L0 
C:\Users\stapi\AppData\Local\Temp\ccXC0MMf.s:54     .text.mem_init:0000000000000022 .L0 
C:\Users\stapi\AppData\Local\Temp\ccXC0MMf.s:58     .text.mem_init:0000000000000026 .L0 
C:\Users\stapi\AppData\Local\Temp\ccXC0MMf.s:62     .text.mem_init:0000000000000028 .L0 
C:\Users\stapi\AppData\Local\Temp\ccXC0MMf.s:64     .text.mem_init:000000000000002c .L0 
C:\Users\stapi\AppData\Local\Temp\ccXC0MMf.s:67     .text.mem_init:0000000000000032 .L0 
C:\Users\stapi\AppData\Local\Temp\ccXC0MMf.s:72     .text.mem_init:0000000000000036 .L0 
C:\Users\stapi\AppData\Local\Temp\ccXC0MMf.s:75     .text.mem_init:0000000000000036 .L0 
C:\Users\stapi\AppData\Local\Temp\ccXC0MMf.s:76     .text.mem_init:0000000000000036 .L0 
C:\Users\stapi\AppData\Local\Temp\ccXC0MMf.s:77     .text.mem_init:0000000000000036 .L0 
C:\Users\stapi\AppData\Local\Temp\ccXC0MMf.s:78     .text.mem_init:0000000000000036 .L0 
C:\Users\stapi\AppData\Local\Temp\ccXC0MMf.s:79     .text.mem_init:0000000000000036 .L0 
C:\Users\stapi\AppData\Local\Temp\ccXC0MMf.s:82     .text.mem_init:000000000000003e .L0 
C:\Users\stapi\AppData\Local\Temp\ccXC0MMf.s:84     .text.mem_init:0000000000000042 .L0 
C:\Users\stapi\AppData\Local\Temp\ccXC0MMf.s:87     .text.mem_init:0000000000000048 .L0 
C:\Users\stapi\AppData\Local\Temp\ccXC0MMf.s:88     .text.mem_init:0000000000000048 .L0 
C:\Users\stapi\AppData\Local\Temp\ccXC0MMf.s:89     .text.mem_init:0000000000000048 .L0 
C:\Users\stapi\AppData\Local\Temp\ccXC0MMf.s:91     .text.mem_init:000000000000004c .L0 
C:\Users\stapi\AppData\Local\Temp\ccXC0MMf.s:94     .text.mem_init:0000000000000054 .L0 
C:\Users\stapi\AppData\Local\Temp\ccXC0MMf.s:95     .text.mem_init:0000000000000054 .L0 
C:\Users\stapi\AppData\Local\Temp\ccXC0MMf.s:96     .text.mem_init:0000000000000054 .L0 
C:\Users\stapi\AppData\Local\Temp\ccXC0MMf.s:99     .text.mem_init:000000000000005c .L0 
C:\Users\stapi\AppData\Local\Temp\ccXC0MMf.s:101    .text.mem_init:000000000000005e .L0 
C:\Users\stapi\AppData\Local\Temp\ccXC0MMf.s:102    .text.mem_init:000000000000005e .L0 
C:\Users\stapi\AppData\Local\Temp\ccXC0MMf.s:103    .text.mem_init:000000000000005e .L0 
C:\Users\stapi\AppData\Local\Temp\ccXC0MMf.s:104    .text.mem_init:000000000000005e .L0 
C:\Users\stapi\AppData\Local\Temp\ccXC0MMf.s:115    .text.mem_init:0000000000000082 .L0 
C:\Users\stapi\AppData\Local\Temp\ccXC0MMf.s:116    .text.mem_init:0000000000000082 .L0 
C:\Users\stapi\AppData\Local\Temp\ccXC0MMf.s:117    .text.mem_init:0000000000000082 .L0 
C:\Users\stapi\AppData\Local\Temp\ccXC0MMf.s:120    .text.mem_init:0000000000000084 .L0 
C:\Users\stapi\AppData\Local\Temp\ccXC0MMf.s:121    .text.mem_init:000000000000008c .L0 
C:\Users\stapi\AppData\Local\Temp\ccXC0MMf.s:122    .text.mem_init:000000000000008c .L0 
C:\Users\stapi\AppData\Local\Temp\ccXC0MMf.s:123    .text.mem_init:000000000000008c .L0 
C:\Users\stapi\AppData\Local\Temp\ccXC0MMf.s:149    .text.mem_free:0000000000000000 mem_free
C:\Users\stapi\AppData\Local\Temp\ccXC0MMf.s:152    .text.mem_free:0000000000000000 .L0 
C:\Users\stapi\AppData\Local\Temp\ccXC0MMf.s:154    .text.mem_free:0000000000000000 .L0 
C:\Users\stapi\AppData\Local\Temp\ccXC0MMf.s:155    .text.mem_free:0000000000000000 .L0 
C:\Users\stapi\AppData\Local\Temp\ccXC0MMf.s:156    .text.mem_free:0000000000000000 .L0 
C:\Users\stapi\AppData\Local\Temp\ccXC0MMf.s:157    .text.mem_free:0000000000000000 .L0 
C:\Users\stapi\AppData\Local\Temp\ccXC0MMf.s:158    .text.mem_free:0000000000000000 .L0 
C:\Users\stapi\AppData\Local\Temp\ccXC0MMf.s:160    .text.mem_free:0000000000000004 .L0 
C:\Users\stapi\AppData\Local\Temp\ccXC0MMf.s:161    .text.mem_free:000000000000000c .L0 
C:\Users\stapi\AppData\Local\Temp\ccXC0MMf.s:162    .text.mem_free:000000000000000c .L0 
C:\Users\stapi\AppData\Local\Temp\ccXC0MMf.s:163    .text.mem_free:000000000000000c .L0 
C:\Users\stapi\AppData\Local\Temp\ccXC0MMf.s:164    .text.mem_free:000000000000000c .L0 
C:\Users\stapi\AppData\Local\Temp\ccXC0MMf.s:165    .text.mem_free:000000000000000c .L0 
C:\Users\stapi\AppData\Local\Temp\ccXC0MMf.s:166    .text.mem_free:000000000000000c .L0 
C:\Users\stapi\AppData\Local\Temp\ccXC0MMf.s:167    .text.mem_free:000000000000000c .L0 
C:\Users\stapi\AppData\Local\Temp\ccXC0MMf.s:169    .text.mem_free:000000000000000c .L0 
C:\Users\stapi\AppData\Local\Temp\ccXC0MMf.s:172    .text.mem_free:0000000000000012 .L0 
C:\Users\stapi\AppData\Local\Temp\ccXC0MMf.s:173    .text.mem_free:0000000000000012 .L0 
C:\Users\stapi\AppData\Local\Temp\ccXC0MMf.s:175    .text.mem_free:0000000000000014 .L0 
C:\Users\stapi\AppData\Local\Temp\ccXC0MMf.s:176    .text.mem_free:0000000000000014 .L0 
C:\Users\stapi\AppData\Local\Temp\ccXC0MMf.s:177    .text.mem_free:0000000000000014 .L0 
C:\Users\stapi\AppData\Local\Temp\ccXC0MMf.s:178    .text.mem_free:0000000000000014 .L0 
C:\Users\stapi\AppData\Local\Temp\ccXC0MMf.s:190    .text.mem_free:0000000000000038 .L0 
C:\Users\stapi\AppData\Local\Temp\ccXC0MMf.s:191    .text.mem_free:0000000000000038 .L0 
C:\Users\stapi\AppData\Local\Temp\ccXC0MMf.s:192    .text.mem_free:0000000000000038 .L0 
C:\Users\stapi\AppData\Local\Temp\ccXC0MMf.s:195    .text.mem_free:000000000000003a .L0 
C:\Users\stapi\AppData\Local\Temp\ccXC0MMf.s:196    .text.mem_free:000000000000003a .L0 
C:\Users\stapi\AppData\Local\Temp\ccXC0MMf.s:199    .text.mem_free:0000000000000042 .L0 
C:\Users\stapi\AppData\Local\Temp\ccXC0MMf.s:201    .text.mem_free:0000000000000046 .L0 
C:\Users\stapi\AppData\Local\Temp\ccXC0MMf.s:204    .text.mem_free:000000000000004a .L0 
C:\Users\stapi\AppData\Local\Temp\ccXC0MMf.s:205    .text.mem_free:000000000000004a .L0 
C:\Users\stapi\AppData\Local\Temp\ccXC0MMf.s:207    .text.mem_free:000000000000004e .L0 
C:\Users\stapi\AppData\Local\Temp\ccXC0MMf.s:209    .text.mem_free:0000000000000052 .L0 
C:\Users\stapi\AppData\Local\Temp\ccXC0MMf.s:211    .text.mem_free:0000000000000056 .L0 
C:\Users\stapi\AppData\Local\Temp\ccXC0MMf.s:214    .text.mem_free:000000000000005e .L0 
C:\Users\stapi\AppData\Local\Temp\ccXC0MMf.s:217    .text.mem_free:0000000000000062 .L0 
C:\Users\stapi\AppData\Local\Temp\ccXC0MMf.s:218    .text.mem_free:0000000000000062 .L0 
C:\Users\stapi\AppData\Local\Temp\ccXC0MMf.s:219    .text.mem_free:0000000000000062 .L0 
C:\Users\stapi\AppData\Local\Temp\ccXC0MMf.s:220    .text.mem_free:0000000000000062 .L0 
C:\Users\stapi\AppData\Local\Temp\ccXC0MMf.s:231    .text.mem_free:0000000000000086 .L0 
C:\Users\stapi\AppData\Local\Temp\ccXC0MMf.s:232    .text.mem_free:0000000000000086 .L0 
C:\Users\stapi\AppData\Local\Temp\ccXC0MMf.s:233    .text.mem_free:0000000000000086 .L0 
C:\Users\stapi\AppData\Local\Temp\ccXC0MMf.s:236    .text.mem_free:0000000000000088 .L0 
C:\Users\stapi\AppData\Local\Temp\ccXC0MMf.s:241    .text.mem_free:0000000000000098 .L0 
C:\Users\stapi\AppData\Local\Temp\ccXC0MMf.s:242    .text.mem_free:0000000000000098 .L0 
C:\Users\stapi\AppData\Local\Temp\ccXC0MMf.s:245    .text.mem_free:000000000000009e .L0 
C:\Users\stapi\AppData\Local\Temp\ccXC0MMf.s:246    .text.mem_free:000000000000009e .L0 
C:\Users\stapi\AppData\Local\Temp\ccXC0MMf.s:247    .text.mem_free:000000000000009e .L0 
C:\Users\stapi\AppData\Local\Temp\ccXC0MMf.s:248    .text.mem_free:000000000000009e .L0 
C:\Users\stapi\AppData\Local\Temp\ccXC0MMf.s:259    .text.mem_free:00000000000000c2 .L0 
C:\Users\stapi\AppData\Local\Temp\ccXC0MMf.s:260    .text.mem_free:00000000000000c2 .L0 
C:\Users\stapi\AppData\Local\Temp\ccXC0MMf.s:261    .text.mem_free:00000000000000c2 .L0 
C:\Users\stapi\AppData\Local\Temp\ccXC0MMf.s:267    .text.mem_free:00000000000000c4 .L0 
C:\Users\stapi\AppData\Local\Temp\ccXC0MMf.s:268    .text.mem_free:00000000000000c4 .L0 
C:\Users\stapi\AppData\Local\Temp\ccXC0MMf.s:269    .text.mem_free:00000000000000c4 .L0 
C:\Users\stapi\AppData\Local\Temp\ccXC0MMf.s:272    .text.mem_free:00000000000000c4 .L0 
C:\Users\stapi\AppData\Local\Temp\ccXC0MMf.s:275    .text.mem_free:00000000000000c4 .L0 
C:\Users\stapi\AppData\Local\Temp\ccXC0MMf.s:276    .text.mem_free:00000000000000c4 .L0 
C:\Users\stapi\AppData\Local\Temp\ccXC0MMf.s:277    .text.mem_free:00000000000000c4 .L0 
C:\Users\stapi\AppData\Local\Temp\ccXC0MMf.s:284    .text.mem_free:00000000000000c8 .L0 
C:\Users\stapi\AppData\Local\Temp\ccXC0MMf.s:287    .text.mem_free:00000000000000c8 .L0 
C:\Users\stapi\AppData\Local\Temp\ccXC0MMf.s:290    .text.mem_free:00000000000000c8 .L0 
C:\Users\stapi\AppData\Local\Temp\ccXC0MMf.s:291    .text.mem_free:00000000000000c8 .L0 
C:\Users\stapi\AppData\Local\Temp\ccXC0MMf.s:292    .text.mem_free:00000000000000c8 .L0 
C:\Users\stapi\AppData\Local\Temp\ccXC0MMf.s:296    .text.mem_free:00000000000000d2 .L0 
C:\Users\stapi\AppData\Local\Temp\ccXC0MMf.s:298    .text.mem_free:00000000000000d6 .L0 
C:\Users\stapi\AppData\Local\Temp\ccXC0MMf.s:302    .text.mem_free:00000000000000da .L0 
C:\Users\stapi\AppData\Local\Temp\ccXC0MMf.s:305    .text.mem_free:00000000000000e2 .L0 
C:\Users\stapi\AppData\Local\Temp\ccXC0MMf.s:309    .text.mem_free:00000000000000e6 .L0 
C:\Users\stapi\AppData\Local\Temp\ccXC0MMf.s:311    .text.mem_free:00000000000000ea .L0 
C:\Users\stapi\AppData\Local\Temp\ccXC0MMf.s:313    .text.mem_free:00000000000000ec .L0 
C:\Users\stapi\AppData\Local\Temp\ccXC0MMf.s:317    .text.mem_free:00000000000000f4 .L0 
C:\Users\stapi\AppData\Local\Temp\ccXC0MMf.s:321    .text.mem_free:00000000000000f8 .L0 
C:\Users\stapi\AppData\Local\Temp\ccXC0MMf.s:326    .text.mem_free:00000000000000fa .L0 
C:\Users\stapi\AppData\Local\Temp\ccXC0MMf.s:328    .text.mem_free:00000000000000fe .L0 
C:\Users\stapi\AppData\Local\Temp\ccXC0MMf.s:335    .text.mem_free:0000000000000106 .L0 
C:\Users\stapi\AppData\Local\Temp\ccXC0MMf.s:336    .text.mem_free:0000000000000106 .L0 
C:\Users\stapi\AppData\Local\Temp\ccXC0MMf.s:337    .text.mem_free:0000000000000106 .L0 
C:\Users\stapi\AppData\Local\Temp\ccXC0MMf.s:338    .text.mem_free:0000000000000106 .L0 
C:\Users\stapi\AppData\Local\Temp\ccXC0MMf.s:339    .text.mem_free:0000000000000106 .L0 
C:\Users\stapi\AppData\Local\Temp\ccXC0MMf.s:350    .text.mem_free:000000000000012a .L0 
C:\Users\stapi\AppData\Local\Temp\ccXC0MMf.s:351    .text.mem_free:000000000000012a .L0 
C:\Users\stapi\AppData\Local\Temp\ccXC0MMf.s:352    .text.mem_free:000000000000012a .L0 
C:\Users\stapi\AppData\Local\Temp\ccXC0MMf.s:356    .text.mem_free:000000000000012c .L0 
C:\Users\stapi\AppData\Local\Temp\ccXC0MMf.s:357    .text.mem_free:000000000000012c .L0 
C:\Users\stapi\AppData\Local\Temp\ccXC0MMf.s:359    .text.mem_free:0000000000000130 .L0 
C:\Users\stapi\AppData\Local\Temp\ccXC0MMf.s:361    .text.mem_free:0000000000000134 .L0 
C:\Users\stapi\AppData\Local\Temp\ccXC0MMf.s:363    .text.mem_free:0000000000000138 .L0 
C:\Users\stapi\AppData\Local\Temp\ccXC0MMf.s:365    .text.mem_free:000000000000013c .L0 
C:\Users\stapi\AppData\Local\Temp\ccXC0MMf.s:367    .text.mem_free:0000000000000140 .L0 
C:\Users\stapi\AppData\Local\Temp\ccXC0MMf.s:368    .text.mem_free:0000000000000140 .L0 
C:\Users\stapi\AppData\Local\Temp\ccXC0MMf.s:371    .text.mem_free:0000000000000142 .L0 
C:\Users\stapi\AppData\Local\Temp\ccXC0MMf.s:375    .text.mem_free:0000000000000142 .L0 
C:\Users\stapi\AppData\Local\Temp\ccXC0MMf.s:376    .text.mem_free:0000000000000142 .L0 
C:\Users\stapi\AppData\Local\Temp\ccXC0MMf.s:377    .text.mem_free:0000000000000142 .L0 
C:\Users\stapi\AppData\Local\Temp\ccXC0MMf.s:378    .text.mem_free:0000000000000142 .L0 
C:\Users\stapi\AppData\Local\Temp\ccXC0MMf.s:379    .text.mem_free:0000000000000142 .L0 
C:\Users\stapi\AppData\Local\Temp\ccXC0MMf.s:381    .text.mem_free:0000000000000146 .L0 
C:\Users\stapi\AppData\Local\Temp\ccXC0MMf.s:382    .text.mem_free:0000000000000146 .L0 
C:\Users\stapi\AppData\Local\Temp\ccXC0MMf.s:393    .text.mem_free:000000000000016a .L0 
C:\Users\stapi\AppData\Local\Temp\ccXC0MMf.s:394    .text.mem_free:000000000000016a .L0 
C:\Users\stapi\AppData\Local\Temp\ccXC0MMf.s:395    .text.mem_free:000000000000016a .L0 
C:\Users\stapi\AppData\Local\Temp\ccXC0MMf.s:399    .text.mem_free:000000000000016c .L0 
C:\Users\stapi\AppData\Local\Temp\ccXC0MMf.s:400    .text.mem_free:000000000000016c .L0 
C:\Users\stapi\AppData\Local\Temp\ccXC0MMf.s:401    .text.mem_free:000000000000016c .L0 
C:\Users\stapi\AppData\Local\Temp\ccXC0MMf.s:402    .text.mem_free:000000000000016c .L0 
C:\Users\stapi\AppData\Local\Temp\ccXC0MMf.s:404    .text.mem_free:0000000000000170 .L0 
C:\Users\stapi\AppData\Local\Temp\ccXC0MMf.s:405    .text.mem_free:0000000000000170 .L0 
C:\Users\stapi\AppData\Local\Temp\ccXC0MMf.s:416    .text.mem_free:0000000000000194 .L0 
C:\Users\stapi\AppData\Local\Temp\ccXC0MMf.s:417    .text.mem_free:0000000000000194 .L0 
C:\Users\stapi\AppData\Local\Temp\ccXC0MMf.s:418    .text.mem_free:0000000000000194 .L0 
C:\Users\stapi\AppData\Local\Temp\ccXC0MMf.s:422    .text.mem_free:0000000000000196 .L0 
C:\Users\stapi\AppData\Local\Temp\ccXC0MMf.s:423    .text.mem_free:0000000000000196 .L0 
C:\Users\stapi\AppData\Local\Temp\ccXC0MMf.s:424    .text.mem_free:0000000000000196 .L0 
C:\Users\stapi\AppData\Local\Temp\ccXC0MMf.s:425    .text.mem_free:0000000000000196 .L0 
C:\Users\stapi\AppData\Local\Temp\ccXC0MMf.s:426    .text.mem_free:0000000000000196 .L0 
C:\Users\stapi\AppData\Local\Temp\ccXC0MMf.s:427    .text.mem_free:0000000000000196 .L0 
C:\Users\stapi\AppData\Local\Temp\ccXC0MMf.s:428    .text.mem_free:0000000000000196 .L0 
C:\Users\stapi\AppData\Local\Temp\ccXC0MMf.s:429    .text.mem_free:0000000000000196 .L0 
C:\Users\stapi\AppData\Local\Temp\ccXC0MMf.s:430    .text.mem_free:0000000000000196 .L0 
C:\Users\stapi\AppData\Local\Temp\ccXC0MMf.s:431    .text.mem_free:0000000000000196 .L0 
C:\Users\stapi\AppData\Local\Temp\ccXC0MMf.s:434    .text.mem_free:0000000000000196 .L0 
C:\Users\stapi\AppData\Local\Temp\ccXC0MMf.s:437    .text.mem_free:0000000000000196 .L0 
C:\Users\stapi\AppData\Local\Temp\ccXC0MMf.s:438    .text.mem_free:0000000000000196 .L0 
C:\Users\stapi\AppData\Local\Temp\ccXC0MMf.s:439    .text.mem_free:0000000000000196 .L0 
C:\Users\stapi\AppData\Local\Temp\ccXC0MMf.s:441    .text.mem_free:000000000000019a .L0 
C:\Users\stapi\AppData\Local\Temp\ccXC0MMf.s:444    .text.mem_free:00000000000001a0 .L0 
C:\Users\stapi\AppData\Local\Temp\ccXC0MMf.s:446    .text.mem_free:00000000000001a4 .L0 
C:\Users\stapi\AppData\Local\Temp\ccXC0MMf.s:447    .text.mem_free:00000000000001a4 .L0 
C:\Users\stapi\AppData\Local\Temp\ccXC0MMf.s:450    .text.mem_free:00000000000001aa .L0 
C:\Users\stapi\AppData\Local\Temp\ccXC0MMf.s:451    .text.mem_free:00000000000001aa .L0 
C:\Users\stapi\AppData\Local\Temp\ccXC0MMf.s:454    .text.mem_free:00000000000001ac .L0 
C:\Users\stapi\AppData\Local\Temp\ccXC0MMf.s:455    .text.mem_free:00000000000001ac .L0 
C:\Users\stapi\AppData\Local\Temp\ccXC0MMf.s:457    .text.mem_free:00000000000001b0 .L0 
C:\Users\stapi\AppData\Local\Temp\ccXC0MMf.s:460    .text.mem_free:00000000000001b4 .L0 
C:\Users\stapi\AppData\Local\Temp\ccXC0MMf.s:461    .text.mem_free:00000000000001b4 .L0 
C:\Users\stapi\AppData\Local\Temp\ccXC0MMf.s:463    .text.mem_free:00000000000001b8 .L0 
C:\Users\stapi\AppData\Local\Temp\ccXC0MMf.s:470    .text.mem_free:00000000000001c2 .L0 
C:\Users\stapi\AppData\Local\Temp\ccXC0MMf.s:475    .text.mem_free:00000000000001c2 .L0 
C:\Users\stapi\AppData\Local\Temp\ccXC0MMf.s:478    .text.mem_free:00000000000001c2 .L0 
C:\Users\stapi\AppData\Local\Temp\ccXC0MMf.s:479    .text.mem_free:00000000000001c2 .L0 
C:\Users\stapi\AppData\Local\Temp\ccXC0MMf.s:484    .text.mem_free:00000000000001c8 .L0 
C:\Users\stapi\AppData\Local\Temp\ccXC0MMf.s:485    .text.mem_free:00000000000001c8 .L0 
C:\Users\stapi\AppData\Local\Temp\ccXC0MMf.s:490    .text.mem_free:00000000000001cc .L0 
C:\Users\stapi\AppData\Local\Temp\ccXC0MMf.s:491    .text.mem_free:00000000000001cc .L0 
C:\Users\stapi\AppData\Local\Temp\ccXC0MMf.s:496    .text.mem_free:00000000000001d0 .L0 
C:\Users\stapi\AppData\Local\Temp\ccXC0MMf.s:497    .text.mem_free:00000000000001d0 .L0 
C:\Users\stapi\AppData\Local\Temp\ccXC0MMf.s:499    .text.mem_free:00000000000001d4 .L0 
C:\Users\stapi\AppData\Local\Temp\ccXC0MMf.s:502    .text.mem_free:00000000000001da .L0 
C:\Users\stapi\AppData\Local\Temp\ccXC0MMf.s:503    .text.mem_free:00000000000001da .L0 
C:\Users\stapi\AppData\Local\Temp\ccXC0MMf.s:506    .text.mem_free:00000000000001e0 .L0 
C:\Users\stapi\AppData\Local\Temp\ccXC0MMf.s:507    .text.mem_free:00000000000001e0 .L0 
C:\Users\stapi\AppData\Local\Temp\ccXC0MMf.s:510    .text.mem_free:00000000000001e2 .L0 
C:\Users\stapi\AppData\Local\Temp\ccXC0MMf.s:511    .text.mem_free:00000000000001e2 .L0 
C:\Users\stapi\AppData\Local\Temp\ccXC0MMf.s:513    .text.mem_free:00000000000001e6 .L0 
C:\Users\stapi\AppData\Local\Temp\ccXC0MMf.s:515    .text.mem_free:00000000000001ea .L0 
C:\Users\stapi\AppData\Local\Temp\ccXC0MMf.s:516    .text.mem_free:00000000000001ea .L0 
C:\Users\stapi\AppData\Local\Temp\ccXC0MMf.s:518    .text.mem_free:00000000000001ee .L0 
C:\Users\stapi\AppData\Local\Temp\ccXC0MMf.s:526    .text.mem_free:00000000000001f8 .L0 
C:\Users\stapi\AppData\Local\Temp\ccXC0MMf.s:531    .text.mem_free:00000000000001f8 .L0 
C:\Users\stapi\AppData\Local\Temp\ccXC0MMf.s:534    .text.mem_free:00000000000001f8 .L0 
C:\Users\stapi\AppData\Local\Temp\ccXC0MMf.s:535    .text.mem_free:00000000000001f8 .L0 
C:\Users\stapi\AppData\Local\Temp\ccXC0MMf.s:543    .text.mem_free:00000000000001fe .L0 
C:\Users\stapi\AppData\Local\Temp\ccXC0MMf.s:544    .text.mem_free:00000000000001fe .L0 
C:\Users\stapi\AppData\Local\Temp\ccXC0MMf.s:548    .text.mem_free:000000000000020a .L0 
C:\Users\stapi\AppData\Local\Temp\ccXC0MMf.s:549    .text.mem_free:0000000000000212 .L0 
C:\Users\stapi\AppData\Local\Temp\ccXC0MMf.s:550    .text.mem_free:0000000000000212 .L0 
C:\Users\stapi\AppData\Local\Temp\ccXC0MMf.s:551    .text.mem_free:0000000000000212 .L0 
C:\Users\stapi\AppData\Local\Temp\ccXC0MMf.s:552    .text.mem_free:0000000000000212 .L0 
C:\Users\stapi\AppData\Local\Temp\ccXC0MMf.s:553    .text.mem_free:0000000000000212 .L0 
C:\Users\stapi\AppData\Local\Temp\ccXC0MMf.s:554    .text.mem_free:0000000000000212 .L0 
C:\Users\stapi\AppData\Local\Temp\ccXC0MMf.s:555    .text.mem_free:0000000000000212 .L0 
C:\Users\stapi\AppData\Local\Temp\ccXC0MMf.s:559    .text.mem_free:0000000000000214 .L0 
C:\Users\stapi\AppData\Local\Temp\ccXC0MMf.s:576    .text.mem_trim:0000000000000000 mem_trim
C:\Users\stapi\AppData\Local\Temp\ccXC0MMf.s:579    .text.mem_trim:0000000000000000 .L0 
C:\Users\stapi\AppData\Local\Temp\ccXC0MMf.s:581    .text.mem_trim:0000000000000000 .L0 
C:\Users\stapi\AppData\Local\Temp\ccXC0MMf.s:582    .text.mem_trim:0000000000000008 .L0 
C:\Users\stapi\AppData\Local\Temp\ccXC0MMf.s:583    .text.mem_trim:0000000000000008 .L0 
C:\Users\stapi\AppData\Local\Temp\ccXC0MMf.s:584    .text.mem_trim:0000000000000008 .L0 
C:\Users\stapi\AppData\Local\Temp\ccXC0MMf.s:585    .text.mem_trim:0000000000000008 .L0 
C:\Users\stapi\AppData\Local\Temp\ccXC0MMf.s:586    .text.mem_trim:0000000000000008 .L0 
C:\Users\stapi\AppData\Local\Temp\ccXC0MMf.s:587    .text.mem_trim:0000000000000008 .L0 
C:\Users\stapi\AppData\Local\Temp\ccXC0MMf.s:588    .text.mem_trim:0000000000000008 .L0 
C:\Users\stapi\AppData\Local\Temp\ccXC0MMf.s:589    .text.mem_trim:0000000000000008 .L0 
C:\Users\stapi\AppData\Local\Temp\ccXC0MMf.s:591    .text.mem_trim:0000000000000008 .L0 
C:\Users\stapi\AppData\Local\Temp\ccXC0MMf.s:592    .text.mem_trim:0000000000000008 .L0 
C:\Users\stapi\AppData\Local\Temp\ccXC0MMf.s:593    .text.mem_trim:0000000000000008 .L0 
C:\Users\stapi\AppData\Local\Temp\ccXC0MMf.s:594    .text.mem_trim:0000000000000008 .L0 
C:\Users\stapi\AppData\Local\Temp\ccXC0MMf.s:595    .text.mem_trim:0000000000000008 .L0 
C:\Users\stapi\AppData\Local\Temp\ccXC0MMf.s:596    .text.mem_trim:0000000000000008 .L0 
C:\Users\stapi\AppData\Local\Temp\ccXC0MMf.s:598    .text.mem_trim:000000000000000c .L0 
C:\Users\stapi\AppData\Local\Temp\ccXC0MMf.s:600    .text.mem_trim:000000000000000e .L0 
C:\Users\stapi\AppData\Local\Temp\ccXC0MMf.s:602    .text.mem_trim:0000000000000010 .L0 
C:\Users\stapi\AppData\Local\Temp\ccXC0MMf.s:604    .text.mem_trim:0000000000000012 .L0 
C:\Users\stapi\AppData\Local\Temp\ccXC0MMf.s:607    .text.mem_trim:0000000000000016 .L0 
C:\Users\stapi\AppData\Local\Temp\ccXC0MMf.s:608    .text.mem_trim:0000000000000016 .L0 
C:\Users\stapi\AppData\Local\Temp\ccXC0MMf.s:610    .text.mem_trim:000000000000001a .L0 
C:\Users\stapi\AppData\Local\Temp\ccXC0MMf.s:611    .text.mem_trim:000000000000001a .L0 
C:\Users\stapi\AppData\Local\Temp\ccXC0MMf.s:617    .text.mem_trim:0000000000000024 .L0 
C:\Users\stapi\AppData\Local\Temp\ccXC0MMf.s:622    .text.mem_trim:0000000000000028 .L0 
C:\Users\stapi\AppData\Local\Temp\ccXC0MMf.s:626    .text.mem_trim:000000000000002a .L0 
C:\Users\stapi\AppData\Local\Temp\ccXC0MMf.s:628    .text.mem_trim:000000000000002e .L0 
C:\Users\stapi\AppData\Local\Temp\ccXC0MMf.s:629    .text.mem_trim:000000000000002e .L0 
C:\Users\stapi\AppData\Local\Temp\ccXC0MMf.s:634    .text.mem_trim:000000000000003e .L0 
C:\Users\stapi\AppData\Local\Temp\ccXC0MMf.s:639    .text.mem_trim:000000000000004a .L0 
C:\Users\stapi\AppData\Local\Temp\ccXC0MMf.s:640    .text.mem_trim:000000000000004a .L0 
C:\Users\stapi\AppData\Local\Temp\ccXC0MMf.s:652    .text.mem_trim:000000000000006e .L0 
C:\Users\stapi\AppData\Local\Temp\ccXC0MMf.s:653    .text.mem_trim:000000000000006e .L0 
C:\Users\stapi\AppData\Local\Temp\ccXC0MMf.s:654    .text.mem_trim:000000000000006e .L0 
C:\Users\stapi\AppData\Local\Temp\ccXC0MMf.s:658    .text.mem_trim:0000000000000070 .L0 
C:\Users\stapi\AppData\Local\Temp\ccXC0MMf.s:659    .text.mem_trim:0000000000000070 .L0 
C:\Users\stapi\AppData\Local\Temp\ccXC0MMf.s:660    .text.mem_trim:0000000000000070 .L0 
C:\Users\stapi\AppData\Local\Temp\ccXC0MMf.s:661    .text.mem_trim:0000000000000070 .L0 
C:\Users\stapi\AppData\Local\Temp\ccXC0MMf.s:664    .text.mem_trim:0000000000000070 .L0 
C:\Users\stapi\AppData\Local\Temp\ccXC0MMf.s:667    .text.mem_trim:0000000000000070 .L0 
C:\Users\stapi\AppData\Local\Temp\ccXC0MMf.s:668    .text.mem_trim:0000000000000070 .L0 
C:\Users\stapi\AppData\Local\Temp\ccXC0MMf.s:670    .text.mem_trim:0000000000000074 .L0 
C:\Users\stapi\AppData\Local\Temp\ccXC0MMf.s:675    .text.mem_trim:0000000000000078 .L0 
C:\Users\stapi\AppData\Local\Temp\ccXC0MMf.s:680    .text.mem_trim:000000000000007c .L0 
C:\Users\stapi\AppData\Local\Temp\ccXC0MMf.s:684    .text.mem_trim:000000000000007e .L0 
C:\Users\stapi\AppData\Local\Temp\ccXC0MMf.s:689    .text.mem_trim:0000000000000082 .L0 
C:\Users\stapi\AppData\Local\Temp\ccXC0MMf.s:690    .text.mem_trim:0000000000000082 .L0 
C:\Users\stapi\AppData\Local\Temp\ccXC0MMf.s:694    .text.mem_trim:000000000000008a .L0 
C:\Users\stapi\AppData\Local\Temp\ccXC0MMf.s:695    .text.mem_trim:000000000000008a .L0 
C:\Users\stapi\AppData\Local\Temp\ccXC0MMf.s:697    .text.mem_trim:000000000000008e .L0 
C:\Users\stapi\AppData\Local\Temp\ccXC0MMf.s:698    .text.mem_trim:000000000000008e .L0 
C:\Users\stapi\AppData\Local\Temp\ccXC0MMf.s:710    .text.mem_trim:00000000000000b2 .L0 
C:\Users\stapi\AppData\Local\Temp\ccXC0MMf.s:711    .text.mem_trim:00000000000000b2 .L0 
C:\Users\stapi\AppData\Local\Temp\ccXC0MMf.s:712    .text.mem_trim:00000000000000b2 .L0 
C:\Users\stapi\AppData\Local\Temp\ccXC0MMf.s:716    .text.mem_trim:00000000000000b4 .L0 
C:\Users\stapi\AppData\Local\Temp\ccXC0MMf.s:717    .text.mem_trim:00000000000000b4 .L0 
C:\Users\stapi\AppData\Local\Temp\ccXC0MMf.s:718    .text.mem_trim:00000000000000b4 .L0 
C:\Users\stapi\AppData\Local\Temp\ccXC0MMf.s:719    .text.mem_trim:00000000000000b4 .L0 
C:\Users\stapi\AppData\Local\Temp\ccXC0MMf.s:720    .text.mem_trim:00000000000000b4 .L0 
C:\Users\stapi\AppData\Local\Temp\ccXC0MMf.s:722    .text.mem_trim:00000000000000b8 .L0 
C:\Users\stapi\AppData\Local\Temp\ccXC0MMf.s:727    .text.mem_trim:00000000000000c8 .L0 
C:\Users\stapi\AppData\Local\Temp\ccXC0MMf.s:728    .text.mem_trim:00000000000000c8 .L0 
C:\Users\stapi\AppData\Local\Temp\ccXC0MMf.s:733    .text.mem_trim:00000000000000cc .L0 
C:\Users\stapi\AppData\Local\Temp\ccXC0MMf.s:734    .text.mem_trim:00000000000000cc .L0 
C:\Users\stapi\AppData\Local\Temp\ccXC0MMf.s:736    .text.mem_trim:00000000000000d0 .L0 
C:\Users\stapi\AppData\Local\Temp\ccXC0MMf.s:741    .text.mem_trim:00000000000000d4 .L0 
C:\Users\stapi\AppData\Local\Temp\ccXC0MMf.s:742    .text.mem_trim:00000000000000d4 .L0 
C:\Users\stapi\AppData\Local\Temp\ccXC0MMf.s:746    .text.mem_trim:00000000000000da .L0 
C:\Users\stapi\AppData\Local\Temp\ccXC0MMf.s:747    .text.mem_trim:00000000000000da .L0 
C:\Users\stapi\AppData\Local\Temp\ccXC0MMf.s:748    .text.mem_trim:00000000000000da .L0 
C:\Users\stapi\AppData\Local\Temp\ccXC0MMf.s:752    .text.mem_trim:00000000000000e4 .L0 
C:\Users\stapi\AppData\Local\Temp\ccXC0MMf.s:753    .text.mem_trim:00000000000000e4 .L0 
C:\Users\stapi\AppData\Local\Temp\ccXC0MMf.s:765    .text.mem_trim:0000000000000108 .L0 
C:\Users\stapi\AppData\Local\Temp\ccXC0MMf.s:766    .text.mem_trim:0000000000000108 .L0 
C:\Users\stapi\AppData\Local\Temp\ccXC0MMf.s:767    .text.mem_trim:0000000000000108 .L0 
C:\Users\stapi\AppData\Local\Temp\ccXC0MMf.s:771    .text.mem_trim:000000000000010a .L0 
C:\Users\stapi\AppData\Local\Temp\ccXC0MMf.s:772    .text.mem_trim:000000000000010a .L0 
C:\Users\stapi\AppData\Local\Temp\ccXC0MMf.s:773    .text.mem_trim:000000000000010a .L0 
C:\Users\stapi\AppData\Local\Temp\ccXC0MMf.s:774    .text.mem_trim:000000000000010a .L0 
C:\Users\stapi\AppData\Local\Temp\ccXC0MMf.s:777    .text.mem_trim:0000000000000112 .L0 
C:\Users\stapi\AppData\Local\Temp\ccXC0MMf.s:779    .text.mem_trim:0000000000000116 .L0 
C:\Users\stapi\AppData\Local\Temp\ccXC0MMf.s:783    .text.mem_trim:0000000000000120 .L0 
C:\Users\stapi\AppData\Local\Temp\ccXC0MMf.s:786    .text.mem_trim:0000000000000124 .L0 
C:\Users\stapi\AppData\Local\Temp\ccXC0MMf.s:789    .text.mem_trim:0000000000000124 .L0 
C:\Users\stapi\AppData\Local\Temp\ccXC0MMf.s:790    .text.mem_trim:0000000000000124 .L0 
C:\Users\stapi\AppData\Local\Temp\ccXC0MMf.s:794    .text.mem_trim:0000000000000128 .L0 
C:\Users\stapi\AppData\Local\Temp\ccXC0MMf.s:799    .text.mem_trim:000000000000012c .L0 
C:\Users\stapi\AppData\Local\Temp\ccXC0MMf.s:802    .text.mem_trim:000000000000012c .L0 
C:\Users\stapi\AppData\Local\Temp\ccXC0MMf.s:803    .text.mem_trim:000000000000012c .L0 
C:\Users\stapi\AppData\Local\Temp\ccXC0MMf.s:808    .text.mem_trim:000000000000012e .L0 
C:\Users\stapi\AppData\Local\Temp\ccXC0MMf.s:810    .text.mem_trim:000000000000012e .L0 
C:\Users\stapi\AppData\Local\Temp\ccXC0MMf.s:811    .text.mem_trim:000000000000012e .L0 
C:\Users\stapi\AppData\Local\Temp\ccXC0MMf.s:812    .text.mem_trim:000000000000012e .L0 
C:\Users\stapi\AppData\Local\Temp\ccXC0MMf.s:814    .text.mem_trim:0000000000000132 .L0 
C:\Users\stapi\AppData\Local\Temp\ccXC0MMf.s:815    .text.mem_trim:0000000000000132 .L0 
C:\Users\stapi\AppData\Local\Temp\ccXC0MMf.s:817    .text.mem_trim:0000000000000136 .L0 
C:\Users\stapi\AppData\Local\Temp\ccXC0MMf.s:818    .text.mem_trim:0000000000000136 .L0 
C:\Users\stapi\AppData\Local\Temp\ccXC0MMf.s:820    .text.mem_trim:000000000000013a .L0 
C:\Users\stapi\AppData\Local\Temp\ccXC0MMf.s:821    .text.mem_trim:000000000000013a .L0 
C:\Users\stapi\AppData\Local\Temp\ccXC0MMf.s:823    .text.mem_trim:000000000000013e .L0 
C:\Users\stapi\AppData\Local\Temp\ccXC0MMf.s:824    .text.mem_trim:000000000000013e .L0 
C:\Users\stapi\AppData\Local\Temp\ccXC0MMf.s:826    .text.mem_trim:0000000000000142 .L0 
C:\Users\stapi\AppData\Local\Temp\ccXC0MMf.s:829    .text.mem_trim:0000000000000148 .L0 
C:\Users\stapi\AppData\Local\Temp\ccXC0MMf.s:832    .text.mem_trim:000000000000014a .L0 
C:\Users\stapi\AppData\Local\Temp\ccXC0MMf.s:837    .text.mem_trim:000000000000014e .L0 
C:\Users\stapi\AppData\Local\Temp\ccXC0MMf.s:838    .text.mem_trim:000000000000014e .L0 
C:\Users\stapi\AppData\Local\Temp\ccXC0MMf.s:839    .text.mem_trim:000000000000014e .L0 
C:\Users\stapi\AppData\Local\Temp\ccXC0MMf.s:844    .text.mem_trim:000000000000015a .L0 
C:\Users\stapi\AppData\Local\Temp\ccXC0MMf.s:845    .text.mem_trim:000000000000015a .L0 
C:\Users\stapi\AppData\Local\Temp\ccXC0MMf.s:847    .text.mem_trim:0000000000000164 .L0 
C:\Users\stapi\AppData\Local\Temp\ccXC0MMf.s:848    .text.mem_trim:0000000000000164 .L0 
C:\Users\stapi\AppData\Local\Temp\ccXC0MMf.s:849    .text.mem_trim:0000000000000164 .L0 
C:\Users\stapi\AppData\Local\Temp\ccXC0MMf.s:850    .text.mem_trim:0000000000000164 .L0 
C:\Users\stapi\AppData\Local\Temp\ccXC0MMf.s:851    .text.mem_trim:0000000000000164 .L0 
C:\Users\stapi\AppData\Local\Temp\ccXC0MMf.s:852    .text.mem_trim:0000000000000164 .L0 
C:\Users\stapi\AppData\Local\Temp\ccXC0MMf.s:853    .text.mem_trim:0000000000000164 .L0 
C:\Users\stapi\AppData\Local\Temp\ccXC0MMf.s:854    .text.mem_trim:0000000000000164 .L0 
C:\Users\stapi\AppData\Local\Temp\ccXC0MMf.s:855    .text.mem_trim:0000000000000164 .L0 
C:\Users\stapi\AppData\Local\Temp\ccXC0MMf.s:858    .text.mem_trim:0000000000000164 .L0 
C:\Users\stapi\AppData\Local\Temp\ccXC0MMf.s:860    .text.mem_trim:0000000000000164 .L0 
C:\Users\stapi\AppData\Local\Temp\ccXC0MMf.s:861    .text.mem_trim:0000000000000164 .L0 
C:\Users\stapi\AppData\Local\Temp\ccXC0MMf.s:865    .text.mem_trim:0000000000000170 .L0 
C:\Users\stapi\AppData\Local\Temp\ccXC0MMf.s:866    .text.mem_trim:0000000000000170 .L0 
C:\Users\stapi\AppData\Local\Temp\ccXC0MMf.s:869    .text.mem_trim:0000000000000176 .L0 
C:\Users\stapi\AppData\Local\Temp\ccXC0MMf.s:872    .text.mem_trim:000000000000017c .L0 
C:\Users\stapi\AppData\Local\Temp\ccXC0MMf.s:875    .text.mem_trim:0000000000000180 .L0 
C:\Users\stapi\AppData\Local\Temp\ccXC0MMf.s:876    .text.mem_trim:0000000000000180 .L0 
C:\Users\stapi\AppData\Local\Temp\ccXC0MMf.s:878    .text.mem_trim:0000000000000184 .L0 
C:\Users\stapi\AppData\Local\Temp\ccXC0MMf.s:879    .text.mem_trim:0000000000000184 .L0 
C:\Users\stapi\AppData\Local\Temp\ccXC0MMf.s:891    .text.mem_trim:00000000000001a8 .L0 
C:\Users\stapi\AppData\Local\Temp\ccXC0MMf.s:892    .text.mem_trim:00000000000001a8 .L0 
C:\Users\stapi\AppData\Local\Temp\ccXC0MMf.s:893    .text.mem_trim:00000000000001a8 .L0 
C:\Users\stapi\AppData\Local\Temp\ccXC0MMf.s:897    .text.mem_trim:00000000000001aa .L0 
C:\Users\stapi\AppData\Local\Temp\ccXC0MMf.s:898    .text.mem_trim:00000000000001aa .L0 
C:\Users\stapi\AppData\Local\Temp\ccXC0MMf.s:901    .text.mem_trim:00000000000001aa .L0 
C:\Users\stapi\AppData\Local\Temp\ccXC0MMf.s:904    .text.mem_trim:00000000000001aa .L0 
C:\Users\stapi\AppData\Local\Temp\ccXC0MMf.s:905    .text.mem_trim:00000000000001aa .L0 
C:\Users\stapi\AppData\Local\Temp\ccXC0MMf.s:909    .text.mem_trim:00000000000001b2 .L0 
C:\Users\stapi\AppData\Local\Temp\ccXC0MMf.s:913    .text.mem_trim:00000000000001b4 .L0 
C:\Users\stapi\AppData\Local\Temp\ccXC0MMf.s:918    .text.mem_trim:00000000000001b8 .L0 
C:\Users\stapi\AppData\Local\Temp\ccXC0MMf.s:919    .text.mem_trim:00000000000001b8 .L0 
C:\Users\stapi\AppData\Local\Temp\ccXC0MMf.s:921    .text.mem_trim:00000000000001bc .L0 
C:\Users\stapi\AppData\Local\Temp\ccXC0MMf.s:922    .text.mem_trim:00000000000001bc .L0 
C:\Users\stapi\AppData\Local\Temp\ccXC0MMf.s:925    .text.mem_trim:00000000000001be .L0 
C:\Users\stapi\AppData\Local\Temp\ccXC0MMf.s:926    .text.mem_trim:00000000000001be .L0 
C:\Users\stapi\AppData\Local\Temp\ccXC0MMf.s:928    .text.mem_trim:00000000000001c2 .L0 
C:\Users\stapi\AppData\Local\Temp\ccXC0MMf.s:930    .text.mem_trim:00000000000001c6 .L0 
C:\Users\stapi\AppData\Local\Temp\ccXC0MMf.s:931    .text.mem_trim:00000000000001c6 .L0 
C:\Users\stapi\AppData\Local\Temp\ccXC0MMf.s:932    .text.mem_trim:00000000000001c6 .L0 
C:\Users\stapi\AppData\Local\Temp\ccXC0MMf.s:934    .text.mem_trim:00000000000001ca .L0 
C:\Users\stapi\AppData\Local\Temp\ccXC0MMf.s:935    .text.mem_trim:00000000000001ca .L0 
C:\Users\stapi\AppData\Local\Temp\ccXC0MMf.s:937    .text.mem_trim:00000000000001ce .L0 
C:\Users\stapi\AppData\Local\Temp\ccXC0MMf.s:938    .text.mem_trim:00000000000001ce .L0 
C:\Users\stapi\AppData\Local\Temp\ccXC0MMf.s:940    .text.mem_trim:00000000000001d2 .L0 
C:\Users\stapi\AppData\Local\Temp\ccXC0MMf.s:948    .text.mem_trim:00000000000001dc .L0 
C:\Users\stapi\AppData\Local\Temp\ccXC0MMf.s:951    .text.mem_trim:00000000000001dc .L0 
C:\Users\stapi\AppData\Local\Temp\ccXC0MMf.s:952    .text.mem_trim:00000000000001dc .L0 
C:\Users\stapi\AppData\Local\Temp\ccXC0MMf.s:957    .text.mem_trim:00000000000001e4 .L0 
C:\Users\stapi\AppData\Local\Temp\ccXC0MMf.s:974    .text.mem_malloc:0000000000000000 mem_malloc
C:\Users\stapi\AppData\Local\Temp\ccXC0MMf.s:977    .text.mem_malloc:0000000000000000 .L0 
C:\Users\stapi\AppData\Local\Temp\ccXC0MMf.s:979    .text.mem_malloc:0000000000000000 .L0 
C:\Users\stapi\AppData\Local\Temp\ccXC0MMf.s:980    .text.mem_malloc:0000000000000000 .L0 
C:\Users\stapi\AppData\Local\Temp\ccXC0MMf.s:981    .text.mem_malloc:0000000000000000 .L0 
C:\Users\stapi\AppData\Local\Temp\ccXC0MMf.s:982    .text.mem_malloc:0000000000000000 .L0 
C:\Users\stapi\AppData\Local\Temp\ccXC0MMf.s:983    .text.mem_malloc:0000000000000000 .L0 
C:\Users\stapi\AppData\Local\Temp\ccXC0MMf.s:984    .text.mem_malloc:0000000000000000 .L0 
C:\Users\stapi\AppData\Local\Temp\ccXC0MMf.s:986    .text.mem_malloc:0000000000000004 .L0 
C:\Users\stapi\AppData\Local\Temp\ccXC0MMf.s:987    .text.mem_malloc:000000000000000c .L0 
C:\Users\stapi\AppData\Local\Temp\ccXC0MMf.s:988    .text.mem_malloc:000000000000000c .L0 
C:\Users\stapi\AppData\Local\Temp\ccXC0MMf.s:989    .text.mem_malloc:000000000000000c .L0 
C:\Users\stapi\AppData\Local\Temp\ccXC0MMf.s:990    .text.mem_malloc:000000000000000c .L0 
C:\Users\stapi\AppData\Local\Temp\ccXC0MMf.s:991    .text.mem_malloc:000000000000000c .L0 
C:\Users\stapi\AppData\Local\Temp\ccXC0MMf.s:993    .text.mem_malloc:000000000000000c .L0 
C:\Users\stapi\AppData\Local\Temp\ccXC0MMf.s:994    .text.mem_malloc:000000000000000c .L0 
C:\Users\stapi\AppData\Local\Temp\ccXC0MMf.s:996    .text.mem_malloc:0000000000000010 .L0 
C:\Users\stapi\AppData\Local\Temp\ccXC0MMf.s:998    .text.mem_malloc:0000000000000012 .L0 
C:\Users\stapi\AppData\Local\Temp\ccXC0MMf.s:1000   .text.mem_malloc:0000000000000014 .L0 
C:\Users\stapi\AppData\Local\Temp\ccXC0MMf.s:1003   .text.mem_malloc:0000000000000018 .L0 
C:\Users\stapi\AppData\Local\Temp\ccXC0MMf.s:1004   .text.mem_malloc:0000000000000018 .L0 
C:\Users\stapi\AppData\Local\Temp\ccXC0MMf.s:1006   .text.mem_malloc:000000000000001c .L0 
C:\Users\stapi\AppData\Local\Temp\ccXC0MMf.s:1007   .text.mem_malloc:000000000000001c .L0 
C:\Users\stapi\AppData\Local\Temp\ccXC0MMf.s:1013   .text.mem_malloc:0000000000000026 .L0 
C:\Users\stapi\AppData\Local\Temp\ccXC0MMf.s:1016   .text.mem_malloc:0000000000000028 .L0 
C:\Users\stapi\AppData\Local\Temp\ccXC0MMf.s:1017   .text.mem_malloc:0000000000000030 .L0 
C:\Users\stapi\AppData\Local\Temp\ccXC0MMf.s:1018   .text.mem_malloc:0000000000000030 .L0 
C:\Users\stapi\AppData\Local\Temp\ccXC0MMf.s:1019   .text.mem_malloc:0000000000000030 .L0 
C:\Users\stapi\AppData\Local\Temp\ccXC0MMf.s:1020   .text.mem_malloc:0000000000000030 .L0 
C:\Users\stapi\AppData\Local\Temp\ccXC0MMf.s:1021   .text.mem_malloc:0000000000000030 .L0 
C:\Users\stapi\AppData\Local\Temp\ccXC0MMf.s:1022   .text.mem_malloc:0000000000000030 .L0 
C:\Users\stapi\AppData\Local\Temp\ccXC0MMf.s:1025   .text.mem_malloc:0000000000000030 .L0 
C:\Users\stapi\AppData\Local\Temp\ccXC0MMf.s:1027   .text.mem_malloc:0000000000000030 .L0 
C:\Users\stapi\AppData\Local\Temp\ccXC0MMf.s:1031   .text.mem_malloc:0000000000000032 .L0 
C:\Users\stapi\AppData\Local\Temp\ccXC0MMf.s:1033   .text.mem_malloc:0000000000000036 .L0 
C:\Users\stapi\AppData\Local\Temp\ccXC0MMf.s:1039   .text.mem_malloc:0000000000000046 .L0 
C:\Users\stapi\AppData\Local\Temp\ccXC0MMf.s:1040   .text.mem_malloc:0000000000000046 .L0 
C:\Users\stapi\AppData\Local\Temp\ccXC0MMf.s:1041   .text.mem_malloc:0000000000000046 .L0 
C:\Users\stapi\AppData\Local\Temp\ccXC0MMf.s:1045   .text.mem_malloc:000000000000004a .L0 
C:\Users\stapi\AppData\Local\Temp\ccXC0MMf.s:1049   .text.mem_malloc:000000000000004e .L0 
C:\Users\stapi\AppData\Local\Temp\ccXC0MMf.s:1054   .text.mem_malloc:0000000000000052 .L0 
C:\Users\stapi\AppData\Local\Temp\ccXC0MMf.s:1055   .text.mem_malloc:0000000000000052 .L0 
C:\Users\stapi\AppData\Local\Temp\ccXC0MMf.s:1059   .text.mem_malloc:0000000000000056 .L0 
C:\Users\stapi\AppData\Local\Temp\ccXC0MMf.s:1064   .text.mem_malloc:000000000000005c .L0 
C:\Users\stapi\AppData\Local\Temp\ccXC0MMf.s:1070   .text.mem_malloc:0000000000000066 .L0 
C:\Users\stapi\AppData\Local\Temp\ccXC0MMf.s:1072   .text.mem_malloc:000000000000006a .L0 
C:\Users\stapi\AppData\Local\Temp\ccXC0MMf.s:1076   .text.mem_malloc:000000000000006c .L0 
C:\Users\stapi\AppData\Local\Temp\ccXC0MMf.s:1082   .text.mem_malloc:0000000000000070 .L0 
C:\Users\stapi\AppData\Local\Temp\ccXC0MMf.s:1083   .text.mem_malloc:0000000000000070 .L0 
C:\Users\stapi\AppData\Local\Temp\ccXC0MMf.s:1085   .text.mem_malloc:0000000000000074 .L0 
C:\Users\stapi\AppData\Local\Temp\ccXC0MMf.s:1086   .text.mem_malloc:0000000000000074 .L0 
C:\Users\stapi\AppData\Local\Temp\ccXC0MMf.s:1087   .text.mem_malloc:0000000000000074 .L0 
C:\Users\stapi\AppData\Local\Temp\ccXC0MMf.s:1091   .text.mem_malloc:0000000000000080 .L0 
C:\Users\stapi\AppData\Local\Temp\ccXC0MMf.s:1092   .text.mem_malloc:0000000000000080 .L0 
C:\Users\stapi\AppData\Local\Temp\ccXC0MMf.s:1098   .text.mem_malloc:0000000000000082 .L0 
C:\Users\stapi\AppData\Local\Temp\ccXC0MMf.s:1099   .text.mem_malloc:0000000000000082 .L0 
C:\Users\stapi\AppData\Local\Temp\ccXC0MMf.s:1100   .text.mem_malloc:0000000000000082 .L0 
C:\Users\stapi\AppData\Local\Temp\ccXC0MMf.s:1105   .text.mem_malloc:0000000000000086 .L0 
C:\Users\stapi\AppData\Local\Temp\ccXC0MMf.s:1106   .text.mem_malloc:0000000000000086 .L0 
C:\Users\stapi\AppData\Local\Temp\ccXC0MMf.s:1108   .text.mem_malloc:000000000000008a .L0 
C:\Users\stapi\AppData\Local\Temp\ccXC0MMf.s:1110   .text.mem_malloc:000000000000008e .L0 
C:\Users\stapi\AppData\Local\Temp\ccXC0MMf.s:1112   .text.mem_malloc:0000000000000092 .L0 
C:\Users\stapi\AppData\Local\Temp\ccXC0MMf.s:1115   .text.mem_malloc:0000000000000098 .L0 
C:\Users\stapi\AppData\Local\Temp\ccXC0MMf.s:1117   .text.mem_malloc:000000000000009c .L0 
C:\Users\stapi\AppData\Local\Temp\ccXC0MMf.s:1118   .text.mem_malloc:000000000000009c .L0 
C:\Users\stapi\AppData\Local\Temp\ccXC0MMf.s:1121   .text.mem_malloc:00000000000000a4 .L0 
C:\Users\stapi\AppData\Local\Temp\ccXC0MMf.s:1123   .text.mem_malloc:00000000000000a8 .L0 
C:\Users\stapi\AppData\Local\Temp\ccXC0MMf.s:1124   .text.mem_malloc:00000000000000a8 .L0 
C:\Users\stapi\AppData\Local\Temp\ccXC0MMf.s:1129   .text.mem_malloc:00000000000000b2 .L0 
C:\Users\stapi\AppData\Local\Temp\ccXC0MMf.s:1130   .text.mem_malloc:00000000000000b2 .L0 
C:\Users\stapi\AppData\Local\Temp\ccXC0MMf.s:1132   .text.mem_malloc:00000000000000b6 .L0 
C:\Users\stapi\AppData\Local\Temp\ccXC0MMf.s:1133   .text.mem_malloc:00000000000000b6 .L0 
C:\Users\stapi\AppData\Local\Temp\ccXC0MMf.s:1145   .text.mem_malloc:00000000000000da .L0 
C:\Users\stapi\AppData\Local\Temp\ccXC0MMf.s:1146   .text.mem_malloc:00000000000000da .L0 
C:\Users\stapi\AppData\Local\Temp\ccXC0MMf.s:1147   .text.mem_malloc:00000000000000da .L0 
C:\Users\stapi\AppData\Local\Temp\ccXC0MMf.s:1151   .text.mem_malloc:00000000000000dc .L0 
C:\Users\stapi\AppData\Local\Temp\ccXC0MMf.s:1152   .text.mem_malloc:00000000000000dc .L0 
C:\Users\stapi\AppData\Local\Temp\ccXC0MMf.s:1155   .text.mem_malloc:00000000000000dc .L0 
C:\Users\stapi\AppData\Local\Temp\ccXC0MMf.s:1156   .text.mem_malloc:00000000000000dc .L0 
C:\Users\stapi\AppData\Local\Temp\ccXC0MMf.s:1157   .text.mem_malloc:00000000000000dc .L0 
C:\Users\stapi\AppData\Local\Temp\ccXC0MMf.s:1162   .text.mem_malloc:00000000000000e0 .L0 
C:\Users\stapi\AppData\Local\Temp\ccXC0MMf.s:1163   .text.mem_malloc:00000000000000e0 .L0 
C:\Users\stapi\AppData\Local\Temp\ccXC0MMf.s:1165   .text.mem_malloc:00000000000000e4 .L0 
C:\Users\stapi\AppData\Local\Temp\ccXC0MMf.s:1167   .text.mem_malloc:00000000000000e8 .L0 
C:\Users\stapi\AppData\Local\Temp\ccXC0MMf.s:1169   .text.mem_malloc:00000000000000ec .L0 
C:\Users\stapi\AppData\Local\Temp\ccXC0MMf.s:1170   .text.mem_malloc:00000000000000ec .L0 
C:\Users\stapi\AppData\Local\Temp\ccXC0MMf.s:1171   .text.mem_malloc:00000000000000ec .L0 
C:\Users\stapi\AppData\Local\Temp\ccXC0MMf.s:1172   .text.mem_malloc:00000000000000ec .L0 
C:\Users\stapi\AppData\Local\Temp\ccXC0MMf.s:1175   .text.mem_malloc:00000000000000ee .L0 
C:\Users\stapi\AppData\Local\Temp\ccXC0MMf.s:1177   .text.mem_malloc:00000000000000f2 .L0 
C:\Users\stapi\AppData\Local\Temp\ccXC0MMf.s:1178   .text.mem_malloc:00000000000000f2 .L0 
C:\Users\stapi\AppData\Local\Temp\ccXC0MMf.s:1181   .text.mem_malloc:00000000000000f6 .L0 
C:\Users\stapi\AppData\Local\Temp\ccXC0MMf.s:1182   .text.mem_malloc:00000000000000f6 .L0 
C:\Users\stapi\AppData\Local\Temp\ccXC0MMf.s:1184   .text.mem_malloc:00000000000000fa .L0 
C:\Users\stapi\AppData\Local\Temp\ccXC0MMf.s:1189   .text.mem_malloc:00000000000000fe .L0 
C:\Users\stapi\AppData\Local\Temp\ccXC0MMf.s:1192   .text.mem_malloc:00000000000000fe .L0 
C:\Users\stapi\AppData\Local\Temp\ccXC0MMf.s:1193   .text.mem_malloc:00000000000000fe .L0 
C:\Users\stapi\AppData\Local\Temp\ccXC0MMf.s:1198   .text.mem_malloc:0000000000000104 .L0 
C:\Users\stapi\AppData\Local\Temp\ccXC0MMf.s:1199   .text.mem_malloc:0000000000000104 .L0 
C:\Users\stapi\AppData\Local\Temp\ccXC0MMf.s:1202   .text.mem_malloc:000000000000010c .L0 
C:\Users\stapi\AppData\Local\Temp\ccXC0MMf.s:1205   .text.mem_malloc:0000000000000110 .L0 
C:\Users\stapi\AppData\Local\Temp\ccXC0MMf.s:1209   .text.mem_malloc:0000000000000114 .L0 
C:\Users\stapi\AppData\Local\Temp\ccXC0MMf.s:1210   .text.mem_malloc:0000000000000114 .L0 
C:\Users\stapi\AppData\Local\Temp\ccXC0MMf.s:1212   .text.mem_malloc:0000000000000118 .L0 
C:\Users\stapi\AppData\Local\Temp\ccXC0MMf.s:1214   .text.mem_malloc:000000000000011a .L0 
C:\Users\stapi\AppData\Local\Temp\ccXC0MMf.s:1217   .text.mem_malloc:000000000000011e .L0 
C:\Users\stapi\AppData\Local\Temp\ccXC0MMf.s:1218   .text.mem_malloc:000000000000011e .L0 
C:\Users\stapi\AppData\Local\Temp\ccXC0MMf.s:1220   .text.mem_malloc:0000000000000122 .L0 
C:\Users\stapi\AppData\Local\Temp\ccXC0MMf.s:1221   .text.mem_malloc:0000000000000122 .L0 
C:\Users\stapi\AppData\Local\Temp\ccXC0MMf.s:1223   .text.mem_malloc:0000000000000126 .L0 
C:\Users\stapi\AppData\Local\Temp\ccXC0MMf.s:1225   .text.mem_malloc:0000000000000128 .L0 
C:\Users\stapi\AppData\Local\Temp\ccXC0MMf.s:1226   .text.mem_malloc:0000000000000128 .L0 
C:\Users\stapi\AppData\Local\Temp\ccXC0MMf.s:1237   .text.mem_malloc:000000000000014c .L0 
C:\Users\stapi\AppData\Local\Temp\ccXC0MMf.s:1238   .text.mem_malloc:000000000000014c .L0 
C:\Users\stapi\AppData\Local\Temp\ccXC0MMf.s:1239   .text.mem_malloc:000000000000014c .L0 
C:\Users\stapi\AppData\Local\Temp\ccXC0MMf.s:1244   .text.mem_malloc:000000000000014e .L0 
C:\Users\stapi\AppData\Local\Temp\ccXC0MMf.s:1245   .text.mem_malloc:000000000000014e .L0 
C:\Users\stapi\AppData\Local\Temp\ccXC0MMf.s:1255   .text.mem_malloc:0000000000000156 .L0 
C:\Users\stapi\AppData\Local\Temp\ccXC0MMf.s:1256   .text.mem_malloc:0000000000000156 .L0 
C:\Users\stapi\AppData\Local\Temp\ccXC0MMf.s:1257   .text.mem_malloc:0000000000000156 .L0 
C:\Users\stapi\AppData\Local\Temp\ccXC0MMf.s:1260   .text.mem_malloc:000000000000015a .L0 
C:\Users\stapi\AppData\Local\Temp\ccXC0MMf.s:1268   .text.mem_malloc:000000000000015e .L0 
C:\Users\stapi\AppData\Local\Temp\ccXC0MMf.s:1270   .text.mem_malloc:000000000000015e .L0 
C:\Users\stapi\AppData\Local\Temp\ccXC0MMf.s:1271   .text.mem_malloc:000000000000015e .L0 
C:\Users\stapi\AppData\Local\Temp\ccXC0MMf.s:1272   .text.mem_malloc:000000000000015e .L0 
C:\Users\stapi\AppData\Local\Temp\ccXC0MMf.s:1276   .text.mem_malloc:000000000000016a .L0 
C:\Users\stapi\AppData\Local\Temp\ccXC0MMf.s:1277   .text.mem_malloc:000000000000016a .L0 
C:\Users\stapi\AppData\Local\Temp\ccXC0MMf.s:1283   .text.mem_malloc:000000000000017a .L0 
C:\Users\stapi\AppData\Local\Temp\ccXC0MMf.s:1284   .text.mem_malloc:000000000000017a .L0 
C:\Users\stapi\AppData\Local\Temp\ccXC0MMf.s:1295   .text.mem_malloc:000000000000019e .L0 
C:\Users\stapi\AppData\Local\Temp\ccXC0MMf.s:1296   .text.mem_malloc:000000000000019e .L0 
C:\Users\stapi\AppData\Local\Temp\ccXC0MMf.s:1297   .text.mem_malloc:000000000000019e .L0 
C:\Users\stapi\AppData\Local\Temp\ccXC0MMf.s:1300   .text.mem_malloc:00000000000001a0 .L0 
C:\Users\stapi\AppData\Local\Temp\ccXC0MMf.s:1301   .text.mem_malloc:00000000000001a0 .L0 
C:\Users\stapi\AppData\Local\Temp\ccXC0MMf.s:1302   .text.mem_malloc:00000000000001a0 .L0 
C:\Users\stapi\AppData\Local\Temp\ccXC0MMf.s:1303   .text.mem_malloc:00000000000001a0 .L0 
C:\Users\stapi\AppData\Local\Temp\ccXC0MMf.s:1305   .text.mem_malloc:00000000000001a4 .L0 
C:\Users\stapi\AppData\Local\Temp\ccXC0MMf.s:1307   .text.mem_malloc:00000000000001a8 .L0 
C:\Users\stapi\AppData\Local\Temp\ccXC0MMf.s:1309   .text.mem_malloc:00000000000001ac .L0 
C:\Users\stapi\AppData\Local\Temp\ccXC0MMf.s:1310   .text.mem_malloc:00000000000001ac .L0 
C:\Users\stapi\AppData\Local\Temp\ccXC0MMf.s:1321   .text.mem_malloc:00000000000001d0 .L0 
C:\Users\stapi\AppData\Local\Temp\ccXC0MMf.s:1322   .text.mem_malloc:00000000000001d0 .L0 
C:\Users\stapi\AppData\Local\Temp\ccXC0MMf.s:1323   .text.mem_malloc:00000000000001d0 .L0 
C:\Users\stapi\AppData\Local\Temp\ccXC0MMf.s:1331   .text.mem_malloc:00000000000001d6 .L0 
C:\Users\stapi\AppData\Local\Temp\ccXC0MMf.s:1332   .text.mem_malloc:00000000000001d6 .L0 
C:\Users\stapi\AppData\Local\Temp\ccXC0MMf.s:1333   .text.mem_malloc:00000000000001d6 .L0 
C:\Users\stapi\AppData\Local\Temp\ccXC0MMf.s:1334   .text.mem_malloc:00000000000001d6 .L0 
C:\Users\stapi\AppData\Local\Temp\ccXC0MMf.s:1335   .text.mem_malloc:00000000000001d6 .L0 
C:\Users\stapi\AppData\Local\Temp\ccXC0MMf.s:1337   .text.mem_malloc:00000000000001d6 .L0 
C:\Users\stapi\AppData\Local\Temp\ccXC0MMf.s:1340   .text.mem_malloc:00000000000001d8 .L0 
C:\Users\stapi\AppData\Local\Temp\ccXC0MMf.s:1341   .text.mem_malloc:00000000000001da .L0 
C:\Users\stapi\AppData\Local\Temp\ccXC0MMf.s:1348   .text.mem_calloc:0000000000000000 mem_calloc
C:\Users\stapi\AppData\Local\Temp\ccXC0MMf.s:1351   .text.mem_calloc:0000000000000000 .L0 
C:\Users\stapi\AppData\Local\Temp\ccXC0MMf.s:1353   .text.mem_calloc:0000000000000000 .L0 
C:\Users\stapi\AppData\Local\Temp\ccXC0MMf.s:1354   .text.mem_calloc:0000000000000008 .L0 
C:\Users\stapi\AppData\Local\Temp\ccXC0MMf.s:1355   .text.mem_calloc:0000000000000008 .L0 
C:\Users\stapi\AppData\Local\Temp\ccXC0MMf.s:1356   .text.mem_calloc:0000000000000008 .L0 
C:\Users\stapi\AppData\Local\Temp\ccXC0MMf.s:1358   .text.mem_calloc:0000000000000008 .L0 
C:\Users\stapi\AppData\Local\Temp\ccXC0MMf.s:1359   .text.mem_calloc:0000000000000008 .L0 
C:\Users\stapi\AppData\Local\Temp\ccXC0MMf.s:1360   .text.mem_calloc:0000000000000008 .L0 
C:\Users\stapi\AppData\Local\Temp\ccXC0MMf.s:1363   .text.mem_calloc:000000000000000c .L0 
C:\Users\stapi\AppData\Local\Temp\ccXC0MMf.s:1364   .text.mem_calloc:000000000000000c .L0 
C:\Users\stapi\AppData\Local\Temp\ccXC0MMf.s:1365   .text.mem_calloc:000000000000000e .L0 
C:\Users\stapi\AppData\Local\Temp\ccXC0MMf.s:1367   .text.mem_calloc:000000000000000e .L0 
C:\Users\stapi\AppData\Local\Temp\ccXC0MMf.s:1369   .text.mem_calloc:0000000000000010 .L0 
C:\Users\stapi\AppData\Local\Temp\ccXC0MMf.s:1372   .text.mem_calloc:0000000000000018 .L0 
C:\Users\stapi\AppData\Local\Temp\ccXC0MMf.s:1373   .text.mem_calloc:0000000000000018 .L0 
C:\Users\stapi\AppData\Local\Temp\ccXC0MMf.s:1381   .text.mem_calloc:0000000000000026 .L0 
C:\Users\stapi\AppData\Local\Temp\ccXC0MMf.s:1382   .text.mem_calloc:0000000000000026 .L0 
C:\Users\stapi\AppData\Local\Temp\ccXC0MMf.s:1384   .text.mem_calloc:0000000000000028 .L0 
C:\Users\stapi\AppData\Local\Temp\ccXC0MMf.s:1390   .text.mem_calloc:0000000000000034 .L0 
C:\Users\stapi\AppData\Local\Temp\ccXC0MMf.s:1392   .text.mem_calloc:0000000000000038 .L0 
C:\Users\stapi\AppData\Local\Temp\ccXC0MMf.s:1394   .text.mem_calloc:0000000000000040 .L0 
C:\Users\stapi\AppData\Local\Temp\ccXC0MMf.s:1395   .text.mem_calloc:0000000000000040 .L0 
C:\Users\stapi\AppData\Local\Temp\ccXC0MMf.s:1396   .text.mem_calloc:0000000000000040 .L0 
C:\Users\stapi\AppData\Local\Temp\ccXC0MMf.s:1397   .text.mem_calloc:0000000000000040 .L0 
C:\Users\stapi\AppData\Local\Temp\ccXC0MMf.s:1409   .sbss.lfree:0000000000000000 .LANCHOR2
C:\Users\stapi\AppData\Local\Temp\ccXC0MMf.s:1412   .sbss.lfree:0000000000000000 lfree
C:\Users\stapi\AppData\Local\Temp\ccXC0MMf.s:1416   .sbss.mem_mutex:0000000000000000 .LANCHOR3
C:\Users\stapi\AppData\Local\Temp\ccXC0MMf.s:1419   .sbss.mem_mutex:0000000000000000 mem_mutex
C:\Users\stapi\AppData\Local\Temp\ccXC0MMf.s:1423   .sbss.ram:0000000000000000 .LANCHOR0
C:\Users\stapi\AppData\Local\Temp\ccXC0MMf.s:1426   .sbss.ram:0000000000000000 ram
C:\Users\stapi\AppData\Local\Temp\ccXC0MMf.s:1430   .sbss.ram_end:0000000000000000 .LANCHOR1
C:\Users\stapi\AppData\Local\Temp\ccXC0MMf.s:1433   .sbss.ram_end:0000000000000000 ram_end
C:\Users\stapi\AppData\Local\Temp\ccXC0MMf.s:126    .text.mem_init:000000000000008c .L0 
C:\Users\stapi\AppData\Local\Temp\ccXC0MMf.s:562    .text.mem_free:0000000000000214 .L0 
C:\Users\stapi\AppData\Local\Temp\ccXC0MMf.s:960    .text.mem_trim:00000000000001e4 .L0 
C:\Users\stapi\AppData\Local\Temp\ccXC0MMf.s:1344   .text.mem_malloc:00000000000001da .L0 
C:\Users\stapi\AppData\Local\Temp\ccXC0MMf.s:1401   .text.mem_calloc:0000000000000040 .L0 
                     .debug_frame:0000000000000000 .L0 
C:\Users\stapi\AppData\Local\Temp\ccXC0MMf.s:11     .rodata.mem_init.str1.4:0000000000000000 .LC0
C:\Users\stapi\AppData\Local\Temp\ccXC0MMf.s:14     .rodata.mem_init.str1.4:000000000000008c .LC1
C:\Users\stapi\AppData\Local\Temp\ccXC0MMf.s:17     .rodata.mem_init.str1.4:00000000000000a8 .LC2
C:\Users\stapi\AppData\Local\Temp\ccXC0MMf.s:118    .text.mem_init:0000000000000084 .L1
C:\Users\stapi\AppData\Local\Temp\ccXC0MMf.s:113    .text.mem_init:0000000000000082 .L3
C:\Users\stapi\AppData\Local\Temp\ccXC0MMf.s:128    .rodata.mem_free.str1.4:0000000000000000 .LC3
C:\Users\stapi\AppData\Local\Temp\ccXC0MMf.s:131    .rodata.mem_free.str1.4:0000000000000024 .LC4
C:\Users\stapi\AppData\Local\Temp\ccXC0MMf.s:134    .rodata.mem_free.str1.4:0000000000000040 .LC5
C:\Users\stapi\AppData\Local\Temp\ccXC0MMf.s:137    .rodata.mem_free.str1.4:0000000000000068 .LC6
C:\Users\stapi\AppData\Local\Temp\ccXC0MMf.s:140    .rodata.mem_free.str1.4:000000000000009c .LC7
C:\Users\stapi\AppData\Local\Temp\ccXC0MMf.s:143    .rodata.mem_free.str1.4:00000000000000b4 .LC8
C:\Users\stapi\AppData\Local\Temp\ccXC0MMf.s:557    .text.mem_free:0000000000000212 .L35
C:\Users\stapi\AppData\Local\Temp\ccXC0MMf.s:193    .text.mem_free:000000000000003a .L7
C:\Users\stapi\AppData\Local\Temp\ccXC0MMf.s:188    .text.mem_free:0000000000000038 .L8
C:\Users\stapi\AppData\Local\Temp\ccXC0MMf.s:215    .text.mem_free:0000000000000062 .L9
C:\Users\stapi\AppData\Local\Temp\ccXC0MMf.s:234    .text.mem_free:0000000000000088 .L10
C:\Users\stapi\AppData\Local\Temp\ccXC0MMf.s:229    .text.mem_free:0000000000000086 .L11
C:\Users\stapi\AppData\Local\Temp\ccXC0MMf.s:262    .text.mem_free:00000000000000c4 .L12
C:\Users\stapi\AppData\Local\Temp\ccXC0MMf.s:257    .text.mem_free:00000000000000c2 .L13
C:\Users\stapi\AppData\Local\Temp\ccXC0MMf.s:330    .text.mem_free:0000000000000106 .L14
C:\Users\stapi\AppData\Local\Temp\ccXC0MMf.s:315    .text.mem_free:00000000000000f4 .L15
C:\Users\stapi\AppData\Local\Temp\ccXC0MMf.s:354    .text.mem_free:000000000000012c .L16
C:\Users\stapi\AppData\Local\Temp\ccXC0MMf.s:348    .text.mem_free:000000000000012a .L17
C:\Users\stapi\AppData\Local\Temp\ccXC0MMf.s:369    .text.mem_free:0000000000000142 .L18
C:\Users\stapi\AppData\Local\Temp\ccXC0MMf.s:397    .text.mem_free:000000000000016c .L19
C:\Users\stapi\AppData\Local\Temp\ccXC0MMf.s:391    .text.mem_free:000000000000016a .L20
C:\Users\stapi\AppData\Local\Temp\ccXC0MMf.s:420    .text.mem_free:0000000000000196 .L21
C:\Users\stapi\AppData\Local\Temp\ccXC0MMf.s:414    .text.mem_free:0000000000000194 .L22
C:\Users\stapi\AppData\Local\Temp\ccXC0MMf.s:482    .text.mem_free:00000000000001c8 .L24
C:\Users\stapi\AppData\Local\Temp\ccXC0MMf.s:452    .text.mem_free:00000000000001ac .L26
C:\Users\stapi\AppData\Local\Temp\ccXC0MMf.s:538    .text.mem_free:00000000000001fe .L28
C:\Users\stapi\AppData\Local\Temp\ccXC0MMf.s:508    .text.mem_free:00000000000001e2 .L30
C:\Users\stapi\AppData\Local\Temp\ccXC0MMf.s:564    .rodata.mem_trim.str1.4:0000000000000000 .LC9
C:\Users\stapi\AppData\Local\Temp\ccXC0MMf.s:567    .rodata.mem_trim.str1.4:0000000000000018 .LC10
C:\Users\stapi\AppData\Local\Temp\ccXC0MMf.s:570    .rodata.mem_trim.str1.4:0000000000000038 .LC11
C:\Users\stapi\AppData\Local\Temp\ccXC0MMf.s:620    .text.mem_trim:0000000000000028 .L56
C:\Users\stapi\AppData\Local\Temp\ccXC0MMf.s:624    .text.mem_trim:000000000000002a .L39
C:\Users\stapi\AppData\Local\Temp\ccXC0MMf.s:843    .text.mem_trim:000000000000015a .L40
C:\Users\stapi\AppData\Local\Temp\ccXC0MMf.s:615    .text.mem_trim:0000000000000024 .L58
C:\Users\stapi\AppData\Local\Temp\ccXC0MMf.s:637    .text.mem_trim:000000000000004a .L41
C:\Users\stapi\AppData\Local\Temp\ccXC0MMf.s:656    .text.mem_trim:0000000000000070 .L42
C:\Users\stapi\AppData\Local\Temp\ccXC0MMf.s:650    .text.mem_trim:000000000000006e .L43
C:\Users\stapi\AppData\Local\Temp\ccXC0MMf.s:714    .text.mem_trim:00000000000000b4 .L44
C:\Users\stapi\AppData\Local\Temp\ccXC0MMf.s:708    .text.mem_trim:00000000000000b2 .L45
C:\Users\stapi\AppData\Local\Temp\ccXC0MMf.s:857    .text.mem_trim:0000000000000164 .L46
C:\Users\stapi\AppData\Local\Temp\ccXC0MMf.s:769    .text.mem_trim:000000000000010a .L47
C:\Users\stapi\AppData\Local\Temp\ccXC0MMf.s:763    .text.mem_trim:0000000000000108 .L48
C:\Users\stapi\AppData\Local\Temp\ccXC0MMf.s:804    .text.mem_trim:000000000000012e .L49
C:\Users\stapi\AppData\Local\Temp\ccXC0MMf.s:954    .text.mem_trim:00000000000001de .L60
C:\Users\stapi\AppData\Local\Temp\ccXC0MMf.s:834    .text.mem_trim:000000000000014e .L51
C:\Users\stapi\AppData\Local\Temp\ccXC0MMf.s:895    .text.mem_trim:00000000000001aa .L53
C:\Users\stapi\AppData\Local\Temp\ccXC0MMf.s:889    .text.mem_trim:00000000000001a8 .L54
C:\Users\stapi\AppData\Local\Temp\ccXC0MMf.s:923    .text.mem_trim:00000000000001be .L55
C:\Users\stapi\AppData\Local\Temp\ccXC0MMf.s:962    .rodata.mem_malloc.str1.4:0000000000000000 .LC12
C:\Users\stapi\AppData\Local\Temp\ccXC0MMf.s:965    .rodata.mem_malloc.str1.4:000000000000001c .LC13
C:\Users\stapi\AppData\Local\Temp\ccXC0MMf.s:968    .rodata.mem_malloc.str1.4:000000000000004c .LC14
C:\Users\stapi\AppData\Local\Temp\ccXC0MMf.s:1330   .text.mem_malloc:00000000000001d6 .L79
C:\Users\stapi\AppData\Local\Temp\ccXC0MMf.s:1024   .text.mem_malloc:0000000000000030 .L80
C:\Users\stapi\AppData\Local\Temp\ccXC0MMf.s:1029   .text.mem_malloc:0000000000000032 .L63
C:\Users\stapi\AppData\Local\Temp\ccXC0MMf.s:1011   .text.mem_malloc:0000000000000026 .L82
C:\Users\stapi\AppData\Local\Temp\ccXC0MMf.s:1094   .text.mem_malloc:0000000000000082 .L78
C:\Users\stapi\AppData\Local\Temp\ccXC0MMf.s:1325   .text.mem_malloc:00000000000001d2 .L84
C:\Users\stapi\AppData\Local\Temp\ccXC0MMf.s:1241   .text.mem_malloc:000000000000014e .L65
C:\Users\stapi\AppData\Local\Temp\ccXC0MMf.s:1149   .text.mem_malloc:00000000000000dc .L66
C:\Users\stapi\AppData\Local\Temp\ccXC0MMf.s:1143   .text.mem_malloc:00000000000000da .L67
C:\Users\stapi\AppData\Local\Temp\ccXC0MMf.s:1196   .text.mem_malloc:0000000000000104 .L68
C:\Users\stapi\AppData\Local\Temp\ccXC0MMf.s:1264   .text.mem_malloc:000000000000015e .L69
C:\Users\stapi\AppData\Local\Temp\ccXC0MMf.s:1215   .text.mem_malloc:000000000000011e .L71
C:\Users\stapi\AppData\Local\Temp\ccXC0MMf.s:1250   .text.mem_malloc:0000000000000156 .L72
C:\Users\stapi\AppData\Local\Temp\ccXC0MMf.s:1235   .text.mem_malloc:000000000000014c .L73
C:\Users\stapi\AppData\Local\Temp\ccXC0MMf.s:1206   .text.mem_malloc:0000000000000114 .L70
C:\Users\stapi\AppData\Local\Temp\ccXC0MMf.s:1298   .text.mem_malloc:00000000000001a0 .L74
C:\Users\stapi\AppData\Local\Temp\ccXC0MMf.s:1293   .text.mem_malloc:000000000000019e .L75
C:\Users\stapi\AppData\Local\Temp\ccXC0MMf.s:1014   .text.mem_malloc:0000000000000028 .L61
C:\Users\stapi\AppData\Local\Temp\ccXC0MMf.s:1319   .text.mem_malloc:00000000000001d0 .L77
C:\Users\stapi\AppData\Local\Temp\ccXC0MMf.s:1078   .text.mem_malloc:0000000000000070 .L92
C:\Users\stapi\AppData\Local\Temp\ccXC0MMf.s:1388   .text.mem_calloc:0000000000000034 .L97
C:\Users\stapi\AppData\Local\Temp\ccXC0MMf.s:2931   .debug_abbrev:0000000000000000 .Ldebug_abbrev0
C:\Users\stapi\AppData\Local\Temp\ccXC0MMf.s:4445   .debug_str:0000000000000229 .LASF88
C:\Users\stapi\AppData\Local\Temp\ccXC0MMf.s:4467   .debug_str:000000000000039c .LASF89
C:\Users\stapi\AppData\Local\Temp\ccXC0MMf.s:4401   .debug_str:00000000000000ba .LASF90
C:\Users\stapi\AppData\Local\Temp\ccXC0MMf.s:4281   .debug_ranges:0000000000000000 .Ldebug_ranges0
C:\Users\stapi\AppData\Local\Temp\ccXC0MMf.s:4365   .debug_line:0000000000000000 .Ldebug_line0
C:\Users\stapi\AppData\Local\Temp\ccXC0MMf.s:4405   .debug_str:0000000000000151 .LASF0
C:\Users\stapi\AppData\Local\Temp\ccXC0MMf.s:4385   .debug_str:000000000000005a .LASF3
C:\Users\stapi\AppData\Local\Temp\ccXC0MMf.s:4481   .debug_str:000000000000045d .LASF1
C:\Users\stapi\AppData\Local\Temp\ccXC0MMf.s:4489   .debug_str:0000000000000481 .LASF2
C:\Users\stapi\AppData\Local\Temp\ccXC0MMf.s:4517   .debug_str:0000000000000507 .LASF4
C:\Users\stapi\AppData\Local\Temp\ccXC0MMf.s:4455   .debug_str:0000000000000352 .LASF5
C:\Users\stapi\AppData\Local\Temp\ccXC0MMf.s:4415   .debug_str:000000000000017f .LASF6
C:\Users\stapi\AppData\Local\Temp\ccXC0MMf.s:4447   .debug_str:0000000000000322 .LASF7
C:\Users\stapi\AppData\Local\Temp\ccXC0MMf.s:4403   .debug_str:0000000000000143 .LASF8
C:\Users\stapi\AppData\Local\Temp\ccXC0MMf.s:4393   .debug_str:0000000000000086 .LASF9
C:\Users\stapi\AppData\Local\Temp\ccXC0MMf.s:4493   .debug_str:0000000000000491 .LASF10
C:\Users\stapi\AppData\Local\Temp\ccXC0MMf.s:4441   .debug_str:000000000000020c .LASF11
C:\Users\stapi\AppData\Local\Temp\ccXC0MMf.s:4547   .debug_str:00000000000005a2 .LASF12
C:\Users\stapi\AppData\Local\Temp\ccXC0MMf.s:4421   .debug_str:000000000000019c .LASF13
C:\Users\stapi\AppData\Local\Temp\ccXC0MMf.s:4381   .debug_str:0000000000000045 .LASF14
C:\Users\stapi\AppData\Local\Temp\ccXC0MMf.s:4379   .debug_str:000000000000003e .LASF15
C:\Users\stapi\AppData\Local\Temp\ccXC0MMf.s:4511   .debug_str:00000000000004ee .LASF16
C:\Users\stapi\AppData\Local\Temp\ccXC0MMf.s:4463   .debug_str:000000000000038c .LASF17
C:\Users\stapi\AppData\Local\Temp\ccXC0MMf.s:4537   .debug_str:0000000000000575 .LASF18
C:\Users\stapi\AppData\Local\Temp\ccXC0MMf.s:4539   .debug_str:000000000000057b .LASF19
C:\Users\stapi\AppData\Local\Temp\ccXC0MMf.s:4541   .debug_str:0000000000000585 .LASF20
C:\Users\stapi\AppData\Local\Temp\ccXC0MMf.s:4425   .debug_str:00000000000001b4 .LASF21
C:\Users\stapi\AppData\Local\Temp\ccXC0MMf.s:4519   .debug_str:0000000000000512 .LASF22
C:\Users\stapi\AppData\Local\Temp\ccXC0MMf.s:4513   .debug_str:00000000000004f3 .LASF23
C:\Users\stapi\AppData\Local\Temp\ccXC0MMf.s:4413   .debug_str:0000000000000173 .LASF24
C:\Users\stapi\AppData\Local\Temp\ccXC0MMf.s:4533   .debug_str:0000000000000562 .LASF25
C:\Users\stapi\AppData\Local\Temp\ccXC0MMf.s:4475   .debug_str:0000000000000441 .LASF26
C:\Users\stapi\AppData\Local\Temp\ccXC0MMf.s:4479   .debug_str:0000000000000455 .LASF27
C:\Users\stapi\AppData\Local\Temp\ccXC0MMf.s:4549   .debug_str:00000000000005aa .LASF28
C:\Users\stapi\AppData\Local\Temp\ccXC0MMf.s:4407   .debug_str:000000000000015d .LASF29
C:\Users\stapi\AppData\Local\Temp\ccXC0MMf.s:4449   .debug_str:0000000000000334 .LASF30
C:\Users\stapi\AppData\Local\Temp\ccXC0MMf.s:4545   .debug_str:0000000000000597 .LASF31
C:\Users\stapi\AppData\Local\Temp\ccXC0MMf.s:4485   .debug_str:0000000000000473 .LASF32
C:\Users\stapi\AppData\Local\Temp\ccXC0MMf.s:4419   .debug_str:0000000000000195 .LASF33
C:\Users\stapi\AppData\Local\Temp\ccXC0MMf.s:4509   .debug_str:00000000000004e5 .LASF34
C:\Users\stapi\AppData\Local\Temp\ccXC0MMf.s:4503   .debug_str:00000000000004cb .LASF35
C:\Users\stapi\AppData\Local\Temp\ccXC0MMf.s:4531   .debug_str:0000000000000559 .LASF36
C:\Users\stapi\AppData\Local\Temp\ccXC0MMf.s:4483   .debug_str:000000000000046b .LASF37
C:\Users\stapi\AppData\Local\Temp\ccXC0MMf.s:4459   .debug_str:0000000000000378 .LASF38
C:\Users\stapi\AppData\Local\Temp\ccXC0MMf.s:4389   .debug_str:0000000000000069 .LASF39
C:\Users\stapi\AppData\Local\Temp\ccXC0MMf.s:4417   .debug_str:0000000000000188 .LASF40
C:\Users\stapi\AppData\Local\Temp\ccXC0MMf.s:4373   .debug_str:000000000000001b .LASF41
C:\Users\stapi\AppData\Local\Temp\ccXC0MMf.s:4451   .debug_str:0000000000000340 .LASF42
C:\Users\stapi\AppData\Local\Temp\ccXC0MMf.s:4431   .debug_str:00000000000001c8 .LASF43
C:\Users\stapi\AppData\Local\Temp\ccXC0MMf.s:4397   .debug_str:00000000000000a8 .LASF44
C:\Users\stapi\AppData\Local\Temp\ccXC0MMf.s:4523   .debug_str:0000000000000527 .LASF45
C:\Users\stapi\AppData\Local\Temp\ccXC0MMf.s:4439   .debug_str:00000000000001fd .LASF46
C:\Users\stapi\AppData\Local\Temp\ccXC0MMf.s:4499   .debug_str:00000000000004b1 .LASF47
C:\Users\stapi\AppData\Local\Temp\ccXC0MMf.s:4515   .debug_str:00000000000004fb .LASF48
C:\Users\stapi\AppData\Local\Temp\ccXC0MMf.s:4521   .debug_str:000000000000051a .LASF49
C:\Users\stapi\AppData\Local\Temp\ccXC0MMf.s:4457   .debug_str:0000000000000365 .LASF50
C:\Users\stapi\AppData\Local\Temp\ccXC0MMf.s:4555   .debug_str:00000000000005cb .LASF51
C:\Users\stapi\AppData\Local\Temp\ccXC0MMf.s:4443   .debug_str:0000000000000219 .LASF52
C:\Users\stapi\AppData\Local\Temp\ccXC0MMf.s:4375   .debug_str:0000000000000028 .LASF53
C:\Users\stapi\AppData\Local\Temp\ccXC0MMf.s:4383   .debug_str:000000000000004f .LASF54
C:\Users\stapi\AppData\Local\Temp\ccXC0MMf.s:4553   .debug_str:00000000000005c1 .LASF55
C:\Users\stapi\AppData\Local\Temp\ccXC0MMf.s:4525   .debug_str:0000000000000536 .LASF56
C:\Users\stapi\AppData\Local\Temp\ccXC0MMf.s:4461   .debug_str:0000000000000383 .LASF57
C:\Users\stapi\AppData\Local\Temp\ccXC0MMf.s:4399   .debug_str:00000000000000b5 .LASF58
C:\Users\stapi\AppData\Local\Temp\ccXC0MMf.s:4387   .debug_str:0000000000000064 .LASF59
C:\Users\stapi\AppData\Local\Temp\ccXC0MMf.s:4473   .debug_str:000000000000043c .LASF60
C:\Users\stapi\AppData\Local\Temp\ccXC0MMf.s:4527   .debug_str:0000000000000545 .LASF91
C:\Users\stapi\AppData\Local\Temp\ccXC0MMf.s:4427   .debug_str:00000000000001bb .LASF61
C:\Users\stapi\AppData\Local\Temp\ccXC0MMf.s:4435   .debug_str:00000000000001eb .LASF62
C:\Users\stapi\AppData\Local\Temp\ccXC0MMf.s:4491   .debug_str:000000000000048b .LASF63
C:\Users\stapi\AppData\Local\Temp\ccXC0MMf.s:4501   .debug_str:00000000000004c0 .LASF67
C:\Users\stapi\AppData\Local\Temp\ccXC0MMf.s:1349   .text.mem_calloc:0000000000000000 .LFB12
C:\Users\stapi\AppData\Local\Temp\ccXC0MMf.s:1398   .text.mem_calloc:0000000000000040 .LFE12
C:\Users\stapi\AppData\Local\Temp\ccXC0MMf.s:4369   .debug_str:0000000000000007 .LASF64
C:\Users\stapi\AppData\Local\Temp\ccXC0MMf.s:3508   .debug_loc:0000000000000000 .LLST34
C:\Users\stapi\AppData\Local\Temp\ccXC0MMf.s:4453   .debug_str:000000000000034d .LASF65
C:\Users\stapi\AppData\Local\Temp\ccXC0MMf.s:3522   .debug_loc:0000000000000021 .LLST35
C:\Users\stapi\AppData\Local\Temp\ccXC0MMf.s:3536   .debug_loc:0000000000000042 .LLST36
C:\Users\stapi\AppData\Local\Temp\ccXC0MMf.s:4529   .debug_str:000000000000054e .LASF66
C:\Users\stapi\AppData\Local\Temp\ccXC0MMf.s:3543   .debug_loc:0000000000000055 .LLST37
C:\Users\stapi\AppData\Local\Temp\ccXC0MMf.s:1377   .text.mem_calloc:0000000000000024 .LVL109
C:\Users\stapi\AppData\Local\Temp\ccXC0MMf.s:1387   .text.mem_calloc:0000000000000034 .LVL111
C:\Users\stapi\AppData\Local\Temp\ccXC0MMf.s:4535   .debug_str:000000000000056a .LASF68
C:\Users\stapi\AppData\Local\Temp\ccXC0MMf.s:975    .text.mem_malloc:0000000000000000 .LFB11
C:\Users\stapi\AppData\Local\Temp\ccXC0MMf.s:1342   .text.mem_malloc:00000000000001da .LFE11
C:\Users\stapi\AppData\Local\Temp\ccXC0MMf.s:4437   .debug_str:00000000000001f5 .LASF69
C:\Users\stapi\AppData\Local\Temp\ccXC0MMf.s:3555   .debug_loc:0000000000000074 .LLST23
C:\Users\stapi\AppData\Local\Temp\ccXC0MMf.s:3591   .debug_loc:00000000000000c7 .LLST24
C:\Users\stapi\AppData\Local\Temp\ccXC0MMf.s:4429   .debug_str:00000000000001c3 .LASF70
C:\Users\stapi\AppData\Local\Temp\ccXC0MMf.s:3619   .debug_loc:0000000000000112 .LLST25
C:\Users\stapi\AppData\Local\Temp\ccXC0MMf.s:3641   .debug_loc:0000000000000142 .LLST26
C:\Users\stapi\AppData\Local\Temp\ccXC0MMf.s:3652   .debug_loc:0000000000000160 .LLST27
C:\Users\stapi\AppData\Local\Temp\ccXC0MMf.s:4487   .debug_str:000000000000047c .LASF71
C:\Users\stapi\AppData\Local\Temp\ccXC0MMf.s:3659   .debug_loc:0000000000000173 .LLST28
C:\Users\stapi\AppData\Local\Temp\ccXC0MMf.s:3666   .debug_loc:0000000000000186 .LLST32
C:\Users\stapi\AppData\Local\Temp\ccXC0MMf.s:1253   .text.mem_malloc:0000000000000156 .LBB137
C:\Users\stapi\AppData\Local\Temp\ccXC0MMf.s:1266   .text.mem_malloc:000000000000015e .LBE137
C:\Users\stapi\AppData\Local\Temp\ccXC0MMf.s:3681   .debug_loc:00000000000001af .LLST33
C:\Users\stapi\AppData\Local\Temp\ccXC0MMf.s:1234   .text.mem_malloc:000000000000014c .LVL92
C:\Users\stapi\AppData\Local\Temp\ccXC0MMf.s:1042   .text.mem_malloc:000000000000004a .LBB122
C:\Users\stapi\AppData\Local\Temp\ccXC0MMf.s:3693   .debug_loc:00000000000001ce .LLST29
C:\Users\stapi\AppData\Local\Temp\ccXC0MMf.s:1096   .text.mem_malloc:0000000000000082 .LBB130
C:\Users\stapi\AppData\Local\Temp\ccXC0MMf.s:1103   .text.mem_malloc:0000000000000086 .LBE130
C:\Users\stapi\AppData\Local\Temp\ccXC0MMf.s:3700   .debug_loc:00000000000001e1 .LLST30
C:\Users\stapi\AppData\Local\Temp\ccXC0MMf.s:1153   .text.mem_malloc:00000000000000dc .LBB132
C:\Users\stapi\AppData\Local\Temp\ccXC0MMf.s:1160   .text.mem_malloc:00000000000000e0 .LBE132
C:\Users\stapi\AppData\Local\Temp\ccXC0MMf.s:3707   .debug_loc:00000000000001f4 .LLST31
C:\Users\stapi\AppData\Local\Temp\ccXC0MMf.s:1187   .text.mem_malloc:00000000000000fe .LBB134
C:\Users\stapi\AppData\Local\Temp\ccXC0MMf.s:1191   .text.mem_malloc:00000000000000fe .LBE134
C:\Users\stapi\AppData\Local\Temp\ccXC0MMf.s:1037   .text.mem_malloc:0000000000000046 .LVL76
C:\Users\stapi\AppData\Local\Temp\ccXC0MMf.s:1089   .text.mem_malloc:0000000000000080 .LVL79
C:\Users\stapi\AppData\Local\Temp\ccXC0MMf.s:1142   .text.mem_malloc:00000000000000da .LVL84
C:\Users\stapi\AppData\Local\Temp\ccXC0MMf.s:1274   .text.mem_malloc:000000000000016a .LVL99
C:\Users\stapi\AppData\Local\Temp\ccXC0MMf.s:1292   .text.mem_malloc:000000000000019e .LVL100
C:\Users\stapi\AppData\Local\Temp\ccXC0MMf.s:1318   .text.mem_malloc:00000000000001d0 .LVL101
C:\Users\stapi\AppData\Local\Temp\ccXC0MMf.s:4507   .debug_str:00000000000004dc .LASF72
C:\Users\stapi\AppData\Local\Temp\ccXC0MMf.s:577    .text.mem_trim:0000000000000000 .LFB10
C:\Users\stapi\AppData\Local\Temp\ccXC0MMf.s:958    .text.mem_trim:00000000000001e4 .LFE10
C:\Users\stapi\AppData\Local\Temp\ccXC0MMf.s:4377   .debug_str:0000000000000039 .LASF73
C:\Users\stapi\AppData\Local\Temp\ccXC0MMf.s:3714   .debug_loc:0000000000000207 .LLST11
C:\Users\stapi\AppData\Local\Temp\ccXC0MMf.s:4471   .debug_str:0000000000000433 .LASF74
C:\Users\stapi\AppData\Local\Temp\ccXC0MMf.s:3736   .debug_loc:000000000000023e .LLST12
C:\Users\stapi\AppData\Local\Temp\ccXC0MMf.s:3772   .debug_loc:0000000000000291 .LLST13
C:\Users\stapi\AppData\Local\Temp\ccXC0MMf.s:4551   .debug_str:00000000000005b9 .LASF75
C:\Users\stapi\AppData\Local\Temp\ccXC0MMf.s:3783   .debug_loc:00000000000002af .LLST14
C:\Users\stapi\AppData\Local\Temp\ccXC0MMf.s:3794   .debug_loc:00000000000002cd .LLST15
C:\Users\stapi\AppData\Local\Temp\ccXC0MMf.s:3805   .debug_loc:00000000000002eb .LLST16
C:\Users\stapi\AppData\Local\Temp\ccXC0MMf.s:3816   .debug_loc:0000000000000309 .LLST17
C:\Users\stapi\AppData\Local\Temp\ccXC0MMf.s:3841   .debug_loc:0000000000000343 .LLST18
C:\Users\stapi\AppData\Local\Temp\ccXC0MMf.s:3935   .debug_loc:00000000000003fa .LLST21
C:\Users\stapi\AppData\Local\Temp\ccXC0MMf.s:787    .text.mem_trim:0000000000000124 .LBB111
C:\Users\stapi\AppData\Local\Temp\ccXC0MMf.s:762    .text.mem_trim:0000000000000108 .LVL52
C:\Users\stapi\AppData\Local\Temp\ccXC0MMf.s:662    .text.mem_trim:0000000000000070 .LBB102
C:\Users\stapi\AppData\Local\Temp\ccXC0MMf.s:3942   .debug_loc:000000000000040d .LLST19
C:\Users\stapi\AppData\Local\Temp\ccXC0MMf.s:730    .text.mem_trim:00000000000000cc .LBB108
C:\Users\stapi\AppData\Local\Temp\ccXC0MMf.s:739    .text.mem_trim:00000000000000d4 .LBE108
C:\Users\stapi\AppData\Local\Temp\ccXC0MMf.s:3961   .debug_loc:000000000000043a .LLST20
C:\Users\stapi\AppData\Local\Temp\ccXC0MMf.s:899    .text.mem_trim:00000000000001aa .LBB116
C:\Users\stapi\AppData\Local\Temp\ccXC0MMf.s:3968   .debug_loc:000000000000044d .LLST22
C:\Users\stapi\AppData\Local\Temp\ccXC0MMf.s:946    .text.mem_trim:00000000000001dc .LBB120
C:\Users\stapi\AppData\Local\Temp\ccXC0MMf.s:950    .text.mem_trim:00000000000001dc .LBE120
C:\Users\stapi\AppData\Local\Temp\ccXC0MMf.s:649    .text.mem_trim:000000000000006e .LVL39
C:\Users\stapi\AppData\Local\Temp\ccXC0MMf.s:707    .text.mem_trim:00000000000000b2 .LVL46
C:\Users\stapi\AppData\Local\Temp\ccXC0MMf.s:725    .text.mem_trim:00000000000000c8 .LVL48
C:\Users\stapi\AppData\Local\Temp\ccXC0MMf.s:841    .text.mem_trim:000000000000015a .LVL59
C:\Users\stapi\AppData\Local\Temp\ccXC0MMf.s:888    .text.mem_trim:00000000000001a8 .LVL63
C:\Users\stapi\AppData\Local\Temp\ccXC0MMf.s:4505   .debug_str:00000000000004d3 .LASF79
C:\Users\stapi\AppData\Local\Temp\ccXC0MMf.s:150    .text.mem_free:0000000000000000 .LFB9
C:\Users\stapi\AppData\Local\Temp\ccXC0MMf.s:560    .text.mem_free:0000000000000214 .LFE9
C:\Users\stapi\AppData\Local\Temp\ccXC0MMf.s:3975   .debug_loc:0000000000000460 .LLST1
C:\Users\stapi\AppData\Local\Temp\ccXC0MMf.s:3990   .debug_loc:0000000000000489 .LLST2
C:\Users\stapi\AppData\Local\Temp\ccXC0MMf.s:265    .text.mem_free:00000000000000c4 .LBB76
C:\Users\stapi\AppData\Local\Temp\ccXC0MMf.s:334    .text.mem_free:0000000000000106 .LBE76
C:\Users\stapi\AppData\Local\Temp\ccXC0MMf.s:3997   .debug_loc:000000000000049c .LLST3
C:\Users\stapi\AppData\Local\Temp\ccXC0MMf.s:4004   .debug_loc:00000000000004af .LLST4
C:\Users\stapi\AppData\Local\Temp\ccXC0MMf.s:4077   .debug_loc:000000000000052b .LLST5
C:\Users\stapi\AppData\Local\Temp\ccXC0MMf.s:4137   .debug_loc:000000000000058f .LLST6
C:\Users\stapi\AppData\Local\Temp\ccXC0MMf.s:270    .text.mem_free:00000000000000c4 .LBB78
C:\Users\stapi\AppData\Local\Temp\ccXC0MMf.s:279    .text.mem_free:00000000000000c8 .LBB81
C:\Users\stapi\AppData\Local\Temp\ccXC0MMf.s:285    .text.mem_free:00000000000000c8 .LBB84
C:\Users\stapi\AppData\Local\Temp\ccXC0MMf.s:289    .text.mem_free:00000000000000c8 .LBE84
C:\Users\stapi\AppData\Local\Temp\ccXC0MMf.s:373    .text.mem_free:0000000000000142 .LBB88
C:\Users\stapi\AppData\Local\Temp\ccXC0MMf.s:4187   .debug_loc:00000000000005ef .LLST7
C:\Users\stapi\AppData\Local\Temp\ccXC0MMf.s:4194   .debug_loc:0000000000000602 .LLST8
C:\Users\stapi\AppData\Local\Temp\ccXC0MMf.s:4211   .debug_loc:0000000000000620 .LLST9
C:\Users\stapi\AppData\Local\Temp\ccXC0MMf.s:468    .text.mem_free:00000000000001c2 .LBB90
C:\Users\stapi\AppData\Local\Temp\ccXC0MMf.s:472    .text.mem_free:00000000000001c2 .LBE90
C:\Users\stapi\AppData\Local\Temp\ccXC0MMf.s:487    .text.mem_free:00000000000001cc .LBB92
C:\Users\stapi\AppData\Local\Temp\ccXC0MMf.s:494    .text.mem_free:00000000000001d0 .LBE92
C:\Users\stapi\AppData\Local\Temp\ccXC0MMf.s:4237   .debug_loc:0000000000000657 .LLST10
C:\Users\stapi\AppData\Local\Temp\ccXC0MMf.s:524    .text.mem_free:00000000000001f8 .LBB94
C:\Users\stapi\AppData\Local\Temp\ccXC0MMf.s:528    .text.mem_free:00000000000001f8 .LBE94
C:\Users\stapi\AppData\Local\Temp\ccXC0MMf.s:390    .text.mem_free:000000000000016a .LVL18
C:\Users\stapi\AppData\Local\Temp\ccXC0MMf.s:413    .text.mem_free:0000000000000194 .LVL20
C:\Users\stapi\AppData\Local\Temp\ccXC0MMf.s:187    .text.mem_free:0000000000000038 .LVL6
C:\Users\stapi\AppData\Local\Temp\ccXC0MMf.s:228    .text.mem_free:0000000000000086 .LVL8
C:\Users\stapi\AppData\Local\Temp\ccXC0MMf.s:239    .text.mem_free:0000000000000098 .LVL9
C:\Users\stapi\AppData\Local\Temp\ccXC0MMf.s:256    .text.mem_free:00000000000000c2 .LVL10
C:\Users\stapi\AppData\Local\Temp\ccXC0MMf.s:347    .text.mem_free:000000000000012a .LVL15
C:\Users\stapi\AppData\Local\Temp\ccXC0MMf.s:546    .text.mem_free:000000000000020a .LVL31
C:\Users\stapi\AppData\Local\Temp\ccXC0MMf.s:4423   .debug_str:00000000000001a5 .LASF81
C:\Users\stapi\AppData\Local\Temp\ccXC0MMf.s:4409   .debug_str:0000000000000165 .LASF76
C:\Users\stapi\AppData\Local\Temp\ccXC0MMf.s:4477   .debug_str:0000000000000450 .LASF77
C:\Users\stapi\AppData\Local\Temp\ccXC0MMf.s:4411   .debug_str:000000000000016a .LASF78
C:\Users\stapi\AppData\Local\Temp\ccXC0MMf.s:4495   .debug_str:000000000000049d .LASF80
C:\Users\stapi\AppData\Local\Temp\ccXC0MMf.s:24     .text.mem_init:0000000000000000 .LFB7
C:\Users\stapi\AppData\Local\Temp\ccXC0MMf.s:124    .text.mem_init:000000000000008c .LFE7
C:\Users\stapi\AppData\Local\Temp\ccXC0MMf.s:4244   .debug_loc:000000000000066a .LLST0
C:\Users\stapi\AppData\Local\Temp\ccXC0MMf.s:55     .text.mem_init:0000000000000026 .LBB50
C:\Users\stapi\AppData\Local\Temp\ccXC0MMf.s:97     .text.mem_init:000000000000005c .LVL2
C:\Users\stapi\AppData\Local\Temp\ccXC0MMf.s:112    .text.mem_init:0000000000000082 .LVL3
C:\Users\stapi\AppData\Local\Temp\ccXC0MMf.s:4497   .debug_str:00000000000004a6 .LASF92
C:\Users\stapi\AppData\Local\Temp\ccXC0MMf.s:4465   .debug_str:0000000000000391 .LASF82
C:\Users\stapi\AppData\Local\Temp\ccXC0MMf.s:4395   .debug_str:000000000000009d .LASF83
C:\Users\stapi\AppData\Local\Temp\ccXC0MMf.s:4543   .debug_str:0000000000000590 .LASF93
C:\Users\stapi\AppData\Local\Temp\ccXC0MMf.s:4391   .debug_str:0000000000000075 .LASF94
C:\Users\stapi\AppData\Local\Temp\ccXC0MMf.s:4367   .debug_str:0000000000000000 .LASF84
C:\Users\stapi\AppData\Local\Temp\ccXC0MMf.s:4469   .debug_str:0000000000000425 .LASF85
C:\Users\stapi\AppData\Local\Temp\ccXC0MMf.s:4371   .debug_str:000000000000000d .LASF86
C:\Users\stapi\AppData\Local\Temp\ccXC0MMf.s:4433   .debug_str:00000000000001dc .LASF87
C:\Users\stapi\AppData\Local\Temp\ccXC0MMf.s:1352   .text.mem_calloc:0000000000000000 .LVL106
C:\Users\stapi\AppData\Local\Temp\ccXC0MMf.s:1374   .text.mem_calloc:000000000000001a .LVL108
C:\Users\stapi\AppData\Local\Temp\ccXC0MMf.s:1379   .text.mem_calloc:0000000000000026 .LVL110
C:\Users\stapi\AppData\Local\Temp\ccXC0MMf.s:1361   .text.mem_calloc:000000000000000c .LVL107
C:\Users\stapi\AppData\Local\Temp\ccXC0MMf.s:978    .text.mem_malloc:0000000000000000 .LVL70
C:\Users\stapi\AppData\Local\Temp\ccXC0MMf.s:1010   .text.mem_malloc:0000000000000026 .LVL72
C:\Users\stapi\AppData\Local\Temp\ccXC0MMf.s:1023   .text.mem_malloc:0000000000000030 .LVL73
C:\Users\stapi\AppData\Local\Temp\ccXC0MMf.s:1035   .text.mem_malloc:000000000000003e .LVL75
C:\Users\stapi\AppData\Local\Temp\ccXC0MMf.s:1329   .text.mem_malloc:00000000000001d6 .LVL104
C:\Users\stapi\AppData\Local\Temp\ccXC0MMf.s:1338   .text.mem_malloc:00000000000001d8 .LVL105
C:\Users\stapi\AppData\Local\Temp\ccXC0MMf.s:1077   .text.mem_malloc:0000000000000070 .LVL78
C:\Users\stapi\AppData\Local\Temp\ccXC0MMf.s:1093   .text.mem_malloc:0000000000000082 .LVL80
C:\Users\stapi\AppData\Local\Temp\ccXC0MMf.s:1148   .text.mem_malloc:00000000000000dc .LVL85
C:\Users\stapi\AppData\Local\Temp\ccXC0MMf.s:1173   .text.mem_malloc:00000000000000ee .LVL87
C:\Users\stapi\AppData\Local\Temp\ccXC0MMf.s:1179   .text.mem_malloc:00000000000000f6 .LVL88
C:\Users\stapi\AppData\Local\Temp\ccXC0MMf.s:1240   .text.mem_malloc:000000000000014e .LVL93
C:\Users\stapi\AppData\Local\Temp\ccXC0MMf.s:1246   .text.mem_malloc:0000000000000150 .LVL94
C:\Users\stapi\AppData\Local\Temp\ccXC0MMf.s:1324   .text.mem_malloc:00000000000001d2 .LVL102
C:\Users\stapi\AppData\Local\Temp\ccXC0MMf.s:1327   .text.mem_malloc:00000000000001d4 .LVL103
C:\Users\stapi\AppData\Local\Temp\ccXC0MMf.s:1127   .text.mem_malloc:00000000000000b2 .LVL82
C:\Users\stapi\AppData\Local\Temp\ccXC0MMf.s:1134   .text.mem_malloc:00000000000000ba .LVL83
C:\Users\stapi\AppData\Local\Temp\ccXC0MMf.s:1195   .text.mem_malloc:0000000000000104 .LVL90
C:\Users\stapi\AppData\Local\Temp\ccXC0MMf.s:1001   .text.mem_malloc:0000000000000018 .LVL71
C:\Users\stapi\AppData\Local\Temp\ccXC0MMf.s:1028   .text.mem_malloc:0000000000000032 .LVL74
C:\Users\stapi\AppData\Local\Temp\ccXC0MMf.s:1101   .text.mem_malloc:0000000000000086 .LVL81
C:\Users\stapi\AppData\Local\Temp\ccXC0MMf.s:1158   .text.mem_malloc:00000000000000e0 .LVL86
C:\Users\stapi\AppData\Local\Temp\ccXC0MMf.s:1207   .text.mem_malloc:0000000000000114 .LVL91
C:\Users\stapi\AppData\Local\Temp\ccXC0MMf.s:1249   .text.mem_malloc:0000000000000156 .LVL95
C:\Users\stapi\AppData\Local\Temp\ccXC0MMf.s:1258   .text.mem_malloc:000000000000015a .LVL96
C:\Users\stapi\AppData\Local\Temp\ccXC0MMf.s:1261   .text.mem_malloc:000000000000015c .LVL97
C:\Users\stapi\AppData\Local\Temp\ccXC0MMf.s:1263   .text.mem_malloc:000000000000015e .LVL98
C:\Users\stapi\AppData\Local\Temp\ccXC0MMf.s:1050   .text.mem_malloc:0000000000000052 .LVL77
C:\Users\stapi\AppData\Local\Temp\ccXC0MMf.s:580    .text.mem_trim:0000000000000000 .LVL33
C:\Users\stapi\AppData\Local\Temp\ccXC0MMf.s:619    .text.mem_trim:0000000000000028 .LVL36
C:\Users\stapi\AppData\Local\Temp\ccXC0MMf.s:856    .text.mem_trim:0000000000000164 .LVL60
C:\Users\stapi\AppData\Local\Temp\ccXC0MMf.s:642    .text.mem_trim:0000000000000052 .LVL38
C:\Users\stapi\AppData\Local\Temp\ccXC0MMf.s:655    .text.mem_trim:0000000000000070 .LVL40
C:\Users\stapi\AppData\Local\Temp\ccXC0MMf.s:700    .text.mem_trim:0000000000000096 .LVL45
C:\Users\stapi\AppData\Local\Temp\ccXC0MMf.s:713    .text.mem_trim:00000000000000b4 .LVL47
C:\Users\stapi\AppData\Local\Temp\ccXC0MMf.s:692    .text.mem_trim:000000000000008a .LVL44
C:\Users\stapi\AppData\Local\Temp\ccXC0MMf.s:605    .text.mem_trim:0000000000000016 .LVL34
C:\Users\stapi\AppData\Local\Temp\ccXC0MMf.s:614    .text.mem_trim:0000000000000024 .LVL35
C:\Users\stapi\AppData\Local\Temp\ccXC0MMf.s:623    .text.mem_trim:000000000000002a .LVL37
C:\Users\stapi\AppData\Local\Temp\ccXC0MMf.s:685    .text.mem_trim:0000000000000082 .LVL43
C:\Users\stapi\AppData\Local\Temp\ccXC0MMf.s:784    .text.mem_trim:0000000000000124 .LVL54
C:\Users\stapi\AppData\Local\Temp\ccXC0MMf.s:833    .text.mem_trim:000000000000014e .LVL58
C:\Users\stapi\AppData\Local\Temp\ccXC0MMf.s:873    .text.mem_trim:0000000000000180 .LVL61
C:\Users\stapi\AppData\Local\Temp\ccXC0MMf.s:671    .text.mem_trim:0000000000000078 .LVL41
C:\Users\stapi\AppData\Local\Temp\ccXC0MMf.s:676    .text.mem_trim:000000000000007c .LVL42
C:\Users\stapi\AppData\Local\Temp\ccXC0MMf.s:737    .text.mem_trim:00000000000000d4 .LVL50
C:\Users\stapi\AppData\Local\Temp\ccXC0MMf.s:758    .text.mem_trim:00000000000000f8 .LVL51
C:\Users\stapi\AppData\Local\Temp\ccXC0MMf.s:768    .text.mem_trim:000000000000010a .LVL53
C:\Users\stapi\AppData\Local\Temp\ccXC0MMf.s:806    .text.mem_trim:000000000000012e .LVL56
C:\Users\stapi\AppData\Local\Temp\ccXC0MMf.s:830    .text.mem_trim:000000000000014a .LVL57
C:\Users\stapi\AppData\Local\Temp\ccXC0MMf.s:884    .text.mem_trim:0000000000000198 .LVL62
C:\Users\stapi\AppData\Local\Temp\ccXC0MMf.s:894    .text.mem_trim:00000000000001aa .LVL64
C:\Users\stapi\AppData\Local\Temp\ccXC0MMf.s:906    .text.mem_trim:00000000000001ae .LVL65
C:\Users\stapi\AppData\Local\Temp\ccXC0MMf.s:914    .text.mem_trim:00000000000001b8 .LVL66
C:\Users\stapi\AppData\Local\Temp\ccXC0MMf.s:941    .text.mem_trim:00000000000001d4 .LVL67
C:\Users\stapi\AppData\Local\Temp\ccXC0MMf.s:953    .text.mem_trim:00000000000001de .LVL69
C:\Users\stapi\AppData\Local\Temp\ccXC0MMf.s:729    .text.mem_trim:00000000000000cc .LVL49
C:\Users\stapi\AppData\Local\Temp\ccXC0MMf.s:153    .text.mem_free:0000000000000000 .LVL4
C:\Users\stapi\AppData\Local\Temp\ccXC0MMf.s:181    .text.mem_free:0000000000000020 .LVL5
C:\Users\stapi\AppData\Local\Temp\ccXC0MMf.s:556    .text.mem_free:0000000000000212 .LVL32
C:\Users\stapi\AppData\Local\Temp\ccXC0MMf.s:202    .text.mem_free:000000000000004a .LVL7
C:\Users\stapi\AppData\Local\Temp\ccXC0MMf.s:264    .text.mem_free:00000000000000c4 .LVL11
C:\Users\stapi\AppData\Local\Temp\ccXC0MMf.s:332    .text.mem_free:0000000000000106 .LVL14
C:\Users\stapi\AppData\Local\Temp\ccXC0MMf.s:278    .text.mem_free:00000000000000c8 .LVL12
C:\Users\stapi\AppData\Local\Temp\ccXC0MMf.s:322    .text.mem_free:00000000000000fa .LVL13
C:\Users\stapi\AppData\Local\Temp\ccXC0MMf.s:353    .text.mem_free:000000000000012c .LVL16
C:\Users\stapi\AppData\Local\Temp\ccXC0MMf.s:396    .text.mem_free:000000000000016c .LVL19
C:\Users\stapi\AppData\Local\Temp\ccXC0MMf.s:419    .text.mem_free:0000000000000196 .LVL21
C:\Users\stapi\AppData\Local\Temp\ccXC0MMf.s:458    .text.mem_free:00000000000001b4 .LVL22
C:\Users\stapi\AppData\Local\Temp\ccXC0MMf.s:481    .text.mem_free:00000000000001c8 .LVL24
C:\Users\stapi\AppData\Local\Temp\ccXC0MMf.s:536    .text.mem_free:00000000000001fa .LVL29
C:\Users\stapi\AppData\Local\Temp\ccXC0MMf.s:372    .text.mem_free:0000000000000142 .LVL17
C:\Users\stapi\AppData\Local\Temp\ccXC0MMf.s:539    .text.mem_free:00000000000001fe .LVL30
C:\Users\stapi\AppData\Local\Temp\ccXC0MMf.s:492    .text.mem_free:00000000000001d0 .LVL26
C:\Users\stapi\AppData\Local\Temp\ccXC0MMf.s:519    .text.mem_free:00000000000001f0 .LVL27
C:\Users\stapi\AppData\Local\Temp\ccXC0MMf.s:486    .text.mem_free:00000000000001cc .LVL25
C:\Users\stapi\AppData\Local\Temp\ccXC0MMf.s:45     .text.mem_init:000000000000001a .LVL0
C:\Users\stapi\AppData\Local\Temp\ccXC0MMf.s:1449   .debug_info:0000000000000000 .Ldebug_info0
C:\Users\stapi\AppData\Local\Temp\ccXC0MMf.s:60     .text.mem_init:0000000000000028 .LBE50
C:\Users\stapi\AppData\Local\Temp\ccXC0MMf.s:70     .text.mem_init:0000000000000036 .LBB53
C:\Users\stapi\AppData\Local\Temp\ccXC0MMf.s:74     .text.mem_init:0000000000000036 .LBE53
C:\Users\stapi\AppData\Local\Temp\ccXC0MMf.s:274    .text.mem_free:00000000000000c4 .LBE78
C:\Users\stapi\AppData\Local\Temp\ccXC0MMf.s:299    .text.mem_free:00000000000000da .LBB86
C:\Users\stapi\AppData\Local\Temp\ccXC0MMf.s:307    .text.mem_free:00000000000000e6 .LBE86
C:\Users\stapi\AppData\Local\Temp\ccXC0MMf.s:283    .text.mem_free:00000000000000c8 .LBE81
C:\Users\stapi\AppData\Local\Temp\ccXC0MMf.s:318    .text.mem_free:00000000000000f8 .LBB87
C:\Users\stapi\AppData\Local\Temp\ccXC0MMf.s:324    .text.mem_free:00000000000000fa .LBE87
C:\Users\stapi\AppData\Local\Temp\ccXC0MMf.s:433    .text.mem_free:0000000000000196 .LBE88
C:\Users\stapi\AppData\Local\Temp\ccXC0MMf.s:435    .text.mem_free:0000000000000196 .LBB99
C:\Users\stapi\AppData\Local\Temp\ccXC0MMf.s:474    .text.mem_free:00000000000001c2 .LBE99
C:\Users\stapi\AppData\Local\Temp\ccXC0MMf.s:476    .text.mem_free:00000000000001c2 .LBB100
C:\Users\stapi\AppData\Local\Temp\ccXC0MMf.s:530    .text.mem_free:00000000000001f8 .LBE100
C:\Users\stapi\AppData\Local\Temp\ccXC0MMf.s:532    .text.mem_free:00000000000001f8 .LBB101
C:\Users\stapi\AppData\Local\Temp\ccXC0MMf.s:541    .text.mem_free:00000000000001fe .LBE101
C:\Users\stapi\AppData\Local\Temp\ccXC0MMf.s:666    .text.mem_trim:0000000000000070 .LBE102
C:\Users\stapi\AppData\Local\Temp\ccXC0MMf.s:672    .text.mem_trim:0000000000000078 .LBB106
C:\Users\stapi\AppData\Local\Temp\ccXC0MMf.s:678    .text.mem_trim:000000000000007c .LBE106
C:\Users\stapi\AppData\Local\Temp\ccXC0MMf.s:681    .text.mem_trim:000000000000007e .LBB107
C:\Users\stapi\AppData\Local\Temp\ccXC0MMf.s:687    .text.mem_trim:0000000000000082 .LBE107
C:\Users\stapi\AppData\Local\Temp\ccXC0MMf.s:744    .text.mem_trim:00000000000000da .LBB110
C:\Users\stapi\AppData\Local\Temp\ccXC0MMf.s:807    .text.mem_trim:000000000000012e .LBE110
C:\Users\stapi\AppData\Local\Temp\ccXC0MMf.s:809    .text.mem_trim:000000000000012e .LBB115
C:\Users\stapi\AppData\Local\Temp\ccXC0MMf.s:835    .text.mem_trim:000000000000014e .LBE115
C:\Users\stapi\AppData\Local\Temp\ccXC0MMf.s:792    .text.mem_trim:0000000000000128 .LBE111
C:\Users\stapi\AppData\Local\Temp\ccXC0MMf.s:797    .text.mem_trim:000000000000012c .LBB114
C:\Users\stapi\AppData\Local\Temp\ccXC0MMf.s:801    .text.mem_trim:000000000000012c .LBE114
C:\Users\stapi\AppData\Local\Temp\ccXC0MMf.s:903    .text.mem_trim:00000000000001aa .LBE116
C:\Users\stapi\AppData\Local\Temp\ccXC0MMf.s:910    .text.mem_trim:00000000000001b4 .LBB119
C:\Users\stapi\AppData\Local\Temp\ccXC0MMf.s:916    .text.mem_trim:00000000000001b8 .LBE119
C:\Users\stapi\AppData\Local\Temp\ccXC0MMf.s:1047   .text.mem_malloc:000000000000004e .LBE122
C:\Users\stapi\AppData\Local\Temp\ccXC0MMf.s:1051   .text.mem_malloc:0000000000000052 .LBB127
C:\Users\stapi\AppData\Local\Temp\ccXC0MMf.s:1057   .text.mem_malloc:0000000000000056 .LBE127
C:\Users\stapi\AppData\Local\Temp\ccXC0MMf.s:1061   .text.mem_malloc:000000000000005c .LBB128
C:\Users\stapi\AppData\Local\Temp\ccXC0MMf.s:1068   .text.mem_malloc:0000000000000066 .LBE128
C:\Users\stapi\AppData\Local\Temp\ccXC0MMf.s:1073   .text.mem_malloc:000000000000006c .LBB129
C:\Users\stapi\AppData\Local\Temp\ccXC0MMf.s:1080   .text.mem_malloc:0000000000000070 .LBE129
C:\Users\stapi\AppData\Local\Temp\ccXC0MMf.s:1203   .text.mem_malloc:0000000000000110 .LBB136
C:\Users\stapi\AppData\Local\Temp\ccXC0MMf.s:1242   .text.mem_malloc:000000000000014e .LBE136
C:\Users\stapi\AppData\Local\Temp\ccXC0MMf.s:1251   .text.mem_malloc:0000000000000156 .LBB139
C:\Users\stapi\AppData\Local\Temp\ccXC0MMf.s:1269   .text.mem_malloc:000000000000015e .LBE139

UNDEFINED SYMBOLS
__riscv_save_0
sys_mutex_init
printf
__riscv_restore_0
__riscv_save_5
sys_mutex_get
sys_mutex_put
__riscv_restore_5
__riscv_save_6
__riscv_restore_6
__riscv_save_3
__riscv_restore_3
__riscv_save_1
memset
__riscv_restore_1
