   1              		.file	"memp.c"
   2              		.option nopic
   3              		.attribute arch, "rv32i2p0_m2p0_a2p0_f2p0_c2p0_b_p0p94"
   4              		.attribute unaligned_access, 0
   5              		.attribute stack_align, 16
   6              		.text
   7              	.Ltext0:
   8              		.cfi_sections	.debug_frame
   9              		.section	.rodata.do_memp_malloc_pool.str1.4,"aMS",@progbits,1
  10              		.align	2
  11              	.LC0:
  12 0000 433A2F55 		.string	"C:/Users/stapi/OneDrive/Desktop/GD32VW553/V1_MQTT_OK/GD32VW55X_Wifi_BLE_SDK/GD32VW55x_REL
  12      73657273 
  12      2F737461 
  12      70692F4F 
  12      6E654472 
  13 008a 0000     		.align	2
  14              	.LC1:
  15 008c 6D656D70 		.string	"memp_malloc: memp properly aligned"
  15      5F6D616C 
  15      6C6F633A 
  15      206D656D 
  15      70207072 
  16 00af 00       		.align	2
  17              	.LC2:
  18 00b0 41737365 		.string	"Assertion \"%s\" failed at line %d in %s\n"
  18      7274696F 
  18      6E202225 
  18      73222066 
  18      61696C65 
  19              		.section	.text.do_memp_malloc_pool,"ax",@progbits
  20              		.align	1
  22              	do_memp_malloc_pool:
  23              	.LFB6:
  24              		.file 1 "C:/Users/stapi/OneDrive/Desktop/GD32VW553/V1_MQTT_OK/GD32VW55X_Wifi_BLE_SDK/GD32VW55x_REL
   1:C:/Users/stapi/OneDrive/Desktop/GD32VW553/V1_MQTT_OK/GD32VW55X_Wifi_BLE_SDK/GD32VW55x_RELEASE_V1.0.2/MSDK/lwip/lwip-2.1.2/src/core\memp.c **** /**
   2:C:/Users/stapi/OneDrive/Desktop/GD32VW553/V1_MQTT_OK/GD32VW55X_Wifi_BLE_SDK/GD32VW55x_RELEASE_V1.0.2/MSDK/lwip/lwip-2.1.2/src/core\memp.c ****  * @file
   3:C:/Users/stapi/OneDrive/Desktop/GD32VW553/V1_MQTT_OK/GD32VW55X_Wifi_BLE_SDK/GD32VW55x_RELEASE_V1.0.2/MSDK/lwip/lwip-2.1.2/src/core\memp.c ****  * Dynamic pool memory manager
   4:C:/Users/stapi/OneDrive/Desktop/GD32VW553/V1_MQTT_OK/GD32VW55X_Wifi_BLE_SDK/GD32VW55x_RELEASE_V1.0.2/MSDK/lwip/lwip-2.1.2/src/core\memp.c ****  *
   5:C:/Users/stapi/OneDrive/Desktop/GD32VW553/V1_MQTT_OK/GD32VW55X_Wifi_BLE_SDK/GD32VW55x_RELEASE_V1.0.2/MSDK/lwip/lwip-2.1.2/src/core\memp.c ****  * lwIP has dedicated pools for many structures (netconn, protocol control blocks,
   6:C:/Users/stapi/OneDrive/Desktop/GD32VW553/V1_MQTT_OK/GD32VW55X_Wifi_BLE_SDK/GD32VW55x_RELEASE_V1.0.2/MSDK/lwip/lwip-2.1.2/src/core\memp.c ****  * packet buffers, ...). All these pools are managed here.
   7:C:/Users/stapi/OneDrive/Desktop/GD32VW553/V1_MQTT_OK/GD32VW55X_Wifi_BLE_SDK/GD32VW55x_RELEASE_V1.0.2/MSDK/lwip/lwip-2.1.2/src/core\memp.c ****  *
   8:C:/Users/stapi/OneDrive/Desktop/GD32VW553/V1_MQTT_OK/GD32VW55X_Wifi_BLE_SDK/GD32VW55x_RELEASE_V1.0.2/MSDK/lwip/lwip-2.1.2/src/core\memp.c ****  * @defgroup mempool Memory pools
   9:C:/Users/stapi/OneDrive/Desktop/GD32VW553/V1_MQTT_OK/GD32VW55X_Wifi_BLE_SDK/GD32VW55x_RELEASE_V1.0.2/MSDK/lwip/lwip-2.1.2/src/core\memp.c ****  * @ingroup infrastructure
  10:C:/Users/stapi/OneDrive/Desktop/GD32VW553/V1_MQTT_OK/GD32VW55X_Wifi_BLE_SDK/GD32VW55x_RELEASE_V1.0.2/MSDK/lwip/lwip-2.1.2/src/core\memp.c ****  * Custom memory pools
  11:C:/Users/stapi/OneDrive/Desktop/GD32VW553/V1_MQTT_OK/GD32VW55X_Wifi_BLE_SDK/GD32VW55x_RELEASE_V1.0.2/MSDK/lwip/lwip-2.1.2/src/core\memp.c **** 
  12:C:/Users/stapi/OneDrive/Desktop/GD32VW553/V1_MQTT_OK/GD32VW55X_Wifi_BLE_SDK/GD32VW55x_RELEASE_V1.0.2/MSDK/lwip/lwip-2.1.2/src/core\memp.c ****  */
  13:C:/Users/stapi/OneDrive/Desktop/GD32VW553/V1_MQTT_OK/GD32VW55X_Wifi_BLE_SDK/GD32VW55x_RELEASE_V1.0.2/MSDK/lwip/lwip-2.1.2/src/core\memp.c **** 
  14:C:/Users/stapi/OneDrive/Desktop/GD32VW553/V1_MQTT_OK/GD32VW55X_Wifi_BLE_SDK/GD32VW55x_RELEASE_V1.0.2/MSDK/lwip/lwip-2.1.2/src/core\memp.c **** /*
  15:C:/Users/stapi/OneDrive/Desktop/GD32VW553/V1_MQTT_OK/GD32VW55X_Wifi_BLE_SDK/GD32VW55x_RELEASE_V1.0.2/MSDK/lwip/lwip-2.1.2/src/core\memp.c ****  * Copyright (c) 2001-2004 Swedish Institute of Computer Science.
  16:C:/Users/stapi/OneDrive/Desktop/GD32VW553/V1_MQTT_OK/GD32VW55X_Wifi_BLE_SDK/GD32VW55x_RELEASE_V1.0.2/MSDK/lwip/lwip-2.1.2/src/core\memp.c ****  * All rights reserved.
  17:C:/Users/stapi/OneDrive/Desktop/GD32VW553/V1_MQTT_OK/GD32VW55X_Wifi_BLE_SDK/GD32VW55x_RELEASE_V1.0.2/MSDK/lwip/lwip-2.1.2/src/core\memp.c ****  *
  18:C:/Users/stapi/OneDrive/Desktop/GD32VW553/V1_MQTT_OK/GD32VW55X_Wifi_BLE_SDK/GD32VW55x_RELEASE_V1.0.2/MSDK/lwip/lwip-2.1.2/src/core\memp.c ****  * Redistribution and use in source and binary forms, with or without modification,
  19:C:/Users/stapi/OneDrive/Desktop/GD32VW553/V1_MQTT_OK/GD32VW55X_Wifi_BLE_SDK/GD32VW55x_RELEASE_V1.0.2/MSDK/lwip/lwip-2.1.2/src/core\memp.c ****  * are permitted provided that the following conditions are met:
  20:C:/Users/stapi/OneDrive/Desktop/GD32VW553/V1_MQTT_OK/GD32VW55X_Wifi_BLE_SDK/GD32VW55x_RELEASE_V1.0.2/MSDK/lwip/lwip-2.1.2/src/core\memp.c ****  *
  21:C:/Users/stapi/OneDrive/Desktop/GD32VW553/V1_MQTT_OK/GD32VW55X_Wifi_BLE_SDK/GD32VW55x_RELEASE_V1.0.2/MSDK/lwip/lwip-2.1.2/src/core\memp.c ****  * 1. Redistributions of source code must retain the above copyright notice,
  22:C:/Users/stapi/OneDrive/Desktop/GD32VW553/V1_MQTT_OK/GD32VW55X_Wifi_BLE_SDK/GD32VW55x_RELEASE_V1.0.2/MSDK/lwip/lwip-2.1.2/src/core\memp.c ****  *    this list of conditions and the following disclaimer.
  23:C:/Users/stapi/OneDrive/Desktop/GD32VW553/V1_MQTT_OK/GD32VW55X_Wifi_BLE_SDK/GD32VW55x_RELEASE_V1.0.2/MSDK/lwip/lwip-2.1.2/src/core\memp.c ****  * 2. Redistributions in binary form must reproduce the above copyright notice,
  24:C:/Users/stapi/OneDrive/Desktop/GD32VW553/V1_MQTT_OK/GD32VW55X_Wifi_BLE_SDK/GD32VW55x_RELEASE_V1.0.2/MSDK/lwip/lwip-2.1.2/src/core\memp.c ****  *    this list of conditions and the following disclaimer in the documentation
  25:C:/Users/stapi/OneDrive/Desktop/GD32VW553/V1_MQTT_OK/GD32VW55X_Wifi_BLE_SDK/GD32VW55x_RELEASE_V1.0.2/MSDK/lwip/lwip-2.1.2/src/core\memp.c ****  *    and/or other materials provided with the distribution.
  26:C:/Users/stapi/OneDrive/Desktop/GD32VW553/V1_MQTT_OK/GD32VW55X_Wifi_BLE_SDK/GD32VW55x_RELEASE_V1.0.2/MSDK/lwip/lwip-2.1.2/src/core\memp.c ****  * 3. The name of the author may not be used to endorse or promote products
  27:C:/Users/stapi/OneDrive/Desktop/GD32VW553/V1_MQTT_OK/GD32VW55X_Wifi_BLE_SDK/GD32VW55x_RELEASE_V1.0.2/MSDK/lwip/lwip-2.1.2/src/core\memp.c ****  *    derived from this software without specific prior written permission.
  28:C:/Users/stapi/OneDrive/Desktop/GD32VW553/V1_MQTT_OK/GD32VW55X_Wifi_BLE_SDK/GD32VW55x_RELEASE_V1.0.2/MSDK/lwip/lwip-2.1.2/src/core\memp.c ****  *
  29:C:/Users/stapi/OneDrive/Desktop/GD32VW553/V1_MQTT_OK/GD32VW55X_Wifi_BLE_SDK/GD32VW55x_RELEASE_V1.0.2/MSDK/lwip/lwip-2.1.2/src/core\memp.c ****  * THIS SOFTWARE IS PROVIDED BY THE AUTHOR ``AS IS'' AND ANY EXPRESS OR IMPLIED
  30:C:/Users/stapi/OneDrive/Desktop/GD32VW553/V1_MQTT_OK/GD32VW55X_Wifi_BLE_SDK/GD32VW55x_RELEASE_V1.0.2/MSDK/lwip/lwip-2.1.2/src/core\memp.c ****  * WARRANTIES, INCLUDING, BUT NOT LIMITED TO, THE IMPLIED WARRANTIES OF
  31:C:/Users/stapi/OneDrive/Desktop/GD32VW553/V1_MQTT_OK/GD32VW55X_Wifi_BLE_SDK/GD32VW55x_RELEASE_V1.0.2/MSDK/lwip/lwip-2.1.2/src/core\memp.c ****  * MERCHANTABILITY AND FITNESS FOR A PARTICULAR PURPOSE ARE DISCLAIMED. IN NO EVENT
  32:C:/Users/stapi/OneDrive/Desktop/GD32VW553/V1_MQTT_OK/GD32VW55X_Wifi_BLE_SDK/GD32VW55x_RELEASE_V1.0.2/MSDK/lwip/lwip-2.1.2/src/core\memp.c ****  * SHALL THE AUTHOR BE LIABLE FOR ANY DIRECT, INDIRECT, INCIDENTAL, SPECIAL,
  33:C:/Users/stapi/OneDrive/Desktop/GD32VW553/V1_MQTT_OK/GD32VW55X_Wifi_BLE_SDK/GD32VW55x_RELEASE_V1.0.2/MSDK/lwip/lwip-2.1.2/src/core\memp.c ****  * EXEMPLARY, OR CONSEQUENTIAL DAMAGES (INCLUDING, BUT NOT LIMITED TO, PROCUREMENT
  34:C:/Users/stapi/OneDrive/Desktop/GD32VW553/V1_MQTT_OK/GD32VW55X_Wifi_BLE_SDK/GD32VW55x_RELEASE_V1.0.2/MSDK/lwip/lwip-2.1.2/src/core\memp.c ****  * OF SUBSTITUTE GOODS OR SERVICES; LOSS OF USE, DATA, OR PROFITS; OR BUSINESS
  35:C:/Users/stapi/OneDrive/Desktop/GD32VW553/V1_MQTT_OK/GD32VW55X_Wifi_BLE_SDK/GD32VW55x_RELEASE_V1.0.2/MSDK/lwip/lwip-2.1.2/src/core\memp.c ****  * INTERRUPTION) HOWEVER CAUSED AND ON ANY THEORY OF LIABILITY, WHETHER IN
  36:C:/Users/stapi/OneDrive/Desktop/GD32VW553/V1_MQTT_OK/GD32VW55X_Wifi_BLE_SDK/GD32VW55x_RELEASE_V1.0.2/MSDK/lwip/lwip-2.1.2/src/core\memp.c ****  * CONTRACT, STRICT LIABILITY, OR TORT (INCLUDING NEGLIGENCE OR OTHERWISE) ARISING
  37:C:/Users/stapi/OneDrive/Desktop/GD32VW553/V1_MQTT_OK/GD32VW55X_Wifi_BLE_SDK/GD32VW55x_RELEASE_V1.0.2/MSDK/lwip/lwip-2.1.2/src/core\memp.c ****  * IN ANY WAY OUT OF THE USE OF THIS SOFTWARE, EVEN IF ADVISED OF THE POSSIBILITY
  38:C:/Users/stapi/OneDrive/Desktop/GD32VW553/V1_MQTT_OK/GD32VW55X_Wifi_BLE_SDK/GD32VW55x_RELEASE_V1.0.2/MSDK/lwip/lwip-2.1.2/src/core\memp.c ****  * OF SUCH DAMAGE.
  39:C:/Users/stapi/OneDrive/Desktop/GD32VW553/V1_MQTT_OK/GD32VW55X_Wifi_BLE_SDK/GD32VW55x_RELEASE_V1.0.2/MSDK/lwip/lwip-2.1.2/src/core\memp.c ****  *
  40:C:/Users/stapi/OneDrive/Desktop/GD32VW553/V1_MQTT_OK/GD32VW55X_Wifi_BLE_SDK/GD32VW55x_RELEASE_V1.0.2/MSDK/lwip/lwip-2.1.2/src/core\memp.c ****  * This file is part of the lwIP TCP/IP stack.
  41:C:/Users/stapi/OneDrive/Desktop/GD32VW553/V1_MQTT_OK/GD32VW55X_Wifi_BLE_SDK/GD32VW55x_RELEASE_V1.0.2/MSDK/lwip/lwip-2.1.2/src/core\memp.c ****  *
  42:C:/Users/stapi/OneDrive/Desktop/GD32VW553/V1_MQTT_OK/GD32VW55X_Wifi_BLE_SDK/GD32VW55x_RELEASE_V1.0.2/MSDK/lwip/lwip-2.1.2/src/core\memp.c ****  * Author: Adam Dunkels <adam@sics.se>
  43:C:/Users/stapi/OneDrive/Desktop/GD32VW553/V1_MQTT_OK/GD32VW55X_Wifi_BLE_SDK/GD32VW55x_RELEASE_V1.0.2/MSDK/lwip/lwip-2.1.2/src/core\memp.c ****  *
  44:C:/Users/stapi/OneDrive/Desktop/GD32VW553/V1_MQTT_OK/GD32VW55X_Wifi_BLE_SDK/GD32VW55x_RELEASE_V1.0.2/MSDK/lwip/lwip-2.1.2/src/core\memp.c ****  */
  45:C:/Users/stapi/OneDrive/Desktop/GD32VW553/V1_MQTT_OK/GD32VW55X_Wifi_BLE_SDK/GD32VW55x_RELEASE_V1.0.2/MSDK/lwip/lwip-2.1.2/src/core\memp.c **** 
  46:C:/Users/stapi/OneDrive/Desktop/GD32VW553/V1_MQTT_OK/GD32VW55X_Wifi_BLE_SDK/GD32VW55x_RELEASE_V1.0.2/MSDK/lwip/lwip-2.1.2/src/core\memp.c **** #include "lwip/opt.h"
  47:C:/Users/stapi/OneDrive/Desktop/GD32VW553/V1_MQTT_OK/GD32VW55X_Wifi_BLE_SDK/GD32VW55x_RELEASE_V1.0.2/MSDK/lwip/lwip-2.1.2/src/core\memp.c **** 
  48:C:/Users/stapi/OneDrive/Desktop/GD32VW553/V1_MQTT_OK/GD32VW55X_Wifi_BLE_SDK/GD32VW55x_RELEASE_V1.0.2/MSDK/lwip/lwip-2.1.2/src/core\memp.c **** #include "lwip/memp.h"
  49:C:/Users/stapi/OneDrive/Desktop/GD32VW553/V1_MQTT_OK/GD32VW55X_Wifi_BLE_SDK/GD32VW55x_RELEASE_V1.0.2/MSDK/lwip/lwip-2.1.2/src/core\memp.c **** #include "lwip/sys.h"
  50:C:/Users/stapi/OneDrive/Desktop/GD32VW553/V1_MQTT_OK/GD32VW55X_Wifi_BLE_SDK/GD32VW55x_RELEASE_V1.0.2/MSDK/lwip/lwip-2.1.2/src/core\memp.c **** #include "lwip/stats.h"
  51:C:/Users/stapi/OneDrive/Desktop/GD32VW553/V1_MQTT_OK/GD32VW55X_Wifi_BLE_SDK/GD32VW55x_RELEASE_V1.0.2/MSDK/lwip/lwip-2.1.2/src/core\memp.c **** 
  52:C:/Users/stapi/OneDrive/Desktop/GD32VW553/V1_MQTT_OK/GD32VW55X_Wifi_BLE_SDK/GD32VW55x_RELEASE_V1.0.2/MSDK/lwip/lwip-2.1.2/src/core\memp.c **** #include <string.h>
  53:C:/Users/stapi/OneDrive/Desktop/GD32VW553/V1_MQTT_OK/GD32VW55X_Wifi_BLE_SDK/GD32VW55x_RELEASE_V1.0.2/MSDK/lwip/lwip-2.1.2/src/core\memp.c **** 
  54:C:/Users/stapi/OneDrive/Desktop/GD32VW553/V1_MQTT_OK/GD32VW55X_Wifi_BLE_SDK/GD32VW55x_RELEASE_V1.0.2/MSDK/lwip/lwip-2.1.2/src/core\memp.c **** /* Make sure we include everything we need for size calculation required by memp_std.h */
  55:C:/Users/stapi/OneDrive/Desktop/GD32VW553/V1_MQTT_OK/GD32VW55X_Wifi_BLE_SDK/GD32VW55x_RELEASE_V1.0.2/MSDK/lwip/lwip-2.1.2/src/core\memp.c **** #include "lwip/pbuf.h"
  56:C:/Users/stapi/OneDrive/Desktop/GD32VW553/V1_MQTT_OK/GD32VW55X_Wifi_BLE_SDK/GD32VW55x_RELEASE_V1.0.2/MSDK/lwip/lwip-2.1.2/src/core\memp.c **** #include "lwip/raw.h"
  57:C:/Users/stapi/OneDrive/Desktop/GD32VW553/V1_MQTT_OK/GD32VW55X_Wifi_BLE_SDK/GD32VW55x_RELEASE_V1.0.2/MSDK/lwip/lwip-2.1.2/src/core\memp.c **** #include "lwip/udp.h"
  58:C:/Users/stapi/OneDrive/Desktop/GD32VW553/V1_MQTT_OK/GD32VW55X_Wifi_BLE_SDK/GD32VW55x_RELEASE_V1.0.2/MSDK/lwip/lwip-2.1.2/src/core\memp.c **** #include "lwip/tcp.h"
  59:C:/Users/stapi/OneDrive/Desktop/GD32VW553/V1_MQTT_OK/GD32VW55X_Wifi_BLE_SDK/GD32VW55x_RELEASE_V1.0.2/MSDK/lwip/lwip-2.1.2/src/core\memp.c **** #include "lwip/priv/tcp_priv.h"
  60:C:/Users/stapi/OneDrive/Desktop/GD32VW553/V1_MQTT_OK/GD32VW55X_Wifi_BLE_SDK/GD32VW55x_RELEASE_V1.0.2/MSDK/lwip/lwip-2.1.2/src/core\memp.c **** #include "lwip/altcp.h"
  61:C:/Users/stapi/OneDrive/Desktop/GD32VW553/V1_MQTT_OK/GD32VW55X_Wifi_BLE_SDK/GD32VW55x_RELEASE_V1.0.2/MSDK/lwip/lwip-2.1.2/src/core\memp.c **** #include "lwip/ip4_frag.h"
  62:C:/Users/stapi/OneDrive/Desktop/GD32VW553/V1_MQTT_OK/GD32VW55X_Wifi_BLE_SDK/GD32VW55x_RELEASE_V1.0.2/MSDK/lwip/lwip-2.1.2/src/core\memp.c **** #include "lwip/netbuf.h"
  63:C:/Users/stapi/OneDrive/Desktop/GD32VW553/V1_MQTT_OK/GD32VW55X_Wifi_BLE_SDK/GD32VW55x_RELEASE_V1.0.2/MSDK/lwip/lwip-2.1.2/src/core\memp.c **** #include "lwip/api.h"
  64:C:/Users/stapi/OneDrive/Desktop/GD32VW553/V1_MQTT_OK/GD32VW55X_Wifi_BLE_SDK/GD32VW55x_RELEASE_V1.0.2/MSDK/lwip/lwip-2.1.2/src/core\memp.c **** #include "lwip/priv/tcpip_priv.h"
  65:C:/Users/stapi/OneDrive/Desktop/GD32VW553/V1_MQTT_OK/GD32VW55X_Wifi_BLE_SDK/GD32VW55x_RELEASE_V1.0.2/MSDK/lwip/lwip-2.1.2/src/core\memp.c **** #include "lwip/priv/api_msg.h"
  66:C:/Users/stapi/OneDrive/Desktop/GD32VW553/V1_MQTT_OK/GD32VW55X_Wifi_BLE_SDK/GD32VW55x_RELEASE_V1.0.2/MSDK/lwip/lwip-2.1.2/src/core\memp.c **** #include "lwip/priv/sockets_priv.h"
  67:C:/Users/stapi/OneDrive/Desktop/GD32VW553/V1_MQTT_OK/GD32VW55X_Wifi_BLE_SDK/GD32VW55x_RELEASE_V1.0.2/MSDK/lwip/lwip-2.1.2/src/core\memp.c **** #include "lwip/etharp.h"
  68:C:/Users/stapi/OneDrive/Desktop/GD32VW553/V1_MQTT_OK/GD32VW55X_Wifi_BLE_SDK/GD32VW55x_RELEASE_V1.0.2/MSDK/lwip/lwip-2.1.2/src/core\memp.c **** #include "lwip/igmp.h"
  69:C:/Users/stapi/OneDrive/Desktop/GD32VW553/V1_MQTT_OK/GD32VW55X_Wifi_BLE_SDK/GD32VW55x_RELEASE_V1.0.2/MSDK/lwip/lwip-2.1.2/src/core\memp.c **** #include "lwip/timeouts.h"
  70:C:/Users/stapi/OneDrive/Desktop/GD32VW553/V1_MQTT_OK/GD32VW55X_Wifi_BLE_SDK/GD32VW55x_RELEASE_V1.0.2/MSDK/lwip/lwip-2.1.2/src/core\memp.c **** /* needed by default MEMP_NUM_SYS_TIMEOUT */
  71:C:/Users/stapi/OneDrive/Desktop/GD32VW553/V1_MQTT_OK/GD32VW55X_Wifi_BLE_SDK/GD32VW55x_RELEASE_V1.0.2/MSDK/lwip/lwip-2.1.2/src/core\memp.c **** #include "netif/ppp/ppp_opts.h"
  72:C:/Users/stapi/OneDrive/Desktop/GD32VW553/V1_MQTT_OK/GD32VW55X_Wifi_BLE_SDK/GD32VW55x_RELEASE_V1.0.2/MSDK/lwip/lwip-2.1.2/src/core\memp.c **** #include "lwip/netdb.h"
  73:C:/Users/stapi/OneDrive/Desktop/GD32VW553/V1_MQTT_OK/GD32VW55X_Wifi_BLE_SDK/GD32VW55x_RELEASE_V1.0.2/MSDK/lwip/lwip-2.1.2/src/core\memp.c **** #include "lwip/dns.h"
  74:C:/Users/stapi/OneDrive/Desktop/GD32VW553/V1_MQTT_OK/GD32VW55X_Wifi_BLE_SDK/GD32VW55x_RELEASE_V1.0.2/MSDK/lwip/lwip-2.1.2/src/core\memp.c **** #include "lwip/priv/nd6_priv.h"
  75:C:/Users/stapi/OneDrive/Desktop/GD32VW553/V1_MQTT_OK/GD32VW55X_Wifi_BLE_SDK/GD32VW55x_RELEASE_V1.0.2/MSDK/lwip/lwip-2.1.2/src/core\memp.c **** #include "lwip/ip6_frag.h"
  76:C:/Users/stapi/OneDrive/Desktop/GD32VW553/V1_MQTT_OK/GD32VW55X_Wifi_BLE_SDK/GD32VW55x_RELEASE_V1.0.2/MSDK/lwip/lwip-2.1.2/src/core\memp.c **** #include "lwip/mld6.h"
  77:C:/Users/stapi/OneDrive/Desktop/GD32VW553/V1_MQTT_OK/GD32VW55X_Wifi_BLE_SDK/GD32VW55x_RELEASE_V1.0.2/MSDK/lwip/lwip-2.1.2/src/core\memp.c **** 
  78:C:/Users/stapi/OneDrive/Desktop/GD32VW553/V1_MQTT_OK/GD32VW55X_Wifi_BLE_SDK/GD32VW55x_RELEASE_V1.0.2/MSDK/lwip/lwip-2.1.2/src/core\memp.c **** #define LWIP_MEMPOOL(name,num,size,desc) LWIP_MEMPOOL_DECLARE(name,num,size,desc)
  79:C:/Users/stapi/OneDrive/Desktop/GD32VW553/V1_MQTT_OK/GD32VW55X_Wifi_BLE_SDK/GD32VW55x_RELEASE_V1.0.2/MSDK/lwip/lwip-2.1.2/src/core\memp.c **** #include "lwip/priv/memp_std.h"
  80:C:/Users/stapi/OneDrive/Desktop/GD32VW553/V1_MQTT_OK/GD32VW55X_Wifi_BLE_SDK/GD32VW55x_RELEASE_V1.0.2/MSDK/lwip/lwip-2.1.2/src/core\memp.c **** 
  81:C:/Users/stapi/OneDrive/Desktop/GD32VW553/V1_MQTT_OK/GD32VW55X_Wifi_BLE_SDK/GD32VW55x_RELEASE_V1.0.2/MSDK/lwip/lwip-2.1.2/src/core\memp.c **** const struct memp_desc *const memp_pools[MEMP_MAX] = {
  82:C:/Users/stapi/OneDrive/Desktop/GD32VW553/V1_MQTT_OK/GD32VW55X_Wifi_BLE_SDK/GD32VW55x_RELEASE_V1.0.2/MSDK/lwip/lwip-2.1.2/src/core\memp.c **** #define LWIP_MEMPOOL(name,num,size,desc) &memp_ ## name,
  83:C:/Users/stapi/OneDrive/Desktop/GD32VW553/V1_MQTT_OK/GD32VW55X_Wifi_BLE_SDK/GD32VW55x_RELEASE_V1.0.2/MSDK/lwip/lwip-2.1.2/src/core\memp.c **** #include "lwip/priv/memp_std.h"
  84:C:/Users/stapi/OneDrive/Desktop/GD32VW553/V1_MQTT_OK/GD32VW55X_Wifi_BLE_SDK/GD32VW55x_RELEASE_V1.0.2/MSDK/lwip/lwip-2.1.2/src/core\memp.c **** };
  85:C:/Users/stapi/OneDrive/Desktop/GD32VW553/V1_MQTT_OK/GD32VW55X_Wifi_BLE_SDK/GD32VW55x_RELEASE_V1.0.2/MSDK/lwip/lwip-2.1.2/src/core\memp.c **** 
  86:C:/Users/stapi/OneDrive/Desktop/GD32VW553/V1_MQTT_OK/GD32VW55X_Wifi_BLE_SDK/GD32VW55x_RELEASE_V1.0.2/MSDK/lwip/lwip-2.1.2/src/core\memp.c **** #ifdef LWIP_HOOK_FILENAME
  87:C:/Users/stapi/OneDrive/Desktop/GD32VW553/V1_MQTT_OK/GD32VW55X_Wifi_BLE_SDK/GD32VW55x_RELEASE_V1.0.2/MSDK/lwip/lwip-2.1.2/src/core\memp.c **** #include LWIP_HOOK_FILENAME
  88:C:/Users/stapi/OneDrive/Desktop/GD32VW553/V1_MQTT_OK/GD32VW55X_Wifi_BLE_SDK/GD32VW55x_RELEASE_V1.0.2/MSDK/lwip/lwip-2.1.2/src/core\memp.c **** #endif
  89:C:/Users/stapi/OneDrive/Desktop/GD32VW553/V1_MQTT_OK/GD32VW55X_Wifi_BLE_SDK/GD32VW55x_RELEASE_V1.0.2/MSDK/lwip/lwip-2.1.2/src/core\memp.c **** 
  90:C:/Users/stapi/OneDrive/Desktop/GD32VW553/V1_MQTT_OK/GD32VW55X_Wifi_BLE_SDK/GD32VW55x_RELEASE_V1.0.2/MSDK/lwip/lwip-2.1.2/src/core\memp.c **** #if MEMP_MEM_MALLOC && MEMP_OVERFLOW_CHECK >= 2
  91:C:/Users/stapi/OneDrive/Desktop/GD32VW553/V1_MQTT_OK/GD32VW55X_Wifi_BLE_SDK/GD32VW55x_RELEASE_V1.0.2/MSDK/lwip/lwip-2.1.2/src/core\memp.c **** #undef MEMP_OVERFLOW_CHECK
  92:C:/Users/stapi/OneDrive/Desktop/GD32VW553/V1_MQTT_OK/GD32VW55X_Wifi_BLE_SDK/GD32VW55x_RELEASE_V1.0.2/MSDK/lwip/lwip-2.1.2/src/core\memp.c **** /* MEMP_OVERFLOW_CHECK >= 2 does not work with MEMP_MEM_MALLOC, use 1 instead */
  93:C:/Users/stapi/OneDrive/Desktop/GD32VW553/V1_MQTT_OK/GD32VW55X_Wifi_BLE_SDK/GD32VW55x_RELEASE_V1.0.2/MSDK/lwip/lwip-2.1.2/src/core\memp.c **** #define MEMP_OVERFLOW_CHECK 1
  94:C:/Users/stapi/OneDrive/Desktop/GD32VW553/V1_MQTT_OK/GD32VW55X_Wifi_BLE_SDK/GD32VW55x_RELEASE_V1.0.2/MSDK/lwip/lwip-2.1.2/src/core\memp.c **** #endif
  95:C:/Users/stapi/OneDrive/Desktop/GD32VW553/V1_MQTT_OK/GD32VW55X_Wifi_BLE_SDK/GD32VW55x_RELEASE_V1.0.2/MSDK/lwip/lwip-2.1.2/src/core\memp.c **** 
  96:C:/Users/stapi/OneDrive/Desktop/GD32VW553/V1_MQTT_OK/GD32VW55X_Wifi_BLE_SDK/GD32VW55x_RELEASE_V1.0.2/MSDK/lwip/lwip-2.1.2/src/core\memp.c **** #if MEMP_SANITY_CHECK && !MEMP_MEM_MALLOC
  97:C:/Users/stapi/OneDrive/Desktop/GD32VW553/V1_MQTT_OK/GD32VW55X_Wifi_BLE_SDK/GD32VW55x_RELEASE_V1.0.2/MSDK/lwip/lwip-2.1.2/src/core\memp.c **** /**
  98:C:/Users/stapi/OneDrive/Desktop/GD32VW553/V1_MQTT_OK/GD32VW55X_Wifi_BLE_SDK/GD32VW55x_RELEASE_V1.0.2/MSDK/lwip/lwip-2.1.2/src/core\memp.c ****  * Check that memp-lists don't form a circle, using "Floyd's cycle-finding algorithm".
  99:C:/Users/stapi/OneDrive/Desktop/GD32VW553/V1_MQTT_OK/GD32VW55X_Wifi_BLE_SDK/GD32VW55x_RELEASE_V1.0.2/MSDK/lwip/lwip-2.1.2/src/core\memp.c ****  */
 100:C:/Users/stapi/OneDrive/Desktop/GD32VW553/V1_MQTT_OK/GD32VW55X_Wifi_BLE_SDK/GD32VW55x_RELEASE_V1.0.2/MSDK/lwip/lwip-2.1.2/src/core\memp.c **** static int
 101:C:/Users/stapi/OneDrive/Desktop/GD32VW553/V1_MQTT_OK/GD32VW55X_Wifi_BLE_SDK/GD32VW55x_RELEASE_V1.0.2/MSDK/lwip/lwip-2.1.2/src/core\memp.c **** memp_sanity(const struct memp_desc *desc)
 102:C:/Users/stapi/OneDrive/Desktop/GD32VW553/V1_MQTT_OK/GD32VW55X_Wifi_BLE_SDK/GD32VW55x_RELEASE_V1.0.2/MSDK/lwip/lwip-2.1.2/src/core\memp.c **** {
 103:C:/Users/stapi/OneDrive/Desktop/GD32VW553/V1_MQTT_OK/GD32VW55X_Wifi_BLE_SDK/GD32VW55x_RELEASE_V1.0.2/MSDK/lwip/lwip-2.1.2/src/core\memp.c ****   struct memp *t, *h;
 104:C:/Users/stapi/OneDrive/Desktop/GD32VW553/V1_MQTT_OK/GD32VW55X_Wifi_BLE_SDK/GD32VW55x_RELEASE_V1.0.2/MSDK/lwip/lwip-2.1.2/src/core\memp.c **** 
 105:C:/Users/stapi/OneDrive/Desktop/GD32VW553/V1_MQTT_OK/GD32VW55X_Wifi_BLE_SDK/GD32VW55x_RELEASE_V1.0.2/MSDK/lwip/lwip-2.1.2/src/core\memp.c ****   t = *desc->tab;
 106:C:/Users/stapi/OneDrive/Desktop/GD32VW553/V1_MQTT_OK/GD32VW55X_Wifi_BLE_SDK/GD32VW55x_RELEASE_V1.0.2/MSDK/lwip/lwip-2.1.2/src/core\memp.c ****   if (t != NULL) {
 107:C:/Users/stapi/OneDrive/Desktop/GD32VW553/V1_MQTT_OK/GD32VW55X_Wifi_BLE_SDK/GD32VW55x_RELEASE_V1.0.2/MSDK/lwip/lwip-2.1.2/src/core\memp.c ****     for (h = t->next; (t != NULL) && (h != NULL); t = t->next,
 108:C:/Users/stapi/OneDrive/Desktop/GD32VW553/V1_MQTT_OK/GD32VW55X_Wifi_BLE_SDK/GD32VW55x_RELEASE_V1.0.2/MSDK/lwip/lwip-2.1.2/src/core\memp.c ****          h = ((h->next != NULL) ? h->next->next : NULL)) {
 109:C:/Users/stapi/OneDrive/Desktop/GD32VW553/V1_MQTT_OK/GD32VW55X_Wifi_BLE_SDK/GD32VW55x_RELEASE_V1.0.2/MSDK/lwip/lwip-2.1.2/src/core\memp.c ****       if (t == h) {
 110:C:/Users/stapi/OneDrive/Desktop/GD32VW553/V1_MQTT_OK/GD32VW55X_Wifi_BLE_SDK/GD32VW55x_RELEASE_V1.0.2/MSDK/lwip/lwip-2.1.2/src/core\memp.c ****         return 0;
 111:C:/Users/stapi/OneDrive/Desktop/GD32VW553/V1_MQTT_OK/GD32VW55X_Wifi_BLE_SDK/GD32VW55x_RELEASE_V1.0.2/MSDK/lwip/lwip-2.1.2/src/core\memp.c ****       }
 112:C:/Users/stapi/OneDrive/Desktop/GD32VW553/V1_MQTT_OK/GD32VW55X_Wifi_BLE_SDK/GD32VW55x_RELEASE_V1.0.2/MSDK/lwip/lwip-2.1.2/src/core\memp.c ****     }
 113:C:/Users/stapi/OneDrive/Desktop/GD32VW553/V1_MQTT_OK/GD32VW55X_Wifi_BLE_SDK/GD32VW55x_RELEASE_V1.0.2/MSDK/lwip/lwip-2.1.2/src/core\memp.c ****   }
 114:C:/Users/stapi/OneDrive/Desktop/GD32VW553/V1_MQTT_OK/GD32VW55X_Wifi_BLE_SDK/GD32VW55x_RELEASE_V1.0.2/MSDK/lwip/lwip-2.1.2/src/core\memp.c **** 
 115:C:/Users/stapi/OneDrive/Desktop/GD32VW553/V1_MQTT_OK/GD32VW55X_Wifi_BLE_SDK/GD32VW55x_RELEASE_V1.0.2/MSDK/lwip/lwip-2.1.2/src/core\memp.c ****   return 1;
 116:C:/Users/stapi/OneDrive/Desktop/GD32VW553/V1_MQTT_OK/GD32VW55X_Wifi_BLE_SDK/GD32VW55x_RELEASE_V1.0.2/MSDK/lwip/lwip-2.1.2/src/core\memp.c **** }
 117:C:/Users/stapi/OneDrive/Desktop/GD32VW553/V1_MQTT_OK/GD32VW55X_Wifi_BLE_SDK/GD32VW55x_RELEASE_V1.0.2/MSDK/lwip/lwip-2.1.2/src/core\memp.c **** #endif /* MEMP_SANITY_CHECK && !MEMP_MEM_MALLOC */
 118:C:/Users/stapi/OneDrive/Desktop/GD32VW553/V1_MQTT_OK/GD32VW55X_Wifi_BLE_SDK/GD32VW55x_RELEASE_V1.0.2/MSDK/lwip/lwip-2.1.2/src/core\memp.c **** 
 119:C:/Users/stapi/OneDrive/Desktop/GD32VW553/V1_MQTT_OK/GD32VW55X_Wifi_BLE_SDK/GD32VW55x_RELEASE_V1.0.2/MSDK/lwip/lwip-2.1.2/src/core\memp.c **** #if MEMP_OVERFLOW_CHECK
 120:C:/Users/stapi/OneDrive/Desktop/GD32VW553/V1_MQTT_OK/GD32VW55X_Wifi_BLE_SDK/GD32VW55x_RELEASE_V1.0.2/MSDK/lwip/lwip-2.1.2/src/core\memp.c **** /**
 121:C:/Users/stapi/OneDrive/Desktop/GD32VW553/V1_MQTT_OK/GD32VW55X_Wifi_BLE_SDK/GD32VW55x_RELEASE_V1.0.2/MSDK/lwip/lwip-2.1.2/src/core\memp.c ****  * Check if a memp element was victim of an overflow or underflow
 122:C:/Users/stapi/OneDrive/Desktop/GD32VW553/V1_MQTT_OK/GD32VW55X_Wifi_BLE_SDK/GD32VW55x_RELEASE_V1.0.2/MSDK/lwip/lwip-2.1.2/src/core\memp.c ****  * (e.g. the restricted area after/before it has been altered)
 123:C:/Users/stapi/OneDrive/Desktop/GD32VW553/V1_MQTT_OK/GD32VW55X_Wifi_BLE_SDK/GD32VW55x_RELEASE_V1.0.2/MSDK/lwip/lwip-2.1.2/src/core\memp.c ****  *
 124:C:/Users/stapi/OneDrive/Desktop/GD32VW553/V1_MQTT_OK/GD32VW55X_Wifi_BLE_SDK/GD32VW55x_RELEASE_V1.0.2/MSDK/lwip/lwip-2.1.2/src/core\memp.c ****  * @param p the memp element to check
 125:C:/Users/stapi/OneDrive/Desktop/GD32VW553/V1_MQTT_OK/GD32VW55X_Wifi_BLE_SDK/GD32VW55x_RELEASE_V1.0.2/MSDK/lwip/lwip-2.1.2/src/core\memp.c ****  * @param desc the pool p comes from
 126:C:/Users/stapi/OneDrive/Desktop/GD32VW553/V1_MQTT_OK/GD32VW55X_Wifi_BLE_SDK/GD32VW55x_RELEASE_V1.0.2/MSDK/lwip/lwip-2.1.2/src/core\memp.c ****  */
 127:C:/Users/stapi/OneDrive/Desktop/GD32VW553/V1_MQTT_OK/GD32VW55X_Wifi_BLE_SDK/GD32VW55x_RELEASE_V1.0.2/MSDK/lwip/lwip-2.1.2/src/core\memp.c **** static void
 128:C:/Users/stapi/OneDrive/Desktop/GD32VW553/V1_MQTT_OK/GD32VW55X_Wifi_BLE_SDK/GD32VW55x_RELEASE_V1.0.2/MSDK/lwip/lwip-2.1.2/src/core\memp.c **** memp_overflow_check_element(struct memp *p, const struct memp_desc *desc)
 129:C:/Users/stapi/OneDrive/Desktop/GD32VW553/V1_MQTT_OK/GD32VW55X_Wifi_BLE_SDK/GD32VW55x_RELEASE_V1.0.2/MSDK/lwip/lwip-2.1.2/src/core\memp.c **** {
 130:C:/Users/stapi/OneDrive/Desktop/GD32VW553/V1_MQTT_OK/GD32VW55X_Wifi_BLE_SDK/GD32VW55x_RELEASE_V1.0.2/MSDK/lwip/lwip-2.1.2/src/core\memp.c ****   mem_overflow_check_raw((u8_t *)p + MEMP_SIZE, desc->size, "pool ", desc->desc);
 131:C:/Users/stapi/OneDrive/Desktop/GD32VW553/V1_MQTT_OK/GD32VW55X_Wifi_BLE_SDK/GD32VW55x_RELEASE_V1.0.2/MSDK/lwip/lwip-2.1.2/src/core\memp.c **** }
 132:C:/Users/stapi/OneDrive/Desktop/GD32VW553/V1_MQTT_OK/GD32VW55X_Wifi_BLE_SDK/GD32VW55x_RELEASE_V1.0.2/MSDK/lwip/lwip-2.1.2/src/core\memp.c **** 
 133:C:/Users/stapi/OneDrive/Desktop/GD32VW553/V1_MQTT_OK/GD32VW55X_Wifi_BLE_SDK/GD32VW55x_RELEASE_V1.0.2/MSDK/lwip/lwip-2.1.2/src/core\memp.c **** /**
 134:C:/Users/stapi/OneDrive/Desktop/GD32VW553/V1_MQTT_OK/GD32VW55X_Wifi_BLE_SDK/GD32VW55x_RELEASE_V1.0.2/MSDK/lwip/lwip-2.1.2/src/core\memp.c ****  * Initialize the restricted area of on memp element.
 135:C:/Users/stapi/OneDrive/Desktop/GD32VW553/V1_MQTT_OK/GD32VW55X_Wifi_BLE_SDK/GD32VW55x_RELEASE_V1.0.2/MSDK/lwip/lwip-2.1.2/src/core\memp.c ****  */
 136:C:/Users/stapi/OneDrive/Desktop/GD32VW553/V1_MQTT_OK/GD32VW55X_Wifi_BLE_SDK/GD32VW55x_RELEASE_V1.0.2/MSDK/lwip/lwip-2.1.2/src/core\memp.c **** static void
 137:C:/Users/stapi/OneDrive/Desktop/GD32VW553/V1_MQTT_OK/GD32VW55X_Wifi_BLE_SDK/GD32VW55x_RELEASE_V1.0.2/MSDK/lwip/lwip-2.1.2/src/core\memp.c **** memp_overflow_init_element(struct memp *p, const struct memp_desc *desc)
 138:C:/Users/stapi/OneDrive/Desktop/GD32VW553/V1_MQTT_OK/GD32VW55X_Wifi_BLE_SDK/GD32VW55x_RELEASE_V1.0.2/MSDK/lwip/lwip-2.1.2/src/core\memp.c **** {
 139:C:/Users/stapi/OneDrive/Desktop/GD32VW553/V1_MQTT_OK/GD32VW55X_Wifi_BLE_SDK/GD32VW55x_RELEASE_V1.0.2/MSDK/lwip/lwip-2.1.2/src/core\memp.c ****   mem_overflow_init_raw((u8_t *)p + MEMP_SIZE, desc->size);
 140:C:/Users/stapi/OneDrive/Desktop/GD32VW553/V1_MQTT_OK/GD32VW55X_Wifi_BLE_SDK/GD32VW55x_RELEASE_V1.0.2/MSDK/lwip/lwip-2.1.2/src/core\memp.c **** }
 141:C:/Users/stapi/OneDrive/Desktop/GD32VW553/V1_MQTT_OK/GD32VW55X_Wifi_BLE_SDK/GD32VW55x_RELEASE_V1.0.2/MSDK/lwip/lwip-2.1.2/src/core\memp.c **** 
 142:C:/Users/stapi/OneDrive/Desktop/GD32VW553/V1_MQTT_OK/GD32VW55X_Wifi_BLE_SDK/GD32VW55x_RELEASE_V1.0.2/MSDK/lwip/lwip-2.1.2/src/core\memp.c **** #if MEMP_OVERFLOW_CHECK >= 2
 143:C:/Users/stapi/OneDrive/Desktop/GD32VW553/V1_MQTT_OK/GD32VW55X_Wifi_BLE_SDK/GD32VW55x_RELEASE_V1.0.2/MSDK/lwip/lwip-2.1.2/src/core\memp.c **** /**
 144:C:/Users/stapi/OneDrive/Desktop/GD32VW553/V1_MQTT_OK/GD32VW55X_Wifi_BLE_SDK/GD32VW55x_RELEASE_V1.0.2/MSDK/lwip/lwip-2.1.2/src/core\memp.c ****  * Do an overflow check for all elements in every pool.
 145:C:/Users/stapi/OneDrive/Desktop/GD32VW553/V1_MQTT_OK/GD32VW55X_Wifi_BLE_SDK/GD32VW55x_RELEASE_V1.0.2/MSDK/lwip/lwip-2.1.2/src/core\memp.c ****  *
 146:C:/Users/stapi/OneDrive/Desktop/GD32VW553/V1_MQTT_OK/GD32VW55X_Wifi_BLE_SDK/GD32VW55x_RELEASE_V1.0.2/MSDK/lwip/lwip-2.1.2/src/core\memp.c ****  * @see memp_overflow_check_element for a description of the check
 147:C:/Users/stapi/OneDrive/Desktop/GD32VW553/V1_MQTT_OK/GD32VW55X_Wifi_BLE_SDK/GD32VW55x_RELEASE_V1.0.2/MSDK/lwip/lwip-2.1.2/src/core\memp.c ****  */
 148:C:/Users/stapi/OneDrive/Desktop/GD32VW553/V1_MQTT_OK/GD32VW55X_Wifi_BLE_SDK/GD32VW55x_RELEASE_V1.0.2/MSDK/lwip/lwip-2.1.2/src/core\memp.c **** static void
 149:C:/Users/stapi/OneDrive/Desktop/GD32VW553/V1_MQTT_OK/GD32VW55X_Wifi_BLE_SDK/GD32VW55x_RELEASE_V1.0.2/MSDK/lwip/lwip-2.1.2/src/core\memp.c **** memp_overflow_check_all(void)
 150:C:/Users/stapi/OneDrive/Desktop/GD32VW553/V1_MQTT_OK/GD32VW55X_Wifi_BLE_SDK/GD32VW55x_RELEASE_V1.0.2/MSDK/lwip/lwip-2.1.2/src/core\memp.c **** {
 151:C:/Users/stapi/OneDrive/Desktop/GD32VW553/V1_MQTT_OK/GD32VW55X_Wifi_BLE_SDK/GD32VW55x_RELEASE_V1.0.2/MSDK/lwip/lwip-2.1.2/src/core\memp.c ****   u16_t i, j;
 152:C:/Users/stapi/OneDrive/Desktop/GD32VW553/V1_MQTT_OK/GD32VW55X_Wifi_BLE_SDK/GD32VW55x_RELEASE_V1.0.2/MSDK/lwip/lwip-2.1.2/src/core\memp.c ****   struct memp *p;
 153:C:/Users/stapi/OneDrive/Desktop/GD32VW553/V1_MQTT_OK/GD32VW55X_Wifi_BLE_SDK/GD32VW55x_RELEASE_V1.0.2/MSDK/lwip/lwip-2.1.2/src/core\memp.c ****   SYS_ARCH_DECL_PROTECT(old_level);
 154:C:/Users/stapi/OneDrive/Desktop/GD32VW553/V1_MQTT_OK/GD32VW55X_Wifi_BLE_SDK/GD32VW55x_RELEASE_V1.0.2/MSDK/lwip/lwip-2.1.2/src/core\memp.c ****   SYS_ARCH_PROTECT(old_level);
 155:C:/Users/stapi/OneDrive/Desktop/GD32VW553/V1_MQTT_OK/GD32VW55X_Wifi_BLE_SDK/GD32VW55x_RELEASE_V1.0.2/MSDK/lwip/lwip-2.1.2/src/core\memp.c **** 
 156:C:/Users/stapi/OneDrive/Desktop/GD32VW553/V1_MQTT_OK/GD32VW55X_Wifi_BLE_SDK/GD32VW55x_RELEASE_V1.0.2/MSDK/lwip/lwip-2.1.2/src/core\memp.c ****   for (i = 0; i < MEMP_MAX; ++i) {
 157:C:/Users/stapi/OneDrive/Desktop/GD32VW553/V1_MQTT_OK/GD32VW55X_Wifi_BLE_SDK/GD32VW55x_RELEASE_V1.0.2/MSDK/lwip/lwip-2.1.2/src/core\memp.c ****     p = (struct memp *)LWIP_MEM_ALIGN(memp_pools[i]->base);
 158:C:/Users/stapi/OneDrive/Desktop/GD32VW553/V1_MQTT_OK/GD32VW55X_Wifi_BLE_SDK/GD32VW55x_RELEASE_V1.0.2/MSDK/lwip/lwip-2.1.2/src/core\memp.c ****     for (j = 0; j < memp_pools[i]->num; ++j) {
 159:C:/Users/stapi/OneDrive/Desktop/GD32VW553/V1_MQTT_OK/GD32VW55X_Wifi_BLE_SDK/GD32VW55x_RELEASE_V1.0.2/MSDK/lwip/lwip-2.1.2/src/core\memp.c ****       memp_overflow_check_element(p, memp_pools[i]);
 160:C:/Users/stapi/OneDrive/Desktop/GD32VW553/V1_MQTT_OK/GD32VW55X_Wifi_BLE_SDK/GD32VW55x_RELEASE_V1.0.2/MSDK/lwip/lwip-2.1.2/src/core\memp.c ****       p = LWIP_ALIGNMENT_CAST(struct memp *, ((u8_t *)p + MEMP_SIZE + memp_pools[i]->size + MEM_SAN
 161:C:/Users/stapi/OneDrive/Desktop/GD32VW553/V1_MQTT_OK/GD32VW55X_Wifi_BLE_SDK/GD32VW55x_RELEASE_V1.0.2/MSDK/lwip/lwip-2.1.2/src/core\memp.c ****     }
 162:C:/Users/stapi/OneDrive/Desktop/GD32VW553/V1_MQTT_OK/GD32VW55X_Wifi_BLE_SDK/GD32VW55x_RELEASE_V1.0.2/MSDK/lwip/lwip-2.1.2/src/core\memp.c ****   }
 163:C:/Users/stapi/OneDrive/Desktop/GD32VW553/V1_MQTT_OK/GD32VW55X_Wifi_BLE_SDK/GD32VW55x_RELEASE_V1.0.2/MSDK/lwip/lwip-2.1.2/src/core\memp.c ****   SYS_ARCH_UNPROTECT(old_level);
 164:C:/Users/stapi/OneDrive/Desktop/GD32VW553/V1_MQTT_OK/GD32VW55X_Wifi_BLE_SDK/GD32VW55x_RELEASE_V1.0.2/MSDK/lwip/lwip-2.1.2/src/core\memp.c **** }
 165:C:/Users/stapi/OneDrive/Desktop/GD32VW553/V1_MQTT_OK/GD32VW55X_Wifi_BLE_SDK/GD32VW55x_RELEASE_V1.0.2/MSDK/lwip/lwip-2.1.2/src/core\memp.c **** #endif /* MEMP_OVERFLOW_CHECK >= 2 */
 166:C:/Users/stapi/OneDrive/Desktop/GD32VW553/V1_MQTT_OK/GD32VW55X_Wifi_BLE_SDK/GD32VW55x_RELEASE_V1.0.2/MSDK/lwip/lwip-2.1.2/src/core\memp.c **** #endif /* MEMP_OVERFLOW_CHECK */
 167:C:/Users/stapi/OneDrive/Desktop/GD32VW553/V1_MQTT_OK/GD32VW55X_Wifi_BLE_SDK/GD32VW55x_RELEASE_V1.0.2/MSDK/lwip/lwip-2.1.2/src/core\memp.c **** 
 168:C:/Users/stapi/OneDrive/Desktop/GD32VW553/V1_MQTT_OK/GD32VW55X_Wifi_BLE_SDK/GD32VW55x_RELEASE_V1.0.2/MSDK/lwip/lwip-2.1.2/src/core\memp.c **** /**
 169:C:/Users/stapi/OneDrive/Desktop/GD32VW553/V1_MQTT_OK/GD32VW55X_Wifi_BLE_SDK/GD32VW55x_RELEASE_V1.0.2/MSDK/lwip/lwip-2.1.2/src/core\memp.c ****  * Initialize custom memory pool.
 170:C:/Users/stapi/OneDrive/Desktop/GD32VW553/V1_MQTT_OK/GD32VW55X_Wifi_BLE_SDK/GD32VW55x_RELEASE_V1.0.2/MSDK/lwip/lwip-2.1.2/src/core\memp.c ****  * Related functions: memp_malloc_pool, memp_free_pool
 171:C:/Users/stapi/OneDrive/Desktop/GD32VW553/V1_MQTT_OK/GD32VW55X_Wifi_BLE_SDK/GD32VW55x_RELEASE_V1.0.2/MSDK/lwip/lwip-2.1.2/src/core\memp.c ****  *
 172:C:/Users/stapi/OneDrive/Desktop/GD32VW553/V1_MQTT_OK/GD32VW55X_Wifi_BLE_SDK/GD32VW55x_RELEASE_V1.0.2/MSDK/lwip/lwip-2.1.2/src/core\memp.c ****  * @param desc pool to initialize
 173:C:/Users/stapi/OneDrive/Desktop/GD32VW553/V1_MQTT_OK/GD32VW55X_Wifi_BLE_SDK/GD32VW55x_RELEASE_V1.0.2/MSDK/lwip/lwip-2.1.2/src/core\memp.c ****  */
 174:C:/Users/stapi/OneDrive/Desktop/GD32VW553/V1_MQTT_OK/GD32VW55X_Wifi_BLE_SDK/GD32VW55x_RELEASE_V1.0.2/MSDK/lwip/lwip-2.1.2/src/core\memp.c **** void
 175:C:/Users/stapi/OneDrive/Desktop/GD32VW553/V1_MQTT_OK/GD32VW55X_Wifi_BLE_SDK/GD32VW55x_RELEASE_V1.0.2/MSDK/lwip/lwip-2.1.2/src/core\memp.c **** memp_init_pool(const struct memp_desc *desc)
 176:C:/Users/stapi/OneDrive/Desktop/GD32VW553/V1_MQTT_OK/GD32VW55X_Wifi_BLE_SDK/GD32VW55x_RELEASE_V1.0.2/MSDK/lwip/lwip-2.1.2/src/core\memp.c **** {
 177:C:/Users/stapi/OneDrive/Desktop/GD32VW553/V1_MQTT_OK/GD32VW55X_Wifi_BLE_SDK/GD32VW55x_RELEASE_V1.0.2/MSDK/lwip/lwip-2.1.2/src/core\memp.c **** #if MEMP_MEM_MALLOC
 178:C:/Users/stapi/OneDrive/Desktop/GD32VW553/V1_MQTT_OK/GD32VW55X_Wifi_BLE_SDK/GD32VW55x_RELEASE_V1.0.2/MSDK/lwip/lwip-2.1.2/src/core\memp.c ****   LWIP_UNUSED_ARG(desc);
 179:C:/Users/stapi/OneDrive/Desktop/GD32VW553/V1_MQTT_OK/GD32VW55X_Wifi_BLE_SDK/GD32VW55x_RELEASE_V1.0.2/MSDK/lwip/lwip-2.1.2/src/core\memp.c **** #else
 180:C:/Users/stapi/OneDrive/Desktop/GD32VW553/V1_MQTT_OK/GD32VW55X_Wifi_BLE_SDK/GD32VW55x_RELEASE_V1.0.2/MSDK/lwip/lwip-2.1.2/src/core\memp.c ****   int i;
 181:C:/Users/stapi/OneDrive/Desktop/GD32VW553/V1_MQTT_OK/GD32VW55X_Wifi_BLE_SDK/GD32VW55x_RELEASE_V1.0.2/MSDK/lwip/lwip-2.1.2/src/core\memp.c ****   struct memp *memp;
 182:C:/Users/stapi/OneDrive/Desktop/GD32VW553/V1_MQTT_OK/GD32VW55X_Wifi_BLE_SDK/GD32VW55x_RELEASE_V1.0.2/MSDK/lwip/lwip-2.1.2/src/core\memp.c **** 
 183:C:/Users/stapi/OneDrive/Desktop/GD32VW553/V1_MQTT_OK/GD32VW55X_Wifi_BLE_SDK/GD32VW55x_RELEASE_V1.0.2/MSDK/lwip/lwip-2.1.2/src/core\memp.c ****   *desc->tab = NULL;
 184:C:/Users/stapi/OneDrive/Desktop/GD32VW553/V1_MQTT_OK/GD32VW55X_Wifi_BLE_SDK/GD32VW55x_RELEASE_V1.0.2/MSDK/lwip/lwip-2.1.2/src/core\memp.c ****   memp = (struct memp *)LWIP_MEM_ALIGN(desc->base);
 185:C:/Users/stapi/OneDrive/Desktop/GD32VW553/V1_MQTT_OK/GD32VW55X_Wifi_BLE_SDK/GD32VW55x_RELEASE_V1.0.2/MSDK/lwip/lwip-2.1.2/src/core\memp.c **** #if MEMP_MEM_INIT
 186:C:/Users/stapi/OneDrive/Desktop/GD32VW553/V1_MQTT_OK/GD32VW55X_Wifi_BLE_SDK/GD32VW55x_RELEASE_V1.0.2/MSDK/lwip/lwip-2.1.2/src/core\memp.c ****   /* force memset on pool memory */
 187:C:/Users/stapi/OneDrive/Desktop/GD32VW553/V1_MQTT_OK/GD32VW55X_Wifi_BLE_SDK/GD32VW55x_RELEASE_V1.0.2/MSDK/lwip/lwip-2.1.2/src/core\memp.c ****   memset(memp, 0, (size_t)desc->num * (MEMP_SIZE + desc->size
 188:C:/Users/stapi/OneDrive/Desktop/GD32VW553/V1_MQTT_OK/GD32VW55X_Wifi_BLE_SDK/GD32VW55x_RELEASE_V1.0.2/MSDK/lwip/lwip-2.1.2/src/core\memp.c **** #if MEMP_OVERFLOW_CHECK
 189:C:/Users/stapi/OneDrive/Desktop/GD32VW553/V1_MQTT_OK/GD32VW55X_Wifi_BLE_SDK/GD32VW55x_RELEASE_V1.0.2/MSDK/lwip/lwip-2.1.2/src/core\memp.c ****                                        + MEM_SANITY_REGION_AFTER_ALIGNED
 190:C:/Users/stapi/OneDrive/Desktop/GD32VW553/V1_MQTT_OK/GD32VW55X_Wifi_BLE_SDK/GD32VW55x_RELEASE_V1.0.2/MSDK/lwip/lwip-2.1.2/src/core\memp.c **** #endif
 191:C:/Users/stapi/OneDrive/Desktop/GD32VW553/V1_MQTT_OK/GD32VW55X_Wifi_BLE_SDK/GD32VW55x_RELEASE_V1.0.2/MSDK/lwip/lwip-2.1.2/src/core\memp.c ****                                       ));
 192:C:/Users/stapi/OneDrive/Desktop/GD32VW553/V1_MQTT_OK/GD32VW55X_Wifi_BLE_SDK/GD32VW55x_RELEASE_V1.0.2/MSDK/lwip/lwip-2.1.2/src/core\memp.c **** #endif
 193:C:/Users/stapi/OneDrive/Desktop/GD32VW553/V1_MQTT_OK/GD32VW55X_Wifi_BLE_SDK/GD32VW55x_RELEASE_V1.0.2/MSDK/lwip/lwip-2.1.2/src/core\memp.c ****   /* create a linked list of memp elements */
 194:C:/Users/stapi/OneDrive/Desktop/GD32VW553/V1_MQTT_OK/GD32VW55X_Wifi_BLE_SDK/GD32VW55x_RELEASE_V1.0.2/MSDK/lwip/lwip-2.1.2/src/core\memp.c ****   for (i = 0; i < desc->num; ++i) {
 195:C:/Users/stapi/OneDrive/Desktop/GD32VW553/V1_MQTT_OK/GD32VW55X_Wifi_BLE_SDK/GD32VW55x_RELEASE_V1.0.2/MSDK/lwip/lwip-2.1.2/src/core\memp.c ****     memp->next = *desc->tab;
 196:C:/Users/stapi/OneDrive/Desktop/GD32VW553/V1_MQTT_OK/GD32VW55X_Wifi_BLE_SDK/GD32VW55x_RELEASE_V1.0.2/MSDK/lwip/lwip-2.1.2/src/core\memp.c ****     *desc->tab = memp;
 197:C:/Users/stapi/OneDrive/Desktop/GD32VW553/V1_MQTT_OK/GD32VW55X_Wifi_BLE_SDK/GD32VW55x_RELEASE_V1.0.2/MSDK/lwip/lwip-2.1.2/src/core\memp.c **** #if MEMP_OVERFLOW_CHECK
 198:C:/Users/stapi/OneDrive/Desktop/GD32VW553/V1_MQTT_OK/GD32VW55X_Wifi_BLE_SDK/GD32VW55x_RELEASE_V1.0.2/MSDK/lwip/lwip-2.1.2/src/core\memp.c ****     memp_overflow_init_element(memp, desc);
 199:C:/Users/stapi/OneDrive/Desktop/GD32VW553/V1_MQTT_OK/GD32VW55X_Wifi_BLE_SDK/GD32VW55x_RELEASE_V1.0.2/MSDK/lwip/lwip-2.1.2/src/core\memp.c **** #endif /* MEMP_OVERFLOW_CHECK */
 200:C:/Users/stapi/OneDrive/Desktop/GD32VW553/V1_MQTT_OK/GD32VW55X_Wifi_BLE_SDK/GD32VW55x_RELEASE_V1.0.2/MSDK/lwip/lwip-2.1.2/src/core\memp.c ****     /* cast through void* to get rid of alignment warnings */
 201:C:/Users/stapi/OneDrive/Desktop/GD32VW553/V1_MQTT_OK/GD32VW55X_Wifi_BLE_SDK/GD32VW55x_RELEASE_V1.0.2/MSDK/lwip/lwip-2.1.2/src/core\memp.c ****     memp = (struct memp *)(void *)((u8_t *)memp + MEMP_SIZE + desc->size
 202:C:/Users/stapi/OneDrive/Desktop/GD32VW553/V1_MQTT_OK/GD32VW55X_Wifi_BLE_SDK/GD32VW55x_RELEASE_V1.0.2/MSDK/lwip/lwip-2.1.2/src/core\memp.c **** #if MEMP_OVERFLOW_CHECK
 203:C:/Users/stapi/OneDrive/Desktop/GD32VW553/V1_MQTT_OK/GD32VW55X_Wifi_BLE_SDK/GD32VW55x_RELEASE_V1.0.2/MSDK/lwip/lwip-2.1.2/src/core\memp.c ****                                    + MEM_SANITY_REGION_AFTER_ALIGNED
 204:C:/Users/stapi/OneDrive/Desktop/GD32VW553/V1_MQTT_OK/GD32VW55X_Wifi_BLE_SDK/GD32VW55x_RELEASE_V1.0.2/MSDK/lwip/lwip-2.1.2/src/core\memp.c **** #endif
 205:C:/Users/stapi/OneDrive/Desktop/GD32VW553/V1_MQTT_OK/GD32VW55X_Wifi_BLE_SDK/GD32VW55x_RELEASE_V1.0.2/MSDK/lwip/lwip-2.1.2/src/core\memp.c ****                                   );
 206:C:/Users/stapi/OneDrive/Desktop/GD32VW553/V1_MQTT_OK/GD32VW55X_Wifi_BLE_SDK/GD32VW55x_RELEASE_V1.0.2/MSDK/lwip/lwip-2.1.2/src/core\memp.c ****   }
 207:C:/Users/stapi/OneDrive/Desktop/GD32VW553/V1_MQTT_OK/GD32VW55X_Wifi_BLE_SDK/GD32VW55x_RELEASE_V1.0.2/MSDK/lwip/lwip-2.1.2/src/core\memp.c **** #if MEMP_STATS
 208:C:/Users/stapi/OneDrive/Desktop/GD32VW553/V1_MQTT_OK/GD32VW55X_Wifi_BLE_SDK/GD32VW55x_RELEASE_V1.0.2/MSDK/lwip/lwip-2.1.2/src/core\memp.c ****   desc->stats->avail = desc->num;
 209:C:/Users/stapi/OneDrive/Desktop/GD32VW553/V1_MQTT_OK/GD32VW55X_Wifi_BLE_SDK/GD32VW55x_RELEASE_V1.0.2/MSDK/lwip/lwip-2.1.2/src/core\memp.c **** #endif /* MEMP_STATS */
 210:C:/Users/stapi/OneDrive/Desktop/GD32VW553/V1_MQTT_OK/GD32VW55X_Wifi_BLE_SDK/GD32VW55x_RELEASE_V1.0.2/MSDK/lwip/lwip-2.1.2/src/core\memp.c **** #endif /* !MEMP_MEM_MALLOC */
 211:C:/Users/stapi/OneDrive/Desktop/GD32VW553/V1_MQTT_OK/GD32VW55X_Wifi_BLE_SDK/GD32VW55x_RELEASE_V1.0.2/MSDK/lwip/lwip-2.1.2/src/core\memp.c **** 
 212:C:/Users/stapi/OneDrive/Desktop/GD32VW553/V1_MQTT_OK/GD32VW55X_Wifi_BLE_SDK/GD32VW55x_RELEASE_V1.0.2/MSDK/lwip/lwip-2.1.2/src/core\memp.c **** #if MEMP_STATS && (defined(LWIP_DEBUG) || LWIP_STATS_DISPLAY)
 213:C:/Users/stapi/OneDrive/Desktop/GD32VW553/V1_MQTT_OK/GD32VW55X_Wifi_BLE_SDK/GD32VW55x_RELEASE_V1.0.2/MSDK/lwip/lwip-2.1.2/src/core\memp.c ****   desc->stats->name  = desc->desc;
 214:C:/Users/stapi/OneDrive/Desktop/GD32VW553/V1_MQTT_OK/GD32VW55X_Wifi_BLE_SDK/GD32VW55x_RELEASE_V1.0.2/MSDK/lwip/lwip-2.1.2/src/core\memp.c **** #endif /* MEMP_STATS && (defined(LWIP_DEBUG) || LWIP_STATS_DISPLAY) */
 215:C:/Users/stapi/OneDrive/Desktop/GD32VW553/V1_MQTT_OK/GD32VW55X_Wifi_BLE_SDK/GD32VW55x_RELEASE_V1.0.2/MSDK/lwip/lwip-2.1.2/src/core\memp.c **** }
 216:C:/Users/stapi/OneDrive/Desktop/GD32VW553/V1_MQTT_OK/GD32VW55X_Wifi_BLE_SDK/GD32VW55x_RELEASE_V1.0.2/MSDK/lwip/lwip-2.1.2/src/core\memp.c **** 
 217:C:/Users/stapi/OneDrive/Desktop/GD32VW553/V1_MQTT_OK/GD32VW55X_Wifi_BLE_SDK/GD32VW55x_RELEASE_V1.0.2/MSDK/lwip/lwip-2.1.2/src/core\memp.c **** /**
 218:C:/Users/stapi/OneDrive/Desktop/GD32VW553/V1_MQTT_OK/GD32VW55X_Wifi_BLE_SDK/GD32VW55x_RELEASE_V1.0.2/MSDK/lwip/lwip-2.1.2/src/core\memp.c ****  * Initializes lwIP built-in pools.
 219:C:/Users/stapi/OneDrive/Desktop/GD32VW553/V1_MQTT_OK/GD32VW55X_Wifi_BLE_SDK/GD32VW55x_RELEASE_V1.0.2/MSDK/lwip/lwip-2.1.2/src/core\memp.c ****  * Related functions: memp_malloc, memp_free
 220:C:/Users/stapi/OneDrive/Desktop/GD32VW553/V1_MQTT_OK/GD32VW55X_Wifi_BLE_SDK/GD32VW55x_RELEASE_V1.0.2/MSDK/lwip/lwip-2.1.2/src/core\memp.c ****  *
 221:C:/Users/stapi/OneDrive/Desktop/GD32VW553/V1_MQTT_OK/GD32VW55X_Wifi_BLE_SDK/GD32VW55x_RELEASE_V1.0.2/MSDK/lwip/lwip-2.1.2/src/core\memp.c ****  * Carves out memp_memory into linked lists for each pool-type.
 222:C:/Users/stapi/OneDrive/Desktop/GD32VW553/V1_MQTT_OK/GD32VW55X_Wifi_BLE_SDK/GD32VW55x_RELEASE_V1.0.2/MSDK/lwip/lwip-2.1.2/src/core\memp.c ****  */
 223:C:/Users/stapi/OneDrive/Desktop/GD32VW553/V1_MQTT_OK/GD32VW55X_Wifi_BLE_SDK/GD32VW55x_RELEASE_V1.0.2/MSDK/lwip/lwip-2.1.2/src/core\memp.c **** void
 224:C:/Users/stapi/OneDrive/Desktop/GD32VW553/V1_MQTT_OK/GD32VW55X_Wifi_BLE_SDK/GD32VW55x_RELEASE_V1.0.2/MSDK/lwip/lwip-2.1.2/src/core\memp.c **** memp_init(void)
 225:C:/Users/stapi/OneDrive/Desktop/GD32VW553/V1_MQTT_OK/GD32VW55X_Wifi_BLE_SDK/GD32VW55x_RELEASE_V1.0.2/MSDK/lwip/lwip-2.1.2/src/core\memp.c **** {
 226:C:/Users/stapi/OneDrive/Desktop/GD32VW553/V1_MQTT_OK/GD32VW55X_Wifi_BLE_SDK/GD32VW55x_RELEASE_V1.0.2/MSDK/lwip/lwip-2.1.2/src/core\memp.c ****   u16_t i;
 227:C:/Users/stapi/OneDrive/Desktop/GD32VW553/V1_MQTT_OK/GD32VW55X_Wifi_BLE_SDK/GD32VW55x_RELEASE_V1.0.2/MSDK/lwip/lwip-2.1.2/src/core\memp.c **** 
 228:C:/Users/stapi/OneDrive/Desktop/GD32VW553/V1_MQTT_OK/GD32VW55X_Wifi_BLE_SDK/GD32VW55x_RELEASE_V1.0.2/MSDK/lwip/lwip-2.1.2/src/core\memp.c ****   /* for every pool: */
 229:C:/Users/stapi/OneDrive/Desktop/GD32VW553/V1_MQTT_OK/GD32VW55X_Wifi_BLE_SDK/GD32VW55x_RELEASE_V1.0.2/MSDK/lwip/lwip-2.1.2/src/core\memp.c ****   for (i = 0; i < LWIP_ARRAYSIZE(memp_pools); i++) {
 230:C:/Users/stapi/OneDrive/Desktop/GD32VW553/V1_MQTT_OK/GD32VW55X_Wifi_BLE_SDK/GD32VW55x_RELEASE_V1.0.2/MSDK/lwip/lwip-2.1.2/src/core\memp.c ****     memp_init_pool(memp_pools[i]);
 231:C:/Users/stapi/OneDrive/Desktop/GD32VW553/V1_MQTT_OK/GD32VW55X_Wifi_BLE_SDK/GD32VW55x_RELEASE_V1.0.2/MSDK/lwip/lwip-2.1.2/src/core\memp.c **** 
 232:C:/Users/stapi/OneDrive/Desktop/GD32VW553/V1_MQTT_OK/GD32VW55X_Wifi_BLE_SDK/GD32VW55x_RELEASE_V1.0.2/MSDK/lwip/lwip-2.1.2/src/core\memp.c **** #if LWIP_STATS && MEMP_STATS
 233:C:/Users/stapi/OneDrive/Desktop/GD32VW553/V1_MQTT_OK/GD32VW55X_Wifi_BLE_SDK/GD32VW55x_RELEASE_V1.0.2/MSDK/lwip/lwip-2.1.2/src/core\memp.c ****     lwip_stats.memp[i] = memp_pools[i]->stats;
 234:C:/Users/stapi/OneDrive/Desktop/GD32VW553/V1_MQTT_OK/GD32VW55X_Wifi_BLE_SDK/GD32VW55x_RELEASE_V1.0.2/MSDK/lwip/lwip-2.1.2/src/core\memp.c **** #endif
 235:C:/Users/stapi/OneDrive/Desktop/GD32VW553/V1_MQTT_OK/GD32VW55X_Wifi_BLE_SDK/GD32VW55x_RELEASE_V1.0.2/MSDK/lwip/lwip-2.1.2/src/core\memp.c ****   }
 236:C:/Users/stapi/OneDrive/Desktop/GD32VW553/V1_MQTT_OK/GD32VW55X_Wifi_BLE_SDK/GD32VW55x_RELEASE_V1.0.2/MSDK/lwip/lwip-2.1.2/src/core\memp.c **** 
 237:C:/Users/stapi/OneDrive/Desktop/GD32VW553/V1_MQTT_OK/GD32VW55X_Wifi_BLE_SDK/GD32VW55x_RELEASE_V1.0.2/MSDK/lwip/lwip-2.1.2/src/core\memp.c **** #if MEMP_OVERFLOW_CHECK >= 2
 238:C:/Users/stapi/OneDrive/Desktop/GD32VW553/V1_MQTT_OK/GD32VW55X_Wifi_BLE_SDK/GD32VW55x_RELEASE_V1.0.2/MSDK/lwip/lwip-2.1.2/src/core\memp.c ****   /* check everything a first time to see if it worked */
 239:C:/Users/stapi/OneDrive/Desktop/GD32VW553/V1_MQTT_OK/GD32VW55X_Wifi_BLE_SDK/GD32VW55x_RELEASE_V1.0.2/MSDK/lwip/lwip-2.1.2/src/core\memp.c ****   memp_overflow_check_all();
 240:C:/Users/stapi/OneDrive/Desktop/GD32VW553/V1_MQTT_OK/GD32VW55X_Wifi_BLE_SDK/GD32VW55x_RELEASE_V1.0.2/MSDK/lwip/lwip-2.1.2/src/core\memp.c **** #endif /* MEMP_OVERFLOW_CHECK >= 2 */
 241:C:/Users/stapi/OneDrive/Desktop/GD32VW553/V1_MQTT_OK/GD32VW55X_Wifi_BLE_SDK/GD32VW55x_RELEASE_V1.0.2/MSDK/lwip/lwip-2.1.2/src/core\memp.c **** }
 242:C:/Users/stapi/OneDrive/Desktop/GD32VW553/V1_MQTT_OK/GD32VW55X_Wifi_BLE_SDK/GD32VW55x_RELEASE_V1.0.2/MSDK/lwip/lwip-2.1.2/src/core\memp.c **** 
 243:C:/Users/stapi/OneDrive/Desktop/GD32VW553/V1_MQTT_OK/GD32VW55X_Wifi_BLE_SDK/GD32VW55x_RELEASE_V1.0.2/MSDK/lwip/lwip-2.1.2/src/core\memp.c **** static void *
 244:C:/Users/stapi/OneDrive/Desktop/GD32VW553/V1_MQTT_OK/GD32VW55X_Wifi_BLE_SDK/GD32VW55x_RELEASE_V1.0.2/MSDK/lwip/lwip-2.1.2/src/core\memp.c **** #if !MEMP_OVERFLOW_CHECK
 245:C:/Users/stapi/OneDrive/Desktop/GD32VW553/V1_MQTT_OK/GD32VW55X_Wifi_BLE_SDK/GD32VW55x_RELEASE_V1.0.2/MSDK/lwip/lwip-2.1.2/src/core\memp.c **** do_memp_malloc_pool(const struct memp_desc *desc)
 246:C:/Users/stapi/OneDrive/Desktop/GD32VW553/V1_MQTT_OK/GD32VW55X_Wifi_BLE_SDK/GD32VW55x_RELEASE_V1.0.2/MSDK/lwip/lwip-2.1.2/src/core\memp.c **** #else
 247:C:/Users/stapi/OneDrive/Desktop/GD32VW553/V1_MQTT_OK/GD32VW55X_Wifi_BLE_SDK/GD32VW55x_RELEASE_V1.0.2/MSDK/lwip/lwip-2.1.2/src/core\memp.c **** do_memp_malloc_pool_fn(const struct memp_desc *desc, const char *file, const int line)
 248:C:/Users/stapi/OneDrive/Desktop/GD32VW553/V1_MQTT_OK/GD32VW55X_Wifi_BLE_SDK/GD32VW55x_RELEASE_V1.0.2/MSDK/lwip/lwip-2.1.2/src/core\memp.c **** #endif
 249:C:/Users/stapi/OneDrive/Desktop/GD32VW553/V1_MQTT_OK/GD32VW55X_Wifi_BLE_SDK/GD32VW55x_RELEASE_V1.0.2/MSDK/lwip/lwip-2.1.2/src/core\memp.c **** {
  25              		.loc 1 249 1
  26              		.cfi_startproc
  27              	.LVL0:
  28 0000 17030000 		call	t0,__riscv_save_1
  28      E7020300 
  29              		.cfi_offset 8, -8
  30              		.cfi_offset 1, -4
  31              		.cfi_def_cfa_offset 16
 250:C:/Users/stapi/OneDrive/Desktop/GD32VW553/V1_MQTT_OK/GD32VW55X_Wifi_BLE_SDK/GD32VW55x_RELEASE_V1.0.2/MSDK/lwip/lwip-2.1.2/src/core\memp.c ****   struct memp *memp;
  32              		.loc 1 250 3
 251:C:/Users/stapi/OneDrive/Desktop/GD32VW553/V1_MQTT_OK/GD32VW55X_Wifi_BLE_SDK/GD32VW55x_RELEASE_V1.0.2/MSDK/lwip/lwip-2.1.2/src/core\memp.c ****   SYS_ARCH_DECL_PROTECT(old_level);
  33              		.loc 1 251 35
 252:C:/Users/stapi/OneDrive/Desktop/GD32VW553/V1_MQTT_OK/GD32VW55X_Wifi_BLE_SDK/GD32VW55x_RELEASE_V1.0.2/MSDK/lwip/lwip-2.1.2/src/core\memp.c **** 
 253:C:/Users/stapi/OneDrive/Desktop/GD32VW553/V1_MQTT_OK/GD32VW55X_Wifi_BLE_SDK/GD32VW55x_RELEASE_V1.0.2/MSDK/lwip/lwip-2.1.2/src/core\memp.c **** #if MEMP_MEM_MALLOC
 254:C:/Users/stapi/OneDrive/Desktop/GD32VW553/V1_MQTT_OK/GD32VW55X_Wifi_BLE_SDK/GD32VW55x_RELEASE_V1.0.2/MSDK/lwip/lwip-2.1.2/src/core\memp.c ****   memp = (struct memp *)mem_malloc(MEMP_SIZE + MEMP_ALIGN_SIZE(desc->size));
 255:C:/Users/stapi/OneDrive/Desktop/GD32VW553/V1_MQTT_OK/GD32VW55X_Wifi_BLE_SDK/GD32VW55x_RELEASE_V1.0.2/MSDK/lwip/lwip-2.1.2/src/core\memp.c ****   SYS_ARCH_PROTECT(old_level);
 256:C:/Users/stapi/OneDrive/Desktop/GD32VW553/V1_MQTT_OK/GD32VW55X_Wifi_BLE_SDK/GD32VW55x_RELEASE_V1.0.2/MSDK/lwip/lwip-2.1.2/src/core\memp.c **** #else /* MEMP_MEM_MALLOC */
 257:C:/Users/stapi/OneDrive/Desktop/GD32VW553/V1_MQTT_OK/GD32VW55X_Wifi_BLE_SDK/GD32VW55x_RELEASE_V1.0.2/MSDK/lwip/lwip-2.1.2/src/core\memp.c ****   SYS_ARCH_PROTECT(old_level);
  34              		.loc 1 257 3
 249:C:/Users/stapi/OneDrive/Desktop/GD32VW553/V1_MQTT_OK/GD32VW55X_Wifi_BLE_SDK/GD32VW55x_RELEASE_V1.0.2/MSDK/lwip/lwip-2.1.2/src/core\memp.c ****   struct memp *memp;
  35              		.loc 1 249 1 is_stmt 0
  36 0008 2A84     		mv	s0,a0
  37              		.loc 1 257 3
  38 000a 97000000 		call	sys_enter_critical
  38      E7800000 
  39              	.LVL1:
 258:C:/Users/stapi/OneDrive/Desktop/GD32VW553/V1_MQTT_OK/GD32VW55X_Wifi_BLE_SDK/GD32VW55x_RELEASE_V1.0.2/MSDK/lwip/lwip-2.1.2/src/core\memp.c **** 
 259:C:/Users/stapi/OneDrive/Desktop/GD32VW553/V1_MQTT_OK/GD32VW55X_Wifi_BLE_SDK/GD32VW55x_RELEASE_V1.0.2/MSDK/lwip/lwip-2.1.2/src/core\memp.c ****   memp = *desc->tab;
  40              		.loc 1 259 3 is_stmt 1
  41              		.loc 1 259 15 is_stmt 0
  42 0012 1C44     		lw	a5,8(s0)
  43              		.loc 1 259 8
  44 0014 8043     		lw	s0,0(a5)
  45              	.LVL2:
 260:C:/Users/stapi/OneDrive/Desktop/GD32VW553/V1_MQTT_OK/GD32VW55X_Wifi_BLE_SDK/GD32VW55x_RELEASE_V1.0.2/MSDK/lwip/lwip-2.1.2/src/core\memp.c **** #endif /* MEMP_MEM_MALLOC */
 261:C:/Users/stapi/OneDrive/Desktop/GD32VW553/V1_MQTT_OK/GD32VW55X_Wifi_BLE_SDK/GD32VW55x_RELEASE_V1.0.2/MSDK/lwip/lwip-2.1.2/src/core\memp.c **** 
 262:C:/Users/stapi/OneDrive/Desktop/GD32VW553/V1_MQTT_OK/GD32VW55X_Wifi_BLE_SDK/GD32VW55x_RELEASE_V1.0.2/MSDK/lwip/lwip-2.1.2/src/core\memp.c ****   if (memp != NULL) {
  46              		.loc 1 262 3 is_stmt 1
  47              		.loc 1 262 6 is_stmt 0
  48 0016 0DC8     		beq	s0,zero,.L2
 263:C:/Users/stapi/OneDrive/Desktop/GD32VW553/V1_MQTT_OK/GD32VW55X_Wifi_BLE_SDK/GD32VW55x_RELEASE_V1.0.2/MSDK/lwip/lwip-2.1.2/src/core\memp.c **** #if !MEMP_MEM_MALLOC
 264:C:/Users/stapi/OneDrive/Desktop/GD32VW553/V1_MQTT_OK/GD32VW55X_Wifi_BLE_SDK/GD32VW55x_RELEASE_V1.0.2/MSDK/lwip/lwip-2.1.2/src/core\memp.c **** #if MEMP_OVERFLOW_CHECK == 1
 265:C:/Users/stapi/OneDrive/Desktop/GD32VW553/V1_MQTT_OK/GD32VW55X_Wifi_BLE_SDK/GD32VW55x_RELEASE_V1.0.2/MSDK/lwip/lwip-2.1.2/src/core\memp.c ****     memp_overflow_check_element(memp, desc);
 266:C:/Users/stapi/OneDrive/Desktop/GD32VW553/V1_MQTT_OK/GD32VW55X_Wifi_BLE_SDK/GD32VW55x_RELEASE_V1.0.2/MSDK/lwip/lwip-2.1.2/src/core\memp.c **** #endif /* MEMP_OVERFLOW_CHECK */
 267:C:/Users/stapi/OneDrive/Desktop/GD32VW553/V1_MQTT_OK/GD32VW55X_Wifi_BLE_SDK/GD32VW55x_RELEASE_V1.0.2/MSDK/lwip/lwip-2.1.2/src/core\memp.c **** 
 268:C:/Users/stapi/OneDrive/Desktop/GD32VW553/V1_MQTT_OK/GD32VW55X_Wifi_BLE_SDK/GD32VW55x_RELEASE_V1.0.2/MSDK/lwip/lwip-2.1.2/src/core\memp.c ****     *desc->tab = memp->next;
  49              		.loc 1 268 5 is_stmt 1
  50              		.loc 1 268 22 is_stmt 0
  51 0018 1840     		lw	a4,0(s0)
  52              		.loc 1 268 16
  53 001a 98C3     		sw	a4,0(a5)
 269:C:/Users/stapi/OneDrive/Desktop/GD32VW553/V1_MQTT_OK/GD32VW55X_Wifi_BLE_SDK/GD32VW55x_RELEASE_V1.0.2/MSDK/lwip/lwip-2.1.2/src/core\memp.c **** #if MEMP_OVERFLOW_CHECK
 270:C:/Users/stapi/OneDrive/Desktop/GD32VW553/V1_MQTT_OK/GD32VW55X_Wifi_BLE_SDK/GD32VW55x_RELEASE_V1.0.2/MSDK/lwip/lwip-2.1.2/src/core\memp.c ****     memp->next = NULL;
 271:C:/Users/stapi/OneDrive/Desktop/GD32VW553/V1_MQTT_OK/GD32VW55X_Wifi_BLE_SDK/GD32VW55x_RELEASE_V1.0.2/MSDK/lwip/lwip-2.1.2/src/core\memp.c **** #endif /* MEMP_OVERFLOW_CHECK */
 272:C:/Users/stapi/OneDrive/Desktop/GD32VW553/V1_MQTT_OK/GD32VW55X_Wifi_BLE_SDK/GD32VW55x_RELEASE_V1.0.2/MSDK/lwip/lwip-2.1.2/src/core\memp.c **** #endif /* !MEMP_MEM_MALLOC */
 273:C:/Users/stapi/OneDrive/Desktop/GD32VW553/V1_MQTT_OK/GD32VW55X_Wifi_BLE_SDK/GD32VW55x_RELEASE_V1.0.2/MSDK/lwip/lwip-2.1.2/src/core\memp.c **** #if MEMP_OVERFLOW_CHECK
 274:C:/Users/stapi/OneDrive/Desktop/GD32VW553/V1_MQTT_OK/GD32VW55X_Wifi_BLE_SDK/GD32VW55x_RELEASE_V1.0.2/MSDK/lwip/lwip-2.1.2/src/core\memp.c ****     memp->file = file;
 275:C:/Users/stapi/OneDrive/Desktop/GD32VW553/V1_MQTT_OK/GD32VW55X_Wifi_BLE_SDK/GD32VW55x_RELEASE_V1.0.2/MSDK/lwip/lwip-2.1.2/src/core\memp.c ****     memp->line = line;
 276:C:/Users/stapi/OneDrive/Desktop/GD32VW553/V1_MQTT_OK/GD32VW55X_Wifi_BLE_SDK/GD32VW55x_RELEASE_V1.0.2/MSDK/lwip/lwip-2.1.2/src/core\memp.c **** #if MEMP_MEM_MALLOC
 277:C:/Users/stapi/OneDrive/Desktop/GD32VW553/V1_MQTT_OK/GD32VW55X_Wifi_BLE_SDK/GD32VW55x_RELEASE_V1.0.2/MSDK/lwip/lwip-2.1.2/src/core\memp.c ****     memp_overflow_init_element(memp, desc);
 278:C:/Users/stapi/OneDrive/Desktop/GD32VW553/V1_MQTT_OK/GD32VW55X_Wifi_BLE_SDK/GD32VW55x_RELEASE_V1.0.2/MSDK/lwip/lwip-2.1.2/src/core\memp.c **** #endif /* MEMP_MEM_MALLOC */
 279:C:/Users/stapi/OneDrive/Desktop/GD32VW553/V1_MQTT_OK/GD32VW55X_Wifi_BLE_SDK/GD32VW55x_RELEASE_V1.0.2/MSDK/lwip/lwip-2.1.2/src/core\memp.c **** #endif /* MEMP_OVERFLOW_CHECK */
 280:C:/Users/stapi/OneDrive/Desktop/GD32VW553/V1_MQTT_OK/GD32VW55X_Wifi_BLE_SDK/GD32VW55x_RELEASE_V1.0.2/MSDK/lwip/lwip-2.1.2/src/core\memp.c ****     LWIP_ASSERT("memp_malloc: memp properly aligned",
  54              		.loc 1 280 5 is_stmt 1
  55              		.loc 1 280 5
  56 001c 93773400 		andi	a5,s0,3
  57 0020 85C7     		beq	a5,zero,.L2
  58              	.LVL3:
  59              	.LBB4:
  60              	.LBB5:
  61              		.loc 1 280 5
  62              		.loc 1 280 5
  63 0022 B7060000 		lui	a3,%hi(.LC0)
  64 0026 B7050000 		lui	a1,%hi(.LC1)
  65 002a 37050000 		lui	a0,%hi(.LC2)
  66 002e 93860600 		addi	a3,a3,%lo(.LC0)
  67 0032 13068011 		li	a2,280
  68 0036 93850500 		addi	a1,a1,%lo(.LC1)
  69 003a 13050500 		addi	a0,a0,%lo(.LC2)
  70 003e 97000000 		call	printf
  70      E7800000 
  71              	.LVL4:
  72              	.L4:
  73              		.loc 1 280 5
  74              		.loc 1 280 5
  75              		.loc 1 280 5
  76 0046 01A0     		j	.L4
  77              	.LVL5:
  78              	.L2:
  79              	.LBE5:
  80              	.LBE4:
 281:C:/Users/stapi/OneDrive/Desktop/GD32VW553/V1_MQTT_OK/GD32VW55X_Wifi_BLE_SDK/GD32VW55x_RELEASE_V1.0.2/MSDK/lwip/lwip-2.1.2/src/core\memp.c ****                 ((mem_ptr_t)memp % MEM_ALIGNMENT) == 0);
 282:C:/Users/stapi/OneDrive/Desktop/GD32VW553/V1_MQTT_OK/GD32VW55X_Wifi_BLE_SDK/GD32VW55x_RELEASE_V1.0.2/MSDK/lwip/lwip-2.1.2/src/core\memp.c **** #if MEMP_STATS
 283:C:/Users/stapi/OneDrive/Desktop/GD32VW553/V1_MQTT_OK/GD32VW55X_Wifi_BLE_SDK/GD32VW55x_RELEASE_V1.0.2/MSDK/lwip/lwip-2.1.2/src/core\memp.c ****     desc->stats->used++;
 284:C:/Users/stapi/OneDrive/Desktop/GD32VW553/V1_MQTT_OK/GD32VW55X_Wifi_BLE_SDK/GD32VW55x_RELEASE_V1.0.2/MSDK/lwip/lwip-2.1.2/src/core\memp.c ****     if (desc->stats->used > desc->stats->max) {
 285:C:/Users/stapi/OneDrive/Desktop/GD32VW553/V1_MQTT_OK/GD32VW55X_Wifi_BLE_SDK/GD32VW55x_RELEASE_V1.0.2/MSDK/lwip/lwip-2.1.2/src/core\memp.c ****       desc->stats->max = desc->stats->used;
 286:C:/Users/stapi/OneDrive/Desktop/GD32VW553/V1_MQTT_OK/GD32VW55X_Wifi_BLE_SDK/GD32VW55x_RELEASE_V1.0.2/MSDK/lwip/lwip-2.1.2/src/core\memp.c ****     }
 287:C:/Users/stapi/OneDrive/Desktop/GD32VW553/V1_MQTT_OK/GD32VW55X_Wifi_BLE_SDK/GD32VW55x_RELEASE_V1.0.2/MSDK/lwip/lwip-2.1.2/src/core\memp.c **** #endif
 288:C:/Users/stapi/OneDrive/Desktop/GD32VW553/V1_MQTT_OK/GD32VW55X_Wifi_BLE_SDK/GD32VW55x_RELEASE_V1.0.2/MSDK/lwip/lwip-2.1.2/src/core\memp.c ****     SYS_ARCH_UNPROTECT(old_level);
 289:C:/Users/stapi/OneDrive/Desktop/GD32VW553/V1_MQTT_OK/GD32VW55X_Wifi_BLE_SDK/GD32VW55x_RELEASE_V1.0.2/MSDK/lwip/lwip-2.1.2/src/core\memp.c ****     /* cast through u8_t* to get rid of alignment warnings */
 290:C:/Users/stapi/OneDrive/Desktop/GD32VW553/V1_MQTT_OK/GD32VW55X_Wifi_BLE_SDK/GD32VW55x_RELEASE_V1.0.2/MSDK/lwip/lwip-2.1.2/src/core\memp.c ****     return ((u8_t *)memp + MEMP_SIZE);
 291:C:/Users/stapi/OneDrive/Desktop/GD32VW553/V1_MQTT_OK/GD32VW55X_Wifi_BLE_SDK/GD32VW55x_RELEASE_V1.0.2/MSDK/lwip/lwip-2.1.2/src/core\memp.c ****   } else {
 292:C:/Users/stapi/OneDrive/Desktop/GD32VW553/V1_MQTT_OK/GD32VW55X_Wifi_BLE_SDK/GD32VW55x_RELEASE_V1.0.2/MSDK/lwip/lwip-2.1.2/src/core\memp.c **** #if MEMP_STATS
 293:C:/Users/stapi/OneDrive/Desktop/GD32VW553/V1_MQTT_OK/GD32VW55X_Wifi_BLE_SDK/GD32VW55x_RELEASE_V1.0.2/MSDK/lwip/lwip-2.1.2/src/core\memp.c ****     desc->stats->err++;
 294:C:/Users/stapi/OneDrive/Desktop/GD32VW553/V1_MQTT_OK/GD32VW55X_Wifi_BLE_SDK/GD32VW55x_RELEASE_V1.0.2/MSDK/lwip/lwip-2.1.2/src/core\memp.c **** #endif
 295:C:/Users/stapi/OneDrive/Desktop/GD32VW553/V1_MQTT_OK/GD32VW55X_Wifi_BLE_SDK/GD32VW55x_RELEASE_V1.0.2/MSDK/lwip/lwip-2.1.2/src/core\memp.c ****     SYS_ARCH_UNPROTECT(old_level);
  81              		.loc 1 295 5
  82 0048 97000000 		call	sys_exit_critical
  82      E7800000 
  83              	.LVL6:
 296:C:/Users/stapi/OneDrive/Desktop/GD32VW553/V1_MQTT_OK/GD32VW55X_Wifi_BLE_SDK/GD32VW55x_RELEASE_V1.0.2/MSDK/lwip/lwip-2.1.2/src/core\memp.c ****     LWIP_DEBUGF(MEMP_DEBUG | LWIP_DBG_LEVEL_SERIOUS, ("memp_malloc: out of memory in pool %s\n", de
  84              		.loc 1 296 110
 297:C:/Users/stapi/OneDrive/Desktop/GD32VW553/V1_MQTT_OK/GD32VW55X_Wifi_BLE_SDK/GD32VW55x_RELEASE_V1.0.2/MSDK/lwip/lwip-2.1.2/src/core\memp.c ****   }
 298:C:/Users/stapi/OneDrive/Desktop/GD32VW553/V1_MQTT_OK/GD32VW55X_Wifi_BLE_SDK/GD32VW55x_RELEASE_V1.0.2/MSDK/lwip/lwip-2.1.2/src/core\memp.c **** 
 299:C:/Users/stapi/OneDrive/Desktop/GD32VW553/V1_MQTT_OK/GD32VW55X_Wifi_BLE_SDK/GD32VW55x_RELEASE_V1.0.2/MSDK/lwip/lwip-2.1.2/src/core\memp.c ****   return NULL;
  85              		.loc 1 299 3
 300:C:/Users/stapi/OneDrive/Desktop/GD32VW553/V1_MQTT_OK/GD32VW55X_Wifi_BLE_SDK/GD32VW55x_RELEASE_V1.0.2/MSDK/lwip/lwip-2.1.2/src/core\memp.c **** }
  86              		.loc 1 300 1 is_stmt 0
  87 0050 2285     		mv	a0,s0
  88 0052 17030000 		tail	__riscv_restore_1
  88      67000300 
  89              		.cfi_restore 8
  90              		.cfi_restore 1
  91              		.cfi_def_cfa_offset 0
  92              		.cfi_endproc
  93              	.LFE6:
  95              		.section	.rodata.do_memp_free_pool.str1.4,"aMS",@progbits,1
  96              		.align	2
  97              	.LC3:
  98 0000 6D656D70 		.string	"memp_free: mem properly aligned"
  98      5F667265 
  98      653A206D 
  98      656D2070 
  98      726F7065 
  99              		.section	.text.do_memp_free_pool,"ax",@progbits
 100              		.align	1
 102              	do_memp_free_pool:
 103              	.LFB9:
 301:C:/Users/stapi/OneDrive/Desktop/GD32VW553/V1_MQTT_OK/GD32VW55X_Wifi_BLE_SDK/GD32VW55x_RELEASE_V1.0.2/MSDK/lwip/lwip-2.1.2/src/core\memp.c **** 
 302:C:/Users/stapi/OneDrive/Desktop/GD32VW553/V1_MQTT_OK/GD32VW55X_Wifi_BLE_SDK/GD32VW55x_RELEASE_V1.0.2/MSDK/lwip/lwip-2.1.2/src/core\memp.c **** /**
 303:C:/Users/stapi/OneDrive/Desktop/GD32VW553/V1_MQTT_OK/GD32VW55X_Wifi_BLE_SDK/GD32VW55x_RELEASE_V1.0.2/MSDK/lwip/lwip-2.1.2/src/core\memp.c ****  * Get an element from a custom pool.
 304:C:/Users/stapi/OneDrive/Desktop/GD32VW553/V1_MQTT_OK/GD32VW55X_Wifi_BLE_SDK/GD32VW55x_RELEASE_V1.0.2/MSDK/lwip/lwip-2.1.2/src/core\memp.c ****  *
 305:C:/Users/stapi/OneDrive/Desktop/GD32VW553/V1_MQTT_OK/GD32VW55X_Wifi_BLE_SDK/GD32VW55x_RELEASE_V1.0.2/MSDK/lwip/lwip-2.1.2/src/core\memp.c ****  * @param desc the pool to get an element from
 306:C:/Users/stapi/OneDrive/Desktop/GD32VW553/V1_MQTT_OK/GD32VW55X_Wifi_BLE_SDK/GD32VW55x_RELEASE_V1.0.2/MSDK/lwip/lwip-2.1.2/src/core\memp.c ****  *
 307:C:/Users/stapi/OneDrive/Desktop/GD32VW553/V1_MQTT_OK/GD32VW55X_Wifi_BLE_SDK/GD32VW55x_RELEASE_V1.0.2/MSDK/lwip/lwip-2.1.2/src/core\memp.c ****  * @return a pointer to the allocated memory or a NULL pointer on error
 308:C:/Users/stapi/OneDrive/Desktop/GD32VW553/V1_MQTT_OK/GD32VW55X_Wifi_BLE_SDK/GD32VW55x_RELEASE_V1.0.2/MSDK/lwip/lwip-2.1.2/src/core\memp.c ****  */
 309:C:/Users/stapi/OneDrive/Desktop/GD32VW553/V1_MQTT_OK/GD32VW55X_Wifi_BLE_SDK/GD32VW55x_RELEASE_V1.0.2/MSDK/lwip/lwip-2.1.2/src/core\memp.c **** void *
 310:C:/Users/stapi/OneDrive/Desktop/GD32VW553/V1_MQTT_OK/GD32VW55X_Wifi_BLE_SDK/GD32VW55x_RELEASE_V1.0.2/MSDK/lwip/lwip-2.1.2/src/core\memp.c **** #if !MEMP_OVERFLOW_CHECK
 311:C:/Users/stapi/OneDrive/Desktop/GD32VW553/V1_MQTT_OK/GD32VW55X_Wifi_BLE_SDK/GD32VW55x_RELEASE_V1.0.2/MSDK/lwip/lwip-2.1.2/src/core\memp.c **** memp_malloc_pool(const struct memp_desc *desc)
 312:C:/Users/stapi/OneDrive/Desktop/GD32VW553/V1_MQTT_OK/GD32VW55X_Wifi_BLE_SDK/GD32VW55x_RELEASE_V1.0.2/MSDK/lwip/lwip-2.1.2/src/core\memp.c **** #else
 313:C:/Users/stapi/OneDrive/Desktop/GD32VW553/V1_MQTT_OK/GD32VW55X_Wifi_BLE_SDK/GD32VW55x_RELEASE_V1.0.2/MSDK/lwip/lwip-2.1.2/src/core\memp.c **** memp_malloc_pool_fn(const struct memp_desc *desc, const char *file, const int line)
 314:C:/Users/stapi/OneDrive/Desktop/GD32VW553/V1_MQTT_OK/GD32VW55X_Wifi_BLE_SDK/GD32VW55x_RELEASE_V1.0.2/MSDK/lwip/lwip-2.1.2/src/core\memp.c **** #endif
 315:C:/Users/stapi/OneDrive/Desktop/GD32VW553/V1_MQTT_OK/GD32VW55X_Wifi_BLE_SDK/GD32VW55x_RELEASE_V1.0.2/MSDK/lwip/lwip-2.1.2/src/core\memp.c **** {
 316:C:/Users/stapi/OneDrive/Desktop/GD32VW553/V1_MQTT_OK/GD32VW55X_Wifi_BLE_SDK/GD32VW55x_RELEASE_V1.0.2/MSDK/lwip/lwip-2.1.2/src/core\memp.c ****   LWIP_ASSERT("invalid pool desc", desc != NULL);
 317:C:/Users/stapi/OneDrive/Desktop/GD32VW553/V1_MQTT_OK/GD32VW55X_Wifi_BLE_SDK/GD32VW55x_RELEASE_V1.0.2/MSDK/lwip/lwip-2.1.2/src/core\memp.c ****   if (desc == NULL) {
 318:C:/Users/stapi/OneDrive/Desktop/GD32VW553/V1_MQTT_OK/GD32VW55X_Wifi_BLE_SDK/GD32VW55x_RELEASE_V1.0.2/MSDK/lwip/lwip-2.1.2/src/core\memp.c ****     return NULL;
 319:C:/Users/stapi/OneDrive/Desktop/GD32VW553/V1_MQTT_OK/GD32VW55X_Wifi_BLE_SDK/GD32VW55x_RELEASE_V1.0.2/MSDK/lwip/lwip-2.1.2/src/core\memp.c ****   }
 320:C:/Users/stapi/OneDrive/Desktop/GD32VW553/V1_MQTT_OK/GD32VW55X_Wifi_BLE_SDK/GD32VW55x_RELEASE_V1.0.2/MSDK/lwip/lwip-2.1.2/src/core\memp.c **** 
 321:C:/Users/stapi/OneDrive/Desktop/GD32VW553/V1_MQTT_OK/GD32VW55X_Wifi_BLE_SDK/GD32VW55x_RELEASE_V1.0.2/MSDK/lwip/lwip-2.1.2/src/core\memp.c **** #if !MEMP_OVERFLOW_CHECK
 322:C:/Users/stapi/OneDrive/Desktop/GD32VW553/V1_MQTT_OK/GD32VW55X_Wifi_BLE_SDK/GD32VW55x_RELEASE_V1.0.2/MSDK/lwip/lwip-2.1.2/src/core\memp.c ****   return do_memp_malloc_pool(desc);
 323:C:/Users/stapi/OneDrive/Desktop/GD32VW553/V1_MQTT_OK/GD32VW55X_Wifi_BLE_SDK/GD32VW55x_RELEASE_V1.0.2/MSDK/lwip/lwip-2.1.2/src/core\memp.c **** #else
 324:C:/Users/stapi/OneDrive/Desktop/GD32VW553/V1_MQTT_OK/GD32VW55X_Wifi_BLE_SDK/GD32VW55x_RELEASE_V1.0.2/MSDK/lwip/lwip-2.1.2/src/core\memp.c ****   return do_memp_malloc_pool_fn(desc, file, line);
 325:C:/Users/stapi/OneDrive/Desktop/GD32VW553/V1_MQTT_OK/GD32VW55X_Wifi_BLE_SDK/GD32VW55x_RELEASE_V1.0.2/MSDK/lwip/lwip-2.1.2/src/core\memp.c **** #endif
 326:C:/Users/stapi/OneDrive/Desktop/GD32VW553/V1_MQTT_OK/GD32VW55X_Wifi_BLE_SDK/GD32VW55x_RELEASE_V1.0.2/MSDK/lwip/lwip-2.1.2/src/core\memp.c **** }
 327:C:/Users/stapi/OneDrive/Desktop/GD32VW553/V1_MQTT_OK/GD32VW55X_Wifi_BLE_SDK/GD32VW55x_RELEASE_V1.0.2/MSDK/lwip/lwip-2.1.2/src/core\memp.c **** 
 328:C:/Users/stapi/OneDrive/Desktop/GD32VW553/V1_MQTT_OK/GD32VW55X_Wifi_BLE_SDK/GD32VW55x_RELEASE_V1.0.2/MSDK/lwip/lwip-2.1.2/src/core\memp.c **** /**
 329:C:/Users/stapi/OneDrive/Desktop/GD32VW553/V1_MQTT_OK/GD32VW55X_Wifi_BLE_SDK/GD32VW55x_RELEASE_V1.0.2/MSDK/lwip/lwip-2.1.2/src/core\memp.c ****  * Get an element from a specific pool.
 330:C:/Users/stapi/OneDrive/Desktop/GD32VW553/V1_MQTT_OK/GD32VW55X_Wifi_BLE_SDK/GD32VW55x_RELEASE_V1.0.2/MSDK/lwip/lwip-2.1.2/src/core\memp.c ****  *
 331:C:/Users/stapi/OneDrive/Desktop/GD32VW553/V1_MQTT_OK/GD32VW55X_Wifi_BLE_SDK/GD32VW55x_RELEASE_V1.0.2/MSDK/lwip/lwip-2.1.2/src/core\memp.c ****  * @param type the pool to get an element from
 332:C:/Users/stapi/OneDrive/Desktop/GD32VW553/V1_MQTT_OK/GD32VW55X_Wifi_BLE_SDK/GD32VW55x_RELEASE_V1.0.2/MSDK/lwip/lwip-2.1.2/src/core\memp.c ****  *
 333:C:/Users/stapi/OneDrive/Desktop/GD32VW553/V1_MQTT_OK/GD32VW55X_Wifi_BLE_SDK/GD32VW55x_RELEASE_V1.0.2/MSDK/lwip/lwip-2.1.2/src/core\memp.c ****  * @return a pointer to the allocated memory or a NULL pointer on error
 334:C:/Users/stapi/OneDrive/Desktop/GD32VW553/V1_MQTT_OK/GD32VW55X_Wifi_BLE_SDK/GD32VW55x_RELEASE_V1.0.2/MSDK/lwip/lwip-2.1.2/src/core\memp.c ****  */
 335:C:/Users/stapi/OneDrive/Desktop/GD32VW553/V1_MQTT_OK/GD32VW55X_Wifi_BLE_SDK/GD32VW55x_RELEASE_V1.0.2/MSDK/lwip/lwip-2.1.2/src/core\memp.c **** void *
 336:C:/Users/stapi/OneDrive/Desktop/GD32VW553/V1_MQTT_OK/GD32VW55X_Wifi_BLE_SDK/GD32VW55x_RELEASE_V1.0.2/MSDK/lwip/lwip-2.1.2/src/core\memp.c **** #if !MEMP_OVERFLOW_CHECK
 337:C:/Users/stapi/OneDrive/Desktop/GD32VW553/V1_MQTT_OK/GD32VW55X_Wifi_BLE_SDK/GD32VW55x_RELEASE_V1.0.2/MSDK/lwip/lwip-2.1.2/src/core\memp.c **** memp_malloc(memp_t type)
 338:C:/Users/stapi/OneDrive/Desktop/GD32VW553/V1_MQTT_OK/GD32VW55X_Wifi_BLE_SDK/GD32VW55x_RELEASE_V1.0.2/MSDK/lwip/lwip-2.1.2/src/core\memp.c **** #else
 339:C:/Users/stapi/OneDrive/Desktop/GD32VW553/V1_MQTT_OK/GD32VW55X_Wifi_BLE_SDK/GD32VW55x_RELEASE_V1.0.2/MSDK/lwip/lwip-2.1.2/src/core\memp.c **** memp_malloc_fn(memp_t type, const char *file, const int line)
 340:C:/Users/stapi/OneDrive/Desktop/GD32VW553/V1_MQTT_OK/GD32VW55X_Wifi_BLE_SDK/GD32VW55x_RELEASE_V1.0.2/MSDK/lwip/lwip-2.1.2/src/core\memp.c **** #endif
 341:C:/Users/stapi/OneDrive/Desktop/GD32VW553/V1_MQTT_OK/GD32VW55X_Wifi_BLE_SDK/GD32VW55x_RELEASE_V1.0.2/MSDK/lwip/lwip-2.1.2/src/core\memp.c **** {
 342:C:/Users/stapi/OneDrive/Desktop/GD32VW553/V1_MQTT_OK/GD32VW55X_Wifi_BLE_SDK/GD32VW55x_RELEASE_V1.0.2/MSDK/lwip/lwip-2.1.2/src/core\memp.c ****   void *memp;
 343:C:/Users/stapi/OneDrive/Desktop/GD32VW553/V1_MQTT_OK/GD32VW55X_Wifi_BLE_SDK/GD32VW55x_RELEASE_V1.0.2/MSDK/lwip/lwip-2.1.2/src/core\memp.c ****   LWIP_ERROR("memp_malloc: type < MEMP_MAX", (type < MEMP_MAX), return NULL;);
 344:C:/Users/stapi/OneDrive/Desktop/GD32VW553/V1_MQTT_OK/GD32VW55X_Wifi_BLE_SDK/GD32VW55x_RELEASE_V1.0.2/MSDK/lwip/lwip-2.1.2/src/core\memp.c **** 
 345:C:/Users/stapi/OneDrive/Desktop/GD32VW553/V1_MQTT_OK/GD32VW55X_Wifi_BLE_SDK/GD32VW55x_RELEASE_V1.0.2/MSDK/lwip/lwip-2.1.2/src/core\memp.c **** #if MEMP_OVERFLOW_CHECK >= 2
 346:C:/Users/stapi/OneDrive/Desktop/GD32VW553/V1_MQTT_OK/GD32VW55X_Wifi_BLE_SDK/GD32VW55x_RELEASE_V1.0.2/MSDK/lwip/lwip-2.1.2/src/core\memp.c ****   memp_overflow_check_all();
 347:C:/Users/stapi/OneDrive/Desktop/GD32VW553/V1_MQTT_OK/GD32VW55X_Wifi_BLE_SDK/GD32VW55x_RELEASE_V1.0.2/MSDK/lwip/lwip-2.1.2/src/core\memp.c **** #endif /* MEMP_OVERFLOW_CHECK >= 2 */
 348:C:/Users/stapi/OneDrive/Desktop/GD32VW553/V1_MQTT_OK/GD32VW55X_Wifi_BLE_SDK/GD32VW55x_RELEASE_V1.0.2/MSDK/lwip/lwip-2.1.2/src/core\memp.c **** 
 349:C:/Users/stapi/OneDrive/Desktop/GD32VW553/V1_MQTT_OK/GD32VW55X_Wifi_BLE_SDK/GD32VW55x_RELEASE_V1.0.2/MSDK/lwip/lwip-2.1.2/src/core\memp.c **** #if !MEMP_OVERFLOW_CHECK
 350:C:/Users/stapi/OneDrive/Desktop/GD32VW553/V1_MQTT_OK/GD32VW55X_Wifi_BLE_SDK/GD32VW55x_RELEASE_V1.0.2/MSDK/lwip/lwip-2.1.2/src/core\memp.c ****   memp = do_memp_malloc_pool(memp_pools[type]);
 351:C:/Users/stapi/OneDrive/Desktop/GD32VW553/V1_MQTT_OK/GD32VW55X_Wifi_BLE_SDK/GD32VW55x_RELEASE_V1.0.2/MSDK/lwip/lwip-2.1.2/src/core\memp.c **** #else
 352:C:/Users/stapi/OneDrive/Desktop/GD32VW553/V1_MQTT_OK/GD32VW55X_Wifi_BLE_SDK/GD32VW55x_RELEASE_V1.0.2/MSDK/lwip/lwip-2.1.2/src/core\memp.c ****   memp = do_memp_malloc_pool_fn(memp_pools[type], file, line);
 353:C:/Users/stapi/OneDrive/Desktop/GD32VW553/V1_MQTT_OK/GD32VW55X_Wifi_BLE_SDK/GD32VW55x_RELEASE_V1.0.2/MSDK/lwip/lwip-2.1.2/src/core\memp.c **** #endif
 354:C:/Users/stapi/OneDrive/Desktop/GD32VW553/V1_MQTT_OK/GD32VW55X_Wifi_BLE_SDK/GD32VW55x_RELEASE_V1.0.2/MSDK/lwip/lwip-2.1.2/src/core\memp.c **** 
 355:C:/Users/stapi/OneDrive/Desktop/GD32VW553/V1_MQTT_OK/GD32VW55X_Wifi_BLE_SDK/GD32VW55x_RELEASE_V1.0.2/MSDK/lwip/lwip-2.1.2/src/core\memp.c ****   return memp;
 356:C:/Users/stapi/OneDrive/Desktop/GD32VW553/V1_MQTT_OK/GD32VW55X_Wifi_BLE_SDK/GD32VW55x_RELEASE_V1.0.2/MSDK/lwip/lwip-2.1.2/src/core\memp.c **** }
 357:C:/Users/stapi/OneDrive/Desktop/GD32VW553/V1_MQTT_OK/GD32VW55X_Wifi_BLE_SDK/GD32VW55x_RELEASE_V1.0.2/MSDK/lwip/lwip-2.1.2/src/core\memp.c **** 
 358:C:/Users/stapi/OneDrive/Desktop/GD32VW553/V1_MQTT_OK/GD32VW55X_Wifi_BLE_SDK/GD32VW55x_RELEASE_V1.0.2/MSDK/lwip/lwip-2.1.2/src/core\memp.c **** static void
 359:C:/Users/stapi/OneDrive/Desktop/GD32VW553/V1_MQTT_OK/GD32VW55X_Wifi_BLE_SDK/GD32VW55x_RELEASE_V1.0.2/MSDK/lwip/lwip-2.1.2/src/core\memp.c **** do_memp_free_pool(const struct memp_desc *desc, void *mem)
 360:C:/Users/stapi/OneDrive/Desktop/GD32VW553/V1_MQTT_OK/GD32VW55X_Wifi_BLE_SDK/GD32VW55x_RELEASE_V1.0.2/MSDK/lwip/lwip-2.1.2/src/core\memp.c **** {
 104              		.loc 1 360 1 is_stmt 1
 105              		.cfi_startproc
 106              	.LVL7:
 107 0000 17030000 		call	t0,__riscv_save_2
 107      E7020300 
 108              		.cfi_offset 9, -12
 109              		.cfi_offset 8, -8
 110              		.cfi_offset 1, -4
 111              		.cfi_def_cfa_offset 16
 361:C:/Users/stapi/OneDrive/Desktop/GD32VW553/V1_MQTT_OK/GD32VW55X_Wifi_BLE_SDK/GD32VW55x_RELEASE_V1.0.2/MSDK/lwip/lwip-2.1.2/src/core\memp.c ****   struct memp *memp;
 112              		.loc 1 361 3
 362:C:/Users/stapi/OneDrive/Desktop/GD32VW553/V1_MQTT_OK/GD32VW55X_Wifi_BLE_SDK/GD32VW55x_RELEASE_V1.0.2/MSDK/lwip/lwip-2.1.2/src/core\memp.c ****   SYS_ARCH_DECL_PROTECT(old_level);
 113              		.loc 1 362 35
 363:C:/Users/stapi/OneDrive/Desktop/GD32VW553/V1_MQTT_OK/GD32VW55X_Wifi_BLE_SDK/GD32VW55x_RELEASE_V1.0.2/MSDK/lwip/lwip-2.1.2/src/core\memp.c **** 
 364:C:/Users/stapi/OneDrive/Desktop/GD32VW553/V1_MQTT_OK/GD32VW55X_Wifi_BLE_SDK/GD32VW55x_RELEASE_V1.0.2/MSDK/lwip/lwip-2.1.2/src/core\memp.c ****   LWIP_ASSERT("memp_free: mem properly aligned",
 114              		.loc 1 364 3
 115              		.loc 1 364 3
 116 0008 93F73500 		andi	a5,a1,3
 117 000c 85C7     		beq	a5,zero,.L8
 118              		.loc 1 364 3 discriminator 1
 119              		.loc 1 364 3 discriminator 1
 120 000e B7060000 		lui	a3,%hi(.LC0)
 121 0012 B7050000 		lui	a1,%hi(.LC3)
 122              	.LVL8:
 123 0016 37050000 		lui	a0,%hi(.LC2)
 124              	.LVL9:
 125 001a 93860600 		addi	a3,a3,%lo(.LC0)
 126 001e 1306C016 		li	a2,364
 127 0022 93850500 		addi	a1,a1,%lo(.LC3)
 128 0026 13050500 		addi	a0,a0,%lo(.LC2)
 129 002a 97000000 		call	printf
 129      E7800000 
 130              	.LVL10:
 131              	.L9:
 132              		.loc 1 364 3 discriminator 1
 133              		.loc 1 364 3 discriminator 1
 134              		.loc 1 364 3 discriminator 1
 135 0032 01A0     		j	.L9
 136              	.LVL11:
 137              	.L8:
 138 0034 2E84     		mv	s0,a1
 139 0036 AA84     		mv	s1,a0
 140              	.LVL12:
 141              	.LBB8:
 142              	.LBB9:
 143              		.loc 1 364 3
 144              		.loc 1 364 3
 365:C:/Users/stapi/OneDrive/Desktop/GD32VW553/V1_MQTT_OK/GD32VW55X_Wifi_BLE_SDK/GD32VW55x_RELEASE_V1.0.2/MSDK/lwip/lwip-2.1.2/src/core\memp.c ****               ((mem_ptr_t)mem % MEM_ALIGNMENT) == 0);
 366:C:/Users/stapi/OneDrive/Desktop/GD32VW553/V1_MQTT_OK/GD32VW55X_Wifi_BLE_SDK/GD32VW55x_RELEASE_V1.0.2/MSDK/lwip/lwip-2.1.2/src/core\memp.c **** 
 367:C:/Users/stapi/OneDrive/Desktop/GD32VW553/V1_MQTT_OK/GD32VW55X_Wifi_BLE_SDK/GD32VW55x_RELEASE_V1.0.2/MSDK/lwip/lwip-2.1.2/src/core\memp.c ****   /* cast through void* to get rid of alignment warnings */
 368:C:/Users/stapi/OneDrive/Desktop/GD32VW553/V1_MQTT_OK/GD32VW55X_Wifi_BLE_SDK/GD32VW55x_RELEASE_V1.0.2/MSDK/lwip/lwip-2.1.2/src/core\memp.c ****   memp = (struct memp *)(void *)((u8_t *)mem - MEMP_SIZE);
 145              		.loc 1 368 3
 369:C:/Users/stapi/OneDrive/Desktop/GD32VW553/V1_MQTT_OK/GD32VW55X_Wifi_BLE_SDK/GD32VW55x_RELEASE_V1.0.2/MSDK/lwip/lwip-2.1.2/src/core\memp.c **** 
 370:C:/Users/stapi/OneDrive/Desktop/GD32VW553/V1_MQTT_OK/GD32VW55X_Wifi_BLE_SDK/GD32VW55x_RELEASE_V1.0.2/MSDK/lwip/lwip-2.1.2/src/core\memp.c ****   SYS_ARCH_PROTECT(old_level);
 146              		.loc 1 370 3
 147 0038 97000000 		call	sys_enter_critical
 147      E7800000 
 148              	.LVL13:
 371:C:/Users/stapi/OneDrive/Desktop/GD32VW553/V1_MQTT_OK/GD32VW55X_Wifi_BLE_SDK/GD32VW55x_RELEASE_V1.0.2/MSDK/lwip/lwip-2.1.2/src/core\memp.c **** 
 372:C:/Users/stapi/OneDrive/Desktop/GD32VW553/V1_MQTT_OK/GD32VW55X_Wifi_BLE_SDK/GD32VW55x_RELEASE_V1.0.2/MSDK/lwip/lwip-2.1.2/src/core\memp.c **** #if MEMP_OVERFLOW_CHECK == 1
 373:C:/Users/stapi/OneDrive/Desktop/GD32VW553/V1_MQTT_OK/GD32VW55X_Wifi_BLE_SDK/GD32VW55x_RELEASE_V1.0.2/MSDK/lwip/lwip-2.1.2/src/core\memp.c ****   memp_overflow_check_element(memp, desc);
 374:C:/Users/stapi/OneDrive/Desktop/GD32VW553/V1_MQTT_OK/GD32VW55X_Wifi_BLE_SDK/GD32VW55x_RELEASE_V1.0.2/MSDK/lwip/lwip-2.1.2/src/core\memp.c **** #endif /* MEMP_OVERFLOW_CHECK */
 375:C:/Users/stapi/OneDrive/Desktop/GD32VW553/V1_MQTT_OK/GD32VW55X_Wifi_BLE_SDK/GD32VW55x_RELEASE_V1.0.2/MSDK/lwip/lwip-2.1.2/src/core\memp.c **** 
 376:C:/Users/stapi/OneDrive/Desktop/GD32VW553/V1_MQTT_OK/GD32VW55X_Wifi_BLE_SDK/GD32VW55x_RELEASE_V1.0.2/MSDK/lwip/lwip-2.1.2/src/core\memp.c **** #if MEMP_STATS
 377:C:/Users/stapi/OneDrive/Desktop/GD32VW553/V1_MQTT_OK/GD32VW55X_Wifi_BLE_SDK/GD32VW55x_RELEASE_V1.0.2/MSDK/lwip/lwip-2.1.2/src/core\memp.c ****   desc->stats->used--;
 378:C:/Users/stapi/OneDrive/Desktop/GD32VW553/V1_MQTT_OK/GD32VW55X_Wifi_BLE_SDK/GD32VW55x_RELEASE_V1.0.2/MSDK/lwip/lwip-2.1.2/src/core\memp.c **** #endif
 379:C:/Users/stapi/OneDrive/Desktop/GD32VW553/V1_MQTT_OK/GD32VW55X_Wifi_BLE_SDK/GD32VW55x_RELEASE_V1.0.2/MSDK/lwip/lwip-2.1.2/src/core\memp.c **** 
 380:C:/Users/stapi/OneDrive/Desktop/GD32VW553/V1_MQTT_OK/GD32VW55X_Wifi_BLE_SDK/GD32VW55x_RELEASE_V1.0.2/MSDK/lwip/lwip-2.1.2/src/core\memp.c **** #if MEMP_MEM_MALLOC
 381:C:/Users/stapi/OneDrive/Desktop/GD32VW553/V1_MQTT_OK/GD32VW55X_Wifi_BLE_SDK/GD32VW55x_RELEASE_V1.0.2/MSDK/lwip/lwip-2.1.2/src/core\memp.c ****   LWIP_UNUSED_ARG(desc);
 382:C:/Users/stapi/OneDrive/Desktop/GD32VW553/V1_MQTT_OK/GD32VW55X_Wifi_BLE_SDK/GD32VW55x_RELEASE_V1.0.2/MSDK/lwip/lwip-2.1.2/src/core\memp.c ****   SYS_ARCH_UNPROTECT(old_level);
 383:C:/Users/stapi/OneDrive/Desktop/GD32VW553/V1_MQTT_OK/GD32VW55X_Wifi_BLE_SDK/GD32VW55x_RELEASE_V1.0.2/MSDK/lwip/lwip-2.1.2/src/core\memp.c ****   mem_free(memp);
 384:C:/Users/stapi/OneDrive/Desktop/GD32VW553/V1_MQTT_OK/GD32VW55X_Wifi_BLE_SDK/GD32VW55x_RELEASE_V1.0.2/MSDK/lwip/lwip-2.1.2/src/core\memp.c **** #else /* MEMP_MEM_MALLOC */
 385:C:/Users/stapi/OneDrive/Desktop/GD32VW553/V1_MQTT_OK/GD32VW55X_Wifi_BLE_SDK/GD32VW55x_RELEASE_V1.0.2/MSDK/lwip/lwip-2.1.2/src/core\memp.c ****   memp->next = *desc->tab;
 149              		.loc 1 385 3
 150              		.loc 1 385 21 is_stmt 0
 151 0040 9C44     		lw	a5,8(s1)
 152              		.loc 1 385 16
 153 0042 9843     		lw	a4,0(a5)
 154              		.loc 1 385 14
 155 0044 18C0     		sw	a4,0(s0)
 386:C:/Users/stapi/OneDrive/Desktop/GD32VW553/V1_MQTT_OK/GD32VW55X_Wifi_BLE_SDK/GD32VW55x_RELEASE_V1.0.2/MSDK/lwip/lwip-2.1.2/src/core\memp.c ****   *desc->tab = memp;
 156              		.loc 1 386 3 is_stmt 1
 157              		.loc 1 386 14 is_stmt 0
 158 0046 80C3     		sw	s0,0(a5)
 387:C:/Users/stapi/OneDrive/Desktop/GD32VW553/V1_MQTT_OK/GD32VW55X_Wifi_BLE_SDK/GD32VW55x_RELEASE_V1.0.2/MSDK/lwip/lwip-2.1.2/src/core\memp.c **** 
 388:C:/Users/stapi/OneDrive/Desktop/GD32VW553/V1_MQTT_OK/GD32VW55X_Wifi_BLE_SDK/GD32VW55x_RELEASE_V1.0.2/MSDK/lwip/lwip-2.1.2/src/core\memp.c **** #if MEMP_SANITY_CHECK
 389:C:/Users/stapi/OneDrive/Desktop/GD32VW553/V1_MQTT_OK/GD32VW55X_Wifi_BLE_SDK/GD32VW55x_RELEASE_V1.0.2/MSDK/lwip/lwip-2.1.2/src/core\memp.c ****   LWIP_ASSERT("memp sanity", memp_sanity(desc));
 390:C:/Users/stapi/OneDrive/Desktop/GD32VW553/V1_MQTT_OK/GD32VW55X_Wifi_BLE_SDK/GD32VW55x_RELEASE_V1.0.2/MSDK/lwip/lwip-2.1.2/src/core\memp.c **** #endif /* MEMP_SANITY_CHECK */
 391:C:/Users/stapi/OneDrive/Desktop/GD32VW553/V1_MQTT_OK/GD32VW55X_Wifi_BLE_SDK/GD32VW55x_RELEASE_V1.0.2/MSDK/lwip/lwip-2.1.2/src/core\memp.c **** 
 392:C:/Users/stapi/OneDrive/Desktop/GD32VW553/V1_MQTT_OK/GD32VW55X_Wifi_BLE_SDK/GD32VW55x_RELEASE_V1.0.2/MSDK/lwip/lwip-2.1.2/src/core\memp.c ****   SYS_ARCH_UNPROTECT(old_level);
 159              		.loc 1 392 3 is_stmt 1
 160 0048 97000000 		call	sys_exit_critical
 160      E7800000 
 161              	.LVL14:
 162              	.LBE9:
 163              	.LBE8:
 393:C:/Users/stapi/OneDrive/Desktop/GD32VW553/V1_MQTT_OK/GD32VW55X_Wifi_BLE_SDK/GD32VW55x_RELEASE_V1.0.2/MSDK/lwip/lwip-2.1.2/src/core\memp.c **** #endif /* !MEMP_MEM_MALLOC */
 394:C:/Users/stapi/OneDrive/Desktop/GD32VW553/V1_MQTT_OK/GD32VW55X_Wifi_BLE_SDK/GD32VW55x_RELEASE_V1.0.2/MSDK/lwip/lwip-2.1.2/src/core\memp.c **** }
 164              		.loc 1 394 1 is_stmt 0
 165 0050 17030000 		tail	__riscv_restore_2
 165      67000300 
 166              		.cfi_restore 9
 167              		.cfi_restore 8
 168              		.cfi_restore 1
 169              		.cfi_def_cfa_offset 0
 170              		.cfi_endproc
 171              	.LFE9:
 173              		.section	.text.memp_init_pool,"ax",@progbits
 174              		.align	1
 175              		.globl	memp_init_pool
 177              	memp_init_pool:
 178              	.LFB4:
 176:C:/Users/stapi/OneDrive/Desktop/GD32VW553/V1_MQTT_OK/GD32VW55X_Wifi_BLE_SDK/GD32VW55x_RELEASE_V1.0.2/MSDK/lwip/lwip-2.1.2/src/core\memp.c **** #if MEMP_MEM_MALLOC
 179              		.loc 1 176 1 is_stmt 1
 180              		.cfi_startproc
 181              	.LVL15:
 180:C:/Users/stapi/OneDrive/Desktop/GD32VW553/V1_MQTT_OK/GD32VW55X_Wifi_BLE_SDK/GD32VW55x_RELEASE_V1.0.2/MSDK/lwip/lwip-2.1.2/src/core\memp.c ****   struct memp *memp;
 182              		.loc 1 180 3
 181:C:/Users/stapi/OneDrive/Desktop/GD32VW553/V1_MQTT_OK/GD32VW55X_Wifi_BLE_SDK/GD32VW55x_RELEASE_V1.0.2/MSDK/lwip/lwip-2.1.2/src/core\memp.c **** 
 183              		.loc 1 181 3
 183:C:/Users/stapi/OneDrive/Desktop/GD32VW553/V1_MQTT_OK/GD32VW55X_Wifi_BLE_SDK/GD32VW55x_RELEASE_V1.0.2/MSDK/lwip/lwip-2.1.2/src/core\memp.c ****   memp = (struct memp *)LWIP_MEM_ALIGN(desc->base);
 184              		.loc 1 183 3
 184:C:/Users/stapi/OneDrive/Desktop/GD32VW553/V1_MQTT_OK/GD32VW55X_Wifi_BLE_SDK/GD32VW55x_RELEASE_V1.0.2/MSDK/lwip/lwip-2.1.2/src/core\memp.c **** #if MEMP_MEM_INIT
 185              		.loc 1 184 25 is_stmt 0
 186 0000 5C41     		lw	a5,4(a0)
 183:C:/Users/stapi/OneDrive/Desktop/GD32VW553/V1_MQTT_OK/GD32VW55X_Wifi_BLE_SDK/GD32VW55x_RELEASE_V1.0.2/MSDK/lwip/lwip-2.1.2/src/core\memp.c ****   memp = (struct memp *)LWIP_MEM_ALIGN(desc->base);
 187              		.loc 1 183 8
 188 0002 1445     		lw	a3,8(a0)
 194:C:/Users/stapi/OneDrive/Desktop/GD32VW553/V1_MQTT_OK/GD32VW55X_Wifi_BLE_SDK/GD32VW55x_RELEASE_V1.0.2/MSDK/lwip/lwip-2.1.2/src/core\memp.c ****     memp->next = *desc->tab;
 189              		.loc 1 194 23
 190 0004 03562500 		lhu	a2,2(a0)
 184:C:/Users/stapi/OneDrive/Desktop/GD32VW553/V1_MQTT_OK/GD32VW55X_Wifi_BLE_SDK/GD32VW55x_RELEASE_V1.0.2/MSDK/lwip/lwip-2.1.2/src/core\memp.c **** #if MEMP_MEM_INIT
 191              		.loc 1 184 25
 192 0008 8D07     		addi	a5,a5,3
 183:C:/Users/stapi/OneDrive/Desktop/GD32VW553/V1_MQTT_OK/GD32VW55X_Wifi_BLE_SDK/GD32VW55x_RELEASE_V1.0.2/MSDK/lwip/lwip-2.1.2/src/core\memp.c ****   memp = (struct memp *)LWIP_MEM_ALIGN(desc->base);
 193              		.loc 1 183 14
 194 000a 23A00600 		sw	zero,0(a3)
 184:C:/Users/stapi/OneDrive/Desktop/GD32VW553/V1_MQTT_OK/GD32VW55X_Wifi_BLE_SDK/GD32VW55x_RELEASE_V1.0.2/MSDK/lwip/lwip-2.1.2/src/core\memp.c **** #if MEMP_MEM_INIT
 195              		.loc 1 184 3 is_stmt 1
 184:C:/Users/stapi/OneDrive/Desktop/GD32VW553/V1_MQTT_OK/GD32VW55X_Wifi_BLE_SDK/GD32VW55x_RELEASE_V1.0.2/MSDK/lwip/lwip-2.1.2/src/core\memp.c **** #if MEMP_MEM_INIT
 196              		.loc 1 184 25 is_stmt 0
 197 000e F19B     		andi	a5,a5,-4
 198              	.LVL16:
 194:C:/Users/stapi/OneDrive/Desktop/GD32VW553/V1_MQTT_OK/GD32VW55X_Wifi_BLE_SDK/GD32VW55x_RELEASE_V1.0.2/MSDK/lwip/lwip-2.1.2/src/core\memp.c ****     memp->next = *desc->tab;
 199              		.loc 1 194 3 is_stmt 1
 194:C:/Users/stapi/OneDrive/Desktop/GD32VW553/V1_MQTT_OK/GD32VW55X_Wifi_BLE_SDK/GD32VW55x_RELEASE_V1.0.2/MSDK/lwip/lwip-2.1.2/src/core\memp.c ****     memp->next = *desc->tab;
 200              		.loc 1 194 10 is_stmt 0
 201 0010 0147     		li	a4,0
 202              	.LVL17:
 203              	.L12:
 194:C:/Users/stapi/OneDrive/Desktop/GD32VW553/V1_MQTT_OK/GD32VW55X_Wifi_BLE_SDK/GD32VW55x_RELEASE_V1.0.2/MSDK/lwip/lwip-2.1.2/src/core\memp.c ****     memp->next = *desc->tab;
 204              		.loc 1 194 15 is_stmt 1 discriminator 1
 194:C:/Users/stapi/OneDrive/Desktop/GD32VW553/V1_MQTT_OK/GD32VW55X_Wifi_BLE_SDK/GD32VW55x_RELEASE_V1.0.2/MSDK/lwip/lwip-2.1.2/src/core\memp.c ****     memp->next = *desc->tab;
 205              		.loc 1 194 3 is_stmt 0 discriminator 1
 206 0012 6343C700 		bgt	a2,a4,.L13
 215:C:/Users/stapi/OneDrive/Desktop/GD32VW553/V1_MQTT_OK/GD32VW55X_Wifi_BLE_SDK/GD32VW55x_RELEASE_V1.0.2/MSDK/lwip/lwip-2.1.2/src/core\memp.c **** 
 207              		.loc 1 215 1
 208 0016 8280     		ret
 209              	.L13:
 195:C:/Users/stapi/OneDrive/Desktop/GD32VW553/V1_MQTT_OK/GD32VW55X_Wifi_BLE_SDK/GD32VW55x_RELEASE_V1.0.2/MSDK/lwip/lwip-2.1.2/src/core\memp.c ****     *desc->tab = memp;
 210              		.loc 1 195 5 is_stmt 1 discriminator 3
 195:C:/Users/stapi/OneDrive/Desktop/GD32VW553/V1_MQTT_OK/GD32VW55X_Wifi_BLE_SDK/GD32VW55x_RELEASE_V1.0.2/MSDK/lwip/lwip-2.1.2/src/core\memp.c ****     *desc->tab = memp;
 211              		.loc 1 195 18 is_stmt 0 discriminator 3
 212 0018 8C42     		lw	a1,0(a3)
 194:C:/Users/stapi/OneDrive/Desktop/GD32VW553/V1_MQTT_OK/GD32VW55X_Wifi_BLE_SDK/GD32VW55x_RELEASE_V1.0.2/MSDK/lwip/lwip-2.1.2/src/core\memp.c ****     memp->next = *desc->tab;
 213              		.loc 1 194 30 discriminator 3
 214 001a 0507     		addi	a4,a4,1
 215              	.LVL18:
 195:C:/Users/stapi/OneDrive/Desktop/GD32VW553/V1_MQTT_OK/GD32VW55X_Wifi_BLE_SDK/GD32VW55x_RELEASE_V1.0.2/MSDK/lwip/lwip-2.1.2/src/core\memp.c ****     *desc->tab = memp;
 216              		.loc 1 195 16 discriminator 3
 217 001c 8CC3     		sw	a1,0(a5)
 196:C:/Users/stapi/OneDrive/Desktop/GD32VW553/V1_MQTT_OK/GD32VW55X_Wifi_BLE_SDK/GD32VW55x_RELEASE_V1.0.2/MSDK/lwip/lwip-2.1.2/src/core\memp.c **** #if MEMP_OVERFLOW_CHECK
 218              		.loc 1 196 5 is_stmt 1 discriminator 3
 201:C:/Users/stapi/OneDrive/Desktop/GD32VW553/V1_MQTT_OK/GD32VW55X_Wifi_BLE_SDK/GD32VW55x_RELEASE_V1.0.2/MSDK/lwip/lwip-2.1.2/src/core\memp.c **** #if MEMP_OVERFLOW_CHECK
 219              		.loc 1 201 67 is_stmt 0 discriminator 3
 220 001e 83550500 		lhu	a1,0(a0)
 196:C:/Users/stapi/OneDrive/Desktop/GD32VW553/V1_MQTT_OK/GD32VW55X_Wifi_BLE_SDK/GD32VW55x_RELEASE_V1.0.2/MSDK/lwip/lwip-2.1.2/src/core\memp.c **** #if MEMP_OVERFLOW_CHECK
 221              		.loc 1 196 16 discriminator 3
 222 0022 9CC2     		sw	a5,0(a3)
 201:C:/Users/stapi/OneDrive/Desktop/GD32VW553/V1_MQTT_OK/GD32VW55X_Wifi_BLE_SDK/GD32VW55x_RELEASE_V1.0.2/MSDK/lwip/lwip-2.1.2/src/core\memp.c **** #if MEMP_OVERFLOW_CHECK
 223              		.loc 1 201 5 is_stmt 1 discriminator 3
 201:C:/Users/stapi/OneDrive/Desktop/GD32VW553/V1_MQTT_OK/GD32VW55X_Wifi_BLE_SDK/GD32VW55x_RELEASE_V1.0.2/MSDK/lwip/lwip-2.1.2/src/core\memp.c **** #if MEMP_OVERFLOW_CHECK
 224              		.loc 1 201 10 is_stmt 0 discriminator 3
 225 0024 AE97     		add	a5,a5,a1
 226              	.LVL19:
 194:C:/Users/stapi/OneDrive/Desktop/GD32VW553/V1_MQTT_OK/GD32VW55X_Wifi_BLE_SDK/GD32VW55x_RELEASE_V1.0.2/MSDK/lwip/lwip-2.1.2/src/core\memp.c ****     memp->next = *desc->tab;
 227              		.loc 1 194 30 is_stmt 1 discriminator 3
 228 0026 F5B7     		j	.L12
 229              		.cfi_endproc
 230              	.LFE4:
 232              		.section	.text.memp_init,"ax",@progbits
 233              		.align	1
 234              		.globl	memp_init
 236              	memp_init:
 237              	.LFB5:
 225:C:/Users/stapi/OneDrive/Desktop/GD32VW553/V1_MQTT_OK/GD32VW55X_Wifi_BLE_SDK/GD32VW55x_RELEASE_V1.0.2/MSDK/lwip/lwip-2.1.2/src/core\memp.c ****   u16_t i;
 238              		.loc 1 225 1
 239              		.cfi_startproc
 240 0000 17030000 		call	t0,__riscv_save_2
 240      E7020300 
 241              		.cfi_offset 9, -12
 242              		.cfi_offset 8, -8
 243              		.cfi_offset 1, -4
 244              		.cfi_def_cfa_offset 16
 226:C:/Users/stapi/OneDrive/Desktop/GD32VW553/V1_MQTT_OK/GD32VW55X_Wifi_BLE_SDK/GD32VW55x_RELEASE_V1.0.2/MSDK/lwip/lwip-2.1.2/src/core\memp.c **** 
 245              		.loc 1 226 3
 229:C:/Users/stapi/OneDrive/Desktop/GD32VW553/V1_MQTT_OK/GD32VW55X_Wifi_BLE_SDK/GD32VW55x_RELEASE_V1.0.2/MSDK/lwip/lwip-2.1.2/src/core\memp.c ****     memp_init_pool(memp_pools[i]);
 246              		.loc 1 229 3
 247              	.LVL20:
 229:C:/Users/stapi/OneDrive/Desktop/GD32VW553/V1_MQTT_OK/GD32VW55X_Wifi_BLE_SDK/GD32VW55x_RELEASE_V1.0.2/MSDK/lwip/lwip-2.1.2/src/core\memp.c ****     memp_init_pool(memp_pools[i]);
 248              		.loc 1 229 15
 249 0008 37040000 		lui	s0,%hi(.LANCHOR0)
 250 000c 13040400 		addi	s0,s0,%lo(.LANCHOR0)
 251 0010 93044404 		addi	s1,s0,68
 252              	.LVL21:
 253              	.L15:
 230:C:/Users/stapi/OneDrive/Desktop/GD32VW553/V1_MQTT_OK/GD32VW55X_Wifi_BLE_SDK/GD32VW55x_RELEASE_V1.0.2/MSDK/lwip/lwip-2.1.2/src/core\memp.c **** 
 254              		.loc 1 230 5 discriminator 3
 255 0014 0840     		lw	a0,0(s0)
 229:C:/Users/stapi/OneDrive/Desktop/GD32VW553/V1_MQTT_OK/GD32VW55X_Wifi_BLE_SDK/GD32VW55x_RELEASE_V1.0.2/MSDK/lwip/lwip-2.1.2/src/core\memp.c ****     memp_init_pool(memp_pools[i]);
 256              		.loc 1 229 3 is_stmt 0 discriminator 3
 257 0016 1104     		addi	s0,s0,4
 258              	.LVL22:
 230:C:/Users/stapi/OneDrive/Desktop/GD32VW553/V1_MQTT_OK/GD32VW55X_Wifi_BLE_SDK/GD32VW55x_RELEASE_V1.0.2/MSDK/lwip/lwip-2.1.2/src/core\memp.c **** 
 259              		.loc 1 230 5 discriminator 3
 260 0018 97000000 		call	memp_init_pool
 260      E7800000 
 261              	.LVL23:
 229:C:/Users/stapi/OneDrive/Desktop/GD32VW553/V1_MQTT_OK/GD32VW55X_Wifi_BLE_SDK/GD32VW55x_RELEASE_V1.0.2/MSDK/lwip/lwip-2.1.2/src/core\memp.c ****     memp_init_pool(memp_pools[i]);
 262              		.loc 1 229 47 is_stmt 1 discriminator 3
 229:C:/Users/stapi/OneDrive/Desktop/GD32VW553/V1_MQTT_OK/GD32VW55X_Wifi_BLE_SDK/GD32VW55x_RELEASE_V1.0.2/MSDK/lwip/lwip-2.1.2/src/core\memp.c ****     memp_init_pool(memp_pools[i]);
 263              		.loc 1 229 15 discriminator 3
 229:C:/Users/stapi/OneDrive/Desktop/GD32VW553/V1_MQTT_OK/GD32VW55X_Wifi_BLE_SDK/GD32VW55x_RELEASE_V1.0.2/MSDK/lwip/lwip-2.1.2/src/core\memp.c ****     memp_init_pool(memp_pools[i]);
 264              		.loc 1 229 3 is_stmt 0 discriminator 3
 265 0020 E31A94FE 		bne	s0,s1,.L15
 241:C:/Users/stapi/OneDrive/Desktop/GD32VW553/V1_MQTT_OK/GD32VW55X_Wifi_BLE_SDK/GD32VW55x_RELEASE_V1.0.2/MSDK/lwip/lwip-2.1.2/src/core\memp.c **** 
 266              		.loc 1 241 1
 267 0024 17030000 		tail	__riscv_restore_2
 267      67000300 
 268              		.cfi_restore 9
 269              		.cfi_restore 8
 270              		.cfi_restore 1
 271              		.cfi_def_cfa_offset 0
 272              		.cfi_endproc
 273              	.LFE5:
 275              		.section	.rodata.memp_malloc_pool.str1.4,"aMS",@progbits,1
 276              		.align	2
 277              	.LC4:
 278 0000 696E7661 		.string	"invalid pool desc"
 278      6C696420 
 278      706F6F6C 
 278      20646573 
 278      6300
 279              		.section	.text.memp_malloc_pool,"ax",@progbits
 280              		.align	1
 281              		.globl	memp_malloc_pool
 283              	memp_malloc_pool:
 284              	.LFB7:
 315:C:/Users/stapi/OneDrive/Desktop/GD32VW553/V1_MQTT_OK/GD32VW55X_Wifi_BLE_SDK/GD32VW55x_RELEASE_V1.0.2/MSDK/lwip/lwip-2.1.2/src/core\memp.c ****   LWIP_ASSERT("invalid pool desc", desc != NULL);
 285              		.loc 1 315 1 is_stmt 1
 286              		.cfi_startproc
 287              	.LVL24:
 288 0000 17030000 		call	t0,__riscv_save_0
 288      E7020300 
 289              		.cfi_offset 1, -4
 290              		.cfi_def_cfa_offset 16
 316:C:/Users/stapi/OneDrive/Desktop/GD32VW553/V1_MQTT_OK/GD32VW55X_Wifi_BLE_SDK/GD32VW55x_RELEASE_V1.0.2/MSDK/lwip/lwip-2.1.2/src/core\memp.c ****   if (desc == NULL) {
 291              		.loc 1 316 3
 316:C:/Users/stapi/OneDrive/Desktop/GD32VW553/V1_MQTT_OK/GD32VW55X_Wifi_BLE_SDK/GD32VW55x_RELEASE_V1.0.2/MSDK/lwip/lwip-2.1.2/src/core\memp.c ****   if (desc == NULL) {
 292              		.loc 1 316 3
 293 0008 05E5     		bne	a0,zero,.L19
 316:C:/Users/stapi/OneDrive/Desktop/GD32VW553/V1_MQTT_OK/GD32VW55X_Wifi_BLE_SDK/GD32VW55x_RELEASE_V1.0.2/MSDK/lwip/lwip-2.1.2/src/core\memp.c ****   if (desc == NULL) {
 294              		.loc 1 316 3 discriminator 1
 316:C:/Users/stapi/OneDrive/Desktop/GD32VW553/V1_MQTT_OK/GD32VW55X_Wifi_BLE_SDK/GD32VW55x_RELEASE_V1.0.2/MSDK/lwip/lwip-2.1.2/src/core\memp.c ****   if (desc == NULL) {
 295              		.loc 1 316 3 discriminator 1
 296 000a B7060000 		lui	a3,%hi(.LC0)
 297 000e B7050000 		lui	a1,%hi(.LC4)
 298 0012 37050000 		lui	a0,%hi(.LC2)
 299              	.LVL25:
 300 0016 93860600 		addi	a3,a3,%lo(.LC0)
 301 001a 1306C013 		li	a2,316
 302 001e 93850500 		addi	a1,a1,%lo(.LC4)
 303 0022 13050500 		addi	a0,a0,%lo(.LC2)
 304 0026 97000000 		call	printf
 304      E7800000 
 305              	.LVL26:
 306              	.L20:
 316:C:/Users/stapi/OneDrive/Desktop/GD32VW553/V1_MQTT_OK/GD32VW55X_Wifi_BLE_SDK/GD32VW55x_RELEASE_V1.0.2/MSDK/lwip/lwip-2.1.2/src/core\memp.c ****   if (desc == NULL) {
 307              		.loc 1 316 3 discriminator 1
 316:C:/Users/stapi/OneDrive/Desktop/GD32VW553/V1_MQTT_OK/GD32VW55X_Wifi_BLE_SDK/GD32VW55x_RELEASE_V1.0.2/MSDK/lwip/lwip-2.1.2/src/core\memp.c ****   if (desc == NULL) {
 308              		.loc 1 316 3 discriminator 1
 316:C:/Users/stapi/OneDrive/Desktop/GD32VW553/V1_MQTT_OK/GD32VW55X_Wifi_BLE_SDK/GD32VW55x_RELEASE_V1.0.2/MSDK/lwip/lwip-2.1.2/src/core\memp.c ****   if (desc == NULL) {
 309              		.loc 1 316 3 discriminator 1
 310 002e 01A0     		j	.L20
 311              	.LVL27:
 312              	.L19:
 316:C:/Users/stapi/OneDrive/Desktop/GD32VW553/V1_MQTT_OK/GD32VW55X_Wifi_BLE_SDK/GD32VW55x_RELEASE_V1.0.2/MSDK/lwip/lwip-2.1.2/src/core\memp.c ****   if (desc == NULL) {
 313              		.loc 1 316 3
 316:C:/Users/stapi/OneDrive/Desktop/GD32VW553/V1_MQTT_OK/GD32VW55X_Wifi_BLE_SDK/GD32VW55x_RELEASE_V1.0.2/MSDK/lwip/lwip-2.1.2/src/core\memp.c ****   if (desc == NULL) {
 314              		.loc 1 316 3
 317:C:/Users/stapi/OneDrive/Desktop/GD32VW553/V1_MQTT_OK/GD32VW55X_Wifi_BLE_SDK/GD32VW55x_RELEASE_V1.0.2/MSDK/lwip/lwip-2.1.2/src/core\memp.c ****     return NULL;
 315              		.loc 1 317 3
 322:C:/Users/stapi/OneDrive/Desktop/GD32VW553/V1_MQTT_OK/GD32VW55X_Wifi_BLE_SDK/GD32VW55x_RELEASE_V1.0.2/MSDK/lwip/lwip-2.1.2/src/core\memp.c **** #else
 316              		.loc 1 322 3
 322:C:/Users/stapi/OneDrive/Desktop/GD32VW553/V1_MQTT_OK/GD32VW55X_Wifi_BLE_SDK/GD32VW55x_RELEASE_V1.0.2/MSDK/lwip/lwip-2.1.2/src/core\memp.c **** #else
 317              		.loc 1 322 10 is_stmt 0
 318 0030 97000000 		call	do_memp_malloc_pool
 318      E7800000 
 319              	.LVL28:
 326:C:/Users/stapi/OneDrive/Desktop/GD32VW553/V1_MQTT_OK/GD32VW55X_Wifi_BLE_SDK/GD32VW55x_RELEASE_V1.0.2/MSDK/lwip/lwip-2.1.2/src/core\memp.c **** 
 320              		.loc 1 326 1
 321 0038 17030000 		tail	__riscv_restore_0
 321      67000300 
 322              		.cfi_restore 1
 323              		.cfi_def_cfa_offset 0
 324              		.cfi_endproc
 325              	.LFE7:
 327              		.section	.rodata.memp_malloc.str1.4,"aMS",@progbits,1
 328              		.align	2
 329              	.LC5:
 330 0000 6D656D70 		.string	"memp_malloc: type < MEMP_MAX"
 330      5F6D616C 
 330      6C6F633A 
 330      20747970 
 330      65203C20 
 331              		.section	.text.memp_malloc,"ax",@progbits
 332              		.align	1
 333              		.globl	memp_malloc
 335              	memp_malloc:
 336              	.LFB8:
 341:C:/Users/stapi/OneDrive/Desktop/GD32VW553/V1_MQTT_OK/GD32VW55X_Wifi_BLE_SDK/GD32VW55x_RELEASE_V1.0.2/MSDK/lwip/lwip-2.1.2/src/core\memp.c ****   void *memp;
 337              		.loc 1 341 1 is_stmt 1
 338              		.cfi_startproc
 339              	.LVL29:
 340 0000 17030000 		call	t0,__riscv_save_0
 340      E7020300 
 341              		.cfi_offset 1, -4
 342              		.cfi_def_cfa_offset 16
 342:C:/Users/stapi/OneDrive/Desktop/GD32VW553/V1_MQTT_OK/GD32VW55X_Wifi_BLE_SDK/GD32VW55x_RELEASE_V1.0.2/MSDK/lwip/lwip-2.1.2/src/core\memp.c ****   LWIP_ERROR("memp_malloc: type < MEMP_MAX", (type < MEMP_MAX), return NULL;);
 343              		.loc 1 342 3
 343:C:/Users/stapi/OneDrive/Desktop/GD32VW553/V1_MQTT_OK/GD32VW55X_Wifi_BLE_SDK/GD32VW55x_RELEASE_V1.0.2/MSDK/lwip/lwip-2.1.2/src/core\memp.c **** 
 344              		.loc 1 343 3
 343:C:/Users/stapi/OneDrive/Desktop/GD32VW553/V1_MQTT_OK/GD32VW55X_Wifi_BLE_SDK/GD32VW55x_RELEASE_V1.0.2/MSDK/lwip/lwip-2.1.2/src/core\memp.c **** 
 345              		.loc 1 343 3
 346 0008 C147     		li	a5,16
 347 000a 63F5A702 		bleu	a0,a5,.L23
 343:C:/Users/stapi/OneDrive/Desktop/GD32VW553/V1_MQTT_OK/GD32VW55X_Wifi_BLE_SDK/GD32VW55x_RELEASE_V1.0.2/MSDK/lwip/lwip-2.1.2/src/core\memp.c **** 
 348              		.loc 1 343 3 discriminator 1
 343:C:/Users/stapi/OneDrive/Desktop/GD32VW553/V1_MQTT_OK/GD32VW55X_Wifi_BLE_SDK/GD32VW55x_RELEASE_V1.0.2/MSDK/lwip/lwip-2.1.2/src/core\memp.c **** 
 349              		.loc 1 343 3 discriminator 1
 350 000e B7060000 		lui	a3,%hi(.LC0)
 351 0012 B7050000 		lui	a1,%hi(.LC5)
 352 0016 37050000 		lui	a0,%hi(.LC2)
 353              	.LVL30:
 354 001a 93860600 		addi	a3,a3,%lo(.LC0)
 355 001e 13067015 		li	a2,343
 356 0022 93850500 		addi	a1,a1,%lo(.LC5)
 357 0026 13050500 		addi	a0,a0,%lo(.LC2)
 358 002a 97000000 		call	printf
 358      E7800000 
 359              	.LVL31:
 360              	.L24:
 343:C:/Users/stapi/OneDrive/Desktop/GD32VW553/V1_MQTT_OK/GD32VW55X_Wifi_BLE_SDK/GD32VW55x_RELEASE_V1.0.2/MSDK/lwip/lwip-2.1.2/src/core\memp.c **** 
 361              		.loc 1 343 3 discriminator 1
 343:C:/Users/stapi/OneDrive/Desktop/GD32VW553/V1_MQTT_OK/GD32VW55X_Wifi_BLE_SDK/GD32VW55x_RELEASE_V1.0.2/MSDK/lwip/lwip-2.1.2/src/core\memp.c **** 
 362              		.loc 1 343 3 discriminator 1
 343:C:/Users/stapi/OneDrive/Desktop/GD32VW553/V1_MQTT_OK/GD32VW55X_Wifi_BLE_SDK/GD32VW55x_RELEASE_V1.0.2/MSDK/lwip/lwip-2.1.2/src/core\memp.c **** 
 363              		.loc 1 343 3 discriminator 1
 364 0032 01A0     		j	.L24
 365              	.LVL32:
 366              	.L23:
 343:C:/Users/stapi/OneDrive/Desktop/GD32VW553/V1_MQTT_OK/GD32VW55X_Wifi_BLE_SDK/GD32VW55x_RELEASE_V1.0.2/MSDK/lwip/lwip-2.1.2/src/core\memp.c **** 
 367              		.loc 1 343 3 discriminator 2
 343:C:/Users/stapi/OneDrive/Desktop/GD32VW553/V1_MQTT_OK/GD32VW55X_Wifi_BLE_SDK/GD32VW55x_RELEASE_V1.0.2/MSDK/lwip/lwip-2.1.2/src/core\memp.c **** 
 368              		.loc 1 343 3 discriminator 2
 350:C:/Users/stapi/OneDrive/Desktop/GD32VW553/V1_MQTT_OK/GD32VW55X_Wifi_BLE_SDK/GD32VW55x_RELEASE_V1.0.2/MSDK/lwip/lwip-2.1.2/src/core\memp.c **** #else
 369              		.loc 1 350 3 discriminator 2
 350:C:/Users/stapi/OneDrive/Desktop/GD32VW553/V1_MQTT_OK/GD32VW55X_Wifi_BLE_SDK/GD32VW55x_RELEASE_V1.0.2/MSDK/lwip/lwip-2.1.2/src/core\memp.c **** #else
 370              		.loc 1 350 10 is_stmt 0 discriminator 2
 371 0034 B7070000 		lui	a5,%hi(.LANCHOR0)
 372 0038 93870700 		addi	a5,a5,%lo(.LANCHOR0)
 373 003c 3345F520 		sh2add	a0,a0,a5
 374              	.LVL33:
 375 0040 0841     		lw	a0,0(a0)
 376 0042 97000000 		call	do_memp_malloc_pool
 376      E7800000 
 377              	.LVL34:
 355:C:/Users/stapi/OneDrive/Desktop/GD32VW553/V1_MQTT_OK/GD32VW55X_Wifi_BLE_SDK/GD32VW55x_RELEASE_V1.0.2/MSDK/lwip/lwip-2.1.2/src/core\memp.c **** }
 378              		.loc 1 355 3 is_stmt 1 discriminator 2
 356:C:/Users/stapi/OneDrive/Desktop/GD32VW553/V1_MQTT_OK/GD32VW55X_Wifi_BLE_SDK/GD32VW55x_RELEASE_V1.0.2/MSDK/lwip/lwip-2.1.2/src/core\memp.c **** 
 379              		.loc 1 356 1 is_stmt 0 discriminator 2
 380 004a 17030000 		tail	__riscv_restore_0
 380      67000300 
 381              		.cfi_restore 1
 382              		.cfi_def_cfa_offset 0
 383              		.cfi_endproc
 384              	.LFE8:
 386              		.section	.text.memp_free_pool,"ax",@progbits
 387              		.align	1
 388              		.globl	memp_free_pool
 390              	memp_free_pool:
 391              	.LFB10:
 395:C:/Users/stapi/OneDrive/Desktop/GD32VW553/V1_MQTT_OK/GD32VW55X_Wifi_BLE_SDK/GD32VW55x_RELEASE_V1.0.2/MSDK/lwip/lwip-2.1.2/src/core\memp.c **** 
 396:C:/Users/stapi/OneDrive/Desktop/GD32VW553/V1_MQTT_OK/GD32VW55X_Wifi_BLE_SDK/GD32VW55x_RELEASE_V1.0.2/MSDK/lwip/lwip-2.1.2/src/core\memp.c **** /**
 397:C:/Users/stapi/OneDrive/Desktop/GD32VW553/V1_MQTT_OK/GD32VW55X_Wifi_BLE_SDK/GD32VW55x_RELEASE_V1.0.2/MSDK/lwip/lwip-2.1.2/src/core\memp.c ****  * Put a custom pool element back into its pool.
 398:C:/Users/stapi/OneDrive/Desktop/GD32VW553/V1_MQTT_OK/GD32VW55X_Wifi_BLE_SDK/GD32VW55x_RELEASE_V1.0.2/MSDK/lwip/lwip-2.1.2/src/core\memp.c ****  *
 399:C:/Users/stapi/OneDrive/Desktop/GD32VW553/V1_MQTT_OK/GD32VW55X_Wifi_BLE_SDK/GD32VW55x_RELEASE_V1.0.2/MSDK/lwip/lwip-2.1.2/src/core\memp.c ****  * @param desc the pool where to put mem
 400:C:/Users/stapi/OneDrive/Desktop/GD32VW553/V1_MQTT_OK/GD32VW55X_Wifi_BLE_SDK/GD32VW55x_RELEASE_V1.0.2/MSDK/lwip/lwip-2.1.2/src/core\memp.c ****  * @param mem the memp element to free
 401:C:/Users/stapi/OneDrive/Desktop/GD32VW553/V1_MQTT_OK/GD32VW55X_Wifi_BLE_SDK/GD32VW55x_RELEASE_V1.0.2/MSDK/lwip/lwip-2.1.2/src/core\memp.c ****  */
 402:C:/Users/stapi/OneDrive/Desktop/GD32VW553/V1_MQTT_OK/GD32VW55X_Wifi_BLE_SDK/GD32VW55x_RELEASE_V1.0.2/MSDK/lwip/lwip-2.1.2/src/core\memp.c **** void
 403:C:/Users/stapi/OneDrive/Desktop/GD32VW553/V1_MQTT_OK/GD32VW55X_Wifi_BLE_SDK/GD32VW55x_RELEASE_V1.0.2/MSDK/lwip/lwip-2.1.2/src/core\memp.c **** memp_free_pool(const struct memp_desc *desc, void *mem)
 404:C:/Users/stapi/OneDrive/Desktop/GD32VW553/V1_MQTT_OK/GD32VW55X_Wifi_BLE_SDK/GD32VW55x_RELEASE_V1.0.2/MSDK/lwip/lwip-2.1.2/src/core\memp.c **** {
 392              		.loc 1 404 1 is_stmt 1
 393              		.cfi_startproc
 394              	.LVL35:
 395 0000 17030000 		call	t0,__riscv_save_0
 395      E7020300 
 396              		.cfi_offset 1, -4
 397              		.cfi_def_cfa_offset 16
 405:C:/Users/stapi/OneDrive/Desktop/GD32VW553/V1_MQTT_OK/GD32VW55X_Wifi_BLE_SDK/GD32VW55x_RELEASE_V1.0.2/MSDK/lwip/lwip-2.1.2/src/core\memp.c ****   LWIP_ASSERT("invalid pool desc", desc != NULL);
 398              		.loc 1 405 3
 399              		.loc 1 405 3
 400 0008 05E5     		bne	a0,zero,.L27
 401              		.loc 1 405 3 discriminator 1
 402              		.loc 1 405 3 discriminator 1
 403 000a B7060000 		lui	a3,%hi(.LC0)
 404 000e B7050000 		lui	a1,%hi(.LC4)
 405              	.LVL36:
 406 0012 37050000 		lui	a0,%hi(.LC2)
 407              	.LVL37:
 408 0016 93860600 		addi	a3,a3,%lo(.LC0)
 409 001a 13065019 		li	a2,405
 410 001e 93850500 		addi	a1,a1,%lo(.LC4)
 411 0022 13050500 		addi	a0,a0,%lo(.LC2)
 412 0026 97000000 		call	printf
 412      E7800000 
 413              	.LVL38:
 414              	.L28:
 415              		.loc 1 405 3 discriminator 1
 416              		.loc 1 405 3 discriminator 1
 417              		.loc 1 405 3 discriminator 1
 418 002e 01A0     		j	.L28
 419              	.LVL39:
 420              	.L27:
 421              		.loc 1 405 3 discriminator 1
 422              		.loc 1 405 3 discriminator 1
 406:C:/Users/stapi/OneDrive/Desktop/GD32VW553/V1_MQTT_OK/GD32VW55X_Wifi_BLE_SDK/GD32VW55x_RELEASE_V1.0.2/MSDK/lwip/lwip-2.1.2/src/core\memp.c ****   if ((desc == NULL) || (mem == NULL)) {
 423              		.loc 1 406 3 discriminator 1
 424              		.loc 1 406 22 is_stmt 0 discriminator 1
 425 0030 89C5     		beq	a1,zero,.L26
 407:C:/Users/stapi/OneDrive/Desktop/GD32VW553/V1_MQTT_OK/GD32VW55X_Wifi_BLE_SDK/GD32VW55x_RELEASE_V1.0.2/MSDK/lwip/lwip-2.1.2/src/core\memp.c ****     return;
 408:C:/Users/stapi/OneDrive/Desktop/GD32VW553/V1_MQTT_OK/GD32VW55X_Wifi_BLE_SDK/GD32VW55x_RELEASE_V1.0.2/MSDK/lwip/lwip-2.1.2/src/core\memp.c ****   }
 409:C:/Users/stapi/OneDrive/Desktop/GD32VW553/V1_MQTT_OK/GD32VW55X_Wifi_BLE_SDK/GD32VW55x_RELEASE_V1.0.2/MSDK/lwip/lwip-2.1.2/src/core\memp.c **** 
 410:C:/Users/stapi/OneDrive/Desktop/GD32VW553/V1_MQTT_OK/GD32VW55X_Wifi_BLE_SDK/GD32VW55x_RELEASE_V1.0.2/MSDK/lwip/lwip-2.1.2/src/core\memp.c ****   do_memp_free_pool(desc, mem);
 426              		.loc 1 410 3 is_stmt 1
 427 0032 97000000 		call	do_memp_free_pool
 427      E7800000 
 428              	.LVL40:
 429              	.L26:
 411:C:/Users/stapi/OneDrive/Desktop/GD32VW553/V1_MQTT_OK/GD32VW55X_Wifi_BLE_SDK/GD32VW55x_RELEASE_V1.0.2/MSDK/lwip/lwip-2.1.2/src/core\memp.c **** }
 430              		.loc 1 411 1 is_stmt 0
 431 003a 17030000 		tail	__riscv_restore_0
 431      67000300 
 432              		.cfi_restore 1
 433              		.cfi_def_cfa_offset 0
 434              		.cfi_endproc
 435              	.LFE10:
 437              		.section	.rodata.memp_free.str1.4,"aMS",@progbits,1
 438              		.align	2
 439              	.LC6:
 440 0000 6D656D70 		.string	"memp_free: type < MEMP_MAX"
 440      5F667265 
 440      653A2074 
 440      79706520 
 440      3C204D45 
 441              		.section	.text.memp_free,"ax",@progbits
 442              		.align	1
 443              		.globl	memp_free
 445              	memp_free:
 446              	.LFB11:
 412:C:/Users/stapi/OneDrive/Desktop/GD32VW553/V1_MQTT_OK/GD32VW55X_Wifi_BLE_SDK/GD32VW55x_RELEASE_V1.0.2/MSDK/lwip/lwip-2.1.2/src/core\memp.c **** 
 413:C:/Users/stapi/OneDrive/Desktop/GD32VW553/V1_MQTT_OK/GD32VW55X_Wifi_BLE_SDK/GD32VW55x_RELEASE_V1.0.2/MSDK/lwip/lwip-2.1.2/src/core\memp.c **** /**
 414:C:/Users/stapi/OneDrive/Desktop/GD32VW553/V1_MQTT_OK/GD32VW55X_Wifi_BLE_SDK/GD32VW55x_RELEASE_V1.0.2/MSDK/lwip/lwip-2.1.2/src/core\memp.c ****  * Put an element back into its pool.
 415:C:/Users/stapi/OneDrive/Desktop/GD32VW553/V1_MQTT_OK/GD32VW55X_Wifi_BLE_SDK/GD32VW55x_RELEASE_V1.0.2/MSDK/lwip/lwip-2.1.2/src/core\memp.c ****  *
 416:C:/Users/stapi/OneDrive/Desktop/GD32VW553/V1_MQTT_OK/GD32VW55X_Wifi_BLE_SDK/GD32VW55x_RELEASE_V1.0.2/MSDK/lwip/lwip-2.1.2/src/core\memp.c ****  * @param type the pool where to put mem
 417:C:/Users/stapi/OneDrive/Desktop/GD32VW553/V1_MQTT_OK/GD32VW55X_Wifi_BLE_SDK/GD32VW55x_RELEASE_V1.0.2/MSDK/lwip/lwip-2.1.2/src/core\memp.c ****  * @param mem the memp element to free
 418:C:/Users/stapi/OneDrive/Desktop/GD32VW553/V1_MQTT_OK/GD32VW55X_Wifi_BLE_SDK/GD32VW55x_RELEASE_V1.0.2/MSDK/lwip/lwip-2.1.2/src/core\memp.c ****  */
 419:C:/Users/stapi/OneDrive/Desktop/GD32VW553/V1_MQTT_OK/GD32VW55X_Wifi_BLE_SDK/GD32VW55x_RELEASE_V1.0.2/MSDK/lwip/lwip-2.1.2/src/core\memp.c **** void
 420:C:/Users/stapi/OneDrive/Desktop/GD32VW553/V1_MQTT_OK/GD32VW55X_Wifi_BLE_SDK/GD32VW55x_RELEASE_V1.0.2/MSDK/lwip/lwip-2.1.2/src/core\memp.c **** memp_free(memp_t type, void *mem)
 421:C:/Users/stapi/OneDrive/Desktop/GD32VW553/V1_MQTT_OK/GD32VW55X_Wifi_BLE_SDK/GD32VW55x_RELEASE_V1.0.2/MSDK/lwip/lwip-2.1.2/src/core\memp.c **** {
 447              		.loc 1 421 1 is_stmt 1
 448              		.cfi_startproc
 449              	.LVL41:
 450 0000 17030000 		call	t0,__riscv_save_0
 450      E7020300 
 451              		.cfi_offset 1, -4
 452              		.cfi_def_cfa_offset 16
 422:C:/Users/stapi/OneDrive/Desktop/GD32VW553/V1_MQTT_OK/GD32VW55X_Wifi_BLE_SDK/GD32VW55x_RELEASE_V1.0.2/MSDK/lwip/lwip-2.1.2/src/core\memp.c **** #ifdef LWIP_HOOK_MEMP_AVAILABLE
 423:C:/Users/stapi/OneDrive/Desktop/GD32VW553/V1_MQTT_OK/GD32VW55X_Wifi_BLE_SDK/GD32VW55x_RELEASE_V1.0.2/MSDK/lwip/lwip-2.1.2/src/core\memp.c ****   struct memp *old_first;
 424:C:/Users/stapi/OneDrive/Desktop/GD32VW553/V1_MQTT_OK/GD32VW55X_Wifi_BLE_SDK/GD32VW55x_RELEASE_V1.0.2/MSDK/lwip/lwip-2.1.2/src/core\memp.c **** #endif
 425:C:/Users/stapi/OneDrive/Desktop/GD32VW553/V1_MQTT_OK/GD32VW55X_Wifi_BLE_SDK/GD32VW55x_RELEASE_V1.0.2/MSDK/lwip/lwip-2.1.2/src/core\memp.c **** 
 426:C:/Users/stapi/OneDrive/Desktop/GD32VW553/V1_MQTT_OK/GD32VW55X_Wifi_BLE_SDK/GD32VW55x_RELEASE_V1.0.2/MSDK/lwip/lwip-2.1.2/src/core\memp.c ****   LWIP_ERROR("memp_free: type < MEMP_MAX", (type < MEMP_MAX), return;);
 453              		.loc 1 426 3
 454              		.loc 1 426 3
 455 0008 4147     		li	a4,16
 456 000a 6375A702 		bleu	a0,a4,.L35
 457              		.loc 1 426 3 discriminator 1
 458              		.loc 1 426 3 discriminator 1
 459 000e B7060000 		lui	a3,%hi(.LC0)
 460 0012 B7050000 		lui	a1,%hi(.LC6)
 461              	.LVL42:
 462 0016 37050000 		lui	a0,%hi(.LC2)
 463              	.LVL43:
 464 001a 93860600 		addi	a3,a3,%lo(.LC0)
 465 001e 1306A01A 		li	a2,426
 466 0022 93850500 		addi	a1,a1,%lo(.LC6)
 467 0026 13050500 		addi	a0,a0,%lo(.LC2)
 468 002a 97000000 		call	printf
 468      E7800000 
 469              	.LVL44:
 470              	.L36:
 471              		.loc 1 426 3 discriminator 1
 472              		.loc 1 426 3 discriminator 1
 473              		.loc 1 426 3 discriminator 1
 474 0032 01A0     		j	.L36
 475              	.LVL45:
 476              	.L35:
 477              		.loc 1 426 3 discriminator 2
 478              		.loc 1 426 3 discriminator 2
 427:C:/Users/stapi/OneDrive/Desktop/GD32VW553/V1_MQTT_OK/GD32VW55X_Wifi_BLE_SDK/GD32VW55x_RELEASE_V1.0.2/MSDK/lwip/lwip-2.1.2/src/core\memp.c **** 
 428:C:/Users/stapi/OneDrive/Desktop/GD32VW553/V1_MQTT_OK/GD32VW55X_Wifi_BLE_SDK/GD32VW55x_RELEASE_V1.0.2/MSDK/lwip/lwip-2.1.2/src/core\memp.c ****   if (mem == NULL) {
 479              		.loc 1 428 3 discriminator 2
 480              		.loc 1 428 6 is_stmt 0 discriminator 2
 481 0034 81CD     		beq	a1,zero,.L34
 429:C:/Users/stapi/OneDrive/Desktop/GD32VW553/V1_MQTT_OK/GD32VW55X_Wifi_BLE_SDK/GD32VW55x_RELEASE_V1.0.2/MSDK/lwip/lwip-2.1.2/src/core\memp.c ****     return;
 430:C:/Users/stapi/OneDrive/Desktop/GD32VW553/V1_MQTT_OK/GD32VW55X_Wifi_BLE_SDK/GD32VW55x_RELEASE_V1.0.2/MSDK/lwip/lwip-2.1.2/src/core\memp.c ****   }
 431:C:/Users/stapi/OneDrive/Desktop/GD32VW553/V1_MQTT_OK/GD32VW55X_Wifi_BLE_SDK/GD32VW55x_RELEASE_V1.0.2/MSDK/lwip/lwip-2.1.2/src/core\memp.c **** 
 432:C:/Users/stapi/OneDrive/Desktop/GD32VW553/V1_MQTT_OK/GD32VW55X_Wifi_BLE_SDK/GD32VW55x_RELEASE_V1.0.2/MSDK/lwip/lwip-2.1.2/src/core\memp.c **** #if MEMP_OVERFLOW_CHECK >= 2
 433:C:/Users/stapi/OneDrive/Desktop/GD32VW553/V1_MQTT_OK/GD32VW55X_Wifi_BLE_SDK/GD32VW55x_RELEASE_V1.0.2/MSDK/lwip/lwip-2.1.2/src/core\memp.c ****   memp_overflow_check_all();
 434:C:/Users/stapi/OneDrive/Desktop/GD32VW553/V1_MQTT_OK/GD32VW55X_Wifi_BLE_SDK/GD32VW55x_RELEASE_V1.0.2/MSDK/lwip/lwip-2.1.2/src/core\memp.c **** #endif /* MEMP_OVERFLOW_CHECK >= 2 */
 435:C:/Users/stapi/OneDrive/Desktop/GD32VW553/V1_MQTT_OK/GD32VW55X_Wifi_BLE_SDK/GD32VW55x_RELEASE_V1.0.2/MSDK/lwip/lwip-2.1.2/src/core\memp.c **** 
 436:C:/Users/stapi/OneDrive/Desktop/GD32VW553/V1_MQTT_OK/GD32VW55X_Wifi_BLE_SDK/GD32VW55x_RELEASE_V1.0.2/MSDK/lwip/lwip-2.1.2/src/core\memp.c **** #ifdef LWIP_HOOK_MEMP_AVAILABLE
 437:C:/Users/stapi/OneDrive/Desktop/GD32VW553/V1_MQTT_OK/GD32VW55X_Wifi_BLE_SDK/GD32VW55x_RELEASE_V1.0.2/MSDK/lwip/lwip-2.1.2/src/core\memp.c ****   old_first = *memp_pools[type]->tab;
 438:C:/Users/stapi/OneDrive/Desktop/GD32VW553/V1_MQTT_OK/GD32VW55X_Wifi_BLE_SDK/GD32VW55x_RELEASE_V1.0.2/MSDK/lwip/lwip-2.1.2/src/core\memp.c **** #endif
 439:C:/Users/stapi/OneDrive/Desktop/GD32VW553/V1_MQTT_OK/GD32VW55X_Wifi_BLE_SDK/GD32VW55x_RELEASE_V1.0.2/MSDK/lwip/lwip-2.1.2/src/core\memp.c **** 
 440:C:/Users/stapi/OneDrive/Desktop/GD32VW553/V1_MQTT_OK/GD32VW55X_Wifi_BLE_SDK/GD32VW55x_RELEASE_V1.0.2/MSDK/lwip/lwip-2.1.2/src/core\memp.c ****   do_memp_free_pool(memp_pools[type], mem);
 482              		.loc 1 440 3 is_stmt 1
 483 0036 B7070000 		lui	a5,%hi(.LANCHOR0)
 484 003a 93870700 		addi	a5,a5,%lo(.LANCHOR0)
 485 003e 3345F520 		sh2add	a0,a0,a5
 486              	.LVL46:
 487 0042 0841     		lw	a0,0(a0)
 488 0044 97000000 		call	do_memp_free_pool
 488      E7800000 
 489              	.LVL47:
 490              	.L34:
 441:C:/Users/stapi/OneDrive/Desktop/GD32VW553/V1_MQTT_OK/GD32VW55X_Wifi_BLE_SDK/GD32VW55x_RELEASE_V1.0.2/MSDK/lwip/lwip-2.1.2/src/core\memp.c **** 
 442:C:/Users/stapi/OneDrive/Desktop/GD32VW553/V1_MQTT_OK/GD32VW55X_Wifi_BLE_SDK/GD32VW55x_RELEASE_V1.0.2/MSDK/lwip/lwip-2.1.2/src/core\memp.c **** #ifdef LWIP_HOOK_MEMP_AVAILABLE
 443:C:/Users/stapi/OneDrive/Desktop/GD32VW553/V1_MQTT_OK/GD32VW55X_Wifi_BLE_SDK/GD32VW55x_RELEASE_V1.0.2/MSDK/lwip/lwip-2.1.2/src/core\memp.c ****   if (old_first == NULL) {
 444:C:/Users/stapi/OneDrive/Desktop/GD32VW553/V1_MQTT_OK/GD32VW55X_Wifi_BLE_SDK/GD32VW55x_RELEASE_V1.0.2/MSDK/lwip/lwip-2.1.2/src/core\memp.c ****     LWIP_HOOK_MEMP_AVAILABLE(type);
 445:C:/Users/stapi/OneDrive/Desktop/GD32VW553/V1_MQTT_OK/GD32VW55X_Wifi_BLE_SDK/GD32VW55x_RELEASE_V1.0.2/MSDK/lwip/lwip-2.1.2/src/core\memp.c ****   }
 446:C:/Users/stapi/OneDrive/Desktop/GD32VW553/V1_MQTT_OK/GD32VW55X_Wifi_BLE_SDK/GD32VW55x_RELEASE_V1.0.2/MSDK/lwip/lwip-2.1.2/src/core\memp.c **** #endif
 447:C:/Users/stapi/OneDrive/Desktop/GD32VW553/V1_MQTT_OK/GD32VW55X_Wifi_BLE_SDK/GD32VW55x_RELEASE_V1.0.2/MSDK/lwip/lwip-2.1.2/src/core\memp.c **** }
 491              		.loc 1 447 1 is_stmt 0
 492 004c 17030000 		tail	__riscv_restore_0
 492      67000300 
 493              		.cfi_restore 1
 494              		.cfi_def_cfa_offset 0
 495              		.cfi_endproc
 496              	.LFE11:
 498              		.globl	memp_pools
 499              		.globl	memp_PBUF_POOL
 500              		.globl	memp_memory_PBUF_POOL_base
 501              		.globl	memp_PBUF
 502              		.globl	memp_memory_PBUF_base
 503              		.globl	memp_NETDB
 504              		.globl	memp_memory_NETDB_base
 505              		.globl	memp_SYS_TIMEOUT
 506              		.globl	memp_memory_SYS_TIMEOUT_base
 507              		.globl	memp_IGMP_GROUP
 508              		.globl	memp_memory_IGMP_GROUP_base
 509              		.globl	memp_TCPIP_MSG_INPKT
 510              		.globl	memp_memory_TCPIP_MSG_INPKT_base
 511              		.globl	memp_TCPIP_MSG_API
 512              		.globl	memp_memory_TCPIP_MSG_API_base
 513              		.globl	memp_NETCONN
 514              		.globl	memp_memory_NETCONN_base
 515              		.globl	memp_NETBUF
 516              		.globl	memp_memory_NETBUF_base
 517              		.globl	memp_FRAG_PBUF
 518              		.globl	memp_memory_FRAG_PBUF_base
 519              		.globl	memp_REASSDATA
 520              		.globl	memp_memory_REASSDATA_base
 521              		.globl	memp_ALTCP_PCB
 522              		.globl	memp_memory_ALTCP_PCB_base
 523              		.globl	memp_TCP_SEG
 524              		.globl	memp_memory_TCP_SEG_base
 525              		.globl	memp_TCP_PCB_LISTEN
 526              		.globl	memp_memory_TCP_PCB_LISTEN_base
 527              		.globl	memp_TCP_PCB
 528              		.globl	memp_memory_TCP_PCB_base
 529              		.globl	memp_UDP_PCB
 530              		.globl	memp_memory_UDP_PCB_base
 531              		.globl	memp_RAW_PCB
 532              		.globl	memp_memory_RAW_PCB_base
 533              		.section	.bss.memp_memory_ALTCP_PCB_base,"aw",@nobits
 534              		.align	2
 537              	memp_memory_ALTCP_PCB_base:
 538 0000 00000000 		.zero	264
 538      00000000 
 538      00000000 
 538      00000000 
 538      00000000 
 539              		.section	.bss.memp_memory_FRAG_PBUF_base,"aw",@nobits
 540              		.align	2
 543              	memp_memory_FRAG_PBUF_base:
 544 0000 00000000 		.zero	360
 544      00000000 
 544      00000000 
 544      00000000 
 544      00000000 
 545              		.section	.bss.memp_memory_IGMP_GROUP_base,"aw",@nobits
 546              		.align	2
 549              	memp_memory_IGMP_GROUP_base:
 550 0000 00000000 		.zero	128
 550      00000000 
 550      00000000 
 550      00000000 
 550      00000000 
 551              		.section	.bss.memp_memory_NETBUF_base,"aw",@nobits
 552              		.align	2
 555              	memp_memory_NETBUF_base:
 556 0000 00000000 		.zero	544
 556      00000000 
 556      00000000 
 556      00000000 
 556      00000000 
 557              		.section	.bss.memp_memory_NETCONN_base,"aw",@nobits
 558              		.align	2
 561              	memp_memory_NETCONN_base:
 562 0000 00000000 		.zero	576
 562      00000000 
 562      00000000 
 562      00000000 
 562      00000000 
 563              		.section	.bss.memp_memory_NETDB_base,"aw",@nobits
 564              		.align	2
 567              	memp_memory_NETDB_base:
 568 0000 00000000 		.zero	308
 568      00000000 
 568      00000000 
 568      00000000 
 568      00000000 
 569              		.section	.bss.memp_memory_PBUF_POOL_base,"aw",@nobits
 570              		.align	2
 573              	memp_memory_PBUF_POOL_base:
 574              		.section	.bss.memp_memory_PBUF_base,"aw",@nobits
 575              		.align	2
 578              	memp_memory_PBUF_base:
 579 0000 00000000 		.zero	208
 579      00000000 
 579      00000000 
 579      00000000 
 579      00000000 
 580              		.section	.bss.memp_memory_RAW_PCB_base,"aw",@nobits
 581              		.align	2
 584              	memp_memory_RAW_PCB_base:
 585 0000 00000000 		.zero	112
 585      00000000 
 585      00000000 
 585      00000000 
 585      00000000 
 586              		.section	.bss.memp_memory_REASSDATA_base,"aw",@nobits
 587              		.align	2
 590              	memp_memory_REASSDATA_base:
 591 0000 00000000 		.zero	160
 591      00000000 
 591      00000000 
 591      00000000 
 591      00000000 
 592              		.section	.bss.memp_memory_SYS_TIMEOUT_base,"aw",@nobits
 593              		.align	2
 596              	memp_memory_SYS_TIMEOUT_base:
 597 0000 00000000 		.zero	272
 597      00000000 
 597      00000000 
 597      00000000 
 597      00000000 
 598              		.section	.bss.memp_memory_TCPIP_MSG_API_base,"aw",@nobits
 599              		.align	2
 602              	memp_memory_TCPIP_MSG_API_base:
 603 0000 00000000 		.zero	128
 603      00000000 
 603      00000000 
 603      00000000 
 603      00000000 
 604              		.section	.bss.memp_memory_TCPIP_MSG_INPKT_base,"aw",@nobits
 605              		.align	2
 608              	memp_memory_TCPIP_MSG_INPKT_base:
 609 0000 00000000 		.zero	128
 609      00000000 
 609      00000000 
 609      00000000 
 609      00000000 
 610              		.section	.bss.memp_memory_TCP_PCB_LISTEN_base,"aw",@nobits
 611              		.align	2
 614              	memp_memory_TCP_PCB_LISTEN_base:
 615 0000 00000000 		.zero	256
 615      00000000 
 615      00000000 
 615      00000000 
 615      00000000 
 616              		.section	.bss.memp_memory_TCP_PCB_base,"aw",@nobits
 617              		.align	2
 620              	memp_memory_TCP_PCB_base:
 621 0000 00000000 		.zero	1272
 621      00000000 
 621      00000000 
 621      00000000 
 621      00000000 
 622              		.section	.bss.memp_memory_TCP_SEG_base,"aw",@nobits
 623              		.align	2
 626              	memp_memory_TCP_SEG_base:
 627 0000 00000000 		.zero	384
 627      00000000 
 627      00000000 
 627      00000000 
 627      00000000 
 628              		.section	.bss.memp_memory_UDP_PCB_base,"aw",@nobits
 629              		.align	2
 632              	memp_memory_UDP_PCB_base:
 633 0000 00000000 		.zero	640
 633      00000000 
 633      00000000 
 633      00000000 
 633      00000000 
 634              		.section	.rodata.memp_ALTCP_PCB,"a"
 635              		.align	2
 638              	memp_ALTCP_PCB:
 639 0000 2C00     		.half	44
 640 0002 0600     		.half	6
 641 0004 00000000 		.word	memp_memory_ALTCP_PCB_base
 642 0008 00000000 		.word	memp_tab_ALTCP_PCB
 643              		.section	.rodata.memp_FRAG_PBUF,"a"
 644              		.align	2
 647              	memp_FRAG_PBUF:
 648 0000 1800     		.half	24
 649 0002 0F00     		.half	15
 650 0004 00000000 		.word	memp_memory_FRAG_PBUF_base
 651 0008 00000000 		.word	memp_tab_FRAG_PBUF
 652              		.section	.rodata.memp_IGMP_GROUP,"a"
 653              		.align	2
 656              	memp_IGMP_GROUP:
 657 0000 1000     		.half	16
 658 0002 0800     		.half	8
 659 0004 00000000 		.word	memp_memory_IGMP_GROUP_base
 660 0008 00000000 		.word	memp_tab_IGMP_GROUP
 661              		.section	.rodata.memp_NETBUF,"a"
 662              		.align	2
 665              	memp_NETBUF:
 666 0000 1000     		.half	16
 667 0002 2200     		.half	34
 668 0004 00000000 		.word	memp_memory_NETBUF_base
 669 0008 00000000 		.word	memp_tab_NETBUF
 670              		.section	.rodata.memp_NETCONN,"a"
 671              		.align	2
 674              	memp_NETCONN:
 675 0000 3000     		.half	48
 676 0002 0C00     		.half	12
 677 0004 00000000 		.word	memp_memory_NETCONN_base
 678 0008 00000000 		.word	memp_tab_NETCONN
 679              		.section	.rodata.memp_NETDB,"a"
 680              		.align	2
 683              	memp_NETDB:
 684 0000 3401     		.half	308
 685 0002 0100     		.half	1
 686 0004 00000000 		.word	memp_memory_NETDB_base
 687 0008 00000000 		.word	memp_tab_NETDB
 688              		.section	.rodata.memp_PBUF,"a"
 689              		.align	2
 692              	memp_PBUF:
 693 0000 1000     		.half	16
 694 0002 0D00     		.half	13
 695 0004 00000000 		.word	memp_memory_PBUF_base
 696 0008 00000000 		.word	memp_tab_PBUF
 697              		.section	.rodata.memp_PBUF_POOL,"a"
 698              		.align	2
 701              	memp_PBUF_POOL:
 702 0000 5807     		.half	1880
 703 0002 0000     		.half	0
 704 0004 00000000 		.word	memp_memory_PBUF_POOL_base
 705 0008 00000000 		.word	memp_tab_PBUF_POOL
 706              		.section	.rodata.memp_RAW_PCB,"a"
 707              		.align	2
 710              	memp_RAW_PCB:
 711 0000 1C00     		.half	28
 712 0002 0400     		.half	4
 713 0004 00000000 		.word	memp_memory_RAW_PCB_base
 714 0008 00000000 		.word	memp_tab_RAW_PCB
 715              		.section	.rodata.memp_REASSDATA,"a"
 716              		.align	2
 719              	memp_REASSDATA:
 720 0000 2000     		.half	32
 721 0002 0500     		.half	5
 722 0004 00000000 		.word	memp_memory_REASSDATA_base
 723 0008 00000000 		.word	memp_tab_REASSDATA
 724              		.section	.rodata.memp_SYS_TIMEOUT,"a"
 725              		.align	2
 728              	memp_SYS_TIMEOUT:
 729 0000 1000     		.half	16
 730 0002 1100     		.half	17
 731 0004 00000000 		.word	memp_memory_SYS_TIMEOUT_base
 732 0008 00000000 		.word	memp_tab_SYS_TIMEOUT
 733              		.section	.rodata.memp_TCPIP_MSG_API,"a"
 734              		.align	2
 737              	memp_TCPIP_MSG_API:
 738 0000 1000     		.half	16
 739 0002 0800     		.half	8
 740 0004 00000000 		.word	memp_memory_TCPIP_MSG_API_base
 741 0008 00000000 		.word	memp_tab_TCPIP_MSG_API
 742              		.section	.rodata.memp_TCPIP_MSG_INPKT,"a"
 743              		.align	2
 746              	memp_TCPIP_MSG_INPKT:
 747 0000 1000     		.half	16
 748 0002 0800     		.half	8
 749 0004 00000000 		.word	memp_memory_TCPIP_MSG_INPKT_base
 750 0008 00000000 		.word	memp_tab_TCPIP_MSG_INPKT
 751              		.section	.rodata.memp_TCP_PCB,"a"
 752              		.align	2
 755              	memp_TCP_PCB:
 756 0000 D400     		.half	212
 757 0002 0600     		.half	6
 758 0004 00000000 		.word	memp_memory_TCP_PCB_base
 759 0008 00000000 		.word	memp_tab_TCP_PCB
 760              		.section	.rodata.memp_TCP_PCB_LISTEN,"a"
 761              		.align	2
 764              	memp_TCP_PCB_LISTEN:
 765 0000 2000     		.half	32
 766 0002 0800     		.half	8
 767 0004 00000000 		.word	memp_memory_TCP_PCB_LISTEN_base
 768 0008 00000000 		.word	memp_tab_TCP_PCB_LISTEN
 769              		.section	.rodata.memp_TCP_SEG,"a"
 770              		.align	2
 773              	memp_TCP_SEG:
 774 0000 1000     		.half	16
 775 0002 1800     		.half	24
 776 0004 00000000 		.word	memp_memory_TCP_SEG_base
 777 0008 00000000 		.word	memp_tab_TCP_SEG
 778              		.section	.rodata.memp_UDP_PCB,"a"
 779              		.align	2
 782              	memp_UDP_PCB:
 783 0000 2800     		.half	40
 784 0002 1000     		.half	16
 785 0004 00000000 		.word	memp_memory_UDP_PCB_base
 786 0008 00000000 		.word	memp_tab_UDP_PCB
 787              		.section	.rodata.memp_pools,"a"
 788              		.align	2
 789              		.set	.LANCHOR0,. + 0
 792              	memp_pools:
 793 0000 00000000 		.word	memp_RAW_PCB
 794 0004 00000000 		.word	memp_UDP_PCB
 795 0008 00000000 		.word	memp_TCP_PCB
 796 000c 00000000 		.word	memp_TCP_PCB_LISTEN
 797 0010 00000000 		.word	memp_TCP_SEG
 798 0014 00000000 		.word	memp_ALTCP_PCB
 799 0018 00000000 		.word	memp_REASSDATA
 800 001c 00000000 		.word	memp_FRAG_PBUF
 801 0020 00000000 		.word	memp_NETBUF
 802 0024 00000000 		.word	memp_NETCONN
 803 0028 00000000 		.word	memp_TCPIP_MSG_API
 804 002c 00000000 		.word	memp_TCPIP_MSG_INPKT
 805 0030 00000000 		.word	memp_IGMP_GROUP
 806 0034 00000000 		.word	memp_SYS_TIMEOUT
 807 0038 00000000 		.word	memp_NETDB
 808 003c 00000000 		.word	memp_PBUF
 809 0040 00000000 		.word	memp_PBUF_POOL
 810              		.section	.sbss.memp_tab_ALTCP_PCB,"aw",@nobits
 811              		.align	2
 814              	memp_tab_ALTCP_PCB:
 815 0000 00000000 		.zero	4
 816              		.section	.sbss.memp_tab_FRAG_PBUF,"aw",@nobits
 817              		.align	2
 820              	memp_tab_FRAG_PBUF:
 821 0000 00000000 		.zero	4
 822              		.section	.sbss.memp_tab_IGMP_GROUP,"aw",@nobits
 823              		.align	2
 826              	memp_tab_IGMP_GROUP:
 827 0000 00000000 		.zero	4
 828              		.section	.sbss.memp_tab_NETBUF,"aw",@nobits
 829              		.align	2
 832              	memp_tab_NETBUF:
 833 0000 00000000 		.zero	4
 834              		.section	.sbss.memp_tab_NETCONN,"aw",@nobits
 835              		.align	2
 838              	memp_tab_NETCONN:
 839 0000 00000000 		.zero	4
 840              		.section	.sbss.memp_tab_NETDB,"aw",@nobits
 841              		.align	2
 844              	memp_tab_NETDB:
 845 0000 00000000 		.zero	4
 846              		.section	.sbss.memp_tab_PBUF,"aw",@nobits
 847              		.align	2
 850              	memp_tab_PBUF:
 851 0000 00000000 		.zero	4
 852              		.section	.sbss.memp_tab_PBUF_POOL,"aw",@nobits
 853              		.align	2
 856              	memp_tab_PBUF_POOL:
 857 0000 00000000 		.zero	4
 858              		.section	.sbss.memp_tab_RAW_PCB,"aw",@nobits
 859              		.align	2
 862              	memp_tab_RAW_PCB:
 863 0000 00000000 		.zero	4
 864              		.section	.sbss.memp_tab_REASSDATA,"aw",@nobits
 865              		.align	2
 868              	memp_tab_REASSDATA:
 869 0000 00000000 		.zero	4
 870              		.section	.sbss.memp_tab_SYS_TIMEOUT,"aw",@nobits
 871              		.align	2
 874              	memp_tab_SYS_TIMEOUT:
 875 0000 00000000 		.zero	4
 876              		.section	.sbss.memp_tab_TCPIP_MSG_API,"aw",@nobits
 877              		.align	2
 880              	memp_tab_TCPIP_MSG_API:
 881 0000 00000000 		.zero	4
 882              		.section	.sbss.memp_tab_TCPIP_MSG_INPKT,"aw",@nobits
 883              		.align	2
 886              	memp_tab_TCPIP_MSG_INPKT:
 887 0000 00000000 		.zero	4
 888              		.section	.sbss.memp_tab_TCP_PCB,"aw",@nobits
 889              		.align	2
 892              	memp_tab_TCP_PCB:
 893 0000 00000000 		.zero	4
 894              		.section	.sbss.memp_tab_TCP_PCB_LISTEN,"aw",@nobits
 895              		.align	2
 898              	memp_tab_TCP_PCB_LISTEN:
 899 0000 00000000 		.zero	4
 900              		.section	.sbss.memp_tab_TCP_SEG,"aw",@nobits
 901              		.align	2
 904              	memp_tab_TCP_SEG:
 905 0000 00000000 		.zero	4
 906              		.section	.sbss.memp_tab_UDP_PCB,"aw",@nobits
 907              		.align	2
 910              	memp_tab_UDP_PCB:
 911 0000 00000000 		.zero	4
 912              		.text
 913              	.Letext0:
 914              		.file 2 "c:\\users\\stapi\\onedrive\\desktop\\gd32vw553\\embeddedbuilder_v1.4.7.26843\\tools\\nucl
 915              		.file 3 "c:\\users\\stapi\\onedrive\\desktop\\gd32vw553\\embeddedbuilder_v1.4.7.26843\\tools\\nucl
 916              		.file 4 "..\\..\\..\\..\\lwip\\lwip-2.1.2\\src\\include/lwip/arch.h"
 917              		.file 5 "..\\..\\..\\..\\lwip\\lwip-2.1.2\\src\\include/lwip/memp.h"
 918              		.file 6 "..\\..\\..\\..\\lwip\\lwip-2.1.2\\src\\include/lwip/priv/memp_priv.h"
 919              		.file 7 "..\\..\\..\\..\\lwip\\lwip-2.1.2\\src\\include/lwip/priv/memp_std.h"
 920              		.file 8 "c:\\users\\stapi\\onedrive\\desktop\\gd32vw553\\embeddedbuilder_v1.4.7.26843\\tools\\nucl
 921              		.file 9 "..\\..\\..\\..\\rtos\\rtos_wrapper/wrapper_os.h"
 922              		.file 10 "..\\..\\..\\..\\lwip\\lwip-2.1.2\\src\\include/lwip/netif.h"