   1              		.file	"netbuf.c"
   2              		.option nopic
   3              		.attribute arch, "rv32i2p0_m2p0_a2p0_f2p0_c2p0_b_p0p94"
   4              		.attribute unaligned_access, 0
   5              		.attribute stack_align, 16
   6              		.text
   7              	.Ltext0:
   8              		.cfi_sections	.debug_frame
   9              		.section	.text.netbuf_new,"ax",@progbits
  10              		.align	1
  11              		.globl	netbuf_new
  13              	netbuf_new:
  14              	.LFB4:
  15              		.file 1 "C:/Users/stapi/OneDrive/Desktop/GD32VW553/V1_MQTT_OK/GD32VW55X_Wifi_BLE_SDK/GD32VW55x_REL
   1:C:/Users/stapi/OneDrive/Desktop/GD32VW553/V1_MQTT_OK/GD32VW55X_Wifi_BLE_SDK/GD32VW55x_RELEASE_V1.0.2/MSDK/lwip/lwip-2.1.2/src/api\netbuf.c **** /**
   2:C:/Users/stapi/OneDrive/Desktop/GD32VW553/V1_MQTT_OK/GD32VW55X_Wifi_BLE_SDK/GD32VW55x_RELEASE_V1.0.2/MSDK/lwip/lwip-2.1.2/src/api\netbuf.c ****  * @file
   3:C:/Users/stapi/OneDrive/Desktop/GD32VW553/V1_MQTT_OK/GD32VW55X_Wifi_BLE_SDK/GD32VW55x_RELEASE_V1.0.2/MSDK/lwip/lwip-2.1.2/src/api\netbuf.c ****  * Network buffer management
   4:C:/Users/stapi/OneDrive/Desktop/GD32VW553/V1_MQTT_OK/GD32VW55X_Wifi_BLE_SDK/GD32VW55x_RELEASE_V1.0.2/MSDK/lwip/lwip-2.1.2/src/api\netbuf.c ****  *
   5:C:/Users/stapi/OneDrive/Desktop/GD32VW553/V1_MQTT_OK/GD32VW55X_Wifi_BLE_SDK/GD32VW55x_RELEASE_V1.0.2/MSDK/lwip/lwip-2.1.2/src/api\netbuf.c ****  * @defgroup netbuf Network buffers
   6:C:/Users/stapi/OneDrive/Desktop/GD32VW553/V1_MQTT_OK/GD32VW55X_Wifi_BLE_SDK/GD32VW55x_RELEASE_V1.0.2/MSDK/lwip/lwip-2.1.2/src/api\netbuf.c ****  * @ingroup netconn
   7:C:/Users/stapi/OneDrive/Desktop/GD32VW553/V1_MQTT_OK/GD32VW55X_Wifi_BLE_SDK/GD32VW55x_RELEASE_V1.0.2/MSDK/lwip/lwip-2.1.2/src/api\netbuf.c ****  * Network buffer descriptor for @ref netconn. Based on @ref pbuf internally
   8:C:/Users/stapi/OneDrive/Desktop/GD32VW553/V1_MQTT_OK/GD32VW55X_Wifi_BLE_SDK/GD32VW55x_RELEASE_V1.0.2/MSDK/lwip/lwip-2.1.2/src/api\netbuf.c ****  * to avoid copying data around.\n
   9:C:/Users/stapi/OneDrive/Desktop/GD32VW553/V1_MQTT_OK/GD32VW55X_Wifi_BLE_SDK/GD32VW55x_RELEASE_V1.0.2/MSDK/lwip/lwip-2.1.2/src/api\netbuf.c ****  * Buffers must not be shared accross multiple threads, all functions except
  10:C:/Users/stapi/OneDrive/Desktop/GD32VW553/V1_MQTT_OK/GD32VW55X_Wifi_BLE_SDK/GD32VW55x_RELEASE_V1.0.2/MSDK/lwip/lwip-2.1.2/src/api\netbuf.c ****  * netbuf_new() and netbuf_delete() are not thread-safe.
  11:C:/Users/stapi/OneDrive/Desktop/GD32VW553/V1_MQTT_OK/GD32VW55X_Wifi_BLE_SDK/GD32VW55x_RELEASE_V1.0.2/MSDK/lwip/lwip-2.1.2/src/api\netbuf.c ****  */
  12:C:/Users/stapi/OneDrive/Desktop/GD32VW553/V1_MQTT_OK/GD32VW55X_Wifi_BLE_SDK/GD32VW55x_RELEASE_V1.0.2/MSDK/lwip/lwip-2.1.2/src/api\netbuf.c **** 
  13:C:/Users/stapi/OneDrive/Desktop/GD32VW553/V1_MQTT_OK/GD32VW55X_Wifi_BLE_SDK/GD32VW55x_RELEASE_V1.0.2/MSDK/lwip/lwip-2.1.2/src/api\netbuf.c **** /*
  14:C:/Users/stapi/OneDrive/Desktop/GD32VW553/V1_MQTT_OK/GD32VW55X_Wifi_BLE_SDK/GD32VW55x_RELEASE_V1.0.2/MSDK/lwip/lwip-2.1.2/src/api\netbuf.c ****  * Copyright (c) 2001-2004 Swedish Institute of Computer Science.
  15:C:/Users/stapi/OneDrive/Desktop/GD32VW553/V1_MQTT_OK/GD32VW55X_Wifi_BLE_SDK/GD32VW55x_RELEASE_V1.0.2/MSDK/lwip/lwip-2.1.2/src/api\netbuf.c ****  * All rights reserved.
  16:C:/Users/stapi/OneDrive/Desktop/GD32VW553/V1_MQTT_OK/GD32VW55X_Wifi_BLE_SDK/GD32VW55x_RELEASE_V1.0.2/MSDK/lwip/lwip-2.1.2/src/api\netbuf.c ****  *
  17:C:/Users/stapi/OneDrive/Desktop/GD32VW553/V1_MQTT_OK/GD32VW55X_Wifi_BLE_SDK/GD32VW55x_RELEASE_V1.0.2/MSDK/lwip/lwip-2.1.2/src/api\netbuf.c ****  * Redistribution and use in source and binary forms, with or without modification,
  18:C:/Users/stapi/OneDrive/Desktop/GD32VW553/V1_MQTT_OK/GD32VW55X_Wifi_BLE_SDK/GD32VW55x_RELEASE_V1.0.2/MSDK/lwip/lwip-2.1.2/src/api\netbuf.c ****  * are permitted provided that the following conditions are met:
  19:C:/Users/stapi/OneDrive/Desktop/GD32VW553/V1_MQTT_OK/GD32VW55X_Wifi_BLE_SDK/GD32VW55x_RELEASE_V1.0.2/MSDK/lwip/lwip-2.1.2/src/api\netbuf.c ****  *
  20:C:/Users/stapi/OneDrive/Desktop/GD32VW553/V1_MQTT_OK/GD32VW55X_Wifi_BLE_SDK/GD32VW55x_RELEASE_V1.0.2/MSDK/lwip/lwip-2.1.2/src/api\netbuf.c ****  * 1. Redistributions of source code must retain the above copyright notice,
  21:C:/Users/stapi/OneDrive/Desktop/GD32VW553/V1_MQTT_OK/GD32VW55X_Wifi_BLE_SDK/GD32VW55x_RELEASE_V1.0.2/MSDK/lwip/lwip-2.1.2/src/api\netbuf.c ****  *    this list of conditions and the following disclaimer.
  22:C:/Users/stapi/OneDrive/Desktop/GD32VW553/V1_MQTT_OK/GD32VW55X_Wifi_BLE_SDK/GD32VW55x_RELEASE_V1.0.2/MSDK/lwip/lwip-2.1.2/src/api\netbuf.c ****  * 2. Redistributions in binary form must reproduce the above copyright notice,
  23:C:/Users/stapi/OneDrive/Desktop/GD32VW553/V1_MQTT_OK/GD32VW55X_Wifi_BLE_SDK/GD32VW55x_RELEASE_V1.0.2/MSDK/lwip/lwip-2.1.2/src/api\netbuf.c ****  *    this list of conditions and the following disclaimer in the documentation
  24:C:/Users/stapi/OneDrive/Desktop/GD32VW553/V1_MQTT_OK/GD32VW55X_Wifi_BLE_SDK/GD32VW55x_RELEASE_V1.0.2/MSDK/lwip/lwip-2.1.2/src/api\netbuf.c ****  *    and/or other materials provided with the distribution.
  25:C:/Users/stapi/OneDrive/Desktop/GD32VW553/V1_MQTT_OK/GD32VW55X_Wifi_BLE_SDK/GD32VW55x_RELEASE_V1.0.2/MSDK/lwip/lwip-2.1.2/src/api\netbuf.c ****  * 3. The name of the author may not be used to endorse or promote products
  26:C:/Users/stapi/OneDrive/Desktop/GD32VW553/V1_MQTT_OK/GD32VW55X_Wifi_BLE_SDK/GD32VW55x_RELEASE_V1.0.2/MSDK/lwip/lwip-2.1.2/src/api\netbuf.c ****  *    derived from this software without specific prior written permission.
  27:C:/Users/stapi/OneDrive/Desktop/GD32VW553/V1_MQTT_OK/GD32VW55X_Wifi_BLE_SDK/GD32VW55x_RELEASE_V1.0.2/MSDK/lwip/lwip-2.1.2/src/api\netbuf.c ****  *
  28:C:/Users/stapi/OneDrive/Desktop/GD32VW553/V1_MQTT_OK/GD32VW55X_Wifi_BLE_SDK/GD32VW55x_RELEASE_V1.0.2/MSDK/lwip/lwip-2.1.2/src/api\netbuf.c ****  * THIS SOFTWARE IS PROVIDED BY THE AUTHOR ``AS IS'' AND ANY EXPRESS OR IMPLIED
  29:C:/Users/stapi/OneDrive/Desktop/GD32VW553/V1_MQTT_OK/GD32VW55X_Wifi_BLE_SDK/GD32VW55x_RELEASE_V1.0.2/MSDK/lwip/lwip-2.1.2/src/api\netbuf.c ****  * WARRANTIES, INCLUDING, BUT NOT LIMITED TO, THE IMPLIED WARRANTIES OF
  30:C:/Users/stapi/OneDrive/Desktop/GD32VW553/V1_MQTT_OK/GD32VW55X_Wifi_BLE_SDK/GD32VW55x_RELEASE_V1.0.2/MSDK/lwip/lwip-2.1.2/src/api\netbuf.c ****  * MERCHANTABILITY AND FITNESS FOR A PARTICULAR PURPOSE ARE DISCLAIMED. IN NO EVENT
  31:C:/Users/stapi/OneDrive/Desktop/GD32VW553/V1_MQTT_OK/GD32VW55X_Wifi_BLE_SDK/GD32VW55x_RELEASE_V1.0.2/MSDK/lwip/lwip-2.1.2/src/api\netbuf.c ****  * SHALL THE AUTHOR BE LIABLE FOR ANY DIRECT, INDIRECT, INCIDENTAL, SPECIAL,
  32:C:/Users/stapi/OneDrive/Desktop/GD32VW553/V1_MQTT_OK/GD32VW55X_Wifi_BLE_SDK/GD32VW55x_RELEASE_V1.0.2/MSDK/lwip/lwip-2.1.2/src/api\netbuf.c ****  * EXEMPLARY, OR CONSEQUENTIAL DAMAGES (INCLUDING, BUT NOT LIMITED TO, PROCUREMENT
  33:C:/Users/stapi/OneDrive/Desktop/GD32VW553/V1_MQTT_OK/GD32VW55X_Wifi_BLE_SDK/GD32VW55x_RELEASE_V1.0.2/MSDK/lwip/lwip-2.1.2/src/api\netbuf.c ****  * OF SUBSTITUTE GOODS OR SERVICES; LOSS OF USE, DATA, OR PROFITS; OR BUSINESS
  34:C:/Users/stapi/OneDrive/Desktop/GD32VW553/V1_MQTT_OK/GD32VW55X_Wifi_BLE_SDK/GD32VW55x_RELEASE_V1.0.2/MSDK/lwip/lwip-2.1.2/src/api\netbuf.c ****  * INTERRUPTION) HOWEVER CAUSED AND ON ANY THEORY OF LIABILITY, WHETHER IN
  35:C:/Users/stapi/OneDrive/Desktop/GD32VW553/V1_MQTT_OK/GD32VW55X_Wifi_BLE_SDK/GD32VW55x_RELEASE_V1.0.2/MSDK/lwip/lwip-2.1.2/src/api\netbuf.c ****  * CONTRACT, STRICT LIABILITY, OR TORT (INCLUDING NEGLIGENCE OR OTHERWISE) ARISING
  36:C:/Users/stapi/OneDrive/Desktop/GD32VW553/V1_MQTT_OK/GD32VW55X_Wifi_BLE_SDK/GD32VW55x_RELEASE_V1.0.2/MSDK/lwip/lwip-2.1.2/src/api\netbuf.c ****  * IN ANY WAY OUT OF THE USE OF THIS SOFTWARE, EVEN IF ADVISED OF THE POSSIBILITY
  37:C:/Users/stapi/OneDrive/Desktop/GD32VW553/V1_MQTT_OK/GD32VW55X_Wifi_BLE_SDK/GD32VW55x_RELEASE_V1.0.2/MSDK/lwip/lwip-2.1.2/src/api\netbuf.c ****  * OF SUCH DAMAGE.
  38:C:/Users/stapi/OneDrive/Desktop/GD32VW553/V1_MQTT_OK/GD32VW55X_Wifi_BLE_SDK/GD32VW55x_RELEASE_V1.0.2/MSDK/lwip/lwip-2.1.2/src/api\netbuf.c ****  *
  39:C:/Users/stapi/OneDrive/Desktop/GD32VW553/V1_MQTT_OK/GD32VW55X_Wifi_BLE_SDK/GD32VW55x_RELEASE_V1.0.2/MSDK/lwip/lwip-2.1.2/src/api\netbuf.c ****  * This file is part of the lwIP TCP/IP stack.
  40:C:/Users/stapi/OneDrive/Desktop/GD32VW553/V1_MQTT_OK/GD32VW55X_Wifi_BLE_SDK/GD32VW55x_RELEASE_V1.0.2/MSDK/lwip/lwip-2.1.2/src/api\netbuf.c ****  *
  41:C:/Users/stapi/OneDrive/Desktop/GD32VW553/V1_MQTT_OK/GD32VW55X_Wifi_BLE_SDK/GD32VW55x_RELEASE_V1.0.2/MSDK/lwip/lwip-2.1.2/src/api\netbuf.c ****  * Author: Adam Dunkels <adam@sics.se>
  42:C:/Users/stapi/OneDrive/Desktop/GD32VW553/V1_MQTT_OK/GD32VW55X_Wifi_BLE_SDK/GD32VW55x_RELEASE_V1.0.2/MSDK/lwip/lwip-2.1.2/src/api\netbuf.c ****  *
  43:C:/Users/stapi/OneDrive/Desktop/GD32VW553/V1_MQTT_OK/GD32VW55X_Wifi_BLE_SDK/GD32VW55x_RELEASE_V1.0.2/MSDK/lwip/lwip-2.1.2/src/api\netbuf.c ****  */
  44:C:/Users/stapi/OneDrive/Desktop/GD32VW553/V1_MQTT_OK/GD32VW55X_Wifi_BLE_SDK/GD32VW55x_RELEASE_V1.0.2/MSDK/lwip/lwip-2.1.2/src/api\netbuf.c **** 
  45:C:/Users/stapi/OneDrive/Desktop/GD32VW553/V1_MQTT_OK/GD32VW55X_Wifi_BLE_SDK/GD32VW55x_RELEASE_V1.0.2/MSDK/lwip/lwip-2.1.2/src/api\netbuf.c **** #include "lwip/opt.h"
  46:C:/Users/stapi/OneDrive/Desktop/GD32VW553/V1_MQTT_OK/GD32VW55X_Wifi_BLE_SDK/GD32VW55x_RELEASE_V1.0.2/MSDK/lwip/lwip-2.1.2/src/api\netbuf.c **** 
  47:C:/Users/stapi/OneDrive/Desktop/GD32VW553/V1_MQTT_OK/GD32VW55X_Wifi_BLE_SDK/GD32VW55x_RELEASE_V1.0.2/MSDK/lwip/lwip-2.1.2/src/api\netbuf.c **** #if LWIP_NETCONN /* don't build if not configured for use in lwipopts.h */
  48:C:/Users/stapi/OneDrive/Desktop/GD32VW553/V1_MQTT_OK/GD32VW55X_Wifi_BLE_SDK/GD32VW55x_RELEASE_V1.0.2/MSDK/lwip/lwip-2.1.2/src/api\netbuf.c **** 
  49:C:/Users/stapi/OneDrive/Desktop/GD32VW553/V1_MQTT_OK/GD32VW55X_Wifi_BLE_SDK/GD32VW55x_RELEASE_V1.0.2/MSDK/lwip/lwip-2.1.2/src/api\netbuf.c **** #include "lwip/netbuf.h"
  50:C:/Users/stapi/OneDrive/Desktop/GD32VW553/V1_MQTT_OK/GD32VW55X_Wifi_BLE_SDK/GD32VW55x_RELEASE_V1.0.2/MSDK/lwip/lwip-2.1.2/src/api\netbuf.c **** #include "lwip/memp.h"
  51:C:/Users/stapi/OneDrive/Desktop/GD32VW553/V1_MQTT_OK/GD32VW55X_Wifi_BLE_SDK/GD32VW55x_RELEASE_V1.0.2/MSDK/lwip/lwip-2.1.2/src/api\netbuf.c **** 
  52:C:/Users/stapi/OneDrive/Desktop/GD32VW553/V1_MQTT_OK/GD32VW55X_Wifi_BLE_SDK/GD32VW55x_RELEASE_V1.0.2/MSDK/lwip/lwip-2.1.2/src/api\netbuf.c **** #include <string.h>
  53:C:/Users/stapi/OneDrive/Desktop/GD32VW553/V1_MQTT_OK/GD32VW55X_Wifi_BLE_SDK/GD32VW55x_RELEASE_V1.0.2/MSDK/lwip/lwip-2.1.2/src/api\netbuf.c **** 
  54:C:/Users/stapi/OneDrive/Desktop/GD32VW553/V1_MQTT_OK/GD32VW55X_Wifi_BLE_SDK/GD32VW55x_RELEASE_V1.0.2/MSDK/lwip/lwip-2.1.2/src/api\netbuf.c **** /**
  55:C:/Users/stapi/OneDrive/Desktop/GD32VW553/V1_MQTT_OK/GD32VW55X_Wifi_BLE_SDK/GD32VW55x_RELEASE_V1.0.2/MSDK/lwip/lwip-2.1.2/src/api\netbuf.c ****  * @ingroup netbuf
  56:C:/Users/stapi/OneDrive/Desktop/GD32VW553/V1_MQTT_OK/GD32VW55X_Wifi_BLE_SDK/GD32VW55x_RELEASE_V1.0.2/MSDK/lwip/lwip-2.1.2/src/api\netbuf.c ****  * Create (allocate) and initialize a new netbuf.
  57:C:/Users/stapi/OneDrive/Desktop/GD32VW553/V1_MQTT_OK/GD32VW55X_Wifi_BLE_SDK/GD32VW55x_RELEASE_V1.0.2/MSDK/lwip/lwip-2.1.2/src/api\netbuf.c ****  * The netbuf doesn't yet contain a packet buffer!
  58:C:/Users/stapi/OneDrive/Desktop/GD32VW553/V1_MQTT_OK/GD32VW55X_Wifi_BLE_SDK/GD32VW55x_RELEASE_V1.0.2/MSDK/lwip/lwip-2.1.2/src/api\netbuf.c ****  *
  59:C:/Users/stapi/OneDrive/Desktop/GD32VW553/V1_MQTT_OK/GD32VW55X_Wifi_BLE_SDK/GD32VW55x_RELEASE_V1.0.2/MSDK/lwip/lwip-2.1.2/src/api\netbuf.c ****  * @return a pointer to a new netbuf
  60:C:/Users/stapi/OneDrive/Desktop/GD32VW553/V1_MQTT_OK/GD32VW55X_Wifi_BLE_SDK/GD32VW55x_RELEASE_V1.0.2/MSDK/lwip/lwip-2.1.2/src/api\netbuf.c ****  *         NULL on lack of memory
  61:C:/Users/stapi/OneDrive/Desktop/GD32VW553/V1_MQTT_OK/GD32VW55X_Wifi_BLE_SDK/GD32VW55x_RELEASE_V1.0.2/MSDK/lwip/lwip-2.1.2/src/api\netbuf.c ****  */
  62:C:/Users/stapi/OneDrive/Desktop/GD32VW553/V1_MQTT_OK/GD32VW55X_Wifi_BLE_SDK/GD32VW55x_RELEASE_V1.0.2/MSDK/lwip/lwip-2.1.2/src/api\netbuf.c **** struct
  63:C:/Users/stapi/OneDrive/Desktop/GD32VW553/V1_MQTT_OK/GD32VW55X_Wifi_BLE_SDK/GD32VW55x_RELEASE_V1.0.2/MSDK/lwip/lwip-2.1.2/src/api\netbuf.c **** netbuf *netbuf_new(void)
  64:C:/Users/stapi/OneDrive/Desktop/GD32VW553/V1_MQTT_OK/GD32VW55X_Wifi_BLE_SDK/GD32VW55x_RELEASE_V1.0.2/MSDK/lwip/lwip-2.1.2/src/api\netbuf.c **** {
  16              		.loc 1 64 1
  17              		.cfi_startproc
  18 0000 17030000 		call	t0,__riscv_save_1
  18      E7020300 
  19              		.cfi_offset 8, -8
  20              		.cfi_offset 1, -4
  21              		.cfi_def_cfa_offset 16
  65:C:/Users/stapi/OneDrive/Desktop/GD32VW553/V1_MQTT_OK/GD32VW55X_Wifi_BLE_SDK/GD32VW55x_RELEASE_V1.0.2/MSDK/lwip/lwip-2.1.2/src/api\netbuf.c ****   struct netbuf *buf;
  22              		.loc 1 65 3
  66:C:/Users/stapi/OneDrive/Desktop/GD32VW553/V1_MQTT_OK/GD32VW55X_Wifi_BLE_SDK/GD32VW55x_RELEASE_V1.0.2/MSDK/lwip/lwip-2.1.2/src/api\netbuf.c **** 
  67:C:/Users/stapi/OneDrive/Desktop/GD32VW553/V1_MQTT_OK/GD32VW55X_Wifi_BLE_SDK/GD32VW55x_RELEASE_V1.0.2/MSDK/lwip/lwip-2.1.2/src/api\netbuf.c ****   buf = (struct netbuf *)memp_malloc(MEMP_NETBUF);
  23              		.loc 1 67 3
  24              		.loc 1 67 26 is_stmt 0
  25 0008 2145     		li	a0,8
  26 000a 97000000 		call	memp_malloc
  26      E7800000 
  27              	.LVL0:
  28 0012 2A84     		mv	s0,a0
  29              	.LVL1:
  68:C:/Users/stapi/OneDrive/Desktop/GD32VW553/V1_MQTT_OK/GD32VW55X_Wifi_BLE_SDK/GD32VW55x_RELEASE_V1.0.2/MSDK/lwip/lwip-2.1.2/src/api\netbuf.c ****   if (buf != NULL) {
  30              		.loc 1 68 3 is_stmt 1
  31              		.loc 1 68 6 is_stmt 0
  32 0014 19C5     		beq	a0,zero,.L1
  69:C:/Users/stapi/OneDrive/Desktop/GD32VW553/V1_MQTT_OK/GD32VW55X_Wifi_BLE_SDK/GD32VW55x_RELEASE_V1.0.2/MSDK/lwip/lwip-2.1.2/src/api\netbuf.c ****     memset(buf, 0, sizeof(struct netbuf));
  33              		.loc 1 69 5 is_stmt 1
  34 0016 4146     		li	a2,16
  35 0018 8145     		li	a1,0
  36 001a 97000000 		call	memset
  36      E7800000 
  37              	.LVL2:
  70:C:/Users/stapi/OneDrive/Desktop/GD32VW553/V1_MQTT_OK/GD32VW55X_Wifi_BLE_SDK/GD32VW55x_RELEASE_V1.0.2/MSDK/lwip/lwip-2.1.2/src/api\netbuf.c ****   }
  71:C:/Users/stapi/OneDrive/Desktop/GD32VW553/V1_MQTT_OK/GD32VW55X_Wifi_BLE_SDK/GD32VW55x_RELEASE_V1.0.2/MSDK/lwip/lwip-2.1.2/src/api\netbuf.c ****   return buf;
  38              		.loc 1 71 3
  39              	.L1:
  72:C:/Users/stapi/OneDrive/Desktop/GD32VW553/V1_MQTT_OK/GD32VW55X_Wifi_BLE_SDK/GD32VW55x_RELEASE_V1.0.2/MSDK/lwip/lwip-2.1.2/src/api\netbuf.c **** }
  40              		.loc 1 72 1 is_stmt 0
  41 0022 2285     		mv	a0,s0
  42 0024 17030000 		tail	__riscv_restore_1
  42      67000300 
  43              		.cfi_restore 8
  44              		.cfi_restore 1
  45              		.cfi_def_cfa_offset 0
  46              		.cfi_endproc
  47              	.LFE4:
  49              		.section	.text.netbuf_delete,"ax",@progbits
  50              		.align	1
  51              		.globl	netbuf_delete
  53              	netbuf_delete:
  54              	.LFB5:
  73:C:/Users/stapi/OneDrive/Desktop/GD32VW553/V1_MQTT_OK/GD32VW55X_Wifi_BLE_SDK/GD32VW55x_RELEASE_V1.0.2/MSDK/lwip/lwip-2.1.2/src/api\netbuf.c **** 
  74:C:/Users/stapi/OneDrive/Desktop/GD32VW553/V1_MQTT_OK/GD32VW55X_Wifi_BLE_SDK/GD32VW55x_RELEASE_V1.0.2/MSDK/lwip/lwip-2.1.2/src/api\netbuf.c **** /**
  75:C:/Users/stapi/OneDrive/Desktop/GD32VW553/V1_MQTT_OK/GD32VW55X_Wifi_BLE_SDK/GD32VW55x_RELEASE_V1.0.2/MSDK/lwip/lwip-2.1.2/src/api\netbuf.c ****  * @ingroup netbuf
  76:C:/Users/stapi/OneDrive/Desktop/GD32VW553/V1_MQTT_OK/GD32VW55X_Wifi_BLE_SDK/GD32VW55x_RELEASE_V1.0.2/MSDK/lwip/lwip-2.1.2/src/api\netbuf.c ****  * Deallocate a netbuf allocated by netbuf_new().
  77:C:/Users/stapi/OneDrive/Desktop/GD32VW553/V1_MQTT_OK/GD32VW55X_Wifi_BLE_SDK/GD32VW55x_RELEASE_V1.0.2/MSDK/lwip/lwip-2.1.2/src/api\netbuf.c ****  *
  78:C:/Users/stapi/OneDrive/Desktop/GD32VW553/V1_MQTT_OK/GD32VW55X_Wifi_BLE_SDK/GD32VW55x_RELEASE_V1.0.2/MSDK/lwip/lwip-2.1.2/src/api\netbuf.c ****  * @param buf pointer to a netbuf allocated by netbuf_new()
  79:C:/Users/stapi/OneDrive/Desktop/GD32VW553/V1_MQTT_OK/GD32VW55X_Wifi_BLE_SDK/GD32VW55x_RELEASE_V1.0.2/MSDK/lwip/lwip-2.1.2/src/api\netbuf.c ****  */
  80:C:/Users/stapi/OneDrive/Desktop/GD32VW553/V1_MQTT_OK/GD32VW55X_Wifi_BLE_SDK/GD32VW55x_RELEASE_V1.0.2/MSDK/lwip/lwip-2.1.2/src/api\netbuf.c **** void
  81:C:/Users/stapi/OneDrive/Desktop/GD32VW553/V1_MQTT_OK/GD32VW55X_Wifi_BLE_SDK/GD32VW55x_RELEASE_V1.0.2/MSDK/lwip/lwip-2.1.2/src/api\netbuf.c **** netbuf_delete(struct netbuf *buf)
  82:C:/Users/stapi/OneDrive/Desktop/GD32VW553/V1_MQTT_OK/GD32VW55X_Wifi_BLE_SDK/GD32VW55x_RELEASE_V1.0.2/MSDK/lwip/lwip-2.1.2/src/api\netbuf.c **** {
  55              		.loc 1 82 1 is_stmt 1
  56              		.cfi_startproc
  57              	.LVL3:
  83:C:/Users/stapi/OneDrive/Desktop/GD32VW553/V1_MQTT_OK/GD32VW55X_Wifi_BLE_SDK/GD32VW55x_RELEASE_V1.0.2/MSDK/lwip/lwip-2.1.2/src/api\netbuf.c ****   if (buf != NULL) {
  58              		.loc 1 83 3
  59              		.loc 1 83 6 is_stmt 0
  60 0000 0DCD     		beq	a0,zero,.L17
  82:C:/Users/stapi/OneDrive/Desktop/GD32VW553/V1_MQTT_OK/GD32VW55X_Wifi_BLE_SDK/GD32VW55x_RELEASE_V1.0.2/MSDK/lwip/lwip-2.1.2/src/api\netbuf.c ****   if (buf != NULL) {
  61              		.loc 1 82 1
  62 0002 17030000 		call	t0,__riscv_save_0
  62      E7020300 
  63              		.cfi_offset 1, -4
  64              		.cfi_def_cfa_offset 16
  65 000a AA85     		mv	a1,a0
  84:C:/Users/stapi/OneDrive/Desktop/GD32VW553/V1_MQTT_OK/GD32VW55X_Wifi_BLE_SDK/GD32VW55x_RELEASE_V1.0.2/MSDK/lwip/lwip-2.1.2/src/api\netbuf.c ****     if (buf->p != NULL) {
  66              		.loc 1 84 5 is_stmt 1
  67              		.loc 1 84 12 is_stmt 0
  68 000c 0841     		lw	a0,0(a0)
  69              	.LVL4:
  82:C:/Users/stapi/OneDrive/Desktop/GD32VW553/V1_MQTT_OK/GD32VW55X_Wifi_BLE_SDK/GD32VW55x_RELEASE_V1.0.2/MSDK/lwip/lwip-2.1.2/src/api\netbuf.c ****   if (buf != NULL) {
  70              		.loc 1 82 1
  71 000e 4111     		addi	sp,sp,-16
  72              		.cfi_def_cfa_offset 32
  73              		.loc 1 84 8
  74 0010 19C9     		beq	a0,zero,.L9
  75 0012 2EC6     		sw	a1,12(sp)
  85:C:/Users/stapi/OneDrive/Desktop/GD32VW553/V1_MQTT_OK/GD32VW55X_Wifi_BLE_SDK/GD32VW55x_RELEASE_V1.0.2/MSDK/lwip/lwip-2.1.2/src/api\netbuf.c ****       pbuf_free(buf->p);
  76              		.loc 1 85 7 is_stmt 1
  77 0014 97000000 		call	pbuf_free
  77      E7800000 
  78              	.LVL5:
  86:C:/Users/stapi/OneDrive/Desktop/GD32VW553/V1_MQTT_OK/GD32VW55X_Wifi_BLE_SDK/GD32VW55x_RELEASE_V1.0.2/MSDK/lwip/lwip-2.1.2/src/api\netbuf.c ****       buf->p = buf->ptr = NULL;
  79              		.loc 1 86 7
  80              		.loc 1 86 25 is_stmt 0
  81 001c B245     		lw	a1,12(sp)
  82 001e 23A20500 		sw	zero,4(a1)
  83              		.loc 1 86 14
  84 0022 23A00500 		sw	zero,0(a1)
  85              	.LVL6:
  86              	.L9:
  87:C:/Users/stapi/OneDrive/Desktop/GD32VW553/V1_MQTT_OK/GD32VW55X_Wifi_BLE_SDK/GD32VW55x_RELEASE_V1.0.2/MSDK/lwip/lwip-2.1.2/src/api\netbuf.c ****     }
  88:C:/Users/stapi/OneDrive/Desktop/GD32VW553/V1_MQTT_OK/GD32VW55X_Wifi_BLE_SDK/GD32VW55x_RELEASE_V1.0.2/MSDK/lwip/lwip-2.1.2/src/api\netbuf.c ****     memp_free(MEMP_NETBUF, buf);
  87              		.loc 1 88 5 is_stmt 1
  88 0026 2145     		li	a0,8
  89 0028 97000000 		call	memp_free
  89      E7800000 
  90              	.LVL7:
  89:C:/Users/stapi/OneDrive/Desktop/GD32VW553/V1_MQTT_OK/GD32VW55X_Wifi_BLE_SDK/GD32VW55x_RELEASE_V1.0.2/MSDK/lwip/lwip-2.1.2/src/api\netbuf.c ****   }
  90:C:/Users/stapi/OneDrive/Desktop/GD32VW553/V1_MQTT_OK/GD32VW55X_Wifi_BLE_SDK/GD32VW55x_RELEASE_V1.0.2/MSDK/lwip/lwip-2.1.2/src/api\netbuf.c **** }
  91              		.loc 1 90 1 is_stmt 0
  92 0030 4101     		addi	sp,sp,16
  93              		.cfi_def_cfa_offset 0
  94 0032 17030000 		tail	__riscv_restore_0
  94      67000300 
  95              		.cfi_restore 1
  96              		.cfi_def_cfa_offset -16
  97              	.LVL8:
  98              	.L17:
  99              		.cfi_def_cfa_offset 0
 100 003a 8280     		ret
 101              		.cfi_endproc
 102              	.LFE5:
 104              		.section	.rodata.netbuf_alloc.str1.4,"aMS",@progbits,1
 105              		.align	2
 106              	.LC0:
 107 0000 433A2F55 		.string	"C:/Users/stapi/OneDrive/Desktop/GD32VW553/V1_MQTT_OK/GD32VW55X_Wifi_BLE_SDK/GD32VW55x_REL
 107      73657273 
 107      2F737461 
 107      70692F4F 
 107      6E654472 
 108 008b 00       		.align	2
 109              	.LC1:
 110 008c 6E657462 		.string	"netbuf_alloc: invalid buf"
 110      75665F61 
 110      6C6C6F63 
 110      3A20696E 
 110      76616C69 
 111 00a6 0000     		.align	2
 112              	.LC2:
 113 00a8 41737365 		.string	"Assertion \"%s\" failed at line %d in %s\n"
 113      7274696F 
 113      6E202225 
 113      73222066 
 113      61696C65 
 114              		.align	2
 115              	.LC3:
 116 00d0 63686563 		.string	"check that first pbuf can hold size"
 116      6B207468 
 116      61742066 
 116      69727374 
 116      20706275 
 117              		.section	.text.netbuf_alloc,"ax",@progbits
 118              		.align	1
 119              		.globl	netbuf_alloc
 121              	netbuf_alloc:
 122              	.LFB6:
  91:C:/Users/stapi/OneDrive/Desktop/GD32VW553/V1_MQTT_OK/GD32VW55X_Wifi_BLE_SDK/GD32VW55x_RELEASE_V1.0.2/MSDK/lwip/lwip-2.1.2/src/api\netbuf.c **** 
  92:C:/Users/stapi/OneDrive/Desktop/GD32VW553/V1_MQTT_OK/GD32VW55X_Wifi_BLE_SDK/GD32VW55x_RELEASE_V1.0.2/MSDK/lwip/lwip-2.1.2/src/api\netbuf.c **** /**
  93:C:/Users/stapi/OneDrive/Desktop/GD32VW553/V1_MQTT_OK/GD32VW55X_Wifi_BLE_SDK/GD32VW55x_RELEASE_V1.0.2/MSDK/lwip/lwip-2.1.2/src/api\netbuf.c ****  * @ingroup netbuf
  94:C:/Users/stapi/OneDrive/Desktop/GD32VW553/V1_MQTT_OK/GD32VW55X_Wifi_BLE_SDK/GD32VW55x_RELEASE_V1.0.2/MSDK/lwip/lwip-2.1.2/src/api\netbuf.c ****  * Allocate memory for a packet buffer for a given netbuf.
  95:C:/Users/stapi/OneDrive/Desktop/GD32VW553/V1_MQTT_OK/GD32VW55X_Wifi_BLE_SDK/GD32VW55x_RELEASE_V1.0.2/MSDK/lwip/lwip-2.1.2/src/api\netbuf.c ****  *
  96:C:/Users/stapi/OneDrive/Desktop/GD32VW553/V1_MQTT_OK/GD32VW55X_Wifi_BLE_SDK/GD32VW55x_RELEASE_V1.0.2/MSDK/lwip/lwip-2.1.2/src/api\netbuf.c ****  * @param buf the netbuf for which to allocate a packet buffer
  97:C:/Users/stapi/OneDrive/Desktop/GD32VW553/V1_MQTT_OK/GD32VW55X_Wifi_BLE_SDK/GD32VW55x_RELEASE_V1.0.2/MSDK/lwip/lwip-2.1.2/src/api\netbuf.c ****  * @param size the size of the packet buffer to allocate
  98:C:/Users/stapi/OneDrive/Desktop/GD32VW553/V1_MQTT_OK/GD32VW55X_Wifi_BLE_SDK/GD32VW55x_RELEASE_V1.0.2/MSDK/lwip/lwip-2.1.2/src/api\netbuf.c ****  * @return pointer to the allocated memory
  99:C:/Users/stapi/OneDrive/Desktop/GD32VW553/V1_MQTT_OK/GD32VW55X_Wifi_BLE_SDK/GD32VW55x_RELEASE_V1.0.2/MSDK/lwip/lwip-2.1.2/src/api\netbuf.c ****  *         NULL if no memory could be allocated
 100:C:/Users/stapi/OneDrive/Desktop/GD32VW553/V1_MQTT_OK/GD32VW55X_Wifi_BLE_SDK/GD32VW55x_RELEASE_V1.0.2/MSDK/lwip/lwip-2.1.2/src/api\netbuf.c ****  */
 101:C:/Users/stapi/OneDrive/Desktop/GD32VW553/V1_MQTT_OK/GD32VW55X_Wifi_BLE_SDK/GD32VW55x_RELEASE_V1.0.2/MSDK/lwip/lwip-2.1.2/src/api\netbuf.c **** void *
 102:C:/Users/stapi/OneDrive/Desktop/GD32VW553/V1_MQTT_OK/GD32VW55X_Wifi_BLE_SDK/GD32VW55x_RELEASE_V1.0.2/MSDK/lwip/lwip-2.1.2/src/api\netbuf.c **** netbuf_alloc(struct netbuf *buf, u16_t size)
 103:C:/Users/stapi/OneDrive/Desktop/GD32VW553/V1_MQTT_OK/GD32VW55X_Wifi_BLE_SDK/GD32VW55x_RELEASE_V1.0.2/MSDK/lwip/lwip-2.1.2/src/api\netbuf.c **** {
 123              		.loc 1 103 1 is_stmt 1
 124              		.cfi_startproc
 125              	.LVL9:
 126 0000 17030000 		call	t0,__riscv_save_2
 126      E7020300 
 127              		.cfi_offset 9, -12
 128              		.cfi_offset 8, -8
 129              		.cfi_offset 1, -4
 130              		.cfi_def_cfa_offset 16
 104:C:/Users/stapi/OneDrive/Desktop/GD32VW553/V1_MQTT_OK/GD32VW55X_Wifi_BLE_SDK/GD32VW55x_RELEASE_V1.0.2/MSDK/lwip/lwip-2.1.2/src/api\netbuf.c ****   LWIP_ERROR("netbuf_alloc: invalid buf", (buf != NULL), return NULL;);
 131              		.loc 1 104 3
 132              		.loc 1 104 3
 133 0008 05E5     		bne	a0,zero,.L21
 134              		.loc 1 104 3 discriminator 1
 135              		.loc 1 104 3 discriminator 1
 136 000a B7060000 		lui	a3,%hi(.LC0)
 137 000e B7050000 		lui	a1,%hi(.LC1)
 138              	.LVL10:
 139 0012 37050000 		lui	a0,%hi(.LC2)
 140              	.LVL11:
 141 0016 93860600 		addi	a3,a3,%lo(.LC0)
 142 001a 13068006 		li	a2,104
 143 001e 93850500 		addi	a1,a1,%lo(.LC1)
 144 0022 13050500 		addi	a0,a0,%lo(.LC2)
 145 0026 97000000 		call	printf
 145      E7800000 
 146              	.LVL12:
 147              	.L22:
 148              		.loc 1 104 3 discriminator 1
 149              		.loc 1 104 3 discriminator 1
 150              		.loc 1 104 3 discriminator 1
 151 002e 01A0     		j	.L22
 152              	.LVL13:
 153              	.L21:
 154 0030 2A84     		mv	s0,a0
 105:C:/Users/stapi/OneDrive/Desktop/GD32VW553/V1_MQTT_OK/GD32VW55X_Wifi_BLE_SDK/GD32VW55x_RELEASE_V1.0.2/MSDK/lwip/lwip-2.1.2/src/api\netbuf.c **** 
 106:C:/Users/stapi/OneDrive/Desktop/GD32VW553/V1_MQTT_OK/GD32VW55X_Wifi_BLE_SDK/GD32VW55x_RELEASE_V1.0.2/MSDK/lwip/lwip-2.1.2/src/api\netbuf.c ****   /* Deallocate any previously allocated memory. */
 107:C:/Users/stapi/OneDrive/Desktop/GD32VW553/V1_MQTT_OK/GD32VW55X_Wifi_BLE_SDK/GD32VW55x_RELEASE_V1.0.2/MSDK/lwip/lwip-2.1.2/src/api\netbuf.c ****   if (buf->p != NULL) {
 155              		.loc 1 107 10 is_stmt 0 discriminator 2
 156 0032 0841     		lw	a0,0(a0)
 157              	.LVL14:
 158 0034 AE84     		mv	s1,a1
 104:C:/Users/stapi/OneDrive/Desktop/GD32VW553/V1_MQTT_OK/GD32VW55X_Wifi_BLE_SDK/GD32VW55x_RELEASE_V1.0.2/MSDK/lwip/lwip-2.1.2/src/api\netbuf.c ****   LWIP_ERROR("netbuf_alloc: invalid buf", (buf != NULL), return NULL;);
 159              		.loc 1 104 3 is_stmt 1 discriminator 2
 104:C:/Users/stapi/OneDrive/Desktop/GD32VW553/V1_MQTT_OK/GD32VW55X_Wifi_BLE_SDK/GD32VW55x_RELEASE_V1.0.2/MSDK/lwip/lwip-2.1.2/src/api\netbuf.c ****   LWIP_ERROR("netbuf_alloc: invalid buf", (buf != NULL), return NULL;);
 160              		.loc 1 104 3 discriminator 2
 161              		.loc 1 107 3 discriminator 2
 162              		.loc 1 107 6 is_stmt 0 discriminator 2
 163 0036 09C5     		beq	a0,zero,.L23
 108:C:/Users/stapi/OneDrive/Desktop/GD32VW553/V1_MQTT_OK/GD32VW55X_Wifi_BLE_SDK/GD32VW55x_RELEASE_V1.0.2/MSDK/lwip/lwip-2.1.2/src/api\netbuf.c ****     pbuf_free(buf->p);
 164              		.loc 1 108 5 is_stmt 1
 165 0038 97000000 		call	pbuf_free
 165      E7800000 
 166              	.LVL15:
 167              	.L23:
 109:C:/Users/stapi/OneDrive/Desktop/GD32VW553/V1_MQTT_OK/GD32VW55X_Wifi_BLE_SDK/GD32VW55x_RELEASE_V1.0.2/MSDK/lwip/lwip-2.1.2/src/api\netbuf.c ****   }
 110:C:/Users/stapi/OneDrive/Desktop/GD32VW553/V1_MQTT_OK/GD32VW55X_Wifi_BLE_SDK/GD32VW55x_RELEASE_V1.0.2/MSDK/lwip/lwip-2.1.2/src/api\netbuf.c ****   buf->p = pbuf_alloc(PBUF_TRANSPORT, size, PBUF_RAM);
 168              		.loc 1 110 3
 169              		.loc 1 110 12 is_stmt 0
 170 0040 13060028 		li	a2,640
 171 0044 A685     		mv	a1,s1
 172 0046 13052019 		li	a0,402
 173 004a 97000000 		call	pbuf_alloc
 173      E7800000 
 174              	.LVL16:
 175              		.loc 1 110 10
 176 0052 08C0     		sw	a0,0(s0)
 111:C:/Users/stapi/OneDrive/Desktop/GD32VW553/V1_MQTT_OK/GD32VW55X_Wifi_BLE_SDK/GD32VW55x_RELEASE_V1.0.2/MSDK/lwip/lwip-2.1.2/src/api\netbuf.c ****   if (buf->p == NULL) {
 177              		.loc 1 111 3 is_stmt 1
 178              		.loc 1 111 6 is_stmt 0
 179 0054 15C9     		beq	a0,zero,.L20
 112:C:/Users/stapi/OneDrive/Desktop/GD32VW553/V1_MQTT_OK/GD32VW55X_Wifi_BLE_SDK/GD32VW55x_RELEASE_V1.0.2/MSDK/lwip/lwip-2.1.2/src/api\netbuf.c ****     return NULL;
 113:C:/Users/stapi/OneDrive/Desktop/GD32VW553/V1_MQTT_OK/GD32VW55X_Wifi_BLE_SDK/GD32VW55x_RELEASE_V1.0.2/MSDK/lwip/lwip-2.1.2/src/api\netbuf.c ****   }
 114:C:/Users/stapi/OneDrive/Desktop/GD32VW553/V1_MQTT_OK/GD32VW55X_Wifi_BLE_SDK/GD32VW55x_RELEASE_V1.0.2/MSDK/lwip/lwip-2.1.2/src/api\netbuf.c ****   LWIP_ASSERT("check that first pbuf can hold size",
 180              		.loc 1 114 3 is_stmt 1
 181              		.loc 1 114 3
 182 0056 8357A500 		lhu	a5,10(a0)
 183 005a 63F59702 		bgeu	a5,s1,.L25
 184              		.loc 1 114 3 discriminator 1
 185              		.loc 1 114 3 discriminator 1
 186 005e B7060000 		lui	a3,%hi(.LC0)
 187 0062 B7050000 		lui	a1,%hi(.LC3)
 188 0066 37050000 		lui	a0,%hi(.LC2)
 189 006a 93860600 		addi	a3,a3,%lo(.LC0)
 190 006e 13062007 		li	a2,114
 191 0072 93850500 		addi	a1,a1,%lo(.LC3)
 192 0076 13050500 		addi	a0,a0,%lo(.LC2)
 193 007a 97000000 		call	printf
 193      E7800000 
 194              	.LVL17:
 195              	.L26:
 196              		.loc 1 114 3 discriminator 2
 197              		.loc 1 114 3 discriminator 2
 198              		.loc 1 114 3 discriminator 2
 199 0082 01A0     		j	.L26
 200              	.L25:
 201              		.loc 1 114 3 discriminator 2
 202              		.loc 1 114 3 discriminator 2
 115:C:/Users/stapi/OneDrive/Desktop/GD32VW553/V1_MQTT_OK/GD32VW55X_Wifi_BLE_SDK/GD32VW55x_RELEASE_V1.0.2/MSDK/lwip/lwip-2.1.2/src/api\netbuf.c ****               (buf->p->len >= size));
 116:C:/Users/stapi/OneDrive/Desktop/GD32VW553/V1_MQTT_OK/GD32VW55X_Wifi_BLE_SDK/GD32VW55x_RELEASE_V1.0.2/MSDK/lwip/lwip-2.1.2/src/api\netbuf.c ****   buf->ptr = buf->p;
 203              		.loc 1 116 3 discriminator 2
 204              		.loc 1 116 12 is_stmt 0 discriminator 2
 205 0084 48C0     		sw	a0,4(s0)
 117:C:/Users/stapi/OneDrive/Desktop/GD32VW553/V1_MQTT_OK/GD32VW55X_Wifi_BLE_SDK/GD32VW55x_RELEASE_V1.0.2/MSDK/lwip/lwip-2.1.2/src/api\netbuf.c ****   return buf->p->payload;
 206              		.loc 1 117 3 is_stmt 1 discriminator 2
 207              		.loc 1 117 16 is_stmt 0 discriminator 2
 208 0086 4841     		lw	a0,4(a0)
 209              	.L20:
 118:C:/Users/stapi/OneDrive/Desktop/GD32VW553/V1_MQTT_OK/GD32VW55X_Wifi_BLE_SDK/GD32VW55x_RELEASE_V1.0.2/MSDK/lwip/lwip-2.1.2/src/api\netbuf.c **** }
 210              		.loc 1 118 1
 211 0088 17030000 		tail	__riscv_restore_2
 211      67000300 
 212              		.cfi_restore 9
 213              		.cfi_restore 8
 214              		.cfi_restore 1
 215              		.cfi_def_cfa_offset 0
 216              		.cfi_endproc
 217              	.LFE6:
 219              		.section	.rodata.netbuf_free.str1.4,"aMS",@progbits,1
 220              		.align	2
 221              	.LC4:
 222 0000 6E657462 		.string	"netbuf_free: invalid buf"
 222      75665F66 
 222      7265653A 
 222      20696E76 
 222      616C6964 
 223              		.section	.text.netbuf_free,"ax",@progbits
 224              		.align	1
 225              		.globl	netbuf_free
 227              	netbuf_free:
 228              	.LFB7:
 119:C:/Users/stapi/OneDrive/Desktop/GD32VW553/V1_MQTT_OK/GD32VW55X_Wifi_BLE_SDK/GD32VW55x_RELEASE_V1.0.2/MSDK/lwip/lwip-2.1.2/src/api\netbuf.c **** 
 120:C:/Users/stapi/OneDrive/Desktop/GD32VW553/V1_MQTT_OK/GD32VW55X_Wifi_BLE_SDK/GD32VW55x_RELEASE_V1.0.2/MSDK/lwip/lwip-2.1.2/src/api\netbuf.c **** /**
 121:C:/Users/stapi/OneDrive/Desktop/GD32VW553/V1_MQTT_OK/GD32VW55X_Wifi_BLE_SDK/GD32VW55x_RELEASE_V1.0.2/MSDK/lwip/lwip-2.1.2/src/api\netbuf.c ****  * @ingroup netbuf
 122:C:/Users/stapi/OneDrive/Desktop/GD32VW553/V1_MQTT_OK/GD32VW55X_Wifi_BLE_SDK/GD32VW55x_RELEASE_V1.0.2/MSDK/lwip/lwip-2.1.2/src/api\netbuf.c ****  * Free the packet buffer included in a netbuf
 123:C:/Users/stapi/OneDrive/Desktop/GD32VW553/V1_MQTT_OK/GD32VW55X_Wifi_BLE_SDK/GD32VW55x_RELEASE_V1.0.2/MSDK/lwip/lwip-2.1.2/src/api\netbuf.c ****  *
 124:C:/Users/stapi/OneDrive/Desktop/GD32VW553/V1_MQTT_OK/GD32VW55X_Wifi_BLE_SDK/GD32VW55x_RELEASE_V1.0.2/MSDK/lwip/lwip-2.1.2/src/api\netbuf.c ****  * @param buf pointer to the netbuf which contains the packet buffer to free
 125:C:/Users/stapi/OneDrive/Desktop/GD32VW553/V1_MQTT_OK/GD32VW55X_Wifi_BLE_SDK/GD32VW55x_RELEASE_V1.0.2/MSDK/lwip/lwip-2.1.2/src/api\netbuf.c ****  */
 126:C:/Users/stapi/OneDrive/Desktop/GD32VW553/V1_MQTT_OK/GD32VW55X_Wifi_BLE_SDK/GD32VW55x_RELEASE_V1.0.2/MSDK/lwip/lwip-2.1.2/src/api\netbuf.c **** void
 127:C:/Users/stapi/OneDrive/Desktop/GD32VW553/V1_MQTT_OK/GD32VW55X_Wifi_BLE_SDK/GD32VW55x_RELEASE_V1.0.2/MSDK/lwip/lwip-2.1.2/src/api\netbuf.c **** netbuf_free(struct netbuf *buf)
 128:C:/Users/stapi/OneDrive/Desktop/GD32VW553/V1_MQTT_OK/GD32VW55X_Wifi_BLE_SDK/GD32VW55x_RELEASE_V1.0.2/MSDK/lwip/lwip-2.1.2/src/api\netbuf.c **** {
 229              		.loc 1 128 1 is_stmt 1
 230              		.cfi_startproc
 231              	.LVL18:
 232 0000 17030000 		call	t0,__riscv_save_1
 232      E7020300 
 233              		.cfi_offset 8, -8
 234              		.cfi_offset 1, -4
 235              		.cfi_def_cfa_offset 16
 129:C:/Users/stapi/OneDrive/Desktop/GD32VW553/V1_MQTT_OK/GD32VW55X_Wifi_BLE_SDK/GD32VW55x_RELEASE_V1.0.2/MSDK/lwip/lwip-2.1.2/src/api\netbuf.c ****   LWIP_ERROR("netbuf_free: invalid buf", (buf != NULL), return;);
 236              		.loc 1 129 3
 237              		.loc 1 129 3
 238 0008 05E5     		bne	a0,zero,.L35
 239              		.loc 1 129 3 discriminator 1
 240              		.loc 1 129 3 discriminator 1
 241 000a B7060000 		lui	a3,%hi(.LC0)
 242 000e B7050000 		lui	a1,%hi(.LC4)
 243 0012 37050000 		lui	a0,%hi(.LC2)
 244              	.LVL19:
 245 0016 93860600 		addi	a3,a3,%lo(.LC0)
 246 001a 13061008 		li	a2,129
 247 001e 93850500 		addi	a1,a1,%lo(.LC4)
 248 0022 13050500 		addi	a0,a0,%lo(.LC2)
 249 0026 97000000 		call	printf
 249      E7800000 
 250              	.LVL20:
 251              	.L36:
 252              		.loc 1 129 3 discriminator 1
 253              		.loc 1 129 3 discriminator 1
 254              		.loc 1 129 3 discriminator 1
 255 002e 01A0     		j	.L36
 256              	.LVL21:
 257              	.L35:
 258 0030 2A84     		mv	s0,a0
 259              		.loc 1 129 3 discriminator 2
 260              		.loc 1 129 3 discriminator 2
 130:C:/Users/stapi/OneDrive/Desktop/GD32VW553/V1_MQTT_OK/GD32VW55X_Wifi_BLE_SDK/GD32VW55x_RELEASE_V1.0.2/MSDK/lwip/lwip-2.1.2/src/api\netbuf.c ****   if (buf->p != NULL) {
 261              		.loc 1 130 3 discriminator 2
 262              		.loc 1 130 10 is_stmt 0 discriminator 2
 263 0032 0841     		lw	a0,0(a0)
 264              	.LVL22:
 265              		.loc 1 130 6 discriminator 2
 266 0034 09C5     		beq	a0,zero,.L37
 131:C:/Users/stapi/OneDrive/Desktop/GD32VW553/V1_MQTT_OK/GD32VW55X_Wifi_BLE_SDK/GD32VW55x_RELEASE_V1.0.2/MSDK/lwip/lwip-2.1.2/src/api\netbuf.c ****     pbuf_free(buf->p);
 267              		.loc 1 131 5 is_stmt 1
 268 0036 97000000 		call	pbuf_free
 268      E7800000 
 269              	.LVL23:
 270              	.L37:
 132:C:/Users/stapi/OneDrive/Desktop/GD32VW553/V1_MQTT_OK/GD32VW55X_Wifi_BLE_SDK/GD32VW55x_RELEASE_V1.0.2/MSDK/lwip/lwip-2.1.2/src/api\netbuf.c ****   }
 133:C:/Users/stapi/OneDrive/Desktop/GD32VW553/V1_MQTT_OK/GD32VW55X_Wifi_BLE_SDK/GD32VW55x_RELEASE_V1.0.2/MSDK/lwip/lwip-2.1.2/src/api\netbuf.c ****   buf->p = buf->ptr = NULL;
 271              		.loc 1 133 3
 272              		.loc 1 133 21 is_stmt 0
 273 003e 23220400 		sw	zero,4(s0)
 274              		.loc 1 133 10
 275 0042 23200400 		sw	zero,0(s0)
 134:C:/Users/stapi/OneDrive/Desktop/GD32VW553/V1_MQTT_OK/GD32VW55X_Wifi_BLE_SDK/GD32VW55x_RELEASE_V1.0.2/MSDK/lwip/lwip-2.1.2/src/api\netbuf.c **** #if LWIP_CHECKSUM_ON_COPY
 135:C:/Users/stapi/OneDrive/Desktop/GD32VW553/V1_MQTT_OK/GD32VW55X_Wifi_BLE_SDK/GD32VW55x_RELEASE_V1.0.2/MSDK/lwip/lwip-2.1.2/src/api\netbuf.c ****   buf->flags = 0;
 136:C:/Users/stapi/OneDrive/Desktop/GD32VW553/V1_MQTT_OK/GD32VW55X_Wifi_BLE_SDK/GD32VW55x_RELEASE_V1.0.2/MSDK/lwip/lwip-2.1.2/src/api\netbuf.c ****   buf->toport_chksum = 0;
 137:C:/Users/stapi/OneDrive/Desktop/GD32VW553/V1_MQTT_OK/GD32VW55X_Wifi_BLE_SDK/GD32VW55x_RELEASE_V1.0.2/MSDK/lwip/lwip-2.1.2/src/api\netbuf.c **** #endif /* LWIP_CHECKSUM_ON_COPY */
 138:C:/Users/stapi/OneDrive/Desktop/GD32VW553/V1_MQTT_OK/GD32VW55X_Wifi_BLE_SDK/GD32VW55x_RELEASE_V1.0.2/MSDK/lwip/lwip-2.1.2/src/api\netbuf.c **** }
 276              		.loc 1 138 1
 277 0046 17030000 		tail	__riscv_restore_1
 277      67000300 
 278              		.cfi_restore 8
 279              		.cfi_restore 1
 280              		.cfi_def_cfa_offset 0
 281              		.cfi_endproc
 282              	.LFE7:
 284              		.section	.rodata.netbuf_ref.str1.4,"aMS",@progbits,1
 285              		.align	2
 286              	.LC5:
 287 0000 6E657462 		.string	"netbuf_ref: invalid buf"
 287      75665F72 
 287      65663A20 
 287      696E7661 
 287      6C696420 
 288              		.section	.text.netbuf_ref,"ax",@progbits
 289              		.align	1
 290              		.globl	netbuf_ref
 292              	netbuf_ref:
 293              	.LFB8:
 139:C:/Users/stapi/OneDrive/Desktop/GD32VW553/V1_MQTT_OK/GD32VW55X_Wifi_BLE_SDK/GD32VW55x_RELEASE_V1.0.2/MSDK/lwip/lwip-2.1.2/src/api\netbuf.c **** 
 140:C:/Users/stapi/OneDrive/Desktop/GD32VW553/V1_MQTT_OK/GD32VW55X_Wifi_BLE_SDK/GD32VW55x_RELEASE_V1.0.2/MSDK/lwip/lwip-2.1.2/src/api\netbuf.c **** /**
 141:C:/Users/stapi/OneDrive/Desktop/GD32VW553/V1_MQTT_OK/GD32VW55X_Wifi_BLE_SDK/GD32VW55x_RELEASE_V1.0.2/MSDK/lwip/lwip-2.1.2/src/api\netbuf.c ****  * @ingroup netbuf
 142:C:/Users/stapi/OneDrive/Desktop/GD32VW553/V1_MQTT_OK/GD32VW55X_Wifi_BLE_SDK/GD32VW55x_RELEASE_V1.0.2/MSDK/lwip/lwip-2.1.2/src/api\netbuf.c ****  * Let a netbuf reference existing (non-volatile) data.
 143:C:/Users/stapi/OneDrive/Desktop/GD32VW553/V1_MQTT_OK/GD32VW55X_Wifi_BLE_SDK/GD32VW55x_RELEASE_V1.0.2/MSDK/lwip/lwip-2.1.2/src/api\netbuf.c ****  *
 144:C:/Users/stapi/OneDrive/Desktop/GD32VW553/V1_MQTT_OK/GD32VW55X_Wifi_BLE_SDK/GD32VW55x_RELEASE_V1.0.2/MSDK/lwip/lwip-2.1.2/src/api\netbuf.c ****  * @param buf netbuf which should reference the data
 145:C:/Users/stapi/OneDrive/Desktop/GD32VW553/V1_MQTT_OK/GD32VW55X_Wifi_BLE_SDK/GD32VW55x_RELEASE_V1.0.2/MSDK/lwip/lwip-2.1.2/src/api\netbuf.c ****  * @param dataptr pointer to the data to reference
 146:C:/Users/stapi/OneDrive/Desktop/GD32VW553/V1_MQTT_OK/GD32VW55X_Wifi_BLE_SDK/GD32VW55x_RELEASE_V1.0.2/MSDK/lwip/lwip-2.1.2/src/api\netbuf.c ****  * @param size size of the data
 147:C:/Users/stapi/OneDrive/Desktop/GD32VW553/V1_MQTT_OK/GD32VW55X_Wifi_BLE_SDK/GD32VW55x_RELEASE_V1.0.2/MSDK/lwip/lwip-2.1.2/src/api\netbuf.c ****  * @return ERR_OK if data is referenced
 148:C:/Users/stapi/OneDrive/Desktop/GD32VW553/V1_MQTT_OK/GD32VW55X_Wifi_BLE_SDK/GD32VW55x_RELEASE_V1.0.2/MSDK/lwip/lwip-2.1.2/src/api\netbuf.c ****  *         ERR_MEM if data couldn't be referenced due to lack of memory
 149:C:/Users/stapi/OneDrive/Desktop/GD32VW553/V1_MQTT_OK/GD32VW55X_Wifi_BLE_SDK/GD32VW55x_RELEASE_V1.0.2/MSDK/lwip/lwip-2.1.2/src/api\netbuf.c ****  */
 150:C:/Users/stapi/OneDrive/Desktop/GD32VW553/V1_MQTT_OK/GD32VW55X_Wifi_BLE_SDK/GD32VW55x_RELEASE_V1.0.2/MSDK/lwip/lwip-2.1.2/src/api\netbuf.c **** err_t
 151:C:/Users/stapi/OneDrive/Desktop/GD32VW553/V1_MQTT_OK/GD32VW55X_Wifi_BLE_SDK/GD32VW55x_RELEASE_V1.0.2/MSDK/lwip/lwip-2.1.2/src/api\netbuf.c **** netbuf_ref(struct netbuf *buf, const void *dataptr, u16_t size)
 152:C:/Users/stapi/OneDrive/Desktop/GD32VW553/V1_MQTT_OK/GD32VW55X_Wifi_BLE_SDK/GD32VW55x_RELEASE_V1.0.2/MSDK/lwip/lwip-2.1.2/src/api\netbuf.c **** {
 294              		.loc 1 152 1 is_stmt 1
 295              		.cfi_startproc
 296              	.LVL24:
 297 0000 17030000 		call	t0,__riscv_save_3
 297      E7020300 
 298              		.cfi_offset 18, -16
 299              		.cfi_offset 9, -12
 300              		.cfi_offset 8, -8
 301              		.cfi_offset 1, -4
 302              		.cfi_def_cfa_offset 16
 153:C:/Users/stapi/OneDrive/Desktop/GD32VW553/V1_MQTT_OK/GD32VW55X_Wifi_BLE_SDK/GD32VW55x_RELEASE_V1.0.2/MSDK/lwip/lwip-2.1.2/src/api\netbuf.c ****   LWIP_ERROR("netbuf_ref: invalid buf", (buf != NULL), return ERR_ARG;);
 303              		.loc 1 153 3
 304              		.loc 1 153 3
 305 0008 05E5     		bne	a0,zero,.L43
 306              		.loc 1 153 3 discriminator 1
 307              		.loc 1 153 3 discriminator 1
 308 000a B7060000 		lui	a3,%hi(.LC0)
 309 000e B7050000 		lui	a1,%hi(.LC5)
 310              	.LVL25:
 311 0012 37050000 		lui	a0,%hi(.LC2)
 312              	.LVL26:
 313 0016 93860600 		addi	a3,a3,%lo(.LC0)
 314 001a 13069009 		li	a2,153
 315              	.LVL27:
 316 001e 93850500 		addi	a1,a1,%lo(.LC5)
 317 0022 13050500 		addi	a0,a0,%lo(.LC2)
 318 0026 97000000 		call	printf
 318      E7800000 
 319              	.LVL28:
 320              	.L44:
 321              		.loc 1 153 3 discriminator 1
 322              		.loc 1 153 3 discriminator 1
 323              		.loc 1 153 3 discriminator 1
 324 002e 01A0     		j	.L44
 325              	.LVL29:
 326              	.L43:
 327 0030 2A84     		mv	s0,a0
 154:C:/Users/stapi/OneDrive/Desktop/GD32VW553/V1_MQTT_OK/GD32VW55X_Wifi_BLE_SDK/GD32VW55x_RELEASE_V1.0.2/MSDK/lwip/lwip-2.1.2/src/api\netbuf.c ****   if (buf->p != NULL) {
 328              		.loc 1 154 10 is_stmt 0 discriminator 2
 329 0032 0841     		lw	a0,0(a0)
 330              	.LVL30:
 331 0034 2E89     		mv	s2,a1
 332 0036 B284     		mv	s1,a2
 153:C:/Users/stapi/OneDrive/Desktop/GD32VW553/V1_MQTT_OK/GD32VW55X_Wifi_BLE_SDK/GD32VW55x_RELEASE_V1.0.2/MSDK/lwip/lwip-2.1.2/src/api\netbuf.c ****   LWIP_ERROR("netbuf_ref: invalid buf", (buf != NULL), return ERR_ARG;);
 333              		.loc 1 153 3 is_stmt 1 discriminator 2
 153:C:/Users/stapi/OneDrive/Desktop/GD32VW553/V1_MQTT_OK/GD32VW55X_Wifi_BLE_SDK/GD32VW55x_RELEASE_V1.0.2/MSDK/lwip/lwip-2.1.2/src/api\netbuf.c ****   LWIP_ERROR("netbuf_ref: invalid buf", (buf != NULL), return ERR_ARG;);
 334              		.loc 1 153 3 discriminator 2
 335              		.loc 1 154 3 discriminator 2
 336              		.loc 1 154 6 is_stmt 0 discriminator 2
 337 0038 09C5     		beq	a0,zero,.L45
 155:C:/Users/stapi/OneDrive/Desktop/GD32VW553/V1_MQTT_OK/GD32VW55X_Wifi_BLE_SDK/GD32VW55x_RELEASE_V1.0.2/MSDK/lwip/lwip-2.1.2/src/api\netbuf.c ****     pbuf_free(buf->p);
 338              		.loc 1 155 5 is_stmt 1
 339 003a 97000000 		call	pbuf_free
 339      E7800000 
 340              	.LVL31:
 341              	.L45:
 156:C:/Users/stapi/OneDrive/Desktop/GD32VW553/V1_MQTT_OK/GD32VW55X_Wifi_BLE_SDK/GD32VW55x_RELEASE_V1.0.2/MSDK/lwip/lwip-2.1.2/src/api\netbuf.c ****   }
 157:C:/Users/stapi/OneDrive/Desktop/GD32VW553/V1_MQTT_OK/GD32VW55X_Wifi_BLE_SDK/GD32VW55x_RELEASE_V1.0.2/MSDK/lwip/lwip-2.1.2/src/api\netbuf.c ****   buf->p = pbuf_alloc(PBUF_TRANSPORT, 0, PBUF_REF);
 342              		.loc 1 157 3
 343              		.loc 1 157 12 is_stmt 0
 344 0042 13061004 		li	a2,65
 345 0046 8145     		li	a1,0
 346 0048 13052019 		li	a0,402
 347 004c 97000000 		call	pbuf_alloc
 347      E7800000 
 348              	.LVL32:
 349              		.loc 1 157 10
 350 0054 08C0     		sw	a0,0(s0)
 158:C:/Users/stapi/OneDrive/Desktop/GD32VW553/V1_MQTT_OK/GD32VW55X_Wifi_BLE_SDK/GD32VW55x_RELEASE_V1.0.2/MSDK/lwip/lwip-2.1.2/src/api\netbuf.c ****   if (buf->p == NULL) {
 351              		.loc 1 158 3 is_stmt 1
 352              		.loc 1 158 6 is_stmt 0
 353 0056 01E9     		bne	a0,zero,.L46
 159:C:/Users/stapi/OneDrive/Desktop/GD32VW553/V1_MQTT_OK/GD32VW55X_Wifi_BLE_SDK/GD32VW55x_RELEASE_V1.0.2/MSDK/lwip/lwip-2.1.2/src/api\netbuf.c ****     buf->ptr = NULL;
 354              		.loc 1 159 5 is_stmt 1
 355              		.loc 1 159 14 is_stmt 0
 356 0058 23220400 		sw	zero,4(s0)
 160:C:/Users/stapi/OneDrive/Desktop/GD32VW553/V1_MQTT_OK/GD32VW55X_Wifi_BLE_SDK/GD32VW55x_RELEASE_V1.0.2/MSDK/lwip/lwip-2.1.2/src/api\netbuf.c ****     return ERR_MEM;
 357              		.loc 1 160 5 is_stmt 1
 358              		.loc 1 160 12 is_stmt 0
 359 005c 7D55     		li	a0,-1
 360              	.L47:
 161:C:/Users/stapi/OneDrive/Desktop/GD32VW553/V1_MQTT_OK/GD32VW55X_Wifi_BLE_SDK/GD32VW55x_RELEASE_V1.0.2/MSDK/lwip/lwip-2.1.2/src/api\netbuf.c ****   }
 162:C:/Users/stapi/OneDrive/Desktop/GD32VW553/V1_MQTT_OK/GD32VW55X_Wifi_BLE_SDK/GD32VW55x_RELEASE_V1.0.2/MSDK/lwip/lwip-2.1.2/src/api\netbuf.c ****   ((struct pbuf_rom *)buf->p)->payload = dataptr;
 163:C:/Users/stapi/OneDrive/Desktop/GD32VW553/V1_MQTT_OK/GD32VW55X_Wifi_BLE_SDK/GD32VW55x_RELEASE_V1.0.2/MSDK/lwip/lwip-2.1.2/src/api\netbuf.c ****   buf->p->len = buf->p->tot_len = size;
 164:C:/Users/stapi/OneDrive/Desktop/GD32VW553/V1_MQTT_OK/GD32VW55X_Wifi_BLE_SDK/GD32VW55x_RELEASE_V1.0.2/MSDK/lwip/lwip-2.1.2/src/api\netbuf.c ****   buf->ptr = buf->p;
 165:C:/Users/stapi/OneDrive/Desktop/GD32VW553/V1_MQTT_OK/GD32VW55X_Wifi_BLE_SDK/GD32VW55x_RELEASE_V1.0.2/MSDK/lwip/lwip-2.1.2/src/api\netbuf.c ****   return ERR_OK;
 166:C:/Users/stapi/OneDrive/Desktop/GD32VW553/V1_MQTT_OK/GD32VW55X_Wifi_BLE_SDK/GD32VW55x_RELEASE_V1.0.2/MSDK/lwip/lwip-2.1.2/src/api\netbuf.c **** }
 361              		.loc 1 166 1
 362 005e 17030000 		tail	__riscv_restore_3
 362      67000300 
 363              		.cfi_remember_state
 364              		.cfi_restore 18
 365              		.cfi_restore 9
 366              		.cfi_restore 8
 367              		.cfi_restore 1
 368              		.cfi_def_cfa_offset 0
 369              	.L46:
 370              		.cfi_restore_state
 162:C:/Users/stapi/OneDrive/Desktop/GD32VW553/V1_MQTT_OK/GD32VW55X_Wifi_BLE_SDK/GD32VW55x_RELEASE_V1.0.2/MSDK/lwip/lwip-2.1.2/src/api\netbuf.c ****   buf->p->len = buf->p->tot_len = size;
 371              		.loc 1 162 3 is_stmt 1
 162:C:/Users/stapi/OneDrive/Desktop/GD32VW553/V1_MQTT_OK/GD32VW55X_Wifi_BLE_SDK/GD32VW55x_RELEASE_V1.0.2/MSDK/lwip/lwip-2.1.2/src/api\netbuf.c ****   buf->p->len = buf->p->tot_len = size;
 372              		.loc 1 162 40 is_stmt 0
 373 0066 23222501 		sw	s2,4(a0)
 163:C:/Users/stapi/OneDrive/Desktop/GD32VW553/V1_MQTT_OK/GD32VW55X_Wifi_BLE_SDK/GD32VW55x_RELEASE_V1.0.2/MSDK/lwip/lwip-2.1.2/src/api\netbuf.c ****   buf->ptr = buf->p;
 374              		.loc 1 163 3 is_stmt 1
 163:C:/Users/stapi/OneDrive/Desktop/GD32VW553/V1_MQTT_OK/GD32VW55X_Wifi_BLE_SDK/GD32VW55x_RELEASE_V1.0.2/MSDK/lwip/lwip-2.1.2/src/api\netbuf.c ****   buf->ptr = buf->p;
 375              		.loc 1 163 33 is_stmt 0
 376 006a 23149500 		sh	s1,8(a0)
 163:C:/Users/stapi/OneDrive/Desktop/GD32VW553/V1_MQTT_OK/GD32VW55X_Wifi_BLE_SDK/GD32VW55x_RELEASE_V1.0.2/MSDK/lwip/lwip-2.1.2/src/api\netbuf.c ****   buf->ptr = buf->p;
 377              		.loc 1 163 15
 378 006e 23159500 		sh	s1,10(a0)
 164:C:/Users/stapi/OneDrive/Desktop/GD32VW553/V1_MQTT_OK/GD32VW55X_Wifi_BLE_SDK/GD32VW55x_RELEASE_V1.0.2/MSDK/lwip/lwip-2.1.2/src/api\netbuf.c ****   return ERR_OK;
 379              		.loc 1 164 3 is_stmt 1
 164:C:/Users/stapi/OneDrive/Desktop/GD32VW553/V1_MQTT_OK/GD32VW55X_Wifi_BLE_SDK/GD32VW55x_RELEASE_V1.0.2/MSDK/lwip/lwip-2.1.2/src/api\netbuf.c ****   return ERR_OK;
 380              		.loc 1 164 12 is_stmt 0
 381 0072 48C0     		sw	a0,4(s0)
 165:C:/Users/stapi/OneDrive/Desktop/GD32VW553/V1_MQTT_OK/GD32VW55X_Wifi_BLE_SDK/GD32VW55x_RELEASE_V1.0.2/MSDK/lwip/lwip-2.1.2/src/api\netbuf.c **** }
 382              		.loc 1 165 3 is_stmt 1
 165:C:/Users/stapi/OneDrive/Desktop/GD32VW553/V1_MQTT_OK/GD32VW55X_Wifi_BLE_SDK/GD32VW55x_RELEASE_V1.0.2/MSDK/lwip/lwip-2.1.2/src/api\netbuf.c **** }
 383              		.loc 1 165 10 is_stmt 0
 384 0074 0145     		li	a0,0
 385 0076 E5B7     		j	.L47
 386              		.cfi_endproc
 387              	.LFE8:
 389              		.section	.rodata.netbuf_chain.str1.4,"aMS",@progbits,1
 390              		.align	2
 391              	.LC6:
 392 0000 6E657462 		.string	"netbuf_chain: invalid head"
 392      75665F63 
 392      6861696E 
 392      3A20696E 
 392      76616C69 
 393 001b 00       		.align	2
 394              	.LC7:
 395 001c 6E657462 		.string	"netbuf_chain: invalid tail"
 395      75665F63 
 395      6861696E 
 395      3A20696E 
 395      76616C69 
 396              		.section	.text.netbuf_chain,"ax",@progbits
 397              		.align	1
 398              		.globl	netbuf_chain
 400              	netbuf_chain:
 401              	.LFB9:
 167:C:/Users/stapi/OneDrive/Desktop/GD32VW553/V1_MQTT_OK/GD32VW55X_Wifi_BLE_SDK/GD32VW55x_RELEASE_V1.0.2/MSDK/lwip/lwip-2.1.2/src/api\netbuf.c **** 
 168:C:/Users/stapi/OneDrive/Desktop/GD32VW553/V1_MQTT_OK/GD32VW55X_Wifi_BLE_SDK/GD32VW55x_RELEASE_V1.0.2/MSDK/lwip/lwip-2.1.2/src/api\netbuf.c **** /**
 169:C:/Users/stapi/OneDrive/Desktop/GD32VW553/V1_MQTT_OK/GD32VW55X_Wifi_BLE_SDK/GD32VW55x_RELEASE_V1.0.2/MSDK/lwip/lwip-2.1.2/src/api\netbuf.c ****  * @ingroup netbuf
 170:C:/Users/stapi/OneDrive/Desktop/GD32VW553/V1_MQTT_OK/GD32VW55X_Wifi_BLE_SDK/GD32VW55x_RELEASE_V1.0.2/MSDK/lwip/lwip-2.1.2/src/api\netbuf.c ****  * Chain one netbuf to another (@see pbuf_chain)
 171:C:/Users/stapi/OneDrive/Desktop/GD32VW553/V1_MQTT_OK/GD32VW55X_Wifi_BLE_SDK/GD32VW55x_RELEASE_V1.0.2/MSDK/lwip/lwip-2.1.2/src/api\netbuf.c ****  *
 172:C:/Users/stapi/OneDrive/Desktop/GD32VW553/V1_MQTT_OK/GD32VW55X_Wifi_BLE_SDK/GD32VW55x_RELEASE_V1.0.2/MSDK/lwip/lwip-2.1.2/src/api\netbuf.c ****  * @param head the first netbuf
 173:C:/Users/stapi/OneDrive/Desktop/GD32VW553/V1_MQTT_OK/GD32VW55X_Wifi_BLE_SDK/GD32VW55x_RELEASE_V1.0.2/MSDK/lwip/lwip-2.1.2/src/api\netbuf.c ****  * @param tail netbuf to chain after head, freed by this function, may not be reference after retur
 174:C:/Users/stapi/OneDrive/Desktop/GD32VW553/V1_MQTT_OK/GD32VW55X_Wifi_BLE_SDK/GD32VW55x_RELEASE_V1.0.2/MSDK/lwip/lwip-2.1.2/src/api\netbuf.c ****  */
 175:C:/Users/stapi/OneDrive/Desktop/GD32VW553/V1_MQTT_OK/GD32VW55X_Wifi_BLE_SDK/GD32VW55x_RELEASE_V1.0.2/MSDK/lwip/lwip-2.1.2/src/api\netbuf.c **** void
 176:C:/Users/stapi/OneDrive/Desktop/GD32VW553/V1_MQTT_OK/GD32VW55X_Wifi_BLE_SDK/GD32VW55x_RELEASE_V1.0.2/MSDK/lwip/lwip-2.1.2/src/api\netbuf.c **** netbuf_chain(struct netbuf *head, struct netbuf *tail)
 177:C:/Users/stapi/OneDrive/Desktop/GD32VW553/V1_MQTT_OK/GD32VW55X_Wifi_BLE_SDK/GD32VW55x_RELEASE_V1.0.2/MSDK/lwip/lwip-2.1.2/src/api\netbuf.c **** {
 402              		.loc 1 177 1 is_stmt 1
 403              		.cfi_startproc
 404              	.LVL33:
 405 0000 17030000 		call	t0,__riscv_save_2
 405      E7020300 
 406              		.cfi_offset 9, -12
 407              		.cfi_offset 8, -8
 408              		.cfi_offset 1, -4
 409              		.cfi_def_cfa_offset 16
 178:C:/Users/stapi/OneDrive/Desktop/GD32VW553/V1_MQTT_OK/GD32VW55X_Wifi_BLE_SDK/GD32VW55x_RELEASE_V1.0.2/MSDK/lwip/lwip-2.1.2/src/api\netbuf.c ****   LWIP_ERROR("netbuf_chain: invalid head", (head != NULL), return;);
 410              		.loc 1 178 3
 411              		.loc 1 178 3
 412 0008 05E5     		bne	a0,zero,.L53
 413              		.loc 1 178 3 discriminator 1
 414              		.loc 1 178 3 discriminator 1
 415 000a B7060000 		lui	a3,%hi(.LC0)
 416 000e B7050000 		lui	a1,%hi(.LC6)
 417              	.LVL34:
 418 0012 37050000 		lui	a0,%hi(.LC2)
 419              	.LVL35:
 420 0016 93860600 		addi	a3,a3,%lo(.LC0)
 421 001a 1306200B 		li	a2,178
 422 001e 93850500 		addi	a1,a1,%lo(.LC6)
 423 0022 13050500 		addi	a0,a0,%lo(.LC2)
 424 0026 97000000 		call	printf
 424      E7800000 
 425              	.LVL36:
 426              	.L54:
 427              		.loc 1 178 3 discriminator 1
 428              		.loc 1 178 3 discriminator 1
 429              		.loc 1 178 3 discriminator 1
 430 002e 01A0     		j	.L54
 431              	.LVL37:
 432              	.L53:
 433 0030 AE84     		mv	s1,a1
 434              		.loc 1 178 3 discriminator 2
 435              		.loc 1 178 3 discriminator 2
 179:C:/Users/stapi/OneDrive/Desktop/GD32VW553/V1_MQTT_OK/GD32VW55X_Wifi_BLE_SDK/GD32VW55x_RELEASE_V1.0.2/MSDK/lwip/lwip-2.1.2/src/api\netbuf.c ****   LWIP_ERROR("netbuf_chain: invalid tail", (tail != NULL), return;);
 436              		.loc 1 179 3 discriminator 2
 437              		.loc 1 179 3 discriminator 2
 438 0032 85E5     		bne	a1,zero,.L55
 439              	.LVL38:
 440              		.loc 1 179 3 discriminator 1
 441              		.loc 1 179 3 discriminator 1
 442 0034 B7060000 		lui	a3,%hi(.LC0)
 443 0038 B7050000 		lui	a1,%hi(.LC7)
 444 003c 37050000 		lui	a0,%hi(.LC2)
 445              	.LVL39:
 446 0040 93860600 		addi	a3,a3,%lo(.LC0)
 447 0044 1306300B 		li	a2,179
 448 0048 93850500 		addi	a1,a1,%lo(.LC7)
 449 004c 13050500 		addi	a0,a0,%lo(.LC2)
 450 0050 97000000 		call	printf
 450      E7800000 
 451              	.LVL40:
 452              	.L56:
 453              		.loc 1 179 3 discriminator 2
 454              		.loc 1 179 3 discriminator 2
 455              		.loc 1 179 3 discriminator 2
 456 0058 01A0     		j	.L56
 457              	.LVL41:
 458              	.L55:
 459 005a 2A84     		mv	s0,a0
 460              		.loc 1 179 3 discriminator 2
 461              		.loc 1 179 3 discriminator 2
 180:C:/Users/stapi/OneDrive/Desktop/GD32VW553/V1_MQTT_OK/GD32VW55X_Wifi_BLE_SDK/GD32VW55x_RELEASE_V1.0.2/MSDK/lwip/lwip-2.1.2/src/api\netbuf.c ****   pbuf_cat(head->p, tail->p);
 462              		.loc 1 180 3 discriminator 2
 463 005c 8C41     		lw	a1,0(a1)
 464 005e 0841     		lw	a0,0(a0)
 465              	.LVL42:
 466 0060 97000000 		call	pbuf_cat
 466      E7800000 
 467              	.LVL43:
 181:C:/Users/stapi/OneDrive/Desktop/GD32VW553/V1_MQTT_OK/GD32VW55X_Wifi_BLE_SDK/GD32VW55x_RELEASE_V1.0.2/MSDK/lwip/lwip-2.1.2/src/api\netbuf.c ****   head->ptr = head->p;
 468              		.loc 1 181 3 discriminator 2
 469              		.loc 1 181 13 is_stmt 0 discriminator 2
 470 0068 1C40     		lw	a5,0(s0)
 182:C:/Users/stapi/OneDrive/Desktop/GD32VW553/V1_MQTT_OK/GD32VW55X_Wifi_BLE_SDK/GD32VW55x_RELEASE_V1.0.2/MSDK/lwip/lwip-2.1.2/src/api\netbuf.c ****   memp_free(MEMP_NETBUF, tail);
 471              		.loc 1 182 3 discriminator 2
 472 006a A685     		mv	a1,s1
 473 006c 2145     		li	a0,8
 181:C:/Users/stapi/OneDrive/Desktop/GD32VW553/V1_MQTT_OK/GD32VW55X_Wifi_BLE_SDK/GD32VW55x_RELEASE_V1.0.2/MSDK/lwip/lwip-2.1.2/src/api\netbuf.c ****   head->ptr = head->p;
 474              		.loc 1 181 13 discriminator 2
 475 006e 5CC0     		sw	a5,4(s0)
 476              		.loc 1 182 3 is_stmt 1 discriminator 2
 477 0070 97000000 		call	memp_free
 477      E7800000 
 478              	.LVL44:
 183:C:/Users/stapi/OneDrive/Desktop/GD32VW553/V1_MQTT_OK/GD32VW55X_Wifi_BLE_SDK/GD32VW55x_RELEASE_V1.0.2/MSDK/lwip/lwip-2.1.2/src/api\netbuf.c **** }
 479              		.loc 1 183 1 is_stmt 0 discriminator 2
 480 0078 17030000 		tail	__riscv_restore_2
 480      67000300 
 481              		.cfi_restore 9
 482              		.cfi_restore 8
 483              		.cfi_restore 1
 484              		.cfi_def_cfa_offset 0
 485              		.cfi_endproc
 486              	.LFE9:
 488              		.section	.rodata.netbuf_data.str1.4,"aMS",@progbits,1
 489              		.align	2
 490              	.LC8:
 491 0000 6E657462 		.string	"netbuf_data: invalid buf"
 491      75665F64 
 491      6174613A 
 491      20696E76 
 491      616C6964 
 492 0019 000000   		.align	2
 493              	.LC9:
 494 001c 6E657462 		.string	"netbuf_data: invalid dataptr"
 494      75665F64 
 494      6174613A 
 494      20696E76 
 494      616C6964 
 495 0039 000000   		.align	2
 496              	.LC10:
 497 003c 6E657462 		.string	"netbuf_data: invalid len"
 497      75665F64 
 497      6174613A 
 497      20696E76 
 497      616C6964 
 498              		.section	.text.netbuf_data,"ax",@progbits
 499              		.align	1
 500              		.globl	netbuf_data
 502              	netbuf_data:
 503              	.LFB10:
 184:C:/Users/stapi/OneDrive/Desktop/GD32VW553/V1_MQTT_OK/GD32VW55X_Wifi_BLE_SDK/GD32VW55x_RELEASE_V1.0.2/MSDK/lwip/lwip-2.1.2/src/api\netbuf.c **** 
 185:C:/Users/stapi/OneDrive/Desktop/GD32VW553/V1_MQTT_OK/GD32VW55X_Wifi_BLE_SDK/GD32VW55x_RELEASE_V1.0.2/MSDK/lwip/lwip-2.1.2/src/api\netbuf.c **** /**
 186:C:/Users/stapi/OneDrive/Desktop/GD32VW553/V1_MQTT_OK/GD32VW55X_Wifi_BLE_SDK/GD32VW55x_RELEASE_V1.0.2/MSDK/lwip/lwip-2.1.2/src/api\netbuf.c ****  * @ingroup netbuf
 187:C:/Users/stapi/OneDrive/Desktop/GD32VW553/V1_MQTT_OK/GD32VW55X_Wifi_BLE_SDK/GD32VW55x_RELEASE_V1.0.2/MSDK/lwip/lwip-2.1.2/src/api\netbuf.c ****  * Get the data pointer and length of the data inside a netbuf.
 188:C:/Users/stapi/OneDrive/Desktop/GD32VW553/V1_MQTT_OK/GD32VW55X_Wifi_BLE_SDK/GD32VW55x_RELEASE_V1.0.2/MSDK/lwip/lwip-2.1.2/src/api\netbuf.c ****  *
 189:C:/Users/stapi/OneDrive/Desktop/GD32VW553/V1_MQTT_OK/GD32VW55X_Wifi_BLE_SDK/GD32VW55x_RELEASE_V1.0.2/MSDK/lwip/lwip-2.1.2/src/api\netbuf.c ****  * @param buf netbuf to get the data from
 190:C:/Users/stapi/OneDrive/Desktop/GD32VW553/V1_MQTT_OK/GD32VW55X_Wifi_BLE_SDK/GD32VW55x_RELEASE_V1.0.2/MSDK/lwip/lwip-2.1.2/src/api\netbuf.c ****  * @param dataptr pointer to a void pointer where to store the data pointer
 191:C:/Users/stapi/OneDrive/Desktop/GD32VW553/V1_MQTT_OK/GD32VW55X_Wifi_BLE_SDK/GD32VW55x_RELEASE_V1.0.2/MSDK/lwip/lwip-2.1.2/src/api\netbuf.c ****  * @param len pointer to an u16_t where the length of the data is stored
 192:C:/Users/stapi/OneDrive/Desktop/GD32VW553/V1_MQTT_OK/GD32VW55X_Wifi_BLE_SDK/GD32VW55x_RELEASE_V1.0.2/MSDK/lwip/lwip-2.1.2/src/api\netbuf.c ****  * @return ERR_OK if the information was retrieved,
 193:C:/Users/stapi/OneDrive/Desktop/GD32VW553/V1_MQTT_OK/GD32VW55X_Wifi_BLE_SDK/GD32VW55x_RELEASE_V1.0.2/MSDK/lwip/lwip-2.1.2/src/api\netbuf.c ****  *         ERR_BUF on error.
 194:C:/Users/stapi/OneDrive/Desktop/GD32VW553/V1_MQTT_OK/GD32VW55X_Wifi_BLE_SDK/GD32VW55x_RELEASE_V1.0.2/MSDK/lwip/lwip-2.1.2/src/api\netbuf.c ****  */
 195:C:/Users/stapi/OneDrive/Desktop/GD32VW553/V1_MQTT_OK/GD32VW55X_Wifi_BLE_SDK/GD32VW55x_RELEASE_V1.0.2/MSDK/lwip/lwip-2.1.2/src/api\netbuf.c **** err_t
 196:C:/Users/stapi/OneDrive/Desktop/GD32VW553/V1_MQTT_OK/GD32VW55X_Wifi_BLE_SDK/GD32VW55x_RELEASE_V1.0.2/MSDK/lwip/lwip-2.1.2/src/api\netbuf.c **** netbuf_data(struct netbuf *buf, void **dataptr, u16_t *len)
 197:C:/Users/stapi/OneDrive/Desktop/GD32VW553/V1_MQTT_OK/GD32VW55X_Wifi_BLE_SDK/GD32VW55x_RELEASE_V1.0.2/MSDK/lwip/lwip-2.1.2/src/api\netbuf.c **** {
 504              		.loc 1 197 1 is_stmt 1
 505              		.cfi_startproc
 506              	.LVL45:
 507 0000 17030000 		call	t0,__riscv_save_0
 507      E7020300 
 508              		.cfi_offset 1, -4
 509              		.cfi_def_cfa_offset 16
 198:C:/Users/stapi/OneDrive/Desktop/GD32VW553/V1_MQTT_OK/GD32VW55X_Wifi_BLE_SDK/GD32VW55x_RELEASE_V1.0.2/MSDK/lwip/lwip-2.1.2/src/api\netbuf.c ****   LWIP_ERROR("netbuf_data: invalid buf", (buf != NULL), return ERR_ARG;);
 510              		.loc 1 198 3
 511              		.loc 1 198 3
 512 0008 05E5     		bne	a0,zero,.L59
 513              		.loc 1 198 3 discriminator 1
 514              		.loc 1 198 3 discriminator 1
 515 000a B7060000 		lui	a3,%hi(.LC0)
 516 000e B7050000 		lui	a1,%hi(.LC8)
 517              	.LVL46:
 518 0012 37050000 		lui	a0,%hi(.LC2)
 519              	.LVL47:
 520 0016 93860600 		addi	a3,a3,%lo(.LC0)
 521 001a 1306600C 		li	a2,198
 522              	.LVL48:
 523 001e 93850500 		addi	a1,a1,%lo(.LC8)
 524 0022 13050500 		addi	a0,a0,%lo(.LC2)
 525 0026 97000000 		call	printf
 525      E7800000 
 526              	.LVL49:
 527              	.L60:
 528              		.loc 1 198 3 discriminator 1
 529              		.loc 1 198 3 discriminator 1
 530              		.loc 1 198 3 discriminator 1
 531 002e 01A0     		j	.L60
 532              	.LVL50:
 533              	.L59:
 534              		.loc 1 198 3 discriminator 2
 535              		.loc 1 198 3 discriminator 2
 199:C:/Users/stapi/OneDrive/Desktop/GD32VW553/V1_MQTT_OK/GD32VW55X_Wifi_BLE_SDK/GD32VW55x_RELEASE_V1.0.2/MSDK/lwip/lwip-2.1.2/src/api\netbuf.c ****   LWIP_ERROR("netbuf_data: invalid dataptr", (dataptr != NULL), return ERR_ARG;);
 536              		.loc 1 199 3 discriminator 2
 537              		.loc 1 199 3 discriminator 2
 538 0030 85E5     		bne	a1,zero,.L61
 539              		.loc 1 199 3 discriminator 1
 540              		.loc 1 199 3 discriminator 1
 541 0032 B7060000 		lui	a3,%hi(.LC0)
 542 0036 B7050000 		lui	a1,%hi(.LC9)
 543              	.LVL51:
 544 003a 37050000 		lui	a0,%hi(.LC2)
 545              	.LVL52:
 546 003e 93860600 		addi	a3,a3,%lo(.LC0)
 547 0042 1306700C 		li	a2,199
 548              	.LVL53:
 549 0046 93850500 		addi	a1,a1,%lo(.LC9)
 550 004a 13050500 		addi	a0,a0,%lo(.LC2)
 551 004e 97000000 		call	printf
 551      E7800000 
 552              	.LVL54:
 553              	.L62:
 554              		.loc 1 199 3 discriminator 2
 555              		.loc 1 199 3 discriminator 2
 556              		.loc 1 199 3 discriminator 2
 557 0056 01A0     		j	.L62
 558              	.LVL55:
 559              	.L61:
 560              		.loc 1 199 3 discriminator 2
 561              		.loc 1 199 3 discriminator 2
 200:C:/Users/stapi/OneDrive/Desktop/GD32VW553/V1_MQTT_OK/GD32VW55X_Wifi_BLE_SDK/GD32VW55x_RELEASE_V1.0.2/MSDK/lwip/lwip-2.1.2/src/api\netbuf.c ****   LWIP_ERROR("netbuf_data: invalid len", (len != NULL), return ERR_ARG;);
 562              		.loc 1 200 3 discriminator 2
 563              		.loc 1 200 3 discriminator 2
 564 0058 05E6     		bne	a2,zero,.L63
 565              		.loc 1 200 3 discriminator 1
 566              		.loc 1 200 3 discriminator 1
 567 005a B7060000 		lui	a3,%hi(.LC0)
 568 005e B7050000 		lui	a1,%hi(.LC10)
 569              	.LVL56:
 570 0062 37050000 		lui	a0,%hi(.LC2)
 571              	.LVL57:
 572 0066 93860600 		addi	a3,a3,%lo(.LC0)
 573 006a 1306800C 		li	a2,200
 574              	.LVL58:
 575 006e 93850500 		addi	a1,a1,%lo(.LC10)
 576 0072 13050500 		addi	a0,a0,%lo(.LC2)
 577 0076 97000000 		call	printf
 577      E7800000 
 578              	.LVL59:
 579              	.L64:
 580              		.loc 1 200 3 discriminator 3
 581              		.loc 1 200 3 discriminator 3
 582              		.loc 1 200 3 discriminator 3
 583 007e 01A0     		j	.L64
 584              	.LVL60:
 585              	.L63:
 201:C:/Users/stapi/OneDrive/Desktop/GD32VW553/V1_MQTT_OK/GD32VW55X_Wifi_BLE_SDK/GD32VW55x_RELEASE_V1.0.2/MSDK/lwip/lwip-2.1.2/src/api\netbuf.c **** 
 202:C:/Users/stapi/OneDrive/Desktop/GD32VW553/V1_MQTT_OK/GD32VW55X_Wifi_BLE_SDK/GD32VW55x_RELEASE_V1.0.2/MSDK/lwip/lwip-2.1.2/src/api\netbuf.c ****   if (buf->ptr == NULL) {
 586              		.loc 1 202 10 is_stmt 0 discriminator 2
 587 0080 5841     		lw	a4,4(a0)
 588 0082 AA87     		mv	a5,a0
 200:C:/Users/stapi/OneDrive/Desktop/GD32VW553/V1_MQTT_OK/GD32VW55X_Wifi_BLE_SDK/GD32VW55x_RELEASE_V1.0.2/MSDK/lwip/lwip-2.1.2/src/api\netbuf.c ****   LWIP_ERROR("netbuf_data: invalid len", (len != NULL), return ERR_ARG;);
 589              		.loc 1 200 3 is_stmt 1 discriminator 2
 200:C:/Users/stapi/OneDrive/Desktop/GD32VW553/V1_MQTT_OK/GD32VW55X_Wifi_BLE_SDK/GD32VW55x_RELEASE_V1.0.2/MSDK/lwip/lwip-2.1.2/src/api\netbuf.c ****   LWIP_ERROR("netbuf_data: invalid len", (len != NULL), return ERR_ARG;);
 590              		.loc 1 200 3 discriminator 2
 591              		.loc 1 202 3 discriminator 2
 203:C:/Users/stapi/OneDrive/Desktop/GD32VW553/V1_MQTT_OK/GD32VW55X_Wifi_BLE_SDK/GD32VW55x_RELEASE_V1.0.2/MSDK/lwip/lwip-2.1.2/src/api\netbuf.c ****     return ERR_BUF;
 592              		.loc 1 203 12 is_stmt 0 discriminator 2
 593 0084 7955     		li	a0,-2
 594              	.LVL61:
 202:C:/Users/stapi/OneDrive/Desktop/GD32VW553/V1_MQTT_OK/GD32VW55X_Wifi_BLE_SDK/GD32VW55x_RELEASE_V1.0.2/MSDK/lwip/lwip-2.1.2/src/api\netbuf.c ****     return ERR_BUF;
 595              		.loc 1 202 6 discriminator 2
 596 0086 09CB     		beq	a4,zero,.L65
 204:C:/Users/stapi/OneDrive/Desktop/GD32VW553/V1_MQTT_OK/GD32VW55X_Wifi_BLE_SDK/GD32VW55x_RELEASE_V1.0.2/MSDK/lwip/lwip-2.1.2/src/api\netbuf.c ****   }
 205:C:/Users/stapi/OneDrive/Desktop/GD32VW553/V1_MQTT_OK/GD32VW55X_Wifi_BLE_SDK/GD32VW55x_RELEASE_V1.0.2/MSDK/lwip/lwip-2.1.2/src/api\netbuf.c ****   *dataptr = buf->ptr->payload;
 597              		.loc 1 205 3 is_stmt 1
 598              		.loc 1 205 22 is_stmt 0
 599 0088 5843     		lw	a4,4(a4)
 206:C:/Users/stapi/OneDrive/Desktop/GD32VW553/V1_MQTT_OK/GD32VW55X_Wifi_BLE_SDK/GD32VW55x_RELEASE_V1.0.2/MSDK/lwip/lwip-2.1.2/src/api\netbuf.c ****   *len = buf->ptr->len;
 207:C:/Users/stapi/OneDrive/Desktop/GD32VW553/V1_MQTT_OK/GD32VW55X_Wifi_BLE_SDK/GD32VW55x_RELEASE_V1.0.2/MSDK/lwip/lwip-2.1.2/src/api\netbuf.c ****   return ERR_OK;
 600              		.loc 1 207 10
 601 008a 0145     		li	a0,0
 205:C:/Users/stapi/OneDrive/Desktop/GD32VW553/V1_MQTT_OK/GD32VW55X_Wifi_BLE_SDK/GD32VW55x_RELEASE_V1.0.2/MSDK/lwip/lwip-2.1.2/src/api\netbuf.c ****   *len = buf->ptr->len;
 602              		.loc 1 205 12
 603 008c 98C1     		sw	a4,0(a1)
 206:C:/Users/stapi/OneDrive/Desktop/GD32VW553/V1_MQTT_OK/GD32VW55X_Wifi_BLE_SDK/GD32VW55x_RELEASE_V1.0.2/MSDK/lwip/lwip-2.1.2/src/api\netbuf.c ****   *len = buf->ptr->len;
 604              		.loc 1 206 3 is_stmt 1
 206:C:/Users/stapi/OneDrive/Desktop/GD32VW553/V1_MQTT_OK/GD32VW55X_Wifi_BLE_SDK/GD32VW55x_RELEASE_V1.0.2/MSDK/lwip/lwip-2.1.2/src/api\netbuf.c ****   *len = buf->ptr->len;
 605              		.loc 1 206 18 is_stmt 0
 606 008e DC43     		lw	a5,4(a5)
 607              	.LVL62:
 608 0090 83D7A700 		lhu	a5,10(a5)
 206:C:/Users/stapi/OneDrive/Desktop/GD32VW553/V1_MQTT_OK/GD32VW55X_Wifi_BLE_SDK/GD32VW55x_RELEASE_V1.0.2/MSDK/lwip/lwip-2.1.2/src/api\netbuf.c ****   *len = buf->ptr->len;
 609              		.loc 1 206 8
 610 0094 2310F600 		sh	a5,0(a2)
 611              		.loc 1 207 3 is_stmt 1
 612              	.L65:
 208:C:/Users/stapi/OneDrive/Desktop/GD32VW553/V1_MQTT_OK/GD32VW55X_Wifi_BLE_SDK/GD32VW55x_RELEASE_V1.0.2/MSDK/lwip/lwip-2.1.2/src/api\netbuf.c **** }
 613              		.loc 1 208 1 is_stmt 0
 614 0098 17030000 		tail	__riscv_restore_0
 614      67000300 
 615              		.cfi_restore 1
 616              		.cfi_def_cfa_offset 0
 617              		.cfi_endproc
 618              	.LFE10:
 620              		.section	.rodata.netbuf_next.str1.4,"aMS",@progbits,1
 621              		.align	2
 622              	.LC11:
 623 0000 6E657462 		.string	"netbuf_next: invalid buf"
 623      75665F6E 
 623      6578743A 
 623      20696E76 
 623      616C6964 
 624              		.section	.text.netbuf_next,"ax",@progbits
 625              		.align	1
 626              		.globl	netbuf_next
 628              	netbuf_next:
 629              	.LFB11:
 209:C:/Users/stapi/OneDrive/Desktop/GD32VW553/V1_MQTT_OK/GD32VW55X_Wifi_BLE_SDK/GD32VW55x_RELEASE_V1.0.2/MSDK/lwip/lwip-2.1.2/src/api\netbuf.c **** 
 210:C:/Users/stapi/OneDrive/Desktop/GD32VW553/V1_MQTT_OK/GD32VW55X_Wifi_BLE_SDK/GD32VW55x_RELEASE_V1.0.2/MSDK/lwip/lwip-2.1.2/src/api\netbuf.c **** /**
 211:C:/Users/stapi/OneDrive/Desktop/GD32VW553/V1_MQTT_OK/GD32VW55X_Wifi_BLE_SDK/GD32VW55x_RELEASE_V1.0.2/MSDK/lwip/lwip-2.1.2/src/api\netbuf.c ****  * @ingroup netbuf
 212:C:/Users/stapi/OneDrive/Desktop/GD32VW553/V1_MQTT_OK/GD32VW55X_Wifi_BLE_SDK/GD32VW55x_RELEASE_V1.0.2/MSDK/lwip/lwip-2.1.2/src/api\netbuf.c ****  * Move the current data pointer of a packet buffer contained in a netbuf
 213:C:/Users/stapi/OneDrive/Desktop/GD32VW553/V1_MQTT_OK/GD32VW55X_Wifi_BLE_SDK/GD32VW55x_RELEASE_V1.0.2/MSDK/lwip/lwip-2.1.2/src/api\netbuf.c ****  * to the next part.
 214:C:/Users/stapi/OneDrive/Desktop/GD32VW553/V1_MQTT_OK/GD32VW55X_Wifi_BLE_SDK/GD32VW55x_RELEASE_V1.0.2/MSDK/lwip/lwip-2.1.2/src/api\netbuf.c ****  * The packet buffer itself is not modified.
 215:C:/Users/stapi/OneDrive/Desktop/GD32VW553/V1_MQTT_OK/GD32VW55X_Wifi_BLE_SDK/GD32VW55x_RELEASE_V1.0.2/MSDK/lwip/lwip-2.1.2/src/api\netbuf.c ****  *
 216:C:/Users/stapi/OneDrive/Desktop/GD32VW553/V1_MQTT_OK/GD32VW55X_Wifi_BLE_SDK/GD32VW55x_RELEASE_V1.0.2/MSDK/lwip/lwip-2.1.2/src/api\netbuf.c ****  * @param buf the netbuf to modify
 217:C:/Users/stapi/OneDrive/Desktop/GD32VW553/V1_MQTT_OK/GD32VW55X_Wifi_BLE_SDK/GD32VW55x_RELEASE_V1.0.2/MSDK/lwip/lwip-2.1.2/src/api\netbuf.c ****  * @return -1 if there is no next part
 218:C:/Users/stapi/OneDrive/Desktop/GD32VW553/V1_MQTT_OK/GD32VW55X_Wifi_BLE_SDK/GD32VW55x_RELEASE_V1.0.2/MSDK/lwip/lwip-2.1.2/src/api\netbuf.c ****  *         1  if moved to the next part but now there is no next part
 219:C:/Users/stapi/OneDrive/Desktop/GD32VW553/V1_MQTT_OK/GD32VW55X_Wifi_BLE_SDK/GD32VW55x_RELEASE_V1.0.2/MSDK/lwip/lwip-2.1.2/src/api\netbuf.c ****  *         0  if moved to the next part and there are still more parts
 220:C:/Users/stapi/OneDrive/Desktop/GD32VW553/V1_MQTT_OK/GD32VW55X_Wifi_BLE_SDK/GD32VW55x_RELEASE_V1.0.2/MSDK/lwip/lwip-2.1.2/src/api\netbuf.c ****  */
 221:C:/Users/stapi/OneDrive/Desktop/GD32VW553/V1_MQTT_OK/GD32VW55X_Wifi_BLE_SDK/GD32VW55x_RELEASE_V1.0.2/MSDK/lwip/lwip-2.1.2/src/api\netbuf.c **** s8_t
 222:C:/Users/stapi/OneDrive/Desktop/GD32VW553/V1_MQTT_OK/GD32VW55X_Wifi_BLE_SDK/GD32VW55x_RELEASE_V1.0.2/MSDK/lwip/lwip-2.1.2/src/api\netbuf.c **** netbuf_next(struct netbuf *buf)
 223:C:/Users/stapi/OneDrive/Desktop/GD32VW553/V1_MQTT_OK/GD32VW55X_Wifi_BLE_SDK/GD32VW55x_RELEASE_V1.0.2/MSDK/lwip/lwip-2.1.2/src/api\netbuf.c **** {
 630              		.loc 1 223 1 is_stmt 1
 631              		.cfi_startproc
 632              	.LVL63:
 224:C:/Users/stapi/OneDrive/Desktop/GD32VW553/V1_MQTT_OK/GD32VW55X_Wifi_BLE_SDK/GD32VW55x_RELEASE_V1.0.2/MSDK/lwip/lwip-2.1.2/src/api\netbuf.c ****   LWIP_ERROR("netbuf_next: invalid buf", (buf != NULL), return -1;);
 633              		.loc 1 224 3
 634              		.loc 1 224 3
 635 0000 05E9     		bne	a0,zero,.L69
 223:C:/Users/stapi/OneDrive/Desktop/GD32VW553/V1_MQTT_OK/GD32VW55X_Wifi_BLE_SDK/GD32VW55x_RELEASE_V1.0.2/MSDK/lwip/lwip-2.1.2/src/api\netbuf.c ****   LWIP_ERROR("netbuf_next: invalid buf", (buf != NULL), return -1;);
 636              		.loc 1 223 1 is_stmt 0 discriminator 1
 637 0002 17030000 		call	t0,__riscv_save_0
 637      E7020300 
 638              		.cfi_offset 1, -4
 639              		.cfi_def_cfa_offset 16
 640              		.loc 1 224 3 is_stmt 1 discriminator 1
 641              		.loc 1 224 3 discriminator 1
 642 000a B7060000 		lui	a3,%hi(.LC0)
 643 000e B7050000 		lui	a1,%hi(.LC11)
 644 0012 37050000 		lui	a0,%hi(.LC2)
 645              	.LVL64:
 646 0016 93860600 		addi	a3,a3,%lo(.LC0)
 647 001a 1306000E 		li	a2,224
 648 001e 93850500 		addi	a1,a1,%lo(.LC11)
 649 0022 13050500 		addi	a0,a0,%lo(.LC2)
 650 0026 97000000 		call	printf
 650      E7800000 
 651              	.LVL65:
 652              	.L70:
 653              		.loc 1 224 3 discriminator 1
 654              		.loc 1 224 3 discriminator 1
 655              		.loc 1 224 3 discriminator 1
 656 002e 01A0     		j	.L70
 657              	.LVL66:
 658              	.L69:
 659              		.cfi_def_cfa_offset 0
 660              		.cfi_restore 1
 225:C:/Users/stapi/OneDrive/Desktop/GD32VW553/V1_MQTT_OK/GD32VW55X_Wifi_BLE_SDK/GD32VW55x_RELEASE_V1.0.2/MSDK/lwip/lwip-2.1.2/src/api\netbuf.c ****   if (buf->ptr->next == NULL) {
 661              		.loc 1 225 15 is_stmt 0 discriminator 2
 662 0030 5841     		lw	a4,4(a0)
 663 0032 AA87     		mv	a5,a0
 224:C:/Users/stapi/OneDrive/Desktop/GD32VW553/V1_MQTT_OK/GD32VW55X_Wifi_BLE_SDK/GD32VW55x_RELEASE_V1.0.2/MSDK/lwip/lwip-2.1.2/src/api\netbuf.c ****   LWIP_ERROR("netbuf_next: invalid buf", (buf != NULL), return -1;);
 664              		.loc 1 224 3 is_stmt 1 discriminator 2
 224:C:/Users/stapi/OneDrive/Desktop/GD32VW553/V1_MQTT_OK/GD32VW55X_Wifi_BLE_SDK/GD32VW55x_RELEASE_V1.0.2/MSDK/lwip/lwip-2.1.2/src/api\netbuf.c ****   LWIP_ERROR("netbuf_next: invalid buf", (buf != NULL), return -1;);
 665              		.loc 1 224 3 discriminator 2
 666              		.loc 1 225 3 discriminator 2
 226:C:/Users/stapi/OneDrive/Desktop/GD32VW553/V1_MQTT_OK/GD32VW55X_Wifi_BLE_SDK/GD32VW55x_RELEASE_V1.0.2/MSDK/lwip/lwip-2.1.2/src/api\netbuf.c ****     return -1;
 667              		.loc 1 226 12 is_stmt 0 discriminator 2
 668 0034 7D55     		li	a0,-1
 669              	.LVL67:
 225:C:/Users/stapi/OneDrive/Desktop/GD32VW553/V1_MQTT_OK/GD32VW55X_Wifi_BLE_SDK/GD32VW55x_RELEASE_V1.0.2/MSDK/lwip/lwip-2.1.2/src/api\netbuf.c ****   if (buf->ptr->next == NULL) {
 670              		.loc 1 225 15 discriminator 2
 671 0036 1843     		lw	a4,0(a4)
 225:C:/Users/stapi/OneDrive/Desktop/GD32VW553/V1_MQTT_OK/GD32VW55X_Wifi_BLE_SDK/GD32VW55x_RELEASE_V1.0.2/MSDK/lwip/lwip-2.1.2/src/api\netbuf.c ****   if (buf->ptr->next == NULL) {
 672              		.loc 1 225 6 discriminator 2
 673 0038 09C7     		beq	a4,zero,.L71
 227:C:/Users/stapi/OneDrive/Desktop/GD32VW553/V1_MQTT_OK/GD32VW55X_Wifi_BLE_SDK/GD32VW55x_RELEASE_V1.0.2/MSDK/lwip/lwip-2.1.2/src/api\netbuf.c ****   }
 228:C:/Users/stapi/OneDrive/Desktop/GD32VW553/V1_MQTT_OK/GD32VW55X_Wifi_BLE_SDK/GD32VW55x_RELEASE_V1.0.2/MSDK/lwip/lwip-2.1.2/src/api\netbuf.c ****   buf->ptr = buf->ptr->next;
 674              		.loc 1 228 3 is_stmt 1
 229:C:/Users/stapi/OneDrive/Desktop/GD32VW553/V1_MQTT_OK/GD32VW55X_Wifi_BLE_SDK/GD32VW55x_RELEASE_V1.0.2/MSDK/lwip/lwip-2.1.2/src/api\netbuf.c ****   if (buf->ptr->next == NULL) {
 675              		.loc 1 229 6 is_stmt 0
 676 003a 0843     		lw	a0,0(a4)
 228:C:/Users/stapi/OneDrive/Desktop/GD32VW553/V1_MQTT_OK/GD32VW55X_Wifi_BLE_SDK/GD32VW55x_RELEASE_V1.0.2/MSDK/lwip/lwip-2.1.2/src/api\netbuf.c ****   if (buf->ptr->next == NULL) {
 677              		.loc 1 228 12
 678 003c D8C3     		sw	a4,4(a5)
 679              		.loc 1 229 3 is_stmt 1
 230:C:/Users/stapi/OneDrive/Desktop/GD32VW553/V1_MQTT_OK/GD32VW55X_Wifi_BLE_SDK/GD32VW55x_RELEASE_V1.0.2/MSDK/lwip/lwip-2.1.2/src/api\netbuf.c ****     return 1;
 231:C:/Users/stapi/OneDrive/Desktop/GD32VW553/V1_MQTT_OK/GD32VW55X_Wifi_BLE_SDK/GD32VW55x_RELEASE_V1.0.2/MSDK/lwip/lwip-2.1.2/src/api\netbuf.c ****   }
 232:C:/Users/stapi/OneDrive/Desktop/GD32VW553/V1_MQTT_OK/GD32VW55X_Wifi_BLE_SDK/GD32VW55x_RELEASE_V1.0.2/MSDK/lwip/lwip-2.1.2/src/api\netbuf.c ****   return 0;
 680              		.loc 1 232 10 is_stmt 0
 681 003e 13351500 		seqz	a0,a0
 682              	.L71:
 233:C:/Users/stapi/OneDrive/Desktop/GD32VW553/V1_MQTT_OK/GD32VW55X_Wifi_BLE_SDK/GD32VW55x_RELEASE_V1.0.2/MSDK/lwip/lwip-2.1.2/src/api\netbuf.c **** }
 683              		.loc 1 233 1
 684 0042 8280     		ret
 685              		.cfi_endproc
 686              	.LFE11:
 688              		.section	.rodata.netbuf_first.str1.4,"aMS",@progbits,1
 689              		.align	2
 690              	.LC12:
 691 0000 6E657462 		.string	"netbuf_first: invalid buf"
 691      75665F66 
 691      69727374 
 691      3A20696E 
 691      76616C69 
 692              		.section	.text.netbuf_first,"ax",@progbits
 693              		.align	1
 694              		.globl	netbuf_first
 696              	netbuf_first:
 697              	.LFB12:
 234:C:/Users/stapi/OneDrive/Desktop/GD32VW553/V1_MQTT_OK/GD32VW55X_Wifi_BLE_SDK/GD32VW55x_RELEASE_V1.0.2/MSDK/lwip/lwip-2.1.2/src/api\netbuf.c **** 
 235:C:/Users/stapi/OneDrive/Desktop/GD32VW553/V1_MQTT_OK/GD32VW55X_Wifi_BLE_SDK/GD32VW55x_RELEASE_V1.0.2/MSDK/lwip/lwip-2.1.2/src/api\netbuf.c **** /**
 236:C:/Users/stapi/OneDrive/Desktop/GD32VW553/V1_MQTT_OK/GD32VW55X_Wifi_BLE_SDK/GD32VW55x_RELEASE_V1.0.2/MSDK/lwip/lwip-2.1.2/src/api\netbuf.c ****  * @ingroup netbuf
 237:C:/Users/stapi/OneDrive/Desktop/GD32VW553/V1_MQTT_OK/GD32VW55X_Wifi_BLE_SDK/GD32VW55x_RELEASE_V1.0.2/MSDK/lwip/lwip-2.1.2/src/api\netbuf.c ****  * Move the current data pointer of a packet buffer contained in a netbuf
 238:C:/Users/stapi/OneDrive/Desktop/GD32VW553/V1_MQTT_OK/GD32VW55X_Wifi_BLE_SDK/GD32VW55x_RELEASE_V1.0.2/MSDK/lwip/lwip-2.1.2/src/api\netbuf.c ****  * to the beginning of the packet.
 239:C:/Users/stapi/OneDrive/Desktop/GD32VW553/V1_MQTT_OK/GD32VW55X_Wifi_BLE_SDK/GD32VW55x_RELEASE_V1.0.2/MSDK/lwip/lwip-2.1.2/src/api\netbuf.c ****  * The packet buffer itself is not modified.
 240:C:/Users/stapi/OneDrive/Desktop/GD32VW553/V1_MQTT_OK/GD32VW55X_Wifi_BLE_SDK/GD32VW55x_RELEASE_V1.0.2/MSDK/lwip/lwip-2.1.2/src/api\netbuf.c ****  *
 241:C:/Users/stapi/OneDrive/Desktop/GD32VW553/V1_MQTT_OK/GD32VW55X_Wifi_BLE_SDK/GD32VW55x_RELEASE_V1.0.2/MSDK/lwip/lwip-2.1.2/src/api\netbuf.c ****  * @param buf the netbuf to modify
 242:C:/Users/stapi/OneDrive/Desktop/GD32VW553/V1_MQTT_OK/GD32VW55X_Wifi_BLE_SDK/GD32VW55x_RELEASE_V1.0.2/MSDK/lwip/lwip-2.1.2/src/api\netbuf.c ****  */
 243:C:/Users/stapi/OneDrive/Desktop/GD32VW553/V1_MQTT_OK/GD32VW55X_Wifi_BLE_SDK/GD32VW55x_RELEASE_V1.0.2/MSDK/lwip/lwip-2.1.2/src/api\netbuf.c **** void
 244:C:/Users/stapi/OneDrive/Desktop/GD32VW553/V1_MQTT_OK/GD32VW55X_Wifi_BLE_SDK/GD32VW55x_RELEASE_V1.0.2/MSDK/lwip/lwip-2.1.2/src/api\netbuf.c **** netbuf_first(struct netbuf *buf)
 245:C:/Users/stapi/OneDrive/Desktop/GD32VW553/V1_MQTT_OK/GD32VW55X_Wifi_BLE_SDK/GD32VW55x_RELEASE_V1.0.2/MSDK/lwip/lwip-2.1.2/src/api\netbuf.c **** {
 698              		.loc 1 245 1 is_stmt 1
 699              		.cfi_startproc
 700              	.LVL68:
 246:C:/Users/stapi/OneDrive/Desktop/GD32VW553/V1_MQTT_OK/GD32VW55X_Wifi_BLE_SDK/GD32VW55x_RELEASE_V1.0.2/MSDK/lwip/lwip-2.1.2/src/api\netbuf.c ****   LWIP_ERROR("netbuf_first: invalid buf", (buf != NULL), return;);
 701              		.loc 1 246 3
 702              		.loc 1 246 3
 703 0000 05E9     		bne	a0,zero,.L77
 245:C:/Users/stapi/OneDrive/Desktop/GD32VW553/V1_MQTT_OK/GD32VW55X_Wifi_BLE_SDK/GD32VW55x_RELEASE_V1.0.2/MSDK/lwip/lwip-2.1.2/src/api\netbuf.c ****   LWIP_ERROR("netbuf_first: invalid buf", (buf != NULL), return;);
 704              		.loc 1 245 1 is_stmt 0 discriminator 1
 705 0002 17030000 		call	t0,__riscv_save_0
 705      E7020300 
 706              		.cfi_offset 1, -4
 707              		.cfi_def_cfa_offset 16
 708              		.loc 1 246 3 is_stmt 1 discriminator 1
 709              		.loc 1 246 3 discriminator 1
 710 000a B7060000 		lui	a3,%hi(.LC0)
 711 000e B7050000 		lui	a1,%hi(.LC12)
 712 0012 37050000 		lui	a0,%hi(.LC2)
 713              	.LVL69:
 714 0016 93860600 		addi	a3,a3,%lo(.LC0)
 715 001a 1306600F 		li	a2,246
 716 001e 93850500 		addi	a1,a1,%lo(.LC12)
 717 0022 13050500 		addi	a0,a0,%lo(.LC2)
 718 0026 97000000 		call	printf
 718      E7800000 
 719              	.LVL70:
 720              	.L78:
 721              		.loc 1 246 3 discriminator 1
 722              		.loc 1 246 3 discriminator 1
 723              		.loc 1 246 3 discriminator 1
 724 002e 01A0     		j	.L78
 725              	.LVL71:
 726              	.L77:
 727              		.cfi_def_cfa_offset 0
 728              		.cfi_restore 1
 729              		.loc 1 246 3 discriminator 2
 730              		.loc 1 246 3 discriminator 2
 247:C:/Users/stapi/OneDrive/Desktop/GD32VW553/V1_MQTT_OK/GD32VW55X_Wifi_BLE_SDK/GD32VW55x_RELEASE_V1.0.2/MSDK/lwip/lwip-2.1.2/src/api\netbuf.c ****   buf->ptr = buf->p;
 731              		.loc 1 247 3 discriminator 2
 732              		.loc 1 247 12 is_stmt 0 discriminator 2
 733 0030 1C41     		lw	a5,0(a0)
 734 0032 5CC1     		sw	a5,4(a0)
 735 0034 8280     		ret
 736              		.cfi_endproc
 737              	.LFE12:
 739              		.text
 740              	.Letext0:
 741              		.file 2 "c:\\users\\stapi\\onedrive\\desktop\\gd32vw553\\embeddedbuilder_v1.4.7.26843\\tools\\nucl
 742              		.file 3 "c:\\users\\stapi\\onedrive\\desktop\\gd32vw553\\embeddedbuilder_v1.4.7.26843\\tools\\nucl
 743              		.file 4 "..\\..\\..\\..\\lwip\\lwip-2.1.2\\src\\include/lwip/arch.h"
 744              		.file 5 "..\\..\\..\\..\\lwip\\lwip-2.1.2\\src\\include/lwip/err.h"
 745              		.file 6 "..\\..\\..\\..\\lwip\\lwip-2.1.2\\src\\include/lwip/pbuf.h"
 746              		.file 7 "..\\..\\..\\..\\lwip\\lwip-2.1.2\\src\\include/lwip/ip4_addr.h"
 747              		.file 8 "..\\..\\..\\..\\lwip\\lwip-2.1.2\\src\\include/lwip/ip_addr.h"
 748              		.file 9 "..\\..\\..\\..\\lwip\\lwip-2.1.2\\src\\include/lwip/netbuf.h"
 749              		.file 10 "..\\..\\..\\..\\lwip\\lwip-2.1.2\\src\\include/lwip/memp.h"
 750              		.file 11 "c:\\users\\stapi\\onedrive\\desktop\\gd32vw553\\embeddedbuilder_v1.4.7.26843\\tools\\nuc
 751              		.file 12 "<built-in>"
DEFINED SYMBOLS
                            *ABS*:0000000000000000 netbuf.c
C:\Users\stapi\AppData\Local\Temp\ccgMkvoY.s:13     .text.netbuf_new:0000000000000000 netbuf_new
C:\Users\stapi\AppData\Local\Temp\ccgMkvoY.s:17     .text.netbuf_new:0000000000000000 .L0 
C:\Users\stapi\AppData\Local\Temp\ccgMkvoY.s:18     .text.netbuf_new:0000000000000000 .L0 
C:\Users\stapi\AppData\Local\Temp\ccgMkvoY.s:19     .text.netbuf_new:0000000000000008 .L0 
C:\Users\stapi\AppData\Local\Temp\ccgMkvoY.s:20     .text.netbuf_new:0000000000000008 .L0 
C:\Users\stapi\AppData\Local\Temp\ccgMkvoY.s:21     .text.netbuf_new:0000000000000008 .L0 
C:\Users\stapi\AppData\Local\Temp\ccgMkvoY.s:23     .text.netbuf_new:0000000000000008 .L0 
C:\Users\stapi\AppData\Local\Temp\ccgMkvoY.s:24     .text.netbuf_new:0000000000000008 .L0 
C:\Users\stapi\AppData\Local\Temp\ccgMkvoY.s:25     .text.netbuf_new:0000000000000008 .L0 
C:\Users\stapi\AppData\Local\Temp\ccgMkvoY.s:31     .text.netbuf_new:0000000000000014 .L0 
C:\Users\stapi\AppData\Local\Temp\ccgMkvoY.s:32     .text.netbuf_new:0000000000000014 .L0 
C:\Users\stapi\AppData\Local\Temp\ccgMkvoY.s:34     .text.netbuf_new:0000000000000016 .L0 
C:\Users\stapi\AppData\Local\Temp\ccgMkvoY.s:40     .text.netbuf_new:0000000000000022 .L0 
C:\Users\stapi\AppData\Local\Temp\ccgMkvoY.s:41     .text.netbuf_new:0000000000000022 .L0 
C:\Users\stapi\AppData\Local\Temp\ccgMkvoY.s:43     .text.netbuf_new:000000000000002c .L0 
C:\Users\stapi\AppData\Local\Temp\ccgMkvoY.s:44     .text.netbuf_new:000000000000002c .L0 
C:\Users\stapi\AppData\Local\Temp\ccgMkvoY.s:45     .text.netbuf_new:000000000000002c .L0 
C:\Users\stapi\AppData\Local\Temp\ccgMkvoY.s:46     .text.netbuf_new:000000000000002c .L0 
C:\Users\stapi\AppData\Local\Temp\ccgMkvoY.s:53     .text.netbuf_delete:0000000000000000 netbuf_delete
C:\Users\stapi\AppData\Local\Temp\ccgMkvoY.s:56     .text.netbuf_delete:0000000000000000 .L0 
C:\Users\stapi\AppData\Local\Temp\ccgMkvoY.s:58     .text.netbuf_delete:0000000000000000 .L0 
C:\Users\stapi\AppData\Local\Temp\ccgMkvoY.s:59     .text.netbuf_delete:0000000000000000 .L0 
C:\Users\stapi\AppData\Local\Temp\ccgMkvoY.s:60     .text.netbuf_delete:0000000000000000 .L0 
C:\Users\stapi\AppData\Local\Temp\ccgMkvoY.s:62     .text.netbuf_delete:0000000000000002 .L0 
C:\Users\stapi\AppData\Local\Temp\ccgMkvoY.s:63     .text.netbuf_delete:000000000000000a .L0 
C:\Users\stapi\AppData\Local\Temp\ccgMkvoY.s:64     .text.netbuf_delete:000000000000000a .L0 
C:\Users\stapi\AppData\Local\Temp\ccgMkvoY.s:67     .text.netbuf_delete:000000000000000c .L0 
C:\Users\stapi\AppData\Local\Temp\ccgMkvoY.s:68     .text.netbuf_delete:000000000000000c .L0 
C:\Users\stapi\AppData\Local\Temp\ccgMkvoY.s:71     .text.netbuf_delete:000000000000000e .L0 
C:\Users\stapi\AppData\Local\Temp\ccgMkvoY.s:72     .text.netbuf_delete:0000000000000010 .L0 
C:\Users\stapi\AppData\Local\Temp\ccgMkvoY.s:74     .text.netbuf_delete:0000000000000010 .L0 
C:\Users\stapi\AppData\Local\Temp\ccgMkvoY.s:77     .text.netbuf_delete:0000000000000014 .L0 
C:\Users\stapi\AppData\Local\Temp\ccgMkvoY.s:80     .text.netbuf_delete:000000000000001c .L0 
C:\Users\stapi\AppData\Local\Temp\ccgMkvoY.s:81     .text.netbuf_delete:000000000000001c .L0 
C:\Users\stapi\AppData\Local\Temp\ccgMkvoY.s:84     .text.netbuf_delete:0000000000000022 .L0 
C:\Users\stapi\AppData\Local\Temp\ccgMkvoY.s:88     .text.netbuf_delete:0000000000000026 .L0 
C:\Users\stapi\AppData\Local\Temp\ccgMkvoY.s:92     .text.netbuf_delete:0000000000000030 .L0 
C:\Users\stapi\AppData\Local\Temp\ccgMkvoY.s:93     .text.netbuf_delete:0000000000000032 .L0 
C:\Users\stapi\AppData\Local\Temp\ccgMkvoY.s:95     .text.netbuf_delete:000000000000003a .L0 
C:\Users\stapi\AppData\Local\Temp\ccgMkvoY.s:96     .text.netbuf_delete:000000000000003a .L0 
C:\Users\stapi\AppData\Local\Temp\ccgMkvoY.s:99     .text.netbuf_delete:000000000000003a .L0 
C:\Users\stapi\AppData\Local\Temp\ccgMkvoY.s:101    .text.netbuf_delete:000000000000003c .L0 
C:\Users\stapi\AppData\Local\Temp\ccgMkvoY.s:121    .text.netbuf_alloc:0000000000000000 netbuf_alloc
C:\Users\stapi\AppData\Local\Temp\ccgMkvoY.s:124    .text.netbuf_alloc:0000000000000000 .L0 
C:\Users\stapi\AppData\Local\Temp\ccgMkvoY.s:126    .text.netbuf_alloc:0000000000000000 .L0 
C:\Users\stapi\AppData\Local\Temp\ccgMkvoY.s:127    .text.netbuf_alloc:0000000000000008 .L0 
C:\Users\stapi\AppData\Local\Temp\ccgMkvoY.s:128    .text.netbuf_alloc:0000000000000008 .L0 
C:\Users\stapi\AppData\Local\Temp\ccgMkvoY.s:129    .text.netbuf_alloc:0000000000000008 .L0 
C:\Users\stapi\AppData\Local\Temp\ccgMkvoY.s:130    .text.netbuf_alloc:0000000000000008 .L0 
C:\Users\stapi\AppData\Local\Temp\ccgMkvoY.s:132    .text.netbuf_alloc:0000000000000008 .L0 
C:\Users\stapi\AppData\Local\Temp\ccgMkvoY.s:133    .text.netbuf_alloc:0000000000000008 .L0 
C:\Users\stapi\AppData\Local\Temp\ccgMkvoY.s:135    .text.netbuf_alloc:000000000000000a .L0 
C:\Users\stapi\AppData\Local\Temp\ccgMkvoY.s:136    .text.netbuf_alloc:000000000000000a .L0 
C:\Users\stapi\AppData\Local\Temp\ccgMkvoY.s:149    .text.netbuf_alloc:000000000000002e .L0 
C:\Users\stapi\AppData\Local\Temp\ccgMkvoY.s:150    .text.netbuf_alloc:000000000000002e .L0 
C:\Users\stapi\AppData\Local\Temp\ccgMkvoY.s:151    .text.netbuf_alloc:000000000000002e .L0 
C:\Users\stapi\AppData\Local\Temp\ccgMkvoY.s:156    .text.netbuf_alloc:0000000000000032 .L0 
C:\Users\stapi\AppData\Local\Temp\ccgMkvoY.s:160    .text.netbuf_alloc:0000000000000036 .L0 
C:\Users\stapi\AppData\Local\Temp\ccgMkvoY.s:161    .text.netbuf_alloc:0000000000000036 .L0 
C:\Users\stapi\AppData\Local\Temp\ccgMkvoY.s:162    .text.netbuf_alloc:0000000000000036 .L0 
C:\Users\stapi\AppData\Local\Temp\ccgMkvoY.s:163    .text.netbuf_alloc:0000000000000036 .L0 
C:\Users\stapi\AppData\Local\Temp\ccgMkvoY.s:165    .text.netbuf_alloc:0000000000000038 .L0 
C:\Users\stapi\AppData\Local\Temp\ccgMkvoY.s:169    .text.netbuf_alloc:0000000000000040 .L0 
C:\Users\stapi\AppData\Local\Temp\ccgMkvoY.s:170    .text.netbuf_alloc:0000000000000040 .L0 
C:\Users\stapi\AppData\Local\Temp\ccgMkvoY.s:176    .text.netbuf_alloc:0000000000000052 .L0 
C:\Users\stapi\AppData\Local\Temp\ccgMkvoY.s:178    .text.netbuf_alloc:0000000000000054 .L0 
C:\Users\stapi\AppData\Local\Temp\ccgMkvoY.s:179    .text.netbuf_alloc:0000000000000054 .L0 
C:\Users\stapi\AppData\Local\Temp\ccgMkvoY.s:181    .text.netbuf_alloc:0000000000000056 .L0 
C:\Users\stapi\AppData\Local\Temp\ccgMkvoY.s:182    .text.netbuf_alloc:0000000000000056 .L0 
C:\Users\stapi\AppData\Local\Temp\ccgMkvoY.s:185    .text.netbuf_alloc:000000000000005e .L0 
C:\Users\stapi\AppData\Local\Temp\ccgMkvoY.s:186    .text.netbuf_alloc:000000000000005e .L0 
C:\Users\stapi\AppData\Local\Temp\ccgMkvoY.s:197    .text.netbuf_alloc:0000000000000082 .L0 
C:\Users\stapi\AppData\Local\Temp\ccgMkvoY.s:198    .text.netbuf_alloc:0000000000000082 .L0 
C:\Users\stapi\AppData\Local\Temp\ccgMkvoY.s:199    .text.netbuf_alloc:0000000000000082 .L0 
C:\Users\stapi\AppData\Local\Temp\ccgMkvoY.s:202    .text.netbuf_alloc:0000000000000084 .L0 
C:\Users\stapi\AppData\Local\Temp\ccgMkvoY.s:203    .text.netbuf_alloc:0000000000000084 .L0 
C:\Users\stapi\AppData\Local\Temp\ccgMkvoY.s:204    .text.netbuf_alloc:0000000000000084 .L0 
C:\Users\stapi\AppData\Local\Temp\ccgMkvoY.s:205    .text.netbuf_alloc:0000000000000084 .L0 
C:\Users\stapi\AppData\Local\Temp\ccgMkvoY.s:207    .text.netbuf_alloc:0000000000000086 .L0 
C:\Users\stapi\AppData\Local\Temp\ccgMkvoY.s:208    .text.netbuf_alloc:0000000000000086 .L0 
C:\Users\stapi\AppData\Local\Temp\ccgMkvoY.s:211    .text.netbuf_alloc:0000000000000088 .L0 
C:\Users\stapi\AppData\Local\Temp\ccgMkvoY.s:212    .text.netbuf_alloc:0000000000000090 .L0 
C:\Users\stapi\AppData\Local\Temp\ccgMkvoY.s:213    .text.netbuf_alloc:0000000000000090 .L0 
C:\Users\stapi\AppData\Local\Temp\ccgMkvoY.s:214    .text.netbuf_alloc:0000000000000090 .L0 
C:\Users\stapi\AppData\Local\Temp\ccgMkvoY.s:215    .text.netbuf_alloc:0000000000000090 .L0 
C:\Users\stapi\AppData\Local\Temp\ccgMkvoY.s:216    .text.netbuf_alloc:0000000000000090 .L0 
C:\Users\stapi\AppData\Local\Temp\ccgMkvoY.s:227    .text.netbuf_free:0000000000000000 netbuf_free
C:\Users\stapi\AppData\Local\Temp\ccgMkvoY.s:230    .text.netbuf_free:0000000000000000 .L0 
C:\Users\stapi\AppData\Local\Temp\ccgMkvoY.s:232    .text.netbuf_free:0000000000000000 .L0 
C:\Users\stapi\AppData\Local\Temp\ccgMkvoY.s:233    .text.netbuf_free:0000000000000008 .L0 
C:\Users\stapi\AppData\Local\Temp\ccgMkvoY.s:234    .text.netbuf_free:0000000000000008 .L0 
C:\Users\stapi\AppData\Local\Temp\ccgMkvoY.s:235    .text.netbuf_free:0000000000000008 .L0 
C:\Users\stapi\AppData\Local\Temp\ccgMkvoY.s:237    .text.netbuf_free:0000000000000008 .L0 
C:\Users\stapi\AppData\Local\Temp\ccgMkvoY.s:238    .text.netbuf_free:0000000000000008 .L0 
C:\Users\stapi\AppData\Local\Temp\ccgMkvoY.s:240    .text.netbuf_free:000000000000000a .L0 
C:\Users\stapi\AppData\Local\Temp\ccgMkvoY.s:241    .text.netbuf_free:000000000000000a .L0 
C:\Users\stapi\AppData\Local\Temp\ccgMkvoY.s:253    .text.netbuf_free:000000000000002e .L0 
C:\Users\stapi\AppData\Local\Temp\ccgMkvoY.s:254    .text.netbuf_free:000000000000002e .L0 
C:\Users\stapi\AppData\Local\Temp\ccgMkvoY.s:255    .text.netbuf_free:000000000000002e .L0 
C:\Users\stapi\AppData\Local\Temp\ccgMkvoY.s:260    .text.netbuf_free:0000000000000032 .L0 
C:\Users\stapi\AppData\Local\Temp\ccgMkvoY.s:261    .text.netbuf_free:0000000000000032 .L0 
C:\Users\stapi\AppData\Local\Temp\ccgMkvoY.s:262    .text.netbuf_free:0000000000000032 .L0 
C:\Users\stapi\AppData\Local\Temp\ccgMkvoY.s:263    .text.netbuf_free:0000000000000032 .L0 
C:\Users\stapi\AppData\Local\Temp\ccgMkvoY.s:266    .text.netbuf_free:0000000000000034 .L0 
C:\Users\stapi\AppData\Local\Temp\ccgMkvoY.s:268    .text.netbuf_free:0000000000000036 .L0 
C:\Users\stapi\AppData\Local\Temp\ccgMkvoY.s:272    .text.netbuf_free:000000000000003e .L0 
C:\Users\stapi\AppData\Local\Temp\ccgMkvoY.s:273    .text.netbuf_free:000000000000003e .L0 
C:\Users\stapi\AppData\Local\Temp\ccgMkvoY.s:275    .text.netbuf_free:0000000000000042 .L0 
C:\Users\stapi\AppData\Local\Temp\ccgMkvoY.s:277    .text.netbuf_free:0000000000000046 .L0 
C:\Users\stapi\AppData\Local\Temp\ccgMkvoY.s:278    .text.netbuf_free:000000000000004e .L0 
C:\Users\stapi\AppData\Local\Temp\ccgMkvoY.s:279    .text.netbuf_free:000000000000004e .L0 
C:\Users\stapi\AppData\Local\Temp\ccgMkvoY.s:280    .text.netbuf_free:000000000000004e .L0 
C:\Users\stapi\AppData\Local\Temp\ccgMkvoY.s:281    .text.netbuf_free:000000000000004e .L0 
C:\Users\stapi\AppData\Local\Temp\ccgMkvoY.s:292    .text.netbuf_ref:0000000000000000 netbuf_ref
C:\Users\stapi\AppData\Local\Temp\ccgMkvoY.s:295    .text.netbuf_ref:0000000000000000 .L0 
C:\Users\stapi\AppData\Local\Temp\ccgMkvoY.s:297    .text.netbuf_ref:0000000000000000 .L0 
C:\Users\stapi\AppData\Local\Temp\ccgMkvoY.s:298    .text.netbuf_ref:0000000000000008 .L0 
C:\Users\stapi\AppData\Local\Temp\ccgMkvoY.s:299    .text.netbuf_ref:0000000000000008 .L0 
C:\Users\stapi\AppData\Local\Temp\ccgMkvoY.s:300    .text.netbuf_ref:0000000000000008 .L0 
C:\Users\stapi\AppData\Local\Temp\ccgMkvoY.s:301    .text.netbuf_ref:0000000000000008 .L0 
C:\Users\stapi\AppData\Local\Temp\ccgMkvoY.s:302    .text.netbuf_ref:0000000000000008 .L0 
C:\Users\stapi\AppData\Local\Temp\ccgMkvoY.s:304    .text.netbuf_ref:0000000000000008 .L0 
C:\Users\stapi\AppData\Local\Temp\ccgMkvoY.s:305    .text.netbuf_ref:0000000000000008 .L0 
C:\Users\stapi\AppData\Local\Temp\ccgMkvoY.s:307    .text.netbuf_ref:000000000000000a .L0 
C:\Users\stapi\AppData\Local\Temp\ccgMkvoY.s:308    .text.netbuf_ref:000000000000000a .L0 
C:\Users\stapi\AppData\Local\Temp\ccgMkvoY.s:322    .text.netbuf_ref:000000000000002e .L0 
C:\Users\stapi\AppData\Local\Temp\ccgMkvoY.s:323    .text.netbuf_ref:000000000000002e .L0 
C:\Users\stapi\AppData\Local\Temp\ccgMkvoY.s:324    .text.netbuf_ref:000000000000002e .L0 
C:\Users\stapi\AppData\Local\Temp\ccgMkvoY.s:329    .text.netbuf_ref:0000000000000032 .L0 
C:\Users\stapi\AppData\Local\Temp\ccgMkvoY.s:334    .text.netbuf_ref:0000000000000038 .L0 
C:\Users\stapi\AppData\Local\Temp\ccgMkvoY.s:335    .text.netbuf_ref:0000000000000038 .L0 
C:\Users\stapi\AppData\Local\Temp\ccgMkvoY.s:336    .text.netbuf_ref:0000000000000038 .L0 
C:\Users\stapi\AppData\Local\Temp\ccgMkvoY.s:337    .text.netbuf_ref:0000000000000038 .L0 
C:\Users\stapi\AppData\Local\Temp\ccgMkvoY.s:339    .text.netbuf_ref:000000000000003a .L0 
C:\Users\stapi\AppData\Local\Temp\ccgMkvoY.s:343    .text.netbuf_ref:0000000000000042 .L0 
C:\Users\stapi\AppData\Local\Temp\ccgMkvoY.s:344    .text.netbuf_ref:0000000000000042 .L0 
C:\Users\stapi\AppData\Local\Temp\ccgMkvoY.s:350    .text.netbuf_ref:0000000000000054 .L0 
C:\Users\stapi\AppData\Local\Temp\ccgMkvoY.s:352    .text.netbuf_ref:0000000000000056 .L0 
C:\Users\stapi\AppData\Local\Temp\ccgMkvoY.s:353    .text.netbuf_ref:0000000000000056 .L0 
C:\Users\stapi\AppData\Local\Temp\ccgMkvoY.s:355    .text.netbuf_ref:0000000000000058 .L0 
C:\Users\stapi\AppData\Local\Temp\ccgMkvoY.s:356    .text.netbuf_ref:0000000000000058 .L0 
C:\Users\stapi\AppData\Local\Temp\ccgMkvoY.s:358    .text.netbuf_ref:000000000000005c .L0 
C:\Users\stapi\AppData\Local\Temp\ccgMkvoY.s:359    .text.netbuf_ref:000000000000005c .L0 
C:\Users\stapi\AppData\Local\Temp\ccgMkvoY.s:362    .text.netbuf_ref:000000000000005e .L0 
C:\Users\stapi\AppData\Local\Temp\ccgMkvoY.s:363    .text.netbuf_ref:0000000000000066 .L0 
C:\Users\stapi\AppData\Local\Temp\ccgMkvoY.s:364    .text.netbuf_ref:0000000000000066 .L0 
C:\Users\stapi\AppData\Local\Temp\ccgMkvoY.s:365    .text.netbuf_ref:0000000000000066 .L0 
C:\Users\stapi\AppData\Local\Temp\ccgMkvoY.s:366    .text.netbuf_ref:0000000000000066 .L0 
C:\Users\stapi\AppData\Local\Temp\ccgMkvoY.s:367    .text.netbuf_ref:0000000000000066 .L0 
C:\Users\stapi\AppData\Local\Temp\ccgMkvoY.s:368    .text.netbuf_ref:0000000000000066 .L0 
C:\Users\stapi\AppData\Local\Temp\ccgMkvoY.s:370    .text.netbuf_ref:0000000000000066 .L0 
C:\Users\stapi\AppData\Local\Temp\ccgMkvoY.s:372    .text.netbuf_ref:0000000000000066 .L0 
C:\Users\stapi\AppData\Local\Temp\ccgMkvoY.s:373    .text.netbuf_ref:0000000000000066 .L0 
C:\Users\stapi\AppData\Local\Temp\ccgMkvoY.s:375    .text.netbuf_ref:000000000000006a .L0 
C:\Users\stapi\AppData\Local\Temp\ccgMkvoY.s:376    .text.netbuf_ref:000000000000006a .L0 
C:\Users\stapi\AppData\Local\Temp\ccgMkvoY.s:378    .text.netbuf_ref:000000000000006e .L0 
C:\Users\stapi\AppData\Local\Temp\ccgMkvoY.s:380    .text.netbuf_ref:0000000000000072 .L0 
C:\Users\stapi\AppData\Local\Temp\ccgMkvoY.s:381    .text.netbuf_ref:0000000000000072 .L0 
C:\Users\stapi\AppData\Local\Temp\ccgMkvoY.s:383    .text.netbuf_ref:0000000000000074 .L0 
C:\Users\stapi\AppData\Local\Temp\ccgMkvoY.s:384    .text.netbuf_ref:0000000000000074 .L0 
C:\Users\stapi\AppData\Local\Temp\ccgMkvoY.s:386    .text.netbuf_ref:0000000000000078 .L0 
C:\Users\stapi\AppData\Local\Temp\ccgMkvoY.s:400    .text.netbuf_chain:0000000000000000 netbuf_chain
C:\Users\stapi\AppData\Local\Temp\ccgMkvoY.s:403    .text.netbuf_chain:0000000000000000 .L0 
C:\Users\stapi\AppData\Local\Temp\ccgMkvoY.s:405    .text.netbuf_chain:0000000000000000 .L0 
C:\Users\stapi\AppData\Local\Temp\ccgMkvoY.s:406    .text.netbuf_chain:0000000000000008 .L0 
C:\Users\stapi\AppData\Local\Temp\ccgMkvoY.s:407    .text.netbuf_chain:0000000000000008 .L0 
C:\Users\stapi\AppData\Local\Temp\ccgMkvoY.s:408    .text.netbuf_chain:0000000000000008 .L0 
C:\Users\stapi\AppData\Local\Temp\ccgMkvoY.s:409    .text.netbuf_chain:0000000000000008 .L0 
C:\Users\stapi\AppData\Local\Temp\ccgMkvoY.s:411    .text.netbuf_chain:0000000000000008 .L0 
C:\Users\stapi\AppData\Local\Temp\ccgMkvoY.s:412    .text.netbuf_chain:0000000000000008 .L0 
C:\Users\stapi\AppData\Local\Temp\ccgMkvoY.s:414    .text.netbuf_chain:000000000000000a .L0 
C:\Users\stapi\AppData\Local\Temp\ccgMkvoY.s:415    .text.netbuf_chain:000000000000000a .L0 
C:\Users\stapi\AppData\Local\Temp\ccgMkvoY.s:428    .text.netbuf_chain:000000000000002e .L0 
C:\Users\stapi\AppData\Local\Temp\ccgMkvoY.s:429    .text.netbuf_chain:000000000000002e .L0 
C:\Users\stapi\AppData\Local\Temp\ccgMkvoY.s:430    .text.netbuf_chain:000000000000002e .L0 
C:\Users\stapi\AppData\Local\Temp\ccgMkvoY.s:435    .text.netbuf_chain:0000000000000032 .L0 
C:\Users\stapi\AppData\Local\Temp\ccgMkvoY.s:436    .text.netbuf_chain:0000000000000032 .L0 
C:\Users\stapi\AppData\Local\Temp\ccgMkvoY.s:437    .text.netbuf_chain:0000000000000032 .L0 
C:\Users\stapi\AppData\Local\Temp\ccgMkvoY.s:438    .text.netbuf_chain:0000000000000032 .L0 
C:\Users\stapi\AppData\Local\Temp\ccgMkvoY.s:441    .text.netbuf_chain:0000000000000034 .L0 
C:\Users\stapi\AppData\Local\Temp\ccgMkvoY.s:442    .text.netbuf_chain:0000000000000034 .L0 
C:\Users\stapi\AppData\Local\Temp\ccgMkvoY.s:454    .text.netbuf_chain:0000000000000058 .L0 
C:\Users\stapi\AppData\Local\Temp\ccgMkvoY.s:455    .text.netbuf_chain:0000000000000058 .L0 
C:\Users\stapi\AppData\Local\Temp\ccgMkvoY.s:456    .text.netbuf_chain:0000000000000058 .L0 
C:\Users\stapi\AppData\Local\Temp\ccgMkvoY.s:461    .text.netbuf_chain:000000000000005c .L0 
C:\Users\stapi\AppData\Local\Temp\ccgMkvoY.s:462    .text.netbuf_chain:000000000000005c .L0 
C:\Users\stapi\AppData\Local\Temp\ccgMkvoY.s:463    .text.netbuf_chain:000000000000005c .L0 
C:\Users\stapi\AppData\Local\Temp\ccgMkvoY.s:469    .text.netbuf_chain:0000000000000068 .L0 
C:\Users\stapi\AppData\Local\Temp\ccgMkvoY.s:470    .text.netbuf_chain:0000000000000068 .L0 
C:\Users\stapi\AppData\Local\Temp\ccgMkvoY.s:472    .text.netbuf_chain:000000000000006a .L0 
C:\Users\stapi\AppData\Local\Temp\ccgMkvoY.s:475    .text.netbuf_chain:000000000000006e .L0 
C:\Users\stapi\AppData\Local\Temp\ccgMkvoY.s:477    .text.netbuf_chain:0000000000000070 .L0 
C:\Users\stapi\AppData\Local\Temp\ccgMkvoY.s:480    .text.netbuf_chain:0000000000000078 .L0 
C:\Users\stapi\AppData\Local\Temp\ccgMkvoY.s:481    .text.netbuf_chain:0000000000000080 .L0 
C:\Users\stapi\AppData\Local\Temp\ccgMkvoY.s:482    .text.netbuf_chain:0000000000000080 .L0 
C:\Users\stapi\AppData\Local\Temp\ccgMkvoY.s:483    .text.netbuf_chain:0000000000000080 .L0 
C:\Users\stapi\AppData\Local\Temp\ccgMkvoY.s:484    .text.netbuf_chain:0000000000000080 .L0 
C:\Users\stapi\AppData\Local\Temp\ccgMkvoY.s:485    .text.netbuf_chain:0000000000000080 .L0 
C:\Users\stapi\AppData\Local\Temp\ccgMkvoY.s:502    .text.netbuf_data:0000000000000000 netbuf_data
C:\Users\stapi\AppData\Local\Temp\ccgMkvoY.s:505    .text.netbuf_data:0000000000000000 .L0 
C:\Users\stapi\AppData\Local\Temp\ccgMkvoY.s:507    .text.netbuf_data:0000000000000000 .L0 
C:\Users\stapi\AppData\Local\Temp\ccgMkvoY.s:508    .text.netbuf_data:0000000000000008 .L0 
C:\Users\stapi\AppData\Local\Temp\ccgMkvoY.s:509    .text.netbuf_data:0000000000000008 .L0 
C:\Users\stapi\AppData\Local\Temp\ccgMkvoY.s:511    .text.netbuf_data:0000000000000008 .L0 
C:\Users\stapi\AppData\Local\Temp\ccgMkvoY.s:512    .text.netbuf_data:0000000000000008 .L0 
C:\Users\stapi\AppData\Local\Temp\ccgMkvoY.s:514    .text.netbuf_data:000000000000000a .L0 
C:\Users\stapi\AppData\Local\Temp\ccgMkvoY.s:515    .text.netbuf_data:000000000000000a .L0 
C:\Users\stapi\AppData\Local\Temp\ccgMkvoY.s:529    .text.netbuf_data:000000000000002e .L0 
C:\Users\stapi\AppData\Local\Temp\ccgMkvoY.s:530    .text.netbuf_data:000000000000002e .L0 
C:\Users\stapi\AppData\Local\Temp\ccgMkvoY.s:531    .text.netbuf_data:000000000000002e .L0 
C:\Users\stapi\AppData\Local\Temp\ccgMkvoY.s:535    .text.netbuf_data:0000000000000030 .L0 
C:\Users\stapi\AppData\Local\Temp\ccgMkvoY.s:536    .text.netbuf_data:0000000000000030 .L0 
C:\Users\stapi\AppData\Local\Temp\ccgMkvoY.s:537    .text.netbuf_data:0000000000000030 .L0 
C:\Users\stapi\AppData\Local\Temp\ccgMkvoY.s:538    .text.netbuf_data:0000000000000030 .L0 
C:\Users\stapi\AppData\Local\Temp\ccgMkvoY.s:540    .text.netbuf_data:0000000000000032 .L0 
C:\Users\stapi\AppData\Local\Temp\ccgMkvoY.s:541    .text.netbuf_data:0000000000000032 .L0 
C:\Users\stapi\AppData\Local\Temp\ccgMkvoY.s:555    .text.netbuf_data:0000000000000056 .L0 
C:\Users\stapi\AppData\Local\Temp\ccgMkvoY.s:556    .text.netbuf_data:0000000000000056 .L0 
C:\Users\stapi\AppData\Local\Temp\ccgMkvoY.s:557    .text.netbuf_data:0000000000000056 .L0 
C:\Users\stapi\AppData\Local\Temp\ccgMkvoY.s:561    .text.netbuf_data:0000000000000058 .L0 
C:\Users\stapi\AppData\Local\Temp\ccgMkvoY.s:562    .text.netbuf_data:0000000000000058 .L0 
C:\Users\stapi\AppData\Local\Temp\ccgMkvoY.s:563    .text.netbuf_data:0000000000000058 .L0 
C:\Users\stapi\AppData\Local\Temp\ccgMkvoY.s:564    .text.netbuf_data:0000000000000058 .L0 
C:\Users\stapi\AppData\Local\Temp\ccgMkvoY.s:566    .text.netbuf_data:000000000000005a .L0 
C:\Users\stapi\AppData\Local\Temp\ccgMkvoY.s:567    .text.netbuf_data:000000000000005a .L0 
C:\Users\stapi\AppData\Local\Temp\ccgMkvoY.s:581    .text.netbuf_data:000000000000007e .L0 
C:\Users\stapi\AppData\Local\Temp\ccgMkvoY.s:582    .text.netbuf_data:000000000000007e .L0 
C:\Users\stapi\AppData\Local\Temp\ccgMkvoY.s:583    .text.netbuf_data:000000000000007e .L0 
C:\Users\stapi\AppData\Local\Temp\ccgMkvoY.s:587    .text.netbuf_data:0000000000000080 .L0 
C:\Users\stapi\AppData\Local\Temp\ccgMkvoY.s:590    .text.netbuf_data:0000000000000084 .L0 
C:\Users\stapi\AppData\Local\Temp\ccgMkvoY.s:591    .text.netbuf_data:0000000000000084 .L0 
C:\Users\stapi\AppData\Local\Temp\ccgMkvoY.s:592    .text.netbuf_data:0000000000000084 .L0 
C:\Users\stapi\AppData\Local\Temp\ccgMkvoY.s:593    .text.netbuf_data:0000000000000084 .L0 
C:\Users\stapi\AppData\Local\Temp\ccgMkvoY.s:596    .text.netbuf_data:0000000000000086 .L0 
C:\Users\stapi\AppData\Local\Temp\ccgMkvoY.s:598    .text.netbuf_data:0000000000000088 .L0 
C:\Users\stapi\AppData\Local\Temp\ccgMkvoY.s:599    .text.netbuf_data:0000000000000088 .L0 
C:\Users\stapi\AppData\Local\Temp\ccgMkvoY.s:601    .text.netbuf_data:000000000000008a .L0 
C:\Users\stapi\AppData\Local\Temp\ccgMkvoY.s:603    .text.netbuf_data:000000000000008c .L0 
C:\Users\stapi\AppData\Local\Temp\ccgMkvoY.s:605    .text.netbuf_data:000000000000008e .L0 
C:\Users\stapi\AppData\Local\Temp\ccgMkvoY.s:606    .text.netbuf_data:000000000000008e .L0 
C:\Users\stapi\AppData\Local\Temp\ccgMkvoY.s:610    .text.netbuf_data:0000000000000094 .L0 
C:\Users\stapi\AppData\Local\Temp\ccgMkvoY.s:613    .text.netbuf_data:0000000000000098 .L0 
C:\Users\stapi\AppData\Local\Temp\ccgMkvoY.s:614    .text.netbuf_data:0000000000000098 .L0 
C:\Users\stapi\AppData\Local\Temp\ccgMkvoY.s:615    .text.netbuf_data:00000000000000a0 .L0 
C:\Users\stapi\AppData\Local\Temp\ccgMkvoY.s:616    .text.netbuf_data:00000000000000a0 .L0 
C:\Users\stapi\AppData\Local\Temp\ccgMkvoY.s:617    .text.netbuf_data:00000000000000a0 .L0 
C:\Users\stapi\AppData\Local\Temp\ccgMkvoY.s:628    .text.netbuf_next:0000000000000000 netbuf_next
C:\Users\stapi\AppData\Local\Temp\ccgMkvoY.s:631    .text.netbuf_next:0000000000000000 .L0 
C:\Users\stapi\AppData\Local\Temp\ccgMkvoY.s:633    .text.netbuf_next:0000000000000000 .L0 
C:\Users\stapi\AppData\Local\Temp\ccgMkvoY.s:634    .text.netbuf_next:0000000000000000 .L0 
C:\Users\stapi\AppData\Local\Temp\ccgMkvoY.s:635    .text.netbuf_next:0000000000000000 .L0 
C:\Users\stapi\AppData\Local\Temp\ccgMkvoY.s:637    .text.netbuf_next:0000000000000002 .L0 
C:\Users\stapi\AppData\Local\Temp\ccgMkvoY.s:638    .text.netbuf_next:000000000000000a .L0 
C:\Users\stapi\AppData\Local\Temp\ccgMkvoY.s:639    .text.netbuf_next:000000000000000a .L0 
C:\Users\stapi\AppData\Local\Temp\ccgMkvoY.s:641    .text.netbuf_next:000000000000000a .L0 
C:\Users\stapi\AppData\Local\Temp\ccgMkvoY.s:642    .text.netbuf_next:000000000000000a .L0 
C:\Users\stapi\AppData\Local\Temp\ccgMkvoY.s:654    .text.netbuf_next:000000000000002e .L0 
C:\Users\stapi\AppData\Local\Temp\ccgMkvoY.s:655    .text.netbuf_next:000000000000002e .L0 
C:\Users\stapi\AppData\Local\Temp\ccgMkvoY.s:656    .text.netbuf_next:000000000000002e .L0 
C:\Users\stapi\AppData\Local\Temp\ccgMkvoY.s:659    .text.netbuf_next:0000000000000030 .L0 
C:\Users\stapi\AppData\Local\Temp\ccgMkvoY.s:660    .text.netbuf_next:0000000000000030 .L0 
C:\Users\stapi\AppData\Local\Temp\ccgMkvoY.s:662    .text.netbuf_next:0000000000000030 .L0 
C:\Users\stapi\AppData\Local\Temp\ccgMkvoY.s:665    .text.netbuf_next:0000000000000034 .L0 
C:\Users\stapi\AppData\Local\Temp\ccgMkvoY.s:666    .text.netbuf_next:0000000000000034 .L0 
C:\Users\stapi\AppData\Local\Temp\ccgMkvoY.s:667    .text.netbuf_next:0000000000000034 .L0 
C:\Users\stapi\AppData\Local\Temp\ccgMkvoY.s:668    .text.netbuf_next:0000000000000034 .L0 
C:\Users\stapi\AppData\Local\Temp\ccgMkvoY.s:671    .text.netbuf_next:0000000000000036 .L0 
C:\Users\stapi\AppData\Local\Temp\ccgMkvoY.s:673    .text.netbuf_next:0000000000000038 .L0 
C:\Users\stapi\AppData\Local\Temp\ccgMkvoY.s:675    .text.netbuf_next:000000000000003a .L0 
C:\Users\stapi\AppData\Local\Temp\ccgMkvoY.s:676    .text.netbuf_next:000000000000003a .L0 
C:\Users\stapi\AppData\Local\Temp\ccgMkvoY.s:678    .text.netbuf_next:000000000000003c .L0 
C:\Users\stapi\AppData\Local\Temp\ccgMkvoY.s:680    .text.netbuf_next:000000000000003e .L0 
C:\Users\stapi\AppData\Local\Temp\ccgMkvoY.s:681    .text.netbuf_next:000000000000003e .L0 
C:\Users\stapi\AppData\Local\Temp\ccgMkvoY.s:684    .text.netbuf_next:0000000000000042 .L0 
C:\Users\stapi\AppData\Local\Temp\ccgMkvoY.s:685    .text.netbuf_next:0000000000000044 .L0 
C:\Users\stapi\AppData\Local\Temp\ccgMkvoY.s:696    .text.netbuf_first:0000000000000000 netbuf_first
C:\Users\stapi\AppData\Local\Temp\ccgMkvoY.s:699    .text.netbuf_first:0000000000000000 .L0 
C:\Users\stapi\AppData\Local\Temp\ccgMkvoY.s:701    .text.netbuf_first:0000000000000000 .L0 
C:\Users\stapi\AppData\Local\Temp\ccgMkvoY.s:702    .text.netbuf_first:0000000000000000 .L0 
C:\Users\stapi\AppData\Local\Temp\ccgMkvoY.s:703    .text.netbuf_first:0000000000000000 .L0 
C:\Users\stapi\AppData\Local\Temp\ccgMkvoY.s:705    .text.netbuf_first:0000000000000002 .L0 
C:\Users\stapi\AppData\Local\Temp\ccgMkvoY.s:706    .text.netbuf_first:000000000000000a .L0 
C:\Users\stapi\AppData\Local\Temp\ccgMkvoY.s:707    .text.netbuf_first:000000000000000a .L0 
C:\Users\stapi\AppData\Local\Temp\ccgMkvoY.s:709    .text.netbuf_first:000000000000000a .L0 
C:\Users\stapi\AppData\Local\Temp\ccgMkvoY.s:710    .text.netbuf_first:000000000000000a .L0 
C:\Users\stapi\AppData\Local\Temp\ccgMkvoY.s:722    .text.netbuf_first:000000000000002e .L0 
C:\Users\stapi\AppData\Local\Temp\ccgMkvoY.s:723    .text.netbuf_first:000000000000002e .L0 
C:\Users\stapi\AppData\Local\Temp\ccgMkvoY.s:724    .text.netbuf_first:000000000000002e .L0 
C:\Users\stapi\AppData\Local\Temp\ccgMkvoY.s:727    .text.netbuf_first:0000000000000030 .L0 
C:\Users\stapi\AppData\Local\Temp\ccgMkvoY.s:728    .text.netbuf_first:0000000000000030 .L0 
C:\Users\stapi\AppData\Local\Temp\ccgMkvoY.s:730    .text.netbuf_first:0000000000000030 .L0 
C:\Users\stapi\AppData\Local\Temp\ccgMkvoY.s:731    .text.netbuf_first:0000000000000030 .L0 
C:\Users\stapi\AppData\Local\Temp\ccgMkvoY.s:732    .text.netbuf_first:0000000000000030 .L0 
C:\Users\stapi\AppData\Local\Temp\ccgMkvoY.s:733    .text.netbuf_first:0000000000000030 .L0 
C:\Users\stapi\AppData\Local\Temp\ccgMkvoY.s:736    .text.netbuf_first:0000000000000036 .L0 
C:\Users\stapi\AppData\Local\Temp\ccgMkvoY.s:49     .text.netbuf_new:000000000000002c .L0 
C:\Users\stapi\AppData\Local\Temp\ccgMkvoY.s:104    .text.netbuf_delete:000000000000003c .L0 
C:\Users\stapi\AppData\Local\Temp\ccgMkvoY.s:219    .text.netbuf_alloc:0000000000000090 .L0 
C:\Users\stapi\AppData\Local\Temp\ccgMkvoY.s:284    .text.netbuf_free:000000000000004e .L0 
C:\Users\stapi\AppData\Local\Temp\ccgMkvoY.s:389    .text.netbuf_ref:0000000000000078 .L0 
C:\Users\stapi\AppData\Local\Temp\ccgMkvoY.s:488    .text.netbuf_chain:0000000000000080 .L0 
C:\Users\stapi\AppData\Local\Temp\ccgMkvoY.s:620    .text.netbuf_data:00000000000000a0 .L0 
C:\Users\stapi\AppData\Local\Temp\ccgMkvoY.s:688    .text.netbuf_next:0000000000000044 .L0 
C:\Users\stapi\AppData\Local\Temp\ccgMkvoY.s:739    .text.netbuf_first:0000000000000036 .L0 
                     .debug_frame:0000000000000000 .L0 
C:\Users\stapi\AppData\Local\Temp\ccgMkvoY.s:39     .text.netbuf_new:0000000000000022 .L1
C:\Users\stapi\AppData\Local\Temp\ccgMkvoY.s:98     .text.netbuf_delete:000000000000003a .L17
C:\Users\stapi\AppData\Local\Temp\ccgMkvoY.s:86     .text.netbuf_delete:0000000000000026 .L9
C:\Users\stapi\AppData\Local\Temp\ccgMkvoY.s:106    .rodata.netbuf_alloc.str1.4:0000000000000000 .LC0
C:\Users\stapi\AppData\Local\Temp\ccgMkvoY.s:109    .rodata.netbuf_alloc.str1.4:000000000000008c .LC1
C:\Users\stapi\AppData\Local\Temp\ccgMkvoY.s:112    .rodata.netbuf_alloc.str1.4:00000000000000a8 .LC2
C:\Users\stapi\AppData\Local\Temp\ccgMkvoY.s:115    .rodata.netbuf_alloc.str1.4:00000000000000d0 .LC3
C:\Users\stapi\AppData\Local\Temp\ccgMkvoY.s:153    .text.netbuf_alloc:0000000000000030 .L21
C:\Users\stapi\AppData\Local\Temp\ccgMkvoY.s:147    .text.netbuf_alloc:000000000000002e .L22
C:\Users\stapi\AppData\Local\Temp\ccgMkvoY.s:167    .text.netbuf_alloc:0000000000000040 .L23
C:\Users\stapi\AppData\Local\Temp\ccgMkvoY.s:209    .text.netbuf_alloc:0000000000000088 .L20
C:\Users\stapi\AppData\Local\Temp\ccgMkvoY.s:200    .text.netbuf_alloc:0000000000000084 .L25
C:\Users\stapi\AppData\Local\Temp\ccgMkvoY.s:195    .text.netbuf_alloc:0000000000000082 .L26
C:\Users\stapi\AppData\Local\Temp\ccgMkvoY.s:221    .rodata.netbuf_free.str1.4:0000000000000000 .LC4
C:\Users\stapi\AppData\Local\Temp\ccgMkvoY.s:257    .text.netbuf_free:0000000000000030 .L35
C:\Users\stapi\AppData\Local\Temp\ccgMkvoY.s:251    .text.netbuf_free:000000000000002e .L36
C:\Users\stapi\AppData\Local\Temp\ccgMkvoY.s:270    .text.netbuf_free:000000000000003e .L37
C:\Users\stapi\AppData\Local\Temp\ccgMkvoY.s:286    .rodata.netbuf_ref.str1.4:0000000000000000 .LC5
C:\Users\stapi\AppData\Local\Temp\ccgMkvoY.s:326    .text.netbuf_ref:0000000000000030 .L43
C:\Users\stapi\AppData\Local\Temp\ccgMkvoY.s:320    .text.netbuf_ref:000000000000002e .L44
C:\Users\stapi\AppData\Local\Temp\ccgMkvoY.s:341    .text.netbuf_ref:0000000000000042 .L45
C:\Users\stapi\AppData\Local\Temp\ccgMkvoY.s:369    .text.netbuf_ref:0000000000000066 .L46
C:\Users\stapi\AppData\Local\Temp\ccgMkvoY.s:360    .text.netbuf_ref:000000000000005e .L47
C:\Users\stapi\AppData\Local\Temp\ccgMkvoY.s:391    .rodata.netbuf_chain.str1.4:0000000000000000 .LC6
C:\Users\stapi\AppData\Local\Temp\ccgMkvoY.s:394    .rodata.netbuf_chain.str1.4:000000000000001c .LC7
C:\Users\stapi\AppData\Local\Temp\ccgMkvoY.s:432    .text.netbuf_chain:0000000000000030 .L53
C:\Users\stapi\AppData\Local\Temp\ccgMkvoY.s:426    .text.netbuf_chain:000000000000002e .L54
C:\Users\stapi\AppData\Local\Temp\ccgMkvoY.s:458    .text.netbuf_chain:000000000000005a .L55
C:\Users\stapi\AppData\Local\Temp\ccgMkvoY.s:452    .text.netbuf_chain:0000000000000058 .L56
C:\Users\stapi\AppData\Local\Temp\ccgMkvoY.s:490    .rodata.netbuf_data.str1.4:0000000000000000 .LC8
C:\Users\stapi\AppData\Local\Temp\ccgMkvoY.s:493    .rodata.netbuf_data.str1.4:000000000000001c .LC9
C:\Users\stapi\AppData\Local\Temp\ccgMkvoY.s:496    .rodata.netbuf_data.str1.4:000000000000003c .LC10
C:\Users\stapi\AppData\Local\Temp\ccgMkvoY.s:533    .text.netbuf_data:0000000000000030 .L59
C:\Users\stapi\AppData\Local\Temp\ccgMkvoY.s:527    .text.netbuf_data:000000000000002e .L60
C:\Users\stapi\AppData\Local\Temp\ccgMkvoY.s:559    .text.netbuf_data:0000000000000058 .L61
C:\Users\stapi\AppData\Local\Temp\ccgMkvoY.s:553    .text.netbuf_data:0000000000000056 .L62
C:\Users\stapi\AppData\Local\Temp\ccgMkvoY.s:585    .text.netbuf_data:0000000000000080 .L63
C:\Users\stapi\AppData\Local\Temp\ccgMkvoY.s:579    .text.netbuf_data:000000000000007e .L64
C:\Users\stapi\AppData\Local\Temp\ccgMkvoY.s:612    .text.netbuf_data:0000000000000098 .L65
C:\Users\stapi\AppData\Local\Temp\ccgMkvoY.s:622    .rodata.netbuf_next.str1.4:0000000000000000 .LC11
C:\Users\stapi\AppData\Local\Temp\ccgMkvoY.s:658    .text.netbuf_next:0000000000000030 .L69
C:\Users\stapi\AppData\Local\Temp\ccgMkvoY.s:652    .text.netbuf_next:000000000000002e .L70
C:\Users\stapi\AppData\Local\Temp\ccgMkvoY.s:682    .text.netbuf_next:0000000000000042 .L71
C:\Users\stapi\AppData\Local\Temp\ccgMkvoY.s:690    .rodata.netbuf_first.str1.4:0000000000000000 .LC12
C:\Users\stapi\AppData\Local\Temp\ccgMkvoY.s:726    .text.netbuf_first:0000000000000030 .L77
C:\Users\stapi\AppData\Local\Temp\ccgMkvoY.s:720    .text.netbuf_first:000000000000002e .L78
C:\Users\stapi\AppData\Local\Temp\ccgMkvoY.s:1904   .debug_abbrev:0000000000000000 .Ldebug_abbrev0
C:\Users\stapi\AppData\Local\Temp\ccgMkvoY.s:2823   .debug_str:0000000000000240 .LASF100
C:\Users\stapi\AppData\Local\Temp\ccgMkvoY.s:2921   .debug_str:0000000000000525 .LASF101
C:\Users\stapi\AppData\Local\Temp\ccgMkvoY.s:2773   .debug_str:00000000000000aa .LASF102
C:\Users\stapi\AppData\Local\Temp\ccgMkvoY.s:2717   .debug_ranges:0000000000000000 .Ldebug_ranges0
C:\Users\stapi\AppData\Local\Temp\ccgMkvoY.s:2739   .debug_line:0000000000000000 .Ldebug_line0
C:\Users\stapi\AppData\Local\Temp\ccgMkvoY.s:2769   .debug_str:000000000000009c .LASF0
C:\Users\stapi\AppData\Local\Temp\ccgMkvoY.s:2777   .debug_str:0000000000000141 .LASF2
C:\Users\stapi\AppData\Local\Temp\ccgMkvoY.s:2753   .debug_str:000000000000003c .LASF1
C:\Users\stapi\AppData\Local\Temp\ccgMkvoY.s:2871   .debug_str:0000000000000431 .LASF3
C:\Users\stapi\AppData\Local\Temp\ccgMkvoY.s:2877   .debug_str:0000000000000450 .LASF4
C:\Users\stapi\AppData\Local\Temp\ccgMkvoY.s:2907   .debug_str:00000000000004cf .LASF5
C:\Users\stapi\AppData\Local\Temp\ccgMkvoY.s:2835   .debug_str:000000000000036f .LASF6
C:\Users\stapi\AppData\Local\Temp\ccgMkvoY.s:2785   .debug_str:000000000000016d .LASF7
C:\Users\stapi\AppData\Local\Temp\ccgMkvoY.s:2803   .debug_str:00000000000001c4 .LASF8
C:\Users\stapi\AppData\Local\Temp\ccgMkvoY.s:2825   .debug_str:0000000000000339 .LASF9
C:\Users\stapi\AppData\Local\Temp\ccgMkvoY.s:2775   .debug_str:0000000000000133 .LASF10
C:\Users\stapi\AppData\Local\Temp\ccgMkvoY.s:2761   .debug_str:0000000000000068 .LASF11
C:\Users\stapi\AppData\Local\Temp\ccgMkvoY.s:2819   .debug_str:0000000000000223 .LASF12
C:\Users\stapi\AppData\Local\Temp\ccgMkvoY.s:2927   .debug_str:00000000000005c1 .LASF13
C:\Users\stapi\AppData\Local\Temp\ccgMkvoY.s:2939   .debug_str:00000000000005fb .LASF14
C:\Users\stapi\AppData\Local\Temp\ccgMkvoY.s:2799   .debug_str:00000000000001ae .LASF15
C:\Users\stapi\AppData\Local\Temp\ccgMkvoY.s:2897   .debug_str:00000000000004a4 .LASF16
C:\Users\stapi\AppData\Local\Temp\ccgMkvoY.s:2901   .debug_str:00000000000004b6 .LASF17
C:\Users\stapi\AppData\Local\Temp\ccgMkvoY.s:2851   .debug_str:00000000000003d2 .LASF18
C:\Users\stapi\AppData\Local\Temp\ccgMkvoY.s:2889   .debug_str:0000000000000489 .LASF19
C:\Users\stapi\AppData\Local\Temp\ccgMkvoY.s:2929   .debug_str:00000000000005c8 .LASF20
C:\Users\stapi\AppData\Local\Temp\ccgMkvoY.s:2829   .debug_str:0000000000000357 .LASF21
C:\Users\stapi\AppData\Local\Temp\ccgMkvoY.s:2749   .debug_str:000000000000002a .LASF22
C:\Users\stapi\AppData\Local\Temp\ccgMkvoY.s:2909   .debug_str:00000000000004da .LASF23
C:\Users\stapi\AppData\Local\Temp\ccgMkvoY.s:2931   .debug_str:00000000000005ce .LASF24
C:\Users\stapi\AppData\Local\Temp\ccgMkvoY.s:2783   .debug_str:0000000000000161 .LASF25
C:\Users\stapi\AppData\Local\Temp\ccgMkvoY.s:2925   .debug_str:00000000000005b9 .LASF26
C:\Users\stapi\AppData\Local\Temp\ccgMkvoY.s:2865   .debug_str:000000000000040e .LASF27
C:\Users\stapi\AppData\Local\Temp\ccgMkvoY.s:2869   .debug_str:0000000000000429 .LASF28
C:\Users\stapi\AppData\Local\Temp\ccgMkvoY.s:2943   .debug_str:0000000000000609 .LASF29
C:\Users\stapi\AppData\Local\Temp\ccgMkvoY.s:2779   .debug_str:000000000000014d .LASF30
C:\Users\stapi\AppData\Local\Temp\ccgMkvoY.s:2827   .debug_str:000000000000034b .LASF31
C:\Users\stapi\AppData\Local\Temp\ccgMkvoY.s:2937   .debug_str:00000000000005f0 .LASF32
C:\Users\stapi\AppData\Local\Temp\ccgMkvoY.s:2875   .debug_str:0000000000000447 .LASF33
C:\Users\stapi\AppData\Local\Temp\ccgMkvoY.s:2797   .debug_str:00000000000001a7 .LASF34
C:\Users\stapi\AppData\Local\Temp\ccgMkvoY.s:2899   .debug_str:00000000000004ad .LASF35
C:\Users\stapi\AppData\Local\Temp\ccgMkvoY.s:2895   .debug_str:000000000000049c .LASF36
C:\Users\stapi\AppData\Local\Temp\ccgMkvoY.s:2923   .debug_str:00000000000005b0 .LASF37
C:\Users\stapi\AppData\Local\Temp\ccgMkvoY.s:2873   .debug_str:000000000000043f .LASF38
C:\Users\stapi\AppData\Local\Temp\ccgMkvoY.s:2845   .debug_str:00000000000003b9 .LASF39
C:\Users\stapi\AppData\Local\Temp\ccgMkvoY.s:2843   .debug_str:00000000000003aa .LASF40
C:\Users\stapi\AppData\Local\Temp\ccgMkvoY.s:2787   .debug_str:0000000000000176 .LASF41
C:\Users\stapi\AppData\Local\Temp\ccgMkvoY.s:2863   .debug_str:0000000000000404 .LASF42
C:\Users\stapi\AppData\Local\Temp\ccgMkvoY.s:2945   .debug_str:0000000000000618 .LASF43
C:\Users\stapi\AppData\Local\Temp\ccgMkvoY.s:2891   .debug_str:000000000000048e .LASF44
C:\Users\stapi\AppData\Local\Temp\ccgMkvoY.s:2885   .debug_str:0000000000000471 .LASF45
C:\Users\stapi\AppData\Local\Temp\ccgMkvoY.s:2859   .debug_str:00000000000003f2 .LASF46
C:\Users\stapi\AppData\Local\Temp\ccgMkvoY.s:2795   .debug_str:000000000000019e .LASF47
C:\Users\stapi\AppData\Local\Temp\ccgMkvoY.s:2789   .debug_str:000000000000017e .LASF48
C:\Users\stapi\AppData\Local\Temp\ccgMkvoY.s:2747   .debug_str:0000000000000025 .LASF55
C:\Users\stapi\AppData\Local\Temp\ccgMkvoY.s:2771   .debug_str:00000000000000a5 .LASF49
C:\Users\stapi\AppData\Local\Temp\ccgMkvoY.s:2857   .debug_str:00000000000003ea .LASF50
C:\Users\stapi\AppData\Local\Temp\ccgMkvoY.s:2855   .debug_str:00000000000003e2 .LASF51
C:\Users\stapi\AppData\Local\Temp\ccgMkvoY.s:2809   .debug_str:00000000000001e8 .LASF52
C:\Users\stapi\AppData\Local\Temp\ccgMkvoY.s:2941   .debug_str:0000000000000603 .LASF53
C:\Users\stapi\AppData\Local\Temp\ccgMkvoY.s:2757   .debug_str:0000000000000050 .LASF54
C:\Users\stapi\AppData\Local\Temp\ccgMkvoY.s:2883   .debug_str:0000000000000468 .LASF56
C:\Users\stapi\AppData\Local\Temp\ccgMkvoY.s:2793   .debug_str:0000000000000195 .LASF57
C:\Users\stapi\AppData\Local\Temp\ccgMkvoY.s:2765   .debug_str:000000000000008a .LASF58
C:\Users\stapi\AppData\Local\Temp\ccgMkvoY.s:2837   .debug_str:0000000000000382 .LASF59
C:\Users\stapi\AppData\Local\Temp\ccgMkvoY.s:2849   .debug_str:00000000000003c8 .LASF60
C:\Users\stapi\AppData\Local\Temp\ccgMkvoY.s:2881   .debug_str:0000000000000461 .LASF61
C:\Users\stapi\AppData\Local\Temp\ccgMkvoY.s:2811   .debug_str:00000000000001f6 .LASF62
C:\Users\stapi\AppData\Local\Temp\ccgMkvoY.s:2791   .debug_str:0000000000000188 .LASF63
C:\Users\stapi\AppData\Local\Temp\ccgMkvoY.s:2743   .debug_str:0000000000000007 .LASF64
C:\Users\stapi\AppData\Local\Temp\ccgMkvoY.s:2831   .debug_str:000000000000035d .LASF65
C:\Users\stapi\AppData\Local\Temp\ccgMkvoY.s:2805   .debug_str:00000000000001cf .LASF66
C:\Users\stapi\AppData\Local\Temp\ccgMkvoY.s:2767   .debug_str:000000000000008f .LASF67
C:\Users\stapi\AppData\Local\Temp\ccgMkvoY.s:2913   .debug_str:00000000000004ef .LASF68
C:\Users\stapi\AppData\Local\Temp\ccgMkvoY.s:2817   .debug_str:0000000000000214 .LASF69
C:\Users\stapi\AppData\Local\Temp\ccgMkvoY.s:2887   .debug_str:000000000000047a .LASF70
C:\Users\stapi\AppData\Local\Temp\ccgMkvoY.s:2905   .debug_str:00000000000004c3 .LASF71
C:\Users\stapi\AppData\Local\Temp\ccgMkvoY.s:2911   .debug_str:00000000000004e2 .LASF72
C:\Users\stapi\AppData\Local\Temp\ccgMkvoY.s:2841   .debug_str:0000000000000397 .LASF73
C:\Users\stapi\AppData\Local\Temp\ccgMkvoY.s:2949   .debug_str:000000000000062e .LASF74
C:\Users\stapi\AppData\Local\Temp\ccgMkvoY.s:2821   .debug_str:0000000000000230 .LASF75
C:\Users\stapi\AppData\Local\Temp\ccgMkvoY.s:2745   .debug_str:0000000000000014 .LASF76
C:\Users\stapi\AppData\Local\Temp\ccgMkvoY.s:2751   .debug_str:0000000000000031 .LASF77
C:\Users\stapi\AppData\Local\Temp\ccgMkvoY.s:2947   .debug_str:0000000000000624 .LASF78
C:\Users\stapi\AppData\Local\Temp\ccgMkvoY.s:2915   .debug_str:00000000000004fe .LASF79
C:\Users\stapi\AppData\Local\Temp\ccgMkvoY.s:2847   .debug_str:00000000000003bf .LASF80
C:\Users\stapi\AppData\Local\Temp\ccgMkvoY.s:2801   .debug_str:00000000000001b7 .LASF84
C:\Users\stapi\AppData\Local\Temp\ccgMkvoY.s:697    .text.netbuf_first:0000000000000000 .LFB12
C:\Users\stapi\AppData\Local\Temp\ccgMkvoY.s:737    .text.netbuf_first:0000000000000036 .LFE12
C:\Users\stapi\AppData\Local\Temp\ccgMkvoY.s:2297   .debug_loc:0000000000000000 .LLST13
C:\Users\stapi\AppData\Local\Temp\ccgMkvoY.s:719    .text.netbuf_first:000000000000002e .LVL70
C:\Users\stapi\AppData\Local\Temp\ccgMkvoY.s:2867   .debug_str:000000000000041d .LASF81
C:\Users\stapi\AppData\Local\Temp\ccgMkvoY.s:629    .text.netbuf_next:0000000000000000 .LFB11
C:\Users\stapi\AppData\Local\Temp\ccgMkvoY.s:686    .text.netbuf_next:0000000000000044 .LFE11
C:\Users\stapi\AppData\Local\Temp\ccgMkvoY.s:2315   .debug_loc:000000000000002c .LLST12
C:\Users\stapi\AppData\Local\Temp\ccgMkvoY.s:651    .text.netbuf_next:000000000000002e .LVL65
C:\Users\stapi\AppData\Local\Temp\ccgMkvoY.s:2933   .debug_str:00000000000005d6 .LASF82
C:\Users\stapi\AppData\Local\Temp\ccgMkvoY.s:503    .text.netbuf_data:0000000000000000 .LFB10
C:\Users\stapi\AppData\Local\Temp\ccgMkvoY.s:618    .text.netbuf_data:00000000000000a0 .LFE10
C:\Users\stapi\AppData\Local\Temp\ccgMkvoY.s:2337   .debug_loc:0000000000000063 .LLST9
C:\Users\stapi\AppData\Local\Temp\ccgMkvoY.s:2903   .debug_str:00000000000004bb .LASF83
C:\Users\stapi\AppData\Local\Temp\ccgMkvoY.s:2388   .debug_loc:00000000000000da .LLST10
C:\Users\stapi\AppData\Local\Temp\ccgMkvoY.s:2428   .debug_loc:0000000000000138 .LLST11
C:\Users\stapi\AppData\Local\Temp\ccgMkvoY.s:526    .text.netbuf_data:000000000000002e .LVL49
C:\Users\stapi\AppData\Local\Temp\ccgMkvoY.s:552    .text.netbuf_data:0000000000000056 .LVL54
C:\Users\stapi\AppData\Local\Temp\ccgMkvoY.s:578    .text.netbuf_data:000000000000007e .LVL59
C:\Users\stapi\AppData\Local\Temp\ccgMkvoY.s:2919   .debug_str:0000000000000518 .LASF85
C:\Users\stapi\AppData\Local\Temp\ccgMkvoY.s:401    .text.netbuf_chain:0000000000000000 .LFB9
C:\Users\stapi\AppData\Local\Temp\ccgMkvoY.s:486    .text.netbuf_chain:0000000000000080 .LFE9
C:\Users\stapi\AppData\Local\Temp\ccgMkvoY.s:2893   .debug_str:0000000000000497 .LASF86
C:\Users\stapi\AppData\Local\Temp\ccgMkvoY.s:2468   .debug_loc:0000000000000196 .LLST7
C:\Users\stapi\AppData\Local\Temp\ccgMkvoY.s:2807   .debug_str:00000000000001e3 .LASF87
C:\Users\stapi\AppData\Local\Temp\ccgMkvoY.s:2501   .debug_loc:00000000000001e6 .LLST8
C:\Users\stapi\AppData\Local\Temp\ccgMkvoY.s:425    .text.netbuf_chain:000000000000002e .LVL36
C:\Users\stapi\AppData\Local\Temp\ccgMkvoY.s:451    .text.netbuf_chain:0000000000000058 .LVL40
C:\Users\stapi\AppData\Local\Temp\ccgMkvoY.s:467    .text.netbuf_chain:0000000000000068 .LVL43
C:\Users\stapi\AppData\Local\Temp\ccgMkvoY.s:478    .text.netbuf_chain:0000000000000078 .LVL44
C:\Users\stapi\AppData\Local\Temp\ccgMkvoY.s:2853   .debug_str:00000000000003d7 .LASF88
C:\Users\stapi\AppData\Local\Temp\ccgMkvoY.s:293    .text.netbuf_ref:0000000000000000 .LFB8
C:\Users\stapi\AppData\Local\Temp\ccgMkvoY.s:387    .text.netbuf_ref:0000000000000078 .LFE8
C:\Users\stapi\AppData\Local\Temp\ccgMkvoY.s:2523   .debug_loc:000000000000021d .LLST4
C:\Users\stapi\AppData\Local\Temp\ccgMkvoY.s:2545   .debug_loc:0000000000000254 .LLST5
C:\Users\stapi\AppData\Local\Temp\ccgMkvoY.s:2833   .debug_str:000000000000036a .LASF89
C:\Users\stapi\AppData\Local\Temp\ccgMkvoY.s:2567   .debug_loc:000000000000028b .LLST6
C:\Users\stapi\AppData\Local\Temp\ccgMkvoY.s:319    .text.netbuf_ref:000000000000002e .LVL28
C:\Users\stapi\AppData\Local\Temp\ccgMkvoY.s:340    .text.netbuf_ref:0000000000000042 .LVL31
C:\Users\stapi\AppData\Local\Temp\ccgMkvoY.s:348    .text.netbuf_ref:0000000000000054 .LVL32
C:\Users\stapi\AppData\Local\Temp\ccgMkvoY.s:2781   .debug_str:0000000000000155 .LASF90
C:\Users\stapi\AppData\Local\Temp\ccgMkvoY.s:228    .text.netbuf_free:0000000000000000 .LFB7
C:\Users\stapi\AppData\Local\Temp\ccgMkvoY.s:282    .text.netbuf_free:000000000000004e .LFE7
C:\Users\stapi\AppData\Local\Temp\ccgMkvoY.s:2592   .debug_loc:00000000000002c5 .LLST3
C:\Users\stapi\AppData\Local\Temp\ccgMkvoY.s:250    .text.netbuf_free:000000000000002e .LVL20
C:\Users\stapi\AppData\Local\Temp\ccgMkvoY.s:269    .text.netbuf_free:000000000000003e .LVL23
C:\Users\stapi\AppData\Local\Temp\ccgMkvoY.s:2815   .debug_str:0000000000000207 .LASF91
C:\Users\stapi\AppData\Local\Temp\ccgMkvoY.s:122    .text.netbuf_alloc:0000000000000000 .LFB6
C:\Users\stapi\AppData\Local\Temp\ccgMkvoY.s:217    .text.netbuf_alloc:0000000000000090 .LFE6
C:\Users\stapi\AppData\Local\Temp\ccgMkvoY.s:2614   .debug_loc:00000000000002fc .LLST1
C:\Users\stapi\AppData\Local\Temp\ccgMkvoY.s:2636   .debug_loc:0000000000000333 .LLST2
C:\Users\stapi\AppData\Local\Temp\ccgMkvoY.s:146    .text.netbuf_alloc:000000000000002e .LVL12
C:\Users\stapi\AppData\Local\Temp\ccgMkvoY.s:166    .text.netbuf_alloc:0000000000000040 .LVL15
C:\Users\stapi\AppData\Local\Temp\ccgMkvoY.s:174    .text.netbuf_alloc:0000000000000052 .LVL16
C:\Users\stapi\AppData\Local\Temp\ccgMkvoY.s:194    .text.netbuf_alloc:0000000000000082 .LVL17
C:\Users\stapi\AppData\Local\Temp\ccgMkvoY.s:2935   .debug_str:00000000000005e2 .LASF92
C:\Users\stapi\AppData\Local\Temp\ccgMkvoY.s:54     .text.netbuf_delete:0000000000000000 .LFB5
C:\Users\stapi\AppData\Local\Temp\ccgMkvoY.s:102    .text.netbuf_delete:000000000000003c .LFE5
C:\Users\stapi\AppData\Local\Temp\ccgMkvoY.s:2661   .debug_loc:000000000000036d .LLST0
C:\Users\stapi\AppData\Local\Temp\ccgMkvoY.s:78     .text.netbuf_delete:000000000000001c .LVL5
C:\Users\stapi\AppData\Local\Temp\ccgMkvoY.s:90     .text.netbuf_delete:0000000000000030 .LVL7
C:\Users\stapi\AppData\Local\Temp\ccgMkvoY.s:2763   .debug_str:000000000000007f .LASF93
C:\Users\stapi\AppData\Local\Temp\ccgMkvoY.s:14     .text.netbuf_new:0000000000000000 .LFB4
C:\Users\stapi\AppData\Local\Temp\ccgMkvoY.s:47     .text.netbuf_new:000000000000002c .LFE4
C:\Users\stapi\AppData\Local\Temp\ccgMkvoY.s:27     .text.netbuf_new:0000000000000012 .LVL0
C:\Users\stapi\AppData\Local\Temp\ccgMkvoY.s:37     .text.netbuf_new:0000000000000022 .LVL2
C:\Users\stapi\AppData\Local\Temp\ccgMkvoY.s:2741   .debug_str:0000000000000000 .LASF94
C:\Users\stapi\AppData\Local\Temp\ccgMkvoY.s:2861   .debug_str:00000000000003fb .LASF95
C:\Users\stapi\AppData\Local\Temp\ccgMkvoY.s:2755   .debug_str:0000000000000046 .LASF96
C:\Users\stapi\AppData\Local\Temp\ccgMkvoY.s:2839   .debug_str:000000000000038d .LASF97
C:\Users\stapi\AppData\Local\Temp\ccgMkvoY.s:2917   .debug_str:000000000000050d .LASF98
C:\Users\stapi\AppData\Local\Temp\ccgMkvoY.s:2813   .debug_str:00000000000001fb .LASF99
C:\Users\stapi\AppData\Local\Temp\ccgMkvoY.s:2879   .debug_str:000000000000045a .LASF103
C:\Users\stapi\AppData\Local\Temp\ccgMkvoY.s:2759   .debug_str:0000000000000057 .LASF104
C:\Users\stapi\AppData\Local\Temp\ccgMkvoY.s:700    .text.netbuf_first:0000000000000000 .LVL68
C:\Users\stapi\AppData\Local\Temp\ccgMkvoY.s:713    .text.netbuf_first:0000000000000016 .LVL69
C:\Users\stapi\AppData\Local\Temp\ccgMkvoY.s:725    .text.netbuf_first:0000000000000030 .LVL71
C:\Users\stapi\AppData\Local\Temp\ccgMkvoY.s:632    .text.netbuf_next:0000000000000000 .LVL63
C:\Users\stapi\AppData\Local\Temp\ccgMkvoY.s:645    .text.netbuf_next:0000000000000016 .LVL64
C:\Users\stapi\AppData\Local\Temp\ccgMkvoY.s:657    .text.netbuf_next:0000000000000030 .LVL66
C:\Users\stapi\AppData\Local\Temp\ccgMkvoY.s:669    .text.netbuf_next:0000000000000036 .LVL67
C:\Users\stapi\AppData\Local\Temp\ccgMkvoY.s:506    .text.netbuf_data:0000000000000000 .LVL45
C:\Users\stapi\AppData\Local\Temp\ccgMkvoY.s:519    .text.netbuf_data:0000000000000016 .LVL47
C:\Users\stapi\AppData\Local\Temp\ccgMkvoY.s:532    .text.netbuf_data:0000000000000030 .LVL50
C:\Users\stapi\AppData\Local\Temp\ccgMkvoY.s:545    .text.netbuf_data:000000000000003e .LVL52
C:\Users\stapi\AppData\Local\Temp\ccgMkvoY.s:558    .text.netbuf_data:0000000000000058 .LVL55
C:\Users\stapi\AppData\Local\Temp\ccgMkvoY.s:571    .text.netbuf_data:0000000000000066 .LVL57
C:\Users\stapi\AppData\Local\Temp\ccgMkvoY.s:584    .text.netbuf_data:0000000000000080 .LVL60
C:\Users\stapi\AppData\Local\Temp\ccgMkvoY.s:594    .text.netbuf_data:0000000000000086 .LVL61
C:\Users\stapi\AppData\Local\Temp\ccgMkvoY.s:607    .text.netbuf_data:0000000000000090 .LVL62
C:\Users\stapi\AppData\Local\Temp\ccgMkvoY.s:517    .text.netbuf_data:0000000000000012 .LVL46
C:\Users\stapi\AppData\Local\Temp\ccgMkvoY.s:543    .text.netbuf_data:000000000000003a .LVL51
C:\Users\stapi\AppData\Local\Temp\ccgMkvoY.s:569    .text.netbuf_data:0000000000000062 .LVL56
C:\Users\stapi\AppData\Local\Temp\ccgMkvoY.s:522    .text.netbuf_data:000000000000001e .LVL48
C:\Users\stapi\AppData\Local\Temp\ccgMkvoY.s:548    .text.netbuf_data:0000000000000046 .LVL53
C:\Users\stapi\AppData\Local\Temp\ccgMkvoY.s:574    .text.netbuf_data:000000000000006e .LVL58
C:\Users\stapi\AppData\Local\Temp\ccgMkvoY.s:404    .text.netbuf_chain:0000000000000000 .LVL33
C:\Users\stapi\AppData\Local\Temp\ccgMkvoY.s:419    .text.netbuf_chain:0000000000000016 .LVL35
C:\Users\stapi\AppData\Local\Temp\ccgMkvoY.s:431    .text.netbuf_chain:0000000000000030 .LVL37
C:\Users\stapi\AppData\Local\Temp\ccgMkvoY.s:445    .text.netbuf_chain:0000000000000040 .LVL39
C:\Users\stapi\AppData\Local\Temp\ccgMkvoY.s:457    .text.netbuf_chain:000000000000005a .LVL41
C:\Users\stapi\AppData\Local\Temp\ccgMkvoY.s:465    .text.netbuf_chain:0000000000000060 .LVL42
C:\Users\stapi\AppData\Local\Temp\ccgMkvoY.s:417    .text.netbuf_chain:0000000000000012 .LVL34
C:\Users\stapi\AppData\Local\Temp\ccgMkvoY.s:439    .text.netbuf_chain:0000000000000034 .LVL38
C:\Users\stapi\AppData\Local\Temp\ccgMkvoY.s:296    .text.netbuf_ref:0000000000000000 .LVL24
C:\Users\stapi\AppData\Local\Temp\ccgMkvoY.s:312    .text.netbuf_ref:0000000000000016 .LVL26
C:\Users\stapi\AppData\Local\Temp\ccgMkvoY.s:325    .text.netbuf_ref:0000000000000030 .LVL29
C:\Users\stapi\AppData\Local\Temp\ccgMkvoY.s:330    .text.netbuf_ref:0000000000000034 .LVL30
C:\Users\stapi\AppData\Local\Temp\ccgMkvoY.s:310    .text.netbuf_ref:0000000000000012 .LVL25
C:\Users\stapi\AppData\Local\Temp\ccgMkvoY.s:315    .text.netbuf_ref:000000000000001e .LVL27
C:\Users\stapi\AppData\Local\Temp\ccgMkvoY.s:231    .text.netbuf_free:0000000000000000 .LVL18
C:\Users\stapi\AppData\Local\Temp\ccgMkvoY.s:244    .text.netbuf_free:0000000000000016 .LVL19
C:\Users\stapi\AppData\Local\Temp\ccgMkvoY.s:256    .text.netbuf_free:0000000000000030 .LVL21
C:\Users\stapi\AppData\Local\Temp\ccgMkvoY.s:264    .text.netbuf_free:0000000000000034 .LVL22
C:\Users\stapi\AppData\Local\Temp\ccgMkvoY.s:125    .text.netbuf_alloc:0000000000000000 .LVL9
C:\Users\stapi\AppData\Local\Temp\ccgMkvoY.s:140    .text.netbuf_alloc:0000000000000016 .LVL11
C:\Users\stapi\AppData\Local\Temp\ccgMkvoY.s:152    .text.netbuf_alloc:0000000000000030 .LVL13
C:\Users\stapi\AppData\Local\Temp\ccgMkvoY.s:157    .text.netbuf_alloc:0000000000000034 .LVL14
C:\Users\stapi\AppData\Local\Temp\ccgMkvoY.s:138    .text.netbuf_alloc:0000000000000012 .LVL10
C:\Users\stapi\AppData\Local\Temp\ccgMkvoY.s:57     .text.netbuf_delete:0000000000000000 .LVL3
C:\Users\stapi\AppData\Local\Temp\ccgMkvoY.s:69     .text.netbuf_delete:000000000000000e .LVL4
C:\Users\stapi\AppData\Local\Temp\ccgMkvoY.s:85     .text.netbuf_delete:0000000000000026 .LVL6
C:\Users\stapi\AppData\Local\Temp\ccgMkvoY.s:97     .text.netbuf_delete:000000000000003a .LVL8
C:\Users\stapi\AppData\Local\Temp\ccgMkvoY.s:753    .debug_info:0000000000000000 .Ldebug_info0

UNDEFINED SYMBOLS
__riscv_save_1
memp_malloc
memset
__riscv_restore_1
__riscv_save_0
pbuf_free
memp_free
__riscv_restore_0
__riscv_save_2
printf
pbuf_alloc
__riscv_restore_2
__riscv_save_3
__riscv_restore_3
pbuf_cat
