   1              		.file	"netdb.c"
   2              		.option nopic
   3              		.attribute arch, "rv32i2p0_m2p0_a2p0_f2p0_c2p0_b_p0p94"
   4              		.attribute unaligned_access, 0
   5              		.attribute stack_align, 16
   6              		.text
   7              	.Ltext0:
   8              		.cfi_sections	.debug_frame
   9              		.section	.text.lwip_gethostbyname,"ax",@progbits
  10              		.align	1
  11              		.globl	lwip_gethostbyname
  13              	lwip_gethostbyname:
  14              	.LFB4:
  15              		.file 1 "C:/Users/stapi/OneDrive/Desktop/GD32VW553/V1_MQTT_OK/GD32VW55X_Wifi_BLE_SDK/GD32VW55x_REL
   1:C:/Users/stapi/OneDrive/Desktop/GD32VW553/V1_MQTT_OK/GD32VW55X_Wifi_BLE_SDK/GD32VW55x_RELEASE_V1.0.2/MSDK/lwip/lwip-2.1.2/src/api\netdb.c **** /**
   2:C:/Users/stapi/OneDrive/Desktop/GD32VW553/V1_MQTT_OK/GD32VW55X_Wifi_BLE_SDK/GD32VW55x_RELEASE_V1.0.2/MSDK/lwip/lwip-2.1.2/src/api\netdb.c ****  * @file
   3:C:/Users/stapi/OneDrive/Desktop/GD32VW553/V1_MQTT_OK/GD32VW55X_Wifi_BLE_SDK/GD32VW55x_RELEASE_V1.0.2/MSDK/lwip/lwip-2.1.2/src/api\netdb.c ****  * API functions for name resolving
   4:C:/Users/stapi/OneDrive/Desktop/GD32VW553/V1_MQTT_OK/GD32VW55X_Wifi_BLE_SDK/GD32VW55x_RELEASE_V1.0.2/MSDK/lwip/lwip-2.1.2/src/api\netdb.c ****  *
   5:C:/Users/stapi/OneDrive/Desktop/GD32VW553/V1_MQTT_OK/GD32VW55X_Wifi_BLE_SDK/GD32VW55x_RELEASE_V1.0.2/MSDK/lwip/lwip-2.1.2/src/api\netdb.c ****  * @defgroup netdbapi NETDB API
   6:C:/Users/stapi/OneDrive/Desktop/GD32VW553/V1_MQTT_OK/GD32VW55X_Wifi_BLE_SDK/GD32VW55x_RELEASE_V1.0.2/MSDK/lwip/lwip-2.1.2/src/api\netdb.c ****  * @ingroup socket
   7:C:/Users/stapi/OneDrive/Desktop/GD32VW553/V1_MQTT_OK/GD32VW55X_Wifi_BLE_SDK/GD32VW55x_RELEASE_V1.0.2/MSDK/lwip/lwip-2.1.2/src/api\netdb.c ****  */
   8:C:/Users/stapi/OneDrive/Desktop/GD32VW553/V1_MQTT_OK/GD32VW55X_Wifi_BLE_SDK/GD32VW55x_RELEASE_V1.0.2/MSDK/lwip/lwip-2.1.2/src/api\netdb.c **** 
   9:C:/Users/stapi/OneDrive/Desktop/GD32VW553/V1_MQTT_OK/GD32VW55X_Wifi_BLE_SDK/GD32VW55x_RELEASE_V1.0.2/MSDK/lwip/lwip-2.1.2/src/api\netdb.c **** /*
  10:C:/Users/stapi/OneDrive/Desktop/GD32VW553/V1_MQTT_OK/GD32VW55X_Wifi_BLE_SDK/GD32VW55x_RELEASE_V1.0.2/MSDK/lwip/lwip-2.1.2/src/api\netdb.c ****  * Redistribution and use in source and binary forms, with or without modification,
  11:C:/Users/stapi/OneDrive/Desktop/GD32VW553/V1_MQTT_OK/GD32VW55X_Wifi_BLE_SDK/GD32VW55x_RELEASE_V1.0.2/MSDK/lwip/lwip-2.1.2/src/api\netdb.c ****  * are permitted provided that the following conditions are met:
  12:C:/Users/stapi/OneDrive/Desktop/GD32VW553/V1_MQTT_OK/GD32VW55X_Wifi_BLE_SDK/GD32VW55x_RELEASE_V1.0.2/MSDK/lwip/lwip-2.1.2/src/api\netdb.c ****  *
  13:C:/Users/stapi/OneDrive/Desktop/GD32VW553/V1_MQTT_OK/GD32VW55X_Wifi_BLE_SDK/GD32VW55x_RELEASE_V1.0.2/MSDK/lwip/lwip-2.1.2/src/api\netdb.c ****  * 1. Redistributions of source code must retain the above copyright notice,
  14:C:/Users/stapi/OneDrive/Desktop/GD32VW553/V1_MQTT_OK/GD32VW55X_Wifi_BLE_SDK/GD32VW55x_RELEASE_V1.0.2/MSDK/lwip/lwip-2.1.2/src/api\netdb.c ****  *    this list of conditions and the following disclaimer.
  15:C:/Users/stapi/OneDrive/Desktop/GD32VW553/V1_MQTT_OK/GD32VW55X_Wifi_BLE_SDK/GD32VW55x_RELEASE_V1.0.2/MSDK/lwip/lwip-2.1.2/src/api\netdb.c ****  * 2. Redistributions in binary form must reproduce the above copyright notice,
  16:C:/Users/stapi/OneDrive/Desktop/GD32VW553/V1_MQTT_OK/GD32VW55X_Wifi_BLE_SDK/GD32VW55x_RELEASE_V1.0.2/MSDK/lwip/lwip-2.1.2/src/api\netdb.c ****  *    this list of conditions and the following disclaimer in the documentation
  17:C:/Users/stapi/OneDrive/Desktop/GD32VW553/V1_MQTT_OK/GD32VW55X_Wifi_BLE_SDK/GD32VW55x_RELEASE_V1.0.2/MSDK/lwip/lwip-2.1.2/src/api\netdb.c ****  *    and/or other materials provided with the distribution.
  18:C:/Users/stapi/OneDrive/Desktop/GD32VW553/V1_MQTT_OK/GD32VW55X_Wifi_BLE_SDK/GD32VW55x_RELEASE_V1.0.2/MSDK/lwip/lwip-2.1.2/src/api\netdb.c ****  * 3. The name of the author may not be used to endorse or promote products
  19:C:/Users/stapi/OneDrive/Desktop/GD32VW553/V1_MQTT_OK/GD32VW55X_Wifi_BLE_SDK/GD32VW55x_RELEASE_V1.0.2/MSDK/lwip/lwip-2.1.2/src/api\netdb.c ****  *    derived from this software without specific prior written permission.
  20:C:/Users/stapi/OneDrive/Desktop/GD32VW553/V1_MQTT_OK/GD32VW55X_Wifi_BLE_SDK/GD32VW55x_RELEASE_V1.0.2/MSDK/lwip/lwip-2.1.2/src/api\netdb.c ****  *
  21:C:/Users/stapi/OneDrive/Desktop/GD32VW553/V1_MQTT_OK/GD32VW55X_Wifi_BLE_SDK/GD32VW55x_RELEASE_V1.0.2/MSDK/lwip/lwip-2.1.2/src/api\netdb.c ****  * THIS SOFTWARE IS PROVIDED BY THE AUTHOR ``AS IS'' AND ANY EXPRESS OR IMPLIED
  22:C:/Users/stapi/OneDrive/Desktop/GD32VW553/V1_MQTT_OK/GD32VW55X_Wifi_BLE_SDK/GD32VW55x_RELEASE_V1.0.2/MSDK/lwip/lwip-2.1.2/src/api\netdb.c ****  * WARRANTIES, INCLUDING, BUT NOT LIMITED TO, THE IMPLIED WARRANTIES OF
  23:C:/Users/stapi/OneDrive/Desktop/GD32VW553/V1_MQTT_OK/GD32VW55X_Wifi_BLE_SDK/GD32VW55x_RELEASE_V1.0.2/MSDK/lwip/lwip-2.1.2/src/api\netdb.c ****  * MERCHANTABILITY AND FITNESS FOR A PARTICULAR PURPOSE ARE DISCLAIMED. IN NO EVENT
  24:C:/Users/stapi/OneDrive/Desktop/GD32VW553/V1_MQTT_OK/GD32VW55X_Wifi_BLE_SDK/GD32VW55x_RELEASE_V1.0.2/MSDK/lwip/lwip-2.1.2/src/api\netdb.c ****  * SHALL THE AUTHOR BE LIABLE FOR ANY DIRECT, INDIRECT, INCIDENTAL, SPECIAL,
  25:C:/Users/stapi/OneDrive/Desktop/GD32VW553/V1_MQTT_OK/GD32VW55X_Wifi_BLE_SDK/GD32VW55x_RELEASE_V1.0.2/MSDK/lwip/lwip-2.1.2/src/api\netdb.c ****  * EXEMPLARY, OR CONSEQUENTIAL DAMAGES (INCLUDING, BUT NOT LIMITED TO, PROCUREMENT
  26:C:/Users/stapi/OneDrive/Desktop/GD32VW553/V1_MQTT_OK/GD32VW55X_Wifi_BLE_SDK/GD32VW55x_RELEASE_V1.0.2/MSDK/lwip/lwip-2.1.2/src/api\netdb.c ****  * OF SUBSTITUTE GOODS OR SERVICES; LOSS OF USE, DATA, OR PROFITS; OR BUSINESS
  27:C:/Users/stapi/OneDrive/Desktop/GD32VW553/V1_MQTT_OK/GD32VW55X_Wifi_BLE_SDK/GD32VW55x_RELEASE_V1.0.2/MSDK/lwip/lwip-2.1.2/src/api\netdb.c ****  * INTERRUPTION) HOWEVER CAUSED AND ON ANY THEORY OF LIABILITY, WHETHER IN
  28:C:/Users/stapi/OneDrive/Desktop/GD32VW553/V1_MQTT_OK/GD32VW55X_Wifi_BLE_SDK/GD32VW55x_RELEASE_V1.0.2/MSDK/lwip/lwip-2.1.2/src/api\netdb.c ****  * CONTRACT, STRICT LIABILITY, OR TORT (INCLUDING NEGLIGENCE OR OTHERWISE) ARISING
  29:C:/Users/stapi/OneDrive/Desktop/GD32VW553/V1_MQTT_OK/GD32VW55X_Wifi_BLE_SDK/GD32VW55x_RELEASE_V1.0.2/MSDK/lwip/lwip-2.1.2/src/api\netdb.c ****  * IN ANY WAY OUT OF THE USE OF THIS SOFTWARE, EVEN IF ADVISED OF THE POSSIBILITY
  30:C:/Users/stapi/OneDrive/Desktop/GD32VW553/V1_MQTT_OK/GD32VW55X_Wifi_BLE_SDK/GD32VW55x_RELEASE_V1.0.2/MSDK/lwip/lwip-2.1.2/src/api\netdb.c ****  * OF SUCH DAMAGE.
  31:C:/Users/stapi/OneDrive/Desktop/GD32VW553/V1_MQTT_OK/GD32VW55X_Wifi_BLE_SDK/GD32VW55x_RELEASE_V1.0.2/MSDK/lwip/lwip-2.1.2/src/api\netdb.c ****  *
  32:C:/Users/stapi/OneDrive/Desktop/GD32VW553/V1_MQTT_OK/GD32VW55X_Wifi_BLE_SDK/GD32VW55x_RELEASE_V1.0.2/MSDK/lwip/lwip-2.1.2/src/api\netdb.c ****  * This file is part of the lwIP TCP/IP stack.
  33:C:/Users/stapi/OneDrive/Desktop/GD32VW553/V1_MQTT_OK/GD32VW55X_Wifi_BLE_SDK/GD32VW55x_RELEASE_V1.0.2/MSDK/lwip/lwip-2.1.2/src/api\netdb.c ****  *
  34:C:/Users/stapi/OneDrive/Desktop/GD32VW553/V1_MQTT_OK/GD32VW55X_Wifi_BLE_SDK/GD32VW55x_RELEASE_V1.0.2/MSDK/lwip/lwip-2.1.2/src/api\netdb.c ****  * Author: Simon Goldschmidt
  35:C:/Users/stapi/OneDrive/Desktop/GD32VW553/V1_MQTT_OK/GD32VW55X_Wifi_BLE_SDK/GD32VW55x_RELEASE_V1.0.2/MSDK/lwip/lwip-2.1.2/src/api\netdb.c ****  *
  36:C:/Users/stapi/OneDrive/Desktop/GD32VW553/V1_MQTT_OK/GD32VW55X_Wifi_BLE_SDK/GD32VW55x_RELEASE_V1.0.2/MSDK/lwip/lwip-2.1.2/src/api\netdb.c ****  */
  37:C:/Users/stapi/OneDrive/Desktop/GD32VW553/V1_MQTT_OK/GD32VW55X_Wifi_BLE_SDK/GD32VW55x_RELEASE_V1.0.2/MSDK/lwip/lwip-2.1.2/src/api\netdb.c **** 
  38:C:/Users/stapi/OneDrive/Desktop/GD32VW553/V1_MQTT_OK/GD32VW55X_Wifi_BLE_SDK/GD32VW55x_RELEASE_V1.0.2/MSDK/lwip/lwip-2.1.2/src/api\netdb.c **** #include "lwip/netdb.h"
  39:C:/Users/stapi/OneDrive/Desktop/GD32VW553/V1_MQTT_OK/GD32VW55X_Wifi_BLE_SDK/GD32VW55x_RELEASE_V1.0.2/MSDK/lwip/lwip-2.1.2/src/api\netdb.c **** 
  40:C:/Users/stapi/OneDrive/Desktop/GD32VW553/V1_MQTT_OK/GD32VW55X_Wifi_BLE_SDK/GD32VW55x_RELEASE_V1.0.2/MSDK/lwip/lwip-2.1.2/src/api\netdb.c **** #if LWIP_DNS && LWIP_SOCKET
  41:C:/Users/stapi/OneDrive/Desktop/GD32VW553/V1_MQTT_OK/GD32VW55X_Wifi_BLE_SDK/GD32VW55x_RELEASE_V1.0.2/MSDK/lwip/lwip-2.1.2/src/api\netdb.c **** 
  42:C:/Users/stapi/OneDrive/Desktop/GD32VW553/V1_MQTT_OK/GD32VW55X_Wifi_BLE_SDK/GD32VW55x_RELEASE_V1.0.2/MSDK/lwip/lwip-2.1.2/src/api\netdb.c **** #include "lwip/err.h"
  43:C:/Users/stapi/OneDrive/Desktop/GD32VW553/V1_MQTT_OK/GD32VW55X_Wifi_BLE_SDK/GD32VW55x_RELEASE_V1.0.2/MSDK/lwip/lwip-2.1.2/src/api\netdb.c **** #include "lwip/mem.h"
  44:C:/Users/stapi/OneDrive/Desktop/GD32VW553/V1_MQTT_OK/GD32VW55X_Wifi_BLE_SDK/GD32VW55x_RELEASE_V1.0.2/MSDK/lwip/lwip-2.1.2/src/api\netdb.c **** #include "lwip/memp.h"
  45:C:/Users/stapi/OneDrive/Desktop/GD32VW553/V1_MQTT_OK/GD32VW55X_Wifi_BLE_SDK/GD32VW55x_RELEASE_V1.0.2/MSDK/lwip/lwip-2.1.2/src/api\netdb.c **** #include "lwip/ip_addr.h"
  46:C:/Users/stapi/OneDrive/Desktop/GD32VW553/V1_MQTT_OK/GD32VW55X_Wifi_BLE_SDK/GD32VW55x_RELEASE_V1.0.2/MSDK/lwip/lwip-2.1.2/src/api\netdb.c **** #include "lwip/api.h"
  47:C:/Users/stapi/OneDrive/Desktop/GD32VW553/V1_MQTT_OK/GD32VW55X_Wifi_BLE_SDK/GD32VW55x_RELEASE_V1.0.2/MSDK/lwip/lwip-2.1.2/src/api\netdb.c **** #include "lwip/dns.h"
  48:C:/Users/stapi/OneDrive/Desktop/GD32VW553/V1_MQTT_OK/GD32VW55X_Wifi_BLE_SDK/GD32VW55x_RELEASE_V1.0.2/MSDK/lwip/lwip-2.1.2/src/api\netdb.c **** 
  49:C:/Users/stapi/OneDrive/Desktop/GD32VW553/V1_MQTT_OK/GD32VW55X_Wifi_BLE_SDK/GD32VW55x_RELEASE_V1.0.2/MSDK/lwip/lwip-2.1.2/src/api\netdb.c **** #include <string.h> /* memset */
  50:C:/Users/stapi/OneDrive/Desktop/GD32VW553/V1_MQTT_OK/GD32VW55X_Wifi_BLE_SDK/GD32VW55x_RELEASE_V1.0.2/MSDK/lwip/lwip-2.1.2/src/api\netdb.c **** #include <stdlib.h> /* atoi */
  51:C:/Users/stapi/OneDrive/Desktop/GD32VW553/V1_MQTT_OK/GD32VW55X_Wifi_BLE_SDK/GD32VW55x_RELEASE_V1.0.2/MSDK/lwip/lwip-2.1.2/src/api\netdb.c **** 
  52:C:/Users/stapi/OneDrive/Desktop/GD32VW553/V1_MQTT_OK/GD32VW55X_Wifi_BLE_SDK/GD32VW55x_RELEASE_V1.0.2/MSDK/lwip/lwip-2.1.2/src/api\netdb.c **** /** helper struct for gethostbyname_r to access the char* buffer */
  53:C:/Users/stapi/OneDrive/Desktop/GD32VW553/V1_MQTT_OK/GD32VW55X_Wifi_BLE_SDK/GD32VW55x_RELEASE_V1.0.2/MSDK/lwip/lwip-2.1.2/src/api\netdb.c **** struct gethostbyname_r_helper {
  54:C:/Users/stapi/OneDrive/Desktop/GD32VW553/V1_MQTT_OK/GD32VW55X_Wifi_BLE_SDK/GD32VW55x_RELEASE_V1.0.2/MSDK/lwip/lwip-2.1.2/src/api\netdb.c ****   ip_addr_t *addr_list[2];
  55:C:/Users/stapi/OneDrive/Desktop/GD32VW553/V1_MQTT_OK/GD32VW55X_Wifi_BLE_SDK/GD32VW55x_RELEASE_V1.0.2/MSDK/lwip/lwip-2.1.2/src/api\netdb.c ****   ip_addr_t addr;
  56:C:/Users/stapi/OneDrive/Desktop/GD32VW553/V1_MQTT_OK/GD32VW55X_Wifi_BLE_SDK/GD32VW55x_RELEASE_V1.0.2/MSDK/lwip/lwip-2.1.2/src/api\netdb.c ****   char *aliases;
  57:C:/Users/stapi/OneDrive/Desktop/GD32VW553/V1_MQTT_OK/GD32VW55X_Wifi_BLE_SDK/GD32VW55x_RELEASE_V1.0.2/MSDK/lwip/lwip-2.1.2/src/api\netdb.c **** };
  58:C:/Users/stapi/OneDrive/Desktop/GD32VW553/V1_MQTT_OK/GD32VW55X_Wifi_BLE_SDK/GD32VW55x_RELEASE_V1.0.2/MSDK/lwip/lwip-2.1.2/src/api\netdb.c **** 
  59:C:/Users/stapi/OneDrive/Desktop/GD32VW553/V1_MQTT_OK/GD32VW55X_Wifi_BLE_SDK/GD32VW55x_RELEASE_V1.0.2/MSDK/lwip/lwip-2.1.2/src/api\netdb.c **** /** h_errno is exported in netdb.h for access by applications. */
  60:C:/Users/stapi/OneDrive/Desktop/GD32VW553/V1_MQTT_OK/GD32VW55X_Wifi_BLE_SDK/GD32VW55x_RELEASE_V1.0.2/MSDK/lwip/lwip-2.1.2/src/api\netdb.c **** #if LWIP_DNS_API_DECLARE_H_ERRNO
  61:C:/Users/stapi/OneDrive/Desktop/GD32VW553/V1_MQTT_OK/GD32VW55X_Wifi_BLE_SDK/GD32VW55x_RELEASE_V1.0.2/MSDK/lwip/lwip-2.1.2/src/api\netdb.c **** int h_errno;
  62:C:/Users/stapi/OneDrive/Desktop/GD32VW553/V1_MQTT_OK/GD32VW55X_Wifi_BLE_SDK/GD32VW55x_RELEASE_V1.0.2/MSDK/lwip/lwip-2.1.2/src/api\netdb.c **** #endif /* LWIP_DNS_API_DECLARE_H_ERRNO */
  63:C:/Users/stapi/OneDrive/Desktop/GD32VW553/V1_MQTT_OK/GD32VW55X_Wifi_BLE_SDK/GD32VW55x_RELEASE_V1.0.2/MSDK/lwip/lwip-2.1.2/src/api\netdb.c **** 
  64:C:/Users/stapi/OneDrive/Desktop/GD32VW553/V1_MQTT_OK/GD32VW55X_Wifi_BLE_SDK/GD32VW55x_RELEASE_V1.0.2/MSDK/lwip/lwip-2.1.2/src/api\netdb.c **** /** define "hostent" variables storage: 0 if we use a static (but unprotected)
  65:C:/Users/stapi/OneDrive/Desktop/GD32VW553/V1_MQTT_OK/GD32VW55X_Wifi_BLE_SDK/GD32VW55x_RELEASE_V1.0.2/MSDK/lwip/lwip-2.1.2/src/api\netdb.c ****  * set of variables for lwip_gethostbyname, 1 if we use a local storage */
  66:C:/Users/stapi/OneDrive/Desktop/GD32VW553/V1_MQTT_OK/GD32VW55X_Wifi_BLE_SDK/GD32VW55x_RELEASE_V1.0.2/MSDK/lwip/lwip-2.1.2/src/api\netdb.c **** #ifndef LWIP_DNS_API_HOSTENT_STORAGE
  67:C:/Users/stapi/OneDrive/Desktop/GD32VW553/V1_MQTT_OK/GD32VW55X_Wifi_BLE_SDK/GD32VW55x_RELEASE_V1.0.2/MSDK/lwip/lwip-2.1.2/src/api\netdb.c **** #define LWIP_DNS_API_HOSTENT_STORAGE 0
  68:C:/Users/stapi/OneDrive/Desktop/GD32VW553/V1_MQTT_OK/GD32VW55X_Wifi_BLE_SDK/GD32VW55x_RELEASE_V1.0.2/MSDK/lwip/lwip-2.1.2/src/api\netdb.c **** #endif
  69:C:/Users/stapi/OneDrive/Desktop/GD32VW553/V1_MQTT_OK/GD32VW55X_Wifi_BLE_SDK/GD32VW55x_RELEASE_V1.0.2/MSDK/lwip/lwip-2.1.2/src/api\netdb.c **** 
  70:C:/Users/stapi/OneDrive/Desktop/GD32VW553/V1_MQTT_OK/GD32VW55X_Wifi_BLE_SDK/GD32VW55x_RELEASE_V1.0.2/MSDK/lwip/lwip-2.1.2/src/api\netdb.c **** /** define "hostent" variables storage */
  71:C:/Users/stapi/OneDrive/Desktop/GD32VW553/V1_MQTT_OK/GD32VW55X_Wifi_BLE_SDK/GD32VW55x_RELEASE_V1.0.2/MSDK/lwip/lwip-2.1.2/src/api\netdb.c **** #if LWIP_DNS_API_HOSTENT_STORAGE
  72:C:/Users/stapi/OneDrive/Desktop/GD32VW553/V1_MQTT_OK/GD32VW55X_Wifi_BLE_SDK/GD32VW55x_RELEASE_V1.0.2/MSDK/lwip/lwip-2.1.2/src/api\netdb.c **** #define HOSTENT_STORAGE
  73:C:/Users/stapi/OneDrive/Desktop/GD32VW553/V1_MQTT_OK/GD32VW55X_Wifi_BLE_SDK/GD32VW55x_RELEASE_V1.0.2/MSDK/lwip/lwip-2.1.2/src/api\netdb.c **** #else
  74:C:/Users/stapi/OneDrive/Desktop/GD32VW553/V1_MQTT_OK/GD32VW55X_Wifi_BLE_SDK/GD32VW55x_RELEASE_V1.0.2/MSDK/lwip/lwip-2.1.2/src/api\netdb.c **** #define HOSTENT_STORAGE static
  75:C:/Users/stapi/OneDrive/Desktop/GD32VW553/V1_MQTT_OK/GD32VW55X_Wifi_BLE_SDK/GD32VW55x_RELEASE_V1.0.2/MSDK/lwip/lwip-2.1.2/src/api\netdb.c **** #endif /* LWIP_DNS_API_STATIC_HOSTENT */
  76:C:/Users/stapi/OneDrive/Desktop/GD32VW553/V1_MQTT_OK/GD32VW55X_Wifi_BLE_SDK/GD32VW55x_RELEASE_V1.0.2/MSDK/lwip/lwip-2.1.2/src/api\netdb.c **** 
  77:C:/Users/stapi/OneDrive/Desktop/GD32VW553/V1_MQTT_OK/GD32VW55X_Wifi_BLE_SDK/GD32VW55x_RELEASE_V1.0.2/MSDK/lwip/lwip-2.1.2/src/api\netdb.c **** /**
  78:C:/Users/stapi/OneDrive/Desktop/GD32VW553/V1_MQTT_OK/GD32VW55X_Wifi_BLE_SDK/GD32VW55x_RELEASE_V1.0.2/MSDK/lwip/lwip-2.1.2/src/api\netdb.c ****  * Returns an entry containing addresses of address family AF_INET
  79:C:/Users/stapi/OneDrive/Desktop/GD32VW553/V1_MQTT_OK/GD32VW55X_Wifi_BLE_SDK/GD32VW55x_RELEASE_V1.0.2/MSDK/lwip/lwip-2.1.2/src/api\netdb.c ****  * for the host with name name.
  80:C:/Users/stapi/OneDrive/Desktop/GD32VW553/V1_MQTT_OK/GD32VW55X_Wifi_BLE_SDK/GD32VW55x_RELEASE_V1.0.2/MSDK/lwip/lwip-2.1.2/src/api\netdb.c ****  * Due to dns_gethostbyname limitations, only one address is returned.
  81:C:/Users/stapi/OneDrive/Desktop/GD32VW553/V1_MQTT_OK/GD32VW55X_Wifi_BLE_SDK/GD32VW55x_RELEASE_V1.0.2/MSDK/lwip/lwip-2.1.2/src/api\netdb.c ****  *
  82:C:/Users/stapi/OneDrive/Desktop/GD32VW553/V1_MQTT_OK/GD32VW55X_Wifi_BLE_SDK/GD32VW55x_RELEASE_V1.0.2/MSDK/lwip/lwip-2.1.2/src/api\netdb.c ****  * @param name the hostname to resolve
  83:C:/Users/stapi/OneDrive/Desktop/GD32VW553/V1_MQTT_OK/GD32VW55X_Wifi_BLE_SDK/GD32VW55x_RELEASE_V1.0.2/MSDK/lwip/lwip-2.1.2/src/api\netdb.c ****  * @return an entry containing addresses of address family AF_INET
  84:C:/Users/stapi/OneDrive/Desktop/GD32VW553/V1_MQTT_OK/GD32VW55X_Wifi_BLE_SDK/GD32VW55x_RELEASE_V1.0.2/MSDK/lwip/lwip-2.1.2/src/api\netdb.c ****  *         for the host with name name
  85:C:/Users/stapi/OneDrive/Desktop/GD32VW553/V1_MQTT_OK/GD32VW55X_Wifi_BLE_SDK/GD32VW55x_RELEASE_V1.0.2/MSDK/lwip/lwip-2.1.2/src/api\netdb.c ****  */
  86:C:/Users/stapi/OneDrive/Desktop/GD32VW553/V1_MQTT_OK/GD32VW55X_Wifi_BLE_SDK/GD32VW55x_RELEASE_V1.0.2/MSDK/lwip/lwip-2.1.2/src/api\netdb.c **** struct hostent *
  87:C:/Users/stapi/OneDrive/Desktop/GD32VW553/V1_MQTT_OK/GD32VW55X_Wifi_BLE_SDK/GD32VW55x_RELEASE_V1.0.2/MSDK/lwip/lwip-2.1.2/src/api\netdb.c **** lwip_gethostbyname(const char *name)
  88:C:/Users/stapi/OneDrive/Desktop/GD32VW553/V1_MQTT_OK/GD32VW55X_Wifi_BLE_SDK/GD32VW55x_RELEASE_V1.0.2/MSDK/lwip/lwip-2.1.2/src/api\netdb.c **** {
  16              		.loc 1 88 1
  17              		.cfi_startproc
  18              	.LVL0:
  19 0000 17030000 		call	t0,__riscv_save_3
  19      E7020300 
  20              		.cfi_offset 18, -16
  21              		.cfi_offset 9, -12
  22              		.cfi_offset 8, -8
  23              		.cfi_offset 1, -4
  24              		.cfi_def_cfa_offset 16
  89:C:/Users/stapi/OneDrive/Desktop/GD32VW553/V1_MQTT_OK/GD32VW55X_Wifi_BLE_SDK/GD32VW55x_RELEASE_V1.0.2/MSDK/lwip/lwip-2.1.2/src/api\netdb.c ****   err_t err;
  25              		.loc 1 89 3
  90:C:/Users/stapi/OneDrive/Desktop/GD32VW553/V1_MQTT_OK/GD32VW55X_Wifi_BLE_SDK/GD32VW55x_RELEASE_V1.0.2/MSDK/lwip/lwip-2.1.2/src/api\netdb.c ****   ip_addr_t addr;
  26              		.loc 1 90 3
  91:C:/Users/stapi/OneDrive/Desktop/GD32VW553/V1_MQTT_OK/GD32VW55X_Wifi_BLE_SDK/GD32VW55x_RELEASE_V1.0.2/MSDK/lwip/lwip-2.1.2/src/api\netdb.c **** 
  92:C:/Users/stapi/OneDrive/Desktop/GD32VW553/V1_MQTT_OK/GD32VW55X_Wifi_BLE_SDK/GD32VW55x_RELEASE_V1.0.2/MSDK/lwip/lwip-2.1.2/src/api\netdb.c ****   /* buffer variables for lwip_gethostbyname() */
  93:C:/Users/stapi/OneDrive/Desktop/GD32VW553/V1_MQTT_OK/GD32VW55X_Wifi_BLE_SDK/GD32VW55x_RELEASE_V1.0.2/MSDK/lwip/lwip-2.1.2/src/api\netdb.c ****   HOSTENT_STORAGE struct hostent s_hostent;
  27              		.loc 1 93 3
  94:C:/Users/stapi/OneDrive/Desktop/GD32VW553/V1_MQTT_OK/GD32VW55X_Wifi_BLE_SDK/GD32VW55x_RELEASE_V1.0.2/MSDK/lwip/lwip-2.1.2/src/api\netdb.c ****   HOSTENT_STORAGE char *s_aliases;
  28              		.loc 1 94 3
  95:C:/Users/stapi/OneDrive/Desktop/GD32VW553/V1_MQTT_OK/GD32VW55X_Wifi_BLE_SDK/GD32VW55x_RELEASE_V1.0.2/MSDK/lwip/lwip-2.1.2/src/api\netdb.c ****   HOSTENT_STORAGE ip_addr_t s_hostent_addr;
  29              		.loc 1 95 3
  96:C:/Users/stapi/OneDrive/Desktop/GD32VW553/V1_MQTT_OK/GD32VW55X_Wifi_BLE_SDK/GD32VW55x_RELEASE_V1.0.2/MSDK/lwip/lwip-2.1.2/src/api\netdb.c ****   HOSTENT_STORAGE ip_addr_t *s_phostent_addr[2];
  30              		.loc 1 96 3
  97:C:/Users/stapi/OneDrive/Desktop/GD32VW553/V1_MQTT_OK/GD32VW55X_Wifi_BLE_SDK/GD32VW55x_RELEASE_V1.0.2/MSDK/lwip/lwip-2.1.2/src/api\netdb.c ****   HOSTENT_STORAGE char s_hostname[DNS_MAX_NAME_LENGTH + 1];
  31              		.loc 1 97 3
  98:C:/Users/stapi/OneDrive/Desktop/GD32VW553/V1_MQTT_OK/GD32VW55X_Wifi_BLE_SDK/GD32VW55x_RELEASE_V1.0.2/MSDK/lwip/lwip-2.1.2/src/api\netdb.c **** 
  99:C:/Users/stapi/OneDrive/Desktop/GD32VW553/V1_MQTT_OK/GD32VW55X_Wifi_BLE_SDK/GD32VW55x_RELEASE_V1.0.2/MSDK/lwip/lwip-2.1.2/src/api\netdb.c ****   /* query host IP address */
 100:C:/Users/stapi/OneDrive/Desktop/GD32VW553/V1_MQTT_OK/GD32VW55X_Wifi_BLE_SDK/GD32VW55x_RELEASE_V1.0.2/MSDK/lwip/lwip-2.1.2/src/api\netdb.c ****   err = netconn_gethostbyname(name, &addr);
  32              		.loc 1 100 3
  88:C:/Users/stapi/OneDrive/Desktop/GD32VW553/V1_MQTT_OK/GD32VW55X_Wifi_BLE_SDK/GD32VW55x_RELEASE_V1.0.2/MSDK/lwip/lwip-2.1.2/src/api\netdb.c ****   err_t err;
  33              		.loc 1 88 1 is_stmt 0
  34 0008 4111     		addi	sp,sp,-16
  35              		.cfi_def_cfa_offset 32
  36              		.loc 1 100 9
  37 000a 6C00     		addi	a1,sp,12
  88:C:/Users/stapi/OneDrive/Desktop/GD32VW553/V1_MQTT_OK/GD32VW55X_Wifi_BLE_SDK/GD32VW55x_RELEASE_V1.0.2/MSDK/lwip/lwip-2.1.2/src/api\netdb.c ****   err_t err;
  38              		.loc 1 88 1
  39 000c AA84     		mv	s1,a0
  40              		.loc 1 100 9
  41 000e 97000000 		call	netconn_gethostbyname
  41      E7800000 
  42              	.LVL1:
 101:C:/Users/stapi/OneDrive/Desktop/GD32VW553/V1_MQTT_OK/GD32VW55X_Wifi_BLE_SDK/GD32VW55x_RELEASE_V1.0.2/MSDK/lwip/lwip-2.1.2/src/api\netdb.c ****   if (err != ERR_OK) {
  43              		.loc 1 101 3 is_stmt 1
  44              		.loc 1 101 6 is_stmt 0
  45 0016 09CD     		beq	a0,zero,.L2
 102:C:/Users/stapi/OneDrive/Desktop/GD32VW553/V1_MQTT_OK/GD32VW55X_Wifi_BLE_SDK/GD32VW55x_RELEASE_V1.0.2/MSDK/lwip/lwip-2.1.2/src/api\netdb.c ****     LWIP_DEBUGF(DNS_DEBUG, ("lwip_gethostbyname(%s) failed, err=%d\n", name, err));
  46              		.loc 1 102 83 is_stmt 1
 103:C:/Users/stapi/OneDrive/Desktop/GD32VW553/V1_MQTT_OK/GD32VW55X_Wifi_BLE_SDK/GD32VW55x_RELEASE_V1.0.2/MSDK/lwip/lwip-2.1.2/src/api\netdb.c ****     h_errno = HOST_NOT_FOUND;
  47              		.loc 1 103 5
  48              		.loc 1 103 13 is_stmt 0
  49 0018 B7070000 		lui	a5,%hi(.LANCHOR1)
  50 001c 1307200D 		li	a4,210
  51 0020 23A0E700 		sw	a4,%lo(.LANCHOR1)(a5)
 104:C:/Users/stapi/OneDrive/Desktop/GD32VW553/V1_MQTT_OK/GD32VW55X_Wifi_BLE_SDK/GD32VW55x_RELEASE_V1.0.2/MSDK/lwip/lwip-2.1.2/src/api\netdb.c ****     return NULL;
  52              		.loc 1 104 5 is_stmt 1
  53              		.loc 1 104 12 is_stmt 0
  54 0024 0145     		li	a0,0
  55              	.LVL2:
  56              	.L1:
 105:C:/Users/stapi/OneDrive/Desktop/GD32VW553/V1_MQTT_OK/GD32VW55X_Wifi_BLE_SDK/GD32VW55x_RELEASE_V1.0.2/MSDK/lwip/lwip-2.1.2/src/api\netdb.c ****   }
 106:C:/Users/stapi/OneDrive/Desktop/GD32VW553/V1_MQTT_OK/GD32VW55X_Wifi_BLE_SDK/GD32VW55x_RELEASE_V1.0.2/MSDK/lwip/lwip-2.1.2/src/api\netdb.c **** 
 107:C:/Users/stapi/OneDrive/Desktop/GD32VW553/V1_MQTT_OK/GD32VW55X_Wifi_BLE_SDK/GD32VW55x_RELEASE_V1.0.2/MSDK/lwip/lwip-2.1.2/src/api\netdb.c ****   /* fill hostent */
 108:C:/Users/stapi/OneDrive/Desktop/GD32VW553/V1_MQTT_OK/GD32VW55X_Wifi_BLE_SDK/GD32VW55x_RELEASE_V1.0.2/MSDK/lwip/lwip-2.1.2/src/api\netdb.c ****   s_hostent_addr = addr;
 109:C:/Users/stapi/OneDrive/Desktop/GD32VW553/V1_MQTT_OK/GD32VW55X_Wifi_BLE_SDK/GD32VW55x_RELEASE_V1.0.2/MSDK/lwip/lwip-2.1.2/src/api\netdb.c ****   s_phostent_addr[0] = &s_hostent_addr;
 110:C:/Users/stapi/OneDrive/Desktop/GD32VW553/V1_MQTT_OK/GD32VW55X_Wifi_BLE_SDK/GD32VW55x_RELEASE_V1.0.2/MSDK/lwip/lwip-2.1.2/src/api\netdb.c ****   s_phostent_addr[1] = NULL;
 111:C:/Users/stapi/OneDrive/Desktop/GD32VW553/V1_MQTT_OK/GD32VW55X_Wifi_BLE_SDK/GD32VW55x_RELEASE_V1.0.2/MSDK/lwip/lwip-2.1.2/src/api\netdb.c ****   strncpy(s_hostname, name, DNS_MAX_NAME_LENGTH);
 112:C:/Users/stapi/OneDrive/Desktop/GD32VW553/V1_MQTT_OK/GD32VW55X_Wifi_BLE_SDK/GD32VW55x_RELEASE_V1.0.2/MSDK/lwip/lwip-2.1.2/src/api\netdb.c ****   s_hostname[DNS_MAX_NAME_LENGTH] = 0;
 113:C:/Users/stapi/OneDrive/Desktop/GD32VW553/V1_MQTT_OK/GD32VW55X_Wifi_BLE_SDK/GD32VW55x_RELEASE_V1.0.2/MSDK/lwip/lwip-2.1.2/src/api\netdb.c ****   s_hostent.h_name = s_hostname;
 114:C:/Users/stapi/OneDrive/Desktop/GD32VW553/V1_MQTT_OK/GD32VW55X_Wifi_BLE_SDK/GD32VW55x_RELEASE_V1.0.2/MSDK/lwip/lwip-2.1.2/src/api\netdb.c ****   s_aliases = NULL;
 115:C:/Users/stapi/OneDrive/Desktop/GD32VW553/V1_MQTT_OK/GD32VW55X_Wifi_BLE_SDK/GD32VW55x_RELEASE_V1.0.2/MSDK/lwip/lwip-2.1.2/src/api\netdb.c ****   s_hostent.h_aliases = &s_aliases;
 116:C:/Users/stapi/OneDrive/Desktop/GD32VW553/V1_MQTT_OK/GD32VW55X_Wifi_BLE_SDK/GD32VW55x_RELEASE_V1.0.2/MSDK/lwip/lwip-2.1.2/src/api\netdb.c ****   s_hostent.h_addrtype = AF_INET;
 117:C:/Users/stapi/OneDrive/Desktop/GD32VW553/V1_MQTT_OK/GD32VW55X_Wifi_BLE_SDK/GD32VW55x_RELEASE_V1.0.2/MSDK/lwip/lwip-2.1.2/src/api\netdb.c ****   s_hostent.h_length = sizeof(ip_addr_t);
 118:C:/Users/stapi/OneDrive/Desktop/GD32VW553/V1_MQTT_OK/GD32VW55X_Wifi_BLE_SDK/GD32VW55x_RELEASE_V1.0.2/MSDK/lwip/lwip-2.1.2/src/api\netdb.c ****   s_hostent.h_addr_list = (char **)&s_phostent_addr;
 119:C:/Users/stapi/OneDrive/Desktop/GD32VW553/V1_MQTT_OK/GD32VW55X_Wifi_BLE_SDK/GD32VW55x_RELEASE_V1.0.2/MSDK/lwip/lwip-2.1.2/src/api\netdb.c **** 
 120:C:/Users/stapi/OneDrive/Desktop/GD32VW553/V1_MQTT_OK/GD32VW55X_Wifi_BLE_SDK/GD32VW55x_RELEASE_V1.0.2/MSDK/lwip/lwip-2.1.2/src/api\netdb.c **** #if DNS_DEBUG
 121:C:/Users/stapi/OneDrive/Desktop/GD32VW553/V1_MQTT_OK/GD32VW55X_Wifi_BLE_SDK/GD32VW55x_RELEASE_V1.0.2/MSDK/lwip/lwip-2.1.2/src/api\netdb.c ****   /* dump hostent */
 122:C:/Users/stapi/OneDrive/Desktop/GD32VW553/V1_MQTT_OK/GD32VW55X_Wifi_BLE_SDK/GD32VW55x_RELEASE_V1.0.2/MSDK/lwip/lwip-2.1.2/src/api\netdb.c ****   LWIP_DEBUGF(DNS_DEBUG, ("hostent.h_name           == %s\n", s_hostent.h_name));
 123:C:/Users/stapi/OneDrive/Desktop/GD32VW553/V1_MQTT_OK/GD32VW55X_Wifi_BLE_SDK/GD32VW55x_RELEASE_V1.0.2/MSDK/lwip/lwip-2.1.2/src/api\netdb.c ****   LWIP_DEBUGF(DNS_DEBUG, ("hostent.h_aliases        == %p\n", (void *)s_hostent.h_aliases));
 124:C:/Users/stapi/OneDrive/Desktop/GD32VW553/V1_MQTT_OK/GD32VW55X_Wifi_BLE_SDK/GD32VW55x_RELEASE_V1.0.2/MSDK/lwip/lwip-2.1.2/src/api\netdb.c ****   /* h_aliases are always empty */
 125:C:/Users/stapi/OneDrive/Desktop/GD32VW553/V1_MQTT_OK/GD32VW55X_Wifi_BLE_SDK/GD32VW55x_RELEASE_V1.0.2/MSDK/lwip/lwip-2.1.2/src/api\netdb.c ****   LWIP_DEBUGF(DNS_DEBUG, ("hostent.h_addrtype       == %d\n", s_hostent.h_addrtype));
 126:C:/Users/stapi/OneDrive/Desktop/GD32VW553/V1_MQTT_OK/GD32VW55X_Wifi_BLE_SDK/GD32VW55x_RELEASE_V1.0.2/MSDK/lwip/lwip-2.1.2/src/api\netdb.c ****   LWIP_DEBUGF(DNS_DEBUG, ("hostent.h_length         == %d\n", s_hostent.h_length));
 127:C:/Users/stapi/OneDrive/Desktop/GD32VW553/V1_MQTT_OK/GD32VW55X_Wifi_BLE_SDK/GD32VW55x_RELEASE_V1.0.2/MSDK/lwip/lwip-2.1.2/src/api\netdb.c ****   LWIP_DEBUGF(DNS_DEBUG, ("hostent.h_addr_list      == %p\n", (void *)s_hostent.h_addr_list));
 128:C:/Users/stapi/OneDrive/Desktop/GD32VW553/V1_MQTT_OK/GD32VW55X_Wifi_BLE_SDK/GD32VW55x_RELEASE_V1.0.2/MSDK/lwip/lwip-2.1.2/src/api\netdb.c ****   if (s_hostent.h_addr_list != NULL) {
 129:C:/Users/stapi/OneDrive/Desktop/GD32VW553/V1_MQTT_OK/GD32VW55X_Wifi_BLE_SDK/GD32VW55x_RELEASE_V1.0.2/MSDK/lwip/lwip-2.1.2/src/api\netdb.c ****     u8_t idx;
 130:C:/Users/stapi/OneDrive/Desktop/GD32VW553/V1_MQTT_OK/GD32VW55X_Wifi_BLE_SDK/GD32VW55x_RELEASE_V1.0.2/MSDK/lwip/lwip-2.1.2/src/api\netdb.c ****     for (idx = 0; s_hostent.h_addr_list[idx]; idx++) {
 131:C:/Users/stapi/OneDrive/Desktop/GD32VW553/V1_MQTT_OK/GD32VW55X_Wifi_BLE_SDK/GD32VW55x_RELEASE_V1.0.2/MSDK/lwip/lwip-2.1.2/src/api\netdb.c ****       LWIP_DEBUGF(DNS_DEBUG, ("hostent.h_addr_list[%i]   == %p\n", idx, s_hostent.h_addr_list[idx])
 132:C:/Users/stapi/OneDrive/Desktop/GD32VW553/V1_MQTT_OK/GD32VW55X_Wifi_BLE_SDK/GD32VW55x_RELEASE_V1.0.2/MSDK/lwip/lwip-2.1.2/src/api\netdb.c ****       LWIP_DEBUGF(DNS_DEBUG, ("hostent.h_addr_list[%i]-> == %s\n", idx, ipaddr_ntoa((ip_addr_t *)s_
 133:C:/Users/stapi/OneDrive/Desktop/GD32VW553/V1_MQTT_OK/GD32VW55X_Wifi_BLE_SDK/GD32VW55x_RELEASE_V1.0.2/MSDK/lwip/lwip-2.1.2/src/api\netdb.c ****     }
 134:C:/Users/stapi/OneDrive/Desktop/GD32VW553/V1_MQTT_OK/GD32VW55X_Wifi_BLE_SDK/GD32VW55x_RELEASE_V1.0.2/MSDK/lwip/lwip-2.1.2/src/api\netdb.c ****   }
 135:C:/Users/stapi/OneDrive/Desktop/GD32VW553/V1_MQTT_OK/GD32VW55X_Wifi_BLE_SDK/GD32VW55x_RELEASE_V1.0.2/MSDK/lwip/lwip-2.1.2/src/api\netdb.c **** #endif /* DNS_DEBUG */
 136:C:/Users/stapi/OneDrive/Desktop/GD32VW553/V1_MQTT_OK/GD32VW55X_Wifi_BLE_SDK/GD32VW55x_RELEASE_V1.0.2/MSDK/lwip/lwip-2.1.2/src/api\netdb.c **** 
 137:C:/Users/stapi/OneDrive/Desktop/GD32VW553/V1_MQTT_OK/GD32VW55X_Wifi_BLE_SDK/GD32VW55x_RELEASE_V1.0.2/MSDK/lwip/lwip-2.1.2/src/api\netdb.c **** #if LWIP_DNS_API_HOSTENT_STORAGE
 138:C:/Users/stapi/OneDrive/Desktop/GD32VW553/V1_MQTT_OK/GD32VW55X_Wifi_BLE_SDK/GD32VW55x_RELEASE_V1.0.2/MSDK/lwip/lwip-2.1.2/src/api\netdb.c ****   /* this function should return the "per-thread" hostent after copy from s_hostent */
 139:C:/Users/stapi/OneDrive/Desktop/GD32VW553/V1_MQTT_OK/GD32VW55X_Wifi_BLE_SDK/GD32VW55x_RELEASE_V1.0.2/MSDK/lwip/lwip-2.1.2/src/api\netdb.c ****   return sys_thread_hostent(&s_hostent);
 140:C:/Users/stapi/OneDrive/Desktop/GD32VW553/V1_MQTT_OK/GD32VW55X_Wifi_BLE_SDK/GD32VW55x_RELEASE_V1.0.2/MSDK/lwip/lwip-2.1.2/src/api\netdb.c **** #else
 141:C:/Users/stapi/OneDrive/Desktop/GD32VW553/V1_MQTT_OK/GD32VW55X_Wifi_BLE_SDK/GD32VW55x_RELEASE_V1.0.2/MSDK/lwip/lwip-2.1.2/src/api\netdb.c ****   return &s_hostent;
 142:C:/Users/stapi/OneDrive/Desktop/GD32VW553/V1_MQTT_OK/GD32VW55X_Wifi_BLE_SDK/GD32VW55x_RELEASE_V1.0.2/MSDK/lwip/lwip-2.1.2/src/api\netdb.c **** #endif /* LWIP_DNS_API_HOSTENT_STORAGE */
 143:C:/Users/stapi/OneDrive/Desktop/GD32VW553/V1_MQTT_OK/GD32VW55X_Wifi_BLE_SDK/GD32VW55x_RELEASE_V1.0.2/MSDK/lwip/lwip-2.1.2/src/api\netdb.c **** }
  57              		.loc 1 143 1
  58 0026 4101     		addi	sp,sp,16
  59              		.cfi_remember_state
  60              		.cfi_def_cfa_offset 0
  61 0028 17030000 		tail	__riscv_restore_3
  61      67000300 
  62              		.cfi_restore 18
  63              		.cfi_restore 9
  64              		.cfi_restore 8
  65              		.cfi_restore 1
  66              		.cfi_def_cfa_offset -16
  67              	.LVL3:
  68              	.L2:
  69              		.cfi_restore_state
 108:C:/Users/stapi/OneDrive/Desktop/GD32VW553/V1_MQTT_OK/GD32VW55X_Wifi_BLE_SDK/GD32VW55x_RELEASE_V1.0.2/MSDK/lwip/lwip-2.1.2/src/api\netdb.c ****   s_phostent_addr[0] = &s_hostent_addr;
  70              		.loc 1 108 3 is_stmt 1
 108:C:/Users/stapi/OneDrive/Desktop/GD32VW553/V1_MQTT_OK/GD32VW55X_Wifi_BLE_SDK/GD32VW55x_RELEASE_V1.0.2/MSDK/lwip/lwip-2.1.2/src/api\netdb.c ****   s_phostent_addr[0] = &s_hostent_addr;
  71              		.loc 1 108 18 is_stmt 0
  72 0030 3247     		lw	a4,12(sp)
 111:C:/Users/stapi/OneDrive/Desktop/GD32VW553/V1_MQTT_OK/GD32VW55X_Wifi_BLE_SDK/GD32VW55x_RELEASE_V1.0.2/MSDK/lwip/lwip-2.1.2/src/api\netdb.c ****   s_hostname[DNS_MAX_NAME_LENGTH] = 0;
  73              		.loc 1 111 3
  74 0032 37050000 		lui	a0,%hi(.LANCHOR4)
  75              	.LVL4:
 108:C:/Users/stapi/OneDrive/Desktop/GD32VW553/V1_MQTT_OK/GD32VW55X_Wifi_BLE_SDK/GD32VW55x_RELEASE_V1.0.2/MSDK/lwip/lwip-2.1.2/src/api\netdb.c ****   s_phostent_addr[0] = &s_hostent_addr;
  76              		.loc 1 108 18
  77 0036 B7070000 		lui	a5,%hi(.LANCHOR2)
 109:C:/Users/stapi/OneDrive/Desktop/GD32VW553/V1_MQTT_OK/GD32VW55X_Wifi_BLE_SDK/GD32VW55x_RELEASE_V1.0.2/MSDK/lwip/lwip-2.1.2/src/api\netdb.c ****   s_phostent_addr[1] = NULL;
  78              		.loc 1 109 22
  79 003a 37040000 		lui	s0,%hi(.LANCHOR3)
 108:C:/Users/stapi/OneDrive/Desktop/GD32VW553/V1_MQTT_OK/GD32VW55X_Wifi_BLE_SDK/GD32VW55x_RELEASE_V1.0.2/MSDK/lwip/lwip-2.1.2/src/api\netdb.c ****   s_phostent_addr[0] = &s_hostent_addr;
  80              		.loc 1 108 18
  81 003e 93870700 		addi	a5,a5,%lo(.LANCHOR2)
 109:C:/Users/stapi/OneDrive/Desktop/GD32VW553/V1_MQTT_OK/GD32VW55X_Wifi_BLE_SDK/GD32VW55x_RELEASE_V1.0.2/MSDK/lwip/lwip-2.1.2/src/api\netdb.c ****   s_phostent_addr[1] = NULL;
  82              		.loc 1 109 22
  83 0042 13040400 		addi	s0,s0,%lo(.LANCHOR3)
 111:C:/Users/stapi/OneDrive/Desktop/GD32VW553/V1_MQTT_OK/GD32VW55X_Wifi_BLE_SDK/GD32VW55x_RELEASE_V1.0.2/MSDK/lwip/lwip-2.1.2/src/api\netdb.c ****   s_hostname[DNS_MAX_NAME_LENGTH] = 0;
  84              		.loc 1 111 3
  85 0046 13090500 		addi	s2,a0,%lo(.LANCHOR4)
  86 004a 13060010 		li	a2,256
  87 004e A685     		mv	a1,s1
  88 0050 13050500 		addi	a0,a0,%lo(.LANCHOR4)
 108:C:/Users/stapi/OneDrive/Desktop/GD32VW553/V1_MQTT_OK/GD32VW55X_Wifi_BLE_SDK/GD32VW55x_RELEASE_V1.0.2/MSDK/lwip/lwip-2.1.2/src/api\netdb.c ****   s_phostent_addr[0] = &s_hostent_addr;
  89              		.loc 1 108 18
  90 0054 98C3     		sw	a4,0(a5)
 109:C:/Users/stapi/OneDrive/Desktop/GD32VW553/V1_MQTT_OK/GD32VW55X_Wifi_BLE_SDK/GD32VW55x_RELEASE_V1.0.2/MSDK/lwip/lwip-2.1.2/src/api\netdb.c ****   s_phostent_addr[1] = NULL;
  91              		.loc 1 109 3 is_stmt 1
 109:C:/Users/stapi/OneDrive/Desktop/GD32VW553/V1_MQTT_OK/GD32VW55X_Wifi_BLE_SDK/GD32VW55x_RELEASE_V1.0.2/MSDK/lwip/lwip-2.1.2/src/api\netdb.c ****   s_phostent_addr[1] = NULL;
  92              		.loc 1 109 22 is_stmt 0
  93 0056 1CC0     		sw	a5,0(s0)
 110:C:/Users/stapi/OneDrive/Desktop/GD32VW553/V1_MQTT_OK/GD32VW55X_Wifi_BLE_SDK/GD32VW55x_RELEASE_V1.0.2/MSDK/lwip/lwip-2.1.2/src/api\netdb.c ****   strncpy(s_hostname, name, DNS_MAX_NAME_LENGTH);
  94              		.loc 1 110 3 is_stmt 1
 110:C:/Users/stapi/OneDrive/Desktop/GD32VW553/V1_MQTT_OK/GD32VW55X_Wifi_BLE_SDK/GD32VW55x_RELEASE_V1.0.2/MSDK/lwip/lwip-2.1.2/src/api\netdb.c ****   strncpy(s_hostname, name, DNS_MAX_NAME_LENGTH);
  95              		.loc 1 110 22 is_stmt 0
  96 0058 23220400 		sw	zero,4(s0)
 111:C:/Users/stapi/OneDrive/Desktop/GD32VW553/V1_MQTT_OK/GD32VW55X_Wifi_BLE_SDK/GD32VW55x_RELEASE_V1.0.2/MSDK/lwip/lwip-2.1.2/src/api\netdb.c ****   s_hostname[DNS_MAX_NAME_LENGTH] = 0;
  97              		.loc 1 111 3 is_stmt 1
  98 005c 97000000 		call	strncpy
  98      E7800000 
  99              	.LVL5:
 112:C:/Users/stapi/OneDrive/Desktop/GD32VW553/V1_MQTT_OK/GD32VW55X_Wifi_BLE_SDK/GD32VW55x_RELEASE_V1.0.2/MSDK/lwip/lwip-2.1.2/src/api\netdb.c ****   s_hostent.h_name = s_hostname;
 100              		.loc 1 112 3
 113:C:/Users/stapi/OneDrive/Desktop/GD32VW553/V1_MQTT_OK/GD32VW55X_Wifi_BLE_SDK/GD32VW55x_RELEASE_V1.0.2/MSDK/lwip/lwip-2.1.2/src/api\netdb.c ****   s_aliases = NULL;
 101              		.loc 1 113 20 is_stmt 0
 102 0064 37050000 		lui	a0,%hi(.LANCHOR0)
 114:C:/Users/stapi/OneDrive/Desktop/GD32VW553/V1_MQTT_OK/GD32VW55X_Wifi_BLE_SDK/GD32VW55x_RELEASE_V1.0.2/MSDK/lwip/lwip-2.1.2/src/api\netdb.c ****   s_hostent.h_aliases = &s_aliases;
 103              		.loc 1 114 13
 104 0068 37070000 		lui	a4,%hi(.LANCHOR5)
 113:C:/Users/stapi/OneDrive/Desktop/GD32VW553/V1_MQTT_OK/GD32VW55X_Wifi_BLE_SDK/GD32VW55x_RELEASE_V1.0.2/MSDK/lwip/lwip-2.1.2/src/api\netdb.c ****   s_aliases = NULL;
 105              		.loc 1 113 20
 106 006c 93070500 		addi	a5,a0,%lo(.LANCHOR0)
 114:C:/Users/stapi/OneDrive/Desktop/GD32VW553/V1_MQTT_OK/GD32VW55X_Wifi_BLE_SDK/GD32VW55x_RELEASE_V1.0.2/MSDK/lwip/lwip-2.1.2/src/api\netdb.c ****   s_hostent.h_aliases = &s_aliases;
 107              		.loc 1 114 13
 108 0070 13070700 		addi	a4,a4,%lo(.LANCHOR5)
 109 0074 23200700 		sw	zero,0(a4)
 115:C:/Users/stapi/OneDrive/Desktop/GD32VW553/V1_MQTT_OK/GD32VW55X_Wifi_BLE_SDK/GD32VW55x_RELEASE_V1.0.2/MSDK/lwip/lwip-2.1.2/src/api\netdb.c ****   s_hostent.h_addrtype = AF_INET;
 110              		.loc 1 115 23
 111 0078 D8C3     		sw	a4,4(a5)
 116:C:/Users/stapi/OneDrive/Desktop/GD32VW553/V1_MQTT_OK/GD32VW55X_Wifi_BLE_SDK/GD32VW55x_RELEASE_V1.0.2/MSDK/lwip/lwip-2.1.2/src/api\netdb.c ****   s_hostent.h_length = sizeof(ip_addr_t);
 112              		.loc 1 116 24
 113 007a 0947     		li	a4,2
 114 007c 98C7     		sw	a4,8(a5)
 117:C:/Users/stapi/OneDrive/Desktop/GD32VW553/V1_MQTT_OK/GD32VW55X_Wifi_BLE_SDK/GD32VW55x_RELEASE_V1.0.2/MSDK/lwip/lwip-2.1.2/src/api\netdb.c ****   s_hostent.h_addr_list = (char **)&s_phostent_addr;
 115              		.loc 1 117 22
 116 007e 1147     		li	a4,4
 112:C:/Users/stapi/OneDrive/Desktop/GD32VW553/V1_MQTT_OK/GD32VW55X_Wifi_BLE_SDK/GD32VW55x_RELEASE_V1.0.2/MSDK/lwip/lwip-2.1.2/src/api\netdb.c ****   s_hostent.h_name = s_hostname;
 117              		.loc 1 112 35
 118 0080 23000910 		sb	zero,256(s2)
 113:C:/Users/stapi/OneDrive/Desktop/GD32VW553/V1_MQTT_OK/GD32VW55X_Wifi_BLE_SDK/GD32VW55x_RELEASE_V1.0.2/MSDK/lwip/lwip-2.1.2/src/api\netdb.c ****   s_aliases = NULL;
 119              		.loc 1 113 3 is_stmt 1
 113:C:/Users/stapi/OneDrive/Desktop/GD32VW553/V1_MQTT_OK/GD32VW55X_Wifi_BLE_SDK/GD32VW55x_RELEASE_V1.0.2/MSDK/lwip/lwip-2.1.2/src/api\netdb.c ****   s_aliases = NULL;
 120              		.loc 1 113 20 is_stmt 0
 121 0084 23A02701 		sw	s2,0(a5)
 114:C:/Users/stapi/OneDrive/Desktop/GD32VW553/V1_MQTT_OK/GD32VW55X_Wifi_BLE_SDK/GD32VW55x_RELEASE_V1.0.2/MSDK/lwip/lwip-2.1.2/src/api\netdb.c ****   s_hostent.h_aliases = &s_aliases;
 122              		.loc 1 114 3 is_stmt 1
 115:C:/Users/stapi/OneDrive/Desktop/GD32VW553/V1_MQTT_OK/GD32VW55X_Wifi_BLE_SDK/GD32VW55x_RELEASE_V1.0.2/MSDK/lwip/lwip-2.1.2/src/api\netdb.c ****   s_hostent.h_addrtype = AF_INET;
 123              		.loc 1 115 3
 116:C:/Users/stapi/OneDrive/Desktop/GD32VW553/V1_MQTT_OK/GD32VW55X_Wifi_BLE_SDK/GD32VW55x_RELEASE_V1.0.2/MSDK/lwip/lwip-2.1.2/src/api\netdb.c ****   s_hostent.h_length = sizeof(ip_addr_t);
 124              		.loc 1 116 3
 117:C:/Users/stapi/OneDrive/Desktop/GD32VW553/V1_MQTT_OK/GD32VW55X_Wifi_BLE_SDK/GD32VW55x_RELEASE_V1.0.2/MSDK/lwip/lwip-2.1.2/src/api\netdb.c ****   s_hostent.h_addr_list = (char **)&s_phostent_addr;
 125              		.loc 1 117 3
 117:C:/Users/stapi/OneDrive/Desktop/GD32VW553/V1_MQTT_OK/GD32VW55X_Wifi_BLE_SDK/GD32VW55x_RELEASE_V1.0.2/MSDK/lwip/lwip-2.1.2/src/api\netdb.c ****   s_hostent.h_addr_list = (char **)&s_phostent_addr;
 126              		.loc 1 117 22 is_stmt 0
 127 0088 D8C7     		sw	a4,12(a5)
 118:C:/Users/stapi/OneDrive/Desktop/GD32VW553/V1_MQTT_OK/GD32VW55X_Wifi_BLE_SDK/GD32VW55x_RELEASE_V1.0.2/MSDK/lwip/lwip-2.1.2/src/api\netdb.c **** 
 128              		.loc 1 118 3 is_stmt 1
 118:C:/Users/stapi/OneDrive/Desktop/GD32VW553/V1_MQTT_OK/GD32VW55X_Wifi_BLE_SDK/GD32VW55x_RELEASE_V1.0.2/MSDK/lwip/lwip-2.1.2/src/api\netdb.c **** 
 129              		.loc 1 118 25 is_stmt 0
 130 008a 80CB     		sw	s0,16(a5)
 141:C:/Users/stapi/OneDrive/Desktop/GD32VW553/V1_MQTT_OK/GD32VW55X_Wifi_BLE_SDK/GD32VW55x_RELEASE_V1.0.2/MSDK/lwip/lwip-2.1.2/src/api\netdb.c **** #endif /* LWIP_DNS_API_HOSTENT_STORAGE */
 131              		.loc 1 141 3 is_stmt 1
 141:C:/Users/stapi/OneDrive/Desktop/GD32VW553/V1_MQTT_OK/GD32VW55X_Wifi_BLE_SDK/GD32VW55x_RELEASE_V1.0.2/MSDK/lwip/lwip-2.1.2/src/api\netdb.c **** #endif /* LWIP_DNS_API_HOSTENT_STORAGE */
 132              		.loc 1 141 10 is_stmt 0
 133 008c 13050500 		addi	a0,a0,%lo(.LANCHOR0)
 134 0090 59BF     		j	.L1
 135              		.cfi_endproc
 136              	.LFE4:
 138              		.section	.text.lwip_gethostbyname_r,"ax",@progbits
 139              		.align	1
 140              		.globl	lwip_gethostbyname_r
 142              	lwip_gethostbyname_r:
 143              	.LFB5:
 144:C:/Users/stapi/OneDrive/Desktop/GD32VW553/V1_MQTT_OK/GD32VW55X_Wifi_BLE_SDK/GD32VW55x_RELEASE_V1.0.2/MSDK/lwip/lwip-2.1.2/src/api\netdb.c **** 
 145:C:/Users/stapi/OneDrive/Desktop/GD32VW553/V1_MQTT_OK/GD32VW55X_Wifi_BLE_SDK/GD32VW55x_RELEASE_V1.0.2/MSDK/lwip/lwip-2.1.2/src/api\netdb.c **** /**
 146:C:/Users/stapi/OneDrive/Desktop/GD32VW553/V1_MQTT_OK/GD32VW55X_Wifi_BLE_SDK/GD32VW55x_RELEASE_V1.0.2/MSDK/lwip/lwip-2.1.2/src/api\netdb.c ****  * Thread-safe variant of lwip_gethostbyname: instead of using a static
 147:C:/Users/stapi/OneDrive/Desktop/GD32VW553/V1_MQTT_OK/GD32VW55X_Wifi_BLE_SDK/GD32VW55x_RELEASE_V1.0.2/MSDK/lwip/lwip-2.1.2/src/api\netdb.c ****  * buffer, this function takes buffer and errno pointers as arguments
 148:C:/Users/stapi/OneDrive/Desktop/GD32VW553/V1_MQTT_OK/GD32VW55X_Wifi_BLE_SDK/GD32VW55x_RELEASE_V1.0.2/MSDK/lwip/lwip-2.1.2/src/api\netdb.c ****  * and uses these for the result.
 149:C:/Users/stapi/OneDrive/Desktop/GD32VW553/V1_MQTT_OK/GD32VW55X_Wifi_BLE_SDK/GD32VW55x_RELEASE_V1.0.2/MSDK/lwip/lwip-2.1.2/src/api\netdb.c ****  *
 150:C:/Users/stapi/OneDrive/Desktop/GD32VW553/V1_MQTT_OK/GD32VW55X_Wifi_BLE_SDK/GD32VW55x_RELEASE_V1.0.2/MSDK/lwip/lwip-2.1.2/src/api\netdb.c ****  * @param name the hostname to resolve
 151:C:/Users/stapi/OneDrive/Desktop/GD32VW553/V1_MQTT_OK/GD32VW55X_Wifi_BLE_SDK/GD32VW55x_RELEASE_V1.0.2/MSDK/lwip/lwip-2.1.2/src/api\netdb.c ****  * @param ret pre-allocated struct where to store the result
 152:C:/Users/stapi/OneDrive/Desktop/GD32VW553/V1_MQTT_OK/GD32VW55X_Wifi_BLE_SDK/GD32VW55x_RELEASE_V1.0.2/MSDK/lwip/lwip-2.1.2/src/api\netdb.c ****  * @param buf pre-allocated buffer where to store additional data
 153:C:/Users/stapi/OneDrive/Desktop/GD32VW553/V1_MQTT_OK/GD32VW55X_Wifi_BLE_SDK/GD32VW55x_RELEASE_V1.0.2/MSDK/lwip/lwip-2.1.2/src/api\netdb.c ****  * @param buflen the size of buf
 154:C:/Users/stapi/OneDrive/Desktop/GD32VW553/V1_MQTT_OK/GD32VW55X_Wifi_BLE_SDK/GD32VW55x_RELEASE_V1.0.2/MSDK/lwip/lwip-2.1.2/src/api\netdb.c ****  * @param result pointer to a hostent pointer that is set to ret on success
 155:C:/Users/stapi/OneDrive/Desktop/GD32VW553/V1_MQTT_OK/GD32VW55X_Wifi_BLE_SDK/GD32VW55x_RELEASE_V1.0.2/MSDK/lwip/lwip-2.1.2/src/api\netdb.c ****  *               and set to zero on error
 156:C:/Users/stapi/OneDrive/Desktop/GD32VW553/V1_MQTT_OK/GD32VW55X_Wifi_BLE_SDK/GD32VW55x_RELEASE_V1.0.2/MSDK/lwip/lwip-2.1.2/src/api\netdb.c ****  * @param h_errnop pointer to an int where to store errors (instead of modifying
 157:C:/Users/stapi/OneDrive/Desktop/GD32VW553/V1_MQTT_OK/GD32VW55X_Wifi_BLE_SDK/GD32VW55x_RELEASE_V1.0.2/MSDK/lwip/lwip-2.1.2/src/api\netdb.c ****  *                 the global h_errno)
 158:C:/Users/stapi/OneDrive/Desktop/GD32VW553/V1_MQTT_OK/GD32VW55X_Wifi_BLE_SDK/GD32VW55x_RELEASE_V1.0.2/MSDK/lwip/lwip-2.1.2/src/api\netdb.c ****  * @return 0 on success, non-zero on error, additional error information
 159:C:/Users/stapi/OneDrive/Desktop/GD32VW553/V1_MQTT_OK/GD32VW55X_Wifi_BLE_SDK/GD32VW55x_RELEASE_V1.0.2/MSDK/lwip/lwip-2.1.2/src/api\netdb.c ****  *         is stored in *h_errnop instead of h_errno to be thread-safe
 160:C:/Users/stapi/OneDrive/Desktop/GD32VW553/V1_MQTT_OK/GD32VW55X_Wifi_BLE_SDK/GD32VW55x_RELEASE_V1.0.2/MSDK/lwip/lwip-2.1.2/src/api\netdb.c ****  */
 161:C:/Users/stapi/OneDrive/Desktop/GD32VW553/V1_MQTT_OK/GD32VW55X_Wifi_BLE_SDK/GD32VW55x_RELEASE_V1.0.2/MSDK/lwip/lwip-2.1.2/src/api\netdb.c **** int
 162:C:/Users/stapi/OneDrive/Desktop/GD32VW553/V1_MQTT_OK/GD32VW55X_Wifi_BLE_SDK/GD32VW55x_RELEASE_V1.0.2/MSDK/lwip/lwip-2.1.2/src/api\netdb.c **** lwip_gethostbyname_r(const char *name, struct hostent *ret, char *buf,
 163:C:/Users/stapi/OneDrive/Desktop/GD32VW553/V1_MQTT_OK/GD32VW55X_Wifi_BLE_SDK/GD32VW55x_RELEASE_V1.0.2/MSDK/lwip/lwip-2.1.2/src/api\netdb.c ****                      size_t buflen, struct hostent **result, int *h_errnop)
 164:C:/Users/stapi/OneDrive/Desktop/GD32VW553/V1_MQTT_OK/GD32VW55X_Wifi_BLE_SDK/GD32VW55x_RELEASE_V1.0.2/MSDK/lwip/lwip-2.1.2/src/api\netdb.c **** {
 144              		.loc 1 164 1 is_stmt 1
 145              		.cfi_startproc
 146              	.LVL6:
 147 0000 17030000 		call	t0,__riscv_save_8
 147      E7020300 
 148              		.cfi_offset 23, -36
 149              		.cfi_offset 22, -32
 150              		.cfi_offset 21, -28
 151              		.cfi_offset 20, -24
 152              		.cfi_offset 19, -20
 153              		.cfi_offset 18, -16
 154              		.cfi_offset 9, -12
 155              		.cfi_offset 8, -8
 156              		.cfi_offset 1, -4
 157              		.cfi_def_cfa_offset 48
 165:C:/Users/stapi/OneDrive/Desktop/GD32VW553/V1_MQTT_OK/GD32VW55X_Wifi_BLE_SDK/GD32VW55x_RELEASE_V1.0.2/MSDK/lwip/lwip-2.1.2/src/api\netdb.c ****   err_t err;
 158              		.loc 1 165 3
 166:C:/Users/stapi/OneDrive/Desktop/GD32VW553/V1_MQTT_OK/GD32VW55X_Wifi_BLE_SDK/GD32VW55x_RELEASE_V1.0.2/MSDK/lwip/lwip-2.1.2/src/api\netdb.c ****   struct gethostbyname_r_helper *h;
 159              		.loc 1 166 3
 167:C:/Users/stapi/OneDrive/Desktop/GD32VW553/V1_MQTT_OK/GD32VW55X_Wifi_BLE_SDK/GD32VW55x_RELEASE_V1.0.2/MSDK/lwip/lwip-2.1.2/src/api\netdb.c ****   char *hostname;
 160              		.loc 1 167 3
 168:C:/Users/stapi/OneDrive/Desktop/GD32VW553/V1_MQTT_OK/GD32VW55X_Wifi_BLE_SDK/GD32VW55x_RELEASE_V1.0.2/MSDK/lwip/lwip-2.1.2/src/api\netdb.c ****   size_t namelen;
 161              		.loc 1 168 3
 169:C:/Users/stapi/OneDrive/Desktop/GD32VW553/V1_MQTT_OK/GD32VW55X_Wifi_BLE_SDK/GD32VW55x_RELEASE_V1.0.2/MSDK/lwip/lwip-2.1.2/src/api\netdb.c ****   int lh_errno;
 162              		.loc 1 169 3
 170:C:/Users/stapi/OneDrive/Desktop/GD32VW553/V1_MQTT_OK/GD32VW55X_Wifi_BLE_SDK/GD32VW55x_RELEASE_V1.0.2/MSDK/lwip/lwip-2.1.2/src/api\netdb.c **** 
 171:C:/Users/stapi/OneDrive/Desktop/GD32VW553/V1_MQTT_OK/GD32VW55X_Wifi_BLE_SDK/GD32VW55x_RELEASE_V1.0.2/MSDK/lwip/lwip-2.1.2/src/api\netdb.c ****   if (h_errnop == NULL) {
 163              		.loc 1 171 3
 164:C:/Users/stapi/OneDrive/Desktop/GD32VW553/V1_MQTT_OK/GD32VW55X_Wifi_BLE_SDK/GD32VW55x_RELEASE_V1.0.2/MSDK/lwip/lwip-2.1.2/src/api\netdb.c ****   err_t err;
 164              		.loc 1 164 1 is_stmt 0
 165 0008 4111     		addi	sp,sp,-16
 166              		.cfi_def_cfa_offset 64
 164:C:/Users/stapi/OneDrive/Desktop/GD32VW553/V1_MQTT_OK/GD32VW55X_Wifi_BLE_SDK/GD32VW55x_RELEASE_V1.0.2/MSDK/lwip/lwip-2.1.2/src/api\netdb.c ****   err_t err;
 167              		.loc 1 164 1
 168 000a 2A8A     		mv	s4,a0
 169 000c AE84     		mv	s1,a1
 170 000e 3284     		mv	s0,a2
 171 0010 368B     		mv	s6,a3
 172 0012 BA8A     		mv	s5,a4
 172:C:/Users/stapi/OneDrive/Desktop/GD32VW553/V1_MQTT_OK/GD32VW55X_Wifi_BLE_SDK/GD32VW55x_RELEASE_V1.0.2/MSDK/lwip/lwip-2.1.2/src/api\netdb.c ****     /* ensure h_errnop is never NULL */
 173:C:/Users/stapi/OneDrive/Desktop/GD32VW553/V1_MQTT_OK/GD32VW55X_Wifi_BLE_SDK/GD32VW55x_RELEASE_V1.0.2/MSDK/lwip/lwip-2.1.2/src/api\netdb.c ****     h_errnop = &lh_errno;
 173              		.loc 1 173 14
 174 0014 1309C100 		addi	s2,sp,12
 171:C:/Users/stapi/OneDrive/Desktop/GD32VW553/V1_MQTT_OK/GD32VW55X_Wifi_BLE_SDK/GD32VW55x_RELEASE_V1.0.2/MSDK/lwip/lwip-2.1.2/src/api\netdb.c ****     /* ensure h_errnop is never NULL */
 175              		.loc 1 171 6
 176 0018 91C3     		beq	a5,zero,.L6
 177 001a 3E89     		mv	s2,a5
 178              	.L6:
 179              	.LVL7:
 174:C:/Users/stapi/OneDrive/Desktop/GD32VW553/V1_MQTT_OK/GD32VW55X_Wifi_BLE_SDK/GD32VW55x_RELEASE_V1.0.2/MSDK/lwip/lwip-2.1.2/src/api\netdb.c ****   }
 175:C:/Users/stapi/OneDrive/Desktop/GD32VW553/V1_MQTT_OK/GD32VW55X_Wifi_BLE_SDK/GD32VW55x_RELEASE_V1.0.2/MSDK/lwip/lwip-2.1.2/src/api\netdb.c **** 
 176:C:/Users/stapi/OneDrive/Desktop/GD32VW553/V1_MQTT_OK/GD32VW55X_Wifi_BLE_SDK/GD32VW55x_RELEASE_V1.0.2/MSDK/lwip/lwip-2.1.2/src/api\netdb.c ****   if (result == NULL) {
 180              		.loc 1 176 3 is_stmt 1
 181              		.loc 1 176 6 is_stmt 0
 182 001c 639B0A00 		bne	s5,zero,.L7
 183              	.L9:
 177:C:/Users/stapi/OneDrive/Desktop/GD32VW553/V1_MQTT_OK/GD32VW55X_Wifi_BLE_SDK/GD32VW55x_RELEASE_V1.0.2/MSDK/lwip/lwip-2.1.2/src/api\netdb.c ****     /* not all arguments given */
 178:C:/Users/stapi/OneDrive/Desktop/GD32VW553/V1_MQTT_OK/GD32VW55X_Wifi_BLE_SDK/GD32VW55x_RELEASE_V1.0.2/MSDK/lwip/lwip-2.1.2/src/api\netdb.c ****     *h_errnop = EINVAL;
 179:C:/Users/stapi/OneDrive/Desktop/GD32VW553/V1_MQTT_OK/GD32VW55X_Wifi_BLE_SDK/GD32VW55x_RELEASE_V1.0.2/MSDK/lwip/lwip-2.1.2/src/api\netdb.c ****     return -1;
 180:C:/Users/stapi/OneDrive/Desktop/GD32VW553/V1_MQTT_OK/GD32VW55X_Wifi_BLE_SDK/GD32VW55x_RELEASE_V1.0.2/MSDK/lwip/lwip-2.1.2/src/api\netdb.c ****   }
 181:C:/Users/stapi/OneDrive/Desktop/GD32VW553/V1_MQTT_OK/GD32VW55X_Wifi_BLE_SDK/GD32VW55x_RELEASE_V1.0.2/MSDK/lwip/lwip-2.1.2/src/api\netdb.c ****   /* first thing to do: set *result to nothing */
 182:C:/Users/stapi/OneDrive/Desktop/GD32VW553/V1_MQTT_OK/GD32VW55X_Wifi_BLE_SDK/GD32VW55x_RELEASE_V1.0.2/MSDK/lwip/lwip-2.1.2/src/api\netdb.c ****   *result = NULL;
 183:C:/Users/stapi/OneDrive/Desktop/GD32VW553/V1_MQTT_OK/GD32VW55X_Wifi_BLE_SDK/GD32VW55x_RELEASE_V1.0.2/MSDK/lwip/lwip-2.1.2/src/api\netdb.c ****   if ((name == NULL) || (ret == NULL) || (buf == NULL)) {
 184:C:/Users/stapi/OneDrive/Desktop/GD32VW553/V1_MQTT_OK/GD32VW55X_Wifi_BLE_SDK/GD32VW55x_RELEASE_V1.0.2/MSDK/lwip/lwip-2.1.2/src/api\netdb.c ****     /* not all arguments given */
 185:C:/Users/stapi/OneDrive/Desktop/GD32VW553/V1_MQTT_OK/GD32VW55X_Wifi_BLE_SDK/GD32VW55x_RELEASE_V1.0.2/MSDK/lwip/lwip-2.1.2/src/api\netdb.c ****     *h_errnop = EINVAL;
 184              		.loc 1 185 5 is_stmt 1
 185              		.loc 1 185 15 is_stmt 0
 186 0020 D947     		li	a5,22
 187              	.LVL8:
 188              	.L21:
 186:C:/Users/stapi/OneDrive/Desktop/GD32VW553/V1_MQTT_OK/GD32VW55X_Wifi_BLE_SDK/GD32VW55x_RELEASE_V1.0.2/MSDK/lwip/lwip-2.1.2/src/api\netdb.c ****     return -1;
 187:C:/Users/stapi/OneDrive/Desktop/GD32VW553/V1_MQTT_OK/GD32VW55X_Wifi_BLE_SDK/GD32VW55x_RELEASE_V1.0.2/MSDK/lwip/lwip-2.1.2/src/api\netdb.c ****   }
 188:C:/Users/stapi/OneDrive/Desktop/GD32VW553/V1_MQTT_OK/GD32VW55X_Wifi_BLE_SDK/GD32VW55x_RELEASE_V1.0.2/MSDK/lwip/lwip-2.1.2/src/api\netdb.c **** 
 189:C:/Users/stapi/OneDrive/Desktop/GD32VW553/V1_MQTT_OK/GD32VW55X_Wifi_BLE_SDK/GD32VW55x_RELEASE_V1.0.2/MSDK/lwip/lwip-2.1.2/src/api\netdb.c ****   namelen = strlen(name);
 190:C:/Users/stapi/OneDrive/Desktop/GD32VW553/V1_MQTT_OK/GD32VW55X_Wifi_BLE_SDK/GD32VW55x_RELEASE_V1.0.2/MSDK/lwip/lwip-2.1.2/src/api\netdb.c ****   if (buflen < (sizeof(struct gethostbyname_r_helper) + LWIP_MEM_ALIGN_BUFFER(namelen + 1))) {
 191:C:/Users/stapi/OneDrive/Desktop/GD32VW553/V1_MQTT_OK/GD32VW55X_Wifi_BLE_SDK/GD32VW55x_RELEASE_V1.0.2/MSDK/lwip/lwip-2.1.2/src/api\netdb.c ****     /* buf can't hold the data needed + a copy of name */
 192:C:/Users/stapi/OneDrive/Desktop/GD32VW553/V1_MQTT_OK/GD32VW55X_Wifi_BLE_SDK/GD32VW55x_RELEASE_V1.0.2/MSDK/lwip/lwip-2.1.2/src/api\netdb.c ****     *h_errnop = ERANGE;
 193:C:/Users/stapi/OneDrive/Desktop/GD32VW553/V1_MQTT_OK/GD32VW55X_Wifi_BLE_SDK/GD32VW55x_RELEASE_V1.0.2/MSDK/lwip/lwip-2.1.2/src/api\netdb.c ****     return -1;
 194:C:/Users/stapi/OneDrive/Desktop/GD32VW553/V1_MQTT_OK/GD32VW55X_Wifi_BLE_SDK/GD32VW55x_RELEASE_V1.0.2/MSDK/lwip/lwip-2.1.2/src/api\netdb.c ****   }
 195:C:/Users/stapi/OneDrive/Desktop/GD32VW553/V1_MQTT_OK/GD32VW55X_Wifi_BLE_SDK/GD32VW55x_RELEASE_V1.0.2/MSDK/lwip/lwip-2.1.2/src/api\netdb.c **** 
 196:C:/Users/stapi/OneDrive/Desktop/GD32VW553/V1_MQTT_OK/GD32VW55X_Wifi_BLE_SDK/GD32VW55x_RELEASE_V1.0.2/MSDK/lwip/lwip-2.1.2/src/api\netdb.c ****   h = (struct gethostbyname_r_helper *)LWIP_MEM_ALIGN(buf);
 197:C:/Users/stapi/OneDrive/Desktop/GD32VW553/V1_MQTT_OK/GD32VW55X_Wifi_BLE_SDK/GD32VW55x_RELEASE_V1.0.2/MSDK/lwip/lwip-2.1.2/src/api\netdb.c ****   hostname = ((char *)h) + sizeof(struct gethostbyname_r_helper);
 198:C:/Users/stapi/OneDrive/Desktop/GD32VW553/V1_MQTT_OK/GD32VW55X_Wifi_BLE_SDK/GD32VW55x_RELEASE_V1.0.2/MSDK/lwip/lwip-2.1.2/src/api\netdb.c **** 
 199:C:/Users/stapi/OneDrive/Desktop/GD32VW553/V1_MQTT_OK/GD32VW55X_Wifi_BLE_SDK/GD32VW55x_RELEASE_V1.0.2/MSDK/lwip/lwip-2.1.2/src/api\netdb.c ****   /* query host IP address */
 200:C:/Users/stapi/OneDrive/Desktop/GD32VW553/V1_MQTT_OK/GD32VW55X_Wifi_BLE_SDK/GD32VW55x_RELEASE_V1.0.2/MSDK/lwip/lwip-2.1.2/src/api\netdb.c ****   err = netconn_gethostbyname(name, &h->addr);
 201:C:/Users/stapi/OneDrive/Desktop/GD32VW553/V1_MQTT_OK/GD32VW55X_Wifi_BLE_SDK/GD32VW55x_RELEASE_V1.0.2/MSDK/lwip/lwip-2.1.2/src/api\netdb.c ****   if (err != ERR_OK) {
 202:C:/Users/stapi/OneDrive/Desktop/GD32VW553/V1_MQTT_OK/GD32VW55X_Wifi_BLE_SDK/GD32VW55x_RELEASE_V1.0.2/MSDK/lwip/lwip-2.1.2/src/api\netdb.c ****     LWIP_DEBUGF(DNS_DEBUG, ("lwip_gethostbyname(%s) failed, err=%d\n", name, err));
 203:C:/Users/stapi/OneDrive/Desktop/GD32VW553/V1_MQTT_OK/GD32VW55X_Wifi_BLE_SDK/GD32VW55x_RELEASE_V1.0.2/MSDK/lwip/lwip-2.1.2/src/api\netdb.c ****     *h_errnop = HOST_NOT_FOUND;
 189              		.loc 1 203 15
 190 0022 2320F900 		sw	a5,0(s2)
 204:C:/Users/stapi/OneDrive/Desktop/GD32VW553/V1_MQTT_OK/GD32VW55X_Wifi_BLE_SDK/GD32VW55x_RELEASE_V1.0.2/MSDK/lwip/lwip-2.1.2/src/api\netdb.c ****     return -1;
 191              		.loc 1 204 5 is_stmt 1
 192              		.loc 1 204 12 is_stmt 0
 193 0026 7D55     		li	a0,-1
 194              	.L5:
 205:C:/Users/stapi/OneDrive/Desktop/GD32VW553/V1_MQTT_OK/GD32VW55X_Wifi_BLE_SDK/GD32VW55x_RELEASE_V1.0.2/MSDK/lwip/lwip-2.1.2/src/api\netdb.c ****   }
 206:C:/Users/stapi/OneDrive/Desktop/GD32VW553/V1_MQTT_OK/GD32VW55X_Wifi_BLE_SDK/GD32VW55x_RELEASE_V1.0.2/MSDK/lwip/lwip-2.1.2/src/api\netdb.c **** 
 207:C:/Users/stapi/OneDrive/Desktop/GD32VW553/V1_MQTT_OK/GD32VW55X_Wifi_BLE_SDK/GD32VW55x_RELEASE_V1.0.2/MSDK/lwip/lwip-2.1.2/src/api\netdb.c ****   /* copy the hostname into buf */
 208:C:/Users/stapi/OneDrive/Desktop/GD32VW553/V1_MQTT_OK/GD32VW55X_Wifi_BLE_SDK/GD32VW55x_RELEASE_V1.0.2/MSDK/lwip/lwip-2.1.2/src/api\netdb.c ****   MEMCPY(hostname, name, namelen);
 209:C:/Users/stapi/OneDrive/Desktop/GD32VW553/V1_MQTT_OK/GD32VW55X_Wifi_BLE_SDK/GD32VW55x_RELEASE_V1.0.2/MSDK/lwip/lwip-2.1.2/src/api\netdb.c ****   hostname[namelen] = 0;
 210:C:/Users/stapi/OneDrive/Desktop/GD32VW553/V1_MQTT_OK/GD32VW55X_Wifi_BLE_SDK/GD32VW55x_RELEASE_V1.0.2/MSDK/lwip/lwip-2.1.2/src/api\netdb.c **** 
 211:C:/Users/stapi/OneDrive/Desktop/GD32VW553/V1_MQTT_OK/GD32VW55X_Wifi_BLE_SDK/GD32VW55x_RELEASE_V1.0.2/MSDK/lwip/lwip-2.1.2/src/api\netdb.c ****   /* fill hostent */
 212:C:/Users/stapi/OneDrive/Desktop/GD32VW553/V1_MQTT_OK/GD32VW55X_Wifi_BLE_SDK/GD32VW55x_RELEASE_V1.0.2/MSDK/lwip/lwip-2.1.2/src/api\netdb.c ****   h->addr_list[0] = &h->addr;
 213:C:/Users/stapi/OneDrive/Desktop/GD32VW553/V1_MQTT_OK/GD32VW55X_Wifi_BLE_SDK/GD32VW55x_RELEASE_V1.0.2/MSDK/lwip/lwip-2.1.2/src/api\netdb.c ****   h->addr_list[1] = NULL;
 214:C:/Users/stapi/OneDrive/Desktop/GD32VW553/V1_MQTT_OK/GD32VW55X_Wifi_BLE_SDK/GD32VW55x_RELEASE_V1.0.2/MSDK/lwip/lwip-2.1.2/src/api\netdb.c ****   h->aliases = NULL;
 215:C:/Users/stapi/OneDrive/Desktop/GD32VW553/V1_MQTT_OK/GD32VW55X_Wifi_BLE_SDK/GD32VW55x_RELEASE_V1.0.2/MSDK/lwip/lwip-2.1.2/src/api\netdb.c ****   ret->h_name = hostname;
 216:C:/Users/stapi/OneDrive/Desktop/GD32VW553/V1_MQTT_OK/GD32VW55X_Wifi_BLE_SDK/GD32VW55x_RELEASE_V1.0.2/MSDK/lwip/lwip-2.1.2/src/api\netdb.c ****   ret->h_aliases = &h->aliases;
 217:C:/Users/stapi/OneDrive/Desktop/GD32VW553/V1_MQTT_OK/GD32VW55X_Wifi_BLE_SDK/GD32VW55x_RELEASE_V1.0.2/MSDK/lwip/lwip-2.1.2/src/api\netdb.c ****   ret->h_addrtype = AF_INET;
 218:C:/Users/stapi/OneDrive/Desktop/GD32VW553/V1_MQTT_OK/GD32VW55X_Wifi_BLE_SDK/GD32VW55x_RELEASE_V1.0.2/MSDK/lwip/lwip-2.1.2/src/api\netdb.c ****   ret->h_length = sizeof(ip_addr_t);
 219:C:/Users/stapi/OneDrive/Desktop/GD32VW553/V1_MQTT_OK/GD32VW55X_Wifi_BLE_SDK/GD32VW55x_RELEASE_V1.0.2/MSDK/lwip/lwip-2.1.2/src/api\netdb.c ****   ret->h_addr_list = (char **)&h->addr_list;
 220:C:/Users/stapi/OneDrive/Desktop/GD32VW553/V1_MQTT_OK/GD32VW55X_Wifi_BLE_SDK/GD32VW55x_RELEASE_V1.0.2/MSDK/lwip/lwip-2.1.2/src/api\netdb.c **** 
 221:C:/Users/stapi/OneDrive/Desktop/GD32VW553/V1_MQTT_OK/GD32VW55X_Wifi_BLE_SDK/GD32VW55x_RELEASE_V1.0.2/MSDK/lwip/lwip-2.1.2/src/api\netdb.c ****   /* set result != NULL */
 222:C:/Users/stapi/OneDrive/Desktop/GD32VW553/V1_MQTT_OK/GD32VW55X_Wifi_BLE_SDK/GD32VW55x_RELEASE_V1.0.2/MSDK/lwip/lwip-2.1.2/src/api\netdb.c ****   *result = ret;
 223:C:/Users/stapi/OneDrive/Desktop/GD32VW553/V1_MQTT_OK/GD32VW55X_Wifi_BLE_SDK/GD32VW55x_RELEASE_V1.0.2/MSDK/lwip/lwip-2.1.2/src/api\netdb.c **** 
 224:C:/Users/stapi/OneDrive/Desktop/GD32VW553/V1_MQTT_OK/GD32VW55X_Wifi_BLE_SDK/GD32VW55x_RELEASE_V1.0.2/MSDK/lwip/lwip-2.1.2/src/api\netdb.c ****   /* return success */
 225:C:/Users/stapi/OneDrive/Desktop/GD32VW553/V1_MQTT_OK/GD32VW55X_Wifi_BLE_SDK/GD32VW55x_RELEASE_V1.0.2/MSDK/lwip/lwip-2.1.2/src/api\netdb.c ****   return 0;
 226:C:/Users/stapi/OneDrive/Desktop/GD32VW553/V1_MQTT_OK/GD32VW55X_Wifi_BLE_SDK/GD32VW55x_RELEASE_V1.0.2/MSDK/lwip/lwip-2.1.2/src/api\netdb.c **** }
 195              		.loc 1 226 1
 196 0028 4101     		addi	sp,sp,16
 197              		.cfi_remember_state
 198              		.cfi_def_cfa_offset 0
 199 002a 17030000 		tail	__riscv_restore_8
 199      67000300 
 200              		.cfi_restore 23
 201              		.cfi_restore 22
 202              		.cfi_restore 21
 203              		.cfi_restore 20
 204              		.cfi_restore 19
 205              		.cfi_restore 18
 206              		.cfi_restore 9
 207              		.cfi_restore 8
 208              		.cfi_restore 1
 209              		.cfi_def_cfa_offset -48
 210              	.LVL9:
 211              	.L7:
 212              		.cfi_restore_state
 182:C:/Users/stapi/OneDrive/Desktop/GD32VW553/V1_MQTT_OK/GD32VW55X_Wifi_BLE_SDK/GD32VW55x_RELEASE_V1.0.2/MSDK/lwip/lwip-2.1.2/src/api\netdb.c ****   if ((name == NULL) || (ret == NULL) || (buf == NULL)) {
 213              		.loc 1 182 3 is_stmt 1
 182:C:/Users/stapi/OneDrive/Desktop/GD32VW553/V1_MQTT_OK/GD32VW55X_Wifi_BLE_SDK/GD32VW55x_RELEASE_V1.0.2/MSDK/lwip/lwip-2.1.2/src/api\netdb.c ****   if ((name == NULL) || (ret == NULL) || (buf == NULL)) {
 214              		.loc 1 182 11 is_stmt 0
 215 0032 23A00A00 		sw	zero,0(s5)
 183:C:/Users/stapi/OneDrive/Desktop/GD32VW553/V1_MQTT_OK/GD32VW55X_Wifi_BLE_SDK/GD32VW55x_RELEASE_V1.0.2/MSDK/lwip/lwip-2.1.2/src/api\netdb.c ****     /* not all arguments given */
 216              		.loc 1 183 3 is_stmt 1
 183:C:/Users/stapi/OneDrive/Desktop/GD32VW553/V1_MQTT_OK/GD32VW55X_Wifi_BLE_SDK/GD32VW55x_RELEASE_V1.0.2/MSDK/lwip/lwip-2.1.2/src/api\netdb.c ****     /* not all arguments given */
 217              		.loc 1 183 6 is_stmt 0
 218 0036 E3050AFE 		beq	s4,zero,.L9
 183:C:/Users/stapi/OneDrive/Desktop/GD32VW553/V1_MQTT_OK/GD32VW55X_Wifi_BLE_SDK/GD32VW55x_RELEASE_V1.0.2/MSDK/lwip/lwip-2.1.2/src/api\netdb.c ****     /* not all arguments given */
 219              		.loc 1 183 22 discriminator 1
 220 003a FDD0     		beq	s1,zero,.L9
 183:C:/Users/stapi/OneDrive/Desktop/GD32VW553/V1_MQTT_OK/GD32VW55X_Wifi_BLE_SDK/GD32VW55x_RELEASE_V1.0.2/MSDK/lwip/lwip-2.1.2/src/api\netdb.c ****     /* not all arguments given */
 221              		.loc 1 183 39 discriminator 2
 222 003c 75D0     		beq	s0,zero,.L9
 189:C:/Users/stapi/OneDrive/Desktop/GD32VW553/V1_MQTT_OK/GD32VW55X_Wifi_BLE_SDK/GD32VW55x_RELEASE_V1.0.2/MSDK/lwip/lwip-2.1.2/src/api\netdb.c ****   if (buflen < (sizeof(struct gethostbyname_r_helper) + LWIP_MEM_ALIGN_BUFFER(namelen + 1))) {
 223              		.loc 1 189 3 is_stmt 1
 189:C:/Users/stapi/OneDrive/Desktop/GD32VW553/V1_MQTT_OK/GD32VW55X_Wifi_BLE_SDK/GD32VW55x_RELEASE_V1.0.2/MSDK/lwip/lwip-2.1.2/src/api\netdb.c ****   if (buflen < (sizeof(struct gethostbyname_r_helper) + LWIP_MEM_ALIGN_BUFFER(namelen + 1))) {
 224              		.loc 1 189 13 is_stmt 0
 225 003e 5285     		mv	a0,s4
 226              	.LVL10:
 227 0040 97000000 		call	strlen
 227      E7800000 
 228              	.LVL11:
 190:C:/Users/stapi/OneDrive/Desktop/GD32VW553/V1_MQTT_OK/GD32VW55X_Wifi_BLE_SDK/GD32VW55x_RELEASE_V1.0.2/MSDK/lwip/lwip-2.1.2/src/api\netdb.c ****     /* buf can't hold the data needed + a copy of name */
 229              		.loc 1 190 55
 230 0048 93074501 		addi	a5,a0,20
 189:C:/Users/stapi/OneDrive/Desktop/GD32VW553/V1_MQTT_OK/GD32VW55X_Wifi_BLE_SDK/GD32VW55x_RELEASE_V1.0.2/MSDK/lwip/lwip-2.1.2/src/api\netdb.c ****   if (buflen < (sizeof(struct gethostbyname_r_helper) + LWIP_MEM_ALIGN_BUFFER(namelen + 1))) {
 231              		.loc 1 189 13
 232 004c AA89     		mv	s3,a0
 233              	.LVL12:
 190:C:/Users/stapi/OneDrive/Desktop/GD32VW553/V1_MQTT_OK/GD32VW55X_Wifi_BLE_SDK/GD32VW55x_RELEASE_V1.0.2/MSDK/lwip/lwip-2.1.2/src/api\netdb.c ****     /* buf can't hold the data needed + a copy of name */
 234              		.loc 1 190 3 is_stmt 1
 190:C:/Users/stapi/OneDrive/Desktop/GD32VW553/V1_MQTT_OK/GD32VW55X_Wifi_BLE_SDK/GD32VW55x_RELEASE_V1.0.2/MSDK/lwip/lwip-2.1.2/src/api\netdb.c ****     /* buf can't hold the data needed + a copy of name */
 235              		.loc 1 190 6 is_stmt 0
 236 004e 6375FB00 		bleu	a5,s6,.L11
 192:C:/Users/stapi/OneDrive/Desktop/GD32VW553/V1_MQTT_OK/GD32VW55X_Wifi_BLE_SDK/GD32VW55x_RELEASE_V1.0.2/MSDK/lwip/lwip-2.1.2/src/api\netdb.c ****     return -1;
 237              		.loc 1 192 5 is_stmt 1
 192:C:/Users/stapi/OneDrive/Desktop/GD32VW553/V1_MQTT_OK/GD32VW55X_Wifi_BLE_SDK/GD32VW55x_RELEASE_V1.0.2/MSDK/lwip/lwip-2.1.2/src/api\netdb.c ****     return -1;
 238              		.loc 1 192 15 is_stmt 0
 239 0052 93072002 		li	a5,34
 240 0056 F1B7     		j	.L21
 241              	.L11:
 196:C:/Users/stapi/OneDrive/Desktop/GD32VW553/V1_MQTT_OK/GD32VW55X_Wifi_BLE_SDK/GD32VW55x_RELEASE_V1.0.2/MSDK/lwip/lwip-2.1.2/src/api\netdb.c ****   hostname = ((char *)h) + sizeof(struct gethostbyname_r_helper);
 242              		.loc 1 196 3 is_stmt 1
 196:C:/Users/stapi/OneDrive/Desktop/GD32VW553/V1_MQTT_OK/GD32VW55X_Wifi_BLE_SDK/GD32VW55x_RELEASE_V1.0.2/MSDK/lwip/lwip-2.1.2/src/api\netdb.c ****   hostname = ((char *)h) + sizeof(struct gethostbyname_r_helper);
 243              		.loc 1 196 40 is_stmt 0
 244 0058 0D04     		addi	s0,s0,3
 245              	.LVL13:
 246 005a 7198     		andi	s0,s0,-4
 247              	.LVL14:
 197:C:/Users/stapi/OneDrive/Desktop/GD32VW553/V1_MQTT_OK/GD32VW55X_Wifi_BLE_SDK/GD32VW55x_RELEASE_V1.0.2/MSDK/lwip/lwip-2.1.2/src/api\netdb.c **** 
 248              		.loc 1 197 3 is_stmt 1
 200:C:/Users/stapi/OneDrive/Desktop/GD32VW553/V1_MQTT_OK/GD32VW55X_Wifi_BLE_SDK/GD32VW55x_RELEASE_V1.0.2/MSDK/lwip/lwip-2.1.2/src/api\netdb.c ****   if (err != ERR_OK) {
 249              		.loc 1 200 9 is_stmt 0
 250 005c 930B8400 		addi	s7,s0,8
 251 0060 DE85     		mv	a1,s7
 252 0062 5285     		mv	a0,s4
 253              	.LVL15:
 197:C:/Users/stapi/OneDrive/Desktop/GD32VW553/V1_MQTT_OK/GD32VW55X_Wifi_BLE_SDK/GD32VW55x_RELEASE_V1.0.2/MSDK/lwip/lwip-2.1.2/src/api\netdb.c **** 
 254              		.loc 1 197 12
 255 0064 130B0401 		addi	s6,s0,16
 256              	.LVL16:
 200:C:/Users/stapi/OneDrive/Desktop/GD32VW553/V1_MQTT_OK/GD32VW55X_Wifi_BLE_SDK/GD32VW55x_RELEASE_V1.0.2/MSDK/lwip/lwip-2.1.2/src/api\netdb.c ****   if (err != ERR_OK) {
 257              		.loc 1 200 3 is_stmt 1
 200:C:/Users/stapi/OneDrive/Desktop/GD32VW553/V1_MQTT_OK/GD32VW55X_Wifi_BLE_SDK/GD32VW55x_RELEASE_V1.0.2/MSDK/lwip/lwip-2.1.2/src/api\netdb.c ****   if (err != ERR_OK) {
 258              		.loc 1 200 9 is_stmt 0
 259 0068 97000000 		call	netconn_gethostbyname
 259      E7800000 
 260              	.LVL17:
 201:C:/Users/stapi/OneDrive/Desktop/GD32VW553/V1_MQTT_OK/GD32VW55X_Wifi_BLE_SDK/GD32VW55x_RELEASE_V1.0.2/MSDK/lwip/lwip-2.1.2/src/api\netdb.c ****     LWIP_DEBUGF(DNS_DEBUG, ("lwip_gethostbyname(%s) failed, err=%d\n", name, err));
 261              		.loc 1 201 3 is_stmt 1
 201:C:/Users/stapi/OneDrive/Desktop/GD32VW553/V1_MQTT_OK/GD32VW55X_Wifi_BLE_SDK/GD32VW55x_RELEASE_V1.0.2/MSDK/lwip/lwip-2.1.2/src/api\netdb.c ****     LWIP_DEBUGF(DNS_DEBUG, ("lwip_gethostbyname(%s) failed, err=%d\n", name, err));
 262              		.loc 1 201 6 is_stmt 0
 263 0070 01C5     		beq	a0,zero,.L12
 202:C:/Users/stapi/OneDrive/Desktop/GD32VW553/V1_MQTT_OK/GD32VW55X_Wifi_BLE_SDK/GD32VW55x_RELEASE_V1.0.2/MSDK/lwip/lwip-2.1.2/src/api\netdb.c ****     *h_errnop = HOST_NOT_FOUND;
 264              		.loc 1 202 83 is_stmt 1
 203:C:/Users/stapi/OneDrive/Desktop/GD32VW553/V1_MQTT_OK/GD32VW55X_Wifi_BLE_SDK/GD32VW55x_RELEASE_V1.0.2/MSDK/lwip/lwip-2.1.2/src/api\netdb.c ****     return -1;
 265              		.loc 1 203 5
 203:C:/Users/stapi/OneDrive/Desktop/GD32VW553/V1_MQTT_OK/GD32VW55X_Wifi_BLE_SDK/GD32VW55x_RELEASE_V1.0.2/MSDK/lwip/lwip-2.1.2/src/api\netdb.c ****     return -1;
 266              		.loc 1 203 15 is_stmt 0
 267 0072 9307200D 		li	a5,210
 268 0076 75B7     		j	.L21
 269              	.L12:
 208:C:/Users/stapi/OneDrive/Desktop/GD32VW553/V1_MQTT_OK/GD32VW55X_Wifi_BLE_SDK/GD32VW55x_RELEASE_V1.0.2/MSDK/lwip/lwip-2.1.2/src/api\netdb.c ****   hostname[namelen] = 0;
 270              		.loc 1 208 3 is_stmt 1
 271 0078 4E86     		mv	a2,s3
 272 007a D285     		mv	a1,s4
 273 007c 5A85     		mv	a0,s6
 274              	.LVL18:
 209:C:/Users/stapi/OneDrive/Desktop/GD32VW553/V1_MQTT_OK/GD32VW55X_Wifi_BLE_SDK/GD32VW55x_RELEASE_V1.0.2/MSDK/lwip/lwip-2.1.2/src/api\netdb.c **** 
 275              		.loc 1 209 21 is_stmt 0
 276 007e DA99     		add	s3,s6,s3
 277              	.LVL19:
 208:C:/Users/stapi/OneDrive/Desktop/GD32VW553/V1_MQTT_OK/GD32VW55X_Wifi_BLE_SDK/GD32VW55x_RELEASE_V1.0.2/MSDK/lwip/lwip-2.1.2/src/api\netdb.c ****   hostname[namelen] = 0;
 278              		.loc 1 208 3
 279 0080 97000000 		call	memcpy
 279      E7800000 
 280              	.LVL20:
 209:C:/Users/stapi/OneDrive/Desktop/GD32VW553/V1_MQTT_OK/GD32VW55X_Wifi_BLE_SDK/GD32VW55x_RELEASE_V1.0.2/MSDK/lwip/lwip-2.1.2/src/api\netdb.c **** 
 281              		.loc 1 209 3 is_stmt 1
 209:C:/Users/stapi/OneDrive/Desktop/GD32VW553/V1_MQTT_OK/GD32VW55X_Wifi_BLE_SDK/GD32VW55x_RELEASE_V1.0.2/MSDK/lwip/lwip-2.1.2/src/api\netdb.c **** 
 282              		.loc 1 209 21 is_stmt 0
 283 0088 23800900 		sb	zero,0(s3)
 212:C:/Users/stapi/OneDrive/Desktop/GD32VW553/V1_MQTT_OK/GD32VW55X_Wifi_BLE_SDK/GD32VW55x_RELEASE_V1.0.2/MSDK/lwip/lwip-2.1.2/src/api\netdb.c ****   h->addr_list[1] = NULL;
 284              		.loc 1 212 3 is_stmt 1
 212:C:/Users/stapi/OneDrive/Desktop/GD32VW553/V1_MQTT_OK/GD32VW55X_Wifi_BLE_SDK/GD32VW55x_RELEASE_V1.0.2/MSDK/lwip/lwip-2.1.2/src/api\netdb.c ****   h->addr_list[1] = NULL;
 285              		.loc 1 212 19 is_stmt 0
 286 008c 23207401 		sw	s7,0(s0)
 213:C:/Users/stapi/OneDrive/Desktop/GD32VW553/V1_MQTT_OK/GD32VW55X_Wifi_BLE_SDK/GD32VW55x_RELEASE_V1.0.2/MSDK/lwip/lwip-2.1.2/src/api\netdb.c ****   h->aliases = NULL;
 287              		.loc 1 213 3 is_stmt 1
 213:C:/Users/stapi/OneDrive/Desktop/GD32VW553/V1_MQTT_OK/GD32VW55X_Wifi_BLE_SDK/GD32VW55x_RELEASE_V1.0.2/MSDK/lwip/lwip-2.1.2/src/api\netdb.c ****   h->aliases = NULL;
 288              		.loc 1 213 19 is_stmt 0
 289 0090 23220400 		sw	zero,4(s0)
 214:C:/Users/stapi/OneDrive/Desktop/GD32VW553/V1_MQTT_OK/GD32VW55X_Wifi_BLE_SDK/GD32VW55x_RELEASE_V1.0.2/MSDK/lwip/lwip-2.1.2/src/api\netdb.c ****   ret->h_name = hostname;
 290              		.loc 1 214 3 is_stmt 1
 214:C:/Users/stapi/OneDrive/Desktop/GD32VW553/V1_MQTT_OK/GD32VW55X_Wifi_BLE_SDK/GD32VW55x_RELEASE_V1.0.2/MSDK/lwip/lwip-2.1.2/src/api\netdb.c ****   ret->h_name = hostname;
 291              		.loc 1 214 14 is_stmt 0
 292 0094 23260400 		sw	zero,12(s0)
 215:C:/Users/stapi/OneDrive/Desktop/GD32VW553/V1_MQTT_OK/GD32VW55X_Wifi_BLE_SDK/GD32VW55x_RELEASE_V1.0.2/MSDK/lwip/lwip-2.1.2/src/api\netdb.c ****   ret->h_aliases = &h->aliases;
 293              		.loc 1 215 3 is_stmt 1
 216:C:/Users/stapi/OneDrive/Desktop/GD32VW553/V1_MQTT_OK/GD32VW55X_Wifi_BLE_SDK/GD32VW55x_RELEASE_V1.0.2/MSDK/lwip/lwip-2.1.2/src/api\netdb.c ****   ret->h_addrtype = AF_INET;
 294              		.loc 1 216 20 is_stmt 0
 295 0098 9307C400 		addi	a5,s0,12
 216:C:/Users/stapi/OneDrive/Desktop/GD32VW553/V1_MQTT_OK/GD32VW55X_Wifi_BLE_SDK/GD32VW55x_RELEASE_V1.0.2/MSDK/lwip/lwip-2.1.2/src/api\netdb.c ****   ret->h_addrtype = AF_INET;
 296              		.loc 1 216 18
 297 009c DCC0     		sw	a5,4(s1)
 217:C:/Users/stapi/OneDrive/Desktop/GD32VW553/V1_MQTT_OK/GD32VW55X_Wifi_BLE_SDK/GD32VW55x_RELEASE_V1.0.2/MSDK/lwip/lwip-2.1.2/src/api\netdb.c ****   ret->h_length = sizeof(ip_addr_t);
 298              		.loc 1 217 19
 299 009e 8947     		li	a5,2
 300 00a0 9CC4     		sw	a5,8(s1)
 218:C:/Users/stapi/OneDrive/Desktop/GD32VW553/V1_MQTT_OK/GD32VW55X_Wifi_BLE_SDK/GD32VW55x_RELEASE_V1.0.2/MSDK/lwip/lwip-2.1.2/src/api\netdb.c ****   ret->h_addr_list = (char **)&h->addr_list;
 301              		.loc 1 218 17
 302 00a2 9147     		li	a5,4
 215:C:/Users/stapi/OneDrive/Desktop/GD32VW553/V1_MQTT_OK/GD32VW55X_Wifi_BLE_SDK/GD32VW55x_RELEASE_V1.0.2/MSDK/lwip/lwip-2.1.2/src/api\netdb.c ****   ret->h_aliases = &h->aliases;
 303              		.loc 1 215 15
 304 00a4 23A06401 		sw	s6,0(s1)
 216:C:/Users/stapi/OneDrive/Desktop/GD32VW553/V1_MQTT_OK/GD32VW55X_Wifi_BLE_SDK/GD32VW55x_RELEASE_V1.0.2/MSDK/lwip/lwip-2.1.2/src/api\netdb.c ****   ret->h_addrtype = AF_INET;
 305              		.loc 1 216 3 is_stmt 1
 217:C:/Users/stapi/OneDrive/Desktop/GD32VW553/V1_MQTT_OK/GD32VW55X_Wifi_BLE_SDK/GD32VW55x_RELEASE_V1.0.2/MSDK/lwip/lwip-2.1.2/src/api\netdb.c ****   ret->h_length = sizeof(ip_addr_t);
 306              		.loc 1 217 3
 218:C:/Users/stapi/OneDrive/Desktop/GD32VW553/V1_MQTT_OK/GD32VW55X_Wifi_BLE_SDK/GD32VW55x_RELEASE_V1.0.2/MSDK/lwip/lwip-2.1.2/src/api\netdb.c ****   ret->h_addr_list = (char **)&h->addr_list;
 307              		.loc 1 218 3
 218:C:/Users/stapi/OneDrive/Desktop/GD32VW553/V1_MQTT_OK/GD32VW55X_Wifi_BLE_SDK/GD32VW55x_RELEASE_V1.0.2/MSDK/lwip/lwip-2.1.2/src/api\netdb.c ****   ret->h_addr_list = (char **)&h->addr_list;
 308              		.loc 1 218 17 is_stmt 0
 309 00a8 DCC4     		sw	a5,12(s1)
 219:C:/Users/stapi/OneDrive/Desktop/GD32VW553/V1_MQTT_OK/GD32VW55X_Wifi_BLE_SDK/GD32VW55x_RELEASE_V1.0.2/MSDK/lwip/lwip-2.1.2/src/api\netdb.c **** 
 310              		.loc 1 219 3 is_stmt 1
 219:C:/Users/stapi/OneDrive/Desktop/GD32VW553/V1_MQTT_OK/GD32VW55X_Wifi_BLE_SDK/GD32VW55x_RELEASE_V1.0.2/MSDK/lwip/lwip-2.1.2/src/api\netdb.c **** 
 311              		.loc 1 219 20 is_stmt 0
 312 00aa 80C8     		sw	s0,16(s1)
 222:C:/Users/stapi/OneDrive/Desktop/GD32VW553/V1_MQTT_OK/GD32VW55X_Wifi_BLE_SDK/GD32VW55x_RELEASE_V1.0.2/MSDK/lwip/lwip-2.1.2/src/api\netdb.c **** 
 313              		.loc 1 222 3 is_stmt 1
 222:C:/Users/stapi/OneDrive/Desktop/GD32VW553/V1_MQTT_OK/GD32VW55X_Wifi_BLE_SDK/GD32VW55x_RELEASE_V1.0.2/MSDK/lwip/lwip-2.1.2/src/api\netdb.c **** 
 314              		.loc 1 222 11 is_stmt 0
 315 00ac 23A09A00 		sw	s1,0(s5)
 225:C:/Users/stapi/OneDrive/Desktop/GD32VW553/V1_MQTT_OK/GD32VW55X_Wifi_BLE_SDK/GD32VW55x_RELEASE_V1.0.2/MSDK/lwip/lwip-2.1.2/src/api\netdb.c **** }
 316              		.loc 1 225 3 is_stmt 1
 225:C:/Users/stapi/OneDrive/Desktop/GD32VW553/V1_MQTT_OK/GD32VW55X_Wifi_BLE_SDK/GD32VW55x_RELEASE_V1.0.2/MSDK/lwip/lwip-2.1.2/src/api\netdb.c **** }
 317              		.loc 1 225 10 is_stmt 0
 318 00b0 0145     		li	a0,0
 319 00b2 9DBF     		j	.L5
 320              		.cfi_endproc
 321              	.LFE5:
 323              		.section	.text.lwip_freeaddrinfo,"ax",@progbits
 324              		.align	1
 325              		.globl	lwip_freeaddrinfo
 327              	lwip_freeaddrinfo:
 328              	.LFB6:
 227:C:/Users/stapi/OneDrive/Desktop/GD32VW553/V1_MQTT_OK/GD32VW55X_Wifi_BLE_SDK/GD32VW55x_RELEASE_V1.0.2/MSDK/lwip/lwip-2.1.2/src/api\netdb.c **** 
 228:C:/Users/stapi/OneDrive/Desktop/GD32VW553/V1_MQTT_OK/GD32VW55X_Wifi_BLE_SDK/GD32VW55x_RELEASE_V1.0.2/MSDK/lwip/lwip-2.1.2/src/api\netdb.c **** /**
 229:C:/Users/stapi/OneDrive/Desktop/GD32VW553/V1_MQTT_OK/GD32VW55X_Wifi_BLE_SDK/GD32VW55x_RELEASE_V1.0.2/MSDK/lwip/lwip-2.1.2/src/api\netdb.c ****  * Frees one or more addrinfo structures returned by getaddrinfo(), along with
 230:C:/Users/stapi/OneDrive/Desktop/GD32VW553/V1_MQTT_OK/GD32VW55X_Wifi_BLE_SDK/GD32VW55x_RELEASE_V1.0.2/MSDK/lwip/lwip-2.1.2/src/api\netdb.c ****  * any additional storage associated with those structures. If the ai_next field
 231:C:/Users/stapi/OneDrive/Desktop/GD32VW553/V1_MQTT_OK/GD32VW55X_Wifi_BLE_SDK/GD32VW55x_RELEASE_V1.0.2/MSDK/lwip/lwip-2.1.2/src/api\netdb.c ****  * of the structure is not null, the entire list of structures is freed.
 232:C:/Users/stapi/OneDrive/Desktop/GD32VW553/V1_MQTT_OK/GD32VW55X_Wifi_BLE_SDK/GD32VW55x_RELEASE_V1.0.2/MSDK/lwip/lwip-2.1.2/src/api\netdb.c ****  *
 233:C:/Users/stapi/OneDrive/Desktop/GD32VW553/V1_MQTT_OK/GD32VW55X_Wifi_BLE_SDK/GD32VW55x_RELEASE_V1.0.2/MSDK/lwip/lwip-2.1.2/src/api\netdb.c ****  * @param ai struct addrinfo to free
 234:C:/Users/stapi/OneDrive/Desktop/GD32VW553/V1_MQTT_OK/GD32VW55X_Wifi_BLE_SDK/GD32VW55x_RELEASE_V1.0.2/MSDK/lwip/lwip-2.1.2/src/api\netdb.c ****  */
 235:C:/Users/stapi/OneDrive/Desktop/GD32VW553/V1_MQTT_OK/GD32VW55X_Wifi_BLE_SDK/GD32VW55x_RELEASE_V1.0.2/MSDK/lwip/lwip-2.1.2/src/api\netdb.c **** void
 236:C:/Users/stapi/OneDrive/Desktop/GD32VW553/V1_MQTT_OK/GD32VW55X_Wifi_BLE_SDK/GD32VW55x_RELEASE_V1.0.2/MSDK/lwip/lwip-2.1.2/src/api\netdb.c **** lwip_freeaddrinfo(struct addrinfo *ai)
 237:C:/Users/stapi/OneDrive/Desktop/GD32VW553/V1_MQTT_OK/GD32VW55X_Wifi_BLE_SDK/GD32VW55x_RELEASE_V1.0.2/MSDK/lwip/lwip-2.1.2/src/api\netdb.c **** {
 329              		.loc 1 237 1 is_stmt 1
 330              		.cfi_startproc
 331              	.LVL21:
 238:C:/Users/stapi/OneDrive/Desktop/GD32VW553/V1_MQTT_OK/GD32VW55X_Wifi_BLE_SDK/GD32VW55x_RELEASE_V1.0.2/MSDK/lwip/lwip-2.1.2/src/api\netdb.c ****   struct addrinfo *next;
 332              		.loc 1 238 3
 239:C:/Users/stapi/OneDrive/Desktop/GD32VW553/V1_MQTT_OK/GD32VW55X_Wifi_BLE_SDK/GD32VW55x_RELEASE_V1.0.2/MSDK/lwip/lwip-2.1.2/src/api\netdb.c **** 
 240:C:/Users/stapi/OneDrive/Desktop/GD32VW553/V1_MQTT_OK/GD32VW55X_Wifi_BLE_SDK/GD32VW55x_RELEASE_V1.0.2/MSDK/lwip/lwip-2.1.2/src/api\netdb.c ****   while (ai != NULL) {
 333              		.loc 1 240 3
 334              		.loc 1 240 9
 237:C:/Users/stapi/OneDrive/Desktop/GD32VW553/V1_MQTT_OK/GD32VW55X_Wifi_BLE_SDK/GD32VW55x_RELEASE_V1.0.2/MSDK/lwip/lwip-2.1.2/src/api\netdb.c ****   struct addrinfo *next;
 335              		.loc 1 237 1 is_stmt 0
 336 0000 AA85     		mv	a1,a0
 337              		.loc 1 240 9
 338 0002 11E1     		bne	a0,zero,.L27
 339 0004 8280     		ret
 340              	.L27:
 237:C:/Users/stapi/OneDrive/Desktop/GD32VW553/V1_MQTT_OK/GD32VW55X_Wifi_BLE_SDK/GD32VW55x_RELEASE_V1.0.2/MSDK/lwip/lwip-2.1.2/src/api\netdb.c ****   struct addrinfo *next;
 341              		.loc 1 237 1
 342 0006 17030000 		call	t0,__riscv_save_1
 342      E7020300 
 343              		.cfi_offset 8, -8
 344              		.cfi_offset 1, -4
 345              		.cfi_def_cfa_offset 16
 346              	.LVL22:
 347              	.L24:
 241:C:/Users/stapi/OneDrive/Desktop/GD32VW553/V1_MQTT_OK/GD32VW55X_Wifi_BLE_SDK/GD32VW55x_RELEASE_V1.0.2/MSDK/lwip/lwip-2.1.2/src/api\netdb.c ****     next = ai->ai_next;
 348              		.loc 1 241 5 is_stmt 1
 349              		.loc 1 241 10 is_stmt 0
 350 000e C04D     		lw	s0,28(a1)
 351              	.LVL23:
 242:C:/Users/stapi/OneDrive/Desktop/GD32VW553/V1_MQTT_OK/GD32VW55X_Wifi_BLE_SDK/GD32VW55x_RELEASE_V1.0.2/MSDK/lwip/lwip-2.1.2/src/api\netdb.c ****     memp_free(MEMP_NETDB, ai);
 352              		.loc 1 242 5 is_stmt 1
 353 0010 3945     		li	a0,14
 354 0012 97000000 		call	memp_free
 354      E7800000 
 355              	.LVL24:
 243:C:/Users/stapi/OneDrive/Desktop/GD32VW553/V1_MQTT_OK/GD32VW55X_Wifi_BLE_SDK/GD32VW55x_RELEASE_V1.0.2/MSDK/lwip/lwip-2.1.2/src/api\netdb.c ****     ai = next;
 356              		.loc 1 243 5
 357              		.loc 1 243 8 is_stmt 0
 358 001a A285     		mv	a1,s0
 240:C:/Users/stapi/OneDrive/Desktop/GD32VW553/V1_MQTT_OK/GD32VW55X_Wifi_BLE_SDK/GD32VW55x_RELEASE_V1.0.2/MSDK/lwip/lwip-2.1.2/src/api\netdb.c ****     next = ai->ai_next;
 359              		.loc 1 240 9 is_stmt 1
 360 001c 6DF8     		bne	s0,zero,.L24
 244:C:/Users/stapi/OneDrive/Desktop/GD32VW553/V1_MQTT_OK/GD32VW55X_Wifi_BLE_SDK/GD32VW55x_RELEASE_V1.0.2/MSDK/lwip/lwip-2.1.2/src/api\netdb.c ****   }
 245:C:/Users/stapi/OneDrive/Desktop/GD32VW553/V1_MQTT_OK/GD32VW55X_Wifi_BLE_SDK/GD32VW55x_RELEASE_V1.0.2/MSDK/lwip/lwip-2.1.2/src/api\netdb.c **** }
 361              		.loc 1 245 1 is_stmt 0
 362 001e 17030000 		tail	__riscv_restore_1
 362      67000300 
 363              		.cfi_restore 8
 364              		.cfi_restore 1
 365              		.cfi_def_cfa_offset 0
 366              		.cfi_endproc
 367              	.LFE6:
 369              		.section	.text.lwip_getaddrinfo,"ax",@progbits
 370              		.align	1
 371              		.globl	lwip_getaddrinfo
 373              	lwip_getaddrinfo:
 374              	.LFB7:
 246:C:/Users/stapi/OneDrive/Desktop/GD32VW553/V1_MQTT_OK/GD32VW55X_Wifi_BLE_SDK/GD32VW55x_RELEASE_V1.0.2/MSDK/lwip/lwip-2.1.2/src/api\netdb.c **** 
 247:C:/Users/stapi/OneDrive/Desktop/GD32VW553/V1_MQTT_OK/GD32VW55X_Wifi_BLE_SDK/GD32VW55x_RELEASE_V1.0.2/MSDK/lwip/lwip-2.1.2/src/api\netdb.c **** /**
 248:C:/Users/stapi/OneDrive/Desktop/GD32VW553/V1_MQTT_OK/GD32VW55X_Wifi_BLE_SDK/GD32VW55x_RELEASE_V1.0.2/MSDK/lwip/lwip-2.1.2/src/api\netdb.c ****  * Translates the name of a service location (for example, a host name) and/or
 249:C:/Users/stapi/OneDrive/Desktop/GD32VW553/V1_MQTT_OK/GD32VW55X_Wifi_BLE_SDK/GD32VW55x_RELEASE_V1.0.2/MSDK/lwip/lwip-2.1.2/src/api\netdb.c ****  * a service name and returns a set of socket addresses and associated
 250:C:/Users/stapi/OneDrive/Desktop/GD32VW553/V1_MQTT_OK/GD32VW55X_Wifi_BLE_SDK/GD32VW55x_RELEASE_V1.0.2/MSDK/lwip/lwip-2.1.2/src/api\netdb.c ****  * information to be used in creating a socket with which to address the
 251:C:/Users/stapi/OneDrive/Desktop/GD32VW553/V1_MQTT_OK/GD32VW55X_Wifi_BLE_SDK/GD32VW55x_RELEASE_V1.0.2/MSDK/lwip/lwip-2.1.2/src/api\netdb.c ****  * specified service.
 252:C:/Users/stapi/OneDrive/Desktop/GD32VW553/V1_MQTT_OK/GD32VW55X_Wifi_BLE_SDK/GD32VW55x_RELEASE_V1.0.2/MSDK/lwip/lwip-2.1.2/src/api\netdb.c ****  * Memory for the result is allocated internally and must be freed by calling
 253:C:/Users/stapi/OneDrive/Desktop/GD32VW553/V1_MQTT_OK/GD32VW55X_Wifi_BLE_SDK/GD32VW55x_RELEASE_V1.0.2/MSDK/lwip/lwip-2.1.2/src/api\netdb.c ****  * lwip_freeaddrinfo()!
 254:C:/Users/stapi/OneDrive/Desktop/GD32VW553/V1_MQTT_OK/GD32VW55X_Wifi_BLE_SDK/GD32VW55x_RELEASE_V1.0.2/MSDK/lwip/lwip-2.1.2/src/api\netdb.c ****  *
 255:C:/Users/stapi/OneDrive/Desktop/GD32VW553/V1_MQTT_OK/GD32VW55X_Wifi_BLE_SDK/GD32VW55x_RELEASE_V1.0.2/MSDK/lwip/lwip-2.1.2/src/api\netdb.c ****  * Due to a limitation in dns_gethostbyname, only the first address of a
 256:C:/Users/stapi/OneDrive/Desktop/GD32VW553/V1_MQTT_OK/GD32VW55X_Wifi_BLE_SDK/GD32VW55x_RELEASE_V1.0.2/MSDK/lwip/lwip-2.1.2/src/api\netdb.c ****  * host is returned.
 257:C:/Users/stapi/OneDrive/Desktop/GD32VW553/V1_MQTT_OK/GD32VW55X_Wifi_BLE_SDK/GD32VW55x_RELEASE_V1.0.2/MSDK/lwip/lwip-2.1.2/src/api\netdb.c ****  * Also, service names are not supported (only port numbers)!
 258:C:/Users/stapi/OneDrive/Desktop/GD32VW553/V1_MQTT_OK/GD32VW55X_Wifi_BLE_SDK/GD32VW55x_RELEASE_V1.0.2/MSDK/lwip/lwip-2.1.2/src/api\netdb.c ****  *
 259:C:/Users/stapi/OneDrive/Desktop/GD32VW553/V1_MQTT_OK/GD32VW55X_Wifi_BLE_SDK/GD32VW55x_RELEASE_V1.0.2/MSDK/lwip/lwip-2.1.2/src/api\netdb.c ****  * @param nodename descriptive name or address string of the host
 260:C:/Users/stapi/OneDrive/Desktop/GD32VW553/V1_MQTT_OK/GD32VW55X_Wifi_BLE_SDK/GD32VW55x_RELEASE_V1.0.2/MSDK/lwip/lwip-2.1.2/src/api\netdb.c ****  *                 (may be NULL -> local address)
 261:C:/Users/stapi/OneDrive/Desktop/GD32VW553/V1_MQTT_OK/GD32VW55X_Wifi_BLE_SDK/GD32VW55x_RELEASE_V1.0.2/MSDK/lwip/lwip-2.1.2/src/api\netdb.c ****  * @param servname port number as string of NULL
 262:C:/Users/stapi/OneDrive/Desktop/GD32VW553/V1_MQTT_OK/GD32VW55X_Wifi_BLE_SDK/GD32VW55x_RELEASE_V1.0.2/MSDK/lwip/lwip-2.1.2/src/api\netdb.c ****  * @param hints structure containing input values that set socktype and protocol
 263:C:/Users/stapi/OneDrive/Desktop/GD32VW553/V1_MQTT_OK/GD32VW55X_Wifi_BLE_SDK/GD32VW55x_RELEASE_V1.0.2/MSDK/lwip/lwip-2.1.2/src/api\netdb.c ****  * @param res pointer to a pointer where to store the result (set to NULL on failure)
 264:C:/Users/stapi/OneDrive/Desktop/GD32VW553/V1_MQTT_OK/GD32VW55X_Wifi_BLE_SDK/GD32VW55x_RELEASE_V1.0.2/MSDK/lwip/lwip-2.1.2/src/api\netdb.c ****  * @return 0 on success, non-zero on failure
 265:C:/Users/stapi/OneDrive/Desktop/GD32VW553/V1_MQTT_OK/GD32VW55X_Wifi_BLE_SDK/GD32VW55x_RELEASE_V1.0.2/MSDK/lwip/lwip-2.1.2/src/api\netdb.c ****  *
 266:C:/Users/stapi/OneDrive/Desktop/GD32VW553/V1_MQTT_OK/GD32VW55X_Wifi_BLE_SDK/GD32VW55x_RELEASE_V1.0.2/MSDK/lwip/lwip-2.1.2/src/api\netdb.c ****  * @todo: implement AI_V4MAPPED, AI_ADDRCONFIG
 267:C:/Users/stapi/OneDrive/Desktop/GD32VW553/V1_MQTT_OK/GD32VW55X_Wifi_BLE_SDK/GD32VW55x_RELEASE_V1.0.2/MSDK/lwip/lwip-2.1.2/src/api\netdb.c ****  */
 268:C:/Users/stapi/OneDrive/Desktop/GD32VW553/V1_MQTT_OK/GD32VW55X_Wifi_BLE_SDK/GD32VW55x_RELEASE_V1.0.2/MSDK/lwip/lwip-2.1.2/src/api\netdb.c **** int
 269:C:/Users/stapi/OneDrive/Desktop/GD32VW553/V1_MQTT_OK/GD32VW55X_Wifi_BLE_SDK/GD32VW55x_RELEASE_V1.0.2/MSDK/lwip/lwip-2.1.2/src/api\netdb.c **** lwip_getaddrinfo(const char *nodename, const char *servname,
 270:C:/Users/stapi/OneDrive/Desktop/GD32VW553/V1_MQTT_OK/GD32VW55X_Wifi_BLE_SDK/GD32VW55x_RELEASE_V1.0.2/MSDK/lwip/lwip-2.1.2/src/api\netdb.c ****                  const struct addrinfo *hints, struct addrinfo **res)
 271:C:/Users/stapi/OneDrive/Desktop/GD32VW553/V1_MQTT_OK/GD32VW55X_Wifi_BLE_SDK/GD32VW55x_RELEASE_V1.0.2/MSDK/lwip/lwip-2.1.2/src/api\netdb.c **** {
 375              		.loc 1 271 1 is_stmt 1
 376              		.cfi_startproc
 377              	.LVL25:
 272:C:/Users/stapi/OneDrive/Desktop/GD32VW553/V1_MQTT_OK/GD32VW55X_Wifi_BLE_SDK/GD32VW55x_RELEASE_V1.0.2/MSDK/lwip/lwip-2.1.2/src/api\netdb.c ****   err_t err;
 378              		.loc 1 272 3
 273:C:/Users/stapi/OneDrive/Desktop/GD32VW553/V1_MQTT_OK/GD32VW55X_Wifi_BLE_SDK/GD32VW55x_RELEASE_V1.0.2/MSDK/lwip/lwip-2.1.2/src/api\netdb.c ****   ip_addr_t addr;
 379              		.loc 1 273 3
 274:C:/Users/stapi/OneDrive/Desktop/GD32VW553/V1_MQTT_OK/GD32VW55X_Wifi_BLE_SDK/GD32VW55x_RELEASE_V1.0.2/MSDK/lwip/lwip-2.1.2/src/api\netdb.c ****   struct addrinfo *ai;
 380              		.loc 1 274 3
 275:C:/Users/stapi/OneDrive/Desktop/GD32VW553/V1_MQTT_OK/GD32VW55X_Wifi_BLE_SDK/GD32VW55x_RELEASE_V1.0.2/MSDK/lwip/lwip-2.1.2/src/api\netdb.c ****   struct sockaddr_storage *sa = NULL;
 381              		.loc 1 275 3
 276:C:/Users/stapi/OneDrive/Desktop/GD32VW553/V1_MQTT_OK/GD32VW55X_Wifi_BLE_SDK/GD32VW55x_RELEASE_V1.0.2/MSDK/lwip/lwip-2.1.2/src/api\netdb.c ****   int port_nr = 0;
 382              		.loc 1 276 3
 277:C:/Users/stapi/OneDrive/Desktop/GD32VW553/V1_MQTT_OK/GD32VW55X_Wifi_BLE_SDK/GD32VW55x_RELEASE_V1.0.2/MSDK/lwip/lwip-2.1.2/src/api\netdb.c ****   size_t total_size;
 383              		.loc 1 277 3
 278:C:/Users/stapi/OneDrive/Desktop/GD32VW553/V1_MQTT_OK/GD32VW55X_Wifi_BLE_SDK/GD32VW55x_RELEASE_V1.0.2/MSDK/lwip/lwip-2.1.2/src/api\netdb.c ****   size_t namelen = 0;
 384              		.loc 1 278 3
 279:C:/Users/stapi/OneDrive/Desktop/GD32VW553/V1_MQTT_OK/GD32VW55X_Wifi_BLE_SDK/GD32VW55x_RELEASE_V1.0.2/MSDK/lwip/lwip-2.1.2/src/api\netdb.c ****   int ai_family;
 385              		.loc 1 279 3
 280:C:/Users/stapi/OneDrive/Desktop/GD32VW553/V1_MQTT_OK/GD32VW55X_Wifi_BLE_SDK/GD32VW55x_RELEASE_V1.0.2/MSDK/lwip/lwip-2.1.2/src/api\netdb.c **** 
 281:C:/Users/stapi/OneDrive/Desktop/GD32VW553/V1_MQTT_OK/GD32VW55X_Wifi_BLE_SDK/GD32VW55x_RELEASE_V1.0.2/MSDK/lwip/lwip-2.1.2/src/api\netdb.c ****   if (res == NULL) {
 386              		.loc 1 281 3
 387              		.loc 1 281 6 is_stmt 0
 388 0000 89E6     		bne	a3,zero,.L29
 282:C:/Users/stapi/OneDrive/Desktop/GD32VW553/V1_MQTT_OK/GD32VW55X_Wifi_BLE_SDK/GD32VW55x_RELEASE_V1.0.2/MSDK/lwip/lwip-2.1.2/src/api\netdb.c ****     return EAI_FAIL;
 389              		.loc 1 282 12
 390 0002 9307A00C 		li	a5,202
 283:C:/Users/stapi/OneDrive/Desktop/GD32VW553/V1_MQTT_OK/GD32VW55X_Wifi_BLE_SDK/GD32VW55x_RELEASE_V1.0.2/MSDK/lwip/lwip-2.1.2/src/api\netdb.c ****   }
 284:C:/Users/stapi/OneDrive/Desktop/GD32VW553/V1_MQTT_OK/GD32VW55X_Wifi_BLE_SDK/GD32VW55x_RELEASE_V1.0.2/MSDK/lwip/lwip-2.1.2/src/api\netdb.c ****   *res = NULL;
 285:C:/Users/stapi/OneDrive/Desktop/GD32VW553/V1_MQTT_OK/GD32VW55X_Wifi_BLE_SDK/GD32VW55x_RELEASE_V1.0.2/MSDK/lwip/lwip-2.1.2/src/api\netdb.c ****   if ((nodename == NULL) && (servname == NULL)) {
 286:C:/Users/stapi/OneDrive/Desktop/GD32VW553/V1_MQTT_OK/GD32VW55X_Wifi_BLE_SDK/GD32VW55x_RELEASE_V1.0.2/MSDK/lwip/lwip-2.1.2/src/api\netdb.c ****     return EAI_NONAME;
 287:C:/Users/stapi/OneDrive/Desktop/GD32VW553/V1_MQTT_OK/GD32VW55X_Wifi_BLE_SDK/GD32VW55x_RELEASE_V1.0.2/MSDK/lwip/lwip-2.1.2/src/api\netdb.c ****   }
 288:C:/Users/stapi/OneDrive/Desktop/GD32VW553/V1_MQTT_OK/GD32VW55X_Wifi_BLE_SDK/GD32VW55x_RELEASE_V1.0.2/MSDK/lwip/lwip-2.1.2/src/api\netdb.c **** 
 289:C:/Users/stapi/OneDrive/Desktop/GD32VW553/V1_MQTT_OK/GD32VW55X_Wifi_BLE_SDK/GD32VW55x_RELEASE_V1.0.2/MSDK/lwip/lwip-2.1.2/src/api\netdb.c ****   if (hints != NULL) {
 290:C:/Users/stapi/OneDrive/Desktop/GD32VW553/V1_MQTT_OK/GD32VW55X_Wifi_BLE_SDK/GD32VW55x_RELEASE_V1.0.2/MSDK/lwip/lwip-2.1.2/src/api\netdb.c ****     ai_family = hints->ai_family;
 291:C:/Users/stapi/OneDrive/Desktop/GD32VW553/V1_MQTT_OK/GD32VW55X_Wifi_BLE_SDK/GD32VW55x_RELEASE_V1.0.2/MSDK/lwip/lwip-2.1.2/src/api\netdb.c ****     if ((ai_family != AF_UNSPEC)
 292:C:/Users/stapi/OneDrive/Desktop/GD32VW553/V1_MQTT_OK/GD32VW55X_Wifi_BLE_SDK/GD32VW55x_RELEASE_V1.0.2/MSDK/lwip/lwip-2.1.2/src/api\netdb.c **** #if LWIP_IPV4
 293:C:/Users/stapi/OneDrive/Desktop/GD32VW553/V1_MQTT_OK/GD32VW55X_Wifi_BLE_SDK/GD32VW55x_RELEASE_V1.0.2/MSDK/lwip/lwip-2.1.2/src/api\netdb.c ****         && (ai_family != AF_INET)
 294:C:/Users/stapi/OneDrive/Desktop/GD32VW553/V1_MQTT_OK/GD32VW55X_Wifi_BLE_SDK/GD32VW55x_RELEASE_V1.0.2/MSDK/lwip/lwip-2.1.2/src/api\netdb.c **** #endif /* LWIP_IPV4 */
 295:C:/Users/stapi/OneDrive/Desktop/GD32VW553/V1_MQTT_OK/GD32VW55X_Wifi_BLE_SDK/GD32VW55x_RELEASE_V1.0.2/MSDK/lwip/lwip-2.1.2/src/api\netdb.c **** #if LWIP_IPV6
 296:C:/Users/stapi/OneDrive/Desktop/GD32VW553/V1_MQTT_OK/GD32VW55X_Wifi_BLE_SDK/GD32VW55x_RELEASE_V1.0.2/MSDK/lwip/lwip-2.1.2/src/api\netdb.c ****         && (ai_family != AF_INET6)
 297:C:/Users/stapi/OneDrive/Desktop/GD32VW553/V1_MQTT_OK/GD32VW55X_Wifi_BLE_SDK/GD32VW55x_RELEASE_V1.0.2/MSDK/lwip/lwip-2.1.2/src/api\netdb.c **** #endif /* LWIP_IPV6 */
 298:C:/Users/stapi/OneDrive/Desktop/GD32VW553/V1_MQTT_OK/GD32VW55X_Wifi_BLE_SDK/GD32VW55x_RELEASE_V1.0.2/MSDK/lwip/lwip-2.1.2/src/api\netdb.c ****        ) {
 299:C:/Users/stapi/OneDrive/Desktop/GD32VW553/V1_MQTT_OK/GD32VW55X_Wifi_BLE_SDK/GD32VW55x_RELEASE_V1.0.2/MSDK/lwip/lwip-2.1.2/src/api\netdb.c ****       return EAI_FAMILY;
 300:C:/Users/stapi/OneDrive/Desktop/GD32VW553/V1_MQTT_OK/GD32VW55X_Wifi_BLE_SDK/GD32VW55x_RELEASE_V1.0.2/MSDK/lwip/lwip-2.1.2/src/api\netdb.c ****     }
 301:C:/Users/stapi/OneDrive/Desktop/GD32VW553/V1_MQTT_OK/GD32VW55X_Wifi_BLE_SDK/GD32VW55x_RELEASE_V1.0.2/MSDK/lwip/lwip-2.1.2/src/api\netdb.c ****   } else {
 302:C:/Users/stapi/OneDrive/Desktop/GD32VW553/V1_MQTT_OK/GD32VW55X_Wifi_BLE_SDK/GD32VW55x_RELEASE_V1.0.2/MSDK/lwip/lwip-2.1.2/src/api\netdb.c ****     ai_family = AF_UNSPEC;
 303:C:/Users/stapi/OneDrive/Desktop/GD32VW553/V1_MQTT_OK/GD32VW55X_Wifi_BLE_SDK/GD32VW55x_RELEASE_V1.0.2/MSDK/lwip/lwip-2.1.2/src/api\netdb.c ****   }
 304:C:/Users/stapi/OneDrive/Desktop/GD32VW553/V1_MQTT_OK/GD32VW55X_Wifi_BLE_SDK/GD32VW55x_RELEASE_V1.0.2/MSDK/lwip/lwip-2.1.2/src/api\netdb.c **** 
 305:C:/Users/stapi/OneDrive/Desktop/GD32VW553/V1_MQTT_OK/GD32VW55X_Wifi_BLE_SDK/GD32VW55x_RELEASE_V1.0.2/MSDK/lwip/lwip-2.1.2/src/api\netdb.c ****   if (servname != NULL) {
 306:C:/Users/stapi/OneDrive/Desktop/GD32VW553/V1_MQTT_OK/GD32VW55X_Wifi_BLE_SDK/GD32VW55x_RELEASE_V1.0.2/MSDK/lwip/lwip-2.1.2/src/api\netdb.c ****     /* service name specified: convert to port number
 307:C:/Users/stapi/OneDrive/Desktop/GD32VW553/V1_MQTT_OK/GD32VW55X_Wifi_BLE_SDK/GD32VW55x_RELEASE_V1.0.2/MSDK/lwip/lwip-2.1.2/src/api\netdb.c ****      * @todo?: currently, only ASCII integers (port numbers) are supported (AI_NUMERICSERV)! */
 308:C:/Users/stapi/OneDrive/Desktop/GD32VW553/V1_MQTT_OK/GD32VW55X_Wifi_BLE_SDK/GD32VW55x_RELEASE_V1.0.2/MSDK/lwip/lwip-2.1.2/src/api\netdb.c ****     port_nr = atoi(servname);
 309:C:/Users/stapi/OneDrive/Desktop/GD32VW553/V1_MQTT_OK/GD32VW55X_Wifi_BLE_SDK/GD32VW55x_RELEASE_V1.0.2/MSDK/lwip/lwip-2.1.2/src/api\netdb.c ****     if ((port_nr <= 0) || (port_nr > 0xffff)) {
 310:C:/Users/stapi/OneDrive/Desktop/GD32VW553/V1_MQTT_OK/GD32VW55X_Wifi_BLE_SDK/GD32VW55x_RELEASE_V1.0.2/MSDK/lwip/lwip-2.1.2/src/api\netdb.c ****       return EAI_SERVICE;
 311:C:/Users/stapi/OneDrive/Desktop/GD32VW553/V1_MQTT_OK/GD32VW55X_Wifi_BLE_SDK/GD32VW55x_RELEASE_V1.0.2/MSDK/lwip/lwip-2.1.2/src/api\netdb.c ****     }
 312:C:/Users/stapi/OneDrive/Desktop/GD32VW553/V1_MQTT_OK/GD32VW55X_Wifi_BLE_SDK/GD32VW55x_RELEASE_V1.0.2/MSDK/lwip/lwip-2.1.2/src/api\netdb.c ****   }
 313:C:/Users/stapi/OneDrive/Desktop/GD32VW553/V1_MQTT_OK/GD32VW55X_Wifi_BLE_SDK/GD32VW55x_RELEASE_V1.0.2/MSDK/lwip/lwip-2.1.2/src/api\netdb.c **** 
 314:C:/Users/stapi/OneDrive/Desktop/GD32VW553/V1_MQTT_OK/GD32VW55X_Wifi_BLE_SDK/GD32VW55x_RELEASE_V1.0.2/MSDK/lwip/lwip-2.1.2/src/api\netdb.c ****   if (nodename != NULL) {
 315:C:/Users/stapi/OneDrive/Desktop/GD32VW553/V1_MQTT_OK/GD32VW55X_Wifi_BLE_SDK/GD32VW55x_RELEASE_V1.0.2/MSDK/lwip/lwip-2.1.2/src/api\netdb.c ****     /* service location specified, try to resolve */
 316:C:/Users/stapi/OneDrive/Desktop/GD32VW553/V1_MQTT_OK/GD32VW55X_Wifi_BLE_SDK/GD32VW55x_RELEASE_V1.0.2/MSDK/lwip/lwip-2.1.2/src/api\netdb.c ****     if ((hints != NULL) && (hints->ai_flags & AI_NUMERICHOST)) {
 317:C:/Users/stapi/OneDrive/Desktop/GD32VW553/V1_MQTT_OK/GD32VW55X_Wifi_BLE_SDK/GD32VW55x_RELEASE_V1.0.2/MSDK/lwip/lwip-2.1.2/src/api\netdb.c ****       /* no DNS lookup, just parse for an address string */
 318:C:/Users/stapi/OneDrive/Desktop/GD32VW553/V1_MQTT_OK/GD32VW55X_Wifi_BLE_SDK/GD32VW55x_RELEASE_V1.0.2/MSDK/lwip/lwip-2.1.2/src/api\netdb.c ****       if (!ipaddr_aton(nodename, &addr)) {
 319:C:/Users/stapi/OneDrive/Desktop/GD32VW553/V1_MQTT_OK/GD32VW55X_Wifi_BLE_SDK/GD32VW55x_RELEASE_V1.0.2/MSDK/lwip/lwip-2.1.2/src/api\netdb.c ****         return EAI_NONAME;
 320:C:/Users/stapi/OneDrive/Desktop/GD32VW553/V1_MQTT_OK/GD32VW55X_Wifi_BLE_SDK/GD32VW55x_RELEASE_V1.0.2/MSDK/lwip/lwip-2.1.2/src/api\netdb.c ****       }
 321:C:/Users/stapi/OneDrive/Desktop/GD32VW553/V1_MQTT_OK/GD32VW55X_Wifi_BLE_SDK/GD32VW55x_RELEASE_V1.0.2/MSDK/lwip/lwip-2.1.2/src/api\netdb.c **** #if LWIP_IPV4 && LWIP_IPV6
 322:C:/Users/stapi/OneDrive/Desktop/GD32VW553/V1_MQTT_OK/GD32VW55X_Wifi_BLE_SDK/GD32VW55x_RELEASE_V1.0.2/MSDK/lwip/lwip-2.1.2/src/api\netdb.c ****       if ((IP_IS_V6_VAL(addr) && ai_family == AF_INET) ||
 323:C:/Users/stapi/OneDrive/Desktop/GD32VW553/V1_MQTT_OK/GD32VW55X_Wifi_BLE_SDK/GD32VW55x_RELEASE_V1.0.2/MSDK/lwip/lwip-2.1.2/src/api\netdb.c ****           (IP_IS_V4_VAL(addr) && ai_family == AF_INET6)) {
 324:C:/Users/stapi/OneDrive/Desktop/GD32VW553/V1_MQTT_OK/GD32VW55X_Wifi_BLE_SDK/GD32VW55x_RELEASE_V1.0.2/MSDK/lwip/lwip-2.1.2/src/api\netdb.c ****         return EAI_NONAME;
 325:C:/Users/stapi/OneDrive/Desktop/GD32VW553/V1_MQTT_OK/GD32VW55X_Wifi_BLE_SDK/GD32VW55x_RELEASE_V1.0.2/MSDK/lwip/lwip-2.1.2/src/api\netdb.c ****       }
 326:C:/Users/stapi/OneDrive/Desktop/GD32VW553/V1_MQTT_OK/GD32VW55X_Wifi_BLE_SDK/GD32VW55x_RELEASE_V1.0.2/MSDK/lwip/lwip-2.1.2/src/api\netdb.c **** #endif /* LWIP_IPV4 && LWIP_IPV6 */
 327:C:/Users/stapi/OneDrive/Desktop/GD32VW553/V1_MQTT_OK/GD32VW55X_Wifi_BLE_SDK/GD32VW55x_RELEASE_V1.0.2/MSDK/lwip/lwip-2.1.2/src/api\netdb.c ****     } else {
 328:C:/Users/stapi/OneDrive/Desktop/GD32VW553/V1_MQTT_OK/GD32VW55X_Wifi_BLE_SDK/GD32VW55x_RELEASE_V1.0.2/MSDK/lwip/lwip-2.1.2/src/api\netdb.c **** #if LWIP_IPV4 && LWIP_IPV6
 329:C:/Users/stapi/OneDrive/Desktop/GD32VW553/V1_MQTT_OK/GD32VW55X_Wifi_BLE_SDK/GD32VW55x_RELEASE_V1.0.2/MSDK/lwip/lwip-2.1.2/src/api\netdb.c ****       /* AF_UNSPEC: prefer IPv4 */
 330:C:/Users/stapi/OneDrive/Desktop/GD32VW553/V1_MQTT_OK/GD32VW55X_Wifi_BLE_SDK/GD32VW55x_RELEASE_V1.0.2/MSDK/lwip/lwip-2.1.2/src/api\netdb.c ****       u8_t type = NETCONN_DNS_IPV4_IPV6;
 331:C:/Users/stapi/OneDrive/Desktop/GD32VW553/V1_MQTT_OK/GD32VW55X_Wifi_BLE_SDK/GD32VW55x_RELEASE_V1.0.2/MSDK/lwip/lwip-2.1.2/src/api\netdb.c ****       if (ai_family == AF_INET) {
 332:C:/Users/stapi/OneDrive/Desktop/GD32VW553/V1_MQTT_OK/GD32VW55X_Wifi_BLE_SDK/GD32VW55x_RELEASE_V1.0.2/MSDK/lwip/lwip-2.1.2/src/api\netdb.c ****         type = NETCONN_DNS_IPV4;
 333:C:/Users/stapi/OneDrive/Desktop/GD32VW553/V1_MQTT_OK/GD32VW55X_Wifi_BLE_SDK/GD32VW55x_RELEASE_V1.0.2/MSDK/lwip/lwip-2.1.2/src/api\netdb.c ****       } else if (ai_family == AF_INET6) {
 334:C:/Users/stapi/OneDrive/Desktop/GD32VW553/V1_MQTT_OK/GD32VW55X_Wifi_BLE_SDK/GD32VW55x_RELEASE_V1.0.2/MSDK/lwip/lwip-2.1.2/src/api\netdb.c ****         type = NETCONN_DNS_IPV6;
 335:C:/Users/stapi/OneDrive/Desktop/GD32VW553/V1_MQTT_OK/GD32VW55X_Wifi_BLE_SDK/GD32VW55x_RELEASE_V1.0.2/MSDK/lwip/lwip-2.1.2/src/api\netdb.c ****       }
 336:C:/Users/stapi/OneDrive/Desktop/GD32VW553/V1_MQTT_OK/GD32VW55X_Wifi_BLE_SDK/GD32VW55x_RELEASE_V1.0.2/MSDK/lwip/lwip-2.1.2/src/api\netdb.c **** #endif /* LWIP_IPV4 && LWIP_IPV6 */
 337:C:/Users/stapi/OneDrive/Desktop/GD32VW553/V1_MQTT_OK/GD32VW55X_Wifi_BLE_SDK/GD32VW55x_RELEASE_V1.0.2/MSDK/lwip/lwip-2.1.2/src/api\netdb.c ****       err = netconn_gethostbyname_addrtype(nodename, &addr, type);
 338:C:/Users/stapi/OneDrive/Desktop/GD32VW553/V1_MQTT_OK/GD32VW55X_Wifi_BLE_SDK/GD32VW55x_RELEASE_V1.0.2/MSDK/lwip/lwip-2.1.2/src/api\netdb.c ****       if (err != ERR_OK) {
 339:C:/Users/stapi/OneDrive/Desktop/GD32VW553/V1_MQTT_OK/GD32VW55X_Wifi_BLE_SDK/GD32VW55x_RELEASE_V1.0.2/MSDK/lwip/lwip-2.1.2/src/api\netdb.c ****         return EAI_FAIL;
 340:C:/Users/stapi/OneDrive/Desktop/GD32VW553/V1_MQTT_OK/GD32VW55X_Wifi_BLE_SDK/GD32VW55x_RELEASE_V1.0.2/MSDK/lwip/lwip-2.1.2/src/api\netdb.c ****       }
 341:C:/Users/stapi/OneDrive/Desktop/GD32VW553/V1_MQTT_OK/GD32VW55X_Wifi_BLE_SDK/GD32VW55x_RELEASE_V1.0.2/MSDK/lwip/lwip-2.1.2/src/api\netdb.c ****     }
 342:C:/Users/stapi/OneDrive/Desktop/GD32VW553/V1_MQTT_OK/GD32VW55X_Wifi_BLE_SDK/GD32VW55x_RELEASE_V1.0.2/MSDK/lwip/lwip-2.1.2/src/api\netdb.c ****   } else {
 343:C:/Users/stapi/OneDrive/Desktop/GD32VW553/V1_MQTT_OK/GD32VW55X_Wifi_BLE_SDK/GD32VW55x_RELEASE_V1.0.2/MSDK/lwip/lwip-2.1.2/src/api\netdb.c ****     /* service location specified, use loopback address */
 344:C:/Users/stapi/OneDrive/Desktop/GD32VW553/V1_MQTT_OK/GD32VW55X_Wifi_BLE_SDK/GD32VW55x_RELEASE_V1.0.2/MSDK/lwip/lwip-2.1.2/src/api\netdb.c ****     if ((hints != NULL) && (hints->ai_flags & AI_PASSIVE)) {
 345:C:/Users/stapi/OneDrive/Desktop/GD32VW553/V1_MQTT_OK/GD32VW55X_Wifi_BLE_SDK/GD32VW55x_RELEASE_V1.0.2/MSDK/lwip/lwip-2.1.2/src/api\netdb.c ****       ip_addr_set_any_val(ai_family == AF_INET6, addr);
 346:C:/Users/stapi/OneDrive/Desktop/GD32VW553/V1_MQTT_OK/GD32VW55X_Wifi_BLE_SDK/GD32VW55x_RELEASE_V1.0.2/MSDK/lwip/lwip-2.1.2/src/api\netdb.c ****     } else {
 347:C:/Users/stapi/OneDrive/Desktop/GD32VW553/V1_MQTT_OK/GD32VW55X_Wifi_BLE_SDK/GD32VW55x_RELEASE_V1.0.2/MSDK/lwip/lwip-2.1.2/src/api\netdb.c ****       ip_addr_set_loopback_val(ai_family == AF_INET6, addr);
 348:C:/Users/stapi/OneDrive/Desktop/GD32VW553/V1_MQTT_OK/GD32VW55X_Wifi_BLE_SDK/GD32VW55x_RELEASE_V1.0.2/MSDK/lwip/lwip-2.1.2/src/api\netdb.c ****     }
 349:C:/Users/stapi/OneDrive/Desktop/GD32VW553/V1_MQTT_OK/GD32VW55X_Wifi_BLE_SDK/GD32VW55x_RELEASE_V1.0.2/MSDK/lwip/lwip-2.1.2/src/api\netdb.c ****   }
 350:C:/Users/stapi/OneDrive/Desktop/GD32VW553/V1_MQTT_OK/GD32VW55X_Wifi_BLE_SDK/GD32VW55x_RELEASE_V1.0.2/MSDK/lwip/lwip-2.1.2/src/api\netdb.c **** 
 351:C:/Users/stapi/OneDrive/Desktop/GD32VW553/V1_MQTT_OK/GD32VW55X_Wifi_BLE_SDK/GD32VW55x_RELEASE_V1.0.2/MSDK/lwip/lwip-2.1.2/src/api\netdb.c ****   total_size = sizeof(struct addrinfo) + sizeof(struct sockaddr_storage);
 352:C:/Users/stapi/OneDrive/Desktop/GD32VW553/V1_MQTT_OK/GD32VW55X_Wifi_BLE_SDK/GD32VW55x_RELEASE_V1.0.2/MSDK/lwip/lwip-2.1.2/src/api\netdb.c ****   if (nodename != NULL) {
 353:C:/Users/stapi/OneDrive/Desktop/GD32VW553/V1_MQTT_OK/GD32VW55X_Wifi_BLE_SDK/GD32VW55x_RELEASE_V1.0.2/MSDK/lwip/lwip-2.1.2/src/api\netdb.c ****     namelen = strlen(nodename);
 354:C:/Users/stapi/OneDrive/Desktop/GD32VW553/V1_MQTT_OK/GD32VW55X_Wifi_BLE_SDK/GD32VW55x_RELEASE_V1.0.2/MSDK/lwip/lwip-2.1.2/src/api\netdb.c ****     if (namelen > DNS_MAX_NAME_LENGTH) {
 355:C:/Users/stapi/OneDrive/Desktop/GD32VW553/V1_MQTT_OK/GD32VW55X_Wifi_BLE_SDK/GD32VW55x_RELEASE_V1.0.2/MSDK/lwip/lwip-2.1.2/src/api\netdb.c ****       /* invalid name length */
 356:C:/Users/stapi/OneDrive/Desktop/GD32VW553/V1_MQTT_OK/GD32VW55X_Wifi_BLE_SDK/GD32VW55x_RELEASE_V1.0.2/MSDK/lwip/lwip-2.1.2/src/api\netdb.c ****       return EAI_FAIL;
 357:C:/Users/stapi/OneDrive/Desktop/GD32VW553/V1_MQTT_OK/GD32VW55X_Wifi_BLE_SDK/GD32VW55x_RELEASE_V1.0.2/MSDK/lwip/lwip-2.1.2/src/api\netdb.c ****     }
 358:C:/Users/stapi/OneDrive/Desktop/GD32VW553/V1_MQTT_OK/GD32VW55X_Wifi_BLE_SDK/GD32VW55x_RELEASE_V1.0.2/MSDK/lwip/lwip-2.1.2/src/api\netdb.c ****     LWIP_ASSERT("namelen is too long", total_size + namelen + 1 > total_size);
 359:C:/Users/stapi/OneDrive/Desktop/GD32VW553/V1_MQTT_OK/GD32VW55X_Wifi_BLE_SDK/GD32VW55x_RELEASE_V1.0.2/MSDK/lwip/lwip-2.1.2/src/api\netdb.c ****     total_size += namelen + 1;
 360:C:/Users/stapi/OneDrive/Desktop/GD32VW553/V1_MQTT_OK/GD32VW55X_Wifi_BLE_SDK/GD32VW55x_RELEASE_V1.0.2/MSDK/lwip/lwip-2.1.2/src/api\netdb.c ****   }
 361:C:/Users/stapi/OneDrive/Desktop/GD32VW553/V1_MQTT_OK/GD32VW55X_Wifi_BLE_SDK/GD32VW55x_RELEASE_V1.0.2/MSDK/lwip/lwip-2.1.2/src/api\netdb.c ****   /* If this fails, please report to lwip-devel! :-) */
 362:C:/Users/stapi/OneDrive/Desktop/GD32VW553/V1_MQTT_OK/GD32VW55X_Wifi_BLE_SDK/GD32VW55x_RELEASE_V1.0.2/MSDK/lwip/lwip-2.1.2/src/api\netdb.c ****   LWIP_ASSERT("total_size <= NETDB_ELEM_SIZE: please report this!",
 363:C:/Users/stapi/OneDrive/Desktop/GD32VW553/V1_MQTT_OK/GD32VW55X_Wifi_BLE_SDK/GD32VW55x_RELEASE_V1.0.2/MSDK/lwip/lwip-2.1.2/src/api\netdb.c ****               total_size <= NETDB_ELEM_SIZE);
 364:C:/Users/stapi/OneDrive/Desktop/GD32VW553/V1_MQTT_OK/GD32VW55X_Wifi_BLE_SDK/GD32VW55x_RELEASE_V1.0.2/MSDK/lwip/lwip-2.1.2/src/api\netdb.c ****   ai = (struct addrinfo *)memp_malloc(MEMP_NETDB);
 365:C:/Users/stapi/OneDrive/Desktop/GD32VW553/V1_MQTT_OK/GD32VW55X_Wifi_BLE_SDK/GD32VW55x_RELEASE_V1.0.2/MSDK/lwip/lwip-2.1.2/src/api\netdb.c ****   if (ai == NULL) {
 366:C:/Users/stapi/OneDrive/Desktop/GD32VW553/V1_MQTT_OK/GD32VW55X_Wifi_BLE_SDK/GD32VW55x_RELEASE_V1.0.2/MSDK/lwip/lwip-2.1.2/src/api\netdb.c ****     return EAI_MEMORY;
 367:C:/Users/stapi/OneDrive/Desktop/GD32VW553/V1_MQTT_OK/GD32VW55X_Wifi_BLE_SDK/GD32VW55x_RELEASE_V1.0.2/MSDK/lwip/lwip-2.1.2/src/api\netdb.c ****   }
 368:C:/Users/stapi/OneDrive/Desktop/GD32VW553/V1_MQTT_OK/GD32VW55X_Wifi_BLE_SDK/GD32VW55x_RELEASE_V1.0.2/MSDK/lwip/lwip-2.1.2/src/api\netdb.c ****   memset(ai, 0, total_size);
 369:C:/Users/stapi/OneDrive/Desktop/GD32VW553/V1_MQTT_OK/GD32VW55X_Wifi_BLE_SDK/GD32VW55x_RELEASE_V1.0.2/MSDK/lwip/lwip-2.1.2/src/api\netdb.c ****   /* cast through void* to get rid of alignment warnings */
 370:C:/Users/stapi/OneDrive/Desktop/GD32VW553/V1_MQTT_OK/GD32VW55X_Wifi_BLE_SDK/GD32VW55x_RELEASE_V1.0.2/MSDK/lwip/lwip-2.1.2/src/api\netdb.c ****   sa = (struct sockaddr_storage *)(void *)((u8_t *)ai + sizeof(struct addrinfo));
 371:C:/Users/stapi/OneDrive/Desktop/GD32VW553/V1_MQTT_OK/GD32VW55X_Wifi_BLE_SDK/GD32VW55x_RELEASE_V1.0.2/MSDK/lwip/lwip-2.1.2/src/api\netdb.c ****   if (IP_IS_V6_VAL(addr)) {
 372:C:/Users/stapi/OneDrive/Desktop/GD32VW553/V1_MQTT_OK/GD32VW55X_Wifi_BLE_SDK/GD32VW55x_RELEASE_V1.0.2/MSDK/lwip/lwip-2.1.2/src/api\netdb.c **** #if LWIP_IPV6
 373:C:/Users/stapi/OneDrive/Desktop/GD32VW553/V1_MQTT_OK/GD32VW55X_Wifi_BLE_SDK/GD32VW55x_RELEASE_V1.0.2/MSDK/lwip/lwip-2.1.2/src/api\netdb.c ****     struct sockaddr_in6 *sa6 = (struct sockaddr_in6 *)sa;
 374:C:/Users/stapi/OneDrive/Desktop/GD32VW553/V1_MQTT_OK/GD32VW55X_Wifi_BLE_SDK/GD32VW55x_RELEASE_V1.0.2/MSDK/lwip/lwip-2.1.2/src/api\netdb.c ****     /* set up sockaddr */
 375:C:/Users/stapi/OneDrive/Desktop/GD32VW553/V1_MQTT_OK/GD32VW55X_Wifi_BLE_SDK/GD32VW55x_RELEASE_V1.0.2/MSDK/lwip/lwip-2.1.2/src/api\netdb.c ****     inet6_addr_from_ip6addr(&sa6->sin6_addr, ip_2_ip6(&addr));
 376:C:/Users/stapi/OneDrive/Desktop/GD32VW553/V1_MQTT_OK/GD32VW55X_Wifi_BLE_SDK/GD32VW55x_RELEASE_V1.0.2/MSDK/lwip/lwip-2.1.2/src/api\netdb.c ****     sa6->sin6_family = AF_INET6;
 377:C:/Users/stapi/OneDrive/Desktop/GD32VW553/V1_MQTT_OK/GD32VW55X_Wifi_BLE_SDK/GD32VW55x_RELEASE_V1.0.2/MSDK/lwip/lwip-2.1.2/src/api\netdb.c ****     sa6->sin6_len = sizeof(struct sockaddr_in6);
 378:C:/Users/stapi/OneDrive/Desktop/GD32VW553/V1_MQTT_OK/GD32VW55X_Wifi_BLE_SDK/GD32VW55x_RELEASE_V1.0.2/MSDK/lwip/lwip-2.1.2/src/api\netdb.c ****     sa6->sin6_port = lwip_htons((u16_t)port_nr);
 379:C:/Users/stapi/OneDrive/Desktop/GD32VW553/V1_MQTT_OK/GD32VW55X_Wifi_BLE_SDK/GD32VW55x_RELEASE_V1.0.2/MSDK/lwip/lwip-2.1.2/src/api\netdb.c ****     sa6->sin6_scope_id = ip6_addr_zone(ip_2_ip6(&addr));
 380:C:/Users/stapi/OneDrive/Desktop/GD32VW553/V1_MQTT_OK/GD32VW55X_Wifi_BLE_SDK/GD32VW55x_RELEASE_V1.0.2/MSDK/lwip/lwip-2.1.2/src/api\netdb.c ****     ai->ai_family = AF_INET6;
 381:C:/Users/stapi/OneDrive/Desktop/GD32VW553/V1_MQTT_OK/GD32VW55X_Wifi_BLE_SDK/GD32VW55x_RELEASE_V1.0.2/MSDK/lwip/lwip-2.1.2/src/api\netdb.c **** #endif /* LWIP_IPV6 */
 382:C:/Users/stapi/OneDrive/Desktop/GD32VW553/V1_MQTT_OK/GD32VW55X_Wifi_BLE_SDK/GD32VW55x_RELEASE_V1.0.2/MSDK/lwip/lwip-2.1.2/src/api\netdb.c ****   } else {
 383:C:/Users/stapi/OneDrive/Desktop/GD32VW553/V1_MQTT_OK/GD32VW55X_Wifi_BLE_SDK/GD32VW55x_RELEASE_V1.0.2/MSDK/lwip/lwip-2.1.2/src/api\netdb.c **** #if LWIP_IPV4
 384:C:/Users/stapi/OneDrive/Desktop/GD32VW553/V1_MQTT_OK/GD32VW55X_Wifi_BLE_SDK/GD32VW55x_RELEASE_V1.0.2/MSDK/lwip/lwip-2.1.2/src/api\netdb.c ****     struct sockaddr_in *sa4 = (struct sockaddr_in *)sa;
 385:C:/Users/stapi/OneDrive/Desktop/GD32VW553/V1_MQTT_OK/GD32VW55X_Wifi_BLE_SDK/GD32VW55x_RELEASE_V1.0.2/MSDK/lwip/lwip-2.1.2/src/api\netdb.c ****     /* set up sockaddr */
 386:C:/Users/stapi/OneDrive/Desktop/GD32VW553/V1_MQTT_OK/GD32VW55X_Wifi_BLE_SDK/GD32VW55x_RELEASE_V1.0.2/MSDK/lwip/lwip-2.1.2/src/api\netdb.c ****     inet_addr_from_ip4addr(&sa4->sin_addr, ip_2_ip4(&addr));
 387:C:/Users/stapi/OneDrive/Desktop/GD32VW553/V1_MQTT_OK/GD32VW55X_Wifi_BLE_SDK/GD32VW55x_RELEASE_V1.0.2/MSDK/lwip/lwip-2.1.2/src/api\netdb.c ****     sa4->sin_family = AF_INET;
 388:C:/Users/stapi/OneDrive/Desktop/GD32VW553/V1_MQTT_OK/GD32VW55X_Wifi_BLE_SDK/GD32VW55x_RELEASE_V1.0.2/MSDK/lwip/lwip-2.1.2/src/api\netdb.c ****     sa4->sin_len = sizeof(struct sockaddr_in);
 389:C:/Users/stapi/OneDrive/Desktop/GD32VW553/V1_MQTT_OK/GD32VW55X_Wifi_BLE_SDK/GD32VW55x_RELEASE_V1.0.2/MSDK/lwip/lwip-2.1.2/src/api\netdb.c ****     sa4->sin_port = lwip_htons((u16_t)port_nr);
 390:C:/Users/stapi/OneDrive/Desktop/GD32VW553/V1_MQTT_OK/GD32VW55X_Wifi_BLE_SDK/GD32VW55x_RELEASE_V1.0.2/MSDK/lwip/lwip-2.1.2/src/api\netdb.c ****     ai->ai_family = AF_INET;
 391:C:/Users/stapi/OneDrive/Desktop/GD32VW553/V1_MQTT_OK/GD32VW55X_Wifi_BLE_SDK/GD32VW55x_RELEASE_V1.0.2/MSDK/lwip/lwip-2.1.2/src/api\netdb.c **** #endif /* LWIP_IPV4 */
 392:C:/Users/stapi/OneDrive/Desktop/GD32VW553/V1_MQTT_OK/GD32VW55X_Wifi_BLE_SDK/GD32VW55x_RELEASE_V1.0.2/MSDK/lwip/lwip-2.1.2/src/api\netdb.c ****   }
 393:C:/Users/stapi/OneDrive/Desktop/GD32VW553/V1_MQTT_OK/GD32VW55X_Wifi_BLE_SDK/GD32VW55x_RELEASE_V1.0.2/MSDK/lwip/lwip-2.1.2/src/api\netdb.c **** 
 394:C:/Users/stapi/OneDrive/Desktop/GD32VW553/V1_MQTT_OK/GD32VW55X_Wifi_BLE_SDK/GD32VW55x_RELEASE_V1.0.2/MSDK/lwip/lwip-2.1.2/src/api\netdb.c ****   /* set up addrinfo */
 395:C:/Users/stapi/OneDrive/Desktop/GD32VW553/V1_MQTT_OK/GD32VW55X_Wifi_BLE_SDK/GD32VW55x_RELEASE_V1.0.2/MSDK/lwip/lwip-2.1.2/src/api\netdb.c ****   if (hints != NULL) {
 396:C:/Users/stapi/OneDrive/Desktop/GD32VW553/V1_MQTT_OK/GD32VW55X_Wifi_BLE_SDK/GD32VW55x_RELEASE_V1.0.2/MSDK/lwip/lwip-2.1.2/src/api\netdb.c ****     /* copy socktype & protocol from hints if specified */
 397:C:/Users/stapi/OneDrive/Desktop/GD32VW553/V1_MQTT_OK/GD32VW55X_Wifi_BLE_SDK/GD32VW55x_RELEASE_V1.0.2/MSDK/lwip/lwip-2.1.2/src/api\netdb.c ****     ai->ai_socktype = hints->ai_socktype;
 398:C:/Users/stapi/OneDrive/Desktop/GD32VW553/V1_MQTT_OK/GD32VW55X_Wifi_BLE_SDK/GD32VW55x_RELEASE_V1.0.2/MSDK/lwip/lwip-2.1.2/src/api\netdb.c ****     ai->ai_protocol = hints->ai_protocol;
 399:C:/Users/stapi/OneDrive/Desktop/GD32VW553/V1_MQTT_OK/GD32VW55X_Wifi_BLE_SDK/GD32VW55x_RELEASE_V1.0.2/MSDK/lwip/lwip-2.1.2/src/api\netdb.c ****   }
 400:C:/Users/stapi/OneDrive/Desktop/GD32VW553/V1_MQTT_OK/GD32VW55X_Wifi_BLE_SDK/GD32VW55x_RELEASE_V1.0.2/MSDK/lwip/lwip-2.1.2/src/api\netdb.c ****   if (nodename != NULL) {
 401:C:/Users/stapi/OneDrive/Desktop/GD32VW553/V1_MQTT_OK/GD32VW55X_Wifi_BLE_SDK/GD32VW55x_RELEASE_V1.0.2/MSDK/lwip/lwip-2.1.2/src/api\netdb.c ****     /* copy nodename to canonname if specified */
 402:C:/Users/stapi/OneDrive/Desktop/GD32VW553/V1_MQTT_OK/GD32VW55X_Wifi_BLE_SDK/GD32VW55x_RELEASE_V1.0.2/MSDK/lwip/lwip-2.1.2/src/api\netdb.c ****     ai->ai_canonname = ((char *)ai + sizeof(struct addrinfo) + sizeof(struct sockaddr_storage));
 403:C:/Users/stapi/OneDrive/Desktop/GD32VW553/V1_MQTT_OK/GD32VW55X_Wifi_BLE_SDK/GD32VW55x_RELEASE_V1.0.2/MSDK/lwip/lwip-2.1.2/src/api\netdb.c ****     MEMCPY(ai->ai_canonname, nodename, namelen);
 404:C:/Users/stapi/OneDrive/Desktop/GD32VW553/V1_MQTT_OK/GD32VW55X_Wifi_BLE_SDK/GD32VW55x_RELEASE_V1.0.2/MSDK/lwip/lwip-2.1.2/src/api\netdb.c ****     ai->ai_canonname[namelen] = 0;
 405:C:/Users/stapi/OneDrive/Desktop/GD32VW553/V1_MQTT_OK/GD32VW55X_Wifi_BLE_SDK/GD32VW55x_RELEASE_V1.0.2/MSDK/lwip/lwip-2.1.2/src/api\netdb.c ****   }
 406:C:/Users/stapi/OneDrive/Desktop/GD32VW553/V1_MQTT_OK/GD32VW55X_Wifi_BLE_SDK/GD32VW55x_RELEASE_V1.0.2/MSDK/lwip/lwip-2.1.2/src/api\netdb.c ****   ai->ai_addrlen = sizeof(struct sockaddr_storage);
 407:C:/Users/stapi/OneDrive/Desktop/GD32VW553/V1_MQTT_OK/GD32VW55X_Wifi_BLE_SDK/GD32VW55x_RELEASE_V1.0.2/MSDK/lwip/lwip-2.1.2/src/api\netdb.c ****   ai->ai_addr = (struct sockaddr *)sa;
 408:C:/Users/stapi/OneDrive/Desktop/GD32VW553/V1_MQTT_OK/GD32VW55X_Wifi_BLE_SDK/GD32VW55x_RELEASE_V1.0.2/MSDK/lwip/lwip-2.1.2/src/api\netdb.c **** 
 409:C:/Users/stapi/OneDrive/Desktop/GD32VW553/V1_MQTT_OK/GD32VW55X_Wifi_BLE_SDK/GD32VW55x_RELEASE_V1.0.2/MSDK/lwip/lwip-2.1.2/src/api\netdb.c ****   *res = ai;
 410:C:/Users/stapi/OneDrive/Desktop/GD32VW553/V1_MQTT_OK/GD32VW55X_Wifi_BLE_SDK/GD32VW55x_RELEASE_V1.0.2/MSDK/lwip/lwip-2.1.2/src/api\netdb.c **** 
 411:C:/Users/stapi/OneDrive/Desktop/GD32VW553/V1_MQTT_OK/GD32VW55X_Wifi_BLE_SDK/GD32VW55x_RELEASE_V1.0.2/MSDK/lwip/lwip-2.1.2/src/api\netdb.c ****   return 0;
 412:C:/Users/stapi/OneDrive/Desktop/GD32VW553/V1_MQTT_OK/GD32VW55X_Wifi_BLE_SDK/GD32VW55x_RELEASE_V1.0.2/MSDK/lwip/lwip-2.1.2/src/api\netdb.c **** }
 391              		.loc 1 412 1
 392 0006 3E85     		mv	a0,a5
 393              	.LVL26:
 394 0008 8280     		ret
 395              	.LVL27:
 396              	.L29:
 271:C:/Users/stapi/OneDrive/Desktop/GD32VW553/V1_MQTT_OK/GD32VW55X_Wifi_BLE_SDK/GD32VW55x_RELEASE_V1.0.2/MSDK/lwip/lwip-2.1.2/src/api\netdb.c ****   err_t err;
 397              		.loc 1 271 1
 398 000a 17030000 		call	t0,__riscv_save_7
 398      E7020300 
 399              		.cfi_offset 22, -32
 400              		.cfi_offset 21, -28
 401              		.cfi_offset 20, -24
 402              		.cfi_offset 19, -20
 403              		.cfi_offset 18, -16
 404              		.cfi_offset 9, -12
 405              		.cfi_offset 8, -8
 406              		.cfi_offset 1, -4
 407              		.cfi_def_cfa_offset 32
 408 0012 2A89     		mv	s2,a0
 284:C:/Users/stapi/OneDrive/Desktop/GD32VW553/V1_MQTT_OK/GD32VW55X_Wifi_BLE_SDK/GD32VW55x_RELEASE_V1.0.2/MSDK/lwip/lwip-2.1.2/src/api\netdb.c ****   if ((nodename == NULL) && (servname == NULL)) {
 409              		.loc 1 284 8
 410 0014 23A00600 		sw	zero,0(a3)
 271:C:/Users/stapi/OneDrive/Desktop/GD32VW553/V1_MQTT_OK/GD32VW55X_Wifi_BLE_SDK/GD32VW55x_RELEASE_V1.0.2/MSDK/lwip/lwip-2.1.2/src/api\netdb.c ****   err_t err;
 411              		.loc 1 271 1
 412 0018 0111     		addi	sp,sp,-32
 413              		.cfi_def_cfa_offset 64
 414 001a 2E85     		mv	a0,a1
 415              	.LVL28:
 416 001c B284     		mv	s1,a2
 417 001e B68A     		mv	s5,a3
 284:C:/Users/stapi/OneDrive/Desktop/GD32VW553/V1_MQTT_OK/GD32VW55X_Wifi_BLE_SDK/GD32VW55x_RELEASE_V1.0.2/MSDK/lwip/lwip-2.1.2/src/api\netdb.c ****   if ((nodename == NULL) && (servname == NULL)) {
 418              		.loc 1 284 3 is_stmt 1
 285:C:/Users/stapi/OneDrive/Desktop/GD32VW553/V1_MQTT_OK/GD32VW55X_Wifi_BLE_SDK/GD32VW55x_RELEASE_V1.0.2/MSDK/lwip/lwip-2.1.2/src/api\netdb.c ****     return EAI_NONAME;
 419              		.loc 1 285 3
 285:C:/Users/stapi/OneDrive/Desktop/GD32VW553/V1_MQTT_OK/GD32VW55X_Wifi_BLE_SDK/GD32VW55x_RELEASE_V1.0.2/MSDK/lwip/lwip-2.1.2/src/api\netdb.c ****     return EAI_NONAME;
 420              		.loc 1 285 6 is_stmt 0
 421 0020 63160900 		bne	s2,zero,.L31
 422              	.LVL29:
 285:C:/Users/stapi/OneDrive/Desktop/GD32VW553/V1_MQTT_OK/GD32VW55X_Wifi_BLE_SDK/GD32VW55x_RELEASE_V1.0.2/MSDK/lwip/lwip-2.1.2/src/api\netdb.c ****     return EAI_NONAME;
 423              		.loc 1 285 26 discriminator 1
 424 0024 B5E9     		bne	a1,zero,.L32
 425              	.LVL30:
 426              	.L37:
 286:C:/Users/stapi/OneDrive/Desktop/GD32VW553/V1_MQTT_OK/GD32VW55X_Wifi_BLE_SDK/GD32VW55x_RELEASE_V1.0.2/MSDK/lwip/lwip-2.1.2/src/api\netdb.c ****   }
 427              		.loc 1 286 12
 428 0026 9307800C 		li	a5,200
 429 002a 61A0     		j	.L28
 430              	.LVL31:
 431              	.L31:
 289:C:/Users/stapi/OneDrive/Desktop/GD32VW553/V1_MQTT_OK/GD32VW55X_Wifi_BLE_SDK/GD32VW55x_RELEASE_V1.0.2/MSDK/lwip/lwip-2.1.2/src/api\netdb.c ****     ai_family = hints->ai_family;
 432              		.loc 1 289 3 is_stmt 1
 289:C:/Users/stapi/OneDrive/Desktop/GD32VW553/V1_MQTT_OK/GD32VW55X_Wifi_BLE_SDK/GD32VW55x_RELEASE_V1.0.2/MSDK/lwip/lwip-2.1.2/src/api\netdb.c ****     ai_family = hints->ai_family;
 433              		.loc 1 289 6 is_stmt 0
 434 002c 25CA     		beq	a2,zero,.L33
 435              	.L45:
 290:C:/Users/stapi/OneDrive/Desktop/GD32VW553/V1_MQTT_OK/GD32VW55X_Wifi_BLE_SDK/GD32VW55x_RELEASE_V1.0.2/MSDK/lwip/lwip-2.1.2/src/api\netdb.c ****     if ((ai_family != AF_UNSPEC)
 436              		.loc 1 290 5 is_stmt 1
 437              	.LVL32:
 291:C:/Users/stapi/OneDrive/Desktop/GD32VW553/V1_MQTT_OK/GD32VW55X_Wifi_BLE_SDK/GD32VW55x_RELEASE_V1.0.2/MSDK/lwip/lwip-2.1.2/src/api\netdb.c **** #if LWIP_IPV4
 438              		.loc 1 291 5
 291:C:/Users/stapi/OneDrive/Desktop/GD32VW553/V1_MQTT_OK/GD32VW55X_Wifi_BLE_SDK/GD32VW55x_RELEASE_V1.0.2/MSDK/lwip/lwip-2.1.2/src/api\netdb.c **** #if LWIP_IPV4
 439              		.loc 1 291 8 is_stmt 0
 440 002e 83A94400 		lw	s3,4(s1)
 299:C:/Users/stapi/OneDrive/Desktop/GD32VW553/V1_MQTT_OK/GD32VW55X_Wifi_BLE_SDK/GD32VW55x_RELEASE_V1.0.2/MSDK/lwip/lwip-2.1.2/src/api\netdb.c ****     }
 441              		.loc 1 299 14
 442 0032 9307C00C 		li	a5,204
 291:C:/Users/stapi/OneDrive/Desktop/GD32VW553/V1_MQTT_OK/GD32VW55X_Wifi_BLE_SDK/GD32VW55x_RELEASE_V1.0.2/MSDK/lwip/lwip-2.1.2/src/api\netdb.c **** #if LWIP_IPV4
 443              		.loc 1 291 8
 444 0036 93F9D9FF 		andi	s3,s3,-3
 445 003a 639C0906 		bne	s3,zero,.L28
 446              	.LVL33:
 305:C:/Users/stapi/OneDrive/Desktop/GD32VW553/V1_MQTT_OK/GD32VW55X_Wifi_BLE_SDK/GD32VW55x_RELEASE_V1.0.2/MSDK/lwip/lwip-2.1.2/src/api\netdb.c ****     /* service name specified: convert to port number
 447              		.loc 1 305 3 is_stmt 1
 305:C:/Users/stapi/OneDrive/Desktop/GD32VW553/V1_MQTT_OK/GD32VW55X_Wifi_BLE_SDK/GD32VW55x_RELEASE_V1.0.2/MSDK/lwip/lwip-2.1.2/src/api\netdb.c ****     /* service name specified: convert to port number
 448              		.loc 1 305 6 is_stmt 0
 449 003e 41C1     		beq	a0,zero,.L34
 450              	.L46:
 308:C:/Users/stapi/OneDrive/Desktop/GD32VW553/V1_MQTT_OK/GD32VW55X_Wifi_BLE_SDK/GD32VW55x_RELEASE_V1.0.2/MSDK/lwip/lwip-2.1.2/src/api\netdb.c ****     if ((port_nr <= 0) || (port_nr > 0xffff)) {
 451              		.loc 1 308 5 is_stmt 1
 308:C:/Users/stapi/OneDrive/Desktop/GD32VW553/V1_MQTT_OK/GD32VW55X_Wifi_BLE_SDK/GD32VW55x_RELEASE_V1.0.2/MSDK/lwip/lwip-2.1.2/src/api\netdb.c ****     if ((port_nr <= 0) || (port_nr > 0xffff)) {
 452              		.loc 1 308 15 is_stmt 0
 453 0040 97000000 		call	atoi
 453      E7800000 
 454              	.LVL34:
 309:C:/Users/stapi/OneDrive/Desktop/GD32VW553/V1_MQTT_OK/GD32VW55X_Wifi_BLE_SDK/GD32VW55x_RELEASE_V1.0.2/MSDK/lwip/lwip-2.1.2/src/api\netdb.c ****       return EAI_SERVICE;
 455              		.loc 1 309 8
 456 0048 4167     		li	a4,65536
 309:C:/Users/stapi/OneDrive/Desktop/GD32VW553/V1_MQTT_OK/GD32VW55X_Wifi_BLE_SDK/GD32VW55x_RELEASE_V1.0.2/MSDK/lwip/lwip-2.1.2/src/api\netdb.c ****       return EAI_SERVICE;
 457              		.loc 1 309 24
 458 004a 9306F5FF 		addi	a3,a0,-1
 309:C:/Users/stapi/OneDrive/Desktop/GD32VW553/V1_MQTT_OK/GD32VW55X_Wifi_BLE_SDK/GD32VW55x_RELEASE_V1.0.2/MSDK/lwip/lwip-2.1.2/src/api\netdb.c ****       return EAI_SERVICE;
 459              		.loc 1 309 8
 460 004e 7917     		addi	a4,a4,-2
 308:C:/Users/stapi/OneDrive/Desktop/GD32VW553/V1_MQTT_OK/GD32VW55X_Wifi_BLE_SDK/GD32VW55x_RELEASE_V1.0.2/MSDK/lwip/lwip-2.1.2/src/api\netdb.c ****     if ((port_nr <= 0) || (port_nr > 0xffff)) {
 461              		.loc 1 308 15
 462 0050 AA89     		mv	s3,a0
 463              	.LVL35:
 309:C:/Users/stapi/OneDrive/Desktop/GD32VW553/V1_MQTT_OK/GD32VW55X_Wifi_BLE_SDK/GD32VW55x_RELEASE_V1.0.2/MSDK/lwip/lwip-2.1.2/src/api\netdb.c ****       return EAI_SERVICE;
 464              		.loc 1 309 5 is_stmt 1
 310:C:/Users/stapi/OneDrive/Desktop/GD32VW553/V1_MQTT_OK/GD32VW55X_Wifi_BLE_SDK/GD32VW55x_RELEASE_V1.0.2/MSDK/lwip/lwip-2.1.2/src/api\netdb.c ****     }
 465              		.loc 1 310 14 is_stmt 0
 466 0052 9307900C 		li	a5,201
 309:C:/Users/stapi/OneDrive/Desktop/GD32VW553/V1_MQTT_OK/GD32VW55X_Wifi_BLE_SDK/GD32VW55x_RELEASE_V1.0.2/MSDK/lwip/lwip-2.1.2/src/api\netdb.c ****       return EAI_SERVICE;
 467              		.loc 1 309 8
 468 0056 636ED704 		bgtu	a3,a4,.L28
 314:C:/Users/stapi/OneDrive/Desktop/GD32VW553/V1_MQTT_OK/GD32VW55X_Wifi_BLE_SDK/GD32VW55x_RELEASE_V1.0.2/MSDK/lwip/lwip-2.1.2/src/api\netdb.c ****     /* service location specified, try to resolve */
 469              		.loc 1 314 3 is_stmt 1
 314:C:/Users/stapi/OneDrive/Desktop/GD32VW553/V1_MQTT_OK/GD32VW55X_Wifi_BLE_SDK/GD32VW55x_RELEASE_V1.0.2/MSDK/lwip/lwip-2.1.2/src/api\netdb.c ****     /* service location specified, try to resolve */
 470              		.loc 1 314 6 is_stmt 0
 471 005a 63040906 		beq	s2,zero,.L35
 316:C:/Users/stapi/OneDrive/Desktop/GD32VW553/V1_MQTT_OK/GD32VW55X_Wifi_BLE_SDK/GD32VW55x_RELEASE_V1.0.2/MSDK/lwip/lwip-2.1.2/src/api\netdb.c ****       /* no DNS lookup, just parse for an address string */
 472              		.loc 1 316 5 is_stmt 1
 316:C:/Users/stapi/OneDrive/Desktop/GD32VW553/V1_MQTT_OK/GD32VW55X_Wifi_BLE_SDK/GD32VW55x_RELEASE_V1.0.2/MSDK/lwip/lwip-2.1.2/src/api\netdb.c ****       /* no DNS lookup, just parse for an address string */
 473              		.loc 1 316 8 is_stmt 0
 474 005e A9C0     		beq	s1,zero,.L36
 475              	.LVL36:
 476              	.L47:
 316:C:/Users/stapi/OneDrive/Desktop/GD32VW553/V1_MQTT_OK/GD32VW55X_Wifi_BLE_SDK/GD32VW55x_RELEASE_V1.0.2/MSDK/lwip/lwip-2.1.2/src/api\netdb.c ****       /* no DNS lookup, just parse for an address string */
 477              		.loc 1 316 45 discriminator 1
 478 0060 9C40     		lw	a5,0(s1)
 479 0062 918B     		andi	a5,a5,4
 316:C:/Users/stapi/OneDrive/Desktop/GD32VW553/V1_MQTT_OK/GD32VW55X_Wifi_BLE_SDK/GD32VW55x_RELEASE_V1.0.2/MSDK/lwip/lwip-2.1.2/src/api\netdb.c ****       /* no DNS lookup, just parse for an address string */
 480              		.loc 1 316 25 discriminator 1
 481 0064 95CF     		beq	a5,zero,.L36
 318:C:/Users/stapi/OneDrive/Desktop/GD32VW553/V1_MQTT_OK/GD32VW55X_Wifi_BLE_SDK/GD32VW55x_RELEASE_V1.0.2/MSDK/lwip/lwip-2.1.2/src/api\netdb.c ****         return EAI_NONAME;
 482              		.loc 1 318 7 is_stmt 1
 318:C:/Users/stapi/OneDrive/Desktop/GD32VW553/V1_MQTT_OK/GD32VW55X_Wifi_BLE_SDK/GD32VW55x_RELEASE_V1.0.2/MSDK/lwip/lwip-2.1.2/src/api\netdb.c ****         return EAI_NONAME;
 483              		.loc 1 318 12 is_stmt 0
 484 0066 6C08     		addi	a1,sp,28
 485 0068 4A85     		mv	a0,s2
 486 006a 97000000 		call	ip4addr_aton
 486      E7800000 
 487              	.LVL37:
 318:C:/Users/stapi/OneDrive/Desktop/GD32VW553/V1_MQTT_OK/GD32VW55X_Wifi_BLE_SDK/GD32VW55x_RELEASE_V1.0.2/MSDK/lwip/lwip-2.1.2/src/api\netdb.c ****         return EAI_NONAME;
 488              		.loc 1 318 10
 489 0072 55D9     		beq	a0,zero,.L37
 490              	.L38:
 351:C:/Users/stapi/OneDrive/Desktop/GD32VW553/V1_MQTT_OK/GD32VW55X_Wifi_BLE_SDK/GD32VW55x_RELEASE_V1.0.2/MSDK/lwip/lwip-2.1.2/src/api\netdb.c ****   if (nodename != NULL) {
 491              		.loc 1 351 3 is_stmt 1
 492              	.LVL38:
 352:C:/Users/stapi/OneDrive/Desktop/GD32VW553/V1_MQTT_OK/GD32VW55X_Wifi_BLE_SDK/GD32VW55x_RELEASE_V1.0.2/MSDK/lwip/lwip-2.1.2/src/api\netdb.c ****     namelen = strlen(nodename);
 493              		.loc 1 352 3
 353:C:/Users/stapi/OneDrive/Desktop/GD32VW553/V1_MQTT_OK/GD32VW55X_Wifi_BLE_SDK/GD32VW55x_RELEASE_V1.0.2/MSDK/lwip/lwip-2.1.2/src/api\netdb.c ****     if (namelen > DNS_MAX_NAME_LENGTH) {
 494              		.loc 1 353 5
 353:C:/Users/stapi/OneDrive/Desktop/GD32VW553/V1_MQTT_OK/GD32VW55X_Wifi_BLE_SDK/GD32VW55x_RELEASE_V1.0.2/MSDK/lwip/lwip-2.1.2/src/api\netdb.c ****     if (namelen > DNS_MAX_NAME_LENGTH) {
 495              		.loc 1 353 15 is_stmt 0
 496 0074 4A85     		mv	a0,s2
 497 0076 97000000 		call	strlen
 497      E7800000 
 498              	.LVL39:
 354:C:/Users/stapi/OneDrive/Desktop/GD32VW553/V1_MQTT_OK/GD32VW55X_Wifi_BLE_SDK/GD32VW55x_RELEASE_V1.0.2/MSDK/lwip/lwip-2.1.2/src/api\netdb.c ****       /* invalid name length */
 499              		.loc 1 354 8
 500 007e 93070010 		li	a5,256
 353:C:/Users/stapi/OneDrive/Desktop/GD32VW553/V1_MQTT_OK/GD32VW55X_Wifi_BLE_SDK/GD32VW55x_RELEASE_V1.0.2/MSDK/lwip/lwip-2.1.2/src/api\netdb.c ****     if (namelen > DNS_MAX_NAME_LENGTH) {
 501              		.loc 1 353 15
 502 0082 2A8A     		mv	s4,a0
 503              	.LVL40:
 354:C:/Users/stapi/OneDrive/Desktop/GD32VW553/V1_MQTT_OK/GD32VW55X_Wifi_BLE_SDK/GD32VW55x_RELEASE_V1.0.2/MSDK/lwip/lwip-2.1.2/src/api\netdb.c ****       /* invalid name length */
 504              		.loc 1 354 5 is_stmt 1
 358:C:/Users/stapi/OneDrive/Desktop/GD32VW553/V1_MQTT_OK/GD32VW55X_Wifi_BLE_SDK/GD32VW55x_RELEASE_V1.0.2/MSDK/lwip/lwip-2.1.2/src/api\netdb.c ****     total_size += namelen + 1;
 505              		.loc 1 358 5 is_stmt 0
 506 0084 13061503 		addi	a2,a0,49
 354:C:/Users/stapi/OneDrive/Desktop/GD32VW553/V1_MQTT_OK/GD32VW55X_Wifi_BLE_SDK/GD32VW55x_RELEASE_V1.0.2/MSDK/lwip/lwip-2.1.2/src/api\netdb.c ****       /* invalid name length */
 507              		.loc 1 354 8
 508 0088 63F6A704 		bleu	a0,a5,.L43
 509 008c 0DA0     		j	.L39
 510              	.LVL41:
 511              	.L51:
 347:C:/Users/stapi/OneDrive/Desktop/GD32VW553/V1_MQTT_OK/GD32VW55X_Wifi_BLE_SDK/GD32VW55x_RELEASE_V1.0.2/MSDK/lwip/lwip-2.1.2/src/api\netdb.c ****     }
 512              		.loc 1 347 7
 513 008e B7070001 		li	a5,16777216
 514 0092 9387F707 		addi	a5,a5,127
 515 0096 1DA8     		j	.L40
 516              	.LVL42:
 517              	.L32:
 289:C:/Users/stapi/OneDrive/Desktop/GD32VW553/V1_MQTT_OK/GD32VW55X_Wifi_BLE_SDK/GD32VW55x_RELEASE_V1.0.2/MSDK/lwip/lwip-2.1.2/src/api\netdb.c ****     ai_family = hints->ai_family;
 518              		.loc 1 289 3 is_stmt 1
 289:C:/Users/stapi/OneDrive/Desktop/GD32VW553/V1_MQTT_OK/GD32VW55X_Wifi_BLE_SDK/GD32VW55x_RELEASE_V1.0.2/MSDK/lwip/lwip-2.1.2/src/api\netdb.c ****     ai_family = hints->ai_family;
 519              		.loc 1 289 6 is_stmt 0
 520 0098 59FA     		bne	a2,zero,.L45
 521 009a 5DB7     		j	.L46
 522              	.L33:
 305:C:/Users/stapi/OneDrive/Desktop/GD32VW553/V1_MQTT_OK/GD32VW55X_Wifi_BLE_SDK/GD32VW55x_RELEASE_V1.0.2/MSDK/lwip/lwip-2.1.2/src/api\netdb.c ****     /* service name specified: convert to port number
 523              		.loc 1 305 3 is_stmt 1
 276:C:/Users/stapi/OneDrive/Desktop/GD32VW553/V1_MQTT_OK/GD32VW55X_Wifi_BLE_SDK/GD32VW55x_RELEASE_V1.0.2/MSDK/lwip/lwip-2.1.2/src/api\netdb.c ****   size_t total_size;
 524              		.loc 1 276 7 is_stmt 0
 525 009c 8149     		li	s3,0
 305:C:/Users/stapi/OneDrive/Desktop/GD32VW553/V1_MQTT_OK/GD32VW55X_Wifi_BLE_SDK/GD32VW55x_RELEASE_V1.0.2/MSDK/lwip/lwip-2.1.2/src/api\netdb.c ****     /* service name specified: convert to port number
 526              		.loc 1 305 6
 527 009e CDF1     		bne	a1,zero,.L46
 528              	.LVL43:
 529              	.L36:
 337:C:/Users/stapi/OneDrive/Desktop/GD32VW553/V1_MQTT_OK/GD32VW55X_Wifi_BLE_SDK/GD32VW55x_RELEASE_V1.0.2/MSDK/lwip/lwip-2.1.2/src/api\netdb.c ****       if (err != ERR_OK) {
 530              		.loc 1 337 7 is_stmt 1
 337:C:/Users/stapi/OneDrive/Desktop/GD32VW553/V1_MQTT_OK/GD32VW55X_Wifi_BLE_SDK/GD32VW55x_RELEASE_V1.0.2/MSDK/lwip/lwip-2.1.2/src/api\netdb.c ****       if (err != ERR_OK) {
 531              		.loc 1 337 13 is_stmt 0
 532 00a0 6C08     		addi	a1,sp,28
 533 00a2 4A85     		mv	a0,s2
 534 00a4 97000000 		call	netconn_gethostbyname
 534      E7800000 
 535              	.LVL44:
 338:C:/Users/stapi/OneDrive/Desktop/GD32VW553/V1_MQTT_OK/GD32VW55X_Wifi_BLE_SDK/GD32VW55x_RELEASE_V1.0.2/MSDK/lwip/lwip-2.1.2/src/api\netdb.c ****         return EAI_FAIL;
 536              		.loc 1 338 7 is_stmt 1
 338:C:/Users/stapi/OneDrive/Desktop/GD32VW553/V1_MQTT_OK/GD32VW55X_Wifi_BLE_SDK/GD32VW55x_RELEASE_V1.0.2/MSDK/lwip/lwip-2.1.2/src/api\netdb.c ****         return EAI_FAIL;
 537              		.loc 1 338 10 is_stmt 0
 538 00ac 61D5     		beq	a0,zero,.L38
 539              	.LVL45:
 540              	.L39:
 282:C:/Users/stapi/OneDrive/Desktop/GD32VW553/V1_MQTT_OK/GD32VW55X_Wifi_BLE_SDK/GD32VW55x_RELEASE_V1.0.2/MSDK/lwip/lwip-2.1.2/src/api\netdb.c ****   }
 541              		.loc 1 282 12
 542 00ae 9307A00C 		li	a5,202
 543              	.LVL46:
 544              	.L28:
 545              		.loc 1 412 1
 546 00b2 3E85     		mv	a0,a5
 547 00b4 0561     		addi	sp,sp,32
 548              		.cfi_remember_state
 549              		.cfi_def_cfa_offset 0
 550 00b6 17030000 		tail	__riscv_restore_7
 550      67000300 
 551              		.cfi_restore 22
 552              		.cfi_restore 21
 553              		.cfi_restore 20
 554              		.cfi_restore 19
 555              		.cfi_restore 18
 556              		.cfi_restore 9
 557              		.cfi_restore 8
 558              		.cfi_restore 1
 559              		.cfi_def_cfa_offset -32
 560              	.LVL47:
 561              	.L34:
 562              		.cfi_restore_state
 314:C:/Users/stapi/OneDrive/Desktop/GD32VW553/V1_MQTT_OK/GD32VW55X_Wifi_BLE_SDK/GD32VW55x_RELEASE_V1.0.2/MSDK/lwip/lwip-2.1.2/src/api\netdb.c ****     /* service location specified, try to resolve */
 563              		.loc 1 314 3 is_stmt 1
 314:C:/Users/stapi/OneDrive/Desktop/GD32VW553/V1_MQTT_OK/GD32VW55X_Wifi_BLE_SDK/GD32VW55x_RELEASE_V1.0.2/MSDK/lwip/lwip-2.1.2/src/api\netdb.c ****     /* service location specified, try to resolve */
 564              		.loc 1 314 6 is_stmt 0
 565 00be E31109FA 		bne	s2,zero,.L47
 566              	.LVL48:
 567              	.L35:
 344:C:/Users/stapi/OneDrive/Desktop/GD32VW553/V1_MQTT_OK/GD32VW55X_Wifi_BLE_SDK/GD32VW55x_RELEASE_V1.0.2/MSDK/lwip/lwip-2.1.2/src/api\netdb.c ****       ip_addr_set_any_val(ai_family == AF_INET6, addr);
 568              		.loc 1 344 5 is_stmt 1
 344:C:/Users/stapi/OneDrive/Desktop/GD32VW553/V1_MQTT_OK/GD32VW55X_Wifi_BLE_SDK/GD32VW55x_RELEASE_V1.0.2/MSDK/lwip/lwip-2.1.2/src/api\netdb.c ****       ip_addr_set_any_val(ai_family == AF_INET6, addr);
 569              		.loc 1 344 8 is_stmt 0
 570 00c2 F1D4     		beq	s1,zero,.L51
 344:C:/Users/stapi/OneDrive/Desktop/GD32VW553/V1_MQTT_OK/GD32VW55X_Wifi_BLE_SDK/GD32VW55x_RELEASE_V1.0.2/MSDK/lwip/lwip-2.1.2/src/api\netdb.c ****       ip_addr_set_any_val(ai_family == AF_INET6, addr);
 571              		.loc 1 344 45 discriminator 1
 572 00c4 9C40     		lw	a5,0(s1)
 573 00c6 858B     		andi	a5,a5,1
 344:C:/Users/stapi/OneDrive/Desktop/GD32VW553/V1_MQTT_OK/GD32VW55X_Wifi_BLE_SDK/GD32VW55x_RELEASE_V1.0.2/MSDK/lwip/lwip-2.1.2/src/api\netdb.c ****       ip_addr_set_any_val(ai_family == AF_INET6, addr);
 574              		.loc 1 344 25 discriminator 1
 575 00c8 F9D3     		beq	a5,zero,.L51
 345:C:/Users/stapi/OneDrive/Desktop/GD32VW553/V1_MQTT_OK/GD32VW55X_Wifi_BLE_SDK/GD32VW55x_RELEASE_V1.0.2/MSDK/lwip/lwip-2.1.2/src/api\netdb.c ****     } else {
 576              		.loc 1 345 7
 577 00ca 8147     		li	a5,0
 578              	.L40:
 579 00cc 3ECE     		sw	a5,28(sp)
 351:C:/Users/stapi/OneDrive/Desktop/GD32VW553/V1_MQTT_OK/GD32VW55X_Wifi_BLE_SDK/GD32VW55x_RELEASE_V1.0.2/MSDK/lwip/lwip-2.1.2/src/api\netdb.c ****   if (nodename != NULL) {
 580              		.loc 1 351 3 is_stmt 1
 581              	.LVL49:
 352:C:/Users/stapi/OneDrive/Desktop/GD32VW553/V1_MQTT_OK/GD32VW55X_Wifi_BLE_SDK/GD32VW55x_RELEASE_V1.0.2/MSDK/lwip/lwip-2.1.2/src/api\netdb.c ****     namelen = strlen(nodename);
 582              		.loc 1 352 3
 278:C:/Users/stapi/OneDrive/Desktop/GD32VW553/V1_MQTT_OK/GD32VW55X_Wifi_BLE_SDK/GD32VW55x_RELEASE_V1.0.2/MSDK/lwip/lwip-2.1.2/src/api\netdb.c ****   int ai_family;
 583              		.loc 1 278 10 is_stmt 0
 584 00ce 014A     		li	s4,0
 351:C:/Users/stapi/OneDrive/Desktop/GD32VW553/V1_MQTT_OK/GD32VW55X_Wifi_BLE_SDK/GD32VW55x_RELEASE_V1.0.2/MSDK/lwip/lwip-2.1.2/src/api\netdb.c ****   if (nodename != NULL) {
 585              		.loc 1 351 14
 586 00d0 13060003 		li	a2,48
 587              	.LVL50:
 588              	.L43:
 364:C:/Users/stapi/OneDrive/Desktop/GD32VW553/V1_MQTT_OK/GD32VW55X_Wifi_BLE_SDK/GD32VW55x_RELEASE_V1.0.2/MSDK/lwip/lwip-2.1.2/src/api\netdb.c ****   if (ai == NULL) {
 589              		.loc 1 364 27 discriminator 2
 590 00d4 3945     		li	a0,14
 591 00d6 32C6     		sw	a2,12(sp)
 592              	.LVL51:
 362:C:/Users/stapi/OneDrive/Desktop/GD32VW553/V1_MQTT_OK/GD32VW55X_Wifi_BLE_SDK/GD32VW55x_RELEASE_V1.0.2/MSDK/lwip/lwip-2.1.2/src/api\netdb.c ****               total_size <= NETDB_ELEM_SIZE);
 593              		.loc 1 362 3 is_stmt 1 discriminator 2
 362:C:/Users/stapi/OneDrive/Desktop/GD32VW553/V1_MQTT_OK/GD32VW55X_Wifi_BLE_SDK/GD32VW55x_RELEASE_V1.0.2/MSDK/lwip/lwip-2.1.2/src/api\netdb.c ****               total_size <= NETDB_ELEM_SIZE);
 594              		.loc 1 362 3 discriminator 2
 364:C:/Users/stapi/OneDrive/Desktop/GD32VW553/V1_MQTT_OK/GD32VW55X_Wifi_BLE_SDK/GD32VW55x_RELEASE_V1.0.2/MSDK/lwip/lwip-2.1.2/src/api\netdb.c ****   if (ai == NULL) {
 595              		.loc 1 364 3 discriminator 2
 364:C:/Users/stapi/OneDrive/Desktop/GD32VW553/V1_MQTT_OK/GD32VW55X_Wifi_BLE_SDK/GD32VW55x_RELEASE_V1.0.2/MSDK/lwip/lwip-2.1.2/src/api\netdb.c ****   if (ai == NULL) {
 596              		.loc 1 364 27 is_stmt 0 discriminator 2
 597 00d8 97000000 		call	memp_malloc
 597      E7800000 
 598              	.LVL52:
 599 00e0 2A84     		mv	s0,a0
 600              	.LVL53:
 365:C:/Users/stapi/OneDrive/Desktop/GD32VW553/V1_MQTT_OK/GD32VW55X_Wifi_BLE_SDK/GD32VW55x_RELEASE_V1.0.2/MSDK/lwip/lwip-2.1.2/src/api\netdb.c ****     return EAI_MEMORY;
 601              		.loc 1 365 3 is_stmt 1 discriminator 2
 366:C:/Users/stapi/OneDrive/Desktop/GD32VW553/V1_MQTT_OK/GD32VW55X_Wifi_BLE_SDK/GD32VW55x_RELEASE_V1.0.2/MSDK/lwip/lwip-2.1.2/src/api\netdb.c ****   }
 602              		.loc 1 366 12 is_stmt 0 discriminator 2
 603 00e2 9307B00C 		li	a5,203
 365:C:/Users/stapi/OneDrive/Desktop/GD32VW553/V1_MQTT_OK/GD32VW55X_Wifi_BLE_SDK/GD32VW55x_RELEASE_V1.0.2/MSDK/lwip/lwip-2.1.2/src/api\netdb.c ****     return EAI_MEMORY;
 604              		.loc 1 365 6 discriminator 2
 605 00e6 71D5     		beq	a0,zero,.L28
 368:C:/Users/stapi/OneDrive/Desktop/GD32VW553/V1_MQTT_OK/GD32VW55X_Wifi_BLE_SDK/GD32VW55x_RELEASE_V1.0.2/MSDK/lwip/lwip-2.1.2/src/api\netdb.c ****   /* cast through void* to get rid of alignment warnings */
 606              		.loc 1 368 3 is_stmt 1
 607 00e8 3246     		lw	a2,12(sp)
 608 00ea 8145     		li	a1,0
 370:C:/Users/stapi/OneDrive/Desktop/GD32VW553/V1_MQTT_OK/GD32VW55X_Wifi_BLE_SDK/GD32VW55x_RELEASE_V1.0.2/MSDK/lwip/lwip-2.1.2/src/api\netdb.c ****   if (IP_IS_V6_VAL(addr)) {
 609              		.loc 1 370 6 is_stmt 0
 610 00ec 130B0402 		addi	s6,s0,32
 368:C:/Users/stapi/OneDrive/Desktop/GD32VW553/V1_MQTT_OK/GD32VW55X_Wifi_BLE_SDK/GD32VW55x_RELEASE_V1.0.2/MSDK/lwip/lwip-2.1.2/src/api\netdb.c ****   /* cast through void* to get rid of alignment warnings */
 611              		.loc 1 368 3
 612 00f0 97000000 		call	memset
 612      E7800000 
 613              	.LVL54:
 370:C:/Users/stapi/OneDrive/Desktop/GD32VW553/V1_MQTT_OK/GD32VW55X_Wifi_BLE_SDK/GD32VW55x_RELEASE_V1.0.2/MSDK/lwip/lwip-2.1.2/src/api\netdb.c ****   if (IP_IS_V6_VAL(addr)) {
 614              		.loc 1 370 3 is_stmt 1
 371:C:/Users/stapi/OneDrive/Desktop/GD32VW553/V1_MQTT_OK/GD32VW55X_Wifi_BLE_SDK/GD32VW55x_RELEASE_V1.0.2/MSDK/lwip/lwip-2.1.2/src/api\netdb.c **** #if LWIP_IPV6
 615              		.loc 1 371 3
 616              	.LBB2:
 384:C:/Users/stapi/OneDrive/Desktop/GD32VW553/V1_MQTT_OK/GD32VW55X_Wifi_BLE_SDK/GD32VW55x_RELEASE_V1.0.2/MSDK/lwip/lwip-2.1.2/src/api\netdb.c ****     /* set up sockaddr */
 617              		.loc 1 384 5
 386:C:/Users/stapi/OneDrive/Desktop/GD32VW553/V1_MQTT_OK/GD32VW55X_Wifi_BLE_SDK/GD32VW55x_RELEASE_V1.0.2/MSDK/lwip/lwip-2.1.2/src/api\netdb.c ****     sa4->sin_family = AF_INET;
 618              		.loc 1 386 5
 619 00f8 F247     		lw	a5,28(sp)
 389:C:/Users/stapi/OneDrive/Desktop/GD32VW553/V1_MQTT_OK/GD32VW55X_Wifi_BLE_SDK/GD32VW55x_RELEASE_V1.0.2/MSDK/lwip/lwip-2.1.2/src/api\netdb.c ****     ai->ai_family = AF_INET;
 620              		.loc 1 389 21 is_stmt 0
 621 00fa 33C50908 		zext.h	a0,s3
 386:C:/Users/stapi/OneDrive/Desktop/GD32VW553/V1_MQTT_OK/GD32VW55X_Wifi_BLE_SDK/GD32VW55x_RELEASE_V1.0.2/MSDK/lwip/lwip-2.1.2/src/api\netdb.c ****     sa4->sin_family = AF_INET;
 622              		.loc 1 386 5
 623 00fe 5CD0     		sw	a5,36(s0)
 387:C:/Users/stapi/OneDrive/Desktop/GD32VW553/V1_MQTT_OK/GD32VW55X_Wifi_BLE_SDK/GD32VW55x_RELEASE_V1.0.2/MSDK/lwip/lwip-2.1.2/src/api\netdb.c ****     sa4->sin_len = sizeof(struct sockaddr_in);
 624              		.loc 1 387 5 is_stmt 1
 388:C:/Users/stapi/OneDrive/Desktop/GD32VW553/V1_MQTT_OK/GD32VW55X_Wifi_BLE_SDK/GD32VW55x_RELEASE_V1.0.2/MSDK/lwip/lwip-2.1.2/src/api\netdb.c ****     sa4->sin_port = lwip_htons((u16_t)port_nr);
 625              		.loc 1 388 5
 388:C:/Users/stapi/OneDrive/Desktop/GD32VW553/V1_MQTT_OK/GD32VW55X_Wifi_BLE_SDK/GD32VW55x_RELEASE_V1.0.2/MSDK/lwip/lwip-2.1.2/src/api\netdb.c ****     sa4->sin_port = lwip_htons((u16_t)port_nr);
 626              		.loc 1 388 18 is_stmt 0
 627 0100 93070021 		li	a5,528
 628 0104 2310F402 		sh	a5,32(s0)
 389:C:/Users/stapi/OneDrive/Desktop/GD32VW553/V1_MQTT_OK/GD32VW55X_Wifi_BLE_SDK/GD32VW55x_RELEASE_V1.0.2/MSDK/lwip/lwip-2.1.2/src/api\netdb.c ****     ai->ai_family = AF_INET;
 629              		.loc 1 389 5 is_stmt 1
 389:C:/Users/stapi/OneDrive/Desktop/GD32VW553/V1_MQTT_OK/GD32VW55X_Wifi_BLE_SDK/GD32VW55x_RELEASE_V1.0.2/MSDK/lwip/lwip-2.1.2/src/api\netdb.c ****     ai->ai_family = AF_INET;
 630              		.loc 1 389 21 is_stmt 0
 631 0108 97000000 		call	lwip_htons
 631      E7800000 
 632              	.LVL55:
 390:C:/Users/stapi/OneDrive/Desktop/GD32VW553/V1_MQTT_OK/GD32VW55X_Wifi_BLE_SDK/GD32VW55x_RELEASE_V1.0.2/MSDK/lwip/lwip-2.1.2/src/api\netdb.c **** #endif /* LWIP_IPV4 */
 633              		.loc 1 390 19
 634 0110 8947     		li	a5,2
 389:C:/Users/stapi/OneDrive/Desktop/GD32VW553/V1_MQTT_OK/GD32VW55X_Wifi_BLE_SDK/GD32VW55x_RELEASE_V1.0.2/MSDK/lwip/lwip-2.1.2/src/api\netdb.c ****     ai->ai_family = AF_INET;
 635              		.loc 1 389 19
 636 0112 2311A402 		sh	a0,34(s0)
 390:C:/Users/stapi/OneDrive/Desktop/GD32VW553/V1_MQTT_OK/GD32VW55X_Wifi_BLE_SDK/GD32VW55x_RELEASE_V1.0.2/MSDK/lwip/lwip-2.1.2/src/api\netdb.c **** #endif /* LWIP_IPV4 */
 637              		.loc 1 390 5 is_stmt 1
 390:C:/Users/stapi/OneDrive/Desktop/GD32VW553/V1_MQTT_OK/GD32VW55X_Wifi_BLE_SDK/GD32VW55x_RELEASE_V1.0.2/MSDK/lwip/lwip-2.1.2/src/api\netdb.c **** #endif /* LWIP_IPV4 */
 638              		.loc 1 390 19 is_stmt 0
 639 0116 5CC0     		sw	a5,4(s0)
 640              	.LBE2:
 395:C:/Users/stapi/OneDrive/Desktop/GD32VW553/V1_MQTT_OK/GD32VW55X_Wifi_BLE_SDK/GD32VW55x_RELEASE_V1.0.2/MSDK/lwip/lwip-2.1.2/src/api\netdb.c ****     /* copy socktype & protocol from hints if specified */
 641              		.loc 1 395 3 is_stmt 1
 395:C:/Users/stapi/OneDrive/Desktop/GD32VW553/V1_MQTT_OK/GD32VW55X_Wifi_BLE_SDK/GD32VW55x_RELEASE_V1.0.2/MSDK/lwip/lwip-2.1.2/src/api\netdb.c ****     /* copy socktype & protocol from hints if specified */
 642              		.loc 1 395 6 is_stmt 0
 643 0118 89C4     		beq	s1,zero,.L41
 397:C:/Users/stapi/OneDrive/Desktop/GD32VW553/V1_MQTT_OK/GD32VW55X_Wifi_BLE_SDK/GD32VW55x_RELEASE_V1.0.2/MSDK/lwip/lwip-2.1.2/src/api\netdb.c ****     ai->ai_protocol = hints->ai_protocol;
 644              		.loc 1 397 5 is_stmt 1
 397:C:/Users/stapi/OneDrive/Desktop/GD32VW553/V1_MQTT_OK/GD32VW55X_Wifi_BLE_SDK/GD32VW55x_RELEASE_V1.0.2/MSDK/lwip/lwip-2.1.2/src/api\netdb.c ****     ai->ai_protocol = hints->ai_protocol;
 645              		.loc 1 397 28 is_stmt 0
 646 011a 9C44     		lw	a5,8(s1)
 397:C:/Users/stapi/OneDrive/Desktop/GD32VW553/V1_MQTT_OK/GD32VW55X_Wifi_BLE_SDK/GD32VW55x_RELEASE_V1.0.2/MSDK/lwip/lwip-2.1.2/src/api\netdb.c ****     ai->ai_protocol = hints->ai_protocol;
 647              		.loc 1 397 21
 648 011c 1CC4     		sw	a5,8(s0)
 398:C:/Users/stapi/OneDrive/Desktop/GD32VW553/V1_MQTT_OK/GD32VW55X_Wifi_BLE_SDK/GD32VW55x_RELEASE_V1.0.2/MSDK/lwip/lwip-2.1.2/src/api\netdb.c ****   }
 649              		.loc 1 398 5 is_stmt 1
 398:C:/Users/stapi/OneDrive/Desktop/GD32VW553/V1_MQTT_OK/GD32VW55X_Wifi_BLE_SDK/GD32VW55x_RELEASE_V1.0.2/MSDK/lwip/lwip-2.1.2/src/api\netdb.c ****   }
 650              		.loc 1 398 28 is_stmt 0
 651 011e DC44     		lw	a5,12(s1)
 398:C:/Users/stapi/OneDrive/Desktop/GD32VW553/V1_MQTT_OK/GD32VW55X_Wifi_BLE_SDK/GD32VW55x_RELEASE_V1.0.2/MSDK/lwip/lwip-2.1.2/src/api\netdb.c ****   }
 652              		.loc 1 398 21
 653 0120 5CC4     		sw	a5,12(s0)
 654              	.L41:
 400:C:/Users/stapi/OneDrive/Desktop/GD32VW553/V1_MQTT_OK/GD32VW55X_Wifi_BLE_SDK/GD32VW55x_RELEASE_V1.0.2/MSDK/lwip/lwip-2.1.2/src/api\netdb.c ****     /* copy nodename to canonname if specified */
 655              		.loc 1 400 3 is_stmt 1
 400:C:/Users/stapi/OneDrive/Desktop/GD32VW553/V1_MQTT_OK/GD32VW55X_Wifi_BLE_SDK/GD32VW55x_RELEASE_V1.0.2/MSDK/lwip/lwip-2.1.2/src/api\netdb.c ****     /* copy nodename to canonname if specified */
 656              		.loc 1 400 6 is_stmt 0
 657 0122 63000902 		beq	s2,zero,.L42
 402:C:/Users/stapi/OneDrive/Desktop/GD32VW553/V1_MQTT_OK/GD32VW55X_Wifi_BLE_SDK/GD32VW55x_RELEASE_V1.0.2/MSDK/lwip/lwip-2.1.2/src/api\netdb.c ****     MEMCPY(ai->ai_canonname, nodename, namelen);
 658              		.loc 1 402 5 is_stmt 1
 402:C:/Users/stapi/OneDrive/Desktop/GD32VW553/V1_MQTT_OK/GD32VW55X_Wifi_BLE_SDK/GD32VW55x_RELEASE_V1.0.2/MSDK/lwip/lwip-2.1.2/src/api\netdb.c ****     MEMCPY(ai->ai_canonname, nodename, namelen);
 659              		.loc 1 402 62 is_stmt 0
 660 0126 93070403 		addi	a5,s0,48
 402:C:/Users/stapi/OneDrive/Desktop/GD32VW553/V1_MQTT_OK/GD32VW55X_Wifi_BLE_SDK/GD32VW55x_RELEASE_V1.0.2/MSDK/lwip/lwip-2.1.2/src/api\netdb.c ****     MEMCPY(ai->ai_canonname, nodename, namelen);
 661              		.loc 1 402 22
 662 012a 1CCC     		sw	a5,24(s0)
 403:C:/Users/stapi/OneDrive/Desktop/GD32VW553/V1_MQTT_OK/GD32VW55X_Wifi_BLE_SDK/GD32VW55x_RELEASE_V1.0.2/MSDK/lwip/lwip-2.1.2/src/api\netdb.c ****     ai->ai_canonname[namelen] = 0;
 663              		.loc 1 403 5 is_stmt 1
 664 012c 3E85     		mv	a0,a5
 665 012e 5286     		mv	a2,s4
 666 0130 CA85     		mv	a1,s2
 667 0132 97000000 		call	memcpy
 667      E7800000 
 668              	.LVL56:
 404:C:/Users/stapi/OneDrive/Desktop/GD32VW553/V1_MQTT_OK/GD32VW55X_Wifi_BLE_SDK/GD32VW55x_RELEASE_V1.0.2/MSDK/lwip/lwip-2.1.2/src/api\netdb.c ****   }
 669              		.loc 1 404 5
 404:C:/Users/stapi/OneDrive/Desktop/GD32VW553/V1_MQTT_OK/GD32VW55X_Wifi_BLE_SDK/GD32VW55x_RELEASE_V1.0.2/MSDK/lwip/lwip-2.1.2/src/api\netdb.c ****   }
 670              		.loc 1 404 31 is_stmt 0
 671 013a B3074501 		add	a5,a0,s4
 672 013e 23800700 		sb	zero,0(a5)
 673              	.L42:
 406:C:/Users/stapi/OneDrive/Desktop/GD32VW553/V1_MQTT_OK/GD32VW55X_Wifi_BLE_SDK/GD32VW55x_RELEASE_V1.0.2/MSDK/lwip/lwip-2.1.2/src/api\netdb.c ****   ai->ai_addr = (struct sockaddr *)sa;
 674              		.loc 1 406 3 is_stmt 1
 406:C:/Users/stapi/OneDrive/Desktop/GD32VW553/V1_MQTT_OK/GD32VW55X_Wifi_BLE_SDK/GD32VW55x_RELEASE_V1.0.2/MSDK/lwip/lwip-2.1.2/src/api\netdb.c ****   ai->ai_addr = (struct sockaddr *)sa;
 675              		.loc 1 406 18 is_stmt 0
 676 0142 C147     		li	a5,16
 677 0144 1CC8     		sw	a5,16(s0)
 407:C:/Users/stapi/OneDrive/Desktop/GD32VW553/V1_MQTT_OK/GD32VW55X_Wifi_BLE_SDK/GD32VW55x_RELEASE_V1.0.2/MSDK/lwip/lwip-2.1.2/src/api\netdb.c **** 
 678              		.loc 1 407 3 is_stmt 1
 407:C:/Users/stapi/OneDrive/Desktop/GD32VW553/V1_MQTT_OK/GD32VW55X_Wifi_BLE_SDK/GD32VW55x_RELEASE_V1.0.2/MSDK/lwip/lwip-2.1.2/src/api\netdb.c **** 
 679              		.loc 1 407 15 is_stmt 0
 680 0146 232A6401 		sw	s6,20(s0)
 409:C:/Users/stapi/OneDrive/Desktop/GD32VW553/V1_MQTT_OK/GD32VW55X_Wifi_BLE_SDK/GD32VW55x_RELEASE_V1.0.2/MSDK/lwip/lwip-2.1.2/src/api\netdb.c **** 
 681              		.loc 1 409 3 is_stmt 1
 409:C:/Users/stapi/OneDrive/Desktop/GD32VW553/V1_MQTT_OK/GD32VW55X_Wifi_BLE_SDK/GD32VW55x_RELEASE_V1.0.2/MSDK/lwip/lwip-2.1.2/src/api\netdb.c **** 
 682              		.loc 1 409 8 is_stmt 0
 683 014a 23A08A00 		sw	s0,0(s5)
 411:C:/Users/stapi/OneDrive/Desktop/GD32VW553/V1_MQTT_OK/GD32VW55X_Wifi_BLE_SDK/GD32VW55x_RELEASE_V1.0.2/MSDK/lwip/lwip-2.1.2/src/api\netdb.c **** }
 684              		.loc 1 411 3 is_stmt 1
 411:C:/Users/stapi/OneDrive/Desktop/GD32VW553/V1_MQTT_OK/GD32VW55X_Wifi_BLE_SDK/GD32VW55x_RELEASE_V1.0.2/MSDK/lwip/lwip-2.1.2/src/api\netdb.c **** }
 685              		.loc 1 411 10 is_stmt 0
 686 014e 8147     		li	a5,0
 687 0150 8DB7     		j	.L28
 688              		.cfi_endproc
 689              	.LFE7:
 691              		.globl	h_errno
 692              		.section	.bss.s_hostent.1,"aw",@nobits
 693              		.align	2
 694              		.set	.LANCHOR0,. + 0
 697              	s_hostent.1:
 698 0000 00000000 		.zero	20
 698      00000000 
 698      00000000 
 698      00000000 
 698      00000000 
 699              		.section	.bss.s_hostname.2,"aw",@nobits
 700              		.align	2
 701              		.set	.LANCHOR4,. + 0
 704              	s_hostname.2:
 705 0000 00000000 		.zero	257
 705      00000000 
 705      00000000 
 705      00000000 
 705      00000000 
 706              		.section	.sbss.h_errno,"aw",@nobits
 707              		.align	2
 708              		.set	.LANCHOR1,. + 0
 711              	h_errno:
 712 0000 00000000 		.zero	4
 713              		.section	.sbss.s_aliases.0,"aw",@nobits
 714              		.align	2
 715              		.set	.LANCHOR5,. + 0
 718              	s_aliases.0:
 719 0000 00000000 		.zero	4
 720              		.section	.sbss.s_hostent_addr.4,"aw",@nobits
 721              		.align	2
 722              		.set	.LANCHOR2,. + 0
 725              	s_hostent_addr.4:
 726 0000 00000000 		.zero	4
 727              		.section	.sbss.s_phostent_addr.3,"aw",@nobits
 728              		.align	2
 729              		.set	.LANCHOR3,. + 0
 732              	s_phostent_addr.3:
 733 0000 00000000 		.zero	8
 733      00000000 
 734              		.text
 735              	.Letext0:
 736              		.file 2 "c:\\users\\stapi\\onedrive\\desktop\\gd32vw553\\embeddedbuilder_v1.4.7.26843\\tools\\nucl
 737              		.file 3 "c:\\users\\stapi\\onedrive\\desktop\\gd32vw553\\embeddedbuilder_v1.4.7.26843\\tools\\nucl
 738              		.file 4 "c:\\users\\stapi\\onedrive\\desktop\\gd32vw553\\embeddedbuilder_v1.4.7.26843\\tools\\nucl
 739              		.file 5 "..\\..\\..\\..\\lwip\\lwip-2.1.2\\src\\include/lwip/arch.h"
 740              		.file 6 "..\\..\\..\\..\\lwip\\lwip-2.1.2\\src\\include/lwip/ip4_addr.h"
 741              		.file 7 "..\\..\\..\\..\\lwip\\lwip-2.1.2\\src\\include/lwip/ip_addr.h"
 742              		.file 8 "..\\..\\..\\..\\lwip\\lwip-2.1.2\\src\\include/lwip/inet.h"
 743              		.file 9 "..\\..\\..\\..\\lwip\\lwip-2.1.2\\src\\include/lwip/err.h"
 744              		.file 10 "..\\..\\..\\..\\lwip\\lwip-2.1.2\\src\\include/lwip/memp.h"
 745              		.file 11 "..\\..\\..\\..\\lwip\\lwip-2.1.2\\src\\include/lwip/sockets.h"
 746              		.file 12 "..\\..\\..\\..\\lwip\\lwip-2.1.2\\src\\include/lwip/netdb.h"
 747              		.file 13 "..\\..\\..\\..\\lwip\\lwip-2.1.2\\src\\include/lwip/def.h"
 748              		.file 14 "c:\\users\\stapi\\onedrive\\desktop\\gd32vw553\\embeddedbuilder_v1.4.7.26843\\tools\\nuc
 749              		.file 15 "c:\\users\\stapi\\onedrive\\desktop\\gd32vw553\\embeddedbuilder_v1.4.7.26843\\tools\\nuc
 750              		.file 16 "..\\..\\..\\..\\lwip\\lwip-2.1.2\\src\\include/lwip/api.h"
 751              		.file 17 "<built-in>"
 752              		.file 18 "..\\..\\..\\..\\lwip\\lwip-2.1.2\\src\\include/lwip/netif.h"
DEFINED SYMBOLS
                            *ABS*:0000000000000000 netdb.c
C:\Users\stapi\AppData\Local\Temp\ccIUJ9u0.s:13     .text.lwip_gethostbyname:0000000000000000 lwip_gethostbyname
C:\Users\stapi\AppData\Local\Temp\ccIUJ9u0.s:17     .text.lwip_gethostbyname:0000000000000000 .L0 
C:\Users\stapi\AppData\Local\Temp\ccIUJ9u0.s:19     .text.lwip_gethostbyname:0000000000000000 .L0 
C:\Users\stapi\AppData\Local\Temp\ccIUJ9u0.s:20     .text.lwip_gethostbyname:0000000000000008 .L0 
C:\Users\stapi\AppData\Local\Temp\ccIUJ9u0.s:21     .text.lwip_gethostbyname:0000000000000008 .L0 
C:\Users\stapi\AppData\Local\Temp\ccIUJ9u0.s:22     .text.lwip_gethostbyname:0000000000000008 .L0 
C:\Users\stapi\AppData\Local\Temp\ccIUJ9u0.s:23     .text.lwip_gethostbyname:0000000000000008 .L0 
C:\Users\stapi\AppData\Local\Temp\ccIUJ9u0.s:24     .text.lwip_gethostbyname:0000000000000008 .L0 
C:\Users\stapi\AppData\Local\Temp\ccIUJ9u0.s:26     .text.lwip_gethostbyname:0000000000000008 .L0 
C:\Users\stapi\AppData\Local\Temp\ccIUJ9u0.s:27     .text.lwip_gethostbyname:0000000000000008 .L0 
C:\Users\stapi\AppData\Local\Temp\ccIUJ9u0.s:28     .text.lwip_gethostbyname:0000000000000008 .L0 
C:\Users\stapi\AppData\Local\Temp\ccIUJ9u0.s:29     .text.lwip_gethostbyname:0000000000000008 .L0 
C:\Users\stapi\AppData\Local\Temp\ccIUJ9u0.s:30     .text.lwip_gethostbyname:0000000000000008 .L0 
C:\Users\stapi\AppData\Local\Temp\ccIUJ9u0.s:31     .text.lwip_gethostbyname:0000000000000008 .L0 
C:\Users\stapi\AppData\Local\Temp\ccIUJ9u0.s:32     .text.lwip_gethostbyname:0000000000000008 .L0 
C:\Users\stapi\AppData\Local\Temp\ccIUJ9u0.s:33     .text.lwip_gethostbyname:0000000000000008 .L0 
C:\Users\stapi\AppData\Local\Temp\ccIUJ9u0.s:34     .text.lwip_gethostbyname:0000000000000008 .L0 
C:\Users\stapi\AppData\Local\Temp\ccIUJ9u0.s:35     .text.lwip_gethostbyname:000000000000000a .L0 
C:\Users\stapi\AppData\Local\Temp\ccIUJ9u0.s:37     .text.lwip_gethostbyname:000000000000000a .L0 
C:\Users\stapi\AppData\Local\Temp\ccIUJ9u0.s:39     .text.lwip_gethostbyname:000000000000000c .L0 
C:\Users\stapi\AppData\Local\Temp\ccIUJ9u0.s:41     .text.lwip_gethostbyname:000000000000000e .L0 
C:\Users\stapi\AppData\Local\Temp\ccIUJ9u0.s:44     .text.lwip_gethostbyname:0000000000000016 .L0 
C:\Users\stapi\AppData\Local\Temp\ccIUJ9u0.s:45     .text.lwip_gethostbyname:0000000000000016 .L0 
C:\Users\stapi\AppData\Local\Temp\ccIUJ9u0.s:47     .text.lwip_gethostbyname:0000000000000018 .L0 
C:\Users\stapi\AppData\Local\Temp\ccIUJ9u0.s:48     .text.lwip_gethostbyname:0000000000000018 .L0 
C:\Users\stapi\AppData\Local\Temp\ccIUJ9u0.s:49     .text.lwip_gethostbyname:0000000000000018 .L0 
C:\Users\stapi\AppData\Local\Temp\ccIUJ9u0.s:53     .text.lwip_gethostbyname:0000000000000024 .L0 
C:\Users\stapi\AppData\Local\Temp\ccIUJ9u0.s:54     .text.lwip_gethostbyname:0000000000000024 .L0 
C:\Users\stapi\AppData\Local\Temp\ccIUJ9u0.s:58     .text.lwip_gethostbyname:0000000000000026 .L0 
C:\Users\stapi\AppData\Local\Temp\ccIUJ9u0.s:59     .text.lwip_gethostbyname:0000000000000028 .L0 
C:\Users\stapi\AppData\Local\Temp\ccIUJ9u0.s:60     .text.lwip_gethostbyname:0000000000000028 .L0 
C:\Users\stapi\AppData\Local\Temp\ccIUJ9u0.s:62     .text.lwip_gethostbyname:0000000000000030 .L0 
C:\Users\stapi\AppData\Local\Temp\ccIUJ9u0.s:63     .text.lwip_gethostbyname:0000000000000030 .L0 
C:\Users\stapi\AppData\Local\Temp\ccIUJ9u0.s:64     .text.lwip_gethostbyname:0000000000000030 .L0 
C:\Users\stapi\AppData\Local\Temp\ccIUJ9u0.s:65     .text.lwip_gethostbyname:0000000000000030 .L0 
C:\Users\stapi\AppData\Local\Temp\ccIUJ9u0.s:66     .text.lwip_gethostbyname:0000000000000030 .L0 
C:\Users\stapi\AppData\Local\Temp\ccIUJ9u0.s:69     .text.lwip_gethostbyname:0000000000000030 .L0 
C:\Users\stapi\AppData\Local\Temp\ccIUJ9u0.s:71     .text.lwip_gethostbyname:0000000000000030 .L0 
C:\Users\stapi\AppData\Local\Temp\ccIUJ9u0.s:72     .text.lwip_gethostbyname:0000000000000030 .L0 
C:\Users\stapi\AppData\Local\Temp\ccIUJ9u0.s:74     .text.lwip_gethostbyname:0000000000000032 .L0 
C:\Users\stapi\AppData\Local\Temp\ccIUJ9u0.s:77     .text.lwip_gethostbyname:0000000000000036 .L0 
C:\Users\stapi\AppData\Local\Temp\ccIUJ9u0.s:79     .text.lwip_gethostbyname:000000000000003a .L0 
C:\Users\stapi\AppData\Local\Temp\ccIUJ9u0.s:81     .text.lwip_gethostbyname:000000000000003e .L0 
C:\Users\stapi\AppData\Local\Temp\ccIUJ9u0.s:83     .text.lwip_gethostbyname:0000000000000042 .L0 
C:\Users\stapi\AppData\Local\Temp\ccIUJ9u0.s:85     .text.lwip_gethostbyname:0000000000000046 .L0 
C:\Users\stapi\AppData\Local\Temp\ccIUJ9u0.s:90     .text.lwip_gethostbyname:0000000000000054 .L0 
C:\Users\stapi\AppData\Local\Temp\ccIUJ9u0.s:92     .text.lwip_gethostbyname:0000000000000056 .L0 
C:\Users\stapi\AppData\Local\Temp\ccIUJ9u0.s:93     .text.lwip_gethostbyname:0000000000000056 .L0 
C:\Users\stapi\AppData\Local\Temp\ccIUJ9u0.s:95     .text.lwip_gethostbyname:0000000000000058 .L0 
C:\Users\stapi\AppData\Local\Temp\ccIUJ9u0.s:96     .text.lwip_gethostbyname:0000000000000058 .L0 
C:\Users\stapi\AppData\Local\Temp\ccIUJ9u0.s:98     .text.lwip_gethostbyname:000000000000005c .L0 
C:\Users\stapi\AppData\Local\Temp\ccIUJ9u0.s:101    .text.lwip_gethostbyname:0000000000000064 .L0 
C:\Users\stapi\AppData\Local\Temp\ccIUJ9u0.s:102    .text.lwip_gethostbyname:0000000000000064 .L0 
C:\Users\stapi\AppData\Local\Temp\ccIUJ9u0.s:104    .text.lwip_gethostbyname:0000000000000068 .L0 
C:\Users\stapi\AppData\Local\Temp\ccIUJ9u0.s:106    .text.lwip_gethostbyname:000000000000006c .L0 
C:\Users\stapi\AppData\Local\Temp\ccIUJ9u0.s:108    .text.lwip_gethostbyname:0000000000000070 .L0 
C:\Users\stapi\AppData\Local\Temp\ccIUJ9u0.s:111    .text.lwip_gethostbyname:0000000000000078 .L0 
C:\Users\stapi\AppData\Local\Temp\ccIUJ9u0.s:113    .text.lwip_gethostbyname:000000000000007a .L0 
C:\Users\stapi\AppData\Local\Temp\ccIUJ9u0.s:116    .text.lwip_gethostbyname:000000000000007e .L0 
C:\Users\stapi\AppData\Local\Temp\ccIUJ9u0.s:118    .text.lwip_gethostbyname:0000000000000080 .L0 
C:\Users\stapi\AppData\Local\Temp\ccIUJ9u0.s:120    .text.lwip_gethostbyname:0000000000000084 .L0 
C:\Users\stapi\AppData\Local\Temp\ccIUJ9u0.s:121    .text.lwip_gethostbyname:0000000000000084 .L0 
C:\Users\stapi\AppData\Local\Temp\ccIUJ9u0.s:123    .text.lwip_gethostbyname:0000000000000088 .L0 
C:\Users\stapi\AppData\Local\Temp\ccIUJ9u0.s:124    .text.lwip_gethostbyname:0000000000000088 .L0 
C:\Users\stapi\AppData\Local\Temp\ccIUJ9u0.s:125    .text.lwip_gethostbyname:0000000000000088 .L0 
C:\Users\stapi\AppData\Local\Temp\ccIUJ9u0.s:126    .text.lwip_gethostbyname:0000000000000088 .L0 
C:\Users\stapi\AppData\Local\Temp\ccIUJ9u0.s:127    .text.lwip_gethostbyname:0000000000000088 .L0 
C:\Users\stapi\AppData\Local\Temp\ccIUJ9u0.s:129    .text.lwip_gethostbyname:000000000000008a .L0 
C:\Users\stapi\AppData\Local\Temp\ccIUJ9u0.s:130    .text.lwip_gethostbyname:000000000000008a .L0 
C:\Users\stapi\AppData\Local\Temp\ccIUJ9u0.s:132    .text.lwip_gethostbyname:000000000000008c .L0 
C:\Users\stapi\AppData\Local\Temp\ccIUJ9u0.s:133    .text.lwip_gethostbyname:000000000000008c .L0 
C:\Users\stapi\AppData\Local\Temp\ccIUJ9u0.s:135    .text.lwip_gethostbyname:0000000000000092 .L0 
C:\Users\stapi\AppData\Local\Temp\ccIUJ9u0.s:142    .text.lwip_gethostbyname_r:0000000000000000 lwip_gethostbyname_r
C:\Users\stapi\AppData\Local\Temp\ccIUJ9u0.s:145    .text.lwip_gethostbyname_r:0000000000000000 .L0 
C:\Users\stapi\AppData\Local\Temp\ccIUJ9u0.s:147    .text.lwip_gethostbyname_r:0000000000000000 .L0 
C:\Users\stapi\AppData\Local\Temp\ccIUJ9u0.s:148    .text.lwip_gethostbyname_r:0000000000000008 .L0 
C:\Users\stapi\AppData\Local\Temp\ccIUJ9u0.s:149    .text.lwip_gethostbyname_r:0000000000000008 .L0 
C:\Users\stapi\AppData\Local\Temp\ccIUJ9u0.s:150    .text.lwip_gethostbyname_r:0000000000000008 .L0 
C:\Users\stapi\AppData\Local\Temp\ccIUJ9u0.s:151    .text.lwip_gethostbyname_r:0000000000000008 .L0 
C:\Users\stapi\AppData\Local\Temp\ccIUJ9u0.s:152    .text.lwip_gethostbyname_r:0000000000000008 .L0 
C:\Users\stapi\AppData\Local\Temp\ccIUJ9u0.s:153    .text.lwip_gethostbyname_r:0000000000000008 .L0 
C:\Users\stapi\AppData\Local\Temp\ccIUJ9u0.s:154    .text.lwip_gethostbyname_r:0000000000000008 .L0 
C:\Users\stapi\AppData\Local\Temp\ccIUJ9u0.s:155    .text.lwip_gethostbyname_r:0000000000000008 .L0 
C:\Users\stapi\AppData\Local\Temp\ccIUJ9u0.s:156    .text.lwip_gethostbyname_r:0000000000000008 .L0 
C:\Users\stapi\AppData\Local\Temp\ccIUJ9u0.s:157    .text.lwip_gethostbyname_r:0000000000000008 .L0 
C:\Users\stapi\AppData\Local\Temp\ccIUJ9u0.s:159    .text.lwip_gethostbyname_r:0000000000000008 .L0 
C:\Users\stapi\AppData\Local\Temp\ccIUJ9u0.s:160    .text.lwip_gethostbyname_r:0000000000000008 .L0 
C:\Users\stapi\AppData\Local\Temp\ccIUJ9u0.s:161    .text.lwip_gethostbyname_r:0000000000000008 .L0 
C:\Users\stapi\AppData\Local\Temp\ccIUJ9u0.s:162    .text.lwip_gethostbyname_r:0000000000000008 .L0 
C:\Users\stapi\AppData\Local\Temp\ccIUJ9u0.s:163    .text.lwip_gethostbyname_r:0000000000000008 .L0 
C:\Users\stapi\AppData\Local\Temp\ccIUJ9u0.s:164    .text.lwip_gethostbyname_r:0000000000000008 .L0 
C:\Users\stapi\AppData\Local\Temp\ccIUJ9u0.s:165    .text.lwip_gethostbyname_r:0000000000000008 .L0 
C:\Users\stapi\AppData\Local\Temp\ccIUJ9u0.s:166    .text.lwip_gethostbyname_r:000000000000000a .L0 
C:\Users\stapi\AppData\Local\Temp\ccIUJ9u0.s:168    .text.lwip_gethostbyname_r:000000000000000a .L0 
C:\Users\stapi\AppData\Local\Temp\ccIUJ9u0.s:174    .text.lwip_gethostbyname_r:0000000000000014 .L0 
C:\Users\stapi\AppData\Local\Temp\ccIUJ9u0.s:176    .text.lwip_gethostbyname_r:0000000000000018 .L0 
C:\Users\stapi\AppData\Local\Temp\ccIUJ9u0.s:181    .text.lwip_gethostbyname_r:000000000000001c .L0 
C:\Users\stapi\AppData\Local\Temp\ccIUJ9u0.s:182    .text.lwip_gethostbyname_r:000000000000001c .L0 
C:\Users\stapi\AppData\Local\Temp\ccIUJ9u0.s:185    .text.lwip_gethostbyname_r:0000000000000020 .L0 
C:\Users\stapi\AppData\Local\Temp\ccIUJ9u0.s:186    .text.lwip_gethostbyname_r:0000000000000020 .L0 
C:\Users\stapi\AppData\Local\Temp\ccIUJ9u0.s:190    .text.lwip_gethostbyname_r:0000000000000022 .L0 
C:\Users\stapi\AppData\Local\Temp\ccIUJ9u0.s:192    .text.lwip_gethostbyname_r:0000000000000026 .L0 
C:\Users\stapi\AppData\Local\Temp\ccIUJ9u0.s:193    .text.lwip_gethostbyname_r:0000000000000026 .L0 
C:\Users\stapi\AppData\Local\Temp\ccIUJ9u0.s:196    .text.lwip_gethostbyname_r:0000000000000028 .L0 
C:\Users\stapi\AppData\Local\Temp\ccIUJ9u0.s:197    .text.lwip_gethostbyname_r:000000000000002a .L0 
C:\Users\stapi\AppData\Local\Temp\ccIUJ9u0.s:198    .text.lwip_gethostbyname_r:000000000000002a .L0 
C:\Users\stapi\AppData\Local\Temp\ccIUJ9u0.s:200    .text.lwip_gethostbyname_r:0000000000000032 .L0 
C:\Users\stapi\AppData\Local\Temp\ccIUJ9u0.s:201    .text.lwip_gethostbyname_r:0000000000000032 .L0 
C:\Users\stapi\AppData\Local\Temp\ccIUJ9u0.s:202    .text.lwip_gethostbyname_r:0000000000000032 .L0 
C:\Users\stapi\AppData\Local\Temp\ccIUJ9u0.s:203    .text.lwip_gethostbyname_r:0000000000000032 .L0 
C:\Users\stapi\AppData\Local\Temp\ccIUJ9u0.s:204    .text.lwip_gethostbyname_r:0000000000000032 .L0 
C:\Users\stapi\AppData\Local\Temp\ccIUJ9u0.s:205    .text.lwip_gethostbyname_r:0000000000000032 .L0 
C:\Users\stapi\AppData\Local\Temp\ccIUJ9u0.s:206    .text.lwip_gethostbyname_r:0000000000000032 .L0 
C:\Users\stapi\AppData\Local\Temp\ccIUJ9u0.s:207    .text.lwip_gethostbyname_r:0000000000000032 .L0 
C:\Users\stapi\AppData\Local\Temp\ccIUJ9u0.s:208    .text.lwip_gethostbyname_r:0000000000000032 .L0 
C:\Users\stapi\AppData\Local\Temp\ccIUJ9u0.s:209    .text.lwip_gethostbyname_r:0000000000000032 .L0 
C:\Users\stapi\AppData\Local\Temp\ccIUJ9u0.s:212    .text.lwip_gethostbyname_r:0000000000000032 .L0 
C:\Users\stapi\AppData\Local\Temp\ccIUJ9u0.s:214    .text.lwip_gethostbyname_r:0000000000000032 .L0 
C:\Users\stapi\AppData\Local\Temp\ccIUJ9u0.s:215    .text.lwip_gethostbyname_r:0000000000000032 .L0 
C:\Users\stapi\AppData\Local\Temp\ccIUJ9u0.s:217    .text.lwip_gethostbyname_r:0000000000000036 .L0 
C:\Users\stapi\AppData\Local\Temp\ccIUJ9u0.s:218    .text.lwip_gethostbyname_r:0000000000000036 .L0 
C:\Users\stapi\AppData\Local\Temp\ccIUJ9u0.s:220    .text.lwip_gethostbyname_r:000000000000003a .L0 
C:\Users\stapi\AppData\Local\Temp\ccIUJ9u0.s:222    .text.lwip_gethostbyname_r:000000000000003c .L0 
C:\Users\stapi\AppData\Local\Temp\ccIUJ9u0.s:224    .text.lwip_gethostbyname_r:000000000000003e .L0 
C:\Users\stapi\AppData\Local\Temp\ccIUJ9u0.s:225    .text.lwip_gethostbyname_r:000000000000003e .L0 
C:\Users\stapi\AppData\Local\Temp\ccIUJ9u0.s:230    .text.lwip_gethostbyname_r:0000000000000048 .L0 
C:\Users\stapi\AppData\Local\Temp\ccIUJ9u0.s:232    .text.lwip_gethostbyname_r:000000000000004c .L0 
C:\Users\stapi\AppData\Local\Temp\ccIUJ9u0.s:235    .text.lwip_gethostbyname_r:000000000000004e .L0 
C:\Users\stapi\AppData\Local\Temp\ccIUJ9u0.s:236    .text.lwip_gethostbyname_r:000000000000004e .L0 
C:\Users\stapi\AppData\Local\Temp\ccIUJ9u0.s:238    .text.lwip_gethostbyname_r:0000000000000052 .L0 
C:\Users\stapi\AppData\Local\Temp\ccIUJ9u0.s:239    .text.lwip_gethostbyname_r:0000000000000052 .L0 
C:\Users\stapi\AppData\Local\Temp\ccIUJ9u0.s:243    .text.lwip_gethostbyname_r:0000000000000058 .L0 
C:\Users\stapi\AppData\Local\Temp\ccIUJ9u0.s:244    .text.lwip_gethostbyname_r:0000000000000058 .L0 
C:\Users\stapi\AppData\Local\Temp\ccIUJ9u0.s:249    .text.lwip_gethostbyname_r:000000000000005c .L0 
C:\Users\stapi\AppData\Local\Temp\ccIUJ9u0.s:250    .text.lwip_gethostbyname_r:000000000000005c .L0 
C:\Users\stapi\AppData\Local\Temp\ccIUJ9u0.s:255    .text.lwip_gethostbyname_r:0000000000000064 .L0 
C:\Users\stapi\AppData\Local\Temp\ccIUJ9u0.s:258    .text.lwip_gethostbyname_r:0000000000000068 .L0 
C:\Users\stapi\AppData\Local\Temp\ccIUJ9u0.s:259    .text.lwip_gethostbyname_r:0000000000000068 .L0 
C:\Users\stapi\AppData\Local\Temp\ccIUJ9u0.s:262    .text.lwip_gethostbyname_r:0000000000000070 .L0 
C:\Users\stapi\AppData\Local\Temp\ccIUJ9u0.s:263    .text.lwip_gethostbyname_r:0000000000000070 .L0 
C:\Users\stapi\AppData\Local\Temp\ccIUJ9u0.s:265    .text.lwip_gethostbyname_r:0000000000000072 .L0 
C:\Users\stapi\AppData\Local\Temp\ccIUJ9u0.s:266    .text.lwip_gethostbyname_r:0000000000000072 .L0 
C:\Users\stapi\AppData\Local\Temp\ccIUJ9u0.s:267    .text.lwip_gethostbyname_r:0000000000000072 .L0 
C:\Users\stapi\AppData\Local\Temp\ccIUJ9u0.s:271    .text.lwip_gethostbyname_r:0000000000000078 .L0 
C:\Users\stapi\AppData\Local\Temp\ccIUJ9u0.s:276    .text.lwip_gethostbyname_r:000000000000007e .L0 
C:\Users\stapi\AppData\Local\Temp\ccIUJ9u0.s:279    .text.lwip_gethostbyname_r:0000000000000080 .L0 
C:\Users\stapi\AppData\Local\Temp\ccIUJ9u0.s:282    .text.lwip_gethostbyname_r:0000000000000088 .L0 
C:\Users\stapi\AppData\Local\Temp\ccIUJ9u0.s:283    .text.lwip_gethostbyname_r:0000000000000088 .L0 
C:\Users\stapi\AppData\Local\Temp\ccIUJ9u0.s:285    .text.lwip_gethostbyname_r:000000000000008c .L0 
C:\Users\stapi\AppData\Local\Temp\ccIUJ9u0.s:286    .text.lwip_gethostbyname_r:000000000000008c .L0 
C:\Users\stapi\AppData\Local\Temp\ccIUJ9u0.s:288    .text.lwip_gethostbyname_r:0000000000000090 .L0 
C:\Users\stapi\AppData\Local\Temp\ccIUJ9u0.s:289    .text.lwip_gethostbyname_r:0000000000000090 .L0 
C:\Users\stapi\AppData\Local\Temp\ccIUJ9u0.s:291    .text.lwip_gethostbyname_r:0000000000000094 .L0 
C:\Users\stapi\AppData\Local\Temp\ccIUJ9u0.s:292    .text.lwip_gethostbyname_r:0000000000000094 .L0 
C:\Users\stapi\AppData\Local\Temp\ccIUJ9u0.s:294    .text.lwip_gethostbyname_r:0000000000000098 .L0 
C:\Users\stapi\AppData\Local\Temp\ccIUJ9u0.s:295    .text.lwip_gethostbyname_r:0000000000000098 .L0 
C:\Users\stapi\AppData\Local\Temp\ccIUJ9u0.s:297    .text.lwip_gethostbyname_r:000000000000009c .L0 
C:\Users\stapi\AppData\Local\Temp\ccIUJ9u0.s:299    .text.lwip_gethostbyname_r:000000000000009e .L0 
C:\Users\stapi\AppData\Local\Temp\ccIUJ9u0.s:302    .text.lwip_gethostbyname_r:00000000000000a2 .L0 
C:\Users\stapi\AppData\Local\Temp\ccIUJ9u0.s:304    .text.lwip_gethostbyname_r:00000000000000a4 .L0 
C:\Users\stapi\AppData\Local\Temp\ccIUJ9u0.s:306    .text.lwip_gethostbyname_r:00000000000000a8 .L0 
C:\Users\stapi\AppData\Local\Temp\ccIUJ9u0.s:307    .text.lwip_gethostbyname_r:00000000000000a8 .L0 
C:\Users\stapi\AppData\Local\Temp\ccIUJ9u0.s:308    .text.lwip_gethostbyname_r:00000000000000a8 .L0 
C:\Users\stapi\AppData\Local\Temp\ccIUJ9u0.s:309    .text.lwip_gethostbyname_r:00000000000000a8 .L0 
C:\Users\stapi\AppData\Local\Temp\ccIUJ9u0.s:311    .text.lwip_gethostbyname_r:00000000000000aa .L0 
C:\Users\stapi\AppData\Local\Temp\ccIUJ9u0.s:312    .text.lwip_gethostbyname_r:00000000000000aa .L0 
C:\Users\stapi\AppData\Local\Temp\ccIUJ9u0.s:314    .text.lwip_gethostbyname_r:00000000000000ac .L0 
C:\Users\stapi\AppData\Local\Temp\ccIUJ9u0.s:315    .text.lwip_gethostbyname_r:00000000000000ac .L0 
C:\Users\stapi\AppData\Local\Temp\ccIUJ9u0.s:317    .text.lwip_gethostbyname_r:00000000000000b0 .L0 
C:\Users\stapi\AppData\Local\Temp\ccIUJ9u0.s:318    .text.lwip_gethostbyname_r:00000000000000b0 .L0 
C:\Users\stapi\AppData\Local\Temp\ccIUJ9u0.s:320    .text.lwip_gethostbyname_r:00000000000000b4 .L0 
C:\Users\stapi\AppData\Local\Temp\ccIUJ9u0.s:327    .text.lwip_freeaddrinfo:0000000000000000 lwip_freeaddrinfo
C:\Users\stapi\AppData\Local\Temp\ccIUJ9u0.s:330    .text.lwip_freeaddrinfo:0000000000000000 .L0 
C:\Users\stapi\AppData\Local\Temp\ccIUJ9u0.s:332    .text.lwip_freeaddrinfo:0000000000000000 .L0 
C:\Users\stapi\AppData\Local\Temp\ccIUJ9u0.s:333    .text.lwip_freeaddrinfo:0000000000000000 .L0 
C:\Users\stapi\AppData\Local\Temp\ccIUJ9u0.s:334    .text.lwip_freeaddrinfo:0000000000000000 .L0 
C:\Users\stapi\AppData\Local\Temp\ccIUJ9u0.s:335    .text.lwip_freeaddrinfo:0000000000000000 .L0 
C:\Users\stapi\AppData\Local\Temp\ccIUJ9u0.s:336    .text.lwip_freeaddrinfo:0000000000000000 .L0 
C:\Users\stapi\AppData\Local\Temp\ccIUJ9u0.s:338    .text.lwip_freeaddrinfo:0000000000000002 .L0 
C:\Users\stapi\AppData\Local\Temp\ccIUJ9u0.s:342    .text.lwip_freeaddrinfo:0000000000000006 .L0 
C:\Users\stapi\AppData\Local\Temp\ccIUJ9u0.s:343    .text.lwip_freeaddrinfo:000000000000000e .L0 
C:\Users\stapi\AppData\Local\Temp\ccIUJ9u0.s:344    .text.lwip_freeaddrinfo:000000000000000e .L0 
C:\Users\stapi\AppData\Local\Temp\ccIUJ9u0.s:345    .text.lwip_freeaddrinfo:000000000000000e .L0 
C:\Users\stapi\AppData\Local\Temp\ccIUJ9u0.s:349    .text.lwip_freeaddrinfo:000000000000000e .L0 
C:\Users\stapi\AppData\Local\Temp\ccIUJ9u0.s:350    .text.lwip_freeaddrinfo:000000000000000e .L0 
C:\Users\stapi\AppData\Local\Temp\ccIUJ9u0.s:353    .text.lwip_freeaddrinfo:0000000000000010 .L0 
C:\Users\stapi\AppData\Local\Temp\ccIUJ9u0.s:357    .text.lwip_freeaddrinfo:000000000000001a .L0 
C:\Users\stapi\AppData\Local\Temp\ccIUJ9u0.s:358    .text.lwip_freeaddrinfo:000000000000001a .L0 
C:\Users\stapi\AppData\Local\Temp\ccIUJ9u0.s:360    .text.lwip_freeaddrinfo:000000000000001c .L0 
C:\Users\stapi\AppData\Local\Temp\ccIUJ9u0.s:362    .text.lwip_freeaddrinfo:000000000000001e .L0 
C:\Users\stapi\AppData\Local\Temp\ccIUJ9u0.s:363    .text.lwip_freeaddrinfo:0000000000000026 .L0 
C:\Users\stapi\AppData\Local\Temp\ccIUJ9u0.s:364    .text.lwip_freeaddrinfo:0000000000000026 .L0 
C:\Users\stapi\AppData\Local\Temp\ccIUJ9u0.s:365    .text.lwip_freeaddrinfo:0000000000000026 .L0 
C:\Users\stapi\AppData\Local\Temp\ccIUJ9u0.s:366    .text.lwip_freeaddrinfo:0000000000000026 .L0 
C:\Users\stapi\AppData\Local\Temp\ccIUJ9u0.s:373    .text.lwip_getaddrinfo:0000000000000000 lwip_getaddrinfo
C:\Users\stapi\AppData\Local\Temp\ccIUJ9u0.s:376    .text.lwip_getaddrinfo:0000000000000000 .L0 
C:\Users\stapi\AppData\Local\Temp\ccIUJ9u0.s:378    .text.lwip_getaddrinfo:0000000000000000 .L0 
C:\Users\stapi\AppData\Local\Temp\ccIUJ9u0.s:379    .text.lwip_getaddrinfo:0000000000000000 .L0 
C:\Users\stapi\AppData\Local\Temp\ccIUJ9u0.s:380    .text.lwip_getaddrinfo:0000000000000000 .L0 
C:\Users\stapi\AppData\Local\Temp\ccIUJ9u0.s:381    .text.lwip_getaddrinfo:0000000000000000 .L0 
C:\Users\stapi\AppData\Local\Temp\ccIUJ9u0.s:382    .text.lwip_getaddrinfo:0000000000000000 .L0 
C:\Users\stapi\AppData\Local\Temp\ccIUJ9u0.s:383    .text.lwip_getaddrinfo:0000000000000000 .L0 
C:\Users\stapi\AppData\Local\Temp\ccIUJ9u0.s:384    .text.lwip_getaddrinfo:0000000000000000 .L0 
C:\Users\stapi\AppData\Local\Temp\ccIUJ9u0.s:385    .text.lwip_getaddrinfo:0000000000000000 .L0 
C:\Users\stapi\AppData\Local\Temp\ccIUJ9u0.s:386    .text.lwip_getaddrinfo:0000000000000000 .L0 
C:\Users\stapi\AppData\Local\Temp\ccIUJ9u0.s:387    .text.lwip_getaddrinfo:0000000000000000 .L0 
C:\Users\stapi\AppData\Local\Temp\ccIUJ9u0.s:388    .text.lwip_getaddrinfo:0000000000000000 .L0 
C:\Users\stapi\AppData\Local\Temp\ccIUJ9u0.s:390    .text.lwip_getaddrinfo:0000000000000002 .L0 
C:\Users\stapi\AppData\Local\Temp\ccIUJ9u0.s:392    .text.lwip_getaddrinfo:0000000000000006 .L0 
C:\Users\stapi\AppData\Local\Temp\ccIUJ9u0.s:398    .text.lwip_getaddrinfo:000000000000000a .L0 
C:\Users\stapi\AppData\Local\Temp\ccIUJ9u0.s:399    .text.lwip_getaddrinfo:0000000000000012 .L0 
C:\Users\stapi\AppData\Local\Temp\ccIUJ9u0.s:400    .text.lwip_getaddrinfo:0000000000000012 .L0 
C:\Users\stapi\AppData\Local\Temp\ccIUJ9u0.s:401    .text.lwip_getaddrinfo:0000000000000012 .L0 
C:\Users\stapi\AppData\Local\Temp\ccIUJ9u0.s:402    .text.lwip_getaddrinfo:0000000000000012 .L0 
C:\Users\stapi\AppData\Local\Temp\ccIUJ9u0.s:403    .text.lwip_getaddrinfo:0000000000000012 .L0 
C:\Users\stapi\AppData\Local\Temp\ccIUJ9u0.s:404    .text.lwip_getaddrinfo:0000000000000012 .L0 
C:\Users\stapi\AppData\Local\Temp\ccIUJ9u0.s:405    .text.lwip_getaddrinfo:0000000000000012 .L0 
C:\Users\stapi\AppData\Local\Temp\ccIUJ9u0.s:406    .text.lwip_getaddrinfo:0000000000000012 .L0 
C:\Users\stapi\AppData\Local\Temp\ccIUJ9u0.s:407    .text.lwip_getaddrinfo:0000000000000012 .L0 
C:\Users\stapi\AppData\Local\Temp\ccIUJ9u0.s:410    .text.lwip_getaddrinfo:0000000000000014 .L0 
C:\Users\stapi\AppData\Local\Temp\ccIUJ9u0.s:412    .text.lwip_getaddrinfo:0000000000000018 .L0 
C:\Users\stapi\AppData\Local\Temp\ccIUJ9u0.s:413    .text.lwip_getaddrinfo:000000000000001a .L0 
C:\Users\stapi\AppData\Local\Temp\ccIUJ9u0.s:419    .text.lwip_getaddrinfo:0000000000000020 .L0 
C:\Users\stapi\AppData\Local\Temp\ccIUJ9u0.s:420    .text.lwip_getaddrinfo:0000000000000020 .L0 
C:\Users\stapi\AppData\Local\Temp\ccIUJ9u0.s:421    .text.lwip_getaddrinfo:0000000000000020 .L0 
C:\Users\stapi\AppData\Local\Temp\ccIUJ9u0.s:424    .text.lwip_getaddrinfo:0000000000000024 .L0 
C:\Users\stapi\AppData\Local\Temp\ccIUJ9u0.s:428    .text.lwip_getaddrinfo:0000000000000026 .L0 
C:\Users\stapi\AppData\Local\Temp\ccIUJ9u0.s:433    .text.lwip_getaddrinfo:000000000000002c .L0 
C:\Users\stapi\AppData\Local\Temp\ccIUJ9u0.s:434    .text.lwip_getaddrinfo:000000000000002c .L0 
C:\Users\stapi\AppData\Local\Temp\ccIUJ9u0.s:438    .text.lwip_getaddrinfo:000000000000002e .L0 
C:\Users\stapi\AppData\Local\Temp\ccIUJ9u0.s:439    .text.lwip_getaddrinfo:000000000000002e .L0 
C:\Users\stapi\AppData\Local\Temp\ccIUJ9u0.s:440    .text.lwip_getaddrinfo:000000000000002e .L0 
C:\Users\stapi\AppData\Local\Temp\ccIUJ9u0.s:442    .text.lwip_getaddrinfo:0000000000000032 .L0 
C:\Users\stapi\AppData\Local\Temp\ccIUJ9u0.s:444    .text.lwip_getaddrinfo:0000000000000036 .L0 
C:\Users\stapi\AppData\Local\Temp\ccIUJ9u0.s:448    .text.lwip_getaddrinfo:000000000000003e .L0 
C:\Users\stapi\AppData\Local\Temp\ccIUJ9u0.s:449    .text.lwip_getaddrinfo:000000000000003e .L0 
C:\Users\stapi\AppData\Local\Temp\ccIUJ9u0.s:452    .text.lwip_getaddrinfo:0000000000000040 .L0 
C:\Users\stapi\AppData\Local\Temp\ccIUJ9u0.s:453    .text.lwip_getaddrinfo:0000000000000040 .L0 
C:\Users\stapi\AppData\Local\Temp\ccIUJ9u0.s:456    .text.lwip_getaddrinfo:0000000000000048 .L0 
C:\Users\stapi\AppData\Local\Temp\ccIUJ9u0.s:458    .text.lwip_getaddrinfo:000000000000004a .L0 
C:\Users\stapi\AppData\Local\Temp\ccIUJ9u0.s:460    .text.lwip_getaddrinfo:000000000000004e .L0 
C:\Users\stapi\AppData\Local\Temp\ccIUJ9u0.s:462    .text.lwip_getaddrinfo:0000000000000050 .L0 
C:\Users\stapi\AppData\Local\Temp\ccIUJ9u0.s:465    .text.lwip_getaddrinfo:0000000000000052 .L0 
C:\Users\stapi\AppData\Local\Temp\ccIUJ9u0.s:466    .text.lwip_getaddrinfo:0000000000000052 .L0 
C:\Users\stapi\AppData\Local\Temp\ccIUJ9u0.s:468    .text.lwip_getaddrinfo:0000000000000056 .L0 
C:\Users\stapi\AppData\Local\Temp\ccIUJ9u0.s:470    .text.lwip_getaddrinfo:000000000000005a .L0 
C:\Users\stapi\AppData\Local\Temp\ccIUJ9u0.s:471    .text.lwip_getaddrinfo:000000000000005a .L0 
C:\Users\stapi\AppData\Local\Temp\ccIUJ9u0.s:473    .text.lwip_getaddrinfo:000000000000005e .L0 
C:\Users\stapi\AppData\Local\Temp\ccIUJ9u0.s:474    .text.lwip_getaddrinfo:000000000000005e .L0 
C:\Users\stapi\AppData\Local\Temp\ccIUJ9u0.s:478    .text.lwip_getaddrinfo:0000000000000060 .L0 
C:\Users\stapi\AppData\Local\Temp\ccIUJ9u0.s:481    .text.lwip_getaddrinfo:0000000000000064 .L0 
C:\Users\stapi\AppData\Local\Temp\ccIUJ9u0.s:483    .text.lwip_getaddrinfo:0000000000000066 .L0 
C:\Users\stapi\AppData\Local\Temp\ccIUJ9u0.s:484    .text.lwip_getaddrinfo:0000000000000066 .L0 
C:\Users\stapi\AppData\Local\Temp\ccIUJ9u0.s:489    .text.lwip_getaddrinfo:0000000000000072 .L0 
C:\Users\stapi\AppData\Local\Temp\ccIUJ9u0.s:493    .text.lwip_getaddrinfo:0000000000000074 .L0 
C:\Users\stapi\AppData\Local\Temp\ccIUJ9u0.s:494    .text.lwip_getaddrinfo:0000000000000074 .L0 
C:\Users\stapi\AppData\Local\Temp\ccIUJ9u0.s:495    .text.lwip_getaddrinfo:0000000000000074 .L0 
C:\Users\stapi\AppData\Local\Temp\ccIUJ9u0.s:496    .text.lwip_getaddrinfo:0000000000000074 .L0 
C:\Users\stapi\AppData\Local\Temp\ccIUJ9u0.s:500    .text.lwip_getaddrinfo:000000000000007e .L0 
C:\Users\stapi\AppData\Local\Temp\ccIUJ9u0.s:502    .text.lwip_getaddrinfo:0000000000000082 .L0 
C:\Users\stapi\AppData\Local\Temp\ccIUJ9u0.s:505    .text.lwip_getaddrinfo:0000000000000084 .L0 
C:\Users\stapi\AppData\Local\Temp\ccIUJ9u0.s:506    .text.lwip_getaddrinfo:0000000000000084 .L0 
C:\Users\stapi\AppData\Local\Temp\ccIUJ9u0.s:508    .text.lwip_getaddrinfo:0000000000000088 .L0 
C:\Users\stapi\AppData\Local\Temp\ccIUJ9u0.s:513    .text.lwip_getaddrinfo:000000000000008e .L0 
C:\Users\stapi\AppData\Local\Temp\ccIUJ9u0.s:519    .text.lwip_getaddrinfo:0000000000000098 .L0 
C:\Users\stapi\AppData\Local\Temp\ccIUJ9u0.s:520    .text.lwip_getaddrinfo:0000000000000098 .L0 
C:\Users\stapi\AppData\Local\Temp\ccIUJ9u0.s:524    .text.lwip_getaddrinfo:000000000000009c .L0 
C:\Users\stapi\AppData\Local\Temp\ccIUJ9u0.s:525    .text.lwip_getaddrinfo:000000000000009c .L0 
C:\Users\stapi\AppData\Local\Temp\ccIUJ9u0.s:527    .text.lwip_getaddrinfo:000000000000009e .L0 
C:\Users\stapi\AppData\Local\Temp\ccIUJ9u0.s:531    .text.lwip_getaddrinfo:00000000000000a0 .L0 
C:\Users\stapi\AppData\Local\Temp\ccIUJ9u0.s:532    .text.lwip_getaddrinfo:00000000000000a0 .L0 
C:\Users\stapi\AppData\Local\Temp\ccIUJ9u0.s:537    .text.lwip_getaddrinfo:00000000000000ac .L0 
C:\Users\stapi\AppData\Local\Temp\ccIUJ9u0.s:538    .text.lwip_getaddrinfo:00000000000000ac .L0 
C:\Users\stapi\AppData\Local\Temp\ccIUJ9u0.s:542    .text.lwip_getaddrinfo:00000000000000ae .L0 
C:\Users\stapi\AppData\Local\Temp\ccIUJ9u0.s:546    .text.lwip_getaddrinfo:00000000000000b2 .L0 
C:\Users\stapi\AppData\Local\Temp\ccIUJ9u0.s:548    .text.lwip_getaddrinfo:00000000000000b6 .L0 
C:\Users\stapi\AppData\Local\Temp\ccIUJ9u0.s:549    .text.lwip_getaddrinfo:00000000000000b6 .L0 
C:\Users\stapi\AppData\Local\Temp\ccIUJ9u0.s:551    .text.lwip_getaddrinfo:00000000000000be .L0 
C:\Users\stapi\AppData\Local\Temp\ccIUJ9u0.s:552    .text.lwip_getaddrinfo:00000000000000be .L0 
C:\Users\stapi\AppData\Local\Temp\ccIUJ9u0.s:553    .text.lwip_getaddrinfo:00000000000000be .L0 
C:\Users\stapi\AppData\Local\Temp\ccIUJ9u0.s:554    .text.lwip_getaddrinfo:00000000000000be .L0 
C:\Users\stapi\AppData\Local\Temp\ccIUJ9u0.s:555    .text.lwip_getaddrinfo:00000000000000be .L0 
C:\Users\stapi\AppData\Local\Temp\ccIUJ9u0.s:556    .text.lwip_getaddrinfo:00000000000000be .L0 
C:\Users\stapi\AppData\Local\Temp\ccIUJ9u0.s:557    .text.lwip_getaddrinfo:00000000000000be .L0 
C:\Users\stapi\AppData\Local\Temp\ccIUJ9u0.s:558    .text.lwip_getaddrinfo:00000000000000be .L0 
C:\Users\stapi\AppData\Local\Temp\ccIUJ9u0.s:559    .text.lwip_getaddrinfo:00000000000000be .L0 
C:\Users\stapi\AppData\Local\Temp\ccIUJ9u0.s:562    .text.lwip_getaddrinfo:00000000000000be .L0 
C:\Users\stapi\AppData\Local\Temp\ccIUJ9u0.s:564    .text.lwip_getaddrinfo:00000000000000be .L0 
C:\Users\stapi\AppData\Local\Temp\ccIUJ9u0.s:565    .text.lwip_getaddrinfo:00000000000000be .L0 
C:\Users\stapi\AppData\Local\Temp\ccIUJ9u0.s:569    .text.lwip_getaddrinfo:00000000000000c2 .L0 
C:\Users\stapi\AppData\Local\Temp\ccIUJ9u0.s:570    .text.lwip_getaddrinfo:00000000000000c2 .L0 
C:\Users\stapi\AppData\Local\Temp\ccIUJ9u0.s:572    .text.lwip_getaddrinfo:00000000000000c4 .L0 
C:\Users\stapi\AppData\Local\Temp\ccIUJ9u0.s:575    .text.lwip_getaddrinfo:00000000000000c8 .L0 
C:\Users\stapi\AppData\Local\Temp\ccIUJ9u0.s:577    .text.lwip_getaddrinfo:00000000000000ca .L0 
C:\Users\stapi\AppData\Local\Temp\ccIUJ9u0.s:582    .text.lwip_getaddrinfo:00000000000000ce .L0 
C:\Users\stapi\AppData\Local\Temp\ccIUJ9u0.s:583    .text.lwip_getaddrinfo:00000000000000ce .L0 
C:\Users\stapi\AppData\Local\Temp\ccIUJ9u0.s:584    .text.lwip_getaddrinfo:00000000000000ce .L0 
C:\Users\stapi\AppData\Local\Temp\ccIUJ9u0.s:586    .text.lwip_getaddrinfo:00000000000000d0 .L0 
C:\Users\stapi\AppData\Local\Temp\ccIUJ9u0.s:590    .text.lwip_getaddrinfo:00000000000000d4 .L0 
C:\Users\stapi\AppData\Local\Temp\ccIUJ9u0.s:594    .text.lwip_getaddrinfo:00000000000000d8 .L0 
C:\Users\stapi\AppData\Local\Temp\ccIUJ9u0.s:595    .text.lwip_getaddrinfo:00000000000000d8 .L0 
C:\Users\stapi\AppData\Local\Temp\ccIUJ9u0.s:596    .text.lwip_getaddrinfo:00000000000000d8 .L0 
C:\Users\stapi\AppData\Local\Temp\ccIUJ9u0.s:597    .text.lwip_getaddrinfo:00000000000000d8 .L0 
C:\Users\stapi\AppData\Local\Temp\ccIUJ9u0.s:602    .text.lwip_getaddrinfo:00000000000000e2 .L0 
C:\Users\stapi\AppData\Local\Temp\ccIUJ9u0.s:603    .text.lwip_getaddrinfo:00000000000000e2 .L0 
C:\Users\stapi\AppData\Local\Temp\ccIUJ9u0.s:605    .text.lwip_getaddrinfo:00000000000000e6 .L0 
C:\Users\stapi\AppData\Local\Temp\ccIUJ9u0.s:607    .text.lwip_getaddrinfo:00000000000000e8 .L0 
C:\Users\stapi\AppData\Local\Temp\ccIUJ9u0.s:610    .text.lwip_getaddrinfo:00000000000000ec .L0 
C:\Users\stapi\AppData\Local\Temp\ccIUJ9u0.s:612    .text.lwip_getaddrinfo:00000000000000f0 .L0 
C:\Users\stapi\AppData\Local\Temp\ccIUJ9u0.s:615    .text.lwip_getaddrinfo:00000000000000f8 .L0 
C:\Users\stapi\AppData\Local\Temp\ccIUJ9u0.s:617    .text.lwip_getaddrinfo:00000000000000f8 .L0 
C:\Users\stapi\AppData\Local\Temp\ccIUJ9u0.s:618    .text.lwip_getaddrinfo:00000000000000f8 .L0 
C:\Users\stapi\AppData\Local\Temp\ccIUJ9u0.s:619    .text.lwip_getaddrinfo:00000000000000f8 .L0 
C:\Users\stapi\AppData\Local\Temp\ccIUJ9u0.s:621    .text.lwip_getaddrinfo:00000000000000fa .L0 
C:\Users\stapi\AppData\Local\Temp\ccIUJ9u0.s:623    .text.lwip_getaddrinfo:00000000000000fe .L0 
C:\Users\stapi\AppData\Local\Temp\ccIUJ9u0.s:625    .text.lwip_getaddrinfo:0000000000000100 .L0 
C:\Users\stapi\AppData\Local\Temp\ccIUJ9u0.s:626    .text.lwip_getaddrinfo:0000000000000100 .L0 
C:\Users\stapi\AppData\Local\Temp\ccIUJ9u0.s:627    .text.lwip_getaddrinfo:0000000000000100 .L0 
C:\Users\stapi\AppData\Local\Temp\ccIUJ9u0.s:630    .text.lwip_getaddrinfo:0000000000000108 .L0 
C:\Users\stapi\AppData\Local\Temp\ccIUJ9u0.s:631    .text.lwip_getaddrinfo:0000000000000108 .L0 
C:\Users\stapi\AppData\Local\Temp\ccIUJ9u0.s:634    .text.lwip_getaddrinfo:0000000000000110 .L0 
C:\Users\stapi\AppData\Local\Temp\ccIUJ9u0.s:636    .text.lwip_getaddrinfo:0000000000000112 .L0 
C:\Users\stapi\AppData\Local\Temp\ccIUJ9u0.s:638    .text.lwip_getaddrinfo:0000000000000116 .L0 
C:\Users\stapi\AppData\Local\Temp\ccIUJ9u0.s:639    .text.lwip_getaddrinfo:0000000000000116 .L0 
C:\Users\stapi\AppData\Local\Temp\ccIUJ9u0.s:642    .text.lwip_getaddrinfo:0000000000000118 .L0 
C:\Users\stapi\AppData\Local\Temp\ccIUJ9u0.s:643    .text.lwip_getaddrinfo:0000000000000118 .L0 
C:\Users\stapi\AppData\Local\Temp\ccIUJ9u0.s:645    .text.lwip_getaddrinfo:000000000000011a .L0 
C:\Users\stapi\AppData\Local\Temp\ccIUJ9u0.s:646    .text.lwip_getaddrinfo:000000000000011a .L0 
C:\Users\stapi\AppData\Local\Temp\ccIUJ9u0.s:648    .text.lwip_getaddrinfo:000000000000011c .L0 
C:\Users\stapi\AppData\Local\Temp\ccIUJ9u0.s:650    .text.lwip_getaddrinfo:000000000000011e .L0 
C:\Users\stapi\AppData\Local\Temp\ccIUJ9u0.s:651    .text.lwip_getaddrinfo:000000000000011e .L0 
C:\Users\stapi\AppData\Local\Temp\ccIUJ9u0.s:653    .text.lwip_getaddrinfo:0000000000000120 .L0 
C:\Users\stapi\AppData\Local\Temp\ccIUJ9u0.s:656    .text.lwip_getaddrinfo:0000000000000122 .L0 
C:\Users\stapi\AppData\Local\Temp\ccIUJ9u0.s:657    .text.lwip_getaddrinfo:0000000000000122 .L0 
C:\Users\stapi\AppData\Local\Temp\ccIUJ9u0.s:659    .text.lwip_getaddrinfo:0000000000000126 .L0 
C:\Users\stapi\AppData\Local\Temp\ccIUJ9u0.s:660    .text.lwip_getaddrinfo:0000000000000126 .L0 
C:\Users\stapi\AppData\Local\Temp\ccIUJ9u0.s:662    .text.lwip_getaddrinfo:000000000000012a .L0 
C:\Users\stapi\AppData\Local\Temp\ccIUJ9u0.s:664    .text.lwip_getaddrinfo:000000000000012c .L0 
C:\Users\stapi\AppData\Local\Temp\ccIUJ9u0.s:670    .text.lwip_getaddrinfo:000000000000013a .L0 
C:\Users\stapi\AppData\Local\Temp\ccIUJ9u0.s:671    .text.lwip_getaddrinfo:000000000000013a .L0 
C:\Users\stapi\AppData\Local\Temp\ccIUJ9u0.s:675    .text.lwip_getaddrinfo:0000000000000142 .L0 
C:\Users\stapi\AppData\Local\Temp\ccIUJ9u0.s:676    .text.lwip_getaddrinfo:0000000000000142 .L0 
C:\Users\stapi\AppData\Local\Temp\ccIUJ9u0.s:679    .text.lwip_getaddrinfo:0000000000000146 .L0 
C:\Users\stapi\AppData\Local\Temp\ccIUJ9u0.s:680    .text.lwip_getaddrinfo:0000000000000146 .L0 
C:\Users\stapi\AppData\Local\Temp\ccIUJ9u0.s:682    .text.lwip_getaddrinfo:000000000000014a .L0 
C:\Users\stapi\AppData\Local\Temp\ccIUJ9u0.s:683    .text.lwip_getaddrinfo:000000000000014a .L0 
C:\Users\stapi\AppData\Local\Temp\ccIUJ9u0.s:685    .text.lwip_getaddrinfo:000000000000014e .L0 
C:\Users\stapi\AppData\Local\Temp\ccIUJ9u0.s:686    .text.lwip_getaddrinfo:000000000000014e .L0 
C:\Users\stapi\AppData\Local\Temp\ccIUJ9u0.s:688    .text.lwip_getaddrinfo:0000000000000152 .L0 
C:\Users\stapi\AppData\Local\Temp\ccIUJ9u0.s:711    .sbss.h_errno:0000000000000000 h_errno
C:\Users\stapi\AppData\Local\Temp\ccIUJ9u0.s:694    .bss.s_hostent.1:0000000000000000 .LANCHOR0
C:\Users\stapi\AppData\Local\Temp\ccIUJ9u0.s:697    .bss.s_hostent.1:0000000000000000 s_hostent.1
C:\Users\stapi\AppData\Local\Temp\ccIUJ9u0.s:701    .bss.s_hostname.2:0000000000000000 .LANCHOR4
C:\Users\stapi\AppData\Local\Temp\ccIUJ9u0.s:704    .bss.s_hostname.2:0000000000000000 s_hostname.2
C:\Users\stapi\AppData\Local\Temp\ccIUJ9u0.s:708    .sbss.h_errno:0000000000000000 .LANCHOR1
C:\Users\stapi\AppData\Local\Temp\ccIUJ9u0.s:715    .sbss.s_aliases.0:0000000000000000 .LANCHOR5
C:\Users\stapi\AppData\Local\Temp\ccIUJ9u0.s:718    .sbss.s_aliases.0:0000000000000000 s_aliases.0
C:\Users\stapi\AppData\Local\Temp\ccIUJ9u0.s:722    .sbss.s_hostent_addr.4:0000000000000000 .LANCHOR2
C:\Users\stapi\AppData\Local\Temp\ccIUJ9u0.s:725    .sbss.s_hostent_addr.4:0000000000000000 s_hostent_addr.4
C:\Users\stapi\AppData\Local\Temp\ccIUJ9u0.s:729    .sbss.s_phostent_addr.3:0000000000000000 .LANCHOR3
C:\Users\stapi\AppData\Local\Temp\ccIUJ9u0.s:732    .sbss.s_phostent_addr.3:0000000000000000 s_phostent_addr.3
C:\Users\stapi\AppData\Local\Temp\ccIUJ9u0.s:138    .text.lwip_gethostbyname:0000000000000092 .L0 
C:\Users\stapi\AppData\Local\Temp\ccIUJ9u0.s:323    .text.lwip_gethostbyname_r:00000000000000b4 .L0 
C:\Users\stapi\AppData\Local\Temp\ccIUJ9u0.s:369    .text.lwip_freeaddrinfo:0000000000000026 .L0 
C:\Users\stapi\AppData\Local\Temp\ccIUJ9u0.s:692    .text.lwip_getaddrinfo:0000000000000152 .L0 
                     .debug_frame:0000000000000000 .L0 
C:\Users\stapi\AppData\Local\Temp\ccIUJ9u0.s:68     .text.lwip_gethostbyname:0000000000000030 .L2
C:\Users\stapi\AppData\Local\Temp\ccIUJ9u0.s:56     .text.lwip_gethostbyname:0000000000000026 .L1
C:\Users\stapi\AppData\Local\Temp\ccIUJ9u0.s:178    .text.lwip_gethostbyname_r:000000000000001c .L6
C:\Users\stapi\AppData\Local\Temp\ccIUJ9u0.s:211    .text.lwip_gethostbyname_r:0000000000000032 .L7
C:\Users\stapi\AppData\Local\Temp\ccIUJ9u0.s:183    .text.lwip_gethostbyname_r:0000000000000020 .L9
C:\Users\stapi\AppData\Local\Temp\ccIUJ9u0.s:241    .text.lwip_gethostbyname_r:0000000000000058 .L11
C:\Users\stapi\AppData\Local\Temp\ccIUJ9u0.s:188    .text.lwip_gethostbyname_r:0000000000000022 .L21
C:\Users\stapi\AppData\Local\Temp\ccIUJ9u0.s:269    .text.lwip_gethostbyname_r:0000000000000078 .L12
C:\Users\stapi\AppData\Local\Temp\ccIUJ9u0.s:194    .text.lwip_gethostbyname_r:0000000000000028 .L5
C:\Users\stapi\AppData\Local\Temp\ccIUJ9u0.s:340    .text.lwip_freeaddrinfo:0000000000000006 .L27
C:\Users\stapi\AppData\Local\Temp\ccIUJ9u0.s:347    .text.lwip_freeaddrinfo:000000000000000e .L24
C:\Users\stapi\AppData\Local\Temp\ccIUJ9u0.s:396    .text.lwip_getaddrinfo:000000000000000a .L29
C:\Users\stapi\AppData\Local\Temp\ccIUJ9u0.s:431    .text.lwip_getaddrinfo:000000000000002c .L31
C:\Users\stapi\AppData\Local\Temp\ccIUJ9u0.s:517    .text.lwip_getaddrinfo:0000000000000098 .L32
C:\Users\stapi\AppData\Local\Temp\ccIUJ9u0.s:544    .text.lwip_getaddrinfo:00000000000000b2 .L28
C:\Users\stapi\AppData\Local\Temp\ccIUJ9u0.s:522    .text.lwip_getaddrinfo:000000000000009c .L33
C:\Users\stapi\AppData\Local\Temp\ccIUJ9u0.s:561    .text.lwip_getaddrinfo:00000000000000be .L34
C:\Users\stapi\AppData\Local\Temp\ccIUJ9u0.s:567    .text.lwip_getaddrinfo:00000000000000c2 .L35
C:\Users\stapi\AppData\Local\Temp\ccIUJ9u0.s:529    .text.lwip_getaddrinfo:00000000000000a0 .L36
C:\Users\stapi\AppData\Local\Temp\ccIUJ9u0.s:426    .text.lwip_getaddrinfo:0000000000000026 .L37
C:\Users\stapi\AppData\Local\Temp\ccIUJ9u0.s:588    .text.lwip_getaddrinfo:00000000000000d4 .L43
C:\Users\stapi\AppData\Local\Temp\ccIUJ9u0.s:540    .text.lwip_getaddrinfo:00000000000000ae .L39
C:\Users\stapi\AppData\Local\Temp\ccIUJ9u0.s:578    .text.lwip_getaddrinfo:00000000000000cc .L40
C:\Users\stapi\AppData\Local\Temp\ccIUJ9u0.s:435    .text.lwip_getaddrinfo:000000000000002e .L45
C:\Users\stapi\AppData\Local\Temp\ccIUJ9u0.s:450    .text.lwip_getaddrinfo:0000000000000040 .L46
C:\Users\stapi\AppData\Local\Temp\ccIUJ9u0.s:490    .text.lwip_getaddrinfo:0000000000000074 .L38
C:\Users\stapi\AppData\Local\Temp\ccIUJ9u0.s:476    .text.lwip_getaddrinfo:0000000000000060 .L47
C:\Users\stapi\AppData\Local\Temp\ccIUJ9u0.s:511    .text.lwip_getaddrinfo:000000000000008e .L51
C:\Users\stapi\AppData\Local\Temp\ccIUJ9u0.s:654    .text.lwip_getaddrinfo:0000000000000122 .L41
C:\Users\stapi\AppData\Local\Temp\ccIUJ9u0.s:673    .text.lwip_getaddrinfo:0000000000000142 .L42
C:\Users\stapi\AppData\Local\Temp\ccIUJ9u0.s:2043   .debug_abbrev:0000000000000000 .Ldebug_abbrev0
C:\Users\stapi\AppData\Local\Temp\ccIUJ9u0.s:3389   .debug_str:0000000000000752 .LASF141
C:\Users\stapi\AppData\Local\Temp\ccIUJ9u0.s:3143   .debug_str:00000000000000c0 .LASF142
C:\Users\stapi\AppData\Local\Temp\ccIUJ9u0.s:3205   .debug_str:00000000000002b0 .LASF143
C:\Users\stapi\AppData\Local\Temp\ccIUJ9u0.s:3093   .debug_ranges:0000000000000000 .Ldebug_ranges0
C:\Users\stapi\AppData\Local\Temp\ccIUJ9u0.s:3105   .debug_line:0000000000000000 .Ldebug_line0
C:\Users\stapi\AppData\Local\Temp\ccIUJ9u0.s:3273   .debug_str:0000000000000497 .LASF0
C:\Users\stapi\AppData\Local\Temp\ccIUJ9u0.s:3365   .debug_str:00000000000006d5 .LASF2
C:\Users\stapi\AppData\Local\Temp\ccIUJ9u0.s:3317   .debug_str:00000000000005a9 .LASF1
C:\Users\stapi\AppData\Local\Temp\ccIUJ9u0.s:3349   .debug_str:000000000000066f .LASF3
C:\Users\stapi\AppData\Local\Temp\ccIUJ9u0.s:3295   .debug_str:000000000000051a .LASF4
C:\Users\stapi\AppData\Local\Temp\ccIUJ9u0.s:3177   .debug_str:000000000000020b .LASF5
C:\Users\stapi\AppData\Local\Temp\ccIUJ9u0.s:3369   .debug_str:00000000000006eb .LASF6
C:\Users\stapi\AppData\Local\Temp\ccIUJ9u0.s:3299   .debug_str:000000000000052f .LASF7
C:\Users\stapi\AppData\Local\Temp\ccIUJ9u0.s:3351   .debug_str:000000000000067d .LASF8
C:\Users\stapi\AppData\Local\Temp\ccIUJ9u0.s:3335   .debug_str:0000000000000616 .LASF9
C:\Users\stapi\AppData\Local\Temp\ccIUJ9u0.s:3243   .debug_str:00000000000003f5 .LASF10
C:\Users\stapi\AppData\Local\Temp\ccIUJ9u0.s:3169   .debug_str:00000000000001d8 .LASF11
C:\Users\stapi\AppData\Local\Temp\ccIUJ9u0.s:3285   .debug_str:00000000000004e3 .LASF12
C:\Users\stapi\AppData\Local\Temp\ccIUJ9u0.s:3123   .debug_str:0000000000000067 .LASF13
C:\Users\stapi\AppData\Local\Temp\ccIUJ9u0.s:3155   .debug_str:000000000000017f .LASF14
C:\Users\stapi\AppData\Local\Temp\ccIUJ9u0.s:3235   .debug_str:00000000000003cc .LASF15
C:\Users\stapi\AppData\Local\Temp\ccIUJ9u0.s:3277   .debug_str:00000000000004c1 .LASF16
C:\Users\stapi\AppData\Local\Temp\ccIUJ9u0.s:3153   .debug_str:0000000000000176 .LASF17
C:\Users\stapi\AppData\Local\Temp\ccIUJ9u0.s:3331   .debug_str:00000000000005ff .LASF18
C:\Users\stapi\AppData\Local\Temp\ccIUJ9u0.s:3195   .debug_str:0000000000000285 .LASF19
C:\Users\stapi\AppData\Local\Temp\ccIUJ9u0.s:3225   .debug_str:000000000000039e .LASF20
C:\Users\stapi\AppData\Local\Temp\ccIUJ9u0.s:3255   .debug_str:0000000000000436 .LASF21
C:\Users\stapi\AppData\Local\Temp\ccIUJ9u0.s:3209   .debug_str:0000000000000342 .LASF22
C:\Users\stapi\AppData\Local\Temp\ccIUJ9u0.s:3131   .debug_str:0000000000000086 .LASF23
C:\Users\stapi\AppData\Local\Temp\ccIUJ9u0.s:3291   .debug_str:00000000000004ff .LASF24
C:\Users\stapi\AppData\Local\Temp\ccIUJ9u0.s:3315   .debug_str:000000000000059f .LASF25
C:\Users\stapi\AppData\Local\Temp\ccIUJ9u0.s:3313   .debug_str:0000000000000596 .LASF29
C:\Users\stapi\AppData\Local\Temp\ccIUJ9u0.s:3355   .debug_str:0000000000000695 .LASF31
C:\Users\stapi\AppData\Local\Temp\ccIUJ9u0.s:3297   .debug_str:0000000000000524 .LASF26
C:\Users\stapi\AppData\Local\Temp\ccIUJ9u0.s:3387   .debug_str:0000000000000748 .LASF27
C:\Users\stapi\AppData\Local\Temp\ccIUJ9u0.s:3157   .debug_str:0000000000000186 .LASF28
C:\Users\stapi\AppData\Local\Temp\ccIUJ9u0.s:3343   .debug_str:000000000000064f .LASF30
C:\Users\stapi\AppData\Local\Temp\ccIUJ9u0.s:3193   .debug_str:000000000000027e .LASF32
C:\Users\stapi\AppData\Local\Temp\ccIUJ9u0.s:3361   .debug_str:00000000000006ac .LASF33
C:\Users\stapi\AppData\Local\Temp\ccIUJ9u0.s:3399   .debug_str:0000000000000874 .LASF34
C:\Users\stapi\AppData\Local\Temp\ccIUJ9u0.s:3287   .debug_str:00000000000004ef .LASF35
C:\Users\stapi\AppData\Local\Temp\ccIUJ9u0.s:3219   .debug_str:0000000000000377 .LASF36
C:\Users\stapi\AppData\Local\Temp\ccIUJ9u0.s:3385   .debug_str:0000000000000740 .LASF37
C:\Users\stapi\AppData\Local\Temp\ccIUJ9u0.s:3311   .debug_str:0000000000000587 .LASF38
C:\Users\stapi\AppData\Local\Temp\ccIUJ9u0.s:3181   .debug_str:0000000000000220 .LASF39
C:\Users\stapi\AppData\Local\Temp\ccIUJ9u0.s:3217   .debug_str:0000000000000368 .LASF40
C:\Users\stapi\AppData\Local\Temp\ccIUJ9u0.s:3117   .debug_str:000000000000004e .LASF41
C:\Users\stapi\AppData\Local\Temp\ccIUJ9u0.s:3151   .debug_str:000000000000016a .LASF42
C:\Users\stapi\AppData\Local\Temp\ccIUJ9u0.s:3319   .debug_str:00000000000005b3 .LASF43
C:\Users\stapi\AppData\Local\Temp\ccIUJ9u0.s:3379   .debug_str:0000000000000725 .LASF44
C:\Users\stapi\AppData\Local\Temp\ccIUJ9u0.s:3247   .debug_str:000000000000040f .LASF45
C:\Users\stapi\AppData\Local\Temp\ccIUJ9u0.s:3357   .debug_str:000000000000069a .LASF46
C:\Users\stapi\AppData\Local\Temp\ccIUJ9u0.s:3145   .debug_str:000000000000014a .LASF47
C:\Users\stapi\AppData\Local\Temp\ccIUJ9u0.s:3115   .debug_str:0000000000000045 .LASF48
C:\Users\stapi\AppData\Local\Temp\ccIUJ9u0.s:3121   .debug_str:000000000000005f .LASF49
C:\Users\stapi\AppData\Local\Temp\ccIUJ9u0.s:3127   .debug_str:0000000000000079 .LASF50
C:\Users\stapi\AppData\Local\Temp\ccIUJ9u0.s:3333   .debug_str:0000000000000609 .LASF51
C:\Users\stapi\AppData\Local\Temp\ccIUJ9u0.s:3309   .debug_str:000000000000057a .LASF52
C:\Users\stapi\AppData\Local\Temp\ccIUJ9u0.s:3253   .debug_str:0000000000000429 .LASF53
C:\Users\stapi\AppData\Local\Temp\ccIUJ9u0.s:3107   .debug_str:0000000000000000 .LASF54
C:\Users\stapi\AppData\Local\Temp\ccIUJ9u0.s:3353   .debug_str:0000000000000688 .LASF55
C:\Users\stapi\AppData\Local\Temp\ccIUJ9u0.s:3271   .debug_str:0000000000000488 .LASF56
C:\Users\stapi\AppData\Local\Temp\ccIUJ9u0.s:3267   .debug_str:000000000000046c .LASF57
C:\Users\stapi\AppData\Local\Temp\ccIUJ9u0.s:3323   .debug_str:00000000000005c3 .LASF58
C:\Users\stapi\AppData\Local\Temp\ccIUJ9u0.s:3241   .debug_str:00000000000003e9 .LASF59
C:\Users\stapi\AppData\Local\Temp\ccIUJ9u0.s:3215   .debug_str:000000000000035b .LASF60
C:\Users\stapi\AppData\Local\Temp\ccIUJ9u0.s:3161   .debug_str:00000000000001a0 .LASF61
C:\Users\stapi\AppData\Local\Temp\ccIUJ9u0.s:3183   .debug_str:0000000000000228 .LASF62
C:\Users\stapi\AppData\Local\Temp\ccIUJ9u0.s:3159   .debug_str:0000000000000190 .LASF63
C:\Users\stapi\AppData\Local\Temp\ccIUJ9u0.s:3303   .debug_str:000000000000054f .LASF64
C:\Users\stapi\AppData\Local\Temp\ccIUJ9u0.s:3391   .debug_str:000000000000084b .LASF65
C:\Users\stapi\AppData\Local\Temp\ccIUJ9u0.s:3221   .debug_str:0000000000000383 .LASF66
C:\Users\stapi\AppData\Local\Temp\ccIUJ9u0.s:3137   .debug_str:000000000000009f .LASF67
C:\Users\stapi\AppData\Local\Temp\ccIUJ9u0.s:3207   .debug_str:0000000000000339 .LASF68
C:\Users\stapi\AppData\Local\Temp\ccIUJ9u0.s:3191   .debug_str:0000000000000258 .LASF144
C:\Users\stapi\AppData\Local\Temp\ccIUJ9u0.s:3363   .debug_str:00000000000006b3 .LASF69
C:\Users\stapi\AppData\Local\Temp\ccIUJ9u0.s:3111   .debug_str:000000000000001b .LASF70
C:\Users\stapi\AppData\Local\Temp\ccIUJ9u0.s:3275   .debug_str:00000000000004a0 .LASF71
C:\Users\stapi\AppData\Local\Temp\ccIUJ9u0.s:3197   .debug_str:000000000000028c .LASF72
C:\Users\stapi\AppData\Local\Temp\ccIUJ9u0.s:3179   .debug_str:0000000000000216 .LASF73
C:\Users\stapi\AppData\Local\Temp\ccIUJ9u0.s:3245   .debug_str:0000000000000403 .LASF74
C:\Users\stapi\AppData\Local\Temp\ccIUJ9u0.s:3163   .debug_str:00000000000001b3 .LASF75
C:\Users\stapi\AppData\Local\Temp\ccIUJ9u0.s:3175   .debug_str:0000000000000200 .LASF76
C:\Users\stapi\AppData\Local\Temp\ccIUJ9u0.s:3251   .debug_str:0000000000000420 .LASF77
C:\Users\stapi\AppData\Local\Temp\ccIUJ9u0.s:3265   .debug_str:0000000000000463 .LASF78
C:\Users\stapi\AppData\Local\Temp\ccIUJ9u0.s:3187   .debug_str:0000000000000247 .LASF79
C:\Users\stapi\AppData\Local\Temp\ccIUJ9u0.s:3119   .debug_str:0000000000000056 .LASF80
C:\Users\stapi\AppData\Local\Temp\ccIUJ9u0.s:3305   .debug_str:0000000000000560 .LASF81
C:\Users\stapi\AppData\Local\Temp\ccIUJ9u0.s:3367   .debug_str:00000000000006e1 .LASF82
C:\Users\stapi\AppData\Local\Temp\ccIUJ9u0.s:3113   .debug_str:000000000000003d .LASF83
C:\Users\stapi\AppData\Local\Temp\ccIUJ9u0.s:3223   .debug_str:000000000000038d .LASF84
C:\Users\stapi\AppData\Local\Temp\ccIUJ9u0.s:3129   .debug_str:000000000000007f .LASF85
C:\Users\stapi\AppData\Local\Temp\ccIUJ9u0.s:3233   .debug_str:00000000000003c2 .LASF86
C:\Users\stapi\AppData\Local\Temp\ccIUJ9u0.s:3139   .debug_str:00000000000000ae .LASF87
C:\Users\stapi\AppData\Local\Temp\ccIUJ9u0.s:3141   .debug_str:00000000000000b7 .LASF88
C:\Users\stapi\AppData\Local\Temp\ccIUJ9u0.s:3397   .debug_str:000000000000086a .LASF89
C:\Users\stapi\AppData\Local\Temp\ccIUJ9u0.s:3383   .debug_str:0000000000000738 .LASF90
C:\Users\stapi\AppData\Local\Temp\ccIUJ9u0.s:3201   .debug_str:00000000000002a0 .LASF91
C:\Users\stapi\AppData\Local\Temp\ccIUJ9u0.s:3261   .debug_str:0000000000000452 .LASF92
C:\Users\stapi\AppData\Local\Temp\ccIUJ9u0.s:3211   .debug_str:0000000000000347 .LASF93
C:\Users\stapi\AppData\Local\Temp\ccIUJ9u0.s:3213   .debug_str:0000000000000352 .LASF94
C:\Users\stapi\AppData\Local\Temp\ccIUJ9u0.s:3337   .debug_str:0000000000000628 .LASF95
C:\Users\stapi\AppData\Local\Temp\ccIUJ9u0.s:3395   .debug_str:0000000000000861 .LASF96
C:\Users\stapi\AppData\Local\Temp\ccIUJ9u0.s:3359   .debug_str:00000000000006a3 .LASF97
C:\Users\stapi\AppData\Local\Temp\ccIUJ9u0.s:3283   .debug_str:00000000000004d9 .LASF98
C:\Users\stapi\AppData\Local\Temp\ccIUJ9u0.s:3347   .debug_str:0000000000000663 .LASF99
C:\Users\stapi\AppData\Local\Temp\ccIUJ9u0.s:3345   .debug_str:0000000000000657 .LASF100
C:\Users\stapi\AppData\Local\Temp\ccIUJ9u0.s:3393   .debug_str:0000000000000856 .LASF101
C:\Users\stapi\AppData\Local\Temp\ccIUJ9u0.s:3199   .debug_str:0000000000000298 .LASF102
C:\Users\stapi\AppData\Local\Temp\ccIUJ9u0.s:3269   .debug_str:000000000000047b .LASF103
C:\Users\stapi\AppData\Local\Temp\ccIUJ9u0.s:3259   .debug_str:000000000000044a .LASF104
C:\Users\stapi\AppData\Local\Temp\ccIUJ9u0.s:3133   .debug_str:000000000000008c .LASF145
C:\Users\stapi\AppData\Local\Temp\ccIUJ9u0.s:3301   .debug_str:0000000000000538 .LASF105
C:\Users\stapi\AppData\Local\Temp\ccIUJ9u0.s:3249   .debug_str:0000000000000416 .LASF106
C:\Users\stapi\AppData\Local\Temp\ccIUJ9u0.s:3289   .debug_str:00000000000004f7 .LASF107
C:\Users\stapi\AppData\Local\Temp\ccIUJ9u0.s:3325   .debug_str:00000000000005d2 .LASF115
C:\Users\stapi\AppData\Local\Temp\ccIUJ9u0.s:374    .text.lwip_getaddrinfo:0000000000000000 .LFB7
C:\Users\stapi\AppData\Local\Temp\ccIUJ9u0.s:689    .text.lwip_getaddrinfo:0000000000000152 .LFE7
C:\Users\stapi\AppData\Local\Temp\ccIUJ9u0.s:3341   .debug_str:0000000000000646 .LASF108
C:\Users\stapi\AppData\Local\Temp\ccIUJ9u0.s:2680   .debug_loc:0000000000000000 .LLST11
C:\Users\stapi\AppData\Local\Temp\ccIUJ9u0.s:3279   .debug_str:00000000000004ca .LASF109
C:\Users\stapi\AppData\Local\Temp\ccIUJ9u0.s:2702   .debug_loc:0000000000000037 .LLST12
C:\Users\stapi\AppData\Local\Temp\ccIUJ9u0.s:3281   .debug_str:00000000000004d3 .LASF110
C:\Users\stapi\AppData\Local\Temp\ccIUJ9u0.s:2753   .debug_loc:00000000000000ae .LLST13
C:\Users\stapi\AppData\Local\Temp\ccIUJ9u0.s:2764   .debug_loc:00000000000000cc .LLST14
C:\Users\stapi\AppData\Local\Temp\ccIUJ9u0.s:2799   .debug_loc:000000000000012c .LLST15
C:\Users\stapi\AppData\Local\Temp\ccIUJ9u0.s:2806   .debug_loc:000000000000013f .LLST16
C:\Users\stapi\AppData\Local\Temp\ccIUJ9u0.s:3189   .debug_str:0000000000000250 .LASF111
C:\Users\stapi\AppData\Local\Temp\ccIUJ9u0.s:2823   .debug_loc:000000000000016a .LLST17
C:\Users\stapi\AppData\Local\Temp\ccIUJ9u0.s:3149   .debug_str:000000000000015f .LASF112
C:\Users\stapi\AppData\Local\Temp\ccIUJ9u0.s:2850   .debug_loc:00000000000001ad .LLST18
C:\Users\stapi\AppData\Local\Temp\ccIUJ9u0.s:3227   .debug_str:00000000000003a3 .LASF113
C:\Users\stapi\AppData\Local\Temp\ccIUJ9u0.s:2865   .debug_loc:00000000000001cf .LLST19
C:\Users\stapi\AppData\Local\Temp\ccIUJ9u0.s:2887   .debug_loc:0000000000000206 .LLST20
C:\Users\stapi\AppData\Local\Temp\ccIUJ9u0.s:616    .text.lwip_getaddrinfo:00000000000000f8 .LBB2
C:\Users\stapi\AppData\Local\Temp\ccIUJ9u0.s:640    .text.lwip_getaddrinfo:0000000000000118 .LBE2
C:\Users\stapi\AppData\Local\Temp\ccIUJ9u0.s:632    .text.lwip_getaddrinfo:0000000000000110 .LVL55
C:\Users\stapi\AppData\Local\Temp\ccIUJ9u0.s:454    .text.lwip_getaddrinfo:0000000000000048 .LVL34
C:\Users\stapi\AppData\Local\Temp\ccIUJ9u0.s:487    .text.lwip_getaddrinfo:0000000000000072 .LVL37
C:\Users\stapi\AppData\Local\Temp\ccIUJ9u0.s:498    .text.lwip_getaddrinfo:000000000000007e .LVL39
C:\Users\stapi\AppData\Local\Temp\ccIUJ9u0.s:535    .text.lwip_getaddrinfo:00000000000000ac .LVL44
C:\Users\stapi\AppData\Local\Temp\ccIUJ9u0.s:598    .text.lwip_getaddrinfo:00000000000000e0 .LVL52
C:\Users\stapi\AppData\Local\Temp\ccIUJ9u0.s:613    .text.lwip_getaddrinfo:00000000000000f8 .LVL54
C:\Users\stapi\AppData\Local\Temp\ccIUJ9u0.s:668    .text.lwip_getaddrinfo:000000000000013a .LVL56
C:\Users\stapi\AppData\Local\Temp\ccIUJ9u0.s:3339   .debug_str:0000000000000634 .LASF146
C:\Users\stapi\AppData\Local\Temp\ccIUJ9u0.s:328    .text.lwip_freeaddrinfo:0000000000000000 .LFB6
C:\Users\stapi\AppData\Local\Temp\ccIUJ9u0.s:367    .text.lwip_freeaddrinfo:0000000000000026 .LFE6
C:\Users\stapi\AppData\Local\Temp\ccIUJ9u0.s:2895   .debug_loc:000000000000021a .LLST10
C:\Users\stapi\AppData\Local\Temp\ccIUJ9u0.s:3125   .debug_str:0000000000000074 .LASF114
C:\Users\stapi\AppData\Local\Temp\ccIUJ9u0.s:355    .text.lwip_freeaddrinfo:000000000000001a .LVL24
C:\Users\stapi\AppData\Local\Temp\ccIUJ9u0.s:3293   .debug_str:0000000000000505 .LASF116
C:\Users\stapi\AppData\Local\Temp\ccIUJ9u0.s:143    .text.lwip_gethostbyname_r:0000000000000000 .LFB5
C:\Users\stapi\AppData\Local\Temp\ccIUJ9u0.s:321    .text.lwip_gethostbyname_r:00000000000000b4 .LFE5
C:\Users\stapi\AppData\Local\Temp\ccIUJ9u0.s:3321   .debug_str:00000000000005be .LASF117
C:\Users\stapi\AppData\Local\Temp\ccIUJ9u0.s:2910   .debug_loc:0000000000000243 .LLST2
C:\Users\stapi\AppData\Local\Temp\ccIUJ9u0.s:2929   .debug_loc:0000000000000277 .LLST3
C:\Users\stapi\AppData\Local\Temp\ccIUJ9u0.s:2940   .debug_loc:0000000000000295 .LLST4
C:\Users\stapi\AppData\Local\Temp\ccIUJ9u0.s:3231   .debug_str:00000000000003bb .LASF118
C:\Users\stapi\AppData\Local\Temp\ccIUJ9u0.s:2971   .debug_loc:00000000000002dc .LLST5
C:\Users\stapi\AppData\Local\Temp\ccIUJ9u0.s:3167   .debug_str:00000000000001d1 .LASF119
C:\Users\stapi\AppData\Local\Temp\ccIUJ9u0.s:3000   .debug_loc:0000000000000321 .LLST6
C:\Users\stapi\AppData\Local\Temp\ccIUJ9u0.s:3203   .debug_str:00000000000002a7 .LASF120
C:\Users\stapi\AppData\Local\Temp\ccIUJ9u0.s:3019   .debug_loc:0000000000000355 .LLST7
C:\Users\stapi\AppData\Local\Temp\ccIUJ9u0.s:3030   .debug_loc:0000000000000373 .LLST8
C:\Users\stapi\AppData\Local\Temp\ccIUJ9u0.s:3237   .debug_str:00000000000003d4 .LASF121
C:\Users\stapi\AppData\Local\Temp\ccIUJ9u0.s:3037   .debug_loc:0000000000000386 .LLST9
C:\Users\stapi\AppData\Local\Temp\ccIUJ9u0.s:3173   .debug_str:00000000000001f7 .LASF122
C:\Users\stapi\AppData\Local\Temp\ccIUJ9u0.s:228    .text.lwip_gethostbyname_r:0000000000000048 .LVL11
C:\Users\stapi\AppData\Local\Temp\ccIUJ9u0.s:260    .text.lwip_gethostbyname_r:0000000000000070 .LVL17
C:\Users\stapi\AppData\Local\Temp\ccIUJ9u0.s:280    .text.lwip_gethostbyname_r:0000000000000088 .LVL20
C:\Users\stapi\AppData\Local\Temp\ccIUJ9u0.s:3307   .debug_str:0000000000000567 .LASF123
C:\Users\stapi\AppData\Local\Temp\ccIUJ9u0.s:14     .text.lwip_gethostbyname:0000000000000000 .LFB4
C:\Users\stapi\AppData\Local\Temp\ccIUJ9u0.s:136    .text.lwip_gethostbyname:0000000000000092 .LFE4
C:\Users\stapi\AppData\Local\Temp\ccIUJ9u0.s:3052   .debug_loc:00000000000003af .LLST0
C:\Users\stapi\AppData\Local\Temp\ccIUJ9u0.s:3063   .debug_loc:00000000000003cd .LLST1
C:\Users\stapi\AppData\Local\Temp\ccIUJ9u0.s:3381   .debug_str:000000000000072e .LASF124
C:\Users\stapi\AppData\Local\Temp\ccIUJ9u0.s:3377   .debug_str:000000000000071b .LASF125
C:\Users\stapi\AppData\Local\Temp\ccIUJ9u0.s:3257   .debug_str:000000000000043b .LASF126
C:\Users\stapi\AppData\Local\Temp\ccIUJ9u0.s:3229   .debug_str:00000000000003ab .LASF127
C:\Users\stapi\AppData\Local\Temp\ccIUJ9u0.s:3329   .debug_str:00000000000005f4 .LASF128
C:\Users\stapi\AppData\Local\Temp\ccIUJ9u0.s:42     .text.lwip_gethostbyname:0000000000000016 .LVL1
C:\Users\stapi\AppData\Local\Temp\ccIUJ9u0.s:99     .text.lwip_gethostbyname:0000000000000064 .LVL5
C:\Users\stapi\AppData\Local\Temp\ccIUJ9u0.s:3135   .debug_str:0000000000000094 .LASF129
C:\Users\stapi\AppData\Local\Temp\ccIUJ9u0.s:3375   .debug_str:0000000000000716 .LASF130
C:\Users\stapi\AppData\Local\Temp\ccIUJ9u0.s:3147   .debug_str:0000000000000152 .LASF131
C:\Users\stapi\AppData\Local\Temp\ccIUJ9u0.s:3109   .debug_str:0000000000000014 .LASF132
C:\Users\stapi\AppData\Local\Temp\ccIUJ9u0.s:3165   .debug_str:00000000000001bb .LASF133
C:\Users\stapi\AppData\Local\Temp\ccIUJ9u0.s:3239   .debug_str:00000000000003dd .LASF134
C:\Users\stapi\AppData\Local\Temp\ccIUJ9u0.s:3263   .debug_str:000000000000045c .LASF135
C:\Users\stapi\AppData\Local\Temp\ccIUJ9u0.s:3327   .debug_str:00000000000005e3 .LASF137
C:\Users\stapi\AppData\Local\Temp\ccIUJ9u0.s:3371   .debug_str:00000000000006fe .LASF136
C:\Users\stapi\AppData\Local\Temp\ccIUJ9u0.s:3373   .debug_str:0000000000000705 .LASF138
C:\Users\stapi\AppData\Local\Temp\ccIUJ9u0.s:3185   .debug_str:000000000000023d .LASF139
C:\Users\stapi\AppData\Local\Temp\ccIUJ9u0.s:3171   .debug_str:00000000000001ef .LASF140
C:\Users\stapi\AppData\Local\Temp\ccIUJ9u0.s:377    .text.lwip_getaddrinfo:0000000000000000 .LVL25
C:\Users\stapi\AppData\Local\Temp\ccIUJ9u0.s:393    .text.lwip_getaddrinfo:0000000000000008 .LVL26
C:\Users\stapi\AppData\Local\Temp\ccIUJ9u0.s:395    .text.lwip_getaddrinfo:000000000000000a .LVL27
C:\Users\stapi\AppData\Local\Temp\ccIUJ9u0.s:415    .text.lwip_getaddrinfo:000000000000001c .LVL28
C:\Users\stapi\AppData\Local\Temp\ccIUJ9u0.s:422    .text.lwip_getaddrinfo:0000000000000024 .LVL29
C:\Users\stapi\AppData\Local\Temp\ccIUJ9u0.s:425    .text.lwip_getaddrinfo:0000000000000026 .LVL30
C:\Users\stapi\AppData\Local\Temp\ccIUJ9u0.s:430    .text.lwip_getaddrinfo:000000000000002c .LVL31
C:\Users\stapi\AppData\Local\Temp\ccIUJ9u0.s:516    .text.lwip_getaddrinfo:0000000000000098 .LVL42
C:\Users\stapi\AppData\Local\Temp\ccIUJ9u0.s:528    .text.lwip_getaddrinfo:00000000000000a0 .LVL43
C:\Users\stapi\AppData\Local\Temp\ccIUJ9u0.s:560    .text.lwip_getaddrinfo:00000000000000be .LVL47
C:\Users\stapi\AppData\Local\Temp\ccIUJ9u0.s:566    .text.lwip_getaddrinfo:00000000000000c2 .LVL48
C:\Users\stapi\AppData\Local\Temp\ccIUJ9u0.s:539    .text.lwip_getaddrinfo:00000000000000ae .LVL45
C:\Users\stapi\AppData\Local\Temp\ccIUJ9u0.s:543    .text.lwip_getaddrinfo:00000000000000b2 .LVL46
C:\Users\stapi\AppData\Local\Temp\ccIUJ9u0.s:463    .text.lwip_getaddrinfo:0000000000000052 .LVL35
C:\Users\stapi\AppData\Local\Temp\ccIUJ9u0.s:475    .text.lwip_getaddrinfo:0000000000000060 .LVL36
C:\Users\stapi\AppData\Local\Temp\ccIUJ9u0.s:492    .text.lwip_getaddrinfo:0000000000000074 .LVL38
C:\Users\stapi\AppData\Local\Temp\ccIUJ9u0.s:510    .text.lwip_getaddrinfo:000000000000008e .LVL41
C:\Users\stapi\AppData\Local\Temp\ccIUJ9u0.s:581    .text.lwip_getaddrinfo:00000000000000ce .LVL49
C:\Users\stapi\AppData\Local\Temp\ccIUJ9u0.s:592    .text.lwip_getaddrinfo:00000000000000d8 .LVL51
C:\Users\stapi\AppData\Local\Temp\ccIUJ9u0.s:503    .text.lwip_getaddrinfo:0000000000000084 .LVL40
C:\Users\stapi\AppData\Local\Temp\ccIUJ9u0.s:587    .text.lwip_getaddrinfo:00000000000000d4 .LVL50
C:\Users\stapi\AppData\Local\Temp\ccIUJ9u0.s:437    .text.lwip_getaddrinfo:000000000000002e .LVL32
C:\Users\stapi\AppData\Local\Temp\ccIUJ9u0.s:446    .text.lwip_getaddrinfo:000000000000003e .LVL33
C:\Users\stapi\AppData\Local\Temp\ccIUJ9u0.s:331    .text.lwip_freeaddrinfo:0000000000000000 .LVL21
C:\Users\stapi\AppData\Local\Temp\ccIUJ9u0.s:346    .text.lwip_freeaddrinfo:000000000000000e .LVL22
C:\Users\stapi\AppData\Local\Temp\ccIUJ9u0.s:146    .text.lwip_gethostbyname_r:0000000000000000 .LVL6
C:\Users\stapi\AppData\Local\Temp\ccIUJ9u0.s:187    .text.lwip_gethostbyname_r:0000000000000022 .LVL8
C:\Users\stapi\AppData\Local\Temp\ccIUJ9u0.s:210    .text.lwip_gethostbyname_r:0000000000000032 .LVL9
C:\Users\stapi\AppData\Local\Temp\ccIUJ9u0.s:226    .text.lwip_gethostbyname_r:0000000000000040 .LVL10
C:\Users\stapi\AppData\Local\Temp\ccIUJ9u0.s:245    .text.lwip_gethostbyname_r:000000000000005a .LVL13
C:\Users\stapi\AppData\Local\Temp\ccIUJ9u0.s:247    .text.lwip_gethostbyname_r:000000000000005c .LVL14
C:\Users\stapi\AppData\Local\Temp\ccIUJ9u0.s:256    .text.lwip_gethostbyname_r:0000000000000068 .LVL16
C:\Users\stapi\AppData\Local\Temp\ccIUJ9u0.s:179    .text.lwip_gethostbyname_r:000000000000001c .LVL7
C:\Users\stapi\AppData\Local\Temp\ccIUJ9u0.s:274    .text.lwip_gethostbyname_r:000000000000007e .LVL18
C:\Users\stapi\AppData\Local\Temp\ccIUJ9u0.s:233    .text.lwip_gethostbyname_r:000000000000004e .LVL12
C:\Users\stapi\AppData\Local\Temp\ccIUJ9u0.s:253    .text.lwip_gethostbyname_r:0000000000000064 .LVL15
C:\Users\stapi\AppData\Local\Temp\ccIUJ9u0.s:277    .text.lwip_gethostbyname_r:0000000000000080 .LVL19
C:\Users\stapi\AppData\Local\Temp\ccIUJ9u0.s:18     .text.lwip_gethostbyname:0000000000000000 .LVL0
C:\Users\stapi\AppData\Local\Temp\ccIUJ9u0.s:55     .text.lwip_gethostbyname:0000000000000026 .LVL2
C:\Users\stapi\AppData\Local\Temp\ccIUJ9u0.s:67     .text.lwip_gethostbyname:0000000000000030 .LVL3
C:\Users\stapi\AppData\Local\Temp\ccIUJ9u0.s:75     .text.lwip_gethostbyname:0000000000000036 .LVL4
C:\Users\stapi\AppData\Local\Temp\ccIUJ9u0.s:754    .debug_info:0000000000000000 .Ldebug_info0

UNDEFINED SYMBOLS
__riscv_save_3
netconn_gethostbyname
__riscv_restore_3
strncpy
__riscv_save_8
__riscv_restore_8
strlen
memcpy
__riscv_save_1
memp_free
__riscv_restore_1
__riscv_save_7
atoi
ip4addr_aton
__riscv_restore_7
memp_malloc
memset
lwip_htons
