   1              		.file	"netifapi.c"
   2              		.option nopic
   3              		.attribute arch, "rv32i2p0_m2p0_a2p0_f2p0_c2p0_b_p0p94"
   4              		.attribute unaligned_access, 0
   5              		.attribute stack_align, 16
   6              		.text
   7              	.Ltext0:
   8              		.cfi_sections	.debug_frame
   9              		.section	.text.netifapi_do_netif_add,"ax",@progbits
  10              		.align	1
  12              	netifapi_do_netif_add:
  13              	.LFB4:
  14              		.file 1 "C:/Users/stapi/OneDrive/Desktop/GD32VW553/GD32VW55X_Wifi_BLE_SDK/GD32VW55x_RELEASE_V1.0.2
   1:C:/Users/stapi/OneDrive/Desktop/GD32VW553/GD32VW55X_Wifi_BLE_SDK/GD32VW55x_RELEASE_V1.0.2/MSDK/lwip/lwip-2.1.2/src/api\netifapi.c **** /**
   2:C:/Users/stapi/OneDrive/Desktop/GD32VW553/GD32VW55X_Wifi_BLE_SDK/GD32VW55x_RELEASE_V1.0.2/MSDK/lwip/lwip-2.1.2/src/api\netifapi.c ****  * @file
   3:C:/Users/stapi/OneDrive/Desktop/GD32VW553/GD32VW55X_Wifi_BLE_SDK/GD32VW55x_RELEASE_V1.0.2/MSDK/lwip/lwip-2.1.2/src/api\netifapi.c ****  * Network Interface Sequential API module
   4:C:/Users/stapi/OneDrive/Desktop/GD32VW553/GD32VW55X_Wifi_BLE_SDK/GD32VW55x_RELEASE_V1.0.2/MSDK/lwip/lwip-2.1.2/src/api\netifapi.c ****  *
   5:C:/Users/stapi/OneDrive/Desktop/GD32VW553/GD32VW55X_Wifi_BLE_SDK/GD32VW55x_RELEASE_V1.0.2/MSDK/lwip/lwip-2.1.2/src/api\netifapi.c ****  * @defgroup netifapi NETIF API
   6:C:/Users/stapi/OneDrive/Desktop/GD32VW553/GD32VW55X_Wifi_BLE_SDK/GD32VW55x_RELEASE_V1.0.2/MSDK/lwip/lwip-2.1.2/src/api\netifapi.c ****  * @ingroup sequential_api
   7:C:/Users/stapi/OneDrive/Desktop/GD32VW553/GD32VW55X_Wifi_BLE_SDK/GD32VW55x_RELEASE_V1.0.2/MSDK/lwip/lwip-2.1.2/src/api\netifapi.c ****  * Thread-safe functions to be called from non-TCPIP threads
   8:C:/Users/stapi/OneDrive/Desktop/GD32VW553/GD32VW55X_Wifi_BLE_SDK/GD32VW55x_RELEASE_V1.0.2/MSDK/lwip/lwip-2.1.2/src/api\netifapi.c ****  *
   9:C:/Users/stapi/OneDrive/Desktop/GD32VW553/GD32VW55X_Wifi_BLE_SDK/GD32VW55x_RELEASE_V1.0.2/MSDK/lwip/lwip-2.1.2/src/api\netifapi.c ****  * @defgroup netifapi_netif NETIF related
  10:C:/Users/stapi/OneDrive/Desktop/GD32VW553/GD32VW55X_Wifi_BLE_SDK/GD32VW55x_RELEASE_V1.0.2/MSDK/lwip/lwip-2.1.2/src/api\netifapi.c ****  * @ingroup netifapi
  11:C:/Users/stapi/OneDrive/Desktop/GD32VW553/GD32VW55X_Wifi_BLE_SDK/GD32VW55x_RELEASE_V1.0.2/MSDK/lwip/lwip-2.1.2/src/api\netifapi.c ****  * To be called from non-TCPIP threads
  12:C:/Users/stapi/OneDrive/Desktop/GD32VW553/GD32VW55X_Wifi_BLE_SDK/GD32VW55x_RELEASE_V1.0.2/MSDK/lwip/lwip-2.1.2/src/api\netifapi.c ****  */
  13:C:/Users/stapi/OneDrive/Desktop/GD32VW553/GD32VW55X_Wifi_BLE_SDK/GD32VW55x_RELEASE_V1.0.2/MSDK/lwip/lwip-2.1.2/src/api\netifapi.c **** 
  14:C:/Users/stapi/OneDrive/Desktop/GD32VW553/GD32VW55X_Wifi_BLE_SDK/GD32VW55x_RELEASE_V1.0.2/MSDK/lwip/lwip-2.1.2/src/api\netifapi.c **** /*
  15:C:/Users/stapi/OneDrive/Desktop/GD32VW553/GD32VW55X_Wifi_BLE_SDK/GD32VW55x_RELEASE_V1.0.2/MSDK/lwip/lwip-2.1.2/src/api\netifapi.c ****  * Redistribution and use in source and binary forms, with or without modification,
  16:C:/Users/stapi/OneDrive/Desktop/GD32VW553/GD32VW55X_Wifi_BLE_SDK/GD32VW55x_RELEASE_V1.0.2/MSDK/lwip/lwip-2.1.2/src/api\netifapi.c ****  * are permitted provided that the following conditions are met:
  17:C:/Users/stapi/OneDrive/Desktop/GD32VW553/GD32VW55X_Wifi_BLE_SDK/GD32VW55x_RELEASE_V1.0.2/MSDK/lwip/lwip-2.1.2/src/api\netifapi.c ****  *
  18:C:/Users/stapi/OneDrive/Desktop/GD32VW553/GD32VW55X_Wifi_BLE_SDK/GD32VW55x_RELEASE_V1.0.2/MSDK/lwip/lwip-2.1.2/src/api\netifapi.c ****  * 1. Redistributions of source code must retain the above copyright notice,
  19:C:/Users/stapi/OneDrive/Desktop/GD32VW553/GD32VW55X_Wifi_BLE_SDK/GD32VW55x_RELEASE_V1.0.2/MSDK/lwip/lwip-2.1.2/src/api\netifapi.c ****  *    this list of conditions and the following disclaimer.
  20:C:/Users/stapi/OneDrive/Desktop/GD32VW553/GD32VW55X_Wifi_BLE_SDK/GD32VW55x_RELEASE_V1.0.2/MSDK/lwip/lwip-2.1.2/src/api\netifapi.c ****  * 2. Redistributions in binary form must reproduce the above copyright notice,
  21:C:/Users/stapi/OneDrive/Desktop/GD32VW553/GD32VW55X_Wifi_BLE_SDK/GD32VW55x_RELEASE_V1.0.2/MSDK/lwip/lwip-2.1.2/src/api\netifapi.c ****  *    this list of conditions and the following disclaimer in the documentation
  22:C:/Users/stapi/OneDrive/Desktop/GD32VW553/GD32VW55X_Wifi_BLE_SDK/GD32VW55x_RELEASE_V1.0.2/MSDK/lwip/lwip-2.1.2/src/api\netifapi.c ****  *    and/or other materials provided with the distribution.
  23:C:/Users/stapi/OneDrive/Desktop/GD32VW553/GD32VW55X_Wifi_BLE_SDK/GD32VW55x_RELEASE_V1.0.2/MSDK/lwip/lwip-2.1.2/src/api\netifapi.c ****  * 3. The name of the author may not be used to endorse or promote products
  24:C:/Users/stapi/OneDrive/Desktop/GD32VW553/GD32VW55X_Wifi_BLE_SDK/GD32VW55x_RELEASE_V1.0.2/MSDK/lwip/lwip-2.1.2/src/api\netifapi.c ****  *    derived from this software without specific prior written permission.
  25:C:/Users/stapi/OneDrive/Desktop/GD32VW553/GD32VW55X_Wifi_BLE_SDK/GD32VW55x_RELEASE_V1.0.2/MSDK/lwip/lwip-2.1.2/src/api\netifapi.c ****  *
  26:C:/Users/stapi/OneDrive/Desktop/GD32VW553/GD32VW55X_Wifi_BLE_SDK/GD32VW55x_RELEASE_V1.0.2/MSDK/lwip/lwip-2.1.2/src/api\netifapi.c ****  * THIS SOFTWARE IS PROVIDED BY THE AUTHOR ``AS IS'' AND ANY EXPRESS OR IMPLIED
  27:C:/Users/stapi/OneDrive/Desktop/GD32VW553/GD32VW55X_Wifi_BLE_SDK/GD32VW55x_RELEASE_V1.0.2/MSDK/lwip/lwip-2.1.2/src/api\netifapi.c ****  * WARRANTIES, INCLUDING, BUT NOT LIMITED TO, THE IMPLIED WARRANTIES OF
  28:C:/Users/stapi/OneDrive/Desktop/GD32VW553/GD32VW55X_Wifi_BLE_SDK/GD32VW55x_RELEASE_V1.0.2/MSDK/lwip/lwip-2.1.2/src/api\netifapi.c ****  * MERCHANTABILITY AND FITNESS FOR A PARTICULAR PURPOSE ARE DISCLAIMED. IN NO EVENT
  29:C:/Users/stapi/OneDrive/Desktop/GD32VW553/GD32VW55X_Wifi_BLE_SDK/GD32VW55x_RELEASE_V1.0.2/MSDK/lwip/lwip-2.1.2/src/api\netifapi.c ****  * SHALL THE AUTHOR BE LIABLE FOR ANY DIRECT, INDIRECT, INCIDENTAL, SPECIAL,
  30:C:/Users/stapi/OneDrive/Desktop/GD32VW553/GD32VW55X_Wifi_BLE_SDK/GD32VW55x_RELEASE_V1.0.2/MSDK/lwip/lwip-2.1.2/src/api\netifapi.c ****  * EXEMPLARY, OR CONSEQUENTIAL DAMAGES (INCLUDING, BUT NOT LIMITED TO, PROCUREMENT
  31:C:/Users/stapi/OneDrive/Desktop/GD32VW553/GD32VW55X_Wifi_BLE_SDK/GD32VW55x_RELEASE_V1.0.2/MSDK/lwip/lwip-2.1.2/src/api\netifapi.c ****  * OF SUBSTITUTE GOODS OR SERVICES; LOSS OF USE, DATA, OR PROFITS; OR BUSINESS
  32:C:/Users/stapi/OneDrive/Desktop/GD32VW553/GD32VW55X_Wifi_BLE_SDK/GD32VW55x_RELEASE_V1.0.2/MSDK/lwip/lwip-2.1.2/src/api\netifapi.c ****  * INTERRUPTION) HOWEVER CAUSED AND ON ANY THEORY OF LIABILITY, WHETHER IN
  33:C:/Users/stapi/OneDrive/Desktop/GD32VW553/GD32VW55X_Wifi_BLE_SDK/GD32VW55x_RELEASE_V1.0.2/MSDK/lwip/lwip-2.1.2/src/api\netifapi.c ****  * CONTRACT, STRICT LIABILITY, OR TORT (INCLUDING NEGLIGENCE OR OTHERWISE) ARISING
  34:C:/Users/stapi/OneDrive/Desktop/GD32VW553/GD32VW55X_Wifi_BLE_SDK/GD32VW55x_RELEASE_V1.0.2/MSDK/lwip/lwip-2.1.2/src/api\netifapi.c ****  * IN ANY WAY OUT OF THE USE OF THIS SOFTWARE, EVEN IF ADVISED OF THE POSSIBILITY
  35:C:/Users/stapi/OneDrive/Desktop/GD32VW553/GD32VW55X_Wifi_BLE_SDK/GD32VW55x_RELEASE_V1.0.2/MSDK/lwip/lwip-2.1.2/src/api\netifapi.c ****  * OF SUCH DAMAGE.
  36:C:/Users/stapi/OneDrive/Desktop/GD32VW553/GD32VW55X_Wifi_BLE_SDK/GD32VW55x_RELEASE_V1.0.2/MSDK/lwip/lwip-2.1.2/src/api\netifapi.c ****  *
  37:C:/Users/stapi/OneDrive/Desktop/GD32VW553/GD32VW55X_Wifi_BLE_SDK/GD32VW55x_RELEASE_V1.0.2/MSDK/lwip/lwip-2.1.2/src/api\netifapi.c ****  * This file is part of the lwIP TCP/IP stack.
  38:C:/Users/stapi/OneDrive/Desktop/GD32VW553/GD32VW55X_Wifi_BLE_SDK/GD32VW55x_RELEASE_V1.0.2/MSDK/lwip/lwip-2.1.2/src/api\netifapi.c ****  *
  39:C:/Users/stapi/OneDrive/Desktop/GD32VW553/GD32VW55X_Wifi_BLE_SDK/GD32VW55x_RELEASE_V1.0.2/MSDK/lwip/lwip-2.1.2/src/api\netifapi.c ****  */
  40:C:/Users/stapi/OneDrive/Desktop/GD32VW553/GD32VW55X_Wifi_BLE_SDK/GD32VW55x_RELEASE_V1.0.2/MSDK/lwip/lwip-2.1.2/src/api\netifapi.c **** 
  41:C:/Users/stapi/OneDrive/Desktop/GD32VW553/GD32VW55X_Wifi_BLE_SDK/GD32VW55x_RELEASE_V1.0.2/MSDK/lwip/lwip-2.1.2/src/api\netifapi.c **** #include "lwip/opt.h"
  42:C:/Users/stapi/OneDrive/Desktop/GD32VW553/GD32VW55X_Wifi_BLE_SDK/GD32VW55x_RELEASE_V1.0.2/MSDK/lwip/lwip-2.1.2/src/api\netifapi.c **** 
  43:C:/Users/stapi/OneDrive/Desktop/GD32VW553/GD32VW55X_Wifi_BLE_SDK/GD32VW55x_RELEASE_V1.0.2/MSDK/lwip/lwip-2.1.2/src/api\netifapi.c **** #if LWIP_NETIF_API /* don't build if not configured for use in lwipopts.h */
  44:C:/Users/stapi/OneDrive/Desktop/GD32VW553/GD32VW55X_Wifi_BLE_SDK/GD32VW55x_RELEASE_V1.0.2/MSDK/lwip/lwip-2.1.2/src/api\netifapi.c **** 
  45:C:/Users/stapi/OneDrive/Desktop/GD32VW553/GD32VW55X_Wifi_BLE_SDK/GD32VW55x_RELEASE_V1.0.2/MSDK/lwip/lwip-2.1.2/src/api\netifapi.c **** #include "lwip/etharp.h"
  46:C:/Users/stapi/OneDrive/Desktop/GD32VW553/GD32VW55X_Wifi_BLE_SDK/GD32VW55x_RELEASE_V1.0.2/MSDK/lwip/lwip-2.1.2/src/api\netifapi.c **** #include "lwip/netifapi.h"
  47:C:/Users/stapi/OneDrive/Desktop/GD32VW553/GD32VW55X_Wifi_BLE_SDK/GD32VW55x_RELEASE_V1.0.2/MSDK/lwip/lwip-2.1.2/src/api\netifapi.c **** #include "lwip/memp.h"
  48:C:/Users/stapi/OneDrive/Desktop/GD32VW553/GD32VW55X_Wifi_BLE_SDK/GD32VW55x_RELEASE_V1.0.2/MSDK/lwip/lwip-2.1.2/src/api\netifapi.c **** #include "lwip/priv/tcpip_priv.h"
  49:C:/Users/stapi/OneDrive/Desktop/GD32VW553/GD32VW55X_Wifi_BLE_SDK/GD32VW55x_RELEASE_V1.0.2/MSDK/lwip/lwip-2.1.2/src/api\netifapi.c **** 
  50:C:/Users/stapi/OneDrive/Desktop/GD32VW553/GD32VW55X_Wifi_BLE_SDK/GD32VW55x_RELEASE_V1.0.2/MSDK/lwip/lwip-2.1.2/src/api\netifapi.c **** #include <string.h> /* strncpy */
  51:C:/Users/stapi/OneDrive/Desktop/GD32VW553/GD32VW55X_Wifi_BLE_SDK/GD32VW55x_RELEASE_V1.0.2/MSDK/lwip/lwip-2.1.2/src/api\netifapi.c **** 
  52:C:/Users/stapi/OneDrive/Desktop/GD32VW553/GD32VW55X_Wifi_BLE_SDK/GD32VW55x_RELEASE_V1.0.2/MSDK/lwip/lwip-2.1.2/src/api\netifapi.c **** #define NETIFAPI_VAR_REF(name)      API_VAR_REF(name)
  53:C:/Users/stapi/OneDrive/Desktop/GD32VW553/GD32VW55X_Wifi_BLE_SDK/GD32VW55x_RELEASE_V1.0.2/MSDK/lwip/lwip-2.1.2/src/api\netifapi.c **** #define NETIFAPI_VAR_DECLARE(name)  API_VAR_DECLARE(struct netifapi_msg, name)
  54:C:/Users/stapi/OneDrive/Desktop/GD32VW553/GD32VW55X_Wifi_BLE_SDK/GD32VW55x_RELEASE_V1.0.2/MSDK/lwip/lwip-2.1.2/src/api\netifapi.c **** #define NETIFAPI_VAR_ALLOC(name)    API_VAR_ALLOC(struct netifapi_msg, MEMP_NETIFAPI_MSG, name, ERR
  55:C:/Users/stapi/OneDrive/Desktop/GD32VW553/GD32VW55X_Wifi_BLE_SDK/GD32VW55x_RELEASE_V1.0.2/MSDK/lwip/lwip-2.1.2/src/api\netifapi.c **** #define NETIFAPI_VAR_FREE(name)     API_VAR_FREE(MEMP_NETIFAPI_MSG, name)
  56:C:/Users/stapi/OneDrive/Desktop/GD32VW553/GD32VW55X_Wifi_BLE_SDK/GD32VW55x_RELEASE_V1.0.2/MSDK/lwip/lwip-2.1.2/src/api\netifapi.c **** 
  57:C:/Users/stapi/OneDrive/Desktop/GD32VW553/GD32VW55X_Wifi_BLE_SDK/GD32VW55x_RELEASE_V1.0.2/MSDK/lwip/lwip-2.1.2/src/api\netifapi.c **** /**
  58:C:/Users/stapi/OneDrive/Desktop/GD32VW553/GD32VW55X_Wifi_BLE_SDK/GD32VW55x_RELEASE_V1.0.2/MSDK/lwip/lwip-2.1.2/src/api\netifapi.c ****  * Call netif_add() inside the tcpip_thread context.
  59:C:/Users/stapi/OneDrive/Desktop/GD32VW553/GD32VW55X_Wifi_BLE_SDK/GD32VW55x_RELEASE_V1.0.2/MSDK/lwip/lwip-2.1.2/src/api\netifapi.c ****  */
  60:C:/Users/stapi/OneDrive/Desktop/GD32VW553/GD32VW55X_Wifi_BLE_SDK/GD32VW55x_RELEASE_V1.0.2/MSDK/lwip/lwip-2.1.2/src/api\netifapi.c **** static err_t
  61:C:/Users/stapi/OneDrive/Desktop/GD32VW553/GD32VW55X_Wifi_BLE_SDK/GD32VW55x_RELEASE_V1.0.2/MSDK/lwip/lwip-2.1.2/src/api\netifapi.c **** netifapi_do_netif_add(struct tcpip_api_call_data *m)
  62:C:/Users/stapi/OneDrive/Desktop/GD32VW553/GD32VW55X_Wifi_BLE_SDK/GD32VW55x_RELEASE_V1.0.2/MSDK/lwip/lwip-2.1.2/src/api\netifapi.c **** {
  15              		.loc 1 62 1
  16              		.cfi_startproc
  17              	.LVL0:
  18 0000 17030000 		call	t0,__riscv_save_0
  18      E7020300 
  19              		.cfi_offset 1, -4
  20              		.cfi_def_cfa_offset 16
  63:C:/Users/stapi/OneDrive/Desktop/GD32VW553/GD32VW55X_Wifi_BLE_SDK/GD32VW55x_RELEASE_V1.0.2/MSDK/lwip/lwip-2.1.2/src/api\netifapi.c ****   /* cast through void* to silence alignment warnings.
  64:C:/Users/stapi/OneDrive/Desktop/GD32VW553/GD32VW55X_Wifi_BLE_SDK/GD32VW55x_RELEASE_V1.0.2/MSDK/lwip/lwip-2.1.2/src/api\netifapi.c ****    * We know it works because the structs have been instantiated as struct netifapi_msg */
  65:C:/Users/stapi/OneDrive/Desktop/GD32VW553/GD32VW55X_Wifi_BLE_SDK/GD32VW55x_RELEASE_V1.0.2/MSDK/lwip/lwip-2.1.2/src/api\netifapi.c ****   struct netifapi_msg *msg = (struct netifapi_msg *)(void *)m;
  21              		.loc 1 65 3
  22              	.LVL1:
  66:C:/Users/stapi/OneDrive/Desktop/GD32VW553/GD32VW55X_Wifi_BLE_SDK/GD32VW55x_RELEASE_V1.0.2/MSDK/lwip/lwip-2.1.2/src/api\netifapi.c **** 
  67:C:/Users/stapi/OneDrive/Desktop/GD32VW553/GD32VW55X_Wifi_BLE_SDK/GD32VW55x_RELEASE_V1.0.2/MSDK/lwip/lwip-2.1.2/src/api\netifapi.c ****   if (!netif_add( msg->netif,
  23              		.loc 1 67 3
  24              		.loc 1 67 8 is_stmt 0
  25 0008 0328C501 		lw	a6,28(a0)
  26 000c 1C4D     		lw	a5,24(a0)
  27 000e 5849     		lw	a4,20(a0)
  28 0010 1449     		lw	a3,16(a0)
  29 0012 5045     		lw	a2,12(a0)
  30 0014 0C45     		lw	a1,8(a0)
  31 0016 4841     		lw	a0,4(a0)
  32              	.LVL2:
  33 0018 97000000 		call	netif_add
  33      E7800000 
  34              	.LVL3:
  35              		.loc 1 67 6
  36 0020 11C5     		beq	a0,zero,.L3
  68:C:/Users/stapi/OneDrive/Desktop/GD32VW553/GD32VW55X_Wifi_BLE_SDK/GD32VW55x_RELEASE_V1.0.2/MSDK/lwip/lwip-2.1.2/src/api\netifapi.c **** #if LWIP_IPV4
  69:C:/Users/stapi/OneDrive/Desktop/GD32VW553/GD32VW55X_Wifi_BLE_SDK/GD32VW55x_RELEASE_V1.0.2/MSDK/lwip/lwip-2.1.2/src/api\netifapi.c ****                   API_EXPR_REF(msg->msg.add.ipaddr),
  70:C:/Users/stapi/OneDrive/Desktop/GD32VW553/GD32VW55X_Wifi_BLE_SDK/GD32VW55x_RELEASE_V1.0.2/MSDK/lwip/lwip-2.1.2/src/api\netifapi.c ****                   API_EXPR_REF(msg->msg.add.netmask),
  71:C:/Users/stapi/OneDrive/Desktop/GD32VW553/GD32VW55X_Wifi_BLE_SDK/GD32VW55x_RELEASE_V1.0.2/MSDK/lwip/lwip-2.1.2/src/api\netifapi.c ****                   API_EXPR_REF(msg->msg.add.gw),
  72:C:/Users/stapi/OneDrive/Desktop/GD32VW553/GD32VW55X_Wifi_BLE_SDK/GD32VW55x_RELEASE_V1.0.2/MSDK/lwip/lwip-2.1.2/src/api\netifapi.c **** #endif /* LWIP_IPV4 */
  73:C:/Users/stapi/OneDrive/Desktop/GD32VW553/GD32VW55X_Wifi_BLE_SDK/GD32VW55x_RELEASE_V1.0.2/MSDK/lwip/lwip-2.1.2/src/api\netifapi.c ****                   msg->msg.add.state,
  74:C:/Users/stapi/OneDrive/Desktop/GD32VW553/GD32VW55X_Wifi_BLE_SDK/GD32VW55x_RELEASE_V1.0.2/MSDK/lwip/lwip-2.1.2/src/api\netifapi.c ****                   msg->msg.add.init,
  75:C:/Users/stapi/OneDrive/Desktop/GD32VW553/GD32VW55X_Wifi_BLE_SDK/GD32VW55x_RELEASE_V1.0.2/MSDK/lwip/lwip-2.1.2/src/api\netifapi.c ****                   msg->msg.add.input)) {
  76:C:/Users/stapi/OneDrive/Desktop/GD32VW553/GD32VW55X_Wifi_BLE_SDK/GD32VW55x_RELEASE_V1.0.2/MSDK/lwip/lwip-2.1.2/src/api\netifapi.c ****     return ERR_IF;
  77:C:/Users/stapi/OneDrive/Desktop/GD32VW553/GD32VW55X_Wifi_BLE_SDK/GD32VW55x_RELEASE_V1.0.2/MSDK/lwip/lwip-2.1.2/src/api\netifapi.c ****   } else {
  78:C:/Users/stapi/OneDrive/Desktop/GD32VW553/GD32VW55X_Wifi_BLE_SDK/GD32VW55x_RELEASE_V1.0.2/MSDK/lwip/lwip-2.1.2/src/api\netifapi.c ****     return ERR_OK;
  37              		.loc 1 78 12
  38 0022 0145     		li	a0,0
  39              	.L2:
  79:C:/Users/stapi/OneDrive/Desktop/GD32VW553/GD32VW55X_Wifi_BLE_SDK/GD32VW55x_RELEASE_V1.0.2/MSDK/lwip/lwip-2.1.2/src/api\netifapi.c ****   }
  80:C:/Users/stapi/OneDrive/Desktop/GD32VW553/GD32VW55X_Wifi_BLE_SDK/GD32VW55x_RELEASE_V1.0.2/MSDK/lwip/lwip-2.1.2/src/api\netifapi.c **** }
  40              		.loc 1 80 1
  41 0024 17030000 		tail	__riscv_restore_0
  41      67000300 
  42              		.cfi_remember_state
  43              		.cfi_restore 1
  44              		.cfi_def_cfa_offset 0
  45              	.L3:
  46              		.cfi_restore_state
  76:C:/Users/stapi/OneDrive/Desktop/GD32VW553/GD32VW55X_Wifi_BLE_SDK/GD32VW55x_RELEASE_V1.0.2/MSDK/lwip/lwip-2.1.2/src/api\netifapi.c ****   } else {
  47              		.loc 1 76 12
  48 002c 5155     		li	a0,-12
  49 002e DDBF     		j	.L2
  50              		.cfi_endproc
  51              	.LFE4:
  53              		.section	.text.netifapi_do_netif_set_addr,"ax",@progbits
  54              		.align	1
  56              	netifapi_do_netif_set_addr:
  57              	.LFB5:
  81:C:/Users/stapi/OneDrive/Desktop/GD32VW553/GD32VW55X_Wifi_BLE_SDK/GD32VW55x_RELEASE_V1.0.2/MSDK/lwip/lwip-2.1.2/src/api\netifapi.c **** 
  82:C:/Users/stapi/OneDrive/Desktop/GD32VW553/GD32VW55X_Wifi_BLE_SDK/GD32VW55x_RELEASE_V1.0.2/MSDK/lwip/lwip-2.1.2/src/api\netifapi.c **** #if LWIP_IPV4
  83:C:/Users/stapi/OneDrive/Desktop/GD32VW553/GD32VW55X_Wifi_BLE_SDK/GD32VW55x_RELEASE_V1.0.2/MSDK/lwip/lwip-2.1.2/src/api\netifapi.c **** /**
  84:C:/Users/stapi/OneDrive/Desktop/GD32VW553/GD32VW55X_Wifi_BLE_SDK/GD32VW55x_RELEASE_V1.0.2/MSDK/lwip/lwip-2.1.2/src/api\netifapi.c ****  * Call netif_set_addr() inside the tcpip_thread context.
  85:C:/Users/stapi/OneDrive/Desktop/GD32VW553/GD32VW55X_Wifi_BLE_SDK/GD32VW55x_RELEASE_V1.0.2/MSDK/lwip/lwip-2.1.2/src/api\netifapi.c ****  */
  86:C:/Users/stapi/OneDrive/Desktop/GD32VW553/GD32VW55X_Wifi_BLE_SDK/GD32VW55x_RELEASE_V1.0.2/MSDK/lwip/lwip-2.1.2/src/api\netifapi.c **** static err_t
  87:C:/Users/stapi/OneDrive/Desktop/GD32VW553/GD32VW55X_Wifi_BLE_SDK/GD32VW55x_RELEASE_V1.0.2/MSDK/lwip/lwip-2.1.2/src/api\netifapi.c **** netifapi_do_netif_set_addr(struct tcpip_api_call_data *m)
  88:C:/Users/stapi/OneDrive/Desktop/GD32VW553/GD32VW55X_Wifi_BLE_SDK/GD32VW55x_RELEASE_V1.0.2/MSDK/lwip/lwip-2.1.2/src/api\netifapi.c **** {
  58              		.loc 1 88 1 is_stmt 1
  59              		.cfi_startproc
  60              	.LVL4:
  61 0000 17030000 		call	t0,__riscv_save_0
  61      E7020300 
  62              		.cfi_offset 1, -4
  63              		.cfi_def_cfa_offset 16
  89:C:/Users/stapi/OneDrive/Desktop/GD32VW553/GD32VW55X_Wifi_BLE_SDK/GD32VW55x_RELEASE_V1.0.2/MSDK/lwip/lwip-2.1.2/src/api\netifapi.c ****   /* cast through void* to silence alignment warnings.
  90:C:/Users/stapi/OneDrive/Desktop/GD32VW553/GD32VW55X_Wifi_BLE_SDK/GD32VW55x_RELEASE_V1.0.2/MSDK/lwip/lwip-2.1.2/src/api\netifapi.c ****    * We know it works because the structs have been instantiated as struct netifapi_msg */
  91:C:/Users/stapi/OneDrive/Desktop/GD32VW553/GD32VW55X_Wifi_BLE_SDK/GD32VW55x_RELEASE_V1.0.2/MSDK/lwip/lwip-2.1.2/src/api\netifapi.c ****   struct netifapi_msg *msg = (struct netifapi_msg *)(void *)m;
  64              		.loc 1 91 3
  65              	.LVL5:
  92:C:/Users/stapi/OneDrive/Desktop/GD32VW553/GD32VW55X_Wifi_BLE_SDK/GD32VW55x_RELEASE_V1.0.2/MSDK/lwip/lwip-2.1.2/src/api\netifapi.c **** 
  93:C:/Users/stapi/OneDrive/Desktop/GD32VW553/GD32VW55X_Wifi_BLE_SDK/GD32VW55x_RELEASE_V1.0.2/MSDK/lwip/lwip-2.1.2/src/api\netifapi.c ****   netif_set_addr( msg->netif,
  66              		.loc 1 93 3
  67 0008 1449     		lw	a3,16(a0)
  68 000a 5045     		lw	a2,12(a0)
  69 000c 0C45     		lw	a1,8(a0)
  70 000e 4841     		lw	a0,4(a0)
  71              	.LVL6:
  72 0010 97000000 		call	netif_set_addr
  72      E7800000 
  73              	.LVL7:
  94:C:/Users/stapi/OneDrive/Desktop/GD32VW553/GD32VW55X_Wifi_BLE_SDK/GD32VW55x_RELEASE_V1.0.2/MSDK/lwip/lwip-2.1.2/src/api\netifapi.c ****                   API_EXPR_REF(msg->msg.add.ipaddr),
  95:C:/Users/stapi/OneDrive/Desktop/GD32VW553/GD32VW55X_Wifi_BLE_SDK/GD32VW55x_RELEASE_V1.0.2/MSDK/lwip/lwip-2.1.2/src/api\netifapi.c ****                   API_EXPR_REF(msg->msg.add.netmask),
  96:C:/Users/stapi/OneDrive/Desktop/GD32VW553/GD32VW55X_Wifi_BLE_SDK/GD32VW55x_RELEASE_V1.0.2/MSDK/lwip/lwip-2.1.2/src/api\netifapi.c ****                   API_EXPR_REF(msg->msg.add.gw));
  97:C:/Users/stapi/OneDrive/Desktop/GD32VW553/GD32VW55X_Wifi_BLE_SDK/GD32VW55x_RELEASE_V1.0.2/MSDK/lwip/lwip-2.1.2/src/api\netifapi.c ****   return ERR_OK;
  74              		.loc 1 97 3
  98:C:/Users/stapi/OneDrive/Desktop/GD32VW553/GD32VW55X_Wifi_BLE_SDK/GD32VW55x_RELEASE_V1.0.2/MSDK/lwip/lwip-2.1.2/src/api\netifapi.c **** }
  75              		.loc 1 98 1 is_stmt 0
  76 0018 0145     		li	a0,0
  77 001a 17030000 		tail	__riscv_restore_0
  77      67000300 
  78              		.cfi_restore 1
  79              		.cfi_def_cfa_offset 0
  80              		.cfi_endproc
  81              	.LFE5:
  83              		.section	.text.netifapi_do_name_to_index,"ax",@progbits
  84              		.align	1
  86              	netifapi_do_name_to_index:
  87              	.LFB6:
  99:C:/Users/stapi/OneDrive/Desktop/GD32VW553/GD32VW55X_Wifi_BLE_SDK/GD32VW55x_RELEASE_V1.0.2/MSDK/lwip/lwip-2.1.2/src/api\netifapi.c **** #endif /* LWIP_IPV4 */
 100:C:/Users/stapi/OneDrive/Desktop/GD32VW553/GD32VW55X_Wifi_BLE_SDK/GD32VW55x_RELEASE_V1.0.2/MSDK/lwip/lwip-2.1.2/src/api\netifapi.c **** 
 101:C:/Users/stapi/OneDrive/Desktop/GD32VW553/GD32VW55X_Wifi_BLE_SDK/GD32VW55x_RELEASE_V1.0.2/MSDK/lwip/lwip-2.1.2/src/api\netifapi.c **** /**
 102:C:/Users/stapi/OneDrive/Desktop/GD32VW553/GD32VW55X_Wifi_BLE_SDK/GD32VW55x_RELEASE_V1.0.2/MSDK/lwip/lwip-2.1.2/src/api\netifapi.c **** * Call netif_name_to_index() inside the tcpip_thread context.
 103:C:/Users/stapi/OneDrive/Desktop/GD32VW553/GD32VW55X_Wifi_BLE_SDK/GD32VW55x_RELEASE_V1.0.2/MSDK/lwip/lwip-2.1.2/src/api\netifapi.c **** */
 104:C:/Users/stapi/OneDrive/Desktop/GD32VW553/GD32VW55X_Wifi_BLE_SDK/GD32VW55x_RELEASE_V1.0.2/MSDK/lwip/lwip-2.1.2/src/api\netifapi.c **** static err_t
 105:C:/Users/stapi/OneDrive/Desktop/GD32VW553/GD32VW55X_Wifi_BLE_SDK/GD32VW55x_RELEASE_V1.0.2/MSDK/lwip/lwip-2.1.2/src/api\netifapi.c **** netifapi_do_name_to_index(struct tcpip_api_call_data *m)
 106:C:/Users/stapi/OneDrive/Desktop/GD32VW553/GD32VW55X_Wifi_BLE_SDK/GD32VW55x_RELEASE_V1.0.2/MSDK/lwip/lwip-2.1.2/src/api\netifapi.c **** {
  88              		.loc 1 106 1 is_stmt 1
  89              		.cfi_startproc
  90              	.LVL8:
  91 0000 17030000 		call	t0,__riscv_save_1
  91      E7020300 
  92              		.cfi_offset 8, -8
  93              		.cfi_offset 1, -4
  94              		.cfi_def_cfa_offset 16
 107:C:/Users/stapi/OneDrive/Desktop/GD32VW553/GD32VW55X_Wifi_BLE_SDK/GD32VW55x_RELEASE_V1.0.2/MSDK/lwip/lwip-2.1.2/src/api\netifapi.c ****   /* cast through void* to silence alignment warnings.
 108:C:/Users/stapi/OneDrive/Desktop/GD32VW553/GD32VW55X_Wifi_BLE_SDK/GD32VW55x_RELEASE_V1.0.2/MSDK/lwip/lwip-2.1.2/src/api\netifapi.c ****    * We know it works because the structs have been instantiated as struct netifapi_msg */
 109:C:/Users/stapi/OneDrive/Desktop/GD32VW553/GD32VW55X_Wifi_BLE_SDK/GD32VW55x_RELEASE_V1.0.2/MSDK/lwip/lwip-2.1.2/src/api\netifapi.c ****   struct netifapi_msg *msg = (struct netifapi_msg *)(void *)m;
  95              		.loc 1 109 3
  96              	.LVL9:
 110:C:/Users/stapi/OneDrive/Desktop/GD32VW553/GD32VW55X_Wifi_BLE_SDK/GD32VW55x_RELEASE_V1.0.2/MSDK/lwip/lwip-2.1.2/src/api\netifapi.c **** 
 111:C:/Users/stapi/OneDrive/Desktop/GD32VW553/GD32VW55X_Wifi_BLE_SDK/GD32VW55x_RELEASE_V1.0.2/MSDK/lwip/lwip-2.1.2/src/api\netifapi.c ****   msg->msg.ifs.index = netif_name_to_index(msg->msg.ifs.name);
  97              		.loc 1 111 3
 106:C:/Users/stapi/OneDrive/Desktop/GD32VW553/GD32VW55X_Wifi_BLE_SDK/GD32VW55x_RELEASE_V1.0.2/MSDK/lwip/lwip-2.1.2/src/api\netifapi.c ****   /* cast through void* to silence alignment warnings.
  98              		.loc 1 106 1 is_stmt 0
  99 0008 2A84     		mv	s0,a0
 100              		.loc 1 111 24
 101 000a 0845     		lw	a0,8(a0)
 102              	.LVL10:
 103 000c 97000000 		call	netif_name_to_index
 103      E7800000 
 104              	.LVL11:
 105              		.loc 1 111 22
 106 0014 2306A400 		sb	a0,12(s0)
 112:C:/Users/stapi/OneDrive/Desktop/GD32VW553/GD32VW55X_Wifi_BLE_SDK/GD32VW55x_RELEASE_V1.0.2/MSDK/lwip/lwip-2.1.2/src/api\netifapi.c ****   return ERR_OK;
 107              		.loc 1 112 3 is_stmt 1
 113:C:/Users/stapi/OneDrive/Desktop/GD32VW553/GD32VW55X_Wifi_BLE_SDK/GD32VW55x_RELEASE_V1.0.2/MSDK/lwip/lwip-2.1.2/src/api\netifapi.c **** }
 108              		.loc 1 113 1 is_stmt 0
 109 0018 0145     		li	a0,0
 110 001a 17030000 		tail	__riscv_restore_1
 110      67000300 
 111              		.cfi_restore 8
 112              		.cfi_restore 1
 113              		.cfi_def_cfa_offset 0
 114              		.cfi_endproc
 115              	.LFE6:
 117              		.section	.text.netifapi_do_index_to_name,"ax",@progbits
 118              		.align	1
 120              	netifapi_do_index_to_name:
 121              	.LFB7:
 114:C:/Users/stapi/OneDrive/Desktop/GD32VW553/GD32VW55X_Wifi_BLE_SDK/GD32VW55x_RELEASE_V1.0.2/MSDK/lwip/lwip-2.1.2/src/api\netifapi.c **** 
 115:C:/Users/stapi/OneDrive/Desktop/GD32VW553/GD32VW55X_Wifi_BLE_SDK/GD32VW55x_RELEASE_V1.0.2/MSDK/lwip/lwip-2.1.2/src/api\netifapi.c **** /**
 116:C:/Users/stapi/OneDrive/Desktop/GD32VW553/GD32VW55X_Wifi_BLE_SDK/GD32VW55x_RELEASE_V1.0.2/MSDK/lwip/lwip-2.1.2/src/api\netifapi.c **** * Call netif_index_to_name() inside the tcpip_thread context.
 117:C:/Users/stapi/OneDrive/Desktop/GD32VW553/GD32VW55X_Wifi_BLE_SDK/GD32VW55x_RELEASE_V1.0.2/MSDK/lwip/lwip-2.1.2/src/api\netifapi.c **** */
 118:C:/Users/stapi/OneDrive/Desktop/GD32VW553/GD32VW55X_Wifi_BLE_SDK/GD32VW55x_RELEASE_V1.0.2/MSDK/lwip/lwip-2.1.2/src/api\netifapi.c **** static err_t
 119:C:/Users/stapi/OneDrive/Desktop/GD32VW553/GD32VW55X_Wifi_BLE_SDK/GD32VW55x_RELEASE_V1.0.2/MSDK/lwip/lwip-2.1.2/src/api\netifapi.c **** netifapi_do_index_to_name(struct tcpip_api_call_data *m)
 120:C:/Users/stapi/OneDrive/Desktop/GD32VW553/GD32VW55X_Wifi_BLE_SDK/GD32VW55x_RELEASE_V1.0.2/MSDK/lwip/lwip-2.1.2/src/api\netifapi.c **** {
 122              		.loc 1 120 1 is_stmt 1
 123              		.cfi_startproc
 124              	.LVL12:
 125 0000 17030000 		call	t0,__riscv_save_1
 125      E7020300 
 126              		.cfi_offset 8, -8
 127              		.cfi_offset 1, -4
 128              		.cfi_def_cfa_offset 16
 121:C:/Users/stapi/OneDrive/Desktop/GD32VW553/GD32VW55X_Wifi_BLE_SDK/GD32VW55x_RELEASE_V1.0.2/MSDK/lwip/lwip-2.1.2/src/api\netifapi.c ****   /* cast through void* to silence alignment warnings.
 122:C:/Users/stapi/OneDrive/Desktop/GD32VW553/GD32VW55X_Wifi_BLE_SDK/GD32VW55x_RELEASE_V1.0.2/MSDK/lwip/lwip-2.1.2/src/api\netifapi.c ****    * We know it works because the structs have been instantiated as struct netifapi_msg */
 123:C:/Users/stapi/OneDrive/Desktop/GD32VW553/GD32VW55X_Wifi_BLE_SDK/GD32VW55x_RELEASE_V1.0.2/MSDK/lwip/lwip-2.1.2/src/api\netifapi.c ****   struct netifapi_msg *msg = (struct netifapi_msg *)(void *)m;
 129              		.loc 1 123 3
 130              	.LVL13:
 124:C:/Users/stapi/OneDrive/Desktop/GD32VW553/GD32VW55X_Wifi_BLE_SDK/GD32VW55x_RELEASE_V1.0.2/MSDK/lwip/lwip-2.1.2/src/api\netifapi.c **** 
 125:C:/Users/stapi/OneDrive/Desktop/GD32VW553/GD32VW55X_Wifi_BLE_SDK/GD32VW55x_RELEASE_V1.0.2/MSDK/lwip/lwip-2.1.2/src/api\netifapi.c ****   if (!netif_index_to_name(msg->msg.ifs.index, msg->msg.ifs.name)) {
 131              		.loc 1 125 3
 132              		.loc 1 125 8 is_stmt 0
 133 0008 0C45     		lw	a1,8(a0)
 120:C:/Users/stapi/OneDrive/Desktop/GD32VW553/GD32VW55X_Wifi_BLE_SDK/GD32VW55x_RELEASE_V1.0.2/MSDK/lwip/lwip-2.1.2/src/api\netifapi.c ****   /* cast through void* to silence alignment warnings.
 134              		.loc 1 120 1
 135 000a 2A84     		mv	s0,a0
 136              		.loc 1 125 8
 137 000c 0345C500 		lbu	a0,12(a0)
 138              	.LVL14:
 139 0010 97000000 		call	netif_index_to_name
 139      E7800000 
 140              	.LVL15:
 141              		.loc 1 125 6
 142 0018 01E5     		bne	a0,zero,.L10
 126:C:/Users/stapi/OneDrive/Desktop/GD32VW553/GD32VW55X_Wifi_BLE_SDK/GD32VW55x_RELEASE_V1.0.2/MSDK/lwip/lwip-2.1.2/src/api\netifapi.c ****     /* return failure via empty name */
 127:C:/Users/stapi/OneDrive/Desktop/GD32VW553/GD32VW55X_Wifi_BLE_SDK/GD32VW55x_RELEASE_V1.0.2/MSDK/lwip/lwip-2.1.2/src/api\netifapi.c ****     msg->msg.ifs.name[0] = '\0';
 143              		.loc 1 127 5 is_stmt 1
 144              		.loc 1 127 17 is_stmt 0
 145 001a 1C44     		lw	a5,8(s0)
 146              		.loc 1 127 26
 147 001c 23800700 		sb	zero,0(a5)
 148              	.L10:
 128:C:/Users/stapi/OneDrive/Desktop/GD32VW553/GD32VW55X_Wifi_BLE_SDK/GD32VW55x_RELEASE_V1.0.2/MSDK/lwip/lwip-2.1.2/src/api\netifapi.c ****   }
 129:C:/Users/stapi/OneDrive/Desktop/GD32VW553/GD32VW55X_Wifi_BLE_SDK/GD32VW55x_RELEASE_V1.0.2/MSDK/lwip/lwip-2.1.2/src/api\netifapi.c ****   return ERR_OK;
 149              		.loc 1 129 3 is_stmt 1
 130:C:/Users/stapi/OneDrive/Desktop/GD32VW553/GD32VW55X_Wifi_BLE_SDK/GD32VW55x_RELEASE_V1.0.2/MSDK/lwip/lwip-2.1.2/src/api\netifapi.c **** }
 150              		.loc 1 130 1 is_stmt 0
 151 0020 0145     		li	a0,0
 152 0022 17030000 		tail	__riscv_restore_1
 152      67000300 
 153              		.cfi_restore 8
 154              		.cfi_restore 1
 155              		.cfi_def_cfa_offset 0
 156              		.cfi_endproc
 157              	.LFE7:
 159              		.section	.text.netifapi_do_netif_common,"ax",@progbits
 160              		.align	1
 162              	netifapi_do_netif_common:
 163              	.LFB8:
 131:C:/Users/stapi/OneDrive/Desktop/GD32VW553/GD32VW55X_Wifi_BLE_SDK/GD32VW55x_RELEASE_V1.0.2/MSDK/lwip/lwip-2.1.2/src/api\netifapi.c **** 
 132:C:/Users/stapi/OneDrive/Desktop/GD32VW553/GD32VW55X_Wifi_BLE_SDK/GD32VW55x_RELEASE_V1.0.2/MSDK/lwip/lwip-2.1.2/src/api\netifapi.c **** /**
 133:C:/Users/stapi/OneDrive/Desktop/GD32VW553/GD32VW55X_Wifi_BLE_SDK/GD32VW55x_RELEASE_V1.0.2/MSDK/lwip/lwip-2.1.2/src/api\netifapi.c ****  * Call the "errtfunc" (or the "voidfunc" if "errtfunc" is NULL) inside the
 134:C:/Users/stapi/OneDrive/Desktop/GD32VW553/GD32VW55X_Wifi_BLE_SDK/GD32VW55x_RELEASE_V1.0.2/MSDK/lwip/lwip-2.1.2/src/api\netifapi.c ****  * tcpip_thread context.
 135:C:/Users/stapi/OneDrive/Desktop/GD32VW553/GD32VW55X_Wifi_BLE_SDK/GD32VW55x_RELEASE_V1.0.2/MSDK/lwip/lwip-2.1.2/src/api\netifapi.c ****  */
 136:C:/Users/stapi/OneDrive/Desktop/GD32VW553/GD32VW55X_Wifi_BLE_SDK/GD32VW55x_RELEASE_V1.0.2/MSDK/lwip/lwip-2.1.2/src/api\netifapi.c **** static err_t
 137:C:/Users/stapi/OneDrive/Desktop/GD32VW553/GD32VW55X_Wifi_BLE_SDK/GD32VW55x_RELEASE_V1.0.2/MSDK/lwip/lwip-2.1.2/src/api\netifapi.c **** netifapi_do_netif_common(struct tcpip_api_call_data *m)
 138:C:/Users/stapi/OneDrive/Desktop/GD32VW553/GD32VW55X_Wifi_BLE_SDK/GD32VW55x_RELEASE_V1.0.2/MSDK/lwip/lwip-2.1.2/src/api\netifapi.c **** {
 164              		.loc 1 138 1 is_stmt 1
 165              		.cfi_startproc
 166              	.LVL16:
 167 0000 17030000 		call	t0,__riscv_save_0
 167      E7020300 
 168              		.cfi_offset 1, -4
 169              		.cfi_def_cfa_offset 16
 139:C:/Users/stapi/OneDrive/Desktop/GD32VW553/GD32VW55X_Wifi_BLE_SDK/GD32VW55x_RELEASE_V1.0.2/MSDK/lwip/lwip-2.1.2/src/api\netifapi.c ****   /* cast through void* to silence alignment warnings.
 140:C:/Users/stapi/OneDrive/Desktop/GD32VW553/GD32VW55X_Wifi_BLE_SDK/GD32VW55x_RELEASE_V1.0.2/MSDK/lwip/lwip-2.1.2/src/api\netifapi.c ****    * We know it works because the structs have been instantiated as struct netifapi_msg */
 141:C:/Users/stapi/OneDrive/Desktop/GD32VW553/GD32VW55X_Wifi_BLE_SDK/GD32VW55x_RELEASE_V1.0.2/MSDK/lwip/lwip-2.1.2/src/api\netifapi.c ****   struct netifapi_msg *msg = (struct netifapi_msg *)(void *)m;
 170              		.loc 1 141 3
 171              	.LVL17:
 142:C:/Users/stapi/OneDrive/Desktop/GD32VW553/GD32VW55X_Wifi_BLE_SDK/GD32VW55x_RELEASE_V1.0.2/MSDK/lwip/lwip-2.1.2/src/api\netifapi.c **** 
 143:C:/Users/stapi/OneDrive/Desktop/GD32VW553/GD32VW55X_Wifi_BLE_SDK/GD32VW55x_RELEASE_V1.0.2/MSDK/lwip/lwip-2.1.2/src/api\netifapi.c ****   if (msg->msg.common.errtfunc != NULL) {
 172              		.loc 1 143 3
 173              		.loc 1 143 22 is_stmt 0
 174 0008 5845     		lw	a4,12(a0)
 138:C:/Users/stapi/OneDrive/Desktop/GD32VW553/GD32VW55X_Wifi_BLE_SDK/GD32VW55x_RELEASE_V1.0.2/MSDK/lwip/lwip-2.1.2/src/api\netifapi.c ****   /* cast through void* to silence alignment warnings.
 175              		.loc 1 138 1
 176 000a AA87     		mv	a5,a0
 144:C:/Users/stapi/OneDrive/Desktop/GD32VW553/GD32VW55X_Wifi_BLE_SDK/GD32VW55x_RELEASE_V1.0.2/MSDK/lwip/lwip-2.1.2/src/api\netifapi.c ****     return msg->msg.common.errtfunc(msg->netif);
 177              		.loc 1 144 12
 178 000c 4841     		lw	a0,4(a0)
 179              	.LVL18:
 143:C:/Users/stapi/OneDrive/Desktop/GD32VW553/GD32VW55X_Wifi_BLE_SDK/GD32VW55x_RELEASE_V1.0.2/MSDK/lwip/lwip-2.1.2/src/api\netifapi.c ****     return msg->msg.common.errtfunc(msg->netif);
 180              		.loc 1 143 6
 181 000e 11C7     		beq	a4,zero,.L13
 182              		.loc 1 144 5 is_stmt 1
 183              		.loc 1 144 12 is_stmt 0
 184 0010 0297     		jalr	a4
 185              	.LVL19:
 186              	.L14:
 145:C:/Users/stapi/OneDrive/Desktop/GD32VW553/GD32VW55X_Wifi_BLE_SDK/GD32VW55x_RELEASE_V1.0.2/MSDK/lwip/lwip-2.1.2/src/api\netifapi.c ****   } else {
 146:C:/Users/stapi/OneDrive/Desktop/GD32VW553/GD32VW55X_Wifi_BLE_SDK/GD32VW55x_RELEASE_V1.0.2/MSDK/lwip/lwip-2.1.2/src/api\netifapi.c ****     msg->msg.common.voidfunc(msg->netif);
 147:C:/Users/stapi/OneDrive/Desktop/GD32VW553/GD32VW55X_Wifi_BLE_SDK/GD32VW55x_RELEASE_V1.0.2/MSDK/lwip/lwip-2.1.2/src/api\netifapi.c ****     return ERR_OK;
 148:C:/Users/stapi/OneDrive/Desktop/GD32VW553/GD32VW55X_Wifi_BLE_SDK/GD32VW55x_RELEASE_V1.0.2/MSDK/lwip/lwip-2.1.2/src/api\netifapi.c ****   }
 149:C:/Users/stapi/OneDrive/Desktop/GD32VW553/GD32VW55X_Wifi_BLE_SDK/GD32VW55x_RELEASE_V1.0.2/MSDK/lwip/lwip-2.1.2/src/api\netifapi.c **** }
 187              		.loc 1 149 1
 188 0012 17030000 		tail	__riscv_restore_0
 188      67000300 
 189              		.cfi_remember_state
 190              		.cfi_restore 1
 191              		.cfi_def_cfa_offset 0
 192              	.LVL20:
 193              	.L13:
 194              		.cfi_restore_state
 195              	.LBB4:
 196              	.LBB5:
 146:C:/Users/stapi/OneDrive/Desktop/GD32VW553/GD32VW55X_Wifi_BLE_SDK/GD32VW55x_RELEASE_V1.0.2/MSDK/lwip/lwip-2.1.2/src/api\netifapi.c ****     return ERR_OK;
 197              		.loc 1 146 5 is_stmt 1
 198 001a 9C47     		lw	a5,8(a5)
 199              	.LVL21:
 200 001c 8297     		jalr	a5
 201              	.LVL22:
 147:C:/Users/stapi/OneDrive/Desktop/GD32VW553/GD32VW55X_Wifi_BLE_SDK/GD32VW55x_RELEASE_V1.0.2/MSDK/lwip/lwip-2.1.2/src/api\netifapi.c ****   }
 202              		.loc 1 147 5
 146:C:/Users/stapi/OneDrive/Desktop/GD32VW553/GD32VW55X_Wifi_BLE_SDK/GD32VW55x_RELEASE_V1.0.2/MSDK/lwip/lwip-2.1.2/src/api\netifapi.c ****     return ERR_OK;
 203              		.loc 1 146 5 is_stmt 0
 204 001e 0145     		li	a0,0
 205 0020 CDBF     		j	.L14
 206              	.LBE5:
 207              	.LBE4:
 208              		.cfi_endproc
 209              	.LFE8:
 211              		.section	.text.netifapi_arp_add,"ax",@progbits
 212              		.align	1
 213              		.globl	netifapi_arp_add
 215              	netifapi_arp_add:
 216              	.LFB9:
 150:C:/Users/stapi/OneDrive/Desktop/GD32VW553/GD32VW55X_Wifi_BLE_SDK/GD32VW55x_RELEASE_V1.0.2/MSDK/lwip/lwip-2.1.2/src/api\netifapi.c **** 
 151:C:/Users/stapi/OneDrive/Desktop/GD32VW553/GD32VW55X_Wifi_BLE_SDK/GD32VW55x_RELEASE_V1.0.2/MSDK/lwip/lwip-2.1.2/src/api\netifapi.c **** #if LWIP_ARP && LWIP_IPV4
 152:C:/Users/stapi/OneDrive/Desktop/GD32VW553/GD32VW55X_Wifi_BLE_SDK/GD32VW55x_RELEASE_V1.0.2/MSDK/lwip/lwip-2.1.2/src/api\netifapi.c **** /**
 153:C:/Users/stapi/OneDrive/Desktop/GD32VW553/GD32VW55X_Wifi_BLE_SDK/GD32VW55x_RELEASE_V1.0.2/MSDK/lwip/lwip-2.1.2/src/api\netifapi.c ****  * @ingroup netifapi_arp
 154:C:/Users/stapi/OneDrive/Desktop/GD32VW553/GD32VW55X_Wifi_BLE_SDK/GD32VW55x_RELEASE_V1.0.2/MSDK/lwip/lwip-2.1.2/src/api\netifapi.c ****  * Add or update an entry in the ARP cache.
 155:C:/Users/stapi/OneDrive/Desktop/GD32VW553/GD32VW55X_Wifi_BLE_SDK/GD32VW55x_RELEASE_V1.0.2/MSDK/lwip/lwip-2.1.2/src/api\netifapi.c ****  * For an update, ipaddr is used to find the cache entry.
 156:C:/Users/stapi/OneDrive/Desktop/GD32VW553/GD32VW55X_Wifi_BLE_SDK/GD32VW55x_RELEASE_V1.0.2/MSDK/lwip/lwip-2.1.2/src/api\netifapi.c ****  *
 157:C:/Users/stapi/OneDrive/Desktop/GD32VW553/GD32VW55X_Wifi_BLE_SDK/GD32VW55x_RELEASE_V1.0.2/MSDK/lwip/lwip-2.1.2/src/api\netifapi.c ****  * @param ipaddr IPv4 address of cache entry
 158:C:/Users/stapi/OneDrive/Desktop/GD32VW553/GD32VW55X_Wifi_BLE_SDK/GD32VW55x_RELEASE_V1.0.2/MSDK/lwip/lwip-2.1.2/src/api\netifapi.c ****  * @param ethaddr hardware address mapped to ipaddr
 159:C:/Users/stapi/OneDrive/Desktop/GD32VW553/GD32VW55X_Wifi_BLE_SDK/GD32VW55x_RELEASE_V1.0.2/MSDK/lwip/lwip-2.1.2/src/api\netifapi.c ****  * @param type type of ARP cache entry
 160:C:/Users/stapi/OneDrive/Desktop/GD32VW553/GD32VW55X_Wifi_BLE_SDK/GD32VW55x_RELEASE_V1.0.2/MSDK/lwip/lwip-2.1.2/src/api\netifapi.c ****  * @return ERR_OK: entry added/updated, else error from err_t
 161:C:/Users/stapi/OneDrive/Desktop/GD32VW553/GD32VW55X_Wifi_BLE_SDK/GD32VW55x_RELEASE_V1.0.2/MSDK/lwip/lwip-2.1.2/src/api\netifapi.c ****  */
 162:C:/Users/stapi/OneDrive/Desktop/GD32VW553/GD32VW55X_Wifi_BLE_SDK/GD32VW55x_RELEASE_V1.0.2/MSDK/lwip/lwip-2.1.2/src/api\netifapi.c **** err_t
 163:C:/Users/stapi/OneDrive/Desktop/GD32VW553/GD32VW55X_Wifi_BLE_SDK/GD32VW55x_RELEASE_V1.0.2/MSDK/lwip/lwip-2.1.2/src/api\netifapi.c **** netifapi_arp_add(const ip4_addr_t *ipaddr, struct eth_addr *ethaddr, enum netifapi_arp_entry type)
 164:C:/Users/stapi/OneDrive/Desktop/GD32VW553/GD32VW55X_Wifi_BLE_SDK/GD32VW55x_RELEASE_V1.0.2/MSDK/lwip/lwip-2.1.2/src/api\netifapi.c **** {
 217              		.loc 1 164 1 is_stmt 1
 218              		.cfi_startproc
 219              	.LVL23:
 165:C:/Users/stapi/OneDrive/Desktop/GD32VW553/GD32VW55X_Wifi_BLE_SDK/GD32VW55x_RELEASE_V1.0.2/MSDK/lwip/lwip-2.1.2/src/api\netifapi.c ****   err_t err;
 220              		.loc 1 165 3
 166:C:/Users/stapi/OneDrive/Desktop/GD32VW553/GD32VW55X_Wifi_BLE_SDK/GD32VW55x_RELEASE_V1.0.2/MSDK/lwip/lwip-2.1.2/src/api\netifapi.c **** 
 167:C:/Users/stapi/OneDrive/Desktop/GD32VW553/GD32VW55X_Wifi_BLE_SDK/GD32VW55x_RELEASE_V1.0.2/MSDK/lwip/lwip-2.1.2/src/api\netifapi.c ****   /* We only support permanent entries currently */
 168:C:/Users/stapi/OneDrive/Desktop/GD32VW553/GD32VW55X_Wifi_BLE_SDK/GD32VW55x_RELEASE_V1.0.2/MSDK/lwip/lwip-2.1.2/src/api\netifapi.c ****   LWIP_UNUSED_ARG(type);
 221              		.loc 1 168 3
 169:C:/Users/stapi/OneDrive/Desktop/GD32VW553/GD32VW55X_Wifi_BLE_SDK/GD32VW55x_RELEASE_V1.0.2/MSDK/lwip/lwip-2.1.2/src/api\netifapi.c **** 
 170:C:/Users/stapi/OneDrive/Desktop/GD32VW553/GD32VW55X_Wifi_BLE_SDK/GD32VW55x_RELEASE_V1.0.2/MSDK/lwip/lwip-2.1.2/src/api\netifapi.c **** #if ETHARP_SUPPORT_STATIC_ENTRIES && LWIP_TCPIP_CORE_LOCKING
 171:C:/Users/stapi/OneDrive/Desktop/GD32VW553/GD32VW55X_Wifi_BLE_SDK/GD32VW55x_RELEASE_V1.0.2/MSDK/lwip/lwip-2.1.2/src/api\netifapi.c ****   LOCK_TCPIP_CORE();
 172:C:/Users/stapi/OneDrive/Desktop/GD32VW553/GD32VW55X_Wifi_BLE_SDK/GD32VW55x_RELEASE_V1.0.2/MSDK/lwip/lwip-2.1.2/src/api\netifapi.c ****   err = etharp_add_static_entry(ipaddr, ethaddr);
 173:C:/Users/stapi/OneDrive/Desktop/GD32VW553/GD32VW55X_Wifi_BLE_SDK/GD32VW55x_RELEASE_V1.0.2/MSDK/lwip/lwip-2.1.2/src/api\netifapi.c ****   UNLOCK_TCPIP_CORE();
 174:C:/Users/stapi/OneDrive/Desktop/GD32VW553/GD32VW55X_Wifi_BLE_SDK/GD32VW55x_RELEASE_V1.0.2/MSDK/lwip/lwip-2.1.2/src/api\netifapi.c **** #else
 175:C:/Users/stapi/OneDrive/Desktop/GD32VW553/GD32VW55X_Wifi_BLE_SDK/GD32VW55x_RELEASE_V1.0.2/MSDK/lwip/lwip-2.1.2/src/api\netifapi.c ****   /* @todo add new vars to struct netifapi_msg and create a 'do' func */
 176:C:/Users/stapi/OneDrive/Desktop/GD32VW553/GD32VW55X_Wifi_BLE_SDK/GD32VW55x_RELEASE_V1.0.2/MSDK/lwip/lwip-2.1.2/src/api\netifapi.c ****   LWIP_UNUSED_ARG(ipaddr);
 222              		.loc 1 176 3
 177:C:/Users/stapi/OneDrive/Desktop/GD32VW553/GD32VW55X_Wifi_BLE_SDK/GD32VW55x_RELEASE_V1.0.2/MSDK/lwip/lwip-2.1.2/src/api\netifapi.c ****   LWIP_UNUSED_ARG(ethaddr);
 223              		.loc 1 177 3
 178:C:/Users/stapi/OneDrive/Desktop/GD32VW553/GD32VW55X_Wifi_BLE_SDK/GD32VW55x_RELEASE_V1.0.2/MSDK/lwip/lwip-2.1.2/src/api\netifapi.c ****   err = ERR_VAL;
 224              		.loc 1 178 3
 179:C:/Users/stapi/OneDrive/Desktop/GD32VW553/GD32VW55X_Wifi_BLE_SDK/GD32VW55x_RELEASE_V1.0.2/MSDK/lwip/lwip-2.1.2/src/api\netifapi.c **** #endif /* ETHARP_SUPPORT_STATIC_ENTRIES && LWIP_TCPIP_CORE_LOCKING */
 180:C:/Users/stapi/OneDrive/Desktop/GD32VW553/GD32VW55X_Wifi_BLE_SDK/GD32VW55x_RELEASE_V1.0.2/MSDK/lwip/lwip-2.1.2/src/api\netifapi.c **** 
 181:C:/Users/stapi/OneDrive/Desktop/GD32VW553/GD32VW55X_Wifi_BLE_SDK/GD32VW55x_RELEASE_V1.0.2/MSDK/lwip/lwip-2.1.2/src/api\netifapi.c ****   return err;
 225              		.loc 1 181 3
 182:C:/Users/stapi/OneDrive/Desktop/GD32VW553/GD32VW55X_Wifi_BLE_SDK/GD32VW55x_RELEASE_V1.0.2/MSDK/lwip/lwip-2.1.2/src/api\netifapi.c **** }
 226              		.loc 1 182 1 is_stmt 0
 227 0000 6955     		li	a0,-6
 228              	.LVL24:
 229 0002 8280     		ret
 230              		.cfi_endproc
 231              	.LFE9:
 233              		.section	.text.netifapi_arp_remove,"ax",@progbits
 234              		.align	1
 235              		.globl	netifapi_arp_remove
 237              	netifapi_arp_remove:
 238              	.LFB10:
 183:C:/Users/stapi/OneDrive/Desktop/GD32VW553/GD32VW55X_Wifi_BLE_SDK/GD32VW55x_RELEASE_V1.0.2/MSDK/lwip/lwip-2.1.2/src/api\netifapi.c **** 
 184:C:/Users/stapi/OneDrive/Desktop/GD32VW553/GD32VW55X_Wifi_BLE_SDK/GD32VW55x_RELEASE_V1.0.2/MSDK/lwip/lwip-2.1.2/src/api\netifapi.c **** /**
 185:C:/Users/stapi/OneDrive/Desktop/GD32VW553/GD32VW55X_Wifi_BLE_SDK/GD32VW55x_RELEASE_V1.0.2/MSDK/lwip/lwip-2.1.2/src/api\netifapi.c ****  * @ingroup netifapi_arp
 186:C:/Users/stapi/OneDrive/Desktop/GD32VW553/GD32VW55X_Wifi_BLE_SDK/GD32VW55x_RELEASE_V1.0.2/MSDK/lwip/lwip-2.1.2/src/api\netifapi.c ****  * Remove an entry in the ARP cache identified by ipaddr
 187:C:/Users/stapi/OneDrive/Desktop/GD32VW553/GD32VW55X_Wifi_BLE_SDK/GD32VW55x_RELEASE_V1.0.2/MSDK/lwip/lwip-2.1.2/src/api\netifapi.c ****  *
 188:C:/Users/stapi/OneDrive/Desktop/GD32VW553/GD32VW55X_Wifi_BLE_SDK/GD32VW55x_RELEASE_V1.0.2/MSDK/lwip/lwip-2.1.2/src/api\netifapi.c ****  * @param ipaddr IPv4 address of cache entry
 189:C:/Users/stapi/OneDrive/Desktop/GD32VW553/GD32VW55X_Wifi_BLE_SDK/GD32VW55x_RELEASE_V1.0.2/MSDK/lwip/lwip-2.1.2/src/api\netifapi.c ****  * @param type type of ARP cache entry
 190:C:/Users/stapi/OneDrive/Desktop/GD32VW553/GD32VW55X_Wifi_BLE_SDK/GD32VW55x_RELEASE_V1.0.2/MSDK/lwip/lwip-2.1.2/src/api\netifapi.c ****  * @return ERR_OK: entry removed, else error from err_t
 191:C:/Users/stapi/OneDrive/Desktop/GD32VW553/GD32VW55X_Wifi_BLE_SDK/GD32VW55x_RELEASE_V1.0.2/MSDK/lwip/lwip-2.1.2/src/api\netifapi.c ****  */
 192:C:/Users/stapi/OneDrive/Desktop/GD32VW553/GD32VW55X_Wifi_BLE_SDK/GD32VW55x_RELEASE_V1.0.2/MSDK/lwip/lwip-2.1.2/src/api\netifapi.c **** err_t
 193:C:/Users/stapi/OneDrive/Desktop/GD32VW553/GD32VW55X_Wifi_BLE_SDK/GD32VW55x_RELEASE_V1.0.2/MSDK/lwip/lwip-2.1.2/src/api\netifapi.c **** netifapi_arp_remove(const ip4_addr_t *ipaddr, enum netifapi_arp_entry type)
 194:C:/Users/stapi/OneDrive/Desktop/GD32VW553/GD32VW55X_Wifi_BLE_SDK/GD32VW55x_RELEASE_V1.0.2/MSDK/lwip/lwip-2.1.2/src/api\netifapi.c **** {
 239              		.loc 1 194 1 is_stmt 1
 240              		.cfi_startproc
 241              	.LVL25:
 195:C:/Users/stapi/OneDrive/Desktop/GD32VW553/GD32VW55X_Wifi_BLE_SDK/GD32VW55x_RELEASE_V1.0.2/MSDK/lwip/lwip-2.1.2/src/api\netifapi.c ****   err_t err;
 242              		.loc 1 195 3
 196:C:/Users/stapi/OneDrive/Desktop/GD32VW553/GD32VW55X_Wifi_BLE_SDK/GD32VW55x_RELEASE_V1.0.2/MSDK/lwip/lwip-2.1.2/src/api\netifapi.c **** 
 197:C:/Users/stapi/OneDrive/Desktop/GD32VW553/GD32VW55X_Wifi_BLE_SDK/GD32VW55x_RELEASE_V1.0.2/MSDK/lwip/lwip-2.1.2/src/api\netifapi.c ****   /* We only support permanent entries currently */
 198:C:/Users/stapi/OneDrive/Desktop/GD32VW553/GD32VW55X_Wifi_BLE_SDK/GD32VW55x_RELEASE_V1.0.2/MSDK/lwip/lwip-2.1.2/src/api\netifapi.c ****   LWIP_UNUSED_ARG(type);
 243              		.loc 1 198 3
 199:C:/Users/stapi/OneDrive/Desktop/GD32VW553/GD32VW55X_Wifi_BLE_SDK/GD32VW55x_RELEASE_V1.0.2/MSDK/lwip/lwip-2.1.2/src/api\netifapi.c **** 
 200:C:/Users/stapi/OneDrive/Desktop/GD32VW553/GD32VW55X_Wifi_BLE_SDK/GD32VW55x_RELEASE_V1.0.2/MSDK/lwip/lwip-2.1.2/src/api\netifapi.c **** #if ETHARP_SUPPORT_STATIC_ENTRIES && LWIP_TCPIP_CORE_LOCKING
 201:C:/Users/stapi/OneDrive/Desktop/GD32VW553/GD32VW55X_Wifi_BLE_SDK/GD32VW55x_RELEASE_V1.0.2/MSDK/lwip/lwip-2.1.2/src/api\netifapi.c ****   LOCK_TCPIP_CORE();
 202:C:/Users/stapi/OneDrive/Desktop/GD32VW553/GD32VW55X_Wifi_BLE_SDK/GD32VW55x_RELEASE_V1.0.2/MSDK/lwip/lwip-2.1.2/src/api\netifapi.c ****   err = etharp_remove_static_entry(ipaddr);
 203:C:/Users/stapi/OneDrive/Desktop/GD32VW553/GD32VW55X_Wifi_BLE_SDK/GD32VW55x_RELEASE_V1.0.2/MSDK/lwip/lwip-2.1.2/src/api\netifapi.c ****   UNLOCK_TCPIP_CORE();
 204:C:/Users/stapi/OneDrive/Desktop/GD32VW553/GD32VW55X_Wifi_BLE_SDK/GD32VW55x_RELEASE_V1.0.2/MSDK/lwip/lwip-2.1.2/src/api\netifapi.c **** #else
 205:C:/Users/stapi/OneDrive/Desktop/GD32VW553/GD32VW55X_Wifi_BLE_SDK/GD32VW55x_RELEASE_V1.0.2/MSDK/lwip/lwip-2.1.2/src/api\netifapi.c ****   /* @todo add new vars to struct netifapi_msg and create a 'do' func */
 206:C:/Users/stapi/OneDrive/Desktop/GD32VW553/GD32VW55X_Wifi_BLE_SDK/GD32VW55x_RELEASE_V1.0.2/MSDK/lwip/lwip-2.1.2/src/api\netifapi.c ****   LWIP_UNUSED_ARG(ipaddr);
 244              		.loc 1 206 3
 207:C:/Users/stapi/OneDrive/Desktop/GD32VW553/GD32VW55X_Wifi_BLE_SDK/GD32VW55x_RELEASE_V1.0.2/MSDK/lwip/lwip-2.1.2/src/api\netifapi.c ****   err = ERR_VAL;
 245              		.loc 1 207 3
 208:C:/Users/stapi/OneDrive/Desktop/GD32VW553/GD32VW55X_Wifi_BLE_SDK/GD32VW55x_RELEASE_V1.0.2/MSDK/lwip/lwip-2.1.2/src/api\netifapi.c **** #endif /* ETHARP_SUPPORT_STATIC_ENTRIES && LWIP_TCPIP_CORE_LOCKING */
 209:C:/Users/stapi/OneDrive/Desktop/GD32VW553/GD32VW55X_Wifi_BLE_SDK/GD32VW55x_RELEASE_V1.0.2/MSDK/lwip/lwip-2.1.2/src/api\netifapi.c **** 
 210:C:/Users/stapi/OneDrive/Desktop/GD32VW553/GD32VW55X_Wifi_BLE_SDK/GD32VW55x_RELEASE_V1.0.2/MSDK/lwip/lwip-2.1.2/src/api\netifapi.c ****   return err;
 246              		.loc 1 210 3
 211:C:/Users/stapi/OneDrive/Desktop/GD32VW553/GD32VW55X_Wifi_BLE_SDK/GD32VW55x_RELEASE_V1.0.2/MSDK/lwip/lwip-2.1.2/src/api\netifapi.c **** }
 247              		.loc 1 211 1 is_stmt 0
 248 0000 6955     		li	a0,-6
 249              	.LVL26:
 250 0002 8280     		ret
 251              		.cfi_endproc
 252              	.LFE10:
 254              		.section	.text.netifapi_netif_add,"ax",@progbits
 255              		.align	1
 256              		.globl	netifapi_netif_add
 258              	netifapi_netif_add:
 259              	.LFB11:
 212:C:/Users/stapi/OneDrive/Desktop/GD32VW553/GD32VW55X_Wifi_BLE_SDK/GD32VW55x_RELEASE_V1.0.2/MSDK/lwip/lwip-2.1.2/src/api\netifapi.c **** #endif /* LWIP_ARP && LWIP_IPV4 */
 213:C:/Users/stapi/OneDrive/Desktop/GD32VW553/GD32VW55X_Wifi_BLE_SDK/GD32VW55x_RELEASE_V1.0.2/MSDK/lwip/lwip-2.1.2/src/api\netifapi.c **** 
 214:C:/Users/stapi/OneDrive/Desktop/GD32VW553/GD32VW55X_Wifi_BLE_SDK/GD32VW55x_RELEASE_V1.0.2/MSDK/lwip/lwip-2.1.2/src/api\netifapi.c **** /**
 215:C:/Users/stapi/OneDrive/Desktop/GD32VW553/GD32VW55X_Wifi_BLE_SDK/GD32VW55x_RELEASE_V1.0.2/MSDK/lwip/lwip-2.1.2/src/api\netifapi.c ****  * @ingroup netifapi_netif
 216:C:/Users/stapi/OneDrive/Desktop/GD32VW553/GD32VW55X_Wifi_BLE_SDK/GD32VW55x_RELEASE_V1.0.2/MSDK/lwip/lwip-2.1.2/src/api\netifapi.c ****  * Call netif_add() in a thread-safe way by running that function inside the
 217:C:/Users/stapi/OneDrive/Desktop/GD32VW553/GD32VW55X_Wifi_BLE_SDK/GD32VW55x_RELEASE_V1.0.2/MSDK/lwip/lwip-2.1.2/src/api\netifapi.c ****  * tcpip_thread context.
 218:C:/Users/stapi/OneDrive/Desktop/GD32VW553/GD32VW55X_Wifi_BLE_SDK/GD32VW55x_RELEASE_V1.0.2/MSDK/lwip/lwip-2.1.2/src/api\netifapi.c ****  *
 219:C:/Users/stapi/OneDrive/Desktop/GD32VW553/GD32VW55X_Wifi_BLE_SDK/GD32VW55x_RELEASE_V1.0.2/MSDK/lwip/lwip-2.1.2/src/api\netifapi.c ****  * @note for params @see netif_add()
 220:C:/Users/stapi/OneDrive/Desktop/GD32VW553/GD32VW55X_Wifi_BLE_SDK/GD32VW55x_RELEASE_V1.0.2/MSDK/lwip/lwip-2.1.2/src/api\netifapi.c ****  */
 221:C:/Users/stapi/OneDrive/Desktop/GD32VW553/GD32VW55X_Wifi_BLE_SDK/GD32VW55x_RELEASE_V1.0.2/MSDK/lwip/lwip-2.1.2/src/api\netifapi.c **** err_t
 222:C:/Users/stapi/OneDrive/Desktop/GD32VW553/GD32VW55X_Wifi_BLE_SDK/GD32VW55x_RELEASE_V1.0.2/MSDK/lwip/lwip-2.1.2/src/api\netifapi.c **** netifapi_netif_add(struct netif *netif,
 223:C:/Users/stapi/OneDrive/Desktop/GD32VW553/GD32VW55X_Wifi_BLE_SDK/GD32VW55x_RELEASE_V1.0.2/MSDK/lwip/lwip-2.1.2/src/api\netifapi.c **** #if LWIP_IPV4
 224:C:/Users/stapi/OneDrive/Desktop/GD32VW553/GD32VW55X_Wifi_BLE_SDK/GD32VW55x_RELEASE_V1.0.2/MSDK/lwip/lwip-2.1.2/src/api\netifapi.c ****                    const ip4_addr_t *ipaddr, const ip4_addr_t *netmask, const ip4_addr_t *gw,
 225:C:/Users/stapi/OneDrive/Desktop/GD32VW553/GD32VW55X_Wifi_BLE_SDK/GD32VW55x_RELEASE_V1.0.2/MSDK/lwip/lwip-2.1.2/src/api\netifapi.c **** #endif /* LWIP_IPV4 */
 226:C:/Users/stapi/OneDrive/Desktop/GD32VW553/GD32VW55X_Wifi_BLE_SDK/GD32VW55x_RELEASE_V1.0.2/MSDK/lwip/lwip-2.1.2/src/api\netifapi.c ****                    void *state, netif_init_fn init, netif_input_fn input)
 227:C:/Users/stapi/OneDrive/Desktop/GD32VW553/GD32VW55X_Wifi_BLE_SDK/GD32VW55x_RELEASE_V1.0.2/MSDK/lwip/lwip-2.1.2/src/api\netifapi.c **** {
 260              		.loc 1 227 1 is_stmt 1
 261              		.cfi_startproc
 262              	.LVL27:
 263 0000 17030000 		call	t0,__riscv_save_0
 263      E7020300 
 264              		.cfi_offset 1, -4
 265              		.cfi_def_cfa_offset 16
 228:C:/Users/stapi/OneDrive/Desktop/GD32VW553/GD32VW55X_Wifi_BLE_SDK/GD32VW55x_RELEASE_V1.0.2/MSDK/lwip/lwip-2.1.2/src/api\netifapi.c ****   err_t err;
 266              		.loc 1 228 3
 229:C:/Users/stapi/OneDrive/Desktop/GD32VW553/GD32VW55X_Wifi_BLE_SDK/GD32VW55x_RELEASE_V1.0.2/MSDK/lwip/lwip-2.1.2/src/api\netifapi.c ****   NETIFAPI_VAR_DECLARE(msg);
 267              		.loc 1 229 3
 230:C:/Users/stapi/OneDrive/Desktop/GD32VW553/GD32VW55X_Wifi_BLE_SDK/GD32VW55x_RELEASE_V1.0.2/MSDK/lwip/lwip-2.1.2/src/api\netifapi.c ****   NETIFAPI_VAR_ALLOC(msg);
 268              		.loc 1 230 26
 231:C:/Users/stapi/OneDrive/Desktop/GD32VW553/GD32VW55X_Wifi_BLE_SDK/GD32VW55x_RELEASE_V1.0.2/MSDK/lwip/lwip-2.1.2/src/api\netifapi.c **** 
 232:C:/Users/stapi/OneDrive/Desktop/GD32VW553/GD32VW55X_Wifi_BLE_SDK/GD32VW55x_RELEASE_V1.0.2/MSDK/lwip/lwip-2.1.2/src/api\netifapi.c **** #if LWIP_IPV4
 233:C:/Users/stapi/OneDrive/Desktop/GD32VW553/GD32VW55X_Wifi_BLE_SDK/GD32VW55x_RELEASE_V1.0.2/MSDK/lwip/lwip-2.1.2/src/api\netifapi.c ****   if (ipaddr == NULL) {
 269              		.loc 1 233 3
 227:C:/Users/stapi/OneDrive/Desktop/GD32VW553/GD32VW55X_Wifi_BLE_SDK/GD32VW55x_RELEASE_V1.0.2/MSDK/lwip/lwip-2.1.2/src/api\netifapi.c ****   err_t err;
 270              		.loc 1 227 1 is_stmt 0
 271 0008 0111     		addi	sp,sp,-32
 272              		.cfi_def_cfa_offset 48
 273              		.loc 1 233 6
 274 000a 89E5     		bne	a1,zero,.L19
 234:C:/Users/stapi/OneDrive/Desktop/GD32VW553/GD32VW55X_Wifi_BLE_SDK/GD32VW55x_RELEASE_V1.0.2/MSDK/lwip/lwip-2.1.2/src/api\netifapi.c ****     ipaddr = IP4_ADDR_ANY4;
 275              		.loc 1 234 12
 276 000c B7050000 		lui	a1,%hi(ip_addr_any)
 277              	.LVL28:
 278 0010 93850500 		addi	a1,a1,%lo(ip_addr_any)
 279              	.L19:
 280              	.LVL29:
 235:C:/Users/stapi/OneDrive/Desktop/GD32VW553/GD32VW55X_Wifi_BLE_SDK/GD32VW55x_RELEASE_V1.0.2/MSDK/lwip/lwip-2.1.2/src/api\netifapi.c ****   }
 236:C:/Users/stapi/OneDrive/Desktop/GD32VW553/GD32VW55X_Wifi_BLE_SDK/GD32VW55x_RELEASE_V1.0.2/MSDK/lwip/lwip-2.1.2/src/api\netifapi.c ****   if (netmask == NULL) {
 281              		.loc 1 236 3 is_stmt 1
 282              		.loc 1 236 6 is_stmt 0
 283 0014 09E6     		bne	a2,zero,.L20
 237:C:/Users/stapi/OneDrive/Desktop/GD32VW553/GD32VW55X_Wifi_BLE_SDK/GD32VW55x_RELEASE_V1.0.2/MSDK/lwip/lwip-2.1.2/src/api\netifapi.c ****     netmask = IP4_ADDR_ANY4;
 284              		.loc 1 237 13
 285 0016 37060000 		lui	a2,%hi(ip_addr_any)
 286              	.LVL30:
 287 001a 13060600 		addi	a2,a2,%lo(ip_addr_any)
 288              	.L20:
 289              	.LVL31:
 238:C:/Users/stapi/OneDrive/Desktop/GD32VW553/GD32VW55X_Wifi_BLE_SDK/GD32VW55x_RELEASE_V1.0.2/MSDK/lwip/lwip-2.1.2/src/api\netifapi.c ****   }
 239:C:/Users/stapi/OneDrive/Desktop/GD32VW553/GD32VW55X_Wifi_BLE_SDK/GD32VW55x_RELEASE_V1.0.2/MSDK/lwip/lwip-2.1.2/src/api\netifapi.c ****   if (gw == NULL) {
 290              		.loc 1 239 3 is_stmt 1
 291              		.loc 1 239 6 is_stmt 0
 292 001e 89E6     		bne	a3,zero,.L21
 240:C:/Users/stapi/OneDrive/Desktop/GD32VW553/GD32VW55X_Wifi_BLE_SDK/GD32VW55x_RELEASE_V1.0.2/MSDK/lwip/lwip-2.1.2/src/api\netifapi.c ****     gw = IP4_ADDR_ANY4;
 293              		.loc 1 240 8
 294 0020 B7060000 		lui	a3,%hi(ip_addr_any)
 295              	.LVL32:
 296 0024 93860600 		addi	a3,a3,%lo(ip_addr_any)
 297              	.L21:
 298              	.LVL33:
 241:C:/Users/stapi/OneDrive/Desktop/GD32VW553/GD32VW55X_Wifi_BLE_SDK/GD32VW55x_RELEASE_V1.0.2/MSDK/lwip/lwip-2.1.2/src/api\netifapi.c ****   }
 242:C:/Users/stapi/OneDrive/Desktop/GD32VW553/GD32VW55X_Wifi_BLE_SDK/GD32VW55x_RELEASE_V1.0.2/MSDK/lwip/lwip-2.1.2/src/api\netifapi.c **** #endif /* LWIP_IPV4 */
 243:C:/Users/stapi/OneDrive/Desktop/GD32VW553/GD32VW55X_Wifi_BLE_SDK/GD32VW55x_RELEASE_V1.0.2/MSDK/lwip/lwip-2.1.2/src/api\netifapi.c **** 
 244:C:/Users/stapi/OneDrive/Desktop/GD32VW553/GD32VW55X_Wifi_BLE_SDK/GD32VW55x_RELEASE_V1.0.2/MSDK/lwip/lwip-2.1.2/src/api\netifapi.c ****   NETIFAPI_VAR_REF(msg).netif = netif;
 299              		.loc 1 244 3 is_stmt 1
 300              		.loc 1 244 31 is_stmt 0
 301 0028 2AC2     		sw	a0,4(sp)
 245:C:/Users/stapi/OneDrive/Desktop/GD32VW553/GD32VW55X_Wifi_BLE_SDK/GD32VW55x_RELEASE_V1.0.2/MSDK/lwip/lwip-2.1.2/src/api\netifapi.c **** #if LWIP_IPV4
 246:C:/Users/stapi/OneDrive/Desktop/GD32VW553/GD32VW55X_Wifi_BLE_SDK/GD32VW55x_RELEASE_V1.0.2/MSDK/lwip/lwip-2.1.2/src/api\netifapi.c ****   NETIFAPI_VAR_REF(msg).msg.add.ipaddr  = NETIFAPI_VAR_REF(ipaddr);
 302              		.loc 1 246 3 is_stmt 1
 247:C:/Users/stapi/OneDrive/Desktop/GD32VW553/GD32VW55X_Wifi_BLE_SDK/GD32VW55x_RELEASE_V1.0.2/MSDK/lwip/lwip-2.1.2/src/api\netifapi.c ****   NETIFAPI_VAR_REF(msg).msg.add.netmask = NETIFAPI_VAR_REF(netmask);
 248:C:/Users/stapi/OneDrive/Desktop/GD32VW553/GD32VW55X_Wifi_BLE_SDK/GD32VW55x_RELEASE_V1.0.2/MSDK/lwip/lwip-2.1.2/src/api\netifapi.c ****   NETIFAPI_VAR_REF(msg).msg.add.gw      = NETIFAPI_VAR_REF(gw);
 249:C:/Users/stapi/OneDrive/Desktop/GD32VW553/GD32VW55X_Wifi_BLE_SDK/GD32VW55x_RELEASE_V1.0.2/MSDK/lwip/lwip-2.1.2/src/api\netifapi.c **** #endif /* LWIP_IPV4 */
 250:C:/Users/stapi/OneDrive/Desktop/GD32VW553/GD32VW55X_Wifi_BLE_SDK/GD32VW55x_RELEASE_V1.0.2/MSDK/lwip/lwip-2.1.2/src/api\netifapi.c ****   NETIFAPI_VAR_REF(msg).msg.add.state   = state;
 251:C:/Users/stapi/OneDrive/Desktop/GD32VW553/GD32VW55X_Wifi_BLE_SDK/GD32VW55x_RELEASE_V1.0.2/MSDK/lwip/lwip-2.1.2/src/api\netifapi.c ****   NETIFAPI_VAR_REF(msg).msg.add.init    = init;
 252:C:/Users/stapi/OneDrive/Desktop/GD32VW553/GD32VW55X_Wifi_BLE_SDK/GD32VW55x_RELEASE_V1.0.2/MSDK/lwip/lwip-2.1.2/src/api\netifapi.c ****   NETIFAPI_VAR_REF(msg).msg.add.input   = input;
 253:C:/Users/stapi/OneDrive/Desktop/GD32VW553/GD32VW55X_Wifi_BLE_SDK/GD32VW55x_RELEASE_V1.0.2/MSDK/lwip/lwip-2.1.2/src/api\netifapi.c ****   err = tcpip_api_call(netifapi_do_netif_add, &API_VAR_REF(msg).call);
 303              		.loc 1 253 9 is_stmt 0
 304 002a 37050000 		lui	a0,%hi(netifapi_do_netif_add)
 305              	.LVL34:
 246:C:/Users/stapi/OneDrive/Desktop/GD32VW553/GD32VW55X_Wifi_BLE_SDK/GD32VW55x_RELEASE_V1.0.2/MSDK/lwip/lwip-2.1.2/src/api\netifapi.c ****   NETIFAPI_VAR_REF(msg).msg.add.netmask = NETIFAPI_VAR_REF(netmask);
 306              		.loc 1 246 41
 307 002e 2EC4     		sw	a1,8(sp)
 247:C:/Users/stapi/OneDrive/Desktop/GD32VW553/GD32VW55X_Wifi_BLE_SDK/GD32VW55x_RELEASE_V1.0.2/MSDK/lwip/lwip-2.1.2/src/api\netifapi.c ****   NETIFAPI_VAR_REF(msg).msg.add.netmask = NETIFAPI_VAR_REF(netmask);
 308              		.loc 1 247 3 is_stmt 1
 309              		.loc 1 253 9 is_stmt 0
 310 0030 13050500 		addi	a0,a0,%lo(netifapi_do_netif_add)
 311 0034 8A85     		mv	a1,sp
 312              	.LVL35:
 247:C:/Users/stapi/OneDrive/Desktop/GD32VW553/GD32VW55X_Wifi_BLE_SDK/GD32VW55x_RELEASE_V1.0.2/MSDK/lwip/lwip-2.1.2/src/api\netifapi.c ****   NETIFAPI_VAR_REF(msg).msg.add.netmask = NETIFAPI_VAR_REF(netmask);
 313              		.loc 1 247 41
 314 0036 32C6     		sw	a2,12(sp)
 248:C:/Users/stapi/OneDrive/Desktop/GD32VW553/GD32VW55X_Wifi_BLE_SDK/GD32VW55x_RELEASE_V1.0.2/MSDK/lwip/lwip-2.1.2/src/api\netifapi.c **** #endif /* LWIP_IPV4 */
 315              		.loc 1 248 3 is_stmt 1
 248:C:/Users/stapi/OneDrive/Desktop/GD32VW553/GD32VW55X_Wifi_BLE_SDK/GD32VW55x_RELEASE_V1.0.2/MSDK/lwip/lwip-2.1.2/src/api\netifapi.c **** #endif /* LWIP_IPV4 */
 316              		.loc 1 248 41 is_stmt 0
 317 0038 36C8     		sw	a3,16(sp)
 250:C:/Users/stapi/OneDrive/Desktop/GD32VW553/GD32VW55X_Wifi_BLE_SDK/GD32VW55x_RELEASE_V1.0.2/MSDK/lwip/lwip-2.1.2/src/api\netifapi.c ****   NETIFAPI_VAR_REF(msg).msg.add.init    = init;
 318              		.loc 1 250 3 is_stmt 1
 250:C:/Users/stapi/OneDrive/Desktop/GD32VW553/GD32VW55X_Wifi_BLE_SDK/GD32VW55x_RELEASE_V1.0.2/MSDK/lwip/lwip-2.1.2/src/api\netifapi.c ****   NETIFAPI_VAR_REF(msg).msg.add.init    = init;
 319              		.loc 1 250 41 is_stmt 0
 320 003a 3ACA     		sw	a4,20(sp)
 251:C:/Users/stapi/OneDrive/Desktop/GD32VW553/GD32VW55X_Wifi_BLE_SDK/GD32VW55x_RELEASE_V1.0.2/MSDK/lwip/lwip-2.1.2/src/api\netifapi.c ****   NETIFAPI_VAR_REF(msg).msg.add.input   = input;
 321              		.loc 1 251 3 is_stmt 1
 251:C:/Users/stapi/OneDrive/Desktop/GD32VW553/GD32VW55X_Wifi_BLE_SDK/GD32VW55x_RELEASE_V1.0.2/MSDK/lwip/lwip-2.1.2/src/api\netifapi.c ****   NETIFAPI_VAR_REF(msg).msg.add.input   = input;
 322              		.loc 1 251 41 is_stmt 0
 323 003c 3ECC     		sw	a5,24(sp)
 252:C:/Users/stapi/OneDrive/Desktop/GD32VW553/GD32VW55X_Wifi_BLE_SDK/GD32VW55x_RELEASE_V1.0.2/MSDK/lwip/lwip-2.1.2/src/api\netifapi.c ****   err = tcpip_api_call(netifapi_do_netif_add, &API_VAR_REF(msg).call);
 324              		.loc 1 252 3 is_stmt 1
 252:C:/Users/stapi/OneDrive/Desktop/GD32VW553/GD32VW55X_Wifi_BLE_SDK/GD32VW55x_RELEASE_V1.0.2/MSDK/lwip/lwip-2.1.2/src/api\netifapi.c ****   err = tcpip_api_call(netifapi_do_netif_add, &API_VAR_REF(msg).call);
 325              		.loc 1 252 41 is_stmt 0
 326 003e 42CE     		sw	a6,28(sp)
 327              		.loc 1 253 3 is_stmt 1
 328              		.loc 1 253 9 is_stmt 0
 329 0040 97000000 		call	tcpip_api_call
 329      E7800000 
 330              	.LVL36:
 254:C:/Users/stapi/OneDrive/Desktop/GD32VW553/GD32VW55X_Wifi_BLE_SDK/GD32VW55x_RELEASE_V1.0.2/MSDK/lwip/lwip-2.1.2/src/api\netifapi.c ****   NETIFAPI_VAR_FREE(msg);
 331              		.loc 1 254 25 is_stmt 1
 255:C:/Users/stapi/OneDrive/Desktop/GD32VW553/GD32VW55X_Wifi_BLE_SDK/GD32VW55x_RELEASE_V1.0.2/MSDK/lwip/lwip-2.1.2/src/api\netifapi.c ****   return err;
 332              		.loc 1 255 3
 256:C:/Users/stapi/OneDrive/Desktop/GD32VW553/GD32VW55X_Wifi_BLE_SDK/GD32VW55x_RELEASE_V1.0.2/MSDK/lwip/lwip-2.1.2/src/api\netifapi.c **** }
 333              		.loc 1 256 1 is_stmt 0
 334 0048 0561     		addi	sp,sp,32
 335              		.cfi_def_cfa_offset 0
 336 004a 17030000 		tail	__riscv_restore_0
 336      67000300 
 337              		.cfi_restore 1
 338              		.cfi_def_cfa_offset -16
 339              		.cfi_endproc
 340              	.LFE11:
 342              		.section	.text.netifapi_netif_set_addr,"ax",@progbits
 343              		.align	1
 344              		.globl	netifapi_netif_set_addr
 346              	netifapi_netif_set_addr:
 347              	.LFB12:
 257:C:/Users/stapi/OneDrive/Desktop/GD32VW553/GD32VW55X_Wifi_BLE_SDK/GD32VW55x_RELEASE_V1.0.2/MSDK/lwip/lwip-2.1.2/src/api\netifapi.c **** 
 258:C:/Users/stapi/OneDrive/Desktop/GD32VW553/GD32VW55X_Wifi_BLE_SDK/GD32VW55x_RELEASE_V1.0.2/MSDK/lwip/lwip-2.1.2/src/api\netifapi.c **** #if LWIP_IPV4
 259:C:/Users/stapi/OneDrive/Desktop/GD32VW553/GD32VW55X_Wifi_BLE_SDK/GD32VW55x_RELEASE_V1.0.2/MSDK/lwip/lwip-2.1.2/src/api\netifapi.c **** /**
 260:C:/Users/stapi/OneDrive/Desktop/GD32VW553/GD32VW55X_Wifi_BLE_SDK/GD32VW55x_RELEASE_V1.0.2/MSDK/lwip/lwip-2.1.2/src/api\netifapi.c ****  * @ingroup netifapi_netif
 261:C:/Users/stapi/OneDrive/Desktop/GD32VW553/GD32VW55X_Wifi_BLE_SDK/GD32VW55x_RELEASE_V1.0.2/MSDK/lwip/lwip-2.1.2/src/api\netifapi.c ****  * Call netif_set_addr() in a thread-safe way by running that function inside the
 262:C:/Users/stapi/OneDrive/Desktop/GD32VW553/GD32VW55X_Wifi_BLE_SDK/GD32VW55x_RELEASE_V1.0.2/MSDK/lwip/lwip-2.1.2/src/api\netifapi.c ****  * tcpip_thread context.
 263:C:/Users/stapi/OneDrive/Desktop/GD32VW553/GD32VW55X_Wifi_BLE_SDK/GD32VW55x_RELEASE_V1.0.2/MSDK/lwip/lwip-2.1.2/src/api\netifapi.c ****  *
 264:C:/Users/stapi/OneDrive/Desktop/GD32VW553/GD32VW55X_Wifi_BLE_SDK/GD32VW55x_RELEASE_V1.0.2/MSDK/lwip/lwip-2.1.2/src/api\netifapi.c ****  * @note for params @see netif_set_addr()
 265:C:/Users/stapi/OneDrive/Desktop/GD32VW553/GD32VW55X_Wifi_BLE_SDK/GD32VW55x_RELEASE_V1.0.2/MSDK/lwip/lwip-2.1.2/src/api\netifapi.c ****  */
 266:C:/Users/stapi/OneDrive/Desktop/GD32VW553/GD32VW55X_Wifi_BLE_SDK/GD32VW55x_RELEASE_V1.0.2/MSDK/lwip/lwip-2.1.2/src/api\netifapi.c **** err_t
 267:C:/Users/stapi/OneDrive/Desktop/GD32VW553/GD32VW55X_Wifi_BLE_SDK/GD32VW55x_RELEASE_V1.0.2/MSDK/lwip/lwip-2.1.2/src/api\netifapi.c **** netifapi_netif_set_addr(struct netif *netif,
 268:C:/Users/stapi/OneDrive/Desktop/GD32VW553/GD32VW55X_Wifi_BLE_SDK/GD32VW55x_RELEASE_V1.0.2/MSDK/lwip/lwip-2.1.2/src/api\netifapi.c ****                         const ip4_addr_t *ipaddr,
 269:C:/Users/stapi/OneDrive/Desktop/GD32VW553/GD32VW55X_Wifi_BLE_SDK/GD32VW55x_RELEASE_V1.0.2/MSDK/lwip/lwip-2.1.2/src/api\netifapi.c ****                         const ip4_addr_t *netmask,
 270:C:/Users/stapi/OneDrive/Desktop/GD32VW553/GD32VW55X_Wifi_BLE_SDK/GD32VW55x_RELEASE_V1.0.2/MSDK/lwip/lwip-2.1.2/src/api\netifapi.c ****                         const ip4_addr_t *gw)
 271:C:/Users/stapi/OneDrive/Desktop/GD32VW553/GD32VW55X_Wifi_BLE_SDK/GD32VW55x_RELEASE_V1.0.2/MSDK/lwip/lwip-2.1.2/src/api\netifapi.c **** {
 348              		.loc 1 271 1 is_stmt 1
 349              		.cfi_startproc
 350              	.LVL37:
 351 0000 17030000 		call	t0,__riscv_save_0
 351      E7020300 
 352              		.cfi_offset 1, -4
 353              		.cfi_def_cfa_offset 16
 272:C:/Users/stapi/OneDrive/Desktop/GD32VW553/GD32VW55X_Wifi_BLE_SDK/GD32VW55x_RELEASE_V1.0.2/MSDK/lwip/lwip-2.1.2/src/api\netifapi.c ****   err_t err;
 354              		.loc 1 272 3
 273:C:/Users/stapi/OneDrive/Desktop/GD32VW553/GD32VW55X_Wifi_BLE_SDK/GD32VW55x_RELEASE_V1.0.2/MSDK/lwip/lwip-2.1.2/src/api\netifapi.c ****   NETIFAPI_VAR_DECLARE(msg);
 355              		.loc 1 273 3
 274:C:/Users/stapi/OneDrive/Desktop/GD32VW553/GD32VW55X_Wifi_BLE_SDK/GD32VW55x_RELEASE_V1.0.2/MSDK/lwip/lwip-2.1.2/src/api\netifapi.c ****   NETIFAPI_VAR_ALLOC(msg);
 356              		.loc 1 274 26
 275:C:/Users/stapi/OneDrive/Desktop/GD32VW553/GD32VW55X_Wifi_BLE_SDK/GD32VW55x_RELEASE_V1.0.2/MSDK/lwip/lwip-2.1.2/src/api\netifapi.c **** 
 276:C:/Users/stapi/OneDrive/Desktop/GD32VW553/GD32VW55X_Wifi_BLE_SDK/GD32VW55x_RELEASE_V1.0.2/MSDK/lwip/lwip-2.1.2/src/api\netifapi.c ****   if (ipaddr == NULL) {
 357              		.loc 1 276 3
 271:C:/Users/stapi/OneDrive/Desktop/GD32VW553/GD32VW55X_Wifi_BLE_SDK/GD32VW55x_RELEASE_V1.0.2/MSDK/lwip/lwip-2.1.2/src/api\netifapi.c ****   err_t err;
 358              		.loc 1 271 1 is_stmt 0
 359 0008 0111     		addi	sp,sp,-32
 360              		.cfi_def_cfa_offset 48
 361              		.loc 1 276 6
 362 000a 89E5     		bne	a1,zero,.L24
 277:C:/Users/stapi/OneDrive/Desktop/GD32VW553/GD32VW55X_Wifi_BLE_SDK/GD32VW55x_RELEASE_V1.0.2/MSDK/lwip/lwip-2.1.2/src/api\netifapi.c ****     ipaddr = IP4_ADDR_ANY4;
 363              		.loc 1 277 12
 364 000c B7050000 		lui	a1,%hi(ip_addr_any)
 365              	.LVL38:
 366 0010 93850500 		addi	a1,a1,%lo(ip_addr_any)
 367              	.L24:
 368              	.LVL39:
 278:C:/Users/stapi/OneDrive/Desktop/GD32VW553/GD32VW55X_Wifi_BLE_SDK/GD32VW55x_RELEASE_V1.0.2/MSDK/lwip/lwip-2.1.2/src/api\netifapi.c ****   }
 279:C:/Users/stapi/OneDrive/Desktop/GD32VW553/GD32VW55X_Wifi_BLE_SDK/GD32VW55x_RELEASE_V1.0.2/MSDK/lwip/lwip-2.1.2/src/api\netifapi.c ****   if (netmask == NULL) {
 369              		.loc 1 279 3 is_stmt 1
 370              		.loc 1 279 6 is_stmt 0
 371 0014 09E6     		bne	a2,zero,.L25
 280:C:/Users/stapi/OneDrive/Desktop/GD32VW553/GD32VW55X_Wifi_BLE_SDK/GD32VW55x_RELEASE_V1.0.2/MSDK/lwip/lwip-2.1.2/src/api\netifapi.c ****     netmask = IP4_ADDR_ANY4;
 372              		.loc 1 280 13
 373 0016 37060000 		lui	a2,%hi(ip_addr_any)
 374              	.LVL40:
 375 001a 13060600 		addi	a2,a2,%lo(ip_addr_any)
 376              	.L25:
 377              	.LVL41:
 281:C:/Users/stapi/OneDrive/Desktop/GD32VW553/GD32VW55X_Wifi_BLE_SDK/GD32VW55x_RELEASE_V1.0.2/MSDK/lwip/lwip-2.1.2/src/api\netifapi.c ****   }
 282:C:/Users/stapi/OneDrive/Desktop/GD32VW553/GD32VW55X_Wifi_BLE_SDK/GD32VW55x_RELEASE_V1.0.2/MSDK/lwip/lwip-2.1.2/src/api\netifapi.c ****   if (gw == NULL) {
 378              		.loc 1 282 3 is_stmt 1
 379              		.loc 1 282 6 is_stmt 0
 380 001e 89E6     		bne	a3,zero,.L26
 283:C:/Users/stapi/OneDrive/Desktop/GD32VW553/GD32VW55X_Wifi_BLE_SDK/GD32VW55x_RELEASE_V1.0.2/MSDK/lwip/lwip-2.1.2/src/api\netifapi.c ****     gw = IP4_ADDR_ANY4;
 381              		.loc 1 283 8
 382 0020 B7060000 		lui	a3,%hi(ip_addr_any)
 383              	.LVL42:
 384 0024 93860600 		addi	a3,a3,%lo(ip_addr_any)
 385              	.L26:
 386              	.LVL43:
 284:C:/Users/stapi/OneDrive/Desktop/GD32VW553/GD32VW55X_Wifi_BLE_SDK/GD32VW55x_RELEASE_V1.0.2/MSDK/lwip/lwip-2.1.2/src/api\netifapi.c ****   }
 285:C:/Users/stapi/OneDrive/Desktop/GD32VW553/GD32VW55X_Wifi_BLE_SDK/GD32VW55x_RELEASE_V1.0.2/MSDK/lwip/lwip-2.1.2/src/api\netifapi.c **** 
 286:C:/Users/stapi/OneDrive/Desktop/GD32VW553/GD32VW55X_Wifi_BLE_SDK/GD32VW55x_RELEASE_V1.0.2/MSDK/lwip/lwip-2.1.2/src/api\netifapi.c ****   NETIFAPI_VAR_REF(msg).netif = netif;
 387              		.loc 1 286 3 is_stmt 1
 388              		.loc 1 286 31 is_stmt 0
 389 0028 2AC2     		sw	a0,4(sp)
 287:C:/Users/stapi/OneDrive/Desktop/GD32VW553/GD32VW55X_Wifi_BLE_SDK/GD32VW55x_RELEASE_V1.0.2/MSDK/lwip/lwip-2.1.2/src/api\netifapi.c ****   NETIFAPI_VAR_REF(msg).msg.add.ipaddr  = NETIFAPI_VAR_REF(ipaddr);
 390              		.loc 1 287 3 is_stmt 1
 288:C:/Users/stapi/OneDrive/Desktop/GD32VW553/GD32VW55X_Wifi_BLE_SDK/GD32VW55x_RELEASE_V1.0.2/MSDK/lwip/lwip-2.1.2/src/api\netifapi.c ****   NETIFAPI_VAR_REF(msg).msg.add.netmask = NETIFAPI_VAR_REF(netmask);
 289:C:/Users/stapi/OneDrive/Desktop/GD32VW553/GD32VW55X_Wifi_BLE_SDK/GD32VW55x_RELEASE_V1.0.2/MSDK/lwip/lwip-2.1.2/src/api\netifapi.c ****   NETIFAPI_VAR_REF(msg).msg.add.gw      = NETIFAPI_VAR_REF(gw);
 290:C:/Users/stapi/OneDrive/Desktop/GD32VW553/GD32VW55X_Wifi_BLE_SDK/GD32VW55x_RELEASE_V1.0.2/MSDK/lwip/lwip-2.1.2/src/api\netifapi.c ****   err = tcpip_api_call(netifapi_do_netif_set_addr, &API_VAR_REF(msg).call);
 391              		.loc 1 290 9 is_stmt 0
 392 002a 37050000 		lui	a0,%hi(netifapi_do_netif_set_addr)
 393              	.LVL44:
 287:C:/Users/stapi/OneDrive/Desktop/GD32VW553/GD32VW55X_Wifi_BLE_SDK/GD32VW55x_RELEASE_V1.0.2/MSDK/lwip/lwip-2.1.2/src/api\netifapi.c ****   NETIFAPI_VAR_REF(msg).msg.add.ipaddr  = NETIFAPI_VAR_REF(ipaddr);
 394              		.loc 1 287 41
 395 002e 2EC4     		sw	a1,8(sp)
 288:C:/Users/stapi/OneDrive/Desktop/GD32VW553/GD32VW55X_Wifi_BLE_SDK/GD32VW55x_RELEASE_V1.0.2/MSDK/lwip/lwip-2.1.2/src/api\netifapi.c ****   NETIFAPI_VAR_REF(msg).msg.add.netmask = NETIFAPI_VAR_REF(netmask);
 396              		.loc 1 288 3 is_stmt 1
 397              		.loc 1 290 9 is_stmt 0
 398 0030 13050500 		addi	a0,a0,%lo(netifapi_do_netif_set_addr)
 399 0034 8A85     		mv	a1,sp
 400              	.LVL45:
 288:C:/Users/stapi/OneDrive/Desktop/GD32VW553/GD32VW55X_Wifi_BLE_SDK/GD32VW55x_RELEASE_V1.0.2/MSDK/lwip/lwip-2.1.2/src/api\netifapi.c ****   NETIFAPI_VAR_REF(msg).msg.add.netmask = NETIFAPI_VAR_REF(netmask);
 401              		.loc 1 288 41
 402 0036 32C6     		sw	a2,12(sp)
 289:C:/Users/stapi/OneDrive/Desktop/GD32VW553/GD32VW55X_Wifi_BLE_SDK/GD32VW55x_RELEASE_V1.0.2/MSDK/lwip/lwip-2.1.2/src/api\netifapi.c ****   err = tcpip_api_call(netifapi_do_netif_set_addr, &API_VAR_REF(msg).call);
 403              		.loc 1 289 3 is_stmt 1
 289:C:/Users/stapi/OneDrive/Desktop/GD32VW553/GD32VW55X_Wifi_BLE_SDK/GD32VW55x_RELEASE_V1.0.2/MSDK/lwip/lwip-2.1.2/src/api\netifapi.c ****   err = tcpip_api_call(netifapi_do_netif_set_addr, &API_VAR_REF(msg).call);
 404              		.loc 1 289 41 is_stmt 0
 405 0038 36C8     		sw	a3,16(sp)
 406              		.loc 1 290 3 is_stmt 1
 407              		.loc 1 290 9 is_stmt 0
 408 003a 97000000 		call	tcpip_api_call
 408      E7800000 
 409              	.LVL46:
 291:C:/Users/stapi/OneDrive/Desktop/GD32VW553/GD32VW55X_Wifi_BLE_SDK/GD32VW55x_RELEASE_V1.0.2/MSDK/lwip/lwip-2.1.2/src/api\netifapi.c ****   NETIFAPI_VAR_FREE(msg);
 410              		.loc 1 291 25 is_stmt 1
 292:C:/Users/stapi/OneDrive/Desktop/GD32VW553/GD32VW55X_Wifi_BLE_SDK/GD32VW55x_RELEASE_V1.0.2/MSDK/lwip/lwip-2.1.2/src/api\netifapi.c ****   return err;
 411              		.loc 1 292 3
 293:C:/Users/stapi/OneDrive/Desktop/GD32VW553/GD32VW55X_Wifi_BLE_SDK/GD32VW55x_RELEASE_V1.0.2/MSDK/lwip/lwip-2.1.2/src/api\netifapi.c **** }
 412              		.loc 1 293 1 is_stmt 0
 413 0042 0561     		addi	sp,sp,32
 414              		.cfi_def_cfa_offset 0
 415 0044 17030000 		tail	__riscv_restore_0
 415      67000300 
 416              		.cfi_restore 1
 417              		.cfi_def_cfa_offset -16
 418              		.cfi_endproc
 419              	.LFE12:
 421              		.section	.text.netifapi_netif_common,"ax",@progbits
 422              		.align	1
 423              		.globl	netifapi_netif_common
 425              	netifapi_netif_common:
 426              	.LFB13:
 294:C:/Users/stapi/OneDrive/Desktop/GD32VW553/GD32VW55X_Wifi_BLE_SDK/GD32VW55x_RELEASE_V1.0.2/MSDK/lwip/lwip-2.1.2/src/api\netifapi.c **** #endif /* LWIP_IPV4 */
 295:C:/Users/stapi/OneDrive/Desktop/GD32VW553/GD32VW55X_Wifi_BLE_SDK/GD32VW55x_RELEASE_V1.0.2/MSDK/lwip/lwip-2.1.2/src/api\netifapi.c **** 
 296:C:/Users/stapi/OneDrive/Desktop/GD32VW553/GD32VW55X_Wifi_BLE_SDK/GD32VW55x_RELEASE_V1.0.2/MSDK/lwip/lwip-2.1.2/src/api\netifapi.c **** /**
 297:C:/Users/stapi/OneDrive/Desktop/GD32VW553/GD32VW55X_Wifi_BLE_SDK/GD32VW55x_RELEASE_V1.0.2/MSDK/lwip/lwip-2.1.2/src/api\netifapi.c ****  * call the "errtfunc" (or the "voidfunc" if "errtfunc" is NULL) in a thread-safe
 298:C:/Users/stapi/OneDrive/Desktop/GD32VW553/GD32VW55X_Wifi_BLE_SDK/GD32VW55x_RELEASE_V1.0.2/MSDK/lwip/lwip-2.1.2/src/api\netifapi.c ****  * way by running that function inside the tcpip_thread context.
 299:C:/Users/stapi/OneDrive/Desktop/GD32VW553/GD32VW55X_Wifi_BLE_SDK/GD32VW55x_RELEASE_V1.0.2/MSDK/lwip/lwip-2.1.2/src/api\netifapi.c ****  *
 300:C:/Users/stapi/OneDrive/Desktop/GD32VW553/GD32VW55X_Wifi_BLE_SDK/GD32VW55x_RELEASE_V1.0.2/MSDK/lwip/lwip-2.1.2/src/api\netifapi.c ****  * @note use only for functions where there is only "netif" parameter.
 301:C:/Users/stapi/OneDrive/Desktop/GD32VW553/GD32VW55X_Wifi_BLE_SDK/GD32VW55x_RELEASE_V1.0.2/MSDK/lwip/lwip-2.1.2/src/api\netifapi.c ****  */
 302:C:/Users/stapi/OneDrive/Desktop/GD32VW553/GD32VW55X_Wifi_BLE_SDK/GD32VW55x_RELEASE_V1.0.2/MSDK/lwip/lwip-2.1.2/src/api\netifapi.c **** err_t
 303:C:/Users/stapi/OneDrive/Desktop/GD32VW553/GD32VW55X_Wifi_BLE_SDK/GD32VW55x_RELEASE_V1.0.2/MSDK/lwip/lwip-2.1.2/src/api\netifapi.c **** netifapi_netif_common(struct netif *netif, netifapi_void_fn voidfunc,
 304:C:/Users/stapi/OneDrive/Desktop/GD32VW553/GD32VW55X_Wifi_BLE_SDK/GD32VW55x_RELEASE_V1.0.2/MSDK/lwip/lwip-2.1.2/src/api\netifapi.c ****                       netifapi_errt_fn errtfunc)
 305:C:/Users/stapi/OneDrive/Desktop/GD32VW553/GD32VW55X_Wifi_BLE_SDK/GD32VW55x_RELEASE_V1.0.2/MSDK/lwip/lwip-2.1.2/src/api\netifapi.c **** {
 427              		.loc 1 305 1 is_stmt 1
 428              		.cfi_startproc
 429              	.LVL47:
 430 0000 17030000 		call	t0,__riscv_save_0
 430      E7020300 
 431              		.cfi_offset 1, -4
 432              		.cfi_def_cfa_offset 16
 306:C:/Users/stapi/OneDrive/Desktop/GD32VW553/GD32VW55X_Wifi_BLE_SDK/GD32VW55x_RELEASE_V1.0.2/MSDK/lwip/lwip-2.1.2/src/api\netifapi.c ****   err_t err;
 433              		.loc 1 306 3
 307:C:/Users/stapi/OneDrive/Desktop/GD32VW553/GD32VW55X_Wifi_BLE_SDK/GD32VW55x_RELEASE_V1.0.2/MSDK/lwip/lwip-2.1.2/src/api\netifapi.c ****   NETIFAPI_VAR_DECLARE(msg);
 434              		.loc 1 307 3
 308:C:/Users/stapi/OneDrive/Desktop/GD32VW553/GD32VW55X_Wifi_BLE_SDK/GD32VW55x_RELEASE_V1.0.2/MSDK/lwip/lwip-2.1.2/src/api\netifapi.c ****   NETIFAPI_VAR_ALLOC(msg);
 435              		.loc 1 308 26
 309:C:/Users/stapi/OneDrive/Desktop/GD32VW553/GD32VW55X_Wifi_BLE_SDK/GD32VW55x_RELEASE_V1.0.2/MSDK/lwip/lwip-2.1.2/src/api\netifapi.c **** 
 310:C:/Users/stapi/OneDrive/Desktop/GD32VW553/GD32VW55X_Wifi_BLE_SDK/GD32VW55x_RELEASE_V1.0.2/MSDK/lwip/lwip-2.1.2/src/api\netifapi.c ****   NETIFAPI_VAR_REF(msg).netif = netif;
 436              		.loc 1 310 3
 305:C:/Users/stapi/OneDrive/Desktop/GD32VW553/GD32VW55X_Wifi_BLE_SDK/GD32VW55x_RELEASE_V1.0.2/MSDK/lwip/lwip-2.1.2/src/api\netifapi.c ****   err_t err;
 437              		.loc 1 305 1 is_stmt 0
 438 0008 0111     		addi	sp,sp,-32
 439              		.cfi_def_cfa_offset 48
 440              		.loc 1 310 31
 441 000a 2AC2     		sw	a0,4(sp)
 311:C:/Users/stapi/OneDrive/Desktop/GD32VW553/GD32VW55X_Wifi_BLE_SDK/GD32VW55x_RELEASE_V1.0.2/MSDK/lwip/lwip-2.1.2/src/api\netifapi.c ****   NETIFAPI_VAR_REF(msg).msg.common.voidfunc = voidfunc;
 442              		.loc 1 311 3 is_stmt 1
 312:C:/Users/stapi/OneDrive/Desktop/GD32VW553/GD32VW55X_Wifi_BLE_SDK/GD32VW55x_RELEASE_V1.0.2/MSDK/lwip/lwip-2.1.2/src/api\netifapi.c ****   NETIFAPI_VAR_REF(msg).msg.common.errtfunc = errtfunc;
 313:C:/Users/stapi/OneDrive/Desktop/GD32VW553/GD32VW55X_Wifi_BLE_SDK/GD32VW55x_RELEASE_V1.0.2/MSDK/lwip/lwip-2.1.2/src/api\netifapi.c ****   err = tcpip_api_call(netifapi_do_netif_common, &API_VAR_REF(msg).call);
 443              		.loc 1 313 9 is_stmt 0
 444 000c 37050000 		lui	a0,%hi(netifapi_do_netif_common)
 445              	.LVL48:
 311:C:/Users/stapi/OneDrive/Desktop/GD32VW553/GD32VW55X_Wifi_BLE_SDK/GD32VW55x_RELEASE_V1.0.2/MSDK/lwip/lwip-2.1.2/src/api\netifapi.c ****   NETIFAPI_VAR_REF(msg).msg.common.voidfunc = voidfunc;
 446              		.loc 1 311 45
 447 0010 2EC4     		sw	a1,8(sp)
 312:C:/Users/stapi/OneDrive/Desktop/GD32VW553/GD32VW55X_Wifi_BLE_SDK/GD32VW55x_RELEASE_V1.0.2/MSDK/lwip/lwip-2.1.2/src/api\netifapi.c ****   NETIFAPI_VAR_REF(msg).msg.common.errtfunc = errtfunc;
 448              		.loc 1 312 3 is_stmt 1
 449              		.loc 1 313 9 is_stmt 0
 450 0012 13050500 		addi	a0,a0,%lo(netifapi_do_netif_common)
 451 0016 8A85     		mv	a1,sp
 452              	.LVL49:
 312:C:/Users/stapi/OneDrive/Desktop/GD32VW553/GD32VW55X_Wifi_BLE_SDK/GD32VW55x_RELEASE_V1.0.2/MSDK/lwip/lwip-2.1.2/src/api\netifapi.c ****   NETIFAPI_VAR_REF(msg).msg.common.errtfunc = errtfunc;
 453              		.loc 1 312 45
 454 0018 32C6     		sw	a2,12(sp)
 455              		.loc 1 313 3 is_stmt 1
 456              		.loc 1 313 9 is_stmt 0
 457 001a 97000000 		call	tcpip_api_call
 457      E7800000 
 458              	.LVL50:
 314:C:/Users/stapi/OneDrive/Desktop/GD32VW553/GD32VW55X_Wifi_BLE_SDK/GD32VW55x_RELEASE_V1.0.2/MSDK/lwip/lwip-2.1.2/src/api\netifapi.c ****   NETIFAPI_VAR_FREE(msg);
 459              		.loc 1 314 25 is_stmt 1
 315:C:/Users/stapi/OneDrive/Desktop/GD32VW553/GD32VW55X_Wifi_BLE_SDK/GD32VW55x_RELEASE_V1.0.2/MSDK/lwip/lwip-2.1.2/src/api\netifapi.c ****   return err;
 460              		.loc 1 315 3
 316:C:/Users/stapi/OneDrive/Desktop/GD32VW553/GD32VW55X_Wifi_BLE_SDK/GD32VW55x_RELEASE_V1.0.2/MSDK/lwip/lwip-2.1.2/src/api\netifapi.c **** }
 461              		.loc 1 316 1 is_stmt 0
 462 0022 0561     		addi	sp,sp,32
 463              		.cfi_def_cfa_offset 0
 464 0024 17030000 		tail	__riscv_restore_0
 464      67000300 
 465              		.cfi_restore 1
 466              		.cfi_def_cfa_offset -16
 467              		.cfi_endproc
 468              	.LFE13:
 470              		.section	.text.netifapi_netif_name_to_index,"ax",@progbits
 471              		.align	1
 472              		.globl	netifapi_netif_name_to_index
 474              	netifapi_netif_name_to_index:
 475              	.LFB14:
 317:C:/Users/stapi/OneDrive/Desktop/GD32VW553/GD32VW55X_Wifi_BLE_SDK/GD32VW55x_RELEASE_V1.0.2/MSDK/lwip/lwip-2.1.2/src/api\netifapi.c **** 
 318:C:/Users/stapi/OneDrive/Desktop/GD32VW553/GD32VW55X_Wifi_BLE_SDK/GD32VW55x_RELEASE_V1.0.2/MSDK/lwip/lwip-2.1.2/src/api\netifapi.c **** /**
 319:C:/Users/stapi/OneDrive/Desktop/GD32VW553/GD32VW55X_Wifi_BLE_SDK/GD32VW55x_RELEASE_V1.0.2/MSDK/lwip/lwip-2.1.2/src/api\netifapi.c **** * @ingroup netifapi_netif
 320:C:/Users/stapi/OneDrive/Desktop/GD32VW553/GD32VW55X_Wifi_BLE_SDK/GD32VW55x_RELEASE_V1.0.2/MSDK/lwip/lwip-2.1.2/src/api\netifapi.c **** * Call netif_name_to_index() in a thread-safe way by running that function inside the
 321:C:/Users/stapi/OneDrive/Desktop/GD32VW553/GD32VW55X_Wifi_BLE_SDK/GD32VW55x_RELEASE_V1.0.2/MSDK/lwip/lwip-2.1.2/src/api\netifapi.c **** * tcpip_thread context.
 322:C:/Users/stapi/OneDrive/Desktop/GD32VW553/GD32VW55X_Wifi_BLE_SDK/GD32VW55x_RELEASE_V1.0.2/MSDK/lwip/lwip-2.1.2/src/api\netifapi.c **** *
 323:C:/Users/stapi/OneDrive/Desktop/GD32VW553/GD32VW55X_Wifi_BLE_SDK/GD32VW55x_RELEASE_V1.0.2/MSDK/lwip/lwip-2.1.2/src/api\netifapi.c **** * @param name the interface name of the netif
 324:C:/Users/stapi/OneDrive/Desktop/GD32VW553/GD32VW55X_Wifi_BLE_SDK/GD32VW55x_RELEASE_V1.0.2/MSDK/lwip/lwip-2.1.2/src/api\netifapi.c **** * @param idx output index of the found netif
 325:C:/Users/stapi/OneDrive/Desktop/GD32VW553/GD32VW55X_Wifi_BLE_SDK/GD32VW55x_RELEASE_V1.0.2/MSDK/lwip/lwip-2.1.2/src/api\netifapi.c **** */
 326:C:/Users/stapi/OneDrive/Desktop/GD32VW553/GD32VW55X_Wifi_BLE_SDK/GD32VW55x_RELEASE_V1.0.2/MSDK/lwip/lwip-2.1.2/src/api\netifapi.c **** err_t
 327:C:/Users/stapi/OneDrive/Desktop/GD32VW553/GD32VW55X_Wifi_BLE_SDK/GD32VW55x_RELEASE_V1.0.2/MSDK/lwip/lwip-2.1.2/src/api\netifapi.c **** netifapi_netif_name_to_index(const char *name, u8_t *idx)
 328:C:/Users/stapi/OneDrive/Desktop/GD32VW553/GD32VW55X_Wifi_BLE_SDK/GD32VW55x_RELEASE_V1.0.2/MSDK/lwip/lwip-2.1.2/src/api\netifapi.c **** {
 476              		.loc 1 328 1 is_stmt 1
 477              		.cfi_startproc
 478              	.LVL51:
 479 0000 17030000 		call	t0,__riscv_save_1
 479      E7020300 
 480              		.cfi_offset 8, -8
 481              		.cfi_offset 1, -4
 482              		.cfi_def_cfa_offset 16
 329:C:/Users/stapi/OneDrive/Desktop/GD32VW553/GD32VW55X_Wifi_BLE_SDK/GD32VW55x_RELEASE_V1.0.2/MSDK/lwip/lwip-2.1.2/src/api\netifapi.c ****   err_t err;
 483              		.loc 1 329 3
 330:C:/Users/stapi/OneDrive/Desktop/GD32VW553/GD32VW55X_Wifi_BLE_SDK/GD32VW55x_RELEASE_V1.0.2/MSDK/lwip/lwip-2.1.2/src/api\netifapi.c ****   NETIFAPI_VAR_DECLARE(msg);
 484              		.loc 1 330 3
 331:C:/Users/stapi/OneDrive/Desktop/GD32VW553/GD32VW55X_Wifi_BLE_SDK/GD32VW55x_RELEASE_V1.0.2/MSDK/lwip/lwip-2.1.2/src/api\netifapi.c ****   NETIFAPI_VAR_ALLOC(msg);
 485              		.loc 1 331 26
 332:C:/Users/stapi/OneDrive/Desktop/GD32VW553/GD32VW55X_Wifi_BLE_SDK/GD32VW55x_RELEASE_V1.0.2/MSDK/lwip/lwip-2.1.2/src/api\netifapi.c **** 
 333:C:/Users/stapi/OneDrive/Desktop/GD32VW553/GD32VW55X_Wifi_BLE_SDK/GD32VW55x_RELEASE_V1.0.2/MSDK/lwip/lwip-2.1.2/src/api\netifapi.c ****   *idx = 0;
 486              		.loc 1 333 3
 328:C:/Users/stapi/OneDrive/Desktop/GD32VW553/GD32VW55X_Wifi_BLE_SDK/GD32VW55x_RELEASE_V1.0.2/MSDK/lwip/lwip-2.1.2/src/api\netifapi.c ****   err_t err;
 487              		.loc 1 328 1 is_stmt 0
 488 0008 0111     		addi	sp,sp,-32
 489              		.cfi_def_cfa_offset 48
 334:C:/Users/stapi/OneDrive/Desktop/GD32VW553/GD32VW55X_Wifi_BLE_SDK/GD32VW55x_RELEASE_V1.0.2/MSDK/lwip/lwip-2.1.2/src/api\netifapi.c **** 
 335:C:/Users/stapi/OneDrive/Desktop/GD32VW553/GD32VW55X_Wifi_BLE_SDK/GD32VW55x_RELEASE_V1.0.2/MSDK/lwip/lwip-2.1.2/src/api\netifapi.c **** #if LWIP_MPU_COMPATIBLE
 336:C:/Users/stapi/OneDrive/Desktop/GD32VW553/GD32VW55X_Wifi_BLE_SDK/GD32VW55x_RELEASE_V1.0.2/MSDK/lwip/lwip-2.1.2/src/api\netifapi.c ****   strncpy(NETIFAPI_VAR_REF(msg).msg.ifs.name, name, NETIF_NAMESIZE - 1);
 337:C:/Users/stapi/OneDrive/Desktop/GD32VW553/GD32VW55X_Wifi_BLE_SDK/GD32VW55x_RELEASE_V1.0.2/MSDK/lwip/lwip-2.1.2/src/api\netifapi.c ****   NETIFAPI_VAR_REF(msg).msg.ifs.name[NETIF_NAMESIZE - 1] = '\0';
 338:C:/Users/stapi/OneDrive/Desktop/GD32VW553/GD32VW55X_Wifi_BLE_SDK/GD32VW55x_RELEASE_V1.0.2/MSDK/lwip/lwip-2.1.2/src/api\netifapi.c **** #else
 339:C:/Users/stapi/OneDrive/Desktop/GD32VW553/GD32VW55X_Wifi_BLE_SDK/GD32VW55x_RELEASE_V1.0.2/MSDK/lwip/lwip-2.1.2/src/api\netifapi.c ****   NETIFAPI_VAR_REF(msg).msg.ifs.name = LWIP_CONST_CAST(char *, name);
 490              		.loc 1 339 38
 491 000a 2AC4     		sw	a0,8(sp)
 340:C:/Users/stapi/OneDrive/Desktop/GD32VW553/GD32VW55X_Wifi_BLE_SDK/GD32VW55x_RELEASE_V1.0.2/MSDK/lwip/lwip-2.1.2/src/api\netifapi.c **** #endif /* LWIP_MPU_COMPATIBLE */
 341:C:/Users/stapi/OneDrive/Desktop/GD32VW553/GD32VW55X_Wifi_BLE_SDK/GD32VW55x_RELEASE_V1.0.2/MSDK/lwip/lwip-2.1.2/src/api\netifapi.c ****   err = tcpip_api_call(netifapi_do_name_to_index, &API_VAR_REF(msg).call);
 492              		.loc 1 341 9
 493 000c 37050000 		lui	a0,%hi(netifapi_do_name_to_index)
 494              	.LVL52:
 328:C:/Users/stapi/OneDrive/Desktop/GD32VW553/GD32VW55X_Wifi_BLE_SDK/GD32VW55x_RELEASE_V1.0.2/MSDK/lwip/lwip-2.1.2/src/api\netifapi.c ****   err_t err;
 495              		.loc 1 328 1
 496 0010 2E84     		mv	s0,a1
 333:C:/Users/stapi/OneDrive/Desktop/GD32VW553/GD32VW55X_Wifi_BLE_SDK/GD32VW55x_RELEASE_V1.0.2/MSDK/lwip/lwip-2.1.2/src/api\netifapi.c **** 
 497              		.loc 1 333 8
 498 0012 23800500 		sb	zero,0(a1)
 339:C:/Users/stapi/OneDrive/Desktop/GD32VW553/GD32VW55X_Wifi_BLE_SDK/GD32VW55x_RELEASE_V1.0.2/MSDK/lwip/lwip-2.1.2/src/api\netifapi.c **** #endif /* LWIP_MPU_COMPATIBLE */
 499              		.loc 1 339 3 is_stmt 1
 500              		.loc 1 341 3
 501              		.loc 1 341 9 is_stmt 0
 502 0016 13050500 		addi	a0,a0,%lo(netifapi_do_name_to_index)
 503 001a 8A85     		mv	a1,sp
 504              	.LVL53:
 505 001c 97000000 		call	tcpip_api_call
 505      E7800000 
 506              	.LVL54:
 342:C:/Users/stapi/OneDrive/Desktop/GD32VW553/GD32VW55X_Wifi_BLE_SDK/GD32VW55x_RELEASE_V1.0.2/MSDK/lwip/lwip-2.1.2/src/api\netifapi.c ****   if (!err) {
 507              		.loc 1 342 3 is_stmt 1
 508              		.loc 1 342 6 is_stmt 0
 509 0024 09E5     		bne	a0,zero,.L31
 343:C:/Users/stapi/OneDrive/Desktop/GD32VW553/GD32VW55X_Wifi_BLE_SDK/GD32VW55x_RELEASE_V1.0.2/MSDK/lwip/lwip-2.1.2/src/api\netifapi.c ****     *idx = NETIFAPI_VAR_REF(msg).msg.ifs.index;
 510              		.loc 1 343 5 is_stmt 1
 511              		.loc 1 343 10 is_stmt 0
 512 0026 8347C100 		lbu	a5,12(sp)
 513 002a 2300F400 		sb	a5,0(s0)
 514              	.L31:
 344:C:/Users/stapi/OneDrive/Desktop/GD32VW553/GD32VW55X_Wifi_BLE_SDK/GD32VW55x_RELEASE_V1.0.2/MSDK/lwip/lwip-2.1.2/src/api\netifapi.c ****   }
 345:C:/Users/stapi/OneDrive/Desktop/GD32VW553/GD32VW55X_Wifi_BLE_SDK/GD32VW55x_RELEASE_V1.0.2/MSDK/lwip/lwip-2.1.2/src/api\netifapi.c ****   NETIFAPI_VAR_FREE(msg);
 515              		.loc 1 345 25 is_stmt 1
 346:C:/Users/stapi/OneDrive/Desktop/GD32VW553/GD32VW55X_Wifi_BLE_SDK/GD32VW55x_RELEASE_V1.0.2/MSDK/lwip/lwip-2.1.2/src/api\netifapi.c ****   return err;
 516              		.loc 1 346 3
 347:C:/Users/stapi/OneDrive/Desktop/GD32VW553/GD32VW55X_Wifi_BLE_SDK/GD32VW55x_RELEASE_V1.0.2/MSDK/lwip/lwip-2.1.2/src/api\netifapi.c **** }
 517              		.loc 1 347 1 is_stmt 0
 518 002e 0561     		addi	sp,sp,32
 519              		.cfi_def_cfa_offset 0
 520 0030 17030000 		tail	__riscv_restore_1
 520      67000300 
 521              		.cfi_restore 8
 522              		.cfi_restore 1
 523              		.cfi_def_cfa_offset -16
 524              		.cfi_endproc
 525              	.LFE14:
 527              		.section	.text.netifapi_netif_index_to_name,"ax",@progbits
 528              		.align	1
 529              		.globl	netifapi_netif_index_to_name
 531              	netifapi_netif_index_to_name:
 532              	.LFB15:
 348:C:/Users/stapi/OneDrive/Desktop/GD32VW553/GD32VW55X_Wifi_BLE_SDK/GD32VW55x_RELEASE_V1.0.2/MSDK/lwip/lwip-2.1.2/src/api\netifapi.c **** 
 349:C:/Users/stapi/OneDrive/Desktop/GD32VW553/GD32VW55X_Wifi_BLE_SDK/GD32VW55x_RELEASE_V1.0.2/MSDK/lwip/lwip-2.1.2/src/api\netifapi.c **** /**
 350:C:/Users/stapi/OneDrive/Desktop/GD32VW553/GD32VW55X_Wifi_BLE_SDK/GD32VW55x_RELEASE_V1.0.2/MSDK/lwip/lwip-2.1.2/src/api\netifapi.c **** * @ingroup netifapi_netif
 351:C:/Users/stapi/OneDrive/Desktop/GD32VW553/GD32VW55X_Wifi_BLE_SDK/GD32VW55x_RELEASE_V1.0.2/MSDK/lwip/lwip-2.1.2/src/api\netifapi.c **** * Call netif_index_to_name() in a thread-safe way by running that function inside the
 352:C:/Users/stapi/OneDrive/Desktop/GD32VW553/GD32VW55X_Wifi_BLE_SDK/GD32VW55x_RELEASE_V1.0.2/MSDK/lwip/lwip-2.1.2/src/api\netifapi.c **** * tcpip_thread context.
 353:C:/Users/stapi/OneDrive/Desktop/GD32VW553/GD32VW55X_Wifi_BLE_SDK/GD32VW55x_RELEASE_V1.0.2/MSDK/lwip/lwip-2.1.2/src/api\netifapi.c **** *
 354:C:/Users/stapi/OneDrive/Desktop/GD32VW553/GD32VW55X_Wifi_BLE_SDK/GD32VW55x_RELEASE_V1.0.2/MSDK/lwip/lwip-2.1.2/src/api\netifapi.c **** * @param idx the interface index of the netif
 355:C:/Users/stapi/OneDrive/Desktop/GD32VW553/GD32VW55X_Wifi_BLE_SDK/GD32VW55x_RELEASE_V1.0.2/MSDK/lwip/lwip-2.1.2/src/api\netifapi.c **** * @param name output name of the found netif, empty '\0' string if netif not found.
 356:C:/Users/stapi/OneDrive/Desktop/GD32VW553/GD32VW55X_Wifi_BLE_SDK/GD32VW55x_RELEASE_V1.0.2/MSDK/lwip/lwip-2.1.2/src/api\netifapi.c **** *             name should be of at least NETIF_NAMESIZE bytes
 357:C:/Users/stapi/OneDrive/Desktop/GD32VW553/GD32VW55X_Wifi_BLE_SDK/GD32VW55x_RELEASE_V1.0.2/MSDK/lwip/lwip-2.1.2/src/api\netifapi.c **** */
 358:C:/Users/stapi/OneDrive/Desktop/GD32VW553/GD32VW55X_Wifi_BLE_SDK/GD32VW55x_RELEASE_V1.0.2/MSDK/lwip/lwip-2.1.2/src/api\netifapi.c **** err_t
 359:C:/Users/stapi/OneDrive/Desktop/GD32VW553/GD32VW55X_Wifi_BLE_SDK/GD32VW55x_RELEASE_V1.0.2/MSDK/lwip/lwip-2.1.2/src/api\netifapi.c **** netifapi_netif_index_to_name(u8_t idx, char *name)
 360:C:/Users/stapi/OneDrive/Desktop/GD32VW553/GD32VW55X_Wifi_BLE_SDK/GD32VW55x_RELEASE_V1.0.2/MSDK/lwip/lwip-2.1.2/src/api\netifapi.c **** {
 533              		.loc 1 360 1 is_stmt 1
 534              		.cfi_startproc
 535              	.LVL55:
 536 0000 17030000 		call	t0,__riscv_save_0
 536      E7020300 
 537              		.cfi_offset 1, -4
 538              		.cfi_def_cfa_offset 16
 361:C:/Users/stapi/OneDrive/Desktop/GD32VW553/GD32VW55X_Wifi_BLE_SDK/GD32VW55x_RELEASE_V1.0.2/MSDK/lwip/lwip-2.1.2/src/api\netifapi.c ****   err_t err;
 539              		.loc 1 361 3
 362:C:/Users/stapi/OneDrive/Desktop/GD32VW553/GD32VW55X_Wifi_BLE_SDK/GD32VW55x_RELEASE_V1.0.2/MSDK/lwip/lwip-2.1.2/src/api\netifapi.c ****   NETIFAPI_VAR_DECLARE(msg);
 540              		.loc 1 362 3
 363:C:/Users/stapi/OneDrive/Desktop/GD32VW553/GD32VW55X_Wifi_BLE_SDK/GD32VW55x_RELEASE_V1.0.2/MSDK/lwip/lwip-2.1.2/src/api\netifapi.c ****   NETIFAPI_VAR_ALLOC(msg);
 541              		.loc 1 363 26
 364:C:/Users/stapi/OneDrive/Desktop/GD32VW553/GD32VW55X_Wifi_BLE_SDK/GD32VW55x_RELEASE_V1.0.2/MSDK/lwip/lwip-2.1.2/src/api\netifapi.c **** 
 365:C:/Users/stapi/OneDrive/Desktop/GD32VW553/GD32VW55X_Wifi_BLE_SDK/GD32VW55x_RELEASE_V1.0.2/MSDK/lwip/lwip-2.1.2/src/api\netifapi.c ****   NETIFAPI_VAR_REF(msg).msg.ifs.index = idx;
 542              		.loc 1 365 3
 360:C:/Users/stapi/OneDrive/Desktop/GD32VW553/GD32VW55X_Wifi_BLE_SDK/GD32VW55x_RELEASE_V1.0.2/MSDK/lwip/lwip-2.1.2/src/api\netifapi.c ****   err_t err;
 543              		.loc 1 360 1 is_stmt 0
 544 0008 0111     		addi	sp,sp,-32
 545              		.cfi_def_cfa_offset 48
 546              		.loc 1 365 39
 547 000a 2306A100 		sb	a0,12(sp)
 366:C:/Users/stapi/OneDrive/Desktop/GD32VW553/GD32VW55X_Wifi_BLE_SDK/GD32VW55x_RELEASE_V1.0.2/MSDK/lwip/lwip-2.1.2/src/api\netifapi.c **** #if !LWIP_MPU_COMPATIBLE
 367:C:/Users/stapi/OneDrive/Desktop/GD32VW553/GD32VW55X_Wifi_BLE_SDK/GD32VW55x_RELEASE_V1.0.2/MSDK/lwip/lwip-2.1.2/src/api\netifapi.c ****   NETIFAPI_VAR_REF(msg).msg.ifs.name = name;
 548              		.loc 1 367 3 is_stmt 1
 368:C:/Users/stapi/OneDrive/Desktop/GD32VW553/GD32VW55X_Wifi_BLE_SDK/GD32VW55x_RELEASE_V1.0.2/MSDK/lwip/lwip-2.1.2/src/api\netifapi.c **** #endif /* LWIP_MPU_COMPATIBLE */
 369:C:/Users/stapi/OneDrive/Desktop/GD32VW553/GD32VW55X_Wifi_BLE_SDK/GD32VW55x_RELEASE_V1.0.2/MSDK/lwip/lwip-2.1.2/src/api\netifapi.c ****   err = tcpip_api_call(netifapi_do_index_to_name, &API_VAR_REF(msg).call);
 549              		.loc 1 369 9 is_stmt 0
 550 000e 37050000 		lui	a0,%hi(netifapi_do_index_to_name)
 551              	.LVL56:
 367:C:/Users/stapi/OneDrive/Desktop/GD32VW553/GD32VW55X_Wifi_BLE_SDK/GD32VW55x_RELEASE_V1.0.2/MSDK/lwip/lwip-2.1.2/src/api\netifapi.c **** #endif /* LWIP_MPU_COMPATIBLE */
 552              		.loc 1 367 38
 553 0012 2EC4     		sw	a1,8(sp)
 554              		.loc 1 369 3 is_stmt 1
 555              		.loc 1 369 9 is_stmt 0
 556 0014 13050500 		addi	a0,a0,%lo(netifapi_do_index_to_name)
 557 0018 8A85     		mv	a1,sp
 558              	.LVL57:
 559 001a 97000000 		call	tcpip_api_call
 559      E7800000 
 560              	.LVL58:
 370:C:/Users/stapi/OneDrive/Desktop/GD32VW553/GD32VW55X_Wifi_BLE_SDK/GD32VW55x_RELEASE_V1.0.2/MSDK/lwip/lwip-2.1.2/src/api\netifapi.c **** #if LWIP_MPU_COMPATIBLE
 371:C:/Users/stapi/OneDrive/Desktop/GD32VW553/GD32VW55X_Wifi_BLE_SDK/GD32VW55x_RELEASE_V1.0.2/MSDK/lwip/lwip-2.1.2/src/api\netifapi.c ****   if (!err) {
 372:C:/Users/stapi/OneDrive/Desktop/GD32VW553/GD32VW55X_Wifi_BLE_SDK/GD32VW55x_RELEASE_V1.0.2/MSDK/lwip/lwip-2.1.2/src/api\netifapi.c ****     strncpy(name, NETIFAPI_VAR_REF(msg).msg.ifs.name, NETIF_NAMESIZE - 1);
 373:C:/Users/stapi/OneDrive/Desktop/GD32VW553/GD32VW55X_Wifi_BLE_SDK/GD32VW55x_RELEASE_V1.0.2/MSDK/lwip/lwip-2.1.2/src/api\netifapi.c ****     name[NETIF_NAMESIZE - 1] = '\0';
 374:C:/Users/stapi/OneDrive/Desktop/GD32VW553/GD32VW55X_Wifi_BLE_SDK/GD32VW55x_RELEASE_V1.0.2/MSDK/lwip/lwip-2.1.2/src/api\netifapi.c ****   }
 375:C:/Users/stapi/OneDrive/Desktop/GD32VW553/GD32VW55X_Wifi_BLE_SDK/GD32VW55x_RELEASE_V1.0.2/MSDK/lwip/lwip-2.1.2/src/api\netifapi.c **** #endif /* LWIP_MPU_COMPATIBLE */
 376:C:/Users/stapi/OneDrive/Desktop/GD32VW553/GD32VW55X_Wifi_BLE_SDK/GD32VW55x_RELEASE_V1.0.2/MSDK/lwip/lwip-2.1.2/src/api\netifapi.c ****   NETIFAPI_VAR_FREE(msg);
 561              		.loc 1 376 25 is_stmt 1
 377:C:/Users/stapi/OneDrive/Desktop/GD32VW553/GD32VW55X_Wifi_BLE_SDK/GD32VW55x_RELEASE_V1.0.2/MSDK/lwip/lwip-2.1.2/src/api\netifapi.c ****   return err;
 562              		.loc 1 377 3
 378:C:/Users/stapi/OneDrive/Desktop/GD32VW553/GD32VW55X_Wifi_BLE_SDK/GD32VW55x_RELEASE_V1.0.2/MSDK/lwip/lwip-2.1.2/src/api\netifapi.c **** }
 563              		.loc 1 378 1 is_stmt 0
 564 0022 0561     		addi	sp,sp,32
 565              		.cfi_def_cfa_offset 0
 566 0024 17030000 		tail	__riscv_restore_0
 566      67000300 
 567              		.cfi_restore 1
 568              		.cfi_def_cfa_offset -16
 569              		.cfi_endproc
 570              	.LFE15:
 572              		.text
 573              	.Letext0:
 574              		.file 2 "c:\\users\\stapi\\onedrive\\desktop\\gd32vw553\\embeddedbuilder_v1.4.7.26843\\tools\\nucl
 575              		.file 3 "c:\\users\\stapi\\onedrive\\desktop\\gd32vw553\\embeddedbuilder_v1.4.7.26843\\tools\\nucl
 576              		.file 4 "c:\\users\\stapi\\onedrive\\desktop\\gd32vw553\\embeddedbuilder_v1.4.7.26843\\tools\\nucl
 577              		.file 5 "..\\..\\..\\..\\lwip\\lwip-2.1.2\\src\\include/lwip/arch.h"
 578              		.file 6 "..\\..\\..\\..\\lwip\\lwip-2.1.2\\src\\include/lwip/err.h"
 579              		.file 7 "..\\..\\..\\..\\lwip\\lwip-2.1.2\\src\\include/lwip/pbuf.h"
 580              		.file 8 "..\\..\\..\\..\\lwip\\lwip-2.1.2\\src\\include/lwip/ip4_addr.h"
 581              		.file 9 "..\\..\\..\\..\\lwip\\lwip-2.1.2\\src\\include/lwip/ip_addr.h"
 582              		.file 10 "..\\..\\..\\..\\lwip\\lwip-2.1.2\\src\\include/lwip/netif.h"
 583              		.file 11 "..\\..\\..\\..\\lwip\\lwip-2.1.2\\src\\include/lwip/prot/ethernet.h"
 584              		.file 12 "..\\..\\..\\..\\lwip\\lwip-2.1.2\\src\\include/lwip/priv/tcpip_priv.h"
 585              		.file 13 "..\\..\\..\\..\\lwip\\lwip-2.1.2\\src\\include/lwip/priv/api_msg.h"
 586              		.file 14 "..\\..\\..\\..\\lwip\\lwip-2.1.2\\src\\include/lwip/netifapi.h"
DEFINED SYMBOLS
                            *ABS*:0000000000000000 netifapi.c
C:\Users\stapi\AppData\Local\Temp\ccIfiT99.s:12     .text.netifapi_do_netif_add:0000000000000000 netifapi_do_netif_add
C:\Users\stapi\AppData\Local\Temp\ccIfiT99.s:16     .text.netifapi_do_netif_add:0000000000000000 .L0 
C:\Users\stapi\AppData\Local\Temp\ccIfiT99.s:18     .text.netifapi_do_netif_add:0000000000000000 .L0 
C:\Users\stapi\AppData\Local\Temp\ccIfiT99.s:19     .text.netifapi_do_netif_add:0000000000000008 .L0 
C:\Users\stapi\AppData\Local\Temp\ccIfiT99.s:20     .text.netifapi_do_netif_add:0000000000000008 .L0 
C:\Users\stapi\AppData\Local\Temp\ccIfiT99.s:23     .text.netifapi_do_netif_add:0000000000000008 .L0 
C:\Users\stapi\AppData\Local\Temp\ccIfiT99.s:24     .text.netifapi_do_netif_add:0000000000000008 .L0 
C:\Users\stapi\AppData\Local\Temp\ccIfiT99.s:25     .text.netifapi_do_netif_add:0000000000000008 .L0 
C:\Users\stapi\AppData\Local\Temp\ccIfiT99.s:36     .text.netifapi_do_netif_add:0000000000000020 .L0 
C:\Users\stapi\AppData\Local\Temp\ccIfiT99.s:38     .text.netifapi_do_netif_add:0000000000000022 .L0 
C:\Users\stapi\AppData\Local\Temp\ccIfiT99.s:41     .text.netifapi_do_netif_add:0000000000000024 .L0 
C:\Users\stapi\AppData\Local\Temp\ccIfiT99.s:42     .text.netifapi_do_netif_add:000000000000002c .L0 
C:\Users\stapi\AppData\Local\Temp\ccIfiT99.s:43     .text.netifapi_do_netif_add:000000000000002c .L0 
C:\Users\stapi\AppData\Local\Temp\ccIfiT99.s:44     .text.netifapi_do_netif_add:000000000000002c .L0 
C:\Users\stapi\AppData\Local\Temp\ccIfiT99.s:46     .text.netifapi_do_netif_add:000000000000002c .L0 
C:\Users\stapi\AppData\Local\Temp\ccIfiT99.s:48     .text.netifapi_do_netif_add:000000000000002c .L0 
C:\Users\stapi\AppData\Local\Temp\ccIfiT99.s:50     .text.netifapi_do_netif_add:0000000000000030 .L0 
C:\Users\stapi\AppData\Local\Temp\ccIfiT99.s:56     .text.netifapi_do_netif_set_addr:0000000000000000 netifapi_do_netif_set_addr
C:\Users\stapi\AppData\Local\Temp\ccIfiT99.s:59     .text.netifapi_do_netif_set_addr:0000000000000000 .L0 
C:\Users\stapi\AppData\Local\Temp\ccIfiT99.s:61     .text.netifapi_do_netif_set_addr:0000000000000000 .L0 
C:\Users\stapi\AppData\Local\Temp\ccIfiT99.s:62     .text.netifapi_do_netif_set_addr:0000000000000008 .L0 
C:\Users\stapi\AppData\Local\Temp\ccIfiT99.s:63     .text.netifapi_do_netif_set_addr:0000000000000008 .L0 
C:\Users\stapi\AppData\Local\Temp\ccIfiT99.s:66     .text.netifapi_do_netif_set_addr:0000000000000008 .L0 
C:\Users\stapi\AppData\Local\Temp\ccIfiT99.s:67     .text.netifapi_do_netif_set_addr:0000000000000008 .L0 
C:\Users\stapi\AppData\Local\Temp\ccIfiT99.s:75     .text.netifapi_do_netif_set_addr:0000000000000018 .L0 
C:\Users\stapi\AppData\Local\Temp\ccIfiT99.s:76     .text.netifapi_do_netif_set_addr:0000000000000018 .L0 
C:\Users\stapi\AppData\Local\Temp\ccIfiT99.s:78     .text.netifapi_do_netif_set_addr:0000000000000022 .L0 
C:\Users\stapi\AppData\Local\Temp\ccIfiT99.s:79     .text.netifapi_do_netif_set_addr:0000000000000022 .L0 
C:\Users\stapi\AppData\Local\Temp\ccIfiT99.s:80     .text.netifapi_do_netif_set_addr:0000000000000022 .L0 
C:\Users\stapi\AppData\Local\Temp\ccIfiT99.s:86     .text.netifapi_do_name_to_index:0000000000000000 netifapi_do_name_to_index
C:\Users\stapi\AppData\Local\Temp\ccIfiT99.s:89     .text.netifapi_do_name_to_index:0000000000000000 .L0 
C:\Users\stapi\AppData\Local\Temp\ccIfiT99.s:91     .text.netifapi_do_name_to_index:0000000000000000 .L0 
C:\Users\stapi\AppData\Local\Temp\ccIfiT99.s:92     .text.netifapi_do_name_to_index:0000000000000008 .L0 
C:\Users\stapi\AppData\Local\Temp\ccIfiT99.s:93     .text.netifapi_do_name_to_index:0000000000000008 .L0 
C:\Users\stapi\AppData\Local\Temp\ccIfiT99.s:94     .text.netifapi_do_name_to_index:0000000000000008 .L0 
C:\Users\stapi\AppData\Local\Temp\ccIfiT99.s:97     .text.netifapi_do_name_to_index:0000000000000008 .L0 
C:\Users\stapi\AppData\Local\Temp\ccIfiT99.s:98     .text.netifapi_do_name_to_index:0000000000000008 .L0 
C:\Users\stapi\AppData\Local\Temp\ccIfiT99.s:99     .text.netifapi_do_name_to_index:0000000000000008 .L0 
C:\Users\stapi\AppData\Local\Temp\ccIfiT99.s:101    .text.netifapi_do_name_to_index:000000000000000a .L0 
C:\Users\stapi\AppData\Local\Temp\ccIfiT99.s:106    .text.netifapi_do_name_to_index:0000000000000014 .L0 
C:\Users\stapi\AppData\Local\Temp\ccIfiT99.s:108    .text.netifapi_do_name_to_index:0000000000000018 .L0 
C:\Users\stapi\AppData\Local\Temp\ccIfiT99.s:109    .text.netifapi_do_name_to_index:0000000000000018 .L0 
C:\Users\stapi\AppData\Local\Temp\ccIfiT99.s:111    .text.netifapi_do_name_to_index:0000000000000022 .L0 
C:\Users\stapi\AppData\Local\Temp\ccIfiT99.s:112    .text.netifapi_do_name_to_index:0000000000000022 .L0 
C:\Users\stapi\AppData\Local\Temp\ccIfiT99.s:113    .text.netifapi_do_name_to_index:0000000000000022 .L0 
C:\Users\stapi\AppData\Local\Temp\ccIfiT99.s:114    .text.netifapi_do_name_to_index:0000000000000022 .L0 
C:\Users\stapi\AppData\Local\Temp\ccIfiT99.s:120    .text.netifapi_do_index_to_name:0000000000000000 netifapi_do_index_to_name
C:\Users\stapi\AppData\Local\Temp\ccIfiT99.s:123    .text.netifapi_do_index_to_name:0000000000000000 .L0 
C:\Users\stapi\AppData\Local\Temp\ccIfiT99.s:125    .text.netifapi_do_index_to_name:0000000000000000 .L0 
C:\Users\stapi\AppData\Local\Temp\ccIfiT99.s:126    .text.netifapi_do_index_to_name:0000000000000008 .L0 
C:\Users\stapi\AppData\Local\Temp\ccIfiT99.s:127    .text.netifapi_do_index_to_name:0000000000000008 .L0 
C:\Users\stapi\AppData\Local\Temp\ccIfiT99.s:128    .text.netifapi_do_index_to_name:0000000000000008 .L0 
C:\Users\stapi\AppData\Local\Temp\ccIfiT99.s:131    .text.netifapi_do_index_to_name:0000000000000008 .L0 
C:\Users\stapi\AppData\Local\Temp\ccIfiT99.s:132    .text.netifapi_do_index_to_name:0000000000000008 .L0 
C:\Users\stapi\AppData\Local\Temp\ccIfiT99.s:133    .text.netifapi_do_index_to_name:0000000000000008 .L0 
C:\Users\stapi\AppData\Local\Temp\ccIfiT99.s:135    .text.netifapi_do_index_to_name:000000000000000a .L0 
C:\Users\stapi\AppData\Local\Temp\ccIfiT99.s:137    .text.netifapi_do_index_to_name:000000000000000c .L0 
C:\Users\stapi\AppData\Local\Temp\ccIfiT99.s:142    .text.netifapi_do_index_to_name:0000000000000018 .L0 
C:\Users\stapi\AppData\Local\Temp\ccIfiT99.s:144    .text.netifapi_do_index_to_name:000000000000001a .L0 
C:\Users\stapi\AppData\Local\Temp\ccIfiT99.s:145    .text.netifapi_do_index_to_name:000000000000001a .L0 
C:\Users\stapi\AppData\Local\Temp\ccIfiT99.s:147    .text.netifapi_do_index_to_name:000000000000001c .L0 
C:\Users\stapi\AppData\Local\Temp\ccIfiT99.s:150    .text.netifapi_do_index_to_name:0000000000000020 .L0 
C:\Users\stapi\AppData\Local\Temp\ccIfiT99.s:151    .text.netifapi_do_index_to_name:0000000000000020 .L0 
C:\Users\stapi\AppData\Local\Temp\ccIfiT99.s:153    .text.netifapi_do_index_to_name:000000000000002a .L0 
C:\Users\stapi\AppData\Local\Temp\ccIfiT99.s:154    .text.netifapi_do_index_to_name:000000000000002a .L0 
C:\Users\stapi\AppData\Local\Temp\ccIfiT99.s:155    .text.netifapi_do_index_to_name:000000000000002a .L0 
C:\Users\stapi\AppData\Local\Temp\ccIfiT99.s:156    .text.netifapi_do_index_to_name:000000000000002a .L0 
C:\Users\stapi\AppData\Local\Temp\ccIfiT99.s:162    .text.netifapi_do_netif_common:0000000000000000 netifapi_do_netif_common
C:\Users\stapi\AppData\Local\Temp\ccIfiT99.s:165    .text.netifapi_do_netif_common:0000000000000000 .L0 
C:\Users\stapi\AppData\Local\Temp\ccIfiT99.s:167    .text.netifapi_do_netif_common:0000000000000000 .L0 
C:\Users\stapi\AppData\Local\Temp\ccIfiT99.s:168    .text.netifapi_do_netif_common:0000000000000008 .L0 
C:\Users\stapi\AppData\Local\Temp\ccIfiT99.s:169    .text.netifapi_do_netif_common:0000000000000008 .L0 
C:\Users\stapi\AppData\Local\Temp\ccIfiT99.s:172    .text.netifapi_do_netif_common:0000000000000008 .L0 
C:\Users\stapi\AppData\Local\Temp\ccIfiT99.s:173    .text.netifapi_do_netif_common:0000000000000008 .L0 
C:\Users\stapi\AppData\Local\Temp\ccIfiT99.s:174    .text.netifapi_do_netif_common:0000000000000008 .L0 
C:\Users\stapi\AppData\Local\Temp\ccIfiT99.s:176    .text.netifapi_do_netif_common:000000000000000a .L0 
C:\Users\stapi\AppData\Local\Temp\ccIfiT99.s:178    .text.netifapi_do_netif_common:000000000000000c .L0 
C:\Users\stapi\AppData\Local\Temp\ccIfiT99.s:181    .text.netifapi_do_netif_common:000000000000000e .L0 
C:\Users\stapi\AppData\Local\Temp\ccIfiT99.s:183    .text.netifapi_do_netif_common:0000000000000010 .L0 
C:\Users\stapi\AppData\Local\Temp\ccIfiT99.s:184    .text.netifapi_do_netif_common:0000000000000010 .L0 
C:\Users\stapi\AppData\Local\Temp\ccIfiT99.s:188    .text.netifapi_do_netif_common:0000000000000012 .L0 
C:\Users\stapi\AppData\Local\Temp\ccIfiT99.s:189    .text.netifapi_do_netif_common:000000000000001a .L0 
C:\Users\stapi\AppData\Local\Temp\ccIfiT99.s:190    .text.netifapi_do_netif_common:000000000000001a .L0 
C:\Users\stapi\AppData\Local\Temp\ccIfiT99.s:191    .text.netifapi_do_netif_common:000000000000001a .L0 
C:\Users\stapi\AppData\Local\Temp\ccIfiT99.s:194    .text.netifapi_do_netif_common:000000000000001a .L0 
C:\Users\stapi\AppData\Local\Temp\ccIfiT99.s:198    .text.netifapi_do_netif_common:000000000000001a .L0 
C:\Users\stapi\AppData\Local\Temp\ccIfiT99.s:203    .text.netifapi_do_netif_common:000000000000001e .L0 
C:\Users\stapi\AppData\Local\Temp\ccIfiT99.s:204    .text.netifapi_do_netif_common:000000000000001e .L0 
C:\Users\stapi\AppData\Local\Temp\ccIfiT99.s:208    .text.netifapi_do_netif_common:0000000000000022 .L0 
C:\Users\stapi\AppData\Local\Temp\ccIfiT99.s:215    .text.netifapi_arp_add:0000000000000000 netifapi_arp_add
C:\Users\stapi\AppData\Local\Temp\ccIfiT99.s:218    .text.netifapi_arp_add:0000000000000000 .L0 
C:\Users\stapi\AppData\Local\Temp\ccIfiT99.s:220    .text.netifapi_arp_add:0000000000000000 .L0 
C:\Users\stapi\AppData\Local\Temp\ccIfiT99.s:221    .text.netifapi_arp_add:0000000000000000 .L0 
C:\Users\stapi\AppData\Local\Temp\ccIfiT99.s:222    .text.netifapi_arp_add:0000000000000000 .L0 
C:\Users\stapi\AppData\Local\Temp\ccIfiT99.s:223    .text.netifapi_arp_add:0000000000000000 .L0 
C:\Users\stapi\AppData\Local\Temp\ccIfiT99.s:224    .text.netifapi_arp_add:0000000000000000 .L0 
C:\Users\stapi\AppData\Local\Temp\ccIfiT99.s:225    .text.netifapi_arp_add:0000000000000000 .L0 
C:\Users\stapi\AppData\Local\Temp\ccIfiT99.s:226    .text.netifapi_arp_add:0000000000000000 .L0 
C:\Users\stapi\AppData\Local\Temp\ccIfiT99.s:227    .text.netifapi_arp_add:0000000000000000 .L0 
C:\Users\stapi\AppData\Local\Temp\ccIfiT99.s:230    .text.netifapi_arp_add:0000000000000004 .L0 
C:\Users\stapi\AppData\Local\Temp\ccIfiT99.s:237    .text.netifapi_arp_remove:0000000000000000 netifapi_arp_remove
C:\Users\stapi\AppData\Local\Temp\ccIfiT99.s:240    .text.netifapi_arp_remove:0000000000000000 .L0 
C:\Users\stapi\AppData\Local\Temp\ccIfiT99.s:242    .text.netifapi_arp_remove:0000000000000000 .L0 
C:\Users\stapi\AppData\Local\Temp\ccIfiT99.s:243    .text.netifapi_arp_remove:0000000000000000 .L0 
C:\Users\stapi\AppData\Local\Temp\ccIfiT99.s:244    .text.netifapi_arp_remove:0000000000000000 .L0 
C:\Users\stapi\AppData\Local\Temp\ccIfiT99.s:245    .text.netifapi_arp_remove:0000000000000000 .L0 
C:\Users\stapi\AppData\Local\Temp\ccIfiT99.s:246    .text.netifapi_arp_remove:0000000000000000 .L0 
C:\Users\stapi\AppData\Local\Temp\ccIfiT99.s:247    .text.netifapi_arp_remove:0000000000000000 .L0 
C:\Users\stapi\AppData\Local\Temp\ccIfiT99.s:248    .text.netifapi_arp_remove:0000000000000000 .L0 
C:\Users\stapi\AppData\Local\Temp\ccIfiT99.s:251    .text.netifapi_arp_remove:0000000000000004 .L0 
C:\Users\stapi\AppData\Local\Temp\ccIfiT99.s:258    .text.netifapi_netif_add:0000000000000000 netifapi_netif_add
C:\Users\stapi\AppData\Local\Temp\ccIfiT99.s:261    .text.netifapi_netif_add:0000000000000000 .L0 
C:\Users\stapi\AppData\Local\Temp\ccIfiT99.s:263    .text.netifapi_netif_add:0000000000000000 .L0 
C:\Users\stapi\AppData\Local\Temp\ccIfiT99.s:264    .text.netifapi_netif_add:0000000000000008 .L0 
C:\Users\stapi\AppData\Local\Temp\ccIfiT99.s:265    .text.netifapi_netif_add:0000000000000008 .L0 
C:\Users\stapi\AppData\Local\Temp\ccIfiT99.s:267    .text.netifapi_netif_add:0000000000000008 .L0 
C:\Users\stapi\AppData\Local\Temp\ccIfiT99.s:268    .text.netifapi_netif_add:0000000000000008 .L0 
C:\Users\stapi\AppData\Local\Temp\ccIfiT99.s:269    .text.netifapi_netif_add:0000000000000008 .L0 
C:\Users\stapi\AppData\Local\Temp\ccIfiT99.s:270    .text.netifapi_netif_add:0000000000000008 .L0 
C:\Users\stapi\AppData\Local\Temp\ccIfiT99.s:271    .text.netifapi_netif_add:0000000000000008 .L0 
C:\Users\stapi\AppData\Local\Temp\ccIfiT99.s:272    .text.netifapi_netif_add:000000000000000a .L0 
C:\Users\stapi\AppData\Local\Temp\ccIfiT99.s:274    .text.netifapi_netif_add:000000000000000a .L0 
C:\Users\stapi\AppData\Local\Temp\ccIfiT99.s:276    .text.netifapi_netif_add:000000000000000c .L0 
C:\Users\stapi\AppData\Local\Temp\ccIfiT99.s:282    .text.netifapi_netif_add:0000000000000014 .L0 
C:\Users\stapi\AppData\Local\Temp\ccIfiT99.s:283    .text.netifapi_netif_add:0000000000000014 .L0 
C:\Users\stapi\AppData\Local\Temp\ccIfiT99.s:285    .text.netifapi_netif_add:0000000000000016 .L0 
C:\Users\stapi\AppData\Local\Temp\ccIfiT99.s:291    .text.netifapi_netif_add:000000000000001e .L0 
C:\Users\stapi\AppData\Local\Temp\ccIfiT99.s:292    .text.netifapi_netif_add:000000000000001e .L0 
C:\Users\stapi\AppData\Local\Temp\ccIfiT99.s:294    .text.netifapi_netif_add:0000000000000020 .L0 
C:\Users\stapi\AppData\Local\Temp\ccIfiT99.s:300    .text.netifapi_netif_add:0000000000000028 .L0 
C:\Users\stapi\AppData\Local\Temp\ccIfiT99.s:301    .text.netifapi_netif_add:0000000000000028 .L0 
C:\Users\stapi\AppData\Local\Temp\ccIfiT99.s:303    .text.netifapi_netif_add:000000000000002a .L0 
C:\Users\stapi\AppData\Local\Temp\ccIfiT99.s:304    .text.netifapi_netif_add:000000000000002a .L0 
C:\Users\stapi\AppData\Local\Temp\ccIfiT99.s:307    .text.netifapi_netif_add:000000000000002e .L0 
C:\Users\stapi\AppData\Local\Temp\ccIfiT99.s:309    .text.netifapi_netif_add:0000000000000030 .L0 
C:\Users\stapi\AppData\Local\Temp\ccIfiT99.s:310    .text.netifapi_netif_add:0000000000000030 .L0 
C:\Users\stapi\AppData\Local\Temp\ccIfiT99.s:314    .text.netifapi_netif_add:0000000000000036 .L0 
C:\Users\stapi\AppData\Local\Temp\ccIfiT99.s:316    .text.netifapi_netif_add:0000000000000038 .L0 
C:\Users\stapi\AppData\Local\Temp\ccIfiT99.s:317    .text.netifapi_netif_add:0000000000000038 .L0 
C:\Users\stapi\AppData\Local\Temp\ccIfiT99.s:319    .text.netifapi_netif_add:000000000000003a .L0 
C:\Users\stapi\AppData\Local\Temp\ccIfiT99.s:320    .text.netifapi_netif_add:000000000000003a .L0 
C:\Users\stapi\AppData\Local\Temp\ccIfiT99.s:322    .text.netifapi_netif_add:000000000000003c .L0 
C:\Users\stapi\AppData\Local\Temp\ccIfiT99.s:323    .text.netifapi_netif_add:000000000000003c .L0 
C:\Users\stapi\AppData\Local\Temp\ccIfiT99.s:325    .text.netifapi_netif_add:000000000000003e .L0 
C:\Users\stapi\AppData\Local\Temp\ccIfiT99.s:326    .text.netifapi_netif_add:000000000000003e .L0 
C:\Users\stapi\AppData\Local\Temp\ccIfiT99.s:328    .text.netifapi_netif_add:0000000000000040 .L0 
C:\Users\stapi\AppData\Local\Temp\ccIfiT99.s:329    .text.netifapi_netif_add:0000000000000040 .L0 
C:\Users\stapi\AppData\Local\Temp\ccIfiT99.s:332    .text.netifapi_netif_add:0000000000000048 .L0 
C:\Users\stapi\AppData\Local\Temp\ccIfiT99.s:333    .text.netifapi_netif_add:0000000000000048 .L0 
C:\Users\stapi\AppData\Local\Temp\ccIfiT99.s:334    .text.netifapi_netif_add:0000000000000048 .L0 
C:\Users\stapi\AppData\Local\Temp\ccIfiT99.s:335    .text.netifapi_netif_add:000000000000004a .L0 
C:\Users\stapi\AppData\Local\Temp\ccIfiT99.s:337    .text.netifapi_netif_add:0000000000000052 .L0 
C:\Users\stapi\AppData\Local\Temp\ccIfiT99.s:338    .text.netifapi_netif_add:0000000000000052 .L0 
C:\Users\stapi\AppData\Local\Temp\ccIfiT99.s:339    .text.netifapi_netif_add:0000000000000052 .L0 
C:\Users\stapi\AppData\Local\Temp\ccIfiT99.s:346    .text.netifapi_netif_set_addr:0000000000000000 netifapi_netif_set_addr
C:\Users\stapi\AppData\Local\Temp\ccIfiT99.s:349    .text.netifapi_netif_set_addr:0000000000000000 .L0 
C:\Users\stapi\AppData\Local\Temp\ccIfiT99.s:351    .text.netifapi_netif_set_addr:0000000000000000 .L0 
C:\Users\stapi\AppData\Local\Temp\ccIfiT99.s:352    .text.netifapi_netif_set_addr:0000000000000008 .L0 
C:\Users\stapi\AppData\Local\Temp\ccIfiT99.s:353    .text.netifapi_netif_set_addr:0000000000000008 .L0 
C:\Users\stapi\AppData\Local\Temp\ccIfiT99.s:355    .text.netifapi_netif_set_addr:0000000000000008 .L0 
C:\Users\stapi\AppData\Local\Temp\ccIfiT99.s:356    .text.netifapi_netif_set_addr:0000000000000008 .L0 
C:\Users\stapi\AppData\Local\Temp\ccIfiT99.s:357    .text.netifapi_netif_set_addr:0000000000000008 .L0 
C:\Users\stapi\AppData\Local\Temp\ccIfiT99.s:358    .text.netifapi_netif_set_addr:0000000000000008 .L0 
C:\Users\stapi\AppData\Local\Temp\ccIfiT99.s:359    .text.netifapi_netif_set_addr:0000000000000008 .L0 
C:\Users\stapi\AppData\Local\Temp\ccIfiT99.s:360    .text.netifapi_netif_set_addr:000000000000000a .L0 
C:\Users\stapi\AppData\Local\Temp\ccIfiT99.s:362    .text.netifapi_netif_set_addr:000000000000000a .L0 
C:\Users\stapi\AppData\Local\Temp\ccIfiT99.s:364    .text.netifapi_netif_set_addr:000000000000000c .L0 
C:\Users\stapi\AppData\Local\Temp\ccIfiT99.s:370    .text.netifapi_netif_set_addr:0000000000000014 .L0 
C:\Users\stapi\AppData\Local\Temp\ccIfiT99.s:371    .text.netifapi_netif_set_addr:0000000000000014 .L0 
C:\Users\stapi\AppData\Local\Temp\ccIfiT99.s:373    .text.netifapi_netif_set_addr:0000000000000016 .L0 
C:\Users\stapi\AppData\Local\Temp\ccIfiT99.s:379    .text.netifapi_netif_set_addr:000000000000001e .L0 
C:\Users\stapi\AppData\Local\Temp\ccIfiT99.s:380    .text.netifapi_netif_set_addr:000000000000001e .L0 
C:\Users\stapi\AppData\Local\Temp\ccIfiT99.s:382    .text.netifapi_netif_set_addr:0000000000000020 .L0 
C:\Users\stapi\AppData\Local\Temp\ccIfiT99.s:388    .text.netifapi_netif_set_addr:0000000000000028 .L0 
C:\Users\stapi\AppData\Local\Temp\ccIfiT99.s:389    .text.netifapi_netif_set_addr:0000000000000028 .L0 
C:\Users\stapi\AppData\Local\Temp\ccIfiT99.s:391    .text.netifapi_netif_set_addr:000000000000002a .L0 
C:\Users\stapi\AppData\Local\Temp\ccIfiT99.s:392    .text.netifapi_netif_set_addr:000000000000002a .L0 
C:\Users\stapi\AppData\Local\Temp\ccIfiT99.s:395    .text.netifapi_netif_set_addr:000000000000002e .L0 
C:\Users\stapi\AppData\Local\Temp\ccIfiT99.s:397    .text.netifapi_netif_set_addr:0000000000000030 .L0 
C:\Users\stapi\AppData\Local\Temp\ccIfiT99.s:398    .text.netifapi_netif_set_addr:0000000000000030 .L0 
C:\Users\stapi\AppData\Local\Temp\ccIfiT99.s:402    .text.netifapi_netif_set_addr:0000000000000036 .L0 
C:\Users\stapi\AppData\Local\Temp\ccIfiT99.s:404    .text.netifapi_netif_set_addr:0000000000000038 .L0 
C:\Users\stapi\AppData\Local\Temp\ccIfiT99.s:405    .text.netifapi_netif_set_addr:0000000000000038 .L0 
C:\Users\stapi\AppData\Local\Temp\ccIfiT99.s:407    .text.netifapi_netif_set_addr:000000000000003a .L0 
C:\Users\stapi\AppData\Local\Temp\ccIfiT99.s:408    .text.netifapi_netif_set_addr:000000000000003a .L0 
C:\Users\stapi\AppData\Local\Temp\ccIfiT99.s:411    .text.netifapi_netif_set_addr:0000000000000042 .L0 
C:\Users\stapi\AppData\Local\Temp\ccIfiT99.s:412    .text.netifapi_netif_set_addr:0000000000000042 .L0 
C:\Users\stapi\AppData\Local\Temp\ccIfiT99.s:413    .text.netifapi_netif_set_addr:0000000000000042 .L0 
C:\Users\stapi\AppData\Local\Temp\ccIfiT99.s:414    .text.netifapi_netif_set_addr:0000000000000044 .L0 
C:\Users\stapi\AppData\Local\Temp\ccIfiT99.s:416    .text.netifapi_netif_set_addr:000000000000004c .L0 
C:\Users\stapi\AppData\Local\Temp\ccIfiT99.s:417    .text.netifapi_netif_set_addr:000000000000004c .L0 
C:\Users\stapi\AppData\Local\Temp\ccIfiT99.s:418    .text.netifapi_netif_set_addr:000000000000004c .L0 
C:\Users\stapi\AppData\Local\Temp\ccIfiT99.s:425    .text.netifapi_netif_common:0000000000000000 netifapi_netif_common
C:\Users\stapi\AppData\Local\Temp\ccIfiT99.s:428    .text.netifapi_netif_common:0000000000000000 .L0 
C:\Users\stapi\AppData\Local\Temp\ccIfiT99.s:430    .text.netifapi_netif_common:0000000000000000 .L0 
C:\Users\stapi\AppData\Local\Temp\ccIfiT99.s:431    .text.netifapi_netif_common:0000000000000008 .L0 
C:\Users\stapi\AppData\Local\Temp\ccIfiT99.s:432    .text.netifapi_netif_common:0000000000000008 .L0 
C:\Users\stapi\AppData\Local\Temp\ccIfiT99.s:434    .text.netifapi_netif_common:0000000000000008 .L0 
C:\Users\stapi\AppData\Local\Temp\ccIfiT99.s:435    .text.netifapi_netif_common:0000000000000008 .L0 
C:\Users\stapi\AppData\Local\Temp\ccIfiT99.s:436    .text.netifapi_netif_common:0000000000000008 .L0 
C:\Users\stapi\AppData\Local\Temp\ccIfiT99.s:437    .text.netifapi_netif_common:0000000000000008 .L0 
C:\Users\stapi\AppData\Local\Temp\ccIfiT99.s:438    .text.netifapi_netif_common:0000000000000008 .L0 
C:\Users\stapi\AppData\Local\Temp\ccIfiT99.s:439    .text.netifapi_netif_common:000000000000000a .L0 
C:\Users\stapi\AppData\Local\Temp\ccIfiT99.s:441    .text.netifapi_netif_common:000000000000000a .L0 
C:\Users\stapi\AppData\Local\Temp\ccIfiT99.s:443    .text.netifapi_netif_common:000000000000000c .L0 
C:\Users\stapi\AppData\Local\Temp\ccIfiT99.s:444    .text.netifapi_netif_common:000000000000000c .L0 
C:\Users\stapi\AppData\Local\Temp\ccIfiT99.s:447    .text.netifapi_netif_common:0000000000000010 .L0 
C:\Users\stapi\AppData\Local\Temp\ccIfiT99.s:449    .text.netifapi_netif_common:0000000000000012 .L0 
C:\Users\stapi\AppData\Local\Temp\ccIfiT99.s:450    .text.netifapi_netif_common:0000000000000012 .L0 
C:\Users\stapi\AppData\Local\Temp\ccIfiT99.s:454    .text.netifapi_netif_common:0000000000000018 .L0 
C:\Users\stapi\AppData\Local\Temp\ccIfiT99.s:456    .text.netifapi_netif_common:000000000000001a .L0 
C:\Users\stapi\AppData\Local\Temp\ccIfiT99.s:457    .text.netifapi_netif_common:000000000000001a .L0 
C:\Users\stapi\AppData\Local\Temp\ccIfiT99.s:460    .text.netifapi_netif_common:0000000000000022 .L0 
C:\Users\stapi\AppData\Local\Temp\ccIfiT99.s:461    .text.netifapi_netif_common:0000000000000022 .L0 
C:\Users\stapi\AppData\Local\Temp\ccIfiT99.s:462    .text.netifapi_netif_common:0000000000000022 .L0 
C:\Users\stapi\AppData\Local\Temp\ccIfiT99.s:463    .text.netifapi_netif_common:0000000000000024 .L0 
C:\Users\stapi\AppData\Local\Temp\ccIfiT99.s:465    .text.netifapi_netif_common:000000000000002c .L0 
C:\Users\stapi\AppData\Local\Temp\ccIfiT99.s:466    .text.netifapi_netif_common:000000000000002c .L0 
C:\Users\stapi\AppData\Local\Temp\ccIfiT99.s:467    .text.netifapi_netif_common:000000000000002c .L0 
C:\Users\stapi\AppData\Local\Temp\ccIfiT99.s:474    .text.netifapi_netif_name_to_index:0000000000000000 netifapi_netif_name_to_index
C:\Users\stapi\AppData\Local\Temp\ccIfiT99.s:477    .text.netifapi_netif_name_to_index:0000000000000000 .L0 
C:\Users\stapi\AppData\Local\Temp\ccIfiT99.s:479    .text.netifapi_netif_name_to_index:0000000000000000 .L0 
C:\Users\stapi\AppData\Local\Temp\ccIfiT99.s:480    .text.netifapi_netif_name_to_index:0000000000000008 .L0 
C:\Users\stapi\AppData\Local\Temp\ccIfiT99.s:481    .text.netifapi_netif_name_to_index:0000000000000008 .L0 
C:\Users\stapi\AppData\Local\Temp\ccIfiT99.s:482    .text.netifapi_netif_name_to_index:0000000000000008 .L0 
C:\Users\stapi\AppData\Local\Temp\ccIfiT99.s:484    .text.netifapi_netif_name_to_index:0000000000000008 .L0 
C:\Users\stapi\AppData\Local\Temp\ccIfiT99.s:485    .text.netifapi_netif_name_to_index:0000000000000008 .L0 
C:\Users\stapi\AppData\Local\Temp\ccIfiT99.s:486    .text.netifapi_netif_name_to_index:0000000000000008 .L0 
C:\Users\stapi\AppData\Local\Temp\ccIfiT99.s:487    .text.netifapi_netif_name_to_index:0000000000000008 .L0 
C:\Users\stapi\AppData\Local\Temp\ccIfiT99.s:488    .text.netifapi_netif_name_to_index:0000000000000008 .L0 
C:\Users\stapi\AppData\Local\Temp\ccIfiT99.s:489    .text.netifapi_netif_name_to_index:000000000000000a .L0 
C:\Users\stapi\AppData\Local\Temp\ccIfiT99.s:491    .text.netifapi_netif_name_to_index:000000000000000a .L0 
C:\Users\stapi\AppData\Local\Temp\ccIfiT99.s:493    .text.netifapi_netif_name_to_index:000000000000000c .L0 
C:\Users\stapi\AppData\Local\Temp\ccIfiT99.s:496    .text.netifapi_netif_name_to_index:0000000000000010 .L0 
C:\Users\stapi\AppData\Local\Temp\ccIfiT99.s:498    .text.netifapi_netif_name_to_index:0000000000000012 .L0 
C:\Users\stapi\AppData\Local\Temp\ccIfiT99.s:500    .text.netifapi_netif_name_to_index:0000000000000016 .L0 
C:\Users\stapi\AppData\Local\Temp\ccIfiT99.s:501    .text.netifapi_netif_name_to_index:0000000000000016 .L0 
C:\Users\stapi\AppData\Local\Temp\ccIfiT99.s:502    .text.netifapi_netif_name_to_index:0000000000000016 .L0 
C:\Users\stapi\AppData\Local\Temp\ccIfiT99.s:508    .text.netifapi_netif_name_to_index:0000000000000024 .L0 
C:\Users\stapi\AppData\Local\Temp\ccIfiT99.s:509    .text.netifapi_netif_name_to_index:0000000000000024 .L0 
C:\Users\stapi\AppData\Local\Temp\ccIfiT99.s:511    .text.netifapi_netif_name_to_index:0000000000000026 .L0 
C:\Users\stapi\AppData\Local\Temp\ccIfiT99.s:512    .text.netifapi_netif_name_to_index:0000000000000026 .L0 
C:\Users\stapi\AppData\Local\Temp\ccIfiT99.s:516    .text.netifapi_netif_name_to_index:000000000000002e .L0 
C:\Users\stapi\AppData\Local\Temp\ccIfiT99.s:517    .text.netifapi_netif_name_to_index:000000000000002e .L0 
C:\Users\stapi\AppData\Local\Temp\ccIfiT99.s:518    .text.netifapi_netif_name_to_index:000000000000002e .L0 
C:\Users\stapi\AppData\Local\Temp\ccIfiT99.s:519    .text.netifapi_netif_name_to_index:0000000000000030 .L0 
C:\Users\stapi\AppData\Local\Temp\ccIfiT99.s:521    .text.netifapi_netif_name_to_index:0000000000000038 .L0 
C:\Users\stapi\AppData\Local\Temp\ccIfiT99.s:522    .text.netifapi_netif_name_to_index:0000000000000038 .L0 
C:\Users\stapi\AppData\Local\Temp\ccIfiT99.s:523    .text.netifapi_netif_name_to_index:0000000000000038 .L0 
C:\Users\stapi\AppData\Local\Temp\ccIfiT99.s:524    .text.netifapi_netif_name_to_index:0000000000000038 .L0 
C:\Users\stapi\AppData\Local\Temp\ccIfiT99.s:531    .text.netifapi_netif_index_to_name:0000000000000000 netifapi_netif_index_to_name
C:\Users\stapi\AppData\Local\Temp\ccIfiT99.s:534    .text.netifapi_netif_index_to_name:0000000000000000 .L0 
C:\Users\stapi\AppData\Local\Temp\ccIfiT99.s:536    .text.netifapi_netif_index_to_name:0000000000000000 .L0 
C:\Users\stapi\AppData\Local\Temp\ccIfiT99.s:537    .text.netifapi_netif_index_to_name:0000000000000008 .L0 
C:\Users\stapi\AppData\Local\Temp\ccIfiT99.s:538    .text.netifapi_netif_index_to_name:0000000000000008 .L0 
C:\Users\stapi\AppData\Local\Temp\ccIfiT99.s:540    .text.netifapi_netif_index_to_name:0000000000000008 .L0 
C:\Users\stapi\AppData\Local\Temp\ccIfiT99.s:541    .text.netifapi_netif_index_to_name:0000000000000008 .L0 
C:\Users\stapi\AppData\Local\Temp\ccIfiT99.s:542    .text.netifapi_netif_index_to_name:0000000000000008 .L0 
C:\Users\stapi\AppData\Local\Temp\ccIfiT99.s:543    .text.netifapi_netif_index_to_name:0000000000000008 .L0 
C:\Users\stapi\AppData\Local\Temp\ccIfiT99.s:544    .text.netifapi_netif_index_to_name:0000000000000008 .L0 
C:\Users\stapi\AppData\Local\Temp\ccIfiT99.s:545    .text.netifapi_netif_index_to_name:000000000000000a .L0 
C:\Users\stapi\AppData\Local\Temp\ccIfiT99.s:547    .text.netifapi_netif_index_to_name:000000000000000a .L0 
C:\Users\stapi\AppData\Local\Temp\ccIfiT99.s:549    .text.netifapi_netif_index_to_name:000000000000000e .L0 
C:\Users\stapi\AppData\Local\Temp\ccIfiT99.s:550    .text.netifapi_netif_index_to_name:000000000000000e .L0 
C:\Users\stapi\AppData\Local\Temp\ccIfiT99.s:553    .text.netifapi_netif_index_to_name:0000000000000012 .L0 
C:\Users\stapi\AppData\Local\Temp\ccIfiT99.s:555    .text.netifapi_netif_index_to_name:0000000000000014 .L0 
C:\Users\stapi\AppData\Local\Temp\ccIfiT99.s:556    .text.netifapi_netif_index_to_name:0000000000000014 .L0 
C:\Users\stapi\AppData\Local\Temp\ccIfiT99.s:562    .text.netifapi_netif_index_to_name:0000000000000022 .L0 
C:\Users\stapi\AppData\Local\Temp\ccIfiT99.s:563    .text.netifapi_netif_index_to_name:0000000000000022 .L0 
C:\Users\stapi\AppData\Local\Temp\ccIfiT99.s:564    .text.netifapi_netif_index_to_name:0000000000000022 .L0 
C:\Users\stapi\AppData\Local\Temp\ccIfiT99.s:565    .text.netifapi_netif_index_to_name:0000000000000024 .L0 
C:\Users\stapi\AppData\Local\Temp\ccIfiT99.s:567    .text.netifapi_netif_index_to_name:000000000000002c .L0 
C:\Users\stapi\AppData\Local\Temp\ccIfiT99.s:568    .text.netifapi_netif_index_to_name:000000000000002c .L0 
C:\Users\stapi\AppData\Local\Temp\ccIfiT99.s:569    .text.netifapi_netif_index_to_name:000000000000002c .L0 
C:\Users\stapi\AppData\Local\Temp\ccIfiT99.s:53     .text.netifapi_do_netif_add:0000000000000030 .L0 
C:\Users\stapi\AppData\Local\Temp\ccIfiT99.s:83     .text.netifapi_do_netif_set_addr:0000000000000022 .L0 
C:\Users\stapi\AppData\Local\Temp\ccIfiT99.s:117    .text.netifapi_do_name_to_index:0000000000000022 .L0 
C:\Users\stapi\AppData\Local\Temp\ccIfiT99.s:159    .text.netifapi_do_index_to_name:000000000000002a .L0 
C:\Users\stapi\AppData\Local\Temp\ccIfiT99.s:211    .text.netifapi_do_netif_common:0000000000000022 .L0 
C:\Users\stapi\AppData\Local\Temp\ccIfiT99.s:233    .text.netifapi_arp_add:0000000000000004 .L0 
C:\Users\stapi\AppData\Local\Temp\ccIfiT99.s:254    .text.netifapi_arp_remove:0000000000000004 .L0 
C:\Users\stapi\AppData\Local\Temp\ccIfiT99.s:342    .text.netifapi_netif_add:0000000000000052 .L0 
C:\Users\stapi\AppData\Local\Temp\ccIfiT99.s:421    .text.netifapi_netif_set_addr:000000000000004c .L0 
C:\Users\stapi\AppData\Local\Temp\ccIfiT99.s:470    .text.netifapi_netif_common:000000000000002c .L0 
C:\Users\stapi\AppData\Local\Temp\ccIfiT99.s:527    .text.netifapi_netif_name_to_index:0000000000000038 .L0 
C:\Users\stapi\AppData\Local\Temp\ccIfiT99.s:572    .text.netifapi_netif_index_to_name:000000000000002c .L0 
                     .debug_frame:0000000000000000 .L0 
C:\Users\stapi\AppData\Local\Temp\ccIfiT99.s:45     .text.netifapi_do_netif_add:000000000000002c .L3
C:\Users\stapi\AppData\Local\Temp\ccIfiT99.s:39     .text.netifapi_do_netif_add:0000000000000024 .L2
C:\Users\stapi\AppData\Local\Temp\ccIfiT99.s:148    .text.netifapi_do_index_to_name:0000000000000020 .L10
C:\Users\stapi\AppData\Local\Temp\ccIfiT99.s:193    .text.netifapi_do_netif_common:000000000000001a .L13
C:\Users\stapi\AppData\Local\Temp\ccIfiT99.s:186    .text.netifapi_do_netif_common:0000000000000012 .L14
C:\Users\stapi\AppData\Local\Temp\ccIfiT99.s:279    .text.netifapi_netif_add:0000000000000014 .L19
C:\Users\stapi\AppData\Local\Temp\ccIfiT99.s:288    .text.netifapi_netif_add:000000000000001e .L20
C:\Users\stapi\AppData\Local\Temp\ccIfiT99.s:297    .text.netifapi_netif_add:0000000000000028 .L21
C:\Users\stapi\AppData\Local\Temp\ccIfiT99.s:367    .text.netifapi_netif_set_addr:0000000000000014 .L24
C:\Users\stapi\AppData\Local\Temp\ccIfiT99.s:376    .text.netifapi_netif_set_addr:000000000000001e .L25
C:\Users\stapi\AppData\Local\Temp\ccIfiT99.s:385    .text.netifapi_netif_set_addr:0000000000000028 .L26
C:\Users\stapi\AppData\Local\Temp\ccIfiT99.s:514    .text.netifapi_netif_name_to_index:000000000000002e .L31
C:\Users\stapi\AppData\Local\Temp\ccIfiT99.s:2017   .debug_abbrev:0000000000000000 .Ldebug_abbrev0
C:\Users\stapi\AppData\Local\Temp\ccIfiT99.s:3482   .debug_str:000000000000023e .LASF108
C:\Users\stapi\AppData\Local\Temp\ccIfiT99.s:3450   .debug_str:00000000000000ed .LASF109
C:\Users\stapi\AppData\Local\Temp\ccIfiT99.s:3572   .debug_str:000000000000054e .LASF110
C:\Users\stapi\AppData\Local\Temp\ccIfiT99.s:3380   .debug_ranges:0000000000000000 .Ldebug_ranges0
C:\Users\stapi\AppData\Local\Temp\ccIfiT99.s:3408   .debug_line:0000000000000000 .Ldebug_line0
C:\Users\stapi\AppData\Local\Temp\ccIfiT99.s:3546   .debug_str:00000000000004af .LASF0
C:\Users\stapi\AppData\Local\Temp\ccIfiT99.s:3474   .debug_str:000000000000020a .LASF2
C:\Users\stapi\AppData\Local\Temp\ccIfiT99.s:3630   .debug_str:0000000000000712 .LASF1
C:\Users\stapi\AppData\Local\Temp\ccIfiT99.s:3512   .debug_str:00000000000003db .LASF3
C:\Users\stapi\AppData\Local\Temp\ccIfiT99.s:3434   .debug_str:0000000000000099 .LASF4
C:\Users\stapi\AppData\Local\Temp\ccIfiT99.s:3448   .debug_str:00000000000000e2 .LASF5
C:\Users\stapi\AppData\Local\Temp\ccIfiT99.s:3560   .debug_str:000000000000050a .LASF6
C:\Users\stapi\AppData\Local\Temp\ccIfiT99.s:3492   .debug_str:0000000000000363 .LASF7
C:\Users\stapi\AppData\Local\Temp\ccIfiT99.s:3444   .debug_str:00000000000000c3 .LASF8
C:\Users\stapi\AppData\Local\Temp\ccIfiT99.s:3576   .debug_str:00000000000005de .LASF9
C:\Users\stapi\AppData\Local\Temp\ccIfiT99.s:3484   .debug_str:0000000000000337 .LASF10
C:\Users\stapi\AppData\Local\Temp\ccIfiT99.s:3524   .debug_str:000000000000041f .LASF11
C:\Users\stapi\AppData\Local\Temp\ccIfiT99.s:3530   .debug_str:000000000000044a .LASF12
C:\Users\stapi\AppData\Local\Temp\ccIfiT99.s:3422   .debug_str:0000000000000056 .LASF13
C:\Users\stapi\AppData\Local\Temp\ccIfiT99.s:3598   .debug_str:0000000000000666 .LASF14
C:\Users\stapi\AppData\Local\Temp\ccIfiT99.s:3532   .debug_str:0000000000000457 .LASF15
C:\Users\stapi\AppData\Local\Temp\ccIfiT99.s:3526   .debug_str:0000000000000436 .LASF16
C:\Users\stapi\AppData\Local\Temp\ccIfiT99.s:3618   .debug_str:00000000000006ca .LASF17
C:\Users\stapi\AppData\Local\Temp\ccIfiT99.s:3486   .debug_str:0000000000000345 .LASF18
C:\Users\stapi\AppData\Local\Temp\ccIfiT99.s:3614   .debug_str:00000000000006a8 .LASF19
C:\Users\stapi\AppData\Local\Temp\ccIfiT99.s:3480   .debug_str:0000000000000239 .LASF20
C:\Users\stapi\AppData\Local\Temp\ccIfiT99.s:3600   .debug_str:000000000000066e .LASF21
C:\Users\stapi\AppData\Local\Temp\ccIfiT99.s:3594   .debug_str:0000000000000656 .LASF22
C:\Users\stapi\AppData\Local\Temp\ccIfiT99.s:3590   .debug_str:0000000000000647 .LASF23
C:\Users\stapi\AppData\Local\Temp\ccIfiT99.s:3536   .debug_str:0000000000000467 .LASF24
C:\Users\stapi\AppData\Local\Temp\ccIfiT99.s:3540   .debug_str:000000000000047e .LASF25
C:\Users\stapi\AppData\Local\Temp\ccIfiT99.s:3562   .debug_str:000000000000051d .LASF26
C:\Users\stapi\AppData\Local\Temp\ccIfiT99.s:3464   .debug_str:00000000000001c2 .LASF27
C:\Users\stapi\AppData\Local\Temp\ccIfiT99.s:3468   .debug_str:00000000000001d2 .LASF28
C:\Users\stapi\AppData\Local\Temp\ccIfiT99.s:3624   .debug_str:00000000000006fa .LASF29
C:\Users\stapi\AppData\Local\Temp\ccIfiT99.s:3608   .debug_str:000000000000068a .LASF30
C:\Users\stapi\AppData\Local\Temp\ccIfiT99.s:3602   .debug_str:0000000000000674 .LASF31
C:\Users\stapi\AppData\Local\Temp\ccIfiT99.s:3500   .debug_str:0000000000000393 .LASF32
C:\Users\stapi\AppData\Local\Temp\ccIfiT99.s:3428   .debug_str:0000000000000077 .LASF33
C:\Users\stapi\AppData\Local\Temp\ccIfiT99.s:3416   .debug_str:0000000000000032 .LASF34
C:\Users\stapi\AppData\Local\Temp\ccIfiT99.s:3534   .debug_str:0000000000000460 .LASF35
C:\Users\stapi\AppData\Local\Temp\ccIfiT99.s:3424   .debug_str:000000000000005d .LASF36
C:\Users\stapi\AppData\Local\Temp\ccIfiT99.s:3466   .debug_str:00000000000001ca .LASF37
C:\Users\stapi\AppData\Local\Temp\ccIfiT99.s:3440   .debug_str:00000000000000b1 .LASF38
C:\Users\stapi\AppData\Local\Temp\ccIfiT99.s:3612   .debug_str:00000000000006a0 .LASF39
C:\Users\stapi\AppData\Local\Temp\ccIfiT99.s:3548   .debug_str:00000000000004b8 .LASF40
C:\Users\stapi\AppData\Local\Temp\ccIfiT99.s:3632   .debug_str:000000000000071c .LASF47
C:\Users\stapi\AppData\Local\Temp\ccIfiT99.s:3628   .debug_str:000000000000070d .LASF41
C:\Users\stapi\AppData\Local\Temp\ccIfiT99.s:3570   .debug_str:0000000000000546 .LASF42
C:\Users\stapi\AppData\Local\Temp\ccIfiT99.s:3438   .debug_str:00000000000000a9 .LASF43
C:\Users\stapi\AppData\Local\Temp\ccIfiT99.s:3504   .debug_str:00000000000003a5 .LASF44
C:\Users\stapi\AppData\Local\Temp\ccIfiT99.s:3522   .debug_str:0000000000000419 .LASF45
C:\Users\stapi\AppData\Local\Temp\ccIfiT99.s:3518   .debug_str:0000000000000406 .LASF46
C:\Users\stapi\AppData\Local\Temp\ccIfiT99.s:3566   .debug_str:0000000000000535 .LASF48
C:\Users\stapi\AppData\Local\Temp\ccIfiT99.s:3498   .debug_str:000000000000038e .LASF49
C:\Users\stapi\AppData\Local\Temp\ccIfiT99.s:3584   .debug_str:000000000000061d .LASF50
C:\Users\stapi\AppData\Local\Temp\ccIfiT99.s:3496   .debug_str:0000000000000384 .LASF51
C:\Users\stapi\AppData\Local\Temp\ccIfiT99.s:3520   .debug_str:000000000000040d .LASF111
C:\Users\stapi\AppData\Local\Temp\ccIfiT99.s:3494   .debug_str:000000000000036c .LASF87
C:\Users\stapi\AppData\Local\Temp\ccIfiT99.s:3452   .debug_str:000000000000016f .LASF52
C:\Users\stapi\AppData\Local\Temp\ccIfiT99.s:3542   .debug_str:0000000000000486 .LASF53
C:\Users\stapi\AppData\Local\Temp\ccIfiT99.s:3516   .debug_str:00000000000003f8 .LASF54
C:\Users\stapi\AppData\Local\Temp\ccIfiT99.s:3586   .debug_str:0000000000000628 .LASF55
C:\Users\stapi\AppData\Local\Temp\ccIfiT99.s:3460   .debug_str:00000000000001b0 .LASF56
C:\Users\stapi\AppData\Local\Temp\ccIfiT99.s:3592   .debug_str:000000000000064e .LASF57
C:\Users\stapi\AppData\Local\Temp\ccIfiT99.s:3436   .debug_str:00000000000000a3 .LASF58
C:\Users\stapi\AppData\Local\Temp\ccIfiT99.s:3610   .debug_str:0000000000000699 .LASF59
C:\Users\stapi\AppData\Local\Temp\ccIfiT99.s:3478   .debug_str:000000000000022e .LASF60
C:\Users\stapi\AppData\Local\Temp\ccIfiT99.s:3508   .debug_str:00000000000003cc .LASF61
C:\Users\stapi\AppData\Local\Temp\ccIfiT99.s:3564   .debug_str:0000000000000529 .LASF62
C:\Users\stapi\AppData\Local\Temp\ccIfiT99.s:3420   .debug_str:000000000000004f .LASF63
C:\Users\stapi\AppData\Local\Temp\ccIfiT99.s:3626   .debug_str:0000000000000702 .LASF64
C:\Users\stapi\AppData\Local\Temp\ccIfiT99.s:3604   .debug_str:000000000000067c .LASF65
C:\Users\stapi\AppData\Local\Temp\ccIfiT99.s:3606   .debug_str:0000000000000681 .LASF66
C:\Users\stapi\AppData\Local\Temp\ccIfiT99.s:3454   .debug_str:0000000000000184 .LASF67
C:\Users\stapi\AppData\Local\Temp\ccIfiT99.s:3528   .debug_str:000000000000043f .LASF68
C:\Users\stapi\AppData\Local\Temp\ccIfiT99.s:3596   .debug_str:000000000000065c .LASF69
C:\Users\stapi\AppData\Local\Temp\ccIfiT99.s:3514   .debug_str:00000000000003e9 .LASF70
C:\Users\stapi\AppData\Local\Temp\ccIfiT99.s:3430   .debug_str:0000000000000082 .LASF71
C:\Users\stapi\AppData\Local\Temp\ccIfiT99.s:3414   .debug_str:000000000000001e .LASF72
C:\Users\stapi\AppData\Local\Temp\ccIfiT99.s:3506   .debug_str:00000000000003b3 .LASF73
C:\Users\stapi\AppData\Local\Temp\ccIfiT99.s:3442   .debug_str:00000000000000ba .LASF74
C:\Users\stapi\AppData\Local\Temp\ccIfiT99.s:3544   .debug_str:000000000000049b .LASF75
C:\Users\stapi\AppData\Local\Temp\ccIfiT99.s:3502   .debug_str:000000000000039f .LASF76
C:\Users\stapi\AppData\Local\Temp\ccIfiT99.s:3426   .debug_str:0000000000000066 .LASF77
C:\Users\stapi\AppData\Local\Temp\ccIfiT99.s:3550   .debug_str:00000000000004be .LASF78
C:\Users\stapi\AppData\Local\Temp\ccIfiT99.s:3432   .debug_str:0000000000000092 .LASF79
C:\Users\stapi\AppData\Local\Temp\ccIfiT99.s:3552   .debug_str:00000000000004cf .LASF80
C:\Users\stapi\AppData\Local\Temp\ccIfiT99.s:3510   .debug_str:00000000000003d2 .LASF81
C:\Users\stapi\AppData\Local\Temp\ccIfiT99.s:3582   .debug_str:0000000000000614 .LASF82
C:\Users\stapi\AppData\Local\Temp\ccIfiT99.s:3458   .debug_str:00000000000001aa .LASF83
C:\Users\stapi\AppData\Local\Temp\ccIfiT99.s:3578   .debug_str:00000000000005f0 .LASF84
C:\Users\stapi\AppData\Local\Temp\ccIfiT99.s:3410   .debug_str:0000000000000000 .LASF85
C:\Users\stapi\AppData\Local\Temp\ccIfiT99.s:3488   .debug_str:000000000000034a .LASF86
C:\Users\stapi\AppData\Local\Temp\ccIfiT99.s:3620   .debug_str:00000000000006d4 .LASF88
C:\Users\stapi\AppData\Local\Temp\ccIfiT99.s:3574   .debug_str:00000000000005cc .LASF89
C:\Users\stapi\AppData\Local\Temp\ccIfiT99.s:3616   .debug_str:00000000000006ad .LASF90
C:\Users\stapi\AppData\Local\Temp\ccIfiT99.s:532    .text.netifapi_netif_index_to_name:0000000000000000 .LFB15
C:\Users\stapi\AppData\Local\Temp\ccIfiT99.s:570    .text.netifapi_netif_index_to_name:000000000000002c .LFE15
C:\Users\stapi\AppData\Local\Temp\ccIfiT99.s:2827   .debug_loc:0000000000000000 .LLST29
C:\Users\stapi\AppData\Local\Temp\ccIfiT99.s:2846   .debug_loc:000000000000002d .LLST30
C:\Users\stapi\AppData\Local\Temp\ccIfiT99.s:560    .text.netifapi_netif_index_to_name:0000000000000022 .LVL58
C:\Users\stapi\AppData\Local\Temp\ccIfiT99.s:3580   .debug_str:00000000000005f7 .LASF91
C:\Users\stapi\AppData\Local\Temp\ccIfiT99.s:475    .text.netifapi_netif_name_to_index:0000000000000000 .LFB14
C:\Users\stapi\AppData\Local\Temp\ccIfiT99.s:525    .text.netifapi_netif_name_to_index:0000000000000038 .LFE14
C:\Users\stapi\AppData\Local\Temp\ccIfiT99.s:2865   .debug_loc:000000000000005a .LLST27
C:\Users\stapi\AppData\Local\Temp\ccIfiT99.s:2884   .debug_loc:0000000000000087 .LLST28
C:\Users\stapi\AppData\Local\Temp\ccIfiT99.s:506    .text.netifapi_netif_name_to_index:0000000000000024 .LVL54
C:\Users\stapi\AppData\Local\Temp\ccIfiT99.s:3558   .debug_str:00000000000004f4 .LASF92
C:\Users\stapi\AppData\Local\Temp\ccIfiT99.s:426    .text.netifapi_netif_common:0000000000000000 .LFB13
C:\Users\stapi\AppData\Local\Temp\ccIfiT99.s:468    .text.netifapi_netif_common:000000000000002c .LFE13
C:\Users\stapi\AppData\Local\Temp\ccIfiT99.s:2895   .debug_loc:00000000000000a5 .LLST24
C:\Users\stapi\AppData\Local\Temp\ccIfiT99.s:2914   .debug_loc:00000000000000d2 .LLST25
C:\Users\stapi\AppData\Local\Temp\ccIfiT99.s:2933   .debug_loc:00000000000000ff .LLST26
C:\Users\stapi\AppData\Local\Temp\ccIfiT99.s:458    .text.netifapi_netif_common:0000000000000022 .LVL50
C:\Users\stapi\AppData\Local\Temp\ccIfiT99.s:3476   .debug_str:0000000000000216 .LASF93
C:\Users\stapi\AppData\Local\Temp\ccIfiT99.s:347    .text.netifapi_netif_set_addr:0000000000000000 .LFB12
C:\Users\stapi\AppData\Local\Temp\ccIfiT99.s:419    .text.netifapi_netif_set_addr:000000000000004c .LFE12
C:\Users\stapi\AppData\Local\Temp\ccIfiT99.s:2947   .debug_loc:0000000000000120 .LLST20
C:\Users\stapi\AppData\Local\Temp\ccIfiT99.s:2966   .debug_loc:000000000000014d .LLST21
C:\Users\stapi\AppData\Local\Temp\ccIfiT99.s:2989   .debug_loc:0000000000000185 .LLST22
C:\Users\stapi\AppData\Local\Temp\ccIfiT99.s:3007   .debug_loc:00000000000001b1 .LLST23
C:\Users\stapi\AppData\Local\Temp\ccIfiT99.s:409    .text.netifapi_netif_set_addr:0000000000000042 .LVL46
C:\Users\stapi\AppData\Local\Temp\ccIfiT99.s:3622   .debug_str:00000000000006e7 .LASF94
C:\Users\stapi\AppData\Local\Temp\ccIfiT99.s:259    .text.netifapi_netif_add:0000000000000000 .LFB11
C:\Users\stapi\AppData\Local\Temp\ccIfiT99.s:340    .text.netifapi_netif_add:0000000000000052 .LFE11
C:\Users\stapi\AppData\Local\Temp\ccIfiT99.s:3025   .debug_loc:00000000000001dd .LLST13
C:\Users\stapi\AppData\Local\Temp\ccIfiT99.s:3044   .debug_loc:000000000000020a .LLST14
C:\Users\stapi\AppData\Local\Temp\ccIfiT99.s:3067   .debug_loc:0000000000000242 .LLST15
C:\Users\stapi\AppData\Local\Temp\ccIfiT99.s:3085   .debug_loc:000000000000026e .LLST16
C:\Users\stapi\AppData\Local\Temp\ccIfiT99.s:3103   .debug_loc:000000000000029a .LLST17
C:\Users\stapi\AppData\Local\Temp\ccIfiT99.s:3117   .debug_loc:00000000000002bb .LLST18
C:\Users\stapi\AppData\Local\Temp\ccIfiT99.s:3131   .debug_loc:00000000000002dc .LLST19
C:\Users\stapi\AppData\Local\Temp\ccIfiT99.s:330    .text.netifapi_netif_add:0000000000000048 .LVL36
C:\Users\stapi\AppData\Local\Temp\ccIfiT99.s:3446   .debug_str:00000000000000ce .LASF95
C:\Users\stapi\AppData\Local\Temp\ccIfiT99.s:238    .text.netifapi_arp_remove:0000000000000000 .LFB10
C:\Users\stapi\AppData\Local\Temp\ccIfiT99.s:252    .text.netifapi_arp_remove:0000000000000004 .LFE10
C:\Users\stapi\AppData\Local\Temp\ccIfiT99.s:3145   .debug_loc:00000000000002fd .LLST12
C:\Users\stapi\AppData\Local\Temp\ccIfiT99.s:3556   .debug_str:00000000000004ef .LASF96
C:\Users\stapi\AppData\Local\Temp\ccIfiT99.s:3412   .debug_str:000000000000000d .LASF97
C:\Users\stapi\AppData\Local\Temp\ccIfiT99.s:216    .text.netifapi_arp_add:0000000000000000 .LFB9
C:\Users\stapi\AppData\Local\Temp\ccIfiT99.s:231    .text.netifapi_arp_add:0000000000000004 .LFE9
C:\Users\stapi\AppData\Local\Temp\ccIfiT99.s:3159   .debug_loc:000000000000031e .LLST11
C:\Users\stapi\AppData\Local\Temp\ccIfiT99.s:3568   .debug_str:000000000000053e .LASF98
C:\Users\stapi\AppData\Local\Temp\ccIfiT99.s:3588   .debug_str:000000000000062e .LASF112
C:\Users\stapi\AppData\Local\Temp\ccIfiT99.s:3634   .debug_str:0000000000000721 .LASF99
C:\Users\stapi\AppData\Local\Temp\ccIfiT99.s:121    .text.netifapi_do_index_to_name:0000000000000000 .LFB7
C:\Users\stapi\AppData\Local\Temp\ccIfiT99.s:157    .text.netifapi_do_index_to_name:000000000000002a .LFE7
C:\Users\stapi\AppData\Local\Temp\ccIfiT99.s:3173   .debug_loc:000000000000033f .LLST6
C:\Users\stapi\AppData\Local\Temp\ccIfiT99.s:3184   .debug_loc:000000000000035d .LLST7
C:\Users\stapi\AppData\Local\Temp\ccIfiT99.s:140    .text.netifapi_do_index_to_name:0000000000000018 .LVL15
C:\Users\stapi\AppData\Local\Temp\ccIfiT99.s:3472   .debug_str:00000000000001f0 .LASF100
C:\Users\stapi\AppData\Local\Temp\ccIfiT99.s:87     .text.netifapi_do_name_to_index:0000000000000000 .LFB6
C:\Users\stapi\AppData\Local\Temp\ccIfiT99.s:115    .text.netifapi_do_name_to_index:0000000000000022 .LFE6
C:\Users\stapi\AppData\Local\Temp\ccIfiT99.s:3195   .debug_loc:000000000000037b .LLST4
C:\Users\stapi\AppData\Local\Temp\ccIfiT99.s:3206   .debug_loc:0000000000000399 .LLST5
C:\Users\stapi\AppData\Local\Temp\ccIfiT99.s:104    .text.netifapi_do_name_to_index:0000000000000014 .LVL11
C:\Users\stapi\AppData\Local\Temp\ccIfiT99.s:3554   .debug_str:00000000000004d4 .LASF101
C:\Users\stapi\AppData\Local\Temp\ccIfiT99.s:57     .text.netifapi_do_netif_set_addr:0000000000000000 .LFB5
C:\Users\stapi\AppData\Local\Temp\ccIfiT99.s:81     .text.netifapi_do_netif_set_addr:0000000000000022 .LFE5
C:\Users\stapi\AppData\Local\Temp\ccIfiT99.s:3217   .debug_loc:00000000000003b7 .LLST2
C:\Users\stapi\AppData\Local\Temp\ccIfiT99.s:3231   .debug_loc:00000000000003d8 .LLST3
C:\Users\stapi\AppData\Local\Temp\ccIfiT99.s:73     .text.netifapi_do_netif_set_addr:0000000000000018 .LVL7
C:\Users\stapi\AppData\Local\Temp\ccIfiT99.s:3456   .debug_str:0000000000000194 .LASF102
C:\Users\stapi\AppData\Local\Temp\ccIfiT99.s:13     .text.netifapi_do_netif_add:0000000000000000 .LFB4
C:\Users\stapi\AppData\Local\Temp\ccIfiT99.s:51     .text.netifapi_do_netif_add:0000000000000030 .LFE4
C:\Users\stapi\AppData\Local\Temp\ccIfiT99.s:3245   .debug_loc:00000000000003f9 .LLST0
C:\Users\stapi\AppData\Local\Temp\ccIfiT99.s:3259   .debug_loc:000000000000041a .LLST1
C:\Users\stapi\AppData\Local\Temp\ccIfiT99.s:34     .text.netifapi_do_netif_add:0000000000000020 .LVL3
C:\Users\stapi\AppData\Local\Temp\ccIfiT99.s:163    .text.netifapi_do_netif_common:0000000000000000 .LFB8
C:\Users\stapi\AppData\Local\Temp\ccIfiT99.s:209    .text.netifapi_do_netif_common:0000000000000022 .LFE8
C:\Users\stapi\AppData\Local\Temp\ccIfiT99.s:3273   .debug_loc:000000000000043b .LLST8
C:\Users\stapi\AppData\Local\Temp\ccIfiT99.s:3302   .debug_loc:0000000000000480 .LLST9
C:\Users\stapi\AppData\Local\Temp\ccIfiT99.s:195    .text.netifapi_do_netif_common:000000000000001a .LBB4
C:\Users\stapi\AppData\Local\Temp\ccIfiT99.s:207    .text.netifapi_do_netif_common:0000000000000022 .LBE4
C:\Users\stapi\AppData\Local\Temp\ccIfiT99.s:3331   .debug_loc:00000000000004c5 .LLST10
C:\Users\stapi\AppData\Local\Temp\ccIfiT99.s:3538   .debug_str:000000000000046f .LASF103
C:\Users\stapi\AppData\Local\Temp\ccIfiT99.s:3418   .debug_str:000000000000003b .LASF104
C:\Users\stapi\AppData\Local\Temp\ccIfiT99.s:3490   .debug_str:000000000000034f .LASF105
C:\Users\stapi\AppData\Local\Temp\ccIfiT99.s:3470   .debug_str:00000000000001e1 .LASF106
C:\Users\stapi\AppData\Local\Temp\ccIfiT99.s:3462   .debug_str:00000000000001b8 .LASF107
C:\Users\stapi\AppData\Local\Temp\ccIfiT99.s:535    .text.netifapi_netif_index_to_name:0000000000000000 .LVL55
C:\Users\stapi\AppData\Local\Temp\ccIfiT99.s:551    .text.netifapi_netif_index_to_name:0000000000000012 .LVL56
C:\Users\stapi\AppData\Local\Temp\ccIfiT99.s:558    .text.netifapi_netif_index_to_name:000000000000001a .LVL57
C:\Users\stapi\AppData\Local\Temp\ccIfiT99.s:478    .text.netifapi_netif_name_to_index:0000000000000000 .LVL51
C:\Users\stapi\AppData\Local\Temp\ccIfiT99.s:494    .text.netifapi_netif_name_to_index:0000000000000010 .LVL52
C:\Users\stapi\AppData\Local\Temp\ccIfiT99.s:504    .text.netifapi_netif_name_to_index:000000000000001c .LVL53
C:\Users\stapi\AppData\Local\Temp\ccIfiT99.s:429    .text.netifapi_netif_common:0000000000000000 .LVL47
C:\Users\stapi\AppData\Local\Temp\ccIfiT99.s:445    .text.netifapi_netif_common:0000000000000010 .LVL48
C:\Users\stapi\AppData\Local\Temp\ccIfiT99.s:452    .text.netifapi_netif_common:0000000000000018 .LVL49
C:\Users\stapi\AppData\Local\Temp\ccIfiT99.s:350    .text.netifapi_netif_set_addr:0000000000000000 .LVL37
C:\Users\stapi\AppData\Local\Temp\ccIfiT99.s:393    .text.netifapi_netif_set_addr:000000000000002e .LVL44
C:\Users\stapi\AppData\Local\Temp\ccIfiT99.s:365    .text.netifapi_netif_set_addr:0000000000000010 .LVL38
C:\Users\stapi\AppData\Local\Temp\ccIfiT99.s:368    .text.netifapi_netif_set_addr:0000000000000014 .LVL39
C:\Users\stapi\AppData\Local\Temp\ccIfiT99.s:400    .text.netifapi_netif_set_addr:0000000000000036 .LVL45
C:\Users\stapi\AppData\Local\Temp\ccIfiT99.s:374    .text.netifapi_netif_set_addr:000000000000001a .LVL40
C:\Users\stapi\AppData\Local\Temp\ccIfiT99.s:377    .text.netifapi_netif_set_addr:000000000000001e .LVL41
C:\Users\stapi\AppData\Local\Temp\ccIfiT99.s:383    .text.netifapi_netif_set_addr:0000000000000024 .LVL42
C:\Users\stapi\AppData\Local\Temp\ccIfiT99.s:386    .text.netifapi_netif_set_addr:0000000000000028 .LVL43
C:\Users\stapi\AppData\Local\Temp\ccIfiT99.s:262    .text.netifapi_netif_add:0000000000000000 .LVL27
C:\Users\stapi\AppData\Local\Temp\ccIfiT99.s:305    .text.netifapi_netif_add:000000000000002e .LVL34
C:\Users\stapi\AppData\Local\Temp\ccIfiT99.s:277    .text.netifapi_netif_add:0000000000000010 .LVL28
C:\Users\stapi\AppData\Local\Temp\ccIfiT99.s:280    .text.netifapi_netif_add:0000000000000014 .LVL29
C:\Users\stapi\AppData\Local\Temp\ccIfiT99.s:312    .text.netifapi_netif_add:0000000000000036 .LVL35
C:\Users\stapi\AppData\Local\Temp\ccIfiT99.s:286    .text.netifapi_netif_add:000000000000001a .LVL30
C:\Users\stapi\AppData\Local\Temp\ccIfiT99.s:289    .text.netifapi_netif_add:000000000000001e .LVL31
C:\Users\stapi\AppData\Local\Temp\ccIfiT99.s:295    .text.netifapi_netif_add:0000000000000024 .LVL32
C:\Users\stapi\AppData\Local\Temp\ccIfiT99.s:298    .text.netifapi_netif_add:0000000000000028 .LVL33
C:\Users\stapi\AppData\Local\Temp\ccIfiT99.s:241    .text.netifapi_arp_remove:0000000000000000 .LVL25
C:\Users\stapi\AppData\Local\Temp\ccIfiT99.s:249    .text.netifapi_arp_remove:0000000000000002 .LVL26
C:\Users\stapi\AppData\Local\Temp\ccIfiT99.s:219    .text.netifapi_arp_add:0000000000000000 .LVL23
C:\Users\stapi\AppData\Local\Temp\ccIfiT99.s:228    .text.netifapi_arp_add:0000000000000002 .LVL24
C:\Users\stapi\AppData\Local\Temp\ccIfiT99.s:124    .text.netifapi_do_index_to_name:0000000000000000 .LVL12
C:\Users\stapi\AppData\Local\Temp\ccIfiT99.s:138    .text.netifapi_do_index_to_name:0000000000000010 .LVL14
C:\Users\stapi\AppData\Local\Temp\ccIfiT99.s:130    .text.netifapi_do_index_to_name:0000000000000008 .LVL13
C:\Users\stapi\AppData\Local\Temp\ccIfiT99.s:90     .text.netifapi_do_name_to_index:0000000000000000 .LVL8
C:\Users\stapi\AppData\Local\Temp\ccIfiT99.s:102    .text.netifapi_do_name_to_index:000000000000000c .LVL10
C:\Users\stapi\AppData\Local\Temp\ccIfiT99.s:96     .text.netifapi_do_name_to_index:0000000000000008 .LVL9
C:\Users\stapi\AppData\Local\Temp\ccIfiT99.s:60     .text.netifapi_do_netif_set_addr:0000000000000000 .LVL4
C:\Users\stapi\AppData\Local\Temp\ccIfiT99.s:71     .text.netifapi_do_netif_set_addr:0000000000000010 .LVL6
C:\Users\stapi\AppData\Local\Temp\ccIfiT99.s:65     .text.netifapi_do_netif_set_addr:0000000000000008 .LVL5
C:\Users\stapi\AppData\Local\Temp\ccIfiT99.s:17     .text.netifapi_do_netif_add:0000000000000000 .LVL0
C:\Users\stapi\AppData\Local\Temp\ccIfiT99.s:32     .text.netifapi_do_netif_add:0000000000000018 .LVL2
C:\Users\stapi\AppData\Local\Temp\ccIfiT99.s:22     .text.netifapi_do_netif_add:0000000000000008 .LVL1
C:\Users\stapi\AppData\Local\Temp\ccIfiT99.s:166    .text.netifapi_do_netif_common:0000000000000000 .LVL16
C:\Users\stapi\AppData\Local\Temp\ccIfiT99.s:179    .text.netifapi_do_netif_common:000000000000000e .LVL18
C:\Users\stapi\AppData\Local\Temp\ccIfiT99.s:185    .text.netifapi_do_netif_common:0000000000000012 .LVL19
C:\Users\stapi\AppData\Local\Temp\ccIfiT99.s:192    .text.netifapi_do_netif_common:000000000000001a .LVL20
C:\Users\stapi\AppData\Local\Temp\ccIfiT99.s:199    .text.netifapi_do_netif_common:000000000000001c .LVL21
C:\Users\stapi\AppData\Local\Temp\ccIfiT99.s:171    .text.netifapi_do_netif_common:0000000000000008 .LVL17
C:\Users\stapi\AppData\Local\Temp\ccIfiT99.s:201    .text.netifapi_do_netif_common:000000000000001e .LVL22
C:\Users\stapi\AppData\Local\Temp\ccIfiT99.s:588    .debug_info:0000000000000000 .Ldebug_info0

UNDEFINED SYMBOLS
__riscv_save_0
netif_add
__riscv_restore_0
netif_set_addr
__riscv_save_1
netif_name_to_index
__riscv_restore_1
netif_index_to_name
ip_addr_any
tcpip_api_call
