   1              		.file	"netifapi.c"
   2              		.option nopic
   3              		.attribute arch, "rv32i2p0_m2p0_a2p0_f2p0_c2p0_b_p0p94"
   4              		.attribute unaligned_access, 0
   5              		.attribute stack_align, 16
   6              		.text
   7              	.Ltext0:
   8              		.cfi_sections	.debug_frame
   9              		.section	.text.netifapi_do_netif_add,"ax",@progbits
  10              		.align	1
  12              	netifapi_do_netif_add:
  13              	.LFB4:
  14              		.file 1 "C:/Users/stapi/OneDrive/Desktop/GD32VW553/GD32VW55X_Wifi_BLE_SDK/GD32VW55x_RELEASE_V1.0.2
   1:C:/Users/stapi/OneDrive/Desktop/GD32VW553/GD32VW55X_Wifi_BLE_SDK/GD32VW55x_RELEASE_V1.0.2/MSDK/lwip/lwip-2.1.2/src/api\netifapi.c **** /**
   2:C:/Users/stapi/OneDrive/Desktop/GD32VW553/GD32VW55X_Wifi_BLE_SDK/GD32VW55x_RELEASE_V1.0.2/MSDK/lwip/lwip-2.1.2/src/api\netifapi.c ****  * @file
   3:C:/Users/stapi/OneDrive/Desktop/GD32VW553/GD32VW55X_Wifi_BLE_SDK/GD32VW55x_RELEASE_V1.0.2/MSDK/lwip/lwip-2.1.2/src/api\netifapi.c ****  * Network Interface Sequential API module
   4:C:/Users/stapi/OneDrive/Desktop/GD32VW553/GD32VW55X_Wifi_BLE_SDK/GD32VW55x_RELEASE_V1.0.2/MSDK/lwip/lwip-2.1.2/src/api\netifapi.c ****  *
   5:C:/Users/stapi/OneDrive/Desktop/GD32VW553/GD32VW55X_Wifi_BLE_SDK/GD32VW55x_RELEASE_V1.0.2/MSDK/lwip/lwip-2.1.2/src/api\netifapi.c ****  * @defgroup netifapi NETIF API
   6:C:/Users/stapi/OneDrive/Desktop/GD32VW553/GD32VW55X_Wifi_BLE_SDK/GD32VW55x_RELEASE_V1.0.2/MSDK/lwip/lwip-2.1.2/src/api\netifapi.c ****  * @ingroup sequential_api
   7:C:/Users/stapi/OneDrive/Desktop/GD32VW553/GD32VW55X_Wifi_BLE_SDK/GD32VW55x_RELEASE_V1.0.2/MSDK/lwip/lwip-2.1.2/src/api\netifapi.c ****  * Thread-safe functions to be called from non-TCPIP threads
   8:C:/Users/stapi/OneDrive/Desktop/GD32VW553/GD32VW55X_Wifi_BLE_SDK/GD32VW55x_RELEASE_V1.0.2/MSDK/lwip/lwip-2.1.2/src/api\netifapi.c ****  *
   9:C:/Users/stapi/OneDrive/Desktop/GD32VW553/GD32VW55X_Wifi_BLE_SDK/GD32VW55x_RELEASE_V1.0.2/MSDK/lwip/lwip-2.1.2/src/api\netifapi.c ****  * @defgroup netifapi_netif NETIF related
  10:C:/Users/stapi/OneDrive/Desktop/GD32VW553/GD32VW55X_Wifi_BLE_SDK/GD32VW55x_RELEASE_V1.0.2/MSDK/lwip/lwip-2.1.2/src/api\netifapi.c ****  * @ingroup netifapi
  11:C:/Users/stapi/OneDrive/Desktop/GD32VW553/GD32VW55X_Wifi_BLE_SDK/GD32VW55x_RELEASE_V1.0.2/MSDK/lwip/lwip-2.1.2/src/api\netifapi.c ****  * To be called from non-TCPIP threads
  12:C:/Users/stapi/OneDrive/Desktop/GD32VW553/GD32VW55X_Wifi_BLE_SDK/GD32VW55x_RELEASE_V1.0.2/MSDK/lwip/lwip-2.1.2/src/api\netifapi.c ****  */
  13:C:/Users/stapi/OneDrive/Desktop/GD32VW553/GD32VW55X_Wifi_BLE_SDK/GD32VW55x_RELEASE_V1.0.2/MSDK/lwip/lwip-2.1.2/src/api\netifapi.c **** 
  14:C:/Users/stapi/OneDrive/Desktop/GD32VW553/GD32VW55X_Wifi_BLE_SDK/GD32VW55x_RELEASE_V1.0.2/MSDK/lwip/lwip-2.1.2/src/api\netifapi.c **** /*
  15:C:/Users/stapi/OneDrive/Desktop/GD32VW553/GD32VW55X_Wifi_BLE_SDK/GD32VW55x_RELEASE_V1.0.2/MSDK/lwip/lwip-2.1.2/src/api\netifapi.c ****  * Redistribution and use in source and binary forms, with or without modification,
  16:C:/Users/stapi/OneDrive/Desktop/GD32VW553/GD32VW55X_Wifi_BLE_SDK/GD32VW55x_RELEASE_V1.0.2/MSDK/lwip/lwip-2.1.2/src/api\netifapi.c ****  * are permitted provided that the following conditions are met:
  17:C:/Users/stapi/OneDrive/Desktop/GD32VW553/GD32VW55X_Wifi_BLE_SDK/GD32VW55x_RELEASE_V1.0.2/MSDK/lwip/lwip-2.1.2/src/api\netifapi.c ****  *
  18:C:/Users/stapi/OneDrive/Desktop/GD32VW553/GD32VW55X_Wifi_BLE_SDK/GD32VW55x_RELEASE_V1.0.2/MSDK/lwip/lwip-2.1.2/src/api\netifapi.c ****  * 1. Redistributions of source code must retain the above copyright notice,
  19:C:/Users/stapi/OneDrive/Desktop/GD32VW553/GD32VW55X_Wifi_BLE_SDK/GD32VW55x_RELEASE_V1.0.2/MSDK/lwip/lwip-2.1.2/src/api\netifapi.c ****  *    this list of conditions and the following disclaimer.
  20:C:/Users/stapi/OneDrive/Desktop/GD32VW553/GD32VW55X_Wifi_BLE_SDK/GD32VW55x_RELEASE_V1.0.2/MSDK/lwip/lwip-2.1.2/src/api\netifapi.c ****  * 2. Redistributions in binary form must reproduce the above copyright notice,
  21:C:/Users/stapi/OneDrive/Desktop/GD32VW553/GD32VW55X_Wifi_BLE_SDK/GD32VW55x_RELEASE_V1.0.2/MSDK/lwip/lwip-2.1.2/src/api\netifapi.c ****  *    this list of conditions and the following disclaimer in the documentation
  22:C:/Users/stapi/OneDrive/Desktop/GD32VW553/GD32VW55X_Wifi_BLE_SDK/GD32VW55x_RELEASE_V1.0.2/MSDK/lwip/lwip-2.1.2/src/api\netifapi.c ****  *    and/or other materials provided with the distribution.
  23:C:/Users/stapi/OneDrive/Desktop/GD32VW553/GD32VW55X_Wifi_BLE_SDK/GD32VW55x_RELEASE_V1.0.2/MSDK/lwip/lwip-2.1.2/src/api\netifapi.c ****  * 3. The name of the author may not be used to endorse or promote products
  24:C:/Users/stapi/OneDrive/Desktop/GD32VW553/GD32VW55X_Wifi_BLE_SDK/GD32VW55x_RELEASE_V1.0.2/MSDK/lwip/lwip-2.1.2/src/api\netifapi.c ****  *    derived from this software without specific prior written permission.
  25:C:/Users/stapi/OneDrive/Desktop/GD32VW553/GD32VW55X_Wifi_BLE_SDK/GD32VW55x_RELEASE_V1.0.2/MSDK/lwip/lwip-2.1.2/src/api\netifapi.c ****  *
  26:C:/Users/stapi/OneDrive/Desktop/GD32VW553/GD32VW55X_Wifi_BLE_SDK/GD32VW55x_RELEASE_V1.0.2/MSDK/lwip/lwip-2.1.2/src/api\netifapi.c ****  * THIS SOFTWARE IS PROVIDED BY THE AUTHOR ``AS IS'' AND ANY EXPRESS OR IMPLIED
  27:C:/Users/stapi/OneDrive/Desktop/GD32VW553/GD32VW55X_Wifi_BLE_SDK/GD32VW55x_RELEASE_V1.0.2/MSDK/lwip/lwip-2.1.2/src/api\netifapi.c ****  * WARRANTIES, INCLUDING, BUT NOT LIMITED TO, THE IMPLIED WARRANTIES OF
  28:C:/Users/stapi/OneDrive/Desktop/GD32VW553/GD32VW55X_Wifi_BLE_SDK/GD32VW55x_RELEASE_V1.0.2/MSDK/lwip/lwip-2.1.2/src/api\netifapi.c ****  * MERCHANTABILITY AND FITNESS FOR A PARTICULAR PURPOSE ARE DISCLAIMED. IN NO EVENT
  29:C:/Users/stapi/OneDrive/Desktop/GD32VW553/GD32VW55X_Wifi_BLE_SDK/GD32VW55x_RELEASE_V1.0.2/MSDK/lwip/lwip-2.1.2/src/api\netifapi.c ****  * SHALL THE AUTHOR BE LIABLE FOR ANY DIRECT, INDIRECT, INCIDENTAL, SPECIAL,
  30:C:/Users/stapi/OneDrive/Desktop/GD32VW553/GD32VW55X_Wifi_BLE_SDK/GD32VW55x_RELEASE_V1.0.2/MSDK/lwip/lwip-2.1.2/src/api\netifapi.c ****  * EXEMPLARY, OR CONSEQUENTIAL DAMAGES (INCLUDING, BUT NOT LIMITED TO, PROCUREMENT
  31:C:/Users/stapi/OneDrive/Desktop/GD32VW553/GD32VW55X_Wifi_BLE_SDK/GD32VW55x_RELEASE_V1.0.2/MSDK/lwip/lwip-2.1.2/src/api\netifapi.c ****  * OF SUBSTITUTE GOODS OR SERVICES; LOSS OF USE, DATA, OR PROFITS; OR BUSINESS
  32:C:/Users/stapi/OneDrive/Desktop/GD32VW553/GD32VW55X_Wifi_BLE_SDK/GD32VW55x_RELEASE_V1.0.2/MSDK/lwip/lwip-2.1.2/src/api\netifapi.c ****  * INTERRUPTION) HOWEVER CAUSED AND ON ANY THEORY OF LIABILITY, WHETHER IN
  33:C:/Users/stapi/OneDrive/Desktop/GD32VW553/GD32VW55X_Wifi_BLE_SDK/GD32VW55x_RELEASE_V1.0.2/MSDK/lwip/lwip-2.1.2/src/api\netifapi.c ****  * CONTRACT, STRICT LIABILITY, OR TORT (INCLUDING NEGLIGENCE OR OTHERWISE) ARISING
  34:C:/Users/stapi/OneDrive/Desktop/GD32VW553/GD32VW55X_Wifi_BLE_SDK/GD32VW55x_RELEASE_V1.0.2/MSDK/lwip/lwip-2.1.2/src/api\netifapi.c ****  * IN ANY WAY OUT OF THE USE OF THIS SOFTWARE, EVEN IF ADVISED OF THE POSSIBILITY
  35:C:/Users/stapi/OneDrive/Desktop/GD32VW553/GD32VW55X_Wifi_BLE_SDK/GD32VW55x_RELEASE_V1.0.2/MSDK/lwip/lwip-2.1.2/src/api\netifapi.c ****  * OF SUCH DAMAGE.
  36:C:/Users/stapi/OneDrive/Desktop/GD32VW553/GD32VW55X_Wifi_BLE_SDK/GD32VW55x_RELEASE_V1.0.2/MSDK/lwip/lwip-2.1.2/src/api\netifapi.c ****  *
  37:C:/Users/stapi/OneDrive/Desktop/GD32VW553/GD32VW55X_Wifi_BLE_SDK/GD32VW55x_RELEASE_V1.0.2/MSDK/lwip/lwip-2.1.2/src/api\netifapi.c ****  * This file is part of the lwIP TCP/IP stack.
  38:C:/Users/stapi/OneDrive/Desktop/GD32VW553/GD32VW55X_Wifi_BLE_SDK/GD32VW55x_RELEASE_V1.0.2/MSDK/lwip/lwip-2.1.2/src/api\netifapi.c ****  *
  39:C:/Users/stapi/OneDrive/Desktop/GD32VW553/GD32VW55X_Wifi_BLE_SDK/GD32VW55x_RELEASE_V1.0.2/MSDK/lwip/lwip-2.1.2/src/api\netifapi.c ****  */
  40:C:/Users/stapi/OneDrive/Desktop/GD32VW553/GD32VW55X_Wifi_BLE_SDK/GD32VW55x_RELEASE_V1.0.2/MSDK/lwip/lwip-2.1.2/src/api\netifapi.c **** 
  41:C:/Users/stapi/OneDrive/Desktop/GD32VW553/GD32VW55X_Wifi_BLE_SDK/GD32VW55x_RELEASE_V1.0.2/MSDK/lwip/lwip-2.1.2/src/api\netifapi.c **** #include "lwip/opt.h"
  42:C:/Users/stapi/OneDrive/Desktop/GD32VW553/GD32VW55X_Wifi_BLE_SDK/GD32VW55x_RELEASE_V1.0.2/MSDK/lwip/lwip-2.1.2/src/api\netifapi.c **** 
  43:C:/Users/stapi/OneDrive/Desktop/GD32VW553/GD32VW55X_Wifi_BLE_SDK/GD32VW55x_RELEASE_V1.0.2/MSDK/lwip/lwip-2.1.2/src/api\netifapi.c **** #if LWIP_NETIF_API /* don't build if not configured for use in lwipopts.h */
  44:C:/Users/stapi/OneDrive/Desktop/GD32VW553/GD32VW55X_Wifi_BLE_SDK/GD32VW55x_RELEASE_V1.0.2/MSDK/lwip/lwip-2.1.2/src/api\netifapi.c **** 
  45:C:/Users/stapi/OneDrive/Desktop/GD32VW553/GD32VW55X_Wifi_BLE_SDK/GD32VW55x_RELEASE_V1.0.2/MSDK/lwip/lwip-2.1.2/src/api\netifapi.c **** #include "lwip/etharp.h"
  46:C:/Users/stapi/OneDrive/Desktop/GD32VW553/GD32VW55X_Wifi_BLE_SDK/GD32VW55x_RELEASE_V1.0.2/MSDK/lwip/lwip-2.1.2/src/api\netifapi.c **** #include "lwip/netifapi.h"
  47:C:/Users/stapi/OneDrive/Desktop/GD32VW553/GD32VW55X_Wifi_BLE_SDK/GD32VW55x_RELEASE_V1.0.2/MSDK/lwip/lwip-2.1.2/src/api\netifapi.c **** #include "lwip/memp.h"
  48:C:/Users/stapi/OneDrive/Desktop/GD32VW553/GD32VW55X_Wifi_BLE_SDK/GD32VW55x_RELEASE_V1.0.2/MSDK/lwip/lwip-2.1.2/src/api\netifapi.c **** #include "lwip/priv/tcpip_priv.h"
  49:C:/Users/stapi/OneDrive/Desktop/GD32VW553/GD32VW55X_Wifi_BLE_SDK/GD32VW55x_RELEASE_V1.0.2/MSDK/lwip/lwip-2.1.2/src/api\netifapi.c **** 
  50:C:/Users/stapi/OneDrive/Desktop/GD32VW553/GD32VW55X_Wifi_BLE_SDK/GD32VW55x_RELEASE_V1.0.2/MSDK/lwip/lwip-2.1.2/src/api\netifapi.c **** #include <string.h> /* strncpy */
  51:C:/Users/stapi/OneDrive/Desktop/GD32VW553/GD32VW55X_Wifi_BLE_SDK/GD32VW55x_RELEASE_V1.0.2/MSDK/lwip/lwip-2.1.2/src/api\netifapi.c **** 
  52:C:/Users/stapi/OneDrive/Desktop/GD32VW553/GD32VW55X_Wifi_BLE_SDK/GD32VW55x_RELEASE_V1.0.2/MSDK/lwip/lwip-2.1.2/src/api\netifapi.c **** #define NETIFAPI_VAR_REF(name)      API_VAR_REF(name)
  53:C:/Users/stapi/OneDrive/Desktop/GD32VW553/GD32VW55X_Wifi_BLE_SDK/GD32VW55x_RELEASE_V1.0.2/MSDK/lwip/lwip-2.1.2/src/api\netifapi.c **** #define NETIFAPI_VAR_DECLARE(name)  API_VAR_DECLARE(struct netifapi_msg, name)
  54:C:/Users/stapi/OneDrive/Desktop/GD32VW553/GD32VW55X_Wifi_BLE_SDK/GD32VW55x_RELEASE_V1.0.2/MSDK/lwip/lwip-2.1.2/src/api\netifapi.c **** #define NETIFAPI_VAR_ALLOC(name)    API_VAR_ALLOC(struct netifapi_msg, MEMP_NETIFAPI_MSG, name, ERR
  55:C:/Users/stapi/OneDrive/Desktop/GD32VW553/GD32VW55X_Wifi_BLE_SDK/GD32VW55x_RELEASE_V1.0.2/MSDK/lwip/lwip-2.1.2/src/api\netifapi.c **** #define NETIFAPI_VAR_FREE(name)     API_VAR_FREE(MEMP_NETIFAPI_MSG, name)
  56:C:/Users/stapi/OneDrive/Desktop/GD32VW553/GD32VW55X_Wifi_BLE_SDK/GD32VW55x_RELEASE_V1.0.2/MSDK/lwip/lwip-2.1.2/src/api\netifapi.c **** 
  57:C:/Users/stapi/OneDrive/Desktop/GD32VW553/GD32VW55X_Wifi_BLE_SDK/GD32VW55x_RELEASE_V1.0.2/MSDK/lwip/lwip-2.1.2/src/api\netifapi.c **** /**
  58:C:/Users/stapi/OneDrive/Desktop/GD32VW553/GD32VW55X_Wifi_BLE_SDK/GD32VW55x_RELEASE_V1.0.2/MSDK/lwip/lwip-2.1.2/src/api\netifapi.c ****  * Call netif_add() inside the tcpip_thread context.
  59:C:/Users/stapi/OneDrive/Desktop/GD32VW553/GD32VW55X_Wifi_BLE_SDK/GD32VW55x_RELEASE_V1.0.2/MSDK/lwip/lwip-2.1.2/src/api\netifapi.c ****  */
  60:C:/Users/stapi/OneDrive/Desktop/GD32VW553/GD32VW55X_Wifi_BLE_SDK/GD32VW55x_RELEASE_V1.0.2/MSDK/lwip/lwip-2.1.2/src/api\netifapi.c **** static err_t
  61:C:/Users/stapi/OneDrive/Desktop/GD32VW553/GD32VW55X_Wifi_BLE_SDK/GD32VW55x_RELEASE_V1.0.2/MSDK/lwip/lwip-2.1.2/src/api\netifapi.c **** netifapi_do_netif_add(struct tcpip_api_call_data *m)
  62:C:/Users/stapi/OneDrive/Desktop/GD32VW553/GD32VW55X_Wifi_BLE_SDK/GD32VW55x_RELEASE_V1.0.2/MSDK/lwip/lwip-2.1.2/src/api\netifapi.c **** {
  15              		.loc 1 62 1
  16              		.cfi_startproc
  17              	.LVL0:
  18 0000 17030000 		call	t0,__riscv_save_0
  18      E7020300 
  19              		.cfi_offset 1, -4
  20              		.cfi_def_cfa_offset 16
  63:C:/Users/stapi/OneDrive/Desktop/GD32VW553/GD32VW55X_Wifi_BLE_SDK/GD32VW55x_RELEASE_V1.0.2/MSDK/lwip/lwip-2.1.2/src/api\netifapi.c ****   /* cast through void* to silence alignment warnings.
  64:C:/Users/stapi/OneDrive/Desktop/GD32VW553/GD32VW55X_Wifi_BLE_SDK/GD32VW55x_RELEASE_V1.0.2/MSDK/lwip/lwip-2.1.2/src/api\netifapi.c ****    * We know it works because the structs have been instantiated as struct netifapi_msg */
  65:C:/Users/stapi/OneDrive/Desktop/GD32VW553/GD32VW55X_Wifi_BLE_SDK/GD32VW55x_RELEASE_V1.0.2/MSDK/lwip/lwip-2.1.2/src/api\netifapi.c ****   struct netifapi_msg *msg = (struct netifapi_msg *)(void *)m;
  21              		.loc 1 65 3
  22              	.LVL1:
  66:C:/Users/stapi/OneDrive/Desktop/GD32VW553/GD32VW55X_Wifi_BLE_SDK/GD32VW55x_RELEASE_V1.0.2/MSDK/lwip/lwip-2.1.2/src/api\netifapi.c **** 
  67:C:/Users/stapi/OneDrive/Desktop/GD32VW553/GD32VW55X_Wifi_BLE_SDK/GD32VW55x_RELEASE_V1.0.2/MSDK/lwip/lwip-2.1.2/src/api\netifapi.c ****   if (!netif_add( msg->netif,
  23              		.loc 1 67 3
  24              		.loc 1 67 8 is_stmt 0
  25 0008 0328C501 		lw	a6,28(a0)
  26 000c 1C4D     		lw	a5,24(a0)
  27 000e 5849     		lw	a4,20(a0)
  28 0010 1449     		lw	a3,16(a0)
  29 0012 5045     		lw	a2,12(a0)
  30 0014 0C45     		lw	a1,8(a0)
  31 0016 4841     		lw	a0,4(a0)
  32              	.LVL2:
  33 0018 97000000 		call	netif_add
  33      E7800000 
  34              	.LVL3:
  35              		.loc 1 67 6
  36 0020 11C5     		beq	a0,zero,.L3
  68:C:/Users/stapi/OneDrive/Desktop/GD32VW553/GD32VW55X_Wifi_BLE_SDK/GD32VW55x_RELEASE_V1.0.2/MSDK/lwip/lwip-2.1.2/src/api\netifapi.c **** #if LWIP_IPV4
  69:C:/Users/stapi/OneDrive/Desktop/GD32VW553/GD32VW55X_Wifi_BLE_SDK/GD32VW55x_RELEASE_V1.0.2/MSDK/lwip/lwip-2.1.2/src/api\netifapi.c ****                   API_EXPR_REF(msg->msg.add.ipaddr),
  70:C:/Users/stapi/OneDrive/Desktop/GD32VW553/GD32VW55X_Wifi_BLE_SDK/GD32VW55x_RELEASE_V1.0.2/MSDK/lwip/lwip-2.1.2/src/api\netifapi.c ****                   API_EXPR_REF(msg->msg.add.netmask),
  71:C:/Users/stapi/OneDrive/Desktop/GD32VW553/GD32VW55X_Wifi_BLE_SDK/GD32VW55x_RELEASE_V1.0.2/MSDK/lwip/lwip-2.1.2/src/api\netifapi.c ****                   API_EXPR_REF(msg->msg.add.gw),
  72:C:/Users/stapi/OneDrive/Desktop/GD32VW553/GD32VW55X_Wifi_BLE_SDK/GD32VW55x_RELEASE_V1.0.2/MSDK/lwip/lwip-2.1.2/src/api\netifapi.c **** #endif /* LWIP_IPV4 */
  73:C:/Users/stapi/OneDrive/Desktop/GD32VW553/GD32VW55X_Wifi_BLE_SDK/GD32VW55x_RELEASE_V1.0.2/MSDK/lwip/lwip-2.1.2/src/api\netifapi.c ****                   msg->msg.add.state,
  74:C:/Users/stapi/OneDrive/Desktop/GD32VW553/GD32VW55X_Wifi_BLE_SDK/GD32VW55x_RELEASE_V1.0.2/MSDK/lwip/lwip-2.1.2/src/api\netifapi.c ****                   msg->msg.add.init,
  75:C:/Users/stapi/OneDrive/Desktop/GD32VW553/GD32VW55X_Wifi_BLE_SDK/GD32VW55x_RELEASE_V1.0.2/MSDK/lwip/lwip-2.1.2/src/api\netifapi.c ****                   msg->msg.add.input)) {
  76:C:/Users/stapi/OneDrive/Desktop/GD32VW553/GD32VW55X_Wifi_BLE_SDK/GD32VW55x_RELEASE_V1.0.2/MSDK/lwip/lwip-2.1.2/src/api\netifapi.c ****     return ERR_IF;
  77:C:/Users/stapi/OneDrive/Desktop/GD32VW553/GD32VW55X_Wifi_BLE_SDK/GD32VW55x_RELEASE_V1.0.2/MSDK/lwip/lwip-2.1.2/src/api\netifapi.c ****   } else {
  78:C:/Users/stapi/OneDrive/Desktop/GD32VW553/GD32VW55X_Wifi_BLE_SDK/GD32VW55x_RELEASE_V1.0.2/MSDK/lwip/lwip-2.1.2/src/api\netifapi.c ****     return ERR_OK;
  37              		.loc 1 78 12
  38 0022 0145     		li	a0,0
  39              	.L2:
  79:C:/Users/stapi/OneDrive/Desktop/GD32VW553/GD32VW55X_Wifi_BLE_SDK/GD32VW55x_RELEASE_V1.0.2/MSDK/lwip/lwip-2.1.2/src/api\netifapi.c ****   }
  80:C:/Users/stapi/OneDrive/Desktop/GD32VW553/GD32VW55X_Wifi_BLE_SDK/GD32VW55x_RELEASE_V1.0.2/MSDK/lwip/lwip-2.1.2/src/api\netifapi.c **** }
  40              		.loc 1 80 1
  41 0024 17030000 		tail	__riscv_restore_0
  41      67000300 
  42              		.cfi_remember_state
  43              		.cfi_restore 1
  44              		.cfi_def_cfa_offset 0
  45              	.L3:
  46              		.cfi_restore_state
  76:C:/Users/stapi/OneDrive/Desktop/GD32VW553/GD32VW55X_Wifi_BLE_SDK/GD32VW55x_RELEASE_V1.0.2/MSDK/lwip/lwip-2.1.2/src/api\netifapi.c ****   } else {
  47              		.loc 1 76 12
  48 002c 5155     		li	a0,-12
  49 002e DDBF     		j	.L2
  50              		.cfi_endproc
  51              	.LFE4:
  53              		.section	.text.netifapi_do_netif_set_addr,"ax",@progbits
  54              		.align	1
  56              	netifapi_do_netif_set_addr:
  57              	.LFB5:
  81:C:/Users/stapi/OneDrive/Desktop/GD32VW553/GD32VW55X_Wifi_BLE_SDK/GD32VW55x_RELEASE_V1.0.2/MSDK/lwip/lwip-2.1.2/src/api\netifapi.c **** 
  82:C:/Users/stapi/OneDrive/Desktop/GD32VW553/GD32VW55X_Wifi_BLE_SDK/GD32VW55x_RELEASE_V1.0.2/MSDK/lwip/lwip-2.1.2/src/api\netifapi.c **** #if LWIP_IPV4
  83:C:/Users/stapi/OneDrive/Desktop/GD32VW553/GD32VW55X_Wifi_BLE_SDK/GD32VW55x_RELEASE_V1.0.2/MSDK/lwip/lwip-2.1.2/src/api\netifapi.c **** /**
  84:C:/Users/stapi/OneDrive/Desktop/GD32VW553/GD32VW55X_Wifi_BLE_SDK/GD32VW55x_RELEASE_V1.0.2/MSDK/lwip/lwip-2.1.2/src/api\netifapi.c ****  * Call netif_set_addr() inside the tcpip_thread context.
  85:C:/Users/stapi/OneDrive/Desktop/GD32VW553/GD32VW55X_Wifi_BLE_SDK/GD32VW55x_RELEASE_V1.0.2/MSDK/lwip/lwip-2.1.2/src/api\netifapi.c ****  */
  86:C:/Users/stapi/OneDrive/Desktop/GD32VW553/GD32VW55X_Wifi_BLE_SDK/GD32VW55x_RELEASE_V1.0.2/MSDK/lwip/lwip-2.1.2/src/api\netifapi.c **** static err_t
  87:C:/Users/stapi/OneDrive/Desktop/GD32VW553/GD32VW55X_Wifi_BLE_SDK/GD32VW55x_RELEASE_V1.0.2/MSDK/lwip/lwip-2.1.2/src/api\netifapi.c **** netifapi_do_netif_set_addr(struct tcpip_api_call_data *m)
  88:C:/Users/stapi/OneDrive/Desktop/GD32VW553/GD32VW55X_Wifi_BLE_SDK/GD32VW55x_RELEASE_V1.0.2/MSDK/lwip/lwip-2.1.2/src/api\netifapi.c **** {
  58              		.loc 1 88 1 is_stmt 1
  59              		.cfi_startproc
  60              	.LVL4:
  61 0000 17030000 		call	t0,__riscv_save_0
  61      E7020300 
  62              		.cfi_offset 1, -4
  63              		.cfi_def_cfa_offset 16
  89:C:/Users/stapi/OneDrive/Desktop/GD32VW553/GD32VW55X_Wifi_BLE_SDK/GD32VW55x_RELEASE_V1.0.2/MSDK/lwip/lwip-2.1.2/src/api\netifapi.c ****   /* cast through void* to silence alignment warnings.
  90:C:/Users/stapi/OneDrive/Desktop/GD32VW553/GD32VW55X_Wifi_BLE_SDK/GD32VW55x_RELEASE_V1.0.2/MSDK/lwip/lwip-2.1.2/src/api\netifapi.c ****    * We know it works because the structs have been instantiated as struct netifapi_msg */
  91:C:/Users/stapi/OneDrive/Desktop/GD32VW553/GD32VW55X_Wifi_BLE_SDK/GD32VW55x_RELEASE_V1.0.2/MSDK/lwip/lwip-2.1.2/src/api\netifapi.c ****   struct netifapi_msg *msg = (struct netifapi_msg *)(void *)m;
  64              		.loc 1 91 3
  65              	.LVL5:
  92:C:/Users/stapi/OneDrive/Desktop/GD32VW553/GD32VW55X_Wifi_BLE_SDK/GD32VW55x_RELEASE_V1.0.2/MSDK/lwip/lwip-2.1.2/src/api\netifapi.c **** 
  93:C:/Users/stapi/OneDrive/Desktop/GD32VW553/GD32VW55X_Wifi_BLE_SDK/GD32VW55x_RELEASE_V1.0.2/MSDK/lwip/lwip-2.1.2/src/api\netifapi.c ****   netif_set_addr( msg->netif,
  66              		.loc 1 93 3
  67 0008 1449     		lw	a3,16(a0)
  68 000a 5045     		lw	a2,12(a0)
  69 000c 0C45     		lw	a1,8(a0)
  70 000e 4841     		lw	a0,4(a0)
  71              	.LVL6:
  72 0010 97000000 		call	netif_set_addr
  72      E7800000 
  73              	.LVL7:
  94:C:/Users/stapi/OneDrive/Desktop/GD32VW553/GD32VW55X_Wifi_BLE_SDK/GD32VW55x_RELEASE_V1.0.2/MSDK/lwip/lwip-2.1.2/src/api\netifapi.c ****                   API_EXPR_REF(msg->msg.add.ipaddr),
  95:C:/Users/stapi/OneDrive/Desktop/GD32VW553/GD32VW55X_Wifi_BLE_SDK/GD32VW55x_RELEASE_V1.0.2/MSDK/lwip/lwip-2.1.2/src/api\netifapi.c ****                   API_EXPR_REF(msg->msg.add.netmask),
  96:C:/Users/stapi/OneDrive/Desktop/GD32VW553/GD32VW55X_Wifi_BLE_SDK/GD32VW55x_RELEASE_V1.0.2/MSDK/lwip/lwip-2.1.2/src/api\netifapi.c ****                   API_EXPR_REF(msg->msg.add.gw));
  97:C:/Users/stapi/OneDrive/Desktop/GD32VW553/GD32VW55X_Wifi_BLE_SDK/GD32VW55x_RELEASE_V1.0.2/MSDK/lwip/lwip-2.1.2/src/api\netifapi.c ****   return ERR_OK;
  74              		.loc 1 97 3
  98:C:/Users/stapi/OneDrive/Desktop/GD32VW553/GD32VW55X_Wifi_BLE_SDK/GD32VW55x_RELEASE_V1.0.2/MSDK/lwip/lwip-2.1.2/src/api\netifapi.c **** }
  75              		.loc 1 98 1 is_stmt 0
  76 0018 0145     		li	a0,0
  77 001a 17030000 		tail	__riscv_restore_0
  77      67000300 
  78              		.cfi_restore 1
  79              		.cfi_def_cfa_offset 0
  80              		.cfi_endproc
  81              	.LFE5:
  83              		.section	.text.netifapi_do_name_to_index,"ax",@progbits
  84              		.align	1
  86              	netifapi_do_name_to_index:
  87              	.LFB6:
  99:C:/Users/stapi/OneDrive/Desktop/GD32VW553/GD32VW55X_Wifi_BLE_SDK/GD32VW55x_RELEASE_V1.0.2/MSDK/lwip/lwip-2.1.2/src/api\netifapi.c **** #endif /* LWIP_IPV4 */
 100:C:/Users/stapi/OneDrive/Desktop/GD32VW553/GD32VW55X_Wifi_BLE_SDK/GD32VW55x_RELEASE_V1.0.2/MSDK/lwip/lwip-2.1.2/src/api\netifapi.c **** 
 101:C:/Users/stapi/OneDrive/Desktop/GD32VW553/GD32VW55X_Wifi_BLE_SDK/GD32VW55x_RELEASE_V1.0.2/MSDK/lwip/lwip-2.1.2/src/api\netifapi.c **** /**
 102:C:/Users/stapi/OneDrive/Desktop/GD32VW553/GD32VW55X_Wifi_BLE_SDK/GD32VW55x_RELEASE_V1.0.2/MSDK/lwip/lwip-2.1.2/src/api\netifapi.c **** * Call netif_name_to_index() inside the tcpip_thread context.
 103:C:/Users/stapi/OneDrive/Desktop/GD32VW553/GD32VW55X_Wifi_BLE_SDK/GD32VW55x_RELEASE_V1.0.2/MSDK/lwip/lwip-2.1.2/src/api\netifapi.c **** */
 104:C:/Users/stapi/OneDrive/Desktop/GD32VW553/GD32VW55X_Wifi_BLE_SDK/GD32VW55x_RELEASE_V1.0.2/MSDK/lwip/lwip-2.1.2/src/api\netifapi.c **** static err_t
 105:C:/Users/stapi/OneDrive/Desktop/GD32VW553/GD32VW55X_Wifi_BLE_SDK/GD32VW55x_RELEASE_V1.0.2/MSDK/lwip/lwip-2.1.2/src/api\netifapi.c **** netifapi_do_name_to_index(struct tcpip_api_call_data *m)
 106:C:/Users/stapi/OneDrive/Desktop/GD32VW553/GD32VW55X_Wifi_BLE_SDK/GD32VW55x_RELEASE_V1.0.2/MSDK/lwip/lwip-2.1.2/src/api\netifapi.c **** {
  88              		.loc 1 106 1 is_stmt 1
  89              		.cfi_startproc
  90              	.LVL8:
  91 0000 17030000 		call	t0,__riscv_save_1
  91      E7020300 
  92              		.cfi_offset 8, -8
  93              		.cfi_offset 1, -4
  94              		.cfi_def_cfa_offset 16
 107:C:/Users/stapi/OneDrive/Desktop/GD32VW553/GD32VW55X_Wifi_BLE_SDK/GD32VW55x_RELEASE_V1.0.2/MSDK/lwip/lwip-2.1.2/src/api\netifapi.c ****   /* cast through void* to silence alignment warnings.
 108:C:/Users/stapi/OneDrive/Desktop/GD32VW553/GD32VW55X_Wifi_BLE_SDK/GD32VW55x_RELEASE_V1.0.2/MSDK/lwip/lwip-2.1.2/src/api\netifapi.c ****    * We know it works because the structs have been instantiated as struct netifapi_msg */
 109:C:/Users/stapi/OneDrive/Desktop/GD32VW553/GD32VW55X_Wifi_BLE_SDK/GD32VW55x_RELEASE_V1.0.2/MSDK/lwip/lwip-2.1.2/src/api\netifapi.c ****   struct netifapi_msg *msg = (struct netifapi_msg *)(void *)m;
  95              		.loc 1 109 3
  96              	.LVL9:
 110:C:/Users/stapi/OneDrive/Desktop/GD32VW553/GD32VW55X_Wifi_BLE_SDK/GD32VW55x_RELEASE_V1.0.2/MSDK/lwip/lwip-2.1.2/src/api\netifapi.c **** 
 111:C:/Users/stapi/OneDrive/Desktop/GD32VW553/GD32VW55X_Wifi_BLE_SDK/GD32VW55x_RELEASE_V1.0.2/MSDK/lwip/lwip-2.1.2/src/api\netifapi.c ****   msg->msg.ifs.index = netif_name_to_index(msg->msg.ifs.name);
  97              		.loc 1 111 3
 106:C:/Users/stapi/OneDrive/Desktop/GD32VW553/GD32VW55X_Wifi_BLE_SDK/GD32VW55x_RELEASE_V1.0.2/MSDK/lwip/lwip-2.1.2/src/api\netifapi.c ****   /* cast through void* to silence alignment warnings.
  98              		.loc 1 106 1 is_stmt 0
  99 0008 2A84     		mv	s0,a0
 100              		.loc 1 111 24
 101 000a 0845     		lw	a0,8(a0)
 102              	.LVL10:
 103 000c 97000000 		call	netif_name_to_index
 103      E7800000 
 104              	.LVL11:
 105              		.loc 1 111 22
 106 0014 2306A400 		sb	a0,12(s0)
 112:C:/Users/stapi/OneDrive/Desktop/GD32VW553/GD32VW55X_Wifi_BLE_SDK/GD32VW55x_RELEASE_V1.0.2/MSDK/lwip/lwip-2.1.2/src/api\netifapi.c ****   return ERR_OK;
 107              		.loc 1 112 3 is_stmt 1
 113:C:/Users/stapi/OneDrive/Desktop/GD32VW553/GD32VW55X_Wifi_BLE_SDK/GD32VW55x_RELEASE_V1.0.2/MSDK/lwip/lwip-2.1.2/src/api\netifapi.c **** }
 108              		.loc 1 113 1 is_stmt 0
 109 0018 0145     		li	a0,0
 110 001a 17030000 		tail	__riscv_restore_1
 110      67000300 
 111              		.cfi_restore 8
 112              		.cfi_restore 1
 113              		.cfi_def_cfa_offset 0
 114              		.cfi_endproc
 115              	.LFE6:
 117              		.section	.text.netifapi_do_index_to_name,"ax",@progbits
 118              		.align	1
 120              	netifapi_do_index_to_name:
 121              	.LFB7:
 114:C:/Users/stapi/OneDrive/Desktop/GD32VW553/GD32VW55X_Wifi_BLE_SDK/GD32VW55x_RELEASE_V1.0.2/MSDK/lwip/lwip-2.1.2/src/api\netifapi.c **** 
 115:C:/Users/stapi/OneDrive/Desktop/GD32VW553/GD32VW55X_Wifi_BLE_SDK/GD32VW55x_RELEASE_V1.0.2/MSDK/lwip/lwip-2.1.2/src/api\netifapi.c **** /**
 116:C:/Users/stapi/OneDrive/Desktop/GD32VW553/GD32VW55X_Wifi_BLE_SDK/GD32VW55x_RELEASE_V1.0.2/MSDK/lwip/lwip-2.1.2/src/api\netifapi.c **** * Call netif_index_to_name() inside the tcpip_thread context.
 117:C:/Users/stapi/OneDrive/Desktop/GD32VW553/GD32VW55X_Wifi_BLE_SDK/GD32VW55x_RELEASE_V1.0.2/MSDK/lwip/lwip-2.1.2/src/api\netifapi.c **** */
 118:C:/Users/stapi/OneDrive/Desktop/GD32VW553/GD32VW55X_Wifi_BLE_SDK/GD32VW55x_RELEASE_V1.0.2/MSDK/lwip/lwip-2.1.2/src/api\netifapi.c **** static err_t
 119:C:/Users/stapi/OneDrive/Desktop/GD32VW553/GD32VW55X_Wifi_BLE_SDK/GD32VW55x_RELEASE_V1.0.2/MSDK/lwip/lwip-2.1.2/src/api\netifapi.c **** netifapi_do_index_to_name(struct tcpip_api_call_data *m)
 120:C:/Users/stapi/OneDrive/Desktop/GD32VW553/GD32VW55X_Wifi_BLE_SDK/GD32VW55x_RELEASE_V1.0.2/MSDK/lwip/lwip-2.1.2/src/api\netifapi.c **** {
 122              		.loc 1 120 1 is_stmt 1
 123              		.cfi_startproc
 124              	.LVL12:
 125 0000 17030000 		call	t0,__riscv_save_1
 125      E7020300 
 126              		.cfi_offset 8, -8
 127              		.cfi_offset 1, -4
 128              		.cfi_def_cfa_offset 16
 121:C:/Users/stapi/OneDrive/Desktop/GD32VW553/GD32VW55X_Wifi_BLE_SDK/GD32VW55x_RELEASE_V1.0.2/MSDK/lwip/lwip-2.1.2/src/api\netifapi.c ****   /* cast through void* to silence alignment warnings.
 122:C:/Users/stapi/OneDrive/Desktop/GD32VW553/GD32VW55X_Wifi_BLE_SDK/GD32VW55x_RELEASE_V1.0.2/MSDK/lwip/lwip-2.1.2/src/api\netifapi.c ****    * We know it works because the structs have been instantiated as struct netifapi_msg */
 123:C:/Users/stapi/OneDrive/Desktop/GD32VW553/GD32VW55X_Wifi_BLE_SDK/GD32VW55x_RELEASE_V1.0.2/MSDK/lwip/lwip-2.1.2/src/api\netifapi.c ****   struct netifapi_msg *msg = (struct netifapi_msg *)(void *)m;
 129              		.loc 1 123 3
 130              	.LVL13:
 124:C:/Users/stapi/OneDrive/Desktop/GD32VW553/GD32VW55X_Wifi_BLE_SDK/GD32VW55x_RELEASE_V1.0.2/MSDK/lwip/lwip-2.1.2/src/api\netifapi.c **** 
 125:C:/Users/stapi/OneDrive/Desktop/GD32VW553/GD32VW55X_Wifi_BLE_SDK/GD32VW55x_RELEASE_V1.0.2/MSDK/lwip/lwip-2.1.2/src/api\netifapi.c ****   if (!netif_index_to_name(msg->msg.ifs.index, msg->msg.ifs.name)) {
 131              		.loc 1 125 3
 132              		.loc 1 125 8 is_stmt 0
 133 0008 0C45     		lw	a1,8(a0)
 120:C:/Users/stapi/OneDrive/Desktop/GD32VW553/GD32VW55X_Wifi_BLE_SDK/GD32VW55x_RELEASE_V1.0.2/MSDK/lwip/lwip-2.1.2/src/api\netifapi.c ****   /* cast through void* to silence alignment warnings.
 134              		.loc 1 120 1
 135 000a 2A84     		mv	s0,a0
 136              		.loc 1 125 8
 137 000c 0345C500 		lbu	a0,12(a0)
 138              	.LVL14:
 139 0010 97000000 		call	netif_index_to_name
 139      E7800000 
 140              	.LVL15:
 141              		.loc 1 125 6
 142 0018 01E5     		bne	a0,zero,.L10
 126:C:/Users/stapi/OneDrive/Desktop/GD32VW553/GD32VW55X_Wifi_BLE_SDK/GD32VW55x_RELEASE_V1.0.2/MSDK/lwip/lwip-2.1.2/src/api\netifapi.c ****     /* return failure via empty name */
 127:C:/Users/stapi/OneDrive/Desktop/GD32VW553/GD32VW55X_Wifi_BLE_SDK/GD32VW55x_RELEASE_V1.0.2/MSDK/lwip/lwip-2.1.2/src/api\netifapi.c ****     msg->msg.ifs.name[0] = '\0';
 143              		.loc 1 127 5 is_stmt 1
 144              		.loc 1 127 17 is_stmt 0
 145 001a 1C44     		lw	a5,8(s0)
 146              		.loc 1 127 26
 147 001c 23800700 		sb	zero,0(a5)
 148              	.L10:
 128:C:/Users/stapi/OneDrive/Desktop/GD32VW553/GD32VW55X_Wifi_BLE_SDK/GD32VW55x_RELEASE_V1.0.2/MSDK/lwip/lwip-2.1.2/src/api\netifapi.c ****   }
 129:C:/Users/stapi/OneDrive/Desktop/GD32VW553/GD32VW55X_Wifi_BLE_SDK/GD32VW55x_RELEASE_V1.0.2/MSDK/lwip/lwip-2.1.2/src/api\netifapi.c ****   return ERR_OK;
 149              		.loc 1 129 3 is_stmt 1
 130:C:/Users/stapi/OneDrive/Desktop/GD32VW553/GD32VW55X_Wifi_BLE_SDK/GD32VW55x_RELEASE_V1.0.2/MSDK/lwip/lwip-2.1.2/src/api\netifapi.c **** }
 150              		.loc 1 130 1 is_stmt 0
 151 0020 0145     		li	a0,0
 152 0022 17030000 		tail	__riscv_restore_1
 152      67000300 
 153              		.cfi_restore 8
 154              		.cfi_restore 1
 155              		.cfi_def_cfa_offset 0
 156              		.cfi_endproc
 157              	.LFE7:
 159              		.section	.text.netifapi_do_netif_common,"ax",@progbits
 160              		.align	1
 162              	netifapi_do_netif_common:
 163              	.LFB8:
 131:C:/Users/stapi/OneDrive/Desktop/GD32VW553/GD32VW55X_Wifi_BLE_SDK/GD32VW55x_RELEASE_V1.0.2/MSDK/lwip/lwip-2.1.2/src/api\netifapi.c **** 
 132:C:/Users/stapi/OneDrive/Desktop/GD32VW553/GD32VW55X_Wifi_BLE_SDK/GD32VW55x_RELEASE_V1.0.2/MSDK/lwip/lwip-2.1.2/src/api\netifapi.c **** /**
 133:C:/Users/stapi/OneDrive/Desktop/GD32VW553/GD32VW55X_Wifi_BLE_SDK/GD32VW55x_RELEASE_V1.0.2/MSDK/lwip/lwip-2.1.2/src/api\netifapi.c ****  * Call the "errtfunc" (or the "voidfunc" if "errtfunc" is NULL) inside the
 134:C:/Users/stapi/OneDrive/Desktop/GD32VW553/GD32VW55X_Wifi_BLE_SDK/GD32VW55x_RELEASE_V1.0.2/MSDK/lwip/lwip-2.1.2/src/api\netifapi.c ****  * tcpip_thread context.
 135:C:/Users/stapi/OneDrive/Desktop/GD32VW553/GD32VW55X_Wifi_BLE_SDK/GD32VW55x_RELEASE_V1.0.2/MSDK/lwip/lwip-2.1.2/src/api\netifapi.c ****  */
 136:C:/Users/stapi/OneDrive/Desktop/GD32VW553/GD32VW55X_Wifi_BLE_SDK/GD32VW55x_RELEASE_V1.0.2/MSDK/lwip/lwip-2.1.2/src/api\netifapi.c **** static err_t
 137:C:/Users/stapi/OneDrive/Desktop/GD32VW553/GD32VW55X_Wifi_BLE_SDK/GD32VW55x_RELEASE_V1.0.2/MSDK/lwip/lwip-2.1.2/src/api\netifapi.c **** netifapi_do_netif_common(struct tcpip_api_call_data *m)
 138:C:/Users/stapi/OneDrive/Desktop/GD32VW553/GD32VW55X_Wifi_BLE_SDK/GD32VW55x_RELEASE_V1.0.2/MSDK/lwip/lwip-2.1.2/src/api\netifapi.c **** {
 164              		.loc 1 138 1 is_stmt 1
 165              		.cfi_startproc
 166              	.LVL16:
 167 0000 17030000 		call	t0,__riscv_save_0
 167      E7020300 
 168              		.cfi_offset 1, -4
 169              		.cfi_def_cfa_offset 16
 139:C:/Users/stapi/OneDrive/Desktop/GD32VW553/GD32VW55X_Wifi_BLE_SDK/GD32VW55x_RELEASE_V1.0.2/MSDK/lwip/lwip-2.1.2/src/api\netifapi.c ****   /* cast through void* to silence alignment warnings.
 140:C:/Users/stapi/OneDrive/Desktop/GD32VW553/GD32VW55X_Wifi_BLE_SDK/GD32VW55x_RELEASE_V1.0.2/MSDK/lwip/lwip-2.1.2/src/api\netifapi.c ****    * We know it works because the structs have been instantiated as struct netifapi_msg */
 141:C:/Users/stapi/OneDrive/Desktop/GD32VW553/GD32VW55X_Wifi_BLE_SDK/GD32VW55x_RELEASE_V1.0.2/MSDK/lwip/lwip-2.1.2/src/api\netifapi.c ****   struct netifapi_msg *msg = (struct netifapi_msg *)(void *)m;
 170              		.loc 1 141 3
 171              	.LVL17:
 142:C:/Users/stapi/OneDrive/Desktop/GD32VW553/GD32VW55X_Wifi_BLE_SDK/GD32VW55x_RELEASE_V1.0.2/MSDK/lwip/lwip-2.1.2/src/api\netifapi.c **** 
 143:C:/Users/stapi/OneDrive/Desktop/GD32VW553/GD32VW55X_Wifi_BLE_SDK/GD32VW55x_RELEASE_V1.0.2/MSDK/lwip/lwip-2.1.2/src/api\netifapi.c ****   if (msg->msg.common.errtfunc != NULL) {
 172              		.loc 1 143 3
 173              		.loc 1 143 22 is_stmt 0
 174 0008 5845     		lw	a4,12(a0)
 138:C:/Users/stapi/OneDrive/Desktop/GD32VW553/GD32VW55X_Wifi_BLE_SDK/GD32VW55x_RELEASE_V1.0.2/MSDK/lwip/lwip-2.1.2/src/api\netifapi.c ****   /* cast through void* to silence alignment warnings.
 175              		.loc 1 138 1
 176 000a AA87     		mv	a5,a0
 144:C:/Users/stapi/OneDrive/Desktop/GD32VW553/GD32VW55X_Wifi_BLE_SDK/GD32VW55x_RELEASE_V1.0.2/MSDK/lwip/lwip-2.1.2/src/api\netifapi.c ****     return msg->msg.common.errtfunc(msg->netif);
 177              		.loc 1 144 12
 178 000c 4841     		lw	a0,4(a0)
 179              	.LVL18:
 143:C:/Users/stapi/OneDrive/Desktop/GD32VW553/GD32VW55X_Wifi_BLE_SDK/GD32VW55x_RELEASE_V1.0.2/MSDK/lwip/lwip-2.1.2/src/api\netifapi.c ****     return msg->msg.common.errtfunc(msg->netif);
 180              		.loc 1 143 6
 181 000e 11C7     		beq	a4,zero,.L13
 182              		.loc 1 144 5 is_stmt 1
 183              		.loc 1 144 12 is_stmt 0
 184 0010 0297     		jalr	a4
 185              	.LVL19:
 186              	.L14:
 145:C:/Users/stapi/OneDrive/Desktop/GD32VW553/GD32VW55X_Wifi_BLE_SDK/GD32VW55x_RELEASE_V1.0.2/MSDK/lwip/lwip-2.1.2/src/api\netifapi.c ****   } else {
 146:C:/Users/stapi/OneDrive/Desktop/GD32VW553/GD32VW55X_Wifi_BLE_SDK/GD32VW55x_RELEASE_V1.0.2/MSDK/lwip/lwip-2.1.2/src/api\netifapi.c ****     msg->msg.common.voidfunc(msg->netif);
 147:C:/Users/stapi/OneDrive/Desktop/GD32VW553/GD32VW55X_Wifi_BLE_SDK/GD32VW55x_RELEASE_V1.0.2/MSDK/lwip/lwip-2.1.2/src/api\netifapi.c ****     return ERR_OK;
 148:C:/Users/stapi/OneDrive/Desktop/GD32VW553/GD32VW55X_Wifi_BLE_SDK/GD32VW55x_RELEASE_V1.0.2/MSDK/lwip/lwip-2.1.2/src/api\netifapi.c ****   }
 149:C:/Users/stapi/OneDrive/Desktop/GD32VW553/GD32VW55X_Wifi_BLE_SDK/GD32VW55x_RELEASE_V1.0.2/MSDK/lwip/lwip-2.1.2/src/api\netifapi.c **** }
 187              		.loc 1 149 1
 188 0012 17030000 		tail	__riscv_restore_0
 188      67000300 
 189              		.cfi_remember_state
 190              		.cfi_restore 1
 191              		.cfi_def_cfa_offset 0
 192              	.LVL20:
 193              	.L13:
 194              		.cfi_restore_state
 195              	.LBB4:
 196              	.LBB5:
 146:C:/Users/stapi/OneDrive/Desktop/GD32VW553/GD32VW55X_Wifi_BLE_SDK/GD32VW55x_RELEASE_V1.0.2/MSDK/lwip/lwip-2.1.2/src/api\netifapi.c ****     return ERR_OK;
 197              		.loc 1 146 5 is_stmt 1
 198 001a 9C47     		lw	a5,8(a5)
 199              	.LVL21:
 200 001c 8297     		jalr	a5
 201              	.LVL22:
 147:C:/Users/stapi/OneDrive/Desktop/GD32VW553/GD32VW55X_Wifi_BLE_SDK/GD32VW55x_RELEASE_V1.0.2/MSDK/lwip/lwip-2.1.2/src/api\netifapi.c ****   }
 202              		.loc 1 147 5
 146:C:/Users/stapi/OneDrive/Desktop/GD32VW553/GD32VW55X_Wifi_BLE_SDK/GD32VW55x_RELEASE_V1.0.2/MSDK/lwip/lwip-2.1.2/src/api\netifapi.c ****     return ERR_OK;
 203              		.loc 1 146 5 is_stmt 0
 204 001e 0145     		li	a0,0
 205 0020 CDBF     		j	.L14
 206              	.LBE5:
 207              	.LBE4:
 208              		.cfi_endproc
 209              	.LFE8:
 211              		.section	.text.netifapi_arp_add,"ax",@progbits
 212              		.align	1
 213              		.globl	netifapi_arp_add
 215              	netifapi_arp_add:
 216              	.LFB9:
 150:C:/Users/stapi/OneDrive/Desktop/GD32VW553/GD32VW55X_Wifi_BLE_SDK/GD32VW55x_RELEASE_V1.0.2/MSDK/lwip/lwip-2.1.2/src/api\netifapi.c **** 
 151:C:/Users/stapi/OneDrive/Desktop/GD32VW553/GD32VW55X_Wifi_BLE_SDK/GD32VW55x_RELEASE_V1.0.2/MSDK/lwip/lwip-2.1.2/src/api\netifapi.c **** #if LWIP_ARP && LWIP_IPV4
 152:C:/Users/stapi/OneDrive/Desktop/GD32VW553/GD32VW55X_Wifi_BLE_SDK/GD32VW55x_RELEASE_V1.0.2/MSDK/lwip/lwip-2.1.2/src/api\netifapi.c **** /**
 153:C:/Users/stapi/OneDrive/Desktop/GD32VW553/GD32VW55X_Wifi_BLE_SDK/GD32VW55x_RELEASE_V1.0.2/MSDK/lwip/lwip-2.1.2/src/api\netifapi.c ****  * @ingroup netifapi_arp
 154:C:/Users/stapi/OneDrive/Desktop/GD32VW553/GD32VW55X_Wifi_BLE_SDK/GD32VW55x_RELEASE_V1.0.2/MSDK/lwip/lwip-2.1.2/src/api\netifapi.c ****  * Add or update an entry in the ARP cache.
 155:C:/Users/stapi/OneDrive/Desktop/GD32VW553/GD32VW55X_Wifi_BLE_SDK/GD32VW55x_RELEASE_V1.0.2/MSDK/lwip/lwip-2.1.2/src/api\netifapi.c ****  * For an update, ipaddr is used to find the cache entry.
 156:C:/Users/stapi/OneDrive/Desktop/GD32VW553/GD32VW55X_Wifi_BLE_SDK/GD32VW55x_RELEASE_V1.0.2/MSDK/lwip/lwip-2.1.2/src/api\netifapi.c ****  *
 157:C:/Users/stapi/OneDrive/Desktop/GD32VW553/GD32VW55X_Wifi_BLE_SDK/GD32VW55x_RELEASE_V1.0.2/MSDK/lwip/lwip-2.1.2/src/api\netifapi.c ****  * @param ipaddr IPv4 address of cache entry
 158:C:/Users/stapi/OneDrive/Desktop/GD32VW553/GD32VW55X_Wifi_BLE_SDK/GD32VW55x_RELEASE_V1.0.2/MSDK/lwip/lwip-2.1.2/src/api\netifapi.c ****  * @param ethaddr hardware address mapped to ipaddr
 159:C:/Users/stapi/OneDrive/Desktop/GD32VW553/GD32VW55X_Wifi_BLE_SDK/GD32VW55x_RELEASE_V1.0.2/MSDK/lwip/lwip-2.1.2/src/api\netifapi.c ****  * @param type type of ARP cache entry
 160:C:/Users/stapi/OneDrive/Desktop/GD32VW553/GD32VW55X_Wifi_BLE_SDK/GD32VW55x_RELEASE_V1.0.2/MSDK/lwip/lwip-2.1.2/src/api\netifapi.c ****  * @return ERR_OK: entry added/updated, else error from err_t
 161:C:/Users/stapi/OneDrive/Desktop/GD32VW553/GD32VW55X_Wifi_BLE_SDK/GD32VW55x_RELEASE_V1.0.2/MSDK/lwip/lwip-2.1.2/src/api\netifapi.c ****  */
 162:C:/Users/stapi/OneDrive/Desktop/GD32VW553/GD32VW55X_Wifi_BLE_SDK/GD32VW55x_RELEASE_V1.0.2/MSDK/lwip/lwip-2.1.2/src/api\netifapi.c **** err_t
 163:C:/Users/stapi/OneDrive/Desktop/GD32VW553/GD32VW55X_Wifi_BLE_SDK/GD32VW55x_RELEASE_V1.0.2/MSDK/lwip/lwip-2.1.2/src/api\netifapi.c **** netifapi_arp_add(const ip4_addr_t *ipaddr, struct eth_addr *ethaddr, enum netifapi_arp_entry type)
 164:C:/Users/stapi/OneDrive/Desktop/GD32VW553/GD32VW55X_Wifi_BLE_SDK/GD32VW55x_RELEASE_V1.0.2/MSDK/lwip/lwip-2.1.2/src/api\netifapi.c **** {
 217              		.loc 1 164 1 is_stmt 1
 218              		.cfi_startproc
 219              	.LVL23:
 165:C:/Users/stapi/OneDrive/Desktop/GD32VW553/GD32VW55X_Wifi_BLE_SDK/GD32VW55x_RELEASE_V1.0.2/MSDK/lwip/lwip-2.1.2/src/api\netifapi.c ****   err_t err;
 220              		.loc 1 165 3
 166:C:/Users/stapi/OneDrive/Desktop/GD32VW553/GD32VW55X_Wifi_BLE_SDK/GD32VW55x_RELEASE_V1.0.2/MSDK/lwip/lwip-2.1.2/src/api\netifapi.c **** 
 167:C:/Users/stapi/OneDrive/Desktop/GD32VW553/GD32VW55X_Wifi_BLE_SDK/GD32VW55x_RELEASE_V1.0.2/MSDK/lwip/lwip-2.1.2/src/api\netifapi.c ****   /* We only support permanent entries currently */
 168:C:/Users/stapi/OneDrive/Desktop/GD32VW553/GD32VW55X_Wifi_BLE_SDK/GD32VW55x_RELEASE_V1.0.2/MSDK/lwip/lwip-2.1.2/src/api\netifapi.c ****   LWIP_UNUSED_ARG(type);
 221              		.loc 1 168 3
 169:C:/Users/stapi/OneDrive/Desktop/GD32VW553/GD32VW55X_Wifi_BLE_SDK/GD32VW55x_RELEASE_V1.0.2/MSDK/lwip/lwip-2.1.2/src/api\netifapi.c **** 
 170:C:/Users/stapi/OneDrive/Desktop/GD32VW553/GD32VW55X_Wifi_BLE_SDK/GD32VW55x_RELEASE_V1.0.2/MSDK/lwip/lwip-2.1.2/src/api\netifapi.c **** #if ETHARP_SUPPORT_STATIC_ENTRIES && LWIP_TCPIP_CORE_LOCKING
 171:C:/Users/stapi/OneDrive/Desktop/GD32VW553/GD32VW55X_Wifi_BLE_SDK/GD32VW55x_RELEASE_V1.0.2/MSDK/lwip/lwip-2.1.2/src/api\netifapi.c ****   LOCK_TCPIP_CORE();
 172:C:/Users/stapi/OneDrive/Desktop/GD32VW553/GD32VW55X_Wifi_BLE_SDK/GD32VW55x_RELEASE_V1.0.2/MSDK/lwip/lwip-2.1.2/src/api\netifapi.c ****   err = etharp_add_static_entry(ipaddr, ethaddr);
 173:C:/Users/stapi/OneDrive/Desktop/GD32VW553/GD32VW55X_Wifi_BLE_SDK/GD32VW55x_RELEASE_V1.0.2/MSDK/lwip/lwip-2.1.2/src/api\netifapi.c ****   UNLOCK_TCPIP_CORE();
 174:C:/Users/stapi/OneDrive/Desktop/GD32VW553/GD32VW55X_Wifi_BLE_SDK/GD32VW55x_RELEASE_V1.0.2/MSDK/lwip/lwip-2.1.2/src/api\netifapi.c **** #else
 175:C:/Users/stapi/OneDrive/Desktop/GD32VW553/GD32VW55X_Wifi_BLE_SDK/GD32VW55x_RELEASE_V1.0.2/MSDK/lwip/lwip-2.1.2/src/api\netifapi.c ****   /* @todo add new vars to struct netifapi_msg and create a 'do' func */
 176:C:/Users/stapi/OneDrive/Desktop/GD32VW553/GD32VW55X_Wifi_BLE_SDK/GD32VW55x_RELEASE_V1.0.2/MSDK/lwip/lwip-2.1.2/src/api\netifapi.c ****   LWIP_UNUSED_ARG(ipaddr);
 222              		.loc 1 176 3
 177:C:/Users/stapi/OneDrive/Desktop/GD32VW553/GD32VW55X_Wifi_BLE_SDK/GD32VW55x_RELEASE_V1.0.2/MSDK/lwip/lwip-2.1.2/src/api\netifapi.c ****   LWIP_UNUSED_ARG(ethaddr);
 223              		.loc 1 177 3
 178:C:/Users/stapi/OneDrive/Desktop/GD32VW553/GD32VW55X_Wifi_BLE_SDK/GD32VW55x_RELEASE_V1.0.2/MSDK/lwip/lwip-2.1.2/src/api\netifapi.c ****   err = ERR_VAL;
 224              		.loc 1 178 3
 179:C:/Users/stapi/OneDrive/Desktop/GD32VW553/GD32VW55X_Wifi_BLE_SDK/GD32VW55x_RELEASE_V1.0.2/MSDK/lwip/lwip-2.1.2/src/api\netifapi.c **** #endif /* ETHARP_SUPPORT_STATIC_ENTRIES && LWIP_TCPIP_CORE_LOCKING */
 180:C:/Users/stapi/OneDrive/Desktop/GD32VW553/GD32VW55X_Wifi_BLE_SDK/GD32VW55x_RELEASE_V1.0.2/MSDK/lwip/lwip-2.1.2/src/api\netifapi.c **** 
 181:C:/Users/stapi/OneDrive/Desktop/GD32VW553/GD32VW55X_Wifi_BLE_SDK/GD32VW55x_RELEASE_V1.0.2/MSDK/lwip/lwip-2.1.2/src/api\netifapi.c ****   return err;
 225              		.loc 1 181 3
 182:C:/Users/stapi/OneDrive/Desktop/GD32VW553/GD32VW55X_Wifi_BLE_SDK/GD32VW55x_RELEASE_V1.0.2/MSDK/lwip/lwip-2.1.2/src/api\netifapi.c **** }
 226              		.loc 1 182 1 is_stmt 0
 227 0000 6955     		li	a0,-6
 228              	.LVL24:
 229 0002 8280     		ret
 230              		.cfi_endproc
 231              	.LFE9:
 233              		.section	.text.netifapi_arp_remove,"ax",@progbits
 234              		.align	1
 235              		.globl	netifapi_arp_remove
 237              	netifapi_arp_remove:
 238              	.LFB10:
 183:C:/Users/stapi/OneDrive/Desktop/GD32VW553/GD32VW55X_Wifi_BLE_SDK/GD32VW55x_RELEASE_V1.0.2/MSDK/lwip/lwip-2.1.2/src/api\netifapi.c **** 
 184:C:/Users/stapi/OneDrive/Desktop/GD32VW553/GD32VW55X_Wifi_BLE_SDK/GD32VW55x_RELEASE_V1.0.2/MSDK/lwip/lwip-2.1.2/src/api\netifapi.c **** /**
 185:C:/Users/stapi/OneDrive/Desktop/GD32VW553/GD32VW55X_Wifi_BLE_SDK/GD32VW55x_RELEASE_V1.0.2/MSDK/lwip/lwip-2.1.2/src/api\netifapi.c ****  * @ingroup netifapi_arp
 186:C:/Users/stapi/OneDrive/Desktop/GD32VW553/GD32VW55X_Wifi_BLE_SDK/GD32VW55x_RELEASE_V1.0.2/MSDK/lwip/lwip-2.1.2/src/api\netifapi.c ****  * Remove an entry in the ARP cache identified by ipaddr
 187:C:/Users/stapi/OneDrive/Desktop/GD32VW553/GD32VW55X_Wifi_BLE_SDK/GD32VW55x_RELEASE_V1.0.2/MSDK/lwip/lwip-2.1.2/src/api\netifapi.c ****  *
 188:C:/Users/stapi/OneDrive/Desktop/GD32VW553/GD32VW55X_Wifi_BLE_SDK/GD32VW55x_RELEASE_V1.0.2/MSDK/lwip/lwip-2.1.2/src/api\netifapi.c ****  * @param ipaddr IPv4 address of cache entry
 189:C:/Users/stapi/OneDrive/Desktop/GD32VW553/GD32VW55X_Wifi_BLE_SDK/GD32VW55x_RELEASE_V1.0.2/MSDK/lwip/lwip-2.1.2/src/api\netifapi.c ****  * @param type type of ARP cache entry
 190:C:/Users/stapi/OneDrive/Desktop/GD32VW553/GD32VW55X_Wifi_BLE_SDK/GD32VW55x_RELEASE_V1.0.2/MSDK/lwip/lwip-2.1.2/src/api\netifapi.c ****  * @return ERR_OK: entry removed, else error from err_t
 191:C:/Users/stapi/OneDrive/Desktop/GD32VW553/GD32VW55X_Wifi_BLE_SDK/GD32VW55x_RELEASE_V1.0.2/MSDK/lwip/lwip-2.1.2/src/api\netifapi.c ****  */
 192:C:/Users/stapi/OneDrive/Desktop/GD32VW553/GD32VW55X_Wifi_BLE_SDK/GD32VW55x_RELEASE_V1.0.2/MSDK/lwip/lwip-2.1.2/src/api\netifapi.c **** err_t
 193:C:/Users/stapi/OneDrive/Desktop/GD32VW553/GD32VW55X_Wifi_BLE_SDK/GD32VW55x_RELEASE_V1.0.2/MSDK/lwip/lwip-2.1.2/src/api\netifapi.c **** netifapi_arp_remove(const ip4_addr_t *ipaddr, enum netifapi_arp_entry type)
 194:C:/Users/stapi/OneDrive/Desktop/GD32VW553/GD32VW55X_Wifi_BLE_SDK/GD32VW55x_RELEASE_V1.0.2/MSDK/lwip/lwip-2.1.2/src/api\netifapi.c **** {
 239              		.loc 1 194 1 is_stmt 1
 240              		.cfi_startproc
 241              	.LVL25:
 195:C:/Users/stapi/OneDrive/Desktop/GD32VW553/GD32VW55X_Wifi_BLE_SDK/GD32VW55x_RELEASE_V1.0.2/MSDK/lwip/lwip-2.1.2/src/api\netifapi.c ****   err_t err;
 242              		.loc 1 195 3
 196:C:/Users/stapi/OneDrive/Desktop/GD32VW553/GD32VW55X_Wifi_BLE_SDK/GD32VW55x_RELEASE_V1.0.2/MSDK/lwip/lwip-2.1.2/src/api\netifapi.c **** 
 197:C:/Users/stapi/OneDrive/Desktop/GD32VW553/GD32VW55X_Wifi_BLE_SDK/GD32VW55x_RELEASE_V1.0.2/MSDK/lwip/lwip-2.1.2/src/api\netifapi.c ****   /* We only support permanent entries currently */
 198:C:/Users/stapi/OneDrive/Desktop/GD32VW553/GD32VW55X_Wifi_BLE_SDK/GD32VW55x_RELEASE_V1.0.2/MSDK/lwip/lwip-2.1.2/src/api\netifapi.c ****   LWIP_UNUSED_ARG(type);
 243              		.loc 1 198 3
 199:C:/Users/stapi/OneDrive/Desktop/GD32VW553/GD32VW55X_Wifi_BLE_SDK/GD32VW55x_RELEASE_V1.0.2/MSDK/lwip/lwip-2.1.2/src/api\netifapi.c **** 
 200:C:/Users/stapi/OneDrive/Desktop/GD32VW553/GD32VW55X_Wifi_BLE_SDK/GD32VW55x_RELEASE_V1.0.2/MSDK/lwip/lwip-2.1.2/src/api\netifapi.c **** #if ETHARP_SUPPORT_STATIC_ENTRIES && LWIP_TCPIP_CORE_LOCKING
 201:C:/Users/stapi/OneDrive/Desktop/GD32VW553/GD32VW55X_Wifi_BLE_SDK/GD32VW55x_RELEASE_V1.0.2/MSDK/lwip/lwip-2.1.2/src/api\netifapi.c ****   LOCK_TCPIP_CORE();
 202:C:/Users/stapi/OneDrive/Desktop/GD32VW553/GD32VW55X_Wifi_BLE_SDK/GD32VW55x_RELEASE_V1.0.2/MSDK/lwip/lwip-2.1.2/src/api\netifapi.c ****   err = etharp_remove_static_entry(ipaddr);
 203:C:/Users/stapi/OneDrive/Desktop/GD32VW553/GD32VW55X_Wifi_BLE_SDK/GD32VW55x_RELEASE_V1.0.2/MSDK/lwip/lwip-2.1.2/src/api\netifapi.c ****   UNLOCK_TCPIP_CORE();
 204:C:/Users/stapi/OneDrive/Desktop/GD32VW553/GD32VW55X_Wifi_BLE_SDK/GD32VW55x_RELEASE_V1.0.2/MSDK/lwip/lwip-2.1.2/src/api\netifapi.c **** #else
 205:C:/Users/stapi/OneDrive/Desktop/GD32VW553/GD32VW55X_Wifi_BLE_SDK/GD32VW55x_RELEASE_V1.0.2/MSDK/lwip/lwip-2.1.2/src/api\netifapi.c ****   /* @todo add new vars to struct netifapi_msg and create a 'do' func */
 206:C:/Users/stapi/OneDrive/Desktop/GD32VW553/GD32VW55X_Wifi_BLE_SDK/GD32VW55x_RELEASE_V1.0.2/MSDK/lwip/lwip-2.1.2/src/api\netifapi.c ****   LWIP_UNUSED_ARG(ipaddr);
 244              		.loc 1 206 3
 207:C:/Users/stapi/OneDrive/Desktop/GD32VW553/GD32VW55X_Wifi_BLE_SDK/GD32VW55x_RELEASE_V1.0.2/MSDK/lwip/lwip-2.1.2/src/api\netifapi.c ****   err = ERR_VAL;
 245              		.loc 1 207 3
 208:C:/Users/stapi/OneDrive/Desktop/GD32VW553/GD32VW55X_Wifi_BLE_SDK/GD32VW55x_RELEASE_V1.0.2/MSDK/lwip/lwip-2.1.2/src/api\netifapi.c **** #endif /* ETHARP_SUPPORT_STATIC_ENTRIES && LWIP_TCPIP_CORE_LOCKING */
 209:C:/Users/stapi/OneDrive/Desktop/GD32VW553/GD32VW55X_Wifi_BLE_SDK/GD32VW55x_RELEASE_V1.0.2/MSDK/lwip/lwip-2.1.2/src/api\netifapi.c **** 
 210:C:/Users/stapi/OneDrive/Desktop/GD32VW553/GD32VW55X_Wifi_BLE_SDK/GD32VW55x_RELEASE_V1.0.2/MSDK/lwip/lwip-2.1.2/src/api\netifapi.c ****   return err;
 246              		.loc 1 210 3
 211:C:/Users/stapi/OneDrive/Desktop/GD32VW553/GD32VW55X_Wifi_BLE_SDK/GD32VW55x_RELEASE_V1.0.2/MSDK/lwip/lwip-2.1.2/src/api\netifapi.c **** }
 247              		.loc 1 211 1 is_stmt 0
 248 0000 6955     		li	a0,-6
 249              	.LVL26:
 250 0002 8280     		ret
 251              		.cfi_endproc
 252              	.LFE10:
 254              		.section	.text.netifapi_netif_add,"ax",@progbits
 255              		.align	1
 256              		.globl	netifapi_netif_add
 258              	netifapi_netif_add:
 259              	.LFB11:
 212:C:/Users/stapi/OneDrive/Desktop/GD32VW553/GD32VW55X_Wifi_BLE_SDK/GD32VW55x_RELEASE_V1.0.2/MSDK/lwip/lwip-2.1.2/src/api\netifapi.c **** #endif /* LWIP_ARP && LWIP_IPV4 */
 213:C:/Users/stapi/OneDrive/Desktop/GD32VW553/GD32VW55X_Wifi_BLE_SDK/GD32VW55x_RELEASE_V1.0.2/MSDK/lwip/lwip-2.1.2/src/api\netifapi.c **** 
 214:C:/Users/stapi/OneDrive/Desktop/GD32VW553/GD32VW55X_Wifi_BLE_SDK/GD32VW55x_RELEASE_V1.0.2/MSDK/lwip/lwip-2.1.2/src/api\netifapi.c **** /**
 215:C:/Users/stapi/OneDrive/Desktop/GD32VW553/GD32VW55X_Wifi_BLE_SDK/GD32VW55x_RELEASE_V1.0.2/MSDK/lwip/lwip-2.1.2/src/api\netifapi.c ****  * @ingroup netifapi_netif
 216:C:/Users/stapi/OneDrive/Desktop/GD32VW553/GD32VW55X_Wifi_BLE_SDK/GD32VW55x_RELEASE_V1.0.2/MSDK/lwip/lwip-2.1.2/src/api\netifapi.c ****  * Call netif_add() in a thread-safe way by running that function inside the
 217:C:/Users/stapi/OneDrive/Desktop/GD32VW553/GD32VW55X_Wifi_BLE_SDK/GD32VW55x_RELEASE_V1.0.2/MSDK/lwip/lwip-2.1.2/src/api\netifapi.c ****  * tcpip_thread context.
 218:C:/Users/stapi/OneDrive/Desktop/GD32VW553/GD32VW55X_Wifi_BLE_SDK/GD32VW55x_RELEASE_V1.0.2/MSDK/lwip/lwip-2.1.2/src/api\netifapi.c ****  *
 219:C:/Users/stapi/OneDrive/Desktop/GD32VW553/GD32VW55X_Wifi_BLE_SDK/GD32VW55x_RELEASE_V1.0.2/MSDK/lwip/lwip-2.1.2/src/api\netifapi.c ****  * @note for params @see netif_add()
 220:C:/Users/stapi/OneDrive/Desktop/GD32VW553/GD32VW55X_Wifi_BLE_SDK/GD32VW55x_RELEASE_V1.0.2/MSDK/lwip/lwip-2.1.2/src/api\netifapi.c ****  */
 221:C:/Users/stapi/OneDrive/Desktop/GD32VW553/GD32VW55X_Wifi_BLE_SDK/GD32VW55x_RELEASE_V1.0.2/MSDK/lwip/lwip-2.1.2/src/api\netifapi.c **** err_t
 222:C:/Users/stapi/OneDrive/Desktop/GD32VW553/GD32VW55X_Wifi_BLE_SDK/GD32VW55x_RELEASE_V1.0.2/MSDK/lwip/lwip-2.1.2/src/api\netifapi.c **** netifapi_netif_add(struct netif *netif,
 223:C:/Users/stapi/OneDrive/Desktop/GD32VW553/GD32VW55X_Wifi_BLE_SDK/GD32VW55x_RELEASE_V1.0.2/MSDK/lwip/lwip-2.1.2/src/api\netifapi.c **** #if LWIP_IPV4
 224:C:/Users/stapi/OneDrive/Desktop/GD32VW553/GD32VW55X_Wifi_BLE_SDK/GD32VW55x_RELEASE_V1.0.2/MSDK/lwip/lwip-2.1.2/src/api\netifapi.c ****                    const ip4_addr_t *ipaddr, const ip4_addr_t *netmask, const ip4_addr_t *gw,
 225:C:/Users/stapi/OneDrive/Desktop/GD32VW553/GD32VW55X_Wifi_BLE_SDK/GD32VW55x_RELEASE_V1.0.2/MSDK/lwip/lwip-2.1.2/src/api\netifapi.c **** #endif /* LWIP_IPV4 */
 226:C:/Users/stapi/OneDrive/Desktop/GD32VW553/GD32VW55X_Wifi_BLE_SDK/GD32VW55x_RELEASE_V1.0.2/MSDK/lwip/lwip-2.1.2/src/api\netifapi.c ****                    void *state, netif_init_fn init, netif_input_fn input)
 227:C:/Users/stapi/OneDrive/Desktop/GD32VW553/GD32VW55X_Wifi_BLE_SDK/GD32VW55x_RELEASE_V1.0.2/MSDK/lwip/lwip-2.1.2/src/api\netifapi.c **** {
 260              		.loc 1 227 1 is_stmt 1
 261              		.cfi_startproc
 262              	.LVL27:
 263 0000 17030000 		call	t0,__riscv_save_0
 263      E7020300 
 264              		.cfi_offset 1, -4
 265              		.cfi_def_cfa_offset 16
 228:C:/Users/stapi/OneDrive/Desktop/GD32VW553/GD32VW55X_Wifi_BLE_SDK/GD32VW55x_RELEASE_V1.0.2/MSDK/lwip/lwip-2.1.2/src/api\netifapi.c ****   err_t err;
 266              		.loc 1 228 3
 229:C:/Users/stapi/OneDrive/Desktop/GD32VW553/GD32VW55X_Wifi_BLE_SDK/GD32VW55x_RELEASE_V1.0.2/MSDK/lwip/lwip-2.1.2/src/api\netifapi.c ****   NETIFAPI_VAR_DECLARE(msg);
 267              		.loc 1 229 3
 230:C:/Users/stapi/OneDrive/Desktop/GD32VW553/GD32VW55X_Wifi_BLE_SDK/GD32VW55x_RELEASE_V1.0.2/MSDK/lwip/lwip-2.1.2/src/api\netifapi.c ****   NETIFAPI_VAR_ALLOC(msg);
 268              		.loc 1 230 26
 231:C:/Users/stapi/OneDrive/Desktop/GD32VW553/GD32VW55X_Wifi_BLE_SDK/GD32VW55x_RELEASE_V1.0.2/MSDK/lwip/lwip-2.1.2/src/api\netifapi.c **** 
 232:C:/Users/stapi/OneDrive/Desktop/GD32VW553/GD32VW55X_Wifi_BLE_SDK/GD32VW55x_RELEASE_V1.0.2/MSDK/lwip/lwip-2.1.2/src/api\netifapi.c **** #if LWIP_IPV4
 233:C:/Users/stapi/OneDrive/Desktop/GD32VW553/GD32VW55X_Wifi_BLE_SDK/GD32VW55x_RELEASE_V1.0.2/MSDK/lwip/lwip-2.1.2/src/api\netifapi.c ****   if (ipaddr == NULL) {
 269              		.loc 1 233 3
 227:C:/Users/stapi/OneDrive/Desktop/GD32VW553/GD32VW55X_Wifi_BLE_SDK/GD32VW55x_RELEASE_V1.0.2/MSDK/lwip/lwip-2.1.2/src/api\netifapi.c ****   err_t err;
 270              		.loc 1 227 1 is_stmt 0
 271 0008 0111     		addi	sp,sp,-32
 272              		.cfi_def_cfa_offset 48
 273              		.loc 1 233 6
 274 000a 89E5     		bne	a1,zero,.L19
 234:C:/Users/stapi/OneDrive/Desktop/GD32VW553/GD32VW55X_Wifi_BLE_SDK/GD32VW55x_RELEASE_V1.0.2/MSDK/lwip/lwip-2.1.2/src/api\netifapi.c ****     ipaddr = IP4_ADDR_ANY4;
 275              		.loc 1 234 12
 276 000c B7050000 		lui	a1,%hi(ip_addr_any)
 277              	.LVL28:
 278 0010 93850500 		addi	a1,a1,%lo(ip_addr_any)
 279              	.L19:
 280              	.LVL29:
 235:C:/Users/stapi/OneDrive/Desktop/GD32VW553/GD32VW55X_Wifi_BLE_SDK/GD32VW55x_RELEASE_V1.0.2/MSDK/lwip/lwip-2.1.2/src/api\netifapi.c ****   }
 236:C:/Users/stapi/OneDrive/Desktop/GD32VW553/GD32VW55X_Wifi_BLE_SDK/GD32VW55x_RELEASE_V1.0.2/MSDK/lwip/lwip-2.1.2/src/api\netifapi.c ****   if (netmask == NULL) {
 281              		.loc 1 236 3 is_stmt 1
 282              		.loc 1 236 6 is_stmt 0
 283 0014 09E6     		bne	a2,zero,.L20
 237:C:/Users/stapi/OneDrive/Desktop/GD32VW553/GD32VW55X_Wifi_BLE_SDK/GD32VW55x_RELEASE_V1.0.2/MSDK/lwip/lwip-2.1.2/src/api\netifapi.c ****     netmask = IP4_ADDR_ANY4;
 284              		.loc 1 237 13
 285 0016 37060000 		lui	a2,%hi(ip_addr_any)
 286              	.LVL30:
 287 001a 13060600 		addi	a2,a2,%lo(ip_addr_any)
 288              	.L20:
 289              	.LVL31:
 238:C:/Users/stapi/OneDrive/Desktop/GD32VW553/GD32VW55X_Wifi_BLE_SDK/GD32VW55x_RELEASE_V1.0.2/MSDK/lwip/lwip-2.1.2/src/api\netifapi.c ****   }
 239:C:/Users/stapi/OneDrive/Desktop/GD32VW553/GD32VW55X_Wifi_BLE_SDK/GD32VW55x_RELEASE_V1.0.2/MSDK/lwip/lwip-2.1.2/src/api\netifapi.c ****   if (gw == NULL) {
 290              		.loc 1 239 3 is_stmt 1
 291              		.loc 1 239 6 is_stmt 0
 292 001e 89E6     		bne	a3,zero,.L21
 240:C:/Users/stapi/OneDrive/Desktop/GD32VW553/GD32VW55X_Wifi_BLE_SDK/GD32VW55x_RELEASE_V1.0.2/MSDK/lwip/lwip-2.1.2/src/api\netifapi.c ****     gw = IP4_ADDR_ANY4;
 293              		.loc 1 240 8
 294 0020 B7060000 		lui	a3,%hi(ip_addr_any)
 295              	.LVL32:
 296 0024 93860600 		addi	a3,a3,%lo(ip_addr_any)
 297              	.L21:
 298              	.LVL33:
 241:C:/Users/stapi/OneDrive/Desktop/GD32VW553/GD32VW55X_Wifi_BLE_SDK/GD32VW55x_RELEASE_V1.0.2/MSDK/lwip/lwip-2.1.2/src/api\netifapi.c ****   }
 242:C:/Users/stapi/OneDrive/Desktop/GD32VW553/GD32VW55X_Wifi_BLE_SDK/GD32VW55x_RELEASE_V1.0.2/MSDK/lwip/lwip-2.1.2/src/api\netifapi.c **** #endif /* LWIP_IPV4 */
 243:C:/Users/stapi/OneDrive/Desktop/GD32VW553/GD32VW55X_Wifi_BLE_SDK/GD32VW55x_RELEASE_V1.0.2/MSDK/lwip/lwip-2.1.2/src/api\netifapi.c **** 
 244:C:/Users/stapi/OneDrive/Desktop/GD32VW553/GD32VW55X_Wifi_BLE_SDK/GD32VW55x_RELEASE_V1.0.2/MSDK/lwip/lwip-2.1.2/src/api\netifapi.c ****   NETIFAPI_VAR_REF(msg).netif = netif;
 299              		.loc 1 244 3 is_stmt 1
 300              		.loc 1 244 31 is_stmt 0
 301 0028 2AC2     		sw	a0,4(sp)
 245:C:/Users/stapi/OneDrive/Desktop/GD32VW553/GD32VW55X_Wifi_BLE_SDK/GD32VW55x_RELEASE_V1.0.2/MSDK/lwip/lwip-2.1.2/src/api\netifapi.c **** #if LWIP_IPV4
 246:C:/Users/stapi/OneDrive/Desktop/GD32VW553/GD32VW55X_Wifi_BLE_SDK/GD32VW55x_RELEASE_V1.0.2/MSDK/lwip/lwip-2.1.2/src/api\netifapi.c ****   NETIFAPI_VAR_REF(msg).msg.add.ipaddr  = NETIFAPI_VAR_REF(ipaddr);
 302              		.loc 1 246 3 is_stmt 1
 247:C:/Users/stapi/OneDrive/Desktop/GD32VW553/GD32VW55X_Wifi_BLE_SDK/GD32VW55x_RELEASE_V1.0.2/MSDK/lwip/lwip-2.1.2/src/api\netifapi.c ****   NETIFAPI_VAR_REF(msg).msg.add.netmask = NETIFAPI_VAR_REF(netmask);
 248:C:/Users/stapi/OneDrive/Desktop/GD32VW553/GD32VW55X_Wifi_BLE_SDK/GD32VW55x_RELEASE_V1.0.2/MSDK/lwip/lwip-2.1.2/src/api\netifapi.c ****   NETIFAPI_VAR_REF(msg).msg.add.gw      = NETIFAPI_VAR_REF(gw);
 249:C:/Users/stapi/OneDrive/Desktop/GD32VW553/GD32VW55X_Wifi_BLE_SDK/GD32VW55x_RELEASE_V1.0.2/MSDK/lwip/lwip-2.1.2/src/api\netifapi.c **** #endif /* LWIP_IPV4 */
 250:C:/Users/stapi/OneDrive/Desktop/GD32VW553/GD32VW55X_Wifi_BLE_SDK/GD32VW55x_RELEASE_V1.0.2/MSDK/lwip/lwip-2.1.2/src/api\netifapi.c ****   NETIFAPI_VAR_REF(msg).msg.add.state   = state;
 251:C:/Users/stapi/OneDrive/Desktop/GD32VW553/GD32VW55X_Wifi_BLE_SDK/GD32VW55x_RELEASE_V1.0.2/MSDK/lwip/lwip-2.1.2/src/api\netifapi.c ****   NETIFAPI_VAR_REF(msg).msg.add.init    = init;
 252:C:/Users/stapi/OneDrive/Desktop/GD32VW553/GD32VW55X_Wifi_BLE_SDK/GD32VW55x_RELEASE_V1.0.2/MSDK/lwip/lwip-2.1.2/src/api\netifapi.c ****   NETIFAPI_VAR_REF(msg).msg.add.input   = input;
 253:C:/Users/stapi/OneDrive/Desktop/GD32VW553/GD32VW55X_Wifi_BLE_SDK/GD32VW55x_RELEASE_V1.0.2/MSDK/lwip/lwip-2.1.2/src/api\netifapi.c ****   err = tcpip_api_call(netifapi_do_netif_add, &API_VAR_REF(msg).call);
 303              		.loc 1 253 9 is_stmt 0
 304 002a 37050000 		lui	a0,%hi(netifapi_do_netif_add)
 305              	.LVL34:
 246:C:/Users/stapi/OneDrive/Desktop/GD32VW553/GD32VW55X_Wifi_BLE_SDK/GD32VW55x_RELEASE_V1.0.2/MSDK/lwip/lwip-2.1.2/src/api\netifapi.c ****   NETIFAPI_VAR_REF(msg).msg.add.netmask = NETIFAPI_VAR_REF(netmask);
 306              		.loc 1 246 41
 307 002e 2EC4     		sw	a1,8(sp)
 247:C:/Users/stapi/OneDrive/Desktop/GD32VW553/GD32VW55X_Wifi_BLE_SDK/GD32VW55x_RELEASE_V1.0.2/MSDK/lwip/lwip-2.1.2/src/api\netifapi.c ****   NETIFAPI_VAR_REF(msg).msg.add.netmask = NETIFAPI_VAR_REF(netmask);
 308              		.loc 1 247 3 is_stmt 1
 309              		.loc 1 253 9 is_stmt 0
 310 0030 13050500 		addi	a0,a0,%lo(netifapi_do_netif_add)
 311 0034 8A85     		mv	a1,sp
 312              	.LVL35:
 247:C:/Users/stapi/OneDrive/Desktop/GD32VW553/GD32VW55X_Wifi_BLE_SDK/GD32VW55x_RELEASE_V1.0.2/MSDK/lwip/lwip-2.1.2/src/api\netifapi.c ****   NETIFAPI_VAR_REF(msg).msg.add.netmask = NETIFAPI_VAR_REF(netmask);
 313              		.loc 1 247 41
 314 0036 32C6     		sw	a2,12(sp)
 248:C:/Users/stapi/OneDrive/Desktop/GD32VW553/GD32VW55X_Wifi_BLE_SDK/GD32VW55x_RELEASE_V1.0.2/MSDK/lwip/lwip-2.1.2/src/api\netifapi.c **** #endif /* LWIP_IPV4 */
 315              		.loc 1 248 3 is_stmt 1
 248:C:/Users/stapi/OneDrive/Desktop/GD32VW553/GD32VW55X_Wifi_BLE_SDK/GD32VW55x_RELEASE_V1.0.2/MSDK/lwip/lwip-2.1.2/src/api\netifapi.c **** #endif /* LWIP_IPV4 */
 316              		.loc 1 248 41 is_stmt 0
 317 0038 36C8     		sw	a3,16(sp)
 250:C:/Users/stapi/OneDrive/Desktop/GD32VW553/GD32VW55X_Wifi_BLE_SDK/GD32VW55x_RELEASE_V1.0.2/MSDK/lwip/lwip-2.1.2/src/api\netifapi.c ****   NETIFAPI_VAR_REF(msg).msg.add.init    = init;
 318              		.loc 1 250 3 is_stmt 1
 250:C:/Users/stapi/OneDrive/Desktop/GD32VW553/GD32VW55X_Wifi_BLE_SDK/GD32VW55x_RELEASE_V1.0.2/MSDK/lwip/lwip-2.1.2/src/api\netifapi.c ****   NETIFAPI_VAR_REF(msg).msg.add.init    = init;
 319              		.loc 1 250 41 is_stmt 0
 320 003a 3ACA     		sw	a4,20(sp)
 251:C:/Users/stapi/OneDrive/Desktop/GD32VW553/GD32VW55X_Wifi_BLE_SDK/GD32VW55x_RELEASE_V1.0.2/MSDK/lwip/lwip-2.1.2/src/api\netifapi.c ****   NETIFAPI_VAR_REF(msg).msg.add.input   = input;
 321              		.loc 1 251 3 is_stmt 1
 251:C:/Users/stapi/OneDrive/Desktop/GD32VW553/GD32VW55X_Wifi_BLE_SDK/GD32VW55x_RELEASE_V1.0.2/MSDK/lwip/lwip-2.1.2/src/api\netifapi.c ****   NETIFAPI_VAR_REF(msg).msg.add.input   = input;
 322              		.loc 1 251 41 is_stmt 0
 323 003c 3ECC     		sw	a5,24(sp)
 252:C:/Users/stapi/OneDrive/Desktop/GD32VW553/GD32VW55X_Wifi_BLE_SDK/GD32VW55x_RELEASE_V1.0.2/MSDK/lwip/lwip-2.1.2/src/api\netifapi.c ****   err = tcpip_api_call(netifapi_do_netif_add, &API_VAR_REF(msg).call);
 324              		.loc 1 252 3 is_stmt 1
 252:C:/Users/stapi/OneDrive/Desktop/GD32VW553/GD32VW55X_Wifi_BLE_SDK/GD32VW55x_RELEASE_V1.0.2/MSDK/lwip/lwip-2.1.2/src/api\netifapi.c ****   err = tcpip_api_call(netifapi_do_netif_add, &API_VAR_REF(msg).call);
 325              		.loc 1 252 41 is_stmt 0
 326 003e 42CE     		sw	a6,28(sp)
 327              		.loc 1 253 3 is_stmt 1
 328              		.loc 1 253 9 is_stmt 0
 329 0040 97000000 		call	tcpip_api_call
 329      E7800000 
 330              	.LVL36:
 254:C:/Users/stapi/OneDrive/Desktop/GD32VW553/GD32VW55X_Wifi_BLE_SDK/GD32VW55x_RELEASE_V1.0.2/MSDK/lwip/lwip-2.1.2/src/api\netifapi.c ****   NETIFAPI_VAR_FREE(msg);
 331              		.loc 1 254 25 is_stmt 1
 255:C:/Users/stapi/OneDrive/Desktop/GD32VW553/GD32VW55X_Wifi_BLE_SDK/GD32VW55x_RELEASE_V1.0.2/MSDK/lwip/lwip-2.1.2/src/api\netifapi.c ****   return err;
 332              		.loc 1 255 3
 256:C:/Users/stapi/OneDrive/Desktop/GD32VW553/GD32VW55X_Wifi_BLE_SDK/GD32VW55x_RELEASE_V1.0.2/MSDK/lwip/lwip-2.1.2/src/api\netifapi.c **** }
 333              		.loc 1 256 1 is_stmt 0
 334 0048 0561     		addi	sp,sp,32
 335              		.cfi_def_cfa_offset 0
 336 004a 17030000 		tail	__riscv_restore_0
 336      67000300 
 337              		.cfi_restore 1
 338              		.cfi_def_cfa_offset -16
 339              		.cfi_endproc
 340              	.LFE11:
 342              		.section	.text.netifapi_netif_set_addr,"ax",@progbits
 343              		.align	1
 344              		.globl	netifapi_netif_set_addr
 346              	netifapi_netif_set_addr:
 347              	.LFB12:
 257:C:/Users/stapi/OneDrive/Desktop/GD32VW553/GD32VW55X_Wifi_BLE_SDK/GD32VW55x_RELEASE_V1.0.2/MSDK/lwip/lwip-2.1.2/src/api\netifapi.c **** 
 258:C:/Users/stapi/OneDrive/Desktop/GD32VW553/GD32VW55X_Wifi_BLE_SDK/GD32VW55x_RELEASE_V1.0.2/MSDK/lwip/lwip-2.1.2/src/api\netifapi.c **** #if LWIP_IPV4
 259:C:/Users/stapi/OneDrive/Desktop/GD32VW553/GD32VW55X_Wifi_BLE_SDK/GD32VW55x_RELEASE_V1.0.2/MSDK/lwip/lwip-2.1.2/src/api\netifapi.c **** /**
 260:C:/Users/stapi/OneDrive/Desktop/GD32VW553/GD32VW55X_Wifi_BLE_SDK/GD32VW55x_RELEASE_V1.0.2/MSDK/lwip/lwip-2.1.2/src/api\netifapi.c ****  * @ingroup netifapi_netif
 261:C:/Users/stapi/OneDrive/Desktop/GD32VW553/GD32VW55X_Wifi_BLE_SDK/GD32VW55x_RELEASE_V1.0.2/MSDK/lwip/lwip-2.1.2/src/api\netifapi.c ****  * Call netif_set_addr() in a thread-safe way by running that function inside the
 262:C:/Users/stapi/OneDrive/Desktop/GD32VW553/GD32VW55X_Wifi_BLE_SDK/GD32VW55x_RELEASE_V1.0.2/MSDK/lwip/lwip-2.1.2/src/api\netifapi.c ****  * tcpip_thread context.
 263:C:/Users/stapi/OneDrive/Desktop/GD32VW553/GD32VW55X_Wifi_BLE_SDK/GD32VW55x_RELEASE_V1.0.2/MSDK/lwip/lwip-2.1.2/src/api\netifapi.c ****  *
 264:C:/Users/stapi/OneDrive/Desktop/GD32VW553/GD32VW55X_Wifi_BLE_SDK/GD32VW55x_RELEASE_V1.0.2/MSDK/lwip/lwip-2.1.2/src/api\netifapi.c ****  * @note for params @see netif_set_addr()
 265:C:/Users/stapi/OneDrive/Desktop/GD32VW553/GD32VW55X_Wifi_BLE_SDK/GD32VW55x_RELEASE_V1.0.2/MSDK/lwip/lwip-2.1.2/src/api\netifapi.c ****  */
 266:C:/Users/stapi/OneDrive/Desktop/GD32VW553/GD32VW55X_Wifi_BLE_SDK/GD32VW55x_RELEASE_V1.0.2/MSDK/lwip/lwip-2.1.2/src/api\netifapi.c **** err_t
 267:C:/Users/stapi/OneDrive/Desktop/GD32VW553/GD32VW55X_Wifi_BLE_SDK/GD32VW55x_RELEASE_V1.0.2/MSDK/lwip/lwip-2.1.2/src/api\netifapi.c **** netifapi_netif_set_addr(struct netif *netif,
 268:C:/Users/stapi/OneDrive/Desktop/GD32VW553/GD32VW55X_Wifi_BLE_SDK/GD32VW55x_RELEASE_V1.0.2/MSDK/lwip/lwip-2.1.2/src/api\netifapi.c ****                         const ip4_addr_t *ipaddr,
 269:C:/Users/stapi/OneDrive/Desktop/GD32VW553/GD32VW55X_Wifi_BLE_SDK/GD32VW55x_RELEASE_V1.0.2/MSDK/lwip/lwip-2.1.2/src/api\netifapi.c ****                         const ip4_addr_t *netmask,
 270:C:/Users/stapi/OneDrive/Desktop/GD32VW553/GD32VW55X_Wifi_BLE_SDK/GD32VW55x_RELEASE_V1.0.2/MSDK/lwip/lwip-2.1.2/src/api\netifapi.c ****                         const ip4_addr_t *gw)
 271:C:/Users/stapi/OneDrive/Desktop/GD32VW553/GD32VW55X_Wifi_BLE_SDK/GD32VW55x_RELEASE_V1.0.2/MSDK/lwip/lwip-2.1.2/src/api\netifapi.c **** {
 348              		.loc 1 271 1 is_stmt 1
 349              		.cfi_startproc
 350              	.LVL37:
 351 0000 17030000 		call	t0,__riscv_save_0
 351      E7020300 
 352              		.cfi_offset 1, -4
 353              		.cfi_def_cfa_offset 16
 272:C:/Users/stapi/OneDrive/Desktop/GD32VW553/GD32VW55X_Wifi_BLE_SDK/GD32VW55x_RELEASE_V1.0.2/MSDK/lwip/lwip-2.1.2/src/api\netifapi.c ****   err_t err;
 354              		.loc 1 272 3
 273:C:/Users/stapi/OneDrive/Desktop/GD32VW553/GD32VW55X_Wifi_BLE_SDK/GD32VW55x_RELEASE_V1.0.2/MSDK/lwip/lwip-2.1.2/src/api\netifapi.c ****   NETIFAPI_VAR_DECLARE(msg);
 355              		.loc 1 273 3
 274:C:/Users/stapi/OneDrive/Desktop/GD32VW553/GD32VW55X_Wifi_BLE_SDK/GD32VW55x_RELEASE_V1.0.2/MSDK/lwip/lwip-2.1.2/src/api\netifapi.c ****   NETIFAPI_VAR_ALLOC(msg);
 356              		.loc 1 274 26
 275:C:/Users/stapi/OneDrive/Desktop/GD32VW553/GD32VW55X_Wifi_BLE_SDK/GD32VW55x_RELEASE_V1.0.2/MSDK/lwip/lwip-2.1.2/src/api\netifapi.c **** 
 276:C:/Users/stapi/OneDrive/Desktop/GD32VW553/GD32VW55X_Wifi_BLE_SDK/GD32VW55x_RELEASE_V1.0.2/MSDK/lwip/lwip-2.1.2/src/api\netifapi.c ****   if (ipaddr == NULL) {
 357              		.loc 1 276 3
 271:C:/Users/stapi/OneDrive/Desktop/GD32VW553/GD32VW55X_Wifi_BLE_SDK/GD32VW55x_RELEASE_V1.0.2/MSDK/lwip/lwip-2.1.2/src/api\netifapi.c ****   err_t err;
 358              		.loc 1 271 1 is_stmt 0
 359 0008 0111     		addi	sp,sp,-32
 360              		.cfi_def_cfa_offset 48
 361              		.loc 1 276 6
 362 000a 89E5     		bne	a1,zero,.L24
 277:C:/Users/stapi/OneDrive/Desktop/GD32VW553/GD32VW55X_Wifi_BLE_SDK/GD32VW55x_RELEASE_V1.0.2/MSDK/lwip/lwip-2.1.2/src/api\netifapi.c ****     ipaddr = IP4_ADDR_ANY4;
 363              		.loc 1 277 12
 364 000c B7050000 		lui	a1,%hi(ip_addr_any)
 365              	.LVL38:
 366 0010 93850500 		addi	a1,a1,%lo(ip_addr_any)
 367              	.L24:
 368              	.LVL39:
 278:C:/Users/stapi/OneDrive/Desktop/GD32VW553/GD32VW55X_Wifi_BLE_SDK/GD32VW55x_RELEASE_V1.0.2/MSDK/lwip/lwip-2.1.2/src/api\netifapi.c ****   }
 279:C:/Users/stapi/OneDrive/Desktop/GD32VW553/GD32VW55X_Wifi_BLE_SDK/GD32VW55x_RELEASE_V1.0.2/MSDK/lwip/lwip-2.1.2/src/api\netifapi.c ****   if (netmask == NULL) {
 369              		.loc 1 279 3 is_stmt 1
 370              		.loc 1 279 6 is_stmt 0
 371 0014 09E6     		bne	a2,zero,.L25
 280:C:/Users/stapi/OneDrive/Desktop/GD32VW553/GD32VW55X_Wifi_BLE_SDK/GD32VW55x_RELEASE_V1.0.2/MSDK/lwip/lwip-2.1.2/src/api\netifapi.c ****     netmask = IP4_ADDR_ANY4;
 372              		.loc 1 280 13
 373 0016 37060000 		lui	a2,%hi(ip_addr_any)
 374              	.LVL40:
 375 001a 13060600 		addi	a2,a2,%lo(ip_addr_any)
 376              	.L25:
 377              	.LVL41:
 281:C:/Users/stapi/OneDrive/Desktop/GD32VW553/GD32VW55X_Wifi_BLE_SDK/GD32VW55x_RELEASE_V1.0.2/MSDK/lwip/lwip-2.1.2/src/api\netifapi.c ****   }
 282:C:/Users/stapi/OneDrive/Desktop/GD32VW553/GD32VW55X_Wifi_BLE_SDK/GD32VW55x_RELEASE_V1.0.2/MSDK/lwip/lwip-2.1.2/src/api\netifapi.c ****   if (gw == NULL) {
 378              		.loc 1 282 3 is_stmt 1
 379              		.loc 1 282 6 is_stmt 0
 380 001e 89E6     		bne	a3,zero,.L26
 283:C:/Users/stapi/OneDrive/Desktop/GD32VW553/GD32VW55X_Wifi_BLE_SDK/GD32VW55x_RELEASE_V1.0.2/MSDK/lwip/lwip-2.1.2/src/api\netifapi.c ****     gw = IP4_ADDR_ANY4;
 381              		.loc 1 283 8
 382 0020 B7060000 		lui	a3,%hi(ip_addr_any)
 383              	.LVL42:
 384 0024 93860600 		addi	a3,a3,%lo(ip_addr_any)
 385              	.L26:
 386              	.LVL43:
 284:C:/Users/stapi/OneDrive/Desktop/GD32VW553/GD32VW55X_Wifi_BLE_SDK/GD32VW55x_RELEASE_V1.0.2/MSDK/lwip/lwip-2.1.2/src/api\netifapi.c ****   }
 285:C:/Users/stapi/OneDrive/Desktop/GD32VW553/GD32VW55X_Wifi_BLE_SDK/GD32VW55x_RELEASE_V1.0.2/MSDK/lwip/lwip-2.1.2/src/api\netifapi.c **** 
 286:C:/Users/stapi/OneDrive/Desktop/GD32VW553/GD32VW55X_Wifi_BLE_SDK/GD32VW55x_RELEASE_V1.0.2/MSDK/lwip/lwip-2.1.2/src/api\netifapi.c ****   NETIFAPI_VAR_REF(msg).netif = netif;
 387              		.loc 1 286 3 is_stmt 1
 388              		.loc 1 286 31 is_stmt 0
 389 0028 2AC2     		sw	a0,4(sp)
 287:C:/Users/stapi/OneDrive/Desktop/GD32VW553/GD32VW55X_Wifi_BLE_SDK/GD32VW55x_RELEASE_V1.0.2/MSDK/lwip/lwip-2.1.2/src/api\netifapi.c ****   NETIFAPI_VAR_REF(msg).msg.add.ipaddr  = NETIFAPI_VAR_REF(ipaddr);
 390              		.loc 1 287 3 is_stmt 1
 288:C:/Users/stapi/OneDrive/Desktop/GD32VW553/GD32VW55X_Wifi_BLE_SDK/GD32VW55x_RELEASE_V1.0.2/MSDK/lwip/lwip-2.1.2/src/api\netifapi.c ****   NETIFAPI_VAR_REF(msg).msg.add.netmask = NETIFAPI_VAR_REF(netmask);
 289:C:/Users/stapi/OneDrive/Desktop/GD32VW553/GD32VW55X_Wifi_BLE_SDK/GD32VW55x_RELEASE_V1.0.2/MSDK/lwip/lwip-2.1.2/src/api\netifapi.c ****   NETIFAPI_VAR_REF(msg).msg.add.gw      = NETIFAPI_VAR_REF(gw);
 290:C:/Users/stapi/OneDrive/Desktop/GD32VW553/GD32VW55X_Wifi_BLE_SDK/GD32VW55x_RELEASE_V1.0.2/MSDK/lwip/lwip-2.1.2/src/api\netifapi.c ****   err = tcpip_api_call(netifapi_do_netif_set_addr, &API_VAR_REF(msg).call);
 391              		.loc 1 290 9 is_stmt 0
 392 002a 37050000 		lui	a0,%hi(netifapi_do_netif_set_addr)
 393              	.LVL44:
 287:C:/Users/stapi/OneDrive/Desktop/GD32VW553/GD32VW55X_Wifi_BLE_SDK/GD32VW55x_RELEASE_V1.0.2/MSDK/lwip/lwip-2.1.2/src/api\netifapi.c ****   NETIFAPI_VAR_REF(msg).msg.add.ipaddr  = NETIFAPI_VAR_REF(ipaddr);
 394              		.loc 1 287 41
 395 002e 2EC4     		sw	a1,8(sp)
 288:C:/Users/stapi/OneDrive/Desktop/GD32VW553/GD32VW55X_Wifi_BLE_SDK/GD32VW55x_RELEASE_V1.0.2/MSDK/lwip/lwip-2.1.2/src/api\netifapi.c ****   NETIFAPI_VAR_REF(msg).msg.add.netmask = NETIFAPI_VAR_REF(netmask);
 396              		.loc 1 288 3 is_stmt 1
 397              		.loc 1 290 9 is_stmt 0
 398 0030 13050500 		addi	a0,a0,%lo(netifapi_do_netif_set_addr)
 399 0034 8A85     		mv	a1,sp
 400              	.LVL45:
 288:C:/Users/stapi/OneDrive/Desktop/GD32VW553/GD32VW55X_Wifi_BLE_SDK/GD32VW55x_RELEASE_V1.0.2/MSDK/lwip/lwip-2.1.2/src/api\netifapi.c ****   NETIFAPI_VAR_REF(msg).msg.add.netmask = NETIFAPI_VAR_REF(netmask);
 401              		.loc 1 288 41
 402 0036 32C6     		sw	a2,12(sp)
 289:C:/Users/stapi/OneDrive/Desktop/GD32VW553/GD32VW55X_Wifi_BLE_SDK/GD32VW55x_RELEASE_V1.0.2/MSDK/lwip/lwip-2.1.2/src/api\netifapi.c ****   err = tcpip_api_call(netifapi_do_netif_set_addr, &API_VAR_REF(msg).call);
 403              		.loc 1 289 3 is_stmt 1
 289:C:/Users/stapi/OneDrive/Desktop/GD32VW553/GD32VW55X_Wifi_BLE_SDK/GD32VW55x_RELEASE_V1.0.2/MSDK/lwip/lwip-2.1.2/src/api\netifapi.c ****   err = tcpip_api_call(netifapi_do_netif_set_addr, &API_VAR_REF(msg).call);
 404              		.loc 1 289 41 is_stmt 0
 405 0038 36C8     		sw	a3,16(sp)
 406              		.loc 1 290 3 is_stmt 1
 407              		.loc 1 290 9 is_stmt 0
 408 003a 97000000 		call	tcpip_api_call
 408      E7800000 
 409              	.LVL46:
 291:C:/Users/stapi/OneDrive/Desktop/GD32VW553/GD32VW55X_Wifi_BLE_SDK/GD32VW55x_RELEASE_V1.0.2/MSDK/lwip/lwip-2.1.2/src/api\netifapi.c ****   NETIFAPI_VAR_FREE(msg);
 410              		.loc 1 291 25 is_stmt 1
 292:C:/Users/stapi/OneDrive/Desktop/GD32VW553/GD32VW55X_Wifi_BLE_SDK/GD32VW55x_RELEASE_V1.0.2/MSDK/lwip/lwip-2.1.2/src/api\netifapi.c ****   return err;
 411              		.loc 1 292 3
 293:C:/Users/stapi/OneDrive/Desktop/GD32VW553/GD32VW55X_Wifi_BLE_SDK/GD32VW55x_RELEASE_V1.0.2/MSDK/lwip/lwip-2.1.2/src/api\netifapi.c **** }
 412              		.loc 1 293 1 is_stmt 0
 413 0042 0561     		addi	sp,sp,32
 414              		.cfi_def_cfa_offset 0
 415 0044 17030000 		tail	__riscv_restore_0
 415      67000300 
 416              		.cfi_restore 1
 417              		.cfi_def_cfa_offset -16
 418              		.cfi_endproc
 419              	.LFE12:
 421              		.section	.text.netifapi_netif_common,"ax",@progbits
 422              		.align	1
 423              		.globl	netifapi_netif_common
 425              	netifapi_netif_common:
 426              	.LFB13:
 294:C:/Users/stapi/OneDrive/Desktop/GD32VW553/GD32VW55X_Wifi_BLE_SDK/GD32VW55x_RELEASE_V1.0.2/MSDK/lwip/lwip-2.1.2/src/api\netifapi.c **** #endif /* LWIP_IPV4 */
 295:C:/Users/stapi/OneDrive/Desktop/GD32VW553/GD32VW55X_Wifi_BLE_SDK/GD32VW55x_RELEASE_V1.0.2/MSDK/lwip/lwip-2.1.2/src/api\netifapi.c **** 
 296:C:/Users/stapi/OneDrive/Desktop/GD32VW553/GD32VW55X_Wifi_BLE_SDK/GD32VW55x_RELEASE_V1.0.2/MSDK/lwip/lwip-2.1.2/src/api\netifapi.c **** /**
 297:C:/Users/stapi/OneDrive/Desktop/GD32VW553/GD32VW55X_Wifi_BLE_SDK/GD32VW55x_RELEASE_V1.0.2/MSDK/lwip/lwip-2.1.2/src/api\netifapi.c ****  * call the "errtfunc" (or the "voidfunc" if "errtfunc" is NULL) in a thread-safe
 298:C:/Users/stapi/OneDrive/Desktop/GD32VW553/GD32VW55X_Wifi_BLE_SDK/GD32VW55x_RELEASE_V1.0.2/MSDK/lwip/lwip-2.1.2/src/api\netifapi.c ****  * way by running that function inside the tcpip_thread context.
 299:C:/Users/stapi/OneDrive/Desktop/GD32VW553/GD32VW55X_Wifi_BLE_SDK/GD32VW55x_RELEASE_V1.0.2/MSDK/lwip/lwip-2.1.2/src/api\netifapi.c ****  *
 300:C:/Users/stapi/OneDrive/Desktop/GD32VW553/GD32VW55X_Wifi_BLE_SDK/GD32VW55x_RELEASE_V1.0.2/MSDK/lwip/lwip-2.1.2/src/api\netifapi.c ****  * @note use only for functions where there is only "netif" parameter.
 301:C:/Users/stapi/OneDrive/Desktop/GD32VW553/GD32VW55X_Wifi_BLE_SDK/GD32VW55x_RELEASE_V1.0.2/MSDK/lwip/lwip-2.1.2/src/api\netifapi.c ****  */
 302:C:/Users/stapi/OneDrive/Desktop/GD32VW553/GD32VW55X_Wifi_BLE_SDK/GD32VW55x_RELEASE_V1.0.2/MSDK/lwip/lwip-2.1.2/src/api\netifapi.c **** err_t
 303:C:/Users/stapi/OneDrive/Desktop/GD32VW553/GD32VW55X_Wifi_BLE_SDK/GD32VW55x_RELEASE_V1.0.2/MSDK/lwip/lwip-2.1.2/src/api\netifapi.c **** netifapi_netif_common(struct netif *netif, netifapi_void_fn voidfunc,
 304:C:/Users/stapi/OneDrive/Desktop/GD32VW553/GD32VW55X_Wifi_BLE_SDK/GD32VW55x_RELEASE_V1.0.2/MSDK/lwip/lwip-2.1.2/src/api\netifapi.c ****                       netifapi_errt_fn errtfunc)
 305:C:/Users/stapi/OneDrive/Desktop/GD32VW553/GD32VW55X_Wifi_BLE_SDK/GD32VW55x_RELEASE_V1.0.2/MSDK/lwip/lwip-2.1.2/src/api\netifapi.c **** {
 427              		.loc 1 305 1 is_stmt 1
 428              		.cfi_startproc
 429              	.LVL47:
 430 0000 17030000 		call	t0,__riscv_save_0
 430      E7020300 
 431              		.cfi_offset 1, -4
 432              		.cfi_def_cfa_offset 16
 306:C:/Users/stapi/OneDrive/Desktop/GD32VW553/GD32VW55X_Wifi_BLE_SDK/GD32VW55x_RELEASE_V1.0.2/MSDK/lwip/lwip-2.1.2/src/api\netifapi.c ****   err_t err;
 433              		.loc 1 306 3
 307:C:/Users/stapi/OneDrive/Desktop/GD32VW553/GD32VW55X_Wifi_BLE_SDK/GD32VW55x_RELEASE_V1.0.2/MSDK/lwip/lwip-2.1.2/src/api\netifapi.c ****   NETIFAPI_VAR_DECLARE(msg);
 434              		.loc 1 307 3
 308:C:/Users/stapi/OneDrive/Desktop/GD32VW553/GD32VW55X_Wifi_BLE_SDK/GD32VW55x_RELEASE_V1.0.2/MSDK/lwip/lwip-2.1.2/src/api\netifapi.c ****   NETIFAPI_VAR_ALLOC(msg);
 435              		.loc 1 308 26
 309:C:/Users/stapi/OneDrive/Desktop/GD32VW553/GD32VW55X_Wifi_BLE_SDK/GD32VW55x_RELEASE_V1.0.2/MSDK/lwip/lwip-2.1.2/src/api\netifapi.c **** 
 310:C:/Users/stapi/OneDrive/Desktop/GD32VW553/GD32VW55X_Wifi_BLE_SDK/GD32VW55x_RELEASE_V1.0.2/MSDK/lwip/lwip-2.1.2/src/api\netifapi.c ****   NETIFAPI_VAR_REF(msg).netif = netif;
 436              		.loc 1 310 3
 305:C:/Users/stapi/OneDrive/Desktop/GD32VW553/GD32VW55X_Wifi_BLE_SDK/GD32VW55x_RELEASE_V1.0.2/MSDK/lwip/lwip-2.1.2/src/api\netifapi.c ****   err_t err;
 437              		.loc 1 305 1 is_stmt 0
 438 0008 0111     		addi	sp,sp,-32
 439              		.cfi_def_cfa_offset 48
 440              		.loc 1 310 31
 441 000a 2AC2     		sw	a0,4(sp)
 311:C:/Users/stapi/OneDrive/Desktop/GD32VW553/GD32VW55X_Wifi_BLE_SDK/GD32VW55x_RELEASE_V1.0.2/MSDK/lwip/lwip-2.1.2/src/api\netifapi.c ****   NETIFAPI_VAR_REF(msg).msg.common.voidfunc = voidfunc;
 442              		.loc 1 311 3 is_stmt 1
 312:C:/Users/stapi/OneDrive/Desktop/GD32VW553/GD32VW55X_Wifi_BLE_SDK/GD32VW55x_RELEASE_V1.0.2/MSDK/lwip/lwip-2.1.2/src/api\netifapi.c ****   NETIFAPI_VAR_REF(msg).msg.common.errtfunc = errtfunc;
 313:C:/Users/stapi/OneDrive/Desktop/GD32VW553/GD32VW55X_Wifi_BLE_SDK/GD32VW55x_RELEASE_V1.0.2/MSDK/lwip/lwip-2.1.2/src/api\netifapi.c ****   err = tcpip_api_call(netifapi_do_netif_common, &API_VAR_REF(msg).call);
 443              		.loc 1 313 9 is_stmt 0
 444 000c 37050000 		lui	a0,%hi(netifapi_do_netif_common)
 445              	.LVL48:
 311:C:/Users/stapi/OneDrive/Desktop/GD32VW553/GD32VW55X_Wifi_BLE_SDK/GD32VW55x_RELEASE_V1.0.2/MSDK/lwip/lwip-2.1.2/src/api\netifapi.c ****   NETIFAPI_VAR_REF(msg).msg.common.voidfunc = voidfunc;
 446              		.loc 1 311 45
 447 0010 2EC4     		sw	a1,8(sp)
 312:C:/Users/stapi/OneDrive/Desktop/GD32VW553/GD32VW55X_Wifi_BLE_SDK/GD32VW55x_RELEASE_V1.0.2/MSDK/lwip/lwip-2.1.2/src/api\netifapi.c ****   NETIFAPI_VAR_REF(msg).msg.common.errtfunc = errtfunc;
 448              		.loc 1 312 3 is_stmt 1
 449              		.loc 1 313 9 is_stmt 0
 450 0012 13050500 		addi	a0,a0,%lo(netifapi_do_netif_common)
 451 0016 8A85     		mv	a1,sp
 452              	.LVL49:
 312:C:/Users/stapi/OneDrive/Desktop/GD32VW553/GD32VW55X_Wifi_BLE_SDK/GD32VW55x_RELEASE_V1.0.2/MSDK/lwip/lwip-2.1.2/src/api\netifapi.c ****   NETIFAPI_VAR_REF(msg).msg.common.errtfunc = errtfunc;
 453              		.loc 1 312 45
 454 0018 32C6     		sw	a2,12(sp)
 455              		.loc 1 313 3 is_stmt 1
 456              		.loc 1 313 9 is_stmt 0
 457 001a 97000000 		call	tcpip_api_call
 457      E7800000 
 458              	.LVL50:
 314:C:/Users/stapi/OneDrive/Desktop/GD32VW553/GD32VW55X_Wifi_BLE_SDK/GD32VW55x_RELEASE_V1.0.2/MSDK/lwip/lwip-2.1.2/src/api\netifapi.c ****   NETIFAPI_VAR_FREE(msg);
 459              		.loc 1 314 25 is_stmt 1
 315:C:/Users/stapi/OneDrive/Desktop/GD32VW553/GD32VW55X_Wifi_BLE_SDK/GD32VW55x_RELEASE_V1.0.2/MSDK/lwip/lwip-2.1.2/src/api\netifapi.c ****   return err;
 460              		.loc 1 315 3
 316:C:/Users/stapi/OneDrive/Desktop/GD32VW553/GD32VW55X_Wifi_BLE_SDK/GD32VW55x_RELEASE_V1.0.2/MSDK/lwip/lwip-2.1.2/src/api\netifapi.c **** }
 461              		.loc 1 316 1 is_stmt 0
 462 0022 0561     		addi	sp,sp,32
 463              		.cfi_def_cfa_offset 0
 464 0024 17030000 		tail	__riscv_restore_0
 464      67000300 
 465              		.cfi_restore 1
 466              		.cfi_def_cfa_offset -16
 467              		.cfi_endproc
 468              	.LFE13:
 470              		.section	.text.netifapi_netif_name_to_index,"ax",@progbits
 471              		.align	1
 472              		.globl	netifapi_netif_name_to_index
 474              	netifapi_netif_name_to_index:
 475              	.LFB14:
 317:C:/Users/stapi/OneDrive/Desktop/GD32VW553/GD32VW55X_Wifi_BLE_SDK/GD32VW55x_RELEASE_V1.0.2/MSDK/lwip/lwip-2.1.2/src/api\netifapi.c **** 
 318:C:/Users/stapi/OneDrive/Desktop/GD32VW553/GD32VW55X_Wifi_BLE_SDK/GD32VW55x_RELEASE_V1.0.2/MSDK/lwip/lwip-2.1.2/src/api\netifapi.c **** /**
 319:C:/Users/stapi/OneDrive/Desktop/GD32VW553/GD32VW55X_Wifi_BLE_SDK/GD32VW55x_RELEASE_V1.0.2/MSDK/lwip/lwip-2.1.2/src/api\netifapi.c **** * @ingroup netifapi_netif
 320:C:/Users/stapi/OneDrive/Desktop/GD32VW553/GD32VW55X_Wifi_BLE_SDK/GD32VW55x_RELEASE_V1.0.2/MSDK/lwip/lwip-2.1.2/src/api\netifapi.c **** * Call netif_name_to_index() in a thread-safe way by running that function inside the
 321:C:/Users/stapi/OneDrive/Desktop/GD32VW553/GD32VW55X_Wifi_BLE_SDK/GD32VW55x_RELEASE_V1.0.2/MSDK/lwip/lwip-2.1.2/src/api\netifapi.c **** * tcpip_thread context.
 322:C:/Users/stapi/OneDrive/Desktop/GD32VW553/GD32VW55X_Wifi_BLE_SDK/GD32VW55x_RELEASE_V1.0.2/MSDK/lwip/lwip-2.1.2/src/api\netifapi.c **** *
 323:C:/Users/stapi/OneDrive/Desktop/GD32VW553/GD32VW55X_Wifi_BLE_SDK/GD32VW55x_RELEASE_V1.0.2/MSDK/lwip/lwip-2.1.2/src/api\netifapi.c **** * @param name the interface name of the netif
 324:C:/Users/stapi/OneDrive/Desktop/GD32VW553/GD32VW55X_Wifi_BLE_SDK/GD32VW55x_RELEASE_V1.0.2/MSDK/lwip/lwip-2.1.2/src/api\netifapi.c **** * @param idx output index of the found netif
 325:C:/Users/stapi/OneDrive/Desktop/GD32VW553/GD32VW55X_Wifi_BLE_SDK/GD32VW55x_RELEASE_V1.0.2/MSDK/lwip/lwip-2.1.2/src/api\netifapi.c **** */
 326:C:/Users/stapi/OneDrive/Desktop/GD32VW553/GD32VW55X_Wifi_BLE_SDK/GD32VW55x_RELEASE_V1.0.2/MSDK/lwip/lwip-2.1.2/src/api\netifapi.c **** err_t
 327:C:/Users/stapi/OneDrive/Desktop/GD32VW553/GD32VW55X_Wifi_BLE_SDK/GD32VW55x_RELEASE_V1.0.2/MSDK/lwip/lwip-2.1.2/src/api\netifapi.c **** netifapi_netif_name_to_index(const char *name, u8_t *idx)
 328:C:/Users/stapi/OneDrive/Desktop/GD32VW553/GD32VW55X_Wifi_BLE_SDK/GD32VW55x_RELEASE_V1.0.2/MSDK/lwip/lwip-2.1.2/src/api\netifapi.c **** {
 476              		.loc 1 328 1 is_stmt 1
 477              		.cfi_startproc
 478              	.LVL51:
 479 0000 17030000 		call	t0,__riscv_save_1
 479      E7020300 
 480              		.cfi_offset 8, -8
 481              		.cfi_offset 1, -4
 482              		.cfi_def_cfa_offset 16
 329:C:/Users/stapi/OneDrive/Desktop/GD32VW553/GD32VW55X_Wifi_BLE_SDK/GD32VW55x_RELEASE_V1.0.2/MSDK/lwip/lwip-2.1.2/src/api\netifapi.c ****   err_t err;
 483              		.loc 1 329 3
 330:C:/Users/stapi/OneDrive/Desktop/GD32VW553/GD32VW55X_Wifi_BLE_SDK/GD32VW55x_RELEASE_V1.0.2/MSDK/lwip/lwip-2.1.2/src/api\netifapi.c ****   NETIFAPI_VAR_DECLARE(msg);
 484              		.loc 1 330 3
 331:C:/Users/stapi/OneDrive/Desktop/GD32VW553/GD32VW55X_Wifi_BLE_SDK/GD32VW55x_RELEASE_V1.0.2/MSDK/lwip/lwip-2.1.2/src/api\netifapi.c ****   NETIFAPI_VAR_ALLOC(msg);
 485              		.loc 1 331 26
 332:C:/Users/stapi/OneDrive/Desktop/GD32VW553/GD32VW55X_Wifi_BLE_SDK/GD32VW55x_RELEASE_V1.0.2/MSDK/lwip/lwip-2.1.2/src/api\netifapi.c **** 
 333:C:/Users/stapi/OneDrive/Desktop/GD32VW553/GD32VW55X_Wifi_BLE_SDK/GD32VW55x_RELEASE_V1.0.2/MSDK/lwip/lwip-2.1.2/src/api\netifapi.c ****   *idx = 0;
 486              		.loc 1 333 3
 328:C:/Users/stapi/OneDrive/Desktop/GD32VW553/GD32VW55X_Wifi_BLE_SDK/GD32VW55x_RELEASE_V1.0.2/MSDK/lwip/lwip-2.1.2/src/api\netifapi.c ****   err_t err;
 487              		.loc 1 328 1 is_stmt 0
 488 0008 0111     		addi	sp,sp,-32
 489              		.cfi_def_cfa_offset 48
 334:C:/Users/stapi/OneDrive/Desktop/GD32VW553/GD32VW55X_Wifi_BLE_SDK/GD32VW55x_RELEASE_V1.0.2/MSDK/lwip/lwip-2.1.2/src/api\netifapi.c **** 
 335:C:/Users/stapi/OneDrive/Desktop/GD32VW553/GD32VW55X_Wifi_BLE_SDK/GD32VW55x_RELEASE_V1.0.2/MSDK/lwip/lwip-2.1.2/src/api\netifapi.c **** #if LWIP_MPU_COMPATIBLE
 336:C:/Users/stapi/OneDrive/Desktop/GD32VW553/GD32VW55X_Wifi_BLE_SDK/GD32VW55x_RELEASE_V1.0.2/MSDK/lwip/lwip-2.1.2/src/api\netifapi.c ****   strncpy(NETIFAPI_VAR_REF(msg).msg.ifs.name, name, NETIF_NAMESIZE - 1);
 337:C:/Users/stapi/OneDrive/Desktop/GD32VW553/GD32VW55X_Wifi_BLE_SDK/GD32VW55x_RELEASE_V1.0.2/MSDK/lwip/lwip-2.1.2/src/api\netifapi.c ****   NETIFAPI_VAR_REF(msg).msg.ifs.name[NETIF_NAMESIZE - 1] = '\0';
 338:C:/Users/stapi/OneDrive/Desktop/GD32VW553/GD32VW55X_Wifi_BLE_SDK/GD32VW55x_RELEASE_V1.0.2/MSDK/lwip/lwip-2.1.2/src/api\netifapi.c **** #else
 339:C:/Users/stapi/OneDrive/Desktop/GD32VW553/GD32VW55X_Wifi_BLE_SDK/GD32VW55x_RELEASE_V1.0.2/MSDK/lwip/lwip-2.1.2/src/api\netifapi.c ****   NETIFAPI_VAR_REF(msg).msg.ifs.name = LWIP_CONST_CAST(char *, name);
 490              		.loc 1 339 38
 491 000a 2AC4     		sw	a0,8(sp)
 340:C:/Users/stapi/OneDrive/Desktop/GD32VW553/GD32VW55X_Wifi_BLE_SDK/GD32VW55x_RELEASE_V1.0.2/MSDK/lwip/lwip-2.1.2/src/api\netifapi.c **** #endif /* LWIP_MPU_COMPATIBLE */
 341:C:/Users/stapi/OneDrive/Desktop/GD32VW553/GD32VW55X_Wifi_BLE_SDK/GD32VW55x_RELEASE_V1.0.2/MSDK/lwip/lwip-2.1.2/src/api\netifapi.c ****   err = tcpip_api_call(netifapi_do_name_to_index, &API_VAR_REF(msg).call);
 492              		.loc 1 341 9
 493 000c 37050000 		lui	a0,%hi(netifapi_do_name_to_index)
 494              	.LVL52:
 328:C:/Users/stapi/OneDrive/Desktop/GD32VW553/GD32VW55X_Wifi_BLE_SDK/GD32VW55x_RELEASE_V1.0.2/MSDK/lwip/lwip-2.1.2/src/api\netifapi.c ****   err_t err;
 495              		.loc 1 328 1
 496 0010 2E84     		mv	s0,a1
 333:C:/Users/stapi/OneDrive/Desktop/GD32VW553/GD32VW55X_Wifi_BLE_SDK/GD32VW55x_RELEASE_V1.0.2/MSDK/lwip/lwip-2.1.2/src/api\netifapi.c **** 
 497              		.loc 1 333 8
 498 0012 23800500 		sb	zero,0(a1)
 339:C:/Users/stapi/OneDrive/Desktop/GD32VW553/GD32VW55X_Wifi_BLE_SDK/GD32VW55x_RELEASE_V1.0.2/MSDK/lwip/lwip-2.1.2/src/api\netifapi.c **** #endif /* LWIP_MPU_COMPATIBLE */
 499              		.loc 1 339 3 is_stmt 1
 500              		.loc 1 341 3
 501              		.loc 1 341 9 is_stmt 0
 502 0016 13050500 		addi	a0,a0,%lo(netifapi_do_name_to_index)
 503 001a 8A85     		mv	a1,sp
 504              	.LVL53:
 505 001c 97000000 		call	tcpip_api_call
 505      E7800000 
 506              	.LVL54:
 342:C:/Users/stapi/OneDrive/Desktop/GD32VW553/GD32VW55X_Wifi_BLE_SDK/GD32VW55x_RELEASE_V1.0.2/MSDK/lwip/lwip-2.1.2/src/api\netifapi.c ****   if (!err) {
 507              		.loc 1 342 3 is_stmt 1
 508              		.loc 1 342 6 is_stmt 0
 509 0024 09E5     		bne	a0,zero,.L31
 343:C:/Users/stapi/OneDrive/Desktop/GD32VW553/GD32VW55X_Wifi_BLE_SDK/GD32VW55x_RELEASE_V1.0.2/MSDK/lwip/lwip-2.1.2/src/api\netifapi.c ****     *idx = NETIFAPI_VAR_REF(msg).msg.ifs.index;
 510              		.loc 1 343 5 is_stmt 1
 511              		.loc 1 343 10 is_stmt 0
 512 0026 8347C100 		lbu	a5,12(sp)
 513 002a 2300F400 		sb	a5,0(s0)
 514              	.L31:
 344:C:/Users/stapi/OneDrive/Desktop/GD32VW553/GD32VW55X_Wifi_BLE_SDK/GD32VW55x_RELEASE_V1.0.2/MSDK/lwip/lwip-2.1.2/src/api\netifapi.c ****   }
 345:C:/Users/stapi/OneDrive/Desktop/GD32VW553/GD32VW55X_Wifi_BLE_SDK/GD32VW55x_RELEASE_V1.0.2/MSDK/lwip/lwip-2.1.2/src/api\netifapi.c ****   NETIFAPI_VAR_FREE(msg);
 515              		.loc 1 345 25 is_stmt 1
 346:C:/Users/stapi/OneDrive/Desktop/GD32VW553/GD32VW55X_Wifi_BLE_SDK/GD32VW55x_RELEASE_V1.0.2/MSDK/lwip/lwip-2.1.2/src/api\netifapi.c ****   return err;
 516              		.loc 1 346 3
 347:C:/Users/stapi/OneDrive/Desktop/GD32VW553/GD32VW55X_Wifi_BLE_SDK/GD32VW55x_RELEASE_V1.0.2/MSDK/lwip/lwip-2.1.2/src/api\netifapi.c **** }
 517              		.loc 1 347 1 is_stmt 0
 518 002e 0561     		addi	sp,sp,32
 519              		.cfi_def_cfa_offset 0
 520 0030 17030000 		tail	__riscv_restore_1
 520      67000300 
 521              		.cfi_restore 8
 522              		.cfi_restore 1
 523              		.cfi_def_cfa_offset -16
 524              		.cfi_endproc
 525              	.LFE14:
 527              		.section	.text.netifapi_netif_index_to_name,"ax",@progbits
 528              		.align	1
 529              		.globl	netifapi_netif_index_to_name
 531              	netifapi_netif_index_to_name:
 532              	.LFB15:
 348:C:/Users/stapi/OneDrive/Desktop/GD32VW553/GD32VW55X_Wifi_BLE_SDK/GD32VW55x_RELEASE_V1.0.2/MSDK/lwip/lwip-2.1.2/src/api\netifapi.c **** 
 349:C:/Users/stapi/OneDrive/Desktop/GD32VW553/GD32VW55X_Wifi_BLE_SDK/GD32VW55x_RELEASE_V1.0.2/MSDK/lwip/lwip-2.1.2/src/api\netifapi.c **** /**
 350:C:/Users/stapi/OneDrive/Desktop/GD32VW553/GD32VW55X_Wifi_BLE_SDK/GD32VW55x_RELEASE_V1.0.2/MSDK/lwip/lwip-2.1.2/src/api\netifapi.c **** * @ingroup netifapi_netif
 351:C:/Users/stapi/OneDrive/Desktop/GD32VW553/GD32VW55X_Wifi_BLE_SDK/GD32VW55x_RELEASE_V1.0.2/MSDK/lwip/lwip-2.1.2/src/api\netifapi.c **** * Call netif_index_to_name() in a thread-safe way by running that function inside the
 352:C:/Users/stapi/OneDrive/Desktop/GD32VW553/GD32VW55X_Wifi_BLE_SDK/GD32VW55x_RELEASE_V1.0.2/MSDK/lwip/lwip-2.1.2/src/api\netifapi.c **** * tcpip_thread context.
 353:C:/Users/stapi/OneDrive/Desktop/GD32VW553/GD32VW55X_Wifi_BLE_SDK/GD32VW55x_RELEASE_V1.0.2/MSDK/lwip/lwip-2.1.2/src/api\netifapi.c **** *
 354:C:/Users/stapi/OneDrive/Desktop/GD32VW553/GD32VW55X_Wifi_BLE_SDK/GD32VW55x_RELEASE_V1.0.2/MSDK/lwip/lwip-2.1.2/src/api\netifapi.c **** * @param idx the interface index of the netif
 355:C:/Users/stapi/OneDrive/Desktop/GD32VW553/GD32VW55X_Wifi_BLE_SDK/GD32VW55x_RELEASE_V1.0.2/MSDK/lwip/lwip-2.1.2/src/api\netifapi.c **** * @param name output name of the found netif, empty '\0' string if netif not found.
 356:C:/Users/stapi/OneDrive/Desktop/GD32VW553/GD32VW55X_Wifi_BLE_SDK/GD32VW55x_RELEASE_V1.0.2/MSDK/lwip/lwip-2.1.2/src/api\netifapi.c **** *             name should be of at least NETIF_NAMESIZE bytes
 357:C:/Users/stapi/OneDrive/Desktop/GD32VW553/GD32VW55X_Wifi_BLE_SDK/GD32VW55x_RELEASE_V1.0.2/MSDK/lwip/lwip-2.1.2/src/api\netifapi.c **** */
 358:C:/Users/stapi/OneDrive/Desktop/GD32VW553/GD32VW55X_Wifi_BLE_SDK/GD32VW55x_RELEASE_V1.0.2/MSDK/lwip/lwip-2.1.2/src/api\netifapi.c **** err_t
 359:C:/Users/stapi/OneDrive/Desktop/GD32VW553/GD32VW55X_Wifi_BLE_SDK/GD32VW55x_RELEASE_V1.0.2/MSDK/lwip/lwip-2.1.2/src/api\netifapi.c **** netifapi_netif_index_to_name(u8_t idx, char *name)
 360:C:/Users/stapi/OneDrive/Desktop/GD32VW553/GD32VW55X_Wifi_BLE_SDK/GD32VW55x_RELEASE_V1.0.2/MSDK/lwip/lwip-2.1.2/src/api\netifapi.c **** {
 533              		.loc 1 360 1 is_stmt 1
 534              		.cfi_startproc
 535              	.LVL55:
 536 0000 17030000 		call	t0,__riscv_save_0
 536      E7020300 
 537              		.cfi_offset 1, -4
 538              		.cfi_def_cfa_offset 16
 361:C:/Users/stapi/OneDrive/Desktop/GD32VW553/GD32VW55X_Wifi_BLE_SDK/GD32VW55x_RELEASE_V1.0.2/MSDK/lwip/lwip-2.1.2/src/api\netifapi.c ****   err_t err;
 539              		.loc 1 361 3
 362:C:/Users/stapi/OneDrive/Desktop/GD32VW553/GD32VW55X_Wifi_BLE_SDK/GD32VW55x_RELEASE_V1.0.2/MSDK/lwip/lwip-2.1.2/src/api\netifapi.c ****   NETIFAPI_VAR_DECLARE(msg);
 540              		.loc 1 362 3
 363:C:/Users/stapi/OneDrive/Desktop/GD32VW553/GD32VW55X_Wifi_BLE_SDK/GD32VW55x_RELEASE_V1.0.2/MSDK/lwip/lwip-2.1.2/src/api\netifapi.c ****   NETIFAPI_VAR_ALLOC(msg);
 541              		.loc 1 363 26
 364:C:/Users/stapi/OneDrive/Desktop/GD32VW553/GD32VW55X_Wifi_BLE_SDK/GD32VW55x_RELEASE_V1.0.2/MSDK/lwip/lwip-2.1.2/src/api\netifapi.c **** 
 365:C:/Users/stapi/OneDrive/Desktop/GD32VW553/GD32VW55X_Wifi_BLE_SDK/GD32VW55x_RELEASE_V1.0.2/MSDK/lwip/lwip-2.1.2/src/api\netifapi.c ****   NETIFAPI_VAR_REF(msg).msg.ifs.index = idx;
 542              		.loc 1 365 3
 360:C:/Users/stapi/OneDrive/Desktop/GD32VW553/GD32VW55X_Wifi_BLE_SDK/GD32VW55x_RELEASE_V1.0.2/MSDK/lwip/lwip-2.1.2/src/api\netifapi.c ****   err_t err;
 543              		.loc 1 360 1 is_stmt 0
 544 0008 0111     		addi	sp,sp,-32
 545              		.cfi_def_cfa_offset 48
 546              		.loc 1 365 39
 547 000a 2306A100 		sb	a0,12(sp)
 366:C:/Users/stapi/OneDrive/Desktop/GD32VW553/GD32VW55X_Wifi_BLE_SDK/GD32VW55x_RELEASE_V1.0.2/MSDK/lwip/lwip-2.1.2/src/api\netifapi.c **** #if !LWIP_MPU_COMPATIBLE
 367:C:/Users/stapi/OneDrive/Desktop/GD32VW553/GD32VW55X_Wifi_BLE_SDK/GD32VW55x_RELEASE_V1.0.2/MSDK/lwip/lwip-2.1.2/src/api\netifapi.c ****   NETIFAPI_VAR_REF(msg).msg.ifs.name = name;
 548              		.loc 1 367 3 is_stmt 1
 368:C:/Users/stapi/OneDrive/Desktop/GD32VW553/GD32VW55X_Wifi_BLE_SDK/GD32VW55x_RELEASE_V1.0.2/MSDK/lwip/lwip-2.1.2/src/api\netifapi.c **** #endif /* LWIP_MPU_COMPATIBLE */
 369:C:/Users/stapi/OneDrive/Desktop/GD32VW553/GD32VW55X_Wifi_BLE_SDK/GD32VW55x_RELEASE_V1.0.2/MSDK/lwip/lwip-2.1.2/src/api\netifapi.c ****   err = tcpip_api_call(netifapi_do_index_to_name, &API_VAR_REF(msg).call);
 549              		.loc 1 369 9 is_stmt 0
 550 000e 37050000 		lui	a0,%hi(netifapi_do_index_to_name)
 551              	.LVL56:
 367:C:/Users/stapi/OneDrive/Desktop/GD32VW553/GD32VW55X_Wifi_BLE_SDK/GD32VW55x_RELEASE_V1.0.2/MSDK/lwip/lwip-2.1.2/src/api\netifapi.c **** #endif /* LWIP_MPU_COMPATIBLE */
 552              		.loc 1 367 38
 553 0012 2EC4     		sw	a1,8(sp)
 554              		.loc 1 369 3 is_stmt 1
 555              		.loc 1 369 9 is_stmt 0
 556 0014 13050500 		addi	a0,a0,%lo(netifapi_do_index_to_name)
 557 0018 8A85     		mv	a1,sp
 558              	.LVL57:
 559 001a 97000000 		call	tcpip_api_call
 559      E7800000 
 560              	.LVL58:
 370:C:/Users/stapi/OneDrive/Desktop/GD32VW553/GD32VW55X_Wifi_BLE_SDK/GD32VW55x_RELEASE_V1.0.2/MSDK/lwip/lwip-2.1.2/src/api\netifapi.c **** #if LWIP_MPU_COMPATIBLE
 371:C:/Users/stapi/OneDrive/Desktop/GD32VW553/GD32VW55X_Wifi_BLE_SDK/GD32VW55x_RELEASE_V1.0.2/MSDK/lwip/lwip-2.1.2/src/api\netifapi.c ****   if (!err) {
 372:C:/Users/stapi/OneDrive/Desktop/GD32VW553/GD32VW55X_Wifi_BLE_SDK/GD32VW55x_RELEASE_V1.0.2/MSDK/lwip/lwip-2.1.2/src/api\netifapi.c ****     strncpy(name, NETIFAPI_VAR_REF(msg).msg.ifs.name, NETIF_NAMESIZE - 1);
 373:C:/Users/stapi/OneDrive/Desktop/GD32VW553/GD32VW55X_Wifi_BLE_SDK/GD32VW55x_RELEASE_V1.0.2/MSDK/lwip/lwip-2.1.2/src/api\netifapi.c ****     name[NETIF_NAMESIZE - 1] = '\0';
 374:C:/Users/stapi/OneDrive/Desktop/GD32VW553/GD32VW55X_Wifi_BLE_SDK/GD32VW55x_RELEASE_V1.0.2/MSDK/lwip/lwip-2.1.2/src/api\netifapi.c ****   }
 375:C:/Users/stapi/OneDrive/Desktop/GD32VW553/GD32VW55X_Wifi_BLE_SDK/GD32VW55x_RELEASE_V1.0.2/MSDK/lwip/lwip-2.1.2/src/api\netifapi.c **** #endif /* LWIP_MPU_COMPATIBLE */
 376:C:/Users/stapi/OneDrive/Desktop/GD32VW553/GD32VW55X_Wifi_BLE_SDK/GD32VW55x_RELEASE_V1.0.2/MSDK/lwip/lwip-2.1.2/src/api\netifapi.c ****   NETIFAPI_VAR_FREE(msg);
 561              		.loc 1 376 25 is_stmt 1
 377:C:/Users/stapi/OneDrive/Desktop/GD32VW553/GD32VW55X_Wifi_BLE_SDK/GD32VW55x_RELEASE_V1.0.2/MSDK/lwip/lwip-2.1.2/src/api\netifapi.c ****   return err;
 562              		.loc 1 377 3
 378:C:/Users/stapi/OneDrive/Desktop/GD32VW553/GD32VW55X_Wifi_BLE_SDK/GD32VW55x_RELEASE_V1.0.2/MSDK/lwip/lwip-2.1.2/src/api\netifapi.c **** }
 563              		.loc 1 378 1 is_stmt 0
 564 0022 0561     		addi	sp,sp,32
 565              		.cfi_def_cfa_offset 0
 566 0024 17030000 		tail	__riscv_restore_0
 566      67000300 
 567              		.cfi_restore 1
 568              		.cfi_def_cfa_offset -16
 569              		.cfi_endproc
 570              	.LFE15:
 572              		.text
 573              	.Letext0:
 574              		.file 2 "c:\\users\\stapi\\onedrive\\desktop\\gd32vw553\\embeddedbuilder_v1.4.7.26843\\tools\\nucl
 575              		.file 3 "c:\\users\\stapi\\onedrive\\desktop\\gd32vw553\\embeddedbuilder_v1.4.7.26843\\tools\\nucl
 576              		.file 4 "c:\\users\\stapi\\onedrive\\desktop\\gd32vw553\\embeddedbuilder_v1.4.7.26843\\tools\\nucl
 577              		.file 5 "..\\..\\..\\..\\lwip\\lwip-2.1.2\\src\\include/lwip/arch.h"
 578              		.file 6 "..\\..\\..\\..\\lwip\\lwip-2.1.2\\src\\include/lwip/err.h"
 579              		.file 7 "..\\..\\..\\..\\lwip\\lwip-2.1.2\\src\\include/lwip/pbuf.h"
 580              		.file 8 "..\\..\\..\\..\\lwip\\lwip-2.1.2\\src\\include/lwip/ip4_addr.h"
 581              		.file 9 "..\\..\\..\\..\\lwip\\lwip-2.1.2\\src\\include/lwip/ip_addr.h"
 582              		.file 10 "..\\..\\..\\..\\lwip\\lwip-2.1.2\\src\\include/lwip/netif.h"
 583              		.file 11 "..\\..\\..\\..\\lwip\\lwip-2.1.2\\src\\include/lwip/prot/ethernet.h"
 584              		.file 12 "..\\..\\..\\..\\lwip\\lwip-2.1.2\\src\\include/lwip/priv/tcpip_priv.h"
 585              		.file 13 "..\\..\\..\\..\\lwip\\lwip-2.1.2\\src\\include/lwip/priv/api_msg.h"
 586              		.file 14 "..\\..\\..\\..\\lwip\\lwip-2.1.2\\src\\include/lwip/netifapi.h"