   1              		.file	"raw.c"
   2              		.option nopic
   3              		.attribute arch, "rv32i2p0_m2p0_a2p0_f2p0_c2p0_b_p0p94"
   4              		.attribute unaligned_access, 0
   5              		.attribute stack_align, 16
   6              		.text
   7              	.Ltext0:
   8              		.cfi_sections	.debug_frame
   9              		.section	.rodata.raw_input.str1.4,"aMS",@progbits,1
  10              		.align	2
  11              	.LC0:
  12 0000 433A2F55 		.string	"C:/Users/stapi/OneDrive/Desktop/GD32VW553/GD32VW55X_Wifi_BLE_SDK/GD32VW55x_RELEASE_V1.0.2
  12      73657273 
  12      2F737461 
  12      70692F4F 
  12      6E654472 
  13 007e 0000     		.align	2
  14              	.LC1:
  15 0080 72617720 		.string	"raw pcb recv callback altered pbuf payload pointer without eating packet"
  15      70636220 
  15      72656376 
  15      2063616C 
  15      6C626163 
  16 00c9 000000   		.align	2
  17              	.LC2:
  18 00cc 41737365 		.string	"Assertion \"%s\" failed at line %d in %s\n"
  18      7274696F 
  18      6E202225 
  18      73222066 
  18      61696C65 
  19              		.section	.text.raw_input,"ax",@progbits
  20              		.align	1
  21              		.globl	raw_input
  23              	raw_input:
  24              	.LFB5:
  25              		.file 1 "C:/Users/stapi/OneDrive/Desktop/GD32VW553/GD32VW55X_Wifi_BLE_SDK/GD32VW55x_RELEASE_V1.0.2
   1:C:/Users/stapi/OneDrive/Desktop/GD32VW553/GD32VW55X_Wifi_BLE_SDK/GD32VW55x_RELEASE_V1.0.2/MSDK/lwip/lwip-2.1.2/src/core\raw.c **** /**
   2:C:/Users/stapi/OneDrive/Desktop/GD32VW553/GD32VW55X_Wifi_BLE_SDK/GD32VW55x_RELEASE_V1.0.2/MSDK/lwip/lwip-2.1.2/src/core\raw.c ****  * @file
   3:C:/Users/stapi/OneDrive/Desktop/GD32VW553/GD32VW55X_Wifi_BLE_SDK/GD32VW55x_RELEASE_V1.0.2/MSDK/lwip/lwip-2.1.2/src/core\raw.c ****  * Implementation of raw protocol PCBs for low-level handling of
   4:C:/Users/stapi/OneDrive/Desktop/GD32VW553/GD32VW55X_Wifi_BLE_SDK/GD32VW55x_RELEASE_V1.0.2/MSDK/lwip/lwip-2.1.2/src/core\raw.c ****  * different types of protocols besides (or overriding) those
   5:C:/Users/stapi/OneDrive/Desktop/GD32VW553/GD32VW55X_Wifi_BLE_SDK/GD32VW55x_RELEASE_V1.0.2/MSDK/lwip/lwip-2.1.2/src/core\raw.c ****  * already available in lwIP.\n
   6:C:/Users/stapi/OneDrive/Desktop/GD32VW553/GD32VW55X_Wifi_BLE_SDK/GD32VW55x_RELEASE_V1.0.2/MSDK/lwip/lwip-2.1.2/src/core\raw.c ****  * See also @ref raw_raw
   7:C:/Users/stapi/OneDrive/Desktop/GD32VW553/GD32VW55X_Wifi_BLE_SDK/GD32VW55x_RELEASE_V1.0.2/MSDK/lwip/lwip-2.1.2/src/core\raw.c ****  *
   8:C:/Users/stapi/OneDrive/Desktop/GD32VW553/GD32VW55X_Wifi_BLE_SDK/GD32VW55x_RELEASE_V1.0.2/MSDK/lwip/lwip-2.1.2/src/core\raw.c ****  * @defgroup raw_raw RAW
   9:C:/Users/stapi/OneDrive/Desktop/GD32VW553/GD32VW55X_Wifi_BLE_SDK/GD32VW55x_RELEASE_V1.0.2/MSDK/lwip/lwip-2.1.2/src/core\raw.c ****  * @ingroup callbackstyle_api
  10:C:/Users/stapi/OneDrive/Desktop/GD32VW553/GD32VW55X_Wifi_BLE_SDK/GD32VW55x_RELEASE_V1.0.2/MSDK/lwip/lwip-2.1.2/src/core\raw.c ****  * Implementation of raw protocol PCBs for low-level handling of
  11:C:/Users/stapi/OneDrive/Desktop/GD32VW553/GD32VW55X_Wifi_BLE_SDK/GD32VW55x_RELEASE_V1.0.2/MSDK/lwip/lwip-2.1.2/src/core\raw.c ****  * different types of protocols besides (or overriding) those
  12:C:/Users/stapi/OneDrive/Desktop/GD32VW553/GD32VW55X_Wifi_BLE_SDK/GD32VW55x_RELEASE_V1.0.2/MSDK/lwip/lwip-2.1.2/src/core\raw.c ****  * already available in lwIP.\n
  13:C:/Users/stapi/OneDrive/Desktop/GD32VW553/GD32VW55X_Wifi_BLE_SDK/GD32VW55x_RELEASE_V1.0.2/MSDK/lwip/lwip-2.1.2/src/core\raw.c ****  * @see @ref api
  14:C:/Users/stapi/OneDrive/Desktop/GD32VW553/GD32VW55X_Wifi_BLE_SDK/GD32VW55x_RELEASE_V1.0.2/MSDK/lwip/lwip-2.1.2/src/core\raw.c ****  */
  15:C:/Users/stapi/OneDrive/Desktop/GD32VW553/GD32VW55X_Wifi_BLE_SDK/GD32VW55x_RELEASE_V1.0.2/MSDK/lwip/lwip-2.1.2/src/core\raw.c **** 
  16:C:/Users/stapi/OneDrive/Desktop/GD32VW553/GD32VW55X_Wifi_BLE_SDK/GD32VW55x_RELEASE_V1.0.2/MSDK/lwip/lwip-2.1.2/src/core\raw.c **** /*
  17:C:/Users/stapi/OneDrive/Desktop/GD32VW553/GD32VW55X_Wifi_BLE_SDK/GD32VW55x_RELEASE_V1.0.2/MSDK/lwip/lwip-2.1.2/src/core\raw.c ****  * Copyright (c) 2001-2004 Swedish Institute of Computer Science.
  18:C:/Users/stapi/OneDrive/Desktop/GD32VW553/GD32VW55X_Wifi_BLE_SDK/GD32VW55x_RELEASE_V1.0.2/MSDK/lwip/lwip-2.1.2/src/core\raw.c ****  * All rights reserved.
  19:C:/Users/stapi/OneDrive/Desktop/GD32VW553/GD32VW55X_Wifi_BLE_SDK/GD32VW55x_RELEASE_V1.0.2/MSDK/lwip/lwip-2.1.2/src/core\raw.c ****  *
  20:C:/Users/stapi/OneDrive/Desktop/GD32VW553/GD32VW55X_Wifi_BLE_SDK/GD32VW55x_RELEASE_V1.0.2/MSDK/lwip/lwip-2.1.2/src/core\raw.c ****  * Redistribution and use in source and binary forms, with or without modification,
  21:C:/Users/stapi/OneDrive/Desktop/GD32VW553/GD32VW55X_Wifi_BLE_SDK/GD32VW55x_RELEASE_V1.0.2/MSDK/lwip/lwip-2.1.2/src/core\raw.c ****  * are permitted provided that the following conditions are met:
  22:C:/Users/stapi/OneDrive/Desktop/GD32VW553/GD32VW55X_Wifi_BLE_SDK/GD32VW55x_RELEASE_V1.0.2/MSDK/lwip/lwip-2.1.2/src/core\raw.c ****  *
  23:C:/Users/stapi/OneDrive/Desktop/GD32VW553/GD32VW55X_Wifi_BLE_SDK/GD32VW55x_RELEASE_V1.0.2/MSDK/lwip/lwip-2.1.2/src/core\raw.c ****  * 1. Redistributions of source code must retain the above copyright notice,
  24:C:/Users/stapi/OneDrive/Desktop/GD32VW553/GD32VW55X_Wifi_BLE_SDK/GD32VW55x_RELEASE_V1.0.2/MSDK/lwip/lwip-2.1.2/src/core\raw.c ****  *    this list of conditions and the following disclaimer.
  25:C:/Users/stapi/OneDrive/Desktop/GD32VW553/GD32VW55X_Wifi_BLE_SDK/GD32VW55x_RELEASE_V1.0.2/MSDK/lwip/lwip-2.1.2/src/core\raw.c ****  * 2. Redistributions in binary form must reproduce the above copyright notice,
  26:C:/Users/stapi/OneDrive/Desktop/GD32VW553/GD32VW55X_Wifi_BLE_SDK/GD32VW55x_RELEASE_V1.0.2/MSDK/lwip/lwip-2.1.2/src/core\raw.c ****  *    this list of conditions and the following disclaimer in the documentation
  27:C:/Users/stapi/OneDrive/Desktop/GD32VW553/GD32VW55X_Wifi_BLE_SDK/GD32VW55x_RELEASE_V1.0.2/MSDK/lwip/lwip-2.1.2/src/core\raw.c ****  *    and/or other materials provided with the distribution.
  28:C:/Users/stapi/OneDrive/Desktop/GD32VW553/GD32VW55X_Wifi_BLE_SDK/GD32VW55x_RELEASE_V1.0.2/MSDK/lwip/lwip-2.1.2/src/core\raw.c ****  * 3. The name of the author may not be used to endorse or promote products
  29:C:/Users/stapi/OneDrive/Desktop/GD32VW553/GD32VW55X_Wifi_BLE_SDK/GD32VW55x_RELEASE_V1.0.2/MSDK/lwip/lwip-2.1.2/src/core\raw.c ****  *    derived from this software without specific prior written permission.
  30:C:/Users/stapi/OneDrive/Desktop/GD32VW553/GD32VW55X_Wifi_BLE_SDK/GD32VW55x_RELEASE_V1.0.2/MSDK/lwip/lwip-2.1.2/src/core\raw.c ****  *
  31:C:/Users/stapi/OneDrive/Desktop/GD32VW553/GD32VW55X_Wifi_BLE_SDK/GD32VW55x_RELEASE_V1.0.2/MSDK/lwip/lwip-2.1.2/src/core\raw.c ****  * THIS SOFTWARE IS PROVIDED BY THE AUTHOR ``AS IS'' AND ANY EXPRESS OR IMPLIED
  32:C:/Users/stapi/OneDrive/Desktop/GD32VW553/GD32VW55X_Wifi_BLE_SDK/GD32VW55x_RELEASE_V1.0.2/MSDK/lwip/lwip-2.1.2/src/core\raw.c ****  * WARRANTIES, INCLUDING, BUT NOT LIMITED TO, THE IMPLIED WARRANTIES OF
  33:C:/Users/stapi/OneDrive/Desktop/GD32VW553/GD32VW55X_Wifi_BLE_SDK/GD32VW55x_RELEASE_V1.0.2/MSDK/lwip/lwip-2.1.2/src/core\raw.c ****  * MERCHANTABILITY AND FITNESS FOR A PARTICULAR PURPOSE ARE DISCLAIMED. IN NO EVENT
  34:C:/Users/stapi/OneDrive/Desktop/GD32VW553/GD32VW55X_Wifi_BLE_SDK/GD32VW55x_RELEASE_V1.0.2/MSDK/lwip/lwip-2.1.2/src/core\raw.c ****  * SHALL THE AUTHOR BE LIABLE FOR ANY DIRECT, INDIRECT, INCIDENTAL, SPECIAL,
  35:C:/Users/stapi/OneDrive/Desktop/GD32VW553/GD32VW55X_Wifi_BLE_SDK/GD32VW55x_RELEASE_V1.0.2/MSDK/lwip/lwip-2.1.2/src/core\raw.c ****  * EXEMPLARY, OR CONSEQUENTIAL DAMAGES (INCLUDING, BUT NOT LIMITED TO, PROCUREMENT
  36:C:/Users/stapi/OneDrive/Desktop/GD32VW553/GD32VW55X_Wifi_BLE_SDK/GD32VW55x_RELEASE_V1.0.2/MSDK/lwip/lwip-2.1.2/src/core\raw.c ****  * OF SUBSTITUTE GOODS OR SERVICES; LOSS OF USE, DATA, OR PROFITS; OR BUSINESS
  37:C:/Users/stapi/OneDrive/Desktop/GD32VW553/GD32VW55X_Wifi_BLE_SDK/GD32VW55x_RELEASE_V1.0.2/MSDK/lwip/lwip-2.1.2/src/core\raw.c ****  * INTERRUPTION) HOWEVER CAUSED AND ON ANY THEORY OF LIABILITY, WHETHER IN
  38:C:/Users/stapi/OneDrive/Desktop/GD32VW553/GD32VW55X_Wifi_BLE_SDK/GD32VW55x_RELEASE_V1.0.2/MSDK/lwip/lwip-2.1.2/src/core\raw.c ****  * CONTRACT, STRICT LIABILITY, OR TORT (INCLUDING NEGLIGENCE OR OTHERWISE) ARISING
  39:C:/Users/stapi/OneDrive/Desktop/GD32VW553/GD32VW55X_Wifi_BLE_SDK/GD32VW55x_RELEASE_V1.0.2/MSDK/lwip/lwip-2.1.2/src/core\raw.c ****  * IN ANY WAY OUT OF THE USE OF THIS SOFTWARE, EVEN IF ADVISED OF THE POSSIBILITY
  40:C:/Users/stapi/OneDrive/Desktop/GD32VW553/GD32VW55X_Wifi_BLE_SDK/GD32VW55x_RELEASE_V1.0.2/MSDK/lwip/lwip-2.1.2/src/core\raw.c ****  * OF SUCH DAMAGE.
  41:C:/Users/stapi/OneDrive/Desktop/GD32VW553/GD32VW55X_Wifi_BLE_SDK/GD32VW55x_RELEASE_V1.0.2/MSDK/lwip/lwip-2.1.2/src/core\raw.c ****  *
  42:C:/Users/stapi/OneDrive/Desktop/GD32VW553/GD32VW55X_Wifi_BLE_SDK/GD32VW55x_RELEASE_V1.0.2/MSDK/lwip/lwip-2.1.2/src/core\raw.c ****  * This file is part of the lwIP TCP/IP stack.
  43:C:/Users/stapi/OneDrive/Desktop/GD32VW553/GD32VW55X_Wifi_BLE_SDK/GD32VW55x_RELEASE_V1.0.2/MSDK/lwip/lwip-2.1.2/src/core\raw.c ****  *
  44:C:/Users/stapi/OneDrive/Desktop/GD32VW553/GD32VW55X_Wifi_BLE_SDK/GD32VW55x_RELEASE_V1.0.2/MSDK/lwip/lwip-2.1.2/src/core\raw.c ****  * Author: Adam Dunkels <adam@sics.se>
  45:C:/Users/stapi/OneDrive/Desktop/GD32VW553/GD32VW55X_Wifi_BLE_SDK/GD32VW55x_RELEASE_V1.0.2/MSDK/lwip/lwip-2.1.2/src/core\raw.c ****  *
  46:C:/Users/stapi/OneDrive/Desktop/GD32VW553/GD32VW55X_Wifi_BLE_SDK/GD32VW55x_RELEASE_V1.0.2/MSDK/lwip/lwip-2.1.2/src/core\raw.c ****  */
  47:C:/Users/stapi/OneDrive/Desktop/GD32VW553/GD32VW55X_Wifi_BLE_SDK/GD32VW55x_RELEASE_V1.0.2/MSDK/lwip/lwip-2.1.2/src/core\raw.c **** 
  48:C:/Users/stapi/OneDrive/Desktop/GD32VW553/GD32VW55X_Wifi_BLE_SDK/GD32VW55x_RELEASE_V1.0.2/MSDK/lwip/lwip-2.1.2/src/core\raw.c **** #include "lwip/opt.h"
  49:C:/Users/stapi/OneDrive/Desktop/GD32VW553/GD32VW55X_Wifi_BLE_SDK/GD32VW55x_RELEASE_V1.0.2/MSDK/lwip/lwip-2.1.2/src/core\raw.c **** 
  50:C:/Users/stapi/OneDrive/Desktop/GD32VW553/GD32VW55X_Wifi_BLE_SDK/GD32VW55x_RELEASE_V1.0.2/MSDK/lwip/lwip-2.1.2/src/core\raw.c **** #if LWIP_RAW /* don't build if not configured for use in lwipopts.h */
  51:C:/Users/stapi/OneDrive/Desktop/GD32VW553/GD32VW55X_Wifi_BLE_SDK/GD32VW55x_RELEASE_V1.0.2/MSDK/lwip/lwip-2.1.2/src/core\raw.c **** 
  52:C:/Users/stapi/OneDrive/Desktop/GD32VW553/GD32VW55X_Wifi_BLE_SDK/GD32VW55x_RELEASE_V1.0.2/MSDK/lwip/lwip-2.1.2/src/core\raw.c **** #include "lwip/def.h"
  53:C:/Users/stapi/OneDrive/Desktop/GD32VW553/GD32VW55X_Wifi_BLE_SDK/GD32VW55x_RELEASE_V1.0.2/MSDK/lwip/lwip-2.1.2/src/core\raw.c **** #include "lwip/memp.h"
  54:C:/Users/stapi/OneDrive/Desktop/GD32VW553/GD32VW55X_Wifi_BLE_SDK/GD32VW55x_RELEASE_V1.0.2/MSDK/lwip/lwip-2.1.2/src/core\raw.c **** #include "lwip/ip_addr.h"
  55:C:/Users/stapi/OneDrive/Desktop/GD32VW553/GD32VW55X_Wifi_BLE_SDK/GD32VW55x_RELEASE_V1.0.2/MSDK/lwip/lwip-2.1.2/src/core\raw.c **** #include "lwip/netif.h"
  56:C:/Users/stapi/OneDrive/Desktop/GD32VW553/GD32VW55X_Wifi_BLE_SDK/GD32VW55x_RELEASE_V1.0.2/MSDK/lwip/lwip-2.1.2/src/core\raw.c **** #include "lwip/raw.h"
  57:C:/Users/stapi/OneDrive/Desktop/GD32VW553/GD32VW55X_Wifi_BLE_SDK/GD32VW55x_RELEASE_V1.0.2/MSDK/lwip/lwip-2.1.2/src/core\raw.c **** #include "lwip/priv/raw_priv.h"
  58:C:/Users/stapi/OneDrive/Desktop/GD32VW553/GD32VW55X_Wifi_BLE_SDK/GD32VW55x_RELEASE_V1.0.2/MSDK/lwip/lwip-2.1.2/src/core\raw.c **** #include "lwip/stats.h"
  59:C:/Users/stapi/OneDrive/Desktop/GD32VW553/GD32VW55X_Wifi_BLE_SDK/GD32VW55x_RELEASE_V1.0.2/MSDK/lwip/lwip-2.1.2/src/core\raw.c **** #include "lwip/ip6.h"
  60:C:/Users/stapi/OneDrive/Desktop/GD32VW553/GD32VW55X_Wifi_BLE_SDK/GD32VW55x_RELEASE_V1.0.2/MSDK/lwip/lwip-2.1.2/src/core\raw.c **** #include "lwip/ip6_addr.h"
  61:C:/Users/stapi/OneDrive/Desktop/GD32VW553/GD32VW55X_Wifi_BLE_SDK/GD32VW55x_RELEASE_V1.0.2/MSDK/lwip/lwip-2.1.2/src/core\raw.c **** #include "lwip/inet_chksum.h"
  62:C:/Users/stapi/OneDrive/Desktop/GD32VW553/GD32VW55X_Wifi_BLE_SDK/GD32VW55x_RELEASE_V1.0.2/MSDK/lwip/lwip-2.1.2/src/core\raw.c **** 
  63:C:/Users/stapi/OneDrive/Desktop/GD32VW553/GD32VW55X_Wifi_BLE_SDK/GD32VW55x_RELEASE_V1.0.2/MSDK/lwip/lwip-2.1.2/src/core\raw.c **** #include <string.h>
  64:C:/Users/stapi/OneDrive/Desktop/GD32VW553/GD32VW55X_Wifi_BLE_SDK/GD32VW55x_RELEASE_V1.0.2/MSDK/lwip/lwip-2.1.2/src/core\raw.c **** 
  65:C:/Users/stapi/OneDrive/Desktop/GD32VW553/GD32VW55X_Wifi_BLE_SDK/GD32VW55x_RELEASE_V1.0.2/MSDK/lwip/lwip-2.1.2/src/core\raw.c **** /** The list of RAW PCBs */
  66:C:/Users/stapi/OneDrive/Desktop/GD32VW553/GD32VW55X_Wifi_BLE_SDK/GD32VW55x_RELEASE_V1.0.2/MSDK/lwip/lwip-2.1.2/src/core\raw.c **** static struct raw_pcb *raw_pcbs;
  67:C:/Users/stapi/OneDrive/Desktop/GD32VW553/GD32VW55X_Wifi_BLE_SDK/GD32VW55x_RELEASE_V1.0.2/MSDK/lwip/lwip-2.1.2/src/core\raw.c **** 
  68:C:/Users/stapi/OneDrive/Desktop/GD32VW553/GD32VW55X_Wifi_BLE_SDK/GD32VW55x_RELEASE_V1.0.2/MSDK/lwip/lwip-2.1.2/src/core\raw.c **** static u8_t
  69:C:/Users/stapi/OneDrive/Desktop/GD32VW553/GD32VW55X_Wifi_BLE_SDK/GD32VW55x_RELEASE_V1.0.2/MSDK/lwip/lwip-2.1.2/src/core\raw.c **** raw_input_local_match(struct raw_pcb *pcb, u8_t broadcast)
  70:C:/Users/stapi/OneDrive/Desktop/GD32VW553/GD32VW55X_Wifi_BLE_SDK/GD32VW55x_RELEASE_V1.0.2/MSDK/lwip/lwip-2.1.2/src/core\raw.c **** {
  71:C:/Users/stapi/OneDrive/Desktop/GD32VW553/GD32VW55X_Wifi_BLE_SDK/GD32VW55x_RELEASE_V1.0.2/MSDK/lwip/lwip-2.1.2/src/core\raw.c ****   LWIP_UNUSED_ARG(broadcast); /* in IPv6 only case */
  72:C:/Users/stapi/OneDrive/Desktop/GD32VW553/GD32VW55X_Wifi_BLE_SDK/GD32VW55x_RELEASE_V1.0.2/MSDK/lwip/lwip-2.1.2/src/core\raw.c **** 
  73:C:/Users/stapi/OneDrive/Desktop/GD32VW553/GD32VW55X_Wifi_BLE_SDK/GD32VW55x_RELEASE_V1.0.2/MSDK/lwip/lwip-2.1.2/src/core\raw.c ****   /* check if PCB is bound to specific netif */
  74:C:/Users/stapi/OneDrive/Desktop/GD32VW553/GD32VW55X_Wifi_BLE_SDK/GD32VW55x_RELEASE_V1.0.2/MSDK/lwip/lwip-2.1.2/src/core\raw.c ****   if ((pcb->netif_idx != NETIF_NO_INDEX) &&
  75:C:/Users/stapi/OneDrive/Desktop/GD32VW553/GD32VW55X_Wifi_BLE_SDK/GD32VW55x_RELEASE_V1.0.2/MSDK/lwip/lwip-2.1.2/src/core\raw.c ****       (pcb->netif_idx != netif_get_index(ip_data.current_input_netif))) {
  76:C:/Users/stapi/OneDrive/Desktop/GD32VW553/GD32VW55X_Wifi_BLE_SDK/GD32VW55x_RELEASE_V1.0.2/MSDK/lwip/lwip-2.1.2/src/core\raw.c ****     return 0;
  77:C:/Users/stapi/OneDrive/Desktop/GD32VW553/GD32VW55X_Wifi_BLE_SDK/GD32VW55x_RELEASE_V1.0.2/MSDK/lwip/lwip-2.1.2/src/core\raw.c ****   }
  78:C:/Users/stapi/OneDrive/Desktop/GD32VW553/GD32VW55X_Wifi_BLE_SDK/GD32VW55x_RELEASE_V1.0.2/MSDK/lwip/lwip-2.1.2/src/core\raw.c **** 
  79:C:/Users/stapi/OneDrive/Desktop/GD32VW553/GD32VW55X_Wifi_BLE_SDK/GD32VW55x_RELEASE_V1.0.2/MSDK/lwip/lwip-2.1.2/src/core\raw.c **** #if LWIP_IPV4 && LWIP_IPV6
  80:C:/Users/stapi/OneDrive/Desktop/GD32VW553/GD32VW55X_Wifi_BLE_SDK/GD32VW55x_RELEASE_V1.0.2/MSDK/lwip/lwip-2.1.2/src/core\raw.c ****   /* Dual-stack: PCBs listening to any IP type also listen to any IP address */
  81:C:/Users/stapi/OneDrive/Desktop/GD32VW553/GD32VW55X_Wifi_BLE_SDK/GD32VW55x_RELEASE_V1.0.2/MSDK/lwip/lwip-2.1.2/src/core\raw.c ****   if (IP_IS_ANY_TYPE_VAL(pcb->local_ip)) {
  82:C:/Users/stapi/OneDrive/Desktop/GD32VW553/GD32VW55X_Wifi_BLE_SDK/GD32VW55x_RELEASE_V1.0.2/MSDK/lwip/lwip-2.1.2/src/core\raw.c **** #if IP_SOF_BROADCAST_RECV
  83:C:/Users/stapi/OneDrive/Desktop/GD32VW553/GD32VW55X_Wifi_BLE_SDK/GD32VW55x_RELEASE_V1.0.2/MSDK/lwip/lwip-2.1.2/src/core\raw.c ****     if ((broadcast != 0) && !ip_get_option(pcb, SOF_BROADCAST)) {
  84:C:/Users/stapi/OneDrive/Desktop/GD32VW553/GD32VW55X_Wifi_BLE_SDK/GD32VW55x_RELEASE_V1.0.2/MSDK/lwip/lwip-2.1.2/src/core\raw.c ****       return 0;
  85:C:/Users/stapi/OneDrive/Desktop/GD32VW553/GD32VW55X_Wifi_BLE_SDK/GD32VW55x_RELEASE_V1.0.2/MSDK/lwip/lwip-2.1.2/src/core\raw.c ****     }
  86:C:/Users/stapi/OneDrive/Desktop/GD32VW553/GD32VW55X_Wifi_BLE_SDK/GD32VW55x_RELEASE_V1.0.2/MSDK/lwip/lwip-2.1.2/src/core\raw.c **** #endif /* IP_SOF_BROADCAST_RECV */
  87:C:/Users/stapi/OneDrive/Desktop/GD32VW553/GD32VW55X_Wifi_BLE_SDK/GD32VW55x_RELEASE_V1.0.2/MSDK/lwip/lwip-2.1.2/src/core\raw.c ****     return 1;
  88:C:/Users/stapi/OneDrive/Desktop/GD32VW553/GD32VW55X_Wifi_BLE_SDK/GD32VW55x_RELEASE_V1.0.2/MSDK/lwip/lwip-2.1.2/src/core\raw.c ****   }
  89:C:/Users/stapi/OneDrive/Desktop/GD32VW553/GD32VW55X_Wifi_BLE_SDK/GD32VW55x_RELEASE_V1.0.2/MSDK/lwip/lwip-2.1.2/src/core\raw.c **** #endif /* LWIP_IPV4 && LWIP_IPV6 */
  90:C:/Users/stapi/OneDrive/Desktop/GD32VW553/GD32VW55X_Wifi_BLE_SDK/GD32VW55x_RELEASE_V1.0.2/MSDK/lwip/lwip-2.1.2/src/core\raw.c **** 
  91:C:/Users/stapi/OneDrive/Desktop/GD32VW553/GD32VW55X_Wifi_BLE_SDK/GD32VW55x_RELEASE_V1.0.2/MSDK/lwip/lwip-2.1.2/src/core\raw.c ****   /* Only need to check PCB if incoming IP version matches PCB IP version */
  92:C:/Users/stapi/OneDrive/Desktop/GD32VW553/GD32VW55X_Wifi_BLE_SDK/GD32VW55x_RELEASE_V1.0.2/MSDK/lwip/lwip-2.1.2/src/core\raw.c ****   if (IP_ADDR_PCB_VERSION_MATCH_EXACT(pcb, ip_current_dest_addr())) {
  93:C:/Users/stapi/OneDrive/Desktop/GD32VW553/GD32VW55X_Wifi_BLE_SDK/GD32VW55x_RELEASE_V1.0.2/MSDK/lwip/lwip-2.1.2/src/core\raw.c **** #if LWIP_IPV4
  94:C:/Users/stapi/OneDrive/Desktop/GD32VW553/GD32VW55X_Wifi_BLE_SDK/GD32VW55x_RELEASE_V1.0.2/MSDK/lwip/lwip-2.1.2/src/core\raw.c ****     /* Special case: IPv4 broadcast: receive all broadcasts
  95:C:/Users/stapi/OneDrive/Desktop/GD32VW553/GD32VW55X_Wifi_BLE_SDK/GD32VW55x_RELEASE_V1.0.2/MSDK/lwip/lwip-2.1.2/src/core\raw.c ****      * Note: broadcast variable can only be 1 if it is an IPv4 broadcast */
  96:C:/Users/stapi/OneDrive/Desktop/GD32VW553/GD32VW55X_Wifi_BLE_SDK/GD32VW55x_RELEASE_V1.0.2/MSDK/lwip/lwip-2.1.2/src/core\raw.c ****     if (broadcast != 0) {
  97:C:/Users/stapi/OneDrive/Desktop/GD32VW553/GD32VW55X_Wifi_BLE_SDK/GD32VW55x_RELEASE_V1.0.2/MSDK/lwip/lwip-2.1.2/src/core\raw.c **** #if IP_SOF_BROADCAST_RECV
  98:C:/Users/stapi/OneDrive/Desktop/GD32VW553/GD32VW55X_Wifi_BLE_SDK/GD32VW55x_RELEASE_V1.0.2/MSDK/lwip/lwip-2.1.2/src/core\raw.c ****       if (ip_get_option(pcb, SOF_BROADCAST))
  99:C:/Users/stapi/OneDrive/Desktop/GD32VW553/GD32VW55X_Wifi_BLE_SDK/GD32VW55x_RELEASE_V1.0.2/MSDK/lwip/lwip-2.1.2/src/core\raw.c **** #endif /* IP_SOF_BROADCAST_RECV */
 100:C:/Users/stapi/OneDrive/Desktop/GD32VW553/GD32VW55X_Wifi_BLE_SDK/GD32VW55x_RELEASE_V1.0.2/MSDK/lwip/lwip-2.1.2/src/core\raw.c ****       {
 101:C:/Users/stapi/OneDrive/Desktop/GD32VW553/GD32VW55X_Wifi_BLE_SDK/GD32VW55x_RELEASE_V1.0.2/MSDK/lwip/lwip-2.1.2/src/core\raw.c ****         if (ip4_addr_isany(ip_2_ip4(&pcb->local_ip))) {
 102:C:/Users/stapi/OneDrive/Desktop/GD32VW553/GD32VW55X_Wifi_BLE_SDK/GD32VW55x_RELEASE_V1.0.2/MSDK/lwip/lwip-2.1.2/src/core\raw.c ****           return 1;
 103:C:/Users/stapi/OneDrive/Desktop/GD32VW553/GD32VW55X_Wifi_BLE_SDK/GD32VW55x_RELEASE_V1.0.2/MSDK/lwip/lwip-2.1.2/src/core\raw.c ****         }
 104:C:/Users/stapi/OneDrive/Desktop/GD32VW553/GD32VW55X_Wifi_BLE_SDK/GD32VW55x_RELEASE_V1.0.2/MSDK/lwip/lwip-2.1.2/src/core\raw.c ****       }
 105:C:/Users/stapi/OneDrive/Desktop/GD32VW553/GD32VW55X_Wifi_BLE_SDK/GD32VW55x_RELEASE_V1.0.2/MSDK/lwip/lwip-2.1.2/src/core\raw.c ****     } else
 106:C:/Users/stapi/OneDrive/Desktop/GD32VW553/GD32VW55X_Wifi_BLE_SDK/GD32VW55x_RELEASE_V1.0.2/MSDK/lwip/lwip-2.1.2/src/core\raw.c **** #endif /* LWIP_IPV4 */
 107:C:/Users/stapi/OneDrive/Desktop/GD32VW553/GD32VW55X_Wifi_BLE_SDK/GD32VW55x_RELEASE_V1.0.2/MSDK/lwip/lwip-2.1.2/src/core\raw.c ****       /* Handle IPv4 and IPv6: catch all or exact match */
 108:C:/Users/stapi/OneDrive/Desktop/GD32VW553/GD32VW55X_Wifi_BLE_SDK/GD32VW55x_RELEASE_V1.0.2/MSDK/lwip/lwip-2.1.2/src/core\raw.c ****       if (ip_addr_isany(&pcb->local_ip) ||
 109:C:/Users/stapi/OneDrive/Desktop/GD32VW553/GD32VW55X_Wifi_BLE_SDK/GD32VW55x_RELEASE_V1.0.2/MSDK/lwip/lwip-2.1.2/src/core\raw.c ****           ip_addr_cmp(&pcb->local_ip, ip_current_dest_addr())) {
 110:C:/Users/stapi/OneDrive/Desktop/GD32VW553/GD32VW55X_Wifi_BLE_SDK/GD32VW55x_RELEASE_V1.0.2/MSDK/lwip/lwip-2.1.2/src/core\raw.c ****         return 1;
 111:C:/Users/stapi/OneDrive/Desktop/GD32VW553/GD32VW55X_Wifi_BLE_SDK/GD32VW55x_RELEASE_V1.0.2/MSDK/lwip/lwip-2.1.2/src/core\raw.c ****       }
 112:C:/Users/stapi/OneDrive/Desktop/GD32VW553/GD32VW55X_Wifi_BLE_SDK/GD32VW55x_RELEASE_V1.0.2/MSDK/lwip/lwip-2.1.2/src/core\raw.c ****   }
 113:C:/Users/stapi/OneDrive/Desktop/GD32VW553/GD32VW55X_Wifi_BLE_SDK/GD32VW55x_RELEASE_V1.0.2/MSDK/lwip/lwip-2.1.2/src/core\raw.c **** 
 114:C:/Users/stapi/OneDrive/Desktop/GD32VW553/GD32VW55X_Wifi_BLE_SDK/GD32VW55x_RELEASE_V1.0.2/MSDK/lwip/lwip-2.1.2/src/core\raw.c ****   return 0;
 115:C:/Users/stapi/OneDrive/Desktop/GD32VW553/GD32VW55X_Wifi_BLE_SDK/GD32VW55x_RELEASE_V1.0.2/MSDK/lwip/lwip-2.1.2/src/core\raw.c **** }
 116:C:/Users/stapi/OneDrive/Desktop/GD32VW553/GD32VW55X_Wifi_BLE_SDK/GD32VW55x_RELEASE_V1.0.2/MSDK/lwip/lwip-2.1.2/src/core\raw.c **** 
 117:C:/Users/stapi/OneDrive/Desktop/GD32VW553/GD32VW55X_Wifi_BLE_SDK/GD32VW55x_RELEASE_V1.0.2/MSDK/lwip/lwip-2.1.2/src/core\raw.c **** /**
 118:C:/Users/stapi/OneDrive/Desktop/GD32VW553/GD32VW55X_Wifi_BLE_SDK/GD32VW55x_RELEASE_V1.0.2/MSDK/lwip/lwip-2.1.2/src/core\raw.c ****  * Determine if in incoming IP packet is covered by a RAW PCB
 119:C:/Users/stapi/OneDrive/Desktop/GD32VW553/GD32VW55X_Wifi_BLE_SDK/GD32VW55x_RELEASE_V1.0.2/MSDK/lwip/lwip-2.1.2/src/core\raw.c ****  * and if so, pass it to a user-provided receive callback function.
 120:C:/Users/stapi/OneDrive/Desktop/GD32VW553/GD32VW55X_Wifi_BLE_SDK/GD32VW55x_RELEASE_V1.0.2/MSDK/lwip/lwip-2.1.2/src/core\raw.c ****  *
 121:C:/Users/stapi/OneDrive/Desktop/GD32VW553/GD32VW55X_Wifi_BLE_SDK/GD32VW55x_RELEASE_V1.0.2/MSDK/lwip/lwip-2.1.2/src/core\raw.c ****  * Given an incoming IP datagram (as a chain of pbufs) this function
 122:C:/Users/stapi/OneDrive/Desktop/GD32VW553/GD32VW55X_Wifi_BLE_SDK/GD32VW55x_RELEASE_V1.0.2/MSDK/lwip/lwip-2.1.2/src/core\raw.c ****  * finds a corresponding RAW PCB and calls the corresponding receive
 123:C:/Users/stapi/OneDrive/Desktop/GD32VW553/GD32VW55X_Wifi_BLE_SDK/GD32VW55x_RELEASE_V1.0.2/MSDK/lwip/lwip-2.1.2/src/core\raw.c ****  * callback function.
 124:C:/Users/stapi/OneDrive/Desktop/GD32VW553/GD32VW55X_Wifi_BLE_SDK/GD32VW55x_RELEASE_V1.0.2/MSDK/lwip/lwip-2.1.2/src/core\raw.c ****  *
 125:C:/Users/stapi/OneDrive/Desktop/GD32VW553/GD32VW55X_Wifi_BLE_SDK/GD32VW55x_RELEASE_V1.0.2/MSDK/lwip/lwip-2.1.2/src/core\raw.c ****  * @param p pbuf to be demultiplexed to a RAW PCB.
 126:C:/Users/stapi/OneDrive/Desktop/GD32VW553/GD32VW55X_Wifi_BLE_SDK/GD32VW55x_RELEASE_V1.0.2/MSDK/lwip/lwip-2.1.2/src/core\raw.c ****  * @param inp network interface on which the datagram was received.
 127:C:/Users/stapi/OneDrive/Desktop/GD32VW553/GD32VW55X_Wifi_BLE_SDK/GD32VW55x_RELEASE_V1.0.2/MSDK/lwip/lwip-2.1.2/src/core\raw.c ****  * @return - 1 if the packet has been eaten by a RAW PCB receive
 128:C:/Users/stapi/OneDrive/Desktop/GD32VW553/GD32VW55X_Wifi_BLE_SDK/GD32VW55x_RELEASE_V1.0.2/MSDK/lwip/lwip-2.1.2/src/core\raw.c ****  *           callback function. The caller MAY NOT not reference the
 129:C:/Users/stapi/OneDrive/Desktop/GD32VW553/GD32VW55X_Wifi_BLE_SDK/GD32VW55x_RELEASE_V1.0.2/MSDK/lwip/lwip-2.1.2/src/core\raw.c ****  *           packet any longer, and MAY NOT call pbuf_free().
 130:C:/Users/stapi/OneDrive/Desktop/GD32VW553/GD32VW55X_Wifi_BLE_SDK/GD32VW55x_RELEASE_V1.0.2/MSDK/lwip/lwip-2.1.2/src/core\raw.c ****  * @return - 0 if packet is not eaten (pbuf is still referenced by the
 131:C:/Users/stapi/OneDrive/Desktop/GD32VW553/GD32VW55X_Wifi_BLE_SDK/GD32VW55x_RELEASE_V1.0.2/MSDK/lwip/lwip-2.1.2/src/core\raw.c ****  *           caller).
 132:C:/Users/stapi/OneDrive/Desktop/GD32VW553/GD32VW55X_Wifi_BLE_SDK/GD32VW55x_RELEASE_V1.0.2/MSDK/lwip/lwip-2.1.2/src/core\raw.c ****  *
 133:C:/Users/stapi/OneDrive/Desktop/GD32VW553/GD32VW55X_Wifi_BLE_SDK/GD32VW55x_RELEASE_V1.0.2/MSDK/lwip/lwip-2.1.2/src/core\raw.c ****  */
 134:C:/Users/stapi/OneDrive/Desktop/GD32VW553/GD32VW55X_Wifi_BLE_SDK/GD32VW55x_RELEASE_V1.0.2/MSDK/lwip/lwip-2.1.2/src/core\raw.c **** raw_input_state_t
 135:C:/Users/stapi/OneDrive/Desktop/GD32VW553/GD32VW55X_Wifi_BLE_SDK/GD32VW55x_RELEASE_V1.0.2/MSDK/lwip/lwip-2.1.2/src/core\raw.c **** raw_input(struct pbuf *p, struct netif *inp)
 136:C:/Users/stapi/OneDrive/Desktop/GD32VW553/GD32VW55X_Wifi_BLE_SDK/GD32VW55x_RELEASE_V1.0.2/MSDK/lwip/lwip-2.1.2/src/core\raw.c **** {
  26              		.loc 1 136 1
  27              		.cfi_startproc
  28              	.LVL0:
  29 0000 17030000 		call	t0,__riscv_save_9
  29      E7020300 
  30              		.cfi_offset 24, -40
  31              		.cfi_offset 23, -36
  32              		.cfi_offset 22, -32
  33              		.cfi_offset 21, -28
  34              		.cfi_offset 20, -24
  35              		.cfi_offset 19, -20
  36              		.cfi_offset 18, -16
  37              		.cfi_offset 9, -12
  38              		.cfi_offset 8, -8
  39              		.cfi_offset 1, -4
  40              		.cfi_def_cfa_offset 48
 137:C:/Users/stapi/OneDrive/Desktop/GD32VW553/GD32VW55X_Wifi_BLE_SDK/GD32VW55x_RELEASE_V1.0.2/MSDK/lwip/lwip-2.1.2/src/core\raw.c ****   struct raw_pcb *pcb, *prev;
  41              		.loc 1 137 3
 138:C:/Users/stapi/OneDrive/Desktop/GD32VW553/GD32VW55X_Wifi_BLE_SDK/GD32VW55x_RELEASE_V1.0.2/MSDK/lwip/lwip-2.1.2/src/core\raw.c ****   s16_t proto;
  42              		.loc 1 138 3
 139:C:/Users/stapi/OneDrive/Desktop/GD32VW553/GD32VW55X_Wifi_BLE_SDK/GD32VW55x_RELEASE_V1.0.2/MSDK/lwip/lwip-2.1.2/src/core\raw.c ****   raw_input_state_t ret = RAW_INPUT_NONE;
  43              		.loc 1 139 3
  44              	.LVL1:
 140:C:/Users/stapi/OneDrive/Desktop/GD32VW553/GD32VW55X_Wifi_BLE_SDK/GD32VW55x_RELEASE_V1.0.2/MSDK/lwip/lwip-2.1.2/src/core\raw.c ****   u8_t broadcast = ip_addr_isbroadcast(ip_current_dest_addr(), ip_current_netif());
  45              		.loc 1 140 3
  46              		.loc 1 140 20 is_stmt 0
  47 0008 37090000 		lui	s2,%hi(ip_data)
  48 000c 93070900 		addi	a5,s2,%lo(ip_data)
  49 0010 8C43     		lw	a1,0(a5)
  50              	.LVL2:
 136:C:/Users/stapi/OneDrive/Desktop/GD32VW553/GD32VW55X_Wifi_BLE_SDK/GD32VW55x_RELEASE_V1.0.2/MSDK/lwip/lwip-2.1.2/src/core\raw.c ****   struct raw_pcb *pcb, *prev;
  51              		.loc 1 136 1
  52 0012 AA84     		mv	s1,a0
  53              		.loc 1 140 20
  54 0014 C84B     		lw	a0,20(a5)
  55              	.LVL3:
 141:C:/Users/stapi/OneDrive/Desktop/GD32VW553/GD32VW55X_Wifi_BLE_SDK/GD32VW55x_RELEASE_V1.0.2/MSDK/lwip/lwip-2.1.2/src/core\raw.c **** 
 142:C:/Users/stapi/OneDrive/Desktop/GD32VW553/GD32VW55X_Wifi_BLE_SDK/GD32VW55x_RELEASE_V1.0.2/MSDK/lwip/lwip-2.1.2/src/core\raw.c ****   LWIP_UNUSED_ARG(inp);
 143:C:/Users/stapi/OneDrive/Desktop/GD32VW553/GD32VW55X_Wifi_BLE_SDK/GD32VW55x_RELEASE_V1.0.2/MSDK/lwip/lwip-2.1.2/src/core\raw.c **** 
 144:C:/Users/stapi/OneDrive/Desktop/GD32VW553/GD32VW55X_Wifi_BLE_SDK/GD32VW55x_RELEASE_V1.0.2/MSDK/lwip/lwip-2.1.2/src/core\raw.c **** #if LWIP_IPV6
 145:C:/Users/stapi/OneDrive/Desktop/GD32VW553/GD32VW55X_Wifi_BLE_SDK/GD32VW55x_RELEASE_V1.0.2/MSDK/lwip/lwip-2.1.2/src/core\raw.c **** #if LWIP_IPV4
 146:C:/Users/stapi/OneDrive/Desktop/GD32VW553/GD32VW55X_Wifi_BLE_SDK/GD32VW55x_RELEASE_V1.0.2/MSDK/lwip/lwip-2.1.2/src/core\raw.c ****   if (IP_HDR_GET_VERSION(p->payload) == 6)
 147:C:/Users/stapi/OneDrive/Desktop/GD32VW553/GD32VW55X_Wifi_BLE_SDK/GD32VW55x_RELEASE_V1.0.2/MSDK/lwip/lwip-2.1.2/src/core\raw.c **** #endif /* LWIP_IPV4 */
 148:C:/Users/stapi/OneDrive/Desktop/GD32VW553/GD32VW55X_Wifi_BLE_SDK/GD32VW55x_RELEASE_V1.0.2/MSDK/lwip/lwip-2.1.2/src/core\raw.c ****   {
 149:C:/Users/stapi/OneDrive/Desktop/GD32VW553/GD32VW55X_Wifi_BLE_SDK/GD32VW55x_RELEASE_V1.0.2/MSDK/lwip/lwip-2.1.2/src/core\raw.c ****     struct ip6_hdr *ip6hdr = (struct ip6_hdr *)p->payload;
 150:C:/Users/stapi/OneDrive/Desktop/GD32VW553/GD32VW55X_Wifi_BLE_SDK/GD32VW55x_RELEASE_V1.0.2/MSDK/lwip/lwip-2.1.2/src/core\raw.c ****     proto = IP6H_NEXTH(ip6hdr);
 151:C:/Users/stapi/OneDrive/Desktop/GD32VW553/GD32VW55X_Wifi_BLE_SDK/GD32VW55x_RELEASE_V1.0.2/MSDK/lwip/lwip-2.1.2/src/core\raw.c ****   }
 152:C:/Users/stapi/OneDrive/Desktop/GD32VW553/GD32VW55X_Wifi_BLE_SDK/GD32VW55x_RELEASE_V1.0.2/MSDK/lwip/lwip-2.1.2/src/core\raw.c **** #if LWIP_IPV4
 153:C:/Users/stapi/OneDrive/Desktop/GD32VW553/GD32VW55X_Wifi_BLE_SDK/GD32VW55x_RELEASE_V1.0.2/MSDK/lwip/lwip-2.1.2/src/core\raw.c ****   else
 154:C:/Users/stapi/OneDrive/Desktop/GD32VW553/GD32VW55X_Wifi_BLE_SDK/GD32VW55x_RELEASE_V1.0.2/MSDK/lwip/lwip-2.1.2/src/core\raw.c **** #endif /* LWIP_IPV4 */
 155:C:/Users/stapi/OneDrive/Desktop/GD32VW553/GD32VW55X_Wifi_BLE_SDK/GD32VW55x_RELEASE_V1.0.2/MSDK/lwip/lwip-2.1.2/src/core\raw.c **** #endif /* LWIP_IPV6 */
 156:C:/Users/stapi/OneDrive/Desktop/GD32VW553/GD32VW55X_Wifi_BLE_SDK/GD32VW55x_RELEASE_V1.0.2/MSDK/lwip/lwip-2.1.2/src/core\raw.c **** #if LWIP_IPV4
 157:C:/Users/stapi/OneDrive/Desktop/GD32VW553/GD32VW55X_Wifi_BLE_SDK/GD32VW55x_RELEASE_V1.0.2/MSDK/lwip/lwip-2.1.2/src/core\raw.c ****   {
 158:C:/Users/stapi/OneDrive/Desktop/GD32VW553/GD32VW55X_Wifi_BLE_SDK/GD32VW55x_RELEASE_V1.0.2/MSDK/lwip/lwip-2.1.2/src/core\raw.c ****     proto = IPH_PROTO((struct ip_hdr *)p->payload);
 159:C:/Users/stapi/OneDrive/Desktop/GD32VW553/GD32VW55X_Wifi_BLE_SDK/GD32VW55x_RELEASE_V1.0.2/MSDK/lwip/lwip-2.1.2/src/core\raw.c ****   }
 160:C:/Users/stapi/OneDrive/Desktop/GD32VW553/GD32VW55X_Wifi_BLE_SDK/GD32VW55x_RELEASE_V1.0.2/MSDK/lwip/lwip-2.1.2/src/core\raw.c **** #endif /* LWIP_IPV4 */
 161:C:/Users/stapi/OneDrive/Desktop/GD32VW553/GD32VW55X_Wifi_BLE_SDK/GD32VW55x_RELEASE_V1.0.2/MSDK/lwip/lwip-2.1.2/src/core\raw.c **** 
 162:C:/Users/stapi/OneDrive/Desktop/GD32VW553/GD32VW55X_Wifi_BLE_SDK/GD32VW55x_RELEASE_V1.0.2/MSDK/lwip/lwip-2.1.2/src/core\raw.c ****   prev = NULL;
  56              		.loc 1 162 8
  57 0016 014A     		li	s4,0
  58 0018 13090900 		addi	s2,s2,%lo(ip_data)
 140:C:/Users/stapi/OneDrive/Desktop/GD32VW553/GD32VW55X_Wifi_BLE_SDK/GD32VW55x_RELEASE_V1.0.2/MSDK/lwip/lwip-2.1.2/src/core\raw.c **** 
  59              		.loc 1 140 20
  60 001c 97000000 		call	ip4_addr_isbroadcast_u32
  60      E7800000 
  61              	.LVL4:
 158:C:/Users/stapi/OneDrive/Desktop/GD32VW553/GD32VW55X_Wifi_BLE_SDK/GD32VW55x_RELEASE_V1.0.2/MSDK/lwip/lwip-2.1.2/src/core\raw.c ****   }
  62              		.loc 1 158 13
  63 0024 DC40     		lw	a5,4(s1)
 140:C:/Users/stapi/OneDrive/Desktop/GD32VW553/GD32VW55X_Wifi_BLE_SDK/GD32VW55x_RELEASE_V1.0.2/MSDK/lwip/lwip-2.1.2/src/core\raw.c **** 
  64              		.loc 1 140 20
  65 0026 AA8A     		mv	s5,a0
  66              	.LVL5:
 142:C:/Users/stapi/OneDrive/Desktop/GD32VW553/GD32VW55X_Wifi_BLE_SDK/GD32VW55x_RELEASE_V1.0.2/MSDK/lwip/lwip-2.1.2/src/core\raw.c **** 
  67              		.loc 1 142 3 is_stmt 1
 158:C:/Users/stapi/OneDrive/Desktop/GD32VW553/GD32VW55X_Wifi_BLE_SDK/GD32VW55x_RELEASE_V1.0.2/MSDK/lwip/lwip-2.1.2/src/core\raw.c ****   }
  68              		.loc 1 158 5
  69              	.LBB5:
 163:C:/Users/stapi/OneDrive/Desktop/GD32VW553/GD32VW55X_Wifi_BLE_SDK/GD32VW55x_RELEASE_V1.0.2/MSDK/lwip/lwip-2.1.2/src/core\raw.c ****   pcb = raw_pcbs;
 164:C:/Users/stapi/OneDrive/Desktop/GD32VW553/GD32VW55X_Wifi_BLE_SDK/GD32VW55x_RELEASE_V1.0.2/MSDK/lwip/lwip-2.1.2/src/core\raw.c ****   /* loop through all raw pcbs until the packet is eaten by one */
 165:C:/Users/stapi/OneDrive/Desktop/GD32VW553/GD32VW55X_Wifi_BLE_SDK/GD32VW55x_RELEASE_V1.0.2/MSDK/lwip/lwip-2.1.2/src/core\raw.c ****   /* this allows multiple pcbs to match against the packet by design */
 166:C:/Users/stapi/OneDrive/Desktop/GD32VW553/GD32VW55X_Wifi_BLE_SDK/GD32VW55x_RELEASE_V1.0.2/MSDK/lwip/lwip-2.1.2/src/core\raw.c ****   while (pcb != NULL) {
 167:C:/Users/stapi/OneDrive/Desktop/GD32VW553/GD32VW55X_Wifi_BLE_SDK/GD32VW55x_RELEASE_V1.0.2/MSDK/lwip/lwip-2.1.2/src/core\raw.c ****     if ((pcb->protocol == proto) && raw_input_local_match(pcb, broadcast) &&
 168:C:/Users/stapi/OneDrive/Desktop/GD32VW553/GD32VW55X_Wifi_BLE_SDK/GD32VW55x_RELEASE_V1.0.2/MSDK/lwip/lwip-2.1.2/src/core\raw.c ****         (((pcb->flags & RAW_FLAGS_CONNECTED) == 0) ||
 169:C:/Users/stapi/OneDrive/Desktop/GD32VW553/GD32VW55X_Wifi_BLE_SDK/GD32VW55x_RELEASE_V1.0.2/MSDK/lwip/lwip-2.1.2/src/core\raw.c ****          ip_addr_cmp(&pcb->remote_ip, ip_current_src_addr()))) {
 170:C:/Users/stapi/OneDrive/Desktop/GD32VW553/GD32VW55X_Wifi_BLE_SDK/GD32VW55x_RELEASE_V1.0.2/MSDK/lwip/lwip-2.1.2/src/core\raw.c ****       /* receive callback function available? */
 171:C:/Users/stapi/OneDrive/Desktop/GD32VW553/GD32VW55X_Wifi_BLE_SDK/GD32VW55x_RELEASE_V1.0.2/MSDK/lwip/lwip-2.1.2/src/core\raw.c ****       if (pcb->recv != NULL) {
 172:C:/Users/stapi/OneDrive/Desktop/GD32VW553/GD32VW55X_Wifi_BLE_SDK/GD32VW55x_RELEASE_V1.0.2/MSDK/lwip/lwip-2.1.2/src/core\raw.c ****         u8_t eaten;
 173:C:/Users/stapi/OneDrive/Desktop/GD32VW553/GD32VW55X_Wifi_BLE_SDK/GD32VW55x_RELEASE_V1.0.2/MSDK/lwip/lwip-2.1.2/src/core\raw.c **** #ifndef LWIP_NOASSERT
 174:C:/Users/stapi/OneDrive/Desktop/GD32VW553/GD32VW55X_Wifi_BLE_SDK/GD32VW55x_RELEASE_V1.0.2/MSDK/lwip/lwip-2.1.2/src/core\raw.c ****         void *old_payload = p->payload;
 175:C:/Users/stapi/OneDrive/Desktop/GD32VW553/GD32VW55X_Wifi_BLE_SDK/GD32VW55x_RELEASE_V1.0.2/MSDK/lwip/lwip-2.1.2/src/core\raw.c **** #endif
 176:C:/Users/stapi/OneDrive/Desktop/GD32VW553/GD32VW55X_Wifi_BLE_SDK/GD32VW55x_RELEASE_V1.0.2/MSDK/lwip/lwip-2.1.2/src/core\raw.c ****         ret = RAW_INPUT_DELIVERED;
 177:C:/Users/stapi/OneDrive/Desktop/GD32VW553/GD32VW55X_Wifi_BLE_SDK/GD32VW55x_RELEASE_V1.0.2/MSDK/lwip/lwip-2.1.2/src/core\raw.c ****         /* the receive callback function did not eat the packet? */
 178:C:/Users/stapi/OneDrive/Desktop/GD32VW553/GD32VW55X_Wifi_BLE_SDK/GD32VW55x_RELEASE_V1.0.2/MSDK/lwip/lwip-2.1.2/src/core\raw.c ****         eaten = pcb->recv(pcb->recv_arg, pcb, p, ip_current_src_addr());
  70              		.loc 1 178 17 is_stmt 0
  71 0028 B70B0000 		lui	s7,%hi(ip_data+16)
  72              	.LBE5:
 158:C:/Users/stapi/OneDrive/Desktop/GD32VW553/GD32VW55X_Wifi_BLE_SDK/GD32VW55x_RELEASE_V1.0.2/MSDK/lwip/lwip-2.1.2/src/core\raw.c ****   }
  73              		.loc 1 158 13
  74 002c 03CB9700 		lbu	s6,9(a5)
  75              	.LVL6:
 162:C:/Users/stapi/OneDrive/Desktop/GD32VW553/GD32VW55X_Wifi_BLE_SDK/GD32VW55x_RELEASE_V1.0.2/MSDK/lwip/lwip-2.1.2/src/core\raw.c ****   pcb = raw_pcbs;
  76              		.loc 1 162 3 is_stmt 1
 163:C:/Users/stapi/OneDrive/Desktop/GD32VW553/GD32VW55X_Wifi_BLE_SDK/GD32VW55x_RELEASE_V1.0.2/MSDK/lwip/lwip-2.1.2/src/core\raw.c ****   pcb = raw_pcbs;
  77              		.loc 1 163 3
 163:C:/Users/stapi/OneDrive/Desktop/GD32VW553/GD32VW55X_Wifi_BLE_SDK/GD32VW55x_RELEASE_V1.0.2/MSDK/lwip/lwip-2.1.2/src/core\raw.c ****   pcb = raw_pcbs;
  78              		.loc 1 163 7 is_stmt 0
  79 0030 B7070000 		lui	a5,%hi(.LANCHOR0)
  80 0034 03A40700 		lw	s0,%lo(.LANCHOR0)(a5)
  81              	.LVL7:
 166:C:/Users/stapi/OneDrive/Desktop/GD32VW553/GD32VW55X_Wifi_BLE_SDK/GD32VW55x_RELEASE_V1.0.2/MSDK/lwip/lwip-2.1.2/src/core\raw.c ****     if ((pcb->protocol == proto) && raw_input_local_match(pcb, broadcast) &&
  82              		.loc 1 166 3 is_stmt 1
 139:C:/Users/stapi/OneDrive/Desktop/GD32VW553/GD32VW55X_Wifi_BLE_SDK/GD32VW55x_RELEASE_V1.0.2/MSDK/lwip/lwip-2.1.2/src/core\raw.c ****   u8_t broadcast = ip_addr_isbroadcast(ip_current_dest_addr(), ip_current_netif());
  83              		.loc 1 139 21 is_stmt 0
  84 0038 0145     		li	a0,0
  85 003a 93890700 		addi	s3,a5,%lo(.LANCHOR0)
  86              	.LVL8:
  87              	.L2:
 166:C:/Users/stapi/OneDrive/Desktop/GD32VW553/GD32VW55X_Wifi_BLE_SDK/GD32VW55x_RELEASE_V1.0.2/MSDK/lwip/lwip-2.1.2/src/core\raw.c ****     if ((pcb->protocol == proto) && raw_input_local_match(pcb, broadcast) &&
  88              		.loc 1 166 9 is_stmt 1
  89 003e 25C4     		beq	s0,zero,.L1
 167:C:/Users/stapi/OneDrive/Desktop/GD32VW553/GD32VW55X_Wifi_BLE_SDK/GD32VW55x_RELEASE_V1.0.2/MSDK/lwip/lwip-2.1.2/src/core\raw.c ****         (((pcb->flags & RAW_FLAGS_CONNECTED) == 0) ||
  90              		.loc 1 167 5
 167:C:/Users/stapi/OneDrive/Desktop/GD32VW553/GD32VW55X_Wifi_BLE_SDK/GD32VW55x_RELEASE_V1.0.2/MSDK/lwip/lwip-2.1.2/src/core\raw.c ****         (((pcb->flags & RAW_FLAGS_CONNECTED) == 0) ||
  91              		.loc 1 167 8 is_stmt 0
  92 0040 83470401 		lbu	a5,16(s0)
  93 0044 639A6707 		bne	a5,s6,.L3
  94              	.LVL9:
  95              	.LBB6:
  96              	.LBB7:
  71:C:/Users/stapi/OneDrive/Desktop/GD32VW553/GD32VW55X_Wifi_BLE_SDK/GD32VW55x_RELEASE_V1.0.2/MSDK/lwip/lwip-2.1.2/src/core\raw.c **** 
  97              		.loc 1 71 3 is_stmt 1
  74:C:/Users/stapi/OneDrive/Desktop/GD32VW553/GD32VW55X_Wifi_BLE_SDK/GD32VW55x_RELEASE_V1.0.2/MSDK/lwip/lwip-2.1.2/src/core\raw.c ****       (pcb->netif_idx != netif_get_index(ip_data.current_input_netif))) {
  98              		.loc 1 74 3
  74:C:/Users/stapi/OneDrive/Desktop/GD32VW553/GD32VW55X_Wifi_BLE_SDK/GD32VW55x_RELEASE_V1.0.2/MSDK/lwip/lwip-2.1.2/src/core\raw.c ****       (pcb->netif_idx != netif_get_index(ip_data.current_input_netif))) {
  99              		.loc 1 74 11 is_stmt 0
 100 0048 03478400 		lbu	a4,8(s0)
  74:C:/Users/stapi/OneDrive/Desktop/GD32VW553/GD32VW55X_Wifi_BLE_SDK/GD32VW55x_RELEASE_V1.0.2/MSDK/lwip/lwip-2.1.2/src/core\raw.c ****       (pcb->netif_idx != netif_get_index(ip_data.current_input_netif))) {
 101              		.loc 1 74 6
 102 004c 11CB     		beq	a4,zero,.L4
  75:C:/Users/stapi/OneDrive/Desktop/GD32VW553/GD32VW55X_Wifi_BLE_SDK/GD32VW55x_RELEASE_V1.0.2/MSDK/lwip/lwip-2.1.2/src/core\raw.c ****     return 0;
 103              		.loc 1 75 26
 104 004e 83274900 		lw	a5,4(s2)
 105 0052 83C74703 		lbu	a5,52(a5)
 106 0056 8507     		addi	a5,a5,1
  74:C:/Users/stapi/OneDrive/Desktop/GD32VW553/GD32VW55X_Wifi_BLE_SDK/GD32VW55x_RELEASE_V1.0.2/MSDK/lwip/lwip-2.1.2/src/core\raw.c ****       (pcb->netif_idx != netif_get_index(ip_data.current_input_netif))) {
 107              		.loc 1 74 42
 108 0058 93F7F70F 		andi	a5,a5,0xff
 109 005c 631EF704 		bne	a4,a5,.L3
 110              	.L4:
  92:C:/Users/stapi/OneDrive/Desktop/GD32VW553/GD32VW55X_Wifi_BLE_SDK/GD32VW55x_RELEASE_V1.0.2/MSDK/lwip/lwip-2.1.2/src/core\raw.c **** #if LWIP_IPV4
 111              		.loc 1 92 3 is_stmt 1
  96:C:/Users/stapi/OneDrive/Desktop/GD32VW553/GD32VW55X_Wifi_BLE_SDK/GD32VW55x_RELEASE_V1.0.2/MSDK/lwip/lwip-2.1.2/src/core\raw.c **** #if IP_SOF_BROADCAST_RECV
 112              		.loc 1 96 5
 101:C:/Users/stapi/OneDrive/Desktop/GD32VW553/GD32VW55X_Wifi_BLE_SDK/GD32VW55x_RELEASE_V1.0.2/MSDK/lwip/lwip-2.1.2/src/core\raw.c ****           return 1;
 113              		.loc 1 101 13 is_stmt 0
 114 0060 1C40     		lw	a5,0(s0)
  96:C:/Users/stapi/OneDrive/Desktop/GD32VW553/GD32VW55X_Wifi_BLE_SDK/GD32VW55x_RELEASE_V1.0.2/MSDK/lwip/lwip-2.1.2/src/core\raw.c **** #if IP_SOF_BROADCAST_RECV
 115              		.loc 1 96 8
 116 0062 63860A04 		beq	s5,zero,.L5
 101:C:/Users/stapi/OneDrive/Desktop/GD32VW553/GD32VW55X_Wifi_BLE_SDK/GD32VW55x_RELEASE_V1.0.2/MSDK/lwip/lwip-2.1.2/src/core\raw.c ****           return 1;
 117              		.loc 1 101 9 is_stmt 1
 101:C:/Users/stapi/OneDrive/Desktop/GD32VW553/GD32VW55X_Wifi_BLE_SDK/GD32VW55x_RELEASE_V1.0.2/MSDK/lwip/lwip-2.1.2/src/core\raw.c ****           return 1;
 118              		.loc 1 101 13 is_stmt 0
 119 0066 A9EB     		bne	a5,zero,.L3
 120              	.L6:
 121              	.LVL10:
 122              	.LBE7:
 123              	.LBE6:
 167:C:/Users/stapi/OneDrive/Desktop/GD32VW553/GD32VW55X_Wifi_BLE_SDK/GD32VW55x_RELEASE_V1.0.2/MSDK/lwip/lwip-2.1.2/src/core\raw.c ****         (((pcb->flags & RAW_FLAGS_CONNECTED) == 0) ||
 124              		.loc 1 167 75 discriminator 2
 125 0068 83471401 		lbu	a5,17(s0)
 126 006c 858B     		andi	a5,a5,1
 127 006e 91C7     		beq	a5,zero,.L7
 168:C:/Users/stapi/OneDrive/Desktop/GD32VW553/GD32VW55X_Wifi_BLE_SDK/GD32VW55x_RELEASE_V1.0.2/MSDK/lwip/lwip-2.1.2/src/core\raw.c ****          ip_addr_cmp(&pcb->remote_ip, ip_current_src_addr()))) {
 128              		.loc 1 168 52
 129 0070 5840     		lw	a4,4(s0)
 130 0072 83270901 		lw	a5,16(s2)
 131 0076 6311F704 		bne	a4,a5,.L3
 132              	.L7:
 171:C:/Users/stapi/OneDrive/Desktop/GD32VW553/GD32VW55X_Wifi_BLE_SDK/GD32VW55x_RELEASE_V1.0.2/MSDK/lwip/lwip-2.1.2/src/core\raw.c ****         u8_t eaten;
 133              		.loc 1 171 7 is_stmt 1
 171:C:/Users/stapi/OneDrive/Desktop/GD32VW553/GD32VW55X_Wifi_BLE_SDK/GD32VW55x_RELEASE_V1.0.2/MSDK/lwip/lwip-2.1.2/src/core\raw.c ****         u8_t eaten;
 134              		.loc 1 171 14 is_stmt 0
 135 007a 5C48     		lw	a5,20(s0)
 171:C:/Users/stapi/OneDrive/Desktop/GD32VW553/GD32VW55X_Wifi_BLE_SDK/GD32VW55x_RELEASE_V1.0.2/MSDK/lwip/lwip-2.1.2/src/core\raw.c ****         u8_t eaten;
 136              		.loc 1 171 10
 137 007c 95CF     		beq	a5,zero,.L3
 138              	.LBB9:
 172:C:/Users/stapi/OneDrive/Desktop/GD32VW553/GD32VW55X_Wifi_BLE_SDK/GD32VW55x_RELEASE_V1.0.2/MSDK/lwip/lwip-2.1.2/src/core\raw.c **** #ifndef LWIP_NOASSERT
 139              		.loc 1 172 9 is_stmt 1
 174:C:/Users/stapi/OneDrive/Desktop/GD32VW553/GD32VW55X_Wifi_BLE_SDK/GD32VW55x_RELEASE_V1.0.2/MSDK/lwip/lwip-2.1.2/src/core\raw.c **** #endif
 140              		.loc 1 174 9
 141              		.loc 1 178 17 is_stmt 0
 142 007e 084C     		lw	a0,24(s0)
 143              	.LVL11:
 144 0080 93860B01 		addi	a3,s7,%lo(ip_data+16)
 145 0084 2686     		mv	a2,s1
 146 0086 A285     		mv	a1,s0
 174:C:/Users/stapi/OneDrive/Desktop/GD32VW553/GD32VW55X_Wifi_BLE_SDK/GD32VW55x_RELEASE_V1.0.2/MSDK/lwip/lwip-2.1.2/src/core\raw.c **** #endif
 147              		.loc 1 174 15
 148 0088 03AC4400 		lw	s8,4(s1)
 149              	.LVL12:
 176:C:/Users/stapi/OneDrive/Desktop/GD32VW553/GD32VW55X_Wifi_BLE_SDK/GD32VW55x_RELEASE_V1.0.2/MSDK/lwip/lwip-2.1.2/src/core\raw.c ****         /* the receive callback function did not eat the packet? */
 150              		.loc 1 176 9 is_stmt 1
 151              		.loc 1 178 9
 152              		.loc 1 178 17 is_stmt 0
 153 008c 8297     		jalr	a5
 154              	.LVL13:
 179:C:/Users/stapi/OneDrive/Desktop/GD32VW553/GD32VW55X_Wifi_BLE_SDK/GD32VW55x_RELEASE_V1.0.2/MSDK/lwip/lwip-2.1.2/src/core\raw.c ****         if (eaten != 0) {
 155              		.loc 1 179 9 is_stmt 1
 156              		.loc 1 179 12 is_stmt 0
 157 008e 05C9     		beq	a0,zero,.L8
 180:C:/Users/stapi/OneDrive/Desktop/GD32VW553/GD32VW55X_Wifi_BLE_SDK/GD32VW55x_RELEASE_V1.0.2/MSDK/lwip/lwip-2.1.2/src/core\raw.c ****           /* receive function ate the packet */
 181:C:/Users/stapi/OneDrive/Desktop/GD32VW553/GD32VW55X_Wifi_BLE_SDK/GD32VW55x_RELEASE_V1.0.2/MSDK/lwip/lwip-2.1.2/src/core\raw.c ****           p = NULL;
 158              		.loc 1 181 11 is_stmt 1
 159              	.LVL14:
 182:C:/Users/stapi/OneDrive/Desktop/GD32VW553/GD32VW55X_Wifi_BLE_SDK/GD32VW55x_RELEASE_V1.0.2/MSDK/lwip/lwip-2.1.2/src/core\raw.c ****           if (prev != NULL) {
 160              		.loc 1 182 11
 183:C:/Users/stapi/OneDrive/Desktop/GD32VW553/GD32VW55X_Wifi_BLE_SDK/GD32VW55x_RELEASE_V1.0.2/MSDK/lwip/lwip-2.1.2/src/core\raw.c ****             /* move the pcb to the front of raw_pcbs so that is
 184:C:/Users/stapi/OneDrive/Desktop/GD32VW553/GD32VW55X_Wifi_BLE_SDK/GD32VW55x_RELEASE_V1.0.2/MSDK/lwip/lwip-2.1.2/src/core\raw.c ****                found faster next time */
 185:C:/Users/stapi/OneDrive/Desktop/GD32VW553/GD32VW55X_Wifi_BLE_SDK/GD32VW55x_RELEASE_V1.0.2/MSDK/lwip/lwip-2.1.2/src/core\raw.c ****             prev->next = pcb->next;
 186:C:/Users/stapi/OneDrive/Desktop/GD32VW553/GD32VW55X_Wifi_BLE_SDK/GD32VW55x_RELEASE_V1.0.2/MSDK/lwip/lwip-2.1.2/src/core\raw.c ****             pcb->next = raw_pcbs;
 187:C:/Users/stapi/OneDrive/Desktop/GD32VW553/GD32VW55X_Wifi_BLE_SDK/GD32VW55x_RELEASE_V1.0.2/MSDK/lwip/lwip-2.1.2/src/core\raw.c ****             raw_pcbs = pcb;
 188:C:/Users/stapi/OneDrive/Desktop/GD32VW553/GD32VW55X_Wifi_BLE_SDK/GD32VW55x_RELEASE_V1.0.2/MSDK/lwip/lwip-2.1.2/src/core\raw.c ****           }
 189:C:/Users/stapi/OneDrive/Desktop/GD32VW553/GD32VW55X_Wifi_BLE_SDK/GD32VW55x_RELEASE_V1.0.2/MSDK/lwip/lwip-2.1.2/src/core\raw.c ****           return RAW_INPUT_EATEN;
 161              		.loc 1 189 18 is_stmt 0
 162 0090 0545     		li	a0,1
 163              	.LVL15:
 182:C:/Users/stapi/OneDrive/Desktop/GD32VW553/GD32VW55X_Wifi_BLE_SDK/GD32VW55x_RELEASE_V1.0.2/MSDK/lwip/lwip-2.1.2/src/core\raw.c ****           if (prev != NULL) {
 164              		.loc 1 182 14
 165 0092 630A0A00 		beq	s4,zero,.L1
 185:C:/Users/stapi/OneDrive/Desktop/GD32VW553/GD32VW55X_Wifi_BLE_SDK/GD32VW55x_RELEASE_V1.0.2/MSDK/lwip/lwip-2.1.2/src/core\raw.c ****             pcb->next = raw_pcbs;
 166              		.loc 1 185 13 is_stmt 1
 185:C:/Users/stapi/OneDrive/Desktop/GD32VW553/GD32VW55X_Wifi_BLE_SDK/GD32VW55x_RELEASE_V1.0.2/MSDK/lwip/lwip-2.1.2/src/core\raw.c ****             pcb->next = raw_pcbs;
 167              		.loc 1 185 29 is_stmt 0
 168 0096 5C44     		lw	a5,12(s0)
 185:C:/Users/stapi/OneDrive/Desktop/GD32VW553/GD32VW55X_Wifi_BLE_SDK/GD32VW55x_RELEASE_V1.0.2/MSDK/lwip/lwip-2.1.2/src/core\raw.c ****             pcb->next = raw_pcbs;
 169              		.loc 1 185 24
 170 0098 2326FA00 		sw	a5,12(s4)
 186:C:/Users/stapi/OneDrive/Desktop/GD32VW553/GD32VW55X_Wifi_BLE_SDK/GD32VW55x_RELEASE_V1.0.2/MSDK/lwip/lwip-2.1.2/src/core\raw.c ****             raw_pcbs = pcb;
 171              		.loc 1 186 13 is_stmt 1
 186:C:/Users/stapi/OneDrive/Desktop/GD32VW553/GD32VW55X_Wifi_BLE_SDK/GD32VW55x_RELEASE_V1.0.2/MSDK/lwip/lwip-2.1.2/src/core\raw.c ****             raw_pcbs = pcb;
 172              		.loc 1 186 23 is_stmt 0
 173 009c 83A70900 		lw	a5,0(s3)
 187:C:/Users/stapi/OneDrive/Desktop/GD32VW553/GD32VW55X_Wifi_BLE_SDK/GD32VW55x_RELEASE_V1.0.2/MSDK/lwip/lwip-2.1.2/src/core\raw.c ****           }
 174              		.loc 1 187 22
 175 00a0 23A08900 		sw	s0,0(s3)
 186:C:/Users/stapi/OneDrive/Desktop/GD32VW553/GD32VW55X_Wifi_BLE_SDK/GD32VW55x_RELEASE_V1.0.2/MSDK/lwip/lwip-2.1.2/src/core\raw.c ****             raw_pcbs = pcb;
 176              		.loc 1 186 23
 177 00a4 5CC4     		sw	a5,12(s0)
 187:C:/Users/stapi/OneDrive/Desktop/GD32VW553/GD32VW55X_Wifi_BLE_SDK/GD32VW55x_RELEASE_V1.0.2/MSDK/lwip/lwip-2.1.2/src/core\raw.c ****           }
 178              		.loc 1 187 13 is_stmt 1
 179              	.LVL16:
 180              	.L1:
 181              	.LBE9:
 190:C:/Users/stapi/OneDrive/Desktop/GD32VW553/GD32VW55X_Wifi_BLE_SDK/GD32VW55x_RELEASE_V1.0.2/MSDK/lwip/lwip-2.1.2/src/core\raw.c ****         } else {
 191:C:/Users/stapi/OneDrive/Desktop/GD32VW553/GD32VW55X_Wifi_BLE_SDK/GD32VW55x_RELEASE_V1.0.2/MSDK/lwip/lwip-2.1.2/src/core\raw.c ****           /* sanity-check that the receive callback did not alter the pbuf */
 192:C:/Users/stapi/OneDrive/Desktop/GD32VW553/GD32VW55X_Wifi_BLE_SDK/GD32VW55x_RELEASE_V1.0.2/MSDK/lwip/lwip-2.1.2/src/core\raw.c ****           LWIP_ASSERT("raw pcb recv callback altered pbuf payload pointer without eating packet",
 193:C:/Users/stapi/OneDrive/Desktop/GD32VW553/GD32VW55X_Wifi_BLE_SDK/GD32VW55x_RELEASE_V1.0.2/MSDK/lwip/lwip-2.1.2/src/core\raw.c ****                       p->payload == old_payload);
 194:C:/Users/stapi/OneDrive/Desktop/GD32VW553/GD32VW55X_Wifi_BLE_SDK/GD32VW55x_RELEASE_V1.0.2/MSDK/lwip/lwip-2.1.2/src/core\raw.c ****         }
 195:C:/Users/stapi/OneDrive/Desktop/GD32VW553/GD32VW55X_Wifi_BLE_SDK/GD32VW55x_RELEASE_V1.0.2/MSDK/lwip/lwip-2.1.2/src/core\raw.c ****       }
 196:C:/Users/stapi/OneDrive/Desktop/GD32VW553/GD32VW55X_Wifi_BLE_SDK/GD32VW55x_RELEASE_V1.0.2/MSDK/lwip/lwip-2.1.2/src/core\raw.c ****       /* no receive callback function was set for this raw PCB */
 197:C:/Users/stapi/OneDrive/Desktop/GD32VW553/GD32VW55X_Wifi_BLE_SDK/GD32VW55x_RELEASE_V1.0.2/MSDK/lwip/lwip-2.1.2/src/core\raw.c ****     }
 198:C:/Users/stapi/OneDrive/Desktop/GD32VW553/GD32VW55X_Wifi_BLE_SDK/GD32VW55x_RELEASE_V1.0.2/MSDK/lwip/lwip-2.1.2/src/core\raw.c ****     /* drop the packet */
 199:C:/Users/stapi/OneDrive/Desktop/GD32VW553/GD32VW55X_Wifi_BLE_SDK/GD32VW55x_RELEASE_V1.0.2/MSDK/lwip/lwip-2.1.2/src/core\raw.c ****     prev = pcb;
 200:C:/Users/stapi/OneDrive/Desktop/GD32VW553/GD32VW55X_Wifi_BLE_SDK/GD32VW55x_RELEASE_V1.0.2/MSDK/lwip/lwip-2.1.2/src/core\raw.c ****     pcb = pcb->next;
 201:C:/Users/stapi/OneDrive/Desktop/GD32VW553/GD32VW55X_Wifi_BLE_SDK/GD32VW55x_RELEASE_V1.0.2/MSDK/lwip/lwip-2.1.2/src/core\raw.c ****   }
 202:C:/Users/stapi/OneDrive/Desktop/GD32VW553/GD32VW55X_Wifi_BLE_SDK/GD32VW55x_RELEASE_V1.0.2/MSDK/lwip/lwip-2.1.2/src/core\raw.c ****   return ret;
 203:C:/Users/stapi/OneDrive/Desktop/GD32VW553/GD32VW55X_Wifi_BLE_SDK/GD32VW55x_RELEASE_V1.0.2/MSDK/lwip/lwip-2.1.2/src/core\raw.c **** }
 182              		.loc 1 203 1 is_stmt 0
 183 00a6 17030000 		tail	__riscv_restore_9
 183      67000300 
 184              		.cfi_remember_state
 185              		.cfi_restore 24
 186              		.cfi_restore 23
 187              		.cfi_restore 22
 188              		.cfi_restore 21
 189              		.cfi_restore 20
 190              		.cfi_restore 19
 191              		.cfi_restore 18
 192              		.cfi_restore 9
 193              		.cfi_restore 8
 194              		.cfi_restore 1
 195              		.cfi_def_cfa_offset 0
 196              	.LVL17:
 197              	.L5:
 198              		.cfi_restore_state
 199              	.LBB10:
 200              	.LBB8:
 108:C:/Users/stapi/OneDrive/Desktop/GD32VW553/GD32VW55X_Wifi_BLE_SDK/GD32VW55x_RELEASE_V1.0.2/MSDK/lwip/lwip-2.1.2/src/core\raw.c ****           ip_addr_cmp(&pcb->local_ip, ip_current_dest_addr())) {
 201              		.loc 1 108 7 is_stmt 1
 108:C:/Users/stapi/OneDrive/Desktop/GD32VW553/GD32VW55X_Wifi_BLE_SDK/GD32VW55x_RELEASE_V1.0.2/MSDK/lwip/lwip-2.1.2/src/core\raw.c ****           ip_addr_cmp(&pcb->local_ip, ip_current_dest_addr())) {
 202              		.loc 1 108 11 is_stmt 0
 203 00ae CDDF     		beq	a5,zero,.L6
 108:C:/Users/stapi/OneDrive/Desktop/GD32VW553/GD32VW55X_Wifi_BLE_SDK/GD32VW55x_RELEASE_V1.0.2/MSDK/lwip/lwip-2.1.2/src/core\raw.c ****           ip_addr_cmp(&pcb->local_ip, ip_current_dest_addr())) {
 204              		.loc 1 108 41
 205 00b0 03274901 		lw	a4,20(s2)
 206 00b4 E30AF7FA 		beq	a4,a5,.L6
 207              	.LVL18:
 208              	.L3:
 209              	.LBE8:
 210              	.LBE10:
 211              	.LBB11:
 192:C:/Users/stapi/OneDrive/Desktop/GD32VW553/GD32VW55X_Wifi_BLE_SDK/GD32VW55x_RELEASE_V1.0.2/MSDK/lwip/lwip-2.1.2/src/core\raw.c ****                       p->payload == old_payload);
 212              		.loc 1 192 11 is_stmt 1 discriminator 2
 192:C:/Users/stapi/OneDrive/Desktop/GD32VW553/GD32VW55X_Wifi_BLE_SDK/GD32VW55x_RELEASE_V1.0.2/MSDK/lwip/lwip-2.1.2/src/core\raw.c ****                       p->payload == old_payload);
 213              		.loc 1 192 11 discriminator 2
 214              	.LBE11:
 199:C:/Users/stapi/OneDrive/Desktop/GD32VW553/GD32VW55X_Wifi_BLE_SDK/GD32VW55x_RELEASE_V1.0.2/MSDK/lwip/lwip-2.1.2/src/core\raw.c ****     pcb = pcb->next;
 215              		.loc 1 199 5 discriminator 2
 200:C:/Users/stapi/OneDrive/Desktop/GD32VW553/GD32VW55X_Wifi_BLE_SDK/GD32VW55x_RELEASE_V1.0.2/MSDK/lwip/lwip-2.1.2/src/core\raw.c ****   }
 216              		.loc 1 200 5 discriminator 2
 200:C:/Users/stapi/OneDrive/Desktop/GD32VW553/GD32VW55X_Wifi_BLE_SDK/GD32VW55x_RELEASE_V1.0.2/MSDK/lwip/lwip-2.1.2/src/core\raw.c ****   }
 217              		.loc 1 200 9 is_stmt 0 discriminator 2
 218 00b8 228A     		mv	s4,s0
 219 00ba 4044     		lw	s0,12(s0)
 220              	.LVL19:
 221 00bc 49B7     		j	.L2
 222              	.LVL20:
 223              	.L8:
 224              	.LBB12:
 192:C:/Users/stapi/OneDrive/Desktop/GD32VW553/GD32VW55X_Wifi_BLE_SDK/GD32VW55x_RELEASE_V1.0.2/MSDK/lwip/lwip-2.1.2/src/core\raw.c ****                       p->payload == old_payload);
 225              		.loc 1 192 11 is_stmt 1
 192:C:/Users/stapi/OneDrive/Desktop/GD32VW553/GD32VW55X_Wifi_BLE_SDK/GD32VW55x_RELEASE_V1.0.2/MSDK/lwip/lwip-2.1.2/src/core\raw.c ****                       p->payload == old_payload);
 226              		.loc 1 192 11
 227 00be DC40     		lw	a5,4(s1)
 228 00c0 63858703 		beq	a5,s8,.L13
 192:C:/Users/stapi/OneDrive/Desktop/GD32VW553/GD32VW55X_Wifi_BLE_SDK/GD32VW55x_RELEASE_V1.0.2/MSDK/lwip/lwip-2.1.2/src/core\raw.c ****                       p->payload == old_payload);
 229              		.loc 1 192 11 discriminator 1
 192:C:/Users/stapi/OneDrive/Desktop/GD32VW553/GD32VW55X_Wifi_BLE_SDK/GD32VW55x_RELEASE_V1.0.2/MSDK/lwip/lwip-2.1.2/src/core\raw.c ****                       p->payload == old_payload);
 230              		.loc 1 192 11 discriminator 1
 231 00c4 B7060000 		lui	a3,%hi(.LC0)
 232 00c8 B7050000 		lui	a1,%hi(.LC1)
 233 00cc 37050000 		lui	a0,%hi(.LC2)
 234              	.LVL21:
 235 00d0 93860600 		addi	a3,a3,%lo(.LC0)
 236 00d4 1306000C 		li	a2,192
 237 00d8 93850500 		addi	a1,a1,%lo(.LC1)
 238 00dc 13050500 		addi	a0,a0,%lo(.LC2)
 239 00e0 97000000 		call	printf
 239      E7800000 
 240              	.LVL22:
 241              	.L10:
 192:C:/Users/stapi/OneDrive/Desktop/GD32VW553/GD32VW55X_Wifi_BLE_SDK/GD32VW55x_RELEASE_V1.0.2/MSDK/lwip/lwip-2.1.2/src/core\raw.c ****                       p->payload == old_payload);
 242              		.loc 1 192 11 discriminator 1
 192:C:/Users/stapi/OneDrive/Desktop/GD32VW553/GD32VW55X_Wifi_BLE_SDK/GD32VW55x_RELEASE_V1.0.2/MSDK/lwip/lwip-2.1.2/src/core\raw.c ****                       p->payload == old_payload);
 243              		.loc 1 192 11 discriminator 1
 192:C:/Users/stapi/OneDrive/Desktop/GD32VW553/GD32VW55X_Wifi_BLE_SDK/GD32VW55x_RELEASE_V1.0.2/MSDK/lwip/lwip-2.1.2/src/core\raw.c ****                       p->payload == old_payload);
 244              		.loc 1 192 11 discriminator 1
 245 00e8 01A0     		j	.L10
 246              	.LVL23:
 247              	.L13:
 176:C:/Users/stapi/OneDrive/Desktop/GD32VW553/GD32VW55X_Wifi_BLE_SDK/GD32VW55x_RELEASE_V1.0.2/MSDK/lwip/lwip-2.1.2/src/core\raw.c ****         /* the receive callback function did not eat the packet? */
 248              		.loc 1 176 13 is_stmt 0
 249 00ea 0945     		li	a0,2
 250              	.LVL24:
 251 00ec F1B7     		j	.L3
 252              	.LBE12:
 253              		.cfi_endproc
 254              	.LFE5:
 256              		.section	.text.raw_bind,"ax",@progbits
 257              		.align	1
 258              		.globl	raw_bind
 260              	raw_bind:
 261              	.LFB6:
 204:C:/Users/stapi/OneDrive/Desktop/GD32VW553/GD32VW55X_Wifi_BLE_SDK/GD32VW55x_RELEASE_V1.0.2/MSDK/lwip/lwip-2.1.2/src/core\raw.c **** 
 205:C:/Users/stapi/OneDrive/Desktop/GD32VW553/GD32VW55X_Wifi_BLE_SDK/GD32VW55x_RELEASE_V1.0.2/MSDK/lwip/lwip-2.1.2/src/core\raw.c **** /**
 206:C:/Users/stapi/OneDrive/Desktop/GD32VW553/GD32VW55X_Wifi_BLE_SDK/GD32VW55x_RELEASE_V1.0.2/MSDK/lwip/lwip-2.1.2/src/core\raw.c ****  * @ingroup raw_raw
 207:C:/Users/stapi/OneDrive/Desktop/GD32VW553/GD32VW55X_Wifi_BLE_SDK/GD32VW55x_RELEASE_V1.0.2/MSDK/lwip/lwip-2.1.2/src/core\raw.c ****  * Bind a RAW PCB.
 208:C:/Users/stapi/OneDrive/Desktop/GD32VW553/GD32VW55X_Wifi_BLE_SDK/GD32VW55x_RELEASE_V1.0.2/MSDK/lwip/lwip-2.1.2/src/core\raw.c ****  *
 209:C:/Users/stapi/OneDrive/Desktop/GD32VW553/GD32VW55X_Wifi_BLE_SDK/GD32VW55x_RELEASE_V1.0.2/MSDK/lwip/lwip-2.1.2/src/core\raw.c ****  * @param pcb RAW PCB to be bound with a local address ipaddr.
 210:C:/Users/stapi/OneDrive/Desktop/GD32VW553/GD32VW55X_Wifi_BLE_SDK/GD32VW55x_RELEASE_V1.0.2/MSDK/lwip/lwip-2.1.2/src/core\raw.c ****  * @param ipaddr local IP address to bind with. Use IP4_ADDR_ANY to
 211:C:/Users/stapi/OneDrive/Desktop/GD32VW553/GD32VW55X_Wifi_BLE_SDK/GD32VW55x_RELEASE_V1.0.2/MSDK/lwip/lwip-2.1.2/src/core\raw.c ****  * bind to all local interfaces.
 212:C:/Users/stapi/OneDrive/Desktop/GD32VW553/GD32VW55X_Wifi_BLE_SDK/GD32VW55x_RELEASE_V1.0.2/MSDK/lwip/lwip-2.1.2/src/core\raw.c ****  *
 213:C:/Users/stapi/OneDrive/Desktop/GD32VW553/GD32VW55X_Wifi_BLE_SDK/GD32VW55x_RELEASE_V1.0.2/MSDK/lwip/lwip-2.1.2/src/core\raw.c ****  * @return lwIP error code.
 214:C:/Users/stapi/OneDrive/Desktop/GD32VW553/GD32VW55X_Wifi_BLE_SDK/GD32VW55x_RELEASE_V1.0.2/MSDK/lwip/lwip-2.1.2/src/core\raw.c ****  * - ERR_OK. Successful. No error occurred.
 215:C:/Users/stapi/OneDrive/Desktop/GD32VW553/GD32VW55X_Wifi_BLE_SDK/GD32VW55x_RELEASE_V1.0.2/MSDK/lwip/lwip-2.1.2/src/core\raw.c ****  * - ERR_USE. The specified IP address is already bound to by
 216:C:/Users/stapi/OneDrive/Desktop/GD32VW553/GD32VW55X_Wifi_BLE_SDK/GD32VW55x_RELEASE_V1.0.2/MSDK/lwip/lwip-2.1.2/src/core\raw.c ****  * another RAW PCB.
 217:C:/Users/stapi/OneDrive/Desktop/GD32VW553/GD32VW55X_Wifi_BLE_SDK/GD32VW55x_RELEASE_V1.0.2/MSDK/lwip/lwip-2.1.2/src/core\raw.c ****  *
 218:C:/Users/stapi/OneDrive/Desktop/GD32VW553/GD32VW55X_Wifi_BLE_SDK/GD32VW55x_RELEASE_V1.0.2/MSDK/lwip/lwip-2.1.2/src/core\raw.c ****  * @see raw_disconnect()
 219:C:/Users/stapi/OneDrive/Desktop/GD32VW553/GD32VW55X_Wifi_BLE_SDK/GD32VW55x_RELEASE_V1.0.2/MSDK/lwip/lwip-2.1.2/src/core\raw.c ****  */
 220:C:/Users/stapi/OneDrive/Desktop/GD32VW553/GD32VW55X_Wifi_BLE_SDK/GD32VW55x_RELEASE_V1.0.2/MSDK/lwip/lwip-2.1.2/src/core\raw.c **** err_t
 221:C:/Users/stapi/OneDrive/Desktop/GD32VW553/GD32VW55X_Wifi_BLE_SDK/GD32VW55x_RELEASE_V1.0.2/MSDK/lwip/lwip-2.1.2/src/core\raw.c **** raw_bind(struct raw_pcb *pcb, const ip_addr_t *ipaddr)
 222:C:/Users/stapi/OneDrive/Desktop/GD32VW553/GD32VW55X_Wifi_BLE_SDK/GD32VW55x_RELEASE_V1.0.2/MSDK/lwip/lwip-2.1.2/src/core\raw.c **** {
 262              		.loc 1 222 1 is_stmt 1
 263              		.cfi_startproc
 264              	.LVL25:
 223:C:/Users/stapi/OneDrive/Desktop/GD32VW553/GD32VW55X_Wifi_BLE_SDK/GD32VW55x_RELEASE_V1.0.2/MSDK/lwip/lwip-2.1.2/src/core\raw.c ****   LWIP_ASSERT_CORE_LOCKED();
 265              		.loc 1 223 28
 224:C:/Users/stapi/OneDrive/Desktop/GD32VW553/GD32VW55X_Wifi_BLE_SDK/GD32VW55x_RELEASE_V1.0.2/MSDK/lwip/lwip-2.1.2/src/core\raw.c ****   if ((pcb == NULL) || (ipaddr == NULL)) {
 266              		.loc 1 224 3
 222:C:/Users/stapi/OneDrive/Desktop/GD32VW553/GD32VW55X_Wifi_BLE_SDK/GD32VW55x_RELEASE_V1.0.2/MSDK/lwip/lwip-2.1.2/src/core\raw.c ****   LWIP_ASSERT_CORE_LOCKED();
 267              		.loc 1 222 1 is_stmt 0
 268 0000 AA87     		mv	a5,a0
 225:C:/Users/stapi/OneDrive/Desktop/GD32VW553/GD32VW55X_Wifi_BLE_SDK/GD32VW55x_RELEASE_V1.0.2/MSDK/lwip/lwip-2.1.2/src/core\raw.c ****     return ERR_VAL;
 269              		.loc 1 225 12
 270 0002 6955     		li	a0,-6
 271              	.LVL26:
 224:C:/Users/stapi/OneDrive/Desktop/GD32VW553/GD32VW55X_Wifi_BLE_SDK/GD32VW55x_RELEASE_V1.0.2/MSDK/lwip/lwip-2.1.2/src/core\raw.c ****   if ((pcb == NULL) || (ipaddr == NULL)) {
 272              		.loc 1 224 6
 273 0004 91C7     		beq	a5,zero,.L31
 224:C:/Users/stapi/OneDrive/Desktop/GD32VW553/GD32VW55X_Wifi_BLE_SDK/GD32VW55x_RELEASE_V1.0.2/MSDK/lwip/lwip-2.1.2/src/core\raw.c ****   if ((pcb == NULL) || (ipaddr == NULL)) {
 274              		.loc 1 224 21 discriminator 1
 275 0006 89C5     		beq	a1,zero,.L31
 226:C:/Users/stapi/OneDrive/Desktop/GD32VW553/GD32VW55X_Wifi_BLE_SDK/GD32VW55x_RELEASE_V1.0.2/MSDK/lwip/lwip-2.1.2/src/core\raw.c ****   }
 227:C:/Users/stapi/OneDrive/Desktop/GD32VW553/GD32VW55X_Wifi_BLE_SDK/GD32VW55x_RELEASE_V1.0.2/MSDK/lwip/lwip-2.1.2/src/core\raw.c ****   ip_addr_set_ipaddr(&pcb->local_ip, ipaddr);
 276              		.loc 1 227 3 is_stmt 1 discriminator 1
 277 0008 9841     		lw	a4,0(a1)
 228:C:/Users/stapi/OneDrive/Desktop/GD32VW553/GD32VW55X_Wifi_BLE_SDK/GD32VW55x_RELEASE_V1.0.2/MSDK/lwip/lwip-2.1.2/src/core\raw.c **** #if LWIP_IPV6 && LWIP_IPV6_SCOPES
 229:C:/Users/stapi/OneDrive/Desktop/GD32VW553/GD32VW55X_Wifi_BLE_SDK/GD32VW55x_RELEASE_V1.0.2/MSDK/lwip/lwip-2.1.2/src/core\raw.c ****   /* If the given IP address should have a zone but doesn't, assign one now.
 230:C:/Users/stapi/OneDrive/Desktop/GD32VW553/GD32VW55X_Wifi_BLE_SDK/GD32VW55x_RELEASE_V1.0.2/MSDK/lwip/lwip-2.1.2/src/core\raw.c ****    * This is legacy support: scope-aware callers should always provide properly
 231:C:/Users/stapi/OneDrive/Desktop/GD32VW553/GD32VW55X_Wifi_BLE_SDK/GD32VW55x_RELEASE_V1.0.2/MSDK/lwip/lwip-2.1.2/src/core\raw.c ****    * zoned source addresses. */
 232:C:/Users/stapi/OneDrive/Desktop/GD32VW553/GD32VW55X_Wifi_BLE_SDK/GD32VW55x_RELEASE_V1.0.2/MSDK/lwip/lwip-2.1.2/src/core\raw.c ****   if (IP_IS_V6(&pcb->local_ip) &&
 233:C:/Users/stapi/OneDrive/Desktop/GD32VW553/GD32VW55X_Wifi_BLE_SDK/GD32VW55x_RELEASE_V1.0.2/MSDK/lwip/lwip-2.1.2/src/core\raw.c ****       ip6_addr_lacks_zone(ip_2_ip6(&pcb->local_ip), IP6_UNKNOWN)) {
 234:C:/Users/stapi/OneDrive/Desktop/GD32VW553/GD32VW55X_Wifi_BLE_SDK/GD32VW55x_RELEASE_V1.0.2/MSDK/lwip/lwip-2.1.2/src/core\raw.c ****     ip6_addr_select_zone(ip_2_ip6(&pcb->local_ip), ip_2_ip6(&pcb->local_ip));
 235:C:/Users/stapi/OneDrive/Desktop/GD32VW553/GD32VW55X_Wifi_BLE_SDK/GD32VW55x_RELEASE_V1.0.2/MSDK/lwip/lwip-2.1.2/src/core\raw.c ****   }
 236:C:/Users/stapi/OneDrive/Desktop/GD32VW553/GD32VW55X_Wifi_BLE_SDK/GD32VW55x_RELEASE_V1.0.2/MSDK/lwip/lwip-2.1.2/src/core\raw.c **** #endif /* LWIP_IPV6 && LWIP_IPV6_SCOPES */
 237:C:/Users/stapi/OneDrive/Desktop/GD32VW553/GD32VW55X_Wifi_BLE_SDK/GD32VW55x_RELEASE_V1.0.2/MSDK/lwip/lwip-2.1.2/src/core\raw.c ****   return ERR_OK;
 278              		.loc 1 237 10 is_stmt 0 discriminator 1
 279 000a 0145     		li	a0,0
 227:C:/Users/stapi/OneDrive/Desktop/GD32VW553/GD32VW55X_Wifi_BLE_SDK/GD32VW55x_RELEASE_V1.0.2/MSDK/lwip/lwip-2.1.2/src/core\raw.c **** #if LWIP_IPV6 && LWIP_IPV6_SCOPES
 280              		.loc 1 227 3 discriminator 1
 281 000c 98C3     		sw	a4,0(a5)
 282              		.loc 1 237 3 is_stmt 1 discriminator 1
 283              		.loc 1 237 10 is_stmt 0 discriminator 1
 284 000e 8280     		ret
 285              	.L31:
 238:C:/Users/stapi/OneDrive/Desktop/GD32VW553/GD32VW55X_Wifi_BLE_SDK/GD32VW55x_RELEASE_V1.0.2/MSDK/lwip/lwip-2.1.2/src/core\raw.c **** }
 286              		.loc 1 238 1
 287 0010 8280     		ret
 288              		.cfi_endproc
 289              	.LFE6:
 291              		.section	.text.raw_bind_netif,"ax",@progbits
 292              		.align	1
 293              		.globl	raw_bind_netif
 295              	raw_bind_netif:
 296              	.LFB7:
 239:C:/Users/stapi/OneDrive/Desktop/GD32VW553/GD32VW55X_Wifi_BLE_SDK/GD32VW55x_RELEASE_V1.0.2/MSDK/lwip/lwip-2.1.2/src/core\raw.c **** 
 240:C:/Users/stapi/OneDrive/Desktop/GD32VW553/GD32VW55X_Wifi_BLE_SDK/GD32VW55x_RELEASE_V1.0.2/MSDK/lwip/lwip-2.1.2/src/core\raw.c **** /**
 241:C:/Users/stapi/OneDrive/Desktop/GD32VW553/GD32VW55X_Wifi_BLE_SDK/GD32VW55x_RELEASE_V1.0.2/MSDK/lwip/lwip-2.1.2/src/core\raw.c ****  * @ingroup raw_raw
 242:C:/Users/stapi/OneDrive/Desktop/GD32VW553/GD32VW55X_Wifi_BLE_SDK/GD32VW55x_RELEASE_V1.0.2/MSDK/lwip/lwip-2.1.2/src/core\raw.c ****  * Bind an RAW PCB to a specific netif.
 243:C:/Users/stapi/OneDrive/Desktop/GD32VW553/GD32VW55X_Wifi_BLE_SDK/GD32VW55x_RELEASE_V1.0.2/MSDK/lwip/lwip-2.1.2/src/core\raw.c ****  * After calling this function, all packets received via this PCB
 244:C:/Users/stapi/OneDrive/Desktop/GD32VW553/GD32VW55X_Wifi_BLE_SDK/GD32VW55x_RELEASE_V1.0.2/MSDK/lwip/lwip-2.1.2/src/core\raw.c ****  * are guaranteed to have come in via the specified netif, and all
 245:C:/Users/stapi/OneDrive/Desktop/GD32VW553/GD32VW55X_Wifi_BLE_SDK/GD32VW55x_RELEASE_V1.0.2/MSDK/lwip/lwip-2.1.2/src/core\raw.c ****  * outgoing packets will go out via the specified netif.
 246:C:/Users/stapi/OneDrive/Desktop/GD32VW553/GD32VW55X_Wifi_BLE_SDK/GD32VW55x_RELEASE_V1.0.2/MSDK/lwip/lwip-2.1.2/src/core\raw.c ****  *
 247:C:/Users/stapi/OneDrive/Desktop/GD32VW553/GD32VW55X_Wifi_BLE_SDK/GD32VW55x_RELEASE_V1.0.2/MSDK/lwip/lwip-2.1.2/src/core\raw.c ****  * @param pcb RAW PCB to be bound with netif.
 248:C:/Users/stapi/OneDrive/Desktop/GD32VW553/GD32VW55X_Wifi_BLE_SDK/GD32VW55x_RELEASE_V1.0.2/MSDK/lwip/lwip-2.1.2/src/core\raw.c ****  * @param netif netif to bind to. Can be NULL.
 249:C:/Users/stapi/OneDrive/Desktop/GD32VW553/GD32VW55X_Wifi_BLE_SDK/GD32VW55x_RELEASE_V1.0.2/MSDK/lwip/lwip-2.1.2/src/core\raw.c ****  *
 250:C:/Users/stapi/OneDrive/Desktop/GD32VW553/GD32VW55X_Wifi_BLE_SDK/GD32VW55x_RELEASE_V1.0.2/MSDK/lwip/lwip-2.1.2/src/core\raw.c ****  * @see raw_disconnect()
 251:C:/Users/stapi/OneDrive/Desktop/GD32VW553/GD32VW55X_Wifi_BLE_SDK/GD32VW55x_RELEASE_V1.0.2/MSDK/lwip/lwip-2.1.2/src/core\raw.c ****  */
 252:C:/Users/stapi/OneDrive/Desktop/GD32VW553/GD32VW55X_Wifi_BLE_SDK/GD32VW55x_RELEASE_V1.0.2/MSDK/lwip/lwip-2.1.2/src/core\raw.c **** void
 253:C:/Users/stapi/OneDrive/Desktop/GD32VW553/GD32VW55X_Wifi_BLE_SDK/GD32VW55x_RELEASE_V1.0.2/MSDK/lwip/lwip-2.1.2/src/core\raw.c **** raw_bind_netif(struct raw_pcb *pcb, const struct netif *netif)
 254:C:/Users/stapi/OneDrive/Desktop/GD32VW553/GD32VW55X_Wifi_BLE_SDK/GD32VW55x_RELEASE_V1.0.2/MSDK/lwip/lwip-2.1.2/src/core\raw.c **** {
 297              		.loc 1 254 1 is_stmt 1
 298              		.cfi_startproc
 299              	.LVL27:
 255:C:/Users/stapi/OneDrive/Desktop/GD32VW553/GD32VW55X_Wifi_BLE_SDK/GD32VW55x_RELEASE_V1.0.2/MSDK/lwip/lwip-2.1.2/src/core\raw.c ****   LWIP_ASSERT_CORE_LOCKED();
 300              		.loc 1 255 28
 256:C:/Users/stapi/OneDrive/Desktop/GD32VW553/GD32VW55X_Wifi_BLE_SDK/GD32VW55x_RELEASE_V1.0.2/MSDK/lwip/lwip-2.1.2/src/core\raw.c ****   if (netif != NULL) {
 301              		.loc 1 256 3
 257:C:/Users/stapi/OneDrive/Desktop/GD32VW553/GD32VW55X_Wifi_BLE_SDK/GD32VW55x_RELEASE_V1.0.2/MSDK/lwip/lwip-2.1.2/src/core\raw.c ****     pcb->netif_idx = netif_get_index(netif);
 258:C:/Users/stapi/OneDrive/Desktop/GD32VW553/GD32VW55X_Wifi_BLE_SDK/GD32VW55x_RELEASE_V1.0.2/MSDK/lwip/lwip-2.1.2/src/core\raw.c ****   } else {
 259:C:/Users/stapi/OneDrive/Desktop/GD32VW553/GD32VW55X_Wifi_BLE_SDK/GD32VW55x_RELEASE_V1.0.2/MSDK/lwip/lwip-2.1.2/src/core\raw.c ****     pcb->netif_idx = NETIF_NO_INDEX;
 302              		.loc 1 259 20 is_stmt 0
 303 0000 8147     		li	a5,0
 256:C:/Users/stapi/OneDrive/Desktop/GD32VW553/GD32VW55X_Wifi_BLE_SDK/GD32VW55x_RELEASE_V1.0.2/MSDK/lwip/lwip-2.1.2/src/core\raw.c ****   if (netif != NULL) {
 304              		.loc 1 256 6
 305 0002 91C5     		beq	a1,zero,.L35
 257:C:/Users/stapi/OneDrive/Desktop/GD32VW553/GD32VW55X_Wifi_BLE_SDK/GD32VW55x_RELEASE_V1.0.2/MSDK/lwip/lwip-2.1.2/src/core\raw.c ****     pcb->netif_idx = netif_get_index(netif);
 306              		.loc 1 257 5 is_stmt 1
 257:C:/Users/stapi/OneDrive/Desktop/GD32VW553/GD32VW55X_Wifi_BLE_SDK/GD32VW55x_RELEASE_V1.0.2/MSDK/lwip/lwip-2.1.2/src/core\raw.c ****     pcb->netif_idx = netif_get_index(netif);
 307              		.loc 1 257 22 is_stmt 0
 308 0004 83C74503 		lbu	a5,52(a1)
 309 0008 8507     		addi	a5,a5,1
 310 000a 93F7F70F 		andi	a5,a5,0xff
 311              	.L35:
 312 000e 2304F500 		sb	a5,8(a0)
 260:C:/Users/stapi/OneDrive/Desktop/GD32VW553/GD32VW55X_Wifi_BLE_SDK/GD32VW55x_RELEASE_V1.0.2/MSDK/lwip/lwip-2.1.2/src/core\raw.c ****   }
 261:C:/Users/stapi/OneDrive/Desktop/GD32VW553/GD32VW55X_Wifi_BLE_SDK/GD32VW55x_RELEASE_V1.0.2/MSDK/lwip/lwip-2.1.2/src/core\raw.c **** }
 313              		.loc 1 261 1
 314 0012 8280     		ret
 315              		.cfi_endproc
 316              	.LFE7:
 318              		.section	.text.raw_connect,"ax",@progbits
 319              		.align	1
 320              		.globl	raw_connect
 322              	raw_connect:
 323              	.LFB8:
 262:C:/Users/stapi/OneDrive/Desktop/GD32VW553/GD32VW55X_Wifi_BLE_SDK/GD32VW55x_RELEASE_V1.0.2/MSDK/lwip/lwip-2.1.2/src/core\raw.c **** 
 263:C:/Users/stapi/OneDrive/Desktop/GD32VW553/GD32VW55X_Wifi_BLE_SDK/GD32VW55x_RELEASE_V1.0.2/MSDK/lwip/lwip-2.1.2/src/core\raw.c **** /**
 264:C:/Users/stapi/OneDrive/Desktop/GD32VW553/GD32VW55X_Wifi_BLE_SDK/GD32VW55x_RELEASE_V1.0.2/MSDK/lwip/lwip-2.1.2/src/core\raw.c ****  * @ingroup raw_raw
 265:C:/Users/stapi/OneDrive/Desktop/GD32VW553/GD32VW55X_Wifi_BLE_SDK/GD32VW55x_RELEASE_V1.0.2/MSDK/lwip/lwip-2.1.2/src/core\raw.c ****  * Connect an RAW PCB. This function is required by upper layers
 266:C:/Users/stapi/OneDrive/Desktop/GD32VW553/GD32VW55X_Wifi_BLE_SDK/GD32VW55x_RELEASE_V1.0.2/MSDK/lwip/lwip-2.1.2/src/core\raw.c ****  * of lwip. Using the raw api you could use raw_sendto() instead
 267:C:/Users/stapi/OneDrive/Desktop/GD32VW553/GD32VW55X_Wifi_BLE_SDK/GD32VW55x_RELEASE_V1.0.2/MSDK/lwip/lwip-2.1.2/src/core\raw.c ****  *
 268:C:/Users/stapi/OneDrive/Desktop/GD32VW553/GD32VW55X_Wifi_BLE_SDK/GD32VW55x_RELEASE_V1.0.2/MSDK/lwip/lwip-2.1.2/src/core\raw.c ****  * This will associate the RAW PCB with the remote address.
 269:C:/Users/stapi/OneDrive/Desktop/GD32VW553/GD32VW55X_Wifi_BLE_SDK/GD32VW55x_RELEASE_V1.0.2/MSDK/lwip/lwip-2.1.2/src/core\raw.c ****  *
 270:C:/Users/stapi/OneDrive/Desktop/GD32VW553/GD32VW55X_Wifi_BLE_SDK/GD32VW55x_RELEASE_V1.0.2/MSDK/lwip/lwip-2.1.2/src/core\raw.c ****  * @param pcb RAW PCB to be connected with remote address ipaddr and port.
 271:C:/Users/stapi/OneDrive/Desktop/GD32VW553/GD32VW55X_Wifi_BLE_SDK/GD32VW55x_RELEASE_V1.0.2/MSDK/lwip/lwip-2.1.2/src/core\raw.c ****  * @param ipaddr remote IP address to connect with.
 272:C:/Users/stapi/OneDrive/Desktop/GD32VW553/GD32VW55X_Wifi_BLE_SDK/GD32VW55x_RELEASE_V1.0.2/MSDK/lwip/lwip-2.1.2/src/core\raw.c ****  *
 273:C:/Users/stapi/OneDrive/Desktop/GD32VW553/GD32VW55X_Wifi_BLE_SDK/GD32VW55x_RELEASE_V1.0.2/MSDK/lwip/lwip-2.1.2/src/core\raw.c ****  * @return lwIP error code
 274:C:/Users/stapi/OneDrive/Desktop/GD32VW553/GD32VW55X_Wifi_BLE_SDK/GD32VW55x_RELEASE_V1.0.2/MSDK/lwip/lwip-2.1.2/src/core\raw.c ****  *
 275:C:/Users/stapi/OneDrive/Desktop/GD32VW553/GD32VW55X_Wifi_BLE_SDK/GD32VW55x_RELEASE_V1.0.2/MSDK/lwip/lwip-2.1.2/src/core\raw.c ****  * @see raw_disconnect() and raw_sendto()
 276:C:/Users/stapi/OneDrive/Desktop/GD32VW553/GD32VW55X_Wifi_BLE_SDK/GD32VW55x_RELEASE_V1.0.2/MSDK/lwip/lwip-2.1.2/src/core\raw.c ****  */
 277:C:/Users/stapi/OneDrive/Desktop/GD32VW553/GD32VW55X_Wifi_BLE_SDK/GD32VW55x_RELEASE_V1.0.2/MSDK/lwip/lwip-2.1.2/src/core\raw.c **** err_t
 278:C:/Users/stapi/OneDrive/Desktop/GD32VW553/GD32VW55X_Wifi_BLE_SDK/GD32VW55x_RELEASE_V1.0.2/MSDK/lwip/lwip-2.1.2/src/core\raw.c **** raw_connect(struct raw_pcb *pcb, const ip_addr_t *ipaddr)
 279:C:/Users/stapi/OneDrive/Desktop/GD32VW553/GD32VW55X_Wifi_BLE_SDK/GD32VW55x_RELEASE_V1.0.2/MSDK/lwip/lwip-2.1.2/src/core\raw.c **** {
 324              		.loc 1 279 1 is_stmt 1
 325              		.cfi_startproc
 326              	.LVL28:
 280:C:/Users/stapi/OneDrive/Desktop/GD32VW553/GD32VW55X_Wifi_BLE_SDK/GD32VW55x_RELEASE_V1.0.2/MSDK/lwip/lwip-2.1.2/src/core\raw.c ****   LWIP_ASSERT_CORE_LOCKED();
 327              		.loc 1 280 28
 281:C:/Users/stapi/OneDrive/Desktop/GD32VW553/GD32VW55X_Wifi_BLE_SDK/GD32VW55x_RELEASE_V1.0.2/MSDK/lwip/lwip-2.1.2/src/core\raw.c ****   if ((pcb == NULL) || (ipaddr == NULL)) {
 328              		.loc 1 281 3
 279:C:/Users/stapi/OneDrive/Desktop/GD32VW553/GD32VW55X_Wifi_BLE_SDK/GD32VW55x_RELEASE_V1.0.2/MSDK/lwip/lwip-2.1.2/src/core\raw.c ****   LWIP_ASSERT_CORE_LOCKED();
 329              		.loc 1 279 1 is_stmt 0
 330 0000 AA87     		mv	a5,a0
 282:C:/Users/stapi/OneDrive/Desktop/GD32VW553/GD32VW55X_Wifi_BLE_SDK/GD32VW55x_RELEASE_V1.0.2/MSDK/lwip/lwip-2.1.2/src/core\raw.c ****     return ERR_VAL;
 331              		.loc 1 282 12
 332 0002 6955     		li	a0,-6
 333              	.LVL29:
 281:C:/Users/stapi/OneDrive/Desktop/GD32VW553/GD32VW55X_Wifi_BLE_SDK/GD32VW55x_RELEASE_V1.0.2/MSDK/lwip/lwip-2.1.2/src/core\raw.c ****   if ((pcb == NULL) || (ipaddr == NULL)) {
 334              		.loc 1 281 6
 335 0004 81CF     		beq	a5,zero,.L38
 281:C:/Users/stapi/OneDrive/Desktop/GD32VW553/GD32VW55X_Wifi_BLE_SDK/GD32VW55x_RELEASE_V1.0.2/MSDK/lwip/lwip-2.1.2/src/core\raw.c ****   if ((pcb == NULL) || (ipaddr == NULL)) {
 336              		.loc 1 281 21 discriminator 1
 337 0006 99C9     		beq	a1,zero,.L38
 283:C:/Users/stapi/OneDrive/Desktop/GD32VW553/GD32VW55X_Wifi_BLE_SDK/GD32VW55x_RELEASE_V1.0.2/MSDK/lwip/lwip-2.1.2/src/core\raw.c ****   }
 284:C:/Users/stapi/OneDrive/Desktop/GD32VW553/GD32VW55X_Wifi_BLE_SDK/GD32VW55x_RELEASE_V1.0.2/MSDK/lwip/lwip-2.1.2/src/core\raw.c ****   ip_addr_set_ipaddr(&pcb->remote_ip, ipaddr);
 338              		.loc 1 284 3 is_stmt 1 discriminator 1
 339 0008 9841     		lw	a4,0(a1)
 285:C:/Users/stapi/OneDrive/Desktop/GD32VW553/GD32VW55X_Wifi_BLE_SDK/GD32VW55x_RELEASE_V1.0.2/MSDK/lwip/lwip-2.1.2/src/core\raw.c **** #if LWIP_IPV6 && LWIP_IPV6_SCOPES
 286:C:/Users/stapi/OneDrive/Desktop/GD32VW553/GD32VW55X_Wifi_BLE_SDK/GD32VW55x_RELEASE_V1.0.2/MSDK/lwip/lwip-2.1.2/src/core\raw.c ****   /* If the given IP address should have a zone but doesn't, assign one now,
 287:C:/Users/stapi/OneDrive/Desktop/GD32VW553/GD32VW55X_Wifi_BLE_SDK/GD32VW55x_RELEASE_V1.0.2/MSDK/lwip/lwip-2.1.2/src/core\raw.c ****    * using the bound address to make a more informed decision when possible. */
 288:C:/Users/stapi/OneDrive/Desktop/GD32VW553/GD32VW55X_Wifi_BLE_SDK/GD32VW55x_RELEASE_V1.0.2/MSDK/lwip/lwip-2.1.2/src/core\raw.c ****   if (IP_IS_V6(&pcb->remote_ip) &&
 289:C:/Users/stapi/OneDrive/Desktop/GD32VW553/GD32VW55X_Wifi_BLE_SDK/GD32VW55x_RELEASE_V1.0.2/MSDK/lwip/lwip-2.1.2/src/core\raw.c ****       ip6_addr_lacks_zone(ip_2_ip6(&pcb->remote_ip), IP6_UNKNOWN)) {
 290:C:/Users/stapi/OneDrive/Desktop/GD32VW553/GD32VW55X_Wifi_BLE_SDK/GD32VW55x_RELEASE_V1.0.2/MSDK/lwip/lwip-2.1.2/src/core\raw.c ****     ip6_addr_select_zone(ip_2_ip6(&pcb->remote_ip), ip_2_ip6(&pcb->local_ip));
 291:C:/Users/stapi/OneDrive/Desktop/GD32VW553/GD32VW55X_Wifi_BLE_SDK/GD32VW55x_RELEASE_V1.0.2/MSDK/lwip/lwip-2.1.2/src/core\raw.c ****   }
 292:C:/Users/stapi/OneDrive/Desktop/GD32VW553/GD32VW55X_Wifi_BLE_SDK/GD32VW55x_RELEASE_V1.0.2/MSDK/lwip/lwip-2.1.2/src/core\raw.c **** #endif /* LWIP_IPV6 && LWIP_IPV6_SCOPES */
 293:C:/Users/stapi/OneDrive/Desktop/GD32VW553/GD32VW55X_Wifi_BLE_SDK/GD32VW55x_RELEASE_V1.0.2/MSDK/lwip/lwip-2.1.2/src/core\raw.c ****   raw_set_flags(pcb, RAW_FLAGS_CONNECTED);
 294:C:/Users/stapi/OneDrive/Desktop/GD32VW553/GD32VW55X_Wifi_BLE_SDK/GD32VW55x_RELEASE_V1.0.2/MSDK/lwip/lwip-2.1.2/src/core\raw.c ****   return ERR_OK;
 340              		.loc 1 294 10 is_stmt 0 discriminator 1
 341 000a 0145     		li	a0,0
 284:C:/Users/stapi/OneDrive/Desktop/GD32VW553/GD32VW55X_Wifi_BLE_SDK/GD32VW55x_RELEASE_V1.0.2/MSDK/lwip/lwip-2.1.2/src/core\raw.c **** #if LWIP_IPV6 && LWIP_IPV6_SCOPES
 342              		.loc 1 284 3 discriminator 1
 343 000c D8C3     		sw	a4,4(a5)
 293:C:/Users/stapi/OneDrive/Desktop/GD32VW553/GD32VW55X_Wifi_BLE_SDK/GD32VW55x_RELEASE_V1.0.2/MSDK/lwip/lwip-2.1.2/src/core\raw.c ****   return ERR_OK;
 344              		.loc 1 293 3 is_stmt 1 discriminator 1
 293:C:/Users/stapi/OneDrive/Desktop/GD32VW553/GD32VW55X_Wifi_BLE_SDK/GD32VW55x_RELEASE_V1.0.2/MSDK/lwip/lwip-2.1.2/src/core\raw.c ****   return ERR_OK;
 345              		.loc 1 293 3 discriminator 1
 346 000e 03C71701 		lbu	a4,17(a5)
 347 0012 13671700 		ori	a4,a4,1
 348 0016 A388E700 		sb	a4,17(a5)
 293:C:/Users/stapi/OneDrive/Desktop/GD32VW553/GD32VW55X_Wifi_BLE_SDK/GD32VW55x_RELEASE_V1.0.2/MSDK/lwip/lwip-2.1.2/src/core\raw.c ****   return ERR_OK;
 349              		.loc 1 293 3 discriminator 1
 350              		.loc 1 294 3 discriminator 1
 351              		.loc 1 294 10 is_stmt 0 discriminator 1
 352 001a 8280     		ret
 353              	.L38:
 295:C:/Users/stapi/OneDrive/Desktop/GD32VW553/GD32VW55X_Wifi_BLE_SDK/GD32VW55x_RELEASE_V1.0.2/MSDK/lwip/lwip-2.1.2/src/core\raw.c **** }
 354              		.loc 1 295 1
 355 001c 8280     		ret
 356              		.cfi_endproc
 357              	.LFE8:
 359              		.section	.text.raw_disconnect,"ax",@progbits
 360              		.align	1
 361              		.globl	raw_disconnect
 363              	raw_disconnect:
 364              	.LFB9:
 296:C:/Users/stapi/OneDrive/Desktop/GD32VW553/GD32VW55X_Wifi_BLE_SDK/GD32VW55x_RELEASE_V1.0.2/MSDK/lwip/lwip-2.1.2/src/core\raw.c **** 
 297:C:/Users/stapi/OneDrive/Desktop/GD32VW553/GD32VW55X_Wifi_BLE_SDK/GD32VW55x_RELEASE_V1.0.2/MSDK/lwip/lwip-2.1.2/src/core\raw.c **** /**
 298:C:/Users/stapi/OneDrive/Desktop/GD32VW553/GD32VW55X_Wifi_BLE_SDK/GD32VW55x_RELEASE_V1.0.2/MSDK/lwip/lwip-2.1.2/src/core\raw.c ****  * @ingroup raw_raw
 299:C:/Users/stapi/OneDrive/Desktop/GD32VW553/GD32VW55X_Wifi_BLE_SDK/GD32VW55x_RELEASE_V1.0.2/MSDK/lwip/lwip-2.1.2/src/core\raw.c ****  * Disconnect a RAW PCB.
 300:C:/Users/stapi/OneDrive/Desktop/GD32VW553/GD32VW55X_Wifi_BLE_SDK/GD32VW55x_RELEASE_V1.0.2/MSDK/lwip/lwip-2.1.2/src/core\raw.c ****  *
 301:C:/Users/stapi/OneDrive/Desktop/GD32VW553/GD32VW55X_Wifi_BLE_SDK/GD32VW55x_RELEASE_V1.0.2/MSDK/lwip/lwip-2.1.2/src/core\raw.c ****  * @param pcb the raw pcb to disconnect.
 302:C:/Users/stapi/OneDrive/Desktop/GD32VW553/GD32VW55X_Wifi_BLE_SDK/GD32VW55x_RELEASE_V1.0.2/MSDK/lwip/lwip-2.1.2/src/core\raw.c ****  */
 303:C:/Users/stapi/OneDrive/Desktop/GD32VW553/GD32VW55X_Wifi_BLE_SDK/GD32VW55x_RELEASE_V1.0.2/MSDK/lwip/lwip-2.1.2/src/core\raw.c **** void
 304:C:/Users/stapi/OneDrive/Desktop/GD32VW553/GD32VW55X_Wifi_BLE_SDK/GD32VW55x_RELEASE_V1.0.2/MSDK/lwip/lwip-2.1.2/src/core\raw.c **** raw_disconnect(struct raw_pcb *pcb)
 305:C:/Users/stapi/OneDrive/Desktop/GD32VW553/GD32VW55X_Wifi_BLE_SDK/GD32VW55x_RELEASE_V1.0.2/MSDK/lwip/lwip-2.1.2/src/core\raw.c **** {
 365              		.loc 1 305 1 is_stmt 1
 366              		.cfi_startproc
 367              	.LVL30:
 306:C:/Users/stapi/OneDrive/Desktop/GD32VW553/GD32VW55X_Wifi_BLE_SDK/GD32VW55x_RELEASE_V1.0.2/MSDK/lwip/lwip-2.1.2/src/core\raw.c ****   LWIP_ASSERT_CORE_LOCKED();
 368              		.loc 1 306 28
 307:C:/Users/stapi/OneDrive/Desktop/GD32VW553/GD32VW55X_Wifi_BLE_SDK/GD32VW55x_RELEASE_V1.0.2/MSDK/lwip/lwip-2.1.2/src/core\raw.c ****   /* reset remote address association */
 308:C:/Users/stapi/OneDrive/Desktop/GD32VW553/GD32VW55X_Wifi_BLE_SDK/GD32VW55x_RELEASE_V1.0.2/MSDK/lwip/lwip-2.1.2/src/core\raw.c **** #if LWIP_IPV4 && LWIP_IPV6
 309:C:/Users/stapi/OneDrive/Desktop/GD32VW553/GD32VW55X_Wifi_BLE_SDK/GD32VW55x_RELEASE_V1.0.2/MSDK/lwip/lwip-2.1.2/src/core\raw.c ****   if (IP_IS_ANY_TYPE_VAL(pcb->local_ip)) {
 310:C:/Users/stapi/OneDrive/Desktop/GD32VW553/GD32VW55X_Wifi_BLE_SDK/GD32VW55x_RELEASE_V1.0.2/MSDK/lwip/lwip-2.1.2/src/core\raw.c ****     ip_addr_copy(pcb->remote_ip, *IP_ANY_TYPE);
 311:C:/Users/stapi/OneDrive/Desktop/GD32VW553/GD32VW55X_Wifi_BLE_SDK/GD32VW55x_RELEASE_V1.0.2/MSDK/lwip/lwip-2.1.2/src/core\raw.c ****   } else {
 312:C:/Users/stapi/OneDrive/Desktop/GD32VW553/GD32VW55X_Wifi_BLE_SDK/GD32VW55x_RELEASE_V1.0.2/MSDK/lwip/lwip-2.1.2/src/core\raw.c **** #endif
 313:C:/Users/stapi/OneDrive/Desktop/GD32VW553/GD32VW55X_Wifi_BLE_SDK/GD32VW55x_RELEASE_V1.0.2/MSDK/lwip/lwip-2.1.2/src/core\raw.c ****     ip_addr_set_any(IP_IS_V6_VAL(pcb->remote_ip), &pcb->remote_ip);
 369              		.loc 1 313 5
 314:C:/Users/stapi/OneDrive/Desktop/GD32VW553/GD32VW55X_Wifi_BLE_SDK/GD32VW55x_RELEASE_V1.0.2/MSDK/lwip/lwip-2.1.2/src/core\raw.c **** #if LWIP_IPV4 && LWIP_IPV6
 315:C:/Users/stapi/OneDrive/Desktop/GD32VW553/GD32VW55X_Wifi_BLE_SDK/GD32VW55x_RELEASE_V1.0.2/MSDK/lwip/lwip-2.1.2/src/core\raw.c ****   }
 316:C:/Users/stapi/OneDrive/Desktop/GD32VW553/GD32VW55X_Wifi_BLE_SDK/GD32VW55x_RELEASE_V1.0.2/MSDK/lwip/lwip-2.1.2/src/core\raw.c **** #endif
 317:C:/Users/stapi/OneDrive/Desktop/GD32VW553/GD32VW55X_Wifi_BLE_SDK/GD32VW55x_RELEASE_V1.0.2/MSDK/lwip/lwip-2.1.2/src/core\raw.c ****   pcb->netif_idx = NETIF_NO_INDEX;
 318:C:/Users/stapi/OneDrive/Desktop/GD32VW553/GD32VW55X_Wifi_BLE_SDK/GD32VW55x_RELEASE_V1.0.2/MSDK/lwip/lwip-2.1.2/src/core\raw.c ****   /* mark PCB as unconnected */
 319:C:/Users/stapi/OneDrive/Desktop/GD32VW553/GD32VW55X_Wifi_BLE_SDK/GD32VW55x_RELEASE_V1.0.2/MSDK/lwip/lwip-2.1.2/src/core\raw.c ****   raw_clear_flags(pcb, RAW_FLAGS_CONNECTED);
 370              		.loc 1 319 3 is_stmt 0
 371 0000 83471501 		lbu	a5,17(a0)
 313:C:/Users/stapi/OneDrive/Desktop/GD32VW553/GD32VW55X_Wifi_BLE_SDK/GD32VW55x_RELEASE_V1.0.2/MSDK/lwip/lwip-2.1.2/src/core\raw.c **** #if LWIP_IPV4 && LWIP_IPV6
 372              		.loc 1 313 5
 373 0004 23220500 		sw	zero,4(a0)
 317:C:/Users/stapi/OneDrive/Desktop/GD32VW553/GD32VW55X_Wifi_BLE_SDK/GD32VW55x_RELEASE_V1.0.2/MSDK/lwip/lwip-2.1.2/src/core\raw.c ****   /* mark PCB as unconnected */
 374              		.loc 1 317 3 is_stmt 1
 317:C:/Users/stapi/OneDrive/Desktop/GD32VW553/GD32VW55X_Wifi_BLE_SDK/GD32VW55x_RELEASE_V1.0.2/MSDK/lwip/lwip-2.1.2/src/core\raw.c ****   /* mark PCB as unconnected */
 375              		.loc 1 317 18 is_stmt 0
 376 0008 23040500 		sb	zero,8(a0)
 377              		.loc 1 319 3 is_stmt 1
 378              		.loc 1 319 3
 379 000c F99B     		andi	a5,a5,-2
 380 000e A308F500 		sb	a5,17(a0)
 381              		.loc 1 319 3
 320:C:/Users/stapi/OneDrive/Desktop/GD32VW553/GD32VW55X_Wifi_BLE_SDK/GD32VW55x_RELEASE_V1.0.2/MSDK/lwip/lwip-2.1.2/src/core\raw.c **** }
 382              		.loc 1 320 1 is_stmt 0
 383 0012 8280     		ret
 384              		.cfi_endproc
 385              	.LFE9:
 387              		.section	.text.raw_recv,"ax",@progbits
 388              		.align	1
 389              		.globl	raw_recv
 391              	raw_recv:
 392              	.LFB10:
 321:C:/Users/stapi/OneDrive/Desktop/GD32VW553/GD32VW55X_Wifi_BLE_SDK/GD32VW55x_RELEASE_V1.0.2/MSDK/lwip/lwip-2.1.2/src/core\raw.c **** 
 322:C:/Users/stapi/OneDrive/Desktop/GD32VW553/GD32VW55X_Wifi_BLE_SDK/GD32VW55x_RELEASE_V1.0.2/MSDK/lwip/lwip-2.1.2/src/core\raw.c **** /**
 323:C:/Users/stapi/OneDrive/Desktop/GD32VW553/GD32VW55X_Wifi_BLE_SDK/GD32VW55x_RELEASE_V1.0.2/MSDK/lwip/lwip-2.1.2/src/core\raw.c ****  * @ingroup raw_raw
 324:C:/Users/stapi/OneDrive/Desktop/GD32VW553/GD32VW55X_Wifi_BLE_SDK/GD32VW55x_RELEASE_V1.0.2/MSDK/lwip/lwip-2.1.2/src/core\raw.c ****  * Set the callback function for received packets that match the
 325:C:/Users/stapi/OneDrive/Desktop/GD32VW553/GD32VW55X_Wifi_BLE_SDK/GD32VW55x_RELEASE_V1.0.2/MSDK/lwip/lwip-2.1.2/src/core\raw.c ****  * raw PCB's protocol and binding.
 326:C:/Users/stapi/OneDrive/Desktop/GD32VW553/GD32VW55X_Wifi_BLE_SDK/GD32VW55x_RELEASE_V1.0.2/MSDK/lwip/lwip-2.1.2/src/core\raw.c ****  *
 327:C:/Users/stapi/OneDrive/Desktop/GD32VW553/GD32VW55X_Wifi_BLE_SDK/GD32VW55x_RELEASE_V1.0.2/MSDK/lwip/lwip-2.1.2/src/core\raw.c ****  * The callback function MUST either
 328:C:/Users/stapi/OneDrive/Desktop/GD32VW553/GD32VW55X_Wifi_BLE_SDK/GD32VW55x_RELEASE_V1.0.2/MSDK/lwip/lwip-2.1.2/src/core\raw.c ****  * - eat the packet by calling pbuf_free() and returning non-zero. The
 329:C:/Users/stapi/OneDrive/Desktop/GD32VW553/GD32VW55X_Wifi_BLE_SDK/GD32VW55x_RELEASE_V1.0.2/MSDK/lwip/lwip-2.1.2/src/core\raw.c ****  *   packet will not be passed to other raw PCBs or other protocol layers.
 330:C:/Users/stapi/OneDrive/Desktop/GD32VW553/GD32VW55X_Wifi_BLE_SDK/GD32VW55x_RELEASE_V1.0.2/MSDK/lwip/lwip-2.1.2/src/core\raw.c ****  * - not free the packet, and return zero. The packet will be matched
 331:C:/Users/stapi/OneDrive/Desktop/GD32VW553/GD32VW55X_Wifi_BLE_SDK/GD32VW55x_RELEASE_V1.0.2/MSDK/lwip/lwip-2.1.2/src/core\raw.c ****  *   against further PCBs and/or forwarded to another protocol layers.
 332:C:/Users/stapi/OneDrive/Desktop/GD32VW553/GD32VW55X_Wifi_BLE_SDK/GD32VW55x_RELEASE_V1.0.2/MSDK/lwip/lwip-2.1.2/src/core\raw.c ****  */
 333:C:/Users/stapi/OneDrive/Desktop/GD32VW553/GD32VW55X_Wifi_BLE_SDK/GD32VW55x_RELEASE_V1.0.2/MSDK/lwip/lwip-2.1.2/src/core\raw.c **** void
 334:C:/Users/stapi/OneDrive/Desktop/GD32VW553/GD32VW55X_Wifi_BLE_SDK/GD32VW55x_RELEASE_V1.0.2/MSDK/lwip/lwip-2.1.2/src/core\raw.c **** raw_recv(struct raw_pcb *pcb, raw_recv_fn recv, void *recv_arg)
 335:C:/Users/stapi/OneDrive/Desktop/GD32VW553/GD32VW55X_Wifi_BLE_SDK/GD32VW55x_RELEASE_V1.0.2/MSDK/lwip/lwip-2.1.2/src/core\raw.c **** {
 393              		.loc 1 335 1 is_stmt 1
 394              		.cfi_startproc
 395              	.LVL31:
 336:C:/Users/stapi/OneDrive/Desktop/GD32VW553/GD32VW55X_Wifi_BLE_SDK/GD32VW55x_RELEASE_V1.0.2/MSDK/lwip/lwip-2.1.2/src/core\raw.c ****   LWIP_ASSERT_CORE_LOCKED();
 396              		.loc 1 336 28
 337:C:/Users/stapi/OneDrive/Desktop/GD32VW553/GD32VW55X_Wifi_BLE_SDK/GD32VW55x_RELEASE_V1.0.2/MSDK/lwip/lwip-2.1.2/src/core\raw.c ****   /* remember recv() callback and user data */
 338:C:/Users/stapi/OneDrive/Desktop/GD32VW553/GD32VW55X_Wifi_BLE_SDK/GD32VW55x_RELEASE_V1.0.2/MSDK/lwip/lwip-2.1.2/src/core\raw.c ****   pcb->recv = recv;
 397              		.loc 1 338 3
 398              		.loc 1 338 13 is_stmt 0
 399 0000 4CC9     		sw	a1,20(a0)
 339:C:/Users/stapi/OneDrive/Desktop/GD32VW553/GD32VW55X_Wifi_BLE_SDK/GD32VW55x_RELEASE_V1.0.2/MSDK/lwip/lwip-2.1.2/src/core\raw.c ****   pcb->recv_arg = recv_arg;
 400              		.loc 1 339 3 is_stmt 1
 401              		.loc 1 339 17 is_stmt 0
 402 0002 10CD     		sw	a2,24(a0)
 340:C:/Users/stapi/OneDrive/Desktop/GD32VW553/GD32VW55X_Wifi_BLE_SDK/GD32VW55x_RELEASE_V1.0.2/MSDK/lwip/lwip-2.1.2/src/core\raw.c **** }
 403              		.loc 1 340 1
 404 0004 8280     		ret
 405              		.cfi_endproc
 406              	.LFE10:
 408              		.section	.rodata.raw_sendto_if_src.str1.4,"aMS",@progbits,1
 409              		.align	2
 410              	.LC3:
 411 0000 43616E27 		.string	"Can't restore header we just removed!"
 411      74207265 
 411      73746F72 
 411      65206865 
 411      61646572 
 412              		.section	.text.raw_sendto_if_src,"ax",@progbits
 413              		.align	1
 414              		.globl	raw_sendto_if_src
 416              	raw_sendto_if_src:
 417              	.LFB12:
 341:C:/Users/stapi/OneDrive/Desktop/GD32VW553/GD32VW55X_Wifi_BLE_SDK/GD32VW55x_RELEASE_V1.0.2/MSDK/lwip/lwip-2.1.2/src/core\raw.c **** 
 342:C:/Users/stapi/OneDrive/Desktop/GD32VW553/GD32VW55X_Wifi_BLE_SDK/GD32VW55x_RELEASE_V1.0.2/MSDK/lwip/lwip-2.1.2/src/core\raw.c **** /**
 343:C:/Users/stapi/OneDrive/Desktop/GD32VW553/GD32VW55X_Wifi_BLE_SDK/GD32VW55x_RELEASE_V1.0.2/MSDK/lwip/lwip-2.1.2/src/core\raw.c ****  * @ingroup raw_raw
 344:C:/Users/stapi/OneDrive/Desktop/GD32VW553/GD32VW55X_Wifi_BLE_SDK/GD32VW55x_RELEASE_V1.0.2/MSDK/lwip/lwip-2.1.2/src/core\raw.c ****  * Send the raw IP packet to the given address. An IP header will be prepended
 345:C:/Users/stapi/OneDrive/Desktop/GD32VW553/GD32VW55X_Wifi_BLE_SDK/GD32VW55x_RELEASE_V1.0.2/MSDK/lwip/lwip-2.1.2/src/core\raw.c ****  * to the packet, unless the RAW_FLAGS_HDRINCL flag is set on the PCB. In that
 346:C:/Users/stapi/OneDrive/Desktop/GD32VW553/GD32VW55X_Wifi_BLE_SDK/GD32VW55x_RELEASE_V1.0.2/MSDK/lwip/lwip-2.1.2/src/core\raw.c ****  * case, the packet must include an IP header, which will then be sent as is.
 347:C:/Users/stapi/OneDrive/Desktop/GD32VW553/GD32VW55X_Wifi_BLE_SDK/GD32VW55x_RELEASE_V1.0.2/MSDK/lwip/lwip-2.1.2/src/core\raw.c ****  *
 348:C:/Users/stapi/OneDrive/Desktop/GD32VW553/GD32VW55X_Wifi_BLE_SDK/GD32VW55x_RELEASE_V1.0.2/MSDK/lwip/lwip-2.1.2/src/core\raw.c ****  * @param pcb the raw pcb which to send
 349:C:/Users/stapi/OneDrive/Desktop/GD32VW553/GD32VW55X_Wifi_BLE_SDK/GD32VW55x_RELEASE_V1.0.2/MSDK/lwip/lwip-2.1.2/src/core\raw.c ****  * @param p the IP payload to send
 350:C:/Users/stapi/OneDrive/Desktop/GD32VW553/GD32VW55X_Wifi_BLE_SDK/GD32VW55x_RELEASE_V1.0.2/MSDK/lwip/lwip-2.1.2/src/core\raw.c ****  * @param ipaddr the destination address of the IP packet
 351:C:/Users/stapi/OneDrive/Desktop/GD32VW553/GD32VW55X_Wifi_BLE_SDK/GD32VW55x_RELEASE_V1.0.2/MSDK/lwip/lwip-2.1.2/src/core\raw.c ****  *
 352:C:/Users/stapi/OneDrive/Desktop/GD32VW553/GD32VW55X_Wifi_BLE_SDK/GD32VW55x_RELEASE_V1.0.2/MSDK/lwip/lwip-2.1.2/src/core\raw.c ****  */
 353:C:/Users/stapi/OneDrive/Desktop/GD32VW553/GD32VW55X_Wifi_BLE_SDK/GD32VW55x_RELEASE_V1.0.2/MSDK/lwip/lwip-2.1.2/src/core\raw.c **** err_t
 354:C:/Users/stapi/OneDrive/Desktop/GD32VW553/GD32VW55X_Wifi_BLE_SDK/GD32VW55x_RELEASE_V1.0.2/MSDK/lwip/lwip-2.1.2/src/core\raw.c **** raw_sendto(struct raw_pcb *pcb, struct pbuf *p, const ip_addr_t *ipaddr)
 355:C:/Users/stapi/OneDrive/Desktop/GD32VW553/GD32VW55X_Wifi_BLE_SDK/GD32VW55x_RELEASE_V1.0.2/MSDK/lwip/lwip-2.1.2/src/core\raw.c **** {
 356:C:/Users/stapi/OneDrive/Desktop/GD32VW553/GD32VW55X_Wifi_BLE_SDK/GD32VW55x_RELEASE_V1.0.2/MSDK/lwip/lwip-2.1.2/src/core\raw.c ****   struct netif *netif;
 357:C:/Users/stapi/OneDrive/Desktop/GD32VW553/GD32VW55X_Wifi_BLE_SDK/GD32VW55x_RELEASE_V1.0.2/MSDK/lwip/lwip-2.1.2/src/core\raw.c ****   const ip_addr_t *src_ip;
 358:C:/Users/stapi/OneDrive/Desktop/GD32VW553/GD32VW55X_Wifi_BLE_SDK/GD32VW55x_RELEASE_V1.0.2/MSDK/lwip/lwip-2.1.2/src/core\raw.c **** 
 359:C:/Users/stapi/OneDrive/Desktop/GD32VW553/GD32VW55X_Wifi_BLE_SDK/GD32VW55x_RELEASE_V1.0.2/MSDK/lwip/lwip-2.1.2/src/core\raw.c ****   if ((pcb == NULL) || (ipaddr == NULL) || !IP_ADDR_PCB_VERSION_MATCH(pcb, ipaddr)) {
 360:C:/Users/stapi/OneDrive/Desktop/GD32VW553/GD32VW55X_Wifi_BLE_SDK/GD32VW55x_RELEASE_V1.0.2/MSDK/lwip/lwip-2.1.2/src/core\raw.c ****     return ERR_VAL;
 361:C:/Users/stapi/OneDrive/Desktop/GD32VW553/GD32VW55X_Wifi_BLE_SDK/GD32VW55x_RELEASE_V1.0.2/MSDK/lwip/lwip-2.1.2/src/core\raw.c ****   }
 362:C:/Users/stapi/OneDrive/Desktop/GD32VW553/GD32VW55X_Wifi_BLE_SDK/GD32VW55x_RELEASE_V1.0.2/MSDK/lwip/lwip-2.1.2/src/core\raw.c **** 
 363:C:/Users/stapi/OneDrive/Desktop/GD32VW553/GD32VW55X_Wifi_BLE_SDK/GD32VW55x_RELEASE_V1.0.2/MSDK/lwip/lwip-2.1.2/src/core\raw.c ****   LWIP_DEBUGF(RAW_DEBUG | LWIP_DBG_TRACE, ("raw_sendto\n"));
 364:C:/Users/stapi/OneDrive/Desktop/GD32VW553/GD32VW55X_Wifi_BLE_SDK/GD32VW55x_RELEASE_V1.0.2/MSDK/lwip/lwip-2.1.2/src/core\raw.c **** 
 365:C:/Users/stapi/OneDrive/Desktop/GD32VW553/GD32VW55X_Wifi_BLE_SDK/GD32VW55x_RELEASE_V1.0.2/MSDK/lwip/lwip-2.1.2/src/core\raw.c ****   if (pcb->netif_idx != NETIF_NO_INDEX) {
 366:C:/Users/stapi/OneDrive/Desktop/GD32VW553/GD32VW55X_Wifi_BLE_SDK/GD32VW55x_RELEASE_V1.0.2/MSDK/lwip/lwip-2.1.2/src/core\raw.c ****     netif = netif_get_by_index(pcb->netif_idx);
 367:C:/Users/stapi/OneDrive/Desktop/GD32VW553/GD32VW55X_Wifi_BLE_SDK/GD32VW55x_RELEASE_V1.0.2/MSDK/lwip/lwip-2.1.2/src/core\raw.c ****   } else {
 368:C:/Users/stapi/OneDrive/Desktop/GD32VW553/GD32VW55X_Wifi_BLE_SDK/GD32VW55x_RELEASE_V1.0.2/MSDK/lwip/lwip-2.1.2/src/core\raw.c **** #if LWIP_MULTICAST_TX_OPTIONS
 369:C:/Users/stapi/OneDrive/Desktop/GD32VW553/GD32VW55X_Wifi_BLE_SDK/GD32VW55x_RELEASE_V1.0.2/MSDK/lwip/lwip-2.1.2/src/core\raw.c ****     netif = NULL;
 370:C:/Users/stapi/OneDrive/Desktop/GD32VW553/GD32VW55X_Wifi_BLE_SDK/GD32VW55x_RELEASE_V1.0.2/MSDK/lwip/lwip-2.1.2/src/core\raw.c ****     if (ip_addr_ismulticast(ipaddr)) {
 371:C:/Users/stapi/OneDrive/Desktop/GD32VW553/GD32VW55X_Wifi_BLE_SDK/GD32VW55x_RELEASE_V1.0.2/MSDK/lwip/lwip-2.1.2/src/core\raw.c ****       /* For multicast-destined packets, use the user-provided interface index to
 372:C:/Users/stapi/OneDrive/Desktop/GD32VW553/GD32VW55X_Wifi_BLE_SDK/GD32VW55x_RELEASE_V1.0.2/MSDK/lwip/lwip-2.1.2/src/core\raw.c ****        * determine the outgoing interface, if an interface index is set and a
 373:C:/Users/stapi/OneDrive/Desktop/GD32VW553/GD32VW55X_Wifi_BLE_SDK/GD32VW55x_RELEASE_V1.0.2/MSDK/lwip/lwip-2.1.2/src/core\raw.c ****        * matching netif can be found. Otherwise, fall back to regular routing. */
 374:C:/Users/stapi/OneDrive/Desktop/GD32VW553/GD32VW55X_Wifi_BLE_SDK/GD32VW55x_RELEASE_V1.0.2/MSDK/lwip/lwip-2.1.2/src/core\raw.c ****       netif = netif_get_by_index(pcb->mcast_ifindex);
 375:C:/Users/stapi/OneDrive/Desktop/GD32VW553/GD32VW55X_Wifi_BLE_SDK/GD32VW55x_RELEASE_V1.0.2/MSDK/lwip/lwip-2.1.2/src/core\raw.c ****     }
 376:C:/Users/stapi/OneDrive/Desktop/GD32VW553/GD32VW55X_Wifi_BLE_SDK/GD32VW55x_RELEASE_V1.0.2/MSDK/lwip/lwip-2.1.2/src/core\raw.c **** 
 377:C:/Users/stapi/OneDrive/Desktop/GD32VW553/GD32VW55X_Wifi_BLE_SDK/GD32VW55x_RELEASE_V1.0.2/MSDK/lwip/lwip-2.1.2/src/core\raw.c ****     if (netif == NULL)
 378:C:/Users/stapi/OneDrive/Desktop/GD32VW553/GD32VW55X_Wifi_BLE_SDK/GD32VW55x_RELEASE_V1.0.2/MSDK/lwip/lwip-2.1.2/src/core\raw.c **** #endif /* LWIP_MULTICAST_TX_OPTIONS */
 379:C:/Users/stapi/OneDrive/Desktop/GD32VW553/GD32VW55X_Wifi_BLE_SDK/GD32VW55x_RELEASE_V1.0.2/MSDK/lwip/lwip-2.1.2/src/core\raw.c ****     {
 380:C:/Users/stapi/OneDrive/Desktop/GD32VW553/GD32VW55X_Wifi_BLE_SDK/GD32VW55x_RELEASE_V1.0.2/MSDK/lwip/lwip-2.1.2/src/core\raw.c ****       netif = ip_route(&pcb->local_ip, ipaddr);
 381:C:/Users/stapi/OneDrive/Desktop/GD32VW553/GD32VW55X_Wifi_BLE_SDK/GD32VW55x_RELEASE_V1.0.2/MSDK/lwip/lwip-2.1.2/src/core\raw.c ****     }
 382:C:/Users/stapi/OneDrive/Desktop/GD32VW553/GD32VW55X_Wifi_BLE_SDK/GD32VW55x_RELEASE_V1.0.2/MSDK/lwip/lwip-2.1.2/src/core\raw.c ****   }
 383:C:/Users/stapi/OneDrive/Desktop/GD32VW553/GD32VW55X_Wifi_BLE_SDK/GD32VW55x_RELEASE_V1.0.2/MSDK/lwip/lwip-2.1.2/src/core\raw.c **** 
 384:C:/Users/stapi/OneDrive/Desktop/GD32VW553/GD32VW55X_Wifi_BLE_SDK/GD32VW55x_RELEASE_V1.0.2/MSDK/lwip/lwip-2.1.2/src/core\raw.c ****   if (netif == NULL) {
 385:C:/Users/stapi/OneDrive/Desktop/GD32VW553/GD32VW55X_Wifi_BLE_SDK/GD32VW55x_RELEASE_V1.0.2/MSDK/lwip/lwip-2.1.2/src/core\raw.c ****     LWIP_DEBUGF(RAW_DEBUG | LWIP_DBG_LEVEL_WARNING, ("raw_sendto: No route to "));
 386:C:/Users/stapi/OneDrive/Desktop/GD32VW553/GD32VW55X_Wifi_BLE_SDK/GD32VW55x_RELEASE_V1.0.2/MSDK/lwip/lwip-2.1.2/src/core\raw.c ****     ip_addr_debug_print(RAW_DEBUG | LWIP_DBG_LEVEL_WARNING, ipaddr);
 387:C:/Users/stapi/OneDrive/Desktop/GD32VW553/GD32VW55X_Wifi_BLE_SDK/GD32VW55x_RELEASE_V1.0.2/MSDK/lwip/lwip-2.1.2/src/core\raw.c ****     return ERR_RTE;
 388:C:/Users/stapi/OneDrive/Desktop/GD32VW553/GD32VW55X_Wifi_BLE_SDK/GD32VW55x_RELEASE_V1.0.2/MSDK/lwip/lwip-2.1.2/src/core\raw.c ****   }
 389:C:/Users/stapi/OneDrive/Desktop/GD32VW553/GD32VW55X_Wifi_BLE_SDK/GD32VW55x_RELEASE_V1.0.2/MSDK/lwip/lwip-2.1.2/src/core\raw.c **** 
 390:C:/Users/stapi/OneDrive/Desktop/GD32VW553/GD32VW55X_Wifi_BLE_SDK/GD32VW55x_RELEASE_V1.0.2/MSDK/lwip/lwip-2.1.2/src/core\raw.c ****   if (ip_addr_isany(&pcb->local_ip) || ip_addr_ismulticast(&pcb->local_ip)) {
 391:C:/Users/stapi/OneDrive/Desktop/GD32VW553/GD32VW55X_Wifi_BLE_SDK/GD32VW55x_RELEASE_V1.0.2/MSDK/lwip/lwip-2.1.2/src/core\raw.c ****     /* use outgoing network interface IP address as source address */
 392:C:/Users/stapi/OneDrive/Desktop/GD32VW553/GD32VW55X_Wifi_BLE_SDK/GD32VW55x_RELEASE_V1.0.2/MSDK/lwip/lwip-2.1.2/src/core\raw.c ****     src_ip = ip_netif_get_local_ip(netif, ipaddr);
 393:C:/Users/stapi/OneDrive/Desktop/GD32VW553/GD32VW55X_Wifi_BLE_SDK/GD32VW55x_RELEASE_V1.0.2/MSDK/lwip/lwip-2.1.2/src/core\raw.c **** #if LWIP_IPV6
 394:C:/Users/stapi/OneDrive/Desktop/GD32VW553/GD32VW55X_Wifi_BLE_SDK/GD32VW55x_RELEASE_V1.0.2/MSDK/lwip/lwip-2.1.2/src/core\raw.c ****     if (src_ip == NULL) {
 395:C:/Users/stapi/OneDrive/Desktop/GD32VW553/GD32VW55X_Wifi_BLE_SDK/GD32VW55x_RELEASE_V1.0.2/MSDK/lwip/lwip-2.1.2/src/core\raw.c ****       return ERR_RTE;
 396:C:/Users/stapi/OneDrive/Desktop/GD32VW553/GD32VW55X_Wifi_BLE_SDK/GD32VW55x_RELEASE_V1.0.2/MSDK/lwip/lwip-2.1.2/src/core\raw.c ****     }
 397:C:/Users/stapi/OneDrive/Desktop/GD32VW553/GD32VW55X_Wifi_BLE_SDK/GD32VW55x_RELEASE_V1.0.2/MSDK/lwip/lwip-2.1.2/src/core\raw.c **** #endif /* LWIP_IPV6 */
 398:C:/Users/stapi/OneDrive/Desktop/GD32VW553/GD32VW55X_Wifi_BLE_SDK/GD32VW55x_RELEASE_V1.0.2/MSDK/lwip/lwip-2.1.2/src/core\raw.c ****   } else {
 399:C:/Users/stapi/OneDrive/Desktop/GD32VW553/GD32VW55X_Wifi_BLE_SDK/GD32VW55x_RELEASE_V1.0.2/MSDK/lwip/lwip-2.1.2/src/core\raw.c ****     /* use RAW PCB local IP address as source address */
 400:C:/Users/stapi/OneDrive/Desktop/GD32VW553/GD32VW55X_Wifi_BLE_SDK/GD32VW55x_RELEASE_V1.0.2/MSDK/lwip/lwip-2.1.2/src/core\raw.c ****     src_ip = &pcb->local_ip;
 401:C:/Users/stapi/OneDrive/Desktop/GD32VW553/GD32VW55X_Wifi_BLE_SDK/GD32VW55x_RELEASE_V1.0.2/MSDK/lwip/lwip-2.1.2/src/core\raw.c ****   }
 402:C:/Users/stapi/OneDrive/Desktop/GD32VW553/GD32VW55X_Wifi_BLE_SDK/GD32VW55x_RELEASE_V1.0.2/MSDK/lwip/lwip-2.1.2/src/core\raw.c **** 
 403:C:/Users/stapi/OneDrive/Desktop/GD32VW553/GD32VW55X_Wifi_BLE_SDK/GD32VW55x_RELEASE_V1.0.2/MSDK/lwip/lwip-2.1.2/src/core\raw.c ****   return raw_sendto_if_src(pcb, p, ipaddr, netif, src_ip);
 404:C:/Users/stapi/OneDrive/Desktop/GD32VW553/GD32VW55X_Wifi_BLE_SDK/GD32VW55x_RELEASE_V1.0.2/MSDK/lwip/lwip-2.1.2/src/core\raw.c **** }
 405:C:/Users/stapi/OneDrive/Desktop/GD32VW553/GD32VW55X_Wifi_BLE_SDK/GD32VW55x_RELEASE_V1.0.2/MSDK/lwip/lwip-2.1.2/src/core\raw.c **** 
 406:C:/Users/stapi/OneDrive/Desktop/GD32VW553/GD32VW55X_Wifi_BLE_SDK/GD32VW55x_RELEASE_V1.0.2/MSDK/lwip/lwip-2.1.2/src/core\raw.c **** /**
 407:C:/Users/stapi/OneDrive/Desktop/GD32VW553/GD32VW55X_Wifi_BLE_SDK/GD32VW55x_RELEASE_V1.0.2/MSDK/lwip/lwip-2.1.2/src/core\raw.c ****  * @ingroup raw_raw
 408:C:/Users/stapi/OneDrive/Desktop/GD32VW553/GD32VW55X_Wifi_BLE_SDK/GD32VW55x_RELEASE_V1.0.2/MSDK/lwip/lwip-2.1.2/src/core\raw.c ****  * Send the raw IP packet to the given address, using a particular outgoing
 409:C:/Users/stapi/OneDrive/Desktop/GD32VW553/GD32VW55X_Wifi_BLE_SDK/GD32VW55x_RELEASE_V1.0.2/MSDK/lwip/lwip-2.1.2/src/core\raw.c ****  * netif and source IP address. An IP header will be prepended to the packet,
 410:C:/Users/stapi/OneDrive/Desktop/GD32VW553/GD32VW55X_Wifi_BLE_SDK/GD32VW55x_RELEASE_V1.0.2/MSDK/lwip/lwip-2.1.2/src/core\raw.c ****  * unless the RAW_FLAGS_HDRINCL flag is set on the PCB. In that case, the
 411:C:/Users/stapi/OneDrive/Desktop/GD32VW553/GD32VW55X_Wifi_BLE_SDK/GD32VW55x_RELEASE_V1.0.2/MSDK/lwip/lwip-2.1.2/src/core\raw.c ****  * packet must include an IP header, which will then be sent as is.
 412:C:/Users/stapi/OneDrive/Desktop/GD32VW553/GD32VW55X_Wifi_BLE_SDK/GD32VW55x_RELEASE_V1.0.2/MSDK/lwip/lwip-2.1.2/src/core\raw.c ****  *
 413:C:/Users/stapi/OneDrive/Desktop/GD32VW553/GD32VW55X_Wifi_BLE_SDK/GD32VW55x_RELEASE_V1.0.2/MSDK/lwip/lwip-2.1.2/src/core\raw.c ****  * @param pcb RAW PCB used to send the data
 414:C:/Users/stapi/OneDrive/Desktop/GD32VW553/GD32VW55X_Wifi_BLE_SDK/GD32VW55x_RELEASE_V1.0.2/MSDK/lwip/lwip-2.1.2/src/core\raw.c ****  * @param p chain of pbufs to be sent
 415:C:/Users/stapi/OneDrive/Desktop/GD32VW553/GD32VW55X_Wifi_BLE_SDK/GD32VW55x_RELEASE_V1.0.2/MSDK/lwip/lwip-2.1.2/src/core\raw.c ****  * @param dst_ip destination IP address
 416:C:/Users/stapi/OneDrive/Desktop/GD32VW553/GD32VW55X_Wifi_BLE_SDK/GD32VW55x_RELEASE_V1.0.2/MSDK/lwip/lwip-2.1.2/src/core\raw.c ****  * @param netif the netif used for sending
 417:C:/Users/stapi/OneDrive/Desktop/GD32VW553/GD32VW55X_Wifi_BLE_SDK/GD32VW55x_RELEASE_V1.0.2/MSDK/lwip/lwip-2.1.2/src/core\raw.c ****  * @param src_ip source IP address
 418:C:/Users/stapi/OneDrive/Desktop/GD32VW553/GD32VW55X_Wifi_BLE_SDK/GD32VW55x_RELEASE_V1.0.2/MSDK/lwip/lwip-2.1.2/src/core\raw.c ****  */
 419:C:/Users/stapi/OneDrive/Desktop/GD32VW553/GD32VW55X_Wifi_BLE_SDK/GD32VW55x_RELEASE_V1.0.2/MSDK/lwip/lwip-2.1.2/src/core\raw.c **** err_t
 420:C:/Users/stapi/OneDrive/Desktop/GD32VW553/GD32VW55X_Wifi_BLE_SDK/GD32VW55x_RELEASE_V1.0.2/MSDK/lwip/lwip-2.1.2/src/core\raw.c **** raw_sendto_if_src(struct raw_pcb *pcb, struct pbuf *p, const ip_addr_t *dst_ip,
 421:C:/Users/stapi/OneDrive/Desktop/GD32VW553/GD32VW55X_Wifi_BLE_SDK/GD32VW55x_RELEASE_V1.0.2/MSDK/lwip/lwip-2.1.2/src/core\raw.c ****                   struct netif *netif, const ip_addr_t *src_ip)
 422:C:/Users/stapi/OneDrive/Desktop/GD32VW553/GD32VW55X_Wifi_BLE_SDK/GD32VW55x_RELEASE_V1.0.2/MSDK/lwip/lwip-2.1.2/src/core\raw.c **** {
 418              		.loc 1 422 1 is_stmt 1
 419              		.cfi_startproc
 420              	.LVL32:
 421 0000 17030000 		call	t0,__riscv_save_6
 421      E7020300 
 422              		.cfi_offset 21, -28
 423              		.cfi_offset 20, -24
 424              		.cfi_offset 19, -20
 425              		.cfi_offset 18, -16
 426              		.cfi_offset 9, -12
 427              		.cfi_offset 8, -8
 428              		.cfi_offset 1, -4
 429              		.cfi_def_cfa_offset 32
 423:C:/Users/stapi/OneDrive/Desktop/GD32VW553/GD32VW55X_Wifi_BLE_SDK/GD32VW55x_RELEASE_V1.0.2/MSDK/lwip/lwip-2.1.2/src/core\raw.c ****   err_t err;
 430              		.loc 1 423 3
 424:C:/Users/stapi/OneDrive/Desktop/GD32VW553/GD32VW55X_Wifi_BLE_SDK/GD32VW55x_RELEASE_V1.0.2/MSDK/lwip/lwip-2.1.2/src/core\raw.c ****   struct pbuf *q; /* q will be sent down the stack */
 431              		.loc 1 424 3
 425:C:/Users/stapi/OneDrive/Desktop/GD32VW553/GD32VW55X_Wifi_BLE_SDK/GD32VW55x_RELEASE_V1.0.2/MSDK/lwip/lwip-2.1.2/src/core\raw.c ****   u16_t header_size;
 432              		.loc 1 425 3
 426:C:/Users/stapi/OneDrive/Desktop/GD32VW553/GD32VW55X_Wifi_BLE_SDK/GD32VW55x_RELEASE_V1.0.2/MSDK/lwip/lwip-2.1.2/src/core\raw.c ****   u8_t ttl;
 433              		.loc 1 426 3
 427:C:/Users/stapi/OneDrive/Desktop/GD32VW553/GD32VW55X_Wifi_BLE_SDK/GD32VW55x_RELEASE_V1.0.2/MSDK/lwip/lwip-2.1.2/src/core\raw.c **** 
 428:C:/Users/stapi/OneDrive/Desktop/GD32VW553/GD32VW55X_Wifi_BLE_SDK/GD32VW55x_RELEASE_V1.0.2/MSDK/lwip/lwip-2.1.2/src/core\raw.c ****   LWIP_ASSERT_CORE_LOCKED();
 434              		.loc 1 428 28
 429:C:/Users/stapi/OneDrive/Desktop/GD32VW553/GD32VW55X_Wifi_BLE_SDK/GD32VW55x_RELEASE_V1.0.2/MSDK/lwip/lwip-2.1.2/src/core\raw.c **** 
 430:C:/Users/stapi/OneDrive/Desktop/GD32VW553/GD32VW55X_Wifi_BLE_SDK/GD32VW55x_RELEASE_V1.0.2/MSDK/lwip/lwip-2.1.2/src/core\raw.c ****   if ((pcb == NULL) || (dst_ip == NULL) || (netif == NULL) || (src_ip == NULL) ||
 435              		.loc 1 430 3
 436              		.loc 1 430 6 is_stmt 0
 437 0008 63050512 		beq	a0,zero,.L58
 438 000c 328A     		mv	s4,a2
 439              		.loc 1 430 21 discriminator 1
 440 000e 63020612 		beq	a2,zero,.L58
 441 0012 B68A     		mv	s5,a3
 442              		.loc 1 430 41 discriminator 2
 443 0014 638F0610 		beq	a3,zero,.L58
 444 0018 BA89     		mv	s3,a4
 431:C:/Users/stapi/OneDrive/Desktop/GD32VW553/GD32VW55X_Wifi_BLE_SDK/GD32VW55x_RELEASE_V1.0.2/MSDK/lwip/lwip-2.1.2/src/core\raw.c ****       !IP_ADDR_PCB_VERSION_MATCH(pcb, src_ip) || !IP_ADDR_PCB_VERSION_MATCH(pcb, dst_ip)) {
 445              		.loc 1 431 47
 446 001a 630C0710 		beq	a4,zero,.L58
 432:C:/Users/stapi/OneDrive/Desktop/GD32VW553/GD32VW55X_Wifi_BLE_SDK/GD32VW55x_RELEASE_V1.0.2/MSDK/lwip/lwip-2.1.2/src/core\raw.c ****     return ERR_VAL;
 433:C:/Users/stapi/OneDrive/Desktop/GD32VW553/GD32VW55X_Wifi_BLE_SDK/GD32VW55x_RELEASE_V1.0.2/MSDK/lwip/lwip-2.1.2/src/core\raw.c ****   }
 434:C:/Users/stapi/OneDrive/Desktop/GD32VW553/GD32VW55X_Wifi_BLE_SDK/GD32VW55x_RELEASE_V1.0.2/MSDK/lwip/lwip-2.1.2/src/core\raw.c **** 
 435:C:/Users/stapi/OneDrive/Desktop/GD32VW553/GD32VW55X_Wifi_BLE_SDK/GD32VW55x_RELEASE_V1.0.2/MSDK/lwip/lwip-2.1.2/src/core\raw.c ****   header_size = (
 436:C:/Users/stapi/OneDrive/Desktop/GD32VW553/GD32VW55X_Wifi_BLE_SDK/GD32VW55x_RELEASE_V1.0.2/MSDK/lwip/lwip-2.1.2/src/core\raw.c **** #if LWIP_IPV4 && LWIP_IPV6
 437:C:/Users/stapi/OneDrive/Desktop/GD32VW553/GD32VW55X_Wifi_BLE_SDK/GD32VW55x_RELEASE_V1.0.2/MSDK/lwip/lwip-2.1.2/src/core\raw.c ****                   IP_IS_V6(dst_ip) ? IP6_HLEN : IP_HLEN);
 438:C:/Users/stapi/OneDrive/Desktop/GD32VW553/GD32VW55X_Wifi_BLE_SDK/GD32VW55x_RELEASE_V1.0.2/MSDK/lwip/lwip-2.1.2/src/core\raw.c **** #elif LWIP_IPV4
 439:C:/Users/stapi/OneDrive/Desktop/GD32VW553/GD32VW55X_Wifi_BLE_SDK/GD32VW55x_RELEASE_V1.0.2/MSDK/lwip/lwip-2.1.2/src/core\raw.c ****                   IP_HLEN);
 440:C:/Users/stapi/OneDrive/Desktop/GD32VW553/GD32VW55X_Wifi_BLE_SDK/GD32VW55x_RELEASE_V1.0.2/MSDK/lwip/lwip-2.1.2/src/core\raw.c **** #else
 441:C:/Users/stapi/OneDrive/Desktop/GD32VW553/GD32VW55X_Wifi_BLE_SDK/GD32VW55x_RELEASE_V1.0.2/MSDK/lwip/lwip-2.1.2/src/core\raw.c ****                   IP6_HLEN);
 442:C:/Users/stapi/OneDrive/Desktop/GD32VW553/GD32VW55X_Wifi_BLE_SDK/GD32VW55x_RELEASE_V1.0.2/MSDK/lwip/lwip-2.1.2/src/core\raw.c **** #endif
 443:C:/Users/stapi/OneDrive/Desktop/GD32VW553/GD32VW55X_Wifi_BLE_SDK/GD32VW55x_RELEASE_V1.0.2/MSDK/lwip/lwip-2.1.2/src/core\raw.c **** 
 444:C:/Users/stapi/OneDrive/Desktop/GD32VW553/GD32VW55X_Wifi_BLE_SDK/GD32VW55x_RELEASE_V1.0.2/MSDK/lwip/lwip-2.1.2/src/core\raw.c ****   /* Handle the HDRINCL option as an exception: none of the code below applies
 445:C:/Users/stapi/OneDrive/Desktop/GD32VW553/GD32VW55X_Wifi_BLE_SDK/GD32VW55x_RELEASE_V1.0.2/MSDK/lwip/lwip-2.1.2/src/core\raw.c ****    * to this case, and sending the packet needs to be done differently too. */
 446:C:/Users/stapi/OneDrive/Desktop/GD32VW553/GD32VW55X_Wifi_BLE_SDK/GD32VW55x_RELEASE_V1.0.2/MSDK/lwip/lwip-2.1.2/src/core\raw.c ****   if (pcb->flags & RAW_FLAGS_HDRINCL) {
 447              		.loc 1 446 6
 448 001e 83471501 		lbu	a5,17(a0)
 449 0022 2A84     		mv	s0,a0
 450 0024 AE84     		mv	s1,a1
 435:C:/Users/stapi/OneDrive/Desktop/GD32VW553/GD32VW55X_Wifi_BLE_SDK/GD32VW55x_RELEASE_V1.0.2/MSDK/lwip/lwip-2.1.2/src/core\raw.c **** #if LWIP_IPV4 && LWIP_IPV6
 451              		.loc 1 435 3 is_stmt 1
 452              	.LVL33:
 453              		.loc 1 446 3
 454              		.loc 1 446 6 is_stmt 0
 455 0026 898B     		andi	a5,a5,2
 456 0028 85CB     		beq	a5,zero,.L45
 447:C:/Users/stapi/OneDrive/Desktop/GD32VW553/GD32VW55X_Wifi_BLE_SDK/GD32VW55x_RELEASE_V1.0.2/MSDK/lwip/lwip-2.1.2/src/core\raw.c ****     /* A full header *must* be present in the first pbuf of the chain, as the
 448:C:/Users/stapi/OneDrive/Desktop/GD32VW553/GD32VW55X_Wifi_BLE_SDK/GD32VW55x_RELEASE_V1.0.2/MSDK/lwip/lwip-2.1.2/src/core\raw.c ****      * output routines may access its fields directly. */
 449:C:/Users/stapi/OneDrive/Desktop/GD32VW553/GD32VW55X_Wifi_BLE_SDK/GD32VW55x_RELEASE_V1.0.2/MSDK/lwip/lwip-2.1.2/src/core\raw.c ****     if (p->len < header_size) {
 457              		.loc 1 449 5 is_stmt 1
 458              		.loc 1 449 8 is_stmt 0
 459 002a 03D7A500 		lhu	a4,10(a1)
 460              	.LVL34:
 461 002e CD47     		li	a5,19
 432:C:/Users/stapi/OneDrive/Desktop/GD32VW553/GD32VW55X_Wifi_BLE_SDK/GD32VW55x_RELEASE_V1.0.2/MSDK/lwip/lwip-2.1.2/src/core\raw.c ****   }
 462              		.loc 1 432 12
 463 0030 6954     		li	s0,-6
 464              		.loc 1 449 8
 465 0032 63FEE700 		bleu	a4,a5,.L44
 450:C:/Users/stapi/OneDrive/Desktop/GD32VW553/GD32VW55X_Wifi_BLE_SDK/GD32VW55x_RELEASE_V1.0.2/MSDK/lwip/lwip-2.1.2/src/core\raw.c ****       return ERR_VAL;
 451:C:/Users/stapi/OneDrive/Desktop/GD32VW553/GD32VW55X_Wifi_BLE_SDK/GD32VW55x_RELEASE_V1.0.2/MSDK/lwip/lwip-2.1.2/src/core\raw.c ****     }
 452:C:/Users/stapi/OneDrive/Desktop/GD32VW553/GD32VW55X_Wifi_BLE_SDK/GD32VW55x_RELEASE_V1.0.2/MSDK/lwip/lwip-2.1.2/src/core\raw.c ****     /* @todo multicast loop support, if at all desired for this scenario.. */
 453:C:/Users/stapi/OneDrive/Desktop/GD32VW553/GD32VW55X_Wifi_BLE_SDK/GD32VW55x_RELEASE_V1.0.2/MSDK/lwip/lwip-2.1.2/src/core\raw.c ****     NETIF_SET_HINTS(netif, &pcb->netif_hints);
 466              		.loc 1 453 46 is_stmt 1
 454:C:/Users/stapi/OneDrive/Desktop/GD32VW553/GD32VW55X_Wifi_BLE_SDK/GD32VW55x_RELEASE_V1.0.2/MSDK/lwip/lwip-2.1.2/src/core\raw.c ****     err = ip_output_if_hdrincl(p, src_ip, dst_ip, netif);
 467              		.loc 1 454 5
 468              		.loc 1 454 11 is_stmt 0
 469 0036 3688     		mv	a6,a3
 470 0038 8147     		li	a5,0
 471 003a 0147     		li	a4,0
 472 003c 8146     		li	a3,0
 473              	.LVL35:
 474 003e 0146     		li	a2,0
 475              	.LVL36:
 476 0040 CE85     		mv	a1,s3
 477              	.LVL37:
 478 0042 2685     		mv	a0,s1
 479              	.LVL38:
 480 0044 97000000 		call	ip4_output_if
 480      E7800000 
 481              	.LVL39:
 482 004c 2A84     		mv	s0,a0
 483              	.LVL40:
 455:C:/Users/stapi/OneDrive/Desktop/GD32VW553/GD32VW55X_Wifi_BLE_SDK/GD32VW55x_RELEASE_V1.0.2/MSDK/lwip/lwip-2.1.2/src/core\raw.c ****     NETIF_RESET_HINTS(netif);
 484              		.loc 1 455 29 is_stmt 1
 456:C:/Users/stapi/OneDrive/Desktop/GD32VW553/GD32VW55X_Wifi_BLE_SDK/GD32VW55x_RELEASE_V1.0.2/MSDK/lwip/lwip-2.1.2/src/core\raw.c ****     return err;
 485              		.loc 1 456 5
 486              	.L44:
 457:C:/Users/stapi/OneDrive/Desktop/GD32VW553/GD32VW55X_Wifi_BLE_SDK/GD32VW55x_RELEASE_V1.0.2/MSDK/lwip/lwip-2.1.2/src/core\raw.c ****   }
 458:C:/Users/stapi/OneDrive/Desktop/GD32VW553/GD32VW55X_Wifi_BLE_SDK/GD32VW55x_RELEASE_V1.0.2/MSDK/lwip/lwip-2.1.2/src/core\raw.c **** 
 459:C:/Users/stapi/OneDrive/Desktop/GD32VW553/GD32VW55X_Wifi_BLE_SDK/GD32VW55x_RELEASE_V1.0.2/MSDK/lwip/lwip-2.1.2/src/core\raw.c ****   /* packet too large to add an IP header without causing an overflow? */
 460:C:/Users/stapi/OneDrive/Desktop/GD32VW553/GD32VW55X_Wifi_BLE_SDK/GD32VW55x_RELEASE_V1.0.2/MSDK/lwip/lwip-2.1.2/src/core\raw.c ****   if ((u16_t)(p->tot_len + header_size) < p->tot_len) {
 461:C:/Users/stapi/OneDrive/Desktop/GD32VW553/GD32VW55X_Wifi_BLE_SDK/GD32VW55x_RELEASE_V1.0.2/MSDK/lwip/lwip-2.1.2/src/core\raw.c ****     return ERR_MEM;
 462:C:/Users/stapi/OneDrive/Desktop/GD32VW553/GD32VW55X_Wifi_BLE_SDK/GD32VW55x_RELEASE_V1.0.2/MSDK/lwip/lwip-2.1.2/src/core\raw.c ****   }
 463:C:/Users/stapi/OneDrive/Desktop/GD32VW553/GD32VW55X_Wifi_BLE_SDK/GD32VW55x_RELEASE_V1.0.2/MSDK/lwip/lwip-2.1.2/src/core\raw.c ****   /* not enough space to add an IP header to first pbuf in given p chain? */
 464:C:/Users/stapi/OneDrive/Desktop/GD32VW553/GD32VW55X_Wifi_BLE_SDK/GD32VW55x_RELEASE_V1.0.2/MSDK/lwip/lwip-2.1.2/src/core\raw.c ****   if (pbuf_add_header(p, header_size)) {
 465:C:/Users/stapi/OneDrive/Desktop/GD32VW553/GD32VW55X_Wifi_BLE_SDK/GD32VW55x_RELEASE_V1.0.2/MSDK/lwip/lwip-2.1.2/src/core\raw.c ****     /* allocate header in new pbuf */
 466:C:/Users/stapi/OneDrive/Desktop/GD32VW553/GD32VW55X_Wifi_BLE_SDK/GD32VW55x_RELEASE_V1.0.2/MSDK/lwip/lwip-2.1.2/src/core\raw.c ****     q = pbuf_alloc(PBUF_IP, 0, PBUF_RAM);
 467:C:/Users/stapi/OneDrive/Desktop/GD32VW553/GD32VW55X_Wifi_BLE_SDK/GD32VW55x_RELEASE_V1.0.2/MSDK/lwip/lwip-2.1.2/src/core\raw.c ****     /* new header pbuf could not be allocated? */
 468:C:/Users/stapi/OneDrive/Desktop/GD32VW553/GD32VW55X_Wifi_BLE_SDK/GD32VW55x_RELEASE_V1.0.2/MSDK/lwip/lwip-2.1.2/src/core\raw.c ****     if (q == NULL) {
 469:C:/Users/stapi/OneDrive/Desktop/GD32VW553/GD32VW55X_Wifi_BLE_SDK/GD32VW55x_RELEASE_V1.0.2/MSDK/lwip/lwip-2.1.2/src/core\raw.c ****       LWIP_DEBUGF(RAW_DEBUG | LWIP_DBG_TRACE | LWIP_DBG_LEVEL_SERIOUS, ("raw_sendto: could not allo
 470:C:/Users/stapi/OneDrive/Desktop/GD32VW553/GD32VW55X_Wifi_BLE_SDK/GD32VW55x_RELEASE_V1.0.2/MSDK/lwip/lwip-2.1.2/src/core\raw.c ****       return ERR_MEM;
 471:C:/Users/stapi/OneDrive/Desktop/GD32VW553/GD32VW55X_Wifi_BLE_SDK/GD32VW55x_RELEASE_V1.0.2/MSDK/lwip/lwip-2.1.2/src/core\raw.c ****     }
 472:C:/Users/stapi/OneDrive/Desktop/GD32VW553/GD32VW55X_Wifi_BLE_SDK/GD32VW55x_RELEASE_V1.0.2/MSDK/lwip/lwip-2.1.2/src/core\raw.c ****     if (p->tot_len != 0) {
 473:C:/Users/stapi/OneDrive/Desktop/GD32VW553/GD32VW55X_Wifi_BLE_SDK/GD32VW55x_RELEASE_V1.0.2/MSDK/lwip/lwip-2.1.2/src/core\raw.c ****       /* chain header q in front of given pbuf p */
 474:C:/Users/stapi/OneDrive/Desktop/GD32VW553/GD32VW55X_Wifi_BLE_SDK/GD32VW55x_RELEASE_V1.0.2/MSDK/lwip/lwip-2.1.2/src/core\raw.c ****       pbuf_chain(q, p);
 475:C:/Users/stapi/OneDrive/Desktop/GD32VW553/GD32VW55X_Wifi_BLE_SDK/GD32VW55x_RELEASE_V1.0.2/MSDK/lwip/lwip-2.1.2/src/core\raw.c ****     }
 476:C:/Users/stapi/OneDrive/Desktop/GD32VW553/GD32VW55X_Wifi_BLE_SDK/GD32VW55x_RELEASE_V1.0.2/MSDK/lwip/lwip-2.1.2/src/core\raw.c ****     /* { first pbuf q points to header pbuf } */
 477:C:/Users/stapi/OneDrive/Desktop/GD32VW553/GD32VW55X_Wifi_BLE_SDK/GD32VW55x_RELEASE_V1.0.2/MSDK/lwip/lwip-2.1.2/src/core\raw.c ****     LWIP_DEBUGF(RAW_DEBUG, ("raw_sendto: added header pbuf %p before given pbuf %p\n", (void *)q, (
 478:C:/Users/stapi/OneDrive/Desktop/GD32VW553/GD32VW55X_Wifi_BLE_SDK/GD32VW55x_RELEASE_V1.0.2/MSDK/lwip/lwip-2.1.2/src/core\raw.c ****   } else {
 479:C:/Users/stapi/OneDrive/Desktop/GD32VW553/GD32VW55X_Wifi_BLE_SDK/GD32VW55x_RELEASE_V1.0.2/MSDK/lwip/lwip-2.1.2/src/core\raw.c ****     /* first pbuf q equals given pbuf */
 480:C:/Users/stapi/OneDrive/Desktop/GD32VW553/GD32VW55X_Wifi_BLE_SDK/GD32VW55x_RELEASE_V1.0.2/MSDK/lwip/lwip-2.1.2/src/core\raw.c ****     q = p;
 481:C:/Users/stapi/OneDrive/Desktop/GD32VW553/GD32VW55X_Wifi_BLE_SDK/GD32VW55x_RELEASE_V1.0.2/MSDK/lwip/lwip-2.1.2/src/core\raw.c ****     if (pbuf_remove_header(q, header_size)) {
 482:C:/Users/stapi/OneDrive/Desktop/GD32VW553/GD32VW55X_Wifi_BLE_SDK/GD32VW55x_RELEASE_V1.0.2/MSDK/lwip/lwip-2.1.2/src/core\raw.c ****       LWIP_ASSERT("Can't restore header we just removed!", 0);
 483:C:/Users/stapi/OneDrive/Desktop/GD32VW553/GD32VW55X_Wifi_BLE_SDK/GD32VW55x_RELEASE_V1.0.2/MSDK/lwip/lwip-2.1.2/src/core\raw.c ****       return ERR_MEM;
 484:C:/Users/stapi/OneDrive/Desktop/GD32VW553/GD32VW55X_Wifi_BLE_SDK/GD32VW55x_RELEASE_V1.0.2/MSDK/lwip/lwip-2.1.2/src/core\raw.c ****     }
 485:C:/Users/stapi/OneDrive/Desktop/GD32VW553/GD32VW55X_Wifi_BLE_SDK/GD32VW55x_RELEASE_V1.0.2/MSDK/lwip/lwip-2.1.2/src/core\raw.c ****   }
 486:C:/Users/stapi/OneDrive/Desktop/GD32VW553/GD32VW55X_Wifi_BLE_SDK/GD32VW55x_RELEASE_V1.0.2/MSDK/lwip/lwip-2.1.2/src/core\raw.c **** 
 487:C:/Users/stapi/OneDrive/Desktop/GD32VW553/GD32VW55X_Wifi_BLE_SDK/GD32VW55x_RELEASE_V1.0.2/MSDK/lwip/lwip-2.1.2/src/core\raw.c **** #if IP_SOF_BROADCAST
 488:C:/Users/stapi/OneDrive/Desktop/GD32VW553/GD32VW55X_Wifi_BLE_SDK/GD32VW55x_RELEASE_V1.0.2/MSDK/lwip/lwip-2.1.2/src/core\raw.c ****   if (IP_IS_V4(dst_ip)) {
 489:C:/Users/stapi/OneDrive/Desktop/GD32VW553/GD32VW55X_Wifi_BLE_SDK/GD32VW55x_RELEASE_V1.0.2/MSDK/lwip/lwip-2.1.2/src/core\raw.c ****     /* broadcast filter? */
 490:C:/Users/stapi/OneDrive/Desktop/GD32VW553/GD32VW55X_Wifi_BLE_SDK/GD32VW55x_RELEASE_V1.0.2/MSDK/lwip/lwip-2.1.2/src/core\raw.c ****     if (!ip_get_option(pcb, SOF_BROADCAST) && ip_addr_isbroadcast(dst_ip, netif)) {
 491:C:/Users/stapi/OneDrive/Desktop/GD32VW553/GD32VW55X_Wifi_BLE_SDK/GD32VW55x_RELEASE_V1.0.2/MSDK/lwip/lwip-2.1.2/src/core\raw.c ****       LWIP_DEBUGF(RAW_DEBUG | LWIP_DBG_LEVEL_WARNING, ("raw_sendto: SOF_BROADCAST not enabled on pc
 492:C:/Users/stapi/OneDrive/Desktop/GD32VW553/GD32VW55X_Wifi_BLE_SDK/GD32VW55x_RELEASE_V1.0.2/MSDK/lwip/lwip-2.1.2/src/core\raw.c ****       /* free any temporary header pbuf allocated by pbuf_header() */
 493:C:/Users/stapi/OneDrive/Desktop/GD32VW553/GD32VW55X_Wifi_BLE_SDK/GD32VW55x_RELEASE_V1.0.2/MSDK/lwip/lwip-2.1.2/src/core\raw.c ****       if (q != p) {
 494:C:/Users/stapi/OneDrive/Desktop/GD32VW553/GD32VW55X_Wifi_BLE_SDK/GD32VW55x_RELEASE_V1.0.2/MSDK/lwip/lwip-2.1.2/src/core\raw.c ****         pbuf_free(q);
 495:C:/Users/stapi/OneDrive/Desktop/GD32VW553/GD32VW55X_Wifi_BLE_SDK/GD32VW55x_RELEASE_V1.0.2/MSDK/lwip/lwip-2.1.2/src/core\raw.c ****       }
 496:C:/Users/stapi/OneDrive/Desktop/GD32VW553/GD32VW55X_Wifi_BLE_SDK/GD32VW55x_RELEASE_V1.0.2/MSDK/lwip/lwip-2.1.2/src/core\raw.c ****       return ERR_VAL;
 497:C:/Users/stapi/OneDrive/Desktop/GD32VW553/GD32VW55X_Wifi_BLE_SDK/GD32VW55x_RELEASE_V1.0.2/MSDK/lwip/lwip-2.1.2/src/core\raw.c ****     }
 498:C:/Users/stapi/OneDrive/Desktop/GD32VW553/GD32VW55X_Wifi_BLE_SDK/GD32VW55x_RELEASE_V1.0.2/MSDK/lwip/lwip-2.1.2/src/core\raw.c ****   }
 499:C:/Users/stapi/OneDrive/Desktop/GD32VW553/GD32VW55X_Wifi_BLE_SDK/GD32VW55x_RELEASE_V1.0.2/MSDK/lwip/lwip-2.1.2/src/core\raw.c **** #endif /* IP_SOF_BROADCAST */
 500:C:/Users/stapi/OneDrive/Desktop/GD32VW553/GD32VW55X_Wifi_BLE_SDK/GD32VW55x_RELEASE_V1.0.2/MSDK/lwip/lwip-2.1.2/src/core\raw.c **** 
 501:C:/Users/stapi/OneDrive/Desktop/GD32VW553/GD32VW55X_Wifi_BLE_SDK/GD32VW55x_RELEASE_V1.0.2/MSDK/lwip/lwip-2.1.2/src/core\raw.c ****   /* Multicast Loop? */
 502:C:/Users/stapi/OneDrive/Desktop/GD32VW553/GD32VW55X_Wifi_BLE_SDK/GD32VW55x_RELEASE_V1.0.2/MSDK/lwip/lwip-2.1.2/src/core\raw.c **** #if LWIP_MULTICAST_TX_OPTIONS
 503:C:/Users/stapi/OneDrive/Desktop/GD32VW553/GD32VW55X_Wifi_BLE_SDK/GD32VW55x_RELEASE_V1.0.2/MSDK/lwip/lwip-2.1.2/src/core\raw.c ****   if (((pcb->flags & RAW_FLAGS_MULTICAST_LOOP) != 0) && ip_addr_ismulticast(dst_ip)) {
 504:C:/Users/stapi/OneDrive/Desktop/GD32VW553/GD32VW55X_Wifi_BLE_SDK/GD32VW55x_RELEASE_V1.0.2/MSDK/lwip/lwip-2.1.2/src/core\raw.c ****     q->flags |= PBUF_FLAG_MCASTLOOP;
 505:C:/Users/stapi/OneDrive/Desktop/GD32VW553/GD32VW55X_Wifi_BLE_SDK/GD32VW55x_RELEASE_V1.0.2/MSDK/lwip/lwip-2.1.2/src/core\raw.c ****   }
 506:C:/Users/stapi/OneDrive/Desktop/GD32VW553/GD32VW55X_Wifi_BLE_SDK/GD32VW55x_RELEASE_V1.0.2/MSDK/lwip/lwip-2.1.2/src/core\raw.c **** #endif /* LWIP_MULTICAST_TX_OPTIONS */
 507:C:/Users/stapi/OneDrive/Desktop/GD32VW553/GD32VW55X_Wifi_BLE_SDK/GD32VW55x_RELEASE_V1.0.2/MSDK/lwip/lwip-2.1.2/src/core\raw.c **** 
 508:C:/Users/stapi/OneDrive/Desktop/GD32VW553/GD32VW55X_Wifi_BLE_SDK/GD32VW55x_RELEASE_V1.0.2/MSDK/lwip/lwip-2.1.2/src/core\raw.c **** #if LWIP_IPV6
 509:C:/Users/stapi/OneDrive/Desktop/GD32VW553/GD32VW55X_Wifi_BLE_SDK/GD32VW55x_RELEASE_V1.0.2/MSDK/lwip/lwip-2.1.2/src/core\raw.c ****   /* If requested, based on the IPV6_CHECKSUM socket option per RFC3542,
 510:C:/Users/stapi/OneDrive/Desktop/GD32VW553/GD32VW55X_Wifi_BLE_SDK/GD32VW55x_RELEASE_V1.0.2/MSDK/lwip/lwip-2.1.2/src/core\raw.c ****      compute the checksum and update the checksum in the payload. */
 511:C:/Users/stapi/OneDrive/Desktop/GD32VW553/GD32VW55X_Wifi_BLE_SDK/GD32VW55x_RELEASE_V1.0.2/MSDK/lwip/lwip-2.1.2/src/core\raw.c ****   if (IP_IS_V6(dst_ip) && pcb->chksum_reqd) {
 512:C:/Users/stapi/OneDrive/Desktop/GD32VW553/GD32VW55X_Wifi_BLE_SDK/GD32VW55x_RELEASE_V1.0.2/MSDK/lwip/lwip-2.1.2/src/core\raw.c ****     u16_t chksum = ip6_chksum_pseudo(p, pcb->protocol, p->tot_len, ip_2_ip6(src_ip), ip_2_ip6(dst_i
 513:C:/Users/stapi/OneDrive/Desktop/GD32VW553/GD32VW55X_Wifi_BLE_SDK/GD32VW55x_RELEASE_V1.0.2/MSDK/lwip/lwip-2.1.2/src/core\raw.c ****     LWIP_ASSERT("Checksum must fit into first pbuf", p->len >= (pcb->chksum_offset + 2));
 514:C:/Users/stapi/OneDrive/Desktop/GD32VW553/GD32VW55X_Wifi_BLE_SDK/GD32VW55x_RELEASE_V1.0.2/MSDK/lwip/lwip-2.1.2/src/core\raw.c ****     SMEMCPY(((u8_t *)p->payload) + pcb->chksum_offset, &chksum, sizeof(u16_t));
 515:C:/Users/stapi/OneDrive/Desktop/GD32VW553/GD32VW55X_Wifi_BLE_SDK/GD32VW55x_RELEASE_V1.0.2/MSDK/lwip/lwip-2.1.2/src/core\raw.c ****   }
 516:C:/Users/stapi/OneDrive/Desktop/GD32VW553/GD32VW55X_Wifi_BLE_SDK/GD32VW55x_RELEASE_V1.0.2/MSDK/lwip/lwip-2.1.2/src/core\raw.c **** #endif
 517:C:/Users/stapi/OneDrive/Desktop/GD32VW553/GD32VW55X_Wifi_BLE_SDK/GD32VW55x_RELEASE_V1.0.2/MSDK/lwip/lwip-2.1.2/src/core\raw.c **** 
 518:C:/Users/stapi/OneDrive/Desktop/GD32VW553/GD32VW55X_Wifi_BLE_SDK/GD32VW55x_RELEASE_V1.0.2/MSDK/lwip/lwip-2.1.2/src/core\raw.c ****   /* Determine TTL to use */
 519:C:/Users/stapi/OneDrive/Desktop/GD32VW553/GD32VW55X_Wifi_BLE_SDK/GD32VW55x_RELEASE_V1.0.2/MSDK/lwip/lwip-2.1.2/src/core\raw.c **** #if LWIP_MULTICAST_TX_OPTIONS
 520:C:/Users/stapi/OneDrive/Desktop/GD32VW553/GD32VW55X_Wifi_BLE_SDK/GD32VW55x_RELEASE_V1.0.2/MSDK/lwip/lwip-2.1.2/src/core\raw.c ****   ttl = (ip_addr_ismulticast(dst_ip) ? raw_get_multicast_ttl(pcb) : pcb->ttl);
 521:C:/Users/stapi/OneDrive/Desktop/GD32VW553/GD32VW55X_Wifi_BLE_SDK/GD32VW55x_RELEASE_V1.0.2/MSDK/lwip/lwip-2.1.2/src/core\raw.c **** #else /* LWIP_MULTICAST_TX_OPTIONS */
 522:C:/Users/stapi/OneDrive/Desktop/GD32VW553/GD32VW55X_Wifi_BLE_SDK/GD32VW55x_RELEASE_V1.0.2/MSDK/lwip/lwip-2.1.2/src/core\raw.c ****   ttl = pcb->ttl;
 523:C:/Users/stapi/OneDrive/Desktop/GD32VW553/GD32VW55X_Wifi_BLE_SDK/GD32VW55x_RELEASE_V1.0.2/MSDK/lwip/lwip-2.1.2/src/core\raw.c **** #endif /* LWIP_MULTICAST_TX_OPTIONS */
 524:C:/Users/stapi/OneDrive/Desktop/GD32VW553/GD32VW55X_Wifi_BLE_SDK/GD32VW55x_RELEASE_V1.0.2/MSDK/lwip/lwip-2.1.2/src/core\raw.c **** 
 525:C:/Users/stapi/OneDrive/Desktop/GD32VW553/GD32VW55X_Wifi_BLE_SDK/GD32VW55x_RELEASE_V1.0.2/MSDK/lwip/lwip-2.1.2/src/core\raw.c ****   NETIF_SET_HINTS(netif, &pcb->netif_hints);
 526:C:/Users/stapi/OneDrive/Desktop/GD32VW553/GD32VW55X_Wifi_BLE_SDK/GD32VW55x_RELEASE_V1.0.2/MSDK/lwip/lwip-2.1.2/src/core\raw.c ****   err = ip_output_if(q, src_ip, dst_ip, ttl, pcb->tos, pcb->protocol, netif);
 527:C:/Users/stapi/OneDrive/Desktop/GD32VW553/GD32VW55X_Wifi_BLE_SDK/GD32VW55x_RELEASE_V1.0.2/MSDK/lwip/lwip-2.1.2/src/core\raw.c ****   NETIF_RESET_HINTS(netif);
 528:C:/Users/stapi/OneDrive/Desktop/GD32VW553/GD32VW55X_Wifi_BLE_SDK/GD32VW55x_RELEASE_V1.0.2/MSDK/lwip/lwip-2.1.2/src/core\raw.c **** 
 529:C:/Users/stapi/OneDrive/Desktop/GD32VW553/GD32VW55X_Wifi_BLE_SDK/GD32VW55x_RELEASE_V1.0.2/MSDK/lwip/lwip-2.1.2/src/core\raw.c ****   /* did we chain a header earlier? */
 530:C:/Users/stapi/OneDrive/Desktop/GD32VW553/GD32VW55X_Wifi_BLE_SDK/GD32VW55x_RELEASE_V1.0.2/MSDK/lwip/lwip-2.1.2/src/core\raw.c ****   if (q != p) {
 531:C:/Users/stapi/OneDrive/Desktop/GD32VW553/GD32VW55X_Wifi_BLE_SDK/GD32VW55x_RELEASE_V1.0.2/MSDK/lwip/lwip-2.1.2/src/core\raw.c ****     /* free the header */
 532:C:/Users/stapi/OneDrive/Desktop/GD32VW553/GD32VW55X_Wifi_BLE_SDK/GD32VW55x_RELEASE_V1.0.2/MSDK/lwip/lwip-2.1.2/src/core\raw.c ****     pbuf_free(q);
 533:C:/Users/stapi/OneDrive/Desktop/GD32VW553/GD32VW55X_Wifi_BLE_SDK/GD32VW55x_RELEASE_V1.0.2/MSDK/lwip/lwip-2.1.2/src/core\raw.c ****   }
 534:C:/Users/stapi/OneDrive/Desktop/GD32VW553/GD32VW55X_Wifi_BLE_SDK/GD32VW55x_RELEASE_V1.0.2/MSDK/lwip/lwip-2.1.2/src/core\raw.c ****   return err;
 535:C:/Users/stapi/OneDrive/Desktop/GD32VW553/GD32VW55X_Wifi_BLE_SDK/GD32VW55x_RELEASE_V1.0.2/MSDK/lwip/lwip-2.1.2/src/core\raw.c **** }
 487              		.loc 1 535 1 is_stmt 0
 488 004e 2285     		mv	a0,s0
 489 0050 17030000 		tail	__riscv_restore_6
 489      67000300 
 490              		.cfi_remember_state
 491              		.cfi_restore 21
 492              		.cfi_restore 20
 493              		.cfi_restore 19
 494              		.cfi_restore 18
 495              		.cfi_restore 9
 496              		.cfi_restore 8
 497              		.cfi_restore 1
 498              		.cfi_def_cfa_offset 0
 499              	.LVL41:
 500              	.L45:
 501              		.cfi_restore_state
 460:C:/Users/stapi/OneDrive/Desktop/GD32VW553/GD32VW55X_Wifi_BLE_SDK/GD32VW55x_RELEASE_V1.0.2/MSDK/lwip/lwip-2.1.2/src/core\raw.c ****     return ERR_MEM;
 502              		.loc 1 460 3 is_stmt 1
 460:C:/Users/stapi/OneDrive/Desktop/GD32VW553/GD32VW55X_Wifi_BLE_SDK/GD32VW55x_RELEASE_V1.0.2/MSDK/lwip/lwip-2.1.2/src/core\raw.c ****     return ERR_MEM;
 503              		.loc 1 460 6 is_stmt 0
 504 0058 03D78500 		lhu	a4,8(a1)
 505              	.LVL42:
 506 005c C167     		li	a5,65536
 507 005e AD17     		addi	a5,a5,-21
 508 0060 63F4E700 		bleu	a4,a5,.L46
 509              	.LVL43:
 510              	.L48:
 461:C:/Users/stapi/OneDrive/Desktop/GD32VW553/GD32VW55X_Wifi_BLE_SDK/GD32VW55x_RELEASE_V1.0.2/MSDK/lwip/lwip-2.1.2/src/core\raw.c ****   }
 511              		.loc 1 461 12
 512 0064 7D54     		li	s0,-1
 513              	.LVL44:
 514 0066 E5B7     		j	.L44
 515              	.LVL45:
 516              	.L46:
 464:C:/Users/stapi/OneDrive/Desktop/GD32VW553/GD32VW55X_Wifi_BLE_SDK/GD32VW55x_RELEASE_V1.0.2/MSDK/lwip/lwip-2.1.2/src/core\raw.c ****     /* allocate header in new pbuf */
 517              		.loc 1 464 3 is_stmt 1
 464:C:/Users/stapi/OneDrive/Desktop/GD32VW553/GD32VW55X_Wifi_BLE_SDK/GD32VW55x_RELEASE_V1.0.2/MSDK/lwip/lwip-2.1.2/src/core\raw.c ****     /* allocate header in new pbuf */
 518              		.loc 1 464 7 is_stmt 0
 519 0068 D145     		li	a1,20
 520 006a 2685     		mv	a0,s1
 521 006c 97000000 		call	pbuf_add_header
 521      E7800000 
 522              	.LVL46:
 464:C:/Users/stapi/OneDrive/Desktop/GD32VW553/GD32VW55X_Wifi_BLE_SDK/GD32VW55x_RELEASE_V1.0.2/MSDK/lwip/lwip-2.1.2/src/core\raw.c ****     /* allocate header in new pbuf */
 523              		.loc 1 464 6
 524 0074 2DCD     		beq	a0,zero,.L47
 466:C:/Users/stapi/OneDrive/Desktop/GD32VW553/GD32VW55X_Wifi_BLE_SDK/GD32VW55x_RELEASE_V1.0.2/MSDK/lwip/lwip-2.1.2/src/core\raw.c ****     /* new header pbuf could not be allocated? */
 525              		.loc 1 466 5 is_stmt 1
 466:C:/Users/stapi/OneDrive/Desktop/GD32VW553/GD32VW55X_Wifi_BLE_SDK/GD32VW55x_RELEASE_V1.0.2/MSDK/lwip/lwip-2.1.2/src/core\raw.c ****     /* new header pbuf could not be allocated? */
 526              		.loc 1 466 9 is_stmt 0
 527 0076 13060028 		li	a2,640
 528 007a 8145     		li	a1,0
 529 007c 1305E017 		li	a0,382
 530 0080 97000000 		call	pbuf_alloc
 530      E7800000 
 531              	.LVL47:
 532 0088 2A89     		mv	s2,a0
 533              	.LVL48:
 468:C:/Users/stapi/OneDrive/Desktop/GD32VW553/GD32VW55X_Wifi_BLE_SDK/GD32VW55x_RELEASE_V1.0.2/MSDK/lwip/lwip-2.1.2/src/core\raw.c ****       LWIP_DEBUGF(RAW_DEBUG | LWIP_DBG_TRACE | LWIP_DBG_LEVEL_SERIOUS, ("raw_sendto: could not allo
 534              		.loc 1 468 5 is_stmt 1
 468:C:/Users/stapi/OneDrive/Desktop/GD32VW553/GD32VW55X_Wifi_BLE_SDK/GD32VW55x_RELEASE_V1.0.2/MSDK/lwip/lwip-2.1.2/src/core\raw.c ****       LWIP_DEBUGF(RAW_DEBUG | LWIP_DBG_TRACE | LWIP_DBG_LEVEL_SERIOUS, ("raw_sendto: could not allo
 535              		.loc 1 468 8 is_stmt 0
 536 008a 69DD     		beq	a0,zero,.L48
 472:C:/Users/stapi/OneDrive/Desktop/GD32VW553/GD32VW55X_Wifi_BLE_SDK/GD32VW55x_RELEASE_V1.0.2/MSDK/lwip/lwip-2.1.2/src/core\raw.c ****       /* chain header q in front of given pbuf p */
 537              		.loc 1 472 5 is_stmt 1
 472:C:/Users/stapi/OneDrive/Desktop/GD32VW553/GD32VW55X_Wifi_BLE_SDK/GD32VW55x_RELEASE_V1.0.2/MSDK/lwip/lwip-2.1.2/src/core\raw.c ****       /* chain header q in front of given pbuf p */
 538              		.loc 1 472 8 is_stmt 0
 539 008c 83D78400 		lhu	a5,8(s1)
 540 0090 91C7     		beq	a5,zero,.L49
 474:C:/Users/stapi/OneDrive/Desktop/GD32VW553/GD32VW55X_Wifi_BLE_SDK/GD32VW55x_RELEASE_V1.0.2/MSDK/lwip/lwip-2.1.2/src/core\raw.c ****     }
 541              		.loc 1 474 7 is_stmt 1
 542 0092 A685     		mv	a1,s1
 543 0094 97000000 		call	pbuf_chain
 543      E7800000 
 544              	.LVL49:
 545              	.L49:
 503:C:/Users/stapi/OneDrive/Desktop/GD32VW553/GD32VW55X_Wifi_BLE_SDK/GD32VW55x_RELEASE_V1.0.2/MSDK/lwip/lwip-2.1.2/src/core\raw.c ****     q->flags |= PBUF_FLAG_MCASTLOOP;
 546              		.loc 1 503 3
 503:C:/Users/stapi/OneDrive/Desktop/GD32VW553/GD32VW55X_Wifi_BLE_SDK/GD32VW55x_RELEASE_V1.0.2/MSDK/lwip/lwip-2.1.2/src/core\raw.c ****     q->flags |= PBUF_FLAG_MCASTLOOP;
 547              		.loc 1 503 6 is_stmt 0
 548 009c 03471401 		lbu	a4,17(s0)
 503:C:/Users/stapi/OneDrive/Desktop/GD32VW553/GD32VW55X_Wifi_BLE_SDK/GD32VW55x_RELEASE_V1.0.2/MSDK/lwip/lwip-2.1.2/src/core\raw.c ****     q->flags |= PBUF_FLAG_MCASTLOOP;
 549              		.loc 1 503 57
 550 00a0 83270A00 		lw	a5,0(s4)
 503:C:/Users/stapi/OneDrive/Desktop/GD32VW553/GD32VW55X_Wifi_BLE_SDK/GD32VW55x_RELEASE_V1.0.2/MSDK/lwip/lwip-2.1.2/src/core\raw.c ****     q->flags |= PBUF_FLAG_MCASTLOOP;
 551              		.loc 1 503 6
 552 00a4 118B     		andi	a4,a4,4
 503:C:/Users/stapi/OneDrive/Desktop/GD32VW553/GD32VW55X_Wifi_BLE_SDK/GD32VW55x_RELEASE_V1.0.2/MSDK/lwip/lwip-2.1.2/src/core\raw.c ****     q->flags |= PBUF_FLAG_MCASTLOOP;
 553              		.loc 1 503 57
 554 00a6 93F7070F 		andi	a5,a5,240
 503:C:/Users/stapi/OneDrive/Desktop/GD32VW553/GD32VW55X_Wifi_BLE_SDK/GD32VW55x_RELEASE_V1.0.2/MSDK/lwip/lwip-2.1.2/src/core\raw.c ****     q->flags |= PBUF_FLAG_MCASTLOOP;
 555              		.loc 1 503 6
 556 00aa 2DCF     		beq	a4,zero,.L51
 503:C:/Users/stapi/OneDrive/Desktop/GD32VW553/GD32VW55X_Wifi_BLE_SDK/GD32VW55x_RELEASE_V1.0.2/MSDK/lwip/lwip-2.1.2/src/core\raw.c ****     q->flags |= PBUF_FLAG_MCASTLOOP;
 557              		.loc 1 503 54 discriminator 1
 558 00ac 1307000E 		li	a4,224
 559 00b0 639EE706 		bne	a5,a4,.L52
 504:C:/Users/stapi/OneDrive/Desktop/GD32VW553/GD32VW55X_Wifi_BLE_SDK/GD32VW55x_RELEASE_V1.0.2/MSDK/lwip/lwip-2.1.2/src/core\raw.c ****   }
 560              		.loc 1 504 5 is_stmt 1
 504:C:/Users/stapi/OneDrive/Desktop/GD32VW553/GD32VW55X_Wifi_BLE_SDK/GD32VW55x_RELEASE_V1.0.2/MSDK/lwip/lwip-2.1.2/src/core\raw.c ****   }
 561              		.loc 1 504 14 is_stmt 0
 562 00b4 8347D900 		lbu	a5,13(s2)
 563 00b8 93E74700 		ori	a5,a5,4
 564 00bc A306F900 		sb	a5,13(s2)
 520:C:/Users/stapi/OneDrive/Desktop/GD32VW553/GD32VW55X_Wifi_BLE_SDK/GD32VW55x_RELEASE_V1.0.2/MSDK/lwip/lwip-2.1.2/src/core\raw.c **** #else /* LWIP_MULTICAST_TX_OPTIONS */
 565              		.loc 1 520 3 is_stmt 1
 566              	.L53:
 520:C:/Users/stapi/OneDrive/Desktop/GD32VW553/GD32VW55X_Wifi_BLE_SDK/GD32VW55x_RELEASE_V1.0.2/MSDK/lwip/lwip-2.1.2/src/core\raw.c **** #else /* LWIP_MULTICAST_TX_OPTIONS */
 567              		.loc 1 520 7 is_stmt 0 discriminator 1
 568 00c0 83463401 		lbu	a3,19(s0)
 569              	.L54:
 570              	.LVL50:
 525:C:/Users/stapi/OneDrive/Desktop/GD32VW553/GD32VW55X_Wifi_BLE_SDK/GD32VW55x_RELEASE_V1.0.2/MSDK/lwip/lwip-2.1.2/src/core\raw.c ****   err = ip_output_if(q, src_ip, dst_ip, ttl, pcb->tos, pcb->protocol, netif);
 571              		.loc 1 525 44 is_stmt 1 discriminator 4
 526:C:/Users/stapi/OneDrive/Desktop/GD32VW553/GD32VW55X_Wifi_BLE_SDK/GD32VW55x_RELEASE_V1.0.2/MSDK/lwip/lwip-2.1.2/src/core\raw.c ****   NETIF_RESET_HINTS(netif);
 572              		.loc 1 526 3 discriminator 4
 526:C:/Users/stapi/OneDrive/Desktop/GD32VW553/GD32VW55X_Wifi_BLE_SDK/GD32VW55x_RELEASE_V1.0.2/MSDK/lwip/lwip-2.1.2/src/core\raw.c ****   NETIF_RESET_HINTS(netif);
 573              		.loc 1 526 9 is_stmt 0 discriminator 4
 574 00c4 83470401 		lbu	a5,16(s0)
 575 00c8 0347A400 		lbu	a4,10(s0)
 576 00cc 5688     		mv	a6,s5
 577 00ce 5286     		mv	a2,s4
 578 00d0 CE85     		mv	a1,s3
 579 00d2 4A85     		mv	a0,s2
 580 00d4 97000000 		call	ip4_output_if
 580      E7800000 
 581              	.LVL51:
 582 00dc 2A84     		mv	s0,a0
 583              	.LVL52:
 527:C:/Users/stapi/OneDrive/Desktop/GD32VW553/GD32VW55X_Wifi_BLE_SDK/GD32VW55x_RELEASE_V1.0.2/MSDK/lwip/lwip-2.1.2/src/core\raw.c **** 
 584              		.loc 1 527 27 is_stmt 1 discriminator 4
 530:C:/Users/stapi/OneDrive/Desktop/GD32VW553/GD32VW55X_Wifi_BLE_SDK/GD32VW55x_RELEASE_V1.0.2/MSDK/lwip/lwip-2.1.2/src/core\raw.c ****     /* free the header */
 585              		.loc 1 530 3 discriminator 4
 530:C:/Users/stapi/OneDrive/Desktop/GD32VW553/GD32VW55X_Wifi_BLE_SDK/GD32VW55x_RELEASE_V1.0.2/MSDK/lwip/lwip-2.1.2/src/core\raw.c ****     /* free the header */
 586              		.loc 1 530 6 is_stmt 0 discriminator 4
 587 00de E30899F6 		beq	s2,s1,.L44
 532:C:/Users/stapi/OneDrive/Desktop/GD32VW553/GD32VW55X_Wifi_BLE_SDK/GD32VW55x_RELEASE_V1.0.2/MSDK/lwip/lwip-2.1.2/src/core\raw.c ****   }
 588              		.loc 1 532 5 is_stmt 1
 589 00e2 4A85     		mv	a0,s2
 590 00e4 97000000 		call	pbuf_free
 590      E7800000 
 591              	.LVL53:
 592 00ec 8DB7     		j	.L44
 593              	.LVL54:
 594              	.L47:
 480:C:/Users/stapi/OneDrive/Desktop/GD32VW553/GD32VW55X_Wifi_BLE_SDK/GD32VW55x_RELEASE_V1.0.2/MSDK/lwip/lwip-2.1.2/src/core\raw.c ****     if (pbuf_remove_header(q, header_size)) {
 595              		.loc 1 480 5
 481:C:/Users/stapi/OneDrive/Desktop/GD32VW553/GD32VW55X_Wifi_BLE_SDK/GD32VW55x_RELEASE_V1.0.2/MSDK/lwip/lwip-2.1.2/src/core\raw.c ****       LWIP_ASSERT("Can't restore header we just removed!", 0);
 596              		.loc 1 481 5
 481:C:/Users/stapi/OneDrive/Desktop/GD32VW553/GD32VW55X_Wifi_BLE_SDK/GD32VW55x_RELEASE_V1.0.2/MSDK/lwip/lwip-2.1.2/src/core\raw.c ****       LWIP_ASSERT("Can't restore header we just removed!", 0);
 597              		.loc 1 481 9 is_stmt 0
 598 00ee D145     		li	a1,20
 599 00f0 2685     		mv	a0,s1
 600 00f2 97000000 		call	pbuf_remove_header
 600      E7800000 
 601              	.LVL55:
 602 00fa 2689     		mv	s2,s1
 481:C:/Users/stapi/OneDrive/Desktop/GD32VW553/GD32VW55X_Wifi_BLE_SDK/GD32VW55x_RELEASE_V1.0.2/MSDK/lwip/lwip-2.1.2/src/core\raw.c ****       LWIP_ASSERT("Can't restore header we just removed!", 0);
 603              		.loc 1 481 8
 604 00fc 45D1     		beq	a0,zero,.L49
 482:C:/Users/stapi/OneDrive/Desktop/GD32VW553/GD32VW55X_Wifi_BLE_SDK/GD32VW55x_RELEASE_V1.0.2/MSDK/lwip/lwip-2.1.2/src/core\raw.c ****       return ERR_MEM;
 605              		.loc 1 482 7 is_stmt 1 discriminator 1
 482:C:/Users/stapi/OneDrive/Desktop/GD32VW553/GD32VW55X_Wifi_BLE_SDK/GD32VW55x_RELEASE_V1.0.2/MSDK/lwip/lwip-2.1.2/src/core\raw.c ****       return ERR_MEM;
 606              		.loc 1 482 7 discriminator 1
 482:C:/Users/stapi/OneDrive/Desktop/GD32VW553/GD32VW55X_Wifi_BLE_SDK/GD32VW55x_RELEASE_V1.0.2/MSDK/lwip/lwip-2.1.2/src/core\raw.c ****       return ERR_MEM;
 607              		.loc 1 482 7 discriminator 1
 482:C:/Users/stapi/OneDrive/Desktop/GD32VW553/GD32VW55X_Wifi_BLE_SDK/GD32VW55x_RELEASE_V1.0.2/MSDK/lwip/lwip-2.1.2/src/core\raw.c ****       return ERR_MEM;
 608              		.loc 1 482 7 discriminator 1
 609 00fe B7060000 		lui	a3,%hi(.LC0)
 610 0102 B7050000 		lui	a1,%hi(.LC3)
 611 0106 37050000 		lui	a0,%hi(.LC2)
 612 010a 93860600 		addi	a3,a3,%lo(.LC0)
 613 010e 1306201E 		li	a2,482
 614 0112 93850500 		addi	a1,a1,%lo(.LC3)
 615 0116 13050500 		addi	a0,a0,%lo(.LC2)
 616 011a 97000000 		call	printf
 616      E7800000 
 617              	.LVL56:
 618              	.L50:
 482:C:/Users/stapi/OneDrive/Desktop/GD32VW553/GD32VW55X_Wifi_BLE_SDK/GD32VW55x_RELEASE_V1.0.2/MSDK/lwip/lwip-2.1.2/src/core\raw.c ****       return ERR_MEM;
 619              		.loc 1 482 7 discriminator 1
 482:C:/Users/stapi/OneDrive/Desktop/GD32VW553/GD32VW55X_Wifi_BLE_SDK/GD32VW55x_RELEASE_V1.0.2/MSDK/lwip/lwip-2.1.2/src/core\raw.c ****       return ERR_MEM;
 620              		.loc 1 482 7 discriminator 1
 482:C:/Users/stapi/OneDrive/Desktop/GD32VW553/GD32VW55X_Wifi_BLE_SDK/GD32VW55x_RELEASE_V1.0.2/MSDK/lwip/lwip-2.1.2/src/core\raw.c ****       return ERR_MEM;
 621              		.loc 1 482 7 discriminator 1
 622 0122 01A0     		j	.L50
 623              	.LVL57:
 624              	.L51:
 520:C:/Users/stapi/OneDrive/Desktop/GD32VW553/GD32VW55X_Wifi_BLE_SDK/GD32VW55x_RELEASE_V1.0.2/MSDK/lwip/lwip-2.1.2/src/core\raw.c **** #else /* LWIP_MULTICAST_TX_OPTIONS */
 625              		.loc 1 520 3
 520:C:/Users/stapi/OneDrive/Desktop/GD32VW553/GD32VW55X_Wifi_BLE_SDK/GD32VW55x_RELEASE_V1.0.2/MSDK/lwip/lwip-2.1.2/src/core\raw.c **** #else /* LWIP_MULTICAST_TX_OPTIONS */
 626              		.loc 1 520 7 is_stmt 0
 627 0124 1307000E 		li	a4,224
 628 0128 E38CE7F8 		beq	a5,a4,.L53
 629              	.L52:
 520:C:/Users/stapi/OneDrive/Desktop/GD32VW553/GD32VW55X_Wifi_BLE_SDK/GD32VW55x_RELEASE_V1.0.2/MSDK/lwip/lwip-2.1.2/src/core\raw.c **** #else /* LWIP_MULTICAST_TX_OPTIONS */
 630              		.loc 1 520 7 discriminator 2
 631 012c 8346B400 		lbu	a3,11(s0)
 632 0130 51BF     		j	.L54
 633              	.LVL58:
 634              	.L58:
 432:C:/Users/stapi/OneDrive/Desktop/GD32VW553/GD32VW55X_Wifi_BLE_SDK/GD32VW55x_RELEASE_V1.0.2/MSDK/lwip/lwip-2.1.2/src/core\raw.c ****   }
 635              		.loc 1 432 12
 636 0132 6954     		li	s0,-6
 637 0134 29BF     		j	.L44
 638              		.cfi_endproc
 639              	.LFE12:
 641              		.section	.text.raw_sendto,"ax",@progbits
 642              		.align	1
 643              		.globl	raw_sendto
 645              	raw_sendto:
 646              	.LFB11:
 355:C:/Users/stapi/OneDrive/Desktop/GD32VW553/GD32VW55X_Wifi_BLE_SDK/GD32VW55x_RELEASE_V1.0.2/MSDK/lwip/lwip-2.1.2/src/core\raw.c ****   struct netif *netif;
 647              		.loc 1 355 1 is_stmt 1
 648              		.cfi_startproc
 649              	.LVL59:
 356:C:/Users/stapi/OneDrive/Desktop/GD32VW553/GD32VW55X_Wifi_BLE_SDK/GD32VW55x_RELEASE_V1.0.2/MSDK/lwip/lwip-2.1.2/src/core\raw.c ****   const ip_addr_t *src_ip;
 650              		.loc 1 356 3
 357:C:/Users/stapi/OneDrive/Desktop/GD32VW553/GD32VW55X_Wifi_BLE_SDK/GD32VW55x_RELEASE_V1.0.2/MSDK/lwip/lwip-2.1.2/src/core\raw.c **** 
 651              		.loc 1 357 3
 359:C:/Users/stapi/OneDrive/Desktop/GD32VW553/GD32VW55X_Wifi_BLE_SDK/GD32VW55x_RELEASE_V1.0.2/MSDK/lwip/lwip-2.1.2/src/core\raw.c ****     return ERR_VAL;
 652              		.loc 1 359 3
 359:C:/Users/stapi/OneDrive/Desktop/GD32VW553/GD32VW55X_Wifi_BLE_SDK/GD32VW55x_RELEASE_V1.0.2/MSDK/lwip/lwip-2.1.2/src/core\raw.c ****     return ERR_VAL;
 653              		.loc 1 359 6 is_stmt 0
 654 0000 49C1     		beq	a0,zero,.L78
 355:C:/Users/stapi/OneDrive/Desktop/GD32VW553/GD32VW55X_Wifi_BLE_SDK/GD32VW55x_RELEASE_V1.0.2/MSDK/lwip/lwip-2.1.2/src/core\raw.c ****   struct netif *netif;
 655              		.loc 1 355 1 discriminator 1
 656 0002 17030000 		call	t0,__riscv_save_3
 656      E7020300 
 657              		.cfi_offset 18, -16
 658              		.cfi_offset 9, -12
 659              		.cfi_offset 8, -8
 660              		.cfi_offset 1, -4
 661              		.cfi_def_cfa_offset 16
 662 000a 2A84     		mv	s0,a0
 663 000c B284     		mv	s1,a2
 360:C:/Users/stapi/OneDrive/Desktop/GD32VW553/GD32VW55X_Wifi_BLE_SDK/GD32VW55x_RELEASE_V1.0.2/MSDK/lwip/lwip-2.1.2/src/core\raw.c ****   }
 664              		.loc 1 360 12 discriminator 1
 665 000e 6955     		li	a0,-6
 666              	.LVL60:
 359:C:/Users/stapi/OneDrive/Desktop/GD32VW553/GD32VW55X_Wifi_BLE_SDK/GD32VW55x_RELEASE_V1.0.2/MSDK/lwip/lwip-2.1.2/src/core\raw.c ****     return ERR_VAL;
 667              		.loc 1 359 41 discriminator 1
 668 0010 05CE     		beq	a2,zero,.L70
 365:C:/Users/stapi/OneDrive/Desktop/GD32VW553/GD32VW55X_Wifi_BLE_SDK/GD32VW55x_RELEASE_V1.0.2/MSDK/lwip/lwip-2.1.2/src/core\raw.c ****     netif = netif_get_by_index(pcb->netif_idx);
 669              		.loc 1 365 10
 670 0012 03458400 		lbu	a0,8(s0)
 671 0016 2E89     		mv	s2,a1
 363:C:/Users/stapi/OneDrive/Desktop/GD32VW553/GD32VW55X_Wifi_BLE_SDK/GD32VW55x_RELEASE_V1.0.2/MSDK/lwip/lwip-2.1.2/src/core\raw.c **** 
 672              		.loc 1 363 60 is_stmt 1
 365:C:/Users/stapi/OneDrive/Desktop/GD32VW553/GD32VW55X_Wifi_BLE_SDK/GD32VW55x_RELEASE_V1.0.2/MSDK/lwip/lwip-2.1.2/src/core\raw.c ****     netif = netif_get_by_index(pcb->netif_idx);
 673              		.loc 1 365 3
 365:C:/Users/stapi/OneDrive/Desktop/GD32VW553/GD32VW55X_Wifi_BLE_SDK/GD32VW55x_RELEASE_V1.0.2/MSDK/lwip/lwip-2.1.2/src/core\raw.c ****     netif = netif_get_by_index(pcb->netif_idx);
 674              		.loc 1 365 6 is_stmt 0
 675 0018 05CD     		beq	a0,zero,.L71
 366:C:/Users/stapi/OneDrive/Desktop/GD32VW553/GD32VW55X_Wifi_BLE_SDK/GD32VW55x_RELEASE_V1.0.2/MSDK/lwip/lwip-2.1.2/src/core\raw.c ****   } else {
 676              		.loc 1 366 5 is_stmt 1
 366:C:/Users/stapi/OneDrive/Desktop/GD32VW553/GD32VW55X_Wifi_BLE_SDK/GD32VW55x_RELEASE_V1.0.2/MSDK/lwip/lwip-2.1.2/src/core\raw.c ****   } else {
 677              		.loc 1 366 13 is_stmt 0
 678 001a 97000000 		call	netif_get_by_index
 678      E7800000 
 679              	.LVL61:
 680              	.L91:
 380:C:/Users/stapi/OneDrive/Desktop/GD32VW553/GD32VW55X_Wifi_BLE_SDK/GD32VW55x_RELEASE_V1.0.2/MSDK/lwip/lwip-2.1.2/src/core\raw.c ****     }
 681              		.loc 1 380 15
 682 0022 AA86     		mv	a3,a0
 683              	.LVL62:
 384:C:/Users/stapi/OneDrive/Desktop/GD32VW553/GD32VW55X_Wifi_BLE_SDK/GD32VW55x_RELEASE_V1.0.2/MSDK/lwip/lwip-2.1.2/src/core\raw.c ****     LWIP_DEBUGF(RAW_DEBUG | LWIP_DBG_LEVEL_WARNING, ("raw_sendto: No route to "));
 684              		.loc 1 384 3 is_stmt 1
 387:C:/Users/stapi/OneDrive/Desktop/GD32VW553/GD32VW55X_Wifi_BLE_SDK/GD32VW55x_RELEASE_V1.0.2/MSDK/lwip/lwip-2.1.2/src/core\raw.c ****   }
 685              		.loc 1 387 12 is_stmt 0
 686 0024 7155     		li	a0,-4
 687              	.LVL63:
 384:C:/Users/stapi/OneDrive/Desktop/GD32VW553/GD32VW55X_Wifi_BLE_SDK/GD32VW55x_RELEASE_V1.0.2/MSDK/lwip/lwip-2.1.2/src/core\raw.c ****     LWIP_DEBUGF(RAW_DEBUG | LWIP_DBG_LEVEL_WARNING, ("raw_sendto: No route to "));
 688              		.loc 1 384 6
 689 0026 8DC2     		beq	a3,zero,.L70
 690              	.L75:
 390:C:/Users/stapi/OneDrive/Desktop/GD32VW553/GD32VW55X_Wifi_BLE_SDK/GD32VW55x_RELEASE_V1.0.2/MSDK/lwip/lwip-2.1.2/src/core\raw.c ****     /* use outgoing network interface IP address as source address */
 691              		.loc 1 390 3 is_stmt 1
 390:C:/Users/stapi/OneDrive/Desktop/GD32VW553/GD32VW55X_Wifi_BLE_SDK/GD32VW55x_RELEASE_V1.0.2/MSDK/lwip/lwip-2.1.2/src/core\raw.c ****     /* use outgoing network interface IP address as source address */
 692              		.loc 1 390 7 is_stmt 0
 693 0028 1C40     		lw	a5,0(s0)
 694 002a A9CB     		beq	a5,zero,.L76
 390:C:/Users/stapi/OneDrive/Desktop/GD32VW553/GD32VW55X_Wifi_BLE_SDK/GD32VW55x_RELEASE_V1.0.2/MSDK/lwip/lwip-2.1.2/src/core\raw.c ****     /* use outgoing network interface IP address as source address */
 695              		.loc 1 390 40 discriminator 2
 696 002c 93F7070F 		andi	a5,a5,240
 390:C:/Users/stapi/OneDrive/Desktop/GD32VW553/GD32VW55X_Wifi_BLE_SDK/GD32VW55x_RELEASE_V1.0.2/MSDK/lwip/lwip-2.1.2/src/core\raw.c ****     /* use outgoing network interface IP address as source address */
 697              		.loc 1 390 37 discriminator 2
 698 0030 1307000E 		li	a4,224
 699 0034 6384E704 		beq	a5,a4,.L76
 390:C:/Users/stapi/OneDrive/Desktop/GD32VW553/GD32VW55X_Wifi_BLE_SDK/GD32VW55x_RELEASE_V1.0.2/MSDK/lwip/lwip-2.1.2/src/core\raw.c ****     /* use outgoing network interface IP address as source address */
 700              		.loc 1 390 7
 701 0038 2287     		mv	a4,s0
 702              	.L77:
 703              	.LVL64:
 403:C:/Users/stapi/OneDrive/Desktop/GD32VW553/GD32VW55X_Wifi_BLE_SDK/GD32VW55x_RELEASE_V1.0.2/MSDK/lwip/lwip-2.1.2/src/core\raw.c **** }
 704              		.loc 1 403 3 is_stmt 1
 403:C:/Users/stapi/OneDrive/Desktop/GD32VW553/GD32VW55X_Wifi_BLE_SDK/GD32VW55x_RELEASE_V1.0.2/MSDK/lwip/lwip-2.1.2/src/core\raw.c **** }
 705              		.loc 1 403 10 is_stmt 0
 706 003a 2686     		mv	a2,s1
 707 003c CA85     		mv	a1,s2
 708 003e 2285     		mv	a0,s0
 709 0040 97000000 		call	raw_sendto_if_src
 709      E7800000 
 710              	.LVL65:
 711              	.L70:
 404:C:/Users/stapi/OneDrive/Desktop/GD32VW553/GD32VW55X_Wifi_BLE_SDK/GD32VW55x_RELEASE_V1.0.2/MSDK/lwip/lwip-2.1.2/src/core\raw.c **** 
 712              		.loc 1 404 1
 713 0048 17030000 		tail	__riscv_restore_3
 713      67000300 
 714              		.cfi_remember_state
 715              		.cfi_restore 18
 716              		.cfi_restore 9
 717              		.cfi_restore 8
 718              		.cfi_restore 1
 719              		.cfi_def_cfa_offset 0
 720              	.LVL66:
 721              	.L71:
 722              		.cfi_restore_state
 369:C:/Users/stapi/OneDrive/Desktop/GD32VW553/GD32VW55X_Wifi_BLE_SDK/GD32VW55x_RELEASE_V1.0.2/MSDK/lwip/lwip-2.1.2/src/core\raw.c ****     if (ip_addr_ismulticast(ipaddr)) {
 723              		.loc 1 369 5 is_stmt 1
 370:C:/Users/stapi/OneDrive/Desktop/GD32VW553/GD32VW55X_Wifi_BLE_SDK/GD32VW55x_RELEASE_V1.0.2/MSDK/lwip/lwip-2.1.2/src/core\raw.c ****       /* For multicast-destined packets, use the user-provided interface index to
 724              		.loc 1 370 5
 370:C:/Users/stapi/OneDrive/Desktop/GD32VW553/GD32VW55X_Wifi_BLE_SDK/GD32VW55x_RELEASE_V1.0.2/MSDK/lwip/lwip-2.1.2/src/core\raw.c ****       /* For multicast-destined packets, use the user-provided interface index to
 725              		.loc 1 370 9 is_stmt 0
 726 0050 1C42     		lw	a5,0(a2)
 370:C:/Users/stapi/OneDrive/Desktop/GD32VW553/GD32VW55X_Wifi_BLE_SDK/GD32VW55x_RELEASE_V1.0.2/MSDK/lwip/lwip-2.1.2/src/core\raw.c ****       /* For multicast-destined packets, use the user-provided interface index to
 727              		.loc 1 370 8
 728 0052 1307000E 		li	a4,224
 370:C:/Users/stapi/OneDrive/Desktop/GD32VW553/GD32VW55X_Wifi_BLE_SDK/GD32VW55x_RELEASE_V1.0.2/MSDK/lwip/lwip-2.1.2/src/core\raw.c ****       /* For multicast-destined packets, use the user-provided interface index to
 729              		.loc 1 370 9
 730 0056 93F7070F 		andi	a5,a5,240
 370:C:/Users/stapi/OneDrive/Desktop/GD32VW553/GD32VW55X_Wifi_BLE_SDK/GD32VW55x_RELEASE_V1.0.2/MSDK/lwip/lwip-2.1.2/src/core\raw.c ****       /* For multicast-destined packets, use the user-provided interface index to
 731              		.loc 1 370 8
 732 005a 6388E700 		beq	a5,a4,.L73
 733              	.LVL67:
 734              	.L74:
 380:C:/Users/stapi/OneDrive/Desktop/GD32VW553/GD32VW55X_Wifi_BLE_SDK/GD32VW55x_RELEASE_V1.0.2/MSDK/lwip/lwip-2.1.2/src/core\raw.c ****     }
 735              		.loc 1 380 7 is_stmt 1
 380:C:/Users/stapi/OneDrive/Desktop/GD32VW553/GD32VW55X_Wifi_BLE_SDK/GD32VW55x_RELEASE_V1.0.2/MSDK/lwip/lwip-2.1.2/src/core\raw.c ****     }
 736              		.loc 1 380 15 is_stmt 0
 737 005e 2685     		mv	a0,s1
 738 0060 97000000 		call	ip4_route
 738      E7800000 
 739              	.LVL68:
 740 0068 6DBF     		j	.L91
 741              	.LVL69:
 742              	.L73:
 374:C:/Users/stapi/OneDrive/Desktop/GD32VW553/GD32VW55X_Wifi_BLE_SDK/GD32VW55x_RELEASE_V1.0.2/MSDK/lwip/lwip-2.1.2/src/core\raw.c ****     }
 743              		.loc 1 374 7 is_stmt 1
 374:C:/Users/stapi/OneDrive/Desktop/GD32VW553/GD32VW55X_Wifi_BLE_SDK/GD32VW55x_RELEASE_V1.0.2/MSDK/lwip/lwip-2.1.2/src/core\raw.c ****     }
 744              		.loc 1 374 15 is_stmt 0
 745 006a 03452401 		lbu	a0,18(s0)
 746 006e 97000000 		call	netif_get_by_index
 746      E7800000 
 747              	.LVL70:
 748 0076 AA86     		mv	a3,a0
 749              	.LVL71:
 377:C:/Users/stapi/OneDrive/Desktop/GD32VW553/GD32VW55X_Wifi_BLE_SDK/GD32VW55x_RELEASE_V1.0.2/MSDK/lwip/lwip-2.1.2/src/core\raw.c **** #endif /* LWIP_MULTICAST_TX_OPTIONS */
 750              		.loc 1 377 5 is_stmt 1
 377:C:/Users/stapi/OneDrive/Desktop/GD32VW553/GD32VW55X_Wifi_BLE_SDK/GD32VW55x_RELEASE_V1.0.2/MSDK/lwip/lwip-2.1.2/src/core\raw.c **** #endif /* LWIP_MULTICAST_TX_OPTIONS */
 751              		.loc 1 377 8 is_stmt 0
 752 0078 45F9     		bne	a0,zero,.L75
 753 007a D5B7     		j	.L74
 754              	.LVL72:
 755              	.L76:
 392:C:/Users/stapi/OneDrive/Desktop/GD32VW553/GD32VW55X_Wifi_BLE_SDK/GD32VW55x_RELEASE_V1.0.2/MSDK/lwip/lwip-2.1.2/src/core\raw.c **** #if LWIP_IPV6
 756              		.loc 1 392 5 is_stmt 1 discriminator 1
 392:C:/Users/stapi/OneDrive/Desktop/GD32VW553/GD32VW55X_Wifi_BLE_SDK/GD32VW55x_RELEASE_V1.0.2/MSDK/lwip/lwip-2.1.2/src/core\raw.c **** #if LWIP_IPV6
 757              		.loc 1 392 14 is_stmt 0 discriminator 1
 758 007c 13874600 		addi	a4,a3,4
 759              	.LVL73:
 392:C:/Users/stapi/OneDrive/Desktop/GD32VW553/GD32VW55X_Wifi_BLE_SDK/GD32VW55x_RELEASE_V1.0.2/MSDK/lwip/lwip-2.1.2/src/core\raw.c **** #if LWIP_IPV6
 760              		.loc 1 392 12 discriminator 1
 761 0080 6DBF     		j	.L77
 762              	.LVL74:
 763              	.L78:
 764              		.cfi_def_cfa_offset 0
 765              		.cfi_restore 1
 766              		.cfi_restore 8
 767              		.cfi_restore 9
 768              		.cfi_restore 18
 360:C:/Users/stapi/OneDrive/Desktop/GD32VW553/GD32VW55X_Wifi_BLE_SDK/GD32VW55x_RELEASE_V1.0.2/MSDK/lwip/lwip-2.1.2/src/core\raw.c ****   }
 769              		.loc 1 360 12
 770 0082 6955     		li	a0,-6
 771              	.LVL75:
 404:C:/Users/stapi/OneDrive/Desktop/GD32VW553/GD32VW55X_Wifi_BLE_SDK/GD32VW55x_RELEASE_V1.0.2/MSDK/lwip/lwip-2.1.2/src/core\raw.c **** 
 772              		.loc 1 404 1
 773 0084 8280     		ret
 774              		.cfi_endproc
 775              	.LFE11:
 777              		.section	.text.raw_send,"ax",@progbits
 778              		.align	1
 779              		.globl	raw_send
 781              	raw_send:
 782              	.LFB13:
 536:C:/Users/stapi/OneDrive/Desktop/GD32VW553/GD32VW55X_Wifi_BLE_SDK/GD32VW55x_RELEASE_V1.0.2/MSDK/lwip/lwip-2.1.2/src/core\raw.c **** 
 537:C:/Users/stapi/OneDrive/Desktop/GD32VW553/GD32VW55X_Wifi_BLE_SDK/GD32VW55x_RELEASE_V1.0.2/MSDK/lwip/lwip-2.1.2/src/core\raw.c **** /**
 538:C:/Users/stapi/OneDrive/Desktop/GD32VW553/GD32VW55X_Wifi_BLE_SDK/GD32VW55x_RELEASE_V1.0.2/MSDK/lwip/lwip-2.1.2/src/core\raw.c ****  * @ingroup raw_raw
 539:C:/Users/stapi/OneDrive/Desktop/GD32VW553/GD32VW55X_Wifi_BLE_SDK/GD32VW55x_RELEASE_V1.0.2/MSDK/lwip/lwip-2.1.2/src/core\raw.c ****  * Send the raw IP packet to the address given by raw_connect()
 540:C:/Users/stapi/OneDrive/Desktop/GD32VW553/GD32VW55X_Wifi_BLE_SDK/GD32VW55x_RELEASE_V1.0.2/MSDK/lwip/lwip-2.1.2/src/core\raw.c ****  *
 541:C:/Users/stapi/OneDrive/Desktop/GD32VW553/GD32VW55X_Wifi_BLE_SDK/GD32VW55x_RELEASE_V1.0.2/MSDK/lwip/lwip-2.1.2/src/core\raw.c ****  * @param pcb the raw pcb which to send
 542:C:/Users/stapi/OneDrive/Desktop/GD32VW553/GD32VW55X_Wifi_BLE_SDK/GD32VW55x_RELEASE_V1.0.2/MSDK/lwip/lwip-2.1.2/src/core\raw.c ****  * @param p the IP payload to send
 543:C:/Users/stapi/OneDrive/Desktop/GD32VW553/GD32VW55X_Wifi_BLE_SDK/GD32VW55x_RELEASE_V1.0.2/MSDK/lwip/lwip-2.1.2/src/core\raw.c ****  *
 544:C:/Users/stapi/OneDrive/Desktop/GD32VW553/GD32VW55X_Wifi_BLE_SDK/GD32VW55x_RELEASE_V1.0.2/MSDK/lwip/lwip-2.1.2/src/core\raw.c ****  */
 545:C:/Users/stapi/OneDrive/Desktop/GD32VW553/GD32VW55X_Wifi_BLE_SDK/GD32VW55x_RELEASE_V1.0.2/MSDK/lwip/lwip-2.1.2/src/core\raw.c **** err_t
 546:C:/Users/stapi/OneDrive/Desktop/GD32VW553/GD32VW55X_Wifi_BLE_SDK/GD32VW55x_RELEASE_V1.0.2/MSDK/lwip/lwip-2.1.2/src/core\raw.c **** raw_send(struct raw_pcb *pcb, struct pbuf *p)
 547:C:/Users/stapi/OneDrive/Desktop/GD32VW553/GD32VW55X_Wifi_BLE_SDK/GD32VW55x_RELEASE_V1.0.2/MSDK/lwip/lwip-2.1.2/src/core\raw.c **** {
 783              		.loc 1 547 1 is_stmt 1
 784              		.cfi_startproc
 785              	.LVL76:
 548:C:/Users/stapi/OneDrive/Desktop/GD32VW553/GD32VW55X_Wifi_BLE_SDK/GD32VW55x_RELEASE_V1.0.2/MSDK/lwip/lwip-2.1.2/src/core\raw.c ****   return raw_sendto(pcb, p, &pcb->remote_ip);
 786              		.loc 1 548 3
 787              		.loc 1 548 10 is_stmt 0
 788 0000 13064500 		addi	a2,a0,4
 789 0004 17030000 		tail	raw_sendto
 789      67000300 
 790              	.LVL77:
 791              		.cfi_endproc
 792              	.LFE13:
 794              		.section	.text.raw_remove,"ax",@progbits
 795              		.align	1
 796              		.globl	raw_remove
 798              	raw_remove:
 799              	.LFB14:
 549:C:/Users/stapi/OneDrive/Desktop/GD32VW553/GD32VW55X_Wifi_BLE_SDK/GD32VW55x_RELEASE_V1.0.2/MSDK/lwip/lwip-2.1.2/src/core\raw.c **** }
 550:C:/Users/stapi/OneDrive/Desktop/GD32VW553/GD32VW55X_Wifi_BLE_SDK/GD32VW55x_RELEASE_V1.0.2/MSDK/lwip/lwip-2.1.2/src/core\raw.c **** 
 551:C:/Users/stapi/OneDrive/Desktop/GD32VW553/GD32VW55X_Wifi_BLE_SDK/GD32VW55x_RELEASE_V1.0.2/MSDK/lwip/lwip-2.1.2/src/core\raw.c **** /**
 552:C:/Users/stapi/OneDrive/Desktop/GD32VW553/GD32VW55X_Wifi_BLE_SDK/GD32VW55x_RELEASE_V1.0.2/MSDK/lwip/lwip-2.1.2/src/core\raw.c ****  * @ingroup raw_raw
 553:C:/Users/stapi/OneDrive/Desktop/GD32VW553/GD32VW55X_Wifi_BLE_SDK/GD32VW55x_RELEASE_V1.0.2/MSDK/lwip/lwip-2.1.2/src/core\raw.c ****  * Remove an RAW PCB.
 554:C:/Users/stapi/OneDrive/Desktop/GD32VW553/GD32VW55X_Wifi_BLE_SDK/GD32VW55x_RELEASE_V1.0.2/MSDK/lwip/lwip-2.1.2/src/core\raw.c ****  *
 555:C:/Users/stapi/OneDrive/Desktop/GD32VW553/GD32VW55X_Wifi_BLE_SDK/GD32VW55x_RELEASE_V1.0.2/MSDK/lwip/lwip-2.1.2/src/core\raw.c ****  * @param pcb RAW PCB to be removed. The PCB is removed from the list of
 556:C:/Users/stapi/OneDrive/Desktop/GD32VW553/GD32VW55X_Wifi_BLE_SDK/GD32VW55x_RELEASE_V1.0.2/MSDK/lwip/lwip-2.1.2/src/core\raw.c ****  * RAW PCB's and the data structure is freed from memory.
 557:C:/Users/stapi/OneDrive/Desktop/GD32VW553/GD32VW55X_Wifi_BLE_SDK/GD32VW55x_RELEASE_V1.0.2/MSDK/lwip/lwip-2.1.2/src/core\raw.c ****  *
 558:C:/Users/stapi/OneDrive/Desktop/GD32VW553/GD32VW55X_Wifi_BLE_SDK/GD32VW55x_RELEASE_V1.0.2/MSDK/lwip/lwip-2.1.2/src/core\raw.c ****  * @see raw_new()
 559:C:/Users/stapi/OneDrive/Desktop/GD32VW553/GD32VW55X_Wifi_BLE_SDK/GD32VW55x_RELEASE_V1.0.2/MSDK/lwip/lwip-2.1.2/src/core\raw.c ****  */
 560:C:/Users/stapi/OneDrive/Desktop/GD32VW553/GD32VW55X_Wifi_BLE_SDK/GD32VW55x_RELEASE_V1.0.2/MSDK/lwip/lwip-2.1.2/src/core\raw.c **** void
 561:C:/Users/stapi/OneDrive/Desktop/GD32VW553/GD32VW55X_Wifi_BLE_SDK/GD32VW55x_RELEASE_V1.0.2/MSDK/lwip/lwip-2.1.2/src/core\raw.c **** raw_remove(struct raw_pcb *pcb)
 562:C:/Users/stapi/OneDrive/Desktop/GD32VW553/GD32VW55X_Wifi_BLE_SDK/GD32VW55x_RELEASE_V1.0.2/MSDK/lwip/lwip-2.1.2/src/core\raw.c **** {
 800              		.loc 1 562 1 is_stmt 1
 801              		.cfi_startproc
 802              	.LVL78:
 563:C:/Users/stapi/OneDrive/Desktop/GD32VW553/GD32VW55X_Wifi_BLE_SDK/GD32VW55x_RELEASE_V1.0.2/MSDK/lwip/lwip-2.1.2/src/core\raw.c ****   struct raw_pcb *pcb2;
 803              		.loc 1 563 3
 564:C:/Users/stapi/OneDrive/Desktop/GD32VW553/GD32VW55X_Wifi_BLE_SDK/GD32VW55x_RELEASE_V1.0.2/MSDK/lwip/lwip-2.1.2/src/core\raw.c ****   LWIP_ASSERT_CORE_LOCKED();
 804              		.loc 1 564 28
 565:C:/Users/stapi/OneDrive/Desktop/GD32VW553/GD32VW55X_Wifi_BLE_SDK/GD32VW55x_RELEASE_V1.0.2/MSDK/lwip/lwip-2.1.2/src/core\raw.c ****   /* pcb to be removed is first in list? */
 566:C:/Users/stapi/OneDrive/Desktop/GD32VW553/GD32VW55X_Wifi_BLE_SDK/GD32VW55x_RELEASE_V1.0.2/MSDK/lwip/lwip-2.1.2/src/core\raw.c ****   if (raw_pcbs == pcb) {
 805              		.loc 1 566 3
 806              		.loc 1 566 16 is_stmt 0
 807 0000 37070000 		lui	a4,%hi(.LANCHOR0)
 808 0004 13070700 		addi	a4,a4,%lo(.LANCHOR0)
 809 0008 1C43     		lw	a5,0(a4)
 562:C:/Users/stapi/OneDrive/Desktop/GD32VW553/GD32VW55X_Wifi_BLE_SDK/GD32VW55x_RELEASE_V1.0.2/MSDK/lwip/lwip-2.1.2/src/core\raw.c ****   struct raw_pcb *pcb2;
 810              		.loc 1 562 1
 811 000a AA85     		mv	a1,a0
 812              		.loc 1 566 6
 813 000c 639AA700 		bne	a5,a0,.L95
 567:C:/Users/stapi/OneDrive/Desktop/GD32VW553/GD32VW55X_Wifi_BLE_SDK/GD32VW55x_RELEASE_V1.0.2/MSDK/lwip/lwip-2.1.2/src/core\raw.c ****     /* make list start at 2nd pcb */
 568:C:/Users/stapi/OneDrive/Desktop/GD32VW553/GD32VW55X_Wifi_BLE_SDK/GD32VW55x_RELEASE_V1.0.2/MSDK/lwip/lwip-2.1.2/src/core\raw.c ****     raw_pcbs = raw_pcbs->next;
 814              		.loc 1 568 5 is_stmt 1
 815              		.loc 1 568 14 is_stmt 0
 816 0010 5C45     		lw	a5,12(a0)
 817 0012 1CC3     		sw	a5,0(a4)
 818              	.L96:
 569:C:/Users/stapi/OneDrive/Desktop/GD32VW553/GD32VW55X_Wifi_BLE_SDK/GD32VW55x_RELEASE_V1.0.2/MSDK/lwip/lwip-2.1.2/src/core\raw.c ****     /* pcb not 1st in list */
 570:C:/Users/stapi/OneDrive/Desktop/GD32VW553/GD32VW55X_Wifi_BLE_SDK/GD32VW55x_RELEASE_V1.0.2/MSDK/lwip/lwip-2.1.2/src/core\raw.c ****   } else {
 571:C:/Users/stapi/OneDrive/Desktop/GD32VW553/GD32VW55X_Wifi_BLE_SDK/GD32VW55x_RELEASE_V1.0.2/MSDK/lwip/lwip-2.1.2/src/core\raw.c ****     for (pcb2 = raw_pcbs; pcb2 != NULL; pcb2 = pcb2->next) {
 572:C:/Users/stapi/OneDrive/Desktop/GD32VW553/GD32VW55X_Wifi_BLE_SDK/GD32VW55x_RELEASE_V1.0.2/MSDK/lwip/lwip-2.1.2/src/core\raw.c ****       /* find pcb in raw_pcbs list */
 573:C:/Users/stapi/OneDrive/Desktop/GD32VW553/GD32VW55X_Wifi_BLE_SDK/GD32VW55x_RELEASE_V1.0.2/MSDK/lwip/lwip-2.1.2/src/core\raw.c ****       if (pcb2->next != NULL && pcb2->next == pcb) {
 574:C:/Users/stapi/OneDrive/Desktop/GD32VW553/GD32VW55X_Wifi_BLE_SDK/GD32VW55x_RELEASE_V1.0.2/MSDK/lwip/lwip-2.1.2/src/core\raw.c ****         /* remove pcb from list */
 575:C:/Users/stapi/OneDrive/Desktop/GD32VW553/GD32VW55X_Wifi_BLE_SDK/GD32VW55x_RELEASE_V1.0.2/MSDK/lwip/lwip-2.1.2/src/core\raw.c ****         pcb2->next = pcb->next;
 576:C:/Users/stapi/OneDrive/Desktop/GD32VW553/GD32VW55X_Wifi_BLE_SDK/GD32VW55x_RELEASE_V1.0.2/MSDK/lwip/lwip-2.1.2/src/core\raw.c ****         break;
 577:C:/Users/stapi/OneDrive/Desktop/GD32VW553/GD32VW55X_Wifi_BLE_SDK/GD32VW55x_RELEASE_V1.0.2/MSDK/lwip/lwip-2.1.2/src/core\raw.c ****       }
 578:C:/Users/stapi/OneDrive/Desktop/GD32VW553/GD32VW55X_Wifi_BLE_SDK/GD32VW55x_RELEASE_V1.0.2/MSDK/lwip/lwip-2.1.2/src/core\raw.c ****     }
 579:C:/Users/stapi/OneDrive/Desktop/GD32VW553/GD32VW55X_Wifi_BLE_SDK/GD32VW55x_RELEASE_V1.0.2/MSDK/lwip/lwip-2.1.2/src/core\raw.c ****   }
 580:C:/Users/stapi/OneDrive/Desktop/GD32VW553/GD32VW55X_Wifi_BLE_SDK/GD32VW55x_RELEASE_V1.0.2/MSDK/lwip/lwip-2.1.2/src/core\raw.c ****   memp_free(MEMP_RAW_PCB, pcb);
 819              		.loc 1 580 3 is_stmt 1
 820 0014 0145     		li	a0,0
 821              	.LVL79:
 822 0016 17030000 		tail	memp_free
 822      67000300 
 823              	.LVL80:
 824              	.L98:
 825 001e BA87     		mv	a5,a4
 826              	.LVL81:
 827              	.L95:
 571:C:/Users/stapi/OneDrive/Desktop/GD32VW553/GD32VW55X_Wifi_BLE_SDK/GD32VW55x_RELEASE_V1.0.2/MSDK/lwip/lwip-2.1.2/src/core\raw.c ****       /* find pcb in raw_pcbs list */
 828              		.loc 1 571 27 discriminator 1
 571:C:/Users/stapi/OneDrive/Desktop/GD32VW553/GD32VW55X_Wifi_BLE_SDK/GD32VW55x_RELEASE_V1.0.2/MSDK/lwip/lwip-2.1.2/src/core\raw.c ****       /* find pcb in raw_pcbs list */
 829              		.loc 1 571 5 is_stmt 0 discriminator 1
 830 0020 F5DB     		beq	a5,zero,.L96
 573:C:/Users/stapi/OneDrive/Desktop/GD32VW553/GD32VW55X_Wifi_BLE_SDK/GD32VW55x_RELEASE_V1.0.2/MSDK/lwip/lwip-2.1.2/src/core\raw.c ****         /* remove pcb from list */
 831              		.loc 1 573 7 is_stmt 1
 573:C:/Users/stapi/OneDrive/Desktop/GD32VW553/GD32VW55X_Wifi_BLE_SDK/GD32VW55x_RELEASE_V1.0.2/MSDK/lwip/lwip-2.1.2/src/core\raw.c ****         /* remove pcb from list */
 832              		.loc 1 573 15 is_stmt 0
 833 0022 D847     		lw	a4,12(a5)
 573:C:/Users/stapi/OneDrive/Desktop/GD32VW553/GD32VW55X_Wifi_BLE_SDK/GD32VW55x_RELEASE_V1.0.2/MSDK/lwip/lwip-2.1.2/src/core\raw.c ****         /* remove pcb from list */
 834              		.loc 1 573 10
 835 0024 65DB     		beq	a4,zero,.L96
 573:C:/Users/stapi/OneDrive/Desktop/GD32VW553/GD32VW55X_Wifi_BLE_SDK/GD32VW55x_RELEASE_V1.0.2/MSDK/lwip/lwip-2.1.2/src/core\raw.c ****         /* remove pcb from list */
 836              		.loc 1 573 30 discriminator 1
 837 0026 E31CB7FE 		bne	a4,a1,.L98
 575:C:/Users/stapi/OneDrive/Desktop/GD32VW553/GD32VW55X_Wifi_BLE_SDK/GD32VW55x_RELEASE_V1.0.2/MSDK/lwip/lwip-2.1.2/src/core\raw.c ****         break;
 838              		.loc 1 575 9 is_stmt 1
 575:C:/Users/stapi/OneDrive/Desktop/GD32VW553/GD32VW55X_Wifi_BLE_SDK/GD32VW55x_RELEASE_V1.0.2/MSDK/lwip/lwip-2.1.2/src/core\raw.c ****         break;
 839              		.loc 1 575 25 is_stmt 0
 840 002a D845     		lw	a4,12(a1)
 575:C:/Users/stapi/OneDrive/Desktop/GD32VW553/GD32VW55X_Wifi_BLE_SDK/GD32VW55x_RELEASE_V1.0.2/MSDK/lwip/lwip-2.1.2/src/core\raw.c ****         break;
 841              		.loc 1 575 20
 842 002c D8C7     		sw	a4,12(a5)
 576:C:/Users/stapi/OneDrive/Desktop/GD32VW553/GD32VW55X_Wifi_BLE_SDK/GD32VW55x_RELEASE_V1.0.2/MSDK/lwip/lwip-2.1.2/src/core\raw.c ****       }
 843              		.loc 1 576 9 is_stmt 1
 844 002e DDB7     		j	.L96
 845              		.cfi_endproc
 846              	.LFE14:
 848              		.section	.text.raw_new,"ax",@progbits
 849              		.align	1
 850              		.globl	raw_new
 852              	raw_new:
 853              	.LFB15:
 581:C:/Users/stapi/OneDrive/Desktop/GD32VW553/GD32VW55X_Wifi_BLE_SDK/GD32VW55x_RELEASE_V1.0.2/MSDK/lwip/lwip-2.1.2/src/core\raw.c **** }
 582:C:/Users/stapi/OneDrive/Desktop/GD32VW553/GD32VW55X_Wifi_BLE_SDK/GD32VW55x_RELEASE_V1.0.2/MSDK/lwip/lwip-2.1.2/src/core\raw.c **** 
 583:C:/Users/stapi/OneDrive/Desktop/GD32VW553/GD32VW55X_Wifi_BLE_SDK/GD32VW55x_RELEASE_V1.0.2/MSDK/lwip/lwip-2.1.2/src/core\raw.c **** /**
 584:C:/Users/stapi/OneDrive/Desktop/GD32VW553/GD32VW55X_Wifi_BLE_SDK/GD32VW55x_RELEASE_V1.0.2/MSDK/lwip/lwip-2.1.2/src/core\raw.c ****  * @ingroup raw_raw
 585:C:/Users/stapi/OneDrive/Desktop/GD32VW553/GD32VW55X_Wifi_BLE_SDK/GD32VW55x_RELEASE_V1.0.2/MSDK/lwip/lwip-2.1.2/src/core\raw.c ****  * Create a RAW PCB.
 586:C:/Users/stapi/OneDrive/Desktop/GD32VW553/GD32VW55X_Wifi_BLE_SDK/GD32VW55x_RELEASE_V1.0.2/MSDK/lwip/lwip-2.1.2/src/core\raw.c ****  *
 587:C:/Users/stapi/OneDrive/Desktop/GD32VW553/GD32VW55X_Wifi_BLE_SDK/GD32VW55x_RELEASE_V1.0.2/MSDK/lwip/lwip-2.1.2/src/core\raw.c ****  * @return The RAW PCB which was created. NULL if the PCB data structure
 588:C:/Users/stapi/OneDrive/Desktop/GD32VW553/GD32VW55X_Wifi_BLE_SDK/GD32VW55x_RELEASE_V1.0.2/MSDK/lwip/lwip-2.1.2/src/core\raw.c ****  * could not be allocated.
 589:C:/Users/stapi/OneDrive/Desktop/GD32VW553/GD32VW55X_Wifi_BLE_SDK/GD32VW55x_RELEASE_V1.0.2/MSDK/lwip/lwip-2.1.2/src/core\raw.c ****  *
 590:C:/Users/stapi/OneDrive/Desktop/GD32VW553/GD32VW55X_Wifi_BLE_SDK/GD32VW55x_RELEASE_V1.0.2/MSDK/lwip/lwip-2.1.2/src/core\raw.c ****  * @param proto the protocol number of the IPs payload (e.g. IP_PROTO_ICMP)
 591:C:/Users/stapi/OneDrive/Desktop/GD32VW553/GD32VW55X_Wifi_BLE_SDK/GD32VW55x_RELEASE_V1.0.2/MSDK/lwip/lwip-2.1.2/src/core\raw.c ****  *
 592:C:/Users/stapi/OneDrive/Desktop/GD32VW553/GD32VW55X_Wifi_BLE_SDK/GD32VW55x_RELEASE_V1.0.2/MSDK/lwip/lwip-2.1.2/src/core\raw.c ****  * @see raw_remove()
 593:C:/Users/stapi/OneDrive/Desktop/GD32VW553/GD32VW55X_Wifi_BLE_SDK/GD32VW55x_RELEASE_V1.0.2/MSDK/lwip/lwip-2.1.2/src/core\raw.c ****  */
 594:C:/Users/stapi/OneDrive/Desktop/GD32VW553/GD32VW55X_Wifi_BLE_SDK/GD32VW55x_RELEASE_V1.0.2/MSDK/lwip/lwip-2.1.2/src/core\raw.c **** struct raw_pcb *
 595:C:/Users/stapi/OneDrive/Desktop/GD32VW553/GD32VW55X_Wifi_BLE_SDK/GD32VW55x_RELEASE_V1.0.2/MSDK/lwip/lwip-2.1.2/src/core\raw.c **** raw_new(u8_t proto)
 596:C:/Users/stapi/OneDrive/Desktop/GD32VW553/GD32VW55X_Wifi_BLE_SDK/GD32VW55x_RELEASE_V1.0.2/MSDK/lwip/lwip-2.1.2/src/core\raw.c **** {
 854              		.loc 1 596 1
 855              		.cfi_startproc
 856              	.LVL82:
 857 0000 17030000 		call	t0,__riscv_save_2
 857      E7020300 
 858              		.cfi_offset 9, -12
 859              		.cfi_offset 8, -8
 860              		.cfi_offset 1, -4
 861              		.cfi_def_cfa_offset 16
 597:C:/Users/stapi/OneDrive/Desktop/GD32VW553/GD32VW55X_Wifi_BLE_SDK/GD32VW55x_RELEASE_V1.0.2/MSDK/lwip/lwip-2.1.2/src/core\raw.c ****   struct raw_pcb *pcb;
 862              		.loc 1 597 3
 598:C:/Users/stapi/OneDrive/Desktop/GD32VW553/GD32VW55X_Wifi_BLE_SDK/GD32VW55x_RELEASE_V1.0.2/MSDK/lwip/lwip-2.1.2/src/core\raw.c **** 
 599:C:/Users/stapi/OneDrive/Desktop/GD32VW553/GD32VW55X_Wifi_BLE_SDK/GD32VW55x_RELEASE_V1.0.2/MSDK/lwip/lwip-2.1.2/src/core\raw.c ****   LWIP_DEBUGF(RAW_DEBUG | LWIP_DBG_TRACE, ("raw_new\n"));
 863              		.loc 1 599 57
 600:C:/Users/stapi/OneDrive/Desktop/GD32VW553/GD32VW55X_Wifi_BLE_SDK/GD32VW55x_RELEASE_V1.0.2/MSDK/lwip/lwip-2.1.2/src/core\raw.c ****   LWIP_ASSERT_CORE_LOCKED();
 864              		.loc 1 600 28
 601:C:/Users/stapi/OneDrive/Desktop/GD32VW553/GD32VW55X_Wifi_BLE_SDK/GD32VW55x_RELEASE_V1.0.2/MSDK/lwip/lwip-2.1.2/src/core\raw.c **** 
 602:C:/Users/stapi/OneDrive/Desktop/GD32VW553/GD32VW55X_Wifi_BLE_SDK/GD32VW55x_RELEASE_V1.0.2/MSDK/lwip/lwip-2.1.2/src/core\raw.c ****   pcb = (struct raw_pcb *)memp_malloc(MEMP_RAW_PCB);
 865              		.loc 1 602 3
 596:C:/Users/stapi/OneDrive/Desktop/GD32VW553/GD32VW55X_Wifi_BLE_SDK/GD32VW55x_RELEASE_V1.0.2/MSDK/lwip/lwip-2.1.2/src/core\raw.c ****   struct raw_pcb *pcb;
 866              		.loc 1 596 1 is_stmt 0
 867 0008 AA84     		mv	s1,a0
 868              		.loc 1 602 27
 869 000a 0145     		li	a0,0
 870              	.LVL83:
 871 000c 97000000 		call	memp_malloc
 871      E7800000 
 872              	.LVL84:
 873 0014 2A84     		mv	s0,a0
 874              	.LVL85:
 603:C:/Users/stapi/OneDrive/Desktop/GD32VW553/GD32VW55X_Wifi_BLE_SDK/GD32VW55x_RELEASE_V1.0.2/MSDK/lwip/lwip-2.1.2/src/core\raw.c ****   /* could allocate RAW PCB? */
 604:C:/Users/stapi/OneDrive/Desktop/GD32VW553/GD32VW55X_Wifi_BLE_SDK/GD32VW55x_RELEASE_V1.0.2/MSDK/lwip/lwip-2.1.2/src/core\raw.c ****   if (pcb != NULL) {
 875              		.loc 1 604 3 is_stmt 1
 876              		.loc 1 604 6 is_stmt 0
 877 0016 0DC5     		beq	a0,zero,.L104
 605:C:/Users/stapi/OneDrive/Desktop/GD32VW553/GD32VW55X_Wifi_BLE_SDK/GD32VW55x_RELEASE_V1.0.2/MSDK/lwip/lwip-2.1.2/src/core\raw.c ****     /* initialize PCB to all zeroes */
 606:C:/Users/stapi/OneDrive/Desktop/GD32VW553/GD32VW55X_Wifi_BLE_SDK/GD32VW55x_RELEASE_V1.0.2/MSDK/lwip/lwip-2.1.2/src/core\raw.c ****     memset(pcb, 0, sizeof(struct raw_pcb));
 878              		.loc 1 606 5 is_stmt 1
 879 0018 7146     		li	a2,28
 880 001a 8145     		li	a1,0
 881 001c 97000000 		call	memset
 881      E7800000 
 882              	.LVL86:
 607:C:/Users/stapi/OneDrive/Desktop/GD32VW553/GD32VW55X_Wifi_BLE_SDK/GD32VW55x_RELEASE_V1.0.2/MSDK/lwip/lwip-2.1.2/src/core\raw.c ****     pcb->protocol = proto;
 883              		.loc 1 607 5
 608:C:/Users/stapi/OneDrive/Desktop/GD32VW553/GD32VW55X_Wifi_BLE_SDK/GD32VW55x_RELEASE_V1.0.2/MSDK/lwip/lwip-2.1.2/src/core\raw.c ****     pcb->ttl = RAW_TTL;
 884              		.loc 1 608 14 is_stmt 0
 885 0024 FD57     		li	a5,-1
 886 0026 A305F400 		sb	a5,11(s0)
 609:C:/Users/stapi/OneDrive/Desktop/GD32VW553/GD32VW55X_Wifi_BLE_SDK/GD32VW55x_RELEASE_V1.0.2/MSDK/lwip/lwip-2.1.2/src/core\raw.c **** #if LWIP_MULTICAST_TX_OPTIONS
 610:C:/Users/stapi/OneDrive/Desktop/GD32VW553/GD32VW55X_Wifi_BLE_SDK/GD32VW55x_RELEASE_V1.0.2/MSDK/lwip/lwip-2.1.2/src/core\raw.c ****     raw_set_multicast_ttl(pcb, RAW_TTL);
 887              		.loc 1 610 5
 888 002a A309F400 		sb	a5,19(s0)
 611:C:/Users/stapi/OneDrive/Desktop/GD32VW553/GD32VW55X_Wifi_BLE_SDK/GD32VW55x_RELEASE_V1.0.2/MSDK/lwip/lwip-2.1.2/src/core\raw.c **** #endif /* LWIP_MULTICAST_TX_OPTIONS */
 612:C:/Users/stapi/OneDrive/Desktop/GD32VW553/GD32VW55X_Wifi_BLE_SDK/GD32VW55x_RELEASE_V1.0.2/MSDK/lwip/lwip-2.1.2/src/core\raw.c ****     pcb->next = raw_pcbs;
 889              		.loc 1 612 15
 890 002e B7070000 		lui	a5,%hi(.LANCHOR0)
 891 0032 93870700 		addi	a5,a5,%lo(.LANCHOR0)
 892 0036 9843     		lw	a4,0(a5)
 607:C:/Users/stapi/OneDrive/Desktop/GD32VW553/GD32VW55X_Wifi_BLE_SDK/GD32VW55x_RELEASE_V1.0.2/MSDK/lwip/lwip-2.1.2/src/core\raw.c ****     pcb->ttl = RAW_TTL;
 893              		.loc 1 607 19
 894 0038 23089400 		sb	s1,16(s0)
 608:C:/Users/stapi/OneDrive/Desktop/GD32VW553/GD32VW55X_Wifi_BLE_SDK/GD32VW55x_RELEASE_V1.0.2/MSDK/lwip/lwip-2.1.2/src/core\raw.c **** #if LWIP_MULTICAST_TX_OPTIONS
 895              		.loc 1 608 5 is_stmt 1
 610:C:/Users/stapi/OneDrive/Desktop/GD32VW553/GD32VW55X_Wifi_BLE_SDK/GD32VW55x_RELEASE_V1.0.2/MSDK/lwip/lwip-2.1.2/src/core\raw.c **** #endif /* LWIP_MULTICAST_TX_OPTIONS */
 896              		.loc 1 610 5
 897              		.loc 1 612 5
 613:C:/Users/stapi/OneDrive/Desktop/GD32VW553/GD32VW55X_Wifi_BLE_SDK/GD32VW55x_RELEASE_V1.0.2/MSDK/lwip/lwip-2.1.2/src/core\raw.c ****     raw_pcbs = pcb;
 898              		.loc 1 613 14 is_stmt 0
 899 003c 80C3     		sw	s0,0(a5)
 612:C:/Users/stapi/OneDrive/Desktop/GD32VW553/GD32VW55X_Wifi_BLE_SDK/GD32VW55x_RELEASE_V1.0.2/MSDK/lwip/lwip-2.1.2/src/core\raw.c ****     raw_pcbs = pcb;
 900              		.loc 1 612 15
 901 003e 58C4     		sw	a4,12(s0)
 902              		.loc 1 613 5 is_stmt 1
 614:C:/Users/stapi/OneDrive/Desktop/GD32VW553/GD32VW55X_Wifi_BLE_SDK/GD32VW55x_RELEASE_V1.0.2/MSDK/lwip/lwip-2.1.2/src/core\raw.c ****   }
 615:C:/Users/stapi/OneDrive/Desktop/GD32VW553/GD32VW55X_Wifi_BLE_SDK/GD32VW55x_RELEASE_V1.0.2/MSDK/lwip/lwip-2.1.2/src/core\raw.c ****   return pcb;
 903              		.loc 1 615 3
 904              	.L104:
 616:C:/Users/stapi/OneDrive/Desktop/GD32VW553/GD32VW55X_Wifi_BLE_SDK/GD32VW55x_RELEASE_V1.0.2/MSDK/lwip/lwip-2.1.2/src/core\raw.c **** }
 905              		.loc 1 616 1 is_stmt 0
 906 0040 2285     		mv	a0,s0
 907 0042 17030000 		tail	__riscv_restore_2
 907      67000300 
 908              		.cfi_restore 9
 909              		.cfi_restore 8
 910              		.cfi_restore 1
 911              		.cfi_def_cfa_offset 0
 912              		.cfi_endproc
 913              	.LFE15:
 915              		.section	.text.raw_new_ip_type,"ax",@progbits
 916              		.align	1
 917              		.globl	raw_new_ip_type
 919              	raw_new_ip_type:
 920              	.LFB16:
 617:C:/Users/stapi/OneDrive/Desktop/GD32VW553/GD32VW55X_Wifi_BLE_SDK/GD32VW55x_RELEASE_V1.0.2/MSDK/lwip/lwip-2.1.2/src/core\raw.c **** 
 618:C:/Users/stapi/OneDrive/Desktop/GD32VW553/GD32VW55X_Wifi_BLE_SDK/GD32VW55x_RELEASE_V1.0.2/MSDK/lwip/lwip-2.1.2/src/core\raw.c **** /**
 619:C:/Users/stapi/OneDrive/Desktop/GD32VW553/GD32VW55X_Wifi_BLE_SDK/GD32VW55x_RELEASE_V1.0.2/MSDK/lwip/lwip-2.1.2/src/core\raw.c ****  * @ingroup raw_raw
 620:C:/Users/stapi/OneDrive/Desktop/GD32VW553/GD32VW55X_Wifi_BLE_SDK/GD32VW55x_RELEASE_V1.0.2/MSDK/lwip/lwip-2.1.2/src/core\raw.c ****  * Create a RAW PCB for specific IP type.
 621:C:/Users/stapi/OneDrive/Desktop/GD32VW553/GD32VW55X_Wifi_BLE_SDK/GD32VW55x_RELEASE_V1.0.2/MSDK/lwip/lwip-2.1.2/src/core\raw.c ****  *
 622:C:/Users/stapi/OneDrive/Desktop/GD32VW553/GD32VW55X_Wifi_BLE_SDK/GD32VW55x_RELEASE_V1.0.2/MSDK/lwip/lwip-2.1.2/src/core\raw.c ****  * @return The RAW PCB which was created. NULL if the PCB data structure
 623:C:/Users/stapi/OneDrive/Desktop/GD32VW553/GD32VW55X_Wifi_BLE_SDK/GD32VW55x_RELEASE_V1.0.2/MSDK/lwip/lwip-2.1.2/src/core\raw.c ****  * could not be allocated.
 624:C:/Users/stapi/OneDrive/Desktop/GD32VW553/GD32VW55X_Wifi_BLE_SDK/GD32VW55x_RELEASE_V1.0.2/MSDK/lwip/lwip-2.1.2/src/core\raw.c ****  *
 625:C:/Users/stapi/OneDrive/Desktop/GD32VW553/GD32VW55X_Wifi_BLE_SDK/GD32VW55x_RELEASE_V1.0.2/MSDK/lwip/lwip-2.1.2/src/core\raw.c ****  * @param type IP address type, see @ref lwip_ip_addr_type definitions.
 626:C:/Users/stapi/OneDrive/Desktop/GD32VW553/GD32VW55X_Wifi_BLE_SDK/GD32VW55x_RELEASE_V1.0.2/MSDK/lwip/lwip-2.1.2/src/core\raw.c ****  * If you want to listen to IPv4 and IPv6 (dual-stack) packets,
 627:C:/Users/stapi/OneDrive/Desktop/GD32VW553/GD32VW55X_Wifi_BLE_SDK/GD32VW55x_RELEASE_V1.0.2/MSDK/lwip/lwip-2.1.2/src/core\raw.c ****  * supply @ref IPADDR_TYPE_ANY as argument and bind to @ref IP_ANY_TYPE.
 628:C:/Users/stapi/OneDrive/Desktop/GD32VW553/GD32VW55X_Wifi_BLE_SDK/GD32VW55x_RELEASE_V1.0.2/MSDK/lwip/lwip-2.1.2/src/core\raw.c ****  * @param proto the protocol number (next header) of the IPv6 packet payload
 629:C:/Users/stapi/OneDrive/Desktop/GD32VW553/GD32VW55X_Wifi_BLE_SDK/GD32VW55x_RELEASE_V1.0.2/MSDK/lwip/lwip-2.1.2/src/core\raw.c ****  *              (e.g. IP6_NEXTH_ICMP6)
 630:C:/Users/stapi/OneDrive/Desktop/GD32VW553/GD32VW55X_Wifi_BLE_SDK/GD32VW55x_RELEASE_V1.0.2/MSDK/lwip/lwip-2.1.2/src/core\raw.c ****  *
 631:C:/Users/stapi/OneDrive/Desktop/GD32VW553/GD32VW55X_Wifi_BLE_SDK/GD32VW55x_RELEASE_V1.0.2/MSDK/lwip/lwip-2.1.2/src/core\raw.c ****  * @see raw_remove()
 632:C:/Users/stapi/OneDrive/Desktop/GD32VW553/GD32VW55X_Wifi_BLE_SDK/GD32VW55x_RELEASE_V1.0.2/MSDK/lwip/lwip-2.1.2/src/core\raw.c ****  */
 633:C:/Users/stapi/OneDrive/Desktop/GD32VW553/GD32VW55X_Wifi_BLE_SDK/GD32VW55x_RELEASE_V1.0.2/MSDK/lwip/lwip-2.1.2/src/core\raw.c **** struct raw_pcb *
 634:C:/Users/stapi/OneDrive/Desktop/GD32VW553/GD32VW55X_Wifi_BLE_SDK/GD32VW55x_RELEASE_V1.0.2/MSDK/lwip/lwip-2.1.2/src/core\raw.c **** raw_new_ip_type(u8_t type, u8_t proto)
 635:C:/Users/stapi/OneDrive/Desktop/GD32VW553/GD32VW55X_Wifi_BLE_SDK/GD32VW55x_RELEASE_V1.0.2/MSDK/lwip/lwip-2.1.2/src/core\raw.c **** {
 921              		.loc 1 635 1 is_stmt 1
 922              		.cfi_startproc
 923              	.LVL87:
 636:C:/Users/stapi/OneDrive/Desktop/GD32VW553/GD32VW55X_Wifi_BLE_SDK/GD32VW55x_RELEASE_V1.0.2/MSDK/lwip/lwip-2.1.2/src/core\raw.c ****   struct raw_pcb *pcb;
 924              		.loc 1 636 3
 637:C:/Users/stapi/OneDrive/Desktop/GD32VW553/GD32VW55X_Wifi_BLE_SDK/GD32VW55x_RELEASE_V1.0.2/MSDK/lwip/lwip-2.1.2/src/core\raw.c ****   LWIP_ASSERT_CORE_LOCKED();
 925              		.loc 1 637 28
 638:C:/Users/stapi/OneDrive/Desktop/GD32VW553/GD32VW55X_Wifi_BLE_SDK/GD32VW55x_RELEASE_V1.0.2/MSDK/lwip/lwip-2.1.2/src/core\raw.c ****   pcb = raw_new(proto);
 926              		.loc 1 638 3
 927              		.loc 1 638 9 is_stmt 0
 928 0000 2E85     		mv	a0,a1
 929              	.LVL88:
 930 0002 17030000 		tail	raw_new
 930      67000300 
 931              	.LVL89:
 639:C:/Users/stapi/OneDrive/Desktop/GD32VW553/GD32VW55X_Wifi_BLE_SDK/GD32VW55x_RELEASE_V1.0.2/MSDK/lwip/lwip-2.1.2/src/core\raw.c **** #if LWIP_IPV4 && LWIP_IPV6
 640:C:/Users/stapi/OneDrive/Desktop/GD32VW553/GD32VW55X_Wifi_BLE_SDK/GD32VW55x_RELEASE_V1.0.2/MSDK/lwip/lwip-2.1.2/src/core\raw.c ****   if (pcb != NULL) {
 641:C:/Users/stapi/OneDrive/Desktop/GD32VW553/GD32VW55X_Wifi_BLE_SDK/GD32VW55x_RELEASE_V1.0.2/MSDK/lwip/lwip-2.1.2/src/core\raw.c ****     IP_SET_TYPE_VAL(pcb->local_ip,  type);
 642:C:/Users/stapi/OneDrive/Desktop/GD32VW553/GD32VW55X_Wifi_BLE_SDK/GD32VW55x_RELEASE_V1.0.2/MSDK/lwip/lwip-2.1.2/src/core\raw.c ****     IP_SET_TYPE_VAL(pcb->remote_ip, type);
 643:C:/Users/stapi/OneDrive/Desktop/GD32VW553/GD32VW55X_Wifi_BLE_SDK/GD32VW55x_RELEASE_V1.0.2/MSDK/lwip/lwip-2.1.2/src/core\raw.c ****   }
 644:C:/Users/stapi/OneDrive/Desktop/GD32VW553/GD32VW55X_Wifi_BLE_SDK/GD32VW55x_RELEASE_V1.0.2/MSDK/lwip/lwip-2.1.2/src/core\raw.c **** #else /* LWIP_IPV4 && LWIP_IPV6 */
 645:C:/Users/stapi/OneDrive/Desktop/GD32VW553/GD32VW55X_Wifi_BLE_SDK/GD32VW55x_RELEASE_V1.0.2/MSDK/lwip/lwip-2.1.2/src/core\raw.c ****   LWIP_UNUSED_ARG(type);
 932              		.loc 1 645 3 is_stmt 1
 646:C:/Users/stapi/OneDrive/Desktop/GD32VW553/GD32VW55X_Wifi_BLE_SDK/GD32VW55x_RELEASE_V1.0.2/MSDK/lwip/lwip-2.1.2/src/core\raw.c **** #endif /* LWIP_IPV4 && LWIP_IPV6 */
 647:C:/Users/stapi/OneDrive/Desktop/GD32VW553/GD32VW55X_Wifi_BLE_SDK/GD32VW55x_RELEASE_V1.0.2/MSDK/lwip/lwip-2.1.2/src/core\raw.c ****   return pcb;
 933              		.loc 1 647 3
 934              		.cfi_endproc
 935              	.LFE16:
 937              		.section	.text.raw_netif_ip_addr_changed,"ax",@progbits
 938              		.align	1
 939              		.globl	raw_netif_ip_addr_changed
 941              	raw_netif_ip_addr_changed:
 942              	.LFB17:
 648:C:/Users/stapi/OneDrive/Desktop/GD32VW553/GD32VW55X_Wifi_BLE_SDK/GD32VW55x_RELEASE_V1.0.2/MSDK/lwip/lwip-2.1.2/src/core\raw.c **** }
 649:C:/Users/stapi/OneDrive/Desktop/GD32VW553/GD32VW55X_Wifi_BLE_SDK/GD32VW55x_RELEASE_V1.0.2/MSDK/lwip/lwip-2.1.2/src/core\raw.c **** 
 650:C:/Users/stapi/OneDrive/Desktop/GD32VW553/GD32VW55X_Wifi_BLE_SDK/GD32VW55x_RELEASE_V1.0.2/MSDK/lwip/lwip-2.1.2/src/core\raw.c **** /** This function is called from netif.c when address is changed
 651:C:/Users/stapi/OneDrive/Desktop/GD32VW553/GD32VW55X_Wifi_BLE_SDK/GD32VW55x_RELEASE_V1.0.2/MSDK/lwip/lwip-2.1.2/src/core\raw.c ****  *
 652:C:/Users/stapi/OneDrive/Desktop/GD32VW553/GD32VW55X_Wifi_BLE_SDK/GD32VW55x_RELEASE_V1.0.2/MSDK/lwip/lwip-2.1.2/src/core\raw.c ****  * @param old_addr IP address of the netif before change
 653:C:/Users/stapi/OneDrive/Desktop/GD32VW553/GD32VW55X_Wifi_BLE_SDK/GD32VW55x_RELEASE_V1.0.2/MSDK/lwip/lwip-2.1.2/src/core\raw.c ****  * @param new_addr IP address of the netif after change
 654:C:/Users/stapi/OneDrive/Desktop/GD32VW553/GD32VW55X_Wifi_BLE_SDK/GD32VW55x_RELEASE_V1.0.2/MSDK/lwip/lwip-2.1.2/src/core\raw.c ****  */
 655:C:/Users/stapi/OneDrive/Desktop/GD32VW553/GD32VW55X_Wifi_BLE_SDK/GD32VW55x_RELEASE_V1.0.2/MSDK/lwip/lwip-2.1.2/src/core\raw.c **** void raw_netif_ip_addr_changed(const ip_addr_t *old_addr, const ip_addr_t *new_addr)
 656:C:/Users/stapi/OneDrive/Desktop/GD32VW553/GD32VW55X_Wifi_BLE_SDK/GD32VW55x_RELEASE_V1.0.2/MSDK/lwip/lwip-2.1.2/src/core\raw.c **** {
 943              		.loc 1 656 1
 944              		.cfi_startproc
 945              	.LVL90:
 657:C:/Users/stapi/OneDrive/Desktop/GD32VW553/GD32VW55X_Wifi_BLE_SDK/GD32VW55x_RELEASE_V1.0.2/MSDK/lwip/lwip-2.1.2/src/core\raw.c ****   struct raw_pcb *rpcb;
 946              		.loc 1 657 3
 658:C:/Users/stapi/OneDrive/Desktop/GD32VW553/GD32VW55X_Wifi_BLE_SDK/GD32VW55x_RELEASE_V1.0.2/MSDK/lwip/lwip-2.1.2/src/core\raw.c **** 
 659:C:/Users/stapi/OneDrive/Desktop/GD32VW553/GD32VW55X_Wifi_BLE_SDK/GD32VW55x_RELEASE_V1.0.2/MSDK/lwip/lwip-2.1.2/src/core\raw.c ****   if (!ip_addr_isany(old_addr) && !ip_addr_isany(new_addr)) {
 947              		.loc 1 659 3
 948              		.loc 1 659 6 is_stmt 0
 949 0000 19C9     		beq	a0,zero,.L112
 950              		.loc 1 659 7 discriminator 1
 951 0002 1C41     		lw	a5,0(a0)
 952 0004 89CB     		beq	a5,zero,.L112
 953              		.loc 1 659 32 discriminator 2
 954 0006 81C9     		beq	a1,zero,.L112
 955              		.loc 1 659 35 discriminator 3
 956 0008 9C41     		lw	a5,0(a1)
 957 000a 91C7     		beq	a5,zero,.L112
 660:C:/Users/stapi/OneDrive/Desktop/GD32VW553/GD32VW55X_Wifi_BLE_SDK/GD32VW55x_RELEASE_V1.0.2/MSDK/lwip/lwip-2.1.2/src/core\raw.c ****     for (rpcb = raw_pcbs; rpcb != NULL; rpcb = rpcb->next) {
 958              		.loc 1 660 5 is_stmt 1
 959              		.loc 1 660 15 is_stmt 0
 960 000c B7070000 		lui	a5,%hi(.LANCHOR0)
 961 0010 83A70700 		lw	a5,%lo(.LANCHOR0)(a5)
 962              	.LVL91:
 963              	.L115:
 964              		.loc 1 660 27 is_stmt 1 discriminator 1
 965              		.loc 1 660 5 is_stmt 0 discriminator 1
 966 0014 91E3     		bne	a5,zero,.L117
 967              	.LVL92:
 968              	.L112:
 661:C:/Users/stapi/OneDrive/Desktop/GD32VW553/GD32VW55X_Wifi_BLE_SDK/GD32VW55x_RELEASE_V1.0.2/MSDK/lwip/lwip-2.1.2/src/core\raw.c ****       /* PCB bound to current local interface address? */
 662:C:/Users/stapi/OneDrive/Desktop/GD32VW553/GD32VW55X_Wifi_BLE_SDK/GD32VW55x_RELEASE_V1.0.2/MSDK/lwip/lwip-2.1.2/src/core\raw.c ****       if (ip_addr_cmp(&rpcb->local_ip, old_addr)) {
 663:C:/Users/stapi/OneDrive/Desktop/GD32VW553/GD32VW55X_Wifi_BLE_SDK/GD32VW55x_RELEASE_V1.0.2/MSDK/lwip/lwip-2.1.2/src/core\raw.c ****         /* The PCB is bound to the old ipaddr and
 664:C:/Users/stapi/OneDrive/Desktop/GD32VW553/GD32VW55X_Wifi_BLE_SDK/GD32VW55x_RELEASE_V1.0.2/MSDK/lwip/lwip-2.1.2/src/core\raw.c ****          * is set to bound to the new one instead */
 665:C:/Users/stapi/OneDrive/Desktop/GD32VW553/GD32VW55X_Wifi_BLE_SDK/GD32VW55x_RELEASE_V1.0.2/MSDK/lwip/lwip-2.1.2/src/core\raw.c ****         ip_addr_copy(rpcb->local_ip, *new_addr);
 666:C:/Users/stapi/OneDrive/Desktop/GD32VW553/GD32VW55X_Wifi_BLE_SDK/GD32VW55x_RELEASE_V1.0.2/MSDK/lwip/lwip-2.1.2/src/core\raw.c ****       }
 667:C:/Users/stapi/OneDrive/Desktop/GD32VW553/GD32VW55X_Wifi_BLE_SDK/GD32VW55x_RELEASE_V1.0.2/MSDK/lwip/lwip-2.1.2/src/core\raw.c ****     }
 668:C:/Users/stapi/OneDrive/Desktop/GD32VW553/GD32VW55X_Wifi_BLE_SDK/GD32VW55x_RELEASE_V1.0.2/MSDK/lwip/lwip-2.1.2/src/core\raw.c ****   }
 669:C:/Users/stapi/OneDrive/Desktop/GD32VW553/GD32VW55X_Wifi_BLE_SDK/GD32VW55x_RELEASE_V1.0.2/MSDK/lwip/lwip-2.1.2/src/core\raw.c **** }
 969              		.loc 1 669 1
 970 0016 8280     		ret
 971              	.LVL93:
 972              	.L117:
 662:C:/Users/stapi/OneDrive/Desktop/GD32VW553/GD32VW55X_Wifi_BLE_SDK/GD32VW55x_RELEASE_V1.0.2/MSDK/lwip/lwip-2.1.2/src/core\raw.c ****         /* The PCB is bound to the old ipaddr and
 973              		.loc 1 662 7 is_stmt 1
 662:C:/Users/stapi/OneDrive/Desktop/GD32VW553/GD32VW55X_Wifi_BLE_SDK/GD32VW55x_RELEASE_V1.0.2/MSDK/lwip/lwip-2.1.2/src/core\raw.c ****         /* The PCB is bound to the old ipaddr and
 974              		.loc 1 662 10 is_stmt 0
 975 0018 9443     		lw	a3,0(a5)
 976 001a 1841     		lw	a4,0(a0)
 977 001c 6394E600 		bne	a3,a4,.L116
 665:C:/Users/stapi/OneDrive/Desktop/GD32VW553/GD32VW55X_Wifi_BLE_SDK/GD32VW55x_RELEASE_V1.0.2/MSDK/lwip/lwip-2.1.2/src/core\raw.c ****       }
 978              		.loc 1 665 9 is_stmt 1
 979 0020 9841     		lw	a4,0(a1)
 980 0022 98C3     		sw	a4,0(a5)
 981              	.L116:
 660:C:/Users/stapi/OneDrive/Desktop/GD32VW553/GD32VW55X_Wifi_BLE_SDK/GD32VW55x_RELEASE_V1.0.2/MSDK/lwip/lwip-2.1.2/src/core\raw.c ****       /* PCB bound to current local interface address? */
 982              		.loc 1 660 41 discriminator 2
 660:C:/Users/stapi/OneDrive/Desktop/GD32VW553/GD32VW55X_Wifi_BLE_SDK/GD32VW55x_RELEASE_V1.0.2/MSDK/lwip/lwip-2.1.2/src/core\raw.c ****       /* PCB bound to current local interface address? */
 983              		.loc 1 660 46 is_stmt 0 discriminator 2
 984 0024 DC47     		lw	a5,12(a5)
 985              	.LVL94:
 986 0026 FDB7     		j	.L115
 987              		.cfi_endproc
 988              	.LFE17:
 990              		.section	.sbss.raw_pcbs,"aw",@nobits
 991              		.align	2
 992              		.set	.LANCHOR0,. + 0
 995              	raw_pcbs:
 996 0000 00000000 		.zero	4
 997              		.text
 998              	.Letext0:
 999              		.file 2 "c:\\users\\stapi\\onedrive\\desktop\\gd32vw553\\embeddedbuilder_v1.4.7.26843\\tools\\nucl
 1000              		.file 3 "c:\\users\\stapi\\onedrive\\desktop\\gd32vw553\\embeddedbuilder_v1.4.7.26843\\tools\\nucl
 1001              		.file 4 "..\\..\\..\\..\\lwip\\lwip-2.1.2\\src\\include/lwip/arch.h"
 1002              		.file 5 "..\\..\\..\\..\\lwip\\lwip-2.1.2\\src\\include/lwip/ip4_addr.h"
 1003              		.file 6 "..\\..\\..\\..\\lwip\\lwip-2.1.2\\src\\include/lwip/ip_addr.h"
 1004              		.file 7 "..\\..\\..\\..\\lwip\\lwip-2.1.2\\src\\include/lwip/memp.h"
 1005              		.file 8 "..\\..\\..\\..\\lwip\\lwip-2.1.2\\src\\include/lwip/err.h"
 1006              		.file 9 "..\\..\\..\\..\\lwip\\lwip-2.1.2\\src\\include/lwip/pbuf.h"
 1007              		.file 10 "..\\..\\..\\..\\lwip\\lwip-2.1.2\\src\\include/lwip/netif.h"
 1008              		.file 11 "..\\..\\..\\..\\lwip\\lwip-2.1.2\\src\\include/lwip/prot/ip4.h"
 1009              		.file 12 "..\\..\\..\\..\\lwip\\lwip-2.1.2\\src\\include/lwip/ip.h"
 1010              		.file 13 "..\\..\\..\\..\\lwip\\lwip-2.1.2\\src\\include/lwip/raw.h"
 1011              		.file 14 "..\\..\\..\\..\\lwip\\lwip-2.1.2\\src\\include/lwip/priv/raw_priv.h"
 1012              		.file 15 "..\\..\\..\\..\\lwip\\lwip-2.1.2\\src\\include/lwip/ip4.h"
 1013              		.file 16 "c:\\users\\stapi\\onedrive\\desktop\\gd32vw553\\embeddedbuilder_v1.4.7.26843\\tools\\nuc
 1014              		.file 17 "<built-in>"
DEFINED SYMBOLS
                            *ABS*:0000000000000000 raw.c
C:\Users\stapi\AppData\Local\Temp\ccxbqhMb.s:23     .text.raw_input:0000000000000000 raw_input
C:\Users\stapi\AppData\Local\Temp\ccxbqhMb.s:27     .text.raw_input:0000000000000000 .L0 
C:\Users\stapi\AppData\Local\Temp\ccxbqhMb.s:29     .text.raw_input:0000000000000000 .L0 
C:\Users\stapi\AppData\Local\Temp\ccxbqhMb.s:30     .text.raw_input:0000000000000008 .L0 
C:\Users\stapi\AppData\Local\Temp\ccxbqhMb.s:31     .text.raw_input:0000000000000008 .L0 
C:\Users\stapi\AppData\Local\Temp\ccxbqhMb.s:32     .text.raw_input:0000000000000008 .L0 
C:\Users\stapi\AppData\Local\Temp\ccxbqhMb.s:33     .text.raw_input:0000000000000008 .L0 
C:\Users\stapi\AppData\Local\Temp\ccxbqhMb.s:34     .text.raw_input:0000000000000008 .L0 
C:\Users\stapi\AppData\Local\Temp\ccxbqhMb.s:35     .text.raw_input:0000000000000008 .L0 
C:\Users\stapi\AppData\Local\Temp\ccxbqhMb.s:36     .text.raw_input:0000000000000008 .L0 
C:\Users\stapi\AppData\Local\Temp\ccxbqhMb.s:37     .text.raw_input:0000000000000008 .L0 
C:\Users\stapi\AppData\Local\Temp\ccxbqhMb.s:38     .text.raw_input:0000000000000008 .L0 
C:\Users\stapi\AppData\Local\Temp\ccxbqhMb.s:39     .text.raw_input:0000000000000008 .L0 
C:\Users\stapi\AppData\Local\Temp\ccxbqhMb.s:40     .text.raw_input:0000000000000008 .L0 
C:\Users\stapi\AppData\Local\Temp\ccxbqhMb.s:42     .text.raw_input:0000000000000008 .L0 
C:\Users\stapi\AppData\Local\Temp\ccxbqhMb.s:43     .text.raw_input:0000000000000008 .L0 
C:\Users\stapi\AppData\Local\Temp\ccxbqhMb.s:45     .text.raw_input:0000000000000008 .L0 
C:\Users\stapi\AppData\Local\Temp\ccxbqhMb.s:46     .text.raw_input:0000000000000008 .L0 
C:\Users\stapi\AppData\Local\Temp\ccxbqhMb.s:47     .text.raw_input:0000000000000008 .L0 
C:\Users\stapi\AppData\Local\Temp\ccxbqhMb.s:52     .text.raw_input:0000000000000012 .L0 
C:\Users\stapi\AppData\Local\Temp\ccxbqhMb.s:54     .text.raw_input:0000000000000014 .L0 
C:\Users\stapi\AppData\Local\Temp\ccxbqhMb.s:57     .text.raw_input:0000000000000016 .L0 
C:\Users\stapi\AppData\Local\Temp\ccxbqhMb.s:60     .text.raw_input:000000000000001c .L0 
C:\Users\stapi\AppData\Local\Temp\ccxbqhMb.s:63     .text.raw_input:0000000000000024 .L0 
C:\Users\stapi\AppData\Local\Temp\ccxbqhMb.s:65     .text.raw_input:0000000000000026 .L0 
C:\Users\stapi\AppData\Local\Temp\ccxbqhMb.s:68     .text.raw_input:0000000000000028 .L0 
C:\Users\stapi\AppData\Local\Temp\ccxbqhMb.s:70     .text.raw_input:0000000000000028 .L0 
C:\Users\stapi\AppData\Local\Temp\ccxbqhMb.s:71     .text.raw_input:0000000000000028 .L0 
C:\Users\stapi\AppData\Local\Temp\ccxbqhMb.s:74     .text.raw_input:000000000000002c .L0 
C:\Users\stapi\AppData\Local\Temp\ccxbqhMb.s:77     .text.raw_input:0000000000000030 .L0 
C:\Users\stapi\AppData\Local\Temp\ccxbqhMb.s:78     .text.raw_input:0000000000000030 .L0 
C:\Users\stapi\AppData\Local\Temp\ccxbqhMb.s:79     .text.raw_input:0000000000000030 .L0 
C:\Users\stapi\AppData\Local\Temp\ccxbqhMb.s:83     .text.raw_input:0000000000000038 .L0 
C:\Users\stapi\AppData\Local\Temp\ccxbqhMb.s:84     .text.raw_input:0000000000000038 .L0 
C:\Users\stapi\AppData\Local\Temp\ccxbqhMb.s:89     .text.raw_input:000000000000003e .L0 
C:\Users\stapi\AppData\Local\Temp\ccxbqhMb.s:91     .text.raw_input:0000000000000040 .L0 
C:\Users\stapi\AppData\Local\Temp\ccxbqhMb.s:92     .text.raw_input:0000000000000040 .L0 
C:\Users\stapi\AppData\Local\Temp\ccxbqhMb.s:98     .text.raw_input:0000000000000048 .L0 
C:\Users\stapi\AppData\Local\Temp\ccxbqhMb.s:99     .text.raw_input:0000000000000048 .L0 
C:\Users\stapi\AppData\Local\Temp\ccxbqhMb.s:100    .text.raw_input:0000000000000048 .L0 
C:\Users\stapi\AppData\Local\Temp\ccxbqhMb.s:102    .text.raw_input:000000000000004c .L0 
C:\Users\stapi\AppData\Local\Temp\ccxbqhMb.s:104    .text.raw_input:000000000000004e .L0 
C:\Users\stapi\AppData\Local\Temp\ccxbqhMb.s:108    .text.raw_input:0000000000000058 .L0 
C:\Users\stapi\AppData\Local\Temp\ccxbqhMb.s:112    .text.raw_input:0000000000000060 .L0 
C:\Users\stapi\AppData\Local\Temp\ccxbqhMb.s:113    .text.raw_input:0000000000000060 .L0 
C:\Users\stapi\AppData\Local\Temp\ccxbqhMb.s:114    .text.raw_input:0000000000000060 .L0 
C:\Users\stapi\AppData\Local\Temp\ccxbqhMb.s:116    .text.raw_input:0000000000000062 .L0 
C:\Users\stapi\AppData\Local\Temp\ccxbqhMb.s:118    .text.raw_input:0000000000000066 .L0 
C:\Users\stapi\AppData\Local\Temp\ccxbqhMb.s:119    .text.raw_input:0000000000000066 .L0 
C:\Users\stapi\AppData\Local\Temp\ccxbqhMb.s:125    .text.raw_input:0000000000000068 .L0 
C:\Users\stapi\AppData\Local\Temp\ccxbqhMb.s:129    .text.raw_input:0000000000000070 .L0 
C:\Users\stapi\AppData\Local\Temp\ccxbqhMb.s:134    .text.raw_input:000000000000007a .L0 
C:\Users\stapi\AppData\Local\Temp\ccxbqhMb.s:135    .text.raw_input:000000000000007a .L0 
C:\Users\stapi\AppData\Local\Temp\ccxbqhMb.s:137    .text.raw_input:000000000000007c .L0 
C:\Users\stapi\AppData\Local\Temp\ccxbqhMb.s:140    .text.raw_input:000000000000007e .L0 
C:\Users\stapi\AppData\Local\Temp\ccxbqhMb.s:141    .text.raw_input:000000000000007e .L0 
C:\Users\stapi\AppData\Local\Temp\ccxbqhMb.s:142    .text.raw_input:000000000000007e .L0 
C:\Users\stapi\AppData\Local\Temp\ccxbqhMb.s:148    .text.raw_input:0000000000000088 .L0 
C:\Users\stapi\AppData\Local\Temp\ccxbqhMb.s:151    .text.raw_input:000000000000008c .L0 
C:\Users\stapi\AppData\Local\Temp\ccxbqhMb.s:152    .text.raw_input:000000000000008c .L0 
C:\Users\stapi\AppData\Local\Temp\ccxbqhMb.s:153    .text.raw_input:000000000000008c .L0 
C:\Users\stapi\AppData\Local\Temp\ccxbqhMb.s:156    .text.raw_input:000000000000008e .L0 
C:\Users\stapi\AppData\Local\Temp\ccxbqhMb.s:157    .text.raw_input:000000000000008e .L0 
C:\Users\stapi\AppData\Local\Temp\ccxbqhMb.s:160    .text.raw_input:0000000000000090 .L0 
C:\Users\stapi\AppData\Local\Temp\ccxbqhMb.s:161    .text.raw_input:0000000000000090 .L0 
C:\Users\stapi\AppData\Local\Temp\ccxbqhMb.s:162    .text.raw_input:0000000000000090 .L0 
C:\Users\stapi\AppData\Local\Temp\ccxbqhMb.s:165    .text.raw_input:0000000000000092 .L0 
C:\Users\stapi\AppData\Local\Temp\ccxbqhMb.s:167    .text.raw_input:0000000000000096 .L0 
C:\Users\stapi\AppData\Local\Temp\ccxbqhMb.s:168    .text.raw_input:0000000000000096 .L0 
C:\Users\stapi\AppData\Local\Temp\ccxbqhMb.s:170    .text.raw_input:0000000000000098 .L0 
C:\Users\stapi\AppData\Local\Temp\ccxbqhMb.s:172    .text.raw_input:000000000000009c .L0 
C:\Users\stapi\AppData\Local\Temp\ccxbqhMb.s:173    .text.raw_input:000000000000009c .L0 
C:\Users\stapi\AppData\Local\Temp\ccxbqhMb.s:175    .text.raw_input:00000000000000a0 .L0 
C:\Users\stapi\AppData\Local\Temp\ccxbqhMb.s:177    .text.raw_input:00000000000000a4 .L0 
C:\Users\stapi\AppData\Local\Temp\ccxbqhMb.s:182    .text.raw_input:00000000000000a6 .L0 
C:\Users\stapi\AppData\Local\Temp\ccxbqhMb.s:183    .text.raw_input:00000000000000a6 .L0 
C:\Users\stapi\AppData\Local\Temp\ccxbqhMb.s:184    .text.raw_input:00000000000000ae .L0 
C:\Users\stapi\AppData\Local\Temp\ccxbqhMb.s:185    .text.raw_input:00000000000000ae .L0 
C:\Users\stapi\AppData\Local\Temp\ccxbqhMb.s:186    .text.raw_input:00000000000000ae .L0 
C:\Users\stapi\AppData\Local\Temp\ccxbqhMb.s:187    .text.raw_input:00000000000000ae .L0 
C:\Users\stapi\AppData\Local\Temp\ccxbqhMb.s:188    .text.raw_input:00000000000000ae .L0 
C:\Users\stapi\AppData\Local\Temp\ccxbqhMb.s:189    .text.raw_input:00000000000000ae .L0 
C:\Users\stapi\AppData\Local\Temp\ccxbqhMb.s:190    .text.raw_input:00000000000000ae .L0 
C:\Users\stapi\AppData\Local\Temp\ccxbqhMb.s:191    .text.raw_input:00000000000000ae .L0 
C:\Users\stapi\AppData\Local\Temp\ccxbqhMb.s:192    .text.raw_input:00000000000000ae .L0 
C:\Users\stapi\AppData\Local\Temp\ccxbqhMb.s:193    .text.raw_input:00000000000000ae .L0 
C:\Users\stapi\AppData\Local\Temp\ccxbqhMb.s:194    .text.raw_input:00000000000000ae .L0 
C:\Users\stapi\AppData\Local\Temp\ccxbqhMb.s:195    .text.raw_input:00000000000000ae .L0 
C:\Users\stapi\AppData\Local\Temp\ccxbqhMb.s:198    .text.raw_input:00000000000000ae .L0 
C:\Users\stapi\AppData\Local\Temp\ccxbqhMb.s:202    .text.raw_input:00000000000000ae .L0 
C:\Users\stapi\AppData\Local\Temp\ccxbqhMb.s:203    .text.raw_input:00000000000000ae .L0 
C:\Users\stapi\AppData\Local\Temp\ccxbqhMb.s:205    .text.raw_input:00000000000000b0 .L0 
C:\Users\stapi\AppData\Local\Temp\ccxbqhMb.s:213    .text.raw_input:00000000000000b8 .L0 
C:\Users\stapi\AppData\Local\Temp\ccxbqhMb.s:215    .text.raw_input:00000000000000b8 .L0 
C:\Users\stapi\AppData\Local\Temp\ccxbqhMb.s:216    .text.raw_input:00000000000000b8 .L0 
C:\Users\stapi\AppData\Local\Temp\ccxbqhMb.s:217    .text.raw_input:00000000000000b8 .L0 
C:\Users\stapi\AppData\Local\Temp\ccxbqhMb.s:218    .text.raw_input:00000000000000b8 .L0 
C:\Users\stapi\AppData\Local\Temp\ccxbqhMb.s:226    .text.raw_input:00000000000000be .L0 
C:\Users\stapi\AppData\Local\Temp\ccxbqhMb.s:227    .text.raw_input:00000000000000be .L0 
C:\Users\stapi\AppData\Local\Temp\ccxbqhMb.s:230    .text.raw_input:00000000000000c4 .L0 
C:\Users\stapi\AppData\Local\Temp\ccxbqhMb.s:231    .text.raw_input:00000000000000c4 .L0 
C:\Users\stapi\AppData\Local\Temp\ccxbqhMb.s:243    .text.raw_input:00000000000000e8 .L0 
C:\Users\stapi\AppData\Local\Temp\ccxbqhMb.s:244    .text.raw_input:00000000000000e8 .L0 
C:\Users\stapi\AppData\Local\Temp\ccxbqhMb.s:245    .text.raw_input:00000000000000e8 .L0 
C:\Users\stapi\AppData\Local\Temp\ccxbqhMb.s:249    .text.raw_input:00000000000000ea .L0 
C:\Users\stapi\AppData\Local\Temp\ccxbqhMb.s:253    .text.raw_input:00000000000000ee .L0 
C:\Users\stapi\AppData\Local\Temp\ccxbqhMb.s:260    .text.raw_bind:0000000000000000 raw_bind
C:\Users\stapi\AppData\Local\Temp\ccxbqhMb.s:263    .text.raw_bind:0000000000000000 .L0 
C:\Users\stapi\AppData\Local\Temp\ccxbqhMb.s:265    .text.raw_bind:0000000000000000 .L0 
C:\Users\stapi\AppData\Local\Temp\ccxbqhMb.s:266    .text.raw_bind:0000000000000000 .L0 
C:\Users\stapi\AppData\Local\Temp\ccxbqhMb.s:267    .text.raw_bind:0000000000000000 .L0 
C:\Users\stapi\AppData\Local\Temp\ccxbqhMb.s:268    .text.raw_bind:0000000000000000 .L0 
C:\Users\stapi\AppData\Local\Temp\ccxbqhMb.s:270    .text.raw_bind:0000000000000002 .L0 
C:\Users\stapi\AppData\Local\Temp\ccxbqhMb.s:273    .text.raw_bind:0000000000000004 .L0 
C:\Users\stapi\AppData\Local\Temp\ccxbqhMb.s:275    .text.raw_bind:0000000000000006 .L0 
C:\Users\stapi\AppData\Local\Temp\ccxbqhMb.s:277    .text.raw_bind:0000000000000008 .L0 
C:\Users\stapi\AppData\Local\Temp\ccxbqhMb.s:279    .text.raw_bind:000000000000000a .L0 
C:\Users\stapi\AppData\Local\Temp\ccxbqhMb.s:281    .text.raw_bind:000000000000000c .L0 
C:\Users\stapi\AppData\Local\Temp\ccxbqhMb.s:283    .text.raw_bind:000000000000000e .L0 
C:\Users\stapi\AppData\Local\Temp\ccxbqhMb.s:284    .text.raw_bind:000000000000000e .L0 
C:\Users\stapi\AppData\Local\Temp\ccxbqhMb.s:287    .text.raw_bind:0000000000000010 .L0 
C:\Users\stapi\AppData\Local\Temp\ccxbqhMb.s:288    .text.raw_bind:0000000000000012 .L0 
C:\Users\stapi\AppData\Local\Temp\ccxbqhMb.s:295    .text.raw_bind_netif:0000000000000000 raw_bind_netif
C:\Users\stapi\AppData\Local\Temp\ccxbqhMb.s:298    .text.raw_bind_netif:0000000000000000 .L0 
C:\Users\stapi\AppData\Local\Temp\ccxbqhMb.s:300    .text.raw_bind_netif:0000000000000000 .L0 
C:\Users\stapi\AppData\Local\Temp\ccxbqhMb.s:301    .text.raw_bind_netif:0000000000000000 .L0 
C:\Users\stapi\AppData\Local\Temp\ccxbqhMb.s:302    .text.raw_bind_netif:0000000000000000 .L0 
C:\Users\stapi\AppData\Local\Temp\ccxbqhMb.s:303    .text.raw_bind_netif:0000000000000000 .L0 
C:\Users\stapi\AppData\Local\Temp\ccxbqhMb.s:305    .text.raw_bind_netif:0000000000000002 .L0 
C:\Users\stapi\AppData\Local\Temp\ccxbqhMb.s:307    .text.raw_bind_netif:0000000000000004 .L0 
C:\Users\stapi\AppData\Local\Temp\ccxbqhMb.s:308    .text.raw_bind_netif:0000000000000004 .L0 
C:\Users\stapi\AppData\Local\Temp\ccxbqhMb.s:314    .text.raw_bind_netif:0000000000000012 .L0 
C:\Users\stapi\AppData\Local\Temp\ccxbqhMb.s:315    .text.raw_bind_netif:0000000000000014 .L0 
C:\Users\stapi\AppData\Local\Temp\ccxbqhMb.s:322    .text.raw_connect:0000000000000000 raw_connect
C:\Users\stapi\AppData\Local\Temp\ccxbqhMb.s:325    .text.raw_connect:0000000000000000 .L0 
C:\Users\stapi\AppData\Local\Temp\ccxbqhMb.s:327    .text.raw_connect:0000000000000000 .L0 
C:\Users\stapi\AppData\Local\Temp\ccxbqhMb.s:328    .text.raw_connect:0000000000000000 .L0 
C:\Users\stapi\AppData\Local\Temp\ccxbqhMb.s:329    .text.raw_connect:0000000000000000 .L0 
C:\Users\stapi\AppData\Local\Temp\ccxbqhMb.s:330    .text.raw_connect:0000000000000000 .L0 
C:\Users\stapi\AppData\Local\Temp\ccxbqhMb.s:332    .text.raw_connect:0000000000000002 .L0 
C:\Users\stapi\AppData\Local\Temp\ccxbqhMb.s:335    .text.raw_connect:0000000000000004 .L0 
C:\Users\stapi\AppData\Local\Temp\ccxbqhMb.s:337    .text.raw_connect:0000000000000006 .L0 
C:\Users\stapi\AppData\Local\Temp\ccxbqhMb.s:339    .text.raw_connect:0000000000000008 .L0 
C:\Users\stapi\AppData\Local\Temp\ccxbqhMb.s:341    .text.raw_connect:000000000000000a .L0 
C:\Users\stapi\AppData\Local\Temp\ccxbqhMb.s:343    .text.raw_connect:000000000000000c .L0 
C:\Users\stapi\AppData\Local\Temp\ccxbqhMb.s:345    .text.raw_connect:000000000000000e .L0 
C:\Users\stapi\AppData\Local\Temp\ccxbqhMb.s:346    .text.raw_connect:000000000000000e .L0 
C:\Users\stapi\AppData\Local\Temp\ccxbqhMb.s:350    .text.raw_connect:000000000000001a .L0 
C:\Users\stapi\AppData\Local\Temp\ccxbqhMb.s:351    .text.raw_connect:000000000000001a .L0 
C:\Users\stapi\AppData\Local\Temp\ccxbqhMb.s:352    .text.raw_connect:000000000000001a .L0 
C:\Users\stapi\AppData\Local\Temp\ccxbqhMb.s:355    .text.raw_connect:000000000000001c .L0 
C:\Users\stapi\AppData\Local\Temp\ccxbqhMb.s:356    .text.raw_connect:000000000000001e .L0 
C:\Users\stapi\AppData\Local\Temp\ccxbqhMb.s:363    .text.raw_disconnect:0000000000000000 raw_disconnect
C:\Users\stapi\AppData\Local\Temp\ccxbqhMb.s:366    .text.raw_disconnect:0000000000000000 .L0 
C:\Users\stapi\AppData\Local\Temp\ccxbqhMb.s:368    .text.raw_disconnect:0000000000000000 .L0 
C:\Users\stapi\AppData\Local\Temp\ccxbqhMb.s:369    .text.raw_disconnect:0000000000000000 .L0 
C:\Users\stapi\AppData\Local\Temp\ccxbqhMb.s:370    .text.raw_disconnect:0000000000000000 .L0 
C:\Users\stapi\AppData\Local\Temp\ccxbqhMb.s:371    .text.raw_disconnect:0000000000000000 .L0 
C:\Users\stapi\AppData\Local\Temp\ccxbqhMb.s:373    .text.raw_disconnect:0000000000000004 .L0 
C:\Users\stapi\AppData\Local\Temp\ccxbqhMb.s:375    .text.raw_disconnect:0000000000000008 .L0 
C:\Users\stapi\AppData\Local\Temp\ccxbqhMb.s:376    .text.raw_disconnect:0000000000000008 .L0 
C:\Users\stapi\AppData\Local\Temp\ccxbqhMb.s:378    .text.raw_disconnect:000000000000000c .L0 
C:\Users\stapi\AppData\Local\Temp\ccxbqhMb.s:379    .text.raw_disconnect:000000000000000c .L0 
C:\Users\stapi\AppData\Local\Temp\ccxbqhMb.s:382    .text.raw_disconnect:0000000000000012 .L0 
C:\Users\stapi\AppData\Local\Temp\ccxbqhMb.s:383    .text.raw_disconnect:0000000000000012 .L0 
C:\Users\stapi\AppData\Local\Temp\ccxbqhMb.s:384    .text.raw_disconnect:0000000000000014 .L0 
C:\Users\stapi\AppData\Local\Temp\ccxbqhMb.s:391    .text.raw_recv:0000000000000000 raw_recv
C:\Users\stapi\AppData\Local\Temp\ccxbqhMb.s:394    .text.raw_recv:0000000000000000 .L0 
C:\Users\stapi\AppData\Local\Temp\ccxbqhMb.s:396    .text.raw_recv:0000000000000000 .L0 
C:\Users\stapi\AppData\Local\Temp\ccxbqhMb.s:397    .text.raw_recv:0000000000000000 .L0 
C:\Users\stapi\AppData\Local\Temp\ccxbqhMb.s:398    .text.raw_recv:0000000000000000 .L0 
C:\Users\stapi\AppData\Local\Temp\ccxbqhMb.s:399    .text.raw_recv:0000000000000000 .L0 
C:\Users\stapi\AppData\Local\Temp\ccxbqhMb.s:401    .text.raw_recv:0000000000000002 .L0 
C:\Users\stapi\AppData\Local\Temp\ccxbqhMb.s:402    .text.raw_recv:0000000000000002 .L0 
C:\Users\stapi\AppData\Local\Temp\ccxbqhMb.s:404    .text.raw_recv:0000000000000004 .L0 
C:\Users\stapi\AppData\Local\Temp\ccxbqhMb.s:405    .text.raw_recv:0000000000000006 .L0 
C:\Users\stapi\AppData\Local\Temp\ccxbqhMb.s:416    .text.raw_sendto_if_src:0000000000000000 raw_sendto_if_src
C:\Users\stapi\AppData\Local\Temp\ccxbqhMb.s:419    .text.raw_sendto_if_src:0000000000000000 .L0 
C:\Users\stapi\AppData\Local\Temp\ccxbqhMb.s:421    .text.raw_sendto_if_src:0000000000000000 .L0 
C:\Users\stapi\AppData\Local\Temp\ccxbqhMb.s:422    .text.raw_sendto_if_src:0000000000000008 .L0 
C:\Users\stapi\AppData\Local\Temp\ccxbqhMb.s:423    .text.raw_sendto_if_src:0000000000000008 .L0 
C:\Users\stapi\AppData\Local\Temp\ccxbqhMb.s:424    .text.raw_sendto_if_src:0000000000000008 .L0 
C:\Users\stapi\AppData\Local\Temp\ccxbqhMb.s:425    .text.raw_sendto_if_src:0000000000000008 .L0 
C:\Users\stapi\AppData\Local\Temp\ccxbqhMb.s:426    .text.raw_sendto_if_src:0000000000000008 .L0 
C:\Users\stapi\AppData\Local\Temp\ccxbqhMb.s:427    .text.raw_sendto_if_src:0000000000000008 .L0 
C:\Users\stapi\AppData\Local\Temp\ccxbqhMb.s:428    .text.raw_sendto_if_src:0000000000000008 .L0 
C:\Users\stapi\AppData\Local\Temp\ccxbqhMb.s:429    .text.raw_sendto_if_src:0000000000000008 .L0 
C:\Users\stapi\AppData\Local\Temp\ccxbqhMb.s:431    .text.raw_sendto_if_src:0000000000000008 .L0 
C:\Users\stapi\AppData\Local\Temp\ccxbqhMb.s:432    .text.raw_sendto_if_src:0000000000000008 .L0 
C:\Users\stapi\AppData\Local\Temp\ccxbqhMb.s:433    .text.raw_sendto_if_src:0000000000000008 .L0 
C:\Users\stapi\AppData\Local\Temp\ccxbqhMb.s:434    .text.raw_sendto_if_src:0000000000000008 .L0 
C:\Users\stapi\AppData\Local\Temp\ccxbqhMb.s:435    .text.raw_sendto_if_src:0000000000000008 .L0 
C:\Users\stapi\AppData\Local\Temp\ccxbqhMb.s:436    .text.raw_sendto_if_src:0000000000000008 .L0 
C:\Users\stapi\AppData\Local\Temp\ccxbqhMb.s:437    .text.raw_sendto_if_src:0000000000000008 .L0 
C:\Users\stapi\AppData\Local\Temp\ccxbqhMb.s:440    .text.raw_sendto_if_src:000000000000000e .L0 
C:\Users\stapi\AppData\Local\Temp\ccxbqhMb.s:443    .text.raw_sendto_if_src:0000000000000014 .L0 
C:\Users\stapi\AppData\Local\Temp\ccxbqhMb.s:446    .text.raw_sendto_if_src:000000000000001a .L0 
C:\Users\stapi\AppData\Local\Temp\ccxbqhMb.s:448    .text.raw_sendto_if_src:000000000000001e .L0 
C:\Users\stapi\AppData\Local\Temp\ccxbqhMb.s:453    .text.raw_sendto_if_src:0000000000000026 .L0 
C:\Users\stapi\AppData\Local\Temp\ccxbqhMb.s:454    .text.raw_sendto_if_src:0000000000000026 .L0 
C:\Users\stapi\AppData\Local\Temp\ccxbqhMb.s:455    .text.raw_sendto_if_src:0000000000000026 .L0 
C:\Users\stapi\AppData\Local\Temp\ccxbqhMb.s:458    .text.raw_sendto_if_src:000000000000002a .L0 
C:\Users\stapi\AppData\Local\Temp\ccxbqhMb.s:459    .text.raw_sendto_if_src:000000000000002a .L0 
C:\Users\stapi\AppData\Local\Temp\ccxbqhMb.s:463    .text.raw_sendto_if_src:0000000000000030 .L0 
C:\Users\stapi\AppData\Local\Temp\ccxbqhMb.s:465    .text.raw_sendto_if_src:0000000000000032 .L0 
C:\Users\stapi\AppData\Local\Temp\ccxbqhMb.s:467    .text.raw_sendto_if_src:0000000000000036 .L0 
C:\Users\stapi\AppData\Local\Temp\ccxbqhMb.s:468    .text.raw_sendto_if_src:0000000000000036 .L0 
C:\Users\stapi\AppData\Local\Temp\ccxbqhMb.s:469    .text.raw_sendto_if_src:0000000000000036 .L0 
C:\Users\stapi\AppData\Local\Temp\ccxbqhMb.s:485    .text.raw_sendto_if_src:000000000000004e .L0 
C:\Users\stapi\AppData\Local\Temp\ccxbqhMb.s:487    .text.raw_sendto_if_src:000000000000004e .L0 
C:\Users\stapi\AppData\Local\Temp\ccxbqhMb.s:488    .text.raw_sendto_if_src:000000000000004e .L0 
C:\Users\stapi\AppData\Local\Temp\ccxbqhMb.s:490    .text.raw_sendto_if_src:0000000000000058 .L0 
C:\Users\stapi\AppData\Local\Temp\ccxbqhMb.s:491    .text.raw_sendto_if_src:0000000000000058 .L0 
C:\Users\stapi\AppData\Local\Temp\ccxbqhMb.s:492    .text.raw_sendto_if_src:0000000000000058 .L0 
C:\Users\stapi\AppData\Local\Temp\ccxbqhMb.s:493    .text.raw_sendto_if_src:0000000000000058 .L0 
C:\Users\stapi\AppData\Local\Temp\ccxbqhMb.s:494    .text.raw_sendto_if_src:0000000000000058 .L0 
C:\Users\stapi\AppData\Local\Temp\ccxbqhMb.s:495    .text.raw_sendto_if_src:0000000000000058 .L0 
C:\Users\stapi\AppData\Local\Temp\ccxbqhMb.s:496    .text.raw_sendto_if_src:0000000000000058 .L0 
C:\Users\stapi\AppData\Local\Temp\ccxbqhMb.s:497    .text.raw_sendto_if_src:0000000000000058 .L0 
C:\Users\stapi\AppData\Local\Temp\ccxbqhMb.s:498    .text.raw_sendto_if_src:0000000000000058 .L0 
C:\Users\stapi\AppData\Local\Temp\ccxbqhMb.s:501    .text.raw_sendto_if_src:0000000000000058 .L0 
C:\Users\stapi\AppData\Local\Temp\ccxbqhMb.s:503    .text.raw_sendto_if_src:0000000000000058 .L0 
C:\Users\stapi\AppData\Local\Temp\ccxbqhMb.s:504    .text.raw_sendto_if_src:0000000000000058 .L0 
C:\Users\stapi\AppData\Local\Temp\ccxbqhMb.s:512    .text.raw_sendto_if_src:0000000000000064 .L0 
C:\Users\stapi\AppData\Local\Temp\ccxbqhMb.s:518    .text.raw_sendto_if_src:0000000000000068 .L0 
C:\Users\stapi\AppData\Local\Temp\ccxbqhMb.s:519    .text.raw_sendto_if_src:0000000000000068 .L0 
C:\Users\stapi\AppData\Local\Temp\ccxbqhMb.s:524    .text.raw_sendto_if_src:0000000000000074 .L0 
C:\Users\stapi\AppData\Local\Temp\ccxbqhMb.s:526    .text.raw_sendto_if_src:0000000000000076 .L0 
C:\Users\stapi\AppData\Local\Temp\ccxbqhMb.s:527    .text.raw_sendto_if_src:0000000000000076 .L0 
C:\Users\stapi\AppData\Local\Temp\ccxbqhMb.s:535    .text.raw_sendto_if_src:000000000000008a .L0 
C:\Users\stapi\AppData\Local\Temp\ccxbqhMb.s:536    .text.raw_sendto_if_src:000000000000008a .L0 
C:\Users\stapi\AppData\Local\Temp\ccxbqhMb.s:538    .text.raw_sendto_if_src:000000000000008c .L0 
C:\Users\stapi\AppData\Local\Temp\ccxbqhMb.s:539    .text.raw_sendto_if_src:000000000000008c .L0 
C:\Users\stapi\AppData\Local\Temp\ccxbqhMb.s:542    .text.raw_sendto_if_src:0000000000000092 .L0 
C:\Users\stapi\AppData\Local\Temp\ccxbqhMb.s:547    .text.raw_sendto_if_src:000000000000009c .L0 
C:\Users\stapi\AppData\Local\Temp\ccxbqhMb.s:548    .text.raw_sendto_if_src:000000000000009c .L0 
C:\Users\stapi\AppData\Local\Temp\ccxbqhMb.s:550    .text.raw_sendto_if_src:00000000000000a0 .L0 
C:\Users\stapi\AppData\Local\Temp\ccxbqhMb.s:552    .text.raw_sendto_if_src:00000000000000a4 .L0 
C:\Users\stapi\AppData\Local\Temp\ccxbqhMb.s:554    .text.raw_sendto_if_src:00000000000000a6 .L0 
C:\Users\stapi\AppData\Local\Temp\ccxbqhMb.s:556    .text.raw_sendto_if_src:00000000000000aa .L0 
C:\Users\stapi\AppData\Local\Temp\ccxbqhMb.s:558    .text.raw_sendto_if_src:00000000000000ac .L0 
C:\Users\stapi\AppData\Local\Temp\ccxbqhMb.s:561    .text.raw_sendto_if_src:00000000000000b4 .L0 
C:\Users\stapi\AppData\Local\Temp\ccxbqhMb.s:562    .text.raw_sendto_if_src:00000000000000b4 .L0 
C:\Users\stapi\AppData\Local\Temp\ccxbqhMb.s:567    .text.raw_sendto_if_src:00000000000000c0 .L0 
C:\Users\stapi\AppData\Local\Temp\ccxbqhMb.s:568    .text.raw_sendto_if_src:00000000000000c0 .L0 
C:\Users\stapi\AppData\Local\Temp\ccxbqhMb.s:572    .text.raw_sendto_if_src:00000000000000c4 .L0 
C:\Users\stapi\AppData\Local\Temp\ccxbqhMb.s:573    .text.raw_sendto_if_src:00000000000000c4 .L0 
C:\Users\stapi\AppData\Local\Temp\ccxbqhMb.s:574    .text.raw_sendto_if_src:00000000000000c4 .L0 
C:\Users\stapi\AppData\Local\Temp\ccxbqhMb.s:585    .text.raw_sendto_if_src:00000000000000de .L0 
C:\Users\stapi\AppData\Local\Temp\ccxbqhMb.s:586    .text.raw_sendto_if_src:00000000000000de .L0 
C:\Users\stapi\AppData\Local\Temp\ccxbqhMb.s:587    .text.raw_sendto_if_src:00000000000000de .L0 
C:\Users\stapi\AppData\Local\Temp\ccxbqhMb.s:589    .text.raw_sendto_if_src:00000000000000e2 .L0 
C:\Users\stapi\AppData\Local\Temp\ccxbqhMb.s:596    .text.raw_sendto_if_src:00000000000000ee .L0 
C:\Users\stapi\AppData\Local\Temp\ccxbqhMb.s:597    .text.raw_sendto_if_src:00000000000000ee .L0 
C:\Users\stapi\AppData\Local\Temp\ccxbqhMb.s:598    .text.raw_sendto_if_src:00000000000000ee .L0 
C:\Users\stapi\AppData\Local\Temp\ccxbqhMb.s:604    .text.raw_sendto_if_src:00000000000000fc .L0 
C:\Users\stapi\AppData\Local\Temp\ccxbqhMb.s:606    .text.raw_sendto_if_src:00000000000000fe .L0 
C:\Users\stapi\AppData\Local\Temp\ccxbqhMb.s:607    .text.raw_sendto_if_src:00000000000000fe .L0 
C:\Users\stapi\AppData\Local\Temp\ccxbqhMb.s:608    .text.raw_sendto_if_src:00000000000000fe .L0 
C:\Users\stapi\AppData\Local\Temp\ccxbqhMb.s:609    .text.raw_sendto_if_src:00000000000000fe .L0 
C:\Users\stapi\AppData\Local\Temp\ccxbqhMb.s:620    .text.raw_sendto_if_src:0000000000000122 .L0 
C:\Users\stapi\AppData\Local\Temp\ccxbqhMb.s:621    .text.raw_sendto_if_src:0000000000000122 .L0 
C:\Users\stapi\AppData\Local\Temp\ccxbqhMb.s:622    .text.raw_sendto_if_src:0000000000000122 .L0 
C:\Users\stapi\AppData\Local\Temp\ccxbqhMb.s:626    .text.raw_sendto_if_src:0000000000000124 .L0 
C:\Users\stapi\AppData\Local\Temp\ccxbqhMb.s:627    .text.raw_sendto_if_src:0000000000000124 .L0 
C:\Users\stapi\AppData\Local\Temp\ccxbqhMb.s:631    .text.raw_sendto_if_src:000000000000012c .L0 
C:\Users\stapi\AppData\Local\Temp\ccxbqhMb.s:636    .text.raw_sendto_if_src:0000000000000132 .L0 
C:\Users\stapi\AppData\Local\Temp\ccxbqhMb.s:638    .text.raw_sendto_if_src:0000000000000136 .L0 
C:\Users\stapi\AppData\Local\Temp\ccxbqhMb.s:645    .text.raw_sendto:0000000000000000 raw_sendto
C:\Users\stapi\AppData\Local\Temp\ccxbqhMb.s:648    .text.raw_sendto:0000000000000000 .L0 
C:\Users\stapi\AppData\Local\Temp\ccxbqhMb.s:650    .text.raw_sendto:0000000000000000 .L0 
C:\Users\stapi\AppData\Local\Temp\ccxbqhMb.s:651    .text.raw_sendto:0000000000000000 .L0 
C:\Users\stapi\AppData\Local\Temp\ccxbqhMb.s:652    .text.raw_sendto:0000000000000000 .L0 
C:\Users\stapi\AppData\Local\Temp\ccxbqhMb.s:653    .text.raw_sendto:0000000000000000 .L0 
C:\Users\stapi\AppData\Local\Temp\ccxbqhMb.s:654    .text.raw_sendto:0000000000000000 .L0 
C:\Users\stapi\AppData\Local\Temp\ccxbqhMb.s:656    .text.raw_sendto:0000000000000002 .L0 
C:\Users\stapi\AppData\Local\Temp\ccxbqhMb.s:657    .text.raw_sendto:000000000000000a .L0 
C:\Users\stapi\AppData\Local\Temp\ccxbqhMb.s:658    .text.raw_sendto:000000000000000a .L0 
C:\Users\stapi\AppData\Local\Temp\ccxbqhMb.s:659    .text.raw_sendto:000000000000000a .L0 
C:\Users\stapi\AppData\Local\Temp\ccxbqhMb.s:660    .text.raw_sendto:000000000000000a .L0 
C:\Users\stapi\AppData\Local\Temp\ccxbqhMb.s:661    .text.raw_sendto:000000000000000a .L0 
C:\Users\stapi\AppData\Local\Temp\ccxbqhMb.s:665    .text.raw_sendto:000000000000000e .L0 
C:\Users\stapi\AppData\Local\Temp\ccxbqhMb.s:668    .text.raw_sendto:0000000000000010 .L0 
C:\Users\stapi\AppData\Local\Temp\ccxbqhMb.s:670    .text.raw_sendto:0000000000000012 .L0 
C:\Users\stapi\AppData\Local\Temp\ccxbqhMb.s:673    .text.raw_sendto:0000000000000018 .L0 
C:\Users\stapi\AppData\Local\Temp\ccxbqhMb.s:674    .text.raw_sendto:0000000000000018 .L0 
C:\Users\stapi\AppData\Local\Temp\ccxbqhMb.s:675    .text.raw_sendto:0000000000000018 .L0 
C:\Users\stapi\AppData\Local\Temp\ccxbqhMb.s:677    .text.raw_sendto:000000000000001a .L0 
C:\Users\stapi\AppData\Local\Temp\ccxbqhMb.s:678    .text.raw_sendto:000000000000001a .L0 
C:\Users\stapi\AppData\Local\Temp\ccxbqhMb.s:682    .text.raw_sendto:0000000000000022 .L0 
C:\Users\stapi\AppData\Local\Temp\ccxbqhMb.s:685    .text.raw_sendto:0000000000000024 .L0 
C:\Users\stapi\AppData\Local\Temp\ccxbqhMb.s:686    .text.raw_sendto:0000000000000024 .L0 
C:\Users\stapi\AppData\Local\Temp\ccxbqhMb.s:689    .text.raw_sendto:0000000000000026 .L0 
C:\Users\stapi\AppData\Local\Temp\ccxbqhMb.s:692    .text.raw_sendto:0000000000000028 .L0 
C:\Users\stapi\AppData\Local\Temp\ccxbqhMb.s:693    .text.raw_sendto:0000000000000028 .L0 
C:\Users\stapi\AppData\Local\Temp\ccxbqhMb.s:696    .text.raw_sendto:000000000000002c .L0 
C:\Users\stapi\AppData\Local\Temp\ccxbqhMb.s:698    .text.raw_sendto:0000000000000030 .L0 
C:\Users\stapi\AppData\Local\Temp\ccxbqhMb.s:701    .text.raw_sendto:0000000000000038 .L0 
C:\Users\stapi\AppData\Local\Temp\ccxbqhMb.s:705    .text.raw_sendto:000000000000003a .L0 
C:\Users\stapi\AppData\Local\Temp\ccxbqhMb.s:706    .text.raw_sendto:000000000000003a .L0 
C:\Users\stapi\AppData\Local\Temp\ccxbqhMb.s:713    .text.raw_sendto:0000000000000048 .L0 
C:\Users\stapi\AppData\Local\Temp\ccxbqhMb.s:714    .text.raw_sendto:0000000000000050 .L0 
C:\Users\stapi\AppData\Local\Temp\ccxbqhMb.s:715    .text.raw_sendto:0000000000000050 .L0 
C:\Users\stapi\AppData\Local\Temp\ccxbqhMb.s:716    .text.raw_sendto:0000000000000050 .L0 
C:\Users\stapi\AppData\Local\Temp\ccxbqhMb.s:717    .text.raw_sendto:0000000000000050 .L0 
C:\Users\stapi\AppData\Local\Temp\ccxbqhMb.s:718    .text.raw_sendto:0000000000000050 .L0 
C:\Users\stapi\AppData\Local\Temp\ccxbqhMb.s:719    .text.raw_sendto:0000000000000050 .L0 
C:\Users\stapi\AppData\Local\Temp\ccxbqhMb.s:722    .text.raw_sendto:0000000000000050 .L0 
C:\Users\stapi\AppData\Local\Temp\ccxbqhMb.s:724    .text.raw_sendto:0000000000000050 .L0 
C:\Users\stapi\AppData\Local\Temp\ccxbqhMb.s:725    .text.raw_sendto:0000000000000050 .L0 
C:\Users\stapi\AppData\Local\Temp\ccxbqhMb.s:726    .text.raw_sendto:0000000000000050 .L0 
C:\Users\stapi\AppData\Local\Temp\ccxbqhMb.s:728    .text.raw_sendto:0000000000000052 .L0 
C:\Users\stapi\AppData\Local\Temp\ccxbqhMb.s:730    .text.raw_sendto:0000000000000056 .L0 
C:\Users\stapi\AppData\Local\Temp\ccxbqhMb.s:732    .text.raw_sendto:000000000000005a .L0 
C:\Users\stapi\AppData\Local\Temp\ccxbqhMb.s:736    .text.raw_sendto:000000000000005e .L0 
C:\Users\stapi\AppData\Local\Temp\ccxbqhMb.s:737    .text.raw_sendto:000000000000005e .L0 
C:\Users\stapi\AppData\Local\Temp\ccxbqhMb.s:744    .text.raw_sendto:000000000000006a .L0 
C:\Users\stapi\AppData\Local\Temp\ccxbqhMb.s:745    .text.raw_sendto:000000000000006a .L0 
C:\Users\stapi\AppData\Local\Temp\ccxbqhMb.s:751    .text.raw_sendto:0000000000000078 .L0 
C:\Users\stapi\AppData\Local\Temp\ccxbqhMb.s:752    .text.raw_sendto:0000000000000078 .L0 
C:\Users\stapi\AppData\Local\Temp\ccxbqhMb.s:757    .text.raw_sendto:000000000000007c .L0 
C:\Users\stapi\AppData\Local\Temp\ccxbqhMb.s:758    .text.raw_sendto:000000000000007c .L0 
C:\Users\stapi\AppData\Local\Temp\ccxbqhMb.s:761    .text.raw_sendto:0000000000000080 .L0 
C:\Users\stapi\AppData\Local\Temp\ccxbqhMb.s:764    .text.raw_sendto:0000000000000082 .L0 
C:\Users\stapi\AppData\Local\Temp\ccxbqhMb.s:765    .text.raw_sendto:0000000000000082 .L0 
C:\Users\stapi\AppData\Local\Temp\ccxbqhMb.s:766    .text.raw_sendto:0000000000000082 .L0 
C:\Users\stapi\AppData\Local\Temp\ccxbqhMb.s:767    .text.raw_sendto:0000000000000082 .L0 
C:\Users\stapi\AppData\Local\Temp\ccxbqhMb.s:768    .text.raw_sendto:0000000000000082 .L0 
C:\Users\stapi\AppData\Local\Temp\ccxbqhMb.s:770    .text.raw_sendto:0000000000000082 .L0 
C:\Users\stapi\AppData\Local\Temp\ccxbqhMb.s:773    .text.raw_sendto:0000000000000084 .L0 
C:\Users\stapi\AppData\Local\Temp\ccxbqhMb.s:774    .text.raw_sendto:0000000000000086 .L0 
C:\Users\stapi\AppData\Local\Temp\ccxbqhMb.s:781    .text.raw_send:0000000000000000 raw_send
C:\Users\stapi\AppData\Local\Temp\ccxbqhMb.s:784    .text.raw_send:0000000000000000 .L0 
C:\Users\stapi\AppData\Local\Temp\ccxbqhMb.s:786    .text.raw_send:0000000000000000 .L0 
C:\Users\stapi\AppData\Local\Temp\ccxbqhMb.s:787    .text.raw_send:0000000000000000 .L0 
C:\Users\stapi\AppData\Local\Temp\ccxbqhMb.s:788    .text.raw_send:0000000000000000 .L0 
C:\Users\stapi\AppData\Local\Temp\ccxbqhMb.s:791    .text.raw_send:000000000000000c .L0 
C:\Users\stapi\AppData\Local\Temp\ccxbqhMb.s:798    .text.raw_remove:0000000000000000 raw_remove
C:\Users\stapi\AppData\Local\Temp\ccxbqhMb.s:801    .text.raw_remove:0000000000000000 .L0 
C:\Users\stapi\AppData\Local\Temp\ccxbqhMb.s:803    .text.raw_remove:0000000000000000 .L0 
C:\Users\stapi\AppData\Local\Temp\ccxbqhMb.s:804    .text.raw_remove:0000000000000000 .L0 
C:\Users\stapi\AppData\Local\Temp\ccxbqhMb.s:805    .text.raw_remove:0000000000000000 .L0 
C:\Users\stapi\AppData\Local\Temp\ccxbqhMb.s:806    .text.raw_remove:0000000000000000 .L0 
C:\Users\stapi\AppData\Local\Temp\ccxbqhMb.s:807    .text.raw_remove:0000000000000000 .L0 
C:\Users\stapi\AppData\Local\Temp\ccxbqhMb.s:811    .text.raw_remove:000000000000000a .L0 
C:\Users\stapi\AppData\Local\Temp\ccxbqhMb.s:813    .text.raw_remove:000000000000000c .L0 
C:\Users\stapi\AppData\Local\Temp\ccxbqhMb.s:815    .text.raw_remove:0000000000000010 .L0 
C:\Users\stapi\AppData\Local\Temp\ccxbqhMb.s:816    .text.raw_remove:0000000000000010 .L0 
C:\Users\stapi\AppData\Local\Temp\ccxbqhMb.s:820    .text.raw_remove:0000000000000014 .L0 
C:\Users\stapi\AppData\Local\Temp\ccxbqhMb.s:829    .text.raw_remove:0000000000000020 .L0 
C:\Users\stapi\AppData\Local\Temp\ccxbqhMb.s:830    .text.raw_remove:0000000000000020 .L0 
C:\Users\stapi\AppData\Local\Temp\ccxbqhMb.s:832    .text.raw_remove:0000000000000022 .L0 
C:\Users\stapi\AppData\Local\Temp\ccxbqhMb.s:833    .text.raw_remove:0000000000000022 .L0 
C:\Users\stapi\AppData\Local\Temp\ccxbqhMb.s:835    .text.raw_remove:0000000000000024 .L0 
C:\Users\stapi\AppData\Local\Temp\ccxbqhMb.s:837    .text.raw_remove:0000000000000026 .L0 
C:\Users\stapi\AppData\Local\Temp\ccxbqhMb.s:839    .text.raw_remove:000000000000002a .L0 
C:\Users\stapi\AppData\Local\Temp\ccxbqhMb.s:840    .text.raw_remove:000000000000002a .L0 
C:\Users\stapi\AppData\Local\Temp\ccxbqhMb.s:842    .text.raw_remove:000000000000002c .L0 
C:\Users\stapi\AppData\Local\Temp\ccxbqhMb.s:844    .text.raw_remove:000000000000002e .L0 
C:\Users\stapi\AppData\Local\Temp\ccxbqhMb.s:845    .text.raw_remove:0000000000000030 .L0 
C:\Users\stapi\AppData\Local\Temp\ccxbqhMb.s:852    .text.raw_new:0000000000000000 raw_new
C:\Users\stapi\AppData\Local\Temp\ccxbqhMb.s:855    .text.raw_new:0000000000000000 .L0 
C:\Users\stapi\AppData\Local\Temp\ccxbqhMb.s:857    .text.raw_new:0000000000000000 .L0 
C:\Users\stapi\AppData\Local\Temp\ccxbqhMb.s:858    .text.raw_new:0000000000000008 .L0 
C:\Users\stapi\AppData\Local\Temp\ccxbqhMb.s:859    .text.raw_new:0000000000000008 .L0 
C:\Users\stapi\AppData\Local\Temp\ccxbqhMb.s:860    .text.raw_new:0000000000000008 .L0 
C:\Users\stapi\AppData\Local\Temp\ccxbqhMb.s:861    .text.raw_new:0000000000000008 .L0 
C:\Users\stapi\AppData\Local\Temp\ccxbqhMb.s:863    .text.raw_new:0000000000000008 .L0 
C:\Users\stapi\AppData\Local\Temp\ccxbqhMb.s:864    .text.raw_new:0000000000000008 .L0 
C:\Users\stapi\AppData\Local\Temp\ccxbqhMb.s:865    .text.raw_new:0000000000000008 .L0 
C:\Users\stapi\AppData\Local\Temp\ccxbqhMb.s:866    .text.raw_new:0000000000000008 .L0 
C:\Users\stapi\AppData\Local\Temp\ccxbqhMb.s:867    .text.raw_new:0000000000000008 .L0 
C:\Users\stapi\AppData\Local\Temp\ccxbqhMb.s:869    .text.raw_new:000000000000000a .L0 
C:\Users\stapi\AppData\Local\Temp\ccxbqhMb.s:876    .text.raw_new:0000000000000016 .L0 
C:\Users\stapi\AppData\Local\Temp\ccxbqhMb.s:877    .text.raw_new:0000000000000016 .L0 
C:\Users\stapi\AppData\Local\Temp\ccxbqhMb.s:879    .text.raw_new:0000000000000018 .L0 
C:\Users\stapi\AppData\Local\Temp\ccxbqhMb.s:884    .text.raw_new:0000000000000024 .L0 
C:\Users\stapi\AppData\Local\Temp\ccxbqhMb.s:885    .text.raw_new:0000000000000024 .L0 
C:\Users\stapi\AppData\Local\Temp\ccxbqhMb.s:888    .text.raw_new:000000000000002a .L0 
C:\Users\stapi\AppData\Local\Temp\ccxbqhMb.s:890    .text.raw_new:000000000000002e .L0 
C:\Users\stapi\AppData\Local\Temp\ccxbqhMb.s:894    .text.raw_new:0000000000000038 .L0 
C:\Users\stapi\AppData\Local\Temp\ccxbqhMb.s:896    .text.raw_new:000000000000003c .L0 
C:\Users\stapi\AppData\Local\Temp\ccxbqhMb.s:897    .text.raw_new:000000000000003c .L0 
C:\Users\stapi\AppData\Local\Temp\ccxbqhMb.s:898    .text.raw_new:000000000000003c .L0 
C:\Users\stapi\AppData\Local\Temp\ccxbqhMb.s:899    .text.raw_new:000000000000003c .L0 
C:\Users\stapi\AppData\Local\Temp\ccxbqhMb.s:901    .text.raw_new:000000000000003e .L0 
C:\Users\stapi\AppData\Local\Temp\ccxbqhMb.s:903    .text.raw_new:0000000000000040 .L0 
C:\Users\stapi\AppData\Local\Temp\ccxbqhMb.s:905    .text.raw_new:0000000000000040 .L0 
C:\Users\stapi\AppData\Local\Temp\ccxbqhMb.s:906    .text.raw_new:0000000000000040 .L0 
C:\Users\stapi\AppData\Local\Temp\ccxbqhMb.s:908    .text.raw_new:000000000000004a .L0 
C:\Users\stapi\AppData\Local\Temp\ccxbqhMb.s:909    .text.raw_new:000000000000004a .L0 
C:\Users\stapi\AppData\Local\Temp\ccxbqhMb.s:910    .text.raw_new:000000000000004a .L0 
C:\Users\stapi\AppData\Local\Temp\ccxbqhMb.s:911    .text.raw_new:000000000000004a .L0 
C:\Users\stapi\AppData\Local\Temp\ccxbqhMb.s:912    .text.raw_new:000000000000004a .L0 
C:\Users\stapi\AppData\Local\Temp\ccxbqhMb.s:919    .text.raw_new_ip_type:0000000000000000 raw_new_ip_type
C:\Users\stapi\AppData\Local\Temp\ccxbqhMb.s:922    .text.raw_new_ip_type:0000000000000000 .L0 
C:\Users\stapi\AppData\Local\Temp\ccxbqhMb.s:924    .text.raw_new_ip_type:0000000000000000 .L0 
C:\Users\stapi\AppData\Local\Temp\ccxbqhMb.s:925    .text.raw_new_ip_type:0000000000000000 .L0 
C:\Users\stapi\AppData\Local\Temp\ccxbqhMb.s:926    .text.raw_new_ip_type:0000000000000000 .L0 
C:\Users\stapi\AppData\Local\Temp\ccxbqhMb.s:927    .text.raw_new_ip_type:0000000000000000 .L0 
C:\Users\stapi\AppData\Local\Temp\ccxbqhMb.s:928    .text.raw_new_ip_type:0000000000000000 .L0 
C:\Users\stapi\AppData\Local\Temp\ccxbqhMb.s:933    .text.raw_new_ip_type:000000000000000a .L0 
C:\Users\stapi\AppData\Local\Temp\ccxbqhMb.s:934    .text.raw_new_ip_type:000000000000000a .L0 
C:\Users\stapi\AppData\Local\Temp\ccxbqhMb.s:941    .text.raw_netif_ip_addr_changed:0000000000000000 raw_netif_ip_addr_changed
C:\Users\stapi\AppData\Local\Temp\ccxbqhMb.s:943    .text.raw_netif_ip_addr_changed:0000000000000000 .L0 
C:\Users\stapi\AppData\Local\Temp\ccxbqhMb.s:944    .text.raw_netif_ip_addr_changed:0000000000000000 .L0 
C:\Users\stapi\AppData\Local\Temp\ccxbqhMb.s:946    .text.raw_netif_ip_addr_changed:0000000000000000 .L0 
C:\Users\stapi\AppData\Local\Temp\ccxbqhMb.s:947    .text.raw_netif_ip_addr_changed:0000000000000000 .L0 
C:\Users\stapi\AppData\Local\Temp\ccxbqhMb.s:948    .text.raw_netif_ip_addr_changed:0000000000000000 .L0 
C:\Users\stapi\AppData\Local\Temp\ccxbqhMb.s:949    .text.raw_netif_ip_addr_changed:0000000000000000 .L0 
C:\Users\stapi\AppData\Local\Temp\ccxbqhMb.s:951    .text.raw_netif_ip_addr_changed:0000000000000002 .L0 
C:\Users\stapi\AppData\Local\Temp\ccxbqhMb.s:954    .text.raw_netif_ip_addr_changed:0000000000000006 .L0 
C:\Users\stapi\AppData\Local\Temp\ccxbqhMb.s:956    .text.raw_netif_ip_addr_changed:0000000000000008 .L0 
C:\Users\stapi\AppData\Local\Temp\ccxbqhMb.s:959    .text.raw_netif_ip_addr_changed:000000000000000c .L0 
C:\Users\stapi\AppData\Local\Temp\ccxbqhMb.s:960    .text.raw_netif_ip_addr_changed:000000000000000c .L0 
C:\Users\stapi\AppData\Local\Temp\ccxbqhMb.s:965    .text.raw_netif_ip_addr_changed:0000000000000014 .L0 
C:\Users\stapi\AppData\Local\Temp\ccxbqhMb.s:966    .text.raw_netif_ip_addr_changed:0000000000000014 .L0 
C:\Users\stapi\AppData\Local\Temp\ccxbqhMb.s:970    .text.raw_netif_ip_addr_changed:0000000000000016 .L0 
C:\Users\stapi\AppData\Local\Temp\ccxbqhMb.s:974    .text.raw_netif_ip_addr_changed:0000000000000018 .L0 
C:\Users\stapi\AppData\Local\Temp\ccxbqhMb.s:975    .text.raw_netif_ip_addr_changed:0000000000000018 .L0 
C:\Users\stapi\AppData\Local\Temp\ccxbqhMb.s:979    .text.raw_netif_ip_addr_changed:0000000000000020 .L0 
C:\Users\stapi\AppData\Local\Temp\ccxbqhMb.s:983    .text.raw_netif_ip_addr_changed:0000000000000024 .L0 
C:\Users\stapi\AppData\Local\Temp\ccxbqhMb.s:984    .text.raw_netif_ip_addr_changed:0000000000000024 .L0 
C:\Users\stapi\AppData\Local\Temp\ccxbqhMb.s:987    .text.raw_netif_ip_addr_changed:0000000000000028 .L0 
C:\Users\stapi\AppData\Local\Temp\ccxbqhMb.s:992    .sbss.raw_pcbs:0000000000000000 .LANCHOR0
C:\Users\stapi\AppData\Local\Temp\ccxbqhMb.s:995    .sbss.raw_pcbs:0000000000000000 raw_pcbs
C:\Users\stapi\AppData\Local\Temp\ccxbqhMb.s:256    .text.raw_input:00000000000000ee .L0 
C:\Users\stapi\AppData\Local\Temp\ccxbqhMb.s:291    .text.raw_bind:0000000000000012 .L0 
C:\Users\stapi\AppData\Local\Temp\ccxbqhMb.s:318    .text.raw_bind_netif:0000000000000014 .L0 
C:\Users\stapi\AppData\Local\Temp\ccxbqhMb.s:359    .text.raw_connect:000000000000001e .L0 
C:\Users\stapi\AppData\Local\Temp\ccxbqhMb.s:387    .text.raw_disconnect:0000000000000014 .L0 
C:\Users\stapi\AppData\Local\Temp\ccxbqhMb.s:408    .text.raw_recv:0000000000000006 .L0 
C:\Users\stapi\AppData\Local\Temp\ccxbqhMb.s:641    .text.raw_sendto_if_src:0000000000000136 .L0 
C:\Users\stapi\AppData\Local\Temp\ccxbqhMb.s:777    .text.raw_sendto:0000000000000086 .L0 
C:\Users\stapi\AppData\Local\Temp\ccxbqhMb.s:794    .text.raw_send:000000000000000c .L0 
C:\Users\stapi\AppData\Local\Temp\ccxbqhMb.s:848    .text.raw_remove:0000000000000030 .L0 
C:\Users\stapi\AppData\Local\Temp\ccxbqhMb.s:915    .text.raw_new:000000000000004a .L0 
C:\Users\stapi\AppData\Local\Temp\ccxbqhMb.s:937    .text.raw_new_ip_type:000000000000000a .L0 
C:\Users\stapi\AppData\Local\Temp\ccxbqhMb.s:990    .text.raw_netif_ip_addr_changed:0000000000000028 .L0 
                     .debug_frame:0000000000000000 .L0 
C:\Users\stapi\AppData\Local\Temp\ccxbqhMb.s:11     .rodata.raw_input.str1.4:0000000000000000 .LC0
C:\Users\stapi\AppData\Local\Temp\ccxbqhMb.s:14     .rodata.raw_input.str1.4:0000000000000080 .LC1
C:\Users\stapi\AppData\Local\Temp\ccxbqhMb.s:17     .rodata.raw_input.str1.4:00000000000000cc .LC2
C:\Users\stapi\AppData\Local\Temp\ccxbqhMb.s:180    .text.raw_input:00000000000000a6 .L1
C:\Users\stapi\AppData\Local\Temp\ccxbqhMb.s:208    .text.raw_input:00000000000000b8 .L3
C:\Users\stapi\AppData\Local\Temp\ccxbqhMb.s:110    .text.raw_input:0000000000000060 .L4
C:\Users\stapi\AppData\Local\Temp\ccxbqhMb.s:197    .text.raw_input:00000000000000ae .L5
C:\Users\stapi\AppData\Local\Temp\ccxbqhMb.s:132    .text.raw_input:000000000000007a .L7
C:\Users\stapi\AppData\Local\Temp\ccxbqhMb.s:223    .text.raw_input:00000000000000be .L8
C:\Users\stapi\AppData\Local\Temp\ccxbqhMb.s:120    .text.raw_input:0000000000000068 .L6
C:\Users\stapi\AppData\Local\Temp\ccxbqhMb.s:87     .text.raw_input:000000000000003e .L2
C:\Users\stapi\AppData\Local\Temp\ccxbqhMb.s:247    .text.raw_input:00000000000000ea .L13
C:\Users\stapi\AppData\Local\Temp\ccxbqhMb.s:241    .text.raw_input:00000000000000e8 .L10
C:\Users\stapi\AppData\Local\Temp\ccxbqhMb.s:285    .text.raw_bind:0000000000000010 .L31
C:\Users\stapi\AppData\Local\Temp\ccxbqhMb.s:311    .text.raw_bind_netif:000000000000000e .L35
C:\Users\stapi\AppData\Local\Temp\ccxbqhMb.s:353    .text.raw_connect:000000000000001c .L38
C:\Users\stapi\AppData\Local\Temp\ccxbqhMb.s:410    .rodata.raw_sendto_if_src.str1.4:0000000000000000 .LC3
C:\Users\stapi\AppData\Local\Temp\ccxbqhMb.s:634    .text.raw_sendto_if_src:0000000000000132 .L58
C:\Users\stapi\AppData\Local\Temp\ccxbqhMb.s:500    .text.raw_sendto_if_src:0000000000000058 .L45
C:\Users\stapi\AppData\Local\Temp\ccxbqhMb.s:486    .text.raw_sendto_if_src:000000000000004e .L44
C:\Users\stapi\AppData\Local\Temp\ccxbqhMb.s:516    .text.raw_sendto_if_src:0000000000000068 .L46
C:\Users\stapi\AppData\Local\Temp\ccxbqhMb.s:594    .text.raw_sendto_if_src:00000000000000ee .L47
C:\Users\stapi\AppData\Local\Temp\ccxbqhMb.s:510    .text.raw_sendto_if_src:0000000000000064 .L48
C:\Users\stapi\AppData\Local\Temp\ccxbqhMb.s:545    .text.raw_sendto_if_src:000000000000009c .L49
C:\Users\stapi\AppData\Local\Temp\ccxbqhMb.s:624    .text.raw_sendto_if_src:0000000000000124 .L51
C:\Users\stapi\AppData\Local\Temp\ccxbqhMb.s:629    .text.raw_sendto_if_src:000000000000012c .L52
C:\Users\stapi\AppData\Local\Temp\ccxbqhMb.s:618    .text.raw_sendto_if_src:0000000000000122 .L50
C:\Users\stapi\AppData\Local\Temp\ccxbqhMb.s:566    .text.raw_sendto_if_src:00000000000000c0 .L53
C:\Users\stapi\AppData\Local\Temp\ccxbqhMb.s:569    .text.raw_sendto_if_src:00000000000000c4 .L54
C:\Users\stapi\AppData\Local\Temp\ccxbqhMb.s:763    .text.raw_sendto:0000000000000082 .L78
C:\Users\stapi\AppData\Local\Temp\ccxbqhMb.s:711    .text.raw_sendto:0000000000000048 .L70
C:\Users\stapi\AppData\Local\Temp\ccxbqhMb.s:721    .text.raw_sendto:0000000000000050 .L71
C:\Users\stapi\AppData\Local\Temp\ccxbqhMb.s:755    .text.raw_sendto:000000000000007c .L76
C:\Users\stapi\AppData\Local\Temp\ccxbqhMb.s:742    .text.raw_sendto:000000000000006a .L73
C:\Users\stapi\AppData\Local\Temp\ccxbqhMb.s:680    .text.raw_sendto:0000000000000022 .L91
C:\Users\stapi\AppData\Local\Temp\ccxbqhMb.s:690    .text.raw_sendto:0000000000000028 .L75
C:\Users\stapi\AppData\Local\Temp\ccxbqhMb.s:734    .text.raw_sendto:000000000000005e .L74
C:\Users\stapi\AppData\Local\Temp\ccxbqhMb.s:702    .text.raw_sendto:000000000000003a .L77
C:\Users\stapi\AppData\Local\Temp\ccxbqhMb.s:827    .text.raw_remove:0000000000000020 .L95
C:\Users\stapi\AppData\Local\Temp\ccxbqhMb.s:818    .text.raw_remove:0000000000000014 .L96
C:\Users\stapi\AppData\Local\Temp\ccxbqhMb.s:824    .text.raw_remove:000000000000001e .L98
C:\Users\stapi\AppData\Local\Temp\ccxbqhMb.s:904    .text.raw_new:0000000000000040 .L104
C:\Users\stapi\AppData\Local\Temp\ccxbqhMb.s:968    .text.raw_netif_ip_addr_changed:0000000000000016 .L112
C:\Users\stapi\AppData\Local\Temp\ccxbqhMb.s:972    .text.raw_netif_ip_addr_changed:0000000000000018 .L117
C:\Users\stapi\AppData\Local\Temp\ccxbqhMb.s:981    .text.raw_netif_ip_addr_changed:0000000000000024 .L116
C:\Users\stapi\AppData\Local\Temp\ccxbqhMb.s:963    .text.raw_netif_ip_addr_changed:0000000000000014 .L115
C:\Users\stapi\AppData\Local\Temp\ccxbqhMb.s:2978   .debug_abbrev:0000000000000000 .Ldebug_abbrev0
C:\Users\stapi\AppData\Local\Temp\ccxbqhMb.s:4932   .debug_str:0000000000000945 .LASF181
C:\Users\stapi\AppData\Local\Temp\ccxbqhMb.s:4740   .debug_str:00000000000003e4 .LASF182
C:\Users\stapi\AppData\Local\Temp\ccxbqhMb.s:4752   .debug_str:00000000000004ae .LASF183
C:\Users\stapi\AppData\Local\Temp\ccxbqhMb.s:4524   .debug_ranges:0000000000000000 .Ldebug_ranges0
C:\Users\stapi\AppData\Local\Temp\ccxbqhMb.s:4570   .debug_line:0000000000000000 .Ldebug_line0
C:\Users\stapi\AppData\Local\Temp\ccxbqhMb.s:4808   .debug_str:000000000000065e .LASF0
C:\Users\stapi\AppData\Local\Temp\ccxbqhMb.s:4916   .debug_str:00000000000008e9 .LASF2
C:\Users\stapi\AppData\Local\Temp\ccxbqhMb.s:4850   .debug_str:000000000000075e .LASF1
C:\Users\stapi\AppData\Local\Temp\ccxbqhMb.s:4886   .debug_str:0000000000000831 .LASF3
C:\Users\stapi\AppData\Local\Temp\ccxbqhMb.s:4782   .debug_str:00000000000005c0 .LASF4
C:\Users\stapi\AppData\Local\Temp\ccxbqhMb.s:4826   .debug_str:00000000000006d1 .LASF5
C:\Users\stapi\AppData\Local\Temp\ccxbqhMb.s:4676   .debug_str:000000000000027f .LASF6
C:\Users\stapi\AppData\Local\Temp\ccxbqhMb.s:4918   .debug_str:00000000000008f5 .LASF7
C:\Users\stapi\AppData\Local\Temp\ccxbqhMb.s:4830   .debug_str:00000000000006e6 .LASF8
C:\Users\stapi\AppData\Local\Temp\ccxbqhMb.s:4888   .debug_str:000000000000083f .LASF9
C:\Users\stapi\AppData\Local\Temp\ccxbqhMb.s:4874   .debug_str:00000000000007e1 .LASF10
C:\Users\stapi\AppData\Local\Temp\ccxbqhMb.s:4768   .debug_str:000000000000057b .LASF11
C:\Users\stapi\AppData\Local\Temp\ccxbqhMb.s:4670   .debug_str:0000000000000251 .LASF12
C:\Users\stapi\AppData\Local\Temp\ccxbqhMb.s:4604   .debug_str:00000000000000c4 .LASF13
C:\Users\stapi\AppData\Local\Temp\ccxbqhMb.s:4652   .debug_str:00000000000001ce .LASF14
C:\Users\stapi\AppData\Local\Temp\ccxbqhMb.s:4748   .debug_str:00000000000004a0 .LASF15
C:\Users\stapi\AppData\Local\Temp\ccxbqhMb.s:4666   .debug_str:0000000000000242 .LASF16
C:\Users\stapi\AppData\Local\Temp\ccxbqhMb.s:4812   .debug_str:0000000000000688 .LASF17
C:\Users\stapi\AppData\Local\Temp\ccxbqhMb.s:4650   .debug_str:00000000000001c5 .LASF18
C:\Users\stapi\AppData\Local\Temp\ccxbqhMb.s:4734   .debug_str:00000000000003c6 .LASF19
C:\Users\stapi\AppData\Local\Temp\ccxbqhMb.s:4778   .debug_str:00000000000005af .LASF20
C:\Users\stapi\AppData\Local\Temp\ccxbqhMb.s:4720   .debug_str:0000000000000378 .LASF21
C:\Users\stapi\AppData\Local\Temp\ccxbqhMb.s:4616   .debug_str:00000000000000f6 .LASF22
C:\Users\stapi\AppData\Local\Temp\ccxbqhMb.s:4880   .debug_str:0000000000000816 .LASF23
C:\Users\stapi\AppData\Local\Temp\ccxbqhMb.s:4824   .debug_str:00000000000006cb .LASF24
C:\Users\stapi\AppData\Local\Temp\ccxbqhMb.s:4868   .debug_str:00000000000007c6 .LASF25
C:\Users\stapi\AppData\Local\Temp\ccxbqhMb.s:4840   .debug_str:0000000000000722 .LASF26
C:\Users\stapi\AppData\Local\Temp\ccxbqhMb.s:4776   .debug_str:00000000000005a2 .LASF27
C:\Users\stapi\AppData\Local\Temp\ccxbqhMb.s:4574   .debug_str:0000000000000008 .LASF28
C:\Users\stapi\AppData\Local\Temp\ccxbqhMb.s:4890   .debug_str:000000000000084a .LASF29
C:\Users\stapi\AppData\Local\Temp\ccxbqhMb.s:4802   .debug_str:0000000000000630 .LASF30
C:\Users\stapi\AppData\Local\Temp\ccxbqhMb.s:4792   .debug_str:00000000000005ec .LASF31
C:\Users\stapi\AppData\Local\Temp\ccxbqhMb.s:4862   .debug_str:000000000000079d .LASF32
C:\Users\stapi\AppData\Local\Temp\ccxbqhMb.s:4764   .debug_str:0000000000000567 .LASF33
C:\Users\stapi\AppData\Local\Temp\ccxbqhMb.s:4722   .debug_str:000000000000037d .LASF34
C:\Users\stapi\AppData\Local\Temp\ccxbqhMb.s:4658   .debug_str:00000000000001f1 .LASF35
C:\Users\stapi\AppData\Local\Temp\ccxbqhMb.s:4686   .debug_str:00000000000002ad .LASF36
C:\Users\stapi\AppData\Local\Temp\ccxbqhMb.s:4656   .debug_str:00000000000001e1 .LASF37
C:\Users\stapi\AppData\Local\Temp\ccxbqhMb.s:4834   .debug_str:00000000000006f8 .LASF38
C:\Users\stapi\AppData\Local\Temp\ccxbqhMb.s:4934   .debug_str:0000000000000a3e .LASF39
C:\Users\stapi\AppData\Local\Temp\ccxbqhMb.s:4730   .debug_str:00000000000003b0 .LASF40
C:\Users\stapi\AppData\Local\Temp\ccxbqhMb.s:4634   .debug_str:000000000000015f .LASF41
C:\Users\stapi\AppData\Local\Temp\ccxbqhMb.s:4718   .debug_str:000000000000036f .LASF42
C:\Users\stapi\AppData\Local\Temp\ccxbqhMb.s:4848   .debug_str:0000000000000755 .LASF72
C:\Users\stapi\AppData\Local\Temp\ccxbqhMb.s:4892   .debug_str:0000000000000857 .LASF74
C:\Users\stapi\AppData\Local\Temp\ccxbqhMb.s:4828   .debug_str:00000000000006db .LASF43
C:\Users\stapi\AppData\Local\Temp\ccxbqhMb.s:4930   .debug_str:000000000000093b .LASF44
C:\Users\stapi\AppData\Local\Temp\ccxbqhMb.s:4908   .debug_str:00000000000008b1 .LASF45
C:\Users\stapi\AppData\Local\Temp\ccxbqhMb.s:4942   .debug_str:0000000000000a67 .LASF46
C:\Users\stapi\AppData\Local\Temp\ccxbqhMb.s:4820   .debug_str:00000000000006b5 .LASF47
C:\Users\stapi\AppData\Local\Temp\ccxbqhMb.s:4726   .debug_str:0000000000000399 .LASF48
C:\Users\stapi\AppData\Local\Temp\ccxbqhMb.s:4926   .debug_str:000000000000092e .LASF49
C:\Users\stapi\AppData\Local\Temp\ccxbqhMb.s:4844   .debug_str:0000000000000738 .LASF50
C:\Users\stapi\AppData\Local\Temp\ccxbqhMb.s:4684   .debug_str:00000000000002a5 .LASF51
C:\Users\stapi\AppData\Local\Temp\ccxbqhMb.s:4724   .debug_str:000000000000038a .LASF52
C:\Users\stapi\AppData\Local\Temp\ccxbqhMb.s:4594   .debug_str:000000000000008d .LASF53
C:\Users\stapi\AppData\Local\Temp\ccxbqhMb.s:4640   .debug_str:0000000000000185 .LASF54
C:\Users\stapi\AppData\Local\Temp\ccxbqhMb.s:4854   .debug_str:0000000000000772 .LASF55
C:\Users\stapi\AppData\Local\Temp\ccxbqhMb.s:4920   .debug_str:0000000000000908 .LASF56
C:\Users\stapi\AppData\Local\Temp\ccxbqhMb.s:4774   .debug_str:000000000000059b .LASF57
C:\Users\stapi\AppData\Local\Temp\ccxbqhMb.s:4902   .debug_str:000000000000087f .LASF58
C:\Users\stapi\AppData\Local\Temp\ccxbqhMb.s:4636   .debug_str:000000000000016e .LASF59
C:\Users\stapi\AppData\Local\Temp\ccxbqhMb.s:4592   .debug_str:0000000000000084 .LASF60
C:\Users\stapi\AppData\Local\Temp\ccxbqhMb.s:4596   .debug_str:0000000000000095 .LASF61
C:\Users\stapi\AppData\Local\Temp\ccxbqhMb.s:4610   .debug_str:00000000000000e0 .LASF62
C:\Users\stapi\AppData\Local\Temp\ccxbqhMb.s:4638   .debug_str:0000000000000176 .LASF63
C:\Users\stapi\AppData\Local\Temp\ccxbqhMb.s:4700   .debug_str:0000000000000316 .LASF64
C:\Users\stapi\AppData\Local\Temp\ccxbqhMb.s:4800   .debug_str:0000000000000626 .LASF65
C:\Users\stapi\AppData\Local\Temp\ccxbqhMb.s:4936   .debug_str:0000000000000a49 .LASF66
C:\Users\stapi\AppData\Local\Temp\ccxbqhMb.s:4588   .debug_str:0000000000000075 .LASF67
C:\Users\stapi\AppData\Local\Temp\ccxbqhMb.s:4580   .debug_str:000000000000002d .LASF68
C:\Users\stapi\AppData\Local\Temp\ccxbqhMb.s:4938   .debug_str:0000000000000a55 .LASF69
C:\Users\stapi\AppData\Local\Temp\ccxbqhMb.s:4688   .debug_str:00000000000002c2 .LASF70
C:\Users\stapi\AppData\Local\Temp\ccxbqhMb.s:4712   .debug_str:000000000000034c .LASF71
C:\Users\stapi\AppData\Local\Temp\ccxbqhMb.s:4708   .debug_str:000000000000033e .LASF73
C:\Users\stapi\AppData\Local\Temp\ccxbqhMb.s:4608   .debug_str:00000000000000db .LASF75
C:\Users\stapi\AppData\Local\Temp\ccxbqhMb.s:4698   .debug_str:000000000000030e .LASF76
C:\Users\stapi\AppData\Local\Temp\ccxbqhMb.s:4694   .debug_str:00000000000002ff .LASF77
C:\Users\stapi\AppData\Local\Temp\ccxbqhMb.s:4692   .debug_str:00000000000002f1 .LASF78
C:\Users\stapi\AppData\Local\Temp\ccxbqhMb.s:4590   .debug_str:000000000000007e .LASF79
C:\Users\stapi\AppData\Local\Temp\ccxbqhMb.s:4816   .debug_str:00000000000006a1 .LASF80
C:\Users\stapi\AppData\Local\Temp\ccxbqhMb.s:4690   .debug_str:00000000000002cb .LASF84
C:\Users\stapi\AppData\Local\Temp\ccxbqhMb.s:4914   .debug_str:00000000000008c7 .LASF81
C:\Users\stapi\AppData\Local\Temp\ccxbqhMb.s:4582   .debug_str:0000000000000036 .LASF82
C:\Users\stapi\AppData\Local\Temp\ccxbqhMb.s:4810   .debug_str:0000000000000667 .LASF83
C:\Users\stapi\AppData\Local\Temp\ccxbqhMb.s:4876   .debug_str:00000000000007f3 .LASF85
C:\Users\stapi\AppData\Local\Temp\ccxbqhMb.s:4806   .debug_str:0000000000000649 .LASF86
C:\Users\stapi\AppData\Local\Temp\ccxbqhMb.s:4746   .debug_str:000000000000048b .LASF87
C:\Users\stapi\AppData\Local\Temp\ccxbqhMb.s:4900   .debug_str:0000000000000879 .LASF88
C:\Users\stapi\AppData\Local\Temp\ccxbqhMb.s:4946   .debug_str:0000000000000a74 .LASF89
C:\Users\stapi\AppData\Local\Temp\ccxbqhMb.s:4766   .debug_str:0000000000000573 .LASF90
C:\Users\stapi\AppData\Local\Temp\ccxbqhMb.s:4578   .debug_str:0000000000000027 .LASF91
C:\Users\stapi\AppData\Local\Temp\ccxbqhMb.s:4702   .debug_str:000000000000031e .LASF92
C:\Users\stapi\AppData\Local\Temp\ccxbqhMb.s:4612   .debug_str:00000000000000e6 .LASF93
C:\Users\stapi\AppData\Local\Temp\ccxbqhMb.s:4896   .debug_str:0000000000000868 .LASF94
C:\Users\stapi\AppData\Local\Temp\ccxbqhMb.s:4732   .debug_str:00000000000003ba .LASF95
C:\Users\stapi\AppData\Local\Temp\ccxbqhMb.s:4668   .debug_str:000000000000024a .LASF96
C:\Users\stapi\AppData\Local\Temp\ccxbqhMb.s:4680   .debug_str:0000000000000292 .LASF97
C:\Users\stapi\AppData\Local\Temp\ccxbqhMb.s:4858   .debug_str:0000000000000784 .LASF98
C:\Users\stapi\AppData\Local\Temp\ccxbqhMb.s:4864   .debug_str:00000000000007ac .LASF99
C:\Users\stapi\AppData\Local\Temp\ccxbqhMb.s:4738   .debug_str:00000000000003d4 .LASF100
C:\Users\stapi\AppData\Local\Temp\ccxbqhMb.s:4838   .debug_str:0000000000000717 .LASF101
C:\Users\stapi\AppData\Local\Temp\ccxbqhMb.s:4704   .debug_str:0000000000000325 .LASF102
C:\Users\stapi\AppData\Local\Temp\ccxbqhMb.s:4646   .debug_str:00000000000001a4 .LASF103
C:\Users\stapi\AppData\Local\Temp\ccxbqhMb.s:4632   .debug_str:000000000000014f .LASF104
C:\Users\stapi\AppData\Local\Temp\ccxbqhMb.s:4860   .debug_str:0000000000000789 .LASF105
C:\Users\stapi\AppData\Local\Temp\ccxbqhMb.s:4906   .debug_str:0000000000000898 .LASF106
C:\Users\stapi\AppData\Local\Temp\ccxbqhMb.s:4662   .debug_str:0000000000000218 .LASF107
C:\Users\stapi\AppData\Local\Temp\ccxbqhMb.s:4818   .debug_str:00000000000006a8 .LASF108
C:\Users\stapi\AppData\Local\Temp\ccxbqhMb.s:4856   .debug_str:000000000000077d .LASF109
C:\Users\stapi\AppData\Local\Temp\ccxbqhMb.s:4784   .debug_str:00000000000005ca .LASF110
C:\Users\stapi\AppData\Local\Temp\ccxbqhMb.s:4872   .debug_str:00000000000007dc .LASF111
C:\Users\stapi\AppData\Local\Temp\ccxbqhMb.s:4928   .debug_str:0000000000000936 .LASF112
C:\Users\stapi\AppData\Local\Temp\ccxbqhMb.s:4682   .debug_str:000000000000029d .LASF113
C:\Users\stapi\AppData\Local\Temp\ccxbqhMb.s:4618   .debug_str:00000000000000fc .LASF114
C:\Users\stapi\AppData\Local\Temp\ccxbqhMb.s:4754   .debug_str:000000000000052c .LASF115
C:\Users\stapi\AppData\Local\Temp\ccxbqhMb.s:4678   .debug_str:000000000000028a .LASF116
C:\Users\stapi\AppData\Local\Temp\ccxbqhMb.s:4944   .debug_str:0000000000000a6f .LASF117
C:\Users\stapi\AppData\Local\Temp\ccxbqhMb.s:4728   .debug_str:00000000000003a5 .LASF118
C:\Users\stapi\AppData\Local\Temp\ccxbqhMb.s:4822   .debug_str:00000000000006bd .LASF119
C:\Users\stapi\AppData\Local\Temp\ccxbqhMb.s:4584   .debug_str:0000000000000058 .LASF120
C:\Users\stapi\AppData\Local\Temp\ccxbqhMb.s:4630   .debug_str:000000000000013c .LASF121
C:\Users\stapi\AppData\Local\Temp\ccxbqhMb.s:4796   .debug_str:0000000000000605 .LASF122
C:\Users\stapi\AppData\Local\Temp\ccxbqhMb.s:4674   .debug_str:000000000000026d .LASF123
C:\Users\stapi\AppData\Local\Temp\ccxbqhMb.s:4922   .debug_str:0000000000000911 .LASF124
C:\Users\stapi\AppData\Local\Temp\ccxbqhMb.s:4788   .debug_str:00000000000005d5 .LASF184
C:\Users\stapi\AppData\Local\Temp\ccxbqhMb.s:4780   .debug_str:00000000000005b4 .LASF125
C:\Users\stapi\AppData\Local\Temp\ccxbqhMb.s:4598   .debug_str:000000000000009d .LASF126
C:\Users\stapi\AppData\Local\Temp\ccxbqhMb.s:4842   .debug_str:000000000000072f .LASF127
C:\Users\stapi\AppData\Local\Temp\ccxbqhMb.s:4924   .debug_str:0000000000000924 .LASF128
C:\Users\stapi\AppData\Local\Temp\ccxbqhMb.s:4606   .debug_str:00000000000000d1 .LASF129
C:\Users\stapi\AppData\Local\Temp\ccxbqhMb.s:4576   .debug_str:000000000000001c .LASF130
C:\Users\stapi\AppData\Local\Temp\ccxbqhMb.s:4626   .debug_str:0000000000000121 .LASF131
C:\Users\stapi\AppData\Local\Temp\ccxbqhMb.s:4846   .debug_str:0000000000000747 .LASF132
C:\Users\stapi\AppData\Local\Temp\ccxbqhMb.s:4622   .debug_str:0000000000000108 .LASF133
C:\Users\stapi\AppData\Local\Temp\ccxbqhMb.s:4912   .debug_str:00000000000008c2 .LASF134
C:\Users\stapi\AppData\Local\Temp\ccxbqhMb.s:4870   .debug_str:00000000000007d3 .LASF135
C:\Users\stapi\AppData\Local\Temp\ccxbqhMb.s:4714   .debug_str:0000000000000356 .LASF136
C:\Users\stapi\AppData\Local\Temp\ccxbqhMb.s:4790   .debug_str:00000000000005dd .LASF137
C:\Users\stapi\AppData\Local\Temp\ccxbqhMb.s:4814   .debug_str:0000000000000691 .LASF138
C:\Users\stapi\AppData\Local\Temp\ccxbqhMb.s:4660   .debug_str:0000000000000204 .LASF139
C:\Users\stapi\AppData\Local\Temp\ccxbqhMb.s:4628   .debug_str:000000000000012a .LASF140
C:\Users\stapi\AppData\Local\Temp\ccxbqhMb.s:4710   .debug_str:0000000000000343 .LASF143
C:\Users\stapi\AppData\Local\Temp\ccxbqhMb.s:4664   .debug_str:0000000000000228 .LASF149
C:\Users\stapi\AppData\Local\Temp\ccxbqhMb.s:942    .text.raw_netif_ip_addr_changed:0000000000000000 .LFB17
C:\Users\stapi\AppData\Local\Temp\ccxbqhMb.s:988    .text.raw_netif_ip_addr_changed:0000000000000028 .LFE17
C:\Users\stapi\AppData\Local\Temp\ccxbqhMb.s:4832   .debug_str:00000000000006ef .LASF141
C:\Users\stapi\AppData\Local\Temp\ccxbqhMb.s:4940   .debug_str:0000000000000a5e .LASF142
C:\Users\stapi\AppData\Local\Temp\ccxbqhMb.s:4672   .debug_str:0000000000000268 .LASF144
C:\Users\stapi\AppData\Local\Temp\ccxbqhMb.s:3877   .debug_loc:0000000000000000 .LLST31
C:\Users\stapi\AppData\Local\Temp\ccxbqhMb.s:4882   .debug_str:000000000000081c .LASF147
C:\Users\stapi\AppData\Local\Temp\ccxbqhMb.s:920    .text.raw_new_ip_type:0000000000000000 .LFB16
C:\Users\stapi\AppData\Local\Temp\ccxbqhMb.s:935    .text.raw_new_ip_type:000000000000000a .LFE16
C:\Users\stapi\AppData\Local\Temp\ccxbqhMb.s:4884   .debug_str:000000000000082c .LASF145
C:\Users\stapi\AppData\Local\Temp\ccxbqhMb.s:3888   .debug_loc:000000000000001e .LLST29
C:\Users\stapi\AppData\Local\Temp\ccxbqhMb.s:4602   .debug_str:00000000000000be .LASF146
C:\Users\stapi\AppData\Local\Temp\ccxbqhMb.s:3902   .debug_loc:000000000000003f .LLST30
C:\Users\stapi\AppData\Local\Temp\ccxbqhMb.s:931    .text.raw_new_ip_type:000000000000000a .LVL89
C:\Users\stapi\AppData\Local\Temp\ccxbqhMb.s:4572   .debug_str:0000000000000000 .LASF148
C:\Users\stapi\AppData\Local\Temp\ccxbqhMb.s:853    .text.raw_new:0000000000000000 .LFB15
C:\Users\stapi\AppData\Local\Temp\ccxbqhMb.s:913    .text.raw_new:000000000000004a .LFE15
C:\Users\stapi\AppData\Local\Temp\ccxbqhMb.s:3916   .debug_loc:0000000000000060 .LLST28
C:\Users\stapi\AppData\Local\Temp\ccxbqhMb.s:872    .text.raw_new:0000000000000014 .LVL84
C:\Users\stapi\AppData\Local\Temp\ccxbqhMb.s:882    .text.raw_new:0000000000000024 .LVL86
C:\Users\stapi\AppData\Local\Temp\ccxbqhMb.s:4898   .debug_str:000000000000086e .LASF150
C:\Users\stapi\AppData\Local\Temp\ccxbqhMb.s:799    .text.raw_remove:0000000000000000 .LFB14
C:\Users\stapi\AppData\Local\Temp\ccxbqhMb.s:846    .text.raw_remove:0000000000000030 .LFE14
C:\Users\stapi\AppData\Local\Temp\ccxbqhMb.s:3930   .debug_loc:0000000000000081 .LLST27
C:\Users\stapi\AppData\Local\Temp\ccxbqhMb.s:4786   .debug_str:00000000000005d0 .LASF151
C:\Users\stapi\AppData\Local\Temp\ccxbqhMb.s:823    .text.raw_remove:000000000000001e .LVL80
C:\Users\stapi\AppData\Local\Temp\ccxbqhMb.s:4586   .debug_str:000000000000006c .LASF152
C:\Users\stapi\AppData\Local\Temp\ccxbqhMb.s:782    .text.raw_send:0000000000000000 .LFB13
C:\Users\stapi\AppData\Local\Temp\ccxbqhMb.s:792    .text.raw_send:000000000000000c .LFE13
C:\Users\stapi\AppData\Local\Temp\ccxbqhMb.s:3952   .debug_loc:00000000000000b8 .LLST25
C:\Users\stapi\AppData\Local\Temp\ccxbqhMb.s:3966   .debug_loc:00000000000000d9 .LLST26
C:\Users\stapi\AppData\Local\Temp\ccxbqhMb.s:790    .text.raw_send:000000000000000c .LVL77
C:\Users\stapi\AppData\Local\Temp\ccxbqhMb.s:4648   .debug_str:00000000000001b3 .LASF153
C:\Users\stapi\AppData\Local\Temp\ccxbqhMb.s:417    .text.raw_sendto_if_src:0000000000000000 .LFB12
C:\Users\stapi\AppData\Local\Temp\ccxbqhMb.s:639    .text.raw_sendto_if_src:0000000000000136 .LFE12
C:\Users\stapi\AppData\Local\Temp\ccxbqhMb.s:3980   .debug_loc:00000000000000fa .LLST11
C:\Users\stapi\AppData\Local\Temp\ccxbqhMb.s:4024   .debug_loc:0000000000000163 .LLST12
C:\Users\stapi\AppData\Local\Temp\ccxbqhMb.s:4798   .debug_str:000000000000061f .LASF154
C:\Users\stapi\AppData\Local\Temp\ccxbqhMb.s:4050   .debug_loc:00000000000001a5 .LLST13
C:\Users\stapi\AppData\Local\Temp\ccxbqhMb.s:4088   .debug_loc:0000000000000208 .LLST14
C:\Users\stapi\AppData\Local\Temp\ccxbqhMb.s:4644   .debug_str:000000000000019d .LASF155
C:\Users\stapi\AppData\Local\Temp\ccxbqhMb.s:4130   .debug_loc:0000000000000276 .LLST15
C:\Users\stapi\AppData\Local\Temp\ccxbqhMb.s:4160   .debug_loc:00000000000002c3 .LLST16
C:\Users\stapi\AppData\Local\Temp\ccxbqhMb.s:4167   .debug_loc:00000000000002d6 .LLST17
C:\Users\stapi\AppData\Local\Temp\ccxbqhMb.s:4642   .debug_str:0000000000000191 .LASF156
C:\Users\stapi\AppData\Local\Temp\ccxbqhMb.s:4186   .debug_loc:000000000000030a .LLST18
C:\Users\stapi\AppData\Local\Temp\ccxbqhMb.s:4199   .debug_loc:000000000000032a .LLST19
C:\Users\stapi\AppData\Local\Temp\ccxbqhMb.s:481    .text.raw_sendto_if_src:000000000000004c .LVL39
C:\Users\stapi\AppData\Local\Temp\ccxbqhMb.s:522    .text.raw_sendto_if_src:0000000000000074 .LVL46
C:\Users\stapi\AppData\Local\Temp\ccxbqhMb.s:531    .text.raw_sendto_if_src:0000000000000088 .LVL47
C:\Users\stapi\AppData\Local\Temp\ccxbqhMb.s:544    .text.raw_sendto_if_src:000000000000009c .LVL49
C:\Users\stapi\AppData\Local\Temp\ccxbqhMb.s:581    .text.raw_sendto_if_src:00000000000000dc .LVL51
C:\Users\stapi\AppData\Local\Temp\ccxbqhMb.s:591    .text.raw_sendto_if_src:00000000000000ec .LVL53
C:\Users\stapi\AppData\Local\Temp\ccxbqhMb.s:601    .text.raw_sendto_if_src:00000000000000fa .LVL55
C:\Users\stapi\AppData\Local\Temp\ccxbqhMb.s:617    .text.raw_sendto_if_src:0000000000000122 .LVL56
C:\Users\stapi\AppData\Local\Temp\ccxbqhMb.s:4772   .debug_str:0000000000000590 .LASF157
C:\Users\stapi\AppData\Local\Temp\ccxbqhMb.s:646    .text.raw_sendto:0000000000000000 .LFB11
C:\Users\stapi\AppData\Local\Temp\ccxbqhMb.s:775    .text.raw_sendto:0000000000000086 .LFE11
C:\Users\stapi\AppData\Local\Temp\ccxbqhMb.s:4206   .debug_loc:000000000000033d .LLST20
C:\Users\stapi\AppData\Local\Temp\ccxbqhMb.s:4228   .debug_loc:0000000000000374 .LLST21
C:\Users\stapi\AppData\Local\Temp\ccxbqhMb.s:4696   .debug_str:0000000000000307 .LASF158
C:\Users\stapi\AppData\Local\Temp\ccxbqhMb.s:4266   .debug_loc:00000000000003d7 .LLST22
C:\Users\stapi\AppData\Local\Temp\ccxbqhMb.s:4281   .debug_loc:0000000000000400 .LLST23
C:\Users\stapi\AppData\Local\Temp\ccxbqhMb.s:4310   .debug_loc:000000000000044c .LLST24
C:\Users\stapi\AppData\Local\Temp\ccxbqhMb.s:679    .text.raw_sendto:0000000000000022 .LVL61
C:\Users\stapi\AppData\Local\Temp\ccxbqhMb.s:710    .text.raw_sendto:0000000000000048 .LVL65
C:\Users\stapi\AppData\Local\Temp\ccxbqhMb.s:739    .text.raw_sendto:0000000000000068 .LVL68
C:\Users\stapi\AppData\Local\Temp\ccxbqhMb.s:747    .text.raw_sendto:0000000000000076 .LVL70
C:\Users\stapi\AppData\Local\Temp\ccxbqhMb.s:4716   .debug_str:0000000000000366 .LASF159
C:\Users\stapi\AppData\Local\Temp\ccxbqhMb.s:392    .text.raw_recv:0000000000000000 .LFB10
C:\Users\stapi\AppData\Local\Temp\ccxbqhMb.s:406    .text.raw_recv:0000000000000006 .LFE10
C:\Users\stapi\AppData\Local\Temp\ccxbqhMb.s:4706   .debug_str:000000000000032f .LASF160
C:\Users\stapi\AppData\Local\Temp\ccxbqhMb.s:364    .text.raw_disconnect:0000000000000000 .LFB9
C:\Users\stapi\AppData\Local\Temp\ccxbqhMb.s:385    .text.raw_disconnect:0000000000000014 .LFE9
C:\Users\stapi\AppData\Local\Temp\ccxbqhMb.s:4894   .debug_str:000000000000085c .LASF161
C:\Users\stapi\AppData\Local\Temp\ccxbqhMb.s:323    .text.raw_connect:0000000000000000 .LFB8
C:\Users\stapi\AppData\Local\Temp\ccxbqhMb.s:357    .text.raw_connect:000000000000001e .LFE8
C:\Users\stapi\AppData\Local\Temp\ccxbqhMb.s:4321   .debug_loc:000000000000046a .LLST10
C:\Users\stapi\AppData\Local\Temp\ccxbqhMb.s:4624   .debug_str:0000000000000112 .LASF162
C:\Users\stapi\AppData\Local\Temp\ccxbqhMb.s:296    .text.raw_bind_netif:0000000000000000 .LFB7
C:\Users\stapi\AppData\Local\Temp\ccxbqhMb.s:316    .text.raw_bind_netif:0000000000000014 .LFE7
C:\Users\stapi\AppData\Local\Temp\ccxbqhMb.s:4736   .debug_str:00000000000003cb .LASF163
C:\Users\stapi\AppData\Local\Temp\ccxbqhMb.s:261    .text.raw_bind:0000000000000000 .LFB6
C:\Users\stapi\AppData\Local\Temp\ccxbqhMb.s:289    .text.raw_bind:0000000000000012 .LFE6
C:\Users\stapi\AppData\Local\Temp\ccxbqhMb.s:4332   .debug_loc:0000000000000488 .LLST9
C:\Users\stapi\AppData\Local\Temp\ccxbqhMb.s:4794   .debug_str:00000000000005fb .LASF164
C:\Users\stapi\AppData\Local\Temp\ccxbqhMb.s:24     .text.raw_input:0000000000000000 .LFB5
C:\Users\stapi\AppData\Local\Temp\ccxbqhMb.s:254    .text.raw_input:00000000000000ee .LFE5
C:\Users\stapi\AppData\Local\Temp\ccxbqhMb.s:4343   .debug_loc:00000000000004a6 .LLST0
C:\Users\stapi\AppData\Local\Temp\ccxbqhMb.s:4363   .debug_loc:00000000000004db .LLST1
C:\Users\stapi\AppData\Local\Temp\ccxbqhMb.s:4377   .debug_loc:00000000000004fc .LLST2
C:\Users\stapi\AppData\Local\Temp\ccxbqhMb.s:4614   .debug_str:00000000000000f1 .LASF165
C:\Users\stapi\AppData\Local\Temp\ccxbqhMb.s:4393   .debug_loc:0000000000000526 .LLST3
C:\Users\stapi\AppData\Local\Temp\ccxbqhMb.s:4413   .debug_loc:000000000000055b .LLST4
C:\Users\stapi\AppData\Local\Temp\ccxbqhMb.s:4804   .debug_str:000000000000063f .LASF166
C:\Users\stapi\AppData\Local\Temp\ccxbqhMb.s:4750   .debug_str:00000000000004a8 .LASF167
C:\Users\stapi\AppData\Local\Temp\ccxbqhMb.s:4439   .debug_loc:000000000000059d .LLST5
C:\Users\stapi\AppData\Local\Temp\ccxbqhMb.s:4654   .debug_str:00000000000001d5 .LASF168
C:\Users\stapi\AppData\Local\Temp\ccxbqhMb.s:4454   .debug_loc:00000000000005c6 .LLST6
C:\Users\stapi\AppData\Local\Temp\ccxbqhMb.s:154    .text.raw_input:000000000000008e .LVL13
C:\Users\stapi\AppData\Local\Temp\ccxbqhMb.s:240    .text.raw_input:00000000000000e8 .LVL22
C:\Users\stapi\AppData\Local\Temp\ccxbqhMb.s:95     .text.raw_input:0000000000000048 .LBB6
C:\Users\stapi\AppData\Local\Temp\ccxbqhMb.s:4465   .debug_loc:00000000000005e4 .LLST7
C:\Users\stapi\AppData\Local\Temp\ccxbqhMb.s:4476   .debug_loc:0000000000000602 .LLST8
C:\Users\stapi\AppData\Local\Temp\ccxbqhMb.s:61     .text.raw_input:0000000000000024 .LVL4
C:\Users\stapi\AppData\Local\Temp\ccxbqhMb.s:4744   .debug_str:0000000000000475 .LASF185
C:\Users\stapi\AppData\Local\Temp\ccxbqhMb.s:4762   .debug_str:000000000000055b .LASF169
C:\Users\stapi\AppData\Local\Temp\ccxbqhMb.s:4620   .debug_str:0000000000000101 .LASF186
C:\Users\stapi\AppData\Local\Temp\ccxbqhMb.s:4866   .debug_str:00000000000007b5 .LASF187
C:\Users\stapi\AppData\Local\Temp\ccxbqhMb.s:4910   .debug_str:00000000000008b8 .LASF170
C:\Users\stapi\AppData\Local\Temp\ccxbqhMb.s:4836   .debug_str:0000000000000709 .LASF171
C:\Users\stapi\AppData\Local\Temp\ccxbqhMb.s:4904   .debug_str:0000000000000888 .LASF172
C:\Users\stapi\AppData\Local\Temp\ccxbqhMb.s:4756   .debug_str:0000000000000533 .LASF173
C:\Users\stapi\AppData\Local\Temp\ccxbqhMb.s:4878   .debug_str:000000000000080b .LASF174
C:\Users\stapi\AppData\Local\Temp\ccxbqhMb.s:4760   .debug_str:0000000000000551 .LASF175
C:\Users\stapi\AppData\Local\Temp\ccxbqhMb.s:4758   .debug_str:000000000000053e .LASF176
C:\Users\stapi\AppData\Local\Temp\ccxbqhMb.s:4770   .debug_str:0000000000000589 .LASF177
C:\Users\stapi\AppData\Local\Temp\ccxbqhMb.s:4742   .debug_str:0000000000000462 .LASF178
C:\Users\stapi\AppData\Local\Temp\ccxbqhMb.s:4852   .debug_str:0000000000000768 .LASF179
C:\Users\stapi\AppData\Local\Temp\ccxbqhMb.s:4600   .debug_str:00000000000000a5 .LASF180
C:\Users\stapi\AppData\Local\Temp\ccxbqhMb.s:962    .text.raw_netif_ip_addr_changed:0000000000000014 .LVL91
C:\Users\stapi\AppData\Local\Temp\ccxbqhMb.s:967    .text.raw_netif_ip_addr_changed:0000000000000016 .LVL92
C:\Users\stapi\AppData\Local\Temp\ccxbqhMb.s:971    .text.raw_netif_ip_addr_changed:0000000000000018 .LVL93
C:\Users\stapi\AppData\Local\Temp\ccxbqhMb.s:923    .text.raw_new_ip_type:0000000000000000 .LVL87
C:\Users\stapi\AppData\Local\Temp\ccxbqhMb.s:929    .text.raw_new_ip_type:0000000000000002 .LVL88
C:\Users\stapi\AppData\Local\Temp\ccxbqhMb.s:856    .text.raw_new:0000000000000000 .LVL82
C:\Users\stapi\AppData\Local\Temp\ccxbqhMb.s:870    .text.raw_new:000000000000000c .LVL83
C:\Users\stapi\AppData\Local\Temp\ccxbqhMb.s:802    .text.raw_remove:0000000000000000 .LVL78
C:\Users\stapi\AppData\Local\Temp\ccxbqhMb.s:821    .text.raw_remove:0000000000000016 .LVL79
C:\Users\stapi\AppData\Local\Temp\ccxbqhMb.s:785    .text.raw_send:0000000000000000 .LVL76
C:\Users\stapi\AppData\Local\Temp\ccxbqhMb.s:420    .text.raw_sendto_if_src:0000000000000000 .LVL32
C:\Users\stapi\AppData\Local\Temp\ccxbqhMb.s:479    .text.raw_sendto_if_src:0000000000000044 .LVL38
C:\Users\stapi\AppData\Local\Temp\ccxbqhMb.s:499    .text.raw_sendto_if_src:0000000000000058 .LVL41
C:\Users\stapi\AppData\Local\Temp\ccxbqhMb.s:513    .text.raw_sendto_if_src:0000000000000066 .LVL44
C:\Users\stapi\AppData\Local\Temp\ccxbqhMb.s:515    .text.raw_sendto_if_src:0000000000000068 .LVL45
C:\Users\stapi\AppData\Local\Temp\ccxbqhMb.s:583    .text.raw_sendto_if_src:00000000000000de .LVL52
C:\Users\stapi\AppData\Local\Temp\ccxbqhMb.s:593    .text.raw_sendto_if_src:00000000000000ee .LVL54
C:\Users\stapi\AppData\Local\Temp\ccxbqhMb.s:633    .text.raw_sendto_if_src:0000000000000132 .LVL58
C:\Users\stapi\AppData\Local\Temp\ccxbqhMb.s:477    .text.raw_sendto_if_src:0000000000000042 .LVL37
C:\Users\stapi\AppData\Local\Temp\ccxbqhMb.s:483    .text.raw_sendto_if_src:000000000000004e .LVL40
C:\Users\stapi\AppData\Local\Temp\ccxbqhMb.s:475    .text.raw_sendto_if_src:0000000000000040 .LVL36
C:\Users\stapi\AppData\Local\Temp\ccxbqhMb.s:509    .text.raw_sendto_if_src:0000000000000064 .LVL43
C:\Users\stapi\AppData\Local\Temp\ccxbqhMb.s:473    .text.raw_sendto_if_src:000000000000003e .LVL35
C:\Users\stapi\AppData\Local\Temp\ccxbqhMb.s:460    .text.raw_sendto_if_src:000000000000002e .LVL34
C:\Users\stapi\AppData\Local\Temp\ccxbqhMb.s:505    .text.raw_sendto_if_src:000000000000005c .LVL42
C:\Users\stapi\AppData\Local\Temp\ccxbqhMb.s:533    .text.raw_sendto_if_src:000000000000008a .LVL48
C:\Users\stapi\AppData\Local\Temp\ccxbqhMb.s:623    .text.raw_sendto_if_src:0000000000000124 .LVL57
C:\Users\stapi\AppData\Local\Temp\ccxbqhMb.s:452    .text.raw_sendto_if_src:0000000000000026 .LVL33
C:\Users\stapi\AppData\Local\Temp\ccxbqhMb.s:570    .text.raw_sendto_if_src:00000000000000c4 .LVL50
C:\Users\stapi\AppData\Local\Temp\ccxbqhMb.s:649    .text.raw_sendto:0000000000000000 .LVL59
C:\Users\stapi\AppData\Local\Temp\ccxbqhMb.s:666    .text.raw_sendto:0000000000000010 .LVL60
C:\Users\stapi\AppData\Local\Temp\ccxbqhMb.s:762    .text.raw_sendto:0000000000000082 .LVL74
C:\Users\stapi\AppData\Local\Temp\ccxbqhMb.s:771    .text.raw_sendto:0000000000000084 .LVL75
C:\Users\stapi\AppData\Local\Temp\ccxbqhMb.s:720    .text.raw_sendto:0000000000000050 .LVL66
C:\Users\stapi\AppData\Local\Temp\ccxbqhMb.s:733    .text.raw_sendto:000000000000005e .LVL67
C:\Users\stapi\AppData\Local\Temp\ccxbqhMb.s:741    .text.raw_sendto:000000000000006a .LVL69
C:\Users\stapi\AppData\Local\Temp\ccxbqhMb.s:683    .text.raw_sendto:0000000000000024 .LVL62
C:\Users\stapi\AppData\Local\Temp\ccxbqhMb.s:687    .text.raw_sendto:0000000000000026 .LVL63
C:\Users\stapi\AppData\Local\Temp\ccxbqhMb.s:749    .text.raw_sendto:0000000000000078 .LVL71
C:\Users\stapi\AppData\Local\Temp\ccxbqhMb.s:754    .text.raw_sendto:000000000000007c .LVL72
C:\Users\stapi\AppData\Local\Temp\ccxbqhMb.s:703    .text.raw_sendto:000000000000003a .LVL64
C:\Users\stapi\AppData\Local\Temp\ccxbqhMb.s:759    .text.raw_sendto:0000000000000080 .LVL73
C:\Users\stapi\AppData\Local\Temp\ccxbqhMb.s:326    .text.raw_connect:0000000000000000 .LVL28
C:\Users\stapi\AppData\Local\Temp\ccxbqhMb.s:333    .text.raw_connect:0000000000000004 .LVL29
C:\Users\stapi\AppData\Local\Temp\ccxbqhMb.s:264    .text.raw_bind:0000000000000000 .LVL25
C:\Users\stapi\AppData\Local\Temp\ccxbqhMb.s:271    .text.raw_bind:0000000000000004 .LVL26
C:\Users\stapi\AppData\Local\Temp\ccxbqhMb.s:28     .text.raw_input:0000000000000000 .LVL0
C:\Users\stapi\AppData\Local\Temp\ccxbqhMb.s:55     .text.raw_input:0000000000000016 .LVL3
C:\Users\stapi\AppData\Local\Temp\ccxbqhMb.s:159    .text.raw_input:0000000000000090 .LVL14
C:\Users\stapi\AppData\Local\Temp\ccxbqhMb.s:179    .text.raw_input:00000000000000a6 .LVL16
C:\Users\stapi\AppData\Local\Temp\ccxbqhMb.s:196    .text.raw_input:00000000000000ae .LVL17
C:\Users\stapi\AppData\Local\Temp\ccxbqhMb.s:50     .text.raw_input:0000000000000012 .LVL2
C:\Users\stapi\AppData\Local\Temp\ccxbqhMb.s:81     .text.raw_input:0000000000000038 .LVL7
C:\Users\stapi\AppData\Local\Temp\ccxbqhMb.s:207    .text.raw_input:00000000000000b8 .LVL18
C:\Users\stapi\AppData\Local\Temp\ccxbqhMb.s:220    .text.raw_input:00000000000000bc .LVL19
C:\Users\stapi\AppData\Local\Temp\ccxbqhMb.s:75     .text.raw_input:0000000000000030 .LVL6
C:\Users\stapi\AppData\Local\Temp\ccxbqhMb.s:86     .text.raw_input:000000000000003e .LVL8
C:\Users\stapi\AppData\Local\Temp\ccxbqhMb.s:44     .text.raw_input:0000000000000008 .LVL1
C:\Users\stapi\AppData\Local\Temp\ccxbqhMb.s:143    .text.raw_input:0000000000000080 .LVL11
C:\Users\stapi\AppData\Local\Temp\ccxbqhMb.s:149    .text.raw_input:000000000000008c .LVL12
C:\Users\stapi\AppData\Local\Temp\ccxbqhMb.s:222    .text.raw_input:00000000000000be .LVL20
C:\Users\stapi\AppData\Local\Temp\ccxbqhMb.s:163    .text.raw_input:0000000000000092 .LVL15
C:\Users\stapi\AppData\Local\Temp\ccxbqhMb.s:234    .text.raw_input:00000000000000d0 .LVL21
C:\Users\stapi\AppData\Local\Temp\ccxbqhMb.s:246    .text.raw_input:00000000000000ea .LVL23
C:\Users\stapi\AppData\Local\Temp\ccxbqhMb.s:250    .text.raw_input:00000000000000ec .LVL24
C:\Users\stapi\AppData\Local\Temp\ccxbqhMb.s:94     .text.raw_input:0000000000000048 .LVL9
C:\Users\stapi\AppData\Local\Temp\ccxbqhMb.s:121    .text.raw_input:0000000000000068 .LVL10
C:\Users\stapi\AppData\Local\Temp\ccxbqhMb.s:1016   .debug_info:0000000000000000 .Ldebug_info0
C:\Users\stapi\AppData\Local\Temp\ccxbqhMb.s:69     .text.raw_input:0000000000000028 .LBB5
C:\Users\stapi\AppData\Local\Temp\ccxbqhMb.s:72     .text.raw_input:000000000000002c .LBE5
C:\Users\stapi\AppData\Local\Temp\ccxbqhMb.s:138    .text.raw_input:000000000000007e .LBB9
C:\Users\stapi\AppData\Local\Temp\ccxbqhMb.s:181    .text.raw_input:00000000000000a6 .LBE9
C:\Users\stapi\AppData\Local\Temp\ccxbqhMb.s:211    .text.raw_input:00000000000000b8 .LBB11
C:\Users\stapi\AppData\Local\Temp\ccxbqhMb.s:214    .text.raw_input:00000000000000b8 .LBE11
C:\Users\stapi\AppData\Local\Temp\ccxbqhMb.s:224    .text.raw_input:00000000000000be .LBB12
C:\Users\stapi\AppData\Local\Temp\ccxbqhMb.s:252    .text.raw_input:00000000000000ee .LBE12
C:\Users\stapi\AppData\Local\Temp\ccxbqhMb.s:123    .text.raw_input:0000000000000068 .LBE6
C:\Users\stapi\AppData\Local\Temp\ccxbqhMb.s:199    .text.raw_input:00000000000000ae .LBB10
C:\Users\stapi\AppData\Local\Temp\ccxbqhMb.s:210    .text.raw_input:00000000000000b8 .LBE10

UNDEFINED SYMBOLS
__riscv_save_9
ip_data
ip4_addr_isbroadcast_u32
__riscv_restore_9
printf
__riscv_save_6
ip4_output_if
__riscv_restore_6
pbuf_add_header
pbuf_alloc
pbuf_chain
pbuf_free
pbuf_remove_header
__riscv_save_3
netif_get_by_index
__riscv_restore_3
ip4_route
memp_free
__riscv_save_2
memp_malloc
memset
__riscv_restore_2
