   1              		.file	"tcpip.c"
   2              		.option nopic
   3              		.attribute arch, "rv32i2p0_m2p0_a2p0_f2p0_c2p0_b_p0p94"
   4              		.attribute unaligned_access, 0
   5              		.attribute stack_align, 16
   6              		.text
   7              	.Ltext0:
   8              		.cfi_sections	.debug_frame
   9              		.section	.text.pbuf_free_int,"ax",@progbits
  10              		.align	1
  12              	pbuf_free_int:
  13              	.LFB17:
  14              		.file 1 "C:/Users/stapi/OneDrive/Desktop/GD32VW553/GD32VW55X_Wifi_BLE_SDK/GD32VW55x_RELEASE_V1.0.2
   1:C:/Users/stapi/OneDrive/Desktop/GD32VW553/GD32VW55X_Wifi_BLE_SDK/GD32VW55x_RELEASE_V1.0.2/MSDK/lwip/lwip-2.1.2/src/api\tcpip.c **** /**
   2:C:/Users/stapi/OneDrive/Desktop/GD32VW553/GD32VW55X_Wifi_BLE_SDK/GD32VW55x_RELEASE_V1.0.2/MSDK/lwip/lwip-2.1.2/src/api\tcpip.c ****  * @file
   3:C:/Users/stapi/OneDrive/Desktop/GD32VW553/GD32VW55X_Wifi_BLE_SDK/GD32VW55x_RELEASE_V1.0.2/MSDK/lwip/lwip-2.1.2/src/api\tcpip.c ****  * Sequential API Main thread module
   4:C:/Users/stapi/OneDrive/Desktop/GD32VW553/GD32VW55X_Wifi_BLE_SDK/GD32VW55x_RELEASE_V1.0.2/MSDK/lwip/lwip-2.1.2/src/api\tcpip.c ****  *
   5:C:/Users/stapi/OneDrive/Desktop/GD32VW553/GD32VW55X_Wifi_BLE_SDK/GD32VW55x_RELEASE_V1.0.2/MSDK/lwip/lwip-2.1.2/src/api\tcpip.c ****  */
   6:C:/Users/stapi/OneDrive/Desktop/GD32VW553/GD32VW55X_Wifi_BLE_SDK/GD32VW55x_RELEASE_V1.0.2/MSDK/lwip/lwip-2.1.2/src/api\tcpip.c **** 
   7:C:/Users/stapi/OneDrive/Desktop/GD32VW553/GD32VW55X_Wifi_BLE_SDK/GD32VW55x_RELEASE_V1.0.2/MSDK/lwip/lwip-2.1.2/src/api\tcpip.c **** /*
   8:C:/Users/stapi/OneDrive/Desktop/GD32VW553/GD32VW55X_Wifi_BLE_SDK/GD32VW55x_RELEASE_V1.0.2/MSDK/lwip/lwip-2.1.2/src/api\tcpip.c ****  * Copyright (c) 2001-2004 Swedish Institute of Computer Science.
   9:C:/Users/stapi/OneDrive/Desktop/GD32VW553/GD32VW55X_Wifi_BLE_SDK/GD32VW55x_RELEASE_V1.0.2/MSDK/lwip/lwip-2.1.2/src/api\tcpip.c ****  * All rights reserved.
  10:C:/Users/stapi/OneDrive/Desktop/GD32VW553/GD32VW55X_Wifi_BLE_SDK/GD32VW55x_RELEASE_V1.0.2/MSDK/lwip/lwip-2.1.2/src/api\tcpip.c ****  *
  11:C:/Users/stapi/OneDrive/Desktop/GD32VW553/GD32VW55X_Wifi_BLE_SDK/GD32VW55x_RELEASE_V1.0.2/MSDK/lwip/lwip-2.1.2/src/api\tcpip.c ****  * Redistribution and use in source and binary forms, with or without modification,
  12:C:/Users/stapi/OneDrive/Desktop/GD32VW553/GD32VW55X_Wifi_BLE_SDK/GD32VW55x_RELEASE_V1.0.2/MSDK/lwip/lwip-2.1.2/src/api\tcpip.c ****  * are permitted provided that the following conditions are met:
  13:C:/Users/stapi/OneDrive/Desktop/GD32VW553/GD32VW55X_Wifi_BLE_SDK/GD32VW55x_RELEASE_V1.0.2/MSDK/lwip/lwip-2.1.2/src/api\tcpip.c ****  *
  14:C:/Users/stapi/OneDrive/Desktop/GD32VW553/GD32VW55X_Wifi_BLE_SDK/GD32VW55x_RELEASE_V1.0.2/MSDK/lwip/lwip-2.1.2/src/api\tcpip.c ****  * 1. Redistributions of source code must retain the above copyright notice,
  15:C:/Users/stapi/OneDrive/Desktop/GD32VW553/GD32VW55X_Wifi_BLE_SDK/GD32VW55x_RELEASE_V1.0.2/MSDK/lwip/lwip-2.1.2/src/api\tcpip.c ****  *    this list of conditions and the following disclaimer.
  16:C:/Users/stapi/OneDrive/Desktop/GD32VW553/GD32VW55X_Wifi_BLE_SDK/GD32VW55x_RELEASE_V1.0.2/MSDK/lwip/lwip-2.1.2/src/api\tcpip.c ****  * 2. Redistributions in binary form must reproduce the above copyright notice,
  17:C:/Users/stapi/OneDrive/Desktop/GD32VW553/GD32VW55X_Wifi_BLE_SDK/GD32VW55x_RELEASE_V1.0.2/MSDK/lwip/lwip-2.1.2/src/api\tcpip.c ****  *    this list of conditions and the following disclaimer in the documentation
  18:C:/Users/stapi/OneDrive/Desktop/GD32VW553/GD32VW55X_Wifi_BLE_SDK/GD32VW55x_RELEASE_V1.0.2/MSDK/lwip/lwip-2.1.2/src/api\tcpip.c ****  *    and/or other materials provided with the distribution.
  19:C:/Users/stapi/OneDrive/Desktop/GD32VW553/GD32VW55X_Wifi_BLE_SDK/GD32VW55x_RELEASE_V1.0.2/MSDK/lwip/lwip-2.1.2/src/api\tcpip.c ****  * 3. The name of the author may not be used to endorse or promote products
  20:C:/Users/stapi/OneDrive/Desktop/GD32VW553/GD32VW55X_Wifi_BLE_SDK/GD32VW55x_RELEASE_V1.0.2/MSDK/lwip/lwip-2.1.2/src/api\tcpip.c ****  *    derived from this software without specific prior written permission.
  21:C:/Users/stapi/OneDrive/Desktop/GD32VW553/GD32VW55X_Wifi_BLE_SDK/GD32VW55x_RELEASE_V1.0.2/MSDK/lwip/lwip-2.1.2/src/api\tcpip.c ****  *
  22:C:/Users/stapi/OneDrive/Desktop/GD32VW553/GD32VW55X_Wifi_BLE_SDK/GD32VW55x_RELEASE_V1.0.2/MSDK/lwip/lwip-2.1.2/src/api\tcpip.c ****  * THIS SOFTWARE IS PROVIDED BY THE AUTHOR ``AS IS'' AND ANY EXPRESS OR IMPLIED
  23:C:/Users/stapi/OneDrive/Desktop/GD32VW553/GD32VW55X_Wifi_BLE_SDK/GD32VW55x_RELEASE_V1.0.2/MSDK/lwip/lwip-2.1.2/src/api\tcpip.c ****  * WARRANTIES, INCLUDING, BUT NOT LIMITED TO, THE IMPLIED WARRANTIES OF
  24:C:/Users/stapi/OneDrive/Desktop/GD32VW553/GD32VW55X_Wifi_BLE_SDK/GD32VW55x_RELEASE_V1.0.2/MSDK/lwip/lwip-2.1.2/src/api\tcpip.c ****  * MERCHANTABILITY AND FITNESS FOR A PARTICULAR PURPOSE ARE DISCLAIMED. IN NO EVENT
  25:C:/Users/stapi/OneDrive/Desktop/GD32VW553/GD32VW55X_Wifi_BLE_SDK/GD32VW55x_RELEASE_V1.0.2/MSDK/lwip/lwip-2.1.2/src/api\tcpip.c ****  * SHALL THE AUTHOR BE LIABLE FOR ANY DIRECT, INDIRECT, INCIDENTAL, SPECIAL,
  26:C:/Users/stapi/OneDrive/Desktop/GD32VW553/GD32VW55X_Wifi_BLE_SDK/GD32VW55x_RELEASE_V1.0.2/MSDK/lwip/lwip-2.1.2/src/api\tcpip.c ****  * EXEMPLARY, OR CONSEQUENTIAL DAMAGES (INCLUDING, BUT NOT LIMITED TO, PROCUREMENT
  27:C:/Users/stapi/OneDrive/Desktop/GD32VW553/GD32VW55X_Wifi_BLE_SDK/GD32VW55x_RELEASE_V1.0.2/MSDK/lwip/lwip-2.1.2/src/api\tcpip.c ****  * OF SUBSTITUTE GOODS OR SERVICES; LOSS OF USE, DATA, OR PROFITS; OR BUSINESS
  28:C:/Users/stapi/OneDrive/Desktop/GD32VW553/GD32VW55X_Wifi_BLE_SDK/GD32VW55x_RELEASE_V1.0.2/MSDK/lwip/lwip-2.1.2/src/api\tcpip.c ****  * INTERRUPTION) HOWEVER CAUSED AND ON ANY THEORY OF LIABILITY, WHETHER IN
  29:C:/Users/stapi/OneDrive/Desktop/GD32VW553/GD32VW55X_Wifi_BLE_SDK/GD32VW55x_RELEASE_V1.0.2/MSDK/lwip/lwip-2.1.2/src/api\tcpip.c ****  * CONTRACT, STRICT LIABILITY, OR TORT (INCLUDING NEGLIGENCE OR OTHERWISE) ARISING
  30:C:/Users/stapi/OneDrive/Desktop/GD32VW553/GD32VW55X_Wifi_BLE_SDK/GD32VW55x_RELEASE_V1.0.2/MSDK/lwip/lwip-2.1.2/src/api\tcpip.c ****  * IN ANY WAY OUT OF THE USE OF THIS SOFTWARE, EVEN IF ADVISED OF THE POSSIBILITY
  31:C:/Users/stapi/OneDrive/Desktop/GD32VW553/GD32VW55X_Wifi_BLE_SDK/GD32VW55x_RELEASE_V1.0.2/MSDK/lwip/lwip-2.1.2/src/api\tcpip.c ****  * OF SUCH DAMAGE.
  32:C:/Users/stapi/OneDrive/Desktop/GD32VW553/GD32VW55X_Wifi_BLE_SDK/GD32VW55x_RELEASE_V1.0.2/MSDK/lwip/lwip-2.1.2/src/api\tcpip.c ****  *
  33:C:/Users/stapi/OneDrive/Desktop/GD32VW553/GD32VW55X_Wifi_BLE_SDK/GD32VW55x_RELEASE_V1.0.2/MSDK/lwip/lwip-2.1.2/src/api\tcpip.c ****  * This file is part of the lwIP TCP/IP stack.
  34:C:/Users/stapi/OneDrive/Desktop/GD32VW553/GD32VW55X_Wifi_BLE_SDK/GD32VW55x_RELEASE_V1.0.2/MSDK/lwip/lwip-2.1.2/src/api\tcpip.c ****  *
  35:C:/Users/stapi/OneDrive/Desktop/GD32VW553/GD32VW55X_Wifi_BLE_SDK/GD32VW55x_RELEASE_V1.0.2/MSDK/lwip/lwip-2.1.2/src/api\tcpip.c ****  * Author: Adam Dunkels <adam@sics.se>
  36:C:/Users/stapi/OneDrive/Desktop/GD32VW553/GD32VW55X_Wifi_BLE_SDK/GD32VW55x_RELEASE_V1.0.2/MSDK/lwip/lwip-2.1.2/src/api\tcpip.c ****  *
  37:C:/Users/stapi/OneDrive/Desktop/GD32VW553/GD32VW55X_Wifi_BLE_SDK/GD32VW55x_RELEASE_V1.0.2/MSDK/lwip/lwip-2.1.2/src/api\tcpip.c ****  */
  38:C:/Users/stapi/OneDrive/Desktop/GD32VW553/GD32VW55X_Wifi_BLE_SDK/GD32VW55x_RELEASE_V1.0.2/MSDK/lwip/lwip-2.1.2/src/api\tcpip.c **** 
  39:C:/Users/stapi/OneDrive/Desktop/GD32VW553/GD32VW55X_Wifi_BLE_SDK/GD32VW55x_RELEASE_V1.0.2/MSDK/lwip/lwip-2.1.2/src/api\tcpip.c **** #include "lwip/opt.h"
  40:C:/Users/stapi/OneDrive/Desktop/GD32VW553/GD32VW55X_Wifi_BLE_SDK/GD32VW55x_RELEASE_V1.0.2/MSDK/lwip/lwip-2.1.2/src/api\tcpip.c **** 
  41:C:/Users/stapi/OneDrive/Desktop/GD32VW553/GD32VW55X_Wifi_BLE_SDK/GD32VW55x_RELEASE_V1.0.2/MSDK/lwip/lwip-2.1.2/src/api\tcpip.c **** #if !NO_SYS /* don't build if not configured for use in lwipopts.h */
  42:C:/Users/stapi/OneDrive/Desktop/GD32VW553/GD32VW55X_Wifi_BLE_SDK/GD32VW55x_RELEASE_V1.0.2/MSDK/lwip/lwip-2.1.2/src/api\tcpip.c **** 
  43:C:/Users/stapi/OneDrive/Desktop/GD32VW553/GD32VW55X_Wifi_BLE_SDK/GD32VW55x_RELEASE_V1.0.2/MSDK/lwip/lwip-2.1.2/src/api\tcpip.c **** #include "lwip/priv/tcpip_priv.h"
  44:C:/Users/stapi/OneDrive/Desktop/GD32VW553/GD32VW55X_Wifi_BLE_SDK/GD32VW55x_RELEASE_V1.0.2/MSDK/lwip/lwip-2.1.2/src/api\tcpip.c **** #include "lwip/sys.h"
  45:C:/Users/stapi/OneDrive/Desktop/GD32VW553/GD32VW55X_Wifi_BLE_SDK/GD32VW55x_RELEASE_V1.0.2/MSDK/lwip/lwip-2.1.2/src/api\tcpip.c **** #include "lwip/memp.h"
  46:C:/Users/stapi/OneDrive/Desktop/GD32VW553/GD32VW55X_Wifi_BLE_SDK/GD32VW55x_RELEASE_V1.0.2/MSDK/lwip/lwip-2.1.2/src/api\tcpip.c **** #include "lwip/mem.h"
  47:C:/Users/stapi/OneDrive/Desktop/GD32VW553/GD32VW55X_Wifi_BLE_SDK/GD32VW55x_RELEASE_V1.0.2/MSDK/lwip/lwip-2.1.2/src/api\tcpip.c **** #include "lwip/init.h"
  48:C:/Users/stapi/OneDrive/Desktop/GD32VW553/GD32VW55X_Wifi_BLE_SDK/GD32VW55x_RELEASE_V1.0.2/MSDK/lwip/lwip-2.1.2/src/api\tcpip.c **** #include "lwip/ip.h"
  49:C:/Users/stapi/OneDrive/Desktop/GD32VW553/GD32VW55X_Wifi_BLE_SDK/GD32VW55x_RELEASE_V1.0.2/MSDK/lwip/lwip-2.1.2/src/api\tcpip.c **** #include "lwip/pbuf.h"
  50:C:/Users/stapi/OneDrive/Desktop/GD32VW553/GD32VW55X_Wifi_BLE_SDK/GD32VW55x_RELEASE_V1.0.2/MSDK/lwip/lwip-2.1.2/src/api\tcpip.c **** #include "lwip/etharp.h"
  51:C:/Users/stapi/OneDrive/Desktop/GD32VW553/GD32VW55X_Wifi_BLE_SDK/GD32VW55x_RELEASE_V1.0.2/MSDK/lwip/lwip-2.1.2/src/api\tcpip.c **** #include "netif/ethernet.h"
  52:C:/Users/stapi/OneDrive/Desktop/GD32VW553/GD32VW55X_Wifi_BLE_SDK/GD32VW55x_RELEASE_V1.0.2/MSDK/lwip/lwip-2.1.2/src/api\tcpip.c **** 
  53:C:/Users/stapi/OneDrive/Desktop/GD32VW553/GD32VW55X_Wifi_BLE_SDK/GD32VW55x_RELEASE_V1.0.2/MSDK/lwip/lwip-2.1.2/src/api\tcpip.c **** #define TCPIP_MSG_VAR_REF(name)     API_VAR_REF(name)
  54:C:/Users/stapi/OneDrive/Desktop/GD32VW553/GD32VW55X_Wifi_BLE_SDK/GD32VW55x_RELEASE_V1.0.2/MSDK/lwip/lwip-2.1.2/src/api\tcpip.c **** #define TCPIP_MSG_VAR_DECLARE(name) API_VAR_DECLARE(struct tcpip_msg, name)
  55:C:/Users/stapi/OneDrive/Desktop/GD32VW553/GD32VW55X_Wifi_BLE_SDK/GD32VW55x_RELEASE_V1.0.2/MSDK/lwip/lwip-2.1.2/src/api\tcpip.c **** #define TCPIP_MSG_VAR_ALLOC(name)   API_VAR_ALLOC(struct tcpip_msg, MEMP_TCPIP_MSG_API, name, ERR_M
  56:C:/Users/stapi/OneDrive/Desktop/GD32VW553/GD32VW55X_Wifi_BLE_SDK/GD32VW55x_RELEASE_V1.0.2/MSDK/lwip/lwip-2.1.2/src/api\tcpip.c **** #define TCPIP_MSG_VAR_FREE(name)    API_VAR_FREE(MEMP_TCPIP_MSG_API, name)
  57:C:/Users/stapi/OneDrive/Desktop/GD32VW553/GD32VW55X_Wifi_BLE_SDK/GD32VW55x_RELEASE_V1.0.2/MSDK/lwip/lwip-2.1.2/src/api\tcpip.c **** 
  58:C:/Users/stapi/OneDrive/Desktop/GD32VW553/GD32VW55X_Wifi_BLE_SDK/GD32VW55x_RELEASE_V1.0.2/MSDK/lwip/lwip-2.1.2/src/api\tcpip.c **** /* global variables */
  59:C:/Users/stapi/OneDrive/Desktop/GD32VW553/GD32VW55X_Wifi_BLE_SDK/GD32VW55x_RELEASE_V1.0.2/MSDK/lwip/lwip-2.1.2/src/api\tcpip.c **** static tcpip_init_done_fn tcpip_init_done;
  60:C:/Users/stapi/OneDrive/Desktop/GD32VW553/GD32VW55X_Wifi_BLE_SDK/GD32VW55x_RELEASE_V1.0.2/MSDK/lwip/lwip-2.1.2/src/api\tcpip.c **** static void *tcpip_init_done_arg;
  61:C:/Users/stapi/OneDrive/Desktop/GD32VW553/GD32VW55X_Wifi_BLE_SDK/GD32VW55x_RELEASE_V1.0.2/MSDK/lwip/lwip-2.1.2/src/api\tcpip.c **** static sys_mbox_t tcpip_mbox;
  62:C:/Users/stapi/OneDrive/Desktop/GD32VW553/GD32VW55X_Wifi_BLE_SDK/GD32VW55x_RELEASE_V1.0.2/MSDK/lwip/lwip-2.1.2/src/api\tcpip.c **** 
  63:C:/Users/stapi/OneDrive/Desktop/GD32VW553/GD32VW55X_Wifi_BLE_SDK/GD32VW55x_RELEASE_V1.0.2/MSDK/lwip/lwip-2.1.2/src/api\tcpip.c **** #if LWIP_TCPIP_CORE_LOCKING
  64:C:/Users/stapi/OneDrive/Desktop/GD32VW553/GD32VW55X_Wifi_BLE_SDK/GD32VW55x_RELEASE_V1.0.2/MSDK/lwip/lwip-2.1.2/src/api\tcpip.c **** /** The global semaphore to lock the stack. */
  65:C:/Users/stapi/OneDrive/Desktop/GD32VW553/GD32VW55X_Wifi_BLE_SDK/GD32VW55x_RELEASE_V1.0.2/MSDK/lwip/lwip-2.1.2/src/api\tcpip.c **** sys_mutex_t lock_tcpip_core;
  66:C:/Users/stapi/OneDrive/Desktop/GD32VW553/GD32VW55X_Wifi_BLE_SDK/GD32VW55x_RELEASE_V1.0.2/MSDK/lwip/lwip-2.1.2/src/api\tcpip.c **** #endif /* LWIP_TCPIP_CORE_LOCKING */
  67:C:/Users/stapi/OneDrive/Desktop/GD32VW553/GD32VW55X_Wifi_BLE_SDK/GD32VW55x_RELEASE_V1.0.2/MSDK/lwip/lwip-2.1.2/src/api\tcpip.c **** 
  68:C:/Users/stapi/OneDrive/Desktop/GD32VW553/GD32VW55X_Wifi_BLE_SDK/GD32VW55x_RELEASE_V1.0.2/MSDK/lwip/lwip-2.1.2/src/api\tcpip.c **** static void tcpip_thread_handle_msg(struct tcpip_msg *msg);
  69:C:/Users/stapi/OneDrive/Desktop/GD32VW553/GD32VW55X_Wifi_BLE_SDK/GD32VW55x_RELEASE_V1.0.2/MSDK/lwip/lwip-2.1.2/src/api\tcpip.c **** 
  70:C:/Users/stapi/OneDrive/Desktop/GD32VW553/GD32VW55X_Wifi_BLE_SDK/GD32VW55x_RELEASE_V1.0.2/MSDK/lwip/lwip-2.1.2/src/api\tcpip.c **** #if !LWIP_TIMERS
  71:C:/Users/stapi/OneDrive/Desktop/GD32VW553/GD32VW55X_Wifi_BLE_SDK/GD32VW55x_RELEASE_V1.0.2/MSDK/lwip/lwip-2.1.2/src/api\tcpip.c **** /* wait for a message with timers disabled (e.g. pass a timer-check trigger into tcpip_thread) */
  72:C:/Users/stapi/OneDrive/Desktop/GD32VW553/GD32VW55X_Wifi_BLE_SDK/GD32VW55x_RELEASE_V1.0.2/MSDK/lwip/lwip-2.1.2/src/api\tcpip.c **** #define TCPIP_MBOX_FETCH(mbox, msg) sys_mbox_fetch(mbox, msg)
  73:C:/Users/stapi/OneDrive/Desktop/GD32VW553/GD32VW55X_Wifi_BLE_SDK/GD32VW55x_RELEASE_V1.0.2/MSDK/lwip/lwip-2.1.2/src/api\tcpip.c **** #else /* !LWIP_TIMERS */
  74:C:/Users/stapi/OneDrive/Desktop/GD32VW553/GD32VW55X_Wifi_BLE_SDK/GD32VW55x_RELEASE_V1.0.2/MSDK/lwip/lwip-2.1.2/src/api\tcpip.c **** /* wait for a message, timeouts are processed while waiting */
  75:C:/Users/stapi/OneDrive/Desktop/GD32VW553/GD32VW55X_Wifi_BLE_SDK/GD32VW55x_RELEASE_V1.0.2/MSDK/lwip/lwip-2.1.2/src/api\tcpip.c **** #define TCPIP_MBOX_FETCH(mbox, msg) tcpip_timeouts_mbox_fetch(mbox, msg)
  76:C:/Users/stapi/OneDrive/Desktop/GD32VW553/GD32VW55X_Wifi_BLE_SDK/GD32VW55x_RELEASE_V1.0.2/MSDK/lwip/lwip-2.1.2/src/api\tcpip.c **** /**
  77:C:/Users/stapi/OneDrive/Desktop/GD32VW553/GD32VW55X_Wifi_BLE_SDK/GD32VW55x_RELEASE_V1.0.2/MSDK/lwip/lwip-2.1.2/src/api\tcpip.c ****  * Wait (forever) for a message to arrive in an mbox.
  78:C:/Users/stapi/OneDrive/Desktop/GD32VW553/GD32VW55X_Wifi_BLE_SDK/GD32VW55x_RELEASE_V1.0.2/MSDK/lwip/lwip-2.1.2/src/api\tcpip.c ****  * While waiting, timeouts are processed.
  79:C:/Users/stapi/OneDrive/Desktop/GD32VW553/GD32VW55X_Wifi_BLE_SDK/GD32VW55x_RELEASE_V1.0.2/MSDK/lwip/lwip-2.1.2/src/api\tcpip.c ****  *
  80:C:/Users/stapi/OneDrive/Desktop/GD32VW553/GD32VW55X_Wifi_BLE_SDK/GD32VW55x_RELEASE_V1.0.2/MSDK/lwip/lwip-2.1.2/src/api\tcpip.c ****  * @param mbox the mbox to fetch the message from
  81:C:/Users/stapi/OneDrive/Desktop/GD32VW553/GD32VW55X_Wifi_BLE_SDK/GD32VW55x_RELEASE_V1.0.2/MSDK/lwip/lwip-2.1.2/src/api\tcpip.c ****  * @param msg the place to store the message
  82:C:/Users/stapi/OneDrive/Desktop/GD32VW553/GD32VW55X_Wifi_BLE_SDK/GD32VW55x_RELEASE_V1.0.2/MSDK/lwip/lwip-2.1.2/src/api\tcpip.c ****  */
  83:C:/Users/stapi/OneDrive/Desktop/GD32VW553/GD32VW55X_Wifi_BLE_SDK/GD32VW55x_RELEASE_V1.0.2/MSDK/lwip/lwip-2.1.2/src/api\tcpip.c **** static void
  84:C:/Users/stapi/OneDrive/Desktop/GD32VW553/GD32VW55X_Wifi_BLE_SDK/GD32VW55x_RELEASE_V1.0.2/MSDK/lwip/lwip-2.1.2/src/api\tcpip.c **** tcpip_timeouts_mbox_fetch(sys_mbox_t *mbox, void **msg)
  85:C:/Users/stapi/OneDrive/Desktop/GD32VW553/GD32VW55X_Wifi_BLE_SDK/GD32VW55x_RELEASE_V1.0.2/MSDK/lwip/lwip-2.1.2/src/api\tcpip.c **** {
  86:C:/Users/stapi/OneDrive/Desktop/GD32VW553/GD32VW55X_Wifi_BLE_SDK/GD32VW55x_RELEASE_V1.0.2/MSDK/lwip/lwip-2.1.2/src/api\tcpip.c ****   u32_t sleeptime, res;
  87:C:/Users/stapi/OneDrive/Desktop/GD32VW553/GD32VW55X_Wifi_BLE_SDK/GD32VW55x_RELEASE_V1.0.2/MSDK/lwip/lwip-2.1.2/src/api\tcpip.c **** 
  88:C:/Users/stapi/OneDrive/Desktop/GD32VW553/GD32VW55X_Wifi_BLE_SDK/GD32VW55x_RELEASE_V1.0.2/MSDK/lwip/lwip-2.1.2/src/api\tcpip.c **** again:
  89:C:/Users/stapi/OneDrive/Desktop/GD32VW553/GD32VW55X_Wifi_BLE_SDK/GD32VW55x_RELEASE_V1.0.2/MSDK/lwip/lwip-2.1.2/src/api\tcpip.c ****   LWIP_ASSERT_CORE_LOCKED();
  90:C:/Users/stapi/OneDrive/Desktop/GD32VW553/GD32VW55X_Wifi_BLE_SDK/GD32VW55x_RELEASE_V1.0.2/MSDK/lwip/lwip-2.1.2/src/api\tcpip.c **** 
  91:C:/Users/stapi/OneDrive/Desktop/GD32VW553/GD32VW55X_Wifi_BLE_SDK/GD32VW55x_RELEASE_V1.0.2/MSDK/lwip/lwip-2.1.2/src/api\tcpip.c ****   sleeptime = sys_timeouts_sleeptime();
  92:C:/Users/stapi/OneDrive/Desktop/GD32VW553/GD32VW55X_Wifi_BLE_SDK/GD32VW55x_RELEASE_V1.0.2/MSDK/lwip/lwip-2.1.2/src/api\tcpip.c ****   if (sleeptime == SYS_TIMEOUTS_SLEEPTIME_INFINITE) {
  93:C:/Users/stapi/OneDrive/Desktop/GD32VW553/GD32VW55X_Wifi_BLE_SDK/GD32VW55x_RELEASE_V1.0.2/MSDK/lwip/lwip-2.1.2/src/api\tcpip.c ****     UNLOCK_TCPIP_CORE();
  94:C:/Users/stapi/OneDrive/Desktop/GD32VW553/GD32VW55X_Wifi_BLE_SDK/GD32VW55x_RELEASE_V1.0.2/MSDK/lwip/lwip-2.1.2/src/api\tcpip.c ****     sys_arch_mbox_fetch(mbox, msg, 0);
  95:C:/Users/stapi/OneDrive/Desktop/GD32VW553/GD32VW55X_Wifi_BLE_SDK/GD32VW55x_RELEASE_V1.0.2/MSDK/lwip/lwip-2.1.2/src/api\tcpip.c ****     LOCK_TCPIP_CORE();
  96:C:/Users/stapi/OneDrive/Desktop/GD32VW553/GD32VW55X_Wifi_BLE_SDK/GD32VW55x_RELEASE_V1.0.2/MSDK/lwip/lwip-2.1.2/src/api\tcpip.c ****     return;
  97:C:/Users/stapi/OneDrive/Desktop/GD32VW553/GD32VW55X_Wifi_BLE_SDK/GD32VW55x_RELEASE_V1.0.2/MSDK/lwip/lwip-2.1.2/src/api\tcpip.c ****   } else if (sleeptime == 0) {
  98:C:/Users/stapi/OneDrive/Desktop/GD32VW553/GD32VW55X_Wifi_BLE_SDK/GD32VW55x_RELEASE_V1.0.2/MSDK/lwip/lwip-2.1.2/src/api\tcpip.c ****     sys_check_timeouts();
  99:C:/Users/stapi/OneDrive/Desktop/GD32VW553/GD32VW55X_Wifi_BLE_SDK/GD32VW55x_RELEASE_V1.0.2/MSDK/lwip/lwip-2.1.2/src/api\tcpip.c ****     /* We try again to fetch a message from the mbox. */
 100:C:/Users/stapi/OneDrive/Desktop/GD32VW553/GD32VW55X_Wifi_BLE_SDK/GD32VW55x_RELEASE_V1.0.2/MSDK/lwip/lwip-2.1.2/src/api\tcpip.c ****     goto again;
 101:C:/Users/stapi/OneDrive/Desktop/GD32VW553/GD32VW55X_Wifi_BLE_SDK/GD32VW55x_RELEASE_V1.0.2/MSDK/lwip/lwip-2.1.2/src/api\tcpip.c ****   }
 102:C:/Users/stapi/OneDrive/Desktop/GD32VW553/GD32VW55X_Wifi_BLE_SDK/GD32VW55x_RELEASE_V1.0.2/MSDK/lwip/lwip-2.1.2/src/api\tcpip.c **** 
 103:C:/Users/stapi/OneDrive/Desktop/GD32VW553/GD32VW55X_Wifi_BLE_SDK/GD32VW55x_RELEASE_V1.0.2/MSDK/lwip/lwip-2.1.2/src/api\tcpip.c ****   UNLOCK_TCPIP_CORE();
 104:C:/Users/stapi/OneDrive/Desktop/GD32VW553/GD32VW55X_Wifi_BLE_SDK/GD32VW55x_RELEASE_V1.0.2/MSDK/lwip/lwip-2.1.2/src/api\tcpip.c ****   res = sys_arch_mbox_fetch(mbox, msg, sleeptime);
 105:C:/Users/stapi/OneDrive/Desktop/GD32VW553/GD32VW55X_Wifi_BLE_SDK/GD32VW55x_RELEASE_V1.0.2/MSDK/lwip/lwip-2.1.2/src/api\tcpip.c ****   LOCK_TCPIP_CORE();
 106:C:/Users/stapi/OneDrive/Desktop/GD32VW553/GD32VW55X_Wifi_BLE_SDK/GD32VW55x_RELEASE_V1.0.2/MSDK/lwip/lwip-2.1.2/src/api\tcpip.c ****   if (res == SYS_ARCH_TIMEOUT) {
 107:C:/Users/stapi/OneDrive/Desktop/GD32VW553/GD32VW55X_Wifi_BLE_SDK/GD32VW55x_RELEASE_V1.0.2/MSDK/lwip/lwip-2.1.2/src/api\tcpip.c ****     /* If a SYS_ARCH_TIMEOUT value is returned, a timeout occurred
 108:C:/Users/stapi/OneDrive/Desktop/GD32VW553/GD32VW55X_Wifi_BLE_SDK/GD32VW55x_RELEASE_V1.0.2/MSDK/lwip/lwip-2.1.2/src/api\tcpip.c ****        before a message could be fetched. */
 109:C:/Users/stapi/OneDrive/Desktop/GD32VW553/GD32VW55X_Wifi_BLE_SDK/GD32VW55x_RELEASE_V1.0.2/MSDK/lwip/lwip-2.1.2/src/api\tcpip.c ****     sys_check_timeouts();
 110:C:/Users/stapi/OneDrive/Desktop/GD32VW553/GD32VW55X_Wifi_BLE_SDK/GD32VW55x_RELEASE_V1.0.2/MSDK/lwip/lwip-2.1.2/src/api\tcpip.c ****     /* We try again to fetch a message from the mbox. */
 111:C:/Users/stapi/OneDrive/Desktop/GD32VW553/GD32VW55X_Wifi_BLE_SDK/GD32VW55x_RELEASE_V1.0.2/MSDK/lwip/lwip-2.1.2/src/api\tcpip.c ****     goto again;
 112:C:/Users/stapi/OneDrive/Desktop/GD32VW553/GD32VW55X_Wifi_BLE_SDK/GD32VW55x_RELEASE_V1.0.2/MSDK/lwip/lwip-2.1.2/src/api\tcpip.c ****   }
 113:C:/Users/stapi/OneDrive/Desktop/GD32VW553/GD32VW55X_Wifi_BLE_SDK/GD32VW55x_RELEASE_V1.0.2/MSDK/lwip/lwip-2.1.2/src/api\tcpip.c **** }
 114:C:/Users/stapi/OneDrive/Desktop/GD32VW553/GD32VW55X_Wifi_BLE_SDK/GD32VW55x_RELEASE_V1.0.2/MSDK/lwip/lwip-2.1.2/src/api\tcpip.c **** #endif /* !LWIP_TIMERS */
 115:C:/Users/stapi/OneDrive/Desktop/GD32VW553/GD32VW55X_Wifi_BLE_SDK/GD32VW55x_RELEASE_V1.0.2/MSDK/lwip/lwip-2.1.2/src/api\tcpip.c **** 
 116:C:/Users/stapi/OneDrive/Desktop/GD32VW553/GD32VW55X_Wifi_BLE_SDK/GD32VW55x_RELEASE_V1.0.2/MSDK/lwip/lwip-2.1.2/src/api\tcpip.c **** /**
 117:C:/Users/stapi/OneDrive/Desktop/GD32VW553/GD32VW55X_Wifi_BLE_SDK/GD32VW55x_RELEASE_V1.0.2/MSDK/lwip/lwip-2.1.2/src/api\tcpip.c ****  * The main lwIP thread. This thread has exclusive access to lwIP core functions
 118:C:/Users/stapi/OneDrive/Desktop/GD32VW553/GD32VW55X_Wifi_BLE_SDK/GD32VW55x_RELEASE_V1.0.2/MSDK/lwip/lwip-2.1.2/src/api\tcpip.c ****  * (unless access to them is not locked). Other threads communicate with this
 119:C:/Users/stapi/OneDrive/Desktop/GD32VW553/GD32VW55X_Wifi_BLE_SDK/GD32VW55x_RELEASE_V1.0.2/MSDK/lwip/lwip-2.1.2/src/api\tcpip.c ****  * thread using message boxes.
 120:C:/Users/stapi/OneDrive/Desktop/GD32VW553/GD32VW55X_Wifi_BLE_SDK/GD32VW55x_RELEASE_V1.0.2/MSDK/lwip/lwip-2.1.2/src/api\tcpip.c ****  *
 121:C:/Users/stapi/OneDrive/Desktop/GD32VW553/GD32VW55X_Wifi_BLE_SDK/GD32VW55x_RELEASE_V1.0.2/MSDK/lwip/lwip-2.1.2/src/api\tcpip.c ****  * It also starts all the timers to make sure they are running in the right
 122:C:/Users/stapi/OneDrive/Desktop/GD32VW553/GD32VW55X_Wifi_BLE_SDK/GD32VW55x_RELEASE_V1.0.2/MSDK/lwip/lwip-2.1.2/src/api\tcpip.c ****  * thread context.
 123:C:/Users/stapi/OneDrive/Desktop/GD32VW553/GD32VW55X_Wifi_BLE_SDK/GD32VW55x_RELEASE_V1.0.2/MSDK/lwip/lwip-2.1.2/src/api\tcpip.c ****  *
 124:C:/Users/stapi/OneDrive/Desktop/GD32VW553/GD32VW55X_Wifi_BLE_SDK/GD32VW55x_RELEASE_V1.0.2/MSDK/lwip/lwip-2.1.2/src/api\tcpip.c ****  * @param arg unused argument
 125:C:/Users/stapi/OneDrive/Desktop/GD32VW553/GD32VW55X_Wifi_BLE_SDK/GD32VW55x_RELEASE_V1.0.2/MSDK/lwip/lwip-2.1.2/src/api\tcpip.c ****  */
 126:C:/Users/stapi/OneDrive/Desktop/GD32VW553/GD32VW55X_Wifi_BLE_SDK/GD32VW55x_RELEASE_V1.0.2/MSDK/lwip/lwip-2.1.2/src/api\tcpip.c **** static void
 127:C:/Users/stapi/OneDrive/Desktop/GD32VW553/GD32VW55X_Wifi_BLE_SDK/GD32VW55x_RELEASE_V1.0.2/MSDK/lwip/lwip-2.1.2/src/api\tcpip.c **** tcpip_thread(void *arg)
 128:C:/Users/stapi/OneDrive/Desktop/GD32VW553/GD32VW55X_Wifi_BLE_SDK/GD32VW55x_RELEASE_V1.0.2/MSDK/lwip/lwip-2.1.2/src/api\tcpip.c **** {
 129:C:/Users/stapi/OneDrive/Desktop/GD32VW553/GD32VW55X_Wifi_BLE_SDK/GD32VW55x_RELEASE_V1.0.2/MSDK/lwip/lwip-2.1.2/src/api\tcpip.c ****   struct tcpip_msg *msg;
 130:C:/Users/stapi/OneDrive/Desktop/GD32VW553/GD32VW55X_Wifi_BLE_SDK/GD32VW55x_RELEASE_V1.0.2/MSDK/lwip/lwip-2.1.2/src/api\tcpip.c ****   LWIP_UNUSED_ARG(arg);
 131:C:/Users/stapi/OneDrive/Desktop/GD32VW553/GD32VW55X_Wifi_BLE_SDK/GD32VW55x_RELEASE_V1.0.2/MSDK/lwip/lwip-2.1.2/src/api\tcpip.c **** 
 132:C:/Users/stapi/OneDrive/Desktop/GD32VW553/GD32VW55X_Wifi_BLE_SDK/GD32VW55x_RELEASE_V1.0.2/MSDK/lwip/lwip-2.1.2/src/api\tcpip.c ****   LWIP_MARK_TCPIP_THREAD();
 133:C:/Users/stapi/OneDrive/Desktop/GD32VW553/GD32VW55X_Wifi_BLE_SDK/GD32VW55x_RELEASE_V1.0.2/MSDK/lwip/lwip-2.1.2/src/api\tcpip.c **** 
 134:C:/Users/stapi/OneDrive/Desktop/GD32VW553/GD32VW55X_Wifi_BLE_SDK/GD32VW55x_RELEASE_V1.0.2/MSDK/lwip/lwip-2.1.2/src/api\tcpip.c ****   LOCK_TCPIP_CORE();
 135:C:/Users/stapi/OneDrive/Desktop/GD32VW553/GD32VW55X_Wifi_BLE_SDK/GD32VW55x_RELEASE_V1.0.2/MSDK/lwip/lwip-2.1.2/src/api\tcpip.c ****   if (tcpip_init_done != NULL) {
 136:C:/Users/stapi/OneDrive/Desktop/GD32VW553/GD32VW55X_Wifi_BLE_SDK/GD32VW55x_RELEASE_V1.0.2/MSDK/lwip/lwip-2.1.2/src/api\tcpip.c ****     tcpip_init_done(tcpip_init_done_arg);
 137:C:/Users/stapi/OneDrive/Desktop/GD32VW553/GD32VW55X_Wifi_BLE_SDK/GD32VW55x_RELEASE_V1.0.2/MSDK/lwip/lwip-2.1.2/src/api\tcpip.c ****   }
 138:C:/Users/stapi/OneDrive/Desktop/GD32VW553/GD32VW55X_Wifi_BLE_SDK/GD32VW55x_RELEASE_V1.0.2/MSDK/lwip/lwip-2.1.2/src/api\tcpip.c **** 
 139:C:/Users/stapi/OneDrive/Desktop/GD32VW553/GD32VW55X_Wifi_BLE_SDK/GD32VW55x_RELEASE_V1.0.2/MSDK/lwip/lwip-2.1.2/src/api\tcpip.c ****   while (1) {                          /* MAIN Loop */
 140:C:/Users/stapi/OneDrive/Desktop/GD32VW553/GD32VW55X_Wifi_BLE_SDK/GD32VW55x_RELEASE_V1.0.2/MSDK/lwip/lwip-2.1.2/src/api\tcpip.c ****     LWIP_TCPIP_THREAD_ALIVE();
 141:C:/Users/stapi/OneDrive/Desktop/GD32VW553/GD32VW55X_Wifi_BLE_SDK/GD32VW55x_RELEASE_V1.0.2/MSDK/lwip/lwip-2.1.2/src/api\tcpip.c ****     /* wait for a message, timeouts are processed while waiting */
 142:C:/Users/stapi/OneDrive/Desktop/GD32VW553/GD32VW55X_Wifi_BLE_SDK/GD32VW55x_RELEASE_V1.0.2/MSDK/lwip/lwip-2.1.2/src/api\tcpip.c ****     TCPIP_MBOX_FETCH(&tcpip_mbox, (void **)&msg);
 143:C:/Users/stapi/OneDrive/Desktop/GD32VW553/GD32VW55X_Wifi_BLE_SDK/GD32VW55x_RELEASE_V1.0.2/MSDK/lwip/lwip-2.1.2/src/api\tcpip.c ****     if (msg == NULL) {
 144:C:/Users/stapi/OneDrive/Desktop/GD32VW553/GD32VW55X_Wifi_BLE_SDK/GD32VW55x_RELEASE_V1.0.2/MSDK/lwip/lwip-2.1.2/src/api\tcpip.c ****       LWIP_DEBUGF(TCPIP_DEBUG, ("tcpip_thread: invalid message: NULL\n"));
 145:C:/Users/stapi/OneDrive/Desktop/GD32VW553/GD32VW55X_Wifi_BLE_SDK/GD32VW55x_RELEASE_V1.0.2/MSDK/lwip/lwip-2.1.2/src/api\tcpip.c ****       LWIP_ASSERT("tcpip_thread: invalid message", 0);
 146:C:/Users/stapi/OneDrive/Desktop/GD32VW553/GD32VW55X_Wifi_BLE_SDK/GD32VW55x_RELEASE_V1.0.2/MSDK/lwip/lwip-2.1.2/src/api\tcpip.c ****       continue;
 147:C:/Users/stapi/OneDrive/Desktop/GD32VW553/GD32VW55X_Wifi_BLE_SDK/GD32VW55x_RELEASE_V1.0.2/MSDK/lwip/lwip-2.1.2/src/api\tcpip.c ****     }
 148:C:/Users/stapi/OneDrive/Desktop/GD32VW553/GD32VW55X_Wifi_BLE_SDK/GD32VW55x_RELEASE_V1.0.2/MSDK/lwip/lwip-2.1.2/src/api\tcpip.c ****     tcpip_thread_handle_msg(msg);
 149:C:/Users/stapi/OneDrive/Desktop/GD32VW553/GD32VW55X_Wifi_BLE_SDK/GD32VW55x_RELEASE_V1.0.2/MSDK/lwip/lwip-2.1.2/src/api\tcpip.c ****   }
 150:C:/Users/stapi/OneDrive/Desktop/GD32VW553/GD32VW55X_Wifi_BLE_SDK/GD32VW55x_RELEASE_V1.0.2/MSDK/lwip/lwip-2.1.2/src/api\tcpip.c **** }
 151:C:/Users/stapi/OneDrive/Desktop/GD32VW553/GD32VW55X_Wifi_BLE_SDK/GD32VW55x_RELEASE_V1.0.2/MSDK/lwip/lwip-2.1.2/src/api\tcpip.c **** 
 152:C:/Users/stapi/OneDrive/Desktop/GD32VW553/GD32VW55X_Wifi_BLE_SDK/GD32VW55x_RELEASE_V1.0.2/MSDK/lwip/lwip-2.1.2/src/api\tcpip.c **** /* Handle a single tcpip_msg
 153:C:/Users/stapi/OneDrive/Desktop/GD32VW553/GD32VW55X_Wifi_BLE_SDK/GD32VW55x_RELEASE_V1.0.2/MSDK/lwip/lwip-2.1.2/src/api\tcpip.c ****  * This is in its own function for access by tests only.
 154:C:/Users/stapi/OneDrive/Desktop/GD32VW553/GD32VW55X_Wifi_BLE_SDK/GD32VW55x_RELEASE_V1.0.2/MSDK/lwip/lwip-2.1.2/src/api\tcpip.c ****  */
 155:C:/Users/stapi/OneDrive/Desktop/GD32VW553/GD32VW55X_Wifi_BLE_SDK/GD32VW55x_RELEASE_V1.0.2/MSDK/lwip/lwip-2.1.2/src/api\tcpip.c **** static void
 156:C:/Users/stapi/OneDrive/Desktop/GD32VW553/GD32VW55X_Wifi_BLE_SDK/GD32VW55x_RELEASE_V1.0.2/MSDK/lwip/lwip-2.1.2/src/api\tcpip.c **** tcpip_thread_handle_msg(struct tcpip_msg *msg)
 157:C:/Users/stapi/OneDrive/Desktop/GD32VW553/GD32VW55X_Wifi_BLE_SDK/GD32VW55x_RELEASE_V1.0.2/MSDK/lwip/lwip-2.1.2/src/api\tcpip.c **** {
 158:C:/Users/stapi/OneDrive/Desktop/GD32VW553/GD32VW55X_Wifi_BLE_SDK/GD32VW55x_RELEASE_V1.0.2/MSDK/lwip/lwip-2.1.2/src/api\tcpip.c ****   switch (msg->type) {
 159:C:/Users/stapi/OneDrive/Desktop/GD32VW553/GD32VW55X_Wifi_BLE_SDK/GD32VW55x_RELEASE_V1.0.2/MSDK/lwip/lwip-2.1.2/src/api\tcpip.c **** #if !LWIP_TCPIP_CORE_LOCKING
 160:C:/Users/stapi/OneDrive/Desktop/GD32VW553/GD32VW55X_Wifi_BLE_SDK/GD32VW55x_RELEASE_V1.0.2/MSDK/lwip/lwip-2.1.2/src/api\tcpip.c ****     case TCPIP_MSG_API:
 161:C:/Users/stapi/OneDrive/Desktop/GD32VW553/GD32VW55X_Wifi_BLE_SDK/GD32VW55x_RELEASE_V1.0.2/MSDK/lwip/lwip-2.1.2/src/api\tcpip.c ****       LWIP_DEBUGF(TCPIP_DEBUG, ("tcpip_thread: API message %p\n", (void *)msg));
 162:C:/Users/stapi/OneDrive/Desktop/GD32VW553/GD32VW55X_Wifi_BLE_SDK/GD32VW55x_RELEASE_V1.0.2/MSDK/lwip/lwip-2.1.2/src/api\tcpip.c ****       msg->msg.api_msg.function(msg->msg.api_msg.msg);
 163:C:/Users/stapi/OneDrive/Desktop/GD32VW553/GD32VW55X_Wifi_BLE_SDK/GD32VW55x_RELEASE_V1.0.2/MSDK/lwip/lwip-2.1.2/src/api\tcpip.c ****       break;
 164:C:/Users/stapi/OneDrive/Desktop/GD32VW553/GD32VW55X_Wifi_BLE_SDK/GD32VW55x_RELEASE_V1.0.2/MSDK/lwip/lwip-2.1.2/src/api\tcpip.c ****     case TCPIP_MSG_API_CALL:
 165:C:/Users/stapi/OneDrive/Desktop/GD32VW553/GD32VW55X_Wifi_BLE_SDK/GD32VW55x_RELEASE_V1.0.2/MSDK/lwip/lwip-2.1.2/src/api\tcpip.c ****       LWIP_DEBUGF(TCPIP_DEBUG, ("tcpip_thread: API CALL message %p\n", (void *)msg));
 166:C:/Users/stapi/OneDrive/Desktop/GD32VW553/GD32VW55X_Wifi_BLE_SDK/GD32VW55x_RELEASE_V1.0.2/MSDK/lwip/lwip-2.1.2/src/api\tcpip.c ****       msg->msg.api_call.arg->err = msg->msg.api_call.function(msg->msg.api_call.arg);
 167:C:/Users/stapi/OneDrive/Desktop/GD32VW553/GD32VW55X_Wifi_BLE_SDK/GD32VW55x_RELEASE_V1.0.2/MSDK/lwip/lwip-2.1.2/src/api\tcpip.c ****       sys_sem_signal(msg->msg.api_call.sem);
 168:C:/Users/stapi/OneDrive/Desktop/GD32VW553/GD32VW55X_Wifi_BLE_SDK/GD32VW55x_RELEASE_V1.0.2/MSDK/lwip/lwip-2.1.2/src/api\tcpip.c ****       break;
 169:C:/Users/stapi/OneDrive/Desktop/GD32VW553/GD32VW55X_Wifi_BLE_SDK/GD32VW55x_RELEASE_V1.0.2/MSDK/lwip/lwip-2.1.2/src/api\tcpip.c **** #endif /* !LWIP_TCPIP_CORE_LOCKING */
 170:C:/Users/stapi/OneDrive/Desktop/GD32VW553/GD32VW55X_Wifi_BLE_SDK/GD32VW55x_RELEASE_V1.0.2/MSDK/lwip/lwip-2.1.2/src/api\tcpip.c **** 
 171:C:/Users/stapi/OneDrive/Desktop/GD32VW553/GD32VW55X_Wifi_BLE_SDK/GD32VW55x_RELEASE_V1.0.2/MSDK/lwip/lwip-2.1.2/src/api\tcpip.c **** #if !LWIP_TCPIP_CORE_LOCKING_INPUT
 172:C:/Users/stapi/OneDrive/Desktop/GD32VW553/GD32VW55X_Wifi_BLE_SDK/GD32VW55x_RELEASE_V1.0.2/MSDK/lwip/lwip-2.1.2/src/api\tcpip.c ****     case TCPIP_MSG_INPKT:
 173:C:/Users/stapi/OneDrive/Desktop/GD32VW553/GD32VW55X_Wifi_BLE_SDK/GD32VW55x_RELEASE_V1.0.2/MSDK/lwip/lwip-2.1.2/src/api\tcpip.c ****       LWIP_DEBUGF(TCPIP_DEBUG, ("tcpip_thread: PACKET %p\n", (void *)msg));
 174:C:/Users/stapi/OneDrive/Desktop/GD32VW553/GD32VW55X_Wifi_BLE_SDK/GD32VW55x_RELEASE_V1.0.2/MSDK/lwip/lwip-2.1.2/src/api\tcpip.c ****       if (msg->msg.inp.input_fn(msg->msg.inp.p, msg->msg.inp.netif) != ERR_OK) {
 175:C:/Users/stapi/OneDrive/Desktop/GD32VW553/GD32VW55X_Wifi_BLE_SDK/GD32VW55x_RELEASE_V1.0.2/MSDK/lwip/lwip-2.1.2/src/api\tcpip.c ****         pbuf_free(msg->msg.inp.p);
 176:C:/Users/stapi/OneDrive/Desktop/GD32VW553/GD32VW55X_Wifi_BLE_SDK/GD32VW55x_RELEASE_V1.0.2/MSDK/lwip/lwip-2.1.2/src/api\tcpip.c ****       }
 177:C:/Users/stapi/OneDrive/Desktop/GD32VW553/GD32VW55X_Wifi_BLE_SDK/GD32VW55x_RELEASE_V1.0.2/MSDK/lwip/lwip-2.1.2/src/api\tcpip.c ****       memp_free(MEMP_TCPIP_MSG_INPKT, msg);
 178:C:/Users/stapi/OneDrive/Desktop/GD32VW553/GD32VW55X_Wifi_BLE_SDK/GD32VW55x_RELEASE_V1.0.2/MSDK/lwip/lwip-2.1.2/src/api\tcpip.c ****       break;
 179:C:/Users/stapi/OneDrive/Desktop/GD32VW553/GD32VW55X_Wifi_BLE_SDK/GD32VW55x_RELEASE_V1.0.2/MSDK/lwip/lwip-2.1.2/src/api\tcpip.c **** #endif /* !LWIP_TCPIP_CORE_LOCKING_INPUT */
 180:C:/Users/stapi/OneDrive/Desktop/GD32VW553/GD32VW55X_Wifi_BLE_SDK/GD32VW55x_RELEASE_V1.0.2/MSDK/lwip/lwip-2.1.2/src/api\tcpip.c **** 
 181:C:/Users/stapi/OneDrive/Desktop/GD32VW553/GD32VW55X_Wifi_BLE_SDK/GD32VW55x_RELEASE_V1.0.2/MSDK/lwip/lwip-2.1.2/src/api\tcpip.c **** #if LWIP_TCPIP_TIMEOUT && LWIP_TIMERS
 182:C:/Users/stapi/OneDrive/Desktop/GD32VW553/GD32VW55X_Wifi_BLE_SDK/GD32VW55x_RELEASE_V1.0.2/MSDK/lwip/lwip-2.1.2/src/api\tcpip.c ****     case TCPIP_MSG_TIMEOUT:
 183:C:/Users/stapi/OneDrive/Desktop/GD32VW553/GD32VW55X_Wifi_BLE_SDK/GD32VW55x_RELEASE_V1.0.2/MSDK/lwip/lwip-2.1.2/src/api\tcpip.c ****       LWIP_DEBUGF(TCPIP_DEBUG, ("tcpip_thread: TIMEOUT %p\n", (void *)msg));
 184:C:/Users/stapi/OneDrive/Desktop/GD32VW553/GD32VW55X_Wifi_BLE_SDK/GD32VW55x_RELEASE_V1.0.2/MSDK/lwip/lwip-2.1.2/src/api\tcpip.c ****       sys_timeout(msg->msg.tmo.msecs, msg->msg.tmo.h, msg->msg.tmo.arg);
 185:C:/Users/stapi/OneDrive/Desktop/GD32VW553/GD32VW55X_Wifi_BLE_SDK/GD32VW55x_RELEASE_V1.0.2/MSDK/lwip/lwip-2.1.2/src/api\tcpip.c ****       memp_free(MEMP_TCPIP_MSG_API, msg);
 186:C:/Users/stapi/OneDrive/Desktop/GD32VW553/GD32VW55X_Wifi_BLE_SDK/GD32VW55x_RELEASE_V1.0.2/MSDK/lwip/lwip-2.1.2/src/api\tcpip.c ****       break;
 187:C:/Users/stapi/OneDrive/Desktop/GD32VW553/GD32VW55X_Wifi_BLE_SDK/GD32VW55x_RELEASE_V1.0.2/MSDK/lwip/lwip-2.1.2/src/api\tcpip.c ****     case TCPIP_MSG_UNTIMEOUT:
 188:C:/Users/stapi/OneDrive/Desktop/GD32VW553/GD32VW55X_Wifi_BLE_SDK/GD32VW55x_RELEASE_V1.0.2/MSDK/lwip/lwip-2.1.2/src/api\tcpip.c ****       LWIP_DEBUGF(TCPIP_DEBUG, ("tcpip_thread: UNTIMEOUT %p\n", (void *)msg));
 189:C:/Users/stapi/OneDrive/Desktop/GD32VW553/GD32VW55X_Wifi_BLE_SDK/GD32VW55x_RELEASE_V1.0.2/MSDK/lwip/lwip-2.1.2/src/api\tcpip.c ****       sys_untimeout(msg->msg.tmo.h, msg->msg.tmo.arg);
 190:C:/Users/stapi/OneDrive/Desktop/GD32VW553/GD32VW55X_Wifi_BLE_SDK/GD32VW55x_RELEASE_V1.0.2/MSDK/lwip/lwip-2.1.2/src/api\tcpip.c ****       memp_free(MEMP_TCPIP_MSG_API, msg);
 191:C:/Users/stapi/OneDrive/Desktop/GD32VW553/GD32VW55X_Wifi_BLE_SDK/GD32VW55x_RELEASE_V1.0.2/MSDK/lwip/lwip-2.1.2/src/api\tcpip.c ****       break;
 192:C:/Users/stapi/OneDrive/Desktop/GD32VW553/GD32VW55X_Wifi_BLE_SDK/GD32VW55x_RELEASE_V1.0.2/MSDK/lwip/lwip-2.1.2/src/api\tcpip.c **** #endif /* LWIP_TCPIP_TIMEOUT && LWIP_TIMERS */
 193:C:/Users/stapi/OneDrive/Desktop/GD32VW553/GD32VW55X_Wifi_BLE_SDK/GD32VW55x_RELEASE_V1.0.2/MSDK/lwip/lwip-2.1.2/src/api\tcpip.c **** 
 194:C:/Users/stapi/OneDrive/Desktop/GD32VW553/GD32VW55X_Wifi_BLE_SDK/GD32VW55x_RELEASE_V1.0.2/MSDK/lwip/lwip-2.1.2/src/api\tcpip.c ****     case TCPIP_MSG_CALLBACK:
 195:C:/Users/stapi/OneDrive/Desktop/GD32VW553/GD32VW55X_Wifi_BLE_SDK/GD32VW55x_RELEASE_V1.0.2/MSDK/lwip/lwip-2.1.2/src/api\tcpip.c ****       LWIP_DEBUGF(TCPIP_DEBUG, ("tcpip_thread: CALLBACK %p\n", (void *)msg));
 196:C:/Users/stapi/OneDrive/Desktop/GD32VW553/GD32VW55X_Wifi_BLE_SDK/GD32VW55x_RELEASE_V1.0.2/MSDK/lwip/lwip-2.1.2/src/api\tcpip.c ****       msg->msg.cb.function(msg->msg.cb.ctx);
 197:C:/Users/stapi/OneDrive/Desktop/GD32VW553/GD32VW55X_Wifi_BLE_SDK/GD32VW55x_RELEASE_V1.0.2/MSDK/lwip/lwip-2.1.2/src/api\tcpip.c ****       memp_free(MEMP_TCPIP_MSG_API, msg);
 198:C:/Users/stapi/OneDrive/Desktop/GD32VW553/GD32VW55X_Wifi_BLE_SDK/GD32VW55x_RELEASE_V1.0.2/MSDK/lwip/lwip-2.1.2/src/api\tcpip.c ****       break;
 199:C:/Users/stapi/OneDrive/Desktop/GD32VW553/GD32VW55X_Wifi_BLE_SDK/GD32VW55x_RELEASE_V1.0.2/MSDK/lwip/lwip-2.1.2/src/api\tcpip.c **** 
 200:C:/Users/stapi/OneDrive/Desktop/GD32VW553/GD32VW55X_Wifi_BLE_SDK/GD32VW55x_RELEASE_V1.0.2/MSDK/lwip/lwip-2.1.2/src/api\tcpip.c ****     case TCPIP_MSG_CALLBACK_STATIC:
 201:C:/Users/stapi/OneDrive/Desktop/GD32VW553/GD32VW55X_Wifi_BLE_SDK/GD32VW55x_RELEASE_V1.0.2/MSDK/lwip/lwip-2.1.2/src/api\tcpip.c ****       LWIP_DEBUGF(TCPIP_DEBUG, ("tcpip_thread: CALLBACK_STATIC %p\n", (void *)msg));
 202:C:/Users/stapi/OneDrive/Desktop/GD32VW553/GD32VW55X_Wifi_BLE_SDK/GD32VW55x_RELEASE_V1.0.2/MSDK/lwip/lwip-2.1.2/src/api\tcpip.c ****       msg->msg.cb.function(msg->msg.cb.ctx);
 203:C:/Users/stapi/OneDrive/Desktop/GD32VW553/GD32VW55X_Wifi_BLE_SDK/GD32VW55x_RELEASE_V1.0.2/MSDK/lwip/lwip-2.1.2/src/api\tcpip.c ****       break;
 204:C:/Users/stapi/OneDrive/Desktop/GD32VW553/GD32VW55X_Wifi_BLE_SDK/GD32VW55x_RELEASE_V1.0.2/MSDK/lwip/lwip-2.1.2/src/api\tcpip.c **** 
 205:C:/Users/stapi/OneDrive/Desktop/GD32VW553/GD32VW55X_Wifi_BLE_SDK/GD32VW55x_RELEASE_V1.0.2/MSDK/lwip/lwip-2.1.2/src/api\tcpip.c ****     default:
 206:C:/Users/stapi/OneDrive/Desktop/GD32VW553/GD32VW55X_Wifi_BLE_SDK/GD32VW55x_RELEASE_V1.0.2/MSDK/lwip/lwip-2.1.2/src/api\tcpip.c ****       LWIP_DEBUGF(TCPIP_DEBUG, ("tcpip_thread: invalid message: %d\n", msg->type));
 207:C:/Users/stapi/OneDrive/Desktop/GD32VW553/GD32VW55X_Wifi_BLE_SDK/GD32VW55x_RELEASE_V1.0.2/MSDK/lwip/lwip-2.1.2/src/api\tcpip.c ****       LWIP_ASSERT("tcpip_thread: invalid message", 0);
 208:C:/Users/stapi/OneDrive/Desktop/GD32VW553/GD32VW55X_Wifi_BLE_SDK/GD32VW55x_RELEASE_V1.0.2/MSDK/lwip/lwip-2.1.2/src/api\tcpip.c ****       break;
 209:C:/Users/stapi/OneDrive/Desktop/GD32VW553/GD32VW55X_Wifi_BLE_SDK/GD32VW55x_RELEASE_V1.0.2/MSDK/lwip/lwip-2.1.2/src/api\tcpip.c ****   }
 210:C:/Users/stapi/OneDrive/Desktop/GD32VW553/GD32VW55X_Wifi_BLE_SDK/GD32VW55x_RELEASE_V1.0.2/MSDK/lwip/lwip-2.1.2/src/api\tcpip.c **** }
 211:C:/Users/stapi/OneDrive/Desktop/GD32VW553/GD32VW55X_Wifi_BLE_SDK/GD32VW55x_RELEASE_V1.0.2/MSDK/lwip/lwip-2.1.2/src/api\tcpip.c **** 
 212:C:/Users/stapi/OneDrive/Desktop/GD32VW553/GD32VW55X_Wifi_BLE_SDK/GD32VW55x_RELEASE_V1.0.2/MSDK/lwip/lwip-2.1.2/src/api\tcpip.c **** #ifdef TCPIP_THREAD_TEST
 213:C:/Users/stapi/OneDrive/Desktop/GD32VW553/GD32VW55X_Wifi_BLE_SDK/GD32VW55x_RELEASE_V1.0.2/MSDK/lwip/lwip-2.1.2/src/api\tcpip.c **** /** Work on queued items in single-threaded test mode */
 214:C:/Users/stapi/OneDrive/Desktop/GD32VW553/GD32VW55X_Wifi_BLE_SDK/GD32VW55x_RELEASE_V1.0.2/MSDK/lwip/lwip-2.1.2/src/api\tcpip.c **** int
 215:C:/Users/stapi/OneDrive/Desktop/GD32VW553/GD32VW55X_Wifi_BLE_SDK/GD32VW55x_RELEASE_V1.0.2/MSDK/lwip/lwip-2.1.2/src/api\tcpip.c **** tcpip_thread_poll_one(void)
 216:C:/Users/stapi/OneDrive/Desktop/GD32VW553/GD32VW55X_Wifi_BLE_SDK/GD32VW55x_RELEASE_V1.0.2/MSDK/lwip/lwip-2.1.2/src/api\tcpip.c **** {
 217:C:/Users/stapi/OneDrive/Desktop/GD32VW553/GD32VW55X_Wifi_BLE_SDK/GD32VW55x_RELEASE_V1.0.2/MSDK/lwip/lwip-2.1.2/src/api\tcpip.c ****   int ret = 0;
 218:C:/Users/stapi/OneDrive/Desktop/GD32VW553/GD32VW55X_Wifi_BLE_SDK/GD32VW55x_RELEASE_V1.0.2/MSDK/lwip/lwip-2.1.2/src/api\tcpip.c ****   struct tcpip_msg *msg;
 219:C:/Users/stapi/OneDrive/Desktop/GD32VW553/GD32VW55X_Wifi_BLE_SDK/GD32VW55x_RELEASE_V1.0.2/MSDK/lwip/lwip-2.1.2/src/api\tcpip.c **** 
 220:C:/Users/stapi/OneDrive/Desktop/GD32VW553/GD32VW55X_Wifi_BLE_SDK/GD32VW55x_RELEASE_V1.0.2/MSDK/lwip/lwip-2.1.2/src/api\tcpip.c ****   if (sys_arch_mbox_tryfetch(&tcpip_mbox, (void **)&msg) != SYS_ARCH_TIMEOUT) {
 221:C:/Users/stapi/OneDrive/Desktop/GD32VW553/GD32VW55X_Wifi_BLE_SDK/GD32VW55x_RELEASE_V1.0.2/MSDK/lwip/lwip-2.1.2/src/api\tcpip.c ****     LOCK_TCPIP_CORE();
 222:C:/Users/stapi/OneDrive/Desktop/GD32VW553/GD32VW55X_Wifi_BLE_SDK/GD32VW55x_RELEASE_V1.0.2/MSDK/lwip/lwip-2.1.2/src/api\tcpip.c ****     if (msg != NULL) {
 223:C:/Users/stapi/OneDrive/Desktop/GD32VW553/GD32VW55X_Wifi_BLE_SDK/GD32VW55x_RELEASE_V1.0.2/MSDK/lwip/lwip-2.1.2/src/api\tcpip.c ****       tcpip_thread_handle_msg(msg);
 224:C:/Users/stapi/OneDrive/Desktop/GD32VW553/GD32VW55X_Wifi_BLE_SDK/GD32VW55x_RELEASE_V1.0.2/MSDK/lwip/lwip-2.1.2/src/api\tcpip.c ****       ret = 1;
 225:C:/Users/stapi/OneDrive/Desktop/GD32VW553/GD32VW55X_Wifi_BLE_SDK/GD32VW55x_RELEASE_V1.0.2/MSDK/lwip/lwip-2.1.2/src/api\tcpip.c ****     }
 226:C:/Users/stapi/OneDrive/Desktop/GD32VW553/GD32VW55X_Wifi_BLE_SDK/GD32VW55x_RELEASE_V1.0.2/MSDK/lwip/lwip-2.1.2/src/api\tcpip.c ****     UNLOCK_TCPIP_CORE();
 227:C:/Users/stapi/OneDrive/Desktop/GD32VW553/GD32VW55X_Wifi_BLE_SDK/GD32VW55x_RELEASE_V1.0.2/MSDK/lwip/lwip-2.1.2/src/api\tcpip.c ****   }
 228:C:/Users/stapi/OneDrive/Desktop/GD32VW553/GD32VW55X_Wifi_BLE_SDK/GD32VW55x_RELEASE_V1.0.2/MSDK/lwip/lwip-2.1.2/src/api\tcpip.c ****   return ret;
 229:C:/Users/stapi/OneDrive/Desktop/GD32VW553/GD32VW55X_Wifi_BLE_SDK/GD32VW55x_RELEASE_V1.0.2/MSDK/lwip/lwip-2.1.2/src/api\tcpip.c **** }
 230:C:/Users/stapi/OneDrive/Desktop/GD32VW553/GD32VW55X_Wifi_BLE_SDK/GD32VW55x_RELEASE_V1.0.2/MSDK/lwip/lwip-2.1.2/src/api\tcpip.c **** #endif
 231:C:/Users/stapi/OneDrive/Desktop/GD32VW553/GD32VW55X_Wifi_BLE_SDK/GD32VW55x_RELEASE_V1.0.2/MSDK/lwip/lwip-2.1.2/src/api\tcpip.c **** 
 232:C:/Users/stapi/OneDrive/Desktop/GD32VW553/GD32VW55X_Wifi_BLE_SDK/GD32VW55x_RELEASE_V1.0.2/MSDK/lwip/lwip-2.1.2/src/api\tcpip.c **** /**
 233:C:/Users/stapi/OneDrive/Desktop/GD32VW553/GD32VW55X_Wifi_BLE_SDK/GD32VW55x_RELEASE_V1.0.2/MSDK/lwip/lwip-2.1.2/src/api\tcpip.c ****  * Pass a received packet to tcpip_thread for input processing
 234:C:/Users/stapi/OneDrive/Desktop/GD32VW553/GD32VW55X_Wifi_BLE_SDK/GD32VW55x_RELEASE_V1.0.2/MSDK/lwip/lwip-2.1.2/src/api\tcpip.c ****  *
 235:C:/Users/stapi/OneDrive/Desktop/GD32VW553/GD32VW55X_Wifi_BLE_SDK/GD32VW55x_RELEASE_V1.0.2/MSDK/lwip/lwip-2.1.2/src/api\tcpip.c ****  * @param p the received packet
 236:C:/Users/stapi/OneDrive/Desktop/GD32VW553/GD32VW55X_Wifi_BLE_SDK/GD32VW55x_RELEASE_V1.0.2/MSDK/lwip/lwip-2.1.2/src/api\tcpip.c ****  * @param inp the network interface on which the packet was received
 237:C:/Users/stapi/OneDrive/Desktop/GD32VW553/GD32VW55X_Wifi_BLE_SDK/GD32VW55x_RELEASE_V1.0.2/MSDK/lwip/lwip-2.1.2/src/api\tcpip.c ****  * @param input_fn input function to call
 238:C:/Users/stapi/OneDrive/Desktop/GD32VW553/GD32VW55X_Wifi_BLE_SDK/GD32VW55x_RELEASE_V1.0.2/MSDK/lwip/lwip-2.1.2/src/api\tcpip.c ****  */
 239:C:/Users/stapi/OneDrive/Desktop/GD32VW553/GD32VW55X_Wifi_BLE_SDK/GD32VW55x_RELEASE_V1.0.2/MSDK/lwip/lwip-2.1.2/src/api\tcpip.c **** err_t
 240:C:/Users/stapi/OneDrive/Desktop/GD32VW553/GD32VW55X_Wifi_BLE_SDK/GD32VW55x_RELEASE_V1.0.2/MSDK/lwip/lwip-2.1.2/src/api\tcpip.c **** tcpip_inpkt(struct pbuf *p, struct netif *inp, netif_input_fn input_fn)
 241:C:/Users/stapi/OneDrive/Desktop/GD32VW553/GD32VW55X_Wifi_BLE_SDK/GD32VW55x_RELEASE_V1.0.2/MSDK/lwip/lwip-2.1.2/src/api\tcpip.c **** {
 242:C:/Users/stapi/OneDrive/Desktop/GD32VW553/GD32VW55X_Wifi_BLE_SDK/GD32VW55x_RELEASE_V1.0.2/MSDK/lwip/lwip-2.1.2/src/api\tcpip.c **** #if LWIP_TCPIP_CORE_LOCKING_INPUT
 243:C:/Users/stapi/OneDrive/Desktop/GD32VW553/GD32VW55X_Wifi_BLE_SDK/GD32VW55x_RELEASE_V1.0.2/MSDK/lwip/lwip-2.1.2/src/api\tcpip.c ****   err_t ret;
 244:C:/Users/stapi/OneDrive/Desktop/GD32VW553/GD32VW55X_Wifi_BLE_SDK/GD32VW55x_RELEASE_V1.0.2/MSDK/lwip/lwip-2.1.2/src/api\tcpip.c ****   LWIP_DEBUGF(TCPIP_DEBUG, ("tcpip_inpkt: PACKET %p/%p\n", (void *)p, (void *)inp));
 245:C:/Users/stapi/OneDrive/Desktop/GD32VW553/GD32VW55X_Wifi_BLE_SDK/GD32VW55x_RELEASE_V1.0.2/MSDK/lwip/lwip-2.1.2/src/api\tcpip.c ****   LOCK_TCPIP_CORE();
 246:C:/Users/stapi/OneDrive/Desktop/GD32VW553/GD32VW55X_Wifi_BLE_SDK/GD32VW55x_RELEASE_V1.0.2/MSDK/lwip/lwip-2.1.2/src/api\tcpip.c ****   ret = input_fn(p, inp);
 247:C:/Users/stapi/OneDrive/Desktop/GD32VW553/GD32VW55X_Wifi_BLE_SDK/GD32VW55x_RELEASE_V1.0.2/MSDK/lwip/lwip-2.1.2/src/api\tcpip.c ****   UNLOCK_TCPIP_CORE();
 248:C:/Users/stapi/OneDrive/Desktop/GD32VW553/GD32VW55X_Wifi_BLE_SDK/GD32VW55x_RELEASE_V1.0.2/MSDK/lwip/lwip-2.1.2/src/api\tcpip.c ****   return ret;
 249:C:/Users/stapi/OneDrive/Desktop/GD32VW553/GD32VW55X_Wifi_BLE_SDK/GD32VW55x_RELEASE_V1.0.2/MSDK/lwip/lwip-2.1.2/src/api\tcpip.c **** #else /* LWIP_TCPIP_CORE_LOCKING_INPUT */
 250:C:/Users/stapi/OneDrive/Desktop/GD32VW553/GD32VW55X_Wifi_BLE_SDK/GD32VW55x_RELEASE_V1.0.2/MSDK/lwip/lwip-2.1.2/src/api\tcpip.c ****   struct tcpip_msg *msg;
 251:C:/Users/stapi/OneDrive/Desktop/GD32VW553/GD32VW55X_Wifi_BLE_SDK/GD32VW55x_RELEASE_V1.0.2/MSDK/lwip/lwip-2.1.2/src/api\tcpip.c **** 
 252:C:/Users/stapi/OneDrive/Desktop/GD32VW553/GD32VW55X_Wifi_BLE_SDK/GD32VW55x_RELEASE_V1.0.2/MSDK/lwip/lwip-2.1.2/src/api\tcpip.c ****   LWIP_ASSERT("Invalid mbox", sys_mbox_valid_val(tcpip_mbox));
 253:C:/Users/stapi/OneDrive/Desktop/GD32VW553/GD32VW55X_Wifi_BLE_SDK/GD32VW55x_RELEASE_V1.0.2/MSDK/lwip/lwip-2.1.2/src/api\tcpip.c **** 
 254:C:/Users/stapi/OneDrive/Desktop/GD32VW553/GD32VW55X_Wifi_BLE_SDK/GD32VW55x_RELEASE_V1.0.2/MSDK/lwip/lwip-2.1.2/src/api\tcpip.c ****   msg = (struct tcpip_msg *)memp_malloc(MEMP_TCPIP_MSG_INPKT);
 255:C:/Users/stapi/OneDrive/Desktop/GD32VW553/GD32VW55X_Wifi_BLE_SDK/GD32VW55x_RELEASE_V1.0.2/MSDK/lwip/lwip-2.1.2/src/api\tcpip.c ****   if (msg == NULL) {
 256:C:/Users/stapi/OneDrive/Desktop/GD32VW553/GD32VW55X_Wifi_BLE_SDK/GD32VW55x_RELEASE_V1.0.2/MSDK/lwip/lwip-2.1.2/src/api\tcpip.c ****     return ERR_MEM;
 257:C:/Users/stapi/OneDrive/Desktop/GD32VW553/GD32VW55X_Wifi_BLE_SDK/GD32VW55x_RELEASE_V1.0.2/MSDK/lwip/lwip-2.1.2/src/api\tcpip.c ****   }
 258:C:/Users/stapi/OneDrive/Desktop/GD32VW553/GD32VW55X_Wifi_BLE_SDK/GD32VW55x_RELEASE_V1.0.2/MSDK/lwip/lwip-2.1.2/src/api\tcpip.c **** 
 259:C:/Users/stapi/OneDrive/Desktop/GD32VW553/GD32VW55X_Wifi_BLE_SDK/GD32VW55x_RELEASE_V1.0.2/MSDK/lwip/lwip-2.1.2/src/api\tcpip.c ****   msg->type = TCPIP_MSG_INPKT;
 260:C:/Users/stapi/OneDrive/Desktop/GD32VW553/GD32VW55X_Wifi_BLE_SDK/GD32VW55x_RELEASE_V1.0.2/MSDK/lwip/lwip-2.1.2/src/api\tcpip.c ****   msg->msg.inp.p = p;
 261:C:/Users/stapi/OneDrive/Desktop/GD32VW553/GD32VW55X_Wifi_BLE_SDK/GD32VW55x_RELEASE_V1.0.2/MSDK/lwip/lwip-2.1.2/src/api\tcpip.c ****   msg->msg.inp.netif = inp;
 262:C:/Users/stapi/OneDrive/Desktop/GD32VW553/GD32VW55X_Wifi_BLE_SDK/GD32VW55x_RELEASE_V1.0.2/MSDK/lwip/lwip-2.1.2/src/api\tcpip.c ****   msg->msg.inp.input_fn = input_fn;
 263:C:/Users/stapi/OneDrive/Desktop/GD32VW553/GD32VW55X_Wifi_BLE_SDK/GD32VW55x_RELEASE_V1.0.2/MSDK/lwip/lwip-2.1.2/src/api\tcpip.c ****   if (sys_mbox_trypost(&tcpip_mbox, msg) != ERR_OK) {
 264:C:/Users/stapi/OneDrive/Desktop/GD32VW553/GD32VW55X_Wifi_BLE_SDK/GD32VW55x_RELEASE_V1.0.2/MSDK/lwip/lwip-2.1.2/src/api\tcpip.c ****     memp_free(MEMP_TCPIP_MSG_INPKT, msg);
 265:C:/Users/stapi/OneDrive/Desktop/GD32VW553/GD32VW55X_Wifi_BLE_SDK/GD32VW55x_RELEASE_V1.0.2/MSDK/lwip/lwip-2.1.2/src/api\tcpip.c ****     return ERR_MEM;
 266:C:/Users/stapi/OneDrive/Desktop/GD32VW553/GD32VW55X_Wifi_BLE_SDK/GD32VW55x_RELEASE_V1.0.2/MSDK/lwip/lwip-2.1.2/src/api\tcpip.c ****   }
 267:C:/Users/stapi/OneDrive/Desktop/GD32VW553/GD32VW55X_Wifi_BLE_SDK/GD32VW55x_RELEASE_V1.0.2/MSDK/lwip/lwip-2.1.2/src/api\tcpip.c ****   return ERR_OK;
 268:C:/Users/stapi/OneDrive/Desktop/GD32VW553/GD32VW55X_Wifi_BLE_SDK/GD32VW55x_RELEASE_V1.0.2/MSDK/lwip/lwip-2.1.2/src/api\tcpip.c **** #endif /* LWIP_TCPIP_CORE_LOCKING_INPUT */
 269:C:/Users/stapi/OneDrive/Desktop/GD32VW553/GD32VW55X_Wifi_BLE_SDK/GD32VW55x_RELEASE_V1.0.2/MSDK/lwip/lwip-2.1.2/src/api\tcpip.c **** }
 270:C:/Users/stapi/OneDrive/Desktop/GD32VW553/GD32VW55X_Wifi_BLE_SDK/GD32VW55x_RELEASE_V1.0.2/MSDK/lwip/lwip-2.1.2/src/api\tcpip.c **** 
 271:C:/Users/stapi/OneDrive/Desktop/GD32VW553/GD32VW55X_Wifi_BLE_SDK/GD32VW55x_RELEASE_V1.0.2/MSDK/lwip/lwip-2.1.2/src/api\tcpip.c **** /**
 272:C:/Users/stapi/OneDrive/Desktop/GD32VW553/GD32VW55X_Wifi_BLE_SDK/GD32VW55x_RELEASE_V1.0.2/MSDK/lwip/lwip-2.1.2/src/api\tcpip.c ****  * @ingroup lwip_os
 273:C:/Users/stapi/OneDrive/Desktop/GD32VW553/GD32VW55X_Wifi_BLE_SDK/GD32VW55x_RELEASE_V1.0.2/MSDK/lwip/lwip-2.1.2/src/api\tcpip.c ****  * Pass a received packet to tcpip_thread for input processing with
 274:C:/Users/stapi/OneDrive/Desktop/GD32VW553/GD32VW55X_Wifi_BLE_SDK/GD32VW55x_RELEASE_V1.0.2/MSDK/lwip/lwip-2.1.2/src/api\tcpip.c ****  * ethernet_input or ip_input. Don't call directly, pass to netif_add()
 275:C:/Users/stapi/OneDrive/Desktop/GD32VW553/GD32VW55X_Wifi_BLE_SDK/GD32VW55x_RELEASE_V1.0.2/MSDK/lwip/lwip-2.1.2/src/api\tcpip.c ****  * and call netif->input().
 276:C:/Users/stapi/OneDrive/Desktop/GD32VW553/GD32VW55X_Wifi_BLE_SDK/GD32VW55x_RELEASE_V1.0.2/MSDK/lwip/lwip-2.1.2/src/api\tcpip.c ****  *
 277:C:/Users/stapi/OneDrive/Desktop/GD32VW553/GD32VW55X_Wifi_BLE_SDK/GD32VW55x_RELEASE_V1.0.2/MSDK/lwip/lwip-2.1.2/src/api\tcpip.c ****  * @param p the received packet, p->payload pointing to the Ethernet header or
 278:C:/Users/stapi/OneDrive/Desktop/GD32VW553/GD32VW55X_Wifi_BLE_SDK/GD32VW55x_RELEASE_V1.0.2/MSDK/lwip/lwip-2.1.2/src/api\tcpip.c ****  *          to an IP header (if inp doesn't have NETIF_FLAG_ETHARP or
 279:C:/Users/stapi/OneDrive/Desktop/GD32VW553/GD32VW55X_Wifi_BLE_SDK/GD32VW55x_RELEASE_V1.0.2/MSDK/lwip/lwip-2.1.2/src/api\tcpip.c ****  *          NETIF_FLAG_ETHERNET flags)
 280:C:/Users/stapi/OneDrive/Desktop/GD32VW553/GD32VW55X_Wifi_BLE_SDK/GD32VW55x_RELEASE_V1.0.2/MSDK/lwip/lwip-2.1.2/src/api\tcpip.c ****  * @param inp the network interface on which the packet was received
 281:C:/Users/stapi/OneDrive/Desktop/GD32VW553/GD32VW55X_Wifi_BLE_SDK/GD32VW55x_RELEASE_V1.0.2/MSDK/lwip/lwip-2.1.2/src/api\tcpip.c ****  */
 282:C:/Users/stapi/OneDrive/Desktop/GD32VW553/GD32VW55X_Wifi_BLE_SDK/GD32VW55x_RELEASE_V1.0.2/MSDK/lwip/lwip-2.1.2/src/api\tcpip.c **** err_t
 283:C:/Users/stapi/OneDrive/Desktop/GD32VW553/GD32VW55X_Wifi_BLE_SDK/GD32VW55x_RELEASE_V1.0.2/MSDK/lwip/lwip-2.1.2/src/api\tcpip.c **** tcpip_input(struct pbuf *p, struct netif *inp)
 284:C:/Users/stapi/OneDrive/Desktop/GD32VW553/GD32VW55X_Wifi_BLE_SDK/GD32VW55x_RELEASE_V1.0.2/MSDK/lwip/lwip-2.1.2/src/api\tcpip.c **** {
 285:C:/Users/stapi/OneDrive/Desktop/GD32VW553/GD32VW55X_Wifi_BLE_SDK/GD32VW55x_RELEASE_V1.0.2/MSDK/lwip/lwip-2.1.2/src/api\tcpip.c **** #if LWIP_ETHERNET
 286:C:/Users/stapi/OneDrive/Desktop/GD32VW553/GD32VW55X_Wifi_BLE_SDK/GD32VW55x_RELEASE_V1.0.2/MSDK/lwip/lwip-2.1.2/src/api\tcpip.c ****   if (inp->flags & (NETIF_FLAG_ETHARP | NETIF_FLAG_ETHERNET)) {
 287:C:/Users/stapi/OneDrive/Desktop/GD32VW553/GD32VW55X_Wifi_BLE_SDK/GD32VW55x_RELEASE_V1.0.2/MSDK/lwip/lwip-2.1.2/src/api\tcpip.c ****     return tcpip_inpkt(p, inp, ethernet_input);
 288:C:/Users/stapi/OneDrive/Desktop/GD32VW553/GD32VW55X_Wifi_BLE_SDK/GD32VW55x_RELEASE_V1.0.2/MSDK/lwip/lwip-2.1.2/src/api\tcpip.c ****   } else
 289:C:/Users/stapi/OneDrive/Desktop/GD32VW553/GD32VW55X_Wifi_BLE_SDK/GD32VW55x_RELEASE_V1.0.2/MSDK/lwip/lwip-2.1.2/src/api\tcpip.c **** #endif /* LWIP_ETHERNET */
 290:C:/Users/stapi/OneDrive/Desktop/GD32VW553/GD32VW55X_Wifi_BLE_SDK/GD32VW55x_RELEASE_V1.0.2/MSDK/lwip/lwip-2.1.2/src/api\tcpip.c ****     return tcpip_inpkt(p, inp, ip_input);
 291:C:/Users/stapi/OneDrive/Desktop/GD32VW553/GD32VW55X_Wifi_BLE_SDK/GD32VW55x_RELEASE_V1.0.2/MSDK/lwip/lwip-2.1.2/src/api\tcpip.c **** }
 292:C:/Users/stapi/OneDrive/Desktop/GD32VW553/GD32VW55X_Wifi_BLE_SDK/GD32VW55x_RELEASE_V1.0.2/MSDK/lwip/lwip-2.1.2/src/api\tcpip.c **** 
 293:C:/Users/stapi/OneDrive/Desktop/GD32VW553/GD32VW55X_Wifi_BLE_SDK/GD32VW55x_RELEASE_V1.0.2/MSDK/lwip/lwip-2.1.2/src/api\tcpip.c **** /**
 294:C:/Users/stapi/OneDrive/Desktop/GD32VW553/GD32VW55X_Wifi_BLE_SDK/GD32VW55x_RELEASE_V1.0.2/MSDK/lwip/lwip-2.1.2/src/api\tcpip.c ****  * @ingroup lwip_os
 295:C:/Users/stapi/OneDrive/Desktop/GD32VW553/GD32VW55X_Wifi_BLE_SDK/GD32VW55x_RELEASE_V1.0.2/MSDK/lwip/lwip-2.1.2/src/api\tcpip.c ****  * Call a specific function in the thread context of
 296:C:/Users/stapi/OneDrive/Desktop/GD32VW553/GD32VW55X_Wifi_BLE_SDK/GD32VW55x_RELEASE_V1.0.2/MSDK/lwip/lwip-2.1.2/src/api\tcpip.c ****  * tcpip_thread for easy access synchronization.
 297:C:/Users/stapi/OneDrive/Desktop/GD32VW553/GD32VW55X_Wifi_BLE_SDK/GD32VW55x_RELEASE_V1.0.2/MSDK/lwip/lwip-2.1.2/src/api\tcpip.c ****  * A function called in that way may access lwIP core code
 298:C:/Users/stapi/OneDrive/Desktop/GD32VW553/GD32VW55X_Wifi_BLE_SDK/GD32VW55x_RELEASE_V1.0.2/MSDK/lwip/lwip-2.1.2/src/api\tcpip.c ****  * without fearing concurrent access.
 299:C:/Users/stapi/OneDrive/Desktop/GD32VW553/GD32VW55X_Wifi_BLE_SDK/GD32VW55x_RELEASE_V1.0.2/MSDK/lwip/lwip-2.1.2/src/api\tcpip.c ****  * Blocks until the request is posted.
 300:C:/Users/stapi/OneDrive/Desktop/GD32VW553/GD32VW55X_Wifi_BLE_SDK/GD32VW55x_RELEASE_V1.0.2/MSDK/lwip/lwip-2.1.2/src/api\tcpip.c ****  * Must not be called from interrupt context!
 301:C:/Users/stapi/OneDrive/Desktop/GD32VW553/GD32VW55X_Wifi_BLE_SDK/GD32VW55x_RELEASE_V1.0.2/MSDK/lwip/lwip-2.1.2/src/api\tcpip.c ****  *
 302:C:/Users/stapi/OneDrive/Desktop/GD32VW553/GD32VW55X_Wifi_BLE_SDK/GD32VW55x_RELEASE_V1.0.2/MSDK/lwip/lwip-2.1.2/src/api\tcpip.c ****  * @param function the function to call
 303:C:/Users/stapi/OneDrive/Desktop/GD32VW553/GD32VW55X_Wifi_BLE_SDK/GD32VW55x_RELEASE_V1.0.2/MSDK/lwip/lwip-2.1.2/src/api\tcpip.c ****  * @param ctx parameter passed to f
 304:C:/Users/stapi/OneDrive/Desktop/GD32VW553/GD32VW55X_Wifi_BLE_SDK/GD32VW55x_RELEASE_V1.0.2/MSDK/lwip/lwip-2.1.2/src/api\tcpip.c ****  * @return ERR_OK if the function was called, another err_t if not
 305:C:/Users/stapi/OneDrive/Desktop/GD32VW553/GD32VW55X_Wifi_BLE_SDK/GD32VW55x_RELEASE_V1.0.2/MSDK/lwip/lwip-2.1.2/src/api\tcpip.c ****  *
 306:C:/Users/stapi/OneDrive/Desktop/GD32VW553/GD32VW55X_Wifi_BLE_SDK/GD32VW55x_RELEASE_V1.0.2/MSDK/lwip/lwip-2.1.2/src/api\tcpip.c ****  * @see tcpip_try_callback
 307:C:/Users/stapi/OneDrive/Desktop/GD32VW553/GD32VW55X_Wifi_BLE_SDK/GD32VW55x_RELEASE_V1.0.2/MSDK/lwip/lwip-2.1.2/src/api\tcpip.c ****  */
 308:C:/Users/stapi/OneDrive/Desktop/GD32VW553/GD32VW55X_Wifi_BLE_SDK/GD32VW55x_RELEASE_V1.0.2/MSDK/lwip/lwip-2.1.2/src/api\tcpip.c **** err_t
 309:C:/Users/stapi/OneDrive/Desktop/GD32VW553/GD32VW55X_Wifi_BLE_SDK/GD32VW55x_RELEASE_V1.0.2/MSDK/lwip/lwip-2.1.2/src/api\tcpip.c **** tcpip_callback(tcpip_callback_fn function, void *ctx)
 310:C:/Users/stapi/OneDrive/Desktop/GD32VW553/GD32VW55X_Wifi_BLE_SDK/GD32VW55x_RELEASE_V1.0.2/MSDK/lwip/lwip-2.1.2/src/api\tcpip.c **** {
 311:C:/Users/stapi/OneDrive/Desktop/GD32VW553/GD32VW55X_Wifi_BLE_SDK/GD32VW55x_RELEASE_V1.0.2/MSDK/lwip/lwip-2.1.2/src/api\tcpip.c ****   struct tcpip_msg *msg;
 312:C:/Users/stapi/OneDrive/Desktop/GD32VW553/GD32VW55X_Wifi_BLE_SDK/GD32VW55x_RELEASE_V1.0.2/MSDK/lwip/lwip-2.1.2/src/api\tcpip.c **** 
 313:C:/Users/stapi/OneDrive/Desktop/GD32VW553/GD32VW55X_Wifi_BLE_SDK/GD32VW55x_RELEASE_V1.0.2/MSDK/lwip/lwip-2.1.2/src/api\tcpip.c ****   LWIP_ASSERT("Invalid mbox", sys_mbox_valid_val(tcpip_mbox));
 314:C:/Users/stapi/OneDrive/Desktop/GD32VW553/GD32VW55X_Wifi_BLE_SDK/GD32VW55x_RELEASE_V1.0.2/MSDK/lwip/lwip-2.1.2/src/api\tcpip.c **** 
 315:C:/Users/stapi/OneDrive/Desktop/GD32VW553/GD32VW55X_Wifi_BLE_SDK/GD32VW55x_RELEASE_V1.0.2/MSDK/lwip/lwip-2.1.2/src/api\tcpip.c ****   msg = (struct tcpip_msg *)memp_malloc(MEMP_TCPIP_MSG_API);
 316:C:/Users/stapi/OneDrive/Desktop/GD32VW553/GD32VW55X_Wifi_BLE_SDK/GD32VW55x_RELEASE_V1.0.2/MSDK/lwip/lwip-2.1.2/src/api\tcpip.c ****   if (msg == NULL) {
 317:C:/Users/stapi/OneDrive/Desktop/GD32VW553/GD32VW55X_Wifi_BLE_SDK/GD32VW55x_RELEASE_V1.0.2/MSDK/lwip/lwip-2.1.2/src/api\tcpip.c ****     return ERR_MEM;
 318:C:/Users/stapi/OneDrive/Desktop/GD32VW553/GD32VW55X_Wifi_BLE_SDK/GD32VW55x_RELEASE_V1.0.2/MSDK/lwip/lwip-2.1.2/src/api\tcpip.c ****   }
 319:C:/Users/stapi/OneDrive/Desktop/GD32VW553/GD32VW55X_Wifi_BLE_SDK/GD32VW55x_RELEASE_V1.0.2/MSDK/lwip/lwip-2.1.2/src/api\tcpip.c **** 
 320:C:/Users/stapi/OneDrive/Desktop/GD32VW553/GD32VW55X_Wifi_BLE_SDK/GD32VW55x_RELEASE_V1.0.2/MSDK/lwip/lwip-2.1.2/src/api\tcpip.c ****   msg->type = TCPIP_MSG_CALLBACK;
 321:C:/Users/stapi/OneDrive/Desktop/GD32VW553/GD32VW55X_Wifi_BLE_SDK/GD32VW55x_RELEASE_V1.0.2/MSDK/lwip/lwip-2.1.2/src/api\tcpip.c ****   msg->msg.cb.function = function;
 322:C:/Users/stapi/OneDrive/Desktop/GD32VW553/GD32VW55X_Wifi_BLE_SDK/GD32VW55x_RELEASE_V1.0.2/MSDK/lwip/lwip-2.1.2/src/api\tcpip.c ****   msg->msg.cb.ctx = ctx;
 323:C:/Users/stapi/OneDrive/Desktop/GD32VW553/GD32VW55X_Wifi_BLE_SDK/GD32VW55x_RELEASE_V1.0.2/MSDK/lwip/lwip-2.1.2/src/api\tcpip.c **** 
 324:C:/Users/stapi/OneDrive/Desktop/GD32VW553/GD32VW55X_Wifi_BLE_SDK/GD32VW55x_RELEASE_V1.0.2/MSDK/lwip/lwip-2.1.2/src/api\tcpip.c ****   sys_mbox_post(&tcpip_mbox, msg);
 325:C:/Users/stapi/OneDrive/Desktop/GD32VW553/GD32VW55X_Wifi_BLE_SDK/GD32VW55x_RELEASE_V1.0.2/MSDK/lwip/lwip-2.1.2/src/api\tcpip.c ****   return ERR_OK;
 326:C:/Users/stapi/OneDrive/Desktop/GD32VW553/GD32VW55X_Wifi_BLE_SDK/GD32VW55x_RELEASE_V1.0.2/MSDK/lwip/lwip-2.1.2/src/api\tcpip.c **** }
 327:C:/Users/stapi/OneDrive/Desktop/GD32VW553/GD32VW55X_Wifi_BLE_SDK/GD32VW55x_RELEASE_V1.0.2/MSDK/lwip/lwip-2.1.2/src/api\tcpip.c **** 
 328:C:/Users/stapi/OneDrive/Desktop/GD32VW553/GD32VW55X_Wifi_BLE_SDK/GD32VW55x_RELEASE_V1.0.2/MSDK/lwip/lwip-2.1.2/src/api\tcpip.c **** /**
 329:C:/Users/stapi/OneDrive/Desktop/GD32VW553/GD32VW55X_Wifi_BLE_SDK/GD32VW55x_RELEASE_V1.0.2/MSDK/lwip/lwip-2.1.2/src/api\tcpip.c ****  * @ingroup lwip_os
 330:C:/Users/stapi/OneDrive/Desktop/GD32VW553/GD32VW55X_Wifi_BLE_SDK/GD32VW55x_RELEASE_V1.0.2/MSDK/lwip/lwip-2.1.2/src/api\tcpip.c ****  * Call a specific function in the thread context of
 331:C:/Users/stapi/OneDrive/Desktop/GD32VW553/GD32VW55X_Wifi_BLE_SDK/GD32VW55x_RELEASE_V1.0.2/MSDK/lwip/lwip-2.1.2/src/api\tcpip.c ****  * tcpip_thread for easy access synchronization.
 332:C:/Users/stapi/OneDrive/Desktop/GD32VW553/GD32VW55X_Wifi_BLE_SDK/GD32VW55x_RELEASE_V1.0.2/MSDK/lwip/lwip-2.1.2/src/api\tcpip.c ****  * A function called in that way may access lwIP core code
 333:C:/Users/stapi/OneDrive/Desktop/GD32VW553/GD32VW55X_Wifi_BLE_SDK/GD32VW55x_RELEASE_V1.0.2/MSDK/lwip/lwip-2.1.2/src/api\tcpip.c ****  * without fearing concurrent access.
 334:C:/Users/stapi/OneDrive/Desktop/GD32VW553/GD32VW55X_Wifi_BLE_SDK/GD32VW55x_RELEASE_V1.0.2/MSDK/lwip/lwip-2.1.2/src/api\tcpip.c ****  * Does NOT block when the request cannot be posted because the
 335:C:/Users/stapi/OneDrive/Desktop/GD32VW553/GD32VW55X_Wifi_BLE_SDK/GD32VW55x_RELEASE_V1.0.2/MSDK/lwip/lwip-2.1.2/src/api\tcpip.c ****  * tcpip_mbox is full, but returns ERR_MEM instead.
 336:C:/Users/stapi/OneDrive/Desktop/GD32VW553/GD32VW55X_Wifi_BLE_SDK/GD32VW55x_RELEASE_V1.0.2/MSDK/lwip/lwip-2.1.2/src/api\tcpip.c ****  * Can be called from interrupt context.
 337:C:/Users/stapi/OneDrive/Desktop/GD32VW553/GD32VW55X_Wifi_BLE_SDK/GD32VW55x_RELEASE_V1.0.2/MSDK/lwip/lwip-2.1.2/src/api\tcpip.c ****  *
 338:C:/Users/stapi/OneDrive/Desktop/GD32VW553/GD32VW55X_Wifi_BLE_SDK/GD32VW55x_RELEASE_V1.0.2/MSDK/lwip/lwip-2.1.2/src/api\tcpip.c ****  * @param function the function to call
 339:C:/Users/stapi/OneDrive/Desktop/GD32VW553/GD32VW55X_Wifi_BLE_SDK/GD32VW55x_RELEASE_V1.0.2/MSDK/lwip/lwip-2.1.2/src/api\tcpip.c ****  * @param ctx parameter passed to f
 340:C:/Users/stapi/OneDrive/Desktop/GD32VW553/GD32VW55X_Wifi_BLE_SDK/GD32VW55x_RELEASE_V1.0.2/MSDK/lwip/lwip-2.1.2/src/api\tcpip.c ****  * @return ERR_OK if the function was called, another err_t if not
 341:C:/Users/stapi/OneDrive/Desktop/GD32VW553/GD32VW55X_Wifi_BLE_SDK/GD32VW55x_RELEASE_V1.0.2/MSDK/lwip/lwip-2.1.2/src/api\tcpip.c ****  *
 342:C:/Users/stapi/OneDrive/Desktop/GD32VW553/GD32VW55X_Wifi_BLE_SDK/GD32VW55x_RELEASE_V1.0.2/MSDK/lwip/lwip-2.1.2/src/api\tcpip.c ****  * @see tcpip_callback
 343:C:/Users/stapi/OneDrive/Desktop/GD32VW553/GD32VW55X_Wifi_BLE_SDK/GD32VW55x_RELEASE_V1.0.2/MSDK/lwip/lwip-2.1.2/src/api\tcpip.c ****  */
 344:C:/Users/stapi/OneDrive/Desktop/GD32VW553/GD32VW55X_Wifi_BLE_SDK/GD32VW55x_RELEASE_V1.0.2/MSDK/lwip/lwip-2.1.2/src/api\tcpip.c **** err_t
 345:C:/Users/stapi/OneDrive/Desktop/GD32VW553/GD32VW55X_Wifi_BLE_SDK/GD32VW55x_RELEASE_V1.0.2/MSDK/lwip/lwip-2.1.2/src/api\tcpip.c **** tcpip_try_callback(tcpip_callback_fn function, void *ctx)
 346:C:/Users/stapi/OneDrive/Desktop/GD32VW553/GD32VW55X_Wifi_BLE_SDK/GD32VW55x_RELEASE_V1.0.2/MSDK/lwip/lwip-2.1.2/src/api\tcpip.c **** {
 347:C:/Users/stapi/OneDrive/Desktop/GD32VW553/GD32VW55X_Wifi_BLE_SDK/GD32VW55x_RELEASE_V1.0.2/MSDK/lwip/lwip-2.1.2/src/api\tcpip.c ****   struct tcpip_msg *msg;
 348:C:/Users/stapi/OneDrive/Desktop/GD32VW553/GD32VW55X_Wifi_BLE_SDK/GD32VW55x_RELEASE_V1.0.2/MSDK/lwip/lwip-2.1.2/src/api\tcpip.c **** 
 349:C:/Users/stapi/OneDrive/Desktop/GD32VW553/GD32VW55X_Wifi_BLE_SDK/GD32VW55x_RELEASE_V1.0.2/MSDK/lwip/lwip-2.1.2/src/api\tcpip.c ****   LWIP_ASSERT("Invalid mbox", sys_mbox_valid_val(tcpip_mbox));
 350:C:/Users/stapi/OneDrive/Desktop/GD32VW553/GD32VW55X_Wifi_BLE_SDK/GD32VW55x_RELEASE_V1.0.2/MSDK/lwip/lwip-2.1.2/src/api\tcpip.c **** 
 351:C:/Users/stapi/OneDrive/Desktop/GD32VW553/GD32VW55X_Wifi_BLE_SDK/GD32VW55x_RELEASE_V1.0.2/MSDK/lwip/lwip-2.1.2/src/api\tcpip.c ****   msg = (struct tcpip_msg *)memp_malloc(MEMP_TCPIP_MSG_API);
 352:C:/Users/stapi/OneDrive/Desktop/GD32VW553/GD32VW55X_Wifi_BLE_SDK/GD32VW55x_RELEASE_V1.0.2/MSDK/lwip/lwip-2.1.2/src/api\tcpip.c ****   if (msg == NULL) {
 353:C:/Users/stapi/OneDrive/Desktop/GD32VW553/GD32VW55X_Wifi_BLE_SDK/GD32VW55x_RELEASE_V1.0.2/MSDK/lwip/lwip-2.1.2/src/api\tcpip.c ****     return ERR_MEM;
 354:C:/Users/stapi/OneDrive/Desktop/GD32VW553/GD32VW55X_Wifi_BLE_SDK/GD32VW55x_RELEASE_V1.0.2/MSDK/lwip/lwip-2.1.2/src/api\tcpip.c ****   }
 355:C:/Users/stapi/OneDrive/Desktop/GD32VW553/GD32VW55X_Wifi_BLE_SDK/GD32VW55x_RELEASE_V1.0.2/MSDK/lwip/lwip-2.1.2/src/api\tcpip.c **** 
 356:C:/Users/stapi/OneDrive/Desktop/GD32VW553/GD32VW55X_Wifi_BLE_SDK/GD32VW55x_RELEASE_V1.0.2/MSDK/lwip/lwip-2.1.2/src/api\tcpip.c ****   msg->type = TCPIP_MSG_CALLBACK;
 357:C:/Users/stapi/OneDrive/Desktop/GD32VW553/GD32VW55X_Wifi_BLE_SDK/GD32VW55x_RELEASE_V1.0.2/MSDK/lwip/lwip-2.1.2/src/api\tcpip.c ****   msg->msg.cb.function = function;
 358:C:/Users/stapi/OneDrive/Desktop/GD32VW553/GD32VW55X_Wifi_BLE_SDK/GD32VW55x_RELEASE_V1.0.2/MSDK/lwip/lwip-2.1.2/src/api\tcpip.c ****   msg->msg.cb.ctx = ctx;
 359:C:/Users/stapi/OneDrive/Desktop/GD32VW553/GD32VW55X_Wifi_BLE_SDK/GD32VW55x_RELEASE_V1.0.2/MSDK/lwip/lwip-2.1.2/src/api\tcpip.c **** 
 360:C:/Users/stapi/OneDrive/Desktop/GD32VW553/GD32VW55X_Wifi_BLE_SDK/GD32VW55x_RELEASE_V1.0.2/MSDK/lwip/lwip-2.1.2/src/api\tcpip.c ****   if (sys_mbox_trypost(&tcpip_mbox, msg) != ERR_OK) {
 361:C:/Users/stapi/OneDrive/Desktop/GD32VW553/GD32VW55X_Wifi_BLE_SDK/GD32VW55x_RELEASE_V1.0.2/MSDK/lwip/lwip-2.1.2/src/api\tcpip.c ****     memp_free(MEMP_TCPIP_MSG_API, msg);
 362:C:/Users/stapi/OneDrive/Desktop/GD32VW553/GD32VW55X_Wifi_BLE_SDK/GD32VW55x_RELEASE_V1.0.2/MSDK/lwip/lwip-2.1.2/src/api\tcpip.c ****     return ERR_MEM;
 363:C:/Users/stapi/OneDrive/Desktop/GD32VW553/GD32VW55X_Wifi_BLE_SDK/GD32VW55x_RELEASE_V1.0.2/MSDK/lwip/lwip-2.1.2/src/api\tcpip.c ****   }
 364:C:/Users/stapi/OneDrive/Desktop/GD32VW553/GD32VW55X_Wifi_BLE_SDK/GD32VW55x_RELEASE_V1.0.2/MSDK/lwip/lwip-2.1.2/src/api\tcpip.c ****   return ERR_OK;
 365:C:/Users/stapi/OneDrive/Desktop/GD32VW553/GD32VW55X_Wifi_BLE_SDK/GD32VW55x_RELEASE_V1.0.2/MSDK/lwip/lwip-2.1.2/src/api\tcpip.c **** }
 366:C:/Users/stapi/OneDrive/Desktop/GD32VW553/GD32VW55X_Wifi_BLE_SDK/GD32VW55x_RELEASE_V1.0.2/MSDK/lwip/lwip-2.1.2/src/api\tcpip.c **** 
 367:C:/Users/stapi/OneDrive/Desktop/GD32VW553/GD32VW55X_Wifi_BLE_SDK/GD32VW55x_RELEASE_V1.0.2/MSDK/lwip/lwip-2.1.2/src/api\tcpip.c **** #if LWIP_TCPIP_TIMEOUT && LWIP_TIMERS
 368:C:/Users/stapi/OneDrive/Desktop/GD32VW553/GD32VW55X_Wifi_BLE_SDK/GD32VW55x_RELEASE_V1.0.2/MSDK/lwip/lwip-2.1.2/src/api\tcpip.c **** /**
 369:C:/Users/stapi/OneDrive/Desktop/GD32VW553/GD32VW55X_Wifi_BLE_SDK/GD32VW55x_RELEASE_V1.0.2/MSDK/lwip/lwip-2.1.2/src/api\tcpip.c ****  * call sys_timeout in tcpip_thread
 370:C:/Users/stapi/OneDrive/Desktop/GD32VW553/GD32VW55X_Wifi_BLE_SDK/GD32VW55x_RELEASE_V1.0.2/MSDK/lwip/lwip-2.1.2/src/api\tcpip.c ****  *
 371:C:/Users/stapi/OneDrive/Desktop/GD32VW553/GD32VW55X_Wifi_BLE_SDK/GD32VW55x_RELEASE_V1.0.2/MSDK/lwip/lwip-2.1.2/src/api\tcpip.c ****  * @param msecs time in milliseconds for timeout
 372:C:/Users/stapi/OneDrive/Desktop/GD32VW553/GD32VW55X_Wifi_BLE_SDK/GD32VW55x_RELEASE_V1.0.2/MSDK/lwip/lwip-2.1.2/src/api\tcpip.c ****  * @param h function to be called on timeout
 373:C:/Users/stapi/OneDrive/Desktop/GD32VW553/GD32VW55X_Wifi_BLE_SDK/GD32VW55x_RELEASE_V1.0.2/MSDK/lwip/lwip-2.1.2/src/api\tcpip.c ****  * @param arg argument to pass to timeout function h
 374:C:/Users/stapi/OneDrive/Desktop/GD32VW553/GD32VW55X_Wifi_BLE_SDK/GD32VW55x_RELEASE_V1.0.2/MSDK/lwip/lwip-2.1.2/src/api\tcpip.c ****  * @return ERR_MEM on memory error, ERR_OK otherwise
 375:C:/Users/stapi/OneDrive/Desktop/GD32VW553/GD32VW55X_Wifi_BLE_SDK/GD32VW55x_RELEASE_V1.0.2/MSDK/lwip/lwip-2.1.2/src/api\tcpip.c ****  */
 376:C:/Users/stapi/OneDrive/Desktop/GD32VW553/GD32VW55X_Wifi_BLE_SDK/GD32VW55x_RELEASE_V1.0.2/MSDK/lwip/lwip-2.1.2/src/api\tcpip.c **** err_t
 377:C:/Users/stapi/OneDrive/Desktop/GD32VW553/GD32VW55X_Wifi_BLE_SDK/GD32VW55x_RELEASE_V1.0.2/MSDK/lwip/lwip-2.1.2/src/api\tcpip.c **** tcpip_timeout(u32_t msecs, sys_timeout_handler h, void *arg)
 378:C:/Users/stapi/OneDrive/Desktop/GD32VW553/GD32VW55X_Wifi_BLE_SDK/GD32VW55x_RELEASE_V1.0.2/MSDK/lwip/lwip-2.1.2/src/api\tcpip.c **** {
 379:C:/Users/stapi/OneDrive/Desktop/GD32VW553/GD32VW55X_Wifi_BLE_SDK/GD32VW55x_RELEASE_V1.0.2/MSDK/lwip/lwip-2.1.2/src/api\tcpip.c ****   struct tcpip_msg *msg;
 380:C:/Users/stapi/OneDrive/Desktop/GD32VW553/GD32VW55X_Wifi_BLE_SDK/GD32VW55x_RELEASE_V1.0.2/MSDK/lwip/lwip-2.1.2/src/api\tcpip.c **** 
 381:C:/Users/stapi/OneDrive/Desktop/GD32VW553/GD32VW55X_Wifi_BLE_SDK/GD32VW55x_RELEASE_V1.0.2/MSDK/lwip/lwip-2.1.2/src/api\tcpip.c ****   LWIP_ASSERT("Invalid mbox", sys_mbox_valid_val(tcpip_mbox));
 382:C:/Users/stapi/OneDrive/Desktop/GD32VW553/GD32VW55X_Wifi_BLE_SDK/GD32VW55x_RELEASE_V1.0.2/MSDK/lwip/lwip-2.1.2/src/api\tcpip.c **** 
 383:C:/Users/stapi/OneDrive/Desktop/GD32VW553/GD32VW55X_Wifi_BLE_SDK/GD32VW55x_RELEASE_V1.0.2/MSDK/lwip/lwip-2.1.2/src/api\tcpip.c ****   msg = (struct tcpip_msg *)memp_malloc(MEMP_TCPIP_MSG_API);
 384:C:/Users/stapi/OneDrive/Desktop/GD32VW553/GD32VW55X_Wifi_BLE_SDK/GD32VW55x_RELEASE_V1.0.2/MSDK/lwip/lwip-2.1.2/src/api\tcpip.c ****   if (msg == NULL) {
 385:C:/Users/stapi/OneDrive/Desktop/GD32VW553/GD32VW55X_Wifi_BLE_SDK/GD32VW55x_RELEASE_V1.0.2/MSDK/lwip/lwip-2.1.2/src/api\tcpip.c ****     return ERR_MEM;
 386:C:/Users/stapi/OneDrive/Desktop/GD32VW553/GD32VW55X_Wifi_BLE_SDK/GD32VW55x_RELEASE_V1.0.2/MSDK/lwip/lwip-2.1.2/src/api\tcpip.c ****   }
 387:C:/Users/stapi/OneDrive/Desktop/GD32VW553/GD32VW55X_Wifi_BLE_SDK/GD32VW55x_RELEASE_V1.0.2/MSDK/lwip/lwip-2.1.2/src/api\tcpip.c **** 
 388:C:/Users/stapi/OneDrive/Desktop/GD32VW553/GD32VW55X_Wifi_BLE_SDK/GD32VW55x_RELEASE_V1.0.2/MSDK/lwip/lwip-2.1.2/src/api\tcpip.c ****   msg->type = TCPIP_MSG_TIMEOUT;
 389:C:/Users/stapi/OneDrive/Desktop/GD32VW553/GD32VW55X_Wifi_BLE_SDK/GD32VW55x_RELEASE_V1.0.2/MSDK/lwip/lwip-2.1.2/src/api\tcpip.c ****   msg->msg.tmo.msecs = msecs;
 390:C:/Users/stapi/OneDrive/Desktop/GD32VW553/GD32VW55X_Wifi_BLE_SDK/GD32VW55x_RELEASE_V1.0.2/MSDK/lwip/lwip-2.1.2/src/api\tcpip.c ****   msg->msg.tmo.h = h;
 391:C:/Users/stapi/OneDrive/Desktop/GD32VW553/GD32VW55X_Wifi_BLE_SDK/GD32VW55x_RELEASE_V1.0.2/MSDK/lwip/lwip-2.1.2/src/api\tcpip.c ****   msg->msg.tmo.arg = arg;
 392:C:/Users/stapi/OneDrive/Desktop/GD32VW553/GD32VW55X_Wifi_BLE_SDK/GD32VW55x_RELEASE_V1.0.2/MSDK/lwip/lwip-2.1.2/src/api\tcpip.c ****   sys_mbox_post(&tcpip_mbox, msg);
 393:C:/Users/stapi/OneDrive/Desktop/GD32VW553/GD32VW55X_Wifi_BLE_SDK/GD32VW55x_RELEASE_V1.0.2/MSDK/lwip/lwip-2.1.2/src/api\tcpip.c ****   return ERR_OK;
 394:C:/Users/stapi/OneDrive/Desktop/GD32VW553/GD32VW55X_Wifi_BLE_SDK/GD32VW55x_RELEASE_V1.0.2/MSDK/lwip/lwip-2.1.2/src/api\tcpip.c **** }
 395:C:/Users/stapi/OneDrive/Desktop/GD32VW553/GD32VW55X_Wifi_BLE_SDK/GD32VW55x_RELEASE_V1.0.2/MSDK/lwip/lwip-2.1.2/src/api\tcpip.c **** 
 396:C:/Users/stapi/OneDrive/Desktop/GD32VW553/GD32VW55X_Wifi_BLE_SDK/GD32VW55x_RELEASE_V1.0.2/MSDK/lwip/lwip-2.1.2/src/api\tcpip.c **** /**
 397:C:/Users/stapi/OneDrive/Desktop/GD32VW553/GD32VW55X_Wifi_BLE_SDK/GD32VW55x_RELEASE_V1.0.2/MSDK/lwip/lwip-2.1.2/src/api\tcpip.c ****  * call sys_untimeout in tcpip_thread
 398:C:/Users/stapi/OneDrive/Desktop/GD32VW553/GD32VW55X_Wifi_BLE_SDK/GD32VW55x_RELEASE_V1.0.2/MSDK/lwip/lwip-2.1.2/src/api\tcpip.c ****  *
 399:C:/Users/stapi/OneDrive/Desktop/GD32VW553/GD32VW55X_Wifi_BLE_SDK/GD32VW55x_RELEASE_V1.0.2/MSDK/lwip/lwip-2.1.2/src/api\tcpip.c ****  * @param h function to be called on timeout
 400:C:/Users/stapi/OneDrive/Desktop/GD32VW553/GD32VW55X_Wifi_BLE_SDK/GD32VW55x_RELEASE_V1.0.2/MSDK/lwip/lwip-2.1.2/src/api\tcpip.c ****  * @param arg argument to pass to timeout function h
 401:C:/Users/stapi/OneDrive/Desktop/GD32VW553/GD32VW55X_Wifi_BLE_SDK/GD32VW55x_RELEASE_V1.0.2/MSDK/lwip/lwip-2.1.2/src/api\tcpip.c ****  * @return ERR_MEM on memory error, ERR_OK otherwise
 402:C:/Users/stapi/OneDrive/Desktop/GD32VW553/GD32VW55X_Wifi_BLE_SDK/GD32VW55x_RELEASE_V1.0.2/MSDK/lwip/lwip-2.1.2/src/api\tcpip.c ****  */
 403:C:/Users/stapi/OneDrive/Desktop/GD32VW553/GD32VW55X_Wifi_BLE_SDK/GD32VW55x_RELEASE_V1.0.2/MSDK/lwip/lwip-2.1.2/src/api\tcpip.c **** err_t
 404:C:/Users/stapi/OneDrive/Desktop/GD32VW553/GD32VW55X_Wifi_BLE_SDK/GD32VW55x_RELEASE_V1.0.2/MSDK/lwip/lwip-2.1.2/src/api\tcpip.c **** tcpip_untimeout(sys_timeout_handler h, void *arg)
 405:C:/Users/stapi/OneDrive/Desktop/GD32VW553/GD32VW55X_Wifi_BLE_SDK/GD32VW55x_RELEASE_V1.0.2/MSDK/lwip/lwip-2.1.2/src/api\tcpip.c **** {
 406:C:/Users/stapi/OneDrive/Desktop/GD32VW553/GD32VW55X_Wifi_BLE_SDK/GD32VW55x_RELEASE_V1.0.2/MSDK/lwip/lwip-2.1.2/src/api\tcpip.c ****   struct tcpip_msg *msg;
 407:C:/Users/stapi/OneDrive/Desktop/GD32VW553/GD32VW55X_Wifi_BLE_SDK/GD32VW55x_RELEASE_V1.0.2/MSDK/lwip/lwip-2.1.2/src/api\tcpip.c **** 
 408:C:/Users/stapi/OneDrive/Desktop/GD32VW553/GD32VW55X_Wifi_BLE_SDK/GD32VW55x_RELEASE_V1.0.2/MSDK/lwip/lwip-2.1.2/src/api\tcpip.c ****   LWIP_ASSERT("Invalid mbox", sys_mbox_valid_val(tcpip_mbox));
 409:C:/Users/stapi/OneDrive/Desktop/GD32VW553/GD32VW55X_Wifi_BLE_SDK/GD32VW55x_RELEASE_V1.0.2/MSDK/lwip/lwip-2.1.2/src/api\tcpip.c **** 
 410:C:/Users/stapi/OneDrive/Desktop/GD32VW553/GD32VW55X_Wifi_BLE_SDK/GD32VW55x_RELEASE_V1.0.2/MSDK/lwip/lwip-2.1.2/src/api\tcpip.c ****   msg = (struct tcpip_msg *)memp_malloc(MEMP_TCPIP_MSG_API);
 411:C:/Users/stapi/OneDrive/Desktop/GD32VW553/GD32VW55X_Wifi_BLE_SDK/GD32VW55x_RELEASE_V1.0.2/MSDK/lwip/lwip-2.1.2/src/api\tcpip.c ****   if (msg == NULL) {
 412:C:/Users/stapi/OneDrive/Desktop/GD32VW553/GD32VW55X_Wifi_BLE_SDK/GD32VW55x_RELEASE_V1.0.2/MSDK/lwip/lwip-2.1.2/src/api\tcpip.c ****     return ERR_MEM;
 413:C:/Users/stapi/OneDrive/Desktop/GD32VW553/GD32VW55X_Wifi_BLE_SDK/GD32VW55x_RELEASE_V1.0.2/MSDK/lwip/lwip-2.1.2/src/api\tcpip.c ****   }
 414:C:/Users/stapi/OneDrive/Desktop/GD32VW553/GD32VW55X_Wifi_BLE_SDK/GD32VW55x_RELEASE_V1.0.2/MSDK/lwip/lwip-2.1.2/src/api\tcpip.c **** 
 415:C:/Users/stapi/OneDrive/Desktop/GD32VW553/GD32VW55X_Wifi_BLE_SDK/GD32VW55x_RELEASE_V1.0.2/MSDK/lwip/lwip-2.1.2/src/api\tcpip.c ****   msg->type = TCPIP_MSG_UNTIMEOUT;
 416:C:/Users/stapi/OneDrive/Desktop/GD32VW553/GD32VW55X_Wifi_BLE_SDK/GD32VW55x_RELEASE_V1.0.2/MSDK/lwip/lwip-2.1.2/src/api\tcpip.c ****   msg->msg.tmo.h = h;
 417:C:/Users/stapi/OneDrive/Desktop/GD32VW553/GD32VW55X_Wifi_BLE_SDK/GD32VW55x_RELEASE_V1.0.2/MSDK/lwip/lwip-2.1.2/src/api\tcpip.c ****   msg->msg.tmo.arg = arg;
 418:C:/Users/stapi/OneDrive/Desktop/GD32VW553/GD32VW55X_Wifi_BLE_SDK/GD32VW55x_RELEASE_V1.0.2/MSDK/lwip/lwip-2.1.2/src/api\tcpip.c ****   sys_mbox_post(&tcpip_mbox, msg);
 419:C:/Users/stapi/OneDrive/Desktop/GD32VW553/GD32VW55X_Wifi_BLE_SDK/GD32VW55x_RELEASE_V1.0.2/MSDK/lwip/lwip-2.1.2/src/api\tcpip.c ****   return ERR_OK;
 420:C:/Users/stapi/OneDrive/Desktop/GD32VW553/GD32VW55X_Wifi_BLE_SDK/GD32VW55x_RELEASE_V1.0.2/MSDK/lwip/lwip-2.1.2/src/api\tcpip.c **** }
 421:C:/Users/stapi/OneDrive/Desktop/GD32VW553/GD32VW55X_Wifi_BLE_SDK/GD32VW55x_RELEASE_V1.0.2/MSDK/lwip/lwip-2.1.2/src/api\tcpip.c **** #endif /* LWIP_TCPIP_TIMEOUT && LWIP_TIMERS */
 422:C:/Users/stapi/OneDrive/Desktop/GD32VW553/GD32VW55X_Wifi_BLE_SDK/GD32VW55x_RELEASE_V1.0.2/MSDK/lwip/lwip-2.1.2/src/api\tcpip.c **** 
 423:C:/Users/stapi/OneDrive/Desktop/GD32VW553/GD32VW55X_Wifi_BLE_SDK/GD32VW55x_RELEASE_V1.0.2/MSDK/lwip/lwip-2.1.2/src/api\tcpip.c **** 
 424:C:/Users/stapi/OneDrive/Desktop/GD32VW553/GD32VW55X_Wifi_BLE_SDK/GD32VW55x_RELEASE_V1.0.2/MSDK/lwip/lwip-2.1.2/src/api\tcpip.c **** /**
 425:C:/Users/stapi/OneDrive/Desktop/GD32VW553/GD32VW55X_Wifi_BLE_SDK/GD32VW55x_RELEASE_V1.0.2/MSDK/lwip/lwip-2.1.2/src/api\tcpip.c ****  * Sends a message to TCPIP thread to call a function. Caller thread blocks on
 426:C:/Users/stapi/OneDrive/Desktop/GD32VW553/GD32VW55X_Wifi_BLE_SDK/GD32VW55x_RELEASE_V1.0.2/MSDK/lwip/lwip-2.1.2/src/api\tcpip.c ****  * on a provided semaphore, which ist NOT automatically signalled by TCPIP thread,
 427:C:/Users/stapi/OneDrive/Desktop/GD32VW553/GD32VW55X_Wifi_BLE_SDK/GD32VW55x_RELEASE_V1.0.2/MSDK/lwip/lwip-2.1.2/src/api\tcpip.c ****  * this has to be done by the user.
 428:C:/Users/stapi/OneDrive/Desktop/GD32VW553/GD32VW55X_Wifi_BLE_SDK/GD32VW55x_RELEASE_V1.0.2/MSDK/lwip/lwip-2.1.2/src/api\tcpip.c ****  * It is recommended to use LWIP_TCPIP_CORE_LOCKING since this is the way
 429:C:/Users/stapi/OneDrive/Desktop/GD32VW553/GD32VW55X_Wifi_BLE_SDK/GD32VW55x_RELEASE_V1.0.2/MSDK/lwip/lwip-2.1.2/src/api\tcpip.c ****  * with least runtime overhead.
 430:C:/Users/stapi/OneDrive/Desktop/GD32VW553/GD32VW55X_Wifi_BLE_SDK/GD32VW55x_RELEASE_V1.0.2/MSDK/lwip/lwip-2.1.2/src/api\tcpip.c ****  *
 431:C:/Users/stapi/OneDrive/Desktop/GD32VW553/GD32VW55X_Wifi_BLE_SDK/GD32VW55x_RELEASE_V1.0.2/MSDK/lwip/lwip-2.1.2/src/api\tcpip.c ****  * @param fn function to be called from TCPIP thread
 432:C:/Users/stapi/OneDrive/Desktop/GD32VW553/GD32VW55X_Wifi_BLE_SDK/GD32VW55x_RELEASE_V1.0.2/MSDK/lwip/lwip-2.1.2/src/api\tcpip.c ****  * @param apimsg argument to API function
 433:C:/Users/stapi/OneDrive/Desktop/GD32VW553/GD32VW55X_Wifi_BLE_SDK/GD32VW55x_RELEASE_V1.0.2/MSDK/lwip/lwip-2.1.2/src/api\tcpip.c ****  * @param sem semaphore to wait on
 434:C:/Users/stapi/OneDrive/Desktop/GD32VW553/GD32VW55X_Wifi_BLE_SDK/GD32VW55x_RELEASE_V1.0.2/MSDK/lwip/lwip-2.1.2/src/api\tcpip.c ****  * @return ERR_OK if the function was called, another err_t if not
 435:C:/Users/stapi/OneDrive/Desktop/GD32VW553/GD32VW55X_Wifi_BLE_SDK/GD32VW55x_RELEASE_V1.0.2/MSDK/lwip/lwip-2.1.2/src/api\tcpip.c ****  */
 436:C:/Users/stapi/OneDrive/Desktop/GD32VW553/GD32VW55X_Wifi_BLE_SDK/GD32VW55x_RELEASE_V1.0.2/MSDK/lwip/lwip-2.1.2/src/api\tcpip.c **** err_t
 437:C:/Users/stapi/OneDrive/Desktop/GD32VW553/GD32VW55X_Wifi_BLE_SDK/GD32VW55x_RELEASE_V1.0.2/MSDK/lwip/lwip-2.1.2/src/api\tcpip.c **** tcpip_send_msg_wait_sem(tcpip_callback_fn fn, void *apimsg, sys_sem_t *sem)
 438:C:/Users/stapi/OneDrive/Desktop/GD32VW553/GD32VW55X_Wifi_BLE_SDK/GD32VW55x_RELEASE_V1.0.2/MSDK/lwip/lwip-2.1.2/src/api\tcpip.c **** {
 439:C:/Users/stapi/OneDrive/Desktop/GD32VW553/GD32VW55X_Wifi_BLE_SDK/GD32VW55x_RELEASE_V1.0.2/MSDK/lwip/lwip-2.1.2/src/api\tcpip.c **** #if LWIP_TCPIP_CORE_LOCKING
 440:C:/Users/stapi/OneDrive/Desktop/GD32VW553/GD32VW55X_Wifi_BLE_SDK/GD32VW55x_RELEASE_V1.0.2/MSDK/lwip/lwip-2.1.2/src/api\tcpip.c ****   LWIP_UNUSED_ARG(sem);
 441:C:/Users/stapi/OneDrive/Desktop/GD32VW553/GD32VW55X_Wifi_BLE_SDK/GD32VW55x_RELEASE_V1.0.2/MSDK/lwip/lwip-2.1.2/src/api\tcpip.c ****   LOCK_TCPIP_CORE();
 442:C:/Users/stapi/OneDrive/Desktop/GD32VW553/GD32VW55X_Wifi_BLE_SDK/GD32VW55x_RELEASE_V1.0.2/MSDK/lwip/lwip-2.1.2/src/api\tcpip.c ****   fn(apimsg);
 443:C:/Users/stapi/OneDrive/Desktop/GD32VW553/GD32VW55X_Wifi_BLE_SDK/GD32VW55x_RELEASE_V1.0.2/MSDK/lwip/lwip-2.1.2/src/api\tcpip.c ****   UNLOCK_TCPIP_CORE();
 444:C:/Users/stapi/OneDrive/Desktop/GD32VW553/GD32VW55X_Wifi_BLE_SDK/GD32VW55x_RELEASE_V1.0.2/MSDK/lwip/lwip-2.1.2/src/api\tcpip.c ****   return ERR_OK;
 445:C:/Users/stapi/OneDrive/Desktop/GD32VW553/GD32VW55X_Wifi_BLE_SDK/GD32VW55x_RELEASE_V1.0.2/MSDK/lwip/lwip-2.1.2/src/api\tcpip.c **** #else /* LWIP_TCPIP_CORE_LOCKING */
 446:C:/Users/stapi/OneDrive/Desktop/GD32VW553/GD32VW55X_Wifi_BLE_SDK/GD32VW55x_RELEASE_V1.0.2/MSDK/lwip/lwip-2.1.2/src/api\tcpip.c ****   TCPIP_MSG_VAR_DECLARE(msg);
 447:C:/Users/stapi/OneDrive/Desktop/GD32VW553/GD32VW55X_Wifi_BLE_SDK/GD32VW55x_RELEASE_V1.0.2/MSDK/lwip/lwip-2.1.2/src/api\tcpip.c **** 
 448:C:/Users/stapi/OneDrive/Desktop/GD32VW553/GD32VW55X_Wifi_BLE_SDK/GD32VW55x_RELEASE_V1.0.2/MSDK/lwip/lwip-2.1.2/src/api\tcpip.c ****   LWIP_ASSERT("semaphore not initialized", sys_sem_valid(sem));
 449:C:/Users/stapi/OneDrive/Desktop/GD32VW553/GD32VW55X_Wifi_BLE_SDK/GD32VW55x_RELEASE_V1.0.2/MSDK/lwip/lwip-2.1.2/src/api\tcpip.c ****   LWIP_ASSERT("Invalid mbox", sys_mbox_valid_val(tcpip_mbox));
 450:C:/Users/stapi/OneDrive/Desktop/GD32VW553/GD32VW55X_Wifi_BLE_SDK/GD32VW55x_RELEASE_V1.0.2/MSDK/lwip/lwip-2.1.2/src/api\tcpip.c **** 
 451:C:/Users/stapi/OneDrive/Desktop/GD32VW553/GD32VW55X_Wifi_BLE_SDK/GD32VW55x_RELEASE_V1.0.2/MSDK/lwip/lwip-2.1.2/src/api\tcpip.c ****   TCPIP_MSG_VAR_ALLOC(msg);
 452:C:/Users/stapi/OneDrive/Desktop/GD32VW553/GD32VW55X_Wifi_BLE_SDK/GD32VW55x_RELEASE_V1.0.2/MSDK/lwip/lwip-2.1.2/src/api\tcpip.c ****   TCPIP_MSG_VAR_REF(msg).type = TCPIP_MSG_API;
 453:C:/Users/stapi/OneDrive/Desktop/GD32VW553/GD32VW55X_Wifi_BLE_SDK/GD32VW55x_RELEASE_V1.0.2/MSDK/lwip/lwip-2.1.2/src/api\tcpip.c ****   TCPIP_MSG_VAR_REF(msg).msg.api_msg.function = fn;
 454:C:/Users/stapi/OneDrive/Desktop/GD32VW553/GD32VW55X_Wifi_BLE_SDK/GD32VW55x_RELEASE_V1.0.2/MSDK/lwip/lwip-2.1.2/src/api\tcpip.c ****   TCPIP_MSG_VAR_REF(msg).msg.api_msg.msg = apimsg;
 455:C:/Users/stapi/OneDrive/Desktop/GD32VW553/GD32VW55X_Wifi_BLE_SDK/GD32VW55x_RELEASE_V1.0.2/MSDK/lwip/lwip-2.1.2/src/api\tcpip.c ****   sys_mbox_post(&tcpip_mbox, &TCPIP_MSG_VAR_REF(msg));
 456:C:/Users/stapi/OneDrive/Desktop/GD32VW553/GD32VW55X_Wifi_BLE_SDK/GD32VW55x_RELEASE_V1.0.2/MSDK/lwip/lwip-2.1.2/src/api\tcpip.c ****   sys_arch_sem_wait(sem, 0);
 457:C:/Users/stapi/OneDrive/Desktop/GD32VW553/GD32VW55X_Wifi_BLE_SDK/GD32VW55x_RELEASE_V1.0.2/MSDK/lwip/lwip-2.1.2/src/api\tcpip.c ****   TCPIP_MSG_VAR_FREE(msg);
 458:C:/Users/stapi/OneDrive/Desktop/GD32VW553/GD32VW55X_Wifi_BLE_SDK/GD32VW55x_RELEASE_V1.0.2/MSDK/lwip/lwip-2.1.2/src/api\tcpip.c ****   return ERR_OK;
 459:C:/Users/stapi/OneDrive/Desktop/GD32VW553/GD32VW55X_Wifi_BLE_SDK/GD32VW55x_RELEASE_V1.0.2/MSDK/lwip/lwip-2.1.2/src/api\tcpip.c **** #endif /* LWIP_TCPIP_CORE_LOCKING */
 460:C:/Users/stapi/OneDrive/Desktop/GD32VW553/GD32VW55X_Wifi_BLE_SDK/GD32VW55x_RELEASE_V1.0.2/MSDK/lwip/lwip-2.1.2/src/api\tcpip.c **** }
 461:C:/Users/stapi/OneDrive/Desktop/GD32VW553/GD32VW55X_Wifi_BLE_SDK/GD32VW55x_RELEASE_V1.0.2/MSDK/lwip/lwip-2.1.2/src/api\tcpip.c **** 
 462:C:/Users/stapi/OneDrive/Desktop/GD32VW553/GD32VW55X_Wifi_BLE_SDK/GD32VW55x_RELEASE_V1.0.2/MSDK/lwip/lwip-2.1.2/src/api\tcpip.c **** /**
 463:C:/Users/stapi/OneDrive/Desktop/GD32VW553/GD32VW55X_Wifi_BLE_SDK/GD32VW55x_RELEASE_V1.0.2/MSDK/lwip/lwip-2.1.2/src/api\tcpip.c ****  * Synchronously calls function in TCPIP thread and waits for its completion.
 464:C:/Users/stapi/OneDrive/Desktop/GD32VW553/GD32VW55X_Wifi_BLE_SDK/GD32VW55x_RELEASE_V1.0.2/MSDK/lwip/lwip-2.1.2/src/api\tcpip.c ****  * It is recommended to use LWIP_TCPIP_CORE_LOCKING (preferred) or
 465:C:/Users/stapi/OneDrive/Desktop/GD32VW553/GD32VW55X_Wifi_BLE_SDK/GD32VW55x_RELEASE_V1.0.2/MSDK/lwip/lwip-2.1.2/src/api\tcpip.c ****  * LWIP_NETCONN_SEM_PER_THREAD.
 466:C:/Users/stapi/OneDrive/Desktop/GD32VW553/GD32VW55X_Wifi_BLE_SDK/GD32VW55x_RELEASE_V1.0.2/MSDK/lwip/lwip-2.1.2/src/api\tcpip.c ****  * If not, a semaphore is created and destroyed on every call which is usually
 467:C:/Users/stapi/OneDrive/Desktop/GD32VW553/GD32VW55X_Wifi_BLE_SDK/GD32VW55x_RELEASE_V1.0.2/MSDK/lwip/lwip-2.1.2/src/api\tcpip.c ****  * an expensive/slow operation.
 468:C:/Users/stapi/OneDrive/Desktop/GD32VW553/GD32VW55X_Wifi_BLE_SDK/GD32VW55x_RELEASE_V1.0.2/MSDK/lwip/lwip-2.1.2/src/api\tcpip.c ****  * @param fn Function to call
 469:C:/Users/stapi/OneDrive/Desktop/GD32VW553/GD32VW55X_Wifi_BLE_SDK/GD32VW55x_RELEASE_V1.0.2/MSDK/lwip/lwip-2.1.2/src/api\tcpip.c ****  * @param call Call parameters
 470:C:/Users/stapi/OneDrive/Desktop/GD32VW553/GD32VW55X_Wifi_BLE_SDK/GD32VW55x_RELEASE_V1.0.2/MSDK/lwip/lwip-2.1.2/src/api\tcpip.c ****  * @return Return value from tcpip_api_call_fn
 471:C:/Users/stapi/OneDrive/Desktop/GD32VW553/GD32VW55X_Wifi_BLE_SDK/GD32VW55x_RELEASE_V1.0.2/MSDK/lwip/lwip-2.1.2/src/api\tcpip.c ****  */
 472:C:/Users/stapi/OneDrive/Desktop/GD32VW553/GD32VW55X_Wifi_BLE_SDK/GD32VW55x_RELEASE_V1.0.2/MSDK/lwip/lwip-2.1.2/src/api\tcpip.c **** err_t
 473:C:/Users/stapi/OneDrive/Desktop/GD32VW553/GD32VW55X_Wifi_BLE_SDK/GD32VW55x_RELEASE_V1.0.2/MSDK/lwip/lwip-2.1.2/src/api\tcpip.c **** tcpip_api_call(tcpip_api_call_fn fn, struct tcpip_api_call_data *call)
 474:C:/Users/stapi/OneDrive/Desktop/GD32VW553/GD32VW55X_Wifi_BLE_SDK/GD32VW55x_RELEASE_V1.0.2/MSDK/lwip/lwip-2.1.2/src/api\tcpip.c **** {
 475:C:/Users/stapi/OneDrive/Desktop/GD32VW553/GD32VW55X_Wifi_BLE_SDK/GD32VW55x_RELEASE_V1.0.2/MSDK/lwip/lwip-2.1.2/src/api\tcpip.c **** #if LWIP_TCPIP_CORE_LOCKING
 476:C:/Users/stapi/OneDrive/Desktop/GD32VW553/GD32VW55X_Wifi_BLE_SDK/GD32VW55x_RELEASE_V1.0.2/MSDK/lwip/lwip-2.1.2/src/api\tcpip.c ****   err_t err;
 477:C:/Users/stapi/OneDrive/Desktop/GD32VW553/GD32VW55X_Wifi_BLE_SDK/GD32VW55x_RELEASE_V1.0.2/MSDK/lwip/lwip-2.1.2/src/api\tcpip.c ****   LOCK_TCPIP_CORE();
 478:C:/Users/stapi/OneDrive/Desktop/GD32VW553/GD32VW55X_Wifi_BLE_SDK/GD32VW55x_RELEASE_V1.0.2/MSDK/lwip/lwip-2.1.2/src/api\tcpip.c ****   err = fn(call);
 479:C:/Users/stapi/OneDrive/Desktop/GD32VW553/GD32VW55X_Wifi_BLE_SDK/GD32VW55x_RELEASE_V1.0.2/MSDK/lwip/lwip-2.1.2/src/api\tcpip.c ****   UNLOCK_TCPIP_CORE();
 480:C:/Users/stapi/OneDrive/Desktop/GD32VW553/GD32VW55X_Wifi_BLE_SDK/GD32VW55x_RELEASE_V1.0.2/MSDK/lwip/lwip-2.1.2/src/api\tcpip.c ****   return err;
 481:C:/Users/stapi/OneDrive/Desktop/GD32VW553/GD32VW55X_Wifi_BLE_SDK/GD32VW55x_RELEASE_V1.0.2/MSDK/lwip/lwip-2.1.2/src/api\tcpip.c **** #else /* LWIP_TCPIP_CORE_LOCKING */
 482:C:/Users/stapi/OneDrive/Desktop/GD32VW553/GD32VW55X_Wifi_BLE_SDK/GD32VW55x_RELEASE_V1.0.2/MSDK/lwip/lwip-2.1.2/src/api\tcpip.c ****   TCPIP_MSG_VAR_DECLARE(msg);
 483:C:/Users/stapi/OneDrive/Desktop/GD32VW553/GD32VW55X_Wifi_BLE_SDK/GD32VW55x_RELEASE_V1.0.2/MSDK/lwip/lwip-2.1.2/src/api\tcpip.c **** 
 484:C:/Users/stapi/OneDrive/Desktop/GD32VW553/GD32VW55X_Wifi_BLE_SDK/GD32VW55x_RELEASE_V1.0.2/MSDK/lwip/lwip-2.1.2/src/api\tcpip.c **** #if !LWIP_NETCONN_SEM_PER_THREAD
 485:C:/Users/stapi/OneDrive/Desktop/GD32VW553/GD32VW55X_Wifi_BLE_SDK/GD32VW55x_RELEASE_V1.0.2/MSDK/lwip/lwip-2.1.2/src/api\tcpip.c ****   err_t err = sys_sem_new(&call->sem, 0);
 486:C:/Users/stapi/OneDrive/Desktop/GD32VW553/GD32VW55X_Wifi_BLE_SDK/GD32VW55x_RELEASE_V1.0.2/MSDK/lwip/lwip-2.1.2/src/api\tcpip.c ****   if (err != ERR_OK) {
 487:C:/Users/stapi/OneDrive/Desktop/GD32VW553/GD32VW55X_Wifi_BLE_SDK/GD32VW55x_RELEASE_V1.0.2/MSDK/lwip/lwip-2.1.2/src/api\tcpip.c ****     return err;
 488:C:/Users/stapi/OneDrive/Desktop/GD32VW553/GD32VW55X_Wifi_BLE_SDK/GD32VW55x_RELEASE_V1.0.2/MSDK/lwip/lwip-2.1.2/src/api\tcpip.c ****   }
 489:C:/Users/stapi/OneDrive/Desktop/GD32VW553/GD32VW55X_Wifi_BLE_SDK/GD32VW55x_RELEASE_V1.0.2/MSDK/lwip/lwip-2.1.2/src/api\tcpip.c **** #endif /* LWIP_NETCONN_SEM_PER_THREAD */
 490:C:/Users/stapi/OneDrive/Desktop/GD32VW553/GD32VW55X_Wifi_BLE_SDK/GD32VW55x_RELEASE_V1.0.2/MSDK/lwip/lwip-2.1.2/src/api\tcpip.c **** 
 491:C:/Users/stapi/OneDrive/Desktop/GD32VW553/GD32VW55X_Wifi_BLE_SDK/GD32VW55x_RELEASE_V1.0.2/MSDK/lwip/lwip-2.1.2/src/api\tcpip.c ****   LWIP_ASSERT("Invalid mbox", sys_mbox_valid_val(tcpip_mbox));
 492:C:/Users/stapi/OneDrive/Desktop/GD32VW553/GD32VW55X_Wifi_BLE_SDK/GD32VW55x_RELEASE_V1.0.2/MSDK/lwip/lwip-2.1.2/src/api\tcpip.c **** 
 493:C:/Users/stapi/OneDrive/Desktop/GD32VW553/GD32VW55X_Wifi_BLE_SDK/GD32VW55x_RELEASE_V1.0.2/MSDK/lwip/lwip-2.1.2/src/api\tcpip.c ****   TCPIP_MSG_VAR_ALLOC(msg);
 494:C:/Users/stapi/OneDrive/Desktop/GD32VW553/GD32VW55X_Wifi_BLE_SDK/GD32VW55x_RELEASE_V1.0.2/MSDK/lwip/lwip-2.1.2/src/api\tcpip.c ****   TCPIP_MSG_VAR_REF(msg).type = TCPIP_MSG_API_CALL;
 495:C:/Users/stapi/OneDrive/Desktop/GD32VW553/GD32VW55X_Wifi_BLE_SDK/GD32VW55x_RELEASE_V1.0.2/MSDK/lwip/lwip-2.1.2/src/api\tcpip.c ****   TCPIP_MSG_VAR_REF(msg).msg.api_call.arg = call;
 496:C:/Users/stapi/OneDrive/Desktop/GD32VW553/GD32VW55X_Wifi_BLE_SDK/GD32VW55x_RELEASE_V1.0.2/MSDK/lwip/lwip-2.1.2/src/api\tcpip.c ****   TCPIP_MSG_VAR_REF(msg).msg.api_call.function = fn;
 497:C:/Users/stapi/OneDrive/Desktop/GD32VW553/GD32VW55X_Wifi_BLE_SDK/GD32VW55x_RELEASE_V1.0.2/MSDK/lwip/lwip-2.1.2/src/api\tcpip.c **** #if LWIP_NETCONN_SEM_PER_THREAD
 498:C:/Users/stapi/OneDrive/Desktop/GD32VW553/GD32VW55X_Wifi_BLE_SDK/GD32VW55x_RELEASE_V1.0.2/MSDK/lwip/lwip-2.1.2/src/api\tcpip.c ****   TCPIP_MSG_VAR_REF(msg).msg.api_call.sem = LWIP_NETCONN_THREAD_SEM_GET();
 499:C:/Users/stapi/OneDrive/Desktop/GD32VW553/GD32VW55X_Wifi_BLE_SDK/GD32VW55x_RELEASE_V1.0.2/MSDK/lwip/lwip-2.1.2/src/api\tcpip.c **** #else /* LWIP_NETCONN_SEM_PER_THREAD */
 500:C:/Users/stapi/OneDrive/Desktop/GD32VW553/GD32VW55X_Wifi_BLE_SDK/GD32VW55x_RELEASE_V1.0.2/MSDK/lwip/lwip-2.1.2/src/api\tcpip.c ****   TCPIP_MSG_VAR_REF(msg).msg.api_call.sem = &call->sem;
 501:C:/Users/stapi/OneDrive/Desktop/GD32VW553/GD32VW55X_Wifi_BLE_SDK/GD32VW55x_RELEASE_V1.0.2/MSDK/lwip/lwip-2.1.2/src/api\tcpip.c **** #endif /* LWIP_NETCONN_SEM_PER_THREAD */
 502:C:/Users/stapi/OneDrive/Desktop/GD32VW553/GD32VW55X_Wifi_BLE_SDK/GD32VW55x_RELEASE_V1.0.2/MSDK/lwip/lwip-2.1.2/src/api\tcpip.c ****   sys_mbox_post(&tcpip_mbox, &TCPIP_MSG_VAR_REF(msg));
 503:C:/Users/stapi/OneDrive/Desktop/GD32VW553/GD32VW55X_Wifi_BLE_SDK/GD32VW55x_RELEASE_V1.0.2/MSDK/lwip/lwip-2.1.2/src/api\tcpip.c ****   sys_arch_sem_wait(TCPIP_MSG_VAR_REF(msg).msg.api_call.sem, 0);
 504:C:/Users/stapi/OneDrive/Desktop/GD32VW553/GD32VW55X_Wifi_BLE_SDK/GD32VW55x_RELEASE_V1.0.2/MSDK/lwip/lwip-2.1.2/src/api\tcpip.c ****   TCPIP_MSG_VAR_FREE(msg);
 505:C:/Users/stapi/OneDrive/Desktop/GD32VW553/GD32VW55X_Wifi_BLE_SDK/GD32VW55x_RELEASE_V1.0.2/MSDK/lwip/lwip-2.1.2/src/api\tcpip.c **** 
 506:C:/Users/stapi/OneDrive/Desktop/GD32VW553/GD32VW55X_Wifi_BLE_SDK/GD32VW55x_RELEASE_V1.0.2/MSDK/lwip/lwip-2.1.2/src/api\tcpip.c **** #if !LWIP_NETCONN_SEM_PER_THREAD
 507:C:/Users/stapi/OneDrive/Desktop/GD32VW553/GD32VW55X_Wifi_BLE_SDK/GD32VW55x_RELEASE_V1.0.2/MSDK/lwip/lwip-2.1.2/src/api\tcpip.c ****   sys_sem_free(&call->sem);
 508:C:/Users/stapi/OneDrive/Desktop/GD32VW553/GD32VW55X_Wifi_BLE_SDK/GD32VW55x_RELEASE_V1.0.2/MSDK/lwip/lwip-2.1.2/src/api\tcpip.c **** #endif /* LWIP_NETCONN_SEM_PER_THREAD */
 509:C:/Users/stapi/OneDrive/Desktop/GD32VW553/GD32VW55X_Wifi_BLE_SDK/GD32VW55x_RELEASE_V1.0.2/MSDK/lwip/lwip-2.1.2/src/api\tcpip.c **** 
 510:C:/Users/stapi/OneDrive/Desktop/GD32VW553/GD32VW55X_Wifi_BLE_SDK/GD32VW55x_RELEASE_V1.0.2/MSDK/lwip/lwip-2.1.2/src/api\tcpip.c ****   return call->err;
 511:C:/Users/stapi/OneDrive/Desktop/GD32VW553/GD32VW55X_Wifi_BLE_SDK/GD32VW55x_RELEASE_V1.0.2/MSDK/lwip/lwip-2.1.2/src/api\tcpip.c **** #endif /* LWIP_TCPIP_CORE_LOCKING */
 512:C:/Users/stapi/OneDrive/Desktop/GD32VW553/GD32VW55X_Wifi_BLE_SDK/GD32VW55x_RELEASE_V1.0.2/MSDK/lwip/lwip-2.1.2/src/api\tcpip.c **** }
 513:C:/Users/stapi/OneDrive/Desktop/GD32VW553/GD32VW55X_Wifi_BLE_SDK/GD32VW55x_RELEASE_V1.0.2/MSDK/lwip/lwip-2.1.2/src/api\tcpip.c **** 
 514:C:/Users/stapi/OneDrive/Desktop/GD32VW553/GD32VW55X_Wifi_BLE_SDK/GD32VW55x_RELEASE_V1.0.2/MSDK/lwip/lwip-2.1.2/src/api\tcpip.c **** /**
 515:C:/Users/stapi/OneDrive/Desktop/GD32VW553/GD32VW55X_Wifi_BLE_SDK/GD32VW55x_RELEASE_V1.0.2/MSDK/lwip/lwip-2.1.2/src/api\tcpip.c ****  * @ingroup lwip_os
 516:C:/Users/stapi/OneDrive/Desktop/GD32VW553/GD32VW55X_Wifi_BLE_SDK/GD32VW55x_RELEASE_V1.0.2/MSDK/lwip/lwip-2.1.2/src/api\tcpip.c ****  * Allocate a structure for a static callback message and initialize it.
 517:C:/Users/stapi/OneDrive/Desktop/GD32VW553/GD32VW55X_Wifi_BLE_SDK/GD32VW55x_RELEASE_V1.0.2/MSDK/lwip/lwip-2.1.2/src/api\tcpip.c ****  * The message has a special type such that lwIP never frees it.
 518:C:/Users/stapi/OneDrive/Desktop/GD32VW553/GD32VW55X_Wifi_BLE_SDK/GD32VW55x_RELEASE_V1.0.2/MSDK/lwip/lwip-2.1.2/src/api\tcpip.c ****  * This is intended to be used to send "static" messages from interrupt context,
 519:C:/Users/stapi/OneDrive/Desktop/GD32VW553/GD32VW55X_Wifi_BLE_SDK/GD32VW55x_RELEASE_V1.0.2/MSDK/lwip/lwip-2.1.2/src/api\tcpip.c ****  * e.g. the message is allocated once and posted several times from an IRQ
 520:C:/Users/stapi/OneDrive/Desktop/GD32VW553/GD32VW55X_Wifi_BLE_SDK/GD32VW55x_RELEASE_V1.0.2/MSDK/lwip/lwip-2.1.2/src/api\tcpip.c ****  * using tcpip_callbackmsg_trycallback().
 521:C:/Users/stapi/OneDrive/Desktop/GD32VW553/GD32VW55X_Wifi_BLE_SDK/GD32VW55x_RELEASE_V1.0.2/MSDK/lwip/lwip-2.1.2/src/api\tcpip.c ****  * Example usage: Trigger execution of an ethernet IRQ DPC routine in lwIP thread context.
 522:C:/Users/stapi/OneDrive/Desktop/GD32VW553/GD32VW55X_Wifi_BLE_SDK/GD32VW55x_RELEASE_V1.0.2/MSDK/lwip/lwip-2.1.2/src/api\tcpip.c ****  * 
 523:C:/Users/stapi/OneDrive/Desktop/GD32VW553/GD32VW55X_Wifi_BLE_SDK/GD32VW55x_RELEASE_V1.0.2/MSDK/lwip/lwip-2.1.2/src/api\tcpip.c ****  * @param function the function to call
 524:C:/Users/stapi/OneDrive/Desktop/GD32VW553/GD32VW55X_Wifi_BLE_SDK/GD32VW55x_RELEASE_V1.0.2/MSDK/lwip/lwip-2.1.2/src/api\tcpip.c ****  * @param ctx parameter passed to function
 525:C:/Users/stapi/OneDrive/Desktop/GD32VW553/GD32VW55X_Wifi_BLE_SDK/GD32VW55x_RELEASE_V1.0.2/MSDK/lwip/lwip-2.1.2/src/api\tcpip.c ****  * @return a struct pointer to pass to tcpip_callbackmsg_trycallback().
 526:C:/Users/stapi/OneDrive/Desktop/GD32VW553/GD32VW55X_Wifi_BLE_SDK/GD32VW55x_RELEASE_V1.0.2/MSDK/lwip/lwip-2.1.2/src/api\tcpip.c ****  *
 527:C:/Users/stapi/OneDrive/Desktop/GD32VW553/GD32VW55X_Wifi_BLE_SDK/GD32VW55x_RELEASE_V1.0.2/MSDK/lwip/lwip-2.1.2/src/api\tcpip.c ****  * @see tcpip_callbackmsg_trycallback()
 528:C:/Users/stapi/OneDrive/Desktop/GD32VW553/GD32VW55X_Wifi_BLE_SDK/GD32VW55x_RELEASE_V1.0.2/MSDK/lwip/lwip-2.1.2/src/api\tcpip.c ****  * @see tcpip_callbackmsg_delete()
 529:C:/Users/stapi/OneDrive/Desktop/GD32VW553/GD32VW55X_Wifi_BLE_SDK/GD32VW55x_RELEASE_V1.0.2/MSDK/lwip/lwip-2.1.2/src/api\tcpip.c ****  */
 530:C:/Users/stapi/OneDrive/Desktop/GD32VW553/GD32VW55X_Wifi_BLE_SDK/GD32VW55x_RELEASE_V1.0.2/MSDK/lwip/lwip-2.1.2/src/api\tcpip.c **** struct tcpip_callback_msg *
 531:C:/Users/stapi/OneDrive/Desktop/GD32VW553/GD32VW55X_Wifi_BLE_SDK/GD32VW55x_RELEASE_V1.0.2/MSDK/lwip/lwip-2.1.2/src/api\tcpip.c **** tcpip_callbackmsg_new(tcpip_callback_fn function, void *ctx)
 532:C:/Users/stapi/OneDrive/Desktop/GD32VW553/GD32VW55X_Wifi_BLE_SDK/GD32VW55x_RELEASE_V1.0.2/MSDK/lwip/lwip-2.1.2/src/api\tcpip.c **** {
 533:C:/Users/stapi/OneDrive/Desktop/GD32VW553/GD32VW55X_Wifi_BLE_SDK/GD32VW55x_RELEASE_V1.0.2/MSDK/lwip/lwip-2.1.2/src/api\tcpip.c ****   struct tcpip_msg *msg = (struct tcpip_msg *)memp_malloc(MEMP_TCPIP_MSG_API);
 534:C:/Users/stapi/OneDrive/Desktop/GD32VW553/GD32VW55X_Wifi_BLE_SDK/GD32VW55x_RELEASE_V1.0.2/MSDK/lwip/lwip-2.1.2/src/api\tcpip.c ****   if (msg == NULL) {
 535:C:/Users/stapi/OneDrive/Desktop/GD32VW553/GD32VW55X_Wifi_BLE_SDK/GD32VW55x_RELEASE_V1.0.2/MSDK/lwip/lwip-2.1.2/src/api\tcpip.c ****     return NULL;
 536:C:/Users/stapi/OneDrive/Desktop/GD32VW553/GD32VW55X_Wifi_BLE_SDK/GD32VW55x_RELEASE_V1.0.2/MSDK/lwip/lwip-2.1.2/src/api\tcpip.c ****   }
 537:C:/Users/stapi/OneDrive/Desktop/GD32VW553/GD32VW55X_Wifi_BLE_SDK/GD32VW55x_RELEASE_V1.0.2/MSDK/lwip/lwip-2.1.2/src/api\tcpip.c ****   msg->type = TCPIP_MSG_CALLBACK_STATIC;
 538:C:/Users/stapi/OneDrive/Desktop/GD32VW553/GD32VW55X_Wifi_BLE_SDK/GD32VW55x_RELEASE_V1.0.2/MSDK/lwip/lwip-2.1.2/src/api\tcpip.c ****   msg->msg.cb.function = function;
 539:C:/Users/stapi/OneDrive/Desktop/GD32VW553/GD32VW55X_Wifi_BLE_SDK/GD32VW55x_RELEASE_V1.0.2/MSDK/lwip/lwip-2.1.2/src/api\tcpip.c ****   msg->msg.cb.ctx = ctx;
 540:C:/Users/stapi/OneDrive/Desktop/GD32VW553/GD32VW55X_Wifi_BLE_SDK/GD32VW55x_RELEASE_V1.0.2/MSDK/lwip/lwip-2.1.2/src/api\tcpip.c ****   return (struct tcpip_callback_msg *)msg;
 541:C:/Users/stapi/OneDrive/Desktop/GD32VW553/GD32VW55X_Wifi_BLE_SDK/GD32VW55x_RELEASE_V1.0.2/MSDK/lwip/lwip-2.1.2/src/api\tcpip.c **** }
 542:C:/Users/stapi/OneDrive/Desktop/GD32VW553/GD32VW55X_Wifi_BLE_SDK/GD32VW55x_RELEASE_V1.0.2/MSDK/lwip/lwip-2.1.2/src/api\tcpip.c **** 
 543:C:/Users/stapi/OneDrive/Desktop/GD32VW553/GD32VW55X_Wifi_BLE_SDK/GD32VW55x_RELEASE_V1.0.2/MSDK/lwip/lwip-2.1.2/src/api\tcpip.c **** /**
 544:C:/Users/stapi/OneDrive/Desktop/GD32VW553/GD32VW55X_Wifi_BLE_SDK/GD32VW55x_RELEASE_V1.0.2/MSDK/lwip/lwip-2.1.2/src/api\tcpip.c ****  * @ingroup lwip_os
 545:C:/Users/stapi/OneDrive/Desktop/GD32VW553/GD32VW55X_Wifi_BLE_SDK/GD32VW55x_RELEASE_V1.0.2/MSDK/lwip/lwip-2.1.2/src/api\tcpip.c ****  * Free a callback message allocated by tcpip_callbackmsg_new().
 546:C:/Users/stapi/OneDrive/Desktop/GD32VW553/GD32VW55X_Wifi_BLE_SDK/GD32VW55x_RELEASE_V1.0.2/MSDK/lwip/lwip-2.1.2/src/api\tcpip.c ****  *
 547:C:/Users/stapi/OneDrive/Desktop/GD32VW553/GD32VW55X_Wifi_BLE_SDK/GD32VW55x_RELEASE_V1.0.2/MSDK/lwip/lwip-2.1.2/src/api\tcpip.c ****  * @param msg the message to free
 548:C:/Users/stapi/OneDrive/Desktop/GD32VW553/GD32VW55X_Wifi_BLE_SDK/GD32VW55x_RELEASE_V1.0.2/MSDK/lwip/lwip-2.1.2/src/api\tcpip.c ****  *
 549:C:/Users/stapi/OneDrive/Desktop/GD32VW553/GD32VW55X_Wifi_BLE_SDK/GD32VW55x_RELEASE_V1.0.2/MSDK/lwip/lwip-2.1.2/src/api\tcpip.c ****  * @see tcpip_callbackmsg_new()
 550:C:/Users/stapi/OneDrive/Desktop/GD32VW553/GD32VW55X_Wifi_BLE_SDK/GD32VW55x_RELEASE_V1.0.2/MSDK/lwip/lwip-2.1.2/src/api\tcpip.c ****  */
 551:C:/Users/stapi/OneDrive/Desktop/GD32VW553/GD32VW55X_Wifi_BLE_SDK/GD32VW55x_RELEASE_V1.0.2/MSDK/lwip/lwip-2.1.2/src/api\tcpip.c **** void
 552:C:/Users/stapi/OneDrive/Desktop/GD32VW553/GD32VW55X_Wifi_BLE_SDK/GD32VW55x_RELEASE_V1.0.2/MSDK/lwip/lwip-2.1.2/src/api\tcpip.c **** tcpip_callbackmsg_delete(struct tcpip_callback_msg *msg)
 553:C:/Users/stapi/OneDrive/Desktop/GD32VW553/GD32VW55X_Wifi_BLE_SDK/GD32VW55x_RELEASE_V1.0.2/MSDK/lwip/lwip-2.1.2/src/api\tcpip.c **** {
 554:C:/Users/stapi/OneDrive/Desktop/GD32VW553/GD32VW55X_Wifi_BLE_SDK/GD32VW55x_RELEASE_V1.0.2/MSDK/lwip/lwip-2.1.2/src/api\tcpip.c ****   memp_free(MEMP_TCPIP_MSG_API, msg);
 555:C:/Users/stapi/OneDrive/Desktop/GD32VW553/GD32VW55X_Wifi_BLE_SDK/GD32VW55x_RELEASE_V1.0.2/MSDK/lwip/lwip-2.1.2/src/api\tcpip.c **** }
 556:C:/Users/stapi/OneDrive/Desktop/GD32VW553/GD32VW55X_Wifi_BLE_SDK/GD32VW55x_RELEASE_V1.0.2/MSDK/lwip/lwip-2.1.2/src/api\tcpip.c **** 
 557:C:/Users/stapi/OneDrive/Desktop/GD32VW553/GD32VW55X_Wifi_BLE_SDK/GD32VW55x_RELEASE_V1.0.2/MSDK/lwip/lwip-2.1.2/src/api\tcpip.c **** /**
 558:C:/Users/stapi/OneDrive/Desktop/GD32VW553/GD32VW55X_Wifi_BLE_SDK/GD32VW55x_RELEASE_V1.0.2/MSDK/lwip/lwip-2.1.2/src/api\tcpip.c ****  * @ingroup lwip_os
 559:C:/Users/stapi/OneDrive/Desktop/GD32VW553/GD32VW55X_Wifi_BLE_SDK/GD32VW55x_RELEASE_V1.0.2/MSDK/lwip/lwip-2.1.2/src/api\tcpip.c ****  * Try to post a callback-message to the tcpip_thread tcpip_mbox.
 560:C:/Users/stapi/OneDrive/Desktop/GD32VW553/GD32VW55X_Wifi_BLE_SDK/GD32VW55x_RELEASE_V1.0.2/MSDK/lwip/lwip-2.1.2/src/api\tcpip.c ****  *
 561:C:/Users/stapi/OneDrive/Desktop/GD32VW553/GD32VW55X_Wifi_BLE_SDK/GD32VW55x_RELEASE_V1.0.2/MSDK/lwip/lwip-2.1.2/src/api\tcpip.c ****  * @param msg pointer to the message to post
 562:C:/Users/stapi/OneDrive/Desktop/GD32VW553/GD32VW55X_Wifi_BLE_SDK/GD32VW55x_RELEASE_V1.0.2/MSDK/lwip/lwip-2.1.2/src/api\tcpip.c ****  * @return sys_mbox_trypost() return code
 563:C:/Users/stapi/OneDrive/Desktop/GD32VW553/GD32VW55X_Wifi_BLE_SDK/GD32VW55x_RELEASE_V1.0.2/MSDK/lwip/lwip-2.1.2/src/api\tcpip.c ****  *
 564:C:/Users/stapi/OneDrive/Desktop/GD32VW553/GD32VW55X_Wifi_BLE_SDK/GD32VW55x_RELEASE_V1.0.2/MSDK/lwip/lwip-2.1.2/src/api\tcpip.c ****  * @see tcpip_callbackmsg_new()
 565:C:/Users/stapi/OneDrive/Desktop/GD32VW553/GD32VW55X_Wifi_BLE_SDK/GD32VW55x_RELEASE_V1.0.2/MSDK/lwip/lwip-2.1.2/src/api\tcpip.c ****  */
 566:C:/Users/stapi/OneDrive/Desktop/GD32VW553/GD32VW55X_Wifi_BLE_SDK/GD32VW55x_RELEASE_V1.0.2/MSDK/lwip/lwip-2.1.2/src/api\tcpip.c **** err_t
 567:C:/Users/stapi/OneDrive/Desktop/GD32VW553/GD32VW55X_Wifi_BLE_SDK/GD32VW55x_RELEASE_V1.0.2/MSDK/lwip/lwip-2.1.2/src/api\tcpip.c **** tcpip_callbackmsg_trycallback(struct tcpip_callback_msg *msg)
 568:C:/Users/stapi/OneDrive/Desktop/GD32VW553/GD32VW55X_Wifi_BLE_SDK/GD32VW55x_RELEASE_V1.0.2/MSDK/lwip/lwip-2.1.2/src/api\tcpip.c **** {
 569:C:/Users/stapi/OneDrive/Desktop/GD32VW553/GD32VW55X_Wifi_BLE_SDK/GD32VW55x_RELEASE_V1.0.2/MSDK/lwip/lwip-2.1.2/src/api\tcpip.c ****   LWIP_ASSERT("Invalid mbox", sys_mbox_valid_val(tcpip_mbox));
 570:C:/Users/stapi/OneDrive/Desktop/GD32VW553/GD32VW55X_Wifi_BLE_SDK/GD32VW55x_RELEASE_V1.0.2/MSDK/lwip/lwip-2.1.2/src/api\tcpip.c ****   return sys_mbox_trypost(&tcpip_mbox, msg);
 571:C:/Users/stapi/OneDrive/Desktop/GD32VW553/GD32VW55X_Wifi_BLE_SDK/GD32VW55x_RELEASE_V1.0.2/MSDK/lwip/lwip-2.1.2/src/api\tcpip.c **** }
 572:C:/Users/stapi/OneDrive/Desktop/GD32VW553/GD32VW55X_Wifi_BLE_SDK/GD32VW55x_RELEASE_V1.0.2/MSDK/lwip/lwip-2.1.2/src/api\tcpip.c **** 
 573:C:/Users/stapi/OneDrive/Desktop/GD32VW553/GD32VW55X_Wifi_BLE_SDK/GD32VW55x_RELEASE_V1.0.2/MSDK/lwip/lwip-2.1.2/src/api\tcpip.c **** /**
 574:C:/Users/stapi/OneDrive/Desktop/GD32VW553/GD32VW55X_Wifi_BLE_SDK/GD32VW55x_RELEASE_V1.0.2/MSDK/lwip/lwip-2.1.2/src/api\tcpip.c ****  * @ingroup lwip_os
 575:C:/Users/stapi/OneDrive/Desktop/GD32VW553/GD32VW55X_Wifi_BLE_SDK/GD32VW55x_RELEASE_V1.0.2/MSDK/lwip/lwip-2.1.2/src/api\tcpip.c ****  * Try to post a callback-message to the tcpip_thread mbox.
 576:C:/Users/stapi/OneDrive/Desktop/GD32VW553/GD32VW55X_Wifi_BLE_SDK/GD32VW55x_RELEASE_V1.0.2/MSDK/lwip/lwip-2.1.2/src/api\tcpip.c ****  * Same as @ref tcpip_callbackmsg_trycallback but calls sys_mbox_trypost_fromisr(),
 577:C:/Users/stapi/OneDrive/Desktop/GD32VW553/GD32VW55X_Wifi_BLE_SDK/GD32VW55x_RELEASE_V1.0.2/MSDK/lwip/lwip-2.1.2/src/api\tcpip.c ****  * mainly to help FreeRTOS, where calls differ between task level and ISR level.
 578:C:/Users/stapi/OneDrive/Desktop/GD32VW553/GD32VW55X_Wifi_BLE_SDK/GD32VW55x_RELEASE_V1.0.2/MSDK/lwip/lwip-2.1.2/src/api\tcpip.c ****  *
 579:C:/Users/stapi/OneDrive/Desktop/GD32VW553/GD32VW55X_Wifi_BLE_SDK/GD32VW55x_RELEASE_V1.0.2/MSDK/lwip/lwip-2.1.2/src/api\tcpip.c ****  * @param msg pointer to the message to post
 580:C:/Users/stapi/OneDrive/Desktop/GD32VW553/GD32VW55X_Wifi_BLE_SDK/GD32VW55x_RELEASE_V1.0.2/MSDK/lwip/lwip-2.1.2/src/api\tcpip.c ****  * @return sys_mbox_trypost_fromisr() return code (without change, so this
 581:C:/Users/stapi/OneDrive/Desktop/GD32VW553/GD32VW55X_Wifi_BLE_SDK/GD32VW55x_RELEASE_V1.0.2/MSDK/lwip/lwip-2.1.2/src/api\tcpip.c ****  *         knowledge can be used to e.g. propagate "bool needs_scheduling")
 582:C:/Users/stapi/OneDrive/Desktop/GD32VW553/GD32VW55X_Wifi_BLE_SDK/GD32VW55x_RELEASE_V1.0.2/MSDK/lwip/lwip-2.1.2/src/api\tcpip.c ****  *
 583:C:/Users/stapi/OneDrive/Desktop/GD32VW553/GD32VW55X_Wifi_BLE_SDK/GD32VW55x_RELEASE_V1.0.2/MSDK/lwip/lwip-2.1.2/src/api\tcpip.c ****  * @see tcpip_callbackmsg_new()
 584:C:/Users/stapi/OneDrive/Desktop/GD32VW553/GD32VW55X_Wifi_BLE_SDK/GD32VW55x_RELEASE_V1.0.2/MSDK/lwip/lwip-2.1.2/src/api\tcpip.c ****  */
 585:C:/Users/stapi/OneDrive/Desktop/GD32VW553/GD32VW55X_Wifi_BLE_SDK/GD32VW55x_RELEASE_V1.0.2/MSDK/lwip/lwip-2.1.2/src/api\tcpip.c **** err_t
 586:C:/Users/stapi/OneDrive/Desktop/GD32VW553/GD32VW55X_Wifi_BLE_SDK/GD32VW55x_RELEASE_V1.0.2/MSDK/lwip/lwip-2.1.2/src/api\tcpip.c **** tcpip_callbackmsg_trycallback_fromisr(struct tcpip_callback_msg *msg)
 587:C:/Users/stapi/OneDrive/Desktop/GD32VW553/GD32VW55X_Wifi_BLE_SDK/GD32VW55x_RELEASE_V1.0.2/MSDK/lwip/lwip-2.1.2/src/api\tcpip.c **** {
 588:C:/Users/stapi/OneDrive/Desktop/GD32VW553/GD32VW55X_Wifi_BLE_SDK/GD32VW55x_RELEASE_V1.0.2/MSDK/lwip/lwip-2.1.2/src/api\tcpip.c ****   LWIP_ASSERT("Invalid mbox", sys_mbox_valid_val(tcpip_mbox));
 589:C:/Users/stapi/OneDrive/Desktop/GD32VW553/GD32VW55X_Wifi_BLE_SDK/GD32VW55x_RELEASE_V1.0.2/MSDK/lwip/lwip-2.1.2/src/api\tcpip.c ****   return sys_mbox_trypost_fromisr(&tcpip_mbox, msg);
 590:C:/Users/stapi/OneDrive/Desktop/GD32VW553/GD32VW55X_Wifi_BLE_SDK/GD32VW55x_RELEASE_V1.0.2/MSDK/lwip/lwip-2.1.2/src/api\tcpip.c **** }
 591:C:/Users/stapi/OneDrive/Desktop/GD32VW553/GD32VW55X_Wifi_BLE_SDK/GD32VW55x_RELEASE_V1.0.2/MSDK/lwip/lwip-2.1.2/src/api\tcpip.c **** 
 592:C:/Users/stapi/OneDrive/Desktop/GD32VW553/GD32VW55X_Wifi_BLE_SDK/GD32VW55x_RELEASE_V1.0.2/MSDK/lwip/lwip-2.1.2/src/api\tcpip.c **** /**
 593:C:/Users/stapi/OneDrive/Desktop/GD32VW553/GD32VW55X_Wifi_BLE_SDK/GD32VW55x_RELEASE_V1.0.2/MSDK/lwip/lwip-2.1.2/src/api\tcpip.c ****  * @ingroup lwip_os
 594:C:/Users/stapi/OneDrive/Desktop/GD32VW553/GD32VW55X_Wifi_BLE_SDK/GD32VW55x_RELEASE_V1.0.2/MSDK/lwip/lwip-2.1.2/src/api\tcpip.c ****  * Initialize this module:
 595:C:/Users/stapi/OneDrive/Desktop/GD32VW553/GD32VW55X_Wifi_BLE_SDK/GD32VW55x_RELEASE_V1.0.2/MSDK/lwip/lwip-2.1.2/src/api\tcpip.c ****  * - initialize all sub modules
 596:C:/Users/stapi/OneDrive/Desktop/GD32VW553/GD32VW55X_Wifi_BLE_SDK/GD32VW55x_RELEASE_V1.0.2/MSDK/lwip/lwip-2.1.2/src/api\tcpip.c ****  * - start the tcpip_thread
 597:C:/Users/stapi/OneDrive/Desktop/GD32VW553/GD32VW55X_Wifi_BLE_SDK/GD32VW55x_RELEASE_V1.0.2/MSDK/lwip/lwip-2.1.2/src/api\tcpip.c ****  *
 598:C:/Users/stapi/OneDrive/Desktop/GD32VW553/GD32VW55X_Wifi_BLE_SDK/GD32VW55x_RELEASE_V1.0.2/MSDK/lwip/lwip-2.1.2/src/api\tcpip.c ****  * @param initfunc a function to call when tcpip_thread is running and finished initializing
 599:C:/Users/stapi/OneDrive/Desktop/GD32VW553/GD32VW55X_Wifi_BLE_SDK/GD32VW55x_RELEASE_V1.0.2/MSDK/lwip/lwip-2.1.2/src/api\tcpip.c ****  * @param arg argument to pass to initfunc
 600:C:/Users/stapi/OneDrive/Desktop/GD32VW553/GD32VW55X_Wifi_BLE_SDK/GD32VW55x_RELEASE_V1.0.2/MSDK/lwip/lwip-2.1.2/src/api\tcpip.c ****  */
 601:C:/Users/stapi/OneDrive/Desktop/GD32VW553/GD32VW55X_Wifi_BLE_SDK/GD32VW55x_RELEASE_V1.0.2/MSDK/lwip/lwip-2.1.2/src/api\tcpip.c **** void
 602:C:/Users/stapi/OneDrive/Desktop/GD32VW553/GD32VW55X_Wifi_BLE_SDK/GD32VW55x_RELEASE_V1.0.2/MSDK/lwip/lwip-2.1.2/src/api\tcpip.c **** tcpip_init(tcpip_init_done_fn initfunc, void *arg)
 603:C:/Users/stapi/OneDrive/Desktop/GD32VW553/GD32VW55X_Wifi_BLE_SDK/GD32VW55x_RELEASE_V1.0.2/MSDK/lwip/lwip-2.1.2/src/api\tcpip.c **** {
 604:C:/Users/stapi/OneDrive/Desktop/GD32VW553/GD32VW55X_Wifi_BLE_SDK/GD32VW55x_RELEASE_V1.0.2/MSDK/lwip/lwip-2.1.2/src/api\tcpip.c ****   lwip_init();
 605:C:/Users/stapi/OneDrive/Desktop/GD32VW553/GD32VW55X_Wifi_BLE_SDK/GD32VW55x_RELEASE_V1.0.2/MSDK/lwip/lwip-2.1.2/src/api\tcpip.c **** 
 606:C:/Users/stapi/OneDrive/Desktop/GD32VW553/GD32VW55X_Wifi_BLE_SDK/GD32VW55x_RELEASE_V1.0.2/MSDK/lwip/lwip-2.1.2/src/api\tcpip.c ****   tcpip_init_done = initfunc;
 607:C:/Users/stapi/OneDrive/Desktop/GD32VW553/GD32VW55X_Wifi_BLE_SDK/GD32VW55x_RELEASE_V1.0.2/MSDK/lwip/lwip-2.1.2/src/api\tcpip.c ****   tcpip_init_done_arg = arg;
 608:C:/Users/stapi/OneDrive/Desktop/GD32VW553/GD32VW55X_Wifi_BLE_SDK/GD32VW55x_RELEASE_V1.0.2/MSDK/lwip/lwip-2.1.2/src/api\tcpip.c ****   if (sys_mbox_new(&tcpip_mbox, TCPIP_MBOX_SIZE) != ERR_OK) {
 609:C:/Users/stapi/OneDrive/Desktop/GD32VW553/GD32VW55X_Wifi_BLE_SDK/GD32VW55x_RELEASE_V1.0.2/MSDK/lwip/lwip-2.1.2/src/api\tcpip.c ****     LWIP_ASSERT("failed to create tcpip_thread mbox", 0);
 610:C:/Users/stapi/OneDrive/Desktop/GD32VW553/GD32VW55X_Wifi_BLE_SDK/GD32VW55x_RELEASE_V1.0.2/MSDK/lwip/lwip-2.1.2/src/api\tcpip.c ****   }
 611:C:/Users/stapi/OneDrive/Desktop/GD32VW553/GD32VW55X_Wifi_BLE_SDK/GD32VW55x_RELEASE_V1.0.2/MSDK/lwip/lwip-2.1.2/src/api\tcpip.c **** #if LWIP_TCPIP_CORE_LOCKING
 612:C:/Users/stapi/OneDrive/Desktop/GD32VW553/GD32VW55X_Wifi_BLE_SDK/GD32VW55x_RELEASE_V1.0.2/MSDK/lwip/lwip-2.1.2/src/api\tcpip.c ****   if (sys_mutex_new(&lock_tcpip_core) != ERR_OK) {
 613:C:/Users/stapi/OneDrive/Desktop/GD32VW553/GD32VW55X_Wifi_BLE_SDK/GD32VW55x_RELEASE_V1.0.2/MSDK/lwip/lwip-2.1.2/src/api\tcpip.c ****     LWIP_ASSERT("failed to create lock_tcpip_core", 0);
 614:C:/Users/stapi/OneDrive/Desktop/GD32VW553/GD32VW55X_Wifi_BLE_SDK/GD32VW55x_RELEASE_V1.0.2/MSDK/lwip/lwip-2.1.2/src/api\tcpip.c ****   }
 615:C:/Users/stapi/OneDrive/Desktop/GD32VW553/GD32VW55X_Wifi_BLE_SDK/GD32VW55x_RELEASE_V1.0.2/MSDK/lwip/lwip-2.1.2/src/api\tcpip.c **** #endif /* LWIP_TCPIP_CORE_LOCKING */
 616:C:/Users/stapi/OneDrive/Desktop/GD32VW553/GD32VW55X_Wifi_BLE_SDK/GD32VW55x_RELEASE_V1.0.2/MSDK/lwip/lwip-2.1.2/src/api\tcpip.c **** 
 617:C:/Users/stapi/OneDrive/Desktop/GD32VW553/GD32VW55X_Wifi_BLE_SDK/GD32VW55x_RELEASE_V1.0.2/MSDK/lwip/lwip-2.1.2/src/api\tcpip.c ****   sys_thread_new(TCPIP_THREAD_NAME, tcpip_thread, NULL, TCPIP_THREAD_STACKSIZE, TCPIP_THREAD_PRIO);
 618:C:/Users/stapi/OneDrive/Desktop/GD32VW553/GD32VW55X_Wifi_BLE_SDK/GD32VW55x_RELEASE_V1.0.2/MSDK/lwip/lwip-2.1.2/src/api\tcpip.c **** }
 619:C:/Users/stapi/OneDrive/Desktop/GD32VW553/GD32VW55X_Wifi_BLE_SDK/GD32VW55x_RELEASE_V1.0.2/MSDK/lwip/lwip-2.1.2/src/api\tcpip.c **** 
 620:C:/Users/stapi/OneDrive/Desktop/GD32VW553/GD32VW55X_Wifi_BLE_SDK/GD32VW55x_RELEASE_V1.0.2/MSDK/lwip/lwip-2.1.2/src/api\tcpip.c **** /**
 621:C:/Users/stapi/OneDrive/Desktop/GD32VW553/GD32VW55X_Wifi_BLE_SDK/GD32VW55x_RELEASE_V1.0.2/MSDK/lwip/lwip-2.1.2/src/api\tcpip.c ****  * Simple callback function used with tcpip_callback to free a pbuf
 622:C:/Users/stapi/OneDrive/Desktop/GD32VW553/GD32VW55X_Wifi_BLE_SDK/GD32VW55x_RELEASE_V1.0.2/MSDK/lwip/lwip-2.1.2/src/api\tcpip.c ****  * (pbuf_free has a wrong signature for tcpip_callback)
 623:C:/Users/stapi/OneDrive/Desktop/GD32VW553/GD32VW55X_Wifi_BLE_SDK/GD32VW55x_RELEASE_V1.0.2/MSDK/lwip/lwip-2.1.2/src/api\tcpip.c ****  *
 624:C:/Users/stapi/OneDrive/Desktop/GD32VW553/GD32VW55X_Wifi_BLE_SDK/GD32VW55x_RELEASE_V1.0.2/MSDK/lwip/lwip-2.1.2/src/api\tcpip.c ****  * @param p The pbuf (chain) to be dereferenced.
 625:C:/Users/stapi/OneDrive/Desktop/GD32VW553/GD32VW55X_Wifi_BLE_SDK/GD32VW55x_RELEASE_V1.0.2/MSDK/lwip/lwip-2.1.2/src/api\tcpip.c ****  */
 626:C:/Users/stapi/OneDrive/Desktop/GD32VW553/GD32VW55X_Wifi_BLE_SDK/GD32VW55x_RELEASE_V1.0.2/MSDK/lwip/lwip-2.1.2/src/api\tcpip.c **** static void
 627:C:/Users/stapi/OneDrive/Desktop/GD32VW553/GD32VW55X_Wifi_BLE_SDK/GD32VW55x_RELEASE_V1.0.2/MSDK/lwip/lwip-2.1.2/src/api\tcpip.c **** pbuf_free_int(void *p)
 628:C:/Users/stapi/OneDrive/Desktop/GD32VW553/GD32VW55X_Wifi_BLE_SDK/GD32VW55x_RELEASE_V1.0.2/MSDK/lwip/lwip-2.1.2/src/api\tcpip.c **** {
  15              		.loc 1 628 1
  16              		.cfi_startproc
  17              	.LVL0:
 629:C:/Users/stapi/OneDrive/Desktop/GD32VW553/GD32VW55X_Wifi_BLE_SDK/GD32VW55x_RELEASE_V1.0.2/MSDK/lwip/lwip-2.1.2/src/api\tcpip.c ****   struct pbuf *q = (struct pbuf *)p;
  18              		.loc 1 629 3
 630:C:/Users/stapi/OneDrive/Desktop/GD32VW553/GD32VW55X_Wifi_BLE_SDK/GD32VW55x_RELEASE_V1.0.2/MSDK/lwip/lwip-2.1.2/src/api\tcpip.c ****   pbuf_free(q);
  19              		.loc 1 630 3
  20 0000 17030000 		tail	pbuf_free
  20      67000300 
  21              	.LVL1:
  22              		.cfi_endproc
  23              	.LFE17:
  25              		.section	.rodata.tcpip_thread.str1.4,"aMS",@progbits,1
  26              		.align	2
  27              	.LC0:
  28 0000 433A2F55 		.string	"C:/Users/stapi/OneDrive/Desktop/GD32VW553/GD32VW55X_Wifi_BLE_SDK/GD32VW55x_RELEASE_V1.0.2
  28      73657273 
  28      2F737461 
  28      70692F4F 
  28      6E654472 
  29 007f 00       		.align	2
  30              	.LC1:
  31 0080 74637069 		.string	"tcpip_thread: invalid message"
  31      705F7468 
  31      72656164 
  31      3A20696E 
  31      76616C69 
  32 009e 0000     		.align	2
  33              	.LC2:
  34 00a0 41737365 		.string	"Assertion \"%s\" failed at line %d in %s\n"
  34      7274696F 
  34      6E202225 
  34      73222066 
  34      61696C65 
  35              		.section	.text.tcpip_thread,"ax",@progbits
  36              		.align	1
  38              	tcpip_thread:
  39              	.LFB4:
 128:C:/Users/stapi/OneDrive/Desktop/GD32VW553/GD32VW55X_Wifi_BLE_SDK/GD32VW55x_RELEASE_V1.0.2/MSDK/lwip/lwip-2.1.2/src/api\tcpip.c ****   struct tcpip_msg *msg;
  40              		.loc 1 128 1
  41              		.cfi_startproc
  42              	.LVL2:
  43 0000 17030000 		call	t0,__riscv_save_6
  43      E7020300 
  44              		.cfi_offset 21, -28
  45              		.cfi_offset 20, -24
  46              		.cfi_offset 19, -20
  47              		.cfi_offset 18, -16
  48              		.cfi_offset 9, -12
  49              		.cfi_offset 8, -8
  50              		.cfi_offset 1, -4
  51              		.cfi_def_cfa_offset 32
 129:C:/Users/stapi/OneDrive/Desktop/GD32VW553/GD32VW55X_Wifi_BLE_SDK/GD32VW55x_RELEASE_V1.0.2/MSDK/lwip/lwip-2.1.2/src/api\tcpip.c ****   LWIP_UNUSED_ARG(arg);
  52              		.loc 1 129 3
 130:C:/Users/stapi/OneDrive/Desktop/GD32VW553/GD32VW55X_Wifi_BLE_SDK/GD32VW55x_RELEASE_V1.0.2/MSDK/lwip/lwip-2.1.2/src/api\tcpip.c **** 
  53              		.loc 1 130 3
 132:C:/Users/stapi/OneDrive/Desktop/GD32VW553/GD32VW55X_Wifi_BLE_SDK/GD32VW55x_RELEASE_V1.0.2/MSDK/lwip/lwip-2.1.2/src/api\tcpip.c **** 
  54              		.loc 1 132 27
 134:C:/Users/stapi/OneDrive/Desktop/GD32VW553/GD32VW55X_Wifi_BLE_SDK/GD32VW55x_RELEASE_V1.0.2/MSDK/lwip/lwip-2.1.2/src/api\tcpip.c ****   if (tcpip_init_done != NULL) {
  55              		.loc 1 134 3
  56 0008 B7040000 		lui	s1,%hi(.LANCHOR0)
 128:C:/Users/stapi/OneDrive/Desktop/GD32VW553/GD32VW55X_Wifi_BLE_SDK/GD32VW55x_RELEASE_V1.0.2/MSDK/lwip/lwip-2.1.2/src/api\tcpip.c ****   struct tcpip_msg *msg;
  57              		.loc 1 128 1 is_stmt 0
  58 000c 0111     		addi	sp,sp,-32
  59              		.cfi_def_cfa_offset 64
 134:C:/Users/stapi/OneDrive/Desktop/GD32VW553/GD32VW55X_Wifi_BLE_SDK/GD32VW55x_RELEASE_V1.0.2/MSDK/lwip/lwip-2.1.2/src/api\tcpip.c ****   if (tcpip_init_done != NULL) {
  60              		.loc 1 134 3
  61 000e 13850400 		addi	a0,s1,%lo(.LANCHOR0)
  62              	.LVL3:
  63 0012 97000000 		call	sys_mutex_get
  63      E7800000 
  64              	.LVL4:
 135:C:/Users/stapi/OneDrive/Desktop/GD32VW553/GD32VW55X_Wifi_BLE_SDK/GD32VW55x_RELEASE_V1.0.2/MSDK/lwip/lwip-2.1.2/src/api\tcpip.c ****     tcpip_init_done(tcpip_init_done_arg);
  65              		.loc 1 135 3 is_stmt 1
 135:C:/Users/stapi/OneDrive/Desktop/GD32VW553/GD32VW55X_Wifi_BLE_SDK/GD32VW55x_RELEASE_V1.0.2/MSDK/lwip/lwip-2.1.2/src/api\tcpip.c ****     tcpip_init_done(tcpip_init_done_arg);
  66              		.loc 1 135 23 is_stmt 0
  67 001a B7070000 		lui	a5,%hi(.LANCHOR1)
  68 001e 83A70700 		lw	a5,%lo(.LANCHOR1)(a5)
 135:C:/Users/stapi/OneDrive/Desktop/GD32VW553/GD32VW55X_Wifi_BLE_SDK/GD32VW55x_RELEASE_V1.0.2/MSDK/lwip/lwip-2.1.2/src/api\tcpip.c ****     tcpip_init_done(tcpip_init_done_arg);
  69              		.loc 1 135 6
  70 0022 91C7     		beq	a5,zero,.L4
 136:C:/Users/stapi/OneDrive/Desktop/GD32VW553/GD32VW55X_Wifi_BLE_SDK/GD32VW55x_RELEASE_V1.0.2/MSDK/lwip/lwip-2.1.2/src/api\tcpip.c ****   }
  71              		.loc 1 136 5 is_stmt 1
  72 0024 37070000 		lui	a4,%hi(.LANCHOR2)
  73 0028 03250700 		lw	a0,%lo(.LANCHOR2)(a4)
  74 002c 8297     		jalr	a5
  75              	.LVL5:
  76              	.L4:
  77              	.LBB6:
  78              	.LBB7:
  92:C:/Users/stapi/OneDrive/Desktop/GD32VW553/GD32VW55X_Wifi_BLE_SDK/GD32VW55x_RELEASE_V1.0.2/MSDK/lwip/lwip-2.1.2/src/api\tcpip.c ****     UNLOCK_TCPIP_CORE();
  79              		.loc 1 92 6 is_stmt 0
  80 002e 7D59     		li	s2,-1
 104:C:/Users/stapi/OneDrive/Desktop/GD32VW553/GD32VW55X_Wifi_BLE_SDK/GD32VW55x_RELEASE_V1.0.2/MSDK/lwip/lwip-2.1.2/src/api\tcpip.c ****   LOCK_TCPIP_CORE();
  81              		.loc 1 104 9
  82 0030 B7090000 		lui	s3,%hi(.LANCHOR3)
  83              	.LBE7:
  84              	.LBE6:
  85              	.LBB10:
  86              	.LBB11:
 158:C:/Users/stapi/OneDrive/Desktop/GD32VW553/GD32VW55X_Wifi_BLE_SDK/GD32VW55x_RELEASE_V1.0.2/MSDK/lwip/lwip-2.1.2/src/api\tcpip.c **** #if !LWIP_TCPIP_CORE_LOCKING
  87              		.loc 1 158 3
  88 0034 054A     		li	s4,1
  89 0036 894A     		li	s5,2
  90              	.L9:
  91              	.LBE11:
  92              	.LBE10:
  93              	.LBB14:
  94              	.LBB8:
  86:C:/Users/stapi/OneDrive/Desktop/GD32VW553/GD32VW55X_Wifi_BLE_SDK/GD32VW55x_RELEASE_V1.0.2/MSDK/lwip/lwip-2.1.2/src/api\tcpip.c **** 
  95              		.loc 1 86 3 is_stmt 1
  89:C:/Users/stapi/OneDrive/Desktop/GD32VW553/GD32VW55X_Wifi_BLE_SDK/GD32VW55x_RELEASE_V1.0.2/MSDK/lwip/lwip-2.1.2/src/api\tcpip.c **** 
  96              		.loc 1 89 28
  91:C:/Users/stapi/OneDrive/Desktop/GD32VW553/GD32VW55X_Wifi_BLE_SDK/GD32VW55x_RELEASE_V1.0.2/MSDK/lwip/lwip-2.1.2/src/api\tcpip.c ****   if (sleeptime == SYS_TIMEOUTS_SLEEPTIME_INFINITE) {
  97              		.loc 1 91 3
  91:C:/Users/stapi/OneDrive/Desktop/GD32VW553/GD32VW55X_Wifi_BLE_SDK/GD32VW55x_RELEASE_V1.0.2/MSDK/lwip/lwip-2.1.2/src/api\tcpip.c ****   if (sleeptime == SYS_TIMEOUTS_SLEEPTIME_INFINITE) {
  98              		.loc 1 91 15 is_stmt 0
  99 0038 97000000 		call	sys_timeouts_sleeptime
  99      E7800000 
 100              	.LVL6:
  92:C:/Users/stapi/OneDrive/Desktop/GD32VW553/GD32VW55X_Wifi_BLE_SDK/GD32VW55x_RELEASE_V1.0.2/MSDK/lwip/lwip-2.1.2/src/api\tcpip.c ****     UNLOCK_TCPIP_CORE();
 101              		.loc 1 92 3 is_stmt 1
  92:C:/Users/stapi/OneDrive/Desktop/GD32VW553/GD32VW55X_Wifi_BLE_SDK/GD32VW55x_RELEASE_V1.0.2/MSDK/lwip/lwip-2.1.2/src/api\tcpip.c ****     UNLOCK_TCPIP_CORE();
 102              		.loc 1 92 6 is_stmt 0
 103 0040 631B2505 		bne	a0,s2,.L6
  93:C:/Users/stapi/OneDrive/Desktop/GD32VW553/GD32VW55X_Wifi_BLE_SDK/GD32VW55x_RELEASE_V1.0.2/MSDK/lwip/lwip-2.1.2/src/api\tcpip.c ****     sys_arch_mbox_fetch(mbox, msg, 0);
 104              		.loc 1 93 5 is_stmt 1
 105 0044 13850400 		addi	a0,s1,%lo(.LANCHOR0)
 106              	.LVL7:
 107 0048 97000000 		call	sys_mutex_put
 107      E7800000 
 108              	.LVL8:
  94:C:/Users/stapi/OneDrive/Desktop/GD32VW553/GD32VW55X_Wifi_BLE_SDK/GD32VW55x_RELEASE_V1.0.2/MSDK/lwip/lwip-2.1.2/src/api\tcpip.c ****     LOCK_TCPIP_CORE();
 109              		.loc 1 94 5
 110 0050 0146     		li	a2,0
 111 0052 6C08     		addi	a1,sp,28
 112 0054 13850900 		addi	a0,s3,%lo(.LANCHOR3)
 113 0058 97000000 		call	sys_arch_mbox_fetch
 113      E7800000 
 114              	.LVL9:
  95:C:/Users/stapi/OneDrive/Desktop/GD32VW553/GD32VW55X_Wifi_BLE_SDK/GD32VW55x_RELEASE_V1.0.2/MSDK/lwip/lwip-2.1.2/src/api\tcpip.c ****     return;
 115              		.loc 1 95 5
 116 0060 13850400 		addi	a0,s1,%lo(.LANCHOR0)
 117 0064 97000000 		call	sys_mutex_get
 117      E7800000 
 118              	.LVL10:
  96:C:/Users/stapi/OneDrive/Desktop/GD32VW553/GD32VW55X_Wifi_BLE_SDK/GD32VW55x_RELEASE_V1.0.2/MSDK/lwip/lwip-2.1.2/src/api\tcpip.c ****   } else if (sleeptime == 0) {
 119              		.loc 1 96 5
 120              	.L7:
 121              	.LBE8:
 122              	.LBE14:
 143:C:/Users/stapi/OneDrive/Desktop/GD32VW553/GD32VW55X_Wifi_BLE_SDK/GD32VW55x_RELEASE_V1.0.2/MSDK/lwip/lwip-2.1.2/src/api\tcpip.c ****       LWIP_DEBUGF(TCPIP_DEBUG, ("tcpip_thread: invalid message: NULL\n"));
 123              		.loc 1 143 5
 143:C:/Users/stapi/OneDrive/Desktop/GD32VW553/GD32VW55X_Wifi_BLE_SDK/GD32VW55x_RELEASE_V1.0.2/MSDK/lwip/lwip-2.1.2/src/api\tcpip.c ****       LWIP_DEBUGF(TCPIP_DEBUG, ("tcpip_thread: invalid message: NULL\n"));
 124              		.loc 1 143 13 is_stmt 0
 125 006c 7244     		lw	s0,28(sp)
 143:C:/Users/stapi/OneDrive/Desktop/GD32VW553/GD32VW55X_Wifi_BLE_SDK/GD32VW55x_RELEASE_V1.0.2/MSDK/lwip/lwip-2.1.2/src/api\tcpip.c ****       LWIP_DEBUGF(TCPIP_DEBUG, ("tcpip_thread: invalid message: NULL\n"));
 126              		.loc 1 143 8
 127 006e 3DE0     		bne	s0,zero,.L11
 144:C:/Users/stapi/OneDrive/Desktop/GD32VW553/GD32VW55X_Wifi_BLE_SDK/GD32VW55x_RELEASE_V1.0.2/MSDK/lwip/lwip-2.1.2/src/api\tcpip.c ****       LWIP_ASSERT("tcpip_thread: invalid message", 0);
 128              		.loc 1 144 74 is_stmt 1 discriminator 1
 145:C:/Users/stapi/OneDrive/Desktop/GD32VW553/GD32VW55X_Wifi_BLE_SDK/GD32VW55x_RELEASE_V1.0.2/MSDK/lwip/lwip-2.1.2/src/api\tcpip.c ****       continue;
 129              		.loc 1 145 7 discriminator 1
 145:C:/Users/stapi/OneDrive/Desktop/GD32VW553/GD32VW55X_Wifi_BLE_SDK/GD32VW55x_RELEASE_V1.0.2/MSDK/lwip/lwip-2.1.2/src/api\tcpip.c ****       continue;
 130              		.loc 1 145 7 discriminator 1
 145:C:/Users/stapi/OneDrive/Desktop/GD32VW553/GD32VW55X_Wifi_BLE_SDK/GD32VW55x_RELEASE_V1.0.2/MSDK/lwip/lwip-2.1.2/src/api\tcpip.c ****       continue;
 131              		.loc 1 145 7 discriminator 1
 145:C:/Users/stapi/OneDrive/Desktop/GD32VW553/GD32VW55X_Wifi_BLE_SDK/GD32VW55x_RELEASE_V1.0.2/MSDK/lwip/lwip-2.1.2/src/api\tcpip.c ****       continue;
 132              		.loc 1 145 7 discriminator 1
 133 0070 B7060000 		lui	a3,%hi(.LC0)
 134 0074 B7050000 		lui	a1,%hi(.LC1)
 135 0078 37050000 		lui	a0,%hi(.LC2)
 136 007c 93860600 		addi	a3,a3,%lo(.LC0)
 137 0080 13061009 		li	a2,145
 138 0084 93850500 		addi	a1,a1,%lo(.LC1)
 139 0088 13050500 		addi	a0,a0,%lo(.LC2)
 140 008c 97000000 		call	printf
 140      E7800000 
 141              	.LVL11:
 142              	.L12:
 145:C:/Users/stapi/OneDrive/Desktop/GD32VW553/GD32VW55X_Wifi_BLE_SDK/GD32VW55x_RELEASE_V1.0.2/MSDK/lwip/lwip-2.1.2/src/api\tcpip.c ****       continue;
 143              		.loc 1 145 7 discriminator 1
 145:C:/Users/stapi/OneDrive/Desktop/GD32VW553/GD32VW55X_Wifi_BLE_SDK/GD32VW55x_RELEASE_V1.0.2/MSDK/lwip/lwip-2.1.2/src/api\tcpip.c ****       continue;
 144              		.loc 1 145 7 discriminator 1
 145:C:/Users/stapi/OneDrive/Desktop/GD32VW553/GD32VW55X_Wifi_BLE_SDK/GD32VW55x_RELEASE_V1.0.2/MSDK/lwip/lwip-2.1.2/src/api\tcpip.c ****       continue;
 145              		.loc 1 145 7 discriminator 1
 146 0094 01A0     		j	.L12
 147              	.LVL12:
 148              	.L6:
 149              	.LBB15:
 150              	.LBB9:
  97:C:/Users/stapi/OneDrive/Desktop/GD32VW553/GD32VW55X_Wifi_BLE_SDK/GD32VW55x_RELEASE_V1.0.2/MSDK/lwip/lwip-2.1.2/src/api\tcpip.c ****     sys_check_timeouts();
 151              		.loc 1 97 10
  97:C:/Users/stapi/OneDrive/Desktop/GD32VW553/GD32VW55X_Wifi_BLE_SDK/GD32VW55x_RELEASE_V1.0.2/MSDK/lwip/lwip-2.1.2/src/api\tcpip.c ****     sys_check_timeouts();
 152              		.loc 1 97 13 is_stmt 0
 153 0096 11E5     		bne	a0,zero,.L8
 154              	.LVL13:
 155              	.L10:
  98:C:/Users/stapi/OneDrive/Desktop/GD32VW553/GD32VW55X_Wifi_BLE_SDK/GD32VW55x_RELEASE_V1.0.2/MSDK/lwip/lwip-2.1.2/src/api\tcpip.c ****     /* We try again to fetch a message from the mbox. */
 156              		.loc 1 98 5 is_stmt 1
 157 0098 97000000 		call	sys_check_timeouts
 157      E7800000 
 158              	.LVL14:
 100:C:/Users/stapi/OneDrive/Desktop/GD32VW553/GD32VW55X_Wifi_BLE_SDK/GD32VW55x_RELEASE_V1.0.2/MSDK/lwip/lwip-2.1.2/src/api\tcpip.c ****   }
 159              		.loc 1 100 5
 160 00a0 61BF     		j	.L9
 161              	.LVL15:
 162              	.L8:
 163 00a2 2AC6     		sw	a0,12(sp)
 103:C:/Users/stapi/OneDrive/Desktop/GD32VW553/GD32VW55X_Wifi_BLE_SDK/GD32VW55x_RELEASE_V1.0.2/MSDK/lwip/lwip-2.1.2/src/api\tcpip.c ****   res = sys_arch_mbox_fetch(mbox, msg, sleeptime);
 164              		.loc 1 103 3
 165 00a4 13850400 		addi	a0,s1,%lo(.LANCHOR0)
 166              	.LVL16:
 167 00a8 97000000 		call	sys_mutex_put
 167      E7800000 
 168              	.LVL17:
 104:C:/Users/stapi/OneDrive/Desktop/GD32VW553/GD32VW55X_Wifi_BLE_SDK/GD32VW55x_RELEASE_V1.0.2/MSDK/lwip/lwip-2.1.2/src/api\tcpip.c ****   LOCK_TCPIP_CORE();
 169              		.loc 1 104 3
 104:C:/Users/stapi/OneDrive/Desktop/GD32VW553/GD32VW55X_Wifi_BLE_SDK/GD32VW55x_RELEASE_V1.0.2/MSDK/lwip/lwip-2.1.2/src/api\tcpip.c ****   LOCK_TCPIP_CORE();
 170              		.loc 1 104 9 is_stmt 0
 171 00b0 3246     		lw	a2,12(sp)
 172 00b2 6C08     		addi	a1,sp,28
 173 00b4 13850900 		addi	a0,s3,%lo(.LANCHOR3)
 174 00b8 97000000 		call	sys_arch_mbox_fetch
 174      E7800000 
 175              	.LVL18:
 176 00c0 2A84     		mv	s0,a0
 177              	.LVL19:
 105:C:/Users/stapi/OneDrive/Desktop/GD32VW553/GD32VW55X_Wifi_BLE_SDK/GD32VW55x_RELEASE_V1.0.2/MSDK/lwip/lwip-2.1.2/src/api\tcpip.c ****   if (res == SYS_ARCH_TIMEOUT) {
 178              		.loc 1 105 3 is_stmt 1
 179 00c2 13850400 		addi	a0,s1,%lo(.LANCHOR0)
 180 00c6 97000000 		call	sys_mutex_get
 180      E7800000 
 181              	.LVL20:
 106:C:/Users/stapi/OneDrive/Desktop/GD32VW553/GD32VW55X_Wifi_BLE_SDK/GD32VW55x_RELEASE_V1.0.2/MSDK/lwip/lwip-2.1.2/src/api\tcpip.c ****     /* If a SYS_ARCH_TIMEOUT value is returned, a timeout occurred
 182              		.loc 1 106 3
 106:C:/Users/stapi/OneDrive/Desktop/GD32VW553/GD32VW55X_Wifi_BLE_SDK/GD32VW55x_RELEASE_V1.0.2/MSDK/lwip/lwip-2.1.2/src/api\tcpip.c ****     /* If a SYS_ARCH_TIMEOUT value is returned, a timeout occurred
 183              		.loc 1 106 6 is_stmt 0
 184 00ce E30524FD 		beq	s0,s2,.L10
 185 00d2 69BF     		j	.L7
 186              	.LVL21:
 187              	.L11:
 188              	.LBE9:
 189              	.LBE15:
 148:C:/Users/stapi/OneDrive/Desktop/GD32VW553/GD32VW55X_Wifi_BLE_SDK/GD32VW55x_RELEASE_V1.0.2/MSDK/lwip/lwip-2.1.2/src/api\tcpip.c ****   }
 190              		.loc 1 148 5 is_stmt 1
 191              	.LBB16:
 192              	.LBB12:
 158:C:/Users/stapi/OneDrive/Desktop/GD32VW553/GD32VW55X_Wifi_BLE_SDK/GD32VW55x_RELEASE_V1.0.2/MSDK/lwip/lwip-2.1.2/src/api\tcpip.c **** #if !LWIP_TCPIP_CORE_LOCKING
 193              		.loc 1 158 3
 158:C:/Users/stapi/OneDrive/Desktop/GD32VW553/GD32VW55X_Wifi_BLE_SDK/GD32VW55x_RELEASE_V1.0.2/MSDK/lwip/lwip-2.1.2/src/api\tcpip.c **** #if !LWIP_TCPIP_CORE_LOCKING
 194              		.loc 1 158 14 is_stmt 0
 195 00d4 1C40     		lw	a5,0(s0)
 158:C:/Users/stapi/OneDrive/Desktop/GD32VW553/GD32VW55X_Wifi_BLE_SDK/GD32VW55x_RELEASE_V1.0.2/MSDK/lwip/lwip-2.1.2/src/api\tcpip.c **** #if !LWIP_TCPIP_CORE_LOCKING
 196              		.loc 1 158 3
 197 00d6 63864703 		beq	a5,s4,.L13
 198 00da 638A5703 		beq	a5,s5,.L14
 199 00de 85EF     		bne	a5,zero,.L15
 173:C:/Users/stapi/OneDrive/Desktop/GD32VW553/GD32VW55X_Wifi_BLE_SDK/GD32VW55x_RELEASE_V1.0.2/MSDK/lwip/lwip-2.1.2/src/api\tcpip.c ****       if (msg->msg.inp.input_fn(msg->msg.inp.p, msg->msg.inp.netif) != ERR_OK) {
 200              		.loc 1 173 75 is_stmt 1
 174:C:/Users/stapi/OneDrive/Desktop/GD32VW553/GD32VW55X_Wifi_BLE_SDK/GD32VW55x_RELEASE_V1.0.2/MSDK/lwip/lwip-2.1.2/src/api\tcpip.c ****         pbuf_free(msg->msg.inp.p);
 201              		.loc 1 174 7
 174:C:/Users/stapi/OneDrive/Desktop/GD32VW553/GD32VW55X_Wifi_BLE_SDK/GD32VW55x_RELEASE_V1.0.2/MSDK/lwip/lwip-2.1.2/src/api\tcpip.c ****         pbuf_free(msg->msg.inp.p);
 202              		.loc 1 174 11 is_stmt 0
 203 00e0 5C44     		lw	a5,12(s0)
 204 00e2 0C44     		lw	a1,8(s0)
 205 00e4 4840     		lw	a0,4(s0)
 206 00e6 8297     		jalr	a5
 207              	.LVL22:
 174:C:/Users/stapi/OneDrive/Desktop/GD32VW553/GD32VW55X_Wifi_BLE_SDK/GD32VW55x_RELEASE_V1.0.2/MSDK/lwip/lwip-2.1.2/src/api\tcpip.c ****         pbuf_free(msg->msg.inp.p);
 208              		.loc 1 174 10
 209 00e8 11C5     		beq	a0,zero,.L16
 175:C:/Users/stapi/OneDrive/Desktop/GD32VW553/GD32VW55X_Wifi_BLE_SDK/GD32VW55x_RELEASE_V1.0.2/MSDK/lwip/lwip-2.1.2/src/api\tcpip.c ****       }
 210              		.loc 1 175 9 is_stmt 1
 211 00ea 4840     		lw	a0,4(s0)
 212 00ec 97000000 		call	pbuf_free
 212      E7800000 
 213              	.LVL23:
 214              	.L16:
 177:C:/Users/stapi/OneDrive/Desktop/GD32VW553/GD32VW55X_Wifi_BLE_SDK/GD32VW55x_RELEASE_V1.0.2/MSDK/lwip/lwip-2.1.2/src/api\tcpip.c ****       break;
 215              		.loc 1 177 7
 216 00f4 A285     		mv	a1,s0
 217 00f6 2D45     		li	a0,11
 218              	.L26:
 197:C:/Users/stapi/OneDrive/Desktop/GD32VW553/GD32VW55X_Wifi_BLE_SDK/GD32VW55x_RELEASE_V1.0.2/MSDK/lwip/lwip-2.1.2/src/api\tcpip.c ****       break;
 219              		.loc 1 197 7 is_stmt 0
 220 00f8 97000000 		call	memp_free
 220      E7800000 
 221              	.LVL24:
 198:C:/Users/stapi/OneDrive/Desktop/GD32VW553/GD32VW55X_Wifi_BLE_SDK/GD32VW55x_RELEASE_V1.0.2/MSDK/lwip/lwip-2.1.2/src/api\tcpip.c **** 
 222              		.loc 1 198 7 is_stmt 1
 223 0100 25BF     		j	.L9
 224              	.L13:
 195:C:/Users/stapi/OneDrive/Desktop/GD32VW553/GD32VW55X_Wifi_BLE_SDK/GD32VW55x_RELEASE_V1.0.2/MSDK/lwip/lwip-2.1.2/src/api\tcpip.c ****       msg->msg.cb.function(msg->msg.cb.ctx);
 225              		.loc 1 195 77
 196:C:/Users/stapi/OneDrive/Desktop/GD32VW553/GD32VW55X_Wifi_BLE_SDK/GD32VW55x_RELEASE_V1.0.2/MSDK/lwip/lwip-2.1.2/src/api\tcpip.c ****       memp_free(MEMP_TCPIP_MSG_API, msg);
 226              		.loc 1 196 7
 227 0102 0844     		lw	a0,8(s0)
 228 0104 5C40     		lw	a5,4(s0)
 229 0106 8297     		jalr	a5
 230              	.LVL25:
 197:C:/Users/stapi/OneDrive/Desktop/GD32VW553/GD32VW55X_Wifi_BLE_SDK/GD32VW55x_RELEASE_V1.0.2/MSDK/lwip/lwip-2.1.2/src/api\tcpip.c ****       break;
 231              		.loc 1 197 7
 232 0108 A285     		mv	a1,s0
 233 010a 2945     		li	a0,10
 234 010c F5B7     		j	.L26
 235              	.L14:
 201:C:/Users/stapi/OneDrive/Desktop/GD32VW553/GD32VW55X_Wifi_BLE_SDK/GD32VW55x_RELEASE_V1.0.2/MSDK/lwip/lwip-2.1.2/src/api\tcpip.c ****       msg->msg.cb.function(msg->msg.cb.ctx);
 236              		.loc 1 201 84
 202:C:/Users/stapi/OneDrive/Desktop/GD32VW553/GD32VW55X_Wifi_BLE_SDK/GD32VW55x_RELEASE_V1.0.2/MSDK/lwip/lwip-2.1.2/src/api\tcpip.c ****       break;
 237              		.loc 1 202 7
 238 010e 5C40     		lw	a5,4(s0)
 239 0110 0844     		lw	a0,8(s0)
 240 0112 8297     		jalr	a5
 241              	.LVL26:
 203:C:/Users/stapi/OneDrive/Desktop/GD32VW553/GD32VW55X_Wifi_BLE_SDK/GD32VW55x_RELEASE_V1.0.2/MSDK/lwip/lwip-2.1.2/src/api\tcpip.c **** 
 242              		.loc 1 203 7
 243              	.LBE12:
 244              	.LBE16:
 139:C:/Users/stapi/OneDrive/Desktop/GD32VW553/GD32VW55X_Wifi_BLE_SDK/GD32VW55x_RELEASE_V1.0.2/MSDK/lwip/lwip-2.1.2/src/api\tcpip.c ****     LWIP_TCPIP_THREAD_ALIVE();
 245              		.loc 1 139 3
 140:C:/Users/stapi/OneDrive/Desktop/GD32VW553/GD32VW55X_Wifi_BLE_SDK/GD32VW55x_RELEASE_V1.0.2/MSDK/lwip/lwip-2.1.2/src/api\tcpip.c ****     /* wait for a message, timeouts are processed while waiting */
 246              		.loc 1 140 30
 142:C:/Users/stapi/OneDrive/Desktop/GD32VW553/GD32VW55X_Wifi_BLE_SDK/GD32VW55x_RELEASE_V1.0.2/MSDK/lwip/lwip-2.1.2/src/api\tcpip.c ****     if (msg == NULL) {
 247              		.loc 1 142 5
 248              	.LBB17:
 249              	.LBB13:
 203:C:/Users/stapi/OneDrive/Desktop/GD32VW553/GD32VW55X_Wifi_BLE_SDK/GD32VW55x_RELEASE_V1.0.2/MSDK/lwip/lwip-2.1.2/src/api\tcpip.c **** 
 250              		.loc 1 203 7 is_stmt 0
 251 0114 15B7     		j	.L9
 252              	.LVL27:
 253              	.L15:
 206:C:/Users/stapi/OneDrive/Desktop/GD32VW553/GD32VW55X_Wifi_BLE_SDK/GD32VW55x_RELEASE_V1.0.2/MSDK/lwip/lwip-2.1.2/src/api\tcpip.c ****       LWIP_ASSERT("tcpip_thread: invalid message", 0);
 254              		.loc 1 206 83 is_stmt 1
 207:C:/Users/stapi/OneDrive/Desktop/GD32VW553/GD32VW55X_Wifi_BLE_SDK/GD32VW55x_RELEASE_V1.0.2/MSDK/lwip/lwip-2.1.2/src/api\tcpip.c ****       break;
 255              		.loc 1 207 7
 207:C:/Users/stapi/OneDrive/Desktop/GD32VW553/GD32VW55X_Wifi_BLE_SDK/GD32VW55x_RELEASE_V1.0.2/MSDK/lwip/lwip-2.1.2/src/api\tcpip.c ****       break;
 256              		.loc 1 207 7
 207:C:/Users/stapi/OneDrive/Desktop/GD32VW553/GD32VW55X_Wifi_BLE_SDK/GD32VW55x_RELEASE_V1.0.2/MSDK/lwip/lwip-2.1.2/src/api\tcpip.c ****       break;
 257              		.loc 1 207 7
 207:C:/Users/stapi/OneDrive/Desktop/GD32VW553/GD32VW55X_Wifi_BLE_SDK/GD32VW55x_RELEASE_V1.0.2/MSDK/lwip/lwip-2.1.2/src/api\tcpip.c ****       break;
 258              		.loc 1 207 7
 259 0116 B7060000 		lui	a3,%hi(.LC0)
 260 011a B7050000 		lui	a1,%hi(.LC1)
 261 011e 37050000 		lui	a0,%hi(.LC2)
 262 0122 93860600 		addi	a3,a3,%lo(.LC0)
 263 0126 1306F00C 		li	a2,207
 264 012a 93850500 		addi	a1,a1,%lo(.LC1)
 265 012e 13050500 		addi	a0,a0,%lo(.LC2)
 266 0132 97000000 		call	printf
 266      E7800000 
 267              	.LVL28:
 268              	.L18:
 207:C:/Users/stapi/OneDrive/Desktop/GD32VW553/GD32VW55X_Wifi_BLE_SDK/GD32VW55x_RELEASE_V1.0.2/MSDK/lwip/lwip-2.1.2/src/api\tcpip.c ****       break;
 269              		.loc 1 207 7
 207:C:/Users/stapi/OneDrive/Desktop/GD32VW553/GD32VW55X_Wifi_BLE_SDK/GD32VW55x_RELEASE_V1.0.2/MSDK/lwip/lwip-2.1.2/src/api\tcpip.c ****       break;
 270              		.loc 1 207 7
 207:C:/Users/stapi/OneDrive/Desktop/GD32VW553/GD32VW55X_Wifi_BLE_SDK/GD32VW55x_RELEASE_V1.0.2/MSDK/lwip/lwip-2.1.2/src/api\tcpip.c ****       break;
 271              		.loc 1 207 7
 272 013a 01A0     		j	.L18
 273              	.LBE13:
 274              	.LBE17:
 275              		.cfi_endproc
 276              	.LFE4:
 278              		.section	.rodata.tcpip_inpkt.str1.4,"aMS",@progbits,1
 279              		.align	2
 280              	.LC3:
 281 0000 496E7661 		.string	"Invalid mbox"
 281      6C696420 
 281      6D626F78 
 281      00
 282              		.section	.text.tcpip_inpkt,"ax",@progbits
 283              		.align	1
 284              		.globl	tcpip_inpkt
 286              	tcpip_inpkt:
 287              	.LFB6:
 241:C:/Users/stapi/OneDrive/Desktop/GD32VW553/GD32VW55X_Wifi_BLE_SDK/GD32VW55x_RELEASE_V1.0.2/MSDK/lwip/lwip-2.1.2/src/api\tcpip.c **** #if LWIP_TCPIP_CORE_LOCKING_INPUT
 288              		.loc 1 241 1
 289              		.cfi_startproc
 290              	.LVL29:
 291 0000 17030000 		call	t0,__riscv_save_4
 291      E7020300 
 292              		.cfi_offset 19, -20
 293              		.cfi_offset 18, -16
 294              		.cfi_offset 9, -12
 295              		.cfi_offset 8, -8
 296              		.cfi_offset 1, -4
 297              		.cfi_def_cfa_offset 32
 250:C:/Users/stapi/OneDrive/Desktop/GD32VW553/GD32VW55X_Wifi_BLE_SDK/GD32VW55x_RELEASE_V1.0.2/MSDK/lwip/lwip-2.1.2/src/api\tcpip.c **** 
 298              		.loc 1 250 3
 252:C:/Users/stapi/OneDrive/Desktop/GD32VW553/GD32VW55X_Wifi_BLE_SDK/GD32VW55x_RELEASE_V1.0.2/MSDK/lwip/lwip-2.1.2/src/api\tcpip.c **** 
 299              		.loc 1 252 3
 252:C:/Users/stapi/OneDrive/Desktop/GD32VW553/GD32VW55X_Wifi_BLE_SDK/GD32VW55x_RELEASE_V1.0.2/MSDK/lwip/lwip-2.1.2/src/api\tcpip.c **** 
 300              		.loc 1 252 3
 301 0008 B7090000 		lui	s3,%hi(.LANCHOR3)
 302 000c 83A70900 		lw	a5,%lo(.LANCHOR3)(s3)
 241:C:/Users/stapi/OneDrive/Desktop/GD32VW553/GD32VW55X_Wifi_BLE_SDK/GD32VW55x_RELEASE_V1.0.2/MSDK/lwip/lwip-2.1.2/src/api\tcpip.c **** #if LWIP_TCPIP_CORE_LOCKING_INPUT
 303              		.loc 1 241 1 is_stmt 0
 304 0010 4111     		addi	sp,sp,-16
 305              		.cfi_def_cfa_offset 48
 252:C:/Users/stapi/OneDrive/Desktop/GD32VW553/GD32VW55X_Wifi_BLE_SDK/GD32VW55x_RELEASE_V1.0.2/MSDK/lwip/lwip-2.1.2/src/api\tcpip.c **** 
 306              		.loc 1 252 3
 307 0012 85E7     		bne	a5,zero,.L28
 308              	.LVL30:
 309              	.LBB20:
 310              	.LBB21:
 252:C:/Users/stapi/OneDrive/Desktop/GD32VW553/GD32VW55X_Wifi_BLE_SDK/GD32VW55x_RELEASE_V1.0.2/MSDK/lwip/lwip-2.1.2/src/api\tcpip.c **** 
 311              		.loc 1 252 3 is_stmt 1
 252:C:/Users/stapi/OneDrive/Desktop/GD32VW553/GD32VW55X_Wifi_BLE_SDK/GD32VW55x_RELEASE_V1.0.2/MSDK/lwip/lwip-2.1.2/src/api\tcpip.c **** 
 312              		.loc 1 252 3
 313 0014 B7060000 		lui	a3,%hi(.LC0)
 314 0018 B7050000 		lui	a1,%hi(.LC3)
 315              	.LVL31:
 316 001c 37050000 		lui	a0,%hi(.LC2)
 317              	.LVL32:
 318 0020 93860600 		addi	a3,a3,%lo(.LC0)
 319 0024 1306C00F 		li	a2,252
 320              	.LVL33:
 321 0028 93850500 		addi	a1,a1,%lo(.LC3)
 322 002c 13050500 		addi	a0,a0,%lo(.LC2)
 323 0030 97000000 		call	printf
 323      E7800000 
 324              	.LVL34:
 325              	.L29:
 252:C:/Users/stapi/OneDrive/Desktop/GD32VW553/GD32VW55X_Wifi_BLE_SDK/GD32VW55x_RELEASE_V1.0.2/MSDK/lwip/lwip-2.1.2/src/api\tcpip.c **** 
 326              		.loc 1 252 3
 252:C:/Users/stapi/OneDrive/Desktop/GD32VW553/GD32VW55X_Wifi_BLE_SDK/GD32VW55x_RELEASE_V1.0.2/MSDK/lwip/lwip-2.1.2/src/api\tcpip.c **** 
 327              		.loc 1 252 3
 252:C:/Users/stapi/OneDrive/Desktop/GD32VW553/GD32VW55X_Wifi_BLE_SDK/GD32VW55x_RELEASE_V1.0.2/MSDK/lwip/lwip-2.1.2/src/api\tcpip.c **** 
 328              		.loc 1 252 3
 329 0038 01A0     		j	.L29
 330              	.LVL35:
 331              	.L28:
 332 003a 2A89     		mv	s2,a0
 333              	.LBE21:
 334              	.LBE20:
 254:C:/Users/stapi/OneDrive/Desktop/GD32VW553/GD32VW55X_Wifi_BLE_SDK/GD32VW55x_RELEASE_V1.0.2/MSDK/lwip/lwip-2.1.2/src/api\tcpip.c ****   if (msg == NULL) {
 335              		.loc 1 254 29 is_stmt 0 discriminator 2
 336 003c 2D45     		li	a0,11
 337              	.LVL36:
 338 003e AE84     		mv	s1,a1
 339 0040 3284     		mv	s0,a2
 252:C:/Users/stapi/OneDrive/Desktop/GD32VW553/GD32VW55X_Wifi_BLE_SDK/GD32VW55x_RELEASE_V1.0.2/MSDK/lwip/lwip-2.1.2/src/api\tcpip.c **** 
 340              		.loc 1 252 3 is_stmt 1 discriminator 2
 252:C:/Users/stapi/OneDrive/Desktop/GD32VW553/GD32VW55X_Wifi_BLE_SDK/GD32VW55x_RELEASE_V1.0.2/MSDK/lwip/lwip-2.1.2/src/api\tcpip.c **** 
 341              		.loc 1 252 3 discriminator 2
 254:C:/Users/stapi/OneDrive/Desktop/GD32VW553/GD32VW55X_Wifi_BLE_SDK/GD32VW55x_RELEASE_V1.0.2/MSDK/lwip/lwip-2.1.2/src/api\tcpip.c ****   if (msg == NULL) {
 342              		.loc 1 254 3 discriminator 2
 254:C:/Users/stapi/OneDrive/Desktop/GD32VW553/GD32VW55X_Wifi_BLE_SDK/GD32VW55x_RELEASE_V1.0.2/MSDK/lwip/lwip-2.1.2/src/api\tcpip.c ****   if (msg == NULL) {
 343              		.loc 1 254 29 is_stmt 0 discriminator 2
 344 0042 97000000 		call	memp_malloc
 344      E7800000 
 345              	.LVL37:
 346 004a AA85     		mv	a1,a0
 347              	.LVL38:
 255:C:/Users/stapi/OneDrive/Desktop/GD32VW553/GD32VW55X_Wifi_BLE_SDK/GD32VW55x_RELEASE_V1.0.2/MSDK/lwip/lwip-2.1.2/src/api\tcpip.c ****     return ERR_MEM;
 348              		.loc 1 255 3 is_stmt 1 discriminator 2
 256:C:/Users/stapi/OneDrive/Desktop/GD32VW553/GD32VW55X_Wifi_BLE_SDK/GD32VW55x_RELEASE_V1.0.2/MSDK/lwip/lwip-2.1.2/src/api\tcpip.c ****   }
 349              		.loc 1 256 12 is_stmt 0 discriminator 2
 350 004c 7D55     		li	a0,-1
 351              	.LVL39:
 255:C:/Users/stapi/OneDrive/Desktop/GD32VW553/GD32VW55X_Wifi_BLE_SDK/GD32VW55x_RELEASE_V1.0.2/MSDK/lwip/lwip-2.1.2/src/api\tcpip.c ****     return ERR_MEM;
 352              		.loc 1 255 6 discriminator 2
 353 004e 95C5     		beq	a1,zero,.L30
 259:C:/Users/stapi/OneDrive/Desktop/GD32VW553/GD32VW55X_Wifi_BLE_SDK/GD32VW55x_RELEASE_V1.0.2/MSDK/lwip/lwip-2.1.2/src/api\tcpip.c ****   msg->msg.inp.p = p;
 354              		.loc 1 259 3 is_stmt 1
 259:C:/Users/stapi/OneDrive/Desktop/GD32VW553/GD32VW55X_Wifi_BLE_SDK/GD32VW55x_RELEASE_V1.0.2/MSDK/lwip/lwip-2.1.2/src/api\tcpip.c ****   msg->msg.inp.p = p;
 355              		.loc 1 259 13 is_stmt 0
 356 0050 23A00500 		sw	zero,0(a1)
 260:C:/Users/stapi/OneDrive/Desktop/GD32VW553/GD32VW55X_Wifi_BLE_SDK/GD32VW55x_RELEASE_V1.0.2/MSDK/lwip/lwip-2.1.2/src/api\tcpip.c ****   msg->msg.inp.netif = inp;
 357              		.loc 1 260 3 is_stmt 1
 260:C:/Users/stapi/OneDrive/Desktop/GD32VW553/GD32VW55X_Wifi_BLE_SDK/GD32VW55x_RELEASE_V1.0.2/MSDK/lwip/lwip-2.1.2/src/api\tcpip.c ****   msg->msg.inp.netif = inp;
 358              		.loc 1 260 18 is_stmt 0
 359 0054 23A22501 		sw	s2,4(a1)
 261:C:/Users/stapi/OneDrive/Desktop/GD32VW553/GD32VW55X_Wifi_BLE_SDK/GD32VW55x_RELEASE_V1.0.2/MSDK/lwip/lwip-2.1.2/src/api\tcpip.c ****   msg->msg.inp.input_fn = input_fn;
 360              		.loc 1 261 3 is_stmt 1
 261:C:/Users/stapi/OneDrive/Desktop/GD32VW553/GD32VW55X_Wifi_BLE_SDK/GD32VW55x_RELEASE_V1.0.2/MSDK/lwip/lwip-2.1.2/src/api\tcpip.c ****   msg->msg.inp.input_fn = input_fn;
 361              		.loc 1 261 22 is_stmt 0
 362 0058 84C5     		sw	s1,8(a1)
 262:C:/Users/stapi/OneDrive/Desktop/GD32VW553/GD32VW55X_Wifi_BLE_SDK/GD32VW55x_RELEASE_V1.0.2/MSDK/lwip/lwip-2.1.2/src/api\tcpip.c ****   if (sys_mbox_trypost(&tcpip_mbox, msg) != ERR_OK) {
 363              		.loc 1 262 3 is_stmt 1
 262:C:/Users/stapi/OneDrive/Desktop/GD32VW553/GD32VW55X_Wifi_BLE_SDK/GD32VW55x_RELEASE_V1.0.2/MSDK/lwip/lwip-2.1.2/src/api\tcpip.c ****   if (sys_mbox_trypost(&tcpip_mbox, msg) != ERR_OK) {
 364              		.loc 1 262 25 is_stmt 0
 365 005a C0C5     		sw	s0,12(a1)
 263:C:/Users/stapi/OneDrive/Desktop/GD32VW553/GD32VW55X_Wifi_BLE_SDK/GD32VW55x_RELEASE_V1.0.2/MSDK/lwip/lwip-2.1.2/src/api\tcpip.c ****     memp_free(MEMP_TCPIP_MSG_INPKT, msg);
 366              		.loc 1 263 3 is_stmt 1
 263:C:/Users/stapi/OneDrive/Desktop/GD32VW553/GD32VW55X_Wifi_BLE_SDK/GD32VW55x_RELEASE_V1.0.2/MSDK/lwip/lwip-2.1.2/src/api\tcpip.c ****     memp_free(MEMP_TCPIP_MSG_INPKT, msg);
 367              		.loc 1 263 7 is_stmt 0
 368 005c 13850900 		addi	a0,s3,%lo(.LANCHOR3)
 369 0060 2EC6     		sw	a1,12(sp)
 370 0062 97000000 		call	sys_mbox_trypost
 370      E7800000 
 371              	.LVL40:
 263:C:/Users/stapi/OneDrive/Desktop/GD32VW553/GD32VW55X_Wifi_BLE_SDK/GD32VW55x_RELEASE_V1.0.2/MSDK/lwip/lwip-2.1.2/src/api\tcpip.c ****     memp_free(MEMP_TCPIP_MSG_INPKT, msg);
 372              		.loc 1 263 6
 373 006a B245     		lw	a1,12(sp)
 374 006c 19C5     		beq	a0,zero,.L30
 264:C:/Users/stapi/OneDrive/Desktop/GD32VW553/GD32VW55X_Wifi_BLE_SDK/GD32VW55x_RELEASE_V1.0.2/MSDK/lwip/lwip-2.1.2/src/api\tcpip.c ****     return ERR_MEM;
 375              		.loc 1 264 5 is_stmt 1
 376 006e 2D45     		li	a0,11
 377 0070 97000000 		call	memp_free
 377      E7800000 
 378              	.LVL41:
 265:C:/Users/stapi/OneDrive/Desktop/GD32VW553/GD32VW55X_Wifi_BLE_SDK/GD32VW55x_RELEASE_V1.0.2/MSDK/lwip/lwip-2.1.2/src/api\tcpip.c ****   }
 379              		.loc 1 265 5
 265:C:/Users/stapi/OneDrive/Desktop/GD32VW553/GD32VW55X_Wifi_BLE_SDK/GD32VW55x_RELEASE_V1.0.2/MSDK/lwip/lwip-2.1.2/src/api\tcpip.c ****   }
 380              		.loc 1 265 12 is_stmt 0
 381 0078 7D55     		li	a0,-1
 382              	.LVL42:
 383              	.L30:
 269:C:/Users/stapi/OneDrive/Desktop/GD32VW553/GD32VW55X_Wifi_BLE_SDK/GD32VW55x_RELEASE_V1.0.2/MSDK/lwip/lwip-2.1.2/src/api\tcpip.c **** 
 384              		.loc 1 269 1
 385 007a 4101     		addi	sp,sp,16
 386              		.cfi_def_cfa_offset 0
 387 007c 17030000 		tail	__riscv_restore_4
 387      67000300 
 388              		.cfi_restore 19
 389              		.cfi_restore 18
 390              		.cfi_restore 9
 391              		.cfi_restore 8
 392              		.cfi_restore 1
 393              		.cfi_def_cfa_offset -32
 394              		.cfi_endproc
 395              	.LFE6:
 397              		.section	.text.tcpip_input,"ax",@progbits
 398              		.align	1
 399              		.globl	tcpip_input
 401              	tcpip_input:
 402              	.LFB7:
 284:C:/Users/stapi/OneDrive/Desktop/GD32VW553/GD32VW55X_Wifi_BLE_SDK/GD32VW55x_RELEASE_V1.0.2/MSDK/lwip/lwip-2.1.2/src/api\tcpip.c **** #if LWIP_ETHERNET
 403              		.loc 1 284 1 is_stmt 1
 404              		.cfi_startproc
 405              	.LVL43:
 286:C:/Users/stapi/OneDrive/Desktop/GD32VW553/GD32VW55X_Wifi_BLE_SDK/GD32VW55x_RELEASE_V1.0.2/MSDK/lwip/lwip-2.1.2/src/api\tcpip.c ****     return tcpip_inpkt(p, inp, ethernet_input);
 406              		.loc 1 286 3
 286:C:/Users/stapi/OneDrive/Desktop/GD32VW553/GD32VW55X_Wifi_BLE_SDK/GD32VW55x_RELEASE_V1.0.2/MSDK/lwip/lwip-2.1.2/src/api\tcpip.c ****     return tcpip_inpkt(p, inp, ethernet_input);
 407              		.loc 1 286 6 is_stmt 0
 408 0000 83C71503 		lbu	a5,49(a1)
 409 0004 E18B     		andi	a5,a5,24
 410 0006 89CB     		beq	a5,zero,.L37
 287:C:/Users/stapi/OneDrive/Desktop/GD32VW553/GD32VW55X_Wifi_BLE_SDK/GD32VW55x_RELEASE_V1.0.2/MSDK/lwip/lwip-2.1.2/src/api\tcpip.c ****   } else
 411              		.loc 1 287 5 is_stmt 1
 287:C:/Users/stapi/OneDrive/Desktop/GD32VW553/GD32VW55X_Wifi_BLE_SDK/GD32VW55x_RELEASE_V1.0.2/MSDK/lwip/lwip-2.1.2/src/api\tcpip.c ****   } else
 412              		.loc 1 287 12 is_stmt 0
 413 0008 37060000 		lui	a2,%hi(ethernet_input)
 414 000c 13060600 		addi	a2,a2,%lo(ethernet_input)
 415              	.L40:
 290:C:/Users/stapi/OneDrive/Desktop/GD32VW553/GD32VW55X_Wifi_BLE_SDK/GD32VW55x_RELEASE_V1.0.2/MSDK/lwip/lwip-2.1.2/src/api\tcpip.c **** }
 416              		.loc 1 290 12
 417 0010 17030000 		tail	tcpip_inpkt
 417      67000300 
 418              	.LVL44:
 419              	.L37:
 290:C:/Users/stapi/OneDrive/Desktop/GD32VW553/GD32VW55X_Wifi_BLE_SDK/GD32VW55x_RELEASE_V1.0.2/MSDK/lwip/lwip-2.1.2/src/api\tcpip.c **** }
 420              		.loc 1 290 5 is_stmt 1
 290:C:/Users/stapi/OneDrive/Desktop/GD32VW553/GD32VW55X_Wifi_BLE_SDK/GD32VW55x_RELEASE_V1.0.2/MSDK/lwip/lwip-2.1.2/src/api\tcpip.c **** }
 421              		.loc 1 290 12 is_stmt 0
 422 0018 37060000 		lui	a2,%hi(ip4_input)
 423 001c 13060600 		addi	a2,a2,%lo(ip4_input)
 424 0020 C5BF     		j	.L40
 425              		.cfi_endproc
 426              	.LFE7:
 428              		.section	.text.tcpip_callback,"ax",@progbits
 429              		.align	1
 430              		.globl	tcpip_callback
 432              	tcpip_callback:
 433              	.LFB8:
 310:C:/Users/stapi/OneDrive/Desktop/GD32VW553/GD32VW55X_Wifi_BLE_SDK/GD32VW55x_RELEASE_V1.0.2/MSDK/lwip/lwip-2.1.2/src/api\tcpip.c ****   struct tcpip_msg *msg;
 434              		.loc 1 310 1 is_stmt 1
 435              		.cfi_startproc
 436              	.LVL45:
 437 0000 17030000 		call	t0,__riscv_save_3
 437      E7020300 
 438              		.cfi_offset 18, -16
 439              		.cfi_offset 9, -12
 440              		.cfi_offset 8, -8
 441              		.cfi_offset 1, -4
 442              		.cfi_def_cfa_offset 16
 311:C:/Users/stapi/OneDrive/Desktop/GD32VW553/GD32VW55X_Wifi_BLE_SDK/GD32VW55x_RELEASE_V1.0.2/MSDK/lwip/lwip-2.1.2/src/api\tcpip.c **** 
 443              		.loc 1 311 3
 313:C:/Users/stapi/OneDrive/Desktop/GD32VW553/GD32VW55X_Wifi_BLE_SDK/GD32VW55x_RELEASE_V1.0.2/MSDK/lwip/lwip-2.1.2/src/api\tcpip.c **** 
 444              		.loc 1 313 3
 313:C:/Users/stapi/OneDrive/Desktop/GD32VW553/GD32VW55X_Wifi_BLE_SDK/GD32VW55x_RELEASE_V1.0.2/MSDK/lwip/lwip-2.1.2/src/api\tcpip.c **** 
 445              		.loc 1 313 3
 446 0008 37090000 		lui	s2,%hi(.LANCHOR3)
 447 000c 83270900 		lw	a5,%lo(.LANCHOR3)(s2)
 448 0010 85E7     		bne	a5,zero,.L42
 313:C:/Users/stapi/OneDrive/Desktop/GD32VW553/GD32VW55X_Wifi_BLE_SDK/GD32VW55x_RELEASE_V1.0.2/MSDK/lwip/lwip-2.1.2/src/api\tcpip.c **** 
 449              		.loc 1 313 3 discriminator 1
 313:C:/Users/stapi/OneDrive/Desktop/GD32VW553/GD32VW55X_Wifi_BLE_SDK/GD32VW55x_RELEASE_V1.0.2/MSDK/lwip/lwip-2.1.2/src/api\tcpip.c **** 
 450              		.loc 1 313 3 discriminator 1
 451 0012 B7060000 		lui	a3,%hi(.LC0)
 452 0016 B7050000 		lui	a1,%hi(.LC3)
 453              	.LVL46:
 454 001a 37050000 		lui	a0,%hi(.LC2)
 455              	.LVL47:
 456 001e 93860600 		addi	a3,a3,%lo(.LC0)
 457 0022 13069013 		li	a2,313
 458 0026 93850500 		addi	a1,a1,%lo(.LC3)
 459 002a 13050500 		addi	a0,a0,%lo(.LC2)
 460 002e 97000000 		call	printf
 460      E7800000 
 461              	.LVL48:
 462              	.L43:
 313:C:/Users/stapi/OneDrive/Desktop/GD32VW553/GD32VW55X_Wifi_BLE_SDK/GD32VW55x_RELEASE_V1.0.2/MSDK/lwip/lwip-2.1.2/src/api\tcpip.c **** 
 463              		.loc 1 313 3 discriminator 1
 313:C:/Users/stapi/OneDrive/Desktop/GD32VW553/GD32VW55X_Wifi_BLE_SDK/GD32VW55x_RELEASE_V1.0.2/MSDK/lwip/lwip-2.1.2/src/api\tcpip.c **** 
 464              		.loc 1 313 3 discriminator 1
 313:C:/Users/stapi/OneDrive/Desktop/GD32VW553/GD32VW55X_Wifi_BLE_SDK/GD32VW55x_RELEASE_V1.0.2/MSDK/lwip/lwip-2.1.2/src/api\tcpip.c **** 
 465              		.loc 1 313 3 discriminator 1
 466 0036 01A0     		j	.L43
 467              	.LVL49:
 468              	.L42:
 469 0038 AA84     		mv	s1,a0
 315:C:/Users/stapi/OneDrive/Desktop/GD32VW553/GD32VW55X_Wifi_BLE_SDK/GD32VW55x_RELEASE_V1.0.2/MSDK/lwip/lwip-2.1.2/src/api\tcpip.c ****   if (msg == NULL) {
 470              		.loc 1 315 29 is_stmt 0 discriminator 2
 471 003a 2945     		li	a0,10
 472              	.LVL50:
 473 003c 2E84     		mv	s0,a1
 313:C:/Users/stapi/OneDrive/Desktop/GD32VW553/GD32VW55X_Wifi_BLE_SDK/GD32VW55x_RELEASE_V1.0.2/MSDK/lwip/lwip-2.1.2/src/api\tcpip.c **** 
 474              		.loc 1 313 3 is_stmt 1 discriminator 2
 313:C:/Users/stapi/OneDrive/Desktop/GD32VW553/GD32VW55X_Wifi_BLE_SDK/GD32VW55x_RELEASE_V1.0.2/MSDK/lwip/lwip-2.1.2/src/api\tcpip.c **** 
 475              		.loc 1 313 3 discriminator 2
 315:C:/Users/stapi/OneDrive/Desktop/GD32VW553/GD32VW55X_Wifi_BLE_SDK/GD32VW55x_RELEASE_V1.0.2/MSDK/lwip/lwip-2.1.2/src/api\tcpip.c ****   if (msg == NULL) {
 476              		.loc 1 315 3 discriminator 2
 315:C:/Users/stapi/OneDrive/Desktop/GD32VW553/GD32VW55X_Wifi_BLE_SDK/GD32VW55x_RELEASE_V1.0.2/MSDK/lwip/lwip-2.1.2/src/api\tcpip.c ****   if (msg == NULL) {
 477              		.loc 1 315 29 is_stmt 0 discriminator 2
 478 003e 97000000 		call	memp_malloc
 478      E7800000 
 479              	.LVL51:
 480 0046 AA85     		mv	a1,a0
 481              	.LVL52:
 316:C:/Users/stapi/OneDrive/Desktop/GD32VW553/GD32VW55X_Wifi_BLE_SDK/GD32VW55x_RELEASE_V1.0.2/MSDK/lwip/lwip-2.1.2/src/api\tcpip.c ****     return ERR_MEM;
 482              		.loc 1 316 3 is_stmt 1 discriminator 2
 317:C:/Users/stapi/OneDrive/Desktop/GD32VW553/GD32VW55X_Wifi_BLE_SDK/GD32VW55x_RELEASE_V1.0.2/MSDK/lwip/lwip-2.1.2/src/api\tcpip.c ****   }
 483              		.loc 1 317 12 is_stmt 0 discriminator 2
 484 0048 7D55     		li	a0,-1
 485              	.LVL53:
 316:C:/Users/stapi/OneDrive/Desktop/GD32VW553/GD32VW55X_Wifi_BLE_SDK/GD32VW55x_RELEASE_V1.0.2/MSDK/lwip/lwip-2.1.2/src/api\tcpip.c ****     return ERR_MEM;
 486              		.loc 1 316 6 discriminator 2
 487 004a 81CD     		beq	a1,zero,.L44
 320:C:/Users/stapi/OneDrive/Desktop/GD32VW553/GD32VW55X_Wifi_BLE_SDK/GD32VW55x_RELEASE_V1.0.2/MSDK/lwip/lwip-2.1.2/src/api\tcpip.c ****   msg->msg.cb.function = function;
 488              		.loc 1 320 3 is_stmt 1
 320:C:/Users/stapi/OneDrive/Desktop/GD32VW553/GD32VW55X_Wifi_BLE_SDK/GD32VW55x_RELEASE_V1.0.2/MSDK/lwip/lwip-2.1.2/src/api\tcpip.c ****   msg->msg.cb.function = function;
 489              		.loc 1 320 13 is_stmt 0
 490 004c 8547     		li	a5,1
 324:C:/Users/stapi/OneDrive/Desktop/GD32VW553/GD32VW55X_Wifi_BLE_SDK/GD32VW55x_RELEASE_V1.0.2/MSDK/lwip/lwip-2.1.2/src/api\tcpip.c ****   return ERR_OK;
 491              		.loc 1 324 3
 492 004e 13050900 		addi	a0,s2,%lo(.LANCHOR3)
 320:C:/Users/stapi/OneDrive/Desktop/GD32VW553/GD32VW55X_Wifi_BLE_SDK/GD32VW55x_RELEASE_V1.0.2/MSDK/lwip/lwip-2.1.2/src/api\tcpip.c ****   msg->msg.cb.function = function;
 493              		.loc 1 320 13
 494 0052 9CC1     		sw	a5,0(a1)
 321:C:/Users/stapi/OneDrive/Desktop/GD32VW553/GD32VW55X_Wifi_BLE_SDK/GD32VW55x_RELEASE_V1.0.2/MSDK/lwip/lwip-2.1.2/src/api\tcpip.c ****   msg->msg.cb.ctx = ctx;
 495              		.loc 1 321 3 is_stmt 1
 321:C:/Users/stapi/OneDrive/Desktop/GD32VW553/GD32VW55X_Wifi_BLE_SDK/GD32VW55x_RELEASE_V1.0.2/MSDK/lwip/lwip-2.1.2/src/api\tcpip.c ****   msg->msg.cb.ctx = ctx;
 496              		.loc 1 321 24 is_stmt 0
 497 0054 C4C1     		sw	s1,4(a1)
 322:C:/Users/stapi/OneDrive/Desktop/GD32VW553/GD32VW55X_Wifi_BLE_SDK/GD32VW55x_RELEASE_V1.0.2/MSDK/lwip/lwip-2.1.2/src/api\tcpip.c **** 
 498              		.loc 1 322 3 is_stmt 1
 322:C:/Users/stapi/OneDrive/Desktop/GD32VW553/GD32VW55X_Wifi_BLE_SDK/GD32VW55x_RELEASE_V1.0.2/MSDK/lwip/lwip-2.1.2/src/api\tcpip.c **** 
 499              		.loc 1 322 19 is_stmt 0
 500 0056 80C5     		sw	s0,8(a1)
 324:C:/Users/stapi/OneDrive/Desktop/GD32VW553/GD32VW55X_Wifi_BLE_SDK/GD32VW55x_RELEASE_V1.0.2/MSDK/lwip/lwip-2.1.2/src/api\tcpip.c ****   return ERR_OK;
 501              		.loc 1 324 3 is_stmt 1
 502 0058 97000000 		call	sys_mbox_post
 502      E7800000 
 503              	.LVL54:
 325:C:/Users/stapi/OneDrive/Desktop/GD32VW553/GD32VW55X_Wifi_BLE_SDK/GD32VW55x_RELEASE_V1.0.2/MSDK/lwip/lwip-2.1.2/src/api\tcpip.c **** }
 504              		.loc 1 325 3
 325:C:/Users/stapi/OneDrive/Desktop/GD32VW553/GD32VW55X_Wifi_BLE_SDK/GD32VW55x_RELEASE_V1.0.2/MSDK/lwip/lwip-2.1.2/src/api\tcpip.c **** }
 505              		.loc 1 325 10 is_stmt 0
 506 0060 0145     		li	a0,0
 507              	.L44:
 326:C:/Users/stapi/OneDrive/Desktop/GD32VW553/GD32VW55X_Wifi_BLE_SDK/GD32VW55x_RELEASE_V1.0.2/MSDK/lwip/lwip-2.1.2/src/api\tcpip.c **** 
 508              		.loc 1 326 1
 509 0062 17030000 		tail	__riscv_restore_3
 509      67000300 
 510              		.cfi_restore 18
 511              		.cfi_restore 9
 512              		.cfi_restore 8
 513              		.cfi_restore 1
 514              		.cfi_def_cfa_offset 0
 515              		.cfi_endproc
 516              	.LFE8:
 518              		.section	.text.tcpip_try_callback,"ax",@progbits
 519              		.align	1
 520              		.globl	tcpip_try_callback
 522              	tcpip_try_callback:
 523              	.LFB9:
 346:C:/Users/stapi/OneDrive/Desktop/GD32VW553/GD32VW55X_Wifi_BLE_SDK/GD32VW55x_RELEASE_V1.0.2/MSDK/lwip/lwip-2.1.2/src/api\tcpip.c ****   struct tcpip_msg *msg;
 524              		.loc 1 346 1 is_stmt 1
 525              		.cfi_startproc
 526              	.LVL55:
 527 0000 17030000 		call	t0,__riscv_save_3
 527      E7020300 
 528              		.cfi_offset 18, -16
 529              		.cfi_offset 9, -12
 530              		.cfi_offset 8, -8
 531              		.cfi_offset 1, -4
 532              		.cfi_def_cfa_offset 16
 347:C:/Users/stapi/OneDrive/Desktop/GD32VW553/GD32VW55X_Wifi_BLE_SDK/GD32VW55x_RELEASE_V1.0.2/MSDK/lwip/lwip-2.1.2/src/api\tcpip.c **** 
 533              		.loc 1 347 3
 349:C:/Users/stapi/OneDrive/Desktop/GD32VW553/GD32VW55X_Wifi_BLE_SDK/GD32VW55x_RELEASE_V1.0.2/MSDK/lwip/lwip-2.1.2/src/api\tcpip.c **** 
 534              		.loc 1 349 3
 349:C:/Users/stapi/OneDrive/Desktop/GD32VW553/GD32VW55X_Wifi_BLE_SDK/GD32VW55x_RELEASE_V1.0.2/MSDK/lwip/lwip-2.1.2/src/api\tcpip.c **** 
 535              		.loc 1 349 3
 536 0008 37090000 		lui	s2,%hi(.LANCHOR3)
 537 000c 83270900 		lw	a5,%lo(.LANCHOR3)(s2)
 346:C:/Users/stapi/OneDrive/Desktop/GD32VW553/GD32VW55X_Wifi_BLE_SDK/GD32VW55x_RELEASE_V1.0.2/MSDK/lwip/lwip-2.1.2/src/api\tcpip.c ****   struct tcpip_msg *msg;
 538              		.loc 1 346 1 is_stmt 0
 539 0010 4111     		addi	sp,sp,-16
 540              		.cfi_def_cfa_offset 32
 349:C:/Users/stapi/OneDrive/Desktop/GD32VW553/GD32VW55X_Wifi_BLE_SDK/GD32VW55x_RELEASE_V1.0.2/MSDK/lwip/lwip-2.1.2/src/api\tcpip.c **** 
 541              		.loc 1 349 3
 542 0012 85E7     		bne	a5,zero,.L48
 543              	.LVL56:
 544              	.LBB24:
 545              	.LBB25:
 349:C:/Users/stapi/OneDrive/Desktop/GD32VW553/GD32VW55X_Wifi_BLE_SDK/GD32VW55x_RELEASE_V1.0.2/MSDK/lwip/lwip-2.1.2/src/api\tcpip.c **** 
 546              		.loc 1 349 3 is_stmt 1
 349:C:/Users/stapi/OneDrive/Desktop/GD32VW553/GD32VW55X_Wifi_BLE_SDK/GD32VW55x_RELEASE_V1.0.2/MSDK/lwip/lwip-2.1.2/src/api\tcpip.c **** 
 547              		.loc 1 349 3
 548 0014 B7060000 		lui	a3,%hi(.LC0)
 549 0018 B7050000 		lui	a1,%hi(.LC3)
 550              	.LVL57:
 551 001c 37050000 		lui	a0,%hi(.LC2)
 552              	.LVL58:
 553 0020 93860600 		addi	a3,a3,%lo(.LC0)
 554 0024 1306D015 		li	a2,349
 555 0028 93850500 		addi	a1,a1,%lo(.LC3)
 556 002c 13050500 		addi	a0,a0,%lo(.LC2)
 557 0030 97000000 		call	printf
 557      E7800000 
 558              	.LVL59:
 559              	.L49:
 349:C:/Users/stapi/OneDrive/Desktop/GD32VW553/GD32VW55X_Wifi_BLE_SDK/GD32VW55x_RELEASE_V1.0.2/MSDK/lwip/lwip-2.1.2/src/api\tcpip.c **** 
 560              		.loc 1 349 3
 349:C:/Users/stapi/OneDrive/Desktop/GD32VW553/GD32VW55X_Wifi_BLE_SDK/GD32VW55x_RELEASE_V1.0.2/MSDK/lwip/lwip-2.1.2/src/api\tcpip.c **** 
 561              		.loc 1 349 3
 349:C:/Users/stapi/OneDrive/Desktop/GD32VW553/GD32VW55X_Wifi_BLE_SDK/GD32VW55x_RELEASE_V1.0.2/MSDK/lwip/lwip-2.1.2/src/api\tcpip.c **** 
 562              		.loc 1 349 3
 563 0038 01A0     		j	.L49
 564              	.LVL60:
 565              	.L48:
 566 003a AA84     		mv	s1,a0
 567              	.LBE25:
 568              	.LBE24:
 351:C:/Users/stapi/OneDrive/Desktop/GD32VW553/GD32VW55X_Wifi_BLE_SDK/GD32VW55x_RELEASE_V1.0.2/MSDK/lwip/lwip-2.1.2/src/api\tcpip.c ****   if (msg == NULL) {
 569              		.loc 1 351 29 is_stmt 0 discriminator 2
 570 003c 2945     		li	a0,10
 571              	.LVL61:
 572 003e 2E84     		mv	s0,a1
 349:C:/Users/stapi/OneDrive/Desktop/GD32VW553/GD32VW55X_Wifi_BLE_SDK/GD32VW55x_RELEASE_V1.0.2/MSDK/lwip/lwip-2.1.2/src/api\tcpip.c **** 
 573              		.loc 1 349 3 is_stmt 1 discriminator 2
 349:C:/Users/stapi/OneDrive/Desktop/GD32VW553/GD32VW55X_Wifi_BLE_SDK/GD32VW55x_RELEASE_V1.0.2/MSDK/lwip/lwip-2.1.2/src/api\tcpip.c **** 
 574              		.loc 1 349 3 discriminator 2
 351:C:/Users/stapi/OneDrive/Desktop/GD32VW553/GD32VW55X_Wifi_BLE_SDK/GD32VW55x_RELEASE_V1.0.2/MSDK/lwip/lwip-2.1.2/src/api\tcpip.c ****   if (msg == NULL) {
 575              		.loc 1 351 3 discriminator 2
 351:C:/Users/stapi/OneDrive/Desktop/GD32VW553/GD32VW55X_Wifi_BLE_SDK/GD32VW55x_RELEASE_V1.0.2/MSDK/lwip/lwip-2.1.2/src/api\tcpip.c ****   if (msg == NULL) {
 576              		.loc 1 351 29 is_stmt 0 discriminator 2
 577 0040 97000000 		call	memp_malloc
 577      E7800000 
 578              	.LVL62:
 579 0048 AA85     		mv	a1,a0
 580              	.LVL63:
 352:C:/Users/stapi/OneDrive/Desktop/GD32VW553/GD32VW55X_Wifi_BLE_SDK/GD32VW55x_RELEASE_V1.0.2/MSDK/lwip/lwip-2.1.2/src/api\tcpip.c ****     return ERR_MEM;
 581              		.loc 1 352 3 is_stmt 1 discriminator 2
 353:C:/Users/stapi/OneDrive/Desktop/GD32VW553/GD32VW55X_Wifi_BLE_SDK/GD32VW55x_RELEASE_V1.0.2/MSDK/lwip/lwip-2.1.2/src/api\tcpip.c ****   }
 582              		.loc 1 353 12 is_stmt 0 discriminator 2
 583 004a 7D55     		li	a0,-1
 584              	.LVL64:
 352:C:/Users/stapi/OneDrive/Desktop/GD32VW553/GD32VW55X_Wifi_BLE_SDK/GD32VW55x_RELEASE_V1.0.2/MSDK/lwip/lwip-2.1.2/src/api\tcpip.c ****     return ERR_MEM;
 585              		.loc 1 352 6 discriminator 2
 586 004c 85C5     		beq	a1,zero,.L50
 356:C:/Users/stapi/OneDrive/Desktop/GD32VW553/GD32VW55X_Wifi_BLE_SDK/GD32VW55x_RELEASE_V1.0.2/MSDK/lwip/lwip-2.1.2/src/api\tcpip.c ****   msg->msg.cb.function = function;
 587              		.loc 1 356 3 is_stmt 1
 356:C:/Users/stapi/OneDrive/Desktop/GD32VW553/GD32VW55X_Wifi_BLE_SDK/GD32VW55x_RELEASE_V1.0.2/MSDK/lwip/lwip-2.1.2/src/api\tcpip.c ****   msg->msg.cb.function = function;
 588              		.loc 1 356 13 is_stmt 0
 589 004e 8547     		li	a5,1
 590 0050 9CC1     		sw	a5,0(a1)
 357:C:/Users/stapi/OneDrive/Desktop/GD32VW553/GD32VW55X_Wifi_BLE_SDK/GD32VW55x_RELEASE_V1.0.2/MSDK/lwip/lwip-2.1.2/src/api\tcpip.c ****   msg->msg.cb.ctx = ctx;
 591              		.loc 1 357 3 is_stmt 1
 357:C:/Users/stapi/OneDrive/Desktop/GD32VW553/GD32VW55X_Wifi_BLE_SDK/GD32VW55x_RELEASE_V1.0.2/MSDK/lwip/lwip-2.1.2/src/api\tcpip.c ****   msg->msg.cb.ctx = ctx;
 592              		.loc 1 357 24 is_stmt 0
 593 0052 C4C1     		sw	s1,4(a1)
 358:C:/Users/stapi/OneDrive/Desktop/GD32VW553/GD32VW55X_Wifi_BLE_SDK/GD32VW55x_RELEASE_V1.0.2/MSDK/lwip/lwip-2.1.2/src/api\tcpip.c **** 
 594              		.loc 1 358 3 is_stmt 1
 358:C:/Users/stapi/OneDrive/Desktop/GD32VW553/GD32VW55X_Wifi_BLE_SDK/GD32VW55x_RELEASE_V1.0.2/MSDK/lwip/lwip-2.1.2/src/api\tcpip.c **** 
 595              		.loc 1 358 19 is_stmt 0
 596 0054 80C5     		sw	s0,8(a1)
 360:C:/Users/stapi/OneDrive/Desktop/GD32VW553/GD32VW55X_Wifi_BLE_SDK/GD32VW55x_RELEASE_V1.0.2/MSDK/lwip/lwip-2.1.2/src/api\tcpip.c ****     memp_free(MEMP_TCPIP_MSG_API, msg);
 597              		.loc 1 360 3 is_stmt 1
 360:C:/Users/stapi/OneDrive/Desktop/GD32VW553/GD32VW55X_Wifi_BLE_SDK/GD32VW55x_RELEASE_V1.0.2/MSDK/lwip/lwip-2.1.2/src/api\tcpip.c ****     memp_free(MEMP_TCPIP_MSG_API, msg);
 598              		.loc 1 360 7 is_stmt 0
 599 0056 13050900 		addi	a0,s2,%lo(.LANCHOR3)
 600 005a 2EC6     		sw	a1,12(sp)
 601 005c 97000000 		call	sys_mbox_trypost
 601      E7800000 
 602              	.LVL65:
 360:C:/Users/stapi/OneDrive/Desktop/GD32VW553/GD32VW55X_Wifi_BLE_SDK/GD32VW55x_RELEASE_V1.0.2/MSDK/lwip/lwip-2.1.2/src/api\tcpip.c ****     memp_free(MEMP_TCPIP_MSG_API, msg);
 603              		.loc 1 360 6
 604 0064 B245     		lw	a1,12(sp)
 605 0066 19C5     		beq	a0,zero,.L50
 361:C:/Users/stapi/OneDrive/Desktop/GD32VW553/GD32VW55X_Wifi_BLE_SDK/GD32VW55x_RELEASE_V1.0.2/MSDK/lwip/lwip-2.1.2/src/api\tcpip.c ****     return ERR_MEM;
 606              		.loc 1 361 5 is_stmt 1
 607 0068 2945     		li	a0,10
 608 006a 97000000 		call	memp_free
 608      E7800000 
 609              	.LVL66:
 362:C:/Users/stapi/OneDrive/Desktop/GD32VW553/GD32VW55X_Wifi_BLE_SDK/GD32VW55x_RELEASE_V1.0.2/MSDK/lwip/lwip-2.1.2/src/api\tcpip.c ****   }
 610              		.loc 1 362 5
 362:C:/Users/stapi/OneDrive/Desktop/GD32VW553/GD32VW55X_Wifi_BLE_SDK/GD32VW55x_RELEASE_V1.0.2/MSDK/lwip/lwip-2.1.2/src/api\tcpip.c ****   }
 611              		.loc 1 362 12 is_stmt 0
 612 0072 7D55     		li	a0,-1
 613              	.LVL67:
 614              	.L50:
 365:C:/Users/stapi/OneDrive/Desktop/GD32VW553/GD32VW55X_Wifi_BLE_SDK/GD32VW55x_RELEASE_V1.0.2/MSDK/lwip/lwip-2.1.2/src/api\tcpip.c **** 
 615              		.loc 1 365 1
 616 0074 4101     		addi	sp,sp,16
 617              		.cfi_def_cfa_offset 0
 618 0076 17030000 		tail	__riscv_restore_3
 618      67000300 
 619              		.cfi_restore 18
 620              		.cfi_restore 9
 621              		.cfi_restore 8
 622              		.cfi_restore 1
 623              		.cfi_def_cfa_offset -16
 624              		.cfi_endproc
 625              	.LFE9:
 627              		.section	.text.tcpip_send_msg_wait_sem,"ax",@progbits
 628              		.align	1
 629              		.globl	tcpip_send_msg_wait_sem
 631              	tcpip_send_msg_wait_sem:
 632              	.LFB10:
 438:C:/Users/stapi/OneDrive/Desktop/GD32VW553/GD32VW55X_Wifi_BLE_SDK/GD32VW55x_RELEASE_V1.0.2/MSDK/lwip/lwip-2.1.2/src/api\tcpip.c **** #if LWIP_TCPIP_CORE_LOCKING
 633              		.loc 1 438 1 is_stmt 1
 634              		.cfi_startproc
 635              	.LVL68:
 636 0000 17030000 		call	t0,__riscv_save_3
 636      E7020300 
 637              		.cfi_offset 18, -16
 638              		.cfi_offset 9, -12
 639              		.cfi_offset 8, -8
 640              		.cfi_offset 1, -4
 641              		.cfi_def_cfa_offset 16
 440:C:/Users/stapi/OneDrive/Desktop/GD32VW553/GD32VW55X_Wifi_BLE_SDK/GD32VW55x_RELEASE_V1.0.2/MSDK/lwip/lwip-2.1.2/src/api\tcpip.c ****   LOCK_TCPIP_CORE();
 642              		.loc 1 440 3
 441:C:/Users/stapi/OneDrive/Desktop/GD32VW553/GD32VW55X_Wifi_BLE_SDK/GD32VW55x_RELEASE_V1.0.2/MSDK/lwip/lwip-2.1.2/src/api\tcpip.c ****   fn(apimsg);
 643              		.loc 1 441 3
 644 0008 37090000 		lui	s2,%hi(.LANCHOR0)
 438:C:/Users/stapi/OneDrive/Desktop/GD32VW553/GD32VW55X_Wifi_BLE_SDK/GD32VW55x_RELEASE_V1.0.2/MSDK/lwip/lwip-2.1.2/src/api\tcpip.c **** #if LWIP_TCPIP_CORE_LOCKING
 645              		.loc 1 438 1 is_stmt 0
 646 000c 2A84     		mv	s0,a0
 441:C:/Users/stapi/OneDrive/Desktop/GD32VW553/GD32VW55X_Wifi_BLE_SDK/GD32VW55x_RELEASE_V1.0.2/MSDK/lwip/lwip-2.1.2/src/api\tcpip.c ****   fn(apimsg);
 647              		.loc 1 441 3
 648 000e 13050900 		addi	a0,s2,%lo(.LANCHOR0)
 649              	.LVL69:
 438:C:/Users/stapi/OneDrive/Desktop/GD32VW553/GD32VW55X_Wifi_BLE_SDK/GD32VW55x_RELEASE_V1.0.2/MSDK/lwip/lwip-2.1.2/src/api\tcpip.c **** #if LWIP_TCPIP_CORE_LOCKING
 650              		.loc 1 438 1
 651 0012 AE84     		mv	s1,a1
 441:C:/Users/stapi/OneDrive/Desktop/GD32VW553/GD32VW55X_Wifi_BLE_SDK/GD32VW55x_RELEASE_V1.0.2/MSDK/lwip/lwip-2.1.2/src/api\tcpip.c ****   fn(apimsg);
 652              		.loc 1 441 3
 653 0014 97000000 		call	sys_mutex_get
 653      E7800000 
 654              	.LVL70:
 442:C:/Users/stapi/OneDrive/Desktop/GD32VW553/GD32VW55X_Wifi_BLE_SDK/GD32VW55x_RELEASE_V1.0.2/MSDK/lwip/lwip-2.1.2/src/api\tcpip.c ****   UNLOCK_TCPIP_CORE();
 655              		.loc 1 442 3 is_stmt 1
 656 001c 2685     		mv	a0,s1
 657 001e 0294     		jalr	s0
 658              	.LVL71:
 443:C:/Users/stapi/OneDrive/Desktop/GD32VW553/GD32VW55X_Wifi_BLE_SDK/GD32VW55x_RELEASE_V1.0.2/MSDK/lwip/lwip-2.1.2/src/api\tcpip.c ****   return ERR_OK;
 659              		.loc 1 443 3
 660 0020 13050900 		addi	a0,s2,%lo(.LANCHOR0)
 661 0024 97000000 		call	sys_mutex_put
 661      E7800000 
 662              	.LVL72:
 444:C:/Users/stapi/OneDrive/Desktop/GD32VW553/GD32VW55X_Wifi_BLE_SDK/GD32VW55x_RELEASE_V1.0.2/MSDK/lwip/lwip-2.1.2/src/api\tcpip.c **** #else /* LWIP_TCPIP_CORE_LOCKING */
 663              		.loc 1 444 3
 460:C:/Users/stapi/OneDrive/Desktop/GD32VW553/GD32VW55X_Wifi_BLE_SDK/GD32VW55x_RELEASE_V1.0.2/MSDK/lwip/lwip-2.1.2/src/api\tcpip.c **** 
 664              		.loc 1 460 1 is_stmt 0
 665 002c 0145     		li	a0,0
 666 002e 17030000 		tail	__riscv_restore_3
 666      67000300 
 667              		.cfi_restore 18
 668              		.cfi_restore 9
 669              		.cfi_restore 8
 670              		.cfi_restore 1
 671              		.cfi_def_cfa_offset 0
 672              		.cfi_endproc
 673              	.LFE10:
 675              		.section	.text.tcpip_api_call,"ax",@progbits
 676              		.align	1
 677              		.globl	tcpip_api_call
 679              	tcpip_api_call:
 680              	.LFB11:
 474:C:/Users/stapi/OneDrive/Desktop/GD32VW553/GD32VW55X_Wifi_BLE_SDK/GD32VW55x_RELEASE_V1.0.2/MSDK/lwip/lwip-2.1.2/src/api\tcpip.c **** #if LWIP_TCPIP_CORE_LOCKING
 681              		.loc 1 474 1 is_stmt 1
 682              		.cfi_startproc
 683              	.LVL73:
 684 0000 17030000 		call	t0,__riscv_save_3
 684      E7020300 
 685              		.cfi_offset 18, -16
 686              		.cfi_offset 9, -12
 687              		.cfi_offset 8, -8
 688              		.cfi_offset 1, -4
 689              		.cfi_def_cfa_offset 16
 476:C:/Users/stapi/OneDrive/Desktop/GD32VW553/GD32VW55X_Wifi_BLE_SDK/GD32VW55x_RELEASE_V1.0.2/MSDK/lwip/lwip-2.1.2/src/api\tcpip.c ****   LOCK_TCPIP_CORE();
 690              		.loc 1 476 3
 477:C:/Users/stapi/OneDrive/Desktop/GD32VW553/GD32VW55X_Wifi_BLE_SDK/GD32VW55x_RELEASE_V1.0.2/MSDK/lwip/lwip-2.1.2/src/api\tcpip.c ****   err = fn(call);
 691              		.loc 1 477 3
 692 0008 37090000 		lui	s2,%hi(.LANCHOR0)
 474:C:/Users/stapi/OneDrive/Desktop/GD32VW553/GD32VW55X_Wifi_BLE_SDK/GD32VW55x_RELEASE_V1.0.2/MSDK/lwip/lwip-2.1.2/src/api\tcpip.c **** #if LWIP_TCPIP_CORE_LOCKING
 693              		.loc 1 474 1 is_stmt 0
 694 000c 2A84     		mv	s0,a0
 477:C:/Users/stapi/OneDrive/Desktop/GD32VW553/GD32VW55X_Wifi_BLE_SDK/GD32VW55x_RELEASE_V1.0.2/MSDK/lwip/lwip-2.1.2/src/api\tcpip.c ****   err = fn(call);
 695              		.loc 1 477 3
 696 000e 13050900 		addi	a0,s2,%lo(.LANCHOR0)
 697              	.LVL74:
 474:C:/Users/stapi/OneDrive/Desktop/GD32VW553/GD32VW55X_Wifi_BLE_SDK/GD32VW55x_RELEASE_V1.0.2/MSDK/lwip/lwip-2.1.2/src/api\tcpip.c **** #if LWIP_TCPIP_CORE_LOCKING
 698              		.loc 1 474 1
 699 0012 AE84     		mv	s1,a1
 477:C:/Users/stapi/OneDrive/Desktop/GD32VW553/GD32VW55X_Wifi_BLE_SDK/GD32VW55x_RELEASE_V1.0.2/MSDK/lwip/lwip-2.1.2/src/api\tcpip.c ****   err = fn(call);
 700              		.loc 1 477 3
 701 0014 97000000 		call	sys_mutex_get
 701      E7800000 
 702              	.LVL75:
 478:C:/Users/stapi/OneDrive/Desktop/GD32VW553/GD32VW55X_Wifi_BLE_SDK/GD32VW55x_RELEASE_V1.0.2/MSDK/lwip/lwip-2.1.2/src/api\tcpip.c ****   UNLOCK_TCPIP_CORE();
 703              		.loc 1 478 3 is_stmt 1
 478:C:/Users/stapi/OneDrive/Desktop/GD32VW553/GD32VW55X_Wifi_BLE_SDK/GD32VW55x_RELEASE_V1.0.2/MSDK/lwip/lwip-2.1.2/src/api\tcpip.c ****   UNLOCK_TCPIP_CORE();
 704              		.loc 1 478 9 is_stmt 0
 705 001c 2685     		mv	a0,s1
 706 001e 0294     		jalr	s0
 707              	.LVL76:
 708 0020 2A84     		mv	s0,a0
 709              	.LVL77:
 479:C:/Users/stapi/OneDrive/Desktop/GD32VW553/GD32VW55X_Wifi_BLE_SDK/GD32VW55x_RELEASE_V1.0.2/MSDK/lwip/lwip-2.1.2/src/api\tcpip.c ****   return err;
 710              		.loc 1 479 3 is_stmt 1
 711 0022 13050900 		addi	a0,s2,%lo(.LANCHOR0)
 712 0026 97000000 		call	sys_mutex_put
 712      E7800000 
 713              	.LVL78:
 480:C:/Users/stapi/OneDrive/Desktop/GD32VW553/GD32VW55X_Wifi_BLE_SDK/GD32VW55x_RELEASE_V1.0.2/MSDK/lwip/lwip-2.1.2/src/api\tcpip.c **** #else /* LWIP_TCPIP_CORE_LOCKING */
 714              		.loc 1 480 3
 512:C:/Users/stapi/OneDrive/Desktop/GD32VW553/GD32VW55X_Wifi_BLE_SDK/GD32VW55x_RELEASE_V1.0.2/MSDK/lwip/lwip-2.1.2/src/api\tcpip.c **** 
 715              		.loc 1 512 1 is_stmt 0
 716 002e 2285     		mv	a0,s0
 717 0030 17030000 		tail	__riscv_restore_3
 717      67000300 
 718              		.cfi_restore 18
 719              		.cfi_restore 9
 720              		.cfi_restore 8
 721              		.cfi_restore 1
 722              		.cfi_def_cfa_offset 0
 723              		.cfi_endproc
 724              	.LFE11:
 726              		.section	.text.tcpip_callbackmsg_new,"ax",@progbits
 727              		.align	1
 728              		.globl	tcpip_callbackmsg_new
 730              	tcpip_callbackmsg_new:
 731              	.LFB12:
 532:C:/Users/stapi/OneDrive/Desktop/GD32VW553/GD32VW55X_Wifi_BLE_SDK/GD32VW55x_RELEASE_V1.0.2/MSDK/lwip/lwip-2.1.2/src/api\tcpip.c ****   struct tcpip_msg *msg = (struct tcpip_msg *)memp_malloc(MEMP_TCPIP_MSG_API);
 732              		.loc 1 532 1 is_stmt 1
 733              		.cfi_startproc
 734              	.LVL79:
 735 0000 17030000 		call	t0,__riscv_save_2
 735      E7020300 
 736              		.cfi_offset 9, -12
 737              		.cfi_offset 8, -8
 738              		.cfi_offset 1, -4
 739              		.cfi_def_cfa_offset 16
 533:C:/Users/stapi/OneDrive/Desktop/GD32VW553/GD32VW55X_Wifi_BLE_SDK/GD32VW55x_RELEASE_V1.0.2/MSDK/lwip/lwip-2.1.2/src/api\tcpip.c ****   if (msg == NULL) {
 740              		.loc 1 533 3
 532:C:/Users/stapi/OneDrive/Desktop/GD32VW553/GD32VW55X_Wifi_BLE_SDK/GD32VW55x_RELEASE_V1.0.2/MSDK/lwip/lwip-2.1.2/src/api\tcpip.c ****   struct tcpip_msg *msg = (struct tcpip_msg *)memp_malloc(MEMP_TCPIP_MSG_API);
 741              		.loc 1 532 1 is_stmt 0
 742 0008 AA84     		mv	s1,a0
 533:C:/Users/stapi/OneDrive/Desktop/GD32VW553/GD32VW55X_Wifi_BLE_SDK/GD32VW55x_RELEASE_V1.0.2/MSDK/lwip/lwip-2.1.2/src/api\tcpip.c ****   if (msg == NULL) {
 743              		.loc 1 533 47
 744 000a 2945     		li	a0,10
 745              	.LVL80:
 532:C:/Users/stapi/OneDrive/Desktop/GD32VW553/GD32VW55X_Wifi_BLE_SDK/GD32VW55x_RELEASE_V1.0.2/MSDK/lwip/lwip-2.1.2/src/api\tcpip.c ****   struct tcpip_msg *msg = (struct tcpip_msg *)memp_malloc(MEMP_TCPIP_MSG_API);
 746              		.loc 1 532 1
 747 000c 2E84     		mv	s0,a1
 533:C:/Users/stapi/OneDrive/Desktop/GD32VW553/GD32VW55X_Wifi_BLE_SDK/GD32VW55x_RELEASE_V1.0.2/MSDK/lwip/lwip-2.1.2/src/api\tcpip.c ****   if (msg == NULL) {
 748              		.loc 1 533 47
 749 000e 97000000 		call	memp_malloc
 749      E7800000 
 750              	.LVL81:
 534:C:/Users/stapi/OneDrive/Desktop/GD32VW553/GD32VW55X_Wifi_BLE_SDK/GD32VW55x_RELEASE_V1.0.2/MSDK/lwip/lwip-2.1.2/src/api\tcpip.c ****     return NULL;
 751              		.loc 1 534 3 is_stmt 1
 534:C:/Users/stapi/OneDrive/Desktop/GD32VW553/GD32VW55X_Wifi_BLE_SDK/GD32VW55x_RELEASE_V1.0.2/MSDK/lwip/lwip-2.1.2/src/api\tcpip.c ****     return NULL;
 752              		.loc 1 534 6 is_stmt 0
 753 0016 09C5     		beq	a0,zero,.L60
 537:C:/Users/stapi/OneDrive/Desktop/GD32VW553/GD32VW55X_Wifi_BLE_SDK/GD32VW55x_RELEASE_V1.0.2/MSDK/lwip/lwip-2.1.2/src/api\tcpip.c ****   msg->msg.cb.function = function;
 754              		.loc 1 537 3 is_stmt 1
 537:C:/Users/stapi/OneDrive/Desktop/GD32VW553/GD32VW55X_Wifi_BLE_SDK/GD32VW55x_RELEASE_V1.0.2/MSDK/lwip/lwip-2.1.2/src/api\tcpip.c ****   msg->msg.cb.function = function;
 755              		.loc 1 537 13 is_stmt 0
 756 0018 8947     		li	a5,2
 757 001a 1CC1     		sw	a5,0(a0)
 538:C:/Users/stapi/OneDrive/Desktop/GD32VW553/GD32VW55X_Wifi_BLE_SDK/GD32VW55x_RELEASE_V1.0.2/MSDK/lwip/lwip-2.1.2/src/api\tcpip.c ****   msg->msg.cb.ctx = ctx;
 758              		.loc 1 538 3 is_stmt 1
 538:C:/Users/stapi/OneDrive/Desktop/GD32VW553/GD32VW55X_Wifi_BLE_SDK/GD32VW55x_RELEASE_V1.0.2/MSDK/lwip/lwip-2.1.2/src/api\tcpip.c ****   msg->msg.cb.ctx = ctx;
 759              		.loc 1 538 24 is_stmt 0
 760 001c 44C1     		sw	s1,4(a0)
 539:C:/Users/stapi/OneDrive/Desktop/GD32VW553/GD32VW55X_Wifi_BLE_SDK/GD32VW55x_RELEASE_V1.0.2/MSDK/lwip/lwip-2.1.2/src/api\tcpip.c ****   return (struct tcpip_callback_msg *)msg;
 761              		.loc 1 539 3 is_stmt 1
 539:C:/Users/stapi/OneDrive/Desktop/GD32VW553/GD32VW55X_Wifi_BLE_SDK/GD32VW55x_RELEASE_V1.0.2/MSDK/lwip/lwip-2.1.2/src/api\tcpip.c ****   return (struct tcpip_callback_msg *)msg;
 762              		.loc 1 539 19 is_stmt 0
 763 001e 00C5     		sw	s0,8(a0)
 540:C:/Users/stapi/OneDrive/Desktop/GD32VW553/GD32VW55X_Wifi_BLE_SDK/GD32VW55x_RELEASE_V1.0.2/MSDK/lwip/lwip-2.1.2/src/api\tcpip.c **** }
 764              		.loc 1 540 3 is_stmt 1
 765              	.L60:
 541:C:/Users/stapi/OneDrive/Desktop/GD32VW553/GD32VW55X_Wifi_BLE_SDK/GD32VW55x_RELEASE_V1.0.2/MSDK/lwip/lwip-2.1.2/src/api\tcpip.c **** 
 766              		.loc 1 541 1 is_stmt 0
 767 0020 17030000 		tail	__riscv_restore_2
 767      67000300 
 768              		.cfi_restore 9
 769              		.cfi_restore 8
 770              		.cfi_restore 1
 771              		.cfi_def_cfa_offset 0
 772              		.cfi_endproc
 773              	.LFE12:
 775              		.section	.text.tcpip_callbackmsg_delete,"ax",@progbits
 776              		.align	1
 777              		.globl	tcpip_callbackmsg_delete
 779              	tcpip_callbackmsg_delete:
 780              	.LFB13:
 553:C:/Users/stapi/OneDrive/Desktop/GD32VW553/GD32VW55X_Wifi_BLE_SDK/GD32VW55x_RELEASE_V1.0.2/MSDK/lwip/lwip-2.1.2/src/api\tcpip.c ****   memp_free(MEMP_TCPIP_MSG_API, msg);
 781              		.loc 1 553 1 is_stmt 1
 782              		.cfi_startproc
 783              	.LVL82:
 554:C:/Users/stapi/OneDrive/Desktop/GD32VW553/GD32VW55X_Wifi_BLE_SDK/GD32VW55x_RELEASE_V1.0.2/MSDK/lwip/lwip-2.1.2/src/api\tcpip.c **** }
 784              		.loc 1 554 3
 553:C:/Users/stapi/OneDrive/Desktop/GD32VW553/GD32VW55X_Wifi_BLE_SDK/GD32VW55x_RELEASE_V1.0.2/MSDK/lwip/lwip-2.1.2/src/api\tcpip.c ****   memp_free(MEMP_TCPIP_MSG_API, msg);
 785              		.loc 1 553 1 is_stmt 0
 786 0000 AA85     		mv	a1,a0
 554:C:/Users/stapi/OneDrive/Desktop/GD32VW553/GD32VW55X_Wifi_BLE_SDK/GD32VW55x_RELEASE_V1.0.2/MSDK/lwip/lwip-2.1.2/src/api\tcpip.c **** }
 787              		.loc 1 554 3
 788 0002 2945     		li	a0,10
 789              	.LVL83:
 790 0004 17030000 		tail	memp_free
 790      67000300 
 791              	.LVL84:
 792              		.cfi_endproc
 793              	.LFE13:
 795              		.section	.text.tcpip_callbackmsg_trycallback,"ax",@progbits
 796              		.align	1
 797              		.globl	tcpip_callbackmsg_trycallback
 799              	tcpip_callbackmsg_trycallback:
 800              	.LFB14:
 568:C:/Users/stapi/OneDrive/Desktop/GD32VW553/GD32VW55X_Wifi_BLE_SDK/GD32VW55x_RELEASE_V1.0.2/MSDK/lwip/lwip-2.1.2/src/api\tcpip.c ****   LWIP_ASSERT("Invalid mbox", sys_mbox_valid_val(tcpip_mbox));
 801              		.loc 1 568 1 is_stmt 1
 802              		.cfi_startproc
 803              	.LVL85:
 804 0000 17030000 		call	t0,__riscv_save_0
 804      E7020300 
 805              		.cfi_offset 1, -4
 806              		.cfi_def_cfa_offset 16
 569:C:/Users/stapi/OneDrive/Desktop/GD32VW553/GD32VW55X_Wifi_BLE_SDK/GD32VW55x_RELEASE_V1.0.2/MSDK/lwip/lwip-2.1.2/src/api\tcpip.c ****   return sys_mbox_trypost(&tcpip_mbox, msg);
 807              		.loc 1 569 3
 569:C:/Users/stapi/OneDrive/Desktop/GD32VW553/GD32VW55X_Wifi_BLE_SDK/GD32VW55x_RELEASE_V1.0.2/MSDK/lwip/lwip-2.1.2/src/api\tcpip.c ****   return sys_mbox_trypost(&tcpip_mbox, msg);
 808              		.loc 1 569 3
 568:C:/Users/stapi/OneDrive/Desktop/GD32VW553/GD32VW55X_Wifi_BLE_SDK/GD32VW55x_RELEASE_V1.0.2/MSDK/lwip/lwip-2.1.2/src/api\tcpip.c ****   LWIP_ASSERT("Invalid mbox", sys_mbox_valid_val(tcpip_mbox));
 809              		.loc 1 568 1 is_stmt 0
 810 0008 AA85     		mv	a1,a0
 569:C:/Users/stapi/OneDrive/Desktop/GD32VW553/GD32VW55X_Wifi_BLE_SDK/GD32VW55x_RELEASE_V1.0.2/MSDK/lwip/lwip-2.1.2/src/api\tcpip.c ****   return sys_mbox_trypost(&tcpip_mbox, msg);
 811              		.loc 1 569 3
 812 000a 37050000 		lui	a0,%hi(.LANCHOR3)
 813              	.LVL86:
 814 000e 83270500 		lw	a5,%lo(.LANCHOR3)(a0)
 815 0012 85E7     		bne	a5,zero,.L69
 569:C:/Users/stapi/OneDrive/Desktop/GD32VW553/GD32VW55X_Wifi_BLE_SDK/GD32VW55x_RELEASE_V1.0.2/MSDK/lwip/lwip-2.1.2/src/api\tcpip.c ****   return sys_mbox_trypost(&tcpip_mbox, msg);
 816              		.loc 1 569 3 is_stmt 1 discriminator 1
 569:C:/Users/stapi/OneDrive/Desktop/GD32VW553/GD32VW55X_Wifi_BLE_SDK/GD32VW55x_RELEASE_V1.0.2/MSDK/lwip/lwip-2.1.2/src/api\tcpip.c ****   return sys_mbox_trypost(&tcpip_mbox, msg);
 817              		.loc 1 569 3 discriminator 1
 818 0014 B7060000 		lui	a3,%hi(.LC0)
 819 0018 B7050000 		lui	a1,%hi(.LC3)
 820              	.LVL87:
 821 001c 37050000 		lui	a0,%hi(.LC2)
 822 0020 93860600 		addi	a3,a3,%lo(.LC0)
 823 0024 13069023 		li	a2,569
 824 0028 93850500 		addi	a1,a1,%lo(.LC3)
 825 002c 13050500 		addi	a0,a0,%lo(.LC2)
 826 0030 97000000 		call	printf
 826      E7800000 
 827              	.LVL88:
 828              	.L70:
 569:C:/Users/stapi/OneDrive/Desktop/GD32VW553/GD32VW55X_Wifi_BLE_SDK/GD32VW55x_RELEASE_V1.0.2/MSDK/lwip/lwip-2.1.2/src/api\tcpip.c ****   return sys_mbox_trypost(&tcpip_mbox, msg);
 829              		.loc 1 569 3 discriminator 1
 569:C:/Users/stapi/OneDrive/Desktop/GD32VW553/GD32VW55X_Wifi_BLE_SDK/GD32VW55x_RELEASE_V1.0.2/MSDK/lwip/lwip-2.1.2/src/api\tcpip.c ****   return sys_mbox_trypost(&tcpip_mbox, msg);
 830              		.loc 1 569 3 discriminator 1
 569:C:/Users/stapi/OneDrive/Desktop/GD32VW553/GD32VW55X_Wifi_BLE_SDK/GD32VW55x_RELEASE_V1.0.2/MSDK/lwip/lwip-2.1.2/src/api\tcpip.c ****   return sys_mbox_trypost(&tcpip_mbox, msg);
 831              		.loc 1 569 3 discriminator 1
 832 0038 01A0     		j	.L70
 833              	.LVL89:
 834              	.L69:
 569:C:/Users/stapi/OneDrive/Desktop/GD32VW553/GD32VW55X_Wifi_BLE_SDK/GD32VW55x_RELEASE_V1.0.2/MSDK/lwip/lwip-2.1.2/src/api\tcpip.c ****   return sys_mbox_trypost(&tcpip_mbox, msg);
 835              		.loc 1 569 3 discriminator 2
 569:C:/Users/stapi/OneDrive/Desktop/GD32VW553/GD32VW55X_Wifi_BLE_SDK/GD32VW55x_RELEASE_V1.0.2/MSDK/lwip/lwip-2.1.2/src/api\tcpip.c ****   return sys_mbox_trypost(&tcpip_mbox, msg);
 836              		.loc 1 569 3 discriminator 2
 570:C:/Users/stapi/OneDrive/Desktop/GD32VW553/GD32VW55X_Wifi_BLE_SDK/GD32VW55x_RELEASE_V1.0.2/MSDK/lwip/lwip-2.1.2/src/api\tcpip.c **** }
 837              		.loc 1 570 3 discriminator 2
 570:C:/Users/stapi/OneDrive/Desktop/GD32VW553/GD32VW55X_Wifi_BLE_SDK/GD32VW55x_RELEASE_V1.0.2/MSDK/lwip/lwip-2.1.2/src/api\tcpip.c **** }
 838              		.loc 1 570 10 is_stmt 0 discriminator 2
 839 003a 13050500 		addi	a0,a0,%lo(.LANCHOR3)
 840 003e 97000000 		call	sys_mbox_trypost
 840      E7800000 
 841              	.LVL90:
 571:C:/Users/stapi/OneDrive/Desktop/GD32VW553/GD32VW55X_Wifi_BLE_SDK/GD32VW55x_RELEASE_V1.0.2/MSDK/lwip/lwip-2.1.2/src/api\tcpip.c **** 
 842              		.loc 1 571 1 discriminator 2
 843 0046 17030000 		tail	__riscv_restore_0
 843      67000300 
 844              		.cfi_restore 1
 845              		.cfi_def_cfa_offset 0
 846              		.cfi_endproc
 847              	.LFE14:
 849              		.section	.text.tcpip_callbackmsg_trycallback_fromisr,"ax",@progbits
 850              		.align	1
 851              		.globl	tcpip_callbackmsg_trycallback_fromisr
 853              	tcpip_callbackmsg_trycallback_fromisr:
 854              	.LFB15:
 587:C:/Users/stapi/OneDrive/Desktop/GD32VW553/GD32VW55X_Wifi_BLE_SDK/GD32VW55x_RELEASE_V1.0.2/MSDK/lwip/lwip-2.1.2/src/api\tcpip.c ****   LWIP_ASSERT("Invalid mbox", sys_mbox_valid_val(tcpip_mbox));
 855              		.loc 1 587 1 is_stmt 1
 856              		.cfi_startproc
 857              	.LVL91:
 858 0000 17030000 		call	t0,__riscv_save_0
 858      E7020300 
 859              		.cfi_offset 1, -4
 860              		.cfi_def_cfa_offset 16
 588:C:/Users/stapi/OneDrive/Desktop/GD32VW553/GD32VW55X_Wifi_BLE_SDK/GD32VW55x_RELEASE_V1.0.2/MSDK/lwip/lwip-2.1.2/src/api\tcpip.c ****   return sys_mbox_trypost_fromisr(&tcpip_mbox, msg);
 861              		.loc 1 588 3
 588:C:/Users/stapi/OneDrive/Desktop/GD32VW553/GD32VW55X_Wifi_BLE_SDK/GD32VW55x_RELEASE_V1.0.2/MSDK/lwip/lwip-2.1.2/src/api\tcpip.c ****   return sys_mbox_trypost_fromisr(&tcpip_mbox, msg);
 862              		.loc 1 588 3
 587:C:/Users/stapi/OneDrive/Desktop/GD32VW553/GD32VW55X_Wifi_BLE_SDK/GD32VW55x_RELEASE_V1.0.2/MSDK/lwip/lwip-2.1.2/src/api\tcpip.c ****   LWIP_ASSERT("Invalid mbox", sys_mbox_valid_val(tcpip_mbox));
 863              		.loc 1 587 1 is_stmt 0
 864 0008 AA85     		mv	a1,a0
 588:C:/Users/stapi/OneDrive/Desktop/GD32VW553/GD32VW55X_Wifi_BLE_SDK/GD32VW55x_RELEASE_V1.0.2/MSDK/lwip/lwip-2.1.2/src/api\tcpip.c ****   return sys_mbox_trypost_fromisr(&tcpip_mbox, msg);
 865              		.loc 1 588 3
 866 000a 37050000 		lui	a0,%hi(.LANCHOR3)
 867              	.LVL92:
 868 000e 83270500 		lw	a5,%lo(.LANCHOR3)(a0)
 869 0012 85E7     		bne	a5,zero,.L73
 588:C:/Users/stapi/OneDrive/Desktop/GD32VW553/GD32VW55X_Wifi_BLE_SDK/GD32VW55x_RELEASE_V1.0.2/MSDK/lwip/lwip-2.1.2/src/api\tcpip.c ****   return sys_mbox_trypost_fromisr(&tcpip_mbox, msg);
 870              		.loc 1 588 3 is_stmt 1 discriminator 1
 588:C:/Users/stapi/OneDrive/Desktop/GD32VW553/GD32VW55X_Wifi_BLE_SDK/GD32VW55x_RELEASE_V1.0.2/MSDK/lwip/lwip-2.1.2/src/api\tcpip.c ****   return sys_mbox_trypost_fromisr(&tcpip_mbox, msg);
 871              		.loc 1 588 3 discriminator 1
 872 0014 B7060000 		lui	a3,%hi(.LC0)
 873 0018 B7050000 		lui	a1,%hi(.LC3)
 874              	.LVL93:
 875 001c 37050000 		lui	a0,%hi(.LC2)
 876 0020 93860600 		addi	a3,a3,%lo(.LC0)
 877 0024 1306C024 		li	a2,588
 878 0028 93850500 		addi	a1,a1,%lo(.LC3)
 879 002c 13050500 		addi	a0,a0,%lo(.LC2)
 880 0030 97000000 		call	printf
 880      E7800000 
 881              	.LVL94:
 882              	.L74:
 588:C:/Users/stapi/OneDrive/Desktop/GD32VW553/GD32VW55X_Wifi_BLE_SDK/GD32VW55x_RELEASE_V1.0.2/MSDK/lwip/lwip-2.1.2/src/api\tcpip.c ****   return sys_mbox_trypost_fromisr(&tcpip_mbox, msg);
 883              		.loc 1 588 3 discriminator 1
 588:C:/Users/stapi/OneDrive/Desktop/GD32VW553/GD32VW55X_Wifi_BLE_SDK/GD32VW55x_RELEASE_V1.0.2/MSDK/lwip/lwip-2.1.2/src/api\tcpip.c ****   return sys_mbox_trypost_fromisr(&tcpip_mbox, msg);
 884              		.loc 1 588 3 discriminator 1
 588:C:/Users/stapi/OneDrive/Desktop/GD32VW553/GD32VW55X_Wifi_BLE_SDK/GD32VW55x_RELEASE_V1.0.2/MSDK/lwip/lwip-2.1.2/src/api\tcpip.c ****   return sys_mbox_trypost_fromisr(&tcpip_mbox, msg);
 885              		.loc 1 588 3 discriminator 1
 886 0038 01A0     		j	.L74
 887              	.LVL95:
 888              	.L73:
 588:C:/Users/stapi/OneDrive/Desktop/GD32VW553/GD32VW55X_Wifi_BLE_SDK/GD32VW55x_RELEASE_V1.0.2/MSDK/lwip/lwip-2.1.2/src/api\tcpip.c ****   return sys_mbox_trypost_fromisr(&tcpip_mbox, msg);
 889              		.loc 1 588 3 discriminator 2
 588:C:/Users/stapi/OneDrive/Desktop/GD32VW553/GD32VW55X_Wifi_BLE_SDK/GD32VW55x_RELEASE_V1.0.2/MSDK/lwip/lwip-2.1.2/src/api\tcpip.c ****   return sys_mbox_trypost_fromisr(&tcpip_mbox, msg);
 890              		.loc 1 588 3 discriminator 2
 589:C:/Users/stapi/OneDrive/Desktop/GD32VW553/GD32VW55X_Wifi_BLE_SDK/GD32VW55x_RELEASE_V1.0.2/MSDK/lwip/lwip-2.1.2/src/api\tcpip.c **** }
 891              		.loc 1 589 3 discriminator 2
 589:C:/Users/stapi/OneDrive/Desktop/GD32VW553/GD32VW55X_Wifi_BLE_SDK/GD32VW55x_RELEASE_V1.0.2/MSDK/lwip/lwip-2.1.2/src/api\tcpip.c **** }
 892              		.loc 1 589 10 is_stmt 0 discriminator 2
 893 003a 13050500 		addi	a0,a0,%lo(.LANCHOR3)
 894 003e 97000000 		call	sys_mbox_trypost_fromisr
 894      E7800000 
 895              	.LVL96:
 590:C:/Users/stapi/OneDrive/Desktop/GD32VW553/GD32VW55X_Wifi_BLE_SDK/GD32VW55x_RELEASE_V1.0.2/MSDK/lwip/lwip-2.1.2/src/api\tcpip.c **** 
 896              		.loc 1 590 1 discriminator 2
 897 0046 17030000 		tail	__riscv_restore_0
 897      67000300 
 898              		.cfi_restore 1
 899              		.cfi_def_cfa_offset 0
 900              		.cfi_endproc
 901              	.LFE15:
 903              		.section	.rodata.tcpip_init.str1.4,"aMS",@progbits,1
 904              		.align	2
 905              	.LC4:
 906 0000 6661696C 		.string	"failed to create tcpip_thread mbox"
 906      65642074 
 906      6F206372 
 906      65617465 
 906      20746370 
 907 0023 00       		.align	2
 908              	.LC5:
 909 0024 6661696C 		.string	"failed to create lock_tcpip_core"
 909      65642074 
 909      6F206372 
 909      65617465 
 909      206C6F63 
 910 0045 000000   		.align	2
 911              	.LC6:
 912 0048 74637069 		.string	"tcpip_thread"
 912      705F7468 
 912      72656164 
 912      00
 913              		.section	.text.tcpip_init,"ax",@progbits
 914              		.align	1
 915              		.globl	tcpip_init
 917              	tcpip_init:
 918              	.LFB16:
 603:C:/Users/stapi/OneDrive/Desktop/GD32VW553/GD32VW55X_Wifi_BLE_SDK/GD32VW55x_RELEASE_V1.0.2/MSDK/lwip/lwip-2.1.2/src/api\tcpip.c ****   lwip_init();
 919              		.loc 1 603 1 is_stmt 1
 920              		.cfi_startproc
 921              	.LVL97:
 922 0000 17030000 		call	t0,__riscv_save_2
 922      E7020300 
 923              		.cfi_offset 9, -12
 924              		.cfi_offset 8, -8
 925              		.cfi_offset 1, -4
 926              		.cfi_def_cfa_offset 16
 604:C:/Users/stapi/OneDrive/Desktop/GD32VW553/GD32VW55X_Wifi_BLE_SDK/GD32VW55x_RELEASE_V1.0.2/MSDK/lwip/lwip-2.1.2/src/api\tcpip.c **** 
 927              		.loc 1 604 3
 603:C:/Users/stapi/OneDrive/Desktop/GD32VW553/GD32VW55X_Wifi_BLE_SDK/GD32VW55x_RELEASE_V1.0.2/MSDK/lwip/lwip-2.1.2/src/api\tcpip.c ****   lwip_init();
 928              		.loc 1 603 1 is_stmt 0
 929 0008 AA84     		mv	s1,a0
 930 000a 2E84     		mv	s0,a1
 604:C:/Users/stapi/OneDrive/Desktop/GD32VW553/GD32VW55X_Wifi_BLE_SDK/GD32VW55x_RELEASE_V1.0.2/MSDK/lwip/lwip-2.1.2/src/api\tcpip.c **** 
 931              		.loc 1 604 3
 932 000c 97000000 		call	lwip_init
 932      E7800000 
 933              	.LVL98:
 606:C:/Users/stapi/OneDrive/Desktop/GD32VW553/GD32VW55X_Wifi_BLE_SDK/GD32VW55x_RELEASE_V1.0.2/MSDK/lwip/lwip-2.1.2/src/api\tcpip.c ****   tcpip_init_done_arg = arg;
 934              		.loc 1 606 3 is_stmt 1
 606:C:/Users/stapi/OneDrive/Desktop/GD32VW553/GD32VW55X_Wifi_BLE_SDK/GD32VW55x_RELEASE_V1.0.2/MSDK/lwip/lwip-2.1.2/src/api\tcpip.c ****   tcpip_init_done_arg = arg;
 935              		.loc 1 606 19 is_stmt 0
 936 0014 B7070000 		lui	a5,%hi(.LANCHOR1)
 608:C:/Users/stapi/OneDrive/Desktop/GD32VW553/GD32VW55X_Wifi_BLE_SDK/GD32VW55x_RELEASE_V1.0.2/MSDK/lwip/lwip-2.1.2/src/api\tcpip.c ****     LWIP_ASSERT("failed to create tcpip_thread mbox", 0);
 937              		.loc 1 608 7
 938 0018 37050000 		lui	a0,%hi(.LANCHOR3)
 606:C:/Users/stapi/OneDrive/Desktop/GD32VW553/GD32VW55X_Wifi_BLE_SDK/GD32VW55x_RELEASE_V1.0.2/MSDK/lwip/lwip-2.1.2/src/api\tcpip.c ****   tcpip_init_done_arg = arg;
 939              		.loc 1 606 19
 940 001c 23A09700 		sw	s1,%lo(.LANCHOR1)(a5)
 607:C:/Users/stapi/OneDrive/Desktop/GD32VW553/GD32VW55X_Wifi_BLE_SDK/GD32VW55x_RELEASE_V1.0.2/MSDK/lwip/lwip-2.1.2/src/api\tcpip.c ****   if (sys_mbox_new(&tcpip_mbox, TCPIP_MBOX_SIZE) != ERR_OK) {
 941              		.loc 1 607 3 is_stmt 1
 608:C:/Users/stapi/OneDrive/Desktop/GD32VW553/GD32VW55X_Wifi_BLE_SDK/GD32VW55x_RELEASE_V1.0.2/MSDK/lwip/lwip-2.1.2/src/api\tcpip.c ****     LWIP_ASSERT("failed to create tcpip_thread mbox", 0);
 942              		.loc 1 608 7 is_stmt 0
 943 0020 A945     		li	a1,10
 607:C:/Users/stapi/OneDrive/Desktop/GD32VW553/GD32VW55X_Wifi_BLE_SDK/GD32VW55x_RELEASE_V1.0.2/MSDK/lwip/lwip-2.1.2/src/api\tcpip.c ****   if (sys_mbox_new(&tcpip_mbox, TCPIP_MBOX_SIZE) != ERR_OK) {
 944              		.loc 1 607 23
 945 0022 B7070000 		lui	a5,%hi(.LANCHOR2)
 608:C:/Users/stapi/OneDrive/Desktop/GD32VW553/GD32VW55X_Wifi_BLE_SDK/GD32VW55x_RELEASE_V1.0.2/MSDK/lwip/lwip-2.1.2/src/api\tcpip.c ****     LWIP_ASSERT("failed to create tcpip_thread mbox", 0);
 946              		.loc 1 608 7
 947 0026 13050500 		addi	a0,a0,%lo(.LANCHOR3)
 607:C:/Users/stapi/OneDrive/Desktop/GD32VW553/GD32VW55X_Wifi_BLE_SDK/GD32VW55x_RELEASE_V1.0.2/MSDK/lwip/lwip-2.1.2/src/api\tcpip.c ****   if (sys_mbox_new(&tcpip_mbox, TCPIP_MBOX_SIZE) != ERR_OK) {
 948              		.loc 1 607 23
 949 002a 23A08700 		sw	s0,%lo(.LANCHOR2)(a5)
 608:C:/Users/stapi/OneDrive/Desktop/GD32VW553/GD32VW55X_Wifi_BLE_SDK/GD32VW55x_RELEASE_V1.0.2/MSDK/lwip/lwip-2.1.2/src/api\tcpip.c ****     LWIP_ASSERT("failed to create tcpip_thread mbox", 0);
 950              		.loc 1 608 3 is_stmt 1
 608:C:/Users/stapi/OneDrive/Desktop/GD32VW553/GD32VW55X_Wifi_BLE_SDK/GD32VW55x_RELEASE_V1.0.2/MSDK/lwip/lwip-2.1.2/src/api\tcpip.c ****     LWIP_ASSERT("failed to create tcpip_thread mbox", 0);
 951              		.loc 1 608 7 is_stmt 0
 952 002e 97000000 		call	sys_mbox_new
 952      E7800000 
 953              	.LVL99:
 608:C:/Users/stapi/OneDrive/Desktop/GD32VW553/GD32VW55X_Wifi_BLE_SDK/GD32VW55x_RELEASE_V1.0.2/MSDK/lwip/lwip-2.1.2/src/api\tcpip.c ****     LWIP_ASSERT("failed to create tcpip_thread mbox", 0);
 954              		.loc 1 608 6
 955 0036 05C5     		beq	a0,zero,.L77
 609:C:/Users/stapi/OneDrive/Desktop/GD32VW553/GD32VW55X_Wifi_BLE_SDK/GD32VW55x_RELEASE_V1.0.2/MSDK/lwip/lwip-2.1.2/src/api\tcpip.c ****   }
 956              		.loc 1 609 5 is_stmt 1 discriminator 1
 609:C:/Users/stapi/OneDrive/Desktop/GD32VW553/GD32VW55X_Wifi_BLE_SDK/GD32VW55x_RELEASE_V1.0.2/MSDK/lwip/lwip-2.1.2/src/api\tcpip.c ****   }
 957              		.loc 1 609 5 discriminator 1
 609:C:/Users/stapi/OneDrive/Desktop/GD32VW553/GD32VW55X_Wifi_BLE_SDK/GD32VW55x_RELEASE_V1.0.2/MSDK/lwip/lwip-2.1.2/src/api\tcpip.c ****   }
 958              		.loc 1 609 5 discriminator 1
 609:C:/Users/stapi/OneDrive/Desktop/GD32VW553/GD32VW55X_Wifi_BLE_SDK/GD32VW55x_RELEASE_V1.0.2/MSDK/lwip/lwip-2.1.2/src/api\tcpip.c ****   }
 959              		.loc 1 609 5 discriminator 1
 960 0038 B7060000 		lui	a3,%hi(.LC0)
 961 003c B7050000 		lui	a1,%hi(.LC4)
 962 0040 37050000 		lui	a0,%hi(.LC2)
 963 0044 93860600 		addi	a3,a3,%lo(.LC0)
 964 0048 13061026 		li	a2,609
 965 004c 93850500 		addi	a1,a1,%lo(.LC4)
 966 0050 13050500 		addi	a0,a0,%lo(.LC2)
 967 0054 97000000 		call	printf
 967      E7800000 
 968              	.LVL100:
 969              	.L78:
 609:C:/Users/stapi/OneDrive/Desktop/GD32VW553/GD32VW55X_Wifi_BLE_SDK/GD32VW55x_RELEASE_V1.0.2/MSDK/lwip/lwip-2.1.2/src/api\tcpip.c ****   }
 970              		.loc 1 609 5 discriminator 1
 609:C:/Users/stapi/OneDrive/Desktop/GD32VW553/GD32VW55X_Wifi_BLE_SDK/GD32VW55x_RELEASE_V1.0.2/MSDK/lwip/lwip-2.1.2/src/api\tcpip.c ****   }
 971              		.loc 1 609 5 discriminator 1
 609:C:/Users/stapi/OneDrive/Desktop/GD32VW553/GD32VW55X_Wifi_BLE_SDK/GD32VW55x_RELEASE_V1.0.2/MSDK/lwip/lwip-2.1.2/src/api\tcpip.c ****   }
 972              		.loc 1 609 5 discriminator 1
 973 005c 01A0     		j	.L78
 974              	.L77:
 609:C:/Users/stapi/OneDrive/Desktop/GD32VW553/GD32VW55X_Wifi_BLE_SDK/GD32VW55x_RELEASE_V1.0.2/MSDK/lwip/lwip-2.1.2/src/api\tcpip.c ****   }
 975              		.loc 1 609 5 discriminator 2
 609:C:/Users/stapi/OneDrive/Desktop/GD32VW553/GD32VW55X_Wifi_BLE_SDK/GD32VW55x_RELEASE_V1.0.2/MSDK/lwip/lwip-2.1.2/src/api\tcpip.c ****   }
 976              		.loc 1 609 5 discriminator 2
 612:C:/Users/stapi/OneDrive/Desktop/GD32VW553/GD32VW55X_Wifi_BLE_SDK/GD32VW55x_RELEASE_V1.0.2/MSDK/lwip/lwip-2.1.2/src/api\tcpip.c ****     LWIP_ASSERT("failed to create lock_tcpip_core", 0);
 977              		.loc 1 612 3 discriminator 2
 612:C:/Users/stapi/OneDrive/Desktop/GD32VW553/GD32VW55X_Wifi_BLE_SDK/GD32VW55x_RELEASE_V1.0.2/MSDK/lwip/lwip-2.1.2/src/api\tcpip.c ****     LWIP_ASSERT("failed to create lock_tcpip_core", 0);
 978              		.loc 1 612 7 is_stmt 0 discriminator 2
 979 005e 37050000 		lui	a0,%hi(.LANCHOR0)
 980 0062 13050500 		addi	a0,a0,%lo(.LANCHOR0)
 981 0066 97000000 		call	sys_mutex_init
 981      E7800000 
 982              	.LVL101:
 612:C:/Users/stapi/OneDrive/Desktop/GD32VW553/GD32VW55X_Wifi_BLE_SDK/GD32VW55x_RELEASE_V1.0.2/MSDK/lwip/lwip-2.1.2/src/api\tcpip.c ****     LWIP_ASSERT("failed to create lock_tcpip_core", 0);
 983              		.loc 1 612 6 discriminator 2
 984 006e 05C5     		beq	a0,zero,.L79
 613:C:/Users/stapi/OneDrive/Desktop/GD32VW553/GD32VW55X_Wifi_BLE_SDK/GD32VW55x_RELEASE_V1.0.2/MSDK/lwip/lwip-2.1.2/src/api\tcpip.c ****   }
 985              		.loc 1 613 5 is_stmt 1 discriminator 1
 613:C:/Users/stapi/OneDrive/Desktop/GD32VW553/GD32VW55X_Wifi_BLE_SDK/GD32VW55x_RELEASE_V1.0.2/MSDK/lwip/lwip-2.1.2/src/api\tcpip.c ****   }
 986              		.loc 1 613 5 discriminator 1
 613:C:/Users/stapi/OneDrive/Desktop/GD32VW553/GD32VW55X_Wifi_BLE_SDK/GD32VW55x_RELEASE_V1.0.2/MSDK/lwip/lwip-2.1.2/src/api\tcpip.c ****   }
 987              		.loc 1 613 5 discriminator 1
 613:C:/Users/stapi/OneDrive/Desktop/GD32VW553/GD32VW55X_Wifi_BLE_SDK/GD32VW55x_RELEASE_V1.0.2/MSDK/lwip/lwip-2.1.2/src/api\tcpip.c ****   }
 988              		.loc 1 613 5 discriminator 1
 989 0070 B7060000 		lui	a3,%hi(.LC0)
 990 0074 B7050000 		lui	a1,%hi(.LC5)
 991 0078 37050000 		lui	a0,%hi(.LC2)
 992 007c 93860600 		addi	a3,a3,%lo(.LC0)
 993 0080 13065026 		li	a2,613
 994 0084 93850500 		addi	a1,a1,%lo(.LC5)
 995 0088 13050500 		addi	a0,a0,%lo(.LC2)
 996 008c 97000000 		call	printf
 996      E7800000 
 997              	.LVL102:
 998              	.L80:
 613:C:/Users/stapi/OneDrive/Desktop/GD32VW553/GD32VW55X_Wifi_BLE_SDK/GD32VW55x_RELEASE_V1.0.2/MSDK/lwip/lwip-2.1.2/src/api\tcpip.c ****   }
 999              		.loc 1 613 5 discriminator 2
 613:C:/Users/stapi/OneDrive/Desktop/GD32VW553/GD32VW55X_Wifi_BLE_SDK/GD32VW55x_RELEASE_V1.0.2/MSDK/lwip/lwip-2.1.2/src/api\tcpip.c ****   }
 1000              		.loc 1 613 5 discriminator 2
 613:C:/Users/stapi/OneDrive/Desktop/GD32VW553/GD32VW55X_Wifi_BLE_SDK/GD32VW55x_RELEASE_V1.0.2/MSDK/lwip/lwip-2.1.2/src/api\tcpip.c ****   }
 1001              		.loc 1 613 5 discriminator 2
 1002 0094 01A0     		j	.L80
 1003              	.L79:
 613:C:/Users/stapi/OneDrive/Desktop/GD32VW553/GD32VW55X_Wifi_BLE_SDK/GD32VW55x_RELEASE_V1.0.2/MSDK/lwip/lwip-2.1.2/src/api\tcpip.c ****   }
 1004              		.loc 1 613 5 discriminator 2
 613:C:/Users/stapi/OneDrive/Desktop/GD32VW553/GD32VW55X_Wifi_BLE_SDK/GD32VW55x_RELEASE_V1.0.2/MSDK/lwip/lwip-2.1.2/src/api\tcpip.c ****   }
 1005              		.loc 1 613 5 discriminator 2
 617:C:/Users/stapi/OneDrive/Desktop/GD32VW553/GD32VW55X_Wifi_BLE_SDK/GD32VW55x_RELEASE_V1.0.2/MSDK/lwip/lwip-2.1.2/src/api\tcpip.c **** }
 1006              		.loc 1 617 3 discriminator 2
 1007 0096 B7050000 		lui	a1,%hi(tcpip_thread)
 1008 009a 37050000 		lui	a0,%hi(.LC6)
 1009 009e 4947     		li	a4,18
 1010 00a0 93060040 		li	a3,1024
 1011 00a4 0146     		li	a2,0
 1012 00a6 93850500 		addi	a1,a1,%lo(tcpip_thread)
 1013 00aa 13050500 		addi	a0,a0,%lo(.LC6)
 1014 00ae 97000000 		call	sys_thread_new
 1014      E7800000 
 1015              	.LVL103:
 618:C:/Users/stapi/OneDrive/Desktop/GD32VW553/GD32VW55X_Wifi_BLE_SDK/GD32VW55x_RELEASE_V1.0.2/MSDK/lwip/lwip-2.1.2/src/api\tcpip.c **** 
 1016              		.loc 1 618 1 is_stmt 0 discriminator 2
 1017 00b6 17030000 		tail	__riscv_restore_2
 1017      67000300 
 1018              		.cfi_restore 9
 1019              		.cfi_restore 8
 1020              		.cfi_restore 1
 1021              		.cfi_def_cfa_offset 0
 1022              		.cfi_endproc
 1023              	.LFE16:
 1025              		.section	.text.pbuf_free_callback,"ax",@progbits
 1026              		.align	1
 1027              		.globl	pbuf_free_callback
 1029              	pbuf_free_callback:
 1030              	.LFB18:
 631:C:/Users/stapi/OneDrive/Desktop/GD32VW553/GD32VW55X_Wifi_BLE_SDK/GD32VW55x_RELEASE_V1.0.2/MSDK/lwip/lwip-2.1.2/src/api\tcpip.c **** }
 632:C:/Users/stapi/OneDrive/Desktop/GD32VW553/GD32VW55X_Wifi_BLE_SDK/GD32VW55x_RELEASE_V1.0.2/MSDK/lwip/lwip-2.1.2/src/api\tcpip.c **** 
 633:C:/Users/stapi/OneDrive/Desktop/GD32VW553/GD32VW55X_Wifi_BLE_SDK/GD32VW55x_RELEASE_V1.0.2/MSDK/lwip/lwip-2.1.2/src/api\tcpip.c **** /**
 634:C:/Users/stapi/OneDrive/Desktop/GD32VW553/GD32VW55X_Wifi_BLE_SDK/GD32VW55x_RELEASE_V1.0.2/MSDK/lwip/lwip-2.1.2/src/api\tcpip.c ****  * A simple wrapper function that allows you to free a pbuf from interrupt context.
 635:C:/Users/stapi/OneDrive/Desktop/GD32VW553/GD32VW55X_Wifi_BLE_SDK/GD32VW55x_RELEASE_V1.0.2/MSDK/lwip/lwip-2.1.2/src/api\tcpip.c ****  *
 636:C:/Users/stapi/OneDrive/Desktop/GD32VW553/GD32VW55X_Wifi_BLE_SDK/GD32VW55x_RELEASE_V1.0.2/MSDK/lwip/lwip-2.1.2/src/api\tcpip.c ****  * @param p The pbuf (chain) to be dereferenced.
 637:C:/Users/stapi/OneDrive/Desktop/GD32VW553/GD32VW55X_Wifi_BLE_SDK/GD32VW55x_RELEASE_V1.0.2/MSDK/lwip/lwip-2.1.2/src/api\tcpip.c ****  * @return ERR_OK if callback could be enqueued, an err_t if not
 638:C:/Users/stapi/OneDrive/Desktop/GD32VW553/GD32VW55X_Wifi_BLE_SDK/GD32VW55x_RELEASE_V1.0.2/MSDK/lwip/lwip-2.1.2/src/api\tcpip.c ****  */
 639:C:/Users/stapi/OneDrive/Desktop/GD32VW553/GD32VW55X_Wifi_BLE_SDK/GD32VW55x_RELEASE_V1.0.2/MSDK/lwip/lwip-2.1.2/src/api\tcpip.c **** err_t
 640:C:/Users/stapi/OneDrive/Desktop/GD32VW553/GD32VW55X_Wifi_BLE_SDK/GD32VW55x_RELEASE_V1.0.2/MSDK/lwip/lwip-2.1.2/src/api\tcpip.c **** pbuf_free_callback(struct pbuf *p)
 641:C:/Users/stapi/OneDrive/Desktop/GD32VW553/GD32VW55X_Wifi_BLE_SDK/GD32VW55x_RELEASE_V1.0.2/MSDK/lwip/lwip-2.1.2/src/api\tcpip.c **** {
 1031              		.loc 1 641 1 is_stmt 1
 1032              		.cfi_startproc
 1033              	.LVL104:
 642:C:/Users/stapi/OneDrive/Desktop/GD32VW553/GD32VW55X_Wifi_BLE_SDK/GD32VW55x_RELEASE_V1.0.2/MSDK/lwip/lwip-2.1.2/src/api\tcpip.c ****   return tcpip_try_callback(pbuf_free_int, p);
 1034              		.loc 1 642 3
 641:C:/Users/stapi/OneDrive/Desktop/GD32VW553/GD32VW55X_Wifi_BLE_SDK/GD32VW55x_RELEASE_V1.0.2/MSDK/lwip/lwip-2.1.2/src/api\tcpip.c ****   return tcpip_try_callback(pbuf_free_int, p);
 1035              		.loc 1 641 1 is_stmt 0
 1036 0000 AA85     		mv	a1,a0
 1037              		.loc 1 642 10
 1038 0002 37050000 		lui	a0,%hi(pbuf_free_int)
 1039              	.LVL105:
 1040 0006 13050500 		addi	a0,a0,%lo(pbuf_free_int)
 1041 000a 17030000 		tail	tcpip_try_callback
 1041      67000300 
 1042              	.LVL106:
 1043              		.cfi_endproc
 1044              	.LFE18:
 1046              		.section	.text.mem_free_callback,"ax",@progbits
 1047              		.align	1
 1048              		.globl	mem_free_callback
 1050              	mem_free_callback:
 1051              	.LFB19:
 643:C:/Users/stapi/OneDrive/Desktop/GD32VW553/GD32VW55X_Wifi_BLE_SDK/GD32VW55x_RELEASE_V1.0.2/MSDK/lwip/lwip-2.1.2/src/api\tcpip.c **** }
 644:C:/Users/stapi/OneDrive/Desktop/GD32VW553/GD32VW55X_Wifi_BLE_SDK/GD32VW55x_RELEASE_V1.0.2/MSDK/lwip/lwip-2.1.2/src/api\tcpip.c **** 
 645:C:/Users/stapi/OneDrive/Desktop/GD32VW553/GD32VW55X_Wifi_BLE_SDK/GD32VW55x_RELEASE_V1.0.2/MSDK/lwip/lwip-2.1.2/src/api\tcpip.c **** /**
 646:C:/Users/stapi/OneDrive/Desktop/GD32VW553/GD32VW55X_Wifi_BLE_SDK/GD32VW55x_RELEASE_V1.0.2/MSDK/lwip/lwip-2.1.2/src/api\tcpip.c ****  * A simple wrapper function that allows you to free heap memory from
 647:C:/Users/stapi/OneDrive/Desktop/GD32VW553/GD32VW55X_Wifi_BLE_SDK/GD32VW55x_RELEASE_V1.0.2/MSDK/lwip/lwip-2.1.2/src/api\tcpip.c ****  * interrupt context.
 648:C:/Users/stapi/OneDrive/Desktop/GD32VW553/GD32VW55X_Wifi_BLE_SDK/GD32VW55x_RELEASE_V1.0.2/MSDK/lwip/lwip-2.1.2/src/api\tcpip.c ****  *
 649:C:/Users/stapi/OneDrive/Desktop/GD32VW553/GD32VW55X_Wifi_BLE_SDK/GD32VW55x_RELEASE_V1.0.2/MSDK/lwip/lwip-2.1.2/src/api\tcpip.c ****  * @param m the heap memory to free
 650:C:/Users/stapi/OneDrive/Desktop/GD32VW553/GD32VW55X_Wifi_BLE_SDK/GD32VW55x_RELEASE_V1.0.2/MSDK/lwip/lwip-2.1.2/src/api\tcpip.c ****  * @return ERR_OK if callback could be enqueued, an err_t if not
 651:C:/Users/stapi/OneDrive/Desktop/GD32VW553/GD32VW55X_Wifi_BLE_SDK/GD32VW55x_RELEASE_V1.0.2/MSDK/lwip/lwip-2.1.2/src/api\tcpip.c ****  */
 652:C:/Users/stapi/OneDrive/Desktop/GD32VW553/GD32VW55X_Wifi_BLE_SDK/GD32VW55x_RELEASE_V1.0.2/MSDK/lwip/lwip-2.1.2/src/api\tcpip.c **** err_t
 653:C:/Users/stapi/OneDrive/Desktop/GD32VW553/GD32VW55X_Wifi_BLE_SDK/GD32VW55x_RELEASE_V1.0.2/MSDK/lwip/lwip-2.1.2/src/api\tcpip.c **** mem_free_callback(void *m)
 654:C:/Users/stapi/OneDrive/Desktop/GD32VW553/GD32VW55X_Wifi_BLE_SDK/GD32VW55x_RELEASE_V1.0.2/MSDK/lwip/lwip-2.1.2/src/api\tcpip.c **** {
 1052              		.loc 1 654 1 is_stmt 1
 1053              		.cfi_startproc
 1054              	.LVL107:
 655:C:/Users/stapi/OneDrive/Desktop/GD32VW553/GD32VW55X_Wifi_BLE_SDK/GD32VW55x_RELEASE_V1.0.2/MSDK/lwip/lwip-2.1.2/src/api\tcpip.c ****   return tcpip_try_callback(mem_free, m);
 1055              		.loc 1 655 3
 654:C:/Users/stapi/OneDrive/Desktop/GD32VW553/GD32VW55X_Wifi_BLE_SDK/GD32VW55x_RELEASE_V1.0.2/MSDK/lwip/lwip-2.1.2/src/api\tcpip.c ****   return tcpip_try_callback(mem_free, m);
 1056              		.loc 1 654 1 is_stmt 0
 1057 0000 AA85     		mv	a1,a0
 1058              		.loc 1 655 10
 1059 0002 37050000 		lui	a0,%hi(mem_free)
 1060              	.LVL108:
 1061 0006 13050500 		addi	a0,a0,%lo(mem_free)
 1062 000a 17030000 		tail	tcpip_try_callback
 1062      67000300 
 1063              	.LVL109:
 1064              		.cfi_endproc
 1065              	.LFE19:
 1067              		.globl	lock_tcpip_core
 1068              		.section	.sbss.lock_tcpip_core,"aw",@nobits
 1069              		.align	2
 1070              		.set	.LANCHOR0,. + 0
 1073              	lock_tcpip_core:
 1074 0000 00000000 		.zero	4
 1075              		.section	.sbss.tcpip_init_done,"aw",@nobits
 1076              		.align	2
 1077              		.set	.LANCHOR1,. + 0
 1080              	tcpip_init_done:
 1081 0000 00000000 		.zero	4
 1082              		.section	.sbss.tcpip_init_done_arg,"aw",@nobits
 1083              		.align	2
 1084              		.set	.LANCHOR2,. + 0
 1087              	tcpip_init_done_arg:
 1088 0000 00000000 		.zero	4
 1089              		.section	.sbss.tcpip_mbox,"aw",@nobits
 1090              		.align	2
 1091              		.set	.LANCHOR3,. + 0
 1094              	tcpip_mbox:
 1095 0000 00000000 		.zero	4
 1096              		.text
 1097              	.Letext0:
 1098              		.file 2 "c:\\users\\stapi\\onedrive\\desktop\\gd32vw553\\embeddedbuilder_v1.4.7.26843\\tools\\nucl
 1099              		.file 3 "c:\\users\\stapi\\onedrive\\desktop\\gd32vw553\\embeddedbuilder_v1.4.7.26843\\tools\\nucl
 1100              		.file 4 "..\\..\\..\\..\\lwip\\lwip-2.1.2\\src\\include/lwip/arch.h"
 1101              		.file 5 "..\\..\\..\\..\\lwip\\lwip-2.1.2\\src\\include/lwip/err.h"
 1102              		.file 6 "..\\..\\..\\..\\rtos\\rtos_wrapper/wrapper_os.h"
 1103              		.file 7 "..\\..\\..\\..\\lwip\\lwip-2.1.2\\port/arch/sys_arch.h"
 1104              		.file 8 "..\\..\\..\\..\\lwip\\lwip-2.1.2\\src\\include/lwip/ip4_addr.h"
 1105              		.file 9 "..\\..\\..\\..\\lwip\\lwip-2.1.2\\src\\include/lwip/ip_addr.h"
 1106              		.file 10 "..\\..\\..\\..\\lwip\\lwip-2.1.2\\src\\include/lwip/pbuf.h"
 1107              		.file 11 "..\\..\\..\\..\\lwip\\lwip-2.1.2\\src\\include/lwip/memp.h"
 1108              		.file 12 "..\\..\\..\\..\\lwip\\lwip-2.1.2\\src\\include/lwip/netif.h"
 1109              		.file 13 "..\\..\\..\\..\\lwip\\lwip-2.1.2\\src\\include/lwip/tcpip.h"
 1110              		.file 14 "..\\..\\..\\..\\lwip\\lwip-2.1.2\\src\\include/lwip/priv/tcpip_priv.h"
 1111              		.file 15 "..\\..\\..\\..\\lwip\\lwip-2.1.2\\src\\include/lwip/init.h"
 1112              		.file 16 "..\\..\\..\\..\\lwip\\lwip-2.1.2\\src\\include/lwip/sys.h"
 1113              		.file 17 "c:\\users\\stapi\\onedrive\\desktop\\gd32vw553\\embeddedbuilder_v1.4.7.26843\\tools\\nuc
 1114              		.file 18 "..\\..\\..\\..\\lwip\\lwip-2.1.2\\src\\include/lwip/timeouts.h"
DEFINED SYMBOLS
                            *ABS*:0000000000000000 tcpip.c
C:\Users\stapi\AppData\Local\Temp\ccxZPUS0.s:12     .text.pbuf_free_int:0000000000000000 pbuf_free_int
C:\Users\stapi\AppData\Local\Temp\ccxZPUS0.s:16     .text.pbuf_free_int:0000000000000000 .L0 
C:\Users\stapi\AppData\Local\Temp\ccxZPUS0.s:18     .text.pbuf_free_int:0000000000000000 .L0 
C:\Users\stapi\AppData\Local\Temp\ccxZPUS0.s:19     .text.pbuf_free_int:0000000000000000 .L0 
C:\Users\stapi\AppData\Local\Temp\ccxZPUS0.s:20     .text.pbuf_free_int:0000000000000000 .L0 
C:\Users\stapi\AppData\Local\Temp\ccxZPUS0.s:22     .text.pbuf_free_int:0000000000000008 .L0 
C:\Users\stapi\AppData\Local\Temp\ccxZPUS0.s:38     .text.tcpip_thread:0000000000000000 tcpip_thread
C:\Users\stapi\AppData\Local\Temp\ccxZPUS0.s:41     .text.tcpip_thread:0000000000000000 .L0 
C:\Users\stapi\AppData\Local\Temp\ccxZPUS0.s:43     .text.tcpip_thread:0000000000000000 .L0 
C:\Users\stapi\AppData\Local\Temp\ccxZPUS0.s:44     .text.tcpip_thread:0000000000000008 .L0 
C:\Users\stapi\AppData\Local\Temp\ccxZPUS0.s:45     .text.tcpip_thread:0000000000000008 .L0 
C:\Users\stapi\AppData\Local\Temp\ccxZPUS0.s:46     .text.tcpip_thread:0000000000000008 .L0 
C:\Users\stapi\AppData\Local\Temp\ccxZPUS0.s:47     .text.tcpip_thread:0000000000000008 .L0 
C:\Users\stapi\AppData\Local\Temp\ccxZPUS0.s:48     .text.tcpip_thread:0000000000000008 .L0 
C:\Users\stapi\AppData\Local\Temp\ccxZPUS0.s:49     .text.tcpip_thread:0000000000000008 .L0 
C:\Users\stapi\AppData\Local\Temp\ccxZPUS0.s:50     .text.tcpip_thread:0000000000000008 .L0 
C:\Users\stapi\AppData\Local\Temp\ccxZPUS0.s:51     .text.tcpip_thread:0000000000000008 .L0 
C:\Users\stapi\AppData\Local\Temp\ccxZPUS0.s:53     .text.tcpip_thread:0000000000000008 .L0 
C:\Users\stapi\AppData\Local\Temp\ccxZPUS0.s:54     .text.tcpip_thread:0000000000000008 .L0 
C:\Users\stapi\AppData\Local\Temp\ccxZPUS0.s:55     .text.tcpip_thread:0000000000000008 .L0 
C:\Users\stapi\AppData\Local\Temp\ccxZPUS0.s:56     .text.tcpip_thread:0000000000000008 .L0 
C:\Users\stapi\AppData\Local\Temp\ccxZPUS0.s:58     .text.tcpip_thread:000000000000000c .L0 
C:\Users\stapi\AppData\Local\Temp\ccxZPUS0.s:59     .text.tcpip_thread:000000000000000e .L0 
C:\Users\stapi\AppData\Local\Temp\ccxZPUS0.s:61     .text.tcpip_thread:000000000000000e .L0 
C:\Users\stapi\AppData\Local\Temp\ccxZPUS0.s:66     .text.tcpip_thread:000000000000001a .L0 
C:\Users\stapi\AppData\Local\Temp\ccxZPUS0.s:67     .text.tcpip_thread:000000000000001a .L0 
C:\Users\stapi\AppData\Local\Temp\ccxZPUS0.s:70     .text.tcpip_thread:0000000000000022 .L0 
C:\Users\stapi\AppData\Local\Temp\ccxZPUS0.s:72     .text.tcpip_thread:0000000000000024 .L0 
C:\Users\stapi\AppData\Local\Temp\ccxZPUS0.s:80     .text.tcpip_thread:000000000000002e .L0 
C:\Users\stapi\AppData\Local\Temp\ccxZPUS0.s:82     .text.tcpip_thread:0000000000000030 .L0 
C:\Users\stapi\AppData\Local\Temp\ccxZPUS0.s:88     .text.tcpip_thread:0000000000000034 .L0 
C:\Users\stapi\AppData\Local\Temp\ccxZPUS0.s:96     .text.tcpip_thread:0000000000000038 .L0 
C:\Users\stapi\AppData\Local\Temp\ccxZPUS0.s:97     .text.tcpip_thread:0000000000000038 .L0 
C:\Users\stapi\AppData\Local\Temp\ccxZPUS0.s:98     .text.tcpip_thread:0000000000000038 .L0 
C:\Users\stapi\AppData\Local\Temp\ccxZPUS0.s:99     .text.tcpip_thread:0000000000000038 .L0 
C:\Users\stapi\AppData\Local\Temp\ccxZPUS0.s:102    .text.tcpip_thread:0000000000000040 .L0 
C:\Users\stapi\AppData\Local\Temp\ccxZPUS0.s:103    .text.tcpip_thread:0000000000000040 .L0 
C:\Users\stapi\AppData\Local\Temp\ccxZPUS0.s:105    .text.tcpip_thread:0000000000000044 .L0 
C:\Users\stapi\AppData\Local\Temp\ccxZPUS0.s:110    .text.tcpip_thread:0000000000000050 .L0 
C:\Users\stapi\AppData\Local\Temp\ccxZPUS0.s:116    .text.tcpip_thread:0000000000000060 .L0 
C:\Users\stapi\AppData\Local\Temp\ccxZPUS0.s:123    .text.tcpip_thread:000000000000006c .L0 
C:\Users\stapi\AppData\Local\Temp\ccxZPUS0.s:124    .text.tcpip_thread:000000000000006c .L0 
C:\Users\stapi\AppData\Local\Temp\ccxZPUS0.s:125    .text.tcpip_thread:000000000000006c .L0 
C:\Users\stapi\AppData\Local\Temp\ccxZPUS0.s:127    .text.tcpip_thread:000000000000006e .L0 
C:\Users\stapi\AppData\Local\Temp\ccxZPUS0.s:129    .text.tcpip_thread:0000000000000070 .L0 
C:\Users\stapi\AppData\Local\Temp\ccxZPUS0.s:130    .text.tcpip_thread:0000000000000070 .L0 
C:\Users\stapi\AppData\Local\Temp\ccxZPUS0.s:131    .text.tcpip_thread:0000000000000070 .L0 
C:\Users\stapi\AppData\Local\Temp\ccxZPUS0.s:132    .text.tcpip_thread:0000000000000070 .L0 
C:\Users\stapi\AppData\Local\Temp\ccxZPUS0.s:133    .text.tcpip_thread:0000000000000070 .L0 
C:\Users\stapi\AppData\Local\Temp\ccxZPUS0.s:144    .text.tcpip_thread:0000000000000094 .L0 
C:\Users\stapi\AppData\Local\Temp\ccxZPUS0.s:145    .text.tcpip_thread:0000000000000094 .L0 
C:\Users\stapi\AppData\Local\Temp\ccxZPUS0.s:146    .text.tcpip_thread:0000000000000094 .L0 
C:\Users\stapi\AppData\Local\Temp\ccxZPUS0.s:152    .text.tcpip_thread:0000000000000096 .L0 
C:\Users\stapi\AppData\Local\Temp\ccxZPUS0.s:153    .text.tcpip_thread:0000000000000096 .L0 
C:\Users\stapi\AppData\Local\Temp\ccxZPUS0.s:157    .text.tcpip_thread:0000000000000098 .L0 
C:\Users\stapi\AppData\Local\Temp\ccxZPUS0.s:160    .text.tcpip_thread:00000000000000a0 .L0 
C:\Users\stapi\AppData\Local\Temp\ccxZPUS0.s:165    .text.tcpip_thread:00000000000000a4 .L0 
C:\Users\stapi\AppData\Local\Temp\ccxZPUS0.s:170    .text.tcpip_thread:00000000000000b0 .L0 
C:\Users\stapi\AppData\Local\Temp\ccxZPUS0.s:171    .text.tcpip_thread:00000000000000b0 .L0 
C:\Users\stapi\AppData\Local\Temp\ccxZPUS0.s:179    .text.tcpip_thread:00000000000000c2 .L0 
C:\Users\stapi\AppData\Local\Temp\ccxZPUS0.s:183    .text.tcpip_thread:00000000000000ce .L0 
C:\Users\stapi\AppData\Local\Temp\ccxZPUS0.s:184    .text.tcpip_thread:00000000000000ce .L0 
C:\Users\stapi\AppData\Local\Temp\ccxZPUS0.s:193    .text.tcpip_thread:00000000000000d4 .L0 
C:\Users\stapi\AppData\Local\Temp\ccxZPUS0.s:194    .text.tcpip_thread:00000000000000d4 .L0 
C:\Users\stapi\AppData\Local\Temp\ccxZPUS0.s:195    .text.tcpip_thread:00000000000000d4 .L0 
C:\Users\stapi\AppData\Local\Temp\ccxZPUS0.s:197    .text.tcpip_thread:00000000000000d6 .L0 
C:\Users\stapi\AppData\Local\Temp\ccxZPUS0.s:201    .text.tcpip_thread:00000000000000e0 .L0 
C:\Users\stapi\AppData\Local\Temp\ccxZPUS0.s:202    .text.tcpip_thread:00000000000000e0 .L0 
C:\Users\stapi\AppData\Local\Temp\ccxZPUS0.s:203    .text.tcpip_thread:00000000000000e0 .L0 
C:\Users\stapi\AppData\Local\Temp\ccxZPUS0.s:209    .text.tcpip_thread:00000000000000e8 .L0 
C:\Users\stapi\AppData\Local\Temp\ccxZPUS0.s:211    .text.tcpip_thread:00000000000000ea .L0 
C:\Users\stapi\AppData\Local\Temp\ccxZPUS0.s:216    .text.tcpip_thread:00000000000000f4 .L0 
C:\Users\stapi\AppData\Local\Temp\ccxZPUS0.s:220    .text.tcpip_thread:00000000000000f8 .L0 
C:\Users\stapi\AppData\Local\Temp\ccxZPUS0.s:223    .text.tcpip_thread:0000000000000100 .L0 
C:\Users\stapi\AppData\Local\Temp\ccxZPUS0.s:226    .text.tcpip_thread:0000000000000102 .L0 
C:\Users\stapi\AppData\Local\Temp\ccxZPUS0.s:227    .text.tcpip_thread:0000000000000102 .L0 
C:\Users\stapi\AppData\Local\Temp\ccxZPUS0.s:232    .text.tcpip_thread:0000000000000108 .L0 
C:\Users\stapi\AppData\Local\Temp\ccxZPUS0.s:237    .text.tcpip_thread:000000000000010e .L0 
C:\Users\stapi\AppData\Local\Temp\ccxZPUS0.s:238    .text.tcpip_thread:000000000000010e .L0 
C:\Users\stapi\AppData\Local\Temp\ccxZPUS0.s:245    .text.tcpip_thread:0000000000000114 .L0 
C:\Users\stapi\AppData\Local\Temp\ccxZPUS0.s:246    .text.tcpip_thread:0000000000000114 .L0 
C:\Users\stapi\AppData\Local\Temp\ccxZPUS0.s:247    .text.tcpip_thread:0000000000000114 .L0 
C:\Users\stapi\AppData\Local\Temp\ccxZPUS0.s:250    .text.tcpip_thread:0000000000000114 .L0 
C:\Users\stapi\AppData\Local\Temp\ccxZPUS0.s:251    .text.tcpip_thread:0000000000000114 .L0 
C:\Users\stapi\AppData\Local\Temp\ccxZPUS0.s:255    .text.tcpip_thread:0000000000000116 .L0 
C:\Users\stapi\AppData\Local\Temp\ccxZPUS0.s:256    .text.tcpip_thread:0000000000000116 .L0 
C:\Users\stapi\AppData\Local\Temp\ccxZPUS0.s:257    .text.tcpip_thread:0000000000000116 .L0 
C:\Users\stapi\AppData\Local\Temp\ccxZPUS0.s:258    .text.tcpip_thread:0000000000000116 .L0 
C:\Users\stapi\AppData\Local\Temp\ccxZPUS0.s:259    .text.tcpip_thread:0000000000000116 .L0 
C:\Users\stapi\AppData\Local\Temp\ccxZPUS0.s:270    .text.tcpip_thread:000000000000013a .L0 
C:\Users\stapi\AppData\Local\Temp\ccxZPUS0.s:271    .text.tcpip_thread:000000000000013a .L0 
C:\Users\stapi\AppData\Local\Temp\ccxZPUS0.s:272    .text.tcpip_thread:000000000000013a .L0 
C:\Users\stapi\AppData\Local\Temp\ccxZPUS0.s:275    .text.tcpip_thread:000000000000013c .L0 
C:\Users\stapi\AppData\Local\Temp\ccxZPUS0.s:286    .text.tcpip_inpkt:0000000000000000 tcpip_inpkt
C:\Users\stapi\AppData\Local\Temp\ccxZPUS0.s:289    .text.tcpip_inpkt:0000000000000000 .L0 
C:\Users\stapi\AppData\Local\Temp\ccxZPUS0.s:291    .text.tcpip_inpkt:0000000000000000 .L0 
C:\Users\stapi\AppData\Local\Temp\ccxZPUS0.s:292    .text.tcpip_inpkt:0000000000000008 .L0 
C:\Users\stapi\AppData\Local\Temp\ccxZPUS0.s:293    .text.tcpip_inpkt:0000000000000008 .L0 
C:\Users\stapi\AppData\Local\Temp\ccxZPUS0.s:294    .text.tcpip_inpkt:0000000000000008 .L0 
C:\Users\stapi\AppData\Local\Temp\ccxZPUS0.s:295    .text.tcpip_inpkt:0000000000000008 .L0 
C:\Users\stapi\AppData\Local\Temp\ccxZPUS0.s:296    .text.tcpip_inpkt:0000000000000008 .L0 
C:\Users\stapi\AppData\Local\Temp\ccxZPUS0.s:297    .text.tcpip_inpkt:0000000000000008 .L0 
C:\Users\stapi\AppData\Local\Temp\ccxZPUS0.s:299    .text.tcpip_inpkt:0000000000000008 .L0 
C:\Users\stapi\AppData\Local\Temp\ccxZPUS0.s:300    .text.tcpip_inpkt:0000000000000008 .L0 
C:\Users\stapi\AppData\Local\Temp\ccxZPUS0.s:301    .text.tcpip_inpkt:0000000000000008 .L0 
C:\Users\stapi\AppData\Local\Temp\ccxZPUS0.s:304    .text.tcpip_inpkt:0000000000000010 .L0 
C:\Users\stapi\AppData\Local\Temp\ccxZPUS0.s:305    .text.tcpip_inpkt:0000000000000012 .L0 
C:\Users\stapi\AppData\Local\Temp\ccxZPUS0.s:307    .text.tcpip_inpkt:0000000000000012 .L0 
C:\Users\stapi\AppData\Local\Temp\ccxZPUS0.s:312    .text.tcpip_inpkt:0000000000000014 .L0 
C:\Users\stapi\AppData\Local\Temp\ccxZPUS0.s:313    .text.tcpip_inpkt:0000000000000014 .L0 
C:\Users\stapi\AppData\Local\Temp\ccxZPUS0.s:327    .text.tcpip_inpkt:0000000000000038 .L0 
C:\Users\stapi\AppData\Local\Temp\ccxZPUS0.s:328    .text.tcpip_inpkt:0000000000000038 .L0 
C:\Users\stapi\AppData\Local\Temp\ccxZPUS0.s:329    .text.tcpip_inpkt:0000000000000038 .L0 
C:\Users\stapi\AppData\Local\Temp\ccxZPUS0.s:336    .text.tcpip_inpkt:000000000000003c .L0 
C:\Users\stapi\AppData\Local\Temp\ccxZPUS0.s:341    .text.tcpip_inpkt:0000000000000042 .L0 
C:\Users\stapi\AppData\Local\Temp\ccxZPUS0.s:342    .text.tcpip_inpkt:0000000000000042 .L0 
C:\Users\stapi\AppData\Local\Temp\ccxZPUS0.s:343    .text.tcpip_inpkt:0000000000000042 .L0 
C:\Users\stapi\AppData\Local\Temp\ccxZPUS0.s:344    .text.tcpip_inpkt:0000000000000042 .L0 
C:\Users\stapi\AppData\Local\Temp\ccxZPUS0.s:349    .text.tcpip_inpkt:000000000000004c .L0 
C:\Users\stapi\AppData\Local\Temp\ccxZPUS0.s:350    .text.tcpip_inpkt:000000000000004c .L0 
C:\Users\stapi\AppData\Local\Temp\ccxZPUS0.s:353    .text.tcpip_inpkt:000000000000004e .L0 
C:\Users\stapi\AppData\Local\Temp\ccxZPUS0.s:355    .text.tcpip_inpkt:0000000000000050 .L0 
C:\Users\stapi\AppData\Local\Temp\ccxZPUS0.s:356    .text.tcpip_inpkt:0000000000000050 .L0 
C:\Users\stapi\AppData\Local\Temp\ccxZPUS0.s:358    .text.tcpip_inpkt:0000000000000054 .L0 
C:\Users\stapi\AppData\Local\Temp\ccxZPUS0.s:359    .text.tcpip_inpkt:0000000000000054 .L0 
C:\Users\stapi\AppData\Local\Temp\ccxZPUS0.s:361    .text.tcpip_inpkt:0000000000000058 .L0 
C:\Users\stapi\AppData\Local\Temp\ccxZPUS0.s:362    .text.tcpip_inpkt:0000000000000058 .L0 
C:\Users\stapi\AppData\Local\Temp\ccxZPUS0.s:364    .text.tcpip_inpkt:000000000000005a .L0 
C:\Users\stapi\AppData\Local\Temp\ccxZPUS0.s:365    .text.tcpip_inpkt:000000000000005a .L0 
C:\Users\stapi\AppData\Local\Temp\ccxZPUS0.s:367    .text.tcpip_inpkt:000000000000005c .L0 
C:\Users\stapi\AppData\Local\Temp\ccxZPUS0.s:368    .text.tcpip_inpkt:000000000000005c .L0 
C:\Users\stapi\AppData\Local\Temp\ccxZPUS0.s:373    .text.tcpip_inpkt:000000000000006a .L0 
C:\Users\stapi\AppData\Local\Temp\ccxZPUS0.s:376    .text.tcpip_inpkt:000000000000006e .L0 
C:\Users\stapi\AppData\Local\Temp\ccxZPUS0.s:380    .text.tcpip_inpkt:0000000000000078 .L0 
C:\Users\stapi\AppData\Local\Temp\ccxZPUS0.s:381    .text.tcpip_inpkt:0000000000000078 .L0 
C:\Users\stapi\AppData\Local\Temp\ccxZPUS0.s:385    .text.tcpip_inpkt:000000000000007a .L0 
C:\Users\stapi\AppData\Local\Temp\ccxZPUS0.s:386    .text.tcpip_inpkt:000000000000007c .L0 
C:\Users\stapi\AppData\Local\Temp\ccxZPUS0.s:388    .text.tcpip_inpkt:0000000000000084 .L0 
C:\Users\stapi\AppData\Local\Temp\ccxZPUS0.s:389    .text.tcpip_inpkt:0000000000000084 .L0 
C:\Users\stapi\AppData\Local\Temp\ccxZPUS0.s:390    .text.tcpip_inpkt:0000000000000084 .L0 
C:\Users\stapi\AppData\Local\Temp\ccxZPUS0.s:391    .text.tcpip_inpkt:0000000000000084 .L0 
C:\Users\stapi\AppData\Local\Temp\ccxZPUS0.s:392    .text.tcpip_inpkt:0000000000000084 .L0 
C:\Users\stapi\AppData\Local\Temp\ccxZPUS0.s:393    .text.tcpip_inpkt:0000000000000084 .L0 
C:\Users\stapi\AppData\Local\Temp\ccxZPUS0.s:394    .text.tcpip_inpkt:0000000000000084 .L0 
C:\Users\stapi\AppData\Local\Temp\ccxZPUS0.s:401    .text.tcpip_input:0000000000000000 tcpip_input
C:\Users\stapi\AppData\Local\Temp\ccxZPUS0.s:404    .text.tcpip_input:0000000000000000 .L0 
C:\Users\stapi\AppData\Local\Temp\ccxZPUS0.s:406    .text.tcpip_input:0000000000000000 .L0 
C:\Users\stapi\AppData\Local\Temp\ccxZPUS0.s:407    .text.tcpip_input:0000000000000000 .L0 
C:\Users\stapi\AppData\Local\Temp\ccxZPUS0.s:408    .text.tcpip_input:0000000000000000 .L0 
C:\Users\stapi\AppData\Local\Temp\ccxZPUS0.s:412    .text.tcpip_input:0000000000000008 .L0 
C:\Users\stapi\AppData\Local\Temp\ccxZPUS0.s:413    .text.tcpip_input:0000000000000008 .L0 
C:\Users\stapi\AppData\Local\Temp\ccxZPUS0.s:417    .text.tcpip_input:0000000000000010 .L0 
C:\Users\stapi\AppData\Local\Temp\ccxZPUS0.s:421    .text.tcpip_input:0000000000000018 .L0 
C:\Users\stapi\AppData\Local\Temp\ccxZPUS0.s:422    .text.tcpip_input:0000000000000018 .L0 
C:\Users\stapi\AppData\Local\Temp\ccxZPUS0.s:425    .text.tcpip_input:0000000000000022 .L0 
C:\Users\stapi\AppData\Local\Temp\ccxZPUS0.s:432    .text.tcpip_callback:0000000000000000 tcpip_callback
C:\Users\stapi\AppData\Local\Temp\ccxZPUS0.s:435    .text.tcpip_callback:0000000000000000 .L0 
C:\Users\stapi\AppData\Local\Temp\ccxZPUS0.s:437    .text.tcpip_callback:0000000000000000 .L0 
C:\Users\stapi\AppData\Local\Temp\ccxZPUS0.s:438    .text.tcpip_callback:0000000000000008 .L0 
C:\Users\stapi\AppData\Local\Temp\ccxZPUS0.s:439    .text.tcpip_callback:0000000000000008 .L0 
C:\Users\stapi\AppData\Local\Temp\ccxZPUS0.s:440    .text.tcpip_callback:0000000000000008 .L0 
C:\Users\stapi\AppData\Local\Temp\ccxZPUS0.s:441    .text.tcpip_callback:0000000000000008 .L0 
C:\Users\stapi\AppData\Local\Temp\ccxZPUS0.s:442    .text.tcpip_callback:0000000000000008 .L0 
C:\Users\stapi\AppData\Local\Temp\ccxZPUS0.s:444    .text.tcpip_callback:0000000000000008 .L0 
C:\Users\stapi\AppData\Local\Temp\ccxZPUS0.s:445    .text.tcpip_callback:0000000000000008 .L0 
C:\Users\stapi\AppData\Local\Temp\ccxZPUS0.s:446    .text.tcpip_callback:0000000000000008 .L0 
C:\Users\stapi\AppData\Local\Temp\ccxZPUS0.s:450    .text.tcpip_callback:0000000000000012 .L0 
C:\Users\stapi\AppData\Local\Temp\ccxZPUS0.s:451    .text.tcpip_callback:0000000000000012 .L0 
C:\Users\stapi\AppData\Local\Temp\ccxZPUS0.s:464    .text.tcpip_callback:0000000000000036 .L0 
C:\Users\stapi\AppData\Local\Temp\ccxZPUS0.s:465    .text.tcpip_callback:0000000000000036 .L0 
C:\Users\stapi\AppData\Local\Temp\ccxZPUS0.s:466    .text.tcpip_callback:0000000000000036 .L0 
C:\Users\stapi\AppData\Local\Temp\ccxZPUS0.s:471    .text.tcpip_callback:000000000000003a .L0 
C:\Users\stapi\AppData\Local\Temp\ccxZPUS0.s:475    .text.tcpip_callback:000000000000003e .L0 
C:\Users\stapi\AppData\Local\Temp\ccxZPUS0.s:476    .text.tcpip_callback:000000000000003e .L0 
C:\Users\stapi\AppData\Local\Temp\ccxZPUS0.s:477    .text.tcpip_callback:000000000000003e .L0 
C:\Users\stapi\AppData\Local\Temp\ccxZPUS0.s:478    .text.tcpip_callback:000000000000003e .L0 
C:\Users\stapi\AppData\Local\Temp\ccxZPUS0.s:483    .text.tcpip_callback:0000000000000048 .L0 
C:\Users\stapi\AppData\Local\Temp\ccxZPUS0.s:484    .text.tcpip_callback:0000000000000048 .L0 
C:\Users\stapi\AppData\Local\Temp\ccxZPUS0.s:487    .text.tcpip_callback:000000000000004a .L0 
C:\Users\stapi\AppData\Local\Temp\ccxZPUS0.s:489    .text.tcpip_callback:000000000000004c .L0 
C:\Users\stapi\AppData\Local\Temp\ccxZPUS0.s:490    .text.tcpip_callback:000000000000004c .L0 
C:\Users\stapi\AppData\Local\Temp\ccxZPUS0.s:492    .text.tcpip_callback:000000000000004e .L0 
C:\Users\stapi\AppData\Local\Temp\ccxZPUS0.s:494    .text.tcpip_callback:0000000000000052 .L0 
C:\Users\stapi\AppData\Local\Temp\ccxZPUS0.s:496    .text.tcpip_callback:0000000000000054 .L0 
C:\Users\stapi\AppData\Local\Temp\ccxZPUS0.s:497    .text.tcpip_callback:0000000000000054 .L0 
C:\Users\stapi\AppData\Local\Temp\ccxZPUS0.s:499    .text.tcpip_callback:0000000000000056 .L0 
C:\Users\stapi\AppData\Local\Temp\ccxZPUS0.s:500    .text.tcpip_callback:0000000000000056 .L0 
C:\Users\stapi\AppData\Local\Temp\ccxZPUS0.s:502    .text.tcpip_callback:0000000000000058 .L0 
C:\Users\stapi\AppData\Local\Temp\ccxZPUS0.s:505    .text.tcpip_callback:0000000000000060 .L0 
C:\Users\stapi\AppData\Local\Temp\ccxZPUS0.s:506    .text.tcpip_callback:0000000000000060 .L0 
C:\Users\stapi\AppData\Local\Temp\ccxZPUS0.s:509    .text.tcpip_callback:0000000000000062 .L0 
C:\Users\stapi\AppData\Local\Temp\ccxZPUS0.s:510    .text.tcpip_callback:000000000000006a .L0 
C:\Users\stapi\AppData\Local\Temp\ccxZPUS0.s:511    .text.tcpip_callback:000000000000006a .L0 
C:\Users\stapi\AppData\Local\Temp\ccxZPUS0.s:512    .text.tcpip_callback:000000000000006a .L0 
C:\Users\stapi\AppData\Local\Temp\ccxZPUS0.s:513    .text.tcpip_callback:000000000000006a .L0 
C:\Users\stapi\AppData\Local\Temp\ccxZPUS0.s:514    .text.tcpip_callback:000000000000006a .L0 
C:\Users\stapi\AppData\Local\Temp\ccxZPUS0.s:515    .text.tcpip_callback:000000000000006a .L0 
C:\Users\stapi\AppData\Local\Temp\ccxZPUS0.s:522    .text.tcpip_try_callback:0000000000000000 tcpip_try_callback
C:\Users\stapi\AppData\Local\Temp\ccxZPUS0.s:525    .text.tcpip_try_callback:0000000000000000 .L0 
C:\Users\stapi\AppData\Local\Temp\ccxZPUS0.s:527    .text.tcpip_try_callback:0000000000000000 .L0 
C:\Users\stapi\AppData\Local\Temp\ccxZPUS0.s:528    .text.tcpip_try_callback:0000000000000008 .L0 
C:\Users\stapi\AppData\Local\Temp\ccxZPUS0.s:529    .text.tcpip_try_callback:0000000000000008 .L0 
C:\Users\stapi\AppData\Local\Temp\ccxZPUS0.s:530    .text.tcpip_try_callback:0000000000000008 .L0 
C:\Users\stapi\AppData\Local\Temp\ccxZPUS0.s:531    .text.tcpip_try_callback:0000000000000008 .L0 
C:\Users\stapi\AppData\Local\Temp\ccxZPUS0.s:532    .text.tcpip_try_callback:0000000000000008 .L0 
C:\Users\stapi\AppData\Local\Temp\ccxZPUS0.s:534    .text.tcpip_try_callback:0000000000000008 .L0 
C:\Users\stapi\AppData\Local\Temp\ccxZPUS0.s:535    .text.tcpip_try_callback:0000000000000008 .L0 
C:\Users\stapi\AppData\Local\Temp\ccxZPUS0.s:536    .text.tcpip_try_callback:0000000000000008 .L0 
C:\Users\stapi\AppData\Local\Temp\ccxZPUS0.s:539    .text.tcpip_try_callback:0000000000000010 .L0 
C:\Users\stapi\AppData\Local\Temp\ccxZPUS0.s:540    .text.tcpip_try_callback:0000000000000012 .L0 
C:\Users\stapi\AppData\Local\Temp\ccxZPUS0.s:542    .text.tcpip_try_callback:0000000000000012 .L0 
C:\Users\stapi\AppData\Local\Temp\ccxZPUS0.s:547    .text.tcpip_try_callback:0000000000000014 .L0 
C:\Users\stapi\AppData\Local\Temp\ccxZPUS0.s:548    .text.tcpip_try_callback:0000000000000014 .L0 
C:\Users\stapi\AppData\Local\Temp\ccxZPUS0.s:561    .text.tcpip_try_callback:0000000000000038 .L0 
C:\Users\stapi\AppData\Local\Temp\ccxZPUS0.s:562    .text.tcpip_try_callback:0000000000000038 .L0 
C:\Users\stapi\AppData\Local\Temp\ccxZPUS0.s:563    .text.tcpip_try_callback:0000000000000038 .L0 
C:\Users\stapi\AppData\Local\Temp\ccxZPUS0.s:570    .text.tcpip_try_callback:000000000000003c .L0 
C:\Users\stapi\AppData\Local\Temp\ccxZPUS0.s:574    .text.tcpip_try_callback:0000000000000040 .L0 
C:\Users\stapi\AppData\Local\Temp\ccxZPUS0.s:575    .text.tcpip_try_callback:0000000000000040 .L0 
C:\Users\stapi\AppData\Local\Temp\ccxZPUS0.s:576    .text.tcpip_try_callback:0000000000000040 .L0 
C:\Users\stapi\AppData\Local\Temp\ccxZPUS0.s:577    .text.tcpip_try_callback:0000000000000040 .L0 
C:\Users\stapi\AppData\Local\Temp\ccxZPUS0.s:582    .text.tcpip_try_callback:000000000000004a .L0 
C:\Users\stapi\AppData\Local\Temp\ccxZPUS0.s:583    .text.tcpip_try_callback:000000000000004a .L0 
C:\Users\stapi\AppData\Local\Temp\ccxZPUS0.s:586    .text.tcpip_try_callback:000000000000004c .L0 
C:\Users\stapi\AppData\Local\Temp\ccxZPUS0.s:588    .text.tcpip_try_callback:000000000000004e .L0 
C:\Users\stapi\AppData\Local\Temp\ccxZPUS0.s:589    .text.tcpip_try_callback:000000000000004e .L0 
C:\Users\stapi\AppData\Local\Temp\ccxZPUS0.s:592    .text.tcpip_try_callback:0000000000000052 .L0 
C:\Users\stapi\AppData\Local\Temp\ccxZPUS0.s:593    .text.tcpip_try_callback:0000000000000052 .L0 
C:\Users\stapi\AppData\Local\Temp\ccxZPUS0.s:595    .text.tcpip_try_callback:0000000000000054 .L0 
C:\Users\stapi\AppData\Local\Temp\ccxZPUS0.s:596    .text.tcpip_try_callback:0000000000000054 .L0 
C:\Users\stapi\AppData\Local\Temp\ccxZPUS0.s:598    .text.tcpip_try_callback:0000000000000056 .L0 
C:\Users\stapi\AppData\Local\Temp\ccxZPUS0.s:599    .text.tcpip_try_callback:0000000000000056 .L0 
C:\Users\stapi\AppData\Local\Temp\ccxZPUS0.s:604    .text.tcpip_try_callback:0000000000000064 .L0 
C:\Users\stapi\AppData\Local\Temp\ccxZPUS0.s:607    .text.tcpip_try_callback:0000000000000068 .L0 
C:\Users\stapi\AppData\Local\Temp\ccxZPUS0.s:611    .text.tcpip_try_callback:0000000000000072 .L0 
C:\Users\stapi\AppData\Local\Temp\ccxZPUS0.s:612    .text.tcpip_try_callback:0000000000000072 .L0 
C:\Users\stapi\AppData\Local\Temp\ccxZPUS0.s:616    .text.tcpip_try_callback:0000000000000074 .L0 
C:\Users\stapi\AppData\Local\Temp\ccxZPUS0.s:617    .text.tcpip_try_callback:0000000000000076 .L0 
C:\Users\stapi\AppData\Local\Temp\ccxZPUS0.s:619    .text.tcpip_try_callback:000000000000007e .L0 
C:\Users\stapi\AppData\Local\Temp\ccxZPUS0.s:620    .text.tcpip_try_callback:000000000000007e .L0 
C:\Users\stapi\AppData\Local\Temp\ccxZPUS0.s:621    .text.tcpip_try_callback:000000000000007e .L0 
C:\Users\stapi\AppData\Local\Temp\ccxZPUS0.s:622    .text.tcpip_try_callback:000000000000007e .L0 
C:\Users\stapi\AppData\Local\Temp\ccxZPUS0.s:623    .text.tcpip_try_callback:000000000000007e .L0 
C:\Users\stapi\AppData\Local\Temp\ccxZPUS0.s:624    .text.tcpip_try_callback:000000000000007e .L0 
C:\Users\stapi\AppData\Local\Temp\ccxZPUS0.s:631    .text.tcpip_send_msg_wait_sem:0000000000000000 tcpip_send_msg_wait_sem
C:\Users\stapi\AppData\Local\Temp\ccxZPUS0.s:634    .text.tcpip_send_msg_wait_sem:0000000000000000 .L0 
C:\Users\stapi\AppData\Local\Temp\ccxZPUS0.s:636    .text.tcpip_send_msg_wait_sem:0000000000000000 .L0 
C:\Users\stapi\AppData\Local\Temp\ccxZPUS0.s:637    .text.tcpip_send_msg_wait_sem:0000000000000008 .L0 
C:\Users\stapi\AppData\Local\Temp\ccxZPUS0.s:638    .text.tcpip_send_msg_wait_sem:0000000000000008 .L0 
C:\Users\stapi\AppData\Local\Temp\ccxZPUS0.s:639    .text.tcpip_send_msg_wait_sem:0000000000000008 .L0 
C:\Users\stapi\AppData\Local\Temp\ccxZPUS0.s:640    .text.tcpip_send_msg_wait_sem:0000000000000008 .L0 
C:\Users\stapi\AppData\Local\Temp\ccxZPUS0.s:641    .text.tcpip_send_msg_wait_sem:0000000000000008 .L0 
C:\Users\stapi\AppData\Local\Temp\ccxZPUS0.s:643    .text.tcpip_send_msg_wait_sem:0000000000000008 .L0 
C:\Users\stapi\AppData\Local\Temp\ccxZPUS0.s:644    .text.tcpip_send_msg_wait_sem:0000000000000008 .L0 
C:\Users\stapi\AppData\Local\Temp\ccxZPUS0.s:646    .text.tcpip_send_msg_wait_sem:000000000000000c .L0 
C:\Users\stapi\AppData\Local\Temp\ccxZPUS0.s:648    .text.tcpip_send_msg_wait_sem:000000000000000e .L0 
C:\Users\stapi\AppData\Local\Temp\ccxZPUS0.s:651    .text.tcpip_send_msg_wait_sem:0000000000000012 .L0 
C:\Users\stapi\AppData\Local\Temp\ccxZPUS0.s:653    .text.tcpip_send_msg_wait_sem:0000000000000014 .L0 
C:\Users\stapi\AppData\Local\Temp\ccxZPUS0.s:656    .text.tcpip_send_msg_wait_sem:000000000000001c .L0 
C:\Users\stapi\AppData\Local\Temp\ccxZPUS0.s:660    .text.tcpip_send_msg_wait_sem:0000000000000020 .L0 
C:\Users\stapi\AppData\Local\Temp\ccxZPUS0.s:664    .text.tcpip_send_msg_wait_sem:000000000000002c .L0 
C:\Users\stapi\AppData\Local\Temp\ccxZPUS0.s:665    .text.tcpip_send_msg_wait_sem:000000000000002c .L0 
C:\Users\stapi\AppData\Local\Temp\ccxZPUS0.s:667    .text.tcpip_send_msg_wait_sem:0000000000000036 .L0 
C:\Users\stapi\AppData\Local\Temp\ccxZPUS0.s:668    .text.tcpip_send_msg_wait_sem:0000000000000036 .L0 
C:\Users\stapi\AppData\Local\Temp\ccxZPUS0.s:669    .text.tcpip_send_msg_wait_sem:0000000000000036 .L0 
C:\Users\stapi\AppData\Local\Temp\ccxZPUS0.s:670    .text.tcpip_send_msg_wait_sem:0000000000000036 .L0 
C:\Users\stapi\AppData\Local\Temp\ccxZPUS0.s:671    .text.tcpip_send_msg_wait_sem:0000000000000036 .L0 
C:\Users\stapi\AppData\Local\Temp\ccxZPUS0.s:672    .text.tcpip_send_msg_wait_sem:0000000000000036 .L0 
C:\Users\stapi\AppData\Local\Temp\ccxZPUS0.s:679    .text.tcpip_api_call:0000000000000000 tcpip_api_call
C:\Users\stapi\AppData\Local\Temp\ccxZPUS0.s:682    .text.tcpip_api_call:0000000000000000 .L0 
C:\Users\stapi\AppData\Local\Temp\ccxZPUS0.s:684    .text.tcpip_api_call:0000000000000000 .L0 
C:\Users\stapi\AppData\Local\Temp\ccxZPUS0.s:685    .text.tcpip_api_call:0000000000000008 .L0 
C:\Users\stapi\AppData\Local\Temp\ccxZPUS0.s:686    .text.tcpip_api_call:0000000000000008 .L0 
C:\Users\stapi\AppData\Local\Temp\ccxZPUS0.s:687    .text.tcpip_api_call:0000000000000008 .L0 
C:\Users\stapi\AppData\Local\Temp\ccxZPUS0.s:688    .text.tcpip_api_call:0000000000000008 .L0 
C:\Users\stapi\AppData\Local\Temp\ccxZPUS0.s:689    .text.tcpip_api_call:0000000000000008 .L0 
C:\Users\stapi\AppData\Local\Temp\ccxZPUS0.s:691    .text.tcpip_api_call:0000000000000008 .L0 
C:\Users\stapi\AppData\Local\Temp\ccxZPUS0.s:692    .text.tcpip_api_call:0000000000000008 .L0 
C:\Users\stapi\AppData\Local\Temp\ccxZPUS0.s:694    .text.tcpip_api_call:000000000000000c .L0 
C:\Users\stapi\AppData\Local\Temp\ccxZPUS0.s:696    .text.tcpip_api_call:000000000000000e .L0 
C:\Users\stapi\AppData\Local\Temp\ccxZPUS0.s:699    .text.tcpip_api_call:0000000000000012 .L0 
C:\Users\stapi\AppData\Local\Temp\ccxZPUS0.s:701    .text.tcpip_api_call:0000000000000014 .L0 
C:\Users\stapi\AppData\Local\Temp\ccxZPUS0.s:704    .text.tcpip_api_call:000000000000001c .L0 
C:\Users\stapi\AppData\Local\Temp\ccxZPUS0.s:705    .text.tcpip_api_call:000000000000001c .L0 
C:\Users\stapi\AppData\Local\Temp\ccxZPUS0.s:711    .text.tcpip_api_call:0000000000000022 .L0 
C:\Users\stapi\AppData\Local\Temp\ccxZPUS0.s:715    .text.tcpip_api_call:000000000000002e .L0 
C:\Users\stapi\AppData\Local\Temp\ccxZPUS0.s:716    .text.tcpip_api_call:000000000000002e .L0 
C:\Users\stapi\AppData\Local\Temp\ccxZPUS0.s:718    .text.tcpip_api_call:0000000000000038 .L0 
C:\Users\stapi\AppData\Local\Temp\ccxZPUS0.s:719    .text.tcpip_api_call:0000000000000038 .L0 
C:\Users\stapi\AppData\Local\Temp\ccxZPUS0.s:720    .text.tcpip_api_call:0000000000000038 .L0 
C:\Users\stapi\AppData\Local\Temp\ccxZPUS0.s:721    .text.tcpip_api_call:0000000000000038 .L0 
C:\Users\stapi\AppData\Local\Temp\ccxZPUS0.s:722    .text.tcpip_api_call:0000000000000038 .L0 
C:\Users\stapi\AppData\Local\Temp\ccxZPUS0.s:723    .text.tcpip_api_call:0000000000000038 .L0 
C:\Users\stapi\AppData\Local\Temp\ccxZPUS0.s:730    .text.tcpip_callbackmsg_new:0000000000000000 tcpip_callbackmsg_new
C:\Users\stapi\AppData\Local\Temp\ccxZPUS0.s:733    .text.tcpip_callbackmsg_new:0000000000000000 .L0 
C:\Users\stapi\AppData\Local\Temp\ccxZPUS0.s:735    .text.tcpip_callbackmsg_new:0000000000000000 .L0 
C:\Users\stapi\AppData\Local\Temp\ccxZPUS0.s:736    .text.tcpip_callbackmsg_new:0000000000000008 .L0 
C:\Users\stapi\AppData\Local\Temp\ccxZPUS0.s:737    .text.tcpip_callbackmsg_new:0000000000000008 .L0 
C:\Users\stapi\AppData\Local\Temp\ccxZPUS0.s:738    .text.tcpip_callbackmsg_new:0000000000000008 .L0 
C:\Users\stapi\AppData\Local\Temp\ccxZPUS0.s:739    .text.tcpip_callbackmsg_new:0000000000000008 .L0 
C:\Users\stapi\AppData\Local\Temp\ccxZPUS0.s:741    .text.tcpip_callbackmsg_new:0000000000000008 .L0 
C:\Users\stapi\AppData\Local\Temp\ccxZPUS0.s:742    .text.tcpip_callbackmsg_new:0000000000000008 .L0 
C:\Users\stapi\AppData\Local\Temp\ccxZPUS0.s:744    .text.tcpip_callbackmsg_new:000000000000000a .L0 
C:\Users\stapi\AppData\Local\Temp\ccxZPUS0.s:747    .text.tcpip_callbackmsg_new:000000000000000c .L0 
C:\Users\stapi\AppData\Local\Temp\ccxZPUS0.s:749    .text.tcpip_callbackmsg_new:000000000000000e .L0 
C:\Users\stapi\AppData\Local\Temp\ccxZPUS0.s:752    .text.tcpip_callbackmsg_new:0000000000000016 .L0 
C:\Users\stapi\AppData\Local\Temp\ccxZPUS0.s:753    .text.tcpip_callbackmsg_new:0000000000000016 .L0 
C:\Users\stapi\AppData\Local\Temp\ccxZPUS0.s:755    .text.tcpip_callbackmsg_new:0000000000000018 .L0 
C:\Users\stapi\AppData\Local\Temp\ccxZPUS0.s:756    .text.tcpip_callbackmsg_new:0000000000000018 .L0 
C:\Users\stapi\AppData\Local\Temp\ccxZPUS0.s:759    .text.tcpip_callbackmsg_new:000000000000001c .L0 
C:\Users\stapi\AppData\Local\Temp\ccxZPUS0.s:760    .text.tcpip_callbackmsg_new:000000000000001c .L0 
C:\Users\stapi\AppData\Local\Temp\ccxZPUS0.s:762    .text.tcpip_callbackmsg_new:000000000000001e .L0 
C:\Users\stapi\AppData\Local\Temp\ccxZPUS0.s:763    .text.tcpip_callbackmsg_new:000000000000001e .L0 
C:\Users\stapi\AppData\Local\Temp\ccxZPUS0.s:766    .text.tcpip_callbackmsg_new:0000000000000020 .L0 
C:\Users\stapi\AppData\Local\Temp\ccxZPUS0.s:767    .text.tcpip_callbackmsg_new:0000000000000020 .L0 
C:\Users\stapi\AppData\Local\Temp\ccxZPUS0.s:768    .text.tcpip_callbackmsg_new:0000000000000028 .L0 
C:\Users\stapi\AppData\Local\Temp\ccxZPUS0.s:769    .text.tcpip_callbackmsg_new:0000000000000028 .L0 
C:\Users\stapi\AppData\Local\Temp\ccxZPUS0.s:770    .text.tcpip_callbackmsg_new:0000000000000028 .L0 
C:\Users\stapi\AppData\Local\Temp\ccxZPUS0.s:771    .text.tcpip_callbackmsg_new:0000000000000028 .L0 
C:\Users\stapi\AppData\Local\Temp\ccxZPUS0.s:772    .text.tcpip_callbackmsg_new:0000000000000028 .L0 
C:\Users\stapi\AppData\Local\Temp\ccxZPUS0.s:779    .text.tcpip_callbackmsg_delete:0000000000000000 tcpip_callbackmsg_delete
C:\Users\stapi\AppData\Local\Temp\ccxZPUS0.s:782    .text.tcpip_callbackmsg_delete:0000000000000000 .L0 
C:\Users\stapi\AppData\Local\Temp\ccxZPUS0.s:784    .text.tcpip_callbackmsg_delete:0000000000000000 .L0 
C:\Users\stapi\AppData\Local\Temp\ccxZPUS0.s:785    .text.tcpip_callbackmsg_delete:0000000000000000 .L0 
C:\Users\stapi\AppData\Local\Temp\ccxZPUS0.s:786    .text.tcpip_callbackmsg_delete:0000000000000000 .L0 
C:\Users\stapi\AppData\Local\Temp\ccxZPUS0.s:788    .text.tcpip_callbackmsg_delete:0000000000000002 .L0 
C:\Users\stapi\AppData\Local\Temp\ccxZPUS0.s:792    .text.tcpip_callbackmsg_delete:000000000000000c .L0 
C:\Users\stapi\AppData\Local\Temp\ccxZPUS0.s:799    .text.tcpip_callbackmsg_trycallback:0000000000000000 tcpip_callbackmsg_trycallback
C:\Users\stapi\AppData\Local\Temp\ccxZPUS0.s:802    .text.tcpip_callbackmsg_trycallback:0000000000000000 .L0 
C:\Users\stapi\AppData\Local\Temp\ccxZPUS0.s:804    .text.tcpip_callbackmsg_trycallback:0000000000000000 .L0 
C:\Users\stapi\AppData\Local\Temp\ccxZPUS0.s:805    .text.tcpip_callbackmsg_trycallback:0000000000000008 .L0 
C:\Users\stapi\AppData\Local\Temp\ccxZPUS0.s:806    .text.tcpip_callbackmsg_trycallback:0000000000000008 .L0 
C:\Users\stapi\AppData\Local\Temp\ccxZPUS0.s:808    .text.tcpip_callbackmsg_trycallback:0000000000000008 .L0 
C:\Users\stapi\AppData\Local\Temp\ccxZPUS0.s:809    .text.tcpip_callbackmsg_trycallback:0000000000000008 .L0 
C:\Users\stapi\AppData\Local\Temp\ccxZPUS0.s:810    .text.tcpip_callbackmsg_trycallback:0000000000000008 .L0 
C:\Users\stapi\AppData\Local\Temp\ccxZPUS0.s:812    .text.tcpip_callbackmsg_trycallback:000000000000000a .L0 
C:\Users\stapi\AppData\Local\Temp\ccxZPUS0.s:817    .text.tcpip_callbackmsg_trycallback:0000000000000014 .L0 
C:\Users\stapi\AppData\Local\Temp\ccxZPUS0.s:818    .text.tcpip_callbackmsg_trycallback:0000000000000014 .L0 
C:\Users\stapi\AppData\Local\Temp\ccxZPUS0.s:830    .text.tcpip_callbackmsg_trycallback:0000000000000038 .L0 
C:\Users\stapi\AppData\Local\Temp\ccxZPUS0.s:831    .text.tcpip_callbackmsg_trycallback:0000000000000038 .L0 
C:\Users\stapi\AppData\Local\Temp\ccxZPUS0.s:832    .text.tcpip_callbackmsg_trycallback:0000000000000038 .L0 
C:\Users\stapi\AppData\Local\Temp\ccxZPUS0.s:836    .text.tcpip_callbackmsg_trycallback:000000000000003a .L0 
C:\Users\stapi\AppData\Local\Temp\ccxZPUS0.s:837    .text.tcpip_callbackmsg_trycallback:000000000000003a .L0 
C:\Users\stapi\AppData\Local\Temp\ccxZPUS0.s:838    .text.tcpip_callbackmsg_trycallback:000000000000003a .L0 
C:\Users\stapi\AppData\Local\Temp\ccxZPUS0.s:839    .text.tcpip_callbackmsg_trycallback:000000000000003a .L0 
C:\Users\stapi\AppData\Local\Temp\ccxZPUS0.s:843    .text.tcpip_callbackmsg_trycallback:0000000000000046 .L0 
C:\Users\stapi\AppData\Local\Temp\ccxZPUS0.s:844    .text.tcpip_callbackmsg_trycallback:000000000000004e .L0 
C:\Users\stapi\AppData\Local\Temp\ccxZPUS0.s:845    .text.tcpip_callbackmsg_trycallback:000000000000004e .L0 
C:\Users\stapi\AppData\Local\Temp\ccxZPUS0.s:846    .text.tcpip_callbackmsg_trycallback:000000000000004e .L0 
C:\Users\stapi\AppData\Local\Temp\ccxZPUS0.s:853    .text.tcpip_callbackmsg_trycallback_fromisr:0000000000000000 tcpip_callbackmsg_trycallback_fromisr
C:\Users\stapi\AppData\Local\Temp\ccxZPUS0.s:856    .text.tcpip_callbackmsg_trycallback_fromisr:0000000000000000 .L0 
C:\Users\stapi\AppData\Local\Temp\ccxZPUS0.s:858    .text.tcpip_callbackmsg_trycallback_fromisr:0000000000000000 .L0 
C:\Users\stapi\AppData\Local\Temp\ccxZPUS0.s:859    .text.tcpip_callbackmsg_trycallback_fromisr:0000000000000008 .L0 
C:\Users\stapi\AppData\Local\Temp\ccxZPUS0.s:860    .text.tcpip_callbackmsg_trycallback_fromisr:0000000000000008 .L0 
C:\Users\stapi\AppData\Local\Temp\ccxZPUS0.s:862    .text.tcpip_callbackmsg_trycallback_fromisr:0000000000000008 .L0 
C:\Users\stapi\AppData\Local\Temp\ccxZPUS0.s:863    .text.tcpip_callbackmsg_trycallback_fromisr:0000000000000008 .L0 
C:\Users\stapi\AppData\Local\Temp\ccxZPUS0.s:864    .text.tcpip_callbackmsg_trycallback_fromisr:0000000000000008 .L0 
C:\Users\stapi\AppData\Local\Temp\ccxZPUS0.s:866    .text.tcpip_callbackmsg_trycallback_fromisr:000000000000000a .L0 
C:\Users\stapi\AppData\Local\Temp\ccxZPUS0.s:871    .text.tcpip_callbackmsg_trycallback_fromisr:0000000000000014 .L0 
C:\Users\stapi\AppData\Local\Temp\ccxZPUS0.s:872    .text.tcpip_callbackmsg_trycallback_fromisr:0000000000000014 .L0 
C:\Users\stapi\AppData\Local\Temp\ccxZPUS0.s:884    .text.tcpip_callbackmsg_trycallback_fromisr:0000000000000038 .L0 
C:\Users\stapi\AppData\Local\Temp\ccxZPUS0.s:885    .text.tcpip_callbackmsg_trycallback_fromisr:0000000000000038 .L0 
C:\Users\stapi\AppData\Local\Temp\ccxZPUS0.s:886    .text.tcpip_callbackmsg_trycallback_fromisr:0000000000000038 .L0 
C:\Users\stapi\AppData\Local\Temp\ccxZPUS0.s:890    .text.tcpip_callbackmsg_trycallback_fromisr:000000000000003a .L0 
C:\Users\stapi\AppData\Local\Temp\ccxZPUS0.s:891    .text.tcpip_callbackmsg_trycallback_fromisr:000000000000003a .L0 
C:\Users\stapi\AppData\Local\Temp\ccxZPUS0.s:892    .text.tcpip_callbackmsg_trycallback_fromisr:000000000000003a .L0 
C:\Users\stapi\AppData\Local\Temp\ccxZPUS0.s:893    .text.tcpip_callbackmsg_trycallback_fromisr:000000000000003a .L0 
C:\Users\stapi\AppData\Local\Temp\ccxZPUS0.s:897    .text.tcpip_callbackmsg_trycallback_fromisr:0000000000000046 .L0 
C:\Users\stapi\AppData\Local\Temp\ccxZPUS0.s:898    .text.tcpip_callbackmsg_trycallback_fromisr:000000000000004e .L0 
C:\Users\stapi\AppData\Local\Temp\ccxZPUS0.s:899    .text.tcpip_callbackmsg_trycallback_fromisr:000000000000004e .L0 
C:\Users\stapi\AppData\Local\Temp\ccxZPUS0.s:900    .text.tcpip_callbackmsg_trycallback_fromisr:000000000000004e .L0 
C:\Users\stapi\AppData\Local\Temp\ccxZPUS0.s:917    .text.tcpip_init:0000000000000000 tcpip_init
C:\Users\stapi\AppData\Local\Temp\ccxZPUS0.s:920    .text.tcpip_init:0000000000000000 .L0 
C:\Users\stapi\AppData\Local\Temp\ccxZPUS0.s:922    .text.tcpip_init:0000000000000000 .L0 
C:\Users\stapi\AppData\Local\Temp\ccxZPUS0.s:923    .text.tcpip_init:0000000000000008 .L0 
C:\Users\stapi\AppData\Local\Temp\ccxZPUS0.s:924    .text.tcpip_init:0000000000000008 .L0 
C:\Users\stapi\AppData\Local\Temp\ccxZPUS0.s:925    .text.tcpip_init:0000000000000008 .L0 
C:\Users\stapi\AppData\Local\Temp\ccxZPUS0.s:926    .text.tcpip_init:0000000000000008 .L0 
C:\Users\stapi\AppData\Local\Temp\ccxZPUS0.s:928    .text.tcpip_init:0000000000000008 .L0 
C:\Users\stapi\AppData\Local\Temp\ccxZPUS0.s:929    .text.tcpip_init:0000000000000008 .L0 
C:\Users\stapi\AppData\Local\Temp\ccxZPUS0.s:932    .text.tcpip_init:000000000000000c .L0 
C:\Users\stapi\AppData\Local\Temp\ccxZPUS0.s:935    .text.tcpip_init:0000000000000014 .L0 
C:\Users\stapi\AppData\Local\Temp\ccxZPUS0.s:936    .text.tcpip_init:0000000000000014 .L0 
C:\Users\stapi\AppData\Local\Temp\ccxZPUS0.s:938    .text.tcpip_init:0000000000000018 .L0 
C:\Users\stapi\AppData\Local\Temp\ccxZPUS0.s:940    .text.tcpip_init:000000000000001c .L0 
C:\Users\stapi\AppData\Local\Temp\ccxZPUS0.s:942    .text.tcpip_init:0000000000000020 .L0 
C:\Users\stapi\AppData\Local\Temp\ccxZPUS0.s:943    .text.tcpip_init:0000000000000020 .L0 
C:\Users\stapi\AppData\Local\Temp\ccxZPUS0.s:945    .text.tcpip_init:0000000000000022 .L0 
C:\Users\stapi\AppData\Local\Temp\ccxZPUS0.s:947    .text.tcpip_init:0000000000000026 .L0 
C:\Users\stapi\AppData\Local\Temp\ccxZPUS0.s:949    .text.tcpip_init:000000000000002a .L0 
C:\Users\stapi\AppData\Local\Temp\ccxZPUS0.s:951    .text.tcpip_init:000000000000002e .L0 
C:\Users\stapi\AppData\Local\Temp\ccxZPUS0.s:952    .text.tcpip_init:000000000000002e .L0 
C:\Users\stapi\AppData\Local\Temp\ccxZPUS0.s:955    .text.tcpip_init:0000000000000036 .L0 
C:\Users\stapi\AppData\Local\Temp\ccxZPUS0.s:957    .text.tcpip_init:0000000000000038 .L0 
C:\Users\stapi\AppData\Local\Temp\ccxZPUS0.s:958    .text.tcpip_init:0000000000000038 .L0 
C:\Users\stapi\AppData\Local\Temp\ccxZPUS0.s:959    .text.tcpip_init:0000000000000038 .L0 
C:\Users\stapi\AppData\Local\Temp\ccxZPUS0.s:960    .text.tcpip_init:0000000000000038 .L0 
C:\Users\stapi\AppData\Local\Temp\ccxZPUS0.s:971    .text.tcpip_init:000000000000005c .L0 
C:\Users\stapi\AppData\Local\Temp\ccxZPUS0.s:972    .text.tcpip_init:000000000000005c .L0 
C:\Users\stapi\AppData\Local\Temp\ccxZPUS0.s:973    .text.tcpip_init:000000000000005c .L0 
C:\Users\stapi\AppData\Local\Temp\ccxZPUS0.s:976    .text.tcpip_init:000000000000005e .L0 
C:\Users\stapi\AppData\Local\Temp\ccxZPUS0.s:977    .text.tcpip_init:000000000000005e .L0 
C:\Users\stapi\AppData\Local\Temp\ccxZPUS0.s:978    .text.tcpip_init:000000000000005e .L0 
C:\Users\stapi\AppData\Local\Temp\ccxZPUS0.s:979    .text.tcpip_init:000000000000005e .L0 
C:\Users\stapi\AppData\Local\Temp\ccxZPUS0.s:984    .text.tcpip_init:000000000000006e .L0 
C:\Users\stapi\AppData\Local\Temp\ccxZPUS0.s:986    .text.tcpip_init:0000000000000070 .L0 
C:\Users\stapi\AppData\Local\Temp\ccxZPUS0.s:987    .text.tcpip_init:0000000000000070 .L0 
C:\Users\stapi\AppData\Local\Temp\ccxZPUS0.s:988    .text.tcpip_init:0000000000000070 .L0 
C:\Users\stapi\AppData\Local\Temp\ccxZPUS0.s:989    .text.tcpip_init:0000000000000070 .L0 
C:\Users\stapi\AppData\Local\Temp\ccxZPUS0.s:1000   .text.tcpip_init:0000000000000094 .L0 
C:\Users\stapi\AppData\Local\Temp\ccxZPUS0.s:1001   .text.tcpip_init:0000000000000094 .L0 
C:\Users\stapi\AppData\Local\Temp\ccxZPUS0.s:1002   .text.tcpip_init:0000000000000094 .L0 
C:\Users\stapi\AppData\Local\Temp\ccxZPUS0.s:1005   .text.tcpip_init:0000000000000096 .L0 
C:\Users\stapi\AppData\Local\Temp\ccxZPUS0.s:1006   .text.tcpip_init:0000000000000096 .L0 
C:\Users\stapi\AppData\Local\Temp\ccxZPUS0.s:1007   .text.tcpip_init:0000000000000096 .L0 
C:\Users\stapi\AppData\Local\Temp\ccxZPUS0.s:1017   .text.tcpip_init:00000000000000b6 .L0 
C:\Users\stapi\AppData\Local\Temp\ccxZPUS0.s:1018   .text.tcpip_init:00000000000000be .L0 
C:\Users\stapi\AppData\Local\Temp\ccxZPUS0.s:1019   .text.tcpip_init:00000000000000be .L0 
C:\Users\stapi\AppData\Local\Temp\ccxZPUS0.s:1020   .text.tcpip_init:00000000000000be .L0 
C:\Users\stapi\AppData\Local\Temp\ccxZPUS0.s:1021   .text.tcpip_init:00000000000000be .L0 
C:\Users\stapi\AppData\Local\Temp\ccxZPUS0.s:1022   .text.tcpip_init:00000000000000be .L0 
C:\Users\stapi\AppData\Local\Temp\ccxZPUS0.s:1029   .text.pbuf_free_callback:0000000000000000 pbuf_free_callback
C:\Users\stapi\AppData\Local\Temp\ccxZPUS0.s:1032   .text.pbuf_free_callback:0000000000000000 .L0 
C:\Users\stapi\AppData\Local\Temp\ccxZPUS0.s:1034   .text.pbuf_free_callback:0000000000000000 .L0 
C:\Users\stapi\AppData\Local\Temp\ccxZPUS0.s:1035   .text.pbuf_free_callback:0000000000000000 .L0 
C:\Users\stapi\AppData\Local\Temp\ccxZPUS0.s:1036   .text.pbuf_free_callback:0000000000000000 .L0 
C:\Users\stapi\AppData\Local\Temp\ccxZPUS0.s:1038   .text.pbuf_free_callback:0000000000000002 .L0 
C:\Users\stapi\AppData\Local\Temp\ccxZPUS0.s:1043   .text.pbuf_free_callback:0000000000000012 .L0 
C:\Users\stapi\AppData\Local\Temp\ccxZPUS0.s:1050   .text.mem_free_callback:0000000000000000 mem_free_callback
C:\Users\stapi\AppData\Local\Temp\ccxZPUS0.s:1053   .text.mem_free_callback:0000000000000000 .L0 
C:\Users\stapi\AppData\Local\Temp\ccxZPUS0.s:1055   .text.mem_free_callback:0000000000000000 .L0 
C:\Users\stapi\AppData\Local\Temp\ccxZPUS0.s:1056   .text.mem_free_callback:0000000000000000 .L0 
C:\Users\stapi\AppData\Local\Temp\ccxZPUS0.s:1057   .text.mem_free_callback:0000000000000000 .L0 
C:\Users\stapi\AppData\Local\Temp\ccxZPUS0.s:1059   .text.mem_free_callback:0000000000000002 .L0 
C:\Users\stapi\AppData\Local\Temp\ccxZPUS0.s:1064   .text.mem_free_callback:0000000000000012 .L0 
C:\Users\stapi\AppData\Local\Temp\ccxZPUS0.s:1073   .sbss.lock_tcpip_core:0000000000000000 lock_tcpip_core
C:\Users\stapi\AppData\Local\Temp\ccxZPUS0.s:1070   .sbss.lock_tcpip_core:0000000000000000 .LANCHOR0
C:\Users\stapi\AppData\Local\Temp\ccxZPUS0.s:1077   .sbss.tcpip_init_done:0000000000000000 .LANCHOR1
C:\Users\stapi\AppData\Local\Temp\ccxZPUS0.s:1080   .sbss.tcpip_init_done:0000000000000000 tcpip_init_done
C:\Users\stapi\AppData\Local\Temp\ccxZPUS0.s:1084   .sbss.tcpip_init_done_arg:0000000000000000 .LANCHOR2
C:\Users\stapi\AppData\Local\Temp\ccxZPUS0.s:1087   .sbss.tcpip_init_done_arg:0000000000000000 tcpip_init_done_arg
C:\Users\stapi\AppData\Local\Temp\ccxZPUS0.s:1091   .sbss.tcpip_mbox:0000000000000000 .LANCHOR3
C:\Users\stapi\AppData\Local\Temp\ccxZPUS0.s:1094   .sbss.tcpip_mbox:0000000000000000 tcpip_mbox
C:\Users\stapi\AppData\Local\Temp\ccxZPUS0.s:25     .text.pbuf_free_int:0000000000000008 .L0 
C:\Users\stapi\AppData\Local\Temp\ccxZPUS0.s:278    .text.tcpip_thread:000000000000013c .L0 
C:\Users\stapi\AppData\Local\Temp\ccxZPUS0.s:397    .text.tcpip_inpkt:0000000000000084 .L0 
C:\Users\stapi\AppData\Local\Temp\ccxZPUS0.s:428    .text.tcpip_input:0000000000000022 .L0 
C:\Users\stapi\AppData\Local\Temp\ccxZPUS0.s:518    .text.tcpip_callback:000000000000006a .L0 
C:\Users\stapi\AppData\Local\Temp\ccxZPUS0.s:627    .text.tcpip_try_callback:000000000000007e .L0 
C:\Users\stapi\AppData\Local\Temp\ccxZPUS0.s:675    .text.tcpip_send_msg_wait_sem:0000000000000036 .L0 
C:\Users\stapi\AppData\Local\Temp\ccxZPUS0.s:726    .text.tcpip_api_call:0000000000000038 .L0 
C:\Users\stapi\AppData\Local\Temp\ccxZPUS0.s:775    .text.tcpip_callbackmsg_new:0000000000000028 .L0 
C:\Users\stapi\AppData\Local\Temp\ccxZPUS0.s:795    .text.tcpip_callbackmsg_delete:000000000000000c .L0 
C:\Users\stapi\AppData\Local\Temp\ccxZPUS0.s:849    .text.tcpip_callbackmsg_trycallback:000000000000004e .L0 
C:\Users\stapi\AppData\Local\Temp\ccxZPUS0.s:903    .text.tcpip_callbackmsg_trycallback_fromisr:000000000000004e .L0 
C:\Users\stapi\AppData\Local\Temp\ccxZPUS0.s:1025   .text.tcpip_init:00000000000000be .L0 
C:\Users\stapi\AppData\Local\Temp\ccxZPUS0.s:1046   .text.pbuf_free_callback:0000000000000012 .L0 
C:\Users\stapi\AppData\Local\Temp\ccxZPUS0.s:1068   .text.mem_free_callback:0000000000000012 .L0 
                     .debug_frame:0000000000000000 .L0 
C:\Users\stapi\AppData\Local\Temp\ccxZPUS0.s:27     .rodata.tcpip_thread.str1.4:0000000000000000 .LC0
C:\Users\stapi\AppData\Local\Temp\ccxZPUS0.s:30     .rodata.tcpip_thread.str1.4:0000000000000080 .LC1
C:\Users\stapi\AppData\Local\Temp\ccxZPUS0.s:33     .rodata.tcpip_thread.str1.4:00000000000000a0 .LC2
C:\Users\stapi\AppData\Local\Temp\ccxZPUS0.s:76     .text.tcpip_thread:000000000000002e .L4
C:\Users\stapi\AppData\Local\Temp\ccxZPUS0.s:148    .text.tcpip_thread:0000000000000096 .L6
C:\Users\stapi\AppData\Local\Temp\ccxZPUS0.s:187    .text.tcpip_thread:00000000000000d4 .L11
C:\Users\stapi\AppData\Local\Temp\ccxZPUS0.s:142    .text.tcpip_thread:0000000000000094 .L12
C:\Users\stapi\AppData\Local\Temp\ccxZPUS0.s:162    .text.tcpip_thread:00000000000000a2 .L8
C:\Users\stapi\AppData\Local\Temp\ccxZPUS0.s:90     .text.tcpip_thread:0000000000000038 .L9
C:\Users\stapi\AppData\Local\Temp\ccxZPUS0.s:155    .text.tcpip_thread:0000000000000098 .L10
C:\Users\stapi\AppData\Local\Temp\ccxZPUS0.s:120    .text.tcpip_thread:000000000000006c .L7
C:\Users\stapi\AppData\Local\Temp\ccxZPUS0.s:224    .text.tcpip_thread:0000000000000102 .L13
C:\Users\stapi\AppData\Local\Temp\ccxZPUS0.s:235    .text.tcpip_thread:000000000000010e .L14
C:\Users\stapi\AppData\Local\Temp\ccxZPUS0.s:253    .text.tcpip_thread:0000000000000116 .L15
C:\Users\stapi\AppData\Local\Temp\ccxZPUS0.s:214    .text.tcpip_thread:00000000000000f4 .L16
C:\Users\stapi\AppData\Local\Temp\ccxZPUS0.s:218    .text.tcpip_thread:00000000000000f8 .L26
C:\Users\stapi\AppData\Local\Temp\ccxZPUS0.s:268    .text.tcpip_thread:000000000000013a .L18
C:\Users\stapi\AppData\Local\Temp\ccxZPUS0.s:280    .rodata.tcpip_inpkt.str1.4:0000000000000000 .LC3
C:\Users\stapi\AppData\Local\Temp\ccxZPUS0.s:331    .text.tcpip_inpkt:000000000000003a .L28
C:\Users\stapi\AppData\Local\Temp\ccxZPUS0.s:325    .text.tcpip_inpkt:0000000000000038 .L29
C:\Users\stapi\AppData\Local\Temp\ccxZPUS0.s:383    .text.tcpip_inpkt:000000000000007a .L30
C:\Users\stapi\AppData\Local\Temp\ccxZPUS0.s:419    .text.tcpip_input:0000000000000018 .L37
C:\Users\stapi\AppData\Local\Temp\ccxZPUS0.s:415    .text.tcpip_input:0000000000000010 .L40
C:\Users\stapi\AppData\Local\Temp\ccxZPUS0.s:468    .text.tcpip_callback:0000000000000038 .L42
C:\Users\stapi\AppData\Local\Temp\ccxZPUS0.s:462    .text.tcpip_callback:0000000000000036 .L43
C:\Users\stapi\AppData\Local\Temp\ccxZPUS0.s:507    .text.tcpip_callback:0000000000000062 .L44
C:\Users\stapi\AppData\Local\Temp\ccxZPUS0.s:565    .text.tcpip_try_callback:000000000000003a .L48
C:\Users\stapi\AppData\Local\Temp\ccxZPUS0.s:559    .text.tcpip_try_callback:0000000000000038 .L49
C:\Users\stapi\AppData\Local\Temp\ccxZPUS0.s:614    .text.tcpip_try_callback:0000000000000074 .L50
C:\Users\stapi\AppData\Local\Temp\ccxZPUS0.s:765    .text.tcpip_callbackmsg_new:0000000000000020 .L60
C:\Users\stapi\AppData\Local\Temp\ccxZPUS0.s:834    .text.tcpip_callbackmsg_trycallback:000000000000003a .L69
C:\Users\stapi\AppData\Local\Temp\ccxZPUS0.s:828    .text.tcpip_callbackmsg_trycallback:0000000000000038 .L70
C:\Users\stapi\AppData\Local\Temp\ccxZPUS0.s:888    .text.tcpip_callbackmsg_trycallback_fromisr:000000000000003a .L73
C:\Users\stapi\AppData\Local\Temp\ccxZPUS0.s:882    .text.tcpip_callbackmsg_trycallback_fromisr:0000000000000038 .L74
C:\Users\stapi\AppData\Local\Temp\ccxZPUS0.s:905    .rodata.tcpip_init.str1.4:0000000000000000 .LC4
C:\Users\stapi\AppData\Local\Temp\ccxZPUS0.s:908    .rodata.tcpip_init.str1.4:0000000000000024 .LC5
C:\Users\stapi\AppData\Local\Temp\ccxZPUS0.s:911    .rodata.tcpip_init.str1.4:0000000000000048 .LC6
C:\Users\stapi\AppData\Local\Temp\ccxZPUS0.s:974    .text.tcpip_init:000000000000005e .L77
C:\Users\stapi\AppData\Local\Temp\ccxZPUS0.s:969    .text.tcpip_init:000000000000005c .L78
C:\Users\stapi\AppData\Local\Temp\ccxZPUS0.s:1003   .text.tcpip_init:0000000000000096 .L79
C:\Users\stapi\AppData\Local\Temp\ccxZPUS0.s:998    .text.tcpip_init:0000000000000094 .L80
C:\Users\stapi\AppData\Local\Temp\ccxZPUS0.s:3349   .debug_abbrev:0000000000000000 .Ldebug_abbrev0
C:\Users\stapi\AppData\Local\Temp\ccxZPUS0.s:5393   .debug_str:00000000000008fd .LASF155
C:\Users\stapi\AppData\Local\Temp\ccxZPUS0.s:5117   .debug_str:00000000000000ae .LASF156
C:\Users\stapi\AppData\Local\Temp\ccxZPUS0.s:5217   .debug_str:00000000000003b8 .LASF157
C:\Users\stapi\AppData\Local\Temp\ccxZPUS0.s:5033   .debug_ranges:0000000000000000 .Ldebug_ranges0
C:\Users\stapi\AppData\Local\Temp\ccxZPUS0.s:5083   .debug_line:0000000000000000 .Ldebug_line0
C:\Users\stapi\AppData\Local\Temp\ccxZPUS0.s:5265   .debug_str:0000000000000571 .LASF0
C:\Users\stapi\AppData\Local\Temp\ccxZPUS0.s:5381   .debug_str:00000000000008b0 .LASF2
C:\Users\stapi\AppData\Local\Temp\ccxZPUS0.s:5317   .debug_str:00000000000006e6 .LASF1
C:\Users\stapi\AppData\Local\Temp\ccxZPUS0.s:5347   .debug_str:00000000000007cb .LASF3
C:\Users\stapi\AppData\Local\Temp\ccxZPUS0.s:5285   .debug_str:0000000000000604 .LASF4
C:\Users\stapi\AppData\Local\Temp\ccxZPUS0.s:5149   .debug_str:00000000000001fe .LASF5
C:\Users\stapi\AppData\Local\Temp\ccxZPUS0.s:5383   .debug_str:00000000000008bc .LASF6
C:\Users\stapi\AppData\Local\Temp\ccxZPUS0.s:5289   .debug_str:0000000000000619 .LASF7
C:\Users\stapi\AppData\Local\Temp\ccxZPUS0.s:5349   .debug_str:00000000000007d9 .LASF8
C:\Users\stapi\AppData\Local\Temp\ccxZPUS0.s:5335   .debug_str:000000000000074e .LASF9
C:\Users\stapi\AppData\Local\Temp\ccxZPUS0.s:5235   .debug_str:00000000000004b7 .LASF10
C:\Users\stapi\AppData\Local\Temp\ccxZPUS0.s:5145   .debug_str:00000000000001d7 .LASF11
C:\Users\stapi\AppData\Local\Temp\ccxZPUS0.s:5101   .debug_str:0000000000000061 .LASF12
C:\Users\stapi\AppData\Local\Temp\ccxZPUS0.s:5133   .debug_str:000000000000018b .LASF13
C:\Users\stapi\AppData\Local\Temp\ccxZPUS0.s:5215   .debug_str:00000000000003b0 .LASF14
C:\Users\stapi\AppData\Local\Temp\ccxZPUS0.s:5275   .debug_str:00000000000005d3 .LASF15
C:\Users\stapi\AppData\Local\Temp\ccxZPUS0.s:5131   .debug_str:0000000000000182 .LASF16
C:\Users\stapi\AppData\Local\Temp\ccxZPUS0.s:5207   .debug_str:0000000000000374 .LASF17
C:\Users\stapi\AppData\Local\Temp\ccxZPUS0.s:5249   .debug_str:000000000000050c .LASF18
C:\Users\stapi\AppData\Local\Temp\ccxZPUS0.s:5193   .debug_str:000000000000031c .LASF19
C:\Users\stapi\AppData\Local\Temp\ccxZPUS0.s:5113   .debug_str:00000000000000a2 .LASF20
C:\Users\stapi\AppData\Local\Temp\ccxZPUS0.s:5283   .debug_str:00000000000005fe .LASF21
C:\Users\stapi\AppData\Local\Temp\ccxZPUS0.s:5377   .debug_str:0000000000000887 .LASF22
C:\Users\stapi\AppData\Local\Temp\ccxZPUS0.s:5403   .debug_str:0000000000000a2b .LASF23
C:\Users\stapi\AppData\Local\Temp\ccxZPUS0.s:5279   .debug_str:00000000000005e3 .LASF24
C:\Users\stapi\AppData\Local\Temp\ccxZPUS0.s:5201   .debug_str:0000000000000351 .LASF25
C:\Users\stapi\AppData\Local\Temp\ccxZPUS0.s:5389   .debug_str:00000000000008eb .LASF26
C:\Users\stapi\AppData\Local\Temp\ccxZPUS0.s:5311   .debug_str:00000000000006bb .LASF27
C:\Users\stapi\AppData\Local\Temp\ccxZPUS0.s:5153   .debug_str:0000000000000214 .LASF28
C:\Users\stapi\AppData\Local\Temp\ccxZPUS0.s:5199   .debug_str:0000000000000342 .LASF29
C:\Users\stapi\AppData\Local\Temp\ccxZPUS0.s:5097   .debug_str:0000000000000051 .LASF30
C:\Users\stapi\AppData\Local\Temp\ccxZPUS0.s:5127   .debug_str:0000000000000167 .LASF31
C:\Users\stapi\AppData\Local\Temp\ccxZPUS0.s:5319   .debug_str:00000000000006f0 .LASF32
C:\Users\stapi\AppData\Local\Temp\ccxZPUS0.s:5385   .debug_str:00000000000008cf .LASF33
C:\Users\stapi\AppData\Local\Temp\ccxZPUS0.s:5243   .debug_str:00000000000004ec .LASF34
C:\Users\stapi\AppData\Local\Temp\ccxZPUS0.s:5369   .debug_str:000000000000084e .LASF35
C:\Users\stapi\AppData\Local\Temp\ccxZPUS0.s:5125   .debug_str:000000000000015f .LASF36
C:\Users\stapi\AppData\Local\Temp\ccxZPUS0.s:5095   .debug_str:0000000000000048 .LASF37
C:\Users\stapi\AppData\Local\Temp\ccxZPUS0.s:5099   .debug_str:0000000000000059 .LASF38
C:\Users\stapi\AppData\Local\Temp\ccxZPUS0.s:5107   .debug_str:0000000000000082 .LASF39
C:\Users\stapi\AppData\Local\Temp\ccxZPUS0.s:5323   .debug_str:0000000000000700 .LASF40
C:\Users\stapi\AppData\Local\Temp\ccxZPUS0.s:5203   .debug_str:000000000000035d .LASF41
C:\Users\stapi\AppData\Local\Temp\ccxZPUS0.s:5255   .debug_str:000000000000052a .LASF42
C:\Users\stapi\AppData\Local\Temp\ccxZPUS0.s:5333   .debug_str:0000000000000743 .LASF43
C:\Users\stapi\AppData\Local\Temp\ccxZPUS0.s:5187   .debug_str:00000000000002f5 .LASF44
C:\Users\stapi\AppData\Local\Temp\ccxZPUS0.s:5239   .debug_str:00000000000004d9 .LASF45
C:\Users\stapi\AppData\Local\Temp\ccxZPUS0.s:5315   .debug_str:00000000000006dd .LASF48
C:\Users\stapi\AppData\Local\Temp\ccxZPUS0.s:5357   .debug_str:0000000000000806 .LASF50
C:\Users\stapi\AppData\Local\Temp\ccxZPUS0.s:5287   .debug_str:000000000000060e .LASF46
C:\Users\stapi\AppData\Local\Temp\ccxZPUS0.s:5391   .debug_str:00000000000008f3 .LASF47
C:\Users\stapi\AppData\Local\Temp\ccxZPUS0.s:5179   .debug_str:00000000000002d5 .LASF49
C:\Users\stapi\AppData\Local\Temp\ccxZPUS0.s:5103   .debug_str:000000000000006e .LASF51
C:\Users\stapi\AppData\Local\Temp\ccxZPUS0.s:5171   .debug_str:00000000000002ae .LASF52
C:\Users\stapi\AppData\Local\Temp\ccxZPUS0.s:5167   .debug_str:000000000000028d .LASF53
C:\Users\stapi\AppData\Local\Temp\ccxZPUS0.s:5165   .debug_str:000000000000027f .LASF54
C:\Users\stapi\AppData\Local\Temp\ccxZPUS0.s:5093   .debug_str:0000000000000042 .LASF55
C:\Users\stapi\AppData\Local\Temp\ccxZPUS0.s:5277   .debug_str:00000000000005dc .LASF56
C:\Users\stapi\AppData\Local\Temp\ccxZPUS0.s:5331   .debug_str:0000000000000736 .LASF57
C:\Users\stapi\AppData\Local\Temp\ccxZPUS0.s:5303   .debug_str:0000000000000685 .LASF58
C:\Users\stapi\AppData\Local\Temp\ccxZPUS0.s:5247   .debug_str:00000000000004ff .LASF59
C:\Users\stapi\AppData\Local\Temp\ccxZPUS0.s:5085   .debug_str:0000000000000000 .LASF60
C:\Users\stapi\AppData\Local\Temp\ccxZPUS0.s:5353   .debug_str:00000000000007ed .LASF61
C:\Users\stapi\AppData\Local\Temp\ccxZPUS0.s:5259   .debug_str:0000000000000544 .LASF62
C:\Users\stapi\AppData\Local\Temp\ccxZPUS0.s:5253   .debug_str:000000000000051b .LASF63
C:\Users\stapi\AppData\Local\Temp\ccxZPUS0.s:5327   .debug_str:000000000000071e .LASF64
C:\Users\stapi\AppData\Local\Temp\ccxZPUS0.s:5231   .debug_str:00000000000004a3 .LASF65
C:\Users\stapi\AppData\Local\Temp\ccxZPUS0.s:5197   .debug_str:0000000000000335 .LASF66
C:\Users\stapi\AppData\Local\Temp\ccxZPUS0.s:5137   .debug_str:00000000000001a2 .LASF67
C:\Users\stapi\AppData\Local\Temp\ccxZPUS0.s:5157   .debug_str:0000000000000227 .LASF68
C:\Users\stapi\AppData\Local\Temp\ccxZPUS0.s:5135   .debug_str:0000000000000192 .LASF69
C:\Users\stapi\AppData\Local\Temp\ccxZPUS0.s:5295   .debug_str:000000000000063f .LASF70
C:\Users\stapi\AppData\Local\Temp\ccxZPUS0.s:5395   .debug_str:00000000000009f6 .LASF71
C:\Users\stapi\AppData\Local\Temp\ccxZPUS0.s:5373   .debug_str:0000000000000864 .LASF72
C:\Users\stapi\AppData\Local\Temp\ccxZPUS0.s:5123   .debug_str:0000000000000150 .LASF73
C:\Users\stapi\AppData\Local\Temp\ccxZPUS0.s:5189   .debug_str:00000000000002ff .LASF74
C:\Users\stapi\AppData\Local\Temp\ccxZPUS0.s:5163   .debug_str:0000000000000259 .LASF78
C:\Users\stapi\AppData\Local\Temp\ccxZPUS0.s:5379   .debug_str:000000000000088e .LASF75
C:\Users\stapi\AppData\Local\Temp\ccxZPUS0.s:5091   .debug_str:0000000000000020 .LASF76
C:\Users\stapi\AppData\Local\Temp\ccxZPUS0.s:5273   .debug_str:00000000000005b2 .LASF77
C:\Users\stapi\AppData\Local\Temp\ccxZPUS0.s:5339   .debug_str:000000000000076e .LASF79
C:\Users\stapi\AppData\Local\Temp\ccxZPUS0.s:5263   .debug_str:000000000000055c .LASF80
C:\Users\stapi\AppData\Local\Temp\ccxZPUS0.s:5213   .debug_str:000000000000039b .LASF81
C:\Users\stapi\AppData\Local\Temp\ccxZPUS0.s:5365   .debug_str:0000000000000838 .LASF82
C:\Users\stapi\AppData\Local\Temp\ccxZPUS0.s:5405   .debug_str:0000000000000a33 .LASF83
C:\Users\stapi\AppData\Local\Temp\ccxZPUS0.s:5233   .debug_str:00000000000004af .LASF84
C:\Users\stapi\AppData\Local\Temp\ccxZPUS0.s:5087   .debug_str:0000000000000014 .LASF85
C:\Users\stapi\AppData\Local\Temp\ccxZPUS0.s:5173   .debug_str:00000000000002b6 .LASF86
C:\Users\stapi\AppData\Local\Temp\ccxZPUS0.s:5109   .debug_str:0000000000000088 .LASF87
C:\Users\stapi\AppData\Local\Temp\ccxZPUS0.s:5361   .debug_str:000000000000081a .LASF88
C:\Users\stapi\AppData\Local\Temp\ccxZPUS0.s:5205   .debug_str:0000000000000368 .LASF89
C:\Users\stapi\AppData\Local\Temp\ccxZPUS0.s:5141   .debug_str:00000000000001c5 .LASF90
C:\Users\stapi\AppData\Local\Temp\ccxZPUS0.s:5151   .debug_str:0000000000000209 .LASF91
C:\Users\stapi\AppData\Local\Temp\ccxZPUS0.s:5321   .debug_str:00000000000006fb .LASF92
C:\Users\stapi\AppData\Local\Temp\ccxZPUS0.s:5329   .debug_str:000000000000072d .LASF93
C:\Users\stapi\AppData\Local\Temp\ccxZPUS0.s:5211   .debug_str:000000000000038b .LASF94
C:\Users\stapi\AppData\Local\Temp\ccxZPUS0.s:5301   .debug_str:000000000000067a .LASF95
C:\Users\stapi\AppData\Local\Temp\ccxZPUS0.s:5175   .debug_str:00000000000002bd .LASF96
C:\Users\stapi\AppData\Local\Temp\ccxZPUS0.s:5129   .debug_str:0000000000000173 .LASF97
C:\Users\stapi\AppData\Local\Temp\ccxZPUS0.s:5121   .debug_str:0000000000000140 .LASF98
C:\Users\stapi\AppData\Local\Temp\ccxZPUS0.s:5325   .debug_str:000000000000070a .LASF99
C:\Users\stapi\AppData\Local\Temp\ccxZPUS0.s:5375   .debug_str:000000000000086e .LASF100
C:\Users\stapi\AppData\Local\Temp\ccxZPUS0.s:5147   .debug_str:00000000000001ee .LASF158
C:\Users\stapi\AppData\Local\Temp\ccxZPUS0.s:5161   .debug_str:0000000000000246 .LASF101
C:\Users\stapi\AppData\Local\Temp\ccxZPUS0.s:5297   .debug_str:0000000000000650 .LASF102
C:\Users\stapi\AppData\Local\Temp\ccxZPUS0.s:5195   .debug_str:0000000000000321 .LASF103
C:\Users\stapi\AppData\Local\Temp\ccxZPUS0.s:5115   .debug_str:00000000000000a8 .LASF104
C:\Users\stapi\AppData\Local\Temp\ccxZPUS0.s:5401   .debug_str:0000000000000a19 .LASF105
C:\Users\stapi\AppData\Local\Temp\ccxZPUS0.s:5229   .debug_str:0000000000000494 .LASF106
C:\Users\stapi\AppData\Local\Temp\ccxZPUS0.s:5139   .debug_str:00000000000001b5 .LASF107
C:\Users\stapi\AppData\Local\Temp\ccxZPUS0.s:5221   .debug_str:0000000000000440 .LASF108
C:\Users\stapi\AppData\Local\Temp\ccxZPUS0.s:5343   .debug_str:00000000000007ac .LASF109
C:\Users\stapi\AppData\Local\Temp\ccxZPUS0.s:5183   .debug_str:00000000000002df .LASF110
C:\Users\stapi\AppData\Local\Temp\ccxZPUS0.s:5351   .debug_str:00000000000007e4 .LASF111
C:\Users\stapi\AppData\Local\Temp\ccxZPUS0.s:5399   .debug_str:0000000000000a0f .LASF112
C:\Users\stapi\AppData\Local\Temp\ccxZPUS0.s:5345   .debug_str:00000000000007c6 .LASF113
C:\Users\stapi\AppData\Local\Temp\ccxZPUS0.s:5367   .debug_str:000000000000083e .LASF114
C:\Users\stapi\AppData\Local\Temp\ccxZPUS0.s:5191   .debug_str:0000000000000308 .LASF115
C:\Users\stapi\AppData\Local\Temp\ccxZPUS0.s:5143   .debug_str:00000000000001cc .LASF116
C:\Users\stapi\AppData\Local\Temp\ccxZPUS0.s:5209   .debug_str:0000000000000379 .LASF117
C:\Users\stapi\AppData\Local\Temp\ccxZPUS0.s:1051   .text.mem_free_callback:0000000000000000 .LFB19
C:\Users\stapi\AppData\Local\Temp\ccxZPUS0.s:1065   .text.mem_free_callback:0000000000000012 .LFE19
C:\Users\stapi\AppData\Local\Temp\ccxZPUS0.s:4370   .debug_loc:0000000000000000 .LLST38
C:\Users\stapi\AppData\Local\Temp\ccxZPUS0.s:1063   .text.mem_free_callback:0000000000000012 .LVL109
C:\Users\stapi\AppData\Local\Temp\ccxZPUS0.s:5119   .debug_str:000000000000012d .LASF118
C:\Users\stapi\AppData\Local\Temp\ccxZPUS0.s:1030   .text.pbuf_free_callback:0000000000000000 .LFB18
C:\Users\stapi\AppData\Local\Temp\ccxZPUS0.s:1044   .text.pbuf_free_callback:0000000000000012 .LFE18
C:\Users\stapi\AppData\Local\Temp\ccxZPUS0.s:4388   .debug_loc:000000000000002c .LLST37
C:\Users\stapi\AppData\Local\Temp\ccxZPUS0.s:1042   .text.pbuf_free_callback:0000000000000012 .LVL106
C:\Users\stapi\AppData\Local\Temp\ccxZPUS0.s:5267   .debug_str:000000000000057a .LASF133
C:\Users\stapi\AppData\Local\Temp\ccxZPUS0.s:13     .text.pbuf_free_int:0000000000000000 .LFB17
C:\Users\stapi\AppData\Local\Temp\ccxZPUS0.s:23     .text.pbuf_free_int:0000000000000008 .LFE17
C:\Users\stapi\AppData\Local\Temp\ccxZPUS0.s:4406   .debug_loc:0000000000000058 .LLST0
C:\Users\stapi\AppData\Local\Temp\ccxZPUS0.s:4420   .debug_loc:0000000000000079 .LLST1
C:\Users\stapi\AppData\Local\Temp\ccxZPUS0.s:21     .text.pbuf_free_int:0000000000000008 .LVL1
C:\Users\stapi\AppData\Local\Temp\ccxZPUS0.s:5155   .debug_str:000000000000021c .LASF122
C:\Users\stapi\AppData\Local\Temp\ccxZPUS0.s:918    .text.tcpip_init:0000000000000000 .LFB16
C:\Users\stapi\AppData\Local\Temp\ccxZPUS0.s:1023   .text.tcpip_init:00000000000000be .LFE16
C:\Users\stapi\AppData\Local\Temp\ccxZPUS0.s:5261   .debug_str:0000000000000553 .LASF119
C:\Users\stapi\AppData\Local\Temp\ccxZPUS0.s:4434   .debug_loc:000000000000009a .LLST35
C:\Users\stapi\AppData\Local\Temp\ccxZPUS0.s:4445   .debug_loc:00000000000000b8 .LLST36
C:\Users\stapi\AppData\Local\Temp\ccxZPUS0.s:933    .text.tcpip_init:0000000000000014 .LVL98
C:\Users\stapi\AppData\Local\Temp\ccxZPUS0.s:953    .text.tcpip_init:0000000000000036 .LVL99
C:\Users\stapi\AppData\Local\Temp\ccxZPUS0.s:968    .text.tcpip_init:000000000000005c .LVL100
C:\Users\stapi\AppData\Local\Temp\ccxZPUS0.s:982    .text.tcpip_init:000000000000006e .LVL101
C:\Users\stapi\AppData\Local\Temp\ccxZPUS0.s:997    .text.tcpip_init:0000000000000094 .LVL102
C:\Users\stapi\AppData\Local\Temp\ccxZPUS0.s:1015   .text.tcpip_init:00000000000000b6 .LVL103
C:\Users\stapi\AppData\Local\Temp\ccxZPUS0.s:5341   .debug_str:0000000000000786 .LASF120
C:\Users\stapi\AppData\Local\Temp\ccxZPUS0.s:854    .text.tcpip_callbackmsg_trycallback_fromisr:0000000000000000 .LFB15
C:\Users\stapi\AppData\Local\Temp\ccxZPUS0.s:901    .text.tcpip_callbackmsg_trycallback_fromisr:000000000000004e .LFE15
C:\Users\stapi\AppData\Local\Temp\ccxZPUS0.s:4456   .debug_loc:00000000000000d6 .LLST34
C:\Users\stapi\AppData\Local\Temp\ccxZPUS0.s:881    .text.tcpip_callbackmsg_trycallback_fromisr:0000000000000038 .LVL94
C:\Users\stapi\AppData\Local\Temp\ccxZPUS0.s:895    .text.tcpip_callbackmsg_trycallback_fromisr:0000000000000046 .LVL96
C:\Users\stapi\AppData\Local\Temp\ccxZPUS0.s:5387   .debug_str:00000000000008d8 .LASF159
C:\Users\stapi\AppData\Local\Temp\ccxZPUS0.s:5225   .debug_str:000000000000046a .LASF121
C:\Users\stapi\AppData\Local\Temp\ccxZPUS0.s:800    .text.tcpip_callbackmsg_trycallback:0000000000000000 .LFB14
C:\Users\stapi\AppData\Local\Temp\ccxZPUS0.s:847    .text.tcpip_callbackmsg_trycallback:000000000000004e .LFE14
C:\Users\stapi\AppData\Local\Temp\ccxZPUS0.s:4485   .debug_loc:000000000000011b .LLST33
C:\Users\stapi\AppData\Local\Temp\ccxZPUS0.s:827    .text.tcpip_callbackmsg_trycallback:0000000000000038 .LVL88
C:\Users\stapi\AppData\Local\Temp\ccxZPUS0.s:841    .text.tcpip_callbackmsg_trycallback:0000000000000046 .LVL90
C:\Users\stapi\AppData\Local\Temp\ccxZPUS0.s:5269   .debug_str:0000000000000588 .LASF123
C:\Users\stapi\AppData\Local\Temp\ccxZPUS0.s:780    .text.tcpip_callbackmsg_delete:0000000000000000 .LFB13
C:\Users\stapi\AppData\Local\Temp\ccxZPUS0.s:793    .text.tcpip_callbackmsg_delete:000000000000000c .LFE13
C:\Users\stapi\AppData\Local\Temp\ccxZPUS0.s:4514   .debug_loc:0000000000000160 .LLST32
C:\Users\stapi\AppData\Local\Temp\ccxZPUS0.s:791    .text.tcpip_callbackmsg_delete:000000000000000c .LVL84
C:\Users\stapi\AppData\Local\Temp\ccxZPUS0.s:5293   .debug_str:0000000000000629 .LASF124
C:\Users\stapi\AppData\Local\Temp\ccxZPUS0.s:731    .text.tcpip_callbackmsg_new:0000000000000000 .LFB12
C:\Users\stapi\AppData\Local\Temp\ccxZPUS0.s:773    .text.tcpip_callbackmsg_new:0000000000000028 .LFE12
C:\Users\stapi\AppData\Local\Temp\ccxZPUS0.s:4532   .debug_loc:000000000000018c .LLST30
C:\Users\stapi\AppData\Local\Temp\ccxZPUS0.s:4543   .debug_loc:00000000000001aa .LLST31
C:\Users\stapi\AppData\Local\Temp\ccxZPUS0.s:750    .text.tcpip_callbackmsg_new:0000000000000016 .LVL81
C:\Users\stapi\AppData\Local\Temp\ccxZPUS0.s:5111   .debug_str:0000000000000093 .LASF125
C:\Users\stapi\AppData\Local\Temp\ccxZPUS0.s:680    .text.tcpip_api_call:0000000000000000 .LFB11
C:\Users\stapi\AppData\Local\Temp\ccxZPUS0.s:724    .text.tcpip_api_call:0000000000000038 .LFE11
C:\Users\stapi\AppData\Local\Temp\ccxZPUS0.s:4554   .debug_loc:00000000000001c8 .LLST28
C:\Users\stapi\AppData\Local\Temp\ccxZPUS0.s:5181   .debug_str:00000000000002da .LASF126
C:\Users\stapi\AppData\Local\Temp\ccxZPUS0.s:4572   .debug_loc:00000000000001f4 .LLST29
C:\Users\stapi\AppData\Local\Temp\ccxZPUS0.s:702    .text.tcpip_api_call:000000000000001c .LVL75
C:\Users\stapi\AppData\Local\Temp\ccxZPUS0.s:707    .text.tcpip_api_call:0000000000000020 .LVL76
C:\Users\stapi\AppData\Local\Temp\ccxZPUS0.s:713    .text.tcpip_api_call:000000000000002e .LVL78
C:\Users\stapi\AppData\Local\Temp\ccxZPUS0.s:5363   .debug_str:0000000000000820 .LASF127
C:\Users\stapi\AppData\Local\Temp\ccxZPUS0.s:632    .text.tcpip_send_msg_wait_sem:0000000000000000 .LFB10
C:\Users\stapi\AppData\Local\Temp\ccxZPUS0.s:673    .text.tcpip_send_msg_wait_sem:0000000000000036 .LFE10
C:\Users\stapi\AppData\Local\Temp\ccxZPUS0.s:4583   .debug_loc:0000000000000212 .LLST25
C:\Users\stapi\AppData\Local\Temp\ccxZPUS0.s:5291   .debug_str:0000000000000622 .LASF128
C:\Users\stapi\AppData\Local\Temp\ccxZPUS0.s:4594   .debug_loc:0000000000000230 .LLST26
C:\Users\stapi\AppData\Local\Temp\ccxZPUS0.s:4605   .debug_loc:000000000000024e .LLST27
C:\Users\stapi\AppData\Local\Temp\ccxZPUS0.s:654    .text.tcpip_send_msg_wait_sem:000000000000001c .LVL70
C:\Users\stapi\AppData\Local\Temp\ccxZPUS0.s:658    .text.tcpip_send_msg_wait_sem:0000000000000020 .LVL71
C:\Users\stapi\AppData\Local\Temp\ccxZPUS0.s:662    .text.tcpip_send_msg_wait_sem:000000000000002c .LVL72
C:\Users\stapi\AppData\Local\Temp\ccxZPUS0.s:5313   .debug_str:00000000000006ca .LASF131
C:\Users\stapi\AppData\Local\Temp\ccxZPUS0.s:5359   .debug_str:000000000000080b .LASF129
C:\Users\stapi\AppData\Local\Temp\ccxZPUS0.s:433    .text.tcpip_callback:0000000000000000 .LFB8
C:\Users\stapi\AppData\Local\Temp\ccxZPUS0.s:516    .text.tcpip_callback:000000000000006a .LFE8
C:\Users\stapi\AppData\Local\Temp\ccxZPUS0.s:4619   .debug_loc:000000000000026f .LLST17
C:\Users\stapi\AppData\Local\Temp\ccxZPUS0.s:4641   .debug_loc:00000000000002a6 .LLST18
C:\Users\stapi\AppData\Local\Temp\ccxZPUS0.s:4663   .debug_loc:00000000000002dd .LLST19
C:\Users\stapi\AppData\Local\Temp\ccxZPUS0.s:461    .text.tcpip_callback:0000000000000036 .LVL48
C:\Users\stapi\AppData\Local\Temp\ccxZPUS0.s:479    .text.tcpip_callback:0000000000000046 .LVL51
C:\Users\stapi\AppData\Local\Temp\ccxZPUS0.s:503    .text.tcpip_callback:0000000000000060 .LVL54
C:\Users\stapi\AppData\Local\Temp\ccxZPUS0.s:5245   .debug_str:00000000000004f3 .LASF130
C:\Users\stapi\AppData\Local\Temp\ccxZPUS0.s:402    .text.tcpip_input:0000000000000000 .LFB7
C:\Users\stapi\AppData\Local\Temp\ccxZPUS0.s:426    .text.tcpip_input:0000000000000022 .LFE7
C:\Users\stapi\AppData\Local\Temp\ccxZPUS0.s:4674   .debug_loc:00000000000002fb .LLST15
C:\Users\stapi\AppData\Local\Temp\ccxZPUS0.s:4692   .debug_loc:0000000000000327 .LLST16
C:\Users\stapi\AppData\Local\Temp\ccxZPUS0.s:418    .text.tcpip_input:0000000000000018 .LVL44
C:\Users\stapi\AppData\Local\Temp\ccxZPUS0.s:5355   .debug_str:00000000000007fa .LASF132
C:\Users\stapi\AppData\Local\Temp\ccxZPUS0.s:5299   .debug_str:0000000000000662 .LASF135
C:\Users\stapi\AppData\Local\Temp\ccxZPUS0.s:5185   .debug_str:00000000000002e8 .LASF134
C:\Users\stapi\AppData\Local\Temp\ccxZPUS0.s:39     .text.tcpip_thread:0000000000000000 .LFB4
C:\Users\stapi\AppData\Local\Temp\ccxZPUS0.s:276    .text.tcpip_thread:000000000000013c .LFE4
C:\Users\stapi\AppData\Local\Temp\ccxZPUS0.s:4710   .debug_loc:0000000000000353 .LLST2
C:\Users\stapi\AppData\Local\Temp\ccxZPUS0.s:77     .text.tcpip_thread:000000000000002e .LBB6
C:\Users\stapi\AppData\Local\Temp\ccxZPUS0.s:4724   .debug_loc:0000000000000374 .LLST3
C:\Users\stapi\AppData\Local\Temp\ccxZPUS0.s:4733   .debug_loc:000000000000038c .LLST4
C:\Users\stapi\AppData\Local\Temp\ccxZPUS0.s:4742   .debug_loc:00000000000003a1 .LLST5
C:\Users\stapi\AppData\Local\Temp\ccxZPUS0.s:4762   .debug_loc:00000000000003d6 .LLST6
C:\Users\stapi\AppData\Local\Temp\ccxZPUS0.s:100    .text.tcpip_thread:0000000000000040 .LVL6
C:\Users\stapi\AppData\Local\Temp\ccxZPUS0.s:108    .text.tcpip_thread:0000000000000050 .LVL8
C:\Users\stapi\AppData\Local\Temp\ccxZPUS0.s:114    .text.tcpip_thread:0000000000000060 .LVL9
C:\Users\stapi\AppData\Local\Temp\ccxZPUS0.s:118    .text.tcpip_thread:000000000000006c .LVL10
C:\Users\stapi\AppData\Local\Temp\ccxZPUS0.s:158    .text.tcpip_thread:00000000000000a0 .LVL14
C:\Users\stapi\AppData\Local\Temp\ccxZPUS0.s:168    .text.tcpip_thread:00000000000000b0 .LVL17
C:\Users\stapi\AppData\Local\Temp\ccxZPUS0.s:175    .text.tcpip_thread:00000000000000c0 .LVL18
C:\Users\stapi\AppData\Local\Temp\ccxZPUS0.s:181    .text.tcpip_thread:00000000000000ce .LVL20
C:\Users\stapi\AppData\Local\Temp\ccxZPUS0.s:85     .text.tcpip_thread:0000000000000034 .LBB10
C:\Users\stapi\AppData\Local\Temp\ccxZPUS0.s:4769   .debug_loc:00000000000003e9 .LLST7
C:\Users\stapi\AppData\Local\Temp\ccxZPUS0.s:213    .text.tcpip_thread:00000000000000f4 .LVL23
C:\Users\stapi\AppData\Local\Temp\ccxZPUS0.s:221    .text.tcpip_thread:0000000000000100 .LVL24
C:\Users\stapi\AppData\Local\Temp\ccxZPUS0.s:267    .text.tcpip_thread:000000000000013a .LVL28
C:\Users\stapi\AppData\Local\Temp\ccxZPUS0.s:64     .text.tcpip_thread:000000000000001a .LVL4
C:\Users\stapi\AppData\Local\Temp\ccxZPUS0.s:141    .text.tcpip_thread:0000000000000094 .LVL11
C:\Users\stapi\AppData\Local\Temp\ccxZPUS0.s:5307   .debug_str:000000000000069c .LASF136
C:\Users\stapi\AppData\Local\Temp\ccxZPUS0.s:5309   .debug_str:00000000000006b6 .LASF137
C:\Users\stapi\AppData\Local\Temp\ccxZPUS0.s:5251   .debug_str:0000000000000511 .LASF138
C:\Users\stapi\AppData\Local\Temp\ccxZPUS0.s:5089   .debug_str:000000000000001a .LASF160
C:\Users\stapi\AppData\Local\Temp\ccxZPUS0.s:287    .text.tcpip_inpkt:0000000000000000 .LFB6
C:\Users\stapi\AppData\Local\Temp\ccxZPUS0.s:395    .text.tcpip_inpkt:0000000000000084 .LFE6
C:\Users\stapi\AppData\Local\Temp\ccxZPUS0.s:4780   .debug_loc:0000000000000407 .LLST8
C:\Users\stapi\AppData\Local\Temp\ccxZPUS0.s:4802   .debug_loc:000000000000043e .LLST9
C:\Users\stapi\AppData\Local\Temp\ccxZPUS0.s:4824   .debug_loc:0000000000000475 .LLST10
C:\Users\stapi\AppData\Local\Temp\ccxZPUS0.s:4846   .debug_loc:00000000000004ac .LLST11
C:\Users\stapi\AppData\Local\Temp\ccxZPUS0.s:309    .text.tcpip_inpkt:0000000000000014 .LBB20
C:\Users\stapi\AppData\Local\Temp\ccxZPUS0.s:334    .text.tcpip_inpkt:000000000000003c .LBE20
C:\Users\stapi\AppData\Local\Temp\ccxZPUS0.s:4862   .debug_loc:00000000000004d6 .LLST12
C:\Users\stapi\AppData\Local\Temp\ccxZPUS0.s:4876   .debug_loc:00000000000004f7 .LLST13
C:\Users\stapi\AppData\Local\Temp\ccxZPUS0.s:4890   .debug_loc:0000000000000518 .LLST14
C:\Users\stapi\AppData\Local\Temp\ccxZPUS0.s:324    .text.tcpip_inpkt:0000000000000038 .LVL34
C:\Users\stapi\AppData\Local\Temp\ccxZPUS0.s:345    .text.tcpip_inpkt:000000000000004a .LVL37
C:\Users\stapi\AppData\Local\Temp\ccxZPUS0.s:371    .text.tcpip_inpkt:000000000000006a .LVL40
C:\Users\stapi\AppData\Local\Temp\ccxZPUS0.s:378    .text.tcpip_inpkt:0000000000000078 .LVL41
C:\Users\stapi\AppData\Local\Temp\ccxZPUS0.s:523    .text.tcpip_try_callback:0000000000000000 .LFB9
C:\Users\stapi\AppData\Local\Temp\ccxZPUS0.s:625    .text.tcpip_try_callback:000000000000007e .LFE9
C:\Users\stapi\AppData\Local\Temp\ccxZPUS0.s:4904   .debug_loc:0000000000000539 .LLST20
C:\Users\stapi\AppData\Local\Temp\ccxZPUS0.s:4926   .debug_loc:0000000000000570 .LLST21
C:\Users\stapi\AppData\Local\Temp\ccxZPUS0.s:4948   .debug_loc:00000000000005a7 .LLST22
C:\Users\stapi\AppData\Local\Temp\ccxZPUS0.s:544    .text.tcpip_try_callback:0000000000000014 .LBB24
C:\Users\stapi\AppData\Local\Temp\ccxZPUS0.s:568    .text.tcpip_try_callback:000000000000003c .LBE24
C:\Users\stapi\AppData\Local\Temp\ccxZPUS0.s:4964   .debug_loc:00000000000005d1 .LLST23
C:\Users\stapi\AppData\Local\Temp\ccxZPUS0.s:4978   .debug_loc:00000000000005f2 .LLST24
C:\Users\stapi\AppData\Local\Temp\ccxZPUS0.s:558    .text.tcpip_try_callback:0000000000000038 .LVL59
C:\Users\stapi\AppData\Local\Temp\ccxZPUS0.s:578    .text.tcpip_try_callback:0000000000000048 .LVL62
C:\Users\stapi\AppData\Local\Temp\ccxZPUS0.s:602    .text.tcpip_try_callback:0000000000000064 .LVL65
C:\Users\stapi\AppData\Local\Temp\ccxZPUS0.s:609    .text.tcpip_try_callback:0000000000000072 .LVL66
C:\Users\stapi\AppData\Local\Temp\ccxZPUS0.s:5219   .debug_str:0000000000000436 .LASF139
C:\Users\stapi\AppData\Local\Temp\ccxZPUS0.s:5305   .debug_str:0000000000000692 .LASF140
C:\Users\stapi\AppData\Local\Temp\ccxZPUS0.s:5371   .debug_str:0000000000000857 .LASF141
C:\Users\stapi\AppData\Local\Temp\ccxZPUS0.s:5241   .debug_str:00000000000004e5 .LASF142
C:\Users\stapi\AppData\Local\Temp\ccxZPUS0.s:5257   .debug_str:0000000000000535 .LASF143
C:\Users\stapi\AppData\Local\Temp\ccxZPUS0.s:5105   .debug_str:0000000000000073 .LASF144
C:\Users\stapi\AppData\Local\Temp\ccxZPUS0.s:5169   .debug_str:0000000000000295 .LASF145
C:\Users\stapi\AppData\Local\Temp\ccxZPUS0.s:5271   .debug_str:00000000000005a1 .LASF146
C:\Users\stapi\AppData\Local\Temp\ccxZPUS0.s:5159   .debug_str:000000000000023c .LASF147
C:\Users\stapi\AppData\Local\Temp\ccxZPUS0.s:5227   .debug_str:0000000000000488 .LASF148
C:\Users\stapi\AppData\Local\Temp\ccxZPUS0.s:5177   .debug_str:00000000000002c7 .LASF149
C:\Users\stapi\AppData\Local\Temp\ccxZPUS0.s:5397   .debug_str:0000000000000a01 .LASF150
C:\Users\stapi\AppData\Local\Temp\ccxZPUS0.s:5337   .debug_str:0000000000000760 .LASF151
C:\Users\stapi\AppData\Local\Temp\ccxZPUS0.s:5223   .debug_str:0000000000000453 .LASF152
C:\Users\stapi\AppData\Local\Temp\ccxZPUS0.s:5237   .debug_str:00000000000004c5 .LASF153
C:\Users\stapi\AppData\Local\Temp\ccxZPUS0.s:5281   .debug_str:00000000000005eb .LASF154
C:\Users\stapi\AppData\Local\Temp\ccxZPUS0.s:1054   .text.mem_free_callback:0000000000000000 .LVL107
C:\Users\stapi\AppData\Local\Temp\ccxZPUS0.s:1060   .text.mem_free_callback:0000000000000006 .LVL108
C:\Users\stapi\AppData\Local\Temp\ccxZPUS0.s:1033   .text.pbuf_free_callback:0000000000000000 .LVL104
C:\Users\stapi\AppData\Local\Temp\ccxZPUS0.s:1039   .text.pbuf_free_callback:0000000000000006 .LVL105
C:\Users\stapi\AppData\Local\Temp\ccxZPUS0.s:17     .text.pbuf_free_int:0000000000000000 .LVL0
C:\Users\stapi\AppData\Local\Temp\ccxZPUS0.s:921    .text.tcpip_init:0000000000000000 .LVL97
C:\Users\stapi\AppData\Local\Temp\ccxZPUS0.s:857    .text.tcpip_callbackmsg_trycallback_fromisr:0000000000000000 .LVL91
C:\Users\stapi\AppData\Local\Temp\ccxZPUS0.s:867    .text.tcpip_callbackmsg_trycallback_fromisr:000000000000000e .LVL92
C:\Users\stapi\AppData\Local\Temp\ccxZPUS0.s:874    .text.tcpip_callbackmsg_trycallback_fromisr:000000000000001c .LVL93
C:\Users\stapi\AppData\Local\Temp\ccxZPUS0.s:887    .text.tcpip_callbackmsg_trycallback_fromisr:000000000000003a .LVL95
C:\Users\stapi\AppData\Local\Temp\ccxZPUS0.s:803    .text.tcpip_callbackmsg_trycallback:0000000000000000 .LVL85
C:\Users\stapi\AppData\Local\Temp\ccxZPUS0.s:813    .text.tcpip_callbackmsg_trycallback:000000000000000e .LVL86
C:\Users\stapi\AppData\Local\Temp\ccxZPUS0.s:820    .text.tcpip_callbackmsg_trycallback:000000000000001c .LVL87
C:\Users\stapi\AppData\Local\Temp\ccxZPUS0.s:833    .text.tcpip_callbackmsg_trycallback:000000000000003a .LVL89
C:\Users\stapi\AppData\Local\Temp\ccxZPUS0.s:783    .text.tcpip_callbackmsg_delete:0000000000000000 .LVL82
C:\Users\stapi\AppData\Local\Temp\ccxZPUS0.s:789    .text.tcpip_callbackmsg_delete:0000000000000004 .LVL83
C:\Users\stapi\AppData\Local\Temp\ccxZPUS0.s:734    .text.tcpip_callbackmsg_new:0000000000000000 .LVL79
C:\Users\stapi\AppData\Local\Temp\ccxZPUS0.s:745    .text.tcpip_callbackmsg_new:000000000000000c .LVL80
C:\Users\stapi\AppData\Local\Temp\ccxZPUS0.s:683    .text.tcpip_api_call:0000000000000000 .LVL73
C:\Users\stapi\AppData\Local\Temp\ccxZPUS0.s:697    .text.tcpip_api_call:0000000000000012 .LVL74
C:\Users\stapi\AppData\Local\Temp\ccxZPUS0.s:709    .text.tcpip_api_call:0000000000000022 .LVL77
C:\Users\stapi\AppData\Local\Temp\ccxZPUS0.s:635    .text.tcpip_send_msg_wait_sem:0000000000000000 .LVL68
C:\Users\stapi\AppData\Local\Temp\ccxZPUS0.s:649    .text.tcpip_send_msg_wait_sem:0000000000000012 .LVL69
C:\Users\stapi\AppData\Local\Temp\ccxZPUS0.s:436    .text.tcpip_callback:0000000000000000 .LVL45
C:\Users\stapi\AppData\Local\Temp\ccxZPUS0.s:455    .text.tcpip_callback:000000000000001e .LVL47
C:\Users\stapi\AppData\Local\Temp\ccxZPUS0.s:467    .text.tcpip_callback:0000000000000038 .LVL49
C:\Users\stapi\AppData\Local\Temp\ccxZPUS0.s:472    .text.tcpip_callback:000000000000003c .LVL50
C:\Users\stapi\AppData\Local\Temp\ccxZPUS0.s:453    .text.tcpip_callback:000000000000001a .LVL46
C:\Users\stapi\AppData\Local\Temp\ccxZPUS0.s:481    .text.tcpip_callback:0000000000000048 .LVL52
C:\Users\stapi\AppData\Local\Temp\ccxZPUS0.s:485    .text.tcpip_callback:000000000000004a .LVL53
C:\Users\stapi\AppData\Local\Temp\ccxZPUS0.s:405    .text.tcpip_input:0000000000000000 .LVL43
C:\Users\stapi\AppData\Local\Temp\ccxZPUS0.s:42     .text.tcpip_thread:0000000000000000 .LVL2
C:\Users\stapi\AppData\Local\Temp\ccxZPUS0.s:62     .text.tcpip_thread:0000000000000012 .LVL3
C:\Users\stapi\AppData\Local\Temp\ccxZPUS0.s:241    .text.tcpip_thread:0000000000000114 .LVL26
C:\Users\stapi\AppData\Local\Temp\ccxZPUS0.s:252    .text.tcpip_thread:0000000000000116 .LVL27
C:\Users\stapi\AppData\Local\Temp\ccxZPUS0.s:106    .text.tcpip_thread:0000000000000048 .LVL7
C:\Users\stapi\AppData\Local\Temp\ccxZPUS0.s:147    .text.tcpip_thread:0000000000000096 .LVL12
C:\Users\stapi\AppData\Local\Temp\ccxZPUS0.s:154    .text.tcpip_thread:0000000000000098 .LVL13
C:\Users\stapi\AppData\Local\Temp\ccxZPUS0.s:161    .text.tcpip_thread:00000000000000a2 .LVL15
C:\Users\stapi\AppData\Local\Temp\ccxZPUS0.s:166    .text.tcpip_thread:00000000000000a8 .LVL16
C:\Users\stapi\AppData\Local\Temp\ccxZPUS0.s:186    .text.tcpip_thread:00000000000000d4 .LVL21
C:\Users\stapi\AppData\Local\Temp\ccxZPUS0.s:177    .text.tcpip_thread:00000000000000c2 .LVL19
C:\Users\stapi\AppData\Local\Temp\ccxZPUS0.s:290    .text.tcpip_inpkt:0000000000000000 .LVL29
C:\Users\stapi\AppData\Local\Temp\ccxZPUS0.s:317    .text.tcpip_inpkt:0000000000000020 .LVL32
C:\Users\stapi\AppData\Local\Temp\ccxZPUS0.s:330    .text.tcpip_inpkt:000000000000003a .LVL35
C:\Users\stapi\AppData\Local\Temp\ccxZPUS0.s:337    .text.tcpip_inpkt:000000000000003e .LVL36
C:\Users\stapi\AppData\Local\Temp\ccxZPUS0.s:315    .text.tcpip_inpkt:000000000000001c .LVL31
C:\Users\stapi\AppData\Local\Temp\ccxZPUS0.s:320    .text.tcpip_inpkt:0000000000000028 .LVL33
C:\Users\stapi\AppData\Local\Temp\ccxZPUS0.s:347    .text.tcpip_inpkt:000000000000004c .LVL38
C:\Users\stapi\AppData\Local\Temp\ccxZPUS0.s:351    .text.tcpip_inpkt:000000000000004e .LVL39
C:\Users\stapi\AppData\Local\Temp\ccxZPUS0.s:382    .text.tcpip_inpkt:000000000000007a .LVL42
C:\Users\stapi\AppData\Local\Temp\ccxZPUS0.s:308    .text.tcpip_inpkt:0000000000000014 .LVL30
C:\Users\stapi\AppData\Local\Temp\ccxZPUS0.s:526    .text.tcpip_try_callback:0000000000000000 .LVL55
C:\Users\stapi\AppData\Local\Temp\ccxZPUS0.s:552    .text.tcpip_try_callback:0000000000000020 .LVL58
C:\Users\stapi\AppData\Local\Temp\ccxZPUS0.s:564    .text.tcpip_try_callback:000000000000003a .LVL60
C:\Users\stapi\AppData\Local\Temp\ccxZPUS0.s:571    .text.tcpip_try_callback:000000000000003e .LVL61
C:\Users\stapi\AppData\Local\Temp\ccxZPUS0.s:550    .text.tcpip_try_callback:000000000000001c .LVL57
C:\Users\stapi\AppData\Local\Temp\ccxZPUS0.s:580    .text.tcpip_try_callback:000000000000004a .LVL63
C:\Users\stapi\AppData\Local\Temp\ccxZPUS0.s:584    .text.tcpip_try_callback:000000000000004c .LVL64
C:\Users\stapi\AppData\Local\Temp\ccxZPUS0.s:613    .text.tcpip_try_callback:0000000000000074 .LVL67
C:\Users\stapi\AppData\Local\Temp\ccxZPUS0.s:543    .text.tcpip_try_callback:0000000000000014 .LVL56
C:\Users\stapi\AppData\Local\Temp\ccxZPUS0.s:1116   .debug_info:0000000000000000 .Ldebug_info0
C:\Users\stapi\AppData\Local\Temp\ccxZPUS0.s:84     .text.tcpip_thread:0000000000000034 .LBE6
C:\Users\stapi\AppData\Local\Temp\ccxZPUS0.s:93     .text.tcpip_thread:0000000000000038 .LBB14
C:\Users\stapi\AppData\Local\Temp\ccxZPUS0.s:122    .text.tcpip_thread:000000000000006c .LBE14
C:\Users\stapi\AppData\Local\Temp\ccxZPUS0.s:149    .text.tcpip_thread:0000000000000096 .LBB15
C:\Users\stapi\AppData\Local\Temp\ccxZPUS0.s:189    .text.tcpip_thread:00000000000000d4 .LBE15
C:\Users\stapi\AppData\Local\Temp\ccxZPUS0.s:92     .text.tcpip_thread:0000000000000038 .LBE10
C:\Users\stapi\AppData\Local\Temp\ccxZPUS0.s:191    .text.tcpip_thread:00000000000000d4 .LBB16
C:\Users\stapi\AppData\Local\Temp\ccxZPUS0.s:244    .text.tcpip_thread:0000000000000114 .LBE16
C:\Users\stapi\AppData\Local\Temp\ccxZPUS0.s:248    .text.tcpip_thread:0000000000000114 .LBB17
C:\Users\stapi\AppData\Local\Temp\ccxZPUS0.s:274    .text.tcpip_thread:000000000000013c .LBE17

UNDEFINED SYMBOLS
pbuf_free
__riscv_save_6
sys_mutex_get
sys_timeouts_sleeptime
sys_mutex_put
sys_arch_mbox_fetch
printf
sys_check_timeouts
memp_free
__riscv_save_4
memp_malloc
sys_mbox_trypost
__riscv_restore_4
ethernet_input
ip4_input
__riscv_save_3
sys_mbox_post
__riscv_restore_3
__riscv_save_2
__riscv_restore_2
__riscv_save_0
__riscv_restore_0
sys_mbox_trypost_fromisr
lwip_init
sys_mbox_new
sys_mutex_init
sys_thread_new
mem_free
