   1              		.file	"timeouts.c"
   2              		.option nopic
   3              		.attribute arch, "rv32i2p0_m2p0_a2p0_f2p0_c2p0_b_p0p94"
   4              		.attribute unaligned_access, 0
   5              		.attribute stack_align, 16
   6              		.text
   7              	.Ltext0:
   8              		.cfi_sections	.debug_frame
   9              		.section	.rodata.sys_timeout_abs.str1.4,"aMS",@progbits,1
  10              		.align	2
  11              	.LC0:
  12 0000 433A2F55 		.string	"C:/Users/stapi/OneDrive/Desktop/GD32VW553/GD32VW55X_Wifi_BLE_SDK/GD32VW55x_RELEASE_V1.0.2
  12      73657273 
  12      2F737461 
  12      70692F4F 
  12      6E654472 
  13 0083 00       		.align	2
  14              	.LC1:
  15 0084 7379735F 		.string	"sys_timeout: timeout != NULL, pool MEMP_SYS_TIMEOUT is empty"
  15      74696D65 
  15      6F75743A 
  15      2074696D 
  15      656F7574 
  16 00c1 000000   		.align	2
  17              	.LC2:
  18 00c4 41737365 		.string	"Assertion \"%s\" failed at line %d in %s\n"
  18      7274696F 
  18      6E202225 
  18      73222066 
  18      61696C65 
  19              		.section	.text.sys_timeout_abs,"ax",@progbits
  20              		.align	1
  22              	sys_timeout_abs:
  23              	.LFB5:
  24              		.file 1 "C:/Users/stapi/OneDrive/Desktop/GD32VW553/GD32VW55X_Wifi_BLE_SDK/GD32VW55x_RELEASE_V1.0.2
   1:C:/Users/stapi/OneDrive/Desktop/GD32VW553/GD32VW55X_Wifi_BLE_SDK/GD32VW55x_RELEASE_V1.0.2/MSDK/lwip/lwip-2.1.2/src/core\timeouts.c **** /**
   2:C:/Users/stapi/OneDrive/Desktop/GD32VW553/GD32VW55X_Wifi_BLE_SDK/GD32VW55x_RELEASE_V1.0.2/MSDK/lwip/lwip-2.1.2/src/core\timeouts.c ****  * @file
   3:C:/Users/stapi/OneDrive/Desktop/GD32VW553/GD32VW55X_Wifi_BLE_SDK/GD32VW55x_RELEASE_V1.0.2/MSDK/lwip/lwip-2.1.2/src/core\timeouts.c ****  * Stack-internal timers implementation.
   4:C:/Users/stapi/OneDrive/Desktop/GD32VW553/GD32VW55X_Wifi_BLE_SDK/GD32VW55x_RELEASE_V1.0.2/MSDK/lwip/lwip-2.1.2/src/core\timeouts.c ****  * This file includes timer callbacks for stack-internal timers as well as
   5:C:/Users/stapi/OneDrive/Desktop/GD32VW553/GD32VW55X_Wifi_BLE_SDK/GD32VW55x_RELEASE_V1.0.2/MSDK/lwip/lwip-2.1.2/src/core\timeouts.c ****  * functions to set up or stop timers and check for expired timers.
   6:C:/Users/stapi/OneDrive/Desktop/GD32VW553/GD32VW55X_Wifi_BLE_SDK/GD32VW55x_RELEASE_V1.0.2/MSDK/lwip/lwip-2.1.2/src/core\timeouts.c ****  *
   7:C:/Users/stapi/OneDrive/Desktop/GD32VW553/GD32VW55X_Wifi_BLE_SDK/GD32VW55x_RELEASE_V1.0.2/MSDK/lwip/lwip-2.1.2/src/core\timeouts.c ****  */
   8:C:/Users/stapi/OneDrive/Desktop/GD32VW553/GD32VW55X_Wifi_BLE_SDK/GD32VW55x_RELEASE_V1.0.2/MSDK/lwip/lwip-2.1.2/src/core\timeouts.c **** 
   9:C:/Users/stapi/OneDrive/Desktop/GD32VW553/GD32VW55X_Wifi_BLE_SDK/GD32VW55x_RELEASE_V1.0.2/MSDK/lwip/lwip-2.1.2/src/core\timeouts.c **** /*
  10:C:/Users/stapi/OneDrive/Desktop/GD32VW553/GD32VW55X_Wifi_BLE_SDK/GD32VW55x_RELEASE_V1.0.2/MSDK/lwip/lwip-2.1.2/src/core\timeouts.c ****  * Copyright (c) 2001-2004 Swedish Institute of Computer Science.
  11:C:/Users/stapi/OneDrive/Desktop/GD32VW553/GD32VW55X_Wifi_BLE_SDK/GD32VW55x_RELEASE_V1.0.2/MSDK/lwip/lwip-2.1.2/src/core\timeouts.c ****  * All rights reserved.
  12:C:/Users/stapi/OneDrive/Desktop/GD32VW553/GD32VW55X_Wifi_BLE_SDK/GD32VW55x_RELEASE_V1.0.2/MSDK/lwip/lwip-2.1.2/src/core\timeouts.c ****  *
  13:C:/Users/stapi/OneDrive/Desktop/GD32VW553/GD32VW55X_Wifi_BLE_SDK/GD32VW55x_RELEASE_V1.0.2/MSDK/lwip/lwip-2.1.2/src/core\timeouts.c ****  * Redistribution and use in source and binary forms, with or without modification,
  14:C:/Users/stapi/OneDrive/Desktop/GD32VW553/GD32VW55X_Wifi_BLE_SDK/GD32VW55x_RELEASE_V1.0.2/MSDK/lwip/lwip-2.1.2/src/core\timeouts.c ****  * are permitted provided that the following conditions are met:
  15:C:/Users/stapi/OneDrive/Desktop/GD32VW553/GD32VW55X_Wifi_BLE_SDK/GD32VW55x_RELEASE_V1.0.2/MSDK/lwip/lwip-2.1.2/src/core\timeouts.c ****  *
  16:C:/Users/stapi/OneDrive/Desktop/GD32VW553/GD32VW55X_Wifi_BLE_SDK/GD32VW55x_RELEASE_V1.0.2/MSDK/lwip/lwip-2.1.2/src/core\timeouts.c ****  * 1. Redistributions of source code must retain the above copyright notice,
  17:C:/Users/stapi/OneDrive/Desktop/GD32VW553/GD32VW55X_Wifi_BLE_SDK/GD32VW55x_RELEASE_V1.0.2/MSDK/lwip/lwip-2.1.2/src/core\timeouts.c ****  *    this list of conditions and the following disclaimer.
  18:C:/Users/stapi/OneDrive/Desktop/GD32VW553/GD32VW55X_Wifi_BLE_SDK/GD32VW55x_RELEASE_V1.0.2/MSDK/lwip/lwip-2.1.2/src/core\timeouts.c ****  * 2. Redistributions in binary form must reproduce the above copyright notice,
  19:C:/Users/stapi/OneDrive/Desktop/GD32VW553/GD32VW55X_Wifi_BLE_SDK/GD32VW55x_RELEASE_V1.0.2/MSDK/lwip/lwip-2.1.2/src/core\timeouts.c ****  *    this list of conditions and the following disclaimer in the documentation
  20:C:/Users/stapi/OneDrive/Desktop/GD32VW553/GD32VW55X_Wifi_BLE_SDK/GD32VW55x_RELEASE_V1.0.2/MSDK/lwip/lwip-2.1.2/src/core\timeouts.c ****  *    and/or other materials provided with the distribution.
  21:C:/Users/stapi/OneDrive/Desktop/GD32VW553/GD32VW55X_Wifi_BLE_SDK/GD32VW55x_RELEASE_V1.0.2/MSDK/lwip/lwip-2.1.2/src/core\timeouts.c ****  * 3. The name of the author may not be used to endorse or promote products
  22:C:/Users/stapi/OneDrive/Desktop/GD32VW553/GD32VW55X_Wifi_BLE_SDK/GD32VW55x_RELEASE_V1.0.2/MSDK/lwip/lwip-2.1.2/src/core\timeouts.c ****  *    derived from this software without specific prior written permission.
  23:C:/Users/stapi/OneDrive/Desktop/GD32VW553/GD32VW55X_Wifi_BLE_SDK/GD32VW55x_RELEASE_V1.0.2/MSDK/lwip/lwip-2.1.2/src/core\timeouts.c ****  *
  24:C:/Users/stapi/OneDrive/Desktop/GD32VW553/GD32VW55X_Wifi_BLE_SDK/GD32VW55x_RELEASE_V1.0.2/MSDK/lwip/lwip-2.1.2/src/core\timeouts.c ****  * THIS SOFTWARE IS PROVIDED BY THE AUTHOR ``AS IS'' AND ANY EXPRESS OR IMPLIED
  25:C:/Users/stapi/OneDrive/Desktop/GD32VW553/GD32VW55X_Wifi_BLE_SDK/GD32VW55x_RELEASE_V1.0.2/MSDK/lwip/lwip-2.1.2/src/core\timeouts.c ****  * WARRANTIES, INCLUDING, BUT NOT LIMITED TO, THE IMPLIED WARRANTIES OF
  26:C:/Users/stapi/OneDrive/Desktop/GD32VW553/GD32VW55X_Wifi_BLE_SDK/GD32VW55x_RELEASE_V1.0.2/MSDK/lwip/lwip-2.1.2/src/core\timeouts.c ****  * MERCHANTABILITY AND FITNESS FOR A PARTICULAR PURPOSE ARE DISCLAIMED. IN NO EVENT
  27:C:/Users/stapi/OneDrive/Desktop/GD32VW553/GD32VW55X_Wifi_BLE_SDK/GD32VW55x_RELEASE_V1.0.2/MSDK/lwip/lwip-2.1.2/src/core\timeouts.c ****  * SHALL THE AUTHOR BE LIABLE FOR ANY DIRECT, INDIRECT, INCIDENTAL, SPECIAL,
  28:C:/Users/stapi/OneDrive/Desktop/GD32VW553/GD32VW55X_Wifi_BLE_SDK/GD32VW55x_RELEASE_V1.0.2/MSDK/lwip/lwip-2.1.2/src/core\timeouts.c ****  * EXEMPLARY, OR CONSEQUENTIAL DAMAGES (INCLUDING, BUT NOT LIMITED TO, PROCUREMENT
  29:C:/Users/stapi/OneDrive/Desktop/GD32VW553/GD32VW55X_Wifi_BLE_SDK/GD32VW55x_RELEASE_V1.0.2/MSDK/lwip/lwip-2.1.2/src/core\timeouts.c ****  * OF SUBSTITUTE GOODS OR SERVICES; LOSS OF USE, DATA, OR PROFITS; OR BUSINESS
  30:C:/Users/stapi/OneDrive/Desktop/GD32VW553/GD32VW55X_Wifi_BLE_SDK/GD32VW55x_RELEASE_V1.0.2/MSDK/lwip/lwip-2.1.2/src/core\timeouts.c ****  * INTERRUPTION) HOWEVER CAUSED AND ON ANY THEORY OF LIABILITY, WHETHER IN
  31:C:/Users/stapi/OneDrive/Desktop/GD32VW553/GD32VW55X_Wifi_BLE_SDK/GD32VW55x_RELEASE_V1.0.2/MSDK/lwip/lwip-2.1.2/src/core\timeouts.c ****  * CONTRACT, STRICT LIABILITY, OR TORT (INCLUDING NEGLIGENCE OR OTHERWISE) ARISING
  32:C:/Users/stapi/OneDrive/Desktop/GD32VW553/GD32VW55X_Wifi_BLE_SDK/GD32VW55x_RELEASE_V1.0.2/MSDK/lwip/lwip-2.1.2/src/core\timeouts.c ****  * IN ANY WAY OUT OF THE USE OF THIS SOFTWARE, EVEN IF ADVISED OF THE POSSIBILITY
  33:C:/Users/stapi/OneDrive/Desktop/GD32VW553/GD32VW55X_Wifi_BLE_SDK/GD32VW55x_RELEASE_V1.0.2/MSDK/lwip/lwip-2.1.2/src/core\timeouts.c ****  * OF SUCH DAMAGE.
  34:C:/Users/stapi/OneDrive/Desktop/GD32VW553/GD32VW55X_Wifi_BLE_SDK/GD32VW55x_RELEASE_V1.0.2/MSDK/lwip/lwip-2.1.2/src/core\timeouts.c ****  *
  35:C:/Users/stapi/OneDrive/Desktop/GD32VW553/GD32VW55X_Wifi_BLE_SDK/GD32VW55x_RELEASE_V1.0.2/MSDK/lwip/lwip-2.1.2/src/core\timeouts.c ****  * This file is part of the lwIP TCP/IP stack.
  36:C:/Users/stapi/OneDrive/Desktop/GD32VW553/GD32VW55X_Wifi_BLE_SDK/GD32VW55x_RELEASE_V1.0.2/MSDK/lwip/lwip-2.1.2/src/core\timeouts.c ****  *
  37:C:/Users/stapi/OneDrive/Desktop/GD32VW553/GD32VW55X_Wifi_BLE_SDK/GD32VW55x_RELEASE_V1.0.2/MSDK/lwip/lwip-2.1.2/src/core\timeouts.c ****  * Author: Adam Dunkels <adam@sics.se>
  38:C:/Users/stapi/OneDrive/Desktop/GD32VW553/GD32VW55X_Wifi_BLE_SDK/GD32VW55x_RELEASE_V1.0.2/MSDK/lwip/lwip-2.1.2/src/core\timeouts.c ****  *         Simon Goldschmidt
  39:C:/Users/stapi/OneDrive/Desktop/GD32VW553/GD32VW55X_Wifi_BLE_SDK/GD32VW55x_RELEASE_V1.0.2/MSDK/lwip/lwip-2.1.2/src/core\timeouts.c ****  *
  40:C:/Users/stapi/OneDrive/Desktop/GD32VW553/GD32VW55X_Wifi_BLE_SDK/GD32VW55x_RELEASE_V1.0.2/MSDK/lwip/lwip-2.1.2/src/core\timeouts.c ****  */
  41:C:/Users/stapi/OneDrive/Desktop/GD32VW553/GD32VW55X_Wifi_BLE_SDK/GD32VW55x_RELEASE_V1.0.2/MSDK/lwip/lwip-2.1.2/src/core\timeouts.c **** 
  42:C:/Users/stapi/OneDrive/Desktop/GD32VW553/GD32VW55X_Wifi_BLE_SDK/GD32VW55x_RELEASE_V1.0.2/MSDK/lwip/lwip-2.1.2/src/core\timeouts.c **** #include "lwip/opt.h"
  43:C:/Users/stapi/OneDrive/Desktop/GD32VW553/GD32VW55X_Wifi_BLE_SDK/GD32VW55x_RELEASE_V1.0.2/MSDK/lwip/lwip-2.1.2/src/core\timeouts.c **** 
  44:C:/Users/stapi/OneDrive/Desktop/GD32VW553/GD32VW55X_Wifi_BLE_SDK/GD32VW55x_RELEASE_V1.0.2/MSDK/lwip/lwip-2.1.2/src/core\timeouts.c **** #include "lwip/timeouts.h"
  45:C:/Users/stapi/OneDrive/Desktop/GD32VW553/GD32VW55X_Wifi_BLE_SDK/GD32VW55x_RELEASE_V1.0.2/MSDK/lwip/lwip-2.1.2/src/core\timeouts.c **** #include "lwip/priv/tcp_priv.h"
  46:C:/Users/stapi/OneDrive/Desktop/GD32VW553/GD32VW55X_Wifi_BLE_SDK/GD32VW55x_RELEASE_V1.0.2/MSDK/lwip/lwip-2.1.2/src/core\timeouts.c **** 
  47:C:/Users/stapi/OneDrive/Desktop/GD32VW553/GD32VW55X_Wifi_BLE_SDK/GD32VW55x_RELEASE_V1.0.2/MSDK/lwip/lwip-2.1.2/src/core\timeouts.c **** #include "lwip/def.h"
  48:C:/Users/stapi/OneDrive/Desktop/GD32VW553/GD32VW55X_Wifi_BLE_SDK/GD32VW55x_RELEASE_V1.0.2/MSDK/lwip/lwip-2.1.2/src/core\timeouts.c **** #include "lwip/memp.h"
  49:C:/Users/stapi/OneDrive/Desktop/GD32VW553/GD32VW55X_Wifi_BLE_SDK/GD32VW55x_RELEASE_V1.0.2/MSDK/lwip/lwip-2.1.2/src/core\timeouts.c **** #include "lwip/priv/tcpip_priv.h"
  50:C:/Users/stapi/OneDrive/Desktop/GD32VW553/GD32VW55X_Wifi_BLE_SDK/GD32VW55x_RELEASE_V1.0.2/MSDK/lwip/lwip-2.1.2/src/core\timeouts.c **** 
  51:C:/Users/stapi/OneDrive/Desktop/GD32VW553/GD32VW55X_Wifi_BLE_SDK/GD32VW55x_RELEASE_V1.0.2/MSDK/lwip/lwip-2.1.2/src/core\timeouts.c **** #include "lwip/ip4_frag.h"
  52:C:/Users/stapi/OneDrive/Desktop/GD32VW553/GD32VW55X_Wifi_BLE_SDK/GD32VW55x_RELEASE_V1.0.2/MSDK/lwip/lwip-2.1.2/src/core\timeouts.c **** #include "lwip/etharp.h"
  53:C:/Users/stapi/OneDrive/Desktop/GD32VW553/GD32VW55X_Wifi_BLE_SDK/GD32VW55x_RELEASE_V1.0.2/MSDK/lwip/lwip-2.1.2/src/core\timeouts.c **** #include "lwip/dhcp.h"
  54:C:/Users/stapi/OneDrive/Desktop/GD32VW553/GD32VW55X_Wifi_BLE_SDK/GD32VW55x_RELEASE_V1.0.2/MSDK/lwip/lwip-2.1.2/src/core\timeouts.c **** #include "lwip/autoip.h"
  55:C:/Users/stapi/OneDrive/Desktop/GD32VW553/GD32VW55X_Wifi_BLE_SDK/GD32VW55x_RELEASE_V1.0.2/MSDK/lwip/lwip-2.1.2/src/core\timeouts.c **** #include "lwip/igmp.h"
  56:C:/Users/stapi/OneDrive/Desktop/GD32VW553/GD32VW55X_Wifi_BLE_SDK/GD32VW55x_RELEASE_V1.0.2/MSDK/lwip/lwip-2.1.2/src/core\timeouts.c **** #include "lwip/dns.h"
  57:C:/Users/stapi/OneDrive/Desktop/GD32VW553/GD32VW55X_Wifi_BLE_SDK/GD32VW55x_RELEASE_V1.0.2/MSDK/lwip/lwip-2.1.2/src/core\timeouts.c **** #include "lwip/nd6.h"
  58:C:/Users/stapi/OneDrive/Desktop/GD32VW553/GD32VW55X_Wifi_BLE_SDK/GD32VW55x_RELEASE_V1.0.2/MSDK/lwip/lwip-2.1.2/src/core\timeouts.c **** #include "lwip/ip6_frag.h"
  59:C:/Users/stapi/OneDrive/Desktop/GD32VW553/GD32VW55X_Wifi_BLE_SDK/GD32VW55x_RELEASE_V1.0.2/MSDK/lwip/lwip-2.1.2/src/core\timeouts.c **** #include "lwip/mld6.h"
  60:C:/Users/stapi/OneDrive/Desktop/GD32VW553/GD32VW55X_Wifi_BLE_SDK/GD32VW55x_RELEASE_V1.0.2/MSDK/lwip/lwip-2.1.2/src/core\timeouts.c **** #include "lwip/dhcp6.h"
  61:C:/Users/stapi/OneDrive/Desktop/GD32VW553/GD32VW55X_Wifi_BLE_SDK/GD32VW55x_RELEASE_V1.0.2/MSDK/lwip/lwip-2.1.2/src/core\timeouts.c **** #include "lwip/sys.h"
  62:C:/Users/stapi/OneDrive/Desktop/GD32VW553/GD32VW55X_Wifi_BLE_SDK/GD32VW55x_RELEASE_V1.0.2/MSDK/lwip/lwip-2.1.2/src/core\timeouts.c **** #include "lwip/pbuf.h"
  63:C:/Users/stapi/OneDrive/Desktop/GD32VW553/GD32VW55X_Wifi_BLE_SDK/GD32VW55x_RELEASE_V1.0.2/MSDK/lwip/lwip-2.1.2/src/core\timeouts.c **** 
  64:C:/Users/stapi/OneDrive/Desktop/GD32VW553/GD32VW55X_Wifi_BLE_SDK/GD32VW55x_RELEASE_V1.0.2/MSDK/lwip/lwip-2.1.2/src/core\timeouts.c **** #if LWIP_DEBUG_TIMERNAMES
  65:C:/Users/stapi/OneDrive/Desktop/GD32VW553/GD32VW55X_Wifi_BLE_SDK/GD32VW55x_RELEASE_V1.0.2/MSDK/lwip/lwip-2.1.2/src/core\timeouts.c **** #define HANDLER(x) x, #x
  66:C:/Users/stapi/OneDrive/Desktop/GD32VW553/GD32VW55X_Wifi_BLE_SDK/GD32VW55x_RELEASE_V1.0.2/MSDK/lwip/lwip-2.1.2/src/core\timeouts.c **** #else /* LWIP_DEBUG_TIMERNAMES */
  67:C:/Users/stapi/OneDrive/Desktop/GD32VW553/GD32VW55X_Wifi_BLE_SDK/GD32VW55x_RELEASE_V1.0.2/MSDK/lwip/lwip-2.1.2/src/core\timeouts.c **** #define HANDLER(x) x
  68:C:/Users/stapi/OneDrive/Desktop/GD32VW553/GD32VW55X_Wifi_BLE_SDK/GD32VW55x_RELEASE_V1.0.2/MSDK/lwip/lwip-2.1.2/src/core\timeouts.c **** #endif /* LWIP_DEBUG_TIMERNAMES */
  69:C:/Users/stapi/OneDrive/Desktop/GD32VW553/GD32VW55X_Wifi_BLE_SDK/GD32VW55x_RELEASE_V1.0.2/MSDK/lwip/lwip-2.1.2/src/core\timeouts.c **** 
  70:C:/Users/stapi/OneDrive/Desktop/GD32VW553/GD32VW55X_Wifi_BLE_SDK/GD32VW55x_RELEASE_V1.0.2/MSDK/lwip/lwip-2.1.2/src/core\timeouts.c **** #define LWIP_MAX_TIMEOUT  0x7fffffff
  71:C:/Users/stapi/OneDrive/Desktop/GD32VW553/GD32VW55X_Wifi_BLE_SDK/GD32VW55x_RELEASE_V1.0.2/MSDK/lwip/lwip-2.1.2/src/core\timeouts.c **** 
  72:C:/Users/stapi/OneDrive/Desktop/GD32VW553/GD32VW55X_Wifi_BLE_SDK/GD32VW55x_RELEASE_V1.0.2/MSDK/lwip/lwip-2.1.2/src/core\timeouts.c **** /* Check if timer's expiry time is greater than time and care about u32_t wraparounds */
  73:C:/Users/stapi/OneDrive/Desktop/GD32VW553/GD32VW55X_Wifi_BLE_SDK/GD32VW55x_RELEASE_V1.0.2/MSDK/lwip/lwip-2.1.2/src/core\timeouts.c **** #define TIME_LESS_THAN(t, compare_to) ( (((u32_t)((t)-(compare_to))) > LWIP_MAX_TIMEOUT) ? 1 : 0 )
  74:C:/Users/stapi/OneDrive/Desktop/GD32VW553/GD32VW55X_Wifi_BLE_SDK/GD32VW55x_RELEASE_V1.0.2/MSDK/lwip/lwip-2.1.2/src/core\timeouts.c **** 
  75:C:/Users/stapi/OneDrive/Desktop/GD32VW553/GD32VW55X_Wifi_BLE_SDK/GD32VW55x_RELEASE_V1.0.2/MSDK/lwip/lwip-2.1.2/src/core\timeouts.c **** /** This array contains all stack-internal cyclic timers. To get the number of
  76:C:/Users/stapi/OneDrive/Desktop/GD32VW553/GD32VW55X_Wifi_BLE_SDK/GD32VW55x_RELEASE_V1.0.2/MSDK/lwip/lwip-2.1.2/src/core\timeouts.c ****  * timers, use LWIP_ARRAYSIZE() */
  77:C:/Users/stapi/OneDrive/Desktop/GD32VW553/GD32VW55X_Wifi_BLE_SDK/GD32VW55x_RELEASE_V1.0.2/MSDK/lwip/lwip-2.1.2/src/core\timeouts.c **** const struct lwip_cyclic_timer lwip_cyclic_timers[] = {
  78:C:/Users/stapi/OneDrive/Desktop/GD32VW553/GD32VW55X_Wifi_BLE_SDK/GD32VW55x_RELEASE_V1.0.2/MSDK/lwip/lwip-2.1.2/src/core\timeouts.c **** #if LWIP_TCP
  79:C:/Users/stapi/OneDrive/Desktop/GD32VW553/GD32VW55X_Wifi_BLE_SDK/GD32VW55x_RELEASE_V1.0.2/MSDK/lwip/lwip-2.1.2/src/core\timeouts.c ****   /* The TCP timer is a special case: it does not have to run always and
  80:C:/Users/stapi/OneDrive/Desktop/GD32VW553/GD32VW55X_Wifi_BLE_SDK/GD32VW55x_RELEASE_V1.0.2/MSDK/lwip/lwip-2.1.2/src/core\timeouts.c ****      is triggered to start from TCP using tcp_timer_needed() */
  81:C:/Users/stapi/OneDrive/Desktop/GD32VW553/GD32VW55X_Wifi_BLE_SDK/GD32VW55x_RELEASE_V1.0.2/MSDK/lwip/lwip-2.1.2/src/core\timeouts.c ****   {TCP_TMR_INTERVAL, HANDLER(tcp_tmr)},
  82:C:/Users/stapi/OneDrive/Desktop/GD32VW553/GD32VW55X_Wifi_BLE_SDK/GD32VW55x_RELEASE_V1.0.2/MSDK/lwip/lwip-2.1.2/src/core\timeouts.c **** #endif /* LWIP_TCP */
  83:C:/Users/stapi/OneDrive/Desktop/GD32VW553/GD32VW55X_Wifi_BLE_SDK/GD32VW55x_RELEASE_V1.0.2/MSDK/lwip/lwip-2.1.2/src/core\timeouts.c **** #if LWIP_IPV4
  84:C:/Users/stapi/OneDrive/Desktop/GD32VW553/GD32VW55X_Wifi_BLE_SDK/GD32VW55x_RELEASE_V1.0.2/MSDK/lwip/lwip-2.1.2/src/core\timeouts.c **** #if IP_REASSEMBLY
  85:C:/Users/stapi/OneDrive/Desktop/GD32VW553/GD32VW55X_Wifi_BLE_SDK/GD32VW55x_RELEASE_V1.0.2/MSDK/lwip/lwip-2.1.2/src/core\timeouts.c ****   {IP_TMR_INTERVAL, HANDLER(ip_reass_tmr)},
  86:C:/Users/stapi/OneDrive/Desktop/GD32VW553/GD32VW55X_Wifi_BLE_SDK/GD32VW55x_RELEASE_V1.0.2/MSDK/lwip/lwip-2.1.2/src/core\timeouts.c **** #endif /* IP_REASSEMBLY */
  87:C:/Users/stapi/OneDrive/Desktop/GD32VW553/GD32VW55X_Wifi_BLE_SDK/GD32VW55x_RELEASE_V1.0.2/MSDK/lwip/lwip-2.1.2/src/core\timeouts.c **** #if LWIP_ARP
  88:C:/Users/stapi/OneDrive/Desktop/GD32VW553/GD32VW55X_Wifi_BLE_SDK/GD32VW55x_RELEASE_V1.0.2/MSDK/lwip/lwip-2.1.2/src/core\timeouts.c ****   {ARP_TMR_INTERVAL, HANDLER(etharp_tmr)},
  89:C:/Users/stapi/OneDrive/Desktop/GD32VW553/GD32VW55X_Wifi_BLE_SDK/GD32VW55x_RELEASE_V1.0.2/MSDK/lwip/lwip-2.1.2/src/core\timeouts.c **** #endif /* LWIP_ARP */
  90:C:/Users/stapi/OneDrive/Desktop/GD32VW553/GD32VW55X_Wifi_BLE_SDK/GD32VW55x_RELEASE_V1.0.2/MSDK/lwip/lwip-2.1.2/src/core\timeouts.c **** #if LWIP_DHCP
  91:C:/Users/stapi/OneDrive/Desktop/GD32VW553/GD32VW55X_Wifi_BLE_SDK/GD32VW55x_RELEASE_V1.0.2/MSDK/lwip/lwip-2.1.2/src/core\timeouts.c ****   {DHCP_COARSE_TIMER_MSECS, HANDLER(dhcp_coarse_tmr)},
  92:C:/Users/stapi/OneDrive/Desktop/GD32VW553/GD32VW55X_Wifi_BLE_SDK/GD32VW55x_RELEASE_V1.0.2/MSDK/lwip/lwip-2.1.2/src/core\timeouts.c ****   {DHCP_FINE_TIMER_MSECS, HANDLER(dhcp_fine_tmr)},
  93:C:/Users/stapi/OneDrive/Desktop/GD32VW553/GD32VW55X_Wifi_BLE_SDK/GD32VW55x_RELEASE_V1.0.2/MSDK/lwip/lwip-2.1.2/src/core\timeouts.c **** #endif /* LWIP_DHCP */
  94:C:/Users/stapi/OneDrive/Desktop/GD32VW553/GD32VW55X_Wifi_BLE_SDK/GD32VW55x_RELEASE_V1.0.2/MSDK/lwip/lwip-2.1.2/src/core\timeouts.c **** #if LWIP_AUTOIP
  95:C:/Users/stapi/OneDrive/Desktop/GD32VW553/GD32VW55X_Wifi_BLE_SDK/GD32VW55x_RELEASE_V1.0.2/MSDK/lwip/lwip-2.1.2/src/core\timeouts.c ****   {AUTOIP_TMR_INTERVAL, HANDLER(autoip_tmr)},
  96:C:/Users/stapi/OneDrive/Desktop/GD32VW553/GD32VW55X_Wifi_BLE_SDK/GD32VW55x_RELEASE_V1.0.2/MSDK/lwip/lwip-2.1.2/src/core\timeouts.c **** #endif /* LWIP_AUTOIP */
  97:C:/Users/stapi/OneDrive/Desktop/GD32VW553/GD32VW55X_Wifi_BLE_SDK/GD32VW55x_RELEASE_V1.0.2/MSDK/lwip/lwip-2.1.2/src/core\timeouts.c **** #if LWIP_IGMP
  98:C:/Users/stapi/OneDrive/Desktop/GD32VW553/GD32VW55X_Wifi_BLE_SDK/GD32VW55x_RELEASE_V1.0.2/MSDK/lwip/lwip-2.1.2/src/core\timeouts.c ****   {IGMP_TMR_INTERVAL, HANDLER(igmp_tmr)},
  99:C:/Users/stapi/OneDrive/Desktop/GD32VW553/GD32VW55X_Wifi_BLE_SDK/GD32VW55x_RELEASE_V1.0.2/MSDK/lwip/lwip-2.1.2/src/core\timeouts.c **** #endif /* LWIP_IGMP */
 100:C:/Users/stapi/OneDrive/Desktop/GD32VW553/GD32VW55X_Wifi_BLE_SDK/GD32VW55x_RELEASE_V1.0.2/MSDK/lwip/lwip-2.1.2/src/core\timeouts.c **** #endif /* LWIP_IPV4 */
 101:C:/Users/stapi/OneDrive/Desktop/GD32VW553/GD32VW55X_Wifi_BLE_SDK/GD32VW55x_RELEASE_V1.0.2/MSDK/lwip/lwip-2.1.2/src/core\timeouts.c **** #if LWIP_DNS
 102:C:/Users/stapi/OneDrive/Desktop/GD32VW553/GD32VW55X_Wifi_BLE_SDK/GD32VW55x_RELEASE_V1.0.2/MSDK/lwip/lwip-2.1.2/src/core\timeouts.c ****   {DNS_TMR_INTERVAL, HANDLER(dns_tmr)},
 103:C:/Users/stapi/OneDrive/Desktop/GD32VW553/GD32VW55X_Wifi_BLE_SDK/GD32VW55x_RELEASE_V1.0.2/MSDK/lwip/lwip-2.1.2/src/core\timeouts.c **** #endif /* LWIP_DNS */
 104:C:/Users/stapi/OneDrive/Desktop/GD32VW553/GD32VW55X_Wifi_BLE_SDK/GD32VW55x_RELEASE_V1.0.2/MSDK/lwip/lwip-2.1.2/src/core\timeouts.c **** #if LWIP_IPV6
 105:C:/Users/stapi/OneDrive/Desktop/GD32VW553/GD32VW55X_Wifi_BLE_SDK/GD32VW55x_RELEASE_V1.0.2/MSDK/lwip/lwip-2.1.2/src/core\timeouts.c ****   {ND6_TMR_INTERVAL, HANDLER(nd6_tmr)},
 106:C:/Users/stapi/OneDrive/Desktop/GD32VW553/GD32VW55X_Wifi_BLE_SDK/GD32VW55x_RELEASE_V1.0.2/MSDK/lwip/lwip-2.1.2/src/core\timeouts.c **** #if LWIP_IPV6_REASS
 107:C:/Users/stapi/OneDrive/Desktop/GD32VW553/GD32VW55X_Wifi_BLE_SDK/GD32VW55x_RELEASE_V1.0.2/MSDK/lwip/lwip-2.1.2/src/core\timeouts.c ****   {IP6_REASS_TMR_INTERVAL, HANDLER(ip6_reass_tmr)},
 108:C:/Users/stapi/OneDrive/Desktop/GD32VW553/GD32VW55X_Wifi_BLE_SDK/GD32VW55x_RELEASE_V1.0.2/MSDK/lwip/lwip-2.1.2/src/core\timeouts.c **** #endif /* LWIP_IPV6_REASS */
 109:C:/Users/stapi/OneDrive/Desktop/GD32VW553/GD32VW55X_Wifi_BLE_SDK/GD32VW55x_RELEASE_V1.0.2/MSDK/lwip/lwip-2.1.2/src/core\timeouts.c **** #if LWIP_IPV6_MLD
 110:C:/Users/stapi/OneDrive/Desktop/GD32VW553/GD32VW55X_Wifi_BLE_SDK/GD32VW55x_RELEASE_V1.0.2/MSDK/lwip/lwip-2.1.2/src/core\timeouts.c ****   {MLD6_TMR_INTERVAL, HANDLER(mld6_tmr)},
 111:C:/Users/stapi/OneDrive/Desktop/GD32VW553/GD32VW55X_Wifi_BLE_SDK/GD32VW55x_RELEASE_V1.0.2/MSDK/lwip/lwip-2.1.2/src/core\timeouts.c **** #endif /* LWIP_IPV6_MLD */
 112:C:/Users/stapi/OneDrive/Desktop/GD32VW553/GD32VW55X_Wifi_BLE_SDK/GD32VW55x_RELEASE_V1.0.2/MSDK/lwip/lwip-2.1.2/src/core\timeouts.c **** #if LWIP_IPV6_DHCP6
 113:C:/Users/stapi/OneDrive/Desktop/GD32VW553/GD32VW55X_Wifi_BLE_SDK/GD32VW55x_RELEASE_V1.0.2/MSDK/lwip/lwip-2.1.2/src/core\timeouts.c ****   {DHCP6_TIMER_MSECS, HANDLER(dhcp6_tmr)},
 114:C:/Users/stapi/OneDrive/Desktop/GD32VW553/GD32VW55X_Wifi_BLE_SDK/GD32VW55x_RELEASE_V1.0.2/MSDK/lwip/lwip-2.1.2/src/core\timeouts.c **** #endif /* LWIP_IPV6_DHCP6 */
 115:C:/Users/stapi/OneDrive/Desktop/GD32VW553/GD32VW55X_Wifi_BLE_SDK/GD32VW55x_RELEASE_V1.0.2/MSDK/lwip/lwip-2.1.2/src/core\timeouts.c **** #endif /* LWIP_IPV6 */
 116:C:/Users/stapi/OneDrive/Desktop/GD32VW553/GD32VW55X_Wifi_BLE_SDK/GD32VW55x_RELEASE_V1.0.2/MSDK/lwip/lwip-2.1.2/src/core\timeouts.c **** };
 117:C:/Users/stapi/OneDrive/Desktop/GD32VW553/GD32VW55X_Wifi_BLE_SDK/GD32VW55x_RELEASE_V1.0.2/MSDK/lwip/lwip-2.1.2/src/core\timeouts.c **** const int lwip_num_cyclic_timers = LWIP_ARRAYSIZE(lwip_cyclic_timers);
 118:C:/Users/stapi/OneDrive/Desktop/GD32VW553/GD32VW55X_Wifi_BLE_SDK/GD32VW55x_RELEASE_V1.0.2/MSDK/lwip/lwip-2.1.2/src/core\timeouts.c **** 
 119:C:/Users/stapi/OneDrive/Desktop/GD32VW553/GD32VW55X_Wifi_BLE_SDK/GD32VW55x_RELEASE_V1.0.2/MSDK/lwip/lwip-2.1.2/src/core\timeouts.c **** #if LWIP_TIMERS && !LWIP_TIMERS_CUSTOM
 120:C:/Users/stapi/OneDrive/Desktop/GD32VW553/GD32VW55X_Wifi_BLE_SDK/GD32VW55x_RELEASE_V1.0.2/MSDK/lwip/lwip-2.1.2/src/core\timeouts.c **** 
 121:C:/Users/stapi/OneDrive/Desktop/GD32VW553/GD32VW55X_Wifi_BLE_SDK/GD32VW55x_RELEASE_V1.0.2/MSDK/lwip/lwip-2.1.2/src/core\timeouts.c **** /** The one and only timeout list */
 122:C:/Users/stapi/OneDrive/Desktop/GD32VW553/GD32VW55X_Wifi_BLE_SDK/GD32VW55x_RELEASE_V1.0.2/MSDK/lwip/lwip-2.1.2/src/core\timeouts.c **** static struct sys_timeo *next_timeout;
 123:C:/Users/stapi/OneDrive/Desktop/GD32VW553/GD32VW55X_Wifi_BLE_SDK/GD32VW55x_RELEASE_V1.0.2/MSDK/lwip/lwip-2.1.2/src/core\timeouts.c **** 
 124:C:/Users/stapi/OneDrive/Desktop/GD32VW553/GD32VW55X_Wifi_BLE_SDK/GD32VW55x_RELEASE_V1.0.2/MSDK/lwip/lwip-2.1.2/src/core\timeouts.c **** static u32_t current_timeout_due_time;
 125:C:/Users/stapi/OneDrive/Desktop/GD32VW553/GD32VW55X_Wifi_BLE_SDK/GD32VW55x_RELEASE_V1.0.2/MSDK/lwip/lwip-2.1.2/src/core\timeouts.c **** 
 126:C:/Users/stapi/OneDrive/Desktop/GD32VW553/GD32VW55X_Wifi_BLE_SDK/GD32VW55x_RELEASE_V1.0.2/MSDK/lwip/lwip-2.1.2/src/core\timeouts.c **** #if LWIP_TESTMODE
 127:C:/Users/stapi/OneDrive/Desktop/GD32VW553/GD32VW55X_Wifi_BLE_SDK/GD32VW55x_RELEASE_V1.0.2/MSDK/lwip/lwip-2.1.2/src/core\timeouts.c **** struct sys_timeo**
 128:C:/Users/stapi/OneDrive/Desktop/GD32VW553/GD32VW55X_Wifi_BLE_SDK/GD32VW55x_RELEASE_V1.0.2/MSDK/lwip/lwip-2.1.2/src/core\timeouts.c **** sys_timeouts_get_next_timeout(void)
 129:C:/Users/stapi/OneDrive/Desktop/GD32VW553/GD32VW55X_Wifi_BLE_SDK/GD32VW55x_RELEASE_V1.0.2/MSDK/lwip/lwip-2.1.2/src/core\timeouts.c **** {
 130:C:/Users/stapi/OneDrive/Desktop/GD32VW553/GD32VW55X_Wifi_BLE_SDK/GD32VW55x_RELEASE_V1.0.2/MSDK/lwip/lwip-2.1.2/src/core\timeouts.c ****   return &next_timeout;
 131:C:/Users/stapi/OneDrive/Desktop/GD32VW553/GD32VW55X_Wifi_BLE_SDK/GD32VW55x_RELEASE_V1.0.2/MSDK/lwip/lwip-2.1.2/src/core\timeouts.c **** }
 132:C:/Users/stapi/OneDrive/Desktop/GD32VW553/GD32VW55X_Wifi_BLE_SDK/GD32VW55x_RELEASE_V1.0.2/MSDK/lwip/lwip-2.1.2/src/core\timeouts.c **** #endif
 133:C:/Users/stapi/OneDrive/Desktop/GD32VW553/GD32VW55X_Wifi_BLE_SDK/GD32VW55x_RELEASE_V1.0.2/MSDK/lwip/lwip-2.1.2/src/core\timeouts.c **** 
 134:C:/Users/stapi/OneDrive/Desktop/GD32VW553/GD32VW55X_Wifi_BLE_SDK/GD32VW55x_RELEASE_V1.0.2/MSDK/lwip/lwip-2.1.2/src/core\timeouts.c **** #if LWIP_TCP
 135:C:/Users/stapi/OneDrive/Desktop/GD32VW553/GD32VW55X_Wifi_BLE_SDK/GD32VW55x_RELEASE_V1.0.2/MSDK/lwip/lwip-2.1.2/src/core\timeouts.c **** /** global variable that shows if the tcp timer is currently scheduled or not */
 136:C:/Users/stapi/OneDrive/Desktop/GD32VW553/GD32VW55X_Wifi_BLE_SDK/GD32VW55x_RELEASE_V1.0.2/MSDK/lwip/lwip-2.1.2/src/core\timeouts.c **** static int tcpip_tcp_timer_active;
 137:C:/Users/stapi/OneDrive/Desktop/GD32VW553/GD32VW55X_Wifi_BLE_SDK/GD32VW55x_RELEASE_V1.0.2/MSDK/lwip/lwip-2.1.2/src/core\timeouts.c **** 
 138:C:/Users/stapi/OneDrive/Desktop/GD32VW553/GD32VW55X_Wifi_BLE_SDK/GD32VW55x_RELEASE_V1.0.2/MSDK/lwip/lwip-2.1.2/src/core\timeouts.c **** /**
 139:C:/Users/stapi/OneDrive/Desktop/GD32VW553/GD32VW55X_Wifi_BLE_SDK/GD32VW55x_RELEASE_V1.0.2/MSDK/lwip/lwip-2.1.2/src/core\timeouts.c ****  * Timer callback function that calls tcp_tmr() and reschedules itself.
 140:C:/Users/stapi/OneDrive/Desktop/GD32VW553/GD32VW55X_Wifi_BLE_SDK/GD32VW55x_RELEASE_V1.0.2/MSDK/lwip/lwip-2.1.2/src/core\timeouts.c ****  *
 141:C:/Users/stapi/OneDrive/Desktop/GD32VW553/GD32VW55X_Wifi_BLE_SDK/GD32VW55x_RELEASE_V1.0.2/MSDK/lwip/lwip-2.1.2/src/core\timeouts.c ****  * @param arg unused argument
 142:C:/Users/stapi/OneDrive/Desktop/GD32VW553/GD32VW55X_Wifi_BLE_SDK/GD32VW55x_RELEASE_V1.0.2/MSDK/lwip/lwip-2.1.2/src/core\timeouts.c ****  */
 143:C:/Users/stapi/OneDrive/Desktop/GD32VW553/GD32VW55X_Wifi_BLE_SDK/GD32VW55x_RELEASE_V1.0.2/MSDK/lwip/lwip-2.1.2/src/core\timeouts.c **** static void
 144:C:/Users/stapi/OneDrive/Desktop/GD32VW553/GD32VW55X_Wifi_BLE_SDK/GD32VW55x_RELEASE_V1.0.2/MSDK/lwip/lwip-2.1.2/src/core\timeouts.c **** tcpip_tcp_timer(void *arg)
 145:C:/Users/stapi/OneDrive/Desktop/GD32VW553/GD32VW55X_Wifi_BLE_SDK/GD32VW55x_RELEASE_V1.0.2/MSDK/lwip/lwip-2.1.2/src/core\timeouts.c **** {
 146:C:/Users/stapi/OneDrive/Desktop/GD32VW553/GD32VW55X_Wifi_BLE_SDK/GD32VW55x_RELEASE_V1.0.2/MSDK/lwip/lwip-2.1.2/src/core\timeouts.c ****   LWIP_UNUSED_ARG(arg);
 147:C:/Users/stapi/OneDrive/Desktop/GD32VW553/GD32VW55X_Wifi_BLE_SDK/GD32VW55x_RELEASE_V1.0.2/MSDK/lwip/lwip-2.1.2/src/core\timeouts.c **** 
 148:C:/Users/stapi/OneDrive/Desktop/GD32VW553/GD32VW55X_Wifi_BLE_SDK/GD32VW55x_RELEASE_V1.0.2/MSDK/lwip/lwip-2.1.2/src/core\timeouts.c ****   /* call TCP timer handler */
 149:C:/Users/stapi/OneDrive/Desktop/GD32VW553/GD32VW55X_Wifi_BLE_SDK/GD32VW55x_RELEASE_V1.0.2/MSDK/lwip/lwip-2.1.2/src/core\timeouts.c ****   tcp_tmr();
 150:C:/Users/stapi/OneDrive/Desktop/GD32VW553/GD32VW55X_Wifi_BLE_SDK/GD32VW55x_RELEASE_V1.0.2/MSDK/lwip/lwip-2.1.2/src/core\timeouts.c ****   /* timer still needed? */
 151:C:/Users/stapi/OneDrive/Desktop/GD32VW553/GD32VW55X_Wifi_BLE_SDK/GD32VW55x_RELEASE_V1.0.2/MSDK/lwip/lwip-2.1.2/src/core\timeouts.c ****   if (tcp_active_pcbs || tcp_tw_pcbs) {
 152:C:/Users/stapi/OneDrive/Desktop/GD32VW553/GD32VW55X_Wifi_BLE_SDK/GD32VW55x_RELEASE_V1.0.2/MSDK/lwip/lwip-2.1.2/src/core\timeouts.c ****     /* restart timer */
 153:C:/Users/stapi/OneDrive/Desktop/GD32VW553/GD32VW55X_Wifi_BLE_SDK/GD32VW55x_RELEASE_V1.0.2/MSDK/lwip/lwip-2.1.2/src/core\timeouts.c ****     sys_timeout(TCP_TMR_INTERVAL, tcpip_tcp_timer, NULL);
 154:C:/Users/stapi/OneDrive/Desktop/GD32VW553/GD32VW55X_Wifi_BLE_SDK/GD32VW55x_RELEASE_V1.0.2/MSDK/lwip/lwip-2.1.2/src/core\timeouts.c ****   } else {
 155:C:/Users/stapi/OneDrive/Desktop/GD32VW553/GD32VW55X_Wifi_BLE_SDK/GD32VW55x_RELEASE_V1.0.2/MSDK/lwip/lwip-2.1.2/src/core\timeouts.c ****     /* disable timer */
 156:C:/Users/stapi/OneDrive/Desktop/GD32VW553/GD32VW55X_Wifi_BLE_SDK/GD32VW55x_RELEASE_V1.0.2/MSDK/lwip/lwip-2.1.2/src/core\timeouts.c ****     tcpip_tcp_timer_active = 0;
 157:C:/Users/stapi/OneDrive/Desktop/GD32VW553/GD32VW55X_Wifi_BLE_SDK/GD32VW55x_RELEASE_V1.0.2/MSDK/lwip/lwip-2.1.2/src/core\timeouts.c ****   }
 158:C:/Users/stapi/OneDrive/Desktop/GD32VW553/GD32VW55X_Wifi_BLE_SDK/GD32VW55x_RELEASE_V1.0.2/MSDK/lwip/lwip-2.1.2/src/core\timeouts.c **** }
 159:C:/Users/stapi/OneDrive/Desktop/GD32VW553/GD32VW55X_Wifi_BLE_SDK/GD32VW55x_RELEASE_V1.0.2/MSDK/lwip/lwip-2.1.2/src/core\timeouts.c **** 
 160:C:/Users/stapi/OneDrive/Desktop/GD32VW553/GD32VW55X_Wifi_BLE_SDK/GD32VW55x_RELEASE_V1.0.2/MSDK/lwip/lwip-2.1.2/src/core\timeouts.c **** /**
 161:C:/Users/stapi/OneDrive/Desktop/GD32VW553/GD32VW55X_Wifi_BLE_SDK/GD32VW55x_RELEASE_V1.0.2/MSDK/lwip/lwip-2.1.2/src/core\timeouts.c ****  * Called from TCP_REG when registering a new PCB:
 162:C:/Users/stapi/OneDrive/Desktop/GD32VW553/GD32VW55X_Wifi_BLE_SDK/GD32VW55x_RELEASE_V1.0.2/MSDK/lwip/lwip-2.1.2/src/core\timeouts.c ****  * the reason is to have the TCP timer only running when
 163:C:/Users/stapi/OneDrive/Desktop/GD32VW553/GD32VW55X_Wifi_BLE_SDK/GD32VW55x_RELEASE_V1.0.2/MSDK/lwip/lwip-2.1.2/src/core\timeouts.c ****  * there are active (or time-wait) PCBs.
 164:C:/Users/stapi/OneDrive/Desktop/GD32VW553/GD32VW55X_Wifi_BLE_SDK/GD32VW55x_RELEASE_V1.0.2/MSDK/lwip/lwip-2.1.2/src/core\timeouts.c ****  */
 165:C:/Users/stapi/OneDrive/Desktop/GD32VW553/GD32VW55X_Wifi_BLE_SDK/GD32VW55x_RELEASE_V1.0.2/MSDK/lwip/lwip-2.1.2/src/core\timeouts.c **** void
 166:C:/Users/stapi/OneDrive/Desktop/GD32VW553/GD32VW55X_Wifi_BLE_SDK/GD32VW55x_RELEASE_V1.0.2/MSDK/lwip/lwip-2.1.2/src/core\timeouts.c **** tcp_timer_needed(void)
 167:C:/Users/stapi/OneDrive/Desktop/GD32VW553/GD32VW55X_Wifi_BLE_SDK/GD32VW55x_RELEASE_V1.0.2/MSDK/lwip/lwip-2.1.2/src/core\timeouts.c **** {
 168:C:/Users/stapi/OneDrive/Desktop/GD32VW553/GD32VW55X_Wifi_BLE_SDK/GD32VW55x_RELEASE_V1.0.2/MSDK/lwip/lwip-2.1.2/src/core\timeouts.c ****   LWIP_ASSERT_CORE_LOCKED();
 169:C:/Users/stapi/OneDrive/Desktop/GD32VW553/GD32VW55X_Wifi_BLE_SDK/GD32VW55x_RELEASE_V1.0.2/MSDK/lwip/lwip-2.1.2/src/core\timeouts.c **** 
 170:C:/Users/stapi/OneDrive/Desktop/GD32VW553/GD32VW55X_Wifi_BLE_SDK/GD32VW55x_RELEASE_V1.0.2/MSDK/lwip/lwip-2.1.2/src/core\timeouts.c ****   /* timer is off but needed again? */
 171:C:/Users/stapi/OneDrive/Desktop/GD32VW553/GD32VW55X_Wifi_BLE_SDK/GD32VW55x_RELEASE_V1.0.2/MSDK/lwip/lwip-2.1.2/src/core\timeouts.c ****   if (!tcpip_tcp_timer_active && (tcp_active_pcbs || tcp_tw_pcbs)) {
 172:C:/Users/stapi/OneDrive/Desktop/GD32VW553/GD32VW55X_Wifi_BLE_SDK/GD32VW55x_RELEASE_V1.0.2/MSDK/lwip/lwip-2.1.2/src/core\timeouts.c ****     /* enable and start timer */
 173:C:/Users/stapi/OneDrive/Desktop/GD32VW553/GD32VW55X_Wifi_BLE_SDK/GD32VW55x_RELEASE_V1.0.2/MSDK/lwip/lwip-2.1.2/src/core\timeouts.c ****     tcpip_tcp_timer_active = 1;
 174:C:/Users/stapi/OneDrive/Desktop/GD32VW553/GD32VW55X_Wifi_BLE_SDK/GD32VW55x_RELEASE_V1.0.2/MSDK/lwip/lwip-2.1.2/src/core\timeouts.c ****     sys_timeout(TCP_TMR_INTERVAL, tcpip_tcp_timer, NULL);
 175:C:/Users/stapi/OneDrive/Desktop/GD32VW553/GD32VW55X_Wifi_BLE_SDK/GD32VW55x_RELEASE_V1.0.2/MSDK/lwip/lwip-2.1.2/src/core\timeouts.c ****   }
 176:C:/Users/stapi/OneDrive/Desktop/GD32VW553/GD32VW55X_Wifi_BLE_SDK/GD32VW55x_RELEASE_V1.0.2/MSDK/lwip/lwip-2.1.2/src/core\timeouts.c **** }
 177:C:/Users/stapi/OneDrive/Desktop/GD32VW553/GD32VW55X_Wifi_BLE_SDK/GD32VW55x_RELEASE_V1.0.2/MSDK/lwip/lwip-2.1.2/src/core\timeouts.c **** #endif /* LWIP_TCP */
 178:C:/Users/stapi/OneDrive/Desktop/GD32VW553/GD32VW55X_Wifi_BLE_SDK/GD32VW55x_RELEASE_V1.0.2/MSDK/lwip/lwip-2.1.2/src/core\timeouts.c **** 
 179:C:/Users/stapi/OneDrive/Desktop/GD32VW553/GD32VW55X_Wifi_BLE_SDK/GD32VW55x_RELEASE_V1.0.2/MSDK/lwip/lwip-2.1.2/src/core\timeouts.c **** static void
 180:C:/Users/stapi/OneDrive/Desktop/GD32VW553/GD32VW55X_Wifi_BLE_SDK/GD32VW55x_RELEASE_V1.0.2/MSDK/lwip/lwip-2.1.2/src/core\timeouts.c **** #if LWIP_DEBUG_TIMERNAMES
 181:C:/Users/stapi/OneDrive/Desktop/GD32VW553/GD32VW55X_Wifi_BLE_SDK/GD32VW55x_RELEASE_V1.0.2/MSDK/lwip/lwip-2.1.2/src/core\timeouts.c **** sys_timeout_abs(u32_t abs_time, sys_timeout_handler handler, void *arg, const char *handler_name)
 182:C:/Users/stapi/OneDrive/Desktop/GD32VW553/GD32VW55X_Wifi_BLE_SDK/GD32VW55x_RELEASE_V1.0.2/MSDK/lwip/lwip-2.1.2/src/core\timeouts.c **** #else /* LWIP_DEBUG_TIMERNAMES */
 183:C:/Users/stapi/OneDrive/Desktop/GD32VW553/GD32VW55X_Wifi_BLE_SDK/GD32VW55x_RELEASE_V1.0.2/MSDK/lwip/lwip-2.1.2/src/core\timeouts.c **** sys_timeout_abs(u32_t abs_time, sys_timeout_handler handler, void *arg)
 184:C:/Users/stapi/OneDrive/Desktop/GD32VW553/GD32VW55X_Wifi_BLE_SDK/GD32VW55x_RELEASE_V1.0.2/MSDK/lwip/lwip-2.1.2/src/core\timeouts.c **** #endif
 185:C:/Users/stapi/OneDrive/Desktop/GD32VW553/GD32VW55X_Wifi_BLE_SDK/GD32VW55x_RELEASE_V1.0.2/MSDK/lwip/lwip-2.1.2/src/core\timeouts.c **** {
  25              		.loc 1 185 1
  26              		.cfi_startproc
  27              	.LVL0:
  28 0000 17030000 		call	t0,__riscv_save_3
  28      E7020300 
  29              		.cfi_offset 18, -16
  30              		.cfi_offset 9, -12
  31              		.cfi_offset 8, -8
  32              		.cfi_offset 1, -4
  33              		.cfi_def_cfa_offset 16
 186:C:/Users/stapi/OneDrive/Desktop/GD32VW553/GD32VW55X_Wifi_BLE_SDK/GD32VW55x_RELEASE_V1.0.2/MSDK/lwip/lwip-2.1.2/src/core\timeouts.c ****   struct sys_timeo *timeout, *t;
  34              		.loc 1 186 3
 187:C:/Users/stapi/OneDrive/Desktop/GD32VW553/GD32VW55X_Wifi_BLE_SDK/GD32VW55x_RELEASE_V1.0.2/MSDK/lwip/lwip-2.1.2/src/core\timeouts.c **** 
 188:C:/Users/stapi/OneDrive/Desktop/GD32VW553/GD32VW55X_Wifi_BLE_SDK/GD32VW55x_RELEASE_V1.0.2/MSDK/lwip/lwip-2.1.2/src/core\timeouts.c ****   timeout = (struct sys_timeo *)memp_malloc(MEMP_SYS_TIMEOUT);
  35              		.loc 1 188 3
 185:C:/Users/stapi/OneDrive/Desktop/GD32VW553/GD32VW55X_Wifi_BLE_SDK/GD32VW55x_RELEASE_V1.0.2/MSDK/lwip/lwip-2.1.2/src/core\timeouts.c ****   struct sys_timeo *timeout, *t;
  36              		.loc 1 185 1 is_stmt 0
  37 0008 2A84     		mv	s0,a0
  38              		.loc 1 188 33
  39 000a 3545     		li	a0,13
  40              	.LVL1:
 185:C:/Users/stapi/OneDrive/Desktop/GD32VW553/GD32VW55X_Wifi_BLE_SDK/GD32VW55x_RELEASE_V1.0.2/MSDK/lwip/lwip-2.1.2/src/core\timeouts.c ****   struct sys_timeo *timeout, *t;
  41              		.loc 1 185 1
  42 000c 2E89     		mv	s2,a1
  43 000e B284     		mv	s1,a2
  44              		.loc 1 188 33
  45 0010 97000000 		call	memp_malloc
  45      E7800000 
  46              	.LVL2:
 189:C:/Users/stapi/OneDrive/Desktop/GD32VW553/GD32VW55X_Wifi_BLE_SDK/GD32VW55x_RELEASE_V1.0.2/MSDK/lwip/lwip-2.1.2/src/core\timeouts.c ****   if (timeout == NULL) {
  47              		.loc 1 189 3 is_stmt 1
  48              		.loc 1 189 6 is_stmt 0
  49 0018 05E5     		bne	a0,zero,.L2
 190:C:/Users/stapi/OneDrive/Desktop/GD32VW553/GD32VW55X_Wifi_BLE_SDK/GD32VW55x_RELEASE_V1.0.2/MSDK/lwip/lwip-2.1.2/src/core\timeouts.c ****     LWIP_ASSERT("sys_timeout: timeout != NULL, pool MEMP_SYS_TIMEOUT is empty", timeout != NULL);
  50              		.loc 1 190 5 is_stmt 1 discriminator 1
  51              		.loc 1 190 5 discriminator 1
  52              		.loc 1 190 5 discriminator 1
  53              		.loc 1 190 5 discriminator 1
  54 001a B7060000 		lui	a3,%hi(.LC0)
  55 001e B7050000 		lui	a1,%hi(.LC1)
  56 0022 37050000 		lui	a0,%hi(.LC2)
  57              	.LVL3:
  58 0026 93860600 		addi	a3,a3,%lo(.LC0)
  59 002a 1306E00B 		li	a2,190
  60 002e 93850500 		addi	a1,a1,%lo(.LC1)
  61 0032 13050500 		addi	a0,a0,%lo(.LC2)
  62 0036 97000000 		call	printf
  62      E7800000 
  63              	.LVL4:
  64              	.L3:
  65              		.loc 1 190 5 discriminator 1
  66              		.loc 1 190 5 discriminator 1
  67              		.loc 1 190 5 discriminator 1
  68 003e 01A0     		j	.L3
  69              	.LVL5:
  70              	.L2:
 191:C:/Users/stapi/OneDrive/Desktop/GD32VW553/GD32VW55X_Wifi_BLE_SDK/GD32VW55x_RELEASE_V1.0.2/MSDK/lwip/lwip-2.1.2/src/core\timeouts.c ****     return;
 192:C:/Users/stapi/OneDrive/Desktop/GD32VW553/GD32VW55X_Wifi_BLE_SDK/GD32VW55x_RELEASE_V1.0.2/MSDK/lwip/lwip-2.1.2/src/core\timeouts.c ****   }
 193:C:/Users/stapi/OneDrive/Desktop/GD32VW553/GD32VW55X_Wifi_BLE_SDK/GD32VW55x_RELEASE_V1.0.2/MSDK/lwip/lwip-2.1.2/src/core\timeouts.c **** 
 194:C:/Users/stapi/OneDrive/Desktop/GD32VW553/GD32VW55X_Wifi_BLE_SDK/GD32VW55x_RELEASE_V1.0.2/MSDK/lwip/lwip-2.1.2/src/core\timeouts.c ****   timeout->next = NULL;
  71              		.loc 1 194 3
 195:C:/Users/stapi/OneDrive/Desktop/GD32VW553/GD32VW55X_Wifi_BLE_SDK/GD32VW55x_RELEASE_V1.0.2/MSDK/lwip/lwip-2.1.2/src/core\timeouts.c ****   timeout->h = handler;
 196:C:/Users/stapi/OneDrive/Desktop/GD32VW553/GD32VW55X_Wifi_BLE_SDK/GD32VW55x_RELEASE_V1.0.2/MSDK/lwip/lwip-2.1.2/src/core\timeouts.c ****   timeout->arg = arg;
 197:C:/Users/stapi/OneDrive/Desktop/GD32VW553/GD32VW55X_Wifi_BLE_SDK/GD32VW55x_RELEASE_V1.0.2/MSDK/lwip/lwip-2.1.2/src/core\timeouts.c ****   timeout->time = abs_time;
 198:C:/Users/stapi/OneDrive/Desktop/GD32VW553/GD32VW55X_Wifi_BLE_SDK/GD32VW55x_RELEASE_V1.0.2/MSDK/lwip/lwip-2.1.2/src/core\timeouts.c **** 
 199:C:/Users/stapi/OneDrive/Desktop/GD32VW553/GD32VW55X_Wifi_BLE_SDK/GD32VW55x_RELEASE_V1.0.2/MSDK/lwip/lwip-2.1.2/src/core\timeouts.c **** #if LWIP_DEBUG_TIMERNAMES
 200:C:/Users/stapi/OneDrive/Desktop/GD32VW553/GD32VW55X_Wifi_BLE_SDK/GD32VW55x_RELEASE_V1.0.2/MSDK/lwip/lwip-2.1.2/src/core\timeouts.c ****   timeout->handler_name = handler_name;
 201:C:/Users/stapi/OneDrive/Desktop/GD32VW553/GD32VW55X_Wifi_BLE_SDK/GD32VW55x_RELEASE_V1.0.2/MSDK/lwip/lwip-2.1.2/src/core\timeouts.c ****   LWIP_DEBUGF(TIMERS_DEBUG, ("sys_timeout: %p abs_time=%"U32_F" handler=%s arg=%p\n",
 202:C:/Users/stapi/OneDrive/Desktop/GD32VW553/GD32VW55X_Wifi_BLE_SDK/GD32VW55x_RELEASE_V1.0.2/MSDK/lwip/lwip-2.1.2/src/core\timeouts.c ****                              (void *)timeout, abs_time, handler_name, (void *)arg));
 203:C:/Users/stapi/OneDrive/Desktop/GD32VW553/GD32VW55X_Wifi_BLE_SDK/GD32VW55x_RELEASE_V1.0.2/MSDK/lwip/lwip-2.1.2/src/core\timeouts.c **** #endif /* LWIP_DEBUG_TIMERNAMES */
 204:C:/Users/stapi/OneDrive/Desktop/GD32VW553/GD32VW55X_Wifi_BLE_SDK/GD32VW55x_RELEASE_V1.0.2/MSDK/lwip/lwip-2.1.2/src/core\timeouts.c **** 
 205:C:/Users/stapi/OneDrive/Desktop/GD32VW553/GD32VW55X_Wifi_BLE_SDK/GD32VW55x_RELEASE_V1.0.2/MSDK/lwip/lwip-2.1.2/src/core\timeouts.c ****   if (next_timeout == NULL) {
  72              		.loc 1 205 20 is_stmt 0
  73 0040 37070000 		lui	a4,%hi(.LANCHOR0)
  74 0044 13070700 		addi	a4,a4,%lo(.LANCHOR0)
  75 0048 1C43     		lw	a5,0(a4)
 194:C:/Users/stapi/OneDrive/Desktop/GD32VW553/GD32VW55X_Wifi_BLE_SDK/GD32VW55x_RELEASE_V1.0.2/MSDK/lwip/lwip-2.1.2/src/core\timeouts.c ****   timeout->h = handler;
  76              		.loc 1 194 17
  77 004a 23200500 		sw	zero,0(a0)
 195:C:/Users/stapi/OneDrive/Desktop/GD32VW553/GD32VW55X_Wifi_BLE_SDK/GD32VW55x_RELEASE_V1.0.2/MSDK/lwip/lwip-2.1.2/src/core\timeouts.c ****   timeout->h = handler;
  78              		.loc 1 195 3 is_stmt 1
 195:C:/Users/stapi/OneDrive/Desktop/GD32VW553/GD32VW55X_Wifi_BLE_SDK/GD32VW55x_RELEASE_V1.0.2/MSDK/lwip/lwip-2.1.2/src/core\timeouts.c ****   timeout->h = handler;
  79              		.loc 1 195 14 is_stmt 0
  80 004e 23242501 		sw	s2,8(a0)
 196:C:/Users/stapi/OneDrive/Desktop/GD32VW553/GD32VW55X_Wifi_BLE_SDK/GD32VW55x_RELEASE_V1.0.2/MSDK/lwip/lwip-2.1.2/src/core\timeouts.c ****   timeout->time = abs_time;
  81              		.loc 1 196 3 is_stmt 1
 196:C:/Users/stapi/OneDrive/Desktop/GD32VW553/GD32VW55X_Wifi_BLE_SDK/GD32VW55x_RELEASE_V1.0.2/MSDK/lwip/lwip-2.1.2/src/core\timeouts.c ****   timeout->time = abs_time;
  82              		.loc 1 196 16 is_stmt 0
  83 0052 44C5     		sw	s1,12(a0)
 197:C:/Users/stapi/OneDrive/Desktop/GD32VW553/GD32VW55X_Wifi_BLE_SDK/GD32VW55x_RELEASE_V1.0.2/MSDK/lwip/lwip-2.1.2/src/core\timeouts.c **** 
  84              		.loc 1 197 3 is_stmt 1
 197:C:/Users/stapi/OneDrive/Desktop/GD32VW553/GD32VW55X_Wifi_BLE_SDK/GD32VW55x_RELEASE_V1.0.2/MSDK/lwip/lwip-2.1.2/src/core\timeouts.c **** 
  85              		.loc 1 197 17 is_stmt 0
  86 0054 40C1     		sw	s0,4(a0)
  87              		.loc 1 205 3 is_stmt 1
  88              		.loc 1 205 6 is_stmt 0
  89 0056 91E7     		bne	a5,zero,.L4
  90              	.L16:
 206:C:/Users/stapi/OneDrive/Desktop/GD32VW553/GD32VW55X_Wifi_BLE_SDK/GD32VW55x_RELEASE_V1.0.2/MSDK/lwip/lwip-2.1.2/src/core\timeouts.c ****     next_timeout = timeout;
 207:C:/Users/stapi/OneDrive/Desktop/GD32VW553/GD32VW55X_Wifi_BLE_SDK/GD32VW55x_RELEASE_V1.0.2/MSDK/lwip/lwip-2.1.2/src/core\timeouts.c ****     return;
 208:C:/Users/stapi/OneDrive/Desktop/GD32VW553/GD32VW55X_Wifi_BLE_SDK/GD32VW55x_RELEASE_V1.0.2/MSDK/lwip/lwip-2.1.2/src/core\timeouts.c ****   }
 209:C:/Users/stapi/OneDrive/Desktop/GD32VW553/GD32VW55X_Wifi_BLE_SDK/GD32VW55x_RELEASE_V1.0.2/MSDK/lwip/lwip-2.1.2/src/core\timeouts.c ****   if (TIME_LESS_THAN(timeout->time, next_timeout->time)) {
 210:C:/Users/stapi/OneDrive/Desktop/GD32VW553/GD32VW55X_Wifi_BLE_SDK/GD32VW55x_RELEASE_V1.0.2/MSDK/lwip/lwip-2.1.2/src/core\timeouts.c ****     timeout->next = next_timeout;
 211:C:/Users/stapi/OneDrive/Desktop/GD32VW553/GD32VW55X_Wifi_BLE_SDK/GD32VW55x_RELEASE_V1.0.2/MSDK/lwip/lwip-2.1.2/src/core\timeouts.c ****     next_timeout = timeout;
  91              		.loc 1 211 5 is_stmt 1
  92              		.loc 1 211 18 is_stmt 0
  93 0058 08C3     		sw	a0,0(a4)
  94              	.L1:
 212:C:/Users/stapi/OneDrive/Desktop/GD32VW553/GD32VW55X_Wifi_BLE_SDK/GD32VW55x_RELEASE_V1.0.2/MSDK/lwip/lwip-2.1.2/src/core\timeouts.c ****   } else {
 213:C:/Users/stapi/OneDrive/Desktop/GD32VW553/GD32VW55X_Wifi_BLE_SDK/GD32VW55x_RELEASE_V1.0.2/MSDK/lwip/lwip-2.1.2/src/core\timeouts.c ****     for (t = next_timeout; t != NULL; t = t->next) {
 214:C:/Users/stapi/OneDrive/Desktop/GD32VW553/GD32VW55X_Wifi_BLE_SDK/GD32VW55x_RELEASE_V1.0.2/MSDK/lwip/lwip-2.1.2/src/core\timeouts.c ****       if ((t->next == NULL) || TIME_LESS_THAN(timeout->time, t->next->time)) {
 215:C:/Users/stapi/OneDrive/Desktop/GD32VW553/GD32VW55X_Wifi_BLE_SDK/GD32VW55x_RELEASE_V1.0.2/MSDK/lwip/lwip-2.1.2/src/core\timeouts.c ****         timeout->next = t->next;
 216:C:/Users/stapi/OneDrive/Desktop/GD32VW553/GD32VW55X_Wifi_BLE_SDK/GD32VW55x_RELEASE_V1.0.2/MSDK/lwip/lwip-2.1.2/src/core\timeouts.c ****         t->next = timeout;
 217:C:/Users/stapi/OneDrive/Desktop/GD32VW553/GD32VW55X_Wifi_BLE_SDK/GD32VW55x_RELEASE_V1.0.2/MSDK/lwip/lwip-2.1.2/src/core\timeouts.c ****         break;
 218:C:/Users/stapi/OneDrive/Desktop/GD32VW553/GD32VW55X_Wifi_BLE_SDK/GD32VW55x_RELEASE_V1.0.2/MSDK/lwip/lwip-2.1.2/src/core\timeouts.c ****       }
 219:C:/Users/stapi/OneDrive/Desktop/GD32VW553/GD32VW55X_Wifi_BLE_SDK/GD32VW55x_RELEASE_V1.0.2/MSDK/lwip/lwip-2.1.2/src/core\timeouts.c ****     }
 220:C:/Users/stapi/OneDrive/Desktop/GD32VW553/GD32VW55X_Wifi_BLE_SDK/GD32VW55x_RELEASE_V1.0.2/MSDK/lwip/lwip-2.1.2/src/core\timeouts.c ****   }
 221:C:/Users/stapi/OneDrive/Desktop/GD32VW553/GD32VW55X_Wifi_BLE_SDK/GD32VW55x_RELEASE_V1.0.2/MSDK/lwip/lwip-2.1.2/src/core\timeouts.c **** }
  95              		.loc 1 221 1
  96 005a 17030000 		tail	__riscv_restore_3
  96      67000300 
  97              		.cfi_remember_state
  98              		.cfi_restore 18
  99              		.cfi_restore 9
 100              		.cfi_restore 8
 101              		.cfi_restore 1
 102              		.cfi_def_cfa_offset 0
 103              	.L4:
 104              		.cfi_restore_state
 209:C:/Users/stapi/OneDrive/Desktop/GD32VW553/GD32VW55X_Wifi_BLE_SDK/GD32VW55x_RELEASE_V1.0.2/MSDK/lwip/lwip-2.1.2/src/core\timeouts.c ****     timeout->next = next_timeout;
 105              		.loc 1 209 3 is_stmt 1
 209:C:/Users/stapi/OneDrive/Desktop/GD32VW553/GD32VW55X_Wifi_BLE_SDK/GD32VW55x_RELEASE_V1.0.2/MSDK/lwip/lwip-2.1.2/src/core\timeouts.c ****     timeout->next = next_timeout;
 106              		.loc 1 209 7 is_stmt 0
 107 0062 D443     		lw	a3,4(a5)
 108 0064 B306D440 		sub	a3,s0,a3
 209:C:/Users/stapi/OneDrive/Desktop/GD32VW553/GD32VW55X_Wifi_BLE_SDK/GD32VW55x_RELEASE_V1.0.2/MSDK/lwip/lwip-2.1.2/src/core\timeouts.c ****     timeout->next = next_timeout;
 109              		.loc 1 209 6
 110 0068 63D40600 		bge	a3,zero,.L6
 210:C:/Users/stapi/OneDrive/Desktop/GD32VW553/GD32VW55X_Wifi_BLE_SDK/GD32VW55x_RELEASE_V1.0.2/MSDK/lwip/lwip-2.1.2/src/core\timeouts.c ****     next_timeout = timeout;
 111              		.loc 1 210 5 is_stmt 1
 210:C:/Users/stapi/OneDrive/Desktop/GD32VW553/GD32VW55X_Wifi_BLE_SDK/GD32VW55x_RELEASE_V1.0.2/MSDK/lwip/lwip-2.1.2/src/core\timeouts.c ****     next_timeout = timeout;
 112              		.loc 1 210 19 is_stmt 0
 113 006c 1CC1     		sw	a5,0(a0)
 114 006e EDB7     		j	.L16
 115              	.L6:
 116              	.LVL6:
 214:C:/Users/stapi/OneDrive/Desktop/GD32VW553/GD32VW55X_Wifi_BLE_SDK/GD32VW55x_RELEASE_V1.0.2/MSDK/lwip/lwip-2.1.2/src/core\timeouts.c ****         timeout->next = t->next;
 117              		.loc 1 214 7 is_stmt 1
 118 0070 BE86     		mv	a3,a5
 214:C:/Users/stapi/OneDrive/Desktop/GD32VW553/GD32VW55X_Wifi_BLE_SDK/GD32VW55x_RELEASE_V1.0.2/MSDK/lwip/lwip-2.1.2/src/core\timeouts.c ****         timeout->next = t->next;
 119              		.loc 1 214 13 is_stmt 0
 120 0072 9C43     		lw	a5,0(a5)
 121              	.LVL7:
 214:C:/Users/stapi/OneDrive/Desktop/GD32VW553/GD32VW55X_Wifi_BLE_SDK/GD32VW55x_RELEASE_V1.0.2/MSDK/lwip/lwip-2.1.2/src/core\timeouts.c ****         timeout->next = t->next;
 122              		.loc 1 214 10
 123 0074 91C7     		beq	a5,zero,.L7
 214:C:/Users/stapi/OneDrive/Desktop/GD32VW553/GD32VW55X_Wifi_BLE_SDK/GD32VW55x_RELEASE_V1.0.2/MSDK/lwip/lwip-2.1.2/src/core\timeouts.c ****         timeout->next = t->next;
 124              		.loc 1 214 32 discriminator 1
 125 0076 D843     		lw	a4,4(a5)
 126 0078 3307E440 		sub	a4,s0,a4
 214:C:/Users/stapi/OneDrive/Desktop/GD32VW553/GD32VW55X_Wifi_BLE_SDK/GD32VW55x_RELEASE_V1.0.2/MSDK/lwip/lwip-2.1.2/src/core\timeouts.c ****         timeout->next = t->next;
 127              		.loc 1 214 29 discriminator 1
 128 007c E35A07FE 		bge	a4,zero,.L6
 129              	.L7:
 215:C:/Users/stapi/OneDrive/Desktop/GD32VW553/GD32VW55X_Wifi_BLE_SDK/GD32VW55x_RELEASE_V1.0.2/MSDK/lwip/lwip-2.1.2/src/core\timeouts.c ****         t->next = timeout;
 130              		.loc 1 215 9 is_stmt 1
 215:C:/Users/stapi/OneDrive/Desktop/GD32VW553/GD32VW55X_Wifi_BLE_SDK/GD32VW55x_RELEASE_V1.0.2/MSDK/lwip/lwip-2.1.2/src/core\timeouts.c ****         t->next = timeout;
 131              		.loc 1 215 23 is_stmt 0
 132 0080 1CC1     		sw	a5,0(a0)
 216:C:/Users/stapi/OneDrive/Desktop/GD32VW553/GD32VW55X_Wifi_BLE_SDK/GD32VW55x_RELEASE_V1.0.2/MSDK/lwip/lwip-2.1.2/src/core\timeouts.c ****         break;
 133              		.loc 1 216 9 is_stmt 1
 216:C:/Users/stapi/OneDrive/Desktop/GD32VW553/GD32VW55X_Wifi_BLE_SDK/GD32VW55x_RELEASE_V1.0.2/MSDK/lwip/lwip-2.1.2/src/core\timeouts.c ****         break;
 134              		.loc 1 216 17 is_stmt 0
 135 0082 88C2     		sw	a0,0(a3)
 217:C:/Users/stapi/OneDrive/Desktop/GD32VW553/GD32VW55X_Wifi_BLE_SDK/GD32VW55x_RELEASE_V1.0.2/MSDK/lwip/lwip-2.1.2/src/core\timeouts.c ****       }
 136              		.loc 1 217 9 is_stmt 1
 137 0084 D9BF     		j	.L1
 138              		.cfi_endproc
 139              	.LFE5:
 141              		.section	.text.lwip_cyclic_timer,"ax",@progbits
 142              		.align	1
 144              	lwip_cyclic_timer:
 145              	.LFB6:
 222:C:/Users/stapi/OneDrive/Desktop/GD32VW553/GD32VW55X_Wifi_BLE_SDK/GD32VW55x_RELEASE_V1.0.2/MSDK/lwip/lwip-2.1.2/src/core\timeouts.c **** 
 223:C:/Users/stapi/OneDrive/Desktop/GD32VW553/GD32VW55X_Wifi_BLE_SDK/GD32VW55x_RELEASE_V1.0.2/MSDK/lwip/lwip-2.1.2/src/core\timeouts.c **** /**
 224:C:/Users/stapi/OneDrive/Desktop/GD32VW553/GD32VW55X_Wifi_BLE_SDK/GD32VW55x_RELEASE_V1.0.2/MSDK/lwip/lwip-2.1.2/src/core\timeouts.c ****  * Timer callback function that calls cyclic->handler() and reschedules itself.
 225:C:/Users/stapi/OneDrive/Desktop/GD32VW553/GD32VW55X_Wifi_BLE_SDK/GD32VW55x_RELEASE_V1.0.2/MSDK/lwip/lwip-2.1.2/src/core\timeouts.c ****  *
 226:C:/Users/stapi/OneDrive/Desktop/GD32VW553/GD32VW55X_Wifi_BLE_SDK/GD32VW55x_RELEASE_V1.0.2/MSDK/lwip/lwip-2.1.2/src/core\timeouts.c ****  * @param arg unused argument
 227:C:/Users/stapi/OneDrive/Desktop/GD32VW553/GD32VW55X_Wifi_BLE_SDK/GD32VW55x_RELEASE_V1.0.2/MSDK/lwip/lwip-2.1.2/src/core\timeouts.c ****  */
 228:C:/Users/stapi/OneDrive/Desktop/GD32VW553/GD32VW55X_Wifi_BLE_SDK/GD32VW55x_RELEASE_V1.0.2/MSDK/lwip/lwip-2.1.2/src/core\timeouts.c **** #if !LWIP_TESTMODE
 229:C:/Users/stapi/OneDrive/Desktop/GD32VW553/GD32VW55X_Wifi_BLE_SDK/GD32VW55x_RELEASE_V1.0.2/MSDK/lwip/lwip-2.1.2/src/core\timeouts.c **** static
 230:C:/Users/stapi/OneDrive/Desktop/GD32VW553/GD32VW55X_Wifi_BLE_SDK/GD32VW55x_RELEASE_V1.0.2/MSDK/lwip/lwip-2.1.2/src/core\timeouts.c **** #endif
 231:C:/Users/stapi/OneDrive/Desktop/GD32VW553/GD32VW55X_Wifi_BLE_SDK/GD32VW55x_RELEASE_V1.0.2/MSDK/lwip/lwip-2.1.2/src/core\timeouts.c **** void
 232:C:/Users/stapi/OneDrive/Desktop/GD32VW553/GD32VW55X_Wifi_BLE_SDK/GD32VW55x_RELEASE_V1.0.2/MSDK/lwip/lwip-2.1.2/src/core\timeouts.c **** lwip_cyclic_timer(void *arg)
 233:C:/Users/stapi/OneDrive/Desktop/GD32VW553/GD32VW55X_Wifi_BLE_SDK/GD32VW55x_RELEASE_V1.0.2/MSDK/lwip/lwip-2.1.2/src/core\timeouts.c **** {
 146              		.loc 1 233 1
 147              		.cfi_startproc
 148              	.LVL8:
 149 0000 17030000 		call	t0,__riscv_save_0
 149      E7020300 
 150              		.cfi_offset 1, -4
 151              		.cfi_def_cfa_offset 16
 234:C:/Users/stapi/OneDrive/Desktop/GD32VW553/GD32VW55X_Wifi_BLE_SDK/GD32VW55x_RELEASE_V1.0.2/MSDK/lwip/lwip-2.1.2/src/core\timeouts.c ****   u32_t now;
 152              		.loc 1 234 3
 235:C:/Users/stapi/OneDrive/Desktop/GD32VW553/GD32VW55X_Wifi_BLE_SDK/GD32VW55x_RELEASE_V1.0.2/MSDK/lwip/lwip-2.1.2/src/core\timeouts.c ****   u32_t next_timeout_time;
 153              		.loc 1 235 3
 236:C:/Users/stapi/OneDrive/Desktop/GD32VW553/GD32VW55X_Wifi_BLE_SDK/GD32VW55x_RELEASE_V1.0.2/MSDK/lwip/lwip-2.1.2/src/core\timeouts.c ****   const struct lwip_cyclic_timer *cyclic = (const struct lwip_cyclic_timer *)arg;
 154              		.loc 1 236 3
 155              	.LVL9:
 237:C:/Users/stapi/OneDrive/Desktop/GD32VW553/GD32VW55X_Wifi_BLE_SDK/GD32VW55x_RELEASE_V1.0.2/MSDK/lwip/lwip-2.1.2/src/core\timeouts.c **** 
 238:C:/Users/stapi/OneDrive/Desktop/GD32VW553/GD32VW55X_Wifi_BLE_SDK/GD32VW55x_RELEASE_V1.0.2/MSDK/lwip/lwip-2.1.2/src/core\timeouts.c **** #if LWIP_DEBUG_TIMERNAMES
 239:C:/Users/stapi/OneDrive/Desktop/GD32VW553/GD32VW55X_Wifi_BLE_SDK/GD32VW55x_RELEASE_V1.0.2/MSDK/lwip/lwip-2.1.2/src/core\timeouts.c ****   LWIP_DEBUGF(TIMERS_DEBUG, ("tcpip: %s()\n", cyclic->handler_name));
 240:C:/Users/stapi/OneDrive/Desktop/GD32VW553/GD32VW55X_Wifi_BLE_SDK/GD32VW55x_RELEASE_V1.0.2/MSDK/lwip/lwip-2.1.2/src/core\timeouts.c **** #endif
 241:C:/Users/stapi/OneDrive/Desktop/GD32VW553/GD32VW55X_Wifi_BLE_SDK/GD32VW55x_RELEASE_V1.0.2/MSDK/lwip/lwip-2.1.2/src/core\timeouts.c ****   cyclic->handler();
 156              		.loc 1 241 3
 157 0008 5C41     		lw	a5,4(a0)
 233:C:/Users/stapi/OneDrive/Desktop/GD32VW553/GD32VW55X_Wifi_BLE_SDK/GD32VW55x_RELEASE_V1.0.2/MSDK/lwip/lwip-2.1.2/src/core\timeouts.c ****   u32_t now;
 158              		.loc 1 233 1 is_stmt 0
 159 000a 4111     		addi	sp,sp,-16
 160              		.cfi_def_cfa_offset 32
 161              		.loc 1 241 3
 162 000c 2AC6     		sw	a0,12(sp)
 163 000e 8297     		jalr	a5
 164              	.LVL10:
 242:C:/Users/stapi/OneDrive/Desktop/GD32VW553/GD32VW55X_Wifi_BLE_SDK/GD32VW55x_RELEASE_V1.0.2/MSDK/lwip/lwip-2.1.2/src/core\timeouts.c **** 
 243:C:/Users/stapi/OneDrive/Desktop/GD32VW553/GD32VW55X_Wifi_BLE_SDK/GD32VW55x_RELEASE_V1.0.2/MSDK/lwip/lwip-2.1.2/src/core\timeouts.c ****   now = sys_now();
 165              		.loc 1 243 3 is_stmt 1
 166              		.loc 1 243 9 is_stmt 0
 167 0010 97000000 		call	sys_now
 167      E7800000 
 168              	.LVL11:
 244:C:/Users/stapi/OneDrive/Desktop/GD32VW553/GD32VW55X_Wifi_BLE_SDK/GD32VW55x_RELEASE_V1.0.2/MSDK/lwip/lwip-2.1.2/src/core\timeouts.c ****   next_timeout_time = (u32_t)(current_timeout_due_time + cyclic->interval_ms);  /* overflow handled
 169              		.loc 1 244 64
 170 0018 3246     		lw	a2,12(sp)
 171              		.loc 1 244 21
 172 001a B7070000 		lui	a5,%hi(.LANCHOR1)
 173 001e 83A70700 		lw	a5,%lo(.LANCHOR1)(a5)
 174              		.loc 1 244 64
 175 0022 1442     		lw	a3,0(a2)
 243:C:/Users/stapi/OneDrive/Desktop/GD32VW553/GD32VW55X_Wifi_BLE_SDK/GD32VW55x_RELEASE_V1.0.2/MSDK/lwip/lwip-2.1.2/src/core\timeouts.c ****   next_timeout_time = (u32_t)(current_timeout_due_time + cyclic->interval_ms);  /* overflow handled
 176              		.loc 1 243 9
 177 0024 2A87     		mv	a4,a0
 178              	.LVL12:
 179              		.loc 1 244 3 is_stmt 1
 180 0026 B7050000 		lui	a1,%hi(lwip_cyclic_timer)
 181              		.loc 1 244 21 is_stmt 0
 182 002a 3385F600 		add	a0,a3,a5
 183              	.LVL13:
 245:C:/Users/stapi/OneDrive/Desktop/GD32VW553/GD32VW55X_Wifi_BLE_SDK/GD32VW55x_RELEASE_V1.0.2/MSDK/lwip/lwip-2.1.2/src/core\timeouts.c ****   if (TIME_LESS_THAN(next_timeout_time, now)) {
 184              		.loc 1 245 3 is_stmt 1
 185              		.loc 1 245 7 is_stmt 0
 186 002e B307E540 		sub	a5,a0,a4
 246:C:/Users/stapi/OneDrive/Desktop/GD32VW553/GD32VW55X_Wifi_BLE_SDK/GD32VW55x_RELEASE_V1.0.2/MSDK/lwip/lwip-2.1.2/src/core\timeouts.c ****     /* timer would immediately expire again -> "overload" -> restart without any correction */
 247:C:/Users/stapi/OneDrive/Desktop/GD32VW553/GD32VW55X_Wifi_BLE_SDK/GD32VW55x_RELEASE_V1.0.2/MSDK/lwip/lwip-2.1.2/src/core\timeouts.c **** #if LWIP_DEBUG_TIMERNAMES
 248:C:/Users/stapi/OneDrive/Desktop/GD32VW553/GD32VW55X_Wifi_BLE_SDK/GD32VW55x_RELEASE_V1.0.2/MSDK/lwip/lwip-2.1.2/src/core\timeouts.c ****     sys_timeout_abs((u32_t)(now + cyclic->interval_ms), lwip_cyclic_timer, arg, cyclic->handler_nam
 249:C:/Users/stapi/OneDrive/Desktop/GD32VW553/GD32VW55X_Wifi_BLE_SDK/GD32VW55x_RELEASE_V1.0.2/MSDK/lwip/lwip-2.1.2/src/core\timeouts.c **** #else
 250:C:/Users/stapi/OneDrive/Desktop/GD32VW553/GD32VW55X_Wifi_BLE_SDK/GD32VW55x_RELEASE_V1.0.2/MSDK/lwip/lwip-2.1.2/src/core\timeouts.c ****     sys_timeout_abs((u32_t)(now + cyclic->interval_ms), lwip_cyclic_timer, arg);
 187              		.loc 1 250 5
 188 0032 93850500 		addi	a1,a1,%lo(lwip_cyclic_timer)
 245:C:/Users/stapi/OneDrive/Desktop/GD32VW553/GD32VW55X_Wifi_BLE_SDK/GD32VW55x_RELEASE_V1.0.2/MSDK/lwip/lwip-2.1.2/src/core\timeouts.c ****   if (TIME_LESS_THAN(next_timeout_time, now)) {
 189              		.loc 1 245 6
 190 0036 63D40700 		bge	a5,zero,.L18
 191              		.loc 1 250 5 is_stmt 1
 192 003a 3385E600 		add	a0,a3,a4
 193              	.LVL14:
 194              	.L18:
 251:C:/Users/stapi/OneDrive/Desktop/GD32VW553/GD32VW55X_Wifi_BLE_SDK/GD32VW55x_RELEASE_V1.0.2/MSDK/lwip/lwip-2.1.2/src/core\timeouts.c **** #endif
 252:C:/Users/stapi/OneDrive/Desktop/GD32VW553/GD32VW55X_Wifi_BLE_SDK/GD32VW55x_RELEASE_V1.0.2/MSDK/lwip/lwip-2.1.2/src/core\timeouts.c **** 
 253:C:/Users/stapi/OneDrive/Desktop/GD32VW553/GD32VW55X_Wifi_BLE_SDK/GD32VW55x_RELEASE_V1.0.2/MSDK/lwip/lwip-2.1.2/src/core\timeouts.c ****   } else {
 254:C:/Users/stapi/OneDrive/Desktop/GD32VW553/GD32VW55X_Wifi_BLE_SDK/GD32VW55x_RELEASE_V1.0.2/MSDK/lwip/lwip-2.1.2/src/core\timeouts.c ****     /* correct cyclic interval with handler execution delay and sys_check_timeouts jitter */
 255:C:/Users/stapi/OneDrive/Desktop/GD32VW553/GD32VW55X_Wifi_BLE_SDK/GD32VW55x_RELEASE_V1.0.2/MSDK/lwip/lwip-2.1.2/src/core\timeouts.c **** #if LWIP_DEBUG_TIMERNAMES
 256:C:/Users/stapi/OneDrive/Desktop/GD32VW553/GD32VW55X_Wifi_BLE_SDK/GD32VW55x_RELEASE_V1.0.2/MSDK/lwip/lwip-2.1.2/src/core\timeouts.c ****     sys_timeout_abs(next_timeout_time, lwip_cyclic_timer, arg, cyclic->handler_name);
 257:C:/Users/stapi/OneDrive/Desktop/GD32VW553/GD32VW55X_Wifi_BLE_SDK/GD32VW55x_RELEASE_V1.0.2/MSDK/lwip/lwip-2.1.2/src/core\timeouts.c **** #else
 258:C:/Users/stapi/OneDrive/Desktop/GD32VW553/GD32VW55X_Wifi_BLE_SDK/GD32VW55x_RELEASE_V1.0.2/MSDK/lwip/lwip-2.1.2/src/core\timeouts.c ****     sys_timeout_abs(next_timeout_time, lwip_cyclic_timer, arg);
 195              		.loc 1 258 5
 196 003e 97000000 		call	sys_timeout_abs
 196      E7800000 
 197              	.LVL15:
 259:C:/Users/stapi/OneDrive/Desktop/GD32VW553/GD32VW55X_Wifi_BLE_SDK/GD32VW55x_RELEASE_V1.0.2/MSDK/lwip/lwip-2.1.2/src/core\timeouts.c **** #endif
 260:C:/Users/stapi/OneDrive/Desktop/GD32VW553/GD32VW55X_Wifi_BLE_SDK/GD32VW55x_RELEASE_V1.0.2/MSDK/lwip/lwip-2.1.2/src/core\timeouts.c ****   }
 261:C:/Users/stapi/OneDrive/Desktop/GD32VW553/GD32VW55X_Wifi_BLE_SDK/GD32VW55x_RELEASE_V1.0.2/MSDK/lwip/lwip-2.1.2/src/core\timeouts.c **** }
 198              		.loc 1 261 1 is_stmt 0
 199 0046 4101     		addi	sp,sp,16
 200              		.cfi_def_cfa_offset 0
 201              	.LVL16:
 202 0048 17030000 		tail	__riscv_restore_0
 202      67000300 
 203              		.cfi_restore 1
 204              		.cfi_def_cfa_offset -16
 205              		.cfi_endproc
 206              	.LFE6:
 208              		.section	.text.tcpip_tcp_timer,"ax",@progbits
 209              		.align	1
 211              	tcpip_tcp_timer:
 212              	.LFB3:
 145:C:/Users/stapi/OneDrive/Desktop/GD32VW553/GD32VW55X_Wifi_BLE_SDK/GD32VW55x_RELEASE_V1.0.2/MSDK/lwip/lwip-2.1.2/src/core\timeouts.c ****   LWIP_UNUSED_ARG(arg);
 213              		.loc 1 145 1 is_stmt 1
 214              		.cfi_startproc
 215              	.LVL17:
 216 0000 17030000 		call	t0,__riscv_save_0
 216      E7020300 
 217              		.cfi_offset 1, -4
 218              		.cfi_def_cfa_offset 16
 146:C:/Users/stapi/OneDrive/Desktop/GD32VW553/GD32VW55X_Wifi_BLE_SDK/GD32VW55x_RELEASE_V1.0.2/MSDK/lwip/lwip-2.1.2/src/core\timeouts.c **** 
 219              		.loc 1 146 3
 149:C:/Users/stapi/OneDrive/Desktop/GD32VW553/GD32VW55X_Wifi_BLE_SDK/GD32VW55x_RELEASE_V1.0.2/MSDK/lwip/lwip-2.1.2/src/core\timeouts.c ****   /* timer still needed? */
 220              		.loc 1 149 3
 221 0008 97000000 		call	tcp_tmr
 221      E7800000 
 222              	.LVL18:
 151:C:/Users/stapi/OneDrive/Desktop/GD32VW553/GD32VW55X_Wifi_BLE_SDK/GD32VW55x_RELEASE_V1.0.2/MSDK/lwip/lwip-2.1.2/src/core\timeouts.c ****     /* restart timer */
 223              		.loc 1 151 3
 151:C:/Users/stapi/OneDrive/Desktop/GD32VW553/GD32VW55X_Wifi_BLE_SDK/GD32VW55x_RELEASE_V1.0.2/MSDK/lwip/lwip-2.1.2/src/core\timeouts.c ****     /* restart timer */
 224              		.loc 1 151 7 is_stmt 0
 225 0010 B7070000 		lui	a5,%hi(tcp_active_pcbs)
 151:C:/Users/stapi/OneDrive/Desktop/GD32VW553/GD32VW55X_Wifi_BLE_SDK/GD32VW55x_RELEASE_V1.0.2/MSDK/lwip/lwip-2.1.2/src/core\timeouts.c ****     /* restart timer */
 226              		.loc 1 151 6
 227 0014 83A70700 		lw	a5,%lo(tcp_active_pcbs)(a5)
 228 0018 91E7     		bne	a5,zero,.L22
 151:C:/Users/stapi/OneDrive/Desktop/GD32VW553/GD32VW55X_Wifi_BLE_SDK/GD32VW55x_RELEASE_V1.0.2/MSDK/lwip/lwip-2.1.2/src/core\timeouts.c ****     /* restart timer */
 229              		.loc 1 151 23 discriminator 1
 230 001a B7070000 		lui	a5,%hi(tcp_tw_pcbs)
 231 001e 83A70700 		lw	a5,%lo(tcp_tw_pcbs)(a5)
 232 0022 85C7     		beq	a5,zero,.L23
 233              	.L22:
 153:C:/Users/stapi/OneDrive/Desktop/GD32VW553/GD32VW55X_Wifi_BLE_SDK/GD32VW55x_RELEASE_V1.0.2/MSDK/lwip/lwip-2.1.2/src/core\timeouts.c ****   } else {
 234              		.loc 1 153 5 is_stmt 1
 235              	.LVL19:
 236              	.LBB10:
 237              	.LBB11:
 262:C:/Users/stapi/OneDrive/Desktop/GD32VW553/GD32VW55X_Wifi_BLE_SDK/GD32VW55x_RELEASE_V1.0.2/MSDK/lwip/lwip-2.1.2/src/core\timeouts.c **** 
 263:C:/Users/stapi/OneDrive/Desktop/GD32VW553/GD32VW55X_Wifi_BLE_SDK/GD32VW55x_RELEASE_V1.0.2/MSDK/lwip/lwip-2.1.2/src/core\timeouts.c **** /** Initialize this module */
 264:C:/Users/stapi/OneDrive/Desktop/GD32VW553/GD32VW55X_Wifi_BLE_SDK/GD32VW55x_RELEASE_V1.0.2/MSDK/lwip/lwip-2.1.2/src/core\timeouts.c **** void sys_timeouts_init(void)
 265:C:/Users/stapi/OneDrive/Desktop/GD32VW553/GD32VW55X_Wifi_BLE_SDK/GD32VW55x_RELEASE_V1.0.2/MSDK/lwip/lwip-2.1.2/src/core\timeouts.c **** {
 266:C:/Users/stapi/OneDrive/Desktop/GD32VW553/GD32VW55X_Wifi_BLE_SDK/GD32VW55x_RELEASE_V1.0.2/MSDK/lwip/lwip-2.1.2/src/core\timeouts.c ****   size_t i;
 267:C:/Users/stapi/OneDrive/Desktop/GD32VW553/GD32VW55X_Wifi_BLE_SDK/GD32VW55x_RELEASE_V1.0.2/MSDK/lwip/lwip-2.1.2/src/core\timeouts.c ****   /* tcp_tmr() at index 0 is started on demand */
 268:C:/Users/stapi/OneDrive/Desktop/GD32VW553/GD32VW55X_Wifi_BLE_SDK/GD32VW55x_RELEASE_V1.0.2/MSDK/lwip/lwip-2.1.2/src/core\timeouts.c ****   for (i = (LWIP_TCP ? 1 : 0); i < LWIP_ARRAYSIZE(lwip_cyclic_timers); i++) {
 269:C:/Users/stapi/OneDrive/Desktop/GD32VW553/GD32VW55X_Wifi_BLE_SDK/GD32VW55x_RELEASE_V1.0.2/MSDK/lwip/lwip-2.1.2/src/core\timeouts.c ****     /* we have to cast via size_t to get rid of const warning
 270:C:/Users/stapi/OneDrive/Desktop/GD32VW553/GD32VW55X_Wifi_BLE_SDK/GD32VW55x_RELEASE_V1.0.2/MSDK/lwip/lwip-2.1.2/src/core\timeouts.c ****       (this is OK as cyclic_timer() casts back to const* */
 271:C:/Users/stapi/OneDrive/Desktop/GD32VW553/GD32VW55X_Wifi_BLE_SDK/GD32VW55x_RELEASE_V1.0.2/MSDK/lwip/lwip-2.1.2/src/core\timeouts.c ****     sys_timeout(lwip_cyclic_timers[i].interval_ms, lwip_cyclic_timer, LWIP_CONST_CAST(void *, &lwip
 272:C:/Users/stapi/OneDrive/Desktop/GD32VW553/GD32VW55X_Wifi_BLE_SDK/GD32VW55x_RELEASE_V1.0.2/MSDK/lwip/lwip-2.1.2/src/core\timeouts.c ****   }
 273:C:/Users/stapi/OneDrive/Desktop/GD32VW553/GD32VW55X_Wifi_BLE_SDK/GD32VW55x_RELEASE_V1.0.2/MSDK/lwip/lwip-2.1.2/src/core\timeouts.c **** }
 274:C:/Users/stapi/OneDrive/Desktop/GD32VW553/GD32VW55X_Wifi_BLE_SDK/GD32VW55x_RELEASE_V1.0.2/MSDK/lwip/lwip-2.1.2/src/core\timeouts.c **** 
 275:C:/Users/stapi/OneDrive/Desktop/GD32VW553/GD32VW55X_Wifi_BLE_SDK/GD32VW55x_RELEASE_V1.0.2/MSDK/lwip/lwip-2.1.2/src/core\timeouts.c **** /**
 276:C:/Users/stapi/OneDrive/Desktop/GD32VW553/GD32VW55X_Wifi_BLE_SDK/GD32VW55x_RELEASE_V1.0.2/MSDK/lwip/lwip-2.1.2/src/core\timeouts.c ****  * Create a one-shot timer (aka timeout). Timeouts are processed in the
 277:C:/Users/stapi/OneDrive/Desktop/GD32VW553/GD32VW55X_Wifi_BLE_SDK/GD32VW55x_RELEASE_V1.0.2/MSDK/lwip/lwip-2.1.2/src/core\timeouts.c ****  * following cases:
 278:C:/Users/stapi/OneDrive/Desktop/GD32VW553/GD32VW55X_Wifi_BLE_SDK/GD32VW55x_RELEASE_V1.0.2/MSDK/lwip/lwip-2.1.2/src/core\timeouts.c ****  * - while waiting for a message using sys_timeouts_mbox_fetch()
 279:C:/Users/stapi/OneDrive/Desktop/GD32VW553/GD32VW55X_Wifi_BLE_SDK/GD32VW55x_RELEASE_V1.0.2/MSDK/lwip/lwip-2.1.2/src/core\timeouts.c ****  * - by calling sys_check_timeouts() (NO_SYS==1 only)
 280:C:/Users/stapi/OneDrive/Desktop/GD32VW553/GD32VW55X_Wifi_BLE_SDK/GD32VW55x_RELEASE_V1.0.2/MSDK/lwip/lwip-2.1.2/src/core\timeouts.c ****  *
 281:C:/Users/stapi/OneDrive/Desktop/GD32VW553/GD32VW55X_Wifi_BLE_SDK/GD32VW55x_RELEASE_V1.0.2/MSDK/lwip/lwip-2.1.2/src/core\timeouts.c ****  * @param msecs time in milliseconds after that the timer should expire
 282:C:/Users/stapi/OneDrive/Desktop/GD32VW553/GD32VW55X_Wifi_BLE_SDK/GD32VW55x_RELEASE_V1.0.2/MSDK/lwip/lwip-2.1.2/src/core\timeouts.c ****  * @param handler callback function to call when msecs have elapsed
 283:C:/Users/stapi/OneDrive/Desktop/GD32VW553/GD32VW55X_Wifi_BLE_SDK/GD32VW55x_RELEASE_V1.0.2/MSDK/lwip/lwip-2.1.2/src/core\timeouts.c ****  * @param arg argument to pass to the callback function
 284:C:/Users/stapi/OneDrive/Desktop/GD32VW553/GD32VW55X_Wifi_BLE_SDK/GD32VW55x_RELEASE_V1.0.2/MSDK/lwip/lwip-2.1.2/src/core\timeouts.c ****  */
 285:C:/Users/stapi/OneDrive/Desktop/GD32VW553/GD32VW55X_Wifi_BLE_SDK/GD32VW55x_RELEASE_V1.0.2/MSDK/lwip/lwip-2.1.2/src/core\timeouts.c **** #if LWIP_DEBUG_TIMERNAMES
 286:C:/Users/stapi/OneDrive/Desktop/GD32VW553/GD32VW55X_Wifi_BLE_SDK/GD32VW55x_RELEASE_V1.0.2/MSDK/lwip/lwip-2.1.2/src/core\timeouts.c **** void
 287:C:/Users/stapi/OneDrive/Desktop/GD32VW553/GD32VW55X_Wifi_BLE_SDK/GD32VW55x_RELEASE_V1.0.2/MSDK/lwip/lwip-2.1.2/src/core\timeouts.c **** sys_timeout_debug(u32_t msecs, sys_timeout_handler handler, void *arg, const char *handler_name)
 288:C:/Users/stapi/OneDrive/Desktop/GD32VW553/GD32VW55X_Wifi_BLE_SDK/GD32VW55x_RELEASE_V1.0.2/MSDK/lwip/lwip-2.1.2/src/core\timeouts.c **** #else /* LWIP_DEBUG_TIMERNAMES */
 289:C:/Users/stapi/OneDrive/Desktop/GD32VW553/GD32VW55X_Wifi_BLE_SDK/GD32VW55x_RELEASE_V1.0.2/MSDK/lwip/lwip-2.1.2/src/core\timeouts.c **** void
 290:C:/Users/stapi/OneDrive/Desktop/GD32VW553/GD32VW55X_Wifi_BLE_SDK/GD32VW55x_RELEASE_V1.0.2/MSDK/lwip/lwip-2.1.2/src/core\timeouts.c **** sys_timeout(u32_t msecs, sys_timeout_handler handler, void *arg)
 291:C:/Users/stapi/OneDrive/Desktop/GD32VW553/GD32VW55X_Wifi_BLE_SDK/GD32VW55x_RELEASE_V1.0.2/MSDK/lwip/lwip-2.1.2/src/core\timeouts.c **** #endif /* LWIP_DEBUG_TIMERNAMES */
 292:C:/Users/stapi/OneDrive/Desktop/GD32VW553/GD32VW55X_Wifi_BLE_SDK/GD32VW55x_RELEASE_V1.0.2/MSDK/lwip/lwip-2.1.2/src/core\timeouts.c **** {
 293:C:/Users/stapi/OneDrive/Desktop/GD32VW553/GD32VW55X_Wifi_BLE_SDK/GD32VW55x_RELEASE_V1.0.2/MSDK/lwip/lwip-2.1.2/src/core\timeouts.c ****   u32_t next_timeout_time;
 238              		.loc 1 293 3
 294:C:/Users/stapi/OneDrive/Desktop/GD32VW553/GD32VW55X_Wifi_BLE_SDK/GD32VW55x_RELEASE_V1.0.2/MSDK/lwip/lwip-2.1.2/src/core\timeouts.c **** 
 295:C:/Users/stapi/OneDrive/Desktop/GD32VW553/GD32VW55X_Wifi_BLE_SDK/GD32VW55x_RELEASE_V1.0.2/MSDK/lwip/lwip-2.1.2/src/core\timeouts.c ****   LWIP_ASSERT_CORE_LOCKED();
 239              		.loc 1 295 28
 296:C:/Users/stapi/OneDrive/Desktop/GD32VW553/GD32VW55X_Wifi_BLE_SDK/GD32VW55x_RELEASE_V1.0.2/MSDK/lwip/lwip-2.1.2/src/core\timeouts.c **** 
 297:C:/Users/stapi/OneDrive/Desktop/GD32VW553/GD32VW55X_Wifi_BLE_SDK/GD32VW55x_RELEASE_V1.0.2/MSDK/lwip/lwip-2.1.2/src/core\timeouts.c ****   LWIP_ASSERT("Timeout time too long, max is LWIP_UINT32_MAX/4 msecs", msecs <= (LWIP_UINT32_MAX / 
 240              		.loc 1 297 3
 241              		.loc 1 297 3
 242              	.LBB12:
 243              	.LBB13:
 244              		.loc 1 297 3
 245              		.loc 1 297 3
 298:C:/Users/stapi/OneDrive/Desktop/GD32VW553/GD32VW55X_Wifi_BLE_SDK/GD32VW55x_RELEASE_V1.0.2/MSDK/lwip/lwip-2.1.2/src/core\timeouts.c **** 
 299:C:/Users/stapi/OneDrive/Desktop/GD32VW553/GD32VW55X_Wifi_BLE_SDK/GD32VW55x_RELEASE_V1.0.2/MSDK/lwip/lwip-2.1.2/src/core\timeouts.c ****   next_timeout_time = (u32_t)(sys_now() + msecs); /* overflow handled by TIME_LESS_THAN macro */ 
 246              		.loc 1 299 3
 247              		.loc 1 299 31 is_stmt 0
 248 0024 97000000 		call	sys_now
 248      E7800000 
 249              	.LVL20:
 300:C:/Users/stapi/OneDrive/Desktop/GD32VW553/GD32VW55X_Wifi_BLE_SDK/GD32VW55x_RELEASE_V1.0.2/MSDK/lwip/lwip-2.1.2/src/core\timeouts.c **** 
 301:C:/Users/stapi/OneDrive/Desktop/GD32VW553/GD32VW55X_Wifi_BLE_SDK/GD32VW55x_RELEASE_V1.0.2/MSDK/lwip/lwip-2.1.2/src/core\timeouts.c **** #if LWIP_DEBUG_TIMERNAMES
 302:C:/Users/stapi/OneDrive/Desktop/GD32VW553/GD32VW55X_Wifi_BLE_SDK/GD32VW55x_RELEASE_V1.0.2/MSDK/lwip/lwip-2.1.2/src/core\timeouts.c ****   sys_timeout_abs(next_timeout_time, handler, arg, handler_name);
 303:C:/Users/stapi/OneDrive/Desktop/GD32VW553/GD32VW55X_Wifi_BLE_SDK/GD32VW55x_RELEASE_V1.0.2/MSDK/lwip/lwip-2.1.2/src/core\timeouts.c **** #else
 304:C:/Users/stapi/OneDrive/Desktop/GD32VW553/GD32VW55X_Wifi_BLE_SDK/GD32VW55x_RELEASE_V1.0.2/MSDK/lwip/lwip-2.1.2/src/core\timeouts.c ****   sys_timeout_abs(next_timeout_time, handler, arg);
 250              		.loc 1 304 3 is_stmt 1
 251 002c B7050000 		lui	a1,%hi(tcpip_tcp_timer)
 252 0030 0146     		li	a2,0
 253 0032 93850500 		addi	a1,a1,%lo(tcpip_tcp_timer)
 254 0036 1305A50F 		addi	a0,a0,250
 255              	.LVL21:
 256 003a 97000000 		call	sys_timeout_abs
 256      E7800000 
 257              	.LVL22:
 258              	.L21:
 259              	.LBE13:
 260              	.LBE12:
 261              	.LBE11:
 262              	.LBE10:
 158:C:/Users/stapi/OneDrive/Desktop/GD32VW553/GD32VW55X_Wifi_BLE_SDK/GD32VW55x_RELEASE_V1.0.2/MSDK/lwip/lwip-2.1.2/src/core\timeouts.c **** 
 263              		.loc 1 158 1 is_stmt 0
 264 0042 17030000 		tail	__riscv_restore_0
 264      67000300 
 265              		.cfi_remember_state
 266              		.cfi_restore 1
 267              		.cfi_def_cfa_offset 0
 268              	.L23:
 269              		.cfi_restore_state
 156:C:/Users/stapi/OneDrive/Desktop/GD32VW553/GD32VW55X_Wifi_BLE_SDK/GD32VW55x_RELEASE_V1.0.2/MSDK/lwip/lwip-2.1.2/src/core\timeouts.c ****   }
 270              		.loc 1 156 5 is_stmt 1
 156:C:/Users/stapi/OneDrive/Desktop/GD32VW553/GD32VW55X_Wifi_BLE_SDK/GD32VW55x_RELEASE_V1.0.2/MSDK/lwip/lwip-2.1.2/src/core\timeouts.c ****   }
 271              		.loc 1 156 28 is_stmt 0
 272 004a B7070000 		lui	a5,%hi(.LANCHOR2)
 273 004e 23A00700 		sw	zero,%lo(.LANCHOR2)(a5)
 158:C:/Users/stapi/OneDrive/Desktop/GD32VW553/GD32VW55X_Wifi_BLE_SDK/GD32VW55x_RELEASE_V1.0.2/MSDK/lwip/lwip-2.1.2/src/core\timeouts.c **** 
 274              		.loc 1 158 1
 275 0052 C5BF     		j	.L21
 276              		.cfi_endproc
 277              	.LFE3:
 279              		.section	.text.tcp_timer_needed,"ax",@progbits
 280              		.align	1
 281              		.globl	tcp_timer_needed
 283              	tcp_timer_needed:
 284              	.LFB4:
 167:C:/Users/stapi/OneDrive/Desktop/GD32VW553/GD32VW55X_Wifi_BLE_SDK/GD32VW55x_RELEASE_V1.0.2/MSDK/lwip/lwip-2.1.2/src/core\timeouts.c ****   LWIP_ASSERT_CORE_LOCKED();
 285              		.loc 1 167 1 is_stmt 1
 286              		.cfi_startproc
 168:C:/Users/stapi/OneDrive/Desktop/GD32VW553/GD32VW55X_Wifi_BLE_SDK/GD32VW55x_RELEASE_V1.0.2/MSDK/lwip/lwip-2.1.2/src/core\timeouts.c **** 
 287              		.loc 1 168 28
 171:C:/Users/stapi/OneDrive/Desktop/GD32VW553/GD32VW55X_Wifi_BLE_SDK/GD32VW55x_RELEASE_V1.0.2/MSDK/lwip/lwip-2.1.2/src/core\timeouts.c ****     /* enable and start timer */
 288              		.loc 1 171 3
 171:C:/Users/stapi/OneDrive/Desktop/GD32VW553/GD32VW55X_Wifi_BLE_SDK/GD32VW55x_RELEASE_V1.0.2/MSDK/lwip/lwip-2.1.2/src/core\timeouts.c ****     /* enable and start timer */
 289              		.loc 1 171 7 is_stmt 0
 290 0000 B7070000 		lui	a5,%hi(.LANCHOR2)
 171:C:/Users/stapi/OneDrive/Desktop/GD32VW553/GD32VW55X_Wifi_BLE_SDK/GD32VW55x_RELEASE_V1.0.2/MSDK/lwip/lwip-2.1.2/src/core\timeouts.c ****     /* enable and start timer */
 291              		.loc 1 171 6
 292 0004 03A70700 		lw	a4,%lo(.LANCHOR2)(a5)
 293 0008 31E7     		bne	a4,zero,.L33
 171:C:/Users/stapi/OneDrive/Desktop/GD32VW553/GD32VW55X_Wifi_BLE_SDK/GD32VW55x_RELEASE_V1.0.2/MSDK/lwip/lwip-2.1.2/src/core\timeouts.c ****     /* enable and start timer */
 294              		.loc 1 171 35 discriminator 1
 295 000a 37070000 		lui	a4,%hi(tcp_active_pcbs)
 171:C:/Users/stapi/OneDrive/Desktop/GD32VW553/GD32VW55X_Wifi_BLE_SDK/GD32VW55x_RELEASE_V1.0.2/MSDK/lwip/lwip-2.1.2/src/core\timeouts.c ****     /* enable and start timer */
 296              		.loc 1 171 31 discriminator 1
 297 000e 03270700 		lw	a4,%lo(tcp_active_pcbs)(a4)
 298 0012 93870700 		addi	a5,a5,%lo(.LANCHOR2)
 299 0016 11E7     		bne	a4,zero,.L28
 171:C:/Users/stapi/OneDrive/Desktop/GD32VW553/GD32VW55X_Wifi_BLE_SDK/GD32VW55x_RELEASE_V1.0.2/MSDK/lwip/lwip-2.1.2/src/core\timeouts.c ****     /* enable and start timer */
 300              		.loc 1 171 51 discriminator 2
 301 0018 37070000 		lui	a4,%hi(tcp_tw_pcbs)
 302 001c 03270700 		lw	a4,%lo(tcp_tw_pcbs)(a4)
 303 0020 15CB     		beq	a4,zero,.L33
 304              	.L28:
 167:C:/Users/stapi/OneDrive/Desktop/GD32VW553/GD32VW55X_Wifi_BLE_SDK/GD32VW55x_RELEASE_V1.0.2/MSDK/lwip/lwip-2.1.2/src/core\timeouts.c ****   LWIP_ASSERT_CORE_LOCKED();
 305              		.loc 1 167 1
 306 0022 17030000 		call	t0,__riscv_save_0
 306      E7020300 
 307              		.cfi_offset 1, -4
 308              		.cfi_def_cfa_offset 16
 173:C:/Users/stapi/OneDrive/Desktop/GD32VW553/GD32VW55X_Wifi_BLE_SDK/GD32VW55x_RELEASE_V1.0.2/MSDK/lwip/lwip-2.1.2/src/core\timeouts.c ****     sys_timeout(TCP_TMR_INTERVAL, tcpip_tcp_timer, NULL);
 309              		.loc 1 173 5 is_stmt 1
 173:C:/Users/stapi/OneDrive/Desktop/GD32VW553/GD32VW55X_Wifi_BLE_SDK/GD32VW55x_RELEASE_V1.0.2/MSDK/lwip/lwip-2.1.2/src/core\timeouts.c ****     sys_timeout(TCP_TMR_INTERVAL, tcpip_tcp_timer, NULL);
 310              		.loc 1 173 28 is_stmt 0
 311 002a 0547     		li	a4,1
 312 002c 98C3     		sw	a4,0(a5)
 174:C:/Users/stapi/OneDrive/Desktop/GD32VW553/GD32VW55X_Wifi_BLE_SDK/GD32VW55x_RELEASE_V1.0.2/MSDK/lwip/lwip-2.1.2/src/core\timeouts.c ****   }
 313              		.loc 1 174 5 is_stmt 1
 314              	.LVL23:
 315              	.LBB18:
 316              	.LBB19:
 293:C:/Users/stapi/OneDrive/Desktop/GD32VW553/GD32VW55X_Wifi_BLE_SDK/GD32VW55x_RELEASE_V1.0.2/MSDK/lwip/lwip-2.1.2/src/core\timeouts.c **** 
 317              		.loc 1 293 3
 295:C:/Users/stapi/OneDrive/Desktop/GD32VW553/GD32VW55X_Wifi_BLE_SDK/GD32VW55x_RELEASE_V1.0.2/MSDK/lwip/lwip-2.1.2/src/core\timeouts.c **** 
 318              		.loc 1 295 28
 297:C:/Users/stapi/OneDrive/Desktop/GD32VW553/GD32VW55X_Wifi_BLE_SDK/GD32VW55x_RELEASE_V1.0.2/MSDK/lwip/lwip-2.1.2/src/core\timeouts.c **** 
 319              		.loc 1 297 3
 297:C:/Users/stapi/OneDrive/Desktop/GD32VW553/GD32VW55X_Wifi_BLE_SDK/GD32VW55x_RELEASE_V1.0.2/MSDK/lwip/lwip-2.1.2/src/core\timeouts.c **** 
 320              		.loc 1 297 3
 321              	.LBB20:
 322              	.LBB21:
 297:C:/Users/stapi/OneDrive/Desktop/GD32VW553/GD32VW55X_Wifi_BLE_SDK/GD32VW55x_RELEASE_V1.0.2/MSDK/lwip/lwip-2.1.2/src/core\timeouts.c **** 
 323              		.loc 1 297 3
 297:C:/Users/stapi/OneDrive/Desktop/GD32VW553/GD32VW55X_Wifi_BLE_SDK/GD32VW55x_RELEASE_V1.0.2/MSDK/lwip/lwip-2.1.2/src/core\timeouts.c **** 
 324              		.loc 1 297 3
 299:C:/Users/stapi/OneDrive/Desktop/GD32VW553/GD32VW55X_Wifi_BLE_SDK/GD32VW55x_RELEASE_V1.0.2/MSDK/lwip/lwip-2.1.2/src/core\timeouts.c **** 
 325              		.loc 1 299 3
 299:C:/Users/stapi/OneDrive/Desktop/GD32VW553/GD32VW55X_Wifi_BLE_SDK/GD32VW55x_RELEASE_V1.0.2/MSDK/lwip/lwip-2.1.2/src/core\timeouts.c **** 
 326              		.loc 1 299 31 is_stmt 0
 327 002e 97000000 		call	sys_now
 327      E7800000 
 328              	.LVL24:
 329              		.loc 1 304 3 is_stmt 1
 330 0036 B7050000 		lui	a1,%hi(tcpip_tcp_timer)
 331 003a 0146     		li	a2,0
 332 003c 93850500 		addi	a1,a1,%lo(tcpip_tcp_timer)
 333 0040 1305A50F 		addi	a0,a0,250
 334              	.LVL25:
 335 0044 97000000 		call	sys_timeout_abs
 335      E7800000 
 336              	.LVL26:
 337              	.LBE21:
 338              	.LBE20:
 339              	.LBE19:
 340              	.LBE18:
 176:C:/Users/stapi/OneDrive/Desktop/GD32VW553/GD32VW55X_Wifi_BLE_SDK/GD32VW55x_RELEASE_V1.0.2/MSDK/lwip/lwip-2.1.2/src/core\timeouts.c **** #endif /* LWIP_TCP */
 341              		.loc 1 176 1 is_stmt 0
 342 004c 17030000 		tail	__riscv_restore_0
 342      67000300 
 343              		.cfi_restore 1
 344              		.cfi_def_cfa_offset 0
 345              	.L33:
 346 0054 8280     		ret
 347              		.cfi_endproc
 348              	.LFE4:
 350              		.section	.rodata.sys_timeout.str1.4,"aMS",@progbits,1
 351              		.align	2
 352              	.LC3:
 353 0000 54696D65 		.string	"Timeout time too long, max is LWIP_UINT32_MAX/4 msecs"
 353      6F757420 
 353      74696D65 
 353      20746F6F 
 353      206C6F6E 
 354              		.section	.text.sys_timeout,"ax",@progbits
 355              		.align	1
 356              		.globl	sys_timeout
 358              	sys_timeout:
 359              	.LFB8:
 292:C:/Users/stapi/OneDrive/Desktop/GD32VW553/GD32VW55X_Wifi_BLE_SDK/GD32VW55x_RELEASE_V1.0.2/MSDK/lwip/lwip-2.1.2/src/core\timeouts.c ****   u32_t next_timeout_time;
 360              		.loc 1 292 1 is_stmt 1
 361              		.cfi_startproc
 362              	.LVL27:
 363 0000 17030000 		call	t0,__riscv_save_1
 363      E7020300 
 364              		.cfi_offset 8, -8
 365              		.cfi_offset 1, -4
 366              		.cfi_def_cfa_offset 16
 293:C:/Users/stapi/OneDrive/Desktop/GD32VW553/GD32VW55X_Wifi_BLE_SDK/GD32VW55x_RELEASE_V1.0.2/MSDK/lwip/lwip-2.1.2/src/core\timeouts.c **** 
 367              		.loc 1 293 3
 295:C:/Users/stapi/OneDrive/Desktop/GD32VW553/GD32VW55X_Wifi_BLE_SDK/GD32VW55x_RELEASE_V1.0.2/MSDK/lwip/lwip-2.1.2/src/core\timeouts.c **** 
 368              		.loc 1 295 28
 297:C:/Users/stapi/OneDrive/Desktop/GD32VW553/GD32VW55X_Wifi_BLE_SDK/GD32VW55x_RELEASE_V1.0.2/MSDK/lwip/lwip-2.1.2/src/core\timeouts.c **** 
 369              		.loc 1 297 3
 297:C:/Users/stapi/OneDrive/Desktop/GD32VW553/GD32VW55X_Wifi_BLE_SDK/GD32VW55x_RELEASE_V1.0.2/MSDK/lwip/lwip-2.1.2/src/core\timeouts.c **** 
 370              		.loc 1 297 3
 371 0008 B7070040 		li	a5,1073741824
 292:C:/Users/stapi/OneDrive/Desktop/GD32VW553/GD32VW55X_Wifi_BLE_SDK/GD32VW55x_RELEASE_V1.0.2/MSDK/lwip/lwip-2.1.2/src/core\timeouts.c ****   u32_t next_timeout_time;
 372              		.loc 1 292 1 is_stmt 0
 373 000c 4111     		addi	sp,sp,-16
 374              		.cfi_def_cfa_offset 32
 297:C:/Users/stapi/OneDrive/Desktop/GD32VW553/GD32VW55X_Wifi_BLE_SDK/GD32VW55x_RELEASE_V1.0.2/MSDK/lwip/lwip-2.1.2/src/core\timeouts.c **** 
 375              		.loc 1 297 3
 376 000e 6365F502 		bltu	a0,a5,.L36
 297:C:/Users/stapi/OneDrive/Desktop/GD32VW553/GD32VW55X_Wifi_BLE_SDK/GD32VW55x_RELEASE_V1.0.2/MSDK/lwip/lwip-2.1.2/src/core\timeouts.c **** 
 377              		.loc 1 297 3 is_stmt 1 discriminator 1
 297:C:/Users/stapi/OneDrive/Desktop/GD32VW553/GD32VW55X_Wifi_BLE_SDK/GD32VW55x_RELEASE_V1.0.2/MSDK/lwip/lwip-2.1.2/src/core\timeouts.c **** 
 378              		.loc 1 297 3 discriminator 1
 379 0012 B7060000 		lui	a3,%hi(.LC0)
 380 0016 B7050000 		lui	a1,%hi(.LC3)
 381              	.LVL28:
 382 001a 37050000 		lui	a0,%hi(.LC2)
 383              	.LVL29:
 384 001e 93860600 		addi	a3,a3,%lo(.LC0)
 385 0022 13069012 		li	a2,297
 386              	.LVL30:
 387 0026 93850500 		addi	a1,a1,%lo(.LC3)
 388 002a 13050500 		addi	a0,a0,%lo(.LC2)
 389 002e 97000000 		call	printf
 389      E7800000 
 390              	.LVL31:
 391              	.L37:
 297:C:/Users/stapi/OneDrive/Desktop/GD32VW553/GD32VW55X_Wifi_BLE_SDK/GD32VW55x_RELEASE_V1.0.2/MSDK/lwip/lwip-2.1.2/src/core\timeouts.c **** 
 392              		.loc 1 297 3 discriminator 1
 297:C:/Users/stapi/OneDrive/Desktop/GD32VW553/GD32VW55X_Wifi_BLE_SDK/GD32VW55x_RELEASE_V1.0.2/MSDK/lwip/lwip-2.1.2/src/core\timeouts.c **** 
 393              		.loc 1 297 3 discriminator 1
 297:C:/Users/stapi/OneDrive/Desktop/GD32VW553/GD32VW55X_Wifi_BLE_SDK/GD32VW55x_RELEASE_V1.0.2/MSDK/lwip/lwip-2.1.2/src/core\timeouts.c **** 
 394              		.loc 1 297 3 discriminator 1
 395 0036 01A0     		j	.L37
 396              	.LVL32:
 397              	.L36:
 398 0038 2A84     		mv	s0,a0
 399 003a 32C6     		sw	a2,12(sp)
 400 003c 2EC4     		sw	a1,8(sp)
 401              	.LVL33:
 402              	.LBB24:
 403              	.LBB25:
 297:C:/Users/stapi/OneDrive/Desktop/GD32VW553/GD32VW55X_Wifi_BLE_SDK/GD32VW55x_RELEASE_V1.0.2/MSDK/lwip/lwip-2.1.2/src/core\timeouts.c **** 
 404              		.loc 1 297 3
 297:C:/Users/stapi/OneDrive/Desktop/GD32VW553/GD32VW55X_Wifi_BLE_SDK/GD32VW55x_RELEASE_V1.0.2/MSDK/lwip/lwip-2.1.2/src/core\timeouts.c **** 
 405              		.loc 1 297 3
 299:C:/Users/stapi/OneDrive/Desktop/GD32VW553/GD32VW55X_Wifi_BLE_SDK/GD32VW55x_RELEASE_V1.0.2/MSDK/lwip/lwip-2.1.2/src/core\timeouts.c **** 
 406              		.loc 1 299 3
 299:C:/Users/stapi/OneDrive/Desktop/GD32VW553/GD32VW55X_Wifi_BLE_SDK/GD32VW55x_RELEASE_V1.0.2/MSDK/lwip/lwip-2.1.2/src/core\timeouts.c **** 
 407              		.loc 1 299 31 is_stmt 0
 408 003e 97000000 		call	sys_now
 408      E7800000 
 409              	.LVL34:
 410              		.loc 1 304 3 is_stmt 1
 411 0046 3246     		lw	a2,12(sp)
 412 0048 A245     		lw	a1,8(sp)
 413 004a 2295     		add	a0,s0,a0
 414              	.LVL35:
 415 004c 97000000 		call	sys_timeout_abs
 415      E7800000 
 416              	.LVL36:
 417              	.LBE25:
 418              	.LBE24:
 305:C:/Users/stapi/OneDrive/Desktop/GD32VW553/GD32VW55X_Wifi_BLE_SDK/GD32VW55x_RELEASE_V1.0.2/MSDK/lwip/lwip-2.1.2/src/core\timeouts.c **** #endif
 306:C:/Users/stapi/OneDrive/Desktop/GD32VW553/GD32VW55X_Wifi_BLE_SDK/GD32VW55x_RELEASE_V1.0.2/MSDK/lwip/lwip-2.1.2/src/core\timeouts.c **** }
 419              		.loc 1 306 1 is_stmt 0
 420 0054 4101     		addi	sp,sp,16
 421              		.cfi_def_cfa_offset 0
 422              	.LVL37:
 423 0056 17030000 		tail	__riscv_restore_1
 423      67000300 
 424              		.cfi_restore 8
 425              		.cfi_restore 1
 426              		.cfi_def_cfa_offset -16
 427              		.cfi_endproc
 428              	.LFE8:
 430              		.section	.text.sys_timeouts_init,"ax",@progbits
 431              		.align	1
 432              		.globl	sys_timeouts_init
 434              	sys_timeouts_init:
 435              	.LFB7:
 265:C:/Users/stapi/OneDrive/Desktop/GD32VW553/GD32VW55X_Wifi_BLE_SDK/GD32VW55x_RELEASE_V1.0.2/MSDK/lwip/lwip-2.1.2/src/core\timeouts.c ****   size_t i;
 436              		.loc 1 265 1 is_stmt 1
 437              		.cfi_startproc
 438 0000 17030000 		call	t0,__riscv_save_3
 438      E7020300 
 439              		.cfi_offset 18, -16
 440              		.cfi_offset 9, -12
 441              		.cfi_offset 8, -8
 442              		.cfi_offset 1, -4
 443              		.cfi_def_cfa_offset 16
 266:C:/Users/stapi/OneDrive/Desktop/GD32VW553/GD32VW55X_Wifi_BLE_SDK/GD32VW55x_RELEASE_V1.0.2/MSDK/lwip/lwip-2.1.2/src/core\timeouts.c ****   /* tcp_tmr() at index 0 is started on demand */
 444              		.loc 1 266 3
 268:C:/Users/stapi/OneDrive/Desktop/GD32VW553/GD32VW55X_Wifi_BLE_SDK/GD32VW55x_RELEASE_V1.0.2/MSDK/lwip/lwip-2.1.2/src/core\timeouts.c ****     /* we have to cast via size_t to get rid of const warning
 445              		.loc 1 268 3
 446              	.LVL38:
 268:C:/Users/stapi/OneDrive/Desktop/GD32VW553/GD32VW55X_Wifi_BLE_SDK/GD32VW55x_RELEASE_V1.0.2/MSDK/lwip/lwip-2.1.2/src/core\timeouts.c ****     /* we have to cast via size_t to get rid of const warning
 447              		.loc 1 268 32
 448 0008 B7070000 		lui	a5,%hi(.LANCHOR3)
 449 000c 93870700 		addi	a5,a5,%lo(.LANCHOR3)
 450 0010 93848700 		addi	s1,a5,8
 451 0014 13848703 		addi	s0,a5,56
 271:C:/Users/stapi/OneDrive/Desktop/GD32VW553/GD32VW55X_Wifi_BLE_SDK/GD32VW55x_RELEASE_V1.0.2/MSDK/lwip/lwip-2.1.2/src/core\timeouts.c ****   }
 452              		.loc 1 271 5 is_stmt 0
 453 0018 37090000 		lui	s2,%hi(lwip_cyclic_timer)
 454              	.LVL39:
 455              	.L40:
 271:C:/Users/stapi/OneDrive/Desktop/GD32VW553/GD32VW55X_Wifi_BLE_SDK/GD32VW55x_RELEASE_V1.0.2/MSDK/lwip/lwip-2.1.2/src/core\timeouts.c ****   }
 456              		.loc 1 271 5 is_stmt 1 discriminator 3
 457 001c 8840     		lw	a0,0(s1)
 458 001e 2686     		mv	a2,s1
 459 0020 93050900 		addi	a1,s2,%lo(lwip_cyclic_timer)
 268:C:/Users/stapi/OneDrive/Desktop/GD32VW553/GD32VW55X_Wifi_BLE_SDK/GD32VW55x_RELEASE_V1.0.2/MSDK/lwip/lwip-2.1.2/src/core\timeouts.c ****     /* we have to cast via size_t to get rid of const warning
 460              		.loc 1 268 3 is_stmt 0 discriminator 3
 461 0024 A104     		addi	s1,s1,8
 271:C:/Users/stapi/OneDrive/Desktop/GD32VW553/GD32VW55X_Wifi_BLE_SDK/GD32VW55x_RELEASE_V1.0.2/MSDK/lwip/lwip-2.1.2/src/core\timeouts.c ****   }
 462              		.loc 1 271 5 discriminator 3
 463 0026 97000000 		call	sys_timeout
 463      E7800000 
 464              	.LVL40:
 268:C:/Users/stapi/OneDrive/Desktop/GD32VW553/GD32VW55X_Wifi_BLE_SDK/GD32VW55x_RELEASE_V1.0.2/MSDK/lwip/lwip-2.1.2/src/core\timeouts.c ****     /* we have to cast via size_t to get rid of const warning
 465              		.loc 1 268 72 is_stmt 1 discriminator 3
 268:C:/Users/stapi/OneDrive/Desktop/GD32VW553/GD32VW55X_Wifi_BLE_SDK/GD32VW55x_RELEASE_V1.0.2/MSDK/lwip/lwip-2.1.2/src/core\timeouts.c ****     /* we have to cast via size_t to get rid of const warning
 466              		.loc 1 268 32 discriminator 3
 268:C:/Users/stapi/OneDrive/Desktop/GD32VW553/GD32VW55X_Wifi_BLE_SDK/GD32VW55x_RELEASE_V1.0.2/MSDK/lwip/lwip-2.1.2/src/core\timeouts.c ****     /* we have to cast via size_t to get rid of const warning
 467              		.loc 1 268 3 is_stmt 0 discriminator 3
 468 002e E39784FE 		bne	s1,s0,.L40
 273:C:/Users/stapi/OneDrive/Desktop/GD32VW553/GD32VW55X_Wifi_BLE_SDK/GD32VW55x_RELEASE_V1.0.2/MSDK/lwip/lwip-2.1.2/src/core\timeouts.c **** 
 469              		.loc 1 273 1
 470 0032 17030000 		tail	__riscv_restore_3
 470      67000300 
 471              		.cfi_restore 18
 472              		.cfi_restore 9
 473              		.cfi_restore 8
 474              		.cfi_restore 1
 475              		.cfi_def_cfa_offset 0
 476              		.cfi_endproc
 477              	.LFE7:
 479              		.section	.text.sys_untimeout,"ax",@progbits
 480              		.align	1
 481              		.globl	sys_untimeout
 483              	sys_untimeout:
 484              	.LFB9:
 307:C:/Users/stapi/OneDrive/Desktop/GD32VW553/GD32VW55X_Wifi_BLE_SDK/GD32VW55x_RELEASE_V1.0.2/MSDK/lwip/lwip-2.1.2/src/core\timeouts.c **** 
 308:C:/Users/stapi/OneDrive/Desktop/GD32VW553/GD32VW55X_Wifi_BLE_SDK/GD32VW55x_RELEASE_V1.0.2/MSDK/lwip/lwip-2.1.2/src/core\timeouts.c **** /**
 309:C:/Users/stapi/OneDrive/Desktop/GD32VW553/GD32VW55X_Wifi_BLE_SDK/GD32VW55x_RELEASE_V1.0.2/MSDK/lwip/lwip-2.1.2/src/core\timeouts.c ****  * Go through timeout list (for this task only) and remove the first matching
 310:C:/Users/stapi/OneDrive/Desktop/GD32VW553/GD32VW55X_Wifi_BLE_SDK/GD32VW55x_RELEASE_V1.0.2/MSDK/lwip/lwip-2.1.2/src/core\timeouts.c ****  * entry (subsequent entries remain untouched), even though the timeout has not
 311:C:/Users/stapi/OneDrive/Desktop/GD32VW553/GD32VW55X_Wifi_BLE_SDK/GD32VW55x_RELEASE_V1.0.2/MSDK/lwip/lwip-2.1.2/src/core\timeouts.c ****  * triggered yet.
 312:C:/Users/stapi/OneDrive/Desktop/GD32VW553/GD32VW55X_Wifi_BLE_SDK/GD32VW55x_RELEASE_V1.0.2/MSDK/lwip/lwip-2.1.2/src/core\timeouts.c ****  *
 313:C:/Users/stapi/OneDrive/Desktop/GD32VW553/GD32VW55X_Wifi_BLE_SDK/GD32VW55x_RELEASE_V1.0.2/MSDK/lwip/lwip-2.1.2/src/core\timeouts.c ****  * @param handler callback function that would be called by the timeout
 314:C:/Users/stapi/OneDrive/Desktop/GD32VW553/GD32VW55X_Wifi_BLE_SDK/GD32VW55x_RELEASE_V1.0.2/MSDK/lwip/lwip-2.1.2/src/core\timeouts.c ****  * @param arg callback argument that would be passed to handler
 315:C:/Users/stapi/OneDrive/Desktop/GD32VW553/GD32VW55X_Wifi_BLE_SDK/GD32VW55x_RELEASE_V1.0.2/MSDK/lwip/lwip-2.1.2/src/core\timeouts.c **** */
 316:C:/Users/stapi/OneDrive/Desktop/GD32VW553/GD32VW55X_Wifi_BLE_SDK/GD32VW55x_RELEASE_V1.0.2/MSDK/lwip/lwip-2.1.2/src/core\timeouts.c **** void
 317:C:/Users/stapi/OneDrive/Desktop/GD32VW553/GD32VW55X_Wifi_BLE_SDK/GD32VW55x_RELEASE_V1.0.2/MSDK/lwip/lwip-2.1.2/src/core\timeouts.c **** sys_untimeout(sys_timeout_handler handler, void *arg)
 318:C:/Users/stapi/OneDrive/Desktop/GD32VW553/GD32VW55X_Wifi_BLE_SDK/GD32VW55x_RELEASE_V1.0.2/MSDK/lwip/lwip-2.1.2/src/core\timeouts.c **** {
 485              		.loc 1 318 1 is_stmt 1
 486              		.cfi_startproc
 487              	.LVL41:
 319:C:/Users/stapi/OneDrive/Desktop/GD32VW553/GD32VW55X_Wifi_BLE_SDK/GD32VW55x_RELEASE_V1.0.2/MSDK/lwip/lwip-2.1.2/src/core\timeouts.c ****   struct sys_timeo *prev_t, *t;
 488              		.loc 1 319 3
 320:C:/Users/stapi/OneDrive/Desktop/GD32VW553/GD32VW55X_Wifi_BLE_SDK/GD32VW55x_RELEASE_V1.0.2/MSDK/lwip/lwip-2.1.2/src/core\timeouts.c **** 
 321:C:/Users/stapi/OneDrive/Desktop/GD32VW553/GD32VW55X_Wifi_BLE_SDK/GD32VW55x_RELEASE_V1.0.2/MSDK/lwip/lwip-2.1.2/src/core\timeouts.c ****   LWIP_ASSERT_CORE_LOCKED();
 489              		.loc 1 321 28
 322:C:/Users/stapi/OneDrive/Desktop/GD32VW553/GD32VW55X_Wifi_BLE_SDK/GD32VW55x_RELEASE_V1.0.2/MSDK/lwip/lwip-2.1.2/src/core\timeouts.c **** 
 323:C:/Users/stapi/OneDrive/Desktop/GD32VW553/GD32VW55X_Wifi_BLE_SDK/GD32VW55x_RELEASE_V1.0.2/MSDK/lwip/lwip-2.1.2/src/core\timeouts.c ****   if (next_timeout == NULL) {
 490              		.loc 1 323 3
 491              		.loc 1 323 20 is_stmt 0
 492 0000 B7070000 		lui	a5,%hi(.LANCHOR0)
 318:C:/Users/stapi/OneDrive/Desktop/GD32VW553/GD32VW55X_Wifi_BLE_SDK/GD32VW55x_RELEASE_V1.0.2/MSDK/lwip/lwip-2.1.2/src/core\timeouts.c ****   struct sys_timeo *prev_t, *t;
 493              		.loc 1 318 1
 494 0004 2E86     		mv	a2,a1
 495              		.loc 1 323 20
 496 0006 83A50700 		lw	a1,%lo(.LANCHOR0)(a5)
 497              	.LVL42:
 498              		.loc 1 323 6
 499 000a 9DC9     		beq	a1,zero,.L54
 500 000c 13870700 		addi	a4,a5,%lo(.LANCHOR0)
 324:C:/Users/stapi/OneDrive/Desktop/GD32VW553/GD32VW55X_Wifi_BLE_SDK/GD32VW55x_RELEASE_V1.0.2/MSDK/lwip/lwip-2.1.2/src/core\timeouts.c ****     return;
 325:C:/Users/stapi/OneDrive/Desktop/GD32VW553/GD32VW55X_Wifi_BLE_SDK/GD32VW55x_RELEASE_V1.0.2/MSDK/lwip/lwip-2.1.2/src/core\timeouts.c ****   }
 326:C:/Users/stapi/OneDrive/Desktop/GD32VW553/GD32VW55X_Wifi_BLE_SDK/GD32VW55x_RELEASE_V1.0.2/MSDK/lwip/lwip-2.1.2/src/core\timeouts.c **** 
 327:C:/Users/stapi/OneDrive/Desktop/GD32VW553/GD32VW55X_Wifi_BLE_SDK/GD32VW55x_RELEASE_V1.0.2/MSDK/lwip/lwip-2.1.2/src/core\timeouts.c ****   for (t = next_timeout, prev_t = NULL; t != NULL; prev_t = t, t = t->next) {
 501              		.loc 1 327 33
 502 0010 8146     		li	a3,0
 503              	.L48:
 504              	.LVL43:
 328:C:/Users/stapi/OneDrive/Desktop/GD32VW553/GD32VW55X_Wifi_BLE_SDK/GD32VW55x_RELEASE_V1.0.2/MSDK/lwip/lwip-2.1.2/src/core\timeouts.c ****     if ((t->h == handler) && (t->arg == arg)) {
 505              		.loc 1 328 5 is_stmt 1
 506              		.loc 1 328 8 is_stmt 0
 507 0012 03A88500 		lw	a6,8(a1)
 508 0016 9C41     		lw	a5,0(a1)
 509 0018 6311A802 		bne	a6,a0,.L45
 510              		.loc 1 328 27 discriminator 1
 511 001c 03A8C500 		lw	a6,12(a1)
 512 0020 631DC800 		bne	a6,a2,.L45
 329:C:/Users/stapi/OneDrive/Desktop/GD32VW553/GD32VW55X_Wifi_BLE_SDK/GD32VW55x_RELEASE_V1.0.2/MSDK/lwip/lwip-2.1.2/src/core\timeouts.c ****       /* We have a match */
 330:C:/Users/stapi/OneDrive/Desktop/GD32VW553/GD32VW55X_Wifi_BLE_SDK/GD32VW55x_RELEASE_V1.0.2/MSDK/lwip/lwip-2.1.2/src/core\timeouts.c ****       /* Unlink from previous in list */
 331:C:/Users/stapi/OneDrive/Desktop/GD32VW553/GD32VW55X_Wifi_BLE_SDK/GD32VW55x_RELEASE_V1.0.2/MSDK/lwip/lwip-2.1.2/src/core\timeouts.c ****       if (prev_t == NULL) {
 513              		.loc 1 331 7 is_stmt 1
 514              		.loc 1 331 10 is_stmt 0
 515 0024 89EA     		bne	a3,zero,.L46
 332:C:/Users/stapi/OneDrive/Desktop/GD32VW553/GD32VW55X_Wifi_BLE_SDK/GD32VW55x_RELEASE_V1.0.2/MSDK/lwip/lwip-2.1.2/src/core\timeouts.c ****         next_timeout = t->next;
 516              		.loc 1 332 9 is_stmt 1
 517              		.loc 1 332 22 is_stmt 0
 518 0026 1CC3     		sw	a5,0(a4)
 519              	.L47:
 333:C:/Users/stapi/OneDrive/Desktop/GD32VW553/GD32VW55X_Wifi_BLE_SDK/GD32VW55x_RELEASE_V1.0.2/MSDK/lwip/lwip-2.1.2/src/core\timeouts.c ****       } else {
 334:C:/Users/stapi/OneDrive/Desktop/GD32VW553/GD32VW55X_Wifi_BLE_SDK/GD32VW55x_RELEASE_V1.0.2/MSDK/lwip/lwip-2.1.2/src/core\timeouts.c ****         prev_t->next = t->next;
 335:C:/Users/stapi/OneDrive/Desktop/GD32VW553/GD32VW55X_Wifi_BLE_SDK/GD32VW55x_RELEASE_V1.0.2/MSDK/lwip/lwip-2.1.2/src/core\timeouts.c ****       }
 336:C:/Users/stapi/OneDrive/Desktop/GD32VW553/GD32VW55X_Wifi_BLE_SDK/GD32VW55x_RELEASE_V1.0.2/MSDK/lwip/lwip-2.1.2/src/core\timeouts.c ****       memp_free(MEMP_SYS_TIMEOUT, t);
 520              		.loc 1 336 7 is_stmt 1
 521 0028 3545     		li	a0,13
 522              	.LVL44:
 523 002a 17030000 		tail	memp_free
 523      67000300 
 524              	.LVL45:
 337:C:/Users/stapi/OneDrive/Desktop/GD32VW553/GD32VW55X_Wifi_BLE_SDK/GD32VW55x_RELEASE_V1.0.2/MSDK/lwip/lwip-2.1.2/src/core\timeouts.c ****       return;
 525              		.loc 1 337 7
 526              	.L49:
 527 0032 BE85     		mv	a1,a5
 528              	.LVL46:
 529 0034 F9BF     		j	.L48
 530              	.LVL47:
 531              	.L46:
 334:C:/Users/stapi/OneDrive/Desktop/GD32VW553/GD32VW55X_Wifi_BLE_SDK/GD32VW55x_RELEASE_V1.0.2/MSDK/lwip/lwip-2.1.2/src/core\timeouts.c ****       }
 532              		.loc 1 334 9
 334:C:/Users/stapi/OneDrive/Desktop/GD32VW553/GD32VW55X_Wifi_BLE_SDK/GD32VW55x_RELEASE_V1.0.2/MSDK/lwip/lwip-2.1.2/src/core\timeouts.c ****       }
 533              		.loc 1 334 22 is_stmt 0
 534 0036 9CC2     		sw	a5,0(a3)
 535 0038 C5BF     		j	.L47
 536              	.L45:
 327:C:/Users/stapi/OneDrive/Desktop/GD32VW553/GD32VW55X_Wifi_BLE_SDK/GD32VW55x_RELEASE_V1.0.2/MSDK/lwip/lwip-2.1.2/src/core\timeouts.c ****     if ((t->h == handler) && (t->arg == arg)) {
 537              		.loc 1 327 52 is_stmt 1 discriminator 2
 538              	.LVL48:
 327:C:/Users/stapi/OneDrive/Desktop/GD32VW553/GD32VW55X_Wifi_BLE_SDK/GD32VW55x_RELEASE_V1.0.2/MSDK/lwip/lwip-2.1.2/src/core\timeouts.c ****     if ((t->h == handler) && (t->arg == arg)) {
 539              		.loc 1 327 41 discriminator 2
 540 003a AE86     		mv	a3,a1
 327:C:/Users/stapi/OneDrive/Desktop/GD32VW553/GD32VW55X_Wifi_BLE_SDK/GD32VW55x_RELEASE_V1.0.2/MSDK/lwip/lwip-2.1.2/src/core\timeouts.c ****     if ((t->h == handler) && (t->arg == arg)) {
 541              		.loc 1 327 3 is_stmt 0 discriminator 2
 542 003c FDFB     		bne	a5,zero,.L49
 543 003e 8280     		ret
 544              	.LVL49:
 545              	.L54:
 546 0040 8280     		ret
 547              		.cfi_endproc
 548              	.LFE9:
 550              		.section	.text.sys_check_timeouts,"ax",@progbits
 551              		.align	1
 552              		.globl	sys_check_timeouts
 554              	sys_check_timeouts:
 555              	.LFB10:
 338:C:/Users/stapi/OneDrive/Desktop/GD32VW553/GD32VW55X_Wifi_BLE_SDK/GD32VW55x_RELEASE_V1.0.2/MSDK/lwip/lwip-2.1.2/src/core\timeouts.c ****     }
 339:C:/Users/stapi/OneDrive/Desktop/GD32VW553/GD32VW55X_Wifi_BLE_SDK/GD32VW55x_RELEASE_V1.0.2/MSDK/lwip/lwip-2.1.2/src/core\timeouts.c ****   }
 340:C:/Users/stapi/OneDrive/Desktop/GD32VW553/GD32VW55X_Wifi_BLE_SDK/GD32VW55x_RELEASE_V1.0.2/MSDK/lwip/lwip-2.1.2/src/core\timeouts.c ****   return;
 341:C:/Users/stapi/OneDrive/Desktop/GD32VW553/GD32VW55X_Wifi_BLE_SDK/GD32VW55x_RELEASE_V1.0.2/MSDK/lwip/lwip-2.1.2/src/core\timeouts.c **** }
 342:C:/Users/stapi/OneDrive/Desktop/GD32VW553/GD32VW55X_Wifi_BLE_SDK/GD32VW55x_RELEASE_V1.0.2/MSDK/lwip/lwip-2.1.2/src/core\timeouts.c **** 
 343:C:/Users/stapi/OneDrive/Desktop/GD32VW553/GD32VW55X_Wifi_BLE_SDK/GD32VW55x_RELEASE_V1.0.2/MSDK/lwip/lwip-2.1.2/src/core\timeouts.c **** /**
 344:C:/Users/stapi/OneDrive/Desktop/GD32VW553/GD32VW55X_Wifi_BLE_SDK/GD32VW55x_RELEASE_V1.0.2/MSDK/lwip/lwip-2.1.2/src/core\timeouts.c ****  * @ingroup lwip_nosys
 345:C:/Users/stapi/OneDrive/Desktop/GD32VW553/GD32VW55X_Wifi_BLE_SDK/GD32VW55x_RELEASE_V1.0.2/MSDK/lwip/lwip-2.1.2/src/core\timeouts.c ****  * Handle timeouts for NO_SYS==1 (i.e. without using
 346:C:/Users/stapi/OneDrive/Desktop/GD32VW553/GD32VW55X_Wifi_BLE_SDK/GD32VW55x_RELEASE_V1.0.2/MSDK/lwip/lwip-2.1.2/src/core\timeouts.c ****  * tcpip_thread/sys_timeouts_mbox_fetch(). Uses sys_now() to call timeout
 347:C:/Users/stapi/OneDrive/Desktop/GD32VW553/GD32VW55X_Wifi_BLE_SDK/GD32VW55x_RELEASE_V1.0.2/MSDK/lwip/lwip-2.1.2/src/core\timeouts.c ****  * handler functions when timeouts expire.
 348:C:/Users/stapi/OneDrive/Desktop/GD32VW553/GD32VW55X_Wifi_BLE_SDK/GD32VW55x_RELEASE_V1.0.2/MSDK/lwip/lwip-2.1.2/src/core\timeouts.c ****  *
 349:C:/Users/stapi/OneDrive/Desktop/GD32VW553/GD32VW55X_Wifi_BLE_SDK/GD32VW55x_RELEASE_V1.0.2/MSDK/lwip/lwip-2.1.2/src/core\timeouts.c ****  * Must be called periodically from your main loop.
 350:C:/Users/stapi/OneDrive/Desktop/GD32VW553/GD32VW55X_Wifi_BLE_SDK/GD32VW55x_RELEASE_V1.0.2/MSDK/lwip/lwip-2.1.2/src/core\timeouts.c ****  */
 351:C:/Users/stapi/OneDrive/Desktop/GD32VW553/GD32VW55X_Wifi_BLE_SDK/GD32VW55x_RELEASE_V1.0.2/MSDK/lwip/lwip-2.1.2/src/core\timeouts.c **** void
 352:C:/Users/stapi/OneDrive/Desktop/GD32VW553/GD32VW55X_Wifi_BLE_SDK/GD32VW55x_RELEASE_V1.0.2/MSDK/lwip/lwip-2.1.2/src/core\timeouts.c **** sys_check_timeouts(void)
 353:C:/Users/stapi/OneDrive/Desktop/GD32VW553/GD32VW55X_Wifi_BLE_SDK/GD32VW55x_RELEASE_V1.0.2/MSDK/lwip/lwip-2.1.2/src/core\timeouts.c **** {
 556              		.loc 1 353 1 is_stmt 1
 557              		.cfi_startproc
 558 0000 17030000 		call	t0,__riscv_save_5
 558      E7020300 
 559              		.cfi_offset 20, -24
 560              		.cfi_offset 19, -20
 561              		.cfi_offset 18, -16
 562              		.cfi_offset 9, -12
 563              		.cfi_offset 8, -8
 564              		.cfi_offset 1, -4
 565              		.cfi_def_cfa_offset 32
 354:C:/Users/stapi/OneDrive/Desktop/GD32VW553/GD32VW55X_Wifi_BLE_SDK/GD32VW55x_RELEASE_V1.0.2/MSDK/lwip/lwip-2.1.2/src/core\timeouts.c ****   u32_t now;
 566              		.loc 1 354 3
 355:C:/Users/stapi/OneDrive/Desktop/GD32VW553/GD32VW55X_Wifi_BLE_SDK/GD32VW55x_RELEASE_V1.0.2/MSDK/lwip/lwip-2.1.2/src/core\timeouts.c **** 
 356:C:/Users/stapi/OneDrive/Desktop/GD32VW553/GD32VW55X_Wifi_BLE_SDK/GD32VW55x_RELEASE_V1.0.2/MSDK/lwip/lwip-2.1.2/src/core\timeouts.c ****   LWIP_ASSERT_CORE_LOCKED();
 567              		.loc 1 356 28
 357:C:/Users/stapi/OneDrive/Desktop/GD32VW553/GD32VW55X_Wifi_BLE_SDK/GD32VW55x_RELEASE_V1.0.2/MSDK/lwip/lwip-2.1.2/src/core\timeouts.c **** 
 358:C:/Users/stapi/OneDrive/Desktop/GD32VW553/GD32VW55X_Wifi_BLE_SDK/GD32VW55x_RELEASE_V1.0.2/MSDK/lwip/lwip-2.1.2/src/core\timeouts.c ****   /* Process only timers expired at the start of the function. */
 359:C:/Users/stapi/OneDrive/Desktop/GD32VW553/GD32VW55X_Wifi_BLE_SDK/GD32VW55x_RELEASE_V1.0.2/MSDK/lwip/lwip-2.1.2/src/core\timeouts.c ****   now = sys_now();
 568              		.loc 1 359 3
 569              		.loc 1 359 9 is_stmt 0
 570 0008 97000000 		call	sys_now
 570      E7800000 
 571              	.LVL50:
 572 0010 2A84     		mv	s0,a0
 573              	.LVL51:
 574              	.LBB26:
 360:C:/Users/stapi/OneDrive/Desktop/GD32VW553/GD32VW55X_Wifi_BLE_SDK/GD32VW55x_RELEASE_V1.0.2/MSDK/lwip/lwip-2.1.2/src/core\timeouts.c **** 
 361:C:/Users/stapi/OneDrive/Desktop/GD32VW553/GD32VW55X_Wifi_BLE_SDK/GD32VW55x_RELEASE_V1.0.2/MSDK/lwip/lwip-2.1.2/src/core\timeouts.c ****   do {
 362:C:/Users/stapi/OneDrive/Desktop/GD32VW553/GD32VW55X_Wifi_BLE_SDK/GD32VW55x_RELEASE_V1.0.2/MSDK/lwip/lwip-2.1.2/src/core\timeouts.c ****     struct sys_timeo *tmptimeout;
 363:C:/Users/stapi/OneDrive/Desktop/GD32VW553/GD32VW55X_Wifi_BLE_SDK/GD32VW55x_RELEASE_V1.0.2/MSDK/lwip/lwip-2.1.2/src/core\timeouts.c ****     sys_timeout_handler handler;
 364:C:/Users/stapi/OneDrive/Desktop/GD32VW553/GD32VW55X_Wifi_BLE_SDK/GD32VW55x_RELEASE_V1.0.2/MSDK/lwip/lwip-2.1.2/src/core\timeouts.c ****     void *arg;
 365:C:/Users/stapi/OneDrive/Desktop/GD32VW553/GD32VW55X_Wifi_BLE_SDK/GD32VW55x_RELEASE_V1.0.2/MSDK/lwip/lwip-2.1.2/src/core\timeouts.c **** 
 366:C:/Users/stapi/OneDrive/Desktop/GD32VW553/GD32VW55X_Wifi_BLE_SDK/GD32VW55x_RELEASE_V1.0.2/MSDK/lwip/lwip-2.1.2/src/core\timeouts.c ****     PBUF_CHECK_FREE_OOSEQ();
 367:C:/Users/stapi/OneDrive/Desktop/GD32VW553/GD32VW55X_Wifi_BLE_SDK/GD32VW55x_RELEASE_V1.0.2/MSDK/lwip/lwip-2.1.2/src/core\timeouts.c **** 
 368:C:/Users/stapi/OneDrive/Desktop/GD32VW553/GD32VW55X_Wifi_BLE_SDK/GD32VW55x_RELEASE_V1.0.2/MSDK/lwip/lwip-2.1.2/src/core\timeouts.c ****     tmptimeout = next_timeout;
 575              		.loc 1 368 16
 576 0012 B7090000 		lui	s3,%hi(.LANCHOR0)
 369:C:/Users/stapi/OneDrive/Desktop/GD32VW553/GD32VW55X_Wifi_BLE_SDK/GD32VW55x_RELEASE_V1.0.2/MSDK/lwip/lwip-2.1.2/src/core\timeouts.c ****     if (tmptimeout == NULL) {
 370:C:/Users/stapi/OneDrive/Desktop/GD32VW553/GD32VW55X_Wifi_BLE_SDK/GD32VW55x_RELEASE_V1.0.2/MSDK/lwip/lwip-2.1.2/src/core\timeouts.c ****       return;
 371:C:/Users/stapi/OneDrive/Desktop/GD32VW553/GD32VW55X_Wifi_BLE_SDK/GD32VW55x_RELEASE_V1.0.2/MSDK/lwip/lwip-2.1.2/src/core\timeouts.c ****     }
 372:C:/Users/stapi/OneDrive/Desktop/GD32VW553/GD32VW55X_Wifi_BLE_SDK/GD32VW55x_RELEASE_V1.0.2/MSDK/lwip/lwip-2.1.2/src/core\timeouts.c **** 
 373:C:/Users/stapi/OneDrive/Desktop/GD32VW553/GD32VW55X_Wifi_BLE_SDK/GD32VW55x_RELEASE_V1.0.2/MSDK/lwip/lwip-2.1.2/src/core\timeouts.c ****     if (TIME_LESS_THAN(now, tmptimeout->time)) {
 374:C:/Users/stapi/OneDrive/Desktop/GD32VW553/GD32VW55X_Wifi_BLE_SDK/GD32VW55x_RELEASE_V1.0.2/MSDK/lwip/lwip-2.1.2/src/core\timeouts.c ****       return;
 375:C:/Users/stapi/OneDrive/Desktop/GD32VW553/GD32VW55X_Wifi_BLE_SDK/GD32VW55x_RELEASE_V1.0.2/MSDK/lwip/lwip-2.1.2/src/core\timeouts.c ****     }
 376:C:/Users/stapi/OneDrive/Desktop/GD32VW553/GD32VW55X_Wifi_BLE_SDK/GD32VW55x_RELEASE_V1.0.2/MSDK/lwip/lwip-2.1.2/src/core\timeouts.c **** 
 377:C:/Users/stapi/OneDrive/Desktop/GD32VW553/GD32VW55X_Wifi_BLE_SDK/GD32VW55x_RELEASE_V1.0.2/MSDK/lwip/lwip-2.1.2/src/core\timeouts.c ****     /* Timeout has expired */
 378:C:/Users/stapi/OneDrive/Desktop/GD32VW553/GD32VW55X_Wifi_BLE_SDK/GD32VW55x_RELEASE_V1.0.2/MSDK/lwip/lwip-2.1.2/src/core\timeouts.c ****     next_timeout = tmptimeout->next;
 379:C:/Users/stapi/OneDrive/Desktop/GD32VW553/GD32VW55X_Wifi_BLE_SDK/GD32VW55x_RELEASE_V1.0.2/MSDK/lwip/lwip-2.1.2/src/core\timeouts.c ****     handler = tmptimeout->h;
 380:C:/Users/stapi/OneDrive/Desktop/GD32VW553/GD32VW55X_Wifi_BLE_SDK/GD32VW55x_RELEASE_V1.0.2/MSDK/lwip/lwip-2.1.2/src/core\timeouts.c ****     arg = tmptimeout->arg;
 381:C:/Users/stapi/OneDrive/Desktop/GD32VW553/GD32VW55X_Wifi_BLE_SDK/GD32VW55x_RELEASE_V1.0.2/MSDK/lwip/lwip-2.1.2/src/core\timeouts.c ****     current_timeout_due_time = tmptimeout->time;
 577              		.loc 1 381 30
 578 0016 370A0000 		lui	s4,%hi(.LANCHOR1)
 579              	.L59:
 580              	.LBE26:
 361:C:/Users/stapi/OneDrive/Desktop/GD32VW553/GD32VW55X_Wifi_BLE_SDK/GD32VW55x_RELEASE_V1.0.2/MSDK/lwip/lwip-2.1.2/src/core\timeouts.c ****     struct sys_timeo *tmptimeout;
 581              		.loc 1 361 3 is_stmt 1
 582              	.LBB27:
 362:C:/Users/stapi/OneDrive/Desktop/GD32VW553/GD32VW55X_Wifi_BLE_SDK/GD32VW55x_RELEASE_V1.0.2/MSDK/lwip/lwip-2.1.2/src/core\timeouts.c ****     sys_timeout_handler handler;
 583              		.loc 1 362 5
 363:C:/Users/stapi/OneDrive/Desktop/GD32VW553/GD32VW55X_Wifi_BLE_SDK/GD32VW55x_RELEASE_V1.0.2/MSDK/lwip/lwip-2.1.2/src/core\timeouts.c ****     void *arg;
 584              		.loc 1 363 5
 364:C:/Users/stapi/OneDrive/Desktop/GD32VW553/GD32VW55X_Wifi_BLE_SDK/GD32VW55x_RELEASE_V1.0.2/MSDK/lwip/lwip-2.1.2/src/core\timeouts.c **** 
 585              		.loc 1 364 5
 366:C:/Users/stapi/OneDrive/Desktop/GD32VW553/GD32VW55X_Wifi_BLE_SDK/GD32VW55x_RELEASE_V1.0.2/MSDK/lwip/lwip-2.1.2/src/core\timeouts.c **** 
 586              		.loc 1 366 28
 368:C:/Users/stapi/OneDrive/Desktop/GD32VW553/GD32VW55X_Wifi_BLE_SDK/GD32VW55x_RELEASE_V1.0.2/MSDK/lwip/lwip-2.1.2/src/core\timeouts.c ****     if (tmptimeout == NULL) {
 587              		.loc 1 368 5
 368:C:/Users/stapi/OneDrive/Desktop/GD32VW553/GD32VW55X_Wifi_BLE_SDK/GD32VW55x_RELEASE_V1.0.2/MSDK/lwip/lwip-2.1.2/src/core\timeouts.c ****     if (tmptimeout == NULL) {
 588              		.loc 1 368 16 is_stmt 0
 589 001a 13870900 		addi	a4,s3,%lo(.LANCHOR0)
 590 001e 0C43     		lw	a1,0(a4)
 591              	.LVL52:
 369:C:/Users/stapi/OneDrive/Desktop/GD32VW553/GD32VW55X_Wifi_BLE_SDK/GD32VW55x_RELEASE_V1.0.2/MSDK/lwip/lwip-2.1.2/src/core\timeouts.c ****       return;
 592              		.loc 1 369 5 is_stmt 1
 369:C:/Users/stapi/OneDrive/Desktop/GD32VW553/GD32VW55X_Wifi_BLE_SDK/GD32VW55x_RELEASE_V1.0.2/MSDK/lwip/lwip-2.1.2/src/core\timeouts.c ****       return;
 593              		.loc 1 369 8 is_stmt 0
 594 0020 95C5     		beq	a1,zero,.L57
 373:C:/Users/stapi/OneDrive/Desktop/GD32VW553/GD32VW55X_Wifi_BLE_SDK/GD32VW55x_RELEASE_V1.0.2/MSDK/lwip/lwip-2.1.2/src/core\timeouts.c ****       return;
 595              		.loc 1 373 5 is_stmt 1
 373:C:/Users/stapi/OneDrive/Desktop/GD32VW553/GD32VW55X_Wifi_BLE_SDK/GD32VW55x_RELEASE_V1.0.2/MSDK/lwip/lwip-2.1.2/src/core\timeouts.c ****       return;
 596              		.loc 1 373 9 is_stmt 0
 597 0022 DC41     		lw	a5,4(a1)
 598 0024 B306F440 		sub	a3,s0,a5
 373:C:/Users/stapi/OneDrive/Desktop/GD32VW553/GD32VW55X_Wifi_BLE_SDK/GD32VW55x_RELEASE_V1.0.2/MSDK/lwip/lwip-2.1.2/src/core\timeouts.c ****       return;
 599              		.loc 1 373 8
 600 0028 63C20602 		blt	a3,zero,.L57
 378:C:/Users/stapi/OneDrive/Desktop/GD32VW553/GD32VW55X_Wifi_BLE_SDK/GD32VW55x_RELEASE_V1.0.2/MSDK/lwip/lwip-2.1.2/src/core\timeouts.c ****     handler = tmptimeout->h;
 601              		.loc 1 378 5 is_stmt 1
 378:C:/Users/stapi/OneDrive/Desktop/GD32VW553/GD32VW55X_Wifi_BLE_SDK/GD32VW55x_RELEASE_V1.0.2/MSDK/lwip/lwip-2.1.2/src/core\timeouts.c ****     handler = tmptimeout->h;
 602              		.loc 1 378 18 is_stmt 0
 603 002c 9441     		lw	a3,0(a1)
 379:C:/Users/stapi/OneDrive/Desktop/GD32VW553/GD32VW55X_Wifi_BLE_SDK/GD32VW55x_RELEASE_V1.0.2/MSDK/lwip/lwip-2.1.2/src/core\timeouts.c ****     arg = tmptimeout->arg;
 604              		.loc 1 379 13
 605 002e 8445     		lw	s1,8(a1)
 382:C:/Users/stapi/OneDrive/Desktop/GD32VW553/GD32VW55X_Wifi_BLE_SDK/GD32VW55x_RELEASE_V1.0.2/MSDK/lwip/lwip-2.1.2/src/core\timeouts.c **** #if LWIP_DEBUG_TIMERNAMES
 383:C:/Users/stapi/OneDrive/Desktop/GD32VW553/GD32VW55X_Wifi_BLE_SDK/GD32VW55x_RELEASE_V1.0.2/MSDK/lwip/lwip-2.1.2/src/core\timeouts.c ****     if (handler != NULL) {
 384:C:/Users/stapi/OneDrive/Desktop/GD32VW553/GD32VW55X_Wifi_BLE_SDK/GD32VW55x_RELEASE_V1.0.2/MSDK/lwip/lwip-2.1.2/src/core\timeouts.c ****       LWIP_DEBUGF(TIMERS_DEBUG, ("sct calling h=%s t=%"U32_F" arg=%p\n",
 385:C:/Users/stapi/OneDrive/Desktop/GD32VW553/GD32VW55X_Wifi_BLE_SDK/GD32VW55x_RELEASE_V1.0.2/MSDK/lwip/lwip-2.1.2/src/core\timeouts.c ****                                  tmptimeout->handler_name, sys_now() - tmptimeout->time, arg));
 386:C:/Users/stapi/OneDrive/Desktop/GD32VW553/GD32VW55X_Wifi_BLE_SDK/GD32VW55x_RELEASE_V1.0.2/MSDK/lwip/lwip-2.1.2/src/core\timeouts.c ****     }
 387:C:/Users/stapi/OneDrive/Desktop/GD32VW553/GD32VW55X_Wifi_BLE_SDK/GD32VW55x_RELEASE_V1.0.2/MSDK/lwip/lwip-2.1.2/src/core\timeouts.c **** #endif /* LWIP_DEBUG_TIMERNAMES */
 388:C:/Users/stapi/OneDrive/Desktop/GD32VW553/GD32VW55X_Wifi_BLE_SDK/GD32VW55x_RELEASE_V1.0.2/MSDK/lwip/lwip-2.1.2/src/core\timeouts.c ****     memp_free(MEMP_SYS_TIMEOUT, tmptimeout);
 606              		.loc 1 388 5
 607 0030 3545     		li	a0,13
 380:C:/Users/stapi/OneDrive/Desktop/GD32VW553/GD32VW55X_Wifi_BLE_SDK/GD32VW55x_RELEASE_V1.0.2/MSDK/lwip/lwip-2.1.2/src/core\timeouts.c ****     current_timeout_due_time = tmptimeout->time;
 608              		.loc 1 380 9
 609 0032 03A9C500 		lw	s2,12(a1)
 378:C:/Users/stapi/OneDrive/Desktop/GD32VW553/GD32VW55X_Wifi_BLE_SDK/GD32VW55x_RELEASE_V1.0.2/MSDK/lwip/lwip-2.1.2/src/core\timeouts.c ****     handler = tmptimeout->h;
 610              		.loc 1 378 18
 611 0036 14C3     		sw	a3,0(a4)
 379:C:/Users/stapi/OneDrive/Desktop/GD32VW553/GD32VW55X_Wifi_BLE_SDK/GD32VW55x_RELEASE_V1.0.2/MSDK/lwip/lwip-2.1.2/src/core\timeouts.c ****     arg = tmptimeout->arg;
 612              		.loc 1 379 5 is_stmt 1
 613              	.LVL53:
 380:C:/Users/stapi/OneDrive/Desktop/GD32VW553/GD32VW55X_Wifi_BLE_SDK/GD32VW55x_RELEASE_V1.0.2/MSDK/lwip/lwip-2.1.2/src/core\timeouts.c ****     current_timeout_due_time = tmptimeout->time;
 614              		.loc 1 380 5
 381:C:/Users/stapi/OneDrive/Desktop/GD32VW553/GD32VW55X_Wifi_BLE_SDK/GD32VW55x_RELEASE_V1.0.2/MSDK/lwip/lwip-2.1.2/src/core\timeouts.c **** #if LWIP_DEBUG_TIMERNAMES
 615              		.loc 1 381 5
 381:C:/Users/stapi/OneDrive/Desktop/GD32VW553/GD32VW55X_Wifi_BLE_SDK/GD32VW55x_RELEASE_V1.0.2/MSDK/lwip/lwip-2.1.2/src/core\timeouts.c **** #if LWIP_DEBUG_TIMERNAMES
 616              		.loc 1 381 30 is_stmt 0
 617 0038 2320FA00 		sw	a5,%lo(.LANCHOR1)(s4)
 618              		.loc 1 388 5 is_stmt 1
 619 003c 97000000 		call	memp_free
 619      E7800000 
 620              	.LVL54:
 389:C:/Users/stapi/OneDrive/Desktop/GD32VW553/GD32VW55X_Wifi_BLE_SDK/GD32VW55x_RELEASE_V1.0.2/MSDK/lwip/lwip-2.1.2/src/core\timeouts.c ****     if (handler != NULL) {
 621              		.loc 1 389 5
 622              		.loc 1 389 8 is_stmt 0
 623 0044 F9D8     		beq	s1,zero,.L59
 390:C:/Users/stapi/OneDrive/Desktop/GD32VW553/GD32VW55X_Wifi_BLE_SDK/GD32VW55x_RELEASE_V1.0.2/MSDK/lwip/lwip-2.1.2/src/core\timeouts.c ****       handler(arg);
 624              		.loc 1 390 7 is_stmt 1
 625 0046 4A85     		mv	a0,s2
 626 0048 8294     		jalr	s1
 627              	.LVL55:
 628 004a C1BF     		j	.L59
 629              	.LVL56:
 630              	.L57:
 631              	.LBE27:
 391:C:/Users/stapi/OneDrive/Desktop/GD32VW553/GD32VW55X_Wifi_BLE_SDK/GD32VW55x_RELEASE_V1.0.2/MSDK/lwip/lwip-2.1.2/src/core\timeouts.c ****     }
 392:C:/Users/stapi/OneDrive/Desktop/GD32VW553/GD32VW55X_Wifi_BLE_SDK/GD32VW55x_RELEASE_V1.0.2/MSDK/lwip/lwip-2.1.2/src/core\timeouts.c ****     LWIP_TCPIP_THREAD_ALIVE();
 393:C:/Users/stapi/OneDrive/Desktop/GD32VW553/GD32VW55X_Wifi_BLE_SDK/GD32VW55x_RELEASE_V1.0.2/MSDK/lwip/lwip-2.1.2/src/core\timeouts.c **** 
 394:C:/Users/stapi/OneDrive/Desktop/GD32VW553/GD32VW55X_Wifi_BLE_SDK/GD32VW55x_RELEASE_V1.0.2/MSDK/lwip/lwip-2.1.2/src/core\timeouts.c ****     /* Repeat until all expired timers have been called */
 395:C:/Users/stapi/OneDrive/Desktop/GD32VW553/GD32VW55X_Wifi_BLE_SDK/GD32VW55x_RELEASE_V1.0.2/MSDK/lwip/lwip-2.1.2/src/core\timeouts.c ****   } while (1);
 396:C:/Users/stapi/OneDrive/Desktop/GD32VW553/GD32VW55X_Wifi_BLE_SDK/GD32VW55x_RELEASE_V1.0.2/MSDK/lwip/lwip-2.1.2/src/core\timeouts.c **** }
 632              		.loc 1 396 1 is_stmt 0
 633 004c 17030000 		tail	__riscv_restore_5
 633      67000300 
 634              		.cfi_restore 20
 635              		.cfi_restore 19
 636              		.cfi_restore 18
 637              		.cfi_restore 9
 638              		.cfi_restore 8
 639              		.cfi_restore 1
 640              		.cfi_def_cfa_offset 0
 641              		.cfi_endproc
 642              	.LFE10:
 644              		.section	.text.sys_restart_timeouts,"ax",@progbits
 645              		.align	1
 646              		.globl	sys_restart_timeouts
 648              	sys_restart_timeouts:
 649              	.LFB11:
 397:C:/Users/stapi/OneDrive/Desktop/GD32VW553/GD32VW55X_Wifi_BLE_SDK/GD32VW55x_RELEASE_V1.0.2/MSDK/lwip/lwip-2.1.2/src/core\timeouts.c **** 
 398:C:/Users/stapi/OneDrive/Desktop/GD32VW553/GD32VW55X_Wifi_BLE_SDK/GD32VW55x_RELEASE_V1.0.2/MSDK/lwip/lwip-2.1.2/src/core\timeouts.c **** /** Rebase the timeout times to the current time.
 399:C:/Users/stapi/OneDrive/Desktop/GD32VW553/GD32VW55X_Wifi_BLE_SDK/GD32VW55x_RELEASE_V1.0.2/MSDK/lwip/lwip-2.1.2/src/core\timeouts.c ****  * This is necessary if sys_check_timeouts() hasn't been called for a long
 400:C:/Users/stapi/OneDrive/Desktop/GD32VW553/GD32VW55X_Wifi_BLE_SDK/GD32VW55x_RELEASE_V1.0.2/MSDK/lwip/lwip-2.1.2/src/core\timeouts.c ****  * time (e.g. while saving energy) to prevent all timer functions of that
 401:C:/Users/stapi/OneDrive/Desktop/GD32VW553/GD32VW55X_Wifi_BLE_SDK/GD32VW55x_RELEASE_V1.0.2/MSDK/lwip/lwip-2.1.2/src/core\timeouts.c ****  * period being called.
 402:C:/Users/stapi/OneDrive/Desktop/GD32VW553/GD32VW55X_Wifi_BLE_SDK/GD32VW55x_RELEASE_V1.0.2/MSDK/lwip/lwip-2.1.2/src/core\timeouts.c ****  */
 403:C:/Users/stapi/OneDrive/Desktop/GD32VW553/GD32VW55X_Wifi_BLE_SDK/GD32VW55x_RELEASE_V1.0.2/MSDK/lwip/lwip-2.1.2/src/core\timeouts.c **** void
 404:C:/Users/stapi/OneDrive/Desktop/GD32VW553/GD32VW55X_Wifi_BLE_SDK/GD32VW55x_RELEASE_V1.0.2/MSDK/lwip/lwip-2.1.2/src/core\timeouts.c **** sys_restart_timeouts(void)
 405:C:/Users/stapi/OneDrive/Desktop/GD32VW553/GD32VW55X_Wifi_BLE_SDK/GD32VW55x_RELEASE_V1.0.2/MSDK/lwip/lwip-2.1.2/src/core\timeouts.c **** {
 650              		.loc 1 405 1 is_stmt 1
 651              		.cfi_startproc
 652 0000 17030000 		call	t0,__riscv_save_1
 652      E7020300 
 653              		.cfi_offset 8, -8
 654              		.cfi_offset 1, -4
 655              		.cfi_def_cfa_offset 16
 406:C:/Users/stapi/OneDrive/Desktop/GD32VW553/GD32VW55X_Wifi_BLE_SDK/GD32VW55x_RELEASE_V1.0.2/MSDK/lwip/lwip-2.1.2/src/core\timeouts.c ****   u32_t now;
 656              		.loc 1 406 3
 407:C:/Users/stapi/OneDrive/Desktop/GD32VW553/GD32VW55X_Wifi_BLE_SDK/GD32VW55x_RELEASE_V1.0.2/MSDK/lwip/lwip-2.1.2/src/core\timeouts.c ****   u32_t base;
 657              		.loc 1 407 3
 408:C:/Users/stapi/OneDrive/Desktop/GD32VW553/GD32VW55X_Wifi_BLE_SDK/GD32VW55x_RELEASE_V1.0.2/MSDK/lwip/lwip-2.1.2/src/core\timeouts.c ****   struct sys_timeo *t;
 658              		.loc 1 408 3
 409:C:/Users/stapi/OneDrive/Desktop/GD32VW553/GD32VW55X_Wifi_BLE_SDK/GD32VW55x_RELEASE_V1.0.2/MSDK/lwip/lwip-2.1.2/src/core\timeouts.c **** 
 410:C:/Users/stapi/OneDrive/Desktop/GD32VW553/GD32VW55X_Wifi_BLE_SDK/GD32VW55x_RELEASE_V1.0.2/MSDK/lwip/lwip-2.1.2/src/core\timeouts.c ****   if (next_timeout == NULL) {
 659              		.loc 1 410 3
 660              		.loc 1 410 20 is_stmt 0
 661 0008 37040000 		lui	s0,%hi(.LANCHOR0)
 662 000c 13040400 		addi	s0,s0,%lo(.LANCHOR0)
 663              		.loc 1 410 6
 664 0010 1C40     		lw	a5,0(s0)
 665 0012 89CF     		beq	a5,zero,.L67
 411:C:/Users/stapi/OneDrive/Desktop/GD32VW553/GD32VW55X_Wifi_BLE_SDK/GD32VW55x_RELEASE_V1.0.2/MSDK/lwip/lwip-2.1.2/src/core\timeouts.c ****     return;
 412:C:/Users/stapi/OneDrive/Desktop/GD32VW553/GD32VW55X_Wifi_BLE_SDK/GD32VW55x_RELEASE_V1.0.2/MSDK/lwip/lwip-2.1.2/src/core\timeouts.c ****   }
 413:C:/Users/stapi/OneDrive/Desktop/GD32VW553/GD32VW55X_Wifi_BLE_SDK/GD32VW55x_RELEASE_V1.0.2/MSDK/lwip/lwip-2.1.2/src/core\timeouts.c **** 
 414:C:/Users/stapi/OneDrive/Desktop/GD32VW553/GD32VW55X_Wifi_BLE_SDK/GD32VW55x_RELEASE_V1.0.2/MSDK/lwip/lwip-2.1.2/src/core\timeouts.c ****   now = sys_now();
 666              		.loc 1 414 3 is_stmt 1
 667              		.loc 1 414 9 is_stmt 0
 668 0014 97000000 		call	sys_now
 668      E7800000 
 669              	.LVL57:
 415:C:/Users/stapi/OneDrive/Desktop/GD32VW553/GD32VW55X_Wifi_BLE_SDK/GD32VW55x_RELEASE_V1.0.2/MSDK/lwip/lwip-2.1.2/src/core\timeouts.c ****   base = next_timeout->time;
 670              		.loc 1 415 3 is_stmt 1
 671              		.loc 1 415 22 is_stmt 0
 672 001c 1C40     		lw	a5,0(s0)
 673              		.loc 1 415 8
 674 001e D843     		lw	a4,4(a5)
 675              	.LVL58:
 416:C:/Users/stapi/OneDrive/Desktop/GD32VW553/GD32VW55X_Wifi_BLE_SDK/GD32VW55x_RELEASE_V1.0.2/MSDK/lwip/lwip-2.1.2/src/core\timeouts.c **** 
 417:C:/Users/stapi/OneDrive/Desktop/GD32VW553/GD32VW55X_Wifi_BLE_SDK/GD32VW55x_RELEASE_V1.0.2/MSDK/lwip/lwip-2.1.2/src/core\timeouts.c ****   for (t = next_timeout; t != NULL; t = t->next) {
 676              		.loc 1 417 3 is_stmt 1
 677              		.loc 1 417 26
 418:C:/Users/stapi/OneDrive/Desktop/GD32VW553/GD32VW55X_Wifi_BLE_SDK/GD32VW55x_RELEASE_V1.0.2/MSDK/lwip/lwip-2.1.2/src/core\timeouts.c ****     t->time = (t->time - base) + now;
 678              		.loc 1 418 32 is_stmt 0
 679 0020 198D     		sub	a0,a0,a4
 680              	.LVL59:
 681              	.L69:
 682              		.loc 1 418 5 is_stmt 1 discriminator 3
 683              		.loc 1 418 32 is_stmt 0 discriminator 3
 684 0022 D843     		lw	a4,4(a5)
 685 0024 2A97     		add	a4,a4,a0
 686              		.loc 1 418 13 discriminator 3
 687 0026 D8C3     		sw	a4,4(a5)
 417:C:/Users/stapi/OneDrive/Desktop/GD32VW553/GD32VW55X_Wifi_BLE_SDK/GD32VW55x_RELEASE_V1.0.2/MSDK/lwip/lwip-2.1.2/src/core\timeouts.c ****     t->time = (t->time - base) + now;
 688              		.loc 1 417 37 is_stmt 1 discriminator 3
 417:C:/Users/stapi/OneDrive/Desktop/GD32VW553/GD32VW55X_Wifi_BLE_SDK/GD32VW55x_RELEASE_V1.0.2/MSDK/lwip/lwip-2.1.2/src/core\timeouts.c ****     t->time = (t->time - base) + now;
 689              		.loc 1 417 39 is_stmt 0 discriminator 3
 690 0028 9C43     		lw	a5,0(a5)
 691              	.LVL60:
 417:C:/Users/stapi/OneDrive/Desktop/GD32VW553/GD32VW55X_Wifi_BLE_SDK/GD32VW55x_RELEASE_V1.0.2/MSDK/lwip/lwip-2.1.2/src/core\timeouts.c ****     t->time = (t->time - base) + now;
 692              		.loc 1 417 26 is_stmt 1 discriminator 3
 417:C:/Users/stapi/OneDrive/Desktop/GD32VW553/GD32VW55X_Wifi_BLE_SDK/GD32VW55x_RELEASE_V1.0.2/MSDK/lwip/lwip-2.1.2/src/core\timeouts.c ****     t->time = (t->time - base) + now;
 693              		.loc 1 417 3 is_stmt 0 discriminator 3
 694 002a E5FF     		bne	a5,zero,.L69
 695              	.LVL61:
 696              	.L67:
 419:C:/Users/stapi/OneDrive/Desktop/GD32VW553/GD32VW55X_Wifi_BLE_SDK/GD32VW55x_RELEASE_V1.0.2/MSDK/lwip/lwip-2.1.2/src/core\timeouts.c ****   }
 420:C:/Users/stapi/OneDrive/Desktop/GD32VW553/GD32VW55X_Wifi_BLE_SDK/GD32VW55x_RELEASE_V1.0.2/MSDK/lwip/lwip-2.1.2/src/core\timeouts.c **** }
 697              		.loc 1 420 1
 698 002c 17030000 		tail	__riscv_restore_1
 698      67000300 
 699              		.cfi_restore 8
 700              		.cfi_restore 1
 701              		.cfi_def_cfa_offset 0
 702              		.cfi_endproc
 703              	.LFE11:
 705              		.section	.text.sys_timeouts_sleeptime,"ax",@progbits
 706              		.align	1
 707              		.globl	sys_timeouts_sleeptime
 709              	sys_timeouts_sleeptime:
 710              	.LFB12:
 421:C:/Users/stapi/OneDrive/Desktop/GD32VW553/GD32VW55X_Wifi_BLE_SDK/GD32VW55x_RELEASE_V1.0.2/MSDK/lwip/lwip-2.1.2/src/core\timeouts.c **** 
 422:C:/Users/stapi/OneDrive/Desktop/GD32VW553/GD32VW55X_Wifi_BLE_SDK/GD32VW55x_RELEASE_V1.0.2/MSDK/lwip/lwip-2.1.2/src/core\timeouts.c **** /** Return the time left before the next timeout is due. If no timeouts are
 423:C:/Users/stapi/OneDrive/Desktop/GD32VW553/GD32VW55X_Wifi_BLE_SDK/GD32VW55x_RELEASE_V1.0.2/MSDK/lwip/lwip-2.1.2/src/core\timeouts.c ****  * enqueued, returns 0xffffffff
 424:C:/Users/stapi/OneDrive/Desktop/GD32VW553/GD32VW55X_Wifi_BLE_SDK/GD32VW55x_RELEASE_V1.0.2/MSDK/lwip/lwip-2.1.2/src/core\timeouts.c ****  */
 425:C:/Users/stapi/OneDrive/Desktop/GD32VW553/GD32VW55X_Wifi_BLE_SDK/GD32VW55x_RELEASE_V1.0.2/MSDK/lwip/lwip-2.1.2/src/core\timeouts.c **** u32_t
 426:C:/Users/stapi/OneDrive/Desktop/GD32VW553/GD32VW55X_Wifi_BLE_SDK/GD32VW55x_RELEASE_V1.0.2/MSDK/lwip/lwip-2.1.2/src/core\timeouts.c **** sys_timeouts_sleeptime(void)
 427:C:/Users/stapi/OneDrive/Desktop/GD32VW553/GD32VW55X_Wifi_BLE_SDK/GD32VW55x_RELEASE_V1.0.2/MSDK/lwip/lwip-2.1.2/src/core\timeouts.c **** {
 711              		.loc 1 427 1 is_stmt 1
 712              		.cfi_startproc
 713 0000 17030000 		call	t0,__riscv_save_1
 713      E7020300 
 714              		.cfi_offset 8, -8
 715              		.cfi_offset 1, -4
 716              		.cfi_def_cfa_offset 16
 428:C:/Users/stapi/OneDrive/Desktop/GD32VW553/GD32VW55X_Wifi_BLE_SDK/GD32VW55x_RELEASE_V1.0.2/MSDK/lwip/lwip-2.1.2/src/core\timeouts.c ****   u32_t now;
 717              		.loc 1 428 3
 429:C:/Users/stapi/OneDrive/Desktop/GD32VW553/GD32VW55X_Wifi_BLE_SDK/GD32VW55x_RELEASE_V1.0.2/MSDK/lwip/lwip-2.1.2/src/core\timeouts.c **** 
 430:C:/Users/stapi/OneDrive/Desktop/GD32VW553/GD32VW55X_Wifi_BLE_SDK/GD32VW55x_RELEASE_V1.0.2/MSDK/lwip/lwip-2.1.2/src/core\timeouts.c ****   LWIP_ASSERT_CORE_LOCKED();
 718              		.loc 1 430 28
 431:C:/Users/stapi/OneDrive/Desktop/GD32VW553/GD32VW55X_Wifi_BLE_SDK/GD32VW55x_RELEASE_V1.0.2/MSDK/lwip/lwip-2.1.2/src/core\timeouts.c **** 
 432:C:/Users/stapi/OneDrive/Desktop/GD32VW553/GD32VW55X_Wifi_BLE_SDK/GD32VW55x_RELEASE_V1.0.2/MSDK/lwip/lwip-2.1.2/src/core\timeouts.c ****   if (next_timeout == NULL) {
 719              		.loc 1 432 3
 720              		.loc 1 432 20 is_stmt 0
 721 0008 37040000 		lui	s0,%hi(.LANCHOR0)
 722 000c 13040400 		addi	s0,s0,%lo(.LANCHOR0)
 723              		.loc 1 432 6
 724 0010 1C40     		lw	a5,0(s0)
 725 0012 7D55     		li	a0,-1
 726 0014 81CF     		beq	a5,zero,.L75
 433:C:/Users/stapi/OneDrive/Desktop/GD32VW553/GD32VW55X_Wifi_BLE_SDK/GD32VW55x_RELEASE_V1.0.2/MSDK/lwip/lwip-2.1.2/src/core\timeouts.c ****     return SYS_TIMEOUTS_SLEEPTIME_INFINITE;
 434:C:/Users/stapi/OneDrive/Desktop/GD32VW553/GD32VW55X_Wifi_BLE_SDK/GD32VW55x_RELEASE_V1.0.2/MSDK/lwip/lwip-2.1.2/src/core\timeouts.c ****   }
 435:C:/Users/stapi/OneDrive/Desktop/GD32VW553/GD32VW55X_Wifi_BLE_SDK/GD32VW55x_RELEASE_V1.0.2/MSDK/lwip/lwip-2.1.2/src/core\timeouts.c ****   now = sys_now();
 727              		.loc 1 435 3 is_stmt 1
 728              		.loc 1 435 9 is_stmt 0
 729 0016 97000000 		call	sys_now
 729      E7800000 
 730              	.LVL62:
 436:C:/Users/stapi/OneDrive/Desktop/GD32VW553/GD32VW55X_Wifi_BLE_SDK/GD32VW55x_RELEASE_V1.0.2/MSDK/lwip/lwip-2.1.2/src/core\timeouts.c ****   if (TIME_LESS_THAN(next_timeout->time, now)) {
 731              		.loc 1 436 3 is_stmt 1
 732              		.loc 1 436 7 is_stmt 0
 733 001e 1C40     		lw	a5,0(s0)
 734 0020 DC43     		lw	a5,4(a5)
 735 0022 3385A740 		sub	a0,a5,a0
 736              	.LVL63:
 437:C:/Users/stapi/OneDrive/Desktop/GD32VW553/GD32VW55X_Wifi_BLE_SDK/GD32VW55x_RELEASE_V1.0.2/MSDK/lwip/lwip-2.1.2/src/core\timeouts.c ****     return 0;
 737              		.loc 1 437 12
 738 0026 8147     		li	a5,0
 739 0028 3365F50A 		max	a0,a0,a5
 740              	.L75:
 438:C:/Users/stapi/OneDrive/Desktop/GD32VW553/GD32VW55X_Wifi_BLE_SDK/GD32VW55x_RELEASE_V1.0.2/MSDK/lwip/lwip-2.1.2/src/core\timeouts.c ****   } else {
 439:C:/Users/stapi/OneDrive/Desktop/GD32VW553/GD32VW55X_Wifi_BLE_SDK/GD32VW55x_RELEASE_V1.0.2/MSDK/lwip/lwip-2.1.2/src/core\timeouts.c ****     u32_t ret = (u32_t)(next_timeout->time - now);
 440:C:/Users/stapi/OneDrive/Desktop/GD32VW553/GD32VW55X_Wifi_BLE_SDK/GD32VW55x_RELEASE_V1.0.2/MSDK/lwip/lwip-2.1.2/src/core\timeouts.c ****     LWIP_ASSERT("invalid sleeptime", ret <= LWIP_MAX_TIMEOUT);
 441:C:/Users/stapi/OneDrive/Desktop/GD32VW553/GD32VW55X_Wifi_BLE_SDK/GD32VW55x_RELEASE_V1.0.2/MSDK/lwip/lwip-2.1.2/src/core\timeouts.c ****     return ret;
 442:C:/Users/stapi/OneDrive/Desktop/GD32VW553/GD32VW55X_Wifi_BLE_SDK/GD32VW55x_RELEASE_V1.0.2/MSDK/lwip/lwip-2.1.2/src/core\timeouts.c ****   }
 443:C:/Users/stapi/OneDrive/Desktop/GD32VW553/GD32VW55X_Wifi_BLE_SDK/GD32VW55x_RELEASE_V1.0.2/MSDK/lwip/lwip-2.1.2/src/core\timeouts.c **** }
 741              		.loc 1 443 1
 742 002c 17030000 		tail	__riscv_restore_1
 742      67000300 
 743              		.cfi_restore 8
 744              		.cfi_restore 1
 745              		.cfi_def_cfa_offset 0
 746              		.cfi_endproc
 747              	.LFE12:
 749              		.globl	lwip_num_cyclic_timers
 750              		.globl	lwip_cyclic_timers
 751              		.section	.rodata.lwip_cyclic_timers,"a"
 752              		.align	2
 753              		.set	.LANCHOR3,. + 0
 756              	lwip_cyclic_timers:
 757 0000 FA000000 		.word	250
 758 0004 00000000 		.word	tcp_tmr
 759 0008 E8030000 		.word	1000
 760 000c 00000000 		.word	ip_reass_tmr
 761 0010 E8030000 		.word	1000
 762 0014 00000000 		.word	etharp_tmr
 763 0018 983A0000 		.word	15000
 764 001c 00000000 		.word	dhcp_coarse_tmr
 765 0020 F4010000 		.word	500
 766 0024 00000000 		.word	dhcp_fine_tmr
 767 0028 FA000000 		.word	250
 768 002c 00000000 		.word	igmp_tmr
 769 0030 E8030000 		.word	1000
 770 0034 00000000 		.word	dns_tmr
 771              		.section	.sbss.current_timeout_due_time,"aw",@nobits
 772              		.align	2
 773              		.set	.LANCHOR1,. + 0
 776              	current_timeout_due_time:
 777 0000 00000000 		.zero	4
 778              		.section	.sbss.next_timeout,"aw",@nobits
 779              		.align	2
 780              		.set	.LANCHOR0,. + 0
 783              	next_timeout:
 784 0000 00000000 		.zero	4
 785              		.section	.sbss.tcpip_tcp_timer_active,"aw",@nobits
 786              		.align	2
 787              		.set	.LANCHOR2,. + 0
 790              	tcpip_tcp_timer_active:
 791 0000 00000000 		.zero	4
 792              		.section	.srodata.lwip_num_cyclic_timers,"a"
 793              		.align	2
 796              	lwip_num_cyclic_timers:
 797 0000 07000000 		.word	7
 798              		.text
 799              	.Letext0:
 800              		.file 2 "c:\\users\\stapi\\onedrive\\desktop\\gd32vw553\\embeddedbuilder_v1.4.7.26843\\tools\\nucl
 801              		.file 3 "c:\\users\\stapi\\onedrive\\desktop\\gd32vw553\\embeddedbuilder_v1.4.7.26843\\tools\\nucl
 802              		.file 4 "c:\\users\\stapi\\onedrive\\desktop\\gd32vw553\\embeddedbuilder_v1.4.7.26843\\tools\\nucl
 803              		.file 5 "..\\..\\..\\..\\lwip\\lwip-2.1.2\\src\\include/lwip/arch.h"
 804              		.file 6 "..\\..\\..\\..\\lwip\\lwip-2.1.2\\src\\include/lwip/err.h"
 805              		.file 7 "..\\..\\..\\..\\lwip\\lwip-2.1.2\\src\\include/lwip/timeouts.h"
 806              		.file 8 "..\\..\\..\\..\\lwip\\lwip-2.1.2\\src\\include/lwip/tcpbase.h"
 807              		.file 9 "..\\..\\..\\..\\lwip\\lwip-2.1.2\\src\\include/lwip/pbuf.h"
 808              		.file 10 "..\\..\\..\\..\\lwip\\lwip-2.1.2\\src\\include/lwip/ip4_addr.h"
 809              		.file 11 "..\\..\\..\\..\\lwip\\lwip-2.1.2\\src\\include/lwip/ip_addr.h"
 810              		.file 12 "..\\..\\..\\..\\lwip\\lwip-2.1.2\\src\\include/lwip/netif.h"
 811              		.file 13 "..\\..\\..\\..\\lwip\\lwip-2.1.2\\src\\include/lwip/tcp.h"
 812              		.file 14 "..\\..\\..\\..\\lwip\\lwip-2.1.2\\src\\include/lwip/priv/tcp_priv.h"
 813              		.file 15 "..\\..\\..\\..\\lwip\\lwip-2.1.2\\src\\include/lwip/prot/tcp.h"
 814              		.file 16 "..\\..\\..\\..\\lwip\\lwip-2.1.2\\src\\include/lwip/sys.h"
 815              		.file 17 "..\\..\\..\\..\\lwip\\lwip-2.1.2\\src\\include/lwip/memp.h"
 816              		.file 18 "c:\\users\\stapi\\onedrive\\desktop\\gd32vw553\\embeddedbuilder_v1.4.7.26843\\tools\\nuc
DEFINED SYMBOLS
                            *ABS*:0000000000000000 timeouts.c
C:\Users\stapi\AppData\Local\Temp\ccnwKQy3.s:22     .text.sys_timeout_abs:0000000000000000 sys_timeout_abs
C:\Users\stapi\AppData\Local\Temp\ccnwKQy3.s:26     .text.sys_timeout_abs:0000000000000000 .L0 
C:\Users\stapi\AppData\Local\Temp\ccnwKQy3.s:28     .text.sys_timeout_abs:0000000000000000 .L0 
C:\Users\stapi\AppData\Local\Temp\ccnwKQy3.s:29     .text.sys_timeout_abs:0000000000000008 .L0 
C:\Users\stapi\AppData\Local\Temp\ccnwKQy3.s:30     .text.sys_timeout_abs:0000000000000008 .L0 
C:\Users\stapi\AppData\Local\Temp\ccnwKQy3.s:31     .text.sys_timeout_abs:0000000000000008 .L0 
C:\Users\stapi\AppData\Local\Temp\ccnwKQy3.s:32     .text.sys_timeout_abs:0000000000000008 .L0 
C:\Users\stapi\AppData\Local\Temp\ccnwKQy3.s:33     .text.sys_timeout_abs:0000000000000008 .L0 
C:\Users\stapi\AppData\Local\Temp\ccnwKQy3.s:35     .text.sys_timeout_abs:0000000000000008 .L0 
C:\Users\stapi\AppData\Local\Temp\ccnwKQy3.s:36     .text.sys_timeout_abs:0000000000000008 .L0 
C:\Users\stapi\AppData\Local\Temp\ccnwKQy3.s:37     .text.sys_timeout_abs:0000000000000008 .L0 
C:\Users\stapi\AppData\Local\Temp\ccnwKQy3.s:39     .text.sys_timeout_abs:000000000000000a .L0 
C:\Users\stapi\AppData\Local\Temp\ccnwKQy3.s:42     .text.sys_timeout_abs:000000000000000c .L0 
C:\Users\stapi\AppData\Local\Temp\ccnwKQy3.s:45     .text.sys_timeout_abs:0000000000000010 .L0 
C:\Users\stapi\AppData\Local\Temp\ccnwKQy3.s:48     .text.sys_timeout_abs:0000000000000018 .L0 
C:\Users\stapi\AppData\Local\Temp\ccnwKQy3.s:49     .text.sys_timeout_abs:0000000000000018 .L0 
C:\Users\stapi\AppData\Local\Temp\ccnwKQy3.s:51     .text.sys_timeout_abs:000000000000001a .L0 
C:\Users\stapi\AppData\Local\Temp\ccnwKQy3.s:52     .text.sys_timeout_abs:000000000000001a .L0 
C:\Users\stapi\AppData\Local\Temp\ccnwKQy3.s:53     .text.sys_timeout_abs:000000000000001a .L0 
C:\Users\stapi\AppData\Local\Temp\ccnwKQy3.s:54     .text.sys_timeout_abs:000000000000001a .L0 
C:\Users\stapi\AppData\Local\Temp\ccnwKQy3.s:66     .text.sys_timeout_abs:000000000000003e .L0 
C:\Users\stapi\AppData\Local\Temp\ccnwKQy3.s:67     .text.sys_timeout_abs:000000000000003e .L0 
C:\Users\stapi\AppData\Local\Temp\ccnwKQy3.s:68     .text.sys_timeout_abs:000000000000003e .L0 
C:\Users\stapi\AppData\Local\Temp\ccnwKQy3.s:72     .text.sys_timeout_abs:0000000000000040 .L0 
C:\Users\stapi\AppData\Local\Temp\ccnwKQy3.s:73     .text.sys_timeout_abs:0000000000000040 .L0 
C:\Users\stapi\AppData\Local\Temp\ccnwKQy3.s:77     .text.sys_timeout_abs:000000000000004a .L0 
C:\Users\stapi\AppData\Local\Temp\ccnwKQy3.s:79     .text.sys_timeout_abs:000000000000004e .L0 
C:\Users\stapi\AppData\Local\Temp\ccnwKQy3.s:80     .text.sys_timeout_abs:000000000000004e .L0 
C:\Users\stapi\AppData\Local\Temp\ccnwKQy3.s:82     .text.sys_timeout_abs:0000000000000052 .L0 
C:\Users\stapi\AppData\Local\Temp\ccnwKQy3.s:83     .text.sys_timeout_abs:0000000000000052 .L0 
C:\Users\stapi\AppData\Local\Temp\ccnwKQy3.s:85     .text.sys_timeout_abs:0000000000000054 .L0 
C:\Users\stapi\AppData\Local\Temp\ccnwKQy3.s:86     .text.sys_timeout_abs:0000000000000054 .L0 
C:\Users\stapi\AppData\Local\Temp\ccnwKQy3.s:88     .text.sys_timeout_abs:0000000000000056 .L0 
C:\Users\stapi\AppData\Local\Temp\ccnwKQy3.s:89     .text.sys_timeout_abs:0000000000000056 .L0 
C:\Users\stapi\AppData\Local\Temp\ccnwKQy3.s:92     .text.sys_timeout_abs:0000000000000058 .L0 
C:\Users\stapi\AppData\Local\Temp\ccnwKQy3.s:93     .text.sys_timeout_abs:0000000000000058 .L0 
C:\Users\stapi\AppData\Local\Temp\ccnwKQy3.s:96     .text.sys_timeout_abs:000000000000005a .L0 
C:\Users\stapi\AppData\Local\Temp\ccnwKQy3.s:97     .text.sys_timeout_abs:0000000000000062 .L0 
C:\Users\stapi\AppData\Local\Temp\ccnwKQy3.s:98     .text.sys_timeout_abs:0000000000000062 .L0 
C:\Users\stapi\AppData\Local\Temp\ccnwKQy3.s:99     .text.sys_timeout_abs:0000000000000062 .L0 
C:\Users\stapi\AppData\Local\Temp\ccnwKQy3.s:100    .text.sys_timeout_abs:0000000000000062 .L0 
C:\Users\stapi\AppData\Local\Temp\ccnwKQy3.s:101    .text.sys_timeout_abs:0000000000000062 .L0 
C:\Users\stapi\AppData\Local\Temp\ccnwKQy3.s:102    .text.sys_timeout_abs:0000000000000062 .L0 
C:\Users\stapi\AppData\Local\Temp\ccnwKQy3.s:104    .text.sys_timeout_abs:0000000000000062 .L0 
C:\Users\stapi\AppData\Local\Temp\ccnwKQy3.s:106    .text.sys_timeout_abs:0000000000000062 .L0 
C:\Users\stapi\AppData\Local\Temp\ccnwKQy3.s:107    .text.sys_timeout_abs:0000000000000062 .L0 
C:\Users\stapi\AppData\Local\Temp\ccnwKQy3.s:110    .text.sys_timeout_abs:0000000000000068 .L0 
C:\Users\stapi\AppData\Local\Temp\ccnwKQy3.s:112    .text.sys_timeout_abs:000000000000006c .L0 
C:\Users\stapi\AppData\Local\Temp\ccnwKQy3.s:113    .text.sys_timeout_abs:000000000000006c .L0 
C:\Users\stapi\AppData\Local\Temp\ccnwKQy3.s:118    .text.sys_timeout_abs:0000000000000070 .L0 
C:\Users\stapi\AppData\Local\Temp\ccnwKQy3.s:120    .text.sys_timeout_abs:0000000000000072 .L0 
C:\Users\stapi\AppData\Local\Temp\ccnwKQy3.s:123    .text.sys_timeout_abs:0000000000000074 .L0 
C:\Users\stapi\AppData\Local\Temp\ccnwKQy3.s:125    .text.sys_timeout_abs:0000000000000076 .L0 
C:\Users\stapi\AppData\Local\Temp\ccnwKQy3.s:128    .text.sys_timeout_abs:000000000000007c .L0 
C:\Users\stapi\AppData\Local\Temp\ccnwKQy3.s:131    .text.sys_timeout_abs:0000000000000080 .L0 
C:\Users\stapi\AppData\Local\Temp\ccnwKQy3.s:132    .text.sys_timeout_abs:0000000000000080 .L0 
C:\Users\stapi\AppData\Local\Temp\ccnwKQy3.s:134    .text.sys_timeout_abs:0000000000000082 .L0 
C:\Users\stapi\AppData\Local\Temp\ccnwKQy3.s:135    .text.sys_timeout_abs:0000000000000082 .L0 
C:\Users\stapi\AppData\Local\Temp\ccnwKQy3.s:137    .text.sys_timeout_abs:0000000000000084 .L0 
C:\Users\stapi\AppData\Local\Temp\ccnwKQy3.s:138    .text.sys_timeout_abs:0000000000000086 .L0 
C:\Users\stapi\AppData\Local\Temp\ccnwKQy3.s:144    .text.lwip_cyclic_timer:0000000000000000 lwip_cyclic_timer
C:\Users\stapi\AppData\Local\Temp\ccnwKQy3.s:147    .text.lwip_cyclic_timer:0000000000000000 .L0 
C:\Users\stapi\AppData\Local\Temp\ccnwKQy3.s:149    .text.lwip_cyclic_timer:0000000000000000 .L0 
C:\Users\stapi\AppData\Local\Temp\ccnwKQy3.s:150    .text.lwip_cyclic_timer:0000000000000008 .L0 
C:\Users\stapi\AppData\Local\Temp\ccnwKQy3.s:151    .text.lwip_cyclic_timer:0000000000000008 .L0 
C:\Users\stapi\AppData\Local\Temp\ccnwKQy3.s:153    .text.lwip_cyclic_timer:0000000000000008 .L0 
C:\Users\stapi\AppData\Local\Temp\ccnwKQy3.s:154    .text.lwip_cyclic_timer:0000000000000008 .L0 
C:\Users\stapi\AppData\Local\Temp\ccnwKQy3.s:156    .text.lwip_cyclic_timer:0000000000000008 .L0 
C:\Users\stapi\AppData\Local\Temp\ccnwKQy3.s:157    .text.lwip_cyclic_timer:0000000000000008 .L0 
C:\Users\stapi\AppData\Local\Temp\ccnwKQy3.s:159    .text.lwip_cyclic_timer:000000000000000a .L0 
C:\Users\stapi\AppData\Local\Temp\ccnwKQy3.s:160    .text.lwip_cyclic_timer:000000000000000c .L0 
C:\Users\stapi\AppData\Local\Temp\ccnwKQy3.s:162    .text.lwip_cyclic_timer:000000000000000c .L0 
C:\Users\stapi\AppData\Local\Temp\ccnwKQy3.s:166    .text.lwip_cyclic_timer:0000000000000010 .L0 
C:\Users\stapi\AppData\Local\Temp\ccnwKQy3.s:167    .text.lwip_cyclic_timer:0000000000000010 .L0 
C:\Users\stapi\AppData\Local\Temp\ccnwKQy3.s:170    .text.lwip_cyclic_timer:0000000000000018 .L0 
C:\Users\stapi\AppData\Local\Temp\ccnwKQy3.s:172    .text.lwip_cyclic_timer:000000000000001a .L0 
C:\Users\stapi\AppData\Local\Temp\ccnwKQy3.s:175    .text.lwip_cyclic_timer:0000000000000022 .L0 
C:\Users\stapi\AppData\Local\Temp\ccnwKQy3.s:177    .text.lwip_cyclic_timer:0000000000000024 .L0 
C:\Users\stapi\AppData\Local\Temp\ccnwKQy3.s:180    .text.lwip_cyclic_timer:0000000000000026 .L0 
C:\Users\stapi\AppData\Local\Temp\ccnwKQy3.s:182    .text.lwip_cyclic_timer:000000000000002a .L0 
C:\Users\stapi\AppData\Local\Temp\ccnwKQy3.s:185    .text.lwip_cyclic_timer:000000000000002e .L0 
C:\Users\stapi\AppData\Local\Temp\ccnwKQy3.s:186    .text.lwip_cyclic_timer:000000000000002e .L0 
C:\Users\stapi\AppData\Local\Temp\ccnwKQy3.s:188    .text.lwip_cyclic_timer:0000000000000032 .L0 
C:\Users\stapi\AppData\Local\Temp\ccnwKQy3.s:190    .text.lwip_cyclic_timer:0000000000000036 .L0 
C:\Users\stapi\AppData\Local\Temp\ccnwKQy3.s:192    .text.lwip_cyclic_timer:000000000000003a .L0 
C:\Users\stapi\AppData\Local\Temp\ccnwKQy3.s:196    .text.lwip_cyclic_timer:000000000000003e .L0 
C:\Users\stapi\AppData\Local\Temp\ccnwKQy3.s:199    .text.lwip_cyclic_timer:0000000000000046 .L0 
C:\Users\stapi\AppData\Local\Temp\ccnwKQy3.s:200    .text.lwip_cyclic_timer:0000000000000048 .L0 
C:\Users\stapi\AppData\Local\Temp\ccnwKQy3.s:203    .text.lwip_cyclic_timer:0000000000000050 .L0 
C:\Users\stapi\AppData\Local\Temp\ccnwKQy3.s:204    .text.lwip_cyclic_timer:0000000000000050 .L0 
C:\Users\stapi\AppData\Local\Temp\ccnwKQy3.s:205    .text.lwip_cyclic_timer:0000000000000050 .L0 
C:\Users\stapi\AppData\Local\Temp\ccnwKQy3.s:211    .text.tcpip_tcp_timer:0000000000000000 tcpip_tcp_timer
C:\Users\stapi\AppData\Local\Temp\ccnwKQy3.s:214    .text.tcpip_tcp_timer:0000000000000000 .L0 
C:\Users\stapi\AppData\Local\Temp\ccnwKQy3.s:216    .text.tcpip_tcp_timer:0000000000000000 .L0 
C:\Users\stapi\AppData\Local\Temp\ccnwKQy3.s:217    .text.tcpip_tcp_timer:0000000000000008 .L0 
C:\Users\stapi\AppData\Local\Temp\ccnwKQy3.s:218    .text.tcpip_tcp_timer:0000000000000008 .L0 
C:\Users\stapi\AppData\Local\Temp\ccnwKQy3.s:220    .text.tcpip_tcp_timer:0000000000000008 .L0 
C:\Users\stapi\AppData\Local\Temp\ccnwKQy3.s:221    .text.tcpip_tcp_timer:0000000000000008 .L0 
C:\Users\stapi\AppData\Local\Temp\ccnwKQy3.s:224    .text.tcpip_tcp_timer:0000000000000010 .L0 
C:\Users\stapi\AppData\Local\Temp\ccnwKQy3.s:225    .text.tcpip_tcp_timer:0000000000000010 .L0 
C:\Users\stapi\AppData\Local\Temp\ccnwKQy3.s:227    .text.tcpip_tcp_timer:0000000000000014 .L0 
C:\Users\stapi\AppData\Local\Temp\ccnwKQy3.s:230    .text.tcpip_tcp_timer:000000000000001a .L0 
C:\Users\stapi\AppData\Local\Temp\ccnwKQy3.s:238    .text.tcpip_tcp_timer:0000000000000024 .L0 
C:\Users\stapi\AppData\Local\Temp\ccnwKQy3.s:239    .text.tcpip_tcp_timer:0000000000000024 .L0 
C:\Users\stapi\AppData\Local\Temp\ccnwKQy3.s:240    .text.tcpip_tcp_timer:0000000000000024 .L0 
C:\Users\stapi\AppData\Local\Temp\ccnwKQy3.s:241    .text.tcpip_tcp_timer:0000000000000024 .L0 
C:\Users\stapi\AppData\Local\Temp\ccnwKQy3.s:244    .text.tcpip_tcp_timer:0000000000000024 .L0 
C:\Users\stapi\AppData\Local\Temp\ccnwKQy3.s:245    .text.tcpip_tcp_timer:0000000000000024 .L0 
C:\Users\stapi\AppData\Local\Temp\ccnwKQy3.s:246    .text.tcpip_tcp_timer:0000000000000024 .L0 
C:\Users\stapi\AppData\Local\Temp\ccnwKQy3.s:247    .text.tcpip_tcp_timer:0000000000000024 .L0 
C:\Users\stapi\AppData\Local\Temp\ccnwKQy3.s:248    .text.tcpip_tcp_timer:0000000000000024 .L0 
C:\Users\stapi\AppData\Local\Temp\ccnwKQy3.s:251    .text.tcpip_tcp_timer:000000000000002c .L0 
C:\Users\stapi\AppData\Local\Temp\ccnwKQy3.s:264    .text.tcpip_tcp_timer:0000000000000042 .L0 
C:\Users\stapi\AppData\Local\Temp\ccnwKQy3.s:265    .text.tcpip_tcp_timer:000000000000004a .L0 
C:\Users\stapi\AppData\Local\Temp\ccnwKQy3.s:266    .text.tcpip_tcp_timer:000000000000004a .L0 
C:\Users\stapi\AppData\Local\Temp\ccnwKQy3.s:267    .text.tcpip_tcp_timer:000000000000004a .L0 
C:\Users\stapi\AppData\Local\Temp\ccnwKQy3.s:269    .text.tcpip_tcp_timer:000000000000004a .L0 
C:\Users\stapi\AppData\Local\Temp\ccnwKQy3.s:271    .text.tcpip_tcp_timer:000000000000004a .L0 
C:\Users\stapi\AppData\Local\Temp\ccnwKQy3.s:272    .text.tcpip_tcp_timer:000000000000004a .L0 
C:\Users\stapi\AppData\Local\Temp\ccnwKQy3.s:275    .text.tcpip_tcp_timer:0000000000000052 .L0 
C:\Users\stapi\AppData\Local\Temp\ccnwKQy3.s:276    .text.tcpip_tcp_timer:0000000000000054 .L0 
C:\Users\stapi\AppData\Local\Temp\ccnwKQy3.s:283    .text.tcp_timer_needed:0000000000000000 tcp_timer_needed
C:\Users\stapi\AppData\Local\Temp\ccnwKQy3.s:286    .text.tcp_timer_needed:0000000000000000 .L0 
C:\Users\stapi\AppData\Local\Temp\ccnwKQy3.s:287    .text.tcp_timer_needed:0000000000000000 .L0 
C:\Users\stapi\AppData\Local\Temp\ccnwKQy3.s:288    .text.tcp_timer_needed:0000000000000000 .L0 
C:\Users\stapi\AppData\Local\Temp\ccnwKQy3.s:289    .text.tcp_timer_needed:0000000000000000 .L0 
C:\Users\stapi\AppData\Local\Temp\ccnwKQy3.s:290    .text.tcp_timer_needed:0000000000000000 .L0 
C:\Users\stapi\AppData\Local\Temp\ccnwKQy3.s:292    .text.tcp_timer_needed:0000000000000004 .L0 
C:\Users\stapi\AppData\Local\Temp\ccnwKQy3.s:295    .text.tcp_timer_needed:000000000000000a .L0 
C:\Users\stapi\AppData\Local\Temp\ccnwKQy3.s:297    .text.tcp_timer_needed:000000000000000e .L0 
C:\Users\stapi\AppData\Local\Temp\ccnwKQy3.s:301    .text.tcp_timer_needed:0000000000000018 .L0 
C:\Users\stapi\AppData\Local\Temp\ccnwKQy3.s:306    .text.tcp_timer_needed:0000000000000022 .L0 
C:\Users\stapi\AppData\Local\Temp\ccnwKQy3.s:307    .text.tcp_timer_needed:000000000000002a .L0 
C:\Users\stapi\AppData\Local\Temp\ccnwKQy3.s:308    .text.tcp_timer_needed:000000000000002a .L0 
C:\Users\stapi\AppData\Local\Temp\ccnwKQy3.s:310    .text.tcp_timer_needed:000000000000002a .L0 
C:\Users\stapi\AppData\Local\Temp\ccnwKQy3.s:311    .text.tcp_timer_needed:000000000000002a .L0 
C:\Users\stapi\AppData\Local\Temp\ccnwKQy3.s:317    .text.tcp_timer_needed:000000000000002e .L0 
C:\Users\stapi\AppData\Local\Temp\ccnwKQy3.s:318    .text.tcp_timer_needed:000000000000002e .L0 
C:\Users\stapi\AppData\Local\Temp\ccnwKQy3.s:319    .text.tcp_timer_needed:000000000000002e .L0 
C:\Users\stapi\AppData\Local\Temp\ccnwKQy3.s:320    .text.tcp_timer_needed:000000000000002e .L0 
C:\Users\stapi\AppData\Local\Temp\ccnwKQy3.s:323    .text.tcp_timer_needed:000000000000002e .L0 
C:\Users\stapi\AppData\Local\Temp\ccnwKQy3.s:324    .text.tcp_timer_needed:000000000000002e .L0 
C:\Users\stapi\AppData\Local\Temp\ccnwKQy3.s:325    .text.tcp_timer_needed:000000000000002e .L0 
C:\Users\stapi\AppData\Local\Temp\ccnwKQy3.s:326    .text.tcp_timer_needed:000000000000002e .L0 
C:\Users\stapi\AppData\Local\Temp\ccnwKQy3.s:327    .text.tcp_timer_needed:000000000000002e .L0 
C:\Users\stapi\AppData\Local\Temp\ccnwKQy3.s:330    .text.tcp_timer_needed:0000000000000036 .L0 
C:\Users\stapi\AppData\Local\Temp\ccnwKQy3.s:342    .text.tcp_timer_needed:000000000000004c .L0 
C:\Users\stapi\AppData\Local\Temp\ccnwKQy3.s:343    .text.tcp_timer_needed:0000000000000054 .L0 
C:\Users\stapi\AppData\Local\Temp\ccnwKQy3.s:344    .text.tcp_timer_needed:0000000000000054 .L0 
C:\Users\stapi\AppData\Local\Temp\ccnwKQy3.s:347    .text.tcp_timer_needed:0000000000000056 .L0 
C:\Users\stapi\AppData\Local\Temp\ccnwKQy3.s:358    .text.sys_timeout:0000000000000000 sys_timeout
C:\Users\stapi\AppData\Local\Temp\ccnwKQy3.s:361    .text.sys_timeout:0000000000000000 .L0 
C:\Users\stapi\AppData\Local\Temp\ccnwKQy3.s:363    .text.sys_timeout:0000000000000000 .L0 
C:\Users\stapi\AppData\Local\Temp\ccnwKQy3.s:364    .text.sys_timeout:0000000000000008 .L0 
C:\Users\stapi\AppData\Local\Temp\ccnwKQy3.s:365    .text.sys_timeout:0000000000000008 .L0 
C:\Users\stapi\AppData\Local\Temp\ccnwKQy3.s:366    .text.sys_timeout:0000000000000008 .L0 
C:\Users\stapi\AppData\Local\Temp\ccnwKQy3.s:368    .text.sys_timeout:0000000000000008 .L0 
C:\Users\stapi\AppData\Local\Temp\ccnwKQy3.s:369    .text.sys_timeout:0000000000000008 .L0 
C:\Users\stapi\AppData\Local\Temp\ccnwKQy3.s:370    .text.sys_timeout:0000000000000008 .L0 
C:\Users\stapi\AppData\Local\Temp\ccnwKQy3.s:371    .text.sys_timeout:0000000000000008 .L0 
C:\Users\stapi\AppData\Local\Temp\ccnwKQy3.s:373    .text.sys_timeout:000000000000000c .L0 
C:\Users\stapi\AppData\Local\Temp\ccnwKQy3.s:374    .text.sys_timeout:000000000000000e .L0 
C:\Users\stapi\AppData\Local\Temp\ccnwKQy3.s:376    .text.sys_timeout:000000000000000e .L0 
C:\Users\stapi\AppData\Local\Temp\ccnwKQy3.s:378    .text.sys_timeout:0000000000000012 .L0 
C:\Users\stapi\AppData\Local\Temp\ccnwKQy3.s:379    .text.sys_timeout:0000000000000012 .L0 
C:\Users\stapi\AppData\Local\Temp\ccnwKQy3.s:393    .text.sys_timeout:0000000000000036 .L0 
C:\Users\stapi\AppData\Local\Temp\ccnwKQy3.s:394    .text.sys_timeout:0000000000000036 .L0 
C:\Users\stapi\AppData\Local\Temp\ccnwKQy3.s:395    .text.sys_timeout:0000000000000036 .L0 
C:\Users\stapi\AppData\Local\Temp\ccnwKQy3.s:405    .text.sys_timeout:000000000000003e .L0 
C:\Users\stapi\AppData\Local\Temp\ccnwKQy3.s:406    .text.sys_timeout:000000000000003e .L0 
C:\Users\stapi\AppData\Local\Temp\ccnwKQy3.s:407    .text.sys_timeout:000000000000003e .L0 
C:\Users\stapi\AppData\Local\Temp\ccnwKQy3.s:408    .text.sys_timeout:000000000000003e .L0 
C:\Users\stapi\AppData\Local\Temp\ccnwKQy3.s:411    .text.sys_timeout:0000000000000046 .L0 
C:\Users\stapi\AppData\Local\Temp\ccnwKQy3.s:420    .text.sys_timeout:0000000000000054 .L0 
C:\Users\stapi\AppData\Local\Temp\ccnwKQy3.s:421    .text.sys_timeout:0000000000000056 .L0 
C:\Users\stapi\AppData\Local\Temp\ccnwKQy3.s:424    .text.sys_timeout:000000000000005e .L0 
C:\Users\stapi\AppData\Local\Temp\ccnwKQy3.s:425    .text.sys_timeout:000000000000005e .L0 
C:\Users\stapi\AppData\Local\Temp\ccnwKQy3.s:426    .text.sys_timeout:000000000000005e .L0 
C:\Users\stapi\AppData\Local\Temp\ccnwKQy3.s:427    .text.sys_timeout:000000000000005e .L0 
C:\Users\stapi\AppData\Local\Temp\ccnwKQy3.s:434    .text.sys_timeouts_init:0000000000000000 sys_timeouts_init
C:\Users\stapi\AppData\Local\Temp\ccnwKQy3.s:437    .text.sys_timeouts_init:0000000000000000 .L0 
C:\Users\stapi\AppData\Local\Temp\ccnwKQy3.s:438    .text.sys_timeouts_init:0000000000000000 .L0 
C:\Users\stapi\AppData\Local\Temp\ccnwKQy3.s:439    .text.sys_timeouts_init:0000000000000008 .L0 
C:\Users\stapi\AppData\Local\Temp\ccnwKQy3.s:440    .text.sys_timeouts_init:0000000000000008 .L0 
C:\Users\stapi\AppData\Local\Temp\ccnwKQy3.s:441    .text.sys_timeouts_init:0000000000000008 .L0 
C:\Users\stapi\AppData\Local\Temp\ccnwKQy3.s:442    .text.sys_timeouts_init:0000000000000008 .L0 
C:\Users\stapi\AppData\Local\Temp\ccnwKQy3.s:443    .text.sys_timeouts_init:0000000000000008 .L0 
C:\Users\stapi\AppData\Local\Temp\ccnwKQy3.s:445    .text.sys_timeouts_init:0000000000000008 .L0 
C:\Users\stapi\AppData\Local\Temp\ccnwKQy3.s:447    .text.sys_timeouts_init:0000000000000008 .L0 
C:\Users\stapi\AppData\Local\Temp\ccnwKQy3.s:448    .text.sys_timeouts_init:0000000000000008 .L0 
C:\Users\stapi\AppData\Local\Temp\ccnwKQy3.s:453    .text.sys_timeouts_init:0000000000000018 .L0 
C:\Users\stapi\AppData\Local\Temp\ccnwKQy3.s:457    .text.sys_timeouts_init:000000000000001c .L0 
C:\Users\stapi\AppData\Local\Temp\ccnwKQy3.s:461    .text.sys_timeouts_init:0000000000000024 .L0 
C:\Users\stapi\AppData\Local\Temp\ccnwKQy3.s:463    .text.sys_timeouts_init:0000000000000026 .L0 
C:\Users\stapi\AppData\Local\Temp\ccnwKQy3.s:466    .text.sys_timeouts_init:000000000000002e .L0 
C:\Users\stapi\AppData\Local\Temp\ccnwKQy3.s:467    .text.sys_timeouts_init:000000000000002e .L0 
C:\Users\stapi\AppData\Local\Temp\ccnwKQy3.s:468    .text.sys_timeouts_init:000000000000002e .L0 
C:\Users\stapi\AppData\Local\Temp\ccnwKQy3.s:470    .text.sys_timeouts_init:0000000000000032 .L0 
C:\Users\stapi\AppData\Local\Temp\ccnwKQy3.s:471    .text.sys_timeouts_init:000000000000003a .L0 
C:\Users\stapi\AppData\Local\Temp\ccnwKQy3.s:472    .text.sys_timeouts_init:000000000000003a .L0 
C:\Users\stapi\AppData\Local\Temp\ccnwKQy3.s:473    .text.sys_timeouts_init:000000000000003a .L0 
C:\Users\stapi\AppData\Local\Temp\ccnwKQy3.s:474    .text.sys_timeouts_init:000000000000003a .L0 
C:\Users\stapi\AppData\Local\Temp\ccnwKQy3.s:475    .text.sys_timeouts_init:000000000000003a .L0 
C:\Users\stapi\AppData\Local\Temp\ccnwKQy3.s:476    .text.sys_timeouts_init:000000000000003a .L0 
C:\Users\stapi\AppData\Local\Temp\ccnwKQy3.s:483    .text.sys_untimeout:0000000000000000 sys_untimeout
C:\Users\stapi\AppData\Local\Temp\ccnwKQy3.s:486    .text.sys_untimeout:0000000000000000 .L0 
C:\Users\stapi\AppData\Local\Temp\ccnwKQy3.s:488    .text.sys_untimeout:0000000000000000 .L0 
C:\Users\stapi\AppData\Local\Temp\ccnwKQy3.s:489    .text.sys_untimeout:0000000000000000 .L0 
C:\Users\stapi\AppData\Local\Temp\ccnwKQy3.s:490    .text.sys_untimeout:0000000000000000 .L0 
C:\Users\stapi\AppData\Local\Temp\ccnwKQy3.s:491    .text.sys_untimeout:0000000000000000 .L0 
C:\Users\stapi\AppData\Local\Temp\ccnwKQy3.s:492    .text.sys_untimeout:0000000000000000 .L0 
C:\Users\stapi\AppData\Local\Temp\ccnwKQy3.s:494    .text.sys_untimeout:0000000000000004 .L0 
C:\Users\stapi\AppData\Local\Temp\ccnwKQy3.s:496    .text.sys_untimeout:0000000000000006 .L0 
C:\Users\stapi\AppData\Local\Temp\ccnwKQy3.s:499    .text.sys_untimeout:000000000000000a .L0 
C:\Users\stapi\AppData\Local\Temp\ccnwKQy3.s:502    .text.sys_untimeout:0000000000000010 .L0 
C:\Users\stapi\AppData\Local\Temp\ccnwKQy3.s:506    .text.sys_untimeout:0000000000000012 .L0 
C:\Users\stapi\AppData\Local\Temp\ccnwKQy3.s:507    .text.sys_untimeout:0000000000000012 .L0 
C:\Users\stapi\AppData\Local\Temp\ccnwKQy3.s:511    .text.sys_untimeout:000000000000001c .L0 
C:\Users\stapi\AppData\Local\Temp\ccnwKQy3.s:514    .text.sys_untimeout:0000000000000024 .L0 
C:\Users\stapi\AppData\Local\Temp\ccnwKQy3.s:515    .text.sys_untimeout:0000000000000024 .L0 
C:\Users\stapi\AppData\Local\Temp\ccnwKQy3.s:517    .text.sys_untimeout:0000000000000026 .L0 
C:\Users\stapi\AppData\Local\Temp\ccnwKQy3.s:518    .text.sys_untimeout:0000000000000026 .L0 
C:\Users\stapi\AppData\Local\Temp\ccnwKQy3.s:521    .text.sys_untimeout:0000000000000028 .L0 
C:\Users\stapi\AppData\Local\Temp\ccnwKQy3.s:527    .text.sys_untimeout:0000000000000032 .L0 
C:\Users\stapi\AppData\Local\Temp\ccnwKQy3.s:533    .text.sys_untimeout:0000000000000036 .L0 
C:\Users\stapi\AppData\Local\Temp\ccnwKQy3.s:534    .text.sys_untimeout:0000000000000036 .L0 
C:\Users\stapi\AppData\Local\Temp\ccnwKQy3.s:539    .text.sys_untimeout:000000000000003a .L0 
C:\Users\stapi\AppData\Local\Temp\ccnwKQy3.s:540    .text.sys_untimeout:000000000000003a .L0 
C:\Users\stapi\AppData\Local\Temp\ccnwKQy3.s:542    .text.sys_untimeout:000000000000003c .L0 
C:\Users\stapi\AppData\Local\Temp\ccnwKQy3.s:547    .text.sys_untimeout:0000000000000042 .L0 
C:\Users\stapi\AppData\Local\Temp\ccnwKQy3.s:554    .text.sys_check_timeouts:0000000000000000 sys_check_timeouts
C:\Users\stapi\AppData\Local\Temp\ccnwKQy3.s:557    .text.sys_check_timeouts:0000000000000000 .L0 
C:\Users\stapi\AppData\Local\Temp\ccnwKQy3.s:558    .text.sys_check_timeouts:0000000000000000 .L0 
C:\Users\stapi\AppData\Local\Temp\ccnwKQy3.s:559    .text.sys_check_timeouts:0000000000000008 .L0 
C:\Users\stapi\AppData\Local\Temp\ccnwKQy3.s:560    .text.sys_check_timeouts:0000000000000008 .L0 
C:\Users\stapi\AppData\Local\Temp\ccnwKQy3.s:561    .text.sys_check_timeouts:0000000000000008 .L0 
C:\Users\stapi\AppData\Local\Temp\ccnwKQy3.s:562    .text.sys_check_timeouts:0000000000000008 .L0 
C:\Users\stapi\AppData\Local\Temp\ccnwKQy3.s:563    .text.sys_check_timeouts:0000000000000008 .L0 
C:\Users\stapi\AppData\Local\Temp\ccnwKQy3.s:564    .text.sys_check_timeouts:0000000000000008 .L0 
C:\Users\stapi\AppData\Local\Temp\ccnwKQy3.s:565    .text.sys_check_timeouts:0000000000000008 .L0 
C:\Users\stapi\AppData\Local\Temp\ccnwKQy3.s:567    .text.sys_check_timeouts:0000000000000008 .L0 
C:\Users\stapi\AppData\Local\Temp\ccnwKQy3.s:568    .text.sys_check_timeouts:0000000000000008 .L0 
C:\Users\stapi\AppData\Local\Temp\ccnwKQy3.s:569    .text.sys_check_timeouts:0000000000000008 .L0 
C:\Users\stapi\AppData\Local\Temp\ccnwKQy3.s:570    .text.sys_check_timeouts:0000000000000008 .L0 
C:\Users\stapi\AppData\Local\Temp\ccnwKQy3.s:576    .text.sys_check_timeouts:0000000000000012 .L0 
C:\Users\stapi\AppData\Local\Temp\ccnwKQy3.s:578    .text.sys_check_timeouts:0000000000000016 .L0 
C:\Users\stapi\AppData\Local\Temp\ccnwKQy3.s:583    .text.sys_check_timeouts:000000000000001a .L0 
C:\Users\stapi\AppData\Local\Temp\ccnwKQy3.s:584    .text.sys_check_timeouts:000000000000001a .L0 
C:\Users\stapi\AppData\Local\Temp\ccnwKQy3.s:585    .text.sys_check_timeouts:000000000000001a .L0 
C:\Users\stapi\AppData\Local\Temp\ccnwKQy3.s:586    .text.sys_check_timeouts:000000000000001a .L0 
C:\Users\stapi\AppData\Local\Temp\ccnwKQy3.s:587    .text.sys_check_timeouts:000000000000001a .L0 
C:\Users\stapi\AppData\Local\Temp\ccnwKQy3.s:588    .text.sys_check_timeouts:000000000000001a .L0 
C:\Users\stapi\AppData\Local\Temp\ccnwKQy3.s:589    .text.sys_check_timeouts:000000000000001a .L0 
C:\Users\stapi\AppData\Local\Temp\ccnwKQy3.s:593    .text.sys_check_timeouts:0000000000000020 .L0 
C:\Users\stapi\AppData\Local\Temp\ccnwKQy3.s:594    .text.sys_check_timeouts:0000000000000020 .L0 
C:\Users\stapi\AppData\Local\Temp\ccnwKQy3.s:596    .text.sys_check_timeouts:0000000000000022 .L0 
C:\Users\stapi\AppData\Local\Temp\ccnwKQy3.s:597    .text.sys_check_timeouts:0000000000000022 .L0 
C:\Users\stapi\AppData\Local\Temp\ccnwKQy3.s:600    .text.sys_check_timeouts:0000000000000028 .L0 
C:\Users\stapi\AppData\Local\Temp\ccnwKQy3.s:602    .text.sys_check_timeouts:000000000000002c .L0 
C:\Users\stapi\AppData\Local\Temp\ccnwKQy3.s:603    .text.sys_check_timeouts:000000000000002c .L0 
C:\Users\stapi\AppData\Local\Temp\ccnwKQy3.s:605    .text.sys_check_timeouts:000000000000002e .L0 
C:\Users\stapi\AppData\Local\Temp\ccnwKQy3.s:607    .text.sys_check_timeouts:0000000000000030 .L0 
C:\Users\stapi\AppData\Local\Temp\ccnwKQy3.s:609    .text.sys_check_timeouts:0000000000000032 .L0 
C:\Users\stapi\AppData\Local\Temp\ccnwKQy3.s:611    .text.sys_check_timeouts:0000000000000036 .L0 
C:\Users\stapi\AppData\Local\Temp\ccnwKQy3.s:614    .text.sys_check_timeouts:0000000000000038 .L0 
C:\Users\stapi\AppData\Local\Temp\ccnwKQy3.s:615    .text.sys_check_timeouts:0000000000000038 .L0 
C:\Users\stapi\AppData\Local\Temp\ccnwKQy3.s:616    .text.sys_check_timeouts:0000000000000038 .L0 
C:\Users\stapi\AppData\Local\Temp\ccnwKQy3.s:617    .text.sys_check_timeouts:0000000000000038 .L0 
C:\Users\stapi\AppData\Local\Temp\ccnwKQy3.s:619    .text.sys_check_timeouts:000000000000003c .L0 
C:\Users\stapi\AppData\Local\Temp\ccnwKQy3.s:622    .text.sys_check_timeouts:0000000000000044 .L0 
C:\Users\stapi\AppData\Local\Temp\ccnwKQy3.s:623    .text.sys_check_timeouts:0000000000000044 .L0 
C:\Users\stapi\AppData\Local\Temp\ccnwKQy3.s:625    .text.sys_check_timeouts:0000000000000046 .L0 
C:\Users\stapi\AppData\Local\Temp\ccnwKQy3.s:633    .text.sys_check_timeouts:000000000000004c .L0 
C:\Users\stapi\AppData\Local\Temp\ccnwKQy3.s:634    .text.sys_check_timeouts:0000000000000054 .L0 
C:\Users\stapi\AppData\Local\Temp\ccnwKQy3.s:635    .text.sys_check_timeouts:0000000000000054 .L0 
C:\Users\stapi\AppData\Local\Temp\ccnwKQy3.s:636    .text.sys_check_timeouts:0000000000000054 .L0 
C:\Users\stapi\AppData\Local\Temp\ccnwKQy3.s:637    .text.sys_check_timeouts:0000000000000054 .L0 
C:\Users\stapi\AppData\Local\Temp\ccnwKQy3.s:638    .text.sys_check_timeouts:0000000000000054 .L0 
C:\Users\stapi\AppData\Local\Temp\ccnwKQy3.s:639    .text.sys_check_timeouts:0000000000000054 .L0 
C:\Users\stapi\AppData\Local\Temp\ccnwKQy3.s:640    .text.sys_check_timeouts:0000000000000054 .L0 
C:\Users\stapi\AppData\Local\Temp\ccnwKQy3.s:641    .text.sys_check_timeouts:0000000000000054 .L0 
C:\Users\stapi\AppData\Local\Temp\ccnwKQy3.s:648    .text.sys_restart_timeouts:0000000000000000 sys_restart_timeouts
C:\Users\stapi\AppData\Local\Temp\ccnwKQy3.s:651    .text.sys_restart_timeouts:0000000000000000 .L0 
C:\Users\stapi\AppData\Local\Temp\ccnwKQy3.s:652    .text.sys_restart_timeouts:0000000000000000 .L0 
C:\Users\stapi\AppData\Local\Temp\ccnwKQy3.s:653    .text.sys_restart_timeouts:0000000000000008 .L0 
C:\Users\stapi\AppData\Local\Temp\ccnwKQy3.s:654    .text.sys_restart_timeouts:0000000000000008 .L0 
C:\Users\stapi\AppData\Local\Temp\ccnwKQy3.s:655    .text.sys_restart_timeouts:0000000000000008 .L0 
C:\Users\stapi\AppData\Local\Temp\ccnwKQy3.s:657    .text.sys_restart_timeouts:0000000000000008 .L0 
C:\Users\stapi\AppData\Local\Temp\ccnwKQy3.s:658    .text.sys_restart_timeouts:0000000000000008 .L0 
C:\Users\stapi\AppData\Local\Temp\ccnwKQy3.s:659    .text.sys_restart_timeouts:0000000000000008 .L0 
C:\Users\stapi\AppData\Local\Temp\ccnwKQy3.s:660    .text.sys_restart_timeouts:0000000000000008 .L0 
C:\Users\stapi\AppData\Local\Temp\ccnwKQy3.s:661    .text.sys_restart_timeouts:0000000000000008 .L0 
C:\Users\stapi\AppData\Local\Temp\ccnwKQy3.s:664    .text.sys_restart_timeouts:0000000000000010 .L0 
C:\Users\stapi\AppData\Local\Temp\ccnwKQy3.s:667    .text.sys_restart_timeouts:0000000000000014 .L0 
C:\Users\stapi\AppData\Local\Temp\ccnwKQy3.s:668    .text.sys_restart_timeouts:0000000000000014 .L0 
C:\Users\stapi\AppData\Local\Temp\ccnwKQy3.s:671    .text.sys_restart_timeouts:000000000000001c .L0 
C:\Users\stapi\AppData\Local\Temp\ccnwKQy3.s:672    .text.sys_restart_timeouts:000000000000001c .L0 
C:\Users\stapi\AppData\Local\Temp\ccnwKQy3.s:674    .text.sys_restart_timeouts:000000000000001e .L0 
C:\Users\stapi\AppData\Local\Temp\ccnwKQy3.s:677    .text.sys_restart_timeouts:0000000000000020 .L0 
C:\Users\stapi\AppData\Local\Temp\ccnwKQy3.s:678    .text.sys_restart_timeouts:0000000000000020 .L0 
C:\Users\stapi\AppData\Local\Temp\ccnwKQy3.s:679    .text.sys_restart_timeouts:0000000000000020 .L0 
C:\Users\stapi\AppData\Local\Temp\ccnwKQy3.s:683    .text.sys_restart_timeouts:0000000000000022 .L0 
C:\Users\stapi\AppData\Local\Temp\ccnwKQy3.s:684    .text.sys_restart_timeouts:0000000000000022 .L0 
C:\Users\stapi\AppData\Local\Temp\ccnwKQy3.s:687    .text.sys_restart_timeouts:0000000000000026 .L0 
C:\Users\stapi\AppData\Local\Temp\ccnwKQy3.s:689    .text.sys_restart_timeouts:0000000000000028 .L0 
C:\Users\stapi\AppData\Local\Temp\ccnwKQy3.s:690    .text.sys_restart_timeouts:0000000000000028 .L0 
C:\Users\stapi\AppData\Local\Temp\ccnwKQy3.s:693    .text.sys_restart_timeouts:000000000000002a .L0 
C:\Users\stapi\AppData\Local\Temp\ccnwKQy3.s:694    .text.sys_restart_timeouts:000000000000002a .L0 
C:\Users\stapi\AppData\Local\Temp\ccnwKQy3.s:698    .text.sys_restart_timeouts:000000000000002c .L0 
C:\Users\stapi\AppData\Local\Temp\ccnwKQy3.s:699    .text.sys_restart_timeouts:0000000000000034 .L0 
C:\Users\stapi\AppData\Local\Temp\ccnwKQy3.s:700    .text.sys_restart_timeouts:0000000000000034 .L0 
C:\Users\stapi\AppData\Local\Temp\ccnwKQy3.s:701    .text.sys_restart_timeouts:0000000000000034 .L0 
C:\Users\stapi\AppData\Local\Temp\ccnwKQy3.s:702    .text.sys_restart_timeouts:0000000000000034 .L0 
C:\Users\stapi\AppData\Local\Temp\ccnwKQy3.s:709    .text.sys_timeouts_sleeptime:0000000000000000 sys_timeouts_sleeptime
C:\Users\stapi\AppData\Local\Temp\ccnwKQy3.s:712    .text.sys_timeouts_sleeptime:0000000000000000 .L0 
C:\Users\stapi\AppData\Local\Temp\ccnwKQy3.s:713    .text.sys_timeouts_sleeptime:0000000000000000 .L0 
C:\Users\stapi\AppData\Local\Temp\ccnwKQy3.s:714    .text.sys_timeouts_sleeptime:0000000000000008 .L0 
C:\Users\stapi\AppData\Local\Temp\ccnwKQy3.s:715    .text.sys_timeouts_sleeptime:0000000000000008 .L0 
C:\Users\stapi\AppData\Local\Temp\ccnwKQy3.s:716    .text.sys_timeouts_sleeptime:0000000000000008 .L0 
C:\Users\stapi\AppData\Local\Temp\ccnwKQy3.s:718    .text.sys_timeouts_sleeptime:0000000000000008 .L0 
C:\Users\stapi\AppData\Local\Temp\ccnwKQy3.s:719    .text.sys_timeouts_sleeptime:0000000000000008 .L0 
C:\Users\stapi\AppData\Local\Temp\ccnwKQy3.s:720    .text.sys_timeouts_sleeptime:0000000000000008 .L0 
C:\Users\stapi\AppData\Local\Temp\ccnwKQy3.s:721    .text.sys_timeouts_sleeptime:0000000000000008 .L0 
C:\Users\stapi\AppData\Local\Temp\ccnwKQy3.s:724    .text.sys_timeouts_sleeptime:0000000000000010 .L0 
C:\Users\stapi\AppData\Local\Temp\ccnwKQy3.s:728    .text.sys_timeouts_sleeptime:0000000000000016 .L0 
C:\Users\stapi\AppData\Local\Temp\ccnwKQy3.s:729    .text.sys_timeouts_sleeptime:0000000000000016 .L0 
C:\Users\stapi\AppData\Local\Temp\ccnwKQy3.s:732    .text.sys_timeouts_sleeptime:000000000000001e .L0 
C:\Users\stapi\AppData\Local\Temp\ccnwKQy3.s:733    .text.sys_timeouts_sleeptime:000000000000001e .L0 
C:\Users\stapi\AppData\Local\Temp\ccnwKQy3.s:738    .text.sys_timeouts_sleeptime:0000000000000026 .L0 
C:\Users\stapi\AppData\Local\Temp\ccnwKQy3.s:742    .text.sys_timeouts_sleeptime:000000000000002c .L0 
C:\Users\stapi\AppData\Local\Temp\ccnwKQy3.s:743    .text.sys_timeouts_sleeptime:0000000000000034 .L0 
C:\Users\stapi\AppData\Local\Temp\ccnwKQy3.s:744    .text.sys_timeouts_sleeptime:0000000000000034 .L0 
C:\Users\stapi\AppData\Local\Temp\ccnwKQy3.s:745    .text.sys_timeouts_sleeptime:0000000000000034 .L0 
C:\Users\stapi\AppData\Local\Temp\ccnwKQy3.s:746    .text.sys_timeouts_sleeptime:0000000000000034 .L0 
C:\Users\stapi\AppData\Local\Temp\ccnwKQy3.s:796    .srodata.lwip_num_cyclic_timers:0000000000000000 lwip_num_cyclic_timers
C:\Users\stapi\AppData\Local\Temp\ccnwKQy3.s:756    .rodata.lwip_cyclic_timers:0000000000000000 lwip_cyclic_timers
C:\Users\stapi\AppData\Local\Temp\ccnwKQy3.s:753    .rodata.lwip_cyclic_timers:0000000000000000 .LANCHOR3
C:\Users\stapi\AppData\Local\Temp\ccnwKQy3.s:773    .sbss.current_timeout_due_time:0000000000000000 .LANCHOR1
C:\Users\stapi\AppData\Local\Temp\ccnwKQy3.s:776    .sbss.current_timeout_due_time:0000000000000000 current_timeout_due_time
C:\Users\stapi\AppData\Local\Temp\ccnwKQy3.s:780    .sbss.next_timeout:0000000000000000 .LANCHOR0
C:\Users\stapi\AppData\Local\Temp\ccnwKQy3.s:783    .sbss.next_timeout:0000000000000000 next_timeout
C:\Users\stapi\AppData\Local\Temp\ccnwKQy3.s:787    .sbss.tcpip_tcp_timer_active:0000000000000000 .LANCHOR2
C:\Users\stapi\AppData\Local\Temp\ccnwKQy3.s:790    .sbss.tcpip_tcp_timer_active:0000000000000000 tcpip_tcp_timer_active
C:\Users\stapi\AppData\Local\Temp\ccnwKQy3.s:141    .text.sys_timeout_abs:0000000000000086 .L0 
C:\Users\stapi\AppData\Local\Temp\ccnwKQy3.s:208    .text.lwip_cyclic_timer:0000000000000050 .L0 
C:\Users\stapi\AppData\Local\Temp\ccnwKQy3.s:279    .text.tcpip_tcp_timer:0000000000000054 .L0 
C:\Users\stapi\AppData\Local\Temp\ccnwKQy3.s:350    .text.tcp_timer_needed:0000000000000056 .L0 
C:\Users\stapi\AppData\Local\Temp\ccnwKQy3.s:430    .text.sys_timeout:000000000000005e .L0 
C:\Users\stapi\AppData\Local\Temp\ccnwKQy3.s:479    .text.sys_timeouts_init:000000000000003a .L0 
C:\Users\stapi\AppData\Local\Temp\ccnwKQy3.s:550    .text.sys_untimeout:0000000000000042 .L0 
C:\Users\stapi\AppData\Local\Temp\ccnwKQy3.s:644    .text.sys_check_timeouts:0000000000000054 .L0 
C:\Users\stapi\AppData\Local\Temp\ccnwKQy3.s:705    .text.sys_restart_timeouts:0000000000000034 .L0 
C:\Users\stapi\AppData\Local\Temp\ccnwKQy3.s:751    .text.sys_timeouts_sleeptime:0000000000000034 .L0 
                     .debug_frame:0000000000000000 .L0 
C:\Users\stapi\AppData\Local\Temp\ccnwKQy3.s:11     .rodata.sys_timeout_abs.str1.4:0000000000000000 .LC0
C:\Users\stapi\AppData\Local\Temp\ccnwKQy3.s:14     .rodata.sys_timeout_abs.str1.4:0000000000000084 .LC1
C:\Users\stapi\AppData\Local\Temp\ccnwKQy3.s:17     .rodata.sys_timeout_abs.str1.4:00000000000000c4 .LC2
C:\Users\stapi\AppData\Local\Temp\ccnwKQy3.s:70     .text.sys_timeout_abs:0000000000000040 .L2
C:\Users\stapi\AppData\Local\Temp\ccnwKQy3.s:64     .text.sys_timeout_abs:000000000000003e .L3
C:\Users\stapi\AppData\Local\Temp\ccnwKQy3.s:103    .text.sys_timeout_abs:0000000000000062 .L4
C:\Users\stapi\AppData\Local\Temp\ccnwKQy3.s:115    .text.sys_timeout_abs:0000000000000070 .L6
C:\Users\stapi\AppData\Local\Temp\ccnwKQy3.s:90     .text.sys_timeout_abs:0000000000000058 .L16
C:\Users\stapi\AppData\Local\Temp\ccnwKQy3.s:129    .text.sys_timeout_abs:0000000000000080 .L7
C:\Users\stapi\AppData\Local\Temp\ccnwKQy3.s:94     .text.sys_timeout_abs:000000000000005a .L1
C:\Users\stapi\AppData\Local\Temp\ccnwKQy3.s:194    .text.lwip_cyclic_timer:000000000000003e .L18
C:\Users\stapi\AppData\Local\Temp\ccnwKQy3.s:233    .text.tcpip_tcp_timer:0000000000000024 .L22
C:\Users\stapi\AppData\Local\Temp\ccnwKQy3.s:268    .text.tcpip_tcp_timer:000000000000004a .L23
C:\Users\stapi\AppData\Local\Temp\ccnwKQy3.s:258    .text.tcpip_tcp_timer:0000000000000042 .L21
C:\Users\stapi\AppData\Local\Temp\ccnwKQy3.s:345    .text.tcp_timer_needed:0000000000000054 .L33
C:\Users\stapi\AppData\Local\Temp\ccnwKQy3.s:304    .text.tcp_timer_needed:0000000000000022 .L28
C:\Users\stapi\AppData\Local\Temp\ccnwKQy3.s:352    .rodata.sys_timeout.str1.4:0000000000000000 .LC3
C:\Users\stapi\AppData\Local\Temp\ccnwKQy3.s:397    .text.sys_timeout:0000000000000038 .L36
C:\Users\stapi\AppData\Local\Temp\ccnwKQy3.s:391    .text.sys_timeout:0000000000000036 .L37
C:\Users\stapi\AppData\Local\Temp\ccnwKQy3.s:455    .text.sys_timeouts_init:000000000000001c .L40
C:\Users\stapi\AppData\Local\Temp\ccnwKQy3.s:545    .text.sys_untimeout:0000000000000040 .L54
C:\Users\stapi\AppData\Local\Temp\ccnwKQy3.s:536    .text.sys_untimeout:000000000000003a .L45
C:\Users\stapi\AppData\Local\Temp\ccnwKQy3.s:531    .text.sys_untimeout:0000000000000036 .L46
C:\Users\stapi\AppData\Local\Temp\ccnwKQy3.s:503    .text.sys_untimeout:0000000000000012 .L48
C:\Users\stapi\AppData\Local\Temp\ccnwKQy3.s:519    .text.sys_untimeout:0000000000000028 .L47
C:\Users\stapi\AppData\Local\Temp\ccnwKQy3.s:526    .text.sys_untimeout:0000000000000032 .L49
C:\Users\stapi\AppData\Local\Temp\ccnwKQy3.s:630    .text.sys_check_timeouts:000000000000004c .L57
C:\Users\stapi\AppData\Local\Temp\ccnwKQy3.s:579    .text.sys_check_timeouts:000000000000001a .L59
C:\Users\stapi\AppData\Local\Temp\ccnwKQy3.s:696    .text.sys_restart_timeouts:000000000000002c .L67
C:\Users\stapi\AppData\Local\Temp\ccnwKQy3.s:681    .text.sys_restart_timeouts:0000000000000022 .L69
C:\Users\stapi\AppData\Local\Temp\ccnwKQy3.s:740    .text.sys_timeouts_sleeptime:000000000000002c .L75
C:\Users\stapi\AppData\Local\Temp\ccnwKQy3.s:2814   .debug_abbrev:0000000000000000 .Ldebug_abbrev0
C:\Users\stapi\AppData\Local\Temp\ccnwKQy3.s:4660   .debug_str:0000000000000904 .LASF183
C:\Users\stapi\AppData\Local\Temp\ccnwKQy3.s:4612   .debug_str:000000000000076e .LASF184
C:\Users\stapi\AppData\Local\Temp\ccnwKQy3.s:4466   .debug_str:000000000000038d .LASF185
C:\Users\stapi\AppData\Local\Temp\ccnwKQy3.s:4268   .debug_ranges:0000000000000000 .Ldebug_ranges0
C:\Users\stapi\AppData\Local\Temp\ccnwKQy3.s:4298   .debug_line:0000000000000000 .Ldebug_line0
C:\Users\stapi\AppData\Local\Temp\ccnwKQy3.s:4512   .debug_str:0000000000000526 .LASF0
C:\Users\stapi\AppData\Local\Temp\ccnwKQy3.s:4644   .debug_str:00000000000008a9 .LASF2
C:\Users\stapi\AppData\Local\Temp\ccnwKQy3.s:4572   .debug_str:000000000000066f .LASF1
C:\Users\stapi\AppData\Local\Temp\ccnwKQy3.s:4606   .debug_str:000000000000074a .LASF3
C:\Users\stapi\AppData\Local\Temp\ccnwKQy3.s:4496   .debug_str:00000000000004b6 .LASF4
C:\Users\stapi\AppData\Local\Temp\ccnwKQy3.s:4542   .debug_str:00000000000005c5 .LASF5
C:\Users\stapi\AppData\Local\Temp\ccnwKQy3.s:4382   .debug_str:00000000000001e8 .LASF6
C:\Users\stapi\AppData\Local\Temp\ccnwKQy3.s:4650   .debug_str:00000000000008c5 .LASF7
C:\Users\stapi\AppData\Local\Temp\ccnwKQy3.s:4546   .debug_str:00000000000005da .LASF8
C:\Users\stapi\AppData\Local\Temp\ccnwKQy3.s:4608   .debug_str:0000000000000758 .LASF9
C:\Users\stapi\AppData\Local\Temp\ccnwKQy3.s:4590   .debug_str:00000000000006e5 .LASF10
C:\Users\stapi\AppData\Local\Temp\ccnwKQy3.s:4482   .debug_str:000000000000046a .LASF11
C:\Users\stapi\AppData\Local\Temp\ccnwKQy3.s:4380   .debug_str:00000000000001d1 .LASF12
C:\Users\stapi\AppData\Local\Temp\ccnwKQy3.s:4324   .debug_str:0000000000000095 .LASF13
C:\Users\stapi\AppData\Local\Temp\ccnwKQy3.s:4358   .debug_str:0000000000000163 .LASF14
C:\Users\stapi\AppData\Local\Temp\ccnwKQy3.s:4458   .debug_str:000000000000036d .LASF15
C:\Users\stapi\AppData\Local\Temp\ccnwKQy3.s:4376   .debug_str:00000000000001c1 .LASF16
C:\Users\stapi\AppData\Local\Temp\ccnwKQy3.s:4520   .debug_str:0000000000000568 .LASF17
C:\Users\stapi\AppData\Local\Temp\ccnwKQy3.s:4356   .debug_str:000000000000015a .LASF18
C:\Users\stapi\AppData\Local\Temp\ccnwKQy3.s:4410   .debug_str:000000000000029a .LASF19
C:\Users\stapi\AppData\Local\Temp\ccnwKQy3.s:4448   .debug_str:000000000000033d .LASF20
C:\Users\stapi\AppData\Local\Temp\ccnwKQy3.s:4444   .debug_str:000000000000032c .LASF21
C:\Users\stapi\AppData\Local\Temp\ccnwKQy3.s:4494   .debug_str:00000000000004b1 .LASF22
C:\Users\stapi\AppData\Local\Temp\ccnwKQy3.s:4426   .debug_str:00000000000002db .LASF23
C:\Users\stapi\AppData\Local\Temp\ccnwKQy3.s:4336   .debug_str:00000000000000dc .LASF24
C:\Users\stapi\AppData\Local\Temp\ccnwKQy3.s:4596   .debug_str:0000000000000708 .LASF25
C:\Users\stapi\AppData\Local\Temp\ccnwKQy3.s:4540   .debug_str:00000000000005bf .LASF26
C:\Users\stapi\AppData\Local\Temp\ccnwKQy3.s:4332   .debug_str:00000000000000bf .LASF27
C:\Users\stapi\AppData\Local\Temp\ccnwKQy3.s:4554   .debug_str:0000000000000605 .LASF28
C:\Users\stapi\AppData\Local\Temp\ccnwKQy3.s:4344   .debug_str:000000000000010b .LASF34
C:\Users\stapi\AppData\Local\Temp\ccnwKQy3.s:4352   .debug_str:0000000000000148 .LASF29
C:\Users\stapi\AppData\Local\Temp\ccnwKQy3.s:4338   .debug_str:00000000000000e2 .LASF30
C:\Users\stapi\AppData\Local\Temp\ccnwKQy3.s:4390   .debug_str:0000000000000208 .LASF31
C:\Users\stapi\AppData\Local\Temp\ccnwKQy3.s:4470   .debug_str:0000000000000416 .LASF32
C:\Users\stapi\AppData\Local\Temp\ccnwKQy3.s:4588   .debug_str:00000000000006d1 .LASF33
C:\Users\stapi\AppData\Local\Temp\ccnwKQy3.s:4558   .debug_str:0000000000000626 .LASF35
C:\Users\stapi\AppData\Local\Temp\ccnwKQy3.s:4328   .debug_str:00000000000000ac .LASF36
C:\Users\stapi\AppData\Local\Temp\ccnwKQy3.s:4388   .debug_str:0000000000000203 .LASF37
C:\Users\stapi\AppData\Local\Temp\ccnwKQy3.s:4602   .debug_str:0000000000000734 .LASF38
C:\Users\stapi\AppData\Local\Temp\ccnwKQy3.s:4384   .debug_str:00000000000001f3 .LASF78
C:\Users\stapi\AppData\Local\Temp\ccnwKQy3.s:4538   .debug_str:00000000000005b8 .LASF39
C:\Users\stapi\AppData\Local\Temp\ccnwKQy3.s:4622   .debug_str:000000000000081e .LASF40
C:\Users\stapi\AppData\Local\Temp\ccnwKQy3.s:4616   .debug_str:00000000000007fe .LASF41
C:\Users\stapi\AppData\Local\Temp\ccnwKQy3.s:4672   .debug_str:0000000000000a20 .LASF42
C:\Users\stapi\AppData\Local\Temp\ccnwKQy3.s:4574   .debug_str:0000000000000679 .LASF43
C:\Users\stapi\AppData\Local\Temp\ccnwKQy3.s:4400   .debug_str:000000000000024a .LASF44
C:\Users\stapi\AppData\Local\Temp\ccnwKQy3.s:4610   .debug_str:0000000000000763 .LASF45
C:\Users\stapi\AppData\Local\Temp\ccnwKQy3.s:4450   .debug_str:0000000000000347 .LASF46
C:\Users\stapi\AppData\Local\Temp\ccnwKQy3.s:4420   .debug_str:00000000000002c2 .LASF47
C:\Users\stapi\AppData\Local\Temp\ccnwKQy3.s:4404   .debug_str:000000000000027b .LASF48
C:\Users\stapi\AppData\Local\Temp\ccnwKQy3.s:4322   .debug_str:000000000000008b .LASF49
C:\Users\stapi\AppData\Local\Temp\ccnwKQy3.s:4418   .debug_str:00000000000002bd .LASF50
C:\Users\stapi\AppData\Local\Temp\ccnwKQy3.s:4412   .debug_str:00000000000002a1 .LASF51
C:\Users\stapi\AppData\Local\Temp\ccnwKQy3.s:4408   .debug_str:0000000000000292 .LASF52
C:\Users\stapi\AppData\Local\Temp\ccnwKQy3.s:4406   .debug_str:0000000000000284 .LASF53
C:\Users\stapi\AppData\Local\Temp\ccnwKQy3.s:4320   .debug_str:0000000000000085 .LASF54
C:\Users\stapi\AppData\Local\Temp\ccnwKQy3.s:4530   .debug_str:000000000000059b .LASF55
C:\Users\stapi\AppData\Local\Temp\ccnwKQy3.s:4568   .debug_str:0000000000000661 .LASF56
C:\Users\stapi\AppData\Local\Temp\ccnwKQy3.s:4624   .debug_str:0000000000000825 .LASF57
C:\Users\stapi\AppData\Local\Temp\ccnwKQy3.s:4544   .debug_str:00000000000005cf .LASF58
C:\Users\stapi\AppData\Local\Temp\ccnwKQy3.s:4658   .debug_str:00000000000008fa .LASF59
C:\Users\stapi\AppData\Local\Temp\ccnwKQy3.s:4584   .debug_str:00000000000006b1 .LASF60
C:\Users\stapi\AppData\Local\Temp\ccnwKQy3.s:4562   .debug_str:000000000000063b .LASF61
C:\Users\stapi\AppData\Local\Temp\ccnwKQy3.s:4492   .debug_str:00000000000004a4 .LASF62
C:\Users\stapi\AppData\Local\Temp\ccnwKQy3.s:4304   .debug_str:0000000000000012 .LASF63
C:\Users\stapi\AppData\Local\Temp\ccnwKQy3.s:4614   .debug_str:00000000000007f1 .LASF64
C:\Users\stapi\AppData\Local\Temp\ccnwKQy3.s:4508   .debug_str:0000000000000504 .LASF65
C:\Users\stapi\AppData\Local\Temp\ccnwKQy3.s:4504   .debug_str:00000000000004e9 .LASF66
C:\Users\stapi\AppData\Local\Temp\ccnwKQy3.s:4578   .debug_str:0000000000000691 .LASF67
C:\Users\stapi\AppData\Local\Temp\ccnwKQy3.s:4480   .debug_str:000000000000045e .LASF68
C:\Users\stapi\AppData\Local\Temp\ccnwKQy3.s:4428   .debug_str:00000000000002e0 .LASF69
C:\Users\stapi\AppData\Local\Temp\ccnwKQy3.s:4368   .debug_str:000000000000018d .LASF70
C:\Users\stapi\AppData\Local\Temp\ccnwKQy3.s:4394   .debug_str:0000000000000223 .LASF71
C:\Users\stapi\AppData\Local\Temp\ccnwKQy3.s:4364   .debug_str:0000000000000176 .LASF72
C:\Users\stapi\AppData\Local\Temp\ccnwKQy3.s:4550   .debug_str:00000000000005ec .LASF73
C:\Users\stapi\AppData\Local\Temp\ccnwKQy3.s:4662   .debug_str:00000000000009fd .LASF74
C:\Users\stapi\AppData\Local\Temp\ccnwKQy3.s:4440   .debug_str:000000000000031d .LASF75
C:\Users\stapi\AppData\Local\Temp\ccnwKQy3.s:4346   .debug_str:000000000000011d .LASF76
C:\Users\stapi\AppData\Local\Temp\ccnwKQy3.s:4424   .debug_str:00000000000002d2 .LASF77
C:\Users\stapi\AppData\Local\Temp\ccnwKQy3.s:4402   .debug_str:0000000000000255 .LASF79
C:\Users\stapi\AppData\Local\Temp\ccnwKQy3.s:4642   .debug_str:0000000000000887 .LASF80
C:\Users\stapi\AppData\Local\Temp\ccnwKQy3.s:4314   .debug_str:000000000000004d .LASF81
C:\Users\stapi\AppData\Local\Temp\ccnwKQy3.s:4518   .debug_str:0000000000000547 .LASF82
C:\Users\stapi\AppData\Local\Temp\ccnwKQy3.s:4318   .debug_str:0000000000000077 .LASF83
C:\Users\stapi\AppData\Local\Temp\ccnwKQy3.s:4648   .debug_str:00000000000008bd .LASF84
C:\Users\stapi\AppData\Local\Temp\ccnwKQy3.s:4564   .debug_str:0000000000000648 .LASF85
C:\Users\stapi\AppData\Local\Temp\ccnwKQy3.s:4654   .debug_str:00000000000008e4 .LASF86
C:\Users\stapi\AppData\Local\Temp\ccnwKQy3.s:4326   .debug_str:00000000000000a2 .LASF87
C:\Users\stapi\AppData\Local\Temp\ccnwKQy3.s:4306   .debug_str:0000000000000026 .LASF88
C:\Users\stapi\AppData\Local\Temp\ccnwKQy3.s:4620   .debug_str:0000000000000811 .LASF89
C:\Users\stapi\AppData\Local\Temp\ccnwKQy3.s:4628   .debug_str:000000000000083c .LASF90
C:\Users\stapi\AppData\Local\Temp\ccnwKQy3.s:4436   .debug_str:000000000000030b .LASF91
C:\Users\stapi\AppData\Local\Temp\ccnwKQy3.s:4370   .debug_str:00000000000001a0 .LASF92
C:\Users\stapi\AppData\Local\Temp\ccnwKQy3.s:4500   .debug_str:00000000000004d1 .LASF93
C:\Users\stapi\AppData\Local\Temp\ccnwKQy3.s:4316   .debug_str:000000000000006f .LASF94
C:\Users\stapi\AppData\Local\Temp\ccnwKQy3.s:4438   .debug_str:0000000000000310 .LASF95
C:\Users\stapi\AppData\Local\Temp\ccnwKQy3.s:4560   .debug_str:0000000000000630 .LASF96
C:\Users\stapi\AppData\Local\Temp\ccnwKQy3.s:4392   .debug_str:000000000000021b .LASF97
C:\Users\stapi\AppData\Local\Temp\ccnwKQy3.s:4552   .debug_str:00000000000005fd .LASF98
C:\Users\stapi\AppData\Local\Temp\ccnwKQy3.s:4502   .debug_str:00000000000004dd .LASF99
C:\Users\stapi\AppData\Local\Temp\ccnwKQy3.s:4340   .debug_str:00000000000000ea .LASF100
C:\Users\stapi\AppData\Local\Temp\ccnwKQy3.s:4416   .debug_str:00000000000002b3 .LASF101
C:\Users\stapi\AppData\Local\Temp\ccnwKQy3.s:4386   .debug_str:00000000000001fd .LASF102
C:\Users\stapi\AppData\Local\Temp\ccnwKQy3.s:4556   .debug_str:000000000000061f .LASF103
C:\Users\stapi\AppData\Local\Temp\ccnwKQy3.s:4430   .debug_str:00000000000002ed .LASF104
C:\Users\stapi\AppData\Local\Temp\ccnwKQy3.s:4664   .debug_str:0000000000000a08 .LASF105
C:\Users\stapi\AppData\Local\Temp\ccnwKQy3.s:4434   .debug_str:0000000000000303 .LASF106
C:\Users\stapi\AppData\Local\Temp\ccnwKQy3.s:4422   .debug_str:00000000000002ca .LASF107
C:\Users\stapi\AppData\Local\Temp\ccnwKQy3.s:4360   .debug_str:000000000000016a .LASF108
C:\Users\stapi\AppData\Local\Temp\ccnwKQy3.s:4580   .debug_str:00000000000006a0 .LASF109
C:\Users\stapi\AppData\Local\Temp\ccnwKQy3.s:4604   .debug_str:0000000000000742 .LASF110
C:\Users\stapi\AppData\Local\Temp\ccnwKQy3.s:4646   .debug_str:00000000000008b5 .LASF111
C:\Users\stapi\AppData\Local\Temp\ccnwKQy3.s:4460   .debug_str:0000000000000375 .LASF112
C:\Users\stapi\AppData\Local\Temp\ccnwKQy3.s:4462   .debug_str:000000000000037d .LASF113
C:\Users\stapi\AppData\Local\Temp\ccnwKQy3.s:4474   .debug_str:0000000000000433 .LASF114
C:\Users\stapi\AppData\Local\Temp\ccnwKQy3.s:4528   .debug_str:0000000000000593 .LASF115
C:\Users\stapi\AppData\Local\Temp\ccnwKQy3.s:4576   .debug_str:0000000000000685 .LASF116
C:\Users\stapi\AppData\Local\Temp\ccnwKQy3.s:4582   .debug_str:00000000000006a9 .LASF117
C:\Users\stapi\AppData\Local\Temp\ccnwKQy3.s:4632   .debug_str:000000000000084f .LASF118
C:\Users\stapi\AppData\Local\Temp\ccnwKQy3.s:4566   .debug_str:0000000000000651 .LASF119
C:\Users\stapi\AppData\Local\Temp\ccnwKQy3.s:4516   .debug_str:000000000000053b .LASF120
C:\Users\stapi\AppData\Local\Temp\ccnwKQy3.s:4452   .debug_str:0000000000000352 .LASF121
C:\Users\stapi\AppData\Local\Temp\ccnwKQy3.s:4398   .debug_str:0000000000000242 .LASF122
C:\Users\stapi\AppData\Local\Temp\ccnwKQy3.s:4534   .debug_str:00000000000005aa .LASF123
C:\Users\stapi\AppData\Local\Temp\ccnwKQy3.s:4600   .debug_str:0000000000000727 .LASF124
C:\Users\stapi\AppData\Local\Temp\ccnwKQy3.s:4312   .debug_str:0000000000000044 .LASF125
C:\Users\stapi\AppData\Local\Temp\ccnwKQy3.s:4456   .debug_str:0000000000000368 .LASF126
C:\Users\stapi\AppData\Local\Temp\ccnwKQy3.s:4640   .debug_str:0000000000000882 .LASF127
C:\Users\stapi\AppData\Local\Temp\ccnwKQy3.s:4414   .debug_str:00000000000002a9 .LASF128
C:\Users\stapi\AppData\Local\Temp\ccnwKQy3.s:4442   .debug_str:0000000000000327 .LASF129
C:\Users\stapi\AppData\Local\Temp\ccnwKQy3.s:4526   .debug_str:000000000000058e .LASF130
C:\Users\stapi\AppData\Local\Temp\ccnwKQy3.s:4618   .debug_str:0000000000000807 .LASF131
C:\Users\stapi\AppData\Local\Temp\ccnwKQy3.s:4652   .debug_str:00000000000008d8 .LASF132
C:\Users\stapi\AppData\Local\Temp\ccnwKQy3.s:4490   .debug_str:0000000000000494 .LASF133
C:\Users\stapi\AppData\Local\Temp\ccnwKQy3.s:4308   .debug_str:0000000000000031 .LASF134
C:\Users\stapi\AppData\Local\Temp\ccnwKQy3.s:4342   .debug_str:00000000000000fd .LASF135
C:\Users\stapi\AppData\Local\Temp\ccnwKQy3.s:4638   .debug_str:0000000000000878 .LASF136
C:\Users\stapi\AppData\Local\Temp\ccnwKQy3.s:4592   .debug_str:00000000000006f7 .LASF137
C:\Users\stapi\AppData\Local\Temp\ccnwKQy3.s:4506   .debug_str:00000000000004f8 .LASF138
C:\Users\stapi\AppData\Local\Temp\ccnwKQy3.s:4348   .debug_str:000000000000012c .LASF139
C:\Users\stapi\AppData\Local\Temp\ccnwKQy3.s:4514   .debug_str:000000000000052f .LASF140
C:\Users\stapi\AppData\Local\Temp\ccnwKQy3.s:4468   .debug_str:000000000000040b .LASF141
C:\Users\stapi\AppData\Local\Temp\ccnwKQy3.s:4372   .debug_str:00000000000001ab .LASF142
C:\Users\stapi\AppData\Local\Temp\ccnwKQy3.s:4454   .debug_str:0000000000000359 .LASF143
C:\Users\stapi\AppData\Local\Temp\ccnwKQy3.s:4570   .debug_str:000000000000066a .LASF144
C:\Users\stapi\AppData\Local\Temp\ccnwKQy3.s:4472   .debug_str:000000000000042d .LASF145
C:\Users\stapi\AppData\Local\Temp\ccnwKQy3.s:4484   .debug_str:0000000000000478 .LASF146
C:\Users\stapi\AppData\Local\Temp\ccnwKQy3.s:4366   .debug_str:0000000000000186 .LASF147
C:\Users\stapi\AppData\Local\Temp\ccnwKQy3.s:4524   .debug_str:0000000000000583 .LASF148
C:\Users\stapi\AppData\Local\Temp\ccnwKQy3.s:4378   .debug_str:00000000000001c9 .LASF149
C:\Users\stapi\AppData\Local\Temp\ccnwKQy3.s:4594   .debug_str:0000000000000701 .LASF150
C:\Users\stapi\AppData\Local\Temp\ccnwKQy3.s:4536   .debug_str:00000000000005b0 .LASF151
C:\Users\stapi\AppData\Local\Temp\ccnwKQy3.s:4670   .debug_str:0000000000000a1b .LASF152
C:\Users\stapi\AppData\Local\Temp\ccnwKQy3.s:4354   .debug_str:0000000000000154 .LASF153
C:\Users\stapi\AppData\Local\Temp\ccnwKQy3.s:4488   .debug_str:000000000000048e .LASF154
C:\Users\stapi\AppData\Local\Temp\ccnwKQy3.s:4586   .debug_str:00000000000006be .LASF155
C:\Users\stapi\AppData\Local\Temp\ccnwKQy3.s:4634   .debug_str:000000000000085c .LASF156
C:\Users\stapi\AppData\Local\Temp\ccnwKQy3.s:4310   .debug_str:000000000000003f .LASF157
C:\Users\stapi\AppData\Local\Temp\ccnwKQy3.s:4432   .debug_str:00000000000002f3 .LASF158
C:\Users\stapi\AppData\Local\Temp\ccnwKQy3.s:4656   .debug_str:00000000000008ee .LASF159
C:\Users\stapi\AppData\Local\Temp\ccnwKQy3.s:4630   .debug_str:0000000000000842 .LASF160
C:\Users\stapi\AppData\Local\Temp\ccnwKQy3.s:4598   .debug_str:000000000000070e .LASF161
C:\Users\stapi\AppData\Local\Temp\ccnwKQy3.s:4334   .debug_str:00000000000000c5 .LASF162
C:\Users\stapi\AppData\Local\Temp\ccnwKQy3.s:4476   .debug_str:000000000000043b .LASF186
C:\Users\stapi\AppData\Local\Temp\ccnwKQy3.s:710    .text.sys_timeouts_sleeptime:0000000000000000 .LFB12
C:\Users\stapi\AppData\Local\Temp\ccnwKQy3.s:747    .text.sys_timeouts_sleeptime:0000000000000034 .LFE12
C:\Users\stapi\AppData\Local\Temp\ccnwKQy3.s:3790   .debug_loc:0000000000000000 .LLST38
C:\Users\stapi\AppData\Local\Temp\ccnwKQy3.s:730    .text.sys_timeouts_sleeptime:000000000000001e .LVL62
C:\Users\stapi\AppData\Local\Temp\ccnwKQy3.s:4636   .debug_str:0000000000000863 .LASF164
C:\Users\stapi\AppData\Local\Temp\ccnwKQy3.s:649    .text.sys_restart_timeouts:0000000000000000 .LFB11
C:\Users\stapi\AppData\Local\Temp\ccnwKQy3.s:703    .text.sys_restart_timeouts:0000000000000034 .LFE11
C:\Users\stapi\AppData\Local\Temp\ccnwKQy3.s:3797   .debug_loc:0000000000000013 .LLST35
C:\Users\stapi\AppData\Local\Temp\ccnwKQy3.s:4374   .debug_str:00000000000001bc .LASF163
C:\Users\stapi\AppData\Local\Temp\ccnwKQy3.s:3804   .debug_loc:0000000000000026 .LLST36
C:\Users\stapi\AppData\Local\Temp\ccnwKQy3.s:3811   .debug_loc:0000000000000039 .LLST37
C:\Users\stapi\AppData\Local\Temp\ccnwKQy3.s:669    .text.sys_restart_timeouts:000000000000001c .LVL57
C:\Users\stapi\AppData\Local\Temp\ccnwKQy3.s:4510   .debug_str:0000000000000513 .LASF165
C:\Users\stapi\AppData\Local\Temp\ccnwKQy3.s:555    .text.sys_check_timeouts:0000000000000000 .LFB10
C:\Users\stapi\AppData\Local\Temp\ccnwKQy3.s:642    .text.sys_check_timeouts:0000000000000054 .LFE10
C:\Users\stapi\AppData\Local\Temp\ccnwKQy3.s:4302   .debug_str:0000000000000007 .LASF166
C:\Users\stapi\AppData\Local\Temp\ccnwKQy3.s:3818   .debug_loc:000000000000004c .LLST32
C:\Users\stapi\AppData\Local\Temp\ccnwKQy3.s:3829   .debug_loc:000000000000006a .LLST33
C:\Users\stapi\AppData\Local\Temp\ccnwKQy3.s:3836   .debug_loc:000000000000007d .LLST34
C:\Users\stapi\AppData\Local\Temp\ccnwKQy3.s:620    .text.sys_check_timeouts:0000000000000044 .LVL54
C:\Users\stapi\AppData\Local\Temp\ccnwKQy3.s:627    .text.sys_check_timeouts:000000000000004a .LVL55
C:\Users\stapi\AppData\Local\Temp\ccnwKQy3.s:571    .text.sys_check_timeouts:0000000000000010 .LVL50
C:\Users\stapi\AppData\Local\Temp\ccnwKQy3.s:4330   .debug_str:00000000000000b1 .LASF167
C:\Users\stapi\AppData\Local\Temp\ccnwKQy3.s:484    .text.sys_untimeout:0000000000000000 .LFB9
C:\Users\stapi\AppData\Local\Temp\ccnwKQy3.s:548    .text.sys_untimeout:0000000000000042 .LFE9
C:\Users\stapi\AppData\Local\Temp\ccnwKQy3.s:3843   .debug_loc:0000000000000090 .LLST28
C:\Users\stapi\AppData\Local\Temp\ccnwKQy3.s:3861   .debug_loc:00000000000000bc .LLST29
C:\Users\stapi\AppData\Local\Temp\ccnwKQy3.s:4300   .debug_str:0000000000000000 .LASF168
C:\Users\stapi\AppData\Local\Temp\ccnwKQy3.s:3883   .debug_loc:00000000000000f3 .LLST30
C:\Users\stapi\AppData\Local\Temp\ccnwKQy3.s:3902   .debug_loc:0000000000000127 .LLST31
C:\Users\stapi\AppData\Local\Temp\ccnwKQy3.s:524    .text.sys_untimeout:0000000000000032 .LVL45
C:\Users\stapi\AppData\Local\Temp\ccnwKQy3.s:4446   .debug_str:0000000000000331 .LASF187
C:\Users\stapi\AppData\Local\Temp\ccnwKQy3.s:4666   .debug_str:0000000000000a0d .LASF169
C:\Users\stapi\AppData\Local\Temp\ccnwKQy3.s:4522   .debug_str:0000000000000571 .LASF170
C:\Users\stapi\AppData\Local\Temp\ccnwKQy3.s:4626   .debug_str:000000000000082a .LASF171
C:\Users\stapi\AppData\Local\Temp\ccnwKQy3.s:435    .text.sys_timeouts_init:0000000000000000 .LFB7
C:\Users\stapi\AppData\Local\Temp\ccnwKQy3.s:477    .text.sys_timeouts_init:000000000000003a .LFE7
C:\Users\stapi\AppData\Local\Temp\ccnwKQy3.s:3921   .debug_loc:000000000000015b .LLST27
C:\Users\stapi\AppData\Local\Temp\ccnwKQy3.s:464    .text.sys_timeouts_init:000000000000002e .LVL40
C:\Users\stapi\AppData\Local\Temp\ccnwKQy3.s:145    .text.lwip_cyclic_timer:0000000000000000 .LFB6
C:\Users\stapi\AppData\Local\Temp\ccnwKQy3.s:206    .text.lwip_cyclic_timer:0000000000000050 .LFE6
C:\Users\stapi\AppData\Local\Temp\ccnwKQy3.s:3929   .debug_loc:000000000000016f .LLST5
C:\Users\stapi\AppData\Local\Temp\ccnwKQy3.s:3946   .debug_loc:000000000000019a .LLST6
C:\Users\stapi\AppData\Local\Temp\ccnwKQy3.s:3957   .debug_loc:00000000000001b8 .LLST7
C:\Users\stapi\AppData\Local\Temp\ccnwKQy3.s:4362   .debug_str:000000000000016f .LASF172
C:\Users\stapi\AppData\Local\Temp\ccnwKQy3.s:3974   .debug_loc:00000000000001df .LLST8
C:\Users\stapi\AppData\Local\Temp\ccnwKQy3.s:168    .text.lwip_cyclic_timer:0000000000000018 .LVL11
C:\Users\stapi\AppData\Local\Temp\ccnwKQy3.s:197    .text.lwip_cyclic_timer:0000000000000046 .LVL15
C:\Users\stapi\AppData\Local\Temp\ccnwKQy3.s:4350   .debug_str:0000000000000138 .LASF173
C:\Users\stapi\AppData\Local\Temp\ccnwKQy3.s:23     .text.sys_timeout_abs:0000000000000000 .LFB5
C:\Users\stapi\AppData\Local\Temp\ccnwKQy3.s:139    .text.sys_timeout_abs:0000000000000086 .LFE5
C:\Users\stapi\AppData\Local\Temp\ccnwKQy3.s:4548   .debug_str:00000000000005e3 .LASF174
C:\Users\stapi\AppData\Local\Temp\ccnwKQy3.s:3991   .debug_loc:000000000000020a .LLST0
C:\Users\stapi\AppData\Local\Temp\ccnwKQy3.s:4002   .debug_loc:0000000000000228 .LLST1
C:\Users\stapi\AppData\Local\Temp\ccnwKQy3.s:4013   .debug_loc:0000000000000246 .LLST2
C:\Users\stapi\AppData\Local\Temp\ccnwKQy3.s:4532   .debug_str:00000000000005a2 .LASF175
C:\Users\stapi\AppData\Local\Temp\ccnwKQy3.s:4024   .debug_loc:0000000000000264 .LLST3
C:\Users\stapi\AppData\Local\Temp\ccnwKQy3.s:4035   .debug_loc:0000000000000282 .LLST4
C:\Users\stapi\AppData\Local\Temp\ccnwKQy3.s:46     .text.sys_timeout_abs:0000000000000018 .LVL2
C:\Users\stapi\AppData\Local\Temp\ccnwKQy3.s:63     .text.sys_timeout_abs:000000000000003e .LVL4
C:\Users\stapi\AppData\Local\Temp\ccnwKQy3.s:4498   .debug_str:00000000000004c0 .LASF176
C:\Users\stapi\AppData\Local\Temp\ccnwKQy3.s:284    .text.tcp_timer_needed:0000000000000000 .LFB4
C:\Users\stapi\AppData\Local\Temp\ccnwKQy3.s:348    .text.tcp_timer_needed:0000000000000056 .LFE4
C:\Users\stapi\AppData\Local\Temp\ccnwKQy3.s:315    .text.tcp_timer_needed:000000000000002e .LBB18
C:\Users\stapi\AppData\Local\Temp\ccnwKQy3.s:340    .text.tcp_timer_needed:000000000000004c .LBE18
C:\Users\stapi\AppData\Local\Temp\ccnwKQy3.s:4046   .debug_loc:00000000000002a0 .LLST15
C:\Users\stapi\AppData\Local\Temp\ccnwKQy3.s:4054   .debug_loc:00000000000002b4 .LLST16
C:\Users\stapi\AppData\Local\Temp\ccnwKQy3.s:321    .text.tcp_timer_needed:000000000000002e .LBB20
C:\Users\stapi\AppData\Local\Temp\ccnwKQy3.s:338    .text.tcp_timer_needed:000000000000004c .LBE20
C:\Users\stapi\AppData\Local\Temp\ccnwKQy3.s:4063   .debug_loc:00000000000002c9 .LLST19
C:\Users\stapi\AppData\Local\Temp\ccnwKQy3.s:328    .text.tcp_timer_needed:0000000000000036 .LVL24
C:\Users\stapi\AppData\Local\Temp\ccnwKQy3.s:336    .text.tcp_timer_needed:000000000000004c .LVL26
C:\Users\stapi\AppData\Local\Temp\ccnwKQy3.s:4674   .debug_str:0000000000000a29 .LASF177
C:\Users\stapi\AppData\Local\Temp\ccnwKQy3.s:212    .text.tcpip_tcp_timer:0000000000000000 .LFB3
C:\Users\stapi\AppData\Local\Temp\ccnwKQy3.s:277    .text.tcpip_tcp_timer:0000000000000054 .LFE3
C:\Users\stapi\AppData\Local\Temp\ccnwKQy3.s:4076   .debug_loc:00000000000002ea .LLST9
C:\Users\stapi\AppData\Local\Temp\ccnwKQy3.s:236    .text.tcpip_tcp_timer:0000000000000024 .LBB10
C:\Users\stapi\AppData\Local\Temp\ccnwKQy3.s:262    .text.tcpip_tcp_timer:0000000000000042 .LBE10
C:\Users\stapi\AppData\Local\Temp\ccnwKQy3.s:4090   .debug_loc:000000000000030b .LLST10
C:\Users\stapi\AppData\Local\Temp\ccnwKQy3.s:4098   .debug_loc:000000000000031f .LLST11
C:\Users\stapi\AppData\Local\Temp\ccnwKQy3.s:242    .text.tcpip_tcp_timer:0000000000000024 .LBB12
C:\Users\stapi\AppData\Local\Temp\ccnwKQy3.s:260    .text.tcpip_tcp_timer:0000000000000042 .LBE12
C:\Users\stapi\AppData\Local\Temp\ccnwKQy3.s:4107   .debug_loc:0000000000000334 .LLST14
C:\Users\stapi\AppData\Local\Temp\ccnwKQy3.s:249    .text.tcpip_tcp_timer:000000000000002c .LVL20
C:\Users\stapi\AppData\Local\Temp\ccnwKQy3.s:257    .text.tcpip_tcp_timer:0000000000000042 .LVL22
C:\Users\stapi\AppData\Local\Temp\ccnwKQy3.s:222    .text.tcpip_tcp_timer:0000000000000010 .LVL18
C:\Users\stapi\AppData\Local\Temp\ccnwKQy3.s:359    .text.sys_timeout:0000000000000000 .LFB8
C:\Users\stapi\AppData\Local\Temp\ccnwKQy3.s:428    .text.sys_timeout:000000000000005e .LFE8
C:\Users\stapi\AppData\Local\Temp\ccnwKQy3.s:4120   .debug_loc:0000000000000355 .LLST20
C:\Users\stapi\AppData\Local\Temp\ccnwKQy3.s:4142   .debug_loc:000000000000038c .LLST21
C:\Users\stapi\AppData\Local\Temp\ccnwKQy3.s:4170   .debug_loc:00000000000003d0 .LLST22
C:\Users\stapi\AppData\Local\Temp\ccnwKQy3.s:402    .text.sys_timeout:000000000000003e .LBB24
C:\Users\stapi\AppData\Local\Temp\ccnwKQy3.s:418    .text.sys_timeout:0000000000000054 .LBE24
C:\Users\stapi\AppData\Local\Temp\ccnwKQy3.s:4198   .debug_loc:0000000000000414 .LLST23
C:\Users\stapi\AppData\Local\Temp\ccnwKQy3.s:4206   .debug_loc:0000000000000428 .LLST24
C:\Users\stapi\AppData\Local\Temp\ccnwKQy3.s:4214   .debug_loc:000000000000043c .LLST25
C:\Users\stapi\AppData\Local\Temp\ccnwKQy3.s:4221   .debug_loc:000000000000044f .LLST26
C:\Users\stapi\AppData\Local\Temp\ccnwKQy3.s:409    .text.sys_timeout:0000000000000046 .LVL34
C:\Users\stapi\AppData\Local\Temp\ccnwKQy3.s:416    .text.sys_timeout:0000000000000054 .LVL36
C:\Users\stapi\AppData\Local\Temp\ccnwKQy3.s:390    .text.sys_timeout:0000000000000036 .LVL31
C:\Users\stapi\AppData\Local\Temp\ccnwKQy3.s:4668   .debug_str:0000000000000a13 .LASF178
C:\Users\stapi\AppData\Local\Temp\ccnwKQy3.s:4396   .debug_str:0000000000000238 .LASF179
C:\Users\stapi\AppData\Local\Temp\ccnwKQy3.s:4478   .debug_str:0000000000000452 .LASF180
C:\Users\stapi\AppData\Local\Temp\ccnwKQy3.s:4486   .debug_str:0000000000000487 .LASF181
C:\Users\stapi\AppData\Local\Temp\ccnwKQy3.s:4464   .debug_str:0000000000000385 .LASF182
C:\Users\stapi\AppData\Local\Temp\ccnwKQy3.s:736    .text.sys_timeouts_sleeptime:0000000000000026 .LVL63
C:\Users\stapi\AppData\Local\Temp\ccnwKQy3.s:680    .text.sys_restart_timeouts:0000000000000022 .LVL59
C:\Users\stapi\AppData\Local\Temp\ccnwKQy3.s:675    .text.sys_restart_timeouts:0000000000000020 .LVL58
C:\Users\stapi\AppData\Local\Temp\ccnwKQy3.s:695    .text.sys_restart_timeouts:000000000000002c .LVL61
C:\Users\stapi\AppData\Local\Temp\ccnwKQy3.s:591    .text.sys_check_timeouts:0000000000000020 .LVL52
C:\Users\stapi\AppData\Local\Temp\ccnwKQy3.s:629    .text.sys_check_timeouts:000000000000004c .LVL56
C:\Users\stapi\AppData\Local\Temp\ccnwKQy3.s:613    .text.sys_check_timeouts:0000000000000038 .LVL53
C:\Users\stapi\AppData\Local\Temp\ccnwKQy3.s:487    .text.sys_untimeout:0000000000000000 .LVL41
C:\Users\stapi\AppData\Local\Temp\ccnwKQy3.s:522    .text.sys_untimeout:000000000000002a .LVL44
C:\Users\stapi\AppData\Local\Temp\ccnwKQy3.s:497    .text.sys_untimeout:000000000000000a .LVL42
C:\Users\stapi\AppData\Local\Temp\ccnwKQy3.s:504    .text.sys_untimeout:0000000000000012 .LVL43
C:\Users\stapi\AppData\Local\Temp\ccnwKQy3.s:528    .text.sys_untimeout:0000000000000034 .LVL46
C:\Users\stapi\AppData\Local\Temp\ccnwKQy3.s:538    .text.sys_untimeout:000000000000003a .LVL48
C:\Users\stapi\AppData\Local\Temp\ccnwKQy3.s:544    .text.sys_untimeout:0000000000000040 .LVL49
C:\Users\stapi\AppData\Local\Temp\ccnwKQy3.s:530    .text.sys_untimeout:0000000000000036 .LVL47
C:\Users\stapi\AppData\Local\Temp\ccnwKQy3.s:446    .text.sys_timeouts_init:0000000000000008 .LVL38
C:\Users\stapi\AppData\Local\Temp\ccnwKQy3.s:454    .text.sys_timeouts_init:000000000000001c .LVL39
C:\Users\stapi\AppData\Local\Temp\ccnwKQy3.s:148    .text.lwip_cyclic_timer:0000000000000000 .LVL8
C:\Users\stapi\AppData\Local\Temp\ccnwKQy3.s:164    .text.lwip_cyclic_timer:0000000000000010 .LVL10
C:\Users\stapi\AppData\Local\Temp\ccnwKQy3.s:201    .text.lwip_cyclic_timer:0000000000000048 .LVL16
C:\Users\stapi\AppData\Local\Temp\ccnwKQy3.s:178    .text.lwip_cyclic_timer:0000000000000026 .LVL12
C:\Users\stapi\AppData\Local\Temp\ccnwKQy3.s:183    .text.lwip_cyclic_timer:000000000000002e .LVL13
C:\Users\stapi\AppData\Local\Temp\ccnwKQy3.s:193    .text.lwip_cyclic_timer:000000000000003e .LVL14
C:\Users\stapi\AppData\Local\Temp\ccnwKQy3.s:155    .text.lwip_cyclic_timer:0000000000000008 .LVL9
C:\Users\stapi\AppData\Local\Temp\ccnwKQy3.s:27     .text.sys_timeout_abs:0000000000000000 .LVL0
C:\Users\stapi\AppData\Local\Temp\ccnwKQy3.s:40     .text.sys_timeout_abs:000000000000000c .LVL1
C:\Users\stapi\AppData\Local\Temp\ccnwKQy3.s:57     .text.sys_timeout_abs:0000000000000026 .LVL3
C:\Users\stapi\AppData\Local\Temp\ccnwKQy3.s:69     .text.sys_timeout_abs:0000000000000040 .LVL5
C:\Users\stapi\AppData\Local\Temp\ccnwKQy3.s:116    .text.sys_timeout_abs:0000000000000070 .LVL6
C:\Users\stapi\AppData\Local\Temp\ccnwKQy3.s:121    .text.sys_timeout_abs:0000000000000074 .LVL7
C:\Users\stapi\AppData\Local\Temp\ccnwKQy3.s:314    .text.tcp_timer_needed:000000000000002e .LVL23
C:\Users\stapi\AppData\Local\Temp\ccnwKQy3.s:334    .text.tcp_timer_needed:0000000000000044 .LVL25
C:\Users\stapi\AppData\Local\Temp\ccnwKQy3.s:215    .text.tcpip_tcp_timer:0000000000000000 .LVL17
C:\Users\stapi\AppData\Local\Temp\ccnwKQy3.s:235    .text.tcpip_tcp_timer:0000000000000024 .LVL19
C:\Users\stapi\AppData\Local\Temp\ccnwKQy3.s:255    .text.tcpip_tcp_timer:000000000000003a .LVL21
C:\Users\stapi\AppData\Local\Temp\ccnwKQy3.s:362    .text.sys_timeout:0000000000000000 .LVL27
C:\Users\stapi\AppData\Local\Temp\ccnwKQy3.s:383    .text.sys_timeout:000000000000001e .LVL29
C:\Users\stapi\AppData\Local\Temp\ccnwKQy3.s:396    .text.sys_timeout:0000000000000038 .LVL32
C:\Users\stapi\AppData\Local\Temp\ccnwKQy3.s:381    .text.sys_timeout:000000000000001a .LVL28
C:\Users\stapi\AppData\Local\Temp\ccnwKQy3.s:422    .text.sys_timeout:0000000000000056 .LVL37
C:\Users\stapi\AppData\Local\Temp\ccnwKQy3.s:386    .text.sys_timeout:0000000000000026 .LVL30
C:\Users\stapi\AppData\Local\Temp\ccnwKQy3.s:401    .text.sys_timeout:000000000000003e .LVL33
C:\Users\stapi\AppData\Local\Temp\ccnwKQy3.s:414    .text.sys_timeout:000000000000004c .LVL35
C:\Users\stapi\AppData\Local\Temp\ccnwKQy3.s:818    .debug_info:0000000000000000 .Ldebug_info0
C:\Users\stapi\AppData\Local\Temp\ccnwKQy3.s:574    .text.sys_check_timeouts:0000000000000012 .LBB26
C:\Users\stapi\AppData\Local\Temp\ccnwKQy3.s:580    .text.sys_check_timeouts:000000000000001a .LBE26
C:\Users\stapi\AppData\Local\Temp\ccnwKQy3.s:582    .text.sys_check_timeouts:000000000000001a .LBB27
C:\Users\stapi\AppData\Local\Temp\ccnwKQy3.s:631    .text.sys_check_timeouts:000000000000004c .LBE27

UNDEFINED SYMBOLS
__riscv_save_3
memp_malloc
printf
__riscv_restore_3
__riscv_save_0
sys_now
__riscv_restore_0
tcp_tmr
tcp_active_pcbs
tcp_tw_pcbs
__riscv_save_1
__riscv_restore_1
memp_free
__riscv_save_5
__riscv_restore_5
ip_reass_tmr
etharp_tmr
dhcp_coarse_tmr
dhcp_fine_tmr
igmp_tmr
dns_tmr
