   1              		.file	"udp.c"
   2              		.option nopic
   3              		.attribute arch, "rv32i2p0_m2p0_a2p0_f2p0_c2p0_b_p0p94"
   4              		.attribute unaligned_access, 0
   5              		.attribute stack_align, 16
   6              		.text
   7              	.Ltext0:
   8              		.cfi_sections	.debug_frame
   9              		.section	.text.udp_init,"ax",@progbits
  10              		.align	1
  11              		.globl	udp_init
  13              	udp_init:
  14              	.LFB4:
  15              		.file 1 "C:/Users/stapi/OneDrive/Desktop/GD32VW553/GD32VW55X_Wifi_BLE_SDK/GD32VW55x_RELEASE_V1.0.2
   1:C:/Users/stapi/OneDrive/Desktop/GD32VW553/GD32VW55X_Wifi_BLE_SDK/GD32VW55x_RELEASE_V1.0.2/MSDK/lwip/lwip-2.1.2/src/core\udp.c **** /**
   2:C:/Users/stapi/OneDrive/Desktop/GD32VW553/GD32VW55X_Wifi_BLE_SDK/GD32VW55x_RELEASE_V1.0.2/MSDK/lwip/lwip-2.1.2/src/core\udp.c ****  * @file
   3:C:/Users/stapi/OneDrive/Desktop/GD32VW553/GD32VW55X_Wifi_BLE_SDK/GD32VW55x_RELEASE_V1.0.2/MSDK/lwip/lwip-2.1.2/src/core\udp.c ****  * User Datagram Protocol module\n
   4:C:/Users/stapi/OneDrive/Desktop/GD32VW553/GD32VW55X_Wifi_BLE_SDK/GD32VW55x_RELEASE_V1.0.2/MSDK/lwip/lwip-2.1.2/src/core\udp.c ****  * The code for the User Datagram Protocol UDP & UDPLite (RFC 3828).\n
   5:C:/Users/stapi/OneDrive/Desktop/GD32VW553/GD32VW55X_Wifi_BLE_SDK/GD32VW55x_RELEASE_V1.0.2/MSDK/lwip/lwip-2.1.2/src/core\udp.c ****  * See also @ref udp_raw
   6:C:/Users/stapi/OneDrive/Desktop/GD32VW553/GD32VW55X_Wifi_BLE_SDK/GD32VW55x_RELEASE_V1.0.2/MSDK/lwip/lwip-2.1.2/src/core\udp.c ****  *
   7:C:/Users/stapi/OneDrive/Desktop/GD32VW553/GD32VW55X_Wifi_BLE_SDK/GD32VW55x_RELEASE_V1.0.2/MSDK/lwip/lwip-2.1.2/src/core\udp.c ****  * @defgroup udp_raw UDP
   8:C:/Users/stapi/OneDrive/Desktop/GD32VW553/GD32VW55X_Wifi_BLE_SDK/GD32VW55x_RELEASE_V1.0.2/MSDK/lwip/lwip-2.1.2/src/core\udp.c ****  * @ingroup callbackstyle_api
   9:C:/Users/stapi/OneDrive/Desktop/GD32VW553/GD32VW55X_Wifi_BLE_SDK/GD32VW55x_RELEASE_V1.0.2/MSDK/lwip/lwip-2.1.2/src/core\udp.c ****  * User Datagram Protocol module\n
  10:C:/Users/stapi/OneDrive/Desktop/GD32VW553/GD32VW55X_Wifi_BLE_SDK/GD32VW55x_RELEASE_V1.0.2/MSDK/lwip/lwip-2.1.2/src/core\udp.c ****  * @see @ref api
  11:C:/Users/stapi/OneDrive/Desktop/GD32VW553/GD32VW55X_Wifi_BLE_SDK/GD32VW55x_RELEASE_V1.0.2/MSDK/lwip/lwip-2.1.2/src/core\udp.c ****  */
  12:C:/Users/stapi/OneDrive/Desktop/GD32VW553/GD32VW55X_Wifi_BLE_SDK/GD32VW55x_RELEASE_V1.0.2/MSDK/lwip/lwip-2.1.2/src/core\udp.c **** 
  13:C:/Users/stapi/OneDrive/Desktop/GD32VW553/GD32VW55X_Wifi_BLE_SDK/GD32VW55x_RELEASE_V1.0.2/MSDK/lwip/lwip-2.1.2/src/core\udp.c **** /*
  14:C:/Users/stapi/OneDrive/Desktop/GD32VW553/GD32VW55X_Wifi_BLE_SDK/GD32VW55x_RELEASE_V1.0.2/MSDK/lwip/lwip-2.1.2/src/core\udp.c ****  * Copyright (c) 2001-2004 Swedish Institute of Computer Science.
  15:C:/Users/stapi/OneDrive/Desktop/GD32VW553/GD32VW55X_Wifi_BLE_SDK/GD32VW55x_RELEASE_V1.0.2/MSDK/lwip/lwip-2.1.2/src/core\udp.c ****  * Copyright (c) 2024, GigaDevice Semiconductor Inc.
  16:C:/Users/stapi/OneDrive/Desktop/GD32VW553/GD32VW55X_Wifi_BLE_SDK/GD32VW55x_RELEASE_V1.0.2/MSDK/lwip/lwip-2.1.2/src/core\udp.c ****  * All rights reserved.
  17:C:/Users/stapi/OneDrive/Desktop/GD32VW553/GD32VW55X_Wifi_BLE_SDK/GD32VW55x_RELEASE_V1.0.2/MSDK/lwip/lwip-2.1.2/src/core\udp.c ****  *
  18:C:/Users/stapi/OneDrive/Desktop/GD32VW553/GD32VW55X_Wifi_BLE_SDK/GD32VW55x_RELEASE_V1.0.2/MSDK/lwip/lwip-2.1.2/src/core\udp.c ****  * Redistribution and use in source and binary forms, with or without modification,
  19:C:/Users/stapi/OneDrive/Desktop/GD32VW553/GD32VW55X_Wifi_BLE_SDK/GD32VW55x_RELEASE_V1.0.2/MSDK/lwip/lwip-2.1.2/src/core\udp.c ****  * are permitted provided that the following conditions are met:
  20:C:/Users/stapi/OneDrive/Desktop/GD32VW553/GD32VW55X_Wifi_BLE_SDK/GD32VW55x_RELEASE_V1.0.2/MSDK/lwip/lwip-2.1.2/src/core\udp.c ****  *
  21:C:/Users/stapi/OneDrive/Desktop/GD32VW553/GD32VW55X_Wifi_BLE_SDK/GD32VW55x_RELEASE_V1.0.2/MSDK/lwip/lwip-2.1.2/src/core\udp.c ****  * 1. Redistributions of source code must retain the above copyright notice,
  22:C:/Users/stapi/OneDrive/Desktop/GD32VW553/GD32VW55X_Wifi_BLE_SDK/GD32VW55x_RELEASE_V1.0.2/MSDK/lwip/lwip-2.1.2/src/core\udp.c ****  *    this list of conditions and the following disclaimer.
  23:C:/Users/stapi/OneDrive/Desktop/GD32VW553/GD32VW55X_Wifi_BLE_SDK/GD32VW55x_RELEASE_V1.0.2/MSDK/lwip/lwip-2.1.2/src/core\udp.c ****  * 2. Redistributions in binary form must reproduce the above copyright notice,
  24:C:/Users/stapi/OneDrive/Desktop/GD32VW553/GD32VW55X_Wifi_BLE_SDK/GD32VW55x_RELEASE_V1.0.2/MSDK/lwip/lwip-2.1.2/src/core\udp.c ****  *    this list of conditions and the following disclaimer in the documentation
  25:C:/Users/stapi/OneDrive/Desktop/GD32VW553/GD32VW55X_Wifi_BLE_SDK/GD32VW55x_RELEASE_V1.0.2/MSDK/lwip/lwip-2.1.2/src/core\udp.c ****  *    and/or other materials provided with the distribution.
  26:C:/Users/stapi/OneDrive/Desktop/GD32VW553/GD32VW55X_Wifi_BLE_SDK/GD32VW55x_RELEASE_V1.0.2/MSDK/lwip/lwip-2.1.2/src/core\udp.c ****  * 3. The name of the author may not be used to endorse or promote products
  27:C:/Users/stapi/OneDrive/Desktop/GD32VW553/GD32VW55X_Wifi_BLE_SDK/GD32VW55x_RELEASE_V1.0.2/MSDK/lwip/lwip-2.1.2/src/core\udp.c ****  *    derived from this software without specific prior written permission.
  28:C:/Users/stapi/OneDrive/Desktop/GD32VW553/GD32VW55X_Wifi_BLE_SDK/GD32VW55x_RELEASE_V1.0.2/MSDK/lwip/lwip-2.1.2/src/core\udp.c ****  *
  29:C:/Users/stapi/OneDrive/Desktop/GD32VW553/GD32VW55X_Wifi_BLE_SDK/GD32VW55x_RELEASE_V1.0.2/MSDK/lwip/lwip-2.1.2/src/core\udp.c ****  * THIS SOFTWARE IS PROVIDED BY THE AUTHOR ``AS IS'' AND ANY EXPRESS OR IMPLIED
  30:C:/Users/stapi/OneDrive/Desktop/GD32VW553/GD32VW55X_Wifi_BLE_SDK/GD32VW55x_RELEASE_V1.0.2/MSDK/lwip/lwip-2.1.2/src/core\udp.c ****  * WARRANTIES, INCLUDING, BUT NOT LIMITED TO, THE IMPLIED WARRANTIES OF
  31:C:/Users/stapi/OneDrive/Desktop/GD32VW553/GD32VW55X_Wifi_BLE_SDK/GD32VW55x_RELEASE_V1.0.2/MSDK/lwip/lwip-2.1.2/src/core\udp.c ****  * MERCHANTABILITY AND FITNESS FOR A PARTICULAR PURPOSE ARE DISCLAIMED. IN NO EVENT
  32:C:/Users/stapi/OneDrive/Desktop/GD32VW553/GD32VW55X_Wifi_BLE_SDK/GD32VW55x_RELEASE_V1.0.2/MSDK/lwip/lwip-2.1.2/src/core\udp.c ****  * SHALL THE AUTHOR BE LIABLE FOR ANY DIRECT, INDIRECT, INCIDENTAL, SPECIAL,
  33:C:/Users/stapi/OneDrive/Desktop/GD32VW553/GD32VW55X_Wifi_BLE_SDK/GD32VW55x_RELEASE_V1.0.2/MSDK/lwip/lwip-2.1.2/src/core\udp.c ****  * EXEMPLARY, OR CONSEQUENTIAL DAMAGES (INCLUDING, BUT NOT LIMITED TO, PROCUREMENT
  34:C:/Users/stapi/OneDrive/Desktop/GD32VW553/GD32VW55X_Wifi_BLE_SDK/GD32VW55x_RELEASE_V1.0.2/MSDK/lwip/lwip-2.1.2/src/core\udp.c ****  * OF SUBSTITUTE GOODS OR SERVICES; LOSS OF USE, DATA, OR PROFITS; OR BUSINESS
  35:C:/Users/stapi/OneDrive/Desktop/GD32VW553/GD32VW55X_Wifi_BLE_SDK/GD32VW55x_RELEASE_V1.0.2/MSDK/lwip/lwip-2.1.2/src/core\udp.c ****  * INTERRUPTION) HOWEVER CAUSED AND ON ANY THEORY OF LIABILITY, WHETHER IN
  36:C:/Users/stapi/OneDrive/Desktop/GD32VW553/GD32VW55X_Wifi_BLE_SDK/GD32VW55x_RELEASE_V1.0.2/MSDK/lwip/lwip-2.1.2/src/core\udp.c ****  * CONTRACT, STRICT LIABILITY, OR TORT (INCLUDING NEGLIGENCE OR OTHERWISE) ARISING
  37:C:/Users/stapi/OneDrive/Desktop/GD32VW553/GD32VW55X_Wifi_BLE_SDK/GD32VW55x_RELEASE_V1.0.2/MSDK/lwip/lwip-2.1.2/src/core\udp.c ****  * IN ANY WAY OUT OF THE USE OF THIS SOFTWARE, EVEN IF ADVISED OF THE POSSIBILITY
  38:C:/Users/stapi/OneDrive/Desktop/GD32VW553/GD32VW55X_Wifi_BLE_SDK/GD32VW55x_RELEASE_V1.0.2/MSDK/lwip/lwip-2.1.2/src/core\udp.c ****  * OF SUCH DAMAGE.
  39:C:/Users/stapi/OneDrive/Desktop/GD32VW553/GD32VW55X_Wifi_BLE_SDK/GD32VW55x_RELEASE_V1.0.2/MSDK/lwip/lwip-2.1.2/src/core\udp.c ****  *
  40:C:/Users/stapi/OneDrive/Desktop/GD32VW553/GD32VW55X_Wifi_BLE_SDK/GD32VW55x_RELEASE_V1.0.2/MSDK/lwip/lwip-2.1.2/src/core\udp.c ****  * This file is part of the lwIP TCP/IP stack.
  41:C:/Users/stapi/OneDrive/Desktop/GD32VW553/GD32VW55X_Wifi_BLE_SDK/GD32VW55x_RELEASE_V1.0.2/MSDK/lwip/lwip-2.1.2/src/core\udp.c ****  *
  42:C:/Users/stapi/OneDrive/Desktop/GD32VW553/GD32VW55X_Wifi_BLE_SDK/GD32VW55x_RELEASE_V1.0.2/MSDK/lwip/lwip-2.1.2/src/core\udp.c ****  * Author: Adam Dunkels <adam@sics.se>
  43:C:/Users/stapi/OneDrive/Desktop/GD32VW553/GD32VW55X_Wifi_BLE_SDK/GD32VW55x_RELEASE_V1.0.2/MSDK/lwip/lwip-2.1.2/src/core\udp.c ****  *
  44:C:/Users/stapi/OneDrive/Desktop/GD32VW553/GD32VW55X_Wifi_BLE_SDK/GD32VW55x_RELEASE_V1.0.2/MSDK/lwip/lwip-2.1.2/src/core\udp.c ****  */
  45:C:/Users/stapi/OneDrive/Desktop/GD32VW553/GD32VW55X_Wifi_BLE_SDK/GD32VW55x_RELEASE_V1.0.2/MSDK/lwip/lwip-2.1.2/src/core\udp.c **** 
  46:C:/Users/stapi/OneDrive/Desktop/GD32VW553/GD32VW55X_Wifi_BLE_SDK/GD32VW55x_RELEASE_V1.0.2/MSDK/lwip/lwip-2.1.2/src/core\udp.c **** /* @todo Check the use of '(struct udp_pcb).chksum_len_rx'!
  47:C:/Users/stapi/OneDrive/Desktop/GD32VW553/GD32VW55X_Wifi_BLE_SDK/GD32VW55x_RELEASE_V1.0.2/MSDK/lwip/lwip-2.1.2/src/core\udp.c ****  */
  48:C:/Users/stapi/OneDrive/Desktop/GD32VW553/GD32VW55X_Wifi_BLE_SDK/GD32VW55x_RELEASE_V1.0.2/MSDK/lwip/lwip-2.1.2/src/core\udp.c **** 
  49:C:/Users/stapi/OneDrive/Desktop/GD32VW553/GD32VW55X_Wifi_BLE_SDK/GD32VW55x_RELEASE_V1.0.2/MSDK/lwip/lwip-2.1.2/src/core\udp.c **** #include "lwip/opt.h"
  50:C:/Users/stapi/OneDrive/Desktop/GD32VW553/GD32VW55X_Wifi_BLE_SDK/GD32VW55x_RELEASE_V1.0.2/MSDK/lwip/lwip-2.1.2/src/core\udp.c **** 
  51:C:/Users/stapi/OneDrive/Desktop/GD32VW553/GD32VW55X_Wifi_BLE_SDK/GD32VW55x_RELEASE_V1.0.2/MSDK/lwip/lwip-2.1.2/src/core\udp.c **** #if LWIP_UDP /* don't build if not configured for use in lwipopts.h */
  52:C:/Users/stapi/OneDrive/Desktop/GD32VW553/GD32VW55X_Wifi_BLE_SDK/GD32VW55x_RELEASE_V1.0.2/MSDK/lwip/lwip-2.1.2/src/core\udp.c **** 
  53:C:/Users/stapi/OneDrive/Desktop/GD32VW553/GD32VW55X_Wifi_BLE_SDK/GD32VW55x_RELEASE_V1.0.2/MSDK/lwip/lwip-2.1.2/src/core\udp.c **** #include "lwip/udp.h"
  54:C:/Users/stapi/OneDrive/Desktop/GD32VW553/GD32VW55X_Wifi_BLE_SDK/GD32VW55x_RELEASE_V1.0.2/MSDK/lwip/lwip-2.1.2/src/core\udp.c **** #include "lwip/def.h"
  55:C:/Users/stapi/OneDrive/Desktop/GD32VW553/GD32VW55X_Wifi_BLE_SDK/GD32VW55x_RELEASE_V1.0.2/MSDK/lwip/lwip-2.1.2/src/core\udp.c **** #include "lwip/memp.h"
  56:C:/Users/stapi/OneDrive/Desktop/GD32VW553/GD32VW55X_Wifi_BLE_SDK/GD32VW55x_RELEASE_V1.0.2/MSDK/lwip/lwip-2.1.2/src/core\udp.c **** #include "lwip/inet_chksum.h"
  57:C:/Users/stapi/OneDrive/Desktop/GD32VW553/GD32VW55X_Wifi_BLE_SDK/GD32VW55x_RELEASE_V1.0.2/MSDK/lwip/lwip-2.1.2/src/core\udp.c **** #include "lwip/ip_addr.h"
  58:C:/Users/stapi/OneDrive/Desktop/GD32VW553/GD32VW55X_Wifi_BLE_SDK/GD32VW55x_RELEASE_V1.0.2/MSDK/lwip/lwip-2.1.2/src/core\udp.c **** #include "lwip/ip6.h"
  59:C:/Users/stapi/OneDrive/Desktop/GD32VW553/GD32VW55X_Wifi_BLE_SDK/GD32VW55x_RELEASE_V1.0.2/MSDK/lwip/lwip-2.1.2/src/core\udp.c **** #include "lwip/ip6_addr.h"
  60:C:/Users/stapi/OneDrive/Desktop/GD32VW553/GD32VW55X_Wifi_BLE_SDK/GD32VW55x_RELEASE_V1.0.2/MSDK/lwip/lwip-2.1.2/src/core\udp.c **** #include "lwip/netif.h"
  61:C:/Users/stapi/OneDrive/Desktop/GD32VW553/GD32VW55X_Wifi_BLE_SDK/GD32VW55x_RELEASE_V1.0.2/MSDK/lwip/lwip-2.1.2/src/core\udp.c **** #include "lwip/icmp.h"
  62:C:/Users/stapi/OneDrive/Desktop/GD32VW553/GD32VW55X_Wifi_BLE_SDK/GD32VW55x_RELEASE_V1.0.2/MSDK/lwip/lwip-2.1.2/src/core\udp.c **** #include "lwip/icmp6.h"
  63:C:/Users/stapi/OneDrive/Desktop/GD32VW553/GD32VW55X_Wifi_BLE_SDK/GD32VW55x_RELEASE_V1.0.2/MSDK/lwip/lwip-2.1.2/src/core\udp.c **** #include "lwip/stats.h"
  64:C:/Users/stapi/OneDrive/Desktop/GD32VW553/GD32VW55X_Wifi_BLE_SDK/GD32VW55x_RELEASE_V1.0.2/MSDK/lwip/lwip-2.1.2/src/core\udp.c **** #include "lwip/snmp.h"
  65:C:/Users/stapi/OneDrive/Desktop/GD32VW553/GD32VW55X_Wifi_BLE_SDK/GD32VW55x_RELEASE_V1.0.2/MSDK/lwip/lwip-2.1.2/src/core\udp.c **** #include "lwip/dhcp.h"
  66:C:/Users/stapi/OneDrive/Desktop/GD32VW553/GD32VW55X_Wifi_BLE_SDK/GD32VW55x_RELEASE_V1.0.2/MSDK/lwip/lwip-2.1.2/src/core\udp.c **** 
  67:C:/Users/stapi/OneDrive/Desktop/GD32VW553/GD32VW55X_Wifi_BLE_SDK/GD32VW55x_RELEASE_V1.0.2/MSDK/lwip/lwip-2.1.2/src/core\udp.c **** #include <string.h>
  68:C:/Users/stapi/OneDrive/Desktop/GD32VW553/GD32VW55X_Wifi_BLE_SDK/GD32VW55x_RELEASE_V1.0.2/MSDK/lwip/lwip-2.1.2/src/core\udp.c **** 
  69:C:/Users/stapi/OneDrive/Desktop/GD32VW553/GD32VW55X_Wifi_BLE_SDK/GD32VW55x_RELEASE_V1.0.2/MSDK/lwip/lwip-2.1.2/src/core\udp.c **** #ifndef UDP_LOCAL_PORT_RANGE_START
  70:C:/Users/stapi/OneDrive/Desktop/GD32VW553/GD32VW55X_Wifi_BLE_SDK/GD32VW55x_RELEASE_V1.0.2/MSDK/lwip/lwip-2.1.2/src/core\udp.c **** /* From http://www.iana.org/assignments/port-numbers:
  71:C:/Users/stapi/OneDrive/Desktop/GD32VW553/GD32VW55X_Wifi_BLE_SDK/GD32VW55x_RELEASE_V1.0.2/MSDK/lwip/lwip-2.1.2/src/core\udp.c ****    "The Dynamic and/or Private Ports are those from 49152 through 65535" */
  72:C:/Users/stapi/OneDrive/Desktop/GD32VW553/GD32VW55X_Wifi_BLE_SDK/GD32VW55x_RELEASE_V1.0.2/MSDK/lwip/lwip-2.1.2/src/core\udp.c **** #define UDP_LOCAL_PORT_RANGE_START  0xc000
  73:C:/Users/stapi/OneDrive/Desktop/GD32VW553/GD32VW55X_Wifi_BLE_SDK/GD32VW55x_RELEASE_V1.0.2/MSDK/lwip/lwip-2.1.2/src/core\udp.c **** #define UDP_LOCAL_PORT_RANGE_END    0xffff
  74:C:/Users/stapi/OneDrive/Desktop/GD32VW553/GD32VW55X_Wifi_BLE_SDK/GD32VW55x_RELEASE_V1.0.2/MSDK/lwip/lwip-2.1.2/src/core\udp.c **** #define UDP_ENSURE_LOCAL_PORT_RANGE(port) ((u16_t)(((port) & (u16_t)~UDP_LOCAL_PORT_RANGE_START) + 
  75:C:/Users/stapi/OneDrive/Desktop/GD32VW553/GD32VW55X_Wifi_BLE_SDK/GD32VW55x_RELEASE_V1.0.2/MSDK/lwip/lwip-2.1.2/src/core\udp.c **** #endif
  76:C:/Users/stapi/OneDrive/Desktop/GD32VW553/GD32VW55X_Wifi_BLE_SDK/GD32VW55x_RELEASE_V1.0.2/MSDK/lwip/lwip-2.1.2/src/core\udp.c **** 
  77:C:/Users/stapi/OneDrive/Desktop/GD32VW553/GD32VW55X_Wifi_BLE_SDK/GD32VW55x_RELEASE_V1.0.2/MSDK/lwip/lwip-2.1.2/src/core\udp.c **** /* last local UDP port */
  78:C:/Users/stapi/OneDrive/Desktop/GD32VW553/GD32VW55X_Wifi_BLE_SDK/GD32VW55x_RELEASE_V1.0.2/MSDK/lwip/lwip-2.1.2/src/core\udp.c **** static u16_t udp_port = UDP_LOCAL_PORT_RANGE_START;
  79:C:/Users/stapi/OneDrive/Desktop/GD32VW553/GD32VW55X_Wifi_BLE_SDK/GD32VW55x_RELEASE_V1.0.2/MSDK/lwip/lwip-2.1.2/src/core\udp.c **** 
  80:C:/Users/stapi/OneDrive/Desktop/GD32VW553/GD32VW55X_Wifi_BLE_SDK/GD32VW55x_RELEASE_V1.0.2/MSDK/lwip/lwip-2.1.2/src/core\udp.c **** /* The list of UDP PCBs */
  81:C:/Users/stapi/OneDrive/Desktop/GD32VW553/GD32VW55X_Wifi_BLE_SDK/GD32VW55x_RELEASE_V1.0.2/MSDK/lwip/lwip-2.1.2/src/core\udp.c **** /* exported in udp.h (was static) */
  82:C:/Users/stapi/OneDrive/Desktop/GD32VW553/GD32VW55X_Wifi_BLE_SDK/GD32VW55x_RELEASE_V1.0.2/MSDK/lwip/lwip-2.1.2/src/core\udp.c **** struct udp_pcb *udp_pcbs;
  83:C:/Users/stapi/OneDrive/Desktop/GD32VW553/GD32VW55X_Wifi_BLE_SDK/GD32VW55x_RELEASE_V1.0.2/MSDK/lwip/lwip-2.1.2/src/core\udp.c **** 
  84:C:/Users/stapi/OneDrive/Desktop/GD32VW553/GD32VW55X_Wifi_BLE_SDK/GD32VW55x_RELEASE_V1.0.2/MSDK/lwip/lwip-2.1.2/src/core\udp.c **** /**
  85:C:/Users/stapi/OneDrive/Desktop/GD32VW553/GD32VW55X_Wifi_BLE_SDK/GD32VW55x_RELEASE_V1.0.2/MSDK/lwip/lwip-2.1.2/src/core\udp.c ****  * Initialize this module.
  86:C:/Users/stapi/OneDrive/Desktop/GD32VW553/GD32VW55X_Wifi_BLE_SDK/GD32VW55x_RELEASE_V1.0.2/MSDK/lwip/lwip-2.1.2/src/core\udp.c ****  */
  87:C:/Users/stapi/OneDrive/Desktop/GD32VW553/GD32VW55X_Wifi_BLE_SDK/GD32VW55x_RELEASE_V1.0.2/MSDK/lwip/lwip-2.1.2/src/core\udp.c **** void
  88:C:/Users/stapi/OneDrive/Desktop/GD32VW553/GD32VW55X_Wifi_BLE_SDK/GD32VW55x_RELEASE_V1.0.2/MSDK/lwip/lwip-2.1.2/src/core\udp.c **** udp_init(void)
  89:C:/Users/stapi/OneDrive/Desktop/GD32VW553/GD32VW55X_Wifi_BLE_SDK/GD32VW55x_RELEASE_V1.0.2/MSDK/lwip/lwip-2.1.2/src/core\udp.c **** {
  16              		.loc 1 89 1
  17              		.cfi_startproc
  18 0000 17030000 		call	t0,__riscv_save_0
  18      E7020300 
  19              		.cfi_offset 1, -4
  20              		.cfi_def_cfa_offset 16
  90:C:/Users/stapi/OneDrive/Desktop/GD32VW553/GD32VW55X_Wifi_BLE_SDK/GD32VW55x_RELEASE_V1.0.2/MSDK/lwip/lwip-2.1.2/src/core\udp.c **** #ifdef LWIP_RAND
  91:C:/Users/stapi/OneDrive/Desktop/GD32VW553/GD32VW55X_Wifi_BLE_SDK/GD32VW55x_RELEASE_V1.0.2/MSDK/lwip/lwip-2.1.2/src/core\udp.c ****   udp_port = UDP_ENSURE_LOCAL_PORT_RANGE(LWIP_RAND());
  21              		.loc 1 91 3
  22              		.loc 1 91 14 is_stmt 0
  23 0008 97000000 		call	rand
  23      E7800000 
  24              	.LVL0:
  25 0010 4A05     		slli	a0,a0,18
  26 0012 F177     		li	a5,-16384
  27 0014 4981     		srli	a0,a0,18
  28 0016 3E95     		add	a0,a0,a5
  29              		.loc 1 91 12
  30 0018 B7070000 		lui	a5,%hi(.LANCHOR0)
  31 001c 2390A700 		sh	a0,%lo(.LANCHOR0)(a5)
  92:C:/Users/stapi/OneDrive/Desktop/GD32VW553/GD32VW55X_Wifi_BLE_SDK/GD32VW55x_RELEASE_V1.0.2/MSDK/lwip/lwip-2.1.2/src/core\udp.c **** #endif /* LWIP_RAND */
  93:C:/Users/stapi/OneDrive/Desktop/GD32VW553/GD32VW55X_Wifi_BLE_SDK/GD32VW55x_RELEASE_V1.0.2/MSDK/lwip/lwip-2.1.2/src/core\udp.c **** }
  32              		.loc 1 93 1
  33 0020 17030000 		tail	__riscv_restore_0
  33      67000300 
  34              		.cfi_restore 1
  35              		.cfi_def_cfa_offset 0
  36              		.cfi_endproc
  37              	.LFE4:
  39              		.section	.rodata.udp_input.str1.4,"aMS",@progbits,1
  40              		.align	2
  41              	.LC0:
  42 0000 433A2F55 		.string	"C:/Users/stapi/OneDrive/Desktop/GD32VW553/GD32VW55X_Wifi_BLE_SDK/GD32VW55x_RELEASE_V1.0.2
  42      73657273 
  42      2F737461 
  42      70692F4F 
  42      6E654472 
  43 007e 0000     		.align	2
  44              	.LC1:
  45 0080 7564705F 		.string	"udp_input: invalid pbuf"
  45      696E7075 
  45      743A2069 
  45      6E76616C 
  45      69642070 
  46              		.align	2
  47              	.LC2:
  48 0098 41737365 		.string	"Assertion \"%s\" failed at line %d in %s\n"
  48      7274696F 
  48      6E202225 
  48      73222066 
  48      61696C65 
  49              		.align	2
  50              	.LC3:
  51 00c0 7564705F 		.string	"udp_input: invalid netif"
  51      696E7075 
  51      743A2069 
  51      6E76616C 
  51      6964206E 
  52 00d9 000000   		.align	2
  53              	.LC4:
  54 00dc 70627566 		.string	"pbuf_remove_header failed\n"
  54      5F72656D 
  54      6F76655F 
  54      68656164 
  54      65722066 
  55              		.section	.text.udp_input,"ax",@progbits
  56              		.align	1
  57              		.globl	udp_input
  59              	udp_input:
  60              	.LFB7:
  94:C:/Users/stapi/OneDrive/Desktop/GD32VW553/GD32VW55X_Wifi_BLE_SDK/GD32VW55x_RELEASE_V1.0.2/MSDK/lwip/lwip-2.1.2/src/core\udp.c **** 
  95:C:/Users/stapi/OneDrive/Desktop/GD32VW553/GD32VW55X_Wifi_BLE_SDK/GD32VW55x_RELEASE_V1.0.2/MSDK/lwip/lwip-2.1.2/src/core\udp.c **** /**
  96:C:/Users/stapi/OneDrive/Desktop/GD32VW553/GD32VW55X_Wifi_BLE_SDK/GD32VW55x_RELEASE_V1.0.2/MSDK/lwip/lwip-2.1.2/src/core\udp.c ****  * Allocate a new local UDP port.
  97:C:/Users/stapi/OneDrive/Desktop/GD32VW553/GD32VW55X_Wifi_BLE_SDK/GD32VW55x_RELEASE_V1.0.2/MSDK/lwip/lwip-2.1.2/src/core\udp.c ****  *
  98:C:/Users/stapi/OneDrive/Desktop/GD32VW553/GD32VW55X_Wifi_BLE_SDK/GD32VW55x_RELEASE_V1.0.2/MSDK/lwip/lwip-2.1.2/src/core\udp.c ****  * @return a new (free) local UDP port number
  99:C:/Users/stapi/OneDrive/Desktop/GD32VW553/GD32VW55X_Wifi_BLE_SDK/GD32VW55x_RELEASE_V1.0.2/MSDK/lwip/lwip-2.1.2/src/core\udp.c ****  */
 100:C:/Users/stapi/OneDrive/Desktop/GD32VW553/GD32VW55X_Wifi_BLE_SDK/GD32VW55x_RELEASE_V1.0.2/MSDK/lwip/lwip-2.1.2/src/core\udp.c **** static u16_t
 101:C:/Users/stapi/OneDrive/Desktop/GD32VW553/GD32VW55X_Wifi_BLE_SDK/GD32VW55x_RELEASE_V1.0.2/MSDK/lwip/lwip-2.1.2/src/core\udp.c **** udp_new_port(void)
 102:C:/Users/stapi/OneDrive/Desktop/GD32VW553/GD32VW55X_Wifi_BLE_SDK/GD32VW55x_RELEASE_V1.0.2/MSDK/lwip/lwip-2.1.2/src/core\udp.c **** {
 103:C:/Users/stapi/OneDrive/Desktop/GD32VW553/GD32VW55X_Wifi_BLE_SDK/GD32VW55x_RELEASE_V1.0.2/MSDK/lwip/lwip-2.1.2/src/core\udp.c ****   u16_t n = 0;
 104:C:/Users/stapi/OneDrive/Desktop/GD32VW553/GD32VW55X_Wifi_BLE_SDK/GD32VW55x_RELEASE_V1.0.2/MSDK/lwip/lwip-2.1.2/src/core\udp.c ****   struct udp_pcb *pcb;
 105:C:/Users/stapi/OneDrive/Desktop/GD32VW553/GD32VW55X_Wifi_BLE_SDK/GD32VW55x_RELEASE_V1.0.2/MSDK/lwip/lwip-2.1.2/src/core\udp.c **** 
 106:C:/Users/stapi/OneDrive/Desktop/GD32VW553/GD32VW55X_Wifi_BLE_SDK/GD32VW55x_RELEASE_V1.0.2/MSDK/lwip/lwip-2.1.2/src/core\udp.c **** again:
 107:C:/Users/stapi/OneDrive/Desktop/GD32VW553/GD32VW55X_Wifi_BLE_SDK/GD32VW55x_RELEASE_V1.0.2/MSDK/lwip/lwip-2.1.2/src/core\udp.c ****   if (udp_port++ == UDP_LOCAL_PORT_RANGE_END) {
 108:C:/Users/stapi/OneDrive/Desktop/GD32VW553/GD32VW55X_Wifi_BLE_SDK/GD32VW55x_RELEASE_V1.0.2/MSDK/lwip/lwip-2.1.2/src/core\udp.c ****     udp_port = UDP_LOCAL_PORT_RANGE_START;
 109:C:/Users/stapi/OneDrive/Desktop/GD32VW553/GD32VW55X_Wifi_BLE_SDK/GD32VW55x_RELEASE_V1.0.2/MSDK/lwip/lwip-2.1.2/src/core\udp.c ****   }
 110:C:/Users/stapi/OneDrive/Desktop/GD32VW553/GD32VW55X_Wifi_BLE_SDK/GD32VW55x_RELEASE_V1.0.2/MSDK/lwip/lwip-2.1.2/src/core\udp.c ****   /* Check all PCBs. */
 111:C:/Users/stapi/OneDrive/Desktop/GD32VW553/GD32VW55X_Wifi_BLE_SDK/GD32VW55x_RELEASE_V1.0.2/MSDK/lwip/lwip-2.1.2/src/core\udp.c ****   for (pcb = udp_pcbs; pcb != NULL; pcb = pcb->next) {
 112:C:/Users/stapi/OneDrive/Desktop/GD32VW553/GD32VW55X_Wifi_BLE_SDK/GD32VW55x_RELEASE_V1.0.2/MSDK/lwip/lwip-2.1.2/src/core\udp.c ****     if (pcb->local_port == udp_port) {
 113:C:/Users/stapi/OneDrive/Desktop/GD32VW553/GD32VW55X_Wifi_BLE_SDK/GD32VW55x_RELEASE_V1.0.2/MSDK/lwip/lwip-2.1.2/src/core\udp.c ****       if (++n > (UDP_LOCAL_PORT_RANGE_END - UDP_LOCAL_PORT_RANGE_START)) {
 114:C:/Users/stapi/OneDrive/Desktop/GD32VW553/GD32VW55X_Wifi_BLE_SDK/GD32VW55x_RELEASE_V1.0.2/MSDK/lwip/lwip-2.1.2/src/core\udp.c ****         return 0;
 115:C:/Users/stapi/OneDrive/Desktop/GD32VW553/GD32VW55X_Wifi_BLE_SDK/GD32VW55x_RELEASE_V1.0.2/MSDK/lwip/lwip-2.1.2/src/core\udp.c ****       }
 116:C:/Users/stapi/OneDrive/Desktop/GD32VW553/GD32VW55X_Wifi_BLE_SDK/GD32VW55x_RELEASE_V1.0.2/MSDK/lwip/lwip-2.1.2/src/core\udp.c ****       goto again;
 117:C:/Users/stapi/OneDrive/Desktop/GD32VW553/GD32VW55X_Wifi_BLE_SDK/GD32VW55x_RELEASE_V1.0.2/MSDK/lwip/lwip-2.1.2/src/core\udp.c ****     }
 118:C:/Users/stapi/OneDrive/Desktop/GD32VW553/GD32VW55X_Wifi_BLE_SDK/GD32VW55x_RELEASE_V1.0.2/MSDK/lwip/lwip-2.1.2/src/core\udp.c ****   }
 119:C:/Users/stapi/OneDrive/Desktop/GD32VW553/GD32VW55X_Wifi_BLE_SDK/GD32VW55x_RELEASE_V1.0.2/MSDK/lwip/lwip-2.1.2/src/core\udp.c ****   return udp_port;
 120:C:/Users/stapi/OneDrive/Desktop/GD32VW553/GD32VW55X_Wifi_BLE_SDK/GD32VW55x_RELEASE_V1.0.2/MSDK/lwip/lwip-2.1.2/src/core\udp.c **** }
 121:C:/Users/stapi/OneDrive/Desktop/GD32VW553/GD32VW55X_Wifi_BLE_SDK/GD32VW55x_RELEASE_V1.0.2/MSDK/lwip/lwip-2.1.2/src/core\udp.c **** 
 122:C:/Users/stapi/OneDrive/Desktop/GD32VW553/GD32VW55X_Wifi_BLE_SDK/GD32VW55x_RELEASE_V1.0.2/MSDK/lwip/lwip-2.1.2/src/core\udp.c **** /** Common code to see if the current input packet matches the pcb
 123:C:/Users/stapi/OneDrive/Desktop/GD32VW553/GD32VW55X_Wifi_BLE_SDK/GD32VW55x_RELEASE_V1.0.2/MSDK/lwip/lwip-2.1.2/src/core\udp.c ****  * (current input packet is accessed via ip(4/6)_current_* macros)
 124:C:/Users/stapi/OneDrive/Desktop/GD32VW553/GD32VW55X_Wifi_BLE_SDK/GD32VW55x_RELEASE_V1.0.2/MSDK/lwip/lwip-2.1.2/src/core\udp.c ****  *
 125:C:/Users/stapi/OneDrive/Desktop/GD32VW553/GD32VW55X_Wifi_BLE_SDK/GD32VW55x_RELEASE_V1.0.2/MSDK/lwip/lwip-2.1.2/src/core\udp.c ****  * @param pcb pcb to check
 126:C:/Users/stapi/OneDrive/Desktop/GD32VW553/GD32VW55X_Wifi_BLE_SDK/GD32VW55x_RELEASE_V1.0.2/MSDK/lwip/lwip-2.1.2/src/core\udp.c ****  * @param inp network interface on which the datagram was received (only used for IPv4)
 127:C:/Users/stapi/OneDrive/Desktop/GD32VW553/GD32VW55X_Wifi_BLE_SDK/GD32VW55x_RELEASE_V1.0.2/MSDK/lwip/lwip-2.1.2/src/core\udp.c ****  * @param broadcast 1 if his is an IPv4 broadcast (global or subnet-only), 0 otherwise (only used f
 128:C:/Users/stapi/OneDrive/Desktop/GD32VW553/GD32VW55X_Wifi_BLE_SDK/GD32VW55x_RELEASE_V1.0.2/MSDK/lwip/lwip-2.1.2/src/core\udp.c ****  * @return 1 on match, 0 otherwise
 129:C:/Users/stapi/OneDrive/Desktop/GD32VW553/GD32VW55X_Wifi_BLE_SDK/GD32VW55x_RELEASE_V1.0.2/MSDK/lwip/lwip-2.1.2/src/core\udp.c ****  */
 130:C:/Users/stapi/OneDrive/Desktop/GD32VW553/GD32VW55X_Wifi_BLE_SDK/GD32VW55x_RELEASE_V1.0.2/MSDK/lwip/lwip-2.1.2/src/core\udp.c **** static u8_t
 131:C:/Users/stapi/OneDrive/Desktop/GD32VW553/GD32VW55X_Wifi_BLE_SDK/GD32VW55x_RELEASE_V1.0.2/MSDK/lwip/lwip-2.1.2/src/core\udp.c **** udp_input_local_match(struct udp_pcb *pcb, struct netif *inp, u8_t broadcast)
 132:C:/Users/stapi/OneDrive/Desktop/GD32VW553/GD32VW55X_Wifi_BLE_SDK/GD32VW55x_RELEASE_V1.0.2/MSDK/lwip/lwip-2.1.2/src/core\udp.c **** {
 133:C:/Users/stapi/OneDrive/Desktop/GD32VW553/GD32VW55X_Wifi_BLE_SDK/GD32VW55x_RELEASE_V1.0.2/MSDK/lwip/lwip-2.1.2/src/core\udp.c ****   LWIP_UNUSED_ARG(inp);       /* in IPv6 only case */
 134:C:/Users/stapi/OneDrive/Desktop/GD32VW553/GD32VW55X_Wifi_BLE_SDK/GD32VW55x_RELEASE_V1.0.2/MSDK/lwip/lwip-2.1.2/src/core\udp.c ****   LWIP_UNUSED_ARG(broadcast); /* in IPv6 only case */
 135:C:/Users/stapi/OneDrive/Desktop/GD32VW553/GD32VW55X_Wifi_BLE_SDK/GD32VW55x_RELEASE_V1.0.2/MSDK/lwip/lwip-2.1.2/src/core\udp.c **** 
 136:C:/Users/stapi/OneDrive/Desktop/GD32VW553/GD32VW55X_Wifi_BLE_SDK/GD32VW55x_RELEASE_V1.0.2/MSDK/lwip/lwip-2.1.2/src/core\udp.c ****   LWIP_ASSERT("udp_input_local_match: invalid pcb", pcb != NULL);
 137:C:/Users/stapi/OneDrive/Desktop/GD32VW553/GD32VW55X_Wifi_BLE_SDK/GD32VW55x_RELEASE_V1.0.2/MSDK/lwip/lwip-2.1.2/src/core\udp.c ****   LWIP_ASSERT("udp_input_local_match: invalid netif", inp != NULL);
 138:C:/Users/stapi/OneDrive/Desktop/GD32VW553/GD32VW55X_Wifi_BLE_SDK/GD32VW55x_RELEASE_V1.0.2/MSDK/lwip/lwip-2.1.2/src/core\udp.c **** 
 139:C:/Users/stapi/OneDrive/Desktop/GD32VW553/GD32VW55X_Wifi_BLE_SDK/GD32VW55x_RELEASE_V1.0.2/MSDK/lwip/lwip-2.1.2/src/core\udp.c ****   /* check if PCB is bound to specific netif */
 140:C:/Users/stapi/OneDrive/Desktop/GD32VW553/GD32VW55X_Wifi_BLE_SDK/GD32VW55x_RELEASE_V1.0.2/MSDK/lwip/lwip-2.1.2/src/core\udp.c ****   if ((pcb->netif_idx != NETIF_NO_INDEX) &&
 141:C:/Users/stapi/OneDrive/Desktop/GD32VW553/GD32VW55X_Wifi_BLE_SDK/GD32VW55x_RELEASE_V1.0.2/MSDK/lwip/lwip-2.1.2/src/core\udp.c ****       (pcb->netif_idx != netif_get_index(ip_data.current_input_netif))) {
 142:C:/Users/stapi/OneDrive/Desktop/GD32VW553/GD32VW55X_Wifi_BLE_SDK/GD32VW55x_RELEASE_V1.0.2/MSDK/lwip/lwip-2.1.2/src/core\udp.c ****     return 0;
 143:C:/Users/stapi/OneDrive/Desktop/GD32VW553/GD32VW55X_Wifi_BLE_SDK/GD32VW55x_RELEASE_V1.0.2/MSDK/lwip/lwip-2.1.2/src/core\udp.c ****   }
 144:C:/Users/stapi/OneDrive/Desktop/GD32VW553/GD32VW55X_Wifi_BLE_SDK/GD32VW55x_RELEASE_V1.0.2/MSDK/lwip/lwip-2.1.2/src/core\udp.c **** 
 145:C:/Users/stapi/OneDrive/Desktop/GD32VW553/GD32VW55X_Wifi_BLE_SDK/GD32VW55x_RELEASE_V1.0.2/MSDK/lwip/lwip-2.1.2/src/core\udp.c ****   /* Dual-stack: PCBs listening to any IP type also listen to any IP address */
 146:C:/Users/stapi/OneDrive/Desktop/GD32VW553/GD32VW55X_Wifi_BLE_SDK/GD32VW55x_RELEASE_V1.0.2/MSDK/lwip/lwip-2.1.2/src/core\udp.c ****   if (IP_IS_ANY_TYPE_VAL(pcb->local_ip)) {
 147:C:/Users/stapi/OneDrive/Desktop/GD32VW553/GD32VW55X_Wifi_BLE_SDK/GD32VW55x_RELEASE_V1.0.2/MSDK/lwip/lwip-2.1.2/src/core\udp.c **** #if LWIP_IPV4 && IP_SOF_BROADCAST_RECV
 148:C:/Users/stapi/OneDrive/Desktop/GD32VW553/GD32VW55X_Wifi_BLE_SDK/GD32VW55x_RELEASE_V1.0.2/MSDK/lwip/lwip-2.1.2/src/core\udp.c ****     if ((broadcast != 0) && !ip_get_option(pcb, SOF_BROADCAST)) {
 149:C:/Users/stapi/OneDrive/Desktop/GD32VW553/GD32VW55X_Wifi_BLE_SDK/GD32VW55x_RELEASE_V1.0.2/MSDK/lwip/lwip-2.1.2/src/core\udp.c ****       return 0;
 150:C:/Users/stapi/OneDrive/Desktop/GD32VW553/GD32VW55X_Wifi_BLE_SDK/GD32VW55x_RELEASE_V1.0.2/MSDK/lwip/lwip-2.1.2/src/core\udp.c ****     }
 151:C:/Users/stapi/OneDrive/Desktop/GD32VW553/GD32VW55X_Wifi_BLE_SDK/GD32VW55x_RELEASE_V1.0.2/MSDK/lwip/lwip-2.1.2/src/core\udp.c **** #endif /* LWIP_IPV4 && IP_SOF_BROADCAST_RECV */
 152:C:/Users/stapi/OneDrive/Desktop/GD32VW553/GD32VW55X_Wifi_BLE_SDK/GD32VW55x_RELEASE_V1.0.2/MSDK/lwip/lwip-2.1.2/src/core\udp.c ****     return 1;
 153:C:/Users/stapi/OneDrive/Desktop/GD32VW553/GD32VW55X_Wifi_BLE_SDK/GD32VW55x_RELEASE_V1.0.2/MSDK/lwip/lwip-2.1.2/src/core\udp.c ****   }
 154:C:/Users/stapi/OneDrive/Desktop/GD32VW553/GD32VW55X_Wifi_BLE_SDK/GD32VW55x_RELEASE_V1.0.2/MSDK/lwip/lwip-2.1.2/src/core\udp.c **** 
 155:C:/Users/stapi/OneDrive/Desktop/GD32VW553/GD32VW55X_Wifi_BLE_SDK/GD32VW55x_RELEASE_V1.0.2/MSDK/lwip/lwip-2.1.2/src/core\udp.c ****   /* Only need to check PCB if incoming IP version matches PCB IP version */
 156:C:/Users/stapi/OneDrive/Desktop/GD32VW553/GD32VW55X_Wifi_BLE_SDK/GD32VW55x_RELEASE_V1.0.2/MSDK/lwip/lwip-2.1.2/src/core\udp.c ****   if (IP_ADDR_PCB_VERSION_MATCH_EXACT(pcb, ip_current_dest_addr())) {
 157:C:/Users/stapi/OneDrive/Desktop/GD32VW553/GD32VW55X_Wifi_BLE_SDK/GD32VW55x_RELEASE_V1.0.2/MSDK/lwip/lwip-2.1.2/src/core\udp.c **** #if LWIP_IPV4
 158:C:/Users/stapi/OneDrive/Desktop/GD32VW553/GD32VW55X_Wifi_BLE_SDK/GD32VW55x_RELEASE_V1.0.2/MSDK/lwip/lwip-2.1.2/src/core\udp.c ****     /* Special case: IPv4 broadcast: all or broadcasts in my subnet
 159:C:/Users/stapi/OneDrive/Desktop/GD32VW553/GD32VW55X_Wifi_BLE_SDK/GD32VW55x_RELEASE_V1.0.2/MSDK/lwip/lwip-2.1.2/src/core\udp.c ****      * Note: broadcast variable can only be 1 if it is an IPv4 broadcast */
 160:C:/Users/stapi/OneDrive/Desktop/GD32VW553/GD32VW55X_Wifi_BLE_SDK/GD32VW55x_RELEASE_V1.0.2/MSDK/lwip/lwip-2.1.2/src/core\udp.c ****     if (broadcast != 0) {
 161:C:/Users/stapi/OneDrive/Desktop/GD32VW553/GD32VW55X_Wifi_BLE_SDK/GD32VW55x_RELEASE_V1.0.2/MSDK/lwip/lwip-2.1.2/src/core\udp.c **** #if IP_SOF_BROADCAST_RECV
 162:C:/Users/stapi/OneDrive/Desktop/GD32VW553/GD32VW55X_Wifi_BLE_SDK/GD32VW55x_RELEASE_V1.0.2/MSDK/lwip/lwip-2.1.2/src/core\udp.c ****       if (ip_get_option(pcb, SOF_BROADCAST))
 163:C:/Users/stapi/OneDrive/Desktop/GD32VW553/GD32VW55X_Wifi_BLE_SDK/GD32VW55x_RELEASE_V1.0.2/MSDK/lwip/lwip-2.1.2/src/core\udp.c **** #endif /* IP_SOF_BROADCAST_RECV */
 164:C:/Users/stapi/OneDrive/Desktop/GD32VW553/GD32VW55X_Wifi_BLE_SDK/GD32VW55x_RELEASE_V1.0.2/MSDK/lwip/lwip-2.1.2/src/core\udp.c ****       {
 165:C:/Users/stapi/OneDrive/Desktop/GD32VW553/GD32VW55X_Wifi_BLE_SDK/GD32VW55x_RELEASE_V1.0.2/MSDK/lwip/lwip-2.1.2/src/core\udp.c ****         if (ip4_addr_isany(ip_2_ip4(&pcb->local_ip)) ||
 166:C:/Users/stapi/OneDrive/Desktop/GD32VW553/GD32VW55X_Wifi_BLE_SDK/GD32VW55x_RELEASE_V1.0.2/MSDK/lwip/lwip-2.1.2/src/core\udp.c ****             ((ip4_current_dest_addr()->addr == IPADDR_BROADCAST)) ||
 167:C:/Users/stapi/OneDrive/Desktop/GD32VW553/GD32VW55X_Wifi_BLE_SDK/GD32VW55x_RELEASE_V1.0.2/MSDK/lwip/lwip-2.1.2/src/core\udp.c ****             ip4_addr_netcmp(ip_2_ip4(&pcb->local_ip), ip4_current_dest_addr(), netif_ip4_netmask(in
 168:C:/Users/stapi/OneDrive/Desktop/GD32VW553/GD32VW55X_Wifi_BLE_SDK/GD32VW55x_RELEASE_V1.0.2/MSDK/lwip/lwip-2.1.2/src/core\udp.c ****           return 1;
 169:C:/Users/stapi/OneDrive/Desktop/GD32VW553/GD32VW55X_Wifi_BLE_SDK/GD32VW55x_RELEASE_V1.0.2/MSDK/lwip/lwip-2.1.2/src/core\udp.c ****         }
 170:C:/Users/stapi/OneDrive/Desktop/GD32VW553/GD32VW55X_Wifi_BLE_SDK/GD32VW55x_RELEASE_V1.0.2/MSDK/lwip/lwip-2.1.2/src/core\udp.c ****       }
 171:C:/Users/stapi/OneDrive/Desktop/GD32VW553/GD32VW55X_Wifi_BLE_SDK/GD32VW55x_RELEASE_V1.0.2/MSDK/lwip/lwip-2.1.2/src/core\udp.c ****     } else
 172:C:/Users/stapi/OneDrive/Desktop/GD32VW553/GD32VW55X_Wifi_BLE_SDK/GD32VW55x_RELEASE_V1.0.2/MSDK/lwip/lwip-2.1.2/src/core\udp.c **** #endif /* LWIP_IPV4 */
 173:C:/Users/stapi/OneDrive/Desktop/GD32VW553/GD32VW55X_Wifi_BLE_SDK/GD32VW55x_RELEASE_V1.0.2/MSDK/lwip/lwip-2.1.2/src/core\udp.c ****       /* Handle IPv4 and IPv6: all or exact match */
 174:C:/Users/stapi/OneDrive/Desktop/GD32VW553/GD32VW55X_Wifi_BLE_SDK/GD32VW55x_RELEASE_V1.0.2/MSDK/lwip/lwip-2.1.2/src/core\udp.c ****       if (ip_addr_isany(&pcb->local_ip) || ip_addr_cmp(&pcb->local_ip, ip_current_dest_addr())) {
 175:C:/Users/stapi/OneDrive/Desktop/GD32VW553/GD32VW55X_Wifi_BLE_SDK/GD32VW55x_RELEASE_V1.0.2/MSDK/lwip/lwip-2.1.2/src/core\udp.c ****         return 1;
 176:C:/Users/stapi/OneDrive/Desktop/GD32VW553/GD32VW55X_Wifi_BLE_SDK/GD32VW55x_RELEASE_V1.0.2/MSDK/lwip/lwip-2.1.2/src/core\udp.c ****       }
 177:C:/Users/stapi/OneDrive/Desktop/GD32VW553/GD32VW55X_Wifi_BLE_SDK/GD32VW55x_RELEASE_V1.0.2/MSDK/lwip/lwip-2.1.2/src/core\udp.c ****   }
 178:C:/Users/stapi/OneDrive/Desktop/GD32VW553/GD32VW55X_Wifi_BLE_SDK/GD32VW55x_RELEASE_V1.0.2/MSDK/lwip/lwip-2.1.2/src/core\udp.c **** 
 179:C:/Users/stapi/OneDrive/Desktop/GD32VW553/GD32VW55X_Wifi_BLE_SDK/GD32VW55x_RELEASE_V1.0.2/MSDK/lwip/lwip-2.1.2/src/core\udp.c ****   return 0;
 180:C:/Users/stapi/OneDrive/Desktop/GD32VW553/GD32VW55X_Wifi_BLE_SDK/GD32VW55x_RELEASE_V1.0.2/MSDK/lwip/lwip-2.1.2/src/core\udp.c **** }
 181:C:/Users/stapi/OneDrive/Desktop/GD32VW553/GD32VW55X_Wifi_BLE_SDK/GD32VW55x_RELEASE_V1.0.2/MSDK/lwip/lwip-2.1.2/src/core\udp.c **** 
 182:C:/Users/stapi/OneDrive/Desktop/GD32VW553/GD32VW55X_Wifi_BLE_SDK/GD32VW55x_RELEASE_V1.0.2/MSDK/lwip/lwip-2.1.2/src/core\udp.c **** /**
 183:C:/Users/stapi/OneDrive/Desktop/GD32VW553/GD32VW55X_Wifi_BLE_SDK/GD32VW55x_RELEASE_V1.0.2/MSDK/lwip/lwip-2.1.2/src/core\udp.c ****  * Process an incoming UDP datagram.
 184:C:/Users/stapi/OneDrive/Desktop/GD32VW553/GD32VW55X_Wifi_BLE_SDK/GD32VW55x_RELEASE_V1.0.2/MSDK/lwip/lwip-2.1.2/src/core\udp.c ****  *
 185:C:/Users/stapi/OneDrive/Desktop/GD32VW553/GD32VW55X_Wifi_BLE_SDK/GD32VW55x_RELEASE_V1.0.2/MSDK/lwip/lwip-2.1.2/src/core\udp.c ****  * Given an incoming UDP datagram (as a chain of pbufs) this function
 186:C:/Users/stapi/OneDrive/Desktop/GD32VW553/GD32VW55X_Wifi_BLE_SDK/GD32VW55x_RELEASE_V1.0.2/MSDK/lwip/lwip-2.1.2/src/core\udp.c ****  * finds a corresponding UDP PCB and hands over the pbuf to the pcbs
 187:C:/Users/stapi/OneDrive/Desktop/GD32VW553/GD32VW55X_Wifi_BLE_SDK/GD32VW55x_RELEASE_V1.0.2/MSDK/lwip/lwip-2.1.2/src/core\udp.c ****  * recv function. If no pcb is found or the datagram is incorrect, the
 188:C:/Users/stapi/OneDrive/Desktop/GD32VW553/GD32VW55X_Wifi_BLE_SDK/GD32VW55x_RELEASE_V1.0.2/MSDK/lwip/lwip-2.1.2/src/core\udp.c ****  * pbuf is freed.
 189:C:/Users/stapi/OneDrive/Desktop/GD32VW553/GD32VW55X_Wifi_BLE_SDK/GD32VW55x_RELEASE_V1.0.2/MSDK/lwip/lwip-2.1.2/src/core\udp.c ****  *
 190:C:/Users/stapi/OneDrive/Desktop/GD32VW553/GD32VW55X_Wifi_BLE_SDK/GD32VW55x_RELEASE_V1.0.2/MSDK/lwip/lwip-2.1.2/src/core\udp.c ****  * @param p pbuf to be demultiplexed to a UDP PCB (p->payload pointing to the UDP header)
 191:C:/Users/stapi/OneDrive/Desktop/GD32VW553/GD32VW55X_Wifi_BLE_SDK/GD32VW55x_RELEASE_V1.0.2/MSDK/lwip/lwip-2.1.2/src/core\udp.c ****  * @param inp network interface on which the datagram was received.
 192:C:/Users/stapi/OneDrive/Desktop/GD32VW553/GD32VW55X_Wifi_BLE_SDK/GD32VW55x_RELEASE_V1.0.2/MSDK/lwip/lwip-2.1.2/src/core\udp.c ****  *
 193:C:/Users/stapi/OneDrive/Desktop/GD32VW553/GD32VW55X_Wifi_BLE_SDK/GD32VW55x_RELEASE_V1.0.2/MSDK/lwip/lwip-2.1.2/src/core\udp.c ****  */
 194:C:/Users/stapi/OneDrive/Desktop/GD32VW553/GD32VW55X_Wifi_BLE_SDK/GD32VW55x_RELEASE_V1.0.2/MSDK/lwip/lwip-2.1.2/src/core\udp.c **** void
 195:C:/Users/stapi/OneDrive/Desktop/GD32VW553/GD32VW55X_Wifi_BLE_SDK/GD32VW55x_RELEASE_V1.0.2/MSDK/lwip/lwip-2.1.2/src/core\udp.c **** udp_input(struct pbuf *p, struct netif *inp)
 196:C:/Users/stapi/OneDrive/Desktop/GD32VW553/GD32VW55X_Wifi_BLE_SDK/GD32VW55x_RELEASE_V1.0.2/MSDK/lwip/lwip-2.1.2/src/core\udp.c **** {
  61              		.loc 1 196 1 is_stmt 1
  62              		.cfi_startproc
  63              	.LVL1:
  64 0000 17030000 		call	t0,__riscv_save_7
  64      E7020300 
  65              		.cfi_offset 22, -32
  66              		.cfi_offset 21, -28
  67              		.cfi_offset 20, -24
  68              		.cfi_offset 19, -20
  69              		.cfi_offset 18, -16
  70              		.cfi_offset 9, -12
  71              		.cfi_offset 8, -8
  72              		.cfi_offset 1, -4
  73              		.cfi_def_cfa_offset 32
 197:C:/Users/stapi/OneDrive/Desktop/GD32VW553/GD32VW55X_Wifi_BLE_SDK/GD32VW55x_RELEASE_V1.0.2/MSDK/lwip/lwip-2.1.2/src/core\udp.c ****   struct udp_hdr *udphdr;
  74              		.loc 1 197 3
 198:C:/Users/stapi/OneDrive/Desktop/GD32VW553/GD32VW55X_Wifi_BLE_SDK/GD32VW55x_RELEASE_V1.0.2/MSDK/lwip/lwip-2.1.2/src/core\udp.c ****   struct udp_pcb *pcb, *prev;
  75              		.loc 1 198 3
 199:C:/Users/stapi/OneDrive/Desktop/GD32VW553/GD32VW55X_Wifi_BLE_SDK/GD32VW55x_RELEASE_V1.0.2/MSDK/lwip/lwip-2.1.2/src/core\udp.c ****   struct udp_pcb *uncon_pcb;
  76              		.loc 1 199 3
 200:C:/Users/stapi/OneDrive/Desktop/GD32VW553/GD32VW55X_Wifi_BLE_SDK/GD32VW55x_RELEASE_V1.0.2/MSDK/lwip/lwip-2.1.2/src/core\udp.c ****   u16_t src, dest;
  77              		.loc 1 200 3
 201:C:/Users/stapi/OneDrive/Desktop/GD32VW553/GD32VW55X_Wifi_BLE_SDK/GD32VW55x_RELEASE_V1.0.2/MSDK/lwip/lwip-2.1.2/src/core\udp.c ****   u8_t broadcast;
  78              		.loc 1 201 3
 202:C:/Users/stapi/OneDrive/Desktop/GD32VW553/GD32VW55X_Wifi_BLE_SDK/GD32VW55x_RELEASE_V1.0.2/MSDK/lwip/lwip-2.1.2/src/core\udp.c ****   u8_t for_us = 0;
  79              		.loc 1 202 3
  80              	.LVL2:
 203:C:/Users/stapi/OneDrive/Desktop/GD32VW553/GD32VW55X_Wifi_BLE_SDK/GD32VW55x_RELEASE_V1.0.2/MSDK/lwip/lwip-2.1.2/src/core\udp.c **** 
 204:C:/Users/stapi/OneDrive/Desktop/GD32VW553/GD32VW55X_Wifi_BLE_SDK/GD32VW55x_RELEASE_V1.0.2/MSDK/lwip/lwip-2.1.2/src/core\udp.c ****   LWIP_UNUSED_ARG(inp);
  81              		.loc 1 204 3
 205:C:/Users/stapi/OneDrive/Desktop/GD32VW553/GD32VW55X_Wifi_BLE_SDK/GD32VW55x_RELEASE_V1.0.2/MSDK/lwip/lwip-2.1.2/src/core\udp.c **** 
 206:C:/Users/stapi/OneDrive/Desktop/GD32VW553/GD32VW55X_Wifi_BLE_SDK/GD32VW55x_RELEASE_V1.0.2/MSDK/lwip/lwip-2.1.2/src/core\udp.c ****   LWIP_ASSERT_CORE_LOCKED();
  82              		.loc 1 206 28
 207:C:/Users/stapi/OneDrive/Desktop/GD32VW553/GD32VW55X_Wifi_BLE_SDK/GD32VW55x_RELEASE_V1.0.2/MSDK/lwip/lwip-2.1.2/src/core\udp.c **** 
 208:C:/Users/stapi/OneDrive/Desktop/GD32VW553/GD32VW55X_Wifi_BLE_SDK/GD32VW55x_RELEASE_V1.0.2/MSDK/lwip/lwip-2.1.2/src/core\udp.c ****   LWIP_ASSERT("udp_input: invalid pbuf", p != NULL);
  83              		.loc 1 208 3
  84              		.loc 1 208 3
  85 0008 05E5     		bne	a0,zero,.L4
  86              		.loc 1 208 3 discriminator 1
  87              		.loc 1 208 3 discriminator 1
  88 000a B7060000 		lui	a3,%hi(.LC0)
  89 000e B7050000 		lui	a1,%hi(.LC1)
  90              	.LVL3:
  91 0012 37050000 		lui	a0,%hi(.LC2)
  92              	.LVL4:
  93 0016 93860600 		addi	a3,a3,%lo(.LC0)
  94 001a 1306000D 		li	a2,208
  95 001e 93850500 		addi	a1,a1,%lo(.LC1)
  96 0022 13050500 		addi	a0,a0,%lo(.LC2)
  97 0026 97000000 		call	printf
  97      E7800000 
  98              	.LVL5:
  99              	.L5:
 100              		.loc 1 208 3 discriminator 1
 101              		.loc 1 208 3 discriminator 1
 102              		.loc 1 208 3 discriminator 1
 103 002e 01A0     		j	.L5
 104              	.LVL6:
 105              	.L4:
 106 0030 AE89     		mv	s3,a1
 107              		.loc 1 208 3 discriminator 2
 108              		.loc 1 208 3 discriminator 2
 209:C:/Users/stapi/OneDrive/Desktop/GD32VW553/GD32VW55X_Wifi_BLE_SDK/GD32VW55x_RELEASE_V1.0.2/MSDK/lwip/lwip-2.1.2/src/core\udp.c ****   LWIP_ASSERT("udp_input: invalid netif", inp != NULL);
 109              		.loc 1 209 3 discriminator 2
 110              		.loc 1 209 3 discriminator 2
 111 0032 85E5     		bne	a1,zero,.L6
 112              		.loc 1 209 3 discriminator 1
 113              		.loc 1 209 3 discriminator 1
 114 0034 B7060000 		lui	a3,%hi(.LC0)
 115 0038 B7050000 		lui	a1,%hi(.LC3)
 116              	.LVL7:
 117 003c 37050000 		lui	a0,%hi(.LC2)
 118              	.LVL8:
 119 0040 93860600 		addi	a3,a3,%lo(.LC0)
 120 0044 1306100D 		li	a2,209
 121 0048 93850500 		addi	a1,a1,%lo(.LC3)
 122 004c 13050500 		addi	a0,a0,%lo(.LC2)
 123 0050 97000000 		call	printf
 123      E7800000 
 124              	.LVL9:
 125              	.L7:
 126              		.loc 1 209 3 discriminator 2
 127              		.loc 1 209 3 discriminator 2
 128              		.loc 1 209 3 discriminator 2
 129 0058 01A0     		j	.L7
 130              	.LVL10:
 131              	.L6:
 210:C:/Users/stapi/OneDrive/Desktop/GD32VW553/GD32VW55X_Wifi_BLE_SDK/GD32VW55x_RELEASE_V1.0.2/MSDK/lwip/lwip-2.1.2/src/core\udp.c **** 
 211:C:/Users/stapi/OneDrive/Desktop/GD32VW553/GD32VW55X_Wifi_BLE_SDK/GD32VW55x_RELEASE_V1.0.2/MSDK/lwip/lwip-2.1.2/src/core\udp.c ****   PERF_START;
 212:C:/Users/stapi/OneDrive/Desktop/GD32VW553/GD32VW55X_Wifi_BLE_SDK/GD32VW55x_RELEASE_V1.0.2/MSDK/lwip/lwip-2.1.2/src/core\udp.c **** 
 213:C:/Users/stapi/OneDrive/Desktop/GD32VW553/GD32VW55X_Wifi_BLE_SDK/GD32VW55x_RELEASE_V1.0.2/MSDK/lwip/lwip-2.1.2/src/core\udp.c ****   UDP_STATS_INC(udp.recv);
 214:C:/Users/stapi/OneDrive/Desktop/GD32VW553/GD32VW55X_Wifi_BLE_SDK/GD32VW55x_RELEASE_V1.0.2/MSDK/lwip/lwip-2.1.2/src/core\udp.c **** 
 215:C:/Users/stapi/OneDrive/Desktop/GD32VW553/GD32VW55X_Wifi_BLE_SDK/GD32VW55x_RELEASE_V1.0.2/MSDK/lwip/lwip-2.1.2/src/core\udp.c ****   /* Check minimum length (UDP header) */
 216:C:/Users/stapi/OneDrive/Desktop/GD32VW553/GD32VW55X_Wifi_BLE_SDK/GD32VW55x_RELEASE_V1.0.2/MSDK/lwip/lwip-2.1.2/src/core\udp.c ****   if (p->len < UDP_HLEN) {
 132              		.loc 1 216 6 is_stmt 0 discriminator 2
 133 005a 0357A500 		lhu	a4,10(a0)
 134 005e 9D47     		li	a5,7
 135 0060 2A84     		mv	s0,a0
 209:C:/Users/stapi/OneDrive/Desktop/GD32VW553/GD32VW55X_Wifi_BLE_SDK/GD32VW55x_RELEASE_V1.0.2/MSDK/lwip/lwip-2.1.2/src/core\udp.c ****   LWIP_ASSERT("udp_input: invalid netif", inp != NULL);
 136              		.loc 1 209 3 is_stmt 1 discriminator 2
 209:C:/Users/stapi/OneDrive/Desktop/GD32VW553/GD32VW55X_Wifi_BLE_SDK/GD32VW55x_RELEASE_V1.0.2/MSDK/lwip/lwip-2.1.2/src/core\udp.c ****   LWIP_ASSERT("udp_input: invalid netif", inp != NULL);
 137              		.loc 1 209 3 discriminator 2
 211:C:/Users/stapi/OneDrive/Desktop/GD32VW553/GD32VW55X_Wifi_BLE_SDK/GD32VW55x_RELEASE_V1.0.2/MSDK/lwip/lwip-2.1.2/src/core\udp.c **** 
 138              		.loc 1 211 13 discriminator 2
 213:C:/Users/stapi/OneDrive/Desktop/GD32VW553/GD32VW55X_Wifi_BLE_SDK/GD32VW55x_RELEASE_V1.0.2/MSDK/lwip/lwip-2.1.2/src/core\udp.c **** 
 139              		.loc 1 213 26 discriminator 2
 140              		.loc 1 216 3 discriminator 2
 141              		.loc 1 216 6 is_stmt 0 discriminator 2
 142 0062 63EBE700 		bgtu	a4,a5,.L8
 143              	.LVL11:
 144              	.L21:
 217:C:/Users/stapi/OneDrive/Desktop/GD32VW553/GD32VW55X_Wifi_BLE_SDK/GD32VW55x_RELEASE_V1.0.2/MSDK/lwip/lwip-2.1.2/src/core\udp.c ****     /* drop short packets */
 218:C:/Users/stapi/OneDrive/Desktop/GD32VW553/GD32VW55X_Wifi_BLE_SDK/GD32VW55x_RELEASE_V1.0.2/MSDK/lwip/lwip-2.1.2/src/core\udp.c ****     LWIP_DEBUGF(UDP_DEBUG,
 219:C:/Users/stapi/OneDrive/Desktop/GD32VW553/GD32VW55X_Wifi_BLE_SDK/GD32VW55x_RELEASE_V1.0.2/MSDK/lwip/lwip-2.1.2/src/core\udp.c ****                 ("udp_input: short UDP datagram (%"U16_F" bytes) discarded\n", p->tot_len));
 145              		.loc 1 219 92 is_stmt 1
 220:C:/Users/stapi/OneDrive/Desktop/GD32VW553/GD32VW55X_Wifi_BLE_SDK/GD32VW55x_RELEASE_V1.0.2/MSDK/lwip/lwip-2.1.2/src/core\udp.c ****     UDP_STATS_INC(udp.lenerr);
 146              		.loc 1 220 30
 221:C:/Users/stapi/OneDrive/Desktop/GD32VW553/GD32VW55X_Wifi_BLE_SDK/GD32VW55x_RELEASE_V1.0.2/MSDK/lwip/lwip-2.1.2/src/core\udp.c ****     UDP_STATS_INC(udp.drop);
 147              		.loc 1 221 28
 222:C:/Users/stapi/OneDrive/Desktop/GD32VW553/GD32VW55X_Wifi_BLE_SDK/GD32VW55x_RELEASE_V1.0.2/MSDK/lwip/lwip-2.1.2/src/core\udp.c ****     MIB2_STATS_INC(mib2.udpinerrors);
 148              		.loc 1 222 37
 223:C:/Users/stapi/OneDrive/Desktop/GD32VW553/GD32VW55X_Wifi_BLE_SDK/GD32VW55x_RELEASE_V1.0.2/MSDK/lwip/lwip-2.1.2/src/core\udp.c ****     pbuf_free(p);
 149              		.loc 1 223 5
 150 0066 2285     		mv	a0,s0
 151 0068 97000000 		call	pbuf_free
 151      E7800000 
 152              	.LVL12:
 224:C:/Users/stapi/OneDrive/Desktop/GD32VW553/GD32VW55X_Wifi_BLE_SDK/GD32VW55x_RELEASE_V1.0.2/MSDK/lwip/lwip-2.1.2/src/core\udp.c ****     goto end;
 153              		.loc 1 224 5
 154              	.L3:
 225:C:/Users/stapi/OneDrive/Desktop/GD32VW553/GD32VW55X_Wifi_BLE_SDK/GD32VW55x_RELEASE_V1.0.2/MSDK/lwip/lwip-2.1.2/src/core\udp.c ****   }
 226:C:/Users/stapi/OneDrive/Desktop/GD32VW553/GD32VW55X_Wifi_BLE_SDK/GD32VW55x_RELEASE_V1.0.2/MSDK/lwip/lwip-2.1.2/src/core\udp.c **** 
 227:C:/Users/stapi/OneDrive/Desktop/GD32VW553/GD32VW55X_Wifi_BLE_SDK/GD32VW55x_RELEASE_V1.0.2/MSDK/lwip/lwip-2.1.2/src/core\udp.c ****   udphdr = (struct udp_hdr *)p->payload;
 228:C:/Users/stapi/OneDrive/Desktop/GD32VW553/GD32VW55X_Wifi_BLE_SDK/GD32VW55x_RELEASE_V1.0.2/MSDK/lwip/lwip-2.1.2/src/core\udp.c **** 
 229:C:/Users/stapi/OneDrive/Desktop/GD32VW553/GD32VW55X_Wifi_BLE_SDK/GD32VW55x_RELEASE_V1.0.2/MSDK/lwip/lwip-2.1.2/src/core\udp.c ****   /* is broadcast packet ? */
 230:C:/Users/stapi/OneDrive/Desktop/GD32VW553/GD32VW55X_Wifi_BLE_SDK/GD32VW55x_RELEASE_V1.0.2/MSDK/lwip/lwip-2.1.2/src/core\udp.c ****   broadcast = ip_addr_isbroadcast(ip_current_dest_addr(), ip_current_netif());
 231:C:/Users/stapi/OneDrive/Desktop/GD32VW553/GD32VW55X_Wifi_BLE_SDK/GD32VW55x_RELEASE_V1.0.2/MSDK/lwip/lwip-2.1.2/src/core\udp.c **** 
 232:C:/Users/stapi/OneDrive/Desktop/GD32VW553/GD32VW55X_Wifi_BLE_SDK/GD32VW55x_RELEASE_V1.0.2/MSDK/lwip/lwip-2.1.2/src/core\udp.c ****   LWIP_DEBUGF(UDP_DEBUG, ("udp_input: received datagram of length %"U16_F"\n", p->tot_len));
 233:C:/Users/stapi/OneDrive/Desktop/GD32VW553/GD32VW55X_Wifi_BLE_SDK/GD32VW55x_RELEASE_V1.0.2/MSDK/lwip/lwip-2.1.2/src/core\udp.c **** 
 234:C:/Users/stapi/OneDrive/Desktop/GD32VW553/GD32VW55X_Wifi_BLE_SDK/GD32VW55x_RELEASE_V1.0.2/MSDK/lwip/lwip-2.1.2/src/core\udp.c ****   /* convert src and dest ports to host byte order */
 235:C:/Users/stapi/OneDrive/Desktop/GD32VW553/GD32VW55X_Wifi_BLE_SDK/GD32VW55x_RELEASE_V1.0.2/MSDK/lwip/lwip-2.1.2/src/core\udp.c ****   src = lwip_ntohs(udphdr->src);
 236:C:/Users/stapi/OneDrive/Desktop/GD32VW553/GD32VW55X_Wifi_BLE_SDK/GD32VW55x_RELEASE_V1.0.2/MSDK/lwip/lwip-2.1.2/src/core\udp.c ****   dest = lwip_ntohs(udphdr->dest);
 237:C:/Users/stapi/OneDrive/Desktop/GD32VW553/GD32VW55X_Wifi_BLE_SDK/GD32VW55x_RELEASE_V1.0.2/MSDK/lwip/lwip-2.1.2/src/core\udp.c **** 
 238:C:/Users/stapi/OneDrive/Desktop/GD32VW553/GD32VW55X_Wifi_BLE_SDK/GD32VW55x_RELEASE_V1.0.2/MSDK/lwip/lwip-2.1.2/src/core\udp.c ****   udp_debug_print(udphdr);
 239:C:/Users/stapi/OneDrive/Desktop/GD32VW553/GD32VW55X_Wifi_BLE_SDK/GD32VW55x_RELEASE_V1.0.2/MSDK/lwip/lwip-2.1.2/src/core\udp.c **** 
 240:C:/Users/stapi/OneDrive/Desktop/GD32VW553/GD32VW55X_Wifi_BLE_SDK/GD32VW55x_RELEASE_V1.0.2/MSDK/lwip/lwip-2.1.2/src/core\udp.c ****   /* print the UDP source and destination */
 241:C:/Users/stapi/OneDrive/Desktop/GD32VW553/GD32VW55X_Wifi_BLE_SDK/GD32VW55x_RELEASE_V1.0.2/MSDK/lwip/lwip-2.1.2/src/core\udp.c ****   LWIP_DEBUGF(UDP_DEBUG, ("udp ("));
 242:C:/Users/stapi/OneDrive/Desktop/GD32VW553/GD32VW55X_Wifi_BLE_SDK/GD32VW55x_RELEASE_V1.0.2/MSDK/lwip/lwip-2.1.2/src/core\udp.c ****   ip_addr_debug_print_val(UDP_DEBUG, *ip_current_dest_addr());
 243:C:/Users/stapi/OneDrive/Desktop/GD32VW553/GD32VW55X_Wifi_BLE_SDK/GD32VW55x_RELEASE_V1.0.2/MSDK/lwip/lwip-2.1.2/src/core\udp.c ****   LWIP_DEBUGF(UDP_DEBUG, (", %"U16_F") <-- (", lwip_ntohs(udphdr->dest)));
 244:C:/Users/stapi/OneDrive/Desktop/GD32VW553/GD32VW55X_Wifi_BLE_SDK/GD32VW55x_RELEASE_V1.0.2/MSDK/lwip/lwip-2.1.2/src/core\udp.c ****   ip_addr_debug_print_val(UDP_DEBUG, *ip_current_src_addr());
 245:C:/Users/stapi/OneDrive/Desktop/GD32VW553/GD32VW55X_Wifi_BLE_SDK/GD32VW55x_RELEASE_V1.0.2/MSDK/lwip/lwip-2.1.2/src/core\udp.c ****   LWIP_DEBUGF(UDP_DEBUG, (", %"U16_F")\n", lwip_ntohs(udphdr->src)));
 246:C:/Users/stapi/OneDrive/Desktop/GD32VW553/GD32VW55X_Wifi_BLE_SDK/GD32VW55x_RELEASE_V1.0.2/MSDK/lwip/lwip-2.1.2/src/core\udp.c **** 
 247:C:/Users/stapi/OneDrive/Desktop/GD32VW553/GD32VW55X_Wifi_BLE_SDK/GD32VW55x_RELEASE_V1.0.2/MSDK/lwip/lwip-2.1.2/src/core\udp.c ****   pcb = NULL;
 248:C:/Users/stapi/OneDrive/Desktop/GD32VW553/GD32VW55X_Wifi_BLE_SDK/GD32VW55x_RELEASE_V1.0.2/MSDK/lwip/lwip-2.1.2/src/core\udp.c ****   prev = NULL;
 249:C:/Users/stapi/OneDrive/Desktop/GD32VW553/GD32VW55X_Wifi_BLE_SDK/GD32VW55x_RELEASE_V1.0.2/MSDK/lwip/lwip-2.1.2/src/core\udp.c ****   uncon_pcb = NULL;
 250:C:/Users/stapi/OneDrive/Desktop/GD32VW553/GD32VW55X_Wifi_BLE_SDK/GD32VW55x_RELEASE_V1.0.2/MSDK/lwip/lwip-2.1.2/src/core\udp.c ****   /* Iterate through the UDP pcb list for a matching pcb.
 251:C:/Users/stapi/OneDrive/Desktop/GD32VW553/GD32VW55X_Wifi_BLE_SDK/GD32VW55x_RELEASE_V1.0.2/MSDK/lwip/lwip-2.1.2/src/core\udp.c ****    * 'Perfect match' pcbs (connected to the remote port & ip address) are
 252:C:/Users/stapi/OneDrive/Desktop/GD32VW553/GD32VW55X_Wifi_BLE_SDK/GD32VW55x_RELEASE_V1.0.2/MSDK/lwip/lwip-2.1.2/src/core\udp.c ****    * preferred. If no perfect match is found, the first unconnected pcb that
 253:C:/Users/stapi/OneDrive/Desktop/GD32VW553/GD32VW55X_Wifi_BLE_SDK/GD32VW55x_RELEASE_V1.0.2/MSDK/lwip/lwip-2.1.2/src/core\udp.c ****    * matches the local port and ip address gets the datagram. */
 254:C:/Users/stapi/OneDrive/Desktop/GD32VW553/GD32VW55X_Wifi_BLE_SDK/GD32VW55x_RELEASE_V1.0.2/MSDK/lwip/lwip-2.1.2/src/core\udp.c ****   for (pcb = udp_pcbs; pcb != NULL; pcb = pcb->next) {
 255:C:/Users/stapi/OneDrive/Desktop/GD32VW553/GD32VW55X_Wifi_BLE_SDK/GD32VW55x_RELEASE_V1.0.2/MSDK/lwip/lwip-2.1.2/src/core\udp.c ****     /* print the PCB local and remote address */
 256:C:/Users/stapi/OneDrive/Desktop/GD32VW553/GD32VW55X_Wifi_BLE_SDK/GD32VW55x_RELEASE_V1.0.2/MSDK/lwip/lwip-2.1.2/src/core\udp.c ****     LWIP_DEBUGF(UDP_DEBUG, ("pcb ("));
 257:C:/Users/stapi/OneDrive/Desktop/GD32VW553/GD32VW55X_Wifi_BLE_SDK/GD32VW55x_RELEASE_V1.0.2/MSDK/lwip/lwip-2.1.2/src/core\udp.c ****     ip_addr_debug_print_val(UDP_DEBUG, pcb->local_ip);
 258:C:/Users/stapi/OneDrive/Desktop/GD32VW553/GD32VW55X_Wifi_BLE_SDK/GD32VW55x_RELEASE_V1.0.2/MSDK/lwip/lwip-2.1.2/src/core\udp.c ****     LWIP_DEBUGF(UDP_DEBUG, (", %"U16_F") <-- (", pcb->local_port));
 259:C:/Users/stapi/OneDrive/Desktop/GD32VW553/GD32VW55X_Wifi_BLE_SDK/GD32VW55x_RELEASE_V1.0.2/MSDK/lwip/lwip-2.1.2/src/core\udp.c ****     ip_addr_debug_print_val(UDP_DEBUG, pcb->remote_ip);
 260:C:/Users/stapi/OneDrive/Desktop/GD32VW553/GD32VW55X_Wifi_BLE_SDK/GD32VW55x_RELEASE_V1.0.2/MSDK/lwip/lwip-2.1.2/src/core\udp.c ****     LWIP_DEBUGF(UDP_DEBUG, (", %"U16_F")\n", pcb->remote_port));
 261:C:/Users/stapi/OneDrive/Desktop/GD32VW553/GD32VW55X_Wifi_BLE_SDK/GD32VW55x_RELEASE_V1.0.2/MSDK/lwip/lwip-2.1.2/src/core\udp.c **** 
 262:C:/Users/stapi/OneDrive/Desktop/GD32VW553/GD32VW55X_Wifi_BLE_SDK/GD32VW55x_RELEASE_V1.0.2/MSDK/lwip/lwip-2.1.2/src/core\udp.c ****     /* compare PCB local addr+port to UDP destination addr+port */
 263:C:/Users/stapi/OneDrive/Desktop/GD32VW553/GD32VW55X_Wifi_BLE_SDK/GD32VW55x_RELEASE_V1.0.2/MSDK/lwip/lwip-2.1.2/src/core\udp.c ****     if ((pcb->local_port == dest) &&
 264:C:/Users/stapi/OneDrive/Desktop/GD32VW553/GD32VW55X_Wifi_BLE_SDK/GD32VW55x_RELEASE_V1.0.2/MSDK/lwip/lwip-2.1.2/src/core\udp.c ****         (udp_input_local_match(pcb, inp, broadcast) != 0)) {
 265:C:/Users/stapi/OneDrive/Desktop/GD32VW553/GD32VW55X_Wifi_BLE_SDK/GD32VW55x_RELEASE_V1.0.2/MSDK/lwip/lwip-2.1.2/src/core\udp.c ****       if ((pcb->flags & UDP_FLAGS_CONNECTED) == 0) {
 266:C:/Users/stapi/OneDrive/Desktop/GD32VW553/GD32VW55X_Wifi_BLE_SDK/GD32VW55x_RELEASE_V1.0.2/MSDK/lwip/lwip-2.1.2/src/core\udp.c ****         if (uncon_pcb == NULL) {
 267:C:/Users/stapi/OneDrive/Desktop/GD32VW553/GD32VW55X_Wifi_BLE_SDK/GD32VW55x_RELEASE_V1.0.2/MSDK/lwip/lwip-2.1.2/src/core\udp.c ****           /* the first unconnected matching PCB */
 268:C:/Users/stapi/OneDrive/Desktop/GD32VW553/GD32VW55X_Wifi_BLE_SDK/GD32VW55x_RELEASE_V1.0.2/MSDK/lwip/lwip-2.1.2/src/core\udp.c ****           uncon_pcb = pcb;
 269:C:/Users/stapi/OneDrive/Desktop/GD32VW553/GD32VW55X_Wifi_BLE_SDK/GD32VW55x_RELEASE_V1.0.2/MSDK/lwip/lwip-2.1.2/src/core\udp.c **** #if LWIP_IPV4
 270:C:/Users/stapi/OneDrive/Desktop/GD32VW553/GD32VW55X_Wifi_BLE_SDK/GD32VW55x_RELEASE_V1.0.2/MSDK/lwip/lwip-2.1.2/src/core\udp.c ****         } else if (broadcast && ip4_current_dest_addr()->addr == IPADDR_BROADCAST) {
 271:C:/Users/stapi/OneDrive/Desktop/GD32VW553/GD32VW55X_Wifi_BLE_SDK/GD32VW55x_RELEASE_V1.0.2/MSDK/lwip/lwip-2.1.2/src/core\udp.c ****           /* global broadcast address (only valid for IPv4; match was checked before) */
 272:C:/Users/stapi/OneDrive/Desktop/GD32VW553/GD32VW55X_Wifi_BLE_SDK/GD32VW55x_RELEASE_V1.0.2/MSDK/lwip/lwip-2.1.2/src/core\udp.c ****           if (!IP_IS_V4_VAL(uncon_pcb->local_ip) || !ip4_addr_cmp(ip_2_ip4(&uncon_pcb->local_ip), n
 273:C:/Users/stapi/OneDrive/Desktop/GD32VW553/GD32VW55X_Wifi_BLE_SDK/GD32VW55x_RELEASE_V1.0.2/MSDK/lwip/lwip-2.1.2/src/core\udp.c ****             /* uncon_pcb does not match the input netif, check this pcb */
 274:C:/Users/stapi/OneDrive/Desktop/GD32VW553/GD32VW55X_Wifi_BLE_SDK/GD32VW55x_RELEASE_V1.0.2/MSDK/lwip/lwip-2.1.2/src/core\udp.c ****             if (IP_IS_V4_VAL(pcb->local_ip) && ip4_addr_cmp(ip_2_ip4(&pcb->local_ip), netif_ip4_add
 275:C:/Users/stapi/OneDrive/Desktop/GD32VW553/GD32VW55X_Wifi_BLE_SDK/GD32VW55x_RELEASE_V1.0.2/MSDK/lwip/lwip-2.1.2/src/core\udp.c ****               /* better match */
 276:C:/Users/stapi/OneDrive/Desktop/GD32VW553/GD32VW55X_Wifi_BLE_SDK/GD32VW55x_RELEASE_V1.0.2/MSDK/lwip/lwip-2.1.2/src/core\udp.c ****               uncon_pcb = pcb;
 277:C:/Users/stapi/OneDrive/Desktop/GD32VW553/GD32VW55X_Wifi_BLE_SDK/GD32VW55x_RELEASE_V1.0.2/MSDK/lwip/lwip-2.1.2/src/core\udp.c ****             }
 278:C:/Users/stapi/OneDrive/Desktop/GD32VW553/GD32VW55X_Wifi_BLE_SDK/GD32VW55x_RELEASE_V1.0.2/MSDK/lwip/lwip-2.1.2/src/core\udp.c ****           }
 279:C:/Users/stapi/OneDrive/Desktop/GD32VW553/GD32VW55X_Wifi_BLE_SDK/GD32VW55x_RELEASE_V1.0.2/MSDK/lwip/lwip-2.1.2/src/core\udp.c **** #endif /* LWIP_IPV4 */
 280:C:/Users/stapi/OneDrive/Desktop/GD32VW553/GD32VW55X_Wifi_BLE_SDK/GD32VW55x_RELEASE_V1.0.2/MSDK/lwip/lwip-2.1.2/src/core\udp.c ****         }
 281:C:/Users/stapi/OneDrive/Desktop/GD32VW553/GD32VW55X_Wifi_BLE_SDK/GD32VW55x_RELEASE_V1.0.2/MSDK/lwip/lwip-2.1.2/src/core\udp.c **** #if SO_REUSE
 282:C:/Users/stapi/OneDrive/Desktop/GD32VW553/GD32VW55X_Wifi_BLE_SDK/GD32VW55x_RELEASE_V1.0.2/MSDK/lwip/lwip-2.1.2/src/core\udp.c ****         else if (!ip_addr_isany(&pcb->local_ip)) {
 283:C:/Users/stapi/OneDrive/Desktop/GD32VW553/GD32VW55X_Wifi_BLE_SDK/GD32VW55x_RELEASE_V1.0.2/MSDK/lwip/lwip-2.1.2/src/core\udp.c ****           /* prefer specific IPs over catch-all */
 284:C:/Users/stapi/OneDrive/Desktop/GD32VW553/GD32VW55X_Wifi_BLE_SDK/GD32VW55x_RELEASE_V1.0.2/MSDK/lwip/lwip-2.1.2/src/core\udp.c ****           uncon_pcb = pcb;
 285:C:/Users/stapi/OneDrive/Desktop/GD32VW553/GD32VW55X_Wifi_BLE_SDK/GD32VW55x_RELEASE_V1.0.2/MSDK/lwip/lwip-2.1.2/src/core\udp.c ****         }
 286:C:/Users/stapi/OneDrive/Desktop/GD32VW553/GD32VW55X_Wifi_BLE_SDK/GD32VW55x_RELEASE_V1.0.2/MSDK/lwip/lwip-2.1.2/src/core\udp.c **** #endif /* SO_REUSE */
 287:C:/Users/stapi/OneDrive/Desktop/GD32VW553/GD32VW55X_Wifi_BLE_SDK/GD32VW55x_RELEASE_V1.0.2/MSDK/lwip/lwip-2.1.2/src/core\udp.c ****       }
 288:C:/Users/stapi/OneDrive/Desktop/GD32VW553/GD32VW55X_Wifi_BLE_SDK/GD32VW55x_RELEASE_V1.0.2/MSDK/lwip/lwip-2.1.2/src/core\udp.c **** 
 289:C:/Users/stapi/OneDrive/Desktop/GD32VW553/GD32VW55X_Wifi_BLE_SDK/GD32VW55x_RELEASE_V1.0.2/MSDK/lwip/lwip-2.1.2/src/core\udp.c ****       /* compare PCB remote addr+port to UDP source addr+port */
 290:C:/Users/stapi/OneDrive/Desktop/GD32VW553/GD32VW55X_Wifi_BLE_SDK/GD32VW55x_RELEASE_V1.0.2/MSDK/lwip/lwip-2.1.2/src/core\udp.c ****       if ((pcb->remote_port == src) &&
 291:C:/Users/stapi/OneDrive/Desktop/GD32VW553/GD32VW55X_Wifi_BLE_SDK/GD32VW55x_RELEASE_V1.0.2/MSDK/lwip/lwip-2.1.2/src/core\udp.c ****           (ip_addr_isany_val(pcb->remote_ip) ||
 292:C:/Users/stapi/OneDrive/Desktop/GD32VW553/GD32VW55X_Wifi_BLE_SDK/GD32VW55x_RELEASE_V1.0.2/MSDK/lwip/lwip-2.1.2/src/core\udp.c ****            ip_addr_cmp(&pcb->remote_ip, ip_current_src_addr()))) {
 293:C:/Users/stapi/OneDrive/Desktop/GD32VW553/GD32VW55X_Wifi_BLE_SDK/GD32VW55x_RELEASE_V1.0.2/MSDK/lwip/lwip-2.1.2/src/core\udp.c ****         /* the first fully matching PCB */
 294:C:/Users/stapi/OneDrive/Desktop/GD32VW553/GD32VW55X_Wifi_BLE_SDK/GD32VW55x_RELEASE_V1.0.2/MSDK/lwip/lwip-2.1.2/src/core\udp.c ****         if (prev != NULL) {
 295:C:/Users/stapi/OneDrive/Desktop/GD32VW553/GD32VW55X_Wifi_BLE_SDK/GD32VW55x_RELEASE_V1.0.2/MSDK/lwip/lwip-2.1.2/src/core\udp.c ****           /* move the pcb to the front of udp_pcbs so that is
 296:C:/Users/stapi/OneDrive/Desktop/GD32VW553/GD32VW55X_Wifi_BLE_SDK/GD32VW55x_RELEASE_V1.0.2/MSDK/lwip/lwip-2.1.2/src/core\udp.c ****              found faster next time */
 297:C:/Users/stapi/OneDrive/Desktop/GD32VW553/GD32VW55X_Wifi_BLE_SDK/GD32VW55x_RELEASE_V1.0.2/MSDK/lwip/lwip-2.1.2/src/core\udp.c ****           prev->next = pcb->next;
 298:C:/Users/stapi/OneDrive/Desktop/GD32VW553/GD32VW55X_Wifi_BLE_SDK/GD32VW55x_RELEASE_V1.0.2/MSDK/lwip/lwip-2.1.2/src/core\udp.c ****           pcb->next = udp_pcbs;
 299:C:/Users/stapi/OneDrive/Desktop/GD32VW553/GD32VW55X_Wifi_BLE_SDK/GD32VW55x_RELEASE_V1.0.2/MSDK/lwip/lwip-2.1.2/src/core\udp.c ****           udp_pcbs = pcb;
 300:C:/Users/stapi/OneDrive/Desktop/GD32VW553/GD32VW55X_Wifi_BLE_SDK/GD32VW55x_RELEASE_V1.0.2/MSDK/lwip/lwip-2.1.2/src/core\udp.c ****         } else {
 301:C:/Users/stapi/OneDrive/Desktop/GD32VW553/GD32VW55X_Wifi_BLE_SDK/GD32VW55x_RELEASE_V1.0.2/MSDK/lwip/lwip-2.1.2/src/core\udp.c ****           UDP_STATS_INC(udp.cachehit);
 302:C:/Users/stapi/OneDrive/Desktop/GD32VW553/GD32VW55X_Wifi_BLE_SDK/GD32VW55x_RELEASE_V1.0.2/MSDK/lwip/lwip-2.1.2/src/core\udp.c ****         }
 303:C:/Users/stapi/OneDrive/Desktop/GD32VW553/GD32VW55X_Wifi_BLE_SDK/GD32VW55x_RELEASE_V1.0.2/MSDK/lwip/lwip-2.1.2/src/core\udp.c ****         break;
 304:C:/Users/stapi/OneDrive/Desktop/GD32VW553/GD32VW55X_Wifi_BLE_SDK/GD32VW55x_RELEASE_V1.0.2/MSDK/lwip/lwip-2.1.2/src/core\udp.c ****       }
 305:C:/Users/stapi/OneDrive/Desktop/GD32VW553/GD32VW55X_Wifi_BLE_SDK/GD32VW55x_RELEASE_V1.0.2/MSDK/lwip/lwip-2.1.2/src/core\udp.c ****     }
 306:C:/Users/stapi/OneDrive/Desktop/GD32VW553/GD32VW55X_Wifi_BLE_SDK/GD32VW55x_RELEASE_V1.0.2/MSDK/lwip/lwip-2.1.2/src/core\udp.c **** 
 307:C:/Users/stapi/OneDrive/Desktop/GD32VW553/GD32VW55X_Wifi_BLE_SDK/GD32VW55x_RELEASE_V1.0.2/MSDK/lwip/lwip-2.1.2/src/core\udp.c ****     prev = pcb;
 308:C:/Users/stapi/OneDrive/Desktop/GD32VW553/GD32VW55X_Wifi_BLE_SDK/GD32VW55x_RELEASE_V1.0.2/MSDK/lwip/lwip-2.1.2/src/core\udp.c ****   }
 309:C:/Users/stapi/OneDrive/Desktop/GD32VW553/GD32VW55X_Wifi_BLE_SDK/GD32VW55x_RELEASE_V1.0.2/MSDK/lwip/lwip-2.1.2/src/core\udp.c ****   /* no fully matching pcb found? then look for an unconnected pcb */
 310:C:/Users/stapi/OneDrive/Desktop/GD32VW553/GD32VW55X_Wifi_BLE_SDK/GD32VW55x_RELEASE_V1.0.2/MSDK/lwip/lwip-2.1.2/src/core\udp.c ****   if (pcb == NULL) {
 311:C:/Users/stapi/OneDrive/Desktop/GD32VW553/GD32VW55X_Wifi_BLE_SDK/GD32VW55x_RELEASE_V1.0.2/MSDK/lwip/lwip-2.1.2/src/core\udp.c ****     pcb = uncon_pcb;
 312:C:/Users/stapi/OneDrive/Desktop/GD32VW553/GD32VW55X_Wifi_BLE_SDK/GD32VW55x_RELEASE_V1.0.2/MSDK/lwip/lwip-2.1.2/src/core\udp.c ****   }
 313:C:/Users/stapi/OneDrive/Desktop/GD32VW553/GD32VW55X_Wifi_BLE_SDK/GD32VW55x_RELEASE_V1.0.2/MSDK/lwip/lwip-2.1.2/src/core\udp.c **** 
 314:C:/Users/stapi/OneDrive/Desktop/GD32VW553/GD32VW55X_Wifi_BLE_SDK/GD32VW55x_RELEASE_V1.0.2/MSDK/lwip/lwip-2.1.2/src/core\udp.c ****   /* Check checksum if this is a match or if it was directed at us. */
 315:C:/Users/stapi/OneDrive/Desktop/GD32VW553/GD32VW55X_Wifi_BLE_SDK/GD32VW55x_RELEASE_V1.0.2/MSDK/lwip/lwip-2.1.2/src/core\udp.c ****   if (pcb != NULL) {
 316:C:/Users/stapi/OneDrive/Desktop/GD32VW553/GD32VW55X_Wifi_BLE_SDK/GD32VW55x_RELEASE_V1.0.2/MSDK/lwip/lwip-2.1.2/src/core\udp.c ****     for_us = 1;
 317:C:/Users/stapi/OneDrive/Desktop/GD32VW553/GD32VW55X_Wifi_BLE_SDK/GD32VW55x_RELEASE_V1.0.2/MSDK/lwip/lwip-2.1.2/src/core\udp.c ****   } else {
 318:C:/Users/stapi/OneDrive/Desktop/GD32VW553/GD32VW55X_Wifi_BLE_SDK/GD32VW55x_RELEASE_V1.0.2/MSDK/lwip/lwip-2.1.2/src/core\udp.c **** #if LWIP_IPV6
 319:C:/Users/stapi/OneDrive/Desktop/GD32VW553/GD32VW55X_Wifi_BLE_SDK/GD32VW55x_RELEASE_V1.0.2/MSDK/lwip/lwip-2.1.2/src/core\udp.c ****     if (ip_current_is_v6()) {
 320:C:/Users/stapi/OneDrive/Desktop/GD32VW553/GD32VW55X_Wifi_BLE_SDK/GD32VW55x_RELEASE_V1.0.2/MSDK/lwip/lwip-2.1.2/src/core\udp.c ****       for_us = netif_get_ip6_addr_match(inp, ip6_current_dest_addr()) >= 0;
 321:C:/Users/stapi/OneDrive/Desktop/GD32VW553/GD32VW55X_Wifi_BLE_SDK/GD32VW55x_RELEASE_V1.0.2/MSDK/lwip/lwip-2.1.2/src/core\udp.c ****     }
 322:C:/Users/stapi/OneDrive/Desktop/GD32VW553/GD32VW55X_Wifi_BLE_SDK/GD32VW55x_RELEASE_V1.0.2/MSDK/lwip/lwip-2.1.2/src/core\udp.c **** #endif /* LWIP_IPV6 */
 323:C:/Users/stapi/OneDrive/Desktop/GD32VW553/GD32VW55X_Wifi_BLE_SDK/GD32VW55x_RELEASE_V1.0.2/MSDK/lwip/lwip-2.1.2/src/core\udp.c **** #if LWIP_IPV4
 324:C:/Users/stapi/OneDrive/Desktop/GD32VW553/GD32VW55X_Wifi_BLE_SDK/GD32VW55x_RELEASE_V1.0.2/MSDK/lwip/lwip-2.1.2/src/core\udp.c ****     if (!ip_current_is_v6()) {
 325:C:/Users/stapi/OneDrive/Desktop/GD32VW553/GD32VW55X_Wifi_BLE_SDK/GD32VW55x_RELEASE_V1.0.2/MSDK/lwip/lwip-2.1.2/src/core\udp.c ****       for_us = ip4_addr_cmp(netif_ip4_addr(inp), ip4_current_dest_addr());
 326:C:/Users/stapi/OneDrive/Desktop/GD32VW553/GD32VW55X_Wifi_BLE_SDK/GD32VW55x_RELEASE_V1.0.2/MSDK/lwip/lwip-2.1.2/src/core\udp.c ****     }
 327:C:/Users/stapi/OneDrive/Desktop/GD32VW553/GD32VW55X_Wifi_BLE_SDK/GD32VW55x_RELEASE_V1.0.2/MSDK/lwip/lwip-2.1.2/src/core\udp.c **** #endif /* LWIP_IPV4 */
 328:C:/Users/stapi/OneDrive/Desktop/GD32VW553/GD32VW55X_Wifi_BLE_SDK/GD32VW55x_RELEASE_V1.0.2/MSDK/lwip/lwip-2.1.2/src/core\udp.c ****   }
 329:C:/Users/stapi/OneDrive/Desktop/GD32VW553/GD32VW55X_Wifi_BLE_SDK/GD32VW55x_RELEASE_V1.0.2/MSDK/lwip/lwip-2.1.2/src/core\udp.c **** 
 330:C:/Users/stapi/OneDrive/Desktop/GD32VW553/GD32VW55X_Wifi_BLE_SDK/GD32VW55x_RELEASE_V1.0.2/MSDK/lwip/lwip-2.1.2/src/core\udp.c ****   if (for_us) {
 331:C:/Users/stapi/OneDrive/Desktop/GD32VW553/GD32VW55X_Wifi_BLE_SDK/GD32VW55x_RELEASE_V1.0.2/MSDK/lwip/lwip-2.1.2/src/core\udp.c ****     LWIP_DEBUGF(UDP_DEBUG | LWIP_DBG_TRACE, ("udp_input: calculating checksum\n"));
 332:C:/Users/stapi/OneDrive/Desktop/GD32VW553/GD32VW55X_Wifi_BLE_SDK/GD32VW55x_RELEASE_V1.0.2/MSDK/lwip/lwip-2.1.2/src/core\udp.c **** #if CHECKSUM_CHECK_UDP
 333:C:/Users/stapi/OneDrive/Desktop/GD32VW553/GD32VW55X_Wifi_BLE_SDK/GD32VW55x_RELEASE_V1.0.2/MSDK/lwip/lwip-2.1.2/src/core\udp.c ****     IF__NETIF_CHECKSUM_ENABLED(inp, NETIF_CHECKSUM_CHECK_UDP) {
 334:C:/Users/stapi/OneDrive/Desktop/GD32VW553/GD32VW55X_Wifi_BLE_SDK/GD32VW55x_RELEASE_V1.0.2/MSDK/lwip/lwip-2.1.2/src/core\udp.c **** #if LWIP_UDPLITE
 335:C:/Users/stapi/OneDrive/Desktop/GD32VW553/GD32VW55X_Wifi_BLE_SDK/GD32VW55x_RELEASE_V1.0.2/MSDK/lwip/lwip-2.1.2/src/core\udp.c ****       if (ip_current_header_proto() == IP_PROTO_UDPLITE) {
 336:C:/Users/stapi/OneDrive/Desktop/GD32VW553/GD32VW55X_Wifi_BLE_SDK/GD32VW55x_RELEASE_V1.0.2/MSDK/lwip/lwip-2.1.2/src/core\udp.c ****         /* Do the UDP Lite checksum */
 337:C:/Users/stapi/OneDrive/Desktop/GD32VW553/GD32VW55X_Wifi_BLE_SDK/GD32VW55x_RELEASE_V1.0.2/MSDK/lwip/lwip-2.1.2/src/core\udp.c ****         u16_t chklen = lwip_ntohs(udphdr->len);
 338:C:/Users/stapi/OneDrive/Desktop/GD32VW553/GD32VW55X_Wifi_BLE_SDK/GD32VW55x_RELEASE_V1.0.2/MSDK/lwip/lwip-2.1.2/src/core\udp.c ****         if (chklen < sizeof(struct udp_hdr)) {
 339:C:/Users/stapi/OneDrive/Desktop/GD32VW553/GD32VW55X_Wifi_BLE_SDK/GD32VW55x_RELEASE_V1.0.2/MSDK/lwip/lwip-2.1.2/src/core\udp.c ****           if (chklen == 0) {
 340:C:/Users/stapi/OneDrive/Desktop/GD32VW553/GD32VW55X_Wifi_BLE_SDK/GD32VW55x_RELEASE_V1.0.2/MSDK/lwip/lwip-2.1.2/src/core\udp.c ****             /* For UDP-Lite, checksum length of 0 means checksum
 341:C:/Users/stapi/OneDrive/Desktop/GD32VW553/GD32VW55X_Wifi_BLE_SDK/GD32VW55x_RELEASE_V1.0.2/MSDK/lwip/lwip-2.1.2/src/core\udp.c ****                over the complete packet (See RFC 3828 chap. 3.1) */
 342:C:/Users/stapi/OneDrive/Desktop/GD32VW553/GD32VW55X_Wifi_BLE_SDK/GD32VW55x_RELEASE_V1.0.2/MSDK/lwip/lwip-2.1.2/src/core\udp.c ****             chklen = p->tot_len;
 343:C:/Users/stapi/OneDrive/Desktop/GD32VW553/GD32VW55X_Wifi_BLE_SDK/GD32VW55x_RELEASE_V1.0.2/MSDK/lwip/lwip-2.1.2/src/core\udp.c ****           } else {
 344:C:/Users/stapi/OneDrive/Desktop/GD32VW553/GD32VW55X_Wifi_BLE_SDK/GD32VW55x_RELEASE_V1.0.2/MSDK/lwip/lwip-2.1.2/src/core\udp.c ****             /* At least the UDP-Lite header must be covered by the
 345:C:/Users/stapi/OneDrive/Desktop/GD32VW553/GD32VW55X_Wifi_BLE_SDK/GD32VW55x_RELEASE_V1.0.2/MSDK/lwip/lwip-2.1.2/src/core\udp.c ****                checksum! (Again, see RFC 3828 chap. 3.1) */
 346:C:/Users/stapi/OneDrive/Desktop/GD32VW553/GD32VW55X_Wifi_BLE_SDK/GD32VW55x_RELEASE_V1.0.2/MSDK/lwip/lwip-2.1.2/src/core\udp.c ****             goto chkerr;
 347:C:/Users/stapi/OneDrive/Desktop/GD32VW553/GD32VW55X_Wifi_BLE_SDK/GD32VW55x_RELEASE_V1.0.2/MSDK/lwip/lwip-2.1.2/src/core\udp.c ****           }
 348:C:/Users/stapi/OneDrive/Desktop/GD32VW553/GD32VW55X_Wifi_BLE_SDK/GD32VW55x_RELEASE_V1.0.2/MSDK/lwip/lwip-2.1.2/src/core\udp.c ****         }
 349:C:/Users/stapi/OneDrive/Desktop/GD32VW553/GD32VW55X_Wifi_BLE_SDK/GD32VW55x_RELEASE_V1.0.2/MSDK/lwip/lwip-2.1.2/src/core\udp.c ****         if (ip_chksum_pseudo_partial(p, IP_PROTO_UDPLITE,
 350:C:/Users/stapi/OneDrive/Desktop/GD32VW553/GD32VW55X_Wifi_BLE_SDK/GD32VW55x_RELEASE_V1.0.2/MSDK/lwip/lwip-2.1.2/src/core\udp.c ****                                      p->tot_len, chklen,
 351:C:/Users/stapi/OneDrive/Desktop/GD32VW553/GD32VW55X_Wifi_BLE_SDK/GD32VW55x_RELEASE_V1.0.2/MSDK/lwip/lwip-2.1.2/src/core\udp.c ****                                      ip_current_src_addr(), ip_current_dest_addr()) != 0) {
 352:C:/Users/stapi/OneDrive/Desktop/GD32VW553/GD32VW55X_Wifi_BLE_SDK/GD32VW55x_RELEASE_V1.0.2/MSDK/lwip/lwip-2.1.2/src/core\udp.c ****           goto chkerr;
 353:C:/Users/stapi/OneDrive/Desktop/GD32VW553/GD32VW55X_Wifi_BLE_SDK/GD32VW55x_RELEASE_V1.0.2/MSDK/lwip/lwip-2.1.2/src/core\udp.c ****         }
 354:C:/Users/stapi/OneDrive/Desktop/GD32VW553/GD32VW55X_Wifi_BLE_SDK/GD32VW55x_RELEASE_V1.0.2/MSDK/lwip/lwip-2.1.2/src/core\udp.c ****       } else
 355:C:/Users/stapi/OneDrive/Desktop/GD32VW553/GD32VW55X_Wifi_BLE_SDK/GD32VW55x_RELEASE_V1.0.2/MSDK/lwip/lwip-2.1.2/src/core\udp.c **** #endif /* LWIP_UDPLITE */
 356:C:/Users/stapi/OneDrive/Desktop/GD32VW553/GD32VW55X_Wifi_BLE_SDK/GD32VW55x_RELEASE_V1.0.2/MSDK/lwip/lwip-2.1.2/src/core\udp.c ****       {
 357:C:/Users/stapi/OneDrive/Desktop/GD32VW553/GD32VW55X_Wifi_BLE_SDK/GD32VW55x_RELEASE_V1.0.2/MSDK/lwip/lwip-2.1.2/src/core\udp.c ****         if (udphdr->chksum != 0) {
 358:C:/Users/stapi/OneDrive/Desktop/GD32VW553/GD32VW55X_Wifi_BLE_SDK/GD32VW55x_RELEASE_V1.0.2/MSDK/lwip/lwip-2.1.2/src/core\udp.c ****           if (ip_chksum_pseudo(p, IP_PROTO_UDP, p->tot_len,
 359:C:/Users/stapi/OneDrive/Desktop/GD32VW553/GD32VW55X_Wifi_BLE_SDK/GD32VW55x_RELEASE_V1.0.2/MSDK/lwip/lwip-2.1.2/src/core\udp.c ****                                ip_current_src_addr(),
 360:C:/Users/stapi/OneDrive/Desktop/GD32VW553/GD32VW55X_Wifi_BLE_SDK/GD32VW55x_RELEASE_V1.0.2/MSDK/lwip/lwip-2.1.2/src/core\udp.c ****                                ip_current_dest_addr()) != 0) {
 361:C:/Users/stapi/OneDrive/Desktop/GD32VW553/GD32VW55X_Wifi_BLE_SDK/GD32VW55x_RELEASE_V1.0.2/MSDK/lwip/lwip-2.1.2/src/core\udp.c ****             goto chkerr;
 362:C:/Users/stapi/OneDrive/Desktop/GD32VW553/GD32VW55X_Wifi_BLE_SDK/GD32VW55x_RELEASE_V1.0.2/MSDK/lwip/lwip-2.1.2/src/core\udp.c ****           }
 363:C:/Users/stapi/OneDrive/Desktop/GD32VW553/GD32VW55X_Wifi_BLE_SDK/GD32VW55x_RELEASE_V1.0.2/MSDK/lwip/lwip-2.1.2/src/core\udp.c ****         }
 364:C:/Users/stapi/OneDrive/Desktop/GD32VW553/GD32VW55X_Wifi_BLE_SDK/GD32VW55x_RELEASE_V1.0.2/MSDK/lwip/lwip-2.1.2/src/core\udp.c ****       }
 365:C:/Users/stapi/OneDrive/Desktop/GD32VW553/GD32VW55X_Wifi_BLE_SDK/GD32VW55x_RELEASE_V1.0.2/MSDK/lwip/lwip-2.1.2/src/core\udp.c ****     }
 366:C:/Users/stapi/OneDrive/Desktop/GD32VW553/GD32VW55X_Wifi_BLE_SDK/GD32VW55x_RELEASE_V1.0.2/MSDK/lwip/lwip-2.1.2/src/core\udp.c **** #endif /* CHECKSUM_CHECK_UDP */
 367:C:/Users/stapi/OneDrive/Desktop/GD32VW553/GD32VW55X_Wifi_BLE_SDK/GD32VW55x_RELEASE_V1.0.2/MSDK/lwip/lwip-2.1.2/src/core\udp.c ****     if (pbuf_remove_header(p, UDP_HLEN)) {
 368:C:/Users/stapi/OneDrive/Desktop/GD32VW553/GD32VW55X_Wifi_BLE_SDK/GD32VW55x_RELEASE_V1.0.2/MSDK/lwip/lwip-2.1.2/src/core\udp.c ****       /* Can we cope with this failing? Just assert for now */
 369:C:/Users/stapi/OneDrive/Desktop/GD32VW553/GD32VW55X_Wifi_BLE_SDK/GD32VW55x_RELEASE_V1.0.2/MSDK/lwip/lwip-2.1.2/src/core\udp.c ****       LWIP_ASSERT("pbuf_remove_header failed\n", 0);
 370:C:/Users/stapi/OneDrive/Desktop/GD32VW553/GD32VW55X_Wifi_BLE_SDK/GD32VW55x_RELEASE_V1.0.2/MSDK/lwip/lwip-2.1.2/src/core\udp.c ****       UDP_STATS_INC(udp.drop);
 371:C:/Users/stapi/OneDrive/Desktop/GD32VW553/GD32VW55X_Wifi_BLE_SDK/GD32VW55x_RELEASE_V1.0.2/MSDK/lwip/lwip-2.1.2/src/core\udp.c ****       MIB2_STATS_INC(mib2.udpinerrors);
 372:C:/Users/stapi/OneDrive/Desktop/GD32VW553/GD32VW55X_Wifi_BLE_SDK/GD32VW55x_RELEASE_V1.0.2/MSDK/lwip/lwip-2.1.2/src/core\udp.c ****       pbuf_free(p);
 373:C:/Users/stapi/OneDrive/Desktop/GD32VW553/GD32VW55X_Wifi_BLE_SDK/GD32VW55x_RELEASE_V1.0.2/MSDK/lwip/lwip-2.1.2/src/core\udp.c ****       goto end;
 374:C:/Users/stapi/OneDrive/Desktop/GD32VW553/GD32VW55X_Wifi_BLE_SDK/GD32VW55x_RELEASE_V1.0.2/MSDK/lwip/lwip-2.1.2/src/core\udp.c ****     }
 375:C:/Users/stapi/OneDrive/Desktop/GD32VW553/GD32VW55X_Wifi_BLE_SDK/GD32VW55x_RELEASE_V1.0.2/MSDK/lwip/lwip-2.1.2/src/core\udp.c **** 
 376:C:/Users/stapi/OneDrive/Desktop/GD32VW553/GD32VW55X_Wifi_BLE_SDK/GD32VW55x_RELEASE_V1.0.2/MSDK/lwip/lwip-2.1.2/src/core\udp.c ****     if (pcb != NULL) {
 377:C:/Users/stapi/OneDrive/Desktop/GD32VW553/GD32VW55X_Wifi_BLE_SDK/GD32VW55x_RELEASE_V1.0.2/MSDK/lwip/lwip-2.1.2/src/core\udp.c ****       MIB2_STATS_INC(mib2.udpindatagrams);
 378:C:/Users/stapi/OneDrive/Desktop/GD32VW553/GD32VW55X_Wifi_BLE_SDK/GD32VW55x_RELEASE_V1.0.2/MSDK/lwip/lwip-2.1.2/src/core\udp.c **** #if SO_REUSE && SO_REUSE_RXTOALL
 379:C:/Users/stapi/OneDrive/Desktop/GD32VW553/GD32VW55X_Wifi_BLE_SDK/GD32VW55x_RELEASE_V1.0.2/MSDK/lwip/lwip-2.1.2/src/core\udp.c ****       if (ip_get_option(pcb, SOF_REUSEADDR) &&
 380:C:/Users/stapi/OneDrive/Desktop/GD32VW553/GD32VW55X_Wifi_BLE_SDK/GD32VW55x_RELEASE_V1.0.2/MSDK/lwip/lwip-2.1.2/src/core\udp.c ****           (broadcast || ip_addr_ismulticast(ip_current_dest_addr()))) {
 381:C:/Users/stapi/OneDrive/Desktop/GD32VW553/GD32VW55X_Wifi_BLE_SDK/GD32VW55x_RELEASE_V1.0.2/MSDK/lwip/lwip-2.1.2/src/core\udp.c ****         /* pass broadcast- or multicast packets to all multicast pcbs
 382:C:/Users/stapi/OneDrive/Desktop/GD32VW553/GD32VW55X_Wifi_BLE_SDK/GD32VW55x_RELEASE_V1.0.2/MSDK/lwip/lwip-2.1.2/src/core\udp.c ****            if SOF_REUSEADDR is set on the first match */
 383:C:/Users/stapi/OneDrive/Desktop/GD32VW553/GD32VW55X_Wifi_BLE_SDK/GD32VW55x_RELEASE_V1.0.2/MSDK/lwip/lwip-2.1.2/src/core\udp.c ****         struct udp_pcb *mpcb;
 384:C:/Users/stapi/OneDrive/Desktop/GD32VW553/GD32VW55X_Wifi_BLE_SDK/GD32VW55x_RELEASE_V1.0.2/MSDK/lwip/lwip-2.1.2/src/core\udp.c ****         for (mpcb = udp_pcbs; mpcb != NULL; mpcb = mpcb->next) {
 385:C:/Users/stapi/OneDrive/Desktop/GD32VW553/GD32VW55X_Wifi_BLE_SDK/GD32VW55x_RELEASE_V1.0.2/MSDK/lwip/lwip-2.1.2/src/core\udp.c ****           if (mpcb != pcb) {
 386:C:/Users/stapi/OneDrive/Desktop/GD32VW553/GD32VW55X_Wifi_BLE_SDK/GD32VW55x_RELEASE_V1.0.2/MSDK/lwip/lwip-2.1.2/src/core\udp.c ****             /* compare PCB local addr+port to UDP destination addr+port */
 387:C:/Users/stapi/OneDrive/Desktop/GD32VW553/GD32VW55X_Wifi_BLE_SDK/GD32VW55x_RELEASE_V1.0.2/MSDK/lwip/lwip-2.1.2/src/core\udp.c ****             if ((mpcb->local_port == dest) &&
 388:C:/Users/stapi/OneDrive/Desktop/GD32VW553/GD32VW55X_Wifi_BLE_SDK/GD32VW55x_RELEASE_V1.0.2/MSDK/lwip/lwip-2.1.2/src/core\udp.c ****                 (udp_input_local_match(mpcb, inp, broadcast) != 0)) {
 389:C:/Users/stapi/OneDrive/Desktop/GD32VW553/GD32VW55X_Wifi_BLE_SDK/GD32VW55x_RELEASE_V1.0.2/MSDK/lwip/lwip-2.1.2/src/core\udp.c ****               /* pass a copy of the packet to all local matches */
 390:C:/Users/stapi/OneDrive/Desktop/GD32VW553/GD32VW55X_Wifi_BLE_SDK/GD32VW55x_RELEASE_V1.0.2/MSDK/lwip/lwip-2.1.2/src/core\udp.c ****               if (mpcb->recv != NULL) {
 391:C:/Users/stapi/OneDrive/Desktop/GD32VW553/GD32VW55X_Wifi_BLE_SDK/GD32VW55x_RELEASE_V1.0.2/MSDK/lwip/lwip-2.1.2/src/core\udp.c ****                 struct pbuf *q;
 392:C:/Users/stapi/OneDrive/Desktop/GD32VW553/GD32VW55X_Wifi_BLE_SDK/GD32VW55x_RELEASE_V1.0.2/MSDK/lwip/lwip-2.1.2/src/core\udp.c ****                 q = pbuf_clone(PBUF_RAW, PBUF_POOL, p);
 393:C:/Users/stapi/OneDrive/Desktop/GD32VW553/GD32VW55X_Wifi_BLE_SDK/GD32VW55x_RELEASE_V1.0.2/MSDK/lwip/lwip-2.1.2/src/core\udp.c ****                 if (q != NULL) {
 394:C:/Users/stapi/OneDrive/Desktop/GD32VW553/GD32VW55X_Wifi_BLE_SDK/GD32VW55x_RELEASE_V1.0.2/MSDK/lwip/lwip-2.1.2/src/core\udp.c ****                   mpcb->recv(mpcb->recv_arg, mpcb, q, ip_current_src_addr(), src);
 395:C:/Users/stapi/OneDrive/Desktop/GD32VW553/GD32VW55X_Wifi_BLE_SDK/GD32VW55x_RELEASE_V1.0.2/MSDK/lwip/lwip-2.1.2/src/core\udp.c ****                 }
 396:C:/Users/stapi/OneDrive/Desktop/GD32VW553/GD32VW55X_Wifi_BLE_SDK/GD32VW55x_RELEASE_V1.0.2/MSDK/lwip/lwip-2.1.2/src/core\udp.c ****               }
 397:C:/Users/stapi/OneDrive/Desktop/GD32VW553/GD32VW55X_Wifi_BLE_SDK/GD32VW55x_RELEASE_V1.0.2/MSDK/lwip/lwip-2.1.2/src/core\udp.c ****             }
 398:C:/Users/stapi/OneDrive/Desktop/GD32VW553/GD32VW55X_Wifi_BLE_SDK/GD32VW55x_RELEASE_V1.0.2/MSDK/lwip/lwip-2.1.2/src/core\udp.c ****           }
 399:C:/Users/stapi/OneDrive/Desktop/GD32VW553/GD32VW55X_Wifi_BLE_SDK/GD32VW55x_RELEASE_V1.0.2/MSDK/lwip/lwip-2.1.2/src/core\udp.c ****         }
 400:C:/Users/stapi/OneDrive/Desktop/GD32VW553/GD32VW55X_Wifi_BLE_SDK/GD32VW55x_RELEASE_V1.0.2/MSDK/lwip/lwip-2.1.2/src/core\udp.c ****       }
 401:C:/Users/stapi/OneDrive/Desktop/GD32VW553/GD32VW55X_Wifi_BLE_SDK/GD32VW55x_RELEASE_V1.0.2/MSDK/lwip/lwip-2.1.2/src/core\udp.c **** #endif /* SO_REUSE && SO_REUSE_RXTOALL */
 402:C:/Users/stapi/OneDrive/Desktop/GD32VW553/GD32VW55X_Wifi_BLE_SDK/GD32VW55x_RELEASE_V1.0.2/MSDK/lwip/lwip-2.1.2/src/core\udp.c ****       /* callback */
 403:C:/Users/stapi/OneDrive/Desktop/GD32VW553/GD32VW55X_Wifi_BLE_SDK/GD32VW55x_RELEASE_V1.0.2/MSDK/lwip/lwip-2.1.2/src/core\udp.c ****       if (pcb->recv != NULL) {
 404:C:/Users/stapi/OneDrive/Desktop/GD32VW553/GD32VW55X_Wifi_BLE_SDK/GD32VW55x_RELEASE_V1.0.2/MSDK/lwip/lwip-2.1.2/src/core\udp.c ****         /* now the recv function is responsible for freeing p */
 405:C:/Users/stapi/OneDrive/Desktop/GD32VW553/GD32VW55X_Wifi_BLE_SDK/GD32VW55x_RELEASE_V1.0.2/MSDK/lwip/lwip-2.1.2/src/core\udp.c ****         pcb->recv(pcb->recv_arg, pcb, p, ip_current_src_addr(), src);
 406:C:/Users/stapi/OneDrive/Desktop/GD32VW553/GD32VW55X_Wifi_BLE_SDK/GD32VW55x_RELEASE_V1.0.2/MSDK/lwip/lwip-2.1.2/src/core\udp.c ****       } else {
 407:C:/Users/stapi/OneDrive/Desktop/GD32VW553/GD32VW55X_Wifi_BLE_SDK/GD32VW55x_RELEASE_V1.0.2/MSDK/lwip/lwip-2.1.2/src/core\udp.c ****         /* no recv function registered? then we have to free the pbuf! */
 408:C:/Users/stapi/OneDrive/Desktop/GD32VW553/GD32VW55X_Wifi_BLE_SDK/GD32VW55x_RELEASE_V1.0.2/MSDK/lwip/lwip-2.1.2/src/core\udp.c ****         pbuf_free(p);
 409:C:/Users/stapi/OneDrive/Desktop/GD32VW553/GD32VW55X_Wifi_BLE_SDK/GD32VW55x_RELEASE_V1.0.2/MSDK/lwip/lwip-2.1.2/src/core\udp.c ****         goto end;
 410:C:/Users/stapi/OneDrive/Desktop/GD32VW553/GD32VW55X_Wifi_BLE_SDK/GD32VW55x_RELEASE_V1.0.2/MSDK/lwip/lwip-2.1.2/src/core\udp.c ****       }
 411:C:/Users/stapi/OneDrive/Desktop/GD32VW553/GD32VW55X_Wifi_BLE_SDK/GD32VW55x_RELEASE_V1.0.2/MSDK/lwip/lwip-2.1.2/src/core\udp.c ****     } else {
 412:C:/Users/stapi/OneDrive/Desktop/GD32VW553/GD32VW55X_Wifi_BLE_SDK/GD32VW55x_RELEASE_V1.0.2/MSDK/lwip/lwip-2.1.2/src/core\udp.c ****       LWIP_DEBUGF(UDP_DEBUG | LWIP_DBG_TRACE, ("udp_input: not for us.\n"));
 413:C:/Users/stapi/OneDrive/Desktop/GD32VW553/GD32VW55X_Wifi_BLE_SDK/GD32VW55x_RELEASE_V1.0.2/MSDK/lwip/lwip-2.1.2/src/core\udp.c **** 
 414:C:/Users/stapi/OneDrive/Desktop/GD32VW553/GD32VW55X_Wifi_BLE_SDK/GD32VW55x_RELEASE_V1.0.2/MSDK/lwip/lwip-2.1.2/src/core\udp.c **** #if LWIP_ICMP || LWIP_ICMP6
 415:C:/Users/stapi/OneDrive/Desktop/GD32VW553/GD32VW55X_Wifi_BLE_SDK/GD32VW55x_RELEASE_V1.0.2/MSDK/lwip/lwip-2.1.2/src/core\udp.c ****       /* No match was found, send ICMP destination port unreachable unless
 416:C:/Users/stapi/OneDrive/Desktop/GD32VW553/GD32VW55X_Wifi_BLE_SDK/GD32VW55x_RELEASE_V1.0.2/MSDK/lwip/lwip-2.1.2/src/core\udp.c ****          destination address was broadcast/multicast. */
 417:C:/Users/stapi/OneDrive/Desktop/GD32VW553/GD32VW55X_Wifi_BLE_SDK/GD32VW55x_RELEASE_V1.0.2/MSDK/lwip/lwip-2.1.2/src/core\udp.c ****       if (!broadcast && !ip_addr_ismulticast(ip_current_dest_addr())) {
 418:C:/Users/stapi/OneDrive/Desktop/GD32VW553/GD32VW55X_Wifi_BLE_SDK/GD32VW55x_RELEASE_V1.0.2/MSDK/lwip/lwip-2.1.2/src/core\udp.c ****         /* move payload pointer back to ip header */
 419:C:/Users/stapi/OneDrive/Desktop/GD32VW553/GD32VW55X_Wifi_BLE_SDK/GD32VW55x_RELEASE_V1.0.2/MSDK/lwip/lwip-2.1.2/src/core\udp.c ****         pbuf_header_force(p, (s16_t)(ip_current_header_tot_len() + UDP_HLEN));
 420:C:/Users/stapi/OneDrive/Desktop/GD32VW553/GD32VW55X_Wifi_BLE_SDK/GD32VW55x_RELEASE_V1.0.2/MSDK/lwip/lwip-2.1.2/src/core\udp.c ****         icmp_port_unreach(ip_current_is_v6(), p);
 421:C:/Users/stapi/OneDrive/Desktop/GD32VW553/GD32VW55X_Wifi_BLE_SDK/GD32VW55x_RELEASE_V1.0.2/MSDK/lwip/lwip-2.1.2/src/core\udp.c ****       }
 422:C:/Users/stapi/OneDrive/Desktop/GD32VW553/GD32VW55X_Wifi_BLE_SDK/GD32VW55x_RELEASE_V1.0.2/MSDK/lwip/lwip-2.1.2/src/core\udp.c **** #endif /* LWIP_ICMP || LWIP_ICMP6 */
 423:C:/Users/stapi/OneDrive/Desktop/GD32VW553/GD32VW55X_Wifi_BLE_SDK/GD32VW55x_RELEASE_V1.0.2/MSDK/lwip/lwip-2.1.2/src/core\udp.c ****       UDP_STATS_INC(udp.proterr);
 424:C:/Users/stapi/OneDrive/Desktop/GD32VW553/GD32VW55X_Wifi_BLE_SDK/GD32VW55x_RELEASE_V1.0.2/MSDK/lwip/lwip-2.1.2/src/core\udp.c ****       UDP_STATS_INC(udp.drop);
 425:C:/Users/stapi/OneDrive/Desktop/GD32VW553/GD32VW55X_Wifi_BLE_SDK/GD32VW55x_RELEASE_V1.0.2/MSDK/lwip/lwip-2.1.2/src/core\udp.c ****       MIB2_STATS_INC(mib2.udpnoports);
 426:C:/Users/stapi/OneDrive/Desktop/GD32VW553/GD32VW55X_Wifi_BLE_SDK/GD32VW55x_RELEASE_V1.0.2/MSDK/lwip/lwip-2.1.2/src/core\udp.c ****       pbuf_free(p);
 427:C:/Users/stapi/OneDrive/Desktop/GD32VW553/GD32VW55X_Wifi_BLE_SDK/GD32VW55x_RELEASE_V1.0.2/MSDK/lwip/lwip-2.1.2/src/core\udp.c ****     }
 428:C:/Users/stapi/OneDrive/Desktop/GD32VW553/GD32VW55X_Wifi_BLE_SDK/GD32VW55x_RELEASE_V1.0.2/MSDK/lwip/lwip-2.1.2/src/core\udp.c ****   } else {
 429:C:/Users/stapi/OneDrive/Desktop/GD32VW553/GD32VW55X_Wifi_BLE_SDK/GD32VW55x_RELEASE_V1.0.2/MSDK/lwip/lwip-2.1.2/src/core\udp.c ****     pbuf_free(p);
 430:C:/Users/stapi/OneDrive/Desktop/GD32VW553/GD32VW55X_Wifi_BLE_SDK/GD32VW55x_RELEASE_V1.0.2/MSDK/lwip/lwip-2.1.2/src/core\udp.c ****   }
 431:C:/Users/stapi/OneDrive/Desktop/GD32VW553/GD32VW55X_Wifi_BLE_SDK/GD32VW55x_RELEASE_V1.0.2/MSDK/lwip/lwip-2.1.2/src/core\udp.c **** end:
 432:C:/Users/stapi/OneDrive/Desktop/GD32VW553/GD32VW55X_Wifi_BLE_SDK/GD32VW55x_RELEASE_V1.0.2/MSDK/lwip/lwip-2.1.2/src/core\udp.c ****   PERF_STOP("udp_input");
 433:C:/Users/stapi/OneDrive/Desktop/GD32VW553/GD32VW55X_Wifi_BLE_SDK/GD32VW55x_RELEASE_V1.0.2/MSDK/lwip/lwip-2.1.2/src/core\udp.c ****   return;
 434:C:/Users/stapi/OneDrive/Desktop/GD32VW553/GD32VW55X_Wifi_BLE_SDK/GD32VW55x_RELEASE_V1.0.2/MSDK/lwip/lwip-2.1.2/src/core\udp.c **** #if CHECKSUM_CHECK_UDP
 435:C:/Users/stapi/OneDrive/Desktop/GD32VW553/GD32VW55X_Wifi_BLE_SDK/GD32VW55x_RELEASE_V1.0.2/MSDK/lwip/lwip-2.1.2/src/core\udp.c **** chkerr:
 436:C:/Users/stapi/OneDrive/Desktop/GD32VW553/GD32VW55X_Wifi_BLE_SDK/GD32VW55x_RELEASE_V1.0.2/MSDK/lwip/lwip-2.1.2/src/core\udp.c ****   LWIP_DEBUGF(UDP_DEBUG | LWIP_DBG_LEVEL_SERIOUS,
 437:C:/Users/stapi/OneDrive/Desktop/GD32VW553/GD32VW55X_Wifi_BLE_SDK/GD32VW55x_RELEASE_V1.0.2/MSDK/lwip/lwip-2.1.2/src/core\udp.c ****               ("udp_input: UDP (or UDP Lite) datagram discarded due to failing checksum\n"));
 438:C:/Users/stapi/OneDrive/Desktop/GD32VW553/GD32VW55X_Wifi_BLE_SDK/GD32VW55x_RELEASE_V1.0.2/MSDK/lwip/lwip-2.1.2/src/core\udp.c ****   UDP_STATS_INC(udp.chkerr);
 439:C:/Users/stapi/OneDrive/Desktop/GD32VW553/GD32VW55X_Wifi_BLE_SDK/GD32VW55x_RELEASE_V1.0.2/MSDK/lwip/lwip-2.1.2/src/core\udp.c ****   UDP_STATS_INC(udp.drop);
 440:C:/Users/stapi/OneDrive/Desktop/GD32VW553/GD32VW55X_Wifi_BLE_SDK/GD32VW55x_RELEASE_V1.0.2/MSDK/lwip/lwip-2.1.2/src/core\udp.c ****   MIB2_STATS_INC(mib2.udpinerrors);
 441:C:/Users/stapi/OneDrive/Desktop/GD32VW553/GD32VW55X_Wifi_BLE_SDK/GD32VW55x_RELEASE_V1.0.2/MSDK/lwip/lwip-2.1.2/src/core\udp.c ****   pbuf_free(p);
 442:C:/Users/stapi/OneDrive/Desktop/GD32VW553/GD32VW55X_Wifi_BLE_SDK/GD32VW55x_RELEASE_V1.0.2/MSDK/lwip/lwip-2.1.2/src/core\udp.c ****   PERF_STOP("udp_input");
 443:C:/Users/stapi/OneDrive/Desktop/GD32VW553/GD32VW55X_Wifi_BLE_SDK/GD32VW55x_RELEASE_V1.0.2/MSDK/lwip/lwip-2.1.2/src/core\udp.c **** #endif /* CHECKSUM_CHECK_UDP */
 444:C:/Users/stapi/OneDrive/Desktop/GD32VW553/GD32VW55X_Wifi_BLE_SDK/GD32VW55x_RELEASE_V1.0.2/MSDK/lwip/lwip-2.1.2/src/core\udp.c **** }
 155              		.loc 1 444 1 is_stmt 0
 156 0070 17030000 		tail	__riscv_restore_7
 156      67000300 
 157              		.cfi_remember_state
 158              		.cfi_restore 22
 159              		.cfi_restore 21
 160              		.cfi_restore 20
 161              		.cfi_restore 19
 162              		.cfi_restore 18
 163              		.cfi_restore 9
 164              		.cfi_restore 8
 165              		.cfi_restore 1
 166              		.cfi_def_cfa_offset 0
 167              	.LVL13:
 168              	.L8:
 169              		.cfi_restore_state
 227:C:/Users/stapi/OneDrive/Desktop/GD32VW553/GD32VW55X_Wifi_BLE_SDK/GD32VW55x_RELEASE_V1.0.2/MSDK/lwip/lwip-2.1.2/src/core\udp.c **** 
 170              		.loc 1 227 3 is_stmt 1
 230:C:/Users/stapi/OneDrive/Desktop/GD32VW553/GD32VW55X_Wifi_BLE_SDK/GD32VW55x_RELEASE_V1.0.2/MSDK/lwip/lwip-2.1.2/src/core\udp.c **** 
 171              		.loc 1 230 15 is_stmt 0
 172 0078 B70A0000 		lui	s5,%hi(ip_data)
 173 007c 93840A00 		addi	s1,s5,%lo(ip_data)
 227:C:/Users/stapi/OneDrive/Desktop/GD32VW553/GD32VW55X_Wifi_BLE_SDK/GD32VW55x_RELEASE_V1.0.2/MSDK/lwip/lwip-2.1.2/src/core\udp.c **** 
 174              		.loc 1 227 10
 175 0080 03294500 		lw	s2,4(a0)
 176              	.LVL14:
 230:C:/Users/stapi/OneDrive/Desktop/GD32VW553/GD32VW55X_Wifi_BLE_SDK/GD32VW55x_RELEASE_V1.0.2/MSDK/lwip/lwip-2.1.2/src/core\udp.c **** 
 177              		.loc 1 230 3 is_stmt 1
 230:C:/Users/stapi/OneDrive/Desktop/GD32VW553/GD32VW55X_Wifi_BLE_SDK/GD32VW55x_RELEASE_V1.0.2/MSDK/lwip/lwip-2.1.2/src/core\udp.c **** 
 178              		.loc 1 230 15 is_stmt 0
 179 0084 8C40     		lw	a1,0(s1)
 180              	.LVL15:
 181 0086 C848     		lw	a0,20(s1)
 182 0088 938A0A00 		addi	s5,s5,%lo(ip_data)
 183 008c 97000000 		call	ip4_addr_isbroadcast_u32
 183      E7800000 
 184              	.LVL16:
 235:C:/Users/stapi/OneDrive/Desktop/GD32VW553/GD32VW55X_Wifi_BLE_SDK/GD32VW55x_RELEASE_V1.0.2/MSDK/lwip/lwip-2.1.2/src/core\udp.c ****   dest = lwip_ntohs(udphdr->dest);
 185              		.loc 1 235 9
 186 0094 83471900 		lbu	a5,1(s2)
 230:C:/Users/stapi/OneDrive/Desktop/GD32VW553/GD32VW55X_Wifi_BLE_SDK/GD32VW55x_RELEASE_V1.0.2/MSDK/lwip/lwip-2.1.2/src/core\udp.c **** 
 187              		.loc 1 230 15
 188 0098 2A8A     		mv	s4,a0
 189              	.LVL17:
 232:C:/Users/stapi/OneDrive/Desktop/GD32VW553/GD32VW55X_Wifi_BLE_SDK/GD32VW55x_RELEASE_V1.0.2/MSDK/lwip/lwip-2.1.2/src/core\udp.c **** 
 190              		.loc 1 232 92 is_stmt 1
 235:C:/Users/stapi/OneDrive/Desktop/GD32VW553/GD32VW55X_Wifi_BLE_SDK/GD32VW55x_RELEASE_V1.0.2/MSDK/lwip/lwip-2.1.2/src/core\udp.c ****   dest = lwip_ntohs(udphdr->dest);
 191              		.loc 1 235 3
 235:C:/Users/stapi/OneDrive/Desktop/GD32VW553/GD32VW55X_Wifi_BLE_SDK/GD32VW55x_RELEASE_V1.0.2/MSDK/lwip/lwip-2.1.2/src/core\udp.c ****   dest = lwip_ntohs(udphdr->dest);
 192              		.loc 1 235 9 is_stmt 0
 193 009a 03450900 		lbu	a0,0(s2)
 194 009e A207     		slli	a5,a5,8
 195 00a0 5D8D     		or	a0,a5,a0
 196 00a2 97000000 		call	lwip_htons
 196      E7800000 
 197              	.LVL18:
 236:C:/Users/stapi/OneDrive/Desktop/GD32VW553/GD32VW55X_Wifi_BLE_SDK/GD32VW55x_RELEASE_V1.0.2/MSDK/lwip/lwip-2.1.2/src/core\udp.c **** 
 198              		.loc 1 236 10
 199 00aa 83473900 		lbu	a5,3(s2)
 235:C:/Users/stapi/OneDrive/Desktop/GD32VW553/GD32VW55X_Wifi_BLE_SDK/GD32VW55x_RELEASE_V1.0.2/MSDK/lwip/lwip-2.1.2/src/core\udp.c ****   dest = lwip_ntohs(udphdr->dest);
 200              		.loc 1 235 9
 201 00ae 2A8B     		mv	s6,a0
 202              	.LVL19:
 236:C:/Users/stapi/OneDrive/Desktop/GD32VW553/GD32VW55X_Wifi_BLE_SDK/GD32VW55x_RELEASE_V1.0.2/MSDK/lwip/lwip-2.1.2/src/core\udp.c **** 
 203              		.loc 1 236 3 is_stmt 1
 236:C:/Users/stapi/OneDrive/Desktop/GD32VW553/GD32VW55X_Wifi_BLE_SDK/GD32VW55x_RELEASE_V1.0.2/MSDK/lwip/lwip-2.1.2/src/core\udp.c **** 
 204              		.loc 1 236 10 is_stmt 0
 205 00b0 03452900 		lbu	a0,2(s2)
 206 00b4 A207     		slli	a5,a5,8
 207 00b6 5D8D     		or	a0,a5,a0
 208 00b8 97000000 		call	lwip_htons
 208      E7800000 
 209              	.LVL20:
 238:C:/Users/stapi/OneDrive/Desktop/GD32VW553/GD32VW55X_Wifi_BLE_SDK/GD32VW55x_RELEASE_V1.0.2/MSDK/lwip/lwip-2.1.2/src/core\udp.c **** 
 210              		.loc 1 238 26 is_stmt 1
 241:C:/Users/stapi/OneDrive/Desktop/GD32VW553/GD32VW55X_Wifi_BLE_SDK/GD32VW55x_RELEASE_V1.0.2/MSDK/lwip/lwip-2.1.2/src/core\udp.c ****   ip_addr_debug_print_val(UDP_DEBUG, *ip_current_dest_addr());
 211              		.loc 1 241 36
 242:C:/Users/stapi/OneDrive/Desktop/GD32VW553/GD32VW55X_Wifi_BLE_SDK/GD32VW55x_RELEASE_V1.0.2/MSDK/lwip/lwip-2.1.2/src/core\udp.c ****   LWIP_DEBUGF(UDP_DEBUG, (", %"U16_F") <-- (", lwip_ntohs(udphdr->dest)));
 212              		.loc 1 242 62
 243:C:/Users/stapi/OneDrive/Desktop/GD32VW553/GD32VW55X_Wifi_BLE_SDK/GD32VW55x_RELEASE_V1.0.2/MSDK/lwip/lwip-2.1.2/src/core\udp.c ****   ip_addr_debug_print_val(UDP_DEBUG, *ip_current_src_addr());
 213              		.loc 1 243 74
 244:C:/Users/stapi/OneDrive/Desktop/GD32VW553/GD32VW55X_Wifi_BLE_SDK/GD32VW55x_RELEASE_V1.0.2/MSDK/lwip/lwip-2.1.2/src/core\udp.c ****   LWIP_DEBUGF(UDP_DEBUG, (", %"U16_F")\n", lwip_ntohs(udphdr->src)));
 214              		.loc 1 244 61
 245:C:/Users/stapi/OneDrive/Desktop/GD32VW553/GD32VW55X_Wifi_BLE_SDK/GD32VW55x_RELEASE_V1.0.2/MSDK/lwip/lwip-2.1.2/src/core\udp.c **** 
 215              		.loc 1 245 69
 247:C:/Users/stapi/OneDrive/Desktop/GD32VW553/GD32VW55X_Wifi_BLE_SDK/GD32VW55x_RELEASE_V1.0.2/MSDK/lwip/lwip-2.1.2/src/core\udp.c ****   prev = NULL;
 216              		.loc 1 247 3
 248:C:/Users/stapi/OneDrive/Desktop/GD32VW553/GD32VW55X_Wifi_BLE_SDK/GD32VW55x_RELEASE_V1.0.2/MSDK/lwip/lwip-2.1.2/src/core\udp.c ****   uncon_pcb = NULL;
 217              		.loc 1 248 3
 249:C:/Users/stapi/OneDrive/Desktop/GD32VW553/GD32VW55X_Wifi_BLE_SDK/GD32VW55x_RELEASE_V1.0.2/MSDK/lwip/lwip-2.1.2/src/core\udp.c ****   /* Iterate through the UDP pcb list for a matching pcb.
 218              		.loc 1 249 3
 254:C:/Users/stapi/OneDrive/Desktop/GD32VW553/GD32VW55X_Wifi_BLE_SDK/GD32VW55x_RELEASE_V1.0.2/MSDK/lwip/lwip-2.1.2/src/core\udp.c ****     /* print the PCB local and remote address */
 219              		.loc 1 254 3
 254:C:/Users/stapi/OneDrive/Desktop/GD32VW553/GD32VW55X_Wifi_BLE_SDK/GD32VW55x_RELEASE_V1.0.2/MSDK/lwip/lwip-2.1.2/src/core\udp.c ****     /* print the PCB local and remote address */
 220              		.loc 1 254 12 is_stmt 0
 221 00c0 37070000 		lui	a4,%hi(.LANCHOR1)
 222 00c4 83280700 		lw	a7,%lo(.LANCHOR1)(a4)
 223              	.LVL21:
 224              	.LBB5:
 225              	.LBB6:
 141:C:/Users/stapi/OneDrive/Desktop/GD32VW553/GD32VW55X_Wifi_BLE_SDK/GD32VW55x_RELEASE_V1.0.2/MSDK/lwip/lwip-2.1.2/src/core\udp.c ****     return 0;
 226              		.loc 1 141 26
 227 00c8 03A34400 		lw	t1,4(s1)
 174:C:/Users/stapi/OneDrive/Desktop/GD32VW553/GD32VW55X_Wifi_BLE_SDK/GD32VW55x_RELEASE_V1.0.2/MSDK/lwip/lwip-2.1.2/src/core\udp.c ****         return 1;
 228              		.loc 1 174 44
 229 00cc D048     		lw	a2,20(s1)
 230              	.LBE6:
 231              	.LBE5:
 292:C:/Users/stapi/OneDrive/Desktop/GD32VW553/GD32VW55X_Wifi_BLE_SDK/GD32VW55x_RELEASE_V1.0.2/MSDK/lwip/lwip-2.1.2/src/core\udp.c ****         /* the first fully matching PCB */
 232              		.loc 1 292 12
 233 00ce 03AE0401 		lw	t3,16(s1)
 254:C:/Users/stapi/OneDrive/Desktop/GD32VW553/GD32VW55X_Wifi_BLE_SDK/GD32VW55x_RELEASE_V1.0.2/MSDK/lwip/lwip-2.1.2/src/core\udp.c ****     /* print the PCB local and remote address */
 234              		.loc 1 254 12
 235 00d2 C687     		mv	a5,a7
 249:C:/Users/stapi/OneDrive/Desktop/GD32VW553/GD32VW55X_Wifi_BLE_SDK/GD32VW55x_RELEASE_V1.0.2/MSDK/lwip/lwip-2.1.2/src/core\udp.c ****   /* Iterate through the UDP pcb list for a matching pcb.
 236              		.loc 1 249 13
 237 00d4 8144     		li	s1,0
 248:C:/Users/stapi/OneDrive/Desktop/GD32VW553/GD32VW55X_Wifi_BLE_SDK/GD32VW55x_RELEASE_V1.0.2/MSDK/lwip/lwip-2.1.2/src/core\udp.c ****   uncon_pcb = NULL;
 238              		.loc 1 248 8
 239 00d6 0148     		li	a6,0
 240 00d8 930E0700 		addi	t4,a4,%lo(.LANCHOR1)
 270:C:/Users/stapi/OneDrive/Desktop/GD32VW553/GD32VW55X_Wifi_BLE_SDK/GD32VW55x_RELEASE_V1.0.2/MSDK/lwip/lwip-2.1.2/src/core\udp.c ****           /* global broadcast address (only valid for IPv4; match was checked before) */
 241              		.loc 1 270 30
 242 00dc FD55     		li	a1,-1
 243              	.LVL22:
 244              	.L10:
 254:C:/Users/stapi/OneDrive/Desktop/GD32VW553/GD32VW55X_Wifi_BLE_SDK/GD32VW55x_RELEASE_V1.0.2/MSDK/lwip/lwip-2.1.2/src/core\udp.c ****     /* print the PCB local and remote address */
 245              		.loc 1 254 24 is_stmt 1 discriminator 1
 254:C:/Users/stapi/OneDrive/Desktop/GD32VW553/GD32VW55X_Wifi_BLE_SDK/GD32VW55x_RELEASE_V1.0.2/MSDK/lwip/lwip-2.1.2/src/core\udp.c ****     /* print the PCB local and remote address */
 246              		.loc 1 254 3 is_stmt 0 discriminator 1
 247 00de 99E7     		bne	a5,zero,.L19
 248              	.L9:
 310:C:/Users/stapi/OneDrive/Desktop/GD32VW553/GD32VW55X_Wifi_BLE_SDK/GD32VW55x_RELEASE_V1.0.2/MSDK/lwip/lwip-2.1.2/src/core\udp.c ****     pcb = uncon_pcb;
 249              		.loc 1 310 3 is_stmt 1
 311:C:/Users/stapi/OneDrive/Desktop/GD32VW553/GD32VW55X_Wifi_BLE_SDK/GD32VW55x_RELEASE_V1.0.2/MSDK/lwip/lwip-2.1.2/src/core\udp.c ****   }
 250              		.loc 1 311 5
 251              	.LVL23:
 315:C:/Users/stapi/OneDrive/Desktop/GD32VW553/GD32VW55X_Wifi_BLE_SDK/GD32VW55x_RELEASE_V1.0.2/MSDK/lwip/lwip-2.1.2/src/core\udp.c ****     for_us = 1;
 252              		.loc 1 315 3
 315:C:/Users/stapi/OneDrive/Desktop/GD32VW553/GD32VW55X_Wifi_BLE_SDK/GD32VW55x_RELEASE_V1.0.2/MSDK/lwip/lwip-2.1.2/src/core\udp.c ****     for_us = 1;
 253              		.loc 1 315 6 is_stmt 0
 254 00e0 C9EC     		bne	s1,zero,.L18
 255              	.LVL24:
 324:C:/Users/stapi/OneDrive/Desktop/GD32VW553/GD32VW55X_Wifi_BLE_SDK/GD32VW55x_RELEASE_V1.0.2/MSDK/lwip/lwip-2.1.2/src/core\udp.c ****       for_us = ip4_addr_cmp(netif_ip4_addr(inp), ip4_current_dest_addr());
 256              		.loc 1 324 5 is_stmt 1
 325:C:/Users/stapi/OneDrive/Desktop/GD32VW553/GD32VW55X_Wifi_BLE_SDK/GD32VW55x_RELEASE_V1.0.2/MSDK/lwip/lwip-2.1.2/src/core\udp.c ****     }
 257              		.loc 1 325 7
 330:C:/Users/stapi/OneDrive/Desktop/GD32VW553/GD32VW55X_Wifi_BLE_SDK/GD32VW55x_RELEASE_V1.0.2/MSDK/lwip/lwip-2.1.2/src/core\udp.c ****     LWIP_DEBUGF(UDP_DEBUG | LWIP_DBG_TRACE, ("udp_input: calculating checksum\n"));
 258              		.loc 1 330 3
 330:C:/Users/stapi/OneDrive/Desktop/GD32VW553/GD32VW55X_Wifi_BLE_SDK/GD32VW55x_RELEASE_V1.0.2/MSDK/lwip/lwip-2.1.2/src/core\udp.c ****     LWIP_DEBUGF(UDP_DEBUG | LWIP_DBG_TRACE, ("udp_input: calculating checksum\n"));
 259              		.loc 1 330 6 is_stmt 0
 260 00e2 83A74900 		lw	a5,4(s3)
 261 00e6 638AC708 		beq	a5,a2,.L18
 262 00ea B5BF     		j	.L21
 263              	.LVL25:
 264              	.L19:
 256:C:/Users/stapi/OneDrive/Desktop/GD32VW553/GD32VW55X_Wifi_BLE_SDK/GD32VW55x_RELEASE_V1.0.2/MSDK/lwip/lwip-2.1.2/src/core\udp.c ****     ip_addr_debug_print_val(UDP_DEBUG, pcb->local_ip);
 265              		.loc 1 256 38 is_stmt 1
 257:C:/Users/stapi/OneDrive/Desktop/GD32VW553/GD32VW55X_Wifi_BLE_SDK/GD32VW55x_RELEASE_V1.0.2/MSDK/lwip/lwip-2.1.2/src/core\udp.c ****     LWIP_DEBUGF(UDP_DEBUG, (", %"U16_F") <-- (", pcb->local_port));
 266              		.loc 1 257 54
 258:C:/Users/stapi/OneDrive/Desktop/GD32VW553/GD32VW55X_Wifi_BLE_SDK/GD32VW55x_RELEASE_V1.0.2/MSDK/lwip/lwip-2.1.2/src/core\udp.c ****     ip_addr_debug_print_val(UDP_DEBUG, pcb->remote_ip);
 267              		.loc 1 258 67
 259:C:/Users/stapi/OneDrive/Desktop/GD32VW553/GD32VW55X_Wifi_BLE_SDK/GD32VW55x_RELEASE_V1.0.2/MSDK/lwip/lwip-2.1.2/src/core\udp.c ****     LWIP_DEBUGF(UDP_DEBUG, (", %"U16_F")\n", pcb->remote_port));
 268              		.loc 1 259 55
 260:C:/Users/stapi/OneDrive/Desktop/GD32VW553/GD32VW55X_Wifi_BLE_SDK/GD32VW55x_RELEASE_V1.0.2/MSDK/lwip/lwip-2.1.2/src/core\udp.c **** 
 269              		.loc 1 260 64
 263:C:/Users/stapi/OneDrive/Desktop/GD32VW553/GD32VW55X_Wifi_BLE_SDK/GD32VW55x_RELEASE_V1.0.2/MSDK/lwip/lwip-2.1.2/src/core\udp.c ****         (udp_input_local_match(pcb, inp, broadcast) != 0)) {
 270              		.loc 1 263 5
 263:C:/Users/stapi/OneDrive/Desktop/GD32VW553/GD32VW55X_Wifi_BLE_SDK/GD32VW55x_RELEASE_V1.0.2/MSDK/lwip/lwip-2.1.2/src/core\udp.c ****         (udp_input_local_match(pcb, inp, broadcast) != 0)) {
 271              		.loc 1 263 8 is_stmt 0
 272 00ec 03D72701 		lhu	a4,18(a5)
 273 00f0 631FA704 		bne	a4,a0,.L11
 274              	.LVL26:
 275              	.LBB9:
 276              	.LBB7:
 133:C:/Users/stapi/OneDrive/Desktop/GD32VW553/GD32VW55X_Wifi_BLE_SDK/GD32VW55x_RELEASE_V1.0.2/MSDK/lwip/lwip-2.1.2/src/core\udp.c ****   LWIP_UNUSED_ARG(broadcast); /* in IPv6 only case */
 277              		.loc 1 133 3 is_stmt 1
 134:C:/Users/stapi/OneDrive/Desktop/GD32VW553/GD32VW55X_Wifi_BLE_SDK/GD32VW55x_RELEASE_V1.0.2/MSDK/lwip/lwip-2.1.2/src/core\udp.c **** 
 278              		.loc 1 134 3
 136:C:/Users/stapi/OneDrive/Desktop/GD32VW553/GD32VW55X_Wifi_BLE_SDK/GD32VW55x_RELEASE_V1.0.2/MSDK/lwip/lwip-2.1.2/src/core\udp.c ****   LWIP_ASSERT("udp_input_local_match: invalid netif", inp != NULL);
 279              		.loc 1 136 3
 136:C:/Users/stapi/OneDrive/Desktop/GD32VW553/GD32VW55X_Wifi_BLE_SDK/GD32VW55x_RELEASE_V1.0.2/MSDK/lwip/lwip-2.1.2/src/core\udp.c ****   LWIP_ASSERT("udp_input_local_match: invalid netif", inp != NULL);
 280              		.loc 1 136 3
 136:C:/Users/stapi/OneDrive/Desktop/GD32VW553/GD32VW55X_Wifi_BLE_SDK/GD32VW55x_RELEASE_V1.0.2/MSDK/lwip/lwip-2.1.2/src/core\udp.c ****   LWIP_ASSERT("udp_input_local_match: invalid netif", inp != NULL);
 281              		.loc 1 136 3
 136:C:/Users/stapi/OneDrive/Desktop/GD32VW553/GD32VW55X_Wifi_BLE_SDK/GD32VW55x_RELEASE_V1.0.2/MSDK/lwip/lwip-2.1.2/src/core\udp.c ****   LWIP_ASSERT("udp_input_local_match: invalid netif", inp != NULL);
 282              		.loc 1 136 3
 137:C:/Users/stapi/OneDrive/Desktop/GD32VW553/GD32VW55X_Wifi_BLE_SDK/GD32VW55x_RELEASE_V1.0.2/MSDK/lwip/lwip-2.1.2/src/core\udp.c **** 
 283              		.loc 1 137 3
 137:C:/Users/stapi/OneDrive/Desktop/GD32VW553/GD32VW55X_Wifi_BLE_SDK/GD32VW55x_RELEASE_V1.0.2/MSDK/lwip/lwip-2.1.2/src/core\udp.c **** 
 284              		.loc 1 137 3
 137:C:/Users/stapi/OneDrive/Desktop/GD32VW553/GD32VW55X_Wifi_BLE_SDK/GD32VW55x_RELEASE_V1.0.2/MSDK/lwip/lwip-2.1.2/src/core\udp.c **** 
 285              		.loc 1 137 3
 137:C:/Users/stapi/OneDrive/Desktop/GD32VW553/GD32VW55X_Wifi_BLE_SDK/GD32VW55x_RELEASE_V1.0.2/MSDK/lwip/lwip-2.1.2/src/core\udp.c **** 
 286              		.loc 1 137 3
 140:C:/Users/stapi/OneDrive/Desktop/GD32VW553/GD32VW55X_Wifi_BLE_SDK/GD32VW55x_RELEASE_V1.0.2/MSDK/lwip/lwip-2.1.2/src/core\udp.c ****       (pcb->netif_idx != netif_get_index(ip_data.current_input_netif))) {
 287              		.loc 1 140 3
 140:C:/Users/stapi/OneDrive/Desktop/GD32VW553/GD32VW55X_Wifi_BLE_SDK/GD32VW55x_RELEASE_V1.0.2/MSDK/lwip/lwip-2.1.2/src/core\udp.c ****       (pcb->netif_idx != netif_get_index(ip_data.current_input_netif))) {
 288              		.loc 1 140 11 is_stmt 0
 289 00f4 83C68700 		lbu	a3,8(a5)
 140:C:/Users/stapi/OneDrive/Desktop/GD32VW553/GD32VW55X_Wifi_BLE_SDK/GD32VW55x_RELEASE_V1.0.2/MSDK/lwip/lwip-2.1.2/src/core\udp.c ****       (pcb->netif_idx != netif_get_index(ip_data.current_input_netif))) {
 290              		.loc 1 140 6
 291 00f8 81CA     		beq	a3,zero,.L12
 141:C:/Users/stapi/OneDrive/Desktop/GD32VW553/GD32VW55X_Wifi_BLE_SDK/GD32VW55x_RELEASE_V1.0.2/MSDK/lwip/lwip-2.1.2/src/core\udp.c ****     return 0;
 292              		.loc 1 141 26
 293 00fa 03474303 		lbu	a4,52(t1)
 294 00fe 0507     		addi	a4,a4,1
 140:C:/Users/stapi/OneDrive/Desktop/GD32VW553/GD32VW55X_Wifi_BLE_SDK/GD32VW55x_RELEASE_V1.0.2/MSDK/lwip/lwip-2.1.2/src/core\udp.c ****       (pcb->netif_idx != netif_get_index(ip_data.current_input_netif))) {
 295              		.loc 1 140 42
 296 0100 1377F70F 		andi	a4,a4,0xff
 297 0104 6395E604 		bne	a3,a4,.L11
 298              	.L12:
 146:C:/Users/stapi/OneDrive/Desktop/GD32VW553/GD32VW55X_Wifi_BLE_SDK/GD32VW55x_RELEASE_V1.0.2/MSDK/lwip/lwip-2.1.2/src/core\udp.c **** #if LWIP_IPV4 && IP_SOF_BROADCAST_RECV
 299              		.loc 1 146 3 is_stmt 1
 156:C:/Users/stapi/OneDrive/Desktop/GD32VW553/GD32VW55X_Wifi_BLE_SDK/GD32VW55x_RELEASE_V1.0.2/MSDK/lwip/lwip-2.1.2/src/core\udp.c **** #if LWIP_IPV4
 300              		.loc 1 156 3
 160:C:/Users/stapi/OneDrive/Desktop/GD32VW553/GD32VW55X_Wifi_BLE_SDK/GD32VW55x_RELEASE_V1.0.2/MSDK/lwip/lwip-2.1.2/src/core\udp.c **** #if IP_SOF_BROADCAST_RECV
 301              		.loc 1 160 5
 165:C:/Users/stapi/OneDrive/Desktop/GD32VW553/GD32VW55X_Wifi_BLE_SDK/GD32VW55x_RELEASE_V1.0.2/MSDK/lwip/lwip-2.1.2/src/core\udp.c ****             ((ip4_current_dest_addr()->addr == IPADDR_BROADCAST)) ||
 302              		.loc 1 165 13 is_stmt 0
 303 0108 9443     		lw	a3,0(a5)
 160:C:/Users/stapi/OneDrive/Desktop/GD32VW553/GD32VW55X_Wifi_BLE_SDK/GD32VW55x_RELEASE_V1.0.2/MSDK/lwip/lwip-2.1.2/src/core\udp.c **** #if IP_SOF_BROADCAST_RECV
 304              		.loc 1 160 8
 305 010a 630F0A02 		beq	s4,zero,.L13
 165:C:/Users/stapi/OneDrive/Desktop/GD32VW553/GD32VW55X_Wifi_BLE_SDK/GD32VW55x_RELEASE_V1.0.2/MSDK/lwip/lwip-2.1.2/src/core\udp.c ****             ((ip4_current_dest_addr()->addr == IPADDR_BROADCAST)) ||
 306              		.loc 1 165 9 is_stmt 1
 165:C:/Users/stapi/OneDrive/Desktop/GD32VW553/GD32VW55X_Wifi_BLE_SDK/GD32VW55x_RELEASE_V1.0.2/MSDK/lwip/lwip-2.1.2/src/core\udp.c ****             ((ip4_current_dest_addr()->addr == IPADDR_BROADCAST)) ||
 307              		.loc 1 165 13 is_stmt 0
 308 010e 91CA     		beq	a3,zero,.L14
 165:C:/Users/stapi/OneDrive/Desktop/GD32VW553/GD32VW55X_Wifi_BLE_SDK/GD32VW55x_RELEASE_V1.0.2/MSDK/lwip/lwip-2.1.2/src/core\udp.c ****             ((ip4_current_dest_addr()->addr == IPADDR_BROADCAST)) ||
 309              		.loc 1 165 54
 310 0110 6309B600 		beq	a2,a1,.L14
 167:C:/Users/stapi/OneDrive/Desktop/GD32VW553/GD32VW55X_Wifi_BLE_SDK/GD32VW55x_RELEASE_V1.0.2/MSDK/lwip/lwip-2.1.2/src/core\udp.c ****           return 1;
 311              		.loc 1 167 13
 312 0114 03AF8900 		lw	t5,8(s3)
 313 0118 33C7C600 		xor	a4,a3,a2
 314 011c 3377E701 		and	a4,a4,t5
 166:C:/Users/stapi/OneDrive/Desktop/GD32VW553/GD32VW55X_Wifi_BLE_SDK/GD32VW55x_RELEASE_V1.0.2/MSDK/lwip/lwip-2.1.2/src/core\udp.c ****             ip4_addr_netcmp(ip_2_ip4(&pcb->local_ip), ip4_current_dest_addr(), netif_ip4_netmask(in
 315              		.loc 1 166 67
 316 0120 1DE7     		bne	a4,zero,.L11
 317              	.L14:
 318              	.LVL27:
 319              	.LBE7:
 320              	.LBE9:
 265:C:/Users/stapi/OneDrive/Desktop/GD32VW553/GD32VW55X_Wifi_BLE_SDK/GD32VW55x_RELEASE_V1.0.2/MSDK/lwip/lwip-2.1.2/src/core\udp.c ****         if (uncon_pcb == NULL) {
 321              		.loc 1 265 7 is_stmt 1
 265:C:/Users/stapi/OneDrive/Desktop/GD32VW553/GD32VW55X_Wifi_BLE_SDK/GD32VW55x_RELEASE_V1.0.2/MSDK/lwip/lwip-2.1.2/src/core\udp.c ****         if (uncon_pcb == NULL) {
 322              		.loc 1 265 10 is_stmt 0
 323 0122 03C70701 		lbu	a4,16(a5)
 324 0126 118B     		andi	a4,a4,4
 325 0128 1DE7     		bne	a4,zero,.L15
 266:C:/Users/stapi/OneDrive/Desktop/GD32VW553/GD32VW55X_Wifi_BLE_SDK/GD32VW55x_RELEASE_V1.0.2/MSDK/lwip/lwip-2.1.2/src/core\udp.c ****           /* the first unconnected matching PCB */
 326              		.loc 1 266 9 is_stmt 1
 266:C:/Users/stapi/OneDrive/Desktop/GD32VW553/GD32VW55X_Wifi_BLE_SDK/GD32VW55x_RELEASE_V1.0.2/MSDK/lwip/lwip-2.1.2/src/core\udp.c ****           /* the first unconnected matching PCB */
 327              		.loc 1 266 12 is_stmt 0
 328 012a 89CC     		beq	s1,zero,.L27
 270:C:/Users/stapi/OneDrive/Desktop/GD32VW553/GD32VW55X_Wifi_BLE_SDK/GD32VW55x_RELEASE_V1.0.2/MSDK/lwip/lwip-2.1.2/src/core\udp.c ****           /* global broadcast address (only valid for IPv4; match was checked before) */
 329              		.loc 1 270 16 is_stmt 1
 270:C:/Users/stapi/OneDrive/Desktop/GD32VW553/GD32VW55X_Wifi_BLE_SDK/GD32VW55x_RELEASE_V1.0.2/MSDK/lwip/lwip-2.1.2/src/core\udp.c ****           /* global broadcast address (only valid for IPv4; match was checked before) */
 330              		.loc 1 270 19 is_stmt 0
 331 012c 63040A02 		beq	s4,zero,.L16
 270:C:/Users/stapi/OneDrive/Desktop/GD32VW553/GD32VW55X_Wifi_BLE_SDK/GD32VW55x_RELEASE_V1.0.2/MSDK/lwip/lwip-2.1.2/src/core\udp.c ****           /* global broadcast address (only valid for IPv4; match was checked before) */
 332              		.loc 1 270 30 discriminator 1
 333 0130 6312B602 		bne	a2,a1,.L16
 272:C:/Users/stapi/OneDrive/Desktop/GD32VW553/GD32VW55X_Wifi_BLE_SDK/GD32VW55x_RELEASE_V1.0.2/MSDK/lwip/lwip-2.1.2/src/core\udp.c ****             /* uncon_pcb does not match the input netif, check this pcb */
 334              		.loc 1 272 11 is_stmt 1
 272:C:/Users/stapi/OneDrive/Desktop/GD32VW553/GD32VW55X_Wifi_BLE_SDK/GD32VW55x_RELEASE_V1.0.2/MSDK/lwip/lwip-2.1.2/src/core\udp.c ****             /* uncon_pcb does not match the input netif, check this pcb */
 335              		.loc 1 272 54 is_stmt 0
 336 0134 03A74900 		lw	a4,4(s3)
 272:C:/Users/stapi/OneDrive/Desktop/GD32VW553/GD32VW55X_Wifi_BLE_SDK/GD32VW55x_RELEASE_V1.0.2/MSDK/lwip/lwip-2.1.2/src/core\udp.c ****             /* uncon_pcb does not match the input netif, check this pcb */
 337              		.loc 1 272 14
 338 0138 03AF0400 		lw	t5,0(s1)
 339 013c 630DEF00 		beq	t5,a4,.L15
 274:C:/Users/stapi/OneDrive/Desktop/GD32VW553/GD32VW55X_Wifi_BLE_SDK/GD32VW55x_RELEASE_V1.0.2/MSDK/lwip/lwip-2.1.2/src/core\udp.c ****               /* better match */
 340              		.loc 1 274 13 is_stmt 1
 274:C:/Users/stapi/OneDrive/Desktop/GD32VW553/GD32VW55X_Wifi_BLE_SDK/GD32VW55x_RELEASE_V1.0.2/MSDK/lwip/lwip-2.1.2/src/core\udp.c ****               /* better match */
 341              		.loc 1 274 16 is_stmt 0
 342 0140 631BD700 		bne	a4,a3,.L15
 343              	.L27:
 344 0144 BE84     		mv	s1,a5
 345              	.LVL28:
 346 0146 01A8     		j	.L15
 347              	.LVL29:
 348              	.L13:
 349              	.LBB10:
 350              	.LBB8:
 174:C:/Users/stapi/OneDrive/Desktop/GD32VW553/GD32VW55X_Wifi_BLE_SDK/GD32VW55x_RELEASE_V1.0.2/MSDK/lwip/lwip-2.1.2/src/core\udp.c ****         return 1;
 351              		.loc 1 174 7 is_stmt 1
 174:C:/Users/stapi/OneDrive/Desktop/GD32VW553/GD32VW55X_Wifi_BLE_SDK/GD32VW55x_RELEASE_V1.0.2/MSDK/lwip/lwip-2.1.2/src/core\udp.c ****         return 1;
 352              		.loc 1 174 11 is_stmt 0
 353 0148 E9DE     		beq	a3,zero,.L14
 174:C:/Users/stapi/OneDrive/Desktop/GD32VW553/GD32VW55X_Wifi_BLE_SDK/GD32VW55x_RELEASE_V1.0.2/MSDK/lwip/lwip-2.1.2/src/core\udp.c ****         return 1;
 354              		.loc 1 174 41
 355 014a E38CC6FC 		beq	a3,a2,.L14
 356              	.LVL30:
 357              	.L11:
 358              	.LBE8:
 359              	.LBE10:
 307:C:/Users/stapi/OneDrive/Desktop/GD32VW553/GD32VW55X_Wifi_BLE_SDK/GD32VW55x_RELEASE_V1.0.2/MSDK/lwip/lwip-2.1.2/src/core\udp.c ****   }
 360              		.loc 1 307 5 is_stmt 1 discriminator 2
 254:C:/Users/stapi/OneDrive/Desktop/GD32VW553/GD32VW55X_Wifi_BLE_SDK/GD32VW55x_RELEASE_V1.0.2/MSDK/lwip/lwip-2.1.2/src/core\udp.c ****     /* print the PCB local and remote address */
 361              		.loc 1 254 37 discriminator 2
 254:C:/Users/stapi/OneDrive/Desktop/GD32VW553/GD32VW55X_Wifi_BLE_SDK/GD32VW55x_RELEASE_V1.0.2/MSDK/lwip/lwip-2.1.2/src/core\udp.c ****     /* print the PCB local and remote address */
 362              		.loc 1 254 41 is_stmt 0 discriminator 2
 363 014e 3E88     		mv	a6,a5
 364 0150 DC47     		lw	a5,12(a5)
 365              	.LVL31:
 366 0152 71B7     		j	.L10
 367              	.L16:
 282:C:/Users/stapi/OneDrive/Desktop/GD32VW553/GD32VW55X_Wifi_BLE_SDK/GD32VW55x_RELEASE_V1.0.2/MSDK/lwip/lwip-2.1.2/src/core\udp.c ****           /* prefer specific IPs over catch-all */
 368              		.loc 1 282 14 is_stmt 1
 282:C:/Users/stapi/OneDrive/Desktop/GD32VW553/GD32VW55X_Wifi_BLE_SDK/GD32VW55x_RELEASE_V1.0.2/MSDK/lwip/lwip-2.1.2/src/core\udp.c ****           /* prefer specific IPs over catch-all */
 369              		.loc 1 282 18 is_stmt 0
 370 0154 E5FA     		bne	a3,zero,.L27
 371              	.LVL32:
 372              	.L15:
 290:C:/Users/stapi/OneDrive/Desktop/GD32VW553/GD32VW55X_Wifi_BLE_SDK/GD32VW55x_RELEASE_V1.0.2/MSDK/lwip/lwip-2.1.2/src/core\udp.c ****           (ip_addr_isany_val(pcb->remote_ip) ||
 373              		.loc 1 290 7 is_stmt 1
 290:C:/Users/stapi/OneDrive/Desktop/GD32VW553/GD32VW55X_Wifi_BLE_SDK/GD32VW55x_RELEASE_V1.0.2/MSDK/lwip/lwip-2.1.2/src/core\udp.c ****           (ip_addr_isany_val(pcb->remote_ip) ||
 374              		.loc 1 290 10 is_stmt 0
 375 0156 03D74701 		lhu	a4,20(a5)
 376 015a E31A67FF 		bne	a4,s6,.L11
 291:C:/Users/stapi/OneDrive/Desktop/GD32VW553/GD32VW55X_Wifi_BLE_SDK/GD32VW55x_RELEASE_V1.0.2/MSDK/lwip/lwip-2.1.2/src/core\udp.c ****            ip_addr_cmp(&pcb->remote_ip, ip_current_src_addr()))) {
 377              		.loc 1 291 12 discriminator 1
 378 015e D843     		lw	a4,4(a5)
 290:C:/Users/stapi/OneDrive/Desktop/GD32VW553/GD32VW55X_Wifi_BLE_SDK/GD32VW55x_RELEASE_V1.0.2/MSDK/lwip/lwip-2.1.2/src/core\udp.c ****           (ip_addr_isany_val(pcb->remote_ip) ||
 379              		.loc 1 290 37 discriminator 1
 380 0160 19C3     		beq	a4,zero,.L17
 291:C:/Users/stapi/OneDrive/Desktop/GD32VW553/GD32VW55X_Wifi_BLE_SDK/GD32VW55x_RELEASE_V1.0.2/MSDK/lwip/lwip-2.1.2/src/core\udp.c ****            ip_addr_cmp(&pcb->remote_ip, ip_current_src_addr()))) {
 381              		.loc 1 291 46
 382 0162 E316C7FF 		bne	a4,t3,.L11
 383              	.L17:
 294:C:/Users/stapi/OneDrive/Desktop/GD32VW553/GD32VW55X_Wifi_BLE_SDK/GD32VW55x_RELEASE_V1.0.2/MSDK/lwip/lwip-2.1.2/src/core\udp.c ****           /* move the pcb to the front of udp_pcbs so that is
 384              		.loc 1 294 9 is_stmt 1
 385 0166 BE84     		mv	s1,a5
 386              	.LVL33:
 294:C:/Users/stapi/OneDrive/Desktop/GD32VW553/GD32VW55X_Wifi_BLE_SDK/GD32VW55x_RELEASE_V1.0.2/MSDK/lwip/lwip-2.1.2/src/core\udp.c ****           /* move the pcb to the front of udp_pcbs so that is
 387              		.loc 1 294 12 is_stmt 0
 388 0168 63090800 		beq	a6,zero,.L18
 389              	.LVL34:
 297:C:/Users/stapi/OneDrive/Desktop/GD32VW553/GD32VW55X_Wifi_BLE_SDK/GD32VW55x_RELEASE_V1.0.2/MSDK/lwip/lwip-2.1.2/src/core\udp.c ****           pcb->next = udp_pcbs;
 390              		.loc 1 297 11 is_stmt 1
 297:C:/Users/stapi/OneDrive/Desktop/GD32VW553/GD32VW55X_Wifi_BLE_SDK/GD32VW55x_RELEASE_V1.0.2/MSDK/lwip/lwip-2.1.2/src/core\udp.c ****           pcb->next = udp_pcbs;
 391              		.loc 1 297 27 is_stmt 0
 392 016c D847     		lw	a4,12(a5)
 299:C:/Users/stapi/OneDrive/Desktop/GD32VW553/GD32VW55X_Wifi_BLE_SDK/GD32VW55x_RELEASE_V1.0.2/MSDK/lwip/lwip-2.1.2/src/core\udp.c ****         } else {
 393              		.loc 1 299 20
 394 016e 23A0FE00 		sw	a5,0(t4)
 297:C:/Users/stapi/OneDrive/Desktop/GD32VW553/GD32VW55X_Wifi_BLE_SDK/GD32VW55x_RELEASE_V1.0.2/MSDK/lwip/lwip-2.1.2/src/core\udp.c ****           pcb->next = udp_pcbs;
 395              		.loc 1 297 22
 396 0172 2326E800 		sw	a4,12(a6)
 298:C:/Users/stapi/OneDrive/Desktop/GD32VW553/GD32VW55X_Wifi_BLE_SDK/GD32VW55x_RELEASE_V1.0.2/MSDK/lwip/lwip-2.1.2/src/core\udp.c ****           udp_pcbs = pcb;
 397              		.loc 1 298 11 is_stmt 1
 298:C:/Users/stapi/OneDrive/Desktop/GD32VW553/GD32VW55X_Wifi_BLE_SDK/GD32VW55x_RELEASE_V1.0.2/MSDK/lwip/lwip-2.1.2/src/core\udp.c ****           udp_pcbs = pcb;
 398              		.loc 1 298 21 is_stmt 0
 399 0176 23A61701 		sw	a7,12(a5)
 299:C:/Users/stapi/OneDrive/Desktop/GD32VW553/GD32VW55X_Wifi_BLE_SDK/GD32VW55x_RELEASE_V1.0.2/MSDK/lwip/lwip-2.1.2/src/core\udp.c ****         } else {
 400              		.loc 1 299 11 is_stmt 1
 401              	.LVL35:
 402              	.L18:
 331:C:/Users/stapi/OneDrive/Desktop/GD32VW553/GD32VW55X_Wifi_BLE_SDK/GD32VW55x_RELEASE_V1.0.2/MSDK/lwip/lwip-2.1.2/src/core\udp.c **** #if CHECKSUM_CHECK_UDP
 403              		.loc 1 331 83
 357:C:/Users/stapi/OneDrive/Desktop/GD32VW553/GD32VW55X_Wifi_BLE_SDK/GD32VW55x_RELEASE_V1.0.2/MSDK/lwip/lwip-2.1.2/src/core\udp.c ****           if (ip_chksum_pseudo(p, IP_PROTO_UDP, p->tot_len,
 404              		.loc 1 357 9
 357:C:/Users/stapi/OneDrive/Desktop/GD32VW553/GD32VW55X_Wifi_BLE_SDK/GD32VW55x_RELEASE_V1.0.2/MSDK/lwip/lwip-2.1.2/src/core\udp.c ****           if (ip_chksum_pseudo(p, IP_PROTO_UDP, p->tot_len,
 405              		.loc 1 357 19 is_stmt 0
 406 017a 83477900 		lbu	a5,7(s2)
 407 017e 03476900 		lbu	a4,6(s2)
 408 0182 A207     		slli	a5,a5,8
 357:C:/Users/stapi/OneDrive/Desktop/GD32VW553/GD32VW55X_Wifi_BLE_SDK/GD32VW55x_RELEASE_V1.0.2/MSDK/lwip/lwip-2.1.2/src/core\udp.c ****           if (ip_chksum_pseudo(p, IP_PROTO_UDP, p->tot_len,
 409              		.loc 1 357 12
 410 0184 D98F     		or	a5,a5,a4
 411 0186 9DC3     		beq	a5,zero,.L22
 358:C:/Users/stapi/OneDrive/Desktop/GD32VW553/GD32VW55X_Wifi_BLE_SDK/GD32VW55x_RELEASE_V1.0.2/MSDK/lwip/lwip-2.1.2/src/core\udp.c ****                                ip_current_src_addr(),
 412              		.loc 1 358 11 is_stmt 1
 358:C:/Users/stapi/OneDrive/Desktop/GD32VW553/GD32VW55X_Wifi_BLE_SDK/GD32VW55x_RELEASE_V1.0.2/MSDK/lwip/lwip-2.1.2/src/core\udp.c ****                                ip_current_src_addr(),
 413              		.loc 1 358 15 is_stmt 0
 414 0188 03568400 		lhu	a2,8(s0)
 415 018c 37070000 		lui	a4,%hi(ip_data+20)
 416 0190 B7060000 		lui	a3,%hi(ip_data+16)
 417 0194 13074701 		addi	a4,a4,%lo(ip_data+20)
 418 0198 93860601 		addi	a3,a3,%lo(ip_data+16)
 419 019c C545     		li	a1,17
 420 019e 2285     		mv	a0,s0
 421              	.LVL36:
 422 01a0 97000000 		call	ip_chksum_pseudo
 422      E7800000 
 423              	.LVL37:
 358:C:/Users/stapi/OneDrive/Desktop/GD32VW553/GD32VW55X_Wifi_BLE_SDK/GD32VW55x_RELEASE_V1.0.2/MSDK/lwip/lwip-2.1.2/src/core\udp.c ****                                ip_current_src_addr(),
 424              		.loc 1 358 14
 425 01a8 E31F05EA 		bne	a0,zero,.L21
 426              	.L22:
 367:C:/Users/stapi/OneDrive/Desktop/GD32VW553/GD32VW55X_Wifi_BLE_SDK/GD32VW55x_RELEASE_V1.0.2/MSDK/lwip/lwip-2.1.2/src/core\udp.c ****       /* Can we cope with this failing? Just assert for now */
 427              		.loc 1 367 5 is_stmt 1
 367:C:/Users/stapi/OneDrive/Desktop/GD32VW553/GD32VW55X_Wifi_BLE_SDK/GD32VW55x_RELEASE_V1.0.2/MSDK/lwip/lwip-2.1.2/src/core\udp.c ****       /* Can we cope with this failing? Just assert for now */
 428              		.loc 1 367 9 is_stmt 0
 429 01ac A145     		li	a1,8
 430 01ae 2285     		mv	a0,s0
 431 01b0 97000000 		call	pbuf_remove_header
 431      E7800000 
 432              	.LVL38:
 367:C:/Users/stapi/OneDrive/Desktop/GD32VW553/GD32VW55X_Wifi_BLE_SDK/GD32VW55x_RELEASE_V1.0.2/MSDK/lwip/lwip-2.1.2/src/core\udp.c ****       /* Can we cope with this failing? Just assert for now */
 433              		.loc 1 367 8
 434 01b8 05C5     		beq	a0,zero,.L23
 369:C:/Users/stapi/OneDrive/Desktop/GD32VW553/GD32VW55X_Wifi_BLE_SDK/GD32VW55x_RELEASE_V1.0.2/MSDK/lwip/lwip-2.1.2/src/core\udp.c ****       UDP_STATS_INC(udp.drop);
 435              		.loc 1 369 7 is_stmt 1 discriminator 1
 369:C:/Users/stapi/OneDrive/Desktop/GD32VW553/GD32VW55X_Wifi_BLE_SDK/GD32VW55x_RELEASE_V1.0.2/MSDK/lwip/lwip-2.1.2/src/core\udp.c ****       UDP_STATS_INC(udp.drop);
 436              		.loc 1 369 7 discriminator 1
 369:C:/Users/stapi/OneDrive/Desktop/GD32VW553/GD32VW55X_Wifi_BLE_SDK/GD32VW55x_RELEASE_V1.0.2/MSDK/lwip/lwip-2.1.2/src/core\udp.c ****       UDP_STATS_INC(udp.drop);
 437              		.loc 1 369 7 discriminator 1
 369:C:/Users/stapi/OneDrive/Desktop/GD32VW553/GD32VW55X_Wifi_BLE_SDK/GD32VW55x_RELEASE_V1.0.2/MSDK/lwip/lwip-2.1.2/src/core\udp.c ****       UDP_STATS_INC(udp.drop);
 438              		.loc 1 369 7 discriminator 1
 439 01ba B7060000 		lui	a3,%hi(.LC0)
 440 01be B7050000 		lui	a1,%hi(.LC4)
 441 01c2 37050000 		lui	a0,%hi(.LC2)
 442 01c6 93860600 		addi	a3,a3,%lo(.LC0)
 443 01ca 13061017 		li	a2,369
 444 01ce 93850500 		addi	a1,a1,%lo(.LC4)
 445 01d2 13050500 		addi	a0,a0,%lo(.LC2)
 446 01d6 97000000 		call	printf
 446      E7800000 
 447              	.LVL39:
 448              	.L24:
 369:C:/Users/stapi/OneDrive/Desktop/GD32VW553/GD32VW55X_Wifi_BLE_SDK/GD32VW55x_RELEASE_V1.0.2/MSDK/lwip/lwip-2.1.2/src/core\udp.c ****       UDP_STATS_INC(udp.drop);
 449              		.loc 1 369 7 discriminator 3
 369:C:/Users/stapi/OneDrive/Desktop/GD32VW553/GD32VW55X_Wifi_BLE_SDK/GD32VW55x_RELEASE_V1.0.2/MSDK/lwip/lwip-2.1.2/src/core\udp.c ****       UDP_STATS_INC(udp.drop);
 450              		.loc 1 369 7 discriminator 3
 369:C:/Users/stapi/OneDrive/Desktop/GD32VW553/GD32VW55X_Wifi_BLE_SDK/GD32VW55x_RELEASE_V1.0.2/MSDK/lwip/lwip-2.1.2/src/core\udp.c ****       UDP_STATS_INC(udp.drop);
 451              		.loc 1 369 7 discriminator 3
 452 01de 01A0     		j	.L24
 453              	.L23:
 376:C:/Users/stapi/OneDrive/Desktop/GD32VW553/GD32VW55X_Wifi_BLE_SDK/GD32VW55x_RELEASE_V1.0.2/MSDK/lwip/lwip-2.1.2/src/core\udp.c ****       MIB2_STATS_INC(mib2.udpindatagrams);
 454              		.loc 1 376 5
 376:C:/Users/stapi/OneDrive/Desktop/GD32VW553/GD32VW55X_Wifi_BLE_SDK/GD32VW55x_RELEASE_V1.0.2/MSDK/lwip/lwip-2.1.2/src/core\udp.c ****       MIB2_STATS_INC(mib2.udpindatagrams);
 455              		.loc 1 376 8 is_stmt 0
 456 01e0 91CC     		beq	s1,zero,.L25
 377:C:/Users/stapi/OneDrive/Desktop/GD32VW553/GD32VW55X_Wifi_BLE_SDK/GD32VW55x_RELEASE_V1.0.2/MSDK/lwip/lwip-2.1.2/src/core\udp.c **** #if SO_REUSE && SO_REUSE_RXTOALL
 457              		.loc 1 377 42 is_stmt 1
 403:C:/Users/stapi/OneDrive/Desktop/GD32VW553/GD32VW55X_Wifi_BLE_SDK/GD32VW55x_RELEASE_V1.0.2/MSDK/lwip/lwip-2.1.2/src/core\udp.c ****         /* now the recv function is responsible for freeing p */
 458              		.loc 1 403 7
 403:C:/Users/stapi/OneDrive/Desktop/GD32VW553/GD32VW55X_Wifi_BLE_SDK/GD32VW55x_RELEASE_V1.0.2/MSDK/lwip/lwip-2.1.2/src/core\udp.c ****         /* now the recv function is responsible for freeing p */
 459              		.loc 1 403 14 is_stmt 0
 460 01e2 9C50     		lw	a5,32(s1)
 403:C:/Users/stapi/OneDrive/Desktop/GD32VW553/GD32VW55X_Wifi_BLE_SDK/GD32VW55x_RELEASE_V1.0.2/MSDK/lwip/lwip-2.1.2/src/core\udp.c ****         /* now the recv function is responsible for freeing p */
 461              		.loc 1 403 10
 462 01e4 E38107E8 		beq	a5,zero,.L21
 405:C:/Users/stapi/OneDrive/Desktop/GD32VW553/GD32VW55X_Wifi_BLE_SDK/GD32VW55x_RELEASE_V1.0.2/MSDK/lwip/lwip-2.1.2/src/core\udp.c ****       } else {
 463              		.loc 1 405 9 is_stmt 1
 464 01e8 C850     		lw	a0,36(s1)
 465 01ea B7060000 		lui	a3,%hi(ip_data+16)
 466 01ee 5A87     		mv	a4,s6
 467 01f0 93860601 		addi	a3,a3,%lo(ip_data+16)
 468 01f4 2286     		mv	a2,s0
 469 01f6 A685     		mv	a1,s1
 470 01f8 8297     		jalr	a5
 471              	.LVL40:
 472 01fa 9DBD     		j	.L3
 473              	.L25:
 412:C:/Users/stapi/OneDrive/Desktop/GD32VW553/GD32VW55X_Wifi_BLE_SDK/GD32VW55x_RELEASE_V1.0.2/MSDK/lwip/lwip-2.1.2/src/core\udp.c **** 
 474              		.loc 1 412 76
 417:C:/Users/stapi/OneDrive/Desktop/GD32VW553/GD32VW55X_Wifi_BLE_SDK/GD32VW55x_RELEASE_V1.0.2/MSDK/lwip/lwip-2.1.2/src/core\udp.c ****         /* move payload pointer back to ip header */
 475              		.loc 1 417 7
 417:C:/Users/stapi/OneDrive/Desktop/GD32VW553/GD32VW55X_Wifi_BLE_SDK/GD32VW55x_RELEASE_V1.0.2/MSDK/lwip/lwip-2.1.2/src/core\udp.c ****         /* move payload pointer back to ip header */
 476              		.loc 1 417 10 is_stmt 0
 477 01fc E3150AE6 		bne	s4,zero,.L21
 417:C:/Users/stapi/OneDrive/Desktop/GD32VW553/GD32VW55X_Wifi_BLE_SDK/GD32VW55x_RELEASE_V1.0.2/MSDK/lwip/lwip-2.1.2/src/core\udp.c ****         /* move payload pointer back to ip header */
 478              		.loc 1 417 26 discriminator 1
 479 0200 83A74A01 		lw	a5,20(s5)
 417:C:/Users/stapi/OneDrive/Desktop/GD32VW553/GD32VW55X_Wifi_BLE_SDK/GD32VW55x_RELEASE_V1.0.2/MSDK/lwip/lwip-2.1.2/src/core\udp.c ****         /* move payload pointer back to ip header */
 480              		.loc 1 417 22 discriminator 1
 481 0204 1307000E 		li	a4,224
 417:C:/Users/stapi/OneDrive/Desktop/GD32VW553/GD32VW55X_Wifi_BLE_SDK/GD32VW55x_RELEASE_V1.0.2/MSDK/lwip/lwip-2.1.2/src/core\udp.c ****         /* move payload pointer back to ip header */
 482              		.loc 1 417 26 discriminator 1
 483 0208 93F7070F 		andi	a5,a5,240
 417:C:/Users/stapi/OneDrive/Desktop/GD32VW553/GD32VW55X_Wifi_BLE_SDK/GD32VW55x_RELEASE_V1.0.2/MSDK/lwip/lwip-2.1.2/src/core\udp.c ****         /* move payload pointer back to ip header */
 484              		.loc 1 417 22 discriminator 1
 485 020c E38DE7E4 		beq	a5,a4,.L21
 419:C:/Users/stapi/OneDrive/Desktop/GD32VW553/GD32VW55X_Wifi_BLE_SDK/GD32VW55x_RELEASE_V1.0.2/MSDK/lwip/lwip-2.1.2/src/core\udp.c ****         icmp_port_unreach(ip_current_is_v6(), p);
 486              		.loc 1 419 9 is_stmt 1
 419:C:/Users/stapi/OneDrive/Desktop/GD32VW553/GD32VW55X_Wifi_BLE_SDK/GD32VW55x_RELEASE_V1.0.2/MSDK/lwip/lwip-2.1.2/src/core\udp.c ****         icmp_port_unreach(ip_current_is_v6(), p);
 487              		.loc 1 419 66 is_stmt 0
 488 0210 83D5CA00 		lhu	a1,12(s5)
 419:C:/Users/stapi/OneDrive/Desktop/GD32VW553/GD32VW55X_Wifi_BLE_SDK/GD32VW55x_RELEASE_V1.0.2/MSDK/lwip/lwip-2.1.2/src/core\udp.c ****         icmp_port_unreach(ip_current_is_v6(), p);
 489              		.loc 1 419 9
 490 0214 2285     		mv	a0,s0
 419:C:/Users/stapi/OneDrive/Desktop/GD32VW553/GD32VW55X_Wifi_BLE_SDK/GD32VW55x_RELEASE_V1.0.2/MSDK/lwip/lwip-2.1.2/src/core\udp.c ****         icmp_port_unreach(ip_current_is_v6(), p);
 491              		.loc 1 419 66
 492 0216 A105     		addi	a1,a1,8
 419:C:/Users/stapi/OneDrive/Desktop/GD32VW553/GD32VW55X_Wifi_BLE_SDK/GD32VW55x_RELEASE_V1.0.2/MSDK/lwip/lwip-2.1.2/src/core\udp.c ****         icmp_port_unreach(ip_current_is_v6(), p);
 493              		.loc 1 419 9
 494 0218 93955560 		sext.h	a1,a1
 495 021c 97000000 		call	pbuf_header_force
 495      E7800000 
 496              	.LVL41:
 420:C:/Users/stapi/OneDrive/Desktop/GD32VW553/GD32VW55X_Wifi_BLE_SDK/GD32VW55x_RELEASE_V1.0.2/MSDK/lwip/lwip-2.1.2/src/core\udp.c ****       }
 497              		.loc 1 420 9 is_stmt 1
 498 0224 8D45     		li	a1,3
 499 0226 2285     		mv	a0,s0
 500 0228 97000000 		call	icmp_dest_unreach
 500      E7800000 
 501              	.LVL42:
 502 0230 1DBD     		j	.L21
 503              		.cfi_endproc
 504              	.LFE7:
 506              		.section	.rodata.udp_bind.str1.4,"aMS",@progbits,1
 507              		.align	2
 508              	.LC5:
 509 0000 7564705F 		.string	"udp_bind: invalid pcb"
 509      62696E64 
 509      3A20696E 
 509      76616C69 
 509      64207063 
 510              		.section	.text.udp_bind,"ax",@progbits
 511              		.align	1
 512              		.globl	udp_bind
 514              	udp_bind:
 515              	.LFB12:
 445:C:/Users/stapi/OneDrive/Desktop/GD32VW553/GD32VW55X_Wifi_BLE_SDK/GD32VW55x_RELEASE_V1.0.2/MSDK/lwip/lwip-2.1.2/src/core\udp.c **** 
 446:C:/Users/stapi/OneDrive/Desktop/GD32VW553/GD32VW55X_Wifi_BLE_SDK/GD32VW55x_RELEASE_V1.0.2/MSDK/lwip/lwip-2.1.2/src/core\udp.c **** /**
 447:C:/Users/stapi/OneDrive/Desktop/GD32VW553/GD32VW55X_Wifi_BLE_SDK/GD32VW55x_RELEASE_V1.0.2/MSDK/lwip/lwip-2.1.2/src/core\udp.c ****  * @ingroup udp_raw
 448:C:/Users/stapi/OneDrive/Desktop/GD32VW553/GD32VW55X_Wifi_BLE_SDK/GD32VW55x_RELEASE_V1.0.2/MSDK/lwip/lwip-2.1.2/src/core\udp.c ****  * Sends the pbuf p using UDP. The pbuf is not deallocated.
 449:C:/Users/stapi/OneDrive/Desktop/GD32VW553/GD32VW55X_Wifi_BLE_SDK/GD32VW55x_RELEASE_V1.0.2/MSDK/lwip/lwip-2.1.2/src/core\udp.c ****  *
 450:C:/Users/stapi/OneDrive/Desktop/GD32VW553/GD32VW55X_Wifi_BLE_SDK/GD32VW55x_RELEASE_V1.0.2/MSDK/lwip/lwip-2.1.2/src/core\udp.c ****  *
 451:C:/Users/stapi/OneDrive/Desktop/GD32VW553/GD32VW55X_Wifi_BLE_SDK/GD32VW55x_RELEASE_V1.0.2/MSDK/lwip/lwip-2.1.2/src/core\udp.c ****  * @param pcb UDP PCB used to send the data.
 452:C:/Users/stapi/OneDrive/Desktop/GD32VW553/GD32VW55X_Wifi_BLE_SDK/GD32VW55x_RELEASE_V1.0.2/MSDK/lwip/lwip-2.1.2/src/core\udp.c ****  * @param p chain of pbuf's to be sent.
 453:C:/Users/stapi/OneDrive/Desktop/GD32VW553/GD32VW55X_Wifi_BLE_SDK/GD32VW55x_RELEASE_V1.0.2/MSDK/lwip/lwip-2.1.2/src/core\udp.c ****  *
 454:C:/Users/stapi/OneDrive/Desktop/GD32VW553/GD32VW55X_Wifi_BLE_SDK/GD32VW55x_RELEASE_V1.0.2/MSDK/lwip/lwip-2.1.2/src/core\udp.c ****  * The datagram will be sent to the current remote_ip & remote_port
 455:C:/Users/stapi/OneDrive/Desktop/GD32VW553/GD32VW55X_Wifi_BLE_SDK/GD32VW55x_RELEASE_V1.0.2/MSDK/lwip/lwip-2.1.2/src/core\udp.c ****  * stored in pcb. If the pcb is not bound to a port, it will
 456:C:/Users/stapi/OneDrive/Desktop/GD32VW553/GD32VW55X_Wifi_BLE_SDK/GD32VW55x_RELEASE_V1.0.2/MSDK/lwip/lwip-2.1.2/src/core\udp.c ****  * automatically be bound to a random port.
 457:C:/Users/stapi/OneDrive/Desktop/GD32VW553/GD32VW55X_Wifi_BLE_SDK/GD32VW55x_RELEASE_V1.0.2/MSDK/lwip/lwip-2.1.2/src/core\udp.c ****  *
 458:C:/Users/stapi/OneDrive/Desktop/GD32VW553/GD32VW55X_Wifi_BLE_SDK/GD32VW55x_RELEASE_V1.0.2/MSDK/lwip/lwip-2.1.2/src/core\udp.c ****  * @return lwIP error code.
 459:C:/Users/stapi/OneDrive/Desktop/GD32VW553/GD32VW55X_Wifi_BLE_SDK/GD32VW55x_RELEASE_V1.0.2/MSDK/lwip/lwip-2.1.2/src/core\udp.c ****  * - ERR_OK. Successful. No error occurred.
 460:C:/Users/stapi/OneDrive/Desktop/GD32VW553/GD32VW55X_Wifi_BLE_SDK/GD32VW55x_RELEASE_V1.0.2/MSDK/lwip/lwip-2.1.2/src/core\udp.c ****  * - ERR_MEM. Out of memory.
 461:C:/Users/stapi/OneDrive/Desktop/GD32VW553/GD32VW55X_Wifi_BLE_SDK/GD32VW55x_RELEASE_V1.0.2/MSDK/lwip/lwip-2.1.2/src/core\udp.c ****  * - ERR_RTE. Could not find route to destination address.
 462:C:/Users/stapi/OneDrive/Desktop/GD32VW553/GD32VW55X_Wifi_BLE_SDK/GD32VW55x_RELEASE_V1.0.2/MSDK/lwip/lwip-2.1.2/src/core\udp.c ****  * - ERR_VAL. No PCB or PCB is dual-stack
 463:C:/Users/stapi/OneDrive/Desktop/GD32VW553/GD32VW55X_Wifi_BLE_SDK/GD32VW55x_RELEASE_V1.0.2/MSDK/lwip/lwip-2.1.2/src/core\udp.c ****  * - More errors could be returned by lower protocol layers.
 464:C:/Users/stapi/OneDrive/Desktop/GD32VW553/GD32VW55X_Wifi_BLE_SDK/GD32VW55x_RELEASE_V1.0.2/MSDK/lwip/lwip-2.1.2/src/core\udp.c ****  *
 465:C:/Users/stapi/OneDrive/Desktop/GD32VW553/GD32VW55X_Wifi_BLE_SDK/GD32VW55x_RELEASE_V1.0.2/MSDK/lwip/lwip-2.1.2/src/core\udp.c ****  * @see udp_disconnect() udp_sendto()
 466:C:/Users/stapi/OneDrive/Desktop/GD32VW553/GD32VW55X_Wifi_BLE_SDK/GD32VW55x_RELEASE_V1.0.2/MSDK/lwip/lwip-2.1.2/src/core\udp.c ****  */
 467:C:/Users/stapi/OneDrive/Desktop/GD32VW553/GD32VW55X_Wifi_BLE_SDK/GD32VW55x_RELEASE_V1.0.2/MSDK/lwip/lwip-2.1.2/src/core\udp.c **** err_t
 468:C:/Users/stapi/OneDrive/Desktop/GD32VW553/GD32VW55X_Wifi_BLE_SDK/GD32VW55x_RELEASE_V1.0.2/MSDK/lwip/lwip-2.1.2/src/core\udp.c **** udp_send(struct udp_pcb *pcb, struct pbuf *p)
 469:C:/Users/stapi/OneDrive/Desktop/GD32VW553/GD32VW55X_Wifi_BLE_SDK/GD32VW55x_RELEASE_V1.0.2/MSDK/lwip/lwip-2.1.2/src/core\udp.c **** {
 470:C:/Users/stapi/OneDrive/Desktop/GD32VW553/GD32VW55X_Wifi_BLE_SDK/GD32VW55x_RELEASE_V1.0.2/MSDK/lwip/lwip-2.1.2/src/core\udp.c ****   LWIP_ERROR("udp_send: invalid pcb", pcb != NULL, return ERR_ARG);
 471:C:/Users/stapi/OneDrive/Desktop/GD32VW553/GD32VW55X_Wifi_BLE_SDK/GD32VW55x_RELEASE_V1.0.2/MSDK/lwip/lwip-2.1.2/src/core\udp.c ****   LWIP_ERROR("udp_send: invalid pbuf", p != NULL, return ERR_ARG);
 472:C:/Users/stapi/OneDrive/Desktop/GD32VW553/GD32VW55X_Wifi_BLE_SDK/GD32VW55x_RELEASE_V1.0.2/MSDK/lwip/lwip-2.1.2/src/core\udp.c **** 
 473:C:/Users/stapi/OneDrive/Desktop/GD32VW553/GD32VW55X_Wifi_BLE_SDK/GD32VW55x_RELEASE_V1.0.2/MSDK/lwip/lwip-2.1.2/src/core\udp.c ****   if (IP_IS_ANY_TYPE_VAL(pcb->remote_ip)) {
 474:C:/Users/stapi/OneDrive/Desktop/GD32VW553/GD32VW55X_Wifi_BLE_SDK/GD32VW55x_RELEASE_V1.0.2/MSDK/lwip/lwip-2.1.2/src/core\udp.c ****     return ERR_VAL;
 475:C:/Users/stapi/OneDrive/Desktop/GD32VW553/GD32VW55X_Wifi_BLE_SDK/GD32VW55x_RELEASE_V1.0.2/MSDK/lwip/lwip-2.1.2/src/core\udp.c ****   }
 476:C:/Users/stapi/OneDrive/Desktop/GD32VW553/GD32VW55X_Wifi_BLE_SDK/GD32VW55x_RELEASE_V1.0.2/MSDK/lwip/lwip-2.1.2/src/core\udp.c **** 
 477:C:/Users/stapi/OneDrive/Desktop/GD32VW553/GD32VW55X_Wifi_BLE_SDK/GD32VW55x_RELEASE_V1.0.2/MSDK/lwip/lwip-2.1.2/src/core\udp.c ****   /* send to the packet using remote ip and port stored in the pcb */
 478:C:/Users/stapi/OneDrive/Desktop/GD32VW553/GD32VW55X_Wifi_BLE_SDK/GD32VW55x_RELEASE_V1.0.2/MSDK/lwip/lwip-2.1.2/src/core\udp.c ****   return udp_sendto(pcb, p, &pcb->remote_ip, pcb->remote_port);
 479:C:/Users/stapi/OneDrive/Desktop/GD32VW553/GD32VW55X_Wifi_BLE_SDK/GD32VW55x_RELEASE_V1.0.2/MSDK/lwip/lwip-2.1.2/src/core\udp.c **** }
 480:C:/Users/stapi/OneDrive/Desktop/GD32VW553/GD32VW55X_Wifi_BLE_SDK/GD32VW55x_RELEASE_V1.0.2/MSDK/lwip/lwip-2.1.2/src/core\udp.c **** 
 481:C:/Users/stapi/OneDrive/Desktop/GD32VW553/GD32VW55X_Wifi_BLE_SDK/GD32VW55x_RELEASE_V1.0.2/MSDK/lwip/lwip-2.1.2/src/core\udp.c **** #if LWIP_CHECKSUM_ON_COPY && CHECKSUM_GEN_UDP
 482:C:/Users/stapi/OneDrive/Desktop/GD32VW553/GD32VW55X_Wifi_BLE_SDK/GD32VW55x_RELEASE_V1.0.2/MSDK/lwip/lwip-2.1.2/src/core\udp.c **** /** @ingroup udp_raw
 483:C:/Users/stapi/OneDrive/Desktop/GD32VW553/GD32VW55X_Wifi_BLE_SDK/GD32VW55x_RELEASE_V1.0.2/MSDK/lwip/lwip-2.1.2/src/core\udp.c ****  * Same as udp_send() but with checksum
 484:C:/Users/stapi/OneDrive/Desktop/GD32VW553/GD32VW55X_Wifi_BLE_SDK/GD32VW55x_RELEASE_V1.0.2/MSDK/lwip/lwip-2.1.2/src/core\udp.c ****  */
 485:C:/Users/stapi/OneDrive/Desktop/GD32VW553/GD32VW55X_Wifi_BLE_SDK/GD32VW55x_RELEASE_V1.0.2/MSDK/lwip/lwip-2.1.2/src/core\udp.c **** err_t
 486:C:/Users/stapi/OneDrive/Desktop/GD32VW553/GD32VW55X_Wifi_BLE_SDK/GD32VW55x_RELEASE_V1.0.2/MSDK/lwip/lwip-2.1.2/src/core\udp.c **** udp_send_chksum(struct udp_pcb *pcb, struct pbuf *p,
 487:C:/Users/stapi/OneDrive/Desktop/GD32VW553/GD32VW55X_Wifi_BLE_SDK/GD32VW55x_RELEASE_V1.0.2/MSDK/lwip/lwip-2.1.2/src/core\udp.c ****                 u8_t have_chksum, u16_t chksum)
 488:C:/Users/stapi/OneDrive/Desktop/GD32VW553/GD32VW55X_Wifi_BLE_SDK/GD32VW55x_RELEASE_V1.0.2/MSDK/lwip/lwip-2.1.2/src/core\udp.c **** {
 489:C:/Users/stapi/OneDrive/Desktop/GD32VW553/GD32VW55X_Wifi_BLE_SDK/GD32VW55x_RELEASE_V1.0.2/MSDK/lwip/lwip-2.1.2/src/core\udp.c ****   LWIP_ERROR("udp_send_chksum: invalid pcb", pcb != NULL, return ERR_ARG);
 490:C:/Users/stapi/OneDrive/Desktop/GD32VW553/GD32VW55X_Wifi_BLE_SDK/GD32VW55x_RELEASE_V1.0.2/MSDK/lwip/lwip-2.1.2/src/core\udp.c ****   LWIP_ERROR("udp_send_chksum: invalid pbuf", p != NULL, return ERR_ARG);
 491:C:/Users/stapi/OneDrive/Desktop/GD32VW553/GD32VW55X_Wifi_BLE_SDK/GD32VW55x_RELEASE_V1.0.2/MSDK/lwip/lwip-2.1.2/src/core\udp.c **** 
 492:C:/Users/stapi/OneDrive/Desktop/GD32VW553/GD32VW55X_Wifi_BLE_SDK/GD32VW55x_RELEASE_V1.0.2/MSDK/lwip/lwip-2.1.2/src/core\udp.c ****   if (IP_IS_ANY_TYPE_VAL(pcb->remote_ip)) {
 493:C:/Users/stapi/OneDrive/Desktop/GD32VW553/GD32VW55X_Wifi_BLE_SDK/GD32VW55x_RELEASE_V1.0.2/MSDK/lwip/lwip-2.1.2/src/core\udp.c ****     return ERR_VAL;
 494:C:/Users/stapi/OneDrive/Desktop/GD32VW553/GD32VW55X_Wifi_BLE_SDK/GD32VW55x_RELEASE_V1.0.2/MSDK/lwip/lwip-2.1.2/src/core\udp.c ****   }
 495:C:/Users/stapi/OneDrive/Desktop/GD32VW553/GD32VW55X_Wifi_BLE_SDK/GD32VW55x_RELEASE_V1.0.2/MSDK/lwip/lwip-2.1.2/src/core\udp.c **** 
 496:C:/Users/stapi/OneDrive/Desktop/GD32VW553/GD32VW55X_Wifi_BLE_SDK/GD32VW55x_RELEASE_V1.0.2/MSDK/lwip/lwip-2.1.2/src/core\udp.c ****   /* send to the packet using remote ip and port stored in the pcb */
 497:C:/Users/stapi/OneDrive/Desktop/GD32VW553/GD32VW55X_Wifi_BLE_SDK/GD32VW55x_RELEASE_V1.0.2/MSDK/lwip/lwip-2.1.2/src/core\udp.c ****   return udp_sendto_chksum(pcb, p, &pcb->remote_ip, pcb->remote_port,
 498:C:/Users/stapi/OneDrive/Desktop/GD32VW553/GD32VW55X_Wifi_BLE_SDK/GD32VW55x_RELEASE_V1.0.2/MSDK/lwip/lwip-2.1.2/src/core\udp.c ****                            have_chksum, chksum);
 499:C:/Users/stapi/OneDrive/Desktop/GD32VW553/GD32VW55X_Wifi_BLE_SDK/GD32VW55x_RELEASE_V1.0.2/MSDK/lwip/lwip-2.1.2/src/core\udp.c **** }
 500:C:/Users/stapi/OneDrive/Desktop/GD32VW553/GD32VW55X_Wifi_BLE_SDK/GD32VW55x_RELEASE_V1.0.2/MSDK/lwip/lwip-2.1.2/src/core\udp.c **** #endif /* LWIP_CHECKSUM_ON_COPY && CHECKSUM_GEN_UDP */
 501:C:/Users/stapi/OneDrive/Desktop/GD32VW553/GD32VW55X_Wifi_BLE_SDK/GD32VW55x_RELEASE_V1.0.2/MSDK/lwip/lwip-2.1.2/src/core\udp.c **** 
 502:C:/Users/stapi/OneDrive/Desktop/GD32VW553/GD32VW55X_Wifi_BLE_SDK/GD32VW55x_RELEASE_V1.0.2/MSDK/lwip/lwip-2.1.2/src/core\udp.c **** /**
 503:C:/Users/stapi/OneDrive/Desktop/GD32VW553/GD32VW55X_Wifi_BLE_SDK/GD32VW55x_RELEASE_V1.0.2/MSDK/lwip/lwip-2.1.2/src/core\udp.c ****  * @ingroup udp_raw
 504:C:/Users/stapi/OneDrive/Desktop/GD32VW553/GD32VW55X_Wifi_BLE_SDK/GD32VW55x_RELEASE_V1.0.2/MSDK/lwip/lwip-2.1.2/src/core\udp.c ****  * Send data to a specified address using UDP.
 505:C:/Users/stapi/OneDrive/Desktop/GD32VW553/GD32VW55X_Wifi_BLE_SDK/GD32VW55x_RELEASE_V1.0.2/MSDK/lwip/lwip-2.1.2/src/core\udp.c ****  *
 506:C:/Users/stapi/OneDrive/Desktop/GD32VW553/GD32VW55X_Wifi_BLE_SDK/GD32VW55x_RELEASE_V1.0.2/MSDK/lwip/lwip-2.1.2/src/core\udp.c ****  * @param pcb UDP PCB used to send the data.
 507:C:/Users/stapi/OneDrive/Desktop/GD32VW553/GD32VW55X_Wifi_BLE_SDK/GD32VW55x_RELEASE_V1.0.2/MSDK/lwip/lwip-2.1.2/src/core\udp.c ****  * @param p chain of pbuf's to be sent.
 508:C:/Users/stapi/OneDrive/Desktop/GD32VW553/GD32VW55X_Wifi_BLE_SDK/GD32VW55x_RELEASE_V1.0.2/MSDK/lwip/lwip-2.1.2/src/core\udp.c ****  * @param dst_ip Destination IP address.
 509:C:/Users/stapi/OneDrive/Desktop/GD32VW553/GD32VW55X_Wifi_BLE_SDK/GD32VW55x_RELEASE_V1.0.2/MSDK/lwip/lwip-2.1.2/src/core\udp.c ****  * @param dst_port Destination UDP port.
 510:C:/Users/stapi/OneDrive/Desktop/GD32VW553/GD32VW55X_Wifi_BLE_SDK/GD32VW55x_RELEASE_V1.0.2/MSDK/lwip/lwip-2.1.2/src/core\udp.c ****  *
 511:C:/Users/stapi/OneDrive/Desktop/GD32VW553/GD32VW55X_Wifi_BLE_SDK/GD32VW55x_RELEASE_V1.0.2/MSDK/lwip/lwip-2.1.2/src/core\udp.c ****  * dst_ip & dst_port are expected to be in the same byte order as in the pcb.
 512:C:/Users/stapi/OneDrive/Desktop/GD32VW553/GD32VW55X_Wifi_BLE_SDK/GD32VW55x_RELEASE_V1.0.2/MSDK/lwip/lwip-2.1.2/src/core\udp.c ****  *
 513:C:/Users/stapi/OneDrive/Desktop/GD32VW553/GD32VW55X_Wifi_BLE_SDK/GD32VW55x_RELEASE_V1.0.2/MSDK/lwip/lwip-2.1.2/src/core\udp.c ****  * If the PCB already has a remote address association, it will
 514:C:/Users/stapi/OneDrive/Desktop/GD32VW553/GD32VW55X_Wifi_BLE_SDK/GD32VW55x_RELEASE_V1.0.2/MSDK/lwip/lwip-2.1.2/src/core\udp.c ****  * be restored after the data is sent.
 515:C:/Users/stapi/OneDrive/Desktop/GD32VW553/GD32VW55X_Wifi_BLE_SDK/GD32VW55x_RELEASE_V1.0.2/MSDK/lwip/lwip-2.1.2/src/core\udp.c ****  *
 516:C:/Users/stapi/OneDrive/Desktop/GD32VW553/GD32VW55X_Wifi_BLE_SDK/GD32VW55x_RELEASE_V1.0.2/MSDK/lwip/lwip-2.1.2/src/core\udp.c ****  * @return lwIP error code (@see udp_send for possible error codes)
 517:C:/Users/stapi/OneDrive/Desktop/GD32VW553/GD32VW55X_Wifi_BLE_SDK/GD32VW55x_RELEASE_V1.0.2/MSDK/lwip/lwip-2.1.2/src/core\udp.c ****  *
 518:C:/Users/stapi/OneDrive/Desktop/GD32VW553/GD32VW55X_Wifi_BLE_SDK/GD32VW55x_RELEASE_V1.0.2/MSDK/lwip/lwip-2.1.2/src/core\udp.c ****  * @see udp_disconnect() udp_send()
 519:C:/Users/stapi/OneDrive/Desktop/GD32VW553/GD32VW55X_Wifi_BLE_SDK/GD32VW55x_RELEASE_V1.0.2/MSDK/lwip/lwip-2.1.2/src/core\udp.c ****  */
 520:C:/Users/stapi/OneDrive/Desktop/GD32VW553/GD32VW55X_Wifi_BLE_SDK/GD32VW55x_RELEASE_V1.0.2/MSDK/lwip/lwip-2.1.2/src/core\udp.c **** err_t
 521:C:/Users/stapi/OneDrive/Desktop/GD32VW553/GD32VW55X_Wifi_BLE_SDK/GD32VW55x_RELEASE_V1.0.2/MSDK/lwip/lwip-2.1.2/src/core\udp.c **** udp_sendto(struct udp_pcb *pcb, struct pbuf *p,
 522:C:/Users/stapi/OneDrive/Desktop/GD32VW553/GD32VW55X_Wifi_BLE_SDK/GD32VW55x_RELEASE_V1.0.2/MSDK/lwip/lwip-2.1.2/src/core\udp.c ****            const ip_addr_t *dst_ip, u16_t dst_port)
 523:C:/Users/stapi/OneDrive/Desktop/GD32VW553/GD32VW55X_Wifi_BLE_SDK/GD32VW55x_RELEASE_V1.0.2/MSDK/lwip/lwip-2.1.2/src/core\udp.c **** {
 524:C:/Users/stapi/OneDrive/Desktop/GD32VW553/GD32VW55X_Wifi_BLE_SDK/GD32VW55x_RELEASE_V1.0.2/MSDK/lwip/lwip-2.1.2/src/core\udp.c **** #if LWIP_CHECKSUM_ON_COPY && CHECKSUM_GEN_UDP
 525:C:/Users/stapi/OneDrive/Desktop/GD32VW553/GD32VW55X_Wifi_BLE_SDK/GD32VW55x_RELEASE_V1.0.2/MSDK/lwip/lwip-2.1.2/src/core\udp.c ****   return udp_sendto_chksum(pcb, p, dst_ip, dst_port, 0, 0);
 526:C:/Users/stapi/OneDrive/Desktop/GD32VW553/GD32VW55X_Wifi_BLE_SDK/GD32VW55x_RELEASE_V1.0.2/MSDK/lwip/lwip-2.1.2/src/core\udp.c **** }
 527:C:/Users/stapi/OneDrive/Desktop/GD32VW553/GD32VW55X_Wifi_BLE_SDK/GD32VW55x_RELEASE_V1.0.2/MSDK/lwip/lwip-2.1.2/src/core\udp.c **** 
 528:C:/Users/stapi/OneDrive/Desktop/GD32VW553/GD32VW55X_Wifi_BLE_SDK/GD32VW55x_RELEASE_V1.0.2/MSDK/lwip/lwip-2.1.2/src/core\udp.c **** /** @ingroup udp_raw
 529:C:/Users/stapi/OneDrive/Desktop/GD32VW553/GD32VW55X_Wifi_BLE_SDK/GD32VW55x_RELEASE_V1.0.2/MSDK/lwip/lwip-2.1.2/src/core\udp.c ****  * Same as udp_sendto(), but with checksum */
 530:C:/Users/stapi/OneDrive/Desktop/GD32VW553/GD32VW55X_Wifi_BLE_SDK/GD32VW55x_RELEASE_V1.0.2/MSDK/lwip/lwip-2.1.2/src/core\udp.c **** err_t
 531:C:/Users/stapi/OneDrive/Desktop/GD32VW553/GD32VW55X_Wifi_BLE_SDK/GD32VW55x_RELEASE_V1.0.2/MSDK/lwip/lwip-2.1.2/src/core\udp.c **** udp_sendto_chksum(struct udp_pcb *pcb, struct pbuf *p, const ip_addr_t *dst_ip,
 532:C:/Users/stapi/OneDrive/Desktop/GD32VW553/GD32VW55X_Wifi_BLE_SDK/GD32VW55x_RELEASE_V1.0.2/MSDK/lwip/lwip-2.1.2/src/core\udp.c ****                   u16_t dst_port, u8_t have_chksum, u16_t chksum)
 533:C:/Users/stapi/OneDrive/Desktop/GD32VW553/GD32VW55X_Wifi_BLE_SDK/GD32VW55x_RELEASE_V1.0.2/MSDK/lwip/lwip-2.1.2/src/core\udp.c **** {
 534:C:/Users/stapi/OneDrive/Desktop/GD32VW553/GD32VW55X_Wifi_BLE_SDK/GD32VW55x_RELEASE_V1.0.2/MSDK/lwip/lwip-2.1.2/src/core\udp.c **** #endif /* LWIP_CHECKSUM_ON_COPY && CHECKSUM_GEN_UDP */
 535:C:/Users/stapi/OneDrive/Desktop/GD32VW553/GD32VW55X_Wifi_BLE_SDK/GD32VW55x_RELEASE_V1.0.2/MSDK/lwip/lwip-2.1.2/src/core\udp.c ****   struct netif *netif;
 536:C:/Users/stapi/OneDrive/Desktop/GD32VW553/GD32VW55X_Wifi_BLE_SDK/GD32VW55x_RELEASE_V1.0.2/MSDK/lwip/lwip-2.1.2/src/core\udp.c **** 
 537:C:/Users/stapi/OneDrive/Desktop/GD32VW553/GD32VW55X_Wifi_BLE_SDK/GD32VW55x_RELEASE_V1.0.2/MSDK/lwip/lwip-2.1.2/src/core\udp.c ****   LWIP_ERROR("udp_sendto: invalid pcb", pcb != NULL, return ERR_ARG);
 538:C:/Users/stapi/OneDrive/Desktop/GD32VW553/GD32VW55X_Wifi_BLE_SDK/GD32VW55x_RELEASE_V1.0.2/MSDK/lwip/lwip-2.1.2/src/core\udp.c ****   LWIP_ERROR("udp_sendto: invalid pbuf", p != NULL, return ERR_ARG);
 539:C:/Users/stapi/OneDrive/Desktop/GD32VW553/GD32VW55X_Wifi_BLE_SDK/GD32VW55x_RELEASE_V1.0.2/MSDK/lwip/lwip-2.1.2/src/core\udp.c ****   LWIP_ERROR("udp_sendto: invalid dst_ip", dst_ip != NULL, return ERR_ARG);
 540:C:/Users/stapi/OneDrive/Desktop/GD32VW553/GD32VW55X_Wifi_BLE_SDK/GD32VW55x_RELEASE_V1.0.2/MSDK/lwip/lwip-2.1.2/src/core\udp.c **** 
 541:C:/Users/stapi/OneDrive/Desktop/GD32VW553/GD32VW55X_Wifi_BLE_SDK/GD32VW55x_RELEASE_V1.0.2/MSDK/lwip/lwip-2.1.2/src/core\udp.c ****   if (!IP_ADDR_PCB_VERSION_MATCH(pcb, dst_ip)) {
 542:C:/Users/stapi/OneDrive/Desktop/GD32VW553/GD32VW55X_Wifi_BLE_SDK/GD32VW55x_RELEASE_V1.0.2/MSDK/lwip/lwip-2.1.2/src/core\udp.c ****     return ERR_VAL;
 543:C:/Users/stapi/OneDrive/Desktop/GD32VW553/GD32VW55X_Wifi_BLE_SDK/GD32VW55x_RELEASE_V1.0.2/MSDK/lwip/lwip-2.1.2/src/core\udp.c ****   }
 544:C:/Users/stapi/OneDrive/Desktop/GD32VW553/GD32VW55X_Wifi_BLE_SDK/GD32VW55x_RELEASE_V1.0.2/MSDK/lwip/lwip-2.1.2/src/core\udp.c **** 
 545:C:/Users/stapi/OneDrive/Desktop/GD32VW553/GD32VW55X_Wifi_BLE_SDK/GD32VW55x_RELEASE_V1.0.2/MSDK/lwip/lwip-2.1.2/src/core\udp.c ****   LWIP_DEBUGF(UDP_DEBUG | LWIP_DBG_TRACE, ("udp_send\n"));
 546:C:/Users/stapi/OneDrive/Desktop/GD32VW553/GD32VW55X_Wifi_BLE_SDK/GD32VW55x_RELEASE_V1.0.2/MSDK/lwip/lwip-2.1.2/src/core\udp.c **** 
 547:C:/Users/stapi/OneDrive/Desktop/GD32VW553/GD32VW55X_Wifi_BLE_SDK/GD32VW55x_RELEASE_V1.0.2/MSDK/lwip/lwip-2.1.2/src/core\udp.c ****   if (pcb->netif_idx != NETIF_NO_INDEX) {
 548:C:/Users/stapi/OneDrive/Desktop/GD32VW553/GD32VW55X_Wifi_BLE_SDK/GD32VW55x_RELEASE_V1.0.2/MSDK/lwip/lwip-2.1.2/src/core\udp.c ****     netif = netif_get_by_index(pcb->netif_idx);
 549:C:/Users/stapi/OneDrive/Desktop/GD32VW553/GD32VW55X_Wifi_BLE_SDK/GD32VW55x_RELEASE_V1.0.2/MSDK/lwip/lwip-2.1.2/src/core\udp.c ****   } else {
 550:C:/Users/stapi/OneDrive/Desktop/GD32VW553/GD32VW55X_Wifi_BLE_SDK/GD32VW55x_RELEASE_V1.0.2/MSDK/lwip/lwip-2.1.2/src/core\udp.c **** #if LWIP_MULTICAST_TX_OPTIONS
 551:C:/Users/stapi/OneDrive/Desktop/GD32VW553/GD32VW55X_Wifi_BLE_SDK/GD32VW55x_RELEASE_V1.0.2/MSDK/lwip/lwip-2.1.2/src/core\udp.c ****     netif = NULL;
 552:C:/Users/stapi/OneDrive/Desktop/GD32VW553/GD32VW55X_Wifi_BLE_SDK/GD32VW55x_RELEASE_V1.0.2/MSDK/lwip/lwip-2.1.2/src/core\udp.c ****     if (ip_addr_ismulticast(dst_ip)) {
 553:C:/Users/stapi/OneDrive/Desktop/GD32VW553/GD32VW55X_Wifi_BLE_SDK/GD32VW55x_RELEASE_V1.0.2/MSDK/lwip/lwip-2.1.2/src/core\udp.c ****       /* For IPv6, the interface to use for packets with a multicast destination
 554:C:/Users/stapi/OneDrive/Desktop/GD32VW553/GD32VW55X_Wifi_BLE_SDK/GD32VW55x_RELEASE_V1.0.2/MSDK/lwip/lwip-2.1.2/src/core\udp.c ****        * is specified using an interface index. The same approach may be used for
 555:C:/Users/stapi/OneDrive/Desktop/GD32VW553/GD32VW55X_Wifi_BLE_SDK/GD32VW55x_RELEASE_V1.0.2/MSDK/lwip/lwip-2.1.2/src/core\udp.c ****        * IPv4 as well, in which case it overrides the IPv4 multicast override
 556:C:/Users/stapi/OneDrive/Desktop/GD32VW553/GD32VW55X_Wifi_BLE_SDK/GD32VW55x_RELEASE_V1.0.2/MSDK/lwip/lwip-2.1.2/src/core\udp.c ****        * address below. Here we have to look up the netif by going through the
 557:C:/Users/stapi/OneDrive/Desktop/GD32VW553/GD32VW55X_Wifi_BLE_SDK/GD32VW55x_RELEASE_V1.0.2/MSDK/lwip/lwip-2.1.2/src/core\udp.c ****        * list, but by doing so we skip a route lookup. If the interface index has
 558:C:/Users/stapi/OneDrive/Desktop/GD32VW553/GD32VW55X_Wifi_BLE_SDK/GD32VW55x_RELEASE_V1.0.2/MSDK/lwip/lwip-2.1.2/src/core\udp.c ****        * gone stale, we fall through and do the regular route lookup after all. */
 559:C:/Users/stapi/OneDrive/Desktop/GD32VW553/GD32VW55X_Wifi_BLE_SDK/GD32VW55x_RELEASE_V1.0.2/MSDK/lwip/lwip-2.1.2/src/core\udp.c ****       if (pcb->mcast_ifindex != NETIF_NO_INDEX) {
 560:C:/Users/stapi/OneDrive/Desktop/GD32VW553/GD32VW55X_Wifi_BLE_SDK/GD32VW55x_RELEASE_V1.0.2/MSDK/lwip/lwip-2.1.2/src/core\udp.c ****         netif = netif_get_by_index(pcb->mcast_ifindex);
 561:C:/Users/stapi/OneDrive/Desktop/GD32VW553/GD32VW55X_Wifi_BLE_SDK/GD32VW55x_RELEASE_V1.0.2/MSDK/lwip/lwip-2.1.2/src/core\udp.c ****       }
 562:C:/Users/stapi/OneDrive/Desktop/GD32VW553/GD32VW55X_Wifi_BLE_SDK/GD32VW55x_RELEASE_V1.0.2/MSDK/lwip/lwip-2.1.2/src/core\udp.c **** #if LWIP_IPV4
 563:C:/Users/stapi/OneDrive/Desktop/GD32VW553/GD32VW55X_Wifi_BLE_SDK/GD32VW55x_RELEASE_V1.0.2/MSDK/lwip/lwip-2.1.2/src/core\udp.c ****       else
 564:C:/Users/stapi/OneDrive/Desktop/GD32VW553/GD32VW55X_Wifi_BLE_SDK/GD32VW55x_RELEASE_V1.0.2/MSDK/lwip/lwip-2.1.2/src/core\udp.c **** #if LWIP_IPV6
 565:C:/Users/stapi/OneDrive/Desktop/GD32VW553/GD32VW55X_Wifi_BLE_SDK/GD32VW55x_RELEASE_V1.0.2/MSDK/lwip/lwip-2.1.2/src/core\udp.c ****         if (IP_IS_V4(dst_ip))
 566:C:/Users/stapi/OneDrive/Desktop/GD32VW553/GD32VW55X_Wifi_BLE_SDK/GD32VW55x_RELEASE_V1.0.2/MSDK/lwip/lwip-2.1.2/src/core\udp.c **** #endif /* LWIP_IPV6 */
 567:C:/Users/stapi/OneDrive/Desktop/GD32VW553/GD32VW55X_Wifi_BLE_SDK/GD32VW55x_RELEASE_V1.0.2/MSDK/lwip/lwip-2.1.2/src/core\udp.c ****         {
 568:C:/Users/stapi/OneDrive/Desktop/GD32VW553/GD32VW55X_Wifi_BLE_SDK/GD32VW55x_RELEASE_V1.0.2/MSDK/lwip/lwip-2.1.2/src/core\udp.c ****           /* IPv4 does not use source-based routing by default, so we use an
 569:C:/Users/stapi/OneDrive/Desktop/GD32VW553/GD32VW55X_Wifi_BLE_SDK/GD32VW55x_RELEASE_V1.0.2/MSDK/lwip/lwip-2.1.2/src/core\udp.c ****              administratively selected interface for multicast by default.
 570:C:/Users/stapi/OneDrive/Desktop/GD32VW553/GD32VW55X_Wifi_BLE_SDK/GD32VW55x_RELEASE_V1.0.2/MSDK/lwip/lwip-2.1.2/src/core\udp.c ****              However, this can be overridden by setting an interface address
 571:C:/Users/stapi/OneDrive/Desktop/GD32VW553/GD32VW55X_Wifi_BLE_SDK/GD32VW55x_RELEASE_V1.0.2/MSDK/lwip/lwip-2.1.2/src/core\udp.c ****              in pcb->mcast_ip4 that is used for routing. If this routing lookup
 572:C:/Users/stapi/OneDrive/Desktop/GD32VW553/GD32VW55X_Wifi_BLE_SDK/GD32VW55x_RELEASE_V1.0.2/MSDK/lwip/lwip-2.1.2/src/core\udp.c ****              fails, we try regular routing as though no override was set. */
 573:C:/Users/stapi/OneDrive/Desktop/GD32VW553/GD32VW55X_Wifi_BLE_SDK/GD32VW55x_RELEASE_V1.0.2/MSDK/lwip/lwip-2.1.2/src/core\udp.c ****           if (!ip4_addr_isany_val(pcb->mcast_ip4) &&
 574:C:/Users/stapi/OneDrive/Desktop/GD32VW553/GD32VW55X_Wifi_BLE_SDK/GD32VW55x_RELEASE_V1.0.2/MSDK/lwip/lwip-2.1.2/src/core\udp.c ****               !ip4_addr_cmp(&pcb->mcast_ip4, IP4_ADDR_BROADCAST)) {
 575:C:/Users/stapi/OneDrive/Desktop/GD32VW553/GD32VW55X_Wifi_BLE_SDK/GD32VW55x_RELEASE_V1.0.2/MSDK/lwip/lwip-2.1.2/src/core\udp.c ****             netif = ip4_route_src(ip_2_ip4(&pcb->local_ip), &pcb->mcast_ip4);
 576:C:/Users/stapi/OneDrive/Desktop/GD32VW553/GD32VW55X_Wifi_BLE_SDK/GD32VW55x_RELEASE_V1.0.2/MSDK/lwip/lwip-2.1.2/src/core\udp.c ****           }
 577:C:/Users/stapi/OneDrive/Desktop/GD32VW553/GD32VW55X_Wifi_BLE_SDK/GD32VW55x_RELEASE_V1.0.2/MSDK/lwip/lwip-2.1.2/src/core\udp.c ****         }
 578:C:/Users/stapi/OneDrive/Desktop/GD32VW553/GD32VW55X_Wifi_BLE_SDK/GD32VW55x_RELEASE_V1.0.2/MSDK/lwip/lwip-2.1.2/src/core\udp.c **** #endif /* LWIP_IPV4 */
 579:C:/Users/stapi/OneDrive/Desktop/GD32VW553/GD32VW55X_Wifi_BLE_SDK/GD32VW55x_RELEASE_V1.0.2/MSDK/lwip/lwip-2.1.2/src/core\udp.c ****     }
 580:C:/Users/stapi/OneDrive/Desktop/GD32VW553/GD32VW55X_Wifi_BLE_SDK/GD32VW55x_RELEASE_V1.0.2/MSDK/lwip/lwip-2.1.2/src/core\udp.c **** 
 581:C:/Users/stapi/OneDrive/Desktop/GD32VW553/GD32VW55X_Wifi_BLE_SDK/GD32VW55x_RELEASE_V1.0.2/MSDK/lwip/lwip-2.1.2/src/core\udp.c ****     if (netif == NULL)
 582:C:/Users/stapi/OneDrive/Desktop/GD32VW553/GD32VW55X_Wifi_BLE_SDK/GD32VW55x_RELEASE_V1.0.2/MSDK/lwip/lwip-2.1.2/src/core\udp.c **** #endif /* LWIP_MULTICAST_TX_OPTIONS */
 583:C:/Users/stapi/OneDrive/Desktop/GD32VW553/GD32VW55X_Wifi_BLE_SDK/GD32VW55x_RELEASE_V1.0.2/MSDK/lwip/lwip-2.1.2/src/core\udp.c ****     {
 584:C:/Users/stapi/OneDrive/Desktop/GD32VW553/GD32VW55X_Wifi_BLE_SDK/GD32VW55x_RELEASE_V1.0.2/MSDK/lwip/lwip-2.1.2/src/core\udp.c ****       /* find the outgoing network interface for this packet */
 585:C:/Users/stapi/OneDrive/Desktop/GD32VW553/GD32VW55X_Wifi_BLE_SDK/GD32VW55x_RELEASE_V1.0.2/MSDK/lwip/lwip-2.1.2/src/core\udp.c ****       netif = ip_route(&pcb->local_ip, dst_ip);
 586:C:/Users/stapi/OneDrive/Desktop/GD32VW553/GD32VW55X_Wifi_BLE_SDK/GD32VW55x_RELEASE_V1.0.2/MSDK/lwip/lwip-2.1.2/src/core\udp.c ****     }
 587:C:/Users/stapi/OneDrive/Desktop/GD32VW553/GD32VW55X_Wifi_BLE_SDK/GD32VW55x_RELEASE_V1.0.2/MSDK/lwip/lwip-2.1.2/src/core\udp.c ****   }
 588:C:/Users/stapi/OneDrive/Desktop/GD32VW553/GD32VW55X_Wifi_BLE_SDK/GD32VW55x_RELEASE_V1.0.2/MSDK/lwip/lwip-2.1.2/src/core\udp.c **** 
 589:C:/Users/stapi/OneDrive/Desktop/GD32VW553/GD32VW55X_Wifi_BLE_SDK/GD32VW55x_RELEASE_V1.0.2/MSDK/lwip/lwip-2.1.2/src/core\udp.c ****   /* no outgoing network interface could be found? */
 590:C:/Users/stapi/OneDrive/Desktop/GD32VW553/GD32VW55X_Wifi_BLE_SDK/GD32VW55x_RELEASE_V1.0.2/MSDK/lwip/lwip-2.1.2/src/core\udp.c ****   if (netif == NULL) {
 591:C:/Users/stapi/OneDrive/Desktop/GD32VW553/GD32VW55X_Wifi_BLE_SDK/GD32VW55x_RELEASE_V1.0.2/MSDK/lwip/lwip-2.1.2/src/core\udp.c ****     LWIP_DEBUGF(UDP_DEBUG | LWIP_DBG_LEVEL_SERIOUS, ("udp_send: No route to "));
 592:C:/Users/stapi/OneDrive/Desktop/GD32VW553/GD32VW55X_Wifi_BLE_SDK/GD32VW55x_RELEASE_V1.0.2/MSDK/lwip/lwip-2.1.2/src/core\udp.c ****     ip_addr_debug_print(UDP_DEBUG | LWIP_DBG_LEVEL_SERIOUS, dst_ip);
 593:C:/Users/stapi/OneDrive/Desktop/GD32VW553/GD32VW55X_Wifi_BLE_SDK/GD32VW55x_RELEASE_V1.0.2/MSDK/lwip/lwip-2.1.2/src/core\udp.c ****     LWIP_DEBUGF(UDP_DEBUG, ("\n"));
 594:C:/Users/stapi/OneDrive/Desktop/GD32VW553/GD32VW55X_Wifi_BLE_SDK/GD32VW55x_RELEASE_V1.0.2/MSDK/lwip/lwip-2.1.2/src/core\udp.c ****     UDP_STATS_INC(udp.rterr);
 595:C:/Users/stapi/OneDrive/Desktop/GD32VW553/GD32VW55X_Wifi_BLE_SDK/GD32VW55x_RELEASE_V1.0.2/MSDK/lwip/lwip-2.1.2/src/core\udp.c ****     return ERR_RTE;
 596:C:/Users/stapi/OneDrive/Desktop/GD32VW553/GD32VW55X_Wifi_BLE_SDK/GD32VW55x_RELEASE_V1.0.2/MSDK/lwip/lwip-2.1.2/src/core\udp.c ****   }
 597:C:/Users/stapi/OneDrive/Desktop/GD32VW553/GD32VW55X_Wifi_BLE_SDK/GD32VW55x_RELEASE_V1.0.2/MSDK/lwip/lwip-2.1.2/src/core\udp.c **** #if LWIP_CHECKSUM_ON_COPY && CHECKSUM_GEN_UDP
 598:C:/Users/stapi/OneDrive/Desktop/GD32VW553/GD32VW55X_Wifi_BLE_SDK/GD32VW55x_RELEASE_V1.0.2/MSDK/lwip/lwip-2.1.2/src/core\udp.c ****   return udp_sendto_if_chksum(pcb, p, dst_ip, dst_port, netif, have_chksum, chksum);
 599:C:/Users/stapi/OneDrive/Desktop/GD32VW553/GD32VW55X_Wifi_BLE_SDK/GD32VW55x_RELEASE_V1.0.2/MSDK/lwip/lwip-2.1.2/src/core\udp.c **** #else /* LWIP_CHECKSUM_ON_COPY && CHECKSUM_GEN_UDP */
 600:C:/Users/stapi/OneDrive/Desktop/GD32VW553/GD32VW55X_Wifi_BLE_SDK/GD32VW55x_RELEASE_V1.0.2/MSDK/lwip/lwip-2.1.2/src/core\udp.c ****   return udp_sendto_if(pcb, p, dst_ip, dst_port, netif);
 601:C:/Users/stapi/OneDrive/Desktop/GD32VW553/GD32VW55X_Wifi_BLE_SDK/GD32VW55x_RELEASE_V1.0.2/MSDK/lwip/lwip-2.1.2/src/core\udp.c **** #endif /* LWIP_CHECKSUM_ON_COPY && CHECKSUM_GEN_UDP */
 602:C:/Users/stapi/OneDrive/Desktop/GD32VW553/GD32VW55X_Wifi_BLE_SDK/GD32VW55x_RELEASE_V1.0.2/MSDK/lwip/lwip-2.1.2/src/core\udp.c **** }
 603:C:/Users/stapi/OneDrive/Desktop/GD32VW553/GD32VW55X_Wifi_BLE_SDK/GD32VW55x_RELEASE_V1.0.2/MSDK/lwip/lwip-2.1.2/src/core\udp.c **** 
 604:C:/Users/stapi/OneDrive/Desktop/GD32VW553/GD32VW55X_Wifi_BLE_SDK/GD32VW55x_RELEASE_V1.0.2/MSDK/lwip/lwip-2.1.2/src/core\udp.c **** /**
 605:C:/Users/stapi/OneDrive/Desktop/GD32VW553/GD32VW55X_Wifi_BLE_SDK/GD32VW55x_RELEASE_V1.0.2/MSDK/lwip/lwip-2.1.2/src/core\udp.c ****  * @ingroup udp_raw
 606:C:/Users/stapi/OneDrive/Desktop/GD32VW553/GD32VW55X_Wifi_BLE_SDK/GD32VW55x_RELEASE_V1.0.2/MSDK/lwip/lwip-2.1.2/src/core\udp.c ****  * Send data to a specified address using UDP.
 607:C:/Users/stapi/OneDrive/Desktop/GD32VW553/GD32VW55X_Wifi_BLE_SDK/GD32VW55x_RELEASE_V1.0.2/MSDK/lwip/lwip-2.1.2/src/core\udp.c ****  * The netif used for sending can be specified.
 608:C:/Users/stapi/OneDrive/Desktop/GD32VW553/GD32VW55X_Wifi_BLE_SDK/GD32VW55x_RELEASE_V1.0.2/MSDK/lwip/lwip-2.1.2/src/core\udp.c ****  *
 609:C:/Users/stapi/OneDrive/Desktop/GD32VW553/GD32VW55X_Wifi_BLE_SDK/GD32VW55x_RELEASE_V1.0.2/MSDK/lwip/lwip-2.1.2/src/core\udp.c ****  * This function exists mainly for DHCP, to be able to send UDP packets
 610:C:/Users/stapi/OneDrive/Desktop/GD32VW553/GD32VW55X_Wifi_BLE_SDK/GD32VW55x_RELEASE_V1.0.2/MSDK/lwip/lwip-2.1.2/src/core\udp.c ****  * on a netif that is still down.
 611:C:/Users/stapi/OneDrive/Desktop/GD32VW553/GD32VW55X_Wifi_BLE_SDK/GD32VW55x_RELEASE_V1.0.2/MSDK/lwip/lwip-2.1.2/src/core\udp.c ****  *
 612:C:/Users/stapi/OneDrive/Desktop/GD32VW553/GD32VW55X_Wifi_BLE_SDK/GD32VW55x_RELEASE_V1.0.2/MSDK/lwip/lwip-2.1.2/src/core\udp.c ****  * @param pcb UDP PCB used to send the data.
 613:C:/Users/stapi/OneDrive/Desktop/GD32VW553/GD32VW55X_Wifi_BLE_SDK/GD32VW55x_RELEASE_V1.0.2/MSDK/lwip/lwip-2.1.2/src/core\udp.c ****  * @param p chain of pbuf's to be sent.
 614:C:/Users/stapi/OneDrive/Desktop/GD32VW553/GD32VW55X_Wifi_BLE_SDK/GD32VW55x_RELEASE_V1.0.2/MSDK/lwip/lwip-2.1.2/src/core\udp.c ****  * @param dst_ip Destination IP address.
 615:C:/Users/stapi/OneDrive/Desktop/GD32VW553/GD32VW55X_Wifi_BLE_SDK/GD32VW55x_RELEASE_V1.0.2/MSDK/lwip/lwip-2.1.2/src/core\udp.c ****  * @param dst_port Destination UDP port.
 616:C:/Users/stapi/OneDrive/Desktop/GD32VW553/GD32VW55X_Wifi_BLE_SDK/GD32VW55x_RELEASE_V1.0.2/MSDK/lwip/lwip-2.1.2/src/core\udp.c ****  * @param netif the netif used for sending.
 617:C:/Users/stapi/OneDrive/Desktop/GD32VW553/GD32VW55X_Wifi_BLE_SDK/GD32VW55x_RELEASE_V1.0.2/MSDK/lwip/lwip-2.1.2/src/core\udp.c ****  *
 618:C:/Users/stapi/OneDrive/Desktop/GD32VW553/GD32VW55X_Wifi_BLE_SDK/GD32VW55x_RELEASE_V1.0.2/MSDK/lwip/lwip-2.1.2/src/core\udp.c ****  * dst_ip & dst_port are expected to be in the same byte order as in the pcb.
 619:C:/Users/stapi/OneDrive/Desktop/GD32VW553/GD32VW55X_Wifi_BLE_SDK/GD32VW55x_RELEASE_V1.0.2/MSDK/lwip/lwip-2.1.2/src/core\udp.c ****  *
 620:C:/Users/stapi/OneDrive/Desktop/GD32VW553/GD32VW55X_Wifi_BLE_SDK/GD32VW55x_RELEASE_V1.0.2/MSDK/lwip/lwip-2.1.2/src/core\udp.c ****  * @return lwIP error code (@see udp_send for possible error codes)
 621:C:/Users/stapi/OneDrive/Desktop/GD32VW553/GD32VW55X_Wifi_BLE_SDK/GD32VW55x_RELEASE_V1.0.2/MSDK/lwip/lwip-2.1.2/src/core\udp.c ****  *
 622:C:/Users/stapi/OneDrive/Desktop/GD32VW553/GD32VW55X_Wifi_BLE_SDK/GD32VW55x_RELEASE_V1.0.2/MSDK/lwip/lwip-2.1.2/src/core\udp.c ****  * @see udp_disconnect() udp_send()
 623:C:/Users/stapi/OneDrive/Desktop/GD32VW553/GD32VW55X_Wifi_BLE_SDK/GD32VW55x_RELEASE_V1.0.2/MSDK/lwip/lwip-2.1.2/src/core\udp.c ****  */
 624:C:/Users/stapi/OneDrive/Desktop/GD32VW553/GD32VW55X_Wifi_BLE_SDK/GD32VW55x_RELEASE_V1.0.2/MSDK/lwip/lwip-2.1.2/src/core\udp.c **** err_t
 625:C:/Users/stapi/OneDrive/Desktop/GD32VW553/GD32VW55X_Wifi_BLE_SDK/GD32VW55x_RELEASE_V1.0.2/MSDK/lwip/lwip-2.1.2/src/core\udp.c **** udp_sendto_if(struct udp_pcb *pcb, struct pbuf *p,
 626:C:/Users/stapi/OneDrive/Desktop/GD32VW553/GD32VW55X_Wifi_BLE_SDK/GD32VW55x_RELEASE_V1.0.2/MSDK/lwip/lwip-2.1.2/src/core\udp.c ****               const ip_addr_t *dst_ip, u16_t dst_port, struct netif *netif)
 627:C:/Users/stapi/OneDrive/Desktop/GD32VW553/GD32VW55X_Wifi_BLE_SDK/GD32VW55x_RELEASE_V1.0.2/MSDK/lwip/lwip-2.1.2/src/core\udp.c **** {
 628:C:/Users/stapi/OneDrive/Desktop/GD32VW553/GD32VW55X_Wifi_BLE_SDK/GD32VW55x_RELEASE_V1.0.2/MSDK/lwip/lwip-2.1.2/src/core\udp.c **** #if LWIP_CHECKSUM_ON_COPY && CHECKSUM_GEN_UDP
 629:C:/Users/stapi/OneDrive/Desktop/GD32VW553/GD32VW55X_Wifi_BLE_SDK/GD32VW55x_RELEASE_V1.0.2/MSDK/lwip/lwip-2.1.2/src/core\udp.c ****   return udp_sendto_if_chksum(pcb, p, dst_ip, dst_port, netif, 0, 0);
 630:C:/Users/stapi/OneDrive/Desktop/GD32VW553/GD32VW55X_Wifi_BLE_SDK/GD32VW55x_RELEASE_V1.0.2/MSDK/lwip/lwip-2.1.2/src/core\udp.c **** }
 631:C:/Users/stapi/OneDrive/Desktop/GD32VW553/GD32VW55X_Wifi_BLE_SDK/GD32VW55x_RELEASE_V1.0.2/MSDK/lwip/lwip-2.1.2/src/core\udp.c **** 
 632:C:/Users/stapi/OneDrive/Desktop/GD32VW553/GD32VW55X_Wifi_BLE_SDK/GD32VW55x_RELEASE_V1.0.2/MSDK/lwip/lwip-2.1.2/src/core\udp.c **** /** Same as udp_sendto_if(), but with checksum */
 633:C:/Users/stapi/OneDrive/Desktop/GD32VW553/GD32VW55X_Wifi_BLE_SDK/GD32VW55x_RELEASE_V1.0.2/MSDK/lwip/lwip-2.1.2/src/core\udp.c **** err_t
 634:C:/Users/stapi/OneDrive/Desktop/GD32VW553/GD32VW55X_Wifi_BLE_SDK/GD32VW55x_RELEASE_V1.0.2/MSDK/lwip/lwip-2.1.2/src/core\udp.c **** udp_sendto_if_chksum(struct udp_pcb *pcb, struct pbuf *p, const ip_addr_t *dst_ip,
 635:C:/Users/stapi/OneDrive/Desktop/GD32VW553/GD32VW55X_Wifi_BLE_SDK/GD32VW55x_RELEASE_V1.0.2/MSDK/lwip/lwip-2.1.2/src/core\udp.c ****                      u16_t dst_port, struct netif *netif, u8_t have_chksum,
 636:C:/Users/stapi/OneDrive/Desktop/GD32VW553/GD32VW55X_Wifi_BLE_SDK/GD32VW55x_RELEASE_V1.0.2/MSDK/lwip/lwip-2.1.2/src/core\udp.c ****                      u16_t chksum)
 637:C:/Users/stapi/OneDrive/Desktop/GD32VW553/GD32VW55X_Wifi_BLE_SDK/GD32VW55x_RELEASE_V1.0.2/MSDK/lwip/lwip-2.1.2/src/core\udp.c **** {
 638:C:/Users/stapi/OneDrive/Desktop/GD32VW553/GD32VW55X_Wifi_BLE_SDK/GD32VW55x_RELEASE_V1.0.2/MSDK/lwip/lwip-2.1.2/src/core\udp.c **** #endif /* LWIP_CHECKSUM_ON_COPY && CHECKSUM_GEN_UDP */
 639:C:/Users/stapi/OneDrive/Desktop/GD32VW553/GD32VW55X_Wifi_BLE_SDK/GD32VW55x_RELEASE_V1.0.2/MSDK/lwip/lwip-2.1.2/src/core\udp.c ****   const ip_addr_t *src_ip;
 640:C:/Users/stapi/OneDrive/Desktop/GD32VW553/GD32VW55X_Wifi_BLE_SDK/GD32VW55x_RELEASE_V1.0.2/MSDK/lwip/lwip-2.1.2/src/core\udp.c **** 
 641:C:/Users/stapi/OneDrive/Desktop/GD32VW553/GD32VW55X_Wifi_BLE_SDK/GD32VW55x_RELEASE_V1.0.2/MSDK/lwip/lwip-2.1.2/src/core\udp.c ****   LWIP_ERROR("udp_sendto_if: invalid pcb", pcb != NULL, return ERR_ARG);
 642:C:/Users/stapi/OneDrive/Desktop/GD32VW553/GD32VW55X_Wifi_BLE_SDK/GD32VW55x_RELEASE_V1.0.2/MSDK/lwip/lwip-2.1.2/src/core\udp.c ****   LWIP_ERROR("udp_sendto_if: invalid pbuf", p != NULL, return ERR_ARG);
 643:C:/Users/stapi/OneDrive/Desktop/GD32VW553/GD32VW55X_Wifi_BLE_SDK/GD32VW55x_RELEASE_V1.0.2/MSDK/lwip/lwip-2.1.2/src/core\udp.c ****   LWIP_ERROR("udp_sendto_if: invalid dst_ip", dst_ip != NULL, return ERR_ARG);
 644:C:/Users/stapi/OneDrive/Desktop/GD32VW553/GD32VW55X_Wifi_BLE_SDK/GD32VW55x_RELEASE_V1.0.2/MSDK/lwip/lwip-2.1.2/src/core\udp.c ****   LWIP_ERROR("udp_sendto_if: invalid netif", netif != NULL, return ERR_ARG);
 645:C:/Users/stapi/OneDrive/Desktop/GD32VW553/GD32VW55X_Wifi_BLE_SDK/GD32VW55x_RELEASE_V1.0.2/MSDK/lwip/lwip-2.1.2/src/core\udp.c **** 
 646:C:/Users/stapi/OneDrive/Desktop/GD32VW553/GD32VW55X_Wifi_BLE_SDK/GD32VW55x_RELEASE_V1.0.2/MSDK/lwip/lwip-2.1.2/src/core\udp.c ****   if (!IP_ADDR_PCB_VERSION_MATCH(pcb, dst_ip)) {
 647:C:/Users/stapi/OneDrive/Desktop/GD32VW553/GD32VW55X_Wifi_BLE_SDK/GD32VW55x_RELEASE_V1.0.2/MSDK/lwip/lwip-2.1.2/src/core\udp.c ****     return ERR_VAL;
 648:C:/Users/stapi/OneDrive/Desktop/GD32VW553/GD32VW55X_Wifi_BLE_SDK/GD32VW55x_RELEASE_V1.0.2/MSDK/lwip/lwip-2.1.2/src/core\udp.c ****   }
 649:C:/Users/stapi/OneDrive/Desktop/GD32VW553/GD32VW55X_Wifi_BLE_SDK/GD32VW55x_RELEASE_V1.0.2/MSDK/lwip/lwip-2.1.2/src/core\udp.c **** 
 650:C:/Users/stapi/OneDrive/Desktop/GD32VW553/GD32VW55X_Wifi_BLE_SDK/GD32VW55x_RELEASE_V1.0.2/MSDK/lwip/lwip-2.1.2/src/core\udp.c ****   /* PCB local address is IP_ANY_ADDR or multicast? */
 651:C:/Users/stapi/OneDrive/Desktop/GD32VW553/GD32VW55X_Wifi_BLE_SDK/GD32VW55x_RELEASE_V1.0.2/MSDK/lwip/lwip-2.1.2/src/core\udp.c **** #if LWIP_IPV6
 652:C:/Users/stapi/OneDrive/Desktop/GD32VW553/GD32VW55X_Wifi_BLE_SDK/GD32VW55x_RELEASE_V1.0.2/MSDK/lwip/lwip-2.1.2/src/core\udp.c ****   if (IP_IS_V6(dst_ip)) {
 653:C:/Users/stapi/OneDrive/Desktop/GD32VW553/GD32VW55X_Wifi_BLE_SDK/GD32VW55x_RELEASE_V1.0.2/MSDK/lwip/lwip-2.1.2/src/core\udp.c ****     if (ip6_addr_isany(ip_2_ip6(&pcb->local_ip)) ||
 654:C:/Users/stapi/OneDrive/Desktop/GD32VW553/GD32VW55X_Wifi_BLE_SDK/GD32VW55x_RELEASE_V1.0.2/MSDK/lwip/lwip-2.1.2/src/core\udp.c ****         ip6_addr_ismulticast(ip_2_ip6(&pcb->local_ip))) {
 655:C:/Users/stapi/OneDrive/Desktop/GD32VW553/GD32VW55X_Wifi_BLE_SDK/GD32VW55x_RELEASE_V1.0.2/MSDK/lwip/lwip-2.1.2/src/core\udp.c ****       src_ip = ip6_select_source_address(netif, ip_2_ip6(dst_ip));
 656:C:/Users/stapi/OneDrive/Desktop/GD32VW553/GD32VW55X_Wifi_BLE_SDK/GD32VW55x_RELEASE_V1.0.2/MSDK/lwip/lwip-2.1.2/src/core\udp.c ****       if (src_ip == NULL) {
 657:C:/Users/stapi/OneDrive/Desktop/GD32VW553/GD32VW55X_Wifi_BLE_SDK/GD32VW55x_RELEASE_V1.0.2/MSDK/lwip/lwip-2.1.2/src/core\udp.c ****         /* No suitable source address was found. */
 658:C:/Users/stapi/OneDrive/Desktop/GD32VW553/GD32VW55X_Wifi_BLE_SDK/GD32VW55x_RELEASE_V1.0.2/MSDK/lwip/lwip-2.1.2/src/core\udp.c ****         return ERR_RTE;
 659:C:/Users/stapi/OneDrive/Desktop/GD32VW553/GD32VW55X_Wifi_BLE_SDK/GD32VW55x_RELEASE_V1.0.2/MSDK/lwip/lwip-2.1.2/src/core\udp.c ****       }
 660:C:/Users/stapi/OneDrive/Desktop/GD32VW553/GD32VW55X_Wifi_BLE_SDK/GD32VW55x_RELEASE_V1.0.2/MSDK/lwip/lwip-2.1.2/src/core\udp.c ****     } else {
 661:C:/Users/stapi/OneDrive/Desktop/GD32VW553/GD32VW55X_Wifi_BLE_SDK/GD32VW55x_RELEASE_V1.0.2/MSDK/lwip/lwip-2.1.2/src/core\udp.c ****       /* use UDP PCB local IPv6 address as source address, if still valid. */
 662:C:/Users/stapi/OneDrive/Desktop/GD32VW553/GD32VW55X_Wifi_BLE_SDK/GD32VW55x_RELEASE_V1.0.2/MSDK/lwip/lwip-2.1.2/src/core\udp.c ****       if (netif_get_ip6_addr_match(netif, ip_2_ip6(&pcb->local_ip)) < 0) {
 663:C:/Users/stapi/OneDrive/Desktop/GD32VW553/GD32VW55X_Wifi_BLE_SDK/GD32VW55x_RELEASE_V1.0.2/MSDK/lwip/lwip-2.1.2/src/core\udp.c ****         /* Address isn't valid anymore. */
 664:C:/Users/stapi/OneDrive/Desktop/GD32VW553/GD32VW55X_Wifi_BLE_SDK/GD32VW55x_RELEASE_V1.0.2/MSDK/lwip/lwip-2.1.2/src/core\udp.c ****         return ERR_RTE;
 665:C:/Users/stapi/OneDrive/Desktop/GD32VW553/GD32VW55X_Wifi_BLE_SDK/GD32VW55x_RELEASE_V1.0.2/MSDK/lwip/lwip-2.1.2/src/core\udp.c ****       }
 666:C:/Users/stapi/OneDrive/Desktop/GD32VW553/GD32VW55X_Wifi_BLE_SDK/GD32VW55x_RELEASE_V1.0.2/MSDK/lwip/lwip-2.1.2/src/core\udp.c ****       src_ip = &pcb->local_ip;
 667:C:/Users/stapi/OneDrive/Desktop/GD32VW553/GD32VW55X_Wifi_BLE_SDK/GD32VW55x_RELEASE_V1.0.2/MSDK/lwip/lwip-2.1.2/src/core\udp.c ****     }
 668:C:/Users/stapi/OneDrive/Desktop/GD32VW553/GD32VW55X_Wifi_BLE_SDK/GD32VW55x_RELEASE_V1.0.2/MSDK/lwip/lwip-2.1.2/src/core\udp.c ****   }
 669:C:/Users/stapi/OneDrive/Desktop/GD32VW553/GD32VW55X_Wifi_BLE_SDK/GD32VW55x_RELEASE_V1.0.2/MSDK/lwip/lwip-2.1.2/src/core\udp.c **** #endif /* LWIP_IPV6 */
 670:C:/Users/stapi/OneDrive/Desktop/GD32VW553/GD32VW55X_Wifi_BLE_SDK/GD32VW55x_RELEASE_V1.0.2/MSDK/lwip/lwip-2.1.2/src/core\udp.c **** #if LWIP_IPV4 && LWIP_IPV6
 671:C:/Users/stapi/OneDrive/Desktop/GD32VW553/GD32VW55X_Wifi_BLE_SDK/GD32VW55x_RELEASE_V1.0.2/MSDK/lwip/lwip-2.1.2/src/core\udp.c ****   else
 672:C:/Users/stapi/OneDrive/Desktop/GD32VW553/GD32VW55X_Wifi_BLE_SDK/GD32VW55x_RELEASE_V1.0.2/MSDK/lwip/lwip-2.1.2/src/core\udp.c **** #endif /* LWIP_IPV4 && LWIP_IPV6 */
 673:C:/Users/stapi/OneDrive/Desktop/GD32VW553/GD32VW55X_Wifi_BLE_SDK/GD32VW55x_RELEASE_V1.0.2/MSDK/lwip/lwip-2.1.2/src/core\udp.c **** #if LWIP_IPV4
 674:C:/Users/stapi/OneDrive/Desktop/GD32VW553/GD32VW55X_Wifi_BLE_SDK/GD32VW55x_RELEASE_V1.0.2/MSDK/lwip/lwip-2.1.2/src/core\udp.c ****     if (ip4_addr_isany(ip_2_ip4(&pcb->local_ip)) ||
 675:C:/Users/stapi/OneDrive/Desktop/GD32VW553/GD32VW55X_Wifi_BLE_SDK/GD32VW55x_RELEASE_V1.0.2/MSDK/lwip/lwip-2.1.2/src/core\udp.c ****         ip4_addr_ismulticast(ip_2_ip4(&pcb->local_ip))) {
 676:C:/Users/stapi/OneDrive/Desktop/GD32VW553/GD32VW55X_Wifi_BLE_SDK/GD32VW55x_RELEASE_V1.0.2/MSDK/lwip/lwip-2.1.2/src/core\udp.c ****       /* if the local_ip is any or multicast
 677:C:/Users/stapi/OneDrive/Desktop/GD32VW553/GD32VW55X_Wifi_BLE_SDK/GD32VW55x_RELEASE_V1.0.2/MSDK/lwip/lwip-2.1.2/src/core\udp.c ****        * use the outgoing network interface IP address as source address */
 678:C:/Users/stapi/OneDrive/Desktop/GD32VW553/GD32VW55X_Wifi_BLE_SDK/GD32VW55x_RELEASE_V1.0.2/MSDK/lwip/lwip-2.1.2/src/core\udp.c ****       src_ip = netif_ip_addr4(netif);
 679:C:/Users/stapi/OneDrive/Desktop/GD32VW553/GD32VW55X_Wifi_BLE_SDK/GD32VW55x_RELEASE_V1.0.2/MSDK/lwip/lwip-2.1.2/src/core\udp.c ****     } else {
 680:C:/Users/stapi/OneDrive/Desktop/GD32VW553/GD32VW55X_Wifi_BLE_SDK/GD32VW55x_RELEASE_V1.0.2/MSDK/lwip/lwip-2.1.2/src/core\udp.c ****       /* check if UDP PCB local IP address is correct
 681:C:/Users/stapi/OneDrive/Desktop/GD32VW553/GD32VW55X_Wifi_BLE_SDK/GD32VW55x_RELEASE_V1.0.2/MSDK/lwip/lwip-2.1.2/src/core\udp.c ****        * this could be an old address if netif->ip_addr has changed */
 682:C:/Users/stapi/OneDrive/Desktop/GD32VW553/GD32VW55X_Wifi_BLE_SDK/GD32VW55x_RELEASE_V1.0.2/MSDK/lwip/lwip-2.1.2/src/core\udp.c ****       if (!ip4_addr_cmp(ip_2_ip4(&(pcb->local_ip)), netif_ip4_addr(netif))) {
 683:C:/Users/stapi/OneDrive/Desktop/GD32VW553/GD32VW55X_Wifi_BLE_SDK/GD32VW55x_RELEASE_V1.0.2/MSDK/lwip/lwip-2.1.2/src/core\udp.c ****         /* local_ip doesn't match, drop the packet */
 684:C:/Users/stapi/OneDrive/Desktop/GD32VW553/GD32VW55X_Wifi_BLE_SDK/GD32VW55x_RELEASE_V1.0.2/MSDK/lwip/lwip-2.1.2/src/core\udp.c ****         return ERR_RTE;
 685:C:/Users/stapi/OneDrive/Desktop/GD32VW553/GD32VW55X_Wifi_BLE_SDK/GD32VW55x_RELEASE_V1.0.2/MSDK/lwip/lwip-2.1.2/src/core\udp.c ****       }
 686:C:/Users/stapi/OneDrive/Desktop/GD32VW553/GD32VW55X_Wifi_BLE_SDK/GD32VW55x_RELEASE_V1.0.2/MSDK/lwip/lwip-2.1.2/src/core\udp.c ****       /* use UDP PCB local IP address as source address */
 687:C:/Users/stapi/OneDrive/Desktop/GD32VW553/GD32VW55X_Wifi_BLE_SDK/GD32VW55x_RELEASE_V1.0.2/MSDK/lwip/lwip-2.1.2/src/core\udp.c ****       src_ip = &pcb->local_ip;
 688:C:/Users/stapi/OneDrive/Desktop/GD32VW553/GD32VW55X_Wifi_BLE_SDK/GD32VW55x_RELEASE_V1.0.2/MSDK/lwip/lwip-2.1.2/src/core\udp.c ****     }
 689:C:/Users/stapi/OneDrive/Desktop/GD32VW553/GD32VW55X_Wifi_BLE_SDK/GD32VW55x_RELEASE_V1.0.2/MSDK/lwip/lwip-2.1.2/src/core\udp.c **** #endif /* LWIP_IPV4 */
 690:C:/Users/stapi/OneDrive/Desktop/GD32VW553/GD32VW55X_Wifi_BLE_SDK/GD32VW55x_RELEASE_V1.0.2/MSDK/lwip/lwip-2.1.2/src/core\udp.c **** #if LWIP_CHECKSUM_ON_COPY && CHECKSUM_GEN_UDP
 691:C:/Users/stapi/OneDrive/Desktop/GD32VW553/GD32VW55X_Wifi_BLE_SDK/GD32VW55x_RELEASE_V1.0.2/MSDK/lwip/lwip-2.1.2/src/core\udp.c ****   return udp_sendto_if_src_chksum(pcb, p, dst_ip, dst_port, netif, have_chksum, chksum, src_ip);
 692:C:/Users/stapi/OneDrive/Desktop/GD32VW553/GD32VW55X_Wifi_BLE_SDK/GD32VW55x_RELEASE_V1.0.2/MSDK/lwip/lwip-2.1.2/src/core\udp.c **** #else /* LWIP_CHECKSUM_ON_COPY && CHECKSUM_GEN_UDP */
 693:C:/Users/stapi/OneDrive/Desktop/GD32VW553/GD32VW55X_Wifi_BLE_SDK/GD32VW55x_RELEASE_V1.0.2/MSDK/lwip/lwip-2.1.2/src/core\udp.c ****   return udp_sendto_if_src(pcb, p, dst_ip, dst_port, netif, src_ip);
 694:C:/Users/stapi/OneDrive/Desktop/GD32VW553/GD32VW55X_Wifi_BLE_SDK/GD32VW55x_RELEASE_V1.0.2/MSDK/lwip/lwip-2.1.2/src/core\udp.c **** #endif /* LWIP_CHECKSUM_ON_COPY && CHECKSUM_GEN_UDP */
 695:C:/Users/stapi/OneDrive/Desktop/GD32VW553/GD32VW55X_Wifi_BLE_SDK/GD32VW55x_RELEASE_V1.0.2/MSDK/lwip/lwip-2.1.2/src/core\udp.c **** }
 696:C:/Users/stapi/OneDrive/Desktop/GD32VW553/GD32VW55X_Wifi_BLE_SDK/GD32VW55x_RELEASE_V1.0.2/MSDK/lwip/lwip-2.1.2/src/core\udp.c **** 
 697:C:/Users/stapi/OneDrive/Desktop/GD32VW553/GD32VW55X_Wifi_BLE_SDK/GD32VW55x_RELEASE_V1.0.2/MSDK/lwip/lwip-2.1.2/src/core\udp.c **** /** @ingroup udp_raw
 698:C:/Users/stapi/OneDrive/Desktop/GD32VW553/GD32VW55X_Wifi_BLE_SDK/GD32VW55x_RELEASE_V1.0.2/MSDK/lwip/lwip-2.1.2/src/core\udp.c ****  * Same as @ref udp_sendto_if, but with source address */
 699:C:/Users/stapi/OneDrive/Desktop/GD32VW553/GD32VW55X_Wifi_BLE_SDK/GD32VW55x_RELEASE_V1.0.2/MSDK/lwip/lwip-2.1.2/src/core\udp.c **** err_t
 700:C:/Users/stapi/OneDrive/Desktop/GD32VW553/GD32VW55X_Wifi_BLE_SDK/GD32VW55x_RELEASE_V1.0.2/MSDK/lwip/lwip-2.1.2/src/core\udp.c **** udp_sendto_if_src(struct udp_pcb *pcb, struct pbuf *p,
 701:C:/Users/stapi/OneDrive/Desktop/GD32VW553/GD32VW55X_Wifi_BLE_SDK/GD32VW55x_RELEASE_V1.0.2/MSDK/lwip/lwip-2.1.2/src/core\udp.c ****                   const ip_addr_t *dst_ip, u16_t dst_port, struct netif *netif, const ip_addr_t *sr
 702:C:/Users/stapi/OneDrive/Desktop/GD32VW553/GD32VW55X_Wifi_BLE_SDK/GD32VW55x_RELEASE_V1.0.2/MSDK/lwip/lwip-2.1.2/src/core\udp.c **** {
 703:C:/Users/stapi/OneDrive/Desktop/GD32VW553/GD32VW55X_Wifi_BLE_SDK/GD32VW55x_RELEASE_V1.0.2/MSDK/lwip/lwip-2.1.2/src/core\udp.c **** #if LWIP_CHECKSUM_ON_COPY && CHECKSUM_GEN_UDP
 704:C:/Users/stapi/OneDrive/Desktop/GD32VW553/GD32VW55X_Wifi_BLE_SDK/GD32VW55x_RELEASE_V1.0.2/MSDK/lwip/lwip-2.1.2/src/core\udp.c ****   return udp_sendto_if_src_chksum(pcb, p, dst_ip, dst_port, netif, 0, 0, src_ip);
 705:C:/Users/stapi/OneDrive/Desktop/GD32VW553/GD32VW55X_Wifi_BLE_SDK/GD32VW55x_RELEASE_V1.0.2/MSDK/lwip/lwip-2.1.2/src/core\udp.c **** }
 706:C:/Users/stapi/OneDrive/Desktop/GD32VW553/GD32VW55X_Wifi_BLE_SDK/GD32VW55x_RELEASE_V1.0.2/MSDK/lwip/lwip-2.1.2/src/core\udp.c **** 
 707:C:/Users/stapi/OneDrive/Desktop/GD32VW553/GD32VW55X_Wifi_BLE_SDK/GD32VW55x_RELEASE_V1.0.2/MSDK/lwip/lwip-2.1.2/src/core\udp.c **** /** Same as udp_sendto_if_src(), but with checksum */
 708:C:/Users/stapi/OneDrive/Desktop/GD32VW553/GD32VW55X_Wifi_BLE_SDK/GD32VW55x_RELEASE_V1.0.2/MSDK/lwip/lwip-2.1.2/src/core\udp.c **** err_t
 709:C:/Users/stapi/OneDrive/Desktop/GD32VW553/GD32VW55X_Wifi_BLE_SDK/GD32VW55x_RELEASE_V1.0.2/MSDK/lwip/lwip-2.1.2/src/core\udp.c **** udp_sendto_if_src_chksum(struct udp_pcb *pcb, struct pbuf *p, const ip_addr_t *dst_ip,
 710:C:/Users/stapi/OneDrive/Desktop/GD32VW553/GD32VW55X_Wifi_BLE_SDK/GD32VW55x_RELEASE_V1.0.2/MSDK/lwip/lwip-2.1.2/src/core\udp.c ****                          u16_t dst_port, struct netif *netif, u8_t have_chksum,
 711:C:/Users/stapi/OneDrive/Desktop/GD32VW553/GD32VW55X_Wifi_BLE_SDK/GD32VW55x_RELEASE_V1.0.2/MSDK/lwip/lwip-2.1.2/src/core\udp.c ****                          u16_t chksum, const ip_addr_t *src_ip)
 712:C:/Users/stapi/OneDrive/Desktop/GD32VW553/GD32VW55X_Wifi_BLE_SDK/GD32VW55x_RELEASE_V1.0.2/MSDK/lwip/lwip-2.1.2/src/core\udp.c **** {
 713:C:/Users/stapi/OneDrive/Desktop/GD32VW553/GD32VW55X_Wifi_BLE_SDK/GD32VW55x_RELEASE_V1.0.2/MSDK/lwip/lwip-2.1.2/src/core\udp.c **** #endif /* LWIP_CHECKSUM_ON_COPY && CHECKSUM_GEN_UDP */
 714:C:/Users/stapi/OneDrive/Desktop/GD32VW553/GD32VW55X_Wifi_BLE_SDK/GD32VW55x_RELEASE_V1.0.2/MSDK/lwip/lwip-2.1.2/src/core\udp.c ****   struct udp_hdr *udphdr;
 715:C:/Users/stapi/OneDrive/Desktop/GD32VW553/GD32VW55X_Wifi_BLE_SDK/GD32VW55x_RELEASE_V1.0.2/MSDK/lwip/lwip-2.1.2/src/core\udp.c ****   err_t err;
 716:C:/Users/stapi/OneDrive/Desktop/GD32VW553/GD32VW55X_Wifi_BLE_SDK/GD32VW55x_RELEASE_V1.0.2/MSDK/lwip/lwip-2.1.2/src/core\udp.c ****   struct pbuf *q; /* q will be sent down the stack */
 717:C:/Users/stapi/OneDrive/Desktop/GD32VW553/GD32VW55X_Wifi_BLE_SDK/GD32VW55x_RELEASE_V1.0.2/MSDK/lwip/lwip-2.1.2/src/core\udp.c ****   u8_t ip_proto;
 718:C:/Users/stapi/OneDrive/Desktop/GD32VW553/GD32VW55X_Wifi_BLE_SDK/GD32VW55x_RELEASE_V1.0.2/MSDK/lwip/lwip-2.1.2/src/core\udp.c ****   u8_t ttl;
 719:C:/Users/stapi/OneDrive/Desktop/GD32VW553/GD32VW55X_Wifi_BLE_SDK/GD32VW55x_RELEASE_V1.0.2/MSDK/lwip/lwip-2.1.2/src/core\udp.c **** 
 720:C:/Users/stapi/OneDrive/Desktop/GD32VW553/GD32VW55X_Wifi_BLE_SDK/GD32VW55x_RELEASE_V1.0.2/MSDK/lwip/lwip-2.1.2/src/core\udp.c ****   LWIP_ASSERT_CORE_LOCKED();
 721:C:/Users/stapi/OneDrive/Desktop/GD32VW553/GD32VW55X_Wifi_BLE_SDK/GD32VW55x_RELEASE_V1.0.2/MSDK/lwip/lwip-2.1.2/src/core\udp.c **** 
 722:C:/Users/stapi/OneDrive/Desktop/GD32VW553/GD32VW55X_Wifi_BLE_SDK/GD32VW55x_RELEASE_V1.0.2/MSDK/lwip/lwip-2.1.2/src/core\udp.c ****   LWIP_ERROR("udp_sendto_if_src: invalid pcb", pcb != NULL, return ERR_ARG);
 723:C:/Users/stapi/OneDrive/Desktop/GD32VW553/GD32VW55X_Wifi_BLE_SDK/GD32VW55x_RELEASE_V1.0.2/MSDK/lwip/lwip-2.1.2/src/core\udp.c ****   LWIP_ERROR("udp_sendto_if_src: invalid pbuf", p != NULL, return ERR_ARG);
 724:C:/Users/stapi/OneDrive/Desktop/GD32VW553/GD32VW55X_Wifi_BLE_SDK/GD32VW55x_RELEASE_V1.0.2/MSDK/lwip/lwip-2.1.2/src/core\udp.c ****   LWIP_ERROR("udp_sendto_if_src: invalid dst_ip", dst_ip != NULL, return ERR_ARG);
 725:C:/Users/stapi/OneDrive/Desktop/GD32VW553/GD32VW55X_Wifi_BLE_SDK/GD32VW55x_RELEASE_V1.0.2/MSDK/lwip/lwip-2.1.2/src/core\udp.c ****   LWIP_ERROR("udp_sendto_if_src: invalid src_ip", src_ip != NULL, return ERR_ARG);
 726:C:/Users/stapi/OneDrive/Desktop/GD32VW553/GD32VW55X_Wifi_BLE_SDK/GD32VW55x_RELEASE_V1.0.2/MSDK/lwip/lwip-2.1.2/src/core\udp.c ****   LWIP_ERROR("udp_sendto_if_src: invalid netif", netif != NULL, return ERR_ARG);
 727:C:/Users/stapi/OneDrive/Desktop/GD32VW553/GD32VW55X_Wifi_BLE_SDK/GD32VW55x_RELEASE_V1.0.2/MSDK/lwip/lwip-2.1.2/src/core\udp.c **** 
 728:C:/Users/stapi/OneDrive/Desktop/GD32VW553/GD32VW55X_Wifi_BLE_SDK/GD32VW55x_RELEASE_V1.0.2/MSDK/lwip/lwip-2.1.2/src/core\udp.c ****   if (!IP_ADDR_PCB_VERSION_MATCH(pcb, src_ip) ||
 729:C:/Users/stapi/OneDrive/Desktop/GD32VW553/GD32VW55X_Wifi_BLE_SDK/GD32VW55x_RELEASE_V1.0.2/MSDK/lwip/lwip-2.1.2/src/core\udp.c ****       !IP_ADDR_PCB_VERSION_MATCH(pcb, dst_ip)) {
 730:C:/Users/stapi/OneDrive/Desktop/GD32VW553/GD32VW55X_Wifi_BLE_SDK/GD32VW55x_RELEASE_V1.0.2/MSDK/lwip/lwip-2.1.2/src/core\udp.c ****     return ERR_VAL;
 731:C:/Users/stapi/OneDrive/Desktop/GD32VW553/GD32VW55X_Wifi_BLE_SDK/GD32VW55x_RELEASE_V1.0.2/MSDK/lwip/lwip-2.1.2/src/core\udp.c ****   }
 732:C:/Users/stapi/OneDrive/Desktop/GD32VW553/GD32VW55X_Wifi_BLE_SDK/GD32VW55x_RELEASE_V1.0.2/MSDK/lwip/lwip-2.1.2/src/core\udp.c **** 
 733:C:/Users/stapi/OneDrive/Desktop/GD32VW553/GD32VW55X_Wifi_BLE_SDK/GD32VW55x_RELEASE_V1.0.2/MSDK/lwip/lwip-2.1.2/src/core\udp.c **** #if LWIP_IPV4 && IP_SOF_BROADCAST
 734:C:/Users/stapi/OneDrive/Desktop/GD32VW553/GD32VW55X_Wifi_BLE_SDK/GD32VW55x_RELEASE_V1.0.2/MSDK/lwip/lwip-2.1.2/src/core\udp.c ****   /* broadcast filter? */
 735:C:/Users/stapi/OneDrive/Desktop/GD32VW553/GD32VW55X_Wifi_BLE_SDK/GD32VW55x_RELEASE_V1.0.2/MSDK/lwip/lwip-2.1.2/src/core\udp.c ****   if (!ip_get_option(pcb, SOF_BROADCAST) &&
 736:C:/Users/stapi/OneDrive/Desktop/GD32VW553/GD32VW55X_Wifi_BLE_SDK/GD32VW55x_RELEASE_V1.0.2/MSDK/lwip/lwip-2.1.2/src/core\udp.c **** #if LWIP_IPV6
 737:C:/Users/stapi/OneDrive/Desktop/GD32VW553/GD32VW55X_Wifi_BLE_SDK/GD32VW55x_RELEASE_V1.0.2/MSDK/lwip/lwip-2.1.2/src/core\udp.c ****       IP_IS_V4(dst_ip) &&
 738:C:/Users/stapi/OneDrive/Desktop/GD32VW553/GD32VW55X_Wifi_BLE_SDK/GD32VW55x_RELEASE_V1.0.2/MSDK/lwip/lwip-2.1.2/src/core\udp.c **** #endif /* LWIP_IPV6 */
 739:C:/Users/stapi/OneDrive/Desktop/GD32VW553/GD32VW55X_Wifi_BLE_SDK/GD32VW55x_RELEASE_V1.0.2/MSDK/lwip/lwip-2.1.2/src/core\udp.c ****       ip_addr_isbroadcast(dst_ip, netif)) {
 740:C:/Users/stapi/OneDrive/Desktop/GD32VW553/GD32VW55X_Wifi_BLE_SDK/GD32VW55x_RELEASE_V1.0.2/MSDK/lwip/lwip-2.1.2/src/core\udp.c ****     LWIP_DEBUGF(UDP_DEBUG | LWIP_DBG_LEVEL_SERIOUS,
 741:C:/Users/stapi/OneDrive/Desktop/GD32VW553/GD32VW55X_Wifi_BLE_SDK/GD32VW55x_RELEASE_V1.0.2/MSDK/lwip/lwip-2.1.2/src/core\udp.c ****                 ("udp_sendto_if: SOF_BROADCAST not enabled on pcb %p\n", (void *)pcb));
 742:C:/Users/stapi/OneDrive/Desktop/GD32VW553/GD32VW55X_Wifi_BLE_SDK/GD32VW55x_RELEASE_V1.0.2/MSDK/lwip/lwip-2.1.2/src/core\udp.c ****     return ERR_VAL;
 743:C:/Users/stapi/OneDrive/Desktop/GD32VW553/GD32VW55X_Wifi_BLE_SDK/GD32VW55x_RELEASE_V1.0.2/MSDK/lwip/lwip-2.1.2/src/core\udp.c ****   }
 744:C:/Users/stapi/OneDrive/Desktop/GD32VW553/GD32VW55X_Wifi_BLE_SDK/GD32VW55x_RELEASE_V1.0.2/MSDK/lwip/lwip-2.1.2/src/core\udp.c **** #endif /* LWIP_IPV4 && IP_SOF_BROADCAST */
 745:C:/Users/stapi/OneDrive/Desktop/GD32VW553/GD32VW55X_Wifi_BLE_SDK/GD32VW55x_RELEASE_V1.0.2/MSDK/lwip/lwip-2.1.2/src/core\udp.c **** 
 746:C:/Users/stapi/OneDrive/Desktop/GD32VW553/GD32VW55X_Wifi_BLE_SDK/GD32VW55x_RELEASE_V1.0.2/MSDK/lwip/lwip-2.1.2/src/core\udp.c ****   /* if the PCB is not yet bound to a port, bind it here */
 747:C:/Users/stapi/OneDrive/Desktop/GD32VW553/GD32VW55X_Wifi_BLE_SDK/GD32VW55x_RELEASE_V1.0.2/MSDK/lwip/lwip-2.1.2/src/core\udp.c ****   if (pcb->local_port == 0) {
 748:C:/Users/stapi/OneDrive/Desktop/GD32VW553/GD32VW55X_Wifi_BLE_SDK/GD32VW55x_RELEASE_V1.0.2/MSDK/lwip/lwip-2.1.2/src/core\udp.c ****     LWIP_DEBUGF(UDP_DEBUG | LWIP_DBG_TRACE, ("udp_send: not yet bound to a port, binding now\n"));
 749:C:/Users/stapi/OneDrive/Desktop/GD32VW553/GD32VW55X_Wifi_BLE_SDK/GD32VW55x_RELEASE_V1.0.2/MSDK/lwip/lwip-2.1.2/src/core\udp.c ****     err = udp_bind(pcb, &pcb->local_ip, pcb->local_port);
 750:C:/Users/stapi/OneDrive/Desktop/GD32VW553/GD32VW55X_Wifi_BLE_SDK/GD32VW55x_RELEASE_V1.0.2/MSDK/lwip/lwip-2.1.2/src/core\udp.c ****     if (err != ERR_OK) {
 751:C:/Users/stapi/OneDrive/Desktop/GD32VW553/GD32VW55X_Wifi_BLE_SDK/GD32VW55x_RELEASE_V1.0.2/MSDK/lwip/lwip-2.1.2/src/core\udp.c ****       LWIP_DEBUGF(UDP_DEBUG | LWIP_DBG_TRACE | LWIP_DBG_LEVEL_SERIOUS, ("udp_send: forced port bind
 752:C:/Users/stapi/OneDrive/Desktop/GD32VW553/GD32VW55X_Wifi_BLE_SDK/GD32VW55x_RELEASE_V1.0.2/MSDK/lwip/lwip-2.1.2/src/core\udp.c ****       return err;
 753:C:/Users/stapi/OneDrive/Desktop/GD32VW553/GD32VW55X_Wifi_BLE_SDK/GD32VW55x_RELEASE_V1.0.2/MSDK/lwip/lwip-2.1.2/src/core\udp.c ****     }
 754:C:/Users/stapi/OneDrive/Desktop/GD32VW553/GD32VW55X_Wifi_BLE_SDK/GD32VW55x_RELEASE_V1.0.2/MSDK/lwip/lwip-2.1.2/src/core\udp.c ****   }
 755:C:/Users/stapi/OneDrive/Desktop/GD32VW553/GD32VW55X_Wifi_BLE_SDK/GD32VW55x_RELEASE_V1.0.2/MSDK/lwip/lwip-2.1.2/src/core\udp.c **** 
 756:C:/Users/stapi/OneDrive/Desktop/GD32VW553/GD32VW55X_Wifi_BLE_SDK/GD32VW55x_RELEASE_V1.0.2/MSDK/lwip/lwip-2.1.2/src/core\udp.c ****   /* packet too large to add a UDP header without causing an overflow? */
 757:C:/Users/stapi/OneDrive/Desktop/GD32VW553/GD32VW55X_Wifi_BLE_SDK/GD32VW55x_RELEASE_V1.0.2/MSDK/lwip/lwip-2.1.2/src/core\udp.c ****   if ((u16_t)(p->tot_len + UDP_HLEN) < p->tot_len) {
 758:C:/Users/stapi/OneDrive/Desktop/GD32VW553/GD32VW55X_Wifi_BLE_SDK/GD32VW55x_RELEASE_V1.0.2/MSDK/lwip/lwip-2.1.2/src/core\udp.c ****     return ERR_MEM;
 759:C:/Users/stapi/OneDrive/Desktop/GD32VW553/GD32VW55X_Wifi_BLE_SDK/GD32VW55x_RELEASE_V1.0.2/MSDK/lwip/lwip-2.1.2/src/core\udp.c ****   }
 760:C:/Users/stapi/OneDrive/Desktop/GD32VW553/GD32VW55X_Wifi_BLE_SDK/GD32VW55x_RELEASE_V1.0.2/MSDK/lwip/lwip-2.1.2/src/core\udp.c ****   /* not enough space to add an UDP header to first pbuf in given p chain? */
 761:C:/Users/stapi/OneDrive/Desktop/GD32VW553/GD32VW55X_Wifi_BLE_SDK/GD32VW55x_RELEASE_V1.0.2/MSDK/lwip/lwip-2.1.2/src/core\udp.c ****   if (pbuf_add_header(p, UDP_HLEN)) {
 762:C:/Users/stapi/OneDrive/Desktop/GD32VW553/GD32VW55X_Wifi_BLE_SDK/GD32VW55x_RELEASE_V1.0.2/MSDK/lwip/lwip-2.1.2/src/core\udp.c ****     /* allocate header in a separate new pbuf */
 763:C:/Users/stapi/OneDrive/Desktop/GD32VW553/GD32VW55X_Wifi_BLE_SDK/GD32VW55x_RELEASE_V1.0.2/MSDK/lwip/lwip-2.1.2/src/core\udp.c ****     q = pbuf_alloc(PBUF_IP, UDP_HLEN, PBUF_RAM);
 764:C:/Users/stapi/OneDrive/Desktop/GD32VW553/GD32VW55X_Wifi_BLE_SDK/GD32VW55x_RELEASE_V1.0.2/MSDK/lwip/lwip-2.1.2/src/core\udp.c ****     /* new header pbuf could not be allocated? */
 765:C:/Users/stapi/OneDrive/Desktop/GD32VW553/GD32VW55X_Wifi_BLE_SDK/GD32VW55x_RELEASE_V1.0.2/MSDK/lwip/lwip-2.1.2/src/core\udp.c ****     if (q == NULL) {
 766:C:/Users/stapi/OneDrive/Desktop/GD32VW553/GD32VW55X_Wifi_BLE_SDK/GD32VW55x_RELEASE_V1.0.2/MSDK/lwip/lwip-2.1.2/src/core\udp.c ****       LWIP_DEBUGF(UDP_DEBUG | LWIP_DBG_TRACE | LWIP_DBG_LEVEL_SERIOUS, ("udp_send: could not alloca
 767:C:/Users/stapi/OneDrive/Desktop/GD32VW553/GD32VW55X_Wifi_BLE_SDK/GD32VW55x_RELEASE_V1.0.2/MSDK/lwip/lwip-2.1.2/src/core\udp.c ****       return ERR_MEM;
 768:C:/Users/stapi/OneDrive/Desktop/GD32VW553/GD32VW55X_Wifi_BLE_SDK/GD32VW55x_RELEASE_V1.0.2/MSDK/lwip/lwip-2.1.2/src/core\udp.c ****     }
 769:C:/Users/stapi/OneDrive/Desktop/GD32VW553/GD32VW55X_Wifi_BLE_SDK/GD32VW55x_RELEASE_V1.0.2/MSDK/lwip/lwip-2.1.2/src/core\udp.c ****     if (p->tot_len != 0) {
 770:C:/Users/stapi/OneDrive/Desktop/GD32VW553/GD32VW55X_Wifi_BLE_SDK/GD32VW55x_RELEASE_V1.0.2/MSDK/lwip/lwip-2.1.2/src/core\udp.c ****       /* chain header q in front of given pbuf p (only if p contains data) */
 771:C:/Users/stapi/OneDrive/Desktop/GD32VW553/GD32VW55X_Wifi_BLE_SDK/GD32VW55x_RELEASE_V1.0.2/MSDK/lwip/lwip-2.1.2/src/core\udp.c ****       pbuf_chain(q, p);
 772:C:/Users/stapi/OneDrive/Desktop/GD32VW553/GD32VW55X_Wifi_BLE_SDK/GD32VW55x_RELEASE_V1.0.2/MSDK/lwip/lwip-2.1.2/src/core\udp.c ****     }
 773:C:/Users/stapi/OneDrive/Desktop/GD32VW553/GD32VW55X_Wifi_BLE_SDK/GD32VW55x_RELEASE_V1.0.2/MSDK/lwip/lwip-2.1.2/src/core\udp.c ****     /* first pbuf q points to header pbuf */
 774:C:/Users/stapi/OneDrive/Desktop/GD32VW553/GD32VW55X_Wifi_BLE_SDK/GD32VW55x_RELEASE_V1.0.2/MSDK/lwip/lwip-2.1.2/src/core\udp.c ****     LWIP_DEBUGF(UDP_DEBUG,
 775:C:/Users/stapi/OneDrive/Desktop/GD32VW553/GD32VW55X_Wifi_BLE_SDK/GD32VW55x_RELEASE_V1.0.2/MSDK/lwip/lwip-2.1.2/src/core\udp.c ****                 ("udp_send: added header pbuf %p before given pbuf %p\n", (void *)q, (void *)p));
 776:C:/Users/stapi/OneDrive/Desktop/GD32VW553/GD32VW55X_Wifi_BLE_SDK/GD32VW55x_RELEASE_V1.0.2/MSDK/lwip/lwip-2.1.2/src/core\udp.c ****   } else {
 777:C:/Users/stapi/OneDrive/Desktop/GD32VW553/GD32VW55X_Wifi_BLE_SDK/GD32VW55x_RELEASE_V1.0.2/MSDK/lwip/lwip-2.1.2/src/core\udp.c ****     /* adding space for header within p succeeded */
 778:C:/Users/stapi/OneDrive/Desktop/GD32VW553/GD32VW55X_Wifi_BLE_SDK/GD32VW55x_RELEASE_V1.0.2/MSDK/lwip/lwip-2.1.2/src/core\udp.c ****     /* first pbuf q equals given pbuf */
 779:C:/Users/stapi/OneDrive/Desktop/GD32VW553/GD32VW55X_Wifi_BLE_SDK/GD32VW55x_RELEASE_V1.0.2/MSDK/lwip/lwip-2.1.2/src/core\udp.c ****     q = p;
 780:C:/Users/stapi/OneDrive/Desktop/GD32VW553/GD32VW55X_Wifi_BLE_SDK/GD32VW55x_RELEASE_V1.0.2/MSDK/lwip/lwip-2.1.2/src/core\udp.c ****     LWIP_DEBUGF(UDP_DEBUG, ("udp_send: added header in given pbuf %p\n", (void *)p));
 781:C:/Users/stapi/OneDrive/Desktop/GD32VW553/GD32VW55X_Wifi_BLE_SDK/GD32VW55x_RELEASE_V1.0.2/MSDK/lwip/lwip-2.1.2/src/core\udp.c ****   }
 782:C:/Users/stapi/OneDrive/Desktop/GD32VW553/GD32VW55X_Wifi_BLE_SDK/GD32VW55x_RELEASE_V1.0.2/MSDK/lwip/lwip-2.1.2/src/core\udp.c ****   LWIP_ASSERT("check that first pbuf can hold struct udp_hdr",
 783:C:/Users/stapi/OneDrive/Desktop/GD32VW553/GD32VW55X_Wifi_BLE_SDK/GD32VW55x_RELEASE_V1.0.2/MSDK/lwip/lwip-2.1.2/src/core\udp.c ****               (q->len >= sizeof(struct udp_hdr)));
 784:C:/Users/stapi/OneDrive/Desktop/GD32VW553/GD32VW55X_Wifi_BLE_SDK/GD32VW55x_RELEASE_V1.0.2/MSDK/lwip/lwip-2.1.2/src/core\udp.c ****   /* q now represents the packet to be sent */
 785:C:/Users/stapi/OneDrive/Desktop/GD32VW553/GD32VW55X_Wifi_BLE_SDK/GD32VW55x_RELEASE_V1.0.2/MSDK/lwip/lwip-2.1.2/src/core\udp.c ****   udphdr = (struct udp_hdr *)q->payload;
 786:C:/Users/stapi/OneDrive/Desktop/GD32VW553/GD32VW55X_Wifi_BLE_SDK/GD32VW55x_RELEASE_V1.0.2/MSDK/lwip/lwip-2.1.2/src/core\udp.c ****   udphdr->src = lwip_htons(pcb->local_port);
 787:C:/Users/stapi/OneDrive/Desktop/GD32VW553/GD32VW55X_Wifi_BLE_SDK/GD32VW55x_RELEASE_V1.0.2/MSDK/lwip/lwip-2.1.2/src/core\udp.c ****   udphdr->dest = lwip_htons(dst_port);
 788:C:/Users/stapi/OneDrive/Desktop/GD32VW553/GD32VW55X_Wifi_BLE_SDK/GD32VW55x_RELEASE_V1.0.2/MSDK/lwip/lwip-2.1.2/src/core\udp.c ****   /* in UDP, 0 checksum means 'no checksum' */
 789:C:/Users/stapi/OneDrive/Desktop/GD32VW553/GD32VW55X_Wifi_BLE_SDK/GD32VW55x_RELEASE_V1.0.2/MSDK/lwip/lwip-2.1.2/src/core\udp.c ****   udphdr->chksum = 0x0000;
 790:C:/Users/stapi/OneDrive/Desktop/GD32VW553/GD32VW55X_Wifi_BLE_SDK/GD32VW55x_RELEASE_V1.0.2/MSDK/lwip/lwip-2.1.2/src/core\udp.c **** 
 791:C:/Users/stapi/OneDrive/Desktop/GD32VW553/GD32VW55X_Wifi_BLE_SDK/GD32VW55x_RELEASE_V1.0.2/MSDK/lwip/lwip-2.1.2/src/core\udp.c ****   /* Multicast Loop? */
 792:C:/Users/stapi/OneDrive/Desktop/GD32VW553/GD32VW55X_Wifi_BLE_SDK/GD32VW55x_RELEASE_V1.0.2/MSDK/lwip/lwip-2.1.2/src/core\udp.c **** #if LWIP_MULTICAST_TX_OPTIONS
 793:C:/Users/stapi/OneDrive/Desktop/GD32VW553/GD32VW55X_Wifi_BLE_SDK/GD32VW55x_RELEASE_V1.0.2/MSDK/lwip/lwip-2.1.2/src/core\udp.c ****   if (((pcb->flags & UDP_FLAGS_MULTICAST_LOOP) != 0) && ip_addr_ismulticast(dst_ip)) {
 794:C:/Users/stapi/OneDrive/Desktop/GD32VW553/GD32VW55X_Wifi_BLE_SDK/GD32VW55x_RELEASE_V1.0.2/MSDK/lwip/lwip-2.1.2/src/core\udp.c ****     q->flags |= PBUF_FLAG_MCASTLOOP;
 795:C:/Users/stapi/OneDrive/Desktop/GD32VW553/GD32VW55X_Wifi_BLE_SDK/GD32VW55x_RELEASE_V1.0.2/MSDK/lwip/lwip-2.1.2/src/core\udp.c ****   }
 796:C:/Users/stapi/OneDrive/Desktop/GD32VW553/GD32VW55X_Wifi_BLE_SDK/GD32VW55x_RELEASE_V1.0.2/MSDK/lwip/lwip-2.1.2/src/core\udp.c **** #endif /* LWIP_MULTICAST_TX_OPTIONS */
 797:C:/Users/stapi/OneDrive/Desktop/GD32VW553/GD32VW55X_Wifi_BLE_SDK/GD32VW55x_RELEASE_V1.0.2/MSDK/lwip/lwip-2.1.2/src/core\udp.c **** 
 798:C:/Users/stapi/OneDrive/Desktop/GD32VW553/GD32VW55X_Wifi_BLE_SDK/GD32VW55x_RELEASE_V1.0.2/MSDK/lwip/lwip-2.1.2/src/core\udp.c ****   LWIP_DEBUGF(UDP_DEBUG, ("udp_send: sending datagram of length %"U16_F"\n", q->tot_len));
 799:C:/Users/stapi/OneDrive/Desktop/GD32VW553/GD32VW55X_Wifi_BLE_SDK/GD32VW55x_RELEASE_V1.0.2/MSDK/lwip/lwip-2.1.2/src/core\udp.c **** 
 800:C:/Users/stapi/OneDrive/Desktop/GD32VW553/GD32VW55X_Wifi_BLE_SDK/GD32VW55x_RELEASE_V1.0.2/MSDK/lwip/lwip-2.1.2/src/core\udp.c **** #if LWIP_UDPLITE
 801:C:/Users/stapi/OneDrive/Desktop/GD32VW553/GD32VW55X_Wifi_BLE_SDK/GD32VW55x_RELEASE_V1.0.2/MSDK/lwip/lwip-2.1.2/src/core\udp.c ****   /* UDP Lite protocol? */
 802:C:/Users/stapi/OneDrive/Desktop/GD32VW553/GD32VW55X_Wifi_BLE_SDK/GD32VW55x_RELEASE_V1.0.2/MSDK/lwip/lwip-2.1.2/src/core\udp.c ****   if (pcb->flags & UDP_FLAGS_UDPLITE) {
 803:C:/Users/stapi/OneDrive/Desktop/GD32VW553/GD32VW55X_Wifi_BLE_SDK/GD32VW55x_RELEASE_V1.0.2/MSDK/lwip/lwip-2.1.2/src/core\udp.c ****     u16_t chklen, chklen_hdr;
 804:C:/Users/stapi/OneDrive/Desktop/GD32VW553/GD32VW55X_Wifi_BLE_SDK/GD32VW55x_RELEASE_V1.0.2/MSDK/lwip/lwip-2.1.2/src/core\udp.c ****     LWIP_DEBUGF(UDP_DEBUG, ("udp_send: UDP LITE packet length %"U16_F"\n", q->tot_len));
 805:C:/Users/stapi/OneDrive/Desktop/GD32VW553/GD32VW55X_Wifi_BLE_SDK/GD32VW55x_RELEASE_V1.0.2/MSDK/lwip/lwip-2.1.2/src/core\udp.c ****     /* set UDP message length in UDP header */
 806:C:/Users/stapi/OneDrive/Desktop/GD32VW553/GD32VW55X_Wifi_BLE_SDK/GD32VW55x_RELEASE_V1.0.2/MSDK/lwip/lwip-2.1.2/src/core\udp.c ****     chklen_hdr = chklen = pcb->chksum_len_tx;
 807:C:/Users/stapi/OneDrive/Desktop/GD32VW553/GD32VW55X_Wifi_BLE_SDK/GD32VW55x_RELEASE_V1.0.2/MSDK/lwip/lwip-2.1.2/src/core\udp.c ****     if ((chklen < sizeof(struct udp_hdr)) || (chklen > q->tot_len)) {
 808:C:/Users/stapi/OneDrive/Desktop/GD32VW553/GD32VW55X_Wifi_BLE_SDK/GD32VW55x_RELEASE_V1.0.2/MSDK/lwip/lwip-2.1.2/src/core\udp.c ****       if (chklen != 0) {
 809:C:/Users/stapi/OneDrive/Desktop/GD32VW553/GD32VW55X_Wifi_BLE_SDK/GD32VW55x_RELEASE_V1.0.2/MSDK/lwip/lwip-2.1.2/src/core\udp.c ****         LWIP_DEBUGF(UDP_DEBUG, ("udp_send: UDP LITE pcb->chksum_len is illegal: %"U16_F"\n", chklen
 810:C:/Users/stapi/OneDrive/Desktop/GD32VW553/GD32VW55X_Wifi_BLE_SDK/GD32VW55x_RELEASE_V1.0.2/MSDK/lwip/lwip-2.1.2/src/core\udp.c ****       }
 811:C:/Users/stapi/OneDrive/Desktop/GD32VW553/GD32VW55X_Wifi_BLE_SDK/GD32VW55x_RELEASE_V1.0.2/MSDK/lwip/lwip-2.1.2/src/core\udp.c ****       /* For UDP-Lite, checksum length of 0 means checksum
 812:C:/Users/stapi/OneDrive/Desktop/GD32VW553/GD32VW55X_Wifi_BLE_SDK/GD32VW55x_RELEASE_V1.0.2/MSDK/lwip/lwip-2.1.2/src/core\udp.c ****          over the complete packet. (See RFC 3828 chap. 3.1)
 813:C:/Users/stapi/OneDrive/Desktop/GD32VW553/GD32VW55X_Wifi_BLE_SDK/GD32VW55x_RELEASE_V1.0.2/MSDK/lwip/lwip-2.1.2/src/core\udp.c ****          At least the UDP-Lite header must be covered by the
 814:C:/Users/stapi/OneDrive/Desktop/GD32VW553/GD32VW55X_Wifi_BLE_SDK/GD32VW55x_RELEASE_V1.0.2/MSDK/lwip/lwip-2.1.2/src/core\udp.c ****          checksum, therefore, if chksum_len has an illegal
 815:C:/Users/stapi/OneDrive/Desktop/GD32VW553/GD32VW55X_Wifi_BLE_SDK/GD32VW55x_RELEASE_V1.0.2/MSDK/lwip/lwip-2.1.2/src/core\udp.c ****          value, we generate the checksum over the complete
 816:C:/Users/stapi/OneDrive/Desktop/GD32VW553/GD32VW55X_Wifi_BLE_SDK/GD32VW55x_RELEASE_V1.0.2/MSDK/lwip/lwip-2.1.2/src/core\udp.c ****          packet to be safe. */
 817:C:/Users/stapi/OneDrive/Desktop/GD32VW553/GD32VW55X_Wifi_BLE_SDK/GD32VW55x_RELEASE_V1.0.2/MSDK/lwip/lwip-2.1.2/src/core\udp.c ****       chklen_hdr = 0;
 818:C:/Users/stapi/OneDrive/Desktop/GD32VW553/GD32VW55X_Wifi_BLE_SDK/GD32VW55x_RELEASE_V1.0.2/MSDK/lwip/lwip-2.1.2/src/core\udp.c ****       chklen = q->tot_len;
 819:C:/Users/stapi/OneDrive/Desktop/GD32VW553/GD32VW55X_Wifi_BLE_SDK/GD32VW55x_RELEASE_V1.0.2/MSDK/lwip/lwip-2.1.2/src/core\udp.c ****     }
 820:C:/Users/stapi/OneDrive/Desktop/GD32VW553/GD32VW55X_Wifi_BLE_SDK/GD32VW55x_RELEASE_V1.0.2/MSDK/lwip/lwip-2.1.2/src/core\udp.c ****     udphdr->len = lwip_htons(chklen_hdr);
 821:C:/Users/stapi/OneDrive/Desktop/GD32VW553/GD32VW55X_Wifi_BLE_SDK/GD32VW55x_RELEASE_V1.0.2/MSDK/lwip/lwip-2.1.2/src/core\udp.c ****     /* calculate checksum */
 822:C:/Users/stapi/OneDrive/Desktop/GD32VW553/GD32VW55X_Wifi_BLE_SDK/GD32VW55x_RELEASE_V1.0.2/MSDK/lwip/lwip-2.1.2/src/core\udp.c **** #if CHECKSUM_GEN_UDP
 823:C:/Users/stapi/OneDrive/Desktop/GD32VW553/GD32VW55X_Wifi_BLE_SDK/GD32VW55x_RELEASE_V1.0.2/MSDK/lwip/lwip-2.1.2/src/core\udp.c ****     IF__NETIF_CHECKSUM_ENABLED(netif, NETIF_CHECKSUM_GEN_UDP) {
 824:C:/Users/stapi/OneDrive/Desktop/GD32VW553/GD32VW55X_Wifi_BLE_SDK/GD32VW55x_RELEASE_V1.0.2/MSDK/lwip/lwip-2.1.2/src/core\udp.c **** #if LWIP_CHECKSUM_ON_COPY
 825:C:/Users/stapi/OneDrive/Desktop/GD32VW553/GD32VW55X_Wifi_BLE_SDK/GD32VW55x_RELEASE_V1.0.2/MSDK/lwip/lwip-2.1.2/src/core\udp.c ****       if (have_chksum) {
 826:C:/Users/stapi/OneDrive/Desktop/GD32VW553/GD32VW55X_Wifi_BLE_SDK/GD32VW55x_RELEASE_V1.0.2/MSDK/lwip/lwip-2.1.2/src/core\udp.c ****         chklen = UDP_HLEN;
 827:C:/Users/stapi/OneDrive/Desktop/GD32VW553/GD32VW55X_Wifi_BLE_SDK/GD32VW55x_RELEASE_V1.0.2/MSDK/lwip/lwip-2.1.2/src/core\udp.c ****       }
 828:C:/Users/stapi/OneDrive/Desktop/GD32VW553/GD32VW55X_Wifi_BLE_SDK/GD32VW55x_RELEASE_V1.0.2/MSDK/lwip/lwip-2.1.2/src/core\udp.c **** #endif /* LWIP_CHECKSUM_ON_COPY */
 829:C:/Users/stapi/OneDrive/Desktop/GD32VW553/GD32VW55X_Wifi_BLE_SDK/GD32VW55x_RELEASE_V1.0.2/MSDK/lwip/lwip-2.1.2/src/core\udp.c ****       udphdr->chksum = ip_chksum_pseudo_partial(q, IP_PROTO_UDPLITE,
 830:C:/Users/stapi/OneDrive/Desktop/GD32VW553/GD32VW55X_Wifi_BLE_SDK/GD32VW55x_RELEASE_V1.0.2/MSDK/lwip/lwip-2.1.2/src/core\udp.c ****                        q->tot_len, chklen, src_ip, dst_ip);
 831:C:/Users/stapi/OneDrive/Desktop/GD32VW553/GD32VW55X_Wifi_BLE_SDK/GD32VW55x_RELEASE_V1.0.2/MSDK/lwip/lwip-2.1.2/src/core\udp.c **** #if LWIP_CHECKSUM_ON_COPY
 832:C:/Users/stapi/OneDrive/Desktop/GD32VW553/GD32VW55X_Wifi_BLE_SDK/GD32VW55x_RELEASE_V1.0.2/MSDK/lwip/lwip-2.1.2/src/core\udp.c ****       if (have_chksum) {
 833:C:/Users/stapi/OneDrive/Desktop/GD32VW553/GD32VW55X_Wifi_BLE_SDK/GD32VW55x_RELEASE_V1.0.2/MSDK/lwip/lwip-2.1.2/src/core\udp.c ****         u32_t acc;
 834:C:/Users/stapi/OneDrive/Desktop/GD32VW553/GD32VW55X_Wifi_BLE_SDK/GD32VW55x_RELEASE_V1.0.2/MSDK/lwip/lwip-2.1.2/src/core\udp.c ****         acc = udphdr->chksum + (u16_t)~(chksum);
 835:C:/Users/stapi/OneDrive/Desktop/GD32VW553/GD32VW55X_Wifi_BLE_SDK/GD32VW55x_RELEASE_V1.0.2/MSDK/lwip/lwip-2.1.2/src/core\udp.c ****         udphdr->chksum = FOLD_U32T(acc);
 836:C:/Users/stapi/OneDrive/Desktop/GD32VW553/GD32VW55X_Wifi_BLE_SDK/GD32VW55x_RELEASE_V1.0.2/MSDK/lwip/lwip-2.1.2/src/core\udp.c ****       }
 837:C:/Users/stapi/OneDrive/Desktop/GD32VW553/GD32VW55X_Wifi_BLE_SDK/GD32VW55x_RELEASE_V1.0.2/MSDK/lwip/lwip-2.1.2/src/core\udp.c **** #endif /* LWIP_CHECKSUM_ON_COPY */
 838:C:/Users/stapi/OneDrive/Desktop/GD32VW553/GD32VW55X_Wifi_BLE_SDK/GD32VW55x_RELEASE_V1.0.2/MSDK/lwip/lwip-2.1.2/src/core\udp.c **** 
 839:C:/Users/stapi/OneDrive/Desktop/GD32VW553/GD32VW55X_Wifi_BLE_SDK/GD32VW55x_RELEASE_V1.0.2/MSDK/lwip/lwip-2.1.2/src/core\udp.c ****       /* chksum zero must become 0xffff, as zero means 'no checksum' */
 840:C:/Users/stapi/OneDrive/Desktop/GD32VW553/GD32VW55X_Wifi_BLE_SDK/GD32VW55x_RELEASE_V1.0.2/MSDK/lwip/lwip-2.1.2/src/core\udp.c ****       if (udphdr->chksum == 0x0000) {
 841:C:/Users/stapi/OneDrive/Desktop/GD32VW553/GD32VW55X_Wifi_BLE_SDK/GD32VW55x_RELEASE_V1.0.2/MSDK/lwip/lwip-2.1.2/src/core\udp.c ****         udphdr->chksum = 0xffff;
 842:C:/Users/stapi/OneDrive/Desktop/GD32VW553/GD32VW55X_Wifi_BLE_SDK/GD32VW55x_RELEASE_V1.0.2/MSDK/lwip/lwip-2.1.2/src/core\udp.c ****       }
 843:C:/Users/stapi/OneDrive/Desktop/GD32VW553/GD32VW55X_Wifi_BLE_SDK/GD32VW55x_RELEASE_V1.0.2/MSDK/lwip/lwip-2.1.2/src/core\udp.c ****     }
 844:C:/Users/stapi/OneDrive/Desktop/GD32VW553/GD32VW55X_Wifi_BLE_SDK/GD32VW55x_RELEASE_V1.0.2/MSDK/lwip/lwip-2.1.2/src/core\udp.c **** #endif /* CHECKSUM_GEN_UDP */
 845:C:/Users/stapi/OneDrive/Desktop/GD32VW553/GD32VW55X_Wifi_BLE_SDK/GD32VW55x_RELEASE_V1.0.2/MSDK/lwip/lwip-2.1.2/src/core\udp.c **** 
 846:C:/Users/stapi/OneDrive/Desktop/GD32VW553/GD32VW55X_Wifi_BLE_SDK/GD32VW55x_RELEASE_V1.0.2/MSDK/lwip/lwip-2.1.2/src/core\udp.c ****     ip_proto = IP_PROTO_UDPLITE;
 847:C:/Users/stapi/OneDrive/Desktop/GD32VW553/GD32VW55X_Wifi_BLE_SDK/GD32VW55x_RELEASE_V1.0.2/MSDK/lwip/lwip-2.1.2/src/core\udp.c ****   } else
 848:C:/Users/stapi/OneDrive/Desktop/GD32VW553/GD32VW55X_Wifi_BLE_SDK/GD32VW55x_RELEASE_V1.0.2/MSDK/lwip/lwip-2.1.2/src/core\udp.c **** #endif /* LWIP_UDPLITE */
 849:C:/Users/stapi/OneDrive/Desktop/GD32VW553/GD32VW55X_Wifi_BLE_SDK/GD32VW55x_RELEASE_V1.0.2/MSDK/lwip/lwip-2.1.2/src/core\udp.c ****   {      /* UDP */
 850:C:/Users/stapi/OneDrive/Desktop/GD32VW553/GD32VW55X_Wifi_BLE_SDK/GD32VW55x_RELEASE_V1.0.2/MSDK/lwip/lwip-2.1.2/src/core\udp.c ****     LWIP_DEBUGF(UDP_DEBUG, ("udp_send: UDP packet length %"U16_F"\n", q->tot_len));
 851:C:/Users/stapi/OneDrive/Desktop/GD32VW553/GD32VW55X_Wifi_BLE_SDK/GD32VW55x_RELEASE_V1.0.2/MSDK/lwip/lwip-2.1.2/src/core\udp.c ****     udphdr->len = lwip_htons(q->tot_len);
 852:C:/Users/stapi/OneDrive/Desktop/GD32VW553/GD32VW55X_Wifi_BLE_SDK/GD32VW55x_RELEASE_V1.0.2/MSDK/lwip/lwip-2.1.2/src/core\udp.c ****     /* calculate checksum */
 853:C:/Users/stapi/OneDrive/Desktop/GD32VW553/GD32VW55X_Wifi_BLE_SDK/GD32VW55x_RELEASE_V1.0.2/MSDK/lwip/lwip-2.1.2/src/core\udp.c **** #if CHECKSUM_GEN_UDP
 854:C:/Users/stapi/OneDrive/Desktop/GD32VW553/GD32VW55X_Wifi_BLE_SDK/GD32VW55x_RELEASE_V1.0.2/MSDK/lwip/lwip-2.1.2/src/core\udp.c ****     IF__NETIF_CHECKSUM_ENABLED(netif, NETIF_CHECKSUM_GEN_UDP) {
 855:C:/Users/stapi/OneDrive/Desktop/GD32VW553/GD32VW55X_Wifi_BLE_SDK/GD32VW55x_RELEASE_V1.0.2/MSDK/lwip/lwip-2.1.2/src/core\udp.c ****       /* Checksum is mandatory over IPv6. */
 856:C:/Users/stapi/OneDrive/Desktop/GD32VW553/GD32VW55X_Wifi_BLE_SDK/GD32VW55x_RELEASE_V1.0.2/MSDK/lwip/lwip-2.1.2/src/core\udp.c ****       if (IP_IS_V6(dst_ip) || (pcb->flags & UDP_FLAGS_NOCHKSUM) == 0) {
 857:C:/Users/stapi/OneDrive/Desktop/GD32VW553/GD32VW55X_Wifi_BLE_SDK/GD32VW55x_RELEASE_V1.0.2/MSDK/lwip/lwip-2.1.2/src/core\udp.c ****         u16_t udpchksum;
 858:C:/Users/stapi/OneDrive/Desktop/GD32VW553/GD32VW55X_Wifi_BLE_SDK/GD32VW55x_RELEASE_V1.0.2/MSDK/lwip/lwip-2.1.2/src/core\udp.c **** #if LWIP_CHECKSUM_ON_COPY
 859:C:/Users/stapi/OneDrive/Desktop/GD32VW553/GD32VW55X_Wifi_BLE_SDK/GD32VW55x_RELEASE_V1.0.2/MSDK/lwip/lwip-2.1.2/src/core\udp.c ****         if (have_chksum) {
 860:C:/Users/stapi/OneDrive/Desktop/GD32VW553/GD32VW55X_Wifi_BLE_SDK/GD32VW55x_RELEASE_V1.0.2/MSDK/lwip/lwip-2.1.2/src/core\udp.c ****           u32_t acc;
 861:C:/Users/stapi/OneDrive/Desktop/GD32VW553/GD32VW55X_Wifi_BLE_SDK/GD32VW55x_RELEASE_V1.0.2/MSDK/lwip/lwip-2.1.2/src/core\udp.c ****           udpchksum = ip_chksum_pseudo_partial(q, IP_PROTO_UDP,
 862:C:/Users/stapi/OneDrive/Desktop/GD32VW553/GD32VW55X_Wifi_BLE_SDK/GD32VW55x_RELEASE_V1.0.2/MSDK/lwip/lwip-2.1.2/src/core\udp.c ****                                                q->tot_len, UDP_HLEN, src_ip, dst_ip);
 863:C:/Users/stapi/OneDrive/Desktop/GD32VW553/GD32VW55X_Wifi_BLE_SDK/GD32VW55x_RELEASE_V1.0.2/MSDK/lwip/lwip-2.1.2/src/core\udp.c ****           acc = udpchksum + (u16_t)~(chksum);
 864:C:/Users/stapi/OneDrive/Desktop/GD32VW553/GD32VW55X_Wifi_BLE_SDK/GD32VW55x_RELEASE_V1.0.2/MSDK/lwip/lwip-2.1.2/src/core\udp.c ****           udpchksum = FOLD_U32T(acc);
 865:C:/Users/stapi/OneDrive/Desktop/GD32VW553/GD32VW55X_Wifi_BLE_SDK/GD32VW55x_RELEASE_V1.0.2/MSDK/lwip/lwip-2.1.2/src/core\udp.c ****         } else
 866:C:/Users/stapi/OneDrive/Desktop/GD32VW553/GD32VW55X_Wifi_BLE_SDK/GD32VW55x_RELEASE_V1.0.2/MSDK/lwip/lwip-2.1.2/src/core\udp.c **** #endif /* LWIP_CHECKSUM_ON_COPY */
 867:C:/Users/stapi/OneDrive/Desktop/GD32VW553/GD32VW55X_Wifi_BLE_SDK/GD32VW55x_RELEASE_V1.0.2/MSDK/lwip/lwip-2.1.2/src/core\udp.c ****         {
 868:C:/Users/stapi/OneDrive/Desktop/GD32VW553/GD32VW55X_Wifi_BLE_SDK/GD32VW55x_RELEASE_V1.0.2/MSDK/lwip/lwip-2.1.2/src/core\udp.c ****           udpchksum = ip_chksum_pseudo(q, IP_PROTO_UDP, q->tot_len,
 869:C:/Users/stapi/OneDrive/Desktop/GD32VW553/GD32VW55X_Wifi_BLE_SDK/GD32VW55x_RELEASE_V1.0.2/MSDK/lwip/lwip-2.1.2/src/core\udp.c ****                                        src_ip, dst_ip);
 870:C:/Users/stapi/OneDrive/Desktop/GD32VW553/GD32VW55X_Wifi_BLE_SDK/GD32VW55x_RELEASE_V1.0.2/MSDK/lwip/lwip-2.1.2/src/core\udp.c ****         }
 871:C:/Users/stapi/OneDrive/Desktop/GD32VW553/GD32VW55X_Wifi_BLE_SDK/GD32VW55x_RELEASE_V1.0.2/MSDK/lwip/lwip-2.1.2/src/core\udp.c **** 
 872:C:/Users/stapi/OneDrive/Desktop/GD32VW553/GD32VW55X_Wifi_BLE_SDK/GD32VW55x_RELEASE_V1.0.2/MSDK/lwip/lwip-2.1.2/src/core\udp.c ****         /* chksum zero must become 0xffff, as zero means 'no checksum' */
 873:C:/Users/stapi/OneDrive/Desktop/GD32VW553/GD32VW55X_Wifi_BLE_SDK/GD32VW55x_RELEASE_V1.0.2/MSDK/lwip/lwip-2.1.2/src/core\udp.c ****         if (udpchksum == 0x0000) {
 874:C:/Users/stapi/OneDrive/Desktop/GD32VW553/GD32VW55X_Wifi_BLE_SDK/GD32VW55x_RELEASE_V1.0.2/MSDK/lwip/lwip-2.1.2/src/core\udp.c ****           udpchksum = 0xffff;
 875:C:/Users/stapi/OneDrive/Desktop/GD32VW553/GD32VW55X_Wifi_BLE_SDK/GD32VW55x_RELEASE_V1.0.2/MSDK/lwip/lwip-2.1.2/src/core\udp.c ****         }
 876:C:/Users/stapi/OneDrive/Desktop/GD32VW553/GD32VW55X_Wifi_BLE_SDK/GD32VW55x_RELEASE_V1.0.2/MSDK/lwip/lwip-2.1.2/src/core\udp.c ****         udphdr->chksum = udpchksum;
 877:C:/Users/stapi/OneDrive/Desktop/GD32VW553/GD32VW55X_Wifi_BLE_SDK/GD32VW55x_RELEASE_V1.0.2/MSDK/lwip/lwip-2.1.2/src/core\udp.c ****       }
 878:C:/Users/stapi/OneDrive/Desktop/GD32VW553/GD32VW55X_Wifi_BLE_SDK/GD32VW55x_RELEASE_V1.0.2/MSDK/lwip/lwip-2.1.2/src/core\udp.c ****     }
 879:C:/Users/stapi/OneDrive/Desktop/GD32VW553/GD32VW55X_Wifi_BLE_SDK/GD32VW55x_RELEASE_V1.0.2/MSDK/lwip/lwip-2.1.2/src/core\udp.c **** #endif /* CHECKSUM_GEN_UDP */
 880:C:/Users/stapi/OneDrive/Desktop/GD32VW553/GD32VW55X_Wifi_BLE_SDK/GD32VW55x_RELEASE_V1.0.2/MSDK/lwip/lwip-2.1.2/src/core\udp.c ****     ip_proto = IP_PROTO_UDP;
 881:C:/Users/stapi/OneDrive/Desktop/GD32VW553/GD32VW55X_Wifi_BLE_SDK/GD32VW55x_RELEASE_V1.0.2/MSDK/lwip/lwip-2.1.2/src/core\udp.c ****   }
 882:C:/Users/stapi/OneDrive/Desktop/GD32VW553/GD32VW55X_Wifi_BLE_SDK/GD32VW55x_RELEASE_V1.0.2/MSDK/lwip/lwip-2.1.2/src/core\udp.c **** 
 883:C:/Users/stapi/OneDrive/Desktop/GD32VW553/GD32VW55X_Wifi_BLE_SDK/GD32VW55x_RELEASE_V1.0.2/MSDK/lwip/lwip-2.1.2/src/core\udp.c ****   /* Determine TTL to use */
 884:C:/Users/stapi/OneDrive/Desktop/GD32VW553/GD32VW55X_Wifi_BLE_SDK/GD32VW55x_RELEASE_V1.0.2/MSDK/lwip/lwip-2.1.2/src/core\udp.c **** #if LWIP_MULTICAST_TX_OPTIONS
 885:C:/Users/stapi/OneDrive/Desktop/GD32VW553/GD32VW55X_Wifi_BLE_SDK/GD32VW55x_RELEASE_V1.0.2/MSDK/lwip/lwip-2.1.2/src/core\udp.c ****   ttl = (ip_addr_ismulticast(dst_ip) ? udp_get_multicast_ttl(pcb) : pcb->ttl);
 886:C:/Users/stapi/OneDrive/Desktop/GD32VW553/GD32VW55X_Wifi_BLE_SDK/GD32VW55x_RELEASE_V1.0.2/MSDK/lwip/lwip-2.1.2/src/core\udp.c **** #else /* LWIP_MULTICAST_TX_OPTIONS */
 887:C:/Users/stapi/OneDrive/Desktop/GD32VW553/GD32VW55X_Wifi_BLE_SDK/GD32VW55x_RELEASE_V1.0.2/MSDK/lwip/lwip-2.1.2/src/core\udp.c ****   ttl = pcb->ttl;
 888:C:/Users/stapi/OneDrive/Desktop/GD32VW553/GD32VW55X_Wifi_BLE_SDK/GD32VW55x_RELEASE_V1.0.2/MSDK/lwip/lwip-2.1.2/src/core\udp.c **** #endif /* LWIP_MULTICAST_TX_OPTIONS */
 889:C:/Users/stapi/OneDrive/Desktop/GD32VW553/GD32VW55X_Wifi_BLE_SDK/GD32VW55x_RELEASE_V1.0.2/MSDK/lwip/lwip-2.1.2/src/core\udp.c **** 
 890:C:/Users/stapi/OneDrive/Desktop/GD32VW553/GD32VW55X_Wifi_BLE_SDK/GD32VW55x_RELEASE_V1.0.2/MSDK/lwip/lwip-2.1.2/src/core\udp.c ****   LWIP_DEBUGF(UDP_DEBUG, ("udp_send: UDP checksum 0x%04"X16_F"\n", udphdr->chksum));
 891:C:/Users/stapi/OneDrive/Desktop/GD32VW553/GD32VW55X_Wifi_BLE_SDK/GD32VW55x_RELEASE_V1.0.2/MSDK/lwip/lwip-2.1.2/src/core\udp.c ****   LWIP_DEBUGF(UDP_DEBUG, ("udp_send: ip_output_if (,,,,0x%02"X16_F",)\n", (u16_t)ip_proto));
 892:C:/Users/stapi/OneDrive/Desktop/GD32VW553/GD32VW55X_Wifi_BLE_SDK/GD32VW55x_RELEASE_V1.0.2/MSDK/lwip/lwip-2.1.2/src/core\udp.c ****   /* output to IP */
 893:C:/Users/stapi/OneDrive/Desktop/GD32VW553/GD32VW55X_Wifi_BLE_SDK/GD32VW55x_RELEASE_V1.0.2/MSDK/lwip/lwip-2.1.2/src/core\udp.c ****   NETIF_SET_HINTS(netif, &(pcb->netif_hints));
 894:C:/Users/stapi/OneDrive/Desktop/GD32VW553/GD32VW55X_Wifi_BLE_SDK/GD32VW55x_RELEASE_V1.0.2/MSDK/lwip/lwip-2.1.2/src/core\udp.c ****   err = ip_output_if_src(q, src_ip, dst_ip, ttl, pcb->tos, ip_proto, netif);
 895:C:/Users/stapi/OneDrive/Desktop/GD32VW553/GD32VW55X_Wifi_BLE_SDK/GD32VW55x_RELEASE_V1.0.2/MSDK/lwip/lwip-2.1.2/src/core\udp.c ****   NETIF_RESET_HINTS(netif);
 896:C:/Users/stapi/OneDrive/Desktop/GD32VW553/GD32VW55X_Wifi_BLE_SDK/GD32VW55x_RELEASE_V1.0.2/MSDK/lwip/lwip-2.1.2/src/core\udp.c **** 
 897:C:/Users/stapi/OneDrive/Desktop/GD32VW553/GD32VW55X_Wifi_BLE_SDK/GD32VW55x_RELEASE_V1.0.2/MSDK/lwip/lwip-2.1.2/src/core\udp.c ****   /* @todo: must this be increased even if error occurred? */
 898:C:/Users/stapi/OneDrive/Desktop/GD32VW553/GD32VW55X_Wifi_BLE_SDK/GD32VW55x_RELEASE_V1.0.2/MSDK/lwip/lwip-2.1.2/src/core\udp.c ****   MIB2_STATS_INC(mib2.udpoutdatagrams);
 899:C:/Users/stapi/OneDrive/Desktop/GD32VW553/GD32VW55X_Wifi_BLE_SDK/GD32VW55x_RELEASE_V1.0.2/MSDK/lwip/lwip-2.1.2/src/core\udp.c **** 
 900:C:/Users/stapi/OneDrive/Desktop/GD32VW553/GD32VW55X_Wifi_BLE_SDK/GD32VW55x_RELEASE_V1.0.2/MSDK/lwip/lwip-2.1.2/src/core\udp.c ****   /* did we chain a separate header pbuf earlier? */
 901:C:/Users/stapi/OneDrive/Desktop/GD32VW553/GD32VW55X_Wifi_BLE_SDK/GD32VW55x_RELEASE_V1.0.2/MSDK/lwip/lwip-2.1.2/src/core\udp.c ****   if (q != p) {
 902:C:/Users/stapi/OneDrive/Desktop/GD32VW553/GD32VW55X_Wifi_BLE_SDK/GD32VW55x_RELEASE_V1.0.2/MSDK/lwip/lwip-2.1.2/src/core\udp.c ****     /* free the header pbuf */
 903:C:/Users/stapi/OneDrive/Desktop/GD32VW553/GD32VW55X_Wifi_BLE_SDK/GD32VW55x_RELEASE_V1.0.2/MSDK/lwip/lwip-2.1.2/src/core\udp.c ****     pbuf_free(q);
 904:C:/Users/stapi/OneDrive/Desktop/GD32VW553/GD32VW55X_Wifi_BLE_SDK/GD32VW55x_RELEASE_V1.0.2/MSDK/lwip/lwip-2.1.2/src/core\udp.c ****     q = NULL;
 905:C:/Users/stapi/OneDrive/Desktop/GD32VW553/GD32VW55X_Wifi_BLE_SDK/GD32VW55x_RELEASE_V1.0.2/MSDK/lwip/lwip-2.1.2/src/core\udp.c ****     /* p is still referenced by the caller, and will live on */
 906:C:/Users/stapi/OneDrive/Desktop/GD32VW553/GD32VW55X_Wifi_BLE_SDK/GD32VW55x_RELEASE_V1.0.2/MSDK/lwip/lwip-2.1.2/src/core\udp.c ****   }
 907:C:/Users/stapi/OneDrive/Desktop/GD32VW553/GD32VW55X_Wifi_BLE_SDK/GD32VW55x_RELEASE_V1.0.2/MSDK/lwip/lwip-2.1.2/src/core\udp.c **** 
 908:C:/Users/stapi/OneDrive/Desktop/GD32VW553/GD32VW55X_Wifi_BLE_SDK/GD32VW55x_RELEASE_V1.0.2/MSDK/lwip/lwip-2.1.2/src/core\udp.c ****   UDP_STATS_INC(udp.xmit);
 909:C:/Users/stapi/OneDrive/Desktop/GD32VW553/GD32VW55X_Wifi_BLE_SDK/GD32VW55x_RELEASE_V1.0.2/MSDK/lwip/lwip-2.1.2/src/core\udp.c ****   return err;
 910:C:/Users/stapi/OneDrive/Desktop/GD32VW553/GD32VW55X_Wifi_BLE_SDK/GD32VW55x_RELEASE_V1.0.2/MSDK/lwip/lwip-2.1.2/src/core\udp.c **** }
 911:C:/Users/stapi/OneDrive/Desktop/GD32VW553/GD32VW55X_Wifi_BLE_SDK/GD32VW55x_RELEASE_V1.0.2/MSDK/lwip/lwip-2.1.2/src/core\udp.c **** 
 912:C:/Users/stapi/OneDrive/Desktop/GD32VW553/GD32VW55X_Wifi_BLE_SDK/GD32VW55x_RELEASE_V1.0.2/MSDK/lwip/lwip-2.1.2/src/core\udp.c **** /**
 913:C:/Users/stapi/OneDrive/Desktop/GD32VW553/GD32VW55X_Wifi_BLE_SDK/GD32VW55x_RELEASE_V1.0.2/MSDK/lwip/lwip-2.1.2/src/core\udp.c ****  * @ingroup udp_raw
 914:C:/Users/stapi/OneDrive/Desktop/GD32VW553/GD32VW55X_Wifi_BLE_SDK/GD32VW55x_RELEASE_V1.0.2/MSDK/lwip/lwip-2.1.2/src/core\udp.c ****  * Bind an UDP PCB.
 915:C:/Users/stapi/OneDrive/Desktop/GD32VW553/GD32VW55X_Wifi_BLE_SDK/GD32VW55x_RELEASE_V1.0.2/MSDK/lwip/lwip-2.1.2/src/core\udp.c ****  *
 916:C:/Users/stapi/OneDrive/Desktop/GD32VW553/GD32VW55X_Wifi_BLE_SDK/GD32VW55x_RELEASE_V1.0.2/MSDK/lwip/lwip-2.1.2/src/core\udp.c ****  * @param pcb UDP PCB to be bound with a local address ipaddr and port.
 917:C:/Users/stapi/OneDrive/Desktop/GD32VW553/GD32VW55X_Wifi_BLE_SDK/GD32VW55x_RELEASE_V1.0.2/MSDK/lwip/lwip-2.1.2/src/core\udp.c ****  * @param ipaddr local IP address to bind with. Use IP_ANY_TYPE to
 918:C:/Users/stapi/OneDrive/Desktop/GD32VW553/GD32VW55X_Wifi_BLE_SDK/GD32VW55x_RELEASE_V1.0.2/MSDK/lwip/lwip-2.1.2/src/core\udp.c ****  * bind to all local interfaces.
 919:C:/Users/stapi/OneDrive/Desktop/GD32VW553/GD32VW55X_Wifi_BLE_SDK/GD32VW55x_RELEASE_V1.0.2/MSDK/lwip/lwip-2.1.2/src/core\udp.c ****  * @param port local UDP port to bind with. Use 0 to automatically bind
 920:C:/Users/stapi/OneDrive/Desktop/GD32VW553/GD32VW55X_Wifi_BLE_SDK/GD32VW55x_RELEASE_V1.0.2/MSDK/lwip/lwip-2.1.2/src/core\udp.c ****  * to a random port between UDP_LOCAL_PORT_RANGE_START and
 921:C:/Users/stapi/OneDrive/Desktop/GD32VW553/GD32VW55X_Wifi_BLE_SDK/GD32VW55x_RELEASE_V1.0.2/MSDK/lwip/lwip-2.1.2/src/core\udp.c ****  * UDP_LOCAL_PORT_RANGE_END.
 922:C:/Users/stapi/OneDrive/Desktop/GD32VW553/GD32VW55X_Wifi_BLE_SDK/GD32VW55x_RELEASE_V1.0.2/MSDK/lwip/lwip-2.1.2/src/core\udp.c ****  *
 923:C:/Users/stapi/OneDrive/Desktop/GD32VW553/GD32VW55X_Wifi_BLE_SDK/GD32VW55x_RELEASE_V1.0.2/MSDK/lwip/lwip-2.1.2/src/core\udp.c ****  * ipaddr & port are expected to be in the same byte order as in the pcb.
 924:C:/Users/stapi/OneDrive/Desktop/GD32VW553/GD32VW55X_Wifi_BLE_SDK/GD32VW55x_RELEASE_V1.0.2/MSDK/lwip/lwip-2.1.2/src/core\udp.c ****  *
 925:C:/Users/stapi/OneDrive/Desktop/GD32VW553/GD32VW55X_Wifi_BLE_SDK/GD32VW55x_RELEASE_V1.0.2/MSDK/lwip/lwip-2.1.2/src/core\udp.c ****  * @return lwIP error code.
 926:C:/Users/stapi/OneDrive/Desktop/GD32VW553/GD32VW55X_Wifi_BLE_SDK/GD32VW55x_RELEASE_V1.0.2/MSDK/lwip/lwip-2.1.2/src/core\udp.c ****  * - ERR_OK. Successful. No error occurred.
 927:C:/Users/stapi/OneDrive/Desktop/GD32VW553/GD32VW55X_Wifi_BLE_SDK/GD32VW55x_RELEASE_V1.0.2/MSDK/lwip/lwip-2.1.2/src/core\udp.c ****  * - ERR_USE. The specified ipaddr and port are already bound to by
 928:C:/Users/stapi/OneDrive/Desktop/GD32VW553/GD32VW55X_Wifi_BLE_SDK/GD32VW55x_RELEASE_V1.0.2/MSDK/lwip/lwip-2.1.2/src/core\udp.c ****  * another UDP PCB.
 929:C:/Users/stapi/OneDrive/Desktop/GD32VW553/GD32VW55X_Wifi_BLE_SDK/GD32VW55x_RELEASE_V1.0.2/MSDK/lwip/lwip-2.1.2/src/core\udp.c ****  *
 930:C:/Users/stapi/OneDrive/Desktop/GD32VW553/GD32VW55X_Wifi_BLE_SDK/GD32VW55x_RELEASE_V1.0.2/MSDK/lwip/lwip-2.1.2/src/core\udp.c ****  * @see udp_disconnect()
 931:C:/Users/stapi/OneDrive/Desktop/GD32VW553/GD32VW55X_Wifi_BLE_SDK/GD32VW55x_RELEASE_V1.0.2/MSDK/lwip/lwip-2.1.2/src/core\udp.c ****  */
 932:C:/Users/stapi/OneDrive/Desktop/GD32VW553/GD32VW55X_Wifi_BLE_SDK/GD32VW55x_RELEASE_V1.0.2/MSDK/lwip/lwip-2.1.2/src/core\udp.c **** err_t
 933:C:/Users/stapi/OneDrive/Desktop/GD32VW553/GD32VW55X_Wifi_BLE_SDK/GD32VW55x_RELEASE_V1.0.2/MSDK/lwip/lwip-2.1.2/src/core\udp.c **** udp_bind(struct udp_pcb *pcb, const ip_addr_t *ipaddr, u16_t port)
 934:C:/Users/stapi/OneDrive/Desktop/GD32VW553/GD32VW55X_Wifi_BLE_SDK/GD32VW55x_RELEASE_V1.0.2/MSDK/lwip/lwip-2.1.2/src/core\udp.c **** {
 516              		.loc 1 934 1
 517              		.cfi_startproc
 518              	.LVL43:
 935:C:/Users/stapi/OneDrive/Desktop/GD32VW553/GD32VW55X_Wifi_BLE_SDK/GD32VW55x_RELEASE_V1.0.2/MSDK/lwip/lwip-2.1.2/src/core\udp.c ****   struct udp_pcb *ipcb;
 519              		.loc 1 935 3
 936:C:/Users/stapi/OneDrive/Desktop/GD32VW553/GD32VW55X_Wifi_BLE_SDK/GD32VW55x_RELEASE_V1.0.2/MSDK/lwip/lwip-2.1.2/src/core\udp.c ****   u8_t rebind;
 520              		.loc 1 936 3
 937:C:/Users/stapi/OneDrive/Desktop/GD32VW553/GD32VW55X_Wifi_BLE_SDK/GD32VW55x_RELEASE_V1.0.2/MSDK/lwip/lwip-2.1.2/src/core\udp.c **** #if LWIP_IPV6 && LWIP_IPV6_SCOPES
 938:C:/Users/stapi/OneDrive/Desktop/GD32VW553/GD32VW55X_Wifi_BLE_SDK/GD32VW55x_RELEASE_V1.0.2/MSDK/lwip/lwip-2.1.2/src/core\udp.c ****   ip_addr_t zoned_ipaddr;
 939:C:/Users/stapi/OneDrive/Desktop/GD32VW553/GD32VW55X_Wifi_BLE_SDK/GD32VW55x_RELEASE_V1.0.2/MSDK/lwip/lwip-2.1.2/src/core\udp.c **** #endif /* LWIP_IPV6 && LWIP_IPV6_SCOPES */
 940:C:/Users/stapi/OneDrive/Desktop/GD32VW553/GD32VW55X_Wifi_BLE_SDK/GD32VW55x_RELEASE_V1.0.2/MSDK/lwip/lwip-2.1.2/src/core\udp.c **** 
 941:C:/Users/stapi/OneDrive/Desktop/GD32VW553/GD32VW55X_Wifi_BLE_SDK/GD32VW55x_RELEASE_V1.0.2/MSDK/lwip/lwip-2.1.2/src/core\udp.c ****   LWIP_ASSERT_CORE_LOCKED();
 521              		.loc 1 941 28
 942:C:/Users/stapi/OneDrive/Desktop/GD32VW553/GD32VW55X_Wifi_BLE_SDK/GD32VW55x_RELEASE_V1.0.2/MSDK/lwip/lwip-2.1.2/src/core\udp.c **** 
 943:C:/Users/stapi/OneDrive/Desktop/GD32VW553/GD32VW55X_Wifi_BLE_SDK/GD32VW55x_RELEASE_V1.0.2/MSDK/lwip/lwip-2.1.2/src/core\udp.c **** #if LWIP_IPV4
 944:C:/Users/stapi/OneDrive/Desktop/GD32VW553/GD32VW55X_Wifi_BLE_SDK/GD32VW55x_RELEASE_V1.0.2/MSDK/lwip/lwip-2.1.2/src/core\udp.c ****   /* Don't propagate NULL pointer (IPv4 ANY) to subsequent functions */
 945:C:/Users/stapi/OneDrive/Desktop/GD32VW553/GD32VW55X_Wifi_BLE_SDK/GD32VW55x_RELEASE_V1.0.2/MSDK/lwip/lwip-2.1.2/src/core\udp.c ****   if (ipaddr == NULL) {
 522              		.loc 1 945 3
 523              		.loc 1 945 6 is_stmt 0
 524 0000 89E5     		bne	a1,zero,.L60
 946:C:/Users/stapi/OneDrive/Desktop/GD32VW553/GD32VW55X_Wifi_BLE_SDK/GD32VW55x_RELEASE_V1.0.2/MSDK/lwip/lwip-2.1.2/src/core\udp.c ****     ipaddr = IP4_ADDR_ANY;
 525              		.loc 1 946 12
 526 0002 B7050000 		lui	a1,%hi(ip_addr_any)
 527              	.LVL44:
 528 0006 93850500 		addi	a1,a1,%lo(ip_addr_any)
 529              	.L60:
 530              	.LVL45:
 947:C:/Users/stapi/OneDrive/Desktop/GD32VW553/GD32VW55X_Wifi_BLE_SDK/GD32VW55x_RELEASE_V1.0.2/MSDK/lwip/lwip-2.1.2/src/core\udp.c ****   }
 948:C:/Users/stapi/OneDrive/Desktop/GD32VW553/GD32VW55X_Wifi_BLE_SDK/GD32VW55x_RELEASE_V1.0.2/MSDK/lwip/lwip-2.1.2/src/core\udp.c **** #else /* LWIP_IPV4 */
 949:C:/Users/stapi/OneDrive/Desktop/GD32VW553/GD32VW55X_Wifi_BLE_SDK/GD32VW55x_RELEASE_V1.0.2/MSDK/lwip/lwip-2.1.2/src/core\udp.c ****   LWIP_ERROR("udp_bind: invalid ipaddr", ipaddr != NULL, return ERR_ARG);
 950:C:/Users/stapi/OneDrive/Desktop/GD32VW553/GD32VW55X_Wifi_BLE_SDK/GD32VW55x_RELEASE_V1.0.2/MSDK/lwip/lwip-2.1.2/src/core\udp.c **** #endif /* LWIP_IPV4 */
 951:C:/Users/stapi/OneDrive/Desktop/GD32VW553/GD32VW55X_Wifi_BLE_SDK/GD32VW55x_RELEASE_V1.0.2/MSDK/lwip/lwip-2.1.2/src/core\udp.c **** 
 952:C:/Users/stapi/OneDrive/Desktop/GD32VW553/GD32VW55X_Wifi_BLE_SDK/GD32VW55x_RELEASE_V1.0.2/MSDK/lwip/lwip-2.1.2/src/core\udp.c ****   LWIP_ERROR("udp_bind: invalid pcb", pcb != NULL, return ERR_ARG);
 531              		.loc 1 952 3 is_stmt 1
 532              		.loc 1 952 3
 533 000a 05E9     		bne	a0,zero,.L61
 934:C:/Users/stapi/OneDrive/Desktop/GD32VW553/GD32VW55X_Wifi_BLE_SDK/GD32VW55x_RELEASE_V1.0.2/MSDK/lwip/lwip-2.1.2/src/core\udp.c ****   struct udp_pcb *ipcb;
 534              		.loc 1 934 1 is_stmt 0 discriminator 1
 535 000c 17030000 		call	t0,__riscv_save_0
 535      E7020300 
 536              		.cfi_offset 1, -4
 537              		.cfi_def_cfa_offset 16
 538              		.loc 1 952 3 is_stmt 1 discriminator 1
 539              		.loc 1 952 3 discriminator 1
 540 0014 B7060000 		lui	a3,%hi(.LC0)
 541 0018 B7050000 		lui	a1,%hi(.LC5)
 542              	.LVL46:
 543 001c 37050000 		lui	a0,%hi(.LC2)
 544              	.LVL47:
 545 0020 93860600 		addi	a3,a3,%lo(.LC0)
 546 0024 1306803B 		li	a2,952
 547              	.LVL48:
 548 0028 93850500 		addi	a1,a1,%lo(.LC5)
 549 002c 13050500 		addi	a0,a0,%lo(.LC2)
 550 0030 97000000 		call	printf
 550      E7800000 
 551              	.LVL49:
 552              	.L62:
 553              		.loc 1 952 3 discriminator 1
 554              		.loc 1 952 3 discriminator 1
 555              		.loc 1 952 3 discriminator 1
 556 0038 01A0     		j	.L62
 557              	.LVL50:
 558              	.L61:
 559              		.cfi_def_cfa_offset 0
 560              		.cfi_restore 1
 561              		.loc 1 952 3 discriminator 2
 953:C:/Users/stapi/OneDrive/Desktop/GD32VW553/GD32VW55X_Wifi_BLE_SDK/GD32VW55x_RELEASE_V1.0.2/MSDK/lwip/lwip-2.1.2/src/core\udp.c **** 
 954:C:/Users/stapi/OneDrive/Desktop/GD32VW553/GD32VW55X_Wifi_BLE_SDK/GD32VW55x_RELEASE_V1.0.2/MSDK/lwip/lwip-2.1.2/src/core\udp.c ****   LWIP_DEBUGF(UDP_DEBUG | LWIP_DBG_TRACE, ("udp_bind(ipaddr = "));
 562              		.loc 1 954 66 discriminator 2
 955:C:/Users/stapi/OneDrive/Desktop/GD32VW553/GD32VW55X_Wifi_BLE_SDK/GD32VW55x_RELEASE_V1.0.2/MSDK/lwip/lwip-2.1.2/src/core\udp.c ****   ip_addr_debug_print(UDP_DEBUG | LWIP_DBG_TRACE, ipaddr);
 563              		.loc 1 955 58 discriminator 2
 956:C:/Users/stapi/OneDrive/Desktop/GD32VW553/GD32VW55X_Wifi_BLE_SDK/GD32VW55x_RELEASE_V1.0.2/MSDK/lwip/lwip-2.1.2/src/core\udp.c ****   LWIP_DEBUGF(UDP_DEBUG | LWIP_DBG_TRACE, (", port = %"U16_F")\n", port));
 564              		.loc 1 956 74 discriminator 2
 957:C:/Users/stapi/OneDrive/Desktop/GD32VW553/GD32VW55X_Wifi_BLE_SDK/GD32VW55x_RELEASE_V1.0.2/MSDK/lwip/lwip-2.1.2/src/core\udp.c **** 
 958:C:/Users/stapi/OneDrive/Desktop/GD32VW553/GD32VW55X_Wifi_BLE_SDK/GD32VW55x_RELEASE_V1.0.2/MSDK/lwip/lwip-2.1.2/src/core\udp.c ****   rebind = 0;
 565              		.loc 1 958 3 discriminator 2
 959:C:/Users/stapi/OneDrive/Desktop/GD32VW553/GD32VW55X_Wifi_BLE_SDK/GD32VW55x_RELEASE_V1.0.2/MSDK/lwip/lwip-2.1.2/src/core\udp.c ****   /* Check for double bind and rebind of the same pcb */
 960:C:/Users/stapi/OneDrive/Desktop/GD32VW553/GD32VW55X_Wifi_BLE_SDK/GD32VW55x_RELEASE_V1.0.2/MSDK/lwip/lwip-2.1.2/src/core\udp.c ****   for (ipcb = udp_pcbs; ipcb != NULL; ipcb = ipcb->next) {
 566              		.loc 1 960 3 discriminator 2
 567              		.loc 1 960 13 is_stmt 0 discriminator 2
 568 003a B7070000 		lui	a5,%hi(.LANCHOR1)
 569 003e 83A60700 		lw	a3,%lo(.LANCHOR1)(a5)
 570              	.LVL51:
 571 0042 13880700 		addi	a6,a5,%lo(.LANCHOR1)
 572 0046 3687     		mv	a4,a3
 573              	.LVL52:
 574              	.L63:
 575              		.loc 1 960 25 is_stmt 1 discriminator 1
 576              		.loc 1 960 3 is_stmt 0 discriminator 1
 577 0048 31E3     		bne	a4,zero,.L65
 958:C:/Users/stapi/OneDrive/Desktop/GD32VW553/GD32VW55X_Wifi_BLE_SDK/GD32VW55x_RELEASE_V1.0.2/MSDK/lwip/lwip-2.1.2/src/core\udp.c ****   /* Check for double bind and rebind of the same pcb */
 578              		.loc 1 958 10
 579 004a 014E     		li	t3,0
 580              	.L64:
 581              	.LVL53:
 961:C:/Users/stapi/OneDrive/Desktop/GD32VW553/GD32VW55X_Wifi_BLE_SDK/GD32VW55x_RELEASE_V1.0.2/MSDK/lwip/lwip-2.1.2/src/core\udp.c ****     /* is this UDP PCB already on active list? */
 962:C:/Users/stapi/OneDrive/Desktop/GD32VW553/GD32VW55X_Wifi_BLE_SDK/GD32VW55x_RELEASE_V1.0.2/MSDK/lwip/lwip-2.1.2/src/core\udp.c ****     if (pcb == ipcb) {
 963:C:/Users/stapi/OneDrive/Desktop/GD32VW553/GD32VW55X_Wifi_BLE_SDK/GD32VW55x_RELEASE_V1.0.2/MSDK/lwip/lwip-2.1.2/src/core\udp.c ****       rebind = 1;
 964:C:/Users/stapi/OneDrive/Desktop/GD32VW553/GD32VW55X_Wifi_BLE_SDK/GD32VW55x_RELEASE_V1.0.2/MSDK/lwip/lwip-2.1.2/src/core\udp.c ****       break;
 965:C:/Users/stapi/OneDrive/Desktop/GD32VW553/GD32VW55X_Wifi_BLE_SDK/GD32VW55x_RELEASE_V1.0.2/MSDK/lwip/lwip-2.1.2/src/core\udp.c ****     }
 966:C:/Users/stapi/OneDrive/Desktop/GD32VW553/GD32VW55X_Wifi_BLE_SDK/GD32VW55x_RELEASE_V1.0.2/MSDK/lwip/lwip-2.1.2/src/core\udp.c ****   }
 967:C:/Users/stapi/OneDrive/Desktop/GD32VW553/GD32VW55X_Wifi_BLE_SDK/GD32VW55x_RELEASE_V1.0.2/MSDK/lwip/lwip-2.1.2/src/core\udp.c **** 
 968:C:/Users/stapi/OneDrive/Desktop/GD32VW553/GD32VW55X_Wifi_BLE_SDK/GD32VW55x_RELEASE_V1.0.2/MSDK/lwip/lwip-2.1.2/src/core\udp.c **** #if LWIP_IPV6 && LWIP_IPV6_SCOPES
 969:C:/Users/stapi/OneDrive/Desktop/GD32VW553/GD32VW55X_Wifi_BLE_SDK/GD32VW55x_RELEASE_V1.0.2/MSDK/lwip/lwip-2.1.2/src/core\udp.c ****   /* If the given IP address should have a zone but doesn't, assign one now.
 970:C:/Users/stapi/OneDrive/Desktop/GD32VW553/GD32VW55X_Wifi_BLE_SDK/GD32VW55x_RELEASE_V1.0.2/MSDK/lwip/lwip-2.1.2/src/core\udp.c ****    * This is legacy support: scope-aware callers should always provide properly
 971:C:/Users/stapi/OneDrive/Desktop/GD32VW553/GD32VW55X_Wifi_BLE_SDK/GD32VW55x_RELEASE_V1.0.2/MSDK/lwip/lwip-2.1.2/src/core\udp.c ****    * zoned source addresses. Do the zone selection before the address-in-use
 972:C:/Users/stapi/OneDrive/Desktop/GD32VW553/GD32VW55X_Wifi_BLE_SDK/GD32VW55x_RELEASE_V1.0.2/MSDK/lwip/lwip-2.1.2/src/core\udp.c ****    * check below; as such we have to make a temporary copy of the address. */
 973:C:/Users/stapi/OneDrive/Desktop/GD32VW553/GD32VW55X_Wifi_BLE_SDK/GD32VW55x_RELEASE_V1.0.2/MSDK/lwip/lwip-2.1.2/src/core\udp.c ****   if (IP_IS_V6(ipaddr) && ip6_addr_lacks_zone(ip_2_ip6(ipaddr), IP6_UNKNOWN)) {
 974:C:/Users/stapi/OneDrive/Desktop/GD32VW553/GD32VW55X_Wifi_BLE_SDK/GD32VW55x_RELEASE_V1.0.2/MSDK/lwip/lwip-2.1.2/src/core\udp.c ****     ip_addr_copy(zoned_ipaddr, *ipaddr);
 975:C:/Users/stapi/OneDrive/Desktop/GD32VW553/GD32VW55X_Wifi_BLE_SDK/GD32VW55x_RELEASE_V1.0.2/MSDK/lwip/lwip-2.1.2/src/core\udp.c ****     ip6_addr_select_zone(ip_2_ip6(&zoned_ipaddr), ip_2_ip6(&zoned_ipaddr));
 976:C:/Users/stapi/OneDrive/Desktop/GD32VW553/GD32VW55X_Wifi_BLE_SDK/GD32VW55x_RELEASE_V1.0.2/MSDK/lwip/lwip-2.1.2/src/core\udp.c ****     ipaddr = &zoned_ipaddr;
 977:C:/Users/stapi/OneDrive/Desktop/GD32VW553/GD32VW55X_Wifi_BLE_SDK/GD32VW55x_RELEASE_V1.0.2/MSDK/lwip/lwip-2.1.2/src/core\udp.c ****   }
 978:C:/Users/stapi/OneDrive/Desktop/GD32VW553/GD32VW55X_Wifi_BLE_SDK/GD32VW55x_RELEASE_V1.0.2/MSDK/lwip/lwip-2.1.2/src/core\udp.c **** #endif /* LWIP_IPV6 && LWIP_IPV6_SCOPES */
 979:C:/Users/stapi/OneDrive/Desktop/GD32VW553/GD32VW55X_Wifi_BLE_SDK/GD32VW55x_RELEASE_V1.0.2/MSDK/lwip/lwip-2.1.2/src/core\udp.c **** 
 980:C:/Users/stapi/OneDrive/Desktop/GD32VW553/GD32VW55X_Wifi_BLE_SDK/GD32VW55x_RELEASE_V1.0.2/MSDK/lwip/lwip-2.1.2/src/core\udp.c ****   /* no port specified? */
 981:C:/Users/stapi/OneDrive/Desktop/GD32VW553/GD32VW55X_Wifi_BLE_SDK/GD32VW55x_RELEASE_V1.0.2/MSDK/lwip/lwip-2.1.2/src/core\udp.c ****   if (port == 0) {
 582              		.loc 1 981 3 is_stmt 1
 982:C:/Users/stapi/OneDrive/Desktop/GD32VW553/GD32VW55X_Wifi_BLE_SDK/GD32VW55x_RELEASE_V1.0.2/MSDK/lwip/lwip-2.1.2/src/core\udp.c ****     port = udp_new_port();
 983:C:/Users/stapi/OneDrive/Desktop/GD32VW553/GD32VW55X_Wifi_BLE_SDK/GD32VW55x_RELEASE_V1.0.2/MSDK/lwip/lwip-2.1.2/src/core\udp.c ****     if (port == 0) {
 984:C:/Users/stapi/OneDrive/Desktop/GD32VW553/GD32VW55X_Wifi_BLE_SDK/GD32VW55x_RELEASE_V1.0.2/MSDK/lwip/lwip-2.1.2/src/core\udp.c ****       /* no more ports available in local range */
 985:C:/Users/stapi/OneDrive/Desktop/GD32VW553/GD32VW55X_Wifi_BLE_SDK/GD32VW55x_RELEASE_V1.0.2/MSDK/lwip/lwip-2.1.2/src/core\udp.c ****       LWIP_DEBUGF(UDP_DEBUG, ("udp_bind: out of free UDP ports\n"));
 986:C:/Users/stapi/OneDrive/Desktop/GD32VW553/GD32VW55X_Wifi_BLE_SDK/GD32VW55x_RELEASE_V1.0.2/MSDK/lwip/lwip-2.1.2/src/core\udp.c ****       return ERR_USE;
 987:C:/Users/stapi/OneDrive/Desktop/GD32VW553/GD32VW55X_Wifi_BLE_SDK/GD32VW55x_RELEASE_V1.0.2/MSDK/lwip/lwip-2.1.2/src/core\udp.c ****     }
 988:C:/Users/stapi/OneDrive/Desktop/GD32VW553/GD32VW55X_Wifi_BLE_SDK/GD32VW55x_RELEASE_V1.0.2/MSDK/lwip/lwip-2.1.2/src/core\udp.c ****   } else {
 989:C:/Users/stapi/OneDrive/Desktop/GD32VW553/GD32VW55X_Wifi_BLE_SDK/GD32VW55x_RELEASE_V1.0.2/MSDK/lwip/lwip-2.1.2/src/core\udp.c ****     for (ipcb = udp_pcbs; ipcb != NULL; ipcb = ipcb->next) {
 583              		.loc 1 989 15 is_stmt 0
 584 004c B687     		mv	a5,a3
 981:C:/Users/stapi/OneDrive/Desktop/GD32VW553/GD32VW55X_Wifi_BLE_SDK/GD32VW55x_RELEASE_V1.0.2/MSDK/lwip/lwip-2.1.2/src/core\udp.c ****     port = udp_new_port();
 585              		.loc 1 981 6
 586 004e 49EE     		bne	a2,zero,.L66
 587 0050 B7070000 		lui	a5,%hi(.LANCHOR0)
 588              	.LBB13:
 589              	.LBB14:
 107:C:/Users/stapi/OneDrive/Desktop/GD32VW553/GD32VW55X_Wifi_BLE_SDK/GD32VW55x_RELEASE_V1.0.2/MSDK/lwip/lwip-2.1.2/src/core\udp.c ****     udp_port = UDP_LOCAL_PORT_RANGE_START;
 590              		.loc 1 107 6
 591 0054 4163     		li	t1,65536
 592 0056 03D60700 		lhu	a2,%lo(.LANCHOR0)(a5)
 593              	.LVL54:
 594              	.LBE14:
 595              	.LBE13:
 981:C:/Users/stapi/OneDrive/Desktop/GD32VW553/GD32VW55X_Wifi_BLE_SDK/GD32VW55x_RELEASE_V1.0.2/MSDK/lwip/lwip-2.1.2/src/core\udp.c ****     port = udp_new_port();
 596              		.loc 1 981 6
 597 005a 1167     		li	a4,16384
 598              	.LVL55:
 599 005c 93870700 		addi	a5,a5,%lo(.LANCHOR0)
 600              	.LBB18:
 601              	.LBB15:
 107:C:/Users/stapi/OneDrive/Desktop/GD32VW553/GD32VW55X_Wifi_BLE_SDK/GD32VW55x_RELEASE_V1.0.2/MSDK/lwip/lwip-2.1.2/src/core\udp.c ****     udp_port = UDP_LOCAL_PORT_RANGE_START;
 602              		.loc 1 107 6
 603 0060 7D13     		addi	t1,t1,-1
 604              	.L67:
 605              	.LVL56:
 104:C:/Users/stapi/OneDrive/Desktop/GD32VW553/GD32VW55X_Wifi_BLE_SDK/GD32VW55x_RELEASE_V1.0.2/MSDK/lwip/lwip-2.1.2/src/core\udp.c **** 
 606              		.loc 1 104 3 is_stmt 1
 107:C:/Users/stapi/OneDrive/Desktop/GD32VW553/GD32VW55X_Wifi_BLE_SDK/GD32VW55x_RELEASE_V1.0.2/MSDK/lwip/lwip-2.1.2/src/core\udp.c ****     udp_port = UDP_LOCAL_PORT_RANGE_START;
 607              		.loc 1 107 3
 107:C:/Users/stapi/OneDrive/Desktop/GD32VW553/GD32VW55X_Wifi_BLE_SDK/GD32VW55x_RELEASE_V1.0.2/MSDK/lwip/lwip-2.1.2/src/core\udp.c ****     udp_port = UDP_LOCAL_PORT_RANGE_START;
 608              		.loc 1 107 6 is_stmt 0
 609 0062 630B6602 		beq	a2,t1,.L80
 107:C:/Users/stapi/OneDrive/Desktop/GD32VW553/GD32VW55X_Wifi_BLE_SDK/GD32VW55x_RELEASE_V1.0.2/MSDK/lwip/lwip-2.1.2/src/core\udp.c ****     udp_port = UDP_LOCAL_PORT_RANGE_START;
 610              		.loc 1 107 15
 611 0066 0506     		addi	a2,a2,1
 612 0068 33460608 		zext.h	a2,a2
 613              	.L68:
 111:C:/Users/stapi/OneDrive/Desktop/GD32VW553/GD32VW55X_Wifi_BLE_SDK/GD32VW55x_RELEASE_V1.0.2/MSDK/lwip/lwip-2.1.2/src/core\udp.c ****     if (pcb->local_port == udp_port) {
 614              		.loc 1 111 3 is_stmt 1
 615              	.LVL57:
 111:C:/Users/stapi/OneDrive/Desktop/GD32VW553/GD32VW55X_Wifi_BLE_SDK/GD32VW55x_RELEASE_V1.0.2/MSDK/lwip/lwip-2.1.2/src/core\udp.c ****     if (pcb->local_port == udp_port) {
 616              		.loc 1 111 12 is_stmt 0
 617 006c B688     		mv	a7,a3
 618              	.LVL58:
 619              	.L69:
 111:C:/Users/stapi/OneDrive/Desktop/GD32VW553/GD32VW55X_Wifi_BLE_SDK/GD32VW55x_RELEASE_V1.0.2/MSDK/lwip/lwip-2.1.2/src/core\udp.c ****     if (pcb->local_port == udp_port) {
 620              		.loc 1 111 24 is_stmt 1
 111:C:/Users/stapi/OneDrive/Desktop/GD32VW553/GD32VW55X_Wifi_BLE_SDK/GD32VW55x_RELEASE_V1.0.2/MSDK/lwip/lwip-2.1.2/src/core\udp.c ****     if (pcb->local_port == udp_port) {
 621              		.loc 1 111 3 is_stmt 0
 622 006e 63970802 		bne	a7,zero,.L72
 623 0072 2390C700 		sh	a2,0(a5)
 119:C:/Users/stapi/OneDrive/Desktop/GD32VW553/GD32VW55X_Wifi_BLE_SDK/GD32VW55x_RELEASE_V1.0.2/MSDK/lwip/lwip-2.1.2/src/core\udp.c **** }
 624              		.loc 1 119 3 is_stmt 1
 625              	.LVL59:
 626              	.LBE15:
 627              	.LBE18:
 983:C:/Users/stapi/OneDrive/Desktop/GD32VW553/GD32VW55X_Wifi_BLE_SDK/GD32VW55x_RELEASE_V1.0.2/MSDK/lwip/lwip-2.1.2/src/core\udp.c ****       /* no more ports available in local range */
 628              		.loc 1 983 5
 629              	.L73:
 990:C:/Users/stapi/OneDrive/Desktop/GD32VW553/GD32VW55X_Wifi_BLE_SDK/GD32VW55x_RELEASE_V1.0.2/MSDK/lwip/lwip-2.1.2/src/core\udp.c ****       if (pcb != ipcb) {
 991:C:/Users/stapi/OneDrive/Desktop/GD32VW553/GD32VW55X_Wifi_BLE_SDK/GD32VW55x_RELEASE_V1.0.2/MSDK/lwip/lwip-2.1.2/src/core\udp.c ****         /* By default, we don't allow to bind to a port that any other udp
 992:C:/Users/stapi/OneDrive/Desktop/GD32VW553/GD32VW55X_Wifi_BLE_SDK/GD32VW55x_RELEASE_V1.0.2/MSDK/lwip/lwip-2.1.2/src/core\udp.c ****            PCB is already bound to, unless *all* PCBs with that port have tha
 993:C:/Users/stapi/OneDrive/Desktop/GD32VW553/GD32VW55X_Wifi_BLE_SDK/GD32VW55x_RELEASE_V1.0.2/MSDK/lwip/lwip-2.1.2/src/core\udp.c ****            REUSEADDR flag set. */
 994:C:/Users/stapi/OneDrive/Desktop/GD32VW553/GD32VW55X_Wifi_BLE_SDK/GD32VW55x_RELEASE_V1.0.2/MSDK/lwip/lwip-2.1.2/src/core\udp.c **** #if SO_REUSE
 995:C:/Users/stapi/OneDrive/Desktop/GD32VW553/GD32VW55X_Wifi_BLE_SDK/GD32VW55x_RELEASE_V1.0.2/MSDK/lwip/lwip-2.1.2/src/core\udp.c ****         if (!ip_get_option(pcb, SOF_REUSEADDR) ||
 996:C:/Users/stapi/OneDrive/Desktop/GD32VW553/GD32VW55X_Wifi_BLE_SDK/GD32VW55x_RELEASE_V1.0.2/MSDK/lwip/lwip-2.1.2/src/core\udp.c ****             !ip_get_option(ipcb, SOF_REUSEADDR))
 997:C:/Users/stapi/OneDrive/Desktop/GD32VW553/GD32VW55X_Wifi_BLE_SDK/GD32VW55x_RELEASE_V1.0.2/MSDK/lwip/lwip-2.1.2/src/core\udp.c **** #endif /* SO_REUSE */
 998:C:/Users/stapi/OneDrive/Desktop/GD32VW553/GD32VW55X_Wifi_BLE_SDK/GD32VW55x_RELEASE_V1.0.2/MSDK/lwip/lwip-2.1.2/src/core\udp.c ****         {
 999:C:/Users/stapi/OneDrive/Desktop/GD32VW553/GD32VW55X_Wifi_BLE_SDK/GD32VW55x_RELEASE_V1.0.2/MSDK/lwip/lwip-2.1.2/src/core\udp.c ****           /* port matches that of PCB in list and REUSEADDR not set -> reject */
1000:C:/Users/stapi/OneDrive/Desktop/GD32VW553/GD32VW55X_Wifi_BLE_SDK/GD32VW55x_RELEASE_V1.0.2/MSDK/lwip/lwip-2.1.2/src/core\udp.c ****           if ((ipcb->local_port == port) &&
1001:C:/Users/stapi/OneDrive/Desktop/GD32VW553/GD32VW55X_Wifi_BLE_SDK/GD32VW55x_RELEASE_V1.0.2/MSDK/lwip/lwip-2.1.2/src/core\udp.c ****               /* IP address matches or any IP used? */
1002:C:/Users/stapi/OneDrive/Desktop/GD32VW553/GD32VW55X_Wifi_BLE_SDK/GD32VW55x_RELEASE_V1.0.2/MSDK/lwip/lwip-2.1.2/src/core\udp.c ****               (ip_addr_cmp(&ipcb->local_ip, ipaddr) || ip_addr_isany(ipaddr) ||
1003:C:/Users/stapi/OneDrive/Desktop/GD32VW553/GD32VW55X_Wifi_BLE_SDK/GD32VW55x_RELEASE_V1.0.2/MSDK/lwip/lwip-2.1.2/src/core\udp.c ****               ip_addr_isany(&ipcb->local_ip))) {
1004:C:/Users/stapi/OneDrive/Desktop/GD32VW553/GD32VW55X_Wifi_BLE_SDK/GD32VW55x_RELEASE_V1.0.2/MSDK/lwip/lwip-2.1.2/src/core\udp.c ****             /* other PCB already binds to this local IP and port */
1005:C:/Users/stapi/OneDrive/Desktop/GD32VW553/GD32VW55X_Wifi_BLE_SDK/GD32VW55x_RELEASE_V1.0.2/MSDK/lwip/lwip-2.1.2/src/core\udp.c ****             LWIP_DEBUGF(UDP_DEBUG,
1006:C:/Users/stapi/OneDrive/Desktop/GD32VW553/GD32VW55X_Wifi_BLE_SDK/GD32VW55x_RELEASE_V1.0.2/MSDK/lwip/lwip-2.1.2/src/core\udp.c ****                         ("udp_bind: local port %"U16_F" already bound by another pcb\n", port));
1007:C:/Users/stapi/OneDrive/Desktop/GD32VW553/GD32VW55X_Wifi_BLE_SDK/GD32VW55x_RELEASE_V1.0.2/MSDK/lwip/lwip-2.1.2/src/core\udp.c ****             return ERR_USE;
1008:C:/Users/stapi/OneDrive/Desktop/GD32VW553/GD32VW55X_Wifi_BLE_SDK/GD32VW55x_RELEASE_V1.0.2/MSDK/lwip/lwip-2.1.2/src/core\udp.c ****           }
1009:C:/Users/stapi/OneDrive/Desktop/GD32VW553/GD32VW55X_Wifi_BLE_SDK/GD32VW55x_RELEASE_V1.0.2/MSDK/lwip/lwip-2.1.2/src/core\udp.c ****         }
1010:C:/Users/stapi/OneDrive/Desktop/GD32VW553/GD32VW55X_Wifi_BLE_SDK/GD32VW55x_RELEASE_V1.0.2/MSDK/lwip/lwip-2.1.2/src/core\udp.c ****       }
1011:C:/Users/stapi/OneDrive/Desktop/GD32VW553/GD32VW55X_Wifi_BLE_SDK/GD32VW55x_RELEASE_V1.0.2/MSDK/lwip/lwip-2.1.2/src/core\udp.c ****     }
1012:C:/Users/stapi/OneDrive/Desktop/GD32VW553/GD32VW55X_Wifi_BLE_SDK/GD32VW55x_RELEASE_V1.0.2/MSDK/lwip/lwip-2.1.2/src/core\udp.c ****   }
1013:C:/Users/stapi/OneDrive/Desktop/GD32VW553/GD32VW55X_Wifi_BLE_SDK/GD32VW55x_RELEASE_V1.0.2/MSDK/lwip/lwip-2.1.2/src/core\udp.c **** 
1014:C:/Users/stapi/OneDrive/Desktop/GD32VW553/GD32VW55X_Wifi_BLE_SDK/GD32VW55x_RELEASE_V1.0.2/MSDK/lwip/lwip-2.1.2/src/core\udp.c ****   ip_addr_set_ipaddr(&pcb->local_ip, ipaddr);
 630              		.loc 1 1014 3
 631 0076 9C41     		lw	a5,0(a1)
1015:C:/Users/stapi/OneDrive/Desktop/GD32VW553/GD32VW55X_Wifi_BLE_SDK/GD32VW55x_RELEASE_V1.0.2/MSDK/lwip/lwip-2.1.2/src/core\udp.c **** 
1016:C:/Users/stapi/OneDrive/Desktop/GD32VW553/GD32VW55X_Wifi_BLE_SDK/GD32VW55x_RELEASE_V1.0.2/MSDK/lwip/lwip-2.1.2/src/core\udp.c ****   pcb->local_port = port;
 632              		.loc 1 1016 19 is_stmt 0
 633 0078 2319C500 		sh	a2,18(a0)
1014:C:/Users/stapi/OneDrive/Desktop/GD32VW553/GD32VW55X_Wifi_BLE_SDK/GD32VW55x_RELEASE_V1.0.2/MSDK/lwip/lwip-2.1.2/src/core\udp.c **** 
 634              		.loc 1 1014 3
 635 007c 1CC1     		sw	a5,0(a0)
 636              		.loc 1 1016 3 is_stmt 1
1017:C:/Users/stapi/OneDrive/Desktop/GD32VW553/GD32VW55X_Wifi_BLE_SDK/GD32VW55x_RELEASE_V1.0.2/MSDK/lwip/lwip-2.1.2/src/core\udp.c ****   mib2_udp_bind(pcb);
 637              		.loc 1 1017 21
1018:C:/Users/stapi/OneDrive/Desktop/GD32VW553/GD32VW55X_Wifi_BLE_SDK/GD32VW55x_RELEASE_V1.0.2/MSDK/lwip/lwip-2.1.2/src/core\udp.c ****   /* pcb not active yet? */
1019:C:/Users/stapi/OneDrive/Desktop/GD32VW553/GD32VW55X_Wifi_BLE_SDK/GD32VW55x_RELEASE_V1.0.2/MSDK/lwip/lwip-2.1.2/src/core\udp.c ****   if (rebind == 0) {
 638              		.loc 1 1019 3
 639              		.loc 1 1019 6 is_stmt 0
 640 007e 63150E00 		bne	t3,zero,.L93
1020:C:/Users/stapi/OneDrive/Desktop/GD32VW553/GD32VW55X_Wifi_BLE_SDK/GD32VW55x_RELEASE_V1.0.2/MSDK/lwip/lwip-2.1.2/src/core\udp.c ****     /* place the PCB on the active list if not already there */
1021:C:/Users/stapi/OneDrive/Desktop/GD32VW553/GD32VW55X_Wifi_BLE_SDK/GD32VW55x_RELEASE_V1.0.2/MSDK/lwip/lwip-2.1.2/src/core\udp.c ****     pcb->next = udp_pcbs;
 641              		.loc 1 1021 5 is_stmt 1
 642              		.loc 1 1021 15 is_stmt 0
 643 0082 54C5     		sw	a3,12(a0)
1022:C:/Users/stapi/OneDrive/Desktop/GD32VW553/GD32VW55X_Wifi_BLE_SDK/GD32VW55x_RELEASE_V1.0.2/MSDK/lwip/lwip-2.1.2/src/core\udp.c ****     udp_pcbs = pcb;
 644              		.loc 1 1022 5 is_stmt 1
 645              		.loc 1 1022 14 is_stmt 0
 646 0084 2320A800 		sw	a0,0(a6)
 647              	.L93:
1023:C:/Users/stapi/OneDrive/Desktop/GD32VW553/GD32VW55X_Wifi_BLE_SDK/GD32VW55x_RELEASE_V1.0.2/MSDK/lwip/lwip-2.1.2/src/core\udp.c ****   }
1024:C:/Users/stapi/OneDrive/Desktop/GD32VW553/GD32VW55X_Wifi_BLE_SDK/GD32VW55x_RELEASE_V1.0.2/MSDK/lwip/lwip-2.1.2/src/core\udp.c ****   LWIP_DEBUGF(UDP_DEBUG | LWIP_DBG_TRACE | LWIP_DBG_STATE, ("udp_bind: bound to "));
1025:C:/Users/stapi/OneDrive/Desktop/GD32VW553/GD32VW55X_Wifi_BLE_SDK/GD32VW55x_RELEASE_V1.0.2/MSDK/lwip/lwip-2.1.2/src/core\udp.c ****   ip_addr_debug_print_val(UDP_DEBUG | LWIP_DBG_TRACE | LWIP_DBG_STATE, pcb->local_ip);
1026:C:/Users/stapi/OneDrive/Desktop/GD32VW553/GD32VW55X_Wifi_BLE_SDK/GD32VW55x_RELEASE_V1.0.2/MSDK/lwip/lwip-2.1.2/src/core\udp.c ****   LWIP_DEBUGF(UDP_DEBUG | LWIP_DBG_TRACE | LWIP_DBG_STATE, (", port %"U16_F")\n", pcb->local_port))
1027:C:/Users/stapi/OneDrive/Desktop/GD32VW553/GD32VW55X_Wifi_BLE_SDK/GD32VW55x_RELEASE_V1.0.2/MSDK/lwip/lwip-2.1.2/src/core\udp.c ****   return ERR_OK;
 648              		.loc 1 1027 10
 649 0088 0145     		li	a0,0
 650              	.LVL60:
1028:C:/Users/stapi/OneDrive/Desktop/GD32VW553/GD32VW55X_Wifi_BLE_SDK/GD32VW55x_RELEASE_V1.0.2/MSDK/lwip/lwip-2.1.2/src/core\udp.c **** }
 651              		.loc 1 1028 1
 652 008a 8280     		ret
 653              	.LVL61:
 654              	.L65:
 962:C:/Users/stapi/OneDrive/Desktop/GD32VW553/GD32VW55X_Wifi_BLE_SDK/GD32VW55x_RELEASE_V1.0.2/MSDK/lwip/lwip-2.1.2/src/core\udp.c ****       rebind = 1;
 655              		.loc 1 962 5 is_stmt 1
 962:C:/Users/stapi/OneDrive/Desktop/GD32VW553/GD32VW55X_Wifi_BLE_SDK/GD32VW55x_RELEASE_V1.0.2/MSDK/lwip/lwip-2.1.2/src/core\udp.c ****       rebind = 1;
 656              		.loc 1 962 8 is_stmt 0
 657 008c 6304A700 		beq	a4,a0,.L78
 960:C:/Users/stapi/OneDrive/Desktop/GD32VW553/GD32VW55X_Wifi_BLE_SDK/GD32VW55x_RELEASE_V1.0.2/MSDK/lwip/lwip-2.1.2/src/core\udp.c ****     /* is this UDP PCB already on active list? */
 658              		.loc 1 960 39 is_stmt 1 discriminator 2
 960:C:/Users/stapi/OneDrive/Desktop/GD32VW553/GD32VW55X_Wifi_BLE_SDK/GD32VW55x_RELEASE_V1.0.2/MSDK/lwip/lwip-2.1.2/src/core\udp.c ****     /* is this UDP PCB already on active list? */
 659              		.loc 1 960 44 is_stmt 0 discriminator 2
 660 0090 5847     		lw	a4,12(a4)
 661              	.LVL62:
 662 0092 5DBF     		j	.L63
 663              	.L78:
 963:C:/Users/stapi/OneDrive/Desktop/GD32VW553/GD32VW55X_Wifi_BLE_SDK/GD32VW55x_RELEASE_V1.0.2/MSDK/lwip/lwip-2.1.2/src/core\udp.c ****       break;
 664              		.loc 1 963 14
 665 0094 054E     		li	t3,1
 666 0096 5DBF     		j	.L64
 667              	.LVL63:
 668              	.L80:
 669              	.LBB19:
 670              	.LBB16:
 108:C:/Users/stapi/OneDrive/Desktop/GD32VW553/GD32VW55X_Wifi_BLE_SDK/GD32VW55x_RELEASE_V1.0.2/MSDK/lwip/lwip-2.1.2/src/core\udp.c ****   }
 671              		.loc 1 108 14
 672 0098 3166     		li	a2,49152
 673 009a C9BF     		j	.L68
 674              	.LVL64:
 675              	.L72:
 112:C:/Users/stapi/OneDrive/Desktop/GD32VW553/GD32VW55X_Wifi_BLE_SDK/GD32VW55x_RELEASE_V1.0.2/MSDK/lwip/lwip-2.1.2/src/core\udp.c ****       if (++n > (UDP_LOCAL_PORT_RANGE_END - UDP_LOCAL_PORT_RANGE_START)) {
 676              		.loc 1 112 5 is_stmt 1
 112:C:/Users/stapi/OneDrive/Desktop/GD32VW553/GD32VW55X_Wifi_BLE_SDK/GD32VW55x_RELEASE_V1.0.2/MSDK/lwip/lwip-2.1.2/src/core\udp.c ****       if (++n > (UDP_LOCAL_PORT_RANGE_END - UDP_LOCAL_PORT_RANGE_START)) {
 677              		.loc 1 112 8 is_stmt 0
 678 009c 83DE2801 		lhu	t4,18(a7)
 679 00a0 639ACE00 		bne	t4,a2,.L70
 113:C:/Users/stapi/OneDrive/Desktop/GD32VW553/GD32VW55X_Wifi_BLE_SDK/GD32VW55x_RELEASE_V1.0.2/MSDK/lwip/lwip-2.1.2/src/core\udp.c ****         return 0;
 680              		.loc 1 113 7 is_stmt 1
 681              	.LVL65:
 113:C:/Users/stapi/OneDrive/Desktop/GD32VW553/GD32VW55X_Wifi_BLE_SDK/GD32VW55x_RELEASE_V1.0.2/MSDK/lwip/lwip-2.1.2/src/core\udp.c ****         return 0;
 682              		.loc 1 113 10 is_stmt 0
 683 00a4 7D17     		addi	a4,a4,-1
 684              	.LVL66:
 685 00a6 33470708 		zext.h	a4,a4
 686 00aa 45FF     		bne	a4,zero,.L67
 687 00ac 2390C700 		sh	a2,0(a5)
 688              	.LVL67:
 689              	.L83:
 690              	.LBE16:
 691              	.LBE19:
 986:C:/Users/stapi/OneDrive/Desktop/GD32VW553/GD32VW55X_Wifi_BLE_SDK/GD32VW55x_RELEASE_V1.0.2/MSDK/lwip/lwip-2.1.2/src/core\udp.c ****     }
 692              		.loc 1 986 14
 693 00b0 6155     		li	a0,-8
 694              	.LVL68:
 695 00b2 8280     		ret
 696              	.LVL69:
 697              	.L70:
 698              	.LBB20:
 699              	.LBB17:
 111:C:/Users/stapi/OneDrive/Desktop/GD32VW553/GD32VW55X_Wifi_BLE_SDK/GD32VW55x_RELEASE_V1.0.2/MSDK/lwip/lwip-2.1.2/src/core\udp.c ****     if (pcb->local_port == udp_port) {
 700              		.loc 1 111 37 is_stmt 1
 111:C:/Users/stapi/OneDrive/Desktop/GD32VW553/GD32VW55X_Wifi_BLE_SDK/GD32VW55x_RELEASE_V1.0.2/MSDK/lwip/lwip-2.1.2/src/core\udp.c ****     if (pcb->local_port == udp_port) {
 701              		.loc 1 111 41 is_stmt 0
 702 00b4 83A8C800 		lw	a7,12(a7)
 703              	.LVL70:
 704 00b8 5DBF     		j	.L69
 705              	.LVL71:
 706              	.L76:
 707              	.LBE17:
 708              	.LBE20:
 990:C:/Users/stapi/OneDrive/Desktop/GD32VW553/GD32VW55X_Wifi_BLE_SDK/GD32VW55x_RELEASE_V1.0.2/MSDK/lwip/lwip-2.1.2/src/core\udp.c ****         /* By default, we don't allow to bind to a port that any other udp
 709              		.loc 1 990 7 is_stmt 1
 990:C:/Users/stapi/OneDrive/Desktop/GD32VW553/GD32VW55X_Wifi_BLE_SDK/GD32VW55x_RELEASE_V1.0.2/MSDK/lwip/lwip-2.1.2/src/core\udp.c ****         /* By default, we don't allow to bind to a port that any other udp
 710              		.loc 1 990 10 is_stmt 0
 711 00ba 6386A702 		beq	a5,a0,.L74
 995:C:/Users/stapi/OneDrive/Desktop/GD32VW553/GD32VW55X_Wifi_BLE_SDK/GD32VW55x_RELEASE_V1.0.2/MSDK/lwip/lwip-2.1.2/src/core\udp.c ****             !ip_get_option(ipcb, SOF_REUSEADDR))
 712              		.loc 1 995 9 is_stmt 1
 995:C:/Users/stapi/OneDrive/Desktop/GD32VW553/GD32VW55X_Wifi_BLE_SDK/GD32VW55x_RELEASE_V1.0.2/MSDK/lwip/lwip-2.1.2/src/core\udp.c ****             !ip_get_option(ipcb, SOF_REUSEADDR))
 713              		.loc 1 995 12 is_stmt 0
 714 00be 03479500 		lbu	a4,9(a0)
 715 00c2 118B     		andi	a4,a4,4
 716 00c4 09C7     		beq	a4,zero,.L75
 995:C:/Users/stapi/OneDrive/Desktop/GD32VW553/GD32VW55X_Wifi_BLE_SDK/GD32VW55x_RELEASE_V1.0.2/MSDK/lwip/lwip-2.1.2/src/core\udp.c ****             !ip_get_option(ipcb, SOF_REUSEADDR))
 717              		.loc 1 995 48 discriminator 1
 718 00c6 03C79700 		lbu	a4,9(a5)
 719 00ca 118B     		andi	a4,a4,4
 720 00cc 09EF     		bne	a4,zero,.L74
 721              	.L75:
1000:C:/Users/stapi/OneDrive/Desktop/GD32VW553/GD32VW55X_Wifi_BLE_SDK/GD32VW55x_RELEASE_V1.0.2/MSDK/lwip/lwip-2.1.2/src/core\udp.c ****               /* IP address matches or any IP used? */
 722              		.loc 1 1000 11 is_stmt 1
1000:C:/Users/stapi/OneDrive/Desktop/GD32VW553/GD32VW55X_Wifi_BLE_SDK/GD32VW55x_RELEASE_V1.0.2/MSDK/lwip/lwip-2.1.2/src/core\udp.c ****               /* IP address matches or any IP used? */
 723              		.loc 1 1000 14 is_stmt 0
 724 00ce 03D72701 		lhu	a4,18(a5)
 725 00d2 631AC700 		bne	a4,a2,.L74
1014:C:/Users/stapi/OneDrive/Desktop/GD32VW553/GD32VW55X_Wifi_BLE_SDK/GD32VW55x_RELEASE_V1.0.2/MSDK/lwip/lwip-2.1.2/src/core\udp.c **** 
 726              		.loc 1 1014 3 discriminator 1
 727 00d6 83A80500 		lw	a7,0(a1)
1002:C:/Users/stapi/OneDrive/Desktop/GD32VW553/GD32VW55X_Wifi_BLE_SDK/GD32VW55x_RELEASE_V1.0.2/MSDK/lwip/lwip-2.1.2/src/core\udp.c ****               ip_addr_isany(&ipcb->local_ip))) {
 728              		.loc 1 1002 16 discriminator 1
 729 00da 9843     		lw	a4,0(a5)
1000:C:/Users/stapi/OneDrive/Desktop/GD32VW553/GD32VW55X_Wifi_BLE_SDK/GD32VW55x_RELEASE_V1.0.2/MSDK/lwip/lwip-2.1.2/src/core\udp.c ****               /* IP address matches or any IP used? */
 730              		.loc 1 1000 42 discriminator 1
 731 00dc E30A17FD 		beq	a4,a7,.L83
1002:C:/Users/stapi/OneDrive/Desktop/GD32VW553/GD32VW55X_Wifi_BLE_SDK/GD32VW55x_RELEASE_V1.0.2/MSDK/lwip/lwip-2.1.2/src/core\udp.c ****               ip_addr_isany(&ipcb->local_ip))) {
 732              		.loc 1 1002 56 discriminator 1
 733 00e0 E38808FC 		beq	a7,zero,.L83
1003:C:/Users/stapi/OneDrive/Desktop/GD32VW553/GD32VW55X_Wifi_BLE_SDK/GD32VW55x_RELEASE_V1.0.2/MSDK/lwip/lwip-2.1.2/src/core\udp.c ****             /* other PCB already binds to this local IP and port */
 734              		.loc 1 1003 15 discriminator 2
 735 00e4 71D7     		beq	a4,zero,.L83
 736              	.L74:
 989:C:/Users/stapi/OneDrive/Desktop/GD32VW553/GD32VW55X_Wifi_BLE_SDK/GD32VW55x_RELEASE_V1.0.2/MSDK/lwip/lwip-2.1.2/src/core\udp.c ****       if (pcb != ipcb) {
 737              		.loc 1 989 41 is_stmt 1 discriminator 2
 989:C:/Users/stapi/OneDrive/Desktop/GD32VW553/GD32VW55X_Wifi_BLE_SDK/GD32VW55x_RELEASE_V1.0.2/MSDK/lwip/lwip-2.1.2/src/core\udp.c ****       if (pcb != ipcb) {
 738              		.loc 1 989 46 is_stmt 0 discriminator 2
 739 00e6 DC47     		lw	a5,12(a5)
 740              	.LVL72:
 741              	.L66:
 989:C:/Users/stapi/OneDrive/Desktop/GD32VW553/GD32VW55X_Wifi_BLE_SDK/GD32VW55x_RELEASE_V1.0.2/MSDK/lwip/lwip-2.1.2/src/core\udp.c ****       if (pcb != ipcb) {
 742              		.loc 1 989 27 is_stmt 1 discriminator 1
 989:C:/Users/stapi/OneDrive/Desktop/GD32VW553/GD32VW55X_Wifi_BLE_SDK/GD32VW55x_RELEASE_V1.0.2/MSDK/lwip/lwip-2.1.2/src/core\udp.c ****       if (pcb != ipcb) {
 743              		.loc 1 989 5 is_stmt 0 discriminator 1
 744 00e8 E9FB     		bne	a5,zero,.L76
 745 00ea 71B7     		j	.L73
 746              		.cfi_endproc
 747              	.LFE12:
 749              		.section	.rodata.udp_sendto_if_src.str1.4,"aMS",@progbits,1
 750              		.align	2
 751              	.LC6:
 752 0000 7564705F 		.string	"udp_sendto_if_src: invalid pcb"
 752      73656E64 
 752      746F5F69 
 752      665F7372 
 752      633A2069 
 753 001f 00       		.align	2
 754              	.LC7:
 755 0020 7564705F 		.string	"udp_sendto_if_src: invalid pbuf"
 755      73656E64 
 755      746F5F69 
 755      665F7372 
 755      633A2069 
 756              		.align	2
 757              	.LC8:
 758 0040 7564705F 		.string	"udp_sendto_if_src: invalid dst_ip"
 758      73656E64 
 758      746F5F69 
 758      665F7372 
 758      633A2069 
 759 0062 0000     		.align	2
 760              	.LC9:
 761 0064 7564705F 		.string	"udp_sendto_if_src: invalid src_ip"
 761      73656E64 
 761      746F5F69 
 761      665F7372 
 761      633A2069 
 762 0086 0000     		.align	2
 763              	.LC10:
 764 0088 7564705F 		.string	"udp_sendto_if_src: invalid netif"
 764      73656E64 
 764      746F5F69 
 764      665F7372 
 764      633A2069 
 765 00a9 000000   		.align	2
 766              	.LC11:
 767 00ac 63686563 		.string	"check that first pbuf can hold struct udp_hdr"
 767      6B207468 
 767      61742066 
 767      69727374 
 767      20706275 
 768              		.section	.text.udp_sendto_if_src,"ax",@progbits
 769              		.align	1
 770              		.globl	udp_sendto_if_src
 772              	udp_sendto_if_src:
 773              	.LFB11:
 702:C:/Users/stapi/OneDrive/Desktop/GD32VW553/GD32VW55X_Wifi_BLE_SDK/GD32VW55x_RELEASE_V1.0.2/MSDK/lwip/lwip-2.1.2/src/core\udp.c **** #if LWIP_CHECKSUM_ON_COPY && CHECKSUM_GEN_UDP
 774              		.loc 1 702 1 is_stmt 1
 775              		.cfi_startproc
 776              	.LVL73:
 777 0000 17030000 		call	t0,__riscv_save_8
 777      E7020300 
 778              		.cfi_offset 23, -36
 779              		.cfi_offset 22, -32
 780              		.cfi_offset 21, -28
 781              		.cfi_offset 20, -24
 782              		.cfi_offset 19, -20
 783              		.cfi_offset 18, -16
 784              		.cfi_offset 9, -12
 785              		.cfi_offset 8, -8
 786              		.cfi_offset 1, -4
 787              		.cfi_def_cfa_offset 48
 714:C:/Users/stapi/OneDrive/Desktop/GD32VW553/GD32VW55X_Wifi_BLE_SDK/GD32VW55x_RELEASE_V1.0.2/MSDK/lwip/lwip-2.1.2/src/core\udp.c ****   err_t err;
 788              		.loc 1 714 3
 715:C:/Users/stapi/OneDrive/Desktop/GD32VW553/GD32VW55X_Wifi_BLE_SDK/GD32VW55x_RELEASE_V1.0.2/MSDK/lwip/lwip-2.1.2/src/core\udp.c ****   struct pbuf *q; /* q will be sent down the stack */
 789              		.loc 1 715 3
 716:C:/Users/stapi/OneDrive/Desktop/GD32VW553/GD32VW55X_Wifi_BLE_SDK/GD32VW55x_RELEASE_V1.0.2/MSDK/lwip/lwip-2.1.2/src/core\udp.c ****   u8_t ip_proto;
 790              		.loc 1 716 3
 717:C:/Users/stapi/OneDrive/Desktop/GD32VW553/GD32VW55X_Wifi_BLE_SDK/GD32VW55x_RELEASE_V1.0.2/MSDK/lwip/lwip-2.1.2/src/core\udp.c ****   u8_t ttl;
 791              		.loc 1 717 3
 718:C:/Users/stapi/OneDrive/Desktop/GD32VW553/GD32VW55X_Wifi_BLE_SDK/GD32VW55x_RELEASE_V1.0.2/MSDK/lwip/lwip-2.1.2/src/core\udp.c **** 
 792              		.loc 1 718 3
 720:C:/Users/stapi/OneDrive/Desktop/GD32VW553/GD32VW55X_Wifi_BLE_SDK/GD32VW55x_RELEASE_V1.0.2/MSDK/lwip/lwip-2.1.2/src/core\udp.c **** 
 793              		.loc 1 720 28
 722:C:/Users/stapi/OneDrive/Desktop/GD32VW553/GD32VW55X_Wifi_BLE_SDK/GD32VW55x_RELEASE_V1.0.2/MSDK/lwip/lwip-2.1.2/src/core\udp.c ****   LWIP_ERROR("udp_sendto_if_src: invalid pbuf", p != NULL, return ERR_ARG);
 794              		.loc 1 722 3
 722:C:/Users/stapi/OneDrive/Desktop/GD32VW553/GD32VW55X_Wifi_BLE_SDK/GD32VW55x_RELEASE_V1.0.2/MSDK/lwip/lwip-2.1.2/src/core\udp.c ****   LWIP_ERROR("udp_sendto_if_src: invalid pbuf", p != NULL, return ERR_ARG);
 795              		.loc 1 722 3
 796 0008 05E5     		bne	a0,zero,.L95
 722:C:/Users/stapi/OneDrive/Desktop/GD32VW553/GD32VW55X_Wifi_BLE_SDK/GD32VW55x_RELEASE_V1.0.2/MSDK/lwip/lwip-2.1.2/src/core\udp.c ****   LWIP_ERROR("udp_sendto_if_src: invalid pbuf", p != NULL, return ERR_ARG);
 797              		.loc 1 722 3 discriminator 1
 722:C:/Users/stapi/OneDrive/Desktop/GD32VW553/GD32VW55X_Wifi_BLE_SDK/GD32VW55x_RELEASE_V1.0.2/MSDK/lwip/lwip-2.1.2/src/core\udp.c ****   LWIP_ERROR("udp_sendto_if_src: invalid pbuf", p != NULL, return ERR_ARG);
 798              		.loc 1 722 3 discriminator 1
 799 000a B7060000 		lui	a3,%hi(.LC0)
 800              	.LVL74:
 801 000e B7050000 		lui	a1,%hi(.LC6)
 802              	.LVL75:
 803 0012 37050000 		lui	a0,%hi(.LC2)
 804              	.LVL76:
 805 0016 93860600 		addi	a3,a3,%lo(.LC0)
 806 001a 1306202D 		li	a2,722
 807              	.LVL77:
 808 001e 93850500 		addi	a1,a1,%lo(.LC6)
 809 0022 13050500 		addi	a0,a0,%lo(.LC2)
 810 0026 97000000 		call	printf
 810      E7800000 
 811              	.LVL78:
 812              	.L96:
 722:C:/Users/stapi/OneDrive/Desktop/GD32VW553/GD32VW55X_Wifi_BLE_SDK/GD32VW55x_RELEASE_V1.0.2/MSDK/lwip/lwip-2.1.2/src/core\udp.c ****   LWIP_ERROR("udp_sendto_if_src: invalid pbuf", p != NULL, return ERR_ARG);
 813              		.loc 1 722 3 discriminator 1
 722:C:/Users/stapi/OneDrive/Desktop/GD32VW553/GD32VW55X_Wifi_BLE_SDK/GD32VW55x_RELEASE_V1.0.2/MSDK/lwip/lwip-2.1.2/src/core\udp.c ****   LWIP_ERROR("udp_sendto_if_src: invalid pbuf", p != NULL, return ERR_ARG);
 814              		.loc 1 722 3 discriminator 1
 722:C:/Users/stapi/OneDrive/Desktop/GD32VW553/GD32VW55X_Wifi_BLE_SDK/GD32VW55x_RELEASE_V1.0.2/MSDK/lwip/lwip-2.1.2/src/core\udp.c ****   LWIP_ERROR("udp_sendto_if_src: invalid pbuf", p != NULL, return ERR_ARG);
 815              		.loc 1 722 3 discriminator 1
 816 002e 01A0     		j	.L96
 817              	.LVL79:
 818              	.L95:
 819 0030 AE89     		mv	s3,a1
 722:C:/Users/stapi/OneDrive/Desktop/GD32VW553/GD32VW55X_Wifi_BLE_SDK/GD32VW55x_RELEASE_V1.0.2/MSDK/lwip/lwip-2.1.2/src/core\udp.c ****   LWIP_ERROR("udp_sendto_if_src: invalid pbuf", p != NULL, return ERR_ARG);
 820              		.loc 1 722 3 discriminator 2
 723:C:/Users/stapi/OneDrive/Desktop/GD32VW553/GD32VW55X_Wifi_BLE_SDK/GD32VW55x_RELEASE_V1.0.2/MSDK/lwip/lwip-2.1.2/src/core\udp.c ****   LWIP_ERROR("udp_sendto_if_src: invalid dst_ip", dst_ip != NULL, return ERR_ARG);
 821              		.loc 1 723 3 discriminator 2
 723:C:/Users/stapi/OneDrive/Desktop/GD32VW553/GD32VW55X_Wifi_BLE_SDK/GD32VW55x_RELEASE_V1.0.2/MSDK/lwip/lwip-2.1.2/src/core\udp.c ****   LWIP_ERROR("udp_sendto_if_src: invalid dst_ip", dst_ip != NULL, return ERR_ARG);
 822              		.loc 1 723 3 discriminator 2
 823 0032 85E5     		bne	a1,zero,.L97
 723:C:/Users/stapi/OneDrive/Desktop/GD32VW553/GD32VW55X_Wifi_BLE_SDK/GD32VW55x_RELEASE_V1.0.2/MSDK/lwip/lwip-2.1.2/src/core\udp.c ****   LWIP_ERROR("udp_sendto_if_src: invalid dst_ip", dst_ip != NULL, return ERR_ARG);
 824              		.loc 1 723 3 discriminator 1
 723:C:/Users/stapi/OneDrive/Desktop/GD32VW553/GD32VW55X_Wifi_BLE_SDK/GD32VW55x_RELEASE_V1.0.2/MSDK/lwip/lwip-2.1.2/src/core\udp.c ****   LWIP_ERROR("udp_sendto_if_src: invalid dst_ip", dst_ip != NULL, return ERR_ARG);
 825              		.loc 1 723 3 discriminator 1
 826 0034 B7060000 		lui	a3,%hi(.LC0)
 827              	.LVL80:
 828 0038 B7050000 		lui	a1,%hi(.LC7)
 829              	.LVL81:
 830 003c 37050000 		lui	a0,%hi(.LC2)
 831              	.LVL82:
 832 0040 93860600 		addi	a3,a3,%lo(.LC0)
 833 0044 1306302D 		li	a2,723
 834              	.LVL83:
 835 0048 93850500 		addi	a1,a1,%lo(.LC7)
 836 004c 13050500 		addi	a0,a0,%lo(.LC2)
 837 0050 97000000 		call	printf
 837      E7800000 
 838              	.LVL84:
 839              	.L98:
 723:C:/Users/stapi/OneDrive/Desktop/GD32VW553/GD32VW55X_Wifi_BLE_SDK/GD32VW55x_RELEASE_V1.0.2/MSDK/lwip/lwip-2.1.2/src/core\udp.c ****   LWIP_ERROR("udp_sendto_if_src: invalid dst_ip", dst_ip != NULL, return ERR_ARG);
 840              		.loc 1 723 3 discriminator 2
 723:C:/Users/stapi/OneDrive/Desktop/GD32VW553/GD32VW55X_Wifi_BLE_SDK/GD32VW55x_RELEASE_V1.0.2/MSDK/lwip/lwip-2.1.2/src/core\udp.c ****   LWIP_ERROR("udp_sendto_if_src: invalid dst_ip", dst_ip != NULL, return ERR_ARG);
 841              		.loc 1 723 3 discriminator 2
 723:C:/Users/stapi/OneDrive/Desktop/GD32VW553/GD32VW55X_Wifi_BLE_SDK/GD32VW55x_RELEASE_V1.0.2/MSDK/lwip/lwip-2.1.2/src/core\udp.c ****   LWIP_ERROR("udp_sendto_if_src: invalid dst_ip", dst_ip != NULL, return ERR_ARG);
 842              		.loc 1 723 3 discriminator 2
 843 0058 01A0     		j	.L98
 844              	.LVL85:
 845              	.L97:
 846 005a 328A     		mv	s4,a2
 847              	.LVL86:
 848              	.LBB24:
 849              	.LBB25:
 723:C:/Users/stapi/OneDrive/Desktop/GD32VW553/GD32VW55X_Wifi_BLE_SDK/GD32VW55x_RELEASE_V1.0.2/MSDK/lwip/lwip-2.1.2/src/core\udp.c ****   LWIP_ERROR("udp_sendto_if_src: invalid dst_ip", dst_ip != NULL, return ERR_ARG);
 850              		.loc 1 723 3
 724:C:/Users/stapi/OneDrive/Desktop/GD32VW553/GD32VW55X_Wifi_BLE_SDK/GD32VW55x_RELEASE_V1.0.2/MSDK/lwip/lwip-2.1.2/src/core\udp.c ****   LWIP_ERROR("udp_sendto_if_src: invalid src_ip", src_ip != NULL, return ERR_ARG);
 851              		.loc 1 724 3
 724:C:/Users/stapi/OneDrive/Desktop/GD32VW553/GD32VW55X_Wifi_BLE_SDK/GD32VW55x_RELEASE_V1.0.2/MSDK/lwip/lwip-2.1.2/src/core\udp.c ****   LWIP_ERROR("udp_sendto_if_src: invalid src_ip", src_ip != NULL, return ERR_ARG);
 852              		.loc 1 724 3
 853 005c 05E6     		bne	a2,zero,.L99
 854              	.LVL87:
 724:C:/Users/stapi/OneDrive/Desktop/GD32VW553/GD32VW55X_Wifi_BLE_SDK/GD32VW55x_RELEASE_V1.0.2/MSDK/lwip/lwip-2.1.2/src/core\udp.c ****   LWIP_ERROR("udp_sendto_if_src: invalid src_ip", src_ip != NULL, return ERR_ARG);
 855              		.loc 1 724 3
 724:C:/Users/stapi/OneDrive/Desktop/GD32VW553/GD32VW55X_Wifi_BLE_SDK/GD32VW55x_RELEASE_V1.0.2/MSDK/lwip/lwip-2.1.2/src/core\udp.c ****   LWIP_ERROR("udp_sendto_if_src: invalid src_ip", src_ip != NULL, return ERR_ARG);
 856              		.loc 1 724 3
 857 005e B7060000 		lui	a3,%hi(.LC0)
 858              	.LVL88:
 859 0062 B7050000 		lui	a1,%hi(.LC8)
 860              	.LVL89:
 861 0066 37050000 		lui	a0,%hi(.LC2)
 862              	.LVL90:
 863 006a 93860600 		addi	a3,a3,%lo(.LC0)
 864 006e 1306402D 		li	a2,724
 865              	.LVL91:
 866 0072 93850500 		addi	a1,a1,%lo(.LC8)
 867 0076 13050500 		addi	a0,a0,%lo(.LC2)
 868 007a 97000000 		call	printf
 868      E7800000 
 869              	.LVL92:
 870              	.L100:
 724:C:/Users/stapi/OneDrive/Desktop/GD32VW553/GD32VW55X_Wifi_BLE_SDK/GD32VW55x_RELEASE_V1.0.2/MSDK/lwip/lwip-2.1.2/src/core\udp.c ****   LWIP_ERROR("udp_sendto_if_src: invalid src_ip", src_ip != NULL, return ERR_ARG);
 871              		.loc 1 724 3
 724:C:/Users/stapi/OneDrive/Desktop/GD32VW553/GD32VW55X_Wifi_BLE_SDK/GD32VW55x_RELEASE_V1.0.2/MSDK/lwip/lwip-2.1.2/src/core\udp.c ****   LWIP_ERROR("udp_sendto_if_src: invalid src_ip", src_ip != NULL, return ERR_ARG);
 872              		.loc 1 724 3
 724:C:/Users/stapi/OneDrive/Desktop/GD32VW553/GD32VW55X_Wifi_BLE_SDK/GD32VW55x_RELEASE_V1.0.2/MSDK/lwip/lwip-2.1.2/src/core\udp.c ****   LWIP_ERROR("udp_sendto_if_src: invalid src_ip", src_ip != NULL, return ERR_ARG);
 873              		.loc 1 724 3
 874 0082 01A0     		j	.L100
 875              	.LVL93:
 876              	.L99:
 877 0084 BE8A     		mv	s5,a5
 724:C:/Users/stapi/OneDrive/Desktop/GD32VW553/GD32VW55X_Wifi_BLE_SDK/GD32VW55x_RELEASE_V1.0.2/MSDK/lwip/lwip-2.1.2/src/core\udp.c ****   LWIP_ERROR("udp_sendto_if_src: invalid src_ip", src_ip != NULL, return ERR_ARG);
 878              		.loc 1 724 3
 725:C:/Users/stapi/OneDrive/Desktop/GD32VW553/GD32VW55X_Wifi_BLE_SDK/GD32VW55x_RELEASE_V1.0.2/MSDK/lwip/lwip-2.1.2/src/core\udp.c ****   LWIP_ERROR("udp_sendto_if_src: invalid netif", netif != NULL, return ERR_ARG);
 879              		.loc 1 725 3
 725:C:/Users/stapi/OneDrive/Desktop/GD32VW553/GD32VW55X_Wifi_BLE_SDK/GD32VW55x_RELEASE_V1.0.2/MSDK/lwip/lwip-2.1.2/src/core\udp.c ****   LWIP_ERROR("udp_sendto_if_src: invalid netif", netif != NULL, return ERR_ARG);
 880              		.loc 1 725 3
 881 0086 85E7     		bne	a5,zero,.L101
 725:C:/Users/stapi/OneDrive/Desktop/GD32VW553/GD32VW55X_Wifi_BLE_SDK/GD32VW55x_RELEASE_V1.0.2/MSDK/lwip/lwip-2.1.2/src/core\udp.c ****   LWIP_ERROR("udp_sendto_if_src: invalid netif", netif != NULL, return ERR_ARG);
 882              		.loc 1 725 3
 725:C:/Users/stapi/OneDrive/Desktop/GD32VW553/GD32VW55X_Wifi_BLE_SDK/GD32VW55x_RELEASE_V1.0.2/MSDK/lwip/lwip-2.1.2/src/core\udp.c ****   LWIP_ERROR("udp_sendto_if_src: invalid netif", netif != NULL, return ERR_ARG);
 883              		.loc 1 725 3
 884 0088 B7060000 		lui	a3,%hi(.LC0)
 885              	.LVL94:
 886 008c B7050000 		lui	a1,%hi(.LC9)
 887              	.LVL95:
 888 0090 37050000 		lui	a0,%hi(.LC2)
 889              	.LVL96:
 890 0094 93860600 		addi	a3,a3,%lo(.LC0)
 891 0098 1306502D 		li	a2,725
 892              	.LVL97:
 893 009c 93850500 		addi	a1,a1,%lo(.LC9)
 894 00a0 13050500 		addi	a0,a0,%lo(.LC2)
 895 00a4 97000000 		call	printf
 895      E7800000 
 896              	.LVL98:
 897              	.L102:
 725:C:/Users/stapi/OneDrive/Desktop/GD32VW553/GD32VW55X_Wifi_BLE_SDK/GD32VW55x_RELEASE_V1.0.2/MSDK/lwip/lwip-2.1.2/src/core\udp.c ****   LWIP_ERROR("udp_sendto_if_src: invalid netif", netif != NULL, return ERR_ARG);
 898              		.loc 1 725 3
 725:C:/Users/stapi/OneDrive/Desktop/GD32VW553/GD32VW55X_Wifi_BLE_SDK/GD32VW55x_RELEASE_V1.0.2/MSDK/lwip/lwip-2.1.2/src/core\udp.c ****   LWIP_ERROR("udp_sendto_if_src: invalid netif", netif != NULL, return ERR_ARG);
 899              		.loc 1 725 3
 725:C:/Users/stapi/OneDrive/Desktop/GD32VW553/GD32VW55X_Wifi_BLE_SDK/GD32VW55x_RELEASE_V1.0.2/MSDK/lwip/lwip-2.1.2/src/core\udp.c ****   LWIP_ERROR("udp_sendto_if_src: invalid netif", netif != NULL, return ERR_ARG);
 900              		.loc 1 725 3
 901 00ac 01A0     		j	.L102
 902              	.LVL99:
 903              	.L101:
 904 00ae 3A8B     		mv	s6,a4
 725:C:/Users/stapi/OneDrive/Desktop/GD32VW553/GD32VW55X_Wifi_BLE_SDK/GD32VW55x_RELEASE_V1.0.2/MSDK/lwip/lwip-2.1.2/src/core\udp.c ****   LWIP_ERROR("udp_sendto_if_src: invalid netif", netif != NULL, return ERR_ARG);
 905              		.loc 1 725 3
 726:C:/Users/stapi/OneDrive/Desktop/GD32VW553/GD32VW55X_Wifi_BLE_SDK/GD32VW55x_RELEASE_V1.0.2/MSDK/lwip/lwip-2.1.2/src/core\udp.c **** 
 906              		.loc 1 726 3
 726:C:/Users/stapi/OneDrive/Desktop/GD32VW553/GD32VW55X_Wifi_BLE_SDK/GD32VW55x_RELEASE_V1.0.2/MSDK/lwip/lwip-2.1.2/src/core\udp.c **** 
 907              		.loc 1 726 3
 908 00b0 05E7     		bne	a4,zero,.L103
 726:C:/Users/stapi/OneDrive/Desktop/GD32VW553/GD32VW55X_Wifi_BLE_SDK/GD32VW55x_RELEASE_V1.0.2/MSDK/lwip/lwip-2.1.2/src/core\udp.c **** 
 909              		.loc 1 726 3
 726:C:/Users/stapi/OneDrive/Desktop/GD32VW553/GD32VW55X_Wifi_BLE_SDK/GD32VW55x_RELEASE_V1.0.2/MSDK/lwip/lwip-2.1.2/src/core\udp.c **** 
 910              		.loc 1 726 3
 911 00b2 B7060000 		lui	a3,%hi(.LC0)
 912              	.LVL100:
 913 00b6 B7050000 		lui	a1,%hi(.LC10)
 914              	.LVL101:
 915 00ba 37050000 		lui	a0,%hi(.LC2)
 916              	.LVL102:
 917 00be 93860600 		addi	a3,a3,%lo(.LC0)
 918 00c2 1306602D 		li	a2,726
 919              	.LVL103:
 920 00c6 93850500 		addi	a1,a1,%lo(.LC10)
 921 00ca 13050500 		addi	a0,a0,%lo(.LC2)
 922 00ce 97000000 		call	printf
 922      E7800000 
 923              	.LVL104:
 924              	.L104:
 726:C:/Users/stapi/OneDrive/Desktop/GD32VW553/GD32VW55X_Wifi_BLE_SDK/GD32VW55x_RELEASE_V1.0.2/MSDK/lwip/lwip-2.1.2/src/core\udp.c **** 
 925              		.loc 1 726 3
 726:C:/Users/stapi/OneDrive/Desktop/GD32VW553/GD32VW55X_Wifi_BLE_SDK/GD32VW55x_RELEASE_V1.0.2/MSDK/lwip/lwip-2.1.2/src/core\udp.c **** 
 926              		.loc 1 726 3
 726:C:/Users/stapi/OneDrive/Desktop/GD32VW553/GD32VW55X_Wifi_BLE_SDK/GD32VW55x_RELEASE_V1.0.2/MSDK/lwip/lwip-2.1.2/src/core\udp.c **** 
 927              		.loc 1 726 3
 928 00d6 01A0     		j	.L104
 929              	.LVL105:
 930              	.L103:
 747:C:/Users/stapi/OneDrive/Desktop/GD32VW553/GD32VW55X_Wifi_BLE_SDK/GD32VW55x_RELEASE_V1.0.2/MSDK/lwip/lwip-2.1.2/src/core\udp.c ****     LWIP_DEBUGF(UDP_DEBUG | LWIP_DBG_TRACE, ("udp_send: not yet bound to a port, binding now\n"));
 931              		.loc 1 747 6 is_stmt 0
 932 00d8 83572501 		lhu	a5,18(a0)
 933              	.LVL106:
 934 00dc AA84     		mv	s1,a0
 935 00de B68B     		mv	s7,a3
 726:C:/Users/stapi/OneDrive/Desktop/GD32VW553/GD32VW55X_Wifi_BLE_SDK/GD32VW55x_RELEASE_V1.0.2/MSDK/lwip/lwip-2.1.2/src/core\udp.c **** 
 936              		.loc 1 726 3 is_stmt 1
 728:C:/Users/stapi/OneDrive/Desktop/GD32VW553/GD32VW55X_Wifi_BLE_SDK/GD32VW55x_RELEASE_V1.0.2/MSDK/lwip/lwip-2.1.2/src/core\udp.c ****       !IP_ADDR_PCB_VERSION_MATCH(pcb, dst_ip)) {
 937              		.loc 1 728 3
 747:C:/Users/stapi/OneDrive/Desktop/GD32VW553/GD32VW55X_Wifi_BLE_SDK/GD32VW55x_RELEASE_V1.0.2/MSDK/lwip/lwip-2.1.2/src/core\udp.c ****     LWIP_DEBUGF(UDP_DEBUG | LWIP_DBG_TRACE, ("udp_send: not yet bound to a port, binding now\n"));
 938              		.loc 1 747 3
 747:C:/Users/stapi/OneDrive/Desktop/GD32VW553/GD32VW55X_Wifi_BLE_SDK/GD32VW55x_RELEASE_V1.0.2/MSDK/lwip/lwip-2.1.2/src/core\udp.c ****     LWIP_DEBUGF(UDP_DEBUG | LWIP_DBG_TRACE, ("udp_send: not yet bound to a port, binding now\n"));
 939              		.loc 1 747 6 is_stmt 0
 940 00e0 89CB     		beq	a5,zero,.L105
 941              	.LVL107:
 942              	.L109:
 757:C:/Users/stapi/OneDrive/Desktop/GD32VW553/GD32VW55X_Wifi_BLE_SDK/GD32VW55x_RELEASE_V1.0.2/MSDK/lwip/lwip-2.1.2/src/core\udp.c ****     return ERR_MEM;
 943              		.loc 1 757 3 is_stmt 1
 757:C:/Users/stapi/OneDrive/Desktop/GD32VW553/GD32VW55X_Wifi_BLE_SDK/GD32VW55x_RELEASE_V1.0.2/MSDK/lwip/lwip-2.1.2/src/core\udp.c ****     return ERR_MEM;
 944              		.loc 1 757 6 is_stmt 0
 945 00e2 03D78900 		lhu	a4,8(s3)
 946 00e6 C167     		li	a5,65536
 947 00e8 DD17     		addi	a5,a5,-9
 948 00ea 63F1E702 		bleu	a4,a5,.L129
 949              	.L106:
 758:C:/Users/stapi/OneDrive/Desktop/GD32VW553/GD32VW55X_Wifi_BLE_SDK/GD32VW55x_RELEASE_V1.0.2/MSDK/lwip/lwip-2.1.2/src/core\udp.c ****   }
 950              		.loc 1 758 12
 951 00ee 7D59     		li	s2,-1
 952 00f0 09A8     		j	.L108
 953              	.LVL108:
 954              	.L105:
 748:C:/Users/stapi/OneDrive/Desktop/GD32VW553/GD32VW55X_Wifi_BLE_SDK/GD32VW55x_RELEASE_V1.0.2/MSDK/lwip/lwip-2.1.2/src/core\udp.c ****     err = udp_bind(pcb, &pcb->local_ip, pcb->local_port);
 955              		.loc 1 748 98 is_stmt 1
 749:C:/Users/stapi/OneDrive/Desktop/GD32VW553/GD32VW55X_Wifi_BLE_SDK/GD32VW55x_RELEASE_V1.0.2/MSDK/lwip/lwip-2.1.2/src/core\udp.c ****     if (err != ERR_OK) {
 956              		.loc 1 749 5
 749:C:/Users/stapi/OneDrive/Desktop/GD32VW553/GD32VW55X_Wifi_BLE_SDK/GD32VW55x_RELEASE_V1.0.2/MSDK/lwip/lwip-2.1.2/src/core\udp.c ****     if (err != ERR_OK) {
 957              		.loc 1 749 11 is_stmt 0
 958 00f2 0146     		li	a2,0
 959              	.LVL109:
 960 00f4 AA85     		mv	a1,a0
 961              	.LVL110:
 962 00f6 97000000 		call	udp_bind
 962      E7800000 
 963              	.LVL111:
 964 00fe 2A89     		mv	s2,a0
 965              	.LVL112:
 750:C:/Users/stapi/OneDrive/Desktop/GD32VW553/GD32VW55X_Wifi_BLE_SDK/GD32VW55x_RELEASE_V1.0.2/MSDK/lwip/lwip-2.1.2/src/core\udp.c ****       LWIP_DEBUGF(UDP_DEBUG | LWIP_DBG_TRACE | LWIP_DBG_LEVEL_SERIOUS, ("udp_send: forced port bind
 966              		.loc 1 750 5 is_stmt 1
 750:C:/Users/stapi/OneDrive/Desktop/GD32VW553/GD32VW55X_Wifi_BLE_SDK/GD32VW55x_RELEASE_V1.0.2/MSDK/lwip/lwip-2.1.2/src/core\udp.c ****       LWIP_DEBUGF(UDP_DEBUG | LWIP_DBG_TRACE | LWIP_DBG_LEVEL_SERIOUS, ("udp_send: forced port bind
 967              		.loc 1 750 8 is_stmt 0
 968 0100 6DD1     		beq	a0,zero,.L109
 969              	.LVL113:
 970              	.L108:
 971              	.LBE25:
 972              	.LBE24:
 910:C:/Users/stapi/OneDrive/Desktop/GD32VW553/GD32VW55X_Wifi_BLE_SDK/GD32VW55x_RELEASE_V1.0.2/MSDK/lwip/lwip-2.1.2/src/core\udp.c **** 
 973              		.loc 1 910 1
 974 0102 4A85     		mv	a0,s2
 975 0104 17030000 		tail	__riscv_restore_8
 975      67000300 
 976              		.cfi_remember_state
 977              		.cfi_restore 23
 978              		.cfi_restore 22
 979              		.cfi_restore 21
 980              		.cfi_restore 20
 981              		.cfi_restore 19
 982              		.cfi_restore 18
 983              		.cfi_restore 9
 984              		.cfi_restore 8
 985              		.cfi_restore 1
 986              		.cfi_def_cfa_offset 0
 987              	.LVL114:
 988              	.L129:
 989              		.cfi_restore_state
 990              	.LBB28:
 991              	.LBB27:
 761:C:/Users/stapi/OneDrive/Desktop/GD32VW553/GD32VW55X_Wifi_BLE_SDK/GD32VW55x_RELEASE_V1.0.2/MSDK/lwip/lwip-2.1.2/src/core\udp.c ****     /* allocate header in a separate new pbuf */
 992              		.loc 1 761 3 is_stmt 1
 761:C:/Users/stapi/OneDrive/Desktop/GD32VW553/GD32VW55X_Wifi_BLE_SDK/GD32VW55x_RELEASE_V1.0.2/MSDK/lwip/lwip-2.1.2/src/core\udp.c ****     /* allocate header in a separate new pbuf */
 993              		.loc 1 761 7 is_stmt 0
 994 010c A145     		li	a1,8
 995 010e 4E85     		mv	a0,s3
 996 0110 97000000 		call	pbuf_add_header
 996      E7800000 
 997              	.LVL115:
 998 0118 4E84     		mv	s0,s3
 761:C:/Users/stapi/OneDrive/Desktop/GD32VW553/GD32VW55X_Wifi_BLE_SDK/GD32VW55x_RELEASE_V1.0.2/MSDK/lwip/lwip-2.1.2/src/core\udp.c ****     /* allocate header in a separate new pbuf */
 999              		.loc 1 761 6
 1000 011a 05C5     		beq	a0,zero,.L110
 1001              	.LVL116:
 763:C:/Users/stapi/OneDrive/Desktop/GD32VW553/GD32VW55X_Wifi_BLE_SDK/GD32VW55x_RELEASE_V1.0.2/MSDK/lwip/lwip-2.1.2/src/core\udp.c ****     /* new header pbuf could not be allocated? */
 1002              		.loc 1 763 5 is_stmt 1
 763:C:/Users/stapi/OneDrive/Desktop/GD32VW553/GD32VW55X_Wifi_BLE_SDK/GD32VW55x_RELEASE_V1.0.2/MSDK/lwip/lwip-2.1.2/src/core\udp.c ****     /* new header pbuf could not be allocated? */
 1003              		.loc 1 763 9 is_stmt 0
 1004 011c 13060028 		li	a2,640
 1005 0120 A145     		li	a1,8
 1006 0122 1305E017 		li	a0,382
 1007 0126 97000000 		call	pbuf_alloc
 1007      E7800000 
 1008              	.LVL117:
 1009 012e 2A84     		mv	s0,a0
 1010              	.LVL118:
 765:C:/Users/stapi/OneDrive/Desktop/GD32VW553/GD32VW55X_Wifi_BLE_SDK/GD32VW55x_RELEASE_V1.0.2/MSDK/lwip/lwip-2.1.2/src/core\udp.c ****       LWIP_DEBUGF(UDP_DEBUG | LWIP_DBG_TRACE | LWIP_DBG_LEVEL_SERIOUS, ("udp_send: could not alloca
 1011              		.loc 1 765 5 is_stmt 1
 765:C:/Users/stapi/OneDrive/Desktop/GD32VW553/GD32VW55X_Wifi_BLE_SDK/GD32VW55x_RELEASE_V1.0.2/MSDK/lwip/lwip-2.1.2/src/core\udp.c ****       LWIP_DEBUGF(UDP_DEBUG | LWIP_DBG_TRACE | LWIP_DBG_LEVEL_SERIOUS, ("udp_send: could not alloca
 1012              		.loc 1 765 8 is_stmt 0
 1013 0130 5DDD     		beq	a0,zero,.L106
 769:C:/Users/stapi/OneDrive/Desktop/GD32VW553/GD32VW55X_Wifi_BLE_SDK/GD32VW55x_RELEASE_V1.0.2/MSDK/lwip/lwip-2.1.2/src/core\udp.c ****       /* chain header q in front of given pbuf p (only if p contains data) */
 1014              		.loc 1 769 5 is_stmt 1
 769:C:/Users/stapi/OneDrive/Desktop/GD32VW553/GD32VW55X_Wifi_BLE_SDK/GD32VW55x_RELEASE_V1.0.2/MSDK/lwip/lwip-2.1.2/src/core\udp.c ****       /* chain header q in front of given pbuf p (only if p contains data) */
 1015              		.loc 1 769 8 is_stmt 0
 1016 0132 83D78900 		lhu	a5,8(s3)
 1017 0136 91C7     		beq	a5,zero,.L110
 771:C:/Users/stapi/OneDrive/Desktop/GD32VW553/GD32VW55X_Wifi_BLE_SDK/GD32VW55x_RELEASE_V1.0.2/MSDK/lwip/lwip-2.1.2/src/core\udp.c ****     }
 1018              		.loc 1 771 7 is_stmt 1
 1019 0138 CE85     		mv	a1,s3
 1020 013a 97000000 		call	pbuf_chain
 1020      E7800000 
 1021              	.LVL119:
 1022              	.L110:
 780:C:/Users/stapi/OneDrive/Desktop/GD32VW553/GD32VW55X_Wifi_BLE_SDK/GD32VW55x_RELEASE_V1.0.2/MSDK/lwip/lwip-2.1.2/src/core\udp.c ****   }
 1023              		.loc 1 780 85
 782:C:/Users/stapi/OneDrive/Desktop/GD32VW553/GD32VW55X_Wifi_BLE_SDK/GD32VW55x_RELEASE_V1.0.2/MSDK/lwip/lwip-2.1.2/src/core\udp.c ****               (q->len >= sizeof(struct udp_hdr)));
 1024              		.loc 1 782 3
 782:C:/Users/stapi/OneDrive/Desktop/GD32VW553/GD32VW55X_Wifi_BLE_SDK/GD32VW55x_RELEASE_V1.0.2/MSDK/lwip/lwip-2.1.2/src/core\udp.c ****               (q->len >= sizeof(struct udp_hdr)));
 1025              		.loc 1 782 3
 1026 0142 0357A400 		lhu	a4,10(s0)
 1027 0146 9D47     		li	a5,7
 1028 0148 63E5E702 		bgtu	a4,a5,.L111
 782:C:/Users/stapi/OneDrive/Desktop/GD32VW553/GD32VW55X_Wifi_BLE_SDK/GD32VW55x_RELEASE_V1.0.2/MSDK/lwip/lwip-2.1.2/src/core\udp.c ****               (q->len >= sizeof(struct udp_hdr)));
 1029              		.loc 1 782 3
 782:C:/Users/stapi/OneDrive/Desktop/GD32VW553/GD32VW55X_Wifi_BLE_SDK/GD32VW55x_RELEASE_V1.0.2/MSDK/lwip/lwip-2.1.2/src/core\udp.c ****               (q->len >= sizeof(struct udp_hdr)));
 1030              		.loc 1 782 3
 1031 014c B7060000 		lui	a3,%hi(.LC0)
 1032 0150 B7050000 		lui	a1,%hi(.LC11)
 1033 0154 37050000 		lui	a0,%hi(.LC2)
 1034 0158 93860600 		addi	a3,a3,%lo(.LC0)
 1035 015c 1306E030 		li	a2,782
 1036 0160 93850500 		addi	a1,a1,%lo(.LC11)
 1037 0164 13050500 		addi	a0,a0,%lo(.LC2)
 1038 0168 97000000 		call	printf
 1038      E7800000 
 1039              	.LVL120:
 1040              	.L112:
 782:C:/Users/stapi/OneDrive/Desktop/GD32VW553/GD32VW55X_Wifi_BLE_SDK/GD32VW55x_RELEASE_V1.0.2/MSDK/lwip/lwip-2.1.2/src/core\udp.c ****               (q->len >= sizeof(struct udp_hdr)));
 1041              		.loc 1 782 3
 782:C:/Users/stapi/OneDrive/Desktop/GD32VW553/GD32VW55X_Wifi_BLE_SDK/GD32VW55x_RELEASE_V1.0.2/MSDK/lwip/lwip-2.1.2/src/core\udp.c ****               (q->len >= sizeof(struct udp_hdr)));
 1042              		.loc 1 782 3
 782:C:/Users/stapi/OneDrive/Desktop/GD32VW553/GD32VW55X_Wifi_BLE_SDK/GD32VW55x_RELEASE_V1.0.2/MSDK/lwip/lwip-2.1.2/src/core\udp.c ****               (q->len >= sizeof(struct udp_hdr)));
 1043              		.loc 1 782 3
 1044 0170 01A0     		j	.L112
 1045              	.L111:
 782:C:/Users/stapi/OneDrive/Desktop/GD32VW553/GD32VW55X_Wifi_BLE_SDK/GD32VW55x_RELEASE_V1.0.2/MSDK/lwip/lwip-2.1.2/src/core\udp.c ****               (q->len >= sizeof(struct udp_hdr)));
 1046              		.loc 1 782 3
 782:C:/Users/stapi/OneDrive/Desktop/GD32VW553/GD32VW55X_Wifi_BLE_SDK/GD32VW55x_RELEASE_V1.0.2/MSDK/lwip/lwip-2.1.2/src/core\udp.c ****               (q->len >= sizeof(struct udp_hdr)));
 1047              		.loc 1 782 3
 785:C:/Users/stapi/OneDrive/Desktop/GD32VW553/GD32VW55X_Wifi_BLE_SDK/GD32VW55x_RELEASE_V1.0.2/MSDK/lwip/lwip-2.1.2/src/core\udp.c ****   udphdr->src = lwip_htons(pcb->local_port);
 1048              		.loc 1 785 3
 786:C:/Users/stapi/OneDrive/Desktop/GD32VW553/GD32VW55X_Wifi_BLE_SDK/GD32VW55x_RELEASE_V1.0.2/MSDK/lwip/lwip-2.1.2/src/core\udp.c ****   udphdr->dest = lwip_htons(dst_port);
 1049              		.loc 1 786 17 is_stmt 0
 1050 0172 03D52401 		lhu	a0,18(s1)
 785:C:/Users/stapi/OneDrive/Desktop/GD32VW553/GD32VW55X_Wifi_BLE_SDK/GD32VW55x_RELEASE_V1.0.2/MSDK/lwip/lwip-2.1.2/src/core\udp.c ****   udphdr->src = lwip_htons(pcb->local_port);
 1051              		.loc 1 785 10
 1052 0176 03294400 		lw	s2,4(s0)
 1053              	.LVL121:
 786:C:/Users/stapi/OneDrive/Desktop/GD32VW553/GD32VW55X_Wifi_BLE_SDK/GD32VW55x_RELEASE_V1.0.2/MSDK/lwip/lwip-2.1.2/src/core\udp.c ****   udphdr->dest = lwip_htons(dst_port);
 1054              		.loc 1 786 3 is_stmt 1
 786:C:/Users/stapi/OneDrive/Desktop/GD32VW553/GD32VW55X_Wifi_BLE_SDK/GD32VW55x_RELEASE_V1.0.2/MSDK/lwip/lwip-2.1.2/src/core\udp.c ****   udphdr->dest = lwip_htons(dst_port);
 1055              		.loc 1 786 17 is_stmt 0
 1056 017a 97000000 		call	lwip_htons
 1056      E7800000 
 1057              	.LVL122:
 786:C:/Users/stapi/OneDrive/Desktop/GD32VW553/GD32VW55X_Wifi_BLE_SDK/GD32VW55x_RELEASE_V1.0.2/MSDK/lwip/lwip-2.1.2/src/core\udp.c ****   udphdr->dest = lwip_htons(dst_port);
 1058              		.loc 1 786 15
 1059 0182 2300A900 		sb	a0,0(s2)
 1060 0186 2181     		srli	a0,a0,8
 1061 0188 A300A900 		sb	a0,1(s2)
 787:C:/Users/stapi/OneDrive/Desktop/GD32VW553/GD32VW55X_Wifi_BLE_SDK/GD32VW55x_RELEASE_V1.0.2/MSDK/lwip/lwip-2.1.2/src/core\udp.c ****   /* in UDP, 0 checksum means 'no checksum' */
 1062              		.loc 1 787 3 is_stmt 1
 787:C:/Users/stapi/OneDrive/Desktop/GD32VW553/GD32VW55X_Wifi_BLE_SDK/GD32VW55x_RELEASE_V1.0.2/MSDK/lwip/lwip-2.1.2/src/core\udp.c ****   /* in UDP, 0 checksum means 'no checksum' */
 1063              		.loc 1 787 18 is_stmt 0
 1064 018c 5E85     		mv	a0,s7
 1065 018e 97000000 		call	lwip_htons
 1065      E7800000 
 1066              	.LVL123:
 787:C:/Users/stapi/OneDrive/Desktop/GD32VW553/GD32VW55X_Wifi_BLE_SDK/GD32VW55x_RELEASE_V1.0.2/MSDK/lwip/lwip-2.1.2/src/core\udp.c ****   /* in UDP, 0 checksum means 'no checksum' */
 1067              		.loc 1 787 16
 1068 0196 2301A900 		sb	a0,2(s2)
 1069 019a 2181     		srli	a0,a0,8
 1070 019c A301A900 		sb	a0,3(s2)
 789:C:/Users/stapi/OneDrive/Desktop/GD32VW553/GD32VW55X_Wifi_BLE_SDK/GD32VW55x_RELEASE_V1.0.2/MSDK/lwip/lwip-2.1.2/src/core\udp.c **** 
 1071              		.loc 1 789 3 is_stmt 1
 789:C:/Users/stapi/OneDrive/Desktop/GD32VW553/GD32VW55X_Wifi_BLE_SDK/GD32VW55x_RELEASE_V1.0.2/MSDK/lwip/lwip-2.1.2/src/core\udp.c **** 
 1072              		.loc 1 789 18 is_stmt 0
 1073 01a0 23030900 		sb	zero,6(s2)
 1074 01a4 A3030900 		sb	zero,7(s2)
 793:C:/Users/stapi/OneDrive/Desktop/GD32VW553/GD32VW55X_Wifi_BLE_SDK/GD32VW55x_RELEASE_V1.0.2/MSDK/lwip/lwip-2.1.2/src/core\udp.c ****     q->flags |= PBUF_FLAG_MCASTLOOP;
 1075              		.loc 1 793 3 is_stmt 1
 793:C:/Users/stapi/OneDrive/Desktop/GD32VW553/GD32VW55X_Wifi_BLE_SDK/GD32VW55x_RELEASE_V1.0.2/MSDK/lwip/lwip-2.1.2/src/core\udp.c ****     q->flags |= PBUF_FLAG_MCASTLOOP;
 1076              		.loc 1 793 6 is_stmt 0
 1077 01a8 83C70401 		lbu	a5,16(s1)
 1078 01ac A18B     		andi	a5,a5,8
 1079 01ae 99CF     		beq	a5,zero,.L113
 793:C:/Users/stapi/OneDrive/Desktop/GD32VW553/GD32VW55X_Wifi_BLE_SDK/GD32VW55x_RELEASE_V1.0.2/MSDK/lwip/lwip-2.1.2/src/core\udp.c ****     q->flags |= PBUF_FLAG_MCASTLOOP;
 1080              		.loc 1 793 57
 1081 01b0 83270A00 		lw	a5,0(s4)
 793:C:/Users/stapi/OneDrive/Desktop/GD32VW553/GD32VW55X_Wifi_BLE_SDK/GD32VW55x_RELEASE_V1.0.2/MSDK/lwip/lwip-2.1.2/src/core\udp.c ****     q->flags |= PBUF_FLAG_MCASTLOOP;
 1082              		.loc 1 793 54
 1083 01b4 1307000E 		li	a4,224
 793:C:/Users/stapi/OneDrive/Desktop/GD32VW553/GD32VW55X_Wifi_BLE_SDK/GD32VW55x_RELEASE_V1.0.2/MSDK/lwip/lwip-2.1.2/src/core\udp.c ****     q->flags |= PBUF_FLAG_MCASTLOOP;
 1084              		.loc 1 793 57
 1085 01b8 93F7070F 		andi	a5,a5,240
 793:C:/Users/stapi/OneDrive/Desktop/GD32VW553/GD32VW55X_Wifi_BLE_SDK/GD32VW55x_RELEASE_V1.0.2/MSDK/lwip/lwip-2.1.2/src/core\udp.c ****     q->flags |= PBUF_FLAG_MCASTLOOP;
 1086              		.loc 1 793 54
 1087 01bc 6398E700 		bne	a5,a4,.L113
 794:C:/Users/stapi/OneDrive/Desktop/GD32VW553/GD32VW55X_Wifi_BLE_SDK/GD32VW55x_RELEASE_V1.0.2/MSDK/lwip/lwip-2.1.2/src/core\udp.c ****   }
 1088              		.loc 1 794 5 is_stmt 1
 794:C:/Users/stapi/OneDrive/Desktop/GD32VW553/GD32VW55X_Wifi_BLE_SDK/GD32VW55x_RELEASE_V1.0.2/MSDK/lwip/lwip-2.1.2/src/core\udp.c ****   }
 1089              		.loc 1 794 14 is_stmt 0
 1090 01c0 8347D400 		lbu	a5,13(s0)
 1091 01c4 93E74700 		ori	a5,a5,4
 1092 01c8 A306F400 		sb	a5,13(s0)
 1093              	.L113:
 798:C:/Users/stapi/OneDrive/Desktop/GD32VW553/GD32VW55X_Wifi_BLE_SDK/GD32VW55x_RELEASE_V1.0.2/MSDK/lwip/lwip-2.1.2/src/core\udp.c **** 
 1094              		.loc 1 798 90 is_stmt 1
 850:C:/Users/stapi/OneDrive/Desktop/GD32VW553/GD32VW55X_Wifi_BLE_SDK/GD32VW55x_RELEASE_V1.0.2/MSDK/lwip/lwip-2.1.2/src/core\udp.c ****     udphdr->len = lwip_htons(q->tot_len);
 1095              		.loc 1 850 83
 851:C:/Users/stapi/OneDrive/Desktop/GD32VW553/GD32VW55X_Wifi_BLE_SDK/GD32VW55x_RELEASE_V1.0.2/MSDK/lwip/lwip-2.1.2/src/core\udp.c ****     /* calculate checksum */
 1096              		.loc 1 851 5
 851:C:/Users/stapi/OneDrive/Desktop/GD32VW553/GD32VW55X_Wifi_BLE_SDK/GD32VW55x_RELEASE_V1.0.2/MSDK/lwip/lwip-2.1.2/src/core\udp.c ****     /* calculate checksum */
 1097              		.loc 1 851 19 is_stmt 0
 1098 01cc 03558400 		lhu	a0,8(s0)
 1099 01d0 97000000 		call	lwip_htons
 1099      E7800000 
 1100              	.LVL124:
 851:C:/Users/stapi/OneDrive/Desktop/GD32VW553/GD32VW55X_Wifi_BLE_SDK/GD32VW55x_RELEASE_V1.0.2/MSDK/lwip/lwip-2.1.2/src/core\udp.c ****     /* calculate checksum */
 1101              		.loc 1 851 17
 1102 01d8 2302A900 		sb	a0,4(s2)
 1103 01dc 2181     		srli	a0,a0,8
 1104 01de A302A900 		sb	a0,5(s2)
 856:C:/Users/stapi/OneDrive/Desktop/GD32VW553/GD32VW55X_Wifi_BLE_SDK/GD32VW55x_RELEASE_V1.0.2/MSDK/lwip/lwip-2.1.2/src/core\udp.c ****         u16_t udpchksum;
 1105              		.loc 1 856 7 is_stmt 1
 856:C:/Users/stapi/OneDrive/Desktop/GD32VW553/GD32VW55X_Wifi_BLE_SDK/GD32VW55x_RELEASE_V1.0.2/MSDK/lwip/lwip-2.1.2/src/core\udp.c ****         u16_t udpchksum;
 1106              		.loc 1 856 10 is_stmt 0
 1107 01e2 83C70401 		lbu	a5,16(s1)
 1108 01e6 858B     		andi	a5,a5,1
 1109 01e8 9DE3     		bne	a5,zero,.L114
 1110              	.LBB26:
 857:C:/Users/stapi/OneDrive/Desktop/GD32VW553/GD32VW55X_Wifi_BLE_SDK/GD32VW55x_RELEASE_V1.0.2/MSDK/lwip/lwip-2.1.2/src/core\udp.c **** #if LWIP_CHECKSUM_ON_COPY
 1111              		.loc 1 857 9 is_stmt 1
 868:C:/Users/stapi/OneDrive/Desktop/GD32VW553/GD32VW55X_Wifi_BLE_SDK/GD32VW55x_RELEASE_V1.0.2/MSDK/lwip/lwip-2.1.2/src/core\udp.c ****                                        src_ip, dst_ip);
 1112              		.loc 1 868 11
 868:C:/Users/stapi/OneDrive/Desktop/GD32VW553/GD32VW55X_Wifi_BLE_SDK/GD32VW55x_RELEASE_V1.0.2/MSDK/lwip/lwip-2.1.2/src/core\udp.c ****                                        src_ip, dst_ip);
 1113              		.loc 1 868 23 is_stmt 0
 1114 01ea 03568400 		lhu	a2,8(s0)
 1115 01ee 5287     		mv	a4,s4
 1116 01f0 D686     		mv	a3,s5
 1117 01f2 C545     		li	a1,17
 1118 01f4 2285     		mv	a0,s0
 1119 01f6 97000000 		call	ip_chksum_pseudo
 1119      E7800000 
 1120              	.LVL125:
 873:C:/Users/stapi/OneDrive/Desktop/GD32VW553/GD32VW55X_Wifi_BLE_SDK/GD32VW55x_RELEASE_V1.0.2/MSDK/lwip/lwip-2.1.2/src/core\udp.c ****           udpchksum = 0xffff;
 1121              		.loc 1 873 9 is_stmt 1
 873:C:/Users/stapi/OneDrive/Desktop/GD32VW553/GD32VW55X_Wifi_BLE_SDK/GD32VW55x_RELEASE_V1.0.2/MSDK/lwip/lwip-2.1.2/src/core\udp.c ****           udpchksum = 0xffff;
 1122              		.loc 1 873 12 is_stmt 0
 1123 01fe 19E1     		bne	a0,zero,.L115
 874:C:/Users/stapi/OneDrive/Desktop/GD32VW553/GD32VW55X_Wifi_BLE_SDK/GD32VW55x_RELEASE_V1.0.2/MSDK/lwip/lwip-2.1.2/src/core\udp.c ****         }
 1124              		.loc 1 874 21
 1125 0200 4165     		li	a0,65536
 1126              	.LVL126:
 1127 0202 7D15     		addi	a0,a0,-1
 1128              	.L115:
 1129              	.LVL127:
 876:C:/Users/stapi/OneDrive/Desktop/GD32VW553/GD32VW55X_Wifi_BLE_SDK/GD32VW55x_RELEASE_V1.0.2/MSDK/lwip/lwip-2.1.2/src/core\udp.c ****       }
 1130              		.loc 1 876 9 is_stmt 1
 876:C:/Users/stapi/OneDrive/Desktop/GD32VW553/GD32VW55X_Wifi_BLE_SDK/GD32VW55x_RELEASE_V1.0.2/MSDK/lwip/lwip-2.1.2/src/core\udp.c ****       }
 1131              		.loc 1 876 24 is_stmt 0
 1132 0204 2303A900 		sb	a0,6(s2)
 1133 0208 2181     		srli	a0,a0,8
 1134              	.LVL128:
 1135 020a A303A900 		sb	a0,7(s2)
 1136              	.L114:
 1137              	.LBE26:
 880:C:/Users/stapi/OneDrive/Desktop/GD32VW553/GD32VW55X_Wifi_BLE_SDK/GD32VW55x_RELEASE_V1.0.2/MSDK/lwip/lwip-2.1.2/src/core\udp.c ****   }
 1138              		.loc 1 880 5 is_stmt 1
 1139              	.LVL129:
 885:C:/Users/stapi/OneDrive/Desktop/GD32VW553/GD32VW55X_Wifi_BLE_SDK/GD32VW55x_RELEASE_V1.0.2/MSDK/lwip/lwip-2.1.2/src/core\udp.c **** #else /* LWIP_MULTICAST_TX_OPTIONS */
 1140              		.loc 1 885 3
 885:C:/Users/stapi/OneDrive/Desktop/GD32VW553/GD32VW55X_Wifi_BLE_SDK/GD32VW55x_RELEASE_V1.0.2/MSDK/lwip/lwip-2.1.2/src/core\udp.c **** #else /* LWIP_MULTICAST_TX_OPTIONS */
 1141              		.loc 1 885 10 is_stmt 0
 1142 020e 83270A00 		lw	a5,0(s4)
 885:C:/Users/stapi/OneDrive/Desktop/GD32VW553/GD32VW55X_Wifi_BLE_SDK/GD32VW55x_RELEASE_V1.0.2/MSDK/lwip/lwip-2.1.2/src/core\udp.c **** #else /* LWIP_MULTICAST_TX_OPTIONS */
 1143              		.loc 1 885 7
 1144 0212 1307000E 		li	a4,224
 885:C:/Users/stapi/OneDrive/Desktop/GD32VW553/GD32VW55X_Wifi_BLE_SDK/GD32VW55x_RELEASE_V1.0.2/MSDK/lwip/lwip-2.1.2/src/core\udp.c **** #else /* LWIP_MULTICAST_TX_OPTIONS */
 1145              		.loc 1 885 10
 1146 0216 93F7070F 		andi	a5,a5,240
 885:C:/Users/stapi/OneDrive/Desktop/GD32VW553/GD32VW55X_Wifi_BLE_SDK/GD32VW55x_RELEASE_V1.0.2/MSDK/lwip/lwip-2.1.2/src/core\udp.c **** #else /* LWIP_MULTICAST_TX_OPTIONS */
 1147              		.loc 1 885 7
 1148 021a 6398E702 		bne	a5,a4,.L116
 1149 021e 83C6D401 		lbu	a3,29(s1)
 1150              	.L117:
 1151              	.LVL130:
 890:C:/Users/stapi/OneDrive/Desktop/GD32VW553/GD32VW55X_Wifi_BLE_SDK/GD32VW55x_RELEASE_V1.0.2/MSDK/lwip/lwip-2.1.2/src/core\udp.c ****   LWIP_DEBUGF(UDP_DEBUG, ("udp_send: ip_output_if (,,,,0x%02"X16_F",)\n", (u16_t)ip_proto));
 1152              		.loc 1 890 84 is_stmt 1
 891:C:/Users/stapi/OneDrive/Desktop/GD32VW553/GD32VW55X_Wifi_BLE_SDK/GD32VW55x_RELEASE_V1.0.2/MSDK/lwip/lwip-2.1.2/src/core\udp.c ****   /* output to IP */
 1153              		.loc 1 891 92
 893:C:/Users/stapi/OneDrive/Desktop/GD32VW553/GD32VW55X_Wifi_BLE_SDK/GD32VW55x_RELEASE_V1.0.2/MSDK/lwip/lwip-2.1.2/src/core\udp.c ****   err = ip_output_if_src(q, src_ip, dst_ip, ttl, pcb->tos, ip_proto, netif);
 1154              		.loc 1 893 46
 894:C:/Users/stapi/OneDrive/Desktop/GD32VW553/GD32VW55X_Wifi_BLE_SDK/GD32VW55x_RELEASE_V1.0.2/MSDK/lwip/lwip-2.1.2/src/core\udp.c ****   NETIF_RESET_HINTS(netif);
 1155              		.loc 1 894 3
 894:C:/Users/stapi/OneDrive/Desktop/GD32VW553/GD32VW55X_Wifi_BLE_SDK/GD32VW55x_RELEASE_V1.0.2/MSDK/lwip/lwip-2.1.2/src/core\udp.c ****   NETIF_RESET_HINTS(netif);
 1156              		.loc 1 894 9 is_stmt 0
 1157 0222 03C7A400 		lbu	a4,10(s1)
 1158 0226 5A88     		mv	a6,s6
 1159 0228 C547     		li	a5,17
 1160 022a 5286     		mv	a2,s4
 1161 022c D685     		mv	a1,s5
 1162 022e 2285     		mv	a0,s0
 1163 0230 97000000 		call	ip4_output_if_src
 1163      E7800000 
 1164              	.LVL131:
 1165 0238 2A89     		mv	s2,a0
 1166              	.LVL132:
 895:C:/Users/stapi/OneDrive/Desktop/GD32VW553/GD32VW55X_Wifi_BLE_SDK/GD32VW55x_RELEASE_V1.0.2/MSDK/lwip/lwip-2.1.2/src/core\udp.c **** 
 1167              		.loc 1 895 27 is_stmt 1
 898:C:/Users/stapi/OneDrive/Desktop/GD32VW553/GD32VW55X_Wifi_BLE_SDK/GD32VW55x_RELEASE_V1.0.2/MSDK/lwip/lwip-2.1.2/src/core\udp.c **** 
 1168              		.loc 1 898 39
 901:C:/Users/stapi/OneDrive/Desktop/GD32VW553/GD32VW55X_Wifi_BLE_SDK/GD32VW55x_RELEASE_V1.0.2/MSDK/lwip/lwip-2.1.2/src/core\udp.c ****     /* free the header pbuf */
 1169              		.loc 1 901 3
 901:C:/Users/stapi/OneDrive/Desktop/GD32VW553/GD32VW55X_Wifi_BLE_SDK/GD32VW55x_RELEASE_V1.0.2/MSDK/lwip/lwip-2.1.2/src/core\udp.c ****     /* free the header pbuf */
 1170              		.loc 1 901 6 is_stmt 0
 1171 023a E38489EC 		beq	s3,s0,.L108
 903:C:/Users/stapi/OneDrive/Desktop/GD32VW553/GD32VW55X_Wifi_BLE_SDK/GD32VW55x_RELEASE_V1.0.2/MSDK/lwip/lwip-2.1.2/src/core\udp.c ****     q = NULL;
 1172              		.loc 1 903 5 is_stmt 1
 1173 023e 2285     		mv	a0,s0
 1174 0240 97000000 		call	pbuf_free
 1174      E7800000 
 1175              	.LVL133:
 904:C:/Users/stapi/OneDrive/Desktop/GD32VW553/GD32VW55X_Wifi_BLE_SDK/GD32VW55x_RELEASE_V1.0.2/MSDK/lwip/lwip-2.1.2/src/core\udp.c ****     /* p is still referenced by the caller, and will live on */
 1176              		.loc 1 904 5
 1177 0248 6DBD     		j	.L108
 1178              	.LVL134:
 1179              	.L116:
 885:C:/Users/stapi/OneDrive/Desktop/GD32VW553/GD32VW55X_Wifi_BLE_SDK/GD32VW55x_RELEASE_V1.0.2/MSDK/lwip/lwip-2.1.2/src/core\udp.c **** #else /* LWIP_MULTICAST_TX_OPTIONS */
 1180              		.loc 1 885 7 is_stmt 0
 1181 024a 83C6B400 		lbu	a3,11(s1)
 1182 024e D1BF     		j	.L117
 1183              	.LBE27:
 1184              	.LBE28:
 1185              		.cfi_endproc
 1186              	.LFE11:
 1188              		.section	.rodata.udp_sendto_if.str1.4,"aMS",@progbits,1
 1189              		.align	2
 1190              	.LC12:
 1191 0000 7564705F 		.string	"udp_sendto_if: invalid pcb"
 1191      73656E64 
 1191      746F5F69 
 1191      663A2069 
 1191      6E76616C 
 1192 001b 00       		.align	2
 1193              	.LC13:
 1194 001c 7564705F 		.string	"udp_sendto_if: invalid pbuf"
 1194      73656E64 
 1194      746F5F69 
 1194      663A2069 
 1194      6E76616C 
 1195              		.align	2
 1196              	.LC14:
 1197 0038 7564705F 		.string	"udp_sendto_if: invalid dst_ip"
 1197      73656E64 
 1197      746F5F69 
 1197      663A2069 
 1197      6E76616C 
 1198 0056 0000     		.align	2
 1199              	.LC15:
 1200 0058 7564705F 		.string	"udp_sendto_if: invalid netif"
 1200      73656E64 
 1200      746F5F69 
 1200      663A2069 
 1200      6E76616C 
 1201              		.section	.text.udp_sendto_if,"ax",@progbits
 1202              		.align	1
 1203              		.globl	udp_sendto_if
 1205              	udp_sendto_if:
 1206              	.LFB10:
 627:C:/Users/stapi/OneDrive/Desktop/GD32VW553/GD32VW55X_Wifi_BLE_SDK/GD32VW55x_RELEASE_V1.0.2/MSDK/lwip/lwip-2.1.2/src/core\udp.c **** #if LWIP_CHECKSUM_ON_COPY && CHECKSUM_GEN_UDP
 1207              		.loc 1 627 1 is_stmt 1
 1208              		.cfi_startproc
 1209              	.LVL135:
 1210 0000 17030000 		call	t0,__riscv_save_0
 1210      E7020300 
 1211              		.cfi_offset 1, -4
 1212              		.cfi_def_cfa_offset 16
 639:C:/Users/stapi/OneDrive/Desktop/GD32VW553/GD32VW55X_Wifi_BLE_SDK/GD32VW55x_RELEASE_V1.0.2/MSDK/lwip/lwip-2.1.2/src/core\udp.c **** 
 1213              		.loc 1 639 3
 641:C:/Users/stapi/OneDrive/Desktop/GD32VW553/GD32VW55X_Wifi_BLE_SDK/GD32VW55x_RELEASE_V1.0.2/MSDK/lwip/lwip-2.1.2/src/core\udp.c ****   LWIP_ERROR("udp_sendto_if: invalid pbuf", p != NULL, return ERR_ARG);
 1214              		.loc 1 641 3
 641:C:/Users/stapi/OneDrive/Desktop/GD32VW553/GD32VW55X_Wifi_BLE_SDK/GD32VW55x_RELEASE_V1.0.2/MSDK/lwip/lwip-2.1.2/src/core\udp.c ****   LWIP_ERROR("udp_sendto_if: invalid pbuf", p != NULL, return ERR_ARG);
 1215              		.loc 1 641 3
 1216 0008 05E5     		bne	a0,zero,.L132
 641:C:/Users/stapi/OneDrive/Desktop/GD32VW553/GD32VW55X_Wifi_BLE_SDK/GD32VW55x_RELEASE_V1.0.2/MSDK/lwip/lwip-2.1.2/src/core\udp.c ****   LWIP_ERROR("udp_sendto_if: invalid pbuf", p != NULL, return ERR_ARG);
 1217              		.loc 1 641 3 discriminator 1
 641:C:/Users/stapi/OneDrive/Desktop/GD32VW553/GD32VW55X_Wifi_BLE_SDK/GD32VW55x_RELEASE_V1.0.2/MSDK/lwip/lwip-2.1.2/src/core\udp.c ****   LWIP_ERROR("udp_sendto_if: invalid pbuf", p != NULL, return ERR_ARG);
 1218              		.loc 1 641 3 discriminator 1
 1219 000a B7060000 		lui	a3,%hi(.LC0)
 1220              	.LVL136:
 1221 000e B7050000 		lui	a1,%hi(.LC12)
 1222              	.LVL137:
 1223 0012 37050000 		lui	a0,%hi(.LC2)
 1224              	.LVL138:
 1225 0016 93860600 		addi	a3,a3,%lo(.LC0)
 1226 001a 13061028 		li	a2,641
 1227              	.LVL139:
 1228 001e 93850500 		addi	a1,a1,%lo(.LC12)
 1229 0022 13050500 		addi	a0,a0,%lo(.LC2)
 1230 0026 97000000 		call	printf
 1230      E7800000 
 1231              	.LVL140:
 1232              	.L133:
 641:C:/Users/stapi/OneDrive/Desktop/GD32VW553/GD32VW55X_Wifi_BLE_SDK/GD32VW55x_RELEASE_V1.0.2/MSDK/lwip/lwip-2.1.2/src/core\udp.c ****   LWIP_ERROR("udp_sendto_if: invalid pbuf", p != NULL, return ERR_ARG);
 1233              		.loc 1 641 3 discriminator 1
 641:C:/Users/stapi/OneDrive/Desktop/GD32VW553/GD32VW55X_Wifi_BLE_SDK/GD32VW55x_RELEASE_V1.0.2/MSDK/lwip/lwip-2.1.2/src/core\udp.c ****   LWIP_ERROR("udp_sendto_if: invalid pbuf", p != NULL, return ERR_ARG);
 1234              		.loc 1 641 3 discriminator 1
 641:C:/Users/stapi/OneDrive/Desktop/GD32VW553/GD32VW55X_Wifi_BLE_SDK/GD32VW55x_RELEASE_V1.0.2/MSDK/lwip/lwip-2.1.2/src/core\udp.c ****   LWIP_ERROR("udp_sendto_if: invalid pbuf", p != NULL, return ERR_ARG);
 1235              		.loc 1 641 3 discriminator 1
 1236 002e 01A0     		j	.L133
 1237              	.LVL141:
 1238              	.L132:
 641:C:/Users/stapi/OneDrive/Desktop/GD32VW553/GD32VW55X_Wifi_BLE_SDK/GD32VW55x_RELEASE_V1.0.2/MSDK/lwip/lwip-2.1.2/src/core\udp.c ****   LWIP_ERROR("udp_sendto_if: invalid pbuf", p != NULL, return ERR_ARG);
 1239              		.loc 1 641 3 discriminator 2
 642:C:/Users/stapi/OneDrive/Desktop/GD32VW553/GD32VW55X_Wifi_BLE_SDK/GD32VW55x_RELEASE_V1.0.2/MSDK/lwip/lwip-2.1.2/src/core\udp.c ****   LWIP_ERROR("udp_sendto_if: invalid dst_ip", dst_ip != NULL, return ERR_ARG);
 1240              		.loc 1 642 3 discriminator 2
 642:C:/Users/stapi/OneDrive/Desktop/GD32VW553/GD32VW55X_Wifi_BLE_SDK/GD32VW55x_RELEASE_V1.0.2/MSDK/lwip/lwip-2.1.2/src/core\udp.c ****   LWIP_ERROR("udp_sendto_if: invalid dst_ip", dst_ip != NULL, return ERR_ARG);
 1241              		.loc 1 642 3 discriminator 2
 1242 0030 85E5     		bne	a1,zero,.L134
 642:C:/Users/stapi/OneDrive/Desktop/GD32VW553/GD32VW55X_Wifi_BLE_SDK/GD32VW55x_RELEASE_V1.0.2/MSDK/lwip/lwip-2.1.2/src/core\udp.c ****   LWIP_ERROR("udp_sendto_if: invalid dst_ip", dst_ip != NULL, return ERR_ARG);
 1243              		.loc 1 642 3 discriminator 1
 642:C:/Users/stapi/OneDrive/Desktop/GD32VW553/GD32VW55X_Wifi_BLE_SDK/GD32VW55x_RELEASE_V1.0.2/MSDK/lwip/lwip-2.1.2/src/core\udp.c ****   LWIP_ERROR("udp_sendto_if: invalid dst_ip", dst_ip != NULL, return ERR_ARG);
 1244              		.loc 1 642 3 discriminator 1
 1245 0032 B7060000 		lui	a3,%hi(.LC0)
 1246              	.LVL142:
 1247 0036 B7050000 		lui	a1,%hi(.LC13)
 1248              	.LVL143:
 1249 003a 37050000 		lui	a0,%hi(.LC2)
 1250              	.LVL144:
 1251 003e 93860600 		addi	a3,a3,%lo(.LC0)
 1252 0042 13062028 		li	a2,642
 1253              	.LVL145:
 1254 0046 93850500 		addi	a1,a1,%lo(.LC13)
 1255 004a 13050500 		addi	a0,a0,%lo(.LC2)
 1256 004e 97000000 		call	printf
 1256      E7800000 
 1257              	.LVL146:
 1258              	.L135:
 642:C:/Users/stapi/OneDrive/Desktop/GD32VW553/GD32VW55X_Wifi_BLE_SDK/GD32VW55x_RELEASE_V1.0.2/MSDK/lwip/lwip-2.1.2/src/core\udp.c ****   LWIP_ERROR("udp_sendto_if: invalid dst_ip", dst_ip != NULL, return ERR_ARG);
 1259              		.loc 1 642 3 discriminator 2
 642:C:/Users/stapi/OneDrive/Desktop/GD32VW553/GD32VW55X_Wifi_BLE_SDK/GD32VW55x_RELEASE_V1.0.2/MSDK/lwip/lwip-2.1.2/src/core\udp.c ****   LWIP_ERROR("udp_sendto_if: invalid dst_ip", dst_ip != NULL, return ERR_ARG);
 1260              		.loc 1 642 3 discriminator 2
 642:C:/Users/stapi/OneDrive/Desktop/GD32VW553/GD32VW55X_Wifi_BLE_SDK/GD32VW55x_RELEASE_V1.0.2/MSDK/lwip/lwip-2.1.2/src/core\udp.c ****   LWIP_ERROR("udp_sendto_if: invalid dst_ip", dst_ip != NULL, return ERR_ARG);
 1261              		.loc 1 642 3 discriminator 2
 1262 0056 01A0     		j	.L135
 1263              	.LVL147:
 1264              	.L134:
 1265              	.LBB31:
 1266              	.LBB32:
 642:C:/Users/stapi/OneDrive/Desktop/GD32VW553/GD32VW55X_Wifi_BLE_SDK/GD32VW55x_RELEASE_V1.0.2/MSDK/lwip/lwip-2.1.2/src/core\udp.c ****   LWIP_ERROR("udp_sendto_if: invalid dst_ip", dst_ip != NULL, return ERR_ARG);
 1267              		.loc 1 642 3
 643:C:/Users/stapi/OneDrive/Desktop/GD32VW553/GD32VW55X_Wifi_BLE_SDK/GD32VW55x_RELEASE_V1.0.2/MSDK/lwip/lwip-2.1.2/src/core\udp.c ****   LWIP_ERROR("udp_sendto_if: invalid netif", netif != NULL, return ERR_ARG);
 1268              		.loc 1 643 3
 643:C:/Users/stapi/OneDrive/Desktop/GD32VW553/GD32VW55X_Wifi_BLE_SDK/GD32VW55x_RELEASE_V1.0.2/MSDK/lwip/lwip-2.1.2/src/core\udp.c ****   LWIP_ERROR("udp_sendto_if: invalid netif", netif != NULL, return ERR_ARG);
 1269              		.loc 1 643 3
 1270 0058 05E6     		bne	a2,zero,.L136
 643:C:/Users/stapi/OneDrive/Desktop/GD32VW553/GD32VW55X_Wifi_BLE_SDK/GD32VW55x_RELEASE_V1.0.2/MSDK/lwip/lwip-2.1.2/src/core\udp.c ****   LWIP_ERROR("udp_sendto_if: invalid netif", netif != NULL, return ERR_ARG);
 1271              		.loc 1 643 3
 643:C:/Users/stapi/OneDrive/Desktop/GD32VW553/GD32VW55X_Wifi_BLE_SDK/GD32VW55x_RELEASE_V1.0.2/MSDK/lwip/lwip-2.1.2/src/core\udp.c ****   LWIP_ERROR("udp_sendto_if: invalid netif", netif != NULL, return ERR_ARG);
 1272              		.loc 1 643 3
 1273 005a B7060000 		lui	a3,%hi(.LC0)
 1274              	.LVL148:
 1275 005e B7050000 		lui	a1,%hi(.LC14)
 1276              	.LVL149:
 1277 0062 37050000 		lui	a0,%hi(.LC2)
 1278              	.LVL150:
 1279 0066 93860600 		addi	a3,a3,%lo(.LC0)
 1280 006a 13063028 		li	a2,643
 1281              	.LVL151:
 1282 006e 93850500 		addi	a1,a1,%lo(.LC14)
 1283 0072 13050500 		addi	a0,a0,%lo(.LC2)
 1284 0076 97000000 		call	printf
 1284      E7800000 
 1285              	.LVL152:
 1286              	.L137:
 643:C:/Users/stapi/OneDrive/Desktop/GD32VW553/GD32VW55X_Wifi_BLE_SDK/GD32VW55x_RELEASE_V1.0.2/MSDK/lwip/lwip-2.1.2/src/core\udp.c ****   LWIP_ERROR("udp_sendto_if: invalid netif", netif != NULL, return ERR_ARG);
 1287              		.loc 1 643 3
 643:C:/Users/stapi/OneDrive/Desktop/GD32VW553/GD32VW55X_Wifi_BLE_SDK/GD32VW55x_RELEASE_V1.0.2/MSDK/lwip/lwip-2.1.2/src/core\udp.c ****   LWIP_ERROR("udp_sendto_if: invalid netif", netif != NULL, return ERR_ARG);
 1288              		.loc 1 643 3
 643:C:/Users/stapi/OneDrive/Desktop/GD32VW553/GD32VW55X_Wifi_BLE_SDK/GD32VW55x_RELEASE_V1.0.2/MSDK/lwip/lwip-2.1.2/src/core\udp.c ****   LWIP_ERROR("udp_sendto_if: invalid netif", netif != NULL, return ERR_ARG);
 1289              		.loc 1 643 3
 1290 007e 01A0     		j	.L137
 1291              	.LVL153:
 1292              	.L136:
 643:C:/Users/stapi/OneDrive/Desktop/GD32VW553/GD32VW55X_Wifi_BLE_SDK/GD32VW55x_RELEASE_V1.0.2/MSDK/lwip/lwip-2.1.2/src/core\udp.c ****   LWIP_ERROR("udp_sendto_if: invalid netif", netif != NULL, return ERR_ARG);
 1293              		.loc 1 643 3
 644:C:/Users/stapi/OneDrive/Desktop/GD32VW553/GD32VW55X_Wifi_BLE_SDK/GD32VW55x_RELEASE_V1.0.2/MSDK/lwip/lwip-2.1.2/src/core\udp.c **** 
 1294              		.loc 1 644 3
 644:C:/Users/stapi/OneDrive/Desktop/GD32VW553/GD32VW55X_Wifi_BLE_SDK/GD32VW55x_RELEASE_V1.0.2/MSDK/lwip/lwip-2.1.2/src/core\udp.c **** 
 1295              		.loc 1 644 3
 1296 0080 05E7     		bne	a4,zero,.L138
 644:C:/Users/stapi/OneDrive/Desktop/GD32VW553/GD32VW55X_Wifi_BLE_SDK/GD32VW55x_RELEASE_V1.0.2/MSDK/lwip/lwip-2.1.2/src/core\udp.c **** 
 1297              		.loc 1 644 3
 644:C:/Users/stapi/OneDrive/Desktop/GD32VW553/GD32VW55X_Wifi_BLE_SDK/GD32VW55x_RELEASE_V1.0.2/MSDK/lwip/lwip-2.1.2/src/core\udp.c **** 
 1298              		.loc 1 644 3
 1299 0082 B7060000 		lui	a3,%hi(.LC0)
 1300              	.LVL154:
 1301 0086 B7050000 		lui	a1,%hi(.LC15)
 1302              	.LVL155:
 1303 008a 37050000 		lui	a0,%hi(.LC2)
 1304              	.LVL156:
 1305 008e 93860600 		addi	a3,a3,%lo(.LC0)
 1306 0092 13064028 		li	a2,644
 1307              	.LVL157:
 1308 0096 93850500 		addi	a1,a1,%lo(.LC15)
 1309 009a 13050500 		addi	a0,a0,%lo(.LC2)
 1310 009e 97000000 		call	printf
 1310      E7800000 
 1311              	.LVL158:
 1312              	.L139:
 644:C:/Users/stapi/OneDrive/Desktop/GD32VW553/GD32VW55X_Wifi_BLE_SDK/GD32VW55x_RELEASE_V1.0.2/MSDK/lwip/lwip-2.1.2/src/core\udp.c **** 
 1313              		.loc 1 644 3
 644:C:/Users/stapi/OneDrive/Desktop/GD32VW553/GD32VW55X_Wifi_BLE_SDK/GD32VW55x_RELEASE_V1.0.2/MSDK/lwip/lwip-2.1.2/src/core\udp.c **** 
 1314              		.loc 1 644 3
 644:C:/Users/stapi/OneDrive/Desktop/GD32VW553/GD32VW55X_Wifi_BLE_SDK/GD32VW55x_RELEASE_V1.0.2/MSDK/lwip/lwip-2.1.2/src/core\udp.c **** 
 1315              		.loc 1 644 3
 1316 00a6 01A0     		j	.L139
 1317              	.LVL159:
 1318              	.L138:
 644:C:/Users/stapi/OneDrive/Desktop/GD32VW553/GD32VW55X_Wifi_BLE_SDK/GD32VW55x_RELEASE_V1.0.2/MSDK/lwip/lwip-2.1.2/src/core\udp.c **** 
 1319              		.loc 1 644 3
 646:C:/Users/stapi/OneDrive/Desktop/GD32VW553/GD32VW55X_Wifi_BLE_SDK/GD32VW55x_RELEASE_V1.0.2/MSDK/lwip/lwip-2.1.2/src/core\udp.c ****     return ERR_VAL;
 1320              		.loc 1 646 3
 674:C:/Users/stapi/OneDrive/Desktop/GD32VW553/GD32VW55X_Wifi_BLE_SDK/GD32VW55x_RELEASE_V1.0.2/MSDK/lwip/lwip-2.1.2/src/core\udp.c ****         ip4_addr_ismulticast(ip_2_ip4(&pcb->local_ip))) {
 1321              		.loc 1 674 5
 674:C:/Users/stapi/OneDrive/Desktop/GD32VW553/GD32VW55X_Wifi_BLE_SDK/GD32VW55x_RELEASE_V1.0.2/MSDK/lwip/lwip-2.1.2/src/core\udp.c ****         ip4_addr_ismulticast(ip_2_ip4(&pcb->local_ip))) {
 1322              		.loc 1 674 9 is_stmt 0
 1323 00a8 03280500 		lw	a6,0(a0)
 1324 00ac 63080800 		beq	a6,zero,.L140
 675:C:/Users/stapi/OneDrive/Desktop/GD32VW553/GD32VW55X_Wifi_BLE_SDK/GD32VW55x_RELEASE_V1.0.2/MSDK/lwip/lwip-2.1.2/src/core\udp.c ****       /* if the local_ip is any or multicast
 1325              		.loc 1 675 9
 1326 00b0 9377080F 		andi	a5,a6,240
 674:C:/Users/stapi/OneDrive/Desktop/GD32VW553/GD32VW55X_Wifi_BLE_SDK/GD32VW55x_RELEASE_V1.0.2/MSDK/lwip/lwip-2.1.2/src/core\udp.c ****         ip4_addr_ismulticast(ip_2_ip4(&pcb->local_ip))) {
 1327              		.loc 1 674 50
 1328 00b4 9308000E 		li	a7,224
 1329 00b8 639E1701 		bne	a5,a7,.L141
 1330              	.L140:
 678:C:/Users/stapi/OneDrive/Desktop/GD32VW553/GD32VW55X_Wifi_BLE_SDK/GD32VW55x_RELEASE_V1.0.2/MSDK/lwip/lwip-2.1.2/src/core\udp.c ****     } else {
 1331              		.loc 1 678 7 is_stmt 1
 678:C:/Users/stapi/OneDrive/Desktop/GD32VW553/GD32VW55X_Wifi_BLE_SDK/GD32VW55x_RELEASE_V1.0.2/MSDK/lwip/lwip-2.1.2/src/core\udp.c ****     } else {
 1332              		.loc 1 678 14 is_stmt 0
 1333 00bc 93074700 		addi	a5,a4,4
 1334              	.LVL160:
 1335              	.L142:
 693:C:/Users/stapi/OneDrive/Desktop/GD32VW553/GD32VW55X_Wifi_BLE_SDK/GD32VW55x_RELEASE_V1.0.2/MSDK/lwip/lwip-2.1.2/src/core\udp.c **** #endif /* LWIP_CHECKSUM_ON_COPY && CHECKSUM_GEN_UDP */
 1336              		.loc 1 693 3 is_stmt 1
 693:C:/Users/stapi/OneDrive/Desktop/GD32VW553/GD32VW55X_Wifi_BLE_SDK/GD32VW55x_RELEASE_V1.0.2/MSDK/lwip/lwip-2.1.2/src/core\udp.c **** #endif /* LWIP_CHECKSUM_ON_COPY && CHECKSUM_GEN_UDP */
 1337              		.loc 1 693 10 is_stmt 0
 1338 00c0 97000000 		call	udp_sendto_if_src
 1338      E7800000 
 1339              	.LVL161:
 1340 00c8 AA87     		mv	a5,a0
 1341              	.L143:
 1342              	.LVL162:
 1343              	.LBE32:
 1344              	.LBE31:
 695:C:/Users/stapi/OneDrive/Desktop/GD32VW553/GD32VW55X_Wifi_BLE_SDK/GD32VW55x_RELEASE_V1.0.2/MSDK/lwip/lwip-2.1.2/src/core\udp.c **** 
 1345              		.loc 1 695 1
 1346 00ca 3E85     		mv	a0,a5
 1347 00cc 17030000 		tail	__riscv_restore_0
 1347      67000300 
 1348              		.cfi_remember_state
 1349              		.cfi_restore 1
 1350              		.cfi_def_cfa_offset 0
 1351              	.LVL163:
 1352              	.L141:
 1353              		.cfi_restore_state
 1354              	.LBB34:
 1355              	.LBB33:
 682:C:/Users/stapi/OneDrive/Desktop/GD32VW553/GD32VW55X_Wifi_BLE_SDK/GD32VW55x_RELEASE_V1.0.2/MSDK/lwip/lwip-2.1.2/src/core\udp.c ****         /* local_ip doesn't match, drop the packet */
 1356              		.loc 1 682 7 is_stmt 1
 682:C:/Users/stapi/OneDrive/Desktop/GD32VW553/GD32VW55X_Wifi_BLE_SDK/GD32VW55x_RELEASE_V1.0.2/MSDK/lwip/lwip-2.1.2/src/core\udp.c ****         /* local_ip doesn't match, drop the packet */
 1357              		.loc 1 682 10 is_stmt 0
 1358 00d4 83284700 		lw	a7,4(a4)
 684:C:/Users/stapi/OneDrive/Desktop/GD32VW553/GD32VW55X_Wifi_BLE_SDK/GD32VW55x_RELEASE_V1.0.2/MSDK/lwip/lwip-2.1.2/src/core\udp.c ****       }
 1359              		.loc 1 684 16
 1360 00d8 F157     		li	a5,-4
 682:C:/Users/stapi/OneDrive/Desktop/GD32VW553/GD32VW55X_Wifi_BLE_SDK/GD32VW55x_RELEASE_V1.0.2/MSDK/lwip/lwip-2.1.2/src/core\udp.c ****         /* local_ip doesn't match, drop the packet */
 1361              		.loc 1 682 10
 1362 00da E31818FF 		bne	a6,a7,.L143
 674:C:/Users/stapi/OneDrive/Desktop/GD32VW553/GD32VW55X_Wifi_BLE_SDK/GD32VW55x_RELEASE_V1.0.2/MSDK/lwip/lwip-2.1.2/src/core\udp.c ****         ip4_addr_ismulticast(ip_2_ip4(&pcb->local_ip))) {
 1363              		.loc 1 674 9
 1364 00de AA87     		mv	a5,a0
 1365 00e0 C5B7     		j	.L142
 1366              	.LBE33:
 1367              	.LBE34:
 1368              		.cfi_endproc
 1369              	.LFE10:
 1371              		.section	.rodata.udp_sendto.str1.4,"aMS",@progbits,1
 1372              		.align	2
 1373              	.LC16:
 1374 0000 7564705F 		.string	"udp_sendto: invalid pcb"
 1374      73656E64 
 1374      746F3A20 
 1374      696E7661 
 1374      6C696420 
 1375              		.align	2
 1376              	.LC17:
 1377 0018 7564705F 		.string	"udp_sendto: invalid pbuf"
 1377      73656E64 
 1377      746F3A20 
 1377      696E7661 
 1377      6C696420 
 1378 0031 000000   		.align	2
 1379              	.LC18:
 1380 0034 7564705F 		.string	"udp_sendto: invalid dst_ip"
 1380      73656E64 
 1380      746F3A20 
 1380      696E7661 
 1380      6C696420 
 1381              		.section	.text.udp_sendto,"ax",@progbits
 1382              		.align	1
 1383              		.globl	udp_sendto
 1385              	udp_sendto:
 1386              	.LFB9:
 523:C:/Users/stapi/OneDrive/Desktop/GD32VW553/GD32VW55X_Wifi_BLE_SDK/GD32VW55x_RELEASE_V1.0.2/MSDK/lwip/lwip-2.1.2/src/core\udp.c **** #if LWIP_CHECKSUM_ON_COPY && CHECKSUM_GEN_UDP
 1387              		.loc 1 523 1 is_stmt 1
 1388              		.cfi_startproc
 1389              	.LVL164:
 1390 0000 17030000 		call	t0,__riscv_save_4
 1390      E7020300 
 1391              		.cfi_offset 19, -20
 1392              		.cfi_offset 18, -16
 1393              		.cfi_offset 9, -12
 1394              		.cfi_offset 8, -8
 1395              		.cfi_offset 1, -4
 1396              		.cfi_def_cfa_offset 32
 535:C:/Users/stapi/OneDrive/Desktop/GD32VW553/GD32VW55X_Wifi_BLE_SDK/GD32VW55x_RELEASE_V1.0.2/MSDK/lwip/lwip-2.1.2/src/core\udp.c **** 
 1397              		.loc 1 535 3
 537:C:/Users/stapi/OneDrive/Desktop/GD32VW553/GD32VW55X_Wifi_BLE_SDK/GD32VW55x_RELEASE_V1.0.2/MSDK/lwip/lwip-2.1.2/src/core\udp.c ****   LWIP_ERROR("udp_sendto: invalid pbuf", p != NULL, return ERR_ARG);
 1398              		.loc 1 537 3
 537:C:/Users/stapi/OneDrive/Desktop/GD32VW553/GD32VW55X_Wifi_BLE_SDK/GD32VW55x_RELEASE_V1.0.2/MSDK/lwip/lwip-2.1.2/src/core\udp.c ****   LWIP_ERROR("udp_sendto: invalid pbuf", p != NULL, return ERR_ARG);
 1399              		.loc 1 537 3
 1400 0008 05E5     		bne	a0,zero,.L150
 537:C:/Users/stapi/OneDrive/Desktop/GD32VW553/GD32VW55X_Wifi_BLE_SDK/GD32VW55x_RELEASE_V1.0.2/MSDK/lwip/lwip-2.1.2/src/core\udp.c ****   LWIP_ERROR("udp_sendto: invalid pbuf", p != NULL, return ERR_ARG);
 1401              		.loc 1 537 3 discriminator 1
 537:C:/Users/stapi/OneDrive/Desktop/GD32VW553/GD32VW55X_Wifi_BLE_SDK/GD32VW55x_RELEASE_V1.0.2/MSDK/lwip/lwip-2.1.2/src/core\udp.c ****   LWIP_ERROR("udp_sendto: invalid pbuf", p != NULL, return ERR_ARG);
 1402              		.loc 1 537 3 discriminator 1
 1403 000a B7060000 		lui	a3,%hi(.LC0)
 1404              	.LVL165:
 1405 000e B7050000 		lui	a1,%hi(.LC16)
 1406              	.LVL166:
 1407 0012 37050000 		lui	a0,%hi(.LC2)
 1408              	.LVL167:
 1409 0016 93860600 		addi	a3,a3,%lo(.LC0)
 1410 001a 13069021 		li	a2,537
 1411              	.LVL168:
 1412 001e 93850500 		addi	a1,a1,%lo(.LC16)
 1413 0022 13050500 		addi	a0,a0,%lo(.LC2)
 1414 0026 97000000 		call	printf
 1414      E7800000 
 1415              	.LVL169:
 1416              	.L151:
 537:C:/Users/stapi/OneDrive/Desktop/GD32VW553/GD32VW55X_Wifi_BLE_SDK/GD32VW55x_RELEASE_V1.0.2/MSDK/lwip/lwip-2.1.2/src/core\udp.c ****   LWIP_ERROR("udp_sendto: invalid pbuf", p != NULL, return ERR_ARG);
 1417              		.loc 1 537 3 discriminator 1
 537:C:/Users/stapi/OneDrive/Desktop/GD32VW553/GD32VW55X_Wifi_BLE_SDK/GD32VW55x_RELEASE_V1.0.2/MSDK/lwip/lwip-2.1.2/src/core\udp.c ****   LWIP_ERROR("udp_sendto: invalid pbuf", p != NULL, return ERR_ARG);
 1418              		.loc 1 537 3 discriminator 1
 537:C:/Users/stapi/OneDrive/Desktop/GD32VW553/GD32VW55X_Wifi_BLE_SDK/GD32VW55x_RELEASE_V1.0.2/MSDK/lwip/lwip-2.1.2/src/core\udp.c ****   LWIP_ERROR("udp_sendto: invalid pbuf", p != NULL, return ERR_ARG);
 1419              		.loc 1 537 3 discriminator 1
 1420 002e 01A0     		j	.L151
 1421              	.LVL170:
 1422              	.L150:
 1423 0030 2E89     		mv	s2,a1
 537:C:/Users/stapi/OneDrive/Desktop/GD32VW553/GD32VW55X_Wifi_BLE_SDK/GD32VW55x_RELEASE_V1.0.2/MSDK/lwip/lwip-2.1.2/src/core\udp.c ****   LWIP_ERROR("udp_sendto: invalid pbuf", p != NULL, return ERR_ARG);
 1424              		.loc 1 537 3 discriminator 2
 538:C:/Users/stapi/OneDrive/Desktop/GD32VW553/GD32VW55X_Wifi_BLE_SDK/GD32VW55x_RELEASE_V1.0.2/MSDK/lwip/lwip-2.1.2/src/core\udp.c ****   LWIP_ERROR("udp_sendto: invalid dst_ip", dst_ip != NULL, return ERR_ARG);
 1425              		.loc 1 538 3 discriminator 2
 538:C:/Users/stapi/OneDrive/Desktop/GD32VW553/GD32VW55X_Wifi_BLE_SDK/GD32VW55x_RELEASE_V1.0.2/MSDK/lwip/lwip-2.1.2/src/core\udp.c ****   LWIP_ERROR("udp_sendto: invalid dst_ip", dst_ip != NULL, return ERR_ARG);
 1426              		.loc 1 538 3 discriminator 2
 1427 0032 85E5     		bne	a1,zero,.L152
 538:C:/Users/stapi/OneDrive/Desktop/GD32VW553/GD32VW55X_Wifi_BLE_SDK/GD32VW55x_RELEASE_V1.0.2/MSDK/lwip/lwip-2.1.2/src/core\udp.c ****   LWIP_ERROR("udp_sendto: invalid dst_ip", dst_ip != NULL, return ERR_ARG);
 1428              		.loc 1 538 3 discriminator 1
 538:C:/Users/stapi/OneDrive/Desktop/GD32VW553/GD32VW55X_Wifi_BLE_SDK/GD32VW55x_RELEASE_V1.0.2/MSDK/lwip/lwip-2.1.2/src/core\udp.c ****   LWIP_ERROR("udp_sendto: invalid dst_ip", dst_ip != NULL, return ERR_ARG);
 1429              		.loc 1 538 3 discriminator 1
 1430 0034 B7060000 		lui	a3,%hi(.LC0)
 1431              	.LVL171:
 1432 0038 B7050000 		lui	a1,%hi(.LC17)
 1433              	.LVL172:
 1434 003c 37050000 		lui	a0,%hi(.LC2)
 1435              	.LVL173:
 1436 0040 93860600 		addi	a3,a3,%lo(.LC0)
 1437 0044 1306A021 		li	a2,538
 1438              	.LVL174:
 1439 0048 93850500 		addi	a1,a1,%lo(.LC17)
 1440 004c 13050500 		addi	a0,a0,%lo(.LC2)
 1441 0050 97000000 		call	printf
 1441      E7800000 
 1442              	.LVL175:
 1443              	.L153:
 538:C:/Users/stapi/OneDrive/Desktop/GD32VW553/GD32VW55X_Wifi_BLE_SDK/GD32VW55x_RELEASE_V1.0.2/MSDK/lwip/lwip-2.1.2/src/core\udp.c ****   LWIP_ERROR("udp_sendto: invalid dst_ip", dst_ip != NULL, return ERR_ARG);
 1444              		.loc 1 538 3 discriminator 2
 538:C:/Users/stapi/OneDrive/Desktop/GD32VW553/GD32VW55X_Wifi_BLE_SDK/GD32VW55x_RELEASE_V1.0.2/MSDK/lwip/lwip-2.1.2/src/core\udp.c ****   LWIP_ERROR("udp_sendto: invalid dst_ip", dst_ip != NULL, return ERR_ARG);
 1445              		.loc 1 538 3 discriminator 2
 538:C:/Users/stapi/OneDrive/Desktop/GD32VW553/GD32VW55X_Wifi_BLE_SDK/GD32VW55x_RELEASE_V1.0.2/MSDK/lwip/lwip-2.1.2/src/core\udp.c ****   LWIP_ERROR("udp_sendto: invalid dst_ip", dst_ip != NULL, return ERR_ARG);
 1446              		.loc 1 538 3 discriminator 2
 1447 0058 01A0     		j	.L153
 1448              	.LVL176:
 1449              	.L152:
 1450 005a B284     		mv	s1,a2
 1451              	.LVL177:
 1452              	.LBB37:
 1453              	.LBB38:
 538:C:/Users/stapi/OneDrive/Desktop/GD32VW553/GD32VW55X_Wifi_BLE_SDK/GD32VW55x_RELEASE_V1.0.2/MSDK/lwip/lwip-2.1.2/src/core\udp.c ****   LWIP_ERROR("udp_sendto: invalid dst_ip", dst_ip != NULL, return ERR_ARG);
 1454              		.loc 1 538 3
 539:C:/Users/stapi/OneDrive/Desktop/GD32VW553/GD32VW55X_Wifi_BLE_SDK/GD32VW55x_RELEASE_V1.0.2/MSDK/lwip/lwip-2.1.2/src/core\udp.c **** 
 1455              		.loc 1 539 3
 539:C:/Users/stapi/OneDrive/Desktop/GD32VW553/GD32VW55X_Wifi_BLE_SDK/GD32VW55x_RELEASE_V1.0.2/MSDK/lwip/lwip-2.1.2/src/core\udp.c **** 
 1456              		.loc 1 539 3
 1457 005c 05E6     		bne	a2,zero,.L154
 1458              	.LVL178:
 539:C:/Users/stapi/OneDrive/Desktop/GD32VW553/GD32VW55X_Wifi_BLE_SDK/GD32VW55x_RELEASE_V1.0.2/MSDK/lwip/lwip-2.1.2/src/core\udp.c **** 
 1459              		.loc 1 539 3
 539:C:/Users/stapi/OneDrive/Desktop/GD32VW553/GD32VW55X_Wifi_BLE_SDK/GD32VW55x_RELEASE_V1.0.2/MSDK/lwip/lwip-2.1.2/src/core\udp.c **** 
 1460              		.loc 1 539 3
 1461 005e B7060000 		lui	a3,%hi(.LC0)
 1462              	.LVL179:
 1463 0062 B7050000 		lui	a1,%hi(.LC18)
 1464              	.LVL180:
 1465 0066 37050000 		lui	a0,%hi(.LC2)
 1466              	.LVL181:
 1467 006a 93860600 		addi	a3,a3,%lo(.LC0)
 1468 006e 1306B021 		li	a2,539
 1469 0072 93850500 		addi	a1,a1,%lo(.LC18)
 1470 0076 13050500 		addi	a0,a0,%lo(.LC2)
 1471 007a 97000000 		call	printf
 1471      E7800000 
 1472              	.LVL182:
 1473              	.L155:
 539:C:/Users/stapi/OneDrive/Desktop/GD32VW553/GD32VW55X_Wifi_BLE_SDK/GD32VW55x_RELEASE_V1.0.2/MSDK/lwip/lwip-2.1.2/src/core\udp.c **** 
 1474              		.loc 1 539 3
 539:C:/Users/stapi/OneDrive/Desktop/GD32VW553/GD32VW55X_Wifi_BLE_SDK/GD32VW55x_RELEASE_V1.0.2/MSDK/lwip/lwip-2.1.2/src/core\udp.c **** 
 1475              		.loc 1 539 3
 539:C:/Users/stapi/OneDrive/Desktop/GD32VW553/GD32VW55X_Wifi_BLE_SDK/GD32VW55x_RELEASE_V1.0.2/MSDK/lwip/lwip-2.1.2/src/core\udp.c **** 
 1476              		.loc 1 539 3
 1477 0082 01A0     		j	.L155
 1478              	.LVL183:
 1479              	.L154:
 1480 0084 2A84     		mv	s0,a0
 547:C:/Users/stapi/OneDrive/Desktop/GD32VW553/GD32VW55X_Wifi_BLE_SDK/GD32VW55x_RELEASE_V1.0.2/MSDK/lwip/lwip-2.1.2/src/core\udp.c ****     netif = netif_get_by_index(pcb->netif_idx);
 1481              		.loc 1 547 10 is_stmt 0
 1482 0086 03458500 		lbu	a0,8(a0)
 1483              	.LVL184:
 1484 008a B689     		mv	s3,a3
 539:C:/Users/stapi/OneDrive/Desktop/GD32VW553/GD32VW55X_Wifi_BLE_SDK/GD32VW55x_RELEASE_V1.0.2/MSDK/lwip/lwip-2.1.2/src/core\udp.c **** 
 1485              		.loc 1 539 3 is_stmt 1
 541:C:/Users/stapi/OneDrive/Desktop/GD32VW553/GD32VW55X_Wifi_BLE_SDK/GD32VW55x_RELEASE_V1.0.2/MSDK/lwip/lwip-2.1.2/src/core\udp.c ****     return ERR_VAL;
 1486              		.loc 1 541 3
 545:C:/Users/stapi/OneDrive/Desktop/GD32VW553/GD32VW55X_Wifi_BLE_SDK/GD32VW55x_RELEASE_V1.0.2/MSDK/lwip/lwip-2.1.2/src/core\udp.c **** 
 1487              		.loc 1 545 58
 547:C:/Users/stapi/OneDrive/Desktop/GD32VW553/GD32VW55X_Wifi_BLE_SDK/GD32VW55x_RELEASE_V1.0.2/MSDK/lwip/lwip-2.1.2/src/core\udp.c ****     netif = netif_get_by_index(pcb->netif_idx);
 1488              		.loc 1 547 3
 547:C:/Users/stapi/OneDrive/Desktop/GD32VW553/GD32VW55X_Wifi_BLE_SDK/GD32VW55x_RELEASE_V1.0.2/MSDK/lwip/lwip-2.1.2/src/core\udp.c ****     netif = netif_get_by_index(pcb->netif_idx);
 1489              		.loc 1 547 6 is_stmt 0
 1490 008c 05C5     		beq	a0,zero,.L156
 548:C:/Users/stapi/OneDrive/Desktop/GD32VW553/GD32VW55X_Wifi_BLE_SDK/GD32VW55x_RELEASE_V1.0.2/MSDK/lwip/lwip-2.1.2/src/core\udp.c ****   } else {
 1491              		.loc 1 548 5 is_stmt 1
 548:C:/Users/stapi/OneDrive/Desktop/GD32VW553/GD32VW55X_Wifi_BLE_SDK/GD32VW55x_RELEASE_V1.0.2/MSDK/lwip/lwip-2.1.2/src/core\udp.c ****   } else {
 1492              		.loc 1 548 13 is_stmt 0
 1493 008e 97000000 		call	netif_get_by_index
 1493      E7800000 
 1494              	.LVL185:
 1495              	.L173:
 585:C:/Users/stapi/OneDrive/Desktop/GD32VW553/GD32VW55X_Wifi_BLE_SDK/GD32VW55x_RELEASE_V1.0.2/MSDK/lwip/lwip-2.1.2/src/core\udp.c ****     }
 1496              		.loc 1 585 15
 1497 0096 2A87     		mv	a4,a0
 1498              	.LVL186:
 590:C:/Users/stapi/OneDrive/Desktop/GD32VW553/GD32VW55X_Wifi_BLE_SDK/GD32VW55x_RELEASE_V1.0.2/MSDK/lwip/lwip-2.1.2/src/core\udp.c ****     LWIP_DEBUGF(UDP_DEBUG | LWIP_DBG_LEVEL_SERIOUS, ("udp_send: No route to "));
 1499              		.loc 1 590 3 is_stmt 1
 595:C:/Users/stapi/OneDrive/Desktop/GD32VW553/GD32VW55X_Wifi_BLE_SDK/GD32VW55x_RELEASE_V1.0.2/MSDK/lwip/lwip-2.1.2/src/core\udp.c ****   }
 1500              		.loc 1 595 12 is_stmt 0
 1501 0098 7155     		li	a0,-4
 1502              	.LVL187:
 590:C:/Users/stapi/OneDrive/Desktop/GD32VW553/GD32VW55X_Wifi_BLE_SDK/GD32VW55x_RELEASE_V1.0.2/MSDK/lwip/lwip-2.1.2/src/core\udp.c ****     LWIP_DEBUGF(UDP_DEBUG | LWIP_DBG_LEVEL_SERIOUS, ("udp_send: No route to "));
 1503              		.loc 1 590 6
 1504 009a 09CB     		beq	a4,zero,.L163
 1505              	.L162:
 600:C:/Users/stapi/OneDrive/Desktop/GD32VW553/GD32VW55X_Wifi_BLE_SDK/GD32VW55x_RELEASE_V1.0.2/MSDK/lwip/lwip-2.1.2/src/core\udp.c **** #endif /* LWIP_CHECKSUM_ON_COPY && CHECKSUM_GEN_UDP */
 1506              		.loc 1 600 3 is_stmt 1
 600:C:/Users/stapi/OneDrive/Desktop/GD32VW553/GD32VW55X_Wifi_BLE_SDK/GD32VW55x_RELEASE_V1.0.2/MSDK/lwip/lwip-2.1.2/src/core\udp.c **** #endif /* LWIP_CHECKSUM_ON_COPY && CHECKSUM_GEN_UDP */
 1507              		.loc 1 600 10 is_stmt 0
 1508 009c CE86     		mv	a3,s3
 1509 009e 2686     		mv	a2,s1
 1510 00a0 CA85     		mv	a1,s2
 1511 00a2 2285     		mv	a0,s0
 1512 00a4 97000000 		call	udp_sendto_if
 1512      E7800000 
 1513              	.LVL188:
 1514              	.L163:
 1515              	.LBE38:
 1516              	.LBE37:
 602:C:/Users/stapi/OneDrive/Desktop/GD32VW553/GD32VW55X_Wifi_BLE_SDK/GD32VW55x_RELEASE_V1.0.2/MSDK/lwip/lwip-2.1.2/src/core\udp.c **** 
 1517              		.loc 1 602 1
 1518 00ac 17030000 		tail	__riscv_restore_4
 1518      67000300 
 1519              		.cfi_remember_state
 1520              		.cfi_restore 19
 1521              		.cfi_restore 18
 1522              		.cfi_restore 9
 1523              		.cfi_restore 8
 1524              		.cfi_restore 1
 1525              		.cfi_def_cfa_offset 0
 1526              	.LVL189:
 1527              	.L156:
 1528              		.cfi_restore_state
 1529              	.LBB40:
 1530              	.LBB39:
 551:C:/Users/stapi/OneDrive/Desktop/GD32VW553/GD32VW55X_Wifi_BLE_SDK/GD32VW55x_RELEASE_V1.0.2/MSDK/lwip/lwip-2.1.2/src/core\udp.c ****     if (ip_addr_ismulticast(dst_ip)) {
 1531              		.loc 1 551 5 is_stmt 1
 552:C:/Users/stapi/OneDrive/Desktop/GD32VW553/GD32VW55X_Wifi_BLE_SDK/GD32VW55x_RELEASE_V1.0.2/MSDK/lwip/lwip-2.1.2/src/core\udp.c ****       /* For IPv6, the interface to use for packets with a multicast destination
 1532              		.loc 1 552 5
 552:C:/Users/stapi/OneDrive/Desktop/GD32VW553/GD32VW55X_Wifi_BLE_SDK/GD32VW55x_RELEASE_V1.0.2/MSDK/lwip/lwip-2.1.2/src/core\udp.c ****       /* For IPv6, the interface to use for packets with a multicast destination
 1533              		.loc 1 552 9 is_stmt 0
 1534 00b4 1C42     		lw	a5,0(a2)
 552:C:/Users/stapi/OneDrive/Desktop/GD32VW553/GD32VW55X_Wifi_BLE_SDK/GD32VW55x_RELEASE_V1.0.2/MSDK/lwip/lwip-2.1.2/src/core\udp.c ****       /* For IPv6, the interface to use for packets with a multicast destination
 1535              		.loc 1 552 8
 1536 00b6 1307000E 		li	a4,224
 552:C:/Users/stapi/OneDrive/Desktop/GD32VW553/GD32VW55X_Wifi_BLE_SDK/GD32VW55x_RELEASE_V1.0.2/MSDK/lwip/lwip-2.1.2/src/core\udp.c ****       /* For IPv6, the interface to use for packets with a multicast destination
 1537              		.loc 1 552 9
 1538 00ba 93F7070F 		andi	a5,a5,240
 552:C:/Users/stapi/OneDrive/Desktop/GD32VW553/GD32VW55X_Wifi_BLE_SDK/GD32VW55x_RELEASE_V1.0.2/MSDK/lwip/lwip-2.1.2/src/core\udp.c ****       /* For IPv6, the interface to use for packets with a multicast destination
 1539              		.loc 1 552 8
 1540 00be 6388E700 		beq	a5,a4,.L158
 1541              	.LVL190:
 1542              	.L161:
 585:C:/Users/stapi/OneDrive/Desktop/GD32VW553/GD32VW55X_Wifi_BLE_SDK/GD32VW55x_RELEASE_V1.0.2/MSDK/lwip/lwip-2.1.2/src/core\udp.c ****     }
 1543              		.loc 1 585 7 is_stmt 1
 585:C:/Users/stapi/OneDrive/Desktop/GD32VW553/GD32VW55X_Wifi_BLE_SDK/GD32VW55x_RELEASE_V1.0.2/MSDK/lwip/lwip-2.1.2/src/core\udp.c ****     }
 1544              		.loc 1 585 15 is_stmt 0
 1545 00c2 2685     		mv	a0,s1
 1546 00c4 97000000 		call	ip4_route
 1546      E7800000 
 1547              	.LVL191:
 1548 00cc E9B7     		j	.L173
 1549              	.LVL192:
 1550              	.L158:
 559:C:/Users/stapi/OneDrive/Desktop/GD32VW553/GD32VW55X_Wifi_BLE_SDK/GD32VW55x_RELEASE_V1.0.2/MSDK/lwip/lwip-2.1.2/src/core\udp.c ****         netif = netif_get_by_index(pcb->mcast_ifindex);
 1551              		.loc 1 559 7 is_stmt 1
 559:C:/Users/stapi/OneDrive/Desktop/GD32VW553/GD32VW55X_Wifi_BLE_SDK/GD32VW55x_RELEASE_V1.0.2/MSDK/lwip/lwip-2.1.2/src/core\udp.c ****         netif = netif_get_by_index(pcb->mcast_ifindex);
 1552              		.loc 1 559 14 is_stmt 0
 1553 00ce 0345C401 		lbu	a0,28(s0)
 559:C:/Users/stapi/OneDrive/Desktop/GD32VW553/GD32VW55X_Wifi_BLE_SDK/GD32VW55x_RELEASE_V1.0.2/MSDK/lwip/lwip-2.1.2/src/core\udp.c ****         netif = netif_get_by_index(pcb->mcast_ifindex);
 1554              		.loc 1 559 10
 1555 00d2 01C9     		beq	a0,zero,.L159
 560:C:/Users/stapi/OneDrive/Desktop/GD32VW553/GD32VW55X_Wifi_BLE_SDK/GD32VW55x_RELEASE_V1.0.2/MSDK/lwip/lwip-2.1.2/src/core\udp.c ****       }
 1556              		.loc 1 560 9 is_stmt 1
 560:C:/Users/stapi/OneDrive/Desktop/GD32VW553/GD32VW55X_Wifi_BLE_SDK/GD32VW55x_RELEASE_V1.0.2/MSDK/lwip/lwip-2.1.2/src/core\udp.c ****       }
 1557              		.loc 1 560 17 is_stmt 0
 1558 00d4 97000000 		call	netif_get_by_index
 1558      E7800000 
 1559              	.LVL193:
 1560              	.L172:
 575:C:/Users/stapi/OneDrive/Desktop/GD32VW553/GD32VW55X_Wifi_BLE_SDK/GD32VW55x_RELEASE_V1.0.2/MSDK/lwip/lwip-2.1.2/src/core\udp.c ****           }
 1561              		.loc 1 575 21
 1562 00dc 2A87     		mv	a4,a0
 1563              	.LVL194:
 581:C:/Users/stapi/OneDrive/Desktop/GD32VW553/GD32VW55X_Wifi_BLE_SDK/GD32VW55x_RELEASE_V1.0.2/MSDK/lwip/lwip-2.1.2/src/core\udp.c **** #endif /* LWIP_MULTICAST_TX_OPTIONS */
 1564              		.loc 1 581 5 is_stmt 1
 581:C:/Users/stapi/OneDrive/Desktop/GD32VW553/GD32VW55X_Wifi_BLE_SDK/GD32VW55x_RELEASE_V1.0.2/MSDK/lwip/lwip-2.1.2/src/core\udp.c **** #endif /* LWIP_MULTICAST_TX_OPTIONS */
 1565              		.loc 1 581 8 is_stmt 0
 1566 00de 5DFD     		bne	a0,zero,.L162
 1567 00e0 CDB7     		j	.L161
 1568              	.LVL195:
 1569              	.L159:
 573:C:/Users/stapi/OneDrive/Desktop/GD32VW553/GD32VW55X_Wifi_BLE_SDK/GD32VW55x_RELEASE_V1.0.2/MSDK/lwip/lwip-2.1.2/src/core\udp.c ****               !ip4_addr_cmp(&pcb->mcast_ip4, IP4_ADDR_BROADCAST)) {
 1570              		.loc 1 573 11 is_stmt 1
 573:C:/Users/stapi/OneDrive/Desktop/GD32VW553/GD32VW55X_Wifi_BLE_SDK/GD32VW55x_RELEASE_V1.0.2/MSDK/lwip/lwip-2.1.2/src/core\udp.c ****               !ip4_addr_cmp(&pcb->mcast_ip4, IP4_ADDR_BROADCAST)) {
 1571              		.loc 1 573 16 is_stmt 0
 1572 00e2 1C4C     		lw	a5,24(s0)
 573:C:/Users/stapi/OneDrive/Desktop/GD32VW553/GD32VW55X_Wifi_BLE_SDK/GD32VW55x_RELEASE_V1.0.2/MSDK/lwip/lwip-2.1.2/src/core\udp.c ****               !ip4_addr_cmp(&pcb->mcast_ip4, IP4_ADDR_BROADCAST)) {
 1573              		.loc 1 573 14
 1574 00e4 F9DF     		beq	a5,zero,.L161
 574:C:/Users/stapi/OneDrive/Desktop/GD32VW553/GD32VW55X_Wifi_BLE_SDK/GD32VW55x_RELEASE_V1.0.2/MSDK/lwip/lwip-2.1.2/src/core\udp.c ****             netif = ip4_route_src(ip_2_ip4(&pcb->local_ip), &pcb->mcast_ip4);
 1575              		.loc 1 574 16
 1576 00e6 37070000 		lui	a4,%hi(ip_addr_broadcast)
 573:C:/Users/stapi/OneDrive/Desktop/GD32VW553/GD32VW55X_Wifi_BLE_SDK/GD32VW55x_RELEASE_V1.0.2/MSDK/lwip/lwip-2.1.2/src/core\udp.c ****               !ip4_addr_cmp(&pcb->mcast_ip4, IP4_ADDR_BROADCAST)) {
 1577              		.loc 1 573 51
 1578 00ea 03270700 		lw	a4,%lo(ip_addr_broadcast)(a4)
 1579 00ee E38AE7FC 		beq	a5,a4,.L161
 575:C:/Users/stapi/OneDrive/Desktop/GD32VW553/GD32VW55X_Wifi_BLE_SDK/GD32VW55x_RELEASE_V1.0.2/MSDK/lwip/lwip-2.1.2/src/core\udp.c ****           }
 1580              		.loc 1 575 13 is_stmt 1
 575:C:/Users/stapi/OneDrive/Desktop/GD32VW553/GD32VW55X_Wifi_BLE_SDK/GD32VW55x_RELEASE_V1.0.2/MSDK/lwip/lwip-2.1.2/src/core\udp.c ****           }
 1581              		.loc 1 575 21 is_stmt 0
 1582 00f2 13058401 		addi	a0,s0,24
 1583 00f6 97000000 		call	ip4_route
 1583      E7800000 
 1584              	.LVL196:
 1585 00fe F9BF     		j	.L172
 1586              	.LBE39:
 1587              	.LBE40:
 1588              		.cfi_endproc
 1589              	.LFE9:
 1591              		.section	.rodata.udp_send.str1.4,"aMS",@progbits,1
 1592              		.align	2
 1593              	.LC19:
 1594 0000 7564705F 		.string	"udp_send: invalid pcb"
 1594      73656E64 
 1594      3A20696E 
 1594      76616C69 
 1594      64207063 
 1595 0016 0000     		.align	2
 1596              	.LC20:
 1597 0018 7564705F 		.string	"udp_send: invalid pbuf"
 1597      73656E64 
 1597      3A20696E 
 1597      76616C69 
 1597      64207062 
 1598              		.section	.text.udp_send,"ax",@progbits
 1599              		.align	1
 1600              		.globl	udp_send
 1602              	udp_send:
 1603              	.LFB8:
 469:C:/Users/stapi/OneDrive/Desktop/GD32VW553/GD32VW55X_Wifi_BLE_SDK/GD32VW55x_RELEASE_V1.0.2/MSDK/lwip/lwip-2.1.2/src/core\udp.c ****   LWIP_ERROR("udp_send: invalid pcb", pcb != NULL, return ERR_ARG);
 1604              		.loc 1 469 1 is_stmt 1
 1605              		.cfi_startproc
 1606              	.LVL197:
 1607 0000 17030000 		call	t0,__riscv_save_0
 1607      E7020300 
 1608              		.cfi_offset 1, -4
 1609              		.cfi_def_cfa_offset 16
 470:C:/Users/stapi/OneDrive/Desktop/GD32VW553/GD32VW55X_Wifi_BLE_SDK/GD32VW55x_RELEASE_V1.0.2/MSDK/lwip/lwip-2.1.2/src/core\udp.c ****   LWIP_ERROR("udp_send: invalid pbuf", p != NULL, return ERR_ARG);
 1610              		.loc 1 470 3
 470:C:/Users/stapi/OneDrive/Desktop/GD32VW553/GD32VW55X_Wifi_BLE_SDK/GD32VW55x_RELEASE_V1.0.2/MSDK/lwip/lwip-2.1.2/src/core\udp.c ****   LWIP_ERROR("udp_send: invalid pbuf", p != NULL, return ERR_ARG);
 1611              		.loc 1 470 3
 1612 0008 05E5     		bne	a0,zero,.L175
 470:C:/Users/stapi/OneDrive/Desktop/GD32VW553/GD32VW55X_Wifi_BLE_SDK/GD32VW55x_RELEASE_V1.0.2/MSDK/lwip/lwip-2.1.2/src/core\udp.c ****   LWIP_ERROR("udp_send: invalid pbuf", p != NULL, return ERR_ARG);
 1613              		.loc 1 470 3 discriminator 1
 470:C:/Users/stapi/OneDrive/Desktop/GD32VW553/GD32VW55X_Wifi_BLE_SDK/GD32VW55x_RELEASE_V1.0.2/MSDK/lwip/lwip-2.1.2/src/core\udp.c ****   LWIP_ERROR("udp_send: invalid pbuf", p != NULL, return ERR_ARG);
 1614              		.loc 1 470 3 discriminator 1
 1615 000a B7060000 		lui	a3,%hi(.LC0)
 1616 000e B7050000 		lui	a1,%hi(.LC19)
 1617              	.LVL198:
 1618 0012 37050000 		lui	a0,%hi(.LC2)
 1619              	.LVL199:
 1620 0016 93860600 		addi	a3,a3,%lo(.LC0)
 1621 001a 1306601D 		li	a2,470
 1622 001e 93850500 		addi	a1,a1,%lo(.LC19)
 1623 0022 13050500 		addi	a0,a0,%lo(.LC2)
 1624 0026 97000000 		call	printf
 1624      E7800000 
 1625              	.LVL200:
 1626              	.L176:
 470:C:/Users/stapi/OneDrive/Desktop/GD32VW553/GD32VW55X_Wifi_BLE_SDK/GD32VW55x_RELEASE_V1.0.2/MSDK/lwip/lwip-2.1.2/src/core\udp.c ****   LWIP_ERROR("udp_send: invalid pbuf", p != NULL, return ERR_ARG);
 1627              		.loc 1 470 3 discriminator 1
 470:C:/Users/stapi/OneDrive/Desktop/GD32VW553/GD32VW55X_Wifi_BLE_SDK/GD32VW55x_RELEASE_V1.0.2/MSDK/lwip/lwip-2.1.2/src/core\udp.c ****   LWIP_ERROR("udp_send: invalid pbuf", p != NULL, return ERR_ARG);
 1628              		.loc 1 470 3 discriminator 1
 470:C:/Users/stapi/OneDrive/Desktop/GD32VW553/GD32VW55X_Wifi_BLE_SDK/GD32VW55x_RELEASE_V1.0.2/MSDK/lwip/lwip-2.1.2/src/core\udp.c ****   LWIP_ERROR("udp_send: invalid pbuf", p != NULL, return ERR_ARG);
 1629              		.loc 1 470 3 discriminator 1
 1630 002e 01A0     		j	.L176
 1631              	.LVL201:
 1632              	.L175:
 470:C:/Users/stapi/OneDrive/Desktop/GD32VW553/GD32VW55X_Wifi_BLE_SDK/GD32VW55x_RELEASE_V1.0.2/MSDK/lwip/lwip-2.1.2/src/core\udp.c ****   LWIP_ERROR("udp_send: invalid pbuf", p != NULL, return ERR_ARG);
 1633              		.loc 1 470 3 discriminator 2
 471:C:/Users/stapi/OneDrive/Desktop/GD32VW553/GD32VW55X_Wifi_BLE_SDK/GD32VW55x_RELEASE_V1.0.2/MSDK/lwip/lwip-2.1.2/src/core\udp.c **** 
 1634              		.loc 1 471 3 discriminator 2
 471:C:/Users/stapi/OneDrive/Desktop/GD32VW553/GD32VW55X_Wifi_BLE_SDK/GD32VW55x_RELEASE_V1.0.2/MSDK/lwip/lwip-2.1.2/src/core\udp.c **** 
 1635              		.loc 1 471 3 discriminator 2
 1636 0030 85E5     		bne	a1,zero,.L177
 471:C:/Users/stapi/OneDrive/Desktop/GD32VW553/GD32VW55X_Wifi_BLE_SDK/GD32VW55x_RELEASE_V1.0.2/MSDK/lwip/lwip-2.1.2/src/core\udp.c **** 
 1637              		.loc 1 471 3 discriminator 1
 471:C:/Users/stapi/OneDrive/Desktop/GD32VW553/GD32VW55X_Wifi_BLE_SDK/GD32VW55x_RELEASE_V1.0.2/MSDK/lwip/lwip-2.1.2/src/core\udp.c **** 
 1638              		.loc 1 471 3 discriminator 1
 1639 0032 B7060000 		lui	a3,%hi(.LC0)
 1640 0036 B7050000 		lui	a1,%hi(.LC20)
 1641              	.LVL202:
 1642 003a 37050000 		lui	a0,%hi(.LC2)
 1643              	.LVL203:
 1644 003e 93860600 		addi	a3,a3,%lo(.LC0)
 1645 0042 1306701D 		li	a2,471
 1646 0046 93850500 		addi	a1,a1,%lo(.LC20)
 1647 004a 13050500 		addi	a0,a0,%lo(.LC2)
 1648 004e 97000000 		call	printf
 1648      E7800000 
 1649              	.LVL204:
 1650              	.L178:
 471:C:/Users/stapi/OneDrive/Desktop/GD32VW553/GD32VW55X_Wifi_BLE_SDK/GD32VW55x_RELEASE_V1.0.2/MSDK/lwip/lwip-2.1.2/src/core\udp.c **** 
 1651              		.loc 1 471 3 discriminator 2
 471:C:/Users/stapi/OneDrive/Desktop/GD32VW553/GD32VW55X_Wifi_BLE_SDK/GD32VW55x_RELEASE_V1.0.2/MSDK/lwip/lwip-2.1.2/src/core\udp.c **** 
 1652              		.loc 1 471 3 discriminator 2
 471:C:/Users/stapi/OneDrive/Desktop/GD32VW553/GD32VW55X_Wifi_BLE_SDK/GD32VW55x_RELEASE_V1.0.2/MSDK/lwip/lwip-2.1.2/src/core\udp.c **** 
 1653              		.loc 1 471 3 discriminator 2
 1654 0056 01A0     		j	.L178
 1655              	.LVL205:
 1656              	.L177:
 471:C:/Users/stapi/OneDrive/Desktop/GD32VW553/GD32VW55X_Wifi_BLE_SDK/GD32VW55x_RELEASE_V1.0.2/MSDK/lwip/lwip-2.1.2/src/core\udp.c **** 
 1657              		.loc 1 471 3
 473:C:/Users/stapi/OneDrive/Desktop/GD32VW553/GD32VW55X_Wifi_BLE_SDK/GD32VW55x_RELEASE_V1.0.2/MSDK/lwip/lwip-2.1.2/src/core\udp.c ****     return ERR_VAL;
 1658              		.loc 1 473 3
 478:C:/Users/stapi/OneDrive/Desktop/GD32VW553/GD32VW55X_Wifi_BLE_SDK/GD32VW55x_RELEASE_V1.0.2/MSDK/lwip/lwip-2.1.2/src/core\udp.c **** }
 1659              		.loc 1 478 3
 478:C:/Users/stapi/OneDrive/Desktop/GD32VW553/GD32VW55X_Wifi_BLE_SDK/GD32VW55x_RELEASE_V1.0.2/MSDK/lwip/lwip-2.1.2/src/core\udp.c **** }
 1660              		.loc 1 478 10 is_stmt 0
 1661 0058 83564501 		lhu	a3,20(a0)
 1662 005c 13064500 		addi	a2,a0,4
 1663 0060 97000000 		call	udp_sendto
 1663      E7800000 
 1664              	.LVL206:
 479:C:/Users/stapi/OneDrive/Desktop/GD32VW553/GD32VW55X_Wifi_BLE_SDK/GD32VW55x_RELEASE_V1.0.2/MSDK/lwip/lwip-2.1.2/src/core\udp.c **** 
 1665              		.loc 1 479 1
 1666 0068 17030000 		tail	__riscv_restore_0
 1666      67000300 
 1667              		.cfi_restore 1
 1668              		.cfi_def_cfa_offset 0
 1669              		.cfi_endproc
 1670              	.LFE8:
 1672              		.section	.text.udp_bind_netif,"ax",@progbits
 1673              		.align	1
 1674              		.globl	udp_bind_netif
 1676              	udp_bind_netif:
 1677              	.LFB13:
1029:C:/Users/stapi/OneDrive/Desktop/GD32VW553/GD32VW55X_Wifi_BLE_SDK/GD32VW55x_RELEASE_V1.0.2/MSDK/lwip/lwip-2.1.2/src/core\udp.c **** 
1030:C:/Users/stapi/OneDrive/Desktop/GD32VW553/GD32VW55X_Wifi_BLE_SDK/GD32VW55x_RELEASE_V1.0.2/MSDK/lwip/lwip-2.1.2/src/core\udp.c **** /**
1031:C:/Users/stapi/OneDrive/Desktop/GD32VW553/GD32VW55X_Wifi_BLE_SDK/GD32VW55x_RELEASE_V1.0.2/MSDK/lwip/lwip-2.1.2/src/core\udp.c ****  * @ingroup udp_raw
1032:C:/Users/stapi/OneDrive/Desktop/GD32VW553/GD32VW55X_Wifi_BLE_SDK/GD32VW55x_RELEASE_V1.0.2/MSDK/lwip/lwip-2.1.2/src/core\udp.c ****  * Bind an UDP PCB to a specific netif.
1033:C:/Users/stapi/OneDrive/Desktop/GD32VW553/GD32VW55X_Wifi_BLE_SDK/GD32VW55x_RELEASE_V1.0.2/MSDK/lwip/lwip-2.1.2/src/core\udp.c ****  * After calling this function, all packets received via this PCB
1034:C:/Users/stapi/OneDrive/Desktop/GD32VW553/GD32VW55X_Wifi_BLE_SDK/GD32VW55x_RELEASE_V1.0.2/MSDK/lwip/lwip-2.1.2/src/core\udp.c ****  * are guaranteed to have come in via the specified netif, and all
1035:C:/Users/stapi/OneDrive/Desktop/GD32VW553/GD32VW55X_Wifi_BLE_SDK/GD32VW55x_RELEASE_V1.0.2/MSDK/lwip/lwip-2.1.2/src/core\udp.c ****  * outgoing packets will go out via the specified netif.
1036:C:/Users/stapi/OneDrive/Desktop/GD32VW553/GD32VW55X_Wifi_BLE_SDK/GD32VW55x_RELEASE_V1.0.2/MSDK/lwip/lwip-2.1.2/src/core\udp.c ****  *
1037:C:/Users/stapi/OneDrive/Desktop/GD32VW553/GD32VW55X_Wifi_BLE_SDK/GD32VW55x_RELEASE_V1.0.2/MSDK/lwip/lwip-2.1.2/src/core\udp.c ****  * @param pcb UDP PCB to be bound.
1038:C:/Users/stapi/OneDrive/Desktop/GD32VW553/GD32VW55X_Wifi_BLE_SDK/GD32VW55x_RELEASE_V1.0.2/MSDK/lwip/lwip-2.1.2/src/core\udp.c ****  * @param netif netif to bind udp pcb to. Can be NULL.
1039:C:/Users/stapi/OneDrive/Desktop/GD32VW553/GD32VW55X_Wifi_BLE_SDK/GD32VW55x_RELEASE_V1.0.2/MSDK/lwip/lwip-2.1.2/src/core\udp.c ****  *
1040:C:/Users/stapi/OneDrive/Desktop/GD32VW553/GD32VW55X_Wifi_BLE_SDK/GD32VW55x_RELEASE_V1.0.2/MSDK/lwip/lwip-2.1.2/src/core\udp.c ****  * @see udp_disconnect()
1041:C:/Users/stapi/OneDrive/Desktop/GD32VW553/GD32VW55X_Wifi_BLE_SDK/GD32VW55x_RELEASE_V1.0.2/MSDK/lwip/lwip-2.1.2/src/core\udp.c ****  */
1042:C:/Users/stapi/OneDrive/Desktop/GD32VW553/GD32VW55X_Wifi_BLE_SDK/GD32VW55x_RELEASE_V1.0.2/MSDK/lwip/lwip-2.1.2/src/core\udp.c **** void
1043:C:/Users/stapi/OneDrive/Desktop/GD32VW553/GD32VW55X_Wifi_BLE_SDK/GD32VW55x_RELEASE_V1.0.2/MSDK/lwip/lwip-2.1.2/src/core\udp.c **** udp_bind_netif(struct udp_pcb *pcb, const struct netif *netif)
1044:C:/Users/stapi/OneDrive/Desktop/GD32VW553/GD32VW55X_Wifi_BLE_SDK/GD32VW55x_RELEASE_V1.0.2/MSDK/lwip/lwip-2.1.2/src/core\udp.c **** {
 1678              		.loc 1 1044 1 is_stmt 1
 1679              		.cfi_startproc
 1680              	.LVL207:
1045:C:/Users/stapi/OneDrive/Desktop/GD32VW553/GD32VW55X_Wifi_BLE_SDK/GD32VW55x_RELEASE_V1.0.2/MSDK/lwip/lwip-2.1.2/src/core\udp.c ****   LWIP_ASSERT_CORE_LOCKED();
 1681              		.loc 1 1045 28
1046:C:/Users/stapi/OneDrive/Desktop/GD32VW553/GD32VW55X_Wifi_BLE_SDK/GD32VW55x_RELEASE_V1.0.2/MSDK/lwip/lwip-2.1.2/src/core\udp.c **** 
1047:C:/Users/stapi/OneDrive/Desktop/GD32VW553/GD32VW55X_Wifi_BLE_SDK/GD32VW55x_RELEASE_V1.0.2/MSDK/lwip/lwip-2.1.2/src/core\udp.c ****   if (netif != NULL) {
 1682              		.loc 1 1047 3
1048:C:/Users/stapi/OneDrive/Desktop/GD32VW553/GD32VW55X_Wifi_BLE_SDK/GD32VW55x_RELEASE_V1.0.2/MSDK/lwip/lwip-2.1.2/src/core\udp.c ****     pcb->netif_idx = netif_get_index(netif);
1049:C:/Users/stapi/OneDrive/Desktop/GD32VW553/GD32VW55X_Wifi_BLE_SDK/GD32VW55x_RELEASE_V1.0.2/MSDK/lwip/lwip-2.1.2/src/core\udp.c ****   } else {
1050:C:/Users/stapi/OneDrive/Desktop/GD32VW553/GD32VW55X_Wifi_BLE_SDK/GD32VW55x_RELEASE_V1.0.2/MSDK/lwip/lwip-2.1.2/src/core\udp.c ****     pcb->netif_idx = NETIF_NO_INDEX;
 1683              		.loc 1 1050 20 is_stmt 0
 1684 0000 8147     		li	a5,0
1047:C:/Users/stapi/OneDrive/Desktop/GD32VW553/GD32VW55X_Wifi_BLE_SDK/GD32VW55x_RELEASE_V1.0.2/MSDK/lwip/lwip-2.1.2/src/core\udp.c ****     pcb->netif_idx = netif_get_index(netif);
 1685              		.loc 1 1047 6
 1686 0002 91C5     		beq	a1,zero,.L181
1048:C:/Users/stapi/OneDrive/Desktop/GD32VW553/GD32VW55X_Wifi_BLE_SDK/GD32VW55x_RELEASE_V1.0.2/MSDK/lwip/lwip-2.1.2/src/core\udp.c ****     pcb->netif_idx = netif_get_index(netif);
 1687              		.loc 1 1048 5 is_stmt 1
1048:C:/Users/stapi/OneDrive/Desktop/GD32VW553/GD32VW55X_Wifi_BLE_SDK/GD32VW55x_RELEASE_V1.0.2/MSDK/lwip/lwip-2.1.2/src/core\udp.c ****     pcb->netif_idx = netif_get_index(netif);
 1688              		.loc 1 1048 22 is_stmt 0
 1689 0004 83C74503 		lbu	a5,52(a1)
 1690 0008 8507     		addi	a5,a5,1
 1691 000a 93F7F70F 		andi	a5,a5,0xff
 1692              	.L181:
 1693 000e 2304F500 		sb	a5,8(a0)
1051:C:/Users/stapi/OneDrive/Desktop/GD32VW553/GD32VW55X_Wifi_BLE_SDK/GD32VW55x_RELEASE_V1.0.2/MSDK/lwip/lwip-2.1.2/src/core\udp.c ****   }
1052:C:/Users/stapi/OneDrive/Desktop/GD32VW553/GD32VW55X_Wifi_BLE_SDK/GD32VW55x_RELEASE_V1.0.2/MSDK/lwip/lwip-2.1.2/src/core\udp.c **** }
 1694              		.loc 1 1052 1
 1695 0012 8280     		ret
 1696              		.cfi_endproc
 1697              	.LFE13:
 1699              		.section	.rodata.udp_connect.str1.4,"aMS",@progbits,1
 1700              		.align	2
 1701              	.LC21:
 1702 0000 7564705F 		.string	"udp_connect: invalid pcb"
 1702      636F6E6E 
 1702      6563743A 
 1702      20696E76 
 1702      616C6964 
 1703 0019 000000   		.align	2
 1704              	.LC22:
 1705 001c 7564705F 		.string	"udp_connect: invalid ipaddr"
 1705      636F6E6E 
 1705      6563743A 
 1705      20696E76 
 1705      616C6964 
 1706              		.section	.text.udp_connect,"ax",@progbits
 1707              		.align	1
 1708              		.globl	udp_connect
 1710              	udp_connect:
 1711              	.LFB14:
1053:C:/Users/stapi/OneDrive/Desktop/GD32VW553/GD32VW55X_Wifi_BLE_SDK/GD32VW55x_RELEASE_V1.0.2/MSDK/lwip/lwip-2.1.2/src/core\udp.c **** 
1054:C:/Users/stapi/OneDrive/Desktop/GD32VW553/GD32VW55X_Wifi_BLE_SDK/GD32VW55x_RELEASE_V1.0.2/MSDK/lwip/lwip-2.1.2/src/core\udp.c **** /**
1055:C:/Users/stapi/OneDrive/Desktop/GD32VW553/GD32VW55X_Wifi_BLE_SDK/GD32VW55x_RELEASE_V1.0.2/MSDK/lwip/lwip-2.1.2/src/core\udp.c ****  * @ingroup udp_raw
1056:C:/Users/stapi/OneDrive/Desktop/GD32VW553/GD32VW55X_Wifi_BLE_SDK/GD32VW55x_RELEASE_V1.0.2/MSDK/lwip/lwip-2.1.2/src/core\udp.c ****  * Sets the remote end of the pcb. This function does not generate any
1057:C:/Users/stapi/OneDrive/Desktop/GD32VW553/GD32VW55X_Wifi_BLE_SDK/GD32VW55x_RELEASE_V1.0.2/MSDK/lwip/lwip-2.1.2/src/core\udp.c ****  * network traffic, but only sets the remote address of the pcb.
1058:C:/Users/stapi/OneDrive/Desktop/GD32VW553/GD32VW55X_Wifi_BLE_SDK/GD32VW55x_RELEASE_V1.0.2/MSDK/lwip/lwip-2.1.2/src/core\udp.c ****  *
1059:C:/Users/stapi/OneDrive/Desktop/GD32VW553/GD32VW55X_Wifi_BLE_SDK/GD32VW55x_RELEASE_V1.0.2/MSDK/lwip/lwip-2.1.2/src/core\udp.c ****  * @param pcb UDP PCB to be connected with remote address ipaddr and port.
1060:C:/Users/stapi/OneDrive/Desktop/GD32VW553/GD32VW55X_Wifi_BLE_SDK/GD32VW55x_RELEASE_V1.0.2/MSDK/lwip/lwip-2.1.2/src/core\udp.c ****  * @param ipaddr remote IP address to connect with.
1061:C:/Users/stapi/OneDrive/Desktop/GD32VW553/GD32VW55X_Wifi_BLE_SDK/GD32VW55x_RELEASE_V1.0.2/MSDK/lwip/lwip-2.1.2/src/core\udp.c ****  * @param port remote UDP port to connect with.
1062:C:/Users/stapi/OneDrive/Desktop/GD32VW553/GD32VW55X_Wifi_BLE_SDK/GD32VW55x_RELEASE_V1.0.2/MSDK/lwip/lwip-2.1.2/src/core\udp.c ****  *
1063:C:/Users/stapi/OneDrive/Desktop/GD32VW553/GD32VW55X_Wifi_BLE_SDK/GD32VW55x_RELEASE_V1.0.2/MSDK/lwip/lwip-2.1.2/src/core\udp.c ****  * @return lwIP error code
1064:C:/Users/stapi/OneDrive/Desktop/GD32VW553/GD32VW55X_Wifi_BLE_SDK/GD32VW55x_RELEASE_V1.0.2/MSDK/lwip/lwip-2.1.2/src/core\udp.c ****  *
1065:C:/Users/stapi/OneDrive/Desktop/GD32VW553/GD32VW55X_Wifi_BLE_SDK/GD32VW55x_RELEASE_V1.0.2/MSDK/lwip/lwip-2.1.2/src/core\udp.c ****  * ipaddr & port are expected to be in the same byte order as in the pcb.
1066:C:/Users/stapi/OneDrive/Desktop/GD32VW553/GD32VW55X_Wifi_BLE_SDK/GD32VW55x_RELEASE_V1.0.2/MSDK/lwip/lwip-2.1.2/src/core\udp.c ****  *
1067:C:/Users/stapi/OneDrive/Desktop/GD32VW553/GD32VW55X_Wifi_BLE_SDK/GD32VW55x_RELEASE_V1.0.2/MSDK/lwip/lwip-2.1.2/src/core\udp.c ****  * The udp pcb is bound to a random local port if not already bound.
1068:C:/Users/stapi/OneDrive/Desktop/GD32VW553/GD32VW55X_Wifi_BLE_SDK/GD32VW55x_RELEASE_V1.0.2/MSDK/lwip/lwip-2.1.2/src/core\udp.c ****  *
1069:C:/Users/stapi/OneDrive/Desktop/GD32VW553/GD32VW55X_Wifi_BLE_SDK/GD32VW55x_RELEASE_V1.0.2/MSDK/lwip/lwip-2.1.2/src/core\udp.c ****  * @see udp_disconnect()
1070:C:/Users/stapi/OneDrive/Desktop/GD32VW553/GD32VW55X_Wifi_BLE_SDK/GD32VW55x_RELEASE_V1.0.2/MSDK/lwip/lwip-2.1.2/src/core\udp.c ****  */
1071:C:/Users/stapi/OneDrive/Desktop/GD32VW553/GD32VW55X_Wifi_BLE_SDK/GD32VW55x_RELEASE_V1.0.2/MSDK/lwip/lwip-2.1.2/src/core\udp.c **** err_t
1072:C:/Users/stapi/OneDrive/Desktop/GD32VW553/GD32VW55X_Wifi_BLE_SDK/GD32VW55x_RELEASE_V1.0.2/MSDK/lwip/lwip-2.1.2/src/core\udp.c **** udp_connect(struct udp_pcb *pcb, const ip_addr_t *ipaddr, u16_t port)
1073:C:/Users/stapi/OneDrive/Desktop/GD32VW553/GD32VW55X_Wifi_BLE_SDK/GD32VW55x_RELEASE_V1.0.2/MSDK/lwip/lwip-2.1.2/src/core\udp.c **** {
 1712              		.loc 1 1073 1 is_stmt 1
 1713              		.cfi_startproc
 1714              	.LVL208:
 1715 0000 17030000 		call	t0,__riscv_save_3
 1715      E7020300 
 1716              		.cfi_offset 18, -16
 1717              		.cfi_offset 9, -12
 1718              		.cfi_offset 8, -8
 1719              		.cfi_offset 1, -4
 1720              		.cfi_def_cfa_offset 16
1074:C:/Users/stapi/OneDrive/Desktop/GD32VW553/GD32VW55X_Wifi_BLE_SDK/GD32VW55x_RELEASE_V1.0.2/MSDK/lwip/lwip-2.1.2/src/core\udp.c **** /* FT TAG */
1075:C:/Users/stapi/OneDrive/Desktop/GD32VW553/GD32VW55X_Wifi_BLE_SDK/GD32VW55x_RELEASE_V1.0.2/MSDK/lwip/lwip-2.1.2/src/core\udp.c ****   struct netif *netif = NULL;
 1721              		.loc 1 1075 3
 1722              	.LVL209:
1076:C:/Users/stapi/OneDrive/Desktop/GD32VW553/GD32VW55X_Wifi_BLE_SDK/GD32VW55x_RELEASE_V1.0.2/MSDK/lwip/lwip-2.1.2/src/core\udp.c **** /* FT TAG */
1077:C:/Users/stapi/OneDrive/Desktop/GD32VW553/GD32VW55X_Wifi_BLE_SDK/GD32VW55x_RELEASE_V1.0.2/MSDK/lwip/lwip-2.1.2/src/core\udp.c ****   struct udp_pcb *ipcb;
 1723              		.loc 1 1077 3
1078:C:/Users/stapi/OneDrive/Desktop/GD32VW553/GD32VW55X_Wifi_BLE_SDK/GD32VW55x_RELEASE_V1.0.2/MSDK/lwip/lwip-2.1.2/src/core\udp.c **** 
1079:C:/Users/stapi/OneDrive/Desktop/GD32VW553/GD32VW55X_Wifi_BLE_SDK/GD32VW55x_RELEASE_V1.0.2/MSDK/lwip/lwip-2.1.2/src/core\udp.c ****   LWIP_ASSERT_CORE_LOCKED();
 1724              		.loc 1 1079 28
1080:C:/Users/stapi/OneDrive/Desktop/GD32VW553/GD32VW55X_Wifi_BLE_SDK/GD32VW55x_RELEASE_V1.0.2/MSDK/lwip/lwip-2.1.2/src/core\udp.c **** 
1081:C:/Users/stapi/OneDrive/Desktop/GD32VW553/GD32VW55X_Wifi_BLE_SDK/GD32VW55x_RELEASE_V1.0.2/MSDK/lwip/lwip-2.1.2/src/core\udp.c ****   LWIP_ERROR("udp_connect: invalid pcb", pcb != NULL, return ERR_ARG);
 1725              		.loc 1 1081 3
 1726              		.loc 1 1081 3
 1727 0008 05E5     		bne	a0,zero,.L184
 1728              		.loc 1 1081 3 discriminator 1
 1729              		.loc 1 1081 3 discriminator 1
 1730 000a B7060000 		lui	a3,%hi(.LC0)
 1731 000e B7050000 		lui	a1,%hi(.LC21)
 1732              	.LVL210:
 1733 0012 37050000 		lui	a0,%hi(.LC2)
 1734              	.LVL211:
 1735 0016 93860600 		addi	a3,a3,%lo(.LC0)
 1736 001a 13069043 		li	a2,1081
 1737              	.LVL212:
 1738 001e 93850500 		addi	a1,a1,%lo(.LC21)
 1739 0022 13050500 		addi	a0,a0,%lo(.LC2)
 1740 0026 97000000 		call	printf
 1740      E7800000 
 1741              	.LVL213:
 1742              	.L185:
 1743              		.loc 1 1081 3 discriminator 1
 1744              		.loc 1 1081 3 discriminator 1
 1745              		.loc 1 1081 3 discriminator 1
 1746 002e 01A0     		j	.L185
 1747              	.LVL214:
 1748              	.L184:
 1749 0030 AE84     		mv	s1,a1
 1750              		.loc 1 1081 3 discriminator 2
1082:C:/Users/stapi/OneDrive/Desktop/GD32VW553/GD32VW55X_Wifi_BLE_SDK/GD32VW55x_RELEASE_V1.0.2/MSDK/lwip/lwip-2.1.2/src/core\udp.c ****   LWIP_ERROR("udp_connect: invalid ipaddr", ipaddr != NULL, return ERR_ARG);
 1751              		.loc 1 1082 3 discriminator 2
 1752              		.loc 1 1082 3 discriminator 2
 1753 0032 85E5     		bne	a1,zero,.L186
 1754              	.LVL215:
 1755              		.loc 1 1082 3 discriminator 1
 1756              		.loc 1 1082 3 discriminator 1
 1757 0034 B7060000 		lui	a3,%hi(.LC0)
 1758 0038 B7050000 		lui	a1,%hi(.LC22)
 1759 003c 37050000 		lui	a0,%hi(.LC2)
 1760              	.LVL216:
 1761 0040 93860600 		addi	a3,a3,%lo(.LC0)
 1762 0044 1306A043 		li	a2,1082
 1763              	.LVL217:
 1764 0048 93850500 		addi	a1,a1,%lo(.LC22)
 1765 004c 13050500 		addi	a0,a0,%lo(.LC2)
 1766 0050 97000000 		call	printf
 1766      E7800000 
 1767              	.LVL218:
 1768              	.L187:
 1769              		.loc 1 1082 3 discriminator 2
 1770              		.loc 1 1082 3 discriminator 2
 1771              		.loc 1 1082 3 discriminator 2
 1772 0058 01A0     		j	.L187
 1773              	.LVL219:
 1774              	.L186:
1083:C:/Users/stapi/OneDrive/Desktop/GD32VW553/GD32VW55X_Wifi_BLE_SDK/GD32VW55x_RELEASE_V1.0.2/MSDK/lwip/lwip-2.1.2/src/core\udp.c **** 
1084:C:/Users/stapi/OneDrive/Desktop/GD32VW553/GD32VW55X_Wifi_BLE_SDK/GD32VW55x_RELEASE_V1.0.2/MSDK/lwip/lwip-2.1.2/src/core\udp.c ****   if (pcb->local_port == 0) {
 1775              		.loc 1 1084 6 is_stmt 0 discriminator 2
 1776 005a 83572501 		lhu	a5,18(a0)
 1777 005e 2A84     		mv	s0,a0
 1778 0060 3289     		mv	s2,a2
1082:C:/Users/stapi/OneDrive/Desktop/GD32VW553/GD32VW55X_Wifi_BLE_SDK/GD32VW55x_RELEASE_V1.0.2/MSDK/lwip/lwip-2.1.2/src/core\udp.c ****   LWIP_ERROR("udp_connect: invalid ipaddr", ipaddr != NULL, return ERR_ARG);
 1779              		.loc 1 1082 3 is_stmt 1 discriminator 2
 1780              		.loc 1 1084 3 discriminator 2
 1781              		.loc 1 1084 6 is_stmt 0 discriminator 2
 1782 0062 8DC7     		beq	a5,zero,.L188
 1783              	.LVL220:
 1784              	.L192:
1085:C:/Users/stapi/OneDrive/Desktop/GD32VW553/GD32VW55X_Wifi_BLE_SDK/GD32VW55x_RELEASE_V1.0.2/MSDK/lwip/lwip-2.1.2/src/core\udp.c ****     err_t err = udp_bind(pcb, &pcb->local_ip, pcb->local_port);
1086:C:/Users/stapi/OneDrive/Desktop/GD32VW553/GD32VW55X_Wifi_BLE_SDK/GD32VW55x_RELEASE_V1.0.2/MSDK/lwip/lwip-2.1.2/src/core\udp.c ****     if (err != ERR_OK) {
1087:C:/Users/stapi/OneDrive/Desktop/GD32VW553/GD32VW55X_Wifi_BLE_SDK/GD32VW55x_RELEASE_V1.0.2/MSDK/lwip/lwip-2.1.2/src/core\udp.c ****       return err;
1088:C:/Users/stapi/OneDrive/Desktop/GD32VW553/GD32VW55X_Wifi_BLE_SDK/GD32VW55x_RELEASE_V1.0.2/MSDK/lwip/lwip-2.1.2/src/core\udp.c ****     }
1089:C:/Users/stapi/OneDrive/Desktop/GD32VW553/GD32VW55X_Wifi_BLE_SDK/GD32VW55x_RELEASE_V1.0.2/MSDK/lwip/lwip-2.1.2/src/core\udp.c ****   }
1090:C:/Users/stapi/OneDrive/Desktop/GD32VW553/GD32VW55X_Wifi_BLE_SDK/GD32VW55x_RELEASE_V1.0.2/MSDK/lwip/lwip-2.1.2/src/core\udp.c **** 
1091:C:/Users/stapi/OneDrive/Desktop/GD32VW553/GD32VW55X_Wifi_BLE_SDK/GD32VW55x_RELEASE_V1.0.2/MSDK/lwip/lwip-2.1.2/src/core\udp.c ****   ip_addr_set_ipaddr(&pcb->remote_ip, ipaddr);
 1785              		.loc 1 1091 3 is_stmt 1
 1786 0064 9C40     		lw	a5,0(s1)
1092:C:/Users/stapi/OneDrive/Desktop/GD32VW553/GD32VW55X_Wifi_BLE_SDK/GD32VW55x_RELEASE_V1.0.2/MSDK/lwip/lwip-2.1.2/src/core\udp.c **** #if LWIP_IPV6 && LWIP_IPV6_SCOPES
1093:C:/Users/stapi/OneDrive/Desktop/GD32VW553/GD32VW55X_Wifi_BLE_SDK/GD32VW55x_RELEASE_V1.0.2/MSDK/lwip/lwip-2.1.2/src/core\udp.c ****   /* If the given IP address should have a zone but doesn't, assign one now,
1094:C:/Users/stapi/OneDrive/Desktop/GD32VW553/GD32VW55X_Wifi_BLE_SDK/GD32VW55x_RELEASE_V1.0.2/MSDK/lwip/lwip-2.1.2/src/core\udp.c ****    * using the bound address to make a more informed decision when possible. */
1095:C:/Users/stapi/OneDrive/Desktop/GD32VW553/GD32VW55X_Wifi_BLE_SDK/GD32VW55x_RELEASE_V1.0.2/MSDK/lwip/lwip-2.1.2/src/core\udp.c ****   if (IP_IS_V6(&pcb->remote_ip) &&
1096:C:/Users/stapi/OneDrive/Desktop/GD32VW553/GD32VW55X_Wifi_BLE_SDK/GD32VW55x_RELEASE_V1.0.2/MSDK/lwip/lwip-2.1.2/src/core\udp.c ****       ip6_addr_lacks_zone(ip_2_ip6(&pcb->remote_ip), IP6_UNKNOWN)) {
1097:C:/Users/stapi/OneDrive/Desktop/GD32VW553/GD32VW55X_Wifi_BLE_SDK/GD32VW55x_RELEASE_V1.0.2/MSDK/lwip/lwip-2.1.2/src/core\udp.c ****     ip6_addr_select_zone(ip_2_ip6(&pcb->remote_ip), ip_2_ip6(&pcb->local_ip));
1098:C:/Users/stapi/OneDrive/Desktop/GD32VW553/GD32VW55X_Wifi_BLE_SDK/GD32VW55x_RELEASE_V1.0.2/MSDK/lwip/lwip-2.1.2/src/core\udp.c ****   }
1099:C:/Users/stapi/OneDrive/Desktop/GD32VW553/GD32VW55X_Wifi_BLE_SDK/GD32VW55x_RELEASE_V1.0.2/MSDK/lwip/lwip-2.1.2/src/core\udp.c **** #endif /* LWIP_IPV6 && LWIP_IPV6_SCOPES */
1100:C:/Users/stapi/OneDrive/Desktop/GD32VW553/GD32VW55X_Wifi_BLE_SDK/GD32VW55x_RELEASE_V1.0.2/MSDK/lwip/lwip-2.1.2/src/core\udp.c **** 
1101:C:/Users/stapi/OneDrive/Desktop/GD32VW553/GD32VW55X_Wifi_BLE_SDK/GD32VW55x_RELEASE_V1.0.2/MSDK/lwip/lwip-2.1.2/src/core\udp.c ****   pcb->remote_port = port;
1102:C:/Users/stapi/OneDrive/Desktop/GD32VW553/GD32VW55X_Wifi_BLE_SDK/GD32VW55x_RELEASE_V1.0.2/MSDK/lwip/lwip-2.1.2/src/core\udp.c ****   pcb->flags |= UDP_FLAGS_CONNECTED;
1103:C:/Users/stapi/OneDrive/Desktop/GD32VW553/GD32VW55X_Wifi_BLE_SDK/GD32VW55x_RELEASE_V1.0.2/MSDK/lwip/lwip-2.1.2/src/core\udp.c **** /* FT TAG */
1104:C:/Users/stapi/OneDrive/Desktop/GD32VW553/GD32VW55X_Wifi_BLE_SDK/GD32VW55x_RELEASE_V1.0.2/MSDK/lwip/lwip-2.1.2/src/core\udp.c ****   if (pcb->netif_idx != NETIF_NO_INDEX) {
 1787              		.loc 1 1104 10 is_stmt 0
 1788 0066 03458400 		lbu	a0,8(s0)
1101:C:/Users/stapi/OneDrive/Desktop/GD32VW553/GD32VW55X_Wifi_BLE_SDK/GD32VW55x_RELEASE_V1.0.2/MSDK/lwip/lwip-2.1.2/src/core\udp.c ****   pcb->flags |= UDP_FLAGS_CONNECTED;
 1789              		.loc 1 1101 20
 1790 006a 231A2401 		sh	s2,20(s0)
1091:C:/Users/stapi/OneDrive/Desktop/GD32VW553/GD32VW55X_Wifi_BLE_SDK/GD32VW55x_RELEASE_V1.0.2/MSDK/lwip/lwip-2.1.2/src/core\udp.c **** #if LWIP_IPV6 && LWIP_IPV6_SCOPES
 1791              		.loc 1 1091 3
 1792 006e 5CC0     		sw	a5,4(s0)
1101:C:/Users/stapi/OneDrive/Desktop/GD32VW553/GD32VW55X_Wifi_BLE_SDK/GD32VW55x_RELEASE_V1.0.2/MSDK/lwip/lwip-2.1.2/src/core\udp.c ****   pcb->flags |= UDP_FLAGS_CONNECTED;
 1793              		.loc 1 1101 3 is_stmt 1
1102:C:/Users/stapi/OneDrive/Desktop/GD32VW553/GD32VW55X_Wifi_BLE_SDK/GD32VW55x_RELEASE_V1.0.2/MSDK/lwip/lwip-2.1.2/src/core\udp.c **** /* FT TAG */
 1794              		.loc 1 1102 3
1102:C:/Users/stapi/OneDrive/Desktop/GD32VW553/GD32VW55X_Wifi_BLE_SDK/GD32VW55x_RELEASE_V1.0.2/MSDK/lwip/lwip-2.1.2/src/core\udp.c **** /* FT TAG */
 1795              		.loc 1 1102 14 is_stmt 0
 1796 0070 83470401 		lbu	a5,16(s0)
 1797 0074 93E74700 		ori	a5,a5,4
 1798 0078 2308F400 		sb	a5,16(s0)
 1799              		.loc 1 1104 3 is_stmt 1
 1800              		.loc 1 1104 6 is_stmt 0
 1801 007c 1DE1     		bne	a0,zero,.L189
1105:C:/Users/stapi/OneDrive/Desktop/GD32VW553/GD32VW55X_Wifi_BLE_SDK/GD32VW55x_RELEASE_V1.0.2/MSDK/lwip/lwip-2.1.2/src/core\udp.c ****     netif = netif_get_by_index(pcb->netif_idx);
1106:C:/Users/stapi/OneDrive/Desktop/GD32VW553/GD32VW55X_Wifi_BLE_SDK/GD32VW55x_RELEASE_V1.0.2/MSDK/lwip/lwip-2.1.2/src/core\udp.c ****   } else {
1107:C:/Users/stapi/OneDrive/Desktop/GD32VW553/GD32VW55X_Wifi_BLE_SDK/GD32VW55x_RELEASE_V1.0.2/MSDK/lwip/lwip-2.1.2/src/core\udp.c ****     /* check if we have a route to the remote host */
1108:C:/Users/stapi/OneDrive/Desktop/GD32VW553/GD32VW55X_Wifi_BLE_SDK/GD32VW55x_RELEASE_V1.0.2/MSDK/lwip/lwip-2.1.2/src/core\udp.c ****     netif = ip_route(&pcb->local_ip, &pcb->remote_ip);
 1802              		.loc 1 1108 5 is_stmt 1
 1803              		.loc 1 1108 13 is_stmt 0
 1804 007e 13054400 		addi	a0,s0,4
 1805 0082 97000000 		call	ip4_route
 1805      E7800000 
 1806              	.LVL221:
 1807 008a 05A0     		j	.L201
 1808              	.LVL222:
 1809              	.L188:
 1810              	.LBB41:
1085:C:/Users/stapi/OneDrive/Desktop/GD32VW553/GD32VW55X_Wifi_BLE_SDK/GD32VW55x_RELEASE_V1.0.2/MSDK/lwip/lwip-2.1.2/src/core\udp.c ****     if (err != ERR_OK) {
 1811              		.loc 1 1085 5 is_stmt 1
1085:C:/Users/stapi/OneDrive/Desktop/GD32VW553/GD32VW55X_Wifi_BLE_SDK/GD32VW55x_RELEASE_V1.0.2/MSDK/lwip/lwip-2.1.2/src/core\udp.c ****     if (err != ERR_OK) {
 1812              		.loc 1 1085 17 is_stmt 0
 1813 008c 0146     		li	a2,0
 1814              	.LVL223:
 1815 008e AA85     		mv	a1,a0
 1816 0090 97000000 		call	udp_bind
 1816      E7800000 
 1817              	.LVL224:
1086:C:/Users/stapi/OneDrive/Desktop/GD32VW553/GD32VW55X_Wifi_BLE_SDK/GD32VW55x_RELEASE_V1.0.2/MSDK/lwip/lwip-2.1.2/src/core\udp.c ****       return err;
 1818              		.loc 1 1086 5 is_stmt 1
1086:C:/Users/stapi/OneDrive/Desktop/GD32VW553/GD32VW55X_Wifi_BLE_SDK/GD32VW55x_RELEASE_V1.0.2/MSDK/lwip/lwip-2.1.2/src/core\udp.c ****       return err;
 1819              		.loc 1 1086 8 is_stmt 0
 1820 0098 71D5     		beq	a0,zero,.L192
 1821              	.LVL225:
 1822              	.L191:
 1823              	.LBE41:
1109:C:/Users/stapi/OneDrive/Desktop/GD32VW553/GD32VW55X_Wifi_BLE_SDK/GD32VW55x_RELEASE_V1.0.2/MSDK/lwip/lwip-2.1.2/src/core\udp.c ****   }
1110:C:/Users/stapi/OneDrive/Desktop/GD32VW553/GD32VW55X_Wifi_BLE_SDK/GD32VW55x_RELEASE_V1.0.2/MSDK/lwip/lwip-2.1.2/src/core\udp.c ****   if (netif == NULL) {
1111:C:/Users/stapi/OneDrive/Desktop/GD32VW553/GD32VW55X_Wifi_BLE_SDK/GD32VW55x_RELEASE_V1.0.2/MSDK/lwip/lwip-2.1.2/src/core\udp.c ****     /* Don't even try to send a SYN packet if we have no route since that will fail. */
1112:C:/Users/stapi/OneDrive/Desktop/GD32VW553/GD32VW55X_Wifi_BLE_SDK/GD32VW55x_RELEASE_V1.0.2/MSDK/lwip/lwip-2.1.2/src/core\udp.c ****     return ERR_RTE;
1113:C:/Users/stapi/OneDrive/Desktop/GD32VW553/GD32VW55X_Wifi_BLE_SDK/GD32VW55x_RELEASE_V1.0.2/MSDK/lwip/lwip-2.1.2/src/core\udp.c ****   }
1114:C:/Users/stapi/OneDrive/Desktop/GD32VW553/GD32VW55X_Wifi_BLE_SDK/GD32VW55x_RELEASE_V1.0.2/MSDK/lwip/lwip-2.1.2/src/core\udp.c **** 
1115:C:/Users/stapi/OneDrive/Desktop/GD32VW553/GD32VW55X_Wifi_BLE_SDK/GD32VW55x_RELEASE_V1.0.2/MSDK/lwip/lwip-2.1.2/src/core\udp.c ****   /* check if local IP has been assigned to pcb, if not, get one */
1116:C:/Users/stapi/OneDrive/Desktop/GD32VW553/GD32VW55X_Wifi_BLE_SDK/GD32VW55x_RELEASE_V1.0.2/MSDK/lwip/lwip-2.1.2/src/core\udp.c ****   if (ip_addr_isany(&pcb->local_ip)) {
1117:C:/Users/stapi/OneDrive/Desktop/GD32VW553/GD32VW55X_Wifi_BLE_SDK/GD32VW55x_RELEASE_V1.0.2/MSDK/lwip/lwip-2.1.2/src/core\udp.c ****     const ip_addr_t *local_ip = ip_netif_get_local_ip(netif, ipaddr);
1118:C:/Users/stapi/OneDrive/Desktop/GD32VW553/GD32VW55X_Wifi_BLE_SDK/GD32VW55x_RELEASE_V1.0.2/MSDK/lwip/lwip-2.1.2/src/core\udp.c ****     if (local_ip == NULL) {
1119:C:/Users/stapi/OneDrive/Desktop/GD32VW553/GD32VW55X_Wifi_BLE_SDK/GD32VW55x_RELEASE_V1.0.2/MSDK/lwip/lwip-2.1.2/src/core\udp.c ****       return ERR_RTE;
1120:C:/Users/stapi/OneDrive/Desktop/GD32VW553/GD32VW55X_Wifi_BLE_SDK/GD32VW55x_RELEASE_V1.0.2/MSDK/lwip/lwip-2.1.2/src/core\udp.c ****     }
1121:C:/Users/stapi/OneDrive/Desktop/GD32VW553/GD32VW55X_Wifi_BLE_SDK/GD32VW55x_RELEASE_V1.0.2/MSDK/lwip/lwip-2.1.2/src/core\udp.c ****     ip_addr_copy(pcb->local_ip, *local_ip);
1122:C:/Users/stapi/OneDrive/Desktop/GD32VW553/GD32VW55X_Wifi_BLE_SDK/GD32VW55x_RELEASE_V1.0.2/MSDK/lwip/lwip-2.1.2/src/core\udp.c ****   }
1123:C:/Users/stapi/OneDrive/Desktop/GD32VW553/GD32VW55X_Wifi_BLE_SDK/GD32VW55x_RELEASE_V1.0.2/MSDK/lwip/lwip-2.1.2/src/core\udp.c **** /* FT TAG */
1124:C:/Users/stapi/OneDrive/Desktop/GD32VW553/GD32VW55X_Wifi_BLE_SDK/GD32VW55x_RELEASE_V1.0.2/MSDK/lwip/lwip-2.1.2/src/core\udp.c ****   LWIP_DEBUGF(UDP_DEBUG | LWIP_DBG_TRACE | LWIP_DBG_STATE, ("udp_connect: connected to "));
1125:C:/Users/stapi/OneDrive/Desktop/GD32VW553/GD32VW55X_Wifi_BLE_SDK/GD32VW55x_RELEASE_V1.0.2/MSDK/lwip/lwip-2.1.2/src/core\udp.c ****   ip_addr_debug_print_val(UDP_DEBUG | LWIP_DBG_TRACE | LWIP_DBG_STATE,
1126:C:/Users/stapi/OneDrive/Desktop/GD32VW553/GD32VW55X_Wifi_BLE_SDK/GD32VW55x_RELEASE_V1.0.2/MSDK/lwip/lwip-2.1.2/src/core\udp.c ****                           pcb->remote_ip);
1127:C:/Users/stapi/OneDrive/Desktop/GD32VW553/GD32VW55X_Wifi_BLE_SDK/GD32VW55x_RELEASE_V1.0.2/MSDK/lwip/lwip-2.1.2/src/core\udp.c ****   LWIP_DEBUGF(UDP_DEBUG | LWIP_DBG_TRACE | LWIP_DBG_STATE, (", port %"U16_F")\n", pcb->remote_port)
1128:C:/Users/stapi/OneDrive/Desktop/GD32VW553/GD32VW55X_Wifi_BLE_SDK/GD32VW55x_RELEASE_V1.0.2/MSDK/lwip/lwip-2.1.2/src/core\udp.c **** 
1129:C:/Users/stapi/OneDrive/Desktop/GD32VW553/GD32VW55X_Wifi_BLE_SDK/GD32VW55x_RELEASE_V1.0.2/MSDK/lwip/lwip-2.1.2/src/core\udp.c ****   /* Insert UDP PCB into the list of active UDP PCBs. */
1130:C:/Users/stapi/OneDrive/Desktop/GD32VW553/GD32VW55X_Wifi_BLE_SDK/GD32VW55x_RELEASE_V1.0.2/MSDK/lwip/lwip-2.1.2/src/core\udp.c ****   for (ipcb = udp_pcbs; ipcb != NULL; ipcb = ipcb->next) {
1131:C:/Users/stapi/OneDrive/Desktop/GD32VW553/GD32VW55X_Wifi_BLE_SDK/GD32VW55x_RELEASE_V1.0.2/MSDK/lwip/lwip-2.1.2/src/core\udp.c ****     if (pcb == ipcb) {
1132:C:/Users/stapi/OneDrive/Desktop/GD32VW553/GD32VW55X_Wifi_BLE_SDK/GD32VW55x_RELEASE_V1.0.2/MSDK/lwip/lwip-2.1.2/src/core\udp.c ****       /* already on the list, just return */
1133:C:/Users/stapi/OneDrive/Desktop/GD32VW553/GD32VW55X_Wifi_BLE_SDK/GD32VW55x_RELEASE_V1.0.2/MSDK/lwip/lwip-2.1.2/src/core\udp.c ****       return ERR_OK;
1134:C:/Users/stapi/OneDrive/Desktop/GD32VW553/GD32VW55X_Wifi_BLE_SDK/GD32VW55x_RELEASE_V1.0.2/MSDK/lwip/lwip-2.1.2/src/core\udp.c ****     }
1135:C:/Users/stapi/OneDrive/Desktop/GD32VW553/GD32VW55X_Wifi_BLE_SDK/GD32VW55x_RELEASE_V1.0.2/MSDK/lwip/lwip-2.1.2/src/core\udp.c ****   }
1136:C:/Users/stapi/OneDrive/Desktop/GD32VW553/GD32VW55X_Wifi_BLE_SDK/GD32VW55x_RELEASE_V1.0.2/MSDK/lwip/lwip-2.1.2/src/core\udp.c ****   /* PCB not yet on the list, add PCB now */
1137:C:/Users/stapi/OneDrive/Desktop/GD32VW553/GD32VW55X_Wifi_BLE_SDK/GD32VW55x_RELEASE_V1.0.2/MSDK/lwip/lwip-2.1.2/src/core\udp.c ****   pcb->next = udp_pcbs;
1138:C:/Users/stapi/OneDrive/Desktop/GD32VW553/GD32VW55X_Wifi_BLE_SDK/GD32VW55x_RELEASE_V1.0.2/MSDK/lwip/lwip-2.1.2/src/core\udp.c ****   udp_pcbs = pcb;
1139:C:/Users/stapi/OneDrive/Desktop/GD32VW553/GD32VW55X_Wifi_BLE_SDK/GD32VW55x_RELEASE_V1.0.2/MSDK/lwip/lwip-2.1.2/src/core\udp.c ****   return ERR_OK;
1140:C:/Users/stapi/OneDrive/Desktop/GD32VW553/GD32VW55X_Wifi_BLE_SDK/GD32VW55x_RELEASE_V1.0.2/MSDK/lwip/lwip-2.1.2/src/core\udp.c **** }
 1824              		.loc 1 1140 1
 1825 009a 17030000 		tail	__riscv_restore_3
 1825      67000300 
 1826              		.cfi_remember_state
 1827              		.cfi_restore 18
 1828              		.cfi_restore 9
 1829              		.cfi_restore 8
 1830              		.cfi_restore 1
 1831              		.cfi_def_cfa_offset 0
 1832              	.LVL226:
 1833              	.L189:
 1834              		.cfi_restore_state
1105:C:/Users/stapi/OneDrive/Desktop/GD32VW553/GD32VW55X_Wifi_BLE_SDK/GD32VW55x_RELEASE_V1.0.2/MSDK/lwip/lwip-2.1.2/src/core\udp.c ****   } else {
 1835              		.loc 1 1105 5 is_stmt 1
1105:C:/Users/stapi/OneDrive/Desktop/GD32VW553/GD32VW55X_Wifi_BLE_SDK/GD32VW55x_RELEASE_V1.0.2/MSDK/lwip/lwip-2.1.2/src/core\udp.c ****   } else {
 1836              		.loc 1 1105 13 is_stmt 0
 1837 00a2 97000000 		call	netif_get_by_index
 1837      E7800000 
 1838              	.LVL227:
 1839              	.L201:
1108:C:/Users/stapi/OneDrive/Desktop/GD32VW553/GD32VW55X_Wifi_BLE_SDK/GD32VW55x_RELEASE_V1.0.2/MSDK/lwip/lwip-2.1.2/src/core\udp.c ****   }
 1840              		.loc 1 1108 13
 1841 00aa AA87     		mv	a5,a0
 1842              	.LVL228:
1110:C:/Users/stapi/OneDrive/Desktop/GD32VW553/GD32VW55X_Wifi_BLE_SDK/GD32VW55x_RELEASE_V1.0.2/MSDK/lwip/lwip-2.1.2/src/core\udp.c ****     /* Don't even try to send a SYN packet if we have no route since that will fail. */
 1843              		.loc 1 1110 3 is_stmt 1
1112:C:/Users/stapi/OneDrive/Desktop/GD32VW553/GD32VW55X_Wifi_BLE_SDK/GD32VW55x_RELEASE_V1.0.2/MSDK/lwip/lwip-2.1.2/src/core\udp.c ****   }
 1844              		.loc 1 1112 12 is_stmt 0
 1845 00ac 7155     		li	a0,-4
 1846              	.LVL229:
1110:C:/Users/stapi/OneDrive/Desktop/GD32VW553/GD32VW55X_Wifi_BLE_SDK/GD32VW55x_RELEASE_V1.0.2/MSDK/lwip/lwip-2.1.2/src/core\udp.c ****     /* Don't even try to send a SYN packet if we have no route since that will fail. */
 1847              		.loc 1 1110 6
 1848 00ae F5D7     		beq	a5,zero,.L191
1116:C:/Users/stapi/OneDrive/Desktop/GD32VW553/GD32VW55X_Wifi_BLE_SDK/GD32VW55x_RELEASE_V1.0.2/MSDK/lwip/lwip-2.1.2/src/core\udp.c ****     const ip_addr_t *local_ip = ip_netif_get_local_ip(netif, ipaddr);
 1849              		.loc 1 1116 3 is_stmt 1
1116:C:/Users/stapi/OneDrive/Desktop/GD32VW553/GD32VW55X_Wifi_BLE_SDK/GD32VW55x_RELEASE_V1.0.2/MSDK/lwip/lwip-2.1.2/src/core\udp.c ****     const ip_addr_t *local_ip = ip_netif_get_local_ip(netif, ipaddr);
 1850              		.loc 1 1116 7 is_stmt 0
 1851 00b0 1840     		lw	a4,0(s0)
 1852 00b2 19E3     		bne	a4,zero,.L194
 1853              	.LBB42:
1117:C:/Users/stapi/OneDrive/Desktop/GD32VW553/GD32VW55X_Wifi_BLE_SDK/GD32VW55x_RELEASE_V1.0.2/MSDK/lwip/lwip-2.1.2/src/core\udp.c ****     if (local_ip == NULL) {
 1854              		.loc 1 1117 5 is_stmt 1 discriminator 1
 1855              	.LVL230:
1118:C:/Users/stapi/OneDrive/Desktop/GD32VW553/GD32VW55X_Wifi_BLE_SDK/GD32VW55x_RELEASE_V1.0.2/MSDK/lwip/lwip-2.1.2/src/core\udp.c ****       return ERR_RTE;
 1856              		.loc 1 1118 5 discriminator 1
1121:C:/Users/stapi/OneDrive/Desktop/GD32VW553/GD32VW55X_Wifi_BLE_SDK/GD32VW55x_RELEASE_V1.0.2/MSDK/lwip/lwip-2.1.2/src/core\udp.c ****   }
 1857              		.loc 1 1121 5 discriminator 1
 1858 00b4 DC43     		lw	a5,4(a5)
 1859              	.LVL231:
 1860 00b6 1CC0     		sw	a5,0(s0)
 1861              	.L194:
 1862              	.LBE42:
1124:C:/Users/stapi/OneDrive/Desktop/GD32VW553/GD32VW55X_Wifi_BLE_SDK/GD32VW55x_RELEASE_V1.0.2/MSDK/lwip/lwip-2.1.2/src/core\udp.c ****   ip_addr_debug_print_val(UDP_DEBUG | LWIP_DBG_TRACE | LWIP_DBG_STATE,
 1863              		.loc 1 1124 91
1126:C:/Users/stapi/OneDrive/Desktop/GD32VW553/GD32VW55X_Wifi_BLE_SDK/GD32VW55x_RELEASE_V1.0.2/MSDK/lwip/lwip-2.1.2/src/core\udp.c ****   LWIP_DEBUGF(UDP_DEBUG | LWIP_DBG_TRACE | LWIP_DBG_STATE, (", port %"U16_F")\n", pcb->remote_port)
 1864              		.loc 1 1126 42
1127:C:/Users/stapi/OneDrive/Desktop/GD32VW553/GD32VW55X_Wifi_BLE_SDK/GD32VW55x_RELEASE_V1.0.2/MSDK/lwip/lwip-2.1.2/src/core\udp.c **** 
 1865              		.loc 1 1127 101
1130:C:/Users/stapi/OneDrive/Desktop/GD32VW553/GD32VW55X_Wifi_BLE_SDK/GD32VW55x_RELEASE_V1.0.2/MSDK/lwip/lwip-2.1.2/src/core\udp.c ****     if (pcb == ipcb) {
 1866              		.loc 1 1130 3
1130:C:/Users/stapi/OneDrive/Desktop/GD32VW553/GD32VW55X_Wifi_BLE_SDK/GD32VW55x_RELEASE_V1.0.2/MSDK/lwip/lwip-2.1.2/src/core\udp.c ****     if (pcb == ipcb) {
 1867              		.loc 1 1130 13 is_stmt 0
 1868 00b8 B7070000 		lui	a5,%hi(.LANCHOR1)
 1869 00bc 83A60700 		lw	a3,%lo(.LANCHOR1)(a5)
 1870              	.LVL232:
 1871 00c0 93870700 		addi	a5,a5,%lo(.LANCHOR1)
 1872 00c4 3687     		mv	a4,a3
 1873              	.LVL233:
 1874              	.L195:
1130:C:/Users/stapi/OneDrive/Desktop/GD32VW553/GD32VW55X_Wifi_BLE_SDK/GD32VW55x_RELEASE_V1.0.2/MSDK/lwip/lwip-2.1.2/src/core\udp.c ****     if (pcb == ipcb) {
 1875              		.loc 1 1130 25 is_stmt 1 discriminator 1
1130:C:/Users/stapi/OneDrive/Desktop/GD32VW553/GD32VW55X_Wifi_BLE_SDK/GD32VW55x_RELEASE_V1.0.2/MSDK/lwip/lwip-2.1.2/src/core\udp.c ****     if (pcb == ipcb) {
 1876              		.loc 1 1130 3 is_stmt 0 discriminator 1
 1877 00c6 09E7     		bne	a4,zero,.L196
1137:C:/Users/stapi/OneDrive/Desktop/GD32VW553/GD32VW55X_Wifi_BLE_SDK/GD32VW55x_RELEASE_V1.0.2/MSDK/lwip/lwip-2.1.2/src/core\udp.c ****   udp_pcbs = pcb;
 1878              		.loc 1 1137 3 is_stmt 1
1137:C:/Users/stapi/OneDrive/Desktop/GD32VW553/GD32VW55X_Wifi_BLE_SDK/GD32VW55x_RELEASE_V1.0.2/MSDK/lwip/lwip-2.1.2/src/core\udp.c ****   udp_pcbs = pcb;
 1879              		.loc 1 1137 13 is_stmt 0
 1880 00c8 54C4     		sw	a3,12(s0)
1138:C:/Users/stapi/OneDrive/Desktop/GD32VW553/GD32VW55X_Wifi_BLE_SDK/GD32VW55x_RELEASE_V1.0.2/MSDK/lwip/lwip-2.1.2/src/core\udp.c ****   return ERR_OK;
 1881              		.loc 1 1138 3 is_stmt 1
1138:C:/Users/stapi/OneDrive/Desktop/GD32VW553/GD32VW55X_Wifi_BLE_SDK/GD32VW55x_RELEASE_V1.0.2/MSDK/lwip/lwip-2.1.2/src/core\udp.c ****   return ERR_OK;
 1882              		.loc 1 1138 12 is_stmt 0
 1883 00ca 80C3     		sw	s0,0(a5)
1139:C:/Users/stapi/OneDrive/Desktop/GD32VW553/GD32VW55X_Wifi_BLE_SDK/GD32VW55x_RELEASE_V1.0.2/MSDK/lwip/lwip-2.1.2/src/core\udp.c **** }
 1884              		.loc 1 1139 3 is_stmt 1
 1885              	.L198:
1133:C:/Users/stapi/OneDrive/Desktop/GD32VW553/GD32VW55X_Wifi_BLE_SDK/GD32VW55x_RELEASE_V1.0.2/MSDK/lwip/lwip-2.1.2/src/core\udp.c ****     }
 1886              		.loc 1 1133 14 is_stmt 0
 1887 00cc 0145     		li	a0,0
 1888 00ce F1B7     		j	.L191
 1889              	.L196:
1131:C:/Users/stapi/OneDrive/Desktop/GD32VW553/GD32VW55X_Wifi_BLE_SDK/GD32VW55x_RELEASE_V1.0.2/MSDK/lwip/lwip-2.1.2/src/core\udp.c ****       /* already on the list, just return */
 1890              		.loc 1 1131 5 is_stmt 1
1131:C:/Users/stapi/OneDrive/Desktop/GD32VW553/GD32VW55X_Wifi_BLE_SDK/GD32VW55x_RELEASE_V1.0.2/MSDK/lwip/lwip-2.1.2/src/core\udp.c ****       /* already on the list, just return */
 1891              		.loc 1 1131 8 is_stmt 0
 1892 00d0 E30E87FE 		beq	a4,s0,.L198
1130:C:/Users/stapi/OneDrive/Desktop/GD32VW553/GD32VW55X_Wifi_BLE_SDK/GD32VW55x_RELEASE_V1.0.2/MSDK/lwip/lwip-2.1.2/src/core\udp.c ****     if (pcb == ipcb) {
 1893              		.loc 1 1130 39 is_stmt 1 discriminator 2
1130:C:/Users/stapi/OneDrive/Desktop/GD32VW553/GD32VW55X_Wifi_BLE_SDK/GD32VW55x_RELEASE_V1.0.2/MSDK/lwip/lwip-2.1.2/src/core\udp.c ****     if (pcb == ipcb) {
 1894              		.loc 1 1130 44 is_stmt 0 discriminator 2
 1895 00d4 5847     		lw	a4,12(a4)
 1896              	.LVL234:
 1897 00d6 C5BF     		j	.L195
 1898              		.cfi_endproc
 1899              	.LFE14:
 1901              		.section	.rodata.udp_disconnect.str1.4,"aMS",@progbits,1
 1902              		.align	2
 1903              	.LC23:
 1904 0000 7564705F 		.string	"udp_disconnect: invalid pcb"
 1904      64697363 
 1904      6F6E6E65 
 1904      63743A20 
 1904      696E7661 
 1905              		.section	.text.udp_disconnect,"ax",@progbits
 1906              		.align	1
 1907              		.globl	udp_disconnect
 1909              	udp_disconnect:
 1910              	.LFB15:
1141:C:/Users/stapi/OneDrive/Desktop/GD32VW553/GD32VW55X_Wifi_BLE_SDK/GD32VW55x_RELEASE_V1.0.2/MSDK/lwip/lwip-2.1.2/src/core\udp.c **** 
1142:C:/Users/stapi/OneDrive/Desktop/GD32VW553/GD32VW55X_Wifi_BLE_SDK/GD32VW55x_RELEASE_V1.0.2/MSDK/lwip/lwip-2.1.2/src/core\udp.c **** /**
1143:C:/Users/stapi/OneDrive/Desktop/GD32VW553/GD32VW55X_Wifi_BLE_SDK/GD32VW55x_RELEASE_V1.0.2/MSDK/lwip/lwip-2.1.2/src/core\udp.c ****  * @ingroup udp_raw
1144:C:/Users/stapi/OneDrive/Desktop/GD32VW553/GD32VW55X_Wifi_BLE_SDK/GD32VW55x_RELEASE_V1.0.2/MSDK/lwip/lwip-2.1.2/src/core\udp.c ****  * Remove the remote end of the pcb. This function does not generate
1145:C:/Users/stapi/OneDrive/Desktop/GD32VW553/GD32VW55X_Wifi_BLE_SDK/GD32VW55x_RELEASE_V1.0.2/MSDK/lwip/lwip-2.1.2/src/core\udp.c ****  * any network traffic, but only removes the remote address of the pcb.
1146:C:/Users/stapi/OneDrive/Desktop/GD32VW553/GD32VW55X_Wifi_BLE_SDK/GD32VW55x_RELEASE_V1.0.2/MSDK/lwip/lwip-2.1.2/src/core\udp.c ****  *
1147:C:/Users/stapi/OneDrive/Desktop/GD32VW553/GD32VW55X_Wifi_BLE_SDK/GD32VW55x_RELEASE_V1.0.2/MSDK/lwip/lwip-2.1.2/src/core\udp.c ****  * @param pcb the udp pcb to disconnect.
1148:C:/Users/stapi/OneDrive/Desktop/GD32VW553/GD32VW55X_Wifi_BLE_SDK/GD32VW55x_RELEASE_V1.0.2/MSDK/lwip/lwip-2.1.2/src/core\udp.c ****  */
1149:C:/Users/stapi/OneDrive/Desktop/GD32VW553/GD32VW55X_Wifi_BLE_SDK/GD32VW55x_RELEASE_V1.0.2/MSDK/lwip/lwip-2.1.2/src/core\udp.c **** void
1150:C:/Users/stapi/OneDrive/Desktop/GD32VW553/GD32VW55X_Wifi_BLE_SDK/GD32VW55x_RELEASE_V1.0.2/MSDK/lwip/lwip-2.1.2/src/core\udp.c **** udp_disconnect(struct udp_pcb *pcb)
1151:C:/Users/stapi/OneDrive/Desktop/GD32VW553/GD32VW55X_Wifi_BLE_SDK/GD32VW55x_RELEASE_V1.0.2/MSDK/lwip/lwip-2.1.2/src/core\udp.c **** {
 1911              		.loc 1 1151 1 is_stmt 1
 1912              		.cfi_startproc
 1913              	.LVL235:
1152:C:/Users/stapi/OneDrive/Desktop/GD32VW553/GD32VW55X_Wifi_BLE_SDK/GD32VW55x_RELEASE_V1.0.2/MSDK/lwip/lwip-2.1.2/src/core\udp.c ****   LWIP_ASSERT_CORE_LOCKED();
 1914              		.loc 1 1152 28
1153:C:/Users/stapi/OneDrive/Desktop/GD32VW553/GD32VW55X_Wifi_BLE_SDK/GD32VW55x_RELEASE_V1.0.2/MSDK/lwip/lwip-2.1.2/src/core\udp.c **** 
1154:C:/Users/stapi/OneDrive/Desktop/GD32VW553/GD32VW55X_Wifi_BLE_SDK/GD32VW55x_RELEASE_V1.0.2/MSDK/lwip/lwip-2.1.2/src/core\udp.c ****   LWIP_ERROR("udp_disconnect: invalid pcb", pcb != NULL, return);
 1915              		.loc 1 1154 3
 1916              		.loc 1 1154 3
 1917 0000 05E9     		bne	a0,zero,.L203
1151:C:/Users/stapi/OneDrive/Desktop/GD32VW553/GD32VW55X_Wifi_BLE_SDK/GD32VW55x_RELEASE_V1.0.2/MSDK/lwip/lwip-2.1.2/src/core\udp.c ****   LWIP_ASSERT_CORE_LOCKED();
 1918              		.loc 1 1151 1 is_stmt 0 discriminator 1
 1919 0002 17030000 		call	t0,__riscv_save_0
 1919      E7020300 
 1920              		.cfi_offset 1, -4
 1921              		.cfi_def_cfa_offset 16
 1922              		.loc 1 1154 3 is_stmt 1 discriminator 1
 1923              		.loc 1 1154 3 discriminator 1
 1924 000a B7060000 		lui	a3,%hi(.LC0)
 1925 000e B7050000 		lui	a1,%hi(.LC23)
 1926 0012 37050000 		lui	a0,%hi(.LC2)
 1927              	.LVL236:
 1928 0016 93860600 		addi	a3,a3,%lo(.LC0)
 1929 001a 13062048 		li	a2,1154
 1930 001e 93850500 		addi	a1,a1,%lo(.LC23)
 1931 0022 13050500 		addi	a0,a0,%lo(.LC2)
 1932 0026 97000000 		call	printf
 1932      E7800000 
 1933              	.LVL237:
 1934              	.L204:
 1935              		.loc 1 1154 3 discriminator 1
 1936              		.loc 1 1154 3 discriminator 1
 1937              		.loc 1 1154 3 discriminator 1
 1938 002e 01A0     		j	.L204
 1939              	.LVL238:
 1940              	.L203:
 1941              		.cfi_def_cfa_offset 0
 1942              		.cfi_restore 1
 1943              		.loc 1 1154 3 discriminator 2
1155:C:/Users/stapi/OneDrive/Desktop/GD32VW553/GD32VW55X_Wifi_BLE_SDK/GD32VW55x_RELEASE_V1.0.2/MSDK/lwip/lwip-2.1.2/src/core\udp.c **** 
1156:C:/Users/stapi/OneDrive/Desktop/GD32VW553/GD32VW55X_Wifi_BLE_SDK/GD32VW55x_RELEASE_V1.0.2/MSDK/lwip/lwip-2.1.2/src/core\udp.c ****   /* reset remote address association */
1157:C:/Users/stapi/OneDrive/Desktop/GD32VW553/GD32VW55X_Wifi_BLE_SDK/GD32VW55x_RELEASE_V1.0.2/MSDK/lwip/lwip-2.1.2/src/core\udp.c **** #if LWIP_IPV4 && LWIP_IPV6
1158:C:/Users/stapi/OneDrive/Desktop/GD32VW553/GD32VW55X_Wifi_BLE_SDK/GD32VW55x_RELEASE_V1.0.2/MSDK/lwip/lwip-2.1.2/src/core\udp.c ****   if (IP_IS_ANY_TYPE_VAL(pcb->local_ip)) {
1159:C:/Users/stapi/OneDrive/Desktop/GD32VW553/GD32VW55X_Wifi_BLE_SDK/GD32VW55x_RELEASE_V1.0.2/MSDK/lwip/lwip-2.1.2/src/core\udp.c ****     ip_addr_copy(pcb->remote_ip, *IP_ANY_TYPE);
1160:C:/Users/stapi/OneDrive/Desktop/GD32VW553/GD32VW55X_Wifi_BLE_SDK/GD32VW55x_RELEASE_V1.0.2/MSDK/lwip/lwip-2.1.2/src/core\udp.c ****   } else {
1161:C:/Users/stapi/OneDrive/Desktop/GD32VW553/GD32VW55X_Wifi_BLE_SDK/GD32VW55x_RELEASE_V1.0.2/MSDK/lwip/lwip-2.1.2/src/core\udp.c **** #endif
1162:C:/Users/stapi/OneDrive/Desktop/GD32VW553/GD32VW55X_Wifi_BLE_SDK/GD32VW55x_RELEASE_V1.0.2/MSDK/lwip/lwip-2.1.2/src/core\udp.c ****     ip_addr_set_any(IP_IS_V6_VAL(pcb->remote_ip), &pcb->remote_ip);
 1944              		.loc 1 1162 5 discriminator 2
1163:C:/Users/stapi/OneDrive/Desktop/GD32VW553/GD32VW55X_Wifi_BLE_SDK/GD32VW55x_RELEASE_V1.0.2/MSDK/lwip/lwip-2.1.2/src/core\udp.c **** #if LWIP_IPV4 && LWIP_IPV6
1164:C:/Users/stapi/OneDrive/Desktop/GD32VW553/GD32VW55X_Wifi_BLE_SDK/GD32VW55x_RELEASE_V1.0.2/MSDK/lwip/lwip-2.1.2/src/core\udp.c ****   }
1165:C:/Users/stapi/OneDrive/Desktop/GD32VW553/GD32VW55X_Wifi_BLE_SDK/GD32VW55x_RELEASE_V1.0.2/MSDK/lwip/lwip-2.1.2/src/core\udp.c **** #endif
1166:C:/Users/stapi/OneDrive/Desktop/GD32VW553/GD32VW55X_Wifi_BLE_SDK/GD32VW55x_RELEASE_V1.0.2/MSDK/lwip/lwip-2.1.2/src/core\udp.c ****   pcb->remote_port = 0;
1167:C:/Users/stapi/OneDrive/Desktop/GD32VW553/GD32VW55X_Wifi_BLE_SDK/GD32VW55x_RELEASE_V1.0.2/MSDK/lwip/lwip-2.1.2/src/core\udp.c ****   pcb->netif_idx = NETIF_NO_INDEX;
1168:C:/Users/stapi/OneDrive/Desktop/GD32VW553/GD32VW55X_Wifi_BLE_SDK/GD32VW55x_RELEASE_V1.0.2/MSDK/lwip/lwip-2.1.2/src/core\udp.c ****   /* mark PCB as unconnected */
1169:C:/Users/stapi/OneDrive/Desktop/GD32VW553/GD32VW55X_Wifi_BLE_SDK/GD32VW55x_RELEASE_V1.0.2/MSDK/lwip/lwip-2.1.2/src/core\udp.c ****   udp_clear_flags(pcb, UDP_FLAGS_CONNECTED);
 1945              		.loc 1 1169 3 is_stmt 0 discriminator 2
 1946 0030 83470501 		lbu	a5,16(a0)
1162:C:/Users/stapi/OneDrive/Desktop/GD32VW553/GD32VW55X_Wifi_BLE_SDK/GD32VW55x_RELEASE_V1.0.2/MSDK/lwip/lwip-2.1.2/src/core\udp.c **** #if LWIP_IPV4 && LWIP_IPV6
 1947              		.loc 1 1162 5 discriminator 2
 1948 0034 23220500 		sw	zero,4(a0)
1166:C:/Users/stapi/OneDrive/Desktop/GD32VW553/GD32VW55X_Wifi_BLE_SDK/GD32VW55x_RELEASE_V1.0.2/MSDK/lwip/lwip-2.1.2/src/core\udp.c ****   pcb->netif_idx = NETIF_NO_INDEX;
 1949              		.loc 1 1166 3 is_stmt 1 discriminator 2
1166:C:/Users/stapi/OneDrive/Desktop/GD32VW553/GD32VW55X_Wifi_BLE_SDK/GD32VW55x_RELEASE_V1.0.2/MSDK/lwip/lwip-2.1.2/src/core\udp.c ****   pcb->netif_idx = NETIF_NO_INDEX;
 1950              		.loc 1 1166 20 is_stmt 0 discriminator 2
 1951 0038 231A0500 		sh	zero,20(a0)
1167:C:/Users/stapi/OneDrive/Desktop/GD32VW553/GD32VW55X_Wifi_BLE_SDK/GD32VW55x_RELEASE_V1.0.2/MSDK/lwip/lwip-2.1.2/src/core\udp.c ****   /* mark PCB as unconnected */
 1952              		.loc 1 1167 3 is_stmt 1 discriminator 2
 1953              		.loc 1 1169 3 is_stmt 0 discriminator 2
 1954 003c ED9B     		andi	a5,a5,-5
1167:C:/Users/stapi/OneDrive/Desktop/GD32VW553/GD32VW55X_Wifi_BLE_SDK/GD32VW55x_RELEASE_V1.0.2/MSDK/lwip/lwip-2.1.2/src/core\udp.c ****   /* mark PCB as unconnected */
 1955              		.loc 1 1167 18 discriminator 2
 1956 003e 23040500 		sb	zero,8(a0)
 1957              		.loc 1 1169 3 is_stmt 1 discriminator 2
 1958              		.loc 1 1169 3 discriminator 2
 1959 0042 2308F500 		sb	a5,16(a0)
 1960              		.loc 1 1169 3 discriminator 2
 1961 0046 8280     		ret
 1962              		.cfi_endproc
 1963              	.LFE15:
 1965              		.section	.rodata.udp_recv.str1.4,"aMS",@progbits,1
 1966              		.align	2
 1967              	.LC24:
 1968 0000 7564705F 		.string	"udp_recv: invalid pcb"
 1968      72656376 
 1968      3A20696E 
 1968      76616C69 
 1968      64207063 
 1969              		.section	.text.udp_recv,"ax",@progbits
 1970              		.align	1
 1971              		.globl	udp_recv
 1973              	udp_recv:
 1974              	.LFB16:
1170:C:/Users/stapi/OneDrive/Desktop/GD32VW553/GD32VW55X_Wifi_BLE_SDK/GD32VW55x_RELEASE_V1.0.2/MSDK/lwip/lwip-2.1.2/src/core\udp.c **** }
1171:C:/Users/stapi/OneDrive/Desktop/GD32VW553/GD32VW55X_Wifi_BLE_SDK/GD32VW55x_RELEASE_V1.0.2/MSDK/lwip/lwip-2.1.2/src/core\udp.c **** 
1172:C:/Users/stapi/OneDrive/Desktop/GD32VW553/GD32VW55X_Wifi_BLE_SDK/GD32VW55x_RELEASE_V1.0.2/MSDK/lwip/lwip-2.1.2/src/core\udp.c **** /**
1173:C:/Users/stapi/OneDrive/Desktop/GD32VW553/GD32VW55X_Wifi_BLE_SDK/GD32VW55x_RELEASE_V1.0.2/MSDK/lwip/lwip-2.1.2/src/core\udp.c ****  * @ingroup udp_raw
1174:C:/Users/stapi/OneDrive/Desktop/GD32VW553/GD32VW55X_Wifi_BLE_SDK/GD32VW55x_RELEASE_V1.0.2/MSDK/lwip/lwip-2.1.2/src/core\udp.c ****  * Set a receive callback for a UDP PCB.
1175:C:/Users/stapi/OneDrive/Desktop/GD32VW553/GD32VW55X_Wifi_BLE_SDK/GD32VW55x_RELEASE_V1.0.2/MSDK/lwip/lwip-2.1.2/src/core\udp.c ****  * This callback will be called when receiving a datagram for the pcb.
1176:C:/Users/stapi/OneDrive/Desktop/GD32VW553/GD32VW55X_Wifi_BLE_SDK/GD32VW55x_RELEASE_V1.0.2/MSDK/lwip/lwip-2.1.2/src/core\udp.c ****  *
1177:C:/Users/stapi/OneDrive/Desktop/GD32VW553/GD32VW55X_Wifi_BLE_SDK/GD32VW55x_RELEASE_V1.0.2/MSDK/lwip/lwip-2.1.2/src/core\udp.c ****  * @param pcb the pcb for which to set the recv callback
1178:C:/Users/stapi/OneDrive/Desktop/GD32VW553/GD32VW55X_Wifi_BLE_SDK/GD32VW55x_RELEASE_V1.0.2/MSDK/lwip/lwip-2.1.2/src/core\udp.c ****  * @param recv function pointer of the callback function
1179:C:/Users/stapi/OneDrive/Desktop/GD32VW553/GD32VW55X_Wifi_BLE_SDK/GD32VW55x_RELEASE_V1.0.2/MSDK/lwip/lwip-2.1.2/src/core\udp.c ****  * @param recv_arg additional argument to pass to the callback function
1180:C:/Users/stapi/OneDrive/Desktop/GD32VW553/GD32VW55X_Wifi_BLE_SDK/GD32VW55x_RELEASE_V1.0.2/MSDK/lwip/lwip-2.1.2/src/core\udp.c ****  */
1181:C:/Users/stapi/OneDrive/Desktop/GD32VW553/GD32VW55X_Wifi_BLE_SDK/GD32VW55x_RELEASE_V1.0.2/MSDK/lwip/lwip-2.1.2/src/core\udp.c **** void
1182:C:/Users/stapi/OneDrive/Desktop/GD32VW553/GD32VW55X_Wifi_BLE_SDK/GD32VW55x_RELEASE_V1.0.2/MSDK/lwip/lwip-2.1.2/src/core\udp.c **** udp_recv(struct udp_pcb *pcb, udp_recv_fn recv, void *recv_arg)
1183:C:/Users/stapi/OneDrive/Desktop/GD32VW553/GD32VW55X_Wifi_BLE_SDK/GD32VW55x_RELEASE_V1.0.2/MSDK/lwip/lwip-2.1.2/src/core\udp.c **** {
 1975              		.loc 1 1183 1
 1976              		.cfi_startproc
 1977              	.LVL239:
1184:C:/Users/stapi/OneDrive/Desktop/GD32VW553/GD32VW55X_Wifi_BLE_SDK/GD32VW55x_RELEASE_V1.0.2/MSDK/lwip/lwip-2.1.2/src/core\udp.c ****   LWIP_ASSERT_CORE_LOCKED();
 1978              		.loc 1 1184 28
1185:C:/Users/stapi/OneDrive/Desktop/GD32VW553/GD32VW55X_Wifi_BLE_SDK/GD32VW55x_RELEASE_V1.0.2/MSDK/lwip/lwip-2.1.2/src/core\udp.c **** 
1186:C:/Users/stapi/OneDrive/Desktop/GD32VW553/GD32VW55X_Wifi_BLE_SDK/GD32VW55x_RELEASE_V1.0.2/MSDK/lwip/lwip-2.1.2/src/core\udp.c ****   LWIP_ERROR("udp_recv: invalid pcb", pcb != NULL, return);
 1979              		.loc 1 1186 3
 1980              		.loc 1 1186 3
 1981 0000 05E9     		bne	a0,zero,.L209
1183:C:/Users/stapi/OneDrive/Desktop/GD32VW553/GD32VW55X_Wifi_BLE_SDK/GD32VW55x_RELEASE_V1.0.2/MSDK/lwip/lwip-2.1.2/src/core\udp.c ****   LWIP_ASSERT_CORE_LOCKED();
 1982              		.loc 1 1183 1 is_stmt 0 discriminator 1
 1983 0002 17030000 		call	t0,__riscv_save_0
 1983      E7020300 
 1984              		.cfi_offset 1, -4
 1985              		.cfi_def_cfa_offset 16
 1986              		.loc 1 1186 3 is_stmt 1 discriminator 1
 1987              		.loc 1 1186 3 discriminator 1
 1988 000a B7060000 		lui	a3,%hi(.LC0)
 1989 000e B7050000 		lui	a1,%hi(.LC24)
 1990              	.LVL240:
 1991 0012 37050000 		lui	a0,%hi(.LC2)
 1992              	.LVL241:
 1993 0016 93860600 		addi	a3,a3,%lo(.LC0)
 1994 001a 1306204A 		li	a2,1186
 1995              	.LVL242:
 1996 001e 93850500 		addi	a1,a1,%lo(.LC24)
 1997 0022 13050500 		addi	a0,a0,%lo(.LC2)
 1998 0026 97000000 		call	printf
 1998      E7800000 
 1999              	.LVL243:
 2000              	.L210:
 2001              		.loc 1 1186 3 discriminator 1
 2002              		.loc 1 1186 3 discriminator 1
 2003              		.loc 1 1186 3 discriminator 1
 2004 002e 01A0     		j	.L210
 2005              	.LVL244:
 2006              	.L209:
 2007              		.cfi_def_cfa_offset 0
 2008              		.cfi_restore 1
 2009              		.loc 1 1186 3 discriminator 2
1187:C:/Users/stapi/OneDrive/Desktop/GD32VW553/GD32VW55X_Wifi_BLE_SDK/GD32VW55x_RELEASE_V1.0.2/MSDK/lwip/lwip-2.1.2/src/core\udp.c **** 
1188:C:/Users/stapi/OneDrive/Desktop/GD32VW553/GD32VW55X_Wifi_BLE_SDK/GD32VW55x_RELEASE_V1.0.2/MSDK/lwip/lwip-2.1.2/src/core\udp.c ****   /* remember recv() callback and user data */
1189:C:/Users/stapi/OneDrive/Desktop/GD32VW553/GD32VW55X_Wifi_BLE_SDK/GD32VW55x_RELEASE_V1.0.2/MSDK/lwip/lwip-2.1.2/src/core\udp.c ****   pcb->recv = recv;
 2010              		.loc 1 1189 3 discriminator 2
 2011              		.loc 1 1189 13 is_stmt 0 discriminator 2
 2012 0030 0CD1     		sw	a1,32(a0)
1190:C:/Users/stapi/OneDrive/Desktop/GD32VW553/GD32VW55X_Wifi_BLE_SDK/GD32VW55x_RELEASE_V1.0.2/MSDK/lwip/lwip-2.1.2/src/core\udp.c ****   pcb->recv_arg = recv_arg;
 2013              		.loc 1 1190 3 is_stmt 1 discriminator 2
 2014              		.loc 1 1190 17 is_stmt 0 discriminator 2
 2015 0032 50D1     		sw	a2,36(a0)
 2016 0034 8280     		ret
 2017              		.cfi_endproc
 2018              	.LFE16:
 2020              		.section	.rodata.udp_remove.str1.4,"aMS",@progbits,1
 2021              		.align	2
 2022              	.LC25:
 2023 0000 7564705F 		.string	"udp_remove: invalid pcb"
 2023      72656D6F 
 2023      76653A20 
 2023      696E7661 
 2023      6C696420 
 2024              		.section	.text.udp_remove,"ax",@progbits
 2025              		.align	1
 2026              		.globl	udp_remove
 2028              	udp_remove:
 2029              	.LFB17:
1191:C:/Users/stapi/OneDrive/Desktop/GD32VW553/GD32VW55X_Wifi_BLE_SDK/GD32VW55x_RELEASE_V1.0.2/MSDK/lwip/lwip-2.1.2/src/core\udp.c **** }
1192:C:/Users/stapi/OneDrive/Desktop/GD32VW553/GD32VW55X_Wifi_BLE_SDK/GD32VW55x_RELEASE_V1.0.2/MSDK/lwip/lwip-2.1.2/src/core\udp.c **** 
1193:C:/Users/stapi/OneDrive/Desktop/GD32VW553/GD32VW55X_Wifi_BLE_SDK/GD32VW55x_RELEASE_V1.0.2/MSDK/lwip/lwip-2.1.2/src/core\udp.c **** /**
1194:C:/Users/stapi/OneDrive/Desktop/GD32VW553/GD32VW55X_Wifi_BLE_SDK/GD32VW55x_RELEASE_V1.0.2/MSDK/lwip/lwip-2.1.2/src/core\udp.c ****  * @ingroup udp_raw
1195:C:/Users/stapi/OneDrive/Desktop/GD32VW553/GD32VW55X_Wifi_BLE_SDK/GD32VW55x_RELEASE_V1.0.2/MSDK/lwip/lwip-2.1.2/src/core\udp.c ****  * Removes and deallocates the pcb.
1196:C:/Users/stapi/OneDrive/Desktop/GD32VW553/GD32VW55X_Wifi_BLE_SDK/GD32VW55x_RELEASE_V1.0.2/MSDK/lwip/lwip-2.1.2/src/core\udp.c ****  *
1197:C:/Users/stapi/OneDrive/Desktop/GD32VW553/GD32VW55X_Wifi_BLE_SDK/GD32VW55x_RELEASE_V1.0.2/MSDK/lwip/lwip-2.1.2/src/core\udp.c ****  * @param pcb UDP PCB to be removed. The PCB is removed from the list of
1198:C:/Users/stapi/OneDrive/Desktop/GD32VW553/GD32VW55X_Wifi_BLE_SDK/GD32VW55x_RELEASE_V1.0.2/MSDK/lwip/lwip-2.1.2/src/core\udp.c ****  * UDP PCB's and the data structure is freed from memory.
1199:C:/Users/stapi/OneDrive/Desktop/GD32VW553/GD32VW55X_Wifi_BLE_SDK/GD32VW55x_RELEASE_V1.0.2/MSDK/lwip/lwip-2.1.2/src/core\udp.c ****  *
1200:C:/Users/stapi/OneDrive/Desktop/GD32VW553/GD32VW55X_Wifi_BLE_SDK/GD32VW55x_RELEASE_V1.0.2/MSDK/lwip/lwip-2.1.2/src/core\udp.c ****  * @see udp_new()
1201:C:/Users/stapi/OneDrive/Desktop/GD32VW553/GD32VW55X_Wifi_BLE_SDK/GD32VW55x_RELEASE_V1.0.2/MSDK/lwip/lwip-2.1.2/src/core\udp.c ****  */
1202:C:/Users/stapi/OneDrive/Desktop/GD32VW553/GD32VW55X_Wifi_BLE_SDK/GD32VW55x_RELEASE_V1.0.2/MSDK/lwip/lwip-2.1.2/src/core\udp.c **** void
1203:C:/Users/stapi/OneDrive/Desktop/GD32VW553/GD32VW55X_Wifi_BLE_SDK/GD32VW55x_RELEASE_V1.0.2/MSDK/lwip/lwip-2.1.2/src/core\udp.c **** udp_remove(struct udp_pcb *pcb)
1204:C:/Users/stapi/OneDrive/Desktop/GD32VW553/GD32VW55X_Wifi_BLE_SDK/GD32VW55x_RELEASE_V1.0.2/MSDK/lwip/lwip-2.1.2/src/core\udp.c **** {
 2030              		.loc 1 1204 1 is_stmt 1
 2031              		.cfi_startproc
 2032              	.LVL245:
 2033 0000 17030000 		call	t0,__riscv_save_0
 2033      E7020300 
 2034              		.cfi_offset 1, -4
 2035              		.cfi_def_cfa_offset 16
1205:C:/Users/stapi/OneDrive/Desktop/GD32VW553/GD32VW55X_Wifi_BLE_SDK/GD32VW55x_RELEASE_V1.0.2/MSDK/lwip/lwip-2.1.2/src/core\udp.c ****   struct udp_pcb *pcb2;
 2036              		.loc 1 1205 3
1206:C:/Users/stapi/OneDrive/Desktop/GD32VW553/GD32VW55X_Wifi_BLE_SDK/GD32VW55x_RELEASE_V1.0.2/MSDK/lwip/lwip-2.1.2/src/core\udp.c **** 
1207:C:/Users/stapi/OneDrive/Desktop/GD32VW553/GD32VW55X_Wifi_BLE_SDK/GD32VW55x_RELEASE_V1.0.2/MSDK/lwip/lwip-2.1.2/src/core\udp.c ****   LWIP_ASSERT_CORE_LOCKED();
 2037              		.loc 1 1207 28
1208:C:/Users/stapi/OneDrive/Desktop/GD32VW553/GD32VW55X_Wifi_BLE_SDK/GD32VW55x_RELEASE_V1.0.2/MSDK/lwip/lwip-2.1.2/src/core\udp.c **** 
1209:C:/Users/stapi/OneDrive/Desktop/GD32VW553/GD32VW55X_Wifi_BLE_SDK/GD32VW55x_RELEASE_V1.0.2/MSDK/lwip/lwip-2.1.2/src/core\udp.c ****   LWIP_ERROR("udp_remove: invalid pcb", pcb != NULL, return);
 2038              		.loc 1 1209 3
 2039              		.loc 1 1209 3
 2040 0008 05E5     		bne	a0,zero,.L215
 2041              		.loc 1 1209 3 discriminator 1
 2042              		.loc 1 1209 3 discriminator 1
 2043 000a B7060000 		lui	a3,%hi(.LC0)
 2044 000e B7050000 		lui	a1,%hi(.LC25)
 2045 0012 37050000 		lui	a0,%hi(.LC2)
 2046              	.LVL246:
 2047 0016 93860600 		addi	a3,a3,%lo(.LC0)
 2048 001a 1306904B 		li	a2,1209
 2049 001e 93850500 		addi	a1,a1,%lo(.LC25)
 2050 0022 13050500 		addi	a0,a0,%lo(.LC2)
 2051 0026 97000000 		call	printf
 2051      E7800000 
 2052              	.LVL247:
 2053              	.L216:
 2054              		.loc 1 1209 3 discriminator 1
 2055              		.loc 1 1209 3 discriminator 1
 2056              		.loc 1 1209 3 discriminator 1
 2057 002e 01A0     		j	.L216
 2058              	.LVL248:
 2059              	.L215:
1210:C:/Users/stapi/OneDrive/Desktop/GD32VW553/GD32VW55X_Wifi_BLE_SDK/GD32VW55x_RELEASE_V1.0.2/MSDK/lwip/lwip-2.1.2/src/core\udp.c **** 
1211:C:/Users/stapi/OneDrive/Desktop/GD32VW553/GD32VW55X_Wifi_BLE_SDK/GD32VW55x_RELEASE_V1.0.2/MSDK/lwip/lwip-2.1.2/src/core\udp.c ****   mib2_udp_unbind(pcb);
1212:C:/Users/stapi/OneDrive/Desktop/GD32VW553/GD32VW55X_Wifi_BLE_SDK/GD32VW55x_RELEASE_V1.0.2/MSDK/lwip/lwip-2.1.2/src/core\udp.c ****   /* pcb to be removed is first in list? */
1213:C:/Users/stapi/OneDrive/Desktop/GD32VW553/GD32VW55X_Wifi_BLE_SDK/GD32VW55x_RELEASE_V1.0.2/MSDK/lwip/lwip-2.1.2/src/core\udp.c ****   if (udp_pcbs == pcb) {
 2060              		.loc 1 1213 16 is_stmt 0 discriminator 2
 2061 0030 37070000 		lui	a4,%hi(.LANCHOR1)
 2062 0034 13070700 		addi	a4,a4,%lo(.LANCHOR1)
 2063 0038 1C43     		lw	a5,0(a4)
 2064 003a AA85     		mv	a1,a0
1209:C:/Users/stapi/OneDrive/Desktop/GD32VW553/GD32VW55X_Wifi_BLE_SDK/GD32VW55x_RELEASE_V1.0.2/MSDK/lwip/lwip-2.1.2/src/core\udp.c **** 
 2065              		.loc 1 1209 3 is_stmt 1 discriminator 2
1211:C:/Users/stapi/OneDrive/Desktop/GD32VW553/GD32VW55X_Wifi_BLE_SDK/GD32VW55x_RELEASE_V1.0.2/MSDK/lwip/lwip-2.1.2/src/core\udp.c ****   /* pcb to be removed is first in list? */
 2066              		.loc 1 1211 23 discriminator 2
 2067              		.loc 1 1213 3 discriminator 2
 2068              		.loc 1 1213 6 is_stmt 0 discriminator 2
 2069 003c 639EA700 		bne	a5,a0,.L217
1214:C:/Users/stapi/OneDrive/Desktop/GD32VW553/GD32VW55X_Wifi_BLE_SDK/GD32VW55x_RELEASE_V1.0.2/MSDK/lwip/lwip-2.1.2/src/core\udp.c ****     /* make list start at 2nd pcb */
1215:C:/Users/stapi/OneDrive/Desktop/GD32VW553/GD32VW55X_Wifi_BLE_SDK/GD32VW55x_RELEASE_V1.0.2/MSDK/lwip/lwip-2.1.2/src/core\udp.c ****     udp_pcbs = udp_pcbs->next;
 2070              		.loc 1 1215 5 is_stmt 1
 2071              		.loc 1 1215 14 is_stmt 0
 2072 0040 5C45     		lw	a5,12(a0)
 2073 0042 1CC3     		sw	a5,0(a4)
 2074              	.L218:
1216:C:/Users/stapi/OneDrive/Desktop/GD32VW553/GD32VW55X_Wifi_BLE_SDK/GD32VW55x_RELEASE_V1.0.2/MSDK/lwip/lwip-2.1.2/src/core\udp.c ****     /* pcb not 1st in list */
1217:C:/Users/stapi/OneDrive/Desktop/GD32VW553/GD32VW55X_Wifi_BLE_SDK/GD32VW55x_RELEASE_V1.0.2/MSDK/lwip/lwip-2.1.2/src/core\udp.c ****   } else {
1218:C:/Users/stapi/OneDrive/Desktop/GD32VW553/GD32VW55X_Wifi_BLE_SDK/GD32VW55x_RELEASE_V1.0.2/MSDK/lwip/lwip-2.1.2/src/core\udp.c ****     for (pcb2 = udp_pcbs; pcb2 != NULL; pcb2 = pcb2->next) {
1219:C:/Users/stapi/OneDrive/Desktop/GD32VW553/GD32VW55X_Wifi_BLE_SDK/GD32VW55x_RELEASE_V1.0.2/MSDK/lwip/lwip-2.1.2/src/core\udp.c ****       /* find pcb in udp_pcbs list */
1220:C:/Users/stapi/OneDrive/Desktop/GD32VW553/GD32VW55X_Wifi_BLE_SDK/GD32VW55x_RELEASE_V1.0.2/MSDK/lwip/lwip-2.1.2/src/core\udp.c ****       if (pcb2->next != NULL && pcb2->next == pcb) {
1221:C:/Users/stapi/OneDrive/Desktop/GD32VW553/GD32VW55X_Wifi_BLE_SDK/GD32VW55x_RELEASE_V1.0.2/MSDK/lwip/lwip-2.1.2/src/core\udp.c ****         /* remove pcb from list */
1222:C:/Users/stapi/OneDrive/Desktop/GD32VW553/GD32VW55X_Wifi_BLE_SDK/GD32VW55x_RELEASE_V1.0.2/MSDK/lwip/lwip-2.1.2/src/core\udp.c ****         pcb2->next = pcb->next;
1223:C:/Users/stapi/OneDrive/Desktop/GD32VW553/GD32VW55X_Wifi_BLE_SDK/GD32VW55x_RELEASE_V1.0.2/MSDK/lwip/lwip-2.1.2/src/core\udp.c ****         break;
1224:C:/Users/stapi/OneDrive/Desktop/GD32VW553/GD32VW55X_Wifi_BLE_SDK/GD32VW55x_RELEASE_V1.0.2/MSDK/lwip/lwip-2.1.2/src/core\udp.c ****       }
1225:C:/Users/stapi/OneDrive/Desktop/GD32VW553/GD32VW55X_Wifi_BLE_SDK/GD32VW55x_RELEASE_V1.0.2/MSDK/lwip/lwip-2.1.2/src/core\udp.c ****     }
1226:C:/Users/stapi/OneDrive/Desktop/GD32VW553/GD32VW55X_Wifi_BLE_SDK/GD32VW55x_RELEASE_V1.0.2/MSDK/lwip/lwip-2.1.2/src/core\udp.c ****   }
1227:C:/Users/stapi/OneDrive/Desktop/GD32VW553/GD32VW55X_Wifi_BLE_SDK/GD32VW55x_RELEASE_V1.0.2/MSDK/lwip/lwip-2.1.2/src/core\udp.c ****   memp_free(MEMP_UDP_PCB, pcb);
 2075              		.loc 1 1227 3 is_stmt 1
 2076 0044 0545     		li	a0,1
 2077              	.LVL249:
 2078 0046 97000000 		call	memp_free
 2078      E7800000 
 2079              	.LVL250:
1228:C:/Users/stapi/OneDrive/Desktop/GD32VW553/GD32VW55X_Wifi_BLE_SDK/GD32VW55x_RELEASE_V1.0.2/MSDK/lwip/lwip-2.1.2/src/core\udp.c **** }
 2080              		.loc 1 1228 1 is_stmt 0
 2081 004e 17030000 		tail	__riscv_restore_0
 2081      67000300 
 2082              		.cfi_remember_state
 2083              		.cfi_restore 1
 2084              		.cfi_def_cfa_offset 0
 2085              	.LVL251:
 2086              	.L220:
 2087              		.cfi_restore_state
 2088 0056 BA87     		mv	a5,a4
 2089              	.LVL252:
 2090              	.L217:
1218:C:/Users/stapi/OneDrive/Desktop/GD32VW553/GD32VW55X_Wifi_BLE_SDK/GD32VW55x_RELEASE_V1.0.2/MSDK/lwip/lwip-2.1.2/src/core\udp.c ****       /* find pcb in udp_pcbs list */
 2091              		.loc 1 1218 27 is_stmt 1 discriminator 1
1218:C:/Users/stapi/OneDrive/Desktop/GD32VW553/GD32VW55X_Wifi_BLE_SDK/GD32VW55x_RELEASE_V1.0.2/MSDK/lwip/lwip-2.1.2/src/core\udp.c ****       /* find pcb in udp_pcbs list */
 2092              		.loc 1 1218 5 is_stmt 0 discriminator 1
 2093 0058 F5D7     		beq	a5,zero,.L218
1220:C:/Users/stapi/OneDrive/Desktop/GD32VW553/GD32VW55X_Wifi_BLE_SDK/GD32VW55x_RELEASE_V1.0.2/MSDK/lwip/lwip-2.1.2/src/core\udp.c ****         /* remove pcb from list */
 2094              		.loc 1 1220 7 is_stmt 1
1220:C:/Users/stapi/OneDrive/Desktop/GD32VW553/GD32VW55X_Wifi_BLE_SDK/GD32VW55x_RELEASE_V1.0.2/MSDK/lwip/lwip-2.1.2/src/core\udp.c ****         /* remove pcb from list */
 2095              		.loc 1 1220 15 is_stmt 0
 2096 005a D847     		lw	a4,12(a5)
1220:C:/Users/stapi/OneDrive/Desktop/GD32VW553/GD32VW55X_Wifi_BLE_SDK/GD32VW55x_RELEASE_V1.0.2/MSDK/lwip/lwip-2.1.2/src/core\udp.c ****         /* remove pcb from list */
 2097              		.loc 1 1220 10
 2098 005c 65D7     		beq	a4,zero,.L218
1220:C:/Users/stapi/OneDrive/Desktop/GD32VW553/GD32VW55X_Wifi_BLE_SDK/GD32VW55x_RELEASE_V1.0.2/MSDK/lwip/lwip-2.1.2/src/core\udp.c ****         /* remove pcb from list */
 2099              		.loc 1 1220 30 discriminator 1
 2100 005e E31CB7FE 		bne	a4,a1,.L220
1222:C:/Users/stapi/OneDrive/Desktop/GD32VW553/GD32VW55X_Wifi_BLE_SDK/GD32VW55x_RELEASE_V1.0.2/MSDK/lwip/lwip-2.1.2/src/core\udp.c ****         break;
 2101              		.loc 1 1222 9 is_stmt 1
1222:C:/Users/stapi/OneDrive/Desktop/GD32VW553/GD32VW55X_Wifi_BLE_SDK/GD32VW55x_RELEASE_V1.0.2/MSDK/lwip/lwip-2.1.2/src/core\udp.c ****         break;
 2102              		.loc 1 1222 25 is_stmt 0
 2103 0062 D845     		lw	a4,12(a1)
1222:C:/Users/stapi/OneDrive/Desktop/GD32VW553/GD32VW55X_Wifi_BLE_SDK/GD32VW55x_RELEASE_V1.0.2/MSDK/lwip/lwip-2.1.2/src/core\udp.c ****         break;
 2104              		.loc 1 1222 20
 2105 0064 D8C7     		sw	a4,12(a5)
1223:C:/Users/stapi/OneDrive/Desktop/GD32VW553/GD32VW55X_Wifi_BLE_SDK/GD32VW55x_RELEASE_V1.0.2/MSDK/lwip/lwip-2.1.2/src/core\udp.c ****       }
 2106              		.loc 1 1223 9 is_stmt 1
 2107 0066 F9BF     		j	.L218
 2108              		.cfi_endproc
 2109              	.LFE17:
 2111              		.section	.text.udp_new,"ax",@progbits
 2112              		.align	1
 2113              		.globl	udp_new
 2115              	udp_new:
 2116              	.LFB18:
1229:C:/Users/stapi/OneDrive/Desktop/GD32VW553/GD32VW55X_Wifi_BLE_SDK/GD32VW55x_RELEASE_V1.0.2/MSDK/lwip/lwip-2.1.2/src/core\udp.c **** 
1230:C:/Users/stapi/OneDrive/Desktop/GD32VW553/GD32VW55X_Wifi_BLE_SDK/GD32VW55x_RELEASE_V1.0.2/MSDK/lwip/lwip-2.1.2/src/core\udp.c **** /**
1231:C:/Users/stapi/OneDrive/Desktop/GD32VW553/GD32VW55X_Wifi_BLE_SDK/GD32VW55x_RELEASE_V1.0.2/MSDK/lwip/lwip-2.1.2/src/core\udp.c ****  * @ingroup udp_raw
1232:C:/Users/stapi/OneDrive/Desktop/GD32VW553/GD32VW55X_Wifi_BLE_SDK/GD32VW55x_RELEASE_V1.0.2/MSDK/lwip/lwip-2.1.2/src/core\udp.c ****  * Creates a new UDP pcb which can be used for UDP communication. The
1233:C:/Users/stapi/OneDrive/Desktop/GD32VW553/GD32VW55X_Wifi_BLE_SDK/GD32VW55x_RELEASE_V1.0.2/MSDK/lwip/lwip-2.1.2/src/core\udp.c ****  * pcb is not active until it has either been bound to a local address
1234:C:/Users/stapi/OneDrive/Desktop/GD32VW553/GD32VW55X_Wifi_BLE_SDK/GD32VW55x_RELEASE_V1.0.2/MSDK/lwip/lwip-2.1.2/src/core\udp.c ****  * or connected to a remote address.
1235:C:/Users/stapi/OneDrive/Desktop/GD32VW553/GD32VW55X_Wifi_BLE_SDK/GD32VW55x_RELEASE_V1.0.2/MSDK/lwip/lwip-2.1.2/src/core\udp.c ****  *
1236:C:/Users/stapi/OneDrive/Desktop/GD32VW553/GD32VW55X_Wifi_BLE_SDK/GD32VW55x_RELEASE_V1.0.2/MSDK/lwip/lwip-2.1.2/src/core\udp.c ****  * @return The UDP PCB which was created. NULL if the PCB data structure
1237:C:/Users/stapi/OneDrive/Desktop/GD32VW553/GD32VW55X_Wifi_BLE_SDK/GD32VW55x_RELEASE_V1.0.2/MSDK/lwip/lwip-2.1.2/src/core\udp.c ****  * could not be allocated.
1238:C:/Users/stapi/OneDrive/Desktop/GD32VW553/GD32VW55X_Wifi_BLE_SDK/GD32VW55x_RELEASE_V1.0.2/MSDK/lwip/lwip-2.1.2/src/core\udp.c ****  *
1239:C:/Users/stapi/OneDrive/Desktop/GD32VW553/GD32VW55X_Wifi_BLE_SDK/GD32VW55x_RELEASE_V1.0.2/MSDK/lwip/lwip-2.1.2/src/core\udp.c ****  * @see udp_remove()
1240:C:/Users/stapi/OneDrive/Desktop/GD32VW553/GD32VW55X_Wifi_BLE_SDK/GD32VW55x_RELEASE_V1.0.2/MSDK/lwip/lwip-2.1.2/src/core\udp.c ****  */
1241:C:/Users/stapi/OneDrive/Desktop/GD32VW553/GD32VW55X_Wifi_BLE_SDK/GD32VW55x_RELEASE_V1.0.2/MSDK/lwip/lwip-2.1.2/src/core\udp.c **** struct udp_pcb *
1242:C:/Users/stapi/OneDrive/Desktop/GD32VW553/GD32VW55X_Wifi_BLE_SDK/GD32VW55x_RELEASE_V1.0.2/MSDK/lwip/lwip-2.1.2/src/core\udp.c **** udp_new(void)
1243:C:/Users/stapi/OneDrive/Desktop/GD32VW553/GD32VW55X_Wifi_BLE_SDK/GD32VW55x_RELEASE_V1.0.2/MSDK/lwip/lwip-2.1.2/src/core\udp.c **** {
 2117              		.loc 1 1243 1
 2118              		.cfi_startproc
 2119 0000 17030000 		call	t0,__riscv_save_1
 2119      E7020300 
 2120              		.cfi_offset 8, -8
 2121              		.cfi_offset 1, -4
 2122              		.cfi_def_cfa_offset 16
1244:C:/Users/stapi/OneDrive/Desktop/GD32VW553/GD32VW55X_Wifi_BLE_SDK/GD32VW55x_RELEASE_V1.0.2/MSDK/lwip/lwip-2.1.2/src/core\udp.c ****   struct udp_pcb *pcb;
 2123              		.loc 1 1244 3
1245:C:/Users/stapi/OneDrive/Desktop/GD32VW553/GD32VW55X_Wifi_BLE_SDK/GD32VW55x_RELEASE_V1.0.2/MSDK/lwip/lwip-2.1.2/src/core\udp.c **** 
1246:C:/Users/stapi/OneDrive/Desktop/GD32VW553/GD32VW55X_Wifi_BLE_SDK/GD32VW55x_RELEASE_V1.0.2/MSDK/lwip/lwip-2.1.2/src/core\udp.c ****   LWIP_ASSERT_CORE_LOCKED();
 2124              		.loc 1 1246 28
1247:C:/Users/stapi/OneDrive/Desktop/GD32VW553/GD32VW55X_Wifi_BLE_SDK/GD32VW55x_RELEASE_V1.0.2/MSDK/lwip/lwip-2.1.2/src/core\udp.c **** 
1248:C:/Users/stapi/OneDrive/Desktop/GD32VW553/GD32VW55X_Wifi_BLE_SDK/GD32VW55x_RELEASE_V1.0.2/MSDK/lwip/lwip-2.1.2/src/core\udp.c ****   pcb = (struct udp_pcb *)memp_malloc(MEMP_UDP_PCB);
 2125              		.loc 1 1248 3
 2126              		.loc 1 1248 27 is_stmt 0
 2127 0008 0545     		li	a0,1
 2128 000a 97000000 		call	memp_malloc
 2128      E7800000 
 2129              	.LVL253:
 2130 0012 2A84     		mv	s0,a0
 2131              	.LVL254:
1249:C:/Users/stapi/OneDrive/Desktop/GD32VW553/GD32VW55X_Wifi_BLE_SDK/GD32VW55x_RELEASE_V1.0.2/MSDK/lwip/lwip-2.1.2/src/core\udp.c ****   /* could allocate UDP PCB? */
1250:C:/Users/stapi/OneDrive/Desktop/GD32VW553/GD32VW55X_Wifi_BLE_SDK/GD32VW55x_RELEASE_V1.0.2/MSDK/lwip/lwip-2.1.2/src/core\udp.c ****   if (pcb != NULL) {
 2132              		.loc 1 1250 3 is_stmt 1
 2133              		.loc 1 1250 6 is_stmt 0
 2134 0014 09CD     		beq	a0,zero,.L226
1251:C:/Users/stapi/OneDrive/Desktop/GD32VW553/GD32VW55X_Wifi_BLE_SDK/GD32VW55x_RELEASE_V1.0.2/MSDK/lwip/lwip-2.1.2/src/core\udp.c ****     /* UDP Lite: by initializing to all zeroes, chksum_len is set to 0
1252:C:/Users/stapi/OneDrive/Desktop/GD32VW553/GD32VW55X_Wifi_BLE_SDK/GD32VW55x_RELEASE_V1.0.2/MSDK/lwip/lwip-2.1.2/src/core\udp.c ****      * which means checksum is generated over the whole datagram per default
1253:C:/Users/stapi/OneDrive/Desktop/GD32VW553/GD32VW55X_Wifi_BLE_SDK/GD32VW55x_RELEASE_V1.0.2/MSDK/lwip/lwip-2.1.2/src/core\udp.c ****      * (recommended as default by RFC 3828). */
1254:C:/Users/stapi/OneDrive/Desktop/GD32VW553/GD32VW55X_Wifi_BLE_SDK/GD32VW55x_RELEASE_V1.0.2/MSDK/lwip/lwip-2.1.2/src/core\udp.c ****     /* initialize PCB to all zeroes */
1255:C:/Users/stapi/OneDrive/Desktop/GD32VW553/GD32VW55X_Wifi_BLE_SDK/GD32VW55x_RELEASE_V1.0.2/MSDK/lwip/lwip-2.1.2/src/core\udp.c ****     memset(pcb, 0, sizeof(struct udp_pcb));
 2135              		.loc 1 1255 5 is_stmt 1
 2136 0016 13068002 		li	a2,40
 2137 001a 8145     		li	a1,0
 2138 001c 97000000 		call	memset
 2138      E7800000 
 2139              	.LVL255:
1256:C:/Users/stapi/OneDrive/Desktop/GD32VW553/GD32VW55X_Wifi_BLE_SDK/GD32VW55x_RELEASE_V1.0.2/MSDK/lwip/lwip-2.1.2/src/core\udp.c ****     pcb->ttl = UDP_TTL;
 2140              		.loc 1 1256 5
 2141              		.loc 1 1256 14 is_stmt 0
 2142 0024 FD57     		li	a5,-1
 2143 0026 A305F400 		sb	a5,11(s0)
1257:C:/Users/stapi/OneDrive/Desktop/GD32VW553/GD32VW55X_Wifi_BLE_SDK/GD32VW55x_RELEASE_V1.0.2/MSDK/lwip/lwip-2.1.2/src/core\udp.c **** #if LWIP_MULTICAST_TX_OPTIONS
1258:C:/Users/stapi/OneDrive/Desktop/GD32VW553/GD32VW55X_Wifi_BLE_SDK/GD32VW55x_RELEASE_V1.0.2/MSDK/lwip/lwip-2.1.2/src/core\udp.c ****     udp_set_multicast_ttl(pcb, UDP_TTL);
 2144              		.loc 1 1258 5 is_stmt 1
 2145 002a A30EF400 		sb	a5,29(s0)
1259:C:/Users/stapi/OneDrive/Desktop/GD32VW553/GD32VW55X_Wifi_BLE_SDK/GD32VW55x_RELEASE_V1.0.2/MSDK/lwip/lwip-2.1.2/src/core\udp.c **** #endif /* LWIP_MULTICAST_TX_OPTIONS */
1260:C:/Users/stapi/OneDrive/Desktop/GD32VW553/GD32VW55X_Wifi_BLE_SDK/GD32VW55x_RELEASE_V1.0.2/MSDK/lwip/lwip-2.1.2/src/core\udp.c ****   }
1261:C:/Users/stapi/OneDrive/Desktop/GD32VW553/GD32VW55X_Wifi_BLE_SDK/GD32VW55x_RELEASE_V1.0.2/MSDK/lwip/lwip-2.1.2/src/core\udp.c ****   return pcb;
 2146              		.loc 1 1261 3
 2147              	.L226:
1262:C:/Users/stapi/OneDrive/Desktop/GD32VW553/GD32VW55X_Wifi_BLE_SDK/GD32VW55x_RELEASE_V1.0.2/MSDK/lwip/lwip-2.1.2/src/core\udp.c **** }
 2148              		.loc 1 1262 1 is_stmt 0
 2149 002e 2285     		mv	a0,s0
 2150 0030 17030000 		tail	__riscv_restore_1
 2150      67000300 
 2151              		.cfi_restore 8
 2152              		.cfi_restore 1
 2153              		.cfi_def_cfa_offset 0
 2154              		.cfi_endproc
 2155              	.LFE18:
 2157              		.section	.text.udp_new_ip_type,"ax",@progbits
 2158              		.align	1
 2159              		.globl	udp_new_ip_type
 2161              	udp_new_ip_type:
 2162              	.LFB19:
1263:C:/Users/stapi/OneDrive/Desktop/GD32VW553/GD32VW55X_Wifi_BLE_SDK/GD32VW55x_RELEASE_V1.0.2/MSDK/lwip/lwip-2.1.2/src/core\udp.c **** 
1264:C:/Users/stapi/OneDrive/Desktop/GD32VW553/GD32VW55X_Wifi_BLE_SDK/GD32VW55x_RELEASE_V1.0.2/MSDK/lwip/lwip-2.1.2/src/core\udp.c **** /**
1265:C:/Users/stapi/OneDrive/Desktop/GD32VW553/GD32VW55X_Wifi_BLE_SDK/GD32VW55x_RELEASE_V1.0.2/MSDK/lwip/lwip-2.1.2/src/core\udp.c ****  * @ingroup udp_raw
1266:C:/Users/stapi/OneDrive/Desktop/GD32VW553/GD32VW55X_Wifi_BLE_SDK/GD32VW55x_RELEASE_V1.0.2/MSDK/lwip/lwip-2.1.2/src/core\udp.c ****  * Create a UDP PCB for specific IP type.
1267:C:/Users/stapi/OneDrive/Desktop/GD32VW553/GD32VW55X_Wifi_BLE_SDK/GD32VW55x_RELEASE_V1.0.2/MSDK/lwip/lwip-2.1.2/src/core\udp.c ****  * The pcb is not active until it has either been bound to a local address
1268:C:/Users/stapi/OneDrive/Desktop/GD32VW553/GD32VW55X_Wifi_BLE_SDK/GD32VW55x_RELEASE_V1.0.2/MSDK/lwip/lwip-2.1.2/src/core\udp.c ****  * or connected to a remote address.
1269:C:/Users/stapi/OneDrive/Desktop/GD32VW553/GD32VW55X_Wifi_BLE_SDK/GD32VW55x_RELEASE_V1.0.2/MSDK/lwip/lwip-2.1.2/src/core\udp.c ****  *
1270:C:/Users/stapi/OneDrive/Desktop/GD32VW553/GD32VW55X_Wifi_BLE_SDK/GD32VW55x_RELEASE_V1.0.2/MSDK/lwip/lwip-2.1.2/src/core\udp.c ****  * @param type IP address type, see @ref lwip_ip_addr_type definitions.
1271:C:/Users/stapi/OneDrive/Desktop/GD32VW553/GD32VW55X_Wifi_BLE_SDK/GD32VW55x_RELEASE_V1.0.2/MSDK/lwip/lwip-2.1.2/src/core\udp.c ****  * If you want to listen to IPv4 and IPv6 (dual-stack) packets,
1272:C:/Users/stapi/OneDrive/Desktop/GD32VW553/GD32VW55X_Wifi_BLE_SDK/GD32VW55x_RELEASE_V1.0.2/MSDK/lwip/lwip-2.1.2/src/core\udp.c ****  * supply @ref IPADDR_TYPE_ANY as argument and bind to @ref IP_ANY_TYPE.
1273:C:/Users/stapi/OneDrive/Desktop/GD32VW553/GD32VW55X_Wifi_BLE_SDK/GD32VW55x_RELEASE_V1.0.2/MSDK/lwip/lwip-2.1.2/src/core\udp.c ****  * @return The UDP PCB which was created. NULL if the PCB data structure
1274:C:/Users/stapi/OneDrive/Desktop/GD32VW553/GD32VW55X_Wifi_BLE_SDK/GD32VW55x_RELEASE_V1.0.2/MSDK/lwip/lwip-2.1.2/src/core\udp.c ****  * could not be allocated.
1275:C:/Users/stapi/OneDrive/Desktop/GD32VW553/GD32VW55X_Wifi_BLE_SDK/GD32VW55x_RELEASE_V1.0.2/MSDK/lwip/lwip-2.1.2/src/core\udp.c ****  *
1276:C:/Users/stapi/OneDrive/Desktop/GD32VW553/GD32VW55X_Wifi_BLE_SDK/GD32VW55x_RELEASE_V1.0.2/MSDK/lwip/lwip-2.1.2/src/core\udp.c ****  * @see udp_remove()
1277:C:/Users/stapi/OneDrive/Desktop/GD32VW553/GD32VW55X_Wifi_BLE_SDK/GD32VW55x_RELEASE_V1.0.2/MSDK/lwip/lwip-2.1.2/src/core\udp.c ****  */
1278:C:/Users/stapi/OneDrive/Desktop/GD32VW553/GD32VW55X_Wifi_BLE_SDK/GD32VW55x_RELEASE_V1.0.2/MSDK/lwip/lwip-2.1.2/src/core\udp.c **** struct udp_pcb *
1279:C:/Users/stapi/OneDrive/Desktop/GD32VW553/GD32VW55X_Wifi_BLE_SDK/GD32VW55x_RELEASE_V1.0.2/MSDK/lwip/lwip-2.1.2/src/core\udp.c **** udp_new_ip_type(u8_t type)
1280:C:/Users/stapi/OneDrive/Desktop/GD32VW553/GD32VW55X_Wifi_BLE_SDK/GD32VW55x_RELEASE_V1.0.2/MSDK/lwip/lwip-2.1.2/src/core\udp.c **** {
 2163              		.loc 1 1280 1 is_stmt 1
 2164              		.cfi_startproc
 2165              	.LVL256:
1281:C:/Users/stapi/OneDrive/Desktop/GD32VW553/GD32VW55X_Wifi_BLE_SDK/GD32VW55x_RELEASE_V1.0.2/MSDK/lwip/lwip-2.1.2/src/core\udp.c ****   struct udp_pcb *pcb;
 2166              		.loc 1 1281 3
1282:C:/Users/stapi/OneDrive/Desktop/GD32VW553/GD32VW55X_Wifi_BLE_SDK/GD32VW55x_RELEASE_V1.0.2/MSDK/lwip/lwip-2.1.2/src/core\udp.c **** 
1283:C:/Users/stapi/OneDrive/Desktop/GD32VW553/GD32VW55X_Wifi_BLE_SDK/GD32VW55x_RELEASE_V1.0.2/MSDK/lwip/lwip-2.1.2/src/core\udp.c ****   LWIP_ASSERT_CORE_LOCKED();
 2167              		.loc 1 1283 28
1284:C:/Users/stapi/OneDrive/Desktop/GD32VW553/GD32VW55X_Wifi_BLE_SDK/GD32VW55x_RELEASE_V1.0.2/MSDK/lwip/lwip-2.1.2/src/core\udp.c **** 
1285:C:/Users/stapi/OneDrive/Desktop/GD32VW553/GD32VW55X_Wifi_BLE_SDK/GD32VW55x_RELEASE_V1.0.2/MSDK/lwip/lwip-2.1.2/src/core\udp.c ****   pcb = udp_new();
 2168              		.loc 1 1285 3
 2169              		.loc 1 1285 9 is_stmt 0
 2170 0000 17030000 		tail	udp_new
 2170      67000300 
 2171              	.LVL257:
1286:C:/Users/stapi/OneDrive/Desktop/GD32VW553/GD32VW55X_Wifi_BLE_SDK/GD32VW55x_RELEASE_V1.0.2/MSDK/lwip/lwip-2.1.2/src/core\udp.c **** #if LWIP_IPV4 && LWIP_IPV6
1287:C:/Users/stapi/OneDrive/Desktop/GD32VW553/GD32VW55X_Wifi_BLE_SDK/GD32VW55x_RELEASE_V1.0.2/MSDK/lwip/lwip-2.1.2/src/core\udp.c ****   if (pcb != NULL) {
1288:C:/Users/stapi/OneDrive/Desktop/GD32VW553/GD32VW55X_Wifi_BLE_SDK/GD32VW55x_RELEASE_V1.0.2/MSDK/lwip/lwip-2.1.2/src/core\udp.c ****     IP_SET_TYPE_VAL(pcb->local_ip,  type);
1289:C:/Users/stapi/OneDrive/Desktop/GD32VW553/GD32VW55X_Wifi_BLE_SDK/GD32VW55x_RELEASE_V1.0.2/MSDK/lwip/lwip-2.1.2/src/core\udp.c ****     IP_SET_TYPE_VAL(pcb->remote_ip, type);
1290:C:/Users/stapi/OneDrive/Desktop/GD32VW553/GD32VW55X_Wifi_BLE_SDK/GD32VW55x_RELEASE_V1.0.2/MSDK/lwip/lwip-2.1.2/src/core\udp.c ****   }
1291:C:/Users/stapi/OneDrive/Desktop/GD32VW553/GD32VW55X_Wifi_BLE_SDK/GD32VW55x_RELEASE_V1.0.2/MSDK/lwip/lwip-2.1.2/src/core\udp.c **** #else
1292:C:/Users/stapi/OneDrive/Desktop/GD32VW553/GD32VW55X_Wifi_BLE_SDK/GD32VW55x_RELEASE_V1.0.2/MSDK/lwip/lwip-2.1.2/src/core\udp.c ****   LWIP_UNUSED_ARG(type);
 2172              		.loc 1 1292 3 is_stmt 1
1293:C:/Users/stapi/OneDrive/Desktop/GD32VW553/GD32VW55X_Wifi_BLE_SDK/GD32VW55x_RELEASE_V1.0.2/MSDK/lwip/lwip-2.1.2/src/core\udp.c **** #endif /* LWIP_IPV4 && LWIP_IPV6 */
1294:C:/Users/stapi/OneDrive/Desktop/GD32VW553/GD32VW55X_Wifi_BLE_SDK/GD32VW55x_RELEASE_V1.0.2/MSDK/lwip/lwip-2.1.2/src/core\udp.c ****   return pcb;
 2173              		.loc 1 1294 3
 2174              		.cfi_endproc
 2175              	.LFE19:
 2177              		.section	.text.udp_netif_ip_addr_changed,"ax",@progbits
 2178              		.align	1
 2179              		.globl	udp_netif_ip_addr_changed
 2181              	udp_netif_ip_addr_changed:
 2182              	.LFB20:
1295:C:/Users/stapi/OneDrive/Desktop/GD32VW553/GD32VW55X_Wifi_BLE_SDK/GD32VW55x_RELEASE_V1.0.2/MSDK/lwip/lwip-2.1.2/src/core\udp.c **** }
1296:C:/Users/stapi/OneDrive/Desktop/GD32VW553/GD32VW55X_Wifi_BLE_SDK/GD32VW55x_RELEASE_V1.0.2/MSDK/lwip/lwip-2.1.2/src/core\udp.c **** 
1297:C:/Users/stapi/OneDrive/Desktop/GD32VW553/GD32VW55X_Wifi_BLE_SDK/GD32VW55x_RELEASE_V1.0.2/MSDK/lwip/lwip-2.1.2/src/core\udp.c **** /** This function is called from netif.c when address is changed
1298:C:/Users/stapi/OneDrive/Desktop/GD32VW553/GD32VW55X_Wifi_BLE_SDK/GD32VW55x_RELEASE_V1.0.2/MSDK/lwip/lwip-2.1.2/src/core\udp.c ****  *
1299:C:/Users/stapi/OneDrive/Desktop/GD32VW553/GD32VW55X_Wifi_BLE_SDK/GD32VW55x_RELEASE_V1.0.2/MSDK/lwip/lwip-2.1.2/src/core\udp.c ****  * @param old_addr IP address of the netif before change
1300:C:/Users/stapi/OneDrive/Desktop/GD32VW553/GD32VW55X_Wifi_BLE_SDK/GD32VW55x_RELEASE_V1.0.2/MSDK/lwip/lwip-2.1.2/src/core\udp.c ****  * @param new_addr IP address of the netif after change
1301:C:/Users/stapi/OneDrive/Desktop/GD32VW553/GD32VW55X_Wifi_BLE_SDK/GD32VW55x_RELEASE_V1.0.2/MSDK/lwip/lwip-2.1.2/src/core\udp.c ****  */
1302:C:/Users/stapi/OneDrive/Desktop/GD32VW553/GD32VW55X_Wifi_BLE_SDK/GD32VW55x_RELEASE_V1.0.2/MSDK/lwip/lwip-2.1.2/src/core\udp.c **** void udp_netif_ip_addr_changed(const ip_addr_t *old_addr, const ip_addr_t *new_addr)
1303:C:/Users/stapi/OneDrive/Desktop/GD32VW553/GD32VW55X_Wifi_BLE_SDK/GD32VW55x_RELEASE_V1.0.2/MSDK/lwip/lwip-2.1.2/src/core\udp.c **** {
 2183              		.loc 1 1303 1
 2184              		.cfi_startproc
 2185              	.LVL258:
1304:C:/Users/stapi/OneDrive/Desktop/GD32VW553/GD32VW55X_Wifi_BLE_SDK/GD32VW55x_RELEASE_V1.0.2/MSDK/lwip/lwip-2.1.2/src/core\udp.c ****   struct udp_pcb *upcb;
 2186              		.loc 1 1304 3
1305:C:/Users/stapi/OneDrive/Desktop/GD32VW553/GD32VW55X_Wifi_BLE_SDK/GD32VW55x_RELEASE_V1.0.2/MSDK/lwip/lwip-2.1.2/src/core\udp.c **** 
1306:C:/Users/stapi/OneDrive/Desktop/GD32VW553/GD32VW55X_Wifi_BLE_SDK/GD32VW55x_RELEASE_V1.0.2/MSDK/lwip/lwip-2.1.2/src/core\udp.c ****   if (!ip_addr_isany(old_addr) && !ip_addr_isany(new_addr)) {
 2187              		.loc 1 1306 3
 2188              		.loc 1 1306 6 is_stmt 0
 2189 0000 19C9     		beq	a0,zero,.L234
 2190              		.loc 1 1306 7 discriminator 1
 2191 0002 1C41     		lw	a5,0(a0)
 2192 0004 89CB     		beq	a5,zero,.L234
 2193              		.loc 1 1306 32 discriminator 2
 2194 0006 81C9     		beq	a1,zero,.L234
 2195              		.loc 1 1306 35 discriminator 3
 2196 0008 9C41     		lw	a5,0(a1)
 2197 000a 91C7     		beq	a5,zero,.L234
1307:C:/Users/stapi/OneDrive/Desktop/GD32VW553/GD32VW55X_Wifi_BLE_SDK/GD32VW55x_RELEASE_V1.0.2/MSDK/lwip/lwip-2.1.2/src/core\udp.c ****     for (upcb = udp_pcbs; upcb != NULL; upcb = upcb->next) {
 2198              		.loc 1 1307 5 is_stmt 1
 2199              		.loc 1 1307 15 is_stmt 0
 2200 000c B7070000 		lui	a5,%hi(.LANCHOR1)
 2201 0010 83A70700 		lw	a5,%lo(.LANCHOR1)(a5)
 2202              	.LVL259:
 2203              	.L237:
 2204              		.loc 1 1307 27 is_stmt 1 discriminator 1
 2205              		.loc 1 1307 5 is_stmt 0 discriminator 1
 2206 0014 91E3     		bne	a5,zero,.L239
 2207              	.LVL260:
 2208              	.L234:
1308:C:/Users/stapi/OneDrive/Desktop/GD32VW553/GD32VW55X_Wifi_BLE_SDK/GD32VW55x_RELEASE_V1.0.2/MSDK/lwip/lwip-2.1.2/src/core\udp.c ****       /* PCB bound to current local interface address? */
1309:C:/Users/stapi/OneDrive/Desktop/GD32VW553/GD32VW55X_Wifi_BLE_SDK/GD32VW55x_RELEASE_V1.0.2/MSDK/lwip/lwip-2.1.2/src/core\udp.c ****       if (ip_addr_cmp(&upcb->local_ip, old_addr)) {
1310:C:/Users/stapi/OneDrive/Desktop/GD32VW553/GD32VW55X_Wifi_BLE_SDK/GD32VW55x_RELEASE_V1.0.2/MSDK/lwip/lwip-2.1.2/src/core\udp.c ****         /* The PCB is bound to the old ipaddr and
1311:C:/Users/stapi/OneDrive/Desktop/GD32VW553/GD32VW55X_Wifi_BLE_SDK/GD32VW55x_RELEASE_V1.0.2/MSDK/lwip/lwip-2.1.2/src/core\udp.c ****          * is set to bound to the new one instead */
1312:C:/Users/stapi/OneDrive/Desktop/GD32VW553/GD32VW55X_Wifi_BLE_SDK/GD32VW55x_RELEASE_V1.0.2/MSDK/lwip/lwip-2.1.2/src/core\udp.c ****         ip_addr_copy(upcb->local_ip, *new_addr);
1313:C:/Users/stapi/OneDrive/Desktop/GD32VW553/GD32VW55X_Wifi_BLE_SDK/GD32VW55x_RELEASE_V1.0.2/MSDK/lwip/lwip-2.1.2/src/core\udp.c ****       }
1314:C:/Users/stapi/OneDrive/Desktop/GD32VW553/GD32VW55X_Wifi_BLE_SDK/GD32VW55x_RELEASE_V1.0.2/MSDK/lwip/lwip-2.1.2/src/core\udp.c ****     }
1315:C:/Users/stapi/OneDrive/Desktop/GD32VW553/GD32VW55X_Wifi_BLE_SDK/GD32VW55x_RELEASE_V1.0.2/MSDK/lwip/lwip-2.1.2/src/core\udp.c ****   }
1316:C:/Users/stapi/OneDrive/Desktop/GD32VW553/GD32VW55X_Wifi_BLE_SDK/GD32VW55x_RELEASE_V1.0.2/MSDK/lwip/lwip-2.1.2/src/core\udp.c **** }
 2209              		.loc 1 1316 1
 2210 0016 8280     		ret
 2211              	.LVL261:
 2212              	.L239:
1309:C:/Users/stapi/OneDrive/Desktop/GD32VW553/GD32VW55X_Wifi_BLE_SDK/GD32VW55x_RELEASE_V1.0.2/MSDK/lwip/lwip-2.1.2/src/core\udp.c ****         /* The PCB is bound to the old ipaddr and
 2213              		.loc 1 1309 7 is_stmt 1
1309:C:/Users/stapi/OneDrive/Desktop/GD32VW553/GD32VW55X_Wifi_BLE_SDK/GD32VW55x_RELEASE_V1.0.2/MSDK/lwip/lwip-2.1.2/src/core\udp.c ****         /* The PCB is bound to the old ipaddr and
 2214              		.loc 1 1309 10 is_stmt 0
 2215 0018 9443     		lw	a3,0(a5)
 2216 001a 1841     		lw	a4,0(a0)
 2217 001c 6394E600 		bne	a3,a4,.L238
1312:C:/Users/stapi/OneDrive/Desktop/GD32VW553/GD32VW55X_Wifi_BLE_SDK/GD32VW55x_RELEASE_V1.0.2/MSDK/lwip/lwip-2.1.2/src/core\udp.c ****       }
 2218              		.loc 1 1312 9 is_stmt 1
 2219 0020 9841     		lw	a4,0(a1)
 2220 0022 98C3     		sw	a4,0(a5)
 2221              	.L238:
1307:C:/Users/stapi/OneDrive/Desktop/GD32VW553/GD32VW55X_Wifi_BLE_SDK/GD32VW55x_RELEASE_V1.0.2/MSDK/lwip/lwip-2.1.2/src/core\udp.c ****       /* PCB bound to current local interface address? */
 2222              		.loc 1 1307 41 discriminator 2
1307:C:/Users/stapi/OneDrive/Desktop/GD32VW553/GD32VW55X_Wifi_BLE_SDK/GD32VW55x_RELEASE_V1.0.2/MSDK/lwip/lwip-2.1.2/src/core\udp.c ****       /* PCB bound to current local interface address? */
 2223              		.loc 1 1307 46 is_stmt 0 discriminator 2
 2224 0024 DC47     		lw	a5,12(a5)
 2225              	.LVL262:
 2226 0026 FDB7     		j	.L237
 2227              		.cfi_endproc
 2228              	.LFE20:
 2230              		.globl	udp_pcbs
 2231              		.section	.sbss.udp_pcbs,"aw",@nobits
 2232              		.align	2
 2233              		.set	.LANCHOR1,. + 0
 2236              	udp_pcbs:
 2237 0000 00000000 		.zero	4
 2238              		.section	.sdata.udp_port,"aw"
 2239              		.align	1
 2240              		.set	.LANCHOR0,. + 0
 2243              	udp_port:
 2244 0000 00C0     		.half	-16384
 2245              		.text
 2246              	.Letext0:
 2247              		.file 2 "c:\\users\\stapi\\onedrive\\desktop\\gd32vw553\\embeddedbuilder_v1.4.7.26843\\tools\\nucl
 2248              		.file 3 "c:\\users\\stapi\\onedrive\\desktop\\gd32vw553\\embeddedbuilder_v1.4.7.26843\\tools\\nucl
 2249              		.file 4 "..\\..\\..\\..\\lwip\\lwip-2.1.2\\src\\include/lwip/arch.h"
 2250              		.file 5 "..\\..\\..\\..\\lwip\\lwip-2.1.2\\src\\include/lwip/err.h"
 2251              		.file 6 "..\\..\\..\\..\\lwip\\lwip-2.1.2\\src\\include/lwip/pbuf.h"
 2252              		.file 7 "..\\..\\..\\..\\lwip\\lwip-2.1.2\\src\\include/lwip/ip4_addr.h"
 2253              		.file 8 "..\\..\\..\\..\\lwip\\lwip-2.1.2\\src\\include/lwip/ip_addr.h"
 2254              		.file 9 "..\\..\\..\\..\\lwip\\lwip-2.1.2\\src\\include/lwip/memp.h"
 2255              		.file 10 "..\\..\\..\\..\\lwip\\lwip-2.1.2\\src\\include/lwip/netif.h"
 2256              		.file 11 "..\\..\\..\\..\\lwip\\lwip-2.1.2\\src\\include/lwip/prot/ip4.h"
 2257              		.file 12 "..\\..\\..\\..\\lwip\\lwip-2.1.2\\src\\include/lwip/ip.h"
 2258              		.file 13 "..\\..\\..\\..\\lwip\\lwip-2.1.2\\src\\include/lwip/prot/udp.h"
 2259              		.file 14 "..\\..\\..\\..\\lwip\\lwip-2.1.2\\src\\include/lwip/udp.h"
 2260              		.file 15 "..\\..\\..\\..\\lwip\\lwip-2.1.2\\src\\include/lwip/icmp.h"
 2261              		.file 16 "c:\\users\\stapi\\onedrive\\desktop\\gd32vw553\\embeddedbuilder_v1.4.7.26843\\tools\\nuc
 2262              		.file 17 "..\\..\\..\\..\\lwip\\lwip-2.1.2\\src\\include/lwip/ip4.h"
 2263              		.file 18 "..\\..\\..\\..\\lwip\\lwip-2.1.2\\src\\include/lwip/def.h"
 2264              		.file 19 "..\\..\\..\\..\\lwip\\lwip-2.1.2\\src\\include/lwip/inet_chksum.h"
 2265              		.file 20 "c:\\users\\stapi\\onedrive\\desktop\\gd32vw553\\embeddedbuilder_v1.4.7.26843\\tools\\nuc
 2266              		.file 21 "<built-in>"
DEFINED SYMBOLS
                            *ABS*:0000000000000000 udp.c
C:\Users\stapi\AppData\Local\Temp\ccjEJfii.s:13     .text.udp_init:0000000000000000 udp_init
C:\Users\stapi\AppData\Local\Temp\ccjEJfii.s:17     .text.udp_init:0000000000000000 .L0 
C:\Users\stapi\AppData\Local\Temp\ccjEJfii.s:18     .text.udp_init:0000000000000000 .L0 
C:\Users\stapi\AppData\Local\Temp\ccjEJfii.s:19     .text.udp_init:0000000000000008 .L0 
C:\Users\stapi\AppData\Local\Temp\ccjEJfii.s:20     .text.udp_init:0000000000000008 .L0 
C:\Users\stapi\AppData\Local\Temp\ccjEJfii.s:22     .text.udp_init:0000000000000008 .L0 
C:\Users\stapi\AppData\Local\Temp\ccjEJfii.s:23     .text.udp_init:0000000000000008 .L0 
C:\Users\stapi\AppData\Local\Temp\ccjEJfii.s:30     .text.udp_init:0000000000000018 .L0 
C:\Users\stapi\AppData\Local\Temp\ccjEJfii.s:33     .text.udp_init:0000000000000020 .L0 
C:\Users\stapi\AppData\Local\Temp\ccjEJfii.s:34     .text.udp_init:0000000000000028 .L0 
C:\Users\stapi\AppData\Local\Temp\ccjEJfii.s:35     .text.udp_init:0000000000000028 .L0 
C:\Users\stapi\AppData\Local\Temp\ccjEJfii.s:36     .text.udp_init:0000000000000028 .L0 
C:\Users\stapi\AppData\Local\Temp\ccjEJfii.s:59     .text.udp_input:0000000000000000 udp_input
C:\Users\stapi\AppData\Local\Temp\ccjEJfii.s:62     .text.udp_input:0000000000000000 .L0 
C:\Users\stapi\AppData\Local\Temp\ccjEJfii.s:64     .text.udp_input:0000000000000000 .L0 
C:\Users\stapi\AppData\Local\Temp\ccjEJfii.s:65     .text.udp_input:0000000000000008 .L0 
C:\Users\stapi\AppData\Local\Temp\ccjEJfii.s:66     .text.udp_input:0000000000000008 .L0 
C:\Users\stapi\AppData\Local\Temp\ccjEJfii.s:67     .text.udp_input:0000000000000008 .L0 
C:\Users\stapi\AppData\Local\Temp\ccjEJfii.s:68     .text.udp_input:0000000000000008 .L0 
C:\Users\stapi\AppData\Local\Temp\ccjEJfii.s:69     .text.udp_input:0000000000000008 .L0 
C:\Users\stapi\AppData\Local\Temp\ccjEJfii.s:70     .text.udp_input:0000000000000008 .L0 
C:\Users\stapi\AppData\Local\Temp\ccjEJfii.s:71     .text.udp_input:0000000000000008 .L0 
C:\Users\stapi\AppData\Local\Temp\ccjEJfii.s:72     .text.udp_input:0000000000000008 .L0 
C:\Users\stapi\AppData\Local\Temp\ccjEJfii.s:73     .text.udp_input:0000000000000008 .L0 
C:\Users\stapi\AppData\Local\Temp\ccjEJfii.s:75     .text.udp_input:0000000000000008 .L0 
C:\Users\stapi\AppData\Local\Temp\ccjEJfii.s:76     .text.udp_input:0000000000000008 .L0 
C:\Users\stapi\AppData\Local\Temp\ccjEJfii.s:77     .text.udp_input:0000000000000008 .L0 
C:\Users\stapi\AppData\Local\Temp\ccjEJfii.s:78     .text.udp_input:0000000000000008 .L0 
C:\Users\stapi\AppData\Local\Temp\ccjEJfii.s:79     .text.udp_input:0000000000000008 .L0 
C:\Users\stapi\AppData\Local\Temp\ccjEJfii.s:81     .text.udp_input:0000000000000008 .L0 
C:\Users\stapi\AppData\Local\Temp\ccjEJfii.s:82     .text.udp_input:0000000000000008 .L0 
C:\Users\stapi\AppData\Local\Temp\ccjEJfii.s:83     .text.udp_input:0000000000000008 .L0 
C:\Users\stapi\AppData\Local\Temp\ccjEJfii.s:84     .text.udp_input:0000000000000008 .L0 
C:\Users\stapi\AppData\Local\Temp\ccjEJfii.s:85     .text.udp_input:0000000000000008 .L0 
C:\Users\stapi\AppData\Local\Temp\ccjEJfii.s:87     .text.udp_input:000000000000000a .L0 
C:\Users\stapi\AppData\Local\Temp\ccjEJfii.s:88     .text.udp_input:000000000000000a .L0 
C:\Users\stapi\AppData\Local\Temp\ccjEJfii.s:101    .text.udp_input:000000000000002e .L0 
C:\Users\stapi\AppData\Local\Temp\ccjEJfii.s:102    .text.udp_input:000000000000002e .L0 
C:\Users\stapi\AppData\Local\Temp\ccjEJfii.s:103    .text.udp_input:000000000000002e .L0 
C:\Users\stapi\AppData\Local\Temp\ccjEJfii.s:108    .text.udp_input:0000000000000032 .L0 
C:\Users\stapi\AppData\Local\Temp\ccjEJfii.s:109    .text.udp_input:0000000000000032 .L0 
C:\Users\stapi\AppData\Local\Temp\ccjEJfii.s:110    .text.udp_input:0000000000000032 .L0 
C:\Users\stapi\AppData\Local\Temp\ccjEJfii.s:111    .text.udp_input:0000000000000032 .L0 
C:\Users\stapi\AppData\Local\Temp\ccjEJfii.s:113    .text.udp_input:0000000000000034 .L0 
C:\Users\stapi\AppData\Local\Temp\ccjEJfii.s:114    .text.udp_input:0000000000000034 .L0 
C:\Users\stapi\AppData\Local\Temp\ccjEJfii.s:127    .text.udp_input:0000000000000058 .L0 
C:\Users\stapi\AppData\Local\Temp\ccjEJfii.s:128    .text.udp_input:0000000000000058 .L0 
C:\Users\stapi\AppData\Local\Temp\ccjEJfii.s:129    .text.udp_input:0000000000000058 .L0 
C:\Users\stapi\AppData\Local\Temp\ccjEJfii.s:133    .text.udp_input:000000000000005a .L0 
C:\Users\stapi\AppData\Local\Temp\ccjEJfii.s:137    .text.udp_input:0000000000000062 .L0 
C:\Users\stapi\AppData\Local\Temp\ccjEJfii.s:138    .text.udp_input:0000000000000062 .L0 
C:\Users\stapi\AppData\Local\Temp\ccjEJfii.s:139    .text.udp_input:0000000000000062 .L0 
C:\Users\stapi\AppData\Local\Temp\ccjEJfii.s:140    .text.udp_input:0000000000000062 .L0 
C:\Users\stapi\AppData\Local\Temp\ccjEJfii.s:141    .text.udp_input:0000000000000062 .L0 
C:\Users\stapi\AppData\Local\Temp\ccjEJfii.s:142    .text.udp_input:0000000000000062 .L0 
C:\Users\stapi\AppData\Local\Temp\ccjEJfii.s:146    .text.udp_input:0000000000000066 .L0 
C:\Users\stapi\AppData\Local\Temp\ccjEJfii.s:147    .text.udp_input:0000000000000066 .L0 
C:\Users\stapi\AppData\Local\Temp\ccjEJfii.s:148    .text.udp_input:0000000000000066 .L0 
C:\Users\stapi\AppData\Local\Temp\ccjEJfii.s:149    .text.udp_input:0000000000000066 .L0 
C:\Users\stapi\AppData\Local\Temp\ccjEJfii.s:150    .text.udp_input:0000000000000066 .L0 
C:\Users\stapi\AppData\Local\Temp\ccjEJfii.s:155    .text.udp_input:0000000000000070 .L0 
C:\Users\stapi\AppData\Local\Temp\ccjEJfii.s:156    .text.udp_input:0000000000000070 .L0 
C:\Users\stapi\AppData\Local\Temp\ccjEJfii.s:157    .text.udp_input:0000000000000078 .L0 
C:\Users\stapi\AppData\Local\Temp\ccjEJfii.s:158    .text.udp_input:0000000000000078 .L0 
C:\Users\stapi\AppData\Local\Temp\ccjEJfii.s:159    .text.udp_input:0000000000000078 .L0 
C:\Users\stapi\AppData\Local\Temp\ccjEJfii.s:160    .text.udp_input:0000000000000078 .L0 
C:\Users\stapi\AppData\Local\Temp\ccjEJfii.s:161    .text.udp_input:0000000000000078 .L0 
C:\Users\stapi\AppData\Local\Temp\ccjEJfii.s:162    .text.udp_input:0000000000000078 .L0 
C:\Users\stapi\AppData\Local\Temp\ccjEJfii.s:163    .text.udp_input:0000000000000078 .L0 
C:\Users\stapi\AppData\Local\Temp\ccjEJfii.s:164    .text.udp_input:0000000000000078 .L0 
C:\Users\stapi\AppData\Local\Temp\ccjEJfii.s:165    .text.udp_input:0000000000000078 .L0 
C:\Users\stapi\AppData\Local\Temp\ccjEJfii.s:166    .text.udp_input:0000000000000078 .L0 
C:\Users\stapi\AppData\Local\Temp\ccjEJfii.s:169    .text.udp_input:0000000000000078 .L0 
C:\Users\stapi\AppData\Local\Temp\ccjEJfii.s:171    .text.udp_input:0000000000000078 .L0 
C:\Users\stapi\AppData\Local\Temp\ccjEJfii.s:172    .text.udp_input:0000000000000078 .L0 
C:\Users\stapi\AppData\Local\Temp\ccjEJfii.s:175    .text.udp_input:0000000000000080 .L0 
C:\Users\stapi\AppData\Local\Temp\ccjEJfii.s:178    .text.udp_input:0000000000000084 .L0 
C:\Users\stapi\AppData\Local\Temp\ccjEJfii.s:179    .text.udp_input:0000000000000084 .L0 
C:\Users\stapi\AppData\Local\Temp\ccjEJfii.s:186    .text.udp_input:0000000000000094 .L0 
C:\Users\stapi\AppData\Local\Temp\ccjEJfii.s:188    .text.udp_input:0000000000000098 .L0 
C:\Users\stapi\AppData\Local\Temp\ccjEJfii.s:191    .text.udp_input:000000000000009a .L0 
C:\Users\stapi\AppData\Local\Temp\ccjEJfii.s:192    .text.udp_input:000000000000009a .L0 
C:\Users\stapi\AppData\Local\Temp\ccjEJfii.s:193    .text.udp_input:000000000000009a .L0 
C:\Users\stapi\AppData\Local\Temp\ccjEJfii.s:199    .text.udp_input:00000000000000aa .L0 
C:\Users\stapi\AppData\Local\Temp\ccjEJfii.s:201    .text.udp_input:00000000000000ae .L0 
C:\Users\stapi\AppData\Local\Temp\ccjEJfii.s:204    .text.udp_input:00000000000000b0 .L0 
C:\Users\stapi\AppData\Local\Temp\ccjEJfii.s:205    .text.udp_input:00000000000000b0 .L0 
C:\Users\stapi\AppData\Local\Temp\ccjEJfii.s:211    .text.udp_input:00000000000000c0 .L0 
C:\Users\stapi\AppData\Local\Temp\ccjEJfii.s:212    .text.udp_input:00000000000000c0 .L0 
C:\Users\stapi\AppData\Local\Temp\ccjEJfii.s:213    .text.udp_input:00000000000000c0 .L0 
C:\Users\stapi\AppData\Local\Temp\ccjEJfii.s:214    .text.udp_input:00000000000000c0 .L0 
C:\Users\stapi\AppData\Local\Temp\ccjEJfii.s:215    .text.udp_input:00000000000000c0 .L0 
C:\Users\stapi\AppData\Local\Temp\ccjEJfii.s:216    .text.udp_input:00000000000000c0 .L0 
C:\Users\stapi\AppData\Local\Temp\ccjEJfii.s:217    .text.udp_input:00000000000000c0 .L0 
C:\Users\stapi\AppData\Local\Temp\ccjEJfii.s:218    .text.udp_input:00000000000000c0 .L0 
C:\Users\stapi\AppData\Local\Temp\ccjEJfii.s:219    .text.udp_input:00000000000000c0 .L0 
C:\Users\stapi\AppData\Local\Temp\ccjEJfii.s:220    .text.udp_input:00000000000000c0 .L0 
C:\Users\stapi\AppData\Local\Temp\ccjEJfii.s:221    .text.udp_input:00000000000000c0 .L0 
C:\Users\stapi\AppData\Local\Temp\ccjEJfii.s:227    .text.udp_input:00000000000000c8 .L0 
C:\Users\stapi\AppData\Local\Temp\ccjEJfii.s:229    .text.udp_input:00000000000000cc .L0 
C:\Users\stapi\AppData\Local\Temp\ccjEJfii.s:233    .text.udp_input:00000000000000ce .L0 
C:\Users\stapi\AppData\Local\Temp\ccjEJfii.s:235    .text.udp_input:00000000000000d2 .L0 
C:\Users\stapi\AppData\Local\Temp\ccjEJfii.s:237    .text.udp_input:00000000000000d4 .L0 
C:\Users\stapi\AppData\Local\Temp\ccjEJfii.s:239    .text.udp_input:00000000000000d6 .L0 
C:\Users\stapi\AppData\Local\Temp\ccjEJfii.s:242    .text.udp_input:00000000000000dc .L0 
C:\Users\stapi\AppData\Local\Temp\ccjEJfii.s:246    .text.udp_input:00000000000000de .L0 
C:\Users\stapi\AppData\Local\Temp\ccjEJfii.s:247    .text.udp_input:00000000000000de .L0 
C:\Users\stapi\AppData\Local\Temp\ccjEJfii.s:250    .text.udp_input:00000000000000e0 .L0 
C:\Users\stapi\AppData\Local\Temp\ccjEJfii.s:252    .text.udp_input:00000000000000e0 .L0 
C:\Users\stapi\AppData\Local\Temp\ccjEJfii.s:253    .text.udp_input:00000000000000e0 .L0 
C:\Users\stapi\AppData\Local\Temp\ccjEJfii.s:254    .text.udp_input:00000000000000e0 .L0 
C:\Users\stapi\AppData\Local\Temp\ccjEJfii.s:257    .text.udp_input:00000000000000e2 .L0 
C:\Users\stapi\AppData\Local\Temp\ccjEJfii.s:258    .text.udp_input:00000000000000e2 .L0 
C:\Users\stapi\AppData\Local\Temp\ccjEJfii.s:259    .text.udp_input:00000000000000e2 .L0 
C:\Users\stapi\AppData\Local\Temp\ccjEJfii.s:260    .text.udp_input:00000000000000e2 .L0 
C:\Users\stapi\AppData\Local\Temp\ccjEJfii.s:266    .text.udp_input:00000000000000ec .L0 
C:\Users\stapi\AppData\Local\Temp\ccjEJfii.s:267    .text.udp_input:00000000000000ec .L0 
C:\Users\stapi\AppData\Local\Temp\ccjEJfii.s:268    .text.udp_input:00000000000000ec .L0 
C:\Users\stapi\AppData\Local\Temp\ccjEJfii.s:269    .text.udp_input:00000000000000ec .L0 
C:\Users\stapi\AppData\Local\Temp\ccjEJfii.s:270    .text.udp_input:00000000000000ec .L0 
C:\Users\stapi\AppData\Local\Temp\ccjEJfii.s:271    .text.udp_input:00000000000000ec .L0 
C:\Users\stapi\AppData\Local\Temp\ccjEJfii.s:272    .text.udp_input:00000000000000ec .L0 
C:\Users\stapi\AppData\Local\Temp\ccjEJfii.s:278    .text.udp_input:00000000000000f4 .L0 
C:\Users\stapi\AppData\Local\Temp\ccjEJfii.s:279    .text.udp_input:00000000000000f4 .L0 
C:\Users\stapi\AppData\Local\Temp\ccjEJfii.s:280    .text.udp_input:00000000000000f4 .L0 
C:\Users\stapi\AppData\Local\Temp\ccjEJfii.s:281    .text.udp_input:00000000000000f4 .L0 
C:\Users\stapi\AppData\Local\Temp\ccjEJfii.s:282    .text.udp_input:00000000000000f4 .L0 
C:\Users\stapi\AppData\Local\Temp\ccjEJfii.s:283    .text.udp_input:00000000000000f4 .L0 
C:\Users\stapi\AppData\Local\Temp\ccjEJfii.s:284    .text.udp_input:00000000000000f4 .L0 
C:\Users\stapi\AppData\Local\Temp\ccjEJfii.s:285    .text.udp_input:00000000000000f4 .L0 
C:\Users\stapi\AppData\Local\Temp\ccjEJfii.s:286    .text.udp_input:00000000000000f4 .L0 
C:\Users\stapi\AppData\Local\Temp\ccjEJfii.s:287    .text.udp_input:00000000000000f4 .L0 
C:\Users\stapi\AppData\Local\Temp\ccjEJfii.s:288    .text.udp_input:00000000000000f4 .L0 
C:\Users\stapi\AppData\Local\Temp\ccjEJfii.s:289    .text.udp_input:00000000000000f4 .L0 
C:\Users\stapi\AppData\Local\Temp\ccjEJfii.s:291    .text.udp_input:00000000000000f8 .L0 
C:\Users\stapi\AppData\Local\Temp\ccjEJfii.s:293    .text.udp_input:00000000000000fa .L0 
C:\Users\stapi\AppData\Local\Temp\ccjEJfii.s:296    .text.udp_input:0000000000000100 .L0 
C:\Users\stapi\AppData\Local\Temp\ccjEJfii.s:300    .text.udp_input:0000000000000108 .L0 
C:\Users\stapi\AppData\Local\Temp\ccjEJfii.s:301    .text.udp_input:0000000000000108 .L0 
C:\Users\stapi\AppData\Local\Temp\ccjEJfii.s:302    .text.udp_input:0000000000000108 .L0 
C:\Users\stapi\AppData\Local\Temp\ccjEJfii.s:303    .text.udp_input:0000000000000108 .L0 
C:\Users\stapi\AppData\Local\Temp\ccjEJfii.s:305    .text.udp_input:000000000000010a .L0 
C:\Users\stapi\AppData\Local\Temp\ccjEJfii.s:307    .text.udp_input:000000000000010e .L0 
C:\Users\stapi\AppData\Local\Temp\ccjEJfii.s:308    .text.udp_input:000000000000010e .L0 
C:\Users\stapi\AppData\Local\Temp\ccjEJfii.s:310    .text.udp_input:0000000000000110 .L0 
C:\Users\stapi\AppData\Local\Temp\ccjEJfii.s:312    .text.udp_input:0000000000000114 .L0 
C:\Users\stapi\AppData\Local\Temp\ccjEJfii.s:316    .text.udp_input:0000000000000120 .L0 
C:\Users\stapi\AppData\Local\Temp\ccjEJfii.s:322    .text.udp_input:0000000000000122 .L0 
C:\Users\stapi\AppData\Local\Temp\ccjEJfii.s:323    .text.udp_input:0000000000000122 .L0 
C:\Users\stapi\AppData\Local\Temp\ccjEJfii.s:327    .text.udp_input:000000000000012a .L0 
C:\Users\stapi\AppData\Local\Temp\ccjEJfii.s:328    .text.udp_input:000000000000012a .L0 
C:\Users\stapi\AppData\Local\Temp\ccjEJfii.s:330    .text.udp_input:000000000000012c .L0 
C:\Users\stapi\AppData\Local\Temp\ccjEJfii.s:331    .text.udp_input:000000000000012c .L0 
C:\Users\stapi\AppData\Local\Temp\ccjEJfii.s:333    .text.udp_input:0000000000000130 .L0 
C:\Users\stapi\AppData\Local\Temp\ccjEJfii.s:335    .text.udp_input:0000000000000134 .L0 
C:\Users\stapi\AppData\Local\Temp\ccjEJfii.s:336    .text.udp_input:0000000000000134 .L0 
C:\Users\stapi\AppData\Local\Temp\ccjEJfii.s:338    .text.udp_input:0000000000000138 .L0 
C:\Users\stapi\AppData\Local\Temp\ccjEJfii.s:341    .text.udp_input:0000000000000140 .L0 
C:\Users\stapi\AppData\Local\Temp\ccjEJfii.s:342    .text.udp_input:0000000000000140 .L0 
C:\Users\stapi\AppData\Local\Temp\ccjEJfii.s:352    .text.udp_input:0000000000000148 .L0 
C:\Users\stapi\AppData\Local\Temp\ccjEJfii.s:353    .text.udp_input:0000000000000148 .L0 
C:\Users\stapi\AppData\Local\Temp\ccjEJfii.s:355    .text.udp_input:000000000000014a .L0 
C:\Users\stapi\AppData\Local\Temp\ccjEJfii.s:361    .text.udp_input:000000000000014e .L0 
C:\Users\stapi\AppData\Local\Temp\ccjEJfii.s:362    .text.udp_input:000000000000014e .L0 
C:\Users\stapi\AppData\Local\Temp\ccjEJfii.s:363    .text.udp_input:000000000000014e .L0 
C:\Users\stapi\AppData\Local\Temp\ccjEJfii.s:369    .text.udp_input:0000000000000154 .L0 
C:\Users\stapi\AppData\Local\Temp\ccjEJfii.s:370    .text.udp_input:0000000000000154 .L0 
C:\Users\stapi\AppData\Local\Temp\ccjEJfii.s:374    .text.udp_input:0000000000000156 .L0 
C:\Users\stapi\AppData\Local\Temp\ccjEJfii.s:375    .text.udp_input:0000000000000156 .L0 
C:\Users\stapi\AppData\Local\Temp\ccjEJfii.s:378    .text.udp_input:000000000000015e .L0 
C:\Users\stapi\AppData\Local\Temp\ccjEJfii.s:380    .text.udp_input:0000000000000160 .L0 
C:\Users\stapi\AppData\Local\Temp\ccjEJfii.s:382    .text.udp_input:0000000000000162 .L0 
C:\Users\stapi\AppData\Local\Temp\ccjEJfii.s:385    .text.udp_input:0000000000000166 .L0 
C:\Users\stapi\AppData\Local\Temp\ccjEJfii.s:388    .text.udp_input:0000000000000168 .L0 
C:\Users\stapi\AppData\Local\Temp\ccjEJfii.s:391    .text.udp_input:000000000000016c .L0 
C:\Users\stapi\AppData\Local\Temp\ccjEJfii.s:392    .text.udp_input:000000000000016c .L0 
C:\Users\stapi\AppData\Local\Temp\ccjEJfii.s:394    .text.udp_input:000000000000016e .L0 
C:\Users\stapi\AppData\Local\Temp\ccjEJfii.s:396    .text.udp_input:0000000000000172 .L0 
C:\Users\stapi\AppData\Local\Temp\ccjEJfii.s:398    .text.udp_input:0000000000000176 .L0 
C:\Users\stapi\AppData\Local\Temp\ccjEJfii.s:399    .text.udp_input:0000000000000176 .L0 
C:\Users\stapi\AppData\Local\Temp\ccjEJfii.s:403    .text.udp_input:000000000000017a .L0 
C:\Users\stapi\AppData\Local\Temp\ccjEJfii.s:404    .text.udp_input:000000000000017a .L0 
C:\Users\stapi\AppData\Local\Temp\ccjEJfii.s:405    .text.udp_input:000000000000017a .L0 
C:\Users\stapi\AppData\Local\Temp\ccjEJfii.s:406    .text.udp_input:000000000000017a .L0 
C:\Users\stapi\AppData\Local\Temp\ccjEJfii.s:410    .text.udp_input:0000000000000184 .L0 
C:\Users\stapi\AppData\Local\Temp\ccjEJfii.s:413    .text.udp_input:0000000000000188 .L0 
C:\Users\stapi\AppData\Local\Temp\ccjEJfii.s:414    .text.udp_input:0000000000000188 .L0 
C:\Users\stapi\AppData\Local\Temp\ccjEJfii.s:425    .text.udp_input:00000000000001a8 .L0 
C:\Users\stapi\AppData\Local\Temp\ccjEJfii.s:428    .text.udp_input:00000000000001ac .L0 
C:\Users\stapi\AppData\Local\Temp\ccjEJfii.s:429    .text.udp_input:00000000000001ac .L0 
C:\Users\stapi\AppData\Local\Temp\ccjEJfii.s:434    .text.udp_input:00000000000001b8 .L0 
C:\Users\stapi\AppData\Local\Temp\ccjEJfii.s:436    .text.udp_input:00000000000001ba .L0 
C:\Users\stapi\AppData\Local\Temp\ccjEJfii.s:437    .text.udp_input:00000000000001ba .L0 
C:\Users\stapi\AppData\Local\Temp\ccjEJfii.s:438    .text.udp_input:00000000000001ba .L0 
C:\Users\stapi\AppData\Local\Temp\ccjEJfii.s:439    .text.udp_input:00000000000001ba .L0 
C:\Users\stapi\AppData\Local\Temp\ccjEJfii.s:450    .text.udp_input:00000000000001de .L0 
C:\Users\stapi\AppData\Local\Temp\ccjEJfii.s:451    .text.udp_input:00000000000001de .L0 
C:\Users\stapi\AppData\Local\Temp\ccjEJfii.s:452    .text.udp_input:00000000000001de .L0 
C:\Users\stapi\AppData\Local\Temp\ccjEJfii.s:455    .text.udp_input:00000000000001e0 .L0 
C:\Users\stapi\AppData\Local\Temp\ccjEJfii.s:456    .text.udp_input:00000000000001e0 .L0 
C:\Users\stapi\AppData\Local\Temp\ccjEJfii.s:458    .text.udp_input:00000000000001e2 .L0 
C:\Users\stapi\AppData\Local\Temp\ccjEJfii.s:459    .text.udp_input:00000000000001e2 .L0 
C:\Users\stapi\AppData\Local\Temp\ccjEJfii.s:460    .text.udp_input:00000000000001e2 .L0 
C:\Users\stapi\AppData\Local\Temp\ccjEJfii.s:462    .text.udp_input:00000000000001e4 .L0 
C:\Users\stapi\AppData\Local\Temp\ccjEJfii.s:464    .text.udp_input:00000000000001e8 .L0 
C:\Users\stapi\AppData\Local\Temp\ccjEJfii.s:475    .text.udp_input:00000000000001fc .L0 
C:\Users\stapi\AppData\Local\Temp\ccjEJfii.s:476    .text.udp_input:00000000000001fc .L0 
C:\Users\stapi\AppData\Local\Temp\ccjEJfii.s:477    .text.udp_input:00000000000001fc .L0 
C:\Users\stapi\AppData\Local\Temp\ccjEJfii.s:479    .text.udp_input:0000000000000200 .L0 
C:\Users\stapi\AppData\Local\Temp\ccjEJfii.s:481    .text.udp_input:0000000000000204 .L0 
C:\Users\stapi\AppData\Local\Temp\ccjEJfii.s:483    .text.udp_input:0000000000000208 .L0 
C:\Users\stapi\AppData\Local\Temp\ccjEJfii.s:485    .text.udp_input:000000000000020c .L0 
C:\Users\stapi\AppData\Local\Temp\ccjEJfii.s:487    .text.udp_input:0000000000000210 .L0 
C:\Users\stapi\AppData\Local\Temp\ccjEJfii.s:488    .text.udp_input:0000000000000210 .L0 
C:\Users\stapi\AppData\Local\Temp\ccjEJfii.s:490    .text.udp_input:0000000000000214 .L0 
C:\Users\stapi\AppData\Local\Temp\ccjEJfii.s:492    .text.udp_input:0000000000000216 .L0 
C:\Users\stapi\AppData\Local\Temp\ccjEJfii.s:494    .text.udp_input:0000000000000218 .L0 
C:\Users\stapi\AppData\Local\Temp\ccjEJfii.s:498    .text.udp_input:0000000000000224 .L0 
C:\Users\stapi\AppData\Local\Temp\ccjEJfii.s:503    .text.udp_input:0000000000000232 .L0 
C:\Users\stapi\AppData\Local\Temp\ccjEJfii.s:514    .text.udp_bind:0000000000000000 udp_bind
C:\Users\stapi\AppData\Local\Temp\ccjEJfii.s:517    .text.udp_bind:0000000000000000 .L0 
C:\Users\stapi\AppData\Local\Temp\ccjEJfii.s:519    .text.udp_bind:0000000000000000 .L0 
C:\Users\stapi\AppData\Local\Temp\ccjEJfii.s:520    .text.udp_bind:0000000000000000 .L0 
C:\Users\stapi\AppData\Local\Temp\ccjEJfii.s:521    .text.udp_bind:0000000000000000 .L0 
C:\Users\stapi\AppData\Local\Temp\ccjEJfii.s:522    .text.udp_bind:0000000000000000 .L0 
C:\Users\stapi\AppData\Local\Temp\ccjEJfii.s:523    .text.udp_bind:0000000000000000 .L0 
C:\Users\stapi\AppData\Local\Temp\ccjEJfii.s:524    .text.udp_bind:0000000000000000 .L0 
C:\Users\stapi\AppData\Local\Temp\ccjEJfii.s:526    .text.udp_bind:0000000000000002 .L0 
C:\Users\stapi\AppData\Local\Temp\ccjEJfii.s:532    .text.udp_bind:000000000000000a .L0 
C:\Users\stapi\AppData\Local\Temp\ccjEJfii.s:533    .text.udp_bind:000000000000000a .L0 
C:\Users\stapi\AppData\Local\Temp\ccjEJfii.s:535    .text.udp_bind:000000000000000c .L0 
C:\Users\stapi\AppData\Local\Temp\ccjEJfii.s:536    .text.udp_bind:0000000000000014 .L0 
C:\Users\stapi\AppData\Local\Temp\ccjEJfii.s:537    .text.udp_bind:0000000000000014 .L0 
C:\Users\stapi\AppData\Local\Temp\ccjEJfii.s:539    .text.udp_bind:0000000000000014 .L0 
C:\Users\stapi\AppData\Local\Temp\ccjEJfii.s:540    .text.udp_bind:0000000000000014 .L0 
C:\Users\stapi\AppData\Local\Temp\ccjEJfii.s:554    .text.udp_bind:0000000000000038 .L0 
C:\Users\stapi\AppData\Local\Temp\ccjEJfii.s:555    .text.udp_bind:0000000000000038 .L0 
C:\Users\stapi\AppData\Local\Temp\ccjEJfii.s:556    .text.udp_bind:0000000000000038 .L0 
C:\Users\stapi\AppData\Local\Temp\ccjEJfii.s:559    .text.udp_bind:000000000000003a .L0 
C:\Users\stapi\AppData\Local\Temp\ccjEJfii.s:560    .text.udp_bind:000000000000003a .L0 
C:\Users\stapi\AppData\Local\Temp\ccjEJfii.s:562    .text.udp_bind:000000000000003a .L0 
C:\Users\stapi\AppData\Local\Temp\ccjEJfii.s:563    .text.udp_bind:000000000000003a .L0 
C:\Users\stapi\AppData\Local\Temp\ccjEJfii.s:564    .text.udp_bind:000000000000003a .L0 
C:\Users\stapi\AppData\Local\Temp\ccjEJfii.s:565    .text.udp_bind:000000000000003a .L0 
C:\Users\stapi\AppData\Local\Temp\ccjEJfii.s:566    .text.udp_bind:000000000000003a .L0 
C:\Users\stapi\AppData\Local\Temp\ccjEJfii.s:567    .text.udp_bind:000000000000003a .L0 
C:\Users\stapi\AppData\Local\Temp\ccjEJfii.s:568    .text.udp_bind:000000000000003a .L0 
C:\Users\stapi\AppData\Local\Temp\ccjEJfii.s:576    .text.udp_bind:0000000000000048 .L0 
C:\Users\stapi\AppData\Local\Temp\ccjEJfii.s:577    .text.udp_bind:0000000000000048 .L0 
C:\Users\stapi\AppData\Local\Temp\ccjEJfii.s:579    .text.udp_bind:000000000000004a .L0 
C:\Users\stapi\AppData\Local\Temp\ccjEJfii.s:583    .text.udp_bind:000000000000004c .L0 
C:\Users\stapi\AppData\Local\Temp\ccjEJfii.s:584    .text.udp_bind:000000000000004c .L0 
C:\Users\stapi\AppData\Local\Temp\ccjEJfii.s:586    .text.udp_bind:000000000000004e .L0 
C:\Users\stapi\AppData\Local\Temp\ccjEJfii.s:591    .text.udp_bind:0000000000000054 .L0 
C:\Users\stapi\AppData\Local\Temp\ccjEJfii.s:597    .text.udp_bind:000000000000005a .L0 
C:\Users\stapi\AppData\Local\Temp\ccjEJfii.s:603    .text.udp_bind:0000000000000060 .L0 
C:\Users\stapi\AppData\Local\Temp\ccjEJfii.s:607    .text.udp_bind:0000000000000062 .L0 
C:\Users\stapi\AppData\Local\Temp\ccjEJfii.s:608    .text.udp_bind:0000000000000062 .L0 
C:\Users\stapi\AppData\Local\Temp\ccjEJfii.s:609    .text.udp_bind:0000000000000062 .L0 
C:\Users\stapi\AppData\Local\Temp\ccjEJfii.s:611    .text.udp_bind:0000000000000066 .L0 
C:\Users\stapi\AppData\Local\Temp\ccjEJfii.s:616    .text.udp_bind:000000000000006c .L0 
C:\Users\stapi\AppData\Local\Temp\ccjEJfii.s:617    .text.udp_bind:000000000000006c .L0 
C:\Users\stapi\AppData\Local\Temp\ccjEJfii.s:621    .text.udp_bind:000000000000006e .L0 
C:\Users\stapi\AppData\Local\Temp\ccjEJfii.s:622    .text.udp_bind:000000000000006e .L0 
C:\Users\stapi\AppData\Local\Temp\ccjEJfii.s:628    .text.udp_bind:0000000000000076 .L0 
C:\Users\stapi\AppData\Local\Temp\ccjEJfii.s:630    .text.udp_bind:0000000000000076 .L0 
C:\Users\stapi\AppData\Local\Temp\ccjEJfii.s:631    .text.udp_bind:0000000000000076 .L0 
C:\Users\stapi\AppData\Local\Temp\ccjEJfii.s:633    .text.udp_bind:0000000000000078 .L0 
C:\Users\stapi\AppData\Local\Temp\ccjEJfii.s:635    .text.udp_bind:000000000000007c .L0 
C:\Users\stapi\AppData\Local\Temp\ccjEJfii.s:637    .text.udp_bind:000000000000007e .L0 
C:\Users\stapi\AppData\Local\Temp\ccjEJfii.s:638    .text.udp_bind:000000000000007e .L0 
C:\Users\stapi\AppData\Local\Temp\ccjEJfii.s:639    .text.udp_bind:000000000000007e .L0 
C:\Users\stapi\AppData\Local\Temp\ccjEJfii.s:640    .text.udp_bind:000000000000007e .L0 
C:\Users\stapi\AppData\Local\Temp\ccjEJfii.s:642    .text.udp_bind:0000000000000082 .L0 
C:\Users\stapi\AppData\Local\Temp\ccjEJfii.s:643    .text.udp_bind:0000000000000082 .L0 
C:\Users\stapi\AppData\Local\Temp\ccjEJfii.s:645    .text.udp_bind:0000000000000084 .L0 
C:\Users\stapi\AppData\Local\Temp\ccjEJfii.s:646    .text.udp_bind:0000000000000084 .L0 
C:\Users\stapi\AppData\Local\Temp\ccjEJfii.s:649    .text.udp_bind:0000000000000088 .L0 
C:\Users\stapi\AppData\Local\Temp\ccjEJfii.s:652    .text.udp_bind:000000000000008a .L0 
C:\Users\stapi\AppData\Local\Temp\ccjEJfii.s:656    .text.udp_bind:000000000000008c .L0 
C:\Users\stapi\AppData\Local\Temp\ccjEJfii.s:657    .text.udp_bind:000000000000008c .L0 
C:\Users\stapi\AppData\Local\Temp\ccjEJfii.s:659    .text.udp_bind:0000000000000090 .L0 
C:\Users\stapi\AppData\Local\Temp\ccjEJfii.s:660    .text.udp_bind:0000000000000090 .L0 
C:\Users\stapi\AppData\Local\Temp\ccjEJfii.s:665    .text.udp_bind:0000000000000094 .L0 
C:\Users\stapi\AppData\Local\Temp\ccjEJfii.s:672    .text.udp_bind:0000000000000098 .L0 
C:\Users\stapi\AppData\Local\Temp\ccjEJfii.s:677    .text.udp_bind:000000000000009c .L0 
C:\Users\stapi\AppData\Local\Temp\ccjEJfii.s:678    .text.udp_bind:000000000000009c .L0 
C:\Users\stapi\AppData\Local\Temp\ccjEJfii.s:682    .text.udp_bind:00000000000000a4 .L0 
C:\Users\stapi\AppData\Local\Temp\ccjEJfii.s:683    .text.udp_bind:00000000000000a4 .L0 
C:\Users\stapi\AppData\Local\Temp\ccjEJfii.s:693    .text.udp_bind:00000000000000b0 .L0 
C:\Users\stapi\AppData\Local\Temp\ccjEJfii.s:701    .text.udp_bind:00000000000000b4 .L0 
C:\Users\stapi\AppData\Local\Temp\ccjEJfii.s:702    .text.udp_bind:00000000000000b4 .L0 
C:\Users\stapi\AppData\Local\Temp\ccjEJfii.s:710    .text.udp_bind:00000000000000ba .L0 
C:\Users\stapi\AppData\Local\Temp\ccjEJfii.s:711    .text.udp_bind:00000000000000ba .L0 
C:\Users\stapi\AppData\Local\Temp\ccjEJfii.s:713    .text.udp_bind:00000000000000be .L0 
C:\Users\stapi\AppData\Local\Temp\ccjEJfii.s:714    .text.udp_bind:00000000000000be .L0 
C:\Users\stapi\AppData\Local\Temp\ccjEJfii.s:718    .text.udp_bind:00000000000000c6 .L0 
C:\Users\stapi\AppData\Local\Temp\ccjEJfii.s:723    .text.udp_bind:00000000000000ce .L0 
C:\Users\stapi\AppData\Local\Temp\ccjEJfii.s:724    .text.udp_bind:00000000000000ce .L0 
C:\Users\stapi\AppData\Local\Temp\ccjEJfii.s:727    .text.udp_bind:00000000000000d6 .L0 
C:\Users\stapi\AppData\Local\Temp\ccjEJfii.s:729    .text.udp_bind:00000000000000da .L0 
C:\Users\stapi\AppData\Local\Temp\ccjEJfii.s:731    .text.udp_bind:00000000000000dc .L0 
C:\Users\stapi\AppData\Local\Temp\ccjEJfii.s:733    .text.udp_bind:00000000000000e0 .L0 
C:\Users\stapi\AppData\Local\Temp\ccjEJfii.s:735    .text.udp_bind:00000000000000e4 .L0 
C:\Users\stapi\AppData\Local\Temp\ccjEJfii.s:738    .text.udp_bind:00000000000000e6 .L0 
C:\Users\stapi\AppData\Local\Temp\ccjEJfii.s:739    .text.udp_bind:00000000000000e6 .L0 
C:\Users\stapi\AppData\Local\Temp\ccjEJfii.s:743    .text.udp_bind:00000000000000e8 .L0 
C:\Users\stapi\AppData\Local\Temp\ccjEJfii.s:744    .text.udp_bind:00000000000000e8 .L0 
C:\Users\stapi\AppData\Local\Temp\ccjEJfii.s:746    .text.udp_bind:00000000000000ec .L0 
C:\Users\stapi\AppData\Local\Temp\ccjEJfii.s:772    .text.udp_sendto_if_src:0000000000000000 udp_sendto_if_src
C:\Users\stapi\AppData\Local\Temp\ccjEJfii.s:775    .text.udp_sendto_if_src:0000000000000000 .L0 
C:\Users\stapi\AppData\Local\Temp\ccjEJfii.s:777    .text.udp_sendto_if_src:0000000000000000 .L0 
C:\Users\stapi\AppData\Local\Temp\ccjEJfii.s:778    .text.udp_sendto_if_src:0000000000000008 .L0 
C:\Users\stapi\AppData\Local\Temp\ccjEJfii.s:779    .text.udp_sendto_if_src:0000000000000008 .L0 
C:\Users\stapi\AppData\Local\Temp\ccjEJfii.s:780    .text.udp_sendto_if_src:0000000000000008 .L0 
C:\Users\stapi\AppData\Local\Temp\ccjEJfii.s:781    .text.udp_sendto_if_src:0000000000000008 .L0 
C:\Users\stapi\AppData\Local\Temp\ccjEJfii.s:782    .text.udp_sendto_if_src:0000000000000008 .L0 
C:\Users\stapi\AppData\Local\Temp\ccjEJfii.s:783    .text.udp_sendto_if_src:0000000000000008 .L0 
C:\Users\stapi\AppData\Local\Temp\ccjEJfii.s:784    .text.udp_sendto_if_src:0000000000000008 .L0 
C:\Users\stapi\AppData\Local\Temp\ccjEJfii.s:785    .text.udp_sendto_if_src:0000000000000008 .L0 
C:\Users\stapi\AppData\Local\Temp\ccjEJfii.s:786    .text.udp_sendto_if_src:0000000000000008 .L0 
C:\Users\stapi\AppData\Local\Temp\ccjEJfii.s:787    .text.udp_sendto_if_src:0000000000000008 .L0 
C:\Users\stapi\AppData\Local\Temp\ccjEJfii.s:789    .text.udp_sendto_if_src:0000000000000008 .L0 
C:\Users\stapi\AppData\Local\Temp\ccjEJfii.s:790    .text.udp_sendto_if_src:0000000000000008 .L0 
C:\Users\stapi\AppData\Local\Temp\ccjEJfii.s:791    .text.udp_sendto_if_src:0000000000000008 .L0 
C:\Users\stapi\AppData\Local\Temp\ccjEJfii.s:792    .text.udp_sendto_if_src:0000000000000008 .L0 
C:\Users\stapi\AppData\Local\Temp\ccjEJfii.s:793    .text.udp_sendto_if_src:0000000000000008 .L0 
C:\Users\stapi\AppData\Local\Temp\ccjEJfii.s:794    .text.udp_sendto_if_src:0000000000000008 .L0 
C:\Users\stapi\AppData\Local\Temp\ccjEJfii.s:795    .text.udp_sendto_if_src:0000000000000008 .L0 
C:\Users\stapi\AppData\Local\Temp\ccjEJfii.s:796    .text.udp_sendto_if_src:0000000000000008 .L0 
C:\Users\stapi\AppData\Local\Temp\ccjEJfii.s:798    .text.udp_sendto_if_src:000000000000000a .L0 
C:\Users\stapi\AppData\Local\Temp\ccjEJfii.s:799    .text.udp_sendto_if_src:000000000000000a .L0 
C:\Users\stapi\AppData\Local\Temp\ccjEJfii.s:814    .text.udp_sendto_if_src:000000000000002e .L0 
C:\Users\stapi\AppData\Local\Temp\ccjEJfii.s:815    .text.udp_sendto_if_src:000000000000002e .L0 
C:\Users\stapi\AppData\Local\Temp\ccjEJfii.s:816    .text.udp_sendto_if_src:000000000000002e .L0 
C:\Users\stapi\AppData\Local\Temp\ccjEJfii.s:821    .text.udp_sendto_if_src:0000000000000032 .L0 
C:\Users\stapi\AppData\Local\Temp\ccjEJfii.s:822    .text.udp_sendto_if_src:0000000000000032 .L0 
C:\Users\stapi\AppData\Local\Temp\ccjEJfii.s:823    .text.udp_sendto_if_src:0000000000000032 .L0 
C:\Users\stapi\AppData\Local\Temp\ccjEJfii.s:825    .text.udp_sendto_if_src:0000000000000034 .L0 
C:\Users\stapi\AppData\Local\Temp\ccjEJfii.s:826    .text.udp_sendto_if_src:0000000000000034 .L0 
C:\Users\stapi\AppData\Local\Temp\ccjEJfii.s:841    .text.udp_sendto_if_src:0000000000000058 .L0 
C:\Users\stapi\AppData\Local\Temp\ccjEJfii.s:842    .text.udp_sendto_if_src:0000000000000058 .L0 
C:\Users\stapi\AppData\Local\Temp\ccjEJfii.s:843    .text.udp_sendto_if_src:0000000000000058 .L0 
C:\Users\stapi\AppData\Local\Temp\ccjEJfii.s:851    .text.udp_sendto_if_src:000000000000005c .L0 
C:\Users\stapi\AppData\Local\Temp\ccjEJfii.s:852    .text.udp_sendto_if_src:000000000000005c .L0 
C:\Users\stapi\AppData\Local\Temp\ccjEJfii.s:853    .text.udp_sendto_if_src:000000000000005c .L0 
C:\Users\stapi\AppData\Local\Temp\ccjEJfii.s:856    .text.udp_sendto_if_src:000000000000005e .L0 
C:\Users\stapi\AppData\Local\Temp\ccjEJfii.s:857    .text.udp_sendto_if_src:000000000000005e .L0 
C:\Users\stapi\AppData\Local\Temp\ccjEJfii.s:872    .text.udp_sendto_if_src:0000000000000082 .L0 
C:\Users\stapi\AppData\Local\Temp\ccjEJfii.s:873    .text.udp_sendto_if_src:0000000000000082 .L0 
C:\Users\stapi\AppData\Local\Temp\ccjEJfii.s:874    .text.udp_sendto_if_src:0000000000000082 .L0 
C:\Users\stapi\AppData\Local\Temp\ccjEJfii.s:879    .text.udp_sendto_if_src:0000000000000086 .L0 
C:\Users\stapi\AppData\Local\Temp\ccjEJfii.s:880    .text.udp_sendto_if_src:0000000000000086 .L0 
C:\Users\stapi\AppData\Local\Temp\ccjEJfii.s:881    .text.udp_sendto_if_src:0000000000000086 .L0 
C:\Users\stapi\AppData\Local\Temp\ccjEJfii.s:883    .text.udp_sendto_if_src:0000000000000088 .L0 
C:\Users\stapi\AppData\Local\Temp\ccjEJfii.s:884    .text.udp_sendto_if_src:0000000000000088 .L0 
C:\Users\stapi\AppData\Local\Temp\ccjEJfii.s:899    .text.udp_sendto_if_src:00000000000000ac .L0 
C:\Users\stapi\AppData\Local\Temp\ccjEJfii.s:900    .text.udp_sendto_if_src:00000000000000ac .L0 
C:\Users\stapi\AppData\Local\Temp\ccjEJfii.s:901    .text.udp_sendto_if_src:00000000000000ac .L0 
C:\Users\stapi\AppData\Local\Temp\ccjEJfii.s:906    .text.udp_sendto_if_src:00000000000000b0 .L0 
C:\Users\stapi\AppData\Local\Temp\ccjEJfii.s:907    .text.udp_sendto_if_src:00000000000000b0 .L0 
C:\Users\stapi\AppData\Local\Temp\ccjEJfii.s:908    .text.udp_sendto_if_src:00000000000000b0 .L0 
C:\Users\stapi\AppData\Local\Temp\ccjEJfii.s:910    .text.udp_sendto_if_src:00000000000000b2 .L0 
C:\Users\stapi\AppData\Local\Temp\ccjEJfii.s:911    .text.udp_sendto_if_src:00000000000000b2 .L0 
C:\Users\stapi\AppData\Local\Temp\ccjEJfii.s:926    .text.udp_sendto_if_src:00000000000000d6 .L0 
C:\Users\stapi\AppData\Local\Temp\ccjEJfii.s:927    .text.udp_sendto_if_src:00000000000000d6 .L0 
C:\Users\stapi\AppData\Local\Temp\ccjEJfii.s:928    .text.udp_sendto_if_src:00000000000000d6 .L0 
C:\Users\stapi\AppData\Local\Temp\ccjEJfii.s:932    .text.udp_sendto_if_src:00000000000000d8 .L0 
C:\Users\stapi\AppData\Local\Temp\ccjEJfii.s:937    .text.udp_sendto_if_src:00000000000000e0 .L0 
C:\Users\stapi\AppData\Local\Temp\ccjEJfii.s:938    .text.udp_sendto_if_src:00000000000000e0 .L0 
C:\Users\stapi\AppData\Local\Temp\ccjEJfii.s:939    .text.udp_sendto_if_src:00000000000000e0 .L0 
C:\Users\stapi\AppData\Local\Temp\ccjEJfii.s:940    .text.udp_sendto_if_src:00000000000000e0 .L0 
C:\Users\stapi\AppData\Local\Temp\ccjEJfii.s:944    .text.udp_sendto_if_src:00000000000000e2 .L0 
C:\Users\stapi\AppData\Local\Temp\ccjEJfii.s:945    .text.udp_sendto_if_src:00000000000000e2 .L0 
C:\Users\stapi\AppData\Local\Temp\ccjEJfii.s:951    .text.udp_sendto_if_src:00000000000000ee .L0 
C:\Users\stapi\AppData\Local\Temp\ccjEJfii.s:956    .text.udp_sendto_if_src:00000000000000f2 .L0 
C:\Users\stapi\AppData\Local\Temp\ccjEJfii.s:957    .text.udp_sendto_if_src:00000000000000f2 .L0 
C:\Users\stapi\AppData\Local\Temp\ccjEJfii.s:958    .text.udp_sendto_if_src:00000000000000f2 .L0 
C:\Users\stapi\AppData\Local\Temp\ccjEJfii.s:967    .text.udp_sendto_if_src:0000000000000100 .L0 
C:\Users\stapi\AppData\Local\Temp\ccjEJfii.s:968    .text.udp_sendto_if_src:0000000000000100 .L0 
C:\Users\stapi\AppData\Local\Temp\ccjEJfii.s:974    .text.udp_sendto_if_src:0000000000000102 .L0 
C:\Users\stapi\AppData\Local\Temp\ccjEJfii.s:976    .text.udp_sendto_if_src:000000000000010c .L0 
C:\Users\stapi\AppData\Local\Temp\ccjEJfii.s:977    .text.udp_sendto_if_src:000000000000010c .L0 
C:\Users\stapi\AppData\Local\Temp\ccjEJfii.s:978    .text.udp_sendto_if_src:000000000000010c .L0 
C:\Users\stapi\AppData\Local\Temp\ccjEJfii.s:979    .text.udp_sendto_if_src:000000000000010c .L0 
C:\Users\stapi\AppData\Local\Temp\ccjEJfii.s:980    .text.udp_sendto_if_src:000000000000010c .L0 
C:\Users\stapi\AppData\Local\Temp\ccjEJfii.s:981    .text.udp_sendto_if_src:000000000000010c .L0 
C:\Users\stapi\AppData\Local\Temp\ccjEJfii.s:982    .text.udp_sendto_if_src:000000000000010c .L0 
C:\Users\stapi\AppData\Local\Temp\ccjEJfii.s:983    .text.udp_sendto_if_src:000000000000010c .L0 
C:\Users\stapi\AppData\Local\Temp\ccjEJfii.s:984    .text.udp_sendto_if_src:000000000000010c .L0 
C:\Users\stapi\AppData\Local\Temp\ccjEJfii.s:985    .text.udp_sendto_if_src:000000000000010c .L0 
C:\Users\stapi\AppData\Local\Temp\ccjEJfii.s:986    .text.udp_sendto_if_src:000000000000010c .L0 
C:\Users\stapi\AppData\Local\Temp\ccjEJfii.s:989    .text.udp_sendto_if_src:000000000000010c .L0 
C:\Users\stapi\AppData\Local\Temp\ccjEJfii.s:993    .text.udp_sendto_if_src:000000000000010c .L0 
C:\Users\stapi\AppData\Local\Temp\ccjEJfii.s:994    .text.udp_sendto_if_src:000000000000010c .L0 
C:\Users\stapi\AppData\Local\Temp\ccjEJfii.s:1000   .text.udp_sendto_if_src:000000000000011a .L0 
C:\Users\stapi\AppData\Local\Temp\ccjEJfii.s:1003   .text.udp_sendto_if_src:000000000000011c .L0 
C:\Users\stapi\AppData\Local\Temp\ccjEJfii.s:1004   .text.udp_sendto_if_src:000000000000011c .L0 
C:\Users\stapi\AppData\Local\Temp\ccjEJfii.s:1012   .text.udp_sendto_if_src:0000000000000130 .L0 
C:\Users\stapi\AppData\Local\Temp\ccjEJfii.s:1013   .text.udp_sendto_if_src:0000000000000130 .L0 
C:\Users\stapi\AppData\Local\Temp\ccjEJfii.s:1015   .text.udp_sendto_if_src:0000000000000132 .L0 
C:\Users\stapi\AppData\Local\Temp\ccjEJfii.s:1016   .text.udp_sendto_if_src:0000000000000132 .L0 
C:\Users\stapi\AppData\Local\Temp\ccjEJfii.s:1019   .text.udp_sendto_if_src:0000000000000138 .L0 
C:\Users\stapi\AppData\Local\Temp\ccjEJfii.s:1024   .text.udp_sendto_if_src:0000000000000142 .L0 
C:\Users\stapi\AppData\Local\Temp\ccjEJfii.s:1025   .text.udp_sendto_if_src:0000000000000142 .L0 
C:\Users\stapi\AppData\Local\Temp\ccjEJfii.s:1026   .text.udp_sendto_if_src:0000000000000142 .L0 
C:\Users\stapi\AppData\Local\Temp\ccjEJfii.s:1030   .text.udp_sendto_if_src:000000000000014c .L0 
C:\Users\stapi\AppData\Local\Temp\ccjEJfii.s:1031   .text.udp_sendto_if_src:000000000000014c .L0 
C:\Users\stapi\AppData\Local\Temp\ccjEJfii.s:1042   .text.udp_sendto_if_src:0000000000000170 .L0 
C:\Users\stapi\AppData\Local\Temp\ccjEJfii.s:1043   .text.udp_sendto_if_src:0000000000000170 .L0 
C:\Users\stapi\AppData\Local\Temp\ccjEJfii.s:1044   .text.udp_sendto_if_src:0000000000000170 .L0 
C:\Users\stapi\AppData\Local\Temp\ccjEJfii.s:1047   .text.udp_sendto_if_src:0000000000000172 .L0 
C:\Users\stapi\AppData\Local\Temp\ccjEJfii.s:1048   .text.udp_sendto_if_src:0000000000000172 .L0 
C:\Users\stapi\AppData\Local\Temp\ccjEJfii.s:1049   .text.udp_sendto_if_src:0000000000000172 .L0 
C:\Users\stapi\AppData\Local\Temp\ccjEJfii.s:1050   .text.udp_sendto_if_src:0000000000000172 .L0 
C:\Users\stapi\AppData\Local\Temp\ccjEJfii.s:1052   .text.udp_sendto_if_src:0000000000000176 .L0 
C:\Users\stapi\AppData\Local\Temp\ccjEJfii.s:1055   .text.udp_sendto_if_src:000000000000017a .L0 
C:\Users\stapi\AppData\Local\Temp\ccjEJfii.s:1056   .text.udp_sendto_if_src:000000000000017a .L0 
C:\Users\stapi\AppData\Local\Temp\ccjEJfii.s:1059   .text.udp_sendto_if_src:0000000000000182 .L0 
C:\Users\stapi\AppData\Local\Temp\ccjEJfii.s:1063   .text.udp_sendto_if_src:000000000000018c .L0 
C:\Users\stapi\AppData\Local\Temp\ccjEJfii.s:1064   .text.udp_sendto_if_src:000000000000018c .L0 
C:\Users\stapi\AppData\Local\Temp\ccjEJfii.s:1068   .text.udp_sendto_if_src:0000000000000196 .L0 
C:\Users\stapi\AppData\Local\Temp\ccjEJfii.s:1072   .text.udp_sendto_if_src:00000000000001a0 .L0 
C:\Users\stapi\AppData\Local\Temp\ccjEJfii.s:1073   .text.udp_sendto_if_src:00000000000001a0 .L0 
C:\Users\stapi\AppData\Local\Temp\ccjEJfii.s:1076   .text.udp_sendto_if_src:00000000000001a8 .L0 
C:\Users\stapi\AppData\Local\Temp\ccjEJfii.s:1077   .text.udp_sendto_if_src:00000000000001a8 .L0 
C:\Users\stapi\AppData\Local\Temp\ccjEJfii.s:1081   .text.udp_sendto_if_src:00000000000001b0 .L0 
C:\Users\stapi\AppData\Local\Temp\ccjEJfii.s:1083   .text.udp_sendto_if_src:00000000000001b4 .L0 
C:\Users\stapi\AppData\Local\Temp\ccjEJfii.s:1085   .text.udp_sendto_if_src:00000000000001b8 .L0 
C:\Users\stapi\AppData\Local\Temp\ccjEJfii.s:1087   .text.udp_sendto_if_src:00000000000001bc .L0 
C:\Users\stapi\AppData\Local\Temp\ccjEJfii.s:1089   .text.udp_sendto_if_src:00000000000001c0 .L0 
C:\Users\stapi\AppData\Local\Temp\ccjEJfii.s:1090   .text.udp_sendto_if_src:00000000000001c0 .L0 
C:\Users\stapi\AppData\Local\Temp\ccjEJfii.s:1095   .text.udp_sendto_if_src:00000000000001cc .L0 
C:\Users\stapi\AppData\Local\Temp\ccjEJfii.s:1096   .text.udp_sendto_if_src:00000000000001cc .L0 
C:\Users\stapi\AppData\Local\Temp\ccjEJfii.s:1097   .text.udp_sendto_if_src:00000000000001cc .L0 
C:\Users\stapi\AppData\Local\Temp\ccjEJfii.s:1098   .text.udp_sendto_if_src:00000000000001cc .L0 
C:\Users\stapi\AppData\Local\Temp\ccjEJfii.s:1102   .text.udp_sendto_if_src:00000000000001d8 .L0 
C:\Users\stapi\AppData\Local\Temp\ccjEJfii.s:1106   .text.udp_sendto_if_src:00000000000001e2 .L0 
C:\Users\stapi\AppData\Local\Temp\ccjEJfii.s:1107   .text.udp_sendto_if_src:00000000000001e2 .L0 
C:\Users\stapi\AppData\Local\Temp\ccjEJfii.s:1112   .text.udp_sendto_if_src:00000000000001ea .L0 
C:\Users\stapi\AppData\Local\Temp\ccjEJfii.s:1113   .text.udp_sendto_if_src:00000000000001ea .L0 
C:\Users\stapi\AppData\Local\Temp\ccjEJfii.s:1114   .text.udp_sendto_if_src:00000000000001ea .L0 
C:\Users\stapi\AppData\Local\Temp\ccjEJfii.s:1122   .text.udp_sendto_if_src:00000000000001fe .L0 
C:\Users\stapi\AppData\Local\Temp\ccjEJfii.s:1123   .text.udp_sendto_if_src:00000000000001fe .L0 
C:\Users\stapi\AppData\Local\Temp\ccjEJfii.s:1125   .text.udp_sendto_if_src:0000000000000200 .L0 
C:\Users\stapi\AppData\Local\Temp\ccjEJfii.s:1131   .text.udp_sendto_if_src:0000000000000204 .L0 
C:\Users\stapi\AppData\Local\Temp\ccjEJfii.s:1132   .text.udp_sendto_if_src:0000000000000204 .L0 
C:\Users\stapi\AppData\Local\Temp\ccjEJfii.s:1140   .text.udp_sendto_if_src:000000000000020e .L0 
C:\Users\stapi\AppData\Local\Temp\ccjEJfii.s:1141   .text.udp_sendto_if_src:000000000000020e .L0 
C:\Users\stapi\AppData\Local\Temp\ccjEJfii.s:1142   .text.udp_sendto_if_src:000000000000020e .L0 
C:\Users\stapi\AppData\Local\Temp\ccjEJfii.s:1144   .text.udp_sendto_if_src:0000000000000212 .L0 
C:\Users\stapi\AppData\Local\Temp\ccjEJfii.s:1146   .text.udp_sendto_if_src:0000000000000216 .L0 
C:\Users\stapi\AppData\Local\Temp\ccjEJfii.s:1148   .text.udp_sendto_if_src:000000000000021a .L0 
C:\Users\stapi\AppData\Local\Temp\ccjEJfii.s:1153   .text.udp_sendto_if_src:0000000000000222 .L0 
C:\Users\stapi\AppData\Local\Temp\ccjEJfii.s:1154   .text.udp_sendto_if_src:0000000000000222 .L0 
C:\Users\stapi\AppData\Local\Temp\ccjEJfii.s:1155   .text.udp_sendto_if_src:0000000000000222 .L0 
C:\Users\stapi\AppData\Local\Temp\ccjEJfii.s:1156   .text.udp_sendto_if_src:0000000000000222 .L0 
C:\Users\stapi\AppData\Local\Temp\ccjEJfii.s:1157   .text.udp_sendto_if_src:0000000000000222 .L0 
C:\Users\stapi\AppData\Local\Temp\ccjEJfii.s:1168   .text.udp_sendto_if_src:000000000000023a .L0 
C:\Users\stapi\AppData\Local\Temp\ccjEJfii.s:1169   .text.udp_sendto_if_src:000000000000023a .L0 
C:\Users\stapi\AppData\Local\Temp\ccjEJfii.s:1170   .text.udp_sendto_if_src:000000000000023a .L0 
C:\Users\stapi\AppData\Local\Temp\ccjEJfii.s:1171   .text.udp_sendto_if_src:000000000000023a .L0 
C:\Users\stapi\AppData\Local\Temp\ccjEJfii.s:1173   .text.udp_sendto_if_src:000000000000023e .L0 
C:\Users\stapi\AppData\Local\Temp\ccjEJfii.s:1177   .text.udp_sendto_if_src:0000000000000248 .L0 
C:\Users\stapi\AppData\Local\Temp\ccjEJfii.s:1181   .text.udp_sendto_if_src:000000000000024a .L0 
C:\Users\stapi\AppData\Local\Temp\ccjEJfii.s:1185   .text.udp_sendto_if_src:0000000000000250 .L0 
C:\Users\stapi\AppData\Local\Temp\ccjEJfii.s:1205   .text.udp_sendto_if:0000000000000000 udp_sendto_if
C:\Users\stapi\AppData\Local\Temp\ccjEJfii.s:1208   .text.udp_sendto_if:0000000000000000 .L0 
C:\Users\stapi\AppData\Local\Temp\ccjEJfii.s:1210   .text.udp_sendto_if:0000000000000000 .L0 
C:\Users\stapi\AppData\Local\Temp\ccjEJfii.s:1211   .text.udp_sendto_if:0000000000000008 .L0 
C:\Users\stapi\AppData\Local\Temp\ccjEJfii.s:1212   .text.udp_sendto_if:0000000000000008 .L0 
C:\Users\stapi\AppData\Local\Temp\ccjEJfii.s:1214   .text.udp_sendto_if:0000000000000008 .L0 
C:\Users\stapi\AppData\Local\Temp\ccjEJfii.s:1215   .text.udp_sendto_if:0000000000000008 .L0 
C:\Users\stapi\AppData\Local\Temp\ccjEJfii.s:1216   .text.udp_sendto_if:0000000000000008 .L0 
C:\Users\stapi\AppData\Local\Temp\ccjEJfii.s:1218   .text.udp_sendto_if:000000000000000a .L0 
C:\Users\stapi\AppData\Local\Temp\ccjEJfii.s:1219   .text.udp_sendto_if:000000000000000a .L0 
C:\Users\stapi\AppData\Local\Temp\ccjEJfii.s:1234   .text.udp_sendto_if:000000000000002e .L0 
C:\Users\stapi\AppData\Local\Temp\ccjEJfii.s:1235   .text.udp_sendto_if:000000000000002e .L0 
C:\Users\stapi\AppData\Local\Temp\ccjEJfii.s:1236   .text.udp_sendto_if:000000000000002e .L0 
C:\Users\stapi\AppData\Local\Temp\ccjEJfii.s:1240   .text.udp_sendto_if:0000000000000030 .L0 
C:\Users\stapi\AppData\Local\Temp\ccjEJfii.s:1241   .text.udp_sendto_if:0000000000000030 .L0 
C:\Users\stapi\AppData\Local\Temp\ccjEJfii.s:1242   .text.udp_sendto_if:0000000000000030 .L0 
C:\Users\stapi\AppData\Local\Temp\ccjEJfii.s:1244   .text.udp_sendto_if:0000000000000032 .L0 
C:\Users\stapi\AppData\Local\Temp\ccjEJfii.s:1245   .text.udp_sendto_if:0000000000000032 .L0 
C:\Users\stapi\AppData\Local\Temp\ccjEJfii.s:1260   .text.udp_sendto_if:0000000000000056 .L0 
C:\Users\stapi\AppData\Local\Temp\ccjEJfii.s:1261   .text.udp_sendto_if:0000000000000056 .L0 
C:\Users\stapi\AppData\Local\Temp\ccjEJfii.s:1262   .text.udp_sendto_if:0000000000000056 .L0 
C:\Users\stapi\AppData\Local\Temp\ccjEJfii.s:1268   .text.udp_sendto_if:0000000000000058 .L0 
C:\Users\stapi\AppData\Local\Temp\ccjEJfii.s:1269   .text.udp_sendto_if:0000000000000058 .L0 
C:\Users\stapi\AppData\Local\Temp\ccjEJfii.s:1270   .text.udp_sendto_if:0000000000000058 .L0 
C:\Users\stapi\AppData\Local\Temp\ccjEJfii.s:1272   .text.udp_sendto_if:000000000000005a .L0 
C:\Users\stapi\AppData\Local\Temp\ccjEJfii.s:1273   .text.udp_sendto_if:000000000000005a .L0 
C:\Users\stapi\AppData\Local\Temp\ccjEJfii.s:1288   .text.udp_sendto_if:000000000000007e .L0 
C:\Users\stapi\AppData\Local\Temp\ccjEJfii.s:1289   .text.udp_sendto_if:000000000000007e .L0 
C:\Users\stapi\AppData\Local\Temp\ccjEJfii.s:1290   .text.udp_sendto_if:000000000000007e .L0 
C:\Users\stapi\AppData\Local\Temp\ccjEJfii.s:1294   .text.udp_sendto_if:0000000000000080 .L0 
C:\Users\stapi\AppData\Local\Temp\ccjEJfii.s:1295   .text.udp_sendto_if:0000000000000080 .L0 
C:\Users\stapi\AppData\Local\Temp\ccjEJfii.s:1296   .text.udp_sendto_if:0000000000000080 .L0 
C:\Users\stapi\AppData\Local\Temp\ccjEJfii.s:1298   .text.udp_sendto_if:0000000000000082 .L0 
C:\Users\stapi\AppData\Local\Temp\ccjEJfii.s:1299   .text.udp_sendto_if:0000000000000082 .L0 
C:\Users\stapi\AppData\Local\Temp\ccjEJfii.s:1314   .text.udp_sendto_if:00000000000000a6 .L0 
C:\Users\stapi\AppData\Local\Temp\ccjEJfii.s:1315   .text.udp_sendto_if:00000000000000a6 .L0 
C:\Users\stapi\AppData\Local\Temp\ccjEJfii.s:1316   .text.udp_sendto_if:00000000000000a6 .L0 
C:\Users\stapi\AppData\Local\Temp\ccjEJfii.s:1320   .text.udp_sendto_if:00000000000000a8 .L0 
C:\Users\stapi\AppData\Local\Temp\ccjEJfii.s:1321   .text.udp_sendto_if:00000000000000a8 .L0 
C:\Users\stapi\AppData\Local\Temp\ccjEJfii.s:1322   .text.udp_sendto_if:00000000000000a8 .L0 
C:\Users\stapi\AppData\Local\Temp\ccjEJfii.s:1323   .text.udp_sendto_if:00000000000000a8 .L0 
C:\Users\stapi\AppData\Local\Temp\ccjEJfii.s:1326   .text.udp_sendto_if:00000000000000b0 .L0 
C:\Users\stapi\AppData\Local\Temp\ccjEJfii.s:1328   .text.udp_sendto_if:00000000000000b4 .L0 
C:\Users\stapi\AppData\Local\Temp\ccjEJfii.s:1332   .text.udp_sendto_if:00000000000000bc .L0 
C:\Users\stapi\AppData\Local\Temp\ccjEJfii.s:1333   .text.udp_sendto_if:00000000000000bc .L0 
C:\Users\stapi\AppData\Local\Temp\ccjEJfii.s:1337   .text.udp_sendto_if:00000000000000c0 .L0 
C:\Users\stapi\AppData\Local\Temp\ccjEJfii.s:1338   .text.udp_sendto_if:00000000000000c0 .L0 
C:\Users\stapi\AppData\Local\Temp\ccjEJfii.s:1346   .text.udp_sendto_if:00000000000000ca .L0 
C:\Users\stapi\AppData\Local\Temp\ccjEJfii.s:1348   .text.udp_sendto_if:00000000000000d4 .L0 
C:\Users\stapi\AppData\Local\Temp\ccjEJfii.s:1349   .text.udp_sendto_if:00000000000000d4 .L0 
C:\Users\stapi\AppData\Local\Temp\ccjEJfii.s:1350   .text.udp_sendto_if:00000000000000d4 .L0 
C:\Users\stapi\AppData\Local\Temp\ccjEJfii.s:1353   .text.udp_sendto_if:00000000000000d4 .L0 
C:\Users\stapi\AppData\Local\Temp\ccjEJfii.s:1357   .text.udp_sendto_if:00000000000000d4 .L0 
C:\Users\stapi\AppData\Local\Temp\ccjEJfii.s:1358   .text.udp_sendto_if:00000000000000d4 .L0 
C:\Users\stapi\AppData\Local\Temp\ccjEJfii.s:1360   .text.udp_sendto_if:00000000000000d8 .L0 
C:\Users\stapi\AppData\Local\Temp\ccjEJfii.s:1362   .text.udp_sendto_if:00000000000000da .L0 
C:\Users\stapi\AppData\Local\Temp\ccjEJfii.s:1364   .text.udp_sendto_if:00000000000000de .L0 
C:\Users\stapi\AppData\Local\Temp\ccjEJfii.s:1368   .text.udp_sendto_if:00000000000000e2 .L0 
C:\Users\stapi\AppData\Local\Temp\ccjEJfii.s:1385   .text.udp_sendto:0000000000000000 udp_sendto
C:\Users\stapi\AppData\Local\Temp\ccjEJfii.s:1388   .text.udp_sendto:0000000000000000 .L0 
C:\Users\stapi\AppData\Local\Temp\ccjEJfii.s:1390   .text.udp_sendto:0000000000000000 .L0 
C:\Users\stapi\AppData\Local\Temp\ccjEJfii.s:1391   .text.udp_sendto:0000000000000008 .L0 
C:\Users\stapi\AppData\Local\Temp\ccjEJfii.s:1392   .text.udp_sendto:0000000000000008 .L0 
C:\Users\stapi\AppData\Local\Temp\ccjEJfii.s:1393   .text.udp_sendto:0000000000000008 .L0 
C:\Users\stapi\AppData\Local\Temp\ccjEJfii.s:1394   .text.udp_sendto:0000000000000008 .L0 
C:\Users\stapi\AppData\Local\Temp\ccjEJfii.s:1395   .text.udp_sendto:0000000000000008 .L0 
C:\Users\stapi\AppData\Local\Temp\ccjEJfii.s:1396   .text.udp_sendto:0000000000000008 .L0 
C:\Users\stapi\AppData\Local\Temp\ccjEJfii.s:1398   .text.udp_sendto:0000000000000008 .L0 
C:\Users\stapi\AppData\Local\Temp\ccjEJfii.s:1399   .text.udp_sendto:0000000000000008 .L0 
C:\Users\stapi\AppData\Local\Temp\ccjEJfii.s:1400   .text.udp_sendto:0000000000000008 .L0 
C:\Users\stapi\AppData\Local\Temp\ccjEJfii.s:1402   .text.udp_sendto:000000000000000a .L0 
C:\Users\stapi\AppData\Local\Temp\ccjEJfii.s:1403   .text.udp_sendto:000000000000000a .L0 
C:\Users\stapi\AppData\Local\Temp\ccjEJfii.s:1418   .text.udp_sendto:000000000000002e .L0 
C:\Users\stapi\AppData\Local\Temp\ccjEJfii.s:1419   .text.udp_sendto:000000000000002e .L0 
C:\Users\stapi\AppData\Local\Temp\ccjEJfii.s:1420   .text.udp_sendto:000000000000002e .L0 
C:\Users\stapi\AppData\Local\Temp\ccjEJfii.s:1425   .text.udp_sendto:0000000000000032 .L0 
C:\Users\stapi\AppData\Local\Temp\ccjEJfii.s:1426   .text.udp_sendto:0000000000000032 .L0 
C:\Users\stapi\AppData\Local\Temp\ccjEJfii.s:1427   .text.udp_sendto:0000000000000032 .L0 
C:\Users\stapi\AppData\Local\Temp\ccjEJfii.s:1429   .text.udp_sendto:0000000000000034 .L0 
C:\Users\stapi\AppData\Local\Temp\ccjEJfii.s:1430   .text.udp_sendto:0000000000000034 .L0 
C:\Users\stapi\AppData\Local\Temp\ccjEJfii.s:1445   .text.udp_sendto:0000000000000058 .L0 
C:\Users\stapi\AppData\Local\Temp\ccjEJfii.s:1446   .text.udp_sendto:0000000000000058 .L0 
C:\Users\stapi\AppData\Local\Temp\ccjEJfii.s:1447   .text.udp_sendto:0000000000000058 .L0 
C:\Users\stapi\AppData\Local\Temp\ccjEJfii.s:1455   .text.udp_sendto:000000000000005c .L0 
C:\Users\stapi\AppData\Local\Temp\ccjEJfii.s:1456   .text.udp_sendto:000000000000005c .L0 
C:\Users\stapi\AppData\Local\Temp\ccjEJfii.s:1457   .text.udp_sendto:000000000000005c .L0 
C:\Users\stapi\AppData\Local\Temp\ccjEJfii.s:1460   .text.udp_sendto:000000000000005e .L0 
C:\Users\stapi\AppData\Local\Temp\ccjEJfii.s:1461   .text.udp_sendto:000000000000005e .L0 
C:\Users\stapi\AppData\Local\Temp\ccjEJfii.s:1475   .text.udp_sendto:0000000000000082 .L0 
C:\Users\stapi\AppData\Local\Temp\ccjEJfii.s:1476   .text.udp_sendto:0000000000000082 .L0 
C:\Users\stapi\AppData\Local\Temp\ccjEJfii.s:1477   .text.udp_sendto:0000000000000082 .L0 
C:\Users\stapi\AppData\Local\Temp\ccjEJfii.s:1482   .text.udp_sendto:0000000000000086 .L0 
C:\Users\stapi\AppData\Local\Temp\ccjEJfii.s:1486   .text.udp_sendto:000000000000008c .L0 
C:\Users\stapi\AppData\Local\Temp\ccjEJfii.s:1487   .text.udp_sendto:000000000000008c .L0 
C:\Users\stapi\AppData\Local\Temp\ccjEJfii.s:1488   .text.udp_sendto:000000000000008c .L0 
C:\Users\stapi\AppData\Local\Temp\ccjEJfii.s:1489   .text.udp_sendto:000000000000008c .L0 
C:\Users\stapi\AppData\Local\Temp\ccjEJfii.s:1490   .text.udp_sendto:000000000000008c .L0 
C:\Users\stapi\AppData\Local\Temp\ccjEJfii.s:1492   .text.udp_sendto:000000000000008e .L0 
C:\Users\stapi\AppData\Local\Temp\ccjEJfii.s:1493   .text.udp_sendto:000000000000008e .L0 
C:\Users\stapi\AppData\Local\Temp\ccjEJfii.s:1497   .text.udp_sendto:0000000000000096 .L0 
C:\Users\stapi\AppData\Local\Temp\ccjEJfii.s:1500   .text.udp_sendto:0000000000000098 .L0 
C:\Users\stapi\AppData\Local\Temp\ccjEJfii.s:1501   .text.udp_sendto:0000000000000098 .L0 
C:\Users\stapi\AppData\Local\Temp\ccjEJfii.s:1504   .text.udp_sendto:000000000000009a .L0 
C:\Users\stapi\AppData\Local\Temp\ccjEJfii.s:1507   .text.udp_sendto:000000000000009c .L0 
C:\Users\stapi\AppData\Local\Temp\ccjEJfii.s:1508   .text.udp_sendto:000000000000009c .L0 
C:\Users\stapi\AppData\Local\Temp\ccjEJfii.s:1518   .text.udp_sendto:00000000000000ac .L0 
C:\Users\stapi\AppData\Local\Temp\ccjEJfii.s:1519   .text.udp_sendto:00000000000000b4 .L0 
C:\Users\stapi\AppData\Local\Temp\ccjEJfii.s:1520   .text.udp_sendto:00000000000000b4 .L0 
C:\Users\stapi\AppData\Local\Temp\ccjEJfii.s:1521   .text.udp_sendto:00000000000000b4 .L0 
C:\Users\stapi\AppData\Local\Temp\ccjEJfii.s:1522   .text.udp_sendto:00000000000000b4 .L0 
C:\Users\stapi\AppData\Local\Temp\ccjEJfii.s:1523   .text.udp_sendto:00000000000000b4 .L0 
C:\Users\stapi\AppData\Local\Temp\ccjEJfii.s:1524   .text.udp_sendto:00000000000000b4 .L0 
C:\Users\stapi\AppData\Local\Temp\ccjEJfii.s:1525   .text.udp_sendto:00000000000000b4 .L0 
C:\Users\stapi\AppData\Local\Temp\ccjEJfii.s:1528   .text.udp_sendto:00000000000000b4 .L0 
C:\Users\stapi\AppData\Local\Temp\ccjEJfii.s:1532   .text.udp_sendto:00000000000000b4 .L0 
C:\Users\stapi\AppData\Local\Temp\ccjEJfii.s:1533   .text.udp_sendto:00000000000000b4 .L0 
C:\Users\stapi\AppData\Local\Temp\ccjEJfii.s:1534   .text.udp_sendto:00000000000000b4 .L0 
C:\Users\stapi\AppData\Local\Temp\ccjEJfii.s:1536   .text.udp_sendto:00000000000000b6 .L0 
C:\Users\stapi\AppData\Local\Temp\ccjEJfii.s:1538   .text.udp_sendto:00000000000000ba .L0 
C:\Users\stapi\AppData\Local\Temp\ccjEJfii.s:1540   .text.udp_sendto:00000000000000be .L0 
C:\Users\stapi\AppData\Local\Temp\ccjEJfii.s:1544   .text.udp_sendto:00000000000000c2 .L0 
C:\Users\stapi\AppData\Local\Temp\ccjEJfii.s:1545   .text.udp_sendto:00000000000000c2 .L0 
C:\Users\stapi\AppData\Local\Temp\ccjEJfii.s:1552   .text.udp_sendto:00000000000000ce .L0 
C:\Users\stapi\AppData\Local\Temp\ccjEJfii.s:1553   .text.udp_sendto:00000000000000ce .L0 
C:\Users\stapi\AppData\Local\Temp\ccjEJfii.s:1555   .text.udp_sendto:00000000000000d2 .L0 
C:\Users\stapi\AppData\Local\Temp\ccjEJfii.s:1557   .text.udp_sendto:00000000000000d4 .L0 
C:\Users\stapi\AppData\Local\Temp\ccjEJfii.s:1558   .text.udp_sendto:00000000000000d4 .L0 
C:\Users\stapi\AppData\Local\Temp\ccjEJfii.s:1562   .text.udp_sendto:00000000000000dc .L0 
C:\Users\stapi\AppData\Local\Temp\ccjEJfii.s:1565   .text.udp_sendto:00000000000000de .L0 
C:\Users\stapi\AppData\Local\Temp\ccjEJfii.s:1566   .text.udp_sendto:00000000000000de .L0 
C:\Users\stapi\AppData\Local\Temp\ccjEJfii.s:1571   .text.udp_sendto:00000000000000e2 .L0 
C:\Users\stapi\AppData\Local\Temp\ccjEJfii.s:1572   .text.udp_sendto:00000000000000e2 .L0 
C:\Users\stapi\AppData\Local\Temp\ccjEJfii.s:1574   .text.udp_sendto:00000000000000e4 .L0 
C:\Users\stapi\AppData\Local\Temp\ccjEJfii.s:1576   .text.udp_sendto:00000000000000e6 .L0 
C:\Users\stapi\AppData\Local\Temp\ccjEJfii.s:1578   .text.udp_sendto:00000000000000ea .L0 
C:\Users\stapi\AppData\Local\Temp\ccjEJfii.s:1581   .text.udp_sendto:00000000000000f2 .L0 
C:\Users\stapi\AppData\Local\Temp\ccjEJfii.s:1582   .text.udp_sendto:00000000000000f2 .L0 
C:\Users\stapi\AppData\Local\Temp\ccjEJfii.s:1588   .text.udp_sendto:0000000000000100 .L0 
C:\Users\stapi\AppData\Local\Temp\ccjEJfii.s:1602   .text.udp_send:0000000000000000 udp_send
C:\Users\stapi\AppData\Local\Temp\ccjEJfii.s:1605   .text.udp_send:0000000000000000 .L0 
C:\Users\stapi\AppData\Local\Temp\ccjEJfii.s:1607   .text.udp_send:0000000000000000 .L0 
C:\Users\stapi\AppData\Local\Temp\ccjEJfii.s:1608   .text.udp_send:0000000000000008 .L0 
C:\Users\stapi\AppData\Local\Temp\ccjEJfii.s:1609   .text.udp_send:0000000000000008 .L0 
C:\Users\stapi\AppData\Local\Temp\ccjEJfii.s:1611   .text.udp_send:0000000000000008 .L0 
C:\Users\stapi\AppData\Local\Temp\ccjEJfii.s:1612   .text.udp_send:0000000000000008 .L0 
C:\Users\stapi\AppData\Local\Temp\ccjEJfii.s:1614   .text.udp_send:000000000000000a .L0 
C:\Users\stapi\AppData\Local\Temp\ccjEJfii.s:1615   .text.udp_send:000000000000000a .L0 
C:\Users\stapi\AppData\Local\Temp\ccjEJfii.s:1628   .text.udp_send:000000000000002e .L0 
C:\Users\stapi\AppData\Local\Temp\ccjEJfii.s:1629   .text.udp_send:000000000000002e .L0 
C:\Users\stapi\AppData\Local\Temp\ccjEJfii.s:1630   .text.udp_send:000000000000002e .L0 
C:\Users\stapi\AppData\Local\Temp\ccjEJfii.s:1634   .text.udp_send:0000000000000030 .L0 
C:\Users\stapi\AppData\Local\Temp\ccjEJfii.s:1635   .text.udp_send:0000000000000030 .L0 
C:\Users\stapi\AppData\Local\Temp\ccjEJfii.s:1636   .text.udp_send:0000000000000030 .L0 
C:\Users\stapi\AppData\Local\Temp\ccjEJfii.s:1638   .text.udp_send:0000000000000032 .L0 
C:\Users\stapi\AppData\Local\Temp\ccjEJfii.s:1639   .text.udp_send:0000000000000032 .L0 
C:\Users\stapi\AppData\Local\Temp\ccjEJfii.s:1652   .text.udp_send:0000000000000056 .L0 
C:\Users\stapi\AppData\Local\Temp\ccjEJfii.s:1653   .text.udp_send:0000000000000056 .L0 
C:\Users\stapi\AppData\Local\Temp\ccjEJfii.s:1654   .text.udp_send:0000000000000056 .L0 
C:\Users\stapi\AppData\Local\Temp\ccjEJfii.s:1658   .text.udp_send:0000000000000058 .L0 
C:\Users\stapi\AppData\Local\Temp\ccjEJfii.s:1659   .text.udp_send:0000000000000058 .L0 
C:\Users\stapi\AppData\Local\Temp\ccjEJfii.s:1660   .text.udp_send:0000000000000058 .L0 
C:\Users\stapi\AppData\Local\Temp\ccjEJfii.s:1661   .text.udp_send:0000000000000058 .L0 
C:\Users\stapi\AppData\Local\Temp\ccjEJfii.s:1666   .text.udp_send:0000000000000068 .L0 
C:\Users\stapi\AppData\Local\Temp\ccjEJfii.s:1667   .text.udp_send:0000000000000070 .L0 
C:\Users\stapi\AppData\Local\Temp\ccjEJfii.s:1668   .text.udp_send:0000000000000070 .L0 
C:\Users\stapi\AppData\Local\Temp\ccjEJfii.s:1669   .text.udp_send:0000000000000070 .L0 
C:\Users\stapi\AppData\Local\Temp\ccjEJfii.s:1676   .text.udp_bind_netif:0000000000000000 udp_bind_netif
C:\Users\stapi\AppData\Local\Temp\ccjEJfii.s:1679   .text.udp_bind_netif:0000000000000000 .L0 
C:\Users\stapi\AppData\Local\Temp\ccjEJfii.s:1681   .text.udp_bind_netif:0000000000000000 .L0 
C:\Users\stapi\AppData\Local\Temp\ccjEJfii.s:1682   .text.udp_bind_netif:0000000000000000 .L0 
C:\Users\stapi\AppData\Local\Temp\ccjEJfii.s:1683   .text.udp_bind_netif:0000000000000000 .L0 
C:\Users\stapi\AppData\Local\Temp\ccjEJfii.s:1684   .text.udp_bind_netif:0000000000000000 .L0 
C:\Users\stapi\AppData\Local\Temp\ccjEJfii.s:1686   .text.udp_bind_netif:0000000000000002 .L0 
C:\Users\stapi\AppData\Local\Temp\ccjEJfii.s:1688   .text.udp_bind_netif:0000000000000004 .L0 
C:\Users\stapi\AppData\Local\Temp\ccjEJfii.s:1689   .text.udp_bind_netif:0000000000000004 .L0 
C:\Users\stapi\AppData\Local\Temp\ccjEJfii.s:1695   .text.udp_bind_netif:0000000000000012 .L0 
C:\Users\stapi\AppData\Local\Temp\ccjEJfii.s:1696   .text.udp_bind_netif:0000000000000014 .L0 
C:\Users\stapi\AppData\Local\Temp\ccjEJfii.s:1710   .text.udp_connect:0000000000000000 udp_connect
C:\Users\stapi\AppData\Local\Temp\ccjEJfii.s:1713   .text.udp_connect:0000000000000000 .L0 
C:\Users\stapi\AppData\Local\Temp\ccjEJfii.s:1715   .text.udp_connect:0000000000000000 .L0 
C:\Users\stapi\AppData\Local\Temp\ccjEJfii.s:1716   .text.udp_connect:0000000000000008 .L0 
C:\Users\stapi\AppData\Local\Temp\ccjEJfii.s:1717   .text.udp_connect:0000000000000008 .L0 
C:\Users\stapi\AppData\Local\Temp\ccjEJfii.s:1718   .text.udp_connect:0000000000000008 .L0 
C:\Users\stapi\AppData\Local\Temp\ccjEJfii.s:1719   .text.udp_connect:0000000000000008 .L0 
C:\Users\stapi\AppData\Local\Temp\ccjEJfii.s:1720   .text.udp_connect:0000000000000008 .L0 
C:\Users\stapi\AppData\Local\Temp\ccjEJfii.s:1723   .text.udp_connect:0000000000000008 .L0 
C:\Users\stapi\AppData\Local\Temp\ccjEJfii.s:1724   .text.udp_connect:0000000000000008 .L0 
C:\Users\stapi\AppData\Local\Temp\ccjEJfii.s:1725   .text.udp_connect:0000000000000008 .L0 
C:\Users\stapi\AppData\Local\Temp\ccjEJfii.s:1726   .text.udp_connect:0000000000000008 .L0 
C:\Users\stapi\AppData\Local\Temp\ccjEJfii.s:1727   .text.udp_connect:0000000000000008 .L0 
C:\Users\stapi\AppData\Local\Temp\ccjEJfii.s:1729   .text.udp_connect:000000000000000a .L0 
C:\Users\stapi\AppData\Local\Temp\ccjEJfii.s:1730   .text.udp_connect:000000000000000a .L0 
C:\Users\stapi\AppData\Local\Temp\ccjEJfii.s:1744   .text.udp_connect:000000000000002e .L0 
C:\Users\stapi\AppData\Local\Temp\ccjEJfii.s:1745   .text.udp_connect:000000000000002e .L0 
C:\Users\stapi\AppData\Local\Temp\ccjEJfii.s:1746   .text.udp_connect:000000000000002e .L0 
C:\Users\stapi\AppData\Local\Temp\ccjEJfii.s:1751   .text.udp_connect:0000000000000032 .L0 
C:\Users\stapi\AppData\Local\Temp\ccjEJfii.s:1752   .text.udp_connect:0000000000000032 .L0 
C:\Users\stapi\AppData\Local\Temp\ccjEJfii.s:1753   .text.udp_connect:0000000000000032 .L0 
C:\Users\stapi\AppData\Local\Temp\ccjEJfii.s:1756   .text.udp_connect:0000000000000034 .L0 
C:\Users\stapi\AppData\Local\Temp\ccjEJfii.s:1757   .text.udp_connect:0000000000000034 .L0 
C:\Users\stapi\AppData\Local\Temp\ccjEJfii.s:1770   .text.udp_connect:0000000000000058 .L0 
C:\Users\stapi\AppData\Local\Temp\ccjEJfii.s:1771   .text.udp_connect:0000000000000058 .L0 
C:\Users\stapi\AppData\Local\Temp\ccjEJfii.s:1772   .text.udp_connect:0000000000000058 .L0 
C:\Users\stapi\AppData\Local\Temp\ccjEJfii.s:1776   .text.udp_connect:000000000000005a .L0 
C:\Users\stapi\AppData\Local\Temp\ccjEJfii.s:1780   .text.udp_connect:0000000000000062 .L0 
C:\Users\stapi\AppData\Local\Temp\ccjEJfii.s:1781   .text.udp_connect:0000000000000062 .L0 
C:\Users\stapi\AppData\Local\Temp\ccjEJfii.s:1782   .text.udp_connect:0000000000000062 .L0 
C:\Users\stapi\AppData\Local\Temp\ccjEJfii.s:1786   .text.udp_connect:0000000000000064 .L0 
C:\Users\stapi\AppData\Local\Temp\ccjEJfii.s:1788   .text.udp_connect:0000000000000066 .L0 
C:\Users\stapi\AppData\Local\Temp\ccjEJfii.s:1790   .text.udp_connect:000000000000006a .L0 
C:\Users\stapi\AppData\Local\Temp\ccjEJfii.s:1792   .text.udp_connect:000000000000006e .L0 
C:\Users\stapi\AppData\Local\Temp\ccjEJfii.s:1794   .text.udp_connect:0000000000000070 .L0 
C:\Users\stapi\AppData\Local\Temp\ccjEJfii.s:1795   .text.udp_connect:0000000000000070 .L0 
C:\Users\stapi\AppData\Local\Temp\ccjEJfii.s:1796   .text.udp_connect:0000000000000070 .L0 
C:\Users\stapi\AppData\Local\Temp\ccjEJfii.s:1800   .text.udp_connect:000000000000007c .L0 
C:\Users\stapi\AppData\Local\Temp\ccjEJfii.s:1801   .text.udp_connect:000000000000007c .L0 
C:\Users\stapi\AppData\Local\Temp\ccjEJfii.s:1803   .text.udp_connect:000000000000007e .L0 
C:\Users\stapi\AppData\Local\Temp\ccjEJfii.s:1804   .text.udp_connect:000000000000007e .L0 
C:\Users\stapi\AppData\Local\Temp\ccjEJfii.s:1812   .text.udp_connect:000000000000008c .L0 
C:\Users\stapi\AppData\Local\Temp\ccjEJfii.s:1813   .text.udp_connect:000000000000008c .L0 
C:\Users\stapi\AppData\Local\Temp\ccjEJfii.s:1819   .text.udp_connect:0000000000000098 .L0 
C:\Users\stapi\AppData\Local\Temp\ccjEJfii.s:1820   .text.udp_connect:0000000000000098 .L0 
C:\Users\stapi\AppData\Local\Temp\ccjEJfii.s:1825   .text.udp_connect:000000000000009a .L0 
C:\Users\stapi\AppData\Local\Temp\ccjEJfii.s:1826   .text.udp_connect:00000000000000a2 .L0 
C:\Users\stapi\AppData\Local\Temp\ccjEJfii.s:1827   .text.udp_connect:00000000000000a2 .L0 
C:\Users\stapi\AppData\Local\Temp\ccjEJfii.s:1828   .text.udp_connect:00000000000000a2 .L0 
C:\Users\stapi\AppData\Local\Temp\ccjEJfii.s:1829   .text.udp_connect:00000000000000a2 .L0 
C:\Users\stapi\AppData\Local\Temp\ccjEJfii.s:1830   .text.udp_connect:00000000000000a2 .L0 
C:\Users\stapi\AppData\Local\Temp\ccjEJfii.s:1831   .text.udp_connect:00000000000000a2 .L0 
C:\Users\stapi\AppData\Local\Temp\ccjEJfii.s:1834   .text.udp_connect:00000000000000a2 .L0 
C:\Users\stapi\AppData\Local\Temp\ccjEJfii.s:1836   .text.udp_connect:00000000000000a2 .L0 
C:\Users\stapi\AppData\Local\Temp\ccjEJfii.s:1837   .text.udp_connect:00000000000000a2 .L0 
C:\Users\stapi\AppData\Local\Temp\ccjEJfii.s:1841   .text.udp_connect:00000000000000aa .L0 
C:\Users\stapi\AppData\Local\Temp\ccjEJfii.s:1844   .text.udp_connect:00000000000000ac .L0 
C:\Users\stapi\AppData\Local\Temp\ccjEJfii.s:1845   .text.udp_connect:00000000000000ac .L0 
C:\Users\stapi\AppData\Local\Temp\ccjEJfii.s:1848   .text.udp_connect:00000000000000ae .L0 
C:\Users\stapi\AppData\Local\Temp\ccjEJfii.s:1850   .text.udp_connect:00000000000000b0 .L0 
C:\Users\stapi\AppData\Local\Temp\ccjEJfii.s:1851   .text.udp_connect:00000000000000b0 .L0 
C:\Users\stapi\AppData\Local\Temp\ccjEJfii.s:1856   .text.udp_connect:00000000000000b4 .L0 
C:\Users\stapi\AppData\Local\Temp\ccjEJfii.s:1857   .text.udp_connect:00000000000000b4 .L0 
C:\Users\stapi\AppData\Local\Temp\ccjEJfii.s:1858   .text.udp_connect:00000000000000b4 .L0 
C:\Users\stapi\AppData\Local\Temp\ccjEJfii.s:1864   .text.udp_connect:00000000000000b8 .L0 
C:\Users\stapi\AppData\Local\Temp\ccjEJfii.s:1865   .text.udp_connect:00000000000000b8 .L0 
C:\Users\stapi\AppData\Local\Temp\ccjEJfii.s:1866   .text.udp_connect:00000000000000b8 .L0 
C:\Users\stapi\AppData\Local\Temp\ccjEJfii.s:1867   .text.udp_connect:00000000000000b8 .L0 
C:\Users\stapi\AppData\Local\Temp\ccjEJfii.s:1868   .text.udp_connect:00000000000000b8 .L0 
C:\Users\stapi\AppData\Local\Temp\ccjEJfii.s:1876   .text.udp_connect:00000000000000c6 .L0 
C:\Users\stapi\AppData\Local\Temp\ccjEJfii.s:1877   .text.udp_connect:00000000000000c6 .L0 
C:\Users\stapi\AppData\Local\Temp\ccjEJfii.s:1879   .text.udp_connect:00000000000000c8 .L0 
C:\Users\stapi\AppData\Local\Temp\ccjEJfii.s:1880   .text.udp_connect:00000000000000c8 .L0 
C:\Users\stapi\AppData\Local\Temp\ccjEJfii.s:1882   .text.udp_connect:00000000000000ca .L0 
C:\Users\stapi\AppData\Local\Temp\ccjEJfii.s:1883   .text.udp_connect:00000000000000ca .L0 
C:\Users\stapi\AppData\Local\Temp\ccjEJfii.s:1886   .text.udp_connect:00000000000000cc .L0 
C:\Users\stapi\AppData\Local\Temp\ccjEJfii.s:1887   .text.udp_connect:00000000000000cc .L0 
C:\Users\stapi\AppData\Local\Temp\ccjEJfii.s:1891   .text.udp_connect:00000000000000d0 .L0 
C:\Users\stapi\AppData\Local\Temp\ccjEJfii.s:1892   .text.udp_connect:00000000000000d0 .L0 
C:\Users\stapi\AppData\Local\Temp\ccjEJfii.s:1894   .text.udp_connect:00000000000000d4 .L0 
C:\Users\stapi\AppData\Local\Temp\ccjEJfii.s:1895   .text.udp_connect:00000000000000d4 .L0 
C:\Users\stapi\AppData\Local\Temp\ccjEJfii.s:1898   .text.udp_connect:00000000000000d8 .L0 
C:\Users\stapi\AppData\Local\Temp\ccjEJfii.s:1909   .text.udp_disconnect:0000000000000000 udp_disconnect
C:\Users\stapi\AppData\Local\Temp\ccjEJfii.s:1912   .text.udp_disconnect:0000000000000000 .L0 
C:\Users\stapi\AppData\Local\Temp\ccjEJfii.s:1914   .text.udp_disconnect:0000000000000000 .L0 
C:\Users\stapi\AppData\Local\Temp\ccjEJfii.s:1915   .text.udp_disconnect:0000000000000000 .L0 
C:\Users\stapi\AppData\Local\Temp\ccjEJfii.s:1916   .text.udp_disconnect:0000000000000000 .L0 
C:\Users\stapi\AppData\Local\Temp\ccjEJfii.s:1917   .text.udp_disconnect:0000000000000000 .L0 
C:\Users\stapi\AppData\Local\Temp\ccjEJfii.s:1919   .text.udp_disconnect:0000000000000002 .L0 
C:\Users\stapi\AppData\Local\Temp\ccjEJfii.s:1920   .text.udp_disconnect:000000000000000a .L0 
C:\Users\stapi\AppData\Local\Temp\ccjEJfii.s:1921   .text.udp_disconnect:000000000000000a .L0 
C:\Users\stapi\AppData\Local\Temp\ccjEJfii.s:1923   .text.udp_disconnect:000000000000000a .L0 
C:\Users\stapi\AppData\Local\Temp\ccjEJfii.s:1924   .text.udp_disconnect:000000000000000a .L0 
C:\Users\stapi\AppData\Local\Temp\ccjEJfii.s:1936   .text.udp_disconnect:000000000000002e .L0 
C:\Users\stapi\AppData\Local\Temp\ccjEJfii.s:1937   .text.udp_disconnect:000000000000002e .L0 
C:\Users\stapi\AppData\Local\Temp\ccjEJfii.s:1938   .text.udp_disconnect:000000000000002e .L0 
C:\Users\stapi\AppData\Local\Temp\ccjEJfii.s:1941   .text.udp_disconnect:0000000000000030 .L0 
C:\Users\stapi\AppData\Local\Temp\ccjEJfii.s:1942   .text.udp_disconnect:0000000000000030 .L0 
C:\Users\stapi\AppData\Local\Temp\ccjEJfii.s:1944   .text.udp_disconnect:0000000000000030 .L0 
C:\Users\stapi\AppData\Local\Temp\ccjEJfii.s:1945   .text.udp_disconnect:0000000000000030 .L0 
C:\Users\stapi\AppData\Local\Temp\ccjEJfii.s:1946   .text.udp_disconnect:0000000000000030 .L0 
C:\Users\stapi\AppData\Local\Temp\ccjEJfii.s:1948   .text.udp_disconnect:0000000000000034 .L0 
C:\Users\stapi\AppData\Local\Temp\ccjEJfii.s:1950   .text.udp_disconnect:0000000000000038 .L0 
C:\Users\stapi\AppData\Local\Temp\ccjEJfii.s:1951   .text.udp_disconnect:0000000000000038 .L0 
C:\Users\stapi\AppData\Local\Temp\ccjEJfii.s:1953   .text.udp_disconnect:000000000000003c .L0 
C:\Users\stapi\AppData\Local\Temp\ccjEJfii.s:1954   .text.udp_disconnect:000000000000003c .L0 
C:\Users\stapi\AppData\Local\Temp\ccjEJfii.s:1956   .text.udp_disconnect:000000000000003e .L0 
C:\Users\stapi\AppData\Local\Temp\ccjEJfii.s:1958   .text.udp_disconnect:0000000000000042 .L0 
C:\Users\stapi\AppData\Local\Temp\ccjEJfii.s:1959   .text.udp_disconnect:0000000000000042 .L0 
C:\Users\stapi\AppData\Local\Temp\ccjEJfii.s:1961   .text.udp_disconnect:0000000000000046 .L0 
C:\Users\stapi\AppData\Local\Temp\ccjEJfii.s:1962   .text.udp_disconnect:0000000000000048 .L0 
C:\Users\stapi\AppData\Local\Temp\ccjEJfii.s:1973   .text.udp_recv:0000000000000000 udp_recv
C:\Users\stapi\AppData\Local\Temp\ccjEJfii.s:1976   .text.udp_recv:0000000000000000 .L0 
C:\Users\stapi\AppData\Local\Temp\ccjEJfii.s:1978   .text.udp_recv:0000000000000000 .L0 
C:\Users\stapi\AppData\Local\Temp\ccjEJfii.s:1979   .text.udp_recv:0000000000000000 .L0 
C:\Users\stapi\AppData\Local\Temp\ccjEJfii.s:1980   .text.udp_recv:0000000000000000 .L0 
C:\Users\stapi\AppData\Local\Temp\ccjEJfii.s:1981   .text.udp_recv:0000000000000000 .L0 
C:\Users\stapi\AppData\Local\Temp\ccjEJfii.s:1983   .text.udp_recv:0000000000000002 .L0 
C:\Users\stapi\AppData\Local\Temp\ccjEJfii.s:1984   .text.udp_recv:000000000000000a .L0 
C:\Users\stapi\AppData\Local\Temp\ccjEJfii.s:1985   .text.udp_recv:000000000000000a .L0 
C:\Users\stapi\AppData\Local\Temp\ccjEJfii.s:1987   .text.udp_recv:000000000000000a .L0 
C:\Users\stapi\AppData\Local\Temp\ccjEJfii.s:1988   .text.udp_recv:000000000000000a .L0 
C:\Users\stapi\AppData\Local\Temp\ccjEJfii.s:2002   .text.udp_recv:000000000000002e .L0 
C:\Users\stapi\AppData\Local\Temp\ccjEJfii.s:2003   .text.udp_recv:000000000000002e .L0 
C:\Users\stapi\AppData\Local\Temp\ccjEJfii.s:2004   .text.udp_recv:000000000000002e .L0 
C:\Users\stapi\AppData\Local\Temp\ccjEJfii.s:2007   .text.udp_recv:0000000000000030 .L0 
C:\Users\stapi\AppData\Local\Temp\ccjEJfii.s:2008   .text.udp_recv:0000000000000030 .L0 
C:\Users\stapi\AppData\Local\Temp\ccjEJfii.s:2010   .text.udp_recv:0000000000000030 .L0 
C:\Users\stapi\AppData\Local\Temp\ccjEJfii.s:2011   .text.udp_recv:0000000000000030 .L0 
C:\Users\stapi\AppData\Local\Temp\ccjEJfii.s:2012   .text.udp_recv:0000000000000030 .L0 
C:\Users\stapi\AppData\Local\Temp\ccjEJfii.s:2014   .text.udp_recv:0000000000000032 .L0 
C:\Users\stapi\AppData\Local\Temp\ccjEJfii.s:2015   .text.udp_recv:0000000000000032 .L0 
C:\Users\stapi\AppData\Local\Temp\ccjEJfii.s:2017   .text.udp_recv:0000000000000036 .L0 
C:\Users\stapi\AppData\Local\Temp\ccjEJfii.s:2028   .text.udp_remove:0000000000000000 udp_remove
C:\Users\stapi\AppData\Local\Temp\ccjEJfii.s:2031   .text.udp_remove:0000000000000000 .L0 
C:\Users\stapi\AppData\Local\Temp\ccjEJfii.s:2033   .text.udp_remove:0000000000000000 .L0 
C:\Users\stapi\AppData\Local\Temp\ccjEJfii.s:2034   .text.udp_remove:0000000000000008 .L0 
C:\Users\stapi\AppData\Local\Temp\ccjEJfii.s:2035   .text.udp_remove:0000000000000008 .L0 
C:\Users\stapi\AppData\Local\Temp\ccjEJfii.s:2037   .text.udp_remove:0000000000000008 .L0 
C:\Users\stapi\AppData\Local\Temp\ccjEJfii.s:2038   .text.udp_remove:0000000000000008 .L0 
C:\Users\stapi\AppData\Local\Temp\ccjEJfii.s:2039   .text.udp_remove:0000000000000008 .L0 
C:\Users\stapi\AppData\Local\Temp\ccjEJfii.s:2040   .text.udp_remove:0000000000000008 .L0 
C:\Users\stapi\AppData\Local\Temp\ccjEJfii.s:2042   .text.udp_remove:000000000000000a .L0 
C:\Users\stapi\AppData\Local\Temp\ccjEJfii.s:2043   .text.udp_remove:000000000000000a .L0 
C:\Users\stapi\AppData\Local\Temp\ccjEJfii.s:2055   .text.udp_remove:000000000000002e .L0 
C:\Users\stapi\AppData\Local\Temp\ccjEJfii.s:2056   .text.udp_remove:000000000000002e .L0 
C:\Users\stapi\AppData\Local\Temp\ccjEJfii.s:2057   .text.udp_remove:000000000000002e .L0 
C:\Users\stapi\AppData\Local\Temp\ccjEJfii.s:2061   .text.udp_remove:0000000000000030 .L0 
C:\Users\stapi\AppData\Local\Temp\ccjEJfii.s:2066   .text.udp_remove:000000000000003c .L0 
C:\Users\stapi\AppData\Local\Temp\ccjEJfii.s:2067   .text.udp_remove:000000000000003c .L0 
C:\Users\stapi\AppData\Local\Temp\ccjEJfii.s:2068   .text.udp_remove:000000000000003c .L0 
C:\Users\stapi\AppData\Local\Temp\ccjEJfii.s:2069   .text.udp_remove:000000000000003c .L0 
C:\Users\stapi\AppData\Local\Temp\ccjEJfii.s:2071   .text.udp_remove:0000000000000040 .L0 
C:\Users\stapi\AppData\Local\Temp\ccjEJfii.s:2072   .text.udp_remove:0000000000000040 .L0 
C:\Users\stapi\AppData\Local\Temp\ccjEJfii.s:2076   .text.udp_remove:0000000000000044 .L0 
C:\Users\stapi\AppData\Local\Temp\ccjEJfii.s:2081   .text.udp_remove:000000000000004e .L0 
C:\Users\stapi\AppData\Local\Temp\ccjEJfii.s:2082   .text.udp_remove:0000000000000056 .L0 
C:\Users\stapi\AppData\Local\Temp\ccjEJfii.s:2083   .text.udp_remove:0000000000000056 .L0 
C:\Users\stapi\AppData\Local\Temp\ccjEJfii.s:2084   .text.udp_remove:0000000000000056 .L0 
C:\Users\stapi\AppData\Local\Temp\ccjEJfii.s:2087   .text.udp_remove:0000000000000056 .L0 
C:\Users\stapi\AppData\Local\Temp\ccjEJfii.s:2092   .text.udp_remove:0000000000000058 .L0 
C:\Users\stapi\AppData\Local\Temp\ccjEJfii.s:2093   .text.udp_remove:0000000000000058 .L0 
C:\Users\stapi\AppData\Local\Temp\ccjEJfii.s:2095   .text.udp_remove:000000000000005a .L0 
C:\Users\stapi\AppData\Local\Temp\ccjEJfii.s:2096   .text.udp_remove:000000000000005a .L0 
C:\Users\stapi\AppData\Local\Temp\ccjEJfii.s:2098   .text.udp_remove:000000000000005c .L0 
C:\Users\stapi\AppData\Local\Temp\ccjEJfii.s:2100   .text.udp_remove:000000000000005e .L0 
C:\Users\stapi\AppData\Local\Temp\ccjEJfii.s:2102   .text.udp_remove:0000000000000062 .L0 
C:\Users\stapi\AppData\Local\Temp\ccjEJfii.s:2103   .text.udp_remove:0000000000000062 .L0 
C:\Users\stapi\AppData\Local\Temp\ccjEJfii.s:2105   .text.udp_remove:0000000000000064 .L0 
C:\Users\stapi\AppData\Local\Temp\ccjEJfii.s:2107   .text.udp_remove:0000000000000066 .L0 
C:\Users\stapi\AppData\Local\Temp\ccjEJfii.s:2108   .text.udp_remove:0000000000000068 .L0 
C:\Users\stapi\AppData\Local\Temp\ccjEJfii.s:2115   .text.udp_new:0000000000000000 udp_new
C:\Users\stapi\AppData\Local\Temp\ccjEJfii.s:2118   .text.udp_new:0000000000000000 .L0 
C:\Users\stapi\AppData\Local\Temp\ccjEJfii.s:2119   .text.udp_new:0000000000000000 .L0 
C:\Users\stapi\AppData\Local\Temp\ccjEJfii.s:2120   .text.udp_new:0000000000000008 .L0 
C:\Users\stapi\AppData\Local\Temp\ccjEJfii.s:2121   .text.udp_new:0000000000000008 .L0 
C:\Users\stapi\AppData\Local\Temp\ccjEJfii.s:2122   .text.udp_new:0000000000000008 .L0 
C:\Users\stapi\AppData\Local\Temp\ccjEJfii.s:2124   .text.udp_new:0000000000000008 .L0 
C:\Users\stapi\AppData\Local\Temp\ccjEJfii.s:2125   .text.udp_new:0000000000000008 .L0 
C:\Users\stapi\AppData\Local\Temp\ccjEJfii.s:2126   .text.udp_new:0000000000000008 .L0 
C:\Users\stapi\AppData\Local\Temp\ccjEJfii.s:2127   .text.udp_new:0000000000000008 .L0 
C:\Users\stapi\AppData\Local\Temp\ccjEJfii.s:2133   .text.udp_new:0000000000000014 .L0 
C:\Users\stapi\AppData\Local\Temp\ccjEJfii.s:2134   .text.udp_new:0000000000000014 .L0 
C:\Users\stapi\AppData\Local\Temp\ccjEJfii.s:2136   .text.udp_new:0000000000000016 .L0 
C:\Users\stapi\AppData\Local\Temp\ccjEJfii.s:2141   .text.udp_new:0000000000000024 .L0 
C:\Users\stapi\AppData\Local\Temp\ccjEJfii.s:2142   .text.udp_new:0000000000000024 .L0 
C:\Users\stapi\AppData\Local\Temp\ccjEJfii.s:2145   .text.udp_new:000000000000002a .L0 
C:\Users\stapi\AppData\Local\Temp\ccjEJfii.s:2148   .text.udp_new:000000000000002e .L0 
C:\Users\stapi\AppData\Local\Temp\ccjEJfii.s:2149   .text.udp_new:000000000000002e .L0 
C:\Users\stapi\AppData\Local\Temp\ccjEJfii.s:2151   .text.udp_new:0000000000000038 .L0 
C:\Users\stapi\AppData\Local\Temp\ccjEJfii.s:2152   .text.udp_new:0000000000000038 .L0 
C:\Users\stapi\AppData\Local\Temp\ccjEJfii.s:2153   .text.udp_new:0000000000000038 .L0 
C:\Users\stapi\AppData\Local\Temp\ccjEJfii.s:2154   .text.udp_new:0000000000000038 .L0 
C:\Users\stapi\AppData\Local\Temp\ccjEJfii.s:2161   .text.udp_new_ip_type:0000000000000000 udp_new_ip_type
C:\Users\stapi\AppData\Local\Temp\ccjEJfii.s:2164   .text.udp_new_ip_type:0000000000000000 .L0 
C:\Users\stapi\AppData\Local\Temp\ccjEJfii.s:2166   .text.udp_new_ip_type:0000000000000000 .L0 
C:\Users\stapi\AppData\Local\Temp\ccjEJfii.s:2167   .text.udp_new_ip_type:0000000000000000 .L0 
C:\Users\stapi\AppData\Local\Temp\ccjEJfii.s:2168   .text.udp_new_ip_type:0000000000000000 .L0 
C:\Users\stapi\AppData\Local\Temp\ccjEJfii.s:2169   .text.udp_new_ip_type:0000000000000000 .L0 
C:\Users\stapi\AppData\Local\Temp\ccjEJfii.s:2170   .text.udp_new_ip_type:0000000000000000 .L0 
C:\Users\stapi\AppData\Local\Temp\ccjEJfii.s:2173   .text.udp_new_ip_type:0000000000000008 .L0 
C:\Users\stapi\AppData\Local\Temp\ccjEJfii.s:2174   .text.udp_new_ip_type:0000000000000008 .L0 
C:\Users\stapi\AppData\Local\Temp\ccjEJfii.s:2181   .text.udp_netif_ip_addr_changed:0000000000000000 udp_netif_ip_addr_changed
C:\Users\stapi\AppData\Local\Temp\ccjEJfii.s:2183   .text.udp_netif_ip_addr_changed:0000000000000000 .L0 
C:\Users\stapi\AppData\Local\Temp\ccjEJfii.s:2184   .text.udp_netif_ip_addr_changed:0000000000000000 .L0 
C:\Users\stapi\AppData\Local\Temp\ccjEJfii.s:2186   .text.udp_netif_ip_addr_changed:0000000000000000 .L0 
C:\Users\stapi\AppData\Local\Temp\ccjEJfii.s:2187   .text.udp_netif_ip_addr_changed:0000000000000000 .L0 
C:\Users\stapi\AppData\Local\Temp\ccjEJfii.s:2188   .text.udp_netif_ip_addr_changed:0000000000000000 .L0 
C:\Users\stapi\AppData\Local\Temp\ccjEJfii.s:2189   .text.udp_netif_ip_addr_changed:0000000000000000 .L0 
C:\Users\stapi\AppData\Local\Temp\ccjEJfii.s:2191   .text.udp_netif_ip_addr_changed:0000000000000002 .L0 
C:\Users\stapi\AppData\Local\Temp\ccjEJfii.s:2194   .text.udp_netif_ip_addr_changed:0000000000000006 .L0 
C:\Users\stapi\AppData\Local\Temp\ccjEJfii.s:2196   .text.udp_netif_ip_addr_changed:0000000000000008 .L0 
C:\Users\stapi\AppData\Local\Temp\ccjEJfii.s:2199   .text.udp_netif_ip_addr_changed:000000000000000c .L0 
C:\Users\stapi\AppData\Local\Temp\ccjEJfii.s:2200   .text.udp_netif_ip_addr_changed:000000000000000c .L0 
C:\Users\stapi\AppData\Local\Temp\ccjEJfii.s:2205   .text.udp_netif_ip_addr_changed:0000000000000014 .L0 
C:\Users\stapi\AppData\Local\Temp\ccjEJfii.s:2206   .text.udp_netif_ip_addr_changed:0000000000000014 .L0 
C:\Users\stapi\AppData\Local\Temp\ccjEJfii.s:2210   .text.udp_netif_ip_addr_changed:0000000000000016 .L0 
C:\Users\stapi\AppData\Local\Temp\ccjEJfii.s:2214   .text.udp_netif_ip_addr_changed:0000000000000018 .L0 
C:\Users\stapi\AppData\Local\Temp\ccjEJfii.s:2215   .text.udp_netif_ip_addr_changed:0000000000000018 .L0 
C:\Users\stapi\AppData\Local\Temp\ccjEJfii.s:2219   .text.udp_netif_ip_addr_changed:0000000000000020 .L0 
C:\Users\stapi\AppData\Local\Temp\ccjEJfii.s:2223   .text.udp_netif_ip_addr_changed:0000000000000024 .L0 
C:\Users\stapi\AppData\Local\Temp\ccjEJfii.s:2224   .text.udp_netif_ip_addr_changed:0000000000000024 .L0 
C:\Users\stapi\AppData\Local\Temp\ccjEJfii.s:2227   .text.udp_netif_ip_addr_changed:0000000000000028 .L0 
C:\Users\stapi\AppData\Local\Temp\ccjEJfii.s:2236   .sbss.udp_pcbs:0000000000000000 udp_pcbs
C:\Users\stapi\AppData\Local\Temp\ccjEJfii.s:2233   .sbss.udp_pcbs:0000000000000000 .LANCHOR1
C:\Users\stapi\AppData\Local\Temp\ccjEJfii.s:2240   .sdata.udp_port:0000000000000000 .LANCHOR0
C:\Users\stapi\AppData\Local\Temp\ccjEJfii.s:2243   .sdata.udp_port:0000000000000000 udp_port
C:\Users\stapi\AppData\Local\Temp\ccjEJfii.s:39     .text.udp_init:0000000000000028 .L0 
C:\Users\stapi\AppData\Local\Temp\ccjEJfii.s:506    .text.udp_input:0000000000000232 .L0 
C:\Users\stapi\AppData\Local\Temp\ccjEJfii.s:749    .text.udp_bind:00000000000000ec .L0 
C:\Users\stapi\AppData\Local\Temp\ccjEJfii.s:1188   .text.udp_sendto_if_src:0000000000000250 .L0 
C:\Users\stapi\AppData\Local\Temp\ccjEJfii.s:1371   .text.udp_sendto_if:00000000000000e2 .L0 
C:\Users\stapi\AppData\Local\Temp\ccjEJfii.s:1591   .text.udp_sendto:0000000000000100 .L0 
C:\Users\stapi\AppData\Local\Temp\ccjEJfii.s:1672   .text.udp_send:0000000000000070 .L0 
C:\Users\stapi\AppData\Local\Temp\ccjEJfii.s:1699   .text.udp_bind_netif:0000000000000014 .L0 
C:\Users\stapi\AppData\Local\Temp\ccjEJfii.s:1901   .text.udp_connect:00000000000000d8 .L0 
C:\Users\stapi\AppData\Local\Temp\ccjEJfii.s:1965   .text.udp_disconnect:0000000000000048 .L0 
C:\Users\stapi\AppData\Local\Temp\ccjEJfii.s:2020   .text.udp_recv:0000000000000036 .L0 
C:\Users\stapi\AppData\Local\Temp\ccjEJfii.s:2111   .text.udp_remove:0000000000000068 .L0 
C:\Users\stapi\AppData\Local\Temp\ccjEJfii.s:2157   .text.udp_new:0000000000000038 .L0 
C:\Users\stapi\AppData\Local\Temp\ccjEJfii.s:2177   .text.udp_new_ip_type:0000000000000008 .L0 
C:\Users\stapi\AppData\Local\Temp\ccjEJfii.s:2231   .text.udp_netif_ip_addr_changed:0000000000000028 .L0 
                     .debug_frame:0000000000000000 .L0 
C:\Users\stapi\AppData\Local\Temp\ccjEJfii.s:41     .rodata.udp_input.str1.4:0000000000000000 .LC0
C:\Users\stapi\AppData\Local\Temp\ccjEJfii.s:44     .rodata.udp_input.str1.4:0000000000000080 .LC1
C:\Users\stapi\AppData\Local\Temp\ccjEJfii.s:47     .rodata.udp_input.str1.4:0000000000000098 .LC2
C:\Users\stapi\AppData\Local\Temp\ccjEJfii.s:50     .rodata.udp_input.str1.4:00000000000000c0 .LC3
C:\Users\stapi\AppData\Local\Temp\ccjEJfii.s:53     .rodata.udp_input.str1.4:00000000000000dc .LC4
C:\Users\stapi\AppData\Local\Temp\ccjEJfii.s:105    .text.udp_input:0000000000000030 .L4
C:\Users\stapi\AppData\Local\Temp\ccjEJfii.s:99     .text.udp_input:000000000000002e .L5
C:\Users\stapi\AppData\Local\Temp\ccjEJfii.s:131    .text.udp_input:000000000000005a .L6
C:\Users\stapi\AppData\Local\Temp\ccjEJfii.s:125    .text.udp_input:0000000000000058 .L7
C:\Users\stapi\AppData\Local\Temp\ccjEJfii.s:168    .text.udp_input:0000000000000078 .L8
C:\Users\stapi\AppData\Local\Temp\ccjEJfii.s:264    .text.udp_input:00000000000000ec .L19
C:\Users\stapi\AppData\Local\Temp\ccjEJfii.s:402    .text.udp_input:000000000000017a .L18
C:\Users\stapi\AppData\Local\Temp\ccjEJfii.s:144    .text.udp_input:0000000000000066 .L21
C:\Users\stapi\AppData\Local\Temp\ccjEJfii.s:357    .text.udp_input:000000000000014e .L11
C:\Users\stapi\AppData\Local\Temp\ccjEJfii.s:298    .text.udp_input:0000000000000108 .L12
C:\Users\stapi\AppData\Local\Temp\ccjEJfii.s:348    .text.udp_input:0000000000000148 .L13
C:\Users\stapi\AppData\Local\Temp\ccjEJfii.s:317    .text.udp_input:0000000000000122 .L14
C:\Users\stapi\AppData\Local\Temp\ccjEJfii.s:372    .text.udp_input:0000000000000156 .L15
C:\Users\stapi\AppData\Local\Temp\ccjEJfii.s:343    .text.udp_input:0000000000000144 .L27
C:\Users\stapi\AppData\Local\Temp\ccjEJfii.s:367    .text.udp_input:0000000000000154 .L16
C:\Users\stapi\AppData\Local\Temp\ccjEJfii.s:244    .text.udp_input:00000000000000de .L10
C:\Users\stapi\AppData\Local\Temp\ccjEJfii.s:383    .text.udp_input:0000000000000166 .L17
C:\Users\stapi\AppData\Local\Temp\ccjEJfii.s:426    .text.udp_input:00000000000001ac .L22
C:\Users\stapi\AppData\Local\Temp\ccjEJfii.s:453    .text.udp_input:00000000000001e0 .L23
C:\Users\stapi\AppData\Local\Temp\ccjEJfii.s:448    .text.udp_input:00000000000001de .L24
C:\Users\stapi\AppData\Local\Temp\ccjEJfii.s:473    .text.udp_input:00000000000001fc .L25
C:\Users\stapi\AppData\Local\Temp\ccjEJfii.s:154    .text.udp_input:0000000000000070 .L3
C:\Users\stapi\AppData\Local\Temp\ccjEJfii.s:508    .rodata.udp_bind.str1.4:0000000000000000 .LC5
C:\Users\stapi\AppData\Local\Temp\ccjEJfii.s:529    .text.udp_bind:000000000000000a .L60
C:\Users\stapi\AppData\Local\Temp\ccjEJfii.s:558    .text.udp_bind:000000000000003a .L61
C:\Users\stapi\AppData\Local\Temp\ccjEJfii.s:552    .text.udp_bind:0000000000000038 .L62
C:\Users\stapi\AppData\Local\Temp\ccjEJfii.s:654    .text.udp_bind:000000000000008c .L65
C:\Users\stapi\AppData\Local\Temp\ccjEJfii.s:741    .text.udp_bind:00000000000000e8 .L66
C:\Users\stapi\AppData\Local\Temp\ccjEJfii.s:668    .text.udp_bind:0000000000000098 .L80
C:\Users\stapi\AppData\Local\Temp\ccjEJfii.s:675    .text.udp_bind:000000000000009c .L72
C:\Users\stapi\AppData\Local\Temp\ccjEJfii.s:647    .text.udp_bind:0000000000000088 .L93
C:\Users\stapi\AppData\Local\Temp\ccjEJfii.s:663    .text.udp_bind:0000000000000094 .L78
C:\Users\stapi\AppData\Local\Temp\ccjEJfii.s:574    .text.udp_bind:0000000000000048 .L63
C:\Users\stapi\AppData\Local\Temp\ccjEJfii.s:580    .text.udp_bind:000000000000004c .L64
C:\Users\stapi\AppData\Local\Temp\ccjEJfii.s:613    .text.udp_bind:000000000000006c .L68
C:\Users\stapi\AppData\Local\Temp\ccjEJfii.s:697    .text.udp_bind:00000000000000b4 .L70
C:\Users\stapi\AppData\Local\Temp\ccjEJfii.s:604    .text.udp_bind:0000000000000062 .L67
C:\Users\stapi\AppData\Local\Temp\ccjEJfii.s:619    .text.udp_bind:000000000000006e .L69
C:\Users\stapi\AppData\Local\Temp\ccjEJfii.s:736    .text.udp_bind:00000000000000e6 .L74
C:\Users\stapi\AppData\Local\Temp\ccjEJfii.s:721    .text.udp_bind:00000000000000ce .L75
C:\Users\stapi\AppData\Local\Temp\ccjEJfii.s:689    .text.udp_bind:00000000000000b0 .L83
C:\Users\stapi\AppData\Local\Temp\ccjEJfii.s:706    .text.udp_bind:00000000000000ba .L76
C:\Users\stapi\AppData\Local\Temp\ccjEJfii.s:629    .text.udp_bind:0000000000000076 .L73
C:\Users\stapi\AppData\Local\Temp\ccjEJfii.s:751    .rodata.udp_sendto_if_src.str1.4:0000000000000000 .LC6
C:\Users\stapi\AppData\Local\Temp\ccjEJfii.s:754    .rodata.udp_sendto_if_src.str1.4:0000000000000020 .LC7
C:\Users\stapi\AppData\Local\Temp\ccjEJfii.s:757    .rodata.udp_sendto_if_src.str1.4:0000000000000040 .LC8
C:\Users\stapi\AppData\Local\Temp\ccjEJfii.s:760    .rodata.udp_sendto_if_src.str1.4:0000000000000064 .LC9
C:\Users\stapi\AppData\Local\Temp\ccjEJfii.s:763    .rodata.udp_sendto_if_src.str1.4:0000000000000088 .LC10
C:\Users\stapi\AppData\Local\Temp\ccjEJfii.s:766    .rodata.udp_sendto_if_src.str1.4:00000000000000ac .LC11
C:\Users\stapi\AppData\Local\Temp\ccjEJfii.s:818    .text.udp_sendto_if_src:0000000000000030 .L95
C:\Users\stapi\AppData\Local\Temp\ccjEJfii.s:812    .text.udp_sendto_if_src:000000000000002e .L96
C:\Users\stapi\AppData\Local\Temp\ccjEJfii.s:845    .text.udp_sendto_if_src:000000000000005a .L97
C:\Users\stapi\AppData\Local\Temp\ccjEJfii.s:839    .text.udp_sendto_if_src:0000000000000058 .L98
C:\Users\stapi\AppData\Local\Temp\ccjEJfii.s:876    .text.udp_sendto_if_src:0000000000000084 .L99
C:\Users\stapi\AppData\Local\Temp\ccjEJfii.s:870    .text.udp_sendto_if_src:0000000000000082 .L100
C:\Users\stapi\AppData\Local\Temp\ccjEJfii.s:903    .text.udp_sendto_if_src:00000000000000ae .L101
C:\Users\stapi\AppData\Local\Temp\ccjEJfii.s:897    .text.udp_sendto_if_src:00000000000000ac .L102
C:\Users\stapi\AppData\Local\Temp\ccjEJfii.s:930    .text.udp_sendto_if_src:00000000000000d8 .L103
C:\Users\stapi\AppData\Local\Temp\ccjEJfii.s:924    .text.udp_sendto_if_src:00000000000000d6 .L104
C:\Users\stapi\AppData\Local\Temp\ccjEJfii.s:954    .text.udp_sendto_if_src:00000000000000f2 .L105
C:\Users\stapi\AppData\Local\Temp\ccjEJfii.s:988    .text.udp_sendto_if_src:000000000000010c .L129
C:\Users\stapi\AppData\Local\Temp\ccjEJfii.s:970    .text.udp_sendto_if_src:0000000000000102 .L108
C:\Users\stapi\AppData\Local\Temp\ccjEJfii.s:942    .text.udp_sendto_if_src:00000000000000e2 .L109
C:\Users\stapi\AppData\Local\Temp\ccjEJfii.s:1022   .text.udp_sendto_if_src:0000000000000142 .L110
C:\Users\stapi\AppData\Local\Temp\ccjEJfii.s:949    .text.udp_sendto_if_src:00000000000000ee .L106
C:\Users\stapi\AppData\Local\Temp\ccjEJfii.s:1045   .text.udp_sendto_if_src:0000000000000172 .L111
C:\Users\stapi\AppData\Local\Temp\ccjEJfii.s:1040   .text.udp_sendto_if_src:0000000000000170 .L112
C:\Users\stapi\AppData\Local\Temp\ccjEJfii.s:1093   .text.udp_sendto_if_src:00000000000001cc .L113
C:\Users\stapi\AppData\Local\Temp\ccjEJfii.s:1136   .text.udp_sendto_if_src:000000000000020e .L114
C:\Users\stapi\AppData\Local\Temp\ccjEJfii.s:1128   .text.udp_sendto_if_src:0000000000000204 .L115
C:\Users\stapi\AppData\Local\Temp\ccjEJfii.s:1179   .text.udp_sendto_if_src:000000000000024a .L116
C:\Users\stapi\AppData\Local\Temp\ccjEJfii.s:1150   .text.udp_sendto_if_src:0000000000000222 .L117
C:\Users\stapi\AppData\Local\Temp\ccjEJfii.s:1190   .rodata.udp_sendto_if.str1.4:0000000000000000 .LC12
C:\Users\stapi\AppData\Local\Temp\ccjEJfii.s:1193   .rodata.udp_sendto_if.str1.4:000000000000001c .LC13
C:\Users\stapi\AppData\Local\Temp\ccjEJfii.s:1196   .rodata.udp_sendto_if.str1.4:0000000000000038 .LC14
C:\Users\stapi\AppData\Local\Temp\ccjEJfii.s:1199   .rodata.udp_sendto_if.str1.4:0000000000000058 .LC15
C:\Users\stapi\AppData\Local\Temp\ccjEJfii.s:1238   .text.udp_sendto_if:0000000000000030 .L132
C:\Users\stapi\AppData\Local\Temp\ccjEJfii.s:1232   .text.udp_sendto_if:000000000000002e .L133
C:\Users\stapi\AppData\Local\Temp\ccjEJfii.s:1264   .text.udp_sendto_if:0000000000000058 .L134
C:\Users\stapi\AppData\Local\Temp\ccjEJfii.s:1258   .text.udp_sendto_if:0000000000000056 .L135
C:\Users\stapi\AppData\Local\Temp\ccjEJfii.s:1292   .text.udp_sendto_if:0000000000000080 .L136
C:\Users\stapi\AppData\Local\Temp\ccjEJfii.s:1286   .text.udp_sendto_if:000000000000007e .L137
C:\Users\stapi\AppData\Local\Temp\ccjEJfii.s:1318   .text.udp_sendto_if:00000000000000a8 .L138
C:\Users\stapi\AppData\Local\Temp\ccjEJfii.s:1312   .text.udp_sendto_if:00000000000000a6 .L139
C:\Users\stapi\AppData\Local\Temp\ccjEJfii.s:1330   .text.udp_sendto_if:00000000000000bc .L140
C:\Users\stapi\AppData\Local\Temp\ccjEJfii.s:1352   .text.udp_sendto_if:00000000000000d4 .L141
C:\Users\stapi\AppData\Local\Temp\ccjEJfii.s:1341   .text.udp_sendto_if:00000000000000ca .L143
C:\Users\stapi\AppData\Local\Temp\ccjEJfii.s:1335   .text.udp_sendto_if:00000000000000c0 .L142
C:\Users\stapi\AppData\Local\Temp\ccjEJfii.s:1373   .rodata.udp_sendto.str1.4:0000000000000000 .LC16
C:\Users\stapi\AppData\Local\Temp\ccjEJfii.s:1376   .rodata.udp_sendto.str1.4:0000000000000018 .LC17
C:\Users\stapi\AppData\Local\Temp\ccjEJfii.s:1379   .rodata.udp_sendto.str1.4:0000000000000034 .LC18
C:\Users\stapi\AppData\Local\Temp\ccjEJfii.s:1422   .text.udp_sendto:0000000000000030 .L150
C:\Users\stapi\AppData\Local\Temp\ccjEJfii.s:1416   .text.udp_sendto:000000000000002e .L151
C:\Users\stapi\AppData\Local\Temp\ccjEJfii.s:1449   .text.udp_sendto:000000000000005a .L152
C:\Users\stapi\AppData\Local\Temp\ccjEJfii.s:1443   .text.udp_sendto:0000000000000058 .L153
C:\Users\stapi\AppData\Local\Temp\ccjEJfii.s:1479   .text.udp_sendto:0000000000000084 .L154
C:\Users\stapi\AppData\Local\Temp\ccjEJfii.s:1473   .text.udp_sendto:0000000000000082 .L155
C:\Users\stapi\AppData\Local\Temp\ccjEJfii.s:1527   .text.udp_sendto:00000000000000b4 .L156
C:\Users\stapi\AppData\Local\Temp\ccjEJfii.s:1514   .text.udp_sendto:00000000000000ac .L163
C:\Users\stapi\AppData\Local\Temp\ccjEJfii.s:1550   .text.udp_sendto:00000000000000ce .L158
C:\Users\stapi\AppData\Local\Temp\ccjEJfii.s:1495   .text.udp_sendto:0000000000000096 .L173
C:\Users\stapi\AppData\Local\Temp\ccjEJfii.s:1569   .text.udp_sendto:00000000000000e2 .L159
C:\Users\stapi\AppData\Local\Temp\ccjEJfii.s:1505   .text.udp_sendto:000000000000009c .L162
C:\Users\stapi\AppData\Local\Temp\ccjEJfii.s:1542   .text.udp_sendto:00000000000000c2 .L161
C:\Users\stapi\AppData\Local\Temp\ccjEJfii.s:1560   .text.udp_sendto:00000000000000dc .L172
C:\Users\stapi\AppData\Local\Temp\ccjEJfii.s:1593   .rodata.udp_send.str1.4:0000000000000000 .LC19
C:\Users\stapi\AppData\Local\Temp\ccjEJfii.s:1596   .rodata.udp_send.str1.4:0000000000000018 .LC20
C:\Users\stapi\AppData\Local\Temp\ccjEJfii.s:1632   .text.udp_send:0000000000000030 .L175
C:\Users\stapi\AppData\Local\Temp\ccjEJfii.s:1626   .text.udp_send:000000000000002e .L176
C:\Users\stapi\AppData\Local\Temp\ccjEJfii.s:1656   .text.udp_send:0000000000000058 .L177
C:\Users\stapi\AppData\Local\Temp\ccjEJfii.s:1650   .text.udp_send:0000000000000056 .L178
C:\Users\stapi\AppData\Local\Temp\ccjEJfii.s:1692   .text.udp_bind_netif:000000000000000e .L181
C:\Users\stapi\AppData\Local\Temp\ccjEJfii.s:1701   .rodata.udp_connect.str1.4:0000000000000000 .LC21
C:\Users\stapi\AppData\Local\Temp\ccjEJfii.s:1704   .rodata.udp_connect.str1.4:000000000000001c .LC22
C:\Users\stapi\AppData\Local\Temp\ccjEJfii.s:1748   .text.udp_connect:0000000000000030 .L184
C:\Users\stapi\AppData\Local\Temp\ccjEJfii.s:1742   .text.udp_connect:000000000000002e .L185
C:\Users\stapi\AppData\Local\Temp\ccjEJfii.s:1774   .text.udp_connect:000000000000005a .L186
C:\Users\stapi\AppData\Local\Temp\ccjEJfii.s:1768   .text.udp_connect:0000000000000058 .L187
C:\Users\stapi\AppData\Local\Temp\ccjEJfii.s:1809   .text.udp_connect:000000000000008c .L188
C:\Users\stapi\AppData\Local\Temp\ccjEJfii.s:1833   .text.udp_connect:00000000000000a2 .L189
C:\Users\stapi\AppData\Local\Temp\ccjEJfii.s:1839   .text.udp_connect:00000000000000aa .L201
C:\Users\stapi\AppData\Local\Temp\ccjEJfii.s:1784   .text.udp_connect:0000000000000064 .L192
C:\Users\stapi\AppData\Local\Temp\ccjEJfii.s:1822   .text.udp_connect:000000000000009a .L191
C:\Users\stapi\AppData\Local\Temp\ccjEJfii.s:1861   .text.udp_connect:00000000000000b8 .L194
C:\Users\stapi\AppData\Local\Temp\ccjEJfii.s:1889   .text.udp_connect:00000000000000d0 .L196
C:\Users\stapi\AppData\Local\Temp\ccjEJfii.s:1885   .text.udp_connect:00000000000000cc .L198
C:\Users\stapi\AppData\Local\Temp\ccjEJfii.s:1874   .text.udp_connect:00000000000000c6 .L195
C:\Users\stapi\AppData\Local\Temp\ccjEJfii.s:1903   .rodata.udp_disconnect.str1.4:0000000000000000 .LC23
C:\Users\stapi\AppData\Local\Temp\ccjEJfii.s:1940   .text.udp_disconnect:0000000000000030 .L203
C:\Users\stapi\AppData\Local\Temp\ccjEJfii.s:1934   .text.udp_disconnect:000000000000002e .L204
C:\Users\stapi\AppData\Local\Temp\ccjEJfii.s:1967   .rodata.udp_recv.str1.4:0000000000000000 .LC24
C:\Users\stapi\AppData\Local\Temp\ccjEJfii.s:2006   .text.udp_recv:0000000000000030 .L209
C:\Users\stapi\AppData\Local\Temp\ccjEJfii.s:2000   .text.udp_recv:000000000000002e .L210
C:\Users\stapi\AppData\Local\Temp\ccjEJfii.s:2022   .rodata.udp_remove.str1.4:0000000000000000 .LC25
C:\Users\stapi\AppData\Local\Temp\ccjEJfii.s:2059   .text.udp_remove:0000000000000030 .L215
C:\Users\stapi\AppData\Local\Temp\ccjEJfii.s:2053   .text.udp_remove:000000000000002e .L216
C:\Users\stapi\AppData\Local\Temp\ccjEJfii.s:2090   .text.udp_remove:0000000000000058 .L217
C:\Users\stapi\AppData\Local\Temp\ccjEJfii.s:2074   .text.udp_remove:0000000000000044 .L218
C:\Users\stapi\AppData\Local\Temp\ccjEJfii.s:2086   .text.udp_remove:0000000000000056 .L220
C:\Users\stapi\AppData\Local\Temp\ccjEJfii.s:2147   .text.udp_new:000000000000002e .L226
C:\Users\stapi\AppData\Local\Temp\ccjEJfii.s:2208   .text.udp_netif_ip_addr_changed:0000000000000016 .L234
C:\Users\stapi\AppData\Local\Temp\ccjEJfii.s:2212   .text.udp_netif_ip_addr_changed:0000000000000018 .L239
C:\Users\stapi\AppData\Local\Temp\ccjEJfii.s:2221   .text.udp_netif_ip_addr_changed:0000000000000024 .L238
C:\Users\stapi\AppData\Local\Temp\ccjEJfii.s:2203   .text.udp_netif_ip_addr_changed:0000000000000014 .L237
C:\Users\stapi\AppData\Local\Temp\ccjEJfii.s:5481   .debug_abbrev:0000000000000000 .Ldebug_abbrev0
C:\Users\stapi\AppData\Local\Temp\ccjEJfii.s:9549   .debug_str:0000000000000a11 .LASF207
C:\Users\stapi\AppData\Local\Temp\ccjEJfii.s:9309   .debug_str:00000000000003c0 .LASF208
C:\Users\stapi\AppData\Local\Temp\ccjEJfii.s:9347   .debug_str:000000000000051a .LASF209
C:\Users\stapi\AppData\Local\Temp\ccjEJfii.s:9077   .debug_ranges:0000000000000000 .Ldebug_ranges0
C:\Users\stapi\AppData\Local\Temp\ccjEJfii.s:9147   .debug_line:0000000000000000 .Ldebug_line0
C:\Users\stapi\AppData\Local\Temp\ccjEJfii.s:9407   .debug_str:00000000000006e4 .LASF0
C:\Users\stapi\AppData\Local\Temp\ccjEJfii.s:9531   .debug_str:00000000000009ad .LASF2
C:\Users\stapi\AppData\Local\Temp\ccjEJfii.s:9453   .debug_str:00000000000007f1 .LASF1
C:\Users\stapi\AppData\Local\Temp\ccjEJfii.s:9497   .debug_str:00000000000008e4 .LASF3
C:\Users\stapi\AppData\Local\Temp\ccjEJfii.s:9379   .debug_str:0000000000000643 .LASF4
C:\Users\stapi\AppData\Local\Temp\ccjEJfii.s:9427   .debug_str:000000000000075c .LASF5
C:\Users\stapi\AppData\Local\Temp\ccjEJfii.s:9275   .debug_str:00000000000002ff .LASF6
C:\Users\stapi\AppData\Local\Temp\ccjEJfii.s:9533   .debug_str:00000000000009b9 .LASF7
C:\Users\stapi\AppData\Local\Temp\ccjEJfii.s:9431   .debug_str:0000000000000771 .LASF8
C:\Users\stapi\AppData\Local\Temp\ccjEJfii.s:9499   .debug_str:00000000000008f2 .LASF9
C:\Users\stapi\AppData\Local\Temp\ccjEJfii.s:9479   .debug_str:000000000000087b .LASF10
C:\Users\stapi\AppData\Local\Temp\ccjEJfii.s:9365   .debug_str:00000000000005fd .LASF11
C:\Users\stapi\AppData\Local\Temp\ccjEJfii.s:9267   .debug_str:00000000000002bb .LASF12
C:\Users\stapi\AppData\Local\Temp\ccjEJfii.s:9185   .debug_str:00000000000000d4 .LASF13
C:\Users\stapi\AppData\Local\Temp\ccjEJfii.s:9245   .debug_str:0000000000000235 .LASF14
C:\Users\stapi\AppData\Local\Temp\ccjEJfii.s:9345   .debug_str:0000000000000512 .LASF15
C:\Users\stapi\AppData\Local\Temp\ccjEJfii.s:9261   .debug_str:00000000000002a2 .LASF16
C:\Users\stapi\AppData\Local\Temp\ccjEJfii.s:9413   .debug_str:0000000000000717 .LASF17
C:\Users\stapi\AppData\Local\Temp\ccjEJfii.s:9243   .debug_str:000000000000022c .LASF18
C:\Users\stapi\AppData\Local\Temp\ccjEJfii.s:9335   .debug_str:00000000000004cb .LASF19
C:\Users\stapi\AppData\Local\Temp\ccjEJfii.s:9375   .debug_str:0000000000000633 .LASF20
C:\Users\stapi\AppData\Local\Temp\ccjEJfii.s:9315   .debug_str:0000000000000451 .LASF21
C:\Users\stapi\AppData\Local\Temp\ccjEJfii.s:9207   .debug_str:000000000000014c .LASF22
C:\Users\stapi\AppData\Local\Temp\ccjEJfii.s:9487   .debug_str:00000000000008b9 .LASF23
C:\Users\stapi\AppData\Local\Temp\ccjEJfii.s:9425   .debug_str:0000000000000756 .LASF24
C:\Users\stapi\AppData\Local\Temp\ccjEJfii.s:9523   .debug_str:0000000000000975 .LASF25
C:\Users\stapi\AppData\Local\Temp\ccjEJfii.s:9561   .debug_str:0000000000000b38 .LASF26
C:\Users\stapi\AppData\Local\Temp\ccjEJfii.s:9419   .debug_str:0000000000000734 .LASF27
C:\Users\stapi\AppData\Local\Temp\ccjEJfii.s:9325   .debug_str:0000000000000494 .LASF28
C:\Users\stapi\AppData\Local\Temp\ccjEJfii.s:9543   .debug_str:00000000000009fa .LASF29
C:\Users\stapi\AppData\Local\Temp\ccjEJfii.s:9447   .debug_str:00000000000007cb .LASF30
C:\Users\stapi\AppData\Local\Temp\ccjEJfii.s:9283   .debug_str:0000000000000325 .LASF31
C:\Users\stapi\AppData\Local\Temp\ccjEJfii.s:9323   .debug_str:0000000000000485 .LASF32
C:\Users\stapi\AppData\Local\Temp\ccjEJfii.s:9177   .debug_str:00000000000000a6 .LASF33
C:\Users\stapi\AppData\Local\Temp\ccjEJfii.s:9237   .debug_str:000000000000020a .LASF34
C:\Users\stapi\AppData\Local\Temp\ccjEJfii.s:9457   .debug_str:0000000000000805 .LASF35
C:\Users\stapi\AppData\Local\Temp\ccjEJfii.s:9537   .debug_str:00000000000009d4 .LASF36
C:\Users\stapi\AppData\Local\Temp\ccjEJfii.s:9369   .debug_str:0000000000000612 .LASF37
C:\Users\stapi\AppData\Local\Temp\ccjEJfii.s:9515   .debug_str:0000000000000941 .LASF38
C:\Users\stapi\AppData\Local\Temp\ccjEJfii.s:9229   .debug_str:00000000000001d1 .LASF39
C:\Users\stapi\AppData\Local\Temp\ccjEJfii.s:9175   .debug_str:000000000000009d .LASF40
C:\Users\stapi\AppData\Local\Temp\ccjEJfii.s:9179   .debug_str:00000000000000ae .LASF41
C:\Users\stapi\AppData\Local\Temp\ccjEJfii.s:9195   .debug_str:000000000000010d .LASF42
C:\Users\stapi\AppData\Local\Temp\ccjEJfii.s:9235   .debug_str:00000000000001fb .LASF43
C:\Users\stapi\AppData\Local\Temp\ccjEJfii.s:9301   .debug_str:00000000000003a2 .LASF44
C:\Users\stapi\AppData\Local\Temp\ccjEJfii.s:9399   .debug_str:00000000000006ac .LASF45
C:\Users\stapi\AppData\Local\Temp\ccjEJfii.s:9553   .debug_str:0000000000000b15 .LASF46
C:\Users\stapi\AppData\Local\Temp\ccjEJfii.s:9171   .debug_str:000000000000008e .LASF47
C:\Users\stapi\AppData\Local\Temp\ccjEJfii.s:9165   .debug_str:000000000000004f .LASF48
C:\Users\stapi\AppData\Local\Temp\ccjEJfii.s:9555   .debug_str:0000000000000b21 .LASF49
C:\Users\stapi\AppData\Local\Temp\ccjEJfii.s:9289   .debug_str:000000000000034e .LASF50
C:\Users\stapi\AppData\Local\Temp\ccjEJfii.s:9311   .debug_str:000000000000043e .LASF51
C:\Users\stapi\AppData\Local\Temp\ccjEJfii.s:9307   .debug_str:00000000000003bb .LASF58
C:\Users\stapi\AppData\Local\Temp\ccjEJfii.s:9189   .debug_str:00000000000000eb .LASF52
C:\Users\stapi\AppData\Local\Temp\ccjEJfii.s:9299   .debug_str:000000000000039a .LASF53
C:\Users\stapi\AppData\Local\Temp\ccjEJfii.s:9295   .debug_str:000000000000038b .LASF54
C:\Users\stapi\AppData\Local\Temp\ccjEJfii.s:9293   .debug_str:000000000000037d .LASF55
C:\Users\stapi\AppData\Local\Temp\ccjEJfii.s:9173   .debug_str:0000000000000097 .LASF56
C:\Users\stapi\AppData\Local\Temp\ccjEJfii.s:9415   .debug_str:0000000000000720 .LASF57
C:\Users\stapi\AppData\Local\Temp\ccjEJfii.s:9451   .debug_str:00000000000007e8 .LASF59
C:\Users\stapi\AppData\Local\Temp\ccjEJfii.s:9505   .debug_str:0000000000000919 .LASF60
C:\Users\stapi\AppData\Local\Temp\ccjEJfii.s:9429   .debug_str:0000000000000766 .LASF61
C:\Users\stapi\AppData\Local\Temp\ccjEJfii.s:9547   .debug_str:0000000000000a07 .LASF62
C:\Users\stapi\AppData\Local\Temp\ccjEJfii.s:9259   .debug_str:0000000000000296 .LASF63
C:\Users\stapi\AppData\Local\Temp\ccjEJfii.s:9231   .debug_str:00000000000001d9 .LASF64
C:\Users\stapi\AppData\Local\Temp\ccjEJfii.s:9471   .debug_str:0000000000000859 .LASF65
C:\Users\stapi\AppData\Local\Temp\ccjEJfii.s:9441   .debug_str:00000000000007a6 .LASF66
C:\Users\stapi\AppData\Local\Temp\ccjEJfii.s:9373   .debug_str:0000000000000626 .LASF67
C:\Users\stapi\AppData\Local\Temp\ccjEJfii.s:9155   .debug_str:0000000000000016 .LASF68
C:\Users\stapi\AppData\Local\Temp\ccjEJfii.s:9501   .debug_str:00000000000008fd .LASF69
C:\Users\stapi\AppData\Local\Temp\ccjEJfii.s:9401   .debug_str:00000000000006b6 .LASF70
C:\Users\stapi\AppData\Local\Temp\ccjEJfii.s:9391   .debug_str:0000000000000673 .LASF71
C:\Users\stapi\AppData\Local\Temp\ccjEJfii.s:9465   .debug_str:0000000000000830 .LASF72
C:\Users\stapi\AppData\Local\Temp\ccjEJfii.s:9361   .debug_str:00000000000005e9 .LASF73
C:\Users\stapi\AppData\Local\Temp\ccjEJfii.s:9321   .debug_str:0000000000000478 .LASF74
C:\Users\stapi\AppData\Local\Temp\ccjEJfii.s:9251   .debug_str:000000000000025a .LASF75
C:\Users\stapi\AppData\Local\Temp\ccjEJfii.s:9287   .debug_str:0000000000000339 .LASF76
C:\Users\stapi\AppData\Local\Temp\ccjEJfii.s:9249   .debug_str:000000000000024a .LASF77
C:\Users\stapi\AppData\Local\Temp\ccjEJfii.s:9435   .debug_str:0000000000000783 .LASF78
C:\Users\stapi\AppData\Local\Temp\ccjEJfii.s:9551   .debug_str:0000000000000b0a .LASF79
C:\Users\stapi\AppData\Local\Temp\ccjEJfii.s:9331   .debug_str:00000000000004b5 .LASF80
C:\Users\stapi\AppData\Local\Temp\ccjEJfii.s:9225   .debug_str:00000000000001b4 .LASF81
C:\Users\stapi\AppData\Local\Temp\ccjEJfii.s:9313   .debug_str:0000000000000448 .LASF82
C:\Users\stapi\AppData\Local\Temp\ccjEJfii.s:9291   .debug_str:0000000000000357 .LASF86
C:\Users\stapi\AppData\Local\Temp\ccjEJfii.s:9529   .debug_str:000000000000098b .LASF83
C:\Users\stapi\AppData\Local\Temp\ccjEJfii.s:9167   .debug_str:0000000000000058 .LASF84
C:\Users\stapi\AppData\Local\Temp\ccjEJfii.s:9411   .debug_str:00000000000006f6 .LASF85
C:\Users\stapi\AppData\Local\Temp\ccjEJfii.s:9481   .debug_str:000000000000088d .LASF87
C:\Users\stapi\AppData\Local\Temp\ccjEJfii.s:9405   .debug_str:00000000000006cf .LASF88
C:\Users\stapi\AppData\Local\Temp\ccjEJfii.s:9343   .debug_str:00000000000004fd .LASF89
C:\Users\stapi\AppData\Local\Temp\ccjEJfii.s:9513   .debug_str:000000000000093b .LASF90
C:\Users\stapi\AppData\Local\Temp\ccjEJfii.s:9569   .debug_str:0000000000000b56 .LASF91
C:\Users\stapi\AppData\Local\Temp\ccjEJfii.s:9363   .debug_str:00000000000005f5 .LASF92
C:\Users\stapi\AppData\Local\Temp\ccjEJfii.s:9161   .debug_str:0000000000000043 .LASF93
C:\Users\stapi\AppData\Local\Temp\ccjEJfii.s:9303   .debug_str:00000000000003aa .LASF94
C:\Users\stapi\AppData\Local\Temp\ccjEJfii.s:9201   .debug_str:0000000000000133 .LASF95
C:\Users\stapi\AppData\Local\Temp\ccjEJfii.s:9509   .debug_str:000000000000092c .LASF96
C:\Users\stapi\AppData\Local\Temp\ccjEJfii.s:9333   .debug_str:00000000000004bf .LASF97
C:\Users\stapi\AppData\Local\Temp\ccjEJfii.s:9265   .debug_str:00000000000002b4 .LASF98
C:\Users\stapi\AppData\Local\Temp\ccjEJfii.s:9279   .debug_str:0000000000000312 .LASF99
C:\Users\stapi\AppData\Local\Temp\ccjEJfii.s:9461   .debug_str:0000000000000817 .LASF100
C:\Users\stapi\AppData\Local\Temp\ccjEJfii.s:9467   .debug_str:000000000000083f .LASF101
C:\Users\stapi\AppData\Local\Temp\ccjEJfii.s:9337   .debug_str:00000000000004d0 .LASF102
C:\Users\stapi\AppData\Local\Temp\ccjEJfii.s:9439   .debug_str:000000000000079b .LASF103
C:\Users\stapi\AppData\Local\Temp\ccjEJfii.s:9305   .debug_str:00000000000003b1 .LASF104
C:\Users\stapi\AppData\Local\Temp\ccjEJfii.s:9241   .debug_str:000000000000021d .LASF105
C:\Users\stapi\AppData\Local\Temp\ccjEJfii.s:9221   .debug_str:0000000000000199 .LASF106
C:\Users\stapi\AppData\Local\Temp\ccjEJfii.s:9463   .debug_str:000000000000081c .LASF107
C:\Users\stapi\AppData\Local\Temp\ccjEJfii.s:9521   .debug_str:000000000000095c .LASF108
C:\Users\stapi\AppData\Local\Temp\ccjEJfii.s:9257   .debug_str:0000000000000286 .LASF109
C:\Users\stapi\AppData\Local\Temp\ccjEJfii.s:9417   .debug_str:0000000000000727 .LASF110
C:\Users\stapi\AppData\Local\Temp\ccjEJfii.s:9459   .debug_str:0000000000000810 .LASF111
C:\Users\stapi\AppData\Local\Temp\ccjEJfii.s:9381   .debug_str:000000000000064d .LASF112
C:\Users\stapi\AppData\Local\Temp\ccjEJfii.s:9475   .debug_str:000000000000086f .LASF113
C:\Users\stapi\AppData\Local\Temp\ccjEJfii.s:9545   .debug_str:0000000000000a02 .LASF114
C:\Users\stapi\AppData\Local\Temp\ccjEJfii.s:9281   .debug_str:000000000000031d .LASF115
C:\Users\stapi\AppData\Local\Temp\ccjEJfii.s:9209   .debug_str:0000000000000152 .LASF116
C:\Users\stapi\AppData\Local\Temp\ccjEJfii.s:9349   .debug_str:0000000000000598 .LASF117
C:\Users\stapi\AppData\Local\Temp\ccjEJfii.s:9277   .debug_str:000000000000030a .LASF118
C:\Users\stapi\AppData\Local\Temp\ccjEJfii.s:9563   .debug_str:0000000000000b40 .LASF119
C:\Users\stapi\AppData\Local\Temp\ccjEJfii.s:9329   .debug_str:00000000000004aa .LASF120
C:\Users\stapi\AppData\Local\Temp\ccjEJfii.s:9421   .debug_str:000000000000073c .LASF121
C:\Users\stapi\AppData\Local\Temp\ccjEJfii.s:9169   .debug_str:000000000000007a .LASF122
C:\Users\stapi\AppData\Local\Temp\ccjEJfii.s:9219   .debug_str:0000000000000186 .LASF123
C:\Users\stapi\AppData\Local\Temp\ccjEJfii.s:9395   .debug_str:000000000000068b .LASF124
C:\Users\stapi\AppData\Local\Temp\ccjEJfii.s:9273   .debug_str:00000000000002ed .LASF125
C:\Users\stapi\AppData\Local\Temp\ccjEJfii.s:9539   .debug_str:00000000000009dd .LASF126
C:\Users\stapi\AppData\Local\Temp\ccjEJfii.s:9387   .debug_str:0000000000000664 .LASF127
C:\Users\stapi\AppData\Local\Temp\ccjEJfii.s:9535   .debug_str:00000000000009cc .LASF128
C:\Users\stapi\AppData\Local\Temp\ccjEJfii.s:9517   .debug_str:000000000000094a .LASF129
C:\Users\stapi\AppData\Local\Temp\ccjEJfii.s:9423   .debug_str:000000000000074a .LASF130
C:\Users\stapi\AppData\Local\Temp\ccjEJfii.s:9151   .debug_str:0000000000000009 .LASF131
C:\Users\stapi\AppData\Local\Temp\ccjEJfii.s:9443   .debug_str:00000000000007b3 .LASF132
C:\Users\stapi\AppData\Local\Temp\ccjEJfii.s:9541   .debug_str:00000000000009f0 .LASF133
C:\Users\stapi\AppData\Local\Temp\ccjEJfii.s:9187   .debug_str:00000000000000e1 .LASF134
C:\Users\stapi\AppData\Local\Temp\ccjEJfii.s:9159   .debug_str:0000000000000038 .LASF135
C:\Users\stapi\AppData\Local\Temp\ccjEJfii.s:9253   .debug_str:000000000000026d .LASF136
C:\Users\stapi\AppData\Local\Temp\ccjEJfii.s:9385   .debug_str:0000000000000658 .LASF137
C:\Users\stapi\AppData\Local\Temp\ccjEJfii.s:9339   .debug_str:00000000000004e0 .LASF138
C:\Users\stapi\AppData\Local\Temp\ccjEJfii.s:9449   .debug_str:00000000000007da .LASF139
C:\Users\stapi\AppData\Local\Temp\ccjEJfii.s:9215   .debug_str:000000000000016a .LASF140
C:\Users\stapi\AppData\Local\Temp\ccjEJfii.s:9527   .debug_str:0000000000000986 .LASF141
C:\Users\stapi\AppData\Local\Temp\ccjEJfii.s:9473   .debug_str:0000000000000866 .LASF142
C:\Users\stapi\AppData\Local\Temp\ccjEJfii.s:9485   .debug_str:00000000000008b0 .LASF143
C:\Users\stapi\AppData\Local\Temp\ccjEJfii.s:9255   .debug_str:0000000000000278 .LASF144
C:\Users\stapi\AppData\Local\Temp\ccjEJfii.s:9191   .debug_str:00000000000000f0 .LASF145
C:\Users\stapi\AppData\Local\Temp\ccjEJfii.s:9157   .debug_str:000000000000002a .LASF146
C:\Users\stapi\AppData\Local\Temp\ccjEJfii.s:9503   .debug_str:000000000000090a .LASF147
C:\Users\stapi\AppData\Local\Temp\ccjEJfii.s:9227   .debug_str:00000000000001c3 .LASF148
C:\Users\stapi\AppData\Local\Temp\ccjEJfii.s:9507   .debug_str:000000000000091e .LASF149
C:\Users\stapi\AppData\Local\Temp\ccjEJfii.s:9285   .debug_str:000000000000032d .LASF150
C:\Users\stapi\AppData\Local\Temp\ccjEJfii.s:9409   .debug_str:00000000000006ed .LASF153
C:\Users\stapi\AppData\Local\Temp\ccjEJfii.s:9317   .debug_str:0000000000000456 .LASF158
C:\Users\stapi\AppData\Local\Temp\ccjEJfii.s:2182   .text.udp_netif_ip_addr_changed:0000000000000000 .LFB20
C:\Users\stapi\AppData\Local\Temp\ccjEJfii.s:2228   .text.udp_netif_ip_addr_changed:0000000000000028 .LFE20
C:\Users\stapi\AppData\Local\Temp\ccjEJfii.s:9433   .debug_str:000000000000077a .LASF151
C:\Users\stapi\AppData\Local\Temp\ccjEJfii.s:9557   .debug_str:0000000000000b2a .LASF152
C:\Users\stapi\AppData\Local\Temp\ccjEJfii.s:9559   .debug_str:0000000000000b33 .LASF154
C:\Users\stapi\AppData\Local\Temp\ccjEJfii.s:6568   .debug_loc:0000000000000000 .LLST69
C:\Users\stapi\AppData\Local\Temp\ccjEJfii.s:9193   .debug_str:00000000000000fd .LASF156
C:\Users\stapi\AppData\Local\Temp\ccjEJfii.s:2162   .text.udp_new_ip_type:0000000000000000 .LFB19
C:\Users\stapi\AppData\Local\Temp\ccjEJfii.s:2175   .text.udp_new_ip_type:0000000000000008 .LFE19
C:\Users\stapi\AppData\Local\Temp\ccjEJfii.s:9495   .debug_str:00000000000008df .LASF155
C:\Users\stapi\AppData\Local\Temp\ccjEJfii.s:6579   .debug_loc:000000000000001e .LLST68
C:\Users\stapi\AppData\Local\Temp\ccjEJfii.s:2171   .text.udp_new_ip_type:0000000000000008 .LVL257
C:\Users\stapi\AppData\Local\Temp\ccjEJfii.s:9319   .debug_str:0000000000000470 .LASF157
C:\Users\stapi\AppData\Local\Temp\ccjEJfii.s:2116   .text.udp_new:0000000000000000 .LFB18
C:\Users\stapi\AppData\Local\Temp\ccjEJfii.s:2155   .text.udp_new:0000000000000038 .LFE18
C:\Users\stapi\AppData\Local\Temp\ccjEJfii.s:2129   .text.udp_new:0000000000000012 .LVL253
C:\Users\stapi\AppData\Local\Temp\ccjEJfii.s:2139   .text.udp_new:0000000000000024 .LVL255
C:\Users\stapi\AppData\Local\Temp\ccjEJfii.s:9519   .debug_str:0000000000000951 .LASF159
C:\Users\stapi\AppData\Local\Temp\ccjEJfii.s:2029   .text.udp_remove:0000000000000000 .LFB17
C:\Users\stapi\AppData\Local\Temp\ccjEJfii.s:2109   .text.udp_remove:0000000000000068 .LFE17
C:\Users\stapi\AppData\Local\Temp\ccjEJfii.s:6593   .debug_loc:000000000000003f .LLST67
C:\Users\stapi\AppData\Local\Temp\ccjEJfii.s:9383   .debug_str:0000000000000653 .LASF160
C:\Users\stapi\AppData\Local\Temp\ccjEJfii.s:2052   .text.udp_remove:000000000000002e .LVL247
C:\Users\stapi\AppData\Local\Temp\ccjEJfii.s:2079   .text.udp_remove:000000000000004e .LVL250
C:\Users\stapi\AppData\Local\Temp\ccjEJfii.s:9491   .debug_str:00000000000008c4 .LASF161
C:\Users\stapi\AppData\Local\Temp\ccjEJfii.s:1974   .text.udp_recv:0000000000000000 .LFB16
C:\Users\stapi\AppData\Local\Temp\ccjEJfii.s:2018   .text.udp_recv:0000000000000036 .LFE16
C:\Users\stapi\AppData\Local\Temp\ccjEJfii.s:6626   .debug_loc:000000000000008f .LLST64
C:\Users\stapi\AppData\Local\Temp\ccjEJfii.s:6644   .debug_loc:00000000000000bb .LLST65
C:\Users\stapi\AppData\Local\Temp\ccjEJfii.s:6662   .debug_loc:00000000000000e7 .LLST66
C:\Users\stapi\AppData\Local\Temp\ccjEJfii.s:1999   .text.udp_recv:000000000000002e .LVL243
C:\Users\stapi\AppData\Local\Temp\ccjEJfii.s:9445   .debug_str:00000000000007bc .LASF162
C:\Users\stapi\AppData\Local\Temp\ccjEJfii.s:1910   .text.udp_disconnect:0000000000000000 .LFB15
C:\Users\stapi\AppData\Local\Temp\ccjEJfii.s:1963   .text.udp_disconnect:0000000000000048 .LFE15
C:\Users\stapi\AppData\Local\Temp\ccjEJfii.s:6680   .debug_loc:0000000000000113 .LLST63
C:\Users\stapi\AppData\Local\Temp\ccjEJfii.s:1933   .text.udp_disconnect:000000000000002e .LVL237
C:\Users\stapi\AppData\Local\Temp\ccjEJfii.s:9213   .debug_str:000000000000015e .LASF163
C:\Users\stapi\AppData\Local\Temp\ccjEJfii.s:1711   .text.udp_connect:0000000000000000 .LFB14
C:\Users\stapi\AppData\Local\Temp\ccjEJfii.s:1899   .text.udp_connect:00000000000000d8 .LFE14
C:\Users\stapi\AppData\Local\Temp\ccjEJfii.s:6698   .debug_loc:000000000000013f .LLST56
C:\Users\stapi\AppData\Local\Temp\ccjEJfii.s:9297   .debug_str:0000000000000393 .LASF164
C:\Users\stapi\AppData\Local\Temp\ccjEJfii.s:6731   .debug_loc:000000000000018f .LLST57
C:\Users\stapi\AppData\Local\Temp\ccjEJfii.s:9489   .debug_str:00000000000008bf .LASF165
C:\Users\stapi\AppData\Local\Temp\ccjEJfii.s:6753   .debug_loc:00000000000001c6 .LLST58
C:\Users\stapi\AppData\Local\Temp\ccjEJfii.s:6800   .debug_loc:0000000000000232 .LLST59
C:\Users\stapi\AppData\Local\Temp\ccjEJfii.s:9181   .debug_str:00000000000000b6 .LASF166
C:\Users\stapi\AppData\Local\Temp\ccjEJfii.s:6821   .debug_loc:0000000000000268 .LLST60
C:\Users\stapi\AppData\Local\Temp\ccjEJfii.s:1810   .text.udp_connect:000000000000008c .LBB41
C:\Users\stapi\AppData\Local\Temp\ccjEJfii.s:1823   .text.udp_connect:000000000000009a .LBE41
C:\Users\stapi\AppData\Local\Temp\ccjEJfii.s:6832   .debug_loc:0000000000000286 .LLST61
C:\Users\stapi\AppData\Local\Temp\ccjEJfii.s:1817   .text.udp_connect:0000000000000098 .LVL224
C:\Users\stapi\AppData\Local\Temp\ccjEJfii.s:1853   .text.udp_connect:00000000000000b4 .LBB42
C:\Users\stapi\AppData\Local\Temp\ccjEJfii.s:1862   .text.udp_connect:00000000000000b8 .LBE42
C:\Users\stapi\AppData\Local\Temp\ccjEJfii.s:6839   .debug_loc:0000000000000299 .LLST62
C:\Users\stapi\AppData\Local\Temp\ccjEJfii.s:1741   .text.udp_connect:000000000000002e .LVL213
C:\Users\stapi\AppData\Local\Temp\ccjEJfii.s:1767   .text.udp_connect:0000000000000058 .LVL218
C:\Users\stapi\AppData\Local\Temp\ccjEJfii.s:1806   .text.udp_connect:000000000000008a .LVL221
C:\Users\stapi\AppData\Local\Temp\ccjEJfii.s:1838   .text.udp_connect:00000000000000aa .LVL227
C:\Users\stapi\AppData\Local\Temp\ccjEJfii.s:9199   .debug_str:0000000000000124 .LASF167
C:\Users\stapi\AppData\Local\Temp\ccjEJfii.s:1677   .text.udp_bind_netif:0000000000000000 .LFB13
C:\Users\stapi\AppData\Local\Temp\ccjEJfii.s:1697   .text.udp_bind_netif:0000000000000014 .LFE13
C:\Users\stapi\AppData\Local\Temp\ccjEJfii.s:9511   .debug_str:0000000000000932 .LASF168
C:\Users\stapi\AppData\Local\Temp\ccjEJfii.s:515    .text.udp_bind:0000000000000000 .LFB12
C:\Users\stapi\AppData\Local\Temp\ccjEJfii.s:747    .text.udp_bind:00000000000000ec .LFE12
C:\Users\stapi\AppData\Local\Temp\ccjEJfii.s:6848   .debug_loc:00000000000002ae .LLST10
C:\Users\stapi\AppData\Local\Temp\ccjEJfii.s:6888   .debug_loc:000000000000030c .LLST11
C:\Users\stapi\AppData\Local\Temp\ccjEJfii.s:6910   .debug_loc:0000000000000343 .LLST12
C:\Users\stapi\AppData\Local\Temp\ccjEJfii.s:6954   .debug_loc:00000000000003ac .LLST13
C:\Users\stapi\AppData\Local\Temp\ccjEJfii.s:9477   .debug_str:0000000000000874 .LASF169
C:\Users\stapi\AppData\Local\Temp\ccjEJfii.s:6973   .debug_loc:00000000000003e0 .LLST14
C:\Users\stapi\AppData\Local\Temp\ccjEJfii.s:588    .text.udp_bind:0000000000000054 .LBB13
C:\Users\stapi\AppData\Local\Temp\ccjEJfii.s:6994   .debug_loc:0000000000000416 .LLST15
C:\Users\stapi\AppData\Local\Temp\ccjEJfii.s:7033   .debug_loc:0000000000000462 .LLST16
C:\Users\stapi\AppData\Local\Temp\ccjEJfii.s:551    .text.udp_bind:0000000000000038 .LVL49
C:\Users\stapi\AppData\Local\Temp\ccjEJfii.s:9571   .debug_str:0000000000000b5e .LASF176
C:\Users\stapi\AppData\Local\Temp\ccjEJfii.s:9397   .debug_str:00000000000006a5 .LASF170
C:\Users\stapi\AppData\Local\Temp\ccjEJfii.s:9269   .debug_str:00000000000002d2 .LASF171
C:\Users\stapi\AppData\Local\Temp\ccjEJfii.s:9239   .debug_str:0000000000000216 .LASF172
C:\Users\stapi\AppData\Local\Temp\ccjEJfii.s:9565   .debug_str:0000000000000b45 .LASF173
C:\Users\stapi\AppData\Local\Temp\ccjEJfii.s:9149   .debug_str:0000000000000000 .LASF174
C:\Users\stapi\AppData\Local\Temp\ccjEJfii.s:9263   .debug_str:00000000000002aa .LASF175
C:\Users\stapi\AppData\Local\Temp\ccjEJfii.s:9247   .debug_str:000000000000023c .LASF177
C:\Users\stapi\AppData\Local\Temp\ccjEJfii.s:9377   .debug_str:0000000000000638 .LASF178
C:\Users\stapi\AppData\Local\Temp\ccjEJfii.s:9203   .debug_str:000000000000013e .LASF179
C:\Users\stapi\AppData\Local\Temp\ccjEJfii.s:1603   .text.udp_send:0000000000000000 .LFB8
C:\Users\stapi\AppData\Local\Temp\ccjEJfii.s:1670   .text.udp_send:0000000000000070 .LFE8
C:\Users\stapi\AppData\Local\Temp\ccjEJfii.s:7052   .debug_loc:0000000000000496 .LLST54
C:\Users\stapi\AppData\Local\Temp\ccjEJfii.s:7088   .debug_loc:00000000000004e9 .LLST55
C:\Users\stapi\AppData\Local\Temp\ccjEJfii.s:1625   .text.udp_send:000000000000002e .LVL200
C:\Users\stapi\AppData\Local\Temp\ccjEJfii.s:1649   .text.udp_send:0000000000000056 .LVL204
C:\Users\stapi\AppData\Local\Temp\ccjEJfii.s:1664   .text.udp_send:0000000000000068 .LVL206
C:\Users\stapi\AppData\Local\Temp\ccjEJfii.s:9567   .debug_str:0000000000000b4c .LASF180
C:\Users\stapi\AppData\Local\Temp\ccjEJfii.s:60     .text.udp_input:0000000000000000 .LFB7
C:\Users\stapi\AppData\Local\Temp\ccjEJfii.s:504    .text.udp_input:0000000000000232 .LFE7
C:\Users\stapi\AppData\Local\Temp\ccjEJfii.s:7124   .debug_loc:000000000000053c .LLST0
C:\Users\stapi\AppData\Local\Temp\ccjEJfii.s:7157   .debug_loc:000000000000058c .LLST1
C:\Users\stapi\AppData\Local\Temp\ccjEJfii.s:7195   .debug_loc:00000000000005ef .LLST2
C:\Users\stapi\AppData\Local\Temp\ccjEJfii.s:9205   .debug_str:0000000000000147 .LASF181
C:\Users\stapi\AppData\Local\Temp\ccjEJfii.s:7237   .debug_loc:000000000000065d .LLST3
C:\Users\stapi\AppData\Local\Temp\ccjEJfii.s:9327   .debug_str:00000000000004a0 .LASF182
C:\Users\stapi\AppData\Local\Temp\ccjEJfii.s:7257   .debug_loc:0000000000000692 .LLST4
C:\Users\stapi\AppData\Local\Temp\ccjEJfii.s:7282   .debug_loc:00000000000006d3 .LLST5
C:\Users\stapi\AppData\Local\Temp\ccjEJfii.s:9403   .debug_str:00000000000006c5 .LASF183
C:\Users\stapi\AppData\Local\Temp\ccjEJfii.s:9437   .debug_str:0000000000000794 .LASF184
C:\Users\stapi\AppData\Local\Temp\ccjEJfii.s:7289   .debug_loc:00000000000006e6 .LLST6
C:\Users\stapi\AppData\Local\Temp\ccjEJfii.s:248    .text.udp_input:00000000000000e0 .L9
C:\Users\stapi\AppData\Local\Temp\ccjEJfii.s:9389   .debug_str:000000000000066c .LASF187
C:\Users\stapi\AppData\Local\Temp\ccjEJfii.s:224    .text.udp_input:00000000000000c8 .LBB5
C:\Users\stapi\AppData\Local\Temp\ccjEJfii.s:7317   .debug_loc:0000000000000723 .LLST7
C:\Users\stapi\AppData\Local\Temp\ccjEJfii.s:7328   .debug_loc:0000000000000741 .LLST8
C:\Users\stapi\AppData\Local\Temp\ccjEJfii.s:7339   .debug_loc:000000000000075f .LLST9
C:\Users\stapi\AppData\Local\Temp\ccjEJfii.s:98     .text.udp_input:000000000000002e .LVL5
C:\Users\stapi\AppData\Local\Temp\ccjEJfii.s:124    .text.udp_input:0000000000000058 .LVL9
C:\Users\stapi\AppData\Local\Temp\ccjEJfii.s:152    .text.udp_input:0000000000000070 .LVL12
C:\Users\stapi\AppData\Local\Temp\ccjEJfii.s:184    .text.udp_input:0000000000000094 .LVL16
C:\Users\stapi\AppData\Local\Temp\ccjEJfii.s:197    .text.udp_input:00000000000000aa .LVL18
C:\Users\stapi\AppData\Local\Temp\ccjEJfii.s:209    .text.udp_input:00000000000000c0 .LVL20
C:\Users\stapi\AppData\Local\Temp\ccjEJfii.s:423    .text.udp_input:00000000000001a8 .LVL37
C:\Users\stapi\AppData\Local\Temp\ccjEJfii.s:432    .text.udp_input:00000000000001b8 .LVL38
C:\Users\stapi\AppData\Local\Temp\ccjEJfii.s:447    .text.udp_input:00000000000001de .LVL39
C:\Users\stapi\AppData\Local\Temp\ccjEJfii.s:471    .text.udp_input:00000000000001fa .LVL40
C:\Users\stapi\AppData\Local\Temp\ccjEJfii.s:496    .text.udp_input:0000000000000224 .LVL41
C:\Users\stapi\AppData\Local\Temp\ccjEJfii.s:501    .text.udp_input:0000000000000230 .LVL42
C:\Users\stapi\AppData\Local\Temp\ccjEJfii.s:9357   .debug_str:00000000000005c7 .LASF185
C:\Users\stapi\AppData\Local\Temp\ccjEJfii.s:9371   .debug_str:0000000000000619 .LASF186
C:\Users\stapi\AppData\Local\Temp\ccjEJfii.s:9163   .debug_str:0000000000000049 .LASF188
C:\Users\stapi\AppData\Local\Temp\ccjEJfii.s:9393   .debug_str:0000000000000682 .LASF189
C:\Users\stapi\AppData\Local\Temp\ccjEJfii.s:14     .text.udp_init:0000000000000000 .LFB4
C:\Users\stapi\AppData\Local\Temp\ccjEJfii.s:37     .text.udp_init:0000000000000028 .LFE4
C:\Users\stapi\AppData\Local\Temp\ccjEJfii.s:24     .text.udp_init:0000000000000010 .LVL0
C:\Users\stapi\AppData\Local\Temp\ccjEJfii.s:773    .text.udp_sendto_if_src:0000000000000000 .LFB11
C:\Users\stapi\AppData\Local\Temp\ccjEJfii.s:1186   .text.udp_sendto_if_src:0000000000000250 .LFE11
C:\Users\stapi\AppData\Local\Temp\ccjEJfii.s:7350   .debug_loc:000000000000077d .LLST17
C:\Users\stapi\AppData\Local\Temp\ccjEJfii.s:7416   .debug_loc:0000000000000818 .LLST18
C:\Users\stapi\AppData\Local\Temp\ccjEJfii.s:7486   .debug_loc:00000000000008d3 .LLST19
C:\Users\stapi\AppData\Local\Temp\ccjEJfii.s:7551   .debug_loc:000000000000097b .LLST20
C:\Users\stapi\AppData\Local\Temp\ccjEJfii.s:7631   .debug_loc:0000000000000a32 .LLST21
C:\Users\stapi\AppData\Local\Temp\ccjEJfii.s:7702   .debug_loc:0000000000000ae0 .LLST22
C:\Users\stapi\AppData\Local\Temp\ccjEJfii.s:848    .text.udp_sendto_if_src:000000000000005c .LBB24
C:\Users\stapi\AppData\Local\Temp\ccjEJfii.s:7762   .debug_loc:0000000000000b75 .LLST23
C:\Users\stapi\AppData\Local\Temp\ccjEJfii.s:7804   .debug_loc:0000000000000be3 .LLST24
C:\Users\stapi\AppData\Local\Temp\ccjEJfii.s:7857   .debug_loc:0000000000000c6a .LLST25
C:\Users\stapi\AppData\Local\Temp\ccjEJfii.s:7922   .debug_loc:0000000000000cfd .LLST26
C:\Users\stapi\AppData\Local\Temp\ccjEJfii.s:7973   .debug_loc:0000000000000d89 .LLST27
C:\Users\stapi\AppData\Local\Temp\ccjEJfii.s:8028   .debug_loc:0000000000000e20 .LLST28
C:\Users\stapi\AppData\Local\Temp\ccjEJfii.s:8076   .debug_loc:0000000000000e94 .LLST29
C:\Users\stapi\AppData\Local\Temp\ccjEJfii.s:8087   .debug_loc:0000000000000eb2 .LLST30
C:\Users\stapi\AppData\Local\Temp\ccjEJfii.s:8098   .debug_loc:0000000000000ed0 .LLST31
C:\Users\stapi\AppData\Local\Temp\ccjEJfii.s:8114   .debug_loc:0000000000000efa .LLST32
C:\Users\stapi\AppData\Local\Temp\ccjEJfii.s:1110   .text.udp_sendto_if_src:00000000000001ea .LBB26
C:\Users\stapi\AppData\Local\Temp\ccjEJfii.s:1137   .text.udp_sendto_if_src:000000000000020e .LBE26
C:\Users\stapi\AppData\Local\Temp\ccjEJfii.s:8121   .debug_loc:0000000000000f0d .LLST33
C:\Users\stapi\AppData\Local\Temp\ccjEJfii.s:1120   .text.udp_sendto_if_src:00000000000001fe .LVL125
C:\Users\stapi\AppData\Local\Temp\ccjEJfii.s:869    .text.udp_sendto_if_src:0000000000000082 .LVL92
C:\Users\stapi\AppData\Local\Temp\ccjEJfii.s:896    .text.udp_sendto_if_src:00000000000000ac .LVL98
C:\Users\stapi\AppData\Local\Temp\ccjEJfii.s:923    .text.udp_sendto_if_src:00000000000000d6 .LVL104
C:\Users\stapi\AppData\Local\Temp\ccjEJfii.s:963    .text.udp_sendto_if_src:00000000000000fe .LVL111
C:\Users\stapi\AppData\Local\Temp\ccjEJfii.s:997    .text.udp_sendto_if_src:0000000000000118 .LVL115
C:\Users\stapi\AppData\Local\Temp\ccjEJfii.s:1008   .text.udp_sendto_if_src:000000000000012e .LVL117
C:\Users\stapi\AppData\Local\Temp\ccjEJfii.s:1021   .text.udp_sendto_if_src:0000000000000142 .LVL119
C:\Users\stapi\AppData\Local\Temp\ccjEJfii.s:1039   .text.udp_sendto_if_src:0000000000000170 .LVL120
C:\Users\stapi\AppData\Local\Temp\ccjEJfii.s:1057   .text.udp_sendto_if_src:0000000000000182 .LVL122
C:\Users\stapi\AppData\Local\Temp\ccjEJfii.s:1066   .text.udp_sendto_if_src:0000000000000196 .LVL123
C:\Users\stapi\AppData\Local\Temp\ccjEJfii.s:1100   .text.udp_sendto_if_src:00000000000001d8 .LVL124
C:\Users\stapi\AppData\Local\Temp\ccjEJfii.s:1164   .text.udp_sendto_if_src:0000000000000238 .LVL131
C:\Users\stapi\AppData\Local\Temp\ccjEJfii.s:1175   .text.udp_sendto_if_src:0000000000000248 .LVL133
C:\Users\stapi\AppData\Local\Temp\ccjEJfii.s:811    .text.udp_sendto_if_src:000000000000002e .LVL78
C:\Users\stapi\AppData\Local\Temp\ccjEJfii.s:838    .text.udp_sendto_if_src:0000000000000058 .LVL84
C:\Users\stapi\AppData\Local\Temp\ccjEJfii.s:1206   .text.udp_sendto_if:0000000000000000 .LFB10
C:\Users\stapi\AppData\Local\Temp\ccjEJfii.s:1369   .text.udp_sendto_if:00000000000000e2 .LFE10
C:\Users\stapi\AppData\Local\Temp\ccjEJfii.s:8132   .debug_loc:0000000000000f2b .LLST34
C:\Users\stapi\AppData\Local\Temp\ccjEJfii.s:8194   .debug_loc:0000000000000fbb .LLST35
C:\Users\stapi\AppData\Local\Temp\ccjEJfii.s:8256   .debug_loc:000000000000104b .LLST36
C:\Users\stapi\AppData\Local\Temp\ccjEJfii.s:8318   .debug_loc:00000000000010db .LLST37
C:\Users\stapi\AppData\Local\Temp\ccjEJfii.s:8380   .debug_loc:000000000000116b .LLST38
C:\Users\stapi\AppData\Local\Temp\ccjEJfii.s:1265   .text.udp_sendto_if:0000000000000058 .LBB31
C:\Users\stapi\AppData\Local\Temp\ccjEJfii.s:8442   .debug_loc:00000000000011fb .LLST39
C:\Users\stapi\AppData\Local\Temp\ccjEJfii.s:8482   .debug_loc:0000000000001259 .LLST40
C:\Users\stapi\AppData\Local\Temp\ccjEJfii.s:8522   .debug_loc:00000000000012b7 .LLST41
C:\Users\stapi\AppData\Local\Temp\ccjEJfii.s:8562   .debug_loc:0000000000001315 .LLST42
C:\Users\stapi\AppData\Local\Temp\ccjEJfii.s:8602   .debug_loc:0000000000001373 .LLST43
C:\Users\stapi\AppData\Local\Temp\ccjEJfii.s:8642   .debug_loc:00000000000013d1 .LLST44
C:\Users\stapi\AppData\Local\Temp\ccjEJfii.s:1285   .text.udp_sendto_if:000000000000007e .LVL152
C:\Users\stapi\AppData\Local\Temp\ccjEJfii.s:1311   .text.udp_sendto_if:00000000000000a6 .LVL158
C:\Users\stapi\AppData\Local\Temp\ccjEJfii.s:1339   .text.udp_sendto_if:00000000000000c8 .LVL161
C:\Users\stapi\AppData\Local\Temp\ccjEJfii.s:1231   .text.udp_sendto_if:000000000000002e .LVL140
C:\Users\stapi\AppData\Local\Temp\ccjEJfii.s:1257   .text.udp_sendto_if:0000000000000056 .LVL146
C:\Users\stapi\AppData\Local\Temp\ccjEJfii.s:1386   .text.udp_sendto:0000000000000000 .LFB9
C:\Users\stapi\AppData\Local\Temp\ccjEJfii.s:1589   .text.udp_sendto:0000000000000100 .LFE9
C:\Users\stapi\AppData\Local\Temp\ccjEJfii.s:8649   .debug_loc:00000000000013e4 .LLST45
C:\Users\stapi\AppData\Local\Temp\ccjEJfii.s:8693   .debug_loc:000000000000144d .LLST46
C:\Users\stapi\AppData\Local\Temp\ccjEJfii.s:8755   .debug_loc:00000000000014f2 .LLST47
C:\Users\stapi\AppData\Local\Temp\ccjEJfii.s:8788   .debug_loc:0000000000001542 .LLST48
C:\Users\stapi\AppData\Local\Temp\ccjEJfii.s:1452   .text.udp_sendto:000000000000005c .LBB37
C:\Users\stapi\AppData\Local\Temp\ccjEJfii.s:8868   .debug_loc:00000000000015f9 .LLST49
C:\Users\stapi\AppData\Local\Temp\ccjEJfii.s:8926   .debug_loc:000000000000167e .LLST50
C:\Users\stapi\AppData\Local\Temp\ccjEJfii.s:8937   .debug_loc:000000000000169c .LLST51
C:\Users\stapi\AppData\Local\Temp\ccjEJfii.s:8980   .debug_loc:0000000000001712 .LLST52
C:\Users\stapi\AppData\Local\Temp\ccjEJfii.s:9006   .debug_loc:0000000000001754 .LLST53
C:\Users\stapi\AppData\Local\Temp\ccjEJfii.s:1472   .text.udp_sendto:0000000000000082 .LVL182
C:\Users\stapi\AppData\Local\Temp\ccjEJfii.s:1494   .text.udp_sendto:0000000000000096 .LVL185
C:\Users\stapi\AppData\Local\Temp\ccjEJfii.s:1513   .text.udp_sendto:00000000000000ac .LVL188
C:\Users\stapi\AppData\Local\Temp\ccjEJfii.s:1547   .text.udp_sendto:00000000000000cc .LVL191
C:\Users\stapi\AppData\Local\Temp\ccjEJfii.s:1559   .text.udp_sendto:00000000000000dc .LVL193
C:\Users\stapi\AppData\Local\Temp\ccjEJfii.s:1584   .text.udp_sendto:00000000000000fe .LVL196
C:\Users\stapi\AppData\Local\Temp\ccjEJfii.s:1415   .text.udp_sendto:000000000000002e .LVL169
C:\Users\stapi\AppData\Local\Temp\ccjEJfii.s:1442   .text.udp_sendto:0000000000000058 .LVL175
C:\Users\stapi\AppData\Local\Temp\ccjEJfii.s:9359   .debug_str:00000000000005dd .LASF190
C:\Users\stapi\AppData\Local\Temp\ccjEJfii.s:9211   .debug_str:0000000000000157 .LASF210
C:\Users\stapi\AppData\Local\Temp\ccjEJfii.s:9469   .debug_str:0000000000000848 .LASF211
C:\Users\stapi\AppData\Local\Temp\ccjEJfii.s:9367   .debug_str:000000000000060b .LASF191
C:\Users\stapi\AppData\Local\Temp\ccjEJfii.s:9525   .debug_str:000000000000097c .LASF192
C:\Users\stapi\AppData\Local\Temp\ccjEJfii.s:9455   .debug_str:00000000000007fb .LASF193
C:\Users\stapi\AppData\Local\Temp\ccjEJfii.s:9341   .debug_str:00000000000004ea .LASF194
C:\Users\stapi\AppData\Local\Temp\ccjEJfii.s:9355   .debug_str:00000000000005bd .LASF195
C:\Users\stapi\AppData\Local\Temp\ccjEJfii.s:9183   .debug_str:00000000000000bb .LASF196
C:\Users\stapi\AppData\Local\Temp\ccjEJfii.s:9223   .debug_str:00000000000001a9 .LASF197
C:\Users\stapi\AppData\Local\Temp\ccjEJfii.s:9197   .debug_str:0000000000000113 .LASF198
C:\Users\stapi\AppData\Local\Temp\ccjEJfii.s:9353   .debug_str:00000000000005aa .LASF199
C:\Users\stapi\AppData\Local\Temp\ccjEJfii.s:9217   .debug_str:0000000000000174 .LASF200
C:\Users\stapi\AppData\Local\Temp\ccjEJfii.s:9271   .debug_str:00000000000002db .LASF201
C:\Users\stapi\AppData\Local\Temp\ccjEJfii.s:9153   .debug_str:0000000000000011 .LASF202
C:\Users\stapi\AppData\Local\Temp\ccjEJfii.s:9233   .debug_str:00000000000001eb .LASF203
C:\Users\stapi\AppData\Local\Temp\ccjEJfii.s:9351   .debug_str:000000000000059f .LASF204
C:\Users\stapi\AppData\Local\Temp\ccjEJfii.s:9483   .debug_str:00000000000008a5 .LASF205
C:\Users\stapi\AppData\Local\Temp\ccjEJfii.s:9493   .debug_str:00000000000008cd .LASF206
C:\Users\stapi\AppData\Local\Temp\ccjEJfii.s:2202   .text.udp_netif_ip_addr_changed:0000000000000014 .LVL259
C:\Users\stapi\AppData\Local\Temp\ccjEJfii.s:2207   .text.udp_netif_ip_addr_changed:0000000000000016 .LVL260
C:\Users\stapi\AppData\Local\Temp\ccjEJfii.s:2211   .text.udp_netif_ip_addr_changed:0000000000000018 .LVL261
C:\Users\stapi\AppData\Local\Temp\ccjEJfii.s:2165   .text.udp_new_ip_type:0000000000000000 .LVL256
C:\Users\stapi\AppData\Local\Temp\ccjEJfii.s:2032   .text.udp_remove:0000000000000000 .LVL245
C:\Users\stapi\AppData\Local\Temp\ccjEJfii.s:2046   .text.udp_remove:0000000000000016 .LVL246
C:\Users\stapi\AppData\Local\Temp\ccjEJfii.s:2058   .text.udp_remove:0000000000000030 .LVL248
C:\Users\stapi\AppData\Local\Temp\ccjEJfii.s:2077   .text.udp_remove:0000000000000046 .LVL249
C:\Users\stapi\AppData\Local\Temp\ccjEJfii.s:2085   .text.udp_remove:0000000000000056 .LVL251
C:\Users\stapi\AppData\Local\Temp\ccjEJfii.s:1977   .text.udp_recv:0000000000000000 .LVL239
C:\Users\stapi\AppData\Local\Temp\ccjEJfii.s:1992   .text.udp_recv:0000000000000016 .LVL241
C:\Users\stapi\AppData\Local\Temp\ccjEJfii.s:2005   .text.udp_recv:0000000000000030 .LVL244
C:\Users\stapi\AppData\Local\Temp\ccjEJfii.s:1990   .text.udp_recv:0000000000000012 .LVL240
C:\Users\stapi\AppData\Local\Temp\ccjEJfii.s:1995   .text.udp_recv:000000000000001e .LVL242
C:\Users\stapi\AppData\Local\Temp\ccjEJfii.s:1913   .text.udp_disconnect:0000000000000000 .LVL235
C:\Users\stapi\AppData\Local\Temp\ccjEJfii.s:1927   .text.udp_disconnect:0000000000000016 .LVL236
C:\Users\stapi\AppData\Local\Temp\ccjEJfii.s:1939   .text.udp_disconnect:0000000000000030 .LVL238
C:\Users\stapi\AppData\Local\Temp\ccjEJfii.s:1714   .text.udp_connect:0000000000000000 .LVL208
C:\Users\stapi\AppData\Local\Temp\ccjEJfii.s:1734   .text.udp_connect:0000000000000016 .LVL211
C:\Users\stapi\AppData\Local\Temp\ccjEJfii.s:1747   .text.udp_connect:0000000000000030 .LVL214
C:\Users\stapi\AppData\Local\Temp\ccjEJfii.s:1760   .text.udp_connect:0000000000000040 .LVL216
C:\Users\stapi\AppData\Local\Temp\ccjEJfii.s:1773   .text.udp_connect:000000000000005a .LVL219
C:\Users\stapi\AppData\Local\Temp\ccjEJfii.s:1783   .text.udp_connect:0000000000000064 .LVL220
C:\Users\stapi\AppData\Local\Temp\ccjEJfii.s:1732   .text.udp_connect:0000000000000012 .LVL210
C:\Users\stapi\AppData\Local\Temp\ccjEJfii.s:1754   .text.udp_connect:0000000000000034 .LVL215
C:\Users\stapi\AppData\Local\Temp\ccjEJfii.s:1737   .text.udp_connect:000000000000001e .LVL212
C:\Users\stapi\AppData\Local\Temp\ccjEJfii.s:1763   .text.udp_connect:0000000000000048 .LVL217
C:\Users\stapi\AppData\Local\Temp\ccjEJfii.s:1808   .text.udp_connect:000000000000008c .LVL222
C:\Users\stapi\AppData\Local\Temp\ccjEJfii.s:1814   .text.udp_connect:000000000000008e .LVL223
C:\Users\stapi\AppData\Local\Temp\ccjEJfii.s:1722   .text.udp_connect:0000000000000008 .LVL209
C:\Users\stapi\AppData\Local\Temp\ccjEJfii.s:1821   .text.udp_connect:000000000000009a .LVL225
C:\Users\stapi\AppData\Local\Temp\ccjEJfii.s:1832   .text.udp_connect:00000000000000a2 .LVL226
C:\Users\stapi\AppData\Local\Temp\ccjEJfii.s:1842   .text.udp_connect:00000000000000ac .LVL228
C:\Users\stapi\AppData\Local\Temp\ccjEJfii.s:1846   .text.udp_connect:00000000000000ae .LVL229
C:\Users\stapi\AppData\Local\Temp\ccjEJfii.s:1859   .text.udp_connect:00000000000000b6 .LVL231
C:\Users\stapi\AppData\Local\Temp\ccjEJfii.s:1870   .text.udp_connect:00000000000000c0 .LVL232
C:\Users\stapi\AppData\Local\Temp\ccjEJfii.s:1873   .text.udp_connect:00000000000000c6 .LVL233
C:\Users\stapi\AppData\Local\Temp\ccjEJfii.s:1855   .text.udp_connect:00000000000000b4 .LVL230
C:\Users\stapi\AppData\Local\Temp\ccjEJfii.s:518    .text.udp_bind:0000000000000000 .LVL43
C:\Users\stapi\AppData\Local\Temp\ccjEJfii.s:544    .text.udp_bind:0000000000000020 .LVL47
C:\Users\stapi\AppData\Local\Temp\ccjEJfii.s:557    .text.udp_bind:000000000000003a .LVL50
C:\Users\stapi\AppData\Local\Temp\ccjEJfii.s:650    .text.udp_bind:000000000000008a .LVL60
C:\Users\stapi\AppData\Local\Temp\ccjEJfii.s:653    .text.udp_bind:000000000000008c .LVL61
C:\Users\stapi\AppData\Local\Temp\ccjEJfii.s:694    .text.udp_bind:00000000000000b2 .LVL68
C:\Users\stapi\AppData\Local\Temp\ccjEJfii.s:696    .text.udp_bind:00000000000000b4 .LVL69
C:\Users\stapi\AppData\Local\Temp\ccjEJfii.s:527    .text.udp_bind:0000000000000006 .LVL44
C:\Users\stapi\AppData\Local\Temp\ccjEJfii.s:530    .text.udp_bind:000000000000000a .LVL45
C:\Users\stapi\AppData\Local\Temp\ccjEJfii.s:542    .text.udp_bind:000000000000001c .LVL46
C:\Users\stapi\AppData\Local\Temp\ccjEJfii.s:547    .text.udp_bind:0000000000000028 .LVL48
C:\Users\stapi\AppData\Local\Temp\ccjEJfii.s:593    .text.udp_bind:000000000000005a .LVL54
C:\Users\stapi\AppData\Local\Temp\ccjEJfii.s:625    .text.udp_bind:0000000000000076 .LVL59
C:\Users\stapi\AppData\Local\Temp\ccjEJfii.s:667    .text.udp_bind:0000000000000098 .LVL63
C:\Users\stapi\AppData\Local\Temp\ccjEJfii.s:705    .text.udp_bind:00000000000000ba .LVL71
C:\Users\stapi\AppData\Local\Temp\ccjEJfii.s:570    .text.udp_bind:0000000000000042 .LVL51
C:\Users\stapi\AppData\Local\Temp\ccjEJfii.s:573    .text.udp_bind:0000000000000048 .LVL52
C:\Users\stapi\AppData\Local\Temp\ccjEJfii.s:598    .text.udp_bind:000000000000005c .LVL55
C:\Users\stapi\AppData\Local\Temp\ccjEJfii.s:581    .text.udp_bind:000000000000004c .LVL53
C:\Users\stapi\AppData\Local\Temp\ccjEJfii.s:605    .text.udp_bind:0000000000000062 .LVL56
C:\Users\stapi\AppData\Local\Temp\ccjEJfii.s:681    .text.udp_bind:00000000000000a4 .LVL65
C:\Users\stapi\AppData\Local\Temp\ccjEJfii.s:684    .text.udp_bind:00000000000000a6 .LVL66
C:\Users\stapi\AppData\Local\Temp\ccjEJfii.s:615    .text.udp_bind:000000000000006c .LVL57
C:\Users\stapi\AppData\Local\Temp\ccjEJfii.s:618    .text.udp_bind:000000000000006e .LVL58
C:\Users\stapi\AppData\Local\Temp\ccjEJfii.s:674    .text.udp_bind:000000000000009c .LVL64
C:\Users\stapi\AppData\Local\Temp\ccjEJfii.s:688    .text.udp_bind:00000000000000b0 .LVL67
C:\Users\stapi\AppData\Local\Temp\ccjEJfii.s:1606   .text.udp_send:0000000000000000 .LVL197
C:\Users\stapi\AppData\Local\Temp\ccjEJfii.s:1619   .text.udp_send:0000000000000016 .LVL199
C:\Users\stapi\AppData\Local\Temp\ccjEJfii.s:1631   .text.udp_send:0000000000000030 .LVL201
C:\Users\stapi\AppData\Local\Temp\ccjEJfii.s:1643   .text.udp_send:000000000000003e .LVL203
C:\Users\stapi\AppData\Local\Temp\ccjEJfii.s:1655   .text.udp_send:0000000000000058 .LVL205
C:\Users\stapi\AppData\Local\Temp\ccjEJfii.s:1617   .text.udp_send:0000000000000012 .LVL198
C:\Users\stapi\AppData\Local\Temp\ccjEJfii.s:1641   .text.udp_send:000000000000003a .LVL202
C:\Users\stapi\AppData\Local\Temp\ccjEJfii.s:63     .text.udp_input:0000000000000000 .LVL1
C:\Users\stapi\AppData\Local\Temp\ccjEJfii.s:92     .text.udp_input:0000000000000016 .LVL4
C:\Users\stapi\AppData\Local\Temp\ccjEJfii.s:104    .text.udp_input:0000000000000030 .LVL6
C:\Users\stapi\AppData\Local\Temp\ccjEJfii.s:118    .text.udp_input:0000000000000040 .LVL8
C:\Users\stapi\AppData\Local\Temp\ccjEJfii.s:130    .text.udp_input:000000000000005a .LVL10
C:\Users\stapi\AppData\Local\Temp\ccjEJfii.s:143    .text.udp_input:0000000000000066 .LVL11
C:\Users\stapi\AppData\Local\Temp\ccjEJfii.s:90     .text.udp_input:0000000000000012 .LVL3
C:\Users\stapi\AppData\Local\Temp\ccjEJfii.s:116    .text.udp_input:000000000000003c .LVL7
C:\Users\stapi\AppData\Local\Temp\ccjEJfii.s:167    .text.udp_input:0000000000000078 .LVL13
C:\Users\stapi\AppData\Local\Temp\ccjEJfii.s:180    .text.udp_input:0000000000000086 .LVL15
C:\Users\stapi\AppData\Local\Temp\ccjEJfii.s:223    .text.udp_input:00000000000000c8 .LVL21
C:\Users\stapi\AppData\Local\Temp\ccjEJfii.s:243    .text.udp_input:00000000000000de .LVL22
C:\Users\stapi\AppData\Local\Temp\ccjEJfii.s:251    .text.udp_input:00000000000000e0 .LVL23
C:\Users\stapi\AppData\Local\Temp\ccjEJfii.s:255    .text.udp_input:00000000000000e2 .LVL24
C:\Users\stapi\AppData\Local\Temp\ccjEJfii.s:263    .text.udp_input:00000000000000ec .LVL25
C:\Users\stapi\AppData\Local\Temp\ccjEJfii.s:356    .text.udp_input:000000000000014e .LVL30
C:\Users\stapi\AppData\Local\Temp\ccjEJfii.s:365    .text.udp_input:0000000000000152 .LVL31
C:\Users\stapi\AppData\Local\Temp\ccjEJfii.s:389    .text.udp_input:000000000000016c .LVL34
C:\Users\stapi\AppData\Local\Temp\ccjEJfii.s:401    .text.udp_input:000000000000017a .LVL35
C:\Users\stapi\AppData\Local\Temp\ccjEJfii.s:345    .text.udp_input:0000000000000146 .LVL28
C:\Users\stapi\AppData\Local\Temp\ccjEJfii.s:347    .text.udp_input:0000000000000148 .LVL29
C:\Users\stapi\AppData\Local\Temp\ccjEJfii.s:386    .text.udp_input:0000000000000168 .LVL33
C:\Users\stapi\AppData\Local\Temp\ccjEJfii.s:421    .text.udp_input:00000000000001a0 .LVL36
C:\Users\stapi\AppData\Local\Temp\ccjEJfii.s:80     .text.udp_input:0000000000000008 .LVL2
C:\Users\stapi\AppData\Local\Temp\ccjEJfii.s:274    .text.udp_input:00000000000000f4 .LVL26
C:\Users\stapi\AppData\Local\Temp\ccjEJfii.s:318    .text.udp_input:0000000000000122 .LVL27
C:\Users\stapi\AppData\Local\Temp\ccjEJfii.s:776    .text.udp_sendto_if_src:0000000000000000 .LVL73
C:\Users\stapi\AppData\Local\Temp\ccjEJfii.s:804    .text.udp_sendto_if_src:0000000000000016 .LVL76
C:\Users\stapi\AppData\Local\Temp\ccjEJfii.s:817    .text.udp_sendto_if_src:0000000000000030 .LVL79
C:\Users\stapi\AppData\Local\Temp\ccjEJfii.s:831    .text.udp_sendto_if_src:0000000000000040 .LVL82
C:\Users\stapi\AppData\Local\Temp\ccjEJfii.s:844    .text.udp_sendto_if_src:000000000000005a .LVL85
C:\Users\stapi\AppData\Local\Temp\ccjEJfii.s:862    .text.udp_sendto_if_src:000000000000006a .LVL90
C:\Users\stapi\AppData\Local\Temp\ccjEJfii.s:875    .text.udp_sendto_if_src:0000000000000084 .LVL93
C:\Users\stapi\AppData\Local\Temp\ccjEJfii.s:889    .text.udp_sendto_if_src:0000000000000094 .LVL96
C:\Users\stapi\AppData\Local\Temp\ccjEJfii.s:902    .text.udp_sendto_if_src:00000000000000ae .LVL99
C:\Users\stapi\AppData\Local\Temp\ccjEJfii.s:916    .text.udp_sendto_if_src:00000000000000be .LVL102
C:\Users\stapi\AppData\Local\Temp\ccjEJfii.s:929    .text.udp_sendto_if_src:00000000000000d8 .LVL105
C:\Users\stapi\AppData\Local\Temp\ccjEJfii.s:941    .text.udp_sendto_if_src:00000000000000e2 .LVL107
C:\Users\stapi\AppData\Local\Temp\ccjEJfii.s:802    .text.udp_sendto_if_src:0000000000000012 .LVL75
C:\Users\stapi\AppData\Local\Temp\ccjEJfii.s:829    .text.udp_sendto_if_src:000000000000003c .LVL81
C:\Users\stapi\AppData\Local\Temp\ccjEJfii.s:860    .text.udp_sendto_if_src:0000000000000066 .LVL89
C:\Users\stapi\AppData\Local\Temp\ccjEJfii.s:887    .text.udp_sendto_if_src:0000000000000090 .LVL95
C:\Users\stapi\AppData\Local\Temp\ccjEJfii.s:914    .text.udp_sendto_if_src:00000000000000ba .LVL101
C:\Users\stapi\AppData\Local\Temp\ccjEJfii.s:953    .text.udp_sendto_if_src:00000000000000f2 .LVL108
C:\Users\stapi\AppData\Local\Temp\ccjEJfii.s:961    .text.udp_sendto_if_src:00000000000000f6 .LVL110
C:\Users\stapi\AppData\Local\Temp\ccjEJfii.s:1001   .text.udp_sendto_if_src:000000000000011c .LVL116
C:\Users\stapi\AppData\Local\Temp\ccjEJfii.s:1010   .text.udp_sendto_if_src:0000000000000130 .LVL118
C:\Users\stapi\AppData\Local\Temp\ccjEJfii.s:807    .text.udp_sendto_if_src:000000000000001e .LVL77
C:\Users\stapi\AppData\Local\Temp\ccjEJfii.s:834    .text.udp_sendto_if_src:0000000000000048 .LVL83
C:\Users\stapi\AppData\Local\Temp\ccjEJfii.s:865    .text.udp_sendto_if_src:0000000000000072 .LVL91
C:\Users\stapi\AppData\Local\Temp\ccjEJfii.s:892    .text.udp_sendto_if_src:000000000000009c .LVL97
C:\Users\stapi\AppData\Local\Temp\ccjEJfii.s:919    .text.udp_sendto_if_src:00000000000000c6 .LVL103
C:\Users\stapi\AppData\Local\Temp\ccjEJfii.s:959    .text.udp_sendto_if_src:00000000000000f4 .LVL109
C:\Users\stapi\AppData\Local\Temp\ccjEJfii.s:800    .text.udp_sendto_if_src:000000000000000e .LVL74
C:\Users\stapi\AppData\Local\Temp\ccjEJfii.s:827    .text.udp_sendto_if_src:0000000000000038 .LVL80
C:\Users\stapi\AppData\Local\Temp\ccjEJfii.s:858    .text.udp_sendto_if_src:0000000000000062 .LVL88
C:\Users\stapi\AppData\Local\Temp\ccjEJfii.s:885    .text.udp_sendto_if_src:000000000000008c .LVL94
C:\Users\stapi\AppData\Local\Temp\ccjEJfii.s:912    .text.udp_sendto_if_src:00000000000000b6 .LVL100
C:\Users\stapi\AppData\Local\Temp\ccjEJfii.s:933    .text.udp_sendto_if_src:00000000000000dc .LVL106
C:\Users\stapi\AppData\Local\Temp\ccjEJfii.s:847    .text.udp_sendto_if_src:000000000000005c .LVL86
C:\Users\stapi\AppData\Local\Temp\ccjEJfii.s:969    .text.udp_sendto_if_src:0000000000000102 .LVL113
C:\Users\stapi\AppData\Local\Temp\ccjEJfii.s:987    .text.udp_sendto_if_src:000000000000010c .LVL114
C:\Users\stapi\AppData\Local\Temp\ccjEJfii.s:854    .text.udp_sendto_if_src:000000000000005e .LVL87
C:\Users\stapi\AppData\Local\Temp\ccjEJfii.s:1053   .text.udp_sendto_if_src:000000000000017a .LVL121
C:\Users\stapi\AppData\Local\Temp\ccjEJfii.s:1166   .text.udp_sendto_if_src:000000000000023a .LVL132
C:\Users\stapi\AppData\Local\Temp\ccjEJfii.s:1178   .text.udp_sendto_if_src:000000000000024a .LVL134
C:\Users\stapi\AppData\Local\Temp\ccjEJfii.s:965    .text.udp_sendto_if_src:0000000000000100 .LVL112
C:\Users\stapi\AppData\Local\Temp\ccjEJfii.s:1151   .text.udp_sendto_if_src:0000000000000222 .LVL130
C:\Users\stapi\AppData\Local\Temp\ccjEJfii.s:1126   .text.udp_sendto_if_src:0000000000000202 .LVL126
C:\Users\stapi\AppData\Local\Temp\ccjEJfii.s:1129   .text.udp_sendto_if_src:0000000000000204 .LVL127
C:\Users\stapi\AppData\Local\Temp\ccjEJfii.s:1134   .text.udp_sendto_if_src:000000000000020a .LVL128
C:\Users\stapi\AppData\Local\Temp\ccjEJfii.s:1209   .text.udp_sendto_if:0000000000000000 .LVL135
C:\Users\stapi\AppData\Local\Temp\ccjEJfii.s:1224   .text.udp_sendto_if:0000000000000016 .LVL138
C:\Users\stapi\AppData\Local\Temp\ccjEJfii.s:1237   .text.udp_sendto_if:0000000000000030 .LVL141
C:\Users\stapi\AppData\Local\Temp\ccjEJfii.s:1250   .text.udp_sendto_if:000000000000003e .LVL144
C:\Users\stapi\AppData\Local\Temp\ccjEJfii.s:1263   .text.udp_sendto_if:0000000000000058 .LVL147
C:\Users\stapi\AppData\Local\Temp\ccjEJfii.s:1278   .text.udp_sendto_if:0000000000000066 .LVL150
C:\Users\stapi\AppData\Local\Temp\ccjEJfii.s:1291   .text.udp_sendto_if:0000000000000080 .LVL153
C:\Users\stapi\AppData\Local\Temp\ccjEJfii.s:1304   .text.udp_sendto_if:000000000000008e .LVL156
C:\Users\stapi\AppData\Local\Temp\ccjEJfii.s:1317   .text.udp_sendto_if:00000000000000a8 .LVL159
C:\Users\stapi\AppData\Local\Temp\ccjEJfii.s:1351   .text.udp_sendto_if:00000000000000d4 .LVL163
C:\Users\stapi\AppData\Local\Temp\ccjEJfii.s:1222   .text.udp_sendto_if:0000000000000012 .LVL137
C:\Users\stapi\AppData\Local\Temp\ccjEJfii.s:1248   .text.udp_sendto_if:000000000000003a .LVL143
C:\Users\stapi\AppData\Local\Temp\ccjEJfii.s:1276   .text.udp_sendto_if:0000000000000062 .LVL149
C:\Users\stapi\AppData\Local\Temp\ccjEJfii.s:1302   .text.udp_sendto_if:000000000000008a .LVL155
C:\Users\stapi\AppData\Local\Temp\ccjEJfii.s:1227   .text.udp_sendto_if:000000000000001e .LVL139
C:\Users\stapi\AppData\Local\Temp\ccjEJfii.s:1253   .text.udp_sendto_if:0000000000000046 .LVL145
C:\Users\stapi\AppData\Local\Temp\ccjEJfii.s:1281   .text.udp_sendto_if:000000000000006e .LVL151
C:\Users\stapi\AppData\Local\Temp\ccjEJfii.s:1307   .text.udp_sendto_if:0000000000000096 .LVL157
C:\Users\stapi\AppData\Local\Temp\ccjEJfii.s:1220   .text.udp_sendto_if:000000000000000e .LVL136
C:\Users\stapi\AppData\Local\Temp\ccjEJfii.s:1246   .text.udp_sendto_if:0000000000000036 .LVL142
C:\Users\stapi\AppData\Local\Temp\ccjEJfii.s:1274   .text.udp_sendto_if:000000000000005e .LVL148
C:\Users\stapi\AppData\Local\Temp\ccjEJfii.s:1300   .text.udp_sendto_if:0000000000000086 .LVL154
C:\Users\stapi\AppData\Local\Temp\ccjEJfii.s:1342   .text.udp_sendto_if:00000000000000ca .LVL162
C:\Users\stapi\AppData\Local\Temp\ccjEJfii.s:1334   .text.udp_sendto_if:00000000000000c0 .LVL160
C:\Users\stapi\AppData\Local\Temp\ccjEJfii.s:1389   .text.udp_sendto:0000000000000000 .LVL164
C:\Users\stapi\AppData\Local\Temp\ccjEJfii.s:1408   .text.udp_sendto:0000000000000016 .LVL167
C:\Users\stapi\AppData\Local\Temp\ccjEJfii.s:1421   .text.udp_sendto:0000000000000030 .LVL170
C:\Users\stapi\AppData\Local\Temp\ccjEJfii.s:1435   .text.udp_sendto:0000000000000040 .LVL173
C:\Users\stapi\AppData\Local\Temp\ccjEJfii.s:1448   .text.udp_sendto:000000000000005a .LVL176
C:\Users\stapi\AppData\Local\Temp\ccjEJfii.s:1466   .text.udp_sendto:000000000000006a .LVL181
C:\Users\stapi\AppData\Local\Temp\ccjEJfii.s:1478   .text.udp_sendto:0000000000000084 .LVL183
C:\Users\stapi\AppData\Local\Temp\ccjEJfii.s:1483   .text.udp_sendto:000000000000008a .LVL184
C:\Users\stapi\AppData\Local\Temp\ccjEJfii.s:1406   .text.udp_sendto:0000000000000012 .LVL166
C:\Users\stapi\AppData\Local\Temp\ccjEJfii.s:1433   .text.udp_sendto:000000000000003c .LVL172
C:\Users\stapi\AppData\Local\Temp\ccjEJfii.s:1464   .text.udp_sendto:0000000000000066 .LVL180
C:\Users\stapi\AppData\Local\Temp\ccjEJfii.s:1526   .text.udp_sendto:00000000000000b4 .LVL189
C:\Users\stapi\AppData\Local\Temp\ccjEJfii.s:1541   .text.udp_sendto:00000000000000c2 .LVL190
C:\Users\stapi\AppData\Local\Temp\ccjEJfii.s:1549   .text.udp_sendto:00000000000000ce .LVL192
C:\Users\stapi\AppData\Local\Temp\ccjEJfii.s:1568   .text.udp_sendto:00000000000000e2 .LVL195
C:\Users\stapi\AppData\Local\Temp\ccjEJfii.s:1411   .text.udp_sendto:000000000000001e .LVL168
C:\Users\stapi\AppData\Local\Temp\ccjEJfii.s:1438   .text.udp_sendto:0000000000000048 .LVL174
C:\Users\stapi\AppData\Local\Temp\ccjEJfii.s:1458   .text.udp_sendto:000000000000005e .LVL178
C:\Users\stapi\AppData\Local\Temp\ccjEJfii.s:1404   .text.udp_sendto:000000000000000e .LVL165
C:\Users\stapi\AppData\Local\Temp\ccjEJfii.s:1431   .text.udp_sendto:0000000000000038 .LVL171
C:\Users\stapi\AppData\Local\Temp\ccjEJfii.s:1462   .text.udp_sendto:0000000000000062 .LVL179
C:\Users\stapi\AppData\Local\Temp\ccjEJfii.s:1451   .text.udp_sendto:000000000000005c .LVL177
C:\Users\stapi\AppData\Local\Temp\ccjEJfii.s:1498   .text.udp_sendto:0000000000000098 .LVL186
C:\Users\stapi\AppData\Local\Temp\ccjEJfii.s:1502   .text.udp_sendto:000000000000009a .LVL187
C:\Users\stapi\AppData\Local\Temp\ccjEJfii.s:1563   .text.udp_sendto:00000000000000de .LVL194
C:\Users\stapi\AppData\Local\Temp\ccjEJfii.s:2268   .debug_info:0000000000000000 .Ldebug_info0
C:\Users\stapi\AppData\Local\Temp\ccjEJfii.s:231    .text.udp_input:00000000000000ce .LBE5
C:\Users\stapi\AppData\Local\Temp\ccjEJfii.s:275    .text.udp_input:00000000000000f4 .LBB9
C:\Users\stapi\AppData\Local\Temp\ccjEJfii.s:320    .text.udp_input:0000000000000122 .LBE9
C:\Users\stapi\AppData\Local\Temp\ccjEJfii.s:349    .text.udp_input:0000000000000148 .LBB10
C:\Users\stapi\AppData\Local\Temp\ccjEJfii.s:359    .text.udp_input:000000000000014e .LBE10
C:\Users\stapi\AppData\Local\Temp\ccjEJfii.s:595    .text.udp_bind:000000000000005a .LBE13
C:\Users\stapi\AppData\Local\Temp\ccjEJfii.s:600    .text.udp_bind:0000000000000060 .LBB18
C:\Users\stapi\AppData\Local\Temp\ccjEJfii.s:627    .text.udp_bind:0000000000000076 .LBE18
C:\Users\stapi\AppData\Local\Temp\ccjEJfii.s:669    .text.udp_bind:0000000000000098 .LBB19
C:\Users\stapi\AppData\Local\Temp\ccjEJfii.s:691    .text.udp_bind:00000000000000b0 .LBE19
C:\Users\stapi\AppData\Local\Temp\ccjEJfii.s:698    .text.udp_bind:00000000000000b4 .LBB20
C:\Users\stapi\AppData\Local\Temp\ccjEJfii.s:708    .text.udp_bind:00000000000000ba .LBE20
C:\Users\stapi\AppData\Local\Temp\ccjEJfii.s:972    .text.udp_sendto_if_src:0000000000000102 .LBE24
C:\Users\stapi\AppData\Local\Temp\ccjEJfii.s:990    .text.udp_sendto_if_src:000000000000010c .LBB28
C:\Users\stapi\AppData\Local\Temp\ccjEJfii.s:1184   .text.udp_sendto_if_src:0000000000000250 .LBE28
C:\Users\stapi\AppData\Local\Temp\ccjEJfii.s:1344   .text.udp_sendto_if:00000000000000ca .LBE31
C:\Users\stapi\AppData\Local\Temp\ccjEJfii.s:1354   .text.udp_sendto_if:00000000000000d4 .LBB34
C:\Users\stapi\AppData\Local\Temp\ccjEJfii.s:1367   .text.udp_sendto_if:00000000000000e2 .LBE34
C:\Users\stapi\AppData\Local\Temp\ccjEJfii.s:1516   .text.udp_sendto:00000000000000ac .LBE37
C:\Users\stapi\AppData\Local\Temp\ccjEJfii.s:1529   .text.udp_sendto:00000000000000b4 .LBB40
C:\Users\stapi\AppData\Local\Temp\ccjEJfii.s:1587   .text.udp_sendto:0000000000000100 .LBE40

UNDEFINED SYMBOLS
__riscv_save_0
rand
__riscv_restore_0
__riscv_save_7
printf
pbuf_free
__riscv_restore_7
ip_data
ip4_addr_isbroadcast_u32
lwip_htons
ip_chksum_pseudo
pbuf_remove_header
pbuf_header_force
icmp_dest_unreach
ip_addr_any
__riscv_save_8
__riscv_restore_8
pbuf_add_header
pbuf_alloc
pbuf_chain
ip4_output_if_src
__riscv_save_4
netif_get_by_index
__riscv_restore_4
ip4_route
ip_addr_broadcast
__riscv_save_3
__riscv_restore_3
memp_free
__riscv_save_1
memp_malloc
memset
__riscv_restore_1
