   1              		.file	"wifi_netif.c"
   2              		.option nopic
   3              		.attribute arch, "rv32i2p0_m2p0_a2p0_f2p0_c2p0_b_p0p94"
   4              		.attribute unaligned_access, 0
   5              		.attribute stack_align, 16
   6              		.text
   7              	.Ltext0:
   8              		.cfi_sections	.debug_frame
   9              		.section	.text.net_if_init,"ax",@progbits
  10              		.align	1
  12              	net_if_init:
  13              	.LFB17:
  14              		.file 1 "C:/Users/stapi/OneDrive/Desktop/GD32VW553/GD32VW55X_Wifi_BLE_SDK/GD32VW55x_RELEASE_V1.0.2
   1:C:/Users/stapi/OneDrive/Desktop/GD32VW553/GD32VW55X_Wifi_BLE_SDK/GD32VW55x_RELEASE_V1.0.2/MSDK/lwip/lwip-2.1.2/port\wifi_netif.c **** /*!
   2:C:/Users/stapi/OneDrive/Desktop/GD32VW553/GD32VW55X_Wifi_BLE_SDK/GD32VW55x_RELEASE_V1.0.2/MSDK/lwip/lwip-2.1.2/port\wifi_netif.c ****     \file    wifi_netif.c
   3:C:/Users/stapi/OneDrive/Desktop/GD32VW553/GD32VW55X_Wifi_BLE_SDK/GD32VW55x_RELEASE_V1.0.2/MSDK/lwip/lwip-2.1.2/port\wifi_netif.c ****     \brief   Implementation of WiFi network interface layer.
   4:C:/Users/stapi/OneDrive/Desktop/GD32VW553/GD32VW55X_Wifi_BLE_SDK/GD32VW55x_RELEASE_V1.0.2/MSDK/lwip/lwip-2.1.2/port\wifi_netif.c **** 
   5:C:/Users/stapi/OneDrive/Desktop/GD32VW553/GD32VW55X_Wifi_BLE_SDK/GD32VW55x_RELEASE_V1.0.2/MSDK/lwip/lwip-2.1.2/port\wifi_netif.c ****     \version 2023-07-20, V1.0.0, firmware for GD32VW55x
   6:C:/Users/stapi/OneDrive/Desktop/GD32VW553/GD32VW55X_Wifi_BLE_SDK/GD32VW55x_RELEASE_V1.0.2/MSDK/lwip/lwip-2.1.2/port\wifi_netif.c **** */
   7:C:/Users/stapi/OneDrive/Desktop/GD32VW553/GD32VW55X_Wifi_BLE_SDK/GD32VW55x_RELEASE_V1.0.2/MSDK/lwip/lwip-2.1.2/port\wifi_netif.c **** 
   8:C:/Users/stapi/OneDrive/Desktop/GD32VW553/GD32VW55X_Wifi_BLE_SDK/GD32VW55x_RELEASE_V1.0.2/MSDK/lwip/lwip-2.1.2/port\wifi_netif.c **** /*
   9:C:/Users/stapi/OneDrive/Desktop/GD32VW553/GD32VW55X_Wifi_BLE_SDK/GD32VW55x_RELEASE_V1.0.2/MSDK/lwip/lwip-2.1.2/port\wifi_netif.c ****     Copyright (c) 2023, GigaDevice Semiconductor Inc.
  10:C:/Users/stapi/OneDrive/Desktop/GD32VW553/GD32VW55X_Wifi_BLE_SDK/GD32VW55x_RELEASE_V1.0.2/MSDK/lwip/lwip-2.1.2/port\wifi_netif.c **** 
  11:C:/Users/stapi/OneDrive/Desktop/GD32VW553/GD32VW55X_Wifi_BLE_SDK/GD32VW55x_RELEASE_V1.0.2/MSDK/lwip/lwip-2.1.2/port\wifi_netif.c ****     Redistribution and use in source and binary forms, with or without modification,
  12:C:/Users/stapi/OneDrive/Desktop/GD32VW553/GD32VW55X_Wifi_BLE_SDK/GD32VW55x_RELEASE_V1.0.2/MSDK/lwip/lwip-2.1.2/port\wifi_netif.c **** are permitted provided that the following conditions are met:
  13:C:/Users/stapi/OneDrive/Desktop/GD32VW553/GD32VW55X_Wifi_BLE_SDK/GD32VW55x_RELEASE_V1.0.2/MSDK/lwip/lwip-2.1.2/port\wifi_netif.c **** 
  14:C:/Users/stapi/OneDrive/Desktop/GD32VW553/GD32VW55X_Wifi_BLE_SDK/GD32VW55x_RELEASE_V1.0.2/MSDK/lwip/lwip-2.1.2/port\wifi_netif.c ****     1. Redistributions of source code must retain the above copyright notice, this
  15:C:/Users/stapi/OneDrive/Desktop/GD32VW553/GD32VW55X_Wifi_BLE_SDK/GD32VW55x_RELEASE_V1.0.2/MSDK/lwip/lwip-2.1.2/port\wifi_netif.c ****        list of conditions and the following disclaimer.
  16:C:/Users/stapi/OneDrive/Desktop/GD32VW553/GD32VW55X_Wifi_BLE_SDK/GD32VW55x_RELEASE_V1.0.2/MSDK/lwip/lwip-2.1.2/port\wifi_netif.c ****     2. Redistributions in binary form must reproduce the above copyright notice,
  17:C:/Users/stapi/OneDrive/Desktop/GD32VW553/GD32VW55X_Wifi_BLE_SDK/GD32VW55x_RELEASE_V1.0.2/MSDK/lwip/lwip-2.1.2/port\wifi_netif.c ****        this list of conditions and the following disclaimer in the documentation
  18:C:/Users/stapi/OneDrive/Desktop/GD32VW553/GD32VW55X_Wifi_BLE_SDK/GD32VW55x_RELEASE_V1.0.2/MSDK/lwip/lwip-2.1.2/port\wifi_netif.c ****        and/or other materials provided with the distribution.
  19:C:/Users/stapi/OneDrive/Desktop/GD32VW553/GD32VW55X_Wifi_BLE_SDK/GD32VW55x_RELEASE_V1.0.2/MSDK/lwip/lwip-2.1.2/port\wifi_netif.c ****     3. Neither the name of the copyright holder nor the names of its contributors
  20:C:/Users/stapi/OneDrive/Desktop/GD32VW553/GD32VW55X_Wifi_BLE_SDK/GD32VW55x_RELEASE_V1.0.2/MSDK/lwip/lwip-2.1.2/port\wifi_netif.c ****        may be used to endorse or promote products derived from this software without
  21:C:/Users/stapi/OneDrive/Desktop/GD32VW553/GD32VW55X_Wifi_BLE_SDK/GD32VW55x_RELEASE_V1.0.2/MSDK/lwip/lwip-2.1.2/port\wifi_netif.c ****        specific prior written permission.
  22:C:/Users/stapi/OneDrive/Desktop/GD32VW553/GD32VW55X_Wifi_BLE_SDK/GD32VW55x_RELEASE_V1.0.2/MSDK/lwip/lwip-2.1.2/port\wifi_netif.c **** 
  23:C:/Users/stapi/OneDrive/Desktop/GD32VW553/GD32VW55X_Wifi_BLE_SDK/GD32VW55x_RELEASE_V1.0.2/MSDK/lwip/lwip-2.1.2/port\wifi_netif.c ****     THIS SOFTWARE IS PROVIDED BY THE COPYRIGHT HOLDERS AND CONTRIBUTORS "AS IS"
  24:C:/Users/stapi/OneDrive/Desktop/GD32VW553/GD32VW55X_Wifi_BLE_SDK/GD32VW55x_RELEASE_V1.0.2/MSDK/lwip/lwip-2.1.2/port\wifi_netif.c **** AND ANY EXPRESS OR IMPLIED WARRANTIES, INCLUDING, BUT NOT LIMITED TO, THE IMPLIED
  25:C:/Users/stapi/OneDrive/Desktop/GD32VW553/GD32VW55X_Wifi_BLE_SDK/GD32VW55x_RELEASE_V1.0.2/MSDK/lwip/lwip-2.1.2/port\wifi_netif.c **** WARRANTIES OF MERCHANTABILITY AND FITNESS FOR A PARTICULAR PURPOSE ARE DISCLAIMED.
  26:C:/Users/stapi/OneDrive/Desktop/GD32VW553/GD32VW55X_Wifi_BLE_SDK/GD32VW55x_RELEASE_V1.0.2/MSDK/lwip/lwip-2.1.2/port\wifi_netif.c **** IN NO EVENT SHALL THE COPYRIGHT HOLDER OR CONTRIBUTORS BE LIABLE FOR ANY DIRECT,
  27:C:/Users/stapi/OneDrive/Desktop/GD32VW553/GD32VW55X_Wifi_BLE_SDK/GD32VW55x_RELEASE_V1.0.2/MSDK/lwip/lwip-2.1.2/port\wifi_netif.c **** INDIRECT, INCIDENTAL, SPECIAL, EXEMPLARY, OR CONSEQUENTIAL DAMAGES (INCLUDING, BUT
  28:C:/Users/stapi/OneDrive/Desktop/GD32VW553/GD32VW55X_Wifi_BLE_SDK/GD32VW55x_RELEASE_V1.0.2/MSDK/lwip/lwip-2.1.2/port\wifi_netif.c **** NOT LIMITED TO, PROCUREMENT OF SUBSTITUTE GOODS OR SERVICES; LOSS OF USE, DATA, OR
  29:C:/Users/stapi/OneDrive/Desktop/GD32VW553/GD32VW55X_Wifi_BLE_SDK/GD32VW55x_RELEASE_V1.0.2/MSDK/lwip/lwip-2.1.2/port\wifi_netif.c **** PROFITS; OR BUSINESS INTERRUPTION) HOWEVER CAUSED AND ON ANY THEORY OF LIABILITY,
  30:C:/Users/stapi/OneDrive/Desktop/GD32VW553/GD32VW55X_Wifi_BLE_SDK/GD32VW55x_RELEASE_V1.0.2/MSDK/lwip/lwip-2.1.2/port\wifi_netif.c **** WHETHER IN CONTRACT, STRICT LIABILITY, OR TORT (INCLUDING NEGLIGENCE OR OTHERWISE)
  31:C:/Users/stapi/OneDrive/Desktop/GD32VW553/GD32VW55X_Wifi_BLE_SDK/GD32VW55x_RELEASE_V1.0.2/MSDK/lwip/lwip-2.1.2/port\wifi_netif.c **** ARISING IN ANY WAY OUT OF THE USE OF THIS SOFTWARE, EVEN IF ADVISED OF THE POSSIBILITY
  32:C:/Users/stapi/OneDrive/Desktop/GD32VW553/GD32VW55X_Wifi_BLE_SDK/GD32VW55x_RELEASE_V1.0.2/MSDK/lwip/lwip-2.1.2/port\wifi_netif.c **** OF SUCH DAMAGE.
  33:C:/Users/stapi/OneDrive/Desktop/GD32VW553/GD32VW55X_Wifi_BLE_SDK/GD32VW55x_RELEASE_V1.0.2/MSDK/lwip/lwip-2.1.2/port\wifi_netif.c **** */
  34:C:/Users/stapi/OneDrive/Desktop/GD32VW553/GD32VW55X_Wifi_BLE_SDK/GD32VW55x_RELEASE_V1.0.2/MSDK/lwip/lwip-2.1.2/port\wifi_netif.c **** 
  35:C:/Users/stapi/OneDrive/Desktop/GD32VW553/GD32VW55X_Wifi_BLE_SDK/GD32VW55x_RELEASE_V1.0.2/MSDK/lwip/lwip-2.1.2/port\wifi_netif.c **** /*
  36:C:/Users/stapi/OneDrive/Desktop/GD32VW553/GD32VW55X_Wifi_BLE_SDK/GD32VW55x_RELEASE_V1.0.2/MSDK/lwip/lwip-2.1.2/port\wifi_netif.c ****  * INCLUDE FILES
  37:C:/Users/stapi/OneDrive/Desktop/GD32VW553/GD32VW55X_Wifi_BLE_SDK/GD32VW55x_RELEASE_V1.0.2/MSDK/lwip/lwip-2.1.2/port\wifi_netif.c ****  ****************************************************************************************
  38:C:/Users/stapi/OneDrive/Desktop/GD32VW553/GD32VW55X_Wifi_BLE_SDK/GD32VW55x_RELEASE_V1.0.2/MSDK/lwip/lwip-2.1.2/port\wifi_netif.c ****  */
  39:C:/Users/stapi/OneDrive/Desktop/GD32VW553/GD32VW55X_Wifi_BLE_SDK/GD32VW55x_RELEASE_V1.0.2/MSDK/lwip/lwip-2.1.2/port\wifi_netif.c **** #include "wifi_netif.h"
  40:C:/Users/stapi/OneDrive/Desktop/GD32VW553/GD32VW55X_Wifi_BLE_SDK/GD32VW55x_RELEASE_V1.0.2/MSDK/lwip/lwip-2.1.2/port\wifi_netif.c **** #include "lwip/tcpip.h"
  41:C:/Users/stapi/OneDrive/Desktop/GD32VW553/GD32VW55X_Wifi_BLE_SDK/GD32VW55x_RELEASE_V1.0.2/MSDK/lwip/lwip-2.1.2/port\wifi_netif.c **** #include "lwip/etharp.h"
  42:C:/Users/stapi/OneDrive/Desktop/GD32VW553/GD32VW55X_Wifi_BLE_SDK/GD32VW55x_RELEASE_V1.0.2/MSDK/lwip/lwip-2.1.2/port\wifi_netif.c **** #include "lwip/netifapi.h"
  43:C:/Users/stapi/OneDrive/Desktop/GD32VW553/GD32VW55X_Wifi_BLE_SDK/GD32VW55x_RELEASE_V1.0.2/MSDK/lwip/lwip-2.1.2/port\wifi_netif.c **** #include "lwip/sockets.h"
  44:C:/Users/stapi/OneDrive/Desktop/GD32VW553/GD32VW55X_Wifi_BLE_SDK/GD32VW55x_RELEASE_V1.0.2/MSDK/lwip/lwip-2.1.2/port\wifi_netif.c **** #include "lwip/netbuf.h"
  45:C:/Users/stapi/OneDrive/Desktop/GD32VW553/GD32VW55X_Wifi_BLE_SDK/GD32VW55x_RELEASE_V1.0.2/MSDK/lwip/lwip-2.1.2/port\wifi_netif.c **** #include "lwip/api.h"
  46:C:/Users/stapi/OneDrive/Desktop/GD32VW553/GD32VW55X_Wifi_BLE_SDK/GD32VW55x_RELEASE_V1.0.2/MSDK/lwip/lwip-2.1.2/port\wifi_netif.c **** #include "lwip/dns.h"
  47:C:/Users/stapi/OneDrive/Desktop/GD32VW553/GD32VW55X_Wifi_BLE_SDK/GD32VW55x_RELEASE_V1.0.2/MSDK/lwip/lwip-2.1.2/port\wifi_netif.c **** #include "lwip/inet_chksum.h"
  48:C:/Users/stapi/OneDrive/Desktop/GD32VW553/GD32VW55X_Wifi_BLE_SDK/GD32VW55x_RELEASE_V1.0.2/MSDK/lwip/lwip-2.1.2/port\wifi_netif.c **** #include "lwip/netif.h"
  49:C:/Users/stapi/OneDrive/Desktop/GD32VW553/GD32VW55X_Wifi_BLE_SDK/GD32VW55x_RELEASE_V1.0.2/MSDK/lwip/lwip-2.1.2/port\wifi_netif.c **** #include "netif/ethernet.h"
  50:C:/Users/stapi/OneDrive/Desktop/GD32VW553/GD32VW55X_Wifi_BLE_SDK/GD32VW55x_RELEASE_V1.0.2/MSDK/lwip/lwip-2.1.2/port\wifi_netif.c **** #include "co_math.h"
  51:C:/Users/stapi/OneDrive/Desktop/GD32VW553/GD32VW55X_Wifi_BLE_SDK/GD32VW55x_RELEASE_V1.0.2/MSDK/lwip/lwip-2.1.2/port\wifi_netif.c **** 
  52:C:/Users/stapi/OneDrive/Desktop/GD32VW553/GD32VW55X_Wifi_BLE_SDK/GD32VW55x_RELEASE_V1.0.2/MSDK/lwip/lwip-2.1.2/port\wifi_netif.c **** #include "app_cfg.h"
  53:C:/Users/stapi/OneDrive/Desktop/GD32VW553/GD32VW55X_Wifi_BLE_SDK/GD32VW55x_RELEASE_V1.0.2/MSDK/lwip/lwip-2.1.2/port\wifi_netif.c **** #include "wrapper_os.h"
  54:C:/Users/stapi/OneDrive/Desktop/GD32VW553/GD32VW55X_Wifi_BLE_SDK/GD32VW55x_RELEASE_V1.0.2/MSDK/lwip/lwip-2.1.2/port\wifi_netif.c **** #include "dhcpd.h"
  55:C:/Users/stapi/OneDrive/Desktop/GD32VW553/GD32VW55X_Wifi_BLE_SDK/GD32VW55x_RELEASE_V1.0.2/MSDK/lwip/lwip-2.1.2/port\wifi_netif.c **** #include "macif_api.h"
  56:C:/Users/stapi/OneDrive/Desktop/GD32VW553/GD32VW55X_Wifi_BLE_SDK/GD32VW55x_RELEASE_V1.0.2/MSDK/lwip/lwip-2.1.2/port\wifi_netif.c **** #include "dbg_print.h"
  57:C:/Users/stapi/OneDrive/Desktop/GD32VW553/GD32VW55X_Wifi_BLE_SDK/GD32VW55x_RELEASE_V1.0.2/MSDK/lwip/lwip-2.1.2/port\wifi_netif.c **** #include "wifi_init.h"
  58:C:/Users/stapi/OneDrive/Desktop/GD32VW553/GD32VW55X_Wifi_BLE_SDK/GD32VW55x_RELEASE_V1.0.2/MSDK/lwip/lwip-2.1.2/port\wifi_netif.c **** 
  59:C:/Users/stapi/OneDrive/Desktop/GD32VW553/GD32VW55X_Wifi_BLE_SDK/GD32VW55x_RELEASE_V1.0.2/MSDK/lwip/lwip-2.1.2/port\wifi_netif.c **** #if LWIP_IPV6
  60:C:/Users/stapi/OneDrive/Desktop/GD32VW553/GD32VW55X_Wifi_BLE_SDK/GD32VW55x_RELEASE_V1.0.2/MSDK/lwip/lwip-2.1.2/port\wifi_netif.c **** #include "lwip/ethip6.h"
  61:C:/Users/stapi/OneDrive/Desktop/GD32VW553/GD32VW55X_Wifi_BLE_SDK/GD32VW55x_RELEASE_V1.0.2/MSDK/lwip/lwip-2.1.2/port\wifi_netif.c **** #include "lwip/mld6.h"
  62:C:/Users/stapi/OneDrive/Desktop/GD32VW553/GD32VW55X_Wifi_BLE_SDK/GD32VW55x_RELEASE_V1.0.2/MSDK/lwip/lwip-2.1.2/port\wifi_netif.c **** #if LWIP_IPV6_DHCP6
  63:C:/Users/stapi/OneDrive/Desktop/GD32VW553/GD32VW55X_Wifi_BLE_SDK/GD32VW55x_RELEASE_V1.0.2/MSDK/lwip/lwip-2.1.2/port\wifi_netif.c **** #include "lwip/dhcp6.h"
  64:C:/Users/stapi/OneDrive/Desktop/GD32VW553/GD32VW55X_Wifi_BLE_SDK/GD32VW55x_RELEASE_V1.0.2/MSDK/lwip/lwip-2.1.2/port\wifi_netif.c **** #endif
  65:C:/Users/stapi/OneDrive/Desktop/GD32VW553/GD32VW55X_Wifi_BLE_SDK/GD32VW55x_RELEASE_V1.0.2/MSDK/lwip/lwip-2.1.2/port\wifi_netif.c **** #endif
  66:C:/Users/stapi/OneDrive/Desktop/GD32VW553/GD32VW55X_Wifi_BLE_SDK/GD32VW55x_RELEASE_V1.0.2/MSDK/lwip/lwip-2.1.2/port\wifi_netif.c **** 
  67:C:/Users/stapi/OneDrive/Desktop/GD32VW553/GD32VW55X_Wifi_BLE_SDK/GD32VW55x_RELEASE_V1.0.2/MSDK/lwip/lwip-2.1.2/port\wifi_netif.c **** #define WIFI_NB_L2_FILTER 2
  68:C:/Users/stapi/OneDrive/Desktop/GD32VW553/GD32VW55X_Wifi_BLE_SDK/GD32VW55x_RELEASE_V1.0.2/MSDK/lwip/lwip-2.1.2/port\wifi_netif.c **** 
  69:C:/Users/stapi/OneDrive/Desktop/GD32VW553/GD32VW55X_Wifi_BLE_SDK/GD32VW55x_RELEASE_V1.0.2/MSDK/lwip/lwip-2.1.2/port\wifi_netif.c **** // Ethernet MTU
  70:C:/Users/stapi/OneDrive/Desktop/GD32VW553/GD32VW55X_Wifi_BLE_SDK/GD32VW55x_RELEASE_V1.0.2/MSDK/lwip/lwip-2.1.2/port\wifi_netif.c **** #define ETHERNET_MTU 1500
  71:C:/Users/stapi/OneDrive/Desktop/GD32VW553/GD32VW55X_Wifi_BLE_SDK/GD32VW55x_RELEASE_V1.0.2/MSDK/lwip/lwip-2.1.2/port\wifi_netif.c **** 
  72:C:/Users/stapi/OneDrive/Desktop/GD32VW553/GD32VW55X_Wifi_BLE_SDK/GD32VW55x_RELEASE_V1.0.2/MSDK/lwip/lwip-2.1.2/port\wifi_netif.c **** struct l2_filter_tag
  73:C:/Users/stapi/OneDrive/Desktop/GD32VW553/GD32VW55X_Wifi_BLE_SDK/GD32VW55x_RELEASE_V1.0.2/MSDK/lwip/lwip-2.1.2/port\wifi_netif.c **** {
  74:C:/Users/stapi/OneDrive/Desktop/GD32VW553/GD32VW55X_Wifi_BLE_SDK/GD32VW55x_RELEASE_V1.0.2/MSDK/lwip/lwip-2.1.2/port\wifi_netif.c ****     struct netif *net_if;
  75:C:/Users/stapi/OneDrive/Desktop/GD32VW553/GD32VW55X_Wifi_BLE_SDK/GD32VW55x_RELEASE_V1.0.2/MSDK/lwip/lwip-2.1.2/port\wifi_netif.c ****     int sock;
  76:C:/Users/stapi/OneDrive/Desktop/GD32VW553/GD32VW55X_Wifi_BLE_SDK/GD32VW55x_RELEASE_V1.0.2/MSDK/lwip/lwip-2.1.2/port\wifi_netif.c ****     struct netconn *conn;
  77:C:/Users/stapi/OneDrive/Desktop/GD32VW553/GD32VW55X_Wifi_BLE_SDK/GD32VW55x_RELEASE_V1.0.2/MSDK/lwip/lwip-2.1.2/port\wifi_netif.c ****     uint16_t ethertype;
  78:C:/Users/stapi/OneDrive/Desktop/GD32VW553/GD32VW55X_Wifi_BLE_SDK/GD32VW55x_RELEASE_V1.0.2/MSDK/lwip/lwip-2.1.2/port\wifi_netif.c **** };
  79:C:/Users/stapi/OneDrive/Desktop/GD32VW553/GD32VW55X_Wifi_BLE_SDK/GD32VW55x_RELEASE_V1.0.2/MSDK/lwip/lwip-2.1.2/port\wifi_netif.c **** 
  80:C:/Users/stapi/OneDrive/Desktop/GD32VW553/GD32VW55X_Wifi_BLE_SDK/GD32VW55x_RELEASE_V1.0.2/MSDK/lwip/lwip-2.1.2/port\wifi_netif.c **** static struct l2_filter_tag l2_filter[WIFI_NB_L2_FILTER];
  81:C:/Users/stapi/OneDrive/Desktop/GD32VW553/GD32VW55X_Wifi_BLE_SDK/GD32VW55x_RELEASE_V1.0.2/MSDK/lwip/lwip-2.1.2/port\wifi_netif.c **** static os_sema_t l2_semaphore;
  82:C:/Users/stapi/OneDrive/Desktop/GD32VW553/GD32VW55X_Wifi_BLE_SDK/GD32VW55x_RELEASE_V1.0.2/MSDK/lwip/lwip-2.1.2/port\wifi_netif.c **** static os_mutex_t l2_mutex;
  83:C:/Users/stapi/OneDrive/Desktop/GD32VW553/GD32VW55X_Wifi_BLE_SDK/GD32VW55x_RELEASE_V1.0.2/MSDK/lwip/lwip-2.1.2/port\wifi_netif.c **** static uint8_t ap_dhcpd_started = 0;
  84:C:/Users/stapi/OneDrive/Desktop/GD32VW553/GD32VW55X_Wifi_BLE_SDK/GD32VW55x_RELEASE_V1.0.2/MSDK/lwip/lwip-2.1.2/port\wifi_netif.c **** static bool netif_static_ip = 0;
  85:C:/Users/stapi/OneDrive/Desktop/GD32VW553/GD32VW55X_Wifi_BLE_SDK/GD32VW55x_RELEASE_V1.0.2/MSDK/lwip/lwip-2.1.2/port\wifi_netif.c **** #if LWIP_IPV6
  86:C:/Users/stapi/OneDrive/Desktop/GD32VW553/GD32VW55X_Wifi_BLE_SDK/GD32VW55x_RELEASE_V1.0.2/MSDK/lwip/lwip-2.1.2/port\wifi_netif.c **** static uint8_t ap_ip6_server_started = 0;
  87:C:/Users/stapi/OneDrive/Desktop/GD32VW553/GD32VW55X_Wifi_BLE_SDK/GD32VW55x_RELEASE_V1.0.2/MSDK/lwip/lwip-2.1.2/port\wifi_netif.c **** #endif
  88:C:/Users/stapi/OneDrive/Desktop/GD32VW553/GD32VW55X_Wifi_BLE_SDK/GD32VW55x_RELEASE_V1.0.2/MSDK/lwip/lwip-2.1.2/port\wifi_netif.c **** 
  89:C:/Users/stapi/OneDrive/Desktop/GD32VW553/GD32VW55X_Wifi_BLE_SDK/GD32VW55x_RELEASE_V1.0.2/MSDK/lwip/lwip-2.1.2/port\wifi_netif.c **** #if PBUF_LINK_ENCAPSULATION_HLEN < NET_AL_TX_HEADROOM
  90:C:/Users/stapi/OneDrive/Desktop/GD32VW553/GD32VW55X_Wifi_BLE_SDK/GD32VW55x_RELEASE_V1.0.2/MSDK/lwip/lwip-2.1.2/port\wifi_netif.c **** #error "PBUF_LINK_ENCAPSULATION_HLEN must be at least NET_AL_TX_HEADROOM"
  91:C:/Users/stapi/OneDrive/Desktop/GD32VW553/GD32VW55X_Wifi_BLE_SDK/GD32VW55x_RELEASE_V1.0.2/MSDK/lwip/lwip-2.1.2/port\wifi_netif.c **** #endif
  92:C:/Users/stapi/OneDrive/Desktop/GD32VW553/GD32VW55X_Wifi_BLE_SDK/GD32VW55x_RELEASE_V1.0.2/MSDK/lwip/lwip-2.1.2/port\wifi_netif.c **** 
  93:C:/Users/stapi/OneDrive/Desktop/GD32VW553/GD32VW55X_Wifi_BLE_SDK/GD32VW55x_RELEASE_V1.0.2/MSDK/lwip/lwip-2.1.2/port\wifi_netif.c **** /*
  94:C:/Users/stapi/OneDrive/Desktop/GD32VW553/GD32VW55X_Wifi_BLE_SDK/GD32VW55x_RELEASE_V1.0.2/MSDK/lwip/lwip-2.1.2/port\wifi_netif.c ****  * FUNCTIONS
  95:C:/Users/stapi/OneDrive/Desktop/GD32VW553/GD32VW55X_Wifi_BLE_SDK/GD32VW55x_RELEASE_V1.0.2/MSDK/lwip/lwip-2.1.2/port\wifi_netif.c ****  ****************************************************************************************
  96:C:/Users/stapi/OneDrive/Desktop/GD32VW553/GD32VW55X_Wifi_BLE_SDK/GD32VW55x_RELEASE_V1.0.2/MSDK/lwip/lwip-2.1.2/port\wifi_netif.c ****  */
  97:C:/Users/stapi/OneDrive/Desktop/GD32VW553/GD32VW55X_Wifi_BLE_SDK/GD32VW55x_RELEASE_V1.0.2/MSDK/lwip/lwip-2.1.2/port\wifi_netif.c **** // Fake function used to detected too small link encapsulation header length
  98:C:/Users/stapi/OneDrive/Desktop/GD32VW553/GD32VW55X_Wifi_BLE_SDK/GD32VW55x_RELEASE_V1.0.2/MSDK/lwip/lwip-2.1.2/port\wifi_netif.c **** void p_buf_link_encapsulation_hlen_too_small(void);
  99:C:/Users/stapi/OneDrive/Desktop/GD32VW553/GD32VW55X_Wifi_BLE_SDK/GD32VW55x_RELEASE_V1.0.2/MSDK/lwip/lwip-2.1.2/port\wifi_netif.c **** 
 100:C:/Users/stapi/OneDrive/Desktop/GD32VW553/GD32VW55X_Wifi_BLE_SDK/GD32VW55x_RELEASE_V1.0.2/MSDK/lwip/lwip-2.1.2/port\wifi_netif.c **** #if defined(NET_UDP_PBUF_REALLOC) && (NET_UDP_PBUF_REALLOC == 1)
 101:C:/Users/stapi/OneDrive/Desktop/GD32VW553/GD32VW55X_Wifi_BLE_SDK/GD32VW55x_RELEASE_V1.0.2/MSDK/lwip/lwip-2.1.2/port\wifi_netif.c **** static int net_buf_need_realloc(struct pbuf *pbuf)
 102:C:/Users/stapi/OneDrive/Desktop/GD32VW553/GD32VW55X_Wifi_BLE_SDK/GD32VW55x_RELEASE_V1.0.2/MSDK/lwip/lwip-2.1.2/port\wifi_netif.c **** {
 103:C:/Users/stapi/OneDrive/Desktop/GD32VW553/GD32VW55X_Wifi_BLE_SDK/GD32VW55x_RELEASE_V1.0.2/MSDK/lwip/lwip-2.1.2/port\wifi_netif.c ****     uint16_t eth_type;
 104:C:/Users/stapi/OneDrive/Desktop/GD32VW553/GD32VW55X_Wifi_BLE_SDK/GD32VW55x_RELEASE_V1.0.2/MSDK/lwip/lwip-2.1.2/port\wifi_netif.c ****     uint8_t proto;
 105:C:/Users/stapi/OneDrive/Desktop/GD32VW553/GD32VW55X_Wifi_BLE_SDK/GD32VW55x_RELEASE_V1.0.2/MSDK/lwip/lwip-2.1.2/port\wifi_netif.c ****     uint16_t port;
 106:C:/Users/stapi/OneDrive/Desktop/GD32VW553/GD32VW55X_Wifi_BLE_SDK/GD32VW55x_RELEASE_V1.0.2/MSDK/lwip/lwip-2.1.2/port\wifi_netif.c **** 
 107:C:/Users/stapi/OneDrive/Desktop/GD32VW553/GD32VW55X_Wifi_BLE_SDK/GD32VW55x_RELEASE_V1.0.2/MSDK/lwip/lwip-2.1.2/port\wifi_netif.c ****     if (pbuf->flags & PBUF_FLAG_IS_CUSTOM)
 108:C:/Users/stapi/OneDrive/Desktop/GD32VW553/GD32VW55X_Wifi_BLE_SDK/GD32VW55x_RELEASE_V1.0.2/MSDK/lwip/lwip-2.1.2/port\wifi_netif.c ****         return 0;
 109:C:/Users/stapi/OneDrive/Desktop/GD32VW553/GD32VW55X_Wifi_BLE_SDK/GD32VW55x_RELEASE_V1.0.2/MSDK/lwip/lwip-2.1.2/port\wifi_netif.c **** 
 110:C:/Users/stapi/OneDrive/Desktop/GD32VW553/GD32VW55X_Wifi_BLE_SDK/GD32VW55x_RELEASE_V1.0.2/MSDK/lwip/lwip-2.1.2/port\wifi_netif.c ****     eth_type = ((struct eth_hdr *)pbuf->payload)->type;
 111:C:/Users/stapi/OneDrive/Desktop/GD32VW553/GD32VW55X_Wifi_BLE_SDK/GD32VW55x_RELEASE_V1.0.2/MSDK/lwip/lwip-2.1.2/port\wifi_netif.c ****     // printf("eth_type = %x\r\n", eth_type);
 112:C:/Users/stapi/OneDrive/Desktop/GD32VW553/GD32VW55X_Wifi_BLE_SDK/GD32VW55x_RELEASE_V1.0.2/MSDK/lwip/lwip-2.1.2/port\wifi_netif.c **** #if LWIP_IPV6
 113:C:/Users/stapi/OneDrive/Desktop/GD32VW553/GD32VW55X_Wifi_BLE_SDK/GD32VW55x_RELEASE_V1.0.2/MSDK/lwip/lwip-2.1.2/port\wifi_netif.c ****     if (eth_type != PP_HTONS(ETHTYPE_IP) && eth_type != PP_HTONS(ETHTYPE_IPV6))
 114:C:/Users/stapi/OneDrive/Desktop/GD32VW553/GD32VW55X_Wifi_BLE_SDK/GD32VW55x_RELEASE_V1.0.2/MSDK/lwip/lwip-2.1.2/port\wifi_netif.c **** #else
 115:C:/Users/stapi/OneDrive/Desktop/GD32VW553/GD32VW55X_Wifi_BLE_SDK/GD32VW55x_RELEASE_V1.0.2/MSDK/lwip/lwip-2.1.2/port\wifi_netif.c ****     if (eth_type != PP_HTONS(ETHTYPE_IP))
 116:C:/Users/stapi/OneDrive/Desktop/GD32VW553/GD32VW55X_Wifi_BLE_SDK/GD32VW55x_RELEASE_V1.0.2/MSDK/lwip/lwip-2.1.2/port\wifi_netif.c **** #endif
 117:C:/Users/stapi/OneDrive/Desktop/GD32VW553/GD32VW55X_Wifi_BLE_SDK/GD32VW55x_RELEASE_V1.0.2/MSDK/lwip/lwip-2.1.2/port\wifi_netif.c ****         return 0;
 118:C:/Users/stapi/OneDrive/Desktop/GD32VW553/GD32VW55X_Wifi_BLE_SDK/GD32VW55x_RELEASE_V1.0.2/MSDK/lwip/lwip-2.1.2/port\wifi_netif.c **** 
 119:C:/Users/stapi/OneDrive/Desktop/GD32VW553/GD32VW55X_Wifi_BLE_SDK/GD32VW55x_RELEASE_V1.0.2/MSDK/lwip/lwip-2.1.2/port\wifi_netif.c **** #if LWIP_IPV6
 120:C:/Users/stapi/OneDrive/Desktop/GD32VW553/GD32VW55X_Wifi_BLE_SDK/GD32VW55x_RELEASE_V1.0.2/MSDK/lwip/lwip-2.1.2/port\wifi_netif.c ****     if (eth_type == PP_HTONS(ETHTYPE_IPV6))
 121:C:/Users/stapi/OneDrive/Desktop/GD32VW553/GD32VW55X_Wifi_BLE_SDK/GD32VW55x_RELEASE_V1.0.2/MSDK/lwip/lwip-2.1.2/port\wifi_netif.c ****         proto = IP6H_NEXTH((struct ip6_hdr *)((uint8_t *)pbuf->payload + SIZEOF_ETH_HDR));
 122:C:/Users/stapi/OneDrive/Desktop/GD32VW553/GD32VW55X_Wifi_BLE_SDK/GD32VW55x_RELEASE_V1.0.2/MSDK/lwip/lwip-2.1.2/port\wifi_netif.c ****     else
 123:C:/Users/stapi/OneDrive/Desktop/GD32VW553/GD32VW55X_Wifi_BLE_SDK/GD32VW55x_RELEASE_V1.0.2/MSDK/lwip/lwip-2.1.2/port\wifi_netif.c **** #endif
 124:C:/Users/stapi/OneDrive/Desktop/GD32VW553/GD32VW55X_Wifi_BLE_SDK/GD32VW55x_RELEASE_V1.0.2/MSDK/lwip/lwip-2.1.2/port\wifi_netif.c ****         proto = IPH_PROTO((struct ip_hdr *)((uint8_t *)pbuf->payload + SIZEOF_ETH_HDR));
 125:C:/Users/stapi/OneDrive/Desktop/GD32VW553/GD32VW55X_Wifi_BLE_SDK/GD32VW55x_RELEASE_V1.0.2/MSDK/lwip/lwip-2.1.2/port\wifi_netif.c ****     // printf("proto = %x\r\n", proto);
 126:C:/Users/stapi/OneDrive/Desktop/GD32VW553/GD32VW55X_Wifi_BLE_SDK/GD32VW55x_RELEASE_V1.0.2/MSDK/lwip/lwip-2.1.2/port\wifi_netif.c ****     if (proto != IP_PROTO_UDP)
 127:C:/Users/stapi/OneDrive/Desktop/GD32VW553/GD32VW55X_Wifi_BLE_SDK/GD32VW55x_RELEASE_V1.0.2/MSDK/lwip/lwip-2.1.2/port\wifi_netif.c ****         return 0;
 128:C:/Users/stapi/OneDrive/Desktop/GD32VW553/GD32VW55X_Wifi_BLE_SDK/GD32VW55x_RELEASE_V1.0.2/MSDK/lwip/lwip-2.1.2/port\wifi_netif.c **** 
 129:C:/Users/stapi/OneDrive/Desktop/GD32VW553/GD32VW55X_Wifi_BLE_SDK/GD32VW55x_RELEASE_V1.0.2/MSDK/lwip/lwip-2.1.2/port\wifi_netif.c **** #if LWIP_IPV6
 130:C:/Users/stapi/OneDrive/Desktop/GD32VW553/GD32VW55X_Wifi_BLE_SDK/GD32VW55x_RELEASE_V1.0.2/MSDK/lwip/lwip-2.1.2/port\wifi_netif.c ****     if (eth_type == PP_HTONS(ETHTYPE_IPV6))
 131:C:/Users/stapi/OneDrive/Desktop/GD32VW553/GD32VW55X_Wifi_BLE_SDK/GD32VW55x_RELEASE_V1.0.2/MSDK/lwip/lwip-2.1.2/port\wifi_netif.c ****         port = ((struct udp_hdr *)((uint8_t *)pbuf->payload + SIZEOF_ETH_HDR + IP6_HLEN))->src;
 132:C:/Users/stapi/OneDrive/Desktop/GD32VW553/GD32VW55X_Wifi_BLE_SDK/GD32VW55x_RELEASE_V1.0.2/MSDK/lwip/lwip-2.1.2/port\wifi_netif.c ****     else
 133:C:/Users/stapi/OneDrive/Desktop/GD32VW553/GD32VW55X_Wifi_BLE_SDK/GD32VW55x_RELEASE_V1.0.2/MSDK/lwip/lwip-2.1.2/port\wifi_netif.c **** #endif
 134:C:/Users/stapi/OneDrive/Desktop/GD32VW553/GD32VW55X_Wifi_BLE_SDK/GD32VW55x_RELEASE_V1.0.2/MSDK/lwip/lwip-2.1.2/port\wifi_netif.c ****         port = ((struct udp_hdr *)((uint8_t *)pbuf->payload + SIZEOF_ETH_HDR + IP_HLEN))->src;
 135:C:/Users/stapi/OneDrive/Desktop/GD32VW553/GD32VW55X_Wifi_BLE_SDK/GD32VW55x_RELEASE_V1.0.2/MSDK/lwip/lwip-2.1.2/port\wifi_netif.c ****     // printf("port = %x\r\n", lwip_ntohs(port));
 136:C:/Users/stapi/OneDrive/Desktop/GD32VW553/GD32VW55X_Wifi_BLE_SDK/GD32VW55x_RELEASE_V1.0.2/MSDK/lwip/lwip-2.1.2/port\wifi_netif.c ****     if (lwip_ntohs(port) == 0x43 || lwip_ntohs(port) == 0x44)  /* DHCP */
 137:C:/Users/stapi/OneDrive/Desktop/GD32VW553/GD32VW55X_Wifi_BLE_SDK/GD32VW55x_RELEASE_V1.0.2/MSDK/lwip/lwip-2.1.2/port\wifi_netif.c ****         return 0;
 138:C:/Users/stapi/OneDrive/Desktop/GD32VW553/GD32VW55X_Wifi_BLE_SDK/GD32VW55x_RELEASE_V1.0.2/MSDK/lwip/lwip-2.1.2/port\wifi_netif.c **** 
 139:C:/Users/stapi/OneDrive/Desktop/GD32VW553/GD32VW55X_Wifi_BLE_SDK/GD32VW55x_RELEASE_V1.0.2/MSDK/lwip/lwip-2.1.2/port\wifi_netif.c ****     return 1;
 140:C:/Users/stapi/OneDrive/Desktop/GD32VW553/GD32VW55X_Wifi_BLE_SDK/GD32VW55x_RELEASE_V1.0.2/MSDK/lwip/lwip-2.1.2/port\wifi_netif.c **** }
 141:C:/Users/stapi/OneDrive/Desktop/GD32VW553/GD32VW55X_Wifi_BLE_SDK/GD32VW55x_RELEASE_V1.0.2/MSDK/lwip/lwip-2.1.2/port\wifi_netif.c **** #endif /* NET_UDP_REALLOC */
 142:C:/Users/stapi/OneDrive/Desktop/GD32VW553/GD32VW55X_Wifi_BLE_SDK/GD32VW55x_RELEASE_V1.0.2/MSDK/lwip/lwip-2.1.2/port\wifi_netif.c **** 
 143:C:/Users/stapi/OneDrive/Desktop/GD32VW553/GD32VW55X_Wifi_BLE_SDK/GD32VW55x_RELEASE_V1.0.2/MSDK/lwip/lwip-2.1.2/port\wifi_netif.c **** /*!
 144:C:/Users/stapi/OneDrive/Desktop/GD32VW553/GD32VW55X_Wifi_BLE_SDK/GD32VW55x_RELEASE_V1.0.2/MSDK/lwip/lwip-2.1.2/port\wifi_netif.c ****     \brief      Callback used by the networking stack to push a buffer for transmission by the
 145:C:/Users/stapi/OneDrive/Desktop/GD32VW553/GD32VW55X_Wifi_BLE_SDK/GD32VW55x_RELEASE_V1.0.2/MSDK/lwip/lwip-2.1.2/port\wifi_netif.c ****                 WiFi interface.
 146:C:/Users/stapi/OneDrive/Desktop/GD32VW553/GD32VW55X_Wifi_BLE_SDK/GD32VW55x_RELEASE_V1.0.2/MSDK/lwip/lwip-2.1.2/port\wifi_netif.c ****     \param[in]  net_if: Pointer to the network interface on which the TX is done
 147:C:/Users/stapi/OneDrive/Desktop/GD32VW553/GD32VW55X_Wifi_BLE_SDK/GD32VW55x_RELEASE_V1.0.2/MSDK/lwip/lwip-2.1.2/port\wifi_netif.c ****     \param[in]  p_buf: Pointer to the buffer to transmit
 148:C:/Users/stapi/OneDrive/Desktop/GD32VW553/GD32VW55X_Wifi_BLE_SDK/GD32VW55x_RELEASE_V1.0.2/MSDK/lwip/lwip-2.1.2/port\wifi_netif.c ****     \param[out] none
 149:C:/Users/stapi/OneDrive/Desktop/GD32VW553/GD32VW55X_Wifi_BLE_SDK/GD32VW55x_RELEASE_V1.0.2/MSDK/lwip/lwip-2.1.2/port\wifi_netif.c ****     \retval     ERR_OK upon successful pushing of the buffer, ERR_BUF otherwise
 150:C:/Users/stapi/OneDrive/Desktop/GD32VW553/GD32VW55X_Wifi_BLE_SDK/GD32VW55x_RELEASE_V1.0.2/MSDK/lwip/lwip-2.1.2/port\wifi_netif.c **** */
 151:C:/Users/stapi/OneDrive/Desktop/GD32VW553/GD32VW55X_Wifi_BLE_SDK/GD32VW55x_RELEASE_V1.0.2/MSDK/lwip/lwip-2.1.2/port\wifi_netif.c **** static err_t net_if_output(struct netif *net_if, struct pbuf *p_buf)
 152:C:/Users/stapi/OneDrive/Desktop/GD32VW553/GD32VW55X_Wifi_BLE_SDK/GD32VW55x_RELEASE_V1.0.2/MSDK/lwip/lwip-2.1.2/port\wifi_netif.c **** {
 153:C:/Users/stapi/OneDrive/Desktop/GD32VW553/GD32VW55X_Wifi_BLE_SDK/GD32VW55x_RELEASE_V1.0.2/MSDK/lwip/lwip-2.1.2/port\wifi_netif.c ****     err_t status = ERR_BUF;
 154:C:/Users/stapi/OneDrive/Desktop/GD32VW553/GD32VW55X_Wifi_BLE_SDK/GD32VW55x_RELEASE_V1.0.2/MSDK/lwip/lwip-2.1.2/port\wifi_netif.c **** 
 155:C:/Users/stapi/OneDrive/Desktop/GD32VW553/GD32VW55X_Wifi_BLE_SDK/GD32VW55x_RELEASE_V1.0.2/MSDK/lwip/lwip-2.1.2/port\wifi_netif.c **** #if defined(NET_UDP_PBUF_REALLOC) && (NET_UDP_PBUF_REALLOC == 1)
 156:C:/Users/stapi/OneDrive/Desktop/GD32VW553/GD32VW55X_Wifi_BLE_SDK/GD32VW55x_RELEASE_V1.0.2/MSDK/lwip/lwip-2.1.2/port\wifi_netif.c ****     struct pbuf *pbuf_head_new, *pbuf_new, *p;
 157:C:/Users/stapi/OneDrive/Desktop/GD32VW553/GD32VW55X_Wifi_BLE_SDK/GD32VW55x_RELEASE_V1.0.2/MSDK/lwip/lwip-2.1.2/port\wifi_netif.c **** 
 158:C:/Users/stapi/OneDrive/Desktop/GD32VW553/GD32VW55X_Wifi_BLE_SDK/GD32VW55x_RELEASE_V1.0.2/MSDK/lwip/lwip-2.1.2/port\wifi_netif.c ****     if (net_buf_need_realloc(p_buf))
 159:C:/Users/stapi/OneDrive/Desktop/GD32VW553/GD32VW55X_Wifi_BLE_SDK/GD32VW55x_RELEASE_V1.0.2/MSDK/lwip/lwip-2.1.2/port\wifi_netif.c ****     {
 160:C:/Users/stapi/OneDrive/Desktop/GD32VW553/GD32VW55X_Wifi_BLE_SDK/GD32VW55x_RELEASE_V1.0.2/MSDK/lwip/lwip-2.1.2/port\wifi_netif.c ****         if (!netif_is_up(net_if))
 161:C:/Users/stapi/OneDrive/Desktop/GD32VW553/GD32VW55X_Wifi_BLE_SDK/GD32VW55x_RELEASE_V1.0.2/MSDK/lwip/lwip-2.1.2/port\wifi_netif.c ****             return (status);
 162:C:/Users/stapi/OneDrive/Desktop/GD32VW553/GD32VW55X_Wifi_BLE_SDK/GD32VW55x_RELEASE_V1.0.2/MSDK/lwip/lwip-2.1.2/port\wifi_netif.c **** 
 163:C:/Users/stapi/OneDrive/Desktop/GD32VW553/GD32VW55X_Wifi_BLE_SDK/GD32VW55x_RELEASE_V1.0.2/MSDK/lwip/lwip-2.1.2/port\wifi_netif.c ****         // Allocation of the new pbufs
 164:C:/Users/stapi/OneDrive/Desktop/GD32VW553/GD32VW55X_Wifi_BLE_SDK/GD32VW55x_RELEASE_V1.0.2/MSDK/lwip/lwip-2.1.2/port\wifi_netif.c ****         pbuf_head_new = pbuf_alloc(PBUF_RAW_TX, p_buf->len, PBUF_RAM);
 165:C:/Users/stapi/OneDrive/Desktop/GD32VW553/GD32VW55X_Wifi_BLE_SDK/GD32VW55x_RELEASE_V1.0.2/MSDK/lwip/lwip-2.1.2/port\wifi_netif.c ****         if (pbuf_head_new != NULL)
 166:C:/Users/stapi/OneDrive/Desktop/GD32VW553/GD32VW55X_Wifi_BLE_SDK/GD32VW55x_RELEASE_V1.0.2/MSDK/lwip/lwip-2.1.2/port\wifi_netif.c ****         {
 167:C:/Users/stapi/OneDrive/Desktop/GD32VW553/GD32VW55X_Wifi_BLE_SDK/GD32VW55x_RELEASE_V1.0.2/MSDK/lwip/lwip-2.1.2/port\wifi_netif.c ****             sys_memcpy(pbuf_head_new->payload, (uint8_t *)(p_buf->payload), p_buf->len);
 168:C:/Users/stapi/OneDrive/Desktop/GD32VW553/GD32VW55X_Wifi_BLE_SDK/GD32VW55x_RELEASE_V1.0.2/MSDK/lwip/lwip-2.1.2/port\wifi_netif.c ****             p = p_buf;
 169:C:/Users/stapi/OneDrive/Desktop/GD32VW553/GD32VW55X_Wifi_BLE_SDK/GD32VW55x_RELEASE_V1.0.2/MSDK/lwip/lwip-2.1.2/port\wifi_netif.c ****             while (p->next != NULL)
 170:C:/Users/stapi/OneDrive/Desktop/GD32VW553/GD32VW55X_Wifi_BLE_SDK/GD32VW55x_RELEASE_V1.0.2/MSDK/lwip/lwip-2.1.2/port\wifi_netif.c ****             {
 171:C:/Users/stapi/OneDrive/Desktop/GD32VW553/GD32VW55X_Wifi_BLE_SDK/GD32VW55x_RELEASE_V1.0.2/MSDK/lwip/lwip-2.1.2/port\wifi_netif.c ****                 p = p->next;
 172:C:/Users/stapi/OneDrive/Desktop/GD32VW553/GD32VW55X_Wifi_BLE_SDK/GD32VW55x_RELEASE_V1.0.2/MSDK/lwip/lwip-2.1.2/port\wifi_netif.c ****                 pbuf_new = pbuf_alloc(PBUF_RAW_TX, p->len, PBUF_RAM);
 173:C:/Users/stapi/OneDrive/Desktop/GD32VW553/GD32VW55X_Wifi_BLE_SDK/GD32VW55x_RELEASE_V1.0.2/MSDK/lwip/lwip-2.1.2/port\wifi_netif.c ****                 if (pbuf_new == NULL)
 174:C:/Users/stapi/OneDrive/Desktop/GD32VW553/GD32VW55X_Wifi_BLE_SDK/GD32VW55x_RELEASE_V1.0.2/MSDK/lwip/lwip-2.1.2/port\wifi_netif.c ****                 {
 175:C:/Users/stapi/OneDrive/Desktop/GD32VW553/GD32VW55X_Wifi_BLE_SDK/GD32VW55x_RELEASE_V1.0.2/MSDK/lwip/lwip-2.1.2/port\wifi_netif.c ****                     pbuf_free(pbuf_head_new);
 176:C:/Users/stapi/OneDrive/Desktop/GD32VW553/GD32VW55X_Wifi_BLE_SDK/GD32VW55x_RELEASE_V1.0.2/MSDK/lwip/lwip-2.1.2/port\wifi_netif.c ****                     return (status);
 177:C:/Users/stapi/OneDrive/Desktop/GD32VW553/GD32VW55X_Wifi_BLE_SDK/GD32VW55x_RELEASE_V1.0.2/MSDK/lwip/lwip-2.1.2/port\wifi_netif.c ****                 }
 178:C:/Users/stapi/OneDrive/Desktop/GD32VW553/GD32VW55X_Wifi_BLE_SDK/GD32VW55x_RELEASE_V1.0.2/MSDK/lwip/lwip-2.1.2/port\wifi_netif.c ****                 sys_memcpy(pbuf_new->payload, (uint8_t *)(p->payload), p->len);
 179:C:/Users/stapi/OneDrive/Desktop/GD32VW553/GD32VW55X_Wifi_BLE_SDK/GD32VW55x_RELEASE_V1.0.2/MSDK/lwip/lwip-2.1.2/port\wifi_netif.c ****                 pbuf_cat(pbuf_head_new, pbuf_new);
 180:C:/Users/stapi/OneDrive/Desktop/GD32VW553/GD32VW55X_Wifi_BLE_SDK/GD32VW55x_RELEASE_V1.0.2/MSDK/lwip/lwip-2.1.2/port\wifi_netif.c ****             }
 181:C:/Users/stapi/OneDrive/Desktop/GD32VW553/GD32VW55X_Wifi_BLE_SDK/GD32VW55x_RELEASE_V1.0.2/MSDK/lwip/lwip-2.1.2/port\wifi_netif.c ****         }
 182:C:/Users/stapi/OneDrive/Desktop/GD32VW553/GD32VW55X_Wifi_BLE_SDK/GD32VW55x_RELEASE_V1.0.2/MSDK/lwip/lwip-2.1.2/port\wifi_netif.c ****         else
 183:C:/Users/stapi/OneDrive/Desktop/GD32VW553/GD32VW55X_Wifi_BLE_SDK/GD32VW55x_RELEASE_V1.0.2/MSDK/lwip/lwip-2.1.2/port\wifi_netif.c ****         {
 184:C:/Users/stapi/OneDrive/Desktop/GD32VW553/GD32VW55X_Wifi_BLE_SDK/GD32VW55x_RELEASE_V1.0.2/MSDK/lwip/lwip-2.1.2/port\wifi_netif.c ****             return (status);
 185:C:/Users/stapi/OneDrive/Desktop/GD32VW553/GD32VW55X_Wifi_BLE_SDK/GD32VW55x_RELEASE_V1.0.2/MSDK/lwip/lwip-2.1.2/port\wifi_netif.c ****         }
 186:C:/Users/stapi/OneDrive/Desktop/GD32VW553/GD32VW55X_Wifi_BLE_SDK/GD32VW55x_RELEASE_V1.0.2/MSDK/lwip/lwip-2.1.2/port\wifi_netif.c **** 
 187:C:/Users/stapi/OneDrive/Desktop/GD32VW553/GD32VW55X_Wifi_BLE_SDK/GD32VW55x_RELEASE_V1.0.2/MSDK/lwip/lwip-2.1.2/port\wifi_netif.c ****         if (macif_tx_start(net_if, pbuf_head_new, NULL, NULL) != 0)
 188:C:/Users/stapi/OneDrive/Desktop/GD32VW553/GD32VW55X_Wifi_BLE_SDK/GD32VW55x_RELEASE_V1.0.2/MSDK/lwip/lwip-2.1.2/port\wifi_netif.c ****         {
 189:C:/Users/stapi/OneDrive/Desktop/GD32VW553/GD32VW55X_Wifi_BLE_SDK/GD32VW55x_RELEASE_V1.0.2/MSDK/lwip/lwip-2.1.2/port\wifi_netif.c ****             pbuf_free(pbuf_head_new);
 190:C:/Users/stapi/OneDrive/Desktop/GD32VW553/GD32VW55X_Wifi_BLE_SDK/GD32VW55x_RELEASE_V1.0.2/MSDK/lwip/lwip-2.1.2/port\wifi_netif.c ****             return (status);
 191:C:/Users/stapi/OneDrive/Desktop/GD32VW553/GD32VW55X_Wifi_BLE_SDK/GD32VW55x_RELEASE_V1.0.2/MSDK/lwip/lwip-2.1.2/port\wifi_netif.c ****         }
 192:C:/Users/stapi/OneDrive/Desktop/GD32VW553/GD32VW55X_Wifi_BLE_SDK/GD32VW55x_RELEASE_V1.0.2/MSDK/lwip/lwip-2.1.2/port\wifi_netif.c ****         status = ERR_OK;
 193:C:/Users/stapi/OneDrive/Desktop/GD32VW553/GD32VW55X_Wifi_BLE_SDK/GD32VW55x_RELEASE_V1.0.2/MSDK/lwip/lwip-2.1.2/port\wifi_netif.c ****     }
 194:C:/Users/stapi/OneDrive/Desktop/GD32VW553/GD32VW55X_Wifi_BLE_SDK/GD32VW55x_RELEASE_V1.0.2/MSDK/lwip/lwip-2.1.2/port\wifi_netif.c ****     else
 195:C:/Users/stapi/OneDrive/Desktop/GD32VW553/GD32VW55X_Wifi_BLE_SDK/GD32VW55x_RELEASE_V1.0.2/MSDK/lwip/lwip-2.1.2/port\wifi_netif.c **** #endif /* NET_UDP_REALLOC */
 196:C:/Users/stapi/OneDrive/Desktop/GD32VW553/GD32VW55X_Wifi_BLE_SDK/GD32VW55x_RELEASE_V1.0.2/MSDK/lwip/lwip-2.1.2/port\wifi_netif.c ****     {
 197:C:/Users/stapi/OneDrive/Desktop/GD32VW553/GD32VW55X_Wifi_BLE_SDK/GD32VW55x_RELEASE_V1.0.2/MSDK/lwip/lwip-2.1.2/port\wifi_netif.c ****         // Increase the ref count so that the buffer is not freed by the networking stack
 198:C:/Users/stapi/OneDrive/Desktop/GD32VW553/GD32VW55X_Wifi_BLE_SDK/GD32VW55x_RELEASE_V1.0.2/MSDK/lwip/lwip-2.1.2/port\wifi_netif.c ****         // until it is actually sent over the WiFi interface
 199:C:/Users/stapi/OneDrive/Desktop/GD32VW553/GD32VW55X_Wifi_BLE_SDK/GD32VW55x_RELEASE_V1.0.2/MSDK/lwip/lwip-2.1.2/port\wifi_netif.c ****         pbuf_ref(p_buf);
 200:C:/Users/stapi/OneDrive/Desktop/GD32VW553/GD32VW55X_Wifi_BLE_SDK/GD32VW55x_RELEASE_V1.0.2/MSDK/lwip/lwip-2.1.2/port\wifi_netif.c **** 
 201:C:/Users/stapi/OneDrive/Desktop/GD32VW553/GD32VW55X_Wifi_BLE_SDK/GD32VW55x_RELEASE_V1.0.2/MSDK/lwip/lwip-2.1.2/port\wifi_netif.c ****         // Push the buffer and verify the status
 202:C:/Users/stapi/OneDrive/Desktop/GD32VW553/GD32VW55X_Wifi_BLE_SDK/GD32VW55x_RELEASE_V1.0.2/MSDK/lwip/lwip-2.1.2/port\wifi_netif.c ****         if (netif_is_up(net_if) && macif_tx_start(net_if, p_buf, NULL, NULL) == 0)
 203:C:/Users/stapi/OneDrive/Desktop/GD32VW553/GD32VW55X_Wifi_BLE_SDK/GD32VW55x_RELEASE_V1.0.2/MSDK/lwip/lwip-2.1.2/port\wifi_netif.c ****         {
 204:C:/Users/stapi/OneDrive/Desktop/GD32VW553/GD32VW55X_Wifi_BLE_SDK/GD32VW55x_RELEASE_V1.0.2/MSDK/lwip/lwip-2.1.2/port\wifi_netif.c ****             status = ERR_OK;
 205:C:/Users/stapi/OneDrive/Desktop/GD32VW553/GD32VW55X_Wifi_BLE_SDK/GD32VW55x_RELEASE_V1.0.2/MSDK/lwip/lwip-2.1.2/port\wifi_netif.c ****         }
 206:C:/Users/stapi/OneDrive/Desktop/GD32VW553/GD32VW55X_Wifi_BLE_SDK/GD32VW55x_RELEASE_V1.0.2/MSDK/lwip/lwip-2.1.2/port\wifi_netif.c ****         else
 207:C:/Users/stapi/OneDrive/Desktop/GD32VW553/GD32VW55X_Wifi_BLE_SDK/GD32VW55x_RELEASE_V1.0.2/MSDK/lwip/lwip-2.1.2/port\wifi_netif.c ****         {
 208:C:/Users/stapi/OneDrive/Desktop/GD32VW553/GD32VW55X_Wifi_BLE_SDK/GD32VW55x_RELEASE_V1.0.2/MSDK/lwip/lwip-2.1.2/port\wifi_netif.c ****             // Failed to push message to TX task, call pbuf_free only to decrease ref count
 209:C:/Users/stapi/OneDrive/Desktop/GD32VW553/GD32VW55X_Wifi_BLE_SDK/GD32VW55x_RELEASE_V1.0.2/MSDK/lwip/lwip-2.1.2/port\wifi_netif.c ****             pbuf_free(p_buf);
 210:C:/Users/stapi/OneDrive/Desktop/GD32VW553/GD32VW55X_Wifi_BLE_SDK/GD32VW55x_RELEASE_V1.0.2/MSDK/lwip/lwip-2.1.2/port\wifi_netif.c ****         }
 211:C:/Users/stapi/OneDrive/Desktop/GD32VW553/GD32VW55X_Wifi_BLE_SDK/GD32VW55x_RELEASE_V1.0.2/MSDK/lwip/lwip-2.1.2/port\wifi_netif.c **** 
 212:C:/Users/stapi/OneDrive/Desktop/GD32VW553/GD32VW55X_Wifi_BLE_SDK/GD32VW55x_RELEASE_V1.0.2/MSDK/lwip/lwip-2.1.2/port\wifi_netif.c ****     }
 213:C:/Users/stapi/OneDrive/Desktop/GD32VW553/GD32VW55X_Wifi_BLE_SDK/GD32VW55x_RELEASE_V1.0.2/MSDK/lwip/lwip-2.1.2/port\wifi_netif.c **** 
 214:C:/Users/stapi/OneDrive/Desktop/GD32VW553/GD32VW55X_Wifi_BLE_SDK/GD32VW55x_RELEASE_V1.0.2/MSDK/lwip/lwip-2.1.2/port\wifi_netif.c ****     return (status);
 215:C:/Users/stapi/OneDrive/Desktop/GD32VW553/GD32VW55X_Wifi_BLE_SDK/GD32VW55x_RELEASE_V1.0.2/MSDK/lwip/lwip-2.1.2/port\wifi_netif.c **** }
 216:C:/Users/stapi/OneDrive/Desktop/GD32VW553/GD32VW55X_Wifi_BLE_SDK/GD32VW55x_RELEASE_V1.0.2/MSDK/lwip/lwip-2.1.2/port\wifi_netif.c **** 
 217:C:/Users/stapi/OneDrive/Desktop/GD32VW553/GD32VW55X_Wifi_BLE_SDK/GD32VW55x_RELEASE_V1.0.2/MSDK/lwip/lwip-2.1.2/port\wifi_netif.c **** /*!
 218:C:/Users/stapi/OneDrive/Desktop/GD32VW553/GD32VW55X_Wifi_BLE_SDK/GD32VW55x_RELEASE_V1.0.2/MSDK/lwip/lwip-2.1.2/port\wifi_netif.c ****     \brief      Callback used by the networking stack to setup the network interface.
 219:C:/Users/stapi/OneDrive/Desktop/GD32VW553/GD32VW55X_Wifi_BLE_SDK/GD32VW55x_RELEASE_V1.0.2/MSDK/lwip/lwip-2.1.2/port\wifi_netif.c ****                 This function should be passed as a parameter to netifapi_netif_add().
 220:C:/Users/stapi/OneDrive/Desktop/GD32VW553/GD32VW55X_Wifi_BLE_SDK/GD32VW55x_RELEASE_V1.0.2/MSDK/lwip/lwip-2.1.2/port\wifi_netif.c ****     \param[in]  net_if: Pointer to the network interface to setup
 221:C:/Users/stapi/OneDrive/Desktop/GD32VW553/GD32VW55X_Wifi_BLE_SDK/GD32VW55x_RELEASE_V1.0.2/MSDK/lwip/lwip-2.1.2/port\wifi_netif.c ****     \param[in]  p_buf: Pointer to the buffer to transmit
 222:C:/Users/stapi/OneDrive/Desktop/GD32VW553/GD32VW55X_Wifi_BLE_SDK/GD32VW55x_RELEASE_V1.0.2/MSDK/lwip/lwip-2.1.2/port\wifi_netif.c ****     \param[out] none
 223:C:/Users/stapi/OneDrive/Desktop/GD32VW553/GD32VW55X_Wifi_BLE_SDK/GD32VW55x_RELEASE_V1.0.2/MSDK/lwip/lwip-2.1.2/port\wifi_netif.c ****     \retval     ERR_OK upon successful setup of the interface, other status otherwise
 224:C:/Users/stapi/OneDrive/Desktop/GD32VW553/GD32VW55X_Wifi_BLE_SDK/GD32VW55x_RELEASE_V1.0.2/MSDK/lwip/lwip-2.1.2/port\wifi_netif.c **** */
 225:C:/Users/stapi/OneDrive/Desktop/GD32VW553/GD32VW55X_Wifi_BLE_SDK/GD32VW55x_RELEASE_V1.0.2/MSDK/lwip/lwip-2.1.2/port\wifi_netif.c **** static err_t net_if_init(struct netif *net_if)
 226:C:/Users/stapi/OneDrive/Desktop/GD32VW553/GD32VW55X_Wifi_BLE_SDK/GD32VW55x_RELEASE_V1.0.2/MSDK/lwip/lwip-2.1.2/port\wifi_netif.c **** {
  15              		.loc 1 226 1
  16              		.cfi_startproc
  17              	.LVL0:
 227:C:/Users/stapi/OneDrive/Desktop/GD32VW553/GD32VW55X_Wifi_BLE_SDK/GD32VW55x_RELEASE_V1.0.2/MSDK/lwip/lwip-2.1.2/port\wifi_netif.c ****     err_t status = ERR_OK;
  18              		.loc 1 227 5
 228:C:/Users/stapi/OneDrive/Desktop/GD32VW553/GD32VW55X_Wifi_BLE_SDK/GD32VW55x_RELEASE_V1.0.2/MSDK/lwip/lwip-2.1.2/port\wifi_netif.c **** 
 229:C:/Users/stapi/OneDrive/Desktop/GD32VW553/GD32VW55X_Wifi_BLE_SDK/GD32VW55x_RELEASE_V1.0.2/MSDK/lwip/lwip-2.1.2/port\wifi_netif.c ****     #if LWIP_NETIF_HOSTNAME
 230:C:/Users/stapi/OneDrive/Desktop/GD32VW553/GD32VW55X_Wifi_BLE_SDK/GD32VW55x_RELEASE_V1.0.2/MSDK/lwip/lwip-2.1.2/port\wifi_netif.c ****     {
 231:C:/Users/stapi/OneDrive/Desktop/GD32VW553/GD32VW55X_Wifi_BLE_SDK/GD32VW55x_RELEASE_V1.0.2/MSDK/lwip/lwip-2.1.2/port\wifi_netif.c ****         /* Initialize interface hostname */
 232:C:/Users/stapi/OneDrive/Desktop/GD32VW553/GD32VW55X_Wifi_BLE_SDK/GD32VW55x_RELEASE_V1.0.2/MSDK/lwip/lwip-2.1.2/port\wifi_netif.c ****         net_if->hostname = "wlan";
 233:C:/Users/stapi/OneDrive/Desktop/GD32VW553/GD32VW55X_Wifi_BLE_SDK/GD32VW55x_RELEASE_V1.0.2/MSDK/lwip/lwip-2.1.2/port\wifi_netif.c ****     }
 234:C:/Users/stapi/OneDrive/Desktop/GD32VW553/GD32VW55X_Wifi_BLE_SDK/GD32VW55x_RELEASE_V1.0.2/MSDK/lwip/lwip-2.1.2/port\wifi_netif.c ****     #endif /* LWIP_NETIF_HOSTNAME */
 235:C:/Users/stapi/OneDrive/Desktop/GD32VW553/GD32VW55X_Wifi_BLE_SDK/GD32VW55x_RELEASE_V1.0.2/MSDK/lwip/lwip-2.1.2/port\wifi_netif.c **** 
 236:C:/Users/stapi/OneDrive/Desktop/GD32VW553/GD32VW55X_Wifi_BLE_SDK/GD32VW55x_RELEASE_V1.0.2/MSDK/lwip/lwip-2.1.2/port\wifi_netif.c ****     net_if->name[ 0 ] = 'w';
  19              		.loc 1 236 5
 237:C:/Users/stapi/OneDrive/Desktop/GD32VW553/GD32VW55X_Wifi_BLE_SDK/GD32VW55x_RELEASE_V1.0.2/MSDK/lwip/lwip-2.1.2/port\wifi_netif.c ****     net_if->name[ 1 ] = 'l';
  20              		.loc 1 237 5
 238:C:/Users/stapi/OneDrive/Desktop/GD32VW553/GD32VW55X_Wifi_BLE_SDK/GD32VW55x_RELEASE_V1.0.2/MSDK/lwip/lwip-2.1.2/port\wifi_netif.c **** 
 239:C:/Users/stapi/OneDrive/Desktop/GD32VW553/GD32VW55X_Wifi_BLE_SDK/GD32VW55x_RELEASE_V1.0.2/MSDK/lwip/lwip-2.1.2/port\wifi_netif.c ****     net_if->output = etharp_output;
  21              		.loc 1 239 5
  22              		.loc 1 239 20 is_stmt 0
  23 0000 B7070000 		lui	a5,%hi(etharp_output)
  24 0004 93870700 		addi	a5,a5,%lo(etharp_output)
  25 0008 5CC9     		sw	a5,20(a0)
 240:C:/Users/stapi/OneDrive/Desktop/GD32VW553/GD32VW55X_Wifi_BLE_SDK/GD32VW55x_RELEASE_V1.0.2/MSDK/lwip/lwip-2.1.2/port\wifi_netif.c ****     net_if->flags = NETIF_FLAG_BROADCAST | NETIF_FLAG_ETHARP | NETIF_FLAG_LINK_UP;
  26              		.loc 1 240 5 is_stmt 1
 241:C:/Users/stapi/OneDrive/Desktop/GD32VW553/GD32VW55X_Wifi_BLE_SDK/GD32VW55x_RELEASE_V1.0.2/MSDK/lwip/lwip-2.1.2/port\wifi_netif.c **** 
 242:C:/Users/stapi/OneDrive/Desktop/GD32VW553/GD32VW55X_Wifi_BLE_SDK/GD32VW55x_RELEASE_V1.0.2/MSDK/lwip/lwip-2.1.2/port\wifi_netif.c ****     #if LWIP_IGMP
 243:C:/Users/stapi/OneDrive/Desktop/GD32VW553/GD32VW55X_Wifi_BLE_SDK/GD32VW55x_RELEASE_V1.0.2/MSDK/lwip/lwip-2.1.2/port\wifi_netif.c ****     net_if->flags |= NETIF_FLAG_IGMP;
  27              		.loc 1 243 5
 244:C:/Users/stapi/OneDrive/Desktop/GD32VW553/GD32VW55X_Wifi_BLE_SDK/GD32VW55x_RELEASE_V1.0.2/MSDK/lwip/lwip-2.1.2/port\wifi_netif.c ****     #endif
 245:C:/Users/stapi/OneDrive/Desktop/GD32VW553/GD32VW55X_Wifi_BLE_SDK/GD32VW55x_RELEASE_V1.0.2/MSDK/lwip/lwip-2.1.2/port\wifi_netif.c ****     net_if->hwaddr_len = ETHARP_HWADDR_LEN;
  28              		.loc 1 245 5
  29              		.loc 1 245 24 is_stmt 0
  30 000a B737776C 		li	a5,1819750400
  31 000e 938767E0 		addi	a5,a5,-506
  32 0012 1CD9     		sw	a5,48(a0)
 246:C:/Users/stapi/OneDrive/Desktop/GD32VW553/GD32VW55X_Wifi_BLE_SDK/GD32VW55x_RELEASE_V1.0.2/MSDK/lwip/lwip-2.1.2/port\wifi_netif.c ****     // hwaddr is updated in net_if_add
 247:C:/Users/stapi/OneDrive/Desktop/GD32VW553/GD32VW55X_Wifi_BLE_SDK/GD32VW55x_RELEASE_V1.0.2/MSDK/lwip/lwip-2.1.2/port\wifi_netif.c ****     net_if->mtu = ETHERNET_MTU;
  33              		.loc 1 247 5 is_stmt 1
  34              		.loc 1 247 17 is_stmt 0
  35 0014 9307C05D 		li	a5,1500
  36 0018 2314F502 		sh	a5,40(a0)
 248:C:/Users/stapi/OneDrive/Desktop/GD32VW553/GD32VW55X_Wifi_BLE_SDK/GD32VW55x_RELEASE_V1.0.2/MSDK/lwip/lwip-2.1.2/port\wifi_netif.c ****     net_if->linkoutput = net_if_output;
  37              		.loc 1 248 5 is_stmt 1
  38              		.loc 1 248 24 is_stmt 0
  39 001c B7070000 		lui	a5,%hi(net_if_output)
  40 0020 93870700 		addi	a5,a5,%lo(net_if_output)
  41 0024 1CCD     		sw	a5,24(a0)
 249:C:/Users/stapi/OneDrive/Desktop/GD32VW553/GD32VW55X_Wifi_BLE_SDK/GD32VW55x_RELEASE_V1.0.2/MSDK/lwip/lwip-2.1.2/port\wifi_netif.c **** #if LWIP_IPV6
 250:C:/Users/stapi/OneDrive/Desktop/GD32VW553/GD32VW55X_Wifi_BLE_SDK/GD32VW55x_RELEASE_V1.0.2/MSDK/lwip/lwip-2.1.2/port\wifi_netif.c ****     #if LWIP_IPV6_MLD
 251:C:/Users/stapi/OneDrive/Desktop/GD32VW553/GD32VW55X_Wifi_BLE_SDK/GD32VW55x_RELEASE_V1.0.2/MSDK/lwip/lwip-2.1.2/port\wifi_netif.c ****     net_if->flags |= NETIF_FLAG_MLD6;
 252:C:/Users/stapi/OneDrive/Desktop/GD32VW553/GD32VW55X_Wifi_BLE_SDK/GD32VW55x_RELEASE_V1.0.2/MSDK/lwip/lwip-2.1.2/port\wifi_netif.c ****     #endif
 253:C:/Users/stapi/OneDrive/Desktop/GD32VW553/GD32VW55X_Wifi_BLE_SDK/GD32VW55x_RELEASE_V1.0.2/MSDK/lwip/lwip-2.1.2/port\wifi_netif.c ****     net_if->output_ip6 = ethip6_output;
 254:C:/Users/stapi/OneDrive/Desktop/GD32VW553/GD32VW55X_Wifi_BLE_SDK/GD32VW55x_RELEASE_V1.0.2/MSDK/lwip/lwip-2.1.2/port\wifi_netif.c **** #endif
 255:C:/Users/stapi/OneDrive/Desktop/GD32VW553/GD32VW55X_Wifi_BLE_SDK/GD32VW55x_RELEASE_V1.0.2/MSDK/lwip/lwip-2.1.2/port\wifi_netif.c ****     return status;
  42              		.loc 1 255 5 is_stmt 1
 256:C:/Users/stapi/OneDrive/Desktop/GD32VW553/GD32VW55X_Wifi_BLE_SDK/GD32VW55x_RELEASE_V1.0.2/MSDK/lwip/lwip-2.1.2/port\wifi_netif.c **** }
  43              		.loc 1 256 1 is_stmt 0
  44 0026 0145     		li	a0,0
  45              	.LVL1:
  46 0028 8280     		ret
  47              		.cfi_endproc
  48              	.LFE17:
  50              		.section	.text.net_if_output,"ax",@progbits
  51              		.align	1
  53              	net_if_output:
  54              	.LFB16:
 152:C:/Users/stapi/OneDrive/Desktop/GD32VW553/GD32VW55X_Wifi_BLE_SDK/GD32VW55x_RELEASE_V1.0.2/MSDK/lwip/lwip-2.1.2/port\wifi_netif.c ****     err_t status = ERR_BUF;
  55              		.loc 1 152 1 is_stmt 1
  56              		.cfi_startproc
  57              	.LVL2:
  58 0000 17030000 		call	t0,__riscv_save_4
  58      E7020300 
  59              		.cfi_offset 19, -20
  60              		.cfi_offset 18, -16
  61              		.cfi_offset 9, -12
  62              		.cfi_offset 8, -8
  63              		.cfi_offset 1, -4
  64              		.cfi_def_cfa_offset 32
 153:C:/Users/stapi/OneDrive/Desktop/GD32VW553/GD32VW55X_Wifi_BLE_SDK/GD32VW55x_RELEASE_V1.0.2/MSDK/lwip/lwip-2.1.2/port\wifi_netif.c **** 
  65              		.loc 1 153 5
  66              	.LVL3:
 156:C:/Users/stapi/OneDrive/Desktop/GD32VW553/GD32VW55X_Wifi_BLE_SDK/GD32VW55x_RELEASE_V1.0.2/MSDK/lwip/lwip-2.1.2/port\wifi_netif.c **** 
  67              		.loc 1 156 5
 158:C:/Users/stapi/OneDrive/Desktop/GD32VW553/GD32VW55X_Wifi_BLE_SDK/GD32VW55x_RELEASE_V1.0.2/MSDK/lwip/lwip-2.1.2/port\wifi_netif.c ****     {
  68              		.loc 1 158 5
  69              	.LBB4:
  70              	.LBB5:
 103:C:/Users/stapi/OneDrive/Desktop/GD32VW553/GD32VW55X_Wifi_BLE_SDK/GD32VW55x_RELEASE_V1.0.2/MSDK/lwip/lwip-2.1.2/port\wifi_netif.c ****     uint8_t proto;
  71              		.loc 1 103 5
 104:C:/Users/stapi/OneDrive/Desktop/GD32VW553/GD32VW55X_Wifi_BLE_SDK/GD32VW55x_RELEASE_V1.0.2/MSDK/lwip/lwip-2.1.2/port\wifi_netif.c ****     uint16_t port;
  72              		.loc 1 104 5
 105:C:/Users/stapi/OneDrive/Desktop/GD32VW553/GD32VW55X_Wifi_BLE_SDK/GD32VW55x_RELEASE_V1.0.2/MSDK/lwip/lwip-2.1.2/port\wifi_netif.c **** 
  73              		.loc 1 105 5
 107:C:/Users/stapi/OneDrive/Desktop/GD32VW553/GD32VW55X_Wifi_BLE_SDK/GD32VW55x_RELEASE_V1.0.2/MSDK/lwip/lwip-2.1.2/port\wifi_netif.c ****         return 0;
  74              		.loc 1 107 5
 107:C:/Users/stapi/OneDrive/Desktop/GD32VW553/GD32VW55X_Wifi_BLE_SDK/GD32VW55x_RELEASE_V1.0.2/MSDK/lwip/lwip-2.1.2/port\wifi_netif.c ****         return 0;
  75              		.loc 1 107 8 is_stmt 0
  76 0008 83C7D500 		lbu	a5,13(a1)
  77              	.LBE5:
  78              	.LBE4:
 152:C:/Users/stapi/OneDrive/Desktop/GD32VW553/GD32VW55X_Wifi_BLE_SDK/GD32VW55x_RELEASE_V1.0.2/MSDK/lwip/lwip-2.1.2/port\wifi_netif.c ****     err_t status = ERR_BUF;
  79              		.loc 1 152 1
  80 000c 2A89     		mv	s2,a0
  81 000e 2E84     		mv	s0,a1
  82              	.LBB7:
  83              	.LBB6:
 107:C:/Users/stapi/OneDrive/Desktop/GD32VW553/GD32VW55X_Wifi_BLE_SDK/GD32VW55x_RELEASE_V1.0.2/MSDK/lwip/lwip-2.1.2/port\wifi_netif.c ****         return 0;
  84              		.loc 1 107 8
  85 0010 898B     		andi	a5,a5,2
  86 0012 FDE3     		bne	a5,zero,.L3
 110:C:/Users/stapi/OneDrive/Desktop/GD32VW553/GD32VW55X_Wifi_BLE_SDK/GD32VW55x_RELEASE_V1.0.2/MSDK/lwip/lwip-2.1.2/port\wifi_netif.c ****     // printf("eth_type = %x\r\n", eth_type);
  87              		.loc 1 110 5 is_stmt 1
 110:C:/Users/stapi/OneDrive/Desktop/GD32VW553/GD32VW55X_Wifi_BLE_SDK/GD32VW55x_RELEASE_V1.0.2/MSDK/lwip/lwip-2.1.2/port\wifi_netif.c ****     // printf("eth_type = %x\r\n", eth_type);
  88              		.loc 1 110 39 is_stmt 0
  89 0014 DC41     		lw	a5,4(a1)
  90              	.LVL4:
 115:C:/Users/stapi/OneDrive/Desktop/GD32VW553/GD32VW55X_Wifi_BLE_SDK/GD32VW55x_RELEASE_V1.0.2/MSDK/lwip/lwip-2.1.2/port\wifi_netif.c **** #endif
  91              		.loc 1 115 5 is_stmt 1
 110:C:/Users/stapi/OneDrive/Desktop/GD32VW553/GD32VW55X_Wifi_BLE_SDK/GD32VW55x_RELEASE_V1.0.2/MSDK/lwip/lwip-2.1.2/port\wifi_netif.c ****     // printf("eth_type = %x\r\n", eth_type);
  92              		.loc 1 110 14 is_stmt 0
  93 0016 03C7D700 		lbu	a4,13(a5)
  94 001a 83C6C700 		lbu	a3,12(a5)
  95 001e 2207     		slli	a4,a4,8
 115:C:/Users/stapi/OneDrive/Desktop/GD32VW553/GD32VW55X_Wifi_BLE_SDK/GD32VW55x_RELEASE_V1.0.2/MSDK/lwip/lwip-2.1.2/port\wifi_netif.c **** #endif
  96              		.loc 1 115 8
  97 0020 558F     		or	a4,a4,a3
  98 0022 A146     		li	a3,8
  99 0024 631AD70C 		bne	a4,a3,.L3
 124:C:/Users/stapi/OneDrive/Desktop/GD32VW553/GD32VW55X_Wifi_BLE_SDK/GD32VW55x_RELEASE_V1.0.2/MSDK/lwip/lwip-2.1.2/port\wifi_netif.c ****     // printf("proto = %x\r\n", proto);
 100              		.loc 1 124 9 is_stmt 1
 101              	.LVL5:
 126:C:/Users/stapi/OneDrive/Desktop/GD32VW553/GD32VW55X_Wifi_BLE_SDK/GD32VW55x_RELEASE_V1.0.2/MSDK/lwip/lwip-2.1.2/port\wifi_netif.c ****         return 0;
 102              		.loc 1 126 5
 126:C:/Users/stapi/OneDrive/Desktop/GD32VW553/GD32VW55X_Wifi_BLE_SDK/GD32VW55x_RELEASE_V1.0.2/MSDK/lwip/lwip-2.1.2/port\wifi_netif.c ****         return 0;
 103              		.loc 1 126 8 is_stmt 0
 104 0028 83C67701 		lbu	a3,23(a5)
 105 002c 4547     		li	a4,17
 106 002e 6395E60C 		bne	a3,a4,.L3
 134:C:/Users/stapi/OneDrive/Desktop/GD32VW553/GD32VW55X_Wifi_BLE_SDK/GD32VW55x_RELEASE_V1.0.2/MSDK/lwip/lwip-2.1.2/port\wifi_netif.c ****     // printf("port = %x\r\n", lwip_ntohs(port));
 107              		.loc 1 134 9 is_stmt 1
 134:C:/Users/stapi/OneDrive/Desktop/GD32VW553/GD32VW55X_Wifi_BLE_SDK/GD32VW55x_RELEASE_V1.0.2/MSDK/lwip/lwip-2.1.2/port\wifi_netif.c ****     // printf("port = %x\r\n", lwip_ntohs(port));
 108              		.loc 1 134 14 is_stmt 0
 109 0032 83C43702 		lbu	s1,35(a5)
 110 0036 03C72702 		lbu	a4,34(a5)
 111 003a A204     		slli	s1,s1,8
 112 003c D98C     		or	s1,s1,a4
 113              	.LVL6:
 136:C:/Users/stapi/OneDrive/Desktop/GD32VW553/GD32VW55X_Wifi_BLE_SDK/GD32VW55x_RELEASE_V1.0.2/MSDK/lwip/lwip-2.1.2/port\wifi_netif.c ****         return 0;
 114              		.loc 1 136 5 is_stmt 1
 136:C:/Users/stapi/OneDrive/Desktop/GD32VW553/GD32VW55X_Wifi_BLE_SDK/GD32VW55x_RELEASE_V1.0.2/MSDK/lwip/lwip-2.1.2/port\wifi_netif.c ****         return 0;
 115              		.loc 1 136 9 is_stmt 0
 116 003e 2685     		mv	a0,s1
 117              	.LVL7:
 118 0040 97000000 		call	lwip_htons
 118      E7800000 
 119              	.LVL8:
 136:C:/Users/stapi/OneDrive/Desktop/GD32VW553/GD32VW55X_Wifi_BLE_SDK/GD32VW55x_RELEASE_V1.0.2/MSDK/lwip/lwip-2.1.2/port\wifi_netif.c ****         return 0;
 120              		.loc 1 136 8
 121 0048 93073004 		li	a5,67
 122 004c 6306F50A 		beq	a0,a5,.L3
 136:C:/Users/stapi/OneDrive/Desktop/GD32VW553/GD32VW55X_Wifi_BLE_SDK/GD32VW55x_RELEASE_V1.0.2/MSDK/lwip/lwip-2.1.2/port\wifi_netif.c ****         return 0;
 123              		.loc 1 136 37
 124 0050 2685     		mv	a0,s1
 125 0052 97000000 		call	lwip_htons
 125      E7800000 
 126              	.LVL9:
 136:C:/Users/stapi/OneDrive/Desktop/GD32VW553/GD32VW55X_Wifi_BLE_SDK/GD32VW55x_RELEASE_V1.0.2/MSDK/lwip/lwip-2.1.2/port\wifi_netif.c ****         return 0;
 127              		.loc 1 136 34
 128 005a 93074004 		li	a5,68
 129 005e 630DF508 		beq	a0,a5,.L3
 130              	.LVL10:
 131              	.LBE6:
 132              	.LBE7:
 160:C:/Users/stapi/OneDrive/Desktop/GD32VW553/GD32VW55X_Wifi_BLE_SDK/GD32VW55x_RELEASE_V1.0.2/MSDK/lwip/lwip-2.1.2/port\wifi_netif.c ****             return (status);
 133              		.loc 1 160 9 is_stmt 1
 160:C:/Users/stapi/OneDrive/Desktop/GD32VW553/GD32VW55X_Wifi_BLE_SDK/GD32VW55x_RELEASE_V1.0.2/MSDK/lwip/lwip-2.1.2/port\wifi_netif.c ****             return (status);
 134              		.loc 1 160 12 is_stmt 0
 135 0062 83471903 		lbu	a5,49(s2)
 136 0066 858B     		andi	a5,a5,1
 137 0068 99E3     		bne	a5,zero,.L4
 138              	.LVL11:
 139              	.L22:
 153:C:/Users/stapi/OneDrive/Desktop/GD32VW553/GD32VW55X_Wifi_BLE_SDK/GD32VW55x_RELEASE_V1.0.2/MSDK/lwip/lwip-2.1.2/port\wifi_netif.c **** 
 140              		.loc 1 153 11
 141 006a 7955     		li	a0,-2
 142 006c 89A0     		j	.L5
 143              	.LVL12:
 144              	.L4:
 164:C:/Users/stapi/OneDrive/Desktop/GD32VW553/GD32VW55X_Wifi_BLE_SDK/GD32VW55x_RELEASE_V1.0.2/MSDK/lwip/lwip-2.1.2/port\wifi_netif.c ****         if (pbuf_head_new != NULL)
 145              		.loc 1 164 9 is_stmt 1
 164:C:/Users/stapi/OneDrive/Desktop/GD32VW553/GD32VW55X_Wifi_BLE_SDK/GD32VW55x_RELEASE_V1.0.2/MSDK/lwip/lwip-2.1.2/port\wifi_netif.c ****         if (pbuf_head_new != NULL)
 146              		.loc 1 164 25 is_stmt 0
 147 006e 8355A400 		lhu	a1,10(s0)
 148 0072 13060028 		li	a2,640
 149 0076 1305C015 		li	a0,348
 150 007a 97000000 		call	pbuf_alloc
 150      E7800000 
 151              	.LVL13:
 152 0082 AA84     		mv	s1,a0
 153              	.LVL14:
 165:C:/Users/stapi/OneDrive/Desktop/GD32VW553/GD32VW55X_Wifi_BLE_SDK/GD32VW55x_RELEASE_V1.0.2/MSDK/lwip/lwip-2.1.2/port\wifi_netif.c ****         {
 154              		.loc 1 165 9 is_stmt 1
 165:C:/Users/stapi/OneDrive/Desktop/GD32VW553/GD32VW55X_Wifi_BLE_SDK/GD32VW55x_RELEASE_V1.0.2/MSDK/lwip/lwip-2.1.2/port\wifi_netif.c ****         {
 155              		.loc 1 165 12 is_stmt 0
 156 0084 7DD1     		beq	a0,zero,.L22
 167:C:/Users/stapi/OneDrive/Desktop/GD32VW553/GD32VW55X_Wifi_BLE_SDK/GD32VW55x_RELEASE_V1.0.2/MSDK/lwip/lwip-2.1.2/port\wifi_netif.c ****             p = p_buf;
 157              		.loc 1 167 13 is_stmt 1
 158 0086 0356A400 		lhu	a2,10(s0)
 159 008a 4C40     		lw	a1,4(s0)
 160 008c 4841     		lw	a0,4(a0)
 161 008e 97000000 		call	sys_memcpy
 161      E7800000 
 162              	.LVL15:
 168:C:/Users/stapi/OneDrive/Desktop/GD32VW553/GD32VW55X_Wifi_BLE_SDK/GD32VW55x_RELEASE_V1.0.2/MSDK/lwip/lwip-2.1.2/port\wifi_netif.c ****             while (p->next != NULL)
 163              		.loc 1 168 13
 169:C:/Users/stapi/OneDrive/Desktop/GD32VW553/GD32VW55X_Wifi_BLE_SDK/GD32VW55x_RELEASE_V1.0.2/MSDK/lwip/lwip-2.1.2/port\wifi_netif.c ****             {
 164              		.loc 1 169 13
 165              	.L7:
 169:C:/Users/stapi/OneDrive/Desktop/GD32VW553/GD32VW55X_Wifi_BLE_SDK/GD32VW55x_RELEASE_V1.0.2/MSDK/lwip/lwip-2.1.2/port\wifi_netif.c ****             {
 166              		.loc 1 169 19
 169:C:/Users/stapi/OneDrive/Desktop/GD32VW553/GD32VW55X_Wifi_BLE_SDK/GD32VW55x_RELEASE_V1.0.2/MSDK/lwip/lwip-2.1.2/port\wifi_netif.c ****             {
 167              		.loc 1 169 21 is_stmt 0
 168 0096 0040     		lw	s0,0(s0)
 169              	.LVL16:
 169:C:/Users/stapi/OneDrive/Desktop/GD32VW553/GD32VW55X_Wifi_BLE_SDK/GD32VW55x_RELEASE_V1.0.2/MSDK/lwip/lwip-2.1.2/port\wifi_netif.c ****             {
 170              		.loc 1 169 19
 171 0098 19EC     		bne	s0,zero,.L9
 187:C:/Users/stapi/OneDrive/Desktop/GD32VW553/GD32VW55X_Wifi_BLE_SDK/GD32VW55x_RELEASE_V1.0.2/MSDK/lwip/lwip-2.1.2/port\wifi_netif.c ****         {
 172              		.loc 1 187 9 is_stmt 1
 187:C:/Users/stapi/OneDrive/Desktop/GD32VW553/GD32VW55X_Wifi_BLE_SDK/GD32VW55x_RELEASE_V1.0.2/MSDK/lwip/lwip-2.1.2/port\wifi_netif.c ****         {
 173              		.loc 1 187 13 is_stmt 0
 174 009a 8146     		li	a3,0
 175 009c 0146     		li	a2,0
 176 009e A685     		mv	a1,s1
 177 00a0 4A85     		mv	a0,s2
 178 00a2 97000000 		call	macif_tx_start
 178      E7800000 
 179              	.LVL17:
 187:C:/Users/stapi/OneDrive/Desktop/GD32VW553/GD32VW55X_Wifi_BLE_SDK/GD32VW55x_RELEASE_V1.0.2/MSDK/lwip/lwip-2.1.2/port\wifi_netif.c ****         {
 180              		.loc 1 187 12
 181 00aa 15E1     		bne	a0,zero,.L10
 182              	.LVL18:
 183              	.L12:
 192:C:/Users/stapi/OneDrive/Desktop/GD32VW553/GD32VW55X_Wifi_BLE_SDK/GD32VW55x_RELEASE_V1.0.2/MSDK/lwip/lwip-2.1.2/port\wifi_netif.c ****     }
 184              		.loc 1 192 16
 185 00ac 0145     		li	a0,0
 186              	.L5:
 187              	.LVL19:
 215:C:/Users/stapi/OneDrive/Desktop/GD32VW553/GD32VW55X_Wifi_BLE_SDK/GD32VW55x_RELEASE_V1.0.2/MSDK/lwip/lwip-2.1.2/port\wifi_netif.c **** 
 188              		.loc 1 215 1
 189 00ae 17030000 		tail	__riscv_restore_4
 189      67000300 
 190              		.cfi_remember_state
 191              		.cfi_restore 19
 192              		.cfi_restore 18
 193              		.cfi_restore 9
 194              		.cfi_restore 8
 195              		.cfi_restore 1
 196              		.cfi_def_cfa_offset 0
 197              	.LVL20:
 198              	.L9:
 199              		.cfi_restore_state
 171:C:/Users/stapi/OneDrive/Desktop/GD32VW553/GD32VW55X_Wifi_BLE_SDK/GD32VW55x_RELEASE_V1.0.2/MSDK/lwip/lwip-2.1.2/port\wifi_netif.c ****                 pbuf_new = pbuf_alloc(PBUF_RAW_TX, p->len, PBUF_RAM);
 200              		.loc 1 171 17 is_stmt 1
 172:C:/Users/stapi/OneDrive/Desktop/GD32VW553/GD32VW55X_Wifi_BLE_SDK/GD32VW55x_RELEASE_V1.0.2/MSDK/lwip/lwip-2.1.2/port\wifi_netif.c ****                 if (pbuf_new == NULL)
 201              		.loc 1 172 17
 172:C:/Users/stapi/OneDrive/Desktop/GD32VW553/GD32VW55X_Wifi_BLE_SDK/GD32VW55x_RELEASE_V1.0.2/MSDK/lwip/lwip-2.1.2/port\wifi_netif.c ****                 if (pbuf_new == NULL)
 202              		.loc 1 172 28 is_stmt 0
 203 00b6 8355A400 		lhu	a1,10(s0)
 204 00ba 13060028 		li	a2,640
 205 00be 1305C015 		li	a0,348
 206 00c2 97000000 		call	pbuf_alloc
 206      E7800000 
 207              	.LVL21:
 208 00ca AA89     		mv	s3,a0
 209              	.LVL22:
 173:C:/Users/stapi/OneDrive/Desktop/GD32VW553/GD32VW55X_Wifi_BLE_SDK/GD32VW55x_RELEASE_V1.0.2/MSDK/lwip/lwip-2.1.2/port\wifi_netif.c ****                 {
 210              		.loc 1 173 17 is_stmt 1
 173:C:/Users/stapi/OneDrive/Desktop/GD32VW553/GD32VW55X_Wifi_BLE_SDK/GD32VW55x_RELEASE_V1.0.2/MSDK/lwip/lwip-2.1.2/port\wifi_netif.c ****                 {
 211              		.loc 1 173 20 is_stmt 0
 212 00cc 19E5     		bne	a0,zero,.L8
 213              	.LVL23:
 214              	.L10:
 189:C:/Users/stapi/OneDrive/Desktop/GD32VW553/GD32VW55X_Wifi_BLE_SDK/GD32VW55x_RELEASE_V1.0.2/MSDK/lwip/lwip-2.1.2/port\wifi_netif.c ****             return (status);
 215              		.loc 1 189 13 is_stmt 1
 216 00ce 2685     		mv	a0,s1
 217              	.LVL24:
 218              	.L21:
 209:C:/Users/stapi/OneDrive/Desktop/GD32VW553/GD32VW55X_Wifi_BLE_SDK/GD32VW55x_RELEASE_V1.0.2/MSDK/lwip/lwip-2.1.2/port\wifi_netif.c ****         }
 219              		.loc 1 209 13 is_stmt 0
 220 00d0 97000000 		call	pbuf_free
 220      E7800000 
 221              	.LVL25:
 222 00d8 49BF     		j	.L22
 223              	.LVL26:
 224              	.L8:
 178:C:/Users/stapi/OneDrive/Desktop/GD32VW553/GD32VW55X_Wifi_BLE_SDK/GD32VW55x_RELEASE_V1.0.2/MSDK/lwip/lwip-2.1.2/port\wifi_netif.c ****                 pbuf_cat(pbuf_head_new, pbuf_new);
 225              		.loc 1 178 17 is_stmt 1
 226 00da 4C40     		lw	a1,4(s0)
 227 00dc 0356A400 		lhu	a2,10(s0)
 228 00e0 4841     		lw	a0,4(a0)
 229              	.LVL27:
 230 00e2 97000000 		call	sys_memcpy
 230      E7800000 
 231              	.LVL28:
 179:C:/Users/stapi/OneDrive/Desktop/GD32VW553/GD32VW55X_Wifi_BLE_SDK/GD32VW55x_RELEASE_V1.0.2/MSDK/lwip/lwip-2.1.2/port\wifi_netif.c ****             }
 232              		.loc 1 179 17
 233 00ea CE85     		mv	a1,s3
 234 00ec 2685     		mv	a0,s1
 235 00ee 97000000 		call	pbuf_cat
 235      E7800000 
 236              	.LVL29:
 237 00f6 45B7     		j	.L7
 238              	.LVL30:
 239              	.L3:
 199:C:/Users/stapi/OneDrive/Desktop/GD32VW553/GD32VW55X_Wifi_BLE_SDK/GD32VW55x_RELEASE_V1.0.2/MSDK/lwip/lwip-2.1.2/port\wifi_netif.c **** 
 240              		.loc 1 199 9
 241 00f8 2285     		mv	a0,s0
 242 00fa 97000000 		call	pbuf_ref
 242      E7800000 
 243              	.LVL31:
 202:C:/Users/stapi/OneDrive/Desktop/GD32VW553/GD32VW55X_Wifi_BLE_SDK/GD32VW55x_RELEASE_V1.0.2/MSDK/lwip/lwip-2.1.2/port\wifi_netif.c ****         {
 244              		.loc 1 202 9
 202:C:/Users/stapi/OneDrive/Desktop/GD32VW553/GD32VW55X_Wifi_BLE_SDK/GD32VW55x_RELEASE_V1.0.2/MSDK/lwip/lwip-2.1.2/port\wifi_netif.c ****         {
 245              		.loc 1 202 33 is_stmt 0
 246 0102 83471903 		lbu	a5,49(s2)
 202:C:/Users/stapi/OneDrive/Desktop/GD32VW553/GD32VW55X_Wifi_BLE_SDK/GD32VW55x_RELEASE_V1.0.2/MSDK/lwip/lwip-2.1.2/port\wifi_netif.c ****         {
 247              		.loc 1 202 12
 248 0106 858B     		andi	a5,a5,1
 249 0108 99E3     		bne	a5,zero,.L11
 250              	.L13:
 209:C:/Users/stapi/OneDrive/Desktop/GD32VW553/GD32VW55X_Wifi_BLE_SDK/GD32VW55x_RELEASE_V1.0.2/MSDK/lwip/lwip-2.1.2/port\wifi_netif.c ****         }
 251              		.loc 1 209 13 is_stmt 1
 252 010a 2285     		mv	a0,s0
 253 010c D1B7     		j	.L21
 254              	.L11:
 202:C:/Users/stapi/OneDrive/Desktop/GD32VW553/GD32VW55X_Wifi_BLE_SDK/GD32VW55x_RELEASE_V1.0.2/MSDK/lwip/lwip-2.1.2/port\wifi_netif.c ****         {
 255              		.loc 1 202 36 is_stmt 0 discriminator 1
 256 010e 8146     		li	a3,0
 257 0110 0146     		li	a2,0
 258 0112 A285     		mv	a1,s0
 259 0114 4A85     		mv	a0,s2
 260 0116 97000000 		call	macif_tx_start
 260      E7800000 
 261              	.LVL32:
 202:C:/Users/stapi/OneDrive/Desktop/GD32VW553/GD32VW55X_Wifi_BLE_SDK/GD32VW55x_RELEASE_V1.0.2/MSDK/lwip/lwip-2.1.2/port\wifi_netif.c ****         {
 262              		.loc 1 202 33 discriminator 1
 263 011e 59D5     		beq	a0,zero,.L12
 264 0120 EDB7     		j	.L13
 265              		.cfi_endproc
 266              	.LFE16:
 268              		.section	.text.net_l2_send_cfm,"ax",@progbits
 269              		.align	1
 271              	net_l2_send_cfm:
 272              	.LFB38:
 257:C:/Users/stapi/OneDrive/Desktop/GD32VW553/GD32VW55X_Wifi_BLE_SDK/GD32VW55x_RELEASE_V1.0.2/MSDK/lwip/lwip-2.1.2/port\wifi_netif.c **** 
 258:C:/Users/stapi/OneDrive/Desktop/GD32VW553/GD32VW55X_Wifi_BLE_SDK/GD32VW55x_RELEASE_V1.0.2/MSDK/lwip/lwip-2.1.2/port\wifi_netif.c **** /*!
 259:C:/Users/stapi/OneDrive/Desktop/GD32VW553/GD32VW55X_Wifi_BLE_SDK/GD32VW55x_RELEASE_V1.0.2/MSDK/lwip/lwip-2.1.2/port\wifi_netif.c ****     \brief      Call the checksum computation function of the TCP/IP stack
 260:C:/Users/stapi/OneDrive/Desktop/GD32VW553/GD32VW55X_Wifi_BLE_SDK/GD32VW55x_RELEASE_V1.0.2/MSDK/lwip/lwip-2.1.2/port\wifi_netif.c ****     \param[in]  dataptr: Pointer to the data buffer on which the checksum is computed
 261:C:/Users/stapi/OneDrive/Desktop/GD32VW553/GD32VW55X_Wifi_BLE_SDK/GD32VW55x_RELEASE_V1.0.2/MSDK/lwip/lwip-2.1.2/port\wifi_netif.c ****     \param[in]  len: Length of the data buffer
 262:C:/Users/stapi/OneDrive/Desktop/GD32VW553/GD32VW55X_Wifi_BLE_SDK/GD32VW55x_RELEASE_V1.0.2/MSDK/lwip/lwip-2.1.2/port\wifi_netif.c ****     \param[out] none
 263:C:/Users/stapi/OneDrive/Desktop/GD32VW553/GD32VW55X_Wifi_BLE_SDK/GD32VW55x_RELEASE_V1.0.2/MSDK/lwip/lwip-2.1.2/port\wifi_netif.c ****     \retval     The computed checksum
 264:C:/Users/stapi/OneDrive/Desktop/GD32VW553/GD32VW55X_Wifi_BLE_SDK/GD32VW55x_RELEASE_V1.0.2/MSDK/lwip/lwip-2.1.2/port\wifi_netif.c **** */
 265:C:/Users/stapi/OneDrive/Desktop/GD32VW553/GD32VW55X_Wifi_BLE_SDK/GD32VW55x_RELEASE_V1.0.2/MSDK/lwip/lwip-2.1.2/port\wifi_netif.c **** uint16_t net_ip_chksum(const void *dataptr, int len)
 266:C:/Users/stapi/OneDrive/Desktop/GD32VW553/GD32VW55X_Wifi_BLE_SDK/GD32VW55x_RELEASE_V1.0.2/MSDK/lwip/lwip-2.1.2/port\wifi_netif.c **** {
 267:C:/Users/stapi/OneDrive/Desktop/GD32VW553/GD32VW55X_Wifi_BLE_SDK/GD32VW55x_RELEASE_V1.0.2/MSDK/lwip/lwip-2.1.2/port\wifi_netif.c ****     // Simply call the LwIP function
 268:C:/Users/stapi/OneDrive/Desktop/GD32VW553/GD32VW55X_Wifi_BLE_SDK/GD32VW55x_RELEASE_V1.0.2/MSDK/lwip/lwip-2.1.2/port\wifi_netif.c ****     return lwip_standard_chksum(dataptr, len);
 269:C:/Users/stapi/OneDrive/Desktop/GD32VW553/GD32VW55X_Wifi_BLE_SDK/GD32VW55x_RELEASE_V1.0.2/MSDK/lwip/lwip-2.1.2/port\wifi_netif.c **** }
 270:C:/Users/stapi/OneDrive/Desktop/GD32VW553/GD32VW55X_Wifi_BLE_SDK/GD32VW55x_RELEASE_V1.0.2/MSDK/lwip/lwip-2.1.2/port\wifi_netif.c **** 
 271:C:/Users/stapi/OneDrive/Desktop/GD32VW553/GD32VW55X_Wifi_BLE_SDK/GD32VW55x_RELEASE_V1.0.2/MSDK/lwip/lwip-2.1.2/port\wifi_netif.c **** /*!
 272:C:/Users/stapi/OneDrive/Desktop/GD32VW553/GD32VW55X_Wifi_BLE_SDK/GD32VW55x_RELEASE_V1.0.2/MSDK/lwip/lwip-2.1.2/port\wifi_netif.c ****     \brief      Add a network interface.
 273:C:/Users/stapi/OneDrive/Desktop/GD32VW553/GD32VW55X_Wifi_BLE_SDK/GD32VW55x_RELEASE_V1.0.2/MSDK/lwip/lwip-2.1.2/port\wifi_netif.c ****                 This function must initialize the provided struct netif structure.
 274:C:/Users/stapi/OneDrive/Desktop/GD32VW553/GD32VW55X_Wifi_BLE_SDK/GD32VW55x_RELEASE_V1.0.2/MSDK/lwip/lwip-2.1.2/port\wifi_netif.c ****                 The private VIF structure must be the one returned by @ref net_if_vif_info
 275:C:/Users/stapi/OneDrive/Desktop/GD32VW553/GD32VW55X_Wifi_BLE_SDK/GD32VW55x_RELEASE_V1.0.2/MSDK/lwip/lwip-2.1.2/port\wifi_netif.c ****     \param[in]  net_if: Pointer to the net_if structure to add
 276:C:/Users/stapi/OneDrive/Desktop/GD32VW553/GD32VW55X_Wifi_BLE_SDK/GD32VW55x_RELEASE_V1.0.2/MSDK/lwip/lwip-2.1.2/port\wifi_netif.c ****     \param[in]  mac_addr: MAC address of the interface
 277:C:/Users/stapi/OneDrive/Desktop/GD32VW553/GD32VW55X_Wifi_BLE_SDK/GD32VW55x_RELEASE_V1.0.2/MSDK/lwip/lwip-2.1.2/port\wifi_netif.c ****     \param[in]  ipaddr: IPv4 address of the interface (NULL if not available)
 278:C:/Users/stapi/OneDrive/Desktop/GD32VW553/GD32VW55X_Wifi_BLE_SDK/GD32VW55x_RELEASE_V1.0.2/MSDK/lwip/lwip-2.1.2/port\wifi_netif.c ****     \param[in]  netmask: Net mask of the interface (NULL if not available)
 279:C:/Users/stapi/OneDrive/Desktop/GD32VW553/GD32VW55X_Wifi_BLE_SDK/GD32VW55x_RELEASE_V1.0.2/MSDK/lwip/lwip-2.1.2/port\wifi_netif.c ****     \param[in]  gw: Gateway address of the interface (NULL if not available)
 280:C:/Users/stapi/OneDrive/Desktop/GD32VW553/GD32VW55X_Wifi_BLE_SDK/GD32VW55x_RELEASE_V1.0.2/MSDK/lwip/lwip-2.1.2/port\wifi_netif.c ****     \param[in]  vif_priv: Pointer to the VIF private structure
 281:C:/Users/stapi/OneDrive/Desktop/GD32VW553/GD32VW55X_Wifi_BLE_SDK/GD32VW55x_RELEASE_V1.0.2/MSDK/lwip/lwip-2.1.2/port\wifi_netif.c ****     \param[out] none
 282:C:/Users/stapi/OneDrive/Desktop/GD32VW553/GD32VW55X_Wifi_BLE_SDK/GD32VW55x_RELEASE_V1.0.2/MSDK/lwip/lwip-2.1.2/port\wifi_netif.c ****     \retval     0 on success and != 0 if error occurred
 283:C:/Users/stapi/OneDrive/Desktop/GD32VW553/GD32VW55X_Wifi_BLE_SDK/GD32VW55x_RELEASE_V1.0.2/MSDK/lwip/lwip-2.1.2/port\wifi_netif.c **** */
 284:C:/Users/stapi/OneDrive/Desktop/GD32VW553/GD32VW55X_Wifi_BLE_SDK/GD32VW55x_RELEASE_V1.0.2/MSDK/lwip/lwip-2.1.2/port\wifi_netif.c **** int net_if_add(void *net_if,
 285:C:/Users/stapi/OneDrive/Desktop/GD32VW553/GD32VW55X_Wifi_BLE_SDK/GD32VW55x_RELEASE_V1.0.2/MSDK/lwip/lwip-2.1.2/port\wifi_netif.c ****                const uint8_t *mac_addr,
 286:C:/Users/stapi/OneDrive/Desktop/GD32VW553/GD32VW55X_Wifi_BLE_SDK/GD32VW55x_RELEASE_V1.0.2/MSDK/lwip/lwip-2.1.2/port\wifi_netif.c ****                const uint32_t *ipaddr,
 287:C:/Users/stapi/OneDrive/Desktop/GD32VW553/GD32VW55X_Wifi_BLE_SDK/GD32VW55x_RELEASE_V1.0.2/MSDK/lwip/lwip-2.1.2/port\wifi_netif.c ****                const uint32_t *netmask,
 288:C:/Users/stapi/OneDrive/Desktop/GD32VW553/GD32VW55X_Wifi_BLE_SDK/GD32VW55x_RELEASE_V1.0.2/MSDK/lwip/lwip-2.1.2/port\wifi_netif.c ****                const uint32_t *gw,
 289:C:/Users/stapi/OneDrive/Desktop/GD32VW553/GD32VW55X_Wifi_BLE_SDK/GD32VW55x_RELEASE_V1.0.2/MSDK/lwip/lwip-2.1.2/port\wifi_netif.c ****                void *vif)
 290:C:/Users/stapi/OneDrive/Desktop/GD32VW553/GD32VW55X_Wifi_BLE_SDK/GD32VW55x_RELEASE_V1.0.2/MSDK/lwip/lwip-2.1.2/port\wifi_netif.c **** {
 291:C:/Users/stapi/OneDrive/Desktop/GD32VW553/GD32VW55X_Wifi_BLE_SDK/GD32VW55x_RELEASE_V1.0.2/MSDK/lwip/lwip-2.1.2/port\wifi_netif.c ****     err_t status;
 292:C:/Users/stapi/OneDrive/Desktop/GD32VW553/GD32VW55X_Wifi_BLE_SDK/GD32VW55x_RELEASE_V1.0.2/MSDK/lwip/lwip-2.1.2/port\wifi_netif.c ****     struct netif *netif = (struct netif *)net_if;
 293:C:/Users/stapi/OneDrive/Desktop/GD32VW553/GD32VW55X_Wifi_BLE_SDK/GD32VW55x_RELEASE_V1.0.2/MSDK/lwip/lwip-2.1.2/port\wifi_netif.c **** 
 294:C:/Users/stapi/OneDrive/Desktop/GD32VW553/GD32VW55X_Wifi_BLE_SDK/GD32VW55x_RELEASE_V1.0.2/MSDK/lwip/lwip-2.1.2/port\wifi_netif.c ****     status = netifapi_netif_add(netif,
 295:C:/Users/stapi/OneDrive/Desktop/GD32VW553/GD32VW55X_Wifi_BLE_SDK/GD32VW55x_RELEASE_V1.0.2/MSDK/lwip/lwip-2.1.2/port\wifi_netif.c ****                                (const ip4_addr_t *)ipaddr,
 296:C:/Users/stapi/OneDrive/Desktop/GD32VW553/GD32VW55X_Wifi_BLE_SDK/GD32VW55x_RELEASE_V1.0.2/MSDK/lwip/lwip-2.1.2/port\wifi_netif.c ****                                (const ip4_addr_t *)netmask,
 297:C:/Users/stapi/OneDrive/Desktop/GD32VW553/GD32VW55X_Wifi_BLE_SDK/GD32VW55x_RELEASE_V1.0.2/MSDK/lwip/lwip-2.1.2/port\wifi_netif.c ****                                (const ip4_addr_t *)gw,
 298:C:/Users/stapi/OneDrive/Desktop/GD32VW553/GD32VW55X_Wifi_BLE_SDK/GD32VW55x_RELEASE_V1.0.2/MSDK/lwip/lwip-2.1.2/port\wifi_netif.c ****                                vif,
 299:C:/Users/stapi/OneDrive/Desktop/GD32VW553/GD32VW55X_Wifi_BLE_SDK/GD32VW55x_RELEASE_V1.0.2/MSDK/lwip/lwip-2.1.2/port\wifi_netif.c ****                                net_if_init,
 300:C:/Users/stapi/OneDrive/Desktop/GD32VW553/GD32VW55X_Wifi_BLE_SDK/GD32VW55x_RELEASE_V1.0.2/MSDK/lwip/lwip-2.1.2/port\wifi_netif.c ****                                tcpip_input);
 301:C:/Users/stapi/OneDrive/Desktop/GD32VW553/GD32VW55X_Wifi_BLE_SDK/GD32VW55x_RELEASE_V1.0.2/MSDK/lwip/lwip-2.1.2/port\wifi_netif.c **** 
 302:C:/Users/stapi/OneDrive/Desktop/GD32VW553/GD32VW55X_Wifi_BLE_SDK/GD32VW55x_RELEASE_V1.0.2/MSDK/lwip/lwip-2.1.2/port\wifi_netif.c ****     // Init MAC addr here as we can't do it in net_if_init (without dereferencing vif)
 303:C:/Users/stapi/OneDrive/Desktop/GD32VW553/GD32VW55X_Wifi_BLE_SDK/GD32VW55x_RELEASE_V1.0.2/MSDK/lwip/lwip-2.1.2/port\wifi_netif.c ****     sys_memcpy(netif->hwaddr, mac_addr, ETHARP_HWADDR_LEN);
 304:C:/Users/stapi/OneDrive/Desktop/GD32VW553/GD32VW55X_Wifi_BLE_SDK/GD32VW55x_RELEASE_V1.0.2/MSDK/lwip/lwip-2.1.2/port\wifi_netif.c **** #if LWIP_IPV6
 305:C:/Users/stapi/OneDrive/Desktop/GD32VW553/GD32VW55X_Wifi_BLE_SDK/GD32VW55x_RELEASE_V1.0.2/MSDK/lwip/lwip-2.1.2/port\wifi_netif.c ****     netif_create_ip6_linklocal_address(netif, 1);
 306:C:/Users/stapi/OneDrive/Desktop/GD32VW553/GD32VW55X_Wifi_BLE_SDK/GD32VW55x_RELEASE_V1.0.2/MSDK/lwip/lwip-2.1.2/port\wifi_netif.c ****     #if LWIP_IPV6_DHCP6
 307:C:/Users/stapi/OneDrive/Desktop/GD32VW553/GD32VW55X_Wifi_BLE_SDK/GD32VW55x_RELEASE_V1.0.2/MSDK/lwip/lwip-2.1.2/port\wifi_netif.c ****     dhcp6_enable_stateless(netif);
 308:C:/Users/stapi/OneDrive/Desktop/GD32VW553/GD32VW55X_Wifi_BLE_SDK/GD32VW55x_RELEASE_V1.0.2/MSDK/lwip/lwip-2.1.2/port\wifi_netif.c ****     #endif
 309:C:/Users/stapi/OneDrive/Desktop/GD32VW553/GD32VW55X_Wifi_BLE_SDK/GD32VW55x_RELEASE_V1.0.2/MSDK/lwip/lwip-2.1.2/port\wifi_netif.c **** #endif
 310:C:/Users/stapi/OneDrive/Desktop/GD32VW553/GD32VW55X_Wifi_BLE_SDK/GD32VW55x_RELEASE_V1.0.2/MSDK/lwip/lwip-2.1.2/port\wifi_netif.c ****     return (status == ERR_OK ? 0 : -1);
 311:C:/Users/stapi/OneDrive/Desktop/GD32VW553/GD32VW55X_Wifi_BLE_SDK/GD32VW55x_RELEASE_V1.0.2/MSDK/lwip/lwip-2.1.2/port\wifi_netif.c **** }
 312:C:/Users/stapi/OneDrive/Desktop/GD32VW553/GD32VW55X_Wifi_BLE_SDK/GD32VW55x_RELEASE_V1.0.2/MSDK/lwip/lwip-2.1.2/port\wifi_netif.c **** 
 313:C:/Users/stapi/OneDrive/Desktop/GD32VW553/GD32VW55X_Wifi_BLE_SDK/GD32VW55x_RELEASE_V1.0.2/MSDK/lwip/lwip-2.1.2/port\wifi_netif.c **** /*!
 314:C:/Users/stapi/OneDrive/Desktop/GD32VW553/GD32VW55X_Wifi_BLE_SDK/GD32VW55x_RELEASE_V1.0.2/MSDK/lwip/lwip-2.1.2/port\wifi_netif.c ****     \brief      Remove a network interface
 315:C:/Users/stapi/OneDrive/Desktop/GD32VW553/GD32VW55X_Wifi_BLE_SDK/GD32VW55x_RELEASE_V1.0.2/MSDK/lwip/lwip-2.1.2/port\wifi_netif.c ****     \param[in]  net_if: Pointer to the net_if structure to remove
 316:C:/Users/stapi/OneDrive/Desktop/GD32VW553/GD32VW55X_Wifi_BLE_SDK/GD32VW55x_RELEASE_V1.0.2/MSDK/lwip/lwip-2.1.2/port\wifi_netif.c ****     \param[out] none
 317:C:/Users/stapi/OneDrive/Desktop/GD32VW553/GD32VW55X_Wifi_BLE_SDK/GD32VW55x_RELEASE_V1.0.2/MSDK/lwip/lwip-2.1.2/port\wifi_netif.c ****     \retval     0 on success and != 0 if error occurred
 318:C:/Users/stapi/OneDrive/Desktop/GD32VW553/GD32VW55X_Wifi_BLE_SDK/GD32VW55x_RELEASE_V1.0.2/MSDK/lwip/lwip-2.1.2/port\wifi_netif.c **** */
 319:C:/Users/stapi/OneDrive/Desktop/GD32VW553/GD32VW55X_Wifi_BLE_SDK/GD32VW55x_RELEASE_V1.0.2/MSDK/lwip/lwip-2.1.2/port\wifi_netif.c **** int net_if_remove(void *net_if)
 320:C:/Users/stapi/OneDrive/Desktop/GD32VW553/GD32VW55X_Wifi_BLE_SDK/GD32VW55x_RELEASE_V1.0.2/MSDK/lwip/lwip-2.1.2/port\wifi_netif.c **** {
 321:C:/Users/stapi/OneDrive/Desktop/GD32VW553/GD32VW55X_Wifi_BLE_SDK/GD32VW55x_RELEASE_V1.0.2/MSDK/lwip/lwip-2.1.2/port\wifi_netif.c ****     err_t status;
 322:C:/Users/stapi/OneDrive/Desktop/GD32VW553/GD32VW55X_Wifi_BLE_SDK/GD32VW55x_RELEASE_V1.0.2/MSDK/lwip/lwip-2.1.2/port\wifi_netif.c ****     struct netif *netif = (struct netif *)net_if;
 323:C:/Users/stapi/OneDrive/Desktop/GD32VW553/GD32VW55X_Wifi_BLE_SDK/GD32VW55x_RELEASE_V1.0.2/MSDK/lwip/lwip-2.1.2/port\wifi_netif.c **** 
 324:C:/Users/stapi/OneDrive/Desktop/GD32VW553/GD32VW55X_Wifi_BLE_SDK/GD32VW55x_RELEASE_V1.0.2/MSDK/lwip/lwip-2.1.2/port\wifi_netif.c ****     dhcp_cleanup(netif);
 325:C:/Users/stapi/OneDrive/Desktop/GD32VW553/GD32VW55X_Wifi_BLE_SDK/GD32VW55x_RELEASE_V1.0.2/MSDK/lwip/lwip-2.1.2/port\wifi_netif.c **** 
 326:C:/Users/stapi/OneDrive/Desktop/GD32VW553/GD32VW55X_Wifi_BLE_SDK/GD32VW55x_RELEASE_V1.0.2/MSDK/lwip/lwip-2.1.2/port\wifi_netif.c ****     status = netifapi_netif_remove(netif);
 327:C:/Users/stapi/OneDrive/Desktop/GD32VW553/GD32VW55X_Wifi_BLE_SDK/GD32VW55x_RELEASE_V1.0.2/MSDK/lwip/lwip-2.1.2/port\wifi_netif.c **** 
 328:C:/Users/stapi/OneDrive/Desktop/GD32VW553/GD32VW55X_Wifi_BLE_SDK/GD32VW55x_RELEASE_V1.0.2/MSDK/lwip/lwip-2.1.2/port\wifi_netif.c ****     return (status == ERR_OK ? 0 : -1);
 329:C:/Users/stapi/OneDrive/Desktop/GD32VW553/GD32VW55X_Wifi_BLE_SDK/GD32VW55x_RELEASE_V1.0.2/MSDK/lwip/lwip-2.1.2/port\wifi_netif.c **** }
 330:C:/Users/stapi/OneDrive/Desktop/GD32VW553/GD32VW55X_Wifi_BLE_SDK/GD32VW55x_RELEASE_V1.0.2/MSDK/lwip/lwip-2.1.2/port\wifi_netif.c **** 
 331:C:/Users/stapi/OneDrive/Desktop/GD32VW553/GD32VW55X_Wifi_BLE_SDK/GD32VW55x_RELEASE_V1.0.2/MSDK/lwip/lwip-2.1.2/port\wifi_netif.c **** /*!
 332:C:/Users/stapi/OneDrive/Desktop/GD32VW553/GD32VW55X_Wifi_BLE_SDK/GD32VW55x_RELEASE_V1.0.2/MSDK/lwip/lwip-2.1.2/port\wifi_netif.c ****     \brief      Get network interface MAC address
 333:C:/Users/stapi/OneDrive/Desktop/GD32VW553/GD32VW55X_Wifi_BLE_SDK/GD32VW55x_RELEASE_V1.0.2/MSDK/lwip/lwip-2.1.2/port\wifi_netif.c ****     \param[in]  net_if: Pointer to the net_if structure
 334:C:/Users/stapi/OneDrive/Desktop/GD32VW553/GD32VW55X_Wifi_BLE_SDK/GD32VW55x_RELEASE_V1.0.2/MSDK/lwip/lwip-2.1.2/port\wifi_netif.c ****     \param[out] none
 335:C:/Users/stapi/OneDrive/Desktop/GD32VW553/GD32VW55X_Wifi_BLE_SDK/GD32VW55x_RELEASE_V1.0.2/MSDK/lwip/lwip-2.1.2/port\wifi_netif.c ****     \retval     Pointer to MAC address
 336:C:/Users/stapi/OneDrive/Desktop/GD32VW553/GD32VW55X_Wifi_BLE_SDK/GD32VW55x_RELEASE_V1.0.2/MSDK/lwip/lwip-2.1.2/port\wifi_netif.c **** */
 337:C:/Users/stapi/OneDrive/Desktop/GD32VW553/GD32VW55X_Wifi_BLE_SDK/GD32VW55x_RELEASE_V1.0.2/MSDK/lwip/lwip-2.1.2/port\wifi_netif.c **** const uint8_t *net_if_get_mac_addr(void *net_if)
 338:C:/Users/stapi/OneDrive/Desktop/GD32VW553/GD32VW55X_Wifi_BLE_SDK/GD32VW55x_RELEASE_V1.0.2/MSDK/lwip/lwip-2.1.2/port\wifi_netif.c **** {
 339:C:/Users/stapi/OneDrive/Desktop/GD32VW553/GD32VW55X_Wifi_BLE_SDK/GD32VW55x_RELEASE_V1.0.2/MSDK/lwip/lwip-2.1.2/port\wifi_netif.c ****     struct netif *netif = (struct netif *)net_if;
 340:C:/Users/stapi/OneDrive/Desktop/GD32VW553/GD32VW55X_Wifi_BLE_SDK/GD32VW55x_RELEASE_V1.0.2/MSDK/lwip/lwip-2.1.2/port\wifi_netif.c **** 
 341:C:/Users/stapi/OneDrive/Desktop/GD32VW553/GD32VW55X_Wifi_BLE_SDK/GD32VW55x_RELEASE_V1.0.2/MSDK/lwip/lwip-2.1.2/port\wifi_netif.c ****     return netif->hwaddr;
 342:C:/Users/stapi/OneDrive/Desktop/GD32VW553/GD32VW55X_Wifi_BLE_SDK/GD32VW55x_RELEASE_V1.0.2/MSDK/lwip/lwip-2.1.2/port\wifi_netif.c **** }
 343:C:/Users/stapi/OneDrive/Desktop/GD32VW553/GD32VW55X_Wifi_BLE_SDK/GD32VW55x_RELEASE_V1.0.2/MSDK/lwip/lwip-2.1.2/port\wifi_netif.c **** 
 344:C:/Users/stapi/OneDrive/Desktop/GD32VW553/GD32VW55X_Wifi_BLE_SDK/GD32VW55x_RELEASE_V1.0.2/MSDK/lwip/lwip-2.1.2/port\wifi_netif.c **** /*!
 345:C:/Users/stapi/OneDrive/Desktop/GD32VW553/GD32VW55X_Wifi_BLE_SDK/GD32VW55x_RELEASE_V1.0.2/MSDK/lwip/lwip-2.1.2/port\wifi_netif.c ****     \brief      Get pointer to network interface from its name
 346:C:/Users/stapi/OneDrive/Desktop/GD32VW553/GD32VW55X_Wifi_BLE_SDK/GD32VW55x_RELEASE_V1.0.2/MSDK/lwip/lwip-2.1.2/port\wifi_netif.c ****     \param[in]  name: Name of the interface
 347:C:/Users/stapi/OneDrive/Desktop/GD32VW553/GD32VW55X_Wifi_BLE_SDK/GD32VW55x_RELEASE_V1.0.2/MSDK/lwip/lwip-2.1.2/port\wifi_netif.c ****     \param[out] none
 348:C:/Users/stapi/OneDrive/Desktop/GD32VW553/GD32VW55X_Wifi_BLE_SDK/GD32VW55x_RELEASE_V1.0.2/MSDK/lwip/lwip-2.1.2/port\wifi_netif.c ****     \retval     pointer to the net_if structure and NULL if such interface doesn't exist.
 349:C:/Users/stapi/OneDrive/Desktop/GD32VW553/GD32VW55X_Wifi_BLE_SDK/GD32VW55x_RELEASE_V1.0.2/MSDK/lwip/lwip-2.1.2/port\wifi_netif.c **** */
 350:C:/Users/stapi/OneDrive/Desktop/GD32VW553/GD32VW55X_Wifi_BLE_SDK/GD32VW55x_RELEASE_V1.0.2/MSDK/lwip/lwip-2.1.2/port\wifi_netif.c **** void *net_if_find_from_name(const char *name)
 351:C:/Users/stapi/OneDrive/Desktop/GD32VW553/GD32VW55X_Wifi_BLE_SDK/GD32VW55x_RELEASE_V1.0.2/MSDK/lwip/lwip-2.1.2/port\wifi_netif.c **** {
 352:C:/Users/stapi/OneDrive/Desktop/GD32VW553/GD32VW55X_Wifi_BLE_SDK/GD32VW55x_RELEASE_V1.0.2/MSDK/lwip/lwip-2.1.2/port\wifi_netif.c ****     return netif_find(name);
 353:C:/Users/stapi/OneDrive/Desktop/GD32VW553/GD32VW55X_Wifi_BLE_SDK/GD32VW55x_RELEASE_V1.0.2/MSDK/lwip/lwip-2.1.2/port\wifi_netif.c **** }
 354:C:/Users/stapi/OneDrive/Desktop/GD32VW553/GD32VW55X_Wifi_BLE_SDK/GD32VW55x_RELEASE_V1.0.2/MSDK/lwip/lwip-2.1.2/port\wifi_netif.c **** 
 355:C:/Users/stapi/OneDrive/Desktop/GD32VW553/GD32VW55X_Wifi_BLE_SDK/GD32VW55x_RELEASE_V1.0.2/MSDK/lwip/lwip-2.1.2/port\wifi_netif.c **** /*!
 356:C:/Users/stapi/OneDrive/Desktop/GD32VW553/GD32VW55X_Wifi_BLE_SDK/GD32VW55x_RELEASE_V1.0.2/MSDK/lwip/lwip-2.1.2/port\wifi_netif.c ****     \brief      Get name of network interface
 357:C:/Users/stapi/OneDrive/Desktop/GD32VW553/GD32VW55X_Wifi_BLE_SDK/GD32VW55x_RELEASE_V1.0.2/MSDK/lwip/lwip-2.1.2/port\wifi_netif.c ****                 Copy the name on the interface (including a terminating a null byte) in the given
 358:C:/Users/stapi/OneDrive/Desktop/GD32VW553/GD32VW55X_Wifi_BLE_SDK/GD32VW55x_RELEASE_V1.0.2/MSDK/lwip/lwip-2.1.2/port\wifi_netif.c ****                 buffer. If buffer is not big enough then the interface name is truncated and no
 359:C:/Users/stapi/OneDrive/Desktop/GD32VW553/GD32VW55X_Wifi_BLE_SDK/GD32VW55x_RELEASE_V1.0.2/MSDK/lwip/lwip-2.1.2/port\wifi_netif.c ****                 null byte is written in the buffer.
 360:C:/Users/stapi/OneDrive/Desktop/GD32VW553/GD32VW55X_Wifi_BLE_SDK/GD32VW55x_RELEASE_V1.0.2/MSDK/lwip/lwip-2.1.2/port\wifi_netif.c ****     \param[in]  net_if: Pointer to the net_if structure
 361:C:/Users/stapi/OneDrive/Desktop/GD32VW553/GD32VW55X_Wifi_BLE_SDK/GD32VW55x_RELEASE_V1.0.2/MSDK/lwip/lwip-2.1.2/port\wifi_netif.c ****     \param[in]  buf: Buffer to write the interface name
 362:C:/Users/stapi/OneDrive/Desktop/GD32VW553/GD32VW55X_Wifi_BLE_SDK/GD32VW55x_RELEASE_V1.0.2/MSDK/lwip/lwip-2.1.2/port\wifi_netif.c ****     \param[in]  len: Length of the buffer.
 363:C:/Users/stapi/OneDrive/Desktop/GD32VW553/GD32VW55X_Wifi_BLE_SDK/GD32VW55x_RELEASE_V1.0.2/MSDK/lwip/lwip-2.1.2/port\wifi_netif.c ****     \param[out] none
 364:C:/Users/stapi/OneDrive/Desktop/GD32VW553/GD32VW55X_Wifi_BLE_SDK/GD32VW55x_RELEASE_V1.0.2/MSDK/lwip/lwip-2.1.2/port\wifi_netif.c ****     \retval     < 0 if error occurred, otherwise the number of characters (excluding the
 365:C:/Users/stapi/OneDrive/Desktop/GD32VW553/GD32VW55X_Wifi_BLE_SDK/GD32VW55x_RELEASE_V1.0.2/MSDK/lwip/lwip-2.1.2/port\wifi_netif.c ****                 terminating null byte) needed to write the interface name. If return value is great
 366:C:/Users/stapi/OneDrive/Desktop/GD32VW553/GD32VW55X_Wifi_BLE_SDK/GD32VW55x_RELEASE_V1.0.2/MSDK/lwip/lwip-2.1.2/port\wifi_netif.c ****                 or equal to @p len, it means that the interface name has been truncated
 367:C:/Users/stapi/OneDrive/Desktop/GD32VW553/GD32VW55X_Wifi_BLE_SDK/GD32VW55x_RELEASE_V1.0.2/MSDK/lwip/lwip-2.1.2/port\wifi_netif.c **** */
 368:C:/Users/stapi/OneDrive/Desktop/GD32VW553/GD32VW55X_Wifi_BLE_SDK/GD32VW55x_RELEASE_V1.0.2/MSDK/lwip/lwip-2.1.2/port\wifi_netif.c **** int net_if_get_name(void *net_if, char *buf, int len)
 369:C:/Users/stapi/OneDrive/Desktop/GD32VW553/GD32VW55X_Wifi_BLE_SDK/GD32VW55x_RELEASE_V1.0.2/MSDK/lwip/lwip-2.1.2/port\wifi_netif.c **** {
 370:C:/Users/stapi/OneDrive/Desktop/GD32VW553/GD32VW55X_Wifi_BLE_SDK/GD32VW55x_RELEASE_V1.0.2/MSDK/lwip/lwip-2.1.2/port\wifi_netif.c ****     struct netif *netif = (struct netif *)net_if;
 371:C:/Users/stapi/OneDrive/Desktop/GD32VW553/GD32VW55X_Wifi_BLE_SDK/GD32VW55x_RELEASE_V1.0.2/MSDK/lwip/lwip-2.1.2/port\wifi_netif.c **** 
 372:C:/Users/stapi/OneDrive/Desktop/GD32VW553/GD32VW55X_Wifi_BLE_SDK/GD32VW55x_RELEASE_V1.0.2/MSDK/lwip/lwip-2.1.2/port\wifi_netif.c ****     if (len > 0)
 373:C:/Users/stapi/OneDrive/Desktop/GD32VW553/GD32VW55X_Wifi_BLE_SDK/GD32VW55x_RELEASE_V1.0.2/MSDK/lwip/lwip-2.1.2/port\wifi_netif.c ****         buf[0] = netif->name[0];
 374:C:/Users/stapi/OneDrive/Desktop/GD32VW553/GD32VW55X_Wifi_BLE_SDK/GD32VW55x_RELEASE_V1.0.2/MSDK/lwip/lwip-2.1.2/port\wifi_netif.c ****     if (len > 1)
 375:C:/Users/stapi/OneDrive/Desktop/GD32VW553/GD32VW55X_Wifi_BLE_SDK/GD32VW55x_RELEASE_V1.0.2/MSDK/lwip/lwip-2.1.2/port\wifi_netif.c ****         buf[1] = netif->name[1];
 376:C:/Users/stapi/OneDrive/Desktop/GD32VW553/GD32VW55X_Wifi_BLE_SDK/GD32VW55x_RELEASE_V1.0.2/MSDK/lwip/lwip-2.1.2/port\wifi_netif.c ****     if (len > 2)
 377:C:/Users/stapi/OneDrive/Desktop/GD32VW553/GD32VW55X_Wifi_BLE_SDK/GD32VW55x_RELEASE_V1.0.2/MSDK/lwip/lwip-2.1.2/port\wifi_netif.c ****         buf[2] = netif->num + '0';
 378:C:/Users/stapi/OneDrive/Desktop/GD32VW553/GD32VW55X_Wifi_BLE_SDK/GD32VW55x_RELEASE_V1.0.2/MSDK/lwip/lwip-2.1.2/port\wifi_netif.c ****     if ( len > 3)
 379:C:/Users/stapi/OneDrive/Desktop/GD32VW553/GD32VW55X_Wifi_BLE_SDK/GD32VW55x_RELEASE_V1.0.2/MSDK/lwip/lwip-2.1.2/port\wifi_netif.c ****         buf[3] = '\0';
 380:C:/Users/stapi/OneDrive/Desktop/GD32VW553/GD32VW55X_Wifi_BLE_SDK/GD32VW55x_RELEASE_V1.0.2/MSDK/lwip/lwip-2.1.2/port\wifi_netif.c **** 
 381:C:/Users/stapi/OneDrive/Desktop/GD32VW553/GD32VW55X_Wifi_BLE_SDK/GD32VW55x_RELEASE_V1.0.2/MSDK/lwip/lwip-2.1.2/port\wifi_netif.c ****     return 3;
 382:C:/Users/stapi/OneDrive/Desktop/GD32VW553/GD32VW55X_Wifi_BLE_SDK/GD32VW55x_RELEASE_V1.0.2/MSDK/lwip/lwip-2.1.2/port\wifi_netif.c **** }
 383:C:/Users/stapi/OneDrive/Desktop/GD32VW553/GD32VW55X_Wifi_BLE_SDK/GD32VW55x_RELEASE_V1.0.2/MSDK/lwip/lwip-2.1.2/port\wifi_netif.c **** 
 384:C:/Users/stapi/OneDrive/Desktop/GD32VW553/GD32VW55X_Wifi_BLE_SDK/GD32VW55x_RELEASE_V1.0.2/MSDK/lwip/lwip-2.1.2/port\wifi_netif.c **** /*!
 385:C:/Users/stapi/OneDrive/Desktop/GD32VW553/GD32VW55X_Wifi_BLE_SDK/GD32VW55x_RELEASE_V1.0.2/MSDK/lwip/lwip-2.1.2/port\wifi_netif.c ****     \brief      Indicate that the network interface is now up (i.e. able to do traffic)
 386:C:/Users/stapi/OneDrive/Desktop/GD32VW553/GD32VW55X_Wifi_BLE_SDK/GD32VW55x_RELEASE_V1.0.2/MSDK/lwip/lwip-2.1.2/port\wifi_netif.c ****     \param[in]  net_if: Pointer to the net_if structure
 387:C:/Users/stapi/OneDrive/Desktop/GD32VW553/GD32VW55X_Wifi_BLE_SDK/GD32VW55x_RELEASE_V1.0.2/MSDK/lwip/lwip-2.1.2/port\wifi_netif.c ****     \param[out] none
 388:C:/Users/stapi/OneDrive/Desktop/GD32VW553/GD32VW55X_Wifi_BLE_SDK/GD32VW55x_RELEASE_V1.0.2/MSDK/lwip/lwip-2.1.2/port\wifi_netif.c ****     \retval     none
 389:C:/Users/stapi/OneDrive/Desktop/GD32VW553/GD32VW55X_Wifi_BLE_SDK/GD32VW55x_RELEASE_V1.0.2/MSDK/lwip/lwip-2.1.2/port\wifi_netif.c **** */
 390:C:/Users/stapi/OneDrive/Desktop/GD32VW553/GD32VW55X_Wifi_BLE_SDK/GD32VW55x_RELEASE_V1.0.2/MSDK/lwip/lwip-2.1.2/port\wifi_netif.c **** void net_if_up(void *net_if)
 391:C:/Users/stapi/OneDrive/Desktop/GD32VW553/GD32VW55X_Wifi_BLE_SDK/GD32VW55x_RELEASE_V1.0.2/MSDK/lwip/lwip-2.1.2/port\wifi_netif.c **** {
 392:C:/Users/stapi/OneDrive/Desktop/GD32VW553/GD32VW55X_Wifi_BLE_SDK/GD32VW55x_RELEASE_V1.0.2/MSDK/lwip/lwip-2.1.2/port\wifi_netif.c ****     struct netif *netif = (struct netif *)net_if;
 393:C:/Users/stapi/OneDrive/Desktop/GD32VW553/GD32VW55X_Wifi_BLE_SDK/GD32VW55x_RELEASE_V1.0.2/MSDK/lwip/lwip-2.1.2/port\wifi_netif.c **** 
 394:C:/Users/stapi/OneDrive/Desktop/GD32VW553/GD32VW55X_Wifi_BLE_SDK/GD32VW55x_RELEASE_V1.0.2/MSDK/lwip/lwip-2.1.2/port\wifi_netif.c ****     netifapi_netif_set_up(netif);
 395:C:/Users/stapi/OneDrive/Desktop/GD32VW553/GD32VW55X_Wifi_BLE_SDK/GD32VW55x_RELEASE_V1.0.2/MSDK/lwip/lwip-2.1.2/port\wifi_netif.c **** }
 396:C:/Users/stapi/OneDrive/Desktop/GD32VW553/GD32VW55X_Wifi_BLE_SDK/GD32VW55x_RELEASE_V1.0.2/MSDK/lwip/lwip-2.1.2/port\wifi_netif.c **** 
 397:C:/Users/stapi/OneDrive/Desktop/GD32VW553/GD32VW55X_Wifi_BLE_SDK/GD32VW55x_RELEASE_V1.0.2/MSDK/lwip/lwip-2.1.2/port\wifi_netif.c **** /*!
 398:C:/Users/stapi/OneDrive/Desktop/GD32VW553/GD32VW55X_Wifi_BLE_SDK/GD32VW55x_RELEASE_V1.0.2/MSDK/lwip/lwip-2.1.2/port\wifi_netif.c ****     \brief      Indicate that the network interface is now down
 399:C:/Users/stapi/OneDrive/Desktop/GD32VW553/GD32VW55X_Wifi_BLE_SDK/GD32VW55x_RELEASE_V1.0.2/MSDK/lwip/lwip-2.1.2/port\wifi_netif.c ****     \param[in]  net_if: Pointer to the net_if structure
 400:C:/Users/stapi/OneDrive/Desktop/GD32VW553/GD32VW55X_Wifi_BLE_SDK/GD32VW55x_RELEASE_V1.0.2/MSDK/lwip/lwip-2.1.2/port\wifi_netif.c ****     \param[out] none
 401:C:/Users/stapi/OneDrive/Desktop/GD32VW553/GD32VW55X_Wifi_BLE_SDK/GD32VW55x_RELEASE_V1.0.2/MSDK/lwip/lwip-2.1.2/port\wifi_netif.c ****     \retval     none
 402:C:/Users/stapi/OneDrive/Desktop/GD32VW553/GD32VW55X_Wifi_BLE_SDK/GD32VW55x_RELEASE_V1.0.2/MSDK/lwip/lwip-2.1.2/port\wifi_netif.c **** */
 403:C:/Users/stapi/OneDrive/Desktop/GD32VW553/GD32VW55X_Wifi_BLE_SDK/GD32VW55x_RELEASE_V1.0.2/MSDK/lwip/lwip-2.1.2/port\wifi_netif.c **** void net_if_down(void *net_if)
 404:C:/Users/stapi/OneDrive/Desktop/GD32VW553/GD32VW55X_Wifi_BLE_SDK/GD32VW55x_RELEASE_V1.0.2/MSDK/lwip/lwip-2.1.2/port\wifi_netif.c **** {
 405:C:/Users/stapi/OneDrive/Desktop/GD32VW553/GD32VW55X_Wifi_BLE_SDK/GD32VW55x_RELEASE_V1.0.2/MSDK/lwip/lwip-2.1.2/port\wifi_netif.c ****     struct netif *netif = (struct netif *)net_if;
 406:C:/Users/stapi/OneDrive/Desktop/GD32VW553/GD32VW55X_Wifi_BLE_SDK/GD32VW55x_RELEASE_V1.0.2/MSDK/lwip/lwip-2.1.2/port\wifi_netif.c **** 
 407:C:/Users/stapi/OneDrive/Desktop/GD32VW553/GD32VW55X_Wifi_BLE_SDK/GD32VW55x_RELEASE_V1.0.2/MSDK/lwip/lwip-2.1.2/port\wifi_netif.c ****     netifapi_netif_set_down(netif);
 408:C:/Users/stapi/OneDrive/Desktop/GD32VW553/GD32VW55X_Wifi_BLE_SDK/GD32VW55x_RELEASE_V1.0.2/MSDK/lwip/lwip-2.1.2/port\wifi_netif.c **** }
 409:C:/Users/stapi/OneDrive/Desktop/GD32VW553/GD32VW55X_Wifi_BLE_SDK/GD32VW55x_RELEASE_V1.0.2/MSDK/lwip/lwip-2.1.2/port\wifi_netif.c **** 
 410:C:/Users/stapi/OneDrive/Desktop/GD32VW553/GD32VW55X_Wifi_BLE_SDK/GD32VW55x_RELEASE_V1.0.2/MSDK/lwip/lwip-2.1.2/port\wifi_netif.c **** /*!
 411:C:/Users/stapi/OneDrive/Desktop/GD32VW553/GD32VW55X_Wifi_BLE_SDK/GD32VW55x_RELEASE_V1.0.2/MSDK/lwip/lwip-2.1.2/port\wifi_netif.c ****     \brief      Set a network interface as the default output interface
 412:C:/Users/stapi/OneDrive/Desktop/GD32VW553/GD32VW55X_Wifi_BLE_SDK/GD32VW55x_RELEASE_V1.0.2/MSDK/lwip/lwip-2.1.2/port\wifi_netif.c ****                 If IP routing failed to select an output interface solely based on
 413:C:/Users/stapi/OneDrive/Desktop/GD32VW553/GD32VW55X_Wifi_BLE_SDK/GD32VW55x_RELEASE_V1.0.2/MSDK/lwip/lwip-2.1.2/port\wifi_netif.c ****                 interface and destination addresses then this interface will be selected.
 414:C:/Users/stapi/OneDrive/Desktop/GD32VW553/GD32VW55X_Wifi_BLE_SDK/GD32VW55x_RELEASE_V1.0.2/MSDK/lwip/lwip-2.1.2/port\wifi_netif.c ****                 Use a NULL parameter to reset the default interface.
 415:C:/Users/stapi/OneDrive/Desktop/GD32VW553/GD32VW55X_Wifi_BLE_SDK/GD32VW55x_RELEASE_V1.0.2/MSDK/lwip/lwip-2.1.2/port\wifi_netif.c ****     \param[in]  net_if: Pointer to the net_if structure
 416:C:/Users/stapi/OneDrive/Desktop/GD32VW553/GD32VW55X_Wifi_BLE_SDK/GD32VW55x_RELEASE_V1.0.2/MSDK/lwip/lwip-2.1.2/port\wifi_netif.c ****     \param[out] none
 417:C:/Users/stapi/OneDrive/Desktop/GD32VW553/GD32VW55X_Wifi_BLE_SDK/GD32VW55x_RELEASE_V1.0.2/MSDK/lwip/lwip-2.1.2/port\wifi_netif.c ****     \retval     none
 418:C:/Users/stapi/OneDrive/Desktop/GD32VW553/GD32VW55X_Wifi_BLE_SDK/GD32VW55x_RELEASE_V1.0.2/MSDK/lwip/lwip-2.1.2/port\wifi_netif.c **** */
 419:C:/Users/stapi/OneDrive/Desktop/GD32VW553/GD32VW55X_Wifi_BLE_SDK/GD32VW55x_RELEASE_V1.0.2/MSDK/lwip/lwip-2.1.2/port\wifi_netif.c **** void net_if_set_default(void *net_if)
 420:C:/Users/stapi/OneDrive/Desktop/GD32VW553/GD32VW55X_Wifi_BLE_SDK/GD32VW55x_RELEASE_V1.0.2/MSDK/lwip/lwip-2.1.2/port\wifi_netif.c **** {
 421:C:/Users/stapi/OneDrive/Desktop/GD32VW553/GD32VW55X_Wifi_BLE_SDK/GD32VW55x_RELEASE_V1.0.2/MSDK/lwip/lwip-2.1.2/port\wifi_netif.c ****     struct netif *netif = (struct netif *)net_if;
 422:C:/Users/stapi/OneDrive/Desktop/GD32VW553/GD32VW55X_Wifi_BLE_SDK/GD32VW55x_RELEASE_V1.0.2/MSDK/lwip/lwip-2.1.2/port\wifi_netif.c **** 
 423:C:/Users/stapi/OneDrive/Desktop/GD32VW553/GD32VW55X_Wifi_BLE_SDK/GD32VW55x_RELEASE_V1.0.2/MSDK/lwip/lwip-2.1.2/port\wifi_netif.c ****     netifapi_netif_set_default(netif);
 424:C:/Users/stapi/OneDrive/Desktop/GD32VW553/GD32VW55X_Wifi_BLE_SDK/GD32VW55x_RELEASE_V1.0.2/MSDK/lwip/lwip-2.1.2/port\wifi_netif.c **** }
 425:C:/Users/stapi/OneDrive/Desktop/GD32VW553/GD32VW55X_Wifi_BLE_SDK/GD32VW55x_RELEASE_V1.0.2/MSDK/lwip/lwip-2.1.2/port\wifi_netif.c **** 
 426:C:/Users/stapi/OneDrive/Desktop/GD32VW553/GD32VW55X_Wifi_BLE_SDK/GD32VW55x_RELEASE_V1.0.2/MSDK/lwip/lwip-2.1.2/port\wifi_netif.c **** /*!
 427:C:/Users/stapi/OneDrive/Desktop/GD32VW553/GD32VW55X_Wifi_BLE_SDK/GD32VW55x_RELEASE_V1.0.2/MSDK/lwip/lwip-2.1.2/port\wifi_netif.c ****     \brief      Set IPv4 address of an interface
 428:C:/Users/stapi/OneDrive/Desktop/GD32VW553/GD32VW55X_Wifi_BLE_SDK/GD32VW55x_RELEASE_V1.0.2/MSDK/lwip/lwip-2.1.2/port\wifi_netif.c ****                 It is assumed that only one address can be configured on the interface
 429:C:/Users/stapi/OneDrive/Desktop/GD32VW553/GD32VW55X_Wifi_BLE_SDK/GD32VW55x_RELEASE_V1.0.2/MSDK/lwip/lwip-2.1.2/port\wifi_netif.c ****                 and then setting a new address can be used to replace/delete the current
 430:C:/Users/stapi/OneDrive/Desktop/GD32VW553/GD32VW55X_Wifi_BLE_SDK/GD32VW55x_RELEASE_V1.0.2/MSDK/lwip/lwip-2.1.2/port\wifi_netif.c ****                 address.
 431:C:/Users/stapi/OneDrive/Desktop/GD32VW553/GD32VW55X_Wifi_BLE_SDK/GD32VW55x_RELEASE_V1.0.2/MSDK/lwip/lwip-2.1.2/port\wifi_netif.c ****     \param[in]  net_if: Pointer to the net_if structure
 432:C:/Users/stapi/OneDrive/Desktop/GD32VW553/GD32VW55X_Wifi_BLE_SDK/GD32VW55x_RELEASE_V1.0.2/MSDK/lwip/lwip-2.1.2/port\wifi_netif.c ****     \param[in]  ip: IPv4 address
 433:C:/Users/stapi/OneDrive/Desktop/GD32VW553/GD32VW55X_Wifi_BLE_SDK/GD32VW55x_RELEASE_V1.0.2/MSDK/lwip/lwip-2.1.2/port\wifi_netif.c ****     \param[in]  mask: IPv4 network mask
 434:C:/Users/stapi/OneDrive/Desktop/GD32VW553/GD32VW55X_Wifi_BLE_SDK/GD32VW55x_RELEASE_V1.0.2/MSDK/lwip/lwip-2.1.2/port\wifi_netif.c ****     \param[in]  gw: IPv4 gateway address
 435:C:/Users/stapi/OneDrive/Desktop/GD32VW553/GD32VW55X_Wifi_BLE_SDK/GD32VW55x_RELEASE_V1.0.2/MSDK/lwip/lwip-2.1.2/port\wifi_netif.c ****     \param[out] none
 436:C:/Users/stapi/OneDrive/Desktop/GD32VW553/GD32VW55X_Wifi_BLE_SDK/GD32VW55x_RELEASE_V1.0.2/MSDK/lwip/lwip-2.1.2/port\wifi_netif.c ****     \retval     none
 437:C:/Users/stapi/OneDrive/Desktop/GD32VW553/GD32VW55X_Wifi_BLE_SDK/GD32VW55x_RELEASE_V1.0.2/MSDK/lwip/lwip-2.1.2/port\wifi_netif.c **** */
 438:C:/Users/stapi/OneDrive/Desktop/GD32VW553/GD32VW55X_Wifi_BLE_SDK/GD32VW55x_RELEASE_V1.0.2/MSDK/lwip/lwip-2.1.2/port\wifi_netif.c **** void net_if_set_ip(void *net_if, uint32_t ip, uint32_t mask, uint32_t gw)
 439:C:/Users/stapi/OneDrive/Desktop/GD32VW553/GD32VW55X_Wifi_BLE_SDK/GD32VW55x_RELEASE_V1.0.2/MSDK/lwip/lwip-2.1.2/port\wifi_netif.c **** {
 440:C:/Users/stapi/OneDrive/Desktop/GD32VW553/GD32VW55X_Wifi_BLE_SDK/GD32VW55x_RELEASE_V1.0.2/MSDK/lwip/lwip-2.1.2/port\wifi_netif.c ****     struct netif *netif = (struct netif *)net_if;
 441:C:/Users/stapi/OneDrive/Desktop/GD32VW553/GD32VW55X_Wifi_BLE_SDK/GD32VW55x_RELEASE_V1.0.2/MSDK/lwip/lwip-2.1.2/port\wifi_netif.c **** 
 442:C:/Users/stapi/OneDrive/Desktop/GD32VW553/GD32VW55X_Wifi_BLE_SDK/GD32VW55x_RELEASE_V1.0.2/MSDK/lwip/lwip-2.1.2/port\wifi_netif.c ****     if (!netif)
 443:C:/Users/stapi/OneDrive/Desktop/GD32VW553/GD32VW55X_Wifi_BLE_SDK/GD32VW55x_RELEASE_V1.0.2/MSDK/lwip/lwip-2.1.2/port\wifi_netif.c ****         return;
 444:C:/Users/stapi/OneDrive/Desktop/GD32VW553/GD32VW55X_Wifi_BLE_SDK/GD32VW55x_RELEASE_V1.0.2/MSDK/lwip/lwip-2.1.2/port\wifi_netif.c ****     netif_set_addr(netif, (const ip4_addr_t *)&ip, (const ip4_addr_t *)&mask,
 445:C:/Users/stapi/OneDrive/Desktop/GD32VW553/GD32VW55X_Wifi_BLE_SDK/GD32VW55x_RELEASE_V1.0.2/MSDK/lwip/lwip-2.1.2/port\wifi_netif.c ****                    (const ip4_addr_t *)&gw);
 446:C:/Users/stapi/OneDrive/Desktop/GD32VW553/GD32VW55X_Wifi_BLE_SDK/GD32VW55x_RELEASE_V1.0.2/MSDK/lwip/lwip-2.1.2/port\wifi_netif.c **** }
 447:C:/Users/stapi/OneDrive/Desktop/GD32VW553/GD32VW55X_Wifi_BLE_SDK/GD32VW55x_RELEASE_V1.0.2/MSDK/lwip/lwip-2.1.2/port\wifi_netif.c **** 
 448:C:/Users/stapi/OneDrive/Desktop/GD32VW553/GD32VW55X_Wifi_BLE_SDK/GD32VW55x_RELEASE_V1.0.2/MSDK/lwip/lwip-2.1.2/port\wifi_netif.c **** /*!
 449:C:/Users/stapi/OneDrive/Desktop/GD32VW553/GD32VW55X_Wifi_BLE_SDK/GD32VW55x_RELEASE_V1.0.2/MSDK/lwip/lwip-2.1.2/port\wifi_netif.c ****     \brief      Get IPv4 address of an interface
 450:C:/Users/stapi/OneDrive/Desktop/GD32VW553/GD32VW55X_Wifi_BLE_SDK/GD32VW55x_RELEASE_V1.0.2/MSDK/lwip/lwip-2.1.2/port\wifi_netif.c ****                 Set to NULL parameter you're not interested in.
 451:C:/Users/stapi/OneDrive/Desktop/GD32VW553/GD32VW55X_Wifi_BLE_SDK/GD32VW55x_RELEASE_V1.0.2/MSDK/lwip/lwip-2.1.2/port\wifi_netif.c ****     \param[in]  net_if: Pointer to the net_if structure
 452:C:/Users/stapi/OneDrive/Desktop/GD32VW553/GD32VW55X_Wifi_BLE_SDK/GD32VW55x_RELEASE_V1.0.2/MSDK/lwip/lwip-2.1.2/port\wifi_netif.c ****     \param[in]  ip: IPv4 address
 453:C:/Users/stapi/OneDrive/Desktop/GD32VW553/GD32VW55X_Wifi_BLE_SDK/GD32VW55x_RELEASE_V1.0.2/MSDK/lwip/lwip-2.1.2/port\wifi_netif.c ****     \param[in]  mask: IPv4 network mask
 454:C:/Users/stapi/OneDrive/Desktop/GD32VW553/GD32VW55X_Wifi_BLE_SDK/GD32VW55x_RELEASE_V1.0.2/MSDK/lwip/lwip-2.1.2/port\wifi_netif.c ****     \param[in]  gw: IPv4 gateway address
 455:C:/Users/stapi/OneDrive/Desktop/GD32VW553/GD32VW55X_Wifi_BLE_SDK/GD32VW55x_RELEASE_V1.0.2/MSDK/lwip/lwip-2.1.2/port\wifi_netif.c ****     \param[out] none
 456:C:/Users/stapi/OneDrive/Desktop/GD32VW553/GD32VW55X_Wifi_BLE_SDK/GD32VW55x_RELEASE_V1.0.2/MSDK/lwip/lwip-2.1.2/port\wifi_netif.c ****     \retval     0 if requested parameters have been updated successfully and !=0 otherwise.
 457:C:/Users/stapi/OneDrive/Desktop/GD32VW553/GD32VW55X_Wifi_BLE_SDK/GD32VW55x_RELEASE_V1.0.2/MSDK/lwip/lwip-2.1.2/port\wifi_netif.c **** */
 458:C:/Users/stapi/OneDrive/Desktop/GD32VW553/GD32VW55X_Wifi_BLE_SDK/GD32VW55x_RELEASE_V1.0.2/MSDK/lwip/lwip-2.1.2/port\wifi_netif.c **** int net_if_get_ip(void *net_if, uint32_t *ip, uint32_t *mask, uint32_t *gw)
 459:C:/Users/stapi/OneDrive/Desktop/GD32VW553/GD32VW55X_Wifi_BLE_SDK/GD32VW55x_RELEASE_V1.0.2/MSDK/lwip/lwip-2.1.2/port\wifi_netif.c **** {
 460:C:/Users/stapi/OneDrive/Desktop/GD32VW553/GD32VW55X_Wifi_BLE_SDK/GD32VW55x_RELEASE_V1.0.2/MSDK/lwip/lwip-2.1.2/port\wifi_netif.c ****     struct netif *netif = (struct netif *)net_if;
 461:C:/Users/stapi/OneDrive/Desktop/GD32VW553/GD32VW55X_Wifi_BLE_SDK/GD32VW55x_RELEASE_V1.0.2/MSDK/lwip/lwip-2.1.2/port\wifi_netif.c **** 
 462:C:/Users/stapi/OneDrive/Desktop/GD32VW553/GD32VW55X_Wifi_BLE_SDK/GD32VW55x_RELEASE_V1.0.2/MSDK/lwip/lwip-2.1.2/port\wifi_netif.c ****     if (!netif)
 463:C:/Users/stapi/OneDrive/Desktop/GD32VW553/GD32VW55X_Wifi_BLE_SDK/GD32VW55x_RELEASE_V1.0.2/MSDK/lwip/lwip-2.1.2/port\wifi_netif.c ****         return -1;
 464:C:/Users/stapi/OneDrive/Desktop/GD32VW553/GD32VW55X_Wifi_BLE_SDK/GD32VW55x_RELEASE_V1.0.2/MSDK/lwip/lwip-2.1.2/port\wifi_netif.c **** 
 465:C:/Users/stapi/OneDrive/Desktop/GD32VW553/GD32VW55X_Wifi_BLE_SDK/GD32VW55x_RELEASE_V1.0.2/MSDK/lwip/lwip-2.1.2/port\wifi_netif.c ****     if (ip)
 466:C:/Users/stapi/OneDrive/Desktop/GD32VW553/GD32VW55X_Wifi_BLE_SDK/GD32VW55x_RELEASE_V1.0.2/MSDK/lwip/lwip-2.1.2/port\wifi_netif.c ****         *ip = netif_ip4_addr(netif)->addr;
 467:C:/Users/stapi/OneDrive/Desktop/GD32VW553/GD32VW55X_Wifi_BLE_SDK/GD32VW55x_RELEASE_V1.0.2/MSDK/lwip/lwip-2.1.2/port\wifi_netif.c ****     if (mask)
 468:C:/Users/stapi/OneDrive/Desktop/GD32VW553/GD32VW55X_Wifi_BLE_SDK/GD32VW55x_RELEASE_V1.0.2/MSDK/lwip/lwip-2.1.2/port\wifi_netif.c ****         *mask = netif_ip4_netmask(netif)->addr;
 469:C:/Users/stapi/OneDrive/Desktop/GD32VW553/GD32VW55X_Wifi_BLE_SDK/GD32VW55x_RELEASE_V1.0.2/MSDK/lwip/lwip-2.1.2/port\wifi_netif.c ****     if (gw)
 470:C:/Users/stapi/OneDrive/Desktop/GD32VW553/GD32VW55X_Wifi_BLE_SDK/GD32VW55x_RELEASE_V1.0.2/MSDK/lwip/lwip-2.1.2/port\wifi_netif.c ****         *gw = netif_ip4_gw(netif)->addr;
 471:C:/Users/stapi/OneDrive/Desktop/GD32VW553/GD32VW55X_Wifi_BLE_SDK/GD32VW55x_RELEASE_V1.0.2/MSDK/lwip/lwip-2.1.2/port\wifi_netif.c **** 
 472:C:/Users/stapi/OneDrive/Desktop/GD32VW553/GD32VW55X_Wifi_BLE_SDK/GD32VW55x_RELEASE_V1.0.2/MSDK/lwip/lwip-2.1.2/port\wifi_netif.c ****     return 0;
 473:C:/Users/stapi/OneDrive/Desktop/GD32VW553/GD32VW55X_Wifi_BLE_SDK/GD32VW55x_RELEASE_V1.0.2/MSDK/lwip/lwip-2.1.2/port\wifi_netif.c **** }
 474:C:/Users/stapi/OneDrive/Desktop/GD32VW553/GD32VW55X_Wifi_BLE_SDK/GD32VW55x_RELEASE_V1.0.2/MSDK/lwip/lwip-2.1.2/port\wifi_netif.c **** 
 475:C:/Users/stapi/OneDrive/Desktop/GD32VW553/GD32VW55X_Wifi_BLE_SDK/GD32VW55x_RELEASE_V1.0.2/MSDK/lwip/lwip-2.1.2/port\wifi_netif.c **** /*!
 476:C:/Users/stapi/OneDrive/Desktop/GD32VW553/GD32VW55X_Wifi_BLE_SDK/GD32VW55x_RELEASE_V1.0.2/MSDK/lwip/lwip-2.1.2/port\wifi_netif.c ****     \brief      Call the networking stack input function.
 477:C:/Users/stapi/OneDrive/Desktop/GD32VW553/GD32VW55X_Wifi_BLE_SDK/GD32VW55x_RELEASE_V1.0.2/MSDK/lwip/lwip-2.1.2/port\wifi_netif.c ****                 This function is supposed to link the payload data and length to the RX
 478:C:/Users/stapi/OneDrive/Desktop/GD32VW553/GD32VW55X_Wifi_BLE_SDK/GD32VW55x_RELEASE_V1.0.2/MSDK/lwip/lwip-2.1.2/port\wifi_netif.c ****                 buffer structure passed as parameter. The free_fn function shall be called
 479:C:/Users/stapi/OneDrive/Desktop/GD32VW553/GD32VW55X_Wifi_BLE_SDK/GD32VW55x_RELEASE_V1.0.2/MSDK/lwip/lwip-2.1.2/port\wifi_netif.c ****                 when the networking stack is not using the buffer anymore.
 480:C:/Users/stapi/OneDrive/Desktop/GD32VW553/GD32VW55X_Wifi_BLE_SDK/GD32VW55x_RELEASE_V1.0.2/MSDK/lwip/lwip-2.1.2/port\wifi_netif.c ****     \param[in]  buf: Pointer to the RX buffer structure
 481:C:/Users/stapi/OneDrive/Desktop/GD32VW553/GD32VW55X_Wifi_BLE_SDK/GD32VW55x_RELEASE_V1.0.2/MSDK/lwip/lwip-2.1.2/port\wifi_netif.c ****     \param[in]  net_if: Pointer to the net_if structure that receives the packet
 482:C:/Users/stapi/OneDrive/Desktop/GD32VW553/GD32VW55X_Wifi_BLE_SDK/GD32VW55x_RELEASE_V1.0.2/MSDK/lwip/lwip-2.1.2/port\wifi_netif.c ****     \param[in]  addr: Pointer to the payload data
 483:C:/Users/stapi/OneDrive/Desktop/GD32VW553/GD32VW55X_Wifi_BLE_SDK/GD32VW55x_RELEASE_V1.0.2/MSDK/lwip/lwip-2.1.2/port\wifi_netif.c ****     \param[in]  len: Length of the data available at payload address
 484:C:/Users/stapi/OneDrive/Desktop/GD32VW553/GD32VW55X_Wifi_BLE_SDK/GD32VW55x_RELEASE_V1.0.2/MSDK/lwip/lwip-2.1.2/port\wifi_netif.c ****     \param[in]  free_fn: Pointer to buffer freeing function to be called after use
 485:C:/Users/stapi/OneDrive/Desktop/GD32VW553/GD32VW55X_Wifi_BLE_SDK/GD32VW55x_RELEASE_V1.0.2/MSDK/lwip/lwip-2.1.2/port\wifi_netif.c ****     \param[out] none
 486:C:/Users/stapi/OneDrive/Desktop/GD32VW553/GD32VW55X_Wifi_BLE_SDK/GD32VW55x_RELEASE_V1.0.2/MSDK/lwip/lwip-2.1.2/port\wifi_netif.c ****     \retval     0 on success and != 0 if packet is not accepted
 487:C:/Users/stapi/OneDrive/Desktop/GD32VW553/GD32VW55X_Wifi_BLE_SDK/GD32VW55x_RELEASE_V1.0.2/MSDK/lwip/lwip-2.1.2/port\wifi_netif.c **** */
 488:C:/Users/stapi/OneDrive/Desktop/GD32VW553/GD32VW55X_Wifi_BLE_SDK/GD32VW55x_RELEASE_V1.0.2/MSDK/lwip/lwip-2.1.2/port\wifi_netif.c **** int net_if_input(net_buf_rx_t *buf, void *net_if, void *addr, uint16_t len, net_buf_free_fn free_fn
 489:C:/Users/stapi/OneDrive/Desktop/GD32VW553/GD32VW55X_Wifi_BLE_SDK/GD32VW55x_RELEASE_V1.0.2/MSDK/lwip/lwip-2.1.2/port\wifi_netif.c **** {
 490:C:/Users/stapi/OneDrive/Desktop/GD32VW553/GD32VW55X_Wifi_BLE_SDK/GD32VW55x_RELEASE_V1.0.2/MSDK/lwip/lwip-2.1.2/port\wifi_netif.c ****     struct pbuf* p;
 491:C:/Users/stapi/OneDrive/Desktop/GD32VW553/GD32VW55X_Wifi_BLE_SDK/GD32VW55x_RELEASE_V1.0.2/MSDK/lwip/lwip-2.1.2/port\wifi_netif.c ****     struct netif *netif = (struct netif *)net_if;
 492:C:/Users/stapi/OneDrive/Desktop/GD32VW553/GD32VW55X_Wifi_BLE_SDK/GD32VW55x_RELEASE_V1.0.2/MSDK/lwip/lwip-2.1.2/port\wifi_netif.c **** 
 493:C:/Users/stapi/OneDrive/Desktop/GD32VW553/GD32VW55X_Wifi_BLE_SDK/GD32VW55x_RELEASE_V1.0.2/MSDK/lwip/lwip-2.1.2/port\wifi_netif.c ****     buf->custom_free_function = (pbuf_free_custom_fn)free_fn;
 494:C:/Users/stapi/OneDrive/Desktop/GD32VW553/GD32VW55X_Wifi_BLE_SDK/GD32VW55x_RELEASE_V1.0.2/MSDK/lwip/lwip-2.1.2/port\wifi_netif.c ****     p = pbuf_alloced_custom(PBUF_RAW, len, PBUF_REF, buf, addr, len);
 495:C:/Users/stapi/OneDrive/Desktop/GD32VW553/GD32VW55X_Wifi_BLE_SDK/GD32VW55x_RELEASE_V1.0.2/MSDK/lwip/lwip-2.1.2/port\wifi_netif.c ****     if (p == NULL)
 496:C:/Users/stapi/OneDrive/Desktop/GD32VW553/GD32VW55X_Wifi_BLE_SDK/GD32VW55x_RELEASE_V1.0.2/MSDK/lwip/lwip-2.1.2/port\wifi_netif.c ****     {
 497:C:/Users/stapi/OneDrive/Desktop/GD32VW553/GD32VW55X_Wifi_BLE_SDK/GD32VW55x_RELEASE_V1.0.2/MSDK/lwip/lwip-2.1.2/port\wifi_netif.c ****         dbg_print(ERR, "pbuf_alloced_custom NULL\r\n");
 498:C:/Users/stapi/OneDrive/Desktop/GD32VW553/GD32VW55X_Wifi_BLE_SDK/GD32VW55x_RELEASE_V1.0.2/MSDK/lwip/lwip-2.1.2/port\wifi_netif.c ****         free_fn(buf);
 499:C:/Users/stapi/OneDrive/Desktop/GD32VW553/GD32VW55X_Wifi_BLE_SDK/GD32VW55x_RELEASE_V1.0.2/MSDK/lwip/lwip-2.1.2/port\wifi_netif.c ****         return -1;
 500:C:/Users/stapi/OneDrive/Desktop/GD32VW553/GD32VW55X_Wifi_BLE_SDK/GD32VW55x_RELEASE_V1.0.2/MSDK/lwip/lwip-2.1.2/port\wifi_netif.c ****     }
 501:C:/Users/stapi/OneDrive/Desktop/GD32VW553/GD32VW55X_Wifi_BLE_SDK/GD32VW55x_RELEASE_V1.0.2/MSDK/lwip/lwip-2.1.2/port\wifi_netif.c **** 
 502:C:/Users/stapi/OneDrive/Desktop/GD32VW553/GD32VW55X_Wifi_BLE_SDK/GD32VW55x_RELEASE_V1.0.2/MSDK/lwip/lwip-2.1.2/port\wifi_netif.c ****     if (netif->input(p, netif))
 503:C:/Users/stapi/OneDrive/Desktop/GD32VW553/GD32VW55X_Wifi_BLE_SDK/GD32VW55x_RELEASE_V1.0.2/MSDK/lwip/lwip-2.1.2/port\wifi_netif.c ****     {
 504:C:/Users/stapi/OneDrive/Desktop/GD32VW553/GD32VW55X_Wifi_BLE_SDK/GD32VW55x_RELEASE_V1.0.2/MSDK/lwip/lwip-2.1.2/port\wifi_netif.c ****         free_fn(buf);
 505:C:/Users/stapi/OneDrive/Desktop/GD32VW553/GD32VW55X_Wifi_BLE_SDK/GD32VW55x_RELEASE_V1.0.2/MSDK/lwip/lwip-2.1.2/port\wifi_netif.c ****         return -1;
 506:C:/Users/stapi/OneDrive/Desktop/GD32VW553/GD32VW55X_Wifi_BLE_SDK/GD32VW55x_RELEASE_V1.0.2/MSDK/lwip/lwip-2.1.2/port\wifi_netif.c ****     }
 507:C:/Users/stapi/OneDrive/Desktop/GD32VW553/GD32VW55X_Wifi_BLE_SDK/GD32VW55x_RELEASE_V1.0.2/MSDK/lwip/lwip-2.1.2/port\wifi_netif.c **** 
 508:C:/Users/stapi/OneDrive/Desktop/GD32VW553/GD32VW55X_Wifi_BLE_SDK/GD32VW55x_RELEASE_V1.0.2/MSDK/lwip/lwip-2.1.2/port\wifi_netif.c ****     return 0;
 509:C:/Users/stapi/OneDrive/Desktop/GD32VW553/GD32VW55X_Wifi_BLE_SDK/GD32VW55x_RELEASE_V1.0.2/MSDK/lwip/lwip-2.1.2/port\wifi_netif.c **** }
 510:C:/Users/stapi/OneDrive/Desktop/GD32VW553/GD32VW55X_Wifi_BLE_SDK/GD32VW55x_RELEASE_V1.0.2/MSDK/lwip/lwip-2.1.2/port\wifi_netif.c **** 
 511:C:/Users/stapi/OneDrive/Desktop/GD32VW553/GD32VW55X_Wifi_BLE_SDK/GD32VW55x_RELEASE_V1.0.2/MSDK/lwip/lwip-2.1.2/port\wifi_netif.c **** /*!
 512:C:/Users/stapi/OneDrive/Desktop/GD32VW553/GD32VW55X_Wifi_BLE_SDK/GD32VW55x_RELEASE_V1.0.2/MSDK/lwip/lwip-2.1.2/port\wifi_netif.c ****     \brief      Get the pointer to the VIF private structure attached to a net interface.
 513:C:/Users/stapi/OneDrive/Desktop/GD32VW553/GD32VW55X_Wifi_BLE_SDK/GD32VW55x_RELEASE_V1.0.2/MSDK/lwip/lwip-2.1.2/port\wifi_netif.c ****     \param[in]  net_if: Pointer to the net_if structure
 514:C:/Users/stapi/OneDrive/Desktop/GD32VW553/GD32VW55X_Wifi_BLE_SDK/GD32VW55x_RELEASE_V1.0.2/MSDK/lwip/lwip-2.1.2/port\wifi_netif.c ****     \param[out] none
 515:C:/Users/stapi/OneDrive/Desktop/GD32VW553/GD32VW55X_Wifi_BLE_SDK/GD32VW55x_RELEASE_V1.0.2/MSDK/lwip/lwip-2.1.2/port\wifi_netif.c ****     \retval     The pointer to the VIF private structure attached to the net interface
 516:C:/Users/stapi/OneDrive/Desktop/GD32VW553/GD32VW55X_Wifi_BLE_SDK/GD32VW55x_RELEASE_V1.0.2/MSDK/lwip/lwip-2.1.2/port\wifi_netif.c ****                 when it has been initialized (@ref net_if_add)
 517:C:/Users/stapi/OneDrive/Desktop/GD32VW553/GD32VW55X_Wifi_BLE_SDK/GD32VW55x_RELEASE_V1.0.2/MSDK/lwip/lwip-2.1.2/port\wifi_netif.c **** */
 518:C:/Users/stapi/OneDrive/Desktop/GD32VW553/GD32VW55X_Wifi_BLE_SDK/GD32VW55x_RELEASE_V1.0.2/MSDK/lwip/lwip-2.1.2/port\wifi_netif.c **** void *net_if_vif_info(void *net_if)
 519:C:/Users/stapi/OneDrive/Desktop/GD32VW553/GD32VW55X_Wifi_BLE_SDK/GD32VW55x_RELEASE_V1.0.2/MSDK/lwip/lwip-2.1.2/port\wifi_netif.c **** {
 520:C:/Users/stapi/OneDrive/Desktop/GD32VW553/GD32VW55X_Wifi_BLE_SDK/GD32VW55x_RELEASE_V1.0.2/MSDK/lwip/lwip-2.1.2/port\wifi_netif.c ****     struct netif *netif = (struct netif *)net_if;
 521:C:/Users/stapi/OneDrive/Desktop/GD32VW553/GD32VW55X_Wifi_BLE_SDK/GD32VW55x_RELEASE_V1.0.2/MSDK/lwip/lwip-2.1.2/port\wifi_netif.c **** 
 522:C:/Users/stapi/OneDrive/Desktop/GD32VW553/GD32VW55X_Wifi_BLE_SDK/GD32VW55x_RELEASE_V1.0.2/MSDK/lwip/lwip-2.1.2/port\wifi_netif.c ****     return netif->state;
 523:C:/Users/stapi/OneDrive/Desktop/GD32VW553/GD32VW55X_Wifi_BLE_SDK/GD32VW55x_RELEASE_V1.0.2/MSDK/lwip/lwip-2.1.2/port\wifi_netif.c **** }
 524:C:/Users/stapi/OneDrive/Desktop/GD32VW553/GD32VW55X_Wifi_BLE_SDK/GD32VW55x_RELEASE_V1.0.2/MSDK/lwip/lwip-2.1.2/port\wifi_netif.c **** 
 525:C:/Users/stapi/OneDrive/Desktop/GD32VW553/GD32VW55X_Wifi_BLE_SDK/GD32VW55x_RELEASE_V1.0.2/MSDK/lwip/lwip-2.1.2/port\wifi_netif.c **** /*!
 526:C:/Users/stapi/OneDrive/Desktop/GD32VW553/GD32VW55X_Wifi_BLE_SDK/GD32VW55x_RELEASE_V1.0.2/MSDK/lwip/lwip-2.1.2/port\wifi_netif.c ****     \brief      Allocate a buffer for TX.
 527:C:/Users/stapi/OneDrive/Desktop/GD32VW553/GD32VW55X_Wifi_BLE_SDK/GD32VW55x_RELEASE_V1.0.2/MSDK/lwip/lwip-2.1.2/port\wifi_netif.c ****                 This function is used to transmit buffer that do not originate from the
 528:C:/Users/stapi/OneDrive/Desktop/GD32VW553/GD32VW55X_Wifi_BLE_SDK/GD32VW55x_RELEASE_V1.0.2/MSDK/lwip/lwip-2.1.2/port\wifi_netif.c ****                 Network Stack. (e.g. a management frame sent by wpa)
 529:C:/Users/stapi/OneDrive/Desktop/GD32VW553/GD32VW55X_Wifi_BLE_SDK/GD32VW55x_RELEASE_V1.0.2/MSDK/lwip/lwip-2.1.2/port\wifi_netif.c ****                 This function allocates a buffer for transmission. The buffer must still
 530:C:/Users/stapi/OneDrive/Desktop/GD32VW553/GD32VW55X_Wifi_BLE_SDK/GD32VW55x_RELEASE_V1.0.2/MSDK/lwip/lwip-2.1.2/port\wifi_netif.c ****                 reserve @ref NET_AL_TX_HEADROOM headroom space like for regular TX buffers.
 531:C:/Users/stapi/OneDrive/Desktop/GD32VW553/GD32VW55X_Wifi_BLE_SDK/GD32VW55x_RELEASE_V1.0.2/MSDK/lwip/lwip-2.1.2/port\wifi_netif.c ****     \param[in]  length: Size, in bytes, of the payload
 532:C:/Users/stapi/OneDrive/Desktop/GD32VW553/GD32VW55X_Wifi_BLE_SDK/GD32VW55x_RELEASE_V1.0.2/MSDK/lwip/lwip-2.1.2/port\wifi_netif.c ****     \param[out] none
 533:C:/Users/stapi/OneDrive/Desktop/GD32VW553/GD32VW55X_Wifi_BLE_SDK/GD32VW55x_RELEASE_V1.0.2/MSDK/lwip/lwip-2.1.2/port\wifi_netif.c ****     \retval     The pointer to the allocated TX buffer and NULL if allocation failed
 534:C:/Users/stapi/OneDrive/Desktop/GD32VW553/GD32VW55X_Wifi_BLE_SDK/GD32VW55x_RELEASE_V1.0.2/MSDK/lwip/lwip-2.1.2/port\wifi_netif.c **** */
 535:C:/Users/stapi/OneDrive/Desktop/GD32VW553/GD32VW55X_Wifi_BLE_SDK/GD32VW55x_RELEASE_V1.0.2/MSDK/lwip/lwip-2.1.2/port\wifi_netif.c **** net_buf_tx_t *net_buf_tx_alloc(uint32_t length)
 536:C:/Users/stapi/OneDrive/Desktop/GD32VW553/GD32VW55X_Wifi_BLE_SDK/GD32VW55x_RELEASE_V1.0.2/MSDK/lwip/lwip-2.1.2/port\wifi_netif.c **** {
 537:C:/Users/stapi/OneDrive/Desktop/GD32VW553/GD32VW55X_Wifi_BLE_SDK/GD32VW55x_RELEASE_V1.0.2/MSDK/lwip/lwip-2.1.2/port\wifi_netif.c ****     struct pbuf *pbuf;
 538:C:/Users/stapi/OneDrive/Desktop/GD32VW553/GD32VW55X_Wifi_BLE_SDK/GD32VW55x_RELEASE_V1.0.2/MSDK/lwip/lwip-2.1.2/port\wifi_netif.c **** 
 539:C:/Users/stapi/OneDrive/Desktop/GD32VW553/GD32VW55X_Wifi_BLE_SDK/GD32VW55x_RELEASE_V1.0.2/MSDK/lwip/lwip-2.1.2/port\wifi_netif.c ****     pbuf = pbuf_alloc(PBUF_RAW_TX, length, PBUF_RAM);
 540:C:/Users/stapi/OneDrive/Desktop/GD32VW553/GD32VW55X_Wifi_BLE_SDK/GD32VW55x_RELEASE_V1.0.2/MSDK/lwip/lwip-2.1.2/port\wifi_netif.c ****     if (pbuf == NULL)
 541:C:/Users/stapi/OneDrive/Desktop/GD32VW553/GD32VW55X_Wifi_BLE_SDK/GD32VW55x_RELEASE_V1.0.2/MSDK/lwip/lwip-2.1.2/port\wifi_netif.c ****         return NULL;
 542:C:/Users/stapi/OneDrive/Desktop/GD32VW553/GD32VW55X_Wifi_BLE_SDK/GD32VW55x_RELEASE_V1.0.2/MSDK/lwip/lwip-2.1.2/port\wifi_netif.c **** 
 543:C:/Users/stapi/OneDrive/Desktop/GD32VW553/GD32VW55X_Wifi_BLE_SDK/GD32VW55x_RELEASE_V1.0.2/MSDK/lwip/lwip-2.1.2/port\wifi_netif.c ****     return pbuf;
 544:C:/Users/stapi/OneDrive/Desktop/GD32VW553/GD32VW55X_Wifi_BLE_SDK/GD32VW55x_RELEASE_V1.0.2/MSDK/lwip/lwip-2.1.2/port\wifi_netif.c **** }
 545:C:/Users/stapi/OneDrive/Desktop/GD32VW553/GD32VW55X_Wifi_BLE_SDK/GD32VW55x_RELEASE_V1.0.2/MSDK/lwip/lwip-2.1.2/port\wifi_netif.c **** 
 546:C:/Users/stapi/OneDrive/Desktop/GD32VW553/GD32VW55X_Wifi_BLE_SDK/GD32VW55x_RELEASE_V1.0.2/MSDK/lwip/lwip-2.1.2/port\wifi_netif.c **** /*!
 547:C:/Users/stapi/OneDrive/Desktop/GD32VW553/GD32VW55X_Wifi_BLE_SDK/GD32VW55x_RELEASE_V1.0.2/MSDK/lwip/lwip-2.1.2/port\wifi_netif.c ****     \brief      Allocate a buffer for TX with a reference to a payload.
 548:C:/Users/stapi/OneDrive/Desktop/GD32VW553/GD32VW55X_Wifi_BLE_SDK/GD32VW55x_RELEASE_V1.0.2/MSDK/lwip/lwip-2.1.2/port\wifi_netif.c ****                 This function allocates a buffer for transmission. It only allocates
 549:C:/Users/stapi/OneDrive/Desktop/GD32VW553/GD32VW55X_Wifi_BLE_SDK/GD32VW55x_RELEASE_V1.0.2/MSDK/lwip/lwip-2.1.2/port\wifi_netif.c ****                 memory for the TX buffer structure. The pointer to the payload
 550:C:/Users/stapi/OneDrive/Desktop/GD32VW553/GD32VW55X_Wifi_BLE_SDK/GD32VW55x_RELEASE_V1.0.2/MSDK/lwip/lwip-2.1.2/port\wifi_netif.c ****                 is set to NULL and should be updated.
 551:C:/Users/stapi/OneDrive/Desktop/GD32VW553/GD32VW55X_Wifi_BLE_SDK/GD32VW55x_RELEASE_V1.0.2/MSDK/lwip/lwip-2.1.2/port\wifi_netif.c ****     \param[in]  length: Size, in bytes, of the payload
 552:C:/Users/stapi/OneDrive/Desktop/GD32VW553/GD32VW55X_Wifi_BLE_SDK/GD32VW55x_RELEASE_V1.0.2/MSDK/lwip/lwip-2.1.2/port\wifi_netif.c ****     \param[out] none
 553:C:/Users/stapi/OneDrive/Desktop/GD32VW553/GD32VW55X_Wifi_BLE_SDK/GD32VW55x_RELEASE_V1.0.2/MSDK/lwip/lwip-2.1.2/port\wifi_netif.c ****     \retval     The pointer to the allocated TX buffer and NULL if allocation failed
 554:C:/Users/stapi/OneDrive/Desktop/GD32VW553/GD32VW55X_Wifi_BLE_SDK/GD32VW55x_RELEASE_V1.0.2/MSDK/lwip/lwip-2.1.2/port\wifi_netif.c **** */
 555:C:/Users/stapi/OneDrive/Desktop/GD32VW553/GD32VW55X_Wifi_BLE_SDK/GD32VW55x_RELEASE_V1.0.2/MSDK/lwip/lwip-2.1.2/port\wifi_netif.c **** net_buf_tx_t *net_buf_tx_alloc_ref(uint32_t length)
 556:C:/Users/stapi/OneDrive/Desktop/GD32VW553/GD32VW55X_Wifi_BLE_SDK/GD32VW55x_RELEASE_V1.0.2/MSDK/lwip/lwip-2.1.2/port\wifi_netif.c **** {
 557:C:/Users/stapi/OneDrive/Desktop/GD32VW553/GD32VW55X_Wifi_BLE_SDK/GD32VW55x_RELEASE_V1.0.2/MSDK/lwip/lwip-2.1.2/port\wifi_netif.c ****     struct pbuf *pbuf;
 558:C:/Users/stapi/OneDrive/Desktop/GD32VW553/GD32VW55X_Wifi_BLE_SDK/GD32VW55x_RELEASE_V1.0.2/MSDK/lwip/lwip-2.1.2/port\wifi_netif.c **** 
 559:C:/Users/stapi/OneDrive/Desktop/GD32VW553/GD32VW55X_Wifi_BLE_SDK/GD32VW55x_RELEASE_V1.0.2/MSDK/lwip/lwip-2.1.2/port\wifi_netif.c ****     pbuf = pbuf_alloc(PBUF_RAW_TX, length, PBUF_REF);
 560:C:/Users/stapi/OneDrive/Desktop/GD32VW553/GD32VW55X_Wifi_BLE_SDK/GD32VW55x_RELEASE_V1.0.2/MSDK/lwip/lwip-2.1.2/port\wifi_netif.c ****     if (pbuf == NULL)
 561:C:/Users/stapi/OneDrive/Desktop/GD32VW553/GD32VW55X_Wifi_BLE_SDK/GD32VW55x_RELEASE_V1.0.2/MSDK/lwip/lwip-2.1.2/port\wifi_netif.c ****         return NULL;
 562:C:/Users/stapi/OneDrive/Desktop/GD32VW553/GD32VW55X_Wifi_BLE_SDK/GD32VW55x_RELEASE_V1.0.2/MSDK/lwip/lwip-2.1.2/port\wifi_netif.c **** 
 563:C:/Users/stapi/OneDrive/Desktop/GD32VW553/GD32VW55X_Wifi_BLE_SDK/GD32VW55x_RELEASE_V1.0.2/MSDK/lwip/lwip-2.1.2/port\wifi_netif.c ****     return pbuf;
 564:C:/Users/stapi/OneDrive/Desktop/GD32VW553/GD32VW55X_Wifi_BLE_SDK/GD32VW55x_RELEASE_V1.0.2/MSDK/lwip/lwip-2.1.2/port\wifi_netif.c **** }
 565:C:/Users/stapi/OneDrive/Desktop/GD32VW553/GD32VW55X_Wifi_BLE_SDK/GD32VW55x_RELEASE_V1.0.2/MSDK/lwip/lwip-2.1.2/port\wifi_netif.c **** 
 566:C:/Users/stapi/OneDrive/Desktop/GD32VW553/GD32VW55X_Wifi_BLE_SDK/GD32VW55x_RELEASE_V1.0.2/MSDK/lwip/lwip-2.1.2/port\wifi_netif.c **** /*!
 567:C:/Users/stapi/OneDrive/Desktop/GD32VW553/GD32VW55X_Wifi_BLE_SDK/GD32VW55x_RELEASE_V1.0.2/MSDK/lwip/lwip-2.1.2/port\wifi_netif.c ****     \brief      Provides information on a TX buffer.
 568:C:/Users/stapi/OneDrive/Desktop/GD32VW553/GD32VW55X_Wifi_BLE_SDK/GD32VW55x_RELEASE_V1.0.2/MSDK/lwip/lwip-2.1.2/port\wifi_netif.c ****                 This function is used by the WIFI module before queuing the buffer for
 569:C:/Users/stapi/OneDrive/Desktop/GD32VW553/GD32VW55X_Wifi_BLE_SDK/GD32VW55x_RELEASE_V1.0.2/MSDK/lwip/lwip-2.1.2/port\wifi_netif.c ****                 transmission. This function must returns information (pointer and length)
 570:C:/Users/stapi/OneDrive/Desktop/GD32VW553/GD32VW55X_Wifi_BLE_SDK/GD32VW55x_RELEASE_V1.0.2/MSDK/lwip/lwip-2.1.2/port\wifi_netif.c ****                 on all data segments that compose the buffer. Each buffer must at least
 571:C:/Users/stapi/OneDrive/Desktop/GD32VW553/GD32VW55X_Wifi_BLE_SDK/GD32VW55x_RELEASE_V1.0.2/MSDK/lwip/lwip-2.1.2/port\wifi_netif.c ****                 have one data segment. It must also return a pointer to the headroom
 572:C:/Users/stapi/OneDrive/Desktop/GD32VW553/GD32VW55X_Wifi_BLE_SDK/GD32VW55x_RELEASE_V1.0.2/MSDK/lwip/lwip-2.1.2/port\wifi_netif.c ****                 (of size @ref NET_AL_TX_HEADROOM) which must be reserved for each TX
 573:C:/Users/stapi/OneDrive/Desktop/GD32VW553/GD32VW55X_Wifi_BLE_SDK/GD32VW55x_RELEASE_V1.0.2/MSDK/lwip/lwip-2.1.2/port\wifi_netif.c ****                 buffer on their first data segment.
 574:C:/Users/stapi/OneDrive/Desktop/GD32VW553/GD32VW55X_Wifi_BLE_SDK/GD32VW55x_RELEASE_V1.0.2/MSDK/lwip/lwip-2.1.2/port\wifi_netif.c ****     \param[in]      buf: Pointer to the TX buffer structure
 575:C:/Users/stapi/OneDrive/Desktop/GD32VW553/GD32VW55X_Wifi_BLE_SDK/GD32VW55x_RELEASE_V1.0.2/MSDK/lwip/lwip-2.1.2/port\wifi_netif.c ****     \param[in]      tot_len: Total size in bytes on the buffer (includes size of all data segment)
 576:C:/Users/stapi/OneDrive/Desktop/GD32VW553/GD32VW55X_Wifi_BLE_SDK/GD32VW55x_RELEASE_V1.0.2/MSDK/lwip/lwip-2.1.2/port\wifi_netif.c ****     \param[in,out]  seg_cnt: Contains the maximum number of data segment supported (i.e.
 577:C:/Users/stapi/OneDrive/Desktop/GD32VW553/GD32VW55X_Wifi_BLE_SDK/GD32VW55x_RELEASE_V1.0.2/MSDK/lwip/lwip-2.1.2/port\wifi_netif.c ****                              the size of @p seg_addr and @p seg_len parameter) and must be
 578:C:/Users/stapi/OneDrive/Desktop/GD32VW553/GD32VW55X_Wifi_BLE_SDK/GD32VW55x_RELEASE_V1.0.2/MSDK/lwip/lwip-2.1.2/port\wifi_netif.c ****                              updated with the actual number of segment in this buffer.
 579:C:/Users/stapi/OneDrive/Desktop/GD32VW553/GD32VW55X_Wifi_BLE_SDK/GD32VW55x_RELEASE_V1.0.2/MSDK/lwip/lwip-2.1.2/port\wifi_netif.c ****     \param[out]     seg_addr: Table to retrieve the address of each segment.
 580:C:/Users/stapi/OneDrive/Desktop/GD32VW553/GD32VW55X_Wifi_BLE_SDK/GD32VW55x_RELEASE_V1.0.2/MSDK/lwip/lwip-2.1.2/port\wifi_netif.c ****     \param[out]     seg_len: Table to retrieve the length, in bytes, of each segment.
 581:C:/Users/stapi/OneDrive/Desktop/GD32VW553/GD32VW55X_Wifi_BLE_SDK/GD32VW55x_RELEASE_V1.0.2/MSDK/lwip/lwip-2.1.2/port\wifi_netif.c ****     \retval     The pointer to the headroom reserved at the beginning of the first data segment
 582:C:/Users/stapi/OneDrive/Desktop/GD32VW553/GD32VW55X_Wifi_BLE_SDK/GD32VW55x_RELEASE_V1.0.2/MSDK/lwip/lwip-2.1.2/port\wifi_netif.c **** */
 583:C:/Users/stapi/OneDrive/Desktop/GD32VW553/GD32VW55X_Wifi_BLE_SDK/GD32VW55x_RELEASE_V1.0.2/MSDK/lwip/lwip-2.1.2/port\wifi_netif.c **** void *net_buf_tx_info(net_buf_tx_t *buf, uint16_t *tot_len, int *seg_cnt,
 584:C:/Users/stapi/OneDrive/Desktop/GD32VW553/GD32VW55X_Wifi_BLE_SDK/GD32VW55x_RELEASE_V1.0.2/MSDK/lwip/lwip-2.1.2/port\wifi_netif.c ****                       uint32_t seg_addr[], uint16_t seg_len[])
 585:C:/Users/stapi/OneDrive/Desktop/GD32VW553/GD32VW55X_Wifi_BLE_SDK/GD32VW55x_RELEASE_V1.0.2/MSDK/lwip/lwip-2.1.2/port\wifi_netif.c **** {
 586:C:/Users/stapi/OneDrive/Desktop/GD32VW553/GD32VW55X_Wifi_BLE_SDK/GD32VW55x_RELEASE_V1.0.2/MSDK/lwip/lwip-2.1.2/port\wifi_netif.c ****     int idx, seg_cnt_max = *seg_cnt;
 587:C:/Users/stapi/OneDrive/Desktop/GD32VW553/GD32VW55X_Wifi_BLE_SDK/GD32VW55x_RELEASE_V1.0.2/MSDK/lwip/lwip-2.1.2/port\wifi_netif.c ****     uint16_t length = buf->tot_len;
 588:C:/Users/stapi/OneDrive/Desktop/GD32VW553/GD32VW55X_Wifi_BLE_SDK/GD32VW55x_RELEASE_V1.0.2/MSDK/lwip/lwip-2.1.2/port\wifi_netif.c ****     void *headroom;
 589:C:/Users/stapi/OneDrive/Desktop/GD32VW553/GD32VW55X_Wifi_BLE_SDK/GD32VW55x_RELEASE_V1.0.2/MSDK/lwip/lwip-2.1.2/port\wifi_netif.c **** 
 590:C:/Users/stapi/OneDrive/Desktop/GD32VW553/GD32VW55X_Wifi_BLE_SDK/GD32VW55x_RELEASE_V1.0.2/MSDK/lwip/lwip-2.1.2/port\wifi_netif.c ****     *tot_len = length;
 591:C:/Users/stapi/OneDrive/Desktop/GD32VW553/GD32VW55X_Wifi_BLE_SDK/GD32VW55x_RELEASE_V1.0.2/MSDK/lwip/lwip-2.1.2/port\wifi_netif.c **** 
 592:C:/Users/stapi/OneDrive/Desktop/GD32VW553/GD32VW55X_Wifi_BLE_SDK/GD32VW55x_RELEASE_V1.0.2/MSDK/lwip/lwip-2.1.2/port\wifi_netif.c ****     // Sanity check - the payload shall be in shared RAM
 593:C:/Users/stapi/OneDrive/Desktop/GD32VW553/GD32VW55X_Wifi_BLE_SDK/GD32VW55x_RELEASE_V1.0.2/MSDK/lwip/lwip-2.1.2/port\wifi_netif.c ****     // GD32VW55X_TODO need check why?
 594:C:/Users/stapi/OneDrive/Desktop/GD32VW553/GD32VW55X_Wifi_BLE_SDK/GD32VW55x_RELEASE_V1.0.2/MSDK/lwip/lwip-2.1.2/port\wifi_netif.c ****     // ASSERT_ERR(!TST_SHRAM_PTR(buf->payload));
 595:C:/Users/stapi/OneDrive/Desktop/GD32VW553/GD32VW55X_Wifi_BLE_SDK/GD32VW55x_RELEASE_V1.0.2/MSDK/lwip/lwip-2.1.2/port\wifi_netif.c ****     seg_addr[0] = (uint32_t)buf->payload;
 596:C:/Users/stapi/OneDrive/Desktop/GD32VW553/GD32VW55X_Wifi_BLE_SDK/GD32VW55x_RELEASE_V1.0.2/MSDK/lwip/lwip-2.1.2/port\wifi_netif.c ****     seg_len[0] = buf->len;
 597:C:/Users/stapi/OneDrive/Desktop/GD32VW553/GD32VW55X_Wifi_BLE_SDK/GD32VW55x_RELEASE_V1.0.2/MSDK/lwip/lwip-2.1.2/port\wifi_netif.c ****     length -= buf->len;
 598:C:/Users/stapi/OneDrive/Desktop/GD32VW553/GD32VW55X_Wifi_BLE_SDK/GD32VW55x_RELEASE_V1.0.2/MSDK/lwip/lwip-2.1.2/port\wifi_netif.c **** 
 599:C:/Users/stapi/OneDrive/Desktop/GD32VW553/GD32VW55X_Wifi_BLE_SDK/GD32VW55x_RELEASE_V1.0.2/MSDK/lwip/lwip-2.1.2/port\wifi_netif.c ****     // Get pointer to reserved headroom
 600:C:/Users/stapi/OneDrive/Desktop/GD32VW553/GD32VW55X_Wifi_BLE_SDK/GD32VW55x_RELEASE_V1.0.2/MSDK/lwip/lwip-2.1.2/port\wifi_netif.c ****     if (pbuf_header(buf, PBUF_LINK_ENCAPSULATION_HLEN))
 601:C:/Users/stapi/OneDrive/Desktop/GD32VW553/GD32VW55X_Wifi_BLE_SDK/GD32VW55x_RELEASE_V1.0.2/MSDK/lwip/lwip-2.1.2/port\wifi_netif.c ****     {
 602:C:/Users/stapi/OneDrive/Desktop/GD32VW553/GD32VW55X_Wifi_BLE_SDK/GD32VW55x_RELEASE_V1.0.2/MSDK/lwip/lwip-2.1.2/port\wifi_netif.c ****         // Sanity check - we shall have enough space in the buffer
 603:C:/Users/stapi/OneDrive/Desktop/GD32VW553/GD32VW55X_Wifi_BLE_SDK/GD32VW55x_RELEASE_V1.0.2/MSDK/lwip/lwip-2.1.2/port\wifi_netif.c ****         dbg_print(ERR, "pbuf_header() failed\r\n");
 604:C:/Users/stapi/OneDrive/Desktop/GD32VW553/GD32VW55X_Wifi_BLE_SDK/GD32VW55x_RELEASE_V1.0.2/MSDK/lwip/lwip-2.1.2/port\wifi_netif.c ****         return NULL;
 605:C:/Users/stapi/OneDrive/Desktop/GD32VW553/GD32VW55X_Wifi_BLE_SDK/GD32VW55x_RELEASE_V1.0.2/MSDK/lwip/lwip-2.1.2/port\wifi_netif.c ****     }
 606:C:/Users/stapi/OneDrive/Desktop/GD32VW553/GD32VW55X_Wifi_BLE_SDK/GD32VW55x_RELEASE_V1.0.2/MSDK/lwip/lwip-2.1.2/port\wifi_netif.c ****     headroom = (void *)CO_ALIGN4_HI((uint32_t)buf->payload);
 607:C:/Users/stapi/OneDrive/Desktop/GD32VW553/GD32VW55X_Wifi_BLE_SDK/GD32VW55x_RELEASE_V1.0.2/MSDK/lwip/lwip-2.1.2/port\wifi_netif.c **** 
 608:C:/Users/stapi/OneDrive/Desktop/GD32VW553/GD32VW55X_Wifi_BLE_SDK/GD32VW55x_RELEASE_V1.0.2/MSDK/lwip/lwip-2.1.2/port\wifi_netif.c ****     // Get info of extra segments if any
 609:C:/Users/stapi/OneDrive/Desktop/GD32VW553/GD32VW55X_Wifi_BLE_SDK/GD32VW55x_RELEASE_V1.0.2/MSDK/lwip/lwip-2.1.2/port\wifi_netif.c ****     buf = buf->next;
 610:C:/Users/stapi/OneDrive/Desktop/GD32VW553/GD32VW55X_Wifi_BLE_SDK/GD32VW55x_RELEASE_V1.0.2/MSDK/lwip/lwip-2.1.2/port\wifi_netif.c ****     idx = 1;
 611:C:/Users/stapi/OneDrive/Desktop/GD32VW553/GD32VW55X_Wifi_BLE_SDK/GD32VW55x_RELEASE_V1.0.2/MSDK/lwip/lwip-2.1.2/port\wifi_netif.c ****     while (length && buf && (idx < seg_cnt_max))
 612:C:/Users/stapi/OneDrive/Desktop/GD32VW553/GD32VW55X_Wifi_BLE_SDK/GD32VW55x_RELEASE_V1.0.2/MSDK/lwip/lwip-2.1.2/port\wifi_netif.c ****     {
 613:C:/Users/stapi/OneDrive/Desktop/GD32VW553/GD32VW55X_Wifi_BLE_SDK/GD32VW55x_RELEASE_V1.0.2/MSDK/lwip/lwip-2.1.2/port\wifi_netif.c ****         // Sanity check - the payload shall be in shared RAM
 614:C:/Users/stapi/OneDrive/Desktop/GD32VW553/GD32VW55X_Wifi_BLE_SDK/GD32VW55x_RELEASE_V1.0.2/MSDK/lwip/lwip-2.1.2/port\wifi_netif.c ****         // GD32VW55X_TODO why?
 615:C:/Users/stapi/OneDrive/Desktop/GD32VW553/GD32VW55X_Wifi_BLE_SDK/GD32VW55x_RELEASE_V1.0.2/MSDK/lwip/lwip-2.1.2/port\wifi_netif.c ****         // ASSERT_ERR(!TST_SHRAM_PTR(buf->payload));
 616:C:/Users/stapi/OneDrive/Desktop/GD32VW553/GD32VW55X_Wifi_BLE_SDK/GD32VW55x_RELEASE_V1.0.2/MSDK/lwip/lwip-2.1.2/port\wifi_netif.c **** 
 617:C:/Users/stapi/OneDrive/Desktop/GD32VW553/GD32VW55X_Wifi_BLE_SDK/GD32VW55x_RELEASE_V1.0.2/MSDK/lwip/lwip-2.1.2/port\wifi_netif.c ****         seg_addr[idx] = (uint32_t)buf->payload;
 618:C:/Users/stapi/OneDrive/Desktop/GD32VW553/GD32VW55X_Wifi_BLE_SDK/GD32VW55x_RELEASE_V1.0.2/MSDK/lwip/lwip-2.1.2/port\wifi_netif.c ****         seg_len[idx] = buf->len;
 619:C:/Users/stapi/OneDrive/Desktop/GD32VW553/GD32VW55X_Wifi_BLE_SDK/GD32VW55x_RELEASE_V1.0.2/MSDK/lwip/lwip-2.1.2/port\wifi_netif.c ****         length -= buf->len;
 620:C:/Users/stapi/OneDrive/Desktop/GD32VW553/GD32VW55X_Wifi_BLE_SDK/GD32VW55x_RELEASE_V1.0.2/MSDK/lwip/lwip-2.1.2/port\wifi_netif.c ****         idx++;
 621:C:/Users/stapi/OneDrive/Desktop/GD32VW553/GD32VW55X_Wifi_BLE_SDK/GD32VW55x_RELEASE_V1.0.2/MSDK/lwip/lwip-2.1.2/port\wifi_netif.c ****         buf = buf->next;
 622:C:/Users/stapi/OneDrive/Desktop/GD32VW553/GD32VW55X_Wifi_BLE_SDK/GD32VW55x_RELEASE_V1.0.2/MSDK/lwip/lwip-2.1.2/port\wifi_netif.c ****     }
 623:C:/Users/stapi/OneDrive/Desktop/GD32VW553/GD32VW55X_Wifi_BLE_SDK/GD32VW55x_RELEASE_V1.0.2/MSDK/lwip/lwip-2.1.2/port\wifi_netif.c **** 
 624:C:/Users/stapi/OneDrive/Desktop/GD32VW553/GD32VW55X_Wifi_BLE_SDK/GD32VW55x_RELEASE_V1.0.2/MSDK/lwip/lwip-2.1.2/port\wifi_netif.c ****     *seg_cnt = idx;
 625:C:/Users/stapi/OneDrive/Desktop/GD32VW553/GD32VW55X_Wifi_BLE_SDK/GD32VW55x_RELEASE_V1.0.2/MSDK/lwip/lwip-2.1.2/port\wifi_netif.c ****     if (length != 0)
 626:C:/Users/stapi/OneDrive/Desktop/GD32VW553/GD32VW55X_Wifi_BLE_SDK/GD32VW55x_RELEASE_V1.0.2/MSDK/lwip/lwip-2.1.2/port\wifi_netif.c ****     {
 627:C:/Users/stapi/OneDrive/Desktop/GD32VW553/GD32VW55X_Wifi_BLE_SDK/GD32VW55x_RELEASE_V1.0.2/MSDK/lwip/lwip-2.1.2/port\wifi_netif.c ****         // The complete buffer must be included in all the segments
 628:C:/Users/stapi/OneDrive/Desktop/GD32VW553/GD32VW55X_Wifi_BLE_SDK/GD32VW55x_RELEASE_V1.0.2/MSDK/lwip/lwip-2.1.2/port\wifi_netif.c ****         dbg_print(ERR, "remaining length != 0\r\n");
 629:C:/Users/stapi/OneDrive/Desktop/GD32VW553/GD32VW55X_Wifi_BLE_SDK/GD32VW55x_RELEASE_V1.0.2/MSDK/lwip/lwip-2.1.2/port\wifi_netif.c ****         return NULL;
 630:C:/Users/stapi/OneDrive/Desktop/GD32VW553/GD32VW55X_Wifi_BLE_SDK/GD32VW55x_RELEASE_V1.0.2/MSDK/lwip/lwip-2.1.2/port\wifi_netif.c ****     }
 631:C:/Users/stapi/OneDrive/Desktop/GD32VW553/GD32VW55X_Wifi_BLE_SDK/GD32VW55x_RELEASE_V1.0.2/MSDK/lwip/lwip-2.1.2/port\wifi_netif.c **** 
 632:C:/Users/stapi/OneDrive/Desktop/GD32VW553/GD32VW55X_Wifi_BLE_SDK/GD32VW55x_RELEASE_V1.0.2/MSDK/lwip/lwip-2.1.2/port\wifi_netif.c ****     return headroom;
 633:C:/Users/stapi/OneDrive/Desktop/GD32VW553/GD32VW55X_Wifi_BLE_SDK/GD32VW55x_RELEASE_V1.0.2/MSDK/lwip/lwip-2.1.2/port\wifi_netif.c **** }
 634:C:/Users/stapi/OneDrive/Desktop/GD32VW553/GD32VW55X_Wifi_BLE_SDK/GD32VW55x_RELEASE_V1.0.2/MSDK/lwip/lwip-2.1.2/port\wifi_netif.c **** 
 635:C:/Users/stapi/OneDrive/Desktop/GD32VW553/GD32VW55X_Wifi_BLE_SDK/GD32VW55x_RELEASE_V1.0.2/MSDK/lwip/lwip-2.1.2/port\wifi_netif.c **** /*!
 636:C:/Users/stapi/OneDrive/Desktop/GD32VW553/GD32VW55X_Wifi_BLE_SDK/GD32VW55x_RELEASE_V1.0.2/MSDK/lwip/lwip-2.1.2/port\wifi_netif.c ****     \brief      Free a TX buffer that was involved in a transmission.
 637:C:/Users/stapi/OneDrive/Desktop/GD32VW553/GD32VW55X_Wifi_BLE_SDK/GD32VW55x_RELEASE_V1.0.2/MSDK/lwip/lwip-2.1.2/port\wifi_netif.c ****     \param[in]  buf: Pointer to the TX buffer structure
 638:C:/Users/stapi/OneDrive/Desktop/GD32VW553/GD32VW55X_Wifi_BLE_SDK/GD32VW55x_RELEASE_V1.0.2/MSDK/lwip/lwip-2.1.2/port\wifi_netif.c ****     \param[out] none
 639:C:/Users/stapi/OneDrive/Desktop/GD32VW553/GD32VW55X_Wifi_BLE_SDK/GD32VW55x_RELEASE_V1.0.2/MSDK/lwip/lwip-2.1.2/port\wifi_netif.c ****     \retval     none
 640:C:/Users/stapi/OneDrive/Desktop/GD32VW553/GD32VW55X_Wifi_BLE_SDK/GD32VW55x_RELEASE_V1.0.2/MSDK/lwip/lwip-2.1.2/port\wifi_netif.c **** */
 641:C:/Users/stapi/OneDrive/Desktop/GD32VW553/GD32VW55X_Wifi_BLE_SDK/GD32VW55x_RELEASE_V1.0.2/MSDK/lwip/lwip-2.1.2/port\wifi_netif.c **** void net_buf_tx_free(net_buf_tx_t *buf)
 642:C:/Users/stapi/OneDrive/Desktop/GD32VW553/GD32VW55X_Wifi_BLE_SDK/GD32VW55x_RELEASE_V1.0.2/MSDK/lwip/lwip-2.1.2/port\wifi_netif.c **** {
 643:C:/Users/stapi/OneDrive/Desktop/GD32VW553/GD32VW55X_Wifi_BLE_SDK/GD32VW55x_RELEASE_V1.0.2/MSDK/lwip/lwip-2.1.2/port\wifi_netif.c ****     // Remove the link encapsulation header
 644:C:/Users/stapi/OneDrive/Desktop/GD32VW553/GD32VW55X_Wifi_BLE_SDK/GD32VW55x_RELEASE_V1.0.2/MSDK/lwip/lwip-2.1.2/port\wifi_netif.c ****     pbuf_header(buf, -PBUF_LINK_ENCAPSULATION_HLEN);
 645:C:/Users/stapi/OneDrive/Desktop/GD32VW553/GD32VW55X_Wifi_BLE_SDK/GD32VW55x_RELEASE_V1.0.2/MSDK/lwip/lwip-2.1.2/port\wifi_netif.c **** 
 646:C:/Users/stapi/OneDrive/Desktop/GD32VW553/GD32VW55X_Wifi_BLE_SDK/GD32VW55x_RELEASE_V1.0.2/MSDK/lwip/lwip-2.1.2/port\wifi_netif.c ****     // Free the buffer
 647:C:/Users/stapi/OneDrive/Desktop/GD32VW553/GD32VW55X_Wifi_BLE_SDK/GD32VW55x_RELEASE_V1.0.2/MSDK/lwip/lwip-2.1.2/port\wifi_netif.c ****     pbuf_free(buf);
 648:C:/Users/stapi/OneDrive/Desktop/GD32VW553/GD32VW55X_Wifi_BLE_SDK/GD32VW55x_RELEASE_V1.0.2/MSDK/lwip/lwip-2.1.2/port\wifi_netif.c **** }
 649:C:/Users/stapi/OneDrive/Desktop/GD32VW553/GD32VW55X_Wifi_BLE_SDK/GD32VW55x_RELEASE_V1.0.2/MSDK/lwip/lwip-2.1.2/port\wifi_netif.c **** 
 650:C:/Users/stapi/OneDrive/Desktop/GD32VW553/GD32VW55X_Wifi_BLE_SDK/GD32VW55x_RELEASE_V1.0.2/MSDK/lwip/lwip-2.1.2/port\wifi_netif.c **** /*!
 651:C:/Users/stapi/OneDrive/Desktop/GD32VW553/GD32VW55X_Wifi_BLE_SDK/GD32VW55x_RELEASE_V1.0.2/MSDK/lwip/lwip-2.1.2/port\wifi_netif.c ****     \brief      Concatenate 2 Tx buffers
 652:C:/Users/stapi/OneDrive/Desktop/GD32VW553/GD32VW55X_Wifi_BLE_SDK/GD32VW55x_RELEASE_V1.0.2/MSDK/lwip/lwip-2.1.2/port\wifi_netif.c ****     \param[in]  buf1: Pointer to the TX buffer structure 1
 653:C:/Users/stapi/OneDrive/Desktop/GD32VW553/GD32VW55X_Wifi_BLE_SDK/GD32VW55x_RELEASE_V1.0.2/MSDK/lwip/lwip-2.1.2/port\wifi_netif.c ****     \param[in]  buf2: Pointer to the TX buffer structure 2
 654:C:/Users/stapi/OneDrive/Desktop/GD32VW553/GD32VW55X_Wifi_BLE_SDK/GD32VW55x_RELEASE_V1.0.2/MSDK/lwip/lwip-2.1.2/port\wifi_netif.c ****     \param[out] none
 655:C:/Users/stapi/OneDrive/Desktop/GD32VW553/GD32VW55X_Wifi_BLE_SDK/GD32VW55x_RELEASE_V1.0.2/MSDK/lwip/lwip-2.1.2/port\wifi_netif.c ****     \retval     none
 656:C:/Users/stapi/OneDrive/Desktop/GD32VW553/GD32VW55X_Wifi_BLE_SDK/GD32VW55x_RELEASE_V1.0.2/MSDK/lwip/lwip-2.1.2/port\wifi_netif.c **** */
 657:C:/Users/stapi/OneDrive/Desktop/GD32VW553/GD32VW55X_Wifi_BLE_SDK/GD32VW55x_RELEASE_V1.0.2/MSDK/lwip/lwip-2.1.2/port\wifi_netif.c **** void net_buf_tx_cat(net_buf_tx_t *net_buf_tx_1, net_buf_tx_t *net_buf_tx_2)
 658:C:/Users/stapi/OneDrive/Desktop/GD32VW553/GD32VW55X_Wifi_BLE_SDK/GD32VW55x_RELEASE_V1.0.2/MSDK/lwip/lwip-2.1.2/port\wifi_netif.c **** {
 659:C:/Users/stapi/OneDrive/Desktop/GD32VW553/GD32VW55X_Wifi_BLE_SDK/GD32VW55x_RELEASE_V1.0.2/MSDK/lwip/lwip-2.1.2/port\wifi_netif.c ****     pbuf_cat(net_buf_tx_1, net_buf_tx_2);
 660:C:/Users/stapi/OneDrive/Desktop/GD32VW553/GD32VW55X_Wifi_BLE_SDK/GD32VW55x_RELEASE_V1.0.2/MSDK/lwip/lwip-2.1.2/port\wifi_netif.c **** }
 661:C:/Users/stapi/OneDrive/Desktop/GD32VW553/GD32VW55X_Wifi_BLE_SDK/GD32VW55x_RELEASE_V1.0.2/MSDK/lwip/lwip-2.1.2/port\wifi_netif.c **** 
 662:C:/Users/stapi/OneDrive/Desktop/GD32VW553/GD32VW55X_Wifi_BLE_SDK/GD32VW55x_RELEASE_V1.0.2/MSDK/lwip/lwip-2.1.2/port\wifi_netif.c **** #if 0
 663:C:/Users/stapi/OneDrive/Desktop/GD32VW553/GD32VW55X_Wifi_BLE_SDK/GD32VW55x_RELEASE_V1.0.2/MSDK/lwip/lwip-2.1.2/port\wifi_netif.c **** static void net_buf_rx_free(net_buf_rx_t *buf)
 664:C:/Users/stapi/OneDrive/Desktop/GD32VW553/GD32VW55X_Wifi_BLE_SDK/GD32VW55x_RELEASE_V1.0.2/MSDK/lwip/lwip-2.1.2/port\wifi_netif.c **** {
 665:C:/Users/stapi/OneDrive/Desktop/GD32VW553/GD32VW55X_Wifi_BLE_SDK/GD32VW55x_RELEASE_V1.0.2/MSDK/lwip/lwip-2.1.2/port\wifi_netif.c ****     // Free the buffer
 666:C:/Users/stapi/OneDrive/Desktop/GD32VW553/GD32VW55X_Wifi_BLE_SDK/GD32VW55x_RELEASE_V1.0.2/MSDK/lwip/lwip-2.1.2/port\wifi_netif.c ****     pbuf_free(&buf->pbuf);
 667:C:/Users/stapi/OneDrive/Desktop/GD32VW553/GD32VW55X_Wifi_BLE_SDK/GD32VW55x_RELEASE_V1.0.2/MSDK/lwip/lwip-2.1.2/port\wifi_netif.c **** }
 668:C:/Users/stapi/OneDrive/Desktop/GD32VW553/GD32VW55X_Wifi_BLE_SDK/GD32VW55x_RELEASE_V1.0.2/MSDK/lwip/lwip-2.1.2/port\wifi_netif.c **** #endif
 669:C:/Users/stapi/OneDrive/Desktop/GD32VW553/GD32VW55X_Wifi_BLE_SDK/GD32VW55x_RELEASE_V1.0.2/MSDK/lwip/lwip-2.1.2/port\wifi_netif.c **** 
 670:C:/Users/stapi/OneDrive/Desktop/GD32VW553/GD32VW55X_Wifi_BLE_SDK/GD32VW55x_RELEASE_V1.0.2/MSDK/lwip/lwip-2.1.2/port\wifi_netif.c **** #if 0
 671:C:/Users/stapi/OneDrive/Desktop/GD32VW553/GD32VW55X_Wifi_BLE_SDK/GD32VW55x_RELEASE_V1.0.2/MSDK/lwip/lwip-2.1.2/port\wifi_netif.c **** /**
 672:C:/Users/stapi/OneDrive/Desktop/GD32VW553/GD32VW55X_Wifi_BLE_SDK/GD32VW55x_RELEASE_V1.0.2/MSDK/lwip/lwip-2.1.2/port\wifi_netif.c ****  ****************************************************************************************
 673:C:/Users/stapi/OneDrive/Desktop/GD32VW553/GD32VW55X_Wifi_BLE_SDK/GD32VW55x_RELEASE_V1.0.2/MSDK/lwip/lwip-2.1.2/port\wifi_netif.c ****  * @brief Callback when lwip init is done
 674:C:/Users/stapi/OneDrive/Desktop/GD32VW553/GD32VW55X_Wifi_BLE_SDK/GD32VW55x_RELEASE_V1.0.2/MSDK/lwip/lwip-2.1.2/port\wifi_netif.c ****  *
 675:C:/Users/stapi/OneDrive/Desktop/GD32VW553/GD32VW55X_Wifi_BLE_SDK/GD32VW55x_RELEASE_V1.0.2/MSDK/lwip/lwip-2.1.2/port\wifi_netif.c ****  * @param[in] arg Not used
 676:C:/Users/stapi/OneDrive/Desktop/GD32VW553/GD32VW55X_Wifi_BLE_SDK/GD32VW55x_RELEASE_V1.0.2/MSDK/lwip/lwip-2.1.2/port\wifi_netif.c ****  ****************************************************************************************
 677:C:/Users/stapi/OneDrive/Desktop/GD32VW553/GD32VW55X_Wifi_BLE_SDK/GD32VW55x_RELEASE_V1.0.2/MSDK/lwip/lwip-2.1.2/port\wifi_netif.c ****  */
 678:C:/Users/stapi/OneDrive/Desktop/GD32VW553/GD32VW55X_Wifi_BLE_SDK/GD32VW55x_RELEASE_V1.0.2/MSDK/lwip/lwip-2.1.2/port\wifi_netif.c **** static void net_init_done(void *arg)
 679:C:/Users/stapi/OneDrive/Desktop/GD32VW553/GD32VW55X_Wifi_BLE_SDK/GD32VW55x_RELEASE_V1.0.2/MSDK/lwip/lwip-2.1.2/port\wifi_netif.c **** {
 680:C:/Users/stapi/OneDrive/Desktop/GD32VW553/GD32VW55X_Wifi_BLE_SDK/GD32VW55x_RELEASE_V1.0.2/MSDK/lwip/lwip-2.1.2/port\wifi_netif.c ****     wifi_task_ready(IP_TASK);
 681:C:/Users/stapi/OneDrive/Desktop/GD32VW553/GD32VW55X_Wifi_BLE_SDK/GD32VW55x_RELEASE_V1.0.2/MSDK/lwip/lwip-2.1.2/port\wifi_netif.c **** }
 682:C:/Users/stapi/OneDrive/Desktop/GD32VW553/GD32VW55X_Wifi_BLE_SDK/GD32VW55x_RELEASE_V1.0.2/MSDK/lwip/lwip-2.1.2/port\wifi_netif.c **** #endif
 683:C:/Users/stapi/OneDrive/Desktop/GD32VW553/GD32VW55X_Wifi_BLE_SDK/GD32VW55x_RELEASE_V1.0.2/MSDK/lwip/lwip-2.1.2/port\wifi_netif.c **** 
 684:C:/Users/stapi/OneDrive/Desktop/GD32VW553/GD32VW55X_Wifi_BLE_SDK/GD32VW55x_RELEASE_V1.0.2/MSDK/lwip/lwip-2.1.2/port\wifi_netif.c **** /*!
 685:C:/Users/stapi/OneDrive/Desktop/GD32VW553/GD32VW55X_Wifi_BLE_SDK/GD32VW55x_RELEASE_V1.0.2/MSDK/lwip/lwip-2.1.2/port\wifi_netif.c ****     \brief      Initialize some resources for L2
 686:C:/Users/stapi/OneDrive/Desktop/GD32VW553/GD32VW55X_Wifi_BLE_SDK/GD32VW55x_RELEASE_V1.0.2/MSDK/lwip/lwip-2.1.2/port\wifi_netif.c ****     \param[in]  none
 687:C:/Users/stapi/OneDrive/Desktop/GD32VW553/GD32VW55X_Wifi_BLE_SDK/GD32VW55x_RELEASE_V1.0.2/MSDK/lwip/lwip-2.1.2/port\wifi_netif.c ****     \param[out] none
 688:C:/Users/stapi/OneDrive/Desktop/GD32VW553/GD32VW55X_Wifi_BLE_SDK/GD32VW55x_RELEASE_V1.0.2/MSDK/lwip/lwip-2.1.2/port\wifi_netif.c ****     \retval     0 on success and != 0 if error occured
 689:C:/Users/stapi/OneDrive/Desktop/GD32VW553/GD32VW55X_Wifi_BLE_SDK/GD32VW55x_RELEASE_V1.0.2/MSDK/lwip/lwip-2.1.2/port\wifi_netif.c **** */
 690:C:/Users/stapi/OneDrive/Desktop/GD32VW553/GD32VW55X_Wifi_BLE_SDK/GD32VW55x_RELEASE_V1.0.2/MSDK/lwip/lwip-2.1.2/port\wifi_netif.c **** int net_init(void)
 691:C:/Users/stapi/OneDrive/Desktop/GD32VW553/GD32VW55X_Wifi_BLE_SDK/GD32VW55x_RELEASE_V1.0.2/MSDK/lwip/lwip-2.1.2/port\wifi_netif.c **** {
 692:C:/Users/stapi/OneDrive/Desktop/GD32VW553/GD32VW55X_Wifi_BLE_SDK/GD32VW55x_RELEASE_V1.0.2/MSDK/lwip/lwip-2.1.2/port\wifi_netif.c ****     int i;
 693:C:/Users/stapi/OneDrive/Desktop/GD32VW553/GD32VW55X_Wifi_BLE_SDK/GD32VW55x_RELEASE_V1.0.2/MSDK/lwip/lwip-2.1.2/port\wifi_netif.c **** 
 694:C:/Users/stapi/OneDrive/Desktop/GD32VW553/GD32VW55X_Wifi_BLE_SDK/GD32VW55x_RELEASE_V1.0.2/MSDK/lwip/lwip-2.1.2/port\wifi_netif.c ****     for (i = 0; i < WIFI_NB_L2_FILTER; i++)
 695:C:/Users/stapi/OneDrive/Desktop/GD32VW553/GD32VW55X_Wifi_BLE_SDK/GD32VW55x_RELEASE_V1.0.2/MSDK/lwip/lwip-2.1.2/port\wifi_netif.c ****     {
 696:C:/Users/stapi/OneDrive/Desktop/GD32VW553/GD32VW55X_Wifi_BLE_SDK/GD32VW55x_RELEASE_V1.0.2/MSDK/lwip/lwip-2.1.2/port\wifi_netif.c ****         l2_filter[i].net_if = NULL;
 697:C:/Users/stapi/OneDrive/Desktop/GD32VW553/GD32VW55X_Wifi_BLE_SDK/GD32VW55x_RELEASE_V1.0.2/MSDK/lwip/lwip-2.1.2/port\wifi_netif.c ****     }
 698:C:/Users/stapi/OneDrive/Desktop/GD32VW553/GD32VW55X_Wifi_BLE_SDK/GD32VW55x_RELEASE_V1.0.2/MSDK/lwip/lwip-2.1.2/port\wifi_netif.c **** 
 699:C:/Users/stapi/OneDrive/Desktop/GD32VW553/GD32VW55X_Wifi_BLE_SDK/GD32VW55x_RELEASE_V1.0.2/MSDK/lwip/lwip-2.1.2/port\wifi_netif.c ****     if (sys_sema_init_ext(&l2_semaphore, 1, 0))
 700:C:/Users/stapi/OneDrive/Desktop/GD32VW553/GD32VW55X_Wifi_BLE_SDK/GD32VW55x_RELEASE_V1.0.2/MSDK/lwip/lwip-2.1.2/port\wifi_netif.c ****     {
 701:C:/Users/stapi/OneDrive/Desktop/GD32VW553/GD32VW55X_Wifi_BLE_SDK/GD32VW55x_RELEASE_V1.0.2/MSDK/lwip/lwip-2.1.2/port\wifi_netif.c ****         dbg_print(ERR, "sys sema init failed\r\n");
 702:C:/Users/stapi/OneDrive/Desktop/GD32VW553/GD32VW55X_Wifi_BLE_SDK/GD32VW55x_RELEASE_V1.0.2/MSDK/lwip/lwip-2.1.2/port\wifi_netif.c ****         return -1;
 703:C:/Users/stapi/OneDrive/Desktop/GD32VW553/GD32VW55X_Wifi_BLE_SDK/GD32VW55x_RELEASE_V1.0.2/MSDK/lwip/lwip-2.1.2/port\wifi_netif.c ****     }
 704:C:/Users/stapi/OneDrive/Desktop/GD32VW553/GD32VW55X_Wifi_BLE_SDK/GD32VW55x_RELEASE_V1.0.2/MSDK/lwip/lwip-2.1.2/port\wifi_netif.c **** 
 705:C:/Users/stapi/OneDrive/Desktop/GD32VW553/GD32VW55X_Wifi_BLE_SDK/GD32VW55x_RELEASE_V1.0.2/MSDK/lwip/lwip-2.1.2/port\wifi_netif.c ****     sys_mutex_init(&l2_mutex);
 706:C:/Users/stapi/OneDrive/Desktop/GD32VW553/GD32VW55X_Wifi_BLE_SDK/GD32VW55x_RELEASE_V1.0.2/MSDK/lwip/lwip-2.1.2/port\wifi_netif.c ****     if (l2_mutex == NULL)
 707:C:/Users/stapi/OneDrive/Desktop/GD32VW553/GD32VW55X_Wifi_BLE_SDK/GD32VW55x_RELEASE_V1.0.2/MSDK/lwip/lwip-2.1.2/port\wifi_netif.c ****     {
 708:C:/Users/stapi/OneDrive/Desktop/GD32VW553/GD32VW55X_Wifi_BLE_SDK/GD32VW55x_RELEASE_V1.0.2/MSDK/lwip/lwip-2.1.2/port\wifi_netif.c ****         dbg_print(ERR, "sys sema init failed\r\n");
 709:C:/Users/stapi/OneDrive/Desktop/GD32VW553/GD32VW55X_Wifi_BLE_SDK/GD32VW55x_RELEASE_V1.0.2/MSDK/lwip/lwip-2.1.2/port\wifi_netif.c ****         return -1;
 710:C:/Users/stapi/OneDrive/Desktop/GD32VW553/GD32VW55X_Wifi_BLE_SDK/GD32VW55x_RELEASE_V1.0.2/MSDK/lwip/lwip-2.1.2/port\wifi_netif.c ****     }
 711:C:/Users/stapi/OneDrive/Desktop/GD32VW553/GD32VW55X_Wifi_BLE_SDK/GD32VW55x_RELEASE_V1.0.2/MSDK/lwip/lwip-2.1.2/port\wifi_netif.c **** 
 712:C:/Users/stapi/OneDrive/Desktop/GD32VW553/GD32VW55X_Wifi_BLE_SDK/GD32VW55x_RELEASE_V1.0.2/MSDK/lwip/lwip-2.1.2/port\wifi_netif.c ****     // Initialize the TCP/IP stack
 713:C:/Users/stapi/OneDrive/Desktop/GD32VW553/GD32VW55X_Wifi_BLE_SDK/GD32VW55x_RELEASE_V1.0.2/MSDK/lwip/lwip-2.1.2/port\wifi_netif.c ****     //tcpip_init(net_init_done, NULL);
 714:C:/Users/stapi/OneDrive/Desktop/GD32VW553/GD32VW55X_Wifi_BLE_SDK/GD32VW55x_RELEASE_V1.0.2/MSDK/lwip/lwip-2.1.2/port\wifi_netif.c **** 
 715:C:/Users/stapi/OneDrive/Desktop/GD32VW553/GD32VW55X_Wifi_BLE_SDK/GD32VW55x_RELEASE_V1.0.2/MSDK/lwip/lwip-2.1.2/port\wifi_netif.c ****     return 0;
 716:C:/Users/stapi/OneDrive/Desktop/GD32VW553/GD32VW55X_Wifi_BLE_SDK/GD32VW55x_RELEASE_V1.0.2/MSDK/lwip/lwip-2.1.2/port\wifi_netif.c **** }
 717:C:/Users/stapi/OneDrive/Desktop/GD32VW553/GD32VW55X_Wifi_BLE_SDK/GD32VW55x_RELEASE_V1.0.2/MSDK/lwip/lwip-2.1.2/port\wifi_netif.c **** 
 718:C:/Users/stapi/OneDrive/Desktop/GD32VW553/GD32VW55X_Wifi_BLE_SDK/GD32VW55x_RELEASE_V1.0.2/MSDK/lwip/lwip-2.1.2/port\wifi_netif.c **** /*!
 719:C:/Users/stapi/OneDrive/Desktop/GD32VW553/GD32VW55X_Wifi_BLE_SDK/GD32VW55x_RELEASE_V1.0.2/MSDK/lwip/lwip-2.1.2/port\wifi_netif.c ****     \brief      Release the resources for L2
 720:C:/Users/stapi/OneDrive/Desktop/GD32VW553/GD32VW55X_Wifi_BLE_SDK/GD32VW55x_RELEASE_V1.0.2/MSDK/lwip/lwip-2.1.2/port\wifi_netif.c ****     \param[in]  none
 721:C:/Users/stapi/OneDrive/Desktop/GD32VW553/GD32VW55X_Wifi_BLE_SDK/GD32VW55x_RELEASE_V1.0.2/MSDK/lwip/lwip-2.1.2/port\wifi_netif.c ****     \param[out] none
 722:C:/Users/stapi/OneDrive/Desktop/GD32VW553/GD32VW55X_Wifi_BLE_SDK/GD32VW55x_RELEASE_V1.0.2/MSDK/lwip/lwip-2.1.2/port\wifi_netif.c ****     \retval     none
 723:C:/Users/stapi/OneDrive/Desktop/GD32VW553/GD32VW55X_Wifi_BLE_SDK/GD32VW55x_RELEASE_V1.0.2/MSDK/lwip/lwip-2.1.2/port\wifi_netif.c **** */
 724:C:/Users/stapi/OneDrive/Desktop/GD32VW553/GD32VW55X_Wifi_BLE_SDK/GD32VW55x_RELEASE_V1.0.2/MSDK/lwip/lwip-2.1.2/port\wifi_netif.c **** void net_deinit(void)
 725:C:/Users/stapi/OneDrive/Desktop/GD32VW553/GD32VW55X_Wifi_BLE_SDK/GD32VW55x_RELEASE_V1.0.2/MSDK/lwip/lwip-2.1.2/port\wifi_netif.c **** {
 726:C:/Users/stapi/OneDrive/Desktop/GD32VW553/GD32VW55X_Wifi_BLE_SDK/GD32VW55x_RELEASE_V1.0.2/MSDK/lwip/lwip-2.1.2/port\wifi_netif.c ****     if (l2_semaphore) {
 727:C:/Users/stapi/OneDrive/Desktop/GD32VW553/GD32VW55X_Wifi_BLE_SDK/GD32VW55x_RELEASE_V1.0.2/MSDK/lwip/lwip-2.1.2/port\wifi_netif.c ****         sys_sem_free(&l2_semaphore);
 728:C:/Users/stapi/OneDrive/Desktop/GD32VW553/GD32VW55X_Wifi_BLE_SDK/GD32VW55x_RELEASE_V1.0.2/MSDK/lwip/lwip-2.1.2/port\wifi_netif.c ****         l2_semaphore = NULL;
 729:C:/Users/stapi/OneDrive/Desktop/GD32VW553/GD32VW55X_Wifi_BLE_SDK/GD32VW55x_RELEASE_V1.0.2/MSDK/lwip/lwip-2.1.2/port\wifi_netif.c ****     }
 730:C:/Users/stapi/OneDrive/Desktop/GD32VW553/GD32VW55X_Wifi_BLE_SDK/GD32VW55x_RELEASE_V1.0.2/MSDK/lwip/lwip-2.1.2/port\wifi_netif.c ****     if (l2_mutex) {
 731:C:/Users/stapi/OneDrive/Desktop/GD32VW553/GD32VW55X_Wifi_BLE_SDK/GD32VW55x_RELEASE_V1.0.2/MSDK/lwip/lwip-2.1.2/port\wifi_netif.c ****         sys_mutex_free(&l2_mutex);
 732:C:/Users/stapi/OneDrive/Desktop/GD32VW553/GD32VW55X_Wifi_BLE_SDK/GD32VW55x_RELEASE_V1.0.2/MSDK/lwip/lwip-2.1.2/port\wifi_netif.c ****         l2_mutex = NULL;
 733:C:/Users/stapi/OneDrive/Desktop/GD32VW553/GD32VW55X_Wifi_BLE_SDK/GD32VW55x_RELEASE_V1.0.2/MSDK/lwip/lwip-2.1.2/port\wifi_netif.c ****     }
 734:C:/Users/stapi/OneDrive/Desktop/GD32VW553/GD32VW55X_Wifi_BLE_SDK/GD32VW55x_RELEASE_V1.0.2/MSDK/lwip/lwip-2.1.2/port\wifi_netif.c **** }
 735:C:/Users/stapi/OneDrive/Desktop/GD32VW553/GD32VW55X_Wifi_BLE_SDK/GD32VW55x_RELEASE_V1.0.2/MSDK/lwip/lwip-2.1.2/port\wifi_netif.c **** 
 736:C:/Users/stapi/OneDrive/Desktop/GD32VW553/GD32VW55X_Wifi_BLE_SDK/GD32VW55x_RELEASE_V1.0.2/MSDK/lwip/lwip-2.1.2/port\wifi_netif.c **** static void net_l2_send_cfm(uint32_t frame_id, bool acknowledged, void *arg)
 737:C:/Users/stapi/OneDrive/Desktop/GD32VW553/GD32VW55X_Wifi_BLE_SDK/GD32VW55x_RELEASE_V1.0.2/MSDK/lwip/lwip-2.1.2/port\wifi_netif.c **** {
 273              		.loc 1 737 1 is_stmt 1
 274              		.cfi_startproc
 275              	.LVL33:
 738:C:/Users/stapi/OneDrive/Desktop/GD32VW553/GD32VW55X_Wifi_BLE_SDK/GD32VW55x_RELEASE_V1.0.2/MSDK/lwip/lwip-2.1.2/port\wifi_netif.c ****     if (arg)
 276              		.loc 1 738 5
 277              		.loc 1 738 8 is_stmt 0
 278 0000 19C2     		beq	a2,zero,.L24
 739:C:/Users/stapi/OneDrive/Desktop/GD32VW553/GD32VW55X_Wifi_BLE_SDK/GD32VW55x_RELEASE_V1.0.2/MSDK/lwip/lwip-2.1.2/port\wifi_netif.c ****         *((bool *)arg) = acknowledged;
 279              		.loc 1 739 9 is_stmt 1
 280              		.loc 1 739 24 is_stmt 0
 281 0002 2300B600 		sb	a1,0(a2)
 282              	.L24:
 740:C:/Users/stapi/OneDrive/Desktop/GD32VW553/GD32VW55X_Wifi_BLE_SDK/GD32VW55x_RELEASE_V1.0.2/MSDK/lwip/lwip-2.1.2/port\wifi_netif.c ****     sys_sema_up(&l2_semaphore);
 283              		.loc 1 740 5 is_stmt 1
 284 0006 37050000 		lui	a0,%hi(.LANCHOR0)
 285              	.LVL34:
 286 000a 13050500 		addi	a0,a0,%lo(.LANCHOR0)
 287 000e 17030000 		tail	sys_sema_up
 287      67000300 
 288              	.LVL35:
 289              		.cfi_endproc
 290              	.LFE38:
 292              		.section	.text.net_ip_chksum,"ax",@progbits
 293              		.align	1
 294              		.globl	net_ip_chksum
 296              	net_ip_chksum:
 297              	.LFB18:
 266:C:/Users/stapi/OneDrive/Desktop/GD32VW553/GD32VW55X_Wifi_BLE_SDK/GD32VW55x_RELEASE_V1.0.2/MSDK/lwip/lwip-2.1.2/port\wifi_netif.c ****     // Simply call the LwIP function
 298              		.loc 1 266 1
 299              		.cfi_startproc
 300              	.LVL36:
 268:C:/Users/stapi/OneDrive/Desktop/GD32VW553/GD32VW55X_Wifi_BLE_SDK/GD32VW55x_RELEASE_V1.0.2/MSDK/lwip/lwip-2.1.2/port\wifi_netif.c **** }
 301              		.loc 1 268 5
 268:C:/Users/stapi/OneDrive/Desktop/GD32VW553/GD32VW55X_Wifi_BLE_SDK/GD32VW55x_RELEASE_V1.0.2/MSDK/lwip/lwip-2.1.2/port\wifi_netif.c **** }
 302              		.loc 1 268 12 is_stmt 0
 303 0000 17030000 		tail	lwip_standard_chksum
 303      67000300 
 304              	.LVL37:
 305              		.cfi_endproc
 306              	.LFE18:
 308              		.section	.text.net_if_add,"ax",@progbits
 309              		.align	1
 310              		.globl	net_if_add
 312              	net_if_add:
 313              	.LFB19:
 290:C:/Users/stapi/OneDrive/Desktop/GD32VW553/GD32VW55X_Wifi_BLE_SDK/GD32VW55x_RELEASE_V1.0.2/MSDK/lwip/lwip-2.1.2/port\wifi_netif.c ****     err_t status;
 314              		.loc 1 290 1 is_stmt 1
 315              		.cfi_startproc
 316              	.LVL38:
 317 0000 17030000 		call	t0,__riscv_save_3
 317      E7020300 
 318              		.cfi_offset 18, -16
 319              		.cfi_offset 9, -12
 320              		.cfi_offset 8, -8
 321              		.cfi_offset 1, -4
 322              		.cfi_def_cfa_offset 16
 291:C:/Users/stapi/OneDrive/Desktop/GD32VW553/GD32VW55X_Wifi_BLE_SDK/GD32VW55x_RELEASE_V1.0.2/MSDK/lwip/lwip-2.1.2/port\wifi_netif.c ****     struct netif *netif = (struct netif *)net_if;
 323              		.loc 1 291 5
 292:C:/Users/stapi/OneDrive/Desktop/GD32VW553/GD32VW55X_Wifi_BLE_SDK/GD32VW55x_RELEASE_V1.0.2/MSDK/lwip/lwip-2.1.2/port\wifi_netif.c **** 
 324              		.loc 1 292 5
 290:C:/Users/stapi/OneDrive/Desktop/GD32VW553/GD32VW55X_Wifi_BLE_SDK/GD32VW55x_RELEASE_V1.0.2/MSDK/lwip/lwip-2.1.2/port\wifi_netif.c ****     err_t status;
 325              		.loc 1 290 1 is_stmt 0
 326 0008 2E89     		mv	s2,a1
 294:C:/Users/stapi/OneDrive/Desktop/GD32VW553/GD32VW55X_Wifi_BLE_SDK/GD32VW55x_RELEASE_V1.0.2/MSDK/lwip/lwip-2.1.2/port\wifi_netif.c ****                                (const ip4_addr_t *)ipaddr,
 327              		.loc 1 294 14
 328 000a 37080000 		lui	a6,%hi(tcpip_input)
 290:C:/Users/stapi/OneDrive/Desktop/GD32VW553/GD32VW55X_Wifi_BLE_SDK/GD32VW55x_RELEASE_V1.0.2/MSDK/lwip/lwip-2.1.2/port\wifi_netif.c ****     err_t status;
 329              		.loc 1 290 1
 330 000e B285     		mv	a1,a2
 331              	.LVL39:
 332 0010 3686     		mv	a2,a3
 333              	.LVL40:
 334 0012 BA86     		mv	a3,a4
 335              	.LVL41:
 336 0014 3E87     		mv	a4,a5
 337              	.LVL42:
 294:C:/Users/stapi/OneDrive/Desktop/GD32VW553/GD32VW55X_Wifi_BLE_SDK/GD32VW55x_RELEASE_V1.0.2/MSDK/lwip/lwip-2.1.2/port\wifi_netif.c ****                                (const ip4_addr_t *)ipaddr,
 338              		.loc 1 294 14
 339 0016 B7070000 		lui	a5,%hi(net_if_init)
 340              	.LVL43:
 341 001a 13080800 		addi	a6,a6,%lo(tcpip_input)
 342 001e 93870700 		addi	a5,a5,%lo(net_if_init)
 290:C:/Users/stapi/OneDrive/Desktop/GD32VW553/GD32VW55X_Wifi_BLE_SDK/GD32VW55x_RELEASE_V1.0.2/MSDK/lwip/lwip-2.1.2/port\wifi_netif.c ****     err_t status;
 343              		.loc 1 290 1
 344 0022 AA84     		mv	s1,a0
 345              	.LVL44:
 294:C:/Users/stapi/OneDrive/Desktop/GD32VW553/GD32VW55X_Wifi_BLE_SDK/GD32VW55x_RELEASE_V1.0.2/MSDK/lwip/lwip-2.1.2/port\wifi_netif.c ****                                (const ip4_addr_t *)ipaddr,
 346              		.loc 1 294 5 is_stmt 1
 294:C:/Users/stapi/OneDrive/Desktop/GD32VW553/GD32VW55X_Wifi_BLE_SDK/GD32VW55x_RELEASE_V1.0.2/MSDK/lwip/lwip-2.1.2/port\wifi_netif.c ****                                (const ip4_addr_t *)ipaddr,
 347              		.loc 1 294 14 is_stmt 0
 348 0024 97000000 		call	netifapi_netif_add
 348      E7800000 
 349              	.LVL45:
 350 002c 2A84     		mv	s0,a0
 351              	.LVL46:
 303:C:/Users/stapi/OneDrive/Desktop/GD32VW553/GD32VW55X_Wifi_BLE_SDK/GD32VW55x_RELEASE_V1.0.2/MSDK/lwip/lwip-2.1.2/port\wifi_netif.c **** #if LWIP_IPV6
 352              		.loc 1 303 5 is_stmt 1
 353 002e 1946     		li	a2,6
 354 0030 1385A402 		addi	a0,s1,42
 355 0034 CA85     		mv	a1,s2
 356 0036 97000000 		call	sys_memcpy
 356      E7800000 
 357              	.LVL47:
 310:C:/Users/stapi/OneDrive/Desktop/GD32VW553/GD32VW55X_Wifi_BLE_SDK/GD32VW55x_RELEASE_V1.0.2/MSDK/lwip/lwip-2.1.2/port\wifi_netif.c **** }
 358              		.loc 1 310 5
 310:C:/Users/stapi/OneDrive/Desktop/GD32VW553/GD32VW55X_Wifi_BLE_SDK/GD32VW55x_RELEASE_V1.0.2/MSDK/lwip/lwip-2.1.2/port\wifi_netif.c **** }
 359              		.loc 1 310 34 is_stmt 0
 360 003e 33358000 		snez	a0,s0
 311:C:/Users/stapi/OneDrive/Desktop/GD32VW553/GD32VW55X_Wifi_BLE_SDK/GD32VW55x_RELEASE_V1.0.2/MSDK/lwip/lwip-2.1.2/port\wifi_netif.c **** 
 361              		.loc 1 311 1
 362 0042 3305A040 		neg	a0,a0
 363 0046 17030000 		tail	__riscv_restore_3
 363      67000300 
 364              		.cfi_restore 18
 365              		.cfi_restore 9
 366              		.cfi_restore 8
 367              		.cfi_restore 1
 368              		.cfi_def_cfa_offset 0
 369              		.cfi_endproc
 370              	.LFE19:
 372              		.section	.text.net_if_remove,"ax",@progbits
 373              		.align	1
 374              		.globl	net_if_remove
 376              	net_if_remove:
 377              	.LFB20:
 320:C:/Users/stapi/OneDrive/Desktop/GD32VW553/GD32VW55X_Wifi_BLE_SDK/GD32VW55x_RELEASE_V1.0.2/MSDK/lwip/lwip-2.1.2/port\wifi_netif.c ****     err_t status;
 378              		.loc 1 320 1 is_stmt 1
 379              		.cfi_startproc
 380              	.LVL48:
 381 0000 17030000 		call	t0,__riscv_save_1
 381      E7020300 
 382              		.cfi_offset 8, -8
 383              		.cfi_offset 1, -4
 384              		.cfi_def_cfa_offset 16
 321:C:/Users/stapi/OneDrive/Desktop/GD32VW553/GD32VW55X_Wifi_BLE_SDK/GD32VW55x_RELEASE_V1.0.2/MSDK/lwip/lwip-2.1.2/port\wifi_netif.c ****     struct netif *netif = (struct netif *)net_if;
 385              		.loc 1 321 5
 322:C:/Users/stapi/OneDrive/Desktop/GD32VW553/GD32VW55X_Wifi_BLE_SDK/GD32VW55x_RELEASE_V1.0.2/MSDK/lwip/lwip-2.1.2/port\wifi_netif.c **** 
 386              		.loc 1 322 5
 320:C:/Users/stapi/OneDrive/Desktop/GD32VW553/GD32VW55X_Wifi_BLE_SDK/GD32VW55x_RELEASE_V1.0.2/MSDK/lwip/lwip-2.1.2/port\wifi_netif.c ****     err_t status;
 387              		.loc 1 320 1 is_stmt 0
 388 0008 2A84     		mv	s0,a0
 389              	.LVL49:
 324:C:/Users/stapi/OneDrive/Desktop/GD32VW553/GD32VW55X_Wifi_BLE_SDK/GD32VW55x_RELEASE_V1.0.2/MSDK/lwip/lwip-2.1.2/port\wifi_netif.c **** 
 390              		.loc 1 324 5 is_stmt 1
 391 000a 97000000 		call	dhcp_cleanup
 391      E7800000 
 392              	.LVL50:
 326:C:/Users/stapi/OneDrive/Desktop/GD32VW553/GD32VW55X_Wifi_BLE_SDK/GD32VW55x_RELEASE_V1.0.2/MSDK/lwip/lwip-2.1.2/port\wifi_netif.c **** 
 393              		.loc 1 326 5
 326:C:/Users/stapi/OneDrive/Desktop/GD32VW553/GD32VW55X_Wifi_BLE_SDK/GD32VW55x_RELEASE_V1.0.2/MSDK/lwip/lwip-2.1.2/port\wifi_netif.c **** 
 394              		.loc 1 326 14 is_stmt 0
 395 0012 B7050000 		lui	a1,%hi(netif_remove)
 396 0016 0146     		li	a2,0
 397 0018 93850500 		addi	a1,a1,%lo(netif_remove)
 398 001c 2285     		mv	a0,s0
 399 001e 97000000 		call	netifapi_netif_common
 399      E7800000 
 400              	.LVL51:
 328:C:/Users/stapi/OneDrive/Desktop/GD32VW553/GD32VW55X_Wifi_BLE_SDK/GD32VW55x_RELEASE_V1.0.2/MSDK/lwip/lwip-2.1.2/port\wifi_netif.c **** }
 401              		.loc 1 328 5 is_stmt 1
 328:C:/Users/stapi/OneDrive/Desktop/GD32VW553/GD32VW55X_Wifi_BLE_SDK/GD32VW55x_RELEASE_V1.0.2/MSDK/lwip/lwip-2.1.2/port\wifi_netif.c **** }
 402              		.loc 1 328 34 is_stmt 0
 403 0026 3335A000 		snez	a0,a0
 404              	.LVL52:
 329:C:/Users/stapi/OneDrive/Desktop/GD32VW553/GD32VW55X_Wifi_BLE_SDK/GD32VW55x_RELEASE_V1.0.2/MSDK/lwip/lwip-2.1.2/port\wifi_netif.c **** 
 405              		.loc 1 329 1
 406 002a 3305A040 		neg	a0,a0
 407 002e 17030000 		tail	__riscv_restore_1
 407      67000300 
 408              		.cfi_restore 8
 409              		.cfi_restore 1
 410              		.cfi_def_cfa_offset 0
 411              		.cfi_endproc
 412              	.LFE20:
 414              		.section	.text.net_if_get_mac_addr,"ax",@progbits
 415              		.align	1
 416              		.globl	net_if_get_mac_addr
 418              	net_if_get_mac_addr:
 419              	.LFB21:
 338:C:/Users/stapi/OneDrive/Desktop/GD32VW553/GD32VW55X_Wifi_BLE_SDK/GD32VW55x_RELEASE_V1.0.2/MSDK/lwip/lwip-2.1.2/port\wifi_netif.c ****     struct netif *netif = (struct netif *)net_if;
 420              		.loc 1 338 1 is_stmt 1
 421              		.cfi_startproc
 422              	.LVL53:
 339:C:/Users/stapi/OneDrive/Desktop/GD32VW553/GD32VW55X_Wifi_BLE_SDK/GD32VW55x_RELEASE_V1.0.2/MSDK/lwip/lwip-2.1.2/port\wifi_netif.c **** 
 423              		.loc 1 339 5
 341:C:/Users/stapi/OneDrive/Desktop/GD32VW553/GD32VW55X_Wifi_BLE_SDK/GD32VW55x_RELEASE_V1.0.2/MSDK/lwip/lwip-2.1.2/port\wifi_netif.c **** }
 424              		.loc 1 341 5
 342:C:/Users/stapi/OneDrive/Desktop/GD32VW553/GD32VW55X_Wifi_BLE_SDK/GD32VW55x_RELEASE_V1.0.2/MSDK/lwip/lwip-2.1.2/port\wifi_netif.c **** 
 425              		.loc 1 342 1 is_stmt 0
 426 0000 1305A502 		addi	a0,a0,42
 427              	.LVL54:
 428 0004 8280     		ret
 429              		.cfi_endproc
 430              	.LFE21:
 432              		.section	.text.net_if_find_from_name,"ax",@progbits
 433              		.align	1
 434              		.globl	net_if_find_from_name
 436              	net_if_find_from_name:
 437              	.LFB22:
 351:C:/Users/stapi/OneDrive/Desktop/GD32VW553/GD32VW55X_Wifi_BLE_SDK/GD32VW55x_RELEASE_V1.0.2/MSDK/lwip/lwip-2.1.2/port\wifi_netif.c ****     return netif_find(name);
 438              		.loc 1 351 1 is_stmt 1
 439              		.cfi_startproc
 440              	.LVL55:
 352:C:/Users/stapi/OneDrive/Desktop/GD32VW553/GD32VW55X_Wifi_BLE_SDK/GD32VW55x_RELEASE_V1.0.2/MSDK/lwip/lwip-2.1.2/port\wifi_netif.c **** }
 441              		.loc 1 352 5
 352:C:/Users/stapi/OneDrive/Desktop/GD32VW553/GD32VW55X_Wifi_BLE_SDK/GD32VW55x_RELEASE_V1.0.2/MSDK/lwip/lwip-2.1.2/port\wifi_netif.c **** }
 442              		.loc 1 352 12 is_stmt 0
 443 0000 17030000 		tail	netif_find
 443      67000300 
 444              	.LVL56:
 445              		.cfi_endproc
 446              	.LFE22:
 448              		.section	.text.net_if_get_name,"ax",@progbits
 449              		.align	1
 450              		.globl	net_if_get_name
 452              	net_if_get_name:
 453              	.LFB23:
 369:C:/Users/stapi/OneDrive/Desktop/GD32VW553/GD32VW55X_Wifi_BLE_SDK/GD32VW55x_RELEASE_V1.0.2/MSDK/lwip/lwip-2.1.2/port\wifi_netif.c ****     struct netif *netif = (struct netif *)net_if;
 454              		.loc 1 369 1 is_stmt 1
 455              		.cfi_startproc
 456              	.LVL57:
 370:C:/Users/stapi/OneDrive/Desktop/GD32VW553/GD32VW55X_Wifi_BLE_SDK/GD32VW55x_RELEASE_V1.0.2/MSDK/lwip/lwip-2.1.2/port\wifi_netif.c **** 
 457              		.loc 1 370 5
 372:C:/Users/stapi/OneDrive/Desktop/GD32VW553/GD32VW55X_Wifi_BLE_SDK/GD32VW55x_RELEASE_V1.0.2/MSDK/lwip/lwip-2.1.2/port\wifi_netif.c ****         buf[0] = netif->name[0];
 458              		.loc 1 372 5
 372:C:/Users/stapi/OneDrive/Desktop/GD32VW553/GD32VW55X_Wifi_BLE_SDK/GD32VW55x_RELEASE_V1.0.2/MSDK/lwip/lwip-2.1.2/port\wifi_netif.c ****         buf[0] = netif->name[0];
 459              		.loc 1 372 8 is_stmt 0
 460 0000 635BC002 		ble	a2,zero,.L40
 373:C:/Users/stapi/OneDrive/Desktop/GD32VW553/GD32VW55X_Wifi_BLE_SDK/GD32VW55x_RELEASE_V1.0.2/MSDK/lwip/lwip-2.1.2/port\wifi_netif.c ****     if (len > 1)
 461              		.loc 1 373 9 is_stmt 1
 373:C:/Users/stapi/OneDrive/Desktop/GD32VW553/GD32VW55X_Wifi_BLE_SDK/GD32VW55x_RELEASE_V1.0.2/MSDK/lwip/lwip-2.1.2/port\wifi_netif.c ****     if (len > 1)
 462              		.loc 1 373 29 is_stmt 0
 463 0004 83072503 		lb	a5,50(a0)
 373:C:/Users/stapi/OneDrive/Desktop/GD32VW553/GD32VW55X_Wifi_BLE_SDK/GD32VW55x_RELEASE_V1.0.2/MSDK/lwip/lwip-2.1.2/port\wifi_netif.c ****     if (len > 1)
 464              		.loc 1 373 16
 465 0008 2380F500 		sb	a5,0(a1)
 374:C:/Users/stapi/OneDrive/Desktop/GD32VW553/GD32VW55X_Wifi_BLE_SDK/GD32VW55x_RELEASE_V1.0.2/MSDK/lwip/lwip-2.1.2/port\wifi_netif.c ****         buf[1] = netif->name[1];
 466              		.loc 1 374 5 is_stmt 1
 374:C:/Users/stapi/OneDrive/Desktop/GD32VW553/GD32VW55X_Wifi_BLE_SDK/GD32VW55x_RELEASE_V1.0.2/MSDK/lwip/lwip-2.1.2/port\wifi_netif.c ****         buf[1] = netif->name[1];
 467              		.loc 1 374 8 is_stmt 0
 468 000c 8547     		li	a5,1
 469 000e 6304F602 		beq	a2,a5,.L40
 375:C:/Users/stapi/OneDrive/Desktop/GD32VW553/GD32VW55X_Wifi_BLE_SDK/GD32VW55x_RELEASE_V1.0.2/MSDK/lwip/lwip-2.1.2/port\wifi_netif.c ****     if (len > 2)
 470              		.loc 1 375 9 is_stmt 1
 375:C:/Users/stapi/OneDrive/Desktop/GD32VW553/GD32VW55X_Wifi_BLE_SDK/GD32VW55x_RELEASE_V1.0.2/MSDK/lwip/lwip-2.1.2/port\wifi_netif.c ****     if (len > 2)
 471              		.loc 1 375 29 is_stmt 0
 472 0012 83073503 		lb	a5,51(a0)
 375:C:/Users/stapi/OneDrive/Desktop/GD32VW553/GD32VW55X_Wifi_BLE_SDK/GD32VW55x_RELEASE_V1.0.2/MSDK/lwip/lwip-2.1.2/port\wifi_netif.c ****     if (len > 2)
 473              		.loc 1 375 16
 474 0016 A380F500 		sb	a5,1(a1)
 376:C:/Users/stapi/OneDrive/Desktop/GD32VW553/GD32VW55X_Wifi_BLE_SDK/GD32VW55x_RELEASE_V1.0.2/MSDK/lwip/lwip-2.1.2/port\wifi_netif.c ****         buf[2] = netif->num + '0';
 475              		.loc 1 376 5 is_stmt 1
 376:C:/Users/stapi/OneDrive/Desktop/GD32VW553/GD32VW55X_Wifi_BLE_SDK/GD32VW55x_RELEASE_V1.0.2/MSDK/lwip/lwip-2.1.2/port\wifi_netif.c ****         buf[2] = netif->num + '0';
 476              		.loc 1 376 8 is_stmt 0
 477 001a 8947     		li	a5,2
 478 001c 630DF600 		beq	a2,a5,.L40
 377:C:/Users/stapi/OneDrive/Desktop/GD32VW553/GD32VW55X_Wifi_BLE_SDK/GD32VW55x_RELEASE_V1.0.2/MSDK/lwip/lwip-2.1.2/port\wifi_netif.c ****     if ( len > 3)
 479              		.loc 1 377 9 is_stmt 1
 377:C:/Users/stapi/OneDrive/Desktop/GD32VW553/GD32VW55X_Wifi_BLE_SDK/GD32VW55x_RELEASE_V1.0.2/MSDK/lwip/lwip-2.1.2/port\wifi_netif.c ****     if ( len > 3)
 480              		.loc 1 377 29 is_stmt 0
 481 0020 83474503 		lbu	a5,52(a0)
 482 0024 93870703 		addi	a5,a5,48
 377:C:/Users/stapi/OneDrive/Desktop/GD32VW553/GD32VW55X_Wifi_BLE_SDK/GD32VW55x_RELEASE_V1.0.2/MSDK/lwip/lwip-2.1.2/port\wifi_netif.c ****     if ( len > 3)
 483              		.loc 1 377 16
 484 0028 2381F500 		sb	a5,2(a1)
 378:C:/Users/stapi/OneDrive/Desktop/GD32VW553/GD32VW55X_Wifi_BLE_SDK/GD32VW55x_RELEASE_V1.0.2/MSDK/lwip/lwip-2.1.2/port\wifi_netif.c ****         buf[3] = '\0';
 485              		.loc 1 378 5 is_stmt 1
 378:C:/Users/stapi/OneDrive/Desktop/GD32VW553/GD32VW55X_Wifi_BLE_SDK/GD32VW55x_RELEASE_V1.0.2/MSDK/lwip/lwip-2.1.2/port\wifi_netif.c ****         buf[3] = '\0';
 486              		.loc 1 378 8 is_stmt 0
 487 002c 8D47     		li	a5,3
 488 002e 6304F600 		beq	a2,a5,.L40
 379:C:/Users/stapi/OneDrive/Desktop/GD32VW553/GD32VW55X_Wifi_BLE_SDK/GD32VW55x_RELEASE_V1.0.2/MSDK/lwip/lwip-2.1.2/port\wifi_netif.c **** 
 489              		.loc 1 379 9 is_stmt 1
 379:C:/Users/stapi/OneDrive/Desktop/GD32VW553/GD32VW55X_Wifi_BLE_SDK/GD32VW55x_RELEASE_V1.0.2/MSDK/lwip/lwip-2.1.2/port\wifi_netif.c **** 
 490              		.loc 1 379 16 is_stmt 0
 491 0032 A3810500 		sb	zero,3(a1)
 492              	.L40:
 381:C:/Users/stapi/OneDrive/Desktop/GD32VW553/GD32VW55X_Wifi_BLE_SDK/GD32VW55x_RELEASE_V1.0.2/MSDK/lwip/lwip-2.1.2/port\wifi_netif.c **** }
 493              		.loc 1 381 5 is_stmt 1
 382:C:/Users/stapi/OneDrive/Desktop/GD32VW553/GD32VW55X_Wifi_BLE_SDK/GD32VW55x_RELEASE_V1.0.2/MSDK/lwip/lwip-2.1.2/port\wifi_netif.c **** 
 494              		.loc 1 382 1 is_stmt 0
 495 0036 0D45     		li	a0,3
 496              	.LVL58:
 497 0038 8280     		ret
 498              		.cfi_endproc
 499              	.LFE23:
 501              		.section	.text.net_if_up,"ax",@progbits
 502              		.align	1
 503              		.globl	net_if_up
 505              	net_if_up:
 506              	.LFB24:
 391:C:/Users/stapi/OneDrive/Desktop/GD32VW553/GD32VW55X_Wifi_BLE_SDK/GD32VW55x_RELEASE_V1.0.2/MSDK/lwip/lwip-2.1.2/port\wifi_netif.c ****     struct netif *netif = (struct netif *)net_if;
 507              		.loc 1 391 1 is_stmt 1
 508              		.cfi_startproc
 509              	.LVL59:
 392:C:/Users/stapi/OneDrive/Desktop/GD32VW553/GD32VW55X_Wifi_BLE_SDK/GD32VW55x_RELEASE_V1.0.2/MSDK/lwip/lwip-2.1.2/port\wifi_netif.c **** 
 510              		.loc 1 392 5
 394:C:/Users/stapi/OneDrive/Desktop/GD32VW553/GD32VW55X_Wifi_BLE_SDK/GD32VW55x_RELEASE_V1.0.2/MSDK/lwip/lwip-2.1.2/port\wifi_netif.c **** }
 511              		.loc 1 394 5
 512 0000 B7050000 		lui	a1,%hi(netif_set_up)
 513 0004 0146     		li	a2,0
 514 0006 93850500 		addi	a1,a1,%lo(netif_set_up)
 515 000a 17030000 		tail	netifapi_netif_common
 515      67000300 
 516              	.LVL60:
 517              		.cfi_endproc
 518              	.LFE24:
 520              		.section	.text.net_if_down,"ax",@progbits
 521              		.align	1
 522              		.globl	net_if_down
 524              	net_if_down:
 525              	.LFB25:
 404:C:/Users/stapi/OneDrive/Desktop/GD32VW553/GD32VW55X_Wifi_BLE_SDK/GD32VW55x_RELEASE_V1.0.2/MSDK/lwip/lwip-2.1.2/port\wifi_netif.c ****     struct netif *netif = (struct netif *)net_if;
 526              		.loc 1 404 1
 527              		.cfi_startproc
 528              	.LVL61:
 405:C:/Users/stapi/OneDrive/Desktop/GD32VW553/GD32VW55X_Wifi_BLE_SDK/GD32VW55x_RELEASE_V1.0.2/MSDK/lwip/lwip-2.1.2/port\wifi_netif.c **** 
 529              		.loc 1 405 5
 407:C:/Users/stapi/OneDrive/Desktop/GD32VW553/GD32VW55X_Wifi_BLE_SDK/GD32VW55x_RELEASE_V1.0.2/MSDK/lwip/lwip-2.1.2/port\wifi_netif.c **** }
 530              		.loc 1 407 5
 531 0000 B7050000 		lui	a1,%hi(netif_set_down)
 532 0004 0146     		li	a2,0
 533 0006 93850500 		addi	a1,a1,%lo(netif_set_down)
 534 000a 17030000 		tail	netifapi_netif_common
 534      67000300 
 535              	.LVL62:
 536              		.cfi_endproc
 537              	.LFE25:
 539              		.section	.text.net_if_set_default,"ax",@progbits
 540              		.align	1
 541              		.globl	net_if_set_default
 543              	net_if_set_default:
 544              	.LFB26:
 420:C:/Users/stapi/OneDrive/Desktop/GD32VW553/GD32VW55X_Wifi_BLE_SDK/GD32VW55x_RELEASE_V1.0.2/MSDK/lwip/lwip-2.1.2/port\wifi_netif.c ****     struct netif *netif = (struct netif *)net_if;
 545              		.loc 1 420 1
 546              		.cfi_startproc
 547              	.LVL63:
 421:C:/Users/stapi/OneDrive/Desktop/GD32VW553/GD32VW55X_Wifi_BLE_SDK/GD32VW55x_RELEASE_V1.0.2/MSDK/lwip/lwip-2.1.2/port\wifi_netif.c **** 
 548              		.loc 1 421 5
 423:C:/Users/stapi/OneDrive/Desktop/GD32VW553/GD32VW55X_Wifi_BLE_SDK/GD32VW55x_RELEASE_V1.0.2/MSDK/lwip/lwip-2.1.2/port\wifi_netif.c **** }
 549              		.loc 1 423 5
 550 0000 B7050000 		lui	a1,%hi(netif_set_default)
 551 0004 0146     		li	a2,0
 552 0006 93850500 		addi	a1,a1,%lo(netif_set_default)
 553 000a 17030000 		tail	netifapi_netif_common
 553      67000300 
 554              	.LVL64:
 555              		.cfi_endproc
 556              	.LFE26:
 558              		.section	.text.net_if_set_ip,"ax",@progbits
 559              		.align	1
 560              		.globl	net_if_set_ip
 562              	net_if_set_ip:
 563              	.LFB27:
 439:C:/Users/stapi/OneDrive/Desktop/GD32VW553/GD32VW55X_Wifi_BLE_SDK/GD32VW55x_RELEASE_V1.0.2/MSDK/lwip/lwip-2.1.2/port\wifi_netif.c ****     struct netif *netif = (struct netif *)net_if;
 564              		.loc 1 439 1
 565              		.cfi_startproc
 566              	.LVL65:
 567 0000 17030000 		call	t0,__riscv_save_0
 567      E7020300 
 568              		.cfi_offset 1, -4
 569              		.cfi_def_cfa_offset 16
 440:C:/Users/stapi/OneDrive/Desktop/GD32VW553/GD32VW55X_Wifi_BLE_SDK/GD32VW55x_RELEASE_V1.0.2/MSDK/lwip/lwip-2.1.2/port\wifi_netif.c **** 
 570              		.loc 1 440 5
 571              	.LVL66:
 442:C:/Users/stapi/OneDrive/Desktop/GD32VW553/GD32VW55X_Wifi_BLE_SDK/GD32VW55x_RELEASE_V1.0.2/MSDK/lwip/lwip-2.1.2/port\wifi_netif.c ****         return;
 572              		.loc 1 442 5
 439:C:/Users/stapi/OneDrive/Desktop/GD32VW553/GD32VW55X_Wifi_BLE_SDK/GD32VW55x_RELEASE_V1.0.2/MSDK/lwip/lwip-2.1.2/port\wifi_netif.c ****     struct netif *netif = (struct netif *)net_if;
 573              		.loc 1 439 1 is_stmt 0
 574 0008 4111     		addi	sp,sp,-16
 575              		.cfi_def_cfa_offset 32
 439:C:/Users/stapi/OneDrive/Desktop/GD32VW553/GD32VW55X_Wifi_BLE_SDK/GD32VW55x_RELEASE_V1.0.2/MSDK/lwip/lwip-2.1.2/port\wifi_netif.c ****     struct netif *netif = (struct netif *)net_if;
 576              		.loc 1 439 1
 577 000a 2EC6     		sw	a1,12(sp)
 578 000c 32C4     		sw	a2,8(sp)
 579 000e 36C2     		sw	a3,4(sp)
 442:C:/Users/stapi/OneDrive/Desktop/GD32VW553/GD32VW55X_Wifi_BLE_SDK/GD32VW55x_RELEASE_V1.0.2/MSDK/lwip/lwip-2.1.2/port\wifi_netif.c ****         return;
 580              		.loc 1 442 8
 581 0010 01C9     		beq	a0,zero,.L48
 444:C:/Users/stapi/OneDrive/Desktop/GD32VW553/GD32VW55X_Wifi_BLE_SDK/GD32VW55x_RELEASE_V1.0.2/MSDK/lwip/lwip-2.1.2/port\wifi_netif.c ****                    (const ip4_addr_t *)&gw);
 582              		.loc 1 444 5 is_stmt 1
 583 0012 5400     		addi	a3,sp,4
 584              	.LVL67:
 585 0014 3000     		addi	a2,sp,8
 586              	.LVL68:
 587 0016 6C00     		addi	a1,sp,12
 588              	.LVL69:
 589 0018 97000000 		call	netif_set_addr
 589      E7800000 
 590              	.LVL70:
 591              	.L48:
 446:C:/Users/stapi/OneDrive/Desktop/GD32VW553/GD32VW55X_Wifi_BLE_SDK/GD32VW55x_RELEASE_V1.0.2/MSDK/lwip/lwip-2.1.2/port\wifi_netif.c **** 
 592              		.loc 1 446 1 is_stmt 0
 593 0020 4101     		addi	sp,sp,16
 594              		.cfi_def_cfa_offset 0
 595 0022 17030000 		tail	__riscv_restore_0
 595      67000300 
 596              		.cfi_restore 1
 597              		.cfi_def_cfa_offset -16
 598              		.cfi_endproc
 599              	.LFE27:
 601              		.section	.text.net_if_get_ip,"ax",@progbits
 602              		.align	1
 603              		.globl	net_if_get_ip
 605              	net_if_get_ip:
 606              	.LFB28:
 459:C:/Users/stapi/OneDrive/Desktop/GD32VW553/GD32VW55X_Wifi_BLE_SDK/GD32VW55x_RELEASE_V1.0.2/MSDK/lwip/lwip-2.1.2/port\wifi_netif.c ****     struct netif *netif = (struct netif *)net_if;
 607              		.loc 1 459 1 is_stmt 1
 608              		.cfi_startproc
 609              	.LVL71:
 460:C:/Users/stapi/OneDrive/Desktop/GD32VW553/GD32VW55X_Wifi_BLE_SDK/GD32VW55x_RELEASE_V1.0.2/MSDK/lwip/lwip-2.1.2/port\wifi_netif.c **** 
 610              		.loc 1 460 5
 462:C:/Users/stapi/OneDrive/Desktop/GD32VW553/GD32VW55X_Wifi_BLE_SDK/GD32VW55x_RELEASE_V1.0.2/MSDK/lwip/lwip-2.1.2/port\wifi_netif.c ****         return -1;
 611              		.loc 1 462 5
 459:C:/Users/stapi/OneDrive/Desktop/GD32VW553/GD32VW55X_Wifi_BLE_SDK/GD32VW55x_RELEASE_V1.0.2/MSDK/lwip/lwip-2.1.2/port\wifi_netif.c ****     struct netif *netif = (struct netif *)net_if;
 612              		.loc 1 459 1 is_stmt 0
 613 0000 AA87     		mv	a5,a0
 462:C:/Users/stapi/OneDrive/Desktop/GD32VW553/GD32VW55X_Wifi_BLE_SDK/GD32VW55x_RELEASE_V1.0.2/MSDK/lwip/lwip-2.1.2/port\wifi_netif.c ****         return -1;
 614              		.loc 1 462 8
 615 0002 01CD     		beq	a0,zero,.L58
 465:C:/Users/stapi/OneDrive/Desktop/GD32VW553/GD32VW55X_Wifi_BLE_SDK/GD32VW55x_RELEASE_V1.0.2/MSDK/lwip/lwip-2.1.2/port\wifi_netif.c ****         *ip = netif_ip4_addr(netif)->addr;
 616              		.loc 1 465 5 is_stmt 1
 465:C:/Users/stapi/OneDrive/Desktop/GD32VW553/GD32VW55X_Wifi_BLE_SDK/GD32VW55x_RELEASE_V1.0.2/MSDK/lwip/lwip-2.1.2/port\wifi_netif.c ****         *ip = netif_ip4_addr(netif)->addr;
 617              		.loc 1 465 8 is_stmt 0
 618 0004 99C1     		beq	a1,zero,.L56
 466:C:/Users/stapi/OneDrive/Desktop/GD32VW553/GD32VW55X_Wifi_BLE_SDK/GD32VW55x_RELEASE_V1.0.2/MSDK/lwip/lwip-2.1.2/port\wifi_netif.c ****     if (mask)
 619              		.loc 1 466 9 is_stmt 1
 466:C:/Users/stapi/OneDrive/Desktop/GD32VW553/GD32VW55X_Wifi_BLE_SDK/GD32VW55x_RELEASE_V1.0.2/MSDK/lwip/lwip-2.1.2/port\wifi_netif.c ****     if (mask)
 620              		.loc 1 466 36 is_stmt 0
 621 0006 5841     		lw	a4,4(a0)
 466:C:/Users/stapi/OneDrive/Desktop/GD32VW553/GD32VW55X_Wifi_BLE_SDK/GD32VW55x_RELEASE_V1.0.2/MSDK/lwip/lwip-2.1.2/port\wifi_netif.c ****     if (mask)
 622              		.loc 1 466 13
 623 0008 98C1     		sw	a4,0(a1)
 624              	.L56:
 467:C:/Users/stapi/OneDrive/Desktop/GD32VW553/GD32VW55X_Wifi_BLE_SDK/GD32VW55x_RELEASE_V1.0.2/MSDK/lwip/lwip-2.1.2/port\wifi_netif.c ****         *mask = netif_ip4_netmask(netif)->addr;
 625              		.loc 1 467 5 is_stmt 1
 467:C:/Users/stapi/OneDrive/Desktop/GD32VW553/GD32VW55X_Wifi_BLE_SDK/GD32VW55x_RELEASE_V1.0.2/MSDK/lwip/lwip-2.1.2/port\wifi_netif.c ****         *mask = netif_ip4_netmask(netif)->addr;
 626              		.loc 1 467 8 is_stmt 0
 627 000a 19C2     		beq	a2,zero,.L57
 468:C:/Users/stapi/OneDrive/Desktop/GD32VW553/GD32VW55X_Wifi_BLE_SDK/GD32VW55x_RELEASE_V1.0.2/MSDK/lwip/lwip-2.1.2/port\wifi_netif.c ****     if (gw)
 628              		.loc 1 468 9 is_stmt 1
 468:C:/Users/stapi/OneDrive/Desktop/GD32VW553/GD32VW55X_Wifi_BLE_SDK/GD32VW55x_RELEASE_V1.0.2/MSDK/lwip/lwip-2.1.2/port\wifi_netif.c ****     if (gw)
 629              		.loc 1 468 41 is_stmt 0
 630 000c 9847     		lw	a4,8(a5)
 468:C:/Users/stapi/OneDrive/Desktop/GD32VW553/GD32VW55X_Wifi_BLE_SDK/GD32VW55x_RELEASE_V1.0.2/MSDK/lwip/lwip-2.1.2/port\wifi_netif.c ****     if (gw)
 631              		.loc 1 468 15
 632 000e 18C2     		sw	a4,0(a2)
 633              	.L57:
 469:C:/Users/stapi/OneDrive/Desktop/GD32VW553/GD32VW55X_Wifi_BLE_SDK/GD32VW55x_RELEASE_V1.0.2/MSDK/lwip/lwip-2.1.2/port\wifi_netif.c ****         *gw = netif_ip4_gw(netif)->addr;
 634              		.loc 1 469 5 is_stmt 1
 472:C:/Users/stapi/OneDrive/Desktop/GD32VW553/GD32VW55X_Wifi_BLE_SDK/GD32VW55x_RELEASE_V1.0.2/MSDK/lwip/lwip-2.1.2/port\wifi_netif.c **** }
 635              		.loc 1 472 12 is_stmt 0
 636 0010 0145     		li	a0,0
 637              	.LVL72:
 469:C:/Users/stapi/OneDrive/Desktop/GD32VW553/GD32VW55X_Wifi_BLE_SDK/GD32VW55x_RELEASE_V1.0.2/MSDK/lwip/lwip-2.1.2/port\wifi_netif.c ****         *gw = netif_ip4_gw(netif)->addr;
 638              		.loc 1 469 8
 639 0012 89C6     		beq	a3,zero,.L54
 470:C:/Users/stapi/OneDrive/Desktop/GD32VW553/GD32VW55X_Wifi_BLE_SDK/GD32VW55x_RELEASE_V1.0.2/MSDK/lwip/lwip-2.1.2/port\wifi_netif.c **** 
 640              		.loc 1 470 9 is_stmt 1
 470:C:/Users/stapi/OneDrive/Desktop/GD32VW553/GD32VW55X_Wifi_BLE_SDK/GD32VW55x_RELEASE_V1.0.2/MSDK/lwip/lwip-2.1.2/port\wifi_netif.c **** 
 641              		.loc 1 470 34 is_stmt 0
 642 0014 DC47     		lw	a5,12(a5)
 643              	.LVL73:
 470:C:/Users/stapi/OneDrive/Desktop/GD32VW553/GD32VW55X_Wifi_BLE_SDK/GD32VW55x_RELEASE_V1.0.2/MSDK/lwip/lwip-2.1.2/port\wifi_netif.c **** 
 644              		.loc 1 470 13
 645 0016 9CC2     		sw	a5,0(a3)
 646 0018 8280     		ret
 647              	.LVL74:
 648              	.L58:
 463:C:/Users/stapi/OneDrive/Desktop/GD32VW553/GD32VW55X_Wifi_BLE_SDK/GD32VW55x_RELEASE_V1.0.2/MSDK/lwip/lwip-2.1.2/port\wifi_netif.c **** 
 649              		.loc 1 463 16
 650 001a 7D55     		li	a0,-1
 651              	.LVL75:
 652              	.L54:
 473:C:/Users/stapi/OneDrive/Desktop/GD32VW553/GD32VW55X_Wifi_BLE_SDK/GD32VW55x_RELEASE_V1.0.2/MSDK/lwip/lwip-2.1.2/port\wifi_netif.c **** 
 653              		.loc 1 473 1
 654 001c 8280     		ret
 655              		.cfi_endproc
 656              	.LFE28:
 658              		.section	.rodata.net_if_input.str1.4,"aMS",@progbits,1
 659              		.align	2
 660              	.LC0:
 661 0000 70627566 		.string	"pbuf_alloced_custom NULL\r\n"
 661      5F616C6C 
 661      6F636564 
 661      5F637573 
 661      746F6D20 
 662              		.section	.text.net_if_input,"ax",@progbits
 663              		.align	1
 664              		.globl	net_if_input
 666              	net_if_input:
 667              	.LFB29:
 489:C:/Users/stapi/OneDrive/Desktop/GD32VW553/GD32VW55X_Wifi_BLE_SDK/GD32VW55x_RELEASE_V1.0.2/MSDK/lwip/lwip-2.1.2/port\wifi_netif.c ****     struct pbuf* p;
 668              		.loc 1 489 1 is_stmt 1
 669              		.cfi_startproc
 670              	.LVL76:
 671 0000 17030000 		call	t0,__riscv_save_3
 671      E7020300 
 672              		.cfi_offset 18, -16
 673              		.cfi_offset 9, -12
 674              		.cfi_offset 8, -8
 675              		.cfi_offset 1, -4
 676              		.cfi_def_cfa_offset 16
 490:C:/Users/stapi/OneDrive/Desktop/GD32VW553/GD32VW55X_Wifi_BLE_SDK/GD32VW55x_RELEASE_V1.0.2/MSDK/lwip/lwip-2.1.2/port\wifi_netif.c ****     struct netif *netif = (struct netif *)net_if;
 677              		.loc 1 490 5
 491:C:/Users/stapi/OneDrive/Desktop/GD32VW553/GD32VW55X_Wifi_BLE_SDK/GD32VW55x_RELEASE_V1.0.2/MSDK/lwip/lwip-2.1.2/port\wifi_netif.c **** 
 678              		.loc 1 491 5
 489:C:/Users/stapi/OneDrive/Desktop/GD32VW553/GD32VW55X_Wifi_BLE_SDK/GD32VW55x_RELEASE_V1.0.2/MSDK/lwip/lwip-2.1.2/port\wifi_netif.c ****     struct pbuf* p;
 679              		.loc 1 489 1 is_stmt 0
 680 0008 B687     		mv	a5,a3
 493:C:/Users/stapi/OneDrive/Desktop/GD32VW553/GD32VW55X_Wifi_BLE_SDK/GD32VW55x_RELEASE_V1.0.2/MSDK/lwip/lwip-2.1.2/port\wifi_netif.c ****     p = pbuf_alloced_custom(PBUF_RAW, len, PBUF_REF, buf, addr, len);
 681              		.loc 1 493 31
 682 000a 18C9     		sw	a4,16(a0)
 489:C:/Users/stapi/OneDrive/Desktop/GD32VW553/GD32VW55X_Wifi_BLE_SDK/GD32VW55x_RELEASE_V1.0.2/MSDK/lwip/lwip-2.1.2/port\wifi_netif.c ****     struct pbuf* p;
 683              		.loc 1 489 1
 684 000c 2A84     		mv	s0,a0
 685 000e AE84     		mv	s1,a1
 686              	.LVL77:
 493:C:/Users/stapi/OneDrive/Desktop/GD32VW553/GD32VW55X_Wifi_BLE_SDK/GD32VW55x_RELEASE_V1.0.2/MSDK/lwip/lwip-2.1.2/port\wifi_netif.c ****     p = pbuf_alloced_custom(PBUF_RAW, len, PBUF_REF, buf, addr, len);
 687              		.loc 1 493 5 is_stmt 1
 494:C:/Users/stapi/OneDrive/Desktop/GD32VW553/GD32VW55X_Wifi_BLE_SDK/GD32VW55x_RELEASE_V1.0.2/MSDK/lwip/lwip-2.1.2/port\wifi_netif.c ****     if (p == NULL)
 688              		.loc 1 494 5
 489:C:/Users/stapi/OneDrive/Desktop/GD32VW553/GD32VW55X_Wifi_BLE_SDK/GD32VW55x_RELEASE_V1.0.2/MSDK/lwip/lwip-2.1.2/port\wifi_netif.c ****     struct pbuf* p;
 689              		.loc 1 489 1 is_stmt 0
 690 0010 3A89     		mv	s2,a4
 494:C:/Users/stapi/OneDrive/Desktop/GD32VW553/GD32VW55X_Wifi_BLE_SDK/GD32VW55x_RELEASE_V1.0.2/MSDK/lwip/lwip-2.1.2/port\wifi_netif.c ****     if (p == NULL)
 691              		.loc 1 494 9
 692 0012 AA86     		mv	a3,a0
 693              	.LVL78:
 694 0014 3287     		mv	a4,a2
 695              	.LVL79:
 696 0016 BE85     		mv	a1,a5
 697              	.LVL80:
 698 0018 13061004 		li	a2,65
 699              	.LVL81:
 700 001c 0145     		li	a0,0
 701              	.LVL82:
 702 001e 97000000 		call	pbuf_alloced_custom
 702      E7800000 
 703              	.LVL83:
 495:C:/Users/stapi/OneDrive/Desktop/GD32VW553/GD32VW55X_Wifi_BLE_SDK/GD32VW55x_RELEASE_V1.0.2/MSDK/lwip/lwip-2.1.2/port\wifi_netif.c ****     {
 704              		.loc 1 495 5 is_stmt 1
 495:C:/Users/stapi/OneDrive/Desktop/GD32VW553/GD32VW55X_Wifi_BLE_SDK/GD32VW55x_RELEASE_V1.0.2/MSDK/lwip/lwip-2.1.2/port\wifi_netif.c ****     {
 705              		.loc 1 495 8 is_stmt 0
 706 0026 0DE5     		bne	a0,zero,.L67
 497:C:/Users/stapi/OneDrive/Desktop/GD32VW553/GD32VW55X_Wifi_BLE_SDK/GD32VW55x_RELEASE_V1.0.2/MSDK/lwip/lwip-2.1.2/port\wifi_netif.c ****         free_fn(buf);
 707              		.loc 1 497 9 is_stmt 1
 497:C:/Users/stapi/OneDrive/Desktop/GD32VW553/GD32VW55X_Wifi_BLE_SDK/GD32VW55x_RELEASE_V1.0.2/MSDK/lwip/lwip-2.1.2/port\wifi_netif.c ****         free_fn(buf);
 708              		.loc 1 497 9
 709 0028 B7070000 		lui	a5,%hi(global_debug_level)
 710 002c 83C70700 		lbu	a5,%lo(global_debug_level)(a5)
 711 0030 89CB     		beq	a5,zero,.L68
 497:C:/Users/stapi/OneDrive/Desktop/GD32VW553/GD32VW55X_Wifi_BLE_SDK/GD32VW55x_RELEASE_V1.0.2/MSDK/lwip/lwip-2.1.2/port\wifi_netif.c ****         free_fn(buf);
 712              		.loc 1 497 9 discriminator 1
 713 0032 37050000 		lui	a0,%hi(.LC0)
 714              	.LVL84:
 715 0036 13050500 		addi	a0,a0,%lo(.LC0)
 716 003a 97000000 		call	co_printf
 716      E7800000 
 717              	.LVL85:
 718              	.L68:
 497:C:/Users/stapi/OneDrive/Desktop/GD32VW553/GD32VW55X_Wifi_BLE_SDK/GD32VW55x_RELEASE_V1.0.2/MSDK/lwip/lwip-2.1.2/port\wifi_netif.c ****         free_fn(buf);
 719              		.loc 1 497 9 discriminator 3
 498:C:/Users/stapi/OneDrive/Desktop/GD32VW553/GD32VW55X_Wifi_BLE_SDK/GD32VW55x_RELEASE_V1.0.2/MSDK/lwip/lwip-2.1.2/port\wifi_netif.c ****         return -1;
 720              		.loc 1 498 9 discriminator 3
 721 0042 2285     		mv	a0,s0
 722 0044 0299     		jalr	s2
 723              	.LVL86:
 499:C:/Users/stapi/OneDrive/Desktop/GD32VW553/GD32VW55X_Wifi_BLE_SDK/GD32VW55x_RELEASE_V1.0.2/MSDK/lwip/lwip-2.1.2/port\wifi_netif.c ****     }
 724              		.loc 1 499 9 discriminator 3
 499:C:/Users/stapi/OneDrive/Desktop/GD32VW553/GD32VW55X_Wifi_BLE_SDK/GD32VW55x_RELEASE_V1.0.2/MSDK/lwip/lwip-2.1.2/port\wifi_netif.c ****     }
 725              		.loc 1 499 16 is_stmt 0 discriminator 3
 726 0046 7D55     		li	a0,-1
 727              	.L66:
 509:C:/Users/stapi/OneDrive/Desktop/GD32VW553/GD32VW55X_Wifi_BLE_SDK/GD32VW55x_RELEASE_V1.0.2/MSDK/lwip/lwip-2.1.2/port\wifi_netif.c **** 
 728              		.loc 1 509 1
 729 0048 17030000 		tail	__riscv_restore_3
 729      67000300 
 730              		.cfi_remember_state
 731              		.cfi_restore 18
 732              		.cfi_restore 9
 733              		.cfi_restore 8
 734              		.cfi_restore 1
 735              		.cfi_def_cfa_offset 0
 736              	.LVL87:
 737              	.L67:
 738              		.cfi_restore_state
 502:C:/Users/stapi/OneDrive/Desktop/GD32VW553/GD32VW55X_Wifi_BLE_SDK/GD32VW55x_RELEASE_V1.0.2/MSDK/lwip/lwip-2.1.2/port\wifi_netif.c ****     {
 739              		.loc 1 502 5 is_stmt 1
 502:C:/Users/stapi/OneDrive/Desktop/GD32VW553/GD32VW55X_Wifi_BLE_SDK/GD32VW55x_RELEASE_V1.0.2/MSDK/lwip/lwip-2.1.2/port\wifi_netif.c ****     {
 740              		.loc 1 502 9 is_stmt 0
 741 0050 9C48     		lw	a5,16(s1)
 742 0052 A685     		mv	a1,s1
 743 0054 8297     		jalr	a5
 744              	.LVL88:
 502:C:/Users/stapi/OneDrive/Desktop/GD32VW553/GD32VW55X_Wifi_BLE_SDK/GD32VW55x_RELEASE_V1.0.2/MSDK/lwip/lwip-2.1.2/port\wifi_netif.c ****     {
 745              		.loc 1 502 8
 746 0056 6DD9     		beq	a0,zero,.L66
 747 0058 EDB7     		j	.L68
 748              		.cfi_endproc
 749              	.LFE29:
 751              		.section	.text.net_if_vif_info,"ax",@progbits
 752              		.align	1
 753              		.globl	net_if_vif_info
 755              	net_if_vif_info:
 756              	.LFB30:
 519:C:/Users/stapi/OneDrive/Desktop/GD32VW553/GD32VW55X_Wifi_BLE_SDK/GD32VW55x_RELEASE_V1.0.2/MSDK/lwip/lwip-2.1.2/port\wifi_netif.c ****     struct netif *netif = (struct netif *)net_if;
 757              		.loc 1 519 1 is_stmt 1
 758              		.cfi_startproc
 759              	.LVL89:
 520:C:/Users/stapi/OneDrive/Desktop/GD32VW553/GD32VW55X_Wifi_BLE_SDK/GD32VW55x_RELEASE_V1.0.2/MSDK/lwip/lwip-2.1.2/port\wifi_netif.c **** 
 760              		.loc 1 520 5
 522:C:/Users/stapi/OneDrive/Desktop/GD32VW553/GD32VW55X_Wifi_BLE_SDK/GD32VW55x_RELEASE_V1.0.2/MSDK/lwip/lwip-2.1.2/port\wifi_netif.c **** }
 761              		.loc 1 522 5
 523:C:/Users/stapi/OneDrive/Desktop/GD32VW553/GD32VW55X_Wifi_BLE_SDK/GD32VW55x_RELEASE_V1.0.2/MSDK/lwip/lwip-2.1.2/port\wifi_netif.c **** 
 762              		.loc 1 523 1 is_stmt 0
 763 0000 484D     		lw	a0,28(a0)
 764              	.LVL90:
 765 0002 8280     		ret
 766              		.cfi_endproc
 767              	.LFE30:
 769              		.section	.text.net_buf_tx_alloc,"ax",@progbits
 770              		.align	1
 771              		.globl	net_buf_tx_alloc
 773              	net_buf_tx_alloc:
 774              	.LFB31:
 536:C:/Users/stapi/OneDrive/Desktop/GD32VW553/GD32VW55X_Wifi_BLE_SDK/GD32VW55x_RELEASE_V1.0.2/MSDK/lwip/lwip-2.1.2/port\wifi_netif.c ****     struct pbuf *pbuf;
 775              		.loc 1 536 1 is_stmt 1
 776              		.cfi_startproc
 777              	.LVL91:
 537:C:/Users/stapi/OneDrive/Desktop/GD32VW553/GD32VW55X_Wifi_BLE_SDK/GD32VW55x_RELEASE_V1.0.2/MSDK/lwip/lwip-2.1.2/port\wifi_netif.c **** 
 778              		.loc 1 537 5
 539:C:/Users/stapi/OneDrive/Desktop/GD32VW553/GD32VW55X_Wifi_BLE_SDK/GD32VW55x_RELEASE_V1.0.2/MSDK/lwip/lwip-2.1.2/port\wifi_netif.c ****     if (pbuf == NULL)
 779              		.loc 1 539 5
 539:C:/Users/stapi/OneDrive/Desktop/GD32VW553/GD32VW55X_Wifi_BLE_SDK/GD32VW55x_RELEASE_V1.0.2/MSDK/lwip/lwip-2.1.2/port\wifi_netif.c ****     if (pbuf == NULL)
 780              		.loc 1 539 12 is_stmt 0
 781 0000 B3450508 		zext.h	a1,a0
 782 0004 13060028 		li	a2,640
 783 0008 1305C015 		li	a0,348
 784              	.LVL92:
 785 000c 17030000 		tail	pbuf_alloc
 785      67000300 
 786              	.LVL93:
 540:C:/Users/stapi/OneDrive/Desktop/GD32VW553/GD32VW55X_Wifi_BLE_SDK/GD32VW55x_RELEASE_V1.0.2/MSDK/lwip/lwip-2.1.2/port\wifi_netif.c ****         return NULL;
 787              		.loc 1 540 5 is_stmt 1
 788              		.cfi_endproc
 789              	.LFE31:
 791              		.section	.text.net_buf_tx_alloc_ref,"ax",@progbits
 792              		.align	1
 793              		.globl	net_buf_tx_alloc_ref
 795              	net_buf_tx_alloc_ref:
 796              	.LFB32:
 556:C:/Users/stapi/OneDrive/Desktop/GD32VW553/GD32VW55X_Wifi_BLE_SDK/GD32VW55x_RELEASE_V1.0.2/MSDK/lwip/lwip-2.1.2/port\wifi_netif.c ****     struct pbuf *pbuf;
 797              		.loc 1 556 1
 798              		.cfi_startproc
 799              	.LVL94:
 557:C:/Users/stapi/OneDrive/Desktop/GD32VW553/GD32VW55X_Wifi_BLE_SDK/GD32VW55x_RELEASE_V1.0.2/MSDK/lwip/lwip-2.1.2/port\wifi_netif.c **** 
 800              		.loc 1 557 5
 559:C:/Users/stapi/OneDrive/Desktop/GD32VW553/GD32VW55X_Wifi_BLE_SDK/GD32VW55x_RELEASE_V1.0.2/MSDK/lwip/lwip-2.1.2/port\wifi_netif.c ****     if (pbuf == NULL)
 801              		.loc 1 559 5
 559:C:/Users/stapi/OneDrive/Desktop/GD32VW553/GD32VW55X_Wifi_BLE_SDK/GD32VW55x_RELEASE_V1.0.2/MSDK/lwip/lwip-2.1.2/port\wifi_netif.c ****     if (pbuf == NULL)
 802              		.loc 1 559 12 is_stmt 0
 803 0000 B3450508 		zext.h	a1,a0
 804 0004 13061004 		li	a2,65
 805 0008 1305C015 		li	a0,348
 806              	.LVL95:
 807 000c 17030000 		tail	pbuf_alloc
 807      67000300 
 808              	.LVL96:
 560:C:/Users/stapi/OneDrive/Desktop/GD32VW553/GD32VW55X_Wifi_BLE_SDK/GD32VW55x_RELEASE_V1.0.2/MSDK/lwip/lwip-2.1.2/port\wifi_netif.c ****         return NULL;
 809              		.loc 1 560 5 is_stmt 1
 810              		.cfi_endproc
 811              	.LFE32:
 813              		.section	.rodata.net_buf_tx_info.str1.4,"aMS",@progbits,1
 814              		.align	2
 815              	.LC1:
 816 0000 70627566 		.string	"pbuf_header() failed\r\n"
 816      5F686561 
 816      64657228 
 816      29206661 
 816      696C6564 
 817 0017 00       		.align	2
 818              	.LC2:
 819 0018 72656D61 		.string	"remaining length != 0\r\n"
 819      696E696E 
 819      67206C65 
 819      6E677468 
 819      20213D20 
 820              		.section	.text.net_buf_tx_info,"ax",@progbits
 821              		.align	1
 822              		.globl	net_buf_tx_info
 824              	net_buf_tx_info:
 825              	.LFB33:
 585:C:/Users/stapi/OneDrive/Desktop/GD32VW553/GD32VW55X_Wifi_BLE_SDK/GD32VW55x_RELEASE_V1.0.2/MSDK/lwip/lwip-2.1.2/port\wifi_netif.c ****     int idx, seg_cnt_max = *seg_cnt;
 826              		.loc 1 585 1
 827              		.cfi_startproc
 828              	.LVL97:
 829 0000 17030000 		call	t0,__riscv_save_6
 829      E7020300 
 830              		.cfi_offset 21, -28
 831              		.cfi_offset 20, -24
 832              		.cfi_offset 19, -20
 833              		.cfi_offset 18, -16
 834              		.cfi_offset 9, -12
 835              		.cfi_offset 8, -8
 836              		.cfi_offset 1, -4
 837              		.cfi_def_cfa_offset 32
 586:C:/Users/stapi/OneDrive/Desktop/GD32VW553/GD32VW55X_Wifi_BLE_SDK/GD32VW55x_RELEASE_V1.0.2/MSDK/lwip/lwip-2.1.2/port\wifi_netif.c ****     uint16_t length = buf->tot_len;
 838              		.loc 1 586 5
 587:C:/Users/stapi/OneDrive/Desktop/GD32VW553/GD32VW55X_Wifi_BLE_SDK/GD32VW55x_RELEASE_V1.0.2/MSDK/lwip/lwip-2.1.2/port\wifi_netif.c ****     void *headroom;
 839              		.loc 1 587 14 is_stmt 0
 840 0008 03548500 		lhu	s0,8(a0)
 595:C:/Users/stapi/OneDrive/Desktop/GD32VW553/GD32VW55X_Wifi_BLE_SDK/GD32VW55x_RELEASE_V1.0.2/MSDK/lwip/lwip-2.1.2/port\wifi_netif.c ****     seg_len[0] = buf->len;
 841              		.loc 1 595 17
 842 000c 5C41     		lw	a5,4(a0)
 586:C:/Users/stapi/OneDrive/Desktop/GD32VW553/GD32VW55X_Wifi_BLE_SDK/GD32VW55x_RELEASE_V1.0.2/MSDK/lwip/lwip-2.1.2/port\wifi_netif.c ****     uint16_t length = buf->tot_len;
 843              		.loc 1 586 14
 844 000e 832A0600 		lw	s5,0(a2)
 845              	.LVL98:
 587:C:/Users/stapi/OneDrive/Desktop/GD32VW553/GD32VW55X_Wifi_BLE_SDK/GD32VW55x_RELEASE_V1.0.2/MSDK/lwip/lwip-2.1.2/port\wifi_netif.c ****     void *headroom;
 846              		.loc 1 587 5 is_stmt 1
 588:C:/Users/stapi/OneDrive/Desktop/GD32VW553/GD32VW55X_Wifi_BLE_SDK/GD32VW55x_RELEASE_V1.0.2/MSDK/lwip/lwip-2.1.2/port\wifi_netif.c **** 
 847              		.loc 1 588 5
 590:C:/Users/stapi/OneDrive/Desktop/GD32VW553/GD32VW55X_Wifi_BLE_SDK/GD32VW55x_RELEASE_V1.0.2/MSDK/lwip/lwip-2.1.2/port\wifi_netif.c **** 
 848              		.loc 1 590 5
 590:C:/Users/stapi/OneDrive/Desktop/GD32VW553/GD32VW55X_Wifi_BLE_SDK/GD32VW55x_RELEASE_V1.0.2/MSDK/lwip/lwip-2.1.2/port\wifi_netif.c **** 
 849              		.loc 1 590 14 is_stmt 0
 850 0012 23908500 		sh	s0,0(a1)
 595:C:/Users/stapi/OneDrive/Desktop/GD32VW553/GD32VW55X_Wifi_BLE_SDK/GD32VW55x_RELEASE_V1.0.2/MSDK/lwip/lwip-2.1.2/port\wifi_netif.c ****     seg_len[0] = buf->len;
 851              		.loc 1 595 5 is_stmt 1
 595:C:/Users/stapi/OneDrive/Desktop/GD32VW553/GD32VW55X_Wifi_BLE_SDK/GD32VW55x_RELEASE_V1.0.2/MSDK/lwip/lwip-2.1.2/port\wifi_netif.c ****     seg_len[0] = buf->len;
 852              		.loc 1 595 17 is_stmt 0
 853 0016 9CC2     		sw	a5,0(a3)
 596:C:/Users/stapi/OneDrive/Desktop/GD32VW553/GD32VW55X_Wifi_BLE_SDK/GD32VW55x_RELEASE_V1.0.2/MSDK/lwip/lwip-2.1.2/port\wifi_netif.c ****     length -= buf->len;
 854              		.loc 1 596 5 is_stmt 1
 596:C:/Users/stapi/OneDrive/Desktop/GD32VW553/GD32VW55X_Wifi_BLE_SDK/GD32VW55x_RELEASE_V1.0.2/MSDK/lwip/lwip-2.1.2/port\wifi_netif.c ****     length -= buf->len;
 855              		.loc 1 596 21 is_stmt 0
 856 0018 8357A500 		lhu	a5,10(a0)
 600:C:/Users/stapi/OneDrive/Desktop/GD32VW553/GD32VW55X_Wifi_BLE_SDK/GD32VW55x_RELEASE_V1.0.2/MSDK/lwip/lwip-2.1.2/port\wifi_netif.c ****     {
 857              		.loc 1 600 9
 858 001c 9305C015 		li	a1,348
 859              	.LVL99:
 585:C:/Users/stapi/OneDrive/Desktop/GD32VW553/GD32VW55X_Wifi_BLE_SDK/GD32VW55x_RELEASE_V1.0.2/MSDK/lwip/lwip-2.1.2/port\wifi_netif.c ****     int idx, seg_cnt_max = *seg_cnt;
 860              		.loc 1 585 1
 861 0020 AA84     		mv	s1,a0
 596:C:/Users/stapi/OneDrive/Desktop/GD32VW553/GD32VW55X_Wifi_BLE_SDK/GD32VW55x_RELEASE_V1.0.2/MSDK/lwip/lwip-2.1.2/port\wifi_netif.c ****     length -= buf->len;
 862              		.loc 1 596 16
 863 0022 2310F700 		sh	a5,0(a4)
 597:C:/Users/stapi/OneDrive/Desktop/GD32VW553/GD32VW55X_Wifi_BLE_SDK/GD32VW55x_RELEASE_V1.0.2/MSDK/lwip/lwip-2.1.2/port\wifi_netif.c **** 
 864              		.loc 1 597 5 is_stmt 1
 597:C:/Users/stapi/OneDrive/Desktop/GD32VW553/GD32VW55X_Wifi_BLE_SDK/GD32VW55x_RELEASE_V1.0.2/MSDK/lwip/lwip-2.1.2/port\wifi_netif.c **** 
 865              		.loc 1 597 12 is_stmt 0
 866 0026 8357A500 		lhu	a5,10(a0)
 585:C:/Users/stapi/OneDrive/Desktop/GD32VW553/GD32VW55X_Wifi_BLE_SDK/GD32VW55x_RELEASE_V1.0.2/MSDK/lwip/lwip-2.1.2/port\wifi_netif.c ****     int idx, seg_cnt_max = *seg_cnt;
 867              		.loc 1 585 1
 868 002a 3289     		mv	s2,a2
 869 002c B689     		mv	s3,a3
 870 002e 3A8A     		mv	s4,a4
 597:C:/Users/stapi/OneDrive/Desktop/GD32VW553/GD32VW55X_Wifi_BLE_SDK/GD32VW55x_RELEASE_V1.0.2/MSDK/lwip/lwip-2.1.2/port\wifi_netif.c **** 
 871              		.loc 1 597 12
 872 0030 1D8C     		sub	s0,s0,a5
 873              	.LVL100:
 600:C:/Users/stapi/OneDrive/Desktop/GD32VW553/GD32VW55X_Wifi_BLE_SDK/GD32VW55x_RELEASE_V1.0.2/MSDK/lwip/lwip-2.1.2/port\wifi_netif.c ****     {
 874              		.loc 1 600 5 is_stmt 1
 600:C:/Users/stapi/OneDrive/Desktop/GD32VW553/GD32VW55X_Wifi_BLE_SDK/GD32VW55x_RELEASE_V1.0.2/MSDK/lwip/lwip-2.1.2/port\wifi_netif.c ****     {
 875              		.loc 1 600 9 is_stmt 0
 876 0032 97000000 		call	pbuf_header
 876      E7800000 
 877              	.LVL101:
 600:C:/Users/stapi/OneDrive/Desktop/GD32VW553/GD32VW55X_Wifi_BLE_SDK/GD32VW55x_RELEASE_V1.0.2/MSDK/lwip/lwip-2.1.2/port\wifi_netif.c ****     {
 878              		.loc 1 600 8
 879 003a 05C5     		beq	a0,zero,.L80
 603:C:/Users/stapi/OneDrive/Desktop/GD32VW553/GD32VW55X_Wifi_BLE_SDK/GD32VW55x_RELEASE_V1.0.2/MSDK/lwip/lwip-2.1.2/port\wifi_netif.c ****         return NULL;
 880              		.loc 1 603 9 is_stmt 1
 603:C:/Users/stapi/OneDrive/Desktop/GD32VW553/GD32VW55X_Wifi_BLE_SDK/GD32VW55x_RELEASE_V1.0.2/MSDK/lwip/lwip-2.1.2/port\wifi_netif.c ****         return NULL;
 881              		.loc 1 603 9
 882 003c B7070000 		lui	a5,%hi(global_debug_level)
 883 0040 83C70700 		lbu	a5,%lo(global_debug_level)(a5)
 884 0044 91E7     		bne	a5,zero,.L81
 885              	.LVL102:
 886              	.L100:
 629:C:/Users/stapi/OneDrive/Desktop/GD32VW553/GD32VW55X_Wifi_BLE_SDK/GD32VW55x_RELEASE_V1.0.2/MSDK/lwip/lwip-2.1.2/port\wifi_netif.c ****     }
 887              		.loc 1 629 16 is_stmt 0 discriminator 1
 888 0046 0145     		li	a0,0
 889              	.L79:
 633:C:/Users/stapi/OneDrive/Desktop/GD32VW553/GD32VW55X_Wifi_BLE_SDK/GD32VW55x_RELEASE_V1.0.2/MSDK/lwip/lwip-2.1.2/port\wifi_netif.c **** 
 890              		.loc 1 633 1
 891 0048 17030000 		tail	__riscv_restore_6
 891      67000300 
 892              		.cfi_remember_state
 893              		.cfi_restore 21
 894              		.cfi_restore 20
 895              		.cfi_restore 19
 896              		.cfi_restore 18
 897              		.cfi_restore 9
 898              		.cfi_restore 8
 899              		.cfi_restore 1
 900              		.cfi_def_cfa_offset 0
 901              	.LVL103:
 902              	.L81:
 903              		.cfi_restore_state
 603:C:/Users/stapi/OneDrive/Desktop/GD32VW553/GD32VW55X_Wifi_BLE_SDK/GD32VW55x_RELEASE_V1.0.2/MSDK/lwip/lwip-2.1.2/port\wifi_netif.c ****         return NULL;
 904              		.loc 1 603 9 is_stmt 1 discriminator 1
 905 0050 37050000 		lui	a0,%hi(.LC1)
 906 0054 13050500 		addi	a0,a0,%lo(.LC1)
 907              	.LVL104:
 908              	.L101:
 628:C:/Users/stapi/OneDrive/Desktop/GD32VW553/GD32VW55X_Wifi_BLE_SDK/GD32VW55x_RELEASE_V1.0.2/MSDK/lwip/lwip-2.1.2/port\wifi_netif.c ****         return NULL;
 909              		.loc 1 628 9 is_stmt 0 discriminator 1
 910 0058 97000000 		call	co_printf
 910      E7800000 
 911              	.LVL105:
 912 0060 DDB7     		j	.L100
 913              	.LVL106:
 914              	.L80:
 606:C:/Users/stapi/OneDrive/Desktop/GD32VW553/GD32VW55X_Wifi_BLE_SDK/GD32VW55x_RELEASE_V1.0.2/MSDK/lwip/lwip-2.1.2/port\wifi_netif.c **** 
 915              		.loc 1 606 24
 916 0062 C840     		lw	a0,4(s1)
 609:C:/Users/stapi/OneDrive/Desktop/GD32VW553/GD32VW55X_Wifi_BLE_SDK/GD32VW55x_RELEASE_V1.0.2/MSDK/lwip/lwip-2.1.2/port\wifi_netif.c ****     idx = 1;
 917              		.loc 1 609 9
 918 0064 8C40     		lw	a1,0(s1)
 610:C:/Users/stapi/OneDrive/Desktop/GD32VW553/GD32VW55X_Wifi_BLE_SDK/GD32VW55x_RELEASE_V1.0.2/MSDK/lwip/lwip-2.1.2/port\wifi_netif.c ****     while (length && buf && (idx < seg_cnt_max))
 919              		.loc 1 610 9
 920 0066 8547     		li	a5,1
 606:C:/Users/stapi/OneDrive/Desktop/GD32VW553/GD32VW55X_Wifi_BLE_SDK/GD32VW55x_RELEASE_V1.0.2/MSDK/lwip/lwip-2.1.2/port\wifi_netif.c **** 
 921              		.loc 1 606 24
 922 0068 0D05     		addi	a0,a0,3
 923 006a 7199     		andi	a0,a0,-4
 924 006c 33440408 		zext.h	s0,s0
 606:C:/Users/stapi/OneDrive/Desktop/GD32VW553/GD32VW55X_Wifi_BLE_SDK/GD32VW55x_RELEASE_V1.0.2/MSDK/lwip/lwip-2.1.2/port\wifi_netif.c **** 
 925              		.loc 1 606 5 is_stmt 1
 926              	.LVL107:
 609:C:/Users/stapi/OneDrive/Desktop/GD32VW553/GD32VW55X_Wifi_BLE_SDK/GD32VW55x_RELEASE_V1.0.2/MSDK/lwip/lwip-2.1.2/port\wifi_netif.c ****     idx = 1;
 927              		.loc 1 609 5
 610:C:/Users/stapi/OneDrive/Desktop/GD32VW553/GD32VW55X_Wifi_BLE_SDK/GD32VW55x_RELEASE_V1.0.2/MSDK/lwip/lwip-2.1.2/port\wifi_netif.c ****     while (length && buf && (idx < seg_cnt_max))
 928              		.loc 1 610 5
 611:C:/Users/stapi/OneDrive/Desktop/GD32VW553/GD32VW55X_Wifi_BLE_SDK/GD32VW55x_RELEASE_V1.0.2/MSDK/lwip/lwip-2.1.2/port\wifi_netif.c ****     {
 929              		.loc 1 611 5
 930              	.L83:
 611:C:/Users/stapi/OneDrive/Desktop/GD32VW553/GD32VW55X_Wifi_BLE_SDK/GD32VW55x_RELEASE_V1.0.2/MSDK/lwip/lwip-2.1.2/port\wifi_netif.c ****     {
 931              		.loc 1 611 11
 932 0070 01C4     		beq	s0,zero,.L84
 611:C:/Users/stapi/OneDrive/Desktop/GD32VW553/GD32VW55X_Wifi_BLE_SDK/GD32VW55x_RELEASE_V1.0.2/MSDK/lwip/lwip-2.1.2/port\wifi_netif.c ****     {
 933              		.loc 1 611 19 is_stmt 0 discriminator 1
 934 0072 99C1     		beq	a1,zero,.L84
 611:C:/Users/stapi/OneDrive/Desktop/GD32VW553/GD32VW55X_Wifi_BLE_SDK/GD32VW55x_RELEASE_V1.0.2/MSDK/lwip/lwip-2.1.2/port\wifi_netif.c ****     {
 935              		.loc 1 611 26 discriminator 2
 936 0074 63CF5701 		blt	a5,s5,.L85
 937              	.L84:
 624:C:/Users/stapi/OneDrive/Desktop/GD32VW553/GD32VW55X_Wifi_BLE_SDK/GD32VW55x_RELEASE_V1.0.2/MSDK/lwip/lwip-2.1.2/port\wifi_netif.c ****     if (length != 0)
 938              		.loc 1 624 5 is_stmt 1
 624:C:/Users/stapi/OneDrive/Desktop/GD32VW553/GD32VW55X_Wifi_BLE_SDK/GD32VW55x_RELEASE_V1.0.2/MSDK/lwip/lwip-2.1.2/port\wifi_netif.c ****     if (length != 0)
 939              		.loc 1 624 14 is_stmt 0
 940 0078 2320F900 		sw	a5,0(s2)
 625:C:/Users/stapi/OneDrive/Desktop/GD32VW553/GD32VW55X_Wifi_BLE_SDK/GD32VW55x_RELEASE_V1.0.2/MSDK/lwip/lwip-2.1.2/port\wifi_netif.c ****     {
 941              		.loc 1 625 5 is_stmt 1
 625:C:/Users/stapi/OneDrive/Desktop/GD32VW553/GD32VW55X_Wifi_BLE_SDK/GD32VW55x_RELEASE_V1.0.2/MSDK/lwip/lwip-2.1.2/port\wifi_netif.c ****     {
 942              		.loc 1 625 8 is_stmt 0
 943 007c 71D4     		beq	s0,zero,.L79
 628:C:/Users/stapi/OneDrive/Desktop/GD32VW553/GD32VW55X_Wifi_BLE_SDK/GD32VW55x_RELEASE_V1.0.2/MSDK/lwip/lwip-2.1.2/port\wifi_netif.c ****         return NULL;
 944              		.loc 1 628 9 is_stmt 1
 628:C:/Users/stapi/OneDrive/Desktop/GD32VW553/GD32VW55X_Wifi_BLE_SDK/GD32VW55x_RELEASE_V1.0.2/MSDK/lwip/lwip-2.1.2/port\wifi_netif.c ****         return NULL;
 945              		.loc 1 628 9
 946 007e B7070000 		lui	a5,%hi(global_debug_level)
 947              	.LVL108:
 948 0082 83C70700 		lbu	a5,%lo(global_debug_level)(a5)
 949 0086 E1D3     		beq	a5,zero,.L100
 628:C:/Users/stapi/OneDrive/Desktop/GD32VW553/GD32VW55X_Wifi_BLE_SDK/GD32VW55x_RELEASE_V1.0.2/MSDK/lwip/lwip-2.1.2/port\wifi_netif.c ****         return NULL;
 950              		.loc 1 628 9 discriminator 1
 951 0088 37050000 		lui	a0,%hi(.LC2)
 952              	.LVL109:
 953 008c 13050500 		addi	a0,a0,%lo(.LC2)
 954 0090 E1B7     		j	.L101
 955              	.LVL110:
 956              	.L85:
 617:C:/Users/stapi/OneDrive/Desktop/GD32VW553/GD32VW55X_Wifi_BLE_SDK/GD32VW55x_RELEASE_V1.0.2/MSDK/lwip/lwip-2.1.2/port\wifi_netif.c ****         seg_len[idx] = buf->len;
 957              		.loc 1 617 9
 617:C:/Users/stapi/OneDrive/Desktop/GD32VW553/GD32VW55X_Wifi_BLE_SDK/GD32VW55x_RELEASE_V1.0.2/MSDK/lwip/lwip-2.1.2/port\wifi_netif.c ****         seg_len[idx] = buf->len;
 958              		.loc 1 617 23 is_stmt 0
 959 0092 D441     		lw	a3,4(a1)
 960 0094 33C73721 		sh2add	a4,a5,s3
 961 0098 14C3     		sw	a3,0(a4)
 618:C:/Users/stapi/OneDrive/Desktop/GD32VW553/GD32VW55X_Wifi_BLE_SDK/GD32VW55x_RELEASE_V1.0.2/MSDK/lwip/lwip-2.1.2/port\wifi_netif.c ****         length -= buf->len;
 962              		.loc 1 618 9 is_stmt 1
 618:C:/Users/stapi/OneDrive/Desktop/GD32VW553/GD32VW55X_Wifi_BLE_SDK/GD32VW55x_RELEASE_V1.0.2/MSDK/lwip/lwip-2.1.2/port\wifi_netif.c ****         length -= buf->len;
 963              		.loc 1 618 27 is_stmt 0
 964 009a 83D6A500 		lhu	a3,10(a1)
 618:C:/Users/stapi/OneDrive/Desktop/GD32VW553/GD32VW55X_Wifi_BLE_SDK/GD32VW55x_RELEASE_V1.0.2/MSDK/lwip/lwip-2.1.2/port\wifi_netif.c ****         length -= buf->len;
 965              		.loc 1 618 22
 966 009e 33A74721 		sh1add	a4,a5,s4
 620:C:/Users/stapi/OneDrive/Desktop/GD32VW553/GD32VW55X_Wifi_BLE_SDK/GD32VW55x_RELEASE_V1.0.2/MSDK/lwip/lwip-2.1.2/port\wifi_netif.c ****         buf = buf->next;
 967              		.loc 1 620 12
 968 00a2 8507     		addi	a5,a5,1
 969              	.LVL111:
 618:C:/Users/stapi/OneDrive/Desktop/GD32VW553/GD32VW55X_Wifi_BLE_SDK/GD32VW55x_RELEASE_V1.0.2/MSDK/lwip/lwip-2.1.2/port\wifi_netif.c ****         length -= buf->len;
 970              		.loc 1 618 22
 971 00a4 2310D700 		sh	a3,0(a4)
 619:C:/Users/stapi/OneDrive/Desktop/GD32VW553/GD32VW55X_Wifi_BLE_SDK/GD32VW55x_RELEASE_V1.0.2/MSDK/lwip/lwip-2.1.2/port\wifi_netif.c ****         idx++;
 972              		.loc 1 619 9 is_stmt 1
 619:C:/Users/stapi/OneDrive/Desktop/GD32VW553/GD32VW55X_Wifi_BLE_SDK/GD32VW55x_RELEASE_V1.0.2/MSDK/lwip/lwip-2.1.2/port\wifi_netif.c ****         idx++;
 973              		.loc 1 619 16 is_stmt 0
 974 00a8 03D7A500 		lhu	a4,10(a1)
 621:C:/Users/stapi/OneDrive/Desktop/GD32VW553/GD32VW55X_Wifi_BLE_SDK/GD32VW55x_RELEASE_V1.0.2/MSDK/lwip/lwip-2.1.2/port\wifi_netif.c ****     }
 975              		.loc 1 621 13
 976 00ac 8C41     		lw	a1,0(a1)
 977              	.LVL112:
 619:C:/Users/stapi/OneDrive/Desktop/GD32VW553/GD32VW55X_Wifi_BLE_SDK/GD32VW55x_RELEASE_V1.0.2/MSDK/lwip/lwip-2.1.2/port\wifi_netif.c ****         idx++;
 978              		.loc 1 619 16
 979 00ae 198C     		sub	s0,s0,a4
 980              	.LVL113:
 981 00b0 33440408 		zext.h	s0,s0
 982              	.LVL114:
 620:C:/Users/stapi/OneDrive/Desktop/GD32VW553/GD32VW55X_Wifi_BLE_SDK/GD32VW55x_RELEASE_V1.0.2/MSDK/lwip/lwip-2.1.2/port\wifi_netif.c ****         buf = buf->next;
 983              		.loc 1 620 9 is_stmt 1
 621:C:/Users/stapi/OneDrive/Desktop/GD32VW553/GD32VW55X_Wifi_BLE_SDK/GD32VW55x_RELEASE_V1.0.2/MSDK/lwip/lwip-2.1.2/port\wifi_netif.c ****     }
 984              		.loc 1 621 9
 985 00b4 75BF     		j	.L83
 986              		.cfi_endproc
 987              	.LFE33:
 989              		.section	.text.net_buf_tx_free,"ax",@progbits
 990              		.align	1
 991              		.globl	net_buf_tx_free
 993              	net_buf_tx_free:
 994              	.LFB34:
 642:C:/Users/stapi/OneDrive/Desktop/GD32VW553/GD32VW55X_Wifi_BLE_SDK/GD32VW55x_RELEASE_V1.0.2/MSDK/lwip/lwip-2.1.2/port\wifi_netif.c ****     // Remove the link encapsulation header
 995              		.loc 1 642 1
 996              		.cfi_startproc
 997              	.LVL115:
 998 0000 17030000 		call	t0,__riscv_save_1
 998      E7020300 
 999              		.cfi_offset 8, -8
 1000              		.cfi_offset 1, -4
 1001              		.cfi_def_cfa_offset 16
 644:C:/Users/stapi/OneDrive/Desktop/GD32VW553/GD32VW55X_Wifi_BLE_SDK/GD32VW55x_RELEASE_V1.0.2/MSDK/lwip/lwip-2.1.2/port\wifi_netif.c **** 
 1002              		.loc 1 644 5
 1003 0008 930540EA 		li	a1,-348
 642:C:/Users/stapi/OneDrive/Desktop/GD32VW553/GD32VW55X_Wifi_BLE_SDK/GD32VW55x_RELEASE_V1.0.2/MSDK/lwip/lwip-2.1.2/port\wifi_netif.c ****     // Remove the link encapsulation header
 1004              		.loc 1 642 1 is_stmt 0
 1005 000c 2A84     		mv	s0,a0
 644:C:/Users/stapi/OneDrive/Desktop/GD32VW553/GD32VW55X_Wifi_BLE_SDK/GD32VW55x_RELEASE_V1.0.2/MSDK/lwip/lwip-2.1.2/port\wifi_netif.c **** 
 1006              		.loc 1 644 5
 1007 000e 97000000 		call	pbuf_header
 1007      E7800000 
 1008              	.LVL116:
 647:C:/Users/stapi/OneDrive/Desktop/GD32VW553/GD32VW55X_Wifi_BLE_SDK/GD32VW55x_RELEASE_V1.0.2/MSDK/lwip/lwip-2.1.2/port\wifi_netif.c **** }
 1009              		.loc 1 647 5 is_stmt 1
 1010 0016 2285     		mv	a0,s0
 1011 0018 97000000 		call	pbuf_free
 1011      E7800000 
 1012              	.LVL117:
 648:C:/Users/stapi/OneDrive/Desktop/GD32VW553/GD32VW55X_Wifi_BLE_SDK/GD32VW55x_RELEASE_V1.0.2/MSDK/lwip/lwip-2.1.2/port\wifi_netif.c **** 
 1013              		.loc 1 648 1 is_stmt 0
 1014 0020 17030000 		tail	__riscv_restore_1
 1014      67000300 
 1015              		.cfi_restore 8
 1016              		.cfi_restore 1
 1017              		.cfi_def_cfa_offset 0
 1018              		.cfi_endproc
 1019              	.LFE34:
 1021              		.section	.text.net_buf_tx_cat,"ax",@progbits
 1022              		.align	1
 1023              		.globl	net_buf_tx_cat
 1025              	net_buf_tx_cat:
 1026              	.LFB35:
 658:C:/Users/stapi/OneDrive/Desktop/GD32VW553/GD32VW55X_Wifi_BLE_SDK/GD32VW55x_RELEASE_V1.0.2/MSDK/lwip/lwip-2.1.2/port\wifi_netif.c ****     pbuf_cat(net_buf_tx_1, net_buf_tx_2);
 1027              		.loc 1 658 1 is_stmt 1
 1028              		.cfi_startproc
 1029              	.LVL118:
 659:C:/Users/stapi/OneDrive/Desktop/GD32VW553/GD32VW55X_Wifi_BLE_SDK/GD32VW55x_RELEASE_V1.0.2/MSDK/lwip/lwip-2.1.2/port\wifi_netif.c **** }
 1030              		.loc 1 659 5
 1031 0000 17030000 		tail	pbuf_cat
 1031      67000300 
 1032              	.LVL119:
 1033              		.cfi_endproc
 1034              	.LFE35:
 1036              		.section	.rodata.net_init.str1.4,"aMS",@progbits,1
 1037              		.align	2
 1038              	.LC3:
 1039 0000 73797320 		.string	"sys sema init failed\r\n"
 1039      73656D61 
 1039      20696E69 
 1039      74206661 
 1039      696C6564 
 1040              		.section	.text.net_init,"ax",@progbits
 1041              		.align	1
 1042              		.globl	net_init
 1044              	net_init:
 1045              	.LFB36:
 691:C:/Users/stapi/OneDrive/Desktop/GD32VW553/GD32VW55X_Wifi_BLE_SDK/GD32VW55x_RELEASE_V1.0.2/MSDK/lwip/lwip-2.1.2/port\wifi_netif.c ****     int i;
 1046              		.loc 1 691 1
 1047              		.cfi_startproc
 1048 0000 17030000 		call	t0,__riscv_save_2
 1048      E7020300 
 1049              		.cfi_offset 9, -12
 1050              		.cfi_offset 8, -8
 1051              		.cfi_offset 1, -4
 1052              		.cfi_def_cfa_offset 16
 692:C:/Users/stapi/OneDrive/Desktop/GD32VW553/GD32VW55X_Wifi_BLE_SDK/GD32VW55x_RELEASE_V1.0.2/MSDK/lwip/lwip-2.1.2/port\wifi_netif.c **** 
 1053              		.loc 1 692 5
 694:C:/Users/stapi/OneDrive/Desktop/GD32VW553/GD32VW55X_Wifi_BLE_SDK/GD32VW55x_RELEASE_V1.0.2/MSDK/lwip/lwip-2.1.2/port\wifi_netif.c ****     {
 1054              		.loc 1 694 5
 1055              	.LVL120:
 694:C:/Users/stapi/OneDrive/Desktop/GD32VW553/GD32VW55X_Wifi_BLE_SDK/GD32VW55x_RELEASE_V1.0.2/MSDK/lwip/lwip-2.1.2/port\wifi_netif.c ****     {
 1056              		.loc 1 694 17
 696:C:/Users/stapi/OneDrive/Desktop/GD32VW553/GD32VW55X_Wifi_BLE_SDK/GD32VW55x_RELEASE_V1.0.2/MSDK/lwip/lwip-2.1.2/port\wifi_netif.c ****     }
 1057              		.loc 1 696 9
 696:C:/Users/stapi/OneDrive/Desktop/GD32VW553/GD32VW55X_Wifi_BLE_SDK/GD32VW55x_RELEASE_V1.0.2/MSDK/lwip/lwip-2.1.2/port\wifi_netif.c ****     }
 1058              		.loc 1 696 29 is_stmt 0
 1059 0008 B7070000 		lui	a5,%hi(.LANCHOR1)
 1060 000c 93870700 		addi	a5,a5,%lo(.LANCHOR1)
 699:C:/Users/stapi/OneDrive/Desktop/GD32VW553/GD32VW55X_Wifi_BLE_SDK/GD32VW55x_RELEASE_V1.0.2/MSDK/lwip/lwip-2.1.2/port\wifi_netif.c ****     {
 1061              		.loc 1 699 9
 1062 0010 37050000 		lui	a0,%hi(.LANCHOR0)
 696:C:/Users/stapi/OneDrive/Desktop/GD32VW553/GD32VW55X_Wifi_BLE_SDK/GD32VW55x_RELEASE_V1.0.2/MSDK/lwip/lwip-2.1.2/port\wifi_netif.c ****     }
 1063              		.loc 1 696 29
 1064 0014 23A00700 		sw	zero,0(a5)
 694:C:/Users/stapi/OneDrive/Desktop/GD32VW553/GD32VW55X_Wifi_BLE_SDK/GD32VW55x_RELEASE_V1.0.2/MSDK/lwip/lwip-2.1.2/port\wifi_netif.c ****     {
 1065              		.loc 1 694 40 is_stmt 1
 1066              	.LVL121:
 694:C:/Users/stapi/OneDrive/Desktop/GD32VW553/GD32VW55X_Wifi_BLE_SDK/GD32VW55x_RELEASE_V1.0.2/MSDK/lwip/lwip-2.1.2/port\wifi_netif.c ****     {
 1067              		.loc 1 694 17
 696:C:/Users/stapi/OneDrive/Desktop/GD32VW553/GD32VW55X_Wifi_BLE_SDK/GD32VW55x_RELEASE_V1.0.2/MSDK/lwip/lwip-2.1.2/port\wifi_netif.c ****     }
 1068              		.loc 1 696 9
 696:C:/Users/stapi/OneDrive/Desktop/GD32VW553/GD32VW55X_Wifi_BLE_SDK/GD32VW55x_RELEASE_V1.0.2/MSDK/lwip/lwip-2.1.2/port\wifi_netif.c ****     }
 1069              		.loc 1 696 29 is_stmt 0
 1070 0018 23A80700 		sw	zero,16(a5)
 694:C:/Users/stapi/OneDrive/Desktop/GD32VW553/GD32VW55X_Wifi_BLE_SDK/GD32VW55x_RELEASE_V1.0.2/MSDK/lwip/lwip-2.1.2/port\wifi_netif.c ****     {
 1071              		.loc 1 694 40 is_stmt 1
 1072              	.LVL122:
 694:C:/Users/stapi/OneDrive/Desktop/GD32VW553/GD32VW55X_Wifi_BLE_SDK/GD32VW55x_RELEASE_V1.0.2/MSDK/lwip/lwip-2.1.2/port\wifi_netif.c ****     {
 1073              		.loc 1 694 17
 699:C:/Users/stapi/OneDrive/Desktop/GD32VW553/GD32VW55X_Wifi_BLE_SDK/GD32VW55x_RELEASE_V1.0.2/MSDK/lwip/lwip-2.1.2/port\wifi_netif.c ****     {
 1074              		.loc 1 699 5
 699:C:/Users/stapi/OneDrive/Desktop/GD32VW553/GD32VW55X_Wifi_BLE_SDK/GD32VW55x_RELEASE_V1.0.2/MSDK/lwip/lwip-2.1.2/port\wifi_netif.c ****     {
 1075              		.loc 1 699 9 is_stmt 0
 1076 001c 0146     		li	a2,0
 1077 001e 8545     		li	a1,1
 1078 0020 13050500 		addi	a0,a0,%lo(.LANCHOR0)
 1079 0024 97000000 		call	sys_sema_init_ext
 1079      E7800000 
 1080              	.LVL123:
 699:C:/Users/stapi/OneDrive/Desktop/GD32VW553/GD32VW55X_Wifi_BLE_SDK/GD32VW55x_RELEASE_V1.0.2/MSDK/lwip/lwip-2.1.2/port\wifi_netif.c ****     {
 1081              		.loc 1 699 8
 1082 002c 0DC5     		beq	a0,zero,.L107
 1083              	.L112:
 701:C:/Users/stapi/OneDrive/Desktop/GD32VW553/GD32VW55X_Wifi_BLE_SDK/GD32VW55x_RELEASE_V1.0.2/MSDK/lwip/lwip-2.1.2/port\wifi_netif.c ****         return -1;
 1084              		.loc 1 701 9 is_stmt 1
 701:C:/Users/stapi/OneDrive/Desktop/GD32VW553/GD32VW55X_Wifi_BLE_SDK/GD32VW55x_RELEASE_V1.0.2/MSDK/lwip/lwip-2.1.2/port\wifi_netif.c ****         return -1;
 1085              		.loc 1 701 9
 1086 002e B7070000 		lui	a5,%hi(global_debug_level)
 1087 0032 83C70700 		lbu	a5,%lo(global_debug_level)(a5)
 1088 0036 99E7     		bne	a5,zero,.L108
 1089              	.L113:
 702:C:/Users/stapi/OneDrive/Desktop/GD32VW553/GD32VW55X_Wifi_BLE_SDK/GD32VW55x_RELEASE_V1.0.2/MSDK/lwip/lwip-2.1.2/port\wifi_netif.c ****     }
 1090              		.loc 1 702 16 is_stmt 0 discriminator 1
 1091 0038 7D54     		li	s0,-1
 1092              	.L106:
 716:C:/Users/stapi/OneDrive/Desktop/GD32VW553/GD32VW55X_Wifi_BLE_SDK/GD32VW55x_RELEASE_V1.0.2/MSDK/lwip/lwip-2.1.2/port\wifi_netif.c **** 
 1093              		.loc 1 716 1
 1094 003a 2285     		mv	a0,s0
 1095 003c 17030000 		tail	__riscv_restore_2
 1095      67000300 
 1096              		.cfi_remember_state
 1097              		.cfi_restore 9
 1098              		.cfi_restore 8
 1099              		.cfi_restore 1
 1100              		.cfi_def_cfa_offset 0
 1101              	.L108:
 1102              		.cfi_restore_state
 701:C:/Users/stapi/OneDrive/Desktop/GD32VW553/GD32VW55X_Wifi_BLE_SDK/GD32VW55x_RELEASE_V1.0.2/MSDK/lwip/lwip-2.1.2/port\wifi_netif.c ****         return -1;
 1103              		.loc 1 701 9 is_stmt 1 discriminator 1
 1104 0044 37050000 		lui	a0,%hi(.LC3)
 1105 0048 13050500 		addi	a0,a0,%lo(.LC3)
 1106 004c 97000000 		call	co_printf
 1106      E7800000 
 1107              	.LVL124:
 1108 0054 D5B7     		j	.L113
 1109              	.L107:
 1110 0056 2A84     		mv	s0,a0
 705:C:/Users/stapi/OneDrive/Desktop/GD32VW553/GD32VW55X_Wifi_BLE_SDK/GD32VW55x_RELEASE_V1.0.2/MSDK/lwip/lwip-2.1.2/port\wifi_netif.c ****     if (l2_mutex == NULL)
 1111              		.loc 1 705 5
 1112 0058 37050000 		lui	a0,%hi(.LANCHOR2)
 1113 005c 93040500 		addi	s1,a0,%lo(.LANCHOR2)
 1114 0060 13050500 		addi	a0,a0,%lo(.LANCHOR2)
 1115 0064 97000000 		call	sys_mutex_init
 1115      E7800000 
 1116              	.LVL125:
 706:C:/Users/stapi/OneDrive/Desktop/GD32VW553/GD32VW55X_Wifi_BLE_SDK/GD32VW55x_RELEASE_V1.0.2/MSDK/lwip/lwip-2.1.2/port\wifi_netif.c ****     {
 1117              		.loc 1 706 5
 706:C:/Users/stapi/OneDrive/Desktop/GD32VW553/GD32VW55X_Wifi_BLE_SDK/GD32VW55x_RELEASE_V1.0.2/MSDK/lwip/lwip-2.1.2/port\wifi_netif.c ****     {
 1118              		.loc 1 706 8 is_stmt 0
 1119 006c 9C40     		lw	a5,0(s1)
 1120 006e F1F7     		bne	a5,zero,.L106
 1121 0070 7DBF     		j	.L112
 1122              		.cfi_endproc
 1123              	.LFE36:
 1125              		.section	.text.net_deinit,"ax",@progbits
 1126              		.align	1
 1127              		.globl	net_deinit
 1129              	net_deinit:
 1130              	.LFB37:
 725:C:/Users/stapi/OneDrive/Desktop/GD32VW553/GD32VW55X_Wifi_BLE_SDK/GD32VW55x_RELEASE_V1.0.2/MSDK/lwip/lwip-2.1.2/port\wifi_netif.c ****     if (l2_semaphore) {
 1131              		.loc 1 725 1 is_stmt 1
 1132              		.cfi_startproc
 1133 0000 17030000 		call	t0,__riscv_save_1
 1133      E7020300 
 1134              		.cfi_offset 8, -8
 1135              		.cfi_offset 1, -4
 1136              		.cfi_def_cfa_offset 16
 726:C:/Users/stapi/OneDrive/Desktop/GD32VW553/GD32VW55X_Wifi_BLE_SDK/GD32VW55x_RELEASE_V1.0.2/MSDK/lwip/lwip-2.1.2/port\wifi_netif.c ****         sys_sem_free(&l2_semaphore);
 1137              		.loc 1 726 5
 726:C:/Users/stapi/OneDrive/Desktop/GD32VW553/GD32VW55X_Wifi_BLE_SDK/GD32VW55x_RELEASE_V1.0.2/MSDK/lwip/lwip-2.1.2/port\wifi_netif.c ****         sys_sem_free(&l2_semaphore);
 1138              		.loc 1 726 9 is_stmt 0
 1139 0008 37050000 		lui	a0,%hi(.LANCHOR0)
 1140 000c 13040500 		addi	s0,a0,%lo(.LANCHOR0)
 726:C:/Users/stapi/OneDrive/Desktop/GD32VW553/GD32VW55X_Wifi_BLE_SDK/GD32VW55x_RELEASE_V1.0.2/MSDK/lwip/lwip-2.1.2/port\wifi_netif.c ****         sys_sem_free(&l2_semaphore);
 1141              		.loc 1 726 8
 1142 0010 1C40     		lw	a5,0(s0)
 1143 0012 89CB     		beq	a5,zero,.L115
 727:C:/Users/stapi/OneDrive/Desktop/GD32VW553/GD32VW55X_Wifi_BLE_SDK/GD32VW55x_RELEASE_V1.0.2/MSDK/lwip/lwip-2.1.2/port\wifi_netif.c ****         l2_semaphore = NULL;
 1144              		.loc 1 727 9 is_stmt 1
 1145 0014 13050500 		addi	a0,a0,%lo(.LANCHOR0)
 1146 0018 97000000 		call	sys_sem_free
 1146      E7800000 
 1147              	.LVL126:
 728:C:/Users/stapi/OneDrive/Desktop/GD32VW553/GD32VW55X_Wifi_BLE_SDK/GD32VW55x_RELEASE_V1.0.2/MSDK/lwip/lwip-2.1.2/port\wifi_netif.c ****     }
 1148              		.loc 1 728 9
 728:C:/Users/stapi/OneDrive/Desktop/GD32VW553/GD32VW55X_Wifi_BLE_SDK/GD32VW55x_RELEASE_V1.0.2/MSDK/lwip/lwip-2.1.2/port\wifi_netif.c ****     }
 1149              		.loc 1 728 22 is_stmt 0
 1150 0020 23200400 		sw	zero,0(s0)
 1151              	.L115:
 730:C:/Users/stapi/OneDrive/Desktop/GD32VW553/GD32VW55X_Wifi_BLE_SDK/GD32VW55x_RELEASE_V1.0.2/MSDK/lwip/lwip-2.1.2/port\wifi_netif.c ****         sys_mutex_free(&l2_mutex);
 1152              		.loc 1 730 5 is_stmt 1
 730:C:/Users/stapi/OneDrive/Desktop/GD32VW553/GD32VW55X_Wifi_BLE_SDK/GD32VW55x_RELEASE_V1.0.2/MSDK/lwip/lwip-2.1.2/port\wifi_netif.c ****         sys_mutex_free(&l2_mutex);
 1153              		.loc 1 730 9 is_stmt 0
 1154 0024 37050000 		lui	a0,%hi(.LANCHOR2)
 1155 0028 13040500 		addi	s0,a0,%lo(.LANCHOR2)
 730:C:/Users/stapi/OneDrive/Desktop/GD32VW553/GD32VW55X_Wifi_BLE_SDK/GD32VW55x_RELEASE_V1.0.2/MSDK/lwip/lwip-2.1.2/port\wifi_netif.c ****         sys_mutex_free(&l2_mutex);
 1156              		.loc 1 730 8
 1157 002c 1C40     		lw	a5,0(s0)
 1158 002e 89CB     		beq	a5,zero,.L114
 731:C:/Users/stapi/OneDrive/Desktop/GD32VW553/GD32VW55X_Wifi_BLE_SDK/GD32VW55x_RELEASE_V1.0.2/MSDK/lwip/lwip-2.1.2/port\wifi_netif.c ****         l2_mutex = NULL;
 1159              		.loc 1 731 9 is_stmt 1
 1160 0030 13050500 		addi	a0,a0,%lo(.LANCHOR2)
 1161 0034 97000000 		call	sys_mutex_free
 1161      E7800000 
 1162              	.LVL127:
 732:C:/Users/stapi/OneDrive/Desktop/GD32VW553/GD32VW55X_Wifi_BLE_SDK/GD32VW55x_RELEASE_V1.0.2/MSDK/lwip/lwip-2.1.2/port\wifi_netif.c ****     }
 1163              		.loc 1 732 9
 732:C:/Users/stapi/OneDrive/Desktop/GD32VW553/GD32VW55X_Wifi_BLE_SDK/GD32VW55x_RELEASE_V1.0.2/MSDK/lwip/lwip-2.1.2/port\wifi_netif.c ****     }
 1164              		.loc 1 732 18 is_stmt 0
 1165 003c 23200400 		sw	zero,0(s0)
 1166              	.L114:
 734:C:/Users/stapi/OneDrive/Desktop/GD32VW553/GD32VW55X_Wifi_BLE_SDK/GD32VW55x_RELEASE_V1.0.2/MSDK/lwip/lwip-2.1.2/port\wifi_netif.c **** 
 1167              		.loc 1 734 1
 1168 0040 17030000 		tail	__riscv_restore_1
 1168      67000300 
 1169              		.cfi_restore 8
 1170              		.cfi_restore 1
 1171              		.cfi_def_cfa_offset 0
 1172              		.cfi_endproc
 1173              	.LFE37:
 1175              		.section	.text.net_l2_send,"ax",@progbits
 1176              		.align	1
 1177              		.globl	net_l2_send
 1179              	net_l2_send:
 1180              	.LFB39:
 741:C:/Users/stapi/OneDrive/Desktop/GD32VW553/GD32VW55X_Wifi_BLE_SDK/GD32VW55x_RELEASE_V1.0.2/MSDK/lwip/lwip-2.1.2/port\wifi_netif.c **** }
 742:C:/Users/stapi/OneDrive/Desktop/GD32VW553/GD32VW55X_Wifi_BLE_SDK/GD32VW55x_RELEASE_V1.0.2/MSDK/lwip/lwip-2.1.2/port\wifi_netif.c **** 
 743:C:/Users/stapi/OneDrive/Desktop/GD32VW553/GD32VW55X_Wifi_BLE_SDK/GD32VW55x_RELEASE_V1.0.2/MSDK/lwip/lwip-2.1.2/port\wifi_netif.c **** /*!
 744:C:/Users/stapi/OneDrive/Desktop/GD32VW553/GD32VW55X_Wifi_BLE_SDK/GD32VW55x_RELEASE_V1.0.2/MSDK/lwip/lwip-2.1.2/port\wifi_netif.c ****     \brief      Send a L2 (aka ethernet) packet
 745:C:/Users/stapi/OneDrive/Desktop/GD32VW553/GD32VW55X_Wifi_BLE_SDK/GD32VW55x_RELEASE_V1.0.2/MSDK/lwip/lwip-2.1.2/port\wifi_netif.c ****                 Send data on the link layer (L2). If destination address is not NULL, Ethernet head
 746:C:/Users/stapi/OneDrive/Desktop/GD32VW553/GD32VW55X_Wifi_BLE_SDK/GD32VW55x_RELEASE_V1.0.2/MSDK/lwip/lwip-2.1.2/port\wifi_netif.c ****                 will be added (using ethertype parameter) and MAC address of the sending interface 
 747:C:/Users/stapi/OneDrive/Desktop/GD32VW553/GD32VW55X_Wifi_BLE_SDK/GD32VW55x_RELEASE_V1.0.2/MSDK/lwip/lwip-2.1.2/port\wifi_netif.c ****                 used as source address. If destination address is NULL, it means that ethernet head
 748:C:/Users/stapi/OneDrive/Desktop/GD32VW553/GD32VW55X_Wifi_BLE_SDK/GD32VW55x_RELEASE_V1.0.2/MSDK/lwip/lwip-2.1.2/port\wifi_netif.c ****                 is already present and frame should be send as is.
 749:C:/Users/stapi/OneDrive/Desktop/GD32VW553/GD32VW55X_Wifi_BLE_SDK/GD32VW55x_RELEASE_V1.0.2/MSDK/lwip/lwip-2.1.2/port\wifi_netif.c ****                 The data buffer will be copied by this function, and must then be freed by the call
 750:C:/Users/stapi/OneDrive/Desktop/GD32VW553/GD32VW55X_Wifi_BLE_SDK/GD32VW55x_RELEASE_V1.0.2/MSDK/lwip/lwip-2.1.2/port\wifi_netif.c **** 
 751:C:/Users/stapi/OneDrive/Desktop/GD32VW553/GD32VW55X_Wifi_BLE_SDK/GD32VW55x_RELEASE_V1.0.2/MSDK/lwip/lwip-2.1.2/port\wifi_netif.c ****                 The primary purpose of this function is to allow the supplicant sending EAPOL frame
 752:C:/Users/stapi/OneDrive/Desktop/GD32VW553/GD32VW55X_Wifi_BLE_SDK/GD32VW55x_RELEASE_V1.0.2/MSDK/lwip/lwip-2.1.2/port\wifi_netif.c ****                 As these frames are often followed by addition/deletion of crypto keys, that
 753:C:/Users/stapi/OneDrive/Desktop/GD32VW553/GD32VW55X_Wifi_BLE_SDK/GD32VW55x_RELEASE_V1.0.2/MSDK/lwip/lwip-2.1.2/port\wifi_netif.c ****                 can cause encryption to be enabled/disabled in the MAC, it is required to ensure th
 754:C:/Users/stapi/OneDrive/Desktop/GD32VW553/GD32VW55X_Wifi_BLE_SDK/GD32VW55x_RELEASE_V1.0.2/MSDK/lwip/lwip-2.1.2/port\wifi_netif.c ****                 the packet transmission is completed before proceeding to the key setting.
 755:C:/Users/stapi/OneDrive/Desktop/GD32VW553/GD32VW55X_Wifi_BLE_SDK/GD32VW55x_RELEASE_V1.0.2/MSDK/lwip/lwip-2.1.2/port\wifi_netif.c ****                 This function shall therefore be blocking until the frame has been transmitted by t
 756:C:/Users/stapi/OneDrive/Desktop/GD32VW553/GD32VW55X_Wifi_BLE_SDK/GD32VW55x_RELEASE_V1.0.2/MSDK/lwip/lwip-2.1.2/port\wifi_netif.c ****                 MAC.
 757:C:/Users/stapi/OneDrive/Desktop/GD32VW553/GD32VW55X_Wifi_BLE_SDK/GD32VW55x_RELEASE_V1.0.2/MSDK/lwip/lwip-2.1.2/port\wifi_netif.c ****     \param[in]  net_if: Pointer to the net_if structure.
 758:C:/Users/stapi/OneDrive/Desktop/GD32VW553/GD32VW55X_Wifi_BLE_SDK/GD32VW55x_RELEASE_V1.0.2/MSDK/lwip/lwip-2.1.2/port\wifi_netif.c ****     \param[in]  data: Data buffer to send.
 759:C:/Users/stapi/OneDrive/Desktop/GD32VW553/GD32VW55X_Wifi_BLE_SDK/GD32VW55x_RELEASE_V1.0.2/MSDK/lwip/lwip-2.1.2/port\wifi_netif.c ****     \param[in]  data_len: Buffer size, in bytes.
 760:C:/Users/stapi/OneDrive/Desktop/GD32VW553/GD32VW55X_Wifi_BLE_SDK/GD32VW55x_RELEASE_V1.0.2/MSDK/lwip/lwip-2.1.2/port\wifi_netif.c ****     \param[in]  ethertype: Ethernet type to set in the ethernet header. (in host endianess)
 761:C:/Users/stapi/OneDrive/Desktop/GD32VW553/GD32VW55X_Wifi_BLE_SDK/GD32VW55x_RELEASE_V1.0.2/MSDK/lwip/lwip-2.1.2/port\wifi_netif.c ****     \param[in]  dst_addr: Ethernet address of the destination. If NULL then it means that ethernet 
 762:C:/Users/stapi/OneDrive/Desktop/GD32VW553/GD32VW55X_Wifi_BLE_SDK/GD32VW55x_RELEASE_V1.0.2/MSDK/lwip/lwip-2.1.2/port\wifi_netif.c ****                           is already present in the frame (and in this case ethertype should be ign
 763:C:/Users/stapi/OneDrive/Desktop/GD32VW553/GD32VW55X_Wifi_BLE_SDK/GD32VW55x_RELEASE_V1.0.2/MSDK/lwip/lwip-2.1.2/port\wifi_netif.c ****     \param[out] ack: Optional to get transmission status. If not NULL, the value pointed is set to 
 764:C:/Users/stapi/OneDrive/Desktop/GD32VW553/GD32VW55X_Wifi_BLE_SDK/GD32VW55x_RELEASE_V1.0.2/MSDK/lwip/lwip-2.1.2/port\wifi_netif.c ****                      if peer acknowledged the transmission and false in all other cases.
 765:C:/Users/stapi/OneDrive/Desktop/GD32VW553/GD32VW55X_Wifi_BLE_SDK/GD32VW55x_RELEASE_V1.0.2/MSDK/lwip/lwip-2.1.2/port\wifi_netif.c ****     \retval     0 on success and != 0 if packet hasn't been sentegment
 766:C:/Users/stapi/OneDrive/Desktop/GD32VW553/GD32VW55X_Wifi_BLE_SDK/GD32VW55x_RELEASE_V1.0.2/MSDK/lwip/lwip-2.1.2/port\wifi_netif.c **** */
 767:C:/Users/stapi/OneDrive/Desktop/GD32VW553/GD32VW55X_Wifi_BLE_SDK/GD32VW55x_RELEASE_V1.0.2/MSDK/lwip/lwip-2.1.2/port\wifi_netif.c **** int net_l2_send(void *net_if, const uint8_t *data, int data_len, uint16_t ethertype,
 768:C:/Users/stapi/OneDrive/Desktop/GD32VW553/GD32VW55X_Wifi_BLE_SDK/GD32VW55x_RELEASE_V1.0.2/MSDK/lwip/lwip-2.1.2/port\wifi_netif.c ****                 const uint8_t *dst_addr, bool *ack)
 769:C:/Users/stapi/OneDrive/Desktop/GD32VW553/GD32VW55X_Wifi_BLE_SDK/GD32VW55x_RELEASE_V1.0.2/MSDK/lwip/lwip-2.1.2/port\wifi_netif.c **** {
 1181              		.loc 1 769 1 is_stmt 1
 1182              		.cfi_startproc
 1183              	.LVL128:
 1184 0000 17030000 		call	t0,__riscv_save_7
 1184      E7020300 
 1185              		.cfi_offset 22, -32
 1186              		.cfi_offset 21, -28
 1187              		.cfi_offset 20, -24
 1188              		.cfi_offset 19, -20
 1189              		.cfi_offset 18, -16
 1190              		.cfi_offset 9, -12
 1191              		.cfi_offset 8, -8
 1192              		.cfi_offset 1, -4
 1193              		.cfi_def_cfa_offset 32
 770:C:/Users/stapi/OneDrive/Desktop/GD32VW553/GD32VW55X_Wifi_BLE_SDK/GD32VW55x_RELEASE_V1.0.2/MSDK/lwip/lwip-2.1.2/port\wifi_netif.c ****     struct pbuf *pbuf;
 1194              		.loc 1 770 5
 771:C:/Users/stapi/OneDrive/Desktop/GD32VW553/GD32VW55X_Wifi_BLE_SDK/GD32VW55x_RELEASE_V1.0.2/MSDK/lwip/lwip-2.1.2/port\wifi_netif.c ****     int res;
 1195              		.loc 1 771 5
 772:C:/Users/stapi/OneDrive/Desktop/GD32VW553/GD32VW55X_Wifi_BLE_SDK/GD32VW55x_RELEASE_V1.0.2/MSDK/lwip/lwip-2.1.2/port\wifi_netif.c ****     struct netif *netif = (struct netif *)net_if;
 1196              		.loc 1 772 5
 1197              	.LVL129:
 773:C:/Users/stapi/OneDrive/Desktop/GD32VW553/GD32VW55X_Wifi_BLE_SDK/GD32VW55x_RELEASE_V1.0.2/MSDK/lwip/lwip-2.1.2/port\wifi_netif.c **** 
 774:C:/Users/stapi/OneDrive/Desktop/GD32VW553/GD32VW55X_Wifi_BLE_SDK/GD32VW55x_RELEASE_V1.0.2/MSDK/lwip/lwip-2.1.2/port\wifi_netif.c ****     if (netif == NULL || data == NULL || data_len >= netif->mtu || !netif_is_up(netif))
 1198              		.loc 1 774 5
 1199              		.loc 1 774 8 is_stmt 0
 1200 0008 19E5     		bne	a0,zero,.L125
 1201              	.LVL130:
 1202              	.L143:
 1203              	.LBB8:
 775:C:/Users/stapi/OneDrive/Desktop/GD32VW553/GD32VW55X_Wifi_BLE_SDK/GD32VW55x_RELEASE_V1.0.2/MSDK/lwip/lwip-2.1.2/port\wifi_netif.c ****         return -1;
 776:C:/Users/stapi/OneDrive/Desktop/GD32VW553/GD32VW55X_Wifi_BLE_SDK/GD32VW55x_RELEASE_V1.0.2/MSDK/lwip/lwip-2.1.2/port\wifi_netif.c **** 
 777:C:/Users/stapi/OneDrive/Desktop/GD32VW553/GD32VW55X_Wifi_BLE_SDK/GD32VW55x_RELEASE_V1.0.2/MSDK/lwip/lwip-2.1.2/port\wifi_netif.c ****     pbuf = pbuf_alloc(PBUF_LINK, data_len, PBUF_RAM);
 778:C:/Users/stapi/OneDrive/Desktop/GD32VW553/GD32VW55X_Wifi_BLE_SDK/GD32VW55x_RELEASE_V1.0.2/MSDK/lwip/lwip-2.1.2/port\wifi_netif.c ****     if (pbuf == NULL)
 779:C:/Users/stapi/OneDrive/Desktop/GD32VW553/GD32VW55X_Wifi_BLE_SDK/GD32VW55x_RELEASE_V1.0.2/MSDK/lwip/lwip-2.1.2/port\wifi_netif.c ****         return -1;
 780:C:/Users/stapi/OneDrive/Desktop/GD32VW553/GD32VW55X_Wifi_BLE_SDK/GD32VW55x_RELEASE_V1.0.2/MSDK/lwip/lwip-2.1.2/port\wifi_netif.c **** 
 781:C:/Users/stapi/OneDrive/Desktop/GD32VW553/GD32VW55X_Wifi_BLE_SDK/GD32VW55x_RELEASE_V1.0.2/MSDK/lwip/lwip-2.1.2/port\wifi_netif.c ****     sys_memcpy(pbuf->payload, data, data_len);
 782:C:/Users/stapi/OneDrive/Desktop/GD32VW553/GD32VW55X_Wifi_BLE_SDK/GD32VW55x_RELEASE_V1.0.2/MSDK/lwip/lwip-2.1.2/port\wifi_netif.c **** 
 783:C:/Users/stapi/OneDrive/Desktop/GD32VW553/GD32VW55X_Wifi_BLE_SDK/GD32VW55x_RELEASE_V1.0.2/MSDK/lwip/lwip-2.1.2/port\wifi_netif.c ****     if (dst_addr)
 784:C:/Users/stapi/OneDrive/Desktop/GD32VW553/GD32VW55X_Wifi_BLE_SDK/GD32VW55x_RELEASE_V1.0.2/MSDK/lwip/lwip-2.1.2/port\wifi_netif.c ****     {
 785:C:/Users/stapi/OneDrive/Desktop/GD32VW553/GD32VW55X_Wifi_BLE_SDK/GD32VW55x_RELEASE_V1.0.2/MSDK/lwip/lwip-2.1.2/port\wifi_netif.c ****         // Need to add ethernet header as macif_tx_start is called directly
 786:C:/Users/stapi/OneDrive/Desktop/GD32VW553/GD32VW55X_Wifi_BLE_SDK/GD32VW55x_RELEASE_V1.0.2/MSDK/lwip/lwip-2.1.2/port\wifi_netif.c ****         struct eth_hdr* ethhdr;
 787:C:/Users/stapi/OneDrive/Desktop/GD32VW553/GD32VW55X_Wifi_BLE_SDK/GD32VW55x_RELEASE_V1.0.2/MSDK/lwip/lwip-2.1.2/port\wifi_netif.c ****         if (pbuf_header(pbuf, SIZEOF_ETH_HDR))
 788:C:/Users/stapi/OneDrive/Desktop/GD32VW553/GD32VW55X_Wifi_BLE_SDK/GD32VW55x_RELEASE_V1.0.2/MSDK/lwip/lwip-2.1.2/port\wifi_netif.c ****         {
 789:C:/Users/stapi/OneDrive/Desktop/GD32VW553/GD32VW55X_Wifi_BLE_SDK/GD32VW55x_RELEASE_V1.0.2/MSDK/lwip/lwip-2.1.2/port\wifi_netif.c ****             pbuf_free(pbuf);
 790:C:/Users/stapi/OneDrive/Desktop/GD32VW553/GD32VW55X_Wifi_BLE_SDK/GD32VW55x_RELEASE_V1.0.2/MSDK/lwip/lwip-2.1.2/port\wifi_netif.c ****             return -1;
 1204              		.loc 1 790 13 is_stmt 1
 1205              		.loc 1 790 20 is_stmt 0
 1206 000a 7D54     		li	s0,-1
 1207              	.L124:
 1208              	.LBE8:
 791:C:/Users/stapi/OneDrive/Desktop/GD32VW553/GD32VW55X_Wifi_BLE_SDK/GD32VW55x_RELEASE_V1.0.2/MSDK/lwip/lwip-2.1.2/port\wifi_netif.c ****         }
 792:C:/Users/stapi/OneDrive/Desktop/GD32VW553/GD32VW55X_Wifi_BLE_SDK/GD32VW55x_RELEASE_V1.0.2/MSDK/lwip/lwip-2.1.2/port\wifi_netif.c ****         ethhdr = (struct eth_hdr*)pbuf->payload;
 793:C:/Users/stapi/OneDrive/Desktop/GD32VW553/GD32VW55X_Wifi_BLE_SDK/GD32VW55x_RELEASE_V1.0.2/MSDK/lwip/lwip-2.1.2/port\wifi_netif.c ****         ethhdr->type = htons(ethertype);
 794:C:/Users/stapi/OneDrive/Desktop/GD32VW553/GD32VW55X_Wifi_BLE_SDK/GD32VW55x_RELEASE_V1.0.2/MSDK/lwip/lwip-2.1.2/port\wifi_netif.c ****         sys_memcpy(&ethhdr->dest, dst_addr, sizeof(struct eth_addr));
 795:C:/Users/stapi/OneDrive/Desktop/GD32VW553/GD32VW55X_Wifi_BLE_SDK/GD32VW55x_RELEASE_V1.0.2/MSDK/lwip/lwip-2.1.2/port\wifi_netif.c ****         sys_memcpy(&ethhdr->src, netif->hwaddr, sizeof(struct eth_addr));
 796:C:/Users/stapi/OneDrive/Desktop/GD32VW553/GD32VW55X_Wifi_BLE_SDK/GD32VW55x_RELEASE_V1.0.2/MSDK/lwip/lwip-2.1.2/port\wifi_netif.c ****     }
 797:C:/Users/stapi/OneDrive/Desktop/GD32VW553/GD32VW55X_Wifi_BLE_SDK/GD32VW55x_RELEASE_V1.0.2/MSDK/lwip/lwip-2.1.2/port\wifi_netif.c **** 
 798:C:/Users/stapi/OneDrive/Desktop/GD32VW553/GD32VW55X_Wifi_BLE_SDK/GD32VW55x_RELEASE_V1.0.2/MSDK/lwip/lwip-2.1.2/port\wifi_netif.c ****     // Ensure no other thread will program a L2 transmission while this one is waiting
 799:C:/Users/stapi/OneDrive/Desktop/GD32VW553/GD32VW55X_Wifi_BLE_SDK/GD32VW55x_RELEASE_V1.0.2/MSDK/lwip/lwip-2.1.2/port\wifi_netif.c ****     // for its confirmation
 800:C:/Users/stapi/OneDrive/Desktop/GD32VW553/GD32VW55X_Wifi_BLE_SDK/GD32VW55x_RELEASE_V1.0.2/MSDK/lwip/lwip-2.1.2/port\wifi_netif.c ****     sys_mutex_get(&l2_mutex);
 801:C:/Users/stapi/OneDrive/Desktop/GD32VW553/GD32VW55X_Wifi_BLE_SDK/GD32VW55x_RELEASE_V1.0.2/MSDK/lwip/lwip-2.1.2/port\wifi_netif.c **** 
 802:C:/Users/stapi/OneDrive/Desktop/GD32VW553/GD32VW55X_Wifi_BLE_SDK/GD32VW55x_RELEASE_V1.0.2/MSDK/lwip/lwip-2.1.2/port\wifi_netif.c ****     // In order to implement this function as blocking until the completion of the frame
 803:C:/Users/stapi/OneDrive/Desktop/GD32VW553/GD32VW55X_Wifi_BLE_SDK/GD32VW55x_RELEASE_V1.0.2/MSDK/lwip/lwip-2.1.2/port\wifi_netif.c ****     // transmission, directly call macif_tx_start with a confirmation callback.
 804:C:/Users/stapi/OneDrive/Desktop/GD32VW553/GD32VW55X_Wifi_BLE_SDK/GD32VW55x_RELEASE_V1.0.2/MSDK/lwip/lwip-2.1.2/port\wifi_netif.c ****     res = macif_tx_start(netif, pbuf, net_l2_send_cfm, ack);
 805:C:/Users/stapi/OneDrive/Desktop/GD32VW553/GD32VW55X_Wifi_BLE_SDK/GD32VW55x_RELEASE_V1.0.2/MSDK/lwip/lwip-2.1.2/port\wifi_netif.c **** 
 806:C:/Users/stapi/OneDrive/Desktop/GD32VW553/GD32VW55X_Wifi_BLE_SDK/GD32VW55x_RELEASE_V1.0.2/MSDK/lwip/lwip-2.1.2/port\wifi_netif.c ****     // Wait for the transmission completion
 807:C:/Users/stapi/OneDrive/Desktop/GD32VW553/GD32VW55X_Wifi_BLE_SDK/GD32VW55x_RELEASE_V1.0.2/MSDK/lwip/lwip-2.1.2/port\wifi_netif.c ****     sys_sema_down(&l2_semaphore, 0);
 808:C:/Users/stapi/OneDrive/Desktop/GD32VW553/GD32VW55X_Wifi_BLE_SDK/GD32VW55x_RELEASE_V1.0.2/MSDK/lwip/lwip-2.1.2/port\wifi_netif.c **** 
 809:C:/Users/stapi/OneDrive/Desktop/GD32VW553/GD32VW55X_Wifi_BLE_SDK/GD32VW55x_RELEASE_V1.0.2/MSDK/lwip/lwip-2.1.2/port\wifi_netif.c ****     // Now new L2 transmissions are possible
 810:C:/Users/stapi/OneDrive/Desktop/GD32VW553/GD32VW55X_Wifi_BLE_SDK/GD32VW55x_RELEASE_V1.0.2/MSDK/lwip/lwip-2.1.2/port\wifi_netif.c ****     sys_mutex_put(&l2_mutex);
 811:C:/Users/stapi/OneDrive/Desktop/GD32VW553/GD32VW55X_Wifi_BLE_SDK/GD32VW55x_RELEASE_V1.0.2/MSDK/lwip/lwip-2.1.2/port\wifi_netif.c **** 
 812:C:/Users/stapi/OneDrive/Desktop/GD32VW553/GD32VW55X_Wifi_BLE_SDK/GD32VW55x_RELEASE_V1.0.2/MSDK/lwip/lwip-2.1.2/port\wifi_netif.c ****     return res;
 813:C:/Users/stapi/OneDrive/Desktop/GD32VW553/GD32VW55X_Wifi_BLE_SDK/GD32VW55x_RELEASE_V1.0.2/MSDK/lwip/lwip-2.1.2/port\wifi_netif.c **** }
 1209              		.loc 1 813 1
 1210 000c 2285     		mv	a0,s0
 1211 000e 17030000 		tail	__riscv_restore_7
 1211      67000300 
 1212              		.cfi_remember_state
 1213              		.cfi_restore 22
 1214              		.cfi_restore 21
 1215              		.cfi_restore 20
 1216              		.cfi_restore 19
 1217              		.cfi_restore 18
 1218              		.cfi_restore 9
 1219              		.cfi_restore 8
 1220              		.cfi_restore 1
 1221              		.cfi_def_cfa_offset 0
 1222              	.LVL131:
 1223              	.L125:
 1224              		.cfi_restore_state
 1225 0016 2E8A     		mv	s4,a1
 774:C:/Users/stapi/OneDrive/Desktop/GD32VW553/GD32VW55X_Wifi_BLE_SDK/GD32VW55x_RELEASE_V1.0.2/MSDK/lwip/lwip-2.1.2/port\wifi_netif.c ****         return -1;
 1226              		.loc 1 774 23 discriminator 1
 1227 0018 EDD9     		beq	a1,zero,.L143
 1228 001a BE8A     		mv	s5,a5
 774:C:/Users/stapi/OneDrive/Desktop/GD32VW553/GD32VW55X_Wifi_BLE_SDK/GD32VW55x_RELEASE_V1.0.2/MSDK/lwip/lwip-2.1.2/port\wifi_netif.c ****         return -1;
 1229              		.loc 1 774 59 discriminator 2
 1230 001c 83578502 		lhu	a5,40(a0)
 1231              	.LVL132:
 1232 0020 AA84     		mv	s1,a0
 1233 0022 3289     		mv	s2,a2
 774:C:/Users/stapi/OneDrive/Desktop/GD32VW553/GD32VW55X_Wifi_BLE_SDK/GD32VW55x_RELEASE_V1.0.2/MSDK/lwip/lwip-2.1.2/port\wifi_netif.c ****         return -1;
 1234              		.loc 1 774 39 discriminator 2
 1235 0024 E353F6FE 		ble	a5,a2,.L143
 1236              	.LVL133:
 774:C:/Users/stapi/OneDrive/Desktop/GD32VW553/GD32VW55X_Wifi_BLE_SDK/GD32VW55x_RELEASE_V1.0.2/MSDK/lwip/lwip-2.1.2/port\wifi_netif.c ****         return -1;
 1237              		.loc 1 774 65 discriminator 3
 1238 0028 83471503 		lbu	a5,49(a0)
 1239 002c 858B     		andi	a5,a5,1
 1240 002e F1DF     		beq	a5,zero,.L143
 777:C:/Users/stapi/OneDrive/Desktop/GD32VW553/GD32VW55X_Wifi_BLE_SDK/GD32VW55x_RELEASE_V1.0.2/MSDK/lwip/lwip-2.1.2/port\wifi_netif.c ****     if (pbuf == NULL)
 1241              		.loc 1 777 12
 1242 0030 13060028 		li	a2,640
 1243              	.LVL134:
 1244 0034 1305A016 		li	a0,362
 1245 0038 368B     		mv	s6,a3
 1246 003a BA89     		mv	s3,a4
 777:C:/Users/stapi/OneDrive/Desktop/GD32VW553/GD32VW55X_Wifi_BLE_SDK/GD32VW55x_RELEASE_V1.0.2/MSDK/lwip/lwip-2.1.2/port\wifi_netif.c ****     if (pbuf == NULL)
 1247              		.loc 1 777 5 is_stmt 1
 777:C:/Users/stapi/OneDrive/Desktop/GD32VW553/GD32VW55X_Wifi_BLE_SDK/GD32VW55x_RELEASE_V1.0.2/MSDK/lwip/lwip-2.1.2/port\wifi_netif.c ****     if (pbuf == NULL)
 1248              		.loc 1 777 12 is_stmt 0
 1249 003c B3450908 		zext.h	a1,s2
 1250              	.LVL135:
 1251 0040 97000000 		call	pbuf_alloc
 1251      E7800000 
 1252              	.LVL136:
 1253 0048 2A84     		mv	s0,a0
 1254              	.LVL137:
 778:C:/Users/stapi/OneDrive/Desktop/GD32VW553/GD32VW55X_Wifi_BLE_SDK/GD32VW55x_RELEASE_V1.0.2/MSDK/lwip/lwip-2.1.2/port\wifi_netif.c ****         return -1;
 1255              		.loc 1 778 5 is_stmt 1
 778:C:/Users/stapi/OneDrive/Desktop/GD32VW553/GD32VW55X_Wifi_BLE_SDK/GD32VW55x_RELEASE_V1.0.2/MSDK/lwip/lwip-2.1.2/port\wifi_netif.c ****         return -1;
 1256              		.loc 1 778 8 is_stmt 0
 1257 004a 61D1     		beq	a0,zero,.L143
 781:C:/Users/stapi/OneDrive/Desktop/GD32VW553/GD32VW55X_Wifi_BLE_SDK/GD32VW55x_RELEASE_V1.0.2/MSDK/lwip/lwip-2.1.2/port\wifi_netif.c **** 
 1258              		.loc 1 781 5 is_stmt 1
 1259 004c 4841     		lw	a0,4(a0)
 1260 004e 4A86     		mv	a2,s2
 1261 0050 D285     		mv	a1,s4
 1262 0052 97000000 		call	sys_memcpy
 1262      E7800000 
 1263              	.LVL138:
 783:C:/Users/stapi/OneDrive/Desktop/GD32VW553/GD32VW55X_Wifi_BLE_SDK/GD32VW55x_RELEASE_V1.0.2/MSDK/lwip/lwip-2.1.2/port\wifi_netif.c ****     {
 1264              		.loc 1 783 5
 783:C:/Users/stapi/OneDrive/Desktop/GD32VW553/GD32VW55X_Wifi_BLE_SDK/GD32VW55x_RELEASE_V1.0.2/MSDK/lwip/lwip-2.1.2/port\wifi_netif.c ****     {
 1265              		.loc 1 783 8 is_stmt 0
 1266 005a 638B0904 		beq	s3,zero,.L128
 1267              	.LBB9:
 786:C:/Users/stapi/OneDrive/Desktop/GD32VW553/GD32VW55X_Wifi_BLE_SDK/GD32VW55x_RELEASE_V1.0.2/MSDK/lwip/lwip-2.1.2/port\wifi_netif.c ****         if (pbuf_header(pbuf, SIZEOF_ETH_HDR))
 1268              		.loc 1 786 9 is_stmt 1
 787:C:/Users/stapi/OneDrive/Desktop/GD32VW553/GD32VW55X_Wifi_BLE_SDK/GD32VW55x_RELEASE_V1.0.2/MSDK/lwip/lwip-2.1.2/port\wifi_netif.c ****         {
 1269              		.loc 1 787 9
 787:C:/Users/stapi/OneDrive/Desktop/GD32VW553/GD32VW55X_Wifi_BLE_SDK/GD32VW55x_RELEASE_V1.0.2/MSDK/lwip/lwip-2.1.2/port\wifi_netif.c ****         {
 1270              		.loc 1 787 13 is_stmt 0
 1271 005e B945     		li	a1,14
 1272 0060 2285     		mv	a0,s0
 1273 0062 97000000 		call	pbuf_header
 1273      E7800000 
 1274              	.LVL139:
 787:C:/Users/stapi/OneDrive/Desktop/GD32VW553/GD32VW55X_Wifi_BLE_SDK/GD32VW55x_RELEASE_V1.0.2/MSDK/lwip/lwip-2.1.2/port\wifi_netif.c ****         {
 1275              		.loc 1 787 12
 1276 006a 19C5     		beq	a0,zero,.L129
 789:C:/Users/stapi/OneDrive/Desktop/GD32VW553/GD32VW55X_Wifi_BLE_SDK/GD32VW55x_RELEASE_V1.0.2/MSDK/lwip/lwip-2.1.2/port\wifi_netif.c ****             return -1;
 1277              		.loc 1 789 13 is_stmt 1
 1278 006c 2285     		mv	a0,s0
 1279 006e 97000000 		call	pbuf_free
 1279      E7800000 
 1280              	.LVL140:
 1281 0076 51BF     		j	.L143
 1282              	.L129:
 792:C:/Users/stapi/OneDrive/Desktop/GD32VW553/GD32VW55X_Wifi_BLE_SDK/GD32VW55x_RELEASE_V1.0.2/MSDK/lwip/lwip-2.1.2/port\wifi_netif.c ****         ethhdr->type = htons(ethertype);
 1283              		.loc 1 792 9
 792:C:/Users/stapi/OneDrive/Desktop/GD32VW553/GD32VW55X_Wifi_BLE_SDK/GD32VW55x_RELEASE_V1.0.2/MSDK/lwip/lwip-2.1.2/port\wifi_netif.c ****         ethhdr->type = htons(ethertype);
 1284              		.loc 1 792 16 is_stmt 0
 1285 0078 03294400 		lw	s2,4(s0)
 1286              	.LVL141:
 793:C:/Users/stapi/OneDrive/Desktop/GD32VW553/GD32VW55X_Wifi_BLE_SDK/GD32VW55x_RELEASE_V1.0.2/MSDK/lwip/lwip-2.1.2/port\wifi_netif.c ****         sys_memcpy(&ethhdr->dest, dst_addr, sizeof(struct eth_addr));
 1287              		.loc 1 793 9 is_stmt 1
 793:C:/Users/stapi/OneDrive/Desktop/GD32VW553/GD32VW55X_Wifi_BLE_SDK/GD32VW55x_RELEASE_V1.0.2/MSDK/lwip/lwip-2.1.2/port\wifi_netif.c ****         sys_memcpy(&ethhdr->dest, dst_addr, sizeof(struct eth_addr));
 1288              		.loc 1 793 24 is_stmt 0
 1289 007c 5A85     		mv	a0,s6
 1290 007e 97000000 		call	lwip_htons
 1290      E7800000 
 1291              	.LVL142:
 793:C:/Users/stapi/OneDrive/Desktop/GD32VW553/GD32VW55X_Wifi_BLE_SDK/GD32VW55x_RELEASE_V1.0.2/MSDK/lwip/lwip-2.1.2/port\wifi_netif.c ****         sys_memcpy(&ethhdr->dest, dst_addr, sizeof(struct eth_addr));
 1292              		.loc 1 793 22
 1293 0086 2306A900 		sb	a0,12(s2)
 1294 008a 2181     		srli	a0,a0,8
 1295 008c A306A900 		sb	a0,13(s2)
 794:C:/Users/stapi/OneDrive/Desktop/GD32VW553/GD32VW55X_Wifi_BLE_SDK/GD32VW55x_RELEASE_V1.0.2/MSDK/lwip/lwip-2.1.2/port\wifi_netif.c ****         sys_memcpy(&ethhdr->src, netif->hwaddr, sizeof(struct eth_addr));
 1296              		.loc 1 794 9 is_stmt 1
 1297 0090 1946     		li	a2,6
 1298 0092 CE85     		mv	a1,s3
 1299 0094 4A85     		mv	a0,s2
 1300 0096 97000000 		call	sys_memcpy
 1300      E7800000 
 1301              	.LVL143:
 795:C:/Users/stapi/OneDrive/Desktop/GD32VW553/GD32VW55X_Wifi_BLE_SDK/GD32VW55x_RELEASE_V1.0.2/MSDK/lwip/lwip-2.1.2/port\wifi_netif.c ****     }
 1302              		.loc 1 795 9
 1303 009e 1946     		li	a2,6
 1304 00a0 9385A402 		addi	a1,s1,42
 1305 00a4 13056900 		addi	a0,s2,6
 1306 00a8 97000000 		call	sys_memcpy
 1306      E7800000 
 1307              	.LVL144:
 1308              	.L128:
 1309              	.LBE9:
 800:C:/Users/stapi/OneDrive/Desktop/GD32VW553/GD32VW55X_Wifi_BLE_SDK/GD32VW55x_RELEASE_V1.0.2/MSDK/lwip/lwip-2.1.2/port\wifi_netif.c **** 
 1310              		.loc 1 800 5
 1311 00b0 37090000 		lui	s2,%hi(.LANCHOR2)
 1312 00b4 13050900 		addi	a0,s2,%lo(.LANCHOR2)
 1313 00b8 97000000 		call	sys_mutex_get
 1313      E7800000 
 1314              	.LVL145:
 804:C:/Users/stapi/OneDrive/Desktop/GD32VW553/GD32VW55X_Wifi_BLE_SDK/GD32VW55x_RELEASE_V1.0.2/MSDK/lwip/lwip-2.1.2/port\wifi_netif.c **** 
 1315              		.loc 1 804 5
 804:C:/Users/stapi/OneDrive/Desktop/GD32VW553/GD32VW55X_Wifi_BLE_SDK/GD32VW55x_RELEASE_V1.0.2/MSDK/lwip/lwip-2.1.2/port\wifi_netif.c **** 
 1316              		.loc 1 804 11 is_stmt 0
 1317 00c0 37060000 		lui	a2,%hi(net_l2_send_cfm)
 1318 00c4 D686     		mv	a3,s5
 1319 00c6 13060600 		addi	a2,a2,%lo(net_l2_send_cfm)
 1320 00ca A285     		mv	a1,s0
 1321 00cc 2685     		mv	a0,s1
 1322 00ce 97000000 		call	macif_tx_start
 1322      E7800000 
 1323              	.LVL146:
 1324 00d6 2A84     		mv	s0,a0
 1325              	.LVL147:
 807:C:/Users/stapi/OneDrive/Desktop/GD32VW553/GD32VW55X_Wifi_BLE_SDK/GD32VW55x_RELEASE_V1.0.2/MSDK/lwip/lwip-2.1.2/port\wifi_netif.c **** 
 1326              		.loc 1 807 5 is_stmt 1
 1327 00d8 37050000 		lui	a0,%hi(.LANCHOR0)
 1328 00dc 8145     		li	a1,0
 1329 00de 13050500 		addi	a0,a0,%lo(.LANCHOR0)
 1330 00e2 97000000 		call	sys_sema_down
 1330      E7800000 
 1331              	.LVL148:
 810:C:/Users/stapi/OneDrive/Desktop/GD32VW553/GD32VW55X_Wifi_BLE_SDK/GD32VW55x_RELEASE_V1.0.2/MSDK/lwip/lwip-2.1.2/port\wifi_netif.c **** 
 1332              		.loc 1 810 5
 1333 00ea 13050900 		addi	a0,s2,%lo(.LANCHOR2)
 1334 00ee 97000000 		call	sys_mutex_put
 1334      E7800000 
 1335              	.LVL149:
 812:C:/Users/stapi/OneDrive/Desktop/GD32VW553/GD32VW55X_Wifi_BLE_SDK/GD32VW55x_RELEASE_V1.0.2/MSDK/lwip/lwip-2.1.2/port\wifi_netif.c **** }
 1336              		.loc 1 812 5
 812:C:/Users/stapi/OneDrive/Desktop/GD32VW553/GD32VW55X_Wifi_BLE_SDK/GD32VW55x_RELEASE_V1.0.2/MSDK/lwip/lwip-2.1.2/port\wifi_netif.c **** }
 1337              		.loc 1 812 12 is_stmt 0
 1338 00f6 19BF     		j	.L124
 1339              		.cfi_endproc
 1340              	.LFE39:
 1342              		.section	.text.net_l2_socket_create,"ax",@progbits
 1343              		.align	1
 1344              		.globl	net_l2_socket_create
 1346              	net_l2_socket_create:
 1347              	.LFB40:
 814:C:/Users/stapi/OneDrive/Desktop/GD32VW553/GD32VW55X_Wifi_BLE_SDK/GD32VW55x_RELEASE_V1.0.2/MSDK/lwip/lwip-2.1.2/port\wifi_netif.c **** 
 815:C:/Users/stapi/OneDrive/Desktop/GD32VW553/GD32VW55X_Wifi_BLE_SDK/GD32VW55x_RELEASE_V1.0.2/MSDK/lwip/lwip-2.1.2/port\wifi_netif.c **** #ifdef CONFIG_WPA_SUPPLICANT
 816:C:/Users/stapi/OneDrive/Desktop/GD32VW553/GD32VW55X_Wifi_BLE_SDK/GD32VW55x_RELEASE_V1.0.2/MSDK/lwip/lwip-2.1.2/port\wifi_netif.c **** /*!
 817:C:/Users/stapi/OneDrive/Desktop/GD32VW553/GD32VW55X_Wifi_BLE_SDK/GD32VW55x_RELEASE_V1.0.2/MSDK/lwip/lwip-2.1.2/port\wifi_netif.c ****     \brief      Create a L2 (aka ethernet) socket for specific packet
 818:C:/Users/stapi/OneDrive/Desktop/GD32VW553/GD32VW55X_Wifi_BLE_SDK/GD32VW55x_RELEASE_V1.0.2/MSDK/lwip/lwip-2.1.2/port\wifi_netif.c ****                 Create a L2 socket that will receive specified frames: a given ethertype
 819:C:/Users/stapi/OneDrive/Desktop/GD32VW553/GD32VW55X_Wifi_BLE_SDK/GD32VW55x_RELEASE_V1.0.2/MSDK/lwip/lwip-2.1.2/port\wifi_netif.c ****                 on a given interface.
 820:C:/Users/stapi/OneDrive/Desktop/GD32VW553/GD32VW55X_Wifi_BLE_SDK/GD32VW55x_RELEASE_V1.0.2/MSDK/lwip/lwip-2.1.2/port\wifi_netif.c ****                 It is expected to fail if a L2 socket for the same ethertype/interface
 821:C:/Users/stapi/OneDrive/Desktop/GD32VW553/GD32VW55X_Wifi_BLE_SDK/GD32VW55x_RELEASE_V1.0.2/MSDK/lwip/lwip-2.1.2/port\wifi_netif.c ****                 couple already exists.
 822:C:/Users/stapi/OneDrive/Desktop/GD32VW553/GD32VW55X_Wifi_BLE_SDK/GD32VW55x_RELEASE_V1.0.2/MSDK/lwip/lwip-2.1.2/port\wifi_netif.c **** 
 823:C:/Users/stapi/OneDrive/Desktop/GD32VW553/GD32VW55X_Wifi_BLE_SDK/GD32VW55x_RELEASE_V1.0.2/MSDK/lwip/lwip-2.1.2/port\wifi_netif.c ****                 As L2 sockets are not specified in POSIX standard, the implementation
 824:C:/Users/stapi/OneDrive/Desktop/GD32VW553/GD32VW55X_Wifi_BLE_SDK/GD32VW55x_RELEASE_V1.0.2/MSDK/lwip/lwip-2.1.2/port\wifi_netif.c ****                 of such function may be impossible in some network stack.
 825:C:/Users/stapi/OneDrive/Desktop/GD32VW553/GD32VW55X_Wifi_BLE_SDK/GD32VW55x_RELEASE_V1.0.2/MSDK/lwip/lwip-2.1.2/port\wifi_netif.c ****     \param[in]  net_if: Pointer to the net_if structure.
 826:C:/Users/stapi/OneDrive/Desktop/GD32VW553/GD32VW55X_Wifi_BLE_SDK/GD32VW55x_RELEASE_V1.0.2/MSDK/lwip/lwip-2.1.2/port\wifi_netif.c ****     \param[in]  ethertype: Ethernet type to filter. (in host endianess)
 827:C:/Users/stapi/OneDrive/Desktop/GD32VW553/GD32VW55X_Wifi_BLE_SDK/GD32VW55x_RELEASE_V1.0.2/MSDK/lwip/lwip-2.1.2/port\wifi_netif.c ****     \param[out] none
 828:C:/Users/stapi/OneDrive/Desktop/GD32VW553/GD32VW55X_Wifi_BLE_SDK/GD32VW55x_RELEASE_V1.0.2/MSDK/lwip/lwip-2.1.2/port\wifi_netif.c ****     \retval     <0 if error occurred and the socket descriptor otherwise.
 829:C:/Users/stapi/OneDrive/Desktop/GD32VW553/GD32VW55X_Wifi_BLE_SDK/GD32VW55x_RELEASE_V1.0.2/MSDK/lwip/lwip-2.1.2/port\wifi_netif.c **** */
 830:C:/Users/stapi/OneDrive/Desktop/GD32VW553/GD32VW55X_Wifi_BLE_SDK/GD32VW55x_RELEASE_V1.0.2/MSDK/lwip/lwip-2.1.2/port\wifi_netif.c **** int net_l2_socket_create(void *net_if, uint16_t ethertype)
 831:C:/Users/stapi/OneDrive/Desktop/GD32VW553/GD32VW55X_Wifi_BLE_SDK/GD32VW55x_RELEASE_V1.0.2/MSDK/lwip/lwip-2.1.2/port\wifi_netif.c **** {
 1348              		.loc 1 831 1 is_stmt 1
 1349              		.cfi_startproc
 1350              	.LVL150:
 1351 0000 17030000 		call	t0,__riscv_save_3
 1351      E7020300 
 1352              		.cfi_offset 18, -16
 1353              		.cfi_offset 9, -12
 1354              		.cfi_offset 8, -8
 1355              		.cfi_offset 1, -4
 1356              		.cfi_def_cfa_offset 16
 832:C:/Users/stapi/OneDrive/Desktop/GD32VW553/GD32VW55X_Wifi_BLE_SDK/GD32VW55x_RELEASE_V1.0.2/MSDK/lwip/lwip-2.1.2/port\wifi_netif.c ****     struct l2_filter_tag *filter = NULL;
 1357              		.loc 1 832 5
 1358              	.LVL151:
 833:C:/Users/stapi/OneDrive/Desktop/GD32VW553/GD32VW55X_Wifi_BLE_SDK/GD32VW55x_RELEASE_V1.0.2/MSDK/lwip/lwip-2.1.2/port\wifi_netif.c ****     socklen_t len = sizeof(filter->conn);
 1359              		.loc 1 833 5
 1360              		.loc 1 833 15 is_stmt 0
 1361 0008 9147     		li	a5,4
 831:C:/Users/stapi/OneDrive/Desktop/GD32VW553/GD32VW55X_Wifi_BLE_SDK/GD32VW55x_RELEASE_V1.0.2/MSDK/lwip/lwip-2.1.2/port\wifi_netif.c ****     struct l2_filter_tag *filter = NULL;
 1362              		.loc 1 831 1
 1363 000a 4111     		addi	sp,sp,-16
 1364              		.cfi_def_cfa_offset 32
 1365              		.loc 1 833 15
 1366 000c 3EC6     		sw	a5,12(sp)
 834:C:/Users/stapi/OneDrive/Desktop/GD32VW553/GD32VW55X_Wifi_BLE_SDK/GD32VW55x_RELEASE_V1.0.2/MSDK/lwip/lwip-2.1.2/port\wifi_netif.c ****     int i;
 1367              		.loc 1 834 5 is_stmt 1
 835:C:/Users/stapi/OneDrive/Desktop/GD32VW553/GD32VW55X_Wifi_BLE_SDK/GD32VW55x_RELEASE_V1.0.2/MSDK/lwip/lwip-2.1.2/port\wifi_netif.c ****     struct netif *netif = (struct netif *)net_if;
 1368              		.loc 1 835 5
 1369              	.LVL152:
 836:C:/Users/stapi/OneDrive/Desktop/GD32VW553/GD32VW55X_Wifi_BLE_SDK/GD32VW55x_RELEASE_V1.0.2/MSDK/lwip/lwip-2.1.2/port\wifi_netif.c **** 
 837:C:/Users/stapi/OneDrive/Desktop/GD32VW553/GD32VW55X_Wifi_BLE_SDK/GD32VW55x_RELEASE_V1.0.2/MSDK/lwip/lwip-2.1.2/port\wifi_netif.c ****     /* First find free filter and check that socket for this ethertype/net_if couple
 838:C:/Users/stapi/OneDrive/Desktop/GD32VW553/GD32VW55X_Wifi_BLE_SDK/GD32VW55x_RELEASE_V1.0.2/MSDK/lwip/lwip-2.1.2/port\wifi_netif.c ****        doesn't already exists */
 839:C:/Users/stapi/OneDrive/Desktop/GD32VW553/GD32VW55X_Wifi_BLE_SDK/GD32VW55x_RELEASE_V1.0.2/MSDK/lwip/lwip-2.1.2/port\wifi_netif.c ****     for (i = 0; i < WIFI_NB_L2_FILTER; i++)
 1370              		.loc 1 839 5
 1371              		.loc 1 839 17
 840:C:/Users/stapi/OneDrive/Desktop/GD32VW553/GD32VW55X_Wifi_BLE_SDK/GD32VW55x_RELEASE_V1.0.2/MSDK/lwip/lwip-2.1.2/port\wifi_netif.c ****     {
 841:C:/Users/stapi/OneDrive/Desktop/GD32VW553/GD32VW55X_Wifi_BLE_SDK/GD32VW55x_RELEASE_V1.0.2/MSDK/lwip/lwip-2.1.2/port\wifi_netif.c ****         if ((l2_filter[i].net_if == netif) &&
 1372              		.loc 1 841 9
 1373              		.loc 1 841 26 is_stmt 0
 1374 000e B7070000 		lui	a5,%hi(.LANCHOR1)
 1375 0012 03A70700 		lw	a4,%lo(.LANCHOR1)(a5)
 831:C:/Users/stapi/OneDrive/Desktop/GD32VW553/GD32VW55X_Wifi_BLE_SDK/GD32VW55x_RELEASE_V1.0.2/MSDK/lwip/lwip-2.1.2/port\wifi_netif.c ****     struct l2_filter_tag *filter = NULL;
 1376              		.loc 1 831 1
 1377 0016 AA84     		mv	s1,a0
 1378 0018 2E89     		mv	s2,a1
 1379 001a 93870700 		addi	a5,a5,%lo(.LANCHOR1)
 1380              		.loc 1 841 12
 1381 001e 631CE500 		bne	a0,a4,.L145
 1382              		.loc 1 841 44
 1383 0022 83D6C700 		lhu	a3,12(a5)
 1384 0026 6398B600 		bne	a3,a1,.L145
 1385              	.LVL153:
 1386              	.L157:
 842:C:/Users/stapi/OneDrive/Desktop/GD32VW553/GD32VW55X_Wifi_BLE_SDK/GD32VW55x_RELEASE_V1.0.2/MSDK/lwip/lwip-2.1.2/port\wifi_netif.c ****             (l2_filter[i].ethertype == ethertype))
 843:C:/Users/stapi/OneDrive/Desktop/GD32VW553/GD32VW55X_Wifi_BLE_SDK/GD32VW55x_RELEASE_V1.0.2/MSDK/lwip/lwip-2.1.2/port\wifi_netif.c ****         {
 844:C:/Users/stapi/OneDrive/Desktop/GD32VW553/GD32VW55X_Wifi_BLE_SDK/GD32VW55x_RELEASE_V1.0.2/MSDK/lwip/lwip-2.1.2/port\wifi_netif.c ****             return -1;
 845:C:/Users/stapi/OneDrive/Desktop/GD32VW553/GD32VW55X_Wifi_BLE_SDK/GD32VW55x_RELEASE_V1.0.2/MSDK/lwip/lwip-2.1.2/port\wifi_netif.c ****         }
 846:C:/Users/stapi/OneDrive/Desktop/GD32VW553/GD32VW55X_Wifi_BLE_SDK/GD32VW55x_RELEASE_V1.0.2/MSDK/lwip/lwip-2.1.2/port\wifi_netif.c ****         else if ((filter == NULL) && (l2_filter[i].net_if == NULL))
 847:C:/Users/stapi/OneDrive/Desktop/GD32VW553/GD32VW55X_Wifi_BLE_SDK/GD32VW55x_RELEASE_V1.0.2/MSDK/lwip/lwip-2.1.2/port\wifi_netif.c ****         {
 848:C:/Users/stapi/OneDrive/Desktop/GD32VW553/GD32VW55X_Wifi_BLE_SDK/GD32VW55x_RELEASE_V1.0.2/MSDK/lwip/lwip-2.1.2/port\wifi_netif.c ****             filter = &l2_filter[i];
 849:C:/Users/stapi/OneDrive/Desktop/GD32VW553/GD32VW55X_Wifi_BLE_SDK/GD32VW55x_RELEASE_V1.0.2/MSDK/lwip/lwip-2.1.2/port\wifi_netif.c ****         }
 850:C:/Users/stapi/OneDrive/Desktop/GD32VW553/GD32VW55X_Wifi_BLE_SDK/GD32VW55x_RELEASE_V1.0.2/MSDK/lwip/lwip-2.1.2/port\wifi_netif.c ****     }
 851:C:/Users/stapi/OneDrive/Desktop/GD32VW553/GD32VW55X_Wifi_BLE_SDK/GD32VW55x_RELEASE_V1.0.2/MSDK/lwip/lwip-2.1.2/port\wifi_netif.c **** 
 852:C:/Users/stapi/OneDrive/Desktop/GD32VW553/GD32VW55X_Wifi_BLE_SDK/GD32VW55x_RELEASE_V1.0.2/MSDK/lwip/lwip-2.1.2/port\wifi_netif.c ****     if (!filter)
 853:C:/Users/stapi/OneDrive/Desktop/GD32VW553/GD32VW55X_Wifi_BLE_SDK/GD32VW55x_RELEASE_V1.0.2/MSDK/lwip/lwip-2.1.2/port\wifi_netif.c ****         return -1;
 854:C:/Users/stapi/OneDrive/Desktop/GD32VW553/GD32VW55X_Wifi_BLE_SDK/GD32VW55x_RELEASE_V1.0.2/MSDK/lwip/lwip-2.1.2/port\wifi_netif.c **** 
 855:C:/Users/stapi/OneDrive/Desktop/GD32VW553/GD32VW55X_Wifi_BLE_SDK/GD32VW55x_RELEASE_V1.0.2/MSDK/lwip/lwip-2.1.2/port\wifi_netif.c ****     /* Note: we create DGRAM socket here but in practice we don't care, net_eth_receive
 856:C:/Users/stapi/OneDrive/Desktop/GD32VW553/GD32VW55X_Wifi_BLE_SDK/GD32VW55x_RELEASE_V1.0.2/MSDK/lwip/lwip-2.1.2/port\wifi_netif.c ****        will use the socket as a L2 raw socket */
 857:C:/Users/stapi/OneDrive/Desktop/GD32VW553/GD32VW55X_Wifi_BLE_SDK/GD32VW55x_RELEASE_V1.0.2/MSDK/lwip/lwip-2.1.2/port\wifi_netif.c ****     filter->sock = socket(PF_INET, SOCK_DGRAM, 0);
 858:C:/Users/stapi/OneDrive/Desktop/GD32VW553/GD32VW55X_Wifi_BLE_SDK/GD32VW55x_RELEASE_V1.0.2/MSDK/lwip/lwip-2.1.2/port\wifi_netif.c ****     if (filter->sock < 0)
