   1              		.file	"wifi_netif.c"
   2              		.option nopic
   3              		.attribute arch, "rv32i2p0_m2p0_a2p0_f2p0_c2p0_b_p0p94"
   4              		.attribute unaligned_access, 0
   5              		.attribute stack_align, 16
   6              		.text
   7              	.Ltext0:
   8              		.cfi_sections	.debug_frame
   9              		.section	.text.net_if_init,"ax",@progbits
  10              		.align	1
  12              	net_if_init:
  13              	.LFB17:
  14              		.file 1 "C:/Users/stapi/OneDrive/Desktop/GD32VW553/GD32VW55X_Wifi_BLE_SDK/GD32VW55x_RELEASE_V1.0.2
   1:C:/Users/stapi/OneDrive/Desktop/GD32VW553/GD32VW55X_Wifi_BLE_SDK/GD32VW55x_RELEASE_V1.0.2/MSDK/lwip/lwip-2.1.2/port\wifi_netif.c **** /*!
   2:C:/Users/stapi/OneDrive/Desktop/GD32VW553/GD32VW55X_Wifi_BLE_SDK/GD32VW55x_RELEASE_V1.0.2/MSDK/lwip/lwip-2.1.2/port\wifi_netif.c ****     \file    wifi_netif.c
   3:C:/Users/stapi/OneDrive/Desktop/GD32VW553/GD32VW55X_Wifi_BLE_SDK/GD32VW55x_RELEASE_V1.0.2/MSDK/lwip/lwip-2.1.2/port\wifi_netif.c ****     \brief   Implementation of WiFi network interface layer.
   4:C:/Users/stapi/OneDrive/Desktop/GD32VW553/GD32VW55X_Wifi_BLE_SDK/GD32VW55x_RELEASE_V1.0.2/MSDK/lwip/lwip-2.1.2/port\wifi_netif.c **** 
   5:C:/Users/stapi/OneDrive/Desktop/GD32VW553/GD32VW55X_Wifi_BLE_SDK/GD32VW55x_RELEASE_V1.0.2/MSDK/lwip/lwip-2.1.2/port\wifi_netif.c ****     \version 2023-07-20, V1.0.0, firmware for GD32VW55x
   6:C:/Users/stapi/OneDrive/Desktop/GD32VW553/GD32VW55X_Wifi_BLE_SDK/GD32VW55x_RELEASE_V1.0.2/MSDK/lwip/lwip-2.1.2/port\wifi_netif.c **** */
   7:C:/Users/stapi/OneDrive/Desktop/GD32VW553/GD32VW55X_Wifi_BLE_SDK/GD32VW55x_RELEASE_V1.0.2/MSDK/lwip/lwip-2.1.2/port\wifi_netif.c **** 
   8:C:/Users/stapi/OneDrive/Desktop/GD32VW553/GD32VW55X_Wifi_BLE_SDK/GD32VW55x_RELEASE_V1.0.2/MSDK/lwip/lwip-2.1.2/port\wifi_netif.c **** /*
   9:C:/Users/stapi/OneDrive/Desktop/GD32VW553/GD32VW55X_Wifi_BLE_SDK/GD32VW55x_RELEASE_V1.0.2/MSDK/lwip/lwip-2.1.2/port\wifi_netif.c ****     Copyright (c) 2023, GigaDevice Semiconductor Inc.
  10:C:/Users/stapi/OneDrive/Desktop/GD32VW553/GD32VW55X_Wifi_BLE_SDK/GD32VW55x_RELEASE_V1.0.2/MSDK/lwip/lwip-2.1.2/port\wifi_netif.c **** 
  11:C:/Users/stapi/OneDrive/Desktop/GD32VW553/GD32VW55X_Wifi_BLE_SDK/GD32VW55x_RELEASE_V1.0.2/MSDK/lwip/lwip-2.1.2/port\wifi_netif.c ****     Redistribution and use in source and binary forms, with or without modification,
  12:C:/Users/stapi/OneDrive/Desktop/GD32VW553/GD32VW55X_Wifi_BLE_SDK/GD32VW55x_RELEASE_V1.0.2/MSDK/lwip/lwip-2.1.2/port\wifi_netif.c **** are permitted provided that the following conditions are met:
  13:C:/Users/stapi/OneDrive/Desktop/GD32VW553/GD32VW55X_Wifi_BLE_SDK/GD32VW55x_RELEASE_V1.0.2/MSDK/lwip/lwip-2.1.2/port\wifi_netif.c **** 
  14:C:/Users/stapi/OneDrive/Desktop/GD32VW553/GD32VW55X_Wifi_BLE_SDK/GD32VW55x_RELEASE_V1.0.2/MSDK/lwip/lwip-2.1.2/port\wifi_netif.c ****     1. Redistributions of source code must retain the above copyright notice, this
  15:C:/Users/stapi/OneDrive/Desktop/GD32VW553/GD32VW55X_Wifi_BLE_SDK/GD32VW55x_RELEASE_V1.0.2/MSDK/lwip/lwip-2.1.2/port\wifi_netif.c ****        list of conditions and the following disclaimer.
  16:C:/Users/stapi/OneDrive/Desktop/GD32VW553/GD32VW55X_Wifi_BLE_SDK/GD32VW55x_RELEASE_V1.0.2/MSDK/lwip/lwip-2.1.2/port\wifi_netif.c ****     2. Redistributions in binary form must reproduce the above copyright notice,
  17:C:/Users/stapi/OneDrive/Desktop/GD32VW553/GD32VW55X_Wifi_BLE_SDK/GD32VW55x_RELEASE_V1.0.2/MSDK/lwip/lwip-2.1.2/port\wifi_netif.c ****        this list of conditions and the following disclaimer in the documentation
  18:C:/Users/stapi/OneDrive/Desktop/GD32VW553/GD32VW55X_Wifi_BLE_SDK/GD32VW55x_RELEASE_V1.0.2/MSDK/lwip/lwip-2.1.2/port\wifi_netif.c ****        and/or other materials provided with the distribution.
  19:C:/Users/stapi/OneDrive/Desktop/GD32VW553/GD32VW55X_Wifi_BLE_SDK/GD32VW55x_RELEASE_V1.0.2/MSDK/lwip/lwip-2.1.2/port\wifi_netif.c ****     3. Neither the name of the copyright holder nor the names of its contributors
  20:C:/Users/stapi/OneDrive/Desktop/GD32VW553/GD32VW55X_Wifi_BLE_SDK/GD32VW55x_RELEASE_V1.0.2/MSDK/lwip/lwip-2.1.2/port\wifi_netif.c ****        may be used to endorse or promote products derived from this software without
  21:C:/Users/stapi/OneDrive/Desktop/GD32VW553/GD32VW55X_Wifi_BLE_SDK/GD32VW55x_RELEASE_V1.0.2/MSDK/lwip/lwip-2.1.2/port\wifi_netif.c ****        specific prior written permission.
  22:C:/Users/stapi/OneDrive/Desktop/GD32VW553/GD32VW55X_Wifi_BLE_SDK/GD32VW55x_RELEASE_V1.0.2/MSDK/lwip/lwip-2.1.2/port\wifi_netif.c **** 
  23:C:/Users/stapi/OneDrive/Desktop/GD32VW553/GD32VW55X_Wifi_BLE_SDK/GD32VW55x_RELEASE_V1.0.2/MSDK/lwip/lwip-2.1.2/port\wifi_netif.c ****     THIS SOFTWARE IS PROVIDED BY THE COPYRIGHT HOLDERS AND CONTRIBUTORS "AS IS"
  24:C:/Users/stapi/OneDrive/Desktop/GD32VW553/GD32VW55X_Wifi_BLE_SDK/GD32VW55x_RELEASE_V1.0.2/MSDK/lwip/lwip-2.1.2/port\wifi_netif.c **** AND ANY EXPRESS OR IMPLIED WARRANTIES, INCLUDING, BUT NOT LIMITED TO, THE IMPLIED
  25:C:/Users/stapi/OneDrive/Desktop/GD32VW553/GD32VW55X_Wifi_BLE_SDK/GD32VW55x_RELEASE_V1.0.2/MSDK/lwip/lwip-2.1.2/port\wifi_netif.c **** WARRANTIES OF MERCHANTABILITY AND FITNESS FOR A PARTICULAR PURPOSE ARE DISCLAIMED.
  26:C:/Users/stapi/OneDrive/Desktop/GD32VW553/GD32VW55X_Wifi_BLE_SDK/GD32VW55x_RELEASE_V1.0.2/MSDK/lwip/lwip-2.1.2/port\wifi_netif.c **** IN NO EVENT SHALL THE COPYRIGHT HOLDER OR CONTRIBUTORS BE LIABLE FOR ANY DIRECT,
  27:C:/Users/stapi/OneDrive/Desktop/GD32VW553/GD32VW55X_Wifi_BLE_SDK/GD32VW55x_RELEASE_V1.0.2/MSDK/lwip/lwip-2.1.2/port\wifi_netif.c **** INDIRECT, INCIDENTAL, SPECIAL, EXEMPLARY, OR CONSEQUENTIAL DAMAGES (INCLUDING, BUT
  28:C:/Users/stapi/OneDrive/Desktop/GD32VW553/GD32VW55X_Wifi_BLE_SDK/GD32VW55x_RELEASE_V1.0.2/MSDK/lwip/lwip-2.1.2/port\wifi_netif.c **** NOT LIMITED TO, PROCUREMENT OF SUBSTITUTE GOODS OR SERVICES; LOSS OF USE, DATA, OR
  29:C:/Users/stapi/OneDrive/Desktop/GD32VW553/GD32VW55X_Wifi_BLE_SDK/GD32VW55x_RELEASE_V1.0.2/MSDK/lwip/lwip-2.1.2/port\wifi_netif.c **** PROFITS; OR BUSINESS INTERRUPTION) HOWEVER CAUSED AND ON ANY THEORY OF LIABILITY,
  30:C:/Users/stapi/OneDrive/Desktop/GD32VW553/GD32VW55X_Wifi_BLE_SDK/GD32VW55x_RELEASE_V1.0.2/MSDK/lwip/lwip-2.1.2/port\wifi_netif.c **** WHETHER IN CONTRACT, STRICT LIABILITY, OR TORT (INCLUDING NEGLIGENCE OR OTHERWISE)
  31:C:/Users/stapi/OneDrive/Desktop/GD32VW553/GD32VW55X_Wifi_BLE_SDK/GD32VW55x_RELEASE_V1.0.2/MSDK/lwip/lwip-2.1.2/port\wifi_netif.c **** ARISING IN ANY WAY OUT OF THE USE OF THIS SOFTWARE, EVEN IF ADVISED OF THE POSSIBILITY
  32:C:/Users/stapi/OneDrive/Desktop/GD32VW553/GD32VW55X_Wifi_BLE_SDK/GD32VW55x_RELEASE_V1.0.2/MSDK/lwip/lwip-2.1.2/port\wifi_netif.c **** OF SUCH DAMAGE.
  33:C:/Users/stapi/OneDrive/Desktop/GD32VW553/GD32VW55X_Wifi_BLE_SDK/GD32VW55x_RELEASE_V1.0.2/MSDK/lwip/lwip-2.1.2/port\wifi_netif.c **** */
  34:C:/Users/stapi/OneDrive/Desktop/GD32VW553/GD32VW55X_Wifi_BLE_SDK/GD32VW55x_RELEASE_V1.0.2/MSDK/lwip/lwip-2.1.2/port\wifi_netif.c **** 
  35:C:/Users/stapi/OneDrive/Desktop/GD32VW553/GD32VW55X_Wifi_BLE_SDK/GD32VW55x_RELEASE_V1.0.2/MSDK/lwip/lwip-2.1.2/port\wifi_netif.c **** /*
  36:C:/Users/stapi/OneDrive/Desktop/GD32VW553/GD32VW55X_Wifi_BLE_SDK/GD32VW55x_RELEASE_V1.0.2/MSDK/lwip/lwip-2.1.2/port\wifi_netif.c ****  * INCLUDE FILES
  37:C:/Users/stapi/OneDrive/Desktop/GD32VW553/GD32VW55X_Wifi_BLE_SDK/GD32VW55x_RELEASE_V1.0.2/MSDK/lwip/lwip-2.1.2/port\wifi_netif.c ****  ****************************************************************************************
  38:C:/Users/stapi/OneDrive/Desktop/GD32VW553/GD32VW55X_Wifi_BLE_SDK/GD32VW55x_RELEASE_V1.0.2/MSDK/lwip/lwip-2.1.2/port\wifi_netif.c ****  */
  39:C:/Users/stapi/OneDrive/Desktop/GD32VW553/GD32VW55X_Wifi_BLE_SDK/GD32VW55x_RELEASE_V1.0.2/MSDK/lwip/lwip-2.1.2/port\wifi_netif.c **** #include "wifi_netif.h"
  40:C:/Users/stapi/OneDrive/Desktop/GD32VW553/GD32VW55X_Wifi_BLE_SDK/GD32VW55x_RELEASE_V1.0.2/MSDK/lwip/lwip-2.1.2/port\wifi_netif.c **** #include "lwip/tcpip.h"
  41:C:/Users/stapi/OneDrive/Desktop/GD32VW553/GD32VW55X_Wifi_BLE_SDK/GD32VW55x_RELEASE_V1.0.2/MSDK/lwip/lwip-2.1.2/port\wifi_netif.c **** #include "lwip/etharp.h"
  42:C:/Users/stapi/OneDrive/Desktop/GD32VW553/GD32VW55X_Wifi_BLE_SDK/GD32VW55x_RELEASE_V1.0.2/MSDK/lwip/lwip-2.1.2/port\wifi_netif.c **** #include "lwip/netifapi.h"
  43:C:/Users/stapi/OneDrive/Desktop/GD32VW553/GD32VW55X_Wifi_BLE_SDK/GD32VW55x_RELEASE_V1.0.2/MSDK/lwip/lwip-2.1.2/port\wifi_netif.c **** #include "lwip/sockets.h"
  44:C:/Users/stapi/OneDrive/Desktop/GD32VW553/GD32VW55X_Wifi_BLE_SDK/GD32VW55x_RELEASE_V1.0.2/MSDK/lwip/lwip-2.1.2/port\wifi_netif.c **** #include "lwip/netbuf.h"
  45:C:/Users/stapi/OneDrive/Desktop/GD32VW553/GD32VW55X_Wifi_BLE_SDK/GD32VW55x_RELEASE_V1.0.2/MSDK/lwip/lwip-2.1.2/port\wifi_netif.c **** #include "lwip/api.h"
  46:C:/Users/stapi/OneDrive/Desktop/GD32VW553/GD32VW55X_Wifi_BLE_SDK/GD32VW55x_RELEASE_V1.0.2/MSDK/lwip/lwip-2.1.2/port\wifi_netif.c **** #include "lwip/dns.h"
  47:C:/Users/stapi/OneDrive/Desktop/GD32VW553/GD32VW55X_Wifi_BLE_SDK/GD32VW55x_RELEASE_V1.0.2/MSDK/lwip/lwip-2.1.2/port\wifi_netif.c **** #include "lwip/inet_chksum.h"
  48:C:/Users/stapi/OneDrive/Desktop/GD32VW553/GD32VW55X_Wifi_BLE_SDK/GD32VW55x_RELEASE_V1.0.2/MSDK/lwip/lwip-2.1.2/port\wifi_netif.c **** #include "lwip/netif.h"
  49:C:/Users/stapi/OneDrive/Desktop/GD32VW553/GD32VW55X_Wifi_BLE_SDK/GD32VW55x_RELEASE_V1.0.2/MSDK/lwip/lwip-2.1.2/port\wifi_netif.c **** #include "netif/ethernet.h"
  50:C:/Users/stapi/OneDrive/Desktop/GD32VW553/GD32VW55X_Wifi_BLE_SDK/GD32VW55x_RELEASE_V1.0.2/MSDK/lwip/lwip-2.1.2/port\wifi_netif.c **** #include "co_math.h"
  51:C:/Users/stapi/OneDrive/Desktop/GD32VW553/GD32VW55X_Wifi_BLE_SDK/GD32VW55x_RELEASE_V1.0.2/MSDK/lwip/lwip-2.1.2/port\wifi_netif.c **** 
  52:C:/Users/stapi/OneDrive/Desktop/GD32VW553/GD32VW55X_Wifi_BLE_SDK/GD32VW55x_RELEASE_V1.0.2/MSDK/lwip/lwip-2.1.2/port\wifi_netif.c **** #include "app_cfg.h"
  53:C:/Users/stapi/OneDrive/Desktop/GD32VW553/GD32VW55X_Wifi_BLE_SDK/GD32VW55x_RELEASE_V1.0.2/MSDK/lwip/lwip-2.1.2/port\wifi_netif.c **** #include "wrapper_os.h"
  54:C:/Users/stapi/OneDrive/Desktop/GD32VW553/GD32VW55X_Wifi_BLE_SDK/GD32VW55x_RELEASE_V1.0.2/MSDK/lwip/lwip-2.1.2/port\wifi_netif.c **** #include "dhcpd.h"
  55:C:/Users/stapi/OneDrive/Desktop/GD32VW553/GD32VW55X_Wifi_BLE_SDK/GD32VW55x_RELEASE_V1.0.2/MSDK/lwip/lwip-2.1.2/port\wifi_netif.c **** #include "macif_api.h"
  56:C:/Users/stapi/OneDrive/Desktop/GD32VW553/GD32VW55X_Wifi_BLE_SDK/GD32VW55x_RELEASE_V1.0.2/MSDK/lwip/lwip-2.1.2/port\wifi_netif.c **** #include "dbg_print.h"
  57:C:/Users/stapi/OneDrive/Desktop/GD32VW553/GD32VW55X_Wifi_BLE_SDK/GD32VW55x_RELEASE_V1.0.2/MSDK/lwip/lwip-2.1.2/port\wifi_netif.c **** #include "wifi_init.h"
  58:C:/Users/stapi/OneDrive/Desktop/GD32VW553/GD32VW55X_Wifi_BLE_SDK/GD32VW55x_RELEASE_V1.0.2/MSDK/lwip/lwip-2.1.2/port\wifi_netif.c **** 
  59:C:/Users/stapi/OneDrive/Desktop/GD32VW553/GD32VW55X_Wifi_BLE_SDK/GD32VW55x_RELEASE_V1.0.2/MSDK/lwip/lwip-2.1.2/port\wifi_netif.c **** #if LWIP_IPV6
  60:C:/Users/stapi/OneDrive/Desktop/GD32VW553/GD32VW55X_Wifi_BLE_SDK/GD32VW55x_RELEASE_V1.0.2/MSDK/lwip/lwip-2.1.2/port\wifi_netif.c **** #include "lwip/ethip6.h"
  61:C:/Users/stapi/OneDrive/Desktop/GD32VW553/GD32VW55X_Wifi_BLE_SDK/GD32VW55x_RELEASE_V1.0.2/MSDK/lwip/lwip-2.1.2/port\wifi_netif.c **** #include "lwip/mld6.h"
  62:C:/Users/stapi/OneDrive/Desktop/GD32VW553/GD32VW55X_Wifi_BLE_SDK/GD32VW55x_RELEASE_V1.0.2/MSDK/lwip/lwip-2.1.2/port\wifi_netif.c **** #if LWIP_IPV6_DHCP6
  63:C:/Users/stapi/OneDrive/Desktop/GD32VW553/GD32VW55X_Wifi_BLE_SDK/GD32VW55x_RELEASE_V1.0.2/MSDK/lwip/lwip-2.1.2/port\wifi_netif.c **** #include "lwip/dhcp6.h"
  64:C:/Users/stapi/OneDrive/Desktop/GD32VW553/GD32VW55X_Wifi_BLE_SDK/GD32VW55x_RELEASE_V1.0.2/MSDK/lwip/lwip-2.1.2/port\wifi_netif.c **** #endif
  65:C:/Users/stapi/OneDrive/Desktop/GD32VW553/GD32VW55X_Wifi_BLE_SDK/GD32VW55x_RELEASE_V1.0.2/MSDK/lwip/lwip-2.1.2/port\wifi_netif.c **** #endif
  66:C:/Users/stapi/OneDrive/Desktop/GD32VW553/GD32VW55X_Wifi_BLE_SDK/GD32VW55x_RELEASE_V1.0.2/MSDK/lwip/lwip-2.1.2/port\wifi_netif.c **** 
  67:C:/Users/stapi/OneDrive/Desktop/GD32VW553/GD32VW55X_Wifi_BLE_SDK/GD32VW55x_RELEASE_V1.0.2/MSDK/lwip/lwip-2.1.2/port\wifi_netif.c **** #define WIFI_NB_L2_FILTER 2
  68:C:/Users/stapi/OneDrive/Desktop/GD32VW553/GD32VW55X_Wifi_BLE_SDK/GD32VW55x_RELEASE_V1.0.2/MSDK/lwip/lwip-2.1.2/port\wifi_netif.c **** 
  69:C:/Users/stapi/OneDrive/Desktop/GD32VW553/GD32VW55X_Wifi_BLE_SDK/GD32VW55x_RELEASE_V1.0.2/MSDK/lwip/lwip-2.1.2/port\wifi_netif.c **** // Ethernet MTU
  70:C:/Users/stapi/OneDrive/Desktop/GD32VW553/GD32VW55X_Wifi_BLE_SDK/GD32VW55x_RELEASE_V1.0.2/MSDK/lwip/lwip-2.1.2/port\wifi_netif.c **** #define ETHERNET_MTU 1500
  71:C:/Users/stapi/OneDrive/Desktop/GD32VW553/GD32VW55X_Wifi_BLE_SDK/GD32VW55x_RELEASE_V1.0.2/MSDK/lwip/lwip-2.1.2/port\wifi_netif.c **** 
  72:C:/Users/stapi/OneDrive/Desktop/GD32VW553/GD32VW55X_Wifi_BLE_SDK/GD32VW55x_RELEASE_V1.0.2/MSDK/lwip/lwip-2.1.2/port\wifi_netif.c **** struct l2_filter_tag
  73:C:/Users/stapi/OneDrive/Desktop/GD32VW553/GD32VW55X_Wifi_BLE_SDK/GD32VW55x_RELEASE_V1.0.2/MSDK/lwip/lwip-2.1.2/port\wifi_netif.c **** {
  74:C:/Users/stapi/OneDrive/Desktop/GD32VW553/GD32VW55X_Wifi_BLE_SDK/GD32VW55x_RELEASE_V1.0.2/MSDK/lwip/lwip-2.1.2/port\wifi_netif.c ****     struct netif *net_if;
  75:C:/Users/stapi/OneDrive/Desktop/GD32VW553/GD32VW55X_Wifi_BLE_SDK/GD32VW55x_RELEASE_V1.0.2/MSDK/lwip/lwip-2.1.2/port\wifi_netif.c ****     int sock;
  76:C:/Users/stapi/OneDrive/Desktop/GD32VW553/GD32VW55X_Wifi_BLE_SDK/GD32VW55x_RELEASE_V1.0.2/MSDK/lwip/lwip-2.1.2/port\wifi_netif.c ****     struct netconn *conn;
  77:C:/Users/stapi/OneDrive/Desktop/GD32VW553/GD32VW55X_Wifi_BLE_SDK/GD32VW55x_RELEASE_V1.0.2/MSDK/lwip/lwip-2.1.2/port\wifi_netif.c ****     uint16_t ethertype;
  78:C:/Users/stapi/OneDrive/Desktop/GD32VW553/GD32VW55X_Wifi_BLE_SDK/GD32VW55x_RELEASE_V1.0.2/MSDK/lwip/lwip-2.1.2/port\wifi_netif.c **** };
  79:C:/Users/stapi/OneDrive/Desktop/GD32VW553/GD32VW55X_Wifi_BLE_SDK/GD32VW55x_RELEASE_V1.0.2/MSDK/lwip/lwip-2.1.2/port\wifi_netif.c **** 
  80:C:/Users/stapi/OneDrive/Desktop/GD32VW553/GD32VW55X_Wifi_BLE_SDK/GD32VW55x_RELEASE_V1.0.2/MSDK/lwip/lwip-2.1.2/port\wifi_netif.c **** static struct l2_filter_tag l2_filter[WIFI_NB_L2_FILTER];
  81:C:/Users/stapi/OneDrive/Desktop/GD32VW553/GD32VW55X_Wifi_BLE_SDK/GD32VW55x_RELEASE_V1.0.2/MSDK/lwip/lwip-2.1.2/port\wifi_netif.c **** static os_sema_t l2_semaphore;
  82:C:/Users/stapi/OneDrive/Desktop/GD32VW553/GD32VW55X_Wifi_BLE_SDK/GD32VW55x_RELEASE_V1.0.2/MSDK/lwip/lwip-2.1.2/port\wifi_netif.c **** static os_mutex_t l2_mutex;
  83:C:/Users/stapi/OneDrive/Desktop/GD32VW553/GD32VW55X_Wifi_BLE_SDK/GD32VW55x_RELEASE_V1.0.2/MSDK/lwip/lwip-2.1.2/port\wifi_netif.c **** static uint8_t ap_dhcpd_started = 0;
  84:C:/Users/stapi/OneDrive/Desktop/GD32VW553/GD32VW55X_Wifi_BLE_SDK/GD32VW55x_RELEASE_V1.0.2/MSDK/lwip/lwip-2.1.2/port\wifi_netif.c **** static bool netif_static_ip = 0;
  85:C:/Users/stapi/OneDrive/Desktop/GD32VW553/GD32VW55X_Wifi_BLE_SDK/GD32VW55x_RELEASE_V1.0.2/MSDK/lwip/lwip-2.1.2/port\wifi_netif.c **** #if LWIP_IPV6
  86:C:/Users/stapi/OneDrive/Desktop/GD32VW553/GD32VW55X_Wifi_BLE_SDK/GD32VW55x_RELEASE_V1.0.2/MSDK/lwip/lwip-2.1.2/port\wifi_netif.c **** static uint8_t ap_ip6_server_started = 0;
  87:C:/Users/stapi/OneDrive/Desktop/GD32VW553/GD32VW55X_Wifi_BLE_SDK/GD32VW55x_RELEASE_V1.0.2/MSDK/lwip/lwip-2.1.2/port\wifi_netif.c **** #endif
  88:C:/Users/stapi/OneDrive/Desktop/GD32VW553/GD32VW55X_Wifi_BLE_SDK/GD32VW55x_RELEASE_V1.0.2/MSDK/lwip/lwip-2.1.2/port\wifi_netif.c **** 
  89:C:/Users/stapi/OneDrive/Desktop/GD32VW553/GD32VW55X_Wifi_BLE_SDK/GD32VW55x_RELEASE_V1.0.2/MSDK/lwip/lwip-2.1.2/port\wifi_netif.c **** #if PBUF_LINK_ENCAPSULATION_HLEN < NET_AL_TX_HEADROOM
  90:C:/Users/stapi/OneDrive/Desktop/GD32VW553/GD32VW55X_Wifi_BLE_SDK/GD32VW55x_RELEASE_V1.0.2/MSDK/lwip/lwip-2.1.2/port\wifi_netif.c **** #error "PBUF_LINK_ENCAPSULATION_HLEN must be at least NET_AL_TX_HEADROOM"
  91:C:/Users/stapi/OneDrive/Desktop/GD32VW553/GD32VW55X_Wifi_BLE_SDK/GD32VW55x_RELEASE_V1.0.2/MSDK/lwip/lwip-2.1.2/port\wifi_netif.c **** #endif
  92:C:/Users/stapi/OneDrive/Desktop/GD32VW553/GD32VW55X_Wifi_BLE_SDK/GD32VW55x_RELEASE_V1.0.2/MSDK/lwip/lwip-2.1.2/port\wifi_netif.c **** 
  93:C:/Users/stapi/OneDrive/Desktop/GD32VW553/GD32VW55X_Wifi_BLE_SDK/GD32VW55x_RELEASE_V1.0.2/MSDK/lwip/lwip-2.1.2/port\wifi_netif.c **** /*
  94:C:/Users/stapi/OneDrive/Desktop/GD32VW553/GD32VW55X_Wifi_BLE_SDK/GD32VW55x_RELEASE_V1.0.2/MSDK/lwip/lwip-2.1.2/port\wifi_netif.c ****  * FUNCTIONS
  95:C:/Users/stapi/OneDrive/Desktop/GD32VW553/GD32VW55X_Wifi_BLE_SDK/GD32VW55x_RELEASE_V1.0.2/MSDK/lwip/lwip-2.1.2/port\wifi_netif.c ****  ****************************************************************************************
  96:C:/Users/stapi/OneDrive/Desktop/GD32VW553/GD32VW55X_Wifi_BLE_SDK/GD32VW55x_RELEASE_V1.0.2/MSDK/lwip/lwip-2.1.2/port\wifi_netif.c ****  */
  97:C:/Users/stapi/OneDrive/Desktop/GD32VW553/GD32VW55X_Wifi_BLE_SDK/GD32VW55x_RELEASE_V1.0.2/MSDK/lwip/lwip-2.1.2/port\wifi_netif.c **** // Fake function used to detected too small link encapsulation header length
  98:C:/Users/stapi/OneDrive/Desktop/GD32VW553/GD32VW55X_Wifi_BLE_SDK/GD32VW55x_RELEASE_V1.0.2/MSDK/lwip/lwip-2.1.2/port\wifi_netif.c **** void p_buf_link_encapsulation_hlen_too_small(void);
  99:C:/Users/stapi/OneDrive/Desktop/GD32VW553/GD32VW55X_Wifi_BLE_SDK/GD32VW55x_RELEASE_V1.0.2/MSDK/lwip/lwip-2.1.2/port\wifi_netif.c **** 
 100:C:/Users/stapi/OneDrive/Desktop/GD32VW553/GD32VW55X_Wifi_BLE_SDK/GD32VW55x_RELEASE_V1.0.2/MSDK/lwip/lwip-2.1.2/port\wifi_netif.c **** #if defined(NET_UDP_PBUF_REALLOC) && (NET_UDP_PBUF_REALLOC == 1)
 101:C:/Users/stapi/OneDrive/Desktop/GD32VW553/GD32VW55X_Wifi_BLE_SDK/GD32VW55x_RELEASE_V1.0.2/MSDK/lwip/lwip-2.1.2/port\wifi_netif.c **** static int net_buf_need_realloc(struct pbuf *pbuf)
 102:C:/Users/stapi/OneDrive/Desktop/GD32VW553/GD32VW55X_Wifi_BLE_SDK/GD32VW55x_RELEASE_V1.0.2/MSDK/lwip/lwip-2.1.2/port\wifi_netif.c **** {
 103:C:/Users/stapi/OneDrive/Desktop/GD32VW553/GD32VW55X_Wifi_BLE_SDK/GD32VW55x_RELEASE_V1.0.2/MSDK/lwip/lwip-2.1.2/port\wifi_netif.c ****     uint16_t eth_type;
 104:C:/Users/stapi/OneDrive/Desktop/GD32VW553/GD32VW55X_Wifi_BLE_SDK/GD32VW55x_RELEASE_V1.0.2/MSDK/lwip/lwip-2.1.2/port\wifi_netif.c ****     uint8_t proto;
 105:C:/Users/stapi/OneDrive/Desktop/GD32VW553/GD32VW55X_Wifi_BLE_SDK/GD32VW55x_RELEASE_V1.0.2/MSDK/lwip/lwip-2.1.2/port\wifi_netif.c ****     uint16_t port;
 106:C:/Users/stapi/OneDrive/Desktop/GD32VW553/GD32VW55X_Wifi_BLE_SDK/GD32VW55x_RELEASE_V1.0.2/MSDK/lwip/lwip-2.1.2/port\wifi_netif.c **** 
 107:C:/Users/stapi/OneDrive/Desktop/GD32VW553/GD32VW55X_Wifi_BLE_SDK/GD32VW55x_RELEASE_V1.0.2/MSDK/lwip/lwip-2.1.2/port\wifi_netif.c ****     if (pbuf->flags & PBUF_FLAG_IS_CUSTOM)
 108:C:/Users/stapi/OneDrive/Desktop/GD32VW553/GD32VW55X_Wifi_BLE_SDK/GD32VW55x_RELEASE_V1.0.2/MSDK/lwip/lwip-2.1.2/port\wifi_netif.c ****         return 0;
 109:C:/Users/stapi/OneDrive/Desktop/GD32VW553/GD32VW55X_Wifi_BLE_SDK/GD32VW55x_RELEASE_V1.0.2/MSDK/lwip/lwip-2.1.2/port\wifi_netif.c **** 
 110:C:/Users/stapi/OneDrive/Desktop/GD32VW553/GD32VW55X_Wifi_BLE_SDK/GD32VW55x_RELEASE_V1.0.2/MSDK/lwip/lwip-2.1.2/port\wifi_netif.c ****     eth_type = ((struct eth_hdr *)pbuf->payload)->type;
 111:C:/Users/stapi/OneDrive/Desktop/GD32VW553/GD32VW55X_Wifi_BLE_SDK/GD32VW55x_RELEASE_V1.0.2/MSDK/lwip/lwip-2.1.2/port\wifi_netif.c ****     // printf("eth_type = %x\r\n", eth_type);
 112:C:/Users/stapi/OneDrive/Desktop/GD32VW553/GD32VW55X_Wifi_BLE_SDK/GD32VW55x_RELEASE_V1.0.2/MSDK/lwip/lwip-2.1.2/port\wifi_netif.c **** #if LWIP_IPV6
 113:C:/Users/stapi/OneDrive/Desktop/GD32VW553/GD32VW55X_Wifi_BLE_SDK/GD32VW55x_RELEASE_V1.0.2/MSDK/lwip/lwip-2.1.2/port\wifi_netif.c ****     if (eth_type != PP_HTONS(ETHTYPE_IP) && eth_type != PP_HTONS(ETHTYPE_IPV6))
 114:C:/Users/stapi/OneDrive/Desktop/GD32VW553/GD32VW55X_Wifi_BLE_SDK/GD32VW55x_RELEASE_V1.0.2/MSDK/lwip/lwip-2.1.2/port\wifi_netif.c **** #else
 115:C:/Users/stapi/OneDrive/Desktop/GD32VW553/GD32VW55X_Wifi_BLE_SDK/GD32VW55x_RELEASE_V1.0.2/MSDK/lwip/lwip-2.1.2/port\wifi_netif.c ****     if (eth_type != PP_HTONS(ETHTYPE_IP))
 116:C:/Users/stapi/OneDrive/Desktop/GD32VW553/GD32VW55X_Wifi_BLE_SDK/GD32VW55x_RELEASE_V1.0.2/MSDK/lwip/lwip-2.1.2/port\wifi_netif.c **** #endif
 117:C:/Users/stapi/OneDrive/Desktop/GD32VW553/GD32VW55X_Wifi_BLE_SDK/GD32VW55x_RELEASE_V1.0.2/MSDK/lwip/lwip-2.1.2/port\wifi_netif.c ****         return 0;
 118:C:/Users/stapi/OneDrive/Desktop/GD32VW553/GD32VW55X_Wifi_BLE_SDK/GD32VW55x_RELEASE_V1.0.2/MSDK/lwip/lwip-2.1.2/port\wifi_netif.c **** 
 119:C:/Users/stapi/OneDrive/Desktop/GD32VW553/GD32VW55X_Wifi_BLE_SDK/GD32VW55x_RELEASE_V1.0.2/MSDK/lwip/lwip-2.1.2/port\wifi_netif.c **** #if LWIP_IPV6
 120:C:/Users/stapi/OneDrive/Desktop/GD32VW553/GD32VW55X_Wifi_BLE_SDK/GD32VW55x_RELEASE_V1.0.2/MSDK/lwip/lwip-2.1.2/port\wifi_netif.c ****     if (eth_type == PP_HTONS(ETHTYPE_IPV6))
 121:C:/Users/stapi/OneDrive/Desktop/GD32VW553/GD32VW55X_Wifi_BLE_SDK/GD32VW55x_RELEASE_V1.0.2/MSDK/lwip/lwip-2.1.2/port\wifi_netif.c ****         proto = IP6H_NEXTH((struct ip6_hdr *)((uint8_t *)pbuf->payload + SIZEOF_ETH_HDR));
 122:C:/Users/stapi/OneDrive/Desktop/GD32VW553/GD32VW55X_Wifi_BLE_SDK/GD32VW55x_RELEASE_V1.0.2/MSDK/lwip/lwip-2.1.2/port\wifi_netif.c ****     else
 123:C:/Users/stapi/OneDrive/Desktop/GD32VW553/GD32VW55X_Wifi_BLE_SDK/GD32VW55x_RELEASE_V1.0.2/MSDK/lwip/lwip-2.1.2/port\wifi_netif.c **** #endif
 124:C:/Users/stapi/OneDrive/Desktop/GD32VW553/GD32VW55X_Wifi_BLE_SDK/GD32VW55x_RELEASE_V1.0.2/MSDK/lwip/lwip-2.1.2/port\wifi_netif.c ****         proto = IPH_PROTO((struct ip_hdr *)((uint8_t *)pbuf->payload + SIZEOF_ETH_HDR));
 125:C:/Users/stapi/OneDrive/Desktop/GD32VW553/GD32VW55X_Wifi_BLE_SDK/GD32VW55x_RELEASE_V1.0.2/MSDK/lwip/lwip-2.1.2/port\wifi_netif.c ****     // printf("proto = %x\r\n", proto);
 126:C:/Users/stapi/OneDrive/Desktop/GD32VW553/GD32VW55X_Wifi_BLE_SDK/GD32VW55x_RELEASE_V1.0.2/MSDK/lwip/lwip-2.1.2/port\wifi_netif.c ****     if (proto != IP_PROTO_UDP)
 127:C:/Users/stapi/OneDrive/Desktop/GD32VW553/GD32VW55X_Wifi_BLE_SDK/GD32VW55x_RELEASE_V1.0.2/MSDK/lwip/lwip-2.1.2/port\wifi_netif.c ****         return 0;
 128:C:/Users/stapi/OneDrive/Desktop/GD32VW553/GD32VW55X_Wifi_BLE_SDK/GD32VW55x_RELEASE_V1.0.2/MSDK/lwip/lwip-2.1.2/port\wifi_netif.c **** 
 129:C:/Users/stapi/OneDrive/Desktop/GD32VW553/GD32VW55X_Wifi_BLE_SDK/GD32VW55x_RELEASE_V1.0.2/MSDK/lwip/lwip-2.1.2/port\wifi_netif.c **** #if LWIP_IPV6
 130:C:/Users/stapi/OneDrive/Desktop/GD32VW553/GD32VW55X_Wifi_BLE_SDK/GD32VW55x_RELEASE_V1.0.2/MSDK/lwip/lwip-2.1.2/port\wifi_netif.c ****     if (eth_type == PP_HTONS(ETHTYPE_IPV6))
 131:C:/Users/stapi/OneDrive/Desktop/GD32VW553/GD32VW55X_Wifi_BLE_SDK/GD32VW55x_RELEASE_V1.0.2/MSDK/lwip/lwip-2.1.2/port\wifi_netif.c ****         port = ((struct udp_hdr *)((uint8_t *)pbuf->payload + SIZEOF_ETH_HDR + IP6_HLEN))->src;
 132:C:/Users/stapi/OneDrive/Desktop/GD32VW553/GD32VW55X_Wifi_BLE_SDK/GD32VW55x_RELEASE_V1.0.2/MSDK/lwip/lwip-2.1.2/port\wifi_netif.c ****     else
 133:C:/Users/stapi/OneDrive/Desktop/GD32VW553/GD32VW55X_Wifi_BLE_SDK/GD32VW55x_RELEASE_V1.0.2/MSDK/lwip/lwip-2.1.2/port\wifi_netif.c **** #endif
 134:C:/Users/stapi/OneDrive/Desktop/GD32VW553/GD32VW55X_Wifi_BLE_SDK/GD32VW55x_RELEASE_V1.0.2/MSDK/lwip/lwip-2.1.2/port\wifi_netif.c ****         port = ((struct udp_hdr *)((uint8_t *)pbuf->payload + SIZEOF_ETH_HDR + IP_HLEN))->src;
 135:C:/Users/stapi/OneDrive/Desktop/GD32VW553/GD32VW55X_Wifi_BLE_SDK/GD32VW55x_RELEASE_V1.0.2/MSDK/lwip/lwip-2.1.2/port\wifi_netif.c ****     // printf("port = %x\r\n", lwip_ntohs(port));
 136:C:/Users/stapi/OneDrive/Desktop/GD32VW553/GD32VW55X_Wifi_BLE_SDK/GD32VW55x_RELEASE_V1.0.2/MSDK/lwip/lwip-2.1.2/port\wifi_netif.c ****     if (lwip_ntohs(port) == 0x43 || lwip_ntohs(port) == 0x44)  /* DHCP */
 137:C:/Users/stapi/OneDrive/Desktop/GD32VW553/GD32VW55X_Wifi_BLE_SDK/GD32VW55x_RELEASE_V1.0.2/MSDK/lwip/lwip-2.1.2/port\wifi_netif.c ****         return 0;
 138:C:/Users/stapi/OneDrive/Desktop/GD32VW553/GD32VW55X_Wifi_BLE_SDK/GD32VW55x_RELEASE_V1.0.2/MSDK/lwip/lwip-2.1.2/port\wifi_netif.c **** 
 139:C:/Users/stapi/OneDrive/Desktop/GD32VW553/GD32VW55X_Wifi_BLE_SDK/GD32VW55x_RELEASE_V1.0.2/MSDK/lwip/lwip-2.1.2/port\wifi_netif.c ****     return 1;
 140:C:/Users/stapi/OneDrive/Desktop/GD32VW553/GD32VW55X_Wifi_BLE_SDK/GD32VW55x_RELEASE_V1.0.2/MSDK/lwip/lwip-2.1.2/port\wifi_netif.c **** }
 141:C:/Users/stapi/OneDrive/Desktop/GD32VW553/GD32VW55X_Wifi_BLE_SDK/GD32VW55x_RELEASE_V1.0.2/MSDK/lwip/lwip-2.1.2/port\wifi_netif.c **** #endif /* NET_UDP_REALLOC */
 142:C:/Users/stapi/OneDrive/Desktop/GD32VW553/GD32VW55X_Wifi_BLE_SDK/GD32VW55x_RELEASE_V1.0.2/MSDK/lwip/lwip-2.1.2/port\wifi_netif.c **** 
 143:C:/Users/stapi/OneDrive/Desktop/GD32VW553/GD32VW55X_Wifi_BLE_SDK/GD32VW55x_RELEASE_V1.0.2/MSDK/lwip/lwip-2.1.2/port\wifi_netif.c **** /*!
 144:C:/Users/stapi/OneDrive/Desktop/GD32VW553/GD32VW55X_Wifi_BLE_SDK/GD32VW55x_RELEASE_V1.0.2/MSDK/lwip/lwip-2.1.2/port\wifi_netif.c ****     \brief      Callback used by the networking stack to push a buffer for transmission by the
 145:C:/Users/stapi/OneDrive/Desktop/GD32VW553/GD32VW55X_Wifi_BLE_SDK/GD32VW55x_RELEASE_V1.0.2/MSDK/lwip/lwip-2.1.2/port\wifi_netif.c ****                 WiFi interface.
 146:C:/Users/stapi/OneDrive/Desktop/GD32VW553/GD32VW55X_Wifi_BLE_SDK/GD32VW55x_RELEASE_V1.0.2/MSDK/lwip/lwip-2.1.2/port\wifi_netif.c ****     \param[in]  net_if: Pointer to the network interface on which the TX is done
 147:C:/Users/stapi/OneDrive/Desktop/GD32VW553/GD32VW55X_Wifi_BLE_SDK/GD32VW55x_RELEASE_V1.0.2/MSDK/lwip/lwip-2.1.2/port\wifi_netif.c ****     \param[in]  p_buf: Pointer to the buffer to transmit
 148:C:/Users/stapi/OneDrive/Desktop/GD32VW553/GD32VW55X_Wifi_BLE_SDK/GD32VW55x_RELEASE_V1.0.2/MSDK/lwip/lwip-2.1.2/port\wifi_netif.c ****     \param[out] none
 149:C:/Users/stapi/OneDrive/Desktop/GD32VW553/GD32VW55X_Wifi_BLE_SDK/GD32VW55x_RELEASE_V1.0.2/MSDK/lwip/lwip-2.1.2/port\wifi_netif.c ****     \retval     ERR_OK upon successful pushing of the buffer, ERR_BUF otherwise
 150:C:/Users/stapi/OneDrive/Desktop/GD32VW553/GD32VW55X_Wifi_BLE_SDK/GD32VW55x_RELEASE_V1.0.2/MSDK/lwip/lwip-2.1.2/port\wifi_netif.c **** */
 151:C:/Users/stapi/OneDrive/Desktop/GD32VW553/GD32VW55X_Wifi_BLE_SDK/GD32VW55x_RELEASE_V1.0.2/MSDK/lwip/lwip-2.1.2/port\wifi_netif.c **** static err_t net_if_output(struct netif *net_if, struct pbuf *p_buf)
 152:C:/Users/stapi/OneDrive/Desktop/GD32VW553/GD32VW55X_Wifi_BLE_SDK/GD32VW55x_RELEASE_V1.0.2/MSDK/lwip/lwip-2.1.2/port\wifi_netif.c **** {
 153:C:/Users/stapi/OneDrive/Desktop/GD32VW553/GD32VW55X_Wifi_BLE_SDK/GD32VW55x_RELEASE_V1.0.2/MSDK/lwip/lwip-2.1.2/port\wifi_netif.c ****     err_t status = ERR_BUF;
 154:C:/Users/stapi/OneDrive/Desktop/GD32VW553/GD32VW55X_Wifi_BLE_SDK/GD32VW55x_RELEASE_V1.0.2/MSDK/lwip/lwip-2.1.2/port\wifi_netif.c **** 
 155:C:/Users/stapi/OneDrive/Desktop/GD32VW553/GD32VW55X_Wifi_BLE_SDK/GD32VW55x_RELEASE_V1.0.2/MSDK/lwip/lwip-2.1.2/port\wifi_netif.c **** #if defined(NET_UDP_PBUF_REALLOC) && (NET_UDP_PBUF_REALLOC == 1)
 156:C:/Users/stapi/OneDrive/Desktop/GD32VW553/GD32VW55X_Wifi_BLE_SDK/GD32VW55x_RELEASE_V1.0.2/MSDK/lwip/lwip-2.1.2/port\wifi_netif.c ****     struct pbuf *pbuf_head_new, *pbuf_new, *p;
 157:C:/Users/stapi/OneDrive/Desktop/GD32VW553/GD32VW55X_Wifi_BLE_SDK/GD32VW55x_RELEASE_V1.0.2/MSDK/lwip/lwip-2.1.2/port\wifi_netif.c **** 
 158:C:/Users/stapi/OneDrive/Desktop/GD32VW553/GD32VW55X_Wifi_BLE_SDK/GD32VW55x_RELEASE_V1.0.2/MSDK/lwip/lwip-2.1.2/port\wifi_netif.c ****     if (net_buf_need_realloc(p_buf))
 159:C:/Users/stapi/OneDrive/Desktop/GD32VW553/GD32VW55X_Wifi_BLE_SDK/GD32VW55x_RELEASE_V1.0.2/MSDK/lwip/lwip-2.1.2/port\wifi_netif.c ****     {
 160:C:/Users/stapi/OneDrive/Desktop/GD32VW553/GD32VW55X_Wifi_BLE_SDK/GD32VW55x_RELEASE_V1.0.2/MSDK/lwip/lwip-2.1.2/port\wifi_netif.c ****         if (!netif_is_up(net_if))
 161:C:/Users/stapi/OneDrive/Desktop/GD32VW553/GD32VW55X_Wifi_BLE_SDK/GD32VW55x_RELEASE_V1.0.2/MSDK/lwip/lwip-2.1.2/port\wifi_netif.c ****             return (status);
 162:C:/Users/stapi/OneDrive/Desktop/GD32VW553/GD32VW55X_Wifi_BLE_SDK/GD32VW55x_RELEASE_V1.0.2/MSDK/lwip/lwip-2.1.2/port\wifi_netif.c **** 
 163:C:/Users/stapi/OneDrive/Desktop/GD32VW553/GD32VW55X_Wifi_BLE_SDK/GD32VW55x_RELEASE_V1.0.2/MSDK/lwip/lwip-2.1.2/port\wifi_netif.c ****         // Allocation of the new pbufs
 164:C:/Users/stapi/OneDrive/Desktop/GD32VW553/GD32VW55X_Wifi_BLE_SDK/GD32VW55x_RELEASE_V1.0.2/MSDK/lwip/lwip-2.1.2/port\wifi_netif.c ****         pbuf_head_new = pbuf_alloc(PBUF_RAW_TX, p_buf->len, PBUF_RAM);
 165:C:/Users/stapi/OneDrive/Desktop/GD32VW553/GD32VW55X_Wifi_BLE_SDK/GD32VW55x_RELEASE_V1.0.2/MSDK/lwip/lwip-2.1.2/port\wifi_netif.c ****         if (pbuf_head_new != NULL)
 166:C:/Users/stapi/OneDrive/Desktop/GD32VW553/GD32VW55X_Wifi_BLE_SDK/GD32VW55x_RELEASE_V1.0.2/MSDK/lwip/lwip-2.1.2/port\wifi_netif.c ****         {
 167:C:/Users/stapi/OneDrive/Desktop/GD32VW553/GD32VW55X_Wifi_BLE_SDK/GD32VW55x_RELEASE_V1.0.2/MSDK/lwip/lwip-2.1.2/port\wifi_netif.c ****             sys_memcpy(pbuf_head_new->payload, (uint8_t *)(p_buf->payload), p_buf->len);
 168:C:/Users/stapi/OneDrive/Desktop/GD32VW553/GD32VW55X_Wifi_BLE_SDK/GD32VW55x_RELEASE_V1.0.2/MSDK/lwip/lwip-2.1.2/port\wifi_netif.c ****             p = p_buf;
 169:C:/Users/stapi/OneDrive/Desktop/GD32VW553/GD32VW55X_Wifi_BLE_SDK/GD32VW55x_RELEASE_V1.0.2/MSDK/lwip/lwip-2.1.2/port\wifi_netif.c ****             while (p->next != NULL)
 170:C:/Users/stapi/OneDrive/Desktop/GD32VW553/GD32VW55X_Wifi_BLE_SDK/GD32VW55x_RELEASE_V1.0.2/MSDK/lwip/lwip-2.1.2/port\wifi_netif.c ****             {
 171:C:/Users/stapi/OneDrive/Desktop/GD32VW553/GD32VW55X_Wifi_BLE_SDK/GD32VW55x_RELEASE_V1.0.2/MSDK/lwip/lwip-2.1.2/port\wifi_netif.c ****                 p = p->next;
 172:C:/Users/stapi/OneDrive/Desktop/GD32VW553/GD32VW55X_Wifi_BLE_SDK/GD32VW55x_RELEASE_V1.0.2/MSDK/lwip/lwip-2.1.2/port\wifi_netif.c ****                 pbuf_new = pbuf_alloc(PBUF_RAW_TX, p->len, PBUF_RAM);
 173:C:/Users/stapi/OneDrive/Desktop/GD32VW553/GD32VW55X_Wifi_BLE_SDK/GD32VW55x_RELEASE_V1.0.2/MSDK/lwip/lwip-2.1.2/port\wifi_netif.c ****                 if (pbuf_new == NULL)
 174:C:/Users/stapi/OneDrive/Desktop/GD32VW553/GD32VW55X_Wifi_BLE_SDK/GD32VW55x_RELEASE_V1.0.2/MSDK/lwip/lwip-2.1.2/port\wifi_netif.c ****                 {
 175:C:/Users/stapi/OneDrive/Desktop/GD32VW553/GD32VW55X_Wifi_BLE_SDK/GD32VW55x_RELEASE_V1.0.2/MSDK/lwip/lwip-2.1.2/port\wifi_netif.c ****                     pbuf_free(pbuf_head_new);
 176:C:/Users/stapi/OneDrive/Desktop/GD32VW553/GD32VW55X_Wifi_BLE_SDK/GD32VW55x_RELEASE_V1.0.2/MSDK/lwip/lwip-2.1.2/port\wifi_netif.c ****                     return (status);
 177:C:/Users/stapi/OneDrive/Desktop/GD32VW553/GD32VW55X_Wifi_BLE_SDK/GD32VW55x_RELEASE_V1.0.2/MSDK/lwip/lwip-2.1.2/port\wifi_netif.c ****                 }
 178:C:/Users/stapi/OneDrive/Desktop/GD32VW553/GD32VW55X_Wifi_BLE_SDK/GD32VW55x_RELEASE_V1.0.2/MSDK/lwip/lwip-2.1.2/port\wifi_netif.c ****                 sys_memcpy(pbuf_new->payload, (uint8_t *)(p->payload), p->len);
 179:C:/Users/stapi/OneDrive/Desktop/GD32VW553/GD32VW55X_Wifi_BLE_SDK/GD32VW55x_RELEASE_V1.0.2/MSDK/lwip/lwip-2.1.2/port\wifi_netif.c ****                 pbuf_cat(pbuf_head_new, pbuf_new);
 180:C:/Users/stapi/OneDrive/Desktop/GD32VW553/GD32VW55X_Wifi_BLE_SDK/GD32VW55x_RELEASE_V1.0.2/MSDK/lwip/lwip-2.1.2/port\wifi_netif.c ****             }
 181:C:/Users/stapi/OneDrive/Desktop/GD32VW553/GD32VW55X_Wifi_BLE_SDK/GD32VW55x_RELEASE_V1.0.2/MSDK/lwip/lwip-2.1.2/port\wifi_netif.c ****         }
 182:C:/Users/stapi/OneDrive/Desktop/GD32VW553/GD32VW55X_Wifi_BLE_SDK/GD32VW55x_RELEASE_V1.0.2/MSDK/lwip/lwip-2.1.2/port\wifi_netif.c ****         else
 183:C:/Users/stapi/OneDrive/Desktop/GD32VW553/GD32VW55X_Wifi_BLE_SDK/GD32VW55x_RELEASE_V1.0.2/MSDK/lwip/lwip-2.1.2/port\wifi_netif.c ****         {
 184:C:/Users/stapi/OneDrive/Desktop/GD32VW553/GD32VW55X_Wifi_BLE_SDK/GD32VW55x_RELEASE_V1.0.2/MSDK/lwip/lwip-2.1.2/port\wifi_netif.c ****             return (status);
 185:C:/Users/stapi/OneDrive/Desktop/GD32VW553/GD32VW55X_Wifi_BLE_SDK/GD32VW55x_RELEASE_V1.0.2/MSDK/lwip/lwip-2.1.2/port\wifi_netif.c ****         }
 186:C:/Users/stapi/OneDrive/Desktop/GD32VW553/GD32VW55X_Wifi_BLE_SDK/GD32VW55x_RELEASE_V1.0.2/MSDK/lwip/lwip-2.1.2/port\wifi_netif.c **** 
 187:C:/Users/stapi/OneDrive/Desktop/GD32VW553/GD32VW55X_Wifi_BLE_SDK/GD32VW55x_RELEASE_V1.0.2/MSDK/lwip/lwip-2.1.2/port\wifi_netif.c ****         if (macif_tx_start(net_if, pbuf_head_new, NULL, NULL) != 0)
 188:C:/Users/stapi/OneDrive/Desktop/GD32VW553/GD32VW55X_Wifi_BLE_SDK/GD32VW55x_RELEASE_V1.0.2/MSDK/lwip/lwip-2.1.2/port\wifi_netif.c ****         {
 189:C:/Users/stapi/OneDrive/Desktop/GD32VW553/GD32VW55X_Wifi_BLE_SDK/GD32VW55x_RELEASE_V1.0.2/MSDK/lwip/lwip-2.1.2/port\wifi_netif.c ****             pbuf_free(pbuf_head_new);
 190:C:/Users/stapi/OneDrive/Desktop/GD32VW553/GD32VW55X_Wifi_BLE_SDK/GD32VW55x_RELEASE_V1.0.2/MSDK/lwip/lwip-2.1.2/port\wifi_netif.c ****             return (status);
 191:C:/Users/stapi/OneDrive/Desktop/GD32VW553/GD32VW55X_Wifi_BLE_SDK/GD32VW55x_RELEASE_V1.0.2/MSDK/lwip/lwip-2.1.2/port\wifi_netif.c ****         }
 192:C:/Users/stapi/OneDrive/Desktop/GD32VW553/GD32VW55X_Wifi_BLE_SDK/GD32VW55x_RELEASE_V1.0.2/MSDK/lwip/lwip-2.1.2/port\wifi_netif.c ****         status = ERR_OK;
 193:C:/Users/stapi/OneDrive/Desktop/GD32VW553/GD32VW55X_Wifi_BLE_SDK/GD32VW55x_RELEASE_V1.0.2/MSDK/lwip/lwip-2.1.2/port\wifi_netif.c ****     }
 194:C:/Users/stapi/OneDrive/Desktop/GD32VW553/GD32VW55X_Wifi_BLE_SDK/GD32VW55x_RELEASE_V1.0.2/MSDK/lwip/lwip-2.1.2/port\wifi_netif.c ****     else
 195:C:/Users/stapi/OneDrive/Desktop/GD32VW553/GD32VW55X_Wifi_BLE_SDK/GD32VW55x_RELEASE_V1.0.2/MSDK/lwip/lwip-2.1.2/port\wifi_netif.c **** #endif /* NET_UDP_REALLOC */
 196:C:/Users/stapi/OneDrive/Desktop/GD32VW553/GD32VW55X_Wifi_BLE_SDK/GD32VW55x_RELEASE_V1.0.2/MSDK/lwip/lwip-2.1.2/port\wifi_netif.c ****     {
 197:C:/Users/stapi/OneDrive/Desktop/GD32VW553/GD32VW55X_Wifi_BLE_SDK/GD32VW55x_RELEASE_V1.0.2/MSDK/lwip/lwip-2.1.2/port\wifi_netif.c ****         // Increase the ref count so that the buffer is not freed by the networking stack
 198:C:/Users/stapi/OneDrive/Desktop/GD32VW553/GD32VW55X_Wifi_BLE_SDK/GD32VW55x_RELEASE_V1.0.2/MSDK/lwip/lwip-2.1.2/port\wifi_netif.c ****         // until it is actually sent over the WiFi interface
 199:C:/Users/stapi/OneDrive/Desktop/GD32VW553/GD32VW55X_Wifi_BLE_SDK/GD32VW55x_RELEASE_V1.0.2/MSDK/lwip/lwip-2.1.2/port\wifi_netif.c ****         pbuf_ref(p_buf);
 200:C:/Users/stapi/OneDrive/Desktop/GD32VW553/GD32VW55X_Wifi_BLE_SDK/GD32VW55x_RELEASE_V1.0.2/MSDK/lwip/lwip-2.1.2/port\wifi_netif.c **** 
 201:C:/Users/stapi/OneDrive/Desktop/GD32VW553/GD32VW55X_Wifi_BLE_SDK/GD32VW55x_RELEASE_V1.0.2/MSDK/lwip/lwip-2.1.2/port\wifi_netif.c ****         // Push the buffer and verify the status
 202:C:/Users/stapi/OneDrive/Desktop/GD32VW553/GD32VW55X_Wifi_BLE_SDK/GD32VW55x_RELEASE_V1.0.2/MSDK/lwip/lwip-2.1.2/port\wifi_netif.c ****         if (netif_is_up(net_if) && macif_tx_start(net_if, p_buf, NULL, NULL) == 0)
 203:C:/Users/stapi/OneDrive/Desktop/GD32VW553/GD32VW55X_Wifi_BLE_SDK/GD32VW55x_RELEASE_V1.0.2/MSDK/lwip/lwip-2.1.2/port\wifi_netif.c ****         {
 204:C:/Users/stapi/OneDrive/Desktop/GD32VW553/GD32VW55X_Wifi_BLE_SDK/GD32VW55x_RELEASE_V1.0.2/MSDK/lwip/lwip-2.1.2/port\wifi_netif.c ****             status = ERR_OK;
 205:C:/Users/stapi/OneDrive/Desktop/GD32VW553/GD32VW55X_Wifi_BLE_SDK/GD32VW55x_RELEASE_V1.0.2/MSDK/lwip/lwip-2.1.2/port\wifi_netif.c ****         }
 206:C:/Users/stapi/OneDrive/Desktop/GD32VW553/GD32VW55X_Wifi_BLE_SDK/GD32VW55x_RELEASE_V1.0.2/MSDK/lwip/lwip-2.1.2/port\wifi_netif.c ****         else
 207:C:/Users/stapi/OneDrive/Desktop/GD32VW553/GD32VW55X_Wifi_BLE_SDK/GD32VW55x_RELEASE_V1.0.2/MSDK/lwip/lwip-2.1.2/port\wifi_netif.c ****         {
 208:C:/Users/stapi/OneDrive/Desktop/GD32VW553/GD32VW55X_Wifi_BLE_SDK/GD32VW55x_RELEASE_V1.0.2/MSDK/lwip/lwip-2.1.2/port\wifi_netif.c ****             // Failed to push message to TX task, call pbuf_free only to decrease ref count
 209:C:/Users/stapi/OneDrive/Desktop/GD32VW553/GD32VW55X_Wifi_BLE_SDK/GD32VW55x_RELEASE_V1.0.2/MSDK/lwip/lwip-2.1.2/port\wifi_netif.c ****             pbuf_free(p_buf);
 210:C:/Users/stapi/OneDrive/Desktop/GD32VW553/GD32VW55X_Wifi_BLE_SDK/GD32VW55x_RELEASE_V1.0.2/MSDK/lwip/lwip-2.1.2/port\wifi_netif.c ****         }
 211:C:/Users/stapi/OneDrive/Desktop/GD32VW553/GD32VW55X_Wifi_BLE_SDK/GD32VW55x_RELEASE_V1.0.2/MSDK/lwip/lwip-2.1.2/port\wifi_netif.c **** 
 212:C:/Users/stapi/OneDrive/Desktop/GD32VW553/GD32VW55X_Wifi_BLE_SDK/GD32VW55x_RELEASE_V1.0.2/MSDK/lwip/lwip-2.1.2/port\wifi_netif.c ****     }
 213:C:/Users/stapi/OneDrive/Desktop/GD32VW553/GD32VW55X_Wifi_BLE_SDK/GD32VW55x_RELEASE_V1.0.2/MSDK/lwip/lwip-2.1.2/port\wifi_netif.c **** 
 214:C:/Users/stapi/OneDrive/Desktop/GD32VW553/GD32VW55X_Wifi_BLE_SDK/GD32VW55x_RELEASE_V1.0.2/MSDK/lwip/lwip-2.1.2/port\wifi_netif.c ****     return (status);
 215:C:/Users/stapi/OneDrive/Desktop/GD32VW553/GD32VW55X_Wifi_BLE_SDK/GD32VW55x_RELEASE_V1.0.2/MSDK/lwip/lwip-2.1.2/port\wifi_netif.c **** }
 216:C:/Users/stapi/OneDrive/Desktop/GD32VW553/GD32VW55X_Wifi_BLE_SDK/GD32VW55x_RELEASE_V1.0.2/MSDK/lwip/lwip-2.1.2/port\wifi_netif.c **** 
 217:C:/Users/stapi/OneDrive/Desktop/GD32VW553/GD32VW55X_Wifi_BLE_SDK/GD32VW55x_RELEASE_V1.0.2/MSDK/lwip/lwip-2.1.2/port\wifi_netif.c **** /*!
 218:C:/Users/stapi/OneDrive/Desktop/GD32VW553/GD32VW55X_Wifi_BLE_SDK/GD32VW55x_RELEASE_V1.0.2/MSDK/lwip/lwip-2.1.2/port\wifi_netif.c ****     \brief      Callback used by the networking stack to setup the network interface.
 219:C:/Users/stapi/OneDrive/Desktop/GD32VW553/GD32VW55X_Wifi_BLE_SDK/GD32VW55x_RELEASE_V1.0.2/MSDK/lwip/lwip-2.1.2/port\wifi_netif.c ****                 This function should be passed as a parameter to netifapi_netif_add().
 220:C:/Users/stapi/OneDrive/Desktop/GD32VW553/GD32VW55X_Wifi_BLE_SDK/GD32VW55x_RELEASE_V1.0.2/MSDK/lwip/lwip-2.1.2/port\wifi_netif.c ****     \param[in]  net_if: Pointer to the network interface to setup
 221:C:/Users/stapi/OneDrive/Desktop/GD32VW553/GD32VW55X_Wifi_BLE_SDK/GD32VW55x_RELEASE_V1.0.2/MSDK/lwip/lwip-2.1.2/port\wifi_netif.c ****     \param[in]  p_buf: Pointer to the buffer to transmit
 222:C:/Users/stapi/OneDrive/Desktop/GD32VW553/GD32VW55X_Wifi_BLE_SDK/GD32VW55x_RELEASE_V1.0.2/MSDK/lwip/lwip-2.1.2/port\wifi_netif.c ****     \param[out] none
 223:C:/Users/stapi/OneDrive/Desktop/GD32VW553/GD32VW55X_Wifi_BLE_SDK/GD32VW55x_RELEASE_V1.0.2/MSDK/lwip/lwip-2.1.2/port\wifi_netif.c ****     \retval     ERR_OK upon successful setup of the interface, other status otherwise
 224:C:/Users/stapi/OneDrive/Desktop/GD32VW553/GD32VW55X_Wifi_BLE_SDK/GD32VW55x_RELEASE_V1.0.2/MSDK/lwip/lwip-2.1.2/port\wifi_netif.c **** */
 225:C:/Users/stapi/OneDrive/Desktop/GD32VW553/GD32VW55X_Wifi_BLE_SDK/GD32VW55x_RELEASE_V1.0.2/MSDK/lwip/lwip-2.1.2/port\wifi_netif.c **** static err_t net_if_init(struct netif *net_if)
 226:C:/Users/stapi/OneDrive/Desktop/GD32VW553/GD32VW55X_Wifi_BLE_SDK/GD32VW55x_RELEASE_V1.0.2/MSDK/lwip/lwip-2.1.2/port\wifi_netif.c **** {
  15              		.loc 1 226 1
  16              		.cfi_startproc
  17              	.LVL0:
 227:C:/Users/stapi/OneDrive/Desktop/GD32VW553/GD32VW55X_Wifi_BLE_SDK/GD32VW55x_RELEASE_V1.0.2/MSDK/lwip/lwip-2.1.2/port\wifi_netif.c ****     err_t status = ERR_OK;
  18              		.loc 1 227 5
 228:C:/Users/stapi/OneDrive/Desktop/GD32VW553/GD32VW55X_Wifi_BLE_SDK/GD32VW55x_RELEASE_V1.0.2/MSDK/lwip/lwip-2.1.2/port\wifi_netif.c **** 
 229:C:/Users/stapi/OneDrive/Desktop/GD32VW553/GD32VW55X_Wifi_BLE_SDK/GD32VW55x_RELEASE_V1.0.2/MSDK/lwip/lwip-2.1.2/port\wifi_netif.c ****     #if LWIP_NETIF_HOSTNAME
 230:C:/Users/stapi/OneDrive/Desktop/GD32VW553/GD32VW55X_Wifi_BLE_SDK/GD32VW55x_RELEASE_V1.0.2/MSDK/lwip/lwip-2.1.2/port\wifi_netif.c ****     {
 231:C:/Users/stapi/OneDrive/Desktop/GD32VW553/GD32VW55X_Wifi_BLE_SDK/GD32VW55x_RELEASE_V1.0.2/MSDK/lwip/lwip-2.1.2/port\wifi_netif.c ****         /* Initialize interface hostname */
 232:C:/Users/stapi/OneDrive/Desktop/GD32VW553/GD32VW55X_Wifi_BLE_SDK/GD32VW55x_RELEASE_V1.0.2/MSDK/lwip/lwip-2.1.2/port\wifi_netif.c ****         net_if->hostname = "wlan";
 233:C:/Users/stapi/OneDrive/Desktop/GD32VW553/GD32VW55X_Wifi_BLE_SDK/GD32VW55x_RELEASE_V1.0.2/MSDK/lwip/lwip-2.1.2/port\wifi_netif.c ****     }
 234:C:/Users/stapi/OneDrive/Desktop/GD32VW553/GD32VW55X_Wifi_BLE_SDK/GD32VW55x_RELEASE_V1.0.2/MSDK/lwip/lwip-2.1.2/port\wifi_netif.c ****     #endif /* LWIP_NETIF_HOSTNAME */
 235:C:/Users/stapi/OneDrive/Desktop/GD32VW553/GD32VW55X_Wifi_BLE_SDK/GD32VW55x_RELEASE_V1.0.2/MSDK/lwip/lwip-2.1.2/port\wifi_netif.c **** 
 236:C:/Users/stapi/OneDrive/Desktop/GD32VW553/GD32VW55X_Wifi_BLE_SDK/GD32VW55x_RELEASE_V1.0.2/MSDK/lwip/lwip-2.1.2/port\wifi_netif.c ****     net_if->name[ 0 ] = 'w';
  19              		.loc 1 236 5
 237:C:/Users/stapi/OneDrive/Desktop/GD32VW553/GD32VW55X_Wifi_BLE_SDK/GD32VW55x_RELEASE_V1.0.2/MSDK/lwip/lwip-2.1.2/port\wifi_netif.c ****     net_if->name[ 1 ] = 'l';
  20              		.loc 1 237 5
 238:C:/Users/stapi/OneDrive/Desktop/GD32VW553/GD32VW55X_Wifi_BLE_SDK/GD32VW55x_RELEASE_V1.0.2/MSDK/lwip/lwip-2.1.2/port\wifi_netif.c **** 
 239:C:/Users/stapi/OneDrive/Desktop/GD32VW553/GD32VW55X_Wifi_BLE_SDK/GD32VW55x_RELEASE_V1.0.2/MSDK/lwip/lwip-2.1.2/port\wifi_netif.c ****     net_if->output = etharp_output;
  21              		.loc 1 239 5
  22              		.loc 1 239 20 is_stmt 0
  23 0000 B7070000 		lui	a5,%hi(etharp_output)
  24 0004 93870700 		addi	a5,a5,%lo(etharp_output)
  25 0008 5CC9     		sw	a5,20(a0)
 240:C:/Users/stapi/OneDrive/Desktop/GD32VW553/GD32VW55X_Wifi_BLE_SDK/GD32VW55x_RELEASE_V1.0.2/MSDK/lwip/lwip-2.1.2/port\wifi_netif.c ****     net_if->flags = NETIF_FLAG_BROADCAST | NETIF_FLAG_ETHARP | NETIF_FLAG_LINK_UP;
  26              		.loc 1 240 5 is_stmt 1
 241:C:/Users/stapi/OneDrive/Desktop/GD32VW553/GD32VW55X_Wifi_BLE_SDK/GD32VW55x_RELEASE_V1.0.2/MSDK/lwip/lwip-2.1.2/port\wifi_netif.c **** 
 242:C:/Users/stapi/OneDrive/Desktop/GD32VW553/GD32VW55X_Wifi_BLE_SDK/GD32VW55x_RELEASE_V1.0.2/MSDK/lwip/lwip-2.1.2/port\wifi_netif.c ****     #if LWIP_IGMP
 243:C:/Users/stapi/OneDrive/Desktop/GD32VW553/GD32VW55X_Wifi_BLE_SDK/GD32VW55x_RELEASE_V1.0.2/MSDK/lwip/lwip-2.1.2/port\wifi_netif.c ****     net_if->flags |= NETIF_FLAG_IGMP;
  27              		.loc 1 243 5
 244:C:/Users/stapi/OneDrive/Desktop/GD32VW553/GD32VW55X_Wifi_BLE_SDK/GD32VW55x_RELEASE_V1.0.2/MSDK/lwip/lwip-2.1.2/port\wifi_netif.c ****     #endif
 245:C:/Users/stapi/OneDrive/Desktop/GD32VW553/GD32VW55X_Wifi_BLE_SDK/GD32VW55x_RELEASE_V1.0.2/MSDK/lwip/lwip-2.1.2/port\wifi_netif.c ****     net_if->hwaddr_len = ETHARP_HWADDR_LEN;
  28              		.loc 1 245 5
  29              		.loc 1 245 24 is_stmt 0
  30 000a B737776C 		li	a5,1819750400
  31 000e 938767E0 		addi	a5,a5,-506
  32 0012 1CD9     		sw	a5,48(a0)
 246:C:/Users/stapi/OneDrive/Desktop/GD32VW553/GD32VW55X_Wifi_BLE_SDK/GD32VW55x_RELEASE_V1.0.2/MSDK/lwip/lwip-2.1.2/port\wifi_netif.c ****     // hwaddr is updated in net_if_add
 247:C:/Users/stapi/OneDrive/Desktop/GD32VW553/GD32VW55X_Wifi_BLE_SDK/GD32VW55x_RELEASE_V1.0.2/MSDK/lwip/lwip-2.1.2/port\wifi_netif.c ****     net_if->mtu = ETHERNET_MTU;
  33              		.loc 1 247 5 is_stmt 1
  34              		.loc 1 247 17 is_stmt 0
  35 0014 9307C05D 		li	a5,1500
  36 0018 2314F502 		sh	a5,40(a0)
 248:C:/Users/stapi/OneDrive/Desktop/GD32VW553/GD32VW55X_Wifi_BLE_SDK/GD32VW55x_RELEASE_V1.0.2/MSDK/lwip/lwip-2.1.2/port\wifi_netif.c ****     net_if->linkoutput = net_if_output;
  37              		.loc 1 248 5 is_stmt 1
  38              		.loc 1 248 24 is_stmt 0
  39 001c B7070000 		lui	a5,%hi(net_if_output)
  40 0020 93870700 		addi	a5,a5,%lo(net_if_output)
  41 0024 1CCD     		sw	a5,24(a0)
 249:C:/Users/stapi/OneDrive/Desktop/GD32VW553/GD32VW55X_Wifi_BLE_SDK/GD32VW55x_RELEASE_V1.0.2/MSDK/lwip/lwip-2.1.2/port\wifi_netif.c **** #if LWIP_IPV6
 250:C:/Users/stapi/OneDrive/Desktop/GD32VW553/GD32VW55X_Wifi_BLE_SDK/GD32VW55x_RELEASE_V1.0.2/MSDK/lwip/lwip-2.1.2/port\wifi_netif.c ****     #if LWIP_IPV6_MLD
 251:C:/Users/stapi/OneDrive/Desktop/GD32VW553/GD32VW55X_Wifi_BLE_SDK/GD32VW55x_RELEASE_V1.0.2/MSDK/lwip/lwip-2.1.2/port\wifi_netif.c ****     net_if->flags |= NETIF_FLAG_MLD6;
 252:C:/Users/stapi/OneDrive/Desktop/GD32VW553/GD32VW55X_Wifi_BLE_SDK/GD32VW55x_RELEASE_V1.0.2/MSDK/lwip/lwip-2.1.2/port\wifi_netif.c ****     #endif
 253:C:/Users/stapi/OneDrive/Desktop/GD32VW553/GD32VW55X_Wifi_BLE_SDK/GD32VW55x_RELEASE_V1.0.2/MSDK/lwip/lwip-2.1.2/port\wifi_netif.c ****     net_if->output_ip6 = ethip6_output;
 254:C:/Users/stapi/OneDrive/Desktop/GD32VW553/GD32VW55X_Wifi_BLE_SDK/GD32VW55x_RELEASE_V1.0.2/MSDK/lwip/lwip-2.1.2/port\wifi_netif.c **** #endif
 255:C:/Users/stapi/OneDrive/Desktop/GD32VW553/GD32VW55X_Wifi_BLE_SDK/GD32VW55x_RELEASE_V1.0.2/MSDK/lwip/lwip-2.1.2/port\wifi_netif.c ****     return status;
  42              		.loc 1 255 5 is_stmt 1
 256:C:/Users/stapi/OneDrive/Desktop/GD32VW553/GD32VW55X_Wifi_BLE_SDK/GD32VW55x_RELEASE_V1.0.2/MSDK/lwip/lwip-2.1.2/port\wifi_netif.c **** }
  43              		.loc 1 256 1 is_stmt 0
  44 0026 0145     		li	a0,0
  45              	.LVL1:
  46 0028 8280     		ret
  47              		.cfi_endproc
  48              	.LFE17:
  50              		.section	.text.net_if_output,"ax",@progbits
  51              		.align	1
  53              	net_if_output:
  54              	.LFB16:
 152:C:/Users/stapi/OneDrive/Desktop/GD32VW553/GD32VW55X_Wifi_BLE_SDK/GD32VW55x_RELEASE_V1.0.2/MSDK/lwip/lwip-2.1.2/port\wifi_netif.c ****     err_t status = ERR_BUF;
  55              		.loc 1 152 1 is_stmt 1
  56              		.cfi_startproc
  57              	.LVL2:
  58 0000 17030000 		call	t0,__riscv_save_4
  58      E7020300 
  59              		.cfi_offset 19, -20
  60              		.cfi_offset 18, -16
  61              		.cfi_offset 9, -12
  62              		.cfi_offset 8, -8
  63              		.cfi_offset 1, -4
  64              		.cfi_def_cfa_offset 32
 153:C:/Users/stapi/OneDrive/Desktop/GD32VW553/GD32VW55X_Wifi_BLE_SDK/GD32VW55x_RELEASE_V1.0.2/MSDK/lwip/lwip-2.1.2/port\wifi_netif.c **** 
  65              		.loc 1 153 5
  66              	.LVL3:
 156:C:/Users/stapi/OneDrive/Desktop/GD32VW553/GD32VW55X_Wifi_BLE_SDK/GD32VW55x_RELEASE_V1.0.2/MSDK/lwip/lwip-2.1.2/port\wifi_netif.c **** 
  67              		.loc 1 156 5
 158:C:/Users/stapi/OneDrive/Desktop/GD32VW553/GD32VW55X_Wifi_BLE_SDK/GD32VW55x_RELEASE_V1.0.2/MSDK/lwip/lwip-2.1.2/port\wifi_netif.c ****     {
  68              		.loc 1 158 5
  69              	.LBB4:
  70              	.LBB5:
 103:C:/Users/stapi/OneDrive/Desktop/GD32VW553/GD32VW55X_Wifi_BLE_SDK/GD32VW55x_RELEASE_V1.0.2/MSDK/lwip/lwip-2.1.2/port\wifi_netif.c ****     uint8_t proto;
  71              		.loc 1 103 5
 104:C:/Users/stapi/OneDrive/Desktop/GD32VW553/GD32VW55X_Wifi_BLE_SDK/GD32VW55x_RELEASE_V1.0.2/MSDK/lwip/lwip-2.1.2/port\wifi_netif.c ****     uint16_t port;
  72              		.loc 1 104 5
 105:C:/Users/stapi/OneDrive/Desktop/GD32VW553/GD32VW55X_Wifi_BLE_SDK/GD32VW55x_RELEASE_V1.0.2/MSDK/lwip/lwip-2.1.2/port\wifi_netif.c **** 
  73              		.loc 1 105 5
 107:C:/Users/stapi/OneDrive/Desktop/GD32VW553/GD32VW55X_Wifi_BLE_SDK/GD32VW55x_RELEASE_V1.0.2/MSDK/lwip/lwip-2.1.2/port\wifi_netif.c ****         return 0;
  74              		.loc 1 107 5
 107:C:/Users/stapi/OneDrive/Desktop/GD32VW553/GD32VW55X_Wifi_BLE_SDK/GD32VW55x_RELEASE_V1.0.2/MSDK/lwip/lwip-2.1.2/port\wifi_netif.c ****         return 0;
  75              		.loc 1 107 8 is_stmt 0
  76 0008 83C7D500 		lbu	a5,13(a1)
  77              	.LBE5:
  78              	.LBE4:
 152:C:/Users/stapi/OneDrive/Desktop/GD32VW553/GD32VW55X_Wifi_BLE_SDK/GD32VW55x_RELEASE_V1.0.2/MSDK/lwip/lwip-2.1.2/port\wifi_netif.c ****     err_t status = ERR_BUF;
  79              		.loc 1 152 1
  80 000c 2A89     		mv	s2,a0
  81 000e 2E84     		mv	s0,a1
  82              	.LBB7:
  83              	.LBB6:
 107:C:/Users/stapi/OneDrive/Desktop/GD32VW553/GD32VW55X_Wifi_BLE_SDK/GD32VW55x_RELEASE_V1.0.2/MSDK/lwip/lwip-2.1.2/port\wifi_netif.c ****         return 0;
  84              		.loc 1 107 8
  85 0010 898B     		andi	a5,a5,2
  86 0012 FDE3     		bne	a5,zero,.L3
 110:C:/Users/stapi/OneDrive/Desktop/GD32VW553/GD32VW55X_Wifi_BLE_SDK/GD32VW55x_RELEASE_V1.0.2/MSDK/lwip/lwip-2.1.2/port\wifi_netif.c ****     // printf("eth_type = %x\r\n", eth_type);
  87              		.loc 1 110 5 is_stmt 1
 110:C:/Users/stapi/OneDrive/Desktop/GD32VW553/GD32VW55X_Wifi_BLE_SDK/GD32VW55x_RELEASE_V1.0.2/MSDK/lwip/lwip-2.1.2/port\wifi_netif.c ****     // printf("eth_type = %x\r\n", eth_type);
  88              		.loc 1 110 39 is_stmt 0
  89 0014 DC41     		lw	a5,4(a1)
  90              	.LVL4:
 115:C:/Users/stapi/OneDrive/Desktop/GD32VW553/GD32VW55X_Wifi_BLE_SDK/GD32VW55x_RELEASE_V1.0.2/MSDK/lwip/lwip-2.1.2/port\wifi_netif.c **** #endif
  91              		.loc 1 115 5 is_stmt 1
 110:C:/Users/stapi/OneDrive/Desktop/GD32VW553/GD32VW55X_Wifi_BLE_SDK/GD32VW55x_RELEASE_V1.0.2/MSDK/lwip/lwip-2.1.2/port\wifi_netif.c ****     // printf("eth_type = %x\r\n", eth_type);
  92              		.loc 1 110 14 is_stmt 0
  93 0016 03C7D700 		lbu	a4,13(a5)
  94 001a 83C6C700 		lbu	a3,12(a5)
  95 001e 2207     		slli	a4,a4,8
 115:C:/Users/stapi/OneDrive/Desktop/GD32VW553/GD32VW55X_Wifi_BLE_SDK/GD32VW55x_RELEASE_V1.0.2/MSDK/lwip/lwip-2.1.2/port\wifi_netif.c **** #endif
  96              		.loc 1 115 8
  97 0020 558F     		or	a4,a4,a3
  98 0022 A146     		li	a3,8
  99 0024 631AD70C 		bne	a4,a3,.L3
 124:C:/Users/stapi/OneDrive/Desktop/GD32VW553/GD32VW55X_Wifi_BLE_SDK/GD32VW55x_RELEASE_V1.0.2/MSDK/lwip/lwip-2.1.2/port\wifi_netif.c ****     // printf("proto = %x\r\n", proto);
 100              		.loc 1 124 9 is_stmt 1
 101              	.LVL5:
 126:C:/Users/stapi/OneDrive/Desktop/GD32VW553/GD32VW55X_Wifi_BLE_SDK/GD32VW55x_RELEASE_V1.0.2/MSDK/lwip/lwip-2.1.2/port\wifi_netif.c ****         return 0;
 102              		.loc 1 126 5
 126:C:/Users/stapi/OneDrive/Desktop/GD32VW553/GD32VW55X_Wifi_BLE_SDK/GD32VW55x_RELEASE_V1.0.2/MSDK/lwip/lwip-2.1.2/port\wifi_netif.c ****         return 0;
 103              		.loc 1 126 8 is_stmt 0
 104 0028 83C67701 		lbu	a3,23(a5)
 105 002c 4547     		li	a4,17
 106 002e 6395E60C 		bne	a3,a4,.L3
 134:C:/Users/stapi/OneDrive/Desktop/GD32VW553/GD32VW55X_Wifi_BLE_SDK/GD32VW55x_RELEASE_V1.0.2/MSDK/lwip/lwip-2.1.2/port\wifi_netif.c ****     // printf("port = %x\r\n", lwip_ntohs(port));
 107              		.loc 1 134 9 is_stmt 1
 134:C:/Users/stapi/OneDrive/Desktop/GD32VW553/GD32VW55X_Wifi_BLE_SDK/GD32VW55x_RELEASE_V1.0.2/MSDK/lwip/lwip-2.1.2/port\wifi_netif.c ****     // printf("port = %x\r\n", lwip_ntohs(port));
 108              		.loc 1 134 14 is_stmt 0
 109 0032 83C43702 		lbu	s1,35(a5)
 110 0036 03C72702 		lbu	a4,34(a5)
 111 003a A204     		slli	s1,s1,8
 112 003c D98C     		or	s1,s1,a4
 113              	.LVL6:
 136:C:/Users/stapi/OneDrive/Desktop/GD32VW553/GD32VW55X_Wifi_BLE_SDK/GD32VW55x_RELEASE_V1.0.2/MSDK/lwip/lwip-2.1.2/port\wifi_netif.c ****         return 0;
 114              		.loc 1 136 5 is_stmt 1
 136:C:/Users/stapi/OneDrive/Desktop/GD32VW553/GD32VW55X_Wifi_BLE_SDK/GD32VW55x_RELEASE_V1.0.2/MSDK/lwip/lwip-2.1.2/port\wifi_netif.c ****         return 0;
 115              		.loc 1 136 9 is_stmt 0
 116 003e 2685     		mv	a0,s1
 117              	.LVL7:
 118 0040 97000000 		call	lwip_htons
 118      E7800000 
 119              	.LVL8:
 136:C:/Users/stapi/OneDrive/Desktop/GD32VW553/GD32VW55X_Wifi_BLE_SDK/GD32VW55x_RELEASE_V1.0.2/MSDK/lwip/lwip-2.1.2/port\wifi_netif.c ****         return 0;
 120              		.loc 1 136 8
 121 0048 93073004 		li	a5,67
 122 004c 6306F50A 		beq	a0,a5,.L3
 136:C:/Users/stapi/OneDrive/Desktop/GD32VW553/GD32VW55X_Wifi_BLE_SDK/GD32VW55x_RELEASE_V1.0.2/MSDK/lwip/lwip-2.1.2/port\wifi_netif.c ****         return 0;
 123              		.loc 1 136 37
 124 0050 2685     		mv	a0,s1
 125 0052 97000000 		call	lwip_htons
 125      E7800000 
 126              	.LVL9:
 136:C:/Users/stapi/OneDrive/Desktop/GD32VW553/GD32VW55X_Wifi_BLE_SDK/GD32VW55x_RELEASE_V1.0.2/MSDK/lwip/lwip-2.1.2/port\wifi_netif.c ****         return 0;
 127              		.loc 1 136 34
 128 005a 93074004 		li	a5,68
 129 005e 630DF508 		beq	a0,a5,.L3
 130              	.LVL10:
 131              	.LBE6:
 132              	.LBE7:
 160:C:/Users/stapi/OneDrive/Desktop/GD32VW553/GD32VW55X_Wifi_BLE_SDK/GD32VW55x_RELEASE_V1.0.2/MSDK/lwip/lwip-2.1.2/port\wifi_netif.c ****             return (status);
 133              		.loc 1 160 9 is_stmt 1
 160:C:/Users/stapi/OneDrive/Desktop/GD32VW553/GD32VW55X_Wifi_BLE_SDK/GD32VW55x_RELEASE_V1.0.2/MSDK/lwip/lwip-2.1.2/port\wifi_netif.c ****             return (status);
 134              		.loc 1 160 12 is_stmt 0
 135 0062 83471903 		lbu	a5,49(s2)
 136 0066 858B     		andi	a5,a5,1
 137 0068 99E3     		bne	a5,zero,.L4
 138              	.LVL11:
 139              	.L22:
 153:C:/Users/stapi/OneDrive/Desktop/GD32VW553/GD32VW55X_Wifi_BLE_SDK/GD32VW55x_RELEASE_V1.0.2/MSDK/lwip/lwip-2.1.2/port\wifi_netif.c **** 
 140              		.loc 1 153 11
 141 006a 7955     		li	a0,-2
 142 006c 89A0     		j	.L5
 143              	.LVL12:
 144              	.L4:
 164:C:/Users/stapi/OneDrive/Desktop/GD32VW553/GD32VW55X_Wifi_BLE_SDK/GD32VW55x_RELEASE_V1.0.2/MSDK/lwip/lwip-2.1.2/port\wifi_netif.c ****         if (pbuf_head_new != NULL)
 145              		.loc 1 164 9 is_stmt 1
 164:C:/Users/stapi/OneDrive/Desktop/GD32VW553/GD32VW55X_Wifi_BLE_SDK/GD32VW55x_RELEASE_V1.0.2/MSDK/lwip/lwip-2.1.2/port\wifi_netif.c ****         if (pbuf_head_new != NULL)
 146              		.loc 1 164 25 is_stmt 0
 147 006e 8355A400 		lhu	a1,10(s0)
 148 0072 13060028 		li	a2,640
 149 0076 1305C015 		li	a0,348
 150 007a 97000000 		call	pbuf_alloc
 150      E7800000 
 151              	.LVL13:
 152 0082 AA84     		mv	s1,a0
 153              	.LVL14:
 165:C:/Users/stapi/OneDrive/Desktop/GD32VW553/GD32VW55X_Wifi_BLE_SDK/GD32VW55x_RELEASE_V1.0.2/MSDK/lwip/lwip-2.1.2/port\wifi_netif.c ****         {
 154              		.loc 1 165 9 is_stmt 1
 165:C:/Users/stapi/OneDrive/Desktop/GD32VW553/GD32VW55X_Wifi_BLE_SDK/GD32VW55x_RELEASE_V1.0.2/MSDK/lwip/lwip-2.1.2/port\wifi_netif.c ****         {
 155              		.loc 1 165 12 is_stmt 0
 156 0084 7DD1     		beq	a0,zero,.L22
 167:C:/Users/stapi/OneDrive/Desktop/GD32VW553/GD32VW55X_Wifi_BLE_SDK/GD32VW55x_RELEASE_V1.0.2/MSDK/lwip/lwip-2.1.2/port\wifi_netif.c ****             p = p_buf;
 157              		.loc 1 167 13 is_stmt 1
 158 0086 0356A400 		lhu	a2,10(s0)
 159 008a 4C40     		lw	a1,4(s0)
 160 008c 4841     		lw	a0,4(a0)
 161 008e 97000000 		call	sys_memcpy
 161      E7800000 
 162              	.LVL15:
 168:C:/Users/stapi/OneDrive/Desktop/GD32VW553/GD32VW55X_Wifi_BLE_SDK/GD32VW55x_RELEASE_V1.0.2/MSDK/lwip/lwip-2.1.2/port\wifi_netif.c ****             while (p->next != NULL)
 163              		.loc 1 168 13
 169:C:/Users/stapi/OneDrive/Desktop/GD32VW553/GD32VW55X_Wifi_BLE_SDK/GD32VW55x_RELEASE_V1.0.2/MSDK/lwip/lwip-2.1.2/port\wifi_netif.c ****             {
 164              		.loc 1 169 13
 165              	.L7:
 169:C:/Users/stapi/OneDrive/Desktop/GD32VW553/GD32VW55X_Wifi_BLE_SDK/GD32VW55x_RELEASE_V1.0.2/MSDK/lwip/lwip-2.1.2/port\wifi_netif.c ****             {
 166              		.loc 1 169 19
 169:C:/Users/stapi/OneDrive/Desktop/GD32VW553/GD32VW55X_Wifi_BLE_SDK/GD32VW55x_RELEASE_V1.0.2/MSDK/lwip/lwip-2.1.2/port\wifi_netif.c ****             {
 167              		.loc 1 169 21 is_stmt 0
 168 0096 0040     		lw	s0,0(s0)
 169              	.LVL16:
 169:C:/Users/stapi/OneDrive/Desktop/GD32VW553/GD32VW55X_Wifi_BLE_SDK/GD32VW55x_RELEASE_V1.0.2/MSDK/lwip/lwip-2.1.2/port\wifi_netif.c ****             {
 170              		.loc 1 169 19
 171 0098 19EC     		bne	s0,zero,.L9
 187:C:/Users/stapi/OneDrive/Desktop/GD32VW553/GD32VW55X_Wifi_BLE_SDK/GD32VW55x_RELEASE_V1.0.2/MSDK/lwip/lwip-2.1.2/port\wifi_netif.c ****         {
 172              		.loc 1 187 9 is_stmt 1
 187:C:/Users/stapi/OneDrive/Desktop/GD32VW553/GD32VW55X_Wifi_BLE_SDK/GD32VW55x_RELEASE_V1.0.2/MSDK/lwip/lwip-2.1.2/port\wifi_netif.c ****         {
 173              		.loc 1 187 13 is_stmt 0
 174 009a 8146     		li	a3,0
 175 009c 0146     		li	a2,0
 176 009e A685     		mv	a1,s1
 177 00a0 4A85     		mv	a0,s2
 178 00a2 97000000 		call	macif_tx_start
 178      E7800000 
 179              	.LVL17:
 187:C:/Users/stapi/OneDrive/Desktop/GD32VW553/GD32VW55X_Wifi_BLE_SDK/GD32VW55x_RELEASE_V1.0.2/MSDK/lwip/lwip-2.1.2/port\wifi_netif.c ****         {
 180              		.loc 1 187 12
 181 00aa 15E1     		bne	a0,zero,.L10
 182              	.LVL18:
 183              	.L12:
 192:C:/Users/stapi/OneDrive/Desktop/GD32VW553/GD32VW55X_Wifi_BLE_SDK/GD32VW55x_RELEASE_V1.0.2/MSDK/lwip/lwip-2.1.2/port\wifi_netif.c ****     }
 184              		.loc 1 192 16
 185 00ac 0145     		li	a0,0
 186              	.L5:
 187              	.LVL19:
 215:C:/Users/stapi/OneDrive/Desktop/GD32VW553/GD32VW55X_Wifi_BLE_SDK/GD32VW55x_RELEASE_V1.0.2/MSDK/lwip/lwip-2.1.2/port\wifi_netif.c **** 
 188              		.loc 1 215 1
 189 00ae 17030000 		tail	__riscv_restore_4
 189      67000300 
 190              		.cfi_remember_state
 191              		.cfi_restore 19
 192              		.cfi_restore 18
 193              		.cfi_restore 9
 194              		.cfi_restore 8
 195              		.cfi_restore 1
 196              		.cfi_def_cfa_offset 0
 197              	.LVL20:
 198              	.L9:
 199              		.cfi_restore_state
 171:C:/Users/stapi/OneDrive/Desktop/GD32VW553/GD32VW55X_Wifi_BLE_SDK/GD32VW55x_RELEASE_V1.0.2/MSDK/lwip/lwip-2.1.2/port\wifi_netif.c ****                 pbuf_new = pbuf_alloc(PBUF_RAW_TX, p->len, PBUF_RAM);
 200              		.loc 1 171 17 is_stmt 1
 172:C:/Users/stapi/OneDrive/Desktop/GD32VW553/GD32VW55X_Wifi_BLE_SDK/GD32VW55x_RELEASE_V1.0.2/MSDK/lwip/lwip-2.1.2/port\wifi_netif.c ****                 if (pbuf_new == NULL)
 201              		.loc 1 172 17
 172:C:/Users/stapi/OneDrive/Desktop/GD32VW553/GD32VW55X_Wifi_BLE_SDK/GD32VW55x_RELEASE_V1.0.2/MSDK/lwip/lwip-2.1.2/port\wifi_netif.c ****                 if (pbuf_new == NULL)
 202              		.loc 1 172 28 is_stmt 0
 203 00b6 8355A400 		lhu	a1,10(s0)
 204 00ba 13060028 		li	a2,640
 205 00be 1305C015 		li	a0,348
 206 00c2 97000000 		call	pbuf_alloc
 206      E7800000 
 207              	.LVL21:
 208 00ca AA89     		mv	s3,a0
 209              	.LVL22:
 173:C:/Users/stapi/OneDrive/Desktop/GD32VW553/GD32VW55X_Wifi_BLE_SDK/GD32VW55x_RELEASE_V1.0.2/MSDK/lwip/lwip-2.1.2/port\wifi_netif.c ****                 {
 210              		.loc 1 173 17 is_stmt 1
 173:C:/Users/stapi/OneDrive/Desktop/GD32VW553/GD32VW55X_Wifi_BLE_SDK/GD32VW55x_RELEASE_V1.0.2/MSDK/lwip/lwip-2.1.2/port\wifi_netif.c ****                 {
 211              		.loc 1 173 20 is_stmt 0
 212 00cc 19E5     		bne	a0,zero,.L8
 213              	.LVL23:
 214              	.L10:
 189:C:/Users/stapi/OneDrive/Desktop/GD32VW553/GD32VW55X_Wifi_BLE_SDK/GD32VW55x_RELEASE_V1.0.2/MSDK/lwip/lwip-2.1.2/port\wifi_netif.c ****             return (status);
 215              		.loc 1 189 13 is_stmt 1
 216 00ce 2685     		mv	a0,s1
 217              	.LVL24:
 218              	.L21:
 209:C:/Users/stapi/OneDrive/Desktop/GD32VW553/GD32VW55X_Wifi_BLE_SDK/GD32VW55x_RELEASE_V1.0.2/MSDK/lwip/lwip-2.1.2/port\wifi_netif.c ****         }
 219              		.loc 1 209 13 is_stmt 0
 220 00d0 97000000 		call	pbuf_free
 220      E7800000 
 221              	.LVL25:
 222 00d8 49BF     		j	.L22
 223              	.LVL26:
 224              	.L8:
 178:C:/Users/stapi/OneDrive/Desktop/GD32VW553/GD32VW55X_Wifi_BLE_SDK/GD32VW55x_RELEASE_V1.0.2/MSDK/lwip/lwip-2.1.2/port\wifi_netif.c ****                 pbuf_cat(pbuf_head_new, pbuf_new);
 225              		.loc 1 178 17 is_stmt 1
 226 00da 4C40     		lw	a1,4(s0)
 227 00dc 0356A400 		lhu	a2,10(s0)
 228 00e0 4841     		lw	a0,4(a0)
 229              	.LVL27:
 230 00e2 97000000 		call	sys_memcpy
 230      E7800000 
 231              	.LVL28:
 179:C:/Users/stapi/OneDrive/Desktop/GD32VW553/GD32VW55X_Wifi_BLE_SDK/GD32VW55x_RELEASE_V1.0.2/MSDK/lwip/lwip-2.1.2/port\wifi_netif.c ****             }
 232              		.loc 1 179 17
 233 00ea CE85     		mv	a1,s3
 234 00ec 2685     		mv	a0,s1
 235 00ee 97000000 		call	pbuf_cat
 235      E7800000 
 236              	.LVL29:
 237 00f6 45B7     		j	.L7
 238              	.LVL30:
 239              	.L3:
 199:C:/Users/stapi/OneDrive/Desktop/GD32VW553/GD32VW55X_Wifi_BLE_SDK/GD32VW55x_RELEASE_V1.0.2/MSDK/lwip/lwip-2.1.2/port\wifi_netif.c **** 
 240              		.loc 1 199 9
 241 00f8 2285     		mv	a0,s0
 242 00fa 97000000 		call	pbuf_ref
 242      E7800000 
 243              	.LVL31:
 202:C:/Users/stapi/OneDrive/Desktop/GD32VW553/GD32VW55X_Wifi_BLE_SDK/GD32VW55x_RELEASE_V1.0.2/MSDK/lwip/lwip-2.1.2/port\wifi_netif.c ****         {
 244              		.loc 1 202 9
 202:C:/Users/stapi/OneDrive/Desktop/GD32VW553/GD32VW55X_Wifi_BLE_SDK/GD32VW55x_RELEASE_V1.0.2/MSDK/lwip/lwip-2.1.2/port\wifi_netif.c ****         {
 245              		.loc 1 202 33 is_stmt 0
 246 0102 83471903 		lbu	a5,49(s2)
 202:C:/Users/stapi/OneDrive/Desktop/GD32VW553/GD32VW55X_Wifi_BLE_SDK/GD32VW55x_RELEASE_V1.0.2/MSDK/lwip/lwip-2.1.2/port\wifi_netif.c ****         {
 247              		.loc 1 202 12
 248 0106 858B     		andi	a5,a5,1
 249 0108 99E3     		bne	a5,zero,.L11
 250              	.L13:
 209:C:/Users/stapi/OneDrive/Desktop/GD32VW553/GD32VW55X_Wifi_BLE_SDK/GD32VW55x_RELEASE_V1.0.2/MSDK/lwip/lwip-2.1.2/port\wifi_netif.c ****         }
 251              		.loc 1 209 13 is_stmt 1
 252 010a 2285     		mv	a0,s0
 253 010c D1B7     		j	.L21
 254              	.L11:
 202:C:/Users/stapi/OneDrive/Desktop/GD32VW553/GD32VW55X_Wifi_BLE_SDK/GD32VW55x_RELEASE_V1.0.2/MSDK/lwip/lwip-2.1.2/port\wifi_netif.c ****         {
 255              		.loc 1 202 36 is_stmt 0 discriminator 1
 256 010e 8146     		li	a3,0
 257 0110 0146     		li	a2,0
 258 0112 A285     		mv	a1,s0
 259 0114 4A85     		mv	a0,s2
 260 0116 97000000 		call	macif_tx_start
 260      E7800000 
 261              	.LVL32:
 202:C:/Users/stapi/OneDrive/Desktop/GD32VW553/GD32VW55X_Wifi_BLE_SDK/GD32VW55x_RELEASE_V1.0.2/MSDK/lwip/lwip-2.1.2/port\wifi_netif.c ****         {
 262              		.loc 1 202 33 discriminator 1
 263 011e 59D5     		beq	a0,zero,.L12
 264 0120 EDB7     		j	.L13
 265              		.cfi_endproc
 266              	.LFE16:
 268              		.section	.text.net_l2_send_cfm,"ax",@progbits
 269              		.align	1
 271              	net_l2_send_cfm:
 272              	.LFB38:
 257:C:/Users/stapi/OneDrive/Desktop/GD32VW553/GD32VW55X_Wifi_BLE_SDK/GD32VW55x_RELEASE_V1.0.2/MSDK/lwip/lwip-2.1.2/port\wifi_netif.c **** 
 258:C:/Users/stapi/OneDrive/Desktop/GD32VW553/GD32VW55X_Wifi_BLE_SDK/GD32VW55x_RELEASE_V1.0.2/MSDK/lwip/lwip-2.1.2/port\wifi_netif.c **** /*!
 259:C:/Users/stapi/OneDrive/Desktop/GD32VW553/GD32VW55X_Wifi_BLE_SDK/GD32VW55x_RELEASE_V1.0.2/MSDK/lwip/lwip-2.1.2/port\wifi_netif.c ****     \brief      Call the checksum computation function of the TCP/IP stack
 260:C:/Users/stapi/OneDrive/Desktop/GD32VW553/GD32VW55X_Wifi_BLE_SDK/GD32VW55x_RELEASE_V1.0.2/MSDK/lwip/lwip-2.1.2/port\wifi_netif.c ****     \param[in]  dataptr: Pointer to the data buffer on which the checksum is computed
 261:C:/Users/stapi/OneDrive/Desktop/GD32VW553/GD32VW55X_Wifi_BLE_SDK/GD32VW55x_RELEASE_V1.0.2/MSDK/lwip/lwip-2.1.2/port\wifi_netif.c ****     \param[in]  len: Length of the data buffer
 262:C:/Users/stapi/OneDrive/Desktop/GD32VW553/GD32VW55X_Wifi_BLE_SDK/GD32VW55x_RELEASE_V1.0.2/MSDK/lwip/lwip-2.1.2/port\wifi_netif.c ****     \param[out] none
 263:C:/Users/stapi/OneDrive/Desktop/GD32VW553/GD32VW55X_Wifi_BLE_SDK/GD32VW55x_RELEASE_V1.0.2/MSDK/lwip/lwip-2.1.2/port\wifi_netif.c ****     \retval     The computed checksum
 264:C:/Users/stapi/OneDrive/Desktop/GD32VW553/GD32VW55X_Wifi_BLE_SDK/GD32VW55x_RELEASE_V1.0.2/MSDK/lwip/lwip-2.1.2/port\wifi_netif.c **** */
 265:C:/Users/stapi/OneDrive/Desktop/GD32VW553/GD32VW55X_Wifi_BLE_SDK/GD32VW55x_RELEASE_V1.0.2/MSDK/lwip/lwip-2.1.2/port\wifi_netif.c **** uint16_t net_ip_chksum(const void *dataptr, int len)
 266:C:/Users/stapi/OneDrive/Desktop/GD32VW553/GD32VW55X_Wifi_BLE_SDK/GD32VW55x_RELEASE_V1.0.2/MSDK/lwip/lwip-2.1.2/port\wifi_netif.c **** {
 267:C:/Users/stapi/OneDrive/Desktop/GD32VW553/GD32VW55X_Wifi_BLE_SDK/GD32VW55x_RELEASE_V1.0.2/MSDK/lwip/lwip-2.1.2/port\wifi_netif.c ****     // Simply call the LwIP function
 268:C:/Users/stapi/OneDrive/Desktop/GD32VW553/GD32VW55X_Wifi_BLE_SDK/GD32VW55x_RELEASE_V1.0.2/MSDK/lwip/lwip-2.1.2/port\wifi_netif.c ****     return lwip_standard_chksum(dataptr, len);
 269:C:/Users/stapi/OneDrive/Desktop/GD32VW553/GD32VW55X_Wifi_BLE_SDK/GD32VW55x_RELEASE_V1.0.2/MSDK/lwip/lwip-2.1.2/port\wifi_netif.c **** }
 270:C:/Users/stapi/OneDrive/Desktop/GD32VW553/GD32VW55X_Wifi_BLE_SDK/GD32VW55x_RELEASE_V1.0.2/MSDK/lwip/lwip-2.1.2/port\wifi_netif.c **** 
 271:C:/Users/stapi/OneDrive/Desktop/GD32VW553/GD32VW55X_Wifi_BLE_SDK/GD32VW55x_RELEASE_V1.0.2/MSDK/lwip/lwip-2.1.2/port\wifi_netif.c **** /*!
 272:C:/Users/stapi/OneDrive/Desktop/GD32VW553/GD32VW55X_Wifi_BLE_SDK/GD32VW55x_RELEASE_V1.0.2/MSDK/lwip/lwip-2.1.2/port\wifi_netif.c ****     \brief      Add a network interface.
 273:C:/Users/stapi/OneDrive/Desktop/GD32VW553/GD32VW55X_Wifi_BLE_SDK/GD32VW55x_RELEASE_V1.0.2/MSDK/lwip/lwip-2.1.2/port\wifi_netif.c ****                 This function must initialize the provided struct netif structure.
 274:C:/Users/stapi/OneDrive/Desktop/GD32VW553/GD32VW55X_Wifi_BLE_SDK/GD32VW55x_RELEASE_V1.0.2/MSDK/lwip/lwip-2.1.2/port\wifi_netif.c ****                 The private VIF structure must be the one returned by @ref net_if_vif_info
 275:C:/Users/stapi/OneDrive/Desktop/GD32VW553/GD32VW55X_Wifi_BLE_SDK/GD32VW55x_RELEASE_V1.0.2/MSDK/lwip/lwip-2.1.2/port\wifi_netif.c ****     \param[in]  net_if: Pointer to the net_if structure to add
 276:C:/Users/stapi/OneDrive/Desktop/GD32VW553/GD32VW55X_Wifi_BLE_SDK/GD32VW55x_RELEASE_V1.0.2/MSDK/lwip/lwip-2.1.2/port\wifi_netif.c ****     \param[in]  mac_addr: MAC address of the interface
 277:C:/Users/stapi/OneDrive/Desktop/GD32VW553/GD32VW55X_Wifi_BLE_SDK/GD32VW55x_RELEASE_V1.0.2/MSDK/lwip/lwip-2.1.2/port\wifi_netif.c ****     \param[in]  ipaddr: IPv4 address of the interface (NULL if not available)
 278:C:/Users/stapi/OneDrive/Desktop/GD32VW553/GD32VW55X_Wifi_BLE_SDK/GD32VW55x_RELEASE_V1.0.2/MSDK/lwip/lwip-2.1.2/port\wifi_netif.c ****     \param[in]  netmask: Net mask of the interface (NULL if not available)
 279:C:/Users/stapi/OneDrive/Desktop/GD32VW553/GD32VW55X_Wifi_BLE_SDK/GD32VW55x_RELEASE_V1.0.2/MSDK/lwip/lwip-2.1.2/port\wifi_netif.c ****     \param[in]  gw: Gateway address of the interface (NULL if not available)
 280:C:/Users/stapi/OneDrive/Desktop/GD32VW553/GD32VW55X_Wifi_BLE_SDK/GD32VW55x_RELEASE_V1.0.2/MSDK/lwip/lwip-2.1.2/port\wifi_netif.c ****     \param[in]  vif_priv: Pointer to the VIF private structure
 281:C:/Users/stapi/OneDrive/Desktop/GD32VW553/GD32VW55X_Wifi_BLE_SDK/GD32VW55x_RELEASE_V1.0.2/MSDK/lwip/lwip-2.1.2/port\wifi_netif.c ****     \param[out] none
 282:C:/Users/stapi/OneDrive/Desktop/GD32VW553/GD32VW55X_Wifi_BLE_SDK/GD32VW55x_RELEASE_V1.0.2/MSDK/lwip/lwip-2.1.2/port\wifi_netif.c ****     \retval     0 on success and != 0 if error occurred
 283:C:/Users/stapi/OneDrive/Desktop/GD32VW553/GD32VW55X_Wifi_BLE_SDK/GD32VW55x_RELEASE_V1.0.2/MSDK/lwip/lwip-2.1.2/port\wifi_netif.c **** */
 284:C:/Users/stapi/OneDrive/Desktop/GD32VW553/GD32VW55X_Wifi_BLE_SDK/GD32VW55x_RELEASE_V1.0.2/MSDK/lwip/lwip-2.1.2/port\wifi_netif.c **** int net_if_add(void *net_if,
 285:C:/Users/stapi/OneDrive/Desktop/GD32VW553/GD32VW55X_Wifi_BLE_SDK/GD32VW55x_RELEASE_V1.0.2/MSDK/lwip/lwip-2.1.2/port\wifi_netif.c ****                const uint8_t *mac_addr,
 286:C:/Users/stapi/OneDrive/Desktop/GD32VW553/GD32VW55X_Wifi_BLE_SDK/GD32VW55x_RELEASE_V1.0.2/MSDK/lwip/lwip-2.1.2/port\wifi_netif.c ****                const uint32_t *ipaddr,
 287:C:/Users/stapi/OneDrive/Desktop/GD32VW553/GD32VW55X_Wifi_BLE_SDK/GD32VW55x_RELEASE_V1.0.2/MSDK/lwip/lwip-2.1.2/port\wifi_netif.c ****                const uint32_t *netmask,
 288:C:/Users/stapi/OneDrive/Desktop/GD32VW553/GD32VW55X_Wifi_BLE_SDK/GD32VW55x_RELEASE_V1.0.2/MSDK/lwip/lwip-2.1.2/port\wifi_netif.c ****                const uint32_t *gw,
 289:C:/Users/stapi/OneDrive/Desktop/GD32VW553/GD32VW55X_Wifi_BLE_SDK/GD32VW55x_RELEASE_V1.0.2/MSDK/lwip/lwip-2.1.2/port\wifi_netif.c ****                void *vif)
 290:C:/Users/stapi/OneDrive/Desktop/GD32VW553/GD32VW55X_Wifi_BLE_SDK/GD32VW55x_RELEASE_V1.0.2/MSDK/lwip/lwip-2.1.2/port\wifi_netif.c **** {
 291:C:/Users/stapi/OneDrive/Desktop/GD32VW553/GD32VW55X_Wifi_BLE_SDK/GD32VW55x_RELEASE_V1.0.2/MSDK/lwip/lwip-2.1.2/port\wifi_netif.c ****     err_t status;
 292:C:/Users/stapi/OneDrive/Desktop/GD32VW553/GD32VW55X_Wifi_BLE_SDK/GD32VW55x_RELEASE_V1.0.2/MSDK/lwip/lwip-2.1.2/port\wifi_netif.c ****     struct netif *netif = (struct netif *)net_if;
 293:C:/Users/stapi/OneDrive/Desktop/GD32VW553/GD32VW55X_Wifi_BLE_SDK/GD32VW55x_RELEASE_V1.0.2/MSDK/lwip/lwip-2.1.2/port\wifi_netif.c **** 
 294:C:/Users/stapi/OneDrive/Desktop/GD32VW553/GD32VW55X_Wifi_BLE_SDK/GD32VW55x_RELEASE_V1.0.2/MSDK/lwip/lwip-2.1.2/port\wifi_netif.c ****     status = netifapi_netif_add(netif,
 295:C:/Users/stapi/OneDrive/Desktop/GD32VW553/GD32VW55X_Wifi_BLE_SDK/GD32VW55x_RELEASE_V1.0.2/MSDK/lwip/lwip-2.1.2/port\wifi_netif.c ****                                (const ip4_addr_t *)ipaddr,
 296:C:/Users/stapi/OneDrive/Desktop/GD32VW553/GD32VW55X_Wifi_BLE_SDK/GD32VW55x_RELEASE_V1.0.2/MSDK/lwip/lwip-2.1.2/port\wifi_netif.c ****                                (const ip4_addr_t *)netmask,
 297:C:/Users/stapi/OneDrive/Desktop/GD32VW553/GD32VW55X_Wifi_BLE_SDK/GD32VW55x_RELEASE_V1.0.2/MSDK/lwip/lwip-2.1.2/port\wifi_netif.c ****                                (const ip4_addr_t *)gw,
 298:C:/Users/stapi/OneDrive/Desktop/GD32VW553/GD32VW55X_Wifi_BLE_SDK/GD32VW55x_RELEASE_V1.0.2/MSDK/lwip/lwip-2.1.2/port\wifi_netif.c ****                                vif,
 299:C:/Users/stapi/OneDrive/Desktop/GD32VW553/GD32VW55X_Wifi_BLE_SDK/GD32VW55x_RELEASE_V1.0.2/MSDK/lwip/lwip-2.1.2/port\wifi_netif.c ****                                net_if_init,
 300:C:/Users/stapi/OneDrive/Desktop/GD32VW553/GD32VW55X_Wifi_BLE_SDK/GD32VW55x_RELEASE_V1.0.2/MSDK/lwip/lwip-2.1.2/port\wifi_netif.c ****                                tcpip_input);
 301:C:/Users/stapi/OneDrive/Desktop/GD32VW553/GD32VW55X_Wifi_BLE_SDK/GD32VW55x_RELEASE_V1.0.2/MSDK/lwip/lwip-2.1.2/port\wifi_netif.c **** 
 302:C:/Users/stapi/OneDrive/Desktop/GD32VW553/GD32VW55X_Wifi_BLE_SDK/GD32VW55x_RELEASE_V1.0.2/MSDK/lwip/lwip-2.1.2/port\wifi_netif.c ****     // Init MAC addr here as we can't do it in net_if_init (without dereferencing vif)
 303:C:/Users/stapi/OneDrive/Desktop/GD32VW553/GD32VW55X_Wifi_BLE_SDK/GD32VW55x_RELEASE_V1.0.2/MSDK/lwip/lwip-2.1.2/port\wifi_netif.c ****     sys_memcpy(netif->hwaddr, mac_addr, ETHARP_HWADDR_LEN);
 304:C:/Users/stapi/OneDrive/Desktop/GD32VW553/GD32VW55X_Wifi_BLE_SDK/GD32VW55x_RELEASE_V1.0.2/MSDK/lwip/lwip-2.1.2/port\wifi_netif.c **** #if LWIP_IPV6
 305:C:/Users/stapi/OneDrive/Desktop/GD32VW553/GD32VW55X_Wifi_BLE_SDK/GD32VW55x_RELEASE_V1.0.2/MSDK/lwip/lwip-2.1.2/port\wifi_netif.c ****     netif_create_ip6_linklocal_address(netif, 1);
 306:C:/Users/stapi/OneDrive/Desktop/GD32VW553/GD32VW55X_Wifi_BLE_SDK/GD32VW55x_RELEASE_V1.0.2/MSDK/lwip/lwip-2.1.2/port\wifi_netif.c ****     #if LWIP_IPV6_DHCP6
 307:C:/Users/stapi/OneDrive/Desktop/GD32VW553/GD32VW55X_Wifi_BLE_SDK/GD32VW55x_RELEASE_V1.0.2/MSDK/lwip/lwip-2.1.2/port\wifi_netif.c ****     dhcp6_enable_stateless(netif);
 308:C:/Users/stapi/OneDrive/Desktop/GD32VW553/GD32VW55X_Wifi_BLE_SDK/GD32VW55x_RELEASE_V1.0.2/MSDK/lwip/lwip-2.1.2/port\wifi_netif.c ****     #endif
 309:C:/Users/stapi/OneDrive/Desktop/GD32VW553/GD32VW55X_Wifi_BLE_SDK/GD32VW55x_RELEASE_V1.0.2/MSDK/lwip/lwip-2.1.2/port\wifi_netif.c **** #endif
 310:C:/Users/stapi/OneDrive/Desktop/GD32VW553/GD32VW55X_Wifi_BLE_SDK/GD32VW55x_RELEASE_V1.0.2/MSDK/lwip/lwip-2.1.2/port\wifi_netif.c ****     return (status == ERR_OK ? 0 : -1);
 311:C:/Users/stapi/OneDrive/Desktop/GD32VW553/GD32VW55X_Wifi_BLE_SDK/GD32VW55x_RELEASE_V1.0.2/MSDK/lwip/lwip-2.1.2/port\wifi_netif.c **** }
 312:C:/Users/stapi/OneDrive/Desktop/GD32VW553/GD32VW55X_Wifi_BLE_SDK/GD32VW55x_RELEASE_V1.0.2/MSDK/lwip/lwip-2.1.2/port\wifi_netif.c **** 
 313:C:/Users/stapi/OneDrive/Desktop/GD32VW553/GD32VW55X_Wifi_BLE_SDK/GD32VW55x_RELEASE_V1.0.2/MSDK/lwip/lwip-2.1.2/port\wifi_netif.c **** /*!
 314:C:/Users/stapi/OneDrive/Desktop/GD32VW553/GD32VW55X_Wifi_BLE_SDK/GD32VW55x_RELEASE_V1.0.2/MSDK/lwip/lwip-2.1.2/port\wifi_netif.c ****     \brief      Remove a network interface
 315:C:/Users/stapi/OneDrive/Desktop/GD32VW553/GD32VW55X_Wifi_BLE_SDK/GD32VW55x_RELEASE_V1.0.2/MSDK/lwip/lwip-2.1.2/port\wifi_netif.c ****     \param[in]  net_if: Pointer to the net_if structure to remove
 316:C:/Users/stapi/OneDrive/Desktop/GD32VW553/GD32VW55X_Wifi_BLE_SDK/GD32VW55x_RELEASE_V1.0.2/MSDK/lwip/lwip-2.1.2/port\wifi_netif.c ****     \param[out] none
 317:C:/Users/stapi/OneDrive/Desktop/GD32VW553/GD32VW55X_Wifi_BLE_SDK/GD32VW55x_RELEASE_V1.0.2/MSDK/lwip/lwip-2.1.2/port\wifi_netif.c ****     \retval     0 on success and != 0 if error occurred
 318:C:/Users/stapi/OneDrive/Desktop/GD32VW553/GD32VW55X_Wifi_BLE_SDK/GD32VW55x_RELEASE_V1.0.2/MSDK/lwip/lwip-2.1.2/port\wifi_netif.c **** */
 319:C:/Users/stapi/OneDrive/Desktop/GD32VW553/GD32VW55X_Wifi_BLE_SDK/GD32VW55x_RELEASE_V1.0.2/MSDK/lwip/lwip-2.1.2/port\wifi_netif.c **** int net_if_remove(void *net_if)
 320:C:/Users/stapi/OneDrive/Desktop/GD32VW553/GD32VW55X_Wifi_BLE_SDK/GD32VW55x_RELEASE_V1.0.2/MSDK/lwip/lwip-2.1.2/port\wifi_netif.c **** {
 321:C:/Users/stapi/OneDrive/Desktop/GD32VW553/GD32VW55X_Wifi_BLE_SDK/GD32VW55x_RELEASE_V1.0.2/MSDK/lwip/lwip-2.1.2/port\wifi_netif.c ****     err_t status;
 322:C:/Users/stapi/OneDrive/Desktop/GD32VW553/GD32VW55X_Wifi_BLE_SDK/GD32VW55x_RELEASE_V1.0.2/MSDK/lwip/lwip-2.1.2/port\wifi_netif.c ****     struct netif *netif = (struct netif *)net_if;
 323:C:/Users/stapi/OneDrive/Desktop/GD32VW553/GD32VW55X_Wifi_BLE_SDK/GD32VW55x_RELEASE_V1.0.2/MSDK/lwip/lwip-2.1.2/port\wifi_netif.c **** 
 324:C:/Users/stapi/OneDrive/Desktop/GD32VW553/GD32VW55X_Wifi_BLE_SDK/GD32VW55x_RELEASE_V1.0.2/MSDK/lwip/lwip-2.1.2/port\wifi_netif.c ****     dhcp_cleanup(netif);
 325:C:/Users/stapi/OneDrive/Desktop/GD32VW553/GD32VW55X_Wifi_BLE_SDK/GD32VW55x_RELEASE_V1.0.2/MSDK/lwip/lwip-2.1.2/port\wifi_netif.c **** 
 326:C:/Users/stapi/OneDrive/Desktop/GD32VW553/GD32VW55X_Wifi_BLE_SDK/GD32VW55x_RELEASE_V1.0.2/MSDK/lwip/lwip-2.1.2/port\wifi_netif.c ****     status = netifapi_netif_remove(netif);
 327:C:/Users/stapi/OneDrive/Desktop/GD32VW553/GD32VW55X_Wifi_BLE_SDK/GD32VW55x_RELEASE_V1.0.2/MSDK/lwip/lwip-2.1.2/port\wifi_netif.c **** 
 328:C:/Users/stapi/OneDrive/Desktop/GD32VW553/GD32VW55X_Wifi_BLE_SDK/GD32VW55x_RELEASE_V1.0.2/MSDK/lwip/lwip-2.1.2/port\wifi_netif.c ****     return (status == ERR_OK ? 0 : -1);
 329:C:/Users/stapi/OneDrive/Desktop/GD32VW553/GD32VW55X_Wifi_BLE_SDK/GD32VW55x_RELEASE_V1.0.2/MSDK/lwip/lwip-2.1.2/port\wifi_netif.c **** }
 330:C:/Users/stapi/OneDrive/Desktop/GD32VW553/GD32VW55X_Wifi_BLE_SDK/GD32VW55x_RELEASE_V1.0.2/MSDK/lwip/lwip-2.1.2/port\wifi_netif.c **** 
 331:C:/Users/stapi/OneDrive/Desktop/GD32VW553/GD32VW55X_Wifi_BLE_SDK/GD32VW55x_RELEASE_V1.0.2/MSDK/lwip/lwip-2.1.2/port\wifi_netif.c **** /*!
 332:C:/Users/stapi/OneDrive/Desktop/GD32VW553/GD32VW55X_Wifi_BLE_SDK/GD32VW55x_RELEASE_V1.0.2/MSDK/lwip/lwip-2.1.2/port\wifi_netif.c ****     \brief      Get network interface MAC address
 333:C:/Users/stapi/OneDrive/Desktop/GD32VW553/GD32VW55X_Wifi_BLE_SDK/GD32VW55x_RELEASE_V1.0.2/MSDK/lwip/lwip-2.1.2/port\wifi_netif.c ****     \param[in]  net_if: Pointer to the net_if structure
 334:C:/Users/stapi/OneDrive/Desktop/GD32VW553/GD32VW55X_Wifi_BLE_SDK/GD32VW55x_RELEASE_V1.0.2/MSDK/lwip/lwip-2.1.2/port\wifi_netif.c ****     \param[out] none
 335:C:/Users/stapi/OneDrive/Desktop/GD32VW553/GD32VW55X_Wifi_BLE_SDK/GD32VW55x_RELEASE_V1.0.2/MSDK/lwip/lwip-2.1.2/port\wifi_netif.c ****     \retval     Pointer to MAC address
 336:C:/Users/stapi/OneDrive/Desktop/GD32VW553/GD32VW55X_Wifi_BLE_SDK/GD32VW55x_RELEASE_V1.0.2/MSDK/lwip/lwip-2.1.2/port\wifi_netif.c **** */
 337:C:/Users/stapi/OneDrive/Desktop/GD32VW553/GD32VW55X_Wifi_BLE_SDK/GD32VW55x_RELEASE_V1.0.2/MSDK/lwip/lwip-2.1.2/port\wifi_netif.c **** const uint8_t *net_if_get_mac_addr(void *net_if)
 338:C:/Users/stapi/OneDrive/Desktop/GD32VW553/GD32VW55X_Wifi_BLE_SDK/GD32VW55x_RELEASE_V1.0.2/MSDK/lwip/lwip-2.1.2/port\wifi_netif.c **** {
 339:C:/Users/stapi/OneDrive/Desktop/GD32VW553/GD32VW55X_Wifi_BLE_SDK/GD32VW55x_RELEASE_V1.0.2/MSDK/lwip/lwip-2.1.2/port\wifi_netif.c ****     struct netif *netif = (struct netif *)net_if;
 340:C:/Users/stapi/OneDrive/Desktop/GD32VW553/GD32VW55X_Wifi_BLE_SDK/GD32VW55x_RELEASE_V1.0.2/MSDK/lwip/lwip-2.1.2/port\wifi_netif.c **** 
 341:C:/Users/stapi/OneDrive/Desktop/GD32VW553/GD32VW55X_Wifi_BLE_SDK/GD32VW55x_RELEASE_V1.0.2/MSDK/lwip/lwip-2.1.2/port\wifi_netif.c ****     return netif->hwaddr;
 342:C:/Users/stapi/OneDrive/Desktop/GD32VW553/GD32VW55X_Wifi_BLE_SDK/GD32VW55x_RELEASE_V1.0.2/MSDK/lwip/lwip-2.1.2/port\wifi_netif.c **** }
 343:C:/Users/stapi/OneDrive/Desktop/GD32VW553/GD32VW55X_Wifi_BLE_SDK/GD32VW55x_RELEASE_V1.0.2/MSDK/lwip/lwip-2.1.2/port\wifi_netif.c **** 
 344:C:/Users/stapi/OneDrive/Desktop/GD32VW553/GD32VW55X_Wifi_BLE_SDK/GD32VW55x_RELEASE_V1.0.2/MSDK/lwip/lwip-2.1.2/port\wifi_netif.c **** /*!
 345:C:/Users/stapi/OneDrive/Desktop/GD32VW553/GD32VW55X_Wifi_BLE_SDK/GD32VW55x_RELEASE_V1.0.2/MSDK/lwip/lwip-2.1.2/port\wifi_netif.c ****     \brief      Get pointer to network interface from its name
 346:C:/Users/stapi/OneDrive/Desktop/GD32VW553/GD32VW55X_Wifi_BLE_SDK/GD32VW55x_RELEASE_V1.0.2/MSDK/lwip/lwip-2.1.2/port\wifi_netif.c ****     \param[in]  name: Name of the interface
 347:C:/Users/stapi/OneDrive/Desktop/GD32VW553/GD32VW55X_Wifi_BLE_SDK/GD32VW55x_RELEASE_V1.0.2/MSDK/lwip/lwip-2.1.2/port\wifi_netif.c ****     \param[out] none
 348:C:/Users/stapi/OneDrive/Desktop/GD32VW553/GD32VW55X_Wifi_BLE_SDK/GD32VW55x_RELEASE_V1.0.2/MSDK/lwip/lwip-2.1.2/port\wifi_netif.c ****     \retval     pointer to the net_if structure and NULL if such interface doesn't exist.
 349:C:/Users/stapi/OneDrive/Desktop/GD32VW553/GD32VW55X_Wifi_BLE_SDK/GD32VW55x_RELEASE_V1.0.2/MSDK/lwip/lwip-2.1.2/port\wifi_netif.c **** */
 350:C:/Users/stapi/OneDrive/Desktop/GD32VW553/GD32VW55X_Wifi_BLE_SDK/GD32VW55x_RELEASE_V1.0.2/MSDK/lwip/lwip-2.1.2/port\wifi_netif.c **** void *net_if_find_from_name(const char *name)
 351:C:/Users/stapi/OneDrive/Desktop/GD32VW553/GD32VW55X_Wifi_BLE_SDK/GD32VW55x_RELEASE_V1.0.2/MSDK/lwip/lwip-2.1.2/port\wifi_netif.c **** {
 352:C:/Users/stapi/OneDrive/Desktop/GD32VW553/GD32VW55X_Wifi_BLE_SDK/GD32VW55x_RELEASE_V1.0.2/MSDK/lwip/lwip-2.1.2/port\wifi_netif.c ****     return netif_find(name);
 353:C:/Users/stapi/OneDrive/Desktop/GD32VW553/GD32VW55X_Wifi_BLE_SDK/GD32VW55x_RELEASE_V1.0.2/MSDK/lwip/lwip-2.1.2/port\wifi_netif.c **** }
 354:C:/Users/stapi/OneDrive/Desktop/GD32VW553/GD32VW55X_Wifi_BLE_SDK/GD32VW55x_RELEASE_V1.0.2/MSDK/lwip/lwip-2.1.2/port\wifi_netif.c **** 
 355:C:/Users/stapi/OneDrive/Desktop/GD32VW553/GD32VW55X_Wifi_BLE_SDK/GD32VW55x_RELEASE_V1.0.2/MSDK/lwip/lwip-2.1.2/port\wifi_netif.c **** /*!
 356:C:/Users/stapi/OneDrive/Desktop/GD32VW553/GD32VW55X_Wifi_BLE_SDK/GD32VW55x_RELEASE_V1.0.2/MSDK/lwip/lwip-2.1.2/port\wifi_netif.c ****     \brief      Get name of network interface
 357:C:/Users/stapi/OneDrive/Desktop/GD32VW553/GD32VW55X_Wifi_BLE_SDK/GD32VW55x_RELEASE_V1.0.2/MSDK/lwip/lwip-2.1.2/port\wifi_netif.c ****                 Copy the name on the interface (including a terminating a null byte) in the given
 358:C:/Users/stapi/OneDrive/Desktop/GD32VW553/GD32VW55X_Wifi_BLE_SDK/GD32VW55x_RELEASE_V1.0.2/MSDK/lwip/lwip-2.1.2/port\wifi_netif.c ****                 buffer. If buffer is not big enough then the interface name is truncated and no
 359:C:/Users/stapi/OneDrive/Desktop/GD32VW553/GD32VW55X_Wifi_BLE_SDK/GD32VW55x_RELEASE_V1.0.2/MSDK/lwip/lwip-2.1.2/port\wifi_netif.c ****                 null byte is written in the buffer.
 360:C:/Users/stapi/OneDrive/Desktop/GD32VW553/GD32VW55X_Wifi_BLE_SDK/GD32VW55x_RELEASE_V1.0.2/MSDK/lwip/lwip-2.1.2/port\wifi_netif.c ****     \param[in]  net_if: Pointer to the net_if structure
 361:C:/Users/stapi/OneDrive/Desktop/GD32VW553/GD32VW55X_Wifi_BLE_SDK/GD32VW55x_RELEASE_V1.0.2/MSDK/lwip/lwip-2.1.2/port\wifi_netif.c ****     \param[in]  buf: Buffer to write the interface name
 362:C:/Users/stapi/OneDrive/Desktop/GD32VW553/GD32VW55X_Wifi_BLE_SDK/GD32VW55x_RELEASE_V1.0.2/MSDK/lwip/lwip-2.1.2/port\wifi_netif.c ****     \param[in]  len: Length of the buffer.
 363:C:/Users/stapi/OneDrive/Desktop/GD32VW553/GD32VW55X_Wifi_BLE_SDK/GD32VW55x_RELEASE_V1.0.2/MSDK/lwip/lwip-2.1.2/port\wifi_netif.c ****     \param[out] none
 364:C:/Users/stapi/OneDrive/Desktop/GD32VW553/GD32VW55X_Wifi_BLE_SDK/GD32VW55x_RELEASE_V1.0.2/MSDK/lwip/lwip-2.1.2/port\wifi_netif.c ****     \retval     < 0 if error occurred, otherwise the number of characters (excluding the
 365:C:/Users/stapi/OneDrive/Desktop/GD32VW553/GD32VW55X_Wifi_BLE_SDK/GD32VW55x_RELEASE_V1.0.2/MSDK/lwip/lwip-2.1.2/port\wifi_netif.c ****                 terminating null byte) needed to write the interface name. If return value is great
 366:C:/Users/stapi/OneDrive/Desktop/GD32VW553/GD32VW55X_Wifi_BLE_SDK/GD32VW55x_RELEASE_V1.0.2/MSDK/lwip/lwip-2.1.2/port\wifi_netif.c ****                 or equal to @p len, it means that the interface name has been truncated
 367:C:/Users/stapi/OneDrive/Desktop/GD32VW553/GD32VW55X_Wifi_BLE_SDK/GD32VW55x_RELEASE_V1.0.2/MSDK/lwip/lwip-2.1.2/port\wifi_netif.c **** */
 368:C:/Users/stapi/OneDrive/Desktop/GD32VW553/GD32VW55X_Wifi_BLE_SDK/GD32VW55x_RELEASE_V1.0.2/MSDK/lwip/lwip-2.1.2/port\wifi_netif.c **** int net_if_get_name(void *net_if, char *buf, int len)
 369:C:/Users/stapi/OneDrive/Desktop/GD32VW553/GD32VW55X_Wifi_BLE_SDK/GD32VW55x_RELEASE_V1.0.2/MSDK/lwip/lwip-2.1.2/port\wifi_netif.c **** {
 370:C:/Users/stapi/OneDrive/Desktop/GD32VW553/GD32VW55X_Wifi_BLE_SDK/GD32VW55x_RELEASE_V1.0.2/MSDK/lwip/lwip-2.1.2/port\wifi_netif.c ****     struct netif *netif = (struct netif *)net_if;
 371:C:/Users/stapi/OneDrive/Desktop/GD32VW553/GD32VW55X_Wifi_BLE_SDK/GD32VW55x_RELEASE_V1.0.2/MSDK/lwip/lwip-2.1.2/port\wifi_netif.c **** 
 372:C:/Users/stapi/OneDrive/Desktop/GD32VW553/GD32VW55X_Wifi_BLE_SDK/GD32VW55x_RELEASE_V1.0.2/MSDK/lwip/lwip-2.1.2/port\wifi_netif.c ****     if (len > 0)
 373:C:/Users/stapi/OneDrive/Desktop/GD32VW553/GD32VW55X_Wifi_BLE_SDK/GD32VW55x_RELEASE_V1.0.2/MSDK/lwip/lwip-2.1.2/port\wifi_netif.c ****         buf[0] = netif->name[0];
 374:C:/Users/stapi/OneDrive/Desktop/GD32VW553/GD32VW55X_Wifi_BLE_SDK/GD32VW55x_RELEASE_V1.0.2/MSDK/lwip/lwip-2.1.2/port\wifi_netif.c ****     if (len > 1)
 375:C:/Users/stapi/OneDrive/Desktop/GD32VW553/GD32VW55X_Wifi_BLE_SDK/GD32VW55x_RELEASE_V1.0.2/MSDK/lwip/lwip-2.1.2/port\wifi_netif.c ****         buf[1] = netif->name[1];
 376:C:/Users/stapi/OneDrive/Desktop/GD32VW553/GD32VW55X_Wifi_BLE_SDK/GD32VW55x_RELEASE_V1.0.2/MSDK/lwip/lwip-2.1.2/port\wifi_netif.c ****     if (len > 2)
 377:C:/Users/stapi/OneDrive/Desktop/GD32VW553/GD32VW55X_Wifi_BLE_SDK/GD32VW55x_RELEASE_V1.0.2/MSDK/lwip/lwip-2.1.2/port\wifi_netif.c ****         buf[2] = netif->num + '0';
 378:C:/Users/stapi/OneDrive/Desktop/GD32VW553/GD32VW55X_Wifi_BLE_SDK/GD32VW55x_RELEASE_V1.0.2/MSDK/lwip/lwip-2.1.2/port\wifi_netif.c ****     if ( len > 3)
 379:C:/Users/stapi/OneDrive/Desktop/GD32VW553/GD32VW55X_Wifi_BLE_SDK/GD32VW55x_RELEASE_V1.0.2/MSDK/lwip/lwip-2.1.2/port\wifi_netif.c ****         buf[3] = '\0';
 380:C:/Users/stapi/OneDrive/Desktop/GD32VW553/GD32VW55X_Wifi_BLE_SDK/GD32VW55x_RELEASE_V1.0.2/MSDK/lwip/lwip-2.1.2/port\wifi_netif.c **** 
 381:C:/Users/stapi/OneDrive/Desktop/GD32VW553/GD32VW55X_Wifi_BLE_SDK/GD32VW55x_RELEASE_V1.0.2/MSDK/lwip/lwip-2.1.2/port\wifi_netif.c ****     return 3;
 382:C:/Users/stapi/OneDrive/Desktop/GD32VW553/GD32VW55X_Wifi_BLE_SDK/GD32VW55x_RELEASE_V1.0.2/MSDK/lwip/lwip-2.1.2/port\wifi_netif.c **** }
 383:C:/Users/stapi/OneDrive/Desktop/GD32VW553/GD32VW55X_Wifi_BLE_SDK/GD32VW55x_RELEASE_V1.0.2/MSDK/lwip/lwip-2.1.2/port\wifi_netif.c **** 
 384:C:/Users/stapi/OneDrive/Desktop/GD32VW553/GD32VW55X_Wifi_BLE_SDK/GD32VW55x_RELEASE_V1.0.2/MSDK/lwip/lwip-2.1.2/port\wifi_netif.c **** /*!
 385:C:/Users/stapi/OneDrive/Desktop/GD32VW553/GD32VW55X_Wifi_BLE_SDK/GD32VW55x_RELEASE_V1.0.2/MSDK/lwip/lwip-2.1.2/port\wifi_netif.c ****     \brief      Indicate that the network interface is now up (i.e. able to do traffic)
 386:C:/Users/stapi/OneDrive/Desktop/GD32VW553/GD32VW55X_Wifi_BLE_SDK/GD32VW55x_RELEASE_V1.0.2/MSDK/lwip/lwip-2.1.2/port\wifi_netif.c ****     \param[in]  net_if: Pointer to the net_if structure
 387:C:/Users/stapi/OneDrive/Desktop/GD32VW553/GD32VW55X_Wifi_BLE_SDK/GD32VW55x_RELEASE_V1.0.2/MSDK/lwip/lwip-2.1.2/port\wifi_netif.c ****     \param[out] none
 388:C:/Users/stapi/OneDrive/Desktop/GD32VW553/GD32VW55X_Wifi_BLE_SDK/GD32VW55x_RELEASE_V1.0.2/MSDK/lwip/lwip-2.1.2/port\wifi_netif.c ****     \retval     none
 389:C:/Users/stapi/OneDrive/Desktop/GD32VW553/GD32VW55X_Wifi_BLE_SDK/GD32VW55x_RELEASE_V1.0.2/MSDK/lwip/lwip-2.1.2/port\wifi_netif.c **** */
 390:C:/Users/stapi/OneDrive/Desktop/GD32VW553/GD32VW55X_Wifi_BLE_SDK/GD32VW55x_RELEASE_V1.0.2/MSDK/lwip/lwip-2.1.2/port\wifi_netif.c **** void net_if_up(void *net_if)
 391:C:/Users/stapi/OneDrive/Desktop/GD32VW553/GD32VW55X_Wifi_BLE_SDK/GD32VW55x_RELEASE_V1.0.2/MSDK/lwip/lwip-2.1.2/port\wifi_netif.c **** {
 392:C:/Users/stapi/OneDrive/Desktop/GD32VW553/GD32VW55X_Wifi_BLE_SDK/GD32VW55x_RELEASE_V1.0.2/MSDK/lwip/lwip-2.1.2/port\wifi_netif.c ****     struct netif *netif = (struct netif *)net_if;
 393:C:/Users/stapi/OneDrive/Desktop/GD32VW553/GD32VW55X_Wifi_BLE_SDK/GD32VW55x_RELEASE_V1.0.2/MSDK/lwip/lwip-2.1.2/port\wifi_netif.c **** 
 394:C:/Users/stapi/OneDrive/Desktop/GD32VW553/GD32VW55X_Wifi_BLE_SDK/GD32VW55x_RELEASE_V1.0.2/MSDK/lwip/lwip-2.1.2/port\wifi_netif.c ****     netifapi_netif_set_up(netif);
 395:C:/Users/stapi/OneDrive/Desktop/GD32VW553/GD32VW55X_Wifi_BLE_SDK/GD32VW55x_RELEASE_V1.0.2/MSDK/lwip/lwip-2.1.2/port\wifi_netif.c **** }
 396:C:/Users/stapi/OneDrive/Desktop/GD32VW553/GD32VW55X_Wifi_BLE_SDK/GD32VW55x_RELEASE_V1.0.2/MSDK/lwip/lwip-2.1.2/port\wifi_netif.c **** 
 397:C:/Users/stapi/OneDrive/Desktop/GD32VW553/GD32VW55X_Wifi_BLE_SDK/GD32VW55x_RELEASE_V1.0.2/MSDK/lwip/lwip-2.1.2/port\wifi_netif.c **** /*!
 398:C:/Users/stapi/OneDrive/Desktop/GD32VW553/GD32VW55X_Wifi_BLE_SDK/GD32VW55x_RELEASE_V1.0.2/MSDK/lwip/lwip-2.1.2/port\wifi_netif.c ****     \brief      Indicate that the network interface is now down
 399:C:/Users/stapi/OneDrive/Desktop/GD32VW553/GD32VW55X_Wifi_BLE_SDK/GD32VW55x_RELEASE_V1.0.2/MSDK/lwip/lwip-2.1.2/port\wifi_netif.c ****     \param[in]  net_if: Pointer to the net_if structure
 400:C:/Users/stapi/OneDrive/Desktop/GD32VW553/GD32VW55X_Wifi_BLE_SDK/GD32VW55x_RELEASE_V1.0.2/MSDK/lwip/lwip-2.1.2/port\wifi_netif.c ****     \param[out] none
 401:C:/Users/stapi/OneDrive/Desktop/GD32VW553/GD32VW55X_Wifi_BLE_SDK/GD32VW55x_RELEASE_V1.0.2/MSDK/lwip/lwip-2.1.2/port\wifi_netif.c ****     \retval     none
 402:C:/Users/stapi/OneDrive/Desktop/GD32VW553/GD32VW55X_Wifi_BLE_SDK/GD32VW55x_RELEASE_V1.0.2/MSDK/lwip/lwip-2.1.2/port\wifi_netif.c **** */
 403:C:/Users/stapi/OneDrive/Desktop/GD32VW553/GD32VW55X_Wifi_BLE_SDK/GD32VW55x_RELEASE_V1.0.2/MSDK/lwip/lwip-2.1.2/port\wifi_netif.c **** void net_if_down(void *net_if)
 404:C:/Users/stapi/OneDrive/Desktop/GD32VW553/GD32VW55X_Wifi_BLE_SDK/GD32VW55x_RELEASE_V1.0.2/MSDK/lwip/lwip-2.1.2/port\wifi_netif.c **** {
 405:C:/Users/stapi/OneDrive/Desktop/GD32VW553/GD32VW55X_Wifi_BLE_SDK/GD32VW55x_RELEASE_V1.0.2/MSDK/lwip/lwip-2.1.2/port\wifi_netif.c ****     struct netif *netif = (struct netif *)net_if;
 406:C:/Users/stapi/OneDrive/Desktop/GD32VW553/GD32VW55X_Wifi_BLE_SDK/GD32VW55x_RELEASE_V1.0.2/MSDK/lwip/lwip-2.1.2/port\wifi_netif.c **** 
 407:C:/Users/stapi/OneDrive/Desktop/GD32VW553/GD32VW55X_Wifi_BLE_SDK/GD32VW55x_RELEASE_V1.0.2/MSDK/lwip/lwip-2.1.2/port\wifi_netif.c ****     netifapi_netif_set_down(netif);
 408:C:/Users/stapi/OneDrive/Desktop/GD32VW553/GD32VW55X_Wifi_BLE_SDK/GD32VW55x_RELEASE_V1.0.2/MSDK/lwip/lwip-2.1.2/port\wifi_netif.c **** }
 409:C:/Users/stapi/OneDrive/Desktop/GD32VW553/GD32VW55X_Wifi_BLE_SDK/GD32VW55x_RELEASE_V1.0.2/MSDK/lwip/lwip-2.1.2/port\wifi_netif.c **** 
 410:C:/Users/stapi/OneDrive/Desktop/GD32VW553/GD32VW55X_Wifi_BLE_SDK/GD32VW55x_RELEASE_V1.0.2/MSDK/lwip/lwip-2.1.2/port\wifi_netif.c **** /*!
 411:C:/Users/stapi/OneDrive/Desktop/GD32VW553/GD32VW55X_Wifi_BLE_SDK/GD32VW55x_RELEASE_V1.0.2/MSDK/lwip/lwip-2.1.2/port\wifi_netif.c ****     \brief      Set a network interface as the default output interface
 412:C:/Users/stapi/OneDrive/Desktop/GD32VW553/GD32VW55X_Wifi_BLE_SDK/GD32VW55x_RELEASE_V1.0.2/MSDK/lwip/lwip-2.1.2/port\wifi_netif.c ****                 If IP routing failed to select an output interface solely based on
 413:C:/Users/stapi/OneDrive/Desktop/GD32VW553/GD32VW55X_Wifi_BLE_SDK/GD32VW55x_RELEASE_V1.0.2/MSDK/lwip/lwip-2.1.2/port\wifi_netif.c ****                 interface and destination addresses then this interface will be selected.
 414:C:/Users/stapi/OneDrive/Desktop/GD32VW553/GD32VW55X_Wifi_BLE_SDK/GD32VW55x_RELEASE_V1.0.2/MSDK/lwip/lwip-2.1.2/port\wifi_netif.c ****                 Use a NULL parameter to reset the default interface.
 415:C:/Users/stapi/OneDrive/Desktop/GD32VW553/GD32VW55X_Wifi_BLE_SDK/GD32VW55x_RELEASE_V1.0.2/MSDK/lwip/lwip-2.1.2/port\wifi_netif.c ****     \param[in]  net_if: Pointer to the net_if structure
 416:C:/Users/stapi/OneDrive/Desktop/GD32VW553/GD32VW55X_Wifi_BLE_SDK/GD32VW55x_RELEASE_V1.0.2/MSDK/lwip/lwip-2.1.2/port\wifi_netif.c ****     \param[out] none
 417:C:/Users/stapi/OneDrive/Desktop/GD32VW553/GD32VW55X_Wifi_BLE_SDK/GD32VW55x_RELEASE_V1.0.2/MSDK/lwip/lwip-2.1.2/port\wifi_netif.c ****     \retval     none
 418:C:/Users/stapi/OneDrive/Desktop/GD32VW553/GD32VW55X_Wifi_BLE_SDK/GD32VW55x_RELEASE_V1.0.2/MSDK/lwip/lwip-2.1.2/port\wifi_netif.c **** */
 419:C:/Users/stapi/OneDrive/Desktop/GD32VW553/GD32VW55X_Wifi_BLE_SDK/GD32VW55x_RELEASE_V1.0.2/MSDK/lwip/lwip-2.1.2/port\wifi_netif.c **** void net_if_set_default(void *net_if)
 420:C:/Users/stapi/OneDrive/Desktop/GD32VW553/GD32VW55X_Wifi_BLE_SDK/GD32VW55x_RELEASE_V1.0.2/MSDK/lwip/lwip-2.1.2/port\wifi_netif.c **** {
 421:C:/Users/stapi/OneDrive/Desktop/GD32VW553/GD32VW55X_Wifi_BLE_SDK/GD32VW55x_RELEASE_V1.0.2/MSDK/lwip/lwip-2.1.2/port\wifi_netif.c ****     struct netif *netif = (struct netif *)net_if;
 422:C:/Users/stapi/OneDrive/Desktop/GD32VW553/GD32VW55X_Wifi_BLE_SDK/GD32VW55x_RELEASE_V1.0.2/MSDK/lwip/lwip-2.1.2/port\wifi_netif.c **** 
 423:C:/Users/stapi/OneDrive/Desktop/GD32VW553/GD32VW55X_Wifi_BLE_SDK/GD32VW55x_RELEASE_V1.0.2/MSDK/lwip/lwip-2.1.2/port\wifi_netif.c ****     netifapi_netif_set_default(netif);
 424:C:/Users/stapi/OneDrive/Desktop/GD32VW553/GD32VW55X_Wifi_BLE_SDK/GD32VW55x_RELEASE_V1.0.2/MSDK/lwip/lwip-2.1.2/port\wifi_netif.c **** }
 425:C:/Users/stapi/OneDrive/Desktop/GD32VW553/GD32VW55X_Wifi_BLE_SDK/GD32VW55x_RELEASE_V1.0.2/MSDK/lwip/lwip-2.1.2/port\wifi_netif.c **** 
 426:C:/Users/stapi/OneDrive/Desktop/GD32VW553/GD32VW55X_Wifi_BLE_SDK/GD32VW55x_RELEASE_V1.0.2/MSDK/lwip/lwip-2.1.2/port\wifi_netif.c **** /*!
 427:C:/Users/stapi/OneDrive/Desktop/GD32VW553/GD32VW55X_Wifi_BLE_SDK/GD32VW55x_RELEASE_V1.0.2/MSDK/lwip/lwip-2.1.2/port\wifi_netif.c ****     \brief      Set IPv4 address of an interface
 428:C:/Users/stapi/OneDrive/Desktop/GD32VW553/GD32VW55X_Wifi_BLE_SDK/GD32VW55x_RELEASE_V1.0.2/MSDK/lwip/lwip-2.1.2/port\wifi_netif.c ****                 It is assumed that only one address can be configured on the interface
 429:C:/Users/stapi/OneDrive/Desktop/GD32VW553/GD32VW55X_Wifi_BLE_SDK/GD32VW55x_RELEASE_V1.0.2/MSDK/lwip/lwip-2.1.2/port\wifi_netif.c ****                 and then setting a new address can be used to replace/delete the current
 430:C:/Users/stapi/OneDrive/Desktop/GD32VW553/GD32VW55X_Wifi_BLE_SDK/GD32VW55x_RELEASE_V1.0.2/MSDK/lwip/lwip-2.1.2/port\wifi_netif.c ****                 address.
 431:C:/Users/stapi/OneDrive/Desktop/GD32VW553/GD32VW55X_Wifi_BLE_SDK/GD32VW55x_RELEASE_V1.0.2/MSDK/lwip/lwip-2.1.2/port\wifi_netif.c ****     \param[in]  net_if: Pointer to the net_if structure
 432:C:/Users/stapi/OneDrive/Desktop/GD32VW553/GD32VW55X_Wifi_BLE_SDK/GD32VW55x_RELEASE_V1.0.2/MSDK/lwip/lwip-2.1.2/port\wifi_netif.c ****     \param[in]  ip: IPv4 address
 433:C:/Users/stapi/OneDrive/Desktop/GD32VW553/GD32VW55X_Wifi_BLE_SDK/GD32VW55x_RELEASE_V1.0.2/MSDK/lwip/lwip-2.1.2/port\wifi_netif.c ****     \param[in]  mask: IPv4 network mask
 434:C:/Users/stapi/OneDrive/Desktop/GD32VW553/GD32VW55X_Wifi_BLE_SDK/GD32VW55x_RELEASE_V1.0.2/MSDK/lwip/lwip-2.1.2/port\wifi_netif.c ****     \param[in]  gw: IPv4 gateway address
 435:C:/Users/stapi/OneDrive/Desktop/GD32VW553/GD32VW55X_Wifi_BLE_SDK/GD32VW55x_RELEASE_V1.0.2/MSDK/lwip/lwip-2.1.2/port\wifi_netif.c ****     \param[out] none
 436:C:/Users/stapi/OneDrive/Desktop/GD32VW553/GD32VW55X_Wifi_BLE_SDK/GD32VW55x_RELEASE_V1.0.2/MSDK/lwip/lwip-2.1.2/port\wifi_netif.c ****     \retval     none
 437:C:/Users/stapi/OneDrive/Desktop/GD32VW553/GD32VW55X_Wifi_BLE_SDK/GD32VW55x_RELEASE_V1.0.2/MSDK/lwip/lwip-2.1.2/port\wifi_netif.c **** */
 438:C:/Users/stapi/OneDrive/Desktop/GD32VW553/GD32VW55X_Wifi_BLE_SDK/GD32VW55x_RELEASE_V1.0.2/MSDK/lwip/lwip-2.1.2/port\wifi_netif.c **** void net_if_set_ip(void *net_if, uint32_t ip, uint32_t mask, uint32_t gw)
 439:C:/Users/stapi/OneDrive/Desktop/GD32VW553/GD32VW55X_Wifi_BLE_SDK/GD32VW55x_RELEASE_V1.0.2/MSDK/lwip/lwip-2.1.2/port\wifi_netif.c **** {
 440:C:/Users/stapi/OneDrive/Desktop/GD32VW553/GD32VW55X_Wifi_BLE_SDK/GD32VW55x_RELEASE_V1.0.2/MSDK/lwip/lwip-2.1.2/port\wifi_netif.c ****     struct netif *netif = (struct netif *)net_if;
 441:C:/Users/stapi/OneDrive/Desktop/GD32VW553/GD32VW55X_Wifi_BLE_SDK/GD32VW55x_RELEASE_V1.0.2/MSDK/lwip/lwip-2.1.2/port\wifi_netif.c **** 
 442:C:/Users/stapi/OneDrive/Desktop/GD32VW553/GD32VW55X_Wifi_BLE_SDK/GD32VW55x_RELEASE_V1.0.2/MSDK/lwip/lwip-2.1.2/port\wifi_netif.c ****     if (!netif)
 443:C:/Users/stapi/OneDrive/Desktop/GD32VW553/GD32VW55X_Wifi_BLE_SDK/GD32VW55x_RELEASE_V1.0.2/MSDK/lwip/lwip-2.1.2/port\wifi_netif.c ****         return;
 444:C:/Users/stapi/OneDrive/Desktop/GD32VW553/GD32VW55X_Wifi_BLE_SDK/GD32VW55x_RELEASE_V1.0.2/MSDK/lwip/lwip-2.1.2/port\wifi_netif.c ****     netif_set_addr(netif, (const ip4_addr_t *)&ip, (const ip4_addr_t *)&mask,
 445:C:/Users/stapi/OneDrive/Desktop/GD32VW553/GD32VW55X_Wifi_BLE_SDK/GD32VW55x_RELEASE_V1.0.2/MSDK/lwip/lwip-2.1.2/port\wifi_netif.c ****                    (const ip4_addr_t *)&gw);
 446:C:/Users/stapi/OneDrive/Desktop/GD32VW553/GD32VW55X_Wifi_BLE_SDK/GD32VW55x_RELEASE_V1.0.2/MSDK/lwip/lwip-2.1.2/port\wifi_netif.c **** }
 447:C:/Users/stapi/OneDrive/Desktop/GD32VW553/GD32VW55X_Wifi_BLE_SDK/GD32VW55x_RELEASE_V1.0.2/MSDK/lwip/lwip-2.1.2/port\wifi_netif.c **** 
 448:C:/Users/stapi/OneDrive/Desktop/GD32VW553/GD32VW55X_Wifi_BLE_SDK/GD32VW55x_RELEASE_V1.0.2/MSDK/lwip/lwip-2.1.2/port\wifi_netif.c **** /*!
 449:C:/Users/stapi/OneDrive/Desktop/GD32VW553/GD32VW55X_Wifi_BLE_SDK/GD32VW55x_RELEASE_V1.0.2/MSDK/lwip/lwip-2.1.2/port\wifi_netif.c ****     \brief      Get IPv4 address of an interface
 450:C:/Users/stapi/OneDrive/Desktop/GD32VW553/GD32VW55X_Wifi_BLE_SDK/GD32VW55x_RELEASE_V1.0.2/MSDK/lwip/lwip-2.1.2/port\wifi_netif.c ****                 Set to NULL parameter you're not interested in.
 451:C:/Users/stapi/OneDrive/Desktop/GD32VW553/GD32VW55X_Wifi_BLE_SDK/GD32VW55x_RELEASE_V1.0.2/MSDK/lwip/lwip-2.1.2/port\wifi_netif.c ****     \param[in]  net_if: Pointer to the net_if structure
 452:C:/Users/stapi/OneDrive/Desktop/GD32VW553/GD32VW55X_Wifi_BLE_SDK/GD32VW55x_RELEASE_V1.0.2/MSDK/lwip/lwip-2.1.2/port\wifi_netif.c ****     \param[in]  ip: IPv4 address
 453:C:/Users/stapi/OneDrive/Desktop/GD32VW553/GD32VW55X_Wifi_BLE_SDK/GD32VW55x_RELEASE_V1.0.2/MSDK/lwip/lwip-2.1.2/port\wifi_netif.c ****     \param[in]  mask: IPv4 network mask
 454:C:/Users/stapi/OneDrive/Desktop/GD32VW553/GD32VW55X_Wifi_BLE_SDK/GD32VW55x_RELEASE_V1.0.2/MSDK/lwip/lwip-2.1.2/port\wifi_netif.c ****     \param[in]  gw: IPv4 gateway address
 455:C:/Users/stapi/OneDrive/Desktop/GD32VW553/GD32VW55X_Wifi_BLE_SDK/GD32VW55x_RELEASE_V1.0.2/MSDK/lwip/lwip-2.1.2/port\wifi_netif.c ****     \param[out] none
 456:C:/Users/stapi/OneDrive/Desktop/GD32VW553/GD32VW55X_Wifi_BLE_SDK/GD32VW55x_RELEASE_V1.0.2/MSDK/lwip/lwip-2.1.2/port\wifi_netif.c ****     \retval     0 if requested parameters have been updated successfully and !=0 otherwise.
 457:C:/Users/stapi/OneDrive/Desktop/GD32VW553/GD32VW55X_Wifi_BLE_SDK/GD32VW55x_RELEASE_V1.0.2/MSDK/lwip/lwip-2.1.2/port\wifi_netif.c **** */
 458:C:/Users/stapi/OneDrive/Desktop/GD32VW553/GD32VW55X_Wifi_BLE_SDK/GD32VW55x_RELEASE_V1.0.2/MSDK/lwip/lwip-2.1.2/port\wifi_netif.c **** int net_if_get_ip(void *net_if, uint32_t *ip, uint32_t *mask, uint32_t *gw)
 459:C:/Users/stapi/OneDrive/Desktop/GD32VW553/GD32VW55X_Wifi_BLE_SDK/GD32VW55x_RELEASE_V1.0.2/MSDK/lwip/lwip-2.1.2/port\wifi_netif.c **** {
 460:C:/Users/stapi/OneDrive/Desktop/GD32VW553/GD32VW55X_Wifi_BLE_SDK/GD32VW55x_RELEASE_V1.0.2/MSDK/lwip/lwip-2.1.2/port\wifi_netif.c ****     struct netif *netif = (struct netif *)net_if;
 461:C:/Users/stapi/OneDrive/Desktop/GD32VW553/GD32VW55X_Wifi_BLE_SDK/GD32VW55x_RELEASE_V1.0.2/MSDK/lwip/lwip-2.1.2/port\wifi_netif.c **** 
 462:C:/Users/stapi/OneDrive/Desktop/GD32VW553/GD32VW55X_Wifi_BLE_SDK/GD32VW55x_RELEASE_V1.0.2/MSDK/lwip/lwip-2.1.2/port\wifi_netif.c ****     if (!netif)
 463:C:/Users/stapi/OneDrive/Desktop/GD32VW553/GD32VW55X_Wifi_BLE_SDK/GD32VW55x_RELEASE_V1.0.2/MSDK/lwip/lwip-2.1.2/port\wifi_netif.c ****         return -1;
 464:C:/Users/stapi/OneDrive/Desktop/GD32VW553/GD32VW55X_Wifi_BLE_SDK/GD32VW55x_RELEASE_V1.0.2/MSDK/lwip/lwip-2.1.2/port\wifi_netif.c **** 
 465:C:/Users/stapi/OneDrive/Desktop/GD32VW553/GD32VW55X_Wifi_BLE_SDK/GD32VW55x_RELEASE_V1.0.2/MSDK/lwip/lwip-2.1.2/port\wifi_netif.c ****     if (ip)
 466:C:/Users/stapi/OneDrive/Desktop/GD32VW553/GD32VW55X_Wifi_BLE_SDK/GD32VW55x_RELEASE_V1.0.2/MSDK/lwip/lwip-2.1.2/port\wifi_netif.c ****         *ip = netif_ip4_addr(netif)->addr;
 467:C:/Users/stapi/OneDrive/Desktop/GD32VW553/GD32VW55X_Wifi_BLE_SDK/GD32VW55x_RELEASE_V1.0.2/MSDK/lwip/lwip-2.1.2/port\wifi_netif.c ****     if (mask)
 468:C:/Users/stapi/OneDrive/Desktop/GD32VW553/GD32VW55X_Wifi_BLE_SDK/GD32VW55x_RELEASE_V1.0.2/MSDK/lwip/lwip-2.1.2/port\wifi_netif.c ****         *mask = netif_ip4_netmask(netif)->addr;
 469:C:/Users/stapi/OneDrive/Desktop/GD32VW553/GD32VW55X_Wifi_BLE_SDK/GD32VW55x_RELEASE_V1.0.2/MSDK/lwip/lwip-2.1.2/port\wifi_netif.c ****     if (gw)
 470:C:/Users/stapi/OneDrive/Desktop/GD32VW553/GD32VW55X_Wifi_BLE_SDK/GD32VW55x_RELEASE_V1.0.2/MSDK/lwip/lwip-2.1.2/port\wifi_netif.c ****         *gw = netif_ip4_gw(netif)->addr;
 471:C:/Users/stapi/OneDrive/Desktop/GD32VW553/GD32VW55X_Wifi_BLE_SDK/GD32VW55x_RELEASE_V1.0.2/MSDK/lwip/lwip-2.1.2/port\wifi_netif.c **** 
 472:C:/Users/stapi/OneDrive/Desktop/GD32VW553/GD32VW55X_Wifi_BLE_SDK/GD32VW55x_RELEASE_V1.0.2/MSDK/lwip/lwip-2.1.2/port\wifi_netif.c ****     return 0;
 473:C:/Users/stapi/OneDrive/Desktop/GD32VW553/GD32VW55X_Wifi_BLE_SDK/GD32VW55x_RELEASE_V1.0.2/MSDK/lwip/lwip-2.1.2/port\wifi_netif.c **** }
 474:C:/Users/stapi/OneDrive/Desktop/GD32VW553/GD32VW55X_Wifi_BLE_SDK/GD32VW55x_RELEASE_V1.0.2/MSDK/lwip/lwip-2.1.2/port\wifi_netif.c **** 
 475:C:/Users/stapi/OneDrive/Desktop/GD32VW553/GD32VW55X_Wifi_BLE_SDK/GD32VW55x_RELEASE_V1.0.2/MSDK/lwip/lwip-2.1.2/port\wifi_netif.c **** /*!
 476:C:/Users/stapi/OneDrive/Desktop/GD32VW553/GD32VW55X_Wifi_BLE_SDK/GD32VW55x_RELEASE_V1.0.2/MSDK/lwip/lwip-2.1.2/port\wifi_netif.c ****     \brief      Call the networking stack input function.
 477:C:/Users/stapi/OneDrive/Desktop/GD32VW553/GD32VW55X_Wifi_BLE_SDK/GD32VW55x_RELEASE_V1.0.2/MSDK/lwip/lwip-2.1.2/port\wifi_netif.c ****                 This function is supposed to link the payload data and length to the RX
 478:C:/Users/stapi/OneDrive/Desktop/GD32VW553/GD32VW55X_Wifi_BLE_SDK/GD32VW55x_RELEASE_V1.0.2/MSDK/lwip/lwip-2.1.2/port\wifi_netif.c ****                 buffer structure passed as parameter. The free_fn function shall be called
 479:C:/Users/stapi/OneDrive/Desktop/GD32VW553/GD32VW55X_Wifi_BLE_SDK/GD32VW55x_RELEASE_V1.0.2/MSDK/lwip/lwip-2.1.2/port\wifi_netif.c ****                 when the networking stack is not using the buffer anymore.
 480:C:/Users/stapi/OneDrive/Desktop/GD32VW553/GD32VW55X_Wifi_BLE_SDK/GD32VW55x_RELEASE_V1.0.2/MSDK/lwip/lwip-2.1.2/port\wifi_netif.c ****     \param[in]  buf: Pointer to the RX buffer structure
 481:C:/Users/stapi/OneDrive/Desktop/GD32VW553/GD32VW55X_Wifi_BLE_SDK/GD32VW55x_RELEASE_V1.0.2/MSDK/lwip/lwip-2.1.2/port\wifi_netif.c ****     \param[in]  net_if: Pointer to the net_if structure that receives the packet
 482:C:/Users/stapi/OneDrive/Desktop/GD32VW553/GD32VW55X_Wifi_BLE_SDK/GD32VW55x_RELEASE_V1.0.2/MSDK/lwip/lwip-2.1.2/port\wifi_netif.c ****     \param[in]  addr: Pointer to the payload data
 483:C:/Users/stapi/OneDrive/Desktop/GD32VW553/GD32VW55X_Wifi_BLE_SDK/GD32VW55x_RELEASE_V1.0.2/MSDK/lwip/lwip-2.1.2/port\wifi_netif.c ****     \param[in]  len: Length of the data available at payload address
 484:C:/Users/stapi/OneDrive/Desktop/GD32VW553/GD32VW55X_Wifi_BLE_SDK/GD32VW55x_RELEASE_V1.0.2/MSDK/lwip/lwip-2.1.2/port\wifi_netif.c ****     \param[in]  free_fn: Pointer to buffer freeing function to be called after use
 485:C:/Users/stapi/OneDrive/Desktop/GD32VW553/GD32VW55X_Wifi_BLE_SDK/GD32VW55x_RELEASE_V1.0.2/MSDK/lwip/lwip-2.1.2/port\wifi_netif.c ****     \param[out] none
 486:C:/Users/stapi/OneDrive/Desktop/GD32VW553/GD32VW55X_Wifi_BLE_SDK/GD32VW55x_RELEASE_V1.0.2/MSDK/lwip/lwip-2.1.2/port\wifi_netif.c ****     \retval     0 on success and != 0 if packet is not accepted
 487:C:/Users/stapi/OneDrive/Desktop/GD32VW553/GD32VW55X_Wifi_BLE_SDK/GD32VW55x_RELEASE_V1.0.2/MSDK/lwip/lwip-2.1.2/port\wifi_netif.c **** */
 488:C:/Users/stapi/OneDrive/Desktop/GD32VW553/GD32VW55X_Wifi_BLE_SDK/GD32VW55x_RELEASE_V1.0.2/MSDK/lwip/lwip-2.1.2/port\wifi_netif.c **** int net_if_input(net_buf_rx_t *buf, void *net_if, void *addr, uint16_t len, net_buf_free_fn free_fn
 489:C:/Users/stapi/OneDrive/Desktop/GD32VW553/GD32VW55X_Wifi_BLE_SDK/GD32VW55x_RELEASE_V1.0.2/MSDK/lwip/lwip-2.1.2/port\wifi_netif.c **** {
 490:C:/Users/stapi/OneDrive/Desktop/GD32VW553/GD32VW55X_Wifi_BLE_SDK/GD32VW55x_RELEASE_V1.0.2/MSDK/lwip/lwip-2.1.2/port\wifi_netif.c ****     struct pbuf* p;
 491:C:/Users/stapi/OneDrive/Desktop/GD32VW553/GD32VW55X_Wifi_BLE_SDK/GD32VW55x_RELEASE_V1.0.2/MSDK/lwip/lwip-2.1.2/port\wifi_netif.c ****     struct netif *netif = (struct netif *)net_if;
 492:C:/Users/stapi/OneDrive/Desktop/GD32VW553/GD32VW55X_Wifi_BLE_SDK/GD32VW55x_RELEASE_V1.0.2/MSDK/lwip/lwip-2.1.2/port\wifi_netif.c **** 
 493:C:/Users/stapi/OneDrive/Desktop/GD32VW553/GD32VW55X_Wifi_BLE_SDK/GD32VW55x_RELEASE_V1.0.2/MSDK/lwip/lwip-2.1.2/port\wifi_netif.c ****     buf->custom_free_function = (pbuf_free_custom_fn)free_fn;
 494:C:/Users/stapi/OneDrive/Desktop/GD32VW553/GD32VW55X_Wifi_BLE_SDK/GD32VW55x_RELEASE_V1.0.2/MSDK/lwip/lwip-2.1.2/port\wifi_netif.c ****     p = pbuf_alloced_custom(PBUF_RAW, len, PBUF_REF, buf, addr, len);
 495:C:/Users/stapi/OneDrive/Desktop/GD32VW553/GD32VW55X_Wifi_BLE_SDK/GD32VW55x_RELEASE_V1.0.2/MSDK/lwip/lwip-2.1.2/port\wifi_netif.c ****     if (p == NULL)
 496:C:/Users/stapi/OneDrive/Desktop/GD32VW553/GD32VW55X_Wifi_BLE_SDK/GD32VW55x_RELEASE_V1.0.2/MSDK/lwip/lwip-2.1.2/port\wifi_netif.c ****     {
 497:C:/Users/stapi/OneDrive/Desktop/GD32VW553/GD32VW55X_Wifi_BLE_SDK/GD32VW55x_RELEASE_V1.0.2/MSDK/lwip/lwip-2.1.2/port\wifi_netif.c ****         dbg_print(ERR, "pbuf_alloced_custom NULL\r\n");
 498:C:/Users/stapi/OneDrive/Desktop/GD32VW553/GD32VW55X_Wifi_BLE_SDK/GD32VW55x_RELEASE_V1.0.2/MSDK/lwip/lwip-2.1.2/port\wifi_netif.c ****         free_fn(buf);
 499:C:/Users/stapi/OneDrive/Desktop/GD32VW553/GD32VW55X_Wifi_BLE_SDK/GD32VW55x_RELEASE_V1.0.2/MSDK/lwip/lwip-2.1.2/port\wifi_netif.c ****         return -1;
 500:C:/Users/stapi/OneDrive/Desktop/GD32VW553/GD32VW55X_Wifi_BLE_SDK/GD32VW55x_RELEASE_V1.0.2/MSDK/lwip/lwip-2.1.2/port\wifi_netif.c ****     }
 501:C:/Users/stapi/OneDrive/Desktop/GD32VW553/GD32VW55X_Wifi_BLE_SDK/GD32VW55x_RELEASE_V1.0.2/MSDK/lwip/lwip-2.1.2/port\wifi_netif.c **** 
 502:C:/Users/stapi/OneDrive/Desktop/GD32VW553/GD32VW55X_Wifi_BLE_SDK/GD32VW55x_RELEASE_V1.0.2/MSDK/lwip/lwip-2.1.2/port\wifi_netif.c ****     if (netif->input(p, netif))
 503:C:/Users/stapi/OneDrive/Desktop/GD32VW553/GD32VW55X_Wifi_BLE_SDK/GD32VW55x_RELEASE_V1.0.2/MSDK/lwip/lwip-2.1.2/port\wifi_netif.c ****     {
 504:C:/Users/stapi/OneDrive/Desktop/GD32VW553/GD32VW55X_Wifi_BLE_SDK/GD32VW55x_RELEASE_V1.0.2/MSDK/lwip/lwip-2.1.2/port\wifi_netif.c ****         free_fn(buf);
 505:C:/Users/stapi/OneDrive/Desktop/GD32VW553/GD32VW55X_Wifi_BLE_SDK/GD32VW55x_RELEASE_V1.0.2/MSDK/lwip/lwip-2.1.2/port\wifi_netif.c ****         return -1;
 506:C:/Users/stapi/OneDrive/Desktop/GD32VW553/GD32VW55X_Wifi_BLE_SDK/GD32VW55x_RELEASE_V1.0.2/MSDK/lwip/lwip-2.1.2/port\wifi_netif.c ****     }
 507:C:/Users/stapi/OneDrive/Desktop/GD32VW553/GD32VW55X_Wifi_BLE_SDK/GD32VW55x_RELEASE_V1.0.2/MSDK/lwip/lwip-2.1.2/port\wifi_netif.c **** 
 508:C:/Users/stapi/OneDrive/Desktop/GD32VW553/GD32VW55X_Wifi_BLE_SDK/GD32VW55x_RELEASE_V1.0.2/MSDK/lwip/lwip-2.1.2/port\wifi_netif.c ****     return 0;
 509:C:/Users/stapi/OneDrive/Desktop/GD32VW553/GD32VW55X_Wifi_BLE_SDK/GD32VW55x_RELEASE_V1.0.2/MSDK/lwip/lwip-2.1.2/port\wifi_netif.c **** }
 510:C:/Users/stapi/OneDrive/Desktop/GD32VW553/GD32VW55X_Wifi_BLE_SDK/GD32VW55x_RELEASE_V1.0.2/MSDK/lwip/lwip-2.1.2/port\wifi_netif.c **** 
 511:C:/Users/stapi/OneDrive/Desktop/GD32VW553/GD32VW55X_Wifi_BLE_SDK/GD32VW55x_RELEASE_V1.0.2/MSDK/lwip/lwip-2.1.2/port\wifi_netif.c **** /*!
 512:C:/Users/stapi/OneDrive/Desktop/GD32VW553/GD32VW55X_Wifi_BLE_SDK/GD32VW55x_RELEASE_V1.0.2/MSDK/lwip/lwip-2.1.2/port\wifi_netif.c ****     \brief      Get the pointer to the VIF private structure attached to a net interface.
 513:C:/Users/stapi/OneDrive/Desktop/GD32VW553/GD32VW55X_Wifi_BLE_SDK/GD32VW55x_RELEASE_V1.0.2/MSDK/lwip/lwip-2.1.2/port\wifi_netif.c ****     \param[in]  net_if: Pointer to the net_if structure
 514:C:/Users/stapi/OneDrive/Desktop/GD32VW553/GD32VW55X_Wifi_BLE_SDK/GD32VW55x_RELEASE_V1.0.2/MSDK/lwip/lwip-2.1.2/port\wifi_netif.c ****     \param[out] none
 515:C:/Users/stapi/OneDrive/Desktop/GD32VW553/GD32VW55X_Wifi_BLE_SDK/GD32VW55x_RELEASE_V1.0.2/MSDK/lwip/lwip-2.1.2/port\wifi_netif.c ****     \retval     The pointer to the VIF private structure attached to the net interface
 516:C:/Users/stapi/OneDrive/Desktop/GD32VW553/GD32VW55X_Wifi_BLE_SDK/GD32VW55x_RELEASE_V1.0.2/MSDK/lwip/lwip-2.1.2/port\wifi_netif.c ****                 when it has been initialized (@ref net_if_add)
 517:C:/Users/stapi/OneDrive/Desktop/GD32VW553/GD32VW55X_Wifi_BLE_SDK/GD32VW55x_RELEASE_V1.0.2/MSDK/lwip/lwip-2.1.2/port\wifi_netif.c **** */
 518:C:/Users/stapi/OneDrive/Desktop/GD32VW553/GD32VW55X_Wifi_BLE_SDK/GD32VW55x_RELEASE_V1.0.2/MSDK/lwip/lwip-2.1.2/port\wifi_netif.c **** void *net_if_vif_info(void *net_if)
 519:C:/Users/stapi/OneDrive/Desktop/GD32VW553/GD32VW55X_Wifi_BLE_SDK/GD32VW55x_RELEASE_V1.0.2/MSDK/lwip/lwip-2.1.2/port\wifi_netif.c **** {
 520:C:/Users/stapi/OneDrive/Desktop/GD32VW553/GD32VW55X_Wifi_BLE_SDK/GD32VW55x_RELEASE_V1.0.2/MSDK/lwip/lwip-2.1.2/port\wifi_netif.c ****     struct netif *netif = (struct netif *)net_if;
 521:C:/Users/stapi/OneDrive/Desktop/GD32VW553/GD32VW55X_Wifi_BLE_SDK/GD32VW55x_RELEASE_V1.0.2/MSDK/lwip/lwip-2.1.2/port\wifi_netif.c **** 
 522:C:/Users/stapi/OneDrive/Desktop/GD32VW553/GD32VW55X_Wifi_BLE_SDK/GD32VW55x_RELEASE_V1.0.2/MSDK/lwip/lwip-2.1.2/port\wifi_netif.c ****     return netif->state;
 523:C:/Users/stapi/OneDrive/Desktop/GD32VW553/GD32VW55X_Wifi_BLE_SDK/GD32VW55x_RELEASE_V1.0.2/MSDK/lwip/lwip-2.1.2/port\wifi_netif.c **** }
 524:C:/Users/stapi/OneDrive/Desktop/GD32VW553/GD32VW55X_Wifi_BLE_SDK/GD32VW55x_RELEASE_V1.0.2/MSDK/lwip/lwip-2.1.2/port\wifi_netif.c **** 
 525:C:/Users/stapi/OneDrive/Desktop/GD32VW553/GD32VW55X_Wifi_BLE_SDK/GD32VW55x_RELEASE_V1.0.2/MSDK/lwip/lwip-2.1.2/port\wifi_netif.c **** /*!
 526:C:/Users/stapi/OneDrive/Desktop/GD32VW553/GD32VW55X_Wifi_BLE_SDK/GD32VW55x_RELEASE_V1.0.2/MSDK/lwip/lwip-2.1.2/port\wifi_netif.c ****     \brief      Allocate a buffer for TX.
 527:C:/Users/stapi/OneDrive/Desktop/GD32VW553/GD32VW55X_Wifi_BLE_SDK/GD32VW55x_RELEASE_V1.0.2/MSDK/lwip/lwip-2.1.2/port\wifi_netif.c ****                 This function is used to transmit buffer that do not originate from the
 528:C:/Users/stapi/OneDrive/Desktop/GD32VW553/GD32VW55X_Wifi_BLE_SDK/GD32VW55x_RELEASE_V1.0.2/MSDK/lwip/lwip-2.1.2/port\wifi_netif.c ****                 Network Stack. (e.g. a management frame sent by wpa)
 529:C:/Users/stapi/OneDrive/Desktop/GD32VW553/GD32VW55X_Wifi_BLE_SDK/GD32VW55x_RELEASE_V1.0.2/MSDK/lwip/lwip-2.1.2/port\wifi_netif.c ****                 This function allocates a buffer for transmission. The buffer must still
 530:C:/Users/stapi/OneDrive/Desktop/GD32VW553/GD32VW55X_Wifi_BLE_SDK/GD32VW55x_RELEASE_V1.0.2/MSDK/lwip/lwip-2.1.2/port\wifi_netif.c ****                 reserve @ref NET_AL_TX_HEADROOM headroom space like for regular TX buffers.
 531:C:/Users/stapi/OneDrive/Desktop/GD32VW553/GD32VW55X_Wifi_BLE_SDK/GD32VW55x_RELEASE_V1.0.2/MSDK/lwip/lwip-2.1.2/port\wifi_netif.c ****     \param[in]  length: Size, in bytes, of the payload
 532:C:/Users/stapi/OneDrive/Desktop/GD32VW553/GD32VW55X_Wifi_BLE_SDK/GD32VW55x_RELEASE_V1.0.2/MSDK/lwip/lwip-2.1.2/port\wifi_netif.c ****     \param[out] none
 533:C:/Users/stapi/OneDrive/Desktop/GD32VW553/GD32VW55X_Wifi_BLE_SDK/GD32VW55x_RELEASE_V1.0.2/MSDK/lwip/lwip-2.1.2/port\wifi_netif.c ****     \retval     The pointer to the allocated TX buffer and NULL if allocation failed
 534:C:/Users/stapi/OneDrive/Desktop/GD32VW553/GD32VW55X_Wifi_BLE_SDK/GD32VW55x_RELEASE_V1.0.2/MSDK/lwip/lwip-2.1.2/port\wifi_netif.c **** */
 535:C:/Users/stapi/OneDrive/Desktop/GD32VW553/GD32VW55X_Wifi_BLE_SDK/GD32VW55x_RELEASE_V1.0.2/MSDK/lwip/lwip-2.1.2/port\wifi_netif.c **** net_buf_tx_t *net_buf_tx_alloc(uint32_t length)
 536:C:/Users/stapi/OneDrive/Desktop/GD32VW553/GD32VW55X_Wifi_BLE_SDK/GD32VW55x_RELEASE_V1.0.2/MSDK/lwip/lwip-2.1.2/port\wifi_netif.c **** {
 537:C:/Users/stapi/OneDrive/Desktop/GD32VW553/GD32VW55X_Wifi_BLE_SDK/GD32VW55x_RELEASE_V1.0.2/MSDK/lwip/lwip-2.1.2/port\wifi_netif.c ****     struct pbuf *pbuf;
 538:C:/Users/stapi/OneDrive/Desktop/GD32VW553/GD32VW55X_Wifi_BLE_SDK/GD32VW55x_RELEASE_V1.0.2/MSDK/lwip/lwip-2.1.2/port\wifi_netif.c **** 
 539:C:/Users/stapi/OneDrive/Desktop/GD32VW553/GD32VW55X_Wifi_BLE_SDK/GD32VW55x_RELEASE_V1.0.2/MSDK/lwip/lwip-2.1.2/port\wifi_netif.c ****     pbuf = pbuf_alloc(PBUF_RAW_TX, length, PBUF_RAM);
 540:C:/Users/stapi/OneDrive/Desktop/GD32VW553/GD32VW55X_Wifi_BLE_SDK/GD32VW55x_RELEASE_V1.0.2/MSDK/lwip/lwip-2.1.2/port\wifi_netif.c ****     if (pbuf == NULL)
 541:C:/Users/stapi/OneDrive/Desktop/GD32VW553/GD32VW55X_Wifi_BLE_SDK/GD32VW55x_RELEASE_V1.0.2/MSDK/lwip/lwip-2.1.2/port\wifi_netif.c ****         return NULL;
 542:C:/Users/stapi/OneDrive/Desktop/GD32VW553/GD32VW55X_Wifi_BLE_SDK/GD32VW55x_RELEASE_V1.0.2/MSDK/lwip/lwip-2.1.2/port\wifi_netif.c **** 
 543:C:/Users/stapi/OneDrive/Desktop/GD32VW553/GD32VW55X_Wifi_BLE_SDK/GD32VW55x_RELEASE_V1.0.2/MSDK/lwip/lwip-2.1.2/port\wifi_netif.c ****     return pbuf;
 544:C:/Users/stapi/OneDrive/Desktop/GD32VW553/GD32VW55X_Wifi_BLE_SDK/GD32VW55x_RELEASE_V1.0.2/MSDK/lwip/lwip-2.1.2/port\wifi_netif.c **** }
 545:C:/Users/stapi/OneDrive/Desktop/GD32VW553/GD32VW55X_Wifi_BLE_SDK/GD32VW55x_RELEASE_V1.0.2/MSDK/lwip/lwip-2.1.2/port\wifi_netif.c **** 
 546:C:/Users/stapi/OneDrive/Desktop/GD32VW553/GD32VW55X_Wifi_BLE_SDK/GD32VW55x_RELEASE_V1.0.2/MSDK/lwip/lwip-2.1.2/port\wifi_netif.c **** /*!
 547:C:/Users/stapi/OneDrive/Desktop/GD32VW553/GD32VW55X_Wifi_BLE_SDK/GD32VW55x_RELEASE_V1.0.2/MSDK/lwip/lwip-2.1.2/port\wifi_netif.c ****     \brief      Allocate a buffer for TX with a reference to a payload.
 548:C:/Users/stapi/OneDrive/Desktop/GD32VW553/GD32VW55X_Wifi_BLE_SDK/GD32VW55x_RELEASE_V1.0.2/MSDK/lwip/lwip-2.1.2/port\wifi_netif.c ****                 This function allocates a buffer for transmission. It only allocates
 549:C:/Users/stapi/OneDrive/Desktop/GD32VW553/GD32VW55X_Wifi_BLE_SDK/GD32VW55x_RELEASE_V1.0.2/MSDK/lwip/lwip-2.1.2/port\wifi_netif.c ****                 memory for the TX buffer structure. The pointer to the payload
 550:C:/Users/stapi/OneDrive/Desktop/GD32VW553/GD32VW55X_Wifi_BLE_SDK/GD32VW55x_RELEASE_V1.0.2/MSDK/lwip/lwip-2.1.2/port\wifi_netif.c ****                 is set to NULL and should be updated.
 551:C:/Users/stapi/OneDrive/Desktop/GD32VW553/GD32VW55X_Wifi_BLE_SDK/GD32VW55x_RELEASE_V1.0.2/MSDK/lwip/lwip-2.1.2/port\wifi_netif.c ****     \param[in]  length: Size, in bytes, of the payload
 552:C:/Users/stapi/OneDrive/Desktop/GD32VW553/GD32VW55X_Wifi_BLE_SDK/GD32VW55x_RELEASE_V1.0.2/MSDK/lwip/lwip-2.1.2/port\wifi_netif.c ****     \param[out] none
 553:C:/Users/stapi/OneDrive/Desktop/GD32VW553/GD32VW55X_Wifi_BLE_SDK/GD32VW55x_RELEASE_V1.0.2/MSDK/lwip/lwip-2.1.2/port\wifi_netif.c ****     \retval     The pointer to the allocated TX buffer and NULL if allocation failed
 554:C:/Users/stapi/OneDrive/Desktop/GD32VW553/GD32VW55X_Wifi_BLE_SDK/GD32VW55x_RELEASE_V1.0.2/MSDK/lwip/lwip-2.1.2/port\wifi_netif.c **** */
 555:C:/Users/stapi/OneDrive/Desktop/GD32VW553/GD32VW55X_Wifi_BLE_SDK/GD32VW55x_RELEASE_V1.0.2/MSDK/lwip/lwip-2.1.2/port\wifi_netif.c **** net_buf_tx_t *net_buf_tx_alloc_ref(uint32_t length)
 556:C:/Users/stapi/OneDrive/Desktop/GD32VW553/GD32VW55X_Wifi_BLE_SDK/GD32VW55x_RELEASE_V1.0.2/MSDK/lwip/lwip-2.1.2/port\wifi_netif.c **** {
 557:C:/Users/stapi/OneDrive/Desktop/GD32VW553/GD32VW55X_Wifi_BLE_SDK/GD32VW55x_RELEASE_V1.0.2/MSDK/lwip/lwip-2.1.2/port\wifi_netif.c ****     struct pbuf *pbuf;
 558:C:/Users/stapi/OneDrive/Desktop/GD32VW553/GD32VW55X_Wifi_BLE_SDK/GD32VW55x_RELEASE_V1.0.2/MSDK/lwip/lwip-2.1.2/port\wifi_netif.c **** 
 559:C:/Users/stapi/OneDrive/Desktop/GD32VW553/GD32VW55X_Wifi_BLE_SDK/GD32VW55x_RELEASE_V1.0.2/MSDK/lwip/lwip-2.1.2/port\wifi_netif.c ****     pbuf = pbuf_alloc(PBUF_RAW_TX, length, PBUF_REF);
 560:C:/Users/stapi/OneDrive/Desktop/GD32VW553/GD32VW55X_Wifi_BLE_SDK/GD32VW55x_RELEASE_V1.0.2/MSDK/lwip/lwip-2.1.2/port\wifi_netif.c ****     if (pbuf == NULL)
 561:C:/Users/stapi/OneDrive/Desktop/GD32VW553/GD32VW55X_Wifi_BLE_SDK/GD32VW55x_RELEASE_V1.0.2/MSDK/lwip/lwip-2.1.2/port\wifi_netif.c ****         return NULL;
 562:C:/Users/stapi/OneDrive/Desktop/GD32VW553/GD32VW55X_Wifi_BLE_SDK/GD32VW55x_RELEASE_V1.0.2/MSDK/lwip/lwip-2.1.2/port\wifi_netif.c **** 
 563:C:/Users/stapi/OneDrive/Desktop/GD32VW553/GD32VW55X_Wifi_BLE_SDK/GD32VW55x_RELEASE_V1.0.2/MSDK/lwip/lwip-2.1.2/port\wifi_netif.c ****     return pbuf;
 564:C:/Users/stapi/OneDrive/Desktop/GD32VW553/GD32VW55X_Wifi_BLE_SDK/GD32VW55x_RELEASE_V1.0.2/MSDK/lwip/lwip-2.1.2/port\wifi_netif.c **** }
 565:C:/Users/stapi/OneDrive/Desktop/GD32VW553/GD32VW55X_Wifi_BLE_SDK/GD32VW55x_RELEASE_V1.0.2/MSDK/lwip/lwip-2.1.2/port\wifi_netif.c **** 
 566:C:/Users/stapi/OneDrive/Desktop/GD32VW553/GD32VW55X_Wifi_BLE_SDK/GD32VW55x_RELEASE_V1.0.2/MSDK/lwip/lwip-2.1.2/port\wifi_netif.c **** /*!
 567:C:/Users/stapi/OneDrive/Desktop/GD32VW553/GD32VW55X_Wifi_BLE_SDK/GD32VW55x_RELEASE_V1.0.2/MSDK/lwip/lwip-2.1.2/port\wifi_netif.c ****     \brief      Provides information on a TX buffer.
 568:C:/Users/stapi/OneDrive/Desktop/GD32VW553/GD32VW55X_Wifi_BLE_SDK/GD32VW55x_RELEASE_V1.0.2/MSDK/lwip/lwip-2.1.2/port\wifi_netif.c ****                 This function is used by the WIFI module before queuing the buffer for
 569:C:/Users/stapi/OneDrive/Desktop/GD32VW553/GD32VW55X_Wifi_BLE_SDK/GD32VW55x_RELEASE_V1.0.2/MSDK/lwip/lwip-2.1.2/port\wifi_netif.c ****                 transmission. This function must returns information (pointer and length)
 570:C:/Users/stapi/OneDrive/Desktop/GD32VW553/GD32VW55X_Wifi_BLE_SDK/GD32VW55x_RELEASE_V1.0.2/MSDK/lwip/lwip-2.1.2/port\wifi_netif.c ****                 on all data segments that compose the buffer. Each buffer must at least
 571:C:/Users/stapi/OneDrive/Desktop/GD32VW553/GD32VW55X_Wifi_BLE_SDK/GD32VW55x_RELEASE_V1.0.2/MSDK/lwip/lwip-2.1.2/port\wifi_netif.c ****                 have one data segment. It must also return a pointer to the headroom
 572:C:/Users/stapi/OneDrive/Desktop/GD32VW553/GD32VW55X_Wifi_BLE_SDK/GD32VW55x_RELEASE_V1.0.2/MSDK/lwip/lwip-2.1.2/port\wifi_netif.c ****                 (of size @ref NET_AL_TX_HEADROOM) which must be reserved for each TX
 573:C:/Users/stapi/OneDrive/Desktop/GD32VW553/GD32VW55X_Wifi_BLE_SDK/GD32VW55x_RELEASE_V1.0.2/MSDK/lwip/lwip-2.1.2/port\wifi_netif.c ****                 buffer on their first data segment.
 574:C:/Users/stapi/OneDrive/Desktop/GD32VW553/GD32VW55X_Wifi_BLE_SDK/GD32VW55x_RELEASE_V1.0.2/MSDK/lwip/lwip-2.1.2/port\wifi_netif.c ****     \param[in]      buf: Pointer to the TX buffer structure
 575:C:/Users/stapi/OneDrive/Desktop/GD32VW553/GD32VW55X_Wifi_BLE_SDK/GD32VW55x_RELEASE_V1.0.2/MSDK/lwip/lwip-2.1.2/port\wifi_netif.c ****     \param[in]      tot_len: Total size in bytes on the buffer (includes size of all data segment)
 576:C:/Users/stapi/OneDrive/Desktop/GD32VW553/GD32VW55X_Wifi_BLE_SDK/GD32VW55x_RELEASE_V1.0.2/MSDK/lwip/lwip-2.1.2/port\wifi_netif.c ****     \param[in,out]  seg_cnt: Contains the maximum number of data segment supported (i.e.
 577:C:/Users/stapi/OneDrive/Desktop/GD32VW553/GD32VW55X_Wifi_BLE_SDK/GD32VW55x_RELEASE_V1.0.2/MSDK/lwip/lwip-2.1.2/port\wifi_netif.c ****                              the size of @p seg_addr and @p seg_len parameter) and must be
 578:C:/Users/stapi/OneDrive/Desktop/GD32VW553/GD32VW55X_Wifi_BLE_SDK/GD32VW55x_RELEASE_V1.0.2/MSDK/lwip/lwip-2.1.2/port\wifi_netif.c ****                              updated with the actual number of segment in this buffer.
 579:C:/Users/stapi/OneDrive/Desktop/GD32VW553/GD32VW55X_Wifi_BLE_SDK/GD32VW55x_RELEASE_V1.0.2/MSDK/lwip/lwip-2.1.2/port\wifi_netif.c ****     \param[out]     seg_addr: Table to retrieve the address of each segment.
 580:C:/Users/stapi/OneDrive/Desktop/GD32VW553/GD32VW55X_Wifi_BLE_SDK/GD32VW55x_RELEASE_V1.0.2/MSDK/lwip/lwip-2.1.2/port\wifi_netif.c ****     \param[out]     seg_len: Table to retrieve the length, in bytes, of each segment.
 581:C:/Users/stapi/OneDrive/Desktop/GD32VW553/GD32VW55X_Wifi_BLE_SDK/GD32VW55x_RELEASE_V1.0.2/MSDK/lwip/lwip-2.1.2/port\wifi_netif.c ****     \retval     The pointer to the headroom reserved at the beginning of the first data segment
 582:C:/Users/stapi/OneDrive/Desktop/GD32VW553/GD32VW55X_Wifi_BLE_SDK/GD32VW55x_RELEASE_V1.0.2/MSDK/lwip/lwip-2.1.2/port\wifi_netif.c **** */
 583:C:/Users/stapi/OneDrive/Desktop/GD32VW553/GD32VW55X_Wifi_BLE_SDK/GD32VW55x_RELEASE_V1.0.2/MSDK/lwip/lwip-2.1.2/port\wifi_netif.c **** void *net_buf_tx_info(net_buf_tx_t *buf, uint16_t *tot_len, int *seg_cnt,
 584:C:/Users/stapi/OneDrive/Desktop/GD32VW553/GD32VW55X_Wifi_BLE_SDK/GD32VW55x_RELEASE_V1.0.2/MSDK/lwip/lwip-2.1.2/port\wifi_netif.c ****                       uint32_t seg_addr[], uint16_t seg_len[])
 585:C:/Users/stapi/OneDrive/Desktop/GD32VW553/GD32VW55X_Wifi_BLE_SDK/GD32VW55x_RELEASE_V1.0.2/MSDK/lwip/lwip-2.1.2/port\wifi_netif.c **** {
 586:C:/Users/stapi/OneDrive/Desktop/GD32VW553/GD32VW55X_Wifi_BLE_SDK/GD32VW55x_RELEASE_V1.0.2/MSDK/lwip/lwip-2.1.2/port\wifi_netif.c ****     int idx, seg_cnt_max = *seg_cnt;
 587:C:/Users/stapi/OneDrive/Desktop/GD32VW553/GD32VW55X_Wifi_BLE_SDK/GD32VW55x_RELEASE_V1.0.2/MSDK/lwip/lwip-2.1.2/port\wifi_netif.c ****     uint16_t length = buf->tot_len;
 588:C:/Users/stapi/OneDrive/Desktop/GD32VW553/GD32VW55X_Wifi_BLE_SDK/GD32VW55x_RELEASE_V1.0.2/MSDK/lwip/lwip-2.1.2/port\wifi_netif.c ****     void *headroom;
 589:C:/Users/stapi/OneDrive/Desktop/GD32VW553/GD32VW55X_Wifi_BLE_SDK/GD32VW55x_RELEASE_V1.0.2/MSDK/lwip/lwip-2.1.2/port\wifi_netif.c **** 
 590:C:/Users/stapi/OneDrive/Desktop/GD32VW553/GD32VW55X_Wifi_BLE_SDK/GD32VW55x_RELEASE_V1.0.2/MSDK/lwip/lwip-2.1.2/port\wifi_netif.c ****     *tot_len = length;
 591:C:/Users/stapi/OneDrive/Desktop/GD32VW553/GD32VW55X_Wifi_BLE_SDK/GD32VW55x_RELEASE_V1.0.2/MSDK/lwip/lwip-2.1.2/port\wifi_netif.c **** 
 592:C:/Users/stapi/OneDrive/Desktop/GD32VW553/GD32VW55X_Wifi_BLE_SDK/GD32VW55x_RELEASE_V1.0.2/MSDK/lwip/lwip-2.1.2/port\wifi_netif.c ****     // Sanity check - the payload shall be in shared RAM
 593:C:/Users/stapi/OneDrive/Desktop/GD32VW553/GD32VW55X_Wifi_BLE_SDK/GD32VW55x_RELEASE_V1.0.2/MSDK/lwip/lwip-2.1.2/port\wifi_netif.c ****     // GD32VW55X_TODO need check why?
 594:C:/Users/stapi/OneDrive/Desktop/GD32VW553/GD32VW55X_Wifi_BLE_SDK/GD32VW55x_RELEASE_V1.0.2/MSDK/lwip/lwip-2.1.2/port\wifi_netif.c ****     // ASSERT_ERR(!TST_SHRAM_PTR(buf->payload));
 595:C:/Users/stapi/OneDrive/Desktop/GD32VW553/GD32VW55X_Wifi_BLE_SDK/GD32VW55x_RELEASE_V1.0.2/MSDK/lwip/lwip-2.1.2/port\wifi_netif.c ****     seg_addr[0] = (uint32_t)buf->payload;
 596:C:/Users/stapi/OneDrive/Desktop/GD32VW553/GD32VW55X_Wifi_BLE_SDK/GD32VW55x_RELEASE_V1.0.2/MSDK/lwip/lwip-2.1.2/port\wifi_netif.c ****     seg_len[0] = buf->len;
 597:C:/Users/stapi/OneDrive/Desktop/GD32VW553/GD32VW55X_Wifi_BLE_SDK/GD32VW55x_RELEASE_V1.0.2/MSDK/lwip/lwip-2.1.2/port\wifi_netif.c ****     length -= buf->len;
 598:C:/Users/stapi/OneDrive/Desktop/GD32VW553/GD32VW55X_Wifi_BLE_SDK/GD32VW55x_RELEASE_V1.0.2/MSDK/lwip/lwip-2.1.2/port\wifi_netif.c **** 
 599:C:/Users/stapi/OneDrive/Desktop/GD32VW553/GD32VW55X_Wifi_BLE_SDK/GD32VW55x_RELEASE_V1.0.2/MSDK/lwip/lwip-2.1.2/port\wifi_netif.c ****     // Get pointer to reserved headroom
 600:C:/Users/stapi/OneDrive/Desktop/GD32VW553/GD32VW55X_Wifi_BLE_SDK/GD32VW55x_RELEASE_V1.0.2/MSDK/lwip/lwip-2.1.2/port\wifi_netif.c ****     if (pbuf_header(buf, PBUF_LINK_ENCAPSULATION_HLEN))
 601:C:/Users/stapi/OneDrive/Desktop/GD32VW553/GD32VW55X_Wifi_BLE_SDK/GD32VW55x_RELEASE_V1.0.2/MSDK/lwip/lwip-2.1.2/port\wifi_netif.c ****     {
 602:C:/Users/stapi/OneDrive/Desktop/GD32VW553/GD32VW55X_Wifi_BLE_SDK/GD32VW55x_RELEASE_V1.0.2/MSDK/lwip/lwip-2.1.2/port\wifi_netif.c ****         // Sanity check - we shall have enough space in the buffer
 603:C:/Users/stapi/OneDrive/Desktop/GD32VW553/GD32VW55X_Wifi_BLE_SDK/GD32VW55x_RELEASE_V1.0.2/MSDK/lwip/lwip-2.1.2/port\wifi_netif.c ****         dbg_print(ERR, "pbuf_header() failed\r\n");
 604:C:/Users/stapi/OneDrive/Desktop/GD32VW553/GD32VW55X_Wifi_BLE_SDK/GD32VW55x_RELEASE_V1.0.2/MSDK/lwip/lwip-2.1.2/port\wifi_netif.c ****         return NULL;
 605:C:/Users/stapi/OneDrive/Desktop/GD32VW553/GD32VW55X_Wifi_BLE_SDK/GD32VW55x_RELEASE_V1.0.2/MSDK/lwip/lwip-2.1.2/port\wifi_netif.c ****     }
 606:C:/Users/stapi/OneDrive/Desktop/GD32VW553/GD32VW55X_Wifi_BLE_SDK/GD32VW55x_RELEASE_V1.0.2/MSDK/lwip/lwip-2.1.2/port\wifi_netif.c ****     headroom = (void *)CO_ALIGN4_HI((uint32_t)buf->payload);
 607:C:/Users/stapi/OneDrive/Desktop/GD32VW553/GD32VW55X_Wifi_BLE_SDK/GD32VW55x_RELEASE_V1.0.2/MSDK/lwip/lwip-2.1.2/port\wifi_netif.c **** 
 608:C:/Users/stapi/OneDrive/Desktop/GD32VW553/GD32VW55X_Wifi_BLE_SDK/GD32VW55x_RELEASE_V1.0.2/MSDK/lwip/lwip-2.1.2/port\wifi_netif.c ****     // Get info of extra segments if any
 609:C:/Users/stapi/OneDrive/Desktop/GD32VW553/GD32VW55X_Wifi_BLE_SDK/GD32VW55x_RELEASE_V1.0.2/MSDK/lwip/lwip-2.1.2/port\wifi_netif.c ****     buf = buf->next;
 610:C:/Users/stapi/OneDrive/Desktop/GD32VW553/GD32VW55X_Wifi_BLE_SDK/GD32VW55x_RELEASE_V1.0.2/MSDK/lwip/lwip-2.1.2/port\wifi_netif.c ****     idx = 1;
 611:C:/Users/stapi/OneDrive/Desktop/GD32VW553/GD32VW55X_Wifi_BLE_SDK/GD32VW55x_RELEASE_V1.0.2/MSDK/lwip/lwip-2.1.2/port\wifi_netif.c ****     while (length && buf && (idx < seg_cnt_max))
 612:C:/Users/stapi/OneDrive/Desktop/GD32VW553/GD32VW55X_Wifi_BLE_SDK/GD32VW55x_RELEASE_V1.0.2/MSDK/lwip/lwip-2.1.2/port\wifi_netif.c ****     {
 613:C:/Users/stapi/OneDrive/Desktop/GD32VW553/GD32VW55X_Wifi_BLE_SDK/GD32VW55x_RELEASE_V1.0.2/MSDK/lwip/lwip-2.1.2/port\wifi_netif.c ****         // Sanity check - the payload shall be in shared RAM
 614:C:/Users/stapi/OneDrive/Desktop/GD32VW553/GD32VW55X_Wifi_BLE_SDK/GD32VW55x_RELEASE_V1.0.2/MSDK/lwip/lwip-2.1.2/port\wifi_netif.c ****         // GD32VW55X_TODO why?
 615:C:/Users/stapi/OneDrive/Desktop/GD32VW553/GD32VW55X_Wifi_BLE_SDK/GD32VW55x_RELEASE_V1.0.2/MSDK/lwip/lwip-2.1.2/port\wifi_netif.c ****         // ASSERT_ERR(!TST_SHRAM_PTR(buf->payload));
 616:C:/Users/stapi/OneDrive/Desktop/GD32VW553/GD32VW55X_Wifi_BLE_SDK/GD32VW55x_RELEASE_V1.0.2/MSDK/lwip/lwip-2.1.2/port\wifi_netif.c **** 
 617:C:/Users/stapi/OneDrive/Desktop/GD32VW553/GD32VW55X_Wifi_BLE_SDK/GD32VW55x_RELEASE_V1.0.2/MSDK/lwip/lwip-2.1.2/port\wifi_netif.c ****         seg_addr[idx] = (uint32_t)buf->payload;
 618:C:/Users/stapi/OneDrive/Desktop/GD32VW553/GD32VW55X_Wifi_BLE_SDK/GD32VW55x_RELEASE_V1.0.2/MSDK/lwip/lwip-2.1.2/port\wifi_netif.c ****         seg_len[idx] = buf->len;
 619:C:/Users/stapi/OneDrive/Desktop/GD32VW553/GD32VW55X_Wifi_BLE_SDK/GD32VW55x_RELEASE_V1.0.2/MSDK/lwip/lwip-2.1.2/port\wifi_netif.c ****         length -= buf->len;
 620:C:/Users/stapi/OneDrive/Desktop/GD32VW553/GD32VW55X_Wifi_BLE_SDK/GD32VW55x_RELEASE_V1.0.2/MSDK/lwip/lwip-2.1.2/port\wifi_netif.c ****         idx++;
 621:C:/Users/stapi/OneDrive/Desktop/GD32VW553/GD32VW55X_Wifi_BLE_SDK/GD32VW55x_RELEASE_V1.0.2/MSDK/lwip/lwip-2.1.2/port\wifi_netif.c ****         buf = buf->next;
 622:C:/Users/stapi/OneDrive/Desktop/GD32VW553/GD32VW55X_Wifi_BLE_SDK/GD32VW55x_RELEASE_V1.0.2/MSDK/lwip/lwip-2.1.2/port\wifi_netif.c ****     }
 623:C:/Users/stapi/OneDrive/Desktop/GD32VW553/GD32VW55X_Wifi_BLE_SDK/GD32VW55x_RELEASE_V1.0.2/MSDK/lwip/lwip-2.1.2/port\wifi_netif.c **** 
 624:C:/Users/stapi/OneDrive/Desktop/GD32VW553/GD32VW55X_Wifi_BLE_SDK/GD32VW55x_RELEASE_V1.0.2/MSDK/lwip/lwip-2.1.2/port\wifi_netif.c ****     *seg_cnt = idx;
 625:C:/Users/stapi/OneDrive/Desktop/GD32VW553/GD32VW55X_Wifi_BLE_SDK/GD32VW55x_RELEASE_V1.0.2/MSDK/lwip/lwip-2.1.2/port\wifi_netif.c ****     if (length != 0)
 626:C:/Users/stapi/OneDrive/Desktop/GD32VW553/GD32VW55X_Wifi_BLE_SDK/GD32VW55x_RELEASE_V1.0.2/MSDK/lwip/lwip-2.1.2/port\wifi_netif.c ****     {
 627:C:/Users/stapi/OneDrive/Desktop/GD32VW553/GD32VW55X_Wifi_BLE_SDK/GD32VW55x_RELEASE_V1.0.2/MSDK/lwip/lwip-2.1.2/port\wifi_netif.c ****         // The complete buffer must be included in all the segments
 628:C:/Users/stapi/OneDrive/Desktop/GD32VW553/GD32VW55X_Wifi_BLE_SDK/GD32VW55x_RELEASE_V1.0.2/MSDK/lwip/lwip-2.1.2/port\wifi_netif.c ****         dbg_print(ERR, "remaining length != 0\r\n");
 629:C:/Users/stapi/OneDrive/Desktop/GD32VW553/GD32VW55X_Wifi_BLE_SDK/GD32VW55x_RELEASE_V1.0.2/MSDK/lwip/lwip-2.1.2/port\wifi_netif.c ****         return NULL;
 630:C:/Users/stapi/OneDrive/Desktop/GD32VW553/GD32VW55X_Wifi_BLE_SDK/GD32VW55x_RELEASE_V1.0.2/MSDK/lwip/lwip-2.1.2/port\wifi_netif.c ****     }
 631:C:/Users/stapi/OneDrive/Desktop/GD32VW553/GD32VW55X_Wifi_BLE_SDK/GD32VW55x_RELEASE_V1.0.2/MSDK/lwip/lwip-2.1.2/port\wifi_netif.c **** 
 632:C:/Users/stapi/OneDrive/Desktop/GD32VW553/GD32VW55X_Wifi_BLE_SDK/GD32VW55x_RELEASE_V1.0.2/MSDK/lwip/lwip-2.1.2/port\wifi_netif.c ****     return headroom;
 633:C:/Users/stapi/OneDrive/Desktop/GD32VW553/GD32VW55X_Wifi_BLE_SDK/GD32VW55x_RELEASE_V1.0.2/MSDK/lwip/lwip-2.1.2/port\wifi_netif.c **** }
 634:C:/Users/stapi/OneDrive/Desktop/GD32VW553/GD32VW55X_Wifi_BLE_SDK/GD32VW55x_RELEASE_V1.0.2/MSDK/lwip/lwip-2.1.2/port\wifi_netif.c **** 
 635:C:/Users/stapi/OneDrive/Desktop/GD32VW553/GD32VW55X_Wifi_BLE_SDK/GD32VW55x_RELEASE_V1.0.2/MSDK/lwip/lwip-2.1.2/port\wifi_netif.c **** /*!
 636:C:/Users/stapi/OneDrive/Desktop/GD32VW553/GD32VW55X_Wifi_BLE_SDK/GD32VW55x_RELEASE_V1.0.2/MSDK/lwip/lwip-2.1.2/port\wifi_netif.c ****     \brief      Free a TX buffer that was involved in a transmission.
 637:C:/Users/stapi/OneDrive/Desktop/GD32VW553/GD32VW55X_Wifi_BLE_SDK/GD32VW55x_RELEASE_V1.0.2/MSDK/lwip/lwip-2.1.2/port\wifi_netif.c ****     \param[in]  buf: Pointer to the TX buffer structure
 638:C:/Users/stapi/OneDrive/Desktop/GD32VW553/GD32VW55X_Wifi_BLE_SDK/GD32VW55x_RELEASE_V1.0.2/MSDK/lwip/lwip-2.1.2/port\wifi_netif.c ****     \param[out] none
 639:C:/Users/stapi/OneDrive/Desktop/GD32VW553/GD32VW55X_Wifi_BLE_SDK/GD32VW55x_RELEASE_V1.0.2/MSDK/lwip/lwip-2.1.2/port\wifi_netif.c ****     \retval     none
 640:C:/Users/stapi/OneDrive/Desktop/GD32VW553/GD32VW55X_Wifi_BLE_SDK/GD32VW55x_RELEASE_V1.0.2/MSDK/lwip/lwip-2.1.2/port\wifi_netif.c **** */
 641:C:/Users/stapi/OneDrive/Desktop/GD32VW553/GD32VW55X_Wifi_BLE_SDK/GD32VW55x_RELEASE_V1.0.2/MSDK/lwip/lwip-2.1.2/port\wifi_netif.c **** void net_buf_tx_free(net_buf_tx_t *buf)
 642:C:/Users/stapi/OneDrive/Desktop/GD32VW553/GD32VW55X_Wifi_BLE_SDK/GD32VW55x_RELEASE_V1.0.2/MSDK/lwip/lwip-2.1.2/port\wifi_netif.c **** {
 643:C:/Users/stapi/OneDrive/Desktop/GD32VW553/GD32VW55X_Wifi_BLE_SDK/GD32VW55x_RELEASE_V1.0.2/MSDK/lwip/lwip-2.1.2/port\wifi_netif.c ****     // Remove the link encapsulation header
 644:C:/Users/stapi/OneDrive/Desktop/GD32VW553/GD32VW55X_Wifi_BLE_SDK/GD32VW55x_RELEASE_V1.0.2/MSDK/lwip/lwip-2.1.2/port\wifi_netif.c ****     pbuf_header(buf, -PBUF_LINK_ENCAPSULATION_HLEN);
 645:C:/Users/stapi/OneDrive/Desktop/GD32VW553/GD32VW55X_Wifi_BLE_SDK/GD32VW55x_RELEASE_V1.0.2/MSDK/lwip/lwip-2.1.2/port\wifi_netif.c **** 
 646:C:/Users/stapi/OneDrive/Desktop/GD32VW553/GD32VW55X_Wifi_BLE_SDK/GD32VW55x_RELEASE_V1.0.2/MSDK/lwip/lwip-2.1.2/port\wifi_netif.c ****     // Free the buffer
 647:C:/Users/stapi/OneDrive/Desktop/GD32VW553/GD32VW55X_Wifi_BLE_SDK/GD32VW55x_RELEASE_V1.0.2/MSDK/lwip/lwip-2.1.2/port\wifi_netif.c ****     pbuf_free(buf);
 648:C:/Users/stapi/OneDrive/Desktop/GD32VW553/GD32VW55X_Wifi_BLE_SDK/GD32VW55x_RELEASE_V1.0.2/MSDK/lwip/lwip-2.1.2/port\wifi_netif.c **** }
 649:C:/Users/stapi/OneDrive/Desktop/GD32VW553/GD32VW55X_Wifi_BLE_SDK/GD32VW55x_RELEASE_V1.0.2/MSDK/lwip/lwip-2.1.2/port\wifi_netif.c **** 
 650:C:/Users/stapi/OneDrive/Desktop/GD32VW553/GD32VW55X_Wifi_BLE_SDK/GD32VW55x_RELEASE_V1.0.2/MSDK/lwip/lwip-2.1.2/port\wifi_netif.c **** /*!
 651:C:/Users/stapi/OneDrive/Desktop/GD32VW553/GD32VW55X_Wifi_BLE_SDK/GD32VW55x_RELEASE_V1.0.2/MSDK/lwip/lwip-2.1.2/port\wifi_netif.c ****     \brief      Concatenate 2 Tx buffers
 652:C:/Users/stapi/OneDrive/Desktop/GD32VW553/GD32VW55X_Wifi_BLE_SDK/GD32VW55x_RELEASE_V1.0.2/MSDK/lwip/lwip-2.1.2/port\wifi_netif.c ****     \param[in]  buf1: Pointer to the TX buffer structure 1
 653:C:/Users/stapi/OneDrive/Desktop/GD32VW553/GD32VW55X_Wifi_BLE_SDK/GD32VW55x_RELEASE_V1.0.2/MSDK/lwip/lwip-2.1.2/port\wifi_netif.c ****     \param[in]  buf2: Pointer to the TX buffer structure 2
 654:C:/Users/stapi/OneDrive/Desktop/GD32VW553/GD32VW55X_Wifi_BLE_SDK/GD32VW55x_RELEASE_V1.0.2/MSDK/lwip/lwip-2.1.2/port\wifi_netif.c ****     \param[out] none
 655:C:/Users/stapi/OneDrive/Desktop/GD32VW553/GD32VW55X_Wifi_BLE_SDK/GD32VW55x_RELEASE_V1.0.2/MSDK/lwip/lwip-2.1.2/port\wifi_netif.c ****     \retval     none
 656:C:/Users/stapi/OneDrive/Desktop/GD32VW553/GD32VW55X_Wifi_BLE_SDK/GD32VW55x_RELEASE_V1.0.2/MSDK/lwip/lwip-2.1.2/port\wifi_netif.c **** */
 657:C:/Users/stapi/OneDrive/Desktop/GD32VW553/GD32VW55X_Wifi_BLE_SDK/GD32VW55x_RELEASE_V1.0.2/MSDK/lwip/lwip-2.1.2/port\wifi_netif.c **** void net_buf_tx_cat(net_buf_tx_t *net_buf_tx_1, net_buf_tx_t *net_buf_tx_2)
 658:C:/Users/stapi/OneDrive/Desktop/GD32VW553/GD32VW55X_Wifi_BLE_SDK/GD32VW55x_RELEASE_V1.0.2/MSDK/lwip/lwip-2.1.2/port\wifi_netif.c **** {
 659:C:/Users/stapi/OneDrive/Desktop/GD32VW553/GD32VW55X_Wifi_BLE_SDK/GD32VW55x_RELEASE_V1.0.2/MSDK/lwip/lwip-2.1.2/port\wifi_netif.c ****     pbuf_cat(net_buf_tx_1, net_buf_tx_2);
 660:C:/Users/stapi/OneDrive/Desktop/GD32VW553/GD32VW55X_Wifi_BLE_SDK/GD32VW55x_RELEASE_V1.0.2/MSDK/lwip/lwip-2.1.2/port\wifi_netif.c **** }
 661:C:/Users/stapi/OneDrive/Desktop/GD32VW553/GD32VW55X_Wifi_BLE_SDK/GD32VW55x_RELEASE_V1.0.2/MSDK/lwip/lwip-2.1.2/port\wifi_netif.c **** 
 662:C:/Users/stapi/OneDrive/Desktop/GD32VW553/GD32VW55X_Wifi_BLE_SDK/GD32VW55x_RELEASE_V1.0.2/MSDK/lwip/lwip-2.1.2/port\wifi_netif.c **** #if 0
 663:C:/Users/stapi/OneDrive/Desktop/GD32VW553/GD32VW55X_Wifi_BLE_SDK/GD32VW55x_RELEASE_V1.0.2/MSDK/lwip/lwip-2.1.2/port\wifi_netif.c **** static void net_buf_rx_free(net_buf_rx_t *buf)
 664:C:/Users/stapi/OneDrive/Desktop/GD32VW553/GD32VW55X_Wifi_BLE_SDK/GD32VW55x_RELEASE_V1.0.2/MSDK/lwip/lwip-2.1.2/port\wifi_netif.c **** {
 665:C:/Users/stapi/OneDrive/Desktop/GD32VW553/GD32VW55X_Wifi_BLE_SDK/GD32VW55x_RELEASE_V1.0.2/MSDK/lwip/lwip-2.1.2/port\wifi_netif.c ****     // Free the buffer
 666:C:/Users/stapi/OneDrive/Desktop/GD32VW553/GD32VW55X_Wifi_BLE_SDK/GD32VW55x_RELEASE_V1.0.2/MSDK/lwip/lwip-2.1.2/port\wifi_netif.c ****     pbuf_free(&buf->pbuf);
 667:C:/Users/stapi/OneDrive/Desktop/GD32VW553/GD32VW55X_Wifi_BLE_SDK/GD32VW55x_RELEASE_V1.0.2/MSDK/lwip/lwip-2.1.2/port\wifi_netif.c **** }
 668:C:/Users/stapi/OneDrive/Desktop/GD32VW553/GD32VW55X_Wifi_BLE_SDK/GD32VW55x_RELEASE_V1.0.2/MSDK/lwip/lwip-2.1.2/port\wifi_netif.c **** #endif
 669:C:/Users/stapi/OneDrive/Desktop/GD32VW553/GD32VW55X_Wifi_BLE_SDK/GD32VW55x_RELEASE_V1.0.2/MSDK/lwip/lwip-2.1.2/port\wifi_netif.c **** 
 670:C:/Users/stapi/OneDrive/Desktop/GD32VW553/GD32VW55X_Wifi_BLE_SDK/GD32VW55x_RELEASE_V1.0.2/MSDK/lwip/lwip-2.1.2/port\wifi_netif.c **** #if 0
 671:C:/Users/stapi/OneDrive/Desktop/GD32VW553/GD32VW55X_Wifi_BLE_SDK/GD32VW55x_RELEASE_V1.0.2/MSDK/lwip/lwip-2.1.2/port\wifi_netif.c **** /**
 672:C:/Users/stapi/OneDrive/Desktop/GD32VW553/GD32VW55X_Wifi_BLE_SDK/GD32VW55x_RELEASE_V1.0.2/MSDK/lwip/lwip-2.1.2/port\wifi_netif.c ****  ****************************************************************************************
 673:C:/Users/stapi/OneDrive/Desktop/GD32VW553/GD32VW55X_Wifi_BLE_SDK/GD32VW55x_RELEASE_V1.0.2/MSDK/lwip/lwip-2.1.2/port\wifi_netif.c ****  * @brief Callback when lwip init is done
 674:C:/Users/stapi/OneDrive/Desktop/GD32VW553/GD32VW55X_Wifi_BLE_SDK/GD32VW55x_RELEASE_V1.0.2/MSDK/lwip/lwip-2.1.2/port\wifi_netif.c ****  *
 675:C:/Users/stapi/OneDrive/Desktop/GD32VW553/GD32VW55X_Wifi_BLE_SDK/GD32VW55x_RELEASE_V1.0.2/MSDK/lwip/lwip-2.1.2/port\wifi_netif.c ****  * @param[in] arg Not used
 676:C:/Users/stapi/OneDrive/Desktop/GD32VW553/GD32VW55X_Wifi_BLE_SDK/GD32VW55x_RELEASE_V1.0.2/MSDK/lwip/lwip-2.1.2/port\wifi_netif.c ****  ****************************************************************************************
 677:C:/Users/stapi/OneDrive/Desktop/GD32VW553/GD32VW55X_Wifi_BLE_SDK/GD32VW55x_RELEASE_V1.0.2/MSDK/lwip/lwip-2.1.2/port\wifi_netif.c ****  */
 678:C:/Users/stapi/OneDrive/Desktop/GD32VW553/GD32VW55X_Wifi_BLE_SDK/GD32VW55x_RELEASE_V1.0.2/MSDK/lwip/lwip-2.1.2/port\wifi_netif.c **** static void net_init_done(void *arg)
 679:C:/Users/stapi/OneDrive/Desktop/GD32VW553/GD32VW55X_Wifi_BLE_SDK/GD32VW55x_RELEASE_V1.0.2/MSDK/lwip/lwip-2.1.2/port\wifi_netif.c **** {
 680:C:/Users/stapi/OneDrive/Desktop/GD32VW553/GD32VW55X_Wifi_BLE_SDK/GD32VW55x_RELEASE_V1.0.2/MSDK/lwip/lwip-2.1.2/port\wifi_netif.c ****     wifi_task_ready(IP_TASK);
 681:C:/Users/stapi/OneDrive/Desktop/GD32VW553/GD32VW55X_Wifi_BLE_SDK/GD32VW55x_RELEASE_V1.0.2/MSDK/lwip/lwip-2.1.2/port\wifi_netif.c **** }
 682:C:/Users/stapi/OneDrive/Desktop/GD32VW553/GD32VW55X_Wifi_BLE_SDK/GD32VW55x_RELEASE_V1.0.2/MSDK/lwip/lwip-2.1.2/port\wifi_netif.c **** #endif
 683:C:/Users/stapi/OneDrive/Desktop/GD32VW553/GD32VW55X_Wifi_BLE_SDK/GD32VW55x_RELEASE_V1.0.2/MSDK/lwip/lwip-2.1.2/port\wifi_netif.c **** 
 684:C:/Users/stapi/OneDrive/Desktop/GD32VW553/GD32VW55X_Wifi_BLE_SDK/GD32VW55x_RELEASE_V1.0.2/MSDK/lwip/lwip-2.1.2/port\wifi_netif.c **** /*!
 685:C:/Users/stapi/OneDrive/Desktop/GD32VW553/GD32VW55X_Wifi_BLE_SDK/GD32VW55x_RELEASE_V1.0.2/MSDK/lwip/lwip-2.1.2/port\wifi_netif.c ****     \brief      Initialize some resources for L2
 686:C:/Users/stapi/OneDrive/Desktop/GD32VW553/GD32VW55X_Wifi_BLE_SDK/GD32VW55x_RELEASE_V1.0.2/MSDK/lwip/lwip-2.1.2/port\wifi_netif.c ****     \param[in]  none
 687:C:/Users/stapi/OneDrive/Desktop/GD32VW553/GD32VW55X_Wifi_BLE_SDK/GD32VW55x_RELEASE_V1.0.2/MSDK/lwip/lwip-2.1.2/port\wifi_netif.c ****     \param[out] none
 688:C:/Users/stapi/OneDrive/Desktop/GD32VW553/GD32VW55X_Wifi_BLE_SDK/GD32VW55x_RELEASE_V1.0.2/MSDK/lwip/lwip-2.1.2/port\wifi_netif.c ****     \retval     0 on success and != 0 if error occured
 689:C:/Users/stapi/OneDrive/Desktop/GD32VW553/GD32VW55X_Wifi_BLE_SDK/GD32VW55x_RELEASE_V1.0.2/MSDK/lwip/lwip-2.1.2/port\wifi_netif.c **** */
 690:C:/Users/stapi/OneDrive/Desktop/GD32VW553/GD32VW55X_Wifi_BLE_SDK/GD32VW55x_RELEASE_V1.0.2/MSDK/lwip/lwip-2.1.2/port\wifi_netif.c **** int net_init(void)
 691:C:/Users/stapi/OneDrive/Desktop/GD32VW553/GD32VW55X_Wifi_BLE_SDK/GD32VW55x_RELEASE_V1.0.2/MSDK/lwip/lwip-2.1.2/port\wifi_netif.c **** {
 692:C:/Users/stapi/OneDrive/Desktop/GD32VW553/GD32VW55X_Wifi_BLE_SDK/GD32VW55x_RELEASE_V1.0.2/MSDK/lwip/lwip-2.1.2/port\wifi_netif.c ****     int i;
 693:C:/Users/stapi/OneDrive/Desktop/GD32VW553/GD32VW55X_Wifi_BLE_SDK/GD32VW55x_RELEASE_V1.0.2/MSDK/lwip/lwip-2.1.2/port\wifi_netif.c **** 
 694:C:/Users/stapi/OneDrive/Desktop/GD32VW553/GD32VW55X_Wifi_BLE_SDK/GD32VW55x_RELEASE_V1.0.2/MSDK/lwip/lwip-2.1.2/port\wifi_netif.c ****     for (i = 0; i < WIFI_NB_L2_FILTER; i++)
 695:C:/Users/stapi/OneDrive/Desktop/GD32VW553/GD32VW55X_Wifi_BLE_SDK/GD32VW55x_RELEASE_V1.0.2/MSDK/lwip/lwip-2.1.2/port\wifi_netif.c ****     {
 696:C:/Users/stapi/OneDrive/Desktop/GD32VW553/GD32VW55X_Wifi_BLE_SDK/GD32VW55x_RELEASE_V1.0.2/MSDK/lwip/lwip-2.1.2/port\wifi_netif.c ****         l2_filter[i].net_if = NULL;
 697:C:/Users/stapi/OneDrive/Desktop/GD32VW553/GD32VW55X_Wifi_BLE_SDK/GD32VW55x_RELEASE_V1.0.2/MSDK/lwip/lwip-2.1.2/port\wifi_netif.c ****     }
 698:C:/Users/stapi/OneDrive/Desktop/GD32VW553/GD32VW55X_Wifi_BLE_SDK/GD32VW55x_RELEASE_V1.0.2/MSDK/lwip/lwip-2.1.2/port\wifi_netif.c **** 
 699:C:/Users/stapi/OneDrive/Desktop/GD32VW553/GD32VW55X_Wifi_BLE_SDK/GD32VW55x_RELEASE_V1.0.2/MSDK/lwip/lwip-2.1.2/port\wifi_netif.c ****     if (sys_sema_init_ext(&l2_semaphore, 1, 0))
 700:C:/Users/stapi/OneDrive/Desktop/GD32VW553/GD32VW55X_Wifi_BLE_SDK/GD32VW55x_RELEASE_V1.0.2/MSDK/lwip/lwip-2.1.2/port\wifi_netif.c ****     {
 701:C:/Users/stapi/OneDrive/Desktop/GD32VW553/GD32VW55X_Wifi_BLE_SDK/GD32VW55x_RELEASE_V1.0.2/MSDK/lwip/lwip-2.1.2/port\wifi_netif.c ****         dbg_print(ERR, "sys sema init failed\r\n");
 702:C:/Users/stapi/OneDrive/Desktop/GD32VW553/GD32VW55X_Wifi_BLE_SDK/GD32VW55x_RELEASE_V1.0.2/MSDK/lwip/lwip-2.1.2/port\wifi_netif.c ****         return -1;
 703:C:/Users/stapi/OneDrive/Desktop/GD32VW553/GD32VW55X_Wifi_BLE_SDK/GD32VW55x_RELEASE_V1.0.2/MSDK/lwip/lwip-2.1.2/port\wifi_netif.c ****     }
 704:C:/Users/stapi/OneDrive/Desktop/GD32VW553/GD32VW55X_Wifi_BLE_SDK/GD32VW55x_RELEASE_V1.0.2/MSDK/lwip/lwip-2.1.2/port\wifi_netif.c **** 
 705:C:/Users/stapi/OneDrive/Desktop/GD32VW553/GD32VW55X_Wifi_BLE_SDK/GD32VW55x_RELEASE_V1.0.2/MSDK/lwip/lwip-2.1.2/port\wifi_netif.c ****     sys_mutex_init(&l2_mutex);
 706:C:/Users/stapi/OneDrive/Desktop/GD32VW553/GD32VW55X_Wifi_BLE_SDK/GD32VW55x_RELEASE_V1.0.2/MSDK/lwip/lwip-2.1.2/port\wifi_netif.c ****     if (l2_mutex == NULL)
 707:C:/Users/stapi/OneDrive/Desktop/GD32VW553/GD32VW55X_Wifi_BLE_SDK/GD32VW55x_RELEASE_V1.0.2/MSDK/lwip/lwip-2.1.2/port\wifi_netif.c ****     {
 708:C:/Users/stapi/OneDrive/Desktop/GD32VW553/GD32VW55X_Wifi_BLE_SDK/GD32VW55x_RELEASE_V1.0.2/MSDK/lwip/lwip-2.1.2/port\wifi_netif.c ****         dbg_print(ERR, "sys sema init failed\r\n");
 709:C:/Users/stapi/OneDrive/Desktop/GD32VW553/GD32VW55X_Wifi_BLE_SDK/GD32VW55x_RELEASE_V1.0.2/MSDK/lwip/lwip-2.1.2/port\wifi_netif.c ****         return -1;
 710:C:/Users/stapi/OneDrive/Desktop/GD32VW553/GD32VW55X_Wifi_BLE_SDK/GD32VW55x_RELEASE_V1.0.2/MSDK/lwip/lwip-2.1.2/port\wifi_netif.c ****     }
 711:C:/Users/stapi/OneDrive/Desktop/GD32VW553/GD32VW55X_Wifi_BLE_SDK/GD32VW55x_RELEASE_V1.0.2/MSDK/lwip/lwip-2.1.2/port\wifi_netif.c **** 
 712:C:/Users/stapi/OneDrive/Desktop/GD32VW553/GD32VW55X_Wifi_BLE_SDK/GD32VW55x_RELEASE_V1.0.2/MSDK/lwip/lwip-2.1.2/port\wifi_netif.c ****     // Initialize the TCP/IP stack
 713:C:/Users/stapi/OneDrive/Desktop/GD32VW553/GD32VW55X_Wifi_BLE_SDK/GD32VW55x_RELEASE_V1.0.2/MSDK/lwip/lwip-2.1.2/port\wifi_netif.c ****     //tcpip_init(net_init_done, NULL);
 714:C:/Users/stapi/OneDrive/Desktop/GD32VW553/GD32VW55X_Wifi_BLE_SDK/GD32VW55x_RELEASE_V1.0.2/MSDK/lwip/lwip-2.1.2/port\wifi_netif.c **** 
 715:C:/Users/stapi/OneDrive/Desktop/GD32VW553/GD32VW55X_Wifi_BLE_SDK/GD32VW55x_RELEASE_V1.0.2/MSDK/lwip/lwip-2.1.2/port\wifi_netif.c ****     return 0;
 716:C:/Users/stapi/OneDrive/Desktop/GD32VW553/GD32VW55X_Wifi_BLE_SDK/GD32VW55x_RELEASE_V1.0.2/MSDK/lwip/lwip-2.1.2/port\wifi_netif.c **** }
 717:C:/Users/stapi/OneDrive/Desktop/GD32VW553/GD32VW55X_Wifi_BLE_SDK/GD32VW55x_RELEASE_V1.0.2/MSDK/lwip/lwip-2.1.2/port\wifi_netif.c **** 
 718:C:/Users/stapi/OneDrive/Desktop/GD32VW553/GD32VW55X_Wifi_BLE_SDK/GD32VW55x_RELEASE_V1.0.2/MSDK/lwip/lwip-2.1.2/port\wifi_netif.c **** /*!
 719:C:/Users/stapi/OneDrive/Desktop/GD32VW553/GD32VW55X_Wifi_BLE_SDK/GD32VW55x_RELEASE_V1.0.2/MSDK/lwip/lwip-2.1.2/port\wifi_netif.c ****     \brief      Release the resources for L2
 720:C:/Users/stapi/OneDrive/Desktop/GD32VW553/GD32VW55X_Wifi_BLE_SDK/GD32VW55x_RELEASE_V1.0.2/MSDK/lwip/lwip-2.1.2/port\wifi_netif.c ****     \param[in]  none
 721:C:/Users/stapi/OneDrive/Desktop/GD32VW553/GD32VW55X_Wifi_BLE_SDK/GD32VW55x_RELEASE_V1.0.2/MSDK/lwip/lwip-2.1.2/port\wifi_netif.c ****     \param[out] none
 722:C:/Users/stapi/OneDrive/Desktop/GD32VW553/GD32VW55X_Wifi_BLE_SDK/GD32VW55x_RELEASE_V1.0.2/MSDK/lwip/lwip-2.1.2/port\wifi_netif.c ****     \retval     none
 723:C:/Users/stapi/OneDrive/Desktop/GD32VW553/GD32VW55X_Wifi_BLE_SDK/GD32VW55x_RELEASE_V1.0.2/MSDK/lwip/lwip-2.1.2/port\wifi_netif.c **** */
 724:C:/Users/stapi/OneDrive/Desktop/GD32VW553/GD32VW55X_Wifi_BLE_SDK/GD32VW55x_RELEASE_V1.0.2/MSDK/lwip/lwip-2.1.2/port\wifi_netif.c **** void net_deinit(void)
 725:C:/Users/stapi/OneDrive/Desktop/GD32VW553/GD32VW55X_Wifi_BLE_SDK/GD32VW55x_RELEASE_V1.0.2/MSDK/lwip/lwip-2.1.2/port\wifi_netif.c **** {
 726:C:/Users/stapi/OneDrive/Desktop/GD32VW553/GD32VW55X_Wifi_BLE_SDK/GD32VW55x_RELEASE_V1.0.2/MSDK/lwip/lwip-2.1.2/port\wifi_netif.c ****     if (l2_semaphore) {
 727:C:/Users/stapi/OneDrive/Desktop/GD32VW553/GD32VW55X_Wifi_BLE_SDK/GD32VW55x_RELEASE_V1.0.2/MSDK/lwip/lwip-2.1.2/port\wifi_netif.c ****         sys_sem_free(&l2_semaphore);
 728:C:/Users/stapi/OneDrive/Desktop/GD32VW553/GD32VW55X_Wifi_BLE_SDK/GD32VW55x_RELEASE_V1.0.2/MSDK/lwip/lwip-2.1.2/port\wifi_netif.c ****         l2_semaphore = NULL;
 729:C:/Users/stapi/OneDrive/Desktop/GD32VW553/GD32VW55X_Wifi_BLE_SDK/GD32VW55x_RELEASE_V1.0.2/MSDK/lwip/lwip-2.1.2/port\wifi_netif.c ****     }
 730:C:/Users/stapi/OneDrive/Desktop/GD32VW553/GD32VW55X_Wifi_BLE_SDK/GD32VW55x_RELEASE_V1.0.2/MSDK/lwip/lwip-2.1.2/port\wifi_netif.c ****     if (l2_mutex) {
 731:C:/Users/stapi/OneDrive/Desktop/GD32VW553/GD32VW55X_Wifi_BLE_SDK/GD32VW55x_RELEASE_V1.0.2/MSDK/lwip/lwip-2.1.2/port\wifi_netif.c ****         sys_mutex_free(&l2_mutex);
 732:C:/Users/stapi/OneDrive/Desktop/GD32VW553/GD32VW55X_Wifi_BLE_SDK/GD32VW55x_RELEASE_V1.0.2/MSDK/lwip/lwip-2.1.2/port\wifi_netif.c ****         l2_mutex = NULL;
 733:C:/Users/stapi/OneDrive/Desktop/GD32VW553/GD32VW55X_Wifi_BLE_SDK/GD32VW55x_RELEASE_V1.0.2/MSDK/lwip/lwip-2.1.2/port\wifi_netif.c ****     }
 734:C:/Users/stapi/OneDrive/Desktop/GD32VW553/GD32VW55X_Wifi_BLE_SDK/GD32VW55x_RELEASE_V1.0.2/MSDK/lwip/lwip-2.1.2/port\wifi_netif.c **** }
 735:C:/Users/stapi/OneDrive/Desktop/GD32VW553/GD32VW55X_Wifi_BLE_SDK/GD32VW55x_RELEASE_V1.0.2/MSDK/lwip/lwip-2.1.2/port\wifi_netif.c **** 
 736:C:/Users/stapi/OneDrive/Desktop/GD32VW553/GD32VW55X_Wifi_BLE_SDK/GD32VW55x_RELEASE_V1.0.2/MSDK/lwip/lwip-2.1.2/port\wifi_netif.c **** static void net_l2_send_cfm(uint32_t frame_id, bool acknowledged, void *arg)
 737:C:/Users/stapi/OneDrive/Desktop/GD32VW553/GD32VW55X_Wifi_BLE_SDK/GD32VW55x_RELEASE_V1.0.2/MSDK/lwip/lwip-2.1.2/port\wifi_netif.c **** {
 273              		.loc 1 737 1 is_stmt 1
 274              		.cfi_startproc
 275              	.LVL33:
 738:C:/Users/stapi/OneDrive/Desktop/GD32VW553/GD32VW55X_Wifi_BLE_SDK/GD32VW55x_RELEASE_V1.0.2/MSDK/lwip/lwip-2.1.2/port\wifi_netif.c ****     if (arg)
 276              		.loc 1 738 5
 277              		.loc 1 738 8 is_stmt 0
 278 0000 19C2     		beq	a2,zero,.L24
 739:C:/Users/stapi/OneDrive/Desktop/GD32VW553/GD32VW55X_Wifi_BLE_SDK/GD32VW55x_RELEASE_V1.0.2/MSDK/lwip/lwip-2.1.2/port\wifi_netif.c ****         *((bool *)arg) = acknowledged;
 279              		.loc 1 739 9 is_stmt 1
 280              		.loc 1 739 24 is_stmt 0
 281 0002 2300B600 		sb	a1,0(a2)
 282              	.L24:
 740:C:/Users/stapi/OneDrive/Desktop/GD32VW553/GD32VW55X_Wifi_BLE_SDK/GD32VW55x_RELEASE_V1.0.2/MSDK/lwip/lwip-2.1.2/port\wifi_netif.c ****     sys_sema_up(&l2_semaphore);
 283              		.loc 1 740 5 is_stmt 1
 284 0006 37050000 		lui	a0,%hi(.LANCHOR0)
 285              	.LVL34:
 286 000a 13050500 		addi	a0,a0,%lo(.LANCHOR0)
 287 000e 17030000 		tail	sys_sema_up
 287      67000300 
 288              	.LVL35:
 289              		.cfi_endproc
 290              	.LFE38:
 292              		.section	.text.net_ip_chksum,"ax",@progbits
 293              		.align	1
 294              		.globl	net_ip_chksum
 296              	net_ip_chksum:
 297              	.LFB18:
 266:C:/Users/stapi/OneDrive/Desktop/GD32VW553/GD32VW55X_Wifi_BLE_SDK/GD32VW55x_RELEASE_V1.0.2/MSDK/lwip/lwip-2.1.2/port\wifi_netif.c ****     // Simply call the LwIP function
 298              		.loc 1 266 1
 299              		.cfi_startproc
 300              	.LVL36:
 268:C:/Users/stapi/OneDrive/Desktop/GD32VW553/GD32VW55X_Wifi_BLE_SDK/GD32VW55x_RELEASE_V1.0.2/MSDK/lwip/lwip-2.1.2/port\wifi_netif.c **** }
 301              		.loc 1 268 5
 268:C:/Users/stapi/OneDrive/Desktop/GD32VW553/GD32VW55X_Wifi_BLE_SDK/GD32VW55x_RELEASE_V1.0.2/MSDK/lwip/lwip-2.1.2/port\wifi_netif.c **** }
 302              		.loc 1 268 12 is_stmt 0
 303 0000 17030000 		tail	lwip_standard_chksum
 303      67000300 
 304              	.LVL37:
 305              		.cfi_endproc
 306              	.LFE18:
 308              		.section	.text.net_if_add,"ax",@progbits
 309              		.align	1
 310              		.globl	net_if_add
 312              	net_if_add:
 313              	.LFB19:
 290:C:/Users/stapi/OneDrive/Desktop/GD32VW553/GD32VW55X_Wifi_BLE_SDK/GD32VW55x_RELEASE_V1.0.2/MSDK/lwip/lwip-2.1.2/port\wifi_netif.c ****     err_t status;
 314              		.loc 1 290 1 is_stmt 1
 315              		.cfi_startproc
 316              	.LVL38:
 317 0000 17030000 		call	t0,__riscv_save_3
 317      E7020300 
 318              		.cfi_offset 18, -16
 319              		.cfi_offset 9, -12
 320              		.cfi_offset 8, -8
 321              		.cfi_offset 1, -4
 322              		.cfi_def_cfa_offset 16
 291:C:/Users/stapi/OneDrive/Desktop/GD32VW553/GD32VW55X_Wifi_BLE_SDK/GD32VW55x_RELEASE_V1.0.2/MSDK/lwip/lwip-2.1.2/port\wifi_netif.c ****     struct netif *netif = (struct netif *)net_if;
 323              		.loc 1 291 5
 292:C:/Users/stapi/OneDrive/Desktop/GD32VW553/GD32VW55X_Wifi_BLE_SDK/GD32VW55x_RELEASE_V1.0.2/MSDK/lwip/lwip-2.1.2/port\wifi_netif.c **** 
 324              		.loc 1 292 5
 290:C:/Users/stapi/OneDrive/Desktop/GD32VW553/GD32VW55X_Wifi_BLE_SDK/GD32VW55x_RELEASE_V1.0.2/MSDK/lwip/lwip-2.1.2/port\wifi_netif.c ****     err_t status;
 325              		.loc 1 290 1 is_stmt 0
 326 0008 2E89     		mv	s2,a1
 294:C:/Users/stapi/OneDrive/Desktop/GD32VW553/GD32VW55X_Wifi_BLE_SDK/GD32VW55x_RELEASE_V1.0.2/MSDK/lwip/lwip-2.1.2/port\wifi_netif.c ****                                (const ip4_addr_t *)ipaddr,
 327              		.loc 1 294 14
 328 000a 37080000 		lui	a6,%hi(tcpip_input)
 290:C:/Users/stapi/OneDrive/Desktop/GD32VW553/GD32VW55X_Wifi_BLE_SDK/GD32VW55x_RELEASE_V1.0.2/MSDK/lwip/lwip-2.1.2/port\wifi_netif.c ****     err_t status;
 329              		.loc 1 290 1
 330 000e B285     		mv	a1,a2
 331              	.LVL39:
 332 0010 3686     		mv	a2,a3
 333              	.LVL40:
 334 0012 BA86     		mv	a3,a4
 335              	.LVL41:
 336 0014 3E87     		mv	a4,a5
 337              	.LVL42:
 294:C:/Users/stapi/OneDrive/Desktop/GD32VW553/GD32VW55X_Wifi_BLE_SDK/GD32VW55x_RELEASE_V1.0.2/MSDK/lwip/lwip-2.1.2/port\wifi_netif.c ****                                (const ip4_addr_t *)ipaddr,
 338              		.loc 1 294 14
 339 0016 B7070000 		lui	a5,%hi(net_if_init)
 340              	.LVL43:
 341 001a 13080800 		addi	a6,a6,%lo(tcpip_input)
 342 001e 93870700 		addi	a5,a5,%lo(net_if_init)
 290:C:/Users/stapi/OneDrive/Desktop/GD32VW553/GD32VW55X_Wifi_BLE_SDK/GD32VW55x_RELEASE_V1.0.2/MSDK/lwip/lwip-2.1.2/port\wifi_netif.c ****     err_t status;
 343              		.loc 1 290 1
 344 0022 AA84     		mv	s1,a0
 345              	.LVL44:
 294:C:/Users/stapi/OneDrive/Desktop/GD32VW553/GD32VW55X_Wifi_BLE_SDK/GD32VW55x_RELEASE_V1.0.2/MSDK/lwip/lwip-2.1.2/port\wifi_netif.c ****                                (const ip4_addr_t *)ipaddr,
 346              		.loc 1 294 5 is_stmt 1
 294:C:/Users/stapi/OneDrive/Desktop/GD32VW553/GD32VW55X_Wifi_BLE_SDK/GD32VW55x_RELEASE_V1.0.2/MSDK/lwip/lwip-2.1.2/port\wifi_netif.c ****                                (const ip4_addr_t *)ipaddr,
 347              		.loc 1 294 14 is_stmt 0
 348 0024 97000000 		call	netifapi_netif_add
 348      E7800000 
 349              	.LVL45:
 350 002c 2A84     		mv	s0,a0
 351              	.LVL46:
 303:C:/Users/stapi/OneDrive/Desktop/GD32VW553/GD32VW55X_Wifi_BLE_SDK/GD32VW55x_RELEASE_V1.0.2/MSDK/lwip/lwip-2.1.2/port\wifi_netif.c **** #if LWIP_IPV6
 352              		.loc 1 303 5 is_stmt 1
 353 002e 1946     		li	a2,6
 354 0030 1385A402 		addi	a0,s1,42
 355 0034 CA85     		mv	a1,s2
 356 0036 97000000 		call	sys_memcpy
 356      E7800000 
 357              	.LVL47:
 310:C:/Users/stapi/OneDrive/Desktop/GD32VW553/GD32VW55X_Wifi_BLE_SDK/GD32VW55x_RELEASE_V1.0.2/MSDK/lwip/lwip-2.1.2/port\wifi_netif.c **** }
 358              		.loc 1 310 5
 310:C:/Users/stapi/OneDrive/Desktop/GD32VW553/GD32VW55X_Wifi_BLE_SDK/GD32VW55x_RELEASE_V1.0.2/MSDK/lwip/lwip-2.1.2/port\wifi_netif.c **** }
 359              		.loc 1 310 34 is_stmt 0
 360 003e 33358000 		snez	a0,s0
 311:C:/Users/stapi/OneDrive/Desktop/GD32VW553/GD32VW55X_Wifi_BLE_SDK/GD32VW55x_RELEASE_V1.0.2/MSDK/lwip/lwip-2.1.2/port\wifi_netif.c **** 
 361              		.loc 1 311 1
 362 0042 3305A040 		neg	a0,a0
 363 0046 17030000 		tail	__riscv_restore_3
 363      67000300 
 364              		.cfi_restore 18
 365              		.cfi_restore 9
 366              		.cfi_restore 8
 367              		.cfi_restore 1
 368              		.cfi_def_cfa_offset 0
 369              		.cfi_endproc
 370              	.LFE19:
 372              		.section	.text.net_if_remove,"ax",@progbits
 373              		.align	1
 374              		.globl	net_if_remove
 376              	net_if_remove:
 377              	.LFB20:
 320:C:/Users/stapi/OneDrive/Desktop/GD32VW553/GD32VW55X_Wifi_BLE_SDK/GD32VW55x_RELEASE_V1.0.2/MSDK/lwip/lwip-2.1.2/port\wifi_netif.c ****     err_t status;
 378              		.loc 1 320 1 is_stmt 1
 379              		.cfi_startproc
 380              	.LVL48:
 381 0000 17030000 		call	t0,__riscv_save_1
 381      E7020300 
 382              		.cfi_offset 8, -8
 383              		.cfi_offset 1, -4
 384              		.cfi_def_cfa_offset 16
 321:C:/Users/stapi/OneDrive/Desktop/GD32VW553/GD32VW55X_Wifi_BLE_SDK/GD32VW55x_RELEASE_V1.0.2/MSDK/lwip/lwip-2.1.2/port\wifi_netif.c ****     struct netif *netif = (struct netif *)net_if;
 385              		.loc 1 321 5
 322:C:/Users/stapi/OneDrive/Desktop/GD32VW553/GD32VW55X_Wifi_BLE_SDK/GD32VW55x_RELEASE_V1.0.2/MSDK/lwip/lwip-2.1.2/port\wifi_netif.c **** 
 386              		.loc 1 322 5
 320:C:/Users/stapi/OneDrive/Desktop/GD32VW553/GD32VW55X_Wifi_BLE_SDK/GD32VW55x_RELEASE_V1.0.2/MSDK/lwip/lwip-2.1.2/port\wifi_netif.c ****     err_t status;
 387              		.loc 1 320 1 is_stmt 0
 388 0008 2A84     		mv	s0,a0
 389              	.LVL49:
 324:C:/Users/stapi/OneDrive/Desktop/GD32VW553/GD32VW55X_Wifi_BLE_SDK/GD32VW55x_RELEASE_V1.0.2/MSDK/lwip/lwip-2.1.2/port\wifi_netif.c **** 
 390              		.loc 1 324 5 is_stmt 1
 391 000a 97000000 		call	dhcp_cleanup
 391      E7800000 
 392              	.LVL50:
 326:C:/Users/stapi/OneDrive/Desktop/GD32VW553/GD32VW55X_Wifi_BLE_SDK/GD32VW55x_RELEASE_V1.0.2/MSDK/lwip/lwip-2.1.2/port\wifi_netif.c **** 
 393              		.loc 1 326 5
 326:C:/Users/stapi/OneDrive/Desktop/GD32VW553/GD32VW55X_Wifi_BLE_SDK/GD32VW55x_RELEASE_V1.0.2/MSDK/lwip/lwip-2.1.2/port\wifi_netif.c **** 
 394              		.loc 1 326 14 is_stmt 0
 395 0012 B7050000 		lui	a1,%hi(netif_remove)
 396 0016 0146     		li	a2,0
 397 0018 93850500 		addi	a1,a1,%lo(netif_remove)
 398 001c 2285     		mv	a0,s0
 399 001e 97000000 		call	netifapi_netif_common
 399      E7800000 
 400              	.LVL51:
 328:C:/Users/stapi/OneDrive/Desktop/GD32VW553/GD32VW55X_Wifi_BLE_SDK/GD32VW55x_RELEASE_V1.0.2/MSDK/lwip/lwip-2.1.2/port\wifi_netif.c **** }
 401              		.loc 1 328 5 is_stmt 1
 328:C:/Users/stapi/OneDrive/Desktop/GD32VW553/GD32VW55X_Wifi_BLE_SDK/GD32VW55x_RELEASE_V1.0.2/MSDK/lwip/lwip-2.1.2/port\wifi_netif.c **** }
 402              		.loc 1 328 34 is_stmt 0
 403 0026 3335A000 		snez	a0,a0
 404              	.LVL52:
 329:C:/Users/stapi/OneDrive/Desktop/GD32VW553/GD32VW55X_Wifi_BLE_SDK/GD32VW55x_RELEASE_V1.0.2/MSDK/lwip/lwip-2.1.2/port\wifi_netif.c **** 
 405              		.loc 1 329 1
 406 002a 3305A040 		neg	a0,a0
 407 002e 17030000 		tail	__riscv_restore_1
 407      67000300 
 408              		.cfi_restore 8
 409              		.cfi_restore 1
 410              		.cfi_def_cfa_offset 0
 411              		.cfi_endproc
 412              	.LFE20:
 414              		.section	.text.net_if_get_mac_addr,"ax",@progbits
 415              		.align	1
 416              		.globl	net_if_get_mac_addr
 418              	net_if_get_mac_addr:
 419              	.LFB21:
 338:C:/Users/stapi/OneDrive/Desktop/GD32VW553/GD32VW55X_Wifi_BLE_SDK/GD32VW55x_RELEASE_V1.0.2/MSDK/lwip/lwip-2.1.2/port\wifi_netif.c ****     struct netif *netif = (struct netif *)net_if;
 420              		.loc 1 338 1 is_stmt 1
 421              		.cfi_startproc
 422              	.LVL53:
 339:C:/Users/stapi/OneDrive/Desktop/GD32VW553/GD32VW55X_Wifi_BLE_SDK/GD32VW55x_RELEASE_V1.0.2/MSDK/lwip/lwip-2.1.2/port\wifi_netif.c **** 
 423              		.loc 1 339 5
 341:C:/Users/stapi/OneDrive/Desktop/GD32VW553/GD32VW55X_Wifi_BLE_SDK/GD32VW55x_RELEASE_V1.0.2/MSDK/lwip/lwip-2.1.2/port\wifi_netif.c **** }
 424              		.loc 1 341 5
 342:C:/Users/stapi/OneDrive/Desktop/GD32VW553/GD32VW55X_Wifi_BLE_SDK/GD32VW55x_RELEASE_V1.0.2/MSDK/lwip/lwip-2.1.2/port\wifi_netif.c **** 
 425              		.loc 1 342 1 is_stmt 0
 426 0000 1305A502 		addi	a0,a0,42
 427              	.LVL54:
 428 0004 8280     		ret
 429              		.cfi_endproc
 430              	.LFE21:
 432              		.section	.text.net_if_find_from_name,"ax",@progbits
 433              		.align	1
 434              		.globl	net_if_find_from_name
 436              	net_if_find_from_name:
 437              	.LFB22:
 351:C:/Users/stapi/OneDrive/Desktop/GD32VW553/GD32VW55X_Wifi_BLE_SDK/GD32VW55x_RELEASE_V1.0.2/MSDK/lwip/lwip-2.1.2/port\wifi_netif.c ****     return netif_find(name);
 438              		.loc 1 351 1 is_stmt 1
 439              		.cfi_startproc
 440              	.LVL55:
 352:C:/Users/stapi/OneDrive/Desktop/GD32VW553/GD32VW55X_Wifi_BLE_SDK/GD32VW55x_RELEASE_V1.0.2/MSDK/lwip/lwip-2.1.2/port\wifi_netif.c **** }
 441              		.loc 1 352 5
 352:C:/Users/stapi/OneDrive/Desktop/GD32VW553/GD32VW55X_Wifi_BLE_SDK/GD32VW55x_RELEASE_V1.0.2/MSDK/lwip/lwip-2.1.2/port\wifi_netif.c **** }
 442              		.loc 1 352 12 is_stmt 0
 443 0000 17030000 		tail	netif_find
 443      67000300 
 444              	.LVL56:
 445              		.cfi_endproc
 446              	.LFE22:
 448              		.section	.text.net_if_get_name,"ax",@progbits
 449              		.align	1
 450              		.globl	net_if_get_name
 452              	net_if_get_name:
 453              	.LFB23:
 369:C:/Users/stapi/OneDrive/Desktop/GD32VW553/GD32VW55X_Wifi_BLE_SDK/GD32VW55x_RELEASE_V1.0.2/MSDK/lwip/lwip-2.1.2/port\wifi_netif.c ****     struct netif *netif = (struct netif *)net_if;
 454              		.loc 1 369 1 is_stmt 1
 455              		.cfi_startproc
 456              	.LVL57:
 370:C:/Users/stapi/OneDrive/Desktop/GD32VW553/GD32VW55X_Wifi_BLE_SDK/GD32VW55x_RELEASE_V1.0.2/MSDK/lwip/lwip-2.1.2/port\wifi_netif.c **** 
 457              		.loc 1 370 5
 372:C:/Users/stapi/OneDrive/Desktop/GD32VW553/GD32VW55X_Wifi_BLE_SDK/GD32VW55x_RELEASE_V1.0.2/MSDK/lwip/lwip-2.1.2/port\wifi_netif.c ****         buf[0] = netif->name[0];
 458              		.loc 1 372 5
 372:C:/Users/stapi/OneDrive/Desktop/GD32VW553/GD32VW55X_Wifi_BLE_SDK/GD32VW55x_RELEASE_V1.0.2/MSDK/lwip/lwip-2.1.2/port\wifi_netif.c ****         buf[0] = netif->name[0];
 459              		.loc 1 372 8 is_stmt 0
 460 0000 635BC002 		ble	a2,zero,.L40
 373:C:/Users/stapi/OneDrive/Desktop/GD32VW553/GD32VW55X_Wifi_BLE_SDK/GD32VW55x_RELEASE_V1.0.2/MSDK/lwip/lwip-2.1.2/port\wifi_netif.c ****     if (len > 1)
 461              		.loc 1 373 9 is_stmt 1
 373:C:/Users/stapi/OneDrive/Desktop/GD32VW553/GD32VW55X_Wifi_BLE_SDK/GD32VW55x_RELEASE_V1.0.2/MSDK/lwip/lwip-2.1.2/port\wifi_netif.c ****     if (len > 1)
 462              		.loc 1 373 29 is_stmt 0
 463 0004 83072503 		lb	a5,50(a0)
 373:C:/Users/stapi/OneDrive/Desktop/GD32VW553/GD32VW55X_Wifi_BLE_SDK/GD32VW55x_RELEASE_V1.0.2/MSDK/lwip/lwip-2.1.2/port\wifi_netif.c ****     if (len > 1)
 464              		.loc 1 373 16
 465 0008 2380F500 		sb	a5,0(a1)
 374:C:/Users/stapi/OneDrive/Desktop/GD32VW553/GD32VW55X_Wifi_BLE_SDK/GD32VW55x_RELEASE_V1.0.2/MSDK/lwip/lwip-2.1.2/port\wifi_netif.c ****         buf[1] = netif->name[1];
 466              		.loc 1 374 5 is_stmt 1
 374:C:/Users/stapi/OneDrive/Desktop/GD32VW553/GD32VW55X_Wifi_BLE_SDK/GD32VW55x_RELEASE_V1.0.2/MSDK/lwip/lwip-2.1.2/port\wifi_netif.c ****         buf[1] = netif->name[1];
 467              		.loc 1 374 8 is_stmt 0
 468 000c 8547     		li	a5,1
 469 000e 6304F602 		beq	a2,a5,.L40
 375:C:/Users/stapi/OneDrive/Desktop/GD32VW553/GD32VW55X_Wifi_BLE_SDK/GD32VW55x_RELEASE_V1.0.2/MSDK/lwip/lwip-2.1.2/port\wifi_netif.c ****     if (len > 2)
 470              		.loc 1 375 9 is_stmt 1
 375:C:/Users/stapi/OneDrive/Desktop/GD32VW553/GD32VW55X_Wifi_BLE_SDK/GD32VW55x_RELEASE_V1.0.2/MSDK/lwip/lwip-2.1.2/port\wifi_netif.c ****     if (len > 2)
 471              		.loc 1 375 29 is_stmt 0
 472 0012 83073503 		lb	a5,51(a0)
 375:C:/Users/stapi/OneDrive/Desktop/GD32VW553/GD32VW55X_Wifi_BLE_SDK/GD32VW55x_RELEASE_V1.0.2/MSDK/lwip/lwip-2.1.2/port\wifi_netif.c ****     if (len > 2)
 473              		.loc 1 375 16
 474 0016 A380F500 		sb	a5,1(a1)
 376:C:/Users/stapi/OneDrive/Desktop/GD32VW553/GD32VW55X_Wifi_BLE_SDK/GD32VW55x_RELEASE_V1.0.2/MSDK/lwip/lwip-2.1.2/port\wifi_netif.c ****         buf[2] = netif->num + '0';
 475              		.loc 1 376 5 is_stmt 1
 376:C:/Users/stapi/OneDrive/Desktop/GD32VW553/GD32VW55X_Wifi_BLE_SDK/GD32VW55x_RELEASE_V1.0.2/MSDK/lwip/lwip-2.1.2/port\wifi_netif.c ****         buf[2] = netif->num + '0';
 476              		.loc 1 376 8 is_stmt 0
 477 001a 8947     		li	a5,2
 478 001c 630DF600 		beq	a2,a5,.L40
 377:C:/Users/stapi/OneDrive/Desktop/GD32VW553/GD32VW55X_Wifi_BLE_SDK/GD32VW55x_RELEASE_V1.0.2/MSDK/lwip/lwip-2.1.2/port\wifi_netif.c ****     if ( len > 3)
 479              		.loc 1 377 9 is_stmt 1
 377:C:/Users/stapi/OneDrive/Desktop/GD32VW553/GD32VW55X_Wifi_BLE_SDK/GD32VW55x_RELEASE_V1.0.2/MSDK/lwip/lwip-2.1.2/port\wifi_netif.c ****     if ( len > 3)
 480              		.loc 1 377 29 is_stmt 0
 481 0020 83474503 		lbu	a5,52(a0)
 482 0024 93870703 		addi	a5,a5,48
 377:C:/Users/stapi/OneDrive/Desktop/GD32VW553/GD32VW55X_Wifi_BLE_SDK/GD32VW55x_RELEASE_V1.0.2/MSDK/lwip/lwip-2.1.2/port\wifi_netif.c ****     if ( len > 3)
 483              		.loc 1 377 16
 484 0028 2381F500 		sb	a5,2(a1)
 378:C:/Users/stapi/OneDrive/Desktop/GD32VW553/GD32VW55X_Wifi_BLE_SDK/GD32VW55x_RELEASE_V1.0.2/MSDK/lwip/lwip-2.1.2/port\wifi_netif.c ****         buf[3] = '\0';
 485              		.loc 1 378 5 is_stmt 1
 378:C:/Users/stapi/OneDrive/Desktop/GD32VW553/GD32VW55X_Wifi_BLE_SDK/GD32VW55x_RELEASE_V1.0.2/MSDK/lwip/lwip-2.1.2/port\wifi_netif.c ****         buf[3] = '\0';
 486              		.loc 1 378 8 is_stmt 0
 487 002c 8D47     		li	a5,3
 488 002e 6304F600 		beq	a2,a5,.L40
 379:C:/Users/stapi/OneDrive/Desktop/GD32VW553/GD32VW55X_Wifi_BLE_SDK/GD32VW55x_RELEASE_V1.0.2/MSDK/lwip/lwip-2.1.2/port\wifi_netif.c **** 
 489              		.loc 1 379 9 is_stmt 1
 379:C:/Users/stapi/OneDrive/Desktop/GD32VW553/GD32VW55X_Wifi_BLE_SDK/GD32VW55x_RELEASE_V1.0.2/MSDK/lwip/lwip-2.1.2/port\wifi_netif.c **** 
 490              		.loc 1 379 16 is_stmt 0
 491 0032 A3810500 		sb	zero,3(a1)
 492              	.L40:
 381:C:/Users/stapi/OneDrive/Desktop/GD32VW553/GD32VW55X_Wifi_BLE_SDK/GD32VW55x_RELEASE_V1.0.2/MSDK/lwip/lwip-2.1.2/port\wifi_netif.c **** }
 493              		.loc 1 381 5 is_stmt 1
 382:C:/Users/stapi/OneDrive/Desktop/GD32VW553/GD32VW55X_Wifi_BLE_SDK/GD32VW55x_RELEASE_V1.0.2/MSDK/lwip/lwip-2.1.2/port\wifi_netif.c **** 
 494              		.loc 1 382 1 is_stmt 0
 495 0036 0D45     		li	a0,3
 496              	.LVL58:
 497 0038 8280     		ret
 498              		.cfi_endproc
 499              	.LFE23:
 501              		.section	.text.net_if_up,"ax",@progbits
 502              		.align	1
 503              		.globl	net_if_up
 505              	net_if_up:
 506              	.LFB24:
 391:C:/Users/stapi/OneDrive/Desktop/GD32VW553/GD32VW55X_Wifi_BLE_SDK/GD32VW55x_RELEASE_V1.0.2/MSDK/lwip/lwip-2.1.2/port\wifi_netif.c ****     struct netif *netif = (struct netif *)net_if;
 507              		.loc 1 391 1 is_stmt 1
 508              		.cfi_startproc
 509              	.LVL59:
 392:C:/Users/stapi/OneDrive/Desktop/GD32VW553/GD32VW55X_Wifi_BLE_SDK/GD32VW55x_RELEASE_V1.0.2/MSDK/lwip/lwip-2.1.2/port\wifi_netif.c **** 
 510              		.loc 1 392 5
 394:C:/Users/stapi/OneDrive/Desktop/GD32VW553/GD32VW55X_Wifi_BLE_SDK/GD32VW55x_RELEASE_V1.0.2/MSDK/lwip/lwip-2.1.2/port\wifi_netif.c **** }
 511              		.loc 1 394 5
 512 0000 B7050000 		lui	a1,%hi(netif_set_up)
 513 0004 0146     		li	a2,0
 514 0006 93850500 		addi	a1,a1,%lo(netif_set_up)
 515 000a 17030000 		tail	netifapi_netif_common
 515      67000300 
 516              	.LVL60:
 517              		.cfi_endproc
 518              	.LFE24:
 520              		.section	.text.net_if_down,"ax",@progbits
 521              		.align	1
 522              		.globl	net_if_down
 524              	net_if_down:
 525              	.LFB25:
 404:C:/Users/stapi/OneDrive/Desktop/GD32VW553/GD32VW55X_Wifi_BLE_SDK/GD32VW55x_RELEASE_V1.0.2/MSDK/lwip/lwip-2.1.2/port\wifi_netif.c ****     struct netif *netif = (struct netif *)net_if;
 526              		.loc 1 404 1
 527              		.cfi_startproc
 528              	.LVL61:
 405:C:/Users/stapi/OneDrive/Desktop/GD32VW553/GD32VW55X_Wifi_BLE_SDK/GD32VW55x_RELEASE_V1.0.2/MSDK/lwip/lwip-2.1.2/port\wifi_netif.c **** 
 529              		.loc 1 405 5
 407:C:/Users/stapi/OneDrive/Desktop/GD32VW553/GD32VW55X_Wifi_BLE_SDK/GD32VW55x_RELEASE_V1.0.2/MSDK/lwip/lwip-2.1.2/port\wifi_netif.c **** }
 530              		.loc 1 407 5
 531 0000 B7050000 		lui	a1,%hi(netif_set_down)
 532 0004 0146     		li	a2,0
 533 0006 93850500 		addi	a1,a1,%lo(netif_set_down)
 534 000a 17030000 		tail	netifapi_netif_common
 534      67000300 
 535              	.LVL62:
 536              		.cfi_endproc
 537              	.LFE25:
 539              		.section	.text.net_if_set_default,"ax",@progbits
 540              		.align	1
 541              		.globl	net_if_set_default
 543              	net_if_set_default:
 544              	.LFB26:
 420:C:/Users/stapi/OneDrive/Desktop/GD32VW553/GD32VW55X_Wifi_BLE_SDK/GD32VW55x_RELEASE_V1.0.2/MSDK/lwip/lwip-2.1.2/port\wifi_netif.c ****     struct netif *netif = (struct netif *)net_if;
 545              		.loc 1 420 1
 546              		.cfi_startproc
 547              	.LVL63:
 421:C:/Users/stapi/OneDrive/Desktop/GD32VW553/GD32VW55X_Wifi_BLE_SDK/GD32VW55x_RELEASE_V1.0.2/MSDK/lwip/lwip-2.1.2/port\wifi_netif.c **** 
 548              		.loc 1 421 5
 423:C:/Users/stapi/OneDrive/Desktop/GD32VW553/GD32VW55X_Wifi_BLE_SDK/GD32VW55x_RELEASE_V1.0.2/MSDK/lwip/lwip-2.1.2/port\wifi_netif.c **** }
 549              		.loc 1 423 5
 550 0000 B7050000 		lui	a1,%hi(netif_set_default)
 551 0004 0146     		li	a2,0
 552 0006 93850500 		addi	a1,a1,%lo(netif_set_default)
 553 000a 17030000 		tail	netifapi_netif_common
 553      67000300 
 554              	.LVL64:
 555              		.cfi_endproc
 556              	.LFE26:
 558              		.section	.text.net_if_set_ip,"ax",@progbits
 559              		.align	1
 560              		.globl	net_if_set_ip
 562              	net_if_set_ip:
 563              	.LFB27:
 439:C:/Users/stapi/OneDrive/Desktop/GD32VW553/GD32VW55X_Wifi_BLE_SDK/GD32VW55x_RELEASE_V1.0.2/MSDK/lwip/lwip-2.1.2/port\wifi_netif.c ****     struct netif *netif = (struct netif *)net_if;
 564              		.loc 1 439 1
 565              		.cfi_startproc
 566              	.LVL65:
 567 0000 17030000 		call	t0,__riscv_save_0
 567      E7020300 
 568              		.cfi_offset 1, -4
 569              		.cfi_def_cfa_offset 16
 440:C:/Users/stapi/OneDrive/Desktop/GD32VW553/GD32VW55X_Wifi_BLE_SDK/GD32VW55x_RELEASE_V1.0.2/MSDK/lwip/lwip-2.1.2/port\wifi_netif.c **** 
 570              		.loc 1 440 5
 571              	.LVL66:
 442:C:/Users/stapi/OneDrive/Desktop/GD32VW553/GD32VW55X_Wifi_BLE_SDK/GD32VW55x_RELEASE_V1.0.2/MSDK/lwip/lwip-2.1.2/port\wifi_netif.c ****         return;
 572              		.loc 1 442 5
 439:C:/Users/stapi/OneDrive/Desktop/GD32VW553/GD32VW55X_Wifi_BLE_SDK/GD32VW55x_RELEASE_V1.0.2/MSDK/lwip/lwip-2.1.2/port\wifi_netif.c ****     struct netif *netif = (struct netif *)net_if;
 573              		.loc 1 439 1 is_stmt 0
 574 0008 4111     		addi	sp,sp,-16
 575              		.cfi_def_cfa_offset 32
 439:C:/Users/stapi/OneDrive/Desktop/GD32VW553/GD32VW55X_Wifi_BLE_SDK/GD32VW55x_RELEASE_V1.0.2/MSDK/lwip/lwip-2.1.2/port\wifi_netif.c ****     struct netif *netif = (struct netif *)net_if;
 576              		.loc 1 439 1
 577 000a 2EC6     		sw	a1,12(sp)
 578 000c 32C4     		sw	a2,8(sp)
 579 000e 36C2     		sw	a3,4(sp)
 442:C:/Users/stapi/OneDrive/Desktop/GD32VW553/GD32VW55X_Wifi_BLE_SDK/GD32VW55x_RELEASE_V1.0.2/MSDK/lwip/lwip-2.1.2/port\wifi_netif.c ****         return;
 580              		.loc 1 442 8
 581 0010 01C9     		beq	a0,zero,.L48
 444:C:/Users/stapi/OneDrive/Desktop/GD32VW553/GD32VW55X_Wifi_BLE_SDK/GD32VW55x_RELEASE_V1.0.2/MSDK/lwip/lwip-2.1.2/port\wifi_netif.c ****                    (const ip4_addr_t *)&gw);
 582              		.loc 1 444 5 is_stmt 1
 583 0012 5400     		addi	a3,sp,4
 584              	.LVL67:
 585 0014 3000     		addi	a2,sp,8
 586              	.LVL68:
 587 0016 6C00     		addi	a1,sp,12
 588              	.LVL69:
 589 0018 97000000 		call	netif_set_addr
 589      E7800000 
 590              	.LVL70:
 591              	.L48:
 446:C:/Users/stapi/OneDrive/Desktop/GD32VW553/GD32VW55X_Wifi_BLE_SDK/GD32VW55x_RELEASE_V1.0.2/MSDK/lwip/lwip-2.1.2/port\wifi_netif.c **** 
 592              		.loc 1 446 1 is_stmt 0
 593 0020 4101     		addi	sp,sp,16
 594              		.cfi_def_cfa_offset 0
 595 0022 17030000 		tail	__riscv_restore_0
 595      67000300 
 596              		.cfi_restore 1
 597              		.cfi_def_cfa_offset -16
 598              		.cfi_endproc
 599              	.LFE27:
 601              		.section	.text.net_if_get_ip,"ax",@progbits
 602              		.align	1
 603              		.globl	net_if_get_ip
 605              	net_if_get_ip:
 606              	.LFB28:
 459:C:/Users/stapi/OneDrive/Desktop/GD32VW553/GD32VW55X_Wifi_BLE_SDK/GD32VW55x_RELEASE_V1.0.2/MSDK/lwip/lwip-2.1.2/port\wifi_netif.c ****     struct netif *netif = (struct netif *)net_if;
 607              		.loc 1 459 1 is_stmt 1
 608              		.cfi_startproc
 609              	.LVL71:
 460:C:/Users/stapi/OneDrive/Desktop/GD32VW553/GD32VW55X_Wifi_BLE_SDK/GD32VW55x_RELEASE_V1.0.2/MSDK/lwip/lwip-2.1.2/port\wifi_netif.c **** 
 610              		.loc 1 460 5
 462:C:/Users/stapi/OneDrive/Desktop/GD32VW553/GD32VW55X_Wifi_BLE_SDK/GD32VW55x_RELEASE_V1.0.2/MSDK/lwip/lwip-2.1.2/port\wifi_netif.c ****         return -1;
 611              		.loc 1 462 5
 459:C:/Users/stapi/OneDrive/Desktop/GD32VW553/GD32VW55X_Wifi_BLE_SDK/GD32VW55x_RELEASE_V1.0.2/MSDK/lwip/lwip-2.1.2/port\wifi_netif.c ****     struct netif *netif = (struct netif *)net_if;
 612              		.loc 1 459 1 is_stmt 0
 613 0000 AA87     		mv	a5,a0
 462:C:/Users/stapi/OneDrive/Desktop/GD32VW553/GD32VW55X_Wifi_BLE_SDK/GD32VW55x_RELEASE_V1.0.2/MSDK/lwip/lwip-2.1.2/port\wifi_netif.c ****         return -1;
 614              		.loc 1 462 8
 615 0002 01CD     		beq	a0,zero,.L58
 465:C:/Users/stapi/OneDrive/Desktop/GD32VW553/GD32VW55X_Wifi_BLE_SDK/GD32VW55x_RELEASE_V1.0.2/MSDK/lwip/lwip-2.1.2/port\wifi_netif.c ****         *ip = netif_ip4_addr(netif)->addr;
 616              		.loc 1 465 5 is_stmt 1
 465:C:/Users/stapi/OneDrive/Desktop/GD32VW553/GD32VW55X_Wifi_BLE_SDK/GD32VW55x_RELEASE_V1.0.2/MSDK/lwip/lwip-2.1.2/port\wifi_netif.c ****         *ip = netif_ip4_addr(netif)->addr;
 617              		.loc 1 465 8 is_stmt 0
 618 0004 99C1     		beq	a1,zero,.L56
 466:C:/Users/stapi/OneDrive/Desktop/GD32VW553/GD32VW55X_Wifi_BLE_SDK/GD32VW55x_RELEASE_V1.0.2/MSDK/lwip/lwip-2.1.2/port\wifi_netif.c ****     if (mask)
 619              		.loc 1 466 9 is_stmt 1
 466:C:/Users/stapi/OneDrive/Desktop/GD32VW553/GD32VW55X_Wifi_BLE_SDK/GD32VW55x_RELEASE_V1.0.2/MSDK/lwip/lwip-2.1.2/port\wifi_netif.c ****     if (mask)
 620              		.loc 1 466 36 is_stmt 0
 621 0006 5841     		lw	a4,4(a0)
 466:C:/Users/stapi/OneDrive/Desktop/GD32VW553/GD32VW55X_Wifi_BLE_SDK/GD32VW55x_RELEASE_V1.0.2/MSDK/lwip/lwip-2.1.2/port\wifi_netif.c ****     if (mask)
 622              		.loc 1 466 13
 623 0008 98C1     		sw	a4,0(a1)
 624              	.L56:
 467:C:/Users/stapi/OneDrive/Desktop/GD32VW553/GD32VW55X_Wifi_BLE_SDK/GD32VW55x_RELEASE_V1.0.2/MSDK/lwip/lwip-2.1.2/port\wifi_netif.c ****         *mask = netif_ip4_netmask(netif)->addr;
 625              		.loc 1 467 5 is_stmt 1
 467:C:/Users/stapi/OneDrive/Desktop/GD32VW553/GD32VW55X_Wifi_BLE_SDK/GD32VW55x_RELEASE_V1.0.2/MSDK/lwip/lwip-2.1.2/port\wifi_netif.c ****         *mask = netif_ip4_netmask(netif)->addr;
 626              		.loc 1 467 8 is_stmt 0
 627 000a 19C2     		beq	a2,zero,.L57
 468:C:/Users/stapi/OneDrive/Desktop/GD32VW553/GD32VW55X_Wifi_BLE_SDK/GD32VW55x_RELEASE_V1.0.2/MSDK/lwip/lwip-2.1.2/port\wifi_netif.c ****     if (gw)
 628              		.loc 1 468 9 is_stmt 1
 468:C:/Users/stapi/OneDrive/Desktop/GD32VW553/GD32VW55X_Wifi_BLE_SDK/GD32VW55x_RELEASE_V1.0.2/MSDK/lwip/lwip-2.1.2/port\wifi_netif.c ****     if (gw)
 629              		.loc 1 468 41 is_stmt 0
 630 000c 9847     		lw	a4,8(a5)
 468:C:/Users/stapi/OneDrive/Desktop/GD32VW553/GD32VW55X_Wifi_BLE_SDK/GD32VW55x_RELEASE_V1.0.2/MSDK/lwip/lwip-2.1.2/port\wifi_netif.c ****     if (gw)
 631              		.loc 1 468 15
 632 000e 18C2     		sw	a4,0(a2)
 633              	.L57:
 469:C:/Users/stapi/OneDrive/Desktop/GD32VW553/GD32VW55X_Wifi_BLE_SDK/GD32VW55x_RELEASE_V1.0.2/MSDK/lwip/lwip-2.1.2/port\wifi_netif.c ****         *gw = netif_ip4_gw(netif)->addr;
 634              		.loc 1 469 5 is_stmt 1
 472:C:/Users/stapi/OneDrive/Desktop/GD32VW553/GD32VW55X_Wifi_BLE_SDK/GD32VW55x_RELEASE_V1.0.2/MSDK/lwip/lwip-2.1.2/port\wifi_netif.c **** }
 635              		.loc 1 472 12 is_stmt 0
 636 0010 0145     		li	a0,0
 637              	.LVL72:
 469:C:/Users/stapi/OneDrive/Desktop/GD32VW553/GD32VW55X_Wifi_BLE_SDK/GD32VW55x_RELEASE_V1.0.2/MSDK/lwip/lwip-2.1.2/port\wifi_netif.c ****         *gw = netif_ip4_gw(netif)->addr;
 638              		.loc 1 469 8
 639 0012 89C6     		beq	a3,zero,.L54
 470:C:/Users/stapi/OneDrive/Desktop/GD32VW553/GD32VW55X_Wifi_BLE_SDK/GD32VW55x_RELEASE_V1.0.2/MSDK/lwip/lwip-2.1.2/port\wifi_netif.c **** 
 640              		.loc 1 470 9 is_stmt 1
 470:C:/Users/stapi/OneDrive/Desktop/GD32VW553/GD32VW55X_Wifi_BLE_SDK/GD32VW55x_RELEASE_V1.0.2/MSDK/lwip/lwip-2.1.2/port\wifi_netif.c **** 
 641              		.loc 1 470 34 is_stmt 0
 642 0014 DC47     		lw	a5,12(a5)
 643              	.LVL73:
 470:C:/Users/stapi/OneDrive/Desktop/GD32VW553/GD32VW55X_Wifi_BLE_SDK/GD32VW55x_RELEASE_V1.0.2/MSDK/lwip/lwip-2.1.2/port\wifi_netif.c **** 
 644              		.loc 1 470 13
 645 0016 9CC2     		sw	a5,0(a3)
 646 0018 8280     		ret
 647              	.LVL74:
 648              	.L58:
 463:C:/Users/stapi/OneDrive/Desktop/GD32VW553/GD32VW55X_Wifi_BLE_SDK/GD32VW55x_RELEASE_V1.0.2/MSDK/lwip/lwip-2.1.2/port\wifi_netif.c **** 
 649              		.loc 1 463 16
 650 001a 7D55     		li	a0,-1
 651              	.LVL75:
 652              	.L54:
 473:C:/Users/stapi/OneDrive/Desktop/GD32VW553/GD32VW55X_Wifi_BLE_SDK/GD32VW55x_RELEASE_V1.0.2/MSDK/lwip/lwip-2.1.2/port\wifi_netif.c **** 
 653              		.loc 1 473 1
 654 001c 8280     		ret
 655              		.cfi_endproc
 656              	.LFE28:
 658              		.section	.rodata.net_if_input.str1.4,"aMS",@progbits,1
 659              		.align	2
 660              	.LC0:
 661 0000 70627566 		.string	"pbuf_alloced_custom NULL\r\n"
 661      5F616C6C 
 661      6F636564 
 661      5F637573 
 661      746F6D20 
 662              		.section	.text.net_if_input,"ax",@progbits
 663              		.align	1
 664              		.globl	net_if_input
 666              	net_if_input:
 667              	.LFB29:
 489:C:/Users/stapi/OneDrive/Desktop/GD32VW553/GD32VW55X_Wifi_BLE_SDK/GD32VW55x_RELEASE_V1.0.2/MSDK/lwip/lwip-2.1.2/port\wifi_netif.c ****     struct pbuf* p;
 668              		.loc 1 489 1 is_stmt 1
 669              		.cfi_startproc
 670              	.LVL76:
 671 0000 17030000 		call	t0,__riscv_save_3
 671      E7020300 
 672              		.cfi_offset 18, -16
 673              		.cfi_offset 9, -12
 674              		.cfi_offset 8, -8
 675              		.cfi_offset 1, -4
 676              		.cfi_def_cfa_offset 16
 490:C:/Users/stapi/OneDrive/Desktop/GD32VW553/GD32VW55X_Wifi_BLE_SDK/GD32VW55x_RELEASE_V1.0.2/MSDK/lwip/lwip-2.1.2/port\wifi_netif.c ****     struct netif *netif = (struct netif *)net_if;
 677              		.loc 1 490 5
 491:C:/Users/stapi/OneDrive/Desktop/GD32VW553/GD32VW55X_Wifi_BLE_SDK/GD32VW55x_RELEASE_V1.0.2/MSDK/lwip/lwip-2.1.2/port\wifi_netif.c **** 
 678              		.loc 1 491 5
 489:C:/Users/stapi/OneDrive/Desktop/GD32VW553/GD32VW55X_Wifi_BLE_SDK/GD32VW55x_RELEASE_V1.0.2/MSDK/lwip/lwip-2.1.2/port\wifi_netif.c ****     struct pbuf* p;
 679              		.loc 1 489 1 is_stmt 0
 680 0008 B687     		mv	a5,a3
 493:C:/Users/stapi/OneDrive/Desktop/GD32VW553/GD32VW55X_Wifi_BLE_SDK/GD32VW55x_RELEASE_V1.0.2/MSDK/lwip/lwip-2.1.2/port\wifi_netif.c ****     p = pbuf_alloced_custom(PBUF_RAW, len, PBUF_REF, buf, addr, len);
 681              		.loc 1 493 31
 682 000a 18C9     		sw	a4,16(a0)
 489:C:/Users/stapi/OneDrive/Desktop/GD32VW553/GD32VW55X_Wifi_BLE_SDK/GD32VW55x_RELEASE_V1.0.2/MSDK/lwip/lwip-2.1.2/port\wifi_netif.c ****     struct pbuf* p;
 683              		.loc 1 489 1
 684 000c 2A84     		mv	s0,a0
 685 000e AE84     		mv	s1,a1
 686              	.LVL77:
 493:C:/Users/stapi/OneDrive/Desktop/GD32VW553/GD32VW55X_Wifi_BLE_SDK/GD32VW55x_RELEASE_V1.0.2/MSDK/lwip/lwip-2.1.2/port\wifi_netif.c ****     p = pbuf_alloced_custom(PBUF_RAW, len, PBUF_REF, buf, addr, len);
 687              		.loc 1 493 5 is_stmt 1
 494:C:/Users/stapi/OneDrive/Desktop/GD32VW553/GD32VW55X_Wifi_BLE_SDK/GD32VW55x_RELEASE_V1.0.2/MSDK/lwip/lwip-2.1.2/port\wifi_netif.c ****     if (p == NULL)
 688              		.loc 1 494 5
 489:C:/Users/stapi/OneDrive/Desktop/GD32VW553/GD32VW55X_Wifi_BLE_SDK/GD32VW55x_RELEASE_V1.0.2/MSDK/lwip/lwip-2.1.2/port\wifi_netif.c ****     struct pbuf* p;
 689              		.loc 1 489 1 is_stmt 0
 690 0010 3A89     		mv	s2,a4
 494:C:/Users/stapi/OneDrive/Desktop/GD32VW553/GD32VW55X_Wifi_BLE_SDK/GD32VW55x_RELEASE_V1.0.2/MSDK/lwip/lwip-2.1.2/port\wifi_netif.c ****     if (p == NULL)
 691              		.loc 1 494 9
 692 0012 AA86     		mv	a3,a0
 693              	.LVL78:
 694 0014 3287     		mv	a4,a2
 695              	.LVL79:
 696 0016 BE85     		mv	a1,a5
 697              	.LVL80:
 698 0018 13061004 		li	a2,65
 699              	.LVL81:
 700 001c 0145     		li	a0,0
 701              	.LVL82:
 702 001e 97000000 		call	pbuf_alloced_custom
 702      E7800000 
 703              	.LVL83:
 495:C:/Users/stapi/OneDrive/Desktop/GD32VW553/GD32VW55X_Wifi_BLE_SDK/GD32VW55x_RELEASE_V1.0.2/MSDK/lwip/lwip-2.1.2/port\wifi_netif.c ****     {
 704              		.loc 1 495 5 is_stmt 1
 495:C:/Users/stapi/OneDrive/Desktop/GD32VW553/GD32VW55X_Wifi_BLE_SDK/GD32VW55x_RELEASE_V1.0.2/MSDK/lwip/lwip-2.1.2/port\wifi_netif.c ****     {
 705              		.loc 1 495 8 is_stmt 0
 706 0026 0DE5     		bne	a0,zero,.L67
 497:C:/Users/stapi/OneDrive/Desktop/GD32VW553/GD32VW55X_Wifi_BLE_SDK/GD32VW55x_RELEASE_V1.0.2/MSDK/lwip/lwip-2.1.2/port\wifi_netif.c ****         free_fn(buf);
 707              		.loc 1 497 9 is_stmt 1
 497:C:/Users/stapi/OneDrive/Desktop/GD32VW553/GD32VW55X_Wifi_BLE_SDK/GD32VW55x_RELEASE_V1.0.2/MSDK/lwip/lwip-2.1.2/port\wifi_netif.c ****         free_fn(buf);
 708              		.loc 1 497 9
 709 0028 B7070000 		lui	a5,%hi(global_debug_level)
 710 002c 83C70700 		lbu	a5,%lo(global_debug_level)(a5)
 711 0030 89CB     		beq	a5,zero,.L68
 497:C:/Users/stapi/OneDrive/Desktop/GD32VW553/GD32VW55X_Wifi_BLE_SDK/GD32VW55x_RELEASE_V1.0.2/MSDK/lwip/lwip-2.1.2/port\wifi_netif.c ****         free_fn(buf);
 712              		.loc 1 497 9 discriminator 1
 713 0032 37050000 		lui	a0,%hi(.LC0)
 714              	.LVL84:
 715 0036 13050500 		addi	a0,a0,%lo(.LC0)
 716 003a 97000000 		call	co_printf
 716      E7800000 
 717              	.LVL85:
 718              	.L68:
 497:C:/Users/stapi/OneDrive/Desktop/GD32VW553/GD32VW55X_Wifi_BLE_SDK/GD32VW55x_RELEASE_V1.0.2/MSDK/lwip/lwip-2.1.2/port\wifi_netif.c ****         free_fn(buf);
 719              		.loc 1 497 9 discriminator 3
 498:C:/Users/stapi/OneDrive/Desktop/GD32VW553/GD32VW55X_Wifi_BLE_SDK/GD32VW55x_RELEASE_V1.0.2/MSDK/lwip/lwip-2.1.2/port\wifi_netif.c ****         return -1;
 720              		.loc 1 498 9 discriminator 3
 721 0042 2285     		mv	a0,s0
 722 0044 0299     		jalr	s2
 723              	.LVL86:
 499:C:/Users/stapi/OneDrive/Desktop/GD32VW553/GD32VW55X_Wifi_BLE_SDK/GD32VW55x_RELEASE_V1.0.2/MSDK/lwip/lwip-2.1.2/port\wifi_netif.c ****     }
 724              		.loc 1 499 9 discriminator 3
 499:C:/Users/stapi/OneDrive/Desktop/GD32VW553/GD32VW55X_Wifi_BLE_SDK/GD32VW55x_RELEASE_V1.0.2/MSDK/lwip/lwip-2.1.2/port\wifi_netif.c ****     }
 725              		.loc 1 499 16 is_stmt 0 discriminator 3
 726 0046 7D55     		li	a0,-1
 727              	.L66:
 509:C:/Users/stapi/OneDrive/Desktop/GD32VW553/GD32VW55X_Wifi_BLE_SDK/GD32VW55x_RELEASE_V1.0.2/MSDK/lwip/lwip-2.1.2/port\wifi_netif.c **** 
 728              		.loc 1 509 1
 729 0048 17030000 		tail	__riscv_restore_3
 729      67000300 
 730              		.cfi_remember_state
 731              		.cfi_restore 18
 732              		.cfi_restore 9
 733              		.cfi_restore 8
 734              		.cfi_restore 1
 735              		.cfi_def_cfa_offset 0
 736              	.LVL87:
 737              	.L67:
 738              		.cfi_restore_state
 502:C:/Users/stapi/OneDrive/Desktop/GD32VW553/GD32VW55X_Wifi_BLE_SDK/GD32VW55x_RELEASE_V1.0.2/MSDK/lwip/lwip-2.1.2/port\wifi_netif.c ****     {
 739              		.loc 1 502 5 is_stmt 1
 502:C:/Users/stapi/OneDrive/Desktop/GD32VW553/GD32VW55X_Wifi_BLE_SDK/GD32VW55x_RELEASE_V1.0.2/MSDK/lwip/lwip-2.1.2/port\wifi_netif.c ****     {
 740              		.loc 1 502 9 is_stmt 0
 741 0050 9C48     		lw	a5,16(s1)
 742 0052 A685     		mv	a1,s1
 743 0054 8297     		jalr	a5
 744              	.LVL88:
 502:C:/Users/stapi/OneDrive/Desktop/GD32VW553/GD32VW55X_Wifi_BLE_SDK/GD32VW55x_RELEASE_V1.0.2/MSDK/lwip/lwip-2.1.2/port\wifi_netif.c ****     {
 745              		.loc 1 502 8
 746 0056 6DD9     		beq	a0,zero,.L66
 747 0058 EDB7     		j	.L68
 748              		.cfi_endproc
 749              	.LFE29:
 751              		.section	.text.net_if_vif_info,"ax",@progbits
 752              		.align	1
 753              		.globl	net_if_vif_info
 755              	net_if_vif_info:
 756              	.LFB30:
 519:C:/Users/stapi/OneDrive/Desktop/GD32VW553/GD32VW55X_Wifi_BLE_SDK/GD32VW55x_RELEASE_V1.0.2/MSDK/lwip/lwip-2.1.2/port\wifi_netif.c ****     struct netif *netif = (struct netif *)net_if;
 757              		.loc 1 519 1 is_stmt 1
 758              		.cfi_startproc
 759              	.LVL89:
 520:C:/Users/stapi/OneDrive/Desktop/GD32VW553/GD32VW55X_Wifi_BLE_SDK/GD32VW55x_RELEASE_V1.0.2/MSDK/lwip/lwip-2.1.2/port\wifi_netif.c **** 
 760              		.loc 1 520 5
 522:C:/Users/stapi/OneDrive/Desktop/GD32VW553/GD32VW55X_Wifi_BLE_SDK/GD32VW55x_RELEASE_V1.0.2/MSDK/lwip/lwip-2.1.2/port\wifi_netif.c **** }
 761              		.loc 1 522 5
 523:C:/Users/stapi/OneDrive/Desktop/GD32VW553/GD32VW55X_Wifi_BLE_SDK/GD32VW55x_RELEASE_V1.0.2/MSDK/lwip/lwip-2.1.2/port\wifi_netif.c **** 
 762              		.loc 1 523 1 is_stmt 0
 763 0000 484D     		lw	a0,28(a0)
 764              	.LVL90:
 765 0002 8280     		ret
 766              		.cfi_endproc
 767              	.LFE30:
 769              		.section	.text.net_buf_tx_alloc,"ax",@progbits
 770              		.align	1
 771              		.globl	net_buf_tx_alloc
 773              	net_buf_tx_alloc:
 774              	.LFB31:
 536:C:/Users/stapi/OneDrive/Desktop/GD32VW553/GD32VW55X_Wifi_BLE_SDK/GD32VW55x_RELEASE_V1.0.2/MSDK/lwip/lwip-2.1.2/port\wifi_netif.c ****     struct pbuf *pbuf;
 775              		.loc 1 536 1 is_stmt 1
 776              		.cfi_startproc
 777              	.LVL91:
 537:C:/Users/stapi/OneDrive/Desktop/GD32VW553/GD32VW55X_Wifi_BLE_SDK/GD32VW55x_RELEASE_V1.0.2/MSDK/lwip/lwip-2.1.2/port\wifi_netif.c **** 
 778              		.loc 1 537 5
 539:C:/Users/stapi/OneDrive/Desktop/GD32VW553/GD32VW55X_Wifi_BLE_SDK/GD32VW55x_RELEASE_V1.0.2/MSDK/lwip/lwip-2.1.2/port\wifi_netif.c ****     if (pbuf == NULL)
 779              		.loc 1 539 5
 539:C:/Users/stapi/OneDrive/Desktop/GD32VW553/GD32VW55X_Wifi_BLE_SDK/GD32VW55x_RELEASE_V1.0.2/MSDK/lwip/lwip-2.1.2/port\wifi_netif.c ****     if (pbuf == NULL)
 780              		.loc 1 539 12 is_stmt 0
 781 0000 B3450508 		zext.h	a1,a0
 782 0004 13060028 		li	a2,640
 783 0008 1305C015 		li	a0,348
 784              	.LVL92:
 785 000c 17030000 		tail	pbuf_alloc
 785      67000300 
 786              	.LVL93:
 540:C:/Users/stapi/OneDrive/Desktop/GD32VW553/GD32VW55X_Wifi_BLE_SDK/GD32VW55x_RELEASE_V1.0.2/MSDK/lwip/lwip-2.1.2/port\wifi_netif.c ****         return NULL;
 787              		.loc 1 540 5 is_stmt 1
 788              		.cfi_endproc
 789              	.LFE31:
 791              		.section	.text.net_buf_tx_alloc_ref,"ax",@progbits
 792              		.align	1
 793              		.globl	net_buf_tx_alloc_ref
 795              	net_buf_tx_alloc_ref:
 796              	.LFB32:
 556:C:/Users/stapi/OneDrive/Desktop/GD32VW553/GD32VW55X_Wifi_BLE_SDK/GD32VW55x_RELEASE_V1.0.2/MSDK/lwip/lwip-2.1.2/port\wifi_netif.c ****     struct pbuf *pbuf;
 797              		.loc 1 556 1
 798              		.cfi_startproc
 799              	.LVL94:
 557:C:/Users/stapi/OneDrive/Desktop/GD32VW553/GD32VW55X_Wifi_BLE_SDK/GD32VW55x_RELEASE_V1.0.2/MSDK/lwip/lwip-2.1.2/port\wifi_netif.c **** 
 800              		.loc 1 557 5
 559:C:/Users/stapi/OneDrive/Desktop/GD32VW553/GD32VW55X_Wifi_BLE_SDK/GD32VW55x_RELEASE_V1.0.2/MSDK/lwip/lwip-2.1.2/port\wifi_netif.c ****     if (pbuf == NULL)
 801              		.loc 1 559 5
 559:C:/Users/stapi/OneDrive/Desktop/GD32VW553/GD32VW55X_Wifi_BLE_SDK/GD32VW55x_RELEASE_V1.0.2/MSDK/lwip/lwip-2.1.2/port\wifi_netif.c ****     if (pbuf == NULL)
 802              		.loc 1 559 12 is_stmt 0
 803 0000 B3450508 		zext.h	a1,a0
 804 0004 13061004 		li	a2,65
 805 0008 1305C015 		li	a0,348
 806              	.LVL95:
 807 000c 17030000 		tail	pbuf_alloc
 807      67000300 
 808              	.LVL96:
 560:C:/Users/stapi/OneDrive/Desktop/GD32VW553/GD32VW55X_Wifi_BLE_SDK/GD32VW55x_RELEASE_V1.0.2/MSDK/lwip/lwip-2.1.2/port\wifi_netif.c ****         return NULL;
 809              		.loc 1 560 5 is_stmt 1
 810              		.cfi_endproc
 811              	.LFE32:
 813              		.section	.rodata.net_buf_tx_info.str1.4,"aMS",@progbits,1
 814              		.align	2
 815              	.LC1:
 816 0000 70627566 		.string	"pbuf_header() failed\r\n"
 816      5F686561 
 816      64657228 
 816      29206661 
 816      696C6564 
 817 0017 00       		.align	2
 818              	.LC2:
 819 0018 72656D61 		.string	"remaining length != 0\r\n"
 819      696E696E 
 819      67206C65 
 819      6E677468 
 819      20213D20 
 820              		.section	.text.net_buf_tx_info,"ax",@progbits
 821              		.align	1
 822              		.globl	net_buf_tx_info
 824              	net_buf_tx_info:
 825              	.LFB33:
 585:C:/Users/stapi/OneDrive/Desktop/GD32VW553/GD32VW55X_Wifi_BLE_SDK/GD32VW55x_RELEASE_V1.0.2/MSDK/lwip/lwip-2.1.2/port\wifi_netif.c ****     int idx, seg_cnt_max = *seg_cnt;
 826              		.loc 1 585 1
 827              		.cfi_startproc
 828              	.LVL97:
 829 0000 17030000 		call	t0,__riscv_save_6
 829      E7020300 
 830              		.cfi_offset 21, -28
 831              		.cfi_offset 20, -24
 832              		.cfi_offset 19, -20
 833              		.cfi_offset 18, -16
 834              		.cfi_offset 9, -12
 835              		.cfi_offset 8, -8
 836              		.cfi_offset 1, -4
 837              		.cfi_def_cfa_offset 32
 586:C:/Users/stapi/OneDrive/Desktop/GD32VW553/GD32VW55X_Wifi_BLE_SDK/GD32VW55x_RELEASE_V1.0.2/MSDK/lwip/lwip-2.1.2/port\wifi_netif.c ****     uint16_t length = buf->tot_len;
 838              		.loc 1 586 5
 587:C:/Users/stapi/OneDrive/Desktop/GD32VW553/GD32VW55X_Wifi_BLE_SDK/GD32VW55x_RELEASE_V1.0.2/MSDK/lwip/lwip-2.1.2/port\wifi_netif.c ****     void *headroom;
 839              		.loc 1 587 14 is_stmt 0
 840 0008 03548500 		lhu	s0,8(a0)
 595:C:/Users/stapi/OneDrive/Desktop/GD32VW553/GD32VW55X_Wifi_BLE_SDK/GD32VW55x_RELEASE_V1.0.2/MSDK/lwip/lwip-2.1.2/port\wifi_netif.c ****     seg_len[0] = buf->len;
 841              		.loc 1 595 17
 842 000c 5C41     		lw	a5,4(a0)
 586:C:/Users/stapi/OneDrive/Desktop/GD32VW553/GD32VW55X_Wifi_BLE_SDK/GD32VW55x_RELEASE_V1.0.2/MSDK/lwip/lwip-2.1.2/port\wifi_netif.c ****     uint16_t length = buf->tot_len;
 843              		.loc 1 586 14
 844 000e 832A0600 		lw	s5,0(a2)
 845              	.LVL98:
 587:C:/Users/stapi/OneDrive/Desktop/GD32VW553/GD32VW55X_Wifi_BLE_SDK/GD32VW55x_RELEASE_V1.0.2/MSDK/lwip/lwip-2.1.2/port\wifi_netif.c ****     void *headroom;
 846              		.loc 1 587 5 is_stmt 1
 588:C:/Users/stapi/OneDrive/Desktop/GD32VW553/GD32VW55X_Wifi_BLE_SDK/GD32VW55x_RELEASE_V1.0.2/MSDK/lwip/lwip-2.1.2/port\wifi_netif.c **** 
 847              		.loc 1 588 5
 590:C:/Users/stapi/OneDrive/Desktop/GD32VW553/GD32VW55X_Wifi_BLE_SDK/GD32VW55x_RELEASE_V1.0.2/MSDK/lwip/lwip-2.1.2/port\wifi_netif.c **** 
 848              		.loc 1 590 5
 590:C:/Users/stapi/OneDrive/Desktop/GD32VW553/GD32VW55X_Wifi_BLE_SDK/GD32VW55x_RELEASE_V1.0.2/MSDK/lwip/lwip-2.1.2/port\wifi_netif.c **** 
 849              		.loc 1 590 14 is_stmt 0
 850 0012 23908500 		sh	s0,0(a1)
 595:C:/Users/stapi/OneDrive/Desktop/GD32VW553/GD32VW55X_Wifi_BLE_SDK/GD32VW55x_RELEASE_V1.0.2/MSDK/lwip/lwip-2.1.2/port\wifi_netif.c ****     seg_len[0] = buf->len;
 851              		.loc 1 595 5 is_stmt 1
 595:C:/Users/stapi/OneDrive/Desktop/GD32VW553/GD32VW55X_Wifi_BLE_SDK/GD32VW55x_RELEASE_V1.0.2/MSDK/lwip/lwip-2.1.2/port\wifi_netif.c ****     seg_len[0] = buf->len;
 852              		.loc 1 595 17 is_stmt 0
 853 0016 9CC2     		sw	a5,0(a3)
 596:C:/Users/stapi/OneDrive/Desktop/GD32VW553/GD32VW55X_Wifi_BLE_SDK/GD32VW55x_RELEASE_V1.0.2/MSDK/lwip/lwip-2.1.2/port\wifi_netif.c ****     length -= buf->len;
 854              		.loc 1 596 5 is_stmt 1
 596:C:/Users/stapi/OneDrive/Desktop/GD32VW553/GD32VW55X_Wifi_BLE_SDK/GD32VW55x_RELEASE_V1.0.2/MSDK/lwip/lwip-2.1.2/port\wifi_netif.c ****     length -= buf->len;
 855              		.loc 1 596 21 is_stmt 0
 856 0018 8357A500 		lhu	a5,10(a0)
 600:C:/Users/stapi/OneDrive/Desktop/GD32VW553/GD32VW55X_Wifi_BLE_SDK/GD32VW55x_RELEASE_V1.0.2/MSDK/lwip/lwip-2.1.2/port\wifi_netif.c ****     {
 857              		.loc 1 600 9
 858 001c 9305C015 		li	a1,348
 859              	.LVL99:
 585:C:/Users/stapi/OneDrive/Desktop/GD32VW553/GD32VW55X_Wifi_BLE_SDK/GD32VW55x_RELEASE_V1.0.2/MSDK/lwip/lwip-2.1.2/port\wifi_netif.c ****     int idx, seg_cnt_max = *seg_cnt;
 860              		.loc 1 585 1
 861 0020 AA84     		mv	s1,a0
 596:C:/Users/stapi/OneDrive/Desktop/GD32VW553/GD32VW55X_Wifi_BLE_SDK/GD32VW55x_RELEASE_V1.0.2/MSDK/lwip/lwip-2.1.2/port\wifi_netif.c ****     length -= buf->len;
 862              		.loc 1 596 16
 863 0022 2310F700 		sh	a5,0(a4)
 597:C:/Users/stapi/OneDrive/Desktop/GD32VW553/GD32VW55X_Wifi_BLE_SDK/GD32VW55x_RELEASE_V1.0.2/MSDK/lwip/lwip-2.1.2/port\wifi_netif.c **** 
 864              		.loc 1 597 5 is_stmt 1
 597:C:/Users/stapi/OneDrive/Desktop/GD32VW553/GD32VW55X_Wifi_BLE_SDK/GD32VW55x_RELEASE_V1.0.2/MSDK/lwip/lwip-2.1.2/port\wifi_netif.c **** 
 865              		.loc 1 597 12 is_stmt 0
 866 0026 8357A500 		lhu	a5,10(a0)
 585:C:/Users/stapi/OneDrive/Desktop/GD32VW553/GD32VW55X_Wifi_BLE_SDK/GD32VW55x_RELEASE_V1.0.2/MSDK/lwip/lwip-2.1.2/port\wifi_netif.c ****     int idx, seg_cnt_max = *seg_cnt;
 867              		.loc 1 585 1
 868 002a 3289     		mv	s2,a2
 869 002c B689     		mv	s3,a3
 870 002e 3A8A     		mv	s4,a4
 597:C:/Users/stapi/OneDrive/Desktop/GD32VW553/GD32VW55X_Wifi_BLE_SDK/GD32VW55x_RELEASE_V1.0.2/MSDK/lwip/lwip-2.1.2/port\wifi_netif.c **** 
 871              		.loc 1 597 12
 872 0030 1D8C     		sub	s0,s0,a5
 873              	.LVL100:
 600:C:/Users/stapi/OneDrive/Desktop/GD32VW553/GD32VW55X_Wifi_BLE_SDK/GD32VW55x_RELEASE_V1.0.2/MSDK/lwip/lwip-2.1.2/port\wifi_netif.c ****     {
 874              		.loc 1 600 5 is_stmt 1
 600:C:/Users/stapi/OneDrive/Desktop/GD32VW553/GD32VW55X_Wifi_BLE_SDK/GD32VW55x_RELEASE_V1.0.2/MSDK/lwip/lwip-2.1.2/port\wifi_netif.c ****     {
 875              		.loc 1 600 9 is_stmt 0
 876 0032 97000000 		call	pbuf_header
 876      E7800000 
 877              	.LVL101:
 600:C:/Users/stapi/OneDrive/Desktop/GD32VW553/GD32VW55X_Wifi_BLE_SDK/GD32VW55x_RELEASE_V1.0.2/MSDK/lwip/lwip-2.1.2/port\wifi_netif.c ****     {
 878              		.loc 1 600 8
 879 003a 05C5     		beq	a0,zero,.L80
 603:C:/Users/stapi/OneDrive/Desktop/GD32VW553/GD32VW55X_Wifi_BLE_SDK/GD32VW55x_RELEASE_V1.0.2/MSDK/lwip/lwip-2.1.2/port\wifi_netif.c ****         return NULL;
 880              		.loc 1 603 9 is_stmt 1
 603:C:/Users/stapi/OneDrive/Desktop/GD32VW553/GD32VW55X_Wifi_BLE_SDK/GD32VW55x_RELEASE_V1.0.2/MSDK/lwip/lwip-2.1.2/port\wifi_netif.c ****         return NULL;
 881              		.loc 1 603 9
 882 003c B7070000 		lui	a5,%hi(global_debug_level)
 883 0040 83C70700 		lbu	a5,%lo(global_debug_level)(a5)
 884 0044 91E7     		bne	a5,zero,.L81
 885              	.LVL102:
 886              	.L100:
 629:C:/Users/stapi/OneDrive/Desktop/GD32VW553/GD32VW55X_Wifi_BLE_SDK/GD32VW55x_RELEASE_V1.0.2/MSDK/lwip/lwip-2.1.2/port\wifi_netif.c ****     }
 887              		.loc 1 629 16 is_stmt 0 discriminator 1
 888 0046 0145     		li	a0,0
 889              	.L79:
 633:C:/Users/stapi/OneDrive/Desktop/GD32VW553/GD32VW55X_Wifi_BLE_SDK/GD32VW55x_RELEASE_V1.0.2/MSDK/lwip/lwip-2.1.2/port\wifi_netif.c **** 
 890              		.loc 1 633 1
 891 0048 17030000 		tail	__riscv_restore_6
 891      67000300 
 892              		.cfi_remember_state
 893              		.cfi_restore 21
 894              		.cfi_restore 20
 895              		.cfi_restore 19
 896              		.cfi_restore 18
 897              		.cfi_restore 9
 898              		.cfi_restore 8
 899              		.cfi_restore 1
 900              		.cfi_def_cfa_offset 0
 901              	.LVL103:
 902              	.L81:
 903              		.cfi_restore_state
 603:C:/Users/stapi/OneDrive/Desktop/GD32VW553/GD32VW55X_Wifi_BLE_SDK/GD32VW55x_RELEASE_V1.0.2/MSDK/lwip/lwip-2.1.2/port\wifi_netif.c ****         return NULL;
 904              		.loc 1 603 9 is_stmt 1 discriminator 1
 905 0050 37050000 		lui	a0,%hi(.LC1)
 906 0054 13050500 		addi	a0,a0,%lo(.LC1)
 907              	.LVL104:
 908              	.L101:
 628:C:/Users/stapi/OneDrive/Desktop/GD32VW553/GD32VW55X_Wifi_BLE_SDK/GD32VW55x_RELEASE_V1.0.2/MSDK/lwip/lwip-2.1.2/port\wifi_netif.c ****         return NULL;
 909              		.loc 1 628 9 is_stmt 0 discriminator 1
 910 0058 97000000 		call	co_printf
 910      E7800000 
 911              	.LVL105:
 912 0060 DDB7     		j	.L100
 913              	.LVL106:
 914              	.L80:
 606:C:/Users/stapi/OneDrive/Desktop/GD32VW553/GD32VW55X_Wifi_BLE_SDK/GD32VW55x_RELEASE_V1.0.2/MSDK/lwip/lwip-2.1.2/port\wifi_netif.c **** 
 915              		.loc 1 606 24
 916 0062 C840     		lw	a0,4(s1)
 609:C:/Users/stapi/OneDrive/Desktop/GD32VW553/GD32VW55X_Wifi_BLE_SDK/GD32VW55x_RELEASE_V1.0.2/MSDK/lwip/lwip-2.1.2/port\wifi_netif.c ****     idx = 1;
 917              		.loc 1 609 9
 918 0064 8C40     		lw	a1,0(s1)
 610:C:/Users/stapi/OneDrive/Desktop/GD32VW553/GD32VW55X_Wifi_BLE_SDK/GD32VW55x_RELEASE_V1.0.2/MSDK/lwip/lwip-2.1.2/port\wifi_netif.c ****     while (length && buf && (idx < seg_cnt_max))
 919              		.loc 1 610 9
 920 0066 8547     		li	a5,1
 606:C:/Users/stapi/OneDrive/Desktop/GD32VW553/GD32VW55X_Wifi_BLE_SDK/GD32VW55x_RELEASE_V1.0.2/MSDK/lwip/lwip-2.1.2/port\wifi_netif.c **** 
 921              		.loc 1 606 24
 922 0068 0D05     		addi	a0,a0,3
 923 006a 7199     		andi	a0,a0,-4
 924 006c 33440408 		zext.h	s0,s0
 606:C:/Users/stapi/OneDrive/Desktop/GD32VW553/GD32VW55X_Wifi_BLE_SDK/GD32VW55x_RELEASE_V1.0.2/MSDK/lwip/lwip-2.1.2/port\wifi_netif.c **** 
 925              		.loc 1 606 5 is_stmt 1
 926              	.LVL107:
 609:C:/Users/stapi/OneDrive/Desktop/GD32VW553/GD32VW55X_Wifi_BLE_SDK/GD32VW55x_RELEASE_V1.0.2/MSDK/lwip/lwip-2.1.2/port\wifi_netif.c ****     idx = 1;
 927              		.loc 1 609 5
 610:C:/Users/stapi/OneDrive/Desktop/GD32VW553/GD32VW55X_Wifi_BLE_SDK/GD32VW55x_RELEASE_V1.0.2/MSDK/lwip/lwip-2.1.2/port\wifi_netif.c ****     while (length && buf && (idx < seg_cnt_max))
 928              		.loc 1 610 5
 611:C:/Users/stapi/OneDrive/Desktop/GD32VW553/GD32VW55X_Wifi_BLE_SDK/GD32VW55x_RELEASE_V1.0.2/MSDK/lwip/lwip-2.1.2/port\wifi_netif.c ****     {
 929              		.loc 1 611 5
 930              	.L83:
 611:C:/Users/stapi/OneDrive/Desktop/GD32VW553/GD32VW55X_Wifi_BLE_SDK/GD32VW55x_RELEASE_V1.0.2/MSDK/lwip/lwip-2.1.2/port\wifi_netif.c ****     {
 931              		.loc 1 611 11
 932 0070 01C4     		beq	s0,zero,.L84
 611:C:/Users/stapi/OneDrive/Desktop/GD32VW553/GD32VW55X_Wifi_BLE_SDK/GD32VW55x_RELEASE_V1.0.2/MSDK/lwip/lwip-2.1.2/port\wifi_netif.c ****     {
 933              		.loc 1 611 19 is_stmt 0 discriminator 1
 934 0072 99C1     		beq	a1,zero,.L84
 611:C:/Users/stapi/OneDrive/Desktop/GD32VW553/GD32VW55X_Wifi_BLE_SDK/GD32VW55x_RELEASE_V1.0.2/MSDK/lwip/lwip-2.1.2/port\wifi_netif.c ****     {
 935              		.loc 1 611 26 discriminator 2
 936 0074 63CF5701 		blt	a5,s5,.L85
 937              	.L84:
 624:C:/Users/stapi/OneDrive/Desktop/GD32VW553/GD32VW55X_Wifi_BLE_SDK/GD32VW55x_RELEASE_V1.0.2/MSDK/lwip/lwip-2.1.2/port\wifi_netif.c ****     if (length != 0)
 938              		.loc 1 624 5 is_stmt 1
 624:C:/Users/stapi/OneDrive/Desktop/GD32VW553/GD32VW55X_Wifi_BLE_SDK/GD32VW55x_RELEASE_V1.0.2/MSDK/lwip/lwip-2.1.2/port\wifi_netif.c ****     if (length != 0)
 939              		.loc 1 624 14 is_stmt 0
 940 0078 2320F900 		sw	a5,0(s2)
 625:C:/Users/stapi/OneDrive/Desktop/GD32VW553/GD32VW55X_Wifi_BLE_SDK/GD32VW55x_RELEASE_V1.0.2/MSDK/lwip/lwip-2.1.2/port\wifi_netif.c ****     {
 941              		.loc 1 625 5 is_stmt 1
 625:C:/Users/stapi/OneDrive/Desktop/GD32VW553/GD32VW55X_Wifi_BLE_SDK/GD32VW55x_RELEASE_V1.0.2/MSDK/lwip/lwip-2.1.2/port\wifi_netif.c ****     {
 942              		.loc 1 625 8 is_stmt 0
 943 007c 71D4     		beq	s0,zero,.L79
 628:C:/Users/stapi/OneDrive/Desktop/GD32VW553/GD32VW55X_Wifi_BLE_SDK/GD32VW55x_RELEASE_V1.0.2/MSDK/lwip/lwip-2.1.2/port\wifi_netif.c ****         return NULL;
 944              		.loc 1 628 9 is_stmt 1
 628:C:/Users/stapi/OneDrive/Desktop/GD32VW553/GD32VW55X_Wifi_BLE_SDK/GD32VW55x_RELEASE_V1.0.2/MSDK/lwip/lwip-2.1.2/port\wifi_netif.c ****         return NULL;
 945              		.loc 1 628 9
 946 007e B7070000 		lui	a5,%hi(global_debug_level)
 947              	.LVL108:
 948 0082 83C70700 		lbu	a5,%lo(global_debug_level)(a5)
 949 0086 E1D3     		beq	a5,zero,.L100
 628:C:/Users/stapi/OneDrive/Desktop/GD32VW553/GD32VW55X_Wifi_BLE_SDK/GD32VW55x_RELEASE_V1.0.2/MSDK/lwip/lwip-2.1.2/port\wifi_netif.c ****         return NULL;
 950              		.loc 1 628 9 discriminator 1
 951 0088 37050000 		lui	a0,%hi(.LC2)
 952              	.LVL109:
 953 008c 13050500 		addi	a0,a0,%lo(.LC2)
 954 0090 E1B7     		j	.L101
 955              	.LVL110:
 956              	.L85:
 617:C:/Users/stapi/OneDrive/Desktop/GD32VW553/GD32VW55X_Wifi_BLE_SDK/GD32VW55x_RELEASE_V1.0.2/MSDK/lwip/lwip-2.1.2/port\wifi_netif.c ****         seg_len[idx] = buf->len;
 957              		.loc 1 617 9
 617:C:/Users/stapi/OneDrive/Desktop/GD32VW553/GD32VW55X_Wifi_BLE_SDK/GD32VW55x_RELEASE_V1.0.2/MSDK/lwip/lwip-2.1.2/port\wifi_netif.c ****         seg_len[idx] = buf->len;
 958              		.loc 1 617 23 is_stmt 0
 959 0092 D441     		lw	a3,4(a1)
 960 0094 33C73721 		sh2add	a4,a5,s3
 961 0098 14C3     		sw	a3,0(a4)
 618:C:/Users/stapi/OneDrive/Desktop/GD32VW553/GD32VW55X_Wifi_BLE_SDK/GD32VW55x_RELEASE_V1.0.2/MSDK/lwip/lwip-2.1.2/port\wifi_netif.c ****         length -= buf->len;
 962              		.loc 1 618 9 is_stmt 1
 618:C:/Users/stapi/OneDrive/Desktop/GD32VW553/GD32VW55X_Wifi_BLE_SDK/GD32VW55x_RELEASE_V1.0.2/MSDK/lwip/lwip-2.1.2/port\wifi_netif.c ****         length -= buf->len;
 963              		.loc 1 618 27 is_stmt 0
 964 009a 83D6A500 		lhu	a3,10(a1)
 618:C:/Users/stapi/OneDrive/Desktop/GD32VW553/GD32VW55X_Wifi_BLE_SDK/GD32VW55x_RELEASE_V1.0.2/MSDK/lwip/lwip-2.1.2/port\wifi_netif.c ****         length -= buf->len;
 965              		.loc 1 618 22
 966 009e 33A74721 		sh1add	a4,a5,s4
 620:C:/Users/stapi/OneDrive/Desktop/GD32VW553/GD32VW55X_Wifi_BLE_SDK/GD32VW55x_RELEASE_V1.0.2/MSDK/lwip/lwip-2.1.2/port\wifi_netif.c ****         buf = buf->next;
 967              		.loc 1 620 12
 968 00a2 8507     		addi	a5,a5,1
 969              	.LVL111:
 618:C:/Users/stapi/OneDrive/Desktop/GD32VW553/GD32VW55X_Wifi_BLE_SDK/GD32VW55x_RELEASE_V1.0.2/MSDK/lwip/lwip-2.1.2/port\wifi_netif.c ****         length -= buf->len;
 970              		.loc 1 618 22
 971 00a4 2310D700 		sh	a3,0(a4)
 619:C:/Users/stapi/OneDrive/Desktop/GD32VW553/GD32VW55X_Wifi_BLE_SDK/GD32VW55x_RELEASE_V1.0.2/MSDK/lwip/lwip-2.1.2/port\wifi_netif.c ****         idx++;
 972              		.loc 1 619 9 is_stmt 1
 619:C:/Users/stapi/OneDrive/Desktop/GD32VW553/GD32VW55X_Wifi_BLE_SDK/GD32VW55x_RELEASE_V1.0.2/MSDK/lwip/lwip-2.1.2/port\wifi_netif.c ****         idx++;
 973              		.loc 1 619 16 is_stmt 0
 974 00a8 03D7A500 		lhu	a4,10(a1)
 621:C:/Users/stapi/OneDrive/Desktop/GD32VW553/GD32VW55X_Wifi_BLE_SDK/GD32VW55x_RELEASE_V1.0.2/MSDK/lwip/lwip-2.1.2/port\wifi_netif.c ****     }
 975              		.loc 1 621 13
 976 00ac 8C41     		lw	a1,0(a1)
 977              	.LVL112:
 619:C:/Users/stapi/OneDrive/Desktop/GD32VW553/GD32VW55X_Wifi_BLE_SDK/GD32VW55x_RELEASE_V1.0.2/MSDK/lwip/lwip-2.1.2/port\wifi_netif.c ****         idx++;
 978              		.loc 1 619 16
 979 00ae 198C     		sub	s0,s0,a4
 980              	.LVL113:
 981 00b0 33440408 		zext.h	s0,s0
 982              	.LVL114:
 620:C:/Users/stapi/OneDrive/Desktop/GD32VW553/GD32VW55X_Wifi_BLE_SDK/GD32VW55x_RELEASE_V1.0.2/MSDK/lwip/lwip-2.1.2/port\wifi_netif.c ****         buf = buf->next;
 983              		.loc 1 620 9 is_stmt 1
 621:C:/Users/stapi/OneDrive/Desktop/GD32VW553/GD32VW55X_Wifi_BLE_SDK/GD32VW55x_RELEASE_V1.0.2/MSDK/lwip/lwip-2.1.2/port\wifi_netif.c ****     }
 984              		.loc 1 621 9
 985 00b4 75BF     		j	.L83
 986              		.cfi_endproc
 987              	.LFE33:
 989              		.section	.text.net_buf_tx_free,"ax",@progbits
 990              		.align	1
 991              		.globl	net_buf_tx_free
 993              	net_buf_tx_free:
 994              	.LFB34:
 642:C:/Users/stapi/OneDrive/Desktop/GD32VW553/GD32VW55X_Wifi_BLE_SDK/GD32VW55x_RELEASE_V1.0.2/MSDK/lwip/lwip-2.1.2/port\wifi_netif.c ****     // Remove the link encapsulation header
 995              		.loc 1 642 1
 996              		.cfi_startproc
 997              	.LVL115:
 998 0000 17030000 		call	t0,__riscv_save_1
 998      E7020300 
 999              		.cfi_offset 8, -8
 1000              		.cfi_offset 1, -4
 1001              		.cfi_def_cfa_offset 16
 644:C:/Users/stapi/OneDrive/Desktop/GD32VW553/GD32VW55X_Wifi_BLE_SDK/GD32VW55x_RELEASE_V1.0.2/MSDK/lwip/lwip-2.1.2/port\wifi_netif.c **** 
 1002              		.loc 1 644 5
 1003 0008 930540EA 		li	a1,-348
 642:C:/Users/stapi/OneDrive/Desktop/GD32VW553/GD32VW55X_Wifi_BLE_SDK/GD32VW55x_RELEASE_V1.0.2/MSDK/lwip/lwip-2.1.2/port\wifi_netif.c ****     // Remove the link encapsulation header
 1004              		.loc 1 642 1 is_stmt 0
 1005 000c 2A84     		mv	s0,a0
 644:C:/Users/stapi/OneDrive/Desktop/GD32VW553/GD32VW55X_Wifi_BLE_SDK/GD32VW55x_RELEASE_V1.0.2/MSDK/lwip/lwip-2.1.2/port\wifi_netif.c **** 
 1006              		.loc 1 644 5
 1007 000e 97000000 		call	pbuf_header
 1007      E7800000 
 1008              	.LVL116:
 647:C:/Users/stapi/OneDrive/Desktop/GD32VW553/GD32VW55X_Wifi_BLE_SDK/GD32VW55x_RELEASE_V1.0.2/MSDK/lwip/lwip-2.1.2/port\wifi_netif.c **** }
 1009              		.loc 1 647 5 is_stmt 1
 1010 0016 2285     		mv	a0,s0
 1011 0018 97000000 		call	pbuf_free
 1011      E7800000 
 1012              	.LVL117:
 648:C:/Users/stapi/OneDrive/Desktop/GD32VW553/GD32VW55X_Wifi_BLE_SDK/GD32VW55x_RELEASE_V1.0.2/MSDK/lwip/lwip-2.1.2/port\wifi_netif.c **** 
 1013              		.loc 1 648 1 is_stmt 0
 1014 0020 17030000 		tail	__riscv_restore_1
 1014      67000300 
 1015              		.cfi_restore 8
 1016              		.cfi_restore 1
 1017              		.cfi_def_cfa_offset 0
 1018              		.cfi_endproc
 1019              	.LFE34:
 1021              		.section	.text.net_buf_tx_cat,"ax",@progbits
 1022              		.align	1
 1023              		.globl	net_buf_tx_cat
 1025              	net_buf_tx_cat:
 1026              	.LFB35:
 658:C:/Users/stapi/OneDrive/Desktop/GD32VW553/GD32VW55X_Wifi_BLE_SDK/GD32VW55x_RELEASE_V1.0.2/MSDK/lwip/lwip-2.1.2/port\wifi_netif.c ****     pbuf_cat(net_buf_tx_1, net_buf_tx_2);
 1027              		.loc 1 658 1 is_stmt 1
 1028              		.cfi_startproc
 1029              	.LVL118:
 659:C:/Users/stapi/OneDrive/Desktop/GD32VW553/GD32VW55X_Wifi_BLE_SDK/GD32VW55x_RELEASE_V1.0.2/MSDK/lwip/lwip-2.1.2/port\wifi_netif.c **** }
 1030              		.loc 1 659 5
 1031 0000 17030000 		tail	pbuf_cat
 1031      67000300 
 1032              	.LVL119:
 1033              		.cfi_endproc
 1034              	.LFE35:
 1036              		.section	.rodata.net_init.str1.4,"aMS",@progbits,1
 1037              		.align	2
 1038              	.LC3:
 1039 0000 73797320 		.string	"sys sema init failed\r\n"
 1039      73656D61 
 1039      20696E69 
 1039      74206661 
 1039      696C6564 
 1040              		.section	.text.net_init,"ax",@progbits
 1041              		.align	1
 1042              		.globl	net_init
 1044              	net_init:
 1045              	.LFB36:
 691:C:/Users/stapi/OneDrive/Desktop/GD32VW553/GD32VW55X_Wifi_BLE_SDK/GD32VW55x_RELEASE_V1.0.2/MSDK/lwip/lwip-2.1.2/port\wifi_netif.c ****     int i;
 1046              		.loc 1 691 1
 1047              		.cfi_startproc
 1048 0000 17030000 		call	t0,__riscv_save_2
 1048      E7020300 
 1049              		.cfi_offset 9, -12
 1050              		.cfi_offset 8, -8
 1051              		.cfi_offset 1, -4
 1052              		.cfi_def_cfa_offset 16
 692:C:/Users/stapi/OneDrive/Desktop/GD32VW553/GD32VW55X_Wifi_BLE_SDK/GD32VW55x_RELEASE_V1.0.2/MSDK/lwip/lwip-2.1.2/port\wifi_netif.c **** 
 1053              		.loc 1 692 5
 694:C:/Users/stapi/OneDrive/Desktop/GD32VW553/GD32VW55X_Wifi_BLE_SDK/GD32VW55x_RELEASE_V1.0.2/MSDK/lwip/lwip-2.1.2/port\wifi_netif.c ****     {
 1054              		.loc 1 694 5
 1055              	.LVL120:
 694:C:/Users/stapi/OneDrive/Desktop/GD32VW553/GD32VW55X_Wifi_BLE_SDK/GD32VW55x_RELEASE_V1.0.2/MSDK/lwip/lwip-2.1.2/port\wifi_netif.c ****     {
 1056              		.loc 1 694 17
 696:C:/Users/stapi/OneDrive/Desktop/GD32VW553/GD32VW55X_Wifi_BLE_SDK/GD32VW55x_RELEASE_V1.0.2/MSDK/lwip/lwip-2.1.2/port\wifi_netif.c ****     }
 1057              		.loc 1 696 9
 696:C:/Users/stapi/OneDrive/Desktop/GD32VW553/GD32VW55X_Wifi_BLE_SDK/GD32VW55x_RELEASE_V1.0.2/MSDK/lwip/lwip-2.1.2/port\wifi_netif.c ****     }
 1058              		.loc 1 696 29 is_stmt 0
 1059 0008 B7070000 		lui	a5,%hi(.LANCHOR1)
 1060 000c 93870700 		addi	a5,a5,%lo(.LANCHOR1)
 699:C:/Users/stapi/OneDrive/Desktop/GD32VW553/GD32VW55X_Wifi_BLE_SDK/GD32VW55x_RELEASE_V1.0.2/MSDK/lwip/lwip-2.1.2/port\wifi_netif.c ****     {
 1061              		.loc 1 699 9
 1062 0010 37050000 		lui	a0,%hi(.LANCHOR0)
 696:C:/Users/stapi/OneDrive/Desktop/GD32VW553/GD32VW55X_Wifi_BLE_SDK/GD32VW55x_RELEASE_V1.0.2/MSDK/lwip/lwip-2.1.2/port\wifi_netif.c ****     }
 1063              		.loc 1 696 29
 1064 0014 23A00700 		sw	zero,0(a5)
 694:C:/Users/stapi/OneDrive/Desktop/GD32VW553/GD32VW55X_Wifi_BLE_SDK/GD32VW55x_RELEASE_V1.0.2/MSDK/lwip/lwip-2.1.2/port\wifi_netif.c ****     {
 1065              		.loc 1 694 40 is_stmt 1
 1066              	.LVL121:
 694:C:/Users/stapi/OneDrive/Desktop/GD32VW553/GD32VW55X_Wifi_BLE_SDK/GD32VW55x_RELEASE_V1.0.2/MSDK/lwip/lwip-2.1.2/port\wifi_netif.c ****     {
 1067              		.loc 1 694 17
 696:C:/Users/stapi/OneDrive/Desktop/GD32VW553/GD32VW55X_Wifi_BLE_SDK/GD32VW55x_RELEASE_V1.0.2/MSDK/lwip/lwip-2.1.2/port\wifi_netif.c ****     }
 1068              		.loc 1 696 9
 696:C:/Users/stapi/OneDrive/Desktop/GD32VW553/GD32VW55X_Wifi_BLE_SDK/GD32VW55x_RELEASE_V1.0.2/MSDK/lwip/lwip-2.1.2/port\wifi_netif.c ****     }
 1069              		.loc 1 696 29 is_stmt 0
 1070 0018 23A80700 		sw	zero,16(a5)
 694:C:/Users/stapi/OneDrive/Desktop/GD32VW553/GD32VW55X_Wifi_BLE_SDK/GD32VW55x_RELEASE_V1.0.2/MSDK/lwip/lwip-2.1.2/port\wifi_netif.c ****     {
 1071              		.loc 1 694 40 is_stmt 1
 1072              	.LVL122:
 694:C:/Users/stapi/OneDrive/Desktop/GD32VW553/GD32VW55X_Wifi_BLE_SDK/GD32VW55x_RELEASE_V1.0.2/MSDK/lwip/lwip-2.1.2/port\wifi_netif.c ****     {
 1073              		.loc 1 694 17
 699:C:/Users/stapi/OneDrive/Desktop/GD32VW553/GD32VW55X_Wifi_BLE_SDK/GD32VW55x_RELEASE_V1.0.2/MSDK/lwip/lwip-2.1.2/port\wifi_netif.c ****     {
 1074              		.loc 1 699 5
 699:C:/Users/stapi/OneDrive/Desktop/GD32VW553/GD32VW55X_Wifi_BLE_SDK/GD32VW55x_RELEASE_V1.0.2/MSDK/lwip/lwip-2.1.2/port\wifi_netif.c ****     {
 1075              		.loc 1 699 9 is_stmt 0
 1076 001c 0146     		li	a2,0
 1077 001e 8545     		li	a1,1
 1078 0020 13050500 		addi	a0,a0,%lo(.LANCHOR0)
 1079 0024 97000000 		call	sys_sema_init_ext
 1079      E7800000 
 1080              	.LVL123:
 699:C:/Users/stapi/OneDrive/Desktop/GD32VW553/GD32VW55X_Wifi_BLE_SDK/GD32VW55x_RELEASE_V1.0.2/MSDK/lwip/lwip-2.1.2/port\wifi_netif.c ****     {
 1081              		.loc 1 699 8
 1082 002c 0DC5     		beq	a0,zero,.L107
 1083              	.L112:
 701:C:/Users/stapi/OneDrive/Desktop/GD32VW553/GD32VW55X_Wifi_BLE_SDK/GD32VW55x_RELEASE_V1.0.2/MSDK/lwip/lwip-2.1.2/port\wifi_netif.c ****         return -1;
 1084              		.loc 1 701 9 is_stmt 1
 701:C:/Users/stapi/OneDrive/Desktop/GD32VW553/GD32VW55X_Wifi_BLE_SDK/GD32VW55x_RELEASE_V1.0.2/MSDK/lwip/lwip-2.1.2/port\wifi_netif.c ****         return -1;
 1085              		.loc 1 701 9
 1086 002e B7070000 		lui	a5,%hi(global_debug_level)
 1087 0032 83C70700 		lbu	a5,%lo(global_debug_level)(a5)
 1088 0036 99E7     		bne	a5,zero,.L108
 1089              	.L113:
 702:C:/Users/stapi/OneDrive/Desktop/GD32VW553/GD32VW55X_Wifi_BLE_SDK/GD32VW55x_RELEASE_V1.0.2/MSDK/lwip/lwip-2.1.2/port\wifi_netif.c ****     }
 1090              		.loc 1 702 16 is_stmt 0 discriminator 1
 1091 0038 7D54     		li	s0,-1
 1092              	.L106:
 716:C:/Users/stapi/OneDrive/Desktop/GD32VW553/GD32VW55X_Wifi_BLE_SDK/GD32VW55x_RELEASE_V1.0.2/MSDK/lwip/lwip-2.1.2/port\wifi_netif.c **** 
 1093              		.loc 1 716 1
 1094 003a 2285     		mv	a0,s0
 1095 003c 17030000 		tail	__riscv_restore_2
 1095      67000300 
 1096              		.cfi_remember_state
 1097              		.cfi_restore 9
 1098              		.cfi_restore 8
 1099              		.cfi_restore 1
 1100              		.cfi_def_cfa_offset 0
 1101              	.L108:
 1102              		.cfi_restore_state
 701:C:/Users/stapi/OneDrive/Desktop/GD32VW553/GD32VW55X_Wifi_BLE_SDK/GD32VW55x_RELEASE_V1.0.2/MSDK/lwip/lwip-2.1.2/port\wifi_netif.c ****         return -1;
 1103              		.loc 1 701 9 is_stmt 1 discriminator 1
 1104 0044 37050000 		lui	a0,%hi(.LC3)
 1105 0048 13050500 		addi	a0,a0,%lo(.LC3)
 1106 004c 97000000 		call	co_printf
 1106      E7800000 
 1107              	.LVL124:
 1108 0054 D5B7     		j	.L113
 1109              	.L107:
 1110 0056 2A84     		mv	s0,a0
 705:C:/Users/stapi/OneDrive/Desktop/GD32VW553/GD32VW55X_Wifi_BLE_SDK/GD32VW55x_RELEASE_V1.0.2/MSDK/lwip/lwip-2.1.2/port\wifi_netif.c ****     if (l2_mutex == NULL)
 1111              		.loc 1 705 5
 1112 0058 37050000 		lui	a0,%hi(.LANCHOR2)
 1113 005c 93040500 		addi	s1,a0,%lo(.LANCHOR2)
 1114 0060 13050500 		addi	a0,a0,%lo(.LANCHOR2)
 1115 0064 97000000 		call	sys_mutex_init
 1115      E7800000 
 1116              	.LVL125:
 706:C:/Users/stapi/OneDrive/Desktop/GD32VW553/GD32VW55X_Wifi_BLE_SDK/GD32VW55x_RELEASE_V1.0.2/MSDK/lwip/lwip-2.1.2/port\wifi_netif.c ****     {
 1117              		.loc 1 706 5
 706:C:/Users/stapi/OneDrive/Desktop/GD32VW553/GD32VW55X_Wifi_BLE_SDK/GD32VW55x_RELEASE_V1.0.2/MSDK/lwip/lwip-2.1.2/port\wifi_netif.c ****     {
 1118              		.loc 1 706 8 is_stmt 0
 1119 006c 9C40     		lw	a5,0(s1)
 1120 006e F1F7     		bne	a5,zero,.L106
 1121 0070 7DBF     		j	.L112
 1122              		.cfi_endproc
 1123              	.LFE36:
 1125              		.section	.text.net_deinit,"ax",@progbits
 1126              		.align	1
 1127              		.globl	net_deinit
 1129              	net_deinit:
 1130              	.LFB37:
 725:C:/Users/stapi/OneDrive/Desktop/GD32VW553/GD32VW55X_Wifi_BLE_SDK/GD32VW55x_RELEASE_V1.0.2/MSDK/lwip/lwip-2.1.2/port\wifi_netif.c ****     if (l2_semaphore) {
 1131              		.loc 1 725 1 is_stmt 1
 1132              		.cfi_startproc
 1133 0000 17030000 		call	t0,__riscv_save_1
 1133      E7020300 
 1134              		.cfi_offset 8, -8
 1135              		.cfi_offset 1, -4
 1136              		.cfi_def_cfa_offset 16
 726:C:/Users/stapi/OneDrive/Desktop/GD32VW553/GD32VW55X_Wifi_BLE_SDK/GD32VW55x_RELEASE_V1.0.2/MSDK/lwip/lwip-2.1.2/port\wifi_netif.c ****         sys_sem_free(&l2_semaphore);
 1137              		.loc 1 726 5
 726:C:/Users/stapi/OneDrive/Desktop/GD32VW553/GD32VW55X_Wifi_BLE_SDK/GD32VW55x_RELEASE_V1.0.2/MSDK/lwip/lwip-2.1.2/port\wifi_netif.c ****         sys_sem_free(&l2_semaphore);
 1138              		.loc 1 726 9 is_stmt 0
 1139 0008 37050000 		lui	a0,%hi(.LANCHOR0)
 1140 000c 13040500 		addi	s0,a0,%lo(.LANCHOR0)
 726:C:/Users/stapi/OneDrive/Desktop/GD32VW553/GD32VW55X_Wifi_BLE_SDK/GD32VW55x_RELEASE_V1.0.2/MSDK/lwip/lwip-2.1.2/port\wifi_netif.c ****         sys_sem_free(&l2_semaphore);
 1141              		.loc 1 726 8
 1142 0010 1C40     		lw	a5,0(s0)
 1143 0012 89CB     		beq	a5,zero,.L115
 727:C:/Users/stapi/OneDrive/Desktop/GD32VW553/GD32VW55X_Wifi_BLE_SDK/GD32VW55x_RELEASE_V1.0.2/MSDK/lwip/lwip-2.1.2/port\wifi_netif.c ****         l2_semaphore = NULL;
 1144              		.loc 1 727 9 is_stmt 1
 1145 0014 13050500 		addi	a0,a0,%lo(.LANCHOR0)
 1146 0018 97000000 		call	sys_sem_free
 1146      E7800000 
 1147              	.LVL126:
 728:C:/Users/stapi/OneDrive/Desktop/GD32VW553/GD32VW55X_Wifi_BLE_SDK/GD32VW55x_RELEASE_V1.0.2/MSDK/lwip/lwip-2.1.2/port\wifi_netif.c ****     }
 1148              		.loc 1 728 9
 728:C:/Users/stapi/OneDrive/Desktop/GD32VW553/GD32VW55X_Wifi_BLE_SDK/GD32VW55x_RELEASE_V1.0.2/MSDK/lwip/lwip-2.1.2/port\wifi_netif.c ****     }
 1149              		.loc 1 728 22 is_stmt 0
 1150 0020 23200400 		sw	zero,0(s0)
 1151              	.L115:
 730:C:/Users/stapi/OneDrive/Desktop/GD32VW553/GD32VW55X_Wifi_BLE_SDK/GD32VW55x_RELEASE_V1.0.2/MSDK/lwip/lwip-2.1.2/port\wifi_netif.c ****         sys_mutex_free(&l2_mutex);
 1152              		.loc 1 730 5 is_stmt 1
 730:C:/Users/stapi/OneDrive/Desktop/GD32VW553/GD32VW55X_Wifi_BLE_SDK/GD32VW55x_RELEASE_V1.0.2/MSDK/lwip/lwip-2.1.2/port\wifi_netif.c ****         sys_mutex_free(&l2_mutex);
 1153              		.loc 1 730 9 is_stmt 0
 1154 0024 37050000 		lui	a0,%hi(.LANCHOR2)
 1155 0028 13040500 		addi	s0,a0,%lo(.LANCHOR2)
 730:C:/Users/stapi/OneDrive/Desktop/GD32VW553/GD32VW55X_Wifi_BLE_SDK/GD32VW55x_RELEASE_V1.0.2/MSDK/lwip/lwip-2.1.2/port\wifi_netif.c ****         sys_mutex_free(&l2_mutex);
 1156              		.loc 1 730 8
 1157 002c 1C40     		lw	a5,0(s0)
 1158 002e 89CB     		beq	a5,zero,.L114
 731:C:/Users/stapi/OneDrive/Desktop/GD32VW553/GD32VW55X_Wifi_BLE_SDK/GD32VW55x_RELEASE_V1.0.2/MSDK/lwip/lwip-2.1.2/port\wifi_netif.c ****         l2_mutex = NULL;
 1159              		.loc 1 731 9 is_stmt 1
 1160 0030 13050500 		addi	a0,a0,%lo(.LANCHOR2)
 1161 0034 97000000 		call	sys_mutex_free
 1161      E7800000 
 1162              	.LVL127:
 732:C:/Users/stapi/OneDrive/Desktop/GD32VW553/GD32VW55X_Wifi_BLE_SDK/GD32VW55x_RELEASE_V1.0.2/MSDK/lwip/lwip-2.1.2/port\wifi_netif.c ****     }
 1163              		.loc 1 732 9
 732:C:/Users/stapi/OneDrive/Desktop/GD32VW553/GD32VW55X_Wifi_BLE_SDK/GD32VW55x_RELEASE_V1.0.2/MSDK/lwip/lwip-2.1.2/port\wifi_netif.c ****     }
 1164              		.loc 1 732 18 is_stmt 0
 1165 003c 23200400 		sw	zero,0(s0)
 1166              	.L114:
 734:C:/Users/stapi/OneDrive/Desktop/GD32VW553/GD32VW55X_Wifi_BLE_SDK/GD32VW55x_RELEASE_V1.0.2/MSDK/lwip/lwip-2.1.2/port\wifi_netif.c **** 
 1167              		.loc 1 734 1
 1168 0040 17030000 		tail	__riscv_restore_1
 1168      67000300 
 1169              		.cfi_restore 8
 1170              		.cfi_restore 1
 1171              		.cfi_def_cfa_offset 0
 1172              		.cfi_endproc
 1173              	.LFE37:
 1175              		.section	.text.net_l2_send,"ax",@progbits
 1176              		.align	1
 1177              		.globl	net_l2_send
 1179              	net_l2_send:
 1180              	.LFB39:
 741:C:/Users/stapi/OneDrive/Desktop/GD32VW553/GD32VW55X_Wifi_BLE_SDK/GD32VW55x_RELEASE_V1.0.2/MSDK/lwip/lwip-2.1.2/port\wifi_netif.c **** }
 742:C:/Users/stapi/OneDrive/Desktop/GD32VW553/GD32VW55X_Wifi_BLE_SDK/GD32VW55x_RELEASE_V1.0.2/MSDK/lwip/lwip-2.1.2/port\wifi_netif.c **** 
 743:C:/Users/stapi/OneDrive/Desktop/GD32VW553/GD32VW55X_Wifi_BLE_SDK/GD32VW55x_RELEASE_V1.0.2/MSDK/lwip/lwip-2.1.2/port\wifi_netif.c **** /*!
 744:C:/Users/stapi/OneDrive/Desktop/GD32VW553/GD32VW55X_Wifi_BLE_SDK/GD32VW55x_RELEASE_V1.0.2/MSDK/lwip/lwip-2.1.2/port\wifi_netif.c ****     \brief      Send a L2 (aka ethernet) packet
 745:C:/Users/stapi/OneDrive/Desktop/GD32VW553/GD32VW55X_Wifi_BLE_SDK/GD32VW55x_RELEASE_V1.0.2/MSDK/lwip/lwip-2.1.2/port\wifi_netif.c ****                 Send data on the link layer (L2). If destination address is not NULL, Ethernet head
 746:C:/Users/stapi/OneDrive/Desktop/GD32VW553/GD32VW55X_Wifi_BLE_SDK/GD32VW55x_RELEASE_V1.0.2/MSDK/lwip/lwip-2.1.2/port\wifi_netif.c ****                 will be added (using ethertype parameter) and MAC address of the sending interface 
 747:C:/Users/stapi/OneDrive/Desktop/GD32VW553/GD32VW55X_Wifi_BLE_SDK/GD32VW55x_RELEASE_V1.0.2/MSDK/lwip/lwip-2.1.2/port\wifi_netif.c ****                 used as source address. If destination address is NULL, it means that ethernet head
 748:C:/Users/stapi/OneDrive/Desktop/GD32VW553/GD32VW55X_Wifi_BLE_SDK/GD32VW55x_RELEASE_V1.0.2/MSDK/lwip/lwip-2.1.2/port\wifi_netif.c ****                 is already present and frame should be send as is.
 749:C:/Users/stapi/OneDrive/Desktop/GD32VW553/GD32VW55X_Wifi_BLE_SDK/GD32VW55x_RELEASE_V1.0.2/MSDK/lwip/lwip-2.1.2/port\wifi_netif.c ****                 The data buffer will be copied by this function, and must then be freed by the call
 750:C:/Users/stapi/OneDrive/Desktop/GD32VW553/GD32VW55X_Wifi_BLE_SDK/GD32VW55x_RELEASE_V1.0.2/MSDK/lwip/lwip-2.1.2/port\wifi_netif.c **** 
 751:C:/Users/stapi/OneDrive/Desktop/GD32VW553/GD32VW55X_Wifi_BLE_SDK/GD32VW55x_RELEASE_V1.0.2/MSDK/lwip/lwip-2.1.2/port\wifi_netif.c ****                 The primary purpose of this function is to allow the supplicant sending EAPOL frame
 752:C:/Users/stapi/OneDrive/Desktop/GD32VW553/GD32VW55X_Wifi_BLE_SDK/GD32VW55x_RELEASE_V1.0.2/MSDK/lwip/lwip-2.1.2/port\wifi_netif.c ****                 As these frames are often followed by addition/deletion of crypto keys, that
 753:C:/Users/stapi/OneDrive/Desktop/GD32VW553/GD32VW55X_Wifi_BLE_SDK/GD32VW55x_RELEASE_V1.0.2/MSDK/lwip/lwip-2.1.2/port\wifi_netif.c ****                 can cause encryption to be enabled/disabled in the MAC, it is required to ensure th
 754:C:/Users/stapi/OneDrive/Desktop/GD32VW553/GD32VW55X_Wifi_BLE_SDK/GD32VW55x_RELEASE_V1.0.2/MSDK/lwip/lwip-2.1.2/port\wifi_netif.c ****                 the packet transmission is completed before proceeding to the key setting.
 755:C:/Users/stapi/OneDrive/Desktop/GD32VW553/GD32VW55X_Wifi_BLE_SDK/GD32VW55x_RELEASE_V1.0.2/MSDK/lwip/lwip-2.1.2/port\wifi_netif.c ****                 This function shall therefore be blocking until the frame has been transmitted by t
 756:C:/Users/stapi/OneDrive/Desktop/GD32VW553/GD32VW55X_Wifi_BLE_SDK/GD32VW55x_RELEASE_V1.0.2/MSDK/lwip/lwip-2.1.2/port\wifi_netif.c ****                 MAC.
 757:C:/Users/stapi/OneDrive/Desktop/GD32VW553/GD32VW55X_Wifi_BLE_SDK/GD32VW55x_RELEASE_V1.0.2/MSDK/lwip/lwip-2.1.2/port\wifi_netif.c ****     \param[in]  net_if: Pointer to the net_if structure.
 758:C:/Users/stapi/OneDrive/Desktop/GD32VW553/GD32VW55X_Wifi_BLE_SDK/GD32VW55x_RELEASE_V1.0.2/MSDK/lwip/lwip-2.1.2/port\wifi_netif.c ****     \param[in]  data: Data buffer to send.
 759:C:/Users/stapi/OneDrive/Desktop/GD32VW553/GD32VW55X_Wifi_BLE_SDK/GD32VW55x_RELEASE_V1.0.2/MSDK/lwip/lwip-2.1.2/port\wifi_netif.c ****     \param[in]  data_len: Buffer size, in bytes.
 760:C:/Users/stapi/OneDrive/Desktop/GD32VW553/GD32VW55X_Wifi_BLE_SDK/GD32VW55x_RELEASE_V1.0.2/MSDK/lwip/lwip-2.1.2/port\wifi_netif.c ****     \param[in]  ethertype: Ethernet type to set in the ethernet header. (in host endianess)
 761:C:/Users/stapi/OneDrive/Desktop/GD32VW553/GD32VW55X_Wifi_BLE_SDK/GD32VW55x_RELEASE_V1.0.2/MSDK/lwip/lwip-2.1.2/port\wifi_netif.c ****     \param[in]  dst_addr: Ethernet address of the destination. If NULL then it means that ethernet 
 762:C:/Users/stapi/OneDrive/Desktop/GD32VW553/GD32VW55X_Wifi_BLE_SDK/GD32VW55x_RELEASE_V1.0.2/MSDK/lwip/lwip-2.1.2/port\wifi_netif.c ****                           is already present in the frame (and in this case ethertype should be ign
 763:C:/Users/stapi/OneDrive/Desktop/GD32VW553/GD32VW55X_Wifi_BLE_SDK/GD32VW55x_RELEASE_V1.0.2/MSDK/lwip/lwip-2.1.2/port\wifi_netif.c ****     \param[out] ack: Optional to get transmission status. If not NULL, the value pointed is set to 
 764:C:/Users/stapi/OneDrive/Desktop/GD32VW553/GD32VW55X_Wifi_BLE_SDK/GD32VW55x_RELEASE_V1.0.2/MSDK/lwip/lwip-2.1.2/port\wifi_netif.c ****                      if peer acknowledged the transmission and false in all other cases.
 765:C:/Users/stapi/OneDrive/Desktop/GD32VW553/GD32VW55X_Wifi_BLE_SDK/GD32VW55x_RELEASE_V1.0.2/MSDK/lwip/lwip-2.1.2/port\wifi_netif.c ****     \retval     0 on success and != 0 if packet hasn't been sentegment
 766:C:/Users/stapi/OneDrive/Desktop/GD32VW553/GD32VW55X_Wifi_BLE_SDK/GD32VW55x_RELEASE_V1.0.2/MSDK/lwip/lwip-2.1.2/port\wifi_netif.c **** */
 767:C:/Users/stapi/OneDrive/Desktop/GD32VW553/GD32VW55X_Wifi_BLE_SDK/GD32VW55x_RELEASE_V1.0.2/MSDK/lwip/lwip-2.1.2/port\wifi_netif.c **** int net_l2_send(void *net_if, const uint8_t *data, int data_len, uint16_t ethertype,
 768:C:/Users/stapi/OneDrive/Desktop/GD32VW553/GD32VW55X_Wifi_BLE_SDK/GD32VW55x_RELEASE_V1.0.2/MSDK/lwip/lwip-2.1.2/port\wifi_netif.c ****                 const uint8_t *dst_addr, bool *ack)
 769:C:/Users/stapi/OneDrive/Desktop/GD32VW553/GD32VW55X_Wifi_BLE_SDK/GD32VW55x_RELEASE_V1.0.2/MSDK/lwip/lwip-2.1.2/port\wifi_netif.c **** {
 1181              		.loc 1 769 1 is_stmt 1
 1182              		.cfi_startproc
 1183              	.LVL128:
 1184 0000 17030000 		call	t0,__riscv_save_7
 1184      E7020300 
 1185              		.cfi_offset 22, -32
 1186              		.cfi_offset 21, -28
 1187              		.cfi_offset 20, -24
 1188              		.cfi_offset 19, -20
 1189              		.cfi_offset 18, -16
 1190              		.cfi_offset 9, -12
 1191              		.cfi_offset 8, -8
 1192              		.cfi_offset 1, -4
 1193              		.cfi_def_cfa_offset 32
 770:C:/Users/stapi/OneDrive/Desktop/GD32VW553/GD32VW55X_Wifi_BLE_SDK/GD32VW55x_RELEASE_V1.0.2/MSDK/lwip/lwip-2.1.2/port\wifi_netif.c ****     struct pbuf *pbuf;
 1194              		.loc 1 770 5
 771:C:/Users/stapi/OneDrive/Desktop/GD32VW553/GD32VW55X_Wifi_BLE_SDK/GD32VW55x_RELEASE_V1.0.2/MSDK/lwip/lwip-2.1.2/port\wifi_netif.c ****     int res;
 1195              		.loc 1 771 5
 772:C:/Users/stapi/OneDrive/Desktop/GD32VW553/GD32VW55X_Wifi_BLE_SDK/GD32VW55x_RELEASE_V1.0.2/MSDK/lwip/lwip-2.1.2/port\wifi_netif.c ****     struct netif *netif = (struct netif *)net_if;
 1196              		.loc 1 772 5
 1197              	.LVL129:
 773:C:/Users/stapi/OneDrive/Desktop/GD32VW553/GD32VW55X_Wifi_BLE_SDK/GD32VW55x_RELEASE_V1.0.2/MSDK/lwip/lwip-2.1.2/port\wifi_netif.c **** 
 774:C:/Users/stapi/OneDrive/Desktop/GD32VW553/GD32VW55X_Wifi_BLE_SDK/GD32VW55x_RELEASE_V1.0.2/MSDK/lwip/lwip-2.1.2/port\wifi_netif.c ****     if (netif == NULL || data == NULL || data_len >= netif->mtu || !netif_is_up(netif))
 1198              		.loc 1 774 5
 1199              		.loc 1 774 8 is_stmt 0
 1200 0008 19E5     		bne	a0,zero,.L125
 1201              	.LVL130:
 1202              	.L143:
 1203              	.LBB8:
 775:C:/Users/stapi/OneDrive/Desktop/GD32VW553/GD32VW55X_Wifi_BLE_SDK/GD32VW55x_RELEASE_V1.0.2/MSDK/lwip/lwip-2.1.2/port\wifi_netif.c ****         return -1;
 776:C:/Users/stapi/OneDrive/Desktop/GD32VW553/GD32VW55X_Wifi_BLE_SDK/GD32VW55x_RELEASE_V1.0.2/MSDK/lwip/lwip-2.1.2/port\wifi_netif.c **** 
 777:C:/Users/stapi/OneDrive/Desktop/GD32VW553/GD32VW55X_Wifi_BLE_SDK/GD32VW55x_RELEASE_V1.0.2/MSDK/lwip/lwip-2.1.2/port\wifi_netif.c ****     pbuf = pbuf_alloc(PBUF_LINK, data_len, PBUF_RAM);
 778:C:/Users/stapi/OneDrive/Desktop/GD32VW553/GD32VW55X_Wifi_BLE_SDK/GD32VW55x_RELEASE_V1.0.2/MSDK/lwip/lwip-2.1.2/port\wifi_netif.c ****     if (pbuf == NULL)
 779:C:/Users/stapi/OneDrive/Desktop/GD32VW553/GD32VW55X_Wifi_BLE_SDK/GD32VW55x_RELEASE_V1.0.2/MSDK/lwip/lwip-2.1.2/port\wifi_netif.c ****         return -1;
 780:C:/Users/stapi/OneDrive/Desktop/GD32VW553/GD32VW55X_Wifi_BLE_SDK/GD32VW55x_RELEASE_V1.0.2/MSDK/lwip/lwip-2.1.2/port\wifi_netif.c **** 
 781:C:/Users/stapi/OneDrive/Desktop/GD32VW553/GD32VW55X_Wifi_BLE_SDK/GD32VW55x_RELEASE_V1.0.2/MSDK/lwip/lwip-2.1.2/port\wifi_netif.c ****     sys_memcpy(pbuf->payload, data, data_len);
 782:C:/Users/stapi/OneDrive/Desktop/GD32VW553/GD32VW55X_Wifi_BLE_SDK/GD32VW55x_RELEASE_V1.0.2/MSDK/lwip/lwip-2.1.2/port\wifi_netif.c **** 
 783:C:/Users/stapi/OneDrive/Desktop/GD32VW553/GD32VW55X_Wifi_BLE_SDK/GD32VW55x_RELEASE_V1.0.2/MSDK/lwip/lwip-2.1.2/port\wifi_netif.c ****     if (dst_addr)
 784:C:/Users/stapi/OneDrive/Desktop/GD32VW553/GD32VW55X_Wifi_BLE_SDK/GD32VW55x_RELEASE_V1.0.2/MSDK/lwip/lwip-2.1.2/port\wifi_netif.c ****     {
 785:C:/Users/stapi/OneDrive/Desktop/GD32VW553/GD32VW55X_Wifi_BLE_SDK/GD32VW55x_RELEASE_V1.0.2/MSDK/lwip/lwip-2.1.2/port\wifi_netif.c ****         // Need to add ethernet header as macif_tx_start is called directly
 786:C:/Users/stapi/OneDrive/Desktop/GD32VW553/GD32VW55X_Wifi_BLE_SDK/GD32VW55x_RELEASE_V1.0.2/MSDK/lwip/lwip-2.1.2/port\wifi_netif.c ****         struct eth_hdr* ethhdr;
 787:C:/Users/stapi/OneDrive/Desktop/GD32VW553/GD32VW55X_Wifi_BLE_SDK/GD32VW55x_RELEASE_V1.0.2/MSDK/lwip/lwip-2.1.2/port\wifi_netif.c ****         if (pbuf_header(pbuf, SIZEOF_ETH_HDR))
 788:C:/Users/stapi/OneDrive/Desktop/GD32VW553/GD32VW55X_Wifi_BLE_SDK/GD32VW55x_RELEASE_V1.0.2/MSDK/lwip/lwip-2.1.2/port\wifi_netif.c ****         {
 789:C:/Users/stapi/OneDrive/Desktop/GD32VW553/GD32VW55X_Wifi_BLE_SDK/GD32VW55x_RELEASE_V1.0.2/MSDK/lwip/lwip-2.1.2/port\wifi_netif.c ****             pbuf_free(pbuf);
 790:C:/Users/stapi/OneDrive/Desktop/GD32VW553/GD32VW55X_Wifi_BLE_SDK/GD32VW55x_RELEASE_V1.0.2/MSDK/lwip/lwip-2.1.2/port\wifi_netif.c ****             return -1;
 1204              		.loc 1 790 13 is_stmt 1
 1205              		.loc 1 790 20 is_stmt 0
 1206 000a 7D54     		li	s0,-1
 1207              	.L124:
 1208              	.LBE8:
 791:C:/Users/stapi/OneDrive/Desktop/GD32VW553/GD32VW55X_Wifi_BLE_SDK/GD32VW55x_RELEASE_V1.0.2/MSDK/lwip/lwip-2.1.2/port\wifi_netif.c ****         }
 792:C:/Users/stapi/OneDrive/Desktop/GD32VW553/GD32VW55X_Wifi_BLE_SDK/GD32VW55x_RELEASE_V1.0.2/MSDK/lwip/lwip-2.1.2/port\wifi_netif.c ****         ethhdr = (struct eth_hdr*)pbuf->payload;
 793:C:/Users/stapi/OneDrive/Desktop/GD32VW553/GD32VW55X_Wifi_BLE_SDK/GD32VW55x_RELEASE_V1.0.2/MSDK/lwip/lwip-2.1.2/port\wifi_netif.c ****         ethhdr->type = htons(ethertype);
 794:C:/Users/stapi/OneDrive/Desktop/GD32VW553/GD32VW55X_Wifi_BLE_SDK/GD32VW55x_RELEASE_V1.0.2/MSDK/lwip/lwip-2.1.2/port\wifi_netif.c ****         sys_memcpy(&ethhdr->dest, dst_addr, sizeof(struct eth_addr));
 795:C:/Users/stapi/OneDrive/Desktop/GD32VW553/GD32VW55X_Wifi_BLE_SDK/GD32VW55x_RELEASE_V1.0.2/MSDK/lwip/lwip-2.1.2/port\wifi_netif.c ****         sys_memcpy(&ethhdr->src, netif->hwaddr, sizeof(struct eth_addr));
 796:C:/Users/stapi/OneDrive/Desktop/GD32VW553/GD32VW55X_Wifi_BLE_SDK/GD32VW55x_RELEASE_V1.0.2/MSDK/lwip/lwip-2.1.2/port\wifi_netif.c ****     }
 797:C:/Users/stapi/OneDrive/Desktop/GD32VW553/GD32VW55X_Wifi_BLE_SDK/GD32VW55x_RELEASE_V1.0.2/MSDK/lwip/lwip-2.1.2/port\wifi_netif.c **** 
 798:C:/Users/stapi/OneDrive/Desktop/GD32VW553/GD32VW55X_Wifi_BLE_SDK/GD32VW55x_RELEASE_V1.0.2/MSDK/lwip/lwip-2.1.2/port\wifi_netif.c ****     // Ensure no other thread will program a L2 transmission while this one is waiting
 799:C:/Users/stapi/OneDrive/Desktop/GD32VW553/GD32VW55X_Wifi_BLE_SDK/GD32VW55x_RELEASE_V1.0.2/MSDK/lwip/lwip-2.1.2/port\wifi_netif.c ****     // for its confirmation
 800:C:/Users/stapi/OneDrive/Desktop/GD32VW553/GD32VW55X_Wifi_BLE_SDK/GD32VW55x_RELEASE_V1.0.2/MSDK/lwip/lwip-2.1.2/port\wifi_netif.c ****     sys_mutex_get(&l2_mutex);
 801:C:/Users/stapi/OneDrive/Desktop/GD32VW553/GD32VW55X_Wifi_BLE_SDK/GD32VW55x_RELEASE_V1.0.2/MSDK/lwip/lwip-2.1.2/port\wifi_netif.c **** 
 802:C:/Users/stapi/OneDrive/Desktop/GD32VW553/GD32VW55X_Wifi_BLE_SDK/GD32VW55x_RELEASE_V1.0.2/MSDK/lwip/lwip-2.1.2/port\wifi_netif.c ****     // In order to implement this function as blocking until the completion of the frame
 803:C:/Users/stapi/OneDrive/Desktop/GD32VW553/GD32VW55X_Wifi_BLE_SDK/GD32VW55x_RELEASE_V1.0.2/MSDK/lwip/lwip-2.1.2/port\wifi_netif.c ****     // transmission, directly call macif_tx_start with a confirmation callback.
 804:C:/Users/stapi/OneDrive/Desktop/GD32VW553/GD32VW55X_Wifi_BLE_SDK/GD32VW55x_RELEASE_V1.0.2/MSDK/lwip/lwip-2.1.2/port\wifi_netif.c ****     res = macif_tx_start(netif, pbuf, net_l2_send_cfm, ack);
 805:C:/Users/stapi/OneDrive/Desktop/GD32VW553/GD32VW55X_Wifi_BLE_SDK/GD32VW55x_RELEASE_V1.0.2/MSDK/lwip/lwip-2.1.2/port\wifi_netif.c **** 
 806:C:/Users/stapi/OneDrive/Desktop/GD32VW553/GD32VW55X_Wifi_BLE_SDK/GD32VW55x_RELEASE_V1.0.2/MSDK/lwip/lwip-2.1.2/port\wifi_netif.c ****     // Wait for the transmission completion
 807:C:/Users/stapi/OneDrive/Desktop/GD32VW553/GD32VW55X_Wifi_BLE_SDK/GD32VW55x_RELEASE_V1.0.2/MSDK/lwip/lwip-2.1.2/port\wifi_netif.c ****     sys_sema_down(&l2_semaphore, 0);
 808:C:/Users/stapi/OneDrive/Desktop/GD32VW553/GD32VW55X_Wifi_BLE_SDK/GD32VW55x_RELEASE_V1.0.2/MSDK/lwip/lwip-2.1.2/port\wifi_netif.c **** 
 809:C:/Users/stapi/OneDrive/Desktop/GD32VW553/GD32VW55X_Wifi_BLE_SDK/GD32VW55x_RELEASE_V1.0.2/MSDK/lwip/lwip-2.1.2/port\wifi_netif.c ****     // Now new L2 transmissions are possible
 810:C:/Users/stapi/OneDrive/Desktop/GD32VW553/GD32VW55X_Wifi_BLE_SDK/GD32VW55x_RELEASE_V1.0.2/MSDK/lwip/lwip-2.1.2/port\wifi_netif.c ****     sys_mutex_put(&l2_mutex);
 811:C:/Users/stapi/OneDrive/Desktop/GD32VW553/GD32VW55X_Wifi_BLE_SDK/GD32VW55x_RELEASE_V1.0.2/MSDK/lwip/lwip-2.1.2/port\wifi_netif.c **** 
 812:C:/Users/stapi/OneDrive/Desktop/GD32VW553/GD32VW55X_Wifi_BLE_SDK/GD32VW55x_RELEASE_V1.0.2/MSDK/lwip/lwip-2.1.2/port\wifi_netif.c ****     return res;
 813:C:/Users/stapi/OneDrive/Desktop/GD32VW553/GD32VW55X_Wifi_BLE_SDK/GD32VW55x_RELEASE_V1.0.2/MSDK/lwip/lwip-2.1.2/port\wifi_netif.c **** }
 1209              		.loc 1 813 1
 1210 000c 2285     		mv	a0,s0
 1211 000e 17030000 		tail	__riscv_restore_7
 1211      67000300 
 1212              		.cfi_remember_state
 1213              		.cfi_restore 22
 1214              		.cfi_restore 21
 1215              		.cfi_restore 20
 1216              		.cfi_restore 19
 1217              		.cfi_restore 18
 1218              		.cfi_restore 9
 1219              		.cfi_restore 8
 1220              		.cfi_restore 1
 1221              		.cfi_def_cfa_offset 0
 1222              	.LVL131:
 1223              	.L125:
 1224              		.cfi_restore_state
 1225 0016 2E8A     		mv	s4,a1
 774:C:/Users/stapi/OneDrive/Desktop/GD32VW553/GD32VW55X_Wifi_BLE_SDK/GD32VW55x_RELEASE_V1.0.2/MSDK/lwip/lwip-2.1.2/port\wifi_netif.c ****         return -1;
 1226              		.loc 1 774 23 discriminator 1
 1227 0018 EDD9     		beq	a1,zero,.L143
 1228 001a BE8A     		mv	s5,a5
 774:C:/Users/stapi/OneDrive/Desktop/GD32VW553/GD32VW55X_Wifi_BLE_SDK/GD32VW55x_RELEASE_V1.0.2/MSDK/lwip/lwip-2.1.2/port\wifi_netif.c ****         return -1;
 1229              		.loc 1 774 59 discriminator 2
 1230 001c 83578502 		lhu	a5,40(a0)
 1231              	.LVL132:
 1232 0020 AA84     		mv	s1,a0
 1233 0022 3289     		mv	s2,a2
 774:C:/Users/stapi/OneDrive/Desktop/GD32VW553/GD32VW55X_Wifi_BLE_SDK/GD32VW55x_RELEASE_V1.0.2/MSDK/lwip/lwip-2.1.2/port\wifi_netif.c ****         return -1;
 1234              		.loc 1 774 39 discriminator 2
 1235 0024 E353F6FE 		ble	a5,a2,.L143
 1236              	.LVL133:
 774:C:/Users/stapi/OneDrive/Desktop/GD32VW553/GD32VW55X_Wifi_BLE_SDK/GD32VW55x_RELEASE_V1.0.2/MSDK/lwip/lwip-2.1.2/port\wifi_netif.c ****         return -1;
 1237              		.loc 1 774 65 discriminator 3
 1238 0028 83471503 		lbu	a5,49(a0)
 1239 002c 858B     		andi	a5,a5,1
 1240 002e F1DF     		beq	a5,zero,.L143
 777:C:/Users/stapi/OneDrive/Desktop/GD32VW553/GD32VW55X_Wifi_BLE_SDK/GD32VW55x_RELEASE_V1.0.2/MSDK/lwip/lwip-2.1.2/port\wifi_netif.c ****     if (pbuf == NULL)
 1241              		.loc 1 777 12
 1242 0030 13060028 		li	a2,640
 1243              	.LVL134:
 1244 0034 1305A016 		li	a0,362
 1245 0038 368B     		mv	s6,a3
 1246 003a BA89     		mv	s3,a4
 777:C:/Users/stapi/OneDrive/Desktop/GD32VW553/GD32VW55X_Wifi_BLE_SDK/GD32VW55x_RELEASE_V1.0.2/MSDK/lwip/lwip-2.1.2/port\wifi_netif.c ****     if (pbuf == NULL)
 1247              		.loc 1 777 5 is_stmt 1
 777:C:/Users/stapi/OneDrive/Desktop/GD32VW553/GD32VW55X_Wifi_BLE_SDK/GD32VW55x_RELEASE_V1.0.2/MSDK/lwip/lwip-2.1.2/port\wifi_netif.c ****     if (pbuf == NULL)
 1248              		.loc 1 777 12 is_stmt 0
 1249 003c B3450908 		zext.h	a1,s2
 1250              	.LVL135:
 1251 0040 97000000 		call	pbuf_alloc
 1251      E7800000 
 1252              	.LVL136:
 1253 0048 2A84     		mv	s0,a0
 1254              	.LVL137:
 778:C:/Users/stapi/OneDrive/Desktop/GD32VW553/GD32VW55X_Wifi_BLE_SDK/GD32VW55x_RELEASE_V1.0.2/MSDK/lwip/lwip-2.1.2/port\wifi_netif.c ****         return -1;
 1255              		.loc 1 778 5 is_stmt 1
 778:C:/Users/stapi/OneDrive/Desktop/GD32VW553/GD32VW55X_Wifi_BLE_SDK/GD32VW55x_RELEASE_V1.0.2/MSDK/lwip/lwip-2.1.2/port\wifi_netif.c ****         return -1;
 1256              		.loc 1 778 8 is_stmt 0
 1257 004a 61D1     		beq	a0,zero,.L143
 781:C:/Users/stapi/OneDrive/Desktop/GD32VW553/GD32VW55X_Wifi_BLE_SDK/GD32VW55x_RELEASE_V1.0.2/MSDK/lwip/lwip-2.1.2/port\wifi_netif.c **** 
 1258              		.loc 1 781 5 is_stmt 1
 1259 004c 4841     		lw	a0,4(a0)
 1260 004e 4A86     		mv	a2,s2
 1261 0050 D285     		mv	a1,s4
 1262 0052 97000000 		call	sys_memcpy
 1262      E7800000 
 1263              	.LVL138:
 783:C:/Users/stapi/OneDrive/Desktop/GD32VW553/GD32VW55X_Wifi_BLE_SDK/GD32VW55x_RELEASE_V1.0.2/MSDK/lwip/lwip-2.1.2/port\wifi_netif.c ****     {
 1264              		.loc 1 783 5
 783:C:/Users/stapi/OneDrive/Desktop/GD32VW553/GD32VW55X_Wifi_BLE_SDK/GD32VW55x_RELEASE_V1.0.2/MSDK/lwip/lwip-2.1.2/port\wifi_netif.c ****     {
 1265              		.loc 1 783 8 is_stmt 0
 1266 005a 638B0904 		beq	s3,zero,.L128
 1267              	.LBB9:
 786:C:/Users/stapi/OneDrive/Desktop/GD32VW553/GD32VW55X_Wifi_BLE_SDK/GD32VW55x_RELEASE_V1.0.2/MSDK/lwip/lwip-2.1.2/port\wifi_netif.c ****         if (pbuf_header(pbuf, SIZEOF_ETH_HDR))
 1268              		.loc 1 786 9 is_stmt 1
 787:C:/Users/stapi/OneDrive/Desktop/GD32VW553/GD32VW55X_Wifi_BLE_SDK/GD32VW55x_RELEASE_V1.0.2/MSDK/lwip/lwip-2.1.2/port\wifi_netif.c ****         {
 1269              		.loc 1 787 9
 787:C:/Users/stapi/OneDrive/Desktop/GD32VW553/GD32VW55X_Wifi_BLE_SDK/GD32VW55x_RELEASE_V1.0.2/MSDK/lwip/lwip-2.1.2/port\wifi_netif.c ****         {
 1270              		.loc 1 787 13 is_stmt 0
 1271 005e B945     		li	a1,14
 1272 0060 2285     		mv	a0,s0
 1273 0062 97000000 		call	pbuf_header
 1273      E7800000 
 1274              	.LVL139:
 787:C:/Users/stapi/OneDrive/Desktop/GD32VW553/GD32VW55X_Wifi_BLE_SDK/GD32VW55x_RELEASE_V1.0.2/MSDK/lwip/lwip-2.1.2/port\wifi_netif.c ****         {
 1275              		.loc 1 787 12
 1276 006a 19C5     		beq	a0,zero,.L129
 789:C:/Users/stapi/OneDrive/Desktop/GD32VW553/GD32VW55X_Wifi_BLE_SDK/GD32VW55x_RELEASE_V1.0.2/MSDK/lwip/lwip-2.1.2/port\wifi_netif.c ****             return -1;
 1277              		.loc 1 789 13 is_stmt 1
 1278 006c 2285     		mv	a0,s0
 1279 006e 97000000 		call	pbuf_free
 1279      E7800000 
 1280              	.LVL140:
 1281 0076 51BF     		j	.L143
 1282              	.L129:
 792:C:/Users/stapi/OneDrive/Desktop/GD32VW553/GD32VW55X_Wifi_BLE_SDK/GD32VW55x_RELEASE_V1.0.2/MSDK/lwip/lwip-2.1.2/port\wifi_netif.c ****         ethhdr->type = htons(ethertype);
 1283              		.loc 1 792 9
 792:C:/Users/stapi/OneDrive/Desktop/GD32VW553/GD32VW55X_Wifi_BLE_SDK/GD32VW55x_RELEASE_V1.0.2/MSDK/lwip/lwip-2.1.2/port\wifi_netif.c ****         ethhdr->type = htons(ethertype);
 1284              		.loc 1 792 16 is_stmt 0
 1285 0078 03294400 		lw	s2,4(s0)
 1286              	.LVL141:
 793:C:/Users/stapi/OneDrive/Desktop/GD32VW553/GD32VW55X_Wifi_BLE_SDK/GD32VW55x_RELEASE_V1.0.2/MSDK/lwip/lwip-2.1.2/port\wifi_netif.c ****         sys_memcpy(&ethhdr->dest, dst_addr, sizeof(struct eth_addr));
 1287              		.loc 1 793 9 is_stmt 1
 793:C:/Users/stapi/OneDrive/Desktop/GD32VW553/GD32VW55X_Wifi_BLE_SDK/GD32VW55x_RELEASE_V1.0.2/MSDK/lwip/lwip-2.1.2/port\wifi_netif.c ****         sys_memcpy(&ethhdr->dest, dst_addr, sizeof(struct eth_addr));
 1288              		.loc 1 793 24 is_stmt 0
 1289 007c 5A85     		mv	a0,s6
 1290 007e 97000000 		call	lwip_htons
 1290      E7800000 
 1291              	.LVL142:
 793:C:/Users/stapi/OneDrive/Desktop/GD32VW553/GD32VW55X_Wifi_BLE_SDK/GD32VW55x_RELEASE_V1.0.2/MSDK/lwip/lwip-2.1.2/port\wifi_netif.c ****         sys_memcpy(&ethhdr->dest, dst_addr, sizeof(struct eth_addr));
 1292              		.loc 1 793 22
 1293 0086 2306A900 		sb	a0,12(s2)
 1294 008a 2181     		srli	a0,a0,8
 1295 008c A306A900 		sb	a0,13(s2)
 794:C:/Users/stapi/OneDrive/Desktop/GD32VW553/GD32VW55X_Wifi_BLE_SDK/GD32VW55x_RELEASE_V1.0.2/MSDK/lwip/lwip-2.1.2/port\wifi_netif.c ****         sys_memcpy(&ethhdr->src, netif->hwaddr, sizeof(struct eth_addr));
 1296              		.loc 1 794 9 is_stmt 1
 1297 0090 1946     		li	a2,6
 1298 0092 CE85     		mv	a1,s3
 1299 0094 4A85     		mv	a0,s2
 1300 0096 97000000 		call	sys_memcpy
 1300      E7800000 
 1301              	.LVL143:
 795:C:/Users/stapi/OneDrive/Desktop/GD32VW553/GD32VW55X_Wifi_BLE_SDK/GD32VW55x_RELEASE_V1.0.2/MSDK/lwip/lwip-2.1.2/port\wifi_netif.c ****     }
 1302              		.loc 1 795 9
 1303 009e 1946     		li	a2,6
 1304 00a0 9385A402 		addi	a1,s1,42
 1305 00a4 13056900 		addi	a0,s2,6
 1306 00a8 97000000 		call	sys_memcpy
 1306      E7800000 
 1307              	.LVL144:
 1308              	.L128:
 1309              	.LBE9:
 800:C:/Users/stapi/OneDrive/Desktop/GD32VW553/GD32VW55X_Wifi_BLE_SDK/GD32VW55x_RELEASE_V1.0.2/MSDK/lwip/lwip-2.1.2/port\wifi_netif.c **** 
 1310              		.loc 1 800 5
 1311 00b0 37090000 		lui	s2,%hi(.LANCHOR2)
 1312 00b4 13050900 		addi	a0,s2,%lo(.LANCHOR2)
 1313 00b8 97000000 		call	sys_mutex_get
 1313      E7800000 
 1314              	.LVL145:
 804:C:/Users/stapi/OneDrive/Desktop/GD32VW553/GD32VW55X_Wifi_BLE_SDK/GD32VW55x_RELEASE_V1.0.2/MSDK/lwip/lwip-2.1.2/port\wifi_netif.c **** 
 1315              		.loc 1 804 5
 804:C:/Users/stapi/OneDrive/Desktop/GD32VW553/GD32VW55X_Wifi_BLE_SDK/GD32VW55x_RELEASE_V1.0.2/MSDK/lwip/lwip-2.1.2/port\wifi_netif.c **** 
 1316              		.loc 1 804 11 is_stmt 0
 1317 00c0 37060000 		lui	a2,%hi(net_l2_send_cfm)
 1318 00c4 D686     		mv	a3,s5
 1319 00c6 13060600 		addi	a2,a2,%lo(net_l2_send_cfm)
 1320 00ca A285     		mv	a1,s0
 1321 00cc 2685     		mv	a0,s1
 1322 00ce 97000000 		call	macif_tx_start
 1322      E7800000 
 1323              	.LVL146:
 1324 00d6 2A84     		mv	s0,a0
 1325              	.LVL147:
 807:C:/Users/stapi/OneDrive/Desktop/GD32VW553/GD32VW55X_Wifi_BLE_SDK/GD32VW55x_RELEASE_V1.0.2/MSDK/lwip/lwip-2.1.2/port\wifi_netif.c **** 
 1326              		.loc 1 807 5 is_stmt 1
 1327 00d8 37050000 		lui	a0,%hi(.LANCHOR0)
 1328 00dc 8145     		li	a1,0
 1329 00de 13050500 		addi	a0,a0,%lo(.LANCHOR0)
 1330 00e2 97000000 		call	sys_sema_down
 1330      E7800000 
 1331              	.LVL148:
 810:C:/Users/stapi/OneDrive/Desktop/GD32VW553/GD32VW55X_Wifi_BLE_SDK/GD32VW55x_RELEASE_V1.0.2/MSDK/lwip/lwip-2.1.2/port\wifi_netif.c **** 
 1332              		.loc 1 810 5
 1333 00ea 13050900 		addi	a0,s2,%lo(.LANCHOR2)
 1334 00ee 97000000 		call	sys_mutex_put
 1334      E7800000 
 1335              	.LVL149:
 812:C:/Users/stapi/OneDrive/Desktop/GD32VW553/GD32VW55X_Wifi_BLE_SDK/GD32VW55x_RELEASE_V1.0.2/MSDK/lwip/lwip-2.1.2/port\wifi_netif.c **** }
 1336              		.loc 1 812 5
 812:C:/Users/stapi/OneDrive/Desktop/GD32VW553/GD32VW55X_Wifi_BLE_SDK/GD32VW55x_RELEASE_V1.0.2/MSDK/lwip/lwip-2.1.2/port\wifi_netif.c **** }
 1337              		.loc 1 812 12 is_stmt 0
 1338 00f6 19BF     		j	.L124
 1339              		.cfi_endproc
 1340              	.LFE39:
 1342              		.section	.text.net_l2_socket_create,"ax",@progbits
 1343              		.align	1
 1344              		.globl	net_l2_socket_create
 1346              	net_l2_socket_create:
 1347              	.LFB40:
 814:C:/Users/stapi/OneDrive/Desktop/GD32VW553/GD32VW55X_Wifi_BLE_SDK/GD32VW55x_RELEASE_V1.0.2/MSDK/lwip/lwip-2.1.2/port\wifi_netif.c **** 
 815:C:/Users/stapi/OneDrive/Desktop/GD32VW553/GD32VW55X_Wifi_BLE_SDK/GD32VW55x_RELEASE_V1.0.2/MSDK/lwip/lwip-2.1.2/port\wifi_netif.c **** #ifdef CONFIG_WPA_SUPPLICANT
 816:C:/Users/stapi/OneDrive/Desktop/GD32VW553/GD32VW55X_Wifi_BLE_SDK/GD32VW55x_RELEASE_V1.0.2/MSDK/lwip/lwip-2.1.2/port\wifi_netif.c **** /*!
 817:C:/Users/stapi/OneDrive/Desktop/GD32VW553/GD32VW55X_Wifi_BLE_SDK/GD32VW55x_RELEASE_V1.0.2/MSDK/lwip/lwip-2.1.2/port\wifi_netif.c ****     \brief      Create a L2 (aka ethernet) socket for specific packet
 818:C:/Users/stapi/OneDrive/Desktop/GD32VW553/GD32VW55X_Wifi_BLE_SDK/GD32VW55x_RELEASE_V1.0.2/MSDK/lwip/lwip-2.1.2/port\wifi_netif.c ****                 Create a L2 socket that will receive specified frames: a given ethertype
 819:C:/Users/stapi/OneDrive/Desktop/GD32VW553/GD32VW55X_Wifi_BLE_SDK/GD32VW55x_RELEASE_V1.0.2/MSDK/lwip/lwip-2.1.2/port\wifi_netif.c ****                 on a given interface.
 820:C:/Users/stapi/OneDrive/Desktop/GD32VW553/GD32VW55X_Wifi_BLE_SDK/GD32VW55x_RELEASE_V1.0.2/MSDK/lwip/lwip-2.1.2/port\wifi_netif.c ****                 It is expected to fail if a L2 socket for the same ethertype/interface
 821:C:/Users/stapi/OneDrive/Desktop/GD32VW553/GD32VW55X_Wifi_BLE_SDK/GD32VW55x_RELEASE_V1.0.2/MSDK/lwip/lwip-2.1.2/port\wifi_netif.c ****                 couple already exists.
 822:C:/Users/stapi/OneDrive/Desktop/GD32VW553/GD32VW55X_Wifi_BLE_SDK/GD32VW55x_RELEASE_V1.0.2/MSDK/lwip/lwip-2.1.2/port\wifi_netif.c **** 
 823:C:/Users/stapi/OneDrive/Desktop/GD32VW553/GD32VW55X_Wifi_BLE_SDK/GD32VW55x_RELEASE_V1.0.2/MSDK/lwip/lwip-2.1.2/port\wifi_netif.c ****                 As L2 sockets are not specified in POSIX standard, the implementation
 824:C:/Users/stapi/OneDrive/Desktop/GD32VW553/GD32VW55X_Wifi_BLE_SDK/GD32VW55x_RELEASE_V1.0.2/MSDK/lwip/lwip-2.1.2/port\wifi_netif.c ****                 of such function may be impossible in some network stack.
 825:C:/Users/stapi/OneDrive/Desktop/GD32VW553/GD32VW55X_Wifi_BLE_SDK/GD32VW55x_RELEASE_V1.0.2/MSDK/lwip/lwip-2.1.2/port\wifi_netif.c ****     \param[in]  net_if: Pointer to the net_if structure.
 826:C:/Users/stapi/OneDrive/Desktop/GD32VW553/GD32VW55X_Wifi_BLE_SDK/GD32VW55x_RELEASE_V1.0.2/MSDK/lwip/lwip-2.1.2/port\wifi_netif.c ****     \param[in]  ethertype: Ethernet type to filter. (in host endianess)
 827:C:/Users/stapi/OneDrive/Desktop/GD32VW553/GD32VW55X_Wifi_BLE_SDK/GD32VW55x_RELEASE_V1.0.2/MSDK/lwip/lwip-2.1.2/port\wifi_netif.c ****     \param[out] none
 828:C:/Users/stapi/OneDrive/Desktop/GD32VW553/GD32VW55X_Wifi_BLE_SDK/GD32VW55x_RELEASE_V1.0.2/MSDK/lwip/lwip-2.1.2/port\wifi_netif.c ****     \retval     <0 if error occurred and the socket descriptor otherwise.
 829:C:/Users/stapi/OneDrive/Desktop/GD32VW553/GD32VW55X_Wifi_BLE_SDK/GD32VW55x_RELEASE_V1.0.2/MSDK/lwip/lwip-2.1.2/port\wifi_netif.c **** */
 830:C:/Users/stapi/OneDrive/Desktop/GD32VW553/GD32VW55X_Wifi_BLE_SDK/GD32VW55x_RELEASE_V1.0.2/MSDK/lwip/lwip-2.1.2/port\wifi_netif.c **** int net_l2_socket_create(void *net_if, uint16_t ethertype)
 831:C:/Users/stapi/OneDrive/Desktop/GD32VW553/GD32VW55X_Wifi_BLE_SDK/GD32VW55x_RELEASE_V1.0.2/MSDK/lwip/lwip-2.1.2/port\wifi_netif.c **** {
 1348              		.loc 1 831 1 is_stmt 1
 1349              		.cfi_startproc
 1350              	.LVL150:
 1351 0000 17030000 		call	t0,__riscv_save_3
 1351      E7020300 
 1352              		.cfi_offset 18, -16
 1353              		.cfi_offset 9, -12
 1354              		.cfi_offset 8, -8
 1355              		.cfi_offset 1, -4
 1356              		.cfi_def_cfa_offset 16
 832:C:/Users/stapi/OneDrive/Desktop/GD32VW553/GD32VW55X_Wifi_BLE_SDK/GD32VW55x_RELEASE_V1.0.2/MSDK/lwip/lwip-2.1.2/port\wifi_netif.c ****     struct l2_filter_tag *filter = NULL;
 1357              		.loc 1 832 5
 1358              	.LVL151:
 833:C:/Users/stapi/OneDrive/Desktop/GD32VW553/GD32VW55X_Wifi_BLE_SDK/GD32VW55x_RELEASE_V1.0.2/MSDK/lwip/lwip-2.1.2/port\wifi_netif.c ****     socklen_t len = sizeof(filter->conn);
 1359              		.loc 1 833 5
 1360              		.loc 1 833 15 is_stmt 0
 1361 0008 9147     		li	a5,4
 831:C:/Users/stapi/OneDrive/Desktop/GD32VW553/GD32VW55X_Wifi_BLE_SDK/GD32VW55x_RELEASE_V1.0.2/MSDK/lwip/lwip-2.1.2/port\wifi_netif.c ****     struct l2_filter_tag *filter = NULL;
 1362              		.loc 1 831 1
 1363 000a 4111     		addi	sp,sp,-16
 1364              		.cfi_def_cfa_offset 32
 1365              		.loc 1 833 15
 1366 000c 3EC6     		sw	a5,12(sp)
 834:C:/Users/stapi/OneDrive/Desktop/GD32VW553/GD32VW55X_Wifi_BLE_SDK/GD32VW55x_RELEASE_V1.0.2/MSDK/lwip/lwip-2.1.2/port\wifi_netif.c ****     int i;
 1367              		.loc 1 834 5 is_stmt 1
 835:C:/Users/stapi/OneDrive/Desktop/GD32VW553/GD32VW55X_Wifi_BLE_SDK/GD32VW55x_RELEASE_V1.0.2/MSDK/lwip/lwip-2.1.2/port\wifi_netif.c ****     struct netif *netif = (struct netif *)net_if;
 1368              		.loc 1 835 5
 1369              	.LVL152:
 836:C:/Users/stapi/OneDrive/Desktop/GD32VW553/GD32VW55X_Wifi_BLE_SDK/GD32VW55x_RELEASE_V1.0.2/MSDK/lwip/lwip-2.1.2/port\wifi_netif.c **** 
 837:C:/Users/stapi/OneDrive/Desktop/GD32VW553/GD32VW55X_Wifi_BLE_SDK/GD32VW55x_RELEASE_V1.0.2/MSDK/lwip/lwip-2.1.2/port\wifi_netif.c ****     /* First find free filter and check that socket for this ethertype/net_if couple
 838:C:/Users/stapi/OneDrive/Desktop/GD32VW553/GD32VW55X_Wifi_BLE_SDK/GD32VW55x_RELEASE_V1.0.2/MSDK/lwip/lwip-2.1.2/port\wifi_netif.c ****        doesn't already exists */
 839:C:/Users/stapi/OneDrive/Desktop/GD32VW553/GD32VW55X_Wifi_BLE_SDK/GD32VW55x_RELEASE_V1.0.2/MSDK/lwip/lwip-2.1.2/port\wifi_netif.c ****     for (i = 0; i < WIFI_NB_L2_FILTER; i++)
 1370              		.loc 1 839 5
 1371              		.loc 1 839 17
 840:C:/Users/stapi/OneDrive/Desktop/GD32VW553/GD32VW55X_Wifi_BLE_SDK/GD32VW55x_RELEASE_V1.0.2/MSDK/lwip/lwip-2.1.2/port\wifi_netif.c ****     {
 841:C:/Users/stapi/OneDrive/Desktop/GD32VW553/GD32VW55X_Wifi_BLE_SDK/GD32VW55x_RELEASE_V1.0.2/MSDK/lwip/lwip-2.1.2/port\wifi_netif.c ****         if ((l2_filter[i].net_if == netif) &&
 1372              		.loc 1 841 9
 1373              		.loc 1 841 26 is_stmt 0
 1374 000e B7070000 		lui	a5,%hi(.LANCHOR1)
 1375 0012 03A70700 		lw	a4,%lo(.LANCHOR1)(a5)
 831:C:/Users/stapi/OneDrive/Desktop/GD32VW553/GD32VW55X_Wifi_BLE_SDK/GD32VW55x_RELEASE_V1.0.2/MSDK/lwip/lwip-2.1.2/port\wifi_netif.c ****     struct l2_filter_tag *filter = NULL;
 1376              		.loc 1 831 1
 1377 0016 AA84     		mv	s1,a0
 1378 0018 2E89     		mv	s2,a1
 1379 001a 93870700 		addi	a5,a5,%lo(.LANCHOR1)
 1380              		.loc 1 841 12
 1381 001e 631CE500 		bne	a0,a4,.L145
 1382              		.loc 1 841 44
 1383 0022 83D6C700 		lhu	a3,12(a5)
 1384 0026 6398B600 		bne	a3,a1,.L145
 1385              	.LVL153:
 1386              	.L157:
 842:C:/Users/stapi/OneDrive/Desktop/GD32VW553/GD32VW55X_Wifi_BLE_SDK/GD32VW55x_RELEASE_V1.0.2/MSDK/lwip/lwip-2.1.2/port\wifi_netif.c ****             (l2_filter[i].ethertype == ethertype))
 843:C:/Users/stapi/OneDrive/Desktop/GD32VW553/GD32VW55X_Wifi_BLE_SDK/GD32VW55x_RELEASE_V1.0.2/MSDK/lwip/lwip-2.1.2/port\wifi_netif.c ****         {
 844:C:/Users/stapi/OneDrive/Desktop/GD32VW553/GD32VW55X_Wifi_BLE_SDK/GD32VW55x_RELEASE_V1.0.2/MSDK/lwip/lwip-2.1.2/port\wifi_netif.c ****             return -1;
 845:C:/Users/stapi/OneDrive/Desktop/GD32VW553/GD32VW55X_Wifi_BLE_SDK/GD32VW55x_RELEASE_V1.0.2/MSDK/lwip/lwip-2.1.2/port\wifi_netif.c ****         }
 846:C:/Users/stapi/OneDrive/Desktop/GD32VW553/GD32VW55X_Wifi_BLE_SDK/GD32VW55x_RELEASE_V1.0.2/MSDK/lwip/lwip-2.1.2/port\wifi_netif.c ****         else if ((filter == NULL) && (l2_filter[i].net_if == NULL))
 847:C:/Users/stapi/OneDrive/Desktop/GD32VW553/GD32VW55X_Wifi_BLE_SDK/GD32VW55x_RELEASE_V1.0.2/MSDK/lwip/lwip-2.1.2/port\wifi_netif.c ****         {
 848:C:/Users/stapi/OneDrive/Desktop/GD32VW553/GD32VW55X_Wifi_BLE_SDK/GD32VW55x_RELEASE_V1.0.2/MSDK/lwip/lwip-2.1.2/port\wifi_netif.c ****             filter = &l2_filter[i];
 849:C:/Users/stapi/OneDrive/Desktop/GD32VW553/GD32VW55X_Wifi_BLE_SDK/GD32VW55x_RELEASE_V1.0.2/MSDK/lwip/lwip-2.1.2/port\wifi_netif.c ****         }
 850:C:/Users/stapi/OneDrive/Desktop/GD32VW553/GD32VW55X_Wifi_BLE_SDK/GD32VW55x_RELEASE_V1.0.2/MSDK/lwip/lwip-2.1.2/port\wifi_netif.c ****     }
 851:C:/Users/stapi/OneDrive/Desktop/GD32VW553/GD32VW55X_Wifi_BLE_SDK/GD32VW55x_RELEASE_V1.0.2/MSDK/lwip/lwip-2.1.2/port\wifi_netif.c **** 
 852:C:/Users/stapi/OneDrive/Desktop/GD32VW553/GD32VW55X_Wifi_BLE_SDK/GD32VW55x_RELEASE_V1.0.2/MSDK/lwip/lwip-2.1.2/port\wifi_netif.c ****     if (!filter)
 853:C:/Users/stapi/OneDrive/Desktop/GD32VW553/GD32VW55X_Wifi_BLE_SDK/GD32VW55x_RELEASE_V1.0.2/MSDK/lwip/lwip-2.1.2/port\wifi_netif.c ****         return -1;
 854:C:/Users/stapi/OneDrive/Desktop/GD32VW553/GD32VW55X_Wifi_BLE_SDK/GD32VW55x_RELEASE_V1.0.2/MSDK/lwip/lwip-2.1.2/port\wifi_netif.c **** 
 855:C:/Users/stapi/OneDrive/Desktop/GD32VW553/GD32VW55X_Wifi_BLE_SDK/GD32VW55x_RELEASE_V1.0.2/MSDK/lwip/lwip-2.1.2/port\wifi_netif.c ****     /* Note: we create DGRAM socket here but in practice we don't care, net_eth_receive
 856:C:/Users/stapi/OneDrive/Desktop/GD32VW553/GD32VW55X_Wifi_BLE_SDK/GD32VW55x_RELEASE_V1.0.2/MSDK/lwip/lwip-2.1.2/port\wifi_netif.c ****        will use the socket as a L2 raw socket */
 857:C:/Users/stapi/OneDrive/Desktop/GD32VW553/GD32VW55X_Wifi_BLE_SDK/GD32VW55x_RELEASE_V1.0.2/MSDK/lwip/lwip-2.1.2/port\wifi_netif.c ****     filter->sock = socket(PF_INET, SOCK_DGRAM, 0);
 858:C:/Users/stapi/OneDrive/Desktop/GD32VW553/GD32VW55X_Wifi_BLE_SDK/GD32VW55x_RELEASE_V1.0.2/MSDK/lwip/lwip-2.1.2/port\wifi_netif.c ****     if (filter->sock < 0)
 859:C:/Users/stapi/OneDrive/Desktop/GD32VW553/GD32VW55X_Wifi_BLE_SDK/GD32VW55x_RELEASE_V1.0.2/MSDK/lwip/lwip-2.1.2/port\wifi_netif.c ****         return -1;
 860:C:/Users/stapi/OneDrive/Desktop/GD32VW553/GD32VW55X_Wifi_BLE_SDK/GD32VW55x_RELEASE_V1.0.2/MSDK/lwip/lwip-2.1.2/port\wifi_netif.c **** 
 861:C:/Users/stapi/OneDrive/Desktop/GD32VW553/GD32VW55X_Wifi_BLE_SDK/GD32VW55x_RELEASE_V1.0.2/MSDK/lwip/lwip-2.1.2/port\wifi_netif.c ****     if (getsockopt(filter->sock, SOL_SOCKET, SO_CONNINFO, &(filter->conn), &len))
 862:C:/Users/stapi/OneDrive/Desktop/GD32VW553/GD32VW55X_Wifi_BLE_SDK/GD32VW55x_RELEASE_V1.0.2/MSDK/lwip/lwip-2.1.2/port\wifi_netif.c ****     {
 863:C:/Users/stapi/OneDrive/Desktop/GD32VW553/GD32VW55X_Wifi_BLE_SDK/GD32VW55x_RELEASE_V1.0.2/MSDK/lwip/lwip-2.1.2/port\wifi_netif.c ****         close(filter->sock);
 864:C:/Users/stapi/OneDrive/Desktop/GD32VW553/GD32VW55X_Wifi_BLE_SDK/GD32VW55x_RELEASE_V1.0.2/MSDK/lwip/lwip-2.1.2/port\wifi_netif.c ****         return -1;
 1387              		.loc 1 864 9 is_stmt 1
 1388              		.loc 1 864 16 is_stmt 0
 1389 002a 7D55     		li	a0,-1
 1390              	.L144:
 865:C:/Users/stapi/OneDrive/Desktop/GD32VW553/GD32VW55X_Wifi_BLE_SDK/GD32VW55x_RELEASE_V1.0.2/MSDK/lwip/lwip-2.1.2/port\wifi_netif.c ****     }
 866:C:/Users/stapi/OneDrive/Desktop/GD32VW553/GD32VW55X_Wifi_BLE_SDK/GD32VW55x_RELEASE_V1.0.2/MSDK/lwip/lwip-2.1.2/port\wifi_netif.c **** 
 867:C:/Users/stapi/OneDrive/Desktop/GD32VW553/GD32VW55X_Wifi_BLE_SDK/GD32VW55x_RELEASE_V1.0.2/MSDK/lwip/lwip-2.1.2/port\wifi_netif.c ****     filter->net_if = netif;
 868:C:/Users/stapi/OneDrive/Desktop/GD32VW553/GD32VW55X_Wifi_BLE_SDK/GD32VW55x_RELEASE_V1.0.2/MSDK/lwip/lwip-2.1.2/port\wifi_netif.c ****     filter->ethertype = ethertype;
 869:C:/Users/stapi/OneDrive/Desktop/GD32VW553/GD32VW55X_Wifi_BLE_SDK/GD32VW55x_RELEASE_V1.0.2/MSDK/lwip/lwip-2.1.2/port\wifi_netif.c **** 
 870:C:/Users/stapi/OneDrive/Desktop/GD32VW553/GD32VW55X_Wifi_BLE_SDK/GD32VW55x_RELEASE_V1.0.2/MSDK/lwip/lwip-2.1.2/port\wifi_netif.c ****     return filter->sock;
 871:C:/Users/stapi/OneDrive/Desktop/GD32VW553/GD32VW55X_Wifi_BLE_SDK/GD32VW55x_RELEASE_V1.0.2/MSDK/lwip/lwip-2.1.2/port\wifi_netif.c **** }
 1391              		.loc 1 871 1
 1392 002c 4101     		addi	sp,sp,16
 1393              		.cfi_remember_state
 1394              		.cfi_def_cfa_offset 0
 1395 002e 17030000 		tail	__riscv_restore_3
 1395      67000300 
 1396              		.cfi_restore 18
 1397              		.cfi_restore 9
 1398              		.cfi_restore 8
 1399              		.cfi_restore 1
 1400              		.cfi_def_cfa_offset -16
 1401              	.LVL154:
 1402              	.L145:
 1403              		.cfi_restore_state
 846:C:/Users/stapi/OneDrive/Desktop/GD32VW553/GD32VW55X_Wifi_BLE_SDK/GD32VW55x_RELEASE_V1.0.2/MSDK/lwip/lwip-2.1.2/port\wifi_netif.c ****         {
 1404              		.loc 1 846 14 is_stmt 1
 846:C:/Users/stapi/OneDrive/Desktop/GD32VW553/GD32VW55X_Wifi_BLE_SDK/GD32VW55x_RELEASE_V1.0.2/MSDK/lwip/lwip-2.1.2/port\wifi_netif.c ****         {
 1405              		.loc 1 846 35 is_stmt 0
 1406 0036 0144     		li	s0,0
 1407 0038 11E3     		bne	a4,zero,.L147
 848:C:/Users/stapi/OneDrive/Desktop/GD32VW553/GD32VW55X_Wifi_BLE_SDK/GD32VW55x_RELEASE_V1.0.2/MSDK/lwip/lwip-2.1.2/port\wifi_netif.c ****         }
 1408              		.loc 1 848 20
 1409 003a 3E84     		mv	s0,a5
 1410              	.L147:
 1411              	.LVL155:
 839:C:/Users/stapi/OneDrive/Desktop/GD32VW553/GD32VW55X_Wifi_BLE_SDK/GD32VW55x_RELEASE_V1.0.2/MSDK/lwip/lwip-2.1.2/port\wifi_netif.c ****     {
 1412              		.loc 1 839 40 is_stmt 1
 839:C:/Users/stapi/OneDrive/Desktop/GD32VW553/GD32VW55X_Wifi_BLE_SDK/GD32VW55x_RELEASE_V1.0.2/MSDK/lwip/lwip-2.1.2/port\wifi_netif.c ****     {
 1413              		.loc 1 839 17
 841:C:/Users/stapi/OneDrive/Desktop/GD32VW553/GD32VW55X_Wifi_BLE_SDK/GD32VW55x_RELEASE_V1.0.2/MSDK/lwip/lwip-2.1.2/port\wifi_netif.c ****             (l2_filter[i].ethertype == ethertype))
 1414              		.loc 1 841 9
 841:C:/Users/stapi/OneDrive/Desktop/GD32VW553/GD32VW55X_Wifi_BLE_SDK/GD32VW55x_RELEASE_V1.0.2/MSDK/lwip/lwip-2.1.2/port\wifi_netif.c ****             (l2_filter[i].ethertype == ethertype))
 1415              		.loc 1 841 26 is_stmt 0
 1416 003c 984B     		lw	a4,16(a5)
 841:C:/Users/stapi/OneDrive/Desktop/GD32VW553/GD32VW55X_Wifi_BLE_SDK/GD32VW55x_RELEASE_V1.0.2/MSDK/lwip/lwip-2.1.2/port\wifi_netif.c ****             (l2_filter[i].ethertype == ethertype))
 1417              		.loc 1 841 12
 1418 003e 6396E400 		bne	s1,a4,.L148
 841:C:/Users/stapi/OneDrive/Desktop/GD32VW553/GD32VW55X_Wifi_BLE_SDK/GD32VW55x_RELEASE_V1.0.2/MSDK/lwip/lwip-2.1.2/port\wifi_netif.c ****             (l2_filter[i].ethertype == ethertype))
 1419              		.loc 1 841 44
 1420 0042 83D6C701 		lhu	a3,28(a5)
 1421 0046 E38226FF 		beq	a3,s2,.L157
 1422              	.L148:
 846:C:/Users/stapi/OneDrive/Desktop/GD32VW553/GD32VW55X_Wifi_BLE_SDK/GD32VW55x_RELEASE_V1.0.2/MSDK/lwip/lwip-2.1.2/port\wifi_netif.c ****         {
 1423              		.loc 1 846 14 is_stmt 1
 846:C:/Users/stapi/OneDrive/Desktop/GD32VW553/GD32VW55X_Wifi_BLE_SDK/GD32VW55x_RELEASE_V1.0.2/MSDK/lwip/lwip-2.1.2/port\wifi_netif.c ****         {
 1424              		.loc 1 846 17 is_stmt 0
 1425 004a 01E4     		bne	s0,zero,.L150
 846:C:/Users/stapi/OneDrive/Desktop/GD32VW553/GD32VW55X_Wifi_BLE_SDK/GD32VW55x_RELEASE_V1.0.2/MSDK/lwip/lwip-2.1.2/port\wifi_netif.c ****         {
 1426              		.loc 1 846 35
 1427 004c 79FF     		bne	a4,zero,.L157
 848:C:/Users/stapi/OneDrive/Desktop/GD32VW553/GD32VW55X_Wifi_BLE_SDK/GD32VW55x_RELEASE_V1.0.2/MSDK/lwip/lwip-2.1.2/port\wifi_netif.c ****         }
 1428              		.loc 1 848 20
 1429 004e 13840701 		addi	s0,a5,16
 1430              	.LVL156:
 1431              	.L150:
 839:C:/Users/stapi/OneDrive/Desktop/GD32VW553/GD32VW55X_Wifi_BLE_SDK/GD32VW55x_RELEASE_V1.0.2/MSDK/lwip/lwip-2.1.2/port\wifi_netif.c ****     {
 1432              		.loc 1 839 40 is_stmt 1
 839:C:/Users/stapi/OneDrive/Desktop/GD32VW553/GD32VW55X_Wifi_BLE_SDK/GD32VW55x_RELEASE_V1.0.2/MSDK/lwip/lwip-2.1.2/port\wifi_netif.c ****     {
 1433              		.loc 1 839 17
 852:C:/Users/stapi/OneDrive/Desktop/GD32VW553/GD32VW55X_Wifi_BLE_SDK/GD32VW55x_RELEASE_V1.0.2/MSDK/lwip/lwip-2.1.2/port\wifi_netif.c ****         return -1;
 1434              		.loc 1 852 5
 857:C:/Users/stapi/OneDrive/Desktop/GD32VW553/GD32VW55X_Wifi_BLE_SDK/GD32VW55x_RELEASE_V1.0.2/MSDK/lwip/lwip-2.1.2/port\wifi_netif.c ****     if (filter->sock < 0)
 1435              		.loc 1 857 5
 857:C:/Users/stapi/OneDrive/Desktop/GD32VW553/GD32VW55X_Wifi_BLE_SDK/GD32VW55x_RELEASE_V1.0.2/MSDK/lwip/lwip-2.1.2/port\wifi_netif.c ****     if (filter->sock < 0)
 1436              		.loc 1 857 20 is_stmt 0
 1437 0052 0146     		li	a2,0
 1438 0054 8945     		li	a1,2
 1439              	.LVL157:
 1440 0056 0945     		li	a0,2
 1441 0058 97000000 		call	lwip_socket
 1441      E7800000 
 1442              	.LVL158:
 857:C:/Users/stapi/OneDrive/Desktop/GD32VW553/GD32VW55X_Wifi_BLE_SDK/GD32VW55x_RELEASE_V1.0.2/MSDK/lwip/lwip-2.1.2/port\wifi_netif.c ****     if (filter->sock < 0)
 1443              		.loc 1 857 18
 1444 0060 48C0     		sw	a0,4(s0)
 858:C:/Users/stapi/OneDrive/Desktop/GD32VW553/GD32VW55X_Wifi_BLE_SDK/GD32VW55x_RELEASE_V1.0.2/MSDK/lwip/lwip-2.1.2/port\wifi_netif.c ****         return -1;
 1445              		.loc 1 858 5 is_stmt 1
 858:C:/Users/stapi/OneDrive/Desktop/GD32VW553/GD32VW55X_Wifi_BLE_SDK/GD32VW55x_RELEASE_V1.0.2/MSDK/lwip/lwip-2.1.2/port\wifi_netif.c ****         return -1;
 1446              		.loc 1 858 8 is_stmt 0
 1447 0062 E34405FC 		blt	a0,zero,.L157
 861:C:/Users/stapi/OneDrive/Desktop/GD32VW553/GD32VW55X_Wifi_BLE_SDK/GD32VW55x_RELEASE_V1.0.2/MSDK/lwip/lwip-2.1.2/port\wifi_netif.c ****     {
 1448              		.loc 1 861 5 is_stmt 1
 861:C:/Users/stapi/OneDrive/Desktop/GD32VW553/GD32VW55X_Wifi_BLE_SDK/GD32VW55x_RELEASE_V1.0.2/MSDK/lwip/lwip-2.1.2/port\wifi_netif.c ****     {
 1449              		.loc 1 861 9 is_stmt 0
 1450 0066 8565     		li	a1,4096
 1451 0068 1386E500 		addi	a2,a1,14
 1452 006c 7800     		addi	a4,sp,12
 1453 006e 93068400 		addi	a3,s0,8
 1454 0072 FD15     		addi	a1,a1,-1
 1455 0074 97000000 		call	lwip_getsockopt
 1455      E7800000 
 1456              	.LVL159:
 1457 007c AA87     		mv	a5,a0
 1458 007e 4840     		lw	a0,4(s0)
 861:C:/Users/stapi/OneDrive/Desktop/GD32VW553/GD32VW55X_Wifi_BLE_SDK/GD32VW55x_RELEASE_V1.0.2/MSDK/lwip/lwip-2.1.2/port\wifi_netif.c ****     {
 1459              		.loc 1 861 8
 1460 0080 91C7     		beq	a5,zero,.L151
 863:C:/Users/stapi/OneDrive/Desktop/GD32VW553/GD32VW55X_Wifi_BLE_SDK/GD32VW55x_RELEASE_V1.0.2/MSDK/lwip/lwip-2.1.2/port\wifi_netif.c ****         return -1;
 1461              		.loc 1 863 9 is_stmt 1
 1462 0082 97000000 		call	lwip_close
 1462      E7800000 
 1463              	.LVL160:
 1464 008a 45B7     		j	.L157
 1465              	.L151:
 867:C:/Users/stapi/OneDrive/Desktop/GD32VW553/GD32VW55X_Wifi_BLE_SDK/GD32VW55x_RELEASE_V1.0.2/MSDK/lwip/lwip-2.1.2/port\wifi_netif.c ****     filter->ethertype = ethertype;
 1466              		.loc 1 867 5
 867:C:/Users/stapi/OneDrive/Desktop/GD32VW553/GD32VW55X_Wifi_BLE_SDK/GD32VW55x_RELEASE_V1.0.2/MSDK/lwip/lwip-2.1.2/port\wifi_netif.c ****     filter->ethertype = ethertype;
 1467              		.loc 1 867 20 is_stmt 0
 1468 008c 04C0     		sw	s1,0(s0)
 868:C:/Users/stapi/OneDrive/Desktop/GD32VW553/GD32VW55X_Wifi_BLE_SDK/GD32VW55x_RELEASE_V1.0.2/MSDK/lwip/lwip-2.1.2/port\wifi_netif.c **** 
 1469              		.loc 1 868 5 is_stmt 1
 868:C:/Users/stapi/OneDrive/Desktop/GD32VW553/GD32VW55X_Wifi_BLE_SDK/GD32VW55x_RELEASE_V1.0.2/MSDK/lwip/lwip-2.1.2/port\wifi_netif.c **** 
 1470              		.loc 1 868 23 is_stmt 0
 1471 008e 23162401 		sh	s2,12(s0)
 870:C:/Users/stapi/OneDrive/Desktop/GD32VW553/GD32VW55X_Wifi_BLE_SDK/GD32VW55x_RELEASE_V1.0.2/MSDK/lwip/lwip-2.1.2/port\wifi_netif.c **** }
 1472              		.loc 1 870 5 is_stmt 1
 1473              	.LVL161:
 870:C:/Users/stapi/OneDrive/Desktop/GD32VW553/GD32VW55X_Wifi_BLE_SDK/GD32VW55x_RELEASE_V1.0.2/MSDK/lwip/lwip-2.1.2/port\wifi_netif.c **** }
 1474              		.loc 1 870 18 is_stmt 0
 1475 0092 69BF     		j	.L144
 1476              		.cfi_endproc
 1477              	.LFE40:
 1479              		.section	.text.net_l2_socket_delete,"ax",@progbits
 1480              		.align	1
 1481              		.globl	net_l2_socket_delete
 1483              	net_l2_socket_delete:
 1484              	.LFB41:
 872:C:/Users/stapi/OneDrive/Desktop/GD32VW553/GD32VW55X_Wifi_BLE_SDK/GD32VW55x_RELEASE_V1.0.2/MSDK/lwip/lwip-2.1.2/port\wifi_netif.c **** 
 873:C:/Users/stapi/OneDrive/Desktop/GD32VW553/GD32VW55X_Wifi_BLE_SDK/GD32VW55x_RELEASE_V1.0.2/MSDK/lwip/lwip-2.1.2/port\wifi_netif.c **** /*!
 874:C:/Users/stapi/OneDrive/Desktop/GD32VW553/GD32VW55X_Wifi_BLE_SDK/GD32VW55x_RELEASE_V1.0.2/MSDK/lwip/lwip-2.1.2/port\wifi_netif.c ****     \brief      Delete a L2 (aka ethernet) socket
 875:C:/Users/stapi/OneDrive/Desktop/GD32VW553/GD32VW55X_Wifi_BLE_SDK/GD32VW55x_RELEASE_V1.0.2/MSDK/lwip/lwip-2.1.2/port\wifi_netif.c ****     \param[in]  sock: Socket descriptor returned by @ref net_l2_socket_create
 876:C:/Users/stapi/OneDrive/Desktop/GD32VW553/GD32VW55X_Wifi_BLE_SDK/GD32VW55x_RELEASE_V1.0.2/MSDK/lwip/lwip-2.1.2/port\wifi_netif.c ****     \param[in]  none
 877:C:/Users/stapi/OneDrive/Desktop/GD32VW553/GD32VW55X_Wifi_BLE_SDK/GD32VW55x_RELEASE_V1.0.2/MSDK/lwip/lwip-2.1.2/port\wifi_netif.c ****     \param[out] none
 878:C:/Users/stapi/OneDrive/Desktop/GD32VW553/GD32VW55X_Wifi_BLE_SDK/GD32VW55x_RELEASE_V1.0.2/MSDK/lwip/lwip-2.1.2/port\wifi_netif.c ****     \retval     0 on success and != 0 if error occurred.
 879:C:/Users/stapi/OneDrive/Desktop/GD32VW553/GD32VW55X_Wifi_BLE_SDK/GD32VW55x_RELEASE_V1.0.2/MSDK/lwip/lwip-2.1.2/port\wifi_netif.c **** */
 880:C:/Users/stapi/OneDrive/Desktop/GD32VW553/GD32VW55X_Wifi_BLE_SDK/GD32VW55x_RELEASE_V1.0.2/MSDK/lwip/lwip-2.1.2/port\wifi_netif.c **** int net_l2_socket_delete(int sock)
 881:C:/Users/stapi/OneDrive/Desktop/GD32VW553/GD32VW55X_Wifi_BLE_SDK/GD32VW55x_RELEASE_V1.0.2/MSDK/lwip/lwip-2.1.2/port\wifi_netif.c **** {
 1485              		.loc 1 881 1 is_stmt 1
 1486              		.cfi_startproc
 1487              	.LVL162:
 1488 0000 17030000 		call	t0,__riscv_save_1
 1488      E7020300 
 1489              		.cfi_offset 8, -8
 1490              		.cfi_offset 1, -4
 1491              		.cfi_def_cfa_offset 16
 882:C:/Users/stapi/OneDrive/Desktop/GD32VW553/GD32VW55X_Wifi_BLE_SDK/GD32VW55x_RELEASE_V1.0.2/MSDK/lwip/lwip-2.1.2/port\wifi_netif.c ****     int i;
 1492              		.loc 1 882 5
 883:C:/Users/stapi/OneDrive/Desktop/GD32VW553/GD32VW55X_Wifi_BLE_SDK/GD32VW55x_RELEASE_V1.0.2/MSDK/lwip/lwip-2.1.2/port\wifi_netif.c ****     for (i = 0; i < WIFI_NB_L2_FILTER; i++)
 1493              		.loc 1 883 5
 1494              	.LVL163:
 1495              		.loc 1 883 17
 884:C:/Users/stapi/OneDrive/Desktop/GD32VW553/GD32VW55X_Wifi_BLE_SDK/GD32VW55x_RELEASE_V1.0.2/MSDK/lwip/lwip-2.1.2/port\wifi_netif.c ****     {
 885:C:/Users/stapi/OneDrive/Desktop/GD32VW553/GD32VW55X_Wifi_BLE_SDK/GD32VW55x_RELEASE_V1.0.2/MSDK/lwip/lwip-2.1.2/port\wifi_netif.c ****         if ((l2_filter[i].net_if != NULL) &&
 1496              		.loc 1 885 9
 1497              		.loc 1 885 26 is_stmt 0
 1498 0008 B7070000 		lui	a5,%hi(.LANCHOR1)
 1499              		.loc 1 885 12
 1500 000c 03A70700 		lw	a4,%lo(.LANCHOR1)(a5)
 881:C:/Users/stapi/OneDrive/Desktop/GD32VW553/GD32VW55X_Wifi_BLE_SDK/GD32VW55x_RELEASE_V1.0.2/MSDK/lwip/lwip-2.1.2/port\wifi_netif.c ****     int i;
 1501              		.loc 1 881 1
 1502 0010 AA86     		mv	a3,a0
 1503 0012 93870700 		addi	a5,a5,%lo(.LANCHOR1)
 1504              		.loc 1 885 12
 1505 0016 01C7     		beq	a4,zero,.L159
 886:C:/Users/stapi/OneDrive/Desktop/GD32VW553/GD32VW55X_Wifi_BLE_SDK/GD32VW55x_RELEASE_V1.0.2/MSDK/lwip/lwip-2.1.2/port\wifi_netif.c ****             (l2_filter[i].sock == sock))
 1506              		.loc 1 886 26
 1507 0018 D843     		lw	a4,4(a5)
 885:C:/Users/stapi/OneDrive/Desktop/GD32VW553/GD32VW55X_Wifi_BLE_SDK/GD32VW55x_RELEASE_V1.0.2/MSDK/lwip/lwip-2.1.2/port\wifi_netif.c ****             (l2_filter[i].sock == sock))
 1508              		.loc 1 885 43
 1509 001a 6309E502 		beq	a0,a4,.L162
 1510              	.L159:
 883:C:/Users/stapi/OneDrive/Desktop/GD32VW553/GD32VW55X_Wifi_BLE_SDK/GD32VW55x_RELEASE_V1.0.2/MSDK/lwip/lwip-2.1.2/port\wifi_netif.c ****     {
 1511              		.loc 1 883 40 is_stmt 1
 1512              	.LVL164:
 883:C:/Users/stapi/OneDrive/Desktop/GD32VW553/GD32VW55X_Wifi_BLE_SDK/GD32VW55x_RELEASE_V1.0.2/MSDK/lwip/lwip-2.1.2/port\wifi_netif.c ****     {
 1513              		.loc 1 883 17
 885:C:/Users/stapi/OneDrive/Desktop/GD32VW553/GD32VW55X_Wifi_BLE_SDK/GD32VW55x_RELEASE_V1.0.2/MSDK/lwip/lwip-2.1.2/port\wifi_netif.c ****             (l2_filter[i].sock == sock))
 1514              		.loc 1 885 9
 885:C:/Users/stapi/OneDrive/Desktop/GD32VW553/GD32VW55X_Wifi_BLE_SDK/GD32VW55x_RELEASE_V1.0.2/MSDK/lwip/lwip-2.1.2/port\wifi_netif.c ****             (l2_filter[i].sock == sock))
 1515              		.loc 1 885 12 is_stmt 0
 1516 001e 984B     		lw	a4,16(a5)
 887:C:/Users/stapi/OneDrive/Desktop/GD32VW553/GD32VW55X_Wifi_BLE_SDK/GD32VW55x_RELEASE_V1.0.2/MSDK/lwip/lwip-2.1.2/port\wifi_netif.c ****         {
 888:C:/Users/stapi/OneDrive/Desktop/GD32VW553/GD32VW55X_Wifi_BLE_SDK/GD32VW55x_RELEASE_V1.0.2/MSDK/lwip/lwip-2.1.2/port\wifi_netif.c ****             l2_filter[i].net_if = NULL;
 889:C:/Users/stapi/OneDrive/Desktop/GD32VW553/GD32VW55X_Wifi_BLE_SDK/GD32VW55x_RELEASE_V1.0.2/MSDK/lwip/lwip-2.1.2/port\wifi_netif.c ****             close(l2_filter[i].sock);
 890:C:/Users/stapi/OneDrive/Desktop/GD32VW553/GD32VW55X_Wifi_BLE_SDK/GD32VW55x_RELEASE_V1.0.2/MSDK/lwip/lwip-2.1.2/port\wifi_netif.c ****             l2_filter[i].sock = -1;
 891:C:/Users/stapi/OneDrive/Desktop/GD32VW553/GD32VW55X_Wifi_BLE_SDK/GD32VW55x_RELEASE_V1.0.2/MSDK/lwip/lwip-2.1.2/port\wifi_netif.c ****             return 0;
 892:C:/Users/stapi/OneDrive/Desktop/GD32VW553/GD32VW55X_Wifi_BLE_SDK/GD32VW55x_RELEASE_V1.0.2/MSDK/lwip/lwip-2.1.2/port\wifi_netif.c ****         }
 893:C:/Users/stapi/OneDrive/Desktop/GD32VW553/GD32VW55X_Wifi_BLE_SDK/GD32VW55x_RELEASE_V1.0.2/MSDK/lwip/lwip-2.1.2/port\wifi_netif.c ****     }
 894:C:/Users/stapi/OneDrive/Desktop/GD32VW553/GD32VW55X_Wifi_BLE_SDK/GD32VW55x_RELEASE_V1.0.2/MSDK/lwip/lwip-2.1.2/port\wifi_netif.c **** 
 895:C:/Users/stapi/OneDrive/Desktop/GD32VW553/GD32VW55X_Wifi_BLE_SDK/GD32VW55x_RELEASE_V1.0.2/MSDK/lwip/lwip-2.1.2/port\wifi_netif.c ****     return -1;
 1517              		.loc 1 895 12
 1518 0020 7D55     		li	a0,-1
 1519              	.LVL165:
 885:C:/Users/stapi/OneDrive/Desktop/GD32VW553/GD32VW55X_Wifi_BLE_SDK/GD32VW55x_RELEASE_V1.0.2/MSDK/lwip/lwip-2.1.2/port\wifi_netif.c ****             (l2_filter[i].sock == sock))
 1520              		.loc 1 885 12
 1521 0022 0DC3     		beq	a4,zero,.L158
 886:C:/Users/stapi/OneDrive/Desktop/GD32VW553/GD32VW55X_Wifi_BLE_SDK/GD32VW55x_RELEASE_V1.0.2/MSDK/lwip/lwip-2.1.2/port\wifi_netif.c ****         {
 1522              		.loc 1 886 26
 1523 0024 D84B     		lw	a4,20(a5)
 885:C:/Users/stapi/OneDrive/Desktop/GD32VW553/GD32VW55X_Wifi_BLE_SDK/GD32VW55x_RELEASE_V1.0.2/MSDK/lwip/lwip-2.1.2/port\wifi_netif.c ****             (l2_filter[i].sock == sock))
 1524              		.loc 1 885 43
 1525 0026 639FE600 		bne	a3,a4,.L158
 883:C:/Users/stapi/OneDrive/Desktop/GD32VW553/GD32VW55X_Wifi_BLE_SDK/GD32VW55x_RELEASE_V1.0.2/MSDK/lwip/lwip-2.1.2/port\wifi_netif.c ****     {
 1526              		.loc 1 883 41
 1527 002a 0544     		li	s0,1
 1528              	.LVL166:
 1529              	.L160:
 888:C:/Users/stapi/OneDrive/Desktop/GD32VW553/GD32VW55X_Wifi_BLE_SDK/GD32VW55x_RELEASE_V1.0.2/MSDK/lwip/lwip-2.1.2/port\wifi_netif.c ****             close(l2_filter[i].sock);
 1530              		.loc 1 888 13 is_stmt 1
 888:C:/Users/stapi/OneDrive/Desktop/GD32VW553/GD32VW55X_Wifi_BLE_SDK/GD32VW55x_RELEASE_V1.0.2/MSDK/lwip/lwip-2.1.2/port\wifi_netif.c ****             close(l2_filter[i].sock);
 1531              		.loc 1 888 33 is_stmt 0
 1532 002c 1204     		slli	s0,s0,4
 1533 002e 3E94     		add	s0,a5,s0
 1534 0030 23200400 		sw	zero,0(s0)
 889:C:/Users/stapi/OneDrive/Desktop/GD32VW553/GD32VW55X_Wifi_BLE_SDK/GD32VW55x_RELEASE_V1.0.2/MSDK/lwip/lwip-2.1.2/port\wifi_netif.c ****             l2_filter[i].sock = -1;
 1535              		.loc 1 889 13 is_stmt 1
 1536 0034 3A85     		mv	a0,a4
 1537 0036 97000000 		call	lwip_close
 1537      E7800000 
 1538              	.LVL167:
 890:C:/Users/stapi/OneDrive/Desktop/GD32VW553/GD32VW55X_Wifi_BLE_SDK/GD32VW55x_RELEASE_V1.0.2/MSDK/lwip/lwip-2.1.2/port\wifi_netif.c ****             return 0;
 1539              		.loc 1 890 13
 890:C:/Users/stapi/OneDrive/Desktop/GD32VW553/GD32VW55X_Wifi_BLE_SDK/GD32VW55x_RELEASE_V1.0.2/MSDK/lwip/lwip-2.1.2/port\wifi_netif.c ****             return 0;
 1540              		.loc 1 890 31 is_stmt 0
 1541 003e FD57     		li	a5,-1
 1542 0040 5CC0     		sw	a5,4(s0)
 891:C:/Users/stapi/OneDrive/Desktop/GD32VW553/GD32VW55X_Wifi_BLE_SDK/GD32VW55x_RELEASE_V1.0.2/MSDK/lwip/lwip-2.1.2/port\wifi_netif.c ****         }
 1543              		.loc 1 891 13 is_stmt 1
 891:C:/Users/stapi/OneDrive/Desktop/GD32VW553/GD32VW55X_Wifi_BLE_SDK/GD32VW55x_RELEASE_V1.0.2/MSDK/lwip/lwip-2.1.2/port\wifi_netif.c ****         }
 1544              		.loc 1 891 20 is_stmt 0
 1545 0042 0145     		li	a0,0
 1546              	.L158:
 896:C:/Users/stapi/OneDrive/Desktop/GD32VW553/GD32VW55X_Wifi_BLE_SDK/GD32VW55x_RELEASE_V1.0.2/MSDK/lwip/lwip-2.1.2/port\wifi_netif.c **** }
 1547              		.loc 1 896 1
 1548 0044 17030000 		tail	__riscv_restore_1
 1548      67000300 
 1549              		.cfi_remember_state
 1550              		.cfi_restore 8
 1551              		.cfi_restore 1
 1552              		.cfi_def_cfa_offset 0
 1553              	.LVL168:
 1554              	.L162:
 1555              		.cfi_restore_state
 883:C:/Users/stapi/OneDrive/Desktop/GD32VW553/GD32VW55X_Wifi_BLE_SDK/GD32VW55x_RELEASE_V1.0.2/MSDK/lwip/lwip-2.1.2/port\wifi_netif.c ****     {
 1556              		.loc 1 883 12
 1557 004c 0144     		li	s0,0
 1558 004e F9BF     		j	.L160
 1559              		.cfi_endproc
 1560              	.LFE41:
 1562              		.section	.text.net_eth_receive,"ax",@progbits
 1563              		.align	1
 1564              		.globl	net_eth_receive
 1566              	net_eth_receive:
 1567              	.LFB42:
 897:C:/Users/stapi/OneDrive/Desktop/GD32VW553/GD32VW55X_Wifi_BLE_SDK/GD32VW55x_RELEASE_V1.0.2/MSDK/lwip/lwip-2.1.2/port\wifi_netif.c **** 
 898:C:/Users/stapi/OneDrive/Desktop/GD32VW553/GD32VW55X_Wifi_BLE_SDK/GD32VW55x_RELEASE_V1.0.2/MSDK/lwip/lwip-2.1.2/port\wifi_netif.c **** /*!
 899:C:/Users/stapi/OneDrive/Desktop/GD32VW553/GD32VW55X_Wifi_BLE_SDK/GD32VW55x_RELEASE_V1.0.2/MSDK/lwip/lwip-2.1.2/port\wifi_netif.c ****     \brief      LWIP hook to process ethernet packet not supported.
 900:C:/Users/stapi/OneDrive/Desktop/GD32VW553/GD32VW55X_Wifi_BLE_SDK/GD32VW55x_RELEASE_V1.0.2/MSDK/lwip/lwip-2.1.2/port\wifi_netif.c ****                 Check if a socket has been created for this (netif, ethertype) couple.
 901:C:/Users/stapi/OneDrive/Desktop/GD32VW553/GD32VW55X_Wifi_BLE_SDK/GD32VW55x_RELEASE_V1.0.2/MSDK/lwip/lwip-2.1.2/port\wifi_netif.c ****                 If so push the buffer in the socket buffer list. (no buffer copy is done)
 902:C:/Users/stapi/OneDrive/Desktop/GD32VW553/GD32VW55X_Wifi_BLE_SDK/GD32VW55x_RELEASE_V1.0.2/MSDK/lwip/lwip-2.1.2/port\wifi_netif.c ****     \param[in]  pbuf: Buffer containing the ethernet frame
 903:C:/Users/stapi/OneDrive/Desktop/GD32VW553/GD32VW55X_Wifi_BLE_SDK/GD32VW55x_RELEASE_V1.0.2/MSDK/lwip/lwip-2.1.2/port\wifi_netif.c ****     \param[in]  net_if: Pointer to the network interface that received the frame
 904:C:/Users/stapi/OneDrive/Desktop/GD32VW553/GD32VW55X_Wifi_BLE_SDK/GD32VW55x_RELEASE_V1.0.2/MSDK/lwip/lwip-2.1.2/port\wifi_netif.c ****     \param[out] none
 905:C:/Users/stapi/OneDrive/Desktop/GD32VW553/GD32VW55X_Wifi_BLE_SDK/GD32VW55x_RELEASE_V1.0.2/MSDK/lwip/lwip-2.1.2/port\wifi_netif.c ****     \retval     ERR_OK if a L2 socket exist for this frame and buffer has been successfully
 906:C:/Users/stapi/OneDrive/Desktop/GD32VW553/GD32VW55X_Wifi_BLE_SDK/GD32VW55x_RELEASE_V1.0.2/MSDK/lwip/lwip-2.1.2/port\wifi_netif.c ****                 pushed, ERR_MEM/ERR_VAL otherwise.
 907:C:/Users/stapi/OneDrive/Desktop/GD32VW553/GD32VW55X_Wifi_BLE_SDK/GD32VW55x_RELEASE_V1.0.2/MSDK/lwip/lwip-2.1.2/port\wifi_netif.c **** */
 908:C:/Users/stapi/OneDrive/Desktop/GD32VW553/GD32VW55X_Wifi_BLE_SDK/GD32VW55x_RELEASE_V1.0.2/MSDK/lwip/lwip-2.1.2/port\wifi_netif.c **** err_t net_eth_receive(struct pbuf *pbuf, void *net_if)
 909:C:/Users/stapi/OneDrive/Desktop/GD32VW553/GD32VW55X_Wifi_BLE_SDK/GD32VW55x_RELEASE_V1.0.2/MSDK/lwip/lwip-2.1.2/port\wifi_netif.c **** {
 1568              		.loc 1 909 1 is_stmt 1
 1569              		.cfi_startproc
 1570              	.LVL169:
 1571 0000 17030000 		call	t0,__riscv_save_5
 1571      E7020300 
 1572              		.cfi_offset 20, -24
 1573              		.cfi_offset 19, -20
 1574              		.cfi_offset 18, -16
 1575              		.cfi_offset 9, -12
 1576              		.cfi_offset 8, -8
 1577              		.cfi_offset 1, -4
 1578              		.cfi_def_cfa_offset 32
 910:C:/Users/stapi/OneDrive/Desktop/GD32VW553/GD32VW55X_Wifi_BLE_SDK/GD32VW55x_RELEASE_V1.0.2/MSDK/lwip/lwip-2.1.2/port\wifi_netif.c ****     struct l2_filter_tag *filter = NULL;
 1579              		.loc 1 910 5
 1580              	.LVL170:
 911:C:/Users/stapi/OneDrive/Desktop/GD32VW553/GD32VW55X_Wifi_BLE_SDK/GD32VW55x_RELEASE_V1.0.2/MSDK/lwip/lwip-2.1.2/port\wifi_netif.c ****     struct eth_hdr* ethhdr = pbuf->payload;
 1581              		.loc 1 911 5
 912:C:/Users/stapi/OneDrive/Desktop/GD32VW553/GD32VW55X_Wifi_BLE_SDK/GD32VW55x_RELEASE_V1.0.2/MSDK/lwip/lwip-2.1.2/port\wifi_netif.c ****     uint16_t ethertype = ntohs(ethhdr->type);
 1582              		.loc 1 912 5
 1583              		.loc 1 912 26 is_stmt 0
 1584 0008 5C41     		lw	a5,4(a0)
 909:C:/Users/stapi/OneDrive/Desktop/GD32VW553/GD32VW55X_Wifi_BLE_SDK/GD32VW55x_RELEASE_V1.0.2/MSDK/lwip/lwip-2.1.2/port\wifi_netif.c ****     struct l2_filter_tag *filter = NULL;
 1585              		.loc 1 909 1
 1586 000a AA89     		mv	s3,a0
 913:C:/Users/stapi/OneDrive/Desktop/GD32VW553/GD32VW55X_Wifi_BLE_SDK/GD32VW55x_RELEASE_V1.0.2/MSDK/lwip/lwip-2.1.2/port\wifi_netif.c ****     struct netconn *conn;
 914:C:/Users/stapi/OneDrive/Desktop/GD32VW553/GD32VW55X_Wifi_BLE_SDK/GD32VW55x_RELEASE_V1.0.2/MSDK/lwip/lwip-2.1.2/port\wifi_netif.c ****     struct netbuf *buf;
 915:C:/Users/stapi/OneDrive/Desktop/GD32VW553/GD32VW55X_Wifi_BLE_SDK/GD32VW55x_RELEASE_V1.0.2/MSDK/lwip/lwip-2.1.2/port\wifi_netif.c ****     int i;
 916:C:/Users/stapi/OneDrive/Desktop/GD32VW553/GD32VW55X_Wifi_BLE_SDK/GD32VW55x_RELEASE_V1.0.2/MSDK/lwip/lwip-2.1.2/port\wifi_netif.c ****     struct netif *netif = (struct netif *)net_if;
 917:C:/Users/stapi/OneDrive/Desktop/GD32VW553/GD32VW55X_Wifi_BLE_SDK/GD32VW55x_RELEASE_V1.0.2/MSDK/lwip/lwip-2.1.2/port\wifi_netif.c **** 
 918:C:/Users/stapi/OneDrive/Desktop/GD32VW553/GD32VW55X_Wifi_BLE_SDK/GD32VW55x_RELEASE_V1.0.2/MSDK/lwip/lwip-2.1.2/port\wifi_netif.c ****     for (i = 0; i < WIFI_NB_L2_FILTER; i++)
 919:C:/Users/stapi/OneDrive/Desktop/GD32VW553/GD32VW55X_Wifi_BLE_SDK/GD32VW55x_RELEASE_V1.0.2/MSDK/lwip/lwip-2.1.2/port\wifi_netif.c ****     {
 920:C:/Users/stapi/OneDrive/Desktop/GD32VW553/GD32VW55X_Wifi_BLE_SDK/GD32VW55x_RELEASE_V1.0.2/MSDK/lwip/lwip-2.1.2/port\wifi_netif.c ****         if ((l2_filter[i].net_if == netif) &&
 1587              		.loc 1 920 26
 1588 000c 37040000 		lui	s0,%hi(.LANCHOR1)
 912:C:/Users/stapi/OneDrive/Desktop/GD32VW553/GD32VW55X_Wifi_BLE_SDK/GD32VW55x_RELEASE_V1.0.2/MSDK/lwip/lwip-2.1.2/port\wifi_netif.c ****     struct netconn *conn;
 1589              		.loc 1 912 26
 1590 0010 03C5C700 		lbu	a0,12(a5)
 1591              	.LVL171:
 1592 0014 83C7D700 		lbu	a5,13(a5)
 1593              	.LVL172:
 909:C:/Users/stapi/OneDrive/Desktop/GD32VW553/GD32VW55X_Wifi_BLE_SDK/GD32VW55x_RELEASE_V1.0.2/MSDK/lwip/lwip-2.1.2/port\wifi_netif.c ****     struct l2_filter_tag *filter = NULL;
 1594              		.loc 1 909 1
 1595 0018 2E89     		mv	s2,a1
 912:C:/Users/stapi/OneDrive/Desktop/GD32VW553/GD32VW55X_Wifi_BLE_SDK/GD32VW55x_RELEASE_V1.0.2/MSDK/lwip/lwip-2.1.2/port\wifi_netif.c ****     struct netconn *conn;
 1596              		.loc 1 912 26
 1597 001a A207     		slli	a5,a5,8
 1598 001c 5D8D     		or	a0,a5,a0
 1599 001e 97000000 		call	lwip_htons
 1599      E7800000 
 1600              	.LVL173:
 913:C:/Users/stapi/OneDrive/Desktop/GD32VW553/GD32VW55X_Wifi_BLE_SDK/GD32VW55x_RELEASE_V1.0.2/MSDK/lwip/lwip-2.1.2/port\wifi_netif.c ****     struct netconn *conn;
 1601              		.loc 1 913 5 is_stmt 1
 914:C:/Users/stapi/OneDrive/Desktop/GD32VW553/GD32VW55X_Wifi_BLE_SDK/GD32VW55x_RELEASE_V1.0.2/MSDK/lwip/lwip-2.1.2/port\wifi_netif.c ****     int i;
 1602              		.loc 1 914 5
 915:C:/Users/stapi/OneDrive/Desktop/GD32VW553/GD32VW55X_Wifi_BLE_SDK/GD32VW55x_RELEASE_V1.0.2/MSDK/lwip/lwip-2.1.2/port\wifi_netif.c ****     struct netif *netif = (struct netif *)net_if;
 1603              		.loc 1 915 5
 916:C:/Users/stapi/OneDrive/Desktop/GD32VW553/GD32VW55X_Wifi_BLE_SDK/GD32VW55x_RELEASE_V1.0.2/MSDK/lwip/lwip-2.1.2/port\wifi_netif.c **** 
 1604              		.loc 1 916 5
 918:C:/Users/stapi/OneDrive/Desktop/GD32VW553/GD32VW55X_Wifi_BLE_SDK/GD32VW55x_RELEASE_V1.0.2/MSDK/lwip/lwip-2.1.2/port\wifi_netif.c ****     {
 1605              		.loc 1 918 5
 918:C:/Users/stapi/OneDrive/Desktop/GD32VW553/GD32VW55X_Wifi_BLE_SDK/GD32VW55x_RELEASE_V1.0.2/MSDK/lwip/lwip-2.1.2/port\wifi_netif.c ****     {
 1606              		.loc 1 918 17
 1607              		.loc 1 920 9
 1608              		.loc 1 920 12 is_stmt 0
 1609 0026 83270400 		lw	a5,%lo(.LANCHOR1)(s0)
 1610 002a 13040400 		addi	s0,s0,%lo(.LANCHOR1)
 1611 002e 6316F900 		bne	s2,a5,.L170
 1612              		.loc 1 920 44
 1613 0032 8357C400 		lhu	a5,12(s0)
 1614 0036 638EA704 		beq	a5,a0,.L174
 1615              	.L170:
 918:C:/Users/stapi/OneDrive/Desktop/GD32VW553/GD32VW55X_Wifi_BLE_SDK/GD32VW55x_RELEASE_V1.0.2/MSDK/lwip/lwip-2.1.2/port\wifi_netif.c ****     {
 1616              		.loc 1 918 40 is_stmt 1
 1617              	.LVL174:
 918:C:/Users/stapi/OneDrive/Desktop/GD32VW553/GD32VW55X_Wifi_BLE_SDK/GD32VW55x_RELEASE_V1.0.2/MSDK/lwip/lwip-2.1.2/port\wifi_netif.c ****     {
 1618              		.loc 1 918 17
 1619              		.loc 1 920 9
 1620              		.loc 1 920 12 is_stmt 0
 1621 003a 1C48     		lw	a5,16(s0)
 921:C:/Users/stapi/OneDrive/Desktop/GD32VW553/GD32VW55X_Wifi_BLE_SDK/GD32VW55x_RELEASE_V1.0.2/MSDK/lwip/lwip-2.1.2/port\wifi_netif.c ****             (l2_filter[i].ethertype == ethertype))
 922:C:/Users/stapi/OneDrive/Desktop/GD32VW553/GD32VW55X_Wifi_BLE_SDK/GD32VW55x_RELEASE_V1.0.2/MSDK/lwip/lwip-2.1.2/port\wifi_netif.c ****         {
 923:C:/Users/stapi/OneDrive/Desktop/GD32VW553/GD32VW55X_Wifi_BLE_SDK/GD32VW55x_RELEASE_V1.0.2/MSDK/lwip/lwip-2.1.2/port\wifi_netif.c ****             filter = &l2_filter[i];
 924:C:/Users/stapi/OneDrive/Desktop/GD32VW553/GD32VW55X_Wifi_BLE_SDK/GD32VW55x_RELEASE_V1.0.2/MSDK/lwip/lwip-2.1.2/port\wifi_netif.c ****             break;
 925:C:/Users/stapi/OneDrive/Desktop/GD32VW553/GD32VW55X_Wifi_BLE_SDK/GD32VW55x_RELEASE_V1.0.2/MSDK/lwip/lwip-2.1.2/port\wifi_netif.c ****         }
 926:C:/Users/stapi/OneDrive/Desktop/GD32VW553/GD32VW55X_Wifi_BLE_SDK/GD32VW55x_RELEASE_V1.0.2/MSDK/lwip/lwip-2.1.2/port\wifi_netif.c ****     }
 927:C:/Users/stapi/OneDrive/Desktop/GD32VW553/GD32VW55X_Wifi_BLE_SDK/GD32VW55x_RELEASE_V1.0.2/MSDK/lwip/lwip-2.1.2/port\wifi_netif.c **** 
 928:C:/Users/stapi/OneDrive/Desktop/GD32VW553/GD32VW55X_Wifi_BLE_SDK/GD32VW55x_RELEASE_V1.0.2/MSDK/lwip/lwip-2.1.2/port\wifi_netif.c ****     if (!filter)
 929:C:/Users/stapi/OneDrive/Desktop/GD32VW553/GD32VW55X_Wifi_BLE_SDK/GD32VW55x_RELEASE_V1.0.2/MSDK/lwip/lwip-2.1.2/port\wifi_netif.c ****         return ERR_VAL;
 1622              		.loc 1 929 16
 1623 003c E954     		li	s1,-6
 920:C:/Users/stapi/OneDrive/Desktop/GD32VW553/GD32VW55X_Wifi_BLE_SDK/GD32VW55x_RELEASE_V1.0.2/MSDK/lwip/lwip-2.1.2/port\wifi_netif.c ****             (l2_filter[i].ethertype == ethertype))
 1624              		.loc 1 920 12
 1625 003e 6315F904 		bne	s2,a5,.L172
 920:C:/Users/stapi/OneDrive/Desktop/GD32VW553/GD32VW55X_Wifi_BLE_SDK/GD32VW55x_RELEASE_V1.0.2/MSDK/lwip/lwip-2.1.2/port\wifi_netif.c ****             (l2_filter[i].ethertype == ethertype))
 1626              		.loc 1 920 44
 1627 0042 8357C401 		lhu	a5,28(s0)
 1628 0046 6391A704 		bne	a5,a0,.L172
 918:C:/Users/stapi/OneDrive/Desktop/GD32VW553/GD32VW55X_Wifi_BLE_SDK/GD32VW55x_RELEASE_V1.0.2/MSDK/lwip/lwip-2.1.2/port\wifi_netif.c ****     {
 1629              		.loc 1 918 41
 1630 004a 054A     		li	s4,1
 1631              	.LVL175:
 1632              	.L171:
 923:C:/Users/stapi/OneDrive/Desktop/GD32VW553/GD32VW55X_Wifi_BLE_SDK/GD32VW55x_RELEASE_V1.0.2/MSDK/lwip/lwip-2.1.2/port\wifi_netif.c ****             break;
 1633              		.loc 1 923 13 is_stmt 1
 924:C:/Users/stapi/OneDrive/Desktop/GD32VW553/GD32VW55X_Wifi_BLE_SDK/GD32VW55x_RELEASE_V1.0.2/MSDK/lwip/lwip-2.1.2/port\wifi_netif.c ****         }
 1634              		.loc 1 924 13
 928:C:/Users/stapi/OneDrive/Desktop/GD32VW553/GD32VW55X_Wifi_BLE_SDK/GD32VW55x_RELEASE_V1.0.2/MSDK/lwip/lwip-2.1.2/port\wifi_netif.c ****         return ERR_VAL;
 1635              		.loc 1 928 5
 930:C:/Users/stapi/OneDrive/Desktop/GD32VW553/GD32VW55X_Wifi_BLE_SDK/GD32VW55x_RELEASE_V1.0.2/MSDK/lwip/lwip-2.1.2/port\wifi_netif.c **** 
 931:C:/Users/stapi/OneDrive/Desktop/GD32VW553/GD32VW55X_Wifi_BLE_SDK/GD32VW55x_RELEASE_V1.0.2/MSDK/lwip/lwip-2.1.2/port\wifi_netif.c ****     buf = (struct netbuf *)memp_malloc(MEMP_NETBUF);
 1636              		.loc 1 931 5
 1637              		.loc 1 931 28 is_stmt 0
 1638 004c 2145     		li	a0,8
 1639              	.LVL176:
 1640 004e 97000000 		call	memp_malloc
 1640      E7800000 
 1641              	.LVL177:
 1642 0056 2A89     		mv	s2,a0
 1643              	.LVL178:
 932:C:/Users/stapi/OneDrive/Desktop/GD32VW553/GD32VW55X_Wifi_BLE_SDK/GD32VW55x_RELEASE_V1.0.2/MSDK/lwip/lwip-2.1.2/port\wifi_netif.c ****     if (buf == NULL)
 1644              		.loc 1 932 5 is_stmt 1
 933:C:/Users/stapi/OneDrive/Desktop/GD32VW553/GD32VW55X_Wifi_BLE_SDK/GD32VW55x_RELEASE_V1.0.2/MSDK/lwip/lwip-2.1.2/port\wifi_netif.c ****     {
 934:C:/Users/stapi/OneDrive/Desktop/GD32VW553/GD32VW55X_Wifi_BLE_SDK/GD32VW55x_RELEASE_V1.0.2/MSDK/lwip/lwip-2.1.2/port\wifi_netif.c ****         return ERR_MEM;
 1645              		.loc 1 934 16 is_stmt 0
 1646 0058 FD54     		li	s1,-1
 932:C:/Users/stapi/OneDrive/Desktop/GD32VW553/GD32VW55X_Wifi_BLE_SDK/GD32VW55x_RELEASE_V1.0.2/MSDK/lwip/lwip-2.1.2/port\wifi_netif.c ****     if (buf == NULL)
 1647              		.loc 1 932 8
 1648 005a 1DC5     		beq	a0,zero,.L172
 935:C:/Users/stapi/OneDrive/Desktop/GD32VW553/GD32VW55X_Wifi_BLE_SDK/GD32VW55x_RELEASE_V1.0.2/MSDK/lwip/lwip-2.1.2/port\wifi_netif.c ****     }
 936:C:/Users/stapi/OneDrive/Desktop/GD32VW553/GD32VW55X_Wifi_BLE_SDK/GD32VW55x_RELEASE_V1.0.2/MSDK/lwip/lwip-2.1.2/port\wifi_netif.c **** 
 937:C:/Users/stapi/OneDrive/Desktop/GD32VW553/GD32VW55X_Wifi_BLE_SDK/GD32VW55x_RELEASE_V1.0.2/MSDK/lwip/lwip-2.1.2/port\wifi_netif.c ****     buf->p = pbuf;
 1649              		.loc 1 937 5 is_stmt 1
 938:C:/Users/stapi/OneDrive/Desktop/GD32VW553/GD32VW55X_Wifi_BLE_SDK/GD32VW55x_RELEASE_V1.0.2/MSDK/lwip/lwip-2.1.2/port\wifi_netif.c ****     buf->ptr = pbuf;
 939:C:/Users/stapi/OneDrive/Desktop/GD32VW553/GD32VW55X_Wifi_BLE_SDK/GD32VW55x_RELEASE_V1.0.2/MSDK/lwip/lwip-2.1.2/port\wifi_netif.c ****     conn = filter->conn;
 1650              		.loc 1 939 10 is_stmt 0
 1651 005c 120A     		slli	s4,s4,4
 1652              	.LVL179:
 1653 005e 5294     		add	s0,s0,s4
 1654 0060 0044     		lw	s0,8(s0)
 937:C:/Users/stapi/OneDrive/Desktop/GD32VW553/GD32VW55X_Wifi_BLE_SDK/GD32VW55x_RELEASE_V1.0.2/MSDK/lwip/lwip-2.1.2/port\wifi_netif.c ****     buf->ptr = pbuf;
 1655              		.loc 1 937 12
 1656 0062 23203501 		sw	s3,0(a0)
 938:C:/Users/stapi/OneDrive/Desktop/GD32VW553/GD32VW55X_Wifi_BLE_SDK/GD32VW55x_RELEASE_V1.0.2/MSDK/lwip/lwip-2.1.2/port\wifi_netif.c ****     buf->ptr = pbuf;
 1657              		.loc 1 938 5 is_stmt 1
 938:C:/Users/stapi/OneDrive/Desktop/GD32VW553/GD32VW55X_Wifi_BLE_SDK/GD32VW55x_RELEASE_V1.0.2/MSDK/lwip/lwip-2.1.2/port\wifi_netif.c ****     buf->ptr = pbuf;
 1658              		.loc 1 938 14 is_stmt 0
 1659 0066 23223501 		sw	s3,4(a0)
 1660              		.loc 1 939 5 is_stmt 1
 1661              	.LVL180:
 940:C:/Users/stapi/OneDrive/Desktop/GD32VW553/GD32VW55X_Wifi_BLE_SDK/GD32VW55x_RELEASE_V1.0.2/MSDK/lwip/lwip-2.1.2/port\wifi_netif.c **** 
 941:C:/Users/stapi/OneDrive/Desktop/GD32VW553/GD32VW55X_Wifi_BLE_SDK/GD32VW55x_RELEASE_V1.0.2/MSDK/lwip/lwip-2.1.2/port\wifi_netif.c ****     if (sys_mbox_trypost(&conn->recvmbox, buf) != ERR_OK)
 1662              		.loc 1 941 5
 1663              		.loc 1 941 9 is_stmt 0
 1664 006a AA85     		mv	a1,a0
 1665 006c 13054401 		addi	a0,s0,20
 1666              	.LVL181:
 1667 0070 97000000 		call	sys_mbox_trypost
 1667      E7800000 
 1668              	.LVL182:
 1669 0078 AA84     		mv	s1,a0
 1670              		.loc 1 941 8
 1671 007a 11CD     		beq	a0,zero,.L173
 942:C:/Users/stapi/OneDrive/Desktop/GD32VW553/GD32VW55X_Wifi_BLE_SDK/GD32VW55x_RELEASE_V1.0.2/MSDK/lwip/lwip-2.1.2/port\wifi_netif.c ****     {
 943:C:/Users/stapi/OneDrive/Desktop/GD32VW553/GD32VW55X_Wifi_BLE_SDK/GD32VW55x_RELEASE_V1.0.2/MSDK/lwip/lwip-2.1.2/port\wifi_netif.c ****         netbuf_delete(buf);
 1672              		.loc 1 943 9 is_stmt 1
 1673 007c 4A85     		mv	a0,s2
 1674 007e 97000000 		call	netbuf_delete
 1674      E7800000 
 1675              	.LVL183:
 944:C:/Users/stapi/OneDrive/Desktop/GD32VW553/GD32VW55X_Wifi_BLE_SDK/GD32VW55x_RELEASE_V1.0.2/MSDK/lwip/lwip-2.1.2/port\wifi_netif.c ****         return ERR_OK;
 1676              		.loc 1 944 9
 1677              		.loc 1 944 16 is_stmt 0
 1678 0086 8144     		li	s1,0
 1679              	.LVL184:
 1680              	.L172:
 945:C:/Users/stapi/OneDrive/Desktop/GD32VW553/GD32VW55X_Wifi_BLE_SDK/GD32VW55x_RELEASE_V1.0.2/MSDK/lwip/lwip-2.1.2/port\wifi_netif.c ****     }
 946:C:/Users/stapi/OneDrive/Desktop/GD32VW553/GD32VW55X_Wifi_BLE_SDK/GD32VW55x_RELEASE_V1.0.2/MSDK/lwip/lwip-2.1.2/port\wifi_netif.c ****     else
 947:C:/Users/stapi/OneDrive/Desktop/GD32VW553/GD32VW55X_Wifi_BLE_SDK/GD32VW55x_RELEASE_V1.0.2/MSDK/lwip/lwip-2.1.2/port\wifi_netif.c ****     {
 948:C:/Users/stapi/OneDrive/Desktop/GD32VW553/GD32VW55X_Wifi_BLE_SDK/GD32VW55x_RELEASE_V1.0.2/MSDK/lwip/lwip-2.1.2/port\wifi_netif.c ****         #if LWIP_SO_RCVBUF
 949:C:/Users/stapi/OneDrive/Desktop/GD32VW553/GD32VW55X_Wifi_BLE_SDK/GD32VW55x_RELEASE_V1.0.2/MSDK/lwip/lwip-2.1.2/port\wifi_netif.c ****         SYS_ARCH_INC(conn->recv_avail, pbuf->tot_len);
 950:C:/Users/stapi/OneDrive/Desktop/GD32VW553/GD32VW55X_Wifi_BLE_SDK/GD32VW55x_RELEASE_V1.0.2/MSDK/lwip/lwip-2.1.2/port\wifi_netif.c ****         #endif /* LWIP_SO_RCVBUF */
 951:C:/Users/stapi/OneDrive/Desktop/GD32VW553/GD32VW55X_Wifi_BLE_SDK/GD32VW55x_RELEASE_V1.0.2/MSDK/lwip/lwip-2.1.2/port\wifi_netif.c ****         /* Register event with callback */
 952:C:/Users/stapi/OneDrive/Desktop/GD32VW553/GD32VW55X_Wifi_BLE_SDK/GD32VW55x_RELEASE_V1.0.2/MSDK/lwip/lwip-2.1.2/port\wifi_netif.c ****         API_EVENT(conn, NETCONN_EVT_RCVPLUS, pbuf->tot_len);
 953:C:/Users/stapi/OneDrive/Desktop/GD32VW553/GD32VW55X_Wifi_BLE_SDK/GD32VW55x_RELEASE_V1.0.2/MSDK/lwip/lwip-2.1.2/port\wifi_netif.c ****     }
 954:C:/Users/stapi/OneDrive/Desktop/GD32VW553/GD32VW55X_Wifi_BLE_SDK/GD32VW55x_RELEASE_V1.0.2/MSDK/lwip/lwip-2.1.2/port\wifi_netif.c **** 
 955:C:/Users/stapi/OneDrive/Desktop/GD32VW553/GD32VW55X_Wifi_BLE_SDK/GD32VW55x_RELEASE_V1.0.2/MSDK/lwip/lwip-2.1.2/port\wifi_netif.c ****     return ERR_OK;
 956:C:/Users/stapi/OneDrive/Desktop/GD32VW553/GD32VW55X_Wifi_BLE_SDK/GD32VW55x_RELEASE_V1.0.2/MSDK/lwip/lwip-2.1.2/port\wifi_netif.c **** }
 1681              		.loc 1 956 1
 1682 0088 2685     		mv	a0,s1
 1683 008a 17030000 		tail	__riscv_restore_5
 1683      67000300 
 1684              		.cfi_remember_state
 1685              		.cfi_restore 20
 1686              		.cfi_restore 19
 1687              		.cfi_restore 18
 1688              		.cfi_restore 9
 1689              		.cfi_restore 8
 1690              		.cfi_restore 1
 1691              		.cfi_def_cfa_offset 0
 1692              	.LVL185:
 1693              	.L174:
 1694              		.cfi_restore_state
 918:C:/Users/stapi/OneDrive/Desktop/GD32VW553/GD32VW55X_Wifi_BLE_SDK/GD32VW55x_RELEASE_V1.0.2/MSDK/lwip/lwip-2.1.2/port\wifi_netif.c ****     {
 1695              		.loc 1 918 12
 1696 0092 014A     		li	s4,0
 1697 0094 65BF     		j	.L171
 1698              	.LVL186:
 1699              	.L173:
 952:C:/Users/stapi/OneDrive/Desktop/GD32VW553/GD32VW55X_Wifi_BLE_SDK/GD32VW55x_RELEASE_V1.0.2/MSDK/lwip/lwip-2.1.2/port\wifi_netif.c ****     }
 1700              		.loc 1 952 9 is_stmt 1
 1701 0096 5C54     		lw	a5,44(s0)
 1702 0098 E5DB     		beq	a5,zero,.L172
 952:C:/Users/stapi/OneDrive/Desktop/GD32VW553/GD32VW55X_Wifi_BLE_SDK/GD32VW55x_RELEASE_V1.0.2/MSDK/lwip/lwip-2.1.2/port\wifi_netif.c ****     }
 1703              		.loc 1 952 9 discriminator 1
 1704 009a 03D68900 		lhu	a2,8(s3)
 1705 009e 8145     		li	a1,0
 1706 00a0 2285     		mv	a0,s0
 1707 00a2 8297     		jalr	a5
 1708              	.LVL187:
 1709 00a4 D5B7     		j	.L172
 1710              		.cfi_endproc
 1711              	.LFE42:
 1713              		.section	.text.net_dhcp_start,"ax",@progbits
 1714              		.align	1
 1715              		.globl	net_dhcp_start
 1717              	net_dhcp_start:
 1718              	.LFB43:
 957:C:/Users/stapi/OneDrive/Desktop/GD32VW553/GD32VW55X_Wifi_BLE_SDK/GD32VW55x_RELEASE_V1.0.2/MSDK/lwip/lwip-2.1.2/port\wifi_netif.c **** #else /* CONFIG_WPA_SUPPLICANT */
 958:C:/Users/stapi/OneDrive/Desktop/GD32VW553/GD32VW55X_Wifi_BLE_SDK/GD32VW55x_RELEASE_V1.0.2/MSDK/lwip/lwip-2.1.2/port\wifi_netif.c **** extern int wifi_wpa_rx_eapol_event(void *wvif, uint16_t type, uint8_t *data, uint32_t len);
 959:C:/Users/stapi/OneDrive/Desktop/GD32VW553/GD32VW55X_Wifi_BLE_SDK/GD32VW55x_RELEASE_V1.0.2/MSDK/lwip/lwip-2.1.2/port\wifi_netif.c **** /*!
 960:C:/Users/stapi/OneDrive/Desktop/GD32VW553/GD32VW55X_Wifi_BLE_SDK/GD32VW55x_RELEASE_V1.0.2/MSDK/lwip/lwip-2.1.2/port\wifi_netif.c ****     \brief      LWIP hook to process ethernet packet not supported.
 961:C:/Users/stapi/OneDrive/Desktop/GD32VW553/GD32VW55X_Wifi_BLE_SDK/GD32VW55x_RELEASE_V1.0.2/MSDK/lwip/lwip-2.1.2/port\wifi_netif.c ****                 Check if a socket has been created for this (netif, ethertype) couple.
 962:C:/Users/stapi/OneDrive/Desktop/GD32VW553/GD32VW55X_Wifi_BLE_SDK/GD32VW55x_RELEASE_V1.0.2/MSDK/lwip/lwip-2.1.2/port\wifi_netif.c ****                 If so push the buffer in the socket buffer list. (no buffer copy is done)
 963:C:/Users/stapi/OneDrive/Desktop/GD32VW553/GD32VW55X_Wifi_BLE_SDK/GD32VW55x_RELEASE_V1.0.2/MSDK/lwip/lwip-2.1.2/port\wifi_netif.c ****     \param[in]  pbuf: Buffer containing the ethernet frame
 964:C:/Users/stapi/OneDrive/Desktop/GD32VW553/GD32VW55X_Wifi_BLE_SDK/GD32VW55x_RELEASE_V1.0.2/MSDK/lwip/lwip-2.1.2/port\wifi_netif.c ****     \param[in]  net_if: Pointer to the network interface that received the frame
 965:C:/Users/stapi/OneDrive/Desktop/GD32VW553/GD32VW55X_Wifi_BLE_SDK/GD32VW55x_RELEASE_V1.0.2/MSDK/lwip/lwip-2.1.2/port\wifi_netif.c ****     \param[out] none
 966:C:/Users/stapi/OneDrive/Desktop/GD32VW553/GD32VW55X_Wifi_BLE_SDK/GD32VW55x_RELEASE_V1.0.2/MSDK/lwip/lwip-2.1.2/port\wifi_netif.c ****     \retval     ERR_OK if a L2 socket exist for this frame and buffer has been successfully
 967:C:/Users/stapi/OneDrive/Desktop/GD32VW553/GD32VW55X_Wifi_BLE_SDK/GD32VW55x_RELEASE_V1.0.2/MSDK/lwip/lwip-2.1.2/port\wifi_netif.c ****                 pushed, ERR_MEM/ERR_VAL otherwise.
 968:C:/Users/stapi/OneDrive/Desktop/GD32VW553/GD32VW55X_Wifi_BLE_SDK/GD32VW55x_RELEASE_V1.0.2/MSDK/lwip/lwip-2.1.2/port\wifi_netif.c **** */
 969:C:/Users/stapi/OneDrive/Desktop/GD32VW553/GD32VW55X_Wifi_BLE_SDK/GD32VW55x_RELEASE_V1.0.2/MSDK/lwip/lwip-2.1.2/port\wifi_netif.c **** err_t net_eth_receive(struct pbuf *pbuf, void *net_if)
 970:C:/Users/stapi/OneDrive/Desktop/GD32VW553/GD32VW55X_Wifi_BLE_SDK/GD32VW55x_RELEASE_V1.0.2/MSDK/lwip/lwip-2.1.2/port\wifi_netif.c **** {
 971:C:/Users/stapi/OneDrive/Desktop/GD32VW553/GD32VW55X_Wifi_BLE_SDK/GD32VW55x_RELEASE_V1.0.2/MSDK/lwip/lwip-2.1.2/port\wifi_netif.c ****     struct eth_hdr* ethhdr = pbuf->payload;
 972:C:/Users/stapi/OneDrive/Desktop/GD32VW553/GD32VW55X_Wifi_BLE_SDK/GD32VW55x_RELEASE_V1.0.2/MSDK/lwip/lwip-2.1.2/port\wifi_netif.c ****     void *wvif = ((struct netif *)net_if)->state;
 973:C:/Users/stapi/OneDrive/Desktop/GD32VW553/GD32VW55X_Wifi_BLE_SDK/GD32VW55x_RELEASE_V1.0.2/MSDK/lwip/lwip-2.1.2/port\wifi_netif.c **** 
 974:C:/Users/stapi/OneDrive/Desktop/GD32VW553/GD32VW55X_Wifi_BLE_SDK/GD32VW55x_RELEASE_V1.0.2/MSDK/lwip/lwip-2.1.2/port\wifi_netif.c ****     if (NULL == wvif) {
 975:C:/Users/stapi/OneDrive/Desktop/GD32VW553/GD32VW55X_Wifi_BLE_SDK/GD32VW55x_RELEASE_V1.0.2/MSDK/lwip/lwip-2.1.2/port\wifi_netif.c ****         goto Exit;
 976:C:/Users/stapi/OneDrive/Desktop/GD32VW553/GD32VW55X_Wifi_BLE_SDK/GD32VW55x_RELEASE_V1.0.2/MSDK/lwip/lwip-2.1.2/port\wifi_netif.c ****     }
 977:C:/Users/stapi/OneDrive/Desktop/GD32VW553/GD32VW55X_Wifi_BLE_SDK/GD32VW55x_RELEASE_V1.0.2/MSDK/lwip/lwip-2.1.2/port\wifi_netif.c ****     wifi_wpa_rx_eapol_event(wvif, ntohs(ethhdr->type), pbuf->payload, pbuf->tot_len);
 978:C:/Users/stapi/OneDrive/Desktop/GD32VW553/GD32VW55X_Wifi_BLE_SDK/GD32VW55x_RELEASE_V1.0.2/MSDK/lwip/lwip-2.1.2/port\wifi_netif.c **** Exit:
 979:C:/Users/stapi/OneDrive/Desktop/GD32VW553/GD32VW55X_Wifi_BLE_SDK/GD32VW55x_RELEASE_V1.0.2/MSDK/lwip/lwip-2.1.2/port\wifi_netif.c ****     pbuf_free(pbuf);
 980:C:/Users/stapi/OneDrive/Desktop/GD32VW553/GD32VW55X_Wifi_BLE_SDK/GD32VW55x_RELEASE_V1.0.2/MSDK/lwip/lwip-2.1.2/port\wifi_netif.c ****     return ERR_OK;
 981:C:/Users/stapi/OneDrive/Desktop/GD32VW553/GD32VW55X_Wifi_BLE_SDK/GD32VW55x_RELEASE_V1.0.2/MSDK/lwip/lwip-2.1.2/port\wifi_netif.c **** }
 982:C:/Users/stapi/OneDrive/Desktop/GD32VW553/GD32VW55X_Wifi_BLE_SDK/GD32VW55x_RELEASE_V1.0.2/MSDK/lwip/lwip-2.1.2/port\wifi_netif.c **** #endif /* CONFIG_WPA_SUPPLICANT */
 983:C:/Users/stapi/OneDrive/Desktop/GD32VW553/GD32VW55X_Wifi_BLE_SDK/GD32VW55x_RELEASE_V1.0.2/MSDK/lwip/lwip-2.1.2/port\wifi_netif.c **** 
 984:C:/Users/stapi/OneDrive/Desktop/GD32VW553/GD32VW55X_Wifi_BLE_SDK/GD32VW55x_RELEASE_V1.0.2/MSDK/lwip/lwip-2.1.2/port\wifi_netif.c **** /*!
 985:C:/Users/stapi/OneDrive/Desktop/GD32VW553/GD32VW55X_Wifi_BLE_SDK/GD32VW55x_RELEASE_V1.0.2/MSDK/lwip/lwip-2.1.2/port\wifi_netif.c ****     \brief      Start DHCP procedure on a given interface
 986:C:/Users/stapi/OneDrive/Desktop/GD32VW553/GD32VW55X_Wifi_BLE_SDK/GD32VW55x_RELEASE_V1.0.2/MSDK/lwip/lwip-2.1.2/port\wifi_netif.c ****     \param[in]  net_if: Pointer to the interface on which DHCP must be started
 987:C:/Users/stapi/OneDrive/Desktop/GD32VW553/GD32VW55X_Wifi_BLE_SDK/GD32VW55x_RELEASE_V1.0.2/MSDK/lwip/lwip-2.1.2/port\wifi_netif.c ****     \param[out] none
 988:C:/Users/stapi/OneDrive/Desktop/GD32VW553/GD32VW55X_Wifi_BLE_SDK/GD32VW55x_RELEASE_V1.0.2/MSDK/lwip/lwip-2.1.2/port\wifi_netif.c ****     \retval     0 if DHCP procedure successfully started and != 0 if an error occurred
 989:C:/Users/stapi/OneDrive/Desktop/GD32VW553/GD32VW55X_Wifi_BLE_SDK/GD32VW55x_RELEASE_V1.0.2/MSDK/lwip/lwip-2.1.2/port\wifi_netif.c **** */
 990:C:/Users/stapi/OneDrive/Desktop/GD32VW553/GD32VW55X_Wifi_BLE_SDK/GD32VW55x_RELEASE_V1.0.2/MSDK/lwip/lwip-2.1.2/port\wifi_netif.c **** int net_dhcp_start(void *net_if)
 991:C:/Users/stapi/OneDrive/Desktop/GD32VW553/GD32VW55X_Wifi_BLE_SDK/GD32VW55x_RELEASE_V1.0.2/MSDK/lwip/lwip-2.1.2/port\wifi_netif.c **** {
 1719              		.loc 1 991 1
 1720              		.cfi_startproc
 1721              	.LVL188:
 1722 0000 17030000 		call	t0,__riscv_save_0
 1722      E7020300 
 1723              		.cfi_offset 1, -4
 1724              		.cfi_def_cfa_offset 16
 992:C:/Users/stapi/OneDrive/Desktop/GD32VW553/GD32VW55X_Wifi_BLE_SDK/GD32VW55x_RELEASE_V1.0.2/MSDK/lwip/lwip-2.1.2/port\wifi_netif.c ****     #if LWIP_IPV4 && LWIP_DHCP
 993:C:/Users/stapi/OneDrive/Desktop/GD32VW553/GD32VW55X_Wifi_BLE_SDK/GD32VW55x_RELEASE_V1.0.2/MSDK/lwip/lwip-2.1.2/port\wifi_netif.c ****     struct netif *netif = (struct netif *)net_if;
 1725              		.loc 1 993 5
 1726              	.LVL189:
 994:C:/Users/stapi/OneDrive/Desktop/GD32VW553/GD32VW55X_Wifi_BLE_SDK/GD32VW55x_RELEASE_V1.0.2/MSDK/lwip/lwip-2.1.2/port\wifi_netif.c ****     if (netifapi_dhcp_start(netif) ==  ERR_OK)
 1727              		.loc 1 994 5
 1728              		.loc 1 994 9 is_stmt 0
 1729 0008 37060000 		lui	a2,%hi(dhcp_start)
 1730 000c 13060600 		addi	a2,a2,%lo(dhcp_start)
 1731 0010 8145     		li	a1,0
 1732 0012 97000000 		call	netifapi_netif_common
 1732      E7800000 
 1733              	.LVL190:
 1734              		.loc 1 994 8
 1735 001a 3335A000 		snez	a0,a0
 995:C:/Users/stapi/OneDrive/Desktop/GD32VW553/GD32VW55X_Wifi_BLE_SDK/GD32VW55x_RELEASE_V1.0.2/MSDK/lwip/lwip-2.1.2/port\wifi_netif.c ****         return 0;
 996:C:/Users/stapi/OneDrive/Desktop/GD32VW553/GD32VW55X_Wifi_BLE_SDK/GD32VW55x_RELEASE_V1.0.2/MSDK/lwip/lwip-2.1.2/port\wifi_netif.c ****     #endif //LWIP_IPV4 && LWIP_DHCP
 997:C:/Users/stapi/OneDrive/Desktop/GD32VW553/GD32VW55X_Wifi_BLE_SDK/GD32VW55x_RELEASE_V1.0.2/MSDK/lwip/lwip-2.1.2/port\wifi_netif.c ****     return -1;
 998:C:/Users/stapi/OneDrive/Desktop/GD32VW553/GD32VW55X_Wifi_BLE_SDK/GD32VW55x_RELEASE_V1.0.2/MSDK/lwip/lwip-2.1.2/port\wifi_netif.c **** }
 1736              		.loc 1 998 1
 1737 001e 3305A040 		neg	a0,a0
 1738 0022 17030000 		tail	__riscv_restore_0
 1738      67000300 
 1739              		.cfi_restore 1
 1740              		.cfi_def_cfa_offset 0
 1741              		.cfi_endproc
 1742              	.LFE43:
 1744              		.section	.text.net_dhcp_stop,"ax",@progbits
 1745              		.align	1
 1746              		.globl	net_dhcp_stop
 1748              	net_dhcp_stop:
 1749              	.LFB44:
 999:C:/Users/stapi/OneDrive/Desktop/GD32VW553/GD32VW55X_Wifi_BLE_SDK/GD32VW55x_RELEASE_V1.0.2/MSDK/lwip/lwip-2.1.2/port\wifi_netif.c **** 
1000:C:/Users/stapi/OneDrive/Desktop/GD32VW553/GD32VW55X_Wifi_BLE_SDK/GD32VW55x_RELEASE_V1.0.2/MSDK/lwip/lwip-2.1.2/port\wifi_netif.c **** /*!
1001:C:/Users/stapi/OneDrive/Desktop/GD32VW553/GD32VW55X_Wifi_BLE_SDK/GD32VW55x_RELEASE_V1.0.2/MSDK/lwip/lwip-2.1.2/port\wifi_netif.c ****     \brief      Stop DHCP procedure on a given interface
1002:C:/Users/stapi/OneDrive/Desktop/GD32VW553/GD32VW55X_Wifi_BLE_SDK/GD32VW55x_RELEASE_V1.0.2/MSDK/lwip/lwip-2.1.2/port\wifi_netif.c ****     \param[in]  net_if: Pointer to the interface on which DHCP must be stopped
1003:C:/Users/stapi/OneDrive/Desktop/GD32VW553/GD32VW55X_Wifi_BLE_SDK/GD32VW55x_RELEASE_V1.0.2/MSDK/lwip/lwip-2.1.2/port\wifi_netif.c ****     \param[out] none
1004:C:/Users/stapi/OneDrive/Desktop/GD32VW553/GD32VW55X_Wifi_BLE_SDK/GD32VW55x_RELEASE_V1.0.2/MSDK/lwip/lwip-2.1.2/port\wifi_netif.c ****     \retval     none
1005:C:/Users/stapi/OneDrive/Desktop/GD32VW553/GD32VW55X_Wifi_BLE_SDK/GD32VW55x_RELEASE_V1.0.2/MSDK/lwip/lwip-2.1.2/port\wifi_netif.c **** */
1006:C:/Users/stapi/OneDrive/Desktop/GD32VW553/GD32VW55X_Wifi_BLE_SDK/GD32VW55x_RELEASE_V1.0.2/MSDK/lwip/lwip-2.1.2/port\wifi_netif.c **** void net_dhcp_stop(void *net_if)
1007:C:/Users/stapi/OneDrive/Desktop/GD32VW553/GD32VW55X_Wifi_BLE_SDK/GD32VW55x_RELEASE_V1.0.2/MSDK/lwip/lwip-2.1.2/port\wifi_netif.c **** {
 1750              		.loc 1 1007 1 is_stmt 1
 1751              		.cfi_startproc
 1752              	.LVL191:
1008:C:/Users/stapi/OneDrive/Desktop/GD32VW553/GD32VW55X_Wifi_BLE_SDK/GD32VW55x_RELEASE_V1.0.2/MSDK/lwip/lwip-2.1.2/port\wifi_netif.c ****     #if LWIP_IPV4 && LWIP_DHCP
1009:C:/Users/stapi/OneDrive/Desktop/GD32VW553/GD32VW55X_Wifi_BLE_SDK/GD32VW55x_RELEASE_V1.0.2/MSDK/lwip/lwip-2.1.2/port\wifi_netif.c ****     struct netif *netif = (struct netif *)net_if;
 1753              		.loc 1 1009 5
1010:C:/Users/stapi/OneDrive/Desktop/GD32VW553/GD32VW55X_Wifi_BLE_SDK/GD32VW55x_RELEASE_V1.0.2/MSDK/lwip/lwip-2.1.2/port\wifi_netif.c ****     netifapi_dhcp_stop(netif);
 1754              		.loc 1 1010 5
 1755 0000 B7050000 		lui	a1,%hi(dhcp_stop)
 1756 0004 0146     		li	a2,0
 1757 0006 93850500 		addi	a1,a1,%lo(dhcp_stop)
 1758 000a 17030000 		tail	netifapi_netif_common
 1758      67000300 
 1759              	.LVL192:
 1760              		.cfi_endproc
 1761              	.LFE44:
 1763              		.section	.text.net_dhcp_release,"ax",@progbits
 1764              		.align	1
 1765              		.globl	net_dhcp_release
 1767              	net_dhcp_release:
 1768              	.LFB45:
1011:C:/Users/stapi/OneDrive/Desktop/GD32VW553/GD32VW55X_Wifi_BLE_SDK/GD32VW55x_RELEASE_V1.0.2/MSDK/lwip/lwip-2.1.2/port\wifi_netif.c ****     #endif //LWIP_IPV4 && LWIP_DHCP
1012:C:/Users/stapi/OneDrive/Desktop/GD32VW553/GD32VW55X_Wifi_BLE_SDK/GD32VW55x_RELEASE_V1.0.2/MSDK/lwip/lwip-2.1.2/port\wifi_netif.c **** }
1013:C:/Users/stapi/OneDrive/Desktop/GD32VW553/GD32VW55X_Wifi_BLE_SDK/GD32VW55x_RELEASE_V1.0.2/MSDK/lwip/lwip-2.1.2/port\wifi_netif.c **** 
1014:C:/Users/stapi/OneDrive/Desktop/GD32VW553/GD32VW55X_Wifi_BLE_SDK/GD32VW55x_RELEASE_V1.0.2/MSDK/lwip/lwip-2.1.2/port\wifi_netif.c **** /*!
1015:C:/Users/stapi/OneDrive/Desktop/GD32VW553/GD32VW55X_Wifi_BLE_SDK/GD32VW55x_RELEASE_V1.0.2/MSDK/lwip/lwip-2.1.2/port\wifi_netif.c ****     \brief      Release DHCP lease on a given interface
1016:C:/Users/stapi/OneDrive/Desktop/GD32VW553/GD32VW55X_Wifi_BLE_SDK/GD32VW55x_RELEASE_V1.0.2/MSDK/lwip/lwip-2.1.2/port\wifi_netif.c ****     \param[in]  net_if: Pointer to the interface on which DHCP must be released
1017:C:/Users/stapi/OneDrive/Desktop/GD32VW553/GD32VW55X_Wifi_BLE_SDK/GD32VW55x_RELEASE_V1.0.2/MSDK/lwip/lwip-2.1.2/port\wifi_netif.c ****     \param[out] none
1018:C:/Users/stapi/OneDrive/Desktop/GD32VW553/GD32VW55X_Wifi_BLE_SDK/GD32VW55x_RELEASE_V1.0.2/MSDK/lwip/lwip-2.1.2/port\wifi_netif.c ****     \retval     0 if DHCP lease has been released and != 0 if an error occurred
1019:C:/Users/stapi/OneDrive/Desktop/GD32VW553/GD32VW55X_Wifi_BLE_SDK/GD32VW55x_RELEASE_V1.0.2/MSDK/lwip/lwip-2.1.2/port\wifi_netif.c **** */
1020:C:/Users/stapi/OneDrive/Desktop/GD32VW553/GD32VW55X_Wifi_BLE_SDK/GD32VW55x_RELEASE_V1.0.2/MSDK/lwip/lwip-2.1.2/port\wifi_netif.c **** int net_dhcp_release(void *net_if)
1021:C:/Users/stapi/OneDrive/Desktop/GD32VW553/GD32VW55X_Wifi_BLE_SDK/GD32VW55x_RELEASE_V1.0.2/MSDK/lwip/lwip-2.1.2/port\wifi_netif.c **** {
 1769              		.loc 1 1021 1
 1770              		.cfi_startproc
 1771              	.LVL193:
 1772 0000 17030000 		call	t0,__riscv_save_0
 1772      E7020300 
 1773              		.cfi_offset 1, -4
 1774              		.cfi_def_cfa_offset 16
1022:C:/Users/stapi/OneDrive/Desktop/GD32VW553/GD32VW55X_Wifi_BLE_SDK/GD32VW55x_RELEASE_V1.0.2/MSDK/lwip/lwip-2.1.2/port\wifi_netif.c ****     #if LWIP_IPV4 && LWIP_DHCP
1023:C:/Users/stapi/OneDrive/Desktop/GD32VW553/GD32VW55X_Wifi_BLE_SDK/GD32VW55x_RELEASE_V1.0.2/MSDK/lwip/lwip-2.1.2/port\wifi_netif.c ****     struct netif *netif = (struct netif *)net_if;
 1775              		.loc 1 1023 5
 1776              	.LVL194:
1024:C:/Users/stapi/OneDrive/Desktop/GD32VW553/GD32VW55X_Wifi_BLE_SDK/GD32VW55x_RELEASE_V1.0.2/MSDK/lwip/lwip-2.1.2/port\wifi_netif.c ****     if (netifapi_dhcp_release(netif) ==  ERR_OK)
 1777              		.loc 1 1024 5
 1778              		.loc 1 1024 9 is_stmt 0
 1779 0008 37060000 		lui	a2,%hi(dhcp_release)
 1780 000c 13060600 		addi	a2,a2,%lo(dhcp_release)
 1781 0010 8145     		li	a1,0
 1782 0012 97000000 		call	netifapi_netif_common
 1782      E7800000 
 1783              	.LVL195:
 1784              		.loc 1 1024 8
 1785 001a 3335A000 		snez	a0,a0
1025:C:/Users/stapi/OneDrive/Desktop/GD32VW553/GD32VW55X_Wifi_BLE_SDK/GD32VW55x_RELEASE_V1.0.2/MSDK/lwip/lwip-2.1.2/port\wifi_netif.c ****         return 0;
1026:C:/Users/stapi/OneDrive/Desktop/GD32VW553/GD32VW55X_Wifi_BLE_SDK/GD32VW55x_RELEASE_V1.0.2/MSDK/lwip/lwip-2.1.2/port\wifi_netif.c ****     #endif //LWIP_IPV4 && LWIP_DHCP
1027:C:/Users/stapi/OneDrive/Desktop/GD32VW553/GD32VW55X_Wifi_BLE_SDK/GD32VW55x_RELEASE_V1.0.2/MSDK/lwip/lwip-2.1.2/port\wifi_netif.c ****     return -1;
1028:C:/Users/stapi/OneDrive/Desktop/GD32VW553/GD32VW55X_Wifi_BLE_SDK/GD32VW55x_RELEASE_V1.0.2/MSDK/lwip/lwip-2.1.2/port\wifi_netif.c **** }
 1786              		.loc 1 1028 1
 1787 001e 3305A040 		neg	a0,a0
 1788 0022 17030000 		tail	__riscv_restore_0
 1788      67000300 
 1789              		.cfi_restore 1
 1790              		.cfi_def_cfa_offset 0
 1791              		.cfi_endproc
 1792              	.LFE45:
 1794              		.section	.text.net_dhcp_address_obtained,"ax",@progbits
 1795              		.align	1
 1796              		.globl	net_dhcp_address_obtained
 1798              	net_dhcp_address_obtained:
 1799              	.LFB46:
1029:C:/Users/stapi/OneDrive/Desktop/GD32VW553/GD32VW55X_Wifi_BLE_SDK/GD32VW55x_RELEASE_V1.0.2/MSDK/lwip/lwip-2.1.2/port\wifi_netif.c **** 
1030:C:/Users/stapi/OneDrive/Desktop/GD32VW553/GD32VW55X_Wifi_BLE_SDK/GD32VW55x_RELEASE_V1.0.2/MSDK/lwip/lwip-2.1.2/port\wifi_netif.c **** /*!
1031:C:/Users/stapi/OneDrive/Desktop/GD32VW553/GD32VW55X_Wifi_BLE_SDK/GD32VW55x_RELEASE_V1.0.2/MSDK/lwip/lwip-2.1.2/port\wifi_netif.c ****     \brief      Check if an IP has been assigned with DHCP
1032:C:/Users/stapi/OneDrive/Desktop/GD32VW553/GD32VW55X_Wifi_BLE_SDK/GD32VW55x_RELEASE_V1.0.2/MSDK/lwip/lwip-2.1.2/port\wifi_netif.c ****     \param[in]  net_if: Pointer to the interface to test
1033:C:/Users/stapi/OneDrive/Desktop/GD32VW553/GD32VW55X_Wifi_BLE_SDK/GD32VW55x_RELEASE_V1.0.2/MSDK/lwip/lwip-2.1.2/port\wifi_netif.c ****     \param[out] none
1034:C:/Users/stapi/OneDrive/Desktop/GD32VW553/GD32VW55X_Wifi_BLE_SDK/GD32VW55x_RELEASE_V1.0.2/MSDK/lwip/lwip-2.1.2/port\wifi_netif.c ****     \retval     1 if ip address assigned to the interface has been obtained via DHCP and 0 otherwis
1035:C:/Users/stapi/OneDrive/Desktop/GD32VW553/GD32VW55X_Wifi_BLE_SDK/GD32VW55x_RELEASE_V1.0.2/MSDK/lwip/lwip-2.1.2/port\wifi_netif.c **** */
1036:C:/Users/stapi/OneDrive/Desktop/GD32VW553/GD32VW55X_Wifi_BLE_SDK/GD32VW55x_RELEASE_V1.0.2/MSDK/lwip/lwip-2.1.2/port\wifi_netif.c **** bool net_dhcp_address_obtained(void *net_if)
1037:C:/Users/stapi/OneDrive/Desktop/GD32VW553/GD32VW55X_Wifi_BLE_SDK/GD32VW55x_RELEASE_V1.0.2/MSDK/lwip/lwip-2.1.2/port\wifi_netif.c **** {
 1800              		.loc 1 1037 1 is_stmt 1
 1801              		.cfi_startproc
 1802              	.LVL196:
 1803 0000 17030000 		call	t0,__riscv_save_0
 1803      E7020300 
 1804              		.cfi_offset 1, -4
 1805              		.cfi_def_cfa_offset 16
1038:C:/Users/stapi/OneDrive/Desktop/GD32VW553/GD32VW55X_Wifi_BLE_SDK/GD32VW55x_RELEASE_V1.0.2/MSDK/lwip/lwip-2.1.2/port\wifi_netif.c ****     #if LWIP_IPV4 && LWIP_DHCP
1039:C:/Users/stapi/OneDrive/Desktop/GD32VW553/GD32VW55X_Wifi_BLE_SDK/GD32VW55x_RELEASE_V1.0.2/MSDK/lwip/lwip-2.1.2/port\wifi_netif.c ****     struct netif *netif = (struct netif *)net_if;
 1806              		.loc 1 1039 5
 1807              	.LVL197:
1040:C:/Users/stapi/OneDrive/Desktop/GD32VW553/GD32VW55X_Wifi_BLE_SDK/GD32VW55x_RELEASE_V1.0.2/MSDK/lwip/lwip-2.1.2/port\wifi_netif.c ****     if (dhcp_supplied_address(netif))
 1808              		.loc 1 1040 5
 1809              		.loc 1 1040 9 is_stmt 0
 1810 0008 97000000 		call	dhcp_supplied_address
 1810      E7800000 
 1811              	.LVL198:
1041:C:/Users/stapi/OneDrive/Desktop/GD32VW553/GD32VW55X_Wifi_BLE_SDK/GD32VW55x_RELEASE_V1.0.2/MSDK/lwip/lwip-2.1.2/port\wifi_netif.c ****         return true;
1042:C:/Users/stapi/OneDrive/Desktop/GD32VW553/GD32VW55X_Wifi_BLE_SDK/GD32VW55x_RELEASE_V1.0.2/MSDK/lwip/lwip-2.1.2/port\wifi_netif.c ****     #endif //LWIP_IPV4 && LWIP_DHCP
1043:C:/Users/stapi/OneDrive/Desktop/GD32VW553/GD32VW55X_Wifi_BLE_SDK/GD32VW55x_RELEASE_V1.0.2/MSDK/lwip/lwip-2.1.2/port\wifi_netif.c ****     return false;
1044:C:/Users/stapi/OneDrive/Desktop/GD32VW553/GD32VW55X_Wifi_BLE_SDK/GD32VW55x_RELEASE_V1.0.2/MSDK/lwip/lwip-2.1.2/port\wifi_netif.c **** }
 1812              		.loc 1 1044 1
 1813 0010 3335A000 		snez	a0,a0
 1814 0014 17030000 		tail	__riscv_restore_0
 1814      67000300 
 1815              		.cfi_restore 1
 1816              		.cfi_def_cfa_offset 0
 1817              		.cfi_endproc
 1818              	.LFE46:
 1820              		.section	.text.net_dhcpd_start,"ax",@progbits
 1821              		.align	1
 1822              		.globl	net_dhcpd_start
 1824              	net_dhcpd_start:
 1825              	.LFB47:
1045:C:/Users/stapi/OneDrive/Desktop/GD32VW553/GD32VW55X_Wifi_BLE_SDK/GD32VW55x_RELEASE_V1.0.2/MSDK/lwip/lwip-2.1.2/port\wifi_netif.c **** 
1046:C:/Users/stapi/OneDrive/Desktop/GD32VW553/GD32VW55X_Wifi_BLE_SDK/GD32VW55x_RELEASE_V1.0.2/MSDK/lwip/lwip-2.1.2/port\wifi_netif.c **** /*!
1047:C:/Users/stapi/OneDrive/Desktop/GD32VW553/GD32VW55X_Wifi_BLE_SDK/GD32VW55x_RELEASE_V1.0.2/MSDK/lwip/lwip-2.1.2/port\wifi_netif.c ****     \brief      Start DHCPD procedure on a given interface
1048:C:/Users/stapi/OneDrive/Desktop/GD32VW553/GD32VW55X_Wifi_BLE_SDK/GD32VW55x_RELEASE_V1.0.2/MSDK/lwip/lwip-2.1.2/port\wifi_netif.c ****     \param[in]  net_if: Pointer to the interface on which DHCPD must be started
1049:C:/Users/stapi/OneDrive/Desktop/GD32VW553/GD32VW55X_Wifi_BLE_SDK/GD32VW55x_RELEASE_V1.0.2/MSDK/lwip/lwip-2.1.2/port\wifi_netif.c ****     \param[out] none
1050:C:/Users/stapi/OneDrive/Desktop/GD32VW553/GD32VW55X_Wifi_BLE_SDK/GD32VW55x_RELEASE_V1.0.2/MSDK/lwip/lwip-2.1.2/port\wifi_netif.c ****     \retval     0 if DHCPD procedure successfully started and != 0 if an error occurred
1051:C:/Users/stapi/OneDrive/Desktop/GD32VW553/GD32VW55X_Wifi_BLE_SDK/GD32VW55x_RELEASE_V1.0.2/MSDK/lwip/lwip-2.1.2/port\wifi_netif.c **** */
1052:C:/Users/stapi/OneDrive/Desktop/GD32VW553/GD32VW55X_Wifi_BLE_SDK/GD32VW55x_RELEASE_V1.0.2/MSDK/lwip/lwip-2.1.2/port\wifi_netif.c **** int net_dhcpd_start(void *net_if)
1053:C:/Users/stapi/OneDrive/Desktop/GD32VW553/GD32VW55X_Wifi_BLE_SDK/GD32VW55x_RELEASE_V1.0.2/MSDK/lwip/lwip-2.1.2/port\wifi_netif.c **** {
 1826              		.loc 1 1053 1 is_stmt 1
 1827              		.cfi_startproc
 1828              	.LVL199:
 1829 0000 17030000 		call	t0,__riscv_save_2
 1829      E7020300 
 1830              		.cfi_offset 9, -12
 1831              		.cfi_offset 8, -8
 1832              		.cfi_offset 1, -4
 1833              		.cfi_def_cfa_offset 16
1054:C:/Users/stapi/OneDrive/Desktop/GD32VW553/GD32VW55X_Wifi_BLE_SDK/GD32VW55x_RELEASE_V1.0.2/MSDK/lwip/lwip-2.1.2/port\wifi_netif.c ****     struct netif *netif = (struct netif *)net_if;
 1834              		.loc 1 1054 5
 1835              	.LVL200:
1055:C:/Users/stapi/OneDrive/Desktop/GD32VW553/GD32VW55X_Wifi_BLE_SDK/GD32VW55x_RELEASE_V1.0.2/MSDK/lwip/lwip-2.1.2/port\wifi_netif.c **** 
1056:C:/Users/stapi/OneDrive/Desktop/GD32VW553/GD32VW55X_Wifi_BLE_SDK/GD32VW55x_RELEASE_V1.0.2/MSDK/lwip/lwip-2.1.2/port\wifi_netif.c ****     if (!netif)
 1836              		.loc 1 1056 5
1057:C:/Users/stapi/OneDrive/Desktop/GD32VW553/GD32VW55X_Wifi_BLE_SDK/GD32VW55x_RELEASE_V1.0.2/MSDK/lwip/lwip-2.1.2/port\wifi_netif.c ****         return -1;
 1837              		.loc 1 1057 16 is_stmt 0
 1838 0008 FD54     		li	s1,-1
1056:C:/Users/stapi/OneDrive/Desktop/GD32VW553/GD32VW55X_Wifi_BLE_SDK/GD32VW55x_RELEASE_V1.0.2/MSDK/lwip/lwip-2.1.2/port\wifi_netif.c ****         return -1;
 1839              		.loc 1 1056 8
 1840 000a 05C1     		beq	a0,zero,.L190
1058:C:/Users/stapi/OneDrive/Desktop/GD32VW553/GD32VW55X_Wifi_BLE_SDK/GD32VW55x_RELEASE_V1.0.2/MSDK/lwip/lwip-2.1.2/port\wifi_netif.c **** 
1059:C:/Users/stapi/OneDrive/Desktop/GD32VW553/GD32VW55X_Wifi_BLE_SDK/GD32VW55x_RELEASE_V1.0.2/MSDK/lwip/lwip-2.1.2/port\wifi_netif.c ****     #if LWIP_IPV4 && LWIP_DHCPD
1060:C:/Users/stapi/OneDrive/Desktop/GD32VW553/GD32VW55X_Wifi_BLE_SDK/GD32VW55x_RELEASE_V1.0.2/MSDK/lwip/lwip-2.1.2/port\wifi_netif.c ****     if (!ap_dhcpd_started) {
 1841              		.loc 1 1060 5 is_stmt 1
 1842              		.loc 1 1060 9 is_stmt 0
 1843 000c 37040000 		lui	s0,%hi(.LANCHOR3)
 1844 0010 13040400 		addi	s0,s0,%lo(.LANCHOR3)
 1845              		.loc 1 1060 8
 1846 0014 83470400 		lbu	a5,0(s0)
1061:C:/Users/stapi/OneDrive/Desktop/GD32VW553/GD32VW55X_Wifi_BLE_SDK/GD32VW55x_RELEASE_V1.0.2/MSDK/lwip/lwip-2.1.2/port\wifi_netif.c ****         dhcpd_daemon(netif);
1062:C:/Users/stapi/OneDrive/Desktop/GD32VW553/GD32VW55X_Wifi_BLE_SDK/GD32VW55x_RELEASE_V1.0.2/MSDK/lwip/lwip-2.1.2/port\wifi_netif.c ****         ap_dhcpd_started = 1;
1063:C:/Users/stapi/OneDrive/Desktop/GD32VW553/GD32VW55X_Wifi_BLE_SDK/GD32VW55x_RELEASE_V1.0.2/MSDK/lwip/lwip-2.1.2/port\wifi_netif.c ****     }
1064:C:/Users/stapi/OneDrive/Desktop/GD32VW553/GD32VW55X_Wifi_BLE_SDK/GD32VW55x_RELEASE_V1.0.2/MSDK/lwip/lwip-2.1.2/port\wifi_netif.c ****     return 0;
 1847              		.loc 1 1064 12
 1848 0018 8144     		li	s1,0
1060:C:/Users/stapi/OneDrive/Desktop/GD32VW553/GD32VW55X_Wifi_BLE_SDK/GD32VW55x_RELEASE_V1.0.2/MSDK/lwip/lwip-2.1.2/port\wifi_netif.c ****         dhcpd_daemon(netif);
 1849              		.loc 1 1060 8
 1850 001a 81EB     		bne	a5,zero,.L190
1061:C:/Users/stapi/OneDrive/Desktop/GD32VW553/GD32VW55X_Wifi_BLE_SDK/GD32VW55x_RELEASE_V1.0.2/MSDK/lwip/lwip-2.1.2/port\wifi_netif.c ****         dhcpd_daemon(netif);
 1851              		.loc 1 1061 9 is_stmt 1
 1852 001c 97000000 		call	dhcpd_daemon
 1852      E7800000 
 1853              	.LVL201:
1062:C:/Users/stapi/OneDrive/Desktop/GD32VW553/GD32VW55X_Wifi_BLE_SDK/GD32VW55x_RELEASE_V1.0.2/MSDK/lwip/lwip-2.1.2/port\wifi_netif.c ****     }
 1854              		.loc 1 1062 9
1062:C:/Users/stapi/OneDrive/Desktop/GD32VW553/GD32VW55X_Wifi_BLE_SDK/GD32VW55x_RELEASE_V1.0.2/MSDK/lwip/lwip-2.1.2/port\wifi_netif.c ****     }
 1855              		.loc 1 1062 26 is_stmt 0
 1856 0024 8547     		li	a5,1
 1857 0026 2300F400 		sb	a5,0(s0)
 1858              	.L190:
1065:C:/Users/stapi/OneDrive/Desktop/GD32VW553/GD32VW55X_Wifi_BLE_SDK/GD32VW55x_RELEASE_V1.0.2/MSDK/lwip/lwip-2.1.2/port\wifi_netif.c ****     #endif //LWIP_IPV4 && LWIP_DHCPD
1066:C:/Users/stapi/OneDrive/Desktop/GD32VW553/GD32VW55X_Wifi_BLE_SDK/GD32VW55x_RELEASE_V1.0.2/MSDK/lwip/lwip-2.1.2/port\wifi_netif.c **** 
1067:C:/Users/stapi/OneDrive/Desktop/GD32VW553/GD32VW55X_Wifi_BLE_SDK/GD32VW55x_RELEASE_V1.0.2/MSDK/lwip/lwip-2.1.2/port\wifi_netif.c ****     return -1;
1068:C:/Users/stapi/OneDrive/Desktop/GD32VW553/GD32VW55X_Wifi_BLE_SDK/GD32VW55x_RELEASE_V1.0.2/MSDK/lwip/lwip-2.1.2/port\wifi_netif.c **** }
 1859              		.loc 1 1068 1
 1860 002a 2685     		mv	a0,s1
 1861 002c 17030000 		tail	__riscv_restore_2
 1861      67000300 
 1862              		.cfi_restore 9
 1863              		.cfi_restore 8
 1864              		.cfi_restore 1
 1865              		.cfi_def_cfa_offset 0
 1866              		.cfi_endproc
 1867              	.LFE47:
 1869              		.section	.text.net_dhcpd_stop,"ax",@progbits
 1870              		.align	1
 1871              		.globl	net_dhcpd_stop
 1873              	net_dhcpd_stop:
 1874              	.LFB48:
1069:C:/Users/stapi/OneDrive/Desktop/GD32VW553/GD32VW55X_Wifi_BLE_SDK/GD32VW55x_RELEASE_V1.0.2/MSDK/lwip/lwip-2.1.2/port\wifi_netif.c **** 
1070:C:/Users/stapi/OneDrive/Desktop/GD32VW553/GD32VW55X_Wifi_BLE_SDK/GD32VW55x_RELEASE_V1.0.2/MSDK/lwip/lwip-2.1.2/port\wifi_netif.c **** /*!
1071:C:/Users/stapi/OneDrive/Desktop/GD32VW553/GD32VW55X_Wifi_BLE_SDK/GD32VW55x_RELEASE_V1.0.2/MSDK/lwip/lwip-2.1.2/port\wifi_netif.c ****     \brief      Stop DHCPD procedure on a given interface
1072:C:/Users/stapi/OneDrive/Desktop/GD32VW553/GD32VW55X_Wifi_BLE_SDK/GD32VW55x_RELEASE_V1.0.2/MSDK/lwip/lwip-2.1.2/port\wifi_netif.c ****     \param[in]  net_if: Pointer to the interface on which DHCPD must be stopped
1073:C:/Users/stapi/OneDrive/Desktop/GD32VW553/GD32VW55X_Wifi_BLE_SDK/GD32VW55x_RELEASE_V1.0.2/MSDK/lwip/lwip-2.1.2/port\wifi_netif.c ****     \param[out] none
1074:C:/Users/stapi/OneDrive/Desktop/GD32VW553/GD32VW55X_Wifi_BLE_SDK/GD32VW55x_RELEASE_V1.0.2/MSDK/lwip/lwip-2.1.2/port\wifi_netif.c ****     \retval     none
1075:C:/Users/stapi/OneDrive/Desktop/GD32VW553/GD32VW55X_Wifi_BLE_SDK/GD32VW55x_RELEASE_V1.0.2/MSDK/lwip/lwip-2.1.2/port\wifi_netif.c **** */
1076:C:/Users/stapi/OneDrive/Desktop/GD32VW553/GD32VW55X_Wifi_BLE_SDK/GD32VW55x_RELEASE_V1.0.2/MSDK/lwip/lwip-2.1.2/port\wifi_netif.c **** void net_dhcpd_stop(void *net_if)
1077:C:/Users/stapi/OneDrive/Desktop/GD32VW553/GD32VW55X_Wifi_BLE_SDK/GD32VW55x_RELEASE_V1.0.2/MSDK/lwip/lwip-2.1.2/port\wifi_netif.c **** {
 1875              		.loc 1 1077 1 is_stmt 1
 1876              		.cfi_startproc
 1877              	.LVL202:
1078:C:/Users/stapi/OneDrive/Desktop/GD32VW553/GD32VW55X_Wifi_BLE_SDK/GD32VW55x_RELEASE_V1.0.2/MSDK/lwip/lwip-2.1.2/port\wifi_netif.c ****     struct netif *netif = (struct netif *)net_if;
 1878              		.loc 1 1078 5
1079:C:/Users/stapi/OneDrive/Desktop/GD32VW553/GD32VW55X_Wifi_BLE_SDK/GD32VW55x_RELEASE_V1.0.2/MSDK/lwip/lwip-2.1.2/port\wifi_netif.c **** 
1080:C:/Users/stapi/OneDrive/Desktop/GD32VW553/GD32VW55X_Wifi_BLE_SDK/GD32VW55x_RELEASE_V1.0.2/MSDK/lwip/lwip-2.1.2/port\wifi_netif.c ****     if (!netif)
 1879              		.loc 1 1080 5
 1880              		.loc 1 1080 8 is_stmt 0
 1881 0000 1DC5     		beq	a0,zero,.L203
1077:C:/Users/stapi/OneDrive/Desktop/GD32VW553/GD32VW55X_Wifi_BLE_SDK/GD32VW55x_RELEASE_V1.0.2/MSDK/lwip/lwip-2.1.2/port\wifi_netif.c ****     struct netif *netif = (struct netif *)net_if;
 1882              		.loc 1 1077 1
 1883 0002 17030000 		call	t0,__riscv_save_1
 1883      E7020300 
 1884              		.cfi_offset 8, -8
 1885              		.cfi_offset 1, -4
 1886              		.cfi_def_cfa_offset 16
1081:C:/Users/stapi/OneDrive/Desktop/GD32VW553/GD32VW55X_Wifi_BLE_SDK/GD32VW55x_RELEASE_V1.0.2/MSDK/lwip/lwip-2.1.2/port\wifi_netif.c ****         return;
1082:C:/Users/stapi/OneDrive/Desktop/GD32VW553/GD32VW55X_Wifi_BLE_SDK/GD32VW55x_RELEASE_V1.0.2/MSDK/lwip/lwip-2.1.2/port\wifi_netif.c **** 
1083:C:/Users/stapi/OneDrive/Desktop/GD32VW553/GD32VW55X_Wifi_BLE_SDK/GD32VW55x_RELEASE_V1.0.2/MSDK/lwip/lwip-2.1.2/port\wifi_netif.c ****     #if LWIP_IPV4 && LWIP_DHCPD
1084:C:/Users/stapi/OneDrive/Desktop/GD32VW553/GD32VW55X_Wifi_BLE_SDK/GD32VW55x_RELEASE_V1.0.2/MSDK/lwip/lwip-2.1.2/port\wifi_netif.c ****     if (ap_dhcpd_started) {
 1887              		.loc 1 1084 5 is_stmt 1
 1888              		.loc 1 1084 9 is_stmt 0
 1889 000a 37040000 		lui	s0,%hi(.LANCHOR3)
 1890 000e 13040400 		addi	s0,s0,%lo(.LANCHOR3)
 1891              		.loc 1 1084 8
 1892 0012 83470400 		lbu	a5,0(s0)
 1893 0016 81CB     		beq	a5,zero,.L195
1085:C:/Users/stapi/OneDrive/Desktop/GD32VW553/GD32VW55X_Wifi_BLE_SDK/GD32VW55x_RELEASE_V1.0.2/MSDK/lwip/lwip-2.1.2/port\wifi_netif.c ****         if (stop_dhcpd_daemon(netif) == 0)
 1894              		.loc 1 1085 9 is_stmt 1
 1895              		.loc 1 1085 13 is_stmt 0
 1896 0018 97000000 		call	stop_dhcpd_daemon
 1896      E7800000 
 1897              	.LVL203:
 1898              		.loc 1 1085 12
 1899 0020 19E1     		bne	a0,zero,.L195
1086:C:/Users/stapi/OneDrive/Desktop/GD32VW553/GD32VW55X_Wifi_BLE_SDK/GD32VW55x_RELEASE_V1.0.2/MSDK/lwip/lwip-2.1.2/port\wifi_netif.c ****             ap_dhcpd_started = 0;
 1900              		.loc 1 1086 13 is_stmt 1
 1901              		.loc 1 1086 30 is_stmt 0
 1902 0022 23000400 		sb	zero,0(s0)
 1903              	.L195:
1087:C:/Users/stapi/OneDrive/Desktop/GD32VW553/GD32VW55X_Wifi_BLE_SDK/GD32VW55x_RELEASE_V1.0.2/MSDK/lwip/lwip-2.1.2/port\wifi_netif.c ****     }
1088:C:/Users/stapi/OneDrive/Desktop/GD32VW553/GD32VW55X_Wifi_BLE_SDK/GD32VW55x_RELEASE_V1.0.2/MSDK/lwip/lwip-2.1.2/port\wifi_netif.c ****     #endif //LWIP_IPV4 && LWIP_DHCPD
1089:C:/Users/stapi/OneDrive/Desktop/GD32VW553/GD32VW55X_Wifi_BLE_SDK/GD32VW55x_RELEASE_V1.0.2/MSDK/lwip/lwip-2.1.2/port\wifi_netif.c **** }
 1904              		.loc 1 1089 1
 1905 0026 17030000 		tail	__riscv_restore_1
 1905      67000300 
 1906              		.cfi_restore 8
 1907              		.cfi_restore 1
 1908              		.cfi_def_cfa_offset 0
 1909              	.LVL204:
 1910              	.L203:
 1911 002e 8280     		ret
 1912              		.cfi_endproc
 1913              	.LFE48:
 1915              		.section	.text.net_set_dns,"ax",@progbits
 1916              		.align	1
 1917              		.globl	net_set_dns
 1919              	net_set_dns:
 1920              	.LFB49:
1090:C:/Users/stapi/OneDrive/Desktop/GD32VW553/GD32VW55X_Wifi_BLE_SDK/GD32VW55x_RELEASE_V1.0.2/MSDK/lwip/lwip-2.1.2/port\wifi_netif.c **** 
1091:C:/Users/stapi/OneDrive/Desktop/GD32VW553/GD32VW55X_Wifi_BLE_SDK/GD32VW55x_RELEASE_V1.0.2/MSDK/lwip/lwip-2.1.2/port\wifi_netif.c **** #if LWIP_IPV6
1092:C:/Users/stapi/OneDrive/Desktop/GD32VW553/GD32VW55X_Wifi_BLE_SDK/GD32VW55x_RELEASE_V1.0.2/MSDK/lwip/lwip-2.1.2/port\wifi_netif.c **** /*!
1093:C:/Users/stapi/OneDrive/Desktop/GD32VW553/GD32VW55X_Wifi_BLE_SDK/GD32VW55x_RELEASE_V1.0.2/MSDK/lwip/lwip-2.1.2/port\wifi_netif.c ****     \brief      Start SLAAC server procedure on a given interface
1094:C:/Users/stapi/OneDrive/Desktop/GD32VW553/GD32VW55X_Wifi_BLE_SDK/GD32VW55x_RELEASE_V1.0.2/MSDK/lwip/lwip-2.1.2/port\wifi_netif.c ****     \param[in]  net_if: Pointer to the interface on which SLAAC server must be started
1095:C:/Users/stapi/OneDrive/Desktop/GD32VW553/GD32VW55X_Wifi_BLE_SDK/GD32VW55x_RELEASE_V1.0.2/MSDK/lwip/lwip-2.1.2/port\wifi_netif.c ****     \param[out] none
1096:C:/Users/stapi/OneDrive/Desktop/GD32VW553/GD32VW55X_Wifi_BLE_SDK/GD32VW55x_RELEASE_V1.0.2/MSDK/lwip/lwip-2.1.2/port\wifi_netif.c ****     \retval     none
1097:C:/Users/stapi/OneDrive/Desktop/GD32VW553/GD32VW55X_Wifi_BLE_SDK/GD32VW55x_RELEASE_V1.0.2/MSDK/lwip/lwip-2.1.2/port\wifi_netif.c **** */
1098:C:/Users/stapi/OneDrive/Desktop/GD32VW553/GD32VW55X_Wifi_BLE_SDK/GD32VW55x_RELEASE_V1.0.2/MSDK/lwip/lwip-2.1.2/port\wifi_netif.c **** void net_ip6_server_start(void *net_if)
1099:C:/Users/stapi/OneDrive/Desktop/GD32VW553/GD32VW55X_Wifi_BLE_SDK/GD32VW55x_RELEASE_V1.0.2/MSDK/lwip/lwip-2.1.2/port\wifi_netif.c **** {
1100:C:/Users/stapi/OneDrive/Desktop/GD32VW553/GD32VW55X_Wifi_BLE_SDK/GD32VW55x_RELEASE_V1.0.2/MSDK/lwip/lwip-2.1.2/port\wifi_netif.c ****     ip6_addr_t ipaddr;
1101:C:/Users/stapi/OneDrive/Desktop/GD32VW553/GD32VW55X_Wifi_BLE_SDK/GD32VW55x_RELEASE_V1.0.2/MSDK/lwip/lwip-2.1.2/port\wifi_netif.c ****     struct netif *netif = (struct netif *)net_if;
1102:C:/Users/stapi/OneDrive/Desktop/GD32VW553/GD32VW55X_Wifi_BLE_SDK/GD32VW55x_RELEASE_V1.0.2/MSDK/lwip/lwip-2.1.2/port\wifi_netif.c **** 
1103:C:/Users/stapi/OneDrive/Desktop/GD32VW553/GD32VW55X_Wifi_BLE_SDK/GD32VW55x_RELEASE_V1.0.2/MSDK/lwip/lwip-2.1.2/port\wifi_netif.c ****     if (!netif || ap_ip6_server_started)
1104:C:/Users/stapi/OneDrive/Desktop/GD32VW553/GD32VW55X_Wifi_BLE_SDK/GD32VW55x_RELEASE_V1.0.2/MSDK/lwip/lwip-2.1.2/port\wifi_netif.c ****         return;
1105:C:/Users/stapi/OneDrive/Desktop/GD32VW553/GD32VW55X_Wifi_BLE_SDK/GD32VW55x_RELEASE_V1.0.2/MSDK/lwip/lwip-2.1.2/port\wifi_netif.c **** 
1106:C:/Users/stapi/OneDrive/Desktop/GD32VW553/GD32VW55X_Wifi_BLE_SDK/GD32VW55x_RELEASE_V1.0.2/MSDK/lwip/lwip-2.1.2/port\wifi_netif.c **** #if LWIP_IPV6_DHCP6
1107:C:/Users/stapi/OneDrive/Desktop/GD32VW553/GD32VW55X_Wifi_BLE_SDK/GD32VW55x_RELEASE_V1.0.2/MSDK/lwip/lwip-2.1.2/port\wifi_netif.c ****     // only use SLAAC
1108:C:/Users/stapi/OneDrive/Desktop/GD32VW553/GD32VW55X_Wifi_BLE_SDK/GD32VW55x_RELEASE_V1.0.2/MSDK/lwip/lwip-2.1.2/port\wifi_netif.c ****     dhcp6_disable(netif);
1109:C:/Users/stapi/OneDrive/Desktop/GD32VW553/GD32VW55X_Wifi_BLE_SDK/GD32VW55x_RELEASE_V1.0.2/MSDK/lwip/lwip-2.1.2/port\wifi_netif.c **** #endif
1110:C:/Users/stapi/OneDrive/Desktop/GD32VW553/GD32VW55X_Wifi_BLE_SDK/GD32VW55x_RELEASE_V1.0.2/MSDK/lwip/lwip-2.1.2/port\wifi_netif.c ****     IP6_ADDR(&ipaddr, PP_HTONL(UIP6_DEFAULT_PREFIX_1), PP_HTONL(UIP6_DEFAULT_PREFIX_2),
1111:C:/Users/stapi/OneDrive/Desktop/GD32VW553/GD32VW55X_Wifi_BLE_SDK/GD32VW55x_RELEASE_V1.0.2/MSDK/lwip/lwip-2.1.2/port\wifi_netif.c ****                     PP_HTONL(0), PP_HTONL(0x1));
1112:C:/Users/stapi/OneDrive/Desktop/GD32VW553/GD32VW55X_Wifi_BLE_SDK/GD32VW55x_RELEASE_V1.0.2/MSDK/lwip/lwip-2.1.2/port\wifi_netif.c ****     netif_add_ip6_address(netif, &ipaddr, NULL);
1113:C:/Users/stapi/OneDrive/Desktop/GD32VW553/GD32VW55X_Wifi_BLE_SDK/GD32VW55x_RELEASE_V1.0.2/MSDK/lwip/lwip-2.1.2/port\wifi_netif.c **** 
1114:C:/Users/stapi/OneDrive/Desktop/GD32VW553/GD32VW55X_Wifi_BLE_SDK/GD32VW55x_RELEASE_V1.0.2/MSDK/lwip/lwip-2.1.2/port\wifi_netif.c ****     ip6_addr_set_allnodes_linklocal(&ipaddr);
1115:C:/Users/stapi/OneDrive/Desktop/GD32VW553/GD32VW55X_Wifi_BLE_SDK/GD32VW55x_RELEASE_V1.0.2/MSDK/lwip/lwip-2.1.2/port\wifi_netif.c ****     mld6_joingroup_netif(netif, &ipaddr);
1116:C:/Users/stapi/OneDrive/Desktop/GD32VW553/GD32VW55X_Wifi_BLE_SDK/GD32VW55x_RELEASE_V1.0.2/MSDK/lwip/lwip-2.1.2/port\wifi_netif.c ****     ip6_addr_set_allrouters_linklocal(&ipaddr);
1117:C:/Users/stapi/OneDrive/Desktop/GD32VW553/GD32VW55X_Wifi_BLE_SDK/GD32VW55x_RELEASE_V1.0.2/MSDK/lwip/lwip-2.1.2/port\wifi_netif.c ****     mld6_joingroup_netif(netif, &ipaddr);
1118:C:/Users/stapi/OneDrive/Desktop/GD32VW553/GD32VW55X_Wifi_BLE_SDK/GD32VW55x_RELEASE_V1.0.2/MSDK/lwip/lwip-2.1.2/port\wifi_netif.c ****     ip6_addr_set_solicitednode(&ipaddr, PP_HTONL(0x00000001UL));
1119:C:/Users/stapi/OneDrive/Desktop/GD32VW553/GD32VW55X_Wifi_BLE_SDK/GD32VW55x_RELEASE_V1.0.2/MSDK/lwip/lwip-2.1.2/port\wifi_netif.c ****     mld6_joingroup_netif(netif, &ipaddr);
1120:C:/Users/stapi/OneDrive/Desktop/GD32VW553/GD32VW55X_Wifi_BLE_SDK/GD32VW55x_RELEASE_V1.0.2/MSDK/lwip/lwip-2.1.2/port\wifi_netif.c **** 
1121:C:/Users/stapi/OneDrive/Desktop/GD32VW553/GD32VW55X_Wifi_BLE_SDK/GD32VW55x_RELEASE_V1.0.2/MSDK/lwip/lwip-2.1.2/port\wifi_netif.c ****     ap_ip6_server_started = 1;
1122:C:/Users/stapi/OneDrive/Desktop/GD32VW553/GD32VW55X_Wifi_BLE_SDK/GD32VW55x_RELEASE_V1.0.2/MSDK/lwip/lwip-2.1.2/port\wifi_netif.c **** }
1123:C:/Users/stapi/OneDrive/Desktop/GD32VW553/GD32VW55X_Wifi_BLE_SDK/GD32VW55x_RELEASE_V1.0.2/MSDK/lwip/lwip-2.1.2/port\wifi_netif.c **** 
1124:C:/Users/stapi/OneDrive/Desktop/GD32VW553/GD32VW55X_Wifi_BLE_SDK/GD32VW55x_RELEASE_V1.0.2/MSDK/lwip/lwip-2.1.2/port\wifi_netif.c **** /*!
1125:C:/Users/stapi/OneDrive/Desktop/GD32VW553/GD32VW55X_Wifi_BLE_SDK/GD32VW55x_RELEASE_V1.0.2/MSDK/lwip/lwip-2.1.2/port\wifi_netif.c ****     \brief      Stop SLAAC server procedure on a given interface
1126:C:/Users/stapi/OneDrive/Desktop/GD32VW553/GD32VW55X_Wifi_BLE_SDK/GD32VW55x_RELEASE_V1.0.2/MSDK/lwip/lwip-2.1.2/port\wifi_netif.c ****     \param[in]  net_if: Pointer to the interface on which SLAAC server must be stopped
1127:C:/Users/stapi/OneDrive/Desktop/GD32VW553/GD32VW55X_Wifi_BLE_SDK/GD32VW55x_RELEASE_V1.0.2/MSDK/lwip/lwip-2.1.2/port\wifi_netif.c ****     \param[out] none
1128:C:/Users/stapi/OneDrive/Desktop/GD32VW553/GD32VW55X_Wifi_BLE_SDK/GD32VW55x_RELEASE_V1.0.2/MSDK/lwip/lwip-2.1.2/port\wifi_netif.c ****     \retval     none
1129:C:/Users/stapi/OneDrive/Desktop/GD32VW553/GD32VW55X_Wifi_BLE_SDK/GD32VW55x_RELEASE_V1.0.2/MSDK/lwip/lwip-2.1.2/port\wifi_netif.c **** */
1130:C:/Users/stapi/OneDrive/Desktop/GD32VW553/GD32VW55X_Wifi_BLE_SDK/GD32VW55x_RELEASE_V1.0.2/MSDK/lwip/lwip-2.1.2/port\wifi_netif.c **** void net_ip6_server_stop(void *net_if)
1131:C:/Users/stapi/OneDrive/Desktop/GD32VW553/GD32VW55X_Wifi_BLE_SDK/GD32VW55x_RELEASE_V1.0.2/MSDK/lwip/lwip-2.1.2/port\wifi_netif.c **** {
1132:C:/Users/stapi/OneDrive/Desktop/GD32VW553/GD32VW55X_Wifi_BLE_SDK/GD32VW55x_RELEASE_V1.0.2/MSDK/lwip/lwip-2.1.2/port\wifi_netif.c ****     ip6_addr_t ipaddr;
1133:C:/Users/stapi/OneDrive/Desktop/GD32VW553/GD32VW55X_Wifi_BLE_SDK/GD32VW55x_RELEASE_V1.0.2/MSDK/lwip/lwip-2.1.2/port\wifi_netif.c ****     struct netif *netif = (struct netif *)net_if;
1134:C:/Users/stapi/OneDrive/Desktop/GD32VW553/GD32VW55X_Wifi_BLE_SDK/GD32VW55x_RELEASE_V1.0.2/MSDK/lwip/lwip-2.1.2/port\wifi_netif.c **** 
1135:C:/Users/stapi/OneDrive/Desktop/GD32VW553/GD32VW55X_Wifi_BLE_SDK/GD32VW55x_RELEASE_V1.0.2/MSDK/lwip/lwip-2.1.2/port\wifi_netif.c ****     if (!netif || !ap_ip6_server_started)
1136:C:/Users/stapi/OneDrive/Desktop/GD32VW553/GD32VW55X_Wifi_BLE_SDK/GD32VW55x_RELEASE_V1.0.2/MSDK/lwip/lwip-2.1.2/port\wifi_netif.c ****         return;
1137:C:/Users/stapi/OneDrive/Desktop/GD32VW553/GD32VW55X_Wifi_BLE_SDK/GD32VW55x_RELEASE_V1.0.2/MSDK/lwip/lwip-2.1.2/port\wifi_netif.c **** 
1138:C:/Users/stapi/OneDrive/Desktop/GD32VW553/GD32VW55X_Wifi_BLE_SDK/GD32VW55x_RELEASE_V1.0.2/MSDK/lwip/lwip-2.1.2/port\wifi_netif.c ****     ip6_addr_set_allnodes_linklocal(&ipaddr);
1139:C:/Users/stapi/OneDrive/Desktop/GD32VW553/GD32VW55X_Wifi_BLE_SDK/GD32VW55x_RELEASE_V1.0.2/MSDK/lwip/lwip-2.1.2/port\wifi_netif.c ****     mld6_leavegroup_netif(netif, &ipaddr);
1140:C:/Users/stapi/OneDrive/Desktop/GD32VW553/GD32VW55X_Wifi_BLE_SDK/GD32VW55x_RELEASE_V1.0.2/MSDK/lwip/lwip-2.1.2/port\wifi_netif.c ****     ip6_addr_set_allrouters_linklocal(&ipaddr);
1141:C:/Users/stapi/OneDrive/Desktop/GD32VW553/GD32VW55X_Wifi_BLE_SDK/GD32VW55x_RELEASE_V1.0.2/MSDK/lwip/lwip-2.1.2/port\wifi_netif.c ****     mld6_leavegroup_netif(netif, &ipaddr);
1142:C:/Users/stapi/OneDrive/Desktop/GD32VW553/GD32VW55X_Wifi_BLE_SDK/GD32VW55x_RELEASE_V1.0.2/MSDK/lwip/lwip-2.1.2/port\wifi_netif.c **** 
1143:C:/Users/stapi/OneDrive/Desktop/GD32VW553/GD32VW55X_Wifi_BLE_SDK/GD32VW55x_RELEASE_V1.0.2/MSDK/lwip/lwip-2.1.2/port\wifi_netif.c **** #if LWIP_IPV6_DHCP6
1144:C:/Users/stapi/OneDrive/Desktop/GD32VW553/GD32VW55X_Wifi_BLE_SDK/GD32VW55x_RELEASE_V1.0.2/MSDK/lwip/lwip-2.1.2/port\wifi_netif.c ****     dhcp6_enable_stateless(netif);
1145:C:/Users/stapi/OneDrive/Desktop/GD32VW553/GD32VW55X_Wifi_BLE_SDK/GD32VW55x_RELEASE_V1.0.2/MSDK/lwip/lwip-2.1.2/port\wifi_netif.c **** #endif
1146:C:/Users/stapi/OneDrive/Desktop/GD32VW553/GD32VW55X_Wifi_BLE_SDK/GD32VW55x_RELEASE_V1.0.2/MSDK/lwip/lwip-2.1.2/port\wifi_netif.c **** 
1147:C:/Users/stapi/OneDrive/Desktop/GD32VW553/GD32VW55X_Wifi_BLE_SDK/GD32VW55x_RELEASE_V1.0.2/MSDK/lwip/lwip-2.1.2/port\wifi_netif.c ****     ap_ip6_server_started = 0;
1148:C:/Users/stapi/OneDrive/Desktop/GD32VW553/GD32VW55X_Wifi_BLE_SDK/GD32VW55x_RELEASE_V1.0.2/MSDK/lwip/lwip-2.1.2/port\wifi_netif.c **** }
1149:C:/Users/stapi/OneDrive/Desktop/GD32VW553/GD32VW55X_Wifi_BLE_SDK/GD32VW55x_RELEASE_V1.0.2/MSDK/lwip/lwip-2.1.2/port\wifi_netif.c **** #endif /* LWIP_IPV6 */
1150:C:/Users/stapi/OneDrive/Desktop/GD32VW553/GD32VW55X_Wifi_BLE_SDK/GD32VW55x_RELEASE_V1.0.2/MSDK/lwip/lwip-2.1.2/port\wifi_netif.c **** 
1151:C:/Users/stapi/OneDrive/Desktop/GD32VW553/GD32VW55X_Wifi_BLE_SDK/GD32VW55x_RELEASE_V1.0.2/MSDK/lwip/lwip-2.1.2/port\wifi_netif.c **** /*!
1152:C:/Users/stapi/OneDrive/Desktop/GD32VW553/GD32VW55X_Wifi_BLE_SDK/GD32VW55x_RELEASE_V1.0.2/MSDK/lwip/lwip-2.1.2/port\wifi_netif.c ****     \brief      Configure DNS server IP address
1153:C:/Users/stapi/OneDrive/Desktop/GD32VW553/GD32VW55X_Wifi_BLE_SDK/GD32VW55x_RELEASE_V1.0.2/MSDK/lwip/lwip-2.1.2/port\wifi_netif.c ****     \param[in]  dns_server: DNS server IPv4 address
1154:C:/Users/stapi/OneDrive/Desktop/GD32VW553/GD32VW55X_Wifi_BLE_SDK/GD32VW55x_RELEASE_V1.0.2/MSDK/lwip/lwip-2.1.2/port\wifi_netif.c ****     \param[out] none
1155:C:/Users/stapi/OneDrive/Desktop/GD32VW553/GD32VW55X_Wifi_BLE_SDK/GD32VW55x_RELEASE_V1.0.2/MSDK/lwip/lwip-2.1.2/port\wifi_netif.c ****     \retval     0 on success and != 0 if error occurred.
1156:C:/Users/stapi/OneDrive/Desktop/GD32VW553/GD32VW55X_Wifi_BLE_SDK/GD32VW55x_RELEASE_V1.0.2/MSDK/lwip/lwip-2.1.2/port\wifi_netif.c **** */
1157:C:/Users/stapi/OneDrive/Desktop/GD32VW553/GD32VW55X_Wifi_BLE_SDK/GD32VW55x_RELEASE_V1.0.2/MSDK/lwip/lwip-2.1.2/port\wifi_netif.c **** int net_set_dns(uint32_t dns_server)
1158:C:/Users/stapi/OneDrive/Desktop/GD32VW553/GD32VW55X_Wifi_BLE_SDK/GD32VW55x_RELEASE_V1.0.2/MSDK/lwip/lwip-2.1.2/port\wifi_netif.c **** {
 1921              		.loc 1 1158 1 is_stmt 1
 1922              		.cfi_startproc
 1923              	.LVL205:
 1924 0000 17030000 		call	t0,__riscv_save_0
 1924      E7020300 
 1925              		.cfi_offset 1, -4
 1926              		.cfi_def_cfa_offset 16
1159:C:/Users/stapi/OneDrive/Desktop/GD32VW553/GD32VW55X_Wifi_BLE_SDK/GD32VW55x_RELEASE_V1.0.2/MSDK/lwip/lwip-2.1.2/port\wifi_netif.c ****     #if LWIP_DNS
1160:C:/Users/stapi/OneDrive/Desktop/GD32VW553/GD32VW55X_Wifi_BLE_SDK/GD32VW55x_RELEASE_V1.0.2/MSDK/lwip/lwip-2.1.2/port\wifi_netif.c ****     ip_addr_t ip;
 1927              		.loc 1 1160 5
1161:C:/Users/stapi/OneDrive/Desktop/GD32VW553/GD32VW55X_Wifi_BLE_SDK/GD32VW55x_RELEASE_V1.0.2/MSDK/lwip/lwip-2.1.2/port\wifi_netif.c ****     #if LWIP_IPV6
1162:C:/Users/stapi/OneDrive/Desktop/GD32VW553/GD32VW55X_Wifi_BLE_SDK/GD32VW55x_RELEASE_V1.0.2/MSDK/lwip/lwip-2.1.2/port\wifi_netif.c ****     ip_addr_set_ip4_u32_val(ip, dns_server);
1163:C:/Users/stapi/OneDrive/Desktop/GD32VW553/GD32VW55X_Wifi_BLE_SDK/GD32VW55x_RELEASE_V1.0.2/MSDK/lwip/lwip-2.1.2/port\wifi_netif.c ****     #else /* LWIP_IPV6 */
1164:C:/Users/stapi/OneDrive/Desktop/GD32VW553/GD32VW55X_Wifi_BLE_SDK/GD32VW55x_RELEASE_V1.0.2/MSDK/lwip/lwip-2.1.2/port\wifi_netif.c ****     ip_addr_set_ip4_u32(&ip, dns_server);
 1928              		.loc 1 1164 5
1158:C:/Users/stapi/OneDrive/Desktop/GD32VW553/GD32VW55X_Wifi_BLE_SDK/GD32VW55x_RELEASE_V1.0.2/MSDK/lwip/lwip-2.1.2/port\wifi_netif.c ****     #if LWIP_DNS
 1929              		.loc 1 1158 1 is_stmt 0
 1930 0008 4111     		addi	sp,sp,-16
 1931              		.cfi_def_cfa_offset 32
 1932              		.loc 1 1164 5
 1933 000a 2AC6     		sw	a0,12(sp)
1165:C:/Users/stapi/OneDrive/Desktop/GD32VW553/GD32VW55X_Wifi_BLE_SDK/GD32VW55x_RELEASE_V1.0.2/MSDK/lwip/lwip-2.1.2/port\wifi_netif.c ****     #endif /* LWIP_IPV6 */
1166:C:/Users/stapi/OneDrive/Desktop/GD32VW553/GD32VW55X_Wifi_BLE_SDK/GD32VW55x_RELEASE_V1.0.2/MSDK/lwip/lwip-2.1.2/port\wifi_netif.c ****     dns_setserver(0, &ip);
 1934              		.loc 1 1166 5 is_stmt 1
 1935 000c 6C00     		addi	a1,sp,12
 1936 000e 0145     		li	a0,0
 1937              	.LVL206:
 1938 0010 97000000 		call	dns_setserver
 1938      E7800000 
 1939              	.LVL207:
1167:C:/Users/stapi/OneDrive/Desktop/GD32VW553/GD32VW55X_Wifi_BLE_SDK/GD32VW55x_RELEASE_V1.0.2/MSDK/lwip/lwip-2.1.2/port\wifi_netif.c ****     return 0;
 1940              		.loc 1 1167 5
1168:C:/Users/stapi/OneDrive/Desktop/GD32VW553/GD32VW55X_Wifi_BLE_SDK/GD32VW55x_RELEASE_V1.0.2/MSDK/lwip/lwip-2.1.2/port\wifi_netif.c ****     #else
1169:C:/Users/stapi/OneDrive/Desktop/GD32VW553/GD32VW55X_Wifi_BLE_SDK/GD32VW55x_RELEASE_V1.0.2/MSDK/lwip/lwip-2.1.2/port\wifi_netif.c ****     return -1;
1170:C:/Users/stapi/OneDrive/Desktop/GD32VW553/GD32VW55X_Wifi_BLE_SDK/GD32VW55x_RELEASE_V1.0.2/MSDK/lwip/lwip-2.1.2/port\wifi_netif.c ****     #endif
1171:C:/Users/stapi/OneDrive/Desktop/GD32VW553/GD32VW55X_Wifi_BLE_SDK/GD32VW55x_RELEASE_V1.0.2/MSDK/lwip/lwip-2.1.2/port\wifi_netif.c **** }
 1941              		.loc 1 1171 1 is_stmt 0
 1942 0018 0145     		li	a0,0
 1943 001a 4101     		addi	sp,sp,16
 1944              		.cfi_def_cfa_offset 0
 1945 001c 17030000 		tail	__riscv_restore_0
 1945      67000300 
 1946              		.cfi_restore 1
 1947              		.cfi_def_cfa_offset -16
 1948              		.cfi_endproc
 1949              	.LFE49:
 1951              		.section	.text.net_get_dns,"ax",@progbits
 1952              		.align	1
 1953              		.globl	net_get_dns
 1955              	net_get_dns:
 1956              	.LFB50:
1172:C:/Users/stapi/OneDrive/Desktop/GD32VW553/GD32VW55X_Wifi_BLE_SDK/GD32VW55x_RELEASE_V1.0.2/MSDK/lwip/lwip-2.1.2/port\wifi_netif.c **** 
1173:C:/Users/stapi/OneDrive/Desktop/GD32VW553/GD32VW55X_Wifi_BLE_SDK/GD32VW55x_RELEASE_V1.0.2/MSDK/lwip/lwip-2.1.2/port\wifi_netif.c **** /*!
1174:C:/Users/stapi/OneDrive/Desktop/GD32VW553/GD32VW55X_Wifi_BLE_SDK/GD32VW55x_RELEASE_V1.0.2/MSDK/lwip/lwip-2.1.2/port\wifi_netif.c ****     \brief      Get DNS server IP address
1175:C:/Users/stapi/OneDrive/Desktop/GD32VW553/GD32VW55X_Wifi_BLE_SDK/GD32VW55x_RELEASE_V1.0.2/MSDK/lwip/lwip-2.1.2/port\wifi_netif.c ****     \param[in]  none
1176:C:/Users/stapi/OneDrive/Desktop/GD32VW553/GD32VW55X_Wifi_BLE_SDK/GD32VW55x_RELEASE_V1.0.2/MSDK/lwip/lwip-2.1.2/port\wifi_netif.c ****     \param[out] dns_server: DNS server IPv4 address
1177:C:/Users/stapi/OneDrive/Desktop/GD32VW553/GD32VW55X_Wifi_BLE_SDK/GD32VW55x_RELEASE_V1.0.2/MSDK/lwip/lwip-2.1.2/port\wifi_netif.c ****     \retval     0 on success and != 0 if error occurred.
1178:C:/Users/stapi/OneDrive/Desktop/GD32VW553/GD32VW55X_Wifi_BLE_SDK/GD32VW55x_RELEASE_V1.0.2/MSDK/lwip/lwip-2.1.2/port\wifi_netif.c **** */
1179:C:/Users/stapi/OneDrive/Desktop/GD32VW553/GD32VW55X_Wifi_BLE_SDK/GD32VW55x_RELEASE_V1.0.2/MSDK/lwip/lwip-2.1.2/port\wifi_netif.c **** int net_get_dns(uint32_t *dns_server)
1180:C:/Users/stapi/OneDrive/Desktop/GD32VW553/GD32VW55X_Wifi_BLE_SDK/GD32VW55x_RELEASE_V1.0.2/MSDK/lwip/lwip-2.1.2/port\wifi_netif.c **** {
 1957              		.loc 1 1180 1 is_stmt 1
 1958              		.cfi_startproc
 1959              	.LVL208:
1181:C:/Users/stapi/OneDrive/Desktop/GD32VW553/GD32VW55X_Wifi_BLE_SDK/GD32VW55x_RELEASE_V1.0.2/MSDK/lwip/lwip-2.1.2/port\wifi_netif.c ****     #if LWIP_DNS
1182:C:/Users/stapi/OneDrive/Desktop/GD32VW553/GD32VW55X_Wifi_BLE_SDK/GD32VW55x_RELEASE_V1.0.2/MSDK/lwip/lwip-2.1.2/port\wifi_netif.c ****     const ip_addr_t *ip;
 1960              		.loc 1 1182 5
1183:C:/Users/stapi/OneDrive/Desktop/GD32VW553/GD32VW55X_Wifi_BLE_SDK/GD32VW55x_RELEASE_V1.0.2/MSDK/lwip/lwip-2.1.2/port\wifi_netif.c **** 
1184:C:/Users/stapi/OneDrive/Desktop/GD32VW553/GD32VW55X_Wifi_BLE_SDK/GD32VW55x_RELEASE_V1.0.2/MSDK/lwip/lwip-2.1.2/port\wifi_netif.c ****     if (dns_server == NULL)
 1961              		.loc 1 1184 5
 1962              		.loc 1 1184 8 is_stmt 0
 1963 0000 15C1     		beq	a0,zero,.L210
1180:C:/Users/stapi/OneDrive/Desktop/GD32VW553/GD32VW55X_Wifi_BLE_SDK/GD32VW55x_RELEASE_V1.0.2/MSDK/lwip/lwip-2.1.2/port\wifi_netif.c ****     #if LWIP_DNS
 1964              		.loc 1 1180 1
 1965 0002 17030000 		call	t0,__riscv_save_1
 1965      E7020300 
 1966              		.cfi_offset 8, -8
 1967              		.cfi_offset 1, -4
 1968              		.cfi_def_cfa_offset 16
 1969 000a 2A84     		mv	s0,a0
1185:C:/Users/stapi/OneDrive/Desktop/GD32VW553/GD32VW55X_Wifi_BLE_SDK/GD32VW55x_RELEASE_V1.0.2/MSDK/lwip/lwip-2.1.2/port\wifi_netif.c ****         return -1;
1186:C:/Users/stapi/OneDrive/Desktop/GD32VW553/GD32VW55X_Wifi_BLE_SDK/GD32VW55x_RELEASE_V1.0.2/MSDK/lwip/lwip-2.1.2/port\wifi_netif.c **** 
1187:C:/Users/stapi/OneDrive/Desktop/GD32VW553/GD32VW55X_Wifi_BLE_SDK/GD32VW55x_RELEASE_V1.0.2/MSDK/lwip/lwip-2.1.2/port\wifi_netif.c ****     ip = dns_getserver(0);
 1970              		.loc 1 1187 5 is_stmt 1
 1971              		.loc 1 1187 10 is_stmt 0
 1972 000c 0145     		li	a0,0
 1973              	.LVL209:
 1974 000e 97000000 		call	dns_getserver
 1974      E7800000 
 1975              	.LVL210:
1188:C:/Users/stapi/OneDrive/Desktop/GD32VW553/GD32VW55X_Wifi_BLE_SDK/GD32VW55x_RELEASE_V1.0.2/MSDK/lwip/lwip-2.1.2/port\wifi_netif.c ****     *dns_server = ip_addr_get_ip4_u32(ip);
 1976              		.loc 1 1188 5 is_stmt 1
 1977              		.loc 1 1188 19 is_stmt 0
 1978 0016 1C41     		lw	a5,0(a0)
1189:C:/Users/stapi/OneDrive/Desktop/GD32VW553/GD32VW55X_Wifi_BLE_SDK/GD32VW55x_RELEASE_V1.0.2/MSDK/lwip/lwip-2.1.2/port\wifi_netif.c ****     return 0;
 1979              		.loc 1 1189 12
 1980 0018 0145     		li	a0,0
 1981              	.LVL211:
1188:C:/Users/stapi/OneDrive/Desktop/GD32VW553/GD32VW55X_Wifi_BLE_SDK/GD32VW55x_RELEASE_V1.0.2/MSDK/lwip/lwip-2.1.2/port\wifi_netif.c ****     *dns_server = ip_addr_get_ip4_u32(ip);
 1982              		.loc 1 1188 17
 1983 001a 1CC0     		sw	a5,0(s0)
 1984              		.loc 1 1189 5 is_stmt 1
1190:C:/Users/stapi/OneDrive/Desktop/GD32VW553/GD32VW55X_Wifi_BLE_SDK/GD32VW55x_RELEASE_V1.0.2/MSDK/lwip/lwip-2.1.2/port\wifi_netif.c ****     #else
1191:C:/Users/stapi/OneDrive/Desktop/GD32VW553/GD32VW55X_Wifi_BLE_SDK/GD32VW55x_RELEASE_V1.0.2/MSDK/lwip/lwip-2.1.2/port\wifi_netif.c ****     return -1;
1192:C:/Users/stapi/OneDrive/Desktop/GD32VW553/GD32VW55X_Wifi_BLE_SDK/GD32VW55x_RELEASE_V1.0.2/MSDK/lwip/lwip-2.1.2/port\wifi_netif.c ****     #endif
1193:C:/Users/stapi/OneDrive/Desktop/GD32VW553/GD32VW55X_Wifi_BLE_SDK/GD32VW55x_RELEASE_V1.0.2/MSDK/lwip/lwip-2.1.2/port\wifi_netif.c **** }
 1985              		.loc 1 1193 1 is_stmt 0
 1986 001c 17030000 		tail	__riscv_restore_1
 1986      67000300 
 1987              		.cfi_restore 8
 1988              		.cfi_restore 1
 1989              		.cfi_def_cfa_offset 0
 1990              	.LVL212:
 1991              	.L210:
1185:C:/Users/stapi/OneDrive/Desktop/GD32VW553/GD32VW55X_Wifi_BLE_SDK/GD32VW55x_RELEASE_V1.0.2/MSDK/lwip/lwip-2.1.2/port\wifi_netif.c **** 
 1992              		.loc 1 1185 16
 1993 0024 7D55     		li	a0,-1
 1994              	.LVL213:
 1995              		.loc 1 1193 1
 1996 0026 8280     		ret
 1997              		.cfi_endproc
 1998              	.LFE50:
 2000              		.section	.text.net_compat_check,"ax",@progbits
 2001              		.align	1
 2002              		.globl	net_compat_check
 2004              	net_compat_check:
 2005              	.LFB51:
1194:C:/Users/stapi/OneDrive/Desktop/GD32VW553/GD32VW55X_Wifi_BLE_SDK/GD32VW55x_RELEASE_V1.0.2/MSDK/lwip/lwip-2.1.2/port\wifi_netif.c **** 
1195:C:/Users/stapi/OneDrive/Desktop/GD32VW553/GD32VW55X_Wifi_BLE_SDK/GD32VW55x_RELEASE_V1.0.2/MSDK/lwip/lwip-2.1.2/port\wifi_netif.c **** /*!
1196:C:/Users/stapi/OneDrive/Desktop/GD32VW553/GD32VW55X_Wifi_BLE_SDK/GD32VW55x_RELEASE_V1.0.2/MSDK/lwip/lwip-2.1.2/port\wifi_netif.c ****     \brief      compatibility check of struct netif
1197:C:/Users/stapi/OneDrive/Desktop/GD32VW553/GD32VW55X_Wifi_BLE_SDK/GD32VW55x_RELEASE_V1.0.2/MSDK/lwip/lwip-2.1.2/port\wifi_netif.c ****     \param[in]  netif_size: size of struct netif which need to be checked
1198:C:/Users/stapi/OneDrive/Desktop/GD32VW553/GD32VW55X_Wifi_BLE_SDK/GD32VW55x_RELEASE_V1.0.2/MSDK/lwip/lwip-2.1.2/port\wifi_netif.c ****     \param[out] none
1199:C:/Users/stapi/OneDrive/Desktop/GD32VW553/GD32VW55X_Wifi_BLE_SDK/GD32VW55x_RELEASE_V1.0.2/MSDK/lwip/lwip-2.1.2/port\wifi_netif.c ****     \retval     0 on success and 1 if check fails.
1200:C:/Users/stapi/OneDrive/Desktop/GD32VW553/GD32VW55X_Wifi_BLE_SDK/GD32VW55x_RELEASE_V1.0.2/MSDK/lwip/lwip-2.1.2/port\wifi_netif.c **** */
1201:C:/Users/stapi/OneDrive/Desktop/GD32VW553/GD32VW55X_Wifi_BLE_SDK/GD32VW55x_RELEASE_V1.0.2/MSDK/lwip/lwip-2.1.2/port\wifi_netif.c **** int net_compat_check(size_t netif_size)
1202:C:/Users/stapi/OneDrive/Desktop/GD32VW553/GD32VW55X_Wifi_BLE_SDK/GD32VW55x_RELEASE_V1.0.2/MSDK/lwip/lwip-2.1.2/port\wifi_netif.c **** {
 2006              		.loc 1 1202 1 is_stmt 1
 2007              		.cfi_startproc
 2008              	.LVL214:
1203:C:/Users/stapi/OneDrive/Desktop/GD32VW553/GD32VW55X_Wifi_BLE_SDK/GD32VW55x_RELEASE_V1.0.2/MSDK/lwip/lwip-2.1.2/port\wifi_netif.c ****     return (netif_size != sizeof(struct netif));
 2009              		.loc 1 1203 5
 2010              		.loc 1 1203 24 is_stmt 0
 2011 0000 1305C5FB 		addi	a0,a0,-68
 2012              	.LVL215:
1204:C:/Users/stapi/OneDrive/Desktop/GD32VW553/GD32VW55X_Wifi_BLE_SDK/GD32VW55x_RELEASE_V1.0.2/MSDK/lwip/lwip-2.1.2/port\wifi_netif.c **** }
 2013              		.loc 1 1204 1
 2014 0004 3335A000 		snez	a0,a0
 2015              	.LVL216:
 2016 0008 8280     		ret
 2017              		.cfi_endproc
 2018              	.LFE51:
 2020              		.section	.text.net_lpbk_socket_create,"ax",@progbits
 2021              		.align	1
 2022              		.globl	net_lpbk_socket_create
 2024              	net_lpbk_socket_create:
 2025              	.LFB52:
1205:C:/Users/stapi/OneDrive/Desktop/GD32VW553/GD32VW55X_Wifi_BLE_SDK/GD32VW55x_RELEASE_V1.0.2/MSDK/lwip/lwip-2.1.2/port\wifi_netif.c **** 
1206:C:/Users/stapi/OneDrive/Desktop/GD32VW553/GD32VW55X_Wifi_BLE_SDK/GD32VW55x_RELEASE_V1.0.2/MSDK/lwip/lwip-2.1.2/port\wifi_netif.c **** /*!
1207:C:/Users/stapi/OneDrive/Desktop/GD32VW553/GD32VW55X_Wifi_BLE_SDK/GD32VW55x_RELEASE_V1.0.2/MSDK/lwip/lwip-2.1.2/port\wifi_netif.c ****     \brief      get a loopback socket
1208:C:/Users/stapi/OneDrive/Desktop/GD32VW553/GD32VW55X_Wifi_BLE_SDK/GD32VW55x_RELEASE_V1.0.2/MSDK/lwip/lwip-2.1.2/port\wifi_netif.c ****     \param[in]  protocol: protocol type of socket
1209:C:/Users/stapi/OneDrive/Desktop/GD32VW553/GD32VW55X_Wifi_BLE_SDK/GD32VW55x_RELEASE_V1.0.2/MSDK/lwip/lwip-2.1.2/port\wifi_netif.c ****     \param[out] none
1210:C:/Users/stapi/OneDrive/Desktop/GD32VW553/GD32VW55X_Wifi_BLE_SDK/GD32VW55x_RELEASE_V1.0.2/MSDK/lwip/lwip-2.1.2/port\wifi_netif.c ****     \retval     socket descriptor on success and -1 if error occurred.
1211:C:/Users/stapi/OneDrive/Desktop/GD32VW553/GD32VW55X_Wifi_BLE_SDK/GD32VW55x_RELEASE_V1.0.2/MSDK/lwip/lwip-2.1.2/port\wifi_netif.c **** */
1212:C:/Users/stapi/OneDrive/Desktop/GD32VW553/GD32VW55X_Wifi_BLE_SDK/GD32VW55x_RELEASE_V1.0.2/MSDK/lwip/lwip-2.1.2/port\wifi_netif.c **** int net_lpbk_socket_create(int protocol)
1213:C:/Users/stapi/OneDrive/Desktop/GD32VW553/GD32VW55X_Wifi_BLE_SDK/GD32VW55x_RELEASE_V1.0.2/MSDK/lwip/lwip-2.1.2/port\wifi_netif.c **** {
 2026              		.loc 1 1213 1 is_stmt 1
 2027              		.cfi_startproc
 2028              	.LVL217:
 2029 0000 17030000 		call	t0,__riscv_save_0
 2029      E7020300 
 2030              		.cfi_offset 1, -4
 2031              		.cfi_def_cfa_offset 16
1214:C:/Users/stapi/OneDrive/Desktop/GD32VW553/GD32VW55X_Wifi_BLE_SDK/GD32VW55x_RELEASE_V1.0.2/MSDK/lwip/lwip-2.1.2/port\wifi_netif.c ****     int sock;
 2032              		.loc 1 1214 5
1215:C:/Users/stapi/OneDrive/Desktop/GD32VW553/GD32VW55X_Wifi_BLE_SDK/GD32VW55x_RELEASE_V1.0.2/MSDK/lwip/lwip-2.1.2/port\wifi_netif.c **** 
1216:C:/Users/stapi/OneDrive/Desktop/GD32VW553/GD32VW55X_Wifi_BLE_SDK/GD32VW55x_RELEASE_V1.0.2/MSDK/lwip/lwip-2.1.2/port\wifi_netif.c ****     sock = socket(PF_INET, SOCK_DGRAM, protocol);
 2033              		.loc 1 1216 5
1213:C:/Users/stapi/OneDrive/Desktop/GD32VW553/GD32VW55X_Wifi_BLE_SDK/GD32VW55x_RELEASE_V1.0.2/MSDK/lwip/lwip-2.1.2/port\wifi_netif.c ****     int sock;
 2034              		.loc 1 1213 1 is_stmt 0
 2035 0008 2A86     		mv	a2,a0
 2036              		.loc 1 1216 12
 2037 000a 8945     		li	a1,2
 2038 000c 0945     		li	a0,2
 2039              	.LVL218:
 2040 000e 97000000 		call	lwip_socket
 2040      E7800000 
 2041              	.LVL219:
1217:C:/Users/stapi/OneDrive/Desktop/GD32VW553/GD32VW55X_Wifi_BLE_SDK/GD32VW55x_RELEASE_V1.0.2/MSDK/lwip/lwip-2.1.2/port\wifi_netif.c ****     if (sock < 0)
 2042              		.loc 1 1217 5 is_stmt 1
1218:C:/Users/stapi/OneDrive/Desktop/GD32VW553/GD32VW55X_Wifi_BLE_SDK/GD32VW55x_RELEASE_V1.0.2/MSDK/lwip/lwip-2.1.2/port\wifi_netif.c ****         return -1;
1219:C:/Users/stapi/OneDrive/Desktop/GD32VW553/GD32VW55X_Wifi_BLE_SDK/GD32VW55x_RELEASE_V1.0.2/MSDK/lwip/lwip-2.1.2/port\wifi_netif.c **** 
1220:C:/Users/stapi/OneDrive/Desktop/GD32VW553/GD32VW55X_Wifi_BLE_SDK/GD32VW55x_RELEASE_V1.0.2/MSDK/lwip/lwip-2.1.2/port\wifi_netif.c ****     return sock;
1221:C:/Users/stapi/OneDrive/Desktop/GD32VW553/GD32VW55X_Wifi_BLE_SDK/GD32VW55x_RELEASE_V1.0.2/MSDK/lwip/lwip-2.1.2/port\wifi_netif.c **** }
 2043              		.loc 1 1221 1 is_stmt 0
 2044 0016 FD57     		li	a5,-1
 2045 0018 3365F50A 		max	a0,a0,a5
 2046              	.LVL220:
 2047 001c 17030000 		tail	__riscv_restore_0
 2047      67000300 
 2048              		.cfi_restore 1
 2049              		.cfi_def_cfa_offset 0
 2050              		.cfi_endproc
 2051              	.LFE52:
 2053              		.section	.text.net_lpbk_socket_bind,"ax",@progbits
 2054              		.align	1
 2055              		.globl	net_lpbk_socket_bind
 2057              	net_lpbk_socket_bind:
 2058              	.LFB53:
1222:C:/Users/stapi/OneDrive/Desktop/GD32VW553/GD32VW55X_Wifi_BLE_SDK/GD32VW55x_RELEASE_V1.0.2/MSDK/lwip/lwip-2.1.2/port\wifi_netif.c **** 
1223:C:/Users/stapi/OneDrive/Desktop/GD32VW553/GD32VW55X_Wifi_BLE_SDK/GD32VW55x_RELEASE_V1.0.2/MSDK/lwip/lwip-2.1.2/port\wifi_netif.c **** /*!
1224:C:/Users/stapi/OneDrive/Desktop/GD32VW553/GD32VW55X_Wifi_BLE_SDK/GD32VW55x_RELEASE_V1.0.2/MSDK/lwip/lwip-2.1.2/port\wifi_netif.c ****     \brief      bind a loopback socket with network infomation
1225:C:/Users/stapi/OneDrive/Desktop/GD32VW553/GD32VW55X_Wifi_BLE_SDK/GD32VW55x_RELEASE_V1.0.2/MSDK/lwip/lwip-2.1.2/port\wifi_netif.c ****     \param[in]  sock_recv: socket descriptor
1226:C:/Users/stapi/OneDrive/Desktop/GD32VW553/GD32VW55X_Wifi_BLE_SDK/GD32VW55x_RELEASE_V1.0.2/MSDK/lwip/lwip-2.1.2/port\wifi_netif.c ****     \param[in]  port: port of network
1227:C:/Users/stapi/OneDrive/Desktop/GD32VW553/GD32VW55X_Wifi_BLE_SDK/GD32VW55x_RELEASE_V1.0.2/MSDK/lwip/lwip-2.1.2/port\wifi_netif.c ****     \param[out] none
1228:C:/Users/stapi/OneDrive/Desktop/GD32VW553/GD32VW55X_Wifi_BLE_SDK/GD32VW55x_RELEASE_V1.0.2/MSDK/lwip/lwip-2.1.2/port\wifi_netif.c ****     \retval     0 on success and -1 if error occurred.
1229:C:/Users/stapi/OneDrive/Desktop/GD32VW553/GD32VW55X_Wifi_BLE_SDK/GD32VW55x_RELEASE_V1.0.2/MSDK/lwip/lwip-2.1.2/port\wifi_netif.c **** */
1230:C:/Users/stapi/OneDrive/Desktop/GD32VW553/GD32VW55X_Wifi_BLE_SDK/GD32VW55x_RELEASE_V1.0.2/MSDK/lwip/lwip-2.1.2/port\wifi_netif.c **** int net_lpbk_socket_bind(int sock_recv, uint32_t port)
1231:C:/Users/stapi/OneDrive/Desktop/GD32VW553/GD32VW55X_Wifi_BLE_SDK/GD32VW55x_RELEASE_V1.0.2/MSDK/lwip/lwip-2.1.2/port\wifi_netif.c **** {
 2059              		.loc 1 1231 1 is_stmt 1
 2060              		.cfi_startproc
 2061              	.LVL221:
 2062 0000 17030000 		call	t0,__riscv_save_2
 2062      E7020300 
 2063              		.cfi_offset 9, -12
 2064              		.cfi_offset 8, -8
 2065              		.cfi_offset 1, -4
 2066              		.cfi_def_cfa_offset 16
1232:C:/Users/stapi/OneDrive/Desktop/GD32VW553/GD32VW55X_Wifi_BLE_SDK/GD32VW55x_RELEASE_V1.0.2/MSDK/lwip/lwip-2.1.2/port\wifi_netif.c ****     struct sockaddr_in recv_addr;
 2067              		.loc 1 1232 5
1233:C:/Users/stapi/OneDrive/Desktop/GD32VW553/GD32VW55X_Wifi_BLE_SDK/GD32VW55x_RELEASE_V1.0.2/MSDK/lwip/lwip-2.1.2/port\wifi_netif.c **** 
1234:C:/Users/stapi/OneDrive/Desktop/GD32VW553/GD32VW55X_Wifi_BLE_SDK/GD32VW55x_RELEASE_V1.0.2/MSDK/lwip/lwip-2.1.2/port\wifi_netif.c ****     sys_memset(&recv_addr, 0, sizeof(recv_addr));
 2068              		.loc 1 1234 5
1231:C:/Users/stapi/OneDrive/Desktop/GD32VW553/GD32VW55X_Wifi_BLE_SDK/GD32VW55x_RELEASE_V1.0.2/MSDK/lwip/lwip-2.1.2/port\wifi_netif.c ****     struct sockaddr_in recv_addr;
 2069              		.loc 1 1231 1 is_stmt 0
 2070 0008 4111     		addi	sp,sp,-16
 2071              		.cfi_def_cfa_offset 32
1231:C:/Users/stapi/OneDrive/Desktop/GD32VW553/GD32VW55X_Wifi_BLE_SDK/GD32VW55x_RELEASE_V1.0.2/MSDK/lwip/lwip-2.1.2/port\wifi_netif.c ****     struct sockaddr_in recv_addr;
 2072              		.loc 1 1231 1
 2073 000a 2A84     		mv	s0,a0
 2074              		.loc 1 1234 5
 2075 000c 4146     		li	a2,16
1231:C:/Users/stapi/OneDrive/Desktop/GD32VW553/GD32VW55X_Wifi_BLE_SDK/GD32VW55x_RELEASE_V1.0.2/MSDK/lwip/lwip-2.1.2/port\wifi_netif.c ****     struct sockaddr_in recv_addr;
 2076              		.loc 1 1231 1
 2077 000e AE84     		mv	s1,a1
 2078              		.loc 1 1234 5
 2079 0010 0A85     		mv	a0,sp
 2080              	.LVL222:
 2081 0012 8145     		li	a1,0
 2082              	.LVL223:
 2083 0014 97000000 		call	sys_memset
 2083      E7800000 
 2084              	.LVL224:
1235:C:/Users/stapi/OneDrive/Desktop/GD32VW553/GD32VW55X_Wifi_BLE_SDK/GD32VW55x_RELEASE_V1.0.2/MSDK/lwip/lwip-2.1.2/port\wifi_netif.c ****     recv_addr.sin_family = AF_INET;
 2085              		.loc 1 1235 5 is_stmt 1
1236:C:/Users/stapi/OneDrive/Desktop/GD32VW553/GD32VW55X_Wifi_BLE_SDK/GD32VW55x_RELEASE_V1.0.2/MSDK/lwip/lwip-2.1.2/port\wifi_netif.c ****     recv_addr.sin_addr.s_addr = htonl(INADDR_LOOPBACK);
 2086              		.loc 1 1236 33 is_stmt 0
 2087 001c 3705007F 		li	a0,2130706432
1235:C:/Users/stapi/OneDrive/Desktop/GD32VW553/GD32VW55X_Wifi_BLE_SDK/GD32VW55x_RELEASE_V1.0.2/MSDK/lwip/lwip-2.1.2/port\wifi_netif.c ****     recv_addr.sin_family = AF_INET;
 2088              		.loc 1 1235 26
 2089 0020 8947     		li	a5,2
 2090              		.loc 1 1236 33
 2091 0022 0505     		addi	a0,a0,1
1235:C:/Users/stapi/OneDrive/Desktop/GD32VW553/GD32VW55X_Wifi_BLE_SDK/GD32VW55x_RELEASE_V1.0.2/MSDK/lwip/lwip-2.1.2/port\wifi_netif.c ****     recv_addr.sin_family = AF_INET;
 2092              		.loc 1 1235 26
 2093 0024 A300F100 		sb	a5,1(sp)
 2094              		.loc 1 1236 5 is_stmt 1
 2095              		.loc 1 1236 33 is_stmt 0
 2096 0028 97000000 		call	lwip_htonl
 2096      E7800000 
 2097              	.LVL225:
 2098              		.loc 1 1236 31
 2099 0030 2AC2     		sw	a0,4(sp)
1237:C:/Users/stapi/OneDrive/Desktop/GD32VW553/GD32VW55X_Wifi_BLE_SDK/GD32VW55x_RELEASE_V1.0.2/MSDK/lwip/lwip-2.1.2/port\wifi_netif.c ****     recv_addr.sin_port = htons(port);
 2100              		.loc 1 1237 5 is_stmt 1
 2101              		.loc 1 1237 26 is_stmt 0
 2102 0032 33C50408 		zext.h	a0,s1
 2103 0036 97000000 		call	lwip_htons
 2103      E7800000 
 2104              	.LVL226:
 2105              		.loc 1 1237 24
 2106 003e 2311A100 		sh	a0,2(sp)
1238:C:/Users/stapi/OneDrive/Desktop/GD32VW553/GD32VW55X_Wifi_BLE_SDK/GD32VW55x_RELEASE_V1.0.2/MSDK/lwip/lwip-2.1.2/port\wifi_netif.c ****     if (bind(sock_recv, (struct sockaddr *)&recv_addr, sizeof(recv_addr)) < 0)
 2107              		.loc 1 1238 5 is_stmt 1
 2108              		.loc 1 1238 9 is_stmt 0
 2109 0042 8A85     		mv	a1,sp
 2110 0044 4146     		li	a2,16
 2111 0046 2285     		mv	a0,s0
 2112 0048 97000000 		call	lwip_bind
 2112      E7800000 
 2113              	.LVL227:
1239:C:/Users/stapi/OneDrive/Desktop/GD32VW553/GD32VW55X_Wifi_BLE_SDK/GD32VW55x_RELEASE_V1.0.2/MSDK/lwip/lwip-2.1.2/port\wifi_netif.c ****         return -1;
1240:C:/Users/stapi/OneDrive/Desktop/GD32VW553/GD32VW55X_Wifi_BLE_SDK/GD32VW55x_RELEASE_V1.0.2/MSDK/lwip/lwip-2.1.2/port\wifi_netif.c **** 
1241:C:/Users/stapi/OneDrive/Desktop/GD32VW553/GD32VW55X_Wifi_BLE_SDK/GD32VW55x_RELEASE_V1.0.2/MSDK/lwip/lwip-2.1.2/port\wifi_netif.c ****     return 0;
1242:C:/Users/stapi/OneDrive/Desktop/GD32VW553/GD32VW55X_Wifi_BLE_SDK/GD32VW55x_RELEASE_V1.0.2/MSDK/lwip/lwip-2.1.2/port\wifi_netif.c **** }
 2114              		.loc 1 1242 1
 2115 0050 7D85     		srai	a0,a0,31
 2116 0052 4101     		addi	sp,sp,16
 2117              		.cfi_def_cfa_offset 0
 2118 0054 17030000 		tail	__riscv_restore_2
 2118      67000300 
 2119              		.cfi_restore 9
 2120              		.cfi_restore 8
 2121              		.cfi_restore 1
 2122              		.cfi_def_cfa_offset -16
 2123              		.cfi_endproc
 2124              	.LFE53:
 2126              		.section	.text.net_lpbk_socket_connect,"ax",@progbits
 2127              		.align	1
 2128              		.globl	net_lpbk_socket_connect
 2130              	net_lpbk_socket_connect:
 2131              	.LFB54:
1243:C:/Users/stapi/OneDrive/Desktop/GD32VW553/GD32VW55X_Wifi_BLE_SDK/GD32VW55x_RELEASE_V1.0.2/MSDK/lwip/lwip-2.1.2/port\wifi_netif.c **** 
1244:C:/Users/stapi/OneDrive/Desktop/GD32VW553/GD32VW55X_Wifi_BLE_SDK/GD32VW55x_RELEASE_V1.0.2/MSDK/lwip/lwip-2.1.2/port\wifi_netif.c **** /*!
1245:C:/Users/stapi/OneDrive/Desktop/GD32VW553/GD32VW55X_Wifi_BLE_SDK/GD32VW55x_RELEASE_V1.0.2/MSDK/lwip/lwip-2.1.2/port\wifi_netif.c ****     \brief      connect a loopback socket to remote network infomation
1246:C:/Users/stapi/OneDrive/Desktop/GD32VW553/GD32VW55X_Wifi_BLE_SDK/GD32VW55x_RELEASE_V1.0.2/MSDK/lwip/lwip-2.1.2/port\wifi_netif.c ****     \param[in]  sock_send: socket descriptor
1247:C:/Users/stapi/OneDrive/Desktop/GD32VW553/GD32VW55X_Wifi_BLE_SDK/GD32VW55x_RELEASE_V1.0.2/MSDK/lwip/lwip-2.1.2/port\wifi_netif.c ****     \param[in]  port: port of network
1248:C:/Users/stapi/OneDrive/Desktop/GD32VW553/GD32VW55X_Wifi_BLE_SDK/GD32VW55x_RELEASE_V1.0.2/MSDK/lwip/lwip-2.1.2/port\wifi_netif.c ****     \param[out] none
1249:C:/Users/stapi/OneDrive/Desktop/GD32VW553/GD32VW55X_Wifi_BLE_SDK/GD32VW55x_RELEASE_V1.0.2/MSDK/lwip/lwip-2.1.2/port\wifi_netif.c ****     \retval     0 on success and -1 if error occurred.
1250:C:/Users/stapi/OneDrive/Desktop/GD32VW553/GD32VW55X_Wifi_BLE_SDK/GD32VW55x_RELEASE_V1.0.2/MSDK/lwip/lwip-2.1.2/port\wifi_netif.c **** */
1251:C:/Users/stapi/OneDrive/Desktop/GD32VW553/GD32VW55X_Wifi_BLE_SDK/GD32VW55x_RELEASE_V1.0.2/MSDK/lwip/lwip-2.1.2/port\wifi_netif.c **** int net_lpbk_socket_connect(int sock_send, uint32_t port)
1252:C:/Users/stapi/OneDrive/Desktop/GD32VW553/GD32VW55X_Wifi_BLE_SDK/GD32VW55x_RELEASE_V1.0.2/MSDK/lwip/lwip-2.1.2/port\wifi_netif.c **** {
 2132              		.loc 1 1252 1 is_stmt 1
 2133              		.cfi_startproc
 2134              	.LVL228:
 2135 0000 17030000 		call	t0,__riscv_save_2
 2135      E7020300 
 2136              		.cfi_offset 9, -12
 2137              		.cfi_offset 8, -8
 2138              		.cfi_offset 1, -4
 2139              		.cfi_def_cfa_offset 16
1253:C:/Users/stapi/OneDrive/Desktop/GD32VW553/GD32VW55X_Wifi_BLE_SDK/GD32VW55x_RELEASE_V1.0.2/MSDK/lwip/lwip-2.1.2/port\wifi_netif.c ****     struct sockaddr_in send_addr;
 2140              		.loc 1 1253 5
1254:C:/Users/stapi/OneDrive/Desktop/GD32VW553/GD32VW55X_Wifi_BLE_SDK/GD32VW55x_RELEASE_V1.0.2/MSDK/lwip/lwip-2.1.2/port\wifi_netif.c **** 
1255:C:/Users/stapi/OneDrive/Desktop/GD32VW553/GD32VW55X_Wifi_BLE_SDK/GD32VW55x_RELEASE_V1.0.2/MSDK/lwip/lwip-2.1.2/port\wifi_netif.c ****     sys_memset(&send_addr, 0, sizeof(send_addr));
 2141              		.loc 1 1255 5
1252:C:/Users/stapi/OneDrive/Desktop/GD32VW553/GD32VW55X_Wifi_BLE_SDK/GD32VW55x_RELEASE_V1.0.2/MSDK/lwip/lwip-2.1.2/port\wifi_netif.c ****     struct sockaddr_in send_addr;
 2142              		.loc 1 1252 1 is_stmt 0
 2143 0008 4111     		addi	sp,sp,-16
 2144              		.cfi_def_cfa_offset 32
1252:C:/Users/stapi/OneDrive/Desktop/GD32VW553/GD32VW55X_Wifi_BLE_SDK/GD32VW55x_RELEASE_V1.0.2/MSDK/lwip/lwip-2.1.2/port\wifi_netif.c ****     struct sockaddr_in send_addr;
 2145              		.loc 1 1252 1
 2146 000a 2A84     		mv	s0,a0
 2147              		.loc 1 1255 5
 2148 000c 4146     		li	a2,16
1252:C:/Users/stapi/OneDrive/Desktop/GD32VW553/GD32VW55X_Wifi_BLE_SDK/GD32VW55x_RELEASE_V1.0.2/MSDK/lwip/lwip-2.1.2/port\wifi_netif.c ****     struct sockaddr_in send_addr;
 2149              		.loc 1 1252 1
 2150 000e AE84     		mv	s1,a1
 2151              		.loc 1 1255 5
 2152 0010 0A85     		mv	a0,sp
 2153              	.LVL229:
 2154 0012 8145     		li	a1,0
 2155              	.LVL230:
 2156 0014 97000000 		call	sys_memset
 2156      E7800000 
 2157              	.LVL231:
1256:C:/Users/stapi/OneDrive/Desktop/GD32VW553/GD32VW55X_Wifi_BLE_SDK/GD32VW55x_RELEASE_V1.0.2/MSDK/lwip/lwip-2.1.2/port\wifi_netif.c ****     send_addr.sin_family = AF_INET;
 2158              		.loc 1 1256 5 is_stmt 1
1257:C:/Users/stapi/OneDrive/Desktop/GD32VW553/GD32VW55X_Wifi_BLE_SDK/GD32VW55x_RELEASE_V1.0.2/MSDK/lwip/lwip-2.1.2/port\wifi_netif.c ****     send_addr.sin_addr.s_addr = htonl(INADDR_LOOPBACK);
 2159              		.loc 1 1257 33 is_stmt 0
 2160 001c 3705007F 		li	a0,2130706432
1256:C:/Users/stapi/OneDrive/Desktop/GD32VW553/GD32VW55X_Wifi_BLE_SDK/GD32VW55x_RELEASE_V1.0.2/MSDK/lwip/lwip-2.1.2/port\wifi_netif.c ****     send_addr.sin_family = AF_INET;
 2161              		.loc 1 1256 26
 2162 0020 8947     		li	a5,2
 2163              		.loc 1 1257 33
 2164 0022 0505     		addi	a0,a0,1
1256:C:/Users/stapi/OneDrive/Desktop/GD32VW553/GD32VW55X_Wifi_BLE_SDK/GD32VW55x_RELEASE_V1.0.2/MSDK/lwip/lwip-2.1.2/port\wifi_netif.c ****     send_addr.sin_family = AF_INET;
 2165              		.loc 1 1256 26
 2166 0024 A300F100 		sb	a5,1(sp)
 2167              		.loc 1 1257 5 is_stmt 1
 2168              		.loc 1 1257 33 is_stmt 0
 2169 0028 97000000 		call	lwip_htonl
 2169      E7800000 
 2170              	.LVL232:
 2171              		.loc 1 1257 31
 2172 0030 2AC2     		sw	a0,4(sp)
1258:C:/Users/stapi/OneDrive/Desktop/GD32VW553/GD32VW55X_Wifi_BLE_SDK/GD32VW55x_RELEASE_V1.0.2/MSDK/lwip/lwip-2.1.2/port\wifi_netif.c ****     send_addr.sin_port = htons(port);
 2173              		.loc 1 1258 5 is_stmt 1
 2174              		.loc 1 1258 26 is_stmt 0
 2175 0032 33C50408 		zext.h	a0,s1
 2176 0036 97000000 		call	lwip_htons
 2176      E7800000 
 2177              	.LVL233:
 2178              		.loc 1 1258 24
 2179 003e 2311A100 		sh	a0,2(sp)
1259:C:/Users/stapi/OneDrive/Desktop/GD32VW553/GD32VW55X_Wifi_BLE_SDK/GD32VW55x_RELEASE_V1.0.2/MSDK/lwip/lwip-2.1.2/port\wifi_netif.c ****     if (connect(sock_send, (struct sockaddr *)&send_addr, sizeof(send_addr)) < 0)
 2180              		.loc 1 1259 5 is_stmt 1
 2181              		.loc 1 1259 9 is_stmt 0
 2182 0042 8A85     		mv	a1,sp
 2183 0044 4146     		li	a2,16
 2184 0046 2285     		mv	a0,s0
 2185 0048 97000000 		call	lwip_connect
 2185      E7800000 
 2186              	.LVL234:
1260:C:/Users/stapi/OneDrive/Desktop/GD32VW553/GD32VW55X_Wifi_BLE_SDK/GD32VW55x_RELEASE_V1.0.2/MSDK/lwip/lwip-2.1.2/port\wifi_netif.c ****         return -1;
1261:C:/Users/stapi/OneDrive/Desktop/GD32VW553/GD32VW55X_Wifi_BLE_SDK/GD32VW55x_RELEASE_V1.0.2/MSDK/lwip/lwip-2.1.2/port\wifi_netif.c **** 
1262:C:/Users/stapi/OneDrive/Desktop/GD32VW553/GD32VW55X_Wifi_BLE_SDK/GD32VW55x_RELEASE_V1.0.2/MSDK/lwip/lwip-2.1.2/port\wifi_netif.c ****     return 0;
1263:C:/Users/stapi/OneDrive/Desktop/GD32VW553/GD32VW55X_Wifi_BLE_SDK/GD32VW55x_RELEASE_V1.0.2/MSDK/lwip/lwip-2.1.2/port\wifi_netif.c **** }
 2187              		.loc 1 1263 1
 2188 0050 7D85     		srai	a0,a0,31
 2189 0052 4101     		addi	sp,sp,16
 2190              		.cfi_def_cfa_offset 0
 2191 0054 17030000 		tail	__riscv_restore_2
 2191      67000300 
 2192              		.cfi_restore 9
 2193              		.cfi_restore 8
 2194              		.cfi_restore 1
 2195              		.cfi_def_cfa_offset -16
 2196              		.cfi_endproc
 2197              	.LFE54:
 2199              		.section	.text.net_if_use_static_ip,"ax",@progbits
 2200              		.align	1
 2201              		.globl	net_if_use_static_ip
 2203              	net_if_use_static_ip:
 2204              	.LFB55:
1264:C:/Users/stapi/OneDrive/Desktop/GD32VW553/GD32VW55X_Wifi_BLE_SDK/GD32VW55x_RELEASE_V1.0.2/MSDK/lwip/lwip-2.1.2/port\wifi_netif.c **** 
1265:C:/Users/stapi/OneDrive/Desktop/GD32VW553/GD32VW55X_Wifi_BLE_SDK/GD32VW55x_RELEASE_V1.0.2/MSDK/lwip/lwip-2.1.2/port\wifi_netif.c **** /*!
1266:C:/Users/stapi/OneDrive/Desktop/GD32VW553/GD32VW55X_Wifi_BLE_SDK/GD32VW55x_RELEASE_V1.0.2/MSDK/lwip/lwip-2.1.2/port\wifi_netif.c ****     \brief      indicate whether to use static ip
1267:C:/Users/stapi/OneDrive/Desktop/GD32VW553/GD32VW55X_Wifi_BLE_SDK/GD32VW55x_RELEASE_V1.0.2/MSDK/lwip/lwip-2.1.2/port\wifi_netif.c ****     \param[in]  static_ip: true if use static ip and false if not use.
1268:C:/Users/stapi/OneDrive/Desktop/GD32VW553/GD32VW55X_Wifi_BLE_SDK/GD32VW55x_RELEASE_V1.0.2/MSDK/lwip/lwip-2.1.2/port\wifi_netif.c ****     \param[out] none
1269:C:/Users/stapi/OneDrive/Desktop/GD32VW553/GD32VW55X_Wifi_BLE_SDK/GD32VW55x_RELEASE_V1.0.2/MSDK/lwip/lwip-2.1.2/port\wifi_netif.c ****     \retval     none
1270:C:/Users/stapi/OneDrive/Desktop/GD32VW553/GD32VW55X_Wifi_BLE_SDK/GD32VW55x_RELEASE_V1.0.2/MSDK/lwip/lwip-2.1.2/port\wifi_netif.c **** */
1271:C:/Users/stapi/OneDrive/Desktop/GD32VW553/GD32VW55X_Wifi_BLE_SDK/GD32VW55x_RELEASE_V1.0.2/MSDK/lwip/lwip-2.1.2/port\wifi_netif.c **** void net_if_use_static_ip(bool static_ip)
1272:C:/Users/stapi/OneDrive/Desktop/GD32VW553/GD32VW55X_Wifi_BLE_SDK/GD32VW55x_RELEASE_V1.0.2/MSDK/lwip/lwip-2.1.2/port\wifi_netif.c **** {
 2205              		.loc 1 1272 1 is_stmt 1
 2206              		.cfi_startproc
 2207              	.LVL235:
1273:C:/Users/stapi/OneDrive/Desktop/GD32VW553/GD32VW55X_Wifi_BLE_SDK/GD32VW55x_RELEASE_V1.0.2/MSDK/lwip/lwip-2.1.2/port\wifi_netif.c ****     netif_static_ip = static_ip;
 2208              		.loc 1 1273 5
 2209              		.loc 1 1273 21 is_stmt 0
 2210 0000 B7070000 		lui	a5,%hi(.LANCHOR4)
 2211 0004 2380A700 		sb	a0,%lo(.LANCHOR4)(a5)
1274:C:/Users/stapi/OneDrive/Desktop/GD32VW553/GD32VW55X_Wifi_BLE_SDK/GD32VW55x_RELEASE_V1.0.2/MSDK/lwip/lwip-2.1.2/port\wifi_netif.c **** }
 2212              		.loc 1 1274 1
 2213 0008 8280     		ret
 2214              		.cfi_endproc
 2215              	.LFE55:
 2217              		.section	.text.net_if_is_static_ip,"ax",@progbits
 2218              		.align	1
 2219              		.globl	net_if_is_static_ip
 2221              	net_if_is_static_ip:
 2222              	.LFB56:
1275:C:/Users/stapi/OneDrive/Desktop/GD32VW553/GD32VW55X_Wifi_BLE_SDK/GD32VW55x_RELEASE_V1.0.2/MSDK/lwip/lwip-2.1.2/port\wifi_netif.c **** 
1276:C:/Users/stapi/OneDrive/Desktop/GD32VW553/GD32VW55X_Wifi_BLE_SDK/GD32VW55x_RELEASE_V1.0.2/MSDK/lwip/lwip-2.1.2/port\wifi_netif.c **** /*!
1277:C:/Users/stapi/OneDrive/Desktop/GD32VW553/GD32VW55X_Wifi_BLE_SDK/GD32VW55x_RELEASE_V1.0.2/MSDK/lwip/lwip-2.1.2/port\wifi_netif.c ****     \brief      check if static ip is used
1278:C:/Users/stapi/OneDrive/Desktop/GD32VW553/GD32VW55X_Wifi_BLE_SDK/GD32VW55x_RELEASE_V1.0.2/MSDK/lwip/lwip-2.1.2/port\wifi_netif.c ****     \param[in]  none
1279:C:/Users/stapi/OneDrive/Desktop/GD32VW553/GD32VW55X_Wifi_BLE_SDK/GD32VW55x_RELEASE_V1.0.2/MSDK/lwip/lwip-2.1.2/port\wifi_netif.c ****     \param[out] none
1280:C:/Users/stapi/OneDrive/Desktop/GD32VW553/GD32VW55X_Wifi_BLE_SDK/GD32VW55x_RELEASE_V1.0.2/MSDK/lwip/lwip-2.1.2/port\wifi_netif.c ****     \retval     true if static ip used and false if not use.
1281:C:/Users/stapi/OneDrive/Desktop/GD32VW553/GD32VW55X_Wifi_BLE_SDK/GD32VW55x_RELEASE_V1.0.2/MSDK/lwip/lwip-2.1.2/port\wifi_netif.c **** */
1282:C:/Users/stapi/OneDrive/Desktop/GD32VW553/GD32VW55X_Wifi_BLE_SDK/GD32VW55x_RELEASE_V1.0.2/MSDK/lwip/lwip-2.1.2/port\wifi_netif.c **** bool net_if_is_static_ip(void)
1283:C:/Users/stapi/OneDrive/Desktop/GD32VW553/GD32VW55X_Wifi_BLE_SDK/GD32VW55x_RELEASE_V1.0.2/MSDK/lwip/lwip-2.1.2/port\wifi_netif.c **** {
 2223              		.loc 1 1283 1 is_stmt 1
 2224              		.cfi_startproc
1284:C:/Users/stapi/OneDrive/Desktop/GD32VW553/GD32VW55X_Wifi_BLE_SDK/GD32VW55x_RELEASE_V1.0.2/MSDK/lwip/lwip-2.1.2/port\wifi_netif.c ****     return netif_static_ip;
 2225              		.loc 1 1284 5
1285:C:/Users/stapi/OneDrive/Desktop/GD32VW553/GD32VW55X_Wifi_BLE_SDK/GD32VW55x_RELEASE_V1.0.2/MSDK/lwip/lwip-2.1.2/port\wifi_netif.c **** }
 2226              		.loc 1 1285 1 is_stmt 0
 2227 0000 B7070000 		lui	a5,%hi(.LANCHOR4)
 2228 0004 03C50700 		lbu	a0,%lo(.LANCHOR4)(a5)
 2229 0008 8280     		ret
 2230              		.cfi_endproc
 2231              	.LFE56:
 2233              		.section	.bss.l2_filter,"aw",@nobits
 2234              		.align	2
 2235              		.set	.LANCHOR1,. + 0
 2238              	l2_filter:
 2239 0000 00000000 		.zero	32
 2239      00000000 
 2239      00000000 
 2239      00000000 
 2239      00000000 
 2240              		.section	.sbss.ap_dhcpd_started,"aw",@nobits
 2241              		.set	.LANCHOR3,. + 0
 2244              	ap_dhcpd_started:
 2245 0000 00       		.zero	1
 2246              		.section	.sbss.l2_mutex,"aw",@nobits
 2247              		.align	2
 2248              		.set	.LANCHOR2,. + 0
 2251              	l2_mutex:
 2252 0000 00000000 		.zero	4
 2253              		.section	.sbss.l2_semaphore,"aw",@nobits
 2254              		.align	2
 2255              		.set	.LANCHOR0,. + 0
 2258              	l2_semaphore:
 2259 0000 00000000 		.zero	4
 2260              		.section	.sbss.netif_static_ip,"aw",@nobits
 2261              		.set	.LANCHOR4,. + 0
 2264              	netif_static_ip:
 2265 0000 00       		.zero	1
 2266              		.text
 2267              	.Letext0:
 2268              		.file 2 "c:\\users\\stapi\\onedrive\\desktop\\gd32vw553\\embeddedbuilder_v1.4.7.26843\\tools\\nucl
 2269              		.file 3 "c:\\users\\stapi\\onedrive\\desktop\\gd32vw553\\embeddedbuilder_v1.4.7.26843\\tools\\nucl
 2270              		.file 4 "c:\\users\\stapi\\onedrive\\desktop\\gd32vw553\\embeddedbuilder_v1.4.7.26843\\tools\\nucl
 2271              		.file 5 "..\\..\\..\\..\\lwip\\lwip-2.1.2\\src\\include/lwip/arch.h"
 2272              		.file 6 "..\\..\\..\\..\\lwip\\lwip-2.1.2\\src\\include/lwip/err.h"
 2273              		.file 7 "..\\..\\..\\..\\lwip\\lwip-2.1.2\\src\\include/lwip/pbuf.h"
 2274              		.file 8 "..\\..\\..\\..\\macsw\\import/lwip_import.h"
 2275              		.file 9 "..\\..\\..\\..\\rtos\\rtos_wrapper/wrapper_os.h"
 2276              		.file 10 "..\\..\\..\\..\\lwip\\lwip-2.1.2\\port/arch/sys_arch.h"
 2277              		.file 11 "..\\..\\..\\..\\lwip\\lwip-2.1.2\\src\\include/lwip/ip4_addr.h"
 2278              		.file 12 "..\\..\\..\\..\\lwip\\lwip-2.1.2\\src\\include/lwip/ip_addr.h"
 2279              		.file 13 "..\\..\\..\\..\\lwip\\lwip-2.1.2\\src\\include/lwip/memp.h"
 2280              		.file 14 "..\\..\\..\\..\\lwip\\lwip-2.1.2\\src\\include/lwip/netif.h"
 2281              		.file 15 "..\\..\\..\\..\\lwip\\lwip-2.1.2\\src\\include/lwip/prot/ip4.h"
 2282              		.file 16 "..\\..\\..\\..\\lwip\\lwip-2.1.2\\src\\include/lwip/prot/ieee.h"
 2283              		.file 17 "..\\..\\..\\..\\lwip\\lwip-2.1.2\\src\\include/lwip/prot/ethernet.h"
 2284              		.file 18 "..\\..\\..\\..\\lwip\\lwip-2.1.2\\src\\include/lwip/ip.h"
 2285              		.file 19 "..\\..\\..\\..\\lwip\\lwip-2.1.2\\src\\include/lwip/prot/udp.h"
 2286              		.file 20 "..\\..\\..\\..\\lwip\\lwip-2.1.2\\src\\include/lwip/udp.h"
 2287              		.file 21 "..\\..\\..\\..\\lwip\\lwip-2.1.2\\src\\include/lwip/netbuf.h"
 2288              		.file 22 "..\\..\\..\\..\\lwip\\lwip-2.1.2\\src\\include/lwip/api.h"
 2289              		.file 23 "..\\..\\..\\..\\lwip\\lwip-2.1.2\\src\\include/lwip/priv/api_msg.h"
 2290              		.file 24 "..\\..\\..\\..\\lwip\\lwip-2.1.2\\src\\include/lwip/inet.h"
 2291              		.file 25 "..\\..\\..\\..\\lwip\\lwip-2.1.2\\src\\include/lwip/sockets.h"
 2292              		.file 26 "..\\..\\..\\..\\util\\include/dbg_print.h"
 2293              		.file 27 "..\\..\\..\\..\\lwip\\lwip-2.1.2\\src\\include/lwip/def.h"
 2294              		.file 28 "..\\..\\..\\..\\lwip\\lwip-2.1.2\\src\\include/lwip/dns.h"
 2295              		.file 29 "C:/Users/stapi/OneDrive/Desktop/GD32VW553/GD32VW55X_Wifi_BLE_SDK/GD32VW55x_RELEASE_V1.0.
 2296              		.file 30 "..\\..\\..\\..\\lwip\\lwip-2.1.2\\src\\include/lwip/dhcp.h"
 2297              		.file 31 "..\\..\\..\\..\\lwip\\lwip-2.1.2\\src\\include/lwip/netifapi.h"
 2298              		.file 32 "..\\..\\..\\..\\lwip\\lwip-2.1.2\\src\\include/lwip/sys.h"
 2299              		.file 33 "..\\..\\..\\..\\macsw\\export/macif_api.h"
 2300              		.file 34 "..\\..\\..\\..\\util\\include/debug_print.h"
 2301              		.file 35 "..\\..\\..\\..\\lwip\\lwip-2.1.2\\src\\include/lwip/inet_chksum.h"
DEFINED SYMBOLS
                            *ABS*:0000000000000000 wifi_netif.c
C:\Users\stapi\AppData\Local\Temp\ccRf8fPj.s:12     .text.net_if_init:0000000000000000 net_if_init
C:\Users\stapi\AppData\Local\Temp\ccRf8fPj.s:16     .text.net_if_init:0000000000000000 .L0 
C:\Users\stapi\AppData\Local\Temp\ccRf8fPj.s:18     .text.net_if_init:0000000000000000 .L0 
C:\Users\stapi\AppData\Local\Temp\ccRf8fPj.s:19     .text.net_if_init:0000000000000000 .L0 
C:\Users\stapi\AppData\Local\Temp\ccRf8fPj.s:20     .text.net_if_init:0000000000000000 .L0 
C:\Users\stapi\AppData\Local\Temp\ccRf8fPj.s:21     .text.net_if_init:0000000000000000 .L0 
C:\Users\stapi\AppData\Local\Temp\ccRf8fPj.s:22     .text.net_if_init:0000000000000000 .L0 
C:\Users\stapi\AppData\Local\Temp\ccRf8fPj.s:23     .text.net_if_init:0000000000000000 .L0 
C:\Users\stapi\AppData\Local\Temp\ccRf8fPj.s:27     .text.net_if_init:000000000000000a .L0 
C:\Users\stapi\AppData\Local\Temp\ccRf8fPj.s:28     .text.net_if_init:000000000000000a .L0 
C:\Users\stapi\AppData\Local\Temp\ccRf8fPj.s:29     .text.net_if_init:000000000000000a .L0 
C:\Users\stapi\AppData\Local\Temp\ccRf8fPj.s:30     .text.net_if_init:000000000000000a .L0 
C:\Users\stapi\AppData\Local\Temp\ccRf8fPj.s:34     .text.net_if_init:0000000000000014 .L0 
C:\Users\stapi\AppData\Local\Temp\ccRf8fPj.s:35     .text.net_if_init:0000000000000014 .L0 
C:\Users\stapi\AppData\Local\Temp\ccRf8fPj.s:38     .text.net_if_init:000000000000001c .L0 
C:\Users\stapi\AppData\Local\Temp\ccRf8fPj.s:53     .text.net_if_output:0000000000000000 net_if_output
C:\Users\stapi\AppData\Local\Temp\ccRf8fPj.s:39     .text.net_if_init:000000000000001c .L0 
C:\Users\stapi\AppData\Local\Temp\ccRf8fPj.s:43     .text.net_if_init:0000000000000026 .L0 
C:\Users\stapi\AppData\Local\Temp\ccRf8fPj.s:44     .text.net_if_init:0000000000000026 .L0 
C:\Users\stapi\AppData\Local\Temp\ccRf8fPj.s:47     .text.net_if_init:000000000000002a .L0 
C:\Users\stapi\AppData\Local\Temp\ccRf8fPj.s:56     .text.net_if_output:0000000000000000 .L0 
C:\Users\stapi\AppData\Local\Temp\ccRf8fPj.s:58     .text.net_if_output:0000000000000000 .L0 
C:\Users\stapi\AppData\Local\Temp\ccRf8fPj.s:59     .text.net_if_output:0000000000000008 .L0 
C:\Users\stapi\AppData\Local\Temp\ccRf8fPj.s:60     .text.net_if_output:0000000000000008 .L0 
C:\Users\stapi\AppData\Local\Temp\ccRf8fPj.s:61     .text.net_if_output:0000000000000008 .L0 
C:\Users\stapi\AppData\Local\Temp\ccRf8fPj.s:62     .text.net_if_output:0000000000000008 .L0 
C:\Users\stapi\AppData\Local\Temp\ccRf8fPj.s:63     .text.net_if_output:0000000000000008 .L0 
C:\Users\stapi\AppData\Local\Temp\ccRf8fPj.s:64     .text.net_if_output:0000000000000008 .L0 
C:\Users\stapi\AppData\Local\Temp\ccRf8fPj.s:67     .text.net_if_output:0000000000000008 .L0 
C:\Users\stapi\AppData\Local\Temp\ccRf8fPj.s:68     .text.net_if_output:0000000000000008 .L0 
C:\Users\stapi\AppData\Local\Temp\ccRf8fPj.s:71     .text.net_if_output:0000000000000008 .L0 
C:\Users\stapi\AppData\Local\Temp\ccRf8fPj.s:72     .text.net_if_output:0000000000000008 .L0 
C:\Users\stapi\AppData\Local\Temp\ccRf8fPj.s:73     .text.net_if_output:0000000000000008 .L0 
C:\Users\stapi\AppData\Local\Temp\ccRf8fPj.s:74     .text.net_if_output:0000000000000008 .L0 
C:\Users\stapi\AppData\Local\Temp\ccRf8fPj.s:75     .text.net_if_output:0000000000000008 .L0 
C:\Users\stapi\AppData\Local\Temp\ccRf8fPj.s:76     .text.net_if_output:0000000000000008 .L0 
C:\Users\stapi\AppData\Local\Temp\ccRf8fPj.s:80     .text.net_if_output:000000000000000c .L0 
C:\Users\stapi\AppData\Local\Temp\ccRf8fPj.s:85     .text.net_if_output:0000000000000010 .L0 
C:\Users\stapi\AppData\Local\Temp\ccRf8fPj.s:88     .text.net_if_output:0000000000000014 .L0 
C:\Users\stapi\AppData\Local\Temp\ccRf8fPj.s:89     .text.net_if_output:0000000000000014 .L0 
C:\Users\stapi\AppData\Local\Temp\ccRf8fPj.s:92     .text.net_if_output:0000000000000016 .L0 
C:\Users\stapi\AppData\Local\Temp\ccRf8fPj.s:93     .text.net_if_output:0000000000000016 .L0 
C:\Users\stapi\AppData\Local\Temp\ccRf8fPj.s:97     .text.net_if_output:0000000000000020 .L0 
C:\Users\stapi\AppData\Local\Temp\ccRf8fPj.s:102    .text.net_if_output:0000000000000028 .L0 
C:\Users\stapi\AppData\Local\Temp\ccRf8fPj.s:103    .text.net_if_output:0000000000000028 .L0 
C:\Users\stapi\AppData\Local\Temp\ccRf8fPj.s:104    .text.net_if_output:0000000000000028 .L0 
C:\Users\stapi\AppData\Local\Temp\ccRf8fPj.s:108    .text.net_if_output:0000000000000032 .L0 
C:\Users\stapi\AppData\Local\Temp\ccRf8fPj.s:109    .text.net_if_output:0000000000000032 .L0 
C:\Users\stapi\AppData\Local\Temp\ccRf8fPj.s:115    .text.net_if_output:000000000000003e .L0 
C:\Users\stapi\AppData\Local\Temp\ccRf8fPj.s:116    .text.net_if_output:000000000000003e .L0 
C:\Users\stapi\AppData\Local\Temp\ccRf8fPj.s:121    .text.net_if_output:0000000000000048 .L0 
C:\Users\stapi\AppData\Local\Temp\ccRf8fPj.s:124    .text.net_if_output:0000000000000050 .L0 
C:\Users\stapi\AppData\Local\Temp\ccRf8fPj.s:128    .text.net_if_output:000000000000005a .L0 
C:\Users\stapi\AppData\Local\Temp\ccRf8fPj.s:134    .text.net_if_output:0000000000000062 .L0 
C:\Users\stapi\AppData\Local\Temp\ccRf8fPj.s:135    .text.net_if_output:0000000000000062 .L0 
C:\Users\stapi\AppData\Local\Temp\ccRf8fPj.s:141    .text.net_if_output:000000000000006a .L0 
C:\Users\stapi\AppData\Local\Temp\ccRf8fPj.s:146    .text.net_if_output:000000000000006e .L0 
C:\Users\stapi\AppData\Local\Temp\ccRf8fPj.s:147    .text.net_if_output:000000000000006e .L0 
C:\Users\stapi\AppData\Local\Temp\ccRf8fPj.s:155    .text.net_if_output:0000000000000084 .L0 
C:\Users\stapi\AppData\Local\Temp\ccRf8fPj.s:156    .text.net_if_output:0000000000000084 .L0 
C:\Users\stapi\AppData\Local\Temp\ccRf8fPj.s:158    .text.net_if_output:0000000000000086 .L0 
C:\Users\stapi\AppData\Local\Temp\ccRf8fPj.s:164    .text.net_if_output:0000000000000096 .L0 
C:\Users\stapi\AppData\Local\Temp\ccRf8fPj.s:166    .text.net_if_output:0000000000000096 .L0 
C:\Users\stapi\AppData\Local\Temp\ccRf8fPj.s:167    .text.net_if_output:0000000000000096 .L0 
C:\Users\stapi\AppData\Local\Temp\ccRf8fPj.s:168    .text.net_if_output:0000000000000096 .L0 
C:\Users\stapi\AppData\Local\Temp\ccRf8fPj.s:171    .text.net_if_output:0000000000000098 .L0 
C:\Users\stapi\AppData\Local\Temp\ccRf8fPj.s:173    .text.net_if_output:000000000000009a .L0 
C:\Users\stapi\AppData\Local\Temp\ccRf8fPj.s:174    .text.net_if_output:000000000000009a .L0 
C:\Users\stapi\AppData\Local\Temp\ccRf8fPj.s:181    .text.net_if_output:00000000000000aa .L0 
C:\Users\stapi\AppData\Local\Temp\ccRf8fPj.s:185    .text.net_if_output:00000000000000ac .L0 
C:\Users\stapi\AppData\Local\Temp\ccRf8fPj.s:189    .text.net_if_output:00000000000000ae .L0 
C:\Users\stapi\AppData\Local\Temp\ccRf8fPj.s:190    .text.net_if_output:00000000000000b6 .L0 
C:\Users\stapi\AppData\Local\Temp\ccRf8fPj.s:191    .text.net_if_output:00000000000000b6 .L0 
C:\Users\stapi\AppData\Local\Temp\ccRf8fPj.s:192    .text.net_if_output:00000000000000b6 .L0 
C:\Users\stapi\AppData\Local\Temp\ccRf8fPj.s:193    .text.net_if_output:00000000000000b6 .L0 
C:\Users\stapi\AppData\Local\Temp\ccRf8fPj.s:194    .text.net_if_output:00000000000000b6 .L0 
C:\Users\stapi\AppData\Local\Temp\ccRf8fPj.s:195    .text.net_if_output:00000000000000b6 .L0 
C:\Users\stapi\AppData\Local\Temp\ccRf8fPj.s:196    .text.net_if_output:00000000000000b6 .L0 
C:\Users\stapi\AppData\Local\Temp\ccRf8fPj.s:199    .text.net_if_output:00000000000000b6 .L0 
C:\Users\stapi\AppData\Local\Temp\ccRf8fPj.s:201    .text.net_if_output:00000000000000b6 .L0 
C:\Users\stapi\AppData\Local\Temp\ccRf8fPj.s:202    .text.net_if_output:00000000000000b6 .L0 
C:\Users\stapi\AppData\Local\Temp\ccRf8fPj.s:203    .text.net_if_output:00000000000000b6 .L0 
C:\Users\stapi\AppData\Local\Temp\ccRf8fPj.s:211    .text.net_if_output:00000000000000cc .L0 
C:\Users\stapi\AppData\Local\Temp\ccRf8fPj.s:212    .text.net_if_output:00000000000000cc .L0 
C:\Users\stapi\AppData\Local\Temp\ccRf8fPj.s:216    .text.net_if_output:00000000000000ce .L0 
C:\Users\stapi\AppData\Local\Temp\ccRf8fPj.s:220    .text.net_if_output:00000000000000d0 .L0 
C:\Users\stapi\AppData\Local\Temp\ccRf8fPj.s:226    .text.net_if_output:00000000000000da .L0 
C:\Users\stapi\AppData\Local\Temp\ccRf8fPj.s:233    .text.net_if_output:00000000000000ea .L0 
C:\Users\stapi\AppData\Local\Temp\ccRf8fPj.s:241    .text.net_if_output:00000000000000f8 .L0 
C:\Users\stapi\AppData\Local\Temp\ccRf8fPj.s:245    .text.net_if_output:0000000000000102 .L0 
C:\Users\stapi\AppData\Local\Temp\ccRf8fPj.s:246    .text.net_if_output:0000000000000102 .L0 
C:\Users\stapi\AppData\Local\Temp\ccRf8fPj.s:248    .text.net_if_output:0000000000000106 .L0 
C:\Users\stapi\AppData\Local\Temp\ccRf8fPj.s:252    .text.net_if_output:000000000000010a .L0 
C:\Users\stapi\AppData\Local\Temp\ccRf8fPj.s:256    .text.net_if_output:000000000000010e .L0 
C:\Users\stapi\AppData\Local\Temp\ccRf8fPj.s:263    .text.net_if_output:000000000000011e .L0 
C:\Users\stapi\AppData\Local\Temp\ccRf8fPj.s:265    .text.net_if_output:0000000000000122 .L0 
C:\Users\stapi\AppData\Local\Temp\ccRf8fPj.s:271    .text.net_l2_send_cfm:0000000000000000 net_l2_send_cfm
C:\Users\stapi\AppData\Local\Temp\ccRf8fPj.s:274    .text.net_l2_send_cfm:0000000000000000 .L0 
C:\Users\stapi\AppData\Local\Temp\ccRf8fPj.s:276    .text.net_l2_send_cfm:0000000000000000 .L0 
C:\Users\stapi\AppData\Local\Temp\ccRf8fPj.s:277    .text.net_l2_send_cfm:0000000000000000 .L0 
C:\Users\stapi\AppData\Local\Temp\ccRf8fPj.s:278    .text.net_l2_send_cfm:0000000000000000 .L0 
C:\Users\stapi\AppData\Local\Temp\ccRf8fPj.s:280    .text.net_l2_send_cfm:0000000000000002 .L0 
C:\Users\stapi\AppData\Local\Temp\ccRf8fPj.s:281    .text.net_l2_send_cfm:0000000000000002 .L0 
C:\Users\stapi\AppData\Local\Temp\ccRf8fPj.s:284    .text.net_l2_send_cfm:0000000000000006 .L0 
C:\Users\stapi\AppData\Local\Temp\ccRf8fPj.s:289    .text.net_l2_send_cfm:0000000000000016 .L0 
C:\Users\stapi\AppData\Local\Temp\ccRf8fPj.s:296    .text.net_ip_chksum:0000000000000000 net_ip_chksum
C:\Users\stapi\AppData\Local\Temp\ccRf8fPj.s:299    .text.net_ip_chksum:0000000000000000 .L0 
C:\Users\stapi\AppData\Local\Temp\ccRf8fPj.s:301    .text.net_ip_chksum:0000000000000000 .L0 
C:\Users\stapi\AppData\Local\Temp\ccRf8fPj.s:302    .text.net_ip_chksum:0000000000000000 .L0 
C:\Users\stapi\AppData\Local\Temp\ccRf8fPj.s:303    .text.net_ip_chksum:0000000000000000 .L0 
C:\Users\stapi\AppData\Local\Temp\ccRf8fPj.s:305    .text.net_ip_chksum:0000000000000008 .L0 
C:\Users\stapi\AppData\Local\Temp\ccRf8fPj.s:312    .text.net_if_add:0000000000000000 net_if_add
C:\Users\stapi\AppData\Local\Temp\ccRf8fPj.s:315    .text.net_if_add:0000000000000000 .L0 
C:\Users\stapi\AppData\Local\Temp\ccRf8fPj.s:317    .text.net_if_add:0000000000000000 .L0 
C:\Users\stapi\AppData\Local\Temp\ccRf8fPj.s:318    .text.net_if_add:0000000000000008 .L0 
C:\Users\stapi\AppData\Local\Temp\ccRf8fPj.s:319    .text.net_if_add:0000000000000008 .L0 
C:\Users\stapi\AppData\Local\Temp\ccRf8fPj.s:320    .text.net_if_add:0000000000000008 .L0 
C:\Users\stapi\AppData\Local\Temp\ccRf8fPj.s:321    .text.net_if_add:0000000000000008 .L0 
C:\Users\stapi\AppData\Local\Temp\ccRf8fPj.s:322    .text.net_if_add:0000000000000008 .L0 
C:\Users\stapi\AppData\Local\Temp\ccRf8fPj.s:324    .text.net_if_add:0000000000000008 .L0 
C:\Users\stapi\AppData\Local\Temp\ccRf8fPj.s:325    .text.net_if_add:0000000000000008 .L0 
C:\Users\stapi\AppData\Local\Temp\ccRf8fPj.s:326    .text.net_if_add:0000000000000008 .L0 
C:\Users\stapi\AppData\Local\Temp\ccRf8fPj.s:328    .text.net_if_add:000000000000000a .L0 
C:\Users\stapi\AppData\Local\Temp\ccRf8fPj.s:330    .text.net_if_add:000000000000000e .L0 
C:\Users\stapi\AppData\Local\Temp\ccRf8fPj.s:339    .text.net_if_add:0000000000000016 .L0 
C:\Users\stapi\AppData\Local\Temp\ccRf8fPj.s:344    .text.net_if_add:0000000000000022 .L0 
C:\Users\stapi\AppData\Local\Temp\ccRf8fPj.s:347    .text.net_if_add:0000000000000024 .L0 
C:\Users\stapi\AppData\Local\Temp\ccRf8fPj.s:348    .text.net_if_add:0000000000000024 .L0 
C:\Users\stapi\AppData\Local\Temp\ccRf8fPj.s:353    .text.net_if_add:000000000000002e .L0 
C:\Users\stapi\AppData\Local\Temp\ccRf8fPj.s:359    .text.net_if_add:000000000000003e .L0 
C:\Users\stapi\AppData\Local\Temp\ccRf8fPj.s:360    .text.net_if_add:000000000000003e .L0 
C:\Users\stapi\AppData\Local\Temp\ccRf8fPj.s:362    .text.net_if_add:0000000000000042 .L0 
C:\Users\stapi\AppData\Local\Temp\ccRf8fPj.s:364    .text.net_if_add:000000000000004e .L0 
C:\Users\stapi\AppData\Local\Temp\ccRf8fPj.s:365    .text.net_if_add:000000000000004e .L0 
C:\Users\stapi\AppData\Local\Temp\ccRf8fPj.s:366    .text.net_if_add:000000000000004e .L0 
C:\Users\stapi\AppData\Local\Temp\ccRf8fPj.s:367    .text.net_if_add:000000000000004e .L0 
C:\Users\stapi\AppData\Local\Temp\ccRf8fPj.s:368    .text.net_if_add:000000000000004e .L0 
C:\Users\stapi\AppData\Local\Temp\ccRf8fPj.s:369    .text.net_if_add:000000000000004e .L0 
C:\Users\stapi\AppData\Local\Temp\ccRf8fPj.s:376    .text.net_if_remove:0000000000000000 net_if_remove
C:\Users\stapi\AppData\Local\Temp\ccRf8fPj.s:379    .text.net_if_remove:0000000000000000 .L0 
C:\Users\stapi\AppData\Local\Temp\ccRf8fPj.s:381    .text.net_if_remove:0000000000000000 .L0 
C:\Users\stapi\AppData\Local\Temp\ccRf8fPj.s:382    .text.net_if_remove:0000000000000008 .L0 
C:\Users\stapi\AppData\Local\Temp\ccRf8fPj.s:383    .text.net_if_remove:0000000000000008 .L0 
C:\Users\stapi\AppData\Local\Temp\ccRf8fPj.s:384    .text.net_if_remove:0000000000000008 .L0 
C:\Users\stapi\AppData\Local\Temp\ccRf8fPj.s:386    .text.net_if_remove:0000000000000008 .L0 
C:\Users\stapi\AppData\Local\Temp\ccRf8fPj.s:387    .text.net_if_remove:0000000000000008 .L0 
C:\Users\stapi\AppData\Local\Temp\ccRf8fPj.s:388    .text.net_if_remove:0000000000000008 .L0 
C:\Users\stapi\AppData\Local\Temp\ccRf8fPj.s:391    .text.net_if_remove:000000000000000a .L0 
C:\Users\stapi\AppData\Local\Temp\ccRf8fPj.s:394    .text.net_if_remove:0000000000000012 .L0 
C:\Users\stapi\AppData\Local\Temp\ccRf8fPj.s:395    .text.net_if_remove:0000000000000012 .L0 
C:\Users\stapi\AppData\Local\Temp\ccRf8fPj.s:402    .text.net_if_remove:0000000000000026 .L0 
C:\Users\stapi\AppData\Local\Temp\ccRf8fPj.s:403    .text.net_if_remove:0000000000000026 .L0 
C:\Users\stapi\AppData\Local\Temp\ccRf8fPj.s:406    .text.net_if_remove:000000000000002a .L0 
C:\Users\stapi\AppData\Local\Temp\ccRf8fPj.s:408    .text.net_if_remove:0000000000000036 .L0 
C:\Users\stapi\AppData\Local\Temp\ccRf8fPj.s:409    .text.net_if_remove:0000000000000036 .L0 
C:\Users\stapi\AppData\Local\Temp\ccRf8fPj.s:410    .text.net_if_remove:0000000000000036 .L0 
C:\Users\stapi\AppData\Local\Temp\ccRf8fPj.s:411    .text.net_if_remove:0000000000000036 .L0 
C:\Users\stapi\AppData\Local\Temp\ccRf8fPj.s:418    .text.net_if_get_mac_addr:0000000000000000 net_if_get_mac_addr
C:\Users\stapi\AppData\Local\Temp\ccRf8fPj.s:421    .text.net_if_get_mac_addr:0000000000000000 .L0 
C:\Users\stapi\AppData\Local\Temp\ccRf8fPj.s:423    .text.net_if_get_mac_addr:0000000000000000 .L0 
C:\Users\stapi\AppData\Local\Temp\ccRf8fPj.s:424    .text.net_if_get_mac_addr:0000000000000000 .L0 
C:\Users\stapi\AppData\Local\Temp\ccRf8fPj.s:425    .text.net_if_get_mac_addr:0000000000000000 .L0 
C:\Users\stapi\AppData\Local\Temp\ccRf8fPj.s:426    .text.net_if_get_mac_addr:0000000000000000 .L0 
C:\Users\stapi\AppData\Local\Temp\ccRf8fPj.s:429    .text.net_if_get_mac_addr:0000000000000006 .L0 
C:\Users\stapi\AppData\Local\Temp\ccRf8fPj.s:436    .text.net_if_find_from_name:0000000000000000 net_if_find_from_name
C:\Users\stapi\AppData\Local\Temp\ccRf8fPj.s:439    .text.net_if_find_from_name:0000000000000000 .L0 
C:\Users\stapi\AppData\Local\Temp\ccRf8fPj.s:441    .text.net_if_find_from_name:0000000000000000 .L0 
C:\Users\stapi\AppData\Local\Temp\ccRf8fPj.s:442    .text.net_if_find_from_name:0000000000000000 .L0 
C:\Users\stapi\AppData\Local\Temp\ccRf8fPj.s:443    .text.net_if_find_from_name:0000000000000000 .L0 
C:\Users\stapi\AppData\Local\Temp\ccRf8fPj.s:445    .text.net_if_find_from_name:0000000000000008 .L0 
C:\Users\stapi\AppData\Local\Temp\ccRf8fPj.s:452    .text.net_if_get_name:0000000000000000 net_if_get_name
C:\Users\stapi\AppData\Local\Temp\ccRf8fPj.s:455    .text.net_if_get_name:0000000000000000 .L0 
C:\Users\stapi\AppData\Local\Temp\ccRf8fPj.s:457    .text.net_if_get_name:0000000000000000 .L0 
C:\Users\stapi\AppData\Local\Temp\ccRf8fPj.s:458    .text.net_if_get_name:0000000000000000 .L0 
C:\Users\stapi\AppData\Local\Temp\ccRf8fPj.s:459    .text.net_if_get_name:0000000000000000 .L0 
C:\Users\stapi\AppData\Local\Temp\ccRf8fPj.s:460    .text.net_if_get_name:0000000000000000 .L0 
C:\Users\stapi\AppData\Local\Temp\ccRf8fPj.s:462    .text.net_if_get_name:0000000000000004 .L0 
C:\Users\stapi\AppData\Local\Temp\ccRf8fPj.s:463    .text.net_if_get_name:0000000000000004 .L0 
C:\Users\stapi\AppData\Local\Temp\ccRf8fPj.s:465    .text.net_if_get_name:0000000000000008 .L0 
C:\Users\stapi\AppData\Local\Temp\ccRf8fPj.s:467    .text.net_if_get_name:000000000000000c .L0 
C:\Users\stapi\AppData\Local\Temp\ccRf8fPj.s:468    .text.net_if_get_name:000000000000000c .L0 
C:\Users\stapi\AppData\Local\Temp\ccRf8fPj.s:471    .text.net_if_get_name:0000000000000012 .L0 
C:\Users\stapi\AppData\Local\Temp\ccRf8fPj.s:472    .text.net_if_get_name:0000000000000012 .L0 
C:\Users\stapi\AppData\Local\Temp\ccRf8fPj.s:474    .text.net_if_get_name:0000000000000016 .L0 
C:\Users\stapi\AppData\Local\Temp\ccRf8fPj.s:476    .text.net_if_get_name:000000000000001a .L0 
C:\Users\stapi\AppData\Local\Temp\ccRf8fPj.s:477    .text.net_if_get_name:000000000000001a .L0 
C:\Users\stapi\AppData\Local\Temp\ccRf8fPj.s:480    .text.net_if_get_name:0000000000000020 .L0 
C:\Users\stapi\AppData\Local\Temp\ccRf8fPj.s:481    .text.net_if_get_name:0000000000000020 .L0 
C:\Users\stapi\AppData\Local\Temp\ccRf8fPj.s:484    .text.net_if_get_name:0000000000000028 .L0 
C:\Users\stapi\AppData\Local\Temp\ccRf8fPj.s:486    .text.net_if_get_name:000000000000002c .L0 
C:\Users\stapi\AppData\Local\Temp\ccRf8fPj.s:487    .text.net_if_get_name:000000000000002c .L0 
C:\Users\stapi\AppData\Local\Temp\ccRf8fPj.s:490    .text.net_if_get_name:0000000000000032 .L0 
C:\Users\stapi\AppData\Local\Temp\ccRf8fPj.s:491    .text.net_if_get_name:0000000000000032 .L0 
C:\Users\stapi\AppData\Local\Temp\ccRf8fPj.s:494    .text.net_if_get_name:0000000000000036 .L0 
C:\Users\stapi\AppData\Local\Temp\ccRf8fPj.s:495    .text.net_if_get_name:0000000000000036 .L0 
C:\Users\stapi\AppData\Local\Temp\ccRf8fPj.s:498    .text.net_if_get_name:000000000000003a .L0 
C:\Users\stapi\AppData\Local\Temp\ccRf8fPj.s:505    .text.net_if_up:0000000000000000 net_if_up
C:\Users\stapi\AppData\Local\Temp\ccRf8fPj.s:508    .text.net_if_up:0000000000000000 .L0 
C:\Users\stapi\AppData\Local\Temp\ccRf8fPj.s:510    .text.net_if_up:0000000000000000 .L0 
C:\Users\stapi\AppData\Local\Temp\ccRf8fPj.s:511    .text.net_if_up:0000000000000000 .L0 
C:\Users\stapi\AppData\Local\Temp\ccRf8fPj.s:512    .text.net_if_up:0000000000000000 .L0 
C:\Users\stapi\AppData\Local\Temp\ccRf8fPj.s:517    .text.net_if_up:0000000000000012 .L0 
C:\Users\stapi\AppData\Local\Temp\ccRf8fPj.s:524    .text.net_if_down:0000000000000000 net_if_down
C:\Users\stapi\AppData\Local\Temp\ccRf8fPj.s:527    .text.net_if_down:0000000000000000 .L0 
C:\Users\stapi\AppData\Local\Temp\ccRf8fPj.s:529    .text.net_if_down:0000000000000000 .L0 
C:\Users\stapi\AppData\Local\Temp\ccRf8fPj.s:530    .text.net_if_down:0000000000000000 .L0 
C:\Users\stapi\AppData\Local\Temp\ccRf8fPj.s:531    .text.net_if_down:0000000000000000 .L0 
C:\Users\stapi\AppData\Local\Temp\ccRf8fPj.s:536    .text.net_if_down:0000000000000012 .L0 
C:\Users\stapi\AppData\Local\Temp\ccRf8fPj.s:543    .text.net_if_set_default:0000000000000000 net_if_set_default
C:\Users\stapi\AppData\Local\Temp\ccRf8fPj.s:546    .text.net_if_set_default:0000000000000000 .L0 
C:\Users\stapi\AppData\Local\Temp\ccRf8fPj.s:548    .text.net_if_set_default:0000000000000000 .L0 
C:\Users\stapi\AppData\Local\Temp\ccRf8fPj.s:549    .text.net_if_set_default:0000000000000000 .L0 
C:\Users\stapi\AppData\Local\Temp\ccRf8fPj.s:550    .text.net_if_set_default:0000000000000000 .L0 
C:\Users\stapi\AppData\Local\Temp\ccRf8fPj.s:555    .text.net_if_set_default:0000000000000012 .L0 
C:\Users\stapi\AppData\Local\Temp\ccRf8fPj.s:562    .text.net_if_set_ip:0000000000000000 net_if_set_ip
C:\Users\stapi\AppData\Local\Temp\ccRf8fPj.s:565    .text.net_if_set_ip:0000000000000000 .L0 
C:\Users\stapi\AppData\Local\Temp\ccRf8fPj.s:567    .text.net_if_set_ip:0000000000000000 .L0 
C:\Users\stapi\AppData\Local\Temp\ccRf8fPj.s:568    .text.net_if_set_ip:0000000000000008 .L0 
C:\Users\stapi\AppData\Local\Temp\ccRf8fPj.s:569    .text.net_if_set_ip:0000000000000008 .L0 
C:\Users\stapi\AppData\Local\Temp\ccRf8fPj.s:572    .text.net_if_set_ip:0000000000000008 .L0 
C:\Users\stapi\AppData\Local\Temp\ccRf8fPj.s:573    .text.net_if_set_ip:0000000000000008 .L0 
C:\Users\stapi\AppData\Local\Temp\ccRf8fPj.s:574    .text.net_if_set_ip:0000000000000008 .L0 
C:\Users\stapi\AppData\Local\Temp\ccRf8fPj.s:575    .text.net_if_set_ip:000000000000000a .L0 
C:\Users\stapi\AppData\Local\Temp\ccRf8fPj.s:577    .text.net_if_set_ip:000000000000000a .L0 
C:\Users\stapi\AppData\Local\Temp\ccRf8fPj.s:581    .text.net_if_set_ip:0000000000000010 .L0 
C:\Users\stapi\AppData\Local\Temp\ccRf8fPj.s:583    .text.net_if_set_ip:0000000000000012 .L0 
C:\Users\stapi\AppData\Local\Temp\ccRf8fPj.s:593    .text.net_if_set_ip:0000000000000020 .L0 
C:\Users\stapi\AppData\Local\Temp\ccRf8fPj.s:594    .text.net_if_set_ip:0000000000000022 .L0 
C:\Users\stapi\AppData\Local\Temp\ccRf8fPj.s:596    .text.net_if_set_ip:000000000000002a .L0 
C:\Users\stapi\AppData\Local\Temp\ccRf8fPj.s:597    .text.net_if_set_ip:000000000000002a .L0 
C:\Users\stapi\AppData\Local\Temp\ccRf8fPj.s:598    .text.net_if_set_ip:000000000000002a .L0 
C:\Users\stapi\AppData\Local\Temp\ccRf8fPj.s:605    .text.net_if_get_ip:0000000000000000 net_if_get_ip
C:\Users\stapi\AppData\Local\Temp\ccRf8fPj.s:608    .text.net_if_get_ip:0000000000000000 .L0 
C:\Users\stapi\AppData\Local\Temp\ccRf8fPj.s:610    .text.net_if_get_ip:0000000000000000 .L0 
C:\Users\stapi\AppData\Local\Temp\ccRf8fPj.s:611    .text.net_if_get_ip:0000000000000000 .L0 
C:\Users\stapi\AppData\Local\Temp\ccRf8fPj.s:612    .text.net_if_get_ip:0000000000000000 .L0 
C:\Users\stapi\AppData\Local\Temp\ccRf8fPj.s:613    .text.net_if_get_ip:0000000000000000 .L0 
C:\Users\stapi\AppData\Local\Temp\ccRf8fPj.s:615    .text.net_if_get_ip:0000000000000002 .L0 
C:\Users\stapi\AppData\Local\Temp\ccRf8fPj.s:617    .text.net_if_get_ip:0000000000000004 .L0 
C:\Users\stapi\AppData\Local\Temp\ccRf8fPj.s:618    .text.net_if_get_ip:0000000000000004 .L0 
C:\Users\stapi\AppData\Local\Temp\ccRf8fPj.s:620    .text.net_if_get_ip:0000000000000006 .L0 
C:\Users\stapi\AppData\Local\Temp\ccRf8fPj.s:621    .text.net_if_get_ip:0000000000000006 .L0 
C:\Users\stapi\AppData\Local\Temp\ccRf8fPj.s:623    .text.net_if_get_ip:0000000000000008 .L0 
C:\Users\stapi\AppData\Local\Temp\ccRf8fPj.s:626    .text.net_if_get_ip:000000000000000a .L0 
C:\Users\stapi\AppData\Local\Temp\ccRf8fPj.s:627    .text.net_if_get_ip:000000000000000a .L0 
C:\Users\stapi\AppData\Local\Temp\ccRf8fPj.s:629    .text.net_if_get_ip:000000000000000c .L0 
C:\Users\stapi\AppData\Local\Temp\ccRf8fPj.s:630    .text.net_if_get_ip:000000000000000c .L0 
C:\Users\stapi\AppData\Local\Temp\ccRf8fPj.s:632    .text.net_if_get_ip:000000000000000e .L0 
C:\Users\stapi\AppData\Local\Temp\ccRf8fPj.s:635    .text.net_if_get_ip:0000000000000010 .L0 
C:\Users\stapi\AppData\Local\Temp\ccRf8fPj.s:636    .text.net_if_get_ip:0000000000000010 .L0 
C:\Users\stapi\AppData\Local\Temp\ccRf8fPj.s:639    .text.net_if_get_ip:0000000000000012 .L0 
C:\Users\stapi\AppData\Local\Temp\ccRf8fPj.s:641    .text.net_if_get_ip:0000000000000014 .L0 
C:\Users\stapi\AppData\Local\Temp\ccRf8fPj.s:642    .text.net_if_get_ip:0000000000000014 .L0 
C:\Users\stapi\AppData\Local\Temp\ccRf8fPj.s:645    .text.net_if_get_ip:0000000000000016 .L0 
C:\Users\stapi\AppData\Local\Temp\ccRf8fPj.s:650    .text.net_if_get_ip:000000000000001a .L0 
C:\Users\stapi\AppData\Local\Temp\ccRf8fPj.s:654    .text.net_if_get_ip:000000000000001c .L0 
C:\Users\stapi\AppData\Local\Temp\ccRf8fPj.s:655    .text.net_if_get_ip:000000000000001e .L0 
C:\Users\stapi\AppData\Local\Temp\ccRf8fPj.s:666    .text.net_if_input:0000000000000000 net_if_input
C:\Users\stapi\AppData\Local\Temp\ccRf8fPj.s:669    .text.net_if_input:0000000000000000 .L0 
C:\Users\stapi\AppData\Local\Temp\ccRf8fPj.s:671    .text.net_if_input:0000000000000000 .L0 
C:\Users\stapi\AppData\Local\Temp\ccRf8fPj.s:672    .text.net_if_input:0000000000000008 .L0 
C:\Users\stapi\AppData\Local\Temp\ccRf8fPj.s:673    .text.net_if_input:0000000000000008 .L0 
C:\Users\stapi\AppData\Local\Temp\ccRf8fPj.s:674    .text.net_if_input:0000000000000008 .L0 
C:\Users\stapi\AppData\Local\Temp\ccRf8fPj.s:675    .text.net_if_input:0000000000000008 .L0 
C:\Users\stapi\AppData\Local\Temp\ccRf8fPj.s:676    .text.net_if_input:0000000000000008 .L0 
C:\Users\stapi\AppData\Local\Temp\ccRf8fPj.s:678    .text.net_if_input:0000000000000008 .L0 
C:\Users\stapi\AppData\Local\Temp\ccRf8fPj.s:679    .text.net_if_input:0000000000000008 .L0 
C:\Users\stapi\AppData\Local\Temp\ccRf8fPj.s:680    .text.net_if_input:0000000000000008 .L0 
C:\Users\stapi\AppData\Local\Temp\ccRf8fPj.s:682    .text.net_if_input:000000000000000a .L0 
C:\Users\stapi\AppData\Local\Temp\ccRf8fPj.s:684    .text.net_if_input:000000000000000c .L0 
C:\Users\stapi\AppData\Local\Temp\ccRf8fPj.s:688    .text.net_if_input:0000000000000010 .L0 
C:\Users\stapi\AppData\Local\Temp\ccRf8fPj.s:689    .text.net_if_input:0000000000000010 .L0 
C:\Users\stapi\AppData\Local\Temp\ccRf8fPj.s:690    .text.net_if_input:0000000000000010 .L0 
C:\Users\stapi\AppData\Local\Temp\ccRf8fPj.s:692    .text.net_if_input:0000000000000012 .L0 
C:\Users\stapi\AppData\Local\Temp\ccRf8fPj.s:705    .text.net_if_input:0000000000000026 .L0 
C:\Users\stapi\AppData\Local\Temp\ccRf8fPj.s:706    .text.net_if_input:0000000000000026 .L0 
C:\Users\stapi\AppData\Local\Temp\ccRf8fPj.s:708    .text.net_if_input:0000000000000028 .L0 
C:\Users\stapi\AppData\Local\Temp\ccRf8fPj.s:709    .text.net_if_input:0000000000000028 .L0 
C:\Users\stapi\AppData\Local\Temp\ccRf8fPj.s:713    .text.net_if_input:0000000000000032 .L0 
C:\Users\stapi\AppData\Local\Temp\ccRf8fPj.s:720    .text.net_if_input:0000000000000042 .L0 
C:\Users\stapi\AppData\Local\Temp\ccRf8fPj.s:721    .text.net_if_input:0000000000000042 .L0 
C:\Users\stapi\AppData\Local\Temp\ccRf8fPj.s:725    .text.net_if_input:0000000000000046 .L0 
C:\Users\stapi\AppData\Local\Temp\ccRf8fPj.s:726    .text.net_if_input:0000000000000046 .L0 
C:\Users\stapi\AppData\Local\Temp\ccRf8fPj.s:729    .text.net_if_input:0000000000000048 .L0 
C:\Users\stapi\AppData\Local\Temp\ccRf8fPj.s:730    .text.net_if_input:0000000000000050 .L0 
C:\Users\stapi\AppData\Local\Temp\ccRf8fPj.s:731    .text.net_if_input:0000000000000050 .L0 
C:\Users\stapi\AppData\Local\Temp\ccRf8fPj.s:732    .text.net_if_input:0000000000000050 .L0 
C:\Users\stapi\AppData\Local\Temp\ccRf8fPj.s:733    .text.net_if_input:0000000000000050 .L0 
C:\Users\stapi\AppData\Local\Temp\ccRf8fPj.s:734    .text.net_if_input:0000000000000050 .L0 
C:\Users\stapi\AppData\Local\Temp\ccRf8fPj.s:735    .text.net_if_input:0000000000000050 .L0 
C:\Users\stapi\AppData\Local\Temp\ccRf8fPj.s:738    .text.net_if_input:0000000000000050 .L0 
C:\Users\stapi\AppData\Local\Temp\ccRf8fPj.s:740    .text.net_if_input:0000000000000050 .L0 
C:\Users\stapi\AppData\Local\Temp\ccRf8fPj.s:741    .text.net_if_input:0000000000000050 .L0 
C:\Users\stapi\AppData\Local\Temp\ccRf8fPj.s:746    .text.net_if_input:0000000000000056 .L0 
C:\Users\stapi\AppData\Local\Temp\ccRf8fPj.s:748    .text.net_if_input:000000000000005a .L0 
C:\Users\stapi\AppData\Local\Temp\ccRf8fPj.s:755    .text.net_if_vif_info:0000000000000000 net_if_vif_info
C:\Users\stapi\AppData\Local\Temp\ccRf8fPj.s:758    .text.net_if_vif_info:0000000000000000 .L0 
C:\Users\stapi\AppData\Local\Temp\ccRf8fPj.s:760    .text.net_if_vif_info:0000000000000000 .L0 
C:\Users\stapi\AppData\Local\Temp\ccRf8fPj.s:761    .text.net_if_vif_info:0000000000000000 .L0 
C:\Users\stapi\AppData\Local\Temp\ccRf8fPj.s:762    .text.net_if_vif_info:0000000000000000 .L0 
C:\Users\stapi\AppData\Local\Temp\ccRf8fPj.s:763    .text.net_if_vif_info:0000000000000000 .L0 
C:\Users\stapi\AppData\Local\Temp\ccRf8fPj.s:766    .text.net_if_vif_info:0000000000000004 .L0 
C:\Users\stapi\AppData\Local\Temp\ccRf8fPj.s:773    .text.net_buf_tx_alloc:0000000000000000 net_buf_tx_alloc
C:\Users\stapi\AppData\Local\Temp\ccRf8fPj.s:776    .text.net_buf_tx_alloc:0000000000000000 .L0 
C:\Users\stapi\AppData\Local\Temp\ccRf8fPj.s:778    .text.net_buf_tx_alloc:0000000000000000 .L0 
C:\Users\stapi\AppData\Local\Temp\ccRf8fPj.s:779    .text.net_buf_tx_alloc:0000000000000000 .L0 
C:\Users\stapi\AppData\Local\Temp\ccRf8fPj.s:780    .text.net_buf_tx_alloc:0000000000000000 .L0 
C:\Users\stapi\AppData\Local\Temp\ccRf8fPj.s:781    .text.net_buf_tx_alloc:0000000000000000 .L0 
C:\Users\stapi\AppData\Local\Temp\ccRf8fPj.s:788    .text.net_buf_tx_alloc:0000000000000014 .L0 
C:\Users\stapi\AppData\Local\Temp\ccRf8fPj.s:795    .text.net_buf_tx_alloc_ref:0000000000000000 net_buf_tx_alloc_ref
C:\Users\stapi\AppData\Local\Temp\ccRf8fPj.s:797    .text.net_buf_tx_alloc_ref:0000000000000000 .L0 
C:\Users\stapi\AppData\Local\Temp\ccRf8fPj.s:798    .text.net_buf_tx_alloc_ref:0000000000000000 .L0 
C:\Users\stapi\AppData\Local\Temp\ccRf8fPj.s:800    .text.net_buf_tx_alloc_ref:0000000000000000 .L0 
C:\Users\stapi\AppData\Local\Temp\ccRf8fPj.s:801    .text.net_buf_tx_alloc_ref:0000000000000000 .L0 
C:\Users\stapi\AppData\Local\Temp\ccRf8fPj.s:802    .text.net_buf_tx_alloc_ref:0000000000000000 .L0 
C:\Users\stapi\AppData\Local\Temp\ccRf8fPj.s:803    .text.net_buf_tx_alloc_ref:0000000000000000 .L0 
C:\Users\stapi\AppData\Local\Temp\ccRf8fPj.s:810    .text.net_buf_tx_alloc_ref:0000000000000014 .L0 
C:\Users\stapi\AppData\Local\Temp\ccRf8fPj.s:824    .text.net_buf_tx_info:0000000000000000 net_buf_tx_info
C:\Users\stapi\AppData\Local\Temp\ccRf8fPj.s:826    .text.net_buf_tx_info:0000000000000000 .L0 
C:\Users\stapi\AppData\Local\Temp\ccRf8fPj.s:827    .text.net_buf_tx_info:0000000000000000 .L0 
C:\Users\stapi\AppData\Local\Temp\ccRf8fPj.s:829    .text.net_buf_tx_info:0000000000000000 .L0 
C:\Users\stapi\AppData\Local\Temp\ccRf8fPj.s:830    .text.net_buf_tx_info:0000000000000008 .L0 
C:\Users\stapi\AppData\Local\Temp\ccRf8fPj.s:831    .text.net_buf_tx_info:0000000000000008 .L0 
C:\Users\stapi\AppData\Local\Temp\ccRf8fPj.s:832    .text.net_buf_tx_info:0000000000000008 .L0 
C:\Users\stapi\AppData\Local\Temp\ccRf8fPj.s:833    .text.net_buf_tx_info:0000000000000008 .L0 
C:\Users\stapi\AppData\Local\Temp\ccRf8fPj.s:834    .text.net_buf_tx_info:0000000000000008 .L0 
C:\Users\stapi\AppData\Local\Temp\ccRf8fPj.s:835    .text.net_buf_tx_info:0000000000000008 .L0 
C:\Users\stapi\AppData\Local\Temp\ccRf8fPj.s:836    .text.net_buf_tx_info:0000000000000008 .L0 
C:\Users\stapi\AppData\Local\Temp\ccRf8fPj.s:837    .text.net_buf_tx_info:0000000000000008 .L0 
C:\Users\stapi\AppData\Local\Temp\ccRf8fPj.s:839    .text.net_buf_tx_info:0000000000000008 .L0 
C:\Users\stapi\AppData\Local\Temp\ccRf8fPj.s:840    .text.net_buf_tx_info:0000000000000008 .L0 
C:\Users\stapi\AppData\Local\Temp\ccRf8fPj.s:842    .text.net_buf_tx_info:000000000000000c .L0 
C:\Users\stapi\AppData\Local\Temp\ccRf8fPj.s:844    .text.net_buf_tx_info:000000000000000e .L0 
C:\Users\stapi\AppData\Local\Temp\ccRf8fPj.s:847    .text.net_buf_tx_info:0000000000000012 .L0 
C:\Users\stapi\AppData\Local\Temp\ccRf8fPj.s:848    .text.net_buf_tx_info:0000000000000012 .L0 
C:\Users\stapi\AppData\Local\Temp\ccRf8fPj.s:849    .text.net_buf_tx_info:0000000000000012 .L0 
C:\Users\stapi\AppData\Local\Temp\ccRf8fPj.s:850    .text.net_buf_tx_info:0000000000000012 .L0 
C:\Users\stapi\AppData\Local\Temp\ccRf8fPj.s:852    .text.net_buf_tx_info:0000000000000016 .L0 
C:\Users\stapi\AppData\Local\Temp\ccRf8fPj.s:853    .text.net_buf_tx_info:0000000000000016 .L0 
C:\Users\stapi\AppData\Local\Temp\ccRf8fPj.s:855    .text.net_buf_tx_info:0000000000000018 .L0 
C:\Users\stapi\AppData\Local\Temp\ccRf8fPj.s:856    .text.net_buf_tx_info:0000000000000018 .L0 
C:\Users\stapi\AppData\Local\Temp\ccRf8fPj.s:858    .text.net_buf_tx_info:000000000000001c .L0 
C:\Users\stapi\AppData\Local\Temp\ccRf8fPj.s:861    .text.net_buf_tx_info:0000000000000020 .L0 
C:\Users\stapi\AppData\Local\Temp\ccRf8fPj.s:863    .text.net_buf_tx_info:0000000000000022 .L0 
C:\Users\stapi\AppData\Local\Temp\ccRf8fPj.s:865    .text.net_buf_tx_info:0000000000000026 .L0 
C:\Users\stapi\AppData\Local\Temp\ccRf8fPj.s:866    .text.net_buf_tx_info:0000000000000026 .L0 
C:\Users\stapi\AppData\Local\Temp\ccRf8fPj.s:868    .text.net_buf_tx_info:000000000000002a .L0 
C:\Users\stapi\AppData\Local\Temp\ccRf8fPj.s:872    .text.net_buf_tx_info:0000000000000030 .L0 
C:\Users\stapi\AppData\Local\Temp\ccRf8fPj.s:875    .text.net_buf_tx_info:0000000000000032 .L0 
C:\Users\stapi\AppData\Local\Temp\ccRf8fPj.s:876    .text.net_buf_tx_info:0000000000000032 .L0 
C:\Users\stapi\AppData\Local\Temp\ccRf8fPj.s:879    .text.net_buf_tx_info:000000000000003a .L0 
C:\Users\stapi\AppData\Local\Temp\ccRf8fPj.s:881    .text.net_buf_tx_info:000000000000003c .L0 
C:\Users\stapi\AppData\Local\Temp\ccRf8fPj.s:882    .text.net_buf_tx_info:000000000000003c .L0 
C:\Users\stapi\AppData\Local\Temp\ccRf8fPj.s:888    .text.net_buf_tx_info:0000000000000046 .L0 
C:\Users\stapi\AppData\Local\Temp\ccRf8fPj.s:891    .text.net_buf_tx_info:0000000000000048 .L0 
C:\Users\stapi\AppData\Local\Temp\ccRf8fPj.s:892    .text.net_buf_tx_info:0000000000000050 .L0 
C:\Users\stapi\AppData\Local\Temp\ccRf8fPj.s:893    .text.net_buf_tx_info:0000000000000050 .L0 
C:\Users\stapi\AppData\Local\Temp\ccRf8fPj.s:894    .text.net_buf_tx_info:0000000000000050 .L0 
C:\Users\stapi\AppData\Local\Temp\ccRf8fPj.s:895    .text.net_buf_tx_info:0000000000000050 .L0 
C:\Users\stapi\AppData\Local\Temp\ccRf8fPj.s:896    .text.net_buf_tx_info:0000000000000050 .L0 
C:\Users\stapi\AppData\Local\Temp\ccRf8fPj.s:897    .text.net_buf_tx_info:0000000000000050 .L0 
C:\Users\stapi\AppData\Local\Temp\ccRf8fPj.s:898    .text.net_buf_tx_info:0000000000000050 .L0 
C:\Users\stapi\AppData\Local\Temp\ccRf8fPj.s:899    .text.net_buf_tx_info:0000000000000050 .L0 
C:\Users\stapi\AppData\Local\Temp\ccRf8fPj.s:900    .text.net_buf_tx_info:0000000000000050 .L0 
C:\Users\stapi\AppData\Local\Temp\ccRf8fPj.s:903    .text.net_buf_tx_info:0000000000000050 .L0 
C:\Users\stapi\AppData\Local\Temp\ccRf8fPj.s:905    .text.net_buf_tx_info:0000000000000050 .L0 
C:\Users\stapi\AppData\Local\Temp\ccRf8fPj.s:910    .text.net_buf_tx_info:0000000000000058 .L0 
C:\Users\stapi\AppData\Local\Temp\ccRf8fPj.s:916    .text.net_buf_tx_info:0000000000000062 .L0 
C:\Users\stapi\AppData\Local\Temp\ccRf8fPj.s:918    .text.net_buf_tx_info:0000000000000064 .L0 
C:\Users\stapi\AppData\Local\Temp\ccRf8fPj.s:920    .text.net_buf_tx_info:0000000000000066 .L0 
C:\Users\stapi\AppData\Local\Temp\ccRf8fPj.s:922    .text.net_buf_tx_info:0000000000000068 .L0 
C:\Users\stapi\AppData\Local\Temp\ccRf8fPj.s:927    .text.net_buf_tx_info:0000000000000070 .L0 
C:\Users\stapi\AppData\Local\Temp\ccRf8fPj.s:928    .text.net_buf_tx_info:0000000000000070 .L0 
C:\Users\stapi\AppData\Local\Temp\ccRf8fPj.s:929    .text.net_buf_tx_info:0000000000000070 .L0 
C:\Users\stapi\AppData\Local\Temp\ccRf8fPj.s:931    .text.net_buf_tx_info:0000000000000070 .L0 
C:\Users\stapi\AppData\Local\Temp\ccRf8fPj.s:932    .text.net_buf_tx_info:0000000000000070 .L0 
C:\Users\stapi\AppData\Local\Temp\ccRf8fPj.s:934    .text.net_buf_tx_info:0000000000000072 .L0 
C:\Users\stapi\AppData\Local\Temp\ccRf8fPj.s:936    .text.net_buf_tx_info:0000000000000074 .L0 
C:\Users\stapi\AppData\Local\Temp\ccRf8fPj.s:939    .text.net_buf_tx_info:0000000000000078 .L0 
C:\Users\stapi\AppData\Local\Temp\ccRf8fPj.s:940    .text.net_buf_tx_info:0000000000000078 .L0 
C:\Users\stapi\AppData\Local\Temp\ccRf8fPj.s:942    .text.net_buf_tx_info:000000000000007c .L0 
C:\Users\stapi\AppData\Local\Temp\ccRf8fPj.s:943    .text.net_buf_tx_info:000000000000007c .L0 
C:\Users\stapi\AppData\Local\Temp\ccRf8fPj.s:945    .text.net_buf_tx_info:000000000000007e .L0 
C:\Users\stapi\AppData\Local\Temp\ccRf8fPj.s:946    .text.net_buf_tx_info:000000000000007e .L0 
C:\Users\stapi\AppData\Local\Temp\ccRf8fPj.s:951    .text.net_buf_tx_info:0000000000000088 .L0 
C:\Users\stapi\AppData\Local\Temp\ccRf8fPj.s:958    .text.net_buf_tx_info:0000000000000092 .L0 
C:\Users\stapi\AppData\Local\Temp\ccRf8fPj.s:959    .text.net_buf_tx_info:0000000000000092 .L0 
C:\Users\stapi\AppData\Local\Temp\ccRf8fPj.s:963    .text.net_buf_tx_info:000000000000009a .L0 
C:\Users\stapi\AppData\Local\Temp\ccRf8fPj.s:964    .text.net_buf_tx_info:000000000000009a .L0 
C:\Users\stapi\AppData\Local\Temp\ccRf8fPj.s:966    .text.net_buf_tx_info:000000000000009e .L0 
C:\Users\stapi\AppData\Local\Temp\ccRf8fPj.s:968    .text.net_buf_tx_info:00000000000000a2 .L0 
C:\Users\stapi\AppData\Local\Temp\ccRf8fPj.s:971    .text.net_buf_tx_info:00000000000000a4 .L0 
C:\Users\stapi\AppData\Local\Temp\ccRf8fPj.s:973    .text.net_buf_tx_info:00000000000000a8 .L0 
C:\Users\stapi\AppData\Local\Temp\ccRf8fPj.s:974    .text.net_buf_tx_info:00000000000000a8 .L0 
C:\Users\stapi\AppData\Local\Temp\ccRf8fPj.s:976    .text.net_buf_tx_info:00000000000000ac .L0 
C:\Users\stapi\AppData\Local\Temp\ccRf8fPj.s:979    .text.net_buf_tx_info:00000000000000ae .L0 
C:\Users\stapi\AppData\Local\Temp\ccRf8fPj.s:984    .text.net_buf_tx_info:00000000000000b4 .L0 
C:\Users\stapi\AppData\Local\Temp\ccRf8fPj.s:985    .text.net_buf_tx_info:00000000000000b4 .L0 
C:\Users\stapi\AppData\Local\Temp\ccRf8fPj.s:986    .text.net_buf_tx_info:00000000000000b6 .L0 
C:\Users\stapi\AppData\Local\Temp\ccRf8fPj.s:993    .text.net_buf_tx_free:0000000000000000 net_buf_tx_free
C:\Users\stapi\AppData\Local\Temp\ccRf8fPj.s:996    .text.net_buf_tx_free:0000000000000000 .L0 
C:\Users\stapi\AppData\Local\Temp\ccRf8fPj.s:998    .text.net_buf_tx_free:0000000000000000 .L0 
C:\Users\stapi\AppData\Local\Temp\ccRf8fPj.s:999    .text.net_buf_tx_free:0000000000000008 .L0 
C:\Users\stapi\AppData\Local\Temp\ccRf8fPj.s:1000   .text.net_buf_tx_free:0000000000000008 .L0 
C:\Users\stapi\AppData\Local\Temp\ccRf8fPj.s:1001   .text.net_buf_tx_free:0000000000000008 .L0 
C:\Users\stapi\AppData\Local\Temp\ccRf8fPj.s:1003   .text.net_buf_tx_free:0000000000000008 .L0 
C:\Users\stapi\AppData\Local\Temp\ccRf8fPj.s:1005   .text.net_buf_tx_free:000000000000000c .L0 
C:\Users\stapi\AppData\Local\Temp\ccRf8fPj.s:1007   .text.net_buf_tx_free:000000000000000e .L0 
C:\Users\stapi\AppData\Local\Temp\ccRf8fPj.s:1010   .text.net_buf_tx_free:0000000000000016 .L0 
C:\Users\stapi\AppData\Local\Temp\ccRf8fPj.s:1014   .text.net_buf_tx_free:0000000000000020 .L0 
C:\Users\stapi\AppData\Local\Temp\ccRf8fPj.s:1015   .text.net_buf_tx_free:0000000000000028 .L0 
C:\Users\stapi\AppData\Local\Temp\ccRf8fPj.s:1016   .text.net_buf_tx_free:0000000000000028 .L0 
C:\Users\stapi\AppData\Local\Temp\ccRf8fPj.s:1017   .text.net_buf_tx_free:0000000000000028 .L0 
C:\Users\stapi\AppData\Local\Temp\ccRf8fPj.s:1018   .text.net_buf_tx_free:0000000000000028 .L0 
C:\Users\stapi\AppData\Local\Temp\ccRf8fPj.s:1025   .text.net_buf_tx_cat:0000000000000000 net_buf_tx_cat
C:\Users\stapi\AppData\Local\Temp\ccRf8fPj.s:1028   .text.net_buf_tx_cat:0000000000000000 .L0 
C:\Users\stapi\AppData\Local\Temp\ccRf8fPj.s:1030   .text.net_buf_tx_cat:0000000000000000 .L0 
C:\Users\stapi\AppData\Local\Temp\ccRf8fPj.s:1031   .text.net_buf_tx_cat:0000000000000000 .L0 
C:\Users\stapi\AppData\Local\Temp\ccRf8fPj.s:1033   .text.net_buf_tx_cat:0000000000000008 .L0 
C:\Users\stapi\AppData\Local\Temp\ccRf8fPj.s:1044   .text.net_init:0000000000000000 net_init
C:\Users\stapi\AppData\Local\Temp\ccRf8fPj.s:1047   .text.net_init:0000000000000000 .L0 
C:\Users\stapi\AppData\Local\Temp\ccRf8fPj.s:1048   .text.net_init:0000000000000000 .L0 
C:\Users\stapi\AppData\Local\Temp\ccRf8fPj.s:1049   .text.net_init:0000000000000008 .L0 
C:\Users\stapi\AppData\Local\Temp\ccRf8fPj.s:1050   .text.net_init:0000000000000008 .L0 
C:\Users\stapi\AppData\Local\Temp\ccRf8fPj.s:1051   .text.net_init:0000000000000008 .L0 
C:\Users\stapi\AppData\Local\Temp\ccRf8fPj.s:1052   .text.net_init:0000000000000008 .L0 
C:\Users\stapi\AppData\Local\Temp\ccRf8fPj.s:1054   .text.net_init:0000000000000008 .L0 
C:\Users\stapi\AppData\Local\Temp\ccRf8fPj.s:1056   .text.net_init:0000000000000008 .L0 
C:\Users\stapi\AppData\Local\Temp\ccRf8fPj.s:1057   .text.net_init:0000000000000008 .L0 
C:\Users\stapi\AppData\Local\Temp\ccRf8fPj.s:1058   .text.net_init:0000000000000008 .L0 
C:\Users\stapi\AppData\Local\Temp\ccRf8fPj.s:1059   .text.net_init:0000000000000008 .L0 
C:\Users\stapi\AppData\Local\Temp\ccRf8fPj.s:1062   .text.net_init:0000000000000010 .L0 
C:\Users\stapi\AppData\Local\Temp\ccRf8fPj.s:1064   .text.net_init:0000000000000014 .L0 
C:\Users\stapi\AppData\Local\Temp\ccRf8fPj.s:1067   .text.net_init:0000000000000018 .L0 
C:\Users\stapi\AppData\Local\Temp\ccRf8fPj.s:1068   .text.net_init:0000000000000018 .L0 
C:\Users\stapi\AppData\Local\Temp\ccRf8fPj.s:1069   .text.net_init:0000000000000018 .L0 
C:\Users\stapi\AppData\Local\Temp\ccRf8fPj.s:1070   .text.net_init:0000000000000018 .L0 
C:\Users\stapi\AppData\Local\Temp\ccRf8fPj.s:1073   .text.net_init:000000000000001c .L0 
C:\Users\stapi\AppData\Local\Temp\ccRf8fPj.s:1074   .text.net_init:000000000000001c .L0 
C:\Users\stapi\AppData\Local\Temp\ccRf8fPj.s:1075   .text.net_init:000000000000001c .L0 
C:\Users\stapi\AppData\Local\Temp\ccRf8fPj.s:1076   .text.net_init:000000000000001c .L0 
C:\Users\stapi\AppData\Local\Temp\ccRf8fPj.s:1082   .text.net_init:000000000000002c .L0 
C:\Users\stapi\AppData\Local\Temp\ccRf8fPj.s:1085   .text.net_init:000000000000002e .L0 
C:\Users\stapi\AppData\Local\Temp\ccRf8fPj.s:1086   .text.net_init:000000000000002e .L0 
C:\Users\stapi\AppData\Local\Temp\ccRf8fPj.s:1091   .text.net_init:0000000000000038 .L0 
C:\Users\stapi\AppData\Local\Temp\ccRf8fPj.s:1094   .text.net_init:000000000000003a .L0 
C:\Users\stapi\AppData\Local\Temp\ccRf8fPj.s:1096   .text.net_init:0000000000000044 .L0 
C:\Users\stapi\AppData\Local\Temp\ccRf8fPj.s:1097   .text.net_init:0000000000000044 .L0 
C:\Users\stapi\AppData\Local\Temp\ccRf8fPj.s:1098   .text.net_init:0000000000000044 .L0 
C:\Users\stapi\AppData\Local\Temp\ccRf8fPj.s:1099   .text.net_init:0000000000000044 .L0 
C:\Users\stapi\AppData\Local\Temp\ccRf8fPj.s:1100   .text.net_init:0000000000000044 .L0 
C:\Users\stapi\AppData\Local\Temp\ccRf8fPj.s:1102   .text.net_init:0000000000000044 .L0 
C:\Users\stapi\AppData\Local\Temp\ccRf8fPj.s:1104   .text.net_init:0000000000000044 .L0 
C:\Users\stapi\AppData\Local\Temp\ccRf8fPj.s:1112   .text.net_init:0000000000000058 .L0 
C:\Users\stapi\AppData\Local\Temp\ccRf8fPj.s:1118   .text.net_init:000000000000006c .L0 
C:\Users\stapi\AppData\Local\Temp\ccRf8fPj.s:1119   .text.net_init:000000000000006c .L0 
C:\Users\stapi\AppData\Local\Temp\ccRf8fPj.s:1122   .text.net_init:0000000000000072 .L0 
C:\Users\stapi\AppData\Local\Temp\ccRf8fPj.s:1129   .text.net_deinit:0000000000000000 net_deinit
C:\Users\stapi\AppData\Local\Temp\ccRf8fPj.s:1132   .text.net_deinit:0000000000000000 .L0 
C:\Users\stapi\AppData\Local\Temp\ccRf8fPj.s:1133   .text.net_deinit:0000000000000000 .L0 
C:\Users\stapi\AppData\Local\Temp\ccRf8fPj.s:1134   .text.net_deinit:0000000000000008 .L0 
C:\Users\stapi\AppData\Local\Temp\ccRf8fPj.s:1135   .text.net_deinit:0000000000000008 .L0 
C:\Users\stapi\AppData\Local\Temp\ccRf8fPj.s:1136   .text.net_deinit:0000000000000008 .L0 
C:\Users\stapi\AppData\Local\Temp\ccRf8fPj.s:1138   .text.net_deinit:0000000000000008 .L0 
C:\Users\stapi\AppData\Local\Temp\ccRf8fPj.s:1139   .text.net_deinit:0000000000000008 .L0 
C:\Users\stapi\AppData\Local\Temp\ccRf8fPj.s:1142   .text.net_deinit:0000000000000010 .L0 
C:\Users\stapi\AppData\Local\Temp\ccRf8fPj.s:1145   .text.net_deinit:0000000000000014 .L0 
C:\Users\stapi\AppData\Local\Temp\ccRf8fPj.s:1149   .text.net_deinit:0000000000000020 .L0 
C:\Users\stapi\AppData\Local\Temp\ccRf8fPj.s:1150   .text.net_deinit:0000000000000020 .L0 
C:\Users\stapi\AppData\Local\Temp\ccRf8fPj.s:1153   .text.net_deinit:0000000000000024 .L0 
C:\Users\stapi\AppData\Local\Temp\ccRf8fPj.s:1154   .text.net_deinit:0000000000000024 .L0 
C:\Users\stapi\AppData\Local\Temp\ccRf8fPj.s:1157   .text.net_deinit:000000000000002c .L0 
C:\Users\stapi\AppData\Local\Temp\ccRf8fPj.s:1160   .text.net_deinit:0000000000000030 .L0 
C:\Users\stapi\AppData\Local\Temp\ccRf8fPj.s:1164   .text.net_deinit:000000000000003c .L0 
C:\Users\stapi\AppData\Local\Temp\ccRf8fPj.s:1165   .text.net_deinit:000000000000003c .L0 
C:\Users\stapi\AppData\Local\Temp\ccRf8fPj.s:1168   .text.net_deinit:0000000000000040 .L0 
C:\Users\stapi\AppData\Local\Temp\ccRf8fPj.s:1169   .text.net_deinit:0000000000000048 .L0 
C:\Users\stapi\AppData\Local\Temp\ccRf8fPj.s:1170   .text.net_deinit:0000000000000048 .L0 
C:\Users\stapi\AppData\Local\Temp\ccRf8fPj.s:1171   .text.net_deinit:0000000000000048 .L0 
C:\Users\stapi\AppData\Local\Temp\ccRf8fPj.s:1172   .text.net_deinit:0000000000000048 .L0 
C:\Users\stapi\AppData\Local\Temp\ccRf8fPj.s:1179   .text.net_l2_send:0000000000000000 net_l2_send
C:\Users\stapi\AppData\Local\Temp\ccRf8fPj.s:1182   .text.net_l2_send:0000000000000000 .L0 
C:\Users\stapi\AppData\Local\Temp\ccRf8fPj.s:1184   .text.net_l2_send:0000000000000000 .L0 
C:\Users\stapi\AppData\Local\Temp\ccRf8fPj.s:1185   .text.net_l2_send:0000000000000008 .L0 
C:\Users\stapi\AppData\Local\Temp\ccRf8fPj.s:1186   .text.net_l2_send:0000000000000008 .L0 
C:\Users\stapi\AppData\Local\Temp\ccRf8fPj.s:1187   .text.net_l2_send:0000000000000008 .L0 
C:\Users\stapi\AppData\Local\Temp\ccRf8fPj.s:1188   .text.net_l2_send:0000000000000008 .L0 
C:\Users\stapi\AppData\Local\Temp\ccRf8fPj.s:1189   .text.net_l2_send:0000000000000008 .L0 
C:\Users\stapi\AppData\Local\Temp\ccRf8fPj.s:1190   .text.net_l2_send:0000000000000008 .L0 
C:\Users\stapi\AppData\Local\Temp\ccRf8fPj.s:1191   .text.net_l2_send:0000000000000008 .L0 
C:\Users\stapi\AppData\Local\Temp\ccRf8fPj.s:1192   .text.net_l2_send:0000000000000008 .L0 
C:\Users\stapi\AppData\Local\Temp\ccRf8fPj.s:1193   .text.net_l2_send:0000000000000008 .L0 
C:\Users\stapi\AppData\Local\Temp\ccRf8fPj.s:1195   .text.net_l2_send:0000000000000008 .L0 
C:\Users\stapi\AppData\Local\Temp\ccRf8fPj.s:1196   .text.net_l2_send:0000000000000008 .L0 
C:\Users\stapi\AppData\Local\Temp\ccRf8fPj.s:1198   .text.net_l2_send:0000000000000008 .L0 
C:\Users\stapi\AppData\Local\Temp\ccRf8fPj.s:1199   .text.net_l2_send:0000000000000008 .L0 
C:\Users\stapi\AppData\Local\Temp\ccRf8fPj.s:1200   .text.net_l2_send:0000000000000008 .L0 
C:\Users\stapi\AppData\Local\Temp\ccRf8fPj.s:1205   .text.net_l2_send:000000000000000a .L0 
C:\Users\stapi\AppData\Local\Temp\ccRf8fPj.s:1206   .text.net_l2_send:000000000000000a .L0 
C:\Users\stapi\AppData\Local\Temp\ccRf8fPj.s:1210   .text.net_l2_send:000000000000000c .L0 
C:\Users\stapi\AppData\Local\Temp\ccRf8fPj.s:1212   .text.net_l2_send:0000000000000016 .L0 
C:\Users\stapi\AppData\Local\Temp\ccRf8fPj.s:1213   .text.net_l2_send:0000000000000016 .L0 
C:\Users\stapi\AppData\Local\Temp\ccRf8fPj.s:1214   .text.net_l2_send:0000000000000016 .L0 
C:\Users\stapi\AppData\Local\Temp\ccRf8fPj.s:1215   .text.net_l2_send:0000000000000016 .L0 
C:\Users\stapi\AppData\Local\Temp\ccRf8fPj.s:1216   .text.net_l2_send:0000000000000016 .L0 
C:\Users\stapi\AppData\Local\Temp\ccRf8fPj.s:1217   .text.net_l2_send:0000000000000016 .L0 
C:\Users\stapi\AppData\Local\Temp\ccRf8fPj.s:1218   .text.net_l2_send:0000000000000016 .L0 
C:\Users\stapi\AppData\Local\Temp\ccRf8fPj.s:1219   .text.net_l2_send:0000000000000016 .L0 
C:\Users\stapi\AppData\Local\Temp\ccRf8fPj.s:1220   .text.net_l2_send:0000000000000016 .L0 
C:\Users\stapi\AppData\Local\Temp\ccRf8fPj.s:1221   .text.net_l2_send:0000000000000016 .L0 
C:\Users\stapi\AppData\Local\Temp\ccRf8fPj.s:1224   .text.net_l2_send:0000000000000016 .L0 
C:\Users\stapi\AppData\Local\Temp\ccRf8fPj.s:1227   .text.net_l2_send:0000000000000018 .L0 
C:\Users\stapi\AppData\Local\Temp\ccRf8fPj.s:1230   .text.net_l2_send:000000000000001c .L0 
C:\Users\stapi\AppData\Local\Temp\ccRf8fPj.s:1235   .text.net_l2_send:0000000000000024 .L0 
C:\Users\stapi\AppData\Local\Temp\ccRf8fPj.s:1238   .text.net_l2_send:0000000000000028 .L0 
C:\Users\stapi\AppData\Local\Temp\ccRf8fPj.s:1242   .text.net_l2_send:0000000000000030 .L0 
C:\Users\stapi\AppData\Local\Temp\ccRf8fPj.s:1248   .text.net_l2_send:000000000000003c .L0 
C:\Users\stapi\AppData\Local\Temp\ccRf8fPj.s:1249   .text.net_l2_send:000000000000003c .L0 
C:\Users\stapi\AppData\Local\Temp\ccRf8fPj.s:1256   .text.net_l2_send:000000000000004a .L0 
C:\Users\stapi\AppData\Local\Temp\ccRf8fPj.s:1257   .text.net_l2_send:000000000000004a .L0 
C:\Users\stapi\AppData\Local\Temp\ccRf8fPj.s:1259   .text.net_l2_send:000000000000004c .L0 
C:\Users\stapi\AppData\Local\Temp\ccRf8fPj.s:1265   .text.net_l2_send:000000000000005a .L0 
C:\Users\stapi\AppData\Local\Temp\ccRf8fPj.s:1266   .text.net_l2_send:000000000000005a .L0 
C:\Users\stapi\AppData\Local\Temp\ccRf8fPj.s:1269   .text.net_l2_send:000000000000005e .L0 
C:\Users\stapi\AppData\Local\Temp\ccRf8fPj.s:1270   .text.net_l2_send:000000000000005e .L0 
C:\Users\stapi\AppData\Local\Temp\ccRf8fPj.s:1271   .text.net_l2_send:000000000000005e .L0 
C:\Users\stapi\AppData\Local\Temp\ccRf8fPj.s:1276   .text.net_l2_send:000000000000006a .L0 
C:\Users\stapi\AppData\Local\Temp\ccRf8fPj.s:1278   .text.net_l2_send:000000000000006c .L0 
C:\Users\stapi\AppData\Local\Temp\ccRf8fPj.s:1284   .text.net_l2_send:0000000000000078 .L0 
C:\Users\stapi\AppData\Local\Temp\ccRf8fPj.s:1285   .text.net_l2_send:0000000000000078 .L0 
C:\Users\stapi\AppData\Local\Temp\ccRf8fPj.s:1288   .text.net_l2_send:000000000000007c .L0 
C:\Users\stapi\AppData\Local\Temp\ccRf8fPj.s:1289   .text.net_l2_send:000000000000007c .L0 
C:\Users\stapi\AppData\Local\Temp\ccRf8fPj.s:1293   .text.net_l2_send:0000000000000086 .L0 
C:\Users\stapi\AppData\Local\Temp\ccRf8fPj.s:1297   .text.net_l2_send:0000000000000090 .L0 
C:\Users\stapi\AppData\Local\Temp\ccRf8fPj.s:1303   .text.net_l2_send:000000000000009e .L0 
C:\Users\stapi\AppData\Local\Temp\ccRf8fPj.s:1311   .text.net_l2_send:00000000000000b0 .L0 
C:\Users\stapi\AppData\Local\Temp\ccRf8fPj.s:1316   .text.net_l2_send:00000000000000c0 .L0 
C:\Users\stapi\AppData\Local\Temp\ccRf8fPj.s:1317   .text.net_l2_send:00000000000000c0 .L0 
C:\Users\stapi\AppData\Local\Temp\ccRf8fPj.s:1327   .text.net_l2_send:00000000000000d8 .L0 
C:\Users\stapi\AppData\Local\Temp\ccRf8fPj.s:1333   .text.net_l2_send:00000000000000ea .L0 
C:\Users\stapi\AppData\Local\Temp\ccRf8fPj.s:1337   .text.net_l2_send:00000000000000f6 .L0 
C:\Users\stapi\AppData\Local\Temp\ccRf8fPj.s:1338   .text.net_l2_send:00000000000000f6 .L0 
C:\Users\stapi\AppData\Local\Temp\ccRf8fPj.s:1339   .text.net_l2_send:00000000000000f8 .L0 
C:\Users\stapi\AppData\Local\Temp\ccRf8fPj.s:1346   .text.net_l2_socket_create:0000000000000000 net_l2_socket_create
C:\Users\stapi\AppData\Local\Temp\ccRf8fPj.s:1349   .text.net_l2_socket_create:0000000000000000 .L0 
C:\Users\stapi\AppData\Local\Temp\ccRf8fPj.s:1351   .text.net_l2_socket_create:0000000000000000 .L0 
C:\Users\stapi\AppData\Local\Temp\ccRf8fPj.s:1352   .text.net_l2_socket_create:0000000000000008 .L0 
C:\Users\stapi\AppData\Local\Temp\ccRf8fPj.s:1353   .text.net_l2_socket_create:0000000000000008 .L0 
C:\Users\stapi\AppData\Local\Temp\ccRf8fPj.s:1354   .text.net_l2_socket_create:0000000000000008 .L0 
C:\Users\stapi\AppData\Local\Temp\ccRf8fPj.s:1355   .text.net_l2_socket_create:0000000000000008 .L0 
C:\Users\stapi\AppData\Local\Temp\ccRf8fPj.s:1356   .text.net_l2_socket_create:0000000000000008 .L0 
C:\Users\stapi\AppData\Local\Temp\ccRf8fPj.s:1359   .text.net_l2_socket_create:0000000000000008 .L0 
C:\Users\stapi\AppData\Local\Temp\ccRf8fPj.s:1360   .text.net_l2_socket_create:0000000000000008 .L0 
C:\Users\stapi\AppData\Local\Temp\ccRf8fPj.s:1361   .text.net_l2_socket_create:0000000000000008 .L0 
C:\Users\stapi\AppData\Local\Temp\ccRf8fPj.s:1363   .text.net_l2_socket_create:000000000000000a .L0 
C:\Users\stapi\AppData\Local\Temp\ccRf8fPj.s:1364   .text.net_l2_socket_create:000000000000000c .L0 
C:\Users\stapi\AppData\Local\Temp\ccRf8fPj.s:1366   .text.net_l2_socket_create:000000000000000c .L0 
C:\Users\stapi\AppData\Local\Temp\ccRf8fPj.s:1368   .text.net_l2_socket_create:000000000000000e .L0 
C:\Users\stapi\AppData\Local\Temp\ccRf8fPj.s:1370   .text.net_l2_socket_create:000000000000000e .L0 
C:\Users\stapi\AppData\Local\Temp\ccRf8fPj.s:1371   .text.net_l2_socket_create:000000000000000e .L0 
C:\Users\stapi\AppData\Local\Temp\ccRf8fPj.s:1372   .text.net_l2_socket_create:000000000000000e .L0 
C:\Users\stapi\AppData\Local\Temp\ccRf8fPj.s:1373   .text.net_l2_socket_create:000000000000000e .L0 
C:\Users\stapi\AppData\Local\Temp\ccRf8fPj.s:1374   .text.net_l2_socket_create:000000000000000e .L0 
C:\Users\stapi\AppData\Local\Temp\ccRf8fPj.s:1377   .text.net_l2_socket_create:0000000000000016 .L0 
C:\Users\stapi\AppData\Local\Temp\ccRf8fPj.s:1381   .text.net_l2_socket_create:000000000000001e .L0 
C:\Users\stapi\AppData\Local\Temp\ccRf8fPj.s:1383   .text.net_l2_socket_create:0000000000000022 .L0 
C:\Users\stapi\AppData\Local\Temp\ccRf8fPj.s:1388   .text.net_l2_socket_create:000000000000002a .L0 
C:\Users\stapi\AppData\Local\Temp\ccRf8fPj.s:1389   .text.net_l2_socket_create:000000000000002a .L0 
C:\Users\stapi\AppData\Local\Temp\ccRf8fPj.s:1392   .text.net_l2_socket_create:000000000000002c .L0 
C:\Users\stapi\AppData\Local\Temp\ccRf8fPj.s:1393   .text.net_l2_socket_create:000000000000002e .L0 
C:\Users\stapi\AppData\Local\Temp\ccRf8fPj.s:1394   .text.net_l2_socket_create:000000000000002e .L0 
C:\Users\stapi\AppData\Local\Temp\ccRf8fPj.s:1396   .text.net_l2_socket_create:0000000000000036 .L0 
C:\Users\stapi\AppData\Local\Temp\ccRf8fPj.s:1397   .text.net_l2_socket_create:0000000000000036 .L0 
C:\Users\stapi\AppData\Local\Temp\ccRf8fPj.s:1398   .text.net_l2_socket_create:0000000000000036 .L0 
C:\Users\stapi\AppData\Local\Temp\ccRf8fPj.s:1399   .text.net_l2_socket_create:0000000000000036 .L0 
C:\Users\stapi\AppData\Local\Temp\ccRf8fPj.s:1400   .text.net_l2_socket_create:0000000000000036 .L0 
C:\Users\stapi\AppData\Local\Temp\ccRf8fPj.s:1403   .text.net_l2_socket_create:0000000000000036 .L0 
C:\Users\stapi\AppData\Local\Temp\ccRf8fPj.s:1405   .text.net_l2_socket_create:0000000000000036 .L0 
C:\Users\stapi\AppData\Local\Temp\ccRf8fPj.s:1406   .text.net_l2_socket_create:0000000000000036 .L0 
C:\Users\stapi\AppData\Local\Temp\ccRf8fPj.s:1409   .text.net_l2_socket_create:000000000000003a .L0 
C:\Users\stapi\AppData\Local\Temp\ccRf8fPj.s:1413   .text.net_l2_socket_create:000000000000003c .L0 
C:\Users\stapi\AppData\Local\Temp\ccRf8fPj.s:1414   .text.net_l2_socket_create:000000000000003c .L0 
C:\Users\stapi\AppData\Local\Temp\ccRf8fPj.s:1415   .text.net_l2_socket_create:000000000000003c .L0 
C:\Users\stapi\AppData\Local\Temp\ccRf8fPj.s:1416   .text.net_l2_socket_create:000000000000003c .L0 
C:\Users\stapi\AppData\Local\Temp\ccRf8fPj.s:1418   .text.net_l2_socket_create:000000000000003e .L0 
C:\Users\stapi\AppData\Local\Temp\ccRf8fPj.s:1420   .text.net_l2_socket_create:0000000000000042 .L0 
C:\Users\stapi\AppData\Local\Temp\ccRf8fPj.s:1424   .text.net_l2_socket_create:000000000000004a .L0 
C:\Users\stapi\AppData\Local\Temp\ccRf8fPj.s:1425   .text.net_l2_socket_create:000000000000004a .L0 
C:\Users\stapi\AppData\Local\Temp\ccRf8fPj.s:1427   .text.net_l2_socket_create:000000000000004c .L0 
C:\Users\stapi\AppData\Local\Temp\ccRf8fPj.s:1429   .text.net_l2_socket_create:000000000000004e .L0 
C:\Users\stapi\AppData\Local\Temp\ccRf8fPj.s:1433   .text.net_l2_socket_create:0000000000000052 .L0 
C:\Users\stapi\AppData\Local\Temp\ccRf8fPj.s:1434   .text.net_l2_socket_create:0000000000000052 .L0 
C:\Users\stapi\AppData\Local\Temp\ccRf8fPj.s:1435   .text.net_l2_socket_create:0000000000000052 .L0 
C:\Users\stapi\AppData\Local\Temp\ccRf8fPj.s:1436   .text.net_l2_socket_create:0000000000000052 .L0 
C:\Users\stapi\AppData\Local\Temp\ccRf8fPj.s:1437   .text.net_l2_socket_create:0000000000000052 .L0 
C:\Users\stapi\AppData\Local\Temp\ccRf8fPj.s:1444   .text.net_l2_socket_create:0000000000000060 .L0 
C:\Users\stapi\AppData\Local\Temp\ccRf8fPj.s:1446   .text.net_l2_socket_create:0000000000000062 .L0 
C:\Users\stapi\AppData\Local\Temp\ccRf8fPj.s:1447   .text.net_l2_socket_create:0000000000000062 .L0 
C:\Users\stapi\AppData\Local\Temp\ccRf8fPj.s:1449   .text.net_l2_socket_create:0000000000000066 .L0 
C:\Users\stapi\AppData\Local\Temp\ccRf8fPj.s:1450   .text.net_l2_socket_create:0000000000000066 .L0 
C:\Users\stapi\AppData\Local\Temp\ccRf8fPj.s:1460   .text.net_l2_socket_create:0000000000000080 .L0 
C:\Users\stapi\AppData\Local\Temp\ccRf8fPj.s:1462   .text.net_l2_socket_create:0000000000000082 .L0 
C:\Users\stapi\AppData\Local\Temp\ccRf8fPj.s:1467   .text.net_l2_socket_create:000000000000008c .L0 
C:\Users\stapi\AppData\Local\Temp\ccRf8fPj.s:1468   .text.net_l2_socket_create:000000000000008c .L0 
C:\Users\stapi\AppData\Local\Temp\ccRf8fPj.s:1470   .text.net_l2_socket_create:000000000000008e .L0 
C:\Users\stapi\AppData\Local\Temp\ccRf8fPj.s:1471   .text.net_l2_socket_create:000000000000008e .L0 
C:\Users\stapi\AppData\Local\Temp\ccRf8fPj.s:1474   .text.net_l2_socket_create:0000000000000092 .L0 
C:\Users\stapi\AppData\Local\Temp\ccRf8fPj.s:1475   .text.net_l2_socket_create:0000000000000092 .L0 
C:\Users\stapi\AppData\Local\Temp\ccRf8fPj.s:1476   .text.net_l2_socket_create:0000000000000094 .L0 
C:\Users\stapi\AppData\Local\Temp\ccRf8fPj.s:1483   .text.net_l2_socket_delete:0000000000000000 net_l2_socket_delete
C:\Users\stapi\AppData\Local\Temp\ccRf8fPj.s:1486   .text.net_l2_socket_delete:0000000000000000 .L0 
C:\Users\stapi\AppData\Local\Temp\ccRf8fPj.s:1488   .text.net_l2_socket_delete:0000000000000000 .L0 
C:\Users\stapi\AppData\Local\Temp\ccRf8fPj.s:1489   .text.net_l2_socket_delete:0000000000000008 .L0 
C:\Users\stapi\AppData\Local\Temp\ccRf8fPj.s:1490   .text.net_l2_socket_delete:0000000000000008 .L0 
C:\Users\stapi\AppData\Local\Temp\ccRf8fPj.s:1491   .text.net_l2_socket_delete:0000000000000008 .L0 
C:\Users\stapi\AppData\Local\Temp\ccRf8fPj.s:1493   .text.net_l2_socket_delete:0000000000000008 .L0 
C:\Users\stapi\AppData\Local\Temp\ccRf8fPj.s:1495   .text.net_l2_socket_delete:0000000000000008 .L0 
C:\Users\stapi\AppData\Local\Temp\ccRf8fPj.s:1496   .text.net_l2_socket_delete:0000000000000008 .L0 
C:\Users\stapi\AppData\Local\Temp\ccRf8fPj.s:1497   .text.net_l2_socket_delete:0000000000000008 .L0 
C:\Users\stapi\AppData\Local\Temp\ccRf8fPj.s:1498   .text.net_l2_socket_delete:0000000000000008 .L0 
C:\Users\stapi\AppData\Local\Temp\ccRf8fPj.s:1500   .text.net_l2_socket_delete:000000000000000c .L0 
C:\Users\stapi\AppData\Local\Temp\ccRf8fPj.s:1502   .text.net_l2_socket_delete:0000000000000010 .L0 
C:\Users\stapi\AppData\Local\Temp\ccRf8fPj.s:1505   .text.net_l2_socket_delete:0000000000000016 .L0 
C:\Users\stapi\AppData\Local\Temp\ccRf8fPj.s:1507   .text.net_l2_socket_delete:0000000000000018 .L0 
C:\Users\stapi\AppData\Local\Temp\ccRf8fPj.s:1509   .text.net_l2_socket_delete:000000000000001a .L0 
C:\Users\stapi\AppData\Local\Temp\ccRf8fPj.s:1513   .text.net_l2_socket_delete:000000000000001e .L0 
C:\Users\stapi\AppData\Local\Temp\ccRf8fPj.s:1514   .text.net_l2_socket_delete:000000000000001e .L0 
C:\Users\stapi\AppData\Local\Temp\ccRf8fPj.s:1515   .text.net_l2_socket_delete:000000000000001e .L0 
C:\Users\stapi\AppData\Local\Temp\ccRf8fPj.s:1516   .text.net_l2_socket_delete:000000000000001e .L0 
C:\Users\stapi\AppData\Local\Temp\ccRf8fPj.s:1518   .text.net_l2_socket_delete:0000000000000020 .L0 
C:\Users\stapi\AppData\Local\Temp\ccRf8fPj.s:1521   .text.net_l2_socket_delete:0000000000000022 .L0 
C:\Users\stapi\AppData\Local\Temp\ccRf8fPj.s:1523   .text.net_l2_socket_delete:0000000000000024 .L0 
C:\Users\stapi\AppData\Local\Temp\ccRf8fPj.s:1525   .text.net_l2_socket_delete:0000000000000026 .L0 
C:\Users\stapi\AppData\Local\Temp\ccRf8fPj.s:1527   .text.net_l2_socket_delete:000000000000002a .L0 
C:\Users\stapi\AppData\Local\Temp\ccRf8fPj.s:1531   .text.net_l2_socket_delete:000000000000002c .L0 
C:\Users\stapi\AppData\Local\Temp\ccRf8fPj.s:1532   .text.net_l2_socket_delete:000000000000002c .L0 
C:\Users\stapi\AppData\Local\Temp\ccRf8fPj.s:1536   .text.net_l2_socket_delete:0000000000000034 .L0 
C:\Users\stapi\AppData\Local\Temp\ccRf8fPj.s:1540   .text.net_l2_socket_delete:000000000000003e .L0 
C:\Users\stapi\AppData\Local\Temp\ccRf8fPj.s:1541   .text.net_l2_socket_delete:000000000000003e .L0 
C:\Users\stapi\AppData\Local\Temp\ccRf8fPj.s:1544   .text.net_l2_socket_delete:0000000000000042 .L0 
C:\Users\stapi\AppData\Local\Temp\ccRf8fPj.s:1545   .text.net_l2_socket_delete:0000000000000042 .L0 
C:\Users\stapi\AppData\Local\Temp\ccRf8fPj.s:1548   .text.net_l2_socket_delete:0000000000000044 .L0 
C:\Users\stapi\AppData\Local\Temp\ccRf8fPj.s:1549   .text.net_l2_socket_delete:000000000000004c .L0 
C:\Users\stapi\AppData\Local\Temp\ccRf8fPj.s:1550   .text.net_l2_socket_delete:000000000000004c .L0 
C:\Users\stapi\AppData\Local\Temp\ccRf8fPj.s:1551   .text.net_l2_socket_delete:000000000000004c .L0 
C:\Users\stapi\AppData\Local\Temp\ccRf8fPj.s:1552   .text.net_l2_socket_delete:000000000000004c .L0 
C:\Users\stapi\AppData\Local\Temp\ccRf8fPj.s:1555   .text.net_l2_socket_delete:000000000000004c .L0 
C:\Users\stapi\AppData\Local\Temp\ccRf8fPj.s:1557   .text.net_l2_socket_delete:000000000000004c .L0 
C:\Users\stapi\AppData\Local\Temp\ccRf8fPj.s:1559   .text.net_l2_socket_delete:0000000000000050 .L0 
C:\Users\stapi\AppData\Local\Temp\ccRf8fPj.s:1566   .text.net_eth_receive:0000000000000000 net_eth_receive
C:\Users\stapi\AppData\Local\Temp\ccRf8fPj.s:1569   .text.net_eth_receive:0000000000000000 .L0 
C:\Users\stapi\AppData\Local\Temp\ccRf8fPj.s:1571   .text.net_eth_receive:0000000000000000 .L0 
C:\Users\stapi\AppData\Local\Temp\ccRf8fPj.s:1572   .text.net_eth_receive:0000000000000008 .L0 
C:\Users\stapi\AppData\Local\Temp\ccRf8fPj.s:1573   .text.net_eth_receive:0000000000000008 .L0 
C:\Users\stapi\AppData\Local\Temp\ccRf8fPj.s:1574   .text.net_eth_receive:0000000000000008 .L0 
C:\Users\stapi\AppData\Local\Temp\ccRf8fPj.s:1575   .text.net_eth_receive:0000000000000008 .L0 
C:\Users\stapi\AppData\Local\Temp\ccRf8fPj.s:1576   .text.net_eth_receive:0000000000000008 .L0 
C:\Users\stapi\AppData\Local\Temp\ccRf8fPj.s:1577   .text.net_eth_receive:0000000000000008 .L0 
C:\Users\stapi\AppData\Local\Temp\ccRf8fPj.s:1578   .text.net_eth_receive:0000000000000008 .L0 
C:\Users\stapi\AppData\Local\Temp\ccRf8fPj.s:1581   .text.net_eth_receive:0000000000000008 .L0 
C:\Users\stapi\AppData\Local\Temp\ccRf8fPj.s:1582   .text.net_eth_receive:0000000000000008 .L0 
C:\Users\stapi\AppData\Local\Temp\ccRf8fPj.s:1583   .text.net_eth_receive:0000000000000008 .L0 
C:\Users\stapi\AppData\Local\Temp\ccRf8fPj.s:1584   .text.net_eth_receive:0000000000000008 .L0 
C:\Users\stapi\AppData\Local\Temp\ccRf8fPj.s:1586   .text.net_eth_receive:000000000000000a .L0 
C:\Users\stapi\AppData\Local\Temp\ccRf8fPj.s:1588   .text.net_eth_receive:000000000000000c .L0 
C:\Users\stapi\AppData\Local\Temp\ccRf8fPj.s:1590   .text.net_eth_receive:0000000000000010 .L0 
C:\Users\stapi\AppData\Local\Temp\ccRf8fPj.s:1595   .text.net_eth_receive:0000000000000018 .L0 
C:\Users\stapi\AppData\Local\Temp\ccRf8fPj.s:1597   .text.net_eth_receive:000000000000001a .L0 
C:\Users\stapi\AppData\Local\Temp\ccRf8fPj.s:1602   .text.net_eth_receive:0000000000000026 .L0 
C:\Users\stapi\AppData\Local\Temp\ccRf8fPj.s:1603   .text.net_eth_receive:0000000000000026 .L0 
C:\Users\stapi\AppData\Local\Temp\ccRf8fPj.s:1604   .text.net_eth_receive:0000000000000026 .L0 
C:\Users\stapi\AppData\Local\Temp\ccRf8fPj.s:1605   .text.net_eth_receive:0000000000000026 .L0 
C:\Users\stapi\AppData\Local\Temp\ccRf8fPj.s:1606   .text.net_eth_receive:0000000000000026 .L0 
C:\Users\stapi\AppData\Local\Temp\ccRf8fPj.s:1607   .text.net_eth_receive:0000000000000026 .L0 
C:\Users\stapi\AppData\Local\Temp\ccRf8fPj.s:1608   .text.net_eth_receive:0000000000000026 .L0 
C:\Users\stapi\AppData\Local\Temp\ccRf8fPj.s:1609   .text.net_eth_receive:0000000000000026 .L0 
C:\Users\stapi\AppData\Local\Temp\ccRf8fPj.s:1613   .text.net_eth_receive:0000000000000032 .L0 
C:\Users\stapi\AppData\Local\Temp\ccRf8fPj.s:1618   .text.net_eth_receive:000000000000003a .L0 
C:\Users\stapi\AppData\Local\Temp\ccRf8fPj.s:1619   .text.net_eth_receive:000000000000003a .L0 
C:\Users\stapi\AppData\Local\Temp\ccRf8fPj.s:1620   .text.net_eth_receive:000000000000003a .L0 
C:\Users\stapi\AppData\Local\Temp\ccRf8fPj.s:1621   .text.net_eth_receive:000000000000003a .L0 
C:\Users\stapi\AppData\Local\Temp\ccRf8fPj.s:1623   .text.net_eth_receive:000000000000003c .L0 
C:\Users\stapi\AppData\Local\Temp\ccRf8fPj.s:1625   .text.net_eth_receive:000000000000003e .L0 
C:\Users\stapi\AppData\Local\Temp\ccRf8fPj.s:1627   .text.net_eth_receive:0000000000000042 .L0 
C:\Users\stapi\AppData\Local\Temp\ccRf8fPj.s:1630   .text.net_eth_receive:000000000000004a .L0 
C:\Users\stapi\AppData\Local\Temp\ccRf8fPj.s:1634   .text.net_eth_receive:000000000000004c .L0 
C:\Users\stapi\AppData\Local\Temp\ccRf8fPj.s:1635   .text.net_eth_receive:000000000000004c .L0 
C:\Users\stapi\AppData\Local\Temp\ccRf8fPj.s:1636   .text.net_eth_receive:000000000000004c .L0 
C:\Users\stapi\AppData\Local\Temp\ccRf8fPj.s:1637   .text.net_eth_receive:000000000000004c .L0 
C:\Users\stapi\AppData\Local\Temp\ccRf8fPj.s:1638   .text.net_eth_receive:000000000000004c .L0 
C:\Users\stapi\AppData\Local\Temp\ccRf8fPj.s:1645   .text.net_eth_receive:0000000000000058 .L0 
C:\Users\stapi\AppData\Local\Temp\ccRf8fPj.s:1646   .text.net_eth_receive:0000000000000058 .L0 
C:\Users\stapi\AppData\Local\Temp\ccRf8fPj.s:1648   .text.net_eth_receive:000000000000005a .L0 
C:\Users\stapi\AppData\Local\Temp\ccRf8fPj.s:1650   .text.net_eth_receive:000000000000005c .L0 
C:\Users\stapi\AppData\Local\Temp\ccRf8fPj.s:1651   .text.net_eth_receive:000000000000005c .L0 
C:\Users\stapi\AppData\Local\Temp\ccRf8fPj.s:1656   .text.net_eth_receive:0000000000000062 .L0 
C:\Users\stapi\AppData\Local\Temp\ccRf8fPj.s:1658   .text.net_eth_receive:0000000000000066 .L0 
C:\Users\stapi\AppData\Local\Temp\ccRf8fPj.s:1659   .text.net_eth_receive:0000000000000066 .L0 
C:\Users\stapi\AppData\Local\Temp\ccRf8fPj.s:1662   .text.net_eth_receive:000000000000006a .L0 
C:\Users\stapi\AppData\Local\Temp\ccRf8fPj.s:1663   .text.net_eth_receive:000000000000006a .L0 
C:\Users\stapi\AppData\Local\Temp\ccRf8fPj.s:1664   .text.net_eth_receive:000000000000006a .L0 
C:\Users\stapi\AppData\Local\Temp\ccRf8fPj.s:1671   .text.net_eth_receive:000000000000007a .L0 
C:\Users\stapi\AppData\Local\Temp\ccRf8fPj.s:1673   .text.net_eth_receive:000000000000007c .L0 
C:\Users\stapi\AppData\Local\Temp\ccRf8fPj.s:1677   .text.net_eth_receive:0000000000000086 .L0 
C:\Users\stapi\AppData\Local\Temp\ccRf8fPj.s:1678   .text.net_eth_receive:0000000000000086 .L0 
C:\Users\stapi\AppData\Local\Temp\ccRf8fPj.s:1682   .text.net_eth_receive:0000000000000088 .L0 
C:\Users\stapi\AppData\Local\Temp\ccRf8fPj.s:1684   .text.net_eth_receive:0000000000000092 .L0 
C:\Users\stapi\AppData\Local\Temp\ccRf8fPj.s:1685   .text.net_eth_receive:0000000000000092 .L0 
C:\Users\stapi\AppData\Local\Temp\ccRf8fPj.s:1686   .text.net_eth_receive:0000000000000092 .L0 
C:\Users\stapi\AppData\Local\Temp\ccRf8fPj.s:1687   .text.net_eth_receive:0000000000000092 .L0 
C:\Users\stapi\AppData\Local\Temp\ccRf8fPj.s:1688   .text.net_eth_receive:0000000000000092 .L0 
C:\Users\stapi\AppData\Local\Temp\ccRf8fPj.s:1689   .text.net_eth_receive:0000000000000092 .L0 
C:\Users\stapi\AppData\Local\Temp\ccRf8fPj.s:1690   .text.net_eth_receive:0000000000000092 .L0 
C:\Users\stapi\AppData\Local\Temp\ccRf8fPj.s:1691   .text.net_eth_receive:0000000000000092 .L0 
C:\Users\stapi\AppData\Local\Temp\ccRf8fPj.s:1694   .text.net_eth_receive:0000000000000092 .L0 
C:\Users\stapi\AppData\Local\Temp\ccRf8fPj.s:1696   .text.net_eth_receive:0000000000000092 .L0 
C:\Users\stapi\AppData\Local\Temp\ccRf8fPj.s:1701   .text.net_eth_receive:0000000000000096 .L0 
C:\Users\stapi\AppData\Local\Temp\ccRf8fPj.s:1704   .text.net_eth_receive:000000000000009a .L0 
C:\Users\stapi\AppData\Local\Temp\ccRf8fPj.s:1710   .text.net_eth_receive:00000000000000a6 .L0 
C:\Users\stapi\AppData\Local\Temp\ccRf8fPj.s:1717   .text.net_dhcp_start:0000000000000000 net_dhcp_start
C:\Users\stapi\AppData\Local\Temp\ccRf8fPj.s:1720   .text.net_dhcp_start:0000000000000000 .L0 
C:\Users\stapi\AppData\Local\Temp\ccRf8fPj.s:1722   .text.net_dhcp_start:0000000000000000 .L0 
C:\Users\stapi\AppData\Local\Temp\ccRf8fPj.s:1723   .text.net_dhcp_start:0000000000000008 .L0 
C:\Users\stapi\AppData\Local\Temp\ccRf8fPj.s:1724   .text.net_dhcp_start:0000000000000008 .L0 
C:\Users\stapi\AppData\Local\Temp\ccRf8fPj.s:1727   .text.net_dhcp_start:0000000000000008 .L0 
C:\Users\stapi\AppData\Local\Temp\ccRf8fPj.s:1728   .text.net_dhcp_start:0000000000000008 .L0 
C:\Users\stapi\AppData\Local\Temp\ccRf8fPj.s:1729   .text.net_dhcp_start:0000000000000008 .L0 
C:\Users\stapi\AppData\Local\Temp\ccRf8fPj.s:1735   .text.net_dhcp_start:000000000000001a .L0 
C:\Users\stapi\AppData\Local\Temp\ccRf8fPj.s:1737   .text.net_dhcp_start:000000000000001e .L0 
C:\Users\stapi\AppData\Local\Temp\ccRf8fPj.s:1739   .text.net_dhcp_start:000000000000002a .L0 
C:\Users\stapi\AppData\Local\Temp\ccRf8fPj.s:1740   .text.net_dhcp_start:000000000000002a .L0 
C:\Users\stapi\AppData\Local\Temp\ccRf8fPj.s:1741   .text.net_dhcp_start:000000000000002a .L0 
C:\Users\stapi\AppData\Local\Temp\ccRf8fPj.s:1748   .text.net_dhcp_stop:0000000000000000 net_dhcp_stop
C:\Users\stapi\AppData\Local\Temp\ccRf8fPj.s:1751   .text.net_dhcp_stop:0000000000000000 .L0 
C:\Users\stapi\AppData\Local\Temp\ccRf8fPj.s:1753   .text.net_dhcp_stop:0000000000000000 .L0 
C:\Users\stapi\AppData\Local\Temp\ccRf8fPj.s:1754   .text.net_dhcp_stop:0000000000000000 .L0 
C:\Users\stapi\AppData\Local\Temp\ccRf8fPj.s:1755   .text.net_dhcp_stop:0000000000000000 .L0 
C:\Users\stapi\AppData\Local\Temp\ccRf8fPj.s:1760   .text.net_dhcp_stop:0000000000000012 .L0 
C:\Users\stapi\AppData\Local\Temp\ccRf8fPj.s:1767   .text.net_dhcp_release:0000000000000000 net_dhcp_release
C:\Users\stapi\AppData\Local\Temp\ccRf8fPj.s:1770   .text.net_dhcp_release:0000000000000000 .L0 
C:\Users\stapi\AppData\Local\Temp\ccRf8fPj.s:1772   .text.net_dhcp_release:0000000000000000 .L0 
C:\Users\stapi\AppData\Local\Temp\ccRf8fPj.s:1773   .text.net_dhcp_release:0000000000000008 .L0 
C:\Users\stapi\AppData\Local\Temp\ccRf8fPj.s:1774   .text.net_dhcp_release:0000000000000008 .L0 
C:\Users\stapi\AppData\Local\Temp\ccRf8fPj.s:1777   .text.net_dhcp_release:0000000000000008 .L0 
C:\Users\stapi\AppData\Local\Temp\ccRf8fPj.s:1778   .text.net_dhcp_release:0000000000000008 .L0 
C:\Users\stapi\AppData\Local\Temp\ccRf8fPj.s:1779   .text.net_dhcp_release:0000000000000008 .L0 
C:\Users\stapi\AppData\Local\Temp\ccRf8fPj.s:1785   .text.net_dhcp_release:000000000000001a .L0 
C:\Users\stapi\AppData\Local\Temp\ccRf8fPj.s:1787   .text.net_dhcp_release:000000000000001e .L0 
C:\Users\stapi\AppData\Local\Temp\ccRf8fPj.s:1789   .text.net_dhcp_release:000000000000002a .L0 
C:\Users\stapi\AppData\Local\Temp\ccRf8fPj.s:1790   .text.net_dhcp_release:000000000000002a .L0 
C:\Users\stapi\AppData\Local\Temp\ccRf8fPj.s:1791   .text.net_dhcp_release:000000000000002a .L0 
C:\Users\stapi\AppData\Local\Temp\ccRf8fPj.s:1798   .text.net_dhcp_address_obtained:0000000000000000 net_dhcp_address_obtained
C:\Users\stapi\AppData\Local\Temp\ccRf8fPj.s:1801   .text.net_dhcp_address_obtained:0000000000000000 .L0 
C:\Users\stapi\AppData\Local\Temp\ccRf8fPj.s:1803   .text.net_dhcp_address_obtained:0000000000000000 .L0 
C:\Users\stapi\AppData\Local\Temp\ccRf8fPj.s:1804   .text.net_dhcp_address_obtained:0000000000000008 .L0 
C:\Users\stapi\AppData\Local\Temp\ccRf8fPj.s:1805   .text.net_dhcp_address_obtained:0000000000000008 .L0 
C:\Users\stapi\AppData\Local\Temp\ccRf8fPj.s:1808   .text.net_dhcp_address_obtained:0000000000000008 .L0 
C:\Users\stapi\AppData\Local\Temp\ccRf8fPj.s:1809   .text.net_dhcp_address_obtained:0000000000000008 .L0 
C:\Users\stapi\AppData\Local\Temp\ccRf8fPj.s:1810   .text.net_dhcp_address_obtained:0000000000000008 .L0 
C:\Users\stapi\AppData\Local\Temp\ccRf8fPj.s:1813   .text.net_dhcp_address_obtained:0000000000000010 .L0 
C:\Users\stapi\AppData\Local\Temp\ccRf8fPj.s:1815   .text.net_dhcp_address_obtained:000000000000001c .L0 
C:\Users\stapi\AppData\Local\Temp\ccRf8fPj.s:1816   .text.net_dhcp_address_obtained:000000000000001c .L0 
C:\Users\stapi\AppData\Local\Temp\ccRf8fPj.s:1817   .text.net_dhcp_address_obtained:000000000000001c .L0 
C:\Users\stapi\AppData\Local\Temp\ccRf8fPj.s:1824   .text.net_dhcpd_start:0000000000000000 net_dhcpd_start
C:\Users\stapi\AppData\Local\Temp\ccRf8fPj.s:1827   .text.net_dhcpd_start:0000000000000000 .L0 
C:\Users\stapi\AppData\Local\Temp\ccRf8fPj.s:1829   .text.net_dhcpd_start:0000000000000000 .L0 
C:\Users\stapi\AppData\Local\Temp\ccRf8fPj.s:1830   .text.net_dhcpd_start:0000000000000008 .L0 
C:\Users\stapi\AppData\Local\Temp\ccRf8fPj.s:1831   .text.net_dhcpd_start:0000000000000008 .L0 
C:\Users\stapi\AppData\Local\Temp\ccRf8fPj.s:1832   .text.net_dhcpd_start:0000000000000008 .L0 
C:\Users\stapi\AppData\Local\Temp\ccRf8fPj.s:1833   .text.net_dhcpd_start:0000000000000008 .L0 
C:\Users\stapi\AppData\Local\Temp\ccRf8fPj.s:1836   .text.net_dhcpd_start:0000000000000008 .L0 
C:\Users\stapi\AppData\Local\Temp\ccRf8fPj.s:1837   .text.net_dhcpd_start:0000000000000008 .L0 
C:\Users\stapi\AppData\Local\Temp\ccRf8fPj.s:1838   .text.net_dhcpd_start:0000000000000008 .L0 
C:\Users\stapi\AppData\Local\Temp\ccRf8fPj.s:1840   .text.net_dhcpd_start:000000000000000a .L0 
C:\Users\stapi\AppData\Local\Temp\ccRf8fPj.s:1842   .text.net_dhcpd_start:000000000000000c .L0 
C:\Users\stapi\AppData\Local\Temp\ccRf8fPj.s:1843   .text.net_dhcpd_start:000000000000000c .L0 
C:\Users\stapi\AppData\Local\Temp\ccRf8fPj.s:1846   .text.net_dhcpd_start:0000000000000014 .L0 
C:\Users\stapi\AppData\Local\Temp\ccRf8fPj.s:1848   .text.net_dhcpd_start:0000000000000018 .L0 
C:\Users\stapi\AppData\Local\Temp\ccRf8fPj.s:1850   .text.net_dhcpd_start:000000000000001a .L0 
C:\Users\stapi\AppData\Local\Temp\ccRf8fPj.s:1852   .text.net_dhcpd_start:000000000000001c .L0 
C:\Users\stapi\AppData\Local\Temp\ccRf8fPj.s:1855   .text.net_dhcpd_start:0000000000000024 .L0 
C:\Users\stapi\AppData\Local\Temp\ccRf8fPj.s:1856   .text.net_dhcpd_start:0000000000000024 .L0 
C:\Users\stapi\AppData\Local\Temp\ccRf8fPj.s:1860   .text.net_dhcpd_start:000000000000002a .L0 
C:\Users\stapi\AppData\Local\Temp\ccRf8fPj.s:1862   .text.net_dhcpd_start:0000000000000034 .L0 
C:\Users\stapi\AppData\Local\Temp\ccRf8fPj.s:1863   .text.net_dhcpd_start:0000000000000034 .L0 
C:\Users\stapi\AppData\Local\Temp\ccRf8fPj.s:1864   .text.net_dhcpd_start:0000000000000034 .L0 
C:\Users\stapi\AppData\Local\Temp\ccRf8fPj.s:1865   .text.net_dhcpd_start:0000000000000034 .L0 
C:\Users\stapi\AppData\Local\Temp\ccRf8fPj.s:1866   .text.net_dhcpd_start:0000000000000034 .L0 
C:\Users\stapi\AppData\Local\Temp\ccRf8fPj.s:1873   .text.net_dhcpd_stop:0000000000000000 net_dhcpd_stop
C:\Users\stapi\AppData\Local\Temp\ccRf8fPj.s:1876   .text.net_dhcpd_stop:0000000000000000 .L0 
C:\Users\stapi\AppData\Local\Temp\ccRf8fPj.s:1878   .text.net_dhcpd_stop:0000000000000000 .L0 
C:\Users\stapi\AppData\Local\Temp\ccRf8fPj.s:1879   .text.net_dhcpd_stop:0000000000000000 .L0 
C:\Users\stapi\AppData\Local\Temp\ccRf8fPj.s:1880   .text.net_dhcpd_stop:0000000000000000 .L0 
C:\Users\stapi\AppData\Local\Temp\ccRf8fPj.s:1881   .text.net_dhcpd_stop:0000000000000000 .L0 
C:\Users\stapi\AppData\Local\Temp\ccRf8fPj.s:1883   .text.net_dhcpd_stop:0000000000000002 .L0 
C:\Users\stapi\AppData\Local\Temp\ccRf8fPj.s:1884   .text.net_dhcpd_stop:000000000000000a .L0 
C:\Users\stapi\AppData\Local\Temp\ccRf8fPj.s:1885   .text.net_dhcpd_stop:000000000000000a .L0 
C:\Users\stapi\AppData\Local\Temp\ccRf8fPj.s:1886   .text.net_dhcpd_stop:000000000000000a .L0 
C:\Users\stapi\AppData\Local\Temp\ccRf8fPj.s:1888   .text.net_dhcpd_stop:000000000000000a .L0 
C:\Users\stapi\AppData\Local\Temp\ccRf8fPj.s:1889   .text.net_dhcpd_stop:000000000000000a .L0 
C:\Users\stapi\AppData\Local\Temp\ccRf8fPj.s:1892   .text.net_dhcpd_stop:0000000000000012 .L0 
C:\Users\stapi\AppData\Local\Temp\ccRf8fPj.s:1895   .text.net_dhcpd_stop:0000000000000018 .L0 
C:\Users\stapi\AppData\Local\Temp\ccRf8fPj.s:1896   .text.net_dhcpd_stop:0000000000000018 .L0 
C:\Users\stapi\AppData\Local\Temp\ccRf8fPj.s:1899   .text.net_dhcpd_stop:0000000000000020 .L0 
C:\Users\stapi\AppData\Local\Temp\ccRf8fPj.s:1901   .text.net_dhcpd_stop:0000000000000022 .L0 
C:\Users\stapi\AppData\Local\Temp\ccRf8fPj.s:1902   .text.net_dhcpd_stop:0000000000000022 .L0 
C:\Users\stapi\AppData\Local\Temp\ccRf8fPj.s:1905   .text.net_dhcpd_stop:0000000000000026 .L0 
C:\Users\stapi\AppData\Local\Temp\ccRf8fPj.s:1906   .text.net_dhcpd_stop:000000000000002e .L0 
C:\Users\stapi\AppData\Local\Temp\ccRf8fPj.s:1907   .text.net_dhcpd_stop:000000000000002e .L0 
C:\Users\stapi\AppData\Local\Temp\ccRf8fPj.s:1908   .text.net_dhcpd_stop:000000000000002e .L0 
C:\Users\stapi\AppData\Local\Temp\ccRf8fPj.s:1912   .text.net_dhcpd_stop:0000000000000030 .L0 
C:\Users\stapi\AppData\Local\Temp\ccRf8fPj.s:1919   .text.net_set_dns:0000000000000000 net_set_dns
C:\Users\stapi\AppData\Local\Temp\ccRf8fPj.s:1922   .text.net_set_dns:0000000000000000 .L0 
C:\Users\stapi\AppData\Local\Temp\ccRf8fPj.s:1924   .text.net_set_dns:0000000000000000 .L0 
C:\Users\stapi\AppData\Local\Temp\ccRf8fPj.s:1925   .text.net_set_dns:0000000000000008 .L0 
C:\Users\stapi\AppData\Local\Temp\ccRf8fPj.s:1926   .text.net_set_dns:0000000000000008 .L0 
C:\Users\stapi\AppData\Local\Temp\ccRf8fPj.s:1928   .text.net_set_dns:0000000000000008 .L0 
C:\Users\stapi\AppData\Local\Temp\ccRf8fPj.s:1929   .text.net_set_dns:0000000000000008 .L0 
C:\Users\stapi\AppData\Local\Temp\ccRf8fPj.s:1930   .text.net_set_dns:0000000000000008 .L0 
C:\Users\stapi\AppData\Local\Temp\ccRf8fPj.s:1931   .text.net_set_dns:000000000000000a .L0 
C:\Users\stapi\AppData\Local\Temp\ccRf8fPj.s:1933   .text.net_set_dns:000000000000000a .L0 
C:\Users\stapi\AppData\Local\Temp\ccRf8fPj.s:1935   .text.net_set_dns:000000000000000c .L0 
C:\Users\stapi\AppData\Local\Temp\ccRf8fPj.s:1941   .text.net_set_dns:0000000000000018 .L0 
C:\Users\stapi\AppData\Local\Temp\ccRf8fPj.s:1942   .text.net_set_dns:0000000000000018 .L0 
C:\Users\stapi\AppData\Local\Temp\ccRf8fPj.s:1944   .text.net_set_dns:000000000000001c .L0 
C:\Users\stapi\AppData\Local\Temp\ccRf8fPj.s:1946   .text.net_set_dns:0000000000000024 .L0 
C:\Users\stapi\AppData\Local\Temp\ccRf8fPj.s:1947   .text.net_set_dns:0000000000000024 .L0 
C:\Users\stapi\AppData\Local\Temp\ccRf8fPj.s:1948   .text.net_set_dns:0000000000000024 .L0 
C:\Users\stapi\AppData\Local\Temp\ccRf8fPj.s:1955   .text.net_get_dns:0000000000000000 net_get_dns
C:\Users\stapi\AppData\Local\Temp\ccRf8fPj.s:1958   .text.net_get_dns:0000000000000000 .L0 
C:\Users\stapi\AppData\Local\Temp\ccRf8fPj.s:1960   .text.net_get_dns:0000000000000000 .L0 
C:\Users\stapi\AppData\Local\Temp\ccRf8fPj.s:1961   .text.net_get_dns:0000000000000000 .L0 
C:\Users\stapi\AppData\Local\Temp\ccRf8fPj.s:1962   .text.net_get_dns:0000000000000000 .L0 
C:\Users\stapi\AppData\Local\Temp\ccRf8fPj.s:1963   .text.net_get_dns:0000000000000000 .L0 
C:\Users\stapi\AppData\Local\Temp\ccRf8fPj.s:1965   .text.net_get_dns:0000000000000002 .L0 
C:\Users\stapi\AppData\Local\Temp\ccRf8fPj.s:1966   .text.net_get_dns:000000000000000a .L0 
C:\Users\stapi\AppData\Local\Temp\ccRf8fPj.s:1967   .text.net_get_dns:000000000000000a .L0 
C:\Users\stapi\AppData\Local\Temp\ccRf8fPj.s:1968   .text.net_get_dns:000000000000000a .L0 
C:\Users\stapi\AppData\Local\Temp\ccRf8fPj.s:1971   .text.net_get_dns:000000000000000c .L0 
C:\Users\stapi\AppData\Local\Temp\ccRf8fPj.s:1972   .text.net_get_dns:000000000000000c .L0 
C:\Users\stapi\AppData\Local\Temp\ccRf8fPj.s:1977   .text.net_get_dns:0000000000000016 .L0 
C:\Users\stapi\AppData\Local\Temp\ccRf8fPj.s:1978   .text.net_get_dns:0000000000000016 .L0 
C:\Users\stapi\AppData\Local\Temp\ccRf8fPj.s:1980   .text.net_get_dns:0000000000000018 .L0 
C:\Users\stapi\AppData\Local\Temp\ccRf8fPj.s:1983   .text.net_get_dns:000000000000001a .L0 
C:\Users\stapi\AppData\Local\Temp\ccRf8fPj.s:1985   .text.net_get_dns:000000000000001c .L0 
C:\Users\stapi\AppData\Local\Temp\ccRf8fPj.s:1986   .text.net_get_dns:000000000000001c .L0 
C:\Users\stapi\AppData\Local\Temp\ccRf8fPj.s:1987   .text.net_get_dns:0000000000000024 .L0 
C:\Users\stapi\AppData\Local\Temp\ccRf8fPj.s:1988   .text.net_get_dns:0000000000000024 .L0 
C:\Users\stapi\AppData\Local\Temp\ccRf8fPj.s:1989   .text.net_get_dns:0000000000000024 .L0 
C:\Users\stapi\AppData\Local\Temp\ccRf8fPj.s:1993   .text.net_get_dns:0000000000000024 .L0 
C:\Users\stapi\AppData\Local\Temp\ccRf8fPj.s:1996   .text.net_get_dns:0000000000000026 .L0 
C:\Users\stapi\AppData\Local\Temp\ccRf8fPj.s:1997   .text.net_get_dns:0000000000000028 .L0 
C:\Users\stapi\AppData\Local\Temp\ccRf8fPj.s:2004   .text.net_compat_check:0000000000000000 net_compat_check
C:\Users\stapi\AppData\Local\Temp\ccRf8fPj.s:2007   .text.net_compat_check:0000000000000000 .L0 
C:\Users\stapi\AppData\Local\Temp\ccRf8fPj.s:2009   .text.net_compat_check:0000000000000000 .L0 
C:\Users\stapi\AppData\Local\Temp\ccRf8fPj.s:2010   .text.net_compat_check:0000000000000000 .L0 
C:\Users\stapi\AppData\Local\Temp\ccRf8fPj.s:2011   .text.net_compat_check:0000000000000000 .L0 
C:\Users\stapi\AppData\Local\Temp\ccRf8fPj.s:2014   .text.net_compat_check:0000000000000004 .L0 
C:\Users\stapi\AppData\Local\Temp\ccRf8fPj.s:2017   .text.net_compat_check:000000000000000a .L0 
C:\Users\stapi\AppData\Local\Temp\ccRf8fPj.s:2024   .text.net_lpbk_socket_create:0000000000000000 net_lpbk_socket_create
C:\Users\stapi\AppData\Local\Temp\ccRf8fPj.s:2027   .text.net_lpbk_socket_create:0000000000000000 .L0 
C:\Users\stapi\AppData\Local\Temp\ccRf8fPj.s:2029   .text.net_lpbk_socket_create:0000000000000000 .L0 
C:\Users\stapi\AppData\Local\Temp\ccRf8fPj.s:2030   .text.net_lpbk_socket_create:0000000000000008 .L0 
C:\Users\stapi\AppData\Local\Temp\ccRf8fPj.s:2031   .text.net_lpbk_socket_create:0000000000000008 .L0 
C:\Users\stapi\AppData\Local\Temp\ccRf8fPj.s:2033   .text.net_lpbk_socket_create:0000000000000008 .L0 
C:\Users\stapi\AppData\Local\Temp\ccRf8fPj.s:2034   .text.net_lpbk_socket_create:0000000000000008 .L0 
C:\Users\stapi\AppData\Local\Temp\ccRf8fPj.s:2035   .text.net_lpbk_socket_create:0000000000000008 .L0 
C:\Users\stapi\AppData\Local\Temp\ccRf8fPj.s:2037   .text.net_lpbk_socket_create:000000000000000a .L0 
C:\Users\stapi\AppData\Local\Temp\ccRf8fPj.s:2043   .text.net_lpbk_socket_create:0000000000000016 .L0 
C:\Users\stapi\AppData\Local\Temp\ccRf8fPj.s:2044   .text.net_lpbk_socket_create:0000000000000016 .L0 
C:\Users\stapi\AppData\Local\Temp\ccRf8fPj.s:2048   .text.net_lpbk_socket_create:0000000000000024 .L0 
C:\Users\stapi\AppData\Local\Temp\ccRf8fPj.s:2049   .text.net_lpbk_socket_create:0000000000000024 .L0 
C:\Users\stapi\AppData\Local\Temp\ccRf8fPj.s:2050   .text.net_lpbk_socket_create:0000000000000024 .L0 
C:\Users\stapi\AppData\Local\Temp\ccRf8fPj.s:2057   .text.net_lpbk_socket_bind:0000000000000000 net_lpbk_socket_bind
C:\Users\stapi\AppData\Local\Temp\ccRf8fPj.s:2060   .text.net_lpbk_socket_bind:0000000000000000 .L0 
C:\Users\stapi\AppData\Local\Temp\ccRf8fPj.s:2062   .text.net_lpbk_socket_bind:0000000000000000 .L0 
C:\Users\stapi\AppData\Local\Temp\ccRf8fPj.s:2063   .text.net_lpbk_socket_bind:0000000000000008 .L0 
C:\Users\stapi\AppData\Local\Temp\ccRf8fPj.s:2064   .text.net_lpbk_socket_bind:0000000000000008 .L0 
C:\Users\stapi\AppData\Local\Temp\ccRf8fPj.s:2065   .text.net_lpbk_socket_bind:0000000000000008 .L0 
C:\Users\stapi\AppData\Local\Temp\ccRf8fPj.s:2066   .text.net_lpbk_socket_bind:0000000000000008 .L0 
C:\Users\stapi\AppData\Local\Temp\ccRf8fPj.s:2068   .text.net_lpbk_socket_bind:0000000000000008 .L0 
C:\Users\stapi\AppData\Local\Temp\ccRf8fPj.s:2069   .text.net_lpbk_socket_bind:0000000000000008 .L0 
C:\Users\stapi\AppData\Local\Temp\ccRf8fPj.s:2070   .text.net_lpbk_socket_bind:0000000000000008 .L0 
C:\Users\stapi\AppData\Local\Temp\ccRf8fPj.s:2071   .text.net_lpbk_socket_bind:000000000000000a .L0 
C:\Users\stapi\AppData\Local\Temp\ccRf8fPj.s:2073   .text.net_lpbk_socket_bind:000000000000000a .L0 
C:\Users\stapi\AppData\Local\Temp\ccRf8fPj.s:2075   .text.net_lpbk_socket_bind:000000000000000c .L0 
C:\Users\stapi\AppData\Local\Temp\ccRf8fPj.s:2077   .text.net_lpbk_socket_bind:000000000000000e .L0 
C:\Users\stapi\AppData\Local\Temp\ccRf8fPj.s:2079   .text.net_lpbk_socket_bind:0000000000000010 .L0 
C:\Users\stapi\AppData\Local\Temp\ccRf8fPj.s:2086   .text.net_lpbk_socket_bind:000000000000001c .L0 
C:\Users\stapi\AppData\Local\Temp\ccRf8fPj.s:2087   .text.net_lpbk_socket_bind:000000000000001c .L0 
C:\Users\stapi\AppData\Local\Temp\ccRf8fPj.s:2089   .text.net_lpbk_socket_bind:0000000000000020 .L0 
C:\Users\stapi\AppData\Local\Temp\ccRf8fPj.s:2091   .text.net_lpbk_socket_bind:0000000000000022 .L0 
C:\Users\stapi\AppData\Local\Temp\ccRf8fPj.s:2093   .text.net_lpbk_socket_bind:0000000000000024 .L0 
C:\Users\stapi\AppData\Local\Temp\ccRf8fPj.s:2095   .text.net_lpbk_socket_bind:0000000000000028 .L0 
C:\Users\stapi\AppData\Local\Temp\ccRf8fPj.s:2096   .text.net_lpbk_socket_bind:0000000000000028 .L0 
C:\Users\stapi\AppData\Local\Temp\ccRf8fPj.s:2099   .text.net_lpbk_socket_bind:0000000000000030 .L0 
C:\Users\stapi\AppData\Local\Temp\ccRf8fPj.s:2101   .text.net_lpbk_socket_bind:0000000000000032 .L0 
C:\Users\stapi\AppData\Local\Temp\ccRf8fPj.s:2102   .text.net_lpbk_socket_bind:0000000000000032 .L0 
C:\Users\stapi\AppData\Local\Temp\ccRf8fPj.s:2106   .text.net_lpbk_socket_bind:000000000000003e .L0 
C:\Users\stapi\AppData\Local\Temp\ccRf8fPj.s:2108   .text.net_lpbk_socket_bind:0000000000000042 .L0 
C:\Users\stapi\AppData\Local\Temp\ccRf8fPj.s:2109   .text.net_lpbk_socket_bind:0000000000000042 .L0 
C:\Users\stapi\AppData\Local\Temp\ccRf8fPj.s:2115   .text.net_lpbk_socket_bind:0000000000000050 .L0 
C:\Users\stapi\AppData\Local\Temp\ccRf8fPj.s:2117   .text.net_lpbk_socket_bind:0000000000000054 .L0 
C:\Users\stapi\AppData\Local\Temp\ccRf8fPj.s:2119   .text.net_lpbk_socket_bind:000000000000005c .L0 
C:\Users\stapi\AppData\Local\Temp\ccRf8fPj.s:2120   .text.net_lpbk_socket_bind:000000000000005c .L0 
C:\Users\stapi\AppData\Local\Temp\ccRf8fPj.s:2121   .text.net_lpbk_socket_bind:000000000000005c .L0 
C:\Users\stapi\AppData\Local\Temp\ccRf8fPj.s:2122   .text.net_lpbk_socket_bind:000000000000005c .L0 
C:\Users\stapi\AppData\Local\Temp\ccRf8fPj.s:2123   .text.net_lpbk_socket_bind:000000000000005c .L0 
C:\Users\stapi\AppData\Local\Temp\ccRf8fPj.s:2130   .text.net_lpbk_socket_connect:0000000000000000 net_lpbk_socket_connect
C:\Users\stapi\AppData\Local\Temp\ccRf8fPj.s:2133   .text.net_lpbk_socket_connect:0000000000000000 .L0 
C:\Users\stapi\AppData\Local\Temp\ccRf8fPj.s:2135   .text.net_lpbk_socket_connect:0000000000000000 .L0 
C:\Users\stapi\AppData\Local\Temp\ccRf8fPj.s:2136   .text.net_lpbk_socket_connect:0000000000000008 .L0 
C:\Users\stapi\AppData\Local\Temp\ccRf8fPj.s:2137   .text.net_lpbk_socket_connect:0000000000000008 .L0 
C:\Users\stapi\AppData\Local\Temp\ccRf8fPj.s:2138   .text.net_lpbk_socket_connect:0000000000000008 .L0 
C:\Users\stapi\AppData\Local\Temp\ccRf8fPj.s:2139   .text.net_lpbk_socket_connect:0000000000000008 .L0 
C:\Users\stapi\AppData\Local\Temp\ccRf8fPj.s:2141   .text.net_lpbk_socket_connect:0000000000000008 .L0 
C:\Users\stapi\AppData\Local\Temp\ccRf8fPj.s:2142   .text.net_lpbk_socket_connect:0000000000000008 .L0 
C:\Users\stapi\AppData\Local\Temp\ccRf8fPj.s:2143   .text.net_lpbk_socket_connect:0000000000000008 .L0 
C:\Users\stapi\AppData\Local\Temp\ccRf8fPj.s:2144   .text.net_lpbk_socket_connect:000000000000000a .L0 
C:\Users\stapi\AppData\Local\Temp\ccRf8fPj.s:2146   .text.net_lpbk_socket_connect:000000000000000a .L0 
C:\Users\stapi\AppData\Local\Temp\ccRf8fPj.s:2148   .text.net_lpbk_socket_connect:000000000000000c .L0 
C:\Users\stapi\AppData\Local\Temp\ccRf8fPj.s:2150   .text.net_lpbk_socket_connect:000000000000000e .L0 
C:\Users\stapi\AppData\Local\Temp\ccRf8fPj.s:2152   .text.net_lpbk_socket_connect:0000000000000010 .L0 
C:\Users\stapi\AppData\Local\Temp\ccRf8fPj.s:2159   .text.net_lpbk_socket_connect:000000000000001c .L0 
C:\Users\stapi\AppData\Local\Temp\ccRf8fPj.s:2160   .text.net_lpbk_socket_connect:000000000000001c .L0 
C:\Users\stapi\AppData\Local\Temp\ccRf8fPj.s:2162   .text.net_lpbk_socket_connect:0000000000000020 .L0 
C:\Users\stapi\AppData\Local\Temp\ccRf8fPj.s:2164   .text.net_lpbk_socket_connect:0000000000000022 .L0 
C:\Users\stapi\AppData\Local\Temp\ccRf8fPj.s:2166   .text.net_lpbk_socket_connect:0000000000000024 .L0 
C:\Users\stapi\AppData\Local\Temp\ccRf8fPj.s:2168   .text.net_lpbk_socket_connect:0000000000000028 .L0 
C:\Users\stapi\AppData\Local\Temp\ccRf8fPj.s:2169   .text.net_lpbk_socket_connect:0000000000000028 .L0 
C:\Users\stapi\AppData\Local\Temp\ccRf8fPj.s:2172   .text.net_lpbk_socket_connect:0000000000000030 .L0 
C:\Users\stapi\AppData\Local\Temp\ccRf8fPj.s:2174   .text.net_lpbk_socket_connect:0000000000000032 .L0 
C:\Users\stapi\AppData\Local\Temp\ccRf8fPj.s:2175   .text.net_lpbk_socket_connect:0000000000000032 .L0 
C:\Users\stapi\AppData\Local\Temp\ccRf8fPj.s:2179   .text.net_lpbk_socket_connect:000000000000003e .L0 
C:\Users\stapi\AppData\Local\Temp\ccRf8fPj.s:2181   .text.net_lpbk_socket_connect:0000000000000042 .L0 
C:\Users\stapi\AppData\Local\Temp\ccRf8fPj.s:2182   .text.net_lpbk_socket_connect:0000000000000042 .L0 
C:\Users\stapi\AppData\Local\Temp\ccRf8fPj.s:2188   .text.net_lpbk_socket_connect:0000000000000050 .L0 
C:\Users\stapi\AppData\Local\Temp\ccRf8fPj.s:2190   .text.net_lpbk_socket_connect:0000000000000054 .L0 
C:\Users\stapi\AppData\Local\Temp\ccRf8fPj.s:2192   .text.net_lpbk_socket_connect:000000000000005c .L0 
C:\Users\stapi\AppData\Local\Temp\ccRf8fPj.s:2193   .text.net_lpbk_socket_connect:000000000000005c .L0 
C:\Users\stapi\AppData\Local\Temp\ccRf8fPj.s:2194   .text.net_lpbk_socket_connect:000000000000005c .L0 
C:\Users\stapi\AppData\Local\Temp\ccRf8fPj.s:2195   .text.net_lpbk_socket_connect:000000000000005c .L0 
C:\Users\stapi\AppData\Local\Temp\ccRf8fPj.s:2196   .text.net_lpbk_socket_connect:000000000000005c .L0 
C:\Users\stapi\AppData\Local\Temp\ccRf8fPj.s:2203   .text.net_if_use_static_ip:0000000000000000 net_if_use_static_ip
C:\Users\stapi\AppData\Local\Temp\ccRf8fPj.s:2206   .text.net_if_use_static_ip:0000000000000000 .L0 
C:\Users\stapi\AppData\Local\Temp\ccRf8fPj.s:2208   .text.net_if_use_static_ip:0000000000000000 .L0 
C:\Users\stapi\AppData\Local\Temp\ccRf8fPj.s:2209   .text.net_if_use_static_ip:0000000000000000 .L0 
C:\Users\stapi\AppData\Local\Temp\ccRf8fPj.s:2210   .text.net_if_use_static_ip:0000000000000000 .L0 
C:\Users\stapi\AppData\Local\Temp\ccRf8fPj.s:2213   .text.net_if_use_static_ip:0000000000000008 .L0 
C:\Users\stapi\AppData\Local\Temp\ccRf8fPj.s:2214   .text.net_if_use_static_ip:000000000000000a .L0 
C:\Users\stapi\AppData\Local\Temp\ccRf8fPj.s:2221   .text.net_if_is_static_ip:0000000000000000 net_if_is_static_ip
C:\Users\stapi\AppData\Local\Temp\ccRf8fPj.s:2224   .text.net_if_is_static_ip:0000000000000000 .L0 
C:\Users\stapi\AppData\Local\Temp\ccRf8fPj.s:2225   .text.net_if_is_static_ip:0000000000000000 .L0 
C:\Users\stapi\AppData\Local\Temp\ccRf8fPj.s:2226   .text.net_if_is_static_ip:0000000000000000 .L0 
C:\Users\stapi\AppData\Local\Temp\ccRf8fPj.s:2227   .text.net_if_is_static_ip:0000000000000000 .L0 
C:\Users\stapi\AppData\Local\Temp\ccRf8fPj.s:2230   .text.net_if_is_static_ip:000000000000000a .L0 
C:\Users\stapi\AppData\Local\Temp\ccRf8fPj.s:2235   .bss.l2_filter:0000000000000000 .LANCHOR1
C:\Users\stapi\AppData\Local\Temp\ccRf8fPj.s:2238   .bss.l2_filter:0000000000000000 l2_filter
C:\Users\stapi\AppData\Local\Temp\ccRf8fPj.s:2241   .sbss.ap_dhcpd_started:0000000000000000 .LANCHOR3
C:\Users\stapi\AppData\Local\Temp\ccRf8fPj.s:2244   .sbss.ap_dhcpd_started:0000000000000000 ap_dhcpd_started
C:\Users\stapi\AppData\Local\Temp\ccRf8fPj.s:2248   .sbss.l2_mutex:0000000000000000 .LANCHOR2
C:\Users\stapi\AppData\Local\Temp\ccRf8fPj.s:2251   .sbss.l2_mutex:0000000000000000 l2_mutex
C:\Users\stapi\AppData\Local\Temp\ccRf8fPj.s:2255   .sbss.l2_semaphore:0000000000000000 .LANCHOR0
C:\Users\stapi\AppData\Local\Temp\ccRf8fPj.s:2258   .sbss.l2_semaphore:0000000000000000 l2_semaphore
C:\Users\stapi\AppData\Local\Temp\ccRf8fPj.s:2261   .sbss.netif_static_ip:0000000000000000 .LANCHOR4
C:\Users\stapi\AppData\Local\Temp\ccRf8fPj.s:2264   .sbss.netif_static_ip:0000000000000000 netif_static_ip
C:\Users\stapi\AppData\Local\Temp\ccRf8fPj.s:50     .text.net_if_init:000000000000002a .L0 
C:\Users\stapi\AppData\Local\Temp\ccRf8fPj.s:268    .text.net_if_output:0000000000000122 .L0 
C:\Users\stapi\AppData\Local\Temp\ccRf8fPj.s:292    .text.net_l2_send_cfm:0000000000000016 .L0 
C:\Users\stapi\AppData\Local\Temp\ccRf8fPj.s:308    .text.net_ip_chksum:0000000000000008 .L0 
C:\Users\stapi\AppData\Local\Temp\ccRf8fPj.s:372    .text.net_if_add:000000000000004e .L0 
C:\Users\stapi\AppData\Local\Temp\ccRf8fPj.s:414    .text.net_if_remove:0000000000000036 .L0 
C:\Users\stapi\AppData\Local\Temp\ccRf8fPj.s:432    .text.net_if_get_mac_addr:0000000000000006 .L0 
C:\Users\stapi\AppData\Local\Temp\ccRf8fPj.s:448    .text.net_if_find_from_name:0000000000000008 .L0 
C:\Users\stapi\AppData\Local\Temp\ccRf8fPj.s:501    .text.net_if_get_name:000000000000003a .L0 
C:\Users\stapi\AppData\Local\Temp\ccRf8fPj.s:520    .text.net_if_up:0000000000000012 .L0 
C:\Users\stapi\AppData\Local\Temp\ccRf8fPj.s:539    .text.net_if_down:0000000000000012 .L0 
C:\Users\stapi\AppData\Local\Temp\ccRf8fPj.s:558    .text.net_if_set_default:0000000000000012 .L0 
C:\Users\stapi\AppData\Local\Temp\ccRf8fPj.s:601    .text.net_if_set_ip:000000000000002a .L0 
C:\Users\stapi\AppData\Local\Temp\ccRf8fPj.s:658    .text.net_if_get_ip:000000000000001e .L0 
C:\Users\stapi\AppData\Local\Temp\ccRf8fPj.s:751    .text.net_if_input:000000000000005a .L0 
C:\Users\stapi\AppData\Local\Temp\ccRf8fPj.s:769    .text.net_if_vif_info:0000000000000004 .L0 
C:\Users\stapi\AppData\Local\Temp\ccRf8fPj.s:791    .text.net_buf_tx_alloc:0000000000000014 .L0 
C:\Users\stapi\AppData\Local\Temp\ccRf8fPj.s:813    .text.net_buf_tx_alloc_ref:0000000000000014 .L0 
C:\Users\stapi\AppData\Local\Temp\ccRf8fPj.s:989    .text.net_buf_tx_info:00000000000000b6 .L0 
C:\Users\stapi\AppData\Local\Temp\ccRf8fPj.s:1021   .text.net_buf_tx_free:0000000000000028 .L0 
C:\Users\stapi\AppData\Local\Temp\ccRf8fPj.s:1036   .text.net_buf_tx_cat:0000000000000008 .L0 
C:\Users\stapi\AppData\Local\Temp\ccRf8fPj.s:1125   .text.net_init:0000000000000072 .L0 
C:\Users\stapi\AppData\Local\Temp\ccRf8fPj.s:1175   .text.net_deinit:0000000000000048 .L0 
C:\Users\stapi\AppData\Local\Temp\ccRf8fPj.s:1342   .text.net_l2_send:00000000000000f8 .L0 
C:\Users\stapi\AppData\Local\Temp\ccRf8fPj.s:1479   .text.net_l2_socket_create:0000000000000094 .L0 
C:\Users\stapi\AppData\Local\Temp\ccRf8fPj.s:1562   .text.net_l2_socket_delete:0000000000000050 .L0 
C:\Users\stapi\AppData\Local\Temp\ccRf8fPj.s:1713   .text.net_eth_receive:00000000000000a6 .L0 
C:\Users\stapi\AppData\Local\Temp\ccRf8fPj.s:1744   .text.net_dhcp_start:000000000000002a .L0 
C:\Users\stapi\AppData\Local\Temp\ccRf8fPj.s:1763   .text.net_dhcp_stop:0000000000000012 .L0 
C:\Users\stapi\AppData\Local\Temp\ccRf8fPj.s:1794   .text.net_dhcp_release:000000000000002a .L0 
C:\Users\stapi\AppData\Local\Temp\ccRf8fPj.s:1820   .text.net_dhcp_address_obtained:000000000000001c .L0 
C:\Users\stapi\AppData\Local\Temp\ccRf8fPj.s:1869   .text.net_dhcpd_start:0000000000000034 .L0 
C:\Users\stapi\AppData\Local\Temp\ccRf8fPj.s:1915   .text.net_dhcpd_stop:0000000000000030 .L0 
C:\Users\stapi\AppData\Local\Temp\ccRf8fPj.s:1951   .text.net_set_dns:0000000000000024 .L0 
C:\Users\stapi\AppData\Local\Temp\ccRf8fPj.s:2000   .text.net_get_dns:0000000000000028 .L0 
C:\Users\stapi\AppData\Local\Temp\ccRf8fPj.s:2020   .text.net_compat_check:000000000000000a .L0 
C:\Users\stapi\AppData\Local\Temp\ccRf8fPj.s:2053   .text.net_lpbk_socket_create:0000000000000024 .L0 
C:\Users\stapi\AppData\Local\Temp\ccRf8fPj.s:2126   .text.net_lpbk_socket_bind:000000000000005c .L0 
C:\Users\stapi\AppData\Local\Temp\ccRf8fPj.s:2199   .text.net_lpbk_socket_connect:000000000000005c .L0 
C:\Users\stapi\AppData\Local\Temp\ccRf8fPj.s:2217   .text.net_if_use_static_ip:000000000000000a .L0 
C:\Users\stapi\AppData\Local\Temp\ccRf8fPj.s:2233   .text.net_if_is_static_ip:000000000000000a .L0 
                     .debug_frame:0000000000000000 .L0 
C:\Users\stapi\AppData\Local\Temp\ccRf8fPj.s:239    .text.net_if_output:00000000000000f8 .L3
C:\Users\stapi\AppData\Local\Temp\ccRf8fPj.s:144    .text.net_if_output:000000000000006e .L4
C:\Users\stapi\AppData\Local\Temp\ccRf8fPj.s:186    .text.net_if_output:00000000000000ae .L5
C:\Users\stapi\AppData\Local\Temp\ccRf8fPj.s:139    .text.net_if_output:000000000000006a .L22
C:\Users\stapi\AppData\Local\Temp\ccRf8fPj.s:198    .text.net_if_output:00000000000000b6 .L9
C:\Users\stapi\AppData\Local\Temp\ccRf8fPj.s:214    .text.net_if_output:00000000000000ce .L10
C:\Users\stapi\AppData\Local\Temp\ccRf8fPj.s:224    .text.net_if_output:00000000000000da .L8
C:\Users\stapi\AppData\Local\Temp\ccRf8fPj.s:165    .text.net_if_output:0000000000000096 .L7
C:\Users\stapi\AppData\Local\Temp\ccRf8fPj.s:254    .text.net_if_output:000000000000010e .L11
C:\Users\stapi\AppData\Local\Temp\ccRf8fPj.s:218    .text.net_if_output:00000000000000d0 .L21
C:\Users\stapi\AppData\Local\Temp\ccRf8fPj.s:183    .text.net_if_output:00000000000000ac .L12
C:\Users\stapi\AppData\Local\Temp\ccRf8fPj.s:250    .text.net_if_output:000000000000010a .L13
C:\Users\stapi\AppData\Local\Temp\ccRf8fPj.s:282    .text.net_l2_send_cfm:0000000000000006 .L24
C:\Users\stapi\AppData\Local\Temp\ccRf8fPj.s:492    .text.net_if_get_name:0000000000000036 .L40
C:\Users\stapi\AppData\Local\Temp\ccRf8fPj.s:591    .text.net_if_set_ip:0000000000000020 .L48
C:\Users\stapi\AppData\Local\Temp\ccRf8fPj.s:648    .text.net_if_get_ip:000000000000001a .L58
C:\Users\stapi\AppData\Local\Temp\ccRf8fPj.s:624    .text.net_if_get_ip:000000000000000a .L56
C:\Users\stapi\AppData\Local\Temp\ccRf8fPj.s:633    .text.net_if_get_ip:0000000000000010 .L57
C:\Users\stapi\AppData\Local\Temp\ccRf8fPj.s:652    .text.net_if_get_ip:000000000000001c .L54
C:\Users\stapi\AppData\Local\Temp\ccRf8fPj.s:660    .rodata.net_if_input.str1.4:0000000000000000 .LC0
C:\Users\stapi\AppData\Local\Temp\ccRf8fPj.s:737    .text.net_if_input:0000000000000050 .L67
C:\Users\stapi\AppData\Local\Temp\ccRf8fPj.s:718    .text.net_if_input:0000000000000042 .L68
C:\Users\stapi\AppData\Local\Temp\ccRf8fPj.s:727    .text.net_if_input:0000000000000048 .L66
C:\Users\stapi\AppData\Local\Temp\ccRf8fPj.s:815    .rodata.net_buf_tx_info.str1.4:0000000000000000 .LC1
C:\Users\stapi\AppData\Local\Temp\ccRf8fPj.s:818    .rodata.net_buf_tx_info.str1.4:0000000000000018 .LC2
C:\Users\stapi\AppData\Local\Temp\ccRf8fPj.s:914    .text.net_buf_tx_info:0000000000000062 .L80
C:\Users\stapi\AppData\Local\Temp\ccRf8fPj.s:902    .text.net_buf_tx_info:0000000000000050 .L81
C:\Users\stapi\AppData\Local\Temp\ccRf8fPj.s:886    .text.net_buf_tx_info:0000000000000046 .L100
C:\Users\stapi\AppData\Local\Temp\ccRf8fPj.s:937    .text.net_buf_tx_info:0000000000000078 .L84
C:\Users\stapi\AppData\Local\Temp\ccRf8fPj.s:956    .text.net_buf_tx_info:0000000000000092 .L85
C:\Users\stapi\AppData\Local\Temp\ccRf8fPj.s:889    .text.net_buf_tx_info:0000000000000048 .L79
C:\Users\stapi\AppData\Local\Temp\ccRf8fPj.s:908    .text.net_buf_tx_info:0000000000000058 .L101
C:\Users\stapi\AppData\Local\Temp\ccRf8fPj.s:930    .text.net_buf_tx_info:0000000000000070 .L83
C:\Users\stapi\AppData\Local\Temp\ccRf8fPj.s:1038   .rodata.net_init.str1.4:0000000000000000 .LC3
C:\Users\stapi\AppData\Local\Temp\ccRf8fPj.s:1109   .text.net_init:0000000000000056 .L107
C:\Users\stapi\AppData\Local\Temp\ccRf8fPj.s:1101   .text.net_init:0000000000000044 .L108
C:\Users\stapi\AppData\Local\Temp\ccRf8fPj.s:1089   .text.net_init:0000000000000038 .L113
C:\Users\stapi\AppData\Local\Temp\ccRf8fPj.s:1092   .text.net_init:000000000000003a .L106
C:\Users\stapi\AppData\Local\Temp\ccRf8fPj.s:1083   .text.net_init:000000000000002e .L112
C:\Users\stapi\AppData\Local\Temp\ccRf8fPj.s:1151   .text.net_deinit:0000000000000024 .L115
C:\Users\stapi\AppData\Local\Temp\ccRf8fPj.s:1166   .text.net_deinit:0000000000000040 .L114
C:\Users\stapi\AppData\Local\Temp\ccRf8fPj.s:1223   .text.net_l2_send:0000000000000016 .L125
C:\Users\stapi\AppData\Local\Temp\ccRf8fPj.s:1202   .text.net_l2_send:000000000000000a .L143
C:\Users\stapi\AppData\Local\Temp\ccRf8fPj.s:1308   .text.net_l2_send:00000000000000b0 .L128
C:\Users\stapi\AppData\Local\Temp\ccRf8fPj.s:1282   .text.net_l2_send:0000000000000078 .L129
C:\Users\stapi\AppData\Local\Temp\ccRf8fPj.s:1207   .text.net_l2_send:000000000000000c .L124
C:\Users\stapi\AppData\Local\Temp\ccRf8fPj.s:1402   .text.net_l2_socket_create:0000000000000036 .L145
C:\Users\stapi\AppData\Local\Temp\ccRf8fPj.s:1410   .text.net_l2_socket_create:000000000000003c .L147
C:\Users\stapi\AppData\Local\Temp\ccRf8fPj.s:1422   .text.net_l2_socket_create:000000000000004a .L148
C:\Users\stapi\AppData\Local\Temp\ccRf8fPj.s:1386   .text.net_l2_socket_create:000000000000002a .L157
C:\Users\stapi\AppData\Local\Temp\ccRf8fPj.s:1431   .text.net_l2_socket_create:0000000000000052 .L150
C:\Users\stapi\AppData\Local\Temp\ccRf8fPj.s:1465   .text.net_l2_socket_create:000000000000008c .L151
C:\Users\stapi\AppData\Local\Temp\ccRf8fPj.s:1390   .text.net_l2_socket_create:000000000000002c .L144
C:\Users\stapi\AppData\Local\Temp\ccRf8fPj.s:1510   .text.net_l2_socket_delete:000000000000001e .L159
C:\Users\stapi\AppData\Local\Temp\ccRf8fPj.s:1554   .text.net_l2_socket_delete:000000000000004c .L162
C:\Users\stapi\AppData\Local\Temp\ccRf8fPj.s:1546   .text.net_l2_socket_delete:0000000000000044 .L158
C:\Users\stapi\AppData\Local\Temp\ccRf8fPj.s:1529   .text.net_l2_socket_delete:000000000000002c .L160
C:\Users\stapi\AppData\Local\Temp\ccRf8fPj.s:1615   .text.net_eth_receive:000000000000003a .L170
C:\Users\stapi\AppData\Local\Temp\ccRf8fPj.s:1693   .text.net_eth_receive:0000000000000092 .L174
C:\Users\stapi\AppData\Local\Temp\ccRf8fPj.s:1680   .text.net_eth_receive:0000000000000088 .L172
C:\Users\stapi\AppData\Local\Temp\ccRf8fPj.s:1699   .text.net_eth_receive:0000000000000096 .L173
C:\Users\stapi\AppData\Local\Temp\ccRf8fPj.s:1632   .text.net_eth_receive:000000000000004c .L171
C:\Users\stapi\AppData\Local\Temp\ccRf8fPj.s:1858   .text.net_dhcpd_start:000000000000002a .L190
C:\Users\stapi\AppData\Local\Temp\ccRf8fPj.s:1910   .text.net_dhcpd_stop:000000000000002e .L203
C:\Users\stapi\AppData\Local\Temp\ccRf8fPj.s:1903   .text.net_dhcpd_stop:0000000000000026 .L195
C:\Users\stapi\AppData\Local\Temp\ccRf8fPj.s:1991   .text.net_get_dns:0000000000000024 .L210
C:\Users\stapi\AppData\Local\Temp\ccRf8fPj.s:7215   .debug_abbrev:0000000000000000 .Ldebug_abbrev0
C:\Users\stapi\AppData\Local\Temp\ccRf8fPj.s:10811  .debug_str:0000000000001137 .LASF357
C:\Users\stapi\AppData\Local\Temp\ccRf8fPj.s:10595  .debug_str:0000000000000b9d .LASF358
C:\Users\stapi\AppData\Local\Temp\ccRf8fPj.s:10463  .debug_str:0000000000000815 .LASF359
C:\Users\stapi\AppData\Local\Temp\ccRf8fPj.s:10021  .debug_ranges:0000000000000000 .Ldebug_ranges0
C:\Users\stapi\AppData\Local\Temp\ccRf8fPj.s:10119  .debug_line:0000000000000000 .Ldebug_line0
C:\Users\stapi\AppData\Local\Temp\ccRf8fPj.s:10543  .debug_str:0000000000000a6c .LASF0
C:\Users\stapi\AppData\Local\Temp\ccRf8fPj.s:10777  .debug_str:000000000000106e .LASF2
C:\Users\stapi\AppData\Local\Temp\ccRf8fPj.s:10653  .debug_str:0000000000000d8a .LASF1
C:\Users\stapi\AppData\Local\Temp\ccRf8fPj.s:10721  .debug_str:0000000000000f15 .LASF3
C:\Users\stapi\AppData\Local\Temp\ccRf8fPj.s:10593  .debug_str:0000000000000b93 .LASF4
C:\Users\stapi\AppData\Local\Temp\ccRf8fPj.s:10315  .debug_str:00000000000004b3 .LASF5
C:\Users\stapi\AppData\Local\Temp\ccRf8fPj.s:10785  .debug_str:0000000000001097 .LASF6
C:\Users\stapi\AppData\Local\Temp\ccRf8fPj.s:10601  .debug_str:0000000000000c33 .LASF7
C:\Users\stapi\AppData\Local\Temp\ccRf8fPj.s:10455  .debug_str:00000000000007e6 .LASF8
C:\Users\stapi\AppData\Local\Temp\ccRf8fPj.s:10527  .debug_str:00000000000009f1 .LASF9
C:\Users\stapi\AppData\Local\Temp\ccRf8fPj.s:10485  .debug_str:00000000000008fd .LASF10
C:\Users\stapi\AppData\Local\Temp\ccRf8fPj.s:10287  .debug_str:00000000000003ed .LASF11
C:\Users\stapi\AppData\Local\Temp\ccRf8fPj.s:10219  .debug_str:0000000000000221 .LASF12
C:\Users\stapi\AppData\Local\Temp\ccRf8fPj.s:10523  .debug_str:00000000000009df .LASF13
C:\Users\stapi\AppData\Local\Temp\ccRf8fPj.s:10457  .debug_str:00000000000007f1 .LASF14
C:\Users\stapi\AppData\Local\Temp\ccRf8fPj.s:10561  .debug_str:0000000000000ae9 .LASF15
C:\Users\stapi\AppData\Local\Temp\ccRf8fPj.s:10261  .debug_str:0000000000000351 .LASF16
C:\Users\stapi\AppData\Local\Temp\ccRf8fPj.s:10567  .debug_str:0000000000000b09 .LASF17
C:\Users\stapi\AppData\Local\Temp\ccRf8fPj.s:10427  .debug_str:0000000000000737 .LASF18
C:\Users\stapi\AppData\Local\Temp\ccRf8fPj.s:10501  .debug_str:000000000000097d .LASF19
C:\Users\stapi\AppData\Local\Temp\ccRf8fPj.s:10391  .debug_str:0000000000000663 .LASF20
C:\Users\stapi\AppData\Local\Temp\ccRf8fPj.s:10201  .debug_str:00000000000001cb .LASF21
C:\Users\stapi\AppData\Local\Temp\ccRf8fPj.s:10591  .debug_str:0000000000000b8d .LASF22
C:\Users\stapi\AppData\Local\Temp\ccRf8fPj.s:10767  .debug_str:0000000000001034 .LASF23
C:\Users\stapi\AppData\Local\Temp\ccRf8fPj.s:10835  .debug_str:00000000000012ac .LASF24
C:\Users\stapi\AppData\Local\Temp\ccRf8fPj.s:10581  .debug_str:0000000000000b5c .LASF25
C:\Users\stapi\AppData\Local\Temp\ccRf8fPj.s:10409  .debug_str:00000000000006c9 .LASF26
C:\Users\stapi\AppData\Local\Temp\ccRf8fPj.s:10769  .debug_str:000000000000103b .LASF27
C:\Users\stapi\AppData\Local\Temp\ccRf8fPj.s:10645  .debug_str:0000000000000d58 .LASF28
C:\Users\stapi\AppData\Local\Temp\ccRf8fPj.s:10327  .debug_str:00000000000004f7 .LASF29
C:\Users\stapi\AppData\Local\Temp\ccRf8fPj.s:10405  .debug_str:00000000000006b1 .LASF30
C:\Users\stapi\AppData\Local\Temp\ccRf8fPj.s:10167  .debug_str:0000000000000114 .LASF31
C:\Users\stapi\AppData\Local\Temp\ccRf8fPj.s:10251  .debug_str:0000000000000300 .LASF32
C:\Users\stapi\AppData\Local\Temp\ccRf8fPj.s:10655  .debug_str:0000000000000d94 .LASF33
C:\Users\stapi\AppData\Local\Temp\ccRf8fPj.s:10407  .debug_str:00000000000006c0 .LASF34
C:\Users\stapi\AppData\Local\Temp\ccRf8fPj.s:10489  .debug_str:0000000000000912 .LASF35
C:\Users\stapi\AppData\Local\Temp\ccRf8fPj.s:10145  .debug_str:000000000000008c .LASF36
C:\Users\stapi\AppData\Local\Temp\ccRf8fPj.s:10755  .debug_str:0000000000000fe6 .LASF37
C:\Users\stapi\AppData\Local\Temp\ccRf8fPj.s:10165  .debug_str:000000000000010b .LASF38
C:\Users\stapi\AppData\Local\Temp\ccRf8fPj.s:10393  .debug_str:0000000000000668 .LASF39
C:\Users\stapi\AppData\Local\Temp\ccRf8fPj.s:10191  .debug_str:00000000000001a0 .LASF40
C:\Users\stapi\AppData\Local\Temp\ccRf8fPj.s:10249  .debug_str:00000000000002f1 .LASF41
C:\Users\stapi\AppData\Local\Temp\ccRf8fPj.s:10369  .debug_str:00000000000005ed .LASF42
C:\Users\stapi\AppData\Local\Temp\ccRf8fPj.s:10537  .debug_str:0000000000000a3e .LASF43
C:\Users\stapi\AppData\Local\Temp\ccRf8fPj.s:10823  .debug_str:000000000000126a .LASF44
C:\Users\stapi\AppData\Local\Temp\ccRf8fPj.s:10695  .debug_str:0000000000000e8b .LASF45
C:\Users\stapi\AppData\Local\Temp\ccRf8fPj.s:10151  .debug_str:00000000000000a7 .LASF46
C:\Users\stapi\AppData\Local\Temp\ccRf8fPj.s:10825  .debug_str:0000000000001276 .LASF47
C:\Users\stapi\AppData\Local\Temp\ccRf8fPj.s:10339  .debug_str:0000000000000541 .LASF48
C:\Users\stapi\AppData\Local\Temp\ccRf8fPj.s:10383  .debug_str:000000000000063f .LASF49
C:\Users\stapi\AppData\Local\Temp\ccRf8fPj.s:10733  .debug_str:0000000000000f7c .LASF57
C:\Users\stapi\AppData\Local\Temp\ccRf8fPj.s:10185  .debug_str:0000000000000175 .LASF50
C:\Users\stapi\AppData\Local\Temp\ccRf8fPj.s:10367  .debug_str:00000000000005e5 .LASF51
C:\Users\stapi\AppData\Local\Temp\ccRf8fPj.s:10749  .debug_str:0000000000000fcf .LASF52
C:\Users\stapi\AppData\Local\Temp\ccRf8fPj.s:10643  .debug_str:0000000000000d4a .LASF53
C:\Users\stapi\AppData\Local\Temp\ccRf8fPj.s:10163  .debug_str:0000000000000105 .LASF54
C:\Users\stapi\AppData\Local\Temp\ccRf8fPj.s:10583  .debug_str:0000000000000b64 .LASF55
C:\Users\stapi\AppData\Local\Temp\ccRf8fPj.s:10607  .debug_str:0000000000000c58 .LASF56
C:\Users\stapi\AppData\Local\Temp\ccRf8fPj.s:10157  .debug_str:00000000000000da .LASF58
C:\Users\stapi\AppData\Local\Temp\ccRf8fPj.s:10579  .debug_str:0000000000000b47 .LASF59
C:\Users\stapi\AppData\Local\Temp\ccRf8fPj.s:10379  .debug_str:000000000000062b .LASF60
C:\Users\stapi\AppData\Local\Temp\ccRf8fPj.s:10289  .debug_str:0000000000000404 .LASF61
C:\Users\stapi\AppData\Local\Temp\ccRf8fPj.s:10403  .debug_str:00000000000006a4 .LASF62
C:\Users\stapi\AppData\Local\Temp\ccRf8fPj.s:10349  .debug_str:0000000000000581 .LASF63
C:\Users\stapi\AppData\Local\Temp\ccRf8fPj.s:10665  .debug_str:0000000000000db9 .LASF64
C:\Users\stapi\AppData\Local\Temp\ccRf8fPj.s:10585  .debug_str:0000000000000b6b .LASF65
C:\Users\stapi\AppData\Local\Temp\ccRf8fPj.s:10525  .debug_str:00000000000009e6 .LASF66
C:\Users\stapi\AppData\Local\Temp\ccRf8fPj.s:10687  .debug_str:0000000000000e4e .LASF67
C:\Users\stapi\AppData\Local\Temp\ccRf8fPj.s:10205  .debug_str:00000000000001d6 .LASF68
C:\Users\stapi\AppData\Local\Temp\ccRf8fPj.s:10649  .debug_str:0000000000000d75 .LASF69
C:\Users\stapi\AppData\Local\Temp\ccRf8fPj.s:10659  .debug_str:0000000000000da6 .LASF70
C:\Users\stapi\AppData\Local\Temp\ccRf8fPj.s:10597  .debug_str:0000000000000c1e .LASF71
C:\Users\stapi\AppData\Local\Temp\ccRf8fPj.s:10705  .debug_str:0000000000000ebe .LASF72
C:\Users\stapi\AppData\Local\Temp\ccRf8fPj.s:10683  .debug_str:0000000000000e3c .LASF73
C:\Users\stapi\AppData\Local\Temp\ccRf8fPj.s:10637  .debug_str:0000000000000d29 .LASF74
C:\Users\stapi\AppData\Local\Temp\ccRf8fPj.s:10499  .debug_str:0000000000000970 .LASF75
C:\Users\stapi\AppData\Local\Temp\ccRf8fPj.s:10135  .debug_str:0000000000000044 .LASF76
C:\Users\stapi\AppData\Local\Temp\ccRf8fPj.s:10715  .debug_str:0000000000000ef7 .LASF77
C:\Users\stapi\AppData\Local\Temp\ccRf8fPj.s:10539  .debug_str:0000000000000a48 .LASF78
C:\Users\stapi\AppData\Local\Temp\ccRf8fPj.s:10519  .debug_str:00000000000009cb .LASF79
C:\Users\stapi\AppData\Local\Temp\ccRf8fPj.s:10671  .debug_str:0000000000000de4 .LASF80
C:\Users\stapi\AppData\Local\Temp\ccRf8fPj.s:10481  .debug_str:00000000000008e9 .LASF81
C:\Users\stapi\AppData\Local\Temp\ccRf8fPj.s:10691  .debug_str:0000000000000e66 .LASF82
C:\Users\stapi\AppData\Local\Temp\ccRf8fPj.s:10271  .debug_str:0000000000000386 .LASF83
C:\Users\stapi\AppData\Local\Temp\ccRf8fPj.s:10337  .debug_str:000000000000052c .LASF84
C:\Users\stapi\AppData\Local\Temp\ccRf8fPj.s:10267  .debug_str:000000000000036d .LASF85
C:\Users\stapi\AppData\Local\Temp\ccRf8fPj.s:10615  .debug_str:0000000000000c95 .LASF86
C:\Users\stapi\AppData\Local\Temp\ccRf8fPj.s:10815  .debug_str:0000000000001238 .LASF87
C:\Users\stapi\AppData\Local\Temp\ccRf8fPj.s:10419  .debug_str:0000000000000709 .LASF88
C:\Users\stapi\AppData\Local\Temp\ccRf8fPj.s:10231  .debug_str:000000000000026c .LASF89
C:\Users\stapi\AppData\Local\Temp\ccRf8fPj.s:10385  .debug_str:0000000000000649 .LASF90
C:\Users\stapi\AppData\Local\Temp\ccRf8fPj.s:10723  .debug_str:0000000000000f23 .LASF94
C:\Users\stapi\AppData\Local\Temp\ccRf8fPj.s:10491  .debug_str:0000000000000919 .LASF91
C:\Users\stapi\AppData\Local\Temp\ccRf8fPj.s:10153  .debug_str:00000000000000b0 .LASF92
C:\Users\stapi\AppData\Local\Temp\ccRf8fPj.s:10555  .debug_str:0000000000000ab0 .LASF93
C:\Users\stapi\AppData\Local\Temp\ccRf8fPj.s:10693  .debug_str:0000000000000e73 .LASF95
C:\Users\stapi\AppData\Local\Temp\ccRf8fPj.s:10541  .debug_str:0000000000000a57 .LASF96
C:\Users\stapi\AppData\Local\Temp\ccRf8fPj.s:10453  .debug_str:00000000000007d1 .LASF97
C:\Users\stapi\AppData\Local\Temp\ccRf8fPj.s:10753  .debug_str:0000000000000fe0 .LASF98
C:\Users\stapi\AppData\Local\Temp\ccRf8fPj.s:10843  .debug_str:00000000000012d9 .LASF99
C:\Users\stapi\AppData\Local\Temp\ccRf8fPj.s:10483  .debug_str:00000000000008f5 .LASF100
C:\Users\stapi\AppData\Local\Temp\ccRf8fPj.s:10703  .debug_str:0000000000000eb8 .LASF101
C:\Users\stapi\AppData\Local\Temp\ccRf8fPj.s:10143  .debug_str:0000000000000085 .LASF102
C:\Users\stapi\AppData\Local\Temp\ccRf8fPj.s:10743  .debug_str:0000000000000fb3 .LASF103
C:\Users\stapi\AppData\Local\Temp\ccRf8fPj.s:10747  .debug_str:0000000000000fc9 .LASF104
C:\Users\stapi\AppData\Local\Temp\ccRf8fPj.s:10421  .debug_str:0000000000000713 .LASF105
C:\Users\stapi\AppData\Local\Temp\ccRf8fPj.s:10297  .debug_str:000000000000043d .LASF106
C:\Users\stapi\AppData\Local\Temp\ccRf8fPj.s:10319  .debug_str:00000000000004c6 .LASF107
C:\Users\stapi\AppData\Local\Temp\ccRf8fPj.s:10661  .debug_str:0000000000000dab .LASF108
C:\Users\stapi\AppData\Local\Temp\ccRf8fPj.s:10673  .debug_str:0000000000000df3 .LASF109
C:\Users\stapi\AppData\Local\Temp\ccRf8fPj.s:10433  .debug_str:0000000000000758 .LASF110
C:\Users\stapi\AppData\Local\Temp\ccRf8fPj.s:10745  .debug_str:0000000000000fbe .LASF111
C:\Users\stapi\AppData\Local\Temp\ccRf8fPj.s:10373  .debug_str:000000000000060a .LASF112
C:\Users\stapi\AppData\Local\Temp\ccRf8fPj.s:10257  .debug_str:0000000000000331 .LASF113
C:\Users\stapi\AppData\Local\Temp\ccRf8fPj.s:10225  .debug_str:0000000000000243 .LASF114
C:\Users\stapi\AppData\Local\Temp\ccRf8fPj.s:10669  .debug_str:0000000000000dd0 .LASF115
C:\Users\stapi\AppData\Local\Temp\ccRf8fPj.s:10765  .debug_str:000000000000101b .LASF116
C:\Users\stapi\AppData\Local\Temp\ccRf8fPj.s:10283  .debug_str:00000000000003d0 .LASF117
C:\Users\stapi\AppData\Local\Temp\ccRf8fPj.s:10569  .debug_str:0000000000000b10 .LASF118
C:\Users\stapi\AppData\Local\Temp\ccRf8fPj.s:10657  .debug_str:0000000000000d9f .LASF119
C:\Users\stapi\AppData\Local\Temp\ccRf8fPj.s:10503  .debug_str:0000000000000982 .LASF120
C:\Users\stapi\AppData\Local\Temp\ccRf8fPj.s:10685  .debug_str:0000000000000e49 .LASF121
C:\Users\stapi\AppData\Local\Temp\ccRf8fPj.s:10807  .debug_str:000000000000111d .LASF122
C:\Users\stapi\AppData\Local\Temp\ccRf8fPj.s:10321  .debug_str:00000000000004d1 .LASF123
C:\Users\stapi\AppData\Local\Temp\ccRf8fPj.s:10203  .debug_str:00000000000001d1 .LASF124
C:\Users\stapi\AppData\Local\Temp\ccRf8fPj.s:10355  .debug_str:00000000000005a1 .LASF125
C:\Users\stapi\AppData\Local\Temp\ccRf8fPj.s:10317  .debug_str:00000000000004be .LASF126
C:\Users\stapi\AppData\Local\Temp\ccRf8fPj.s:10837  .debug_str:00000000000012b4 .LASF127
C:\Users\stapi\AppData\Local\Temp\ccRf8fPj.s:10739  .debug_str:0000000000000f95 .LASF128
C:\Users\stapi\AppData\Local\Temp\ccRf8fPj.s:10741  .debug_str:0000000000000fa8 .LASF129
C:\Users\stapi\AppData\Local\Temp\ccRf8fPj.s:10171  .debug_str:0000000000000125 .LASF130
C:\Users\stapi\AppData\Local\Temp\ccRf8fPj.s:10535  .debug_str:0000000000000a32 .LASF131
C:\Users\stapi\AppData\Local\Temp\ccRf8fPj.s:10293  .debug_str:0000000000000422 .LASF132
C:\Users\stapi\AppData\Local\Temp\ccRf8fPj.s:10689  .debug_str:0000000000000e59 .LASF133
C:\Users\stapi\AppData\Local\Temp\ccRf8fPj.s:10285  .debug_str:00000000000003e0 .LASF134
C:\Users\stapi\AppData\Local\Temp\ccRf8fPj.s:10497  .debug_str:000000000000095e .LASF135
C:\Users\stapi\AppData\Local\Temp\ccRf8fPj.s:10381  .debug_str:0000000000000631 .LASF136
C:\Users\stapi\AppData\Local\Temp\ccRf8fPj.s:10329  .debug_str:00000000000004ff .LASF137
C:\Users\stapi\AppData\Local\Temp\ccRf8fPj.s:10465  .debug_str:0000000000000893 .LASF138
C:\Users\stapi\AppData\Local\Temp\ccRf8fPj.s:10291  .debug_str:0000000000000411 .LASF139
C:\Users\stapi\AppData\Local\Temp\ccRf8fPj.s:10273  .debug_str:0000000000000399 .LASF140
C:\Users\stapi\AppData\Local\Temp\ccRf8fPj.s:10677  .debug_str:0000000000000e11 .LASF141
C:\Users\stapi\AppData\Local\Temp\ccRf8fPj.s:10717  .debug_str:0000000000000f04 .LASF142
C:\Users\stapi\AppData\Local\Temp\ccRf8fPj.s:10227  .debug_str:0000000000000253 .LASF143
C:\Users\stapi\AppData\Local\Temp\ccRf8fPj.s:10511  .debug_str:00000000000009a4 .LASF144
C:\Users\stapi\AppData\Local\Temp\ccRf8fPj.s:10447  .debug_str:00000000000007ac .LASF145
C:\Users\stapi\AppData\Local\Temp\ccRf8fPj.s:10471  .debug_str:00000000000008ba .LASF146
C:\Users\stapi\AppData\Local\Temp\ccRf8fPj.s:10719  .debug_str:0000000000000f10 .LASF147
C:\Users\stapi\AppData\Local\Temp\ccRf8fPj.s:10729  .debug_str:0000000000000f69 .LASF148
C:\Users\stapi\AppData\Local\Temp\ccRf8fPj.s:10639  .debug_str:0000000000000d36 .LASF149
C:\Users\stapi\AppData\Local\Temp\ccRf8fPj.s:10799  .debug_str:00000000000010f2 .LASF150
C:\Users\stapi\AppData\Local\Temp\ccRf8fPj.s:10137  .debug_str:0000000000000058 .LASF151
C:\Users\stapi\AppData\Local\Temp\ccRf8fPj.s:10139  .debug_str:0000000000000062 .LASF152
C:\Users\stapi\AppData\Local\Temp\ccRf8fPj.s:10787  .debug_str:00000000000010aa .LASF153
C:\Users\stapi\AppData\Local\Temp\ccRf8fPj.s:10357  .debug_str:00000000000005a8 .LASF154
C:\Users\stapi\AppData\Local\Temp\ccRf8fPj.s:10587  .debug_str:0000000000000b76 .LASF155
C:\Users\stapi\AppData\Local\Temp\ccRf8fPj.s:10131  .debug_str:0000000000000031 .LASF156
C:\Users\stapi\AppData\Local\Temp\ccRf8fPj.s:10275  .debug_str:00000000000003a6 .LASF157
C:\Users\stapi\AppData\Local\Temp\ccRf8fPj.s:10507  .debug_str:000000000000098f .LASF158
C:\Users\stapi\AppData\Local\Temp\ccRf8fPj.s:10445  .debug_str:00000000000007a2 .LASF159
C:\Users\stapi\AppData\Local\Temp\ccRf8fPj.s:10647  .debug_str:0000000000000d67 .LASF160
C:\Users\stapi\AppData\Local\Temp\ccRf8fPj.s:10211  .debug_str:00000000000001f4 .LASF161
C:\Users\stapi\AppData\Local\Temp\ccRf8fPj.s:10771  .debug_str:0000000000001043 .LASF162
C:\Users\stapi\AppData\Local\Temp\ccRf8fPj.s:10235  .debug_str:0000000000000288 .LASF163
C:\Users\stapi\AppData\Local\Temp\ccRf8fPj.s:10423  .debug_str:000000000000071f .LASF164
C:\Users\stapi\AppData\Local\Temp\ccRf8fPj.s:10415  .debug_str:00000000000006f9 .LASF165
C:\Users\stapi\AppData\Local\Temp\ccRf8fPj.s:10149  .debug_str:000000000000009a .LASF166
C:\Users\stapi\AppData\Local\Temp\ccRf8fPj.s:10311  .debug_str:0000000000000498 .LASF167
C:\Users\stapi\AppData\Local\Temp\ccRf8fPj.s:10731  .debug_str:0000000000000f70 .LASF168
C:\Users\stapi\AppData\Local\Temp\ccRf8fPj.s:10347  .debug_str:0000000000000575 .LASF169
C:\Users\stapi\AppData\Local\Temp\ccRf8fPj.s:10797  .debug_str:00000000000010e2 .LASF170
C:\Users\stapi\AppData\Local\Temp\ccRf8fPj.s:10189  .debug_str:000000000000018c .LASF171
C:\Users\stapi\AppData\Local\Temp\ccRf8fPj.s:10791  .debug_str:00000000000010bd .LASF172
C:\Users\stapi\AppData\Local\Temp\ccRf8fPj.s:10241  .debug_str:00000000000002bb .LASF173
C:\Users\stapi\AppData\Local\Temp\ccRf8fPj.s:10563  .debug_str:0000000000000af2 .LASF174
C:\Users\stapi\AppData\Local\Temp\ccRf8fPj.s:10183  .debug_str:0000000000000167 .LASF175
C:\Users\stapi\AppData\Local\Temp\ccRf8fPj.s:10737  .debug_str:0000000000000f86 .LASF176
C:\Users\stapi\AppData\Local\Temp\ccRf8fPj.s:10577  .debug_str:0000000000000b37 .LASF177
C:\Users\stapi\AppData\Local\Temp\ccRf8fPj.s:10449  .debug_str:00000000000007b5 .LASF178
C:\Users\stapi\AppData\Local\Temp\ccRf8fPj.s:10707  .debug_str:0000000000000ec8 .LASF179
C:\Users\stapi\AppData\Local\Temp\ccRf8fPj.s:10341  .debug_str:000000000000054a .LASF180
C:\Users\stapi\AppData\Local\Temp\ccRf8fPj.s:10411  .debug_str:00000000000006d5 .LASF181
C:\Users\stapi\AppData\Local\Temp\ccRf8fPj.s:10401  .debug_str:000000000000068f .LASF182
C:\Users\stapi\AppData\Local\Temp\ccRf8fPj.s:10725  .debug_str:0000000000000f49 .LASF183
C:\Users\stapi\AppData\Local\Temp\ccRf8fPj.s:10187  .debug_str:000000000000017a .LASF184
C:\Users\stapi\AppData\Local\Temp\ccRf8fPj.s:10829  .debug_str:0000000000001289 .LASF185
C:\Users\stapi\AppData\Local\Temp\ccRf8fPj.s:10817  .debug_str:0000000000001243 .LASF186
C:\Users\stapi\AppData\Local\Temp\ccRf8fPj.s:10395  .debug_str:0000000000000670 .LASF187
C:\Users\stapi\AppData\Local\Temp\ccRf8fPj.s:10259  .debug_str:0000000000000340 .LASF188
C:\Users\stapi\AppData\Local\Temp\ccRf8fPj.s:10813  .debug_str:0000000000001230 .LASF189
C:\Users\stapi\AppData\Local\Temp\ccRf8fPj.s:10831  .debug_str:0000000000001296 .LASF190
C:\Users\stapi\AppData\Local\Temp\ccRf8fPj.s:10805  .debug_str:0000000000001110 .LASF191
C:\Users\stapi\AppData\Local\Temp\ccRf8fPj.s:10173  .debug_str:0000000000000131 .LASF192
C:\Users\stapi\AppData\Local\Temp\ccRf8fPj.s:10469  .debug_str:00000000000008af .LASF193
C:\Users\stapi\AppData\Local\Temp\ccRf8fPj.s:10505  .debug_str:0000000000000988 .LASF194
C:\Users\stapi\AppData\Local\Temp\ccRf8fPj.s:10763  .debug_str:000000000000100e .LASF195
C:\Users\stapi\AppData\Local\Temp\ccRf8fPj.s:10627  .debug_str:0000000000000cde .LASF196
C:\Users\stapi\AppData\Local\Temp\ccRf8fPj.s:10751  .debug_str:0000000000000fd7 .LASF197
C:\Users\stapi\AppData\Local\Temp\ccRf8fPj.s:10783  .debug_str:000000000000108f .LASF198
C:\Users\stapi\AppData\Local\Temp\ccRf8fPj.s:10517  .debug_str:00000000000009c3 .LASF199
C:\Users\stapi\AppData\Local\Temp\ccRf8fPj.s:10477  .debug_str:00000000000008d5 .LASF200
C:\Users\stapi\AppData\Local\Temp\ccRf8fPj.s:10147  .debug_str:0000000000000095 .LASF201
C:\Users\stapi\AppData\Local\Temp\ccRf8fPj.s:10611  .debug_str:0000000000000c80 .LASF202
C:\Users\stapi\AppData\Local\Temp\ccRf8fPj.s:10179  .debug_str:0000000000000158 .LASF203
C:\Users\stapi\AppData\Local\Temp\ccRf8fPj.s:10359  .debug_str:00000000000005af .LASF204
C:\Users\stapi\AppData\Local\Temp\ccRf8fPj.s:10193  .debug_str:00000000000001a6 .LASF205
C:\Users\stapi\AppData\Local\Temp\ccRf8fPj.s:10307  .debug_str:000000000000047c .LASF206
C:\Users\stapi\AppData\Local\Temp\ccRf8fPj.s:10613  .debug_str:0000000000000c8a .LASF207
C:\Users\stapi\AppData\Local\Temp\ccRf8fPj.s:10781  .debug_str:0000000000001084 .LASF208
C:\Users\stapi\AppData\Local\Temp\ccRf8fPj.s:10301  .debug_str:000000000000044c .LASF209
C:\Users\stapi\AppData\Local\Temp\ccRf8fPj.s:10701  .debug_str:0000000000000eaf .LASF210
C:\Users\stapi\AppData\Local\Temp\ccRf8fPj.s:10735  .debug_str:0000000000000f81 .LASF211
C:\Users\stapi\AppData\Local\Temp\ccRf8fPj.s:10697  .debug_str:0000000000000e94 .LASF212
C:\Users\stapi\AppData\Local\Temp\ccRf8fPj.s:10759  .debug_str:0000000000000ff4 .LASF213
C:\Users\stapi\AppData\Local\Temp\ccRf8fPj.s:10789  .debug_str:00000000000010b2 .LASF214
C:\Users\stapi\AppData\Local\Temp\ccRf8fPj.s:10255  .debug_str:0000000000000323 .LASF215
C:\Users\stapi\AppData\Local\Temp\ccRf8fPj.s:10265  .debug_str:0000000000000363 .LASF216
C:\Users\stapi\AppData\Local\Temp\ccRf8fPj.s:10713  .debug_str:0000000000000eef .LASF217
C:\Users\stapi\AppData\Local\Temp\ccRf8fPj.s:10353  .debug_str:000000000000059a .LASF218
C:\Users\stapi\AppData\Local\Temp\ccRf8fPj.s:10365  .debug_str:00000000000005d9 .LASF219
C:\Users\stapi\AppData\Local\Temp\ccRf8fPj.s:10323  .debug_str:00000000000004d9 .LASF220
C:\Users\stapi\AppData\Local\Temp\ccRf8fPj.s:10651  .debug_str:0000000000000d7e .LASF221
C:\Users\stapi\AppData\Local\Temp\ccRf8fPj.s:10129  .debug_str:0000000000000029 .LASF222
C:\Users\stapi\AppData\Local\Temp\ccRf8fPj.s:10313  .debug_str:00000000000004a8 .LASF223
C:\Users\stapi\AppData\Local\Temp\ccRf8fPj.s:10495  .debug_str:0000000000000955 .LASF224
C:\Users\stapi\AppData\Local\Temp\ccRf8fPj.s:10515  .debug_str:00000000000009ba .LASF225
C:\Users\stapi\AppData\Local\Temp\ccRf8fPj.s:10345  .debug_str:000000000000056c .LASF226
C:\Users\stapi\AppData\Local\Temp\ccRf8fPj.s:10169  .debug_str:000000000000011c .LASF227
C:\Users\stapi\AppData\Local\Temp\ccRf8fPj.s:10619  .debug_str:0000000000000cad .LASF228
C:\Users\stapi\AppData\Local\Temp\ccRf8fPj.s:10779  .debug_str:000000000000107a .LASF229
C:\Users\stapi\AppData\Local\Temp\ccRf8fPj.s:10155  .debug_str:00000000000000d2 .LASF230
C:\Users\stapi\AppData\Local\Temp\ccRf8fPj.s:10827  .debug_str:000000000000127f .LASF231
C:\Users\stapi\AppData\Local\Temp\ccRf8fPj.s:10195  .debug_str:00000000000001ac .LASF232
C:\Users\stapi\AppData\Local\Temp\ccRf8fPj.s:10387  .debug_str:0000000000000652 .LASF233
C:\Users\stapi\AppData\Local\Temp\ccRf8fPj.s:10207  .debug_str:00000000000001e0 .LASF234
C:\Users\stapi\AppData\Local\Temp\ccRf8fPj.s:10331  .debug_str:000000000000050d .LASF235
C:\Users\stapi\AppData\Local\Temp\ccRf8fPj.s:10757  .debug_str:0000000000000fee .LASF236
C:\Users\stapi\AppData\Local\Temp\ccRf8fPj.s:10571  .debug_str:0000000000000b1d .LASF237
C:\Users\stapi\AppData\Local\Temp\ccRf8fPj.s:10197  .debug_str:00000000000001b1 .LASF360
C:\Users\stapi\AppData\Local\Temp\ccRf8fPj.s:10623  .debug_str:0000000000000cc3 .LASF238
C:\Users\stapi\AppData\Local\Temp\ccRf8fPj.s:10437  .debug_str:0000000000000778 .LASF239
C:\Users\stapi\AppData\Local\Temp\ccRf8fPj.s:10123  .debug_str:000000000000000a .LASF240
C:\Users\stapi\AppData\Local\Temp\ccRf8fPj.s:10727  .debug_str:0000000000000f5f .LASF241
C:\Users\stapi\AppData\Local\Temp\ccRf8fPj.s:10443  .debug_str:0000000000000798 .LASF242
C:\Users\stapi\AppData\Local\Temp\ccRf8fPj.s:10625  .debug_str:0000000000000cd1 .LASF243
C:\Users\stapi\AppData\Local\Temp\ccRf8fPj.s:10389  .debug_str:000000000000065a .LASF244
C:\Users\stapi\AppData\Local\Temp\ccRf8fPj.s:10425  .debug_str:0000000000000726 .LASF245
C:\Users\stapi\AppData\Local\Temp\ccRf8fPj.s:10431  .debug_str:0000000000000748 .LASF246
C:\Users\stapi\AppData\Local\Temp\ccRf8fPj.s:10239  .debug_str:00000000000002a7 .LASF361
C:\Users\stapi\AppData\Local\Temp\ccRf8fPj.s:2222   .text.net_if_is_static_ip:0000000000000000 .LFB56
C:\Users\stapi\AppData\Local\Temp\ccRf8fPj.s:2231   .text.net_if_is_static_ip:000000000000000a .LFE56
C:\Users\stapi\AppData\Local\Temp\ccRf8fPj.s:10635  .debug_str:0000000000000d14 .LASF261
C:\Users\stapi\AppData\Local\Temp\ccRf8fPj.s:2204   .text.net_if_use_static_ip:0000000000000000 .LFB55
C:\Users\stapi\AppData\Local\Temp\ccRf8fPj.s:2215   .text.net_if_use_static_ip:000000000000000a .LFE55
C:\Users\stapi\AppData\Local\Temp\ccRf8fPj.s:10565  .debug_str:0000000000000aff .LASF247
C:\Users\stapi\AppData\Local\Temp\ccRf8fPj.s:10141  .debug_str:000000000000006d .LASF250
C:\Users\stapi\AppData\Local\Temp\ccRf8fPj.s:2131   .text.net_lpbk_socket_connect:0000000000000000 .LFB54
C:\Users\stapi\AppData\Local\Temp\ccRf8fPj.s:2197   .text.net_lpbk_socket_connect:000000000000005c .LFE54
C:\Users\stapi\AppData\Local\Temp\ccRf8fPj.s:10833  .debug_str:00000000000012a2 .LASF248
C:\Users\stapi\AppData\Local\Temp\ccRf8fPj.s:8192   .debug_loc:0000000000000000 .LLST112
C:\Users\stapi\AppData\Local\Temp\ccRf8fPj.s:8203   .debug_loc:000000000000001e .LLST113
C:\Users\stapi\AppData\Local\Temp\ccRf8fPj.s:10121  .debug_str:0000000000000000 .LASF249
C:\Users\stapi\AppData\Local\Temp\ccRf8fPj.s:2157   .text.net_lpbk_socket_connect:000000000000001c .LVL231
C:\Users\stapi\AppData\Local\Temp\ccRf8fPj.s:2170   .text.net_lpbk_socket_connect:0000000000000030 .LVL232
C:\Users\stapi\AppData\Local\Temp\ccRf8fPj.s:2177   .text.net_lpbk_socket_connect:000000000000003e .LVL233
C:\Users\stapi\AppData\Local\Temp\ccRf8fPj.s:2186   .text.net_lpbk_socket_connect:0000000000000050 .LVL234
C:\Users\stapi\AppData\Local\Temp\ccRf8fPj.s:10675  .debug_str:0000000000000dfc .LASF251
C:\Users\stapi\AppData\Local\Temp\ccRf8fPj.s:2058   .text.net_lpbk_socket_bind:0000000000000000 .LFB53
C:\Users\stapi\AppData\Local\Temp\ccRf8fPj.s:2124   .text.net_lpbk_socket_bind:000000000000005c .LFE53
C:\Users\stapi\AppData\Local\Temp\ccRf8fPj.s:10559  .debug_str:0000000000000adf .LASF252
C:\Users\stapi\AppData\Local\Temp\ccRf8fPj.s:8214   .debug_loc:000000000000003c .LLST110
C:\Users\stapi\AppData\Local\Temp\ccRf8fPj.s:8225   .debug_loc:000000000000005a .LLST111
C:\Users\stapi\AppData\Local\Temp\ccRf8fPj.s:10281  .debug_str:00000000000003c6 .LASF253
C:\Users\stapi\AppData\Local\Temp\ccRf8fPj.s:2084   .text.net_lpbk_socket_bind:000000000000001c .LVL224
C:\Users\stapi\AppData\Local\Temp\ccRf8fPj.s:2097   .text.net_lpbk_socket_bind:0000000000000030 .LVL225
C:\Users\stapi\AppData\Local\Temp\ccRf8fPj.s:2104   .text.net_lpbk_socket_bind:000000000000003e .LVL226
C:\Users\stapi\AppData\Local\Temp\ccRf8fPj.s:2113   .text.net_lpbk_socket_bind:0000000000000050 .LVL227
C:\Users\stapi\AppData\Local\Temp\ccRf8fPj.s:10253  .debug_str:000000000000030c .LASF254
C:\Users\stapi\AppData\Local\Temp\ccRf8fPj.s:2025   .text.net_lpbk_socket_create:0000000000000000 .LFB52
C:\Users\stapi\AppData\Local\Temp\ccRf8fPj.s:2051   .text.net_lpbk_socket_create:0000000000000024 .LFE52
C:\Users\stapi\AppData\Local\Temp\ccRf8fPj.s:10217  .debug_str:0000000000000218 .LASF255
C:\Users\stapi\AppData\Local\Temp\ccRf8fPj.s:8236   .debug_loc:0000000000000078 .LLST108
C:\Users\stapi\AppData\Local\Temp\ccRf8fPj.s:8254   .debug_loc:00000000000000a4 .LLST109
C:\Users\stapi\AppData\Local\Temp\ccRf8fPj.s:2041   .text.net_lpbk_socket_create:0000000000000016 .LVL219
C:\Users\stapi\AppData\Local\Temp\ccRf8fPj.s:10363  .debug_str:00000000000005c8 .LASF256
C:\Users\stapi\AppData\Local\Temp\ccRf8fPj.s:2005   .text.net_compat_check:0000000000000000 .LFB51
C:\Users\stapi\AppData\Local\Temp\ccRf8fPj.s:2018   .text.net_compat_check:000000000000000a .LFE51
C:\Users\stapi\AppData\Local\Temp\ccRf8fPj.s:10641  .debug_str:0000000000000d3f .LASF257
C:\Users\stapi\AppData\Local\Temp\ccRf8fPj.s:8261   .debug_loc:00000000000000b7 .LLST107
C:\Users\stapi\AppData\Local\Temp\ccRf8fPj.s:10459  .debug_str:00000000000007f9 .LASF258
C:\Users\stapi\AppData\Local\Temp\ccRf8fPj.s:1956   .text.net_get_dns:0000000000000000 .LFB50
C:\Users\stapi\AppData\Local\Temp\ccRf8fPj.s:1998   .text.net_get_dns:0000000000000028 .LFE50
C:\Users\stapi\AppData\Local\Temp\ccRf8fPj.s:10133  .debug_str:0000000000000039 .LASF259
C:\Users\stapi\AppData\Local\Temp\ccRf8fPj.s:8281   .debug_loc:00000000000000e6 .LLST105
C:\Users\stapi\AppData\Local\Temp\ccRf8fPj.s:8303   .debug_loc:000000000000011d .LLST106
C:\Users\stapi\AppData\Local\Temp\ccRf8fPj.s:1975   .text.net_get_dns:0000000000000016 .LVL210
C:\Users\stapi\AppData\Local\Temp\ccRf8fPj.s:10215  .debug_str:000000000000020c .LASF260
C:\Users\stapi\AppData\Local\Temp\ccRf8fPj.s:1920   .text.net_set_dns:0000000000000000 .LFB49
C:\Users\stapi\AppData\Local\Temp\ccRf8fPj.s:1949   .text.net_set_dns:0000000000000024 .LFE49
C:\Users\stapi\AppData\Local\Temp\ccRf8fPj.s:8310   .debug_loc:0000000000000130 .LLST104
C:\Users\stapi\AppData\Local\Temp\ccRf8fPj.s:1939   .text.net_set_dns:0000000000000018 .LVL207
C:\Users\stapi\AppData\Local\Temp\ccRf8fPj.s:10621  .debug_str:0000000000000cb4 .LASF262
C:\Users\stapi\AppData\Local\Temp\ccRf8fPj.s:1874   .text.net_dhcpd_stop:0000000000000000 .LFB48
C:\Users\stapi\AppData\Local\Temp\ccRf8fPj.s:1913   .text.net_dhcpd_stop:0000000000000030 .LFE48
C:\Users\stapi\AppData\Local\Temp\ccRf8fPj.s:8329   .debug_loc:000000000000015d .LLST102
C:\Users\stapi\AppData\Local\Temp\ccRf8fPj.s:8347   .debug_loc:0000000000000189 .LLST103
C:\Users\stapi\AppData\Local\Temp\ccRf8fPj.s:1897   .text.net_dhcpd_stop:0000000000000020 .LVL203
C:\Users\stapi\AppData\Local\Temp\ccRf8fPj.s:10761  .debug_str:0000000000000ffe .LASF263
C:\Users\stapi\AppData\Local\Temp\ccRf8fPj.s:1825   .text.net_dhcpd_start:0000000000000000 .LFB47
C:\Users\stapi\AppData\Local\Temp\ccRf8fPj.s:1867   .text.net_dhcpd_start:0000000000000034 .LFE47
C:\Users\stapi\AppData\Local\Temp\ccRf8fPj.s:8365   .debug_loc:00000000000001b5 .LLST100
C:\Users\stapi\AppData\Local\Temp\ccRf8fPj.s:8379   .debug_loc:00000000000001d6 .LLST101
C:\Users\stapi\AppData\Local\Temp\ccRf8fPj.s:1853   .text.net_dhcpd_start:0000000000000024 .LVL201
C:\Users\stapi\AppData\Local\Temp\ccRf8fPj.s:10493  .debug_str:000000000000093b .LASF264
C:\Users\stapi\AppData\Local\Temp\ccRf8fPj.s:1799   .text.net_dhcp_address_obtained:0000000000000000 .LFB46
C:\Users\stapi\AppData\Local\Temp\ccRf8fPj.s:1818   .text.net_dhcp_address_obtained:000000000000001c .LFE46
C:\Users\stapi\AppData\Local\Temp\ccRf8fPj.s:8393   .debug_loc:00000000000001f7 .LLST98
C:\Users\stapi\AppData\Local\Temp\ccRf8fPj.s:8407   .debug_loc:0000000000000218 .LLST99
C:\Users\stapi\AppData\Local\Temp\ccRf8fPj.s:1811   .text.net_dhcp_address_obtained:0000000000000010 .LVL198
C:\Users\stapi\AppData\Local\Temp\ccRf8fPj.s:10773  .debug_str:0000000000001048 .LASF265
C:\Users\stapi\AppData\Local\Temp\ccRf8fPj.s:1768   .text.net_dhcp_release:0000000000000000 .LFB45
C:\Users\stapi\AppData\Local\Temp\ccRf8fPj.s:1792   .text.net_dhcp_release:000000000000002a .LFE45
C:\Users\stapi\AppData\Local\Temp\ccRf8fPj.s:8421   .debug_loc:0000000000000239 .LLST96
C:\Users\stapi\AppData\Local\Temp\ccRf8fPj.s:8435   .debug_loc:000000000000025a .LLST97
C:\Users\stapi\AppData\Local\Temp\ccRf8fPj.s:1783   .text.net_dhcp_release:000000000000001a .LVL195
C:\Users\stapi\AppData\Local\Temp\ccRf8fPj.s:10605  .debug_str:0000000000000c4a .LASF266
C:\Users\stapi\AppData\Local\Temp\ccRf8fPj.s:1749   .text.net_dhcp_stop:0000000000000000 .LFB44
C:\Users\stapi\AppData\Local\Temp\ccRf8fPj.s:1761   .text.net_dhcp_stop:0000000000000012 .LFE44
C:\Users\stapi\AppData\Local\Temp\ccRf8fPj.s:8449   .debug_loc:000000000000027b .LLST94
C:\Users\stapi\AppData\Local\Temp\ccRf8fPj.s:8463   .debug_loc:000000000000029c .LLST95
C:\Users\stapi\AppData\Local\Temp\ccRf8fPj.s:1759   .text.net_dhcp_stop:0000000000000012 .LVL192
C:\Users\stapi\AppData\Local\Temp\ccRf8fPj.s:10839  .debug_str:00000000000012b9 .LASF267
C:\Users\stapi\AppData\Local\Temp\ccRf8fPj.s:1718   .text.net_dhcp_start:0000000000000000 .LFB43
C:\Users\stapi\AppData\Local\Temp\ccRf8fPj.s:1742   .text.net_dhcp_start:000000000000002a .LFE43
C:\Users\stapi\AppData\Local\Temp\ccRf8fPj.s:8477   .debug_loc:00000000000002bd .LLST92
C:\Users\stapi\AppData\Local\Temp\ccRf8fPj.s:8491   .debug_loc:00000000000002de .LLST93
C:\Users\stapi\AppData\Local\Temp\ccRf8fPj.s:1733   .text.net_dhcp_start:000000000000001a .LVL190
C:\Users\stapi\AppData\Local\Temp\ccRf8fPj.s:10633  .debug_str:0000000000000d04 .LASF268
C:\Users\stapi\AppData\Local\Temp\ccRf8fPj.s:1567   .text.net_eth_receive:0000000000000000 .LFB42
C:\Users\stapi\AppData\Local\Temp\ccRf8fPj.s:1711   .text.net_eth_receive:00000000000000a6 .LFE42
C:\Users\stapi\AppData\Local\Temp\ccRf8fPj.s:8505   .debug_loc:00000000000002ff .LLST83
C:\Users\stapi\AppData\Local\Temp\ccRf8fPj.s:8516   .debug_loc:000000000000031d .LLST84
C:\Users\stapi\AppData\Local\Temp\ccRf8fPj.s:10629  .debug_str:0000000000000cea .LASF269
C:\Users\stapi\AppData\Local\Temp\ccRf8fPj.s:8545   .debug_loc:0000000000000362 .LLST85
C:\Users\stapi\AppData\Local\Temp\ccRf8fPj.s:10199  .debug_str:00000000000001c4 .LASF270
C:\Users\stapi\AppData\Local\Temp\ccRf8fPj.s:8569   .debug_loc:0000000000000397 .LLST86
C:\Users\stapi\AppData\Local\Temp\ccRf8fPj.s:8586   .debug_loc:00000000000003c2 .LLST87
C:\Users\stapi\AppData\Local\Temp\ccRf8fPj.s:8597   .debug_loc:00000000000003e0 .LLST88
C:\Users\stapi\AppData\Local\Temp\ccRf8fPj.s:8608   .debug_loc:00000000000003fe .LLST89
C:\Users\stapi\AppData\Local\Temp\ccRf8fPj.s:8627   .debug_loc:0000000000000432 .LLST90
C:\Users\stapi\AppData\Local\Temp\ccRf8fPj.s:8645   .debug_loc:000000000000045e .LLST91
C:\Users\stapi\AppData\Local\Temp\ccRf8fPj.s:1600   .text.net_eth_receive:0000000000000026 .LVL173
C:\Users\stapi\AppData\Local\Temp\ccRf8fPj.s:1641   .text.net_eth_receive:0000000000000056 .LVL177
C:\Users\stapi\AppData\Local\Temp\ccRf8fPj.s:1668   .text.net_eth_receive:0000000000000078 .LVL182
C:\Users\stapi\AppData\Local\Temp\ccRf8fPj.s:1675   .text.net_eth_receive:0000000000000086 .LVL183
C:\Users\stapi\AppData\Local\Temp\ccRf8fPj.s:1708   .text.net_eth_receive:00000000000000a4 .LVL187
C:\Users\stapi\AppData\Local\Temp\ccRf8fPj.s:10809  .debug_str:0000000000001122 .LASF271
C:\Users\stapi\AppData\Local\Temp\ccRf8fPj.s:1484   .text.net_l2_socket_delete:0000000000000000 .LFB41
C:\Users\stapi\AppData\Local\Temp\ccRf8fPj.s:1560   .text.net_l2_socket_delete:0000000000000050 .LFE41
C:\Users\stapi\AppData\Local\Temp\ccRf8fPj.s:8670   .debug_loc:0000000000000498 .LLST81
C:\Users\stapi\AppData\Local\Temp\ccRf8fPj.s:8692   .debug_loc:00000000000004cf .LLST82
C:\Users\stapi\AppData\Local\Temp\ccRf8fPj.s:1538   .text.net_l2_socket_delete:000000000000003e .LVL167
C:\Users\stapi\AppData\Local\Temp\ccRf8fPj.s:10309  .debug_str:0000000000000483 .LASF272
C:\Users\stapi\AppData\Local\Temp\ccRf8fPj.s:1347   .text.net_l2_socket_create:0000000000000000 .LFB40
C:\Users\stapi\AppData\Local\Temp\ccRf8fPj.s:1477   .text.net_l2_socket_create:0000000000000094 .LFE40
C:\Users\stapi\AppData\Local\Temp\ccRf8fPj.s:8710   .debug_loc:00000000000004fb .LLST76
C:\Users\stapi\AppData\Local\Temp\ccRf8fPj.s:8721   .debug_loc:0000000000000519 .LLST77
C:\Users\stapi\AppData\Local\Temp\ccRf8fPj.s:8746   .debug_loc:0000000000000553 .LLST78
C:\Users\stapi\AppData\Local\Temp\ccRf8fPj.s:8763   .debug_loc:000000000000057e .LLST79
C:\Users\stapi\AppData\Local\Temp\ccRf8fPj.s:8786   .debug_loc:00000000000005b6 .LLST80
C:\Users\stapi\AppData\Local\Temp\ccRf8fPj.s:1442   .text.net_l2_socket_create:0000000000000060 .LVL158
C:\Users\stapi\AppData\Local\Temp\ccRf8fPj.s:1456   .text.net_l2_socket_create:000000000000007c .LVL159
C:\Users\stapi\AppData\Local\Temp\ccRf8fPj.s:1463   .text.net_l2_socket_create:000000000000008a .LVL160
C:\Users\stapi\AppData\Local\Temp\ccRf8fPj.s:10575  .debug_str:0000000000000b2b .LASF273
C:\Users\stapi\AppData\Local\Temp\ccRf8fPj.s:1180   .text.net_l2_send:0000000000000000 .LFB39
C:\Users\stapi\AppData\Local\Temp\ccRf8fPj.s:1340   .text.net_l2_send:00000000000000f8 .LFE39
C:\Users\stapi\AppData\Local\Temp\ccRf8fPj.s:8797   .debug_loc:00000000000005d4 .LLST67
C:\Users\stapi\AppData\Local\Temp\ccRf8fPj.s:10549  .debug_str:0000000000000a8a .LASF274
C:\Users\stapi\AppData\Local\Temp\ccRf8fPj.s:8819   .debug_loc:000000000000060b .LLST68
C:\Users\stapi\AppData\Local\Temp\ccRf8fPj.s:10573  .debug_str:0000000000000b22 .LASF275
C:\Users\stapi\AppData\Local\Temp\ccRf8fPj.s:8841   .debug_loc:0000000000000642 .LLST69
C:\Users\stapi\AppData\Local\Temp\ccRf8fPj.s:8870   .debug_loc:0000000000000687 .LLST70
C:\Users\stapi\AppData\Local\Temp\ccRf8fPj.s:10351  .debug_str:0000000000000591 .LASF276
C:\Users\stapi\AppData\Local\Temp\ccRf8fPj.s:8895   .debug_loc:00000000000006c1 .LLST71
C:\Users\stapi\AppData\Local\Temp\ccRf8fPj.s:8917   .debug_loc:00000000000006f8 .LLST72
C:\Users\stapi\AppData\Local\Temp\ccRf8fPj.s:8939   .debug_loc:000000000000072f .LLST73
C:\Users\stapi\AppData\Local\Temp\ccRf8fPj.s:8946   .debug_loc:0000000000000742 .LLST74
C:\Users\stapi\AppData\Local\Temp\ccRf8fPj.s:8968   .debug_loc:0000000000000779 .LLST75
C:\Users\stapi\AppData\Local\Temp\ccRf8fPj.s:1274   .text.net_l2_send:000000000000006a .LVL139
C:\Users\stapi\AppData\Local\Temp\ccRf8fPj.s:1280   .text.net_l2_send:0000000000000076 .LVL140
C:\Users\stapi\AppData\Local\Temp\ccRf8fPj.s:1291   .text.net_l2_send:0000000000000086 .LVL142
C:\Users\stapi\AppData\Local\Temp\ccRf8fPj.s:1301   .text.net_l2_send:000000000000009e .LVL143
C:\Users\stapi\AppData\Local\Temp\ccRf8fPj.s:1307   .text.net_l2_send:00000000000000b0 .LVL144
C:\Users\stapi\AppData\Local\Temp\ccRf8fPj.s:1252   .text.net_l2_send:0000000000000048 .LVL136
C:\Users\stapi\AppData\Local\Temp\ccRf8fPj.s:1263   .text.net_l2_send:000000000000005a .LVL138
C:\Users\stapi\AppData\Local\Temp\ccRf8fPj.s:1314   .text.net_l2_send:00000000000000c0 .LVL145
C:\Users\stapi\AppData\Local\Temp\ccRf8fPj.s:1323   .text.net_l2_send:00000000000000d6 .LVL146
C:\Users\stapi\AppData\Local\Temp\ccRf8fPj.s:1331   .text.net_l2_send:00000000000000ea .LVL148
C:\Users\stapi\AppData\Local\Temp\ccRf8fPj.s:1335   .text.net_l2_send:00000000000000f6 .LVL149
C:\Users\stapi\AppData\Local\Temp\ccRf8fPj.s:10461  .debug_str:0000000000000805 .LASF362
C:\Users\stapi\AppData\Local\Temp\ccRf8fPj.s:272    .text.net_l2_send_cfm:0000000000000000 .LFB38
C:\Users\stapi\AppData\Local\Temp\ccRf8fPj.s:290    .text.net_l2_send_cfm:0000000000000016 .LFE38
C:\Users\stapi\AppData\Local\Temp\ccRf8fPj.s:10663  .debug_str:0000000000000db0 .LASF277
C:\Users\stapi\AppData\Local\Temp\ccRf8fPj.s:8975   .debug_loc:000000000000078c .LLST11
C:\Users\stapi\AppData\Local\Temp\ccRf8fPj.s:10245  .debug_str:00000000000002d5 .LASF278
C:\Users\stapi\AppData\Local\Temp\ccRf8fPj.s:8989   .debug_loc:00000000000007ad .LLST12
C:\Users\stapi\AppData\Local\Temp\ccRf8fPj.s:9003   .debug_loc:00000000000007ce .LLST13
C:\Users\stapi\AppData\Local\Temp\ccRf8fPj.s:288    .text.net_l2_send_cfm:0000000000000016 .LVL35
C:\Users\stapi\AppData\Local\Temp\ccRf8fPj.s:10795  .debug_str:00000000000010d7 .LASF279
C:\Users\stapi\AppData\Local\Temp\ccRf8fPj.s:1130   .text.net_deinit:0000000000000000 .LFB37
C:\Users\stapi\AppData\Local\Temp\ccRf8fPj.s:1173   .text.net_deinit:0000000000000048 .LFE37
C:\Users\stapi\AppData\Local\Temp\ccRf8fPj.s:1147   .text.net_deinit:0000000000000020 .LVL126
C:\Users\stapi\AppData\Local\Temp\ccRf8fPj.s:1162   .text.net_deinit:000000000000003c .LVL127
C:\Users\stapi\AppData\Local\Temp\ccRf8fPj.s:10375  .debug_str:0000000000000614 .LASF280
C:\Users\stapi\AppData\Local\Temp\ccRf8fPj.s:1045   .text.net_init:0000000000000000 .LFB36
C:\Users\stapi\AppData\Local\Temp\ccRf8fPj.s:1123   .text.net_init:0000000000000072 .LFE36
C:\Users\stapi\AppData\Local\Temp\ccRf8fPj.s:9017   .debug_loc:00000000000007ef .LLST66
C:\Users\stapi\AppData\Local\Temp\ccRf8fPj.s:1080   .text.net_init:000000000000002c .LVL123
C:\Users\stapi\AppData\Local\Temp\ccRf8fPj.s:1107   .text.net_init:0000000000000054 .LVL124
C:\Users\stapi\AppData\Local\Temp\ccRf8fPj.s:1116   .text.net_init:000000000000006c .LVL125
C:\Users\stapi\AppData\Local\Temp\ccRf8fPj.s:10413  .debug_str:00000000000006ea .LASF281
C:\Users\stapi\AppData\Local\Temp\ccRf8fPj.s:1026   .text.net_buf_tx_cat:0000000000000000 .LFB35
C:\Users\stapi\AppData\Local\Temp\ccRf8fPj.s:1034   .text.net_buf_tx_cat:0000000000000008 .LFE35
C:\Users\stapi\AppData\Local\Temp\ccRf8fPj.s:10229  .debug_str:000000000000025f .LASF282
C:\Users\stapi\AppData\Local\Temp\ccRf8fPj.s:9035   .debug_loc:000000000000081b .LLST64
C:\Users\stapi\AppData\Local\Temp\ccRf8fPj.s:10233  .debug_str:000000000000027b .LASF283
C:\Users\stapi\AppData\Local\Temp\ccRf8fPj.s:9049   .debug_loc:000000000000083c .LLST65
C:\Users\stapi\AppData\Local\Temp\ccRf8fPj.s:1032   .text.net_buf_tx_cat:0000000000000008 .LVL119
C:\Users\stapi\AppData\Local\Temp\ccRf8fPj.s:10435  .debug_str:0000000000000768 .LASF284
C:\Users\stapi\AppData\Local\Temp\ccRf8fPj.s:994    .text.net_buf_tx_free:0000000000000000 .LFB34
C:\Users\stapi\AppData\Local\Temp\ccRf8fPj.s:1019   .text.net_buf_tx_free:0000000000000028 .LFE34
C:\Users\stapi\AppData\Local\Temp\ccRf8fPj.s:9063   .debug_loc:000000000000085d .LLST63
C:\Users\stapi\AppData\Local\Temp\ccRf8fPj.s:1008   .text.net_buf_tx_free:0000000000000016 .LVL116
C:\Users\stapi\AppData\Local\Temp\ccRf8fPj.s:1012   .text.net_buf_tx_free:0000000000000020 .LVL117
C:\Users\stapi\AppData\Local\Temp\ccRf8fPj.s:10177  .debug_str:0000000000000148 .LASF285
C:\Users\stapi\AppData\Local\Temp\ccRf8fPj.s:825    .text.net_buf_tx_info:0000000000000000 .LFB33
C:\Users\stapi\AppData\Local\Temp\ccRf8fPj.s:987    .text.net_buf_tx_info:00000000000000b6 .LFE33
C:\Users\stapi\AppData\Local\Temp\ccRf8fPj.s:9074   .debug_loc:000000000000087b .LLST55
C:\Users\stapi\AppData\Local\Temp\ccRf8fPj.s:9101   .debug_loc:00000000000008c5 .LLST56
C:\Users\stapi\AppData\Local\Temp\ccRf8fPj.s:10299  .debug_str:0000000000000444 .LASF286
C:\Users\stapi\AppData\Local\Temp\ccRf8fPj.s:9115   .debug_loc:00000000000008e6 .LLST57
C:\Users\stapi\AppData\Local\Temp\ccRf8fPj.s:10161  .debug_str:00000000000000fc .LASF287
C:\Users\stapi\AppData\Local\Temp\ccRf8fPj.s:9126   .debug_loc:0000000000000904 .LLST58
C:\Users\stapi\AppData\Local\Temp\ccRf8fPj.s:10277  .debug_str:00000000000003b1 .LASF288
C:\Users\stapi\AppData\Local\Temp\ccRf8fPj.s:9137   .debug_loc:0000000000000922 .LLST59
C:\Users\stapi\AppData\Local\Temp\ccRf8fPj.s:9148   .debug_loc:0000000000000940 .LLST60
C:\Users\stapi\AppData\Local\Temp\ccRf8fPj.s:10709  .debug_str:0000000000000ed4 .LASF289
C:\Users\stapi\AppData\Local\Temp\ccRf8fPj.s:10487  .debug_str:000000000000090b .LASF290
C:\Users\stapi\AppData\Local\Temp\ccRf8fPj.s:9174   .debug_loc:0000000000000982 .LLST61
C:\Users\stapi\AppData\Local\Temp\ccRf8fPj.s:10509  .debug_str:000000000000099b .LASF291
C:\Users\stapi\AppData\Local\Temp\ccRf8fPj.s:9193   .debug_loc:00000000000009b6 .LLST62
C:\Users\stapi\AppData\Local\Temp\ccRf8fPj.s:877    .text.net_buf_tx_info:000000000000003a .LVL101
C:\Users\stapi\AppData\Local\Temp\ccRf8fPj.s:911    .text.net_buf_tx_info:0000000000000060 .LVL105
C:\Users\stapi\AppData\Local\Temp\ccRf8fPj.s:10371  .debug_str:00000000000005f5 .LASF292
C:\Users\stapi\AppData\Local\Temp\ccRf8fPj.s:796    .text.net_buf_tx_alloc_ref:0000000000000000 .LFB32
C:\Users\stapi\AppData\Local\Temp\ccRf8fPj.s:811    .text.net_buf_tx_alloc_ref:0000000000000014 .LFE32
C:\Users\stapi\AppData\Local\Temp\ccRf8fPj.s:9216   .debug_loc:00000000000009e7 .LLST54
C:\Users\stapi\AppData\Local\Temp\ccRf8fPj.s:808    .text.net_buf_tx_alloc_ref:0000000000000014 .LVL96
C:\Users\stapi\AppData\Local\Temp\ccRf8fPj.s:10841  .debug_str:00000000000012c8 .LASF293
C:\Users\stapi\AppData\Local\Temp\ccRf8fPj.s:774    .text.net_buf_tx_alloc:0000000000000000 .LFB31
C:\Users\stapi\AppData\Local\Temp\ccRf8fPj.s:789    .text.net_buf_tx_alloc:0000000000000014 .LFE31
C:\Users\stapi\AppData\Local\Temp\ccRf8fPj.s:9230   .debug_loc:0000000000000a08 .LLST53
C:\Users\stapi\AppData\Local\Temp\ccRf8fPj.s:786    .text.net_buf_tx_alloc:0000000000000014 .LVL93
C:\Users\stapi\AppData\Local\Temp\ccRf8fPj.s:10127  .debug_str:0000000000000019 .LASF294
C:\Users\stapi\AppData\Local\Temp\ccRf8fPj.s:756    .text.net_if_vif_info:0000000000000000 .LFB30
C:\Users\stapi\AppData\Local\Temp\ccRf8fPj.s:767    .text.net_if_vif_info:0000000000000004 .LFE30
C:\Users\stapi\AppData\Local\Temp\ccRf8fPj.s:9244   .debug_loc:0000000000000a29 .LLST51
C:\Users\stapi\AppData\Local\Temp\ccRf8fPj.s:9258   .debug_loc:0000000000000a4a .LLST52
C:\Users\stapi\AppData\Local\Temp\ccRf8fPj.s:10547  .debug_str:0000000000000a7d .LASF295
C:\Users\stapi\AppData\Local\Temp\ccRf8fPj.s:667    .text.net_if_input:0000000000000000 .LFB29
C:\Users\stapi\AppData\Local\Temp\ccRf8fPj.s:749    .text.net_if_input:000000000000005a .LFE29
C:\Users\stapi\AppData\Local\Temp\ccRf8fPj.s:9272   .debug_loc:0000000000000a6b .LLST44
C:\Users\stapi\AppData\Local\Temp\ccRf8fPj.s:9283   .debug_loc:0000000000000a89 .LLST45
C:\Users\stapi\AppData\Local\Temp\ccRf8fPj.s:9294   .debug_loc:0000000000000aa7 .LLST46
C:\Users\stapi\AppData\Local\Temp\ccRf8fPj.s:9312   .debug_loc:0000000000000ad3 .LLST47
C:\Users\stapi\AppData\Local\Temp\ccRf8fPj.s:10801  .debug_str:00000000000010fc .LASF296
C:\Users\stapi\AppData\Local\Temp\ccRf8fPj.s:9326   .debug_loc:0000000000000af4 .LLST48
C:\Users\stapi\AppData\Local\Temp\ccRf8fPj.s:9337   .debug_loc:0000000000000b12 .LLST49
C:\Users\stapi\AppData\Local\Temp\ccRf8fPj.s:9348   .debug_loc:0000000000000b30 .LLST50
C:\Users\stapi\AppData\Local\Temp\ccRf8fPj.s:703    .text.net_if_input:0000000000000026 .LVL83
C:\Users\stapi\AppData\Local\Temp\ccRf8fPj.s:717    .text.net_if_input:0000000000000042 .LVL85
C:\Users\stapi\AppData\Local\Temp\ccRf8fPj.s:723    .text.net_if_input:0000000000000046 .LVL86
C:\Users\stapi\AppData\Local\Temp\ccRf8fPj.s:744    .text.net_if_input:0000000000000056 .LVL88
C:\Users\stapi\AppData\Local\Temp\ccRf8fPj.s:10451  .debug_str:00000000000007c3 .LASF297
C:\Users\stapi\AppData\Local\Temp\ccRf8fPj.s:606    .text.net_if_get_ip:0000000000000000 .LFB28
C:\Users\stapi\AppData\Local\Temp\ccRf8fPj.s:656    .text.net_if_get_ip:000000000000001e .LFE28
C:\Users\stapi\AppData\Local\Temp\ccRf8fPj.s:9359   .debug_loc:0000000000000b4e .LLST42
C:\Users\stapi\AppData\Local\Temp\ccRf8fPj.s:10521  .debug_str:00000000000009da .LASF298
C:\Users\stapi\AppData\Local\Temp\ccRf8fPj.s:9385   .debug_loc:0000000000000b90 .LLST43
C:\Users\stapi\AppData\Local\Temp\ccRf8fPj.s:10603  .debug_str:0000000000000c3c .LASF299
C:\Users\stapi\AppData\Local\Temp\ccRf8fPj.s:563    .text.net_if_set_ip:0000000000000000 .LFB27
C:\Users\stapi\AppData\Local\Temp\ccRf8fPj.s:599    .text.net_if_set_ip:000000000000002a .LFE27
C:\Users\stapi\AppData\Local\Temp\ccRf8fPj.s:9411   .debug_loc:0000000000000bd2 .LLST37
C:\Users\stapi\AppData\Local\Temp\ccRf8fPj.s:9425   .debug_loc:0000000000000bf3 .LLST38
C:\Users\stapi\AppData\Local\Temp\ccRf8fPj.s:9437   .debug_loc:0000000000000c12 .LLST39
C:\Users\stapi\AppData\Local\Temp\ccRf8fPj.s:9449   .debug_loc:0000000000000c31 .LLST40
C:\Users\stapi\AppData\Local\Temp\ccRf8fPj.s:9461   .debug_loc:0000000000000c50 .LLST41
C:\Users\stapi\AppData\Local\Temp\ccRf8fPj.s:590    .text.net_if_set_ip:0000000000000020 .LVL70
C:\Users\stapi\AppData\Local\Temp\ccRf8fPj.s:10305  .debug_str:0000000000000469 .LASF300
C:\Users\stapi\AppData\Local\Temp\ccRf8fPj.s:544    .text.net_if_set_default:0000000000000000 .LFB26
C:\Users\stapi\AppData\Local\Temp\ccRf8fPj.s:556    .text.net_if_set_default:0000000000000012 .LFE26
C:\Users\stapi\AppData\Local\Temp\ccRf8fPj.s:9475   .debug_loc:0000000000000c71 .LLST35
C:\Users\stapi\AppData\Local\Temp\ccRf8fPj.s:9489   .debug_loc:0000000000000c92 .LLST36
C:\Users\stapi\AppData\Local\Temp\ccRf8fPj.s:554    .text.net_if_set_default:0000000000000012 .LVL64
C:\Users\stapi\AppData\Local\Temp\ccRf8fPj.s:10803  .debug_str:0000000000001104 .LASF301
C:\Users\stapi\AppData\Local\Temp\ccRf8fPj.s:525    .text.net_if_down:0000000000000000 .LFB25
C:\Users\stapi\AppData\Local\Temp\ccRf8fPj.s:537    .text.net_if_down:0000000000000012 .LFE25
C:\Users\stapi\AppData\Local\Temp\ccRf8fPj.s:9503   .debug_loc:0000000000000cb3 .LLST33
C:\Users\stapi\AppData\Local\Temp\ccRf8fPj.s:9517   .debug_loc:0000000000000cd4 .LLST34
C:\Users\stapi\AppData\Local\Temp\ccRf8fPj.s:535    .text.net_if_down:0000000000000012 .LVL62
C:\Users\stapi\AppData\Local\Temp\ccRf8fPj.s:10223  .debug_str:0000000000000239 .LASF302
C:\Users\stapi\AppData\Local\Temp\ccRf8fPj.s:506    .text.net_if_up:0000000000000000 .LFB24
C:\Users\stapi\AppData\Local\Temp\ccRf8fPj.s:518    .text.net_if_up:0000000000000012 .LFE24
C:\Users\stapi\AppData\Local\Temp\ccRf8fPj.s:9531   .debug_loc:0000000000000cf5 .LLST31
C:\Users\stapi\AppData\Local\Temp\ccRf8fPj.s:9545   .debug_loc:0000000000000d16 .LLST32
C:\Users\stapi\AppData\Local\Temp\ccRf8fPj.s:516    .text.net_if_up:0000000000000012 .LVL60
C:\Users\stapi\AppData\Local\Temp\ccRf8fPj.s:10551  .debug_str:0000000000000a8f .LASF303
C:\Users\stapi\AppData\Local\Temp\ccRf8fPj.s:453    .text.net_if_get_name:0000000000000000 .LFB23
C:\Users\stapi\AppData\Local\Temp\ccRf8fPj.s:499    .text.net_if_get_name:000000000000003a .LFE23
C:\Users\stapi\AppData\Local\Temp\ccRf8fPj.s:9559   .debug_loc:0000000000000d37 .LLST29
C:\Users\stapi\AppData\Local\Temp\ccRf8fPj.s:9573   .debug_loc:0000000000000d58 .LLST30
C:\Users\stapi\AppData\Local\Temp\ccRf8fPj.s:10159  .debug_str:00000000000000e6 .LASF304
C:\Users\stapi\AppData\Local\Temp\ccRf8fPj.s:437    .text.net_if_find_from_name:0000000000000000 .LFB22
C:\Users\stapi\AppData\Local\Temp\ccRf8fPj.s:446    .text.net_if_find_from_name:0000000000000008 .LFE22
C:\Users\stapi\AppData\Local\Temp\ccRf8fPj.s:9587   .debug_loc:0000000000000d79 .LLST28
C:\Users\stapi\AppData\Local\Temp\ccRf8fPj.s:444    .text.net_if_find_from_name:0000000000000008 .LVL56
C:\Users\stapi\AppData\Local\Temp\ccRf8fPj.s:10325  .debug_str:00000000000004e3 .LASF305
C:\Users\stapi\AppData\Local\Temp\ccRf8fPj.s:419    .text.net_if_get_mac_addr:0000000000000000 .LFB21
C:\Users\stapi\AppData\Local\Temp\ccRf8fPj.s:430    .text.net_if_get_mac_addr:0000000000000006 .LFE21
C:\Users\stapi\AppData\Local\Temp\ccRf8fPj.s:9601   .debug_loc:0000000000000d9a .LLST26
C:\Users\stapi\AppData\Local\Temp\ccRf8fPj.s:10343  .debug_str:000000000000055e .LASF306
C:\Users\stapi\AppData\Local\Temp\ccRf8fPj.s:377    .text.net_if_remove:0000000000000000 .LFB20
C:\Users\stapi\AppData\Local\Temp\ccRf8fPj.s:412    .text.net_if_remove:0000000000000036 .LFE20
C:\Users\stapi\AppData\Local\Temp\ccRf8fPj.s:9614   .debug_loc:0000000000000dba .LLST23
C:\Users\stapi\AppData\Local\Temp\ccRf8fPj.s:10617  .debug_str:0000000000000ca6 .LASF307
C:\Users\stapi\AppData\Local\Temp\ccRf8fPj.s:9625   .debug_loc:0000000000000dd8 .LLST24
C:\Users\stapi\AppData\Local\Temp\ccRf8fPj.s:9632   .debug_loc:0000000000000deb .LLST25
C:\Users\stapi\AppData\Local\Temp\ccRf8fPj.s:392    .text.net_if_remove:0000000000000012 .LVL50
C:\Users\stapi\AppData\Local\Temp\ccRf8fPj.s:400    .text.net_if_remove:0000000000000026 .LVL51
C:\Users\stapi\AppData\Local\Temp\ccRf8fPj.s:10417  .debug_str:00000000000006fe .LASF308
C:\Users\stapi\AppData\Local\Temp\ccRf8fPj.s:313    .text.net_if_add:0000000000000000 .LFB19
C:\Users\stapi\AppData\Local\Temp\ccRf8fPj.s:370    .text.net_if_add:000000000000004e .LFE19
C:\Users\stapi\AppData\Local\Temp\ccRf8fPj.s:9643   .debug_loc:0000000000000e09 .LLST16
C:\Users\stapi\AppData\Local\Temp\ccRf8fPj.s:10269  .debug_str:000000000000037d .LASF309
C:\Users\stapi\AppData\Local\Temp\ccRf8fPj.s:9654   .debug_loc:0000000000000e27 .LLST17
C:\Users\stapi\AppData\Local\Temp\ccRf8fPj.s:9665   .debug_loc:0000000000000e45 .LLST18
C:\Users\stapi\AppData\Local\Temp\ccRf8fPj.s:9683   .debug_loc:0000000000000e71 .LLST19
C:\Users\stapi\AppData\Local\Temp\ccRf8fPj.s:9701   .debug_loc:0000000000000e9d .LLST20
C:\Users\stapi\AppData\Local\Temp\ccRf8fPj.s:9719   .debug_loc:0000000000000ec9 .LLST21
C:\Users\stapi\AppData\Local\Temp\ccRf8fPj.s:9737   .debug_loc:0000000000000ef5 .LLST22
C:\Users\stapi\AppData\Local\Temp\ccRf8fPj.s:349    .text.net_if_add:000000000000002c .LVL45
C:\Users\stapi\AppData\Local\Temp\ccRf8fPj.s:357    .text.net_if_add:000000000000003e .LVL47
C:\Users\stapi\AppData\Local\Temp\ccRf8fPj.s:10213  .debug_str:00000000000001fe .LASF310
C:\Users\stapi\AppData\Local\Temp\ccRf8fPj.s:297    .text.net_ip_chksum:0000000000000000 .LFB18
C:\Users\stapi\AppData\Local\Temp\ccRf8fPj.s:306    .text.net_ip_chksum:0000000000000008 .LFE18
C:\Users\stapi\AppData\Local\Temp\ccRf8fPj.s:10545  .debug_str:0000000000000a75 .LASF311
C:\Users\stapi\AppData\Local\Temp\ccRf8fPj.s:9748   .debug_loc:0000000000000f13 .LLST14
C:\Users\stapi\AppData\Local\Temp\ccRf8fPj.s:9762   .debug_loc:0000000000000f34 .LLST15
C:\Users\stapi\AppData\Local\Temp\ccRf8fPj.s:304    .text.net_ip_chksum:0000000000000008 .LVL37
C:\Users\stapi\AppData\Local\Temp\ccRf8fPj.s:10819  .debug_str:0000000000001250 .LASF312
C:\Users\stapi\AppData\Local\Temp\ccRf8fPj.s:13     .text.net_if_init:0000000000000000 .LFB17
C:\Users\stapi\AppData\Local\Temp\ccRf8fPj.s:48     .text.net_if_init:000000000000002a .LFE17
C:\Users\stapi\AppData\Local\Temp\ccRf8fPj.s:9776   .debug_loc:0000000000000f55 .LLST0
C:\Users\stapi\AppData\Local\Temp\ccRf8fPj.s:10335  .debug_str:000000000000051e .LASF313
C:\Users\stapi\AppData\Local\Temp\ccRf8fPj.s:54     .text.net_if_output:0000000000000000 .LFB16
C:\Users\stapi\AppData\Local\Temp\ccRf8fPj.s:266    .text.net_if_output:0000000000000122 .LFE16
C:\Users\stapi\AppData\Local\Temp\ccRf8fPj.s:9790   .debug_loc:0000000000000f76 .LLST1
C:\Users\stapi\AppData\Local\Temp\ccRf8fPj.s:10397  .debug_str:000000000000067e .LASF314
C:\Users\stapi\AppData\Local\Temp\ccRf8fPj.s:9801   .debug_loc:0000000000000f94 .LLST2
C:\Users\stapi\AppData\Local\Temp\ccRf8fPj.s:9834   .debug_loc:0000000000000fe4 .LLST3
C:\Users\stapi\AppData\Local\Temp\ccRf8fPj.s:10441  .debug_str:000000000000078a .LASF315
C:\Users\stapi\AppData\Local\Temp\ccRf8fPj.s:9849   .debug_loc:0000000000001006 .LLST4
C:\Users\stapi\AppData\Local\Temp\ccRf8fPj.s:10263  .debug_str:000000000000035a .LASF316
C:\Users\stapi\AppData\Local\Temp\ccRf8fPj.s:9864   .debug_loc:000000000000102f .LLST5
C:\Users\stapi\AppData\Local\Temp\ccRf8fPj.s:9879   .debug_loc:0000000000001058 .LLST6
C:\Users\stapi\AppData\Local\Temp\ccRf8fPj.s:69     .text.net_if_output:0000000000000008 .LBB4
C:\Users\stapi\AppData\Local\Temp\ccRf8fPj.s:9894   .debug_loc:0000000000001081 .LLST7
C:\Users\stapi\AppData\Local\Temp\ccRf8fPj.s:9905   .debug_loc:000000000000109f .LLST8
C:\Users\stapi\AppData\Local\Temp\ccRf8fPj.s:9913   .debug_loc:00000000000010b3 .LLST9
C:\Users\stapi\AppData\Local\Temp\ccRf8fPj.s:9921   .debug_loc:00000000000010c7 .LLST10
C:\Users\stapi\AppData\Local\Temp\ccRf8fPj.s:119    .text.net_if_output:0000000000000048 .LVL8
C:\Users\stapi\AppData\Local\Temp\ccRf8fPj.s:126    .text.net_if_output:000000000000005a .LVL9
C:\Users\stapi\AppData\Local\Temp\ccRf8fPj.s:151    .text.net_if_output:0000000000000082 .LVL13
C:\Users\stapi\AppData\Local\Temp\ccRf8fPj.s:162    .text.net_if_output:0000000000000096 .LVL15
C:\Users\stapi\AppData\Local\Temp\ccRf8fPj.s:179    .text.net_if_output:00000000000000aa .LVL17
C:\Users\stapi\AppData\Local\Temp\ccRf8fPj.s:207    .text.net_if_output:00000000000000ca .LVL21
C:\Users\stapi\AppData\Local\Temp\ccRf8fPj.s:221    .text.net_if_output:00000000000000d8 .LVL25
C:\Users\stapi\AppData\Local\Temp\ccRf8fPj.s:231    .text.net_if_output:00000000000000ea .LVL28
C:\Users\stapi\AppData\Local\Temp\ccRf8fPj.s:236    .text.net_if_output:00000000000000f6 .LVL29
C:\Users\stapi\AppData\Local\Temp\ccRf8fPj.s:243    .text.net_if_output:0000000000000102 .LVL31
C:\Users\stapi\AppData\Local\Temp\ccRf8fPj.s:261    .text.net_if_output:000000000000011e .LVL32
C:\Users\stapi\AppData\Local\Temp\ccRf8fPj.s:10775  .debug_str:0000000000001059 .LASF363
C:\Users\stapi\AppData\Local\Temp\ccRf8fPj.s:10181  .debug_str:000000000000015e .LASF317
C:\Users\stapi\AppData\Local\Temp\ccRf8fPj.s:10845  .debug_str:00000000000012e1 .LASF318
C:\Users\stapi\AppData\Local\Temp\ccRf8fPj.s:10221  .debug_str:000000000000022e .LASF319
C:\Users\stapi\AppData\Local\Temp\ccRf8fPj.s:10589  .debug_str:0000000000000b82 .LASF320
C:\Users\stapi\AppData\Local\Temp\ccRf8fPj.s:10279  .debug_str:00000000000003b9 .LASF321
C:\Users\stapi\AppData\Local\Temp\ccRf8fPj.s:10125  .debug_str:000000000000000f .LASF322
C:\Users\stapi\AppData\Local\Temp\ccRf8fPj.s:10333  .debug_str:0000000000000512 .LASF323
C:\Users\stapi\AppData\Local\Temp\ccRf8fPj.s:10557  .debug_str:0000000000000ad1 .LASF324
C:\Users\stapi\AppData\Local\Temp\ccRf8fPj.s:10175  .debug_str:000000000000013a .LASF325
C:\Users\stapi\AppData\Local\Temp\ccRf8fPj.s:10361  .debug_str:00000000000005b6 .LASF326
C:\Users\stapi\AppData\Local\Temp\ccRf8fPj.s:10667  .debug_str:0000000000000dc3 .LASF327
C:\Users\stapi\AppData\Local\Temp\ccRf8fPj.s:10237  .debug_str:0000000000000291 .LASF328
C:\Users\stapi\AppData\Local\Temp\ccRf8fPj.s:10303  .debug_str:0000000000000453 .LASF329
C:\Users\stapi\AppData\Local\Temp\ccRf8fPj.s:10479  .debug_str:00000000000008dd .LASF330
C:\Users\stapi\AppData\Local\Temp\ccRf8fPj.s:10553  .debug_str:0000000000000a9f .LASF331
C:\Users\stapi\AppData\Local\Temp\ccRf8fPj.s:10295  .debug_str:000000000000042f .LASF332
C:\Users\stapi\AppData\Local\Temp\ccRf8fPj.s:10533  .debug_str:0000000000000a27 .LASF333
C:\Users\stapi\AppData\Local\Temp\ccRf8fPj.s:10699  .debug_str:0000000000000e9f .LASF334
C:\Users\stapi\AppData\Local\Temp\ccRf8fPj.s:10429  .debug_str:000000000000073c .LASF335
C:\Users\stapi\AppData\Local\Temp\ccRf8fPj.s:10473  .debug_str:00000000000008c2 .LASF336
C:\Users\stapi\AppData\Local\Temp\ccRf8fPj.s:10399  .debug_str:0000000000000684 .LASF337
C:\Users\stapi\AppData\Local\Temp\ccRf8fPj.s:10467  .debug_str:00000000000008a4 .LASF338
C:\Users\stapi\AppData\Local\Temp\ccRf8fPj.s:10377  .debug_str:000000000000061d .LASF339
C:\Users\stapi\AppData\Local\Temp\ccRf8fPj.s:10711  .debug_str:0000000000000ee0 .LASF340
C:\Users\stapi\AppData\Local\Temp\ccRf8fPj.s:10793  .debug_str:00000000000010c9 .LASF341
C:\Users\stapi\AppData\Local\Temp\ccRf8fPj.s:10821  .debug_str:000000000000125c .LASF342
C:\Users\stapi\AppData\Local\Temp\ccRf8fPj.s:10243  .debug_str:00000000000002c9 .LASF343
C:\Users\stapi\AppData\Local\Temp\ccRf8fPj.s:10681  .debug_str:0000000000000e2f .LASF344
C:\Users\stapi\AppData\Local\Temp\ccRf8fPj.s:10247  .debug_str:00000000000002e2 .LASF345
C:\Users\stapi\AppData\Local\Temp\ccRf8fPj.s:10847  .debug_str:00000000000012ec .LASF346
C:\Users\stapi\AppData\Local\Temp\ccRf8fPj.s:10599  .debug_str:0000000000000c29 .LASF347
C:\Users\stapi\AppData\Local\Temp\ccRf8fPj.s:10531  .debug_str:0000000000000a18 .LASF348
C:\Users\stapi\AppData\Local\Temp\ccRf8fPj.s:10513  .debug_str:00000000000009b1 .LASF349
C:\Users\stapi\AppData\Local\Temp\ccRf8fPj.s:10609  .debug_str:0000000000000c6c .LASF350
C:\Users\stapi\AppData\Local\Temp\ccRf8fPj.s:10679  .debug_str:0000000000000e20 .LASF351
C:\Users\stapi\AppData\Local\Temp\ccRf8fPj.s:10439  .debug_str:000000000000077f .LASF352
C:\Users\stapi\AppData\Local\Temp\ccRf8fPj.s:10209  .debug_str:00000000000001e7 .LASF353
C:\Users\stapi\AppData\Local\Temp\ccRf8fPj.s:10631  .debug_str:0000000000000cf1 .LASF354
C:\Users\stapi\AppData\Local\Temp\ccRf8fPj.s:10529  .debug_str:0000000000000a03 .LASF355
C:\Users\stapi\AppData\Local\Temp\ccRf8fPj.s:10475  .debug_str:00000000000008cc .LASF356
C:\Users\stapi\AppData\Local\Temp\ccRf8fPj.s:2134   .text.net_lpbk_socket_connect:0000000000000000 .LVL228
C:\Users\stapi\AppData\Local\Temp\ccRf8fPj.s:2153   .text.net_lpbk_socket_connect:0000000000000012 .LVL229
C:\Users\stapi\AppData\Local\Temp\ccRf8fPj.s:2155   .text.net_lpbk_socket_connect:0000000000000014 .LVL230
C:\Users\stapi\AppData\Local\Temp\ccRf8fPj.s:2061   .text.net_lpbk_socket_bind:0000000000000000 .LVL221
C:\Users\stapi\AppData\Local\Temp\ccRf8fPj.s:2080   .text.net_lpbk_socket_bind:0000000000000012 .LVL222
C:\Users\stapi\AppData\Local\Temp\ccRf8fPj.s:2082   .text.net_lpbk_socket_bind:0000000000000014 .LVL223
C:\Users\stapi\AppData\Local\Temp\ccRf8fPj.s:2028   .text.net_lpbk_socket_create:0000000000000000 .LVL217
C:\Users\stapi\AppData\Local\Temp\ccRf8fPj.s:2039   .text.net_lpbk_socket_create:000000000000000e .LVL218
C:\Users\stapi\AppData\Local\Temp\ccRf8fPj.s:2046   .text.net_lpbk_socket_create:000000000000001c .LVL220
C:\Users\stapi\AppData\Local\Temp\ccRf8fPj.s:2008   .text.net_compat_check:0000000000000000 .LVL214
C:\Users\stapi\AppData\Local\Temp\ccRf8fPj.s:2012   .text.net_compat_check:0000000000000004 .LVL215
C:\Users\stapi\AppData\Local\Temp\ccRf8fPj.s:2015   .text.net_compat_check:0000000000000008 .LVL216
C:\Users\stapi\AppData\Local\Temp\ccRf8fPj.s:1959   .text.net_get_dns:0000000000000000 .LVL208
C:\Users\stapi\AppData\Local\Temp\ccRf8fPj.s:1973   .text.net_get_dns:000000000000000e .LVL209
C:\Users\stapi\AppData\Local\Temp\ccRf8fPj.s:1990   .text.net_get_dns:0000000000000024 .LVL212
C:\Users\stapi\AppData\Local\Temp\ccRf8fPj.s:1994   .text.net_get_dns:0000000000000026 .LVL213
C:\Users\stapi\AppData\Local\Temp\ccRf8fPj.s:1981   .text.net_get_dns:000000000000001a .LVL211
C:\Users\stapi\AppData\Local\Temp\ccRf8fPj.s:1923   .text.net_set_dns:0000000000000000 .LVL205
C:\Users\stapi\AppData\Local\Temp\ccRf8fPj.s:1937   .text.net_set_dns:0000000000000010 .LVL206
C:\Users\stapi\AppData\Local\Temp\ccRf8fPj.s:1877   .text.net_dhcpd_stop:0000000000000000 .LVL202
C:\Users\stapi\AppData\Local\Temp\ccRf8fPj.s:1909   .text.net_dhcpd_stop:000000000000002e .LVL204
C:\Users\stapi\AppData\Local\Temp\ccRf8fPj.s:1828   .text.net_dhcpd_start:0000000000000000 .LVL199
C:\Users\stapi\AppData\Local\Temp\ccRf8fPj.s:1835   .text.net_dhcpd_start:0000000000000008 .LVL200
C:\Users\stapi\AppData\Local\Temp\ccRf8fPj.s:1802   .text.net_dhcp_address_obtained:0000000000000000 .LVL196
C:\Users\stapi\AppData\Local\Temp\ccRf8fPj.s:1807   .text.net_dhcp_address_obtained:0000000000000008 .LVL197
C:\Users\stapi\AppData\Local\Temp\ccRf8fPj.s:1771   .text.net_dhcp_release:0000000000000000 .LVL193
C:\Users\stapi\AppData\Local\Temp\ccRf8fPj.s:1776   .text.net_dhcp_release:0000000000000008 .LVL194
C:\Users\stapi\AppData\Local\Temp\ccRf8fPj.s:1752   .text.net_dhcp_stop:0000000000000000 .LVL191
C:\Users\stapi\AppData\Local\Temp\ccRf8fPj.s:1721   .text.net_dhcp_start:0000000000000000 .LVL188
C:\Users\stapi\AppData\Local\Temp\ccRf8fPj.s:1726   .text.net_dhcp_start:0000000000000008 .LVL189
C:\Users\stapi\AppData\Local\Temp\ccRf8fPj.s:1570   .text.net_eth_receive:0000000000000000 .LVL169
C:\Users\stapi\AppData\Local\Temp\ccRf8fPj.s:1591   .text.net_eth_receive:0000000000000014 .LVL171
C:\Users\stapi\AppData\Local\Temp\ccRf8fPj.s:1643   .text.net_eth_receive:0000000000000058 .LVL178
C:\Users\stapi\AppData\Local\Temp\ccRf8fPj.s:1692   .text.net_eth_receive:0000000000000092 .LVL185
C:\Users\stapi\AppData\Local\Temp\ccRf8fPj.s:1698   .text.net_eth_receive:0000000000000096 .LVL186
C:\Users\stapi\AppData\Local\Temp\ccRf8fPj.s:1580   .text.net_eth_receive:0000000000000008 .LVL170
C:\Users\stapi\AppData\Local\Temp\ccRf8fPj.s:1631   .text.net_eth_receive:000000000000004c .LVL175
C:\Users\stapi\AppData\Local\Temp\ccRf8fPj.s:1652   .text.net_eth_receive:000000000000005e .LVL179
C:\Users\stapi\AppData\Local\Temp\ccRf8fPj.s:1593   .text.net_eth_receive:0000000000000018 .LVL172
C:\Users\stapi\AppData\Local\Temp\ccRf8fPj.s:1639   .text.net_eth_receive:000000000000004e .LVL176
C:\Users\stapi\AppData\Local\Temp\ccRf8fPj.s:1661   .text.net_eth_receive:000000000000006a .LVL180
C:\Users\stapi\AppData\Local\Temp\ccRf8fPj.s:1679   .text.net_eth_receive:0000000000000088 .LVL184
C:\Users\stapi\AppData\Local\Temp\ccRf8fPj.s:1666   .text.net_eth_receive:0000000000000070 .LVL181
C:\Users\stapi\AppData\Local\Temp\ccRf8fPj.s:1617   .text.net_eth_receive:000000000000003a .LVL174
C:\Users\stapi\AppData\Local\Temp\ccRf8fPj.s:1487   .text.net_l2_socket_delete:0000000000000000 .LVL162
C:\Users\stapi\AppData\Local\Temp\ccRf8fPj.s:1519   .text.net_l2_socket_delete:0000000000000022 .LVL165
C:\Users\stapi\AppData\Local\Temp\ccRf8fPj.s:1553   .text.net_l2_socket_delete:000000000000004c .LVL168
C:\Users\stapi\AppData\Local\Temp\ccRf8fPj.s:1494   .text.net_l2_socket_delete:0000000000000008 .LVL163
C:\Users\stapi\AppData\Local\Temp\ccRf8fPj.s:1512   .text.net_l2_socket_delete:000000000000001e .LVL164
C:\Users\stapi\AppData\Local\Temp\ccRf8fPj.s:1528   .text.net_l2_socket_delete:000000000000002c .LVL166
C:\Users\stapi\AppData\Local\Temp\ccRf8fPj.s:1350   .text.net_l2_socket_create:0000000000000000 .LVL150
C:\Users\stapi\AppData\Local\Temp\ccRf8fPj.s:1385   .text.net_l2_socket_create:000000000000002a .LVL153
C:\Users\stapi\AppData\Local\Temp\ccRf8fPj.s:1401   .text.net_l2_socket_create:0000000000000036 .LVL154
C:\Users\stapi\AppData\Local\Temp\ccRf8fPj.s:1439   .text.net_l2_socket_create:0000000000000056 .LVL157
C:\Users\stapi\AppData\Local\Temp\ccRf8fPj.s:1358   .text.net_l2_socket_create:0000000000000008 .LVL151
C:\Users\stapi\AppData\Local\Temp\ccRf8fPj.s:1411   .text.net_l2_socket_create:000000000000003c .LVL155
C:\Users\stapi\AppData\Local\Temp\ccRf8fPj.s:1473   .text.net_l2_socket_create:0000000000000092 .LVL161
C:\Users\stapi\AppData\Local\Temp\ccRf8fPj.s:1369   .text.net_l2_socket_create:000000000000000e .LVL152
C:\Users\stapi\AppData\Local\Temp\ccRf8fPj.s:1430   .text.net_l2_socket_create:0000000000000052 .LVL156
C:\Users\stapi\AppData\Local\Temp\ccRf8fPj.s:1183   .text.net_l2_send:0000000000000000 .LVL128
C:\Users\stapi\AppData\Local\Temp\ccRf8fPj.s:1201   .text.net_l2_send:000000000000000a .LVL130
C:\Users\stapi\AppData\Local\Temp\ccRf8fPj.s:1222   .text.net_l2_send:0000000000000016 .LVL131
C:\Users\stapi\AppData\Local\Temp\ccRf8fPj.s:1236   .text.net_l2_send:0000000000000028 .LVL133
C:\Users\stapi\AppData\Local\Temp\ccRf8fPj.s:1250   .text.net_l2_send:0000000000000040 .LVL135
C:\Users\stapi\AppData\Local\Temp\ccRf8fPj.s:1243   .text.net_l2_send:0000000000000034 .LVL134
C:\Users\stapi\AppData\Local\Temp\ccRf8fPj.s:1286   .text.net_l2_send:000000000000007c .LVL141
C:\Users\stapi\AppData\Local\Temp\ccRf8fPj.s:1231   .text.net_l2_send:0000000000000020 .LVL132
C:\Users\stapi\AppData\Local\Temp\ccRf8fPj.s:1254   .text.net_l2_send:000000000000004a .LVL137
C:\Users\stapi\AppData\Local\Temp\ccRf8fPj.s:1325   .text.net_l2_send:00000000000000d8 .LVL147
C:\Users\stapi\AppData\Local\Temp\ccRf8fPj.s:1197   .text.net_l2_send:0000000000000008 .LVL129
C:\Users\stapi\AppData\Local\Temp\ccRf8fPj.s:275    .text.net_l2_send_cfm:0000000000000000 .LVL33
C:\Users\stapi\AppData\Local\Temp\ccRf8fPj.s:285    .text.net_l2_send_cfm:000000000000000a .LVL34
C:\Users\stapi\AppData\Local\Temp\ccRf8fPj.s:1055   .text.net_init:0000000000000008 .LVL120
C:\Users\stapi\AppData\Local\Temp\ccRf8fPj.s:1066   .text.net_init:0000000000000018 .LVL121
C:\Users\stapi\AppData\Local\Temp\ccRf8fPj.s:1072   .text.net_init:000000000000001c .LVL122
C:\Users\stapi\AppData\Local\Temp\ccRf8fPj.s:1029   .text.net_buf_tx_cat:0000000000000000 .LVL118
C:\Users\stapi\AppData\Local\Temp\ccRf8fPj.s:997    .text.net_buf_tx_free:0000000000000000 .LVL115
C:\Users\stapi\AppData\Local\Temp\ccRf8fPj.s:828    .text.net_buf_tx_info:0000000000000000 .LVL97
C:\Users\stapi\AppData\Local\Temp\ccRf8fPj.s:885    .text.net_buf_tx_info:0000000000000046 .LVL102
C:\Users\stapi\AppData\Local\Temp\ccRf8fPj.s:901    .text.net_buf_tx_info:0000000000000050 .LVL103
C:\Users\stapi\AppData\Local\Temp\ccRf8fPj.s:907    .text.net_buf_tx_info:0000000000000058 .LVL104
C:\Users\stapi\AppData\Local\Temp\ccRf8fPj.s:913    .text.net_buf_tx_info:0000000000000062 .LVL106
C:\Users\stapi\AppData\Local\Temp\ccRf8fPj.s:926    .text.net_buf_tx_info:0000000000000070 .LVL107
C:\Users\stapi\AppData\Local\Temp\ccRf8fPj.s:977    .text.net_buf_tx_info:00000000000000ae .LVL112
C:\Users\stapi\AppData\Local\Temp\ccRf8fPj.s:982    .text.net_buf_tx_info:00000000000000b4 .LVL114
C:\Users\stapi\AppData\Local\Temp\ccRf8fPj.s:859    .text.net_buf_tx_info:0000000000000020 .LVL99
C:\Users\stapi\AppData\Local\Temp\ccRf8fPj.s:947    .text.net_buf_tx_info:0000000000000082 .LVL108
C:\Users\stapi\AppData\Local\Temp\ccRf8fPj.s:955    .text.net_buf_tx_info:0000000000000092 .LVL110
C:\Users\stapi\AppData\Local\Temp\ccRf8fPj.s:969    .text.net_buf_tx_info:00000000000000a4 .LVL111
C:\Users\stapi\AppData\Local\Temp\ccRf8fPj.s:845    .text.net_buf_tx_info:0000000000000012 .LVL98
C:\Users\stapi\AppData\Local\Temp\ccRf8fPj.s:980    .text.net_buf_tx_info:00000000000000b0 .LVL113
C:\Users\stapi\AppData\Local\Temp\ccRf8fPj.s:952    .text.net_buf_tx_info:000000000000008c .LVL109
C:\Users\stapi\AppData\Local\Temp\ccRf8fPj.s:799    .text.net_buf_tx_alloc_ref:0000000000000000 .LVL94
C:\Users\stapi\AppData\Local\Temp\ccRf8fPj.s:806    .text.net_buf_tx_alloc_ref:000000000000000c .LVL95
C:\Users\stapi\AppData\Local\Temp\ccRf8fPj.s:777    .text.net_buf_tx_alloc:0000000000000000 .LVL91
C:\Users\stapi\AppData\Local\Temp\ccRf8fPj.s:784    .text.net_buf_tx_alloc:000000000000000c .LVL92
C:\Users\stapi\AppData\Local\Temp\ccRf8fPj.s:759    .text.net_if_vif_info:0000000000000000 .LVL89
C:\Users\stapi\AppData\Local\Temp\ccRf8fPj.s:764    .text.net_if_vif_info:0000000000000002 .LVL90
C:\Users\stapi\AppData\Local\Temp\ccRf8fPj.s:670    .text.net_if_input:0000000000000000 .LVL76
C:\Users\stapi\AppData\Local\Temp\ccRf8fPj.s:701    .text.net_if_input:000000000000001e .LVL82
C:\Users\stapi\AppData\Local\Temp\ccRf8fPj.s:697    .text.net_if_input:0000000000000018 .LVL80
C:\Users\stapi\AppData\Local\Temp\ccRf8fPj.s:699    .text.net_if_input:000000000000001c .LVL81
C:\Users\stapi\AppData\Local\Temp\ccRf8fPj.s:693    .text.net_if_input:0000000000000014 .LVL78
C:\Users\stapi\AppData\Local\Temp\ccRf8fPj.s:695    .text.net_if_input:0000000000000016 .LVL79
C:\Users\stapi\AppData\Local\Temp\ccRf8fPj.s:714    .text.net_if_input:0000000000000036 .LVL84
C:\Users\stapi\AppData\Local\Temp\ccRf8fPj.s:736    .text.net_if_input:0000000000000050 .LVL87
C:\Users\stapi\AppData\Local\Temp\ccRf8fPj.s:686    .text.net_if_input:0000000000000010 .LVL77
C:\Users\stapi\AppData\Local\Temp\ccRf8fPj.s:609    .text.net_if_get_ip:0000000000000000 .LVL71
C:\Users\stapi\AppData\Local\Temp\ccRf8fPj.s:637    .text.net_if_get_ip:0000000000000012 .LVL72
C:\Users\stapi\AppData\Local\Temp\ccRf8fPj.s:643    .text.net_if_get_ip:0000000000000016 .LVL73
C:\Users\stapi\AppData\Local\Temp\ccRf8fPj.s:647    .text.net_if_get_ip:000000000000001a .LVL74
C:\Users\stapi\AppData\Local\Temp\ccRf8fPj.s:651    .text.net_if_get_ip:000000000000001c .LVL75
C:\Users\stapi\AppData\Local\Temp\ccRf8fPj.s:566    .text.net_if_set_ip:0000000000000000 .LVL65
C:\Users\stapi\AppData\Local\Temp\ccRf8fPj.s:588    .text.net_if_set_ip:0000000000000018 .LVL69
C:\Users\stapi\AppData\Local\Temp\ccRf8fPj.s:586    .text.net_if_set_ip:0000000000000016 .LVL68
C:\Users\stapi\AppData\Local\Temp\ccRf8fPj.s:584    .text.net_if_set_ip:0000000000000014 .LVL67
C:\Users\stapi\AppData\Local\Temp\ccRf8fPj.s:571    .text.net_if_set_ip:0000000000000008 .LVL66
C:\Users\stapi\AppData\Local\Temp\ccRf8fPj.s:547    .text.net_if_set_default:0000000000000000 .LVL63
C:\Users\stapi\AppData\Local\Temp\ccRf8fPj.s:528    .text.net_if_down:0000000000000000 .LVL61
C:\Users\stapi\AppData\Local\Temp\ccRf8fPj.s:509    .text.net_if_up:0000000000000000 .LVL59
C:\Users\stapi\AppData\Local\Temp\ccRf8fPj.s:456    .text.net_if_get_name:0000000000000000 .LVL57
C:\Users\stapi\AppData\Local\Temp\ccRf8fPj.s:496    .text.net_if_get_name:0000000000000038 .LVL58
C:\Users\stapi\AppData\Local\Temp\ccRf8fPj.s:440    .text.net_if_find_from_name:0000000000000000 .LVL55
C:\Users\stapi\AppData\Local\Temp\ccRf8fPj.s:422    .text.net_if_get_mac_addr:0000000000000000 .LVL53
C:\Users\stapi\AppData\Local\Temp\ccRf8fPj.s:427    .text.net_if_get_mac_addr:0000000000000004 .LVL54
C:\Users\stapi\AppData\Local\Temp\ccRf8fPj.s:380    .text.net_if_remove:0000000000000000 .LVL48
C:\Users\stapi\AppData\Local\Temp\ccRf8fPj.s:404    .text.net_if_remove:000000000000002a .LVL52
C:\Users\stapi\AppData\Local\Temp\ccRf8fPj.s:389    .text.net_if_remove:000000000000000a .LVL49
C:\Users\stapi\AppData\Local\Temp\ccRf8fPj.s:316    .text.net_if_add:0000000000000000 .LVL38
C:\Users\stapi\AppData\Local\Temp\ccRf8fPj.s:331    .text.net_if_add:0000000000000010 .LVL39
C:\Users\stapi\AppData\Local\Temp\ccRf8fPj.s:333    .text.net_if_add:0000000000000012 .LVL40
C:\Users\stapi\AppData\Local\Temp\ccRf8fPj.s:335    .text.net_if_add:0000000000000014 .LVL41
C:\Users\stapi\AppData\Local\Temp\ccRf8fPj.s:337    .text.net_if_add:0000000000000016 .LVL42
C:\Users\stapi\AppData\Local\Temp\ccRf8fPj.s:340    .text.net_if_add:000000000000001a .LVL43
C:\Users\stapi\AppData\Local\Temp\ccRf8fPj.s:345    .text.net_if_add:0000000000000024 .LVL44
C:\Users\stapi\AppData\Local\Temp\ccRf8fPj.s:300    .text.net_ip_chksum:0000000000000000 .LVL36
C:\Users\stapi\AppData\Local\Temp\ccRf8fPj.s:17     .text.net_if_init:0000000000000000 .LVL0
C:\Users\stapi\AppData\Local\Temp\ccRf8fPj.s:45     .text.net_if_init:0000000000000028 .LVL1
C:\Users\stapi\AppData\Local\Temp\ccRf8fPj.s:57     .text.net_if_output:0000000000000000 .LVL2
C:\Users\stapi\AppData\Local\Temp\ccRf8fPj.s:117    .text.net_if_output:0000000000000040 .LVL7
C:\Users\stapi\AppData\Local\Temp\ccRf8fPj.s:138    .text.net_if_output:000000000000006a .LVL11
C:\Users\stapi\AppData\Local\Temp\ccRf8fPj.s:143    .text.net_if_output:000000000000006e .LVL12
C:\Users\stapi\AppData\Local\Temp\ccRf8fPj.s:238    .text.net_if_output:00000000000000f8 .LVL30
C:\Users\stapi\AppData\Local\Temp\ccRf8fPj.s:66     .text.net_if_output:0000000000000008 .LVL3
C:\Users\stapi\AppData\Local\Temp\ccRf8fPj.s:187    .text.net_if_output:00000000000000ae .LVL19
C:\Users\stapi\AppData\Local\Temp\ccRf8fPj.s:197    .text.net_if_output:00000000000000b6 .LVL20
C:\Users\stapi\AppData\Local\Temp\ccRf8fPj.s:153    .text.net_if_output:0000000000000084 .LVL14
C:\Users\stapi\AppData\Local\Temp\ccRf8fPj.s:182    .text.net_if_output:00000000000000ac .LVL18
C:\Users\stapi\AppData\Local\Temp\ccRf8fPj.s:217    .text.net_if_output:00000000000000d0 .LVL24
C:\Users\stapi\AppData\Local\Temp\ccRf8fPj.s:223    .text.net_if_output:00000000000000da .LVL26
C:\Users\stapi\AppData\Local\Temp\ccRf8fPj.s:209    .text.net_if_output:00000000000000cc .LVL22
C:\Users\stapi\AppData\Local\Temp\ccRf8fPj.s:213    .text.net_if_output:00000000000000ce .LVL23
C:\Users\stapi\AppData\Local\Temp\ccRf8fPj.s:229    .text.net_if_output:00000000000000e2 .LVL27
C:\Users\stapi\AppData\Local\Temp\ccRf8fPj.s:169    .text.net_if_output:0000000000000098 .LVL16
C:\Users\stapi\AppData\Local\Temp\ccRf8fPj.s:130    .text.net_if_output:0000000000000062 .LVL10
C:\Users\stapi\AppData\Local\Temp\ccRf8fPj.s:90     .text.net_if_output:0000000000000016 .LVL4
C:\Users\stapi\AppData\Local\Temp\ccRf8fPj.s:101    .text.net_if_output:0000000000000028 .LVL5
C:\Users\stapi\AppData\Local\Temp\ccRf8fPj.s:113    .text.net_if_output:000000000000003e .LVL6
C:\Users\stapi\AppData\Local\Temp\ccRf8fPj.s:2303   .debug_info:0000000000000000 .Ldebug_info0
C:\Users\stapi\AppData\Local\Temp\ccRf8fPj.s:78     .text.net_if_output:000000000000000c .LBE4
C:\Users\stapi\AppData\Local\Temp\ccRf8fPj.s:82     .text.net_if_output:0000000000000010 .LBB7
C:\Users\stapi\AppData\Local\Temp\ccRf8fPj.s:132    .text.net_if_output:0000000000000062 .LBE7
C:\Users\stapi\AppData\Local\Temp\ccRf8fPj.s:1203   .text.net_l2_send:000000000000000a .LBB8
C:\Users\stapi\AppData\Local\Temp\ccRf8fPj.s:1208   .text.net_l2_send:000000000000000c .LBE8
C:\Users\stapi\AppData\Local\Temp\ccRf8fPj.s:1267   .text.net_l2_send:000000000000005e .LBB9
C:\Users\stapi\AppData\Local\Temp\ccRf8fPj.s:1309   .text.net_l2_send:00000000000000b0 .LBE9

UNDEFINED SYMBOLS
etharp_output
__riscv_save_4
lwip_htons
pbuf_alloc
sys_memcpy
macif_tx_start
__riscv_restore_4
pbuf_free
pbuf_cat
pbuf_ref
sys_sema_up
lwip_standard_chksum
__riscv_save_3
tcpip_input
netifapi_netif_add
__riscv_restore_3
__riscv_save_1
dhcp_cleanup
netif_remove
netifapi_netif_common
__riscv_restore_1
netif_find
netif_set_up
netif_set_down
netif_set_default
__riscv_save_0
netif_set_addr
__riscv_restore_0
pbuf_alloced_custom
global_debug_level
co_printf
__riscv_save_6
pbuf_header
__riscv_restore_6
__riscv_save_2
sys_sema_init_ext
__riscv_restore_2
sys_mutex_init
sys_sem_free
sys_mutex_free
__riscv_save_7
__riscv_restore_7
sys_mutex_get
sys_sema_down
sys_mutex_put
lwip_socket
lwip_getsockopt
lwip_close
__riscv_save_5
memp_malloc
sys_mbox_trypost
netbuf_delete
__riscv_restore_5
dhcp_start
dhcp_stop
dhcp_release
dhcp_supplied_address
dhcpd_daemon
stop_dhcpd_daemon
dns_setserver
dns_getserver
sys_memset
lwip_htonl
lwip_bind
lwip_connect
