   1              		.file	"alcs_localsetup.c"
   2              		.option nopic
   3              		.attribute arch, "rv32i2p0_m2p0_a2p0_f2p0_c2p0_b_p0p94"
   4              		.attribute unaligned_access, 0
   5              		.attribute stack_align, 16
   6              		.text
   7              	.Ltext0:
   8              		.cfi_sections	.debug_frame
   9              		.section	.rodata.__fill_key.str1.4,"aMS",@progbits,1
  10              		.align	2
  11              	.LC0:
  12 0000 5B657272 		.string	"[err] "
  12      5D2000
  13 0007 00       		.align	2
  14              	.LC1:
  15 0008 496E7661 		.string	"Invalid Parameter"
  15      6C696420 
  15      50617261 
  15      6D657465 
  15      7200
  16 001a 0000     		.align	2
  17              	.LC2:
  18 001c 0D0A00   		.string	"\r\n"
  19 001f 00       		.align	2
  20              	.LC3:
  21 0020 252E2A73 		.string	"%.*s%.*s"
  21      252E2A73 
  21      00
  22              		.section	.text.__fill_key,"ax",@progbits
  23              		.align	1
  25              	__fill_key:
  26              	.LFB23:
  27              		.file 1 "C:/Users/stapi/OneDrive/Desktop/GD32VW553/V1_MQTT_OK/GD32VW55X_Wifi_BLE_SDK/GD32VW55x_REL
   1:C:/Users/stapi/OneDrive/Desktop/GD32VW553/V1_MQTT_OK/GD32VW55X_Wifi_BLE_SDK/GD32VW55x_RELEASE_V1.0.2/MSDK/cloud/alicloud/src/protocol/alcs\alcs_localsetup.c **** /*
   2:C:/Users/stapi/OneDrive/Desktop/GD32VW553/V1_MQTT_OK/GD32VW55X_Wifi_BLE_SDK/GD32VW55x_RELEASE_V1.0.2/MSDK/cloud/alicloud/src/protocol/alcs\alcs_localsetup.c ****  * Copyright (C) 2015-2018 Alibaba Group Holding Limited
   3:C:/Users/stapi/OneDrive/Desktop/GD32VW553/V1_MQTT_OK/GD32VW55X_Wifi_BLE_SDK/GD32VW55x_RELEASE_V1.0.2/MSDK/cloud/alicloud/src/protocol/alcs\alcs_localsetup.c ****  */
   4:C:/Users/stapi/OneDrive/Desktop/GD32VW553/V1_MQTT_OK/GD32VW55X_Wifi_BLE_SDK/GD32VW55x_RELEASE_V1.0.2/MSDK/cloud/alicloud/src/protocol/alcs\alcs_localsetup.c **** 
   5:C:/Users/stapi/OneDrive/Desktop/GD32VW553/V1_MQTT_OK/GD32VW55X_Wifi_BLE_SDK/GD32VW55x_RELEASE_V1.0.2/MSDK/cloud/alicloud/src/protocol/alcs\alcs_localsetup.c **** #include <stdio.h>
   6:C:/Users/stapi/OneDrive/Desktop/GD32VW553/V1_MQTT_OK/GD32VW55X_Wifi_BLE_SDK/GD32VW55x_RELEASE_V1.0.2/MSDK/cloud/alicloud/src/protocol/alcs\alcs_localsetup.c **** #include "iot_import.h"
   7:C:/Users/stapi/OneDrive/Desktop/GD32VW553/V1_MQTT_OK/GD32VW55X_Wifi_BLE_SDK/GD32VW55x_RELEASE_V1.0.2/MSDK/cloud/alicloud/src/protocol/alcs\alcs_localsetup.c **** #include "iot_export.h"
   8:C:/Users/stapi/OneDrive/Desktop/GD32VW553/V1_MQTT_OK/GD32VW55X_Wifi_BLE_SDK/GD32VW55x_RELEASE_V1.0.2/MSDK/cloud/alicloud/src/protocol/alcs\alcs_localsetup.c **** 
   9:C:/Users/stapi/OneDrive/Desktop/GD32VW553/V1_MQTT_OK/GD32VW55X_Wifi_BLE_SDK/GD32VW55x_RELEASE_V1.0.2/MSDK/cloud/alicloud/src/protocol/alcs\alcs_localsetup.c **** #include "json_parser.h"
  10:C:/Users/stapi/OneDrive/Desktop/GD32VW553/V1_MQTT_OK/GD32VW55X_Wifi_BLE_SDK/GD32VW55x_RELEASE_V1.0.2/MSDK/cloud/alicloud/src/protocol/alcs\alcs_localsetup.c **** #include "iotx_utils.h"
  11:C:/Users/stapi/OneDrive/Desktop/GD32VW553/V1_MQTT_OK/GD32VW55X_Wifi_BLE_SDK/GD32VW55x_RELEASE_V1.0.2/MSDK/cloud/alicloud/src/protocol/alcs\alcs_localsetup.c **** #include "CoAPExport.h"
  12:C:/Users/stapi/OneDrive/Desktop/GD32VW553/V1_MQTT_OK/GD32VW55X_Wifi_BLE_SDK/GD32VW55x_RELEASE_V1.0.2/MSDK/cloud/alicloud/src/protocol/alcs\alcs_localsetup.c **** #include "alcs_api.h"
  13:C:/Users/stapi/OneDrive/Desktop/GD32VW553/V1_MQTT_OK/GD32VW55X_Wifi_BLE_SDK/GD32VW55x_RELEASE_V1.0.2/MSDK/cloud/alicloud/src/protocol/alcs\alcs_localsetup.c **** #include "alcs_mqtt.h"
  14:C:/Users/stapi/OneDrive/Desktop/GD32VW553/V1_MQTT_OK/GD32VW55X_Wifi_BLE_SDK/GD32VW55x_RELEASE_V1.0.2/MSDK/cloud/alicloud/src/protocol/alcs\alcs_localsetup.c **** #include "utils_md5.h"
  15:C:/Users/stapi/OneDrive/Desktop/GD32VW553/V1_MQTT_OK/GD32VW55X_Wifi_BLE_SDK/GD32VW55x_RELEASE_V1.0.2/MSDK/cloud/alicloud/src/protocol/alcs\alcs_localsetup.c **** #include "alcs_adapter.h"
  16:C:/Users/stapi/OneDrive/Desktop/GD32VW553/V1_MQTT_OK/GD32VW55X_Wifi_BLE_SDK/GD32VW55x_RELEASE_V1.0.2/MSDK/cloud/alicloud/src/protocol/alcs\alcs_localsetup.c **** #include "CoAPPlatform.h"
  17:C:/Users/stapi/OneDrive/Desktop/GD32VW553/V1_MQTT_OK/GD32VW55X_Wifi_BLE_SDK/GD32VW55x_RELEASE_V1.0.2/MSDK/cloud/alicloud/src/protocol/alcs\alcs_localsetup.c **** #include "CoAPExport.h"
  18:C:/Users/stapi/OneDrive/Desktop/GD32VW553/V1_MQTT_OK/GD32VW55X_Wifi_BLE_SDK/GD32VW55x_RELEASE_V1.0.2/MSDK/cloud/alicloud/src/protocol/alcs\alcs_localsetup.c **** #include "iotx_alcs.h"
  19:C:/Users/stapi/OneDrive/Desktop/GD32VW553/V1_MQTT_OK/GD32VW55X_Wifi_BLE_SDK/GD32VW55x_RELEASE_V1.0.2/MSDK/cloud/alicloud/src/protocol/alcs\alcs_localsetup.c **** 
  20:C:/Users/stapi/OneDrive/Desktop/GD32VW553/V1_MQTT_OK/GD32VW55X_Wifi_BLE_SDK/GD32VW55x_RELEASE_V1.0.2/MSDK/cloud/alicloud/src/protocol/alcs\alcs_localsetup.c **** char* DEFAULT_AC = "Xtau@iot";
  21:C:/Users/stapi/OneDrive/Desktop/GD32VW553/V1_MQTT_OK/GD32VW55X_Wifi_BLE_SDK/GD32VW55x_RELEASE_V1.0.2/MSDK/cloud/alicloud/src/protocol/alcs\alcs_localsetup.c **** char* DEFAULT_AS = "Yx3DdsyetbSezlvc";
  22:C:/Users/stapi/OneDrive/Desktop/GD32VW553/V1_MQTT_OK/GD32VW55X_Wifi_BLE_SDK/GD32VW55x_RELEASE_V1.0.2/MSDK/cloud/alicloud/src/protocol/alcs\alcs_localsetup.c **** void* g_adapter_handle = NULL;
  23:C:/Users/stapi/OneDrive/Desktop/GD32VW553/V1_MQTT_OK/GD32VW55X_Wifi_BLE_SDK/GD32VW55x_RELEASE_V1.0.2/MSDK/cloud/alicloud/src/protocol/alcs\alcs_localsetup.c **** void* g_coap_handle = NULL;
  24:C:/Users/stapi/OneDrive/Desktop/GD32VW553/V1_MQTT_OK/GD32VW55X_Wifi_BLE_SDK/GD32VW55x_RELEASE_V1.0.2/MSDK/cloud/alicloud/src/protocol/alcs\alcs_localsetup.c **** 
  25:C:/Users/stapi/OneDrive/Desktop/GD32VW553/V1_MQTT_OK/GD32VW55X_Wifi_BLE_SDK/GD32VW55x_RELEASE_V1.0.2/MSDK/cloud/alicloud/src/protocol/alcs\alcs_localsetup.c **** typedef enum {
  26:C:/Users/stapi/OneDrive/Desktop/GD32VW553/V1_MQTT_OK/GD32VW55X_Wifi_BLE_SDK/GD32VW55x_RELEASE_V1.0.2/MSDK/cloud/alicloud/src/protocol/alcs\alcs_localsetup.c ****     ALCS_LOCALSETUP_SUCCESS,
  27:C:/Users/stapi/OneDrive/Desktop/GD32VW553/V1_MQTT_OK/GD32VW55X_Wifi_BLE_SDK/GD32VW55x_RELEASE_V1.0.2/MSDK/cloud/alicloud/src/protocol/alcs\alcs_localsetup.c ****     ALCS_LOCALSETUP_ERROR
  28:C:/Users/stapi/OneDrive/Desktop/GD32VW553/V1_MQTT_OK/GD32VW55X_Wifi_BLE_SDK/GD32VW55x_RELEASE_V1.0.2/MSDK/cloud/alicloud/src/protocol/alcs\alcs_localsetup.c **** } localsetup_status;
  29:C:/Users/stapi/OneDrive/Desktop/GD32VW553/V1_MQTT_OK/GD32VW55X_Wifi_BLE_SDK/GD32VW55x_RELEASE_V1.0.2/MSDK/cloud/alicloud/src/protocol/alcs\alcs_localsetup.c **** 
  30:C:/Users/stapi/OneDrive/Desktop/GD32VW553/V1_MQTT_OK/GD32VW55X_Wifi_BLE_SDK/GD32VW55x_RELEASE_V1.0.2/MSDK/cloud/alicloud/src/protocol/alcs\alcs_localsetup.c **** static localsetup_status __alcs_localsetup_kv_set(const char *key, const void *val, int len, int sy
  31:C:/Users/stapi/OneDrive/Desktop/GD32VW553/V1_MQTT_OK/GD32VW55X_Wifi_BLE_SDK/GD32VW55x_RELEASE_V1.0.2/MSDK/cloud/alicloud/src/protocol/alcs\alcs_localsetup.c **** {
  32:C:/Users/stapi/OneDrive/Desktop/GD32VW553/V1_MQTT_OK/GD32VW55X_Wifi_BLE_SDK/GD32VW55x_RELEASE_V1.0.2/MSDK/cloud/alicloud/src/protocol/alcs\alcs_localsetup.c ****     if (HAL_Kv_Set(key, val, len, sync) != 0) {
  33:C:/Users/stapi/OneDrive/Desktop/GD32VW553/V1_MQTT_OK/GD32VW55X_Wifi_BLE_SDK/GD32VW55x_RELEASE_V1.0.2/MSDK/cloud/alicloud/src/protocol/alcs\alcs_localsetup.c ****         return ALCS_LOCALSETUP_ERROR;
  34:C:/Users/stapi/OneDrive/Desktop/GD32VW553/V1_MQTT_OK/GD32VW55X_Wifi_BLE_SDK/GD32VW55x_RELEASE_V1.0.2/MSDK/cloud/alicloud/src/protocol/alcs\alcs_localsetup.c ****     }
  35:C:/Users/stapi/OneDrive/Desktop/GD32VW553/V1_MQTT_OK/GD32VW55X_Wifi_BLE_SDK/GD32VW55x_RELEASE_V1.0.2/MSDK/cloud/alicloud/src/protocol/alcs\alcs_localsetup.c **** 
  36:C:/Users/stapi/OneDrive/Desktop/GD32VW553/V1_MQTT_OK/GD32VW55X_Wifi_BLE_SDK/GD32VW55x_RELEASE_V1.0.2/MSDK/cloud/alicloud/src/protocol/alcs\alcs_localsetup.c ****     COAP_INFO("ALCS KV Set, Key: %s, Val: %s, Len: %d", key, val, len);
  37:C:/Users/stapi/OneDrive/Desktop/GD32VW553/V1_MQTT_OK/GD32VW55X_Wifi_BLE_SDK/GD32VW55x_RELEASE_V1.0.2/MSDK/cloud/alicloud/src/protocol/alcs\alcs_localsetup.c ****     return ALCS_LOCALSETUP_SUCCESS;
  38:C:/Users/stapi/OneDrive/Desktop/GD32VW553/V1_MQTT_OK/GD32VW55X_Wifi_BLE_SDK/GD32VW55x_RELEASE_V1.0.2/MSDK/cloud/alicloud/src/protocol/alcs\alcs_localsetup.c **** }
  39:C:/Users/stapi/OneDrive/Desktop/GD32VW553/V1_MQTT_OK/GD32VW55X_Wifi_BLE_SDK/GD32VW55x_RELEASE_V1.0.2/MSDK/cloud/alicloud/src/protocol/alcs\alcs_localsetup.c **** 
  40:C:/Users/stapi/OneDrive/Desktop/GD32VW553/V1_MQTT_OK/GD32VW55X_Wifi_BLE_SDK/GD32VW55x_RELEASE_V1.0.2/MSDK/cloud/alicloud/src/protocol/alcs\alcs_localsetup.c **** static localsetup_status __alcs_localsetup_kv_get(const char *key, void *buffer, int *buffer_len)
  41:C:/Users/stapi/OneDrive/Desktop/GD32VW553/V1_MQTT_OK/GD32VW55X_Wifi_BLE_SDK/GD32VW55x_RELEASE_V1.0.2/MSDK/cloud/alicloud/src/protocol/alcs\alcs_localsetup.c **** {
  42:C:/Users/stapi/OneDrive/Desktop/GD32VW553/V1_MQTT_OK/GD32VW55X_Wifi_BLE_SDK/GD32VW55x_RELEASE_V1.0.2/MSDK/cloud/alicloud/src/protocol/alcs\alcs_localsetup.c ****     int     rc = -1;
  43:C:/Users/stapi/OneDrive/Desktop/GD32VW553/V1_MQTT_OK/GD32VW55X_Wifi_BLE_SDK/GD32VW55x_RELEASE_V1.0.2/MSDK/cloud/alicloud/src/protocol/alcs\alcs_localsetup.c **** 
  44:C:/Users/stapi/OneDrive/Desktop/GD32VW553/V1_MQTT_OK/GD32VW55X_Wifi_BLE_SDK/GD32VW55x_RELEASE_V1.0.2/MSDK/cloud/alicloud/src/protocol/alcs\alcs_localsetup.c ****     if ((rc = HAL_Kv_Get(key, buffer, buffer_len)) != 0) {
  45:C:/Users/stapi/OneDrive/Desktop/GD32VW553/V1_MQTT_OK/GD32VW55X_Wifi_BLE_SDK/GD32VW55x_RELEASE_V1.0.2/MSDK/cloud/alicloud/src/protocol/alcs\alcs_localsetup.c ****         COAP_WRN("HAL_Kv_Get('%s') = %d (!= 0), return %d", key, rc, ALCS_LOCALSETUP_ERROR);
  46:C:/Users/stapi/OneDrive/Desktop/GD32VW553/V1_MQTT_OK/GD32VW55X_Wifi_BLE_SDK/GD32VW55x_RELEASE_V1.0.2/MSDK/cloud/alicloud/src/protocol/alcs\alcs_localsetup.c ****         return ALCS_LOCALSETUP_ERROR;
  47:C:/Users/stapi/OneDrive/Desktop/GD32VW553/V1_MQTT_OK/GD32VW55X_Wifi_BLE_SDK/GD32VW55x_RELEASE_V1.0.2/MSDK/cloud/alicloud/src/protocol/alcs\alcs_localsetup.c ****     }
  48:C:/Users/stapi/OneDrive/Desktop/GD32VW553/V1_MQTT_OK/GD32VW55X_Wifi_BLE_SDK/GD32VW55x_RELEASE_V1.0.2/MSDK/cloud/alicloud/src/protocol/alcs\alcs_localsetup.c **** 
  49:C:/Users/stapi/OneDrive/Desktop/GD32VW553/V1_MQTT_OK/GD32VW55X_Wifi_BLE_SDK/GD32VW55x_RELEASE_V1.0.2/MSDK/cloud/alicloud/src/protocol/alcs\alcs_localsetup.c ****     COAP_INFO("ALCS KV Get, Key: %s", key);
  50:C:/Users/stapi/OneDrive/Desktop/GD32VW553/V1_MQTT_OK/GD32VW55X_Wifi_BLE_SDK/GD32VW55x_RELEASE_V1.0.2/MSDK/cloud/alicloud/src/protocol/alcs\alcs_localsetup.c **** 
  51:C:/Users/stapi/OneDrive/Desktop/GD32VW553/V1_MQTT_OK/GD32VW55X_Wifi_BLE_SDK/GD32VW55x_RELEASE_V1.0.2/MSDK/cloud/alicloud/src/protocol/alcs\alcs_localsetup.c ****     return ALCS_LOCALSETUP_SUCCESS;
  52:C:/Users/stapi/OneDrive/Desktop/GD32VW553/V1_MQTT_OK/GD32VW55X_Wifi_BLE_SDK/GD32VW55x_RELEASE_V1.0.2/MSDK/cloud/alicloud/src/protocol/alcs\alcs_localsetup.c **** }
  53:C:/Users/stapi/OneDrive/Desktop/GD32VW553/V1_MQTT_OK/GD32VW55X_Wifi_BLE_SDK/GD32VW55x_RELEASE_V1.0.2/MSDK/cloud/alicloud/src/protocol/alcs\alcs_localsetup.c **** 
  54:C:/Users/stapi/OneDrive/Desktop/GD32VW553/V1_MQTT_OK/GD32VW55X_Wifi_BLE_SDK/GD32VW55x_RELEASE_V1.0.2/MSDK/cloud/alicloud/src/protocol/alcs\alcs_localsetup.c **** static localsetup_status __alcs_localsetup_kv_del(const char *key)
  55:C:/Users/stapi/OneDrive/Desktop/GD32VW553/V1_MQTT_OK/GD32VW55X_Wifi_BLE_SDK/GD32VW55x_RELEASE_V1.0.2/MSDK/cloud/alicloud/src/protocol/alcs\alcs_localsetup.c **** {
  56:C:/Users/stapi/OneDrive/Desktop/GD32VW553/V1_MQTT_OK/GD32VW55X_Wifi_BLE_SDK/GD32VW55x_RELEASE_V1.0.2/MSDK/cloud/alicloud/src/protocol/alcs\alcs_localsetup.c ****     if (HAL_Kv_Del(key) != 0) {
  57:C:/Users/stapi/OneDrive/Desktop/GD32VW553/V1_MQTT_OK/GD32VW55X_Wifi_BLE_SDK/GD32VW55x_RELEASE_V1.0.2/MSDK/cloud/alicloud/src/protocol/alcs\alcs_localsetup.c ****         return ALCS_LOCALSETUP_ERROR;
  58:C:/Users/stapi/OneDrive/Desktop/GD32VW553/V1_MQTT_OK/GD32VW55X_Wifi_BLE_SDK/GD32VW55x_RELEASE_V1.0.2/MSDK/cloud/alicloud/src/protocol/alcs\alcs_localsetup.c ****     }
  59:C:/Users/stapi/OneDrive/Desktop/GD32VW553/V1_MQTT_OK/GD32VW55X_Wifi_BLE_SDK/GD32VW55x_RELEASE_V1.0.2/MSDK/cloud/alicloud/src/protocol/alcs\alcs_localsetup.c **** 
  60:C:/Users/stapi/OneDrive/Desktop/GD32VW553/V1_MQTT_OK/GD32VW55X_Wifi_BLE_SDK/GD32VW55x_RELEASE_V1.0.2/MSDK/cloud/alicloud/src/protocol/alcs\alcs_localsetup.c ****     COAP_INFO("ALCS KV Del, Key: %s", key);
  61:C:/Users/stapi/OneDrive/Desktop/GD32VW553/V1_MQTT_OK/GD32VW55X_Wifi_BLE_SDK/GD32VW55x_RELEASE_V1.0.2/MSDK/cloud/alicloud/src/protocol/alcs\alcs_localsetup.c **** 
  62:C:/Users/stapi/OneDrive/Desktop/GD32VW553/V1_MQTT_OK/GD32VW55X_Wifi_BLE_SDK/GD32VW55x_RELEASE_V1.0.2/MSDK/cloud/alicloud/src/protocol/alcs\alcs_localsetup.c ****     return ALCS_LOCALSETUP_SUCCESS;
  63:C:/Users/stapi/OneDrive/Desktop/GD32VW553/V1_MQTT_OK/GD32VW55X_Wifi_BLE_SDK/GD32VW55x_RELEASE_V1.0.2/MSDK/cloud/alicloud/src/protocol/alcs\alcs_localsetup.c **** }
  64:C:/Users/stapi/OneDrive/Desktop/GD32VW553/V1_MQTT_OK/GD32VW55X_Wifi_BLE_SDK/GD32VW55x_RELEASE_V1.0.2/MSDK/cloud/alicloud/src/protocol/alcs\alcs_localsetup.c **** 
  65:C:/Users/stapi/OneDrive/Desktop/GD32VW553/V1_MQTT_OK/GD32VW55X_Wifi_BLE_SDK/GD32VW55x_RELEASE_V1.0.2/MSDK/cloud/alicloud/src/protocol/alcs\alcs_localsetup.c **** static localsetup_status __fill_key (const char *pk, uint16_t pk_len,
  66:C:/Users/stapi/OneDrive/Desktop/GD32VW553/V1_MQTT_OK/GD32VW55X_Wifi_BLE_SDK/GD32VW55x_RELEASE_V1.0.2/MSDK/cloud/alicloud/src/protocol/alcs\alcs_localsetup.c ****         const char *dn, uint16_t dn_len, char key_md5_hexstr[33])
  67:C:/Users/stapi/OneDrive/Desktop/GD32VW553/V1_MQTT_OK/GD32VW55X_Wifi_BLE_SDK/GD32VW55x_RELEASE_V1.0.2/MSDK/cloud/alicloud/src/protocol/alcs\alcs_localsetup.c **** {
  28              		.loc 1 67 1
  29              		.cfi_startproc
  30              	.LVL0:
  31 0000 17030000 		call	t0,__riscv_save_3
  31      E7020300 
  32              		.cfi_offset 18, -16
  33              		.cfi_offset 9, -12
  34              		.cfi_offset 8, -8
  35              		.cfi_offset 1, -4
  36              		.cfi_def_cfa_offset 16
  68:C:/Users/stapi/OneDrive/Desktop/GD32VW553/V1_MQTT_OK/GD32VW55X_Wifi_BLE_SDK/GD32VW55x_RELEASE_V1.0.2/MSDK/cloud/alicloud/src/protocol/alcs\alcs_localsetup.c ****     uint8_t key_md5[16] = {0};
  37              		.loc 1 68 5
  67:C:/Users/stapi/OneDrive/Desktop/GD32VW553/V1_MQTT_OK/GD32VW55X_Wifi_BLE_SDK/GD32VW55x_RELEASE_V1.0.2/MSDK/cloud/alicloud/src/protocol/alcs\alcs_localsetup.c ****     uint8_t key_md5[16] = {0};
  38              		.loc 1 67 1 is_stmt 0
  39 0008 1D71     		addi	sp,sp,-96
  40              		.cfi_def_cfa_offset 112
  67:C:/Users/stapi/OneDrive/Desktop/GD32VW553/V1_MQTT_OK/GD32VW55X_Wifi_BLE_SDK/GD32VW55x_RELEASE_V1.0.2/MSDK/cloud/alicloud/src/protocol/alcs\alcs_localsetup.c ****     uint8_t key_md5[16] = {0};
  41              		.loc 1 67 1
  42 000a AA84     		mv	s1,a0
  43 000c 2E84     		mv	s0,a1
  44 000e 32C6     		sw	a2,12(sp)
  69:C:/Users/stapi/OneDrive/Desktop/GD32VW553/V1_MQTT_OK/GD32VW55X_Wifi_BLE_SDK/GD32VW55x_RELEASE_V1.0.2/MSDK/cloud/alicloud/src/protocol/alcs\alcs_localsetup.c ****     char key_source[PRODUCT_KEY_MAXLEN + DEVICE_NAME_MAXLEN + 3] = {0};
  45              		.loc 1 69 10
  46 0010 8145     		li	a1,0
  47              	.LVL1:
  48 0012 13065003 		li	a2,53
  49              	.LVL2:
  50 0016 2810     		addi	a0,sp,40
  51              	.LVL3:
  67:C:/Users/stapi/OneDrive/Desktop/GD32VW553/V1_MQTT_OK/GD32VW55X_Wifi_BLE_SDK/GD32VW55x_RELEASE_V1.0.2/MSDK/cloud/alicloud/src/protocol/alcs\alcs_localsetup.c ****     uint8_t key_md5[16] = {0};
  52              		.loc 1 67 1
  53 0018 36C4     		sw	a3,8(sp)
  54 001a 3A89     		mv	s2,a4
  68:C:/Users/stapi/OneDrive/Desktop/GD32VW553/V1_MQTT_OK/GD32VW55X_Wifi_BLE_SDK/GD32VW55x_RELEASE_V1.0.2/MSDK/cloud/alicloud/src/protocol/alcs\alcs_localsetup.c ****     uint8_t key_md5[16] = {0};
  55              		.loc 1 68 13
  56 001c 02CA     		sw	zero,20(sp)
  57 001e 02CC     		sw	zero,24(sp)
  58 0020 02CE     		sw	zero,28(sp)
  59 0022 02D0     		sw	zero,32(sp)
  60              		.loc 1 69 5 is_stmt 1
  61              		.loc 1 69 10 is_stmt 0
  62 0024 02D2     		sw	zero,36(sp)
  63 0026 97000000 		call	memset
  63      E7800000 
  64              	.LVL4:
  70:C:/Users/stapi/OneDrive/Desktop/GD32VW553/V1_MQTT_OK/GD32VW55X_Wifi_BLE_SDK/GD32VW55x_RELEASE_V1.0.2/MSDK/cloud/alicloud/src/protocol/alcs\alcs_localsetup.c **** 
  71:C:/Users/stapi/OneDrive/Desktop/GD32VW553/V1_MQTT_OK/GD32VW55X_Wifi_BLE_SDK/GD32VW55x_RELEASE_V1.0.2/MSDK/cloud/alicloud/src/protocol/alcs\alcs_localsetup.c ****     if (pk == NULL || pk_len >= PRODUCT_KEY_MAXLEN ||
  65              		.loc 1 71 5 is_stmt 1
  66              		.loc 1 71 8 is_stmt 0
  67 002e 81CC     		beq	s1,zero,.L2
  68              		.loc 1 71 20 discriminator 1
  69 0030 5147     		li	a4,20
  70 0032 636A8700 		bgtu	s0,a4,.L2
  71              		.loc 1 71 52 discriminator 2
  72 0036 3248     		lw	a6,12(sp)
  73 0038 63070800 		beq	a6,zero,.L2
  72:C:/Users/stapi/OneDrive/Desktop/GD32VW553/V1_MQTT_OK/GD32VW55X_Wifi_BLE_SDK/GD32VW55x_RELEASE_V1.0.2/MSDK/cloud/alicloud/src/protocol/alcs\alcs_localsetup.c ****         dn == NULL || dn_len >= DEVICE_NAME_MAXLEN)
  74              		.loc 1 72 20
  75 003c A247     		lw	a5,8(sp)
  76 003e 13070002 		li	a4,32
  77 0042 6370F704 		bleu	a5,a4,.L3
  78              	.L2:
  73:C:/Users/stapi/OneDrive/Desktop/GD32VW553/V1_MQTT_OK/GD32VW55X_Wifi_BLE_SDK/GD32VW55x_RELEASE_V1.0.2/MSDK/cloud/alicloud/src/protocol/alcs\alcs_localsetup.c ****     {
  74:C:/Users/stapi/OneDrive/Desktop/GD32VW553/V1_MQTT_OK/GD32VW55X_Wifi_BLE_SDK/GD32VW55x_RELEASE_V1.0.2/MSDK/cloud/alicloud/src/protocol/alcs\alcs_localsetup.c ****         COAP_ERR("Invalid Parameter");
  79              		.loc 1 74 9 is_stmt 1
  80              		.loc 1 74 9
  81 0046 37050000 		lui	a0,%hi(.LC0)
  82 004a 13050500 		addi	a0,a0,%lo(.LC0)
  83 004e 97000000 		call	HAL_Printf
  83      E7800000 
  84              	.LVL5:
  85              		.loc 1 74 9
  86 0056 37050000 		lui	a0,%hi(.LC1)
  87 005a 13050500 		addi	a0,a0,%lo(.LC1)
  88 005e 97000000 		call	HAL_Printf
  88      E7800000 
  89              	.LVL6:
  90              		.loc 1 74 9
  91 0066 37050000 		lui	a0,%hi(.LC2)
  92 006a 13050500 		addi	a0,a0,%lo(.LC2)
  93 006e 97000000 		call	HAL_Printf
  93      E7800000 
  94              	.LVL7:
  95              		.loc 1 74 9
  75:C:/Users/stapi/OneDrive/Desktop/GD32VW553/V1_MQTT_OK/GD32VW55X_Wifi_BLE_SDK/GD32VW55x_RELEASE_V1.0.2/MSDK/cloud/alicloud/src/protocol/alcs\alcs_localsetup.c ****         return ALCS_LOCALSETUP_ERROR;
  96              		.loc 1 75 9
  97              		.loc 1 75 16 is_stmt 0
  98 0076 0545     		li	a0,1
  99              	.L1:
  76:C:/Users/stapi/OneDrive/Desktop/GD32VW553/V1_MQTT_OK/GD32VW55X_Wifi_BLE_SDK/GD32VW55x_RELEASE_V1.0.2/MSDK/cloud/alicloud/src/protocol/alcs\alcs_localsetup.c ****     }
  77:C:/Users/stapi/OneDrive/Desktop/GD32VW553/V1_MQTT_OK/GD32VW55X_Wifi_BLE_SDK/GD32VW55x_RELEASE_V1.0.2/MSDK/cloud/alicloud/src/protocol/alcs\alcs_localsetup.c ****     
  78:C:/Users/stapi/OneDrive/Desktop/GD32VW553/V1_MQTT_OK/GD32VW55X_Wifi_BLE_SDK/GD32VW55x_RELEASE_V1.0.2/MSDK/cloud/alicloud/src/protocol/alcs\alcs_localsetup.c ****     HAL_Snprintf(key_source, pk_len + dn_len + 1, "%.*s%.*s", pk_len, pk, dn_len, dn);
  79:C:/Users/stapi/OneDrive/Desktop/GD32VW553/V1_MQTT_OK/GD32VW55X_Wifi_BLE_SDK/GD32VW55x_RELEASE_V1.0.2/MSDK/cloud/alicloud/src/protocol/alcs\alcs_localsetup.c **** 
  80:C:/Users/stapi/OneDrive/Desktop/GD32VW553/V1_MQTT_OK/GD32VW55X_Wifi_BLE_SDK/GD32VW55x_RELEASE_V1.0.2/MSDK/cloud/alicloud/src/protocol/alcs\alcs_localsetup.c ****     utils_md5((const unsigned char *)key_source, strlen(key_source), key_md5);
  81:C:/Users/stapi/OneDrive/Desktop/GD32VW553/V1_MQTT_OK/GD32VW55X_Wifi_BLE_SDK/GD32VW55x_RELEASE_V1.0.2/MSDK/cloud/alicloud/src/protocol/alcs\alcs_localsetup.c ****     utils_md5_hexstr(key_md5, (unsigned char *)key_md5_hexstr);
  82:C:/Users/stapi/OneDrive/Desktop/GD32VW553/V1_MQTT_OK/GD32VW55X_Wifi_BLE_SDK/GD32VW55x_RELEASE_V1.0.2/MSDK/cloud/alicloud/src/protocol/alcs\alcs_localsetup.c **** 
  83:C:/Users/stapi/OneDrive/Desktop/GD32VW553/V1_MQTT_OK/GD32VW55X_Wifi_BLE_SDK/GD32VW55x_RELEASE_V1.0.2/MSDK/cloud/alicloud/src/protocol/alcs\alcs_localsetup.c ****     return ALCS_LOCALSETUP_SUCCESS;
  84:C:/Users/stapi/OneDrive/Desktop/GD32VW553/V1_MQTT_OK/GD32VW55X_Wifi_BLE_SDK/GD32VW55x_RELEASE_V1.0.2/MSDK/cloud/alicloud/src/protocol/alcs\alcs_localsetup.c **** }
 100              		.loc 1 84 1
 101 0078 2561     		addi	sp,sp,96
 102              		.cfi_remember_state
 103              		.cfi_def_cfa_offset 0
 104              	.LVL8:
 105 007a 17030000 		tail	__riscv_restore_3
 105      67000300 
 106              		.cfi_restore 18
 107              		.cfi_restore 9
 108              		.cfi_restore 8
 109              		.cfi_restore 1
 110              		.cfi_def_cfa_offset -16
 111              	.LVL9:
 112              	.L3:
 113              		.cfi_restore_state
  78:C:/Users/stapi/OneDrive/Desktop/GD32VW553/V1_MQTT_OK/GD32VW55X_Wifi_BLE_SDK/GD32VW55x_RELEASE_V1.0.2/MSDK/cloud/alicloud/src/protocol/alcs\alcs_localsetup.c **** 
 114              		.loc 1 78 5 is_stmt 1
  78:C:/Users/stapi/OneDrive/Desktop/GD32VW553/V1_MQTT_OK/GD32VW55X_Wifi_BLE_SDK/GD32VW55x_RELEASE_V1.0.2/MSDK/cloud/alicloud/src/protocol/alcs\alcs_localsetup.c **** 
 115              		.loc 1 78 37 is_stmt 0
 116 0082 B305F400 		add	a1,s0,a5
  78:C:/Users/stapi/OneDrive/Desktop/GD32VW553/V1_MQTT_OK/GD32VW55X_Wifi_BLE_SDK/GD32VW55x_RELEASE_V1.0.2/MSDK/cloud/alicloud/src/protocol/alcs\alcs_localsetup.c **** 
 117              		.loc 1 78 5
 118 0086 37060000 		lui	a2,%hi(.LC3)
 119 008a 2687     		mv	a4,s1
 120 008c A286     		mv	a3,s0
 121 008e 13060600 		addi	a2,a2,%lo(.LC3)
 122 0092 8505     		addi	a1,a1,1
 123 0094 4810     		addi	a0,sp,36
 124 0096 97000000 		call	HAL_Snprintf
 124      E7800000 
 125              	.LVL10:
  80:C:/Users/stapi/OneDrive/Desktop/GD32VW553/V1_MQTT_OK/GD32VW55X_Wifi_BLE_SDK/GD32VW55x_RELEASE_V1.0.2/MSDK/cloud/alicloud/src/protocol/alcs\alcs_localsetup.c ****     utils_md5_hexstr(key_md5, (unsigned char *)key_md5_hexstr);
 126              		.loc 1 80 5 is_stmt 1
 127 009e 4810     		addi	a0,sp,36
 128 00a0 97000000 		call	strlen
 128      E7800000 
 129              	.LVL11:
 130 00a8 AA85     		mv	a1,a0
 131 00aa 5008     		addi	a2,sp,20
 132 00ac 4810     		addi	a0,sp,36
 133 00ae 97000000 		call	utils_md5
 133      E7800000 
 134              	.LVL12:
  81:C:/Users/stapi/OneDrive/Desktop/GD32VW553/V1_MQTT_OK/GD32VW55X_Wifi_BLE_SDK/GD32VW55x_RELEASE_V1.0.2/MSDK/cloud/alicloud/src/protocol/alcs\alcs_localsetup.c **** 
 135              		.loc 1 81 5
 136 00b6 4808     		addi	a0,sp,20
 137 00b8 CA85     		mv	a1,s2
 138 00ba 97000000 		call	utils_md5_hexstr
 138      E7800000 
 139              	.LVL13:
  83:C:/Users/stapi/OneDrive/Desktop/GD32VW553/V1_MQTT_OK/GD32VW55X_Wifi_BLE_SDK/GD32VW55x_RELEASE_V1.0.2/MSDK/cloud/alicloud/src/protocol/alcs\alcs_localsetup.c **** }
 140              		.loc 1 83 5
  83:C:/Users/stapi/OneDrive/Desktop/GD32VW553/V1_MQTT_OK/GD32VW55X_Wifi_BLE_SDK/GD32VW55x_RELEASE_V1.0.2/MSDK/cloud/alicloud/src/protocol/alcs\alcs_localsetup.c **** }
 141              		.loc 1 83 12 is_stmt 0
 142 00c2 0145     		li	a0,0
 143 00c4 55BF     		j	.L1
 144              		.cfi_endproc
 145              	.LFE23:
 147              		.section	.rodata.alcs_localsetup_register_resource.str1.4,"aMS",@progbits,1
 148              		.align	2
 149              	.LC4:
 150 0000 2F646576 		.string	"/dev/%s/%s/core/service/setup"
 150      2F25732F 
 150      25732F63 
 150      6F72652F 
 150      73657276 
 151              		.section	.text.alcs_localsetup_register_resource,"ax",@progbits
 152              		.align	1
 154              	alcs_localsetup_register_resource:
 155              	.LFB28:
  85:C:/Users/stapi/OneDrive/Desktop/GD32VW553/V1_MQTT_OK/GD32VW55X_Wifi_BLE_SDK/GD32VW55x_RELEASE_V1.0.2/MSDK/cloud/alicloud/src/protocol/alcs\alcs_localsetup.c **** 
  86:C:/Users/stapi/OneDrive/Desktop/GD32VW553/V1_MQTT_OK/GD32VW55X_Wifi_BLE_SDK/GD32VW55x_RELEASE_V1.0.2/MSDK/cloud/alicloud/src/protocol/alcs\alcs_localsetup.c **** static localsetup_status __alcs_localsetup_ac_as_save(const char *pk, uint16_t pk_len,
  87:C:/Users/stapi/OneDrive/Desktop/GD32VW553/V1_MQTT_OK/GD32VW55X_Wifi_BLE_SDK/GD32VW55x_RELEASE_V1.0.2/MSDK/cloud/alicloud/src/protocol/alcs\alcs_localsetup.c ****         const char *dn, uint16_t dn_len,
  88:C:/Users/stapi/OneDrive/Desktop/GD32VW553/V1_MQTT_OK/GD32VW55X_Wifi_BLE_SDK/GD32VW55x_RELEASE_V1.0.2/MSDK/cloud/alicloud/src/protocol/alcs\alcs_localsetup.c ****         const char *prefix, uint16_t prefix_len,
  89:C:/Users/stapi/OneDrive/Desktop/GD32VW553/V1_MQTT_OK/GD32VW55X_Wifi_BLE_SDK/GD32VW55x_RELEASE_V1.0.2/MSDK/cloud/alicloud/src/protocol/alcs\alcs_localsetup.c ****         const char *secret, uint16_t secret_len)
  90:C:/Users/stapi/OneDrive/Desktop/GD32VW553/V1_MQTT_OK/GD32VW55X_Wifi_BLE_SDK/GD32VW55x_RELEASE_V1.0.2/MSDK/cloud/alicloud/src/protocol/alcs\alcs_localsetup.c **** {
  91:C:/Users/stapi/OneDrive/Desktop/GD32VW553/V1_MQTT_OK/GD32VW55X_Wifi_BLE_SDK/GD32VW55x_RELEASE_V1.0.2/MSDK/cloud/alicloud/src/protocol/alcs\alcs_localsetup.c ****     char key_md5_hexstr[33] = {0};
  92:C:/Users/stapi/OneDrive/Desktop/GD32VW553/V1_MQTT_OK/GD32VW55X_Wifi_BLE_SDK/GD32VW55x_RELEASE_V1.0.2/MSDK/cloud/alicloud/src/protocol/alcs\alcs_localsetup.c ****     char *value = NULL;
  93:C:/Users/stapi/OneDrive/Desktop/GD32VW553/V1_MQTT_OK/GD32VW55X_Wifi_BLE_SDK/GD32VW55x_RELEASE_V1.0.2/MSDK/cloud/alicloud/src/protocol/alcs\alcs_localsetup.c ****     int rt;
  94:C:/Users/stapi/OneDrive/Desktop/GD32VW553/V1_MQTT_OK/GD32VW55X_Wifi_BLE_SDK/GD32VW55x_RELEASE_V1.0.2/MSDK/cloud/alicloud/src/protocol/alcs\alcs_localsetup.c ****     if (prefix == NULL || secret == NULL) {
  95:C:/Users/stapi/OneDrive/Desktop/GD32VW553/V1_MQTT_OK/GD32VW55X_Wifi_BLE_SDK/GD32VW55x_RELEASE_V1.0.2/MSDK/cloud/alicloud/src/protocol/alcs\alcs_localsetup.c ****         COAP_ERR("Invalid Parameter");
  96:C:/Users/stapi/OneDrive/Desktop/GD32VW553/V1_MQTT_OK/GD32VW55X_Wifi_BLE_SDK/GD32VW55x_RELEASE_V1.0.2/MSDK/cloud/alicloud/src/protocol/alcs\alcs_localsetup.c ****         return ALCS_LOCALSETUP_ERROR;
  97:C:/Users/stapi/OneDrive/Desktop/GD32VW553/V1_MQTT_OK/GD32VW55X_Wifi_BLE_SDK/GD32VW55x_RELEASE_V1.0.2/MSDK/cloud/alicloud/src/protocol/alcs\alcs_localsetup.c ****     }
  98:C:/Users/stapi/OneDrive/Desktop/GD32VW553/V1_MQTT_OK/GD32VW55X_Wifi_BLE_SDK/GD32VW55x_RELEASE_V1.0.2/MSDK/cloud/alicloud/src/protocol/alcs\alcs_localsetup.c **** 
  99:C:/Users/stapi/OneDrive/Desktop/GD32VW553/V1_MQTT_OK/GD32VW55X_Wifi_BLE_SDK/GD32VW55x_RELEASE_V1.0.2/MSDK/cloud/alicloud/src/protocol/alcs\alcs_localsetup.c ****     rt = __fill_key(pk, pk_len, dn, dn_len, key_md5_hexstr);
 100:C:/Users/stapi/OneDrive/Desktop/GD32VW553/V1_MQTT_OK/GD32VW55X_Wifi_BLE_SDK/GD32VW55x_RELEASE_V1.0.2/MSDK/cloud/alicloud/src/protocol/alcs\alcs_localsetup.c ****     if (rt != ALCS_LOCALSETUP_SUCCESS) {
 101:C:/Users/stapi/OneDrive/Desktop/GD32VW553/V1_MQTT_OK/GD32VW55X_Wifi_BLE_SDK/GD32VW55x_RELEASE_V1.0.2/MSDK/cloud/alicloud/src/protocol/alcs\alcs_localsetup.c ****         return rt;
 102:C:/Users/stapi/OneDrive/Desktop/GD32VW553/V1_MQTT_OK/GD32VW55X_Wifi_BLE_SDK/GD32VW55x_RELEASE_V1.0.2/MSDK/cloud/alicloud/src/protocol/alcs\alcs_localsetup.c ****     }
 103:C:/Users/stapi/OneDrive/Desktop/GD32VW553/V1_MQTT_OK/GD32VW55X_Wifi_BLE_SDK/GD32VW55x_RELEASE_V1.0.2/MSDK/cloud/alicloud/src/protocol/alcs\alcs_localsetup.c **** 
 104:C:/Users/stapi/OneDrive/Desktop/GD32VW553/V1_MQTT_OK/GD32VW55X_Wifi_BLE_SDK/GD32VW55x_RELEASE_V1.0.2/MSDK/cloud/alicloud/src/protocol/alcs\alcs_localsetup.c ****     //Calculate Value
 105:C:/Users/stapi/OneDrive/Desktop/GD32VW553/V1_MQTT_OK/GD32VW55X_Wifi_BLE_SDK/GD32VW55x_RELEASE_V1.0.2/MSDK/cloud/alicloud/src/protocol/alcs\alcs_localsetup.c ****     value = ALCS_ADAPTER_malloc(prefix_len + secret_len + 3);
 106:C:/Users/stapi/OneDrive/Desktop/GD32VW553/V1_MQTT_OK/GD32VW55X_Wifi_BLE_SDK/GD32VW55x_RELEASE_V1.0.2/MSDK/cloud/alicloud/src/protocol/alcs\alcs_localsetup.c ****     if (value == NULL) {
 107:C:/Users/stapi/OneDrive/Desktop/GD32VW553/V1_MQTT_OK/GD32VW55X_Wifi_BLE_SDK/GD32VW55x_RELEASE_V1.0.2/MSDK/cloud/alicloud/src/protocol/alcs\alcs_localsetup.c ****         COAP_ERR("No Enough Memory");
 108:C:/Users/stapi/OneDrive/Desktop/GD32VW553/V1_MQTT_OK/GD32VW55X_Wifi_BLE_SDK/GD32VW55x_RELEASE_V1.0.2/MSDK/cloud/alicloud/src/protocol/alcs\alcs_localsetup.c ****         return ALCS_LOCALSETUP_ERROR;
 109:C:/Users/stapi/OneDrive/Desktop/GD32VW553/V1_MQTT_OK/GD32VW55X_Wifi_BLE_SDK/GD32VW55x_RELEASE_V1.0.2/MSDK/cloud/alicloud/src/protocol/alcs\alcs_localsetup.c ****     }
 110:C:/Users/stapi/OneDrive/Desktop/GD32VW553/V1_MQTT_OK/GD32VW55X_Wifi_BLE_SDK/GD32VW55x_RELEASE_V1.0.2/MSDK/cloud/alicloud/src/protocol/alcs\alcs_localsetup.c ****     memset(value, 0, prefix_len + secret_len + 3);
 111:C:/Users/stapi/OneDrive/Desktop/GD32VW553/V1_MQTT_OK/GD32VW55X_Wifi_BLE_SDK/GD32VW55x_RELEASE_V1.0.2/MSDK/cloud/alicloud/src/protocol/alcs\alcs_localsetup.c **** 
 112:C:/Users/stapi/OneDrive/Desktop/GD32VW553/V1_MQTT_OK/GD32VW55X_Wifi_BLE_SDK/GD32VW55x_RELEASE_V1.0.2/MSDK/cloud/alicloud/src/protocol/alcs\alcs_localsetup.c ****     value[0] = prefix_len;
 113:C:/Users/stapi/OneDrive/Desktop/GD32VW553/V1_MQTT_OK/GD32VW55X_Wifi_BLE_SDK/GD32VW55x_RELEASE_V1.0.2/MSDK/cloud/alicloud/src/protocol/alcs\alcs_localsetup.c ****     value[1] = secret_len;
 114:C:/Users/stapi/OneDrive/Desktop/GD32VW553/V1_MQTT_OK/GD32VW55X_Wifi_BLE_SDK/GD32VW55x_RELEASE_V1.0.2/MSDK/cloud/alicloud/src/protocol/alcs\alcs_localsetup.c ****     HAL_Snprintf(&value[2], prefix_len + secret_len + 1, "%.*s%.*s", prefix_len, prefix, secret_len
 115:C:/Users/stapi/OneDrive/Desktop/GD32VW553/V1_MQTT_OK/GD32VW55X_Wifi_BLE_SDK/GD32VW55x_RELEASE_V1.0.2/MSDK/cloud/alicloud/src/protocol/alcs\alcs_localsetup.c **** 
 116:C:/Users/stapi/OneDrive/Desktop/GD32VW553/V1_MQTT_OK/GD32VW55X_Wifi_BLE_SDK/GD32VW55x_RELEASE_V1.0.2/MSDK/cloud/alicloud/src/protocol/alcs\alcs_localsetup.c **** #ifndef DEVICE_MODEL_GATEWAY
 117:C:/Users/stapi/OneDrive/Desktop/GD32VW553/V1_MQTT_OK/GD32VW55X_Wifi_BLE_SDK/GD32VW55x_RELEASE_V1.0.2/MSDK/cloud/alicloud/src/protocol/alcs\alcs_localsetup.c ****     __alcs_localsetup_kv_del(key_md5_hexstr);
 118:C:/Users/stapi/OneDrive/Desktop/GD32VW553/V1_MQTT_OK/GD32VW55X_Wifi_BLE_SDK/GD32VW55x_RELEASE_V1.0.2/MSDK/cloud/alicloud/src/protocol/alcs\alcs_localsetup.c ****     if (ALCS_LOCALSETUP_SUCCESS != __alcs_localsetup_kv_set(ALCS_KEY, value, prefix_len + secret_le
 119:C:/Users/stapi/OneDrive/Desktop/GD32VW553/V1_MQTT_OK/GD32VW55X_Wifi_BLE_SDK/GD32VW55x_RELEASE_V1.0.2/MSDK/cloud/alicloud/src/protocol/alcs\alcs_localsetup.c **** #else
 120:C:/Users/stapi/OneDrive/Desktop/GD32VW553/V1_MQTT_OK/GD32VW55X_Wifi_BLE_SDK/GD32VW55x_RELEASE_V1.0.2/MSDK/cloud/alicloud/src/protocol/alcs\alcs_localsetup.c ****     if (ALCS_LOCALSETUP_SUCCESS != __alcs_localsetup_kv_set(key_md5_hexstr, value, prefix_len + sec
 121:C:/Users/stapi/OneDrive/Desktop/GD32VW553/V1_MQTT_OK/GD32VW55X_Wifi_BLE_SDK/GD32VW55x_RELEASE_V1.0.2/MSDK/cloud/alicloud/src/protocol/alcs\alcs_localsetup.c **** #endif
 122:C:/Users/stapi/OneDrive/Desktop/GD32VW553/V1_MQTT_OK/GD32VW55X_Wifi_BLE_SDK/GD32VW55x_RELEASE_V1.0.2/MSDK/cloud/alicloud/src/protocol/alcs\alcs_localsetup.c ****         COAP_WRN("ALCS KV Set Prefix And Secret Fail");
 123:C:/Users/stapi/OneDrive/Desktop/GD32VW553/V1_MQTT_OK/GD32VW55X_Wifi_BLE_SDK/GD32VW55x_RELEASE_V1.0.2/MSDK/cloud/alicloud/src/protocol/alcs\alcs_localsetup.c ****         LITE_free(value);
 124:C:/Users/stapi/OneDrive/Desktop/GD32VW553/V1_MQTT_OK/GD32VW55X_Wifi_BLE_SDK/GD32VW55x_RELEASE_V1.0.2/MSDK/cloud/alicloud/src/protocol/alcs\alcs_localsetup.c ****         return ALCS_LOCALSETUP_ERROR;
 125:C:/Users/stapi/OneDrive/Desktop/GD32VW553/V1_MQTT_OK/GD32VW55X_Wifi_BLE_SDK/GD32VW55x_RELEASE_V1.0.2/MSDK/cloud/alicloud/src/protocol/alcs\alcs_localsetup.c ****     }
 126:C:/Users/stapi/OneDrive/Desktop/GD32VW553/V1_MQTT_OK/GD32VW55X_Wifi_BLE_SDK/GD32VW55x_RELEASE_V1.0.2/MSDK/cloud/alicloud/src/protocol/alcs\alcs_localsetup.c **** 
 127:C:/Users/stapi/OneDrive/Desktop/GD32VW553/V1_MQTT_OK/GD32VW55X_Wifi_BLE_SDK/GD32VW55x_RELEASE_V1.0.2/MSDK/cloud/alicloud/src/protocol/alcs\alcs_localsetup.c ****     LITE_free(value);
 128:C:/Users/stapi/OneDrive/Desktop/GD32VW553/V1_MQTT_OK/GD32VW55X_Wifi_BLE_SDK/GD32VW55x_RELEASE_V1.0.2/MSDK/cloud/alicloud/src/protocol/alcs\alcs_localsetup.c ****     return ALCS_LOCALSETUP_SUCCESS;
 129:C:/Users/stapi/OneDrive/Desktop/GD32VW553/V1_MQTT_OK/GD32VW55X_Wifi_BLE_SDK/GD32VW55x_RELEASE_V1.0.2/MSDK/cloud/alicloud/src/protocol/alcs\alcs_localsetup.c **** }
 130:C:/Users/stapi/OneDrive/Desktop/GD32VW553/V1_MQTT_OK/GD32VW55X_Wifi_BLE_SDK/GD32VW55x_RELEASE_V1.0.2/MSDK/cloud/alicloud/src/protocol/alcs\alcs_localsetup.c **** 
 131:C:/Users/stapi/OneDrive/Desktop/GD32VW553/V1_MQTT_OK/GD32VW55X_Wifi_BLE_SDK/GD32VW55x_RELEASE_V1.0.2/MSDK/cloud/alicloud/src/protocol/alcs\alcs_localsetup.c **** localsetup_status alcs_localsetup_ac_as_load(const char *pk, uint16_t pk_len,
 132:C:/Users/stapi/OneDrive/Desktop/GD32VW553/V1_MQTT_OK/GD32VW55X_Wifi_BLE_SDK/GD32VW55x_RELEASE_V1.0.2/MSDK/cloud/alicloud/src/protocol/alcs\alcs_localsetup.c ****         const char *dn, uint16_t dn_len,
 133:C:/Users/stapi/OneDrive/Desktop/GD32VW553/V1_MQTT_OK/GD32VW55X_Wifi_BLE_SDK/GD32VW55x_RELEASE_V1.0.2/MSDK/cloud/alicloud/src/protocol/alcs\alcs_localsetup.c ****         char *prefix, int prefix_len, char *secret, int secret_len)
 134:C:/Users/stapi/OneDrive/Desktop/GD32VW553/V1_MQTT_OK/GD32VW55X_Wifi_BLE_SDK/GD32VW55x_RELEASE_V1.0.2/MSDK/cloud/alicloud/src/protocol/alcs\alcs_localsetup.c **** {
 135:C:/Users/stapi/OneDrive/Desktop/GD32VW553/V1_MQTT_OK/GD32VW55X_Wifi_BLE_SDK/GD32VW55x_RELEASE_V1.0.2/MSDK/cloud/alicloud/src/protocol/alcs\alcs_localsetup.c ****     char key_md5_hexstr[33] = {0};
 136:C:/Users/stapi/OneDrive/Desktop/GD32VW553/V1_MQTT_OK/GD32VW55X_Wifi_BLE_SDK/GD32VW55x_RELEASE_V1.0.2/MSDK/cloud/alicloud/src/protocol/alcs\alcs_localsetup.c ****     char value[128] = {0};
 137:C:/Users/stapi/OneDrive/Desktop/GD32VW553/V1_MQTT_OK/GD32VW55X_Wifi_BLE_SDK/GD32VW55x_RELEASE_V1.0.2/MSDK/cloud/alicloud/src/protocol/alcs\alcs_localsetup.c ****     int value_len = sizeof(value);
 138:C:/Users/stapi/OneDrive/Desktop/GD32VW553/V1_MQTT_OK/GD32VW55X_Wifi_BLE_SDK/GD32VW55x_RELEASE_V1.0.2/MSDK/cloud/alicloud/src/protocol/alcs\alcs_localsetup.c **** 
 139:C:/Users/stapi/OneDrive/Desktop/GD32VW553/V1_MQTT_OK/GD32VW55X_Wifi_BLE_SDK/GD32VW55x_RELEASE_V1.0.2/MSDK/cloud/alicloud/src/protocol/alcs\alcs_localsetup.c ****     int rt;
 140:C:/Users/stapi/OneDrive/Desktop/GD32VW553/V1_MQTT_OK/GD32VW55X_Wifi_BLE_SDK/GD32VW55x_RELEASE_V1.0.2/MSDK/cloud/alicloud/src/protocol/alcs\alcs_localsetup.c ****     if (prefix == NULL || secret == NULL) {
 141:C:/Users/stapi/OneDrive/Desktop/GD32VW553/V1_MQTT_OK/GD32VW55X_Wifi_BLE_SDK/GD32VW55x_RELEASE_V1.0.2/MSDK/cloud/alicloud/src/protocol/alcs\alcs_localsetup.c ****         COAP_ERR("Invalid Parameter");
 142:C:/Users/stapi/OneDrive/Desktop/GD32VW553/V1_MQTT_OK/GD32VW55X_Wifi_BLE_SDK/GD32VW55x_RELEASE_V1.0.2/MSDK/cloud/alicloud/src/protocol/alcs\alcs_localsetup.c ****         return ALCS_LOCALSETUP_ERROR;
 143:C:/Users/stapi/OneDrive/Desktop/GD32VW553/V1_MQTT_OK/GD32VW55X_Wifi_BLE_SDK/GD32VW55x_RELEASE_V1.0.2/MSDK/cloud/alicloud/src/protocol/alcs\alcs_localsetup.c ****     }
 144:C:/Users/stapi/OneDrive/Desktop/GD32VW553/V1_MQTT_OK/GD32VW55X_Wifi_BLE_SDK/GD32VW55x_RELEASE_V1.0.2/MSDK/cloud/alicloud/src/protocol/alcs\alcs_localsetup.c **** 
 145:C:/Users/stapi/OneDrive/Desktop/GD32VW553/V1_MQTT_OK/GD32VW55X_Wifi_BLE_SDK/GD32VW55x_RELEASE_V1.0.2/MSDK/cloud/alicloud/src/protocol/alcs\alcs_localsetup.c ****     rt = __fill_key(pk, pk_len, dn, dn_len, key_md5_hexstr);
 146:C:/Users/stapi/OneDrive/Desktop/GD32VW553/V1_MQTT_OK/GD32VW55X_Wifi_BLE_SDK/GD32VW55x_RELEASE_V1.0.2/MSDK/cloud/alicloud/src/protocol/alcs\alcs_localsetup.c ****     if (rt != ALCS_LOCALSETUP_SUCCESS) {
 147:C:/Users/stapi/OneDrive/Desktop/GD32VW553/V1_MQTT_OK/GD32VW55X_Wifi_BLE_SDK/GD32VW55x_RELEASE_V1.0.2/MSDK/cloud/alicloud/src/protocol/alcs\alcs_localsetup.c ****         return rt;
 148:C:/Users/stapi/OneDrive/Desktop/GD32VW553/V1_MQTT_OK/GD32VW55X_Wifi_BLE_SDK/GD32VW55x_RELEASE_V1.0.2/MSDK/cloud/alicloud/src/protocol/alcs\alcs_localsetup.c ****     }
 149:C:/Users/stapi/OneDrive/Desktop/GD32VW553/V1_MQTT_OK/GD32VW55X_Wifi_BLE_SDK/GD32VW55x_RELEASE_V1.0.2/MSDK/cloud/alicloud/src/protocol/alcs\alcs_localsetup.c **** 
 150:C:/Users/stapi/OneDrive/Desktop/GD32VW553/V1_MQTT_OK/GD32VW55X_Wifi_BLE_SDK/GD32VW55x_RELEASE_V1.0.2/MSDK/cloud/alicloud/src/protocol/alcs\alcs_localsetup.c ****     //Get Value
 151:C:/Users/stapi/OneDrive/Desktop/GD32VW553/V1_MQTT_OK/GD32VW55X_Wifi_BLE_SDK/GD32VW55x_RELEASE_V1.0.2/MSDK/cloud/alicloud/src/protocol/alcs\alcs_localsetup.c **** #ifndef DEVICE_MODEL_GATEWAY
 152:C:/Users/stapi/OneDrive/Desktop/GD32VW553/V1_MQTT_OK/GD32VW55X_Wifi_BLE_SDK/GD32VW55x_RELEASE_V1.0.2/MSDK/cloud/alicloud/src/protocol/alcs\alcs_localsetup.c ****     if (ALCS_LOCALSETUP_SUCCESS != __alcs_localsetup_kv_get(ALCS_KEY, value, &value_len)) {
 153:C:/Users/stapi/OneDrive/Desktop/GD32VW553/V1_MQTT_OK/GD32VW55X_Wifi_BLE_SDK/GD32VW55x_RELEASE_V1.0.2/MSDK/cloud/alicloud/src/protocol/alcs\alcs_localsetup.c **** #else
 154:C:/Users/stapi/OneDrive/Desktop/GD32VW553/V1_MQTT_OK/GD32VW55X_Wifi_BLE_SDK/GD32VW55x_RELEASE_V1.0.2/MSDK/cloud/alicloud/src/protocol/alcs\alcs_localsetup.c ****     if (ALCS_LOCALSETUP_SUCCESS != __alcs_localsetup_kv_get(key_md5_hexstr, value, &value_len)) {
 155:C:/Users/stapi/OneDrive/Desktop/GD32VW553/V1_MQTT_OK/GD32VW55X_Wifi_BLE_SDK/GD32VW55x_RELEASE_V1.0.2/MSDK/cloud/alicloud/src/protocol/alcs\alcs_localsetup.c **** #endif
 156:C:/Users/stapi/OneDrive/Desktop/GD32VW553/V1_MQTT_OK/GD32VW55X_Wifi_BLE_SDK/GD32VW55x_RELEASE_V1.0.2/MSDK/cloud/alicloud/src/protocol/alcs\alcs_localsetup.c ****         COAP_WRN("ALCS KV Get local Prefix And Secret Fail");
 157:C:/Users/stapi/OneDrive/Desktop/GD32VW553/V1_MQTT_OK/GD32VW55X_Wifi_BLE_SDK/GD32VW55x_RELEASE_V1.0.2/MSDK/cloud/alicloud/src/protocol/alcs\alcs_localsetup.c ****         return ALCS_LOCALSETUP_ERROR;
 158:C:/Users/stapi/OneDrive/Desktop/GD32VW553/V1_MQTT_OK/GD32VW55X_Wifi_BLE_SDK/GD32VW55x_RELEASE_V1.0.2/MSDK/cloud/alicloud/src/protocol/alcs\alcs_localsetup.c ****     }
 159:C:/Users/stapi/OneDrive/Desktop/GD32VW553/V1_MQTT_OK/GD32VW55X_Wifi_BLE_SDK/GD32VW55x_RELEASE_V1.0.2/MSDK/cloud/alicloud/src/protocol/alcs\alcs_localsetup.c **** 
 160:C:/Users/stapi/OneDrive/Desktop/GD32VW553/V1_MQTT_OK/GD32VW55X_Wifi_BLE_SDK/GD32VW55x_RELEASE_V1.0.2/MSDK/cloud/alicloud/src/protocol/alcs\alcs_localsetup.c ****     if (value[0] >= prefix_len || value[1] >= secret_len) {
 161:C:/Users/stapi/OneDrive/Desktop/GD32VW553/V1_MQTT_OK/GD32VW55X_Wifi_BLE_SDK/GD32VW55x_RELEASE_V1.0.2/MSDK/cloud/alicloud/src/protocol/alcs\alcs_localsetup.c ****         COAP_ERR("insuffient buffer!");
 162:C:/Users/stapi/OneDrive/Desktop/GD32VW553/V1_MQTT_OK/GD32VW55X_Wifi_BLE_SDK/GD32VW55x_RELEASE_V1.0.2/MSDK/cloud/alicloud/src/protocol/alcs\alcs_localsetup.c ****         return ALCS_LOCALSETUP_ERROR;
 163:C:/Users/stapi/OneDrive/Desktop/GD32VW553/V1_MQTT_OK/GD32VW55X_Wifi_BLE_SDK/GD32VW55x_RELEASE_V1.0.2/MSDK/cloud/alicloud/src/protocol/alcs\alcs_localsetup.c ****     }
 164:C:/Users/stapi/OneDrive/Desktop/GD32VW553/V1_MQTT_OK/GD32VW55X_Wifi_BLE_SDK/GD32VW55x_RELEASE_V1.0.2/MSDK/cloud/alicloud/src/protocol/alcs\alcs_localsetup.c **** 
 165:C:/Users/stapi/OneDrive/Desktop/GD32VW553/V1_MQTT_OK/GD32VW55X_Wifi_BLE_SDK/GD32VW55x_RELEASE_V1.0.2/MSDK/cloud/alicloud/src/protocol/alcs\alcs_localsetup.c ****     memset(prefix, 0, prefix_len);
 166:C:/Users/stapi/OneDrive/Desktop/GD32VW553/V1_MQTT_OK/GD32VW55X_Wifi_BLE_SDK/GD32VW55x_RELEASE_V1.0.2/MSDK/cloud/alicloud/src/protocol/alcs\alcs_localsetup.c ****     memcpy(prefix, &value[2], value[0]);
 167:C:/Users/stapi/OneDrive/Desktop/GD32VW553/V1_MQTT_OK/GD32VW55X_Wifi_BLE_SDK/GD32VW55x_RELEASE_V1.0.2/MSDK/cloud/alicloud/src/protocol/alcs\alcs_localsetup.c ****     memset(secret, 0, secret_len);
 168:C:/Users/stapi/OneDrive/Desktop/GD32VW553/V1_MQTT_OK/GD32VW55X_Wifi_BLE_SDK/GD32VW55x_RELEASE_V1.0.2/MSDK/cloud/alicloud/src/protocol/alcs\alcs_localsetup.c ****     memcpy(secret, &value[2 + value[0]], value[1]);
 169:C:/Users/stapi/OneDrive/Desktop/GD32VW553/V1_MQTT_OK/GD32VW55X_Wifi_BLE_SDK/GD32VW55x_RELEASE_V1.0.2/MSDK/cloud/alicloud/src/protocol/alcs\alcs_localsetup.c ****     return ALCS_LOCALSETUP_SUCCESS;
 170:C:/Users/stapi/OneDrive/Desktop/GD32VW553/V1_MQTT_OK/GD32VW55X_Wifi_BLE_SDK/GD32VW55x_RELEASE_V1.0.2/MSDK/cloud/alicloud/src/protocol/alcs\alcs_localsetup.c **** }
 171:C:/Users/stapi/OneDrive/Desktop/GD32VW553/V1_MQTT_OK/GD32VW55X_Wifi_BLE_SDK/GD32VW55x_RELEASE_V1.0.2/MSDK/cloud/alicloud/src/protocol/alcs\alcs_localsetup.c **** 
 172:C:/Users/stapi/OneDrive/Desktop/GD32VW553/V1_MQTT_OK/GD32VW55X_Wifi_BLE_SDK/GD32VW55x_RELEASE_V1.0.2/MSDK/cloud/alicloud/src/protocol/alcs\alcs_localsetup.c **** static localsetup_status __alcs_localsetup_ac_as_del(const char *pk, uint16_t pk_len,
 173:C:/Users/stapi/OneDrive/Desktop/GD32VW553/V1_MQTT_OK/GD32VW55X_Wifi_BLE_SDK/GD32VW55x_RELEASE_V1.0.2/MSDK/cloud/alicloud/src/protocol/alcs\alcs_localsetup.c ****         const char *dn, uint16_t dn_len)
 174:C:/Users/stapi/OneDrive/Desktop/GD32VW553/V1_MQTT_OK/GD32VW55X_Wifi_BLE_SDK/GD32VW55x_RELEASE_V1.0.2/MSDK/cloud/alicloud/src/protocol/alcs\alcs_localsetup.c **** {
 175:C:/Users/stapi/OneDrive/Desktop/GD32VW553/V1_MQTT_OK/GD32VW55X_Wifi_BLE_SDK/GD32VW55x_RELEASE_V1.0.2/MSDK/cloud/alicloud/src/protocol/alcs\alcs_localsetup.c ****     char key_md5_hexstr[33] = {0};
 176:C:/Users/stapi/OneDrive/Desktop/GD32VW553/V1_MQTT_OK/GD32VW55X_Wifi_BLE_SDK/GD32VW55x_RELEASE_V1.0.2/MSDK/cloud/alicloud/src/protocol/alcs\alcs_localsetup.c ****     int rt;
 177:C:/Users/stapi/OneDrive/Desktop/GD32VW553/V1_MQTT_OK/GD32VW55X_Wifi_BLE_SDK/GD32VW55x_RELEASE_V1.0.2/MSDK/cloud/alicloud/src/protocol/alcs\alcs_localsetup.c ****     rt = __fill_key(pk, pk_len, dn, dn_len, key_md5_hexstr);
 178:C:/Users/stapi/OneDrive/Desktop/GD32VW553/V1_MQTT_OK/GD32VW55X_Wifi_BLE_SDK/GD32VW55x_RELEASE_V1.0.2/MSDK/cloud/alicloud/src/protocol/alcs\alcs_localsetup.c ****     if (rt != ALCS_LOCALSETUP_SUCCESS) {
 179:C:/Users/stapi/OneDrive/Desktop/GD32VW553/V1_MQTT_OK/GD32VW55X_Wifi_BLE_SDK/GD32VW55x_RELEASE_V1.0.2/MSDK/cloud/alicloud/src/protocol/alcs\alcs_localsetup.c ****         return rt;
 180:C:/Users/stapi/OneDrive/Desktop/GD32VW553/V1_MQTT_OK/GD32VW55X_Wifi_BLE_SDK/GD32VW55x_RELEASE_V1.0.2/MSDK/cloud/alicloud/src/protocol/alcs\alcs_localsetup.c ****     }
 181:C:/Users/stapi/OneDrive/Desktop/GD32VW553/V1_MQTT_OK/GD32VW55X_Wifi_BLE_SDK/GD32VW55x_RELEASE_V1.0.2/MSDK/cloud/alicloud/src/protocol/alcs\alcs_localsetup.c **** 
 182:C:/Users/stapi/OneDrive/Desktop/GD32VW553/V1_MQTT_OK/GD32VW55X_Wifi_BLE_SDK/GD32VW55x_RELEASE_V1.0.2/MSDK/cloud/alicloud/src/protocol/alcs\alcs_localsetup.c **** #ifndef DEVICE_MODEL_GATEWAY
 183:C:/Users/stapi/OneDrive/Desktop/GD32VW553/V1_MQTT_OK/GD32VW55X_Wifi_BLE_SDK/GD32VW55x_RELEASE_V1.0.2/MSDK/cloud/alicloud/src/protocol/alcs\alcs_localsetup.c ****     if (ALCS_LOCALSETUP_SUCCESS != __alcs_localsetup_kv_del(ALCS_KEY)) {
 184:C:/Users/stapi/OneDrive/Desktop/GD32VW553/V1_MQTT_OK/GD32VW55X_Wifi_BLE_SDK/GD32VW55x_RELEASE_V1.0.2/MSDK/cloud/alicloud/src/protocol/alcs\alcs_localsetup.c **** #else
 185:C:/Users/stapi/OneDrive/Desktop/GD32VW553/V1_MQTT_OK/GD32VW55X_Wifi_BLE_SDK/GD32VW55x_RELEASE_V1.0.2/MSDK/cloud/alicloud/src/protocol/alcs\alcs_localsetup.c ****     if (ALCS_LOCALSETUP_SUCCESS != __alcs_localsetup_kv_del(key_md5_hexstr)) {
 186:C:/Users/stapi/OneDrive/Desktop/GD32VW553/V1_MQTT_OK/GD32VW55X_Wifi_BLE_SDK/GD32VW55x_RELEASE_V1.0.2/MSDK/cloud/alicloud/src/protocol/alcs\alcs_localsetup.c **** #endif
 187:C:/Users/stapi/OneDrive/Desktop/GD32VW553/V1_MQTT_OK/GD32VW55X_Wifi_BLE_SDK/GD32VW55x_RELEASE_V1.0.2/MSDK/cloud/alicloud/src/protocol/alcs\alcs_localsetup.c ****         COAP_ERR("ALCS KV Get local Prefix And Secret Fail");
 188:C:/Users/stapi/OneDrive/Desktop/GD32VW553/V1_MQTT_OK/GD32VW55X_Wifi_BLE_SDK/GD32VW55x_RELEASE_V1.0.2/MSDK/cloud/alicloud/src/protocol/alcs\alcs_localsetup.c ****         return ALCS_LOCALSETUP_ERROR;
 189:C:/Users/stapi/OneDrive/Desktop/GD32VW553/V1_MQTT_OK/GD32VW55X_Wifi_BLE_SDK/GD32VW55x_RELEASE_V1.0.2/MSDK/cloud/alicloud/src/protocol/alcs\alcs_localsetup.c ****     }
 190:C:/Users/stapi/OneDrive/Desktop/GD32VW553/V1_MQTT_OK/GD32VW55X_Wifi_BLE_SDK/GD32VW55x_RELEASE_V1.0.2/MSDK/cloud/alicloud/src/protocol/alcs\alcs_localsetup.c **** 
 191:C:/Users/stapi/OneDrive/Desktop/GD32VW553/V1_MQTT_OK/GD32VW55X_Wifi_BLE_SDK/GD32VW55x_RELEASE_V1.0.2/MSDK/cloud/alicloud/src/protocol/alcs\alcs_localsetup.c ****     return ALCS_LOCALSETUP_SUCCESS;
 192:C:/Users/stapi/OneDrive/Desktop/GD32VW553/V1_MQTT_OK/GD32VW55X_Wifi_BLE_SDK/GD32VW55x_RELEASE_V1.0.2/MSDK/cloud/alicloud/src/protocol/alcs\alcs_localsetup.c **** }
 193:C:/Users/stapi/OneDrive/Desktop/GD32VW553/V1_MQTT_OK/GD32VW55X_Wifi_BLE_SDK/GD32VW55x_RELEASE_V1.0.2/MSDK/cloud/alicloud/src/protocol/alcs\alcs_localsetup.c **** 
 194:C:/Users/stapi/OneDrive/Desktop/GD32VW553/V1_MQTT_OK/GD32VW55X_Wifi_BLE_SDK/GD32VW55x_RELEASE_V1.0.2/MSDK/cloud/alicloud/src/protocol/alcs\alcs_localsetup.c **** static void alcs_service_cb_setup (CoAPContext *context, const char *paths, NetworkAddr *remote, Co
 195:C:/Users/stapi/OneDrive/Desktop/GD32VW553/V1_MQTT_OK/GD32VW55X_Wifi_BLE_SDK/GD32VW55x_RELEASE_V1.0.2/MSDK/cloud/alicloud/src/protocol/alcs\alcs_localsetup.c **** {
 196:C:/Users/stapi/OneDrive/Desktop/GD32VW553/V1_MQTT_OK/GD32VW55X_Wifi_BLE_SDK/GD32VW55x_RELEASE_V1.0.2/MSDK/cloud/alicloud/src/protocol/alcs\alcs_localsetup.c ****     char payload[128];
 197:C:/Users/stapi/OneDrive/Desktop/GD32VW553/V1_MQTT_OK/GD32VW55X_Wifi_BLE_SDK/GD32VW55x_RELEASE_V1.0.2/MSDK/cloud/alicloud/src/protocol/alcs\alcs_localsetup.c ****     char* id = NULL, *p;
 198:C:/Users/stapi/OneDrive/Desktop/GD32VW553/V1_MQTT_OK/GD32VW55X_Wifi_BLE_SDK/GD32VW55x_RELEASE_V1.0.2/MSDK/cloud/alicloud/src/protocol/alcs\alcs_localsetup.c ****     int idlen = 0, len, aclen, aslen, pklen, dnlen;
 199:C:/Users/stapi/OneDrive/Desktop/GD32VW553/V1_MQTT_OK/GD32VW55X_Wifi_BLE_SDK/GD32VW55x_RELEASE_V1.0.2/MSDK/cloud/alicloud/src/protocol/alcs\alcs_localsetup.c ****     char* ac = NULL, *as = NULL, *pk = NULL, *dn = dn;
 200:C:/Users/stapi/OneDrive/Desktop/GD32VW553/V1_MQTT_OK/GD32VW55X_Wifi_BLE_SDK/GD32VW55x_RELEASE_V1.0.2/MSDK/cloud/alicloud/src/protocol/alcs\alcs_localsetup.c ****     bool success = 0;
 201:C:/Users/stapi/OneDrive/Desktop/GD32VW553/V1_MQTT_OK/GD32VW55X_Wifi_BLE_SDK/GD32VW55x_RELEASE_V1.0.2/MSDK/cloud/alicloud/src/protocol/alcs\alcs_localsetup.c ****     char* err_msg = NULL;
 202:C:/Users/stapi/OneDrive/Desktop/GD32VW553/V1_MQTT_OK/GD32VW55X_Wifi_BLE_SDK/GD32VW55x_RELEASE_V1.0.2/MSDK/cloud/alicloud/src/protocol/alcs\alcs_localsetup.c ****     char configValueBack, acBack, asBack;
 203:C:/Users/stapi/OneDrive/Desktop/GD32VW553/V1_MQTT_OK/GD32VW55X_Wifi_BLE_SDK/GD32VW55x_RELEASE_V1.0.2/MSDK/cloud/alicloud/src/protocol/alcs\alcs_localsetup.c ****     char *str_pos, *entry;
 204:C:/Users/stapi/OneDrive/Desktop/GD32VW553/V1_MQTT_OK/GD32VW55X_Wifi_BLE_SDK/GD32VW55x_RELEASE_V1.0.2/MSDK/cloud/alicloud/src/protocol/alcs\alcs_localsetup.c ****     int entry_len, type;
 205:C:/Users/stapi/OneDrive/Desktop/GD32VW553/V1_MQTT_OK/GD32VW55X_Wifi_BLE_SDK/GD32VW55x_RELEASE_V1.0.2/MSDK/cloud/alicloud/src/protocol/alcs\alcs_localsetup.c ****     iotx_alcs_msg_t rsp_msg;
 206:C:/Users/stapi/OneDrive/Desktop/GD32VW553/V1_MQTT_OK/GD32VW55X_Wifi_BLE_SDK/GD32VW55x_RELEASE_V1.0.2/MSDK/cloud/alicloud/src/protocol/alcs\alcs_localsetup.c **** 
 207:C:/Users/stapi/OneDrive/Desktop/GD32VW553/V1_MQTT_OK/GD32VW55X_Wifi_BLE_SDK/GD32VW55x_RELEASE_V1.0.2/MSDK/cloud/alicloud/src/protocol/alcs\alcs_localsetup.c ****     COAP_DEBUG ("alcs_service_cb_setup, path:%s", paths);
 208:C:/Users/stapi/OneDrive/Desktop/GD32VW553/V1_MQTT_OK/GD32VW55X_Wifi_BLE_SDK/GD32VW55x_RELEASE_V1.0.2/MSDK/cloud/alicloud/src/protocol/alcs\alcs_localsetup.c ****     do {
 209:C:/Users/stapi/OneDrive/Desktop/GD32VW553/V1_MQTT_OK/GD32VW55X_Wifi_BLE_SDK/GD32VW55x_RELEASE_V1.0.2/MSDK/cloud/alicloud/src/protocol/alcs\alcs_localsetup.c ****         if (!remote || !message) {
 210:C:/Users/stapi/OneDrive/Desktop/GD32VW553/V1_MQTT_OK/GD32VW55X_Wifi_BLE_SDK/GD32VW55x_RELEASE_V1.0.2/MSDK/cloud/alicloud/src/protocol/alcs\alcs_localsetup.c ****             COAP_DEBUG ("alcs_service_cb_setup, param is NULL!");
 211:C:/Users/stapi/OneDrive/Desktop/GD32VW553/V1_MQTT_OK/GD32VW55X_Wifi_BLE_SDK/GD32VW55x_RELEASE_V1.0.2/MSDK/cloud/alicloud/src/protocol/alcs\alcs_localsetup.c ****             err_msg = "invalid package";
 212:C:/Users/stapi/OneDrive/Desktop/GD32VW553/V1_MQTT_OK/GD32VW55X_Wifi_BLE_SDK/GD32VW55x_RELEASE_V1.0.2/MSDK/cloud/alicloud/src/protocol/alcs\alcs_localsetup.c ****             break;
 213:C:/Users/stapi/OneDrive/Desktop/GD32VW553/V1_MQTT_OK/GD32VW55X_Wifi_BLE_SDK/GD32VW55x_RELEASE_V1.0.2/MSDK/cloud/alicloud/src/protocol/alcs\alcs_localsetup.c ****         }
 214:C:/Users/stapi/OneDrive/Desktop/GD32VW553/V1_MQTT_OK/GD32VW55X_Wifi_BLE_SDK/GD32VW55x_RELEASE_V1.0.2/MSDK/cloud/alicloud/src/protocol/alcs\alcs_localsetup.c **** 
 215:C:/Users/stapi/OneDrive/Desktop/GD32VW553/V1_MQTT_OK/GD32VW55X_Wifi_BLE_SDK/GD32VW55x_RELEASE_V1.0.2/MSDK/cloud/alicloud/src/protocol/alcs\alcs_localsetup.c ****         id = json_get_value_by_name((char*)message->payload, message->payloadlen, "id", &idlen, (in
 216:C:/Users/stapi/OneDrive/Desktop/GD32VW553/V1_MQTT_OK/GD32VW55X_Wifi_BLE_SDK/GD32VW55x_RELEASE_V1.0.2/MSDK/cloud/alicloud/src/protocol/alcs\alcs_localsetup.c ****         p = json_get_value_by_name((char*)message->payload, message->payloadlen, "params", &len, (i
 217:C:/Users/stapi/OneDrive/Desktop/GD32VW553/V1_MQTT_OK/GD32VW55X_Wifi_BLE_SDK/GD32VW55x_RELEASE_V1.0.2/MSDK/cloud/alicloud/src/protocol/alcs\alcs_localsetup.c ****         if (!p || !len) {
 218:C:/Users/stapi/OneDrive/Desktop/GD32VW553/V1_MQTT_OK/GD32VW55X_Wifi_BLE_SDK/GD32VW55x_RELEASE_V1.0.2/MSDK/cloud/alicloud/src/protocol/alcs\alcs_localsetup.c ****             err_msg = "params is not found";
 219:C:/Users/stapi/OneDrive/Desktop/GD32VW553/V1_MQTT_OK/GD32VW55X_Wifi_BLE_SDK/GD32VW55x_RELEASE_V1.0.2/MSDK/cloud/alicloud/src/protocol/alcs\alcs_localsetup.c ****             break;
 220:C:/Users/stapi/OneDrive/Desktop/GD32VW553/V1_MQTT_OK/GD32VW55X_Wifi_BLE_SDK/GD32VW55x_RELEASE_V1.0.2/MSDK/cloud/alicloud/src/protocol/alcs\alcs_localsetup.c ****         }
 221:C:/Users/stapi/OneDrive/Desktop/GD32VW553/V1_MQTT_OK/GD32VW55X_Wifi_BLE_SDK/GD32VW55x_RELEASE_V1.0.2/MSDK/cloud/alicloud/src/protocol/alcs\alcs_localsetup.c **** 
 222:C:/Users/stapi/OneDrive/Desktop/GD32VW553/V1_MQTT_OK/GD32VW55X_Wifi_BLE_SDK/GD32VW55x_RELEASE_V1.0.2/MSDK/cloud/alicloud/src/protocol/alcs\alcs_localsetup.c ****         p = json_get_value_by_name(p, len, "configValue", &len, (int*)NULL);
 223:C:/Users/stapi/OneDrive/Desktop/GD32VW553/V1_MQTT_OK/GD32VW55X_Wifi_BLE_SDK/GD32VW55x_RELEASE_V1.0.2/MSDK/cloud/alicloud/src/protocol/alcs\alcs_localsetup.c ****         if (!p || !len) {
 224:C:/Users/stapi/OneDrive/Desktop/GD32VW553/V1_MQTT_OK/GD32VW55X_Wifi_BLE_SDK/GD32VW55x_RELEASE_V1.0.2/MSDK/cloud/alicloud/src/protocol/alcs\alcs_localsetup.c ****             err_msg = "configValue is not found";
 225:C:/Users/stapi/OneDrive/Desktop/GD32VW553/V1_MQTT_OK/GD32VW55X_Wifi_BLE_SDK/GD32VW55x_RELEASE_V1.0.2/MSDK/cloud/alicloud/src/protocol/alcs\alcs_localsetup.c ****             break;
 226:C:/Users/stapi/OneDrive/Desktop/GD32VW553/V1_MQTT_OK/GD32VW55X_Wifi_BLE_SDK/GD32VW55x_RELEASE_V1.0.2/MSDK/cloud/alicloud/src/protocol/alcs\alcs_localsetup.c ****         }
 227:C:/Users/stapi/OneDrive/Desktop/GD32VW553/V1_MQTT_OK/GD32VW55X_Wifi_BLE_SDK/GD32VW55x_RELEASE_V1.0.2/MSDK/cloud/alicloud/src/protocol/alcs\alcs_localsetup.c **** 
 228:C:/Users/stapi/OneDrive/Desktop/GD32VW553/V1_MQTT_OK/GD32VW55X_Wifi_BLE_SDK/GD32VW55x_RELEASE_V1.0.2/MSDK/cloud/alicloud/src/protocol/alcs\alcs_localsetup.c ****         backup_json_str_last_char (p, len, configValueBack);
 229:C:/Users/stapi/OneDrive/Desktop/GD32VW553/V1_MQTT_OK/GD32VW55X_Wifi_BLE_SDK/GD32VW55x_RELEASE_V1.0.2/MSDK/cloud/alicloud/src/protocol/alcs\alcs_localsetup.c **** 
 230:C:/Users/stapi/OneDrive/Desktop/GD32VW553/V1_MQTT_OK/GD32VW55X_Wifi_BLE_SDK/GD32VW55x_RELEASE_V1.0.2/MSDK/cloud/alicloud/src/protocol/alcs\alcs_localsetup.c ****         json_array_for_each_entry(p, len, str_pos, entry, entry_len, type) {
 231:C:/Users/stapi/OneDrive/Desktop/GD32VW553/V1_MQTT_OK/GD32VW55X_Wifi_BLE_SDK/GD32VW55x_RELEASE_V1.0.2/MSDK/cloud/alicloud/src/protocol/alcs\alcs_localsetup.c ****             COAP_DEBUG ("entry:%.*s", entry_len, entry);
 232:C:/Users/stapi/OneDrive/Desktop/GD32VW553/V1_MQTT_OK/GD32VW55X_Wifi_BLE_SDK/GD32VW55x_RELEASE_V1.0.2/MSDK/cloud/alicloud/src/protocol/alcs\alcs_localsetup.c ****             ac = json_get_value_by_name(entry, entry_len, "authCode", &aclen, (int*)NULL);
 233:C:/Users/stapi/OneDrive/Desktop/GD32VW553/V1_MQTT_OK/GD32VW55X_Wifi_BLE_SDK/GD32VW55x_RELEASE_V1.0.2/MSDK/cloud/alicloud/src/protocol/alcs\alcs_localsetup.c ****             as = json_get_value_by_name(entry, entry_len, "authSecret", &aslen, (int*)NULL);
 234:C:/Users/stapi/OneDrive/Desktop/GD32VW553/V1_MQTT_OK/GD32VW55X_Wifi_BLE_SDK/GD32VW55x_RELEASE_V1.0.2/MSDK/cloud/alicloud/src/protocol/alcs\alcs_localsetup.c ****             pk = json_get_value_by_name(entry, entry_len, "productKey", &pklen, (int*)NULL);
 235:C:/Users/stapi/OneDrive/Desktop/GD32VW553/V1_MQTT_OK/GD32VW55X_Wifi_BLE_SDK/GD32VW55x_RELEASE_V1.0.2/MSDK/cloud/alicloud/src/protocol/alcs\alcs_localsetup.c ****             dn = json_get_value_by_name(entry, entry_len, "deviceName", &dnlen, (int*)NULL);
 236:C:/Users/stapi/OneDrive/Desktop/GD32VW553/V1_MQTT_OK/GD32VW55X_Wifi_BLE_SDK/GD32VW55x_RELEASE_V1.0.2/MSDK/cloud/alicloud/src/protocol/alcs\alcs_localsetup.c ****             break;
 237:C:/Users/stapi/OneDrive/Desktop/GD32VW553/V1_MQTT_OK/GD32VW55X_Wifi_BLE_SDK/GD32VW55x_RELEASE_V1.0.2/MSDK/cloud/alicloud/src/protocol/alcs\alcs_localsetup.c ****         } //end json_array_for_each_entry
 238:C:/Users/stapi/OneDrive/Desktop/GD32VW553/V1_MQTT_OK/GD32VW55X_Wifi_BLE_SDK/GD32VW55x_RELEASE_V1.0.2/MSDK/cloud/alicloud/src/protocol/alcs\alcs_localsetup.c ****         restore_json_str_last_char (p, len, configValueBack);
 239:C:/Users/stapi/OneDrive/Desktop/GD32VW553/V1_MQTT_OK/GD32VW55X_Wifi_BLE_SDK/GD32VW55x_RELEASE_V1.0.2/MSDK/cloud/alicloud/src/protocol/alcs\alcs_localsetup.c **** 
 240:C:/Users/stapi/OneDrive/Desktop/GD32VW553/V1_MQTT_OK/GD32VW55X_Wifi_BLE_SDK/GD32VW55x_RELEASE_V1.0.2/MSDK/cloud/alicloud/src/protocol/alcs\alcs_localsetup.c ****         if (!ac || !aclen || !as || !aslen || !pk || !pklen || !dn || !dnlen) {
 241:C:/Users/stapi/OneDrive/Desktop/GD32VW553/V1_MQTT_OK/GD32VW55X_Wifi_BLE_SDK/GD32VW55x_RELEASE_V1.0.2/MSDK/cloud/alicloud/src/protocol/alcs\alcs_localsetup.c ****             err_msg = "authinfo is not found";
 242:C:/Users/stapi/OneDrive/Desktop/GD32VW553/V1_MQTT_OK/GD32VW55X_Wifi_BLE_SDK/GD32VW55x_RELEASE_V1.0.2/MSDK/cloud/alicloud/src/protocol/alcs\alcs_localsetup.c ****             break;
 243:C:/Users/stapi/OneDrive/Desktop/GD32VW553/V1_MQTT_OK/GD32VW55X_Wifi_BLE_SDK/GD32VW55x_RELEASE_V1.0.2/MSDK/cloud/alicloud/src/protocol/alcs\alcs_localsetup.c ****         }
 244:C:/Users/stapi/OneDrive/Desktop/GD32VW553/V1_MQTT_OK/GD32VW55X_Wifi_BLE_SDK/GD32VW55x_RELEASE_V1.0.2/MSDK/cloud/alicloud/src/protocol/alcs\alcs_localsetup.c **** 
 245:C:/Users/stapi/OneDrive/Desktop/GD32VW553/V1_MQTT_OK/GD32VW55X_Wifi_BLE_SDK/GD32VW55x_RELEASE_V1.0.2/MSDK/cloud/alicloud/src/protocol/alcs\alcs_localsetup.c ****         //save
 246:C:/Users/stapi/OneDrive/Desktop/GD32VW553/V1_MQTT_OK/GD32VW55X_Wifi_BLE_SDK/GD32VW55x_RELEASE_V1.0.2/MSDK/cloud/alicloud/src/protocol/alcs\alcs_localsetup.c ****         backup_json_str_last_char (ac, aclen, acBack);
 247:C:/Users/stapi/OneDrive/Desktop/GD32VW553/V1_MQTT_OK/GD32VW55X_Wifi_BLE_SDK/GD32VW55x_RELEASE_V1.0.2/MSDK/cloud/alicloud/src/protocol/alcs\alcs_localsetup.c ****         backup_json_str_last_char (as, aslen, asBack);
 248:C:/Users/stapi/OneDrive/Desktop/GD32VW553/V1_MQTT_OK/GD32VW55X_Wifi_BLE_SDK/GD32VW55x_RELEASE_V1.0.2/MSDK/cloud/alicloud/src/protocol/alcs\alcs_localsetup.c ****         __alcs_localsetup_ac_as_del (pk, pklen, dn, dnlen);
 249:C:/Users/stapi/OneDrive/Desktop/GD32VW553/V1_MQTT_OK/GD32VW55X_Wifi_BLE_SDK/GD32VW55x_RELEASE_V1.0.2/MSDK/cloud/alicloud/src/protocol/alcs\alcs_localsetup.c ****         __alcs_localsetup_ac_as_save (pk, pklen, dn, dnlen, ac, aclen, as, aslen);
 250:C:/Users/stapi/OneDrive/Desktop/GD32VW553/V1_MQTT_OK/GD32VW55X_Wifi_BLE_SDK/GD32VW55x_RELEASE_V1.0.2/MSDK/cloud/alicloud/src/protocol/alcs\alcs_localsetup.c **** 
 251:C:/Users/stapi/OneDrive/Desktop/GD32VW553/V1_MQTT_OK/GD32VW55X_Wifi_BLE_SDK/GD32VW55x_RELEASE_V1.0.2/MSDK/cloud/alicloud/src/protocol/alcs\alcs_localsetup.c ****         alcs_add_svr_key(g_coap_handle, ac, as, LOCALSETUP);
 252:C:/Users/stapi/OneDrive/Desktop/GD32VW553/V1_MQTT_OK/GD32VW55X_Wifi_BLE_SDK/GD32VW55x_RELEASE_V1.0.2/MSDK/cloud/alicloud/src/protocol/alcs\alcs_localsetup.c **** 
 253:C:/Users/stapi/OneDrive/Desktop/GD32VW553/V1_MQTT_OK/GD32VW55X_Wifi_BLE_SDK/GD32VW55x_RELEASE_V1.0.2/MSDK/cloud/alicloud/src/protocol/alcs\alcs_localsetup.c ****         restore_json_str_last_char (ac, aclen, acBack);
 254:C:/Users/stapi/OneDrive/Desktop/GD32VW553/V1_MQTT_OK/GD32VW55X_Wifi_BLE_SDK/GD32VW55x_RELEASE_V1.0.2/MSDK/cloud/alicloud/src/protocol/alcs\alcs_localsetup.c ****         restore_json_str_last_char (as, aslen, asBack)
 255:C:/Users/stapi/OneDrive/Desktop/GD32VW553/V1_MQTT_OK/GD32VW55X_Wifi_BLE_SDK/GD32VW55x_RELEASE_V1.0.2/MSDK/cloud/alicloud/src/protocol/alcs\alcs_localsetup.c ****         success = 1;
 256:C:/Users/stapi/OneDrive/Desktop/GD32VW553/V1_MQTT_OK/GD32VW55X_Wifi_BLE_SDK/GD32VW55x_RELEASE_V1.0.2/MSDK/cloud/alicloud/src/protocol/alcs\alcs_localsetup.c **** 
 257:C:/Users/stapi/OneDrive/Desktop/GD32VW553/V1_MQTT_OK/GD32VW55X_Wifi_BLE_SDK/GD32VW55x_RELEASE_V1.0.2/MSDK/cloud/alicloud/src/protocol/alcs\alcs_localsetup.c ****     } while (0);
 258:C:/Users/stapi/OneDrive/Desktop/GD32VW553/V1_MQTT_OK/GD32VW55X_Wifi_BLE_SDK/GD32VW55x_RELEASE_V1.0.2/MSDK/cloud/alicloud/src/protocol/alcs\alcs_localsetup.c **** 
 259:C:/Users/stapi/OneDrive/Desktop/GD32VW553/V1_MQTT_OK/GD32VW55X_Wifi_BLE_SDK/GD32VW55x_RELEASE_V1.0.2/MSDK/cloud/alicloud/src/protocol/alcs\alcs_localsetup.c ****     if (success) {
 260:C:/Users/stapi/OneDrive/Desktop/GD32VW553/V1_MQTT_OK/GD32VW55X_Wifi_BLE_SDK/GD32VW55x_RELEASE_V1.0.2/MSDK/cloud/alicloud/src/protocol/alcs\alcs_localsetup.c ****         HAL_Snprintf(payload, sizeof(payload), "{\"id\":\"%.*s\",\"code\":200}", idlen, id? id : ""
 261:C:/Users/stapi/OneDrive/Desktop/GD32VW553/V1_MQTT_OK/GD32VW55X_Wifi_BLE_SDK/GD32VW55x_RELEASE_V1.0.2/MSDK/cloud/alicloud/src/protocol/alcs\alcs_localsetup.c ****     } else {
 262:C:/Users/stapi/OneDrive/Desktop/GD32VW553/V1_MQTT_OK/GD32VW55X_Wifi_BLE_SDK/GD32VW55x_RELEASE_V1.0.2/MSDK/cloud/alicloud/src/protocol/alcs\alcs_localsetup.c ****         HAL_Snprintf(payload, sizeof(payload), "{\"id\":\"%.*s\",\"code\":400,\"msg\":\"%s\"}", idl
 263:C:/Users/stapi/OneDrive/Desktop/GD32VW553/V1_MQTT_OK/GD32VW55X_Wifi_BLE_SDK/GD32VW55x_RELEASE_V1.0.2/MSDK/cloud/alicloud/src/protocol/alcs\alcs_localsetup.c ****         COAP_ERR ("alcs_service_cb_setup, %s", err_msg);
 264:C:/Users/stapi/OneDrive/Desktop/GD32VW553/V1_MQTT_OK/GD32VW55X_Wifi_BLE_SDK/GD32VW55x_RELEASE_V1.0.2/MSDK/cloud/alicloud/src/protocol/alcs\alcs_localsetup.c ****     }
 265:C:/Users/stapi/OneDrive/Desktop/GD32VW553/V1_MQTT_OK/GD32VW55X_Wifi_BLE_SDK/GD32VW55x_RELEASE_V1.0.2/MSDK/cloud/alicloud/src/protocol/alcs\alcs_localsetup.c **** 
 266:C:/Users/stapi/OneDrive/Desktop/GD32VW553/V1_MQTT_OK/GD32VW55X_Wifi_BLE_SDK/GD32VW55x_RELEASE_V1.0.2/MSDK/cloud/alicloud/src/protocol/alcs\alcs_localsetup.c ****     memset(&rsp_msg, 0, sizeof(iotx_alcs_msg_t));
 267:C:/Users/stapi/OneDrive/Desktop/GD32VW553/V1_MQTT_OK/GD32VW55X_Wifi_BLE_SDK/GD32VW55x_RELEASE_V1.0.2/MSDK/cloud/alicloud/src/protocol/alcs\alcs_localsetup.c **** 
 268:C:/Users/stapi/OneDrive/Desktop/GD32VW553/V1_MQTT_OK/GD32VW55X_Wifi_BLE_SDK/GD32VW55x_RELEASE_V1.0.2/MSDK/cloud/alicloud/src/protocol/alcs\alcs_localsetup.c ****     rsp_msg.msg_code = ITOX_ALCS_COAP_MSG_CODE_205_CONTENT;
 269:C:/Users/stapi/OneDrive/Desktop/GD32VW553/V1_MQTT_OK/GD32VW55X_Wifi_BLE_SDK/GD32VW55x_RELEASE_V1.0.2/MSDK/cloud/alicloud/src/protocol/alcs\alcs_localsetup.c ****     rsp_msg.msg_type = IOTX_ALCS_MESSAGE_TYPE_CON;
 270:C:/Users/stapi/OneDrive/Desktop/GD32VW553/V1_MQTT_OK/GD32VW55X_Wifi_BLE_SDK/GD32VW55x_RELEASE_V1.0.2/MSDK/cloud/alicloud/src/protocol/alcs\alcs_localsetup.c ****     rsp_msg.payload = (unsigned char*)payload;
 271:C:/Users/stapi/OneDrive/Desktop/GD32VW553/V1_MQTT_OK/GD32VW55X_Wifi_BLE_SDK/GD32VW55x_RELEASE_V1.0.2/MSDK/cloud/alicloud/src/protocol/alcs\alcs_localsetup.c ****     rsp_msg.payload_len = strlen(payload);
 272:C:/Users/stapi/OneDrive/Desktop/GD32VW553/V1_MQTT_OK/GD32VW55X_Wifi_BLE_SDK/GD32VW55x_RELEASE_V1.0.2/MSDK/cloud/alicloud/src/protocol/alcs\alcs_localsetup.c ****     rsp_msg.ip = (char*)(remote? remote->addr : NULL);
 273:C:/Users/stapi/OneDrive/Desktop/GD32VW553/V1_MQTT_OK/GD32VW55X_Wifi_BLE_SDK/GD32VW55x_RELEASE_V1.0.2/MSDK/cloud/alicloud/src/protocol/alcs\alcs_localsetup.c ****     rsp_msg.port = remote? remote->port : 5683;
 274:C:/Users/stapi/OneDrive/Desktop/GD32VW553/V1_MQTT_OK/GD32VW55X_Wifi_BLE_SDK/GD32VW55x_RELEASE_V1.0.2/MSDK/cloud/alicloud/src/protocol/alcs\alcs_localsetup.c ****     rsp_msg.uri = (char*)paths;
 275:C:/Users/stapi/OneDrive/Desktop/GD32VW553/V1_MQTT_OK/GD32VW55X_Wifi_BLE_SDK/GD32VW55x_RELEASE_V1.0.2/MSDK/cloud/alicloud/src/protocol/alcs\alcs_localsetup.c **** 
 276:C:/Users/stapi/OneDrive/Desktop/GD32VW553/V1_MQTT_OK/GD32VW55X_Wifi_BLE_SDK/GD32VW55x_RELEASE_V1.0.2/MSDK/cloud/alicloud/src/protocol/alcs\alcs_localsetup.c ****     if (message) {
 277:C:/Users/stapi/OneDrive/Desktop/GD32VW553/V1_MQTT_OK/GD32VW55X_Wifi_BLE_SDK/GD32VW55x_RELEASE_V1.0.2/MSDK/cloud/alicloud/src/protocol/alcs\alcs_localsetup.c ****         iotx_alcs_send_Response (g_adapter_handle, &rsp_msg, message->header.tokenlen, message->tok
 278:C:/Users/stapi/OneDrive/Desktop/GD32VW553/V1_MQTT_OK/GD32VW55X_Wifi_BLE_SDK/GD32VW55x_RELEASE_V1.0.2/MSDK/cloud/alicloud/src/protocol/alcs\alcs_localsetup.c ****     }
 279:C:/Users/stapi/OneDrive/Desktop/GD32VW553/V1_MQTT_OK/GD32VW55X_Wifi_BLE_SDK/GD32VW55x_RELEASE_V1.0.2/MSDK/cloud/alicloud/src/protocol/alcs\alcs_localsetup.c **** }
 280:C:/Users/stapi/OneDrive/Desktop/GD32VW553/V1_MQTT_OK/GD32VW55X_Wifi_BLE_SDK/GD32VW55x_RELEASE_V1.0.2/MSDK/cloud/alicloud/src/protocol/alcs\alcs_localsetup.c **** 
 281:C:/Users/stapi/OneDrive/Desktop/GD32VW553/V1_MQTT_OK/GD32VW55X_Wifi_BLE_SDK/GD32VW55x_RELEASE_V1.0.2/MSDK/cloud/alicloud/src/protocol/alcs\alcs_localsetup.c **** static void alcs_localsetup_register_resource (void *adapter_handle, char *pk, char *dn)
 282:C:/Users/stapi/OneDrive/Desktop/GD32VW553/V1_MQTT_OK/GD32VW55X_Wifi_BLE_SDK/GD32VW55x_RELEASE_V1.0.2/MSDK/cloud/alicloud/src/protocol/alcs\alcs_localsetup.c **** {
 156              		.loc 1 282 1 is_stmt 1
 157              		.cfi_startproc
 158              	.LVL14:
 283:C:/Users/stapi/OneDrive/Desktop/GD32VW553/V1_MQTT_OK/GD32VW55X_Wifi_BLE_SDK/GD32VW55x_RELEASE_V1.0.2/MSDK/cloud/alicloud/src/protocol/alcs\alcs_localsetup.c ****     iotx_alcs_res_t alcs_res;
 159              		.loc 1 283 5
 284:C:/Users/stapi/OneDrive/Desktop/GD32VW553/V1_MQTT_OK/GD32VW55X_Wifi_BLE_SDK/GD32VW55x_RELEASE_V1.0.2/MSDK/cloud/alicloud/src/protocol/alcs\alcs_localsetup.c ****     char uri [PRODUCT_KEY_LEN + DEVICE_NAME_LEN + 24];
 160              		.loc 1 284 5
 285:C:/Users/stapi/OneDrive/Desktop/GD32VW553/V1_MQTT_OK/GD32VW55X_Wifi_BLE_SDK/GD32VW55x_RELEASE_V1.0.2/MSDK/cloud/alicloud/src/protocol/alcs\alcs_localsetup.c **** 
 286:C:/Users/stapi/OneDrive/Desktop/GD32VW553/V1_MQTT_OK/GD32VW55X_Wifi_BLE_SDK/GD32VW55x_RELEASE_V1.0.2/MSDK/cloud/alicloud/src/protocol/alcs\alcs_localsetup.c ****     if (adapter_handle == NULL || pk == NULL || strlen(pk) > PRODUCT_KEY_LEN ||
 161              		.loc 1 286 5
 162              		.loc 1 286 8 is_stmt 0
 163 0000 51C5     		beq	a0,zero,.L24
 282:C:/Users/stapi/OneDrive/Desktop/GD32VW553/V1_MQTT_OK/GD32VW55X_Wifi_BLE_SDK/GD32VW55x_RELEASE_V1.0.2/MSDK/cloud/alicloud/src/protocol/alcs\alcs_localsetup.c ****     iotx_alcs_res_t alcs_res;
 164              		.loc 1 282 1 discriminator 1
 165 0002 17030000 		call	t0,__riscv_save_4
 165      E7020300 
 166              		.cfi_offset 19, -20
 167              		.cfi_offset 18, -16
 168              		.cfi_offset 9, -12
 169              		.cfi_offset 8, -8
 170              		.cfi_offset 1, -4
 171              		.cfi_def_cfa_offset 32
 172 000a 5971     		addi	sp,sp,-112
 173              		.cfi_def_cfa_offset 144
 174 000c 2E84     		mv	s0,a1
 175              		.loc 1 286 32 discriminator 1
 176 000e B5C9     		beq	a1,zero,.L12
 177 0010 2A89     		mv	s2,a0
 178              		.loc 1 286 49 discriminator 2
 179 0012 2E85     		mv	a0,a1
 180              	.LVL15:
 181 0014 B284     		mv	s1,a2
 182 0016 97000000 		call	strlen
 182      E7800000 
 183              	.LVL16:
 184              		.loc 1 286 46 discriminator 2
 185 001e D147     		li	a5,20
 186 0020 63E1A706 		bgtu	a0,a5,.L12
 187              		.loc 1 286 78 discriminator 3
 188 0024 B9CC     		beq	s1,zero,.L12
 287:C:/Users/stapi/OneDrive/Desktop/GD32VW553/V1_MQTT_OK/GD32VW55X_Wifi_BLE_SDK/GD32VW55x_RELEASE_V1.0.2/MSDK/cloud/alicloud/src/protocol/alcs\alcs_localsetup.c ****         dn == NULL || strlen(dn) > DEVICE_NAME_LEN) {
 189              		.loc 1 287 23
 190 0026 2685     		mv	a0,s1
 191 0028 97000000 		call	strlen
 191      E7800000 
 192              	.LVL17:
 193              		.loc 1 287 20
 194 0030 93070002 		li	a5,32
 195 0034 63E7A704 		bgtu	a0,a5,.L12
 196              	.LVL18:
 197              	.LBB4:
 198              	.LBB5:
 288:C:/Users/stapi/OneDrive/Desktop/GD32VW553/V1_MQTT_OK/GD32VW55X_Wifi_BLE_SDK/GD32VW55x_RELEASE_V1.0.2/MSDK/cloud/alicloud/src/protocol/alcs\alcs_localsetup.c ****         return;
 289:C:/Users/stapi/OneDrive/Desktop/GD32VW553/V1_MQTT_OK/GD32VW55X_Wifi_BLE_SDK/GD32VW55x_RELEASE_V1.0.2/MSDK/cloud/alicloud/src/protocol/alcs\alcs_localsetup.c ****     }
 290:C:/Users/stapi/OneDrive/Desktop/GD32VW553/V1_MQTT_OK/GD32VW55X_Wifi_BLE_SDK/GD32VW55x_RELEASE_V1.0.2/MSDK/cloud/alicloud/src/protocol/alcs\alcs_localsetup.c **** 
 291:C:/Users/stapi/OneDrive/Desktop/GD32VW553/V1_MQTT_OK/GD32VW55X_Wifi_BLE_SDK/GD32VW55x_RELEASE_V1.0.2/MSDK/cloud/alicloud/src/protocol/alcs\alcs_localsetup.c ****     HAL_Snprintf(uri, sizeof(uri), "/dev/%s/%s/core/service/setup", pk, dn);
 199              		.loc 1 291 5 is_stmt 1
 200 0038 93094102 		addi	s3,sp,36
 201 003c 37060000 		lui	a2,%hi(.LC4)
 202 0040 9305C004 		li	a1,76
 203 0044 2687     		mv	a4,s1
 204 0046 A286     		mv	a3,s0
 205 0048 13060600 		addi	a2,a2,%lo(.LC4)
 206 004c 4E85     		mv	a0,s3
 207 004e 97000000 		call	HAL_Snprintf
 207      E7800000 
 208              	.LVL19:
 292:C:/Users/stapi/OneDrive/Desktop/GD32VW553/V1_MQTT_OK/GD32VW55X_Wifi_BLE_SDK/GD32VW55x_RELEASE_V1.0.2/MSDK/cloud/alicloud/src/protocol/alcs\alcs_localsetup.c **** 
 293:C:/Users/stapi/OneDrive/Desktop/GD32VW553/V1_MQTT_OK/GD32VW55X_Wifi_BLE_SDK/GD32VW55x_RELEASE_V1.0.2/MSDK/cloud/alicloud/src/protocol/alcs\alcs_localsetup.c ****     memset(&alcs_res, 0, sizeof(iotx_alcs_res_t));
 209              		.loc 1 293 5
 294:C:/Users/stapi/OneDrive/Desktop/GD32VW553/V1_MQTT_OK/GD32VW55X_Wifi_BLE_SDK/GD32VW55x_RELEASE_V1.0.2/MSDK/cloud/alicloud/src/protocol/alcs\alcs_localsetup.c ****     alcs_res.uri = uri;
 210              		.loc 1 294 5
 295:C:/Users/stapi/OneDrive/Desktop/GD32VW553/V1_MQTT_OK/GD32VW55X_Wifi_BLE_SDK/GD32VW55x_RELEASE_V1.0.2/MSDK/cloud/alicloud/src/protocol/alcs\alcs_localsetup.c ****     alcs_res.msg_ct = IOTX_ALCS_MESSAGE_CT_APP_JSON;
 211              		.loc 1 295 21 is_stmt 0
 212 0056 93072003 		li	a5,50
 213 005a 3ECC     		sw	a5,24(sp)
 296:C:/Users/stapi/OneDrive/Desktop/GD32VW553/V1_MQTT_OK/GD32VW55X_Wifi_BLE_SDK/GD32VW55x_RELEASE_V1.0.2/MSDK/cloud/alicloud/src/protocol/alcs\alcs_localsetup.c ****     alcs_res.msg_perm = IOTX_ALCS_MESSAGE_PERM_GET | IOTX_ALCS_MESSAGE_PERM_PUT;
 214              		.loc 1 296 23
 215 005c 9547     		li	a5,5
 216 005e 3ECA     		sw	a5,20(sp)
 297:C:/Users/stapi/OneDrive/Desktop/GD32VW553/V1_MQTT_OK/GD32VW55X_Wifi_BLE_SDK/GD32VW55x_RELEASE_V1.0.2/MSDK/cloud/alicloud/src/protocol/alcs\alcs_localsetup.c ****     alcs_res.maxage = 60;
 217              		.loc 1 297 21
 218 0060 9307C003 		li	a5,60
 219 0064 3ECE     		sw	a5,28(sp)
 298:C:/Users/stapi/OneDrive/Desktop/GD32VW553/V1_MQTT_OK/GD32VW55X_Wifi_BLE_SDK/GD32VW55x_RELEASE_V1.0.2/MSDK/cloud/alicloud/src/protocol/alcs\alcs_localsetup.c ****     alcs_res.need_auth = 1;
 220              		.loc 1 298 24
 221 0066 8547     		li	a5,1
 222 0068 3EC8     		sw	a5,16(sp)
 299:C:/Users/stapi/OneDrive/Desktop/GD32VW553/V1_MQTT_OK/GD32VW55X_Wifi_BLE_SDK/GD32VW55x_RELEASE_V1.0.2/MSDK/cloud/alicloud/src/protocol/alcs\alcs_localsetup.c ****     alcs_res.callback = alcs_service_cb_setup;
 223              		.loc 1 299 23
 224 006a B7070000 		lui	a5,%hi(alcs_service_cb_setup)
 225 006e 93870700 		addi	a5,a5,%lo(alcs_service_cb_setup)
 300:C:/Users/stapi/OneDrive/Desktop/GD32VW553/V1_MQTT_OK/GD32VW55X_Wifi_BLE_SDK/GD32VW55x_RELEASE_V1.0.2/MSDK/cloud/alicloud/src/protocol/alcs\alcs_localsetup.c **** 
 301:C:/Users/stapi/OneDrive/Desktop/GD32VW553/V1_MQTT_OK/GD32VW55X_Wifi_BLE_SDK/GD32VW55x_RELEASE_V1.0.2/MSDK/cloud/alicloud/src/protocol/alcs\alcs_localsetup.c ****     iotx_alcs_register_resource(adapter_handle, &alcs_res);
 226              		.loc 1 301 5
 227 0072 6C00     		addi	a1,sp,12
 228 0074 4A85     		mv	a0,s2
 294:C:/Users/stapi/OneDrive/Desktop/GD32VW553/V1_MQTT_OK/GD32VW55X_Wifi_BLE_SDK/GD32VW55x_RELEASE_V1.0.2/MSDK/cloud/alicloud/src/protocol/alcs\alcs_localsetup.c ****     alcs_res.msg_ct = IOTX_ALCS_MESSAGE_CT_APP_JSON;
 229              		.loc 1 294 18
 230 0076 4EC6     		sw	s3,12(sp)
 295:C:/Users/stapi/OneDrive/Desktop/GD32VW553/V1_MQTT_OK/GD32VW55X_Wifi_BLE_SDK/GD32VW55x_RELEASE_V1.0.2/MSDK/cloud/alicloud/src/protocol/alcs\alcs_localsetup.c ****     alcs_res.msg_perm = IOTX_ALCS_MESSAGE_PERM_GET | IOTX_ALCS_MESSAGE_PERM_PUT;
 231              		.loc 1 295 5 is_stmt 1
 296:C:/Users/stapi/OneDrive/Desktop/GD32VW553/V1_MQTT_OK/GD32VW55X_Wifi_BLE_SDK/GD32VW55x_RELEASE_V1.0.2/MSDK/cloud/alicloud/src/protocol/alcs\alcs_localsetup.c ****     alcs_res.maxage = 60;
 232              		.loc 1 296 5
 297:C:/Users/stapi/OneDrive/Desktop/GD32VW553/V1_MQTT_OK/GD32VW55X_Wifi_BLE_SDK/GD32VW55x_RELEASE_V1.0.2/MSDK/cloud/alicloud/src/protocol/alcs\alcs_localsetup.c ****     alcs_res.need_auth = 1;
 233              		.loc 1 297 5
 298:C:/Users/stapi/OneDrive/Desktop/GD32VW553/V1_MQTT_OK/GD32VW55X_Wifi_BLE_SDK/GD32VW55x_RELEASE_V1.0.2/MSDK/cloud/alicloud/src/protocol/alcs\alcs_localsetup.c ****     alcs_res.callback = alcs_service_cb_setup;
 234              		.loc 1 298 5
 299:C:/Users/stapi/OneDrive/Desktop/GD32VW553/V1_MQTT_OK/GD32VW55X_Wifi_BLE_SDK/GD32VW55x_RELEASE_V1.0.2/MSDK/cloud/alicloud/src/protocol/alcs\alcs_localsetup.c **** 
 235              		.loc 1 299 5
 299:C:/Users/stapi/OneDrive/Desktop/GD32VW553/V1_MQTT_OK/GD32VW55X_Wifi_BLE_SDK/GD32VW55x_RELEASE_V1.0.2/MSDK/cloud/alicloud/src/protocol/alcs\alcs_localsetup.c **** 
 236              		.loc 1 299 23 is_stmt 0
 237 0078 3ED0     		sw	a5,32(sp)
 238              		.loc 1 301 5 is_stmt 1
 239 007a 97000000 		call	iotx_alcs_register_resource
 239      E7800000 
 240              	.LVL20:
 241              	.L12:
 242              	.LBE5:
 243              	.LBE4:
 302:C:/Users/stapi/OneDrive/Desktop/GD32VW553/V1_MQTT_OK/GD32VW55X_Wifi_BLE_SDK/GD32VW55x_RELEASE_V1.0.2/MSDK/cloud/alicloud/src/protocol/alcs\alcs_localsetup.c **** }
 244              		.loc 1 302 1 is_stmt 0
 245 0082 6561     		addi	sp,sp,112
 246              		.cfi_def_cfa_offset 0
 247 0084 17030000 		tail	__riscv_restore_4
 247      67000300 
 248              		.cfi_restore 19
 249              		.cfi_restore 18
 250              		.cfi_restore 9
 251              		.cfi_restore 8
 252              		.cfi_restore 1
 253              		.cfi_def_cfa_offset -32
 254              	.LVL21:
 255              	.L24:
 256              		.cfi_def_cfa_offset 0
 257 008c 8280     		ret
 258              		.cfi_endproc
 259              	.LFE28:
 261              		.section	.rodata.__alcs_localsetup_kv_del.str1.4,"aMS",@progbits,1
 262              		.align	2
 263              	.LC5:
 264 0000 5B696E66 		.string	"[inf] "
 264      5D2000
 265 0007 00       		.align	2
 266              	.LC6:
 267 0008 414C4353 		.string	"ALCS KV Del, Key: %s"
 267      204B5620 
 267      44656C2C 
 267      204B6579 
 267      3A202573 
 268              		.section	.text.__alcs_localsetup_kv_del,"ax",@progbits
 269              		.align	1
 271              	__alcs_localsetup_kv_del:
 272              	.LFB22:
  55:C:/Users/stapi/OneDrive/Desktop/GD32VW553/V1_MQTT_OK/GD32VW55X_Wifi_BLE_SDK/GD32VW55x_RELEASE_V1.0.2/MSDK/cloud/alicloud/src/protocol/alcs\alcs_localsetup.c ****     if (HAL_Kv_Del(key) != 0) {
 273              		.loc 1 55 1 is_stmt 1
 274              		.cfi_startproc
 275              	.LVL22:
 276 0000 17030000 		call	t0,__riscv_save_1
 276      E7020300 
 277              		.cfi_offset 8, -8
 278              		.cfi_offset 1, -4
 279              		.cfi_def_cfa_offset 16
  56:C:/Users/stapi/OneDrive/Desktop/GD32VW553/V1_MQTT_OK/GD32VW55X_Wifi_BLE_SDK/GD32VW55x_RELEASE_V1.0.2/MSDK/cloud/alicloud/src/protocol/alcs\alcs_localsetup.c ****         return ALCS_LOCALSETUP_ERROR;
 280              		.loc 1 56 5
  55:C:/Users/stapi/OneDrive/Desktop/GD32VW553/V1_MQTT_OK/GD32VW55X_Wifi_BLE_SDK/GD32VW55x_RELEASE_V1.0.2/MSDK/cloud/alicloud/src/protocol/alcs\alcs_localsetup.c ****     if (HAL_Kv_Del(key) != 0) {
 281              		.loc 1 55 1 is_stmt 0
 282 0008 2A84     		mv	s0,a0
  56:C:/Users/stapi/OneDrive/Desktop/GD32VW553/V1_MQTT_OK/GD32VW55X_Wifi_BLE_SDK/GD32VW55x_RELEASE_V1.0.2/MSDK/cloud/alicloud/src/protocol/alcs\alcs_localsetup.c ****         return ALCS_LOCALSETUP_ERROR;
 283              		.loc 1 56 9
 284 000a 97000000 		call	aos_kv_del
 284      E7800000 
 285              	.LVL23:
  56:C:/Users/stapi/OneDrive/Desktop/GD32VW553/V1_MQTT_OK/GD32VW55X_Wifi_BLE_SDK/GD32VW55x_RELEASE_V1.0.2/MSDK/cloud/alicloud/src/protocol/alcs\alcs_localsetup.c ****         return ALCS_LOCALSETUP_ERROR;
 286              		.loc 1 56 8
 287 0012 1DED     		bne	a0,zero,.L29
 288              	.LVL24:
 289              	.LBB8:
 290              	.LBB9:
  60:C:/Users/stapi/OneDrive/Desktop/GD32VW553/V1_MQTT_OK/GD32VW55X_Wifi_BLE_SDK/GD32VW55x_RELEASE_V1.0.2/MSDK/cloud/alicloud/src/protocol/alcs\alcs_localsetup.c **** 
 291              		.loc 1 60 5 is_stmt 1
  60:C:/Users/stapi/OneDrive/Desktop/GD32VW553/V1_MQTT_OK/GD32VW55X_Wifi_BLE_SDK/GD32VW55x_RELEASE_V1.0.2/MSDK/cloud/alicloud/src/protocol/alcs\alcs_localsetup.c **** 
 292              		.loc 1 60 5
 293 0014 37050000 		lui	a0,%hi(.LC5)
 294 0018 13050500 		addi	a0,a0,%lo(.LC5)
 295 001c 97000000 		call	HAL_Printf
 295      E7800000 
 296              	.LVL25:
  60:C:/Users/stapi/OneDrive/Desktop/GD32VW553/V1_MQTT_OK/GD32VW55X_Wifi_BLE_SDK/GD32VW55x_RELEASE_V1.0.2/MSDK/cloud/alicloud/src/protocol/alcs\alcs_localsetup.c **** 
 297              		.loc 1 60 5
 298 0024 37050000 		lui	a0,%hi(.LC6)
 299 0028 A285     		mv	a1,s0
 300 002a 13050500 		addi	a0,a0,%lo(.LC6)
 301 002e 97000000 		call	HAL_Printf
 301      E7800000 
 302              	.LVL26:
  60:C:/Users/stapi/OneDrive/Desktop/GD32VW553/V1_MQTT_OK/GD32VW55X_Wifi_BLE_SDK/GD32VW55x_RELEASE_V1.0.2/MSDK/cloud/alicloud/src/protocol/alcs\alcs_localsetup.c **** 
 303              		.loc 1 60 5
 304 0036 37050000 		lui	a0,%hi(.LC2)
 305 003a 13050500 		addi	a0,a0,%lo(.LC2)
 306 003e 97000000 		call	HAL_Printf
 306      E7800000 
 307              	.LVL27:
  60:C:/Users/stapi/OneDrive/Desktop/GD32VW553/V1_MQTT_OK/GD32VW55X_Wifi_BLE_SDK/GD32VW55x_RELEASE_V1.0.2/MSDK/cloud/alicloud/src/protocol/alcs\alcs_localsetup.c **** 
 308              		.loc 1 60 5
  62:C:/Users/stapi/OneDrive/Desktop/GD32VW553/V1_MQTT_OK/GD32VW55X_Wifi_BLE_SDK/GD32VW55x_RELEASE_V1.0.2/MSDK/cloud/alicloud/src/protocol/alcs\alcs_localsetup.c **** }
 309              		.loc 1 62 5
  60:C:/Users/stapi/OneDrive/Desktop/GD32VW553/V1_MQTT_OK/GD32VW55X_Wifi_BLE_SDK/GD32VW55x_RELEASE_V1.0.2/MSDK/cloud/alicloud/src/protocol/alcs\alcs_localsetup.c **** 
 310              		.loc 1 60 5 is_stmt 0
 311 0046 0145     		li	a0,0
 312              	.L27:
 313              	.LBE9:
 314              	.LBE8:
  63:C:/Users/stapi/OneDrive/Desktop/GD32VW553/V1_MQTT_OK/GD32VW55X_Wifi_BLE_SDK/GD32VW55x_RELEASE_V1.0.2/MSDK/cloud/alicloud/src/protocol/alcs\alcs_localsetup.c **** 
 315              		.loc 1 63 1
 316 0048 17030000 		tail	__riscv_restore_1
 316      67000300 
 317              		.cfi_remember_state
 318              		.cfi_restore 8
 319              		.cfi_restore 1
 320              		.cfi_def_cfa_offset 0
 321              	.L29:
 322              		.cfi_restore_state
  57:C:/Users/stapi/OneDrive/Desktop/GD32VW553/V1_MQTT_OK/GD32VW55X_Wifi_BLE_SDK/GD32VW55x_RELEASE_V1.0.2/MSDK/cloud/alicloud/src/protocol/alcs\alcs_localsetup.c ****     }
 323              		.loc 1 57 16
 324 0050 0545     		li	a0,1
 325 0052 DDBF     		j	.L27
 326              		.cfi_endproc
 327              	.LFE22:
 329              		.section	.rodata.alcs_service_cb_setup.str1.4,"aMS",@progbits,1
 330              		.align	2
 331              	.LC7:
 332 0000 00       		.string	""
 333 0001 000000   		.align	2
 334              	.LC8:
 335 0004 636F6E66 		.string	"configValue is not found"
 335      69675661 
 335      6C756520 
 335      6973206E 
 335      6F742066 
 336 001d 000000   		.align	2
 337              	.LC9:
 338 0020 61757468 		.string	"authinfo is not found"
 338      696E666F 
 338      20697320 
 338      6E6F7420 
 338      666F756E 
 339 0036 0000     		.align	2
 340              	.LC10:
 341 0038 70617261 		.string	"params is not found"
 341      6D732069 
 341      73206E6F 
 341      7420666F 
 341      756E6400 
 342              		.align	2
 343              	.LC11:
 344 004c 696E7661 		.string	"invalid package"
 344      6C696420 
 344      7061636B 
 344      61676500 
 345              		.align	2
 346              	.LC12:
 347 005c 616C6373 		.string	"alcs_service_cb_setup, path:%s"
 347      5F736572 
 347      76696365 
 347      5F63625F 
 347      73657475 
 348 007b 00       		.align	2
 349              	.LC13:
 350 007c 636F6170 		.string	"coap_local"
 350      5F6C6F63 
 350      616C00
 351 0087 00       		.align	2
 352              	.LC14:
 353 0088 616C6373 		.string	"alcs_service_cb_setup, param is NULL!"
 353      5F736572 
 353      76696365 
 353      5F63625F 
 353      73657475 
 354 00ae 0000     		.align	2
 355              	.LC15:
 356 00b0 696400   		.string	"id"
 357 00b3 00       		.align	2
 358              	.LC16:
 359 00b4 70617261 		.string	"params"
 359      6D7300
 360 00bb 00       		.align	2
 361              	.LC17:
 362 00bc 636F6E66 		.string	"configValue"
 362      69675661 
 362      6C756500 
 363              		.align	2
 364              	.LC18:
 365 00c8 656E7472 		.string	"entry:%.*s"
 365      793A252E 
 365      2A7300
 366 00d3 00       		.align	2
 367              	.LC19:
 368 00d4 61757468 		.string	"authCode"
 368      436F6465 
 368      00
 369 00dd 000000   		.align	2
 370              	.LC20:
 371 00e0 61757468 		.string	"authSecret"
 371      53656372 
 371      657400
 372 00eb 00       		.align	2
 373              	.LC21:
 374 00ec 70726F64 		.string	"productKey"
 374      7563744B 
 374      657900
 375 00f7 00       		.align	2
 376              	.LC22:
 377 00f8 64657669 		.string	"deviceName"
 377      63654E61 
 377      6D6500
 378 0103 00       		.align	2
 379              	.LC23:
 380 0104 414C4353 		.string	"ALCS_KEY"
 380      5F4B4559 
 380      00
 381 010d 000000   		.align	2
 382              	.LC24:
 383 0110 414C4353 		.string	"ALCS KV Get local Prefix And Secret Fail"
 383      204B5620 
 383      47657420 
 383      6C6F6361 
 383      6C205072 
 384 0139 000000   		.align	2
 385              	.LC25:
 386 013c 4E6F2045 		.string	"No Enough Memory"
 386      6E6F7567 
 386      68204D65 
 386      6D6F7279 
 386      00
 387 014d 000000   		.align	2
 388              	.LC26:
 389 0150 5B77726E 		.string	"[wrn] "
 389      5D2000
 390 0157 00       		.align	2
 391              	.LC27:
 392 0158 414C4353 		.string	"ALCS KV Set Prefix And Secret Fail"
 392      204B5620 
 392      53657420 
 392      50726566 
 392      69782041 
 393 017b 00       		.align	2
 394              	.LC28:
 395 017c 414C4353 		.string	"ALCS KV Set, Key: %s, Val: %s, Len: %d"
 395      204B5620 
 395      5365742C 
 395      204B6579 
 395      3A202573 
 396 01a3 00       		.align	2
 397              	.LC29:
 398 01a4 7B226964 		.string	"{\"id\":\"%.*s\",\"code\":200}"
 398      223A2225 
 398      2E2A7322 
 398      2C22636F 
 398      6465223A 
 399 01bd 000000   		.align	2
 400              	.LC30:
 401 01c0 7B226964 		.string	"{\"id\":\"%.*s\",\"code\":400,\"msg\":\"%s\"}"
 401      223A2225 
 401      2E2A7322 
 401      2C22636F 
 401      6465223A 
 402              		.align	2
 403              	.LC31:
 404 01e4 616C6373 		.string	"alcs_service_cb_setup, %s"
 404      5F736572 
 404      76696365 
 404      5F63625F 
 404      73657475 
 405              		.section	.text.alcs_service_cb_setup,"ax",@progbits
 406              		.align	1
 408              	alcs_service_cb_setup:
 409              	.LFB27:
 195:C:/Users/stapi/OneDrive/Desktop/GD32VW553/V1_MQTT_OK/GD32VW55X_Wifi_BLE_SDK/GD32VW55x_RELEASE_V1.0.2/MSDK/cloud/alicloud/src/protocol/alcs\alcs_localsetup.c ****     char payload[128];
 410              		.loc 1 195 1 is_stmt 1
 411              		.cfi_startproc
 412              	.LVL28:
 413 0000 17030000 		call	t0,__riscv_save_12
 413      E7020300 
 414              		.cfi_offset 27, -52
 415              		.cfi_offset 26, -48
 416              		.cfi_offset 25, -44
 417              		.cfi_offset 24, -40
 418              		.cfi_offset 23, -36
 419              		.cfi_offset 22, -32
 420              		.cfi_offset 21, -28
 421              		.cfi_offset 20, -24
 422              		.cfi_offset 19, -20
 423              		.cfi_offset 18, -16
 424              		.cfi_offset 9, -12
 425              		.cfi_offset 8, -8
 426              		.cfi_offset 1, -4
 427              		.cfi_def_cfa_offset 64
 196:C:/Users/stapi/OneDrive/Desktop/GD32VW553/V1_MQTT_OK/GD32VW55X_Wifi_BLE_SDK/GD32VW55x_RELEASE_V1.0.2/MSDK/cloud/alicloud/src/protocol/alcs\alcs_localsetup.c ****     char* id = NULL, *p;
 428              		.loc 1 196 5
 197:C:/Users/stapi/OneDrive/Desktop/GD32VW553/V1_MQTT_OK/GD32VW55X_Wifi_BLE_SDK/GD32VW55x_RELEASE_V1.0.2/MSDK/cloud/alicloud/src/protocol/alcs\alcs_localsetup.c ****     int idlen = 0, len, aclen, aslen, pklen, dnlen;
 429              		.loc 1 197 5
 430              	.LVL29:
 198:C:/Users/stapi/OneDrive/Desktop/GD32VW553/V1_MQTT_OK/GD32VW55X_Wifi_BLE_SDK/GD32VW55x_RELEASE_V1.0.2/MSDK/cloud/alicloud/src/protocol/alcs\alcs_localsetup.c ****     char* ac = NULL, *as = NULL, *pk = NULL, *dn = dn;
 431              		.loc 1 198 5
 195:C:/Users/stapi/OneDrive/Desktop/GD32VW553/V1_MQTT_OK/GD32VW55X_Wifi_BLE_SDK/GD32VW55x_RELEASE_V1.0.2/MSDK/cloud/alicloud/src/protocol/alcs\alcs_localsetup.c ****     char payload[128];
 432              		.loc 1 195 1 is_stmt 0
 433 0008 5171     		addi	sp,sp,-240
 434              		.cfi_def_cfa_offset 304
 207:C:/Users/stapi/OneDrive/Desktop/GD32VW553/V1_MQTT_OK/GD32VW55X_Wifi_BLE_SDK/GD32VW55x_RELEASE_V1.0.2/MSDK/cloud/alicloud/src/protocol/alcs\alcs_localsetup.c ****     do {
 435              		.loc 1 207 5
 436 000a 37090000 		lui	s2,%hi(.LANCHOR0)
 437 000e B7090000 		lui	s3,%hi(.LC13)
 438 0012 37070000 		lui	a4,%hi(.LC12)
 195:C:/Users/stapi/OneDrive/Desktop/GD32VW553/V1_MQTT_OK/GD32VW55X_Wifi_BLE_SDK/GD32VW55x_RELEASE_V1.0.2/MSDK/cloud/alicloud/src/protocol/alcs\alcs_localsetup.c ****     char payload[128];
 439              		.loc 1 195 1
 440 0016 2EC6     		sw	a1,12(sp)
 207:C:/Users/stapi/OneDrive/Desktop/GD32VW553/V1_MQTT_OK/GD32VW55X_Wifi_BLE_SDK/GD32VW55x_RELEASE_V1.0.2/MSDK/cloud/alicloud/src/protocol/alcs\alcs_localsetup.c ****     do {
 441              		.loc 1 207 5
 442 0018 AE87     		mv	a5,a1
 443 001a 13850900 		addi	a0,s3,%lo(.LC13)
 444              	.LVL30:
 445 001e 93050900 		addi	a1,s2,%lo(.LANCHOR0)
 446              	.LVL31:
 195:C:/Users/stapi/OneDrive/Desktop/GD32VW553/V1_MQTT_OK/GD32VW55X_Wifi_BLE_SDK/GD32VW55x_RELEASE_V1.0.2/MSDK/cloud/alicloud/src/protocol/alcs\alcs_localsetup.c ****     char payload[128];
 447              		.loc 1 195 1
 448 0022 328B     		mv	s6,a2
 449 0024 B684     		mv	s1,a3
 207:C:/Users/stapi/OneDrive/Desktop/GD32VW553/V1_MQTT_OK/GD32VW55X_Wifi_BLE_SDK/GD32VW55x_RELEASE_V1.0.2/MSDK/cloud/alicloud/src/protocol/alcs\alcs_localsetup.c ****     do {
 450              		.loc 1 207 5
 451 0026 13070700 		addi	a4,a4,%lo(.LC12)
 452 002a 9546     		li	a3,5
 453              	.LVL32:
 454 002c 1306F00C 		li	a2,207
 455              	.LVL33:
 198:C:/Users/stapi/OneDrive/Desktop/GD32VW553/V1_MQTT_OK/GD32VW55X_Wifi_BLE_SDK/GD32VW55x_RELEASE_V1.0.2/MSDK/cloud/alicloud/src/protocol/alcs\alcs_localsetup.c ****     char* ac = NULL, *as = NULL, *pk = NULL, *dn = dn;
 456              		.loc 1 198 9
 457 0030 02D6     		sw	zero,44(sp)
 199:C:/Users/stapi/OneDrive/Desktop/GD32VW553/V1_MQTT_OK/GD32VW55X_Wifi_BLE_SDK/GD32VW55x_RELEASE_V1.0.2/MSDK/cloud/alicloud/src/protocol/alcs\alcs_localsetup.c ****     bool success = 0;
 458              		.loc 1 199 5 is_stmt 1
 459              	.LVL34:
 200:C:/Users/stapi/OneDrive/Desktop/GD32VW553/V1_MQTT_OK/GD32VW55X_Wifi_BLE_SDK/GD32VW55x_RELEASE_V1.0.2/MSDK/cloud/alicloud/src/protocol/alcs\alcs_localsetup.c ****     char* err_msg = NULL;
 460              		.loc 1 200 5
 201:C:/Users/stapi/OneDrive/Desktop/GD32VW553/V1_MQTT_OK/GD32VW55X_Wifi_BLE_SDK/GD32VW55x_RELEASE_V1.0.2/MSDK/cloud/alicloud/src/protocol/alcs\alcs_localsetup.c ****     char configValueBack, acBack, asBack;
 461              		.loc 1 201 5
 202:C:/Users/stapi/OneDrive/Desktop/GD32VW553/V1_MQTT_OK/GD32VW55X_Wifi_BLE_SDK/GD32VW55x_RELEASE_V1.0.2/MSDK/cloud/alicloud/src/protocol/alcs\alcs_localsetup.c ****     char *str_pos, *entry;
 462              		.loc 1 202 5
 203:C:/Users/stapi/OneDrive/Desktop/GD32VW553/V1_MQTT_OK/GD32VW55X_Wifi_BLE_SDK/GD32VW55x_RELEASE_V1.0.2/MSDK/cloud/alicloud/src/protocol/alcs\alcs_localsetup.c ****     int entry_len, type;
 463              		.loc 1 203 5
 204:C:/Users/stapi/OneDrive/Desktop/GD32VW553/V1_MQTT_OK/GD32VW55X_Wifi_BLE_SDK/GD32VW55x_RELEASE_V1.0.2/MSDK/cloud/alicloud/src/protocol/alcs\alcs_localsetup.c ****     iotx_alcs_msg_t rsp_msg;
 464              		.loc 1 204 5
 205:C:/Users/stapi/OneDrive/Desktop/GD32VW553/V1_MQTT_OK/GD32VW55X_Wifi_BLE_SDK/GD32VW55x_RELEASE_V1.0.2/MSDK/cloud/alicloud/src/protocol/alcs\alcs_localsetup.c **** 
 465              		.loc 1 205 5
 207:C:/Users/stapi/OneDrive/Desktop/GD32VW553/V1_MQTT_OK/GD32VW55X_Wifi_BLE_SDK/GD32VW55x_RELEASE_V1.0.2/MSDK/cloud/alicloud/src/protocol/alcs\alcs_localsetup.c ****     do {
 466              		.loc 1 207 5
 467 0032 97000000 		call	LITE_syslog
 467      E7800000 
 468              	.LVL35:
 208:C:/Users/stapi/OneDrive/Desktop/GD32VW553/V1_MQTT_OK/GD32VW55X_Wifi_BLE_SDK/GD32VW55x_RELEASE_V1.0.2/MSDK/cloud/alicloud/src/protocol/alcs\alcs_localsetup.c ****         if (!remote || !message) {
 469              		.loc 1 208 5
 209:C:/Users/stapi/OneDrive/Desktop/GD32VW553/V1_MQTT_OK/GD32VW55X_Wifi_BLE_SDK/GD32VW55x_RELEASE_V1.0.2/MSDK/cloud/alicloud/src/protocol/alcs\alcs_localsetup.c ****             COAP_DEBUG ("alcs_service_cb_setup, param is NULL!");
 470              		.loc 1 209 9
 471 003a CA85     		mv	a1,s2
 472 003c 4E85     		mv	a0,s3
 473 003e 930A0107 		addi	s5,sp,112
 209:C:/Users/stapi/OneDrive/Desktop/GD32VW553/V1_MQTT_OK/GD32VW55X_Wifi_BLE_SDK/GD32VW55x_RELEASE_V1.0.2/MSDK/cloud/alicloud/src/protocol/alcs\alcs_localsetup.c ****             COAP_DEBUG ("alcs_service_cb_setup, param is NULL!");
 474              		.loc 1 209 12 is_stmt 0
 475 0042 63030B00 		beq	s6,zero,.L32
 209:C:/Users/stapi/OneDrive/Desktop/GD32VW553/V1_MQTT_OK/GD32VW55X_Wifi_BLE_SDK/GD32VW55x_RELEASE_V1.0.2/MSDK/cloud/alicloud/src/protocol/alcs\alcs_localsetup.c ****             COAP_DEBUG ("alcs_service_cb_setup, param is NULL!");
 476              		.loc 1 209 21 discriminator 1
 477 0046 D1E0     		bne	s1,zero,.L33
 478              	.L32:
 210:C:/Users/stapi/OneDrive/Desktop/GD32VW553/V1_MQTT_OK/GD32VW55X_Wifi_BLE_SDK/GD32VW55x_RELEASE_V1.0.2/MSDK/cloud/alicloud/src/protocol/alcs\alcs_localsetup.c ****             err_msg = "invalid package";
 479              		.loc 1 210 13 is_stmt 1
 480 0048 37070000 		lui	a4,%hi(.LC14)
 481 004c 13070700 		addi	a4,a4,%lo(.LC14)
 482 0050 9546     		li	a3,5
 483 0052 1306200D 		li	a2,210
 484 0056 93850500 		addi	a1,a1,%lo(.LANCHOR0)
 485 005a 13050500 		addi	a0,a0,%lo(.LC13)
 211:C:/Users/stapi/OneDrive/Desktop/GD32VW553/V1_MQTT_OK/GD32VW55X_Wifi_BLE_SDK/GD32VW55x_RELEASE_V1.0.2/MSDK/cloud/alicloud/src/protocol/alcs\alcs_localsetup.c ****             break;
 486              		.loc 1 211 21 is_stmt 0
 487 005e 37090000 		lui	s2,%hi(.LC11)
 210:C:/Users/stapi/OneDrive/Desktop/GD32VW553/V1_MQTT_OK/GD32VW55X_Wifi_BLE_SDK/GD32VW55x_RELEASE_V1.0.2/MSDK/cloud/alicloud/src/protocol/alcs\alcs_localsetup.c ****             err_msg = "invalid package";
 488              		.loc 1 210 13
 489 0062 97000000 		call	LITE_syslog
 489      E7800000 
 490              	.LVL36:
 211:C:/Users/stapi/OneDrive/Desktop/GD32VW553/V1_MQTT_OK/GD32VW55X_Wifi_BLE_SDK/GD32VW55x_RELEASE_V1.0.2/MSDK/cloud/alicloud/src/protocol/alcs\alcs_localsetup.c ****             break;
 491              		.loc 1 211 13 is_stmt 1
 212:C:/Users/stapi/OneDrive/Desktop/GD32VW553/V1_MQTT_OK/GD32VW55X_Wifi_BLE_SDK/GD32VW55x_RELEASE_V1.0.2/MSDK/cloud/alicloud/src/protocol/alcs\alcs_localsetup.c ****         }
 492              		.loc 1 212 13
 211:C:/Users/stapi/OneDrive/Desktop/GD32VW553/V1_MQTT_OK/GD32VW55X_Wifi_BLE_SDK/GD32VW55x_RELEASE_V1.0.2/MSDK/cloud/alicloud/src/protocol/alcs\alcs_localsetup.c ****             break;
 493              		.loc 1 211 21 is_stmt 0
 494 006a 13090900 		addi	s2,s2,%lo(.LC11)
 197:C:/Users/stapi/OneDrive/Desktop/GD32VW553/V1_MQTT_OK/GD32VW55X_Wifi_BLE_SDK/GD32VW55x_RELEASE_V1.0.2/MSDK/cloud/alicloud/src/protocol/alcs\alcs_localsetup.c ****     int idlen = 0, len, aclen, aslen, pklen, dnlen;
 495              		.loc 1 197 11
 496 006e 0144     		li	s0,0
 497              	.LVL37:
 498              	.L34:
 257:C:/Users/stapi/OneDrive/Desktop/GD32VW553/V1_MQTT_OK/GD32VW55X_Wifi_BLE_SDK/GD32VW55x_RELEASE_V1.0.2/MSDK/cloud/alicloud/src/protocol/alcs\alcs_localsetup.c **** 
 499              		.loc 1 257 13 is_stmt 1
 259:C:/Users/stapi/OneDrive/Desktop/GD32VW553/V1_MQTT_OK/GD32VW55X_Wifi_BLE_SDK/GD32VW55x_RELEASE_V1.0.2/MSDK/cloud/alicloud/src/protocol/alcs\alcs_localsetup.c ****         HAL_Snprintf(payload, sizeof(payload), "{\"id\":\"%.*s\",\"code\":200}", idlen, id? id : ""
 500              		.loc 1 259 5
 262:C:/Users/stapi/OneDrive/Desktop/GD32VW553/V1_MQTT_OK/GD32VW55X_Wifi_BLE_SDK/GD32VW55x_RELEASE_V1.0.2/MSDK/cloud/alicloud/src/protocol/alcs\alcs_localsetup.c ****         COAP_ERR ("alcs_service_cb_setup, %s", err_msg);
 501              		.loc 1 262 9
 502 0070 B256     		lw	a3,44(sp)
 503 0072 09E4     		bne	s0,zero,.L49
 504 0074 37040000 		lui	s0,%hi(.LC7)
 505              	.LVL38:
 506 0078 13040400 		addi	s0,s0,%lo(.LC7)
 507              	.L49:
 508              	.LVL39:
 262:C:/Users/stapi/OneDrive/Desktop/GD32VW553/V1_MQTT_OK/GD32VW55X_Wifi_BLE_SDK/GD32VW55x_RELEASE_V1.0.2/MSDK/cloud/alicloud/src/protocol/alcs\alcs_localsetup.c ****         COAP_ERR ("alcs_service_cb_setup, %s", err_msg);
 509              		.loc 1 262 9 is_stmt 0 discriminator 4
 510 007c 37060000 		lui	a2,%hi(.LC30)
 511 0080 CA87     		mv	a5,s2
 512 0082 2287     		mv	a4,s0
 513 0084 13060600 		addi	a2,a2,%lo(.LC30)
 514 0088 93050008 		li	a1,128
 515 008c 5685     		mv	a0,s5
 516 008e 97000000 		call	HAL_Snprintf
 516      E7800000 
 517              	.LVL40:
 263:C:/Users/stapi/OneDrive/Desktop/GD32VW553/V1_MQTT_OK/GD32VW55X_Wifi_BLE_SDK/GD32VW55x_RELEASE_V1.0.2/MSDK/cloud/alicloud/src/protocol/alcs\alcs_localsetup.c ****     }
 518              		.loc 1 263 9 is_stmt 1 discriminator 4
 263:C:/Users/stapi/OneDrive/Desktop/GD32VW553/V1_MQTT_OK/GD32VW55X_Wifi_BLE_SDK/GD32VW55x_RELEASE_V1.0.2/MSDK/cloud/alicloud/src/protocol/alcs\alcs_localsetup.c ****     }
 519              		.loc 1 263 9 discriminator 4
 520 0096 37050000 		lui	a0,%hi(.LC0)
 521 009a 13050500 		addi	a0,a0,%lo(.LC0)
 522 009e 97000000 		call	HAL_Printf
 522      E7800000 
 523              	.LVL41:
 263:C:/Users/stapi/OneDrive/Desktop/GD32VW553/V1_MQTT_OK/GD32VW55X_Wifi_BLE_SDK/GD32VW55x_RELEASE_V1.0.2/MSDK/cloud/alicloud/src/protocol/alcs\alcs_localsetup.c ****     }
 524              		.loc 1 263 9 discriminator 4
 525 00a6 37050000 		lui	a0,%hi(.LC31)
 526 00aa CA85     		mv	a1,s2
 527 00ac 13050500 		addi	a0,a0,%lo(.LC31)
 528 00b0 97000000 		call	HAL_Printf
 528      E7800000 
 529              	.LVL42:
 263:C:/Users/stapi/OneDrive/Desktop/GD32VW553/V1_MQTT_OK/GD32VW55X_Wifi_BLE_SDK/GD32VW55x_RELEASE_V1.0.2/MSDK/cloud/alicloud/src/protocol/alcs\alcs_localsetup.c ****     }
 530              		.loc 1 263 9 discriminator 4
 531 00b8 37050000 		lui	a0,%hi(.LC2)
 532 00bc 13050500 		addi	a0,a0,%lo(.LC2)
 533 00c0 97000000 		call	HAL_Printf
 533      E7800000 
 534              	.LVL43:
 535 00c8 39AC     		j	.L46
 536              	.LVL44:
 537              	.L33:
 215:C:/Users/stapi/OneDrive/Desktop/GD32VW553/V1_MQTT_OK/GD32VW55X_Wifi_BLE_SDK/GD32VW55x_RELEASE_V1.0.2/MSDK/cloud/alicloud/src/protocol/alcs\alcs_localsetup.c ****         p = json_get_value_by_name((char*)message->payload, message->payloadlen, "params", &len, (i
 538              		.loc 1 215 9
 215:C:/Users/stapi/OneDrive/Desktop/GD32VW553/V1_MQTT_OK/GD32VW55X_Wifi_BLE_SDK/GD32VW55x_RELEASE_V1.0.2/MSDK/cloud/alicloud/src/protocol/alcs\alcs_localsetup.c ****         p = json_get_value_by_name((char*)message->payload, message->payloadlen, "params", &len, (i
 539              		.loc 1 215 14 is_stmt 0
 540 00ca 83D5E406 		lhu	a1,110(s1)
 541 00ce A858     		lw	a0,112(s1)
 542 00d0 37060000 		lui	a2,%hi(.LC15)
 543 00d4 0147     		li	a4,0
 544 00d6 7410     		addi	a3,sp,44
 545 00d8 13060600 		addi	a2,a2,%lo(.LC15)
 546 00dc 97000000 		call	json_get_value_by_name
 546      E7800000 
 547              	.LVL45:
 548 00e4 2A84     		mv	s0,a0
 549              	.LVL46:
 216:C:/Users/stapi/OneDrive/Desktop/GD32VW553/V1_MQTT_OK/GD32VW55X_Wifi_BLE_SDK/GD32VW55x_RELEASE_V1.0.2/MSDK/cloud/alicloud/src/protocol/alcs\alcs_localsetup.c ****         if (!p || !len) {
 550              		.loc 1 216 9 is_stmt 1
 216:C:/Users/stapi/OneDrive/Desktop/GD32VW553/V1_MQTT_OK/GD32VW55X_Wifi_BLE_SDK/GD32VW55x_RELEASE_V1.0.2/MSDK/cloud/alicloud/src/protocol/alcs\alcs_localsetup.c ****         if (!p || !len) {
 551              		.loc 1 216 13 is_stmt 0
 552 00e6 83D5E406 		lhu	a1,110(s1)
 553 00ea A858     		lw	a0,112(s1)
 554 00ec 37060000 		lui	a2,%hi(.LC16)
 555 00f0 0147     		li	a4,0
 556 00f2 1418     		addi	a3,sp,48
 557 00f4 13060600 		addi	a2,a2,%lo(.LC16)
 558 00f8 97000000 		call	json_get_value_by_name
 558      E7800000 
 559              	.LVL47:
 217:C:/Users/stapi/OneDrive/Desktop/GD32VW553/V1_MQTT_OK/GD32VW55X_Wifi_BLE_SDK/GD32VW55x_RELEASE_V1.0.2/MSDK/cloud/alicloud/src/protocol/alcs\alcs_localsetup.c ****             err_msg = "params is not found";
 560              		.loc 1 217 9 is_stmt 1
 217:C:/Users/stapi/OneDrive/Desktop/GD32VW553/V1_MQTT_OK/GD32VW55X_Wifi_BLE_SDK/GD32VW55x_RELEASE_V1.0.2/MSDK/cloud/alicloud/src/protocol/alcs\alcs_localsetup.c ****             err_msg = "params is not found";
 561              		.loc 1 217 12 is_stmt 0
 562 0100 630F053A 		beq	a0,zero,.L51
 217:C:/Users/stapi/OneDrive/Desktop/GD32VW553/V1_MQTT_OK/GD32VW55X_Wifi_BLE_SDK/GD32VW55x_RELEASE_V1.0.2/MSDK/cloud/alicloud/src/protocol/alcs\alcs_localsetup.c ****             err_msg = "params is not found";
 563              		.loc 1 217 19 discriminator 1
 564 0104 C255     		lw	a1,48(sp)
 217:C:/Users/stapi/OneDrive/Desktop/GD32VW553/V1_MQTT_OK/GD32VW55X_Wifi_BLE_SDK/GD32VW55x_RELEASE_V1.0.2/MSDK/cloud/alicloud/src/protocol/alcs\alcs_localsetup.c ****             err_msg = "params is not found";
 565              		.loc 1 217 16 discriminator 1
 566 0106 638C053A 		beq	a1,zero,.L51
 222:C:/Users/stapi/OneDrive/Desktop/GD32VW553/V1_MQTT_OK/GD32VW55X_Wifi_BLE_SDK/GD32VW55x_RELEASE_V1.0.2/MSDK/cloud/alicloud/src/protocol/alcs\alcs_localsetup.c ****         if (!p || !len) {
 567              		.loc 1 222 9 is_stmt 1
 222:C:/Users/stapi/OneDrive/Desktop/GD32VW553/V1_MQTT_OK/GD32VW55X_Wifi_BLE_SDK/GD32VW55x_RELEASE_V1.0.2/MSDK/cloud/alicloud/src/protocol/alcs\alcs_localsetup.c ****         if (!p || !len) {
 568              		.loc 1 222 13 is_stmt 0
 569 010a 37060000 		lui	a2,%hi(.LC17)
 570 010e 0147     		li	a4,0
 571 0110 1418     		addi	a3,sp,48
 572 0112 13060600 		addi	a2,a2,%lo(.LC17)
 573 0116 97000000 		call	json_get_value_by_name
 573      E7800000 
 574              	.LVL48:
 575 011e 2A8C     		mv	s8,a0
 576              	.LVL49:
 223:C:/Users/stapi/OneDrive/Desktop/GD32VW553/V1_MQTT_OK/GD32VW55X_Wifi_BLE_SDK/GD32VW55x_RELEASE_V1.0.2/MSDK/cloud/alicloud/src/protocol/alcs\alcs_localsetup.c ****             err_msg = "configValue is not found";
 577              		.loc 1 223 9 is_stmt 1
 223:C:/Users/stapi/OneDrive/Desktop/GD32VW553/V1_MQTT_OK/GD32VW55X_Wifi_BLE_SDK/GD32VW55x_RELEASE_V1.0.2/MSDK/cloud/alicloud/src/protocol/alcs\alcs_localsetup.c ****             err_msg = "configValue is not found";
 578              		.loc 1 223 12 is_stmt 0
 579 0120 6304053A 		beq	a0,zero,.L53
 223:C:/Users/stapi/OneDrive/Desktop/GD32VW553/V1_MQTT_OK/GD32VW55X_Wifi_BLE_SDK/GD32VW55x_RELEASE_V1.0.2/MSDK/cloud/alicloud/src/protocol/alcs\alcs_localsetup.c ****             err_msg = "configValue is not found";
 580              		.loc 1 223 19 discriminator 1
 581 0124 C257     		lw	a5,48(sp)
 223:C:/Users/stapi/OneDrive/Desktop/GD32VW553/V1_MQTT_OK/GD32VW55X_Wifi_BLE_SDK/GD32VW55x_RELEASE_V1.0.2/MSDK/cloud/alicloud/src/protocol/alcs\alcs_localsetup.c ****             err_msg = "configValue is not found";
 582              		.loc 1 223 16 discriminator 1
 583 0126 6381073A 		beq	a5,zero,.L53
 228:C:/Users/stapi/OneDrive/Desktop/GD32VW553/V1_MQTT_OK/GD32VW55X_Wifi_BLE_SDK/GD32VW55x_RELEASE_V1.0.2/MSDK/cloud/alicloud/src/protocol/alcs\alcs_localsetup.c **** 
 584              		.loc 1 228 9 is_stmt 1
 585 012a AA97     		add	a5,a0,a5
 586 012c 838C0700 		lb	s9,0(a5)
 587              	.LVL50:
 228:C:/Users/stapi/OneDrive/Desktop/GD32VW553/V1_MQTT_OK/GD32VW55X_Wifi_BLE_SDK/GD32VW55x_RELEASE_V1.0.2/MSDK/cloud/alicloud/src/protocol/alcs\alcs_localsetup.c **** 
 588              		.loc 1 228 9
 589 0130 23800700 		sb	zero,0(a5)
 228:C:/Users/stapi/OneDrive/Desktop/GD32VW553/V1_MQTT_OK/GD32VW55X_Wifi_BLE_SDK/GD32VW55x_RELEASE_V1.0.2/MSDK/cloud/alicloud/src/protocol/alcs\alcs_localsetup.c **** 
 590              		.loc 1 228 60
 230:C:/Users/stapi/OneDrive/Desktop/GD32VW553/V1_MQTT_OK/GD32VW55X_Wifi_BLE_SDK/GD32VW55x_RELEASE_V1.0.2/MSDK/cloud/alicloud/src/protocol/alcs\alcs_localsetup.c ****             COAP_DEBUG ("entry:%.*s", entry_len, entry);
 591              		.loc 1 230 9
 592 0134 4256     		lw	a2,48(sp)
 593 0136 AA85     		mv	a1,a0
 594 0138 2A96     		add	a2,a0,a2
 595 013a 0945     		li	a0,2
 596              	.LVL51:
 597 013c 97000000 		call	json_get_object
 597      E7800000 
 598              	.LVL52:
 230:C:/Users/stapi/OneDrive/Desktop/GD32VW553/V1_MQTT_OK/GD32VW55X_Wifi_BLE_SDK/GD32VW55x_RELEASE_V1.0.2/MSDK/cloud/alicloud/src/protocol/alcs\alcs_localsetup.c ****             COAP_DEBUG ("entry:%.*s", entry_len, entry);
 599              		.loc 1 230 9
 600 0144 631F051E 		bne	a0,zero,.L35
 601              	.L37:
 199:C:/Users/stapi/OneDrive/Desktop/GD32VW553/V1_MQTT_OK/GD32VW55X_Wifi_BLE_SDK/GD32VW55x_RELEASE_V1.0.2/MSDK/cloud/alicloud/src/protocol/alcs\alcs_localsetup.c ****     bool success = 0;
 602              		.loc 1 199 35 is_stmt 0
 603 0148 014A     		li	s4,0
 199:C:/Users/stapi/OneDrive/Desktop/GD32VW553/V1_MQTT_OK/GD32VW55X_Wifi_BLE_SDK/GD32VW55x_RELEASE_V1.0.2/MSDK/cloud/alicloud/src/protocol/alcs\alcs_localsetup.c ****     bool success = 0;
 604              		.loc 1 199 23
 605 014a 0149     		li	s2,0
 199:C:/Users/stapi/OneDrive/Desktop/GD32VW553/V1_MQTT_OK/GD32VW55X_Wifi_BLE_SDK/GD32VW55x_RELEASE_V1.0.2/MSDK/cloud/alicloud/src/protocol/alcs\alcs_localsetup.c ****     bool success = 0;
 606              		.loc 1 199 11
 607 014c 8149     		li	s3,0
 608              	.LVL53:
 609              	.L36:
 238:C:/Users/stapi/OneDrive/Desktop/GD32VW553/V1_MQTT_OK/GD32VW55X_Wifi_BLE_SDK/GD32VW55x_RELEASE_V1.0.2/MSDK/cloud/alicloud/src/protocol/alcs\alcs_localsetup.c **** 
 610              		.loc 1 238 9 is_stmt 1
 611 014e 4255     		lw	a0,48(sp)
 612 0150 2A9C     		add	s8,s8,a0
 613              	.LVL54:
 614 0152 23009C01 		sb	s9,0(s8)
 238:C:/Users/stapi/OneDrive/Desktop/GD32VW553/V1_MQTT_OK/GD32VW55X_Wifi_BLE_SDK/GD32VW55x_RELEASE_V1.0.2/MSDK/cloud/alicloud/src/protocol/alcs\alcs_localsetup.c **** 
 615              		.loc 1 238 61
 240:C:/Users/stapi/OneDrive/Desktop/GD32VW553/V1_MQTT_OK/GD32VW55X_Wifi_BLE_SDK/GD32VW55x_RELEASE_V1.0.2/MSDK/cloud/alicloud/src/protocol/alcs\alcs_localsetup.c ****             err_msg = "authinfo is not found";
 616              		.loc 1 240 9
 240:C:/Users/stapi/OneDrive/Desktop/GD32VW553/V1_MQTT_OK/GD32VW55X_Wifi_BLE_SDK/GD32VW55x_RELEASE_V1.0.2/MSDK/cloud/alicloud/src/protocol/alcs\alcs_localsetup.c ****             err_msg = "authinfo is not found";
 617              		.loc 1 240 12 is_stmt 0
 618 0156 638E0936 		beq	s3,zero,.L61
 240:C:/Users/stapi/OneDrive/Desktop/GD32VW553/V1_MQTT_OK/GD32VW55X_Wifi_BLE_SDK/GD32VW55x_RELEASE_V1.0.2/MSDK/cloud/alicloud/src/protocol/alcs\alcs_localsetup.c ****             err_msg = "authinfo is not found";
 619              		.loc 1 240 20 discriminator 1
 620 015a D257     		lw	a5,52(sp)
 240:C:/Users/stapi/OneDrive/Desktop/GD32VW553/V1_MQTT_OK/GD32VW55X_Wifi_BLE_SDK/GD32VW55x_RELEASE_V1.0.2/MSDK/cloud/alicloud/src/protocol/alcs\alcs_localsetup.c ****             err_msg = "authinfo is not found";
 621              		.loc 1 240 17 discriminator 1
 622 015c 638B0736 		beq	a5,zero,.L61
 240:C:/Users/stapi/OneDrive/Desktop/GD32VW553/V1_MQTT_OK/GD32VW55X_Wifi_BLE_SDK/GD32VW55x_RELEASE_V1.0.2/MSDK/cloud/alicloud/src/protocol/alcs\alcs_localsetup.c ****             err_msg = "authinfo is not found";
 623              		.loc 1 240 27 discriminator 2
 624 0160 63090936 		beq	s2,zero,.L61
 240:C:/Users/stapi/OneDrive/Desktop/GD32VW553/V1_MQTT_OK/GD32VW55X_Wifi_BLE_SDK/GD32VW55x_RELEASE_V1.0.2/MSDK/cloud/alicloud/src/protocol/alcs\alcs_localsetup.c ****             err_msg = "authinfo is not found";
 625              		.loc 1 240 34 discriminator 3
 626 0164 6257     		lw	a4,56(sp)
 627 0166 63060736 		beq	a4,zero,.L61
 240:C:/Users/stapi/OneDrive/Desktop/GD32VW553/V1_MQTT_OK/GD32VW55X_Wifi_BLE_SDK/GD32VW55x_RELEASE_V1.0.2/MSDK/cloud/alicloud/src/protocol/alcs\alcs_localsetup.c ****             err_msg = "authinfo is not found";
 628              		.loc 1 240 44 discriminator 4
 629 016a 63040A36 		beq	s4,zero,.L61
 240:C:/Users/stapi/OneDrive/Desktop/GD32VW553/V1_MQTT_OK/GD32VW55X_Wifi_BLE_SDK/GD32VW55x_RELEASE_V1.0.2/MSDK/cloud/alicloud/src/protocol/alcs\alcs_localsetup.c ****             err_msg = "authinfo is not found";
 630              		.loc 1 240 51 discriminator 5
 631 016e 7257     		lw	a4,60(sp)
 632 0170 63010736 		beq	a4,zero,.L61
 240:C:/Users/stapi/OneDrive/Desktop/GD32VW553/V1_MQTT_OK/GD32VW55X_Wifi_BLE_SDK/GD32VW55x_RELEASE_V1.0.2/MSDK/cloud/alicloud/src/protocol/alcs\alcs_localsetup.c ****             err_msg = "authinfo is not found";
 633              		.loc 1 240 61 discriminator 6
 634 0174 638F0B34 		beq	s7,zero,.L61
 240:C:/Users/stapi/OneDrive/Desktop/GD32VW553/V1_MQTT_OK/GD32VW55X_Wifi_BLE_SDK/GD32VW55x_RELEASE_V1.0.2/MSDK/cloud/alicloud/src/protocol/alcs\alcs_localsetup.c ****             err_msg = "authinfo is not found";
 635              		.loc 1 240 68 discriminator 7
 636 0178 0647     		lw	a4,64(sp)
 637 017a 630C0734 		beq	a4,zero,.L61
 246:C:/Users/stapi/OneDrive/Desktop/GD32VW553/V1_MQTT_OK/GD32VW55X_Wifi_BLE_SDK/GD32VW55x_RELEASE_V1.0.2/MSDK/cloud/alicloud/src/protocol/alcs\alcs_localsetup.c ****         backup_json_str_last_char (as, aslen, asBack);
 638              		.loc 1 246 9 is_stmt 1
 639 017e CE97     		add	a5,s3,a5
 640 0180 03870700 		lb	a4,0(a5)
 641 0184 23800700 		sb	zero,0(a5)
 247:C:/Users/stapi/OneDrive/Desktop/GD32VW553/V1_MQTT_OK/GD32VW55X_Wifi_BLE_SDK/GD32VW55x_RELEASE_V1.0.2/MSDK/cloud/alicloud/src/protocol/alcs\alcs_localsetup.c ****         __alcs_localsetup_ac_as_del (pk, pklen, dn, dnlen);
 642              		.loc 1 247 9 is_stmt 0
 643 0188 E257     		lw	a5,56(sp)
 246:C:/Users/stapi/OneDrive/Desktop/GD32VW553/V1_MQTT_OK/GD32VW55X_Wifi_BLE_SDK/GD32VW55x_RELEASE_V1.0.2/MSDK/cloud/alicloud/src/protocol/alcs\alcs_localsetup.c ****         backup_json_str_last_char (as, aslen, asBack);
 644              		.loc 1 246 9
 645 018a 3AC8     		sw	a4,16(sp)
 646              	.LVL55:
 246:C:/Users/stapi/OneDrive/Desktop/GD32VW553/V1_MQTT_OK/GD32VW55X_Wifi_BLE_SDK/GD32VW55x_RELEASE_V1.0.2/MSDK/cloud/alicloud/src/protocol/alcs\alcs_localsetup.c ****         backup_json_str_last_char (as, aslen, asBack);
 647              		.loc 1 246 9 is_stmt 1
 246:C:/Users/stapi/OneDrive/Desktop/GD32VW553/V1_MQTT_OK/GD32VW55X_Wifi_BLE_SDK/GD32VW55x_RELEASE_V1.0.2/MSDK/cloud/alicloud/src/protocol/alcs\alcs_localsetup.c ****         backup_json_str_last_char (as, aslen, asBack);
 648              		.loc 1 246 54
 247:C:/Users/stapi/OneDrive/Desktop/GD32VW553/V1_MQTT_OK/GD32VW55X_Wifi_BLE_SDK/GD32VW55x_RELEASE_V1.0.2/MSDK/cloud/alicloud/src/protocol/alcs\alcs_localsetup.c ****         __alcs_localsetup_ac_as_del (pk, pklen, dn, dnlen);
 649              		.loc 1 247 9
 650              	.LBB16:
 651              	.LBB17:
 175:C:/Users/stapi/OneDrive/Desktop/GD32VW553/V1_MQTT_OK/GD32VW55X_Wifi_BLE_SDK/GD32VW55x_RELEASE_V1.0.2/MSDK/cloud/alicloud/src/protocol/alcs\alcs_localsetup.c ****     int rt;
 652              		.loc 1 175 10 is_stmt 0
 653 018c 7546     		li	a2,29
 654              	.LBE17:
 655              	.LBE16:
 247:C:/Users/stapi/OneDrive/Desktop/GD32VW553/V1_MQTT_OK/GD32VW55X_Wifi_BLE_SDK/GD32VW55x_RELEASE_V1.0.2/MSDK/cloud/alicloud/src/protocol/alcs\alcs_localsetup.c ****         __alcs_localsetup_ac_as_del (pk, pklen, dn, dnlen);
 656              		.loc 1 247 9
 657 018e CA97     		add	a5,s2,a5
 658 0190 03870700 		lb	a4,0(a5)
 659 0194 23800700 		sb	zero,0(a5)
 248:C:/Users/stapi/OneDrive/Desktop/GD32VW553/V1_MQTT_OK/GD32VW55X_Wifi_BLE_SDK/GD32VW55x_RELEASE_V1.0.2/MSDK/cloud/alicloud/src/protocol/alcs\alcs_localsetup.c ****         __alcs_localsetup_ac_as_save (pk, pklen, dn, dnlen, ac, aclen, as, aslen);
 660              		.loc 1 248 9
 661 0198 83560104 		lhu	a3,64(sp)
 662              	.LBB20:
 663              	.LBB18:
 175:C:/Users/stapi/OneDrive/Desktop/GD32VW553/V1_MQTT_OK/GD32VW55X_Wifi_BLE_SDK/GD32VW55x_RELEASE_V1.0.2/MSDK/cloud/alicloud/src/protocol/alcs\alcs_localsetup.c ****     int rt;
 664              		.loc 1 175 10
 665 019c 8145     		li	a1,0
 666 019e C818     		addi	a0,sp,116
 667              	.LBE18:
 668              	.LBE20:
 248:C:/Users/stapi/OneDrive/Desktop/GD32VW553/V1_MQTT_OK/GD32VW55X_Wifi_BLE_SDK/GD32VW55x_RELEASE_V1.0.2/MSDK/cloud/alicloud/src/protocol/alcs\alcs_localsetup.c ****         __alcs_localsetup_ac_as_save (pk, pklen, dn, dnlen, ac, aclen, as, aslen);
 669              		.loc 1 248 9
 670 01a0 035CC103 		lhu	s8,60(sp)
 247:C:/Users/stapi/OneDrive/Desktop/GD32VW553/V1_MQTT_OK/GD32VW55X_Wifi_BLE_SDK/GD32VW55x_RELEASE_V1.0.2/MSDK/cloud/alicloud/src/protocol/alcs\alcs_localsetup.c ****         __alcs_localsetup_ac_as_del (pk, pklen, dn, dnlen);
 671              		.loc 1 247 9
 672 01a4 3ACA     		sw	a4,20(sp)
 673              	.LVL56:
 247:C:/Users/stapi/OneDrive/Desktop/GD32VW553/V1_MQTT_OK/GD32VW55X_Wifi_BLE_SDK/GD32VW55x_RELEASE_V1.0.2/MSDK/cloud/alicloud/src/protocol/alcs\alcs_localsetup.c ****         __alcs_localsetup_ac_as_del (pk, pklen, dn, dnlen);
 674              		.loc 1 247 9 is_stmt 1
 247:C:/Users/stapi/OneDrive/Desktop/GD32VW553/V1_MQTT_OK/GD32VW55X_Wifi_BLE_SDK/GD32VW55x_RELEASE_V1.0.2/MSDK/cloud/alicloud/src/protocol/alcs\alcs_localsetup.c ****         __alcs_localsetup_ac_as_del (pk, pklen, dn, dnlen);
 675              		.loc 1 247 54
 248:C:/Users/stapi/OneDrive/Desktop/GD32VW553/V1_MQTT_OK/GD32VW55X_Wifi_BLE_SDK/GD32VW55x_RELEASE_V1.0.2/MSDK/cloud/alicloud/src/protocol/alcs\alcs_localsetup.c ****         __alcs_localsetup_ac_as_save (pk, pklen, dn, dnlen, ac, aclen, as, aslen);
 676              		.loc 1 248 9
 677 01a6 36CC     		sw	a3,24(sp)
 678              	.LVL57:
 679              	.LBB21:
 680              	.LBB19:
 175:C:/Users/stapi/OneDrive/Desktop/GD32VW553/V1_MQTT_OK/GD32VW55X_Wifi_BLE_SDK/GD32VW55x_RELEASE_V1.0.2/MSDK/cloud/alicloud/src/protocol/alcs\alcs_localsetup.c ****     int rt;
 681              		.loc 1 175 5
 175:C:/Users/stapi/OneDrive/Desktop/GD32VW553/V1_MQTT_OK/GD32VW55X_Wifi_BLE_SDK/GD32VW55x_RELEASE_V1.0.2/MSDK/cloud/alicloud/src/protocol/alcs\alcs_localsetup.c ****     int rt;
 682              		.loc 1 175 10 is_stmt 0
 683 01a8 82D8     		sw	zero,112(sp)
 684 01aa 97000000 		call	memset
 684      E7800000 
 685              	.LVL58:
 176:C:/Users/stapi/OneDrive/Desktop/GD32VW553/V1_MQTT_OK/GD32VW55X_Wifi_BLE_SDK/GD32VW55x_RELEASE_V1.0.2/MSDK/cloud/alicloud/src/protocol/alcs\alcs_localsetup.c ****     rt = __fill_key(pk, pk_len, dn, dn_len, key_md5_hexstr);
 686              		.loc 1 176 5 is_stmt 1
 177:C:/Users/stapi/OneDrive/Desktop/GD32VW553/V1_MQTT_OK/GD32VW55X_Wifi_BLE_SDK/GD32VW55x_RELEASE_V1.0.2/MSDK/cloud/alicloud/src/protocol/alcs\alcs_localsetup.c ****     if (rt != ALCS_LOCALSETUP_SUCCESS) {
 687              		.loc 1 177 5
 177:C:/Users/stapi/OneDrive/Desktop/GD32VW553/V1_MQTT_OK/GD32VW55X_Wifi_BLE_SDK/GD32VW55x_RELEASE_V1.0.2/MSDK/cloud/alicloud/src/protocol/alcs\alcs_localsetup.c ****     if (rt != ALCS_LOCALSETUP_SUCCESS) {
 688              		.loc 1 177 10 is_stmt 0
 689 01b2 E246     		lw	a3,24(sp)
 690 01b4 5687     		mv	a4,s5
 691 01b6 5E86     		mv	a2,s7
 692 01b8 E285     		mv	a1,s8
 693 01ba 5285     		mv	a0,s4
 694 01bc 97000000 		call	__fill_key
 694      E7800000 
 695              	.LVL59:
 178:C:/Users/stapi/OneDrive/Desktop/GD32VW553/V1_MQTT_OK/GD32VW55X_Wifi_BLE_SDK/GD32VW55x_RELEASE_V1.0.2/MSDK/cloud/alicloud/src/protocol/alcs\alcs_localsetup.c ****         return rt;
 696              		.loc 1 178 5 is_stmt 1
 178:C:/Users/stapi/OneDrive/Desktop/GD32VW553/V1_MQTT_OK/GD32VW55X_Wifi_BLE_SDK/GD32VW55x_RELEASE_V1.0.2/MSDK/cloud/alicloud/src/protocol/alcs\alcs_localsetup.c ****         return rt;
 697              		.loc 1 178 8 is_stmt 0
 698 01c4 31E1     		bne	a0,zero,.L40
 183:C:/Users/stapi/OneDrive/Desktop/GD32VW553/V1_MQTT_OK/GD32VW55X_Wifi_BLE_SDK/GD32VW55x_RELEASE_V1.0.2/MSDK/cloud/alicloud/src/protocol/alcs\alcs_localsetup.c **** #else
 699              		.loc 1 183 5 is_stmt 1
 183:C:/Users/stapi/OneDrive/Desktop/GD32VW553/V1_MQTT_OK/GD32VW55X_Wifi_BLE_SDK/GD32VW55x_RELEASE_V1.0.2/MSDK/cloud/alicloud/src/protocol/alcs\alcs_localsetup.c **** #else
 700              		.loc 1 183 36 is_stmt 0
 701 01c6 37050000 		lui	a0,%hi(.LC23)
 702              	.LVL60:
 703 01ca 13050500 		addi	a0,a0,%lo(.LC23)
 704 01ce 97000000 		call	__alcs_localsetup_kv_del
 704      E7800000 
 705              	.LVL61:
 183:C:/Users/stapi/OneDrive/Desktop/GD32VW553/V1_MQTT_OK/GD32VW55X_Wifi_BLE_SDK/GD32VW55x_RELEASE_V1.0.2/MSDK/cloud/alicloud/src/protocol/alcs\alcs_localsetup.c **** #else
 706              		.loc 1 183 8
 707 01d6 0DC9     		beq	a0,zero,.L40
 187:C:/Users/stapi/OneDrive/Desktop/GD32VW553/V1_MQTT_OK/GD32VW55X_Wifi_BLE_SDK/GD32VW55x_RELEASE_V1.0.2/MSDK/cloud/alicloud/src/protocol/alcs\alcs_localsetup.c ****         return ALCS_LOCALSETUP_ERROR;
 708              		.loc 1 187 9 is_stmt 1
 187:C:/Users/stapi/OneDrive/Desktop/GD32VW553/V1_MQTT_OK/GD32VW55X_Wifi_BLE_SDK/GD32VW55x_RELEASE_V1.0.2/MSDK/cloud/alicloud/src/protocol/alcs\alcs_localsetup.c ****         return ALCS_LOCALSETUP_ERROR;
 709              		.loc 1 187 9
 710 01d8 37050000 		lui	a0,%hi(.LC0)
 711 01dc 13050500 		addi	a0,a0,%lo(.LC0)
 712 01e0 97000000 		call	HAL_Printf
 712      E7800000 
 713              	.LVL62:
 187:C:/Users/stapi/OneDrive/Desktop/GD32VW553/V1_MQTT_OK/GD32VW55X_Wifi_BLE_SDK/GD32VW55x_RELEASE_V1.0.2/MSDK/cloud/alicloud/src/protocol/alcs\alcs_localsetup.c ****         return ALCS_LOCALSETUP_ERROR;
 714              		.loc 1 187 9
 715 01e8 37050000 		lui	a0,%hi(.LC24)
 716 01ec 13050500 		addi	a0,a0,%lo(.LC24)
 717 01f0 97000000 		call	HAL_Printf
 717      E7800000 
 718              	.LVL63:
 187:C:/Users/stapi/OneDrive/Desktop/GD32VW553/V1_MQTT_OK/GD32VW55X_Wifi_BLE_SDK/GD32VW55x_RELEASE_V1.0.2/MSDK/cloud/alicloud/src/protocol/alcs\alcs_localsetup.c ****         return ALCS_LOCALSETUP_ERROR;
 719              		.loc 1 187 9
 720 01f8 37050000 		lui	a0,%hi(.LC2)
 721 01fc 13050500 		addi	a0,a0,%lo(.LC2)
 722 0200 97000000 		call	HAL_Printf
 722      E7800000 
 723              	.LVL64:
 187:C:/Users/stapi/OneDrive/Desktop/GD32VW553/V1_MQTT_OK/GD32VW55X_Wifi_BLE_SDK/GD32VW55x_RELEASE_V1.0.2/MSDK/cloud/alicloud/src/protocol/alcs\alcs_localsetup.c ****         return ALCS_LOCALSETUP_ERROR;
 724              		.loc 1 187 9
 188:C:/Users/stapi/OneDrive/Desktop/GD32VW553/V1_MQTT_OK/GD32VW55X_Wifi_BLE_SDK/GD32VW55x_RELEASE_V1.0.2/MSDK/cloud/alicloud/src/protocol/alcs\alcs_localsetup.c ****     }
 725              		.loc 1 188 9
 726              	.L40:
 727              	.LBE19:
 728              	.LBE21:
 249:C:/Users/stapi/OneDrive/Desktop/GD32VW553/V1_MQTT_OK/GD32VW55X_Wifi_BLE_SDK/GD32VW55x_RELEASE_V1.0.2/MSDK/cloud/alicloud/src/protocol/alcs\alcs_localsetup.c **** 
 729              		.loc 1 249 9
 730 0208 83560104 		lhu	a3,64(sp)
 731              	.LBB22:
 732              	.LBB23:
  91:C:/Users/stapi/OneDrive/Desktop/GD32VW553/V1_MQTT_OK/GD32VW55X_Wifi_BLE_SDK/GD32VW55x_RELEASE_V1.0.2/MSDK/cloud/alicloud/src/protocol/alcs\alcs_localsetup.c ****     char *value = NULL;
 733              		.loc 1 91 10 is_stmt 0
 734 020c 7546     		li	a2,29
 735 020e 8145     		li	a1,0
 736 0210 C818     		addi	a0,sp,116
 737              	.LBE23:
 738              	.LBE22:
 249:C:/Users/stapi/OneDrive/Desktop/GD32VW553/V1_MQTT_OK/GD32VW55X_Wifi_BLE_SDK/GD32VW55x_RELEASE_V1.0.2/MSDK/cloud/alicloud/src/protocol/alcs\alcs_localsetup.c **** 
 739              		.loc 1 249 9
 740 0212 035CC103 		lhu	s8,60(sp)
 741 0216 36CC     		sw	a3,24(sp)
 742 0218 D25D     		lw	s11,52(sp)
 743 021a 625D     		lw	s10,56(sp)
 744              	.LVL65:
 745              	.LBB32:
 746              	.LBB30:
  91:C:/Users/stapi/OneDrive/Desktop/GD32VW553/V1_MQTT_OK/GD32VW55X_Wifi_BLE_SDK/GD32VW55x_RELEASE_V1.0.2/MSDK/cloud/alicloud/src/protocol/alcs\alcs_localsetup.c ****     char *value = NULL;
 747              		.loc 1 91 5 is_stmt 1
  91:C:/Users/stapi/OneDrive/Desktop/GD32VW553/V1_MQTT_OK/GD32VW55X_Wifi_BLE_SDK/GD32VW55x_RELEASE_V1.0.2/MSDK/cloud/alicloud/src/protocol/alcs\alcs_localsetup.c ****     char *value = NULL;
 748              		.loc 1 91 10 is_stmt 0
 749 021c 82D8     		sw	zero,112(sp)
 750 021e 97000000 		call	memset
 750      E7800000 
 751              	.LVL66:
  92:C:/Users/stapi/OneDrive/Desktop/GD32VW553/V1_MQTT_OK/GD32VW55X_Wifi_BLE_SDK/GD32VW55x_RELEASE_V1.0.2/MSDK/cloud/alicloud/src/protocol/alcs\alcs_localsetup.c ****     int rt;
 752              		.loc 1 92 5 is_stmt 1
  93:C:/Users/stapi/OneDrive/Desktop/GD32VW553/V1_MQTT_OK/GD32VW55X_Wifi_BLE_SDK/GD32VW55x_RELEASE_V1.0.2/MSDK/cloud/alicloud/src/protocol/alcs\alcs_localsetup.c ****     if (prefix == NULL || secret == NULL) {
 753              		.loc 1 93 5
  94:C:/Users/stapi/OneDrive/Desktop/GD32VW553/V1_MQTT_OK/GD32VW55X_Wifi_BLE_SDK/GD32VW55x_RELEASE_V1.0.2/MSDK/cloud/alicloud/src/protocol/alcs\alcs_localsetup.c ****         COAP_ERR("Invalid Parameter");
 754              		.loc 1 94 5
  99:C:/Users/stapi/OneDrive/Desktop/GD32VW553/V1_MQTT_OK/GD32VW55X_Wifi_BLE_SDK/GD32VW55x_RELEASE_V1.0.2/MSDK/cloud/alicloud/src/protocol/alcs\alcs_localsetup.c ****     if (rt != ALCS_LOCALSETUP_SUCCESS) {
 755              		.loc 1 99 5
  99:C:/Users/stapi/OneDrive/Desktop/GD32VW553/V1_MQTT_OK/GD32VW55X_Wifi_BLE_SDK/GD32VW55x_RELEASE_V1.0.2/MSDK/cloud/alicloud/src/protocol/alcs\alcs_localsetup.c ****     if (rt != ALCS_LOCALSETUP_SUCCESS) {
 756              		.loc 1 99 10 is_stmt 0
 757 0226 E246     		lw	a3,24(sp)
 758 0228 5687     		mv	a4,s5
 759 022a 5E86     		mv	a2,s7
 760 022c E285     		mv	a1,s8
 761 022e 5285     		mv	a0,s4
 762 0230 97000000 		call	__fill_key
 762      E7800000 
 763              	.LVL67:
 100:C:/Users/stapi/OneDrive/Desktop/GD32VW553/V1_MQTT_OK/GD32VW55X_Wifi_BLE_SDK/GD32VW55x_RELEASE_V1.0.2/MSDK/cloud/alicloud/src/protocol/alcs\alcs_localsetup.c ****         return rt;
 764              		.loc 1 100 5 is_stmt 1
 100:C:/Users/stapi/OneDrive/Desktop/GD32VW553/V1_MQTT_OK/GD32VW55X_Wifi_BLE_SDK/GD32VW55x_RELEASE_V1.0.2/MSDK/cloud/alicloud/src/protocol/alcs\alcs_localsetup.c ****         return rt;
 765              		.loc 1 100 8 is_stmt 0
 766 0238 25E1     		bne	a0,zero,.L42
 105:C:/Users/stapi/OneDrive/Desktop/GD32VW553/V1_MQTT_OK/GD32VW55X_Wifi_BLE_SDK/GD32VW55x_RELEASE_V1.0.2/MSDK/cloud/alicloud/src/protocol/alcs\alcs_localsetup.c ****     if (value == NULL) {
 767              		.loc 1 105 5 is_stmt 1
 768 023a C167     		li	a5,65536
 769 023c FD17     		addi	a5,a5,-1
 770 023e B3F6FD00 		and	a3,s11,a5
 771 0242 B377FD00 		and	a5,s10,a5
 105:C:/Users/stapi/OneDrive/Desktop/GD32VW553/V1_MQTT_OK/GD32VW55X_Wifi_BLE_SDK/GD32VW55x_RELEASE_V1.0.2/MSDK/cloud/alicloud/src/protocol/alcs\alcs_localsetup.c ****     if (value == NULL) {
 772              		.loc 1 105 13 is_stmt 0
 773 0246 B38CF600 		add	s9,a3,a5
 774              	.LVL68:
 775 024a 938B3C00 		addi	s7,s9,3
 776              	.LVL69:
 777 024e 5E86     		mv	a2,s7
 778 0250 8145     		li	a1,0
 779 0252 3ECE     		sw	a5,28(sp)
 780 0254 36CC     		sw	a3,24(sp)
 781              	.LVL70:
 782 0256 97000000 		call	LITE_malloc_internal
 782      E7800000 
 783              	.LVL71:
 106:C:/Users/stapi/OneDrive/Desktop/GD32VW553/V1_MQTT_OK/GD32VW55X_Wifi_BLE_SDK/GD32VW55x_RELEASE_V1.0.2/MSDK/cloud/alicloud/src/protocol/alcs\alcs_localsetup.c ****         COAP_ERR("No Enough Memory");
 784              		.loc 1 106 8
 785 025e E246     		lw	a3,24(sp)
 786 0260 F247     		lw	a5,28(sp)
 105:C:/Users/stapi/OneDrive/Desktop/GD32VW553/V1_MQTT_OK/GD32VW55X_Wifi_BLE_SDK/GD32VW55x_RELEASE_V1.0.2/MSDK/cloud/alicloud/src/protocol/alcs\alcs_localsetup.c ****     if (value == NULL) {
 787              		.loc 1 105 13
 788 0262 2A8A     		mv	s4,a0
 789              	.LVL72:
 106:C:/Users/stapi/OneDrive/Desktop/GD32VW553/V1_MQTT_OK/GD32VW55X_Wifi_BLE_SDK/GD32VW55x_RELEASE_V1.0.2/MSDK/cloud/alicloud/src/protocol/alcs\alcs_localsetup.c ****         COAP_ERR("No Enough Memory");
 790              		.loc 1 106 5 is_stmt 1
 791 0264 370C0000 		lui	s8,%hi(.LC2)
 792              	.LVL73:
 106:C:/Users/stapi/OneDrive/Desktop/GD32VW553/V1_MQTT_OK/GD32VW55X_Wifi_BLE_SDK/GD32VW55x_RELEASE_V1.0.2/MSDK/cloud/alicloud/src/protocol/alcs\alcs_localsetup.c ****         COAP_ERR("No Enough Memory");
 793              		.loc 1 106 8 is_stmt 0
 794 0268 63190518 		bne	a0,zero,.L43
 107:C:/Users/stapi/OneDrive/Desktop/GD32VW553/V1_MQTT_OK/GD32VW55X_Wifi_BLE_SDK/GD32VW55x_RELEASE_V1.0.2/MSDK/cloud/alicloud/src/protocol/alcs\alcs_localsetup.c ****         return ALCS_LOCALSETUP_ERROR;
 795              		.loc 1 107 9 is_stmt 1
 107:C:/Users/stapi/OneDrive/Desktop/GD32VW553/V1_MQTT_OK/GD32VW55X_Wifi_BLE_SDK/GD32VW55x_RELEASE_V1.0.2/MSDK/cloud/alicloud/src/protocol/alcs\alcs_localsetup.c ****         return ALCS_LOCALSETUP_ERROR;
 796              		.loc 1 107 9
 797 026c 37050000 		lui	a0,%hi(.LC0)
 798              	.LVL74:
 799 0270 13050500 		addi	a0,a0,%lo(.LC0)
 800 0274 97000000 		call	HAL_Printf
 800      E7800000 
 801              	.LVL75:
 107:C:/Users/stapi/OneDrive/Desktop/GD32VW553/V1_MQTT_OK/GD32VW55X_Wifi_BLE_SDK/GD32VW55x_RELEASE_V1.0.2/MSDK/cloud/alicloud/src/protocol/alcs\alcs_localsetup.c ****         return ALCS_LOCALSETUP_ERROR;
 802              		.loc 1 107 9
 803 027c 37050000 		lui	a0,%hi(.LC25)
 804 0280 13050500 		addi	a0,a0,%lo(.LC25)
 805 0284 97000000 		call	HAL_Printf
 805      E7800000 
 806              	.LVL76:
 107:C:/Users/stapi/OneDrive/Desktop/GD32VW553/V1_MQTT_OK/GD32VW55X_Wifi_BLE_SDK/GD32VW55x_RELEASE_V1.0.2/MSDK/cloud/alicloud/src/protocol/alcs\alcs_localsetup.c ****         return ALCS_LOCALSETUP_ERROR;
 807              		.loc 1 107 9
 808 028c 13050C00 		addi	a0,s8,%lo(.LC2)
 809 0290 97000000 		call	HAL_Printf
 809      E7800000 
 810              	.LVL77:
 107:C:/Users/stapi/OneDrive/Desktop/GD32VW553/V1_MQTT_OK/GD32VW55X_Wifi_BLE_SDK/GD32VW55x_RELEASE_V1.0.2/MSDK/cloud/alicloud/src/protocol/alcs\alcs_localsetup.c ****         return ALCS_LOCALSETUP_ERROR;
 811              		.loc 1 107 9
 108:C:/Users/stapi/OneDrive/Desktop/GD32VW553/V1_MQTT_OK/GD32VW55X_Wifi_BLE_SDK/GD32VW55x_RELEASE_V1.0.2/MSDK/cloud/alicloud/src/protocol/alcs\alcs_localsetup.c ****     }
 812              		.loc 1 108 9
 813              	.L42:
 814              	.LBE30:
 815              	.LBE32:
 251:C:/Users/stapi/OneDrive/Desktop/GD32VW553/V1_MQTT_OK/GD32VW55X_Wifi_BLE_SDK/GD32VW55x_RELEASE_V1.0.2/MSDK/cloud/alicloud/src/protocol/alcs\alcs_localsetup.c **** 
 816              		.loc 1 251 9
 817 0298 B7070000 		lui	a5,%hi(.LANCHOR1)
 818 029c 03A50700 		lw	a0,%lo(.LANCHOR1)(a5)
 819 02a0 8546     		li	a3,1
 820 02a2 4A86     		mv	a2,s2
 821 02a4 CE85     		mv	a1,s3
 822 02a6 97000000 		call	alcs_add_svr_key
 822      E7800000 
 823              	.LVL78:
 253:C:/Users/stapi/OneDrive/Desktop/GD32VW553/V1_MQTT_OK/GD32VW55X_Wifi_BLE_SDK/GD32VW55x_RELEASE_V1.0.2/MSDK/cloud/alicloud/src/protocol/alcs\alcs_localsetup.c ****         restore_json_str_last_char (as, aslen, asBack)
 824              		.loc 1 253 9
 825 02ae 5255     		lw	a0,52(sp)
 826 02b0 C247     		lw	a5,16(sp)
 827 02b2 AA99     		add	s3,s3,a0
 828              	.LVL79:
 829 02b4 2380F900 		sb	a5,0(s3)
 253:C:/Users/stapi/OneDrive/Desktop/GD32VW553/V1_MQTT_OK/GD32VW55X_Wifi_BLE_SDK/GD32VW55x_RELEASE_V1.0.2/MSDK/cloud/alicloud/src/protocol/alcs\alcs_localsetup.c ****         restore_json_str_last_char (as, aslen, asBack)
 830              		.loc 1 253 55
 254:C:/Users/stapi/OneDrive/Desktop/GD32VW553/V1_MQTT_OK/GD32VW55X_Wifi_BLE_SDK/GD32VW55x_RELEASE_V1.0.2/MSDK/cloud/alicloud/src/protocol/alcs\alcs_localsetup.c ****         success = 1;
 831              		.loc 1 254 9
 832 02b8 6255     		lw	a0,56(sp)
 833 02ba D247     		lw	a5,20(sp)
 834 02bc 2A99     		add	s2,s2,a0
 835              	.LVL80:
 836 02be 2300F900 		sb	a5,0(s2)
 255:C:/Users/stapi/OneDrive/Desktop/GD32VW553/V1_MQTT_OK/GD32VW55X_Wifi_BLE_SDK/GD32VW55x_RELEASE_V1.0.2/MSDK/cloud/alicloud/src/protocol/alcs\alcs_localsetup.c **** 
 837              		.loc 1 255 9
 838              	.LVL81:
 257:C:/Users/stapi/OneDrive/Desktop/GD32VW553/V1_MQTT_OK/GD32VW55X_Wifi_BLE_SDK/GD32VW55x_RELEASE_V1.0.2/MSDK/cloud/alicloud/src/protocol/alcs\alcs_localsetup.c **** 
 839              		.loc 1 257 13
 259:C:/Users/stapi/OneDrive/Desktop/GD32VW553/V1_MQTT_OK/GD32VW55X_Wifi_BLE_SDK/GD32VW55x_RELEASE_V1.0.2/MSDK/cloud/alicloud/src/protocol/alcs\alcs_localsetup.c ****         HAL_Snprintf(payload, sizeof(payload), "{\"id\":\"%.*s\",\"code\":200}", idlen, id? id : ""
 840              		.loc 1 259 5
 260:C:/Users/stapi/OneDrive/Desktop/GD32VW553/V1_MQTT_OK/GD32VW55X_Wifi_BLE_SDK/GD32VW55x_RELEASE_V1.0.2/MSDK/cloud/alicloud/src/protocol/alcs\alcs_localsetup.c ****     } else {
 841              		.loc 1 260 9
 842 02c2 B256     		lw	a3,44(sp)
 843 02c4 09E4     		bne	s0,zero,.L45
 844 02c6 37040000 		lui	s0,%hi(.LC7)
 845              	.LVL82:
 846 02ca 13040400 		addi	s0,s0,%lo(.LC7)
 847              	.L45:
 260:C:/Users/stapi/OneDrive/Desktop/GD32VW553/V1_MQTT_OK/GD32VW55X_Wifi_BLE_SDK/GD32VW55x_RELEASE_V1.0.2/MSDK/cloud/alicloud/src/protocol/alcs\alcs_localsetup.c ****     } else {
 848              		.loc 1 260 9 is_stmt 0 discriminator 4
 849 02ce 37060000 		lui	a2,%hi(.LC29)
 850 02d2 2287     		mv	a4,s0
 851 02d4 13060600 		addi	a2,a2,%lo(.LC29)
 852 02d8 93050008 		li	a1,128
 853 02dc 5685     		mv	a0,s5
 854 02de 97000000 		call	HAL_Snprintf
 854      E7800000 
 855              	.LVL83:
 856              	.L46:
 263:C:/Users/stapi/OneDrive/Desktop/GD32VW553/V1_MQTT_OK/GD32VW55X_Wifi_BLE_SDK/GD32VW55x_RELEASE_V1.0.2/MSDK/cloud/alicloud/src/protocol/alcs\alcs_localsetup.c ****     }
 857              		.loc 1 263 9 is_stmt 1 discriminator 1
 266:C:/Users/stapi/OneDrive/Desktop/GD32VW553/V1_MQTT_OK/GD32VW55X_Wifi_BLE_SDK/GD32VW55x_RELEASE_V1.0.2/MSDK/cloud/alicloud/src/protocol/alcs\alcs_localsetup.c **** 
 858              		.loc 1 266 5 discriminator 1
 859 02e6 7146     		li	a2,28
 860 02e8 8145     		li	a1,0
 861 02ea 8808     		addi	a0,sp,80
 862 02ec 97000000 		call	memset
 862      E7800000 
 863              	.LVL84:
 268:C:/Users/stapi/OneDrive/Desktop/GD32VW553/V1_MQTT_OK/GD32VW55X_Wifi_BLE_SDK/GD32VW55x_RELEASE_V1.0.2/MSDK/cloud/alicloud/src/protocol/alcs\alcs_localsetup.c ****     rsp_msg.msg_type = IOTX_ALCS_MESSAGE_TYPE_CON;
 864              		.loc 1 268 5 discriminator 1
 268:C:/Users/stapi/OneDrive/Desktop/GD32VW553/V1_MQTT_OK/GD32VW55X_Wifi_BLE_SDK/GD32VW55x_RELEASE_V1.0.2/MSDK/cloud/alicloud/src/protocol/alcs\alcs_localsetup.c ****     rsp_msg.msg_type = IOTX_ALCS_MESSAGE_TYPE_CON;
 865              		.loc 1 268 22 is_stmt 0 discriminator 1
 866 02f4 93075004 		li	a5,69
 271:C:/Users/stapi/OneDrive/Desktop/GD32VW553/V1_MQTT_OK/GD32VW55X_Wifi_BLE_SDK/GD32VW55x_RELEASE_V1.0.2/MSDK/cloud/alicloud/src/protocol/alcs\alcs_localsetup.c ****     rsp_msg.ip = (char*)(remote? remote->addr : NULL);
 867              		.loc 1 271 27 discriminator 1
 868 02f8 5685     		mv	a0,s5
 268:C:/Users/stapi/OneDrive/Desktop/GD32VW553/V1_MQTT_OK/GD32VW55X_Wifi_BLE_SDK/GD32VW55x_RELEASE_V1.0.2/MSDK/cloud/alicloud/src/protocol/alcs\alcs_localsetup.c ****     rsp_msg.msg_type = IOTX_ALCS_MESSAGE_TYPE_CON;
 869              		.loc 1 268 22 discriminator 1
 870 02fa BECE     		sw	a5,92(sp)
 269:C:/Users/stapi/OneDrive/Desktop/GD32VW553/V1_MQTT_OK/GD32VW55X_Wifi_BLE_SDK/GD32VW55x_RELEASE_V1.0.2/MSDK/cloud/alicloud/src/protocol/alcs\alcs_localsetup.c ****     rsp_msg.payload = (unsigned char*)payload;
 871              		.loc 1 269 5 is_stmt 1 discriminator 1
 270:C:/Users/stapi/OneDrive/Desktop/GD32VW553/V1_MQTT_OK/GD32VW55X_Wifi_BLE_SDK/GD32VW55x_RELEASE_V1.0.2/MSDK/cloud/alicloud/src/protocol/alcs\alcs_localsetup.c ****     rsp_msg.payload_len = strlen(payload);
 872              		.loc 1 270 5 discriminator 1
 270:C:/Users/stapi/OneDrive/Desktop/GD32VW553/V1_MQTT_OK/GD32VW55X_Wifi_BLE_SDK/GD32VW55x_RELEASE_V1.0.2/MSDK/cloud/alicloud/src/protocol/alcs\alcs_localsetup.c ****     rsp_msg.payload_len = strlen(payload);
 873              		.loc 1 270 21 is_stmt 0 discriminator 1
 874 02fc D6D6     		sw	s5,108(sp)
 271:C:/Users/stapi/OneDrive/Desktop/GD32VW553/V1_MQTT_OK/GD32VW55X_Wifi_BLE_SDK/GD32VW55x_RELEASE_V1.0.2/MSDK/cloud/alicloud/src/protocol/alcs\alcs_localsetup.c ****     rsp_msg.ip = (char*)(remote? remote->addr : NULL);
 875              		.loc 1 271 5 is_stmt 1 discriminator 1
 271:C:/Users/stapi/OneDrive/Desktop/GD32VW553/V1_MQTT_OK/GD32VW55X_Wifi_BLE_SDK/GD32VW55x_RELEASE_V1.0.2/MSDK/cloud/alicloud/src/protocol/alcs\alcs_localsetup.c ****     rsp_msg.ip = (char*)(remote? remote->addr : NULL);
 876              		.loc 1 271 27 is_stmt 0 discriminator 1
 877 02fe 97000000 		call	strlen
 877      E7800000 
 878              	.LVL85:
 271:C:/Users/stapi/OneDrive/Desktop/GD32VW553/V1_MQTT_OK/GD32VW55X_Wifi_BLE_SDK/GD32VW55x_RELEASE_V1.0.2/MSDK/cloud/alicloud/src/protocol/alcs\alcs_localsetup.c ****     rsp_msg.ip = (char*)(remote? remote->addr : NULL);
 879              		.loc 1 271 25 discriminator 1
 880 0306 AAD4     		sw	a0,104(sp)
 272:C:/Users/stapi/OneDrive/Desktop/GD32VW553/V1_MQTT_OK/GD32VW55X_Wifi_BLE_SDK/GD32VW55x_RELEASE_V1.0.2/MSDK/cloud/alicloud/src/protocol/alcs\alcs_localsetup.c ****     rsp_msg.port = remote? remote->port : 5683;
 881              		.loc 1 272 5 is_stmt 1 discriminator 1
 272:C:/Users/stapi/OneDrive/Desktop/GD32VW553/V1_MQTT_OK/GD32VW55X_Wifi_BLE_SDK/GD32VW55x_RELEASE_V1.0.2/MSDK/cloud/alicloud/src/protocol/alcs\alcs_localsetup.c ****     rsp_msg.port = remote? remote->port : 5683;
 882              		.loc 1 272 16 is_stmt 0 discriminator 1
 883 0308 DACA     		sw	s6,84(sp)
 273:C:/Users/stapi/OneDrive/Desktop/GD32VW553/V1_MQTT_OK/GD32VW55X_Wifi_BLE_SDK/GD32VW55x_RELEASE_V1.0.2/MSDK/cloud/alicloud/src/protocol/alcs\alcs_localsetup.c ****     rsp_msg.uri = (char*)paths;
 884              		.loc 1 273 5 is_stmt 1 discriminator 1
 273:C:/Users/stapi/OneDrive/Desktop/GD32VW553/V1_MQTT_OK/GD32VW55X_Wifi_BLE_SDK/GD32VW55x_RELEASE_V1.0.2/MSDK/cloud/alicloud/src/protocol/alcs\alcs_localsetup.c ****     rsp_msg.uri = (char*)paths;
 885              		.loc 1 273 18 is_stmt 0 discriminator 1
 886 030a 63060B1A 		beq	s6,zero,.L62
 887 030e 83570B01 		lhu	a5,16(s6)
 888              	.L47:
 273:C:/Users/stapi/OneDrive/Desktop/GD32VW553/V1_MQTT_OK/GD32VW55X_Wifi_BLE_SDK/GD32VW55x_RELEASE_V1.0.2/MSDK/cloud/alicloud/src/protocol/alcs\alcs_localsetup.c ****     rsp_msg.uri = (char*)paths;
 889              		.loc 1 273 18 discriminator 4
 890 0312 231CF104 		sh	a5,88(sp)
 274:C:/Users/stapi/OneDrive/Desktop/GD32VW553/V1_MQTT_OK/GD32VW55X_Wifi_BLE_SDK/GD32VW55x_RELEASE_V1.0.2/MSDK/cloud/alicloud/src/protocol/alcs\alcs_localsetup.c **** 
 891              		.loc 1 274 5 is_stmt 1 discriminator 4
 274:C:/Users/stapi/OneDrive/Desktop/GD32VW553/V1_MQTT_OK/GD32VW55X_Wifi_BLE_SDK/GD32VW55x_RELEASE_V1.0.2/MSDK/cloud/alicloud/src/protocol/alcs\alcs_localsetup.c **** 
 892              		.loc 1 274 17 is_stmt 0 discriminator 4
 893 0316 B247     		lw	a5,12(sp)
 894 0318 BED2     		sw	a5,100(sp)
 276:C:/Users/stapi/OneDrive/Desktop/GD32VW553/V1_MQTT_OK/GD32VW55X_Wifi_BLE_SDK/GD32VW55x_RELEASE_V1.0.2/MSDK/cloud/alicloud/src/protocol/alcs\alcs_localsetup.c ****         iotx_alcs_send_Response (g_adapter_handle, &rsp_msg, message->header.tokenlen, message->tok
 895              		.loc 1 276 5 is_stmt 1 discriminator 4
 276:C:/Users/stapi/OneDrive/Desktop/GD32VW553/V1_MQTT_OK/GD32VW55X_Wifi_BLE_SDK/GD32VW55x_RELEASE_V1.0.2/MSDK/cloud/alicloud/src/protocol/alcs\alcs_localsetup.c ****         iotx_alcs_send_Response (g_adapter_handle, &rsp_msg, message->header.tokenlen, message->tok
 896              		.loc 1 276 8 is_stmt 0 discriminator 4
 897 031a 99CC     		beq	s1,zero,.L31
 277:C:/Users/stapi/OneDrive/Desktop/GD32VW553/V1_MQTT_OK/GD32VW55X_Wifi_BLE_SDK/GD32VW55x_RELEASE_V1.0.2/MSDK/cloud/alicloud/src/protocol/alcs\alcs_localsetup.c ****     }
 898              		.loc 1 277 9 is_stmt 1
 277:C:/Users/stapi/OneDrive/Desktop/GD32VW553/V1_MQTT_OK/GD32VW55X_Wifi_BLE_SDK/GD32VW55x_RELEASE_V1.0.2/MSDK/cloud/alicloud/src/protocol/alcs\alcs_localsetup.c ****     }
 899              		.loc 1 277 77 is_stmt 0
 900 031c 9040     		lw	a2,0(s1)
 277:C:/Users/stapi/OneDrive/Desktop/GD32VW553/V1_MQTT_OK/GD32VW55X_Wifi_BLE_SDK/GD32VW55x_RELEASE_V1.0.2/MSDK/cloud/alicloud/src/protocol/alcs\alcs_localsetup.c ****     }
 901              		.loc 1 277 9
 902 031e B7070000 		lui	a5,%hi(.LANCHOR2)
 903 0322 03A50700 		lw	a0,%lo(.LANCHOR2)(a5)
 277:C:/Users/stapi/OneDrive/Desktop/GD32VW553/V1_MQTT_OK/GD32VW55X_Wifi_BLE_SDK/GD32VW55x_RELEASE_V1.0.2/MSDK/cloud/alicloud/src/protocol/alcs\alcs_localsetup.c ****     }
 904              		.loc 1 277 77
 905 0326 1182     		srli	a2,a2,4
 277:C:/Users/stapi/OneDrive/Desktop/GD32VW553/V1_MQTT_OK/GD32VW55X_Wifi_BLE_SDK/GD32VW55x_RELEASE_V1.0.2/MSDK/cloud/alicloud/src/protocol/alcs\alcs_localsetup.c ****     }
 906              		.loc 1 277 9
 907 0328 93864400 		addi	a3,s1,4
 908 032c 3D8A     		andi	a2,a2,15
 909 032e 8C08     		addi	a1,sp,80
 910 0330 97000000 		call	iotx_alcs_send_Response
 910      E7800000 
 911              	.LVL86:
 912              	.L31:
 279:C:/Users/stapi/OneDrive/Desktop/GD32VW553/V1_MQTT_OK/GD32VW55X_Wifi_BLE_SDK/GD32VW55x_RELEASE_V1.0.2/MSDK/cloud/alicloud/src/protocol/alcs\alcs_localsetup.c **** 
 913              		.loc 1 279 1
 914 0338 6D61     		addi	sp,sp,240
 915              		.cfi_remember_state
 916              		.cfi_def_cfa_offset 0
 917              	.LVL87:
 918 033a 17030000 		tail	__riscv_restore_12
 918      67000300 
 919              		.cfi_restore 27
 920              		.cfi_restore 26
 921              		.cfi_restore 25
 922              		.cfi_restore 24
 923              		.cfi_restore 23
 924              		.cfi_restore 22
 925              		.cfi_restore 21
 926              		.cfi_restore 20
 927              		.cfi_restore 19
 928              		.cfi_restore 18
 929              		.cfi_restore 9
 930              		.cfi_restore 8
 931              		.cfi_restore 1
 932              		.cfi_def_cfa_offset -64
 933              	.LVL88:
 934              	.L35:
 935              		.cfi_restore_state
 230:C:/Users/stapi/OneDrive/Desktop/GD32VW553/V1_MQTT_OK/GD32VW55X_Wifi_BLE_SDK/GD32VW55x_RELEASE_V1.0.2/MSDK/cloud/alicloud/src/protocol/alcs\alcs_localsetup.c ****             COAP_DEBUG ("entry:%.*s", entry_len, entry);
 936              		.loc 1 230 9 discriminator 2
 937 0342 83070500 		lb	a5,0(a0)
 938 0346 E38107E0 		beq	a5,zero,.L37
 939              	.LVL89:
 230:C:/Users/stapi/OneDrive/Desktop/GD32VW553/V1_MQTT_OK/GD32VW55X_Wifi_BLE_SDK/GD32VW55x_RELEASE_V1.0.2/MSDK/cloud/alicloud/src/protocol/alcs\alcs_localsetup.c ****             COAP_DEBUG ("entry:%.*s", entry_len, entry);
 940              		.loc 1 230 9 discriminator 3
 941 034a 4256     		lw	a2,48(sp)
 942 034c 93051500 		addi	a1,a0,1
 943              	.LVL90:
 944 0350 9308C104 		addi	a7,sp,76
 945 0354 13088104 		addi	a6,sp,72
 946 0358 DC00     		addi	a5,sp,68
 947 035a 0147     		li	a4,0
 948 035c 8146     		li	a3,0
 949 035e 6296     		add	a2,s8,a2
 950 0360 0945     		li	a0,2
 951 0362 97000000 		call	json_get_next_object
 951      E7800000 
 952              	.LVL91:
 953 036a E30F05DC 		beq	a0,zero,.L37
 231:C:/Users/stapi/OneDrive/Desktop/GD32VW553/V1_MQTT_OK/GD32VW55X_Wifi_BLE_SDK/GD32VW55x_RELEASE_V1.0.2/MSDK/cloud/alicloud/src/protocol/alcs\alcs_localsetup.c ****             ac = json_get_value_by_name(entry, entry_len, "authCode", &aclen, (int*)NULL);
 954              		.loc 1 231 13 is_stmt 1
 955 036e 1648     		lw	a6,68(sp)
 956 0370 A647     		lw	a5,72(sp)
 957 0372 37070000 		lui	a4,%hi(.LC18)
 958 0376 93050900 		addi	a1,s2,%lo(.LANCHOR0)
 959 037a 13850900 		addi	a0,s3,%lo(.LC13)
 960              	.LVL92:
 961 037e 13070700 		addi	a4,a4,%lo(.LC18)
 962 0382 9546     		li	a3,5
 963 0384 1306700E 		li	a2,231
 964 0388 97000000 		call	LITE_syslog
 964      E7800000 
 965              	.LVL93:
 232:C:/Users/stapi/OneDrive/Desktop/GD32VW553/V1_MQTT_OK/GD32VW55X_Wifi_BLE_SDK/GD32VW55x_RELEASE_V1.0.2/MSDK/cloud/alicloud/src/protocol/alcs\alcs_localsetup.c ****             as = json_get_value_by_name(entry, entry_len, "authSecret", &aslen, (int*)NULL);
 966              		.loc 1 232 13
 232:C:/Users/stapi/OneDrive/Desktop/GD32VW553/V1_MQTT_OK/GD32VW55X_Wifi_BLE_SDK/GD32VW55x_RELEASE_V1.0.2/MSDK/cloud/alicloud/src/protocol/alcs\alcs_localsetup.c ****             as = json_get_value_by_name(entry, entry_len, "authSecret", &aslen, (int*)NULL);
 967              		.loc 1 232 18 is_stmt 0
 968 0390 A645     		lw	a1,72(sp)
 969 0392 1645     		lw	a0,68(sp)
 970 0394 37060000 		lui	a2,%hi(.LC19)
 971 0398 0147     		li	a4,0
 972 039a 5418     		addi	a3,sp,52
 973 039c 13060600 		addi	a2,a2,%lo(.LC19)
 974 03a0 97000000 		call	json_get_value_by_name
 974      E7800000 
 975              	.LVL94:
 233:C:/Users/stapi/OneDrive/Desktop/GD32VW553/V1_MQTT_OK/GD32VW55X_Wifi_BLE_SDK/GD32VW55x_RELEASE_V1.0.2/MSDK/cloud/alicloud/src/protocol/alcs\alcs_localsetup.c ****             pk = json_get_value_by_name(entry, entry_len, "productKey", &pklen, (int*)NULL);
 976              		.loc 1 233 18
 977 03a8 A645     		lw	a1,72(sp)
 232:C:/Users/stapi/OneDrive/Desktop/GD32VW553/V1_MQTT_OK/GD32VW55X_Wifi_BLE_SDK/GD32VW55x_RELEASE_V1.0.2/MSDK/cloud/alicloud/src/protocol/alcs\alcs_localsetup.c ****             as = json_get_value_by_name(entry, entry_len, "authSecret", &aslen, (int*)NULL);
 978              		.loc 1 232 18
 979 03aa AA89     		mv	s3,a0
 980              	.LVL95:
 233:C:/Users/stapi/OneDrive/Desktop/GD32VW553/V1_MQTT_OK/GD32VW55X_Wifi_BLE_SDK/GD32VW55x_RELEASE_V1.0.2/MSDK/cloud/alicloud/src/protocol/alcs\alcs_localsetup.c ****             pk = json_get_value_by_name(entry, entry_len, "productKey", &pklen, (int*)NULL);
 981              		.loc 1 233 13 is_stmt 1
 233:C:/Users/stapi/OneDrive/Desktop/GD32VW553/V1_MQTT_OK/GD32VW55X_Wifi_BLE_SDK/GD32VW55x_RELEASE_V1.0.2/MSDK/cloud/alicloud/src/protocol/alcs\alcs_localsetup.c ****             pk = json_get_value_by_name(entry, entry_len, "productKey", &pklen, (int*)NULL);
 982              		.loc 1 233 18 is_stmt 0
 983 03ac 1645     		lw	a0,68(sp)
 984              	.LVL96:
 985 03ae 37060000 		lui	a2,%hi(.LC20)
 986 03b2 0147     		li	a4,0
 987 03b4 3418     		addi	a3,sp,56
 988 03b6 13060600 		addi	a2,a2,%lo(.LC20)
 989 03ba 97000000 		call	json_get_value_by_name
 989      E7800000 
 990              	.LVL97:
 234:C:/Users/stapi/OneDrive/Desktop/GD32VW553/V1_MQTT_OK/GD32VW55X_Wifi_BLE_SDK/GD32VW55x_RELEASE_V1.0.2/MSDK/cloud/alicloud/src/protocol/alcs\alcs_localsetup.c ****             dn = json_get_value_by_name(entry, entry_len, "deviceName", &dnlen, (int*)NULL);
 991              		.loc 1 234 18
 992 03c2 A645     		lw	a1,72(sp)
 233:C:/Users/stapi/OneDrive/Desktop/GD32VW553/V1_MQTT_OK/GD32VW55X_Wifi_BLE_SDK/GD32VW55x_RELEASE_V1.0.2/MSDK/cloud/alicloud/src/protocol/alcs\alcs_localsetup.c ****             pk = json_get_value_by_name(entry, entry_len, "productKey", &pklen, (int*)NULL);
 993              		.loc 1 233 18
 994 03c4 2A89     		mv	s2,a0
 995              	.LVL98:
 234:C:/Users/stapi/OneDrive/Desktop/GD32VW553/V1_MQTT_OK/GD32VW55X_Wifi_BLE_SDK/GD32VW55x_RELEASE_V1.0.2/MSDK/cloud/alicloud/src/protocol/alcs\alcs_localsetup.c ****             dn = json_get_value_by_name(entry, entry_len, "deviceName", &dnlen, (int*)NULL);
 996              		.loc 1 234 13 is_stmt 1
 234:C:/Users/stapi/OneDrive/Desktop/GD32VW553/V1_MQTT_OK/GD32VW55X_Wifi_BLE_SDK/GD32VW55x_RELEASE_V1.0.2/MSDK/cloud/alicloud/src/protocol/alcs\alcs_localsetup.c ****             dn = json_get_value_by_name(entry, entry_len, "deviceName", &dnlen, (int*)NULL);
 997              		.loc 1 234 18 is_stmt 0
 998 03c6 1645     		lw	a0,68(sp)
 999              	.LVL99:
 1000 03c8 37060000 		lui	a2,%hi(.LC21)
 1001 03cc 0147     		li	a4,0
 1002 03ce 7418     		addi	a3,sp,60
 1003 03d0 13060600 		addi	a2,a2,%lo(.LC21)
 1004 03d4 97000000 		call	json_get_value_by_name
 1004      E7800000 
 1005              	.LVL100:
 235:C:/Users/stapi/OneDrive/Desktop/GD32VW553/V1_MQTT_OK/GD32VW55X_Wifi_BLE_SDK/GD32VW55x_RELEASE_V1.0.2/MSDK/cloud/alicloud/src/protocol/alcs\alcs_localsetup.c ****             break;
 1006              		.loc 1 235 18
 1007 03dc A645     		lw	a1,72(sp)
 234:C:/Users/stapi/OneDrive/Desktop/GD32VW553/V1_MQTT_OK/GD32VW55X_Wifi_BLE_SDK/GD32VW55x_RELEASE_V1.0.2/MSDK/cloud/alicloud/src/protocol/alcs\alcs_localsetup.c ****             dn = json_get_value_by_name(entry, entry_len, "deviceName", &dnlen, (int*)NULL);
 1008              		.loc 1 234 18
 1009 03de 2A8A     		mv	s4,a0
 1010              	.LVL101:
 235:C:/Users/stapi/OneDrive/Desktop/GD32VW553/V1_MQTT_OK/GD32VW55X_Wifi_BLE_SDK/GD32VW55x_RELEASE_V1.0.2/MSDK/cloud/alicloud/src/protocol/alcs\alcs_localsetup.c ****             break;
 1011              		.loc 1 235 13 is_stmt 1
 235:C:/Users/stapi/OneDrive/Desktop/GD32VW553/V1_MQTT_OK/GD32VW55X_Wifi_BLE_SDK/GD32VW55x_RELEASE_V1.0.2/MSDK/cloud/alicloud/src/protocol/alcs\alcs_localsetup.c ****             break;
 1012              		.loc 1 235 18 is_stmt 0
 1013 03e0 1645     		lw	a0,68(sp)
 1014              	.LVL102:
 1015 03e2 37060000 		lui	a2,%hi(.LC22)
 1016 03e6 0147     		li	a4,0
 1017 03e8 9400     		addi	a3,sp,64
 1018 03ea 13060600 		addi	a2,a2,%lo(.LC22)
 1019 03ee 97000000 		call	json_get_value_by_name
 1019      E7800000 
 1020              	.LVL103:
 1021 03f6 AA8B     		mv	s7,a0
 1022              	.LVL104:
 236:C:/Users/stapi/OneDrive/Desktop/GD32VW553/V1_MQTT_OK/GD32VW55X_Wifi_BLE_SDK/GD32VW55x_RELEASE_V1.0.2/MSDK/cloud/alicloud/src/protocol/alcs\alcs_localsetup.c ****         } //end json_array_for_each_entry
 1023              		.loc 1 236 13 is_stmt 1
 1024 03f8 99BB     		j	.L36
 1025              	.LVL105:
 1026              	.L43:
 1027              	.LBB33:
 1028              	.LBB31:
 110:C:/Users/stapi/OneDrive/Desktop/GD32VW553/V1_MQTT_OK/GD32VW55X_Wifi_BLE_SDK/GD32VW55x_RELEASE_V1.0.2/MSDK/cloud/alicloud/src/protocol/alcs\alcs_localsetup.c **** 
 1029              		.loc 1 110 5 is_stmt 0
 1030 03fa 5E86     		mv	a2,s7
 1031 03fc 8145     		li	a1,0
 1032 03fe 3ECE     		sw	a5,28(sp)
 1033 0400 36CC     		sw	a3,24(sp)
 110:C:/Users/stapi/OneDrive/Desktop/GD32VW553/V1_MQTT_OK/GD32VW55X_Wifi_BLE_SDK/GD32VW55x_RELEASE_V1.0.2/MSDK/cloud/alicloud/src/protocol/alcs\alcs_localsetup.c **** 
 1034              		.loc 1 110 5 is_stmt 1
 1035 0402 97000000 		call	memset
 1035      E7800000 
 1036              	.LVL106:
 112:C:/Users/stapi/OneDrive/Desktop/GD32VW553/V1_MQTT_OK/GD32VW55X_Wifi_BLE_SDK/GD32VW55x_RELEASE_V1.0.2/MSDK/cloud/alicloud/src/protocol/alcs\alcs_localsetup.c ****     value[1] = secret_len;
 1037              		.loc 1 112 5
 114:C:/Users/stapi/OneDrive/Desktop/GD32VW553/V1_MQTT_OK/GD32VW55X_Wifi_BLE_SDK/GD32VW55x_RELEASE_V1.0.2/MSDK/cloud/alicloud/src/protocol/alcs\alcs_localsetup.c **** 
 1038              		.loc 1 114 5 is_stmt 0
 1039 040a E246     		lw	a3,24(sp)
 1040 040c F247     		lw	a5,28(sp)
 1041 040e 37060000 		lui	a2,%hi(.LC3)
 1042 0412 93851C00 		addi	a1,s9,1
 1043 0416 13060600 		addi	a2,a2,%lo(.LC3)
 1044 041a 4A88     		mv	a6,s2
 1045 041c 4E87     		mv	a4,s3
 112:C:/Users/stapi/OneDrive/Desktop/GD32VW553/V1_MQTT_OK/GD32VW55X_Wifi_BLE_SDK/GD32VW55x_RELEASE_V1.0.2/MSDK/cloud/alicloud/src/protocol/alcs\alcs_localsetup.c ****     value[1] = secret_len;
 1046              		.loc 1 112 14
 1047 041e 2300BA01 		sb	s11,0(s4)
 113:C:/Users/stapi/OneDrive/Desktop/GD32VW553/V1_MQTT_OK/GD32VW55X_Wifi_BLE_SDK/GD32VW55x_RELEASE_V1.0.2/MSDK/cloud/alicloud/src/protocol/alcs\alcs_localsetup.c ****     HAL_Snprintf(&value[2], prefix_len + secret_len + 1, "%.*s%.*s", prefix_len, prefix, secret_len
 1048              		.loc 1 113 5 is_stmt 1
 113:C:/Users/stapi/OneDrive/Desktop/GD32VW553/V1_MQTT_OK/GD32VW55X_Wifi_BLE_SDK/GD32VW55x_RELEASE_V1.0.2/MSDK/cloud/alicloud/src/protocol/alcs\alcs_localsetup.c ****     HAL_Snprintf(&value[2], prefix_len + secret_len + 1, "%.*s%.*s", prefix_len, prefix, secret_len
 1049              		.loc 1 113 14 is_stmt 0
 1050 0422 A300AA01 		sb	s10,1(s4)
 114:C:/Users/stapi/OneDrive/Desktop/GD32VW553/V1_MQTT_OK/GD32VW55X_Wifi_BLE_SDK/GD32VW55x_RELEASE_V1.0.2/MSDK/cloud/alicloud/src/protocol/alcs\alcs_localsetup.c **** 
 1051              		.loc 1 114 5 is_stmt 1
 1052 0426 13052A00 		addi	a0,s4,2
 1053 042a 97000000 		call	HAL_Snprintf
 1053      E7800000 
 1054              	.LVL107:
 117:C:/Users/stapi/OneDrive/Desktop/GD32VW553/V1_MQTT_OK/GD32VW55X_Wifi_BLE_SDK/GD32VW55x_RELEASE_V1.0.2/MSDK/cloud/alicloud/src/protocol/alcs\alcs_localsetup.c ****     if (ALCS_LOCALSETUP_SUCCESS != __alcs_localsetup_kv_set(ALCS_KEY, value, prefix_len + secret_le
 1055              		.loc 1 117 5
 1056 0432 5685     		mv	a0,s5
 1057 0434 97000000 		call	__alcs_localsetup_kv_del
 1057      E7800000 
 1058              	.LVL108:
 118:C:/Users/stapi/OneDrive/Desktop/GD32VW553/V1_MQTT_OK/GD32VW55X_Wifi_BLE_SDK/GD32VW55x_RELEASE_V1.0.2/MSDK/cloud/alicloud/src/protocol/alcs\alcs_localsetup.c **** #else
 1059              		.loc 1 118 5
 1060              	.LBB24:
 1061              	.LBB25:
  32:C:/Users/stapi/OneDrive/Desktop/GD32VW553/V1_MQTT_OK/GD32VW55X_Wifi_BLE_SDK/GD32VW55x_RELEASE_V1.0.2/MSDK/cloud/alicloud/src/protocol/alcs\alcs_localsetup.c ****         return ALCS_LOCALSETUP_ERROR;
 1062              		.loc 1 32 5
  32:C:/Users/stapi/OneDrive/Desktop/GD32VW553/V1_MQTT_OK/GD32VW55X_Wifi_BLE_SDK/GD32VW55x_RELEASE_V1.0.2/MSDK/cloud/alicloud/src/protocol/alcs\alcs_localsetup.c ****         return ALCS_LOCALSETUP_ERROR;
 1063              		.loc 1 32 9 is_stmt 0
 1064 043c B70C0000 		lui	s9,%hi(.LC23)
 1065 0440 8546     		li	a3,1
 1066 0442 5E86     		mv	a2,s7
 1067 0444 D285     		mv	a1,s4
 1068 0446 13850C00 		addi	a0,s9,%lo(.LC23)
 1069 044a 97000000 		call	aos_kv_set
 1069      E7800000 
 1070              	.LVL109:
  32:C:/Users/stapi/OneDrive/Desktop/GD32VW553/V1_MQTT_OK/GD32VW55X_Wifi_BLE_SDK/GD32VW55x_RELEASE_V1.0.2/MSDK/cloud/alicloud/src/protocol/alcs\alcs_localsetup.c ****         return ALCS_LOCALSETUP_ERROR;
 1071              		.loc 1 32 8
 1072 0452 0DCD     		beq	a0,zero,.L44
 1073              	.LVL110:
 1074              	.LBE25:
 1075              	.LBE24:
 122:C:/Users/stapi/OneDrive/Desktop/GD32VW553/V1_MQTT_OK/GD32VW55X_Wifi_BLE_SDK/GD32VW55x_RELEASE_V1.0.2/MSDK/cloud/alicloud/src/protocol/alcs\alcs_localsetup.c ****         LITE_free(value);
 1076              		.loc 1 122 9 is_stmt 1
 122:C:/Users/stapi/OneDrive/Desktop/GD32VW553/V1_MQTT_OK/GD32VW55X_Wifi_BLE_SDK/GD32VW55x_RELEASE_V1.0.2/MSDK/cloud/alicloud/src/protocol/alcs\alcs_localsetup.c ****         LITE_free(value);
 1077              		.loc 1 122 9
 1078 0454 37050000 		lui	a0,%hi(.LC26)
 1079 0458 13050500 		addi	a0,a0,%lo(.LC26)
 1080 045c 97000000 		call	HAL_Printf
 1080      E7800000 
 1081              	.LVL111:
 122:C:/Users/stapi/OneDrive/Desktop/GD32VW553/V1_MQTT_OK/GD32VW55X_Wifi_BLE_SDK/GD32VW55x_RELEASE_V1.0.2/MSDK/cloud/alicloud/src/protocol/alcs\alcs_localsetup.c ****         LITE_free(value);
 1082              		.loc 1 122 9
 1083 0464 37050000 		lui	a0,%hi(.LC27)
 1084 0468 13050500 		addi	a0,a0,%lo(.LC27)
 1085 046c 97000000 		call	HAL_Printf
 1085      E7800000 
 1086              	.LVL112:
 122:C:/Users/stapi/OneDrive/Desktop/GD32VW553/V1_MQTT_OK/GD32VW55X_Wifi_BLE_SDK/GD32VW55x_RELEASE_V1.0.2/MSDK/cloud/alicloud/src/protocol/alcs\alcs_localsetup.c ****         LITE_free(value);
 1087              		.loc 1 122 9
 1088              	.L76:
 1089              	.LBB28:
 1090              	.LBB26:
  36:C:/Users/stapi/OneDrive/Desktop/GD32VW553/V1_MQTT_OK/GD32VW55X_Wifi_BLE_SDK/GD32VW55x_RELEASE_V1.0.2/MSDK/cloud/alicloud/src/protocol/alcs\alcs_localsetup.c ****     return ALCS_LOCALSETUP_SUCCESS;
 1091              		.loc 1 36 5
 1092 0474 13050C00 		addi	a0,s8,%lo(.LC2)
 1093 0478 97000000 		call	HAL_Printf
 1093      E7800000 
 1094              	.LVL113:
  36:C:/Users/stapi/OneDrive/Desktop/GD32VW553/V1_MQTT_OK/GD32VW55X_Wifi_BLE_SDK/GD32VW55x_RELEASE_V1.0.2/MSDK/cloud/alicloud/src/protocol/alcs\alcs_localsetup.c ****     return ALCS_LOCALSETUP_SUCCESS;
 1095              		.loc 1 36 5
  37:C:/Users/stapi/OneDrive/Desktop/GD32VW553/V1_MQTT_OK/GD32VW55X_Wifi_BLE_SDK/GD32VW55x_RELEASE_V1.0.2/MSDK/cloud/alicloud/src/protocol/alcs\alcs_localsetup.c **** }
 1096              		.loc 1 37 5
 1097              	.LBE26:
 1098              	.LBE28:
 127:C:/Users/stapi/OneDrive/Desktop/GD32VW553/V1_MQTT_OK/GD32VW55X_Wifi_BLE_SDK/GD32VW55x_RELEASE_V1.0.2/MSDK/cloud/alicloud/src/protocol/alcs\alcs_localsetup.c ****     return ALCS_LOCALSETUP_SUCCESS;
 1099              		.loc 1 127 5
 1100 0480 5285     		mv	a0,s4
 1101 0482 97000000 		call	LITE_free_internal
 1101      E7800000 
 1102              	.LVL114:
 128:C:/Users/stapi/OneDrive/Desktop/GD32VW553/V1_MQTT_OK/GD32VW55X_Wifi_BLE_SDK/GD32VW55x_RELEASE_V1.0.2/MSDK/cloud/alicloud/src/protocol/alcs\alcs_localsetup.c **** }
 1103              		.loc 1 128 5
 128:C:/Users/stapi/OneDrive/Desktop/GD32VW553/V1_MQTT_OK/GD32VW55X_Wifi_BLE_SDK/GD32VW55x_RELEASE_V1.0.2/MSDK/cloud/alicloud/src/protocol/alcs\alcs_localsetup.c **** }
 1104              		.loc 1 128 12 is_stmt 0
 1105 048a 39B5     		j	.L42
 1106              	.LVL115:
 1107              	.L44:
 1108              	.LBB29:
 1109              	.LBB27:
  36:C:/Users/stapi/OneDrive/Desktop/GD32VW553/V1_MQTT_OK/GD32VW55X_Wifi_BLE_SDK/GD32VW55x_RELEASE_V1.0.2/MSDK/cloud/alicloud/src/protocol/alcs\alcs_localsetup.c ****     return ALCS_LOCALSETUP_SUCCESS;
 1110              		.loc 1 36 5 is_stmt 1
  36:C:/Users/stapi/OneDrive/Desktop/GD32VW553/V1_MQTT_OK/GD32VW55X_Wifi_BLE_SDK/GD32VW55x_RELEASE_V1.0.2/MSDK/cloud/alicloud/src/protocol/alcs\alcs_localsetup.c ****     return ALCS_LOCALSETUP_SUCCESS;
 1111              		.loc 1 36 5
 1112 048c 37050000 		lui	a0,%hi(.LC5)
 1113 0490 13050500 		addi	a0,a0,%lo(.LC5)
 1114 0494 97000000 		call	HAL_Printf
 1114      E7800000 
 1115              	.LVL116:
  36:C:/Users/stapi/OneDrive/Desktop/GD32VW553/V1_MQTT_OK/GD32VW55X_Wifi_BLE_SDK/GD32VW55x_RELEASE_V1.0.2/MSDK/cloud/alicloud/src/protocol/alcs\alcs_localsetup.c ****     return ALCS_LOCALSETUP_SUCCESS;
 1116              		.loc 1 36 5
 1117 049c 37050000 		lui	a0,%hi(.LC28)
 1118 04a0 DE86     		mv	a3,s7
 1119 04a2 5286     		mv	a2,s4
 1120 04a4 93850C00 		addi	a1,s9,%lo(.LC23)
 1121 04a8 13050500 		addi	a0,a0,%lo(.LC28)
 1122 04ac 97000000 		call	HAL_Printf
 1122      E7800000 
 1123              	.LVL117:
 1124 04b4 C1B7     		j	.L76
 1125              	.LVL118:
 1126              	.L62:
 1127              	.LBE27:
 1128              	.LBE29:
 1129              	.LBE31:
 1130              	.LBE33:
 273:C:/Users/stapi/OneDrive/Desktop/GD32VW553/V1_MQTT_OK/GD32VW55X_Wifi_BLE_SDK/GD32VW55x_RELEASE_V1.0.2/MSDK/cloud/alicloud/src/protocol/alcs\alcs_localsetup.c ****     rsp_msg.uri = (char*)paths;
 1131              		.loc 1 273 18 is_stmt 0
 1132 04b6 8567     		li	a5,4096
 1133 04b8 93873763 		addi	a5,a5,1587
 1134 04bc 99BD     		j	.L47
 1135              	.LVL119:
 1136              	.L51:
 218:C:/Users/stapi/OneDrive/Desktop/GD32VW553/V1_MQTT_OK/GD32VW55X_Wifi_BLE_SDK/GD32VW55x_RELEASE_V1.0.2/MSDK/cloud/alicloud/src/protocol/alcs\alcs_localsetup.c ****             break;
 1137              		.loc 1 218 21
 1138 04be 37090000 		lui	s2,%hi(.LC10)
 1139 04c2 13090900 		addi	s2,s2,%lo(.LC10)
 1140 04c6 6DB6     		j	.L34
 1141              	.L53:
 224:C:/Users/stapi/OneDrive/Desktop/GD32VW553/V1_MQTT_OK/GD32VW55X_Wifi_BLE_SDK/GD32VW55x_RELEASE_V1.0.2/MSDK/cloud/alicloud/src/protocol/alcs\alcs_localsetup.c ****             break;
 1142              		.loc 1 224 21
 1143 04c8 37090000 		lui	s2,%hi(.LC8)
 1144 04cc 13090900 		addi	s2,s2,%lo(.LC8)
 1145 04d0 45B6     		j	.L34
 1146              	.LVL120:
 1147              	.L61:
 241:C:/Users/stapi/OneDrive/Desktop/GD32VW553/V1_MQTT_OK/GD32VW55X_Wifi_BLE_SDK/GD32VW55x_RELEASE_V1.0.2/MSDK/cloud/alicloud/src/protocol/alcs\alcs_localsetup.c ****             break;
 1148              		.loc 1 241 21
 1149 04d2 37090000 		lui	s2,%hi(.LC9)
 1150              	.LVL121:
 1151 04d6 13090900 		addi	s2,s2,%lo(.LC9)
 1152 04da 59BE     		j	.L34
 1153              		.cfi_endproc
 1154              	.LFE27:
 1156              		.section	.rodata.alcs_localsetup_ac_as_load.str1.4,"aMS",@progbits,1
 1157              		.align	2
 1158              	.LC32:
 1159 0000 48414C5F 		.string	"HAL_Kv_Get('%s') = %d (!= 0), return %d"
 1159      4B765F47 
 1159      65742827 
 1159      25732729 
 1159      203D2025 
 1160              		.align	2
 1161              	.LC33:
 1162 0028 414C4353 		.string	"ALCS KV Get, Key: %s"
 1162      204B5620 
 1162      4765742C 
 1162      204B6579 
 1162      3A202573 
 1163 003d 000000   		.align	2
 1164              	.LC34:
 1165 0040 696E7375 		.string	"insuffient buffer!"
 1165      66666965 
 1165      6E742062 
 1165      75666665 
 1165      722100
 1166              		.section	.text.alcs_localsetup_ac_as_load,"ax",@progbits
 1167              		.align	1
 1168              		.globl	alcs_localsetup_ac_as_load
 1170              	alcs_localsetup_ac_as_load:
 1171              	.LFB25:
 134:C:/Users/stapi/OneDrive/Desktop/GD32VW553/V1_MQTT_OK/GD32VW55X_Wifi_BLE_SDK/GD32VW55x_RELEASE_V1.0.2/MSDK/cloud/alicloud/src/protocol/alcs\alcs_localsetup.c ****     char key_md5_hexstr[33] = {0};
 1172              		.loc 1 134 1 is_stmt 1
 1173              		.cfi_startproc
 1174              	.LVL122:
 1175 0000 17030000 		call	t0,__riscv_save_8
 1175      E7020300 
 1176              		.cfi_offset 23, -36
 1177              		.cfi_offset 22, -32
 1178              		.cfi_offset 21, -28
 1179              		.cfi_offset 20, -24
 1180              		.cfi_offset 19, -20
 1181              		.cfi_offset 18, -16
 1182              		.cfi_offset 9, -12
 1183              		.cfi_offset 8, -8
 1184              		.cfi_offset 1, -4
 1185              		.cfi_def_cfa_offset 48
 135:C:/Users/stapi/OneDrive/Desktop/GD32VW553/V1_MQTT_OK/GD32VW55X_Wifi_BLE_SDK/GD32VW55x_RELEASE_V1.0.2/MSDK/cloud/alicloud/src/protocol/alcs\alcs_localsetup.c ****     char value[128] = {0};
 1186              		.loc 1 135 5
 134:C:/Users/stapi/OneDrive/Desktop/GD32VW553/V1_MQTT_OK/GD32VW55X_Wifi_BLE_SDK/GD32VW55x_RELEASE_V1.0.2/MSDK/cloud/alicloud/src/protocol/alcs\alcs_localsetup.c ****     char key_md5_hexstr[33] = {0};
 1187              		.loc 1 134 1 is_stmt 0
 1188 0008 3171     		addi	sp,sp,-192
 1189              		.cfi_def_cfa_offset 240
 134:C:/Users/stapi/OneDrive/Desktop/GD32VW553/V1_MQTT_OK/GD32VW55X_Wifi_BLE_SDK/GD32VW55x_RELEASE_V1.0.2/MSDK/cloud/alicloud/src/protocol/alcs\alcs_localsetup.c ****     char key_md5_hexstr[33] = {0};
 1190              		.loc 1 134 1
 1191 000a 2A84     		mv	s0,a0
 1192 000c 2E89     		mv	s2,a1
 1193 000e 328B     		mv	s6,a2
 135:C:/Users/stapi/OneDrive/Desktop/GD32VW553/V1_MQTT_OK/GD32VW55X_Wifi_BLE_SDK/GD32VW55x_RELEASE_V1.0.2/MSDK/cloud/alicloud/src/protocol/alcs\alcs_localsetup.c ****     char value[128] = {0};
 1194              		.loc 1 135 10
 1195 0010 8145     		li	a1,0
 1196              	.LVL123:
 1197 0012 7546     		li	a2,29
 1198              	.LVL124:
 1199 0014 0810     		addi	a0,sp,32
 1200              	.LVL125:
 134:C:/Users/stapi/OneDrive/Desktop/GD32VW553/V1_MQTT_OK/GD32VW55X_Wifi_BLE_SDK/GD32VW55x_RELEASE_V1.0.2/MSDK/cloud/alicloud/src/protocol/alcs\alcs_localsetup.c ****     char key_md5_hexstr[33] = {0};
 1201              		.loc 1 134 1
 1202 0016 BE8A     		mv	s5,a5
 1203 0018 36C6     		sw	a3,12(sp)
 1204 001a BA89     		mv	s3,a4
 1205 001c C284     		mv	s1,a6
 1206 001e 468A     		mv	s4,a7
 135:C:/Users/stapi/OneDrive/Desktop/GD32VW553/V1_MQTT_OK/GD32VW55X_Wifi_BLE_SDK/GD32VW55x_RELEASE_V1.0.2/MSDK/cloud/alicloud/src/protocol/alcs\alcs_localsetup.c ****     char value[128] = {0};
 1207              		.loc 1 135 10
 1208 0020 02CE     		sw	zero,28(sp)
 1209 0022 97000000 		call	memset
 1209      E7800000 
 1210              	.LVL126:
 136:C:/Users/stapi/OneDrive/Desktop/GD32VW553/V1_MQTT_OK/GD32VW55X_Wifi_BLE_SDK/GD32VW55x_RELEASE_V1.0.2/MSDK/cloud/alicloud/src/protocol/alcs\alcs_localsetup.c ****     int value_len = sizeof(value);
 1211              		.loc 1 136 5 is_stmt 1
 136:C:/Users/stapi/OneDrive/Desktop/GD32VW553/V1_MQTT_OK/GD32VW55X_Wifi_BLE_SDK/GD32VW55x_RELEASE_V1.0.2/MSDK/cloud/alicloud/src/protocol/alcs\alcs_localsetup.c ****     int value_len = sizeof(value);
 1212              		.loc 1 136 10 is_stmt 0
 1213 002a 1306C007 		li	a2,124
 1214 002e 8145     		li	a1,0
 1215 0030 C800     		addi	a0,sp,68
 1216 0032 82C0     		sw	zero,64(sp)
 1217 0034 97000000 		call	memset
 1217      E7800000 
 1218              	.LVL127:
 137:C:/Users/stapi/OneDrive/Desktop/GD32VW553/V1_MQTT_OK/GD32VW55X_Wifi_BLE_SDK/GD32VW55x_RELEASE_V1.0.2/MSDK/cloud/alicloud/src/protocol/alcs\alcs_localsetup.c **** 
 1219              		.loc 1 137 5 is_stmt 1
 137:C:/Users/stapi/OneDrive/Desktop/GD32VW553/V1_MQTT_OK/GD32VW55X_Wifi_BLE_SDK/GD32VW55x_RELEASE_V1.0.2/MSDK/cloud/alicloud/src/protocol/alcs\alcs_localsetup.c **** 
 1220              		.loc 1 137 9 is_stmt 0
 1221 003c 93070008 		li	a5,128
 1222 0040 3ECC     		sw	a5,24(sp)
 139:C:/Users/stapi/OneDrive/Desktop/GD32VW553/V1_MQTT_OK/GD32VW55X_Wifi_BLE_SDK/GD32VW55x_RELEASE_V1.0.2/MSDK/cloud/alicloud/src/protocol/alcs\alcs_localsetup.c ****     if (prefix == NULL || secret == NULL) {
 1223              		.loc 1 139 5 is_stmt 1
 140:C:/Users/stapi/OneDrive/Desktop/GD32VW553/V1_MQTT_OK/GD32VW55X_Wifi_BLE_SDK/GD32VW55x_RELEASE_V1.0.2/MSDK/cloud/alicloud/src/protocol/alcs\alcs_localsetup.c ****         COAP_ERR("Invalid Parameter");
 1224              		.loc 1 140 5
 140:C:/Users/stapi/OneDrive/Desktop/GD32VW553/V1_MQTT_OK/GD32VW55X_Wifi_BLE_SDK/GD32VW55x_RELEASE_V1.0.2/MSDK/cloud/alicloud/src/protocol/alcs\alcs_localsetup.c ****         COAP_ERR("Invalid Parameter");
 1225              		.loc 1 140 8 is_stmt 0
 1226 0042 63840900 		beq	s3,zero,.L78
 140:C:/Users/stapi/OneDrive/Desktop/GD32VW553/V1_MQTT_OK/GD32VW55X_Wifi_BLE_SDK/GD32VW55x_RELEASE_V1.0.2/MSDK/cloud/alicloud/src/protocol/alcs\alcs_localsetup.c ****         COAP_ERR("Invalid Parameter");
 1227              		.loc 1 140 24 discriminator 1
 1228 0046 B246     		lw	a3,12(sp)
 1229 0048 A1E0     		bne	s1,zero,.L79
 1230              	.L78:
 141:C:/Users/stapi/OneDrive/Desktop/GD32VW553/V1_MQTT_OK/GD32VW55X_Wifi_BLE_SDK/GD32VW55x_RELEASE_V1.0.2/MSDK/cloud/alicloud/src/protocol/alcs\alcs_localsetup.c ****         return ALCS_LOCALSETUP_ERROR;
 1231              		.loc 1 141 9 is_stmt 1
 141:C:/Users/stapi/OneDrive/Desktop/GD32VW553/V1_MQTT_OK/GD32VW55X_Wifi_BLE_SDK/GD32VW55x_RELEASE_V1.0.2/MSDK/cloud/alicloud/src/protocol/alcs\alcs_localsetup.c ****         return ALCS_LOCALSETUP_ERROR;
 1232              		.loc 1 141 9
 1233 004a 37050000 		lui	a0,%hi(.LC0)
 1234 004e 13050500 		addi	a0,a0,%lo(.LC0)
 1235 0052 97000000 		call	HAL_Printf
 1235      E7800000 
 1236              	.LVL128:
 141:C:/Users/stapi/OneDrive/Desktop/GD32VW553/V1_MQTT_OK/GD32VW55X_Wifi_BLE_SDK/GD32VW55x_RELEASE_V1.0.2/MSDK/cloud/alicloud/src/protocol/alcs\alcs_localsetup.c ****         return ALCS_LOCALSETUP_ERROR;
 1237              		.loc 1 141 9
 1238 005a 37050000 		lui	a0,%hi(.LC1)
 1239 005e 13050500 		addi	a0,a0,%lo(.LC1)
 1240 0062 97000000 		call	HAL_Printf
 1240      E7800000 
 1241              	.LVL129:
 141:C:/Users/stapi/OneDrive/Desktop/GD32VW553/V1_MQTT_OK/GD32VW55X_Wifi_BLE_SDK/GD32VW55x_RELEASE_V1.0.2/MSDK/cloud/alicloud/src/protocol/alcs\alcs_localsetup.c ****         return ALCS_LOCALSETUP_ERROR;
 1242              		.loc 1 141 9
 1243 006a 37050000 		lui	a0,%hi(.LC2)
 1244 006e 13050500 		addi	a0,a0,%lo(.LC2)
 1245              	.LVL130:
 1246              	.L89:
 161:C:/Users/stapi/OneDrive/Desktop/GD32VW553/V1_MQTT_OK/GD32VW55X_Wifi_BLE_SDK/GD32VW55x_RELEASE_V1.0.2/MSDK/cloud/alicloud/src/protocol/alcs\alcs_localsetup.c ****         return ALCS_LOCALSETUP_ERROR;
 1247              		.loc 1 161 9 is_stmt 0
 1248 0072 97000000 		call	HAL_Printf
 1248      E7800000 
 1249              	.LVL131:
 161:C:/Users/stapi/OneDrive/Desktop/GD32VW553/V1_MQTT_OK/GD32VW55X_Wifi_BLE_SDK/GD32VW55x_RELEASE_V1.0.2/MSDK/cloud/alicloud/src/protocol/alcs\alcs_localsetup.c ****         return ALCS_LOCALSETUP_ERROR;
 1250              		.loc 1 161 9 is_stmt 1
 162:C:/Users/stapi/OneDrive/Desktop/GD32VW553/V1_MQTT_OK/GD32VW55X_Wifi_BLE_SDK/GD32VW55x_RELEASE_V1.0.2/MSDK/cloud/alicloud/src/protocol/alcs\alcs_localsetup.c ****     }
 1251              		.loc 1 162 9
 162:C:/Users/stapi/OneDrive/Desktop/GD32VW553/V1_MQTT_OK/GD32VW55X_Wifi_BLE_SDK/GD32VW55x_RELEASE_V1.0.2/MSDK/cloud/alicloud/src/protocol/alcs\alcs_localsetup.c ****     }
 1252              		.loc 1 162 16 is_stmt 0
 1253 007a 0544     		li	s0,1
 1254              	.L77:
 170:C:/Users/stapi/OneDrive/Desktop/GD32VW553/V1_MQTT_OK/GD32VW55X_Wifi_BLE_SDK/GD32VW55x_RELEASE_V1.0.2/MSDK/cloud/alicloud/src/protocol/alcs\alcs_localsetup.c **** 
 1255              		.loc 1 170 1
 1256 007c 2285     		mv	a0,s0
 1257 007e 2961     		addi	sp,sp,192
 1258              		.cfi_remember_state
 1259              		.cfi_def_cfa_offset 0
 1260 0080 17030000 		tail	__riscv_restore_8
 1260      67000300 
 1261              		.cfi_restore 23
 1262              		.cfi_restore 22
 1263              		.cfi_restore 21
 1264              		.cfi_restore 20
 1265              		.cfi_restore 19
 1266              		.cfi_restore 18
 1267              		.cfi_restore 9
 1268              		.cfi_restore 8
 1269              		.cfi_restore 1
 1270              		.cfi_def_cfa_offset -48
 1271              	.LVL132:
 1272              	.L79:
 1273              		.cfi_restore_state
 145:C:/Users/stapi/OneDrive/Desktop/GD32VW553/V1_MQTT_OK/GD32VW55X_Wifi_BLE_SDK/GD32VW55x_RELEASE_V1.0.2/MSDK/cloud/alicloud/src/protocol/alcs\alcs_localsetup.c ****     if (rt != ALCS_LOCALSETUP_SUCCESS) {
 1274              		.loc 1 145 5 is_stmt 1
 145:C:/Users/stapi/OneDrive/Desktop/GD32VW553/V1_MQTT_OK/GD32VW55X_Wifi_BLE_SDK/GD32VW55x_RELEASE_V1.0.2/MSDK/cloud/alicloud/src/protocol/alcs\alcs_localsetup.c ****     if (rt != ALCS_LOCALSETUP_SUCCESS) {
 1275              		.loc 1 145 10 is_stmt 0
 1276 0088 2285     		mv	a0,s0
 1277 008a 7808     		addi	a4,sp,28
 1278 008c 5A86     		mv	a2,s6
 1279 008e CA85     		mv	a1,s2
 1280 0090 97000000 		call	__fill_key
 1280      E7800000 
 1281              	.LVL133:
 1282 0098 2A84     		mv	s0,a0
 1283              	.LVL134:
 146:C:/Users/stapi/OneDrive/Desktop/GD32VW553/V1_MQTT_OK/GD32VW55X_Wifi_BLE_SDK/GD32VW55x_RELEASE_V1.0.2/MSDK/cloud/alicloud/src/protocol/alcs\alcs_localsetup.c ****         return rt;
 1284              		.loc 1 146 5 is_stmt 1
 146:C:/Users/stapi/OneDrive/Desktop/GD32VW553/V1_MQTT_OK/GD32VW55X_Wifi_BLE_SDK/GD32VW55x_RELEASE_V1.0.2/MSDK/cloud/alicloud/src/protocol/alcs\alcs_localsetup.c ****         return rt;
 1285              		.loc 1 146 8 is_stmt 0
 1286 009a 6DF1     		bne	a0,zero,.L77
 152:C:/Users/stapi/OneDrive/Desktop/GD32VW553/V1_MQTT_OK/GD32VW55X_Wifi_BLE_SDK/GD32VW55x_RELEASE_V1.0.2/MSDK/cloud/alicloud/src/protocol/alcs\alcs_localsetup.c **** #else
 1287              		.loc 1 152 5 is_stmt 1
 1288              	.LVL135:
 1289              	.LBB36:
 1290              	.LBB37:
  42:C:/Users/stapi/OneDrive/Desktop/GD32VW553/V1_MQTT_OK/GD32VW55X_Wifi_BLE_SDK/GD32VW55x_RELEASE_V1.0.2/MSDK/cloud/alicloud/src/protocol/alcs\alcs_localsetup.c **** 
 1291              		.loc 1 42 5
  44:C:/Users/stapi/OneDrive/Desktop/GD32VW553/V1_MQTT_OK/GD32VW55X_Wifi_BLE_SDK/GD32VW55x_RELEASE_V1.0.2/MSDK/cloud/alicloud/src/protocol/alcs\alcs_localsetup.c ****         COAP_WRN("HAL_Kv_Get('%s') = %d (!= 0), return %d", key, rc, ALCS_LOCALSETUP_ERROR);
 1292              		.loc 1 44 5
  44:C:/Users/stapi/OneDrive/Desktop/GD32VW553/V1_MQTT_OK/GD32VW55X_Wifi_BLE_SDK/GD32VW55x_RELEASE_V1.0.2/MSDK/cloud/alicloud/src/protocol/alcs\alcs_localsetup.c ****         COAP_WRN("HAL_Kv_Get('%s') = %d (!= 0), return %d", key, rc, ALCS_LOCALSETUP_ERROR);
 1293              		.loc 1 44 15 is_stmt 0
 1294 009c 37090000 		lui	s2,%hi(.LC23)
 1295 00a0 3008     		addi	a2,sp,24
 1296              	.LVL136:
 1297 00a2 8C00     		addi	a1,sp,64
 1298              	.LVL137:
 1299 00a4 13050900 		addi	a0,s2,%lo(.LC23)
 1300 00a8 97000000 		call	aos_kv_get
 1300      E7800000 
 1301              	.LVL138:
 1302 00b0 370B0000 		lui	s6,%hi(.LC2)
 1303              	.LVL139:
  44:C:/Users/stapi/OneDrive/Desktop/GD32VW553/V1_MQTT_OK/GD32VW55X_Wifi_BLE_SDK/GD32VW55x_RELEASE_V1.0.2/MSDK/cloud/alicloud/src/protocol/alcs\alcs_localsetup.c ****         COAP_WRN("HAL_Kv_Get('%s') = %d (!= 0), return %d", key, rc, ALCS_LOCALSETUP_ERROR);
 1304              		.loc 1 44 8
 1305 00b4 29CD     		beq	a0,zero,.L81
  45:C:/Users/stapi/OneDrive/Desktop/GD32VW553/V1_MQTT_OK/GD32VW55X_Wifi_BLE_SDK/GD32VW55x_RELEASE_V1.0.2/MSDK/cloud/alicloud/src/protocol/alcs\alcs_localsetup.c ****         return ALCS_LOCALSETUP_ERROR;
 1306              		.loc 1 45 9
 1307 00b6 37040000 		lui	s0,%hi(.LC26)
 1308              	.LVL140:
 1309 00ba 2AC6     		sw	a0,12(sp)
  45:C:/Users/stapi/OneDrive/Desktop/GD32VW553/V1_MQTT_OK/GD32VW55X_Wifi_BLE_SDK/GD32VW55x_RELEASE_V1.0.2/MSDK/cloud/alicloud/src/protocol/alcs\alcs_localsetup.c ****         return ALCS_LOCALSETUP_ERROR;
 1310              		.loc 1 45 9 is_stmt 1
  45:C:/Users/stapi/OneDrive/Desktop/GD32VW553/V1_MQTT_OK/GD32VW55X_Wifi_BLE_SDK/GD32VW55x_RELEASE_V1.0.2/MSDK/cloud/alicloud/src/protocol/alcs\alcs_localsetup.c ****         return ALCS_LOCALSETUP_ERROR;
 1311              		.loc 1 45 9
 1312 00bc 13050400 		addi	a0,s0,%lo(.LC26)
 1313              	.LVL141:
 1314 00c0 97000000 		call	HAL_Printf
 1314      E7800000 
 1315              	.LVL142:
  45:C:/Users/stapi/OneDrive/Desktop/GD32VW553/V1_MQTT_OK/GD32VW55X_Wifi_BLE_SDK/GD32VW55x_RELEASE_V1.0.2/MSDK/cloud/alicloud/src/protocol/alcs\alcs_localsetup.c ****         return ALCS_LOCALSETUP_ERROR;
 1316              		.loc 1 45 9
 1317 00c8 3246     		lw	a2,12(sp)
 1318 00ca 37050000 		lui	a0,%hi(.LC32)
 1319 00ce 8546     		li	a3,1
 1320 00d0 93050900 		addi	a1,s2,%lo(.LC23)
 1321 00d4 13050500 		addi	a0,a0,%lo(.LC32)
 1322 00d8 97000000 		call	HAL_Printf
 1322      E7800000 
 1323              	.LVL143:
  45:C:/Users/stapi/OneDrive/Desktop/GD32VW553/V1_MQTT_OK/GD32VW55X_Wifi_BLE_SDK/GD32VW55x_RELEASE_V1.0.2/MSDK/cloud/alicloud/src/protocol/alcs\alcs_localsetup.c ****         return ALCS_LOCALSETUP_ERROR;
 1324              		.loc 1 45 9
 1325 00e0 13050B00 		addi	a0,s6,%lo(.LC2)
 1326 00e4 97000000 		call	HAL_Printf
 1326      E7800000 
 1327              	.LVL144:
  45:C:/Users/stapi/OneDrive/Desktop/GD32VW553/V1_MQTT_OK/GD32VW55X_Wifi_BLE_SDK/GD32VW55x_RELEASE_V1.0.2/MSDK/cloud/alicloud/src/protocol/alcs\alcs_localsetup.c ****         return ALCS_LOCALSETUP_ERROR;
 1328              		.loc 1 45 9
  46:C:/Users/stapi/OneDrive/Desktop/GD32VW553/V1_MQTT_OK/GD32VW55X_Wifi_BLE_SDK/GD32VW55x_RELEASE_V1.0.2/MSDK/cloud/alicloud/src/protocol/alcs\alcs_localsetup.c ****     }
 1329              		.loc 1 46 9
 1330              	.LBE37:
 1331              	.LBE36:
 156:C:/Users/stapi/OneDrive/Desktop/GD32VW553/V1_MQTT_OK/GD32VW55X_Wifi_BLE_SDK/GD32VW55x_RELEASE_V1.0.2/MSDK/cloud/alicloud/src/protocol/alcs\alcs_localsetup.c ****         return ALCS_LOCALSETUP_ERROR;
 1332              		.loc 1 156 9
 156:C:/Users/stapi/OneDrive/Desktop/GD32VW553/V1_MQTT_OK/GD32VW55X_Wifi_BLE_SDK/GD32VW55x_RELEASE_V1.0.2/MSDK/cloud/alicloud/src/protocol/alcs\alcs_localsetup.c ****         return ALCS_LOCALSETUP_ERROR;
 1333              		.loc 1 156 9
 1334 00ec 13050400 		addi	a0,s0,%lo(.LC26)
 1335 00f0 97000000 		call	HAL_Printf
 1335      E7800000 
 1336              	.LVL145:
 156:C:/Users/stapi/OneDrive/Desktop/GD32VW553/V1_MQTT_OK/GD32VW55X_Wifi_BLE_SDK/GD32VW55x_RELEASE_V1.0.2/MSDK/cloud/alicloud/src/protocol/alcs\alcs_localsetup.c ****         return ALCS_LOCALSETUP_ERROR;
 1337              		.loc 1 156 9
 1338 00f8 37050000 		lui	a0,%hi(.LC24)
 1339 00fc 13050500 		addi	a0,a0,%lo(.LC24)
 1340              	.L88:
 161:C:/Users/stapi/OneDrive/Desktop/GD32VW553/V1_MQTT_OK/GD32VW55X_Wifi_BLE_SDK/GD32VW55x_RELEASE_V1.0.2/MSDK/cloud/alicloud/src/protocol/alcs\alcs_localsetup.c ****         return ALCS_LOCALSETUP_ERROR;
 1341              		.loc 1 161 9 is_stmt 0
 1342 0100 97000000 		call	HAL_Printf
 1342      E7800000 
 1343              	.LVL146:
 161:C:/Users/stapi/OneDrive/Desktop/GD32VW553/V1_MQTT_OK/GD32VW55X_Wifi_BLE_SDK/GD32VW55x_RELEASE_V1.0.2/MSDK/cloud/alicloud/src/protocol/alcs\alcs_localsetup.c ****         return ALCS_LOCALSETUP_ERROR;
 1344              		.loc 1 161 9 is_stmt 1
 1345 0108 13050B00 		addi	a0,s6,%lo(.LC2)
 1346 010c 9DB7     		j	.L89
 1347              	.LVL147:
 1348              	.L81:
 1349              	.LBB39:
 1350              	.LBB38:
  49:C:/Users/stapi/OneDrive/Desktop/GD32VW553/V1_MQTT_OK/GD32VW55X_Wifi_BLE_SDK/GD32VW55x_RELEASE_V1.0.2/MSDK/cloud/alicloud/src/protocol/alcs\alcs_localsetup.c **** 
 1351              		.loc 1 49 5
  49:C:/Users/stapi/OneDrive/Desktop/GD32VW553/V1_MQTT_OK/GD32VW55X_Wifi_BLE_SDK/GD32VW55x_RELEASE_V1.0.2/MSDK/cloud/alicloud/src/protocol/alcs\alcs_localsetup.c **** 
 1352              		.loc 1 49 5
 1353 010e 37050000 		lui	a0,%hi(.LC5)
 1354              	.LVL148:
 1355 0112 13050500 		addi	a0,a0,%lo(.LC5)
 1356 0116 97000000 		call	HAL_Printf
 1356      E7800000 
 1357              	.LVL149:
  49:C:/Users/stapi/OneDrive/Desktop/GD32VW553/V1_MQTT_OK/GD32VW55X_Wifi_BLE_SDK/GD32VW55x_RELEASE_V1.0.2/MSDK/cloud/alicloud/src/protocol/alcs\alcs_localsetup.c **** 
 1358              		.loc 1 49 5
 1359 011e 37050000 		lui	a0,%hi(.LC33)
 1360 0122 93050900 		addi	a1,s2,%lo(.LC23)
 1361 0126 13050500 		addi	a0,a0,%lo(.LC33)
 1362 012a 97000000 		call	HAL_Printf
 1362      E7800000 
 1363              	.LVL150:
  49:C:/Users/stapi/OneDrive/Desktop/GD32VW553/V1_MQTT_OK/GD32VW55X_Wifi_BLE_SDK/GD32VW55x_RELEASE_V1.0.2/MSDK/cloud/alicloud/src/protocol/alcs\alcs_localsetup.c **** 
 1364              		.loc 1 49 5
 1365 0132 13050B00 		addi	a0,s6,%lo(.LC2)
 1366 0136 97000000 		call	HAL_Printf
 1366      E7800000 
 1367              	.LVL151:
  49:C:/Users/stapi/OneDrive/Desktop/GD32VW553/V1_MQTT_OK/GD32VW55X_Wifi_BLE_SDK/GD32VW55x_RELEASE_V1.0.2/MSDK/cloud/alicloud/src/protocol/alcs\alcs_localsetup.c **** 
 1368              		.loc 1 49 5
  51:C:/Users/stapi/OneDrive/Desktop/GD32VW553/V1_MQTT_OK/GD32VW55X_Wifi_BLE_SDK/GD32VW55x_RELEASE_V1.0.2/MSDK/cloud/alicloud/src/protocol/alcs\alcs_localsetup.c **** }
 1369              		.loc 1 51 5
 1370              	.LBE38:
 1371              	.LBE39:
 160:C:/Users/stapi/OneDrive/Desktop/GD32VW553/V1_MQTT_OK/GD32VW55X_Wifi_BLE_SDK/GD32VW55x_RELEASE_V1.0.2/MSDK/cloud/alicloud/src/protocol/alcs\alcs_localsetup.c ****         COAP_ERR("insuffient buffer!");
 1372              		.loc 1 160 5
 160:C:/Users/stapi/OneDrive/Desktop/GD32VW553/V1_MQTT_OK/GD32VW55X_Wifi_BLE_SDK/GD32VW55x_RELEASE_V1.0.2/MSDK/cloud/alicloud/src/protocol/alcs\alcs_localsetup.c ****         COAP_ERR("insuffient buffer!");
 1373              		.loc 1 160 14 is_stmt 0
 1374 013e 03090104 		lb	s2,64(sp)
 160:C:/Users/stapi/OneDrive/Desktop/GD32VW553/V1_MQTT_OK/GD32VW55X_Wifi_BLE_SDK/GD32VW55x_RELEASE_V1.0.2/MSDK/cloud/alicloud/src/protocol/alcs\alcs_localsetup.c ****         COAP_ERR("insuffient buffer!");
 1375              		.loc 1 160 8
 1376 0142 63565901 		bge	s2,s5,.L82
 160:C:/Users/stapi/OneDrive/Desktop/GD32VW553/V1_MQTT_OK/GD32VW55X_Wifi_BLE_SDK/GD32VW55x_RELEASE_V1.0.2/MSDK/cloud/alicloud/src/protocol/alcs\alcs_localsetup.c ****         COAP_ERR("insuffient buffer!");
 1377              		.loc 1 160 40 discriminator 1
 1378 0146 830B1104 		lb	s7,65(sp)
 160:C:/Users/stapi/OneDrive/Desktop/GD32VW553/V1_MQTT_OK/GD32VW55X_Wifi_BLE_SDK/GD32VW55x_RELEASE_V1.0.2/MSDK/cloud/alicloud/src/protocol/alcs\alcs_localsetup.c ****         COAP_ERR("insuffient buffer!");
 1379              		.loc 1 160 32 discriminator 1
 1380 014a 63CF4B01 		blt	s7,s4,.L83
 1381              	.L82:
 161:C:/Users/stapi/OneDrive/Desktop/GD32VW553/V1_MQTT_OK/GD32VW55X_Wifi_BLE_SDK/GD32VW55x_RELEASE_V1.0.2/MSDK/cloud/alicloud/src/protocol/alcs\alcs_localsetup.c ****         return ALCS_LOCALSETUP_ERROR;
 1382              		.loc 1 161 9 is_stmt 1
 161:C:/Users/stapi/OneDrive/Desktop/GD32VW553/V1_MQTT_OK/GD32VW55X_Wifi_BLE_SDK/GD32VW55x_RELEASE_V1.0.2/MSDK/cloud/alicloud/src/protocol/alcs\alcs_localsetup.c ****         return ALCS_LOCALSETUP_ERROR;
 1383              		.loc 1 161 9
 1384 014e 37050000 		lui	a0,%hi(.LC0)
 1385 0152 13050500 		addi	a0,a0,%lo(.LC0)
 1386 0156 97000000 		call	HAL_Printf
 1386      E7800000 
 1387              	.LVL152:
 161:C:/Users/stapi/OneDrive/Desktop/GD32VW553/V1_MQTT_OK/GD32VW55X_Wifi_BLE_SDK/GD32VW55x_RELEASE_V1.0.2/MSDK/cloud/alicloud/src/protocol/alcs\alcs_localsetup.c ****         return ALCS_LOCALSETUP_ERROR;
 1388              		.loc 1 161 9
 1389 015e 37050000 		lui	a0,%hi(.LC34)
 1390 0162 13050500 		addi	a0,a0,%lo(.LC34)
 1391 0166 69BF     		j	.L88
 1392              	.L83:
 165:C:/Users/stapi/OneDrive/Desktop/GD32VW553/V1_MQTT_OK/GD32VW55X_Wifi_BLE_SDK/GD32VW55x_RELEASE_V1.0.2/MSDK/cloud/alicloud/src/protocol/alcs\alcs_localsetup.c ****     memcpy(prefix, &value[2], value[0]);
 1393              		.loc 1 165 5
 1394 0168 5686     		mv	a2,s5
 1395 016a 8145     		li	a1,0
 1396 016c 4E85     		mv	a0,s3
 1397 016e 97000000 		call	memset
 1397      E7800000 
 1398              	.LVL153:
 166:C:/Users/stapi/OneDrive/Desktop/GD32VW553/V1_MQTT_OK/GD32VW55X_Wifi_BLE_SDK/GD32VW55x_RELEASE_V1.0.2/MSDK/cloud/alicloud/src/protocol/alcs\alcs_localsetup.c ****     memset(secret, 0, secret_len);
 1399              		.loc 1 166 5
 1400 0176 4A86     		mv	a2,s2
 1401 0178 93052104 		addi	a1,sp,66
 1402 017c 4E85     		mv	a0,s3
 1403 017e 97000000 		call	memcpy
 1403      E7800000 
 1404              	.LVL154:
 167:C:/Users/stapi/OneDrive/Desktop/GD32VW553/V1_MQTT_OK/GD32VW55X_Wifi_BLE_SDK/GD32VW55x_RELEASE_V1.0.2/MSDK/cloud/alicloud/src/protocol/alcs\alcs_localsetup.c ****     memcpy(secret, &value[2 + value[0]], value[1]);
 1405              		.loc 1 167 5
 1406 0186 5286     		mv	a2,s4
 1407 0188 8145     		li	a1,0
 1408 018a 2685     		mv	a0,s1
 1409 018c 97000000 		call	memset
 1409      E7800000 
 1410              	.LVL155:
 168:C:/Users/stapi/OneDrive/Desktop/GD32VW553/V1_MQTT_OK/GD32VW55X_Wifi_BLE_SDK/GD32VW55x_RELEASE_V1.0.2/MSDK/cloud/alicloud/src/protocol/alcs\alcs_localsetup.c ****     return ALCS_LOCALSETUP_SUCCESS;
 1411              		.loc 1 168 5
 168:C:/Users/stapi/OneDrive/Desktop/GD32VW553/V1_MQTT_OK/GD32VW55X_Wifi_BLE_SDK/GD32VW55x_RELEASE_V1.0.2/MSDK/cloud/alicloud/src/protocol/alcs\alcs_localsetup.c ****     return ALCS_LOCALSETUP_SUCCESS;
 1412              		.loc 1 168 29 is_stmt 0
 1413 0194 93052900 		addi	a1,s2,2
 168:C:/Users/stapi/OneDrive/Desktop/GD32VW553/V1_MQTT_OK/GD32VW55X_Wifi_BLE_SDK/GD32VW55x_RELEASE_V1.0.2/MSDK/cloud/alicloud/src/protocol/alcs\alcs_localsetup.c ****     return ALCS_LOCALSETUP_SUCCESS;
 1414              		.loc 1 168 5
 1415 0198 9C00     		addi	a5,sp,64
 1416 019a 5E86     		mv	a2,s7
 1417 019c BE95     		add	a1,a5,a1
 1418 019e 2685     		mv	a0,s1
 1419 01a0 97000000 		call	memcpy
 1419      E7800000 
 1420              	.LVL156:
 169:C:/Users/stapi/OneDrive/Desktop/GD32VW553/V1_MQTT_OK/GD32VW55X_Wifi_BLE_SDK/GD32VW55x_RELEASE_V1.0.2/MSDK/cloud/alicloud/src/protocol/alcs\alcs_localsetup.c **** }
 1421              		.loc 1 169 5 is_stmt 1
 169:C:/Users/stapi/OneDrive/Desktop/GD32VW553/V1_MQTT_OK/GD32VW55X_Wifi_BLE_SDK/GD32VW55x_RELEASE_V1.0.2/MSDK/cloud/alicloud/src/protocol/alcs\alcs_localsetup.c **** }
 1422              		.loc 1 169 12 is_stmt 0
 1423 01a8 D1BD     		j	.L77
 1424              		.cfi_endproc
 1425              	.LFE25:
 1427              		.section	.text.alcs_localsetup_init,"ax",@progbits
 1428              		.align	1
 1429              		.globl	alcs_localsetup_init
 1431              	alcs_localsetup_init:
 1432              	.LFB29:
 303:C:/Users/stapi/OneDrive/Desktop/GD32VW553/V1_MQTT_OK/GD32VW55X_Wifi_BLE_SDK/GD32VW55x_RELEASE_V1.0.2/MSDK/cloud/alicloud/src/protocol/alcs\alcs_localsetup.c **** 
 304:C:/Users/stapi/OneDrive/Desktop/GD32VW553/V1_MQTT_OK/GD32VW55X_Wifi_BLE_SDK/GD32VW55x_RELEASE_V1.0.2/MSDK/cloud/alicloud/src/protocol/alcs\alcs_localsetup.c **** void alcs_localsetup_init(void *adapter_handle, void* coap_handler, char *pk, char *dn)
 305:C:/Users/stapi/OneDrive/Desktop/GD32VW553/V1_MQTT_OK/GD32VW55X_Wifi_BLE_SDK/GD32VW55x_RELEASE_V1.0.2/MSDK/cloud/alicloud/src/protocol/alcs\alcs_localsetup.c **** {
 1433              		.loc 1 305 1 is_stmt 1
 1434              		.cfi_startproc
 1435              	.LVL157:
 1436 0000 17030000 		call	t0,__riscv_save_4
 1436      E7020300 
 1437              		.cfi_offset 19, -20
 1438              		.cfi_offset 18, -16
 1439              		.cfi_offset 9, -12
 1440              		.cfi_offset 8, -8
 1441              		.cfi_offset 1, -4
 1442              		.cfi_def_cfa_offset 32
 306:C:/Users/stapi/OneDrive/Desktop/GD32VW553/V1_MQTT_OK/GD32VW55X_Wifi_BLE_SDK/GD32VW55x_RELEASE_V1.0.2/MSDK/cloud/alicloud/src/protocol/alcs\alcs_localsetup.c ****     char prefix [10];
 1443              		.loc 1 306 5
 307:C:/Users/stapi/OneDrive/Desktop/GD32VW553/V1_MQTT_OK/GD32VW55X_Wifi_BLE_SDK/GD32VW55x_RELEASE_V1.0.2/MSDK/cloud/alicloud/src/protocol/alcs\alcs_localsetup.c ****     char secret [64];
 1444              		.loc 1 307 5
 308:C:/Users/stapi/OneDrive/Desktop/GD32VW553/V1_MQTT_OK/GD32VW55X_Wifi_BLE_SDK/GD32VW55x_RELEASE_V1.0.2/MSDK/cloud/alicloud/src/protocol/alcs\alcs_localsetup.c ****     g_adapter_handle = adapter_handle;
 1445              		.loc 1 308 5
 309:C:/Users/stapi/OneDrive/Desktop/GD32VW553/V1_MQTT_OK/GD32VW55X_Wifi_BLE_SDK/GD32VW55x_RELEASE_V1.0.2/MSDK/cloud/alicloud/src/protocol/alcs\alcs_localsetup.c ****     g_coap_handle = coap_handler;
 1446              		.loc 1 309 19 is_stmt 0
 1447 0008 37090000 		lui	s2,%hi(.LANCHOR1)
 305:C:/Users/stapi/OneDrive/Desktop/GD32VW553/V1_MQTT_OK/GD32VW55X_Wifi_BLE_SDK/GD32VW55x_RELEASE_V1.0.2/MSDK/cloud/alicloud/src/protocol/alcs\alcs_localsetup.c ****     char prefix [10];
 1448              		.loc 1 305 1
 1449 000c 3284     		mv	s0,a2
 1450              		.loc 1 309 19
 1451 000e 13090900 		addi	s2,s2,%lo(.LANCHOR1)
 305:C:/Users/stapi/OneDrive/Desktop/GD32VW553/V1_MQTT_OK/GD32VW55X_Wifi_BLE_SDK/GD32VW55x_RELEASE_V1.0.2/MSDK/cloud/alicloud/src/protocol/alcs\alcs_localsetup.c ****     char prefix [10];
 1452              		.loc 1 305 1
 1453 0012 5D71     		addi	sp,sp,-80
 1454              		.cfi_def_cfa_offset 112
 308:C:/Users/stapi/OneDrive/Desktop/GD32VW553/V1_MQTT_OK/GD32VW55X_Wifi_BLE_SDK/GD32VW55x_RELEASE_V1.0.2/MSDK/cloud/alicloud/src/protocol/alcs\alcs_localsetup.c ****     g_adapter_handle = adapter_handle;
 1455              		.loc 1 308 22
 1456 0014 B7070000 		lui	a5,%hi(.LANCHOR2)
 310:C:/Users/stapi/OneDrive/Desktop/GD32VW553/V1_MQTT_OK/GD32VW55X_Wifi_BLE_SDK/GD32VW55x_RELEASE_V1.0.2/MSDK/cloud/alicloud/src/protocol/alcs\alcs_localsetup.c ****     alcs_localsetup_register_resource (adapter_handle, pk, dn);
 1457              		.loc 1 310 5
 1458 0018 3686     		mv	a2,a3
 1459              	.LVL158:
 309:C:/Users/stapi/OneDrive/Desktop/GD32VW553/V1_MQTT_OK/GD32VW55X_Wifi_BLE_SDK/GD32VW55x_RELEASE_V1.0.2/MSDK/cloud/alicloud/src/protocol/alcs\alcs_localsetup.c ****     g_coap_handle = coap_handler;
 1460              		.loc 1 309 19
 1461 001a 2320B900 		sw	a1,0(s2)
 1462              		.loc 1 310 5
 1463 001e A285     		mv	a1,s0
 1464              	.LVL159:
 305:C:/Users/stapi/OneDrive/Desktop/GD32VW553/V1_MQTT_OK/GD32VW55X_Wifi_BLE_SDK/GD32VW55x_RELEASE_V1.0.2/MSDK/cloud/alicloud/src/protocol/alcs\alcs_localsetup.c ****     char prefix [10];
 1465              		.loc 1 305 1
 1466 0020 B684     		mv	s1,a3
 308:C:/Users/stapi/OneDrive/Desktop/GD32VW553/V1_MQTT_OK/GD32VW55X_Wifi_BLE_SDK/GD32VW55x_RELEASE_V1.0.2/MSDK/cloud/alicloud/src/protocol/alcs\alcs_localsetup.c ****     g_coap_handle = coap_handler;
 1467              		.loc 1 308 22
 1468 0022 23A0A700 		sw	a0,%lo(.LANCHOR2)(a5)
 309:C:/Users/stapi/OneDrive/Desktop/GD32VW553/V1_MQTT_OK/GD32VW55X_Wifi_BLE_SDK/GD32VW55x_RELEASE_V1.0.2/MSDK/cloud/alicloud/src/protocol/alcs\alcs_localsetup.c ****     alcs_localsetup_register_resource (adapter_handle, pk, dn);
 1469              		.loc 1 309 5 is_stmt 1
 1470              		.loc 1 310 5
 1471 0026 97000000 		call	alcs_localsetup_register_resource
 1471      E7800000 
 1472              	.LVL160:
 311:C:/Users/stapi/OneDrive/Desktop/GD32VW553/V1_MQTT_OK/GD32VW55X_Wifi_BLE_SDK/GD32VW55x_RELEASE_V1.0.2/MSDK/cloud/alicloud/src/protocol/alcs\alcs_localsetup.c **** 
 312:C:/Users/stapi/OneDrive/Desktop/GD32VW553/V1_MQTT_OK/GD32VW55X_Wifi_BLE_SDK/GD32VW55x_RELEASE_V1.0.2/MSDK/cloud/alicloud/src/protocol/alcs\alcs_localsetup.c ****     if (alcs_localsetup_ac_as_load(pk, strlen(pk), dn, strlen(dn), prefix, sizeof(prefix), secret, 
 1473              		.loc 1 312 5
 1474              		.loc 1 312 40 is_stmt 0
 1475 002e 2285     		mv	a0,s0
 1476 0030 97000000 		call	strlen
 1476      E7800000 
 1477              	.LVL161:
 1478 0038 AA89     		mv	s3,a0
 1479              		.loc 1 312 56
 1480 003a 2685     		mv	a0,s1
 1481 003c 97000000 		call	strlen
 1481      E7800000 
 1482              	.LVL162:
 1483              		.loc 1 312 9
 1484 0044 A947     		li	a5,10
 1485 0046 B3460508 		zext.h	a3,a0
 1486 004a 93080004 		li	a7,64
 1487 004e 13080101 		addi	a6,sp,16
 1488 0052 5800     		addi	a4,sp,4
 1489 0054 2686     		mv	a2,s1
 1490 0056 2285     		mv	a0,s0
 1491 0058 B3C50908 		zext.h	a1,s3
 1492 005c 97000000 		call	alcs_localsetup_ac_as_load
 1492      E7800000 
 1493              	.LVL163:
 1494 0064 AA87     		mv	a5,a0
 1495 0066 03250900 		lw	a0,0(s2)
 1496              		.loc 1 312 8
 1497 006a 9DC3     		beq	a5,zero,.L91
 313:C:/Users/stapi/OneDrive/Desktop/GD32VW553/V1_MQTT_OK/GD32VW55X_Wifi_BLE_SDK/GD32VW55x_RELEASE_V1.0.2/MSDK/cloud/alicloud/src/protocol/alcs\alcs_localsetup.c ****         alcs_add_svr_key(g_coap_handle, DEFAULT_AC, DEFAULT_AS, LOCALDEFAULT);
 1498              		.loc 1 313 9 is_stmt 1
 1499 006c B7070000 		lui	a5,%hi(.LANCHOR3)
 1500 0070 03A60700 		lw	a2,%lo(.LANCHOR3)(a5)
 1501 0074 B7070000 		lui	a5,%hi(.LANCHOR4)
 1502 0078 83A50700 		lw	a1,%lo(.LANCHOR4)(a5)
 1503 007c 8146     		li	a3,0
 1504              	.L94:
 314:C:/Users/stapi/OneDrive/Desktop/GD32VW553/V1_MQTT_OK/GD32VW55X_Wifi_BLE_SDK/GD32VW55x_RELEASE_V1.0.2/MSDK/cloud/alicloud/src/protocol/alcs\alcs_localsetup.c ****     } else {
 315:C:/Users/stapi/OneDrive/Desktop/GD32VW553/V1_MQTT_OK/GD32VW55X_Wifi_BLE_SDK/GD32VW55x_RELEASE_V1.0.2/MSDK/cloud/alicloud/src/protocol/alcs\alcs_localsetup.c ****         alcs_add_svr_key(g_coap_handle, prefix, secret, LOCALSETUP);
 1505              		.loc 1 315 9 is_stmt 0
 1506 007e 97000000 		call	alcs_add_svr_key
 1506      E7800000 
 1507              	.LVL164:
 316:C:/Users/stapi/OneDrive/Desktop/GD32VW553/V1_MQTT_OK/GD32VW55X_Wifi_BLE_SDK/GD32VW55x_RELEASE_V1.0.2/MSDK/cloud/alicloud/src/protocol/alcs\alcs_localsetup.c ****     }
 317:C:/Users/stapi/OneDrive/Desktop/GD32VW553/V1_MQTT_OK/GD32VW55X_Wifi_BLE_SDK/GD32VW55x_RELEASE_V1.0.2/MSDK/cloud/alicloud/src/protocol/alcs\alcs_localsetup.c **** }
 1508              		.loc 1 317 1
 1509 0086 6161     		addi	sp,sp,80
 1510              		.cfi_remember_state
 1511              		.cfi_def_cfa_offset 0
 1512 0088 17030000 		tail	__riscv_restore_4
 1512      67000300 
 1513              		.cfi_restore 19
 1514              		.cfi_restore 18
 1515              		.cfi_restore 9
 1516              		.cfi_restore 8
 1517              		.cfi_restore 1
 1518              		.cfi_def_cfa_offset -32
 1519              	.L91:
 1520              		.cfi_restore_state
 315:C:/Users/stapi/OneDrive/Desktop/GD32VW553/V1_MQTT_OK/GD32VW55X_Wifi_BLE_SDK/GD32VW55x_RELEASE_V1.0.2/MSDK/cloud/alicloud/src/protocol/alcs\alcs_localsetup.c ****     }
 1521              		.loc 1 315 9 is_stmt 1
 1522 0090 8546     		li	a3,1
 1523 0092 1008     		addi	a2,sp,16
 1524 0094 4C00     		addi	a1,sp,4
 1525 0096 E5B7     		j	.L94
 1526              		.cfi_endproc
 1527              	.LFE29:
 1529              		.section	.text.alcs_localsetup_add_sub_device,"ax",@progbits
 1530              		.align	1
 1531              		.globl	alcs_localsetup_add_sub_device
 1533              	alcs_localsetup_add_sub_device:
 1534              	.LFB30:
 318:C:/Users/stapi/OneDrive/Desktop/GD32VW553/V1_MQTT_OK/GD32VW55X_Wifi_BLE_SDK/GD32VW55x_RELEASE_V1.0.2/MSDK/cloud/alicloud/src/protocol/alcs\alcs_localsetup.c **** 
 319:C:/Users/stapi/OneDrive/Desktop/GD32VW553/V1_MQTT_OK/GD32VW55X_Wifi_BLE_SDK/GD32VW55x_RELEASE_V1.0.2/MSDK/cloud/alicloud/src/protocol/alcs\alcs_localsetup.c **** void alcs_localsetup_add_sub_device (void *adapter_handle,char* pk,char* dn)
 320:C:/Users/stapi/OneDrive/Desktop/GD32VW553/V1_MQTT_OK/GD32VW55X_Wifi_BLE_SDK/GD32VW55x_RELEASE_V1.0.2/MSDK/cloud/alicloud/src/protocol/alcs\alcs_localsetup.c **** {
 1535              		.loc 1 320 1
 1536              		.cfi_startproc
 1537              	.LVL165:
 321:C:/Users/stapi/OneDrive/Desktop/GD32VW553/V1_MQTT_OK/GD32VW55X_Wifi_BLE_SDK/GD32VW55x_RELEASE_V1.0.2/MSDK/cloud/alicloud/src/protocol/alcs\alcs_localsetup.c ****     alcs_localsetup_register_resource (adapter_handle, pk, dn);
 1538              		.loc 1 321 5
 1539 0000 17030000 		tail	alcs_localsetup_register_resource
 1539      67000300 
 1540              	.LVL166:
 1541              		.cfi_endproc
 1542              	.LFE30:
 1544              		.globl	g_coap_handle
 1545              		.globl	g_adapter_handle
 1546              		.globl	DEFAULT_AS
 1547              		.section	.rodata.str1.4,"aMS",@progbits,1
 1548              		.align	2
 1549              	.LC35:
 1550 0000 59783344 		.string	"Yx3DdsyetbSezlvc"
 1550      64737965 
 1550      74625365 
 1550      7A6C7663 
 1550      00
 1551              		.globl	DEFAULT_AC
 1552 0011 000000   		.align	2
 1553              	.LC36:
 1554 0014 58746175 		.string	"Xtau@iot"
 1554      40696F74 
 1554      00
 1555              		.section	.rodata.__FUNCTION__.0,"a"
 1556              		.align	2
 1557              		.set	.LANCHOR0,. + 0
 1560              	__FUNCTION__.0:
 1561 0000 616C6373 		.string	"alcs_service_cb_setup"
 1561      5F736572 
 1561      76696365 
 1561      5F63625F 
 1561      73657475 
 1562              		.section	.sbss.g_adapter_handle,"aw",@nobits
 1563              		.align	2
 1564              		.set	.LANCHOR2,. + 0
 1567              	g_adapter_handle:
 1568 0000 00000000 		.zero	4
 1569              		.section	.sbss.g_coap_handle,"aw",@nobits
 1570              		.align	2
 1571              		.set	.LANCHOR1,. + 0
 1574              	g_coap_handle:
 1575 0000 00000000 		.zero	4
 1576              		.section	.sdata.DEFAULT_AC,"aw"
 1577              		.align	2
 1578              		.set	.LANCHOR4,. + 0
 1581              	DEFAULT_AC:
 1582 0000 00000000 		.word	.LC36
 1583              		.section	.sdata.DEFAULT_AS,"aw"
 1584              		.align	2
 1585              		.set	.LANCHOR3,. + 0
 1588              	DEFAULT_AS:
 1589 0000 00000000 		.word	.LC35
 1590              		.text
 1591              	.Letext0:
 1592              		.file 2 "c:\\users\\stapi\\onedrive\\desktop\\gd32vw553\\embeddedbuilder_v1.4.7.26843\\tools\\nucl
 1593              		.file 3 "c:\\users\\stapi\\onedrive\\desktop\\gd32vw553\\embeddedbuilder_v1.4.7.26843\\tools\\nucl
 1594              		.file 4 "..\\..\\..\\..\\cloud\\alicloud\\include/iot_import.h"
 1595              		.file 5 "..\\..\\..\\..\\cloud\\alicloud\\src\\protocol\\coap\\local/CoAPExport.h"
 1596              		.file 6 "C:/Users/stapi/OneDrive/Desktop/GD32VW553/V1_MQTT_OK/GD32VW55X_Wifi_BLE_SDK/GD32VW55x_REL
 1597              		.file 7 "C:/Users/stapi/OneDrive/Desktop/GD32VW553/V1_MQTT_OK/GD32VW55X_Wifi_BLE_SDK/GD32VW55x_REL
 1598              		.file 8 "c:\\users\\stapi\\onedrive\\desktop\\gd32vw553\\embeddedbuilder_v1.4.7.26843\\tools\\nucl
 1599              		.file 9 "..\\..\\..\\..\\cloud\\alicloud\\include/imports/iot_import_kv.h"
 1600              		.file 10 "..\\..\\..\\..\\cloud\\alicloud\\src\\infra\\utils/iotx_utils.h"
 1601              		.file 11 "..\\..\\..\\..\\cloud\\alicloud\\src\\infra\\log/iotx_log.h"
 1602              		.file 12 "..\\..\\..\\..\\cloud\\alicloud\\src\\infra\\utils\\misc/json_parser.h"
 1603              		.file 13 "<built-in>"
 1604              		.file 14 "..\\..\\..\\..\\cloud\\alicloud\\src\\infra\\utils\\digest/utils_md5.h"