   1              		.file	"alcs_api.c"
   2              		.option nopic
   3              		.attribute arch, "rv32i2p0_m2p0_a2p0_f2p0_c2p0_b_p0p94"
   4              		.attribute unaligned_access, 0
   5              		.attribute stack_align, 16
   6              		.text
   7              	.Ltext0:
   8              		.cfi_sections	.debug_frame
   9              		.section	.text.add_request_to_list,"ax",@progbits
  10              		.align	1
  11              		.globl	add_request_to_list
  13              	add_request_to_list:
  14              	.LFB20:
  15              		.file 1 "C:/Users/stapi/OneDrive/Desktop/GD32VW553/V1_MQTT_OK/GD32VW55X_Wifi_BLE_SDK/GD32VW55x_REL
   1:C:/Users/stapi/OneDrive/Desktop/GD32VW553/V1_MQTT_OK/GD32VW55X_Wifi_BLE_SDK/GD32VW55x_RELEASE_V1.0.2/MSDK/cloud/alicloud/src/protocol/alcs\alcs_api.c **** /*
   2:C:/Users/stapi/OneDrive/Desktop/GD32VW553/V1_MQTT_OK/GD32VW55X_Wifi_BLE_SDK/GD32VW55x_RELEASE_V1.0.2/MSDK/cloud/alicloud/src/protocol/alcs\alcs_api.c ****  * Copyright (C) 2015-2018 Alibaba Group Holding Limited
   3:C:/Users/stapi/OneDrive/Desktop/GD32VW553/V1_MQTT_OK/GD32VW55X_Wifi_BLE_SDK/GD32VW55x_RELEASE_V1.0.2/MSDK/cloud/alicloud/src/protocol/alcs\alcs_api.c ****  */
   4:C:/Users/stapi/OneDrive/Desktop/GD32VW553/V1_MQTT_OK/GD32VW55X_Wifi_BLE_SDK/GD32VW55x_RELEASE_V1.0.2/MSDK/cloud/alicloud/src/protocol/alcs\alcs_api.c **** 
   5:C:/Users/stapi/OneDrive/Desktop/GD32VW553/V1_MQTT_OK/GD32VW55X_Wifi_BLE_SDK/GD32VW55x_RELEASE_V1.0.2/MSDK/cloud/alicloud/src/protocol/alcs\alcs_api.c **** 
   6:C:/Users/stapi/OneDrive/Desktop/GD32VW553/V1_MQTT_OK/GD32VW55X_Wifi_BLE_SDK/GD32VW55x_RELEASE_V1.0.2/MSDK/cloud/alicloud/src/protocol/alcs\alcs_api.c **** 
   7:C:/Users/stapi/OneDrive/Desktop/GD32VW553/V1_MQTT_OK/GD32VW55X_Wifi_BLE_SDK/GD32VW55x_RELEASE_V1.0.2/MSDK/cloud/alicloud/src/protocol/alcs\alcs_api.c **** #include <time.h>
   8:C:/Users/stapi/OneDrive/Desktop/GD32VW553/V1_MQTT_OK/GD32VW55X_Wifi_BLE_SDK/GD32VW55x_RELEASE_V1.0.2/MSDK/cloud/alicloud/src/protocol/alcs\alcs_api.c **** #include "alcs_api.h"
   9:C:/Users/stapi/OneDrive/Desktop/GD32VW553/V1_MQTT_OK/GD32VW55X_Wifi_BLE_SDK/GD32VW55x_RELEASE_V1.0.2/MSDK/cloud/alicloud/src/protocol/alcs\alcs_api.c **** #include "alcs_coap.h"
  10:C:/Users/stapi/OneDrive/Desktop/GD32VW553/V1_MQTT_OK/GD32VW55X_Wifi_BLE_SDK/GD32VW55x_RELEASE_V1.0.2/MSDK/cloud/alicloud/src/protocol/alcs\alcs_api.c **** #include "digest/utils_hmac.h"
  11:C:/Users/stapi/OneDrive/Desktop/GD32VW553/V1_MQTT_OK/GD32VW55X_Wifi_BLE_SDK/GD32VW55x_RELEASE_V1.0.2/MSDK/cloud/alicloud/src/protocol/alcs\alcs_api.c **** #include "json_parser.h"
  12:C:/Users/stapi/OneDrive/Desktop/GD32VW553/V1_MQTT_OK/GD32VW55X_Wifi_BLE_SDK/GD32VW55x_RELEASE_V1.0.2/MSDK/cloud/alicloud/src/protocol/alcs\alcs_api.c **** #include "alcs_api_internal.h"
  13:C:/Users/stapi/OneDrive/Desktop/GD32VW553/V1_MQTT_OK/GD32VW55X_Wifi_BLE_SDK/GD32VW55x_RELEASE_V1.0.2/MSDK/cloud/alicloud/src/protocol/alcs\alcs_api.c **** #include "CoAPPlatform.h"
  14:C:/Users/stapi/OneDrive/Desktop/GD32VW553/V1_MQTT_OK/GD32VW55X_Wifi_BLE_SDK/GD32VW55x_RELEASE_V1.0.2/MSDK/cloud/alicloud/src/protocol/alcs\alcs_api.c **** #include "CoAPObserve.h"
  15:C:/Users/stapi/OneDrive/Desktop/GD32VW553/V1_MQTT_OK/GD32VW55X_Wifi_BLE_SDK/GD32VW55x_RELEASE_V1.0.2/MSDK/cloud/alicloud/src/protocol/alcs\alcs_api.c **** 
  16:C:/Users/stapi/OneDrive/Desktop/GD32VW553/V1_MQTT_OK/GD32VW55X_Wifi_BLE_SDK/GD32VW55x_RELEASE_V1.0.2/MSDK/cloud/alicloud/src/protocol/alcs\alcs_api.c **** LIST_HEAD(secure_resource_cb_head);
  17:C:/Users/stapi/OneDrive/Desktop/GD32VW553/V1_MQTT_OK/GD32VW55X_Wifi_BLE_SDK/GD32VW55x_RELEASE_V1.0.2/MSDK/cloud/alicloud/src/protocol/alcs\alcs_api.c **** 
  18:C:/Users/stapi/OneDrive/Desktop/GD32VW553/V1_MQTT_OK/GD32VW55X_Wifi_BLE_SDK/GD32VW55x_RELEASE_V1.0.2/MSDK/cloud/alicloud/src/protocol/alcs\alcs_api.c **** static bool is_inited = 0;
  19:C:/Users/stapi/OneDrive/Desktop/GD32VW553/V1_MQTT_OK/GD32VW55X_Wifi_BLE_SDK/GD32VW55x_RELEASE_V1.0.2/MSDK/cloud/alicloud/src/protocol/alcs\alcs_api.c **** int sessionid_seed;
  20:C:/Users/stapi/OneDrive/Desktop/GD32VW553/V1_MQTT_OK/GD32VW55X_Wifi_BLE_SDK/GD32VW55x_RELEASE_V1.0.2/MSDK/cloud/alicloud/src/protocol/alcs\alcs_api.c **** device_auth_list _device;
  21:C:/Users/stapi/OneDrive/Desktop/GD32VW553/V1_MQTT_OK/GD32VW55X_Wifi_BLE_SDK/GD32VW55x_RELEASE_V1.0.2/MSDK/cloud/alicloud/src/protocol/alcs\alcs_api.c **** 
  22:C:/Users/stapi/OneDrive/Desktop/GD32VW553/V1_MQTT_OK/GD32VW55X_Wifi_BLE_SDK/GD32VW55x_RELEASE_V1.0.2/MSDK/cloud/alicloud/src/protocol/alcs\alcs_api.c **** void add_request_to_list (request_item *requst)
  23:C:/Users/stapi/OneDrive/Desktop/GD32VW553/V1_MQTT_OK/GD32VW55X_Wifi_BLE_SDK/GD32VW55x_RELEASE_V1.0.2/MSDK/cloud/alicloud/src/protocol/alcs\alcs_api.c **** {
  16              		.loc 1 23 1
  17              		.cfi_startproc
  18              	.LVL0:
  19 0000 17030000 		call	t0,__riscv_save_2
  19      E7020300 
  20              		.cfi_offset 9, -12
  21              		.cfi_offset 8, -8
  22              		.cfi_offset 1, -4
  23              		.cfi_def_cfa_offset 16
  24:C:/Users/stapi/OneDrive/Desktop/GD32VW553/V1_MQTT_OK/GD32VW55X_Wifi_BLE_SDK/GD32VW55x_RELEASE_V1.0.2/MSDK/cloud/alicloud/src/protocol/alcs\alcs_api.c ****     HAL_MutexLock(_device.list_mutex);
  24              		.loc 1 24 5
  25 0008 37040000 		lui	s0,%hi(.LANCHOR0)
  26 000c 13040400 		addi	s0,s0,%lo(.LANCHOR0)
  23:C:/Users/stapi/OneDrive/Desktop/GD32VW553/V1_MQTT_OK/GD32VW55X_Wifi_BLE_SDK/GD32VW55x_RELEASE_V1.0.2/MSDK/cloud/alicloud/src/protocol/alcs\alcs_api.c ****     HAL_MutexLock(_device.list_mutex);
  27              		.loc 1 23 1 is_stmt 0
  28 0010 AA84     		mv	s1,a0
  29              		.loc 1 24 5
  30 0012 0844     		lw	a0,8(s0)
  31              	.LVL1:
  32 0014 97000000 		call	HAL_MutexLock
  32      E7800000 
  33              	.LVL2:
  25:C:/Users/stapi/OneDrive/Desktop/GD32VW553/V1_MQTT_OK/GD32VW55X_Wifi_BLE_SDK/GD32VW55x_RELEASE_V1.0.2/MSDK/cloud/alicloud/src/protocol/alcs\alcs_api.c ****     list_add_tail(&requst->lst, &_device.lst_requests);
  34              		.loc 1 25 5 is_stmt 1
  35              	.LBB21:
  36              	.LBB22:
  37              		.file 2 "..\\..\\..\\..\\cloud\\alicloud\\src\\infra\\utils\\misc/lite-list.h"
   1:..\..\..\..\cloud\alicloud\src\infra\utils\misc/lite-list.h **** /*
   2:..\..\..\..\cloud\alicloud\src\infra\utils\misc/lite-list.h ****  * Copyright (C) 2015-2018 Alibaba Group Holding Limited
   3:..\..\..\..\cloud\alicloud\src\infra\utils\misc/lite-list.h ****  */
   4:..\..\..\..\cloud\alicloud\src\infra\utils\misc/lite-list.h **** 
   5:..\..\..\..\cloud\alicloud\src\infra\utils\misc/lite-list.h **** #ifndef AOS_LIST_H
   6:..\..\..\..\cloud\alicloud\src\infra\utils\misc/lite-list.h **** #define AOS_LIST_H
   7:..\..\..\..\cloud\alicloud\src\infra\utils\misc/lite-list.h **** 
   8:..\..\..\..\cloud\alicloud\src\infra\utils\misc/lite-list.h **** #ifdef __cplusplus
   9:..\..\..\..\cloud\alicloud\src\infra\utils\misc/lite-list.h **** extern "C" {
  10:..\..\..\..\cloud\alicloud\src\infra\utils\misc/lite-list.h **** #endif
  11:..\..\..\..\cloud\alicloud\src\infra\utils\misc/lite-list.h **** 
  12:..\..\..\..\cloud\alicloud\src\infra\utils\misc/lite-list.h **** /*
  13:..\..\..\..\cloud\alicloud\src\infra\utils\misc/lite-list.h ****  * Get offset of a member variable.
  14:..\..\..\..\cloud\alicloud\src\infra\utils\misc/lite-list.h ****  *
  15:..\..\..\..\cloud\alicloud\src\infra\utils\misc/lite-list.h ****  * @param[in]   type     the type of the struct this is embedded in.
  16:..\..\..\..\cloud\alicloud\src\infra\utils\misc/lite-list.h ****  * @param[in]   member   the name of the variable within the struct.
  17:..\..\..\..\cloud\alicloud\src\infra\utils\misc/lite-list.h ****  */
  18:..\..\..\..\cloud\alicloud\src\infra\utils\misc/lite-list.h **** #define aos_offsetof(type, member)   ((size_t)&(((type *)0)->member))
  19:..\..\..\..\cloud\alicloud\src\infra\utils\misc/lite-list.h **** 
  20:..\..\..\..\cloud\alicloud\src\infra\utils\misc/lite-list.h **** /*
  21:..\..\..\..\cloud\alicloud\src\infra\utils\misc/lite-list.h ****  * Get the struct for this entry.
  22:..\..\..\..\cloud\alicloud\src\infra\utils\misc/lite-list.h ****  *
  23:..\..\..\..\cloud\alicloud\src\infra\utils\misc/lite-list.h ****  * @param[in]   ptr     the list head to take the element from.
  24:..\..\..\..\cloud\alicloud\src\infra\utils\misc/lite-list.h ****  * @param[in]   type    the type of the struct this is embedded in.
  25:..\..\..\..\cloud\alicloud\src\infra\utils\misc/lite-list.h ****  * @param[in]   member  the name of the variable within the struct.
  26:..\..\..\..\cloud\alicloud\src\infra\utils\misc/lite-list.h ****  */
  27:..\..\..\..\cloud\alicloud\src\infra\utils\misc/lite-list.h **** #define aos_container_of(ptr, type, member) \
  28:..\..\..\..\cloud\alicloud\src\infra\utils\misc/lite-list.h ****     ((type *) ((char *) (ptr) - aos_offsetof(type, member)))
  29:..\..\..\..\cloud\alicloud\src\infra\utils\misc/lite-list.h **** 
  30:..\..\..\..\cloud\alicloud\src\infra\utils\misc/lite-list.h **** /* for double link list */
  31:..\..\..\..\cloud\alicloud\src\infra\utils\misc/lite-list.h **** typedef struct dlist_s {
  32:..\..\..\..\cloud\alicloud\src\infra\utils\misc/lite-list.h ****     struct dlist_s *prev;
  33:..\..\..\..\cloud\alicloud\src\infra\utils\misc/lite-list.h ****     struct dlist_s *next;
  34:..\..\..\..\cloud\alicloud\src\infra\utils\misc/lite-list.h **** } dlist_t;
  35:..\..\..\..\cloud\alicloud\src\infra\utils\misc/lite-list.h **** 
  36:..\..\..\..\cloud\alicloud\src\infra\utils\misc/lite-list.h **** static inline void __dlist_add(dlist_t *node, dlist_t *prev, dlist_t *next)
  37:..\..\..\..\cloud\alicloud\src\infra\utils\misc/lite-list.h **** {
  38:..\..\..\..\cloud\alicloud\src\infra\utils\misc/lite-list.h ****     node->next = next;
  39:..\..\..\..\cloud\alicloud\src\infra\utils\misc/lite-list.h ****     node->prev = prev;
  40:..\..\..\..\cloud\alicloud\src\infra\utils\misc/lite-list.h **** 
  41:..\..\..\..\cloud\alicloud\src\infra\utils\misc/lite-list.h ****     prev->next = node;
  42:..\..\..\..\cloud\alicloud\src\infra\utils\misc/lite-list.h ****     next->prev = node;
  43:..\..\..\..\cloud\alicloud\src\infra\utils\misc/lite-list.h **** }
  44:..\..\..\..\cloud\alicloud\src\infra\utils\misc/lite-list.h **** 
  45:..\..\..\..\cloud\alicloud\src\infra\utils\misc/lite-list.h **** /*
  46:..\..\..\..\cloud\alicloud\src\infra\utils\misc/lite-list.h ****  * Get the struct for this entry.
  47:..\..\..\..\cloud\alicloud\src\infra\utils\misc/lite-list.h ****  *
  48:..\..\..\..\cloud\alicloud\src\infra\utils\misc/lite-list.h ****  * @param[in]   addr    the list head to take the element from.
  49:..\..\..\..\cloud\alicloud\src\infra\utils\misc/lite-list.h ****  * @param[in]   type    the type of the struct this is embedded in.
  50:..\..\..\..\cloud\alicloud\src\infra\utils\misc/lite-list.h ****  * @param[in]   member  the name of the dlist_t within the struct.
  51:..\..\..\..\cloud\alicloud\src\infra\utils\misc/lite-list.h ****  */
  52:..\..\..\..\cloud\alicloud\src\infra\utils\misc/lite-list.h **** #define dlist_entry(addr, type, member) \
  53:..\..\..\..\cloud\alicloud\src\infra\utils\misc/lite-list.h ****     ((type *)((long)addr - aos_offsetof(type, member)))
  54:..\..\..\..\cloud\alicloud\src\infra\utils\misc/lite-list.h **** 
  55:..\..\..\..\cloud\alicloud\src\infra\utils\misc/lite-list.h **** 
  56:..\..\..\..\cloud\alicloud\src\infra\utils\misc/lite-list.h **** static inline void dlist_add(dlist_t *node, dlist_t *queue)
  57:..\..\..\..\cloud\alicloud\src\infra\utils\misc/lite-list.h **** {
  58:..\..\..\..\cloud\alicloud\src\infra\utils\misc/lite-list.h ****     __dlist_add(node, queue, queue->next);
  59:..\..\..\..\cloud\alicloud\src\infra\utils\misc/lite-list.h **** }
  60:..\..\..\..\cloud\alicloud\src\infra\utils\misc/lite-list.h **** 
  61:..\..\..\..\cloud\alicloud\src\infra\utils\misc/lite-list.h **** static inline void dlist_add_tail(dlist_t *node, dlist_t *queue)
  62:..\..\..\..\cloud\alicloud\src\infra\utils\misc/lite-list.h **** {
  63:..\..\..\..\cloud\alicloud\src\infra\utils\misc/lite-list.h ****     __dlist_add(node, queue->prev, queue);
  38              		.loc 2 63 28 is_stmt 0
  39 001c 5850     		lw	a4,36(s0)
  40              	.LBB23:
  41              	.LBB24:
  38:..\..\..\..\cloud\alicloud\src\infra\utils\misc/lite-list.h ****     node->prev = prev;
  42              		.loc 2 38 16
  43 001e 93064402 		addi	a3,s0,36
  44              	.LBE24:
  45              	.LBE23:
  46              	.LBE22:
  47              	.LBE21:
  26:C:/Users/stapi/OneDrive/Desktop/GD32VW553/V1_MQTT_OK/GD32VW55X_Wifi_BLE_SDK/GD32VW55x_RELEASE_V1.0.2/MSDK/cloud/alicloud/src/protocol/alcs\alcs_api.c ****     HAL_MutexUnlock(_device.list_mutex);
  48              		.loc 1 26 5
  49 0022 0844     		lw	a0,8(s0)
  25:C:/Users/stapi/OneDrive/Desktop/GD32VW553/V1_MQTT_OK/GD32VW55X_Wifi_BLE_SDK/GD32VW55x_RELEASE_V1.0.2/MSDK/cloud/alicloud/src/protocol/alcs\alcs_api.c ****     HAL_MutexUnlock(_device.list_mutex);
  50              		.loc 1 25 19
  51 0024 9387C402 		addi	a5,s1,44
  52              	.LVL3:
  53              	.LBB28:
  54              	.LBB27:
  55              		.loc 2 63 5 is_stmt 1
  56              	.LBB26:
  57              	.LBB25:
  38:..\..\..\..\cloud\alicloud\src\infra\utils\misc/lite-list.h ****     node->prev = prev;
  58              		.loc 2 38 5
  38:..\..\..\..\cloud\alicloud\src\infra\utils\misc/lite-list.h ****     node->prev = prev;
  59              		.loc 2 38 16 is_stmt 0
  60 0028 94D8     		sw	a3,48(s1)
  39:..\..\..\..\cloud\alicloud\src\infra\utils\misc/lite-list.h **** 
  61              		.loc 2 39 5 is_stmt 1
  39:..\..\..\..\cloud\alicloud\src\infra\utils\misc/lite-list.h **** 
  62              		.loc 2 39 16 is_stmt 0
  63 002a D8D4     		sw	a4,44(s1)
  41:..\..\..\..\cloud\alicloud\src\infra\utils\misc/lite-list.h ****     next->prev = node;
  64              		.loc 2 41 5 is_stmt 1
  41:..\..\..\..\cloud\alicloud\src\infra\utils\misc/lite-list.h ****     next->prev = node;
  65              		.loc 2 41 16 is_stmt 0
  66 002c 5CC3     		sw	a5,4(a4)
  42:..\..\..\..\cloud\alicloud\src\infra\utils\misc/lite-list.h **** }
  67              		.loc 2 42 5 is_stmt 1
  42:..\..\..\..\cloud\alicloud\src\infra\utils\misc/lite-list.h **** }
  68              		.loc 2 42 16 is_stmt 0
  69 002e 5CD0     		sw	a5,36(s0)
  70              	.LVL4:
  71              	.LBE25:
  72              	.LBE26:
  73              	.LBE27:
  74              	.LBE28:
  75              		.loc 1 26 5 is_stmt 1
  76 0030 97000000 		call	HAL_MutexUnlock
  76      E7800000 
  77              	.LVL5:
  27:C:/Users/stapi/OneDrive/Desktop/GD32VW553/V1_MQTT_OK/GD32VW55X_Wifi_BLE_SDK/GD32VW55x_RELEASE_V1.0.2/MSDK/cloud/alicloud/src/protocol/alcs\alcs_api.c **** }
  78              		.loc 1 27 1 is_stmt 0
  79 0038 17030000 		tail	__riscv_restore_2
  79      67000300 
  80              		.cfi_restore 9
  81              		.cfi_restore 8
  82              		.cfi_restore 1
  83              		.cfi_def_cfa_offset 0
  84              		.cfi_endproc
  85              	.LFE20:
  87              		.section	.text.remove_request,"ax",@progbits
  88              		.align	1
  89              		.globl	remove_request
  91              	remove_request:
  92              	.LFB21:
  28:C:/Users/stapi/OneDrive/Desktop/GD32VW553/V1_MQTT_OK/GD32VW55X_Wifi_BLE_SDK/GD32VW55x_RELEASE_V1.0.2/MSDK/cloud/alicloud/src/protocol/alcs\alcs_api.c **** 
  29:C:/Users/stapi/OneDrive/Desktop/GD32VW553/V1_MQTT_OK/GD32VW55X_Wifi_BLE_SDK/GD32VW55x_RELEASE_V1.0.2/MSDK/cloud/alicloud/src/protocol/alcs\alcs_api.c **** void remove_request (request_item *requst)
  30:C:/Users/stapi/OneDrive/Desktop/GD32VW553/V1_MQTT_OK/GD32VW55X_Wifi_BLE_SDK/GD32VW55x_RELEASE_V1.0.2/MSDK/cloud/alicloud/src/protocol/alcs\alcs_api.c **** {
  93              		.loc 1 30 1 is_stmt 1
  94              		.cfi_startproc
  95              	.LVL6:
  31:C:/Users/stapi/OneDrive/Desktop/GD32VW553/V1_MQTT_OK/GD32VW55X_Wifi_BLE_SDK/GD32VW55x_RELEASE_V1.0.2/MSDK/cloud/alicloud/src/protocol/alcs\alcs_api.c ****     if (requst) {
  96              		.loc 1 31 5
  97              		.loc 1 31 8 is_stmt 0
  98 0000 09C9     		beq	a0,zero,.L9
  99              	.LVL7:
 100              	.LBB33:
 101              	.LBB34:
  32:C:/Users/stapi/OneDrive/Desktop/GD32VW553/V1_MQTT_OK/GD32VW55X_Wifi_BLE_SDK/GD32VW55x_RELEASE_V1.0.2/MSDK/cloud/alicloud/src/protocol/alcs\alcs_api.c ****         list_del (&requst->lst);
 102              		.loc 1 32 9 is_stmt 1
 103              	.LBB35:
 104              	.LBB36:
  64:..\..\..\..\cloud\alicloud\src\infra\utils\misc/lite-list.h **** }
  65:..\..\..\..\cloud\alicloud\src\infra\utils\misc/lite-list.h **** 
  66:..\..\..\..\cloud\alicloud\src\infra\utils\misc/lite-list.h **** static inline void dlist_del(dlist_t *node)
  67:..\..\..\..\cloud\alicloud\src\infra\utils\misc/lite-list.h **** {
  68:..\..\..\..\cloud\alicloud\src\infra\utils\misc/lite-list.h ****     dlist_t *prev = node->prev;
 105              		.loc 2 68 5
 106              		.loc 2 68 14 is_stmt 0
 107 0002 5855     		lw	a4,44(a0)
 108              	.LVL8:
  69:..\..\..\..\cloud\alicloud\src\infra\utils\misc/lite-list.h ****     dlist_t *next = node->next;
 109              		.loc 2 69 5 is_stmt 1
 110              		.loc 2 69 14 is_stmt 0
 111 0004 1C59     		lw	a5,48(a0)
 112              	.LVL9:
  70:..\..\..\..\cloud\alicloud\src\infra\utils\misc/lite-list.h **** 
  71:..\..\..\..\cloud\alicloud\src\infra\utils\misc/lite-list.h ****     prev->next = next;
 113              		.loc 2 71 5 is_stmt 1
 114              		.loc 2 71 16 is_stmt 0
 115 0006 5CC3     		sw	a5,4(a4)
  72:..\..\..\..\cloud\alicloud\src\infra\utils\misc/lite-list.h ****     next->prev = prev;
 116              		.loc 2 72 5 is_stmt 1
 117              		.loc 2 72 16 is_stmt 0
 118 0008 98C3     		sw	a4,0(a5)
 119              	.LVL10:
 120              	.LBE36:
 121              	.LBE35:
  33:C:/Users/stapi/OneDrive/Desktop/GD32VW553/V1_MQTT_OK/GD32VW55X_Wifi_BLE_SDK/GD32VW55x_RELEASE_V1.0.2/MSDK/cloud/alicloud/src/protocol/alcs\alcs_api.c ****         coap_free (requst);
 122              		.loc 1 33 9 is_stmt 1
 123 000a 17030000 		tail	LITE_free_internal
 123      67000300 
 124              	.LVL11:
 125              	.L9:
 126 0012 8280     		ret
 127              	.LBE34:
 128              	.LBE33:
 129              		.cfi_endproc
 130              	.LFE21:
 132              		.section	.rodata.remove_session.str1.4,"aMS",@progbits,1
 133              		.align	2
 134              	.LC0:
 135 0000 5B696E66 		.string	"[inf] "
 135      5D2000
 136 0007 00       		.align	2
 137              	.LC1:
 138 0008 72656D6F 		.string	"remove_session"
 138      76655F73 
 138      65737369 
 138      6F6E00
 139 0017 00       		.align	2
 140              	.LC2:
 141 0018 0D0A00   		.string	"\r\n"
 142              		.section	.text.remove_session,"ax",@progbits
 143              		.align	1
 144              		.globl	remove_session
 146              	remove_session:
 147              	.LFB22:
  34:C:/Users/stapi/OneDrive/Desktop/GD32VW553/V1_MQTT_OK/GD32VW55X_Wifi_BLE_SDK/GD32VW55x_RELEASE_V1.0.2/MSDK/cloud/alicloud/src/protocol/alcs\alcs_api.c ****     }
  35:C:/Users/stapi/OneDrive/Desktop/GD32VW553/V1_MQTT_OK/GD32VW55X_Wifi_BLE_SDK/GD32VW55x_RELEASE_V1.0.2/MSDK/cloud/alicloud/src/protocol/alcs\alcs_api.c **** }
  36:C:/Users/stapi/OneDrive/Desktop/GD32VW553/V1_MQTT_OK/GD32VW55X_Wifi_BLE_SDK/GD32VW55x_RELEASE_V1.0.2/MSDK/cloud/alicloud/src/protocol/alcs\alcs_api.c **** 
  37:C:/Users/stapi/OneDrive/Desktop/GD32VW553/V1_MQTT_OK/GD32VW55X_Wifi_BLE_SDK/GD32VW55x_RELEASE_V1.0.2/MSDK/cloud/alicloud/src/protocol/alcs\alcs_api.c **** void remove_session (CoAPContext *ctx, session_item* session)
  38:C:/Users/stapi/OneDrive/Desktop/GD32VW553/V1_MQTT_OK/GD32VW55X_Wifi_BLE_SDK/GD32VW55x_RELEASE_V1.0.2/MSDK/cloud/alicloud/src/protocol/alcs\alcs_api.c **** {
 148              		.loc 1 38 1
 149              		.cfi_startproc
 150              	.LVL12:
 151 0000 17030000 		call	t0,__riscv_save_2
 151      E7020300 
 152              		.cfi_offset 9, -12
 153              		.cfi_offset 8, -8
 154              		.cfi_offset 1, -4
 155              		.cfi_def_cfa_offset 16
  39:C:/Users/stapi/OneDrive/Desktop/GD32VW553/V1_MQTT_OK/GD32VW55X_Wifi_BLE_SDK/GD32VW55x_RELEASE_V1.0.2/MSDK/cloud/alicloud/src/protocol/alcs\alcs_api.c ****     COAP_INFO("remove_session");
 156              		.loc 1 39 5
 157              		.loc 1 39 5
  38:C:/Users/stapi/OneDrive/Desktop/GD32VW553/V1_MQTT_OK/GD32VW55X_Wifi_BLE_SDK/GD32VW55x_RELEASE_V1.0.2/MSDK/cloud/alicloud/src/protocol/alcs\alcs_api.c ****     COAP_INFO("remove_session");
 158              		.loc 1 38 1 is_stmt 0
 159 0008 AA84     		mv	s1,a0
 160              		.loc 1 39 5
 161 000a 37050000 		lui	a0,%hi(.LC0)
 162              	.LVL13:
 163 000e 13050500 		addi	a0,a0,%lo(.LC0)
  38:C:/Users/stapi/OneDrive/Desktop/GD32VW553/V1_MQTT_OK/GD32VW55X_Wifi_BLE_SDK/GD32VW55x_RELEASE_V1.0.2/MSDK/cloud/alicloud/src/protocol/alcs\alcs_api.c ****     COAP_INFO("remove_session");
 164              		.loc 1 38 1
 165 0012 2E84     		mv	s0,a1
 166              		.loc 1 39 5
 167 0014 97000000 		call	HAL_Printf
 167      E7800000 
 168              	.LVL14:
 169              		.loc 1 39 5 is_stmt 1
 170 001c 37050000 		lui	a0,%hi(.LC1)
 171 0020 13050500 		addi	a0,a0,%lo(.LC1)
 172 0024 97000000 		call	HAL_Printf
 172      E7800000 
 173              	.LVL15:
 174              		.loc 1 39 5
 175 002c 37050000 		lui	a0,%hi(.LC2)
 176 0030 13050500 		addi	a0,a0,%lo(.LC2)
 177 0034 97000000 		call	HAL_Printf
 177      E7800000 
 178              	.LVL16:
 179              		.loc 1 39 5
  40:C:/Users/stapi/OneDrive/Desktop/GD32VW553/V1_MQTT_OK/GD32VW55X_Wifi_BLE_SDK/GD32VW55x_RELEASE_V1.0.2/MSDK/cloud/alicloud/src/protocol/alcs\alcs_api.c ****     if (session) {
 180              		.loc 1 40 5
 181              		.loc 1 40 8 is_stmt 0
 182 003c 1DC0     		beq	s0,zero,.L12
 183              	.LVL17:
 184              	.LBB41:
 185              	.LBB42:
  41:C:/Users/stapi/OneDrive/Desktop/GD32VW553/V1_MQTT_OK/GD32VW55X_Wifi_BLE_SDK/GD32VW55x_RELEASE_V1.0.2/MSDK/cloud/alicloud/src/protocol/alcs\alcs_api.c ****         CoapObsServerAll_delete (ctx, &session->addr);
 186              		.loc 1 41 9 is_stmt 1
 187 003e 93054405 		addi	a1,s0,84
 188 0042 2685     		mv	a0,s1
 189 0044 97000000 		call	CoapObsServerAll_delete
 189      E7800000 
 190              	.LVL18:
  42:C:/Users/stapi/OneDrive/Desktop/GD32VW553/V1_MQTT_OK/GD32VW55X_Wifi_BLE_SDK/GD32VW55x_RELEASE_V1.0.2/MSDK/cloud/alicloud/src/protocol/alcs\alcs_api.c ****         list_del (&session->lst);
 191              		.loc 1 42 9
 192              	.LBB43:
 193              	.LBB44:
  68:..\..\..\..\cloud\alicloud\src\infra\utils\misc/lite-list.h ****     dlist_t *next = node->next;
 194              		.loc 2 68 5
  68:..\..\..\..\cloud\alicloud\src\infra\utils\misc/lite-list.h ****     dlist_t *next = node->next;
 195              		.loc 2 68 14 is_stmt 0
 196 004c 0327C40B 		lw	a4,188(s0)
 197              	.LVL19:
  69:..\..\..\..\cloud\alicloud\src\infra\utils\misc/lite-list.h **** 
 198              		.loc 2 69 5 is_stmt 1
  69:..\..\..\..\cloud\alicloud\src\infra\utils\misc/lite-list.h **** 
 199              		.loc 2 69 14 is_stmt 0
 200 0050 8327040C 		lw	a5,192(s0)
 201              	.LVL20:
  71:..\..\..\..\cloud\alicloud\src\infra\utils\misc/lite-list.h ****     next->prev = prev;
 202              		.loc 2 71 5 is_stmt 1
 203              	.LBE44:
 204              	.LBE43:
  43:C:/Users/stapi/OneDrive/Desktop/GD32VW553/V1_MQTT_OK/GD32VW55X_Wifi_BLE_SDK/GD32VW55x_RELEASE_V1.0.2/MSDK/cloud/alicloud/src/protocol/alcs\alcs_api.c ****         coap_free (session);
 205              		.loc 1 43 9 is_stmt 0
 206 0054 2285     		mv	a0,s0
 207              	.LBB46:
 208              	.LBB45:
  71:..\..\..\..\cloud\alicloud\src\infra\utils\misc/lite-list.h ****     next->prev = prev;
 209              		.loc 2 71 16
 210 0056 5CC3     		sw	a5,4(a4)
 211              		.loc 2 72 5 is_stmt 1
 212              		.loc 2 72 16 is_stmt 0
 213 0058 98C3     		sw	a4,0(a5)
 214              	.LVL21:
 215              	.LBE45:
 216              	.LBE46:
 217              		.loc 1 43 9 is_stmt 1
 218 005a 97000000 		call	LITE_free_internal
 218      E7800000 
 219              	.LVL22:
 220              	.L12:
 221              	.LBE42:
 222              	.LBE41:
  44:C:/Users/stapi/OneDrive/Desktop/GD32VW553/V1_MQTT_OK/GD32VW55X_Wifi_BLE_SDK/GD32VW55x_RELEASE_V1.0.2/MSDK/cloud/alicloud/src/protocol/alcs\alcs_api.c ****     }
  45:C:/Users/stapi/OneDrive/Desktop/GD32VW553/V1_MQTT_OK/GD32VW55X_Wifi_BLE_SDK/GD32VW55x_RELEASE_V1.0.2/MSDK/cloud/alicloud/src/protocol/alcs\alcs_api.c **** }
 223              		.loc 1 45 1 is_stmt 0
 224 0062 17030000 		tail	__riscv_restore_2
 224      67000300 
 225              		.cfi_restore 9
 226              		.cfi_restore 8
 227              		.cfi_restore 1
 228              		.cfi_def_cfa_offset 0
 229              		.cfi_endproc
 230              	.LFE22:
 232              		.section	.text.gen_random_key,"ax",@progbits
 233              		.align	1
 234              		.globl	gen_random_key
 236              	gen_random_key:
 237              	.LFB31:
  46:C:/Users/stapi/OneDrive/Desktop/GD32VW553/V1_MQTT_OK/GD32VW55X_Wifi_BLE_SDK/GD32VW55x_RELEASE_V1.0.2/MSDK/cloud/alicloud/src/protocol/alcs\alcs_api.c **** 
  47:C:/Users/stapi/OneDrive/Desktop/GD32VW553/V1_MQTT_OK/GD32VW55X_Wifi_BLE_SDK/GD32VW55x_RELEASE_V1.0.2/MSDK/cloud/alicloud/src/protocol/alcs\alcs_api.c **** session_item* get_session_by_checksum (struct list_head* sessions, NetworkAddr* addr, char ck[PK_DN
  48:C:/Users/stapi/OneDrive/Desktop/GD32VW553/V1_MQTT_OK/GD32VW55X_Wifi_BLE_SDK/GD32VW55x_RELEASE_V1.0.2/MSDK/cloud/alicloud/src/protocol/alcs\alcs_api.c **** {
  49:C:/Users/stapi/OneDrive/Desktop/GD32VW553/V1_MQTT_OK/GD32VW55X_Wifi_BLE_SDK/GD32VW55x_RELEASE_V1.0.2/MSDK/cloud/alicloud/src/protocol/alcs\alcs_api.c ****     if (!sessions || !ck) {
  50:C:/Users/stapi/OneDrive/Desktop/GD32VW553/V1_MQTT_OK/GD32VW55X_Wifi_BLE_SDK/GD32VW55x_RELEASE_V1.0.2/MSDK/cloud/alicloud/src/protocol/alcs\alcs_api.c ****         return NULL;
  51:C:/Users/stapi/OneDrive/Desktop/GD32VW553/V1_MQTT_OK/GD32VW55X_Wifi_BLE_SDK/GD32VW55x_RELEASE_V1.0.2/MSDK/cloud/alicloud/src/protocol/alcs\alcs_api.c ****     }
  52:C:/Users/stapi/OneDrive/Desktop/GD32VW553/V1_MQTT_OK/GD32VW55X_Wifi_BLE_SDK/GD32VW55x_RELEASE_V1.0.2/MSDK/cloud/alicloud/src/protocol/alcs\alcs_api.c **** 
  53:C:/Users/stapi/OneDrive/Desktop/GD32VW553/V1_MQTT_OK/GD32VW55X_Wifi_BLE_SDK/GD32VW55x_RELEASE_V1.0.2/MSDK/cloud/alicloud/src/protocol/alcs\alcs_api.c ****     device_auth_list *dev_lst = get_device ();
  54:C:/Users/stapi/OneDrive/Desktop/GD32VW553/V1_MQTT_OK/GD32VW55X_Wifi_BLE_SDK/GD32VW55x_RELEASE_V1.0.2/MSDK/cloud/alicloud/src/protocol/alcs\alcs_api.c ****     HAL_MutexLock(dev_lst->list_mutex);
  55:C:/Users/stapi/OneDrive/Desktop/GD32VW553/V1_MQTT_OK/GD32VW55X_Wifi_BLE_SDK/GD32VW55x_RELEASE_V1.0.2/MSDK/cloud/alicloud/src/protocol/alcs\alcs_api.c **** 
  56:C:/Users/stapi/OneDrive/Desktop/GD32VW553/V1_MQTT_OK/GD32VW55X_Wifi_BLE_SDK/GD32VW55x_RELEASE_V1.0.2/MSDK/cloud/alicloud/src/protocol/alcs\alcs_api.c ****     session_item* node = NULL, *next = NULL;
  57:C:/Users/stapi/OneDrive/Desktop/GD32VW553/V1_MQTT_OK/GD32VW55X_Wifi_BLE_SDK/GD32VW55x_RELEASE_V1.0.2/MSDK/cloud/alicloud/src/protocol/alcs\alcs_api.c ****     list_for_each_entry_safe(node, next, sessions, lst, session_item) {
  58:C:/Users/stapi/OneDrive/Desktop/GD32VW553/V1_MQTT_OK/GD32VW55X_Wifi_BLE_SDK/GD32VW55x_RELEASE_V1.0.2/MSDK/cloud/alicloud/src/protocol/alcs\alcs_api.c ****         if (is_networkadd_same(addr, &node->addr)
  59:C:/Users/stapi/OneDrive/Desktop/GD32VW553/V1_MQTT_OK/GD32VW55X_Wifi_BLE_SDK/GD32VW55x_RELEASE_V1.0.2/MSDK/cloud/alicloud/src/protocol/alcs\alcs_api.c ****                 && strncmp(node->pk_dn, ck, PK_DN_CHECKSUM_LEN) == 0)
  60:C:/Users/stapi/OneDrive/Desktop/GD32VW553/V1_MQTT_OK/GD32VW55X_Wifi_BLE_SDK/GD32VW55x_RELEASE_V1.0.2/MSDK/cloud/alicloud/src/protocol/alcs\alcs_api.c ****         {
  61:C:/Users/stapi/OneDrive/Desktop/GD32VW553/V1_MQTT_OK/GD32VW55X_Wifi_BLE_SDK/GD32VW55x_RELEASE_V1.0.2/MSDK/cloud/alicloud/src/protocol/alcs\alcs_api.c ****             COAP_DEBUG("find node, sessionid:%d", node->sessionId);
  62:C:/Users/stapi/OneDrive/Desktop/GD32VW553/V1_MQTT_OK/GD32VW55X_Wifi_BLE_SDK/GD32VW55x_RELEASE_V1.0.2/MSDK/cloud/alicloud/src/protocol/alcs\alcs_api.c ****             HAL_MutexUnlock(dev_lst->list_mutex);
  63:C:/Users/stapi/OneDrive/Desktop/GD32VW553/V1_MQTT_OK/GD32VW55X_Wifi_BLE_SDK/GD32VW55x_RELEASE_V1.0.2/MSDK/cloud/alicloud/src/protocol/alcs\alcs_api.c ****             return node;
  64:C:/Users/stapi/OneDrive/Desktop/GD32VW553/V1_MQTT_OK/GD32VW55X_Wifi_BLE_SDK/GD32VW55x_RELEASE_V1.0.2/MSDK/cloud/alicloud/src/protocol/alcs\alcs_api.c ****         }
  65:C:/Users/stapi/OneDrive/Desktop/GD32VW553/V1_MQTT_OK/GD32VW55X_Wifi_BLE_SDK/GD32VW55x_RELEASE_V1.0.2/MSDK/cloud/alicloud/src/protocol/alcs\alcs_api.c ****     }
  66:C:/Users/stapi/OneDrive/Desktop/GD32VW553/V1_MQTT_OK/GD32VW55X_Wifi_BLE_SDK/GD32VW55x_RELEASE_V1.0.2/MSDK/cloud/alicloud/src/protocol/alcs\alcs_api.c ****     HAL_MutexUnlock(dev_lst->list_mutex);
  67:C:/Users/stapi/OneDrive/Desktop/GD32VW553/V1_MQTT_OK/GD32VW55X_Wifi_BLE_SDK/GD32VW55x_RELEASE_V1.0.2/MSDK/cloud/alicloud/src/protocol/alcs\alcs_api.c ****     return NULL;
  68:C:/Users/stapi/OneDrive/Desktop/GD32VW553/V1_MQTT_OK/GD32VW55X_Wifi_BLE_SDK/GD32VW55x_RELEASE_V1.0.2/MSDK/cloud/alicloud/src/protocol/alcs\alcs_api.c **** }
  69:C:/Users/stapi/OneDrive/Desktop/GD32VW553/V1_MQTT_OK/GD32VW55X_Wifi_BLE_SDK/GD32VW55x_RELEASE_V1.0.2/MSDK/cloud/alicloud/src/protocol/alcs\alcs_api.c **** 
  70:C:/Users/stapi/OneDrive/Desktop/GD32VW553/V1_MQTT_OK/GD32VW55X_Wifi_BLE_SDK/GD32VW55x_RELEASE_V1.0.2/MSDK/cloud/alicloud/src/protocol/alcs\alcs_api.c **** static session_item* get_session (struct list_head* sessions, AlcsDeviceKey* devKey)
  71:C:/Users/stapi/OneDrive/Desktop/GD32VW553/V1_MQTT_OK/GD32VW55X_Wifi_BLE_SDK/GD32VW55x_RELEASE_V1.0.2/MSDK/cloud/alicloud/src/protocol/alcs\alcs_api.c **** {
  72:C:/Users/stapi/OneDrive/Desktop/GD32VW553/V1_MQTT_OK/GD32VW55X_Wifi_BLE_SDK/GD32VW55x_RELEASE_V1.0.2/MSDK/cloud/alicloud/src/protocol/alcs\alcs_api.c ****     if (!sessions || !devKey || !devKey->pk || !devKey->dn) {
  73:C:/Users/stapi/OneDrive/Desktop/GD32VW553/V1_MQTT_OK/GD32VW55X_Wifi_BLE_SDK/GD32VW55x_RELEASE_V1.0.2/MSDK/cloud/alicloud/src/protocol/alcs\alcs_api.c ****         return NULL;
  74:C:/Users/stapi/OneDrive/Desktop/GD32VW553/V1_MQTT_OK/GD32VW55X_Wifi_BLE_SDK/GD32VW55x_RELEASE_V1.0.2/MSDK/cloud/alicloud/src/protocol/alcs\alcs_api.c ****     }
  75:C:/Users/stapi/OneDrive/Desktop/GD32VW553/V1_MQTT_OK/GD32VW55X_Wifi_BLE_SDK/GD32VW55x_RELEASE_V1.0.2/MSDK/cloud/alicloud/src/protocol/alcs\alcs_api.c **** 
  76:C:/Users/stapi/OneDrive/Desktop/GD32VW553/V1_MQTT_OK/GD32VW55X_Wifi_BLE_SDK/GD32VW55x_RELEASE_V1.0.2/MSDK/cloud/alicloud/src/protocol/alcs\alcs_api.c ****     char ck[PK_DN_CHECKSUM_LEN] = {0};
  77:C:/Users/stapi/OneDrive/Desktop/GD32VW553/V1_MQTT_OK/GD32VW55X_Wifi_BLE_SDK/GD32VW55x_RELEASE_V1.0.2/MSDK/cloud/alicloud/src/protocol/alcs\alcs_api.c ****     char path[100] = {0};
  78:C:/Users/stapi/OneDrive/Desktop/GD32VW553/V1_MQTT_OK/GD32VW55X_Wifi_BLE_SDK/GD32VW55x_RELEASE_V1.0.2/MSDK/cloud/alicloud/src/protocol/alcs\alcs_api.c ****     snprintf (path, sizeof(path), "%s%s", devKey->pk, devKey->dn);
  79:C:/Users/stapi/OneDrive/Desktop/GD32VW553/V1_MQTT_OK/GD32VW55X_Wifi_BLE_SDK/GD32VW55x_RELEASE_V1.0.2/MSDK/cloud/alicloud/src/protocol/alcs\alcs_api.c ****     CoAPPathMD5_sum (path, strlen(path), ck, PK_DN_CHECKSUM_LEN);
  80:C:/Users/stapi/OneDrive/Desktop/GD32VW553/V1_MQTT_OK/GD32VW55X_Wifi_BLE_SDK/GD32VW55x_RELEASE_V1.0.2/MSDK/cloud/alicloud/src/protocol/alcs\alcs_api.c **** 
  81:C:/Users/stapi/OneDrive/Desktop/GD32VW553/V1_MQTT_OK/GD32VW55X_Wifi_BLE_SDK/GD32VW55x_RELEASE_V1.0.2/MSDK/cloud/alicloud/src/protocol/alcs\alcs_api.c ****     return get_session_by_checksum (sessions, &devKey->addr, ck);
  82:C:/Users/stapi/OneDrive/Desktop/GD32VW553/V1_MQTT_OK/GD32VW55X_Wifi_BLE_SDK/GD32VW55x_RELEASE_V1.0.2/MSDK/cloud/alicloud/src/protocol/alcs\alcs_api.c **** }
  83:C:/Users/stapi/OneDrive/Desktop/GD32VW553/V1_MQTT_OK/GD32VW55X_Wifi_BLE_SDK/GD32VW55x_RELEASE_V1.0.2/MSDK/cloud/alicloud/src/protocol/alcs\alcs_api.c **** 
  84:C:/Users/stapi/OneDrive/Desktop/GD32VW553/V1_MQTT_OK/GD32VW55X_Wifi_BLE_SDK/GD32VW55x_RELEASE_V1.0.2/MSDK/cloud/alicloud/src/protocol/alcs\alcs_api.c **** void remove_session_safe (CoAPContext *ctx, struct list_head* sessions, AlcsDeviceKey* devKey)
  85:C:/Users/stapi/OneDrive/Desktop/GD32VW553/V1_MQTT_OK/GD32VW55X_Wifi_BLE_SDK/GD32VW55x_RELEASE_V1.0.2/MSDK/cloud/alicloud/src/protocol/alcs\alcs_api.c **** {
  86:C:/Users/stapi/OneDrive/Desktop/GD32VW553/V1_MQTT_OK/GD32VW55X_Wifi_BLE_SDK/GD32VW55x_RELEASE_V1.0.2/MSDK/cloud/alicloud/src/protocol/alcs\alcs_api.c ****     if (!sessions || !devKey || !devKey->pk || !devKey->dn) {
  87:C:/Users/stapi/OneDrive/Desktop/GD32VW553/V1_MQTT_OK/GD32VW55X_Wifi_BLE_SDK/GD32VW55x_RELEASE_V1.0.2/MSDK/cloud/alicloud/src/protocol/alcs\alcs_api.c ****         return;
  88:C:/Users/stapi/OneDrive/Desktop/GD32VW553/V1_MQTT_OK/GD32VW55X_Wifi_BLE_SDK/GD32VW55x_RELEASE_V1.0.2/MSDK/cloud/alicloud/src/protocol/alcs\alcs_api.c ****     }
  89:C:/Users/stapi/OneDrive/Desktop/GD32VW553/V1_MQTT_OK/GD32VW55X_Wifi_BLE_SDK/GD32VW55x_RELEASE_V1.0.2/MSDK/cloud/alicloud/src/protocol/alcs\alcs_api.c **** 
  90:C:/Users/stapi/OneDrive/Desktop/GD32VW553/V1_MQTT_OK/GD32VW55X_Wifi_BLE_SDK/GD32VW55x_RELEASE_V1.0.2/MSDK/cloud/alicloud/src/protocol/alcs\alcs_api.c ****     char ck[PK_DN_CHECKSUM_LEN] = {0};
  91:C:/Users/stapi/OneDrive/Desktop/GD32VW553/V1_MQTT_OK/GD32VW55X_Wifi_BLE_SDK/GD32VW55x_RELEASE_V1.0.2/MSDK/cloud/alicloud/src/protocol/alcs\alcs_api.c ****     char path[100] = {0};
  92:C:/Users/stapi/OneDrive/Desktop/GD32VW553/V1_MQTT_OK/GD32VW55X_Wifi_BLE_SDK/GD32VW55x_RELEASE_V1.0.2/MSDK/cloud/alicloud/src/protocol/alcs\alcs_api.c ****     snprintf (path, sizeof(path), "%s%s", devKey->pk, devKey->dn);
  93:C:/Users/stapi/OneDrive/Desktop/GD32VW553/V1_MQTT_OK/GD32VW55X_Wifi_BLE_SDK/GD32VW55x_RELEASE_V1.0.2/MSDK/cloud/alicloud/src/protocol/alcs\alcs_api.c ****     CoAPPathMD5_sum (path, strlen(path), ck, PK_DN_CHECKSUM_LEN);
  94:C:/Users/stapi/OneDrive/Desktop/GD32VW553/V1_MQTT_OK/GD32VW55X_Wifi_BLE_SDK/GD32VW55x_RELEASE_V1.0.2/MSDK/cloud/alicloud/src/protocol/alcs\alcs_api.c **** 
  95:C:/Users/stapi/OneDrive/Desktop/GD32VW553/V1_MQTT_OK/GD32VW55X_Wifi_BLE_SDK/GD32VW55x_RELEASE_V1.0.2/MSDK/cloud/alicloud/src/protocol/alcs\alcs_api.c ****     device_auth_list *dev_lst = get_device ();
  96:C:/Users/stapi/OneDrive/Desktop/GD32VW553/V1_MQTT_OK/GD32VW55X_Wifi_BLE_SDK/GD32VW55x_RELEASE_V1.0.2/MSDK/cloud/alicloud/src/protocol/alcs\alcs_api.c ****     HAL_MutexLock(dev_lst->list_mutex);
  97:C:/Users/stapi/OneDrive/Desktop/GD32VW553/V1_MQTT_OK/GD32VW55X_Wifi_BLE_SDK/GD32VW55x_RELEASE_V1.0.2/MSDK/cloud/alicloud/src/protocol/alcs\alcs_api.c **** 
  98:C:/Users/stapi/OneDrive/Desktop/GD32VW553/V1_MQTT_OK/GD32VW55X_Wifi_BLE_SDK/GD32VW55x_RELEASE_V1.0.2/MSDK/cloud/alicloud/src/protocol/alcs\alcs_api.c ****     session_item* node = NULL, *next = NULL;
  99:C:/Users/stapi/OneDrive/Desktop/GD32VW553/V1_MQTT_OK/GD32VW55X_Wifi_BLE_SDK/GD32VW55x_RELEASE_V1.0.2/MSDK/cloud/alicloud/src/protocol/alcs\alcs_api.c ****     list_for_each_entry_safe(node, next, sessions, lst, session_item) {
 100:C:/Users/stapi/OneDrive/Desktop/GD32VW553/V1_MQTT_OK/GD32VW55X_Wifi_BLE_SDK/GD32VW55x_RELEASE_V1.0.2/MSDK/cloud/alicloud/src/protocol/alcs\alcs_api.c ****         if (is_networkadd_same(&devKey->addr, &node->addr)
 101:C:/Users/stapi/OneDrive/Desktop/GD32VW553/V1_MQTT_OK/GD32VW55X_Wifi_BLE_SDK/GD32VW55x_RELEASE_V1.0.2/MSDK/cloud/alicloud/src/protocol/alcs\alcs_api.c ****                 && strncmp(node->pk_dn, ck, PK_DN_CHECKSUM_LEN) == 0)
 102:C:/Users/stapi/OneDrive/Desktop/GD32VW553/V1_MQTT_OK/GD32VW55X_Wifi_BLE_SDK/GD32VW55x_RELEASE_V1.0.2/MSDK/cloud/alicloud/src/protocol/alcs\alcs_api.c ****         {
 103:C:/Users/stapi/OneDrive/Desktop/GD32VW553/V1_MQTT_OK/GD32VW55X_Wifi_BLE_SDK/GD32VW55x_RELEASE_V1.0.2/MSDK/cloud/alicloud/src/protocol/alcs\alcs_api.c ****             remove_session (ctx, node);
 104:C:/Users/stapi/OneDrive/Desktop/GD32VW553/V1_MQTT_OK/GD32VW55X_Wifi_BLE_SDK/GD32VW55x_RELEASE_V1.0.2/MSDK/cloud/alicloud/src/protocol/alcs\alcs_api.c ****             break;
 105:C:/Users/stapi/OneDrive/Desktop/GD32VW553/V1_MQTT_OK/GD32VW55X_Wifi_BLE_SDK/GD32VW55x_RELEASE_V1.0.2/MSDK/cloud/alicloud/src/protocol/alcs\alcs_api.c ****         }
 106:C:/Users/stapi/OneDrive/Desktop/GD32VW553/V1_MQTT_OK/GD32VW55X_Wifi_BLE_SDK/GD32VW55x_RELEASE_V1.0.2/MSDK/cloud/alicloud/src/protocol/alcs\alcs_api.c ****     }
 107:C:/Users/stapi/OneDrive/Desktop/GD32VW553/V1_MQTT_OK/GD32VW55X_Wifi_BLE_SDK/GD32VW55x_RELEASE_V1.0.2/MSDK/cloud/alicloud/src/protocol/alcs\alcs_api.c ****     HAL_MutexUnlock(dev_lst->list_mutex);
 108:C:/Users/stapi/OneDrive/Desktop/GD32VW553/V1_MQTT_OK/GD32VW55X_Wifi_BLE_SDK/GD32VW55x_RELEASE_V1.0.2/MSDK/cloud/alicloud/src/protocol/alcs\alcs_api.c **** }
 109:C:/Users/stapi/OneDrive/Desktop/GD32VW553/V1_MQTT_OK/GD32VW55X_Wifi_BLE_SDK/GD32VW55x_RELEASE_V1.0.2/MSDK/cloud/alicloud/src/protocol/alcs\alcs_api.c **** 
 110:C:/Users/stapi/OneDrive/Desktop/GD32VW553/V1_MQTT_OK/GD32VW55X_Wifi_BLE_SDK/GD32VW55x_RELEASE_V1.0.2/MSDK/cloud/alicloud/src/protocol/alcs\alcs_api.c **** #ifdef ALCS_CLIENT_ENABLED
 111:C:/Users/stapi/OneDrive/Desktop/GD32VW553/V1_MQTT_OK/GD32VW55X_Wifi_BLE_SDK/GD32VW55x_RELEASE_V1.0.2/MSDK/cloud/alicloud/src/protocol/alcs\alcs_api.c **** session_item* get_ctl_session (CoAPContext *ctx, AlcsDeviceKey* devKey)
 112:C:/Users/stapi/OneDrive/Desktop/GD32VW553/V1_MQTT_OK/GD32VW55X_Wifi_BLE_SDK/GD32VW55x_RELEASE_V1.0.2/MSDK/cloud/alicloud/src/protocol/alcs\alcs_api.c **** {
 113:C:/Users/stapi/OneDrive/Desktop/GD32VW553/V1_MQTT_OK/GD32VW55X_Wifi_BLE_SDK/GD32VW55x_RELEASE_V1.0.2/MSDK/cloud/alicloud/src/protocol/alcs\alcs_api.c ****     struct list_head* sessions = get_ctl_session_list();
 114:C:/Users/stapi/OneDrive/Desktop/GD32VW553/V1_MQTT_OK/GD32VW55X_Wifi_BLE_SDK/GD32VW55x_RELEASE_V1.0.2/MSDK/cloud/alicloud/src/protocol/alcs\alcs_api.c ****     COAP_DEBUG("get_ctl_session");
 115:C:/Users/stapi/OneDrive/Desktop/GD32VW553/V1_MQTT_OK/GD32VW55X_Wifi_BLE_SDK/GD32VW55x_RELEASE_V1.0.2/MSDK/cloud/alicloud/src/protocol/alcs\alcs_api.c ****     return get_session (sessions, devKey);
 116:C:/Users/stapi/OneDrive/Desktop/GD32VW553/V1_MQTT_OK/GD32VW55X_Wifi_BLE_SDK/GD32VW55x_RELEASE_V1.0.2/MSDK/cloud/alicloud/src/protocol/alcs\alcs_api.c **** }
 117:C:/Users/stapi/OneDrive/Desktop/GD32VW553/V1_MQTT_OK/GD32VW55X_Wifi_BLE_SDK/GD32VW55x_RELEASE_V1.0.2/MSDK/cloud/alicloud/src/protocol/alcs\alcs_api.c **** 
 118:C:/Users/stapi/OneDrive/Desktop/GD32VW553/V1_MQTT_OK/GD32VW55X_Wifi_BLE_SDK/GD32VW55x_RELEASE_V1.0.2/MSDK/cloud/alicloud/src/protocol/alcs\alcs_api.c **** #endif
 119:C:/Users/stapi/OneDrive/Desktop/GD32VW553/V1_MQTT_OK/GD32VW55X_Wifi_BLE_SDK/GD32VW55x_RELEASE_V1.0.2/MSDK/cloud/alicloud/src/protocol/alcs\alcs_api.c **** 
 120:C:/Users/stapi/OneDrive/Desktop/GD32VW553/V1_MQTT_OK/GD32VW55X_Wifi_BLE_SDK/GD32VW55x_RELEASE_V1.0.2/MSDK/cloud/alicloud/src/protocol/alcs\alcs_api.c **** #ifdef ALCS_SERVER_ENABLED
 121:C:/Users/stapi/OneDrive/Desktop/GD32VW553/V1_MQTT_OK/GD32VW55X_Wifi_BLE_SDK/GD32VW55x_RELEASE_V1.0.2/MSDK/cloud/alicloud/src/protocol/alcs\alcs_api.c **** session_item* get_svr_session (AlcsDeviceKey* devKey)
 122:C:/Users/stapi/OneDrive/Desktop/GD32VW553/V1_MQTT_OK/GD32VW55X_Wifi_BLE_SDK/GD32VW55x_RELEASE_V1.0.2/MSDK/cloud/alicloud/src/protocol/alcs\alcs_api.c **** {
 123:C:/Users/stapi/OneDrive/Desktop/GD32VW553/V1_MQTT_OK/GD32VW55X_Wifi_BLE_SDK/GD32VW55x_RELEASE_V1.0.2/MSDK/cloud/alicloud/src/protocol/alcs\alcs_api.c ****     struct list_head* sessions = get_svr_session_list();
 124:C:/Users/stapi/OneDrive/Desktop/GD32VW553/V1_MQTT_OK/GD32VW55X_Wifi_BLE_SDK/GD32VW55x_RELEASE_V1.0.2/MSDK/cloud/alicloud/src/protocol/alcs\alcs_api.c ****     return get_session (sessions, devKey);
 125:C:/Users/stapi/OneDrive/Desktop/GD32VW553/V1_MQTT_OK/GD32VW55X_Wifi_BLE_SDK/GD32VW55x_RELEASE_V1.0.2/MSDK/cloud/alicloud/src/protocol/alcs\alcs_api.c **** }
 126:C:/Users/stapi/OneDrive/Desktop/GD32VW553/V1_MQTT_OK/GD32VW55X_Wifi_BLE_SDK/GD32VW55x_RELEASE_V1.0.2/MSDK/cloud/alicloud/src/protocol/alcs\alcs_api.c **** #endif
 127:C:/Users/stapi/OneDrive/Desktop/GD32VW553/V1_MQTT_OK/GD32VW55X_Wifi_BLE_SDK/GD32VW55x_RELEASE_V1.0.2/MSDK/cloud/alicloud/src/protocol/alcs\alcs_api.c **** 
 128:C:/Users/stapi/OneDrive/Desktop/GD32VW553/V1_MQTT_OK/GD32VW55X_Wifi_BLE_SDK/GD32VW55x_RELEASE_V1.0.2/MSDK/cloud/alicloud/src/protocol/alcs\alcs_api.c **** static session_item* get_auth_session (AlcsDeviceKey* devKey)
 129:C:/Users/stapi/OneDrive/Desktop/GD32VW553/V1_MQTT_OK/GD32VW55X_Wifi_BLE_SDK/GD32VW55x_RELEASE_V1.0.2/MSDK/cloud/alicloud/src/protocol/alcs\alcs_api.c **** {
 130:C:/Users/stapi/OneDrive/Desktop/GD32VW553/V1_MQTT_OK/GD32VW55X_Wifi_BLE_SDK/GD32VW55x_RELEASE_V1.0.2/MSDK/cloud/alicloud/src/protocol/alcs\alcs_api.c **** #ifdef ALCSCLIENT
 131:C:/Users/stapi/OneDrive/Desktop/GD32VW553/V1_MQTT_OK/GD32VW55X_Wifi_BLE_SDK/GD32VW55x_RELEASE_V1.0.2/MSDK/cloud/alicloud/src/protocol/alcs\alcs_api.c ****     session_item* node = get_ctl_session (devKey);
 132:C:/Users/stapi/OneDrive/Desktop/GD32VW553/V1_MQTT_OK/GD32VW55X_Wifi_BLE_SDK/GD32VW55x_RELEASE_V1.0.2/MSDK/cloud/alicloud/src/protocol/alcs\alcs_api.c ****     if (node && node->sessionId) {
 133:C:/Users/stapi/OneDrive/Desktop/GD32VW553/V1_MQTT_OK/GD32VW55X_Wifi_BLE_SDK/GD32VW55x_RELEASE_V1.0.2/MSDK/cloud/alicloud/src/protocol/alcs\alcs_api.c ****         return node;
 134:C:/Users/stapi/OneDrive/Desktop/GD32VW553/V1_MQTT_OK/GD32VW55X_Wifi_BLE_SDK/GD32VW55x_RELEASE_V1.0.2/MSDK/cloud/alicloud/src/protocol/alcs\alcs_api.c ****     }
 135:C:/Users/stapi/OneDrive/Desktop/GD32VW553/V1_MQTT_OK/GD32VW55X_Wifi_BLE_SDK/GD32VW55x_RELEASE_V1.0.2/MSDK/cloud/alicloud/src/protocol/alcs\alcs_api.c **** #endif
 136:C:/Users/stapi/OneDrive/Desktop/GD32VW553/V1_MQTT_OK/GD32VW55X_Wifi_BLE_SDK/GD32VW55x_RELEASE_V1.0.2/MSDK/cloud/alicloud/src/protocol/alcs\alcs_api.c **** #ifdef ALCSSERVER
 137:C:/Users/stapi/OneDrive/Desktop/GD32VW553/V1_MQTT_OK/GD32VW55X_Wifi_BLE_SDK/GD32VW55x_RELEASE_V1.0.2/MSDK/cloud/alicloud/src/protocol/alcs\alcs_api.c ****     session_item* node1 = get_svr_session (devKey);
 138:C:/Users/stapi/OneDrive/Desktop/GD32VW553/V1_MQTT_OK/GD32VW55X_Wifi_BLE_SDK/GD32VW55x_RELEASE_V1.0.2/MSDK/cloud/alicloud/src/protocol/alcs\alcs_api.c ****     if (node1 && node1->sessionId) {
 139:C:/Users/stapi/OneDrive/Desktop/GD32VW553/V1_MQTT_OK/GD32VW55X_Wifi_BLE_SDK/GD32VW55x_RELEASE_V1.0.2/MSDK/cloud/alicloud/src/protocol/alcs\alcs_api.c ****         return node1;
 140:C:/Users/stapi/OneDrive/Desktop/GD32VW553/V1_MQTT_OK/GD32VW55X_Wifi_BLE_SDK/GD32VW55x_RELEASE_V1.0.2/MSDK/cloud/alicloud/src/protocol/alcs\alcs_api.c ****     }
 141:C:/Users/stapi/OneDrive/Desktop/GD32VW553/V1_MQTT_OK/GD32VW55X_Wifi_BLE_SDK/GD32VW55x_RELEASE_V1.0.2/MSDK/cloud/alicloud/src/protocol/alcs\alcs_api.c **** #endif
 142:C:/Users/stapi/OneDrive/Desktop/GD32VW553/V1_MQTT_OK/GD32VW55X_Wifi_BLE_SDK/GD32VW55x_RELEASE_V1.0.2/MSDK/cloud/alicloud/src/protocol/alcs\alcs_api.c ****     return NULL;
 143:C:/Users/stapi/OneDrive/Desktop/GD32VW553/V1_MQTT_OK/GD32VW55X_Wifi_BLE_SDK/GD32VW55x_RELEASE_V1.0.2/MSDK/cloud/alicloud/src/protocol/alcs\alcs_api.c **** }
 144:C:/Users/stapi/OneDrive/Desktop/GD32VW553/V1_MQTT_OK/GD32VW55X_Wifi_BLE_SDK/GD32VW55x_RELEASE_V1.0.2/MSDK/cloud/alicloud/src/protocol/alcs\alcs_api.c **** 
 145:C:/Users/stapi/OneDrive/Desktop/GD32VW553/V1_MQTT_OK/GD32VW55X_Wifi_BLE_SDK/GD32VW55x_RELEASE_V1.0.2/MSDK/cloud/alicloud/src/protocol/alcs\alcs_api.c **** static session_item* get_session_by_id (int id)
 146:C:/Users/stapi/OneDrive/Desktop/GD32VW553/V1_MQTT_OK/GD32VW55X_Wifi_BLE_SDK/GD32VW55x_RELEASE_V1.0.2/MSDK/cloud/alicloud/src/protocol/alcs\alcs_api.c **** {
 147:C:/Users/stapi/OneDrive/Desktop/GD32VW553/V1_MQTT_OK/GD32VW55X_Wifi_BLE_SDK/GD32VW55x_RELEASE_V1.0.2/MSDK/cloud/alicloud/src/protocol/alcs\alcs_api.c ****     device_auth_list *dev_lst = get_device ();
 148:C:/Users/stapi/OneDrive/Desktop/GD32VW553/V1_MQTT_OK/GD32VW55X_Wifi_BLE_SDK/GD32VW55x_RELEASE_V1.0.2/MSDK/cloud/alicloud/src/protocol/alcs\alcs_api.c ****     HAL_MutexLock(dev_lst->list_mutex);
 149:C:/Users/stapi/OneDrive/Desktop/GD32VW553/V1_MQTT_OK/GD32VW55X_Wifi_BLE_SDK/GD32VW55x_RELEASE_V1.0.2/MSDK/cloud/alicloud/src/protocol/alcs\alcs_api.c ****     session_item *node, *next;
 150:C:/Users/stapi/OneDrive/Desktop/GD32VW553/V1_MQTT_OK/GD32VW55X_Wifi_BLE_SDK/GD32VW55x_RELEASE_V1.0.2/MSDK/cloud/alicloud/src/protocol/alcs\alcs_api.c ****     struct list_head* sessions = get_svr_session_list();
 151:C:/Users/stapi/OneDrive/Desktop/GD32VW553/V1_MQTT_OK/GD32VW55X_Wifi_BLE_SDK/GD32VW55x_RELEASE_V1.0.2/MSDK/cloud/alicloud/src/protocol/alcs\alcs_api.c ****     list_for_each_entry_safe(node, next, sessions, lst, session_item) {
 152:C:/Users/stapi/OneDrive/Desktop/GD32VW553/V1_MQTT_OK/GD32VW55X_Wifi_BLE_SDK/GD32VW55x_RELEASE_V1.0.2/MSDK/cloud/alicloud/src/protocol/alcs\alcs_api.c ****         if (node->sessionId == id) {
 153:C:/Users/stapi/OneDrive/Desktop/GD32VW553/V1_MQTT_OK/GD32VW55X_Wifi_BLE_SDK/GD32VW55x_RELEASE_V1.0.2/MSDK/cloud/alicloud/src/protocol/alcs\alcs_api.c ****             COAP_DEBUG("get_session_by_id, find");
 154:C:/Users/stapi/OneDrive/Desktop/GD32VW553/V1_MQTT_OK/GD32VW55X_Wifi_BLE_SDK/GD32VW55x_RELEASE_V1.0.2/MSDK/cloud/alicloud/src/protocol/alcs\alcs_api.c ****             HAL_MutexUnlock(dev_lst->list_mutex);
 155:C:/Users/stapi/OneDrive/Desktop/GD32VW553/V1_MQTT_OK/GD32VW55X_Wifi_BLE_SDK/GD32VW55x_RELEASE_V1.0.2/MSDK/cloud/alicloud/src/protocol/alcs\alcs_api.c ****             return node;
 156:C:/Users/stapi/OneDrive/Desktop/GD32VW553/V1_MQTT_OK/GD32VW55X_Wifi_BLE_SDK/GD32VW55x_RELEASE_V1.0.2/MSDK/cloud/alicloud/src/protocol/alcs\alcs_api.c ****         }
 157:C:/Users/stapi/OneDrive/Desktop/GD32VW553/V1_MQTT_OK/GD32VW55X_Wifi_BLE_SDK/GD32VW55x_RELEASE_V1.0.2/MSDK/cloud/alicloud/src/protocol/alcs\alcs_api.c ****     }
 158:C:/Users/stapi/OneDrive/Desktop/GD32VW553/V1_MQTT_OK/GD32VW55X_Wifi_BLE_SDK/GD32VW55x_RELEASE_V1.0.2/MSDK/cloud/alicloud/src/protocol/alcs\alcs_api.c ****     HAL_MutexUnlock(dev_lst->list_mutex);
 159:C:/Users/stapi/OneDrive/Desktop/GD32VW553/V1_MQTT_OK/GD32VW55X_Wifi_BLE_SDK/GD32VW55x_RELEASE_V1.0.2/MSDK/cloud/alicloud/src/protocol/alcs\alcs_api.c ****     
 160:C:/Users/stapi/OneDrive/Desktop/GD32VW553/V1_MQTT_OK/GD32VW55X_Wifi_BLE_SDK/GD32VW55x_RELEASE_V1.0.2/MSDK/cloud/alicloud/src/protocol/alcs\alcs_api.c ****     return NULL;
 161:C:/Users/stapi/OneDrive/Desktop/GD32VW553/V1_MQTT_OK/GD32VW55X_Wifi_BLE_SDK/GD32VW55x_RELEASE_V1.0.2/MSDK/cloud/alicloud/src/protocol/alcs\alcs_api.c **** }
 162:C:/Users/stapi/OneDrive/Desktop/GD32VW553/V1_MQTT_OK/GD32VW55X_Wifi_BLE_SDK/GD32VW55x_RELEASE_V1.0.2/MSDK/cloud/alicloud/src/protocol/alcs\alcs_api.c **** 
 163:C:/Users/stapi/OneDrive/Desktop/GD32VW553/V1_MQTT_OK/GD32VW55X_Wifi_BLE_SDK/GD32VW55x_RELEASE_V1.0.2/MSDK/cloud/alicloud/src/protocol/alcs\alcs_api.c **** static request_item* find_request_by_req (NetworkAddr* addr, unsigned char* token, int tokenlen)
 164:C:/Users/stapi/OneDrive/Desktop/GD32VW553/V1_MQTT_OK/GD32VW55X_Wifi_BLE_SDK/GD32VW55x_RELEASE_V1.0.2/MSDK/cloud/alicloud/src/protocol/alcs\alcs_api.c **** {
 165:C:/Users/stapi/OneDrive/Desktop/GD32VW553/V1_MQTT_OK/GD32VW55X_Wifi_BLE_SDK/GD32VW55x_RELEASE_V1.0.2/MSDK/cloud/alicloud/src/protocol/alcs\alcs_api.c ****     device_auth_list *dev_lst = get_device ();
 166:C:/Users/stapi/OneDrive/Desktop/GD32VW553/V1_MQTT_OK/GD32VW55X_Wifi_BLE_SDK/GD32VW55x_RELEASE_V1.0.2/MSDK/cloud/alicloud/src/protocol/alcs\alcs_api.c ****     HAL_MutexLock(dev_lst->list_mutex);
 167:C:/Users/stapi/OneDrive/Desktop/GD32VW553/V1_MQTT_OK/GD32VW55X_Wifi_BLE_SDK/GD32VW55x_RELEASE_V1.0.2/MSDK/cloud/alicloud/src/protocol/alcs\alcs_api.c **** 
 168:C:/Users/stapi/OneDrive/Desktop/GD32VW553/V1_MQTT_OK/GD32VW55X_Wifi_BLE_SDK/GD32VW55x_RELEASE_V1.0.2/MSDK/cloud/alicloud/src/protocol/alcs\alcs_api.c ****     request_item *node = NULL, *next = NULL;
 169:C:/Users/stapi/OneDrive/Desktop/GD32VW553/V1_MQTT_OK/GD32VW55X_Wifi_BLE_SDK/GD32VW55x_RELEASE_V1.0.2/MSDK/cloud/alicloud/src/protocol/alcs\alcs_api.c ****     list_for_each_entry_safe(node, next, &dev_lst->lst_requests, lst, request_item) {
 170:C:/Users/stapi/OneDrive/Desktop/GD32VW553/V1_MQTT_OK/GD32VW55X_Wifi_BLE_SDK/GD32VW55x_RELEASE_V1.0.2/MSDK/cloud/alicloud/src/protocol/alcs\alcs_api.c ****         if (is_networkadd_same(addr, &node->addr)
 171:C:/Users/stapi/OneDrive/Desktop/GD32VW553/V1_MQTT_OK/GD32VW55X_Wifi_BLE_SDK/GD32VW55x_RELEASE_V1.0.2/MSDK/cloud/alicloud/src/protocol/alcs\alcs_api.c ****                 && memcmp(node->token, token, tokenlen) == 0)
 172:C:/Users/stapi/OneDrive/Desktop/GD32VW553/V1_MQTT_OK/GD32VW55X_Wifi_BLE_SDK/GD32VW55x_RELEASE_V1.0.2/MSDK/cloud/alicloud/src/protocol/alcs\alcs_api.c ****         {
 173:C:/Users/stapi/OneDrive/Desktop/GD32VW553/V1_MQTT_OK/GD32VW55X_Wifi_BLE_SDK/GD32VW55x_RELEASE_V1.0.2/MSDK/cloud/alicloud/src/protocol/alcs\alcs_api.c ****             COAP_DEBUG("find request, id:%d, isgroup:%d", node->sessionId, node->isGroup);
 174:C:/Users/stapi/OneDrive/Desktop/GD32VW553/V1_MQTT_OK/GD32VW55X_Wifi_BLE_SDK/GD32VW55x_RELEASE_V1.0.2/MSDK/cloud/alicloud/src/protocol/alcs\alcs_api.c ****             HAL_MutexUnlock(dev_lst->list_mutex);
 175:C:/Users/stapi/OneDrive/Desktop/GD32VW553/V1_MQTT_OK/GD32VW55X_Wifi_BLE_SDK/GD32VW55x_RELEASE_V1.0.2/MSDK/cloud/alicloud/src/protocol/alcs\alcs_api.c ****             return node;
 176:C:/Users/stapi/OneDrive/Desktop/GD32VW553/V1_MQTT_OK/GD32VW55X_Wifi_BLE_SDK/GD32VW55x_RELEASE_V1.0.2/MSDK/cloud/alicloud/src/protocol/alcs\alcs_api.c ****         }
 177:C:/Users/stapi/OneDrive/Desktop/GD32VW553/V1_MQTT_OK/GD32VW55X_Wifi_BLE_SDK/GD32VW55x_RELEASE_V1.0.2/MSDK/cloud/alicloud/src/protocol/alcs\alcs_api.c ****     }
 178:C:/Users/stapi/OneDrive/Desktop/GD32VW553/V1_MQTT_OK/GD32VW55X_Wifi_BLE_SDK/GD32VW55x_RELEASE_V1.0.2/MSDK/cloud/alicloud/src/protocol/alcs\alcs_api.c ****     HAL_MutexUnlock(dev_lst->list_mutex);
 179:C:/Users/stapi/OneDrive/Desktop/GD32VW553/V1_MQTT_OK/GD32VW55X_Wifi_BLE_SDK/GD32VW55x_RELEASE_V1.0.2/MSDK/cloud/alicloud/src/protocol/alcs\alcs_api.c ****     return NULL;
 180:C:/Users/stapi/OneDrive/Desktop/GD32VW553/V1_MQTT_OK/GD32VW55X_Wifi_BLE_SDK/GD32VW55x_RELEASE_V1.0.2/MSDK/cloud/alicloud/src/protocol/alcs\alcs_api.c **** }
 181:C:/Users/stapi/OneDrive/Desktop/GD32VW553/V1_MQTT_OK/GD32VW55X_Wifi_BLE_SDK/GD32VW55x_RELEASE_V1.0.2/MSDK/cloud/alicloud/src/protocol/alcs\alcs_api.c **** 
 182:C:/Users/stapi/OneDrive/Desktop/GD32VW553/V1_MQTT_OK/GD32VW55X_Wifi_BLE_SDK/GD32VW55x_RELEASE_V1.0.2/MSDK/cloud/alicloud/src/protocol/alcs\alcs_api.c **** static session_item* get_auth_session_by_checksum (NetworkAddr* addr, char ck[])
 183:C:/Users/stapi/OneDrive/Desktop/GD32VW553/V1_MQTT_OK/GD32VW55X_Wifi_BLE_SDK/GD32VW55x_RELEASE_V1.0.2/MSDK/cloud/alicloud/src/protocol/alcs\alcs_api.c **** {
 184:C:/Users/stapi/OneDrive/Desktop/GD32VW553/V1_MQTT_OK/GD32VW55X_Wifi_BLE_SDK/GD32VW55x_RELEASE_V1.0.2/MSDK/cloud/alicloud/src/protocol/alcs\alcs_api.c **** #ifdef ALCS_CLIENT_ENABLED
 185:C:/Users/stapi/OneDrive/Desktop/GD32VW553/V1_MQTT_OK/GD32VW55X_Wifi_BLE_SDK/GD32VW55x_RELEASE_V1.0.2/MSDK/cloud/alicloud/src/protocol/alcs\alcs_api.c ****     struct list_head* sessions = get_ctl_session_list();
 186:C:/Users/stapi/OneDrive/Desktop/GD32VW553/V1_MQTT_OK/GD32VW55X_Wifi_BLE_SDK/GD32VW55x_RELEASE_V1.0.2/MSDK/cloud/alicloud/src/protocol/alcs\alcs_api.c ****     session_item* node = get_session_by_checksum (sessions, addr, ck);
 187:C:/Users/stapi/OneDrive/Desktop/GD32VW553/V1_MQTT_OK/GD32VW55X_Wifi_BLE_SDK/GD32VW55x_RELEASE_V1.0.2/MSDK/cloud/alicloud/src/protocol/alcs\alcs_api.c ****     if (node && node->sessionId) {
 188:C:/Users/stapi/OneDrive/Desktop/GD32VW553/V1_MQTT_OK/GD32VW55X_Wifi_BLE_SDK/GD32VW55x_RELEASE_V1.0.2/MSDK/cloud/alicloud/src/protocol/alcs\alcs_api.c ****         return node;
 189:C:/Users/stapi/OneDrive/Desktop/GD32VW553/V1_MQTT_OK/GD32VW55X_Wifi_BLE_SDK/GD32VW55x_RELEASE_V1.0.2/MSDK/cloud/alicloud/src/protocol/alcs\alcs_api.c ****     }
 190:C:/Users/stapi/OneDrive/Desktop/GD32VW553/V1_MQTT_OK/GD32VW55X_Wifi_BLE_SDK/GD32VW55x_RELEASE_V1.0.2/MSDK/cloud/alicloud/src/protocol/alcs\alcs_api.c **** #endif
 191:C:/Users/stapi/OneDrive/Desktop/GD32VW553/V1_MQTT_OK/GD32VW55X_Wifi_BLE_SDK/GD32VW55x_RELEASE_V1.0.2/MSDK/cloud/alicloud/src/protocol/alcs\alcs_api.c **** #ifdef ALCS_SERVER_ENABLED
 192:C:/Users/stapi/OneDrive/Desktop/GD32VW553/V1_MQTT_OK/GD32VW55X_Wifi_BLE_SDK/GD32VW55x_RELEASE_V1.0.2/MSDK/cloud/alicloud/src/protocol/alcs\alcs_api.c ****     struct list_head* sessions1 = get_svr_session_list();
 193:C:/Users/stapi/OneDrive/Desktop/GD32VW553/V1_MQTT_OK/GD32VW55X_Wifi_BLE_SDK/GD32VW55x_RELEASE_V1.0.2/MSDK/cloud/alicloud/src/protocol/alcs\alcs_api.c ****     session_item* node1 = get_session_by_checksum (sessions1, addr, ck);
 194:C:/Users/stapi/OneDrive/Desktop/GD32VW553/V1_MQTT_OK/GD32VW55X_Wifi_BLE_SDK/GD32VW55x_RELEASE_V1.0.2/MSDK/cloud/alicloud/src/protocol/alcs\alcs_api.c ****     if (node1 && node1->sessionId) {
 195:C:/Users/stapi/OneDrive/Desktop/GD32VW553/V1_MQTT_OK/GD32VW55X_Wifi_BLE_SDK/GD32VW55x_RELEASE_V1.0.2/MSDK/cloud/alicloud/src/protocol/alcs\alcs_api.c ****         return node1;
 196:C:/Users/stapi/OneDrive/Desktop/GD32VW553/V1_MQTT_OK/GD32VW55X_Wifi_BLE_SDK/GD32VW55x_RELEASE_V1.0.2/MSDK/cloud/alicloud/src/protocol/alcs\alcs_api.c ****     }
 197:C:/Users/stapi/OneDrive/Desktop/GD32VW553/V1_MQTT_OK/GD32VW55X_Wifi_BLE_SDK/GD32VW55x_RELEASE_V1.0.2/MSDK/cloud/alicloud/src/protocol/alcs\alcs_api.c **** #endif
 198:C:/Users/stapi/OneDrive/Desktop/GD32VW553/V1_MQTT_OK/GD32VW55X_Wifi_BLE_SDK/GD32VW55x_RELEASE_V1.0.2/MSDK/cloud/alicloud/src/protocol/alcs\alcs_api.c **** 
 199:C:/Users/stapi/OneDrive/Desktop/GD32VW553/V1_MQTT_OK/GD32VW55X_Wifi_BLE_SDK/GD32VW55x_RELEASE_V1.0.2/MSDK/cloud/alicloud/src/protocol/alcs\alcs_api.c ****     return NULL;
 200:C:/Users/stapi/OneDrive/Desktop/GD32VW553/V1_MQTT_OK/GD32VW55X_Wifi_BLE_SDK/GD32VW55x_RELEASE_V1.0.2/MSDK/cloud/alicloud/src/protocol/alcs\alcs_api.c **** }
 201:C:/Users/stapi/OneDrive/Desktop/GD32VW553/V1_MQTT_OK/GD32VW55X_Wifi_BLE_SDK/GD32VW55x_RELEASE_V1.0.2/MSDK/cloud/alicloud/src/protocol/alcs\alcs_api.c **** 
 202:C:/Users/stapi/OneDrive/Desktop/GD32VW553/V1_MQTT_OK/GD32VW55X_Wifi_BLE_SDK/GD32VW55x_RELEASE_V1.0.2/MSDK/cloud/alicloud/src/protocol/alcs\alcs_api.c **** void gen_random_key(unsigned char random[], int len)
 203:C:/Users/stapi/OneDrive/Desktop/GD32VW553/V1_MQTT_OK/GD32VW55X_Wifi_BLE_SDK/GD32VW55x_RELEASE_V1.0.2/MSDK/cloud/alicloud/src/protocol/alcs\alcs_api.c **** {
 238              		.loc 1 203 1 is_stmt 1
 239              		.cfi_startproc
 240              	.LVL23:
 241 0000 17030000 		call	t0,__riscv_save_9
 241      E7020300 
 242              		.cfi_offset 24, -40
 243              		.cfi_offset 23, -36
 244              		.cfi_offset 22, -32
 245              		.cfi_offset 21, -28
 246              		.cfi_offset 20, -24
 247              		.cfi_offset 19, -20
 248              		.cfi_offset 18, -16
 249              		.cfi_offset 9, -12
 250              		.cfi_offset 8, -8
 251              		.cfi_offset 1, -4
 252              		.cfi_def_cfa_offset 48
 204:C:/Users/stapi/OneDrive/Desktop/GD32VW553/V1_MQTT_OK/GD32VW55X_Wifi_BLE_SDK/GD32VW55x_RELEASE_V1.0.2/MSDK/cloud/alicloud/src/protocol/alcs\alcs_api.c ****     int i = 0, flag = 0;
 253              		.loc 1 204 5
 254              	.LVL24:
 205:C:/Users/stapi/OneDrive/Desktop/GD32VW553/V1_MQTT_OK/GD32VW55X_Wifi_BLE_SDK/GD32VW55x_RELEASE_V1.0.2/MSDK/cloud/alicloud/src/protocol/alcs\alcs_api.c **** 
 206:C:/Users/stapi/OneDrive/Desktop/GD32VW553/V1_MQTT_OK/GD32VW55X_Wifi_BLE_SDK/GD32VW55x_RELEASE_V1.0.2/MSDK/cloud/alicloud/src/protocol/alcs\alcs_api.c ****     memset(random, 0x00, len);
 255              		.loc 1 206 5
 256 0008 2E86     		mv	a2,a1
 203:C:/Users/stapi/OneDrive/Desktop/GD32VW553/V1_MQTT_OK/GD32VW55X_Wifi_BLE_SDK/GD32VW55x_RELEASE_V1.0.2/MSDK/cloud/alicloud/src/protocol/alcs\alcs_api.c ****     int i = 0, flag = 0;
 257              		.loc 1 203 1 is_stmt 0
 258 000a AE84     		mv	s1,a1
 259              		.loc 1 206 5
 260 000c 8145     		li	a1,0
 261              	.LVL25:
 203:C:/Users/stapi/OneDrive/Desktop/GD32VW553/V1_MQTT_OK/GD32VW55X_Wifi_BLE_SDK/GD32VW55x_RELEASE_V1.0.2/MSDK/cloud/alicloud/src/protocol/alcs\alcs_api.c ****     int i = 0, flag = 0;
 262              		.loc 1 203 1
 263 000e 2A89     		mv	s2,a0
 264              		.loc 1 206 5
 265 0010 97000000 		call	memset
 265      E7800000 
 266              	.LVL26:
 207:C:/Users/stapi/OneDrive/Desktop/GD32VW553/V1_MQTT_OK/GD32VW55X_Wifi_BLE_SDK/GD32VW55x_RELEASE_V1.0.2/MSDK/cloud/alicloud/src/protocol/alcs\alcs_api.c ****     srand((unsigned)time(NULL));
 267              		.loc 1 207 5 is_stmt 1
 268              		.loc 1 207 21 is_stmt 0
 269 0018 0145     		li	a0,0
 270 001a 97000000 		call	time
 270      E7800000 
 271              	.LVL27:
 272              		.loc 1 207 5
 273 0022 97000000 		call	srand
 273      E7800000 
 274              	.LVL28:
 208:C:/Users/stapi/OneDrive/Desktop/GD32VW553/V1_MQTT_OK/GD32VW55X_Wifi_BLE_SDK/GD32VW55x_RELEASE_V1.0.2/MSDK/cloud/alicloud/src/protocol/alcs\alcs_api.c **** 
 209:C:/Users/stapi/OneDrive/Desktop/GD32VW553/V1_MQTT_OK/GD32VW55X_Wifi_BLE_SDK/GD32VW55x_RELEASE_V1.0.2/MSDK/cloud/alicloud/src/protocol/alcs\alcs_api.c ****     for(i=0; i<len - 1; i++){
 275              		.loc 1 209 5 is_stmt 1
 276 002a 4A84     		mv	s0,s2
 277              		.loc 1 209 20 is_stmt 0
 278 002c FD14     		addi	s1,s1,-1
 279              	.LVL29:
 210:C:/Users/stapi/OneDrive/Desktop/GD32VW553/V1_MQTT_OK/GD32VW55X_Wifi_BLE_SDK/GD32VW55x_RELEASE_V1.0.2/MSDK/cloud/alicloud/src/protocol/alcs\alcs_api.c ****         flag = rand() % 3;
 280              		.loc 1 210 14
 281 002e 0D4A     		li	s4,3
 211:C:/Users/stapi/OneDrive/Desktop/GD32VW553/V1_MQTT_OK/GD32VW55X_Wifi_BLE_SDK/GD32VW55x_RELEASE_V1.0.2/MSDK/cloud/alicloud/src/protocol/alcs\alcs_api.c ****         switch (flag){
 282              		.loc 1 211 9
 283 0030 854A     		li	s5,1
 212:C:/Users/stapi/OneDrive/Desktop/GD32VW553/V1_MQTT_OK/GD32VW55X_Wifi_BLE_SDK/GD32VW55x_RELEASE_V1.0.2/MSDK/cloud/alicloud/src/protocol/alcs\alcs_api.c ****             case 0:
 213:C:/Users/stapi/OneDrive/Desktop/GD32VW553/V1_MQTT_OK/GD32VW55X_Wifi_BLE_SDK/GD32VW55x_RELEASE_V1.0.2/MSDK/cloud/alicloud/src/protocol/alcs\alcs_api.c ****                 random[i] = 'A' + rand() % 26;
 214:C:/Users/stapi/OneDrive/Desktop/GD32VW553/V1_MQTT_OK/GD32VW55X_Wifi_BLE_SDK/GD32VW55x_RELEASE_V1.0.2/MSDK/cloud/alicloud/src/protocol/alcs\alcs_api.c ****                 break;
 215:C:/Users/stapi/OneDrive/Desktop/GD32VW553/V1_MQTT_OK/GD32VW55X_Wifi_BLE_SDK/GD32VW55x_RELEASE_V1.0.2/MSDK/cloud/alicloud/src/protocol/alcs\alcs_api.c ****             case 1:
 216:C:/Users/stapi/OneDrive/Desktop/GD32VW553/V1_MQTT_OK/GD32VW55X_Wifi_BLE_SDK/GD32VW55x_RELEASE_V1.0.2/MSDK/cloud/alicloud/src/protocol/alcs\alcs_api.c ****                 random[i] = 'a' + rand() % 26;                break;
 284              		.loc 1 216 42
 285 0032 E949     		li	s3,26
 211:C:/Users/stapi/OneDrive/Desktop/GD32VW553/V1_MQTT_OK/GD32VW55X_Wifi_BLE_SDK/GD32VW55x_RELEASE_V1.0.2/MSDK/cloud/alicloud/src/protocol/alcs\alcs_api.c ****         switch (flag){
 286              		.loc 1 211 9
 287 0034 094B     		li	s6,2
 217:C:/Users/stapi/OneDrive/Desktop/GD32VW553/V1_MQTT_OK/GD32VW55X_Wifi_BLE_SDK/GD32VW55x_RELEASE_V1.0.2/MSDK/cloud/alicloud/src/protocol/alcs\alcs_api.c ****             case 2:
 218:C:/Users/stapi/OneDrive/Desktop/GD32VW553/V1_MQTT_OK/GD32VW55X_Wifi_BLE_SDK/GD32VW55x_RELEASE_V1.0.2/MSDK/cloud/alicloud/src/protocol/alcs\alcs_api.c ****                 random[i] = '0' + rand() % 10;
 288              		.loc 1 218 42
 289 0036 A94B     		li	s7,10
 219:C:/Users/stapi/OneDrive/Desktop/GD32VW553/V1_MQTT_OK/GD32VW55X_Wifi_BLE_SDK/GD32VW55x_RELEASE_V1.0.2/MSDK/cloud/alicloud/src/protocol/alcs\alcs_api.c ****                 break;
 220:C:/Users/stapi/OneDrive/Desktop/GD32VW553/V1_MQTT_OK/GD32VW55X_Wifi_BLE_SDK/GD32VW55x_RELEASE_V1.0.2/MSDK/cloud/alicloud/src/protocol/alcs\alcs_api.c ****             default:
 221:C:/Users/stapi/OneDrive/Desktop/GD32VW553/V1_MQTT_OK/GD32VW55X_Wifi_BLE_SDK/GD32VW55x_RELEASE_V1.0.2/MSDK/cloud/alicloud/src/protocol/alcs\alcs_api.c ****                 random[i] = 'x';
 290              		.loc 1 221 27
 291 0038 130C8007 		li	s8,120
 292              	.LVL30:
 293              	.L19:
 209:C:/Users/stapi/OneDrive/Desktop/GD32VW553/V1_MQTT_OK/GD32VW55X_Wifi_BLE_SDK/GD32VW55x_RELEASE_V1.0.2/MSDK/cloud/alicloud/src/protocol/alcs\alcs_api.c ****         flag = rand() % 3;
 294              		.loc 1 209 14 is_stmt 1 discriminator 1
 209:C:/Users/stapi/OneDrive/Desktop/GD32VW553/V1_MQTT_OK/GD32VW55X_Wifi_BLE_SDK/GD32VW55x_RELEASE_V1.0.2/MSDK/cloud/alicloud/src/protocol/alcs\alcs_api.c ****         flag = rand() % 3;
 295              		.loc 1 209 5 is_stmt 0 discriminator 1
 296 003c B3072441 		sub	a5,s0,s2
 297 0040 63C69700 		blt	a5,s1,.L24
 222:C:/Users/stapi/OneDrive/Desktop/GD32VW553/V1_MQTT_OK/GD32VW55X_Wifi_BLE_SDK/GD32VW55x_RELEASE_V1.0.2/MSDK/cloud/alicloud/src/protocol/alcs\alcs_api.c ****                 break;
 223:C:/Users/stapi/OneDrive/Desktop/GD32VW553/V1_MQTT_OK/GD32VW55X_Wifi_BLE_SDK/GD32VW55x_RELEASE_V1.0.2/MSDK/cloud/alicloud/src/protocol/alcs\alcs_api.c ****         }
 224:C:/Users/stapi/OneDrive/Desktop/GD32VW553/V1_MQTT_OK/GD32VW55X_Wifi_BLE_SDK/GD32VW55x_RELEASE_V1.0.2/MSDK/cloud/alicloud/src/protocol/alcs\alcs_api.c ****     }
 225:C:/Users/stapi/OneDrive/Desktop/GD32VW553/V1_MQTT_OK/GD32VW55X_Wifi_BLE_SDK/GD32VW55x_RELEASE_V1.0.2/MSDK/cloud/alicloud/src/protocol/alcs\alcs_api.c **** }
 298              		.loc 1 225 1
 299 0044 17030000 		tail	__riscv_restore_9
 299      67000300 
 300              		.cfi_remember_state
 301              		.cfi_restore 24
 302              		.cfi_restore 23
 303              		.cfi_restore 22
 304              		.cfi_restore 21
 305              		.cfi_restore 20
 306              		.cfi_restore 19
 307              		.cfi_restore 18
 308              		.cfi_restore 9
 309              		.cfi_restore 8
 310              		.cfi_restore 1
 311              		.cfi_def_cfa_offset 0
 312              	.L24:
 313              		.cfi_restore_state
 210:C:/Users/stapi/OneDrive/Desktop/GD32VW553/V1_MQTT_OK/GD32VW55X_Wifi_BLE_SDK/GD32VW55x_RELEASE_V1.0.2/MSDK/cloud/alicloud/src/protocol/alcs\alcs_api.c ****         switch (flag){
 314              		.loc 1 210 9 is_stmt 1
 210:C:/Users/stapi/OneDrive/Desktop/GD32VW553/V1_MQTT_OK/GD32VW55X_Wifi_BLE_SDK/GD32VW55x_RELEASE_V1.0.2/MSDK/cloud/alicloud/src/protocol/alcs\alcs_api.c ****         switch (flag){
 315              		.loc 1 210 16 is_stmt 0
 316 004c 97000000 		call	rand
 316      E7800000 
 317              	.LVL31:
 210:C:/Users/stapi/OneDrive/Desktop/GD32VW553/V1_MQTT_OK/GD32VW55X_Wifi_BLE_SDK/GD32VW55x_RELEASE_V1.0.2/MSDK/cloud/alicloud/src/protocol/alcs\alcs_api.c ****         switch (flag){
 318              		.loc 1 210 14
 319 0054 33654503 		rem	a0,a0,s4
 320              	.LVL32:
 211:C:/Users/stapi/OneDrive/Desktop/GD32VW553/V1_MQTT_OK/GD32VW55X_Wifi_BLE_SDK/GD32VW55x_RELEASE_V1.0.2/MSDK/cloud/alicloud/src/protocol/alcs\alcs_api.c ****             case 0:
 321              		.loc 1 211 9 is_stmt 1
 322 0058 63015503 		beq	a0,s5,.L20
 323 005c 63086503 		beq	a0,s6,.L21
 324 0060 29E1     		bne	a0,zero,.L22
 213:C:/Users/stapi/OneDrive/Desktop/GD32VW553/V1_MQTT_OK/GD32VW55X_Wifi_BLE_SDK/GD32VW55x_RELEASE_V1.0.2/MSDK/cloud/alicloud/src/protocol/alcs\alcs_api.c ****                 break;
 325              		.loc 1 213 17
 213:C:/Users/stapi/OneDrive/Desktop/GD32VW553/V1_MQTT_OK/GD32VW55X_Wifi_BLE_SDK/GD32VW55x_RELEASE_V1.0.2/MSDK/cloud/alicloud/src/protocol/alcs\alcs_api.c ****                 break;
 326              		.loc 1 213 35 is_stmt 0
 327 0062 97000000 		call	rand
 327      E7800000 
 328              	.LVL33:
 213:C:/Users/stapi/OneDrive/Desktop/GD32VW553/V1_MQTT_OK/GD32VW55X_Wifi_BLE_SDK/GD32VW55x_RELEASE_V1.0.2/MSDK/cloud/alicloud/src/protocol/alcs\alcs_api.c ****                 break;
 329              		.loc 1 213 42
 330 006a 33653503 		rem	a0,a0,s3
 213:C:/Users/stapi/OneDrive/Desktop/GD32VW553/V1_MQTT_OK/GD32VW55X_Wifi_BLE_SDK/GD32VW55x_RELEASE_V1.0.2/MSDK/cloud/alicloud/src/protocol/alcs\alcs_api.c ****                 break;
 331              		.loc 1 213 33
 332 006e 13051504 		addi	a0,a0,65
 333              	.L26:
 216:C:/Users/stapi/OneDrive/Desktop/GD32VW553/V1_MQTT_OK/GD32VW55X_Wifi_BLE_SDK/GD32VW55x_RELEASE_V1.0.2/MSDK/cloud/alicloud/src/protocol/alcs\alcs_api.c ****             case 2:
 334              		.loc 1 216 27
 335 0072 2300A400 		sb	a0,0(s0)
 216:C:/Users/stapi/OneDrive/Desktop/GD32VW553/V1_MQTT_OK/GD32VW55X_Wifi_BLE_SDK/GD32VW55x_RELEASE_V1.0.2/MSDK/cloud/alicloud/src/protocol/alcs\alcs_api.c ****             case 2:
 336              		.loc 1 216 63 is_stmt 1
 337              	.L23:
 209:C:/Users/stapi/OneDrive/Desktop/GD32VW553/V1_MQTT_OK/GD32VW55X_Wifi_BLE_SDK/GD32VW55x_RELEASE_V1.0.2/MSDK/cloud/alicloud/src/protocol/alcs\alcs_api.c ****         flag = rand() % 3;
 338              		.loc 1 209 25 discriminator 2
 339              	.LVL34:
 340 0076 0504     		addi	s0,s0,1
 341              	.LVL35:
 342 0078 D1B7     		j	.L19
 343              	.LVL36:
 344              	.L20:
 216:C:/Users/stapi/OneDrive/Desktop/GD32VW553/V1_MQTT_OK/GD32VW55X_Wifi_BLE_SDK/GD32VW55x_RELEASE_V1.0.2/MSDK/cloud/alicloud/src/protocol/alcs\alcs_api.c ****             case 2:
 345              		.loc 1 216 17
 216:C:/Users/stapi/OneDrive/Desktop/GD32VW553/V1_MQTT_OK/GD32VW55X_Wifi_BLE_SDK/GD32VW55x_RELEASE_V1.0.2/MSDK/cloud/alicloud/src/protocol/alcs\alcs_api.c ****             case 2:
 346              		.loc 1 216 35 is_stmt 0
 347 007a 97000000 		call	rand
 347      E7800000 
 348              	.LVL37:
 216:C:/Users/stapi/OneDrive/Desktop/GD32VW553/V1_MQTT_OK/GD32VW55X_Wifi_BLE_SDK/GD32VW55x_RELEASE_V1.0.2/MSDK/cloud/alicloud/src/protocol/alcs\alcs_api.c ****             case 2:
 349              		.loc 1 216 42
 350 0082 33653503 		rem	a0,a0,s3
 216:C:/Users/stapi/OneDrive/Desktop/GD32VW553/V1_MQTT_OK/GD32VW55X_Wifi_BLE_SDK/GD32VW55x_RELEASE_V1.0.2/MSDK/cloud/alicloud/src/protocol/alcs\alcs_api.c ****             case 2:
 351              		.loc 1 216 33
 352 0086 13051506 		addi	a0,a0,97
 353 008a E5B7     		j	.L26
 354              	.LVL38:
 355              	.L21:
 218:C:/Users/stapi/OneDrive/Desktop/GD32VW553/V1_MQTT_OK/GD32VW55X_Wifi_BLE_SDK/GD32VW55x_RELEASE_V1.0.2/MSDK/cloud/alicloud/src/protocol/alcs\alcs_api.c ****                 break;
 356              		.loc 1 218 17 is_stmt 1
 218:C:/Users/stapi/OneDrive/Desktop/GD32VW553/V1_MQTT_OK/GD32VW55X_Wifi_BLE_SDK/GD32VW55x_RELEASE_V1.0.2/MSDK/cloud/alicloud/src/protocol/alcs\alcs_api.c ****                 break;
 357              		.loc 1 218 35 is_stmt 0
 358 008c 97000000 		call	rand
 358      E7800000 
 359              	.LVL39:
 218:C:/Users/stapi/OneDrive/Desktop/GD32VW553/V1_MQTT_OK/GD32VW55X_Wifi_BLE_SDK/GD32VW55x_RELEASE_V1.0.2/MSDK/cloud/alicloud/src/protocol/alcs\alcs_api.c ****                 break;
 360              		.loc 1 218 42
 361 0094 B3677503 		rem	a5,a0,s7
 218:C:/Users/stapi/OneDrive/Desktop/GD32VW553/V1_MQTT_OK/GD32VW55X_Wifi_BLE_SDK/GD32VW55x_RELEASE_V1.0.2/MSDK/cloud/alicloud/src/protocol/alcs\alcs_api.c ****                 break;
 362              		.loc 1 218 33
 363 0098 93870703 		addi	a5,a5,48
 218:C:/Users/stapi/OneDrive/Desktop/GD32VW553/V1_MQTT_OK/GD32VW55X_Wifi_BLE_SDK/GD32VW55x_RELEASE_V1.0.2/MSDK/cloud/alicloud/src/protocol/alcs\alcs_api.c ****                 break;
 364              		.loc 1 218 27
 365 009c 2300F400 		sb	a5,0(s0)
 219:C:/Users/stapi/OneDrive/Desktop/GD32VW553/V1_MQTT_OK/GD32VW55X_Wifi_BLE_SDK/GD32VW55x_RELEASE_V1.0.2/MSDK/cloud/alicloud/src/protocol/alcs\alcs_api.c ****             default:
 366              		.loc 1 219 17 is_stmt 1
 367 00a0 D9BF     		j	.L23
 368              	.LVL40:
 369              	.L22:
 221:C:/Users/stapi/OneDrive/Desktop/GD32VW553/V1_MQTT_OK/GD32VW55X_Wifi_BLE_SDK/GD32VW55x_RELEASE_V1.0.2/MSDK/cloud/alicloud/src/protocol/alcs\alcs_api.c ****                 break;
 370              		.loc 1 221 17
 221:C:/Users/stapi/OneDrive/Desktop/GD32VW553/V1_MQTT_OK/GD32VW55X_Wifi_BLE_SDK/GD32VW55x_RELEASE_V1.0.2/MSDK/cloud/alicloud/src/protocol/alcs\alcs_api.c ****                 break;
 371              		.loc 1 221 27 is_stmt 0
 372 00a2 23008401 		sb	s8,0(s0)
 222:C:/Users/stapi/OneDrive/Desktop/GD32VW553/V1_MQTT_OK/GD32VW55X_Wifi_BLE_SDK/GD32VW55x_RELEASE_V1.0.2/MSDK/cloud/alicloud/src/protocol/alcs\alcs_api.c ****         }
 373              		.loc 1 222 17 is_stmt 1
 374 00a6 C1BF     		j	.L23
 375              		.cfi_endproc
 376              	.LFE31:
 378              		.section	.rodata.alcs_auth_init.str1.4,"aMS",@progbits,1
 379              		.align	2
 380              	.LC3:
 381 0000 2F646576 		.string	"/dev/%s/%s/core/service/auth"
 381      2F25732F 
 381      25732F63 
 381      6F72652F 
 381      73657276 
 382 001d 000000   		.align	2
 383              	.LC4:
 384 0020 2F646576 		.string	"/dev/core/service/heartBeat"
 384      2F636F72 
 384      652F7365 
 384      72766963 
 384      652F6865 
 385              		.section	.text.alcs_auth_init,"ax",@progbits
 386              		.align	1
 387              		.globl	alcs_auth_init
 389              	alcs_auth_init:
 390              	.LFB32:
 226:C:/Users/stapi/OneDrive/Desktop/GD32VW553/V1_MQTT_OK/GD32VW55X_Wifi_BLE_SDK/GD32VW55x_RELEASE_V1.0.2/MSDK/cloud/alicloud/src/protocol/alcs\alcs_api.c **** 
 227:C:/Users/stapi/OneDrive/Desktop/GD32VW553/V1_MQTT_OK/GD32VW55X_Wifi_BLE_SDK/GD32VW55x_RELEASE_V1.0.2/MSDK/cloud/alicloud/src/protocol/alcs\alcs_api.c **** #ifdef ALCS_SERVER_ENABLED
 228:C:/Users/stapi/OneDrive/Desktop/GD32VW553/V1_MQTT_OK/GD32VW55X_Wifi_BLE_SDK/GD32VW55x_RELEASE_V1.0.2/MSDK/cloud/alicloud/src/protocol/alcs\alcs_api.c **** extern void alcs_rec_auth (CoAPContext *context, const char *paths, NetworkAddr *remote, CoAPMessag
 229:C:/Users/stapi/OneDrive/Desktop/GD32VW553/V1_MQTT_OK/GD32VW55X_Wifi_BLE_SDK/GD32VW55x_RELEASE_V1.0.2/MSDK/cloud/alicloud/src/protocol/alcs\alcs_api.c **** extern void alcs_rec_heart_beat(CoAPContext *context, const char *paths, NetworkAddr *remote, CoAPM
 230:C:/Users/stapi/OneDrive/Desktop/GD32VW553/V1_MQTT_OK/GD32VW55X_Wifi_BLE_SDK/GD32VW55x_RELEASE_V1.0.2/MSDK/cloud/alicloud/src/protocol/alcs\alcs_api.c **** #endif
 231:C:/Users/stapi/OneDrive/Desktop/GD32VW553/V1_MQTT_OK/GD32VW55X_Wifi_BLE_SDK/GD32VW55x_RELEASE_V1.0.2/MSDK/cloud/alicloud/src/protocol/alcs\alcs_api.c **** 
 232:C:/Users/stapi/OneDrive/Desktop/GD32VW553/V1_MQTT_OK/GD32VW55X_Wifi_BLE_SDK/GD32VW55x_RELEASE_V1.0.2/MSDK/cloud/alicloud/src/protocol/alcs\alcs_api.c **** int alcs_auth_init(CoAPContext *ctx, const char* productKey, const char* deviceName, char role)
 233:C:/Users/stapi/OneDrive/Desktop/GD32VW553/V1_MQTT_OK/GD32VW55X_Wifi_BLE_SDK/GD32VW55x_RELEASE_V1.0.2/MSDK/cloud/alicloud/src/protocol/alcs\alcs_api.c **** {
 391              		.loc 1 233 1
 392              		.cfi_startproc
 393              	.LVL41:
 234:C:/Users/stapi/OneDrive/Desktop/GD32VW553/V1_MQTT_OK/GD32VW55X_Wifi_BLE_SDK/GD32VW55x_RELEASE_V1.0.2/MSDK/cloud/alicloud/src/protocol/alcs\alcs_api.c ****     if (is_inited) {
 394              		.loc 1 234 5
 395              		.loc 1 234 9 is_stmt 0
 396 0000 B7070000 		lui	a5,%hi(.LANCHOR1)
 397 0004 93870700 		addi	a5,a5,%lo(.LANCHOR1)
 398              		.loc 1 234 8
 399 0008 03870700 		lb	a4,0(a5)
 400 000c 63170710 		bne	a4,zero,.L34
 233:C:/Users/stapi/OneDrive/Desktop/GD32VW553/V1_MQTT_OK/GD32VW55X_Wifi_BLE_SDK/GD32VW55x_RELEASE_V1.0.2/MSDK/cloud/alicloud/src/protocol/alcs\alcs_api.c ****     if (is_inited) {
 401              		.loc 1 233 1
 402 0010 17030000 		call	t0,__riscv_save_7
 402      E7020300 
 403              		.cfi_offset 22, -32
 404              		.cfi_offset 21, -28
 405              		.cfi_offset 20, -24
 406              		.cfi_offset 19, -20
 407              		.cfi_offset 18, -16
 408              		.cfi_offset 9, -12
 409              		.cfi_offset 8, -8
 410              		.cfi_offset 1, -4
 411              		.cfi_def_cfa_offset 32
 412 0018 6D71     		addi	sp,sp,-272
 413              		.cfi_def_cfa_offset 304
 235:C:/Users/stapi/OneDrive/Desktop/GD32VW553/V1_MQTT_OK/GD32VW55X_Wifi_BLE_SDK/GD32VW55x_RELEASE_V1.0.2/MSDK/cloud/alicloud/src/protocol/alcs\alcs_api.c ****         return 0;
 236:C:/Users/stapi/OneDrive/Desktop/GD32VW553/V1_MQTT_OK/GD32VW55X_Wifi_BLE_SDK/GD32VW55x_RELEASE_V1.0.2/MSDK/cloud/alicloud/src/protocol/alcs\alcs_api.c ****     }
 237:C:/Users/stapi/OneDrive/Desktop/GD32VW553/V1_MQTT_OK/GD32VW55X_Wifi_BLE_SDK/GD32VW55x_RELEASE_V1.0.2/MSDK/cloud/alicloud/src/protocol/alcs\alcs_api.c ****     is_inited = 1;
 414              		.loc 1 237 15
 415 001a 054B     		li	s6,1
 416 001c 3689     		mv	s2,a3
 417              		.loc 1 237 5 is_stmt 1
 418 001e AA89     		mv	s3,a0
 419 0020 2E8A     		mv	s4,a1
 420 0022 B28A     		mv	s5,a2
 421              		.loc 1 237 15 is_stmt 0
 422 0024 23806701 		sb	s6,0(a5)
 238:C:/Users/stapi/OneDrive/Desktop/GD32VW553/V1_MQTT_OK/GD32VW55X_Wifi_BLE_SDK/GD32VW55x_RELEASE_V1.0.2/MSDK/cloud/alicloud/src/protocol/alcs\alcs_api.c ****     sessionid_seed = rand() % 100000;
 423              		.loc 1 238 5 is_stmt 1
 424              		.loc 1 238 22 is_stmt 0
 425 0028 97000000 		call	rand
 425      E7800000 
 426              	.LVL42:
 427              		.loc 1 238 29
 428 0030 E167     		li	a5,98304
 429 0032 9387076A 		addi	a5,a5,1696
 430 0036 3365F502 		rem	a0,a0,a5
 239:C:/Users/stapi/OneDrive/Desktop/GD32VW553/V1_MQTT_OK/GD32VW55X_Wifi_BLE_SDK/GD32VW55x_RELEASE_V1.0.2/MSDK/cloud/alicloud/src/protocol/alcs\alcs_api.c **** 
 240:C:/Users/stapi/OneDrive/Desktop/GD32VW553/V1_MQTT_OK/GD32VW55X_Wifi_BLE_SDK/GD32VW55x_RELEASE_V1.0.2/MSDK/cloud/alicloud/src/protocol/alcs\alcs_api.c ****     device_auth_list* dev = &_device;
 241:C:/Users/stapi/OneDrive/Desktop/GD32VW553/V1_MQTT_OK/GD32VW55X_Wifi_BLE_SDK/GD32VW55x_RELEASE_V1.0.2/MSDK/cloud/alicloud/src/protocol/alcs\alcs_api.c ****     memset (dev, 0, sizeof(device_auth_list));
 431              		.loc 1 241 5
 432 003a 37040000 		lui	s0,%hi(.LANCHOR0)
 433 003e 93040400 		addi	s1,s0,%lo(.LANCHOR0)
 238:C:/Users/stapi/OneDrive/Desktop/GD32VW553/V1_MQTT_OK/GD32VW55X_Wifi_BLE_SDK/GD32VW55x_RELEASE_V1.0.2/MSDK/cloud/alicloud/src/protocol/alcs\alcs_api.c ****     sessionid_seed = rand() % 100000;
 434              		.loc 1 238 20
 435 0042 B7070000 		lui	a5,%hi(.LANCHOR2)
 436              		.loc 1 241 5
 437 0046 13068002 		li	a2,40
 438 004a 8145     		li	a1,0
 439 004c 13040400 		addi	s0,s0,%lo(.LANCHOR0)
 238:C:/Users/stapi/OneDrive/Desktop/GD32VW553/V1_MQTT_OK/GD32VW55X_Wifi_BLE_SDK/GD32VW55x_RELEASE_V1.0.2/MSDK/cloud/alicloud/src/protocol/alcs\alcs_api.c ****     sessionid_seed = rand() % 100000;
 440              		.loc 1 238 20
 441 0050 23A0A700 		sw	a0,%lo(.LANCHOR2)(a5)
 240:C:/Users/stapi/OneDrive/Desktop/GD32VW553/V1_MQTT_OK/GD32VW55X_Wifi_BLE_SDK/GD32VW55x_RELEASE_V1.0.2/MSDK/cloud/alicloud/src/protocol/alcs\alcs_api.c ****     memset (dev, 0, sizeof(device_auth_list));
 442              		.loc 1 240 5 is_stmt 1
 443              	.LVL43:
 444              		.loc 1 241 5
 445 0054 13858400 		addi	a0,s1,8
 446 0058 97000000 		call	memset
 446      E7800000 
 447              	.LVL44:
 242:C:/Users/stapi/OneDrive/Desktop/GD32VW553/V1_MQTT_OK/GD32VW55X_Wifi_BLE_SDK/GD32VW55x_RELEASE_V1.0.2/MSDK/cloud/alicloud/src/protocol/alcs\alcs_api.c ****     dev->context = ctx;
 448              		.loc 1 242 5
 449              	.LBB47:
 450              	.LBB48:
  73:..\..\..\..\cloud\alicloud\src\infra\utils\misc/lite-list.h **** }
  74:..\..\..\..\cloud\alicloud\src\infra\utils\misc/lite-list.h **** 
  75:..\..\..\..\cloud\alicloud\src\infra\utils\misc/lite-list.h **** static inline void dlist_init(dlist_t *node)
  76:..\..\..\..\cloud\alicloud\src\infra\utils\misc/lite-list.h **** {
  77:..\..\..\..\cloud\alicloud\src\infra\utils\misc/lite-list.h ****     node->next = node->prev = node;
  78:..\..\..\..\cloud\alicloud\src\infra\utils\misc/lite-list.h **** }
  79:..\..\..\..\cloud\alicloud\src\infra\utils\misc/lite-list.h **** 
  80:..\..\..\..\cloud\alicloud\src\infra\utils\misc/lite-list.h **** static inline void INIT_AOS_DLIST_HEAD(dlist_t *list)
  81:..\..\..\..\cloud\alicloud\src\infra\utils\misc/lite-list.h **** {
  82:..\..\..\..\cloud\alicloud\src\infra\utils\misc/lite-list.h ****     list->next = list;
 451              		.loc 2 82 16 is_stmt 0
 452 0060 B7070000 		lui	a5,%hi(.LANCHOR3)
 453 0064 93870700 		addi	a5,a5,%lo(.LANCHOR3)
 454 0068 DCC3     		sw	a5,4(a5)
  83:..\..\..\..\cloud\alicloud\src\infra\utils\misc/lite-list.h ****     list->prev = list;
 455              		.loc 2 83 16
 456 006a 9CC3     		sw	a5,0(a5)
 457              	.LBE48:
 458              	.LBE47:
 459              	.LBB50:
 460              	.LBB51:
  82:..\..\..\..\cloud\alicloud\src\infra\utils\misc/lite-list.h ****     list->prev = list;
 461              		.loc 2 82 16
 462 006c 93874402 		addi	a5,s1,36
 463              	.LBE51:
 464              	.LBE50:
 243:C:/Users/stapi/OneDrive/Desktop/GD32VW553/V1_MQTT_OK/GD32VW55X_Wifi_BLE_SDK/GD32VW55x_RELEASE_V1.0.2/MSDK/cloud/alicloud/src/protocol/alcs\alcs_api.c ****     dev->seq = 1;
 244:C:/Users/stapi/OneDrive/Desktop/GD32VW553/V1_MQTT_OK/GD32VW55X_Wifi_BLE_SDK/GD32VW55x_RELEASE_V1.0.2/MSDK/cloud/alicloud/src/protocol/alcs\alcs_api.c ****     dev->role = role;
 465              		.loc 1 244 15
 466 0070 23862403 		sb	s2,44(s1)
 242:C:/Users/stapi/OneDrive/Desktop/GD32VW553/V1_MQTT_OK/GD32VW55X_Wifi_BLE_SDK/GD32VW55x_RELEASE_V1.0.2/MSDK/cloud/alicloud/src/protocol/alcs\alcs_api.c ****     dev->seq = 1;
 467              		.loc 1 242 18
 468 0074 23A03401 		sw	s3,0(s1)
 243:C:/Users/stapi/OneDrive/Desktop/GD32VW553/V1_MQTT_OK/GD32VW55X_Wifi_BLE_SDK/GD32VW55x_RELEASE_V1.0.2/MSDK/cloud/alicloud/src/protocol/alcs\alcs_api.c ****     dev->seq = 1;
 469              		.loc 1 243 5 is_stmt 1
 243:C:/Users/stapi/OneDrive/Desktop/GD32VW553/V1_MQTT_OK/GD32VW55X_Wifi_BLE_SDK/GD32VW55x_RELEASE_V1.0.2/MSDK/cloud/alicloud/src/protocol/alcs\alcs_api.c ****     dev->seq = 1;
 470              		.loc 1 243 14 is_stmt 0
 471 0078 23A26401 		sw	s6,4(s1)
 472              		.loc 1 244 5 is_stmt 1
 245:C:/Users/stapi/OneDrive/Desktop/GD32VW553/V1_MQTT_OK/GD32VW55X_Wifi_BLE_SDK/GD32VW55x_RELEASE_V1.0.2/MSDK/cloud/alicloud/src/protocol/alcs\alcs_api.c **** 
 246:C:/Users/stapi/OneDrive/Desktop/GD32VW553/V1_MQTT_OK/GD32VW55X_Wifi_BLE_SDK/GD32VW55x_RELEASE_V1.0.2/MSDK/cloud/alicloud/src/protocol/alcs\alcs_api.c ****     INIT_LIST_HEAD(&secure_resource_cb_head);
 473              		.loc 1 246 5
 474              	.LVL45:
 475              	.LBB53:
 476              	.LBB49:
  82:..\..\..\..\cloud\alicloud\src\infra\utils\misc/lite-list.h ****     list->prev = list;
 477              		.loc 2 82 5
 478              		.loc 2 83 5
 479              	.LBE49:
 480              	.LBE53:
 247:C:/Users/stapi/OneDrive/Desktop/GD32VW553/V1_MQTT_OK/GD32VW55X_Wifi_BLE_SDK/GD32VW55x_RELEASE_V1.0.2/MSDK/cloud/alicloud/src/protocol/alcs\alcs_api.c ****     INIT_LIST_HEAD(&dev->lst_requests);
 481              		.loc 1 247 5
 482              	.LBB54:
 483              	.LBB52:
  82:..\..\..\..\cloud\alicloud\src\infra\utils\misc/lite-list.h ****     list->prev = list;
 484              		.loc 2 82 5
  82:..\..\..\..\cloud\alicloud\src\infra\utils\misc/lite-list.h ****     list->prev = list;
 485              		.loc 2 82 16 is_stmt 0
 486 007c 9CD4     		sw	a5,40(s1)
 487              		.loc 2 83 5 is_stmt 1
 488              		.loc 2 83 16 is_stmt 0
 489 007e DCD0     		sw	a5,36(s1)
 490              	.LVL46:
 491              	.LBE52:
 492              	.LBE54:
 248:C:/Users/stapi/OneDrive/Desktop/GD32VW553/V1_MQTT_OK/GD32VW55X_Wifi_BLE_SDK/GD32VW55x_RELEASE_V1.0.2/MSDK/cloud/alicloud/src/protocol/alcs\alcs_api.c **** 
 249:C:/Users/stapi/OneDrive/Desktop/GD32VW553/V1_MQTT_OK/GD32VW55X_Wifi_BLE_SDK/GD32VW55x_RELEASE_V1.0.2/MSDK/cloud/alicloud/src/protocol/alcs\alcs_api.c ****     if (role & ROLE_SERVER) {
 493              		.loc 1 249 5 is_stmt 1
 494              		.loc 1 249 8 is_stmt 0
 495 0080 13792900 		andi	s2,s2,2
 496 0084 63000908 		beq	s2,zero,.L29
 497              	.LBB55:
 250:C:/Users/stapi/OneDrive/Desktop/GD32VW553/V1_MQTT_OK/GD32VW55X_Wifi_BLE_SDK/GD32VW55x_RELEASE_V1.0.2/MSDK/cloud/alicloud/src/protocol/alcs\alcs_api.c **** #ifdef ALCS_SERVER_ENABLED
 251:C:/Users/stapi/OneDrive/Desktop/GD32VW553/V1_MQTT_OK/GD32VW55X_Wifi_BLE_SDK/GD32VW55x_RELEASE_V1.0.2/MSDK/cloud/alicloud/src/protocol/alcs\alcs_api.c ****         INIT_LIST_HEAD(&dev->lst_svr_sessions);
 498              		.loc 1 251 9 is_stmt 1
 499              	.LVL47:
 500              	.LBB56:
 501              	.LBB57:
  82:..\..\..\..\cloud\alicloud\src\infra\utils\misc/lite-list.h ****     list->prev = list;
 502              		.loc 2 82 5
  82:..\..\..\..\cloud\alicloud\src\infra\utils\misc/lite-list.h ****     list->prev = list;
 503              		.loc 2 82 16 is_stmt 0
 504 0088 9307C401 		addi	a5,s0,28
 505              	.LBE57:
 506              	.LBE56:
 252:C:/Users/stapi/OneDrive/Desktop/GD32VW553/V1_MQTT_OK/GD32VW55X_Wifi_BLE_SDK/GD32VW55x_RELEASE_V1.0.2/MSDK/cloud/alicloud/src/protocol/alcs\alcs_api.c ****         INIT_LIST_HEAD(&dev->lst_svr);
 253:C:/Users/stapi/OneDrive/Desktop/GD32VW553/V1_MQTT_OK/GD32VW55X_Wifi_BLE_SDK/GD32VW55x_RELEASE_V1.0.2/MSDK/cloud/alicloud/src/protocol/alcs\alcs_api.c **** 
 254:C:/Users/stapi/OneDrive/Desktop/GD32VW553/V1_MQTT_OK/GD32VW55X_Wifi_BLE_SDK/GD32VW55x_RELEASE_V1.0.2/MSDK/cloud/alicloud/src/protocol/alcs\alcs_api.c ****         char path[256];
 255:C:/Users/stapi/OneDrive/Desktop/GD32VW553/V1_MQTT_OK/GD32VW55X_Wifi_BLE_SDK/GD32VW55x_RELEASE_V1.0.2/MSDK/cloud/alicloud/src/protocol/alcs\alcs_api.c ****         snprintf(path, sizeof(path), "/dev/%s/%s/core/service/auth", productKey, deviceName);
 507              		.loc 1 255 9
 508 008c 37060000 		lui	a2,%hi(.LC3)
 509              	.LBB59:
 510              	.LBB58:
  82:..\..\..\..\cloud\alicloud\src\infra\utils\misc/lite-list.h ****     list->prev = list;
 511              		.loc 2 82 16
 512 0090 1CD0     		sw	a5,32(s0)
 513              		.loc 2 83 5 is_stmt 1
 514              		.loc 2 83 16 is_stmt 0
 515 0092 5CCC     		sw	a5,28(s0)
 516              	.LVL48:
 517              	.LBE58:
 518              	.LBE59:
 252:C:/Users/stapi/OneDrive/Desktop/GD32VW553/V1_MQTT_OK/GD32VW55X_Wifi_BLE_SDK/GD32VW55x_RELEASE_V1.0.2/MSDK/cloud/alicloud/src/protocol/alcs\alcs_api.c ****         INIT_LIST_HEAD(&dev->lst_svr);
 519              		.loc 1 252 9 is_stmt 1
 520              	.LBB60:
 521              	.LBB61:
  82:..\..\..\..\cloud\alicloud\src\infra\utils\misc/lite-list.h ****     list->prev = list;
 522              		.loc 2 82 5
 523              	.LBE61:
 524              	.LBE60:
 525              		.loc 1 255 9 is_stmt 0
 526 0094 5687     		mv	a4,s5
 527              	.LBB64:
 528              	.LBB62:
  82:..\..\..\..\cloud\alicloud\src\infra\utils\misc/lite-list.h ****     list->prev = list;
 529              		.loc 2 82 16
 530 0096 9307C400 		addi	a5,s0,12
 531              	.LBE62:
 532              	.LBE64:
 533              		.loc 1 255 9
 534 009a D286     		mv	a3,s4
 535 009c 13060600 		addi	a2,a2,%lo(.LC3)
 536 00a0 93050010 		li	a1,256
 537 00a4 0808     		addi	a0,sp,16
 538              	.LBB65:
 539              	.LBB63:
  82:..\..\..\..\cloud\alicloud\src\infra\utils\misc/lite-list.h ****     list->prev = list;
 540              		.loc 2 82 16
 541 00a6 1CC8     		sw	a5,16(s0)
 542              		.loc 2 83 5 is_stmt 1
 543              		.loc 2 83 16 is_stmt 0
 544 00a8 5CC4     		sw	a5,12(s0)
 545              	.LVL49:
 546              	.LBE63:
 547              	.LBE65:
 254:C:/Users/stapi/OneDrive/Desktop/GD32VW553/V1_MQTT_OK/GD32VW55X_Wifi_BLE_SDK/GD32VW55x_RELEASE_V1.0.2/MSDK/cloud/alicloud/src/protocol/alcs\alcs_api.c ****         snprintf(path, sizeof(path), "/dev/%s/%s/core/service/auth", productKey, deviceName);
 548              		.loc 1 254 9 is_stmt 1
 549              		.loc 1 255 9
 550 00aa 97000000 		call	snprintf
 550      E7800000 
 551              	.LVL50:
 256:C:/Users/stapi/OneDrive/Desktop/GD32VW553/V1_MQTT_OK/GD32VW55X_Wifi_BLE_SDK/GD32VW55x_RELEASE_V1.0.2/MSDK/cloud/alicloud/src/protocol/alcs\alcs_api.c ****         alcs_resource_register (ctx, productKey, deviceName, path, COAP_PERM_GET, COAP_CT_APP_JSON,
 552              		.loc 1 256 9
 553 00b2 B7070000 		lui	a5,%hi(alcs_rec_auth)
 554 00b6 93870700 		addi	a5,a5,%lo(alcs_rec_auth)
 555 00ba 3EC0     		sw	a5,0(sp)
 556 00bc 8148     		li	a7,0
 557 00be 1308C003 		li	a6,60
 558 00c2 93072003 		li	a5,50
 559 00c6 0547     		li	a4,1
 560 00c8 1408     		addi	a3,sp,16
 561 00ca 5686     		mv	a2,s5
 562 00cc D285     		mv	a1,s4
 563 00ce 4E85     		mv	a0,s3
 564 00d0 97000000 		call	alcs_resource_register
 564      E7800000 
 565              	.LVL51:
 257:C:/Users/stapi/OneDrive/Desktop/GD32VW553/V1_MQTT_OK/GD32VW55X_Wifi_BLE_SDK/GD32VW55x_RELEASE_V1.0.2/MSDK/cloud/alicloud/src/protocol/alcs\alcs_api.c ****         alcs_resource_register (ctx, productKey, deviceName, "/dev/core/service/heartBeat", COAP_PE
 566              		.loc 1 257 9
 567 00d8 B7070000 		lui	a5,%hi(alcs_rec_heart_beat)
 568 00dc 93870700 		addi	a5,a5,%lo(alcs_rec_heart_beat)
 569 00e0 B7060000 		lui	a3,%hi(.LC4)
 570 00e4 3EC0     		sw	a5,0(sp)
 571 00e6 8148     		li	a7,0
 572 00e8 1308C003 		li	a6,60
 573 00ec 93072003 		li	a5,50
 574 00f0 0547     		li	a4,1
 575 00f2 93860600 		addi	a3,a3,%lo(.LC4)
 576 00f6 5686     		mv	a2,s5
 577 00f8 D285     		mv	a1,s4
 578 00fa 4E85     		mv	a0,s3
 579 00fc 97000000 		call	alcs_resource_register
 579      E7800000 
 580              	.LVL52:
 581              	.L29:
 582              	.LBE55:
 258:C:/Users/stapi/OneDrive/Desktop/GD32VW553/V1_MQTT_OK/GD32VW55X_Wifi_BLE_SDK/GD32VW55x_RELEASE_V1.0.2/MSDK/cloud/alicloud/src/protocol/alcs\alcs_api.c **** #endif
 259:C:/Users/stapi/OneDrive/Desktop/GD32VW553/V1_MQTT_OK/GD32VW55X_Wifi_BLE_SDK/GD32VW55x_RELEASE_V1.0.2/MSDK/cloud/alicloud/src/protocol/alcs\alcs_api.c ****     }
 260:C:/Users/stapi/OneDrive/Desktop/GD32VW553/V1_MQTT_OK/GD32VW55X_Wifi_BLE_SDK/GD32VW55x_RELEASE_V1.0.2/MSDK/cloud/alicloud/src/protocol/alcs\alcs_api.c **** 
 261:C:/Users/stapi/OneDrive/Desktop/GD32VW553/V1_MQTT_OK/GD32VW55X_Wifi_BLE_SDK/GD32VW55x_RELEASE_V1.0.2/MSDK/cloud/alicloud/src/protocol/alcs\alcs_api.c ****     if (role & ROLE_CLIENT) {
 583              		.loc 1 261 5
 262:C:/Users/stapi/OneDrive/Desktop/GD32VW553/V1_MQTT_OK/GD32VW55X_Wifi_BLE_SDK/GD32VW55x_RELEASE_V1.0.2/MSDK/cloud/alicloud/src/protocol/alcs\alcs_api.c **** #ifdef ALCS_CLIENT_ENABLED
 263:C:/Users/stapi/OneDrive/Desktop/GD32VW553/V1_MQTT_OK/GD32VW55X_Wifi_BLE_SDK/GD32VW55x_RELEASE_V1.0.2/MSDK/cloud/alicloud/src/protocol/alcs\alcs_api.c ****         INIT_LIST_HEAD(&dev->lst_ctl_sessions);
 264:C:/Users/stapi/OneDrive/Desktop/GD32VW553/V1_MQTT_OK/GD32VW55X_Wifi_BLE_SDK/GD32VW55x_RELEASE_V1.0.2/MSDK/cloud/alicloud/src/protocol/alcs\alcs_api.c ****         INIT_LIST_HEAD(&dev->lst_ctl);
 265:C:/Users/stapi/OneDrive/Desktop/GD32VW553/V1_MQTT_OK/GD32VW55X_Wifi_BLE_SDK/GD32VW55x_RELEASE_V1.0.2/MSDK/cloud/alicloud/src/protocol/alcs\alcs_api.c **** #endif
 266:C:/Users/stapi/OneDrive/Desktop/GD32VW553/V1_MQTT_OK/GD32VW55X_Wifi_BLE_SDK/GD32VW55x_RELEASE_V1.0.2/MSDK/cloud/alicloud/src/protocol/alcs\alcs_api.c ****     }
 584              		.loc 1 266 5
 267:C:/Users/stapi/OneDrive/Desktop/GD32VW553/V1_MQTT_OK/GD32VW55X_Wifi_BLE_SDK/GD32VW55x_RELEASE_V1.0.2/MSDK/cloud/alicloud/src/protocol/alcs\alcs_api.c **** 
 268:C:/Users/stapi/OneDrive/Desktop/GD32VW553/V1_MQTT_OK/GD32VW55X_Wifi_BLE_SDK/GD32VW55x_RELEASE_V1.0.2/MSDK/cloud/alicloud/src/protocol/alcs\alcs_api.c **** #ifdef ALCS_GROUP_COMM_ENABLE
 269:C:/Users/stapi/OneDrive/Desktop/GD32VW553/V1_MQTT_OK/GD32VW55X_Wifi_BLE_SDK/GD32VW55x_RELEASE_V1.0.2/MSDK/cloud/alicloud/src/protocol/alcs\alcs_api.c ****     INIT_LIST_HEAD(&dev->lst_svr_group);
 270:C:/Users/stapi/OneDrive/Desktop/GD32VW553/V1_MQTT_OK/GD32VW55X_Wifi_BLE_SDK/GD32VW55x_RELEASE_V1.0.2/MSDK/cloud/alicloud/src/protocol/alcs\alcs_api.c **** #endif
 271:C:/Users/stapi/OneDrive/Desktop/GD32VW553/V1_MQTT_OK/GD32VW55X_Wifi_BLE_SDK/GD32VW55x_RELEASE_V1.0.2/MSDK/cloud/alicloud/src/protocol/alcs\alcs_api.c ****     dev->list_mutex = HAL_MutexCreate();
 585              		.loc 1 271 5
 586              		.loc 1 271 23 is_stmt 0
 587 0104 97000000 		call	HAL_MutexCreate
 587      E7800000 
 588              	.LVL53:
 589              		.loc 1 271 21
 590 010c 08C4     		sw	a0,8(s0)
 272:C:/Users/stapi/OneDrive/Desktop/GD32VW553/V1_MQTT_OK/GD32VW55X_Wifi_BLE_SDK/GD32VW55x_RELEASE_V1.0.2/MSDK/cloud/alicloud/src/protocol/alcs\alcs_api.c **** 
 273:C:/Users/stapi/OneDrive/Desktop/GD32VW553/V1_MQTT_OK/GD32VW55X_Wifi_BLE_SDK/GD32VW55x_RELEASE_V1.0.2/MSDK/cloud/alicloud/src/protocol/alcs\alcs_api.c ****     return COAP_SUCCESS;
 591              		.loc 1 273 5 is_stmt 1
 274:C:/Users/stapi/OneDrive/Desktop/GD32VW553/V1_MQTT_OK/GD32VW55X_Wifi_BLE_SDK/GD32VW55x_RELEASE_V1.0.2/MSDK/cloud/alicloud/src/protocol/alcs\alcs_api.c **** }
 592              		.loc 1 274 1 is_stmt 0
 593 010e 0145     		li	a0,0
 594 0110 5161     		addi	sp,sp,272
 595              		.cfi_def_cfa_offset 0
 596 0112 17030000 		tail	__riscv_restore_7
 596      67000300 
 597              		.cfi_restore 22
 598              		.cfi_restore 21
 599              		.cfi_restore 20
 600              		.cfi_restore 19
 601              		.cfi_restore 18
 602              		.cfi_restore 9
 603              		.cfi_restore 8
 604              		.cfi_restore 1
 605              		.cfi_def_cfa_offset -32
 606              	.LVL54:
 607              	.L34:
 608              		.cfi_def_cfa_offset 0
 609 011a 0145     		li	a0,0
 610              	.LVL55:
 611 011c 8280     		ret
 612              		.cfi_endproc
 613              	.LFE32:
 615              		.section	.text.alcs_auth_subdev_init,"ax",@progbits
 616              		.align	1
 617              		.globl	alcs_auth_subdev_init
 619              	alcs_auth_subdev_init:
 620              	.LFB33:
 275:C:/Users/stapi/OneDrive/Desktop/GD32VW553/V1_MQTT_OK/GD32VW55X_Wifi_BLE_SDK/GD32VW55x_RELEASE_V1.0.2/MSDK/cloud/alicloud/src/protocol/alcs\alcs_api.c **** 
 276:C:/Users/stapi/OneDrive/Desktop/GD32VW553/V1_MQTT_OK/GD32VW55X_Wifi_BLE_SDK/GD32VW55x_RELEASE_V1.0.2/MSDK/cloud/alicloud/src/protocol/alcs\alcs_api.c **** void alcs_auth_subdev_init(CoAPContext *ctx, const char* productKey, const char* deviceName)
 277:C:/Users/stapi/OneDrive/Desktop/GD32VW553/V1_MQTT_OK/GD32VW55X_Wifi_BLE_SDK/GD32VW55x_RELEASE_V1.0.2/MSDK/cloud/alicloud/src/protocol/alcs\alcs_api.c **** {
 621              		.loc 1 277 1 is_stmt 1
 622              		.cfi_startproc
 623              	.LVL56:
 624 0000 17030000 		call	t0,__riscv_save_3
 624      E7020300 
 625              		.cfi_offset 18, -16
 626              		.cfi_offset 9, -12
 627              		.cfi_offset 8, -8
 628              		.cfi_offset 1, -4
 629              		.cfi_def_cfa_offset 16
 278:C:/Users/stapi/OneDrive/Desktop/GD32VW553/V1_MQTT_OK/GD32VW55X_Wifi_BLE_SDK/GD32VW55x_RELEASE_V1.0.2/MSDK/cloud/alicloud/src/protocol/alcs\alcs_api.c ****     char path[256];
 630              		.loc 1 278 5
 279:C:/Users/stapi/OneDrive/Desktop/GD32VW553/V1_MQTT_OK/GD32VW55X_Wifi_BLE_SDK/GD32VW55x_RELEASE_V1.0.2/MSDK/cloud/alicloud/src/protocol/alcs\alcs_api.c ****     snprintf(path, sizeof(path), "/dev/%s/%s/core/service/auth", productKey, deviceName);
 631              		.loc 1 279 5
 277:C:/Users/stapi/OneDrive/Desktop/GD32VW553/V1_MQTT_OK/GD32VW55X_Wifi_BLE_SDK/GD32VW55x_RELEASE_V1.0.2/MSDK/cloud/alicloud/src/protocol/alcs\alcs_api.c ****     char path[256];
 632              		.loc 1 277 1 is_stmt 0
 633 0008 6D71     		addi	sp,sp,-272
 634              		.cfi_def_cfa_offset 288
 277:C:/Users/stapi/OneDrive/Desktop/GD32VW553/V1_MQTT_OK/GD32VW55X_Wifi_BLE_SDK/GD32VW55x_RELEASE_V1.0.2/MSDK/cloud/alicloud/src/protocol/alcs\alcs_api.c ****     char path[256];
 635              		.loc 1 277 1
 636 000a B284     		mv	s1,a2
 637              		.loc 1 279 5
 638 000c 3287     		mv	a4,a2
 639 000e 37060000 		lui	a2,%hi(.LC3)
 640              	.LVL57:
 277:C:/Users/stapi/OneDrive/Desktop/GD32VW553/V1_MQTT_OK/GD32VW55X_Wifi_BLE_SDK/GD32VW55x_RELEASE_V1.0.2/MSDK/cloud/alicloud/src/protocol/alcs\alcs_api.c ****     char path[256];
 641              		.loc 1 277 1
 642 0012 2E84     		mv	s0,a1
 643 0014 2A89     		mv	s2,a0
 644              		.loc 1 279 5
 645 0016 AE86     		mv	a3,a1
 646 0018 13060600 		addi	a2,a2,%lo(.LC3)
 647 001c 93050010 		li	a1,256
 648              	.LVL58:
 649 0020 0808     		addi	a0,sp,16
 650              	.LVL59:
 651 0022 97000000 		call	snprintf
 651      E7800000 
 652              	.LVL60:
 280:C:/Users/stapi/OneDrive/Desktop/GD32VW553/V1_MQTT_OK/GD32VW55X_Wifi_BLE_SDK/GD32VW55x_RELEASE_V1.0.2/MSDK/cloud/alicloud/src/protocol/alcs\alcs_api.c ****     alcs_resource_register (ctx, productKey, deviceName, path, COAP_PERM_GET, COAP_CT_APP_JSON, 60,
 653              		.loc 1 280 5 is_stmt 1
 654 002a B7070000 		lui	a5,%hi(alcs_rec_auth)
 655 002e 93870700 		addi	a5,a5,%lo(alcs_rec_auth)
 656 0032 3EC0     		sw	a5,0(sp)
 657 0034 1408     		addi	a3,sp,16
 658 0036 8148     		li	a7,0
 659 0038 1308C003 		li	a6,60
 660 003c 93072003 		li	a5,50
 661 0040 0547     		li	a4,1
 662 0042 2686     		mv	a2,s1
 663 0044 A285     		mv	a1,s0
 664 0046 4A85     		mv	a0,s2
 665 0048 97000000 		call	alcs_resource_register
 665      E7800000 
 666              	.LVL61:
 281:C:/Users/stapi/OneDrive/Desktop/GD32VW553/V1_MQTT_OK/GD32VW55X_Wifi_BLE_SDK/GD32VW55x_RELEASE_V1.0.2/MSDK/cloud/alicloud/src/protocol/alcs\alcs_api.c **** }
 667              		.loc 1 281 1 is_stmt 0
 668 0050 5161     		addi	sp,sp,272
 669              		.cfi_def_cfa_offset 0
 670 0052 17030000 		tail	__riscv_restore_3
 670      67000300 
 671              		.cfi_restore 18
 672              		.cfi_restore 9
 673              		.cfi_restore 8
 674              		.cfi_restore 1
 675              		.cfi_def_cfa_offset -16
 676              		.cfi_endproc
 677              	.LFE33:
 679              		.section	.text.alcs_auth_deinit,"ax",@progbits
 680              		.align	1
 681              		.globl	alcs_auth_deinit
 683              	alcs_auth_deinit:
 684              	.LFB34:
 282:C:/Users/stapi/OneDrive/Desktop/GD32VW553/V1_MQTT_OK/GD32VW55X_Wifi_BLE_SDK/GD32VW55x_RELEASE_V1.0.2/MSDK/cloud/alicloud/src/protocol/alcs\alcs_api.c **** 
 283:C:/Users/stapi/OneDrive/Desktop/GD32VW553/V1_MQTT_OK/GD32VW55X_Wifi_BLE_SDK/GD32VW55x_RELEASE_V1.0.2/MSDK/cloud/alicloud/src/protocol/alcs\alcs_api.c **** void alcs_auth_deinit(void)
 284:C:/Users/stapi/OneDrive/Desktop/GD32VW553/V1_MQTT_OK/GD32VW55X_Wifi_BLE_SDK/GD32VW55x_RELEASE_V1.0.2/MSDK/cloud/alicloud/src/protocol/alcs\alcs_api.c **** {
 685              		.loc 1 284 1 is_stmt 1
 686              		.cfi_startproc
 285:C:/Users/stapi/OneDrive/Desktop/GD32VW553/V1_MQTT_OK/GD32VW55X_Wifi_BLE_SDK/GD32VW55x_RELEASE_V1.0.2/MSDK/cloud/alicloud/src/protocol/alcs\alcs_api.c ****     if (is_inited == 0) {
 687              		.loc 1 285 5
 688              		.loc 1 285 19 is_stmt 0
 689 0000 B7070000 		lui	a5,%hi(.LANCHOR1)
 690 0004 93870700 		addi	a5,a5,%lo(.LANCHOR1)
 691              		.loc 1 285 8
 692 0008 03870700 		lb	a4,0(a5)
 693 000c 1DCF     		beq	a4,zero,.L47
 284:C:/Users/stapi/OneDrive/Desktop/GD32VW553/V1_MQTT_OK/GD32VW55X_Wifi_BLE_SDK/GD32VW55x_RELEASE_V1.0.2/MSDK/cloud/alicloud/src/protocol/alcs\alcs_api.c ****     if (is_inited == 0) {
 694              		.loc 1 284 1
 695 000e 17030000 		call	t0,__riscv_save_1
 695      E7020300 
 696              		.cfi_offset 8, -8
 697              		.cfi_offset 1, -4
 698              		.cfi_def_cfa_offset 16
 286:C:/Users/stapi/OneDrive/Desktop/GD32VW553/V1_MQTT_OK/GD32VW55X_Wifi_BLE_SDK/GD32VW55x_RELEASE_V1.0.2/MSDK/cloud/alicloud/src/protocol/alcs\alcs_api.c ****         return;
 287:C:/Users/stapi/OneDrive/Desktop/GD32VW553/V1_MQTT_OK/GD32VW55X_Wifi_BLE_SDK/GD32VW55x_RELEASE_V1.0.2/MSDK/cloud/alicloud/src/protocol/alcs\alcs_api.c ****     }
 288:C:/Users/stapi/OneDrive/Desktop/GD32VW553/V1_MQTT_OK/GD32VW55X_Wifi_BLE_SDK/GD32VW55x_RELEASE_V1.0.2/MSDK/cloud/alicloud/src/protocol/alcs\alcs_api.c ****     is_inited = 0;
 699              		.loc 1 288 5 is_stmt 1
 289:C:/Users/stapi/OneDrive/Desktop/GD32VW553/V1_MQTT_OK/GD32VW55X_Wifi_BLE_SDK/GD32VW55x_RELEASE_V1.0.2/MSDK/cloud/alicloud/src/protocol/alcs\alcs_api.c **** 
 290:C:/Users/stapi/OneDrive/Desktop/GD32VW553/V1_MQTT_OK/GD32VW55X_Wifi_BLE_SDK/GD32VW55x_RELEASE_V1.0.2/MSDK/cloud/alicloud/src/protocol/alcs\alcs_api.c ****     alcs_resource_cb_deinit();
 291:C:/Users/stapi/OneDrive/Desktop/GD32VW553/V1_MQTT_OK/GD32VW55X_Wifi_BLE_SDK/GD32VW55x_RELEASE_V1.0.2/MSDK/cloud/alicloud/src/protocol/alcs\alcs_api.c ****     alcs_auth_list_deinit();
 292:C:/Users/stapi/OneDrive/Desktop/GD32VW553/V1_MQTT_OK/GD32VW55X_Wifi_BLE_SDK/GD32VW55x_RELEASE_V1.0.2/MSDK/cloud/alicloud/src/protocol/alcs\alcs_api.c **** 
 293:C:/Users/stapi/OneDrive/Desktop/GD32VW553/V1_MQTT_OK/GD32VW55X_Wifi_BLE_SDK/GD32VW55x_RELEASE_V1.0.2/MSDK/cloud/alicloud/src/protocol/alcs\alcs_api.c ****     if (_device.list_mutex){
 700              		.loc 1 293 16 is_stmt 0
 701 0016 37040000 		lui	s0,%hi(.LANCHOR0)
 288:C:/Users/stapi/OneDrive/Desktop/GD32VW553/V1_MQTT_OK/GD32VW55X_Wifi_BLE_SDK/GD32VW55x_RELEASE_V1.0.2/MSDK/cloud/alicloud/src/protocol/alcs\alcs_api.c **** 
 702              		.loc 1 288 15
 703 001a 23800700 		sb	zero,0(a5)
 290:C:/Users/stapi/OneDrive/Desktop/GD32VW553/V1_MQTT_OK/GD32VW55X_Wifi_BLE_SDK/GD32VW55x_RELEASE_V1.0.2/MSDK/cloud/alicloud/src/protocol/alcs\alcs_api.c ****     alcs_auth_list_deinit();
 704              		.loc 1 290 5 is_stmt 1
 705              		.loc 1 293 16 is_stmt 0
 706 001e 13040400 		addi	s0,s0,%lo(.LANCHOR0)
 290:C:/Users/stapi/OneDrive/Desktop/GD32VW553/V1_MQTT_OK/GD32VW55X_Wifi_BLE_SDK/GD32VW55x_RELEASE_V1.0.2/MSDK/cloud/alicloud/src/protocol/alcs\alcs_api.c ****     alcs_auth_list_deinit();
 707              		.loc 1 290 5
 708 0022 97000000 		call	alcs_resource_cb_deinit
 708      E7800000 
 709              	.LVL62:
 291:C:/Users/stapi/OneDrive/Desktop/GD32VW553/V1_MQTT_OK/GD32VW55X_Wifi_BLE_SDK/GD32VW55x_RELEASE_V1.0.2/MSDK/cloud/alicloud/src/protocol/alcs\alcs_api.c **** 
 710              		.loc 1 291 5 is_stmt 1
 711 002a 97000000 		call	alcs_auth_list_deinit
 711      E7800000 
 712              	.LVL63:
 713              		.loc 1 293 5
 714              		.loc 1 293 16 is_stmt 0
 715 0032 0844     		lw	a0,8(s0)
 716              		.loc 1 293 8
 717 0034 19C5     		beq	a0,zero,.L39
 294:C:/Users/stapi/OneDrive/Desktop/GD32VW553/V1_MQTT_OK/GD32VW55X_Wifi_BLE_SDK/GD32VW55x_RELEASE_V1.0.2/MSDK/cloud/alicloud/src/protocol/alcs\alcs_api.c ****         HAL_MutexDestroy(_device.list_mutex);
 718              		.loc 1 294 9 is_stmt 1
 719 0036 97000000 		call	HAL_MutexDestroy
 719      E7800000 
 720              	.LVL64:
 295:C:/Users/stapi/OneDrive/Desktop/GD32VW553/V1_MQTT_OK/GD32VW55X_Wifi_BLE_SDK/GD32VW55x_RELEASE_V1.0.2/MSDK/cloud/alicloud/src/protocol/alcs\alcs_api.c ****         _device.list_mutex = NULL;
 721              		.loc 1 295 9
 722              		.loc 1 295 28 is_stmt 0
 723 003e 23240400 		sw	zero,8(s0)
 724              	.L39:
 296:C:/Users/stapi/OneDrive/Desktop/GD32VW553/V1_MQTT_OK/GD32VW55X_Wifi_BLE_SDK/GD32VW55x_RELEASE_V1.0.2/MSDK/cloud/alicloud/src/protocol/alcs\alcs_api.c ****     }   
 297:C:/Users/stapi/OneDrive/Desktop/GD32VW553/V1_MQTT_OK/GD32VW55X_Wifi_BLE_SDK/GD32VW55x_RELEASE_V1.0.2/MSDK/cloud/alicloud/src/protocol/alcs\alcs_api.c **** }
 725              		.loc 1 297 1
 726 0042 17030000 		tail	__riscv_restore_1
 726      67000300 
 727              		.cfi_restore 8
 728              		.cfi_restore 1
 729              		.cfi_def_cfa_offset 0
 730              	.L47:
 731 004a 8280     		ret
 732              		.cfi_endproc
 733              	.LFE34:
 735              		.section	.rodata.is_networkadd_same.str1.4,"aMS",@progbits,1
 736              		.align	2
 737              	.LC5:
 738 0000 636F6D70 		.string	"compare addr1:%s,addr2:%s"
 738      61726520 
 738      61646472 
 738      313A2573 
 738      2C616464 
 739 001a 0000     		.align	2
 740              	.LC6:
 741 001c 636F6170 		.string	"coap_local"
 741      5F6C6F63 
 741      616C00
 742              		.section	.text.is_networkadd_same,"ax",@progbits
 743              		.align	1
 744              		.globl	is_networkadd_same
 746              	is_networkadd_same:
 747              	.LFB35:
 298:C:/Users/stapi/OneDrive/Desktop/GD32VW553/V1_MQTT_OK/GD32VW55X_Wifi_BLE_SDK/GD32VW55x_RELEASE_V1.0.2/MSDK/cloud/alicloud/src/protocol/alcs\alcs_api.c **** 
 299:C:/Users/stapi/OneDrive/Desktop/GD32VW553/V1_MQTT_OK/GD32VW55X_Wifi_BLE_SDK/GD32VW55x_RELEASE_V1.0.2/MSDK/cloud/alicloud/src/protocol/alcs\alcs_api.c **** bool is_networkadd_same (NetworkAddr* addr1, NetworkAddr* addr2)
 300:C:/Users/stapi/OneDrive/Desktop/GD32VW553/V1_MQTT_OK/GD32VW55X_Wifi_BLE_SDK/GD32VW55x_RELEASE_V1.0.2/MSDK/cloud/alicloud/src/protocol/alcs\alcs_api.c **** {
 748              		.loc 1 300 1 is_stmt 1
 749              		.cfi_startproc
 750              	.LVL65:
 301:C:/Users/stapi/OneDrive/Desktop/GD32VW553/V1_MQTT_OK/GD32VW55X_Wifi_BLE_SDK/GD32VW55x_RELEASE_V1.0.2/MSDK/cloud/alicloud/src/protocol/alcs\alcs_api.c ****     if (!addr1 || !addr2) {
 751              		.loc 1 301 5
 752              		.loc 1 301 8 is_stmt 0
 753 0000 2DC1     		beq	a0,zero,.L53
 300:C:/Users/stapi/OneDrive/Desktop/GD32VW553/V1_MQTT_OK/GD32VW55X_Wifi_BLE_SDK/GD32VW55x_RELEASE_V1.0.2/MSDK/cloud/alicloud/src/protocol/alcs\alcs_api.c ****     if (!addr1 || !addr2) {
 754              		.loc 1 300 1 discriminator 1
 755 0002 17030000 		call	t0,__riscv_save_2
 755      E7020300 
 756              		.cfi_offset 9, -12
 757              		.cfi_offset 8, -8
 758              		.cfi_offset 1, -4
 759              		.cfi_def_cfa_offset 16
 760 000a 2A84     		mv	s0,a0
 761 000c AE84     		mv	s1,a1
 302:C:/Users/stapi/OneDrive/Desktop/GD32VW553/V1_MQTT_OK/GD32VW55X_Wifi_BLE_SDK/GD32VW55x_RELEASE_V1.0.2/MSDK/cloud/alicloud/src/protocol/alcs\alcs_api.c ****         return 0;
 762              		.loc 1 302 16 discriminator 1
 763 000e 0145     		li	a0,0
 764              	.LVL66:
 301:C:/Users/stapi/OneDrive/Desktop/GD32VW553/V1_MQTT_OK/GD32VW55X_Wifi_BLE_SDK/GD32VW55x_RELEASE_V1.0.2/MSDK/cloud/alicloud/src/protocol/alcs\alcs_api.c ****     if (!addr1 || !addr2) {
 765              		.loc 1 301 16 discriminator 1
 766 0010 A9C5     		beq	a1,zero,.L51
 767              	.LVL67:
 768              	.LBB68:
 769              	.LBB69:
 303:C:/Users/stapi/OneDrive/Desktop/GD32VW553/V1_MQTT_OK/GD32VW55X_Wifi_BLE_SDK/GD32VW55x_RELEASE_V1.0.2/MSDK/cloud/alicloud/src/protocol/alcs\alcs_api.c ****     }
 304:C:/Users/stapi/OneDrive/Desktop/GD32VW553/V1_MQTT_OK/GD32VW55X_Wifi_BLE_SDK/GD32VW55x_RELEASE_V1.0.2/MSDK/cloud/alicloud/src/protocol/alcs\alcs_api.c ****     COAP_DEBUG("compare addr1:%s,addr2:%s", addr1->addr, addr2->addr);
 770              		.loc 1 304 5 is_stmt 1
 771 0012 2E88     		mv	a6,a1
 772 0014 37070000 		lui	a4,%hi(.LC5)
 773 0018 B7050000 		lui	a1,%hi(.LANCHOR4)
 774              	.LVL68:
 775 001c 37050000 		lui	a0,%hi(.LC6)
 776 0020 A287     		mv	a5,s0
 777 0022 13070700 		addi	a4,a4,%lo(.LC5)
 778 0026 13050500 		addi	a0,a0,%lo(.LC6)
 779 002a 9546     		li	a3,5
 780 002c 13060013 		li	a2,304
 781 0030 93850500 		addi	a1,a1,%lo(.LANCHOR4)
 782 0034 97000000 		call	LITE_syslog
 782      E7800000 
 783              	.LVL69:
 305:C:/Users/stapi/OneDrive/Desktop/GD32VW553/V1_MQTT_OK/GD32VW55X_Wifi_BLE_SDK/GD32VW55x_RELEASE_V1.0.2/MSDK/cloud/alicloud/src/protocol/alcs\alcs_api.c ****     return addr1->port == addr2->port && !strcmp((const char *)addr1->addr, (const char *)addr2->ad
 784              		.loc 1 305 5
 785              		.loc 1 305 39 is_stmt 0
 786 003c 03570401 		lhu	a4,16(s0)
 787 0040 83D70401 		lhu	a5,16(s1)
 788 0044 0145     		li	a0,0
 789 0046 631AF700 		bne	a4,a5,.L51
 790              		.loc 1 305 43
 791 004a A685     		mv	a1,s1
 792 004c 2285     		mv	a0,s0
 793 004e 97000000 		call	strcmp
 793      E7800000 
 794              	.LVL70:
 795              		.loc 1 305 39
 796 0056 13351500 		seqz	a0,a0
 797              	.LVL71:
 798              	.L51:
 799              	.LBE69:
 800              	.LBE68:
 306:C:/Users/stapi/OneDrive/Desktop/GD32VW553/V1_MQTT_OK/GD32VW55X_Wifi_BLE_SDK/GD32VW55x_RELEASE_V1.0.2/MSDK/cloud/alicloud/src/protocol/alcs\alcs_api.c **** }
 801              		.loc 1 306 1
 802 005a 17030000 		tail	__riscv_restore_2
 802      67000300 
 803              		.cfi_restore 9
 804              		.cfi_restore 8
 805              		.cfi_restore 1
 806              		.cfi_def_cfa_offset 0
 807              	.LVL72:
 808              	.L53:
 302:C:/Users/stapi/OneDrive/Desktop/GD32VW553/V1_MQTT_OK/GD32VW55X_Wifi_BLE_SDK/GD32VW55x_RELEASE_V1.0.2/MSDK/cloud/alicloud/src/protocol/alcs\alcs_api.c ****     }
 809              		.loc 1 302 16
 810 0062 0145     		li	a0,0
 811              	.LVL73:
 812              		.loc 1 306 1
 813 0064 8280     		ret
 814              		.cfi_endproc
 815              	.LFE35:
 817              		.section	.rodata.get_session_by_checksum.str1.4,"aMS",@progbits,1
 818              		.align	2
 819              	.LC7:
 820 0000 66696E64 		.string	"find node, sessionid:%d"
 820      206E6F64 
 820      652C2073 
 820      65737369 
 820      6F6E6964 
 821              		.section	.text.get_session_by_checksum,"ax",@progbits
 822              		.align	1
 823              		.globl	get_session_by_checksum
 825              	get_session_by_checksum:
 826              	.LFB23:
  48:C:/Users/stapi/OneDrive/Desktop/GD32VW553/V1_MQTT_OK/GD32VW55X_Wifi_BLE_SDK/GD32VW55x_RELEASE_V1.0.2/MSDK/cloud/alicloud/src/protocol/alcs\alcs_api.c ****     if (!sessions || !ck) {
 827              		.loc 1 48 1 is_stmt 1
 828              		.cfi_startproc
 829              	.LVL74:
 830 0000 17030000 		call	t0,__riscv_save_6
 830      E7020300 
 831              		.cfi_offset 21, -28
 832              		.cfi_offset 20, -24
 833              		.cfi_offset 19, -20
 834              		.cfi_offset 18, -16
 835              		.cfi_offset 9, -12
 836              		.cfi_offset 8, -8
 837              		.cfi_offset 1, -4
 838              		.cfi_def_cfa_offset 32
  49:C:/Users/stapi/OneDrive/Desktop/GD32VW553/V1_MQTT_OK/GD32VW55X_Wifi_BLE_SDK/GD32VW55x_RELEASE_V1.0.2/MSDK/cloud/alicloud/src/protocol/alcs\alcs_api.c ****         return NULL;
 839              		.loc 1 49 5
  48:C:/Users/stapi/OneDrive/Desktop/GD32VW553/V1_MQTT_OK/GD32VW55X_Wifi_BLE_SDK/GD32VW55x_RELEASE_V1.0.2/MSDK/cloud/alicloud/src/protocol/alcs\alcs_api.c ****     if (!sessions || !ck) {
 840              		.loc 1 48 1 is_stmt 0
 841 0008 2A84     		mv	s0,a0
  49:C:/Users/stapi/OneDrive/Desktop/GD32VW553/V1_MQTT_OK/GD32VW55X_Wifi_BLE_SDK/GD32VW55x_RELEASE_V1.0.2/MSDK/cloud/alicloud/src/protocol/alcs\alcs_api.c ****         return NULL;
 842              		.loc 1 49 8
 843 000a 51CD     		beq	a0,zero,.L61
 844 000c 328A     		mv	s4,a2
  49:C:/Users/stapi/OneDrive/Desktop/GD32VW553/V1_MQTT_OK/GD32VW55X_Wifi_BLE_SDK/GD32VW55x_RELEASE_V1.0.2/MSDK/cloud/alicloud/src/protocol/alcs\alcs_api.c ****         return NULL;
 845              		.loc 1 49 19 discriminator 1
 846 000e 15CE     		beq	a2,zero,.L65
  54:C:/Users/stapi/OneDrive/Desktop/GD32VW553/V1_MQTT_OK/GD32VW55X_Wifi_BLE_SDK/GD32VW55x_RELEASE_V1.0.2/MSDK/cloud/alicloud/src/protocol/alcs\alcs_api.c **** 
 847              		.loc 1 54 5
 848 0010 37090000 		lui	s2,%hi(.LANCHOR0)
 849 0014 93070900 		addi	a5,s2,%lo(.LANCHOR0)
 850 0018 8847     		lw	a0,8(a5)
 851              	.LVL75:
 852 001a AE8A     		mv	s5,a1
  53:C:/Users/stapi/OneDrive/Desktop/GD32VW553/V1_MQTT_OK/GD32VW55X_Wifi_BLE_SDK/GD32VW55x_RELEASE_V1.0.2/MSDK/cloud/alicloud/src/protocol/alcs\alcs_api.c ****     HAL_MutexLock(dev_lst->list_mutex);
 853              		.loc 1 53 5 is_stmt 1
 854              	.LVL76:
  54:C:/Users/stapi/OneDrive/Desktop/GD32VW553/V1_MQTT_OK/GD32VW55X_Wifi_BLE_SDK/GD32VW55x_RELEASE_V1.0.2/MSDK/cloud/alicloud/src/protocol/alcs\alcs_api.c **** 
 855              		.loc 1 54 5
 856 001c 13090900 		addi	s2,s2,%lo(.LANCHOR0)
 857 0020 97000000 		call	HAL_MutexLock
 857      E7800000 
 858              	.LVL77:
  56:C:/Users/stapi/OneDrive/Desktop/GD32VW553/V1_MQTT_OK/GD32VW55X_Wifi_BLE_SDK/GD32VW55x_RELEASE_V1.0.2/MSDK/cloud/alicloud/src/protocol/alcs\alcs_api.c ****     list_for_each_entry_safe(node, next, sessions, lst, session_item) {
 859              		.loc 1 56 5
  57:C:/Users/stapi/OneDrive/Desktop/GD32VW553/V1_MQTT_OK/GD32VW55X_Wifi_BLE_SDK/GD32VW55x_RELEASE_V1.0.2/MSDK/cloud/alicloud/src/protocol/alcs\alcs_api.c ****         if (is_networkadd_same(addr, &node->addr)
 860              		.loc 1 57 5
 861 0028 5C40     		lw	a5,4(s0)
 862 002a 83A94700 		lw	s3,4(a5)
 863 002e 938447F4 		addi	s1,a5,-188
 864              	.LVL78:
 865 0032 938949F4 		addi	s3,s3,-188
 866              	.LVL79:
 867              	.L62:
  57:C:/Users/stapi/OneDrive/Desktop/GD32VW553/V1_MQTT_OK/GD32VW55X_Wifi_BLE_SDK/GD32VW55x_RELEASE_V1.0.2/MSDK/cloud/alicloud/src/protocol/alcs\alcs_api.c ****         if (is_networkadd_same(addr, &node->addr)
 868              		.loc 1 57 5 discriminator 1
 869 0036 9387C40B 		addi	a5,s1,188
 870 003a 631AF400 		bne	s0,a5,.L64
  66:C:/Users/stapi/OneDrive/Desktop/GD32VW553/V1_MQTT_OK/GD32VW55X_Wifi_BLE_SDK/GD32VW55x_RELEASE_V1.0.2/MSDK/cloud/alicloud/src/protocol/alcs\alcs_api.c ****     return NULL;
 871              		.loc 1 66 5
 872 003e 03258900 		lw	a0,8(s2)
 873 0042 97000000 		call	HAL_MutexUnlock
 873      E7800000 
 874              	.LVL80:
  67:C:/Users/stapi/OneDrive/Desktop/GD32VW553/V1_MQTT_OK/GD32VW55X_Wifi_BLE_SDK/GD32VW55x_RELEASE_V1.0.2/MSDK/cloud/alicloud/src/protocol/alcs\alcs_api.c **** }
 875              		.loc 1 67 5
 876              	.L65:
  50:C:/Users/stapi/OneDrive/Desktop/GD32VW553/V1_MQTT_OK/GD32VW55X_Wifi_BLE_SDK/GD32VW55x_RELEASE_V1.0.2/MSDK/cloud/alicloud/src/protocol/alcs\alcs_api.c ****     }
 877              		.loc 1 50 16 is_stmt 0
 878 004a 0144     		li	s0,0
 879              	.LVL81:
 880 004c A9A8     		j	.L61
 881              	.LVL82:
 882              	.L64:
  58:C:/Users/stapi/OneDrive/Desktop/GD32VW553/V1_MQTT_OK/GD32VW55X_Wifi_BLE_SDK/GD32VW55x_RELEASE_V1.0.2/MSDK/cloud/alicloud/src/protocol/alcs\alcs_api.c ****                 && strncmp(node->pk_dn, ck, PK_DN_CHECKSUM_LEN) == 0)
 883              		.loc 1 58 9 is_stmt 1
  58:C:/Users/stapi/OneDrive/Desktop/GD32VW553/V1_MQTT_OK/GD32VW55X_Wifi_BLE_SDK/GD32VW55x_RELEASE_V1.0.2/MSDK/cloud/alicloud/src/protocol/alcs\alcs_api.c ****                 && strncmp(node->pk_dn, ck, PK_DN_CHECKSUM_LEN) == 0)
 884              		.loc 1 58 13 is_stmt 0
 885 004e 93854405 		addi	a1,s1,84
 886 0052 5685     		mv	a0,s5
 887 0054 97000000 		call	is_networkadd_same
 887      E7800000 
 888              	.LVL83:
  58:C:/Users/stapi/OneDrive/Desktop/GD32VW553/V1_MQTT_OK/GD32VW55X_Wifi_BLE_SDK/GD32VW55x_RELEASE_V1.0.2/MSDK/cloud/alicloud/src/protocol/alcs\alcs_api.c ****                 && strncmp(node->pk_dn, ck, PK_DN_CHECKSUM_LEN) == 0)
 889              		.loc 1 58 12
 890 005c 31C9     		beq	a0,zero,.L63
  59:C:/Users/stapi/OneDrive/Desktop/GD32VW553/V1_MQTT_OK/GD32VW55X_Wifi_BLE_SDK/GD32VW55x_RELEASE_V1.0.2/MSDK/cloud/alicloud/src/protocol/alcs\alcs_api.c ****         {
 891              		.loc 1 59 20
 892 005e 1946     		li	a2,6
 893 0060 D285     		mv	a1,s4
 894 0062 13855403 		addi	a0,s1,53
 895 0066 97000000 		call	strncmp
 895      E7800000 
 896              	.LVL84:
  59:C:/Users/stapi/OneDrive/Desktop/GD32VW553/V1_MQTT_OK/GD32VW55X_Wifi_BLE_SDK/GD32VW55x_RELEASE_V1.0.2/MSDK/cloud/alicloud/src/protocol/alcs\alcs_api.c ****         {
 897              		.loc 1 59 17
 898 006e 29E1     		bne	a0,zero,.L63
  61:C:/Users/stapi/OneDrive/Desktop/GD32VW553/V1_MQTT_OK/GD32VW55X_Wifi_BLE_SDK/GD32VW55x_RELEASE_V1.0.2/MSDK/cloud/alicloud/src/protocol/alcs\alcs_api.c ****             HAL_MutexUnlock(dev_lst->list_mutex);
 899              		.loc 1 61 13 is_stmt 1
 900 0070 9C40     		lw	a5,0(s1)
 901 0072 37070000 		lui	a4,%hi(.LC7)
 902 0076 B7050000 		lui	a1,%hi(.LANCHOR5)
 903 007a 37050000 		lui	a0,%hi(.LC6)
 904 007e 13070700 		addi	a4,a4,%lo(.LC7)
 905 0082 9546     		li	a3,5
 906 0084 1306D003 		li	a2,61
 907 0088 93850500 		addi	a1,a1,%lo(.LANCHOR5)
 908 008c 13050500 		addi	a0,a0,%lo(.LC6)
 909 0090 97000000 		call	LITE_syslog
 909      E7800000 
 910              	.LVL85:
  62:C:/Users/stapi/OneDrive/Desktop/GD32VW553/V1_MQTT_OK/GD32VW55X_Wifi_BLE_SDK/GD32VW55x_RELEASE_V1.0.2/MSDK/cloud/alicloud/src/protocol/alcs\alcs_api.c ****             return node;
 911              		.loc 1 62 13
 912 0098 03258900 		lw	a0,8(s2)
  63:C:/Users/stapi/OneDrive/Desktop/GD32VW553/V1_MQTT_OK/GD32VW55X_Wifi_BLE_SDK/GD32VW55x_RELEASE_V1.0.2/MSDK/cloud/alicloud/src/protocol/alcs\alcs_api.c ****         }
 913              		.loc 1 63 20 is_stmt 0
 914 009c 2684     		mv	s0,s1
 915              	.LVL86:
  62:C:/Users/stapi/OneDrive/Desktop/GD32VW553/V1_MQTT_OK/GD32VW55X_Wifi_BLE_SDK/GD32VW55x_RELEASE_V1.0.2/MSDK/cloud/alicloud/src/protocol/alcs\alcs_api.c ****             return node;
 916              		.loc 1 62 13
 917 009e 97000000 		call	HAL_MutexUnlock
 917      E7800000 
 918              	.LVL87:
  63:C:/Users/stapi/OneDrive/Desktop/GD32VW553/V1_MQTT_OK/GD32VW55X_Wifi_BLE_SDK/GD32VW55x_RELEASE_V1.0.2/MSDK/cloud/alicloud/src/protocol/alcs\alcs_api.c ****         }
 919              		.loc 1 63 13 is_stmt 1
 920              	.L61:
  68:C:/Users/stapi/OneDrive/Desktop/GD32VW553/V1_MQTT_OK/GD32VW55X_Wifi_BLE_SDK/GD32VW55x_RELEASE_V1.0.2/MSDK/cloud/alicloud/src/protocol/alcs\alcs_api.c **** 
 921              		.loc 1 68 1 is_stmt 0
 922 00a6 2285     		mv	a0,s0
 923 00a8 17030000 		tail	__riscv_restore_6
 923      67000300 
 924              		.cfi_remember_state
 925              		.cfi_restore 21
 926              		.cfi_restore 20
 927              		.cfi_restore 19
 928              		.cfi_restore 18
 929              		.cfi_restore 9
 930              		.cfi_restore 8
 931              		.cfi_restore 1
 932              		.cfi_def_cfa_offset 0
 933              	.LVL88:
 934              	.L63:
 935              		.cfi_restore_state
  57:C:/Users/stapi/OneDrive/Desktop/GD32VW553/V1_MQTT_OK/GD32VW55X_Wifi_BLE_SDK/GD32VW55x_RELEASE_V1.0.2/MSDK/cloud/alicloud/src/protocol/alcs\alcs_api.c ****         if (is_networkadd_same(addr, &node->addr)
 936              		.loc 1 57 5 is_stmt 1 discriminator 2
 937 00b0 83A7090C 		lw	a5,192(s3)
 938              	.LVL89:
 939 00b4 CE84     		mv	s1,s3
 940 00b6 938947F4 		addi	s3,a5,-188
 941              	.LVL90:
 942 00ba B5BF     		j	.L62
 943              		.cfi_endproc
 944              	.LFE23:
 946              		.section	.rodata.get_svr_session.str1.4,"aMS",@progbits,1
 947              		.align	2
 948              	.LC8:
 949 0000 25732573 		.string	"%s%s"
 949      00
 950              		.section	.text.get_svr_session,"ax",@progbits
 951              		.align	1
 952              		.globl	get_svr_session
 954              	get_svr_session:
 955              	.LFB26:
 122:C:/Users/stapi/OneDrive/Desktop/GD32VW553/V1_MQTT_OK/GD32VW55X_Wifi_BLE_SDK/GD32VW55x_RELEASE_V1.0.2/MSDK/cloud/alicloud/src/protocol/alcs\alcs_api.c ****     struct list_head* sessions = get_svr_session_list();
 956              		.loc 1 122 1
 957              		.cfi_startproc
 958              	.LVL91:
 959 0000 17030000 		call	t0,__riscv_save_2
 959      E7020300 
 960              		.cfi_offset 9, -12
 961              		.cfi_offset 8, -8
 962              		.cfi_offset 1, -4
 963              		.cfi_def_cfa_offset 16
 123:C:/Users/stapi/OneDrive/Desktop/GD32VW553/V1_MQTT_OK/GD32VW55X_Wifi_BLE_SDK/GD32VW55x_RELEASE_V1.0.2/MSDK/cloud/alicloud/src/protocol/alcs\alcs_api.c ****     return get_session (sessions, devKey);
 964              		.loc 1 123 5
 123:C:/Users/stapi/OneDrive/Desktop/GD32VW553/V1_MQTT_OK/GD32VW55X_Wifi_BLE_SDK/GD32VW55x_RELEASE_V1.0.2/MSDK/cloud/alicloud/src/protocol/alcs\alcs_api.c ****     return get_session (sessions, devKey);
 965              		.loc 1 123 34 is_stmt 0
 966 0008 B7040000 		lui	s1,%hi(.LANCHOR0)
 967 000c 93840400 		addi	s1,s1,%lo(.LANCHOR0)
 968 0010 83C7C402 		lbu	a5,44(s1)
 122:C:/Users/stapi/OneDrive/Desktop/GD32VW553/V1_MQTT_OK/GD32VW55X_Wifi_BLE_SDK/GD32VW55x_RELEASE_V1.0.2/MSDK/cloud/alicloud/src/protocol/alcs\alcs_api.c ****     struct list_head* sessions = get_svr_session_list();
 969              		.loc 1 122 1
 970 0014 1971     		addi	sp,sp,-128
 971              		.cfi_def_cfa_offset 144
 123:C:/Users/stapi/OneDrive/Desktop/GD32VW553/V1_MQTT_OK/GD32VW55X_Wifi_BLE_SDK/GD32VW55x_RELEASE_V1.0.2/MSDK/cloud/alicloud/src/protocol/alcs\alcs_api.c ****     return get_session (sessions, devKey);
 972              		.loc 1 123 34
 973 0016 898B     		andi	a5,a5,2
 974 0018 BDCF     		beq	a5,zero,.L77
 975 001a 2A84     		mv	s0,a0
 976              	.LVL92:
 124:C:/Users/stapi/OneDrive/Desktop/GD32VW553/V1_MQTT_OK/GD32VW55X_Wifi_BLE_SDK/GD32VW55x_RELEASE_V1.0.2/MSDK/cloud/alicloud/src/protocol/alcs\alcs_api.c **** }
 977              		.loc 1 124 5 is_stmt 1
 978              	.LBB72:
 979              	.LBB73:
  72:C:/Users/stapi/OneDrive/Desktop/GD32VW553/V1_MQTT_OK/GD32VW55X_Wifi_BLE_SDK/GD32VW55x_RELEASE_V1.0.2/MSDK/cloud/alicloud/src/protocol/alcs\alcs_api.c ****         return NULL;
 980              		.loc 1 72 5
  73:C:/Users/stapi/OneDrive/Desktop/GD32VW553/V1_MQTT_OK/GD32VW55X_Wifi_BLE_SDK/GD32VW55x_RELEASE_V1.0.2/MSDK/cloud/alicloud/src/protocol/alcs\alcs_api.c ****     }
 981              		.loc 1 73 16 is_stmt 0
 982 001c 8146     		li	a3,0
  72:C:/Users/stapi/OneDrive/Desktop/GD32VW553/V1_MQTT_OK/GD32VW55X_Wifi_BLE_SDK/GD32VW55x_RELEASE_V1.0.2/MSDK/cloud/alicloud/src/protocol/alcs\alcs_api.c ****         return NULL;
 983              		.loc 1 72 19
 984 001e 35C5     		beq	a0,zero,.L73
  72:C:/Users/stapi/OneDrive/Desktop/GD32VW553/V1_MQTT_OK/GD32VW55X_Wifi_BLE_SDK/GD32VW55x_RELEASE_V1.0.2/MSDK/cloud/alicloud/src/protocol/alcs\alcs_api.c ****         return NULL;
 985              		.loc 1 72 40
 986 0020 5449     		lw	a3,20(a0)
  72:C:/Users/stapi/OneDrive/Desktop/GD32VW553/V1_MQTT_OK/GD32VW55X_Wifi_BLE_SDK/GD32VW55x_RELEASE_V1.0.2/MSDK/cloud/alicloud/src/protocol/alcs\alcs_api.c ****         return NULL;
 987              		.loc 1 72 30
 988 0022 A5C6     		beq	a3,zero,.L73
  72:C:/Users/stapi/OneDrive/Desktop/GD32VW553/V1_MQTT_OK/GD32VW55X_Wifi_BLE_SDK/GD32VW55x_RELEASE_V1.0.2/MSDK/cloud/alicloud/src/protocol/alcs\alcs_api.c ****         return NULL;
 989              		.loc 1 72 55
 990 0024 184D     		lw	a4,24(a0)
 991 0026 36C6     		sw	a3,12(sp)
  72:C:/Users/stapi/OneDrive/Desktop/GD32VW553/V1_MQTT_OK/GD32VW55X_Wifi_BLE_SDK/GD32VW55x_RELEASE_V1.0.2/MSDK/cloud/alicloud/src/protocol/alcs\alcs_api.c ****         return NULL;
 992              		.loc 1 72 45
 993 0028 3AC4     		sw	a4,8(sp)
 994 002a 35C7     		beq	a4,zero,.L77
  76:C:/Users/stapi/OneDrive/Desktop/GD32VW553/V1_MQTT_OK/GD32VW55X_Wifi_BLE_SDK/GD32VW55x_RELEASE_V1.0.2/MSDK/cloud/alicloud/src/protocol/alcs\alcs_api.c ****     char path[100] = {0};
 995              		.loc 1 76 5 is_stmt 1
  77:C:/Users/stapi/OneDrive/Desktop/GD32VW553/V1_MQTT_OK/GD32VW55X_Wifi_BLE_SDK/GD32VW55x_RELEASE_V1.0.2/MSDK/cloud/alicloud/src/protocol/alcs\alcs_api.c ****     snprintf (path, sizeof(path), "%s%s", devKey->pk, devKey->dn);
 996              		.loc 1 77 10 is_stmt 0
 997 002c 13060006 		li	a2,96
 998 0030 8145     		li	a1,0
 999 0032 0810     		addi	a0,sp,32
 1000              	.LVL93:
  76:C:/Users/stapi/OneDrive/Desktop/GD32VW553/V1_MQTT_OK/GD32VW55X_Wifi_BLE_SDK/GD32VW55x_RELEASE_V1.0.2/MSDK/cloud/alicloud/src/protocol/alcs\alcs_api.c ****     char path[100] = {0};
 1001              		.loc 1 76 10
 1002 0034 02CA     		sw	zero,20(sp)
 1003 0036 231C0100 		sh	zero,24(sp)
  77:C:/Users/stapi/OneDrive/Desktop/GD32VW553/V1_MQTT_OK/GD32VW55X_Wifi_BLE_SDK/GD32VW55x_RELEASE_V1.0.2/MSDK/cloud/alicloud/src/protocol/alcs\alcs_api.c ****     snprintf (path, sizeof(path), "%s%s", devKey->pk, devKey->dn);
 1004              		.loc 1 77 5 is_stmt 1
  77:C:/Users/stapi/OneDrive/Desktop/GD32VW553/V1_MQTT_OK/GD32VW55X_Wifi_BLE_SDK/GD32VW55x_RELEASE_V1.0.2/MSDK/cloud/alicloud/src/protocol/alcs\alcs_api.c ****     snprintf (path, sizeof(path), "%s%s", devKey->pk, devKey->dn);
 1005              		.loc 1 77 10 is_stmt 0
 1006 003a 02CE     		sw	zero,28(sp)
 1007 003c 97000000 		call	memset
 1007      E7800000 
 1008              	.LVL94:
  78:C:/Users/stapi/OneDrive/Desktop/GD32VW553/V1_MQTT_OK/GD32VW55X_Wifi_BLE_SDK/GD32VW55x_RELEASE_V1.0.2/MSDK/cloud/alicloud/src/protocol/alcs\alcs_api.c ****     CoAPPathMD5_sum (path, strlen(path), ck, PK_DN_CHECKSUM_LEN);
 1009              		.loc 1 78 5 is_stmt 1
 1010 0044 2247     		lw	a4,8(sp)
 1011 0046 B246     		lw	a3,12(sp)
 1012 0048 37060000 		lui	a2,%hi(.LC8)
 1013 004c 13060600 		addi	a2,a2,%lo(.LC8)
 1014 0050 93054006 		li	a1,100
 1015 0054 6808     		addi	a0,sp,28
 1016 0056 97000000 		call	snprintf
 1016      E7800000 
 1017              	.LVL95:
  79:C:/Users/stapi/OneDrive/Desktop/GD32VW553/V1_MQTT_OK/GD32VW55X_Wifi_BLE_SDK/GD32VW55x_RELEASE_V1.0.2/MSDK/cloud/alicloud/src/protocol/alcs\alcs_api.c **** 
 1018              		.loc 1 79 5
  79:C:/Users/stapi/OneDrive/Desktop/GD32VW553/V1_MQTT_OK/GD32VW55X_Wifi_BLE_SDK/GD32VW55x_RELEASE_V1.0.2/MSDK/cloud/alicloud/src/protocol/alcs\alcs_api.c **** 
 1019              		.loc 1 79 28 is_stmt 0
 1020 005e 6808     		addi	a0,sp,28
 1021 0060 97000000 		call	strlen
 1021      E7800000 
 1022              	.LVL96:
 1023 0068 AA85     		mv	a1,a0
  79:C:/Users/stapi/OneDrive/Desktop/GD32VW553/V1_MQTT_OK/GD32VW55X_Wifi_BLE_SDK/GD32VW55x_RELEASE_V1.0.2/MSDK/cloud/alicloud/src/protocol/alcs\alcs_api.c **** 
 1024              		.loc 1 79 5
 1025 006a 9946     		li	a3,6
 1026 006c 5008     		addi	a2,sp,20
 1027 006e 6808     		addi	a0,sp,28
 1028 0070 97000000 		call	CoAPPathMD5_sum
 1028      E7800000 
 1029              	.LVL97:
  81:C:/Users/stapi/OneDrive/Desktop/GD32VW553/V1_MQTT_OK/GD32VW55X_Wifi_BLE_SDK/GD32VW55x_RELEASE_V1.0.2/MSDK/cloud/alicloud/src/protocol/alcs\alcs_api.c **** }
 1030              		.loc 1 81 5 is_stmt 1
  81:C:/Users/stapi/OneDrive/Desktop/GD32VW553/V1_MQTT_OK/GD32VW55X_Wifi_BLE_SDK/GD32VW55x_RELEASE_V1.0.2/MSDK/cloud/alicloud/src/protocol/alcs\alcs_api.c **** }
 1031              		.loc 1 81 12 is_stmt 0
 1032 0078 5008     		addi	a2,sp,20
 1033 007a A285     		mv	a1,s0
 1034 007c 1385C401 		addi	a0,s1,28
 1035 0080 97000000 		call	get_session_by_checksum
 1035      E7800000 
 1036              	.LVL98:
 1037 0088 AA86     		mv	a3,a0
 1038              	.LVL99:
 1039              	.L73:
 1040              	.LBE73:
 1041              	.LBE72:
 125:C:/Users/stapi/OneDrive/Desktop/GD32VW553/V1_MQTT_OK/GD32VW55X_Wifi_BLE_SDK/GD32VW55x_RELEASE_V1.0.2/MSDK/cloud/alicloud/src/protocol/alcs\alcs_api.c **** #endif
 1042              		.loc 1 125 1
 1043 008a 3685     		mv	a0,a3
 1044 008c 0961     		addi	sp,sp,128
 1045              		.cfi_remember_state
 1046              		.cfi_def_cfa_offset 0
 1047 008e 17030000 		tail	__riscv_restore_2
 1047      67000300 
 1048              		.cfi_restore 9
 1049              		.cfi_restore 8
 1050              		.cfi_restore 1
 1051              		.cfi_def_cfa_offset -16
 1052              	.LVL100:
 1053              	.L77:
 1054              		.cfi_restore_state
 1055              	.LBB75:
 1056              	.LBB74:
  73:C:/Users/stapi/OneDrive/Desktop/GD32VW553/V1_MQTT_OK/GD32VW55X_Wifi_BLE_SDK/GD32VW55x_RELEASE_V1.0.2/MSDK/cloud/alicloud/src/protocol/alcs\alcs_api.c ****     }
 1057              		.loc 1 73 16
 1058 0096 8146     		li	a3,0
 1059              	.LBE74:
 1060              	.LBE75:
 124:C:/Users/stapi/OneDrive/Desktop/GD32VW553/V1_MQTT_OK/GD32VW55X_Wifi_BLE_SDK/GD32VW55x_RELEASE_V1.0.2/MSDK/cloud/alicloud/src/protocol/alcs\alcs_api.c **** }
 1061              		.loc 1 124 12
 1062 0098 CDBF     		j	.L73
 1063              		.cfi_endproc
 1064              	.LFE26:
 1066              		.section	.text.remove_session_safe,"ax",@progbits
 1067              		.align	1
 1068              		.globl	remove_session_safe
 1070              	remove_session_safe:
 1071              	.LFB25:
  85:C:/Users/stapi/OneDrive/Desktop/GD32VW553/V1_MQTT_OK/GD32VW55X_Wifi_BLE_SDK/GD32VW55x_RELEASE_V1.0.2/MSDK/cloud/alicloud/src/protocol/alcs\alcs_api.c ****     if (!sessions || !devKey || !devKey->pk || !devKey->dn) {
 1072              		.loc 1 85 1 is_stmt 1
 1073              		.cfi_startproc
 1074              	.LVL101:
  86:C:/Users/stapi/OneDrive/Desktop/GD32VW553/V1_MQTT_OK/GD32VW55X_Wifi_BLE_SDK/GD32VW55x_RELEASE_V1.0.2/MSDK/cloud/alicloud/src/protocol/alcs\alcs_api.c ****         return;
 1075              		.loc 1 86 5
  86:C:/Users/stapi/OneDrive/Desktop/GD32VW553/V1_MQTT_OK/GD32VW55X_Wifi_BLE_SDK/GD32VW55x_RELEASE_V1.0.2/MSDK/cloud/alicloud/src/protocol/alcs\alcs_api.c ****         return;
 1076              		.loc 1 86 8 is_stmt 0
 1077 0000 E5C5     		beq	a1,zero,.L103
  85:C:/Users/stapi/OneDrive/Desktop/GD32VW553/V1_MQTT_OK/GD32VW55X_Wifi_BLE_SDK/GD32VW55x_RELEASE_V1.0.2/MSDK/cloud/alicloud/src/protocol/alcs\alcs_api.c ****     if (!sessions || !devKey || !devKey->pk || !devKey->dn) {
 1078              		.loc 1 85 1 discriminator 1
 1079 0002 17030000 		call	t0,__riscv_save_6
 1079      E7020300 
 1080              		.cfi_offset 21, -28
 1081              		.cfi_offset 20, -24
 1082              		.cfi_offset 19, -20
 1083              		.cfi_offset 18, -16
 1084              		.cfi_offset 9, -12
 1085              		.cfi_offset 8, -8
 1086              		.cfi_offset 1, -4
 1087              		.cfi_def_cfa_offset 32
 1088 000a 1971     		addi	sp,sp,-128
 1089              		.cfi_def_cfa_offset 160
 1090 000c 3284     		mv	s0,a2
  86:C:/Users/stapi/OneDrive/Desktop/GD32VW553/V1_MQTT_OK/GD32VW55X_Wifi_BLE_SDK/GD32VW55x_RELEASE_V1.0.2/MSDK/cloud/alicloud/src/protocol/alcs\alcs_api.c ****         return;
 1091              		.loc 1 86 19 discriminator 1
 1092 000e 71C2     		beq	a2,zero,.L82
  86:C:/Users/stapi/OneDrive/Desktop/GD32VW553/V1_MQTT_OK/GD32VW55X_Wifi_BLE_SDK/GD32VW55x_RELEASE_V1.0.2/MSDK/cloud/alicloud/src/protocol/alcs\alcs_api.c ****         return;
 1093              		.loc 1 86 40 discriminator 2
 1094 0010 544A     		lw	a3,20(a2)
  86:C:/Users/stapi/OneDrive/Desktop/GD32VW553/V1_MQTT_OK/GD32VW55X_Wifi_BLE_SDK/GD32VW55x_RELEASE_V1.0.2/MSDK/cloud/alicloud/src/protocol/alcs\alcs_api.c ****         return;
 1095              		.loc 1 86 30 discriminator 2
 1096 0012 36C6     		sw	a3,12(sp)
 1097 0014 DDCE     		beq	a3,zero,.L82
  86:C:/Users/stapi/OneDrive/Desktop/GD32VW553/V1_MQTT_OK/GD32VW55X_Wifi_BLE_SDK/GD32VW55x_RELEASE_V1.0.2/MSDK/cloud/alicloud/src/protocol/alcs\alcs_api.c ****         return;
 1098              		.loc 1 86 55 discriminator 3
 1099 0016 184E     		lw	a4,24(a2)
  86:C:/Users/stapi/OneDrive/Desktop/GD32VW553/V1_MQTT_OK/GD32VW55X_Wifi_BLE_SDK/GD32VW55x_RELEASE_V1.0.2/MSDK/cloud/alicloud/src/protocol/alcs\alcs_api.c ****         return;
 1100              		.loc 1 86 45 discriminator 3
 1101 0018 3AC4     		sw	a4,8(sp)
 1102 001a 45CF     		beq	a4,zero,.L82
 1103 001c AE84     		mv	s1,a1
  90:C:/Users/stapi/OneDrive/Desktop/GD32VW553/V1_MQTT_OK/GD32VW55X_Wifi_BLE_SDK/GD32VW55x_RELEASE_V1.0.2/MSDK/cloud/alicloud/src/protocol/alcs\alcs_api.c ****     char path[100] = {0};
 1104              		.loc 1 90 5 is_stmt 1
  91:C:/Users/stapi/OneDrive/Desktop/GD32VW553/V1_MQTT_OK/GD32VW55X_Wifi_BLE_SDK/GD32VW55x_RELEASE_V1.0.2/MSDK/cloud/alicloud/src/protocol/alcs\alcs_api.c ****     snprintf (path, sizeof(path), "%s%s", devKey->pk, devKey->dn);
 1105              		.loc 1 91 10 is_stmt 0
 1106 001e 13060006 		li	a2,96
 1107              	.LVL102:
 1108 0022 8145     		li	a1,0
 1109              	.LVL103:
 1110 0024 AA8A     		mv	s5,a0
 1111 0026 0810     		addi	a0,sp,32
 1112              	.LVL104:
  90:C:/Users/stapi/OneDrive/Desktop/GD32VW553/V1_MQTT_OK/GD32VW55X_Wifi_BLE_SDK/GD32VW55x_RELEASE_V1.0.2/MSDK/cloud/alicloud/src/protocol/alcs\alcs_api.c ****     char path[100] = {0};
 1113              		.loc 1 90 10
 1114 0028 02CA     		sw	zero,20(sp)
 1115 002a 231C0100 		sh	zero,24(sp)
  91:C:/Users/stapi/OneDrive/Desktop/GD32VW553/V1_MQTT_OK/GD32VW55X_Wifi_BLE_SDK/GD32VW55x_RELEASE_V1.0.2/MSDK/cloud/alicloud/src/protocol/alcs\alcs_api.c ****     snprintf (path, sizeof(path), "%s%s", devKey->pk, devKey->dn);
 1116              		.loc 1 91 5 is_stmt 1
  91:C:/Users/stapi/OneDrive/Desktop/GD32VW553/V1_MQTT_OK/GD32VW55X_Wifi_BLE_SDK/GD32VW55x_RELEASE_V1.0.2/MSDK/cloud/alicloud/src/protocol/alcs\alcs_api.c ****     snprintf (path, sizeof(path), "%s%s", devKey->pk, devKey->dn);
 1117              		.loc 1 91 10 is_stmt 0
 1118 002e 02CE     		sw	zero,28(sp)
 1119 0030 97000000 		call	memset
 1119      E7800000 
 1120              	.LVL105:
  92:C:/Users/stapi/OneDrive/Desktop/GD32VW553/V1_MQTT_OK/GD32VW55X_Wifi_BLE_SDK/GD32VW55x_RELEASE_V1.0.2/MSDK/cloud/alicloud/src/protocol/alcs\alcs_api.c ****     CoAPPathMD5_sum (path, strlen(path), ck, PK_DN_CHECKSUM_LEN);
 1121              		.loc 1 92 5 is_stmt 1
 1122 0038 2247     		lw	a4,8(sp)
 1123 003a B246     		lw	a3,12(sp)
 1124 003c 37060000 		lui	a2,%hi(.LC8)
 1125 0040 13060600 		addi	a2,a2,%lo(.LC8)
 1126 0044 93054006 		li	a1,100
 1127 0048 6808     		addi	a0,sp,28
 1128 004a 97000000 		call	snprintf
 1128      E7800000 
 1129              	.LVL106:
  93:C:/Users/stapi/OneDrive/Desktop/GD32VW553/V1_MQTT_OK/GD32VW55X_Wifi_BLE_SDK/GD32VW55x_RELEASE_V1.0.2/MSDK/cloud/alicloud/src/protocol/alcs\alcs_api.c **** 
 1130              		.loc 1 93 5
  93:C:/Users/stapi/OneDrive/Desktop/GD32VW553/V1_MQTT_OK/GD32VW55X_Wifi_BLE_SDK/GD32VW55x_RELEASE_V1.0.2/MSDK/cloud/alicloud/src/protocol/alcs\alcs_api.c **** 
 1131              		.loc 1 93 28 is_stmt 0
 1132 0052 6808     		addi	a0,sp,28
 1133 0054 97000000 		call	strlen
 1133      E7800000 
 1134              	.LVL107:
 1135 005c AA85     		mv	a1,a0
  93:C:/Users/stapi/OneDrive/Desktop/GD32VW553/V1_MQTT_OK/GD32VW55X_Wifi_BLE_SDK/GD32VW55x_RELEASE_V1.0.2/MSDK/cloud/alicloud/src/protocol/alcs\alcs_api.c **** 
 1136              		.loc 1 93 5
 1137 005e 9946     		li	a3,6
 1138 0060 5008     		addi	a2,sp,20
 1139 0062 6808     		addi	a0,sp,28
 1140 0064 97000000 		call	CoAPPathMD5_sum
 1140      E7800000 
 1141              	.LVL108:
  95:C:/Users/stapi/OneDrive/Desktop/GD32VW553/V1_MQTT_OK/GD32VW55X_Wifi_BLE_SDK/GD32VW55x_RELEASE_V1.0.2/MSDK/cloud/alicloud/src/protocol/alcs\alcs_api.c ****     HAL_MutexLock(dev_lst->list_mutex);
 1142              		.loc 1 95 5 is_stmt 1
  96:C:/Users/stapi/OneDrive/Desktop/GD32VW553/V1_MQTT_OK/GD32VW55X_Wifi_BLE_SDK/GD32VW55x_RELEASE_V1.0.2/MSDK/cloud/alicloud/src/protocol/alcs\alcs_api.c **** 
 1143              		.loc 1 96 5
 1144 006c 370A0000 		lui	s4,%hi(.LANCHOR0)
 1145 0070 93070A00 		addi	a5,s4,%lo(.LANCHOR0)
 1146 0074 8847     		lw	a0,8(a5)
 1147 0076 130A0A00 		addi	s4,s4,%lo(.LANCHOR0)
 1148 007a 97000000 		call	HAL_MutexLock
 1148      E7800000 
 1149              	.LVL109:
  98:C:/Users/stapi/OneDrive/Desktop/GD32VW553/V1_MQTT_OK/GD32VW55X_Wifi_BLE_SDK/GD32VW55x_RELEASE_V1.0.2/MSDK/cloud/alicloud/src/protocol/alcs\alcs_api.c ****     list_for_each_entry_safe(node, next, sessions, lst, session_item) {
 1150              		.loc 1 98 5
  99:C:/Users/stapi/OneDrive/Desktop/GD32VW553/V1_MQTT_OK/GD32VW55X_Wifi_BLE_SDK/GD32VW55x_RELEASE_V1.0.2/MSDK/cloud/alicloud/src/protocol/alcs\alcs_api.c ****         if (is_networkadd_same(&devKey->addr, &node->addr)
 1151              		.loc 1 99 5
 1152 0082 DC40     		lw	a5,4(s1)
 1153 0084 83A94700 		lw	s3,4(a5)
 1154 0088 138947F4 		addi	s2,a5,-188
 1155              	.LVL110:
 1156 008c 938949F4 		addi	s3,s3,-188
 1157              	.LVL111:
 1158              	.L86:
  99:C:/Users/stapi/OneDrive/Desktop/GD32VW553/V1_MQTT_OK/GD32VW55X_Wifi_BLE_SDK/GD32VW55x_RELEASE_V1.0.2/MSDK/cloud/alicloud/src/protocol/alcs\alcs_api.c ****         if (is_networkadd_same(&devKey->addr, &node->addr)
 1159              		.loc 1 99 5 discriminator 1
 1160 0090 9307C90B 		addi	a5,s2,188
 1161 0094 6389F402 		beq	s1,a5,.L88
 100:C:/Users/stapi/OneDrive/Desktop/GD32VW553/V1_MQTT_OK/GD32VW55X_Wifi_BLE_SDK/GD32VW55x_RELEASE_V1.0.2/MSDK/cloud/alicloud/src/protocol/alcs\alcs_api.c ****                 && strncmp(node->pk_dn, ck, PK_DN_CHECKSUM_LEN) == 0)
 1162              		.loc 1 100 9
 100:C:/Users/stapi/OneDrive/Desktop/GD32VW553/V1_MQTT_OK/GD32VW55X_Wifi_BLE_SDK/GD32VW55x_RELEASE_V1.0.2/MSDK/cloud/alicloud/src/protocol/alcs\alcs_api.c ****                 && strncmp(node->pk_dn, ck, PK_DN_CHECKSUM_LEN) == 0)
 1163              		.loc 1 100 13 is_stmt 0
 1164 0098 93054905 		addi	a1,s2,84
 1165 009c 2285     		mv	a0,s0
 1166 009e 97000000 		call	is_networkadd_same
 1166      E7800000 
 1167              	.LVL112:
 100:C:/Users/stapi/OneDrive/Desktop/GD32VW553/V1_MQTT_OK/GD32VW55X_Wifi_BLE_SDK/GD32VW55x_RELEASE_V1.0.2/MSDK/cloud/alicloud/src/protocol/alcs\alcs_api.c ****                 && strncmp(node->pk_dn, ck, PK_DN_CHECKSUM_LEN) == 0)
 1168              		.loc 1 100 12
 1169 00a6 1DC9     		beq	a0,zero,.L87
 101:C:/Users/stapi/OneDrive/Desktop/GD32VW553/V1_MQTT_OK/GD32VW55X_Wifi_BLE_SDK/GD32VW55x_RELEASE_V1.0.2/MSDK/cloud/alicloud/src/protocol/alcs\alcs_api.c ****         {
 1170              		.loc 1 101 20
 1171 00a8 1946     		li	a2,6
 1172 00aa 4C08     		addi	a1,sp,20
 1173 00ac 13055903 		addi	a0,s2,53
 1174 00b0 97000000 		call	strncmp
 1174      E7800000 
 1175              	.LVL113:
 101:C:/Users/stapi/OneDrive/Desktop/GD32VW553/V1_MQTT_OK/GD32VW55X_Wifi_BLE_SDK/GD32VW55x_RELEASE_V1.0.2/MSDK/cloud/alicloud/src/protocol/alcs\alcs_api.c ****         {
 1176              		.loc 1 101 17
 1177 00b8 15E1     		bne	a0,zero,.L87
 103:C:/Users/stapi/OneDrive/Desktop/GD32VW553/V1_MQTT_OK/GD32VW55X_Wifi_BLE_SDK/GD32VW55x_RELEASE_V1.0.2/MSDK/cloud/alicloud/src/protocol/alcs\alcs_api.c ****             break;
 1178              		.loc 1 103 13 is_stmt 1
 1179 00ba CA85     		mv	a1,s2
 1180 00bc 5685     		mv	a0,s5
 1181 00be 97000000 		call	remove_session
 1181      E7800000 
 1182              	.LVL114:
 104:C:/Users/stapi/OneDrive/Desktop/GD32VW553/V1_MQTT_OK/GD32VW55X_Wifi_BLE_SDK/GD32VW55x_RELEASE_V1.0.2/MSDK/cloud/alicloud/src/protocol/alcs\alcs_api.c ****         }
 1183              		.loc 1 104 13
 1184              	.L88:
 107:C:/Users/stapi/OneDrive/Desktop/GD32VW553/V1_MQTT_OK/GD32VW55X_Wifi_BLE_SDK/GD32VW55x_RELEASE_V1.0.2/MSDK/cloud/alicloud/src/protocol/alcs\alcs_api.c **** }
 1185              		.loc 1 107 5
 1186 00c6 03258A00 		lw	a0,8(s4)
 1187 00ca 97000000 		call	HAL_MutexUnlock
 1187      E7800000 
 1188              	.LVL115:
 1189              	.L82:
 108:C:/Users/stapi/OneDrive/Desktop/GD32VW553/V1_MQTT_OK/GD32VW55X_Wifi_BLE_SDK/GD32VW55x_RELEASE_V1.0.2/MSDK/cloud/alicloud/src/protocol/alcs\alcs_api.c **** 
 1190              		.loc 1 108 1 is_stmt 0
 1191 00d2 0961     		addi	sp,sp,128
 1192              		.cfi_remember_state
 1193              		.cfi_def_cfa_offset 0
 1194 00d4 17030000 		tail	__riscv_restore_6
 1194      67000300 
 1195              		.cfi_restore 21
 1196              		.cfi_restore 20
 1197              		.cfi_restore 19
 1198              		.cfi_restore 18
 1199              		.cfi_restore 9
 1200              		.cfi_restore 8
 1201              		.cfi_restore 1
 1202              		.cfi_def_cfa_offset -32
 1203              	.LVL116:
 1204              	.L87:
 1205              		.cfi_restore_state
  99:C:/Users/stapi/OneDrive/Desktop/GD32VW553/V1_MQTT_OK/GD32VW55X_Wifi_BLE_SDK/GD32VW55x_RELEASE_V1.0.2/MSDK/cloud/alicloud/src/protocol/alcs\alcs_api.c ****         if (is_networkadd_same(&devKey->addr, &node->addr)
 1206              		.loc 1 99 5 is_stmt 1 discriminator 2
 1207 00dc 83A7090C 		lw	a5,192(s3)
 1208              	.LVL117:
 1209 00e0 4E89     		mv	s2,s3
 1210 00e2 938947F4 		addi	s3,a5,-188
 1211              	.LVL118:
 1212 00e6 6DB7     		j	.L86
 1213              	.LVL119:
 1214              	.L103:
 1215              		.cfi_def_cfa_offset 0
 1216              		.cfi_restore 1
 1217              		.cfi_restore 8
 1218              		.cfi_restore 9
 1219              		.cfi_restore 18
 1220              		.cfi_restore 19
 1221              		.cfi_restore 20
 1222              		.cfi_restore 21
 1223 00e8 8280     		ret
 1224              		.cfi_endproc
 1225              	.LFE25:
 1227              		.section	.rodata.alcs_encrypt.str1.4,"aMS",@progbits,1
 1228              		.align	2
 1229              	.LC9:
 1230 0000 61316231 		.string	"a1b1c1d1e1f1g1h1"
 1230      63316431 
 1230      65316631 
 1230      67316831 
 1230      00
 1231 0011 000000   		.align	2
 1232              	.LC10:
 1233 0014 746F2065 		.string	"to encrypt src:%.*s, len:%d"
 1233      6E637279 
 1233      70742073 
 1233      72633A25 
 1233      2E2A732C 
 1234              		.section	.text.alcs_encrypt,"ax",@progbits
 1235              		.align	1
 1236              		.globl	alcs_encrypt
 1238              	alcs_encrypt:
 1239              	.LFB36:
 307:C:/Users/stapi/OneDrive/Desktop/GD32VW553/V1_MQTT_OK/GD32VW55X_Wifi_BLE_SDK/GD32VW55x_RELEASE_V1.0.2/MSDK/cloud/alicloud/src/protocol/alcs\alcs_api.c **** 
 308:C:/Users/stapi/OneDrive/Desktop/GD32VW553/V1_MQTT_OK/GD32VW55X_Wifi_BLE_SDK/GD32VW55x_RELEASE_V1.0.2/MSDK/cloud/alicloud/src/protocol/alcs\alcs_api.c **** int alcs_encrypt (const char* src, int len, const char* key, void* out)
 309:C:/Users/stapi/OneDrive/Desktop/GD32VW553/V1_MQTT_OK/GD32VW55X_Wifi_BLE_SDK/GD32VW55x_RELEASE_V1.0.2/MSDK/cloud/alicloud/src/protocol/alcs\alcs_api.c **** {
 1240              		.loc 1 309 1
 1241              		.cfi_startproc
 1242              	.LVL120:
 1243 0000 17030000 		call	t0,__riscv_save_9
 1243      E7020300 
 1244              		.cfi_offset 24, -40
 1245              		.cfi_offset 23, -36
 1246              		.cfi_offset 22, -32
 1247              		.cfi_offset 21, -28
 1248              		.cfi_offset 20, -24
 1249              		.cfi_offset 19, -20
 1250              		.cfi_offset 18, -16
 1251              		.cfi_offset 9, -12
 1252              		.cfi_offset 8, -8
 1253              		.cfi_offset 1, -4
 1254              		.cfi_def_cfa_offset 48
 310:C:/Users/stapi/OneDrive/Desktop/GD32VW553/V1_MQTT_OK/GD32VW55X_Wifi_BLE_SDK/GD32VW55x_RELEASE_V1.0.2/MSDK/cloud/alicloud/src/protocol/alcs\alcs_api.c ****     char* iv = "a1b1c1d1e1f1g1h1";
 1255              		.loc 1 310 5
 1256              	.LVL121:
 311:C:/Users/stapi/OneDrive/Desktop/GD32VW553/V1_MQTT_OK/GD32VW55X_Wifi_BLE_SDK/GD32VW55x_RELEASE_V1.0.2/MSDK/cloud/alicloud/src/protocol/alcs\alcs_api.c **** 
 312:C:/Users/stapi/OneDrive/Desktop/GD32VW553/V1_MQTT_OK/GD32VW55X_Wifi_BLE_SDK/GD32VW55x_RELEASE_V1.0.2/MSDK/cloud/alicloud/src/protocol/alcs\alcs_api.c ****     int len1 = len & 0xfffffff0;
 1257              		.loc 1 312 5
 1258              		.loc 1 312 9 is_stmt 0
 1259 0008 13F905FF 		andi	s2,a1,-16
 1260              	.LVL122:
 313:C:/Users/stapi/OneDrive/Desktop/GD32VW553/V1_MQTT_OK/GD32VW55X_Wifi_BLE_SDK/GD32VW55x_RELEASE_V1.0.2/MSDK/cloud/alicloud/src/protocol/alcs\alcs_api.c ****     int len2 = len1 + 16;
 1261              		.loc 1 313 5 is_stmt 1
 1262              		.loc 1 313 9 is_stmt 0
 1263 000c 130A0901 		addi	s4,s2,16
 1264              	.LVL123:
 314:C:/Users/stapi/OneDrive/Desktop/GD32VW553/V1_MQTT_OK/GD32VW55X_Wifi_BLE_SDK/GD32VW55x_RELEASE_V1.0.2/MSDK/cloud/alicloud/src/protocol/alcs\alcs_api.c ****     int pad = len2 - len;
 1265              		.loc 1 314 5 is_stmt 1
 309:C:/Users/stapi/OneDrive/Desktop/GD32VW553/V1_MQTT_OK/GD32VW55X_Wifi_BLE_SDK/GD32VW55x_RELEASE_V1.0.2/MSDK/cloud/alicloud/src/protocol/alcs\alcs_api.c ****     char* iv = "a1b1c1d1e1f1g1h1";
 1266              		.loc 1 309 1 is_stmt 0
 1267 0010 4111     		addi	sp,sp,-16
 1268              		.cfi_def_cfa_offset 64
 309:C:/Users/stapi/OneDrive/Desktop/GD32VW553/V1_MQTT_OK/GD32VW55X_Wifi_BLE_SDK/GD32VW55x_RELEASE_V1.0.2/MSDK/cloud/alicloud/src/protocol/alcs\alcs_api.c ****     char* iv = "a1b1c1d1e1f1g1h1";
 1269              		.loc 1 309 1
 1270 0012 AA89     		mv	s3,a0
 1271 0014 AE84     		mv	s1,a1
 1272 0016 328B     		mv	s6,a2
 1273 0018 B68A     		mv	s5,a3
 1274              		.loc 1 314 9
 1275 001a 3304BA40 		sub	s0,s4,a1
 1276              	.LVL124:
 315:C:/Users/stapi/OneDrive/Desktop/GD32VW553/V1_MQTT_OK/GD32VW55X_Wifi_BLE_SDK/GD32VW55x_RELEASE_V1.0.2/MSDK/cloud/alicloud/src/protocol/alcs\alcs_api.c ****     int ret = 0;
 1277              		.loc 1 315 5 is_stmt 1
 316:C:/Users/stapi/OneDrive/Desktop/GD32VW553/V1_MQTT_OK/GD32VW55X_Wifi_BLE_SDK/GD32VW55x_RELEASE_V1.0.2/MSDK/cloud/alicloud/src/protocol/alcs\alcs_api.c **** 
 317:C:/Users/stapi/OneDrive/Desktop/GD32VW553/V1_MQTT_OK/GD32VW55X_Wifi_BLE_SDK/GD32VW55x_RELEASE_V1.0.2/MSDK/cloud/alicloud/src/protocol/alcs\alcs_api.c ****     if (len1) {
 1278              		.loc 1 317 5
 1279              		.loc 1 317 8 is_stmt 0
 1280 001e 631F0904 		bne	s2,zero,.L107
 1281              	.LVL125:
 1282              	.L110:
 318:C:/Users/stapi/OneDrive/Desktop/GD32VW553/V1_MQTT_OK/GD32VW55X_Wifi_BLE_SDK/GD32VW55x_RELEASE_V1.0.2/MSDK/cloud/alicloud/src/protocol/alcs\alcs_api.c ****         p_HAL_Aes128_t aes_e_h = HAL_Aes128_Init ((uint8_t*)key, (uint8_t*)iv, HAL_AES_ENCRYPTION);
 319:C:/Users/stapi/OneDrive/Desktop/GD32VW553/V1_MQTT_OK/GD32VW55X_Wifi_BLE_SDK/GD32VW55x_RELEASE_V1.0.2/MSDK/cloud/alicloud/src/protocol/alcs\alcs_api.c ****         ret = HAL_Aes128_Cbc_Encrypt(aes_e_h, src, len1 >> 4, out);
 320:C:/Users/stapi/OneDrive/Desktop/GD32VW553/V1_MQTT_OK/GD32VW55X_Wifi_BLE_SDK/GD32VW55x_RELEASE_V1.0.2/MSDK/cloud/alicloud/src/protocol/alcs\alcs_api.c ****         HAL_Aes128_Destroy (aes_e_h);
 321:C:/Users/stapi/OneDrive/Desktop/GD32VW553/V1_MQTT_OK/GD32VW55X_Wifi_BLE_SDK/GD32VW55x_RELEASE_V1.0.2/MSDK/cloud/alicloud/src/protocol/alcs\alcs_api.c ****     }
 322:C:/Users/stapi/OneDrive/Desktop/GD32VW553/V1_MQTT_OK/GD32VW55X_Wifi_BLE_SDK/GD32VW55x_RELEASE_V1.0.2/MSDK/cloud/alicloud/src/protocol/alcs\alcs_api.c ****     if (!ret && pad) {
 1283              		.loc 1 322 14
 1284 0022 49C8     		beq	s0,zero,.L109
 1285              	.LBB76:
 323:C:/Users/stapi/OneDrive/Desktop/GD32VW553/V1_MQTT_OK/GD32VW55X_Wifi_BLE_SDK/GD32VW55x_RELEASE_V1.0.2/MSDK/cloud/alicloud/src/protocol/alcs\alcs_api.c ****         char buf[16];
 1286              		.loc 1 323 9 is_stmt 1
 324:C:/Users/stapi/OneDrive/Desktop/GD32VW553/V1_MQTT_OK/GD32VW55X_Wifi_BLE_SDK/GD32VW55x_RELEASE_V1.0.2/MSDK/cloud/alicloud/src/protocol/alcs\alcs_api.c ****         memcpy (buf, src + len1, len - len1);
 1287              		.loc 1 324 9
 1288              		.loc 1 324 38 is_stmt 0
 1289 0024 B38B2441 		sub	s7,s1,s2
 1290              		.loc 1 324 9
 1291 0028 5E86     		mv	a2,s7
 1292 002a B3852901 		add	a1,s3,s2
 1293 002e 0A85     		mv	a0,sp
 1294 0030 97000000 		call	memcpy
 1294      E7800000 
 1295              	.LVL126:
 325:C:/Users/stapi/OneDrive/Desktop/GD32VW553/V1_MQTT_OK/GD32VW55X_Wifi_BLE_SDK/GD32VW55x_RELEASE_V1.0.2/MSDK/cloud/alicloud/src/protocol/alcs\alcs_api.c ****         memset (buf + len - len1, pad, pad);
 1296              		.loc 1 325 9 is_stmt 1
 1297 0038 2286     		mv	a2,s0
 1298 003a A285     		mv	a1,s0
 1299 003c 33057101 		add	a0,sp,s7
 1300 0040 97000000 		call	memset
 1300      E7800000 
 1301              	.LVL127:
 326:C:/Users/stapi/OneDrive/Desktop/GD32VW553/V1_MQTT_OK/GD32VW55X_Wifi_BLE_SDK/GD32VW55x_RELEASE_V1.0.2/MSDK/cloud/alicloud/src/protocol/alcs\alcs_api.c ****         p_HAL_Aes128_t aes_e_h = HAL_Aes128_Init ((uint8_t*)key, (uint8_t*)iv, HAL_AES_ENCRYPTION);
 1302              		.loc 1 326 9
 1303              		.loc 1 326 34 is_stmt 0
 1304 0048 B7050000 		lui	a1,%hi(.LC9)
 1305 004c 0146     		li	a2,0
 1306 004e 93850500 		addi	a1,a1,%lo(.LC9)
 1307 0052 5A85     		mv	a0,s6
 1308 0054 97000000 		call	HAL_Aes128_Init
 1308      E7800000 
 1309              	.LVL128:
 327:C:/Users/stapi/OneDrive/Desktop/GD32VW553/V1_MQTT_OK/GD32VW55X_Wifi_BLE_SDK/GD32VW55x_RELEASE_V1.0.2/MSDK/cloud/alicloud/src/protocol/alcs\alcs_api.c ****         ret = HAL_Aes128_Cbc_Encrypt(aes_e_h, buf, 1, (uint8_t *)out + len1);
 1310              		.loc 1 327 15
 1311 005c B3862A01 		add	a3,s5,s2
 1312 0060 0546     		li	a2,1
 1313 0062 8A85     		mv	a1,sp
 326:C:/Users/stapi/OneDrive/Desktop/GD32VW553/V1_MQTT_OK/GD32VW55X_Wifi_BLE_SDK/GD32VW55x_RELEASE_V1.0.2/MSDK/cloud/alicloud/src/protocol/alcs\alcs_api.c ****         p_HAL_Aes128_t aes_e_h = HAL_Aes128_Init ((uint8_t*)key, (uint8_t*)iv, HAL_AES_ENCRYPTION);
 1314              		.loc 1 326 34
 1315 0064 2A8B     		mv	s6,a0
 1316              	.LVL129:
 1317              		.loc 1 327 9 is_stmt 1
 1318              		.loc 1 327 15 is_stmt 0
 1319 0066 97000000 		call	HAL_Aes128_Cbc_Encrypt
 1319      E7800000 
 1320              	.LVL130:
 1321 006e 2A84     		mv	s0,a0
 1322              	.LVL131:
 328:C:/Users/stapi/OneDrive/Desktop/GD32VW553/V1_MQTT_OK/GD32VW55X_Wifi_BLE_SDK/GD32VW55x_RELEASE_V1.0.2/MSDK/cloud/alicloud/src/protocol/alcs\alcs_api.c ****         HAL_Aes128_Destroy (aes_e_h);
 1323              		.loc 1 328 9 is_stmt 1
 1324 0070 5A85     		mv	a0,s6
 1325 0072 97000000 		call	HAL_Aes128_Destroy
 1325      E7800000 
 1326              	.LVL132:
 1327 007a 2DA8     		j	.L109
 1328              	.LVL133:
 1329              	.L107:
 1330              	.LBE76:
 1331              	.LBB77:
 318:C:/Users/stapi/OneDrive/Desktop/GD32VW553/V1_MQTT_OK/GD32VW55X_Wifi_BLE_SDK/GD32VW55x_RELEASE_V1.0.2/MSDK/cloud/alicloud/src/protocol/alcs\alcs_api.c ****         ret = HAL_Aes128_Cbc_Encrypt(aes_e_h, src, len1 >> 4, out);
 1332              		.loc 1 318 9
 318:C:/Users/stapi/OneDrive/Desktop/GD32VW553/V1_MQTT_OK/GD32VW55X_Wifi_BLE_SDK/GD32VW55x_RELEASE_V1.0.2/MSDK/cloud/alicloud/src/protocol/alcs\alcs_api.c ****         ret = HAL_Aes128_Cbc_Encrypt(aes_e_h, src, len1 >> 4, out);
 1333              		.loc 1 318 34 is_stmt 0
 1334 007c B7050000 		lui	a1,%hi(.LC9)
 1335 0080 0146     		li	a2,0
 1336              	.LVL134:
 1337 0082 93850500 		addi	a1,a1,%lo(.LC9)
 1338 0086 5A85     		mv	a0,s6
 1339              	.LVL135:
 1340 0088 97000000 		call	HAL_Aes128_Init
 1340      E7800000 
 1341              	.LVL136:
 319:C:/Users/stapi/OneDrive/Desktop/GD32VW553/V1_MQTT_OK/GD32VW55X_Wifi_BLE_SDK/GD32VW55x_RELEASE_V1.0.2/MSDK/cloud/alicloud/src/protocol/alcs\alcs_api.c ****         HAL_Aes128_Destroy (aes_e_h);
 1342              		.loc 1 319 15
 1343 0090 D686     		mv	a3,s5
 1344 0092 13564940 		srai	a2,s2,4
 1345 0096 CE85     		mv	a1,s3
 318:C:/Users/stapi/OneDrive/Desktop/GD32VW553/V1_MQTT_OK/GD32VW55X_Wifi_BLE_SDK/GD32VW55x_RELEASE_V1.0.2/MSDK/cloud/alicloud/src/protocol/alcs\alcs_api.c ****         ret = HAL_Aes128_Cbc_Encrypt(aes_e_h, src, len1 >> 4, out);
 1346              		.loc 1 318 34
 1347 0098 2A8C     		mv	s8,a0
 1348              	.LVL137:
 319:C:/Users/stapi/OneDrive/Desktop/GD32VW553/V1_MQTT_OK/GD32VW55X_Wifi_BLE_SDK/GD32VW55x_RELEASE_V1.0.2/MSDK/cloud/alicloud/src/protocol/alcs\alcs_api.c ****         HAL_Aes128_Destroy (aes_e_h);
 1349              		.loc 1 319 9 is_stmt 1
 319:C:/Users/stapi/OneDrive/Desktop/GD32VW553/V1_MQTT_OK/GD32VW55X_Wifi_BLE_SDK/GD32VW55x_RELEASE_V1.0.2/MSDK/cloud/alicloud/src/protocol/alcs\alcs_api.c ****         HAL_Aes128_Destroy (aes_e_h);
 1350              		.loc 1 319 15 is_stmt 0
 1351 009a 97000000 		call	HAL_Aes128_Cbc_Encrypt
 1351      E7800000 
 1352              	.LVL138:
 1353 00a2 AA8B     		mv	s7,a0
 1354              	.LVL139:
 320:C:/Users/stapi/OneDrive/Desktop/GD32VW553/V1_MQTT_OK/GD32VW55X_Wifi_BLE_SDK/GD32VW55x_RELEASE_V1.0.2/MSDK/cloud/alicloud/src/protocol/alcs\alcs_api.c ****     }
 1355              		.loc 1 320 9 is_stmt 1
 1356 00a4 6285     		mv	a0,s8
 1357              	.LVL140:
 1358 00a6 97000000 		call	HAL_Aes128_Destroy
 1358      E7800000 
 1359              	.LVL141:
 1360              	.LBE77:
 322:C:/Users/stapi/OneDrive/Desktop/GD32VW553/V1_MQTT_OK/GD32VW55X_Wifi_BLE_SDK/GD32VW55x_RELEASE_V1.0.2/MSDK/cloud/alicloud/src/protocol/alcs\alcs_api.c ****         char buf[16];
 1361              		.loc 1 322 5
 322:C:/Users/stapi/OneDrive/Desktop/GD32VW553/V1_MQTT_OK/GD32VW55X_Wifi_BLE_SDK/GD32VW55x_RELEASE_V1.0.2/MSDK/cloud/alicloud/src/protocol/alcs\alcs_api.c ****         char buf[16];
 1362              		.loc 1 322 8 is_stmt 0
 1363 00ae E38A0BF6 		beq	s7,zero,.L110
 1364 00b2 5E84     		mv	s0,s7
 1365              	.LVL142:
 1366              	.L109:
 329:C:/Users/stapi/OneDrive/Desktop/GD32VW553/V1_MQTT_OK/GD32VW55X_Wifi_BLE_SDK/GD32VW55x_RELEASE_V1.0.2/MSDK/cloud/alicloud/src/protocol/alcs\alcs_api.c ****     }
 330:C:/Users/stapi/OneDrive/Desktop/GD32VW553/V1_MQTT_OK/GD32VW55X_Wifi_BLE_SDK/GD32VW55x_RELEASE_V1.0.2/MSDK/cloud/alicloud/src/protocol/alcs\alcs_api.c **** 
 331:C:/Users/stapi/OneDrive/Desktop/GD32VW553/V1_MQTT_OK/GD32VW55X_Wifi_BLE_SDK/GD32VW55x_RELEASE_V1.0.2/MSDK/cloud/alicloud/src/protocol/alcs\alcs_api.c ****     COAP_DEBUG ("to encrypt src:%.*s, len:%d", len, src, len2);
 1367              		.loc 1 331 5 is_stmt 1
 1368 00b4 37070000 		lui	a4,%hi(.LC10)
 1369 00b8 B7050000 		lui	a1,%hi(.LANCHOR6)
 1370 00bc 37050000 		lui	a0,%hi(.LC6)
 1371 00c0 D288     		mv	a7,s4
 1372 00c2 4E88     		mv	a6,s3
 1373 00c4 A687     		mv	a5,s1
 1374 00c6 13070700 		addi	a4,a4,%lo(.LC10)
 1375 00ca 9546     		li	a3,5
 1376 00cc 1306B014 		li	a2,331
 1377 00d0 93850500 		addi	a1,a1,%lo(.LANCHOR6)
 1378 00d4 13050500 		addi	a0,a0,%lo(.LC6)
 1379 00d8 97000000 		call	LITE_syslog
 1379      E7800000 
 1380              	.LVL143:
 332:C:/Users/stapi/OneDrive/Desktop/GD32VW553/V1_MQTT_OK/GD32VW55X_Wifi_BLE_SDK/GD32VW55x_RELEASE_V1.0.2/MSDK/cloud/alicloud/src/protocol/alcs\alcs_api.c ****     return ret == 0? len2 : 0;
 1381              		.loc 1 332 5
 1382              		.loc 1 332 27 is_stmt 0
 1383 00e0 11C0     		beq	s0,zero,.L106
 1384 00e2 014A     		li	s4,0
 1385              	.LVL144:
 1386              	.L106:
 333:C:/Users/stapi/OneDrive/Desktop/GD32VW553/V1_MQTT_OK/GD32VW55X_Wifi_BLE_SDK/GD32VW55x_RELEASE_V1.0.2/MSDK/cloud/alicloud/src/protocol/alcs\alcs_api.c **** }
 1387              		.loc 1 333 1
 1388 00e4 5285     		mv	a0,s4
 1389 00e6 4101     		addi	sp,sp,16
 1390              		.cfi_def_cfa_offset 0
 1391 00e8 17030000 		tail	__riscv_restore_9
 1391      67000300 
 1392              		.cfi_restore 24
 1393              		.cfi_restore 23
 1394              		.cfi_restore 22
 1395              		.cfi_restore 21
 1396              		.cfi_restore 20
 1397              		.cfi_restore 19
 1398              		.cfi_restore 18
 1399              		.cfi_restore 9
 1400              		.cfi_restore 8
 1401              		.cfi_restore 1
 1402              		.cfi_def_cfa_offset -48
 1403              		.cfi_endproc
 1404              	.LFE36:
 1406              		.section	.rodata.do_secure_send.str1.4,"aMS",@progbits,1
 1407              		.align	2
 1408              	.LC11:
 1409 0000 646F5F73 		.string	"do_secure_send"
 1409      65637572 
 1409      655F7365 
 1409      6E6400
 1410              		.section	.text.do_secure_send,"ax",@progbits
 1411              		.align	1
 1413              	do_secure_send:
 1414              	.LFB39:
 334:C:/Users/stapi/OneDrive/Desktop/GD32VW553/V1_MQTT_OK/GD32VW55X_Wifi_BLE_SDK/GD32VW55x_RELEASE_V1.0.2/MSDK/cloud/alicloud/src/protocol/alcs\alcs_api.c **** 
 335:C:/Users/stapi/OneDrive/Desktop/GD32VW553/V1_MQTT_OK/GD32VW55X_Wifi_BLE_SDK/GD32VW55x_RELEASE_V1.0.2/MSDK/cloud/alicloud/src/protocol/alcs\alcs_api.c **** int alcs_decrypt (const char* src, int len, const char* key, void* out)
 336:C:/Users/stapi/OneDrive/Desktop/GD32VW553/V1_MQTT_OK/GD32VW55X_Wifi_BLE_SDK/GD32VW55x_RELEASE_V1.0.2/MSDK/cloud/alicloud/src/protocol/alcs\alcs_api.c **** {
 337:C:/Users/stapi/OneDrive/Desktop/GD32VW553/V1_MQTT_OK/GD32VW55X_Wifi_BLE_SDK/GD32VW55x_RELEASE_V1.0.2/MSDK/cloud/alicloud/src/protocol/alcs\alcs_api.c ****     COAP_DEBUG ("to decrypt len:%d", len);
 338:C:/Users/stapi/OneDrive/Desktop/GD32VW553/V1_MQTT_OK/GD32VW55X_Wifi_BLE_SDK/GD32VW55x_RELEASE_V1.0.2/MSDK/cloud/alicloud/src/protocol/alcs\alcs_api.c ****     char* iv = "a1b1c1d1e1f1g1h1";
 339:C:/Users/stapi/OneDrive/Desktop/GD32VW553/V1_MQTT_OK/GD32VW55X_Wifi_BLE_SDK/GD32VW55x_RELEASE_V1.0.2/MSDK/cloud/alicloud/src/protocol/alcs\alcs_api.c **** 
 340:C:/Users/stapi/OneDrive/Desktop/GD32VW553/V1_MQTT_OK/GD32VW55X_Wifi_BLE_SDK/GD32VW55x_RELEASE_V1.0.2/MSDK/cloud/alicloud/src/protocol/alcs\alcs_api.c ****     p_HAL_Aes128_t aes_d_h;
 341:C:/Users/stapi/OneDrive/Desktop/GD32VW553/V1_MQTT_OK/GD32VW55X_Wifi_BLE_SDK/GD32VW55x_RELEASE_V1.0.2/MSDK/cloud/alicloud/src/protocol/alcs\alcs_api.c ****     int ret = 0;
 342:C:/Users/stapi/OneDrive/Desktop/GD32VW553/V1_MQTT_OK/GD32VW55X_Wifi_BLE_SDK/GD32VW55x_RELEASE_V1.0.2/MSDK/cloud/alicloud/src/protocol/alcs\alcs_api.c ****     int n = len >> 4;
 343:C:/Users/stapi/OneDrive/Desktop/GD32VW553/V1_MQTT_OK/GD32VW55X_Wifi_BLE_SDK/GD32VW55x_RELEASE_V1.0.2/MSDK/cloud/alicloud/src/protocol/alcs\alcs_api.c ****         
 344:C:/Users/stapi/OneDrive/Desktop/GD32VW553/V1_MQTT_OK/GD32VW55X_Wifi_BLE_SDK/GD32VW55x_RELEASE_V1.0.2/MSDK/cloud/alicloud/src/protocol/alcs\alcs_api.c ****     do {
 345:C:/Users/stapi/OneDrive/Desktop/GD32VW553/V1_MQTT_OK/GD32VW55X_Wifi_BLE_SDK/GD32VW55x_RELEASE_V1.0.2/MSDK/cloud/alicloud/src/protocol/alcs\alcs_api.c ****         if (n > 1) {
 346:C:/Users/stapi/OneDrive/Desktop/GD32VW553/V1_MQTT_OK/GD32VW55X_Wifi_BLE_SDK/GD32VW55x_RELEASE_V1.0.2/MSDK/cloud/alicloud/src/protocol/alcs\alcs_api.c ****             aes_d_h  = HAL_Aes128_Init ((uint8_t*)key, (uint8_t*)iv, HAL_AES_DECRYPTION);
 347:C:/Users/stapi/OneDrive/Desktop/GD32VW553/V1_MQTT_OK/GD32VW55X_Wifi_BLE_SDK/GD32VW55x_RELEASE_V1.0.2/MSDK/cloud/alicloud/src/protocol/alcs\alcs_api.c ****             if (!aes_d_h) {
 348:C:/Users/stapi/OneDrive/Desktop/GD32VW553/V1_MQTT_OK/GD32VW55X_Wifi_BLE_SDK/GD32VW55x_RELEASE_V1.0.2/MSDK/cloud/alicloud/src/protocol/alcs\alcs_api.c ****                 COAP_ERR ("fail to decrypt init");
 349:C:/Users/stapi/OneDrive/Desktop/GD32VW553/V1_MQTT_OK/GD32VW55X_Wifi_BLE_SDK/GD32VW55x_RELEASE_V1.0.2/MSDK/cloud/alicloud/src/protocol/alcs\alcs_api.c ****                 break;
 350:C:/Users/stapi/OneDrive/Desktop/GD32VW553/V1_MQTT_OK/GD32VW55X_Wifi_BLE_SDK/GD32VW55x_RELEASE_V1.0.2/MSDK/cloud/alicloud/src/protocol/alcs\alcs_api.c ****             }   
 351:C:/Users/stapi/OneDrive/Desktop/GD32VW553/V1_MQTT_OK/GD32VW55X_Wifi_BLE_SDK/GD32VW55x_RELEASE_V1.0.2/MSDK/cloud/alicloud/src/protocol/alcs\alcs_api.c **** 
 352:C:/Users/stapi/OneDrive/Desktop/GD32VW553/V1_MQTT_OK/GD32VW55X_Wifi_BLE_SDK/GD32VW55x_RELEASE_V1.0.2/MSDK/cloud/alicloud/src/protocol/alcs\alcs_api.c ****             ret = HAL_Aes128_Cbc_Decrypt(aes_d_h, src, n - 1, out);
 353:C:/Users/stapi/OneDrive/Desktop/GD32VW553/V1_MQTT_OK/GD32VW55X_Wifi_BLE_SDK/GD32VW55x_RELEASE_V1.0.2/MSDK/cloud/alicloud/src/protocol/alcs\alcs_api.c ****             HAL_Aes128_Destroy(aes_d_h);
 354:C:/Users/stapi/OneDrive/Desktop/GD32VW553/V1_MQTT_OK/GD32VW55X_Wifi_BLE_SDK/GD32VW55x_RELEASE_V1.0.2/MSDK/cloud/alicloud/src/protocol/alcs\alcs_api.c **** 
 355:C:/Users/stapi/OneDrive/Desktop/GD32VW553/V1_MQTT_OK/GD32VW55X_Wifi_BLE_SDK/GD32VW55x_RELEASE_V1.0.2/MSDK/cloud/alicloud/src/protocol/alcs\alcs_api.c ****             if (ret != 0){ 
 356:C:/Users/stapi/OneDrive/Desktop/GD32VW553/V1_MQTT_OK/GD32VW55X_Wifi_BLE_SDK/GD32VW55x_RELEASE_V1.0.2/MSDK/cloud/alicloud/src/protocol/alcs\alcs_api.c ****                 COAP_ERR ("fail to decrypt");
 357:C:/Users/stapi/OneDrive/Desktop/GD32VW553/V1_MQTT_OK/GD32VW55X_Wifi_BLE_SDK/GD32VW55x_RELEASE_V1.0.2/MSDK/cloud/alicloud/src/protocol/alcs\alcs_api.c ****                 break;
 358:C:/Users/stapi/OneDrive/Desktop/GD32VW553/V1_MQTT_OK/GD32VW55X_Wifi_BLE_SDK/GD32VW55x_RELEASE_V1.0.2/MSDK/cloud/alicloud/src/protocol/alcs\alcs_api.c ****             }   
 359:C:/Users/stapi/OneDrive/Desktop/GD32VW553/V1_MQTT_OK/GD32VW55X_Wifi_BLE_SDK/GD32VW55x_RELEASE_V1.0.2/MSDK/cloud/alicloud/src/protocol/alcs\alcs_api.c ****         }   
 360:C:/Users/stapi/OneDrive/Desktop/GD32VW553/V1_MQTT_OK/GD32VW55X_Wifi_BLE_SDK/GD32VW55x_RELEASE_V1.0.2/MSDK/cloud/alicloud/src/protocol/alcs\alcs_api.c **** 
 361:C:/Users/stapi/OneDrive/Desktop/GD32VW553/V1_MQTT_OK/GD32VW55X_Wifi_BLE_SDK/GD32VW55x_RELEASE_V1.0.2/MSDK/cloud/alicloud/src/protocol/alcs\alcs_api.c ****         char* out_c = (char*)out;
 362:C:/Users/stapi/OneDrive/Desktop/GD32VW553/V1_MQTT_OK/GD32VW55X_Wifi_BLE_SDK/GD32VW55x_RELEASE_V1.0.2/MSDK/cloud/alicloud/src/protocol/alcs\alcs_api.c ****         int offset = n > 0? ((n - 1) << 4) : 0;
 363:C:/Users/stapi/OneDrive/Desktop/GD32VW553/V1_MQTT_OK/GD32VW55X_Wifi_BLE_SDK/GD32VW55x_RELEASE_V1.0.2/MSDK/cloud/alicloud/src/protocol/alcs\alcs_api.c ****         out_c[offset] = 0;
 364:C:/Users/stapi/OneDrive/Desktop/GD32VW553/V1_MQTT_OK/GD32VW55X_Wifi_BLE_SDK/GD32VW55x_RELEASE_V1.0.2/MSDK/cloud/alicloud/src/protocol/alcs\alcs_api.c **** 
 365:C:/Users/stapi/OneDrive/Desktop/GD32VW553/V1_MQTT_OK/GD32VW55X_Wifi_BLE_SDK/GD32VW55x_RELEASE_V1.0.2/MSDK/cloud/alicloud/src/protocol/alcs\alcs_api.c ****         aes_d_h  = HAL_Aes128_Init ((uint8_t*)key, (uint8_t*)iv, HAL_AES_DECRYPTION);
 366:C:/Users/stapi/OneDrive/Desktop/GD32VW553/V1_MQTT_OK/GD32VW55X_Wifi_BLE_SDK/GD32VW55x_RELEASE_V1.0.2/MSDK/cloud/alicloud/src/protocol/alcs\alcs_api.c ****         if (!aes_d_h) {
 367:C:/Users/stapi/OneDrive/Desktop/GD32VW553/V1_MQTT_OK/GD32VW55X_Wifi_BLE_SDK/GD32VW55x_RELEASE_V1.0.2/MSDK/cloud/alicloud/src/protocol/alcs\alcs_api.c ****             COAP_ERR ("fail to decrypt init");
 368:C:/Users/stapi/OneDrive/Desktop/GD32VW553/V1_MQTT_OK/GD32VW55X_Wifi_BLE_SDK/GD32VW55x_RELEASE_V1.0.2/MSDK/cloud/alicloud/src/protocol/alcs\alcs_api.c ****             break;
 369:C:/Users/stapi/OneDrive/Desktop/GD32VW553/V1_MQTT_OK/GD32VW55X_Wifi_BLE_SDK/GD32VW55x_RELEASE_V1.0.2/MSDK/cloud/alicloud/src/protocol/alcs\alcs_api.c ****         }   
 370:C:/Users/stapi/OneDrive/Desktop/GD32VW553/V1_MQTT_OK/GD32VW55X_Wifi_BLE_SDK/GD32VW55x_RELEASE_V1.0.2/MSDK/cloud/alicloud/src/protocol/alcs\alcs_api.c **** 
 371:C:/Users/stapi/OneDrive/Desktop/GD32VW553/V1_MQTT_OK/GD32VW55X_Wifi_BLE_SDK/GD32VW55x_RELEASE_V1.0.2/MSDK/cloud/alicloud/src/protocol/alcs\alcs_api.c ****         ret = HAL_Aes128_Cbc_Decrypt(aes_d_h, src + offset, 1, out_c + offset);
 372:C:/Users/stapi/OneDrive/Desktop/GD32VW553/V1_MQTT_OK/GD32VW55X_Wifi_BLE_SDK/GD32VW55x_RELEASE_V1.0.2/MSDK/cloud/alicloud/src/protocol/alcs\alcs_api.c ****         HAL_Aes128_Destroy(aes_d_h);
 373:C:/Users/stapi/OneDrive/Desktop/GD32VW553/V1_MQTT_OK/GD32VW55X_Wifi_BLE_SDK/GD32VW55x_RELEASE_V1.0.2/MSDK/cloud/alicloud/src/protocol/alcs\alcs_api.c **** 
 374:C:/Users/stapi/OneDrive/Desktop/GD32VW553/V1_MQTT_OK/GD32VW55X_Wifi_BLE_SDK/GD32VW55x_RELEASE_V1.0.2/MSDK/cloud/alicloud/src/protocol/alcs\alcs_api.c ****         if (ret != 0) {
 375:C:/Users/stapi/OneDrive/Desktop/GD32VW553/V1_MQTT_OK/GD32VW55X_Wifi_BLE_SDK/GD32VW55x_RELEASE_V1.0.2/MSDK/cloud/alicloud/src/protocol/alcs\alcs_api.c ****             COAP_ERR ("fail to decrypt remain data");
 376:C:/Users/stapi/OneDrive/Desktop/GD32VW553/V1_MQTT_OK/GD32VW55X_Wifi_BLE_SDK/GD32VW55x_RELEASE_V1.0.2/MSDK/cloud/alicloud/src/protocol/alcs\alcs_api.c ****             break;
 377:C:/Users/stapi/OneDrive/Desktop/GD32VW553/V1_MQTT_OK/GD32VW55X_Wifi_BLE_SDK/GD32VW55x_RELEASE_V1.0.2/MSDK/cloud/alicloud/src/protocol/alcs\alcs_api.c ****         }   
 378:C:/Users/stapi/OneDrive/Desktop/GD32VW553/V1_MQTT_OK/GD32VW55X_Wifi_BLE_SDK/GD32VW55x_RELEASE_V1.0.2/MSDK/cloud/alicloud/src/protocol/alcs\alcs_api.c **** 
 379:C:/Users/stapi/OneDrive/Desktop/GD32VW553/V1_MQTT_OK/GD32VW55X_Wifi_BLE_SDK/GD32VW55x_RELEASE_V1.0.2/MSDK/cloud/alicloud/src/protocol/alcs\alcs_api.c ****         char pad = out_c[len - 1]; 
 380:C:/Users/stapi/OneDrive/Desktop/GD32VW553/V1_MQTT_OK/GD32VW55X_Wifi_BLE_SDK/GD32VW55x_RELEASE_V1.0.2/MSDK/cloud/alicloud/src/protocol/alcs\alcs_api.c ****         out_c[len - pad] = 0;
 381:C:/Users/stapi/OneDrive/Desktop/GD32VW553/V1_MQTT_OK/GD32VW55X_Wifi_BLE_SDK/GD32VW55x_RELEASE_V1.0.2/MSDK/cloud/alicloud/src/protocol/alcs\alcs_api.c ****         COAP_DEBUG ("decrypt data:%s, len:%d", out_c, len - pad);
 382:C:/Users/stapi/OneDrive/Desktop/GD32VW553/V1_MQTT_OK/GD32VW55X_Wifi_BLE_SDK/GD32VW55x_RELEASE_V1.0.2/MSDK/cloud/alicloud/src/protocol/alcs\alcs_api.c ****         return len - pad;
 383:C:/Users/stapi/OneDrive/Desktop/GD32VW553/V1_MQTT_OK/GD32VW55X_Wifi_BLE_SDK/GD32VW55x_RELEASE_V1.0.2/MSDK/cloud/alicloud/src/protocol/alcs\alcs_api.c ****     } while (0);
 384:C:/Users/stapi/OneDrive/Desktop/GD32VW553/V1_MQTT_OK/GD32VW55X_Wifi_BLE_SDK/GD32VW55x_RELEASE_V1.0.2/MSDK/cloud/alicloud/src/protocol/alcs\alcs_api.c ****     
 385:C:/Users/stapi/OneDrive/Desktop/GD32VW553/V1_MQTT_OK/GD32VW55X_Wifi_BLE_SDK/GD32VW55x_RELEASE_V1.0.2/MSDK/cloud/alicloud/src/protocol/alcs\alcs_api.c ****     return 0;
 386:C:/Users/stapi/OneDrive/Desktop/GD32VW553/V1_MQTT_OK/GD32VW55X_Wifi_BLE_SDK/GD32VW55x_RELEASE_V1.0.2/MSDK/cloud/alicloud/src/protocol/alcs\alcs_api.c **** }
 387:C:/Users/stapi/OneDrive/Desktop/GD32VW553/V1_MQTT_OK/GD32VW55X_Wifi_BLE_SDK/GD32VW55x_RELEASE_V1.0.2/MSDK/cloud/alicloud/src/protocol/alcs\alcs_api.c **** 
 388:C:/Users/stapi/OneDrive/Desktop/GD32VW553/V1_MQTT_OK/GD32VW55X_Wifi_BLE_SDK/GD32VW55x_RELEASE_V1.0.2/MSDK/cloud/alicloud/src/protocol/alcs\alcs_api.c **** bool alcs_is_auth (CoAPContext *ctx, AlcsDeviceKey* devKey)
 389:C:/Users/stapi/OneDrive/Desktop/GD32VW553/V1_MQTT_OK/GD32VW55X_Wifi_BLE_SDK/GD32VW55x_RELEASE_V1.0.2/MSDK/cloud/alicloud/src/protocol/alcs\alcs_api.c **** {
 390:C:/Users/stapi/OneDrive/Desktop/GD32VW553/V1_MQTT_OK/GD32VW55X_Wifi_BLE_SDK/GD32VW55x_RELEASE_V1.0.2/MSDK/cloud/alicloud/src/protocol/alcs\alcs_api.c ****     return get_auth_session(devKey) != NULL;
 391:C:/Users/stapi/OneDrive/Desktop/GD32VW553/V1_MQTT_OK/GD32VW55X_Wifi_BLE_SDK/GD32VW55x_RELEASE_V1.0.2/MSDK/cloud/alicloud/src/protocol/alcs\alcs_api.c **** }
 392:C:/Users/stapi/OneDrive/Desktop/GD32VW553/V1_MQTT_OK/GD32VW55X_Wifi_BLE_SDK/GD32VW55x_RELEASE_V1.0.2/MSDK/cloud/alicloud/src/protocol/alcs\alcs_api.c **** 
 393:C:/Users/stapi/OneDrive/Desktop/GD32VW553/V1_MQTT_OK/GD32VW55X_Wifi_BLE_SDK/GD32VW55x_RELEASE_V1.0.2/MSDK/cloud/alicloud/src/protocol/alcs\alcs_api.c **** /*---------------------------------------------------------*/
 394:C:/Users/stapi/OneDrive/Desktop/GD32VW553/V1_MQTT_OK/GD32VW55X_Wifi_BLE_SDK/GD32VW55x_RELEASE_V1.0.2/MSDK/cloud/alicloud/src/protocol/alcs\alcs_api.c **** typedef struct
 395:C:/Users/stapi/OneDrive/Desktop/GD32VW553/V1_MQTT_OK/GD32VW55X_Wifi_BLE_SDK/GD32VW55x_RELEASE_V1.0.2/MSDK/cloud/alicloud/src/protocol/alcs\alcs_api.c **** {
 396:C:/Users/stapi/OneDrive/Desktop/GD32VW553/V1_MQTT_OK/GD32VW55X_Wifi_BLE_SDK/GD32VW55x_RELEASE_V1.0.2/MSDK/cloud/alicloud/src/protocol/alcs\alcs_api.c ****     void* orig_user_data;
 397:C:/Users/stapi/OneDrive/Desktop/GD32VW553/V1_MQTT_OK/GD32VW55X_Wifi_BLE_SDK/GD32VW55x_RELEASE_V1.0.2/MSDK/cloud/alicloud/src/protocol/alcs\alcs_api.c ****     char pk_dn[PK_DN_CHECKSUM_LEN];
 398:C:/Users/stapi/OneDrive/Desktop/GD32VW553/V1_MQTT_OK/GD32VW55X_Wifi_BLE_SDK/GD32VW55x_RELEASE_V1.0.2/MSDK/cloud/alicloud/src/protocol/alcs\alcs_api.c ****     CoAPSendMsgHandler orig_handler;
 399:C:/Users/stapi/OneDrive/Desktop/GD32VW553/V1_MQTT_OK/GD32VW55X_Wifi_BLE_SDK/GD32VW55x_RELEASE_V1.0.2/MSDK/cloud/alicloud/src/protocol/alcs\alcs_api.c **** } secure_send_item;
 400:C:/Users/stapi/OneDrive/Desktop/GD32VW553/V1_MQTT_OK/GD32VW55X_Wifi_BLE_SDK/GD32VW55x_RELEASE_V1.0.2/MSDK/cloud/alicloud/src/protocol/alcs\alcs_api.c **** 
 401:C:/Users/stapi/OneDrive/Desktop/GD32VW553/V1_MQTT_OK/GD32VW55X_Wifi_BLE_SDK/GD32VW55x_RELEASE_V1.0.2/MSDK/cloud/alicloud/src/protocol/alcs\alcs_api.c **** static int do_secure_send (CoAPContext *ctx, NetworkAddr* addr, CoAPMessage *message, const char* k
 402:C:/Users/stapi/OneDrive/Desktop/GD32VW553/V1_MQTT_OK/GD32VW55X_Wifi_BLE_SDK/GD32VW55x_RELEASE_V1.0.2/MSDK/cloud/alicloud/src/protocol/alcs\alcs_api.c **** {
 1415              		.loc 1 402 1 is_stmt 1
 1416              		.cfi_startproc
 1417              	.LVL145:
 1418 0000 17030000 		call	t0,__riscv_save_7
 1418      E7020300 
 1419              		.cfi_offset 22, -32
 1420              		.cfi_offset 21, -28
 1421              		.cfi_offset 20, -24
 1422              		.cfi_offset 19, -20
 1423              		.cfi_offset 18, -16
 1424              		.cfi_offset 9, -12
 1425              		.cfi_offset 8, -8
 1426              		.cfi_offset 1, -4
 1427              		.cfi_def_cfa_offset 32
 403:C:/Users/stapi/OneDrive/Desktop/GD32VW553/V1_MQTT_OK/GD32VW55X_Wifi_BLE_SDK/GD32VW55x_RELEASE_V1.0.2/MSDK/cloud/alicloud/src/protocol/alcs\alcs_api.c ****     int ret = COAP_SUCCESS;
 1428              		.loc 1 403 5
 1429              	.LVL146:
 404:C:/Users/stapi/OneDrive/Desktop/GD32VW553/V1_MQTT_OK/GD32VW55X_Wifi_BLE_SDK/GD32VW55x_RELEASE_V1.0.2/MSDK/cloud/alicloud/src/protocol/alcs\alcs_api.c ****     COAP_DEBUG("do_secure_send");
 1430              		.loc 1 404 5
 402:C:/Users/stapi/OneDrive/Desktop/GD32VW553/V1_MQTT_OK/GD32VW55X_Wifi_BLE_SDK/GD32VW55x_RELEASE_V1.0.2/MSDK/cloud/alicloud/src/protocol/alcs\alcs_api.c ****     int ret = COAP_SUCCESS;
 1431              		.loc 1 402 1 is_stmt 0
 1432 0008 2A89     		mv	s2,a0
 1433 000a AE89     		mv	s3,a1
 1434              		.loc 1 404 5
 1435 000c 37070000 		lui	a4,%hi(.LC11)
 1436 0010 B7050000 		lui	a1,%hi(.LANCHOR7)
 1437              	.LVL147:
 1438 0014 37050000 		lui	a0,%hi(.LC6)
 1439              	.LVL148:
 402:C:/Users/stapi/OneDrive/Desktop/GD32VW553/V1_MQTT_OK/GD32VW55X_Wifi_BLE_SDK/GD32VW55x_RELEASE_V1.0.2/MSDK/cloud/alicloud/src/protocol/alcs\alcs_api.c ****     int ret = COAP_SUCCESS;
 1440              		.loc 1 402 1
 1441 0018 3284     		mv	s0,a2
 1442              		.loc 1 404 5
 1443 001a 13070700 		addi	a4,a4,%lo(.LC11)
 402:C:/Users/stapi/OneDrive/Desktop/GD32VW553/V1_MQTT_OK/GD32VW55X_Wifi_BLE_SDK/GD32VW55x_RELEASE_V1.0.2/MSDK/cloud/alicloud/src/protocol/alcs\alcs_api.c ****     int ret = COAP_SUCCESS;
 1444              		.loc 1 402 1
 1445 001e 368A     		mv	s4,a3
 1446              		.loc 1 404 5
 1447 0020 13064019 		li	a2,404
 1448              	.LVL149:
 1449 0024 9546     		li	a3,5
 1450              	.LVL150:
 1451 0026 93850500 		addi	a1,a1,%lo(.LANCHOR7)
 1452 002a 13050500 		addi	a0,a0,%lo(.LC6)
 1453 002e 97000000 		call	LITE_syslog
 1453      E7800000 
 1454              	.LVL151:
 405:C:/Users/stapi/OneDrive/Desktop/GD32VW553/V1_MQTT_OK/GD32VW55X_Wifi_BLE_SDK/GD32VW55x_RELEASE_V1.0.2/MSDK/cloud/alicloud/src/protocol/alcs\alcs_api.c **** 
 406:C:/Users/stapi/OneDrive/Desktop/GD32VW553/V1_MQTT_OK/GD32VW55X_Wifi_BLE_SDK/GD32VW55x_RELEASE_V1.0.2/MSDK/cloud/alicloud/src/protocol/alcs\alcs_api.c ****     int encryptlen = (message->payloadlen & 0xfffffff0) + 16;
 1455              		.loc 1 406 5 is_stmt 1
 407:C:/Users/stapi/OneDrive/Desktop/GD32VW553/V1_MQTT_OK/GD32VW55X_Wifi_BLE_SDK/GD32VW55x_RELEASE_V1.0.2/MSDK/cloud/alicloud/src/protocol/alcs\alcs_api.c ****     char* buf = (char*)coap_malloc(encryptlen);
 1456              		.loc 1 407 5
 406:C:/Users/stapi/OneDrive/Desktop/GD32VW553/V1_MQTT_OK/GD32VW55X_Wifi_BLE_SDK/GD32VW55x_RELEASE_V1.0.2/MSDK/cloud/alicloud/src/protocol/alcs\alcs_api.c ****     char* buf = (char*)coap_malloc(encryptlen);
 1457              		.loc 1 406 30 is_stmt 0
 1458 0036 0356E406 		lhu	a2,110(s0)
 1459              		.loc 1 407 24
 1460 003a 8145     		li	a1,0
 1461 003c 0145     		li	a0,0
 406:C:/Users/stapi/OneDrive/Desktop/GD32VW553/V1_MQTT_OK/GD32VW55X_Wifi_BLE_SDK/GD32VW55x_RELEASE_V1.0.2/MSDK/cloud/alicloud/src/protocol/alcs\alcs_api.c ****     char* buf = (char*)coap_malloc(encryptlen);
 1462              		.loc 1 406 43
 1463 003e 419A     		andi	a2,a2,-16
 1464              		.loc 1 407 24
 1465 0040 4106     		addi	a2,a2,16
 1466 0042 97000000 		call	LITE_malloc_internal
 1466      E7800000 
 1467              	.LVL152:
 408:C:/Users/stapi/OneDrive/Desktop/GD32VW553/V1_MQTT_OK/GD32VW55X_Wifi_BLE_SDK/GD32VW55x_RELEASE_V1.0.2/MSDK/cloud/alicloud/src/protocol/alcs\alcs_api.c **** 
 409:C:/Users/stapi/OneDrive/Desktop/GD32VW553/V1_MQTT_OK/GD32VW55X_Wifi_BLE_SDK/GD32VW55x_RELEASE_V1.0.2/MSDK/cloud/alicloud/src/protocol/alcs\alcs_api.c ****     void* payload_old = message->payload;
 1468              		.loc 1 409 11
 1469 004a 032B0407 		lw	s6,112(s0)
 410:C:/Users/stapi/OneDrive/Desktop/GD32VW553/V1_MQTT_OK/GD32VW55X_Wifi_BLE_SDK/GD32VW55x_RELEASE_V1.0.2/MSDK/cloud/alicloud/src/protocol/alcs\alcs_api.c ****     int len_old = message->payloadlen;
 1470              		.loc 1 410 26
 1471 004e 835AE406 		lhu	s5,110(s0)
 411:C:/Users/stapi/OneDrive/Desktop/GD32VW553/V1_MQTT_OK/GD32VW55X_Wifi_BLE_SDK/GD32VW55x_RELEASE_V1.0.2/MSDK/cloud/alicloud/src/protocol/alcs\alcs_api.c **** 
 412:C:/Users/stapi/OneDrive/Desktop/GD32VW553/V1_MQTT_OK/GD32VW55X_Wifi_BLE_SDK/GD32VW55x_RELEASE_V1.0.2/MSDK/cloud/alicloud/src/protocol/alcs\alcs_api.c ****     message->payload = (unsigned char *)buf;
 413:C:/Users/stapi/OneDrive/Desktop/GD32VW553/V1_MQTT_OK/GD32VW55X_Wifi_BLE_SDK/GD32VW55x_RELEASE_V1.0.2/MSDK/cloud/alicloud/src/protocol/alcs\alcs_api.c ****     message->payloadlen = alcs_encrypt ((const char *)payload_old, len_old, key, message->payload);
 1472              		.loc 1 413 27
 1473 0052 AA86     		mv	a3,a0
 407:C:/Users/stapi/OneDrive/Desktop/GD32VW553/V1_MQTT_OK/GD32VW55X_Wifi_BLE_SDK/GD32VW55x_RELEASE_V1.0.2/MSDK/cloud/alicloud/src/protocol/alcs\alcs_api.c **** 
 1474              		.loc 1 407 24
 1475 0054 AA84     		mv	s1,a0
 1476              	.LVL153:
 409:C:/Users/stapi/OneDrive/Desktop/GD32VW553/V1_MQTT_OK/GD32VW55X_Wifi_BLE_SDK/GD32VW55x_RELEASE_V1.0.2/MSDK/cloud/alicloud/src/protocol/alcs\alcs_api.c ****     int len_old = message->payloadlen;
 1477              		.loc 1 409 5 is_stmt 1
 410:C:/Users/stapi/OneDrive/Desktop/GD32VW553/V1_MQTT_OK/GD32VW55X_Wifi_BLE_SDK/GD32VW55x_RELEASE_V1.0.2/MSDK/cloud/alicloud/src/protocol/alcs\alcs_api.c **** 
 1478              		.loc 1 410 5
 412:C:/Users/stapi/OneDrive/Desktop/GD32VW553/V1_MQTT_OK/GD32VW55X_Wifi_BLE_SDK/GD32VW55x_RELEASE_V1.0.2/MSDK/cloud/alicloud/src/protocol/alcs\alcs_api.c ****     message->payloadlen = alcs_encrypt ((const char *)payload_old, len_old, key, message->payload);
 1479              		.loc 1 412 5
 412:C:/Users/stapi/OneDrive/Desktop/GD32VW553/V1_MQTT_OK/GD32VW55X_Wifi_BLE_SDK/GD32VW55x_RELEASE_V1.0.2/MSDK/cloud/alicloud/src/protocol/alcs\alcs_api.c ****     message->payloadlen = alcs_encrypt ((const char *)payload_old, len_old, key, message->payload);
 1480              		.loc 1 412 22 is_stmt 0
 1481 0056 28D8     		sw	a0,112(s0)
 1482              		.loc 1 413 5 is_stmt 1
 1483              		.loc 1 413 27 is_stmt 0
 1484 0058 5286     		mv	a2,s4
 1485 005a D685     		mv	a1,s5
 1486 005c 5A85     		mv	a0,s6
 1487 005e 97000000 		call	alcs_encrypt
 1487      E7800000 
 1488              	.LVL154:
 1489              		.loc 1 413 25
 1490 0066 2317A406 		sh	a0,110(s0)
 414:C:/Users/stapi/OneDrive/Desktop/GD32VW553/V1_MQTT_OK/GD32VW55X_Wifi_BLE_SDK/GD32VW55x_RELEASE_V1.0.2/MSDK/cloud/alicloud/src/protocol/alcs\alcs_api.c ****     ret = CoAPMessage_send (ctx, addr, message);
 1491              		.loc 1 414 5 is_stmt 1
 1492              		.loc 1 414 11 is_stmt 0
 1493 006a 2286     		mv	a2,s0
 1494 006c CE85     		mv	a1,s3
 1495 006e 4A85     		mv	a0,s2
 1496 0070 97000000 		call	CoAPMessage_send
 1496      E7800000 
 1497              	.LVL155:
 1498 0078 2A89     		mv	s2,a0
 1499              	.LVL156:
 415:C:/Users/stapi/OneDrive/Desktop/GD32VW553/V1_MQTT_OK/GD32VW55X_Wifi_BLE_SDK/GD32VW55x_RELEASE_V1.0.2/MSDK/cloud/alicloud/src/protocol/alcs\alcs_api.c **** 
 416:C:/Users/stapi/OneDrive/Desktop/GD32VW553/V1_MQTT_OK/GD32VW55X_Wifi_BLE_SDK/GD32VW55x_RELEASE_V1.0.2/MSDK/cloud/alicloud/src/protocol/alcs\alcs_api.c ****     message->payload = payload_old;
 1500              		.loc 1 416 5 is_stmt 1
 1501              		.loc 1 416 22 is_stmt 0
 1502 007a 23286407 		sw	s6,112(s0)
 417:C:/Users/stapi/OneDrive/Desktop/GD32VW553/V1_MQTT_OK/GD32VW55X_Wifi_BLE_SDK/GD32VW55x_RELEASE_V1.0.2/MSDK/cloud/alicloud/src/protocol/alcs\alcs_api.c ****     message->payloadlen = len_old;
 1503              		.loc 1 417 5 is_stmt 1
 418:C:/Users/stapi/OneDrive/Desktop/GD32VW553/V1_MQTT_OK/GD32VW55X_Wifi_BLE_SDK/GD32VW55x_RELEASE_V1.0.2/MSDK/cloud/alicloud/src/protocol/alcs\alcs_api.c **** 
 419:C:/Users/stapi/OneDrive/Desktop/GD32VW553/V1_MQTT_OK/GD32VW55X_Wifi_BLE_SDK/GD32VW55x_RELEASE_V1.0.2/MSDK/cloud/alicloud/src/protocol/alcs\alcs_api.c ****     coap_free (buf);
 1504              		.loc 1 419 5 is_stmt 0
 1505 007e 2685     		mv	a0,s1
 1506              	.LVL157:
 417:C:/Users/stapi/OneDrive/Desktop/GD32VW553/V1_MQTT_OK/GD32VW55X_Wifi_BLE_SDK/GD32VW55x_RELEASE_V1.0.2/MSDK/cloud/alicloud/src/protocol/alcs\alcs_api.c ****     message->payloadlen = len_old;
 1507              		.loc 1 417 25
 1508 0080 23175407 		sh	s5,110(s0)
 1509              		.loc 1 419 5 is_stmt 1
 1510 0084 97000000 		call	LITE_free_internal
 1510      E7800000 
 1511              	.LVL158:
 420:C:/Users/stapi/OneDrive/Desktop/GD32VW553/V1_MQTT_OK/GD32VW55X_Wifi_BLE_SDK/GD32VW55x_RELEASE_V1.0.2/MSDK/cloud/alicloud/src/protocol/alcs\alcs_api.c **** 
 421:C:/Users/stapi/OneDrive/Desktop/GD32VW553/V1_MQTT_OK/GD32VW55X_Wifi_BLE_SDK/GD32VW55x_RELEASE_V1.0.2/MSDK/cloud/alicloud/src/protocol/alcs\alcs_api.c ****     return ret;
 1512              		.loc 1 421 5
 422:C:/Users/stapi/OneDrive/Desktop/GD32VW553/V1_MQTT_OK/GD32VW55X_Wifi_BLE_SDK/GD32VW55x_RELEASE_V1.0.2/MSDK/cloud/alicloud/src/protocol/alcs\alcs_api.c **** }
 1513              		.loc 1 422 1 is_stmt 0
 1514 008c 4A85     		mv	a0,s2
 1515 008e 17030000 		tail	__riscv_restore_7
 1515      67000300 
 1516              		.cfi_restore 22
 1517              		.cfi_restore 21
 1518              		.cfi_restore 20
 1519              		.cfi_restore 19
 1520              		.cfi_restore 18
 1521              		.cfi_restore 9
 1522              		.cfi_restore 8
 1523              		.cfi_restore 1
 1524              		.cfi_def_cfa_offset 0
 1525              		.cfi_endproc
 1526              	.LFE39:
 1528              		.section	.rodata.alcs_decrypt.str1.4,"aMS",@progbits,1
 1529              		.align	2
 1530              	.LC12:
 1531 0000 746F2064 		.string	"to decrypt len:%d"
 1531      65637279 
 1531      7074206C 
 1531      656E3A25 
 1531      6400
 1532 0012 0000     		.align	2
 1533              	.LC13:
 1534 0014 5B657272 		.string	"[err] "
 1534      5D2000
 1535 001b 00       		.align	2
 1536              	.LC14:
 1537 001c 6661696C 		.string	"fail to decrypt init"
 1537      20746F20 
 1537      64656372 
 1537      79707420 
 1537      696E6974 
 1538 0031 000000   		.align	2
 1539              	.LC15:
 1540 0034 6661696C 		.string	"fail to decrypt"
 1540      20746F20 
 1540      64656372 
 1540      79707400 
 1541              		.align	2
 1542              	.LC16:
 1543 0044 6661696C 		.string	"fail to decrypt remain data"
 1543      20746F20 
 1543      64656372 
 1543      79707420 
 1543      72656D61 
 1544              		.align	2
 1545              	.LC17:
 1546 0060 64656372 		.string	"decrypt data:%s, len:%d"
 1546      79707420 
 1546      64617461 
 1546      3A25732C 
 1546      206C656E 
 1547              		.section	.text.alcs_decrypt,"ax",@progbits
 1548              		.align	1
 1549              		.globl	alcs_decrypt
 1551              	alcs_decrypt:
 1552              	.LFB37:
 336:C:/Users/stapi/OneDrive/Desktop/GD32VW553/V1_MQTT_OK/GD32VW55X_Wifi_BLE_SDK/GD32VW55x_RELEASE_V1.0.2/MSDK/cloud/alicloud/src/protocol/alcs\alcs_api.c ****     COAP_DEBUG ("to decrypt len:%d", len);
 1553              		.loc 1 336 1 is_stmt 1
 1554              		.cfi_startproc
 1555              	.LVL159:
 1556 0000 17030000 		call	t0,__riscv_save_10
 1556      E7020300 
 1557              		.cfi_offset 25, -44
 1558              		.cfi_offset 24, -40
 1559              		.cfi_offset 23, -36
 1560              		.cfi_offset 22, -32
 1561              		.cfi_offset 21, -28
 1562              		.cfi_offset 20, -24
 1563              		.cfi_offset 19, -20
 1564              		.cfi_offset 18, -16
 1565              		.cfi_offset 9, -12
 1566              		.cfi_offset 8, -8
 1567              		.cfi_offset 1, -4
 1568              		.cfi_def_cfa_offset 48
 337:C:/Users/stapi/OneDrive/Desktop/GD32VW553/V1_MQTT_OK/GD32VW55X_Wifi_BLE_SDK/GD32VW55x_RELEASE_V1.0.2/MSDK/cloud/alicloud/src/protocol/alcs\alcs_api.c ****     char* iv = "a1b1c1d1e1f1g1h1";
 1569              		.loc 1 337 5
 1570 0008 370A0000 		lui	s4,%hi(.LANCHOR8)
 1571 000c 37070000 		lui	a4,%hi(.LC12)
 1572 0010 B7090000 		lui	s3,%hi(.LC6)
 1573 0014 AE87     		mv	a5,a1
 336:C:/Users/stapi/OneDrive/Desktop/GD32VW553/V1_MQTT_OK/GD32VW55X_Wifi_BLE_SDK/GD32VW55x_RELEASE_V1.0.2/MSDK/cloud/alicloud/src/protocol/alcs\alcs_api.c ****     COAP_DEBUG ("to decrypt len:%d", len);
 1574              		.loc 1 336 1 is_stmt 0
 1575 0016 2E84     		mv	s0,a1
 1576 0018 4111     		addi	sp,sp,-16
 1577              		.cfi_def_cfa_offset 64
 336:C:/Users/stapi/OneDrive/Desktop/GD32VW553/V1_MQTT_OK/GD32VW55X_Wifi_BLE_SDK/GD32VW55x_RELEASE_V1.0.2/MSDK/cloud/alicloud/src/protocol/alcs\alcs_api.c ****     COAP_DEBUG ("to decrypt len:%d", len);
 1578              		.loc 1 336 1
 1579 001a 2A8B     		mv	s6,a0
 1580 001c B28A     		mv	s5,a2
 1581 001e 3689     		mv	s2,a3
 337:C:/Users/stapi/OneDrive/Desktop/GD32VW553/V1_MQTT_OK/GD32VW55X_Wifi_BLE_SDK/GD32VW55x_RELEASE_V1.0.2/MSDK/cloud/alicloud/src/protocol/alcs\alcs_api.c ****     char* iv = "a1b1c1d1e1f1g1h1";
 1582              		.loc 1 337 5
 1583 0020 13070700 		addi	a4,a4,%lo(.LC12)
 1584 0024 9546     		li	a3,5
 1585              	.LVL160:
 1586 0026 13061015 		li	a2,337
 1587              	.LVL161:
 1588 002a 93050A00 		addi	a1,s4,%lo(.LANCHOR8)
 1589              	.LVL162:
 1590 002e 13850900 		addi	a0,s3,%lo(.LC6)
 1591              	.LVL163:
 1592 0032 97000000 		call	LITE_syslog
 1592      E7800000 
 1593              	.LVL164:
 338:C:/Users/stapi/OneDrive/Desktop/GD32VW553/V1_MQTT_OK/GD32VW55X_Wifi_BLE_SDK/GD32VW55x_RELEASE_V1.0.2/MSDK/cloud/alicloud/src/protocol/alcs\alcs_api.c **** 
 1594              		.loc 1 338 5 is_stmt 1
 340:C:/Users/stapi/OneDrive/Desktop/GD32VW553/V1_MQTT_OK/GD32VW55X_Wifi_BLE_SDK/GD32VW55x_RELEASE_V1.0.2/MSDK/cloud/alicloud/src/protocol/alcs\alcs_api.c ****     int ret = 0;
 1595              		.loc 1 340 5
 341:C:/Users/stapi/OneDrive/Desktop/GD32VW553/V1_MQTT_OK/GD32VW55X_Wifi_BLE_SDK/GD32VW55x_RELEASE_V1.0.2/MSDK/cloud/alicloud/src/protocol/alcs\alcs_api.c ****     int n = len >> 4;
 1596              		.loc 1 341 5
 342:C:/Users/stapi/OneDrive/Desktop/GD32VW553/V1_MQTT_OK/GD32VW55X_Wifi_BLE_SDK/GD32VW55x_RELEASE_V1.0.2/MSDK/cloud/alicloud/src/protocol/alcs\alcs_api.c ****         
 1597              		.loc 1 342 5
 342:C:/Users/stapi/OneDrive/Desktop/GD32VW553/V1_MQTT_OK/GD32VW55X_Wifi_BLE_SDK/GD32VW55x_RELEASE_V1.0.2/MSDK/cloud/alicloud/src/protocol/alcs\alcs_api.c ****         
 1598              		.loc 1 342 9 is_stmt 0
 1599 003a 93544440 		srai	s1,s0,4
 1600              	.LVL165:
 344:C:/Users/stapi/OneDrive/Desktop/GD32VW553/V1_MQTT_OK/GD32VW55X_Wifi_BLE_SDK/GD32VW55x_RELEASE_V1.0.2/MSDK/cloud/alicloud/src/protocol/alcs\alcs_api.c ****         if (n > 1) {
 1601              		.loc 1 344 5 is_stmt 1
 1602              	.LBB78:
 345:C:/Users/stapi/OneDrive/Desktop/GD32VW553/V1_MQTT_OK/GD32VW55X_Wifi_BLE_SDK/GD32VW55x_RELEASE_V1.0.2/MSDK/cloud/alicloud/src/protocol/alcs\alcs_api.c ****             aes_d_h  = HAL_Aes128_Init ((uint8_t*)key, (uint8_t*)iv, HAL_AES_DECRYPTION);
 1603              		.loc 1 345 9
 345:C:/Users/stapi/OneDrive/Desktop/GD32VW553/V1_MQTT_OK/GD32VW55X_Wifi_BLE_SDK/GD32VW55x_RELEASE_V1.0.2/MSDK/cloud/alicloud/src/protocol/alcs\alcs_api.c ****             aes_d_h  = HAL_Aes128_Init ((uint8_t*)key, (uint8_t*)iv, HAL_AES_DECRYPTION);
 1604              		.loc 1 345 12 is_stmt 0
 1605 003e 8547     		li	a5,1
 1606 0040 370C0000 		lui	s8,%hi(.LC9)
 1607 0044 63D5970E 		ble	s1,a5,.L120
 346:C:/Users/stapi/OneDrive/Desktop/GD32VW553/V1_MQTT_OK/GD32VW55X_Wifi_BLE_SDK/GD32VW55x_RELEASE_V1.0.2/MSDK/cloud/alicloud/src/protocol/alcs\alcs_api.c ****             if (!aes_d_h) {
 1608              		.loc 1 346 13 is_stmt 1
 346:C:/Users/stapi/OneDrive/Desktop/GD32VW553/V1_MQTT_OK/GD32VW55X_Wifi_BLE_SDK/GD32VW55x_RELEASE_V1.0.2/MSDK/cloud/alicloud/src/protocol/alcs\alcs_api.c ****             if (!aes_d_h) {
 1609              		.loc 1 346 24 is_stmt 0
 1610 0048 0546     		li	a2,1
 1611 004a 93050C00 		addi	a1,s8,%lo(.LC9)
 1612 004e 5685     		mv	a0,s5
 1613 0050 97000000 		call	HAL_Aes128_Init
 1613      E7800000 
 1614              	.LVL166:
 1615 0058 AA8B     		mv	s7,a0
 1616              	.LVL167:
 347:C:/Users/stapi/OneDrive/Desktop/GD32VW553/V1_MQTT_OK/GD32VW55X_Wifi_BLE_SDK/GD32VW55x_RELEASE_V1.0.2/MSDK/cloud/alicloud/src/protocol/alcs\alcs_api.c ****                 COAP_ERR ("fail to decrypt init");
 1617              		.loc 1 347 13 is_stmt 1
 347:C:/Users/stapi/OneDrive/Desktop/GD32VW553/V1_MQTT_OK/GD32VW55X_Wifi_BLE_SDK/GD32VW55x_RELEASE_V1.0.2/MSDK/cloud/alicloud/src/protocol/alcs\alcs_api.c ****                 COAP_ERR ("fail to decrypt init");
 1618              		.loc 1 347 16 is_stmt 0
 1619 005a 21E1     		bne	a0,zero,.L121
 1620              	.LVL168:
 1621              	.L126:
 348:C:/Users/stapi/OneDrive/Desktop/GD32VW553/V1_MQTT_OK/GD32VW55X_Wifi_BLE_SDK/GD32VW55x_RELEASE_V1.0.2/MSDK/cloud/alicloud/src/protocol/alcs\alcs_api.c ****                 break;
 1622              		.loc 1 348 17 is_stmt 1
 348:C:/Users/stapi/OneDrive/Desktop/GD32VW553/V1_MQTT_OK/GD32VW55X_Wifi_BLE_SDK/GD32VW55x_RELEASE_V1.0.2/MSDK/cloud/alicloud/src/protocol/alcs\alcs_api.c ****                 break;
 1623              		.loc 1 348 17
 1624 005c 37050000 		lui	a0,%hi(.LC13)
 1625              	.LVL169:
 1626 0060 13050500 		addi	a0,a0,%lo(.LC13)
 1627 0064 97000000 		call	HAL_Printf
 1627      E7800000 
 1628              	.LVL170:
 348:C:/Users/stapi/OneDrive/Desktop/GD32VW553/V1_MQTT_OK/GD32VW55X_Wifi_BLE_SDK/GD32VW55x_RELEASE_V1.0.2/MSDK/cloud/alicloud/src/protocol/alcs\alcs_api.c ****                 break;
 1629              		.loc 1 348 17
 1630 006c 37050000 		lui	a0,%hi(.LC14)
 1631 0070 13050500 		addi	a0,a0,%lo(.LC14)
 1632              	.L132:
 375:C:/Users/stapi/OneDrive/Desktop/GD32VW553/V1_MQTT_OK/GD32VW55X_Wifi_BLE_SDK/GD32VW55x_RELEASE_V1.0.2/MSDK/cloud/alicloud/src/protocol/alcs\alcs_api.c ****             break;
 1633              		.loc 1 375 13 is_stmt 0
 1634 0074 97000000 		call	HAL_Printf
 1634      E7800000 
 1635              	.LVL171:
 375:C:/Users/stapi/OneDrive/Desktop/GD32VW553/V1_MQTT_OK/GD32VW55X_Wifi_BLE_SDK/GD32VW55x_RELEASE_V1.0.2/MSDK/cloud/alicloud/src/protocol/alcs\alcs_api.c ****             break;
 1636              		.loc 1 375 13 is_stmt 1
 1637 007c 37050000 		lui	a0,%hi(.LC2)
 1638 0080 13050500 		addi	a0,a0,%lo(.LC2)
 1639 0084 97000000 		call	HAL_Printf
 1639      E7800000 
 1640              	.LVL172:
 375:C:/Users/stapi/OneDrive/Desktop/GD32VW553/V1_MQTT_OK/GD32VW55X_Wifi_BLE_SDK/GD32VW55x_RELEASE_V1.0.2/MSDK/cloud/alicloud/src/protocol/alcs\alcs_api.c ****             break;
 1641              		.loc 1 375 13
 376:C:/Users/stapi/OneDrive/Desktop/GD32VW553/V1_MQTT_OK/GD32VW55X_Wifi_BLE_SDK/GD32VW55x_RELEASE_V1.0.2/MSDK/cloud/alicloud/src/protocol/alcs\alcs_api.c ****         }   
 1642              		.loc 1 376 13
 1643              	.LBE78:
 385:C:/Users/stapi/OneDrive/Desktop/GD32VW553/V1_MQTT_OK/GD32VW55X_Wifi_BLE_SDK/GD32VW55x_RELEASE_V1.0.2/MSDK/cloud/alicloud/src/protocol/alcs\alcs_api.c **** }
 1644              		.loc 1 385 12 is_stmt 0
 1645 008c 0144     		li	s0,0
 1646              	.LVL173:
 1647              	.L119:
 386:C:/Users/stapi/OneDrive/Desktop/GD32VW553/V1_MQTT_OK/GD32VW55X_Wifi_BLE_SDK/GD32VW55x_RELEASE_V1.0.2/MSDK/cloud/alicloud/src/protocol/alcs\alcs_api.c **** 
 1648              		.loc 1 386 1
 1649 008e 2285     		mv	a0,s0
 1650 0090 4101     		addi	sp,sp,16
 1651              		.cfi_remember_state
 1652              		.cfi_def_cfa_offset 0
 1653 0092 17030000 		tail	__riscv_restore_10
 1653      67000300 
 1654              		.cfi_restore 25
 1655              		.cfi_restore 24
 1656              		.cfi_restore 23
 1657              		.cfi_restore 22
 1658              		.cfi_restore 21
 1659              		.cfi_restore 20
 1660              		.cfi_restore 19
 1661              		.cfi_restore 18
 1662              		.cfi_restore 9
 1663              		.cfi_restore 8
 1664              		.cfi_restore 1
 1665              		.cfi_def_cfa_offset -48
 1666              	.LVL174:
 1667              	.L121:
 1668              		.cfi_restore_state
 1669              	.LBB79:
 352:C:/Users/stapi/OneDrive/Desktop/GD32VW553/V1_MQTT_OK/GD32VW55X_Wifi_BLE_SDK/GD32VW55x_RELEASE_V1.0.2/MSDK/cloud/alicloud/src/protocol/alcs\alcs_api.c ****             HAL_Aes128_Destroy(aes_d_h);
 1670              		.loc 1 352 13 is_stmt 1
 352:C:/Users/stapi/OneDrive/Desktop/GD32VW553/V1_MQTT_OK/GD32VW55X_Wifi_BLE_SDK/GD32VW55x_RELEASE_V1.0.2/MSDK/cloud/alicloud/src/protocol/alcs\alcs_api.c ****             HAL_Aes128_Destroy(aes_d_h);
 1671              		.loc 1 352 19 is_stmt 0
 1672 009a CA86     		mv	a3,s2
 1673 009c 1386F4FF 		addi	a2,s1,-1
 1674 00a0 DA85     		mv	a1,s6
 1675 00a2 97000000 		call	HAL_Aes128_Cbc_Decrypt
 1675      E7800000 
 1676              	.LVL175:
 1677 00aa AA8C     		mv	s9,a0
 1678              	.LVL176:
 353:C:/Users/stapi/OneDrive/Desktop/GD32VW553/V1_MQTT_OK/GD32VW55X_Wifi_BLE_SDK/GD32VW55x_RELEASE_V1.0.2/MSDK/cloud/alicloud/src/protocol/alcs\alcs_api.c **** 
 1679              		.loc 1 353 13 is_stmt 1
 1680 00ac 5E85     		mv	a0,s7
 1681              	.LVL177:
 1682 00ae 97000000 		call	HAL_Aes128_Destroy
 1682      E7800000 
 1683              	.LVL178:
 355:C:/Users/stapi/OneDrive/Desktop/GD32VW553/V1_MQTT_OK/GD32VW55X_Wifi_BLE_SDK/GD32VW55x_RELEASE_V1.0.2/MSDK/cloud/alicloud/src/protocol/alcs\alcs_api.c ****                 COAP_ERR ("fail to decrypt");
 1684              		.loc 1 355 13
 355:C:/Users/stapi/OneDrive/Desktop/GD32VW553/V1_MQTT_OK/GD32VW55X_Wifi_BLE_SDK/GD32VW55x_RELEASE_V1.0.2/MSDK/cloud/alicloud/src/protocol/alcs\alcs_api.c ****                 COAP_ERR ("fail to decrypt");
 1685              		.loc 1 355 16 is_stmt 0
 1686 00b6 639F0C04 		bne	s9,zero,.L123
 1687              	.LVL179:
 1688              	.L125:
 362:C:/Users/stapi/OneDrive/Desktop/GD32VW553/V1_MQTT_OK/GD32VW55X_Wifi_BLE_SDK/GD32VW55x_RELEASE_V1.0.2/MSDK/cloud/alicloud/src/protocol/alcs\alcs_api.c ****         out_c[offset] = 0;
 1689              		.loc 1 362 33
 1690 00ba FD14     		addi	s1,s1,-1
 1691              	.LVL180:
 362:C:/Users/stapi/OneDrive/Desktop/GD32VW553/V1_MQTT_OK/GD32VW55X_Wifi_BLE_SDK/GD32VW55x_RELEASE_V1.0.2/MSDK/cloud/alicloud/src/protocol/alcs\alcs_api.c ****         out_c[offset] = 0;
 1692              		.loc 1 362 44
 1693 00bc 9204     		slli	s1,s1,4
 1694              	.LVL181:
 1695              	.L124:
 363:C:/Users/stapi/OneDrive/Desktop/GD32VW553/V1_MQTT_OK/GD32VW55X_Wifi_BLE_SDK/GD32VW55x_RELEASE_V1.0.2/MSDK/cloud/alicloud/src/protocol/alcs\alcs_api.c **** 
 1696              		.loc 1 363 9 is_stmt 1 discriminator 4
 363:C:/Users/stapi/OneDrive/Desktop/GD32VW553/V1_MQTT_OK/GD32VW55X_Wifi_BLE_SDK/GD32VW55x_RELEASE_V1.0.2/MSDK/cloud/alicloud/src/protocol/alcs\alcs_api.c **** 
 1697              		.loc 1 363 14 is_stmt 0 discriminator 4
 1698 00be B3069900 		add	a3,s2,s1
 365:C:/Users/stapi/OneDrive/Desktop/GD32VW553/V1_MQTT_OK/GD32VW55X_Wifi_BLE_SDK/GD32VW55x_RELEASE_V1.0.2/MSDK/cloud/alicloud/src/protocol/alcs\alcs_api.c ****         if (!aes_d_h) {
 1699              		.loc 1 365 20 discriminator 4
 1700 00c2 5685     		mv	a0,s5
 363:C:/Users/stapi/OneDrive/Desktop/GD32VW553/V1_MQTT_OK/GD32VW55X_Wifi_BLE_SDK/GD32VW55x_RELEASE_V1.0.2/MSDK/cloud/alicloud/src/protocol/alcs\alcs_api.c **** 
 1701              		.loc 1 363 23 discriminator 4
 1702 00c4 23800600 		sb	zero,0(a3)
 365:C:/Users/stapi/OneDrive/Desktop/GD32VW553/V1_MQTT_OK/GD32VW55X_Wifi_BLE_SDK/GD32VW55x_RELEASE_V1.0.2/MSDK/cloud/alicloud/src/protocol/alcs\alcs_api.c ****         if (!aes_d_h) {
 1703              		.loc 1 365 20 discriminator 4
 1704 00c8 0546     		li	a2,1
 1705 00ca 93050C00 		addi	a1,s8,%lo(.LC9)
 363:C:/Users/stapi/OneDrive/Desktop/GD32VW553/V1_MQTT_OK/GD32VW55X_Wifi_BLE_SDK/GD32VW55x_RELEASE_V1.0.2/MSDK/cloud/alicloud/src/protocol/alcs\alcs_api.c **** 
 1706              		.loc 1 363 23 discriminator 4
 1707 00ce 36C6     		sw	a3,12(sp)
 365:C:/Users/stapi/OneDrive/Desktop/GD32VW553/V1_MQTT_OK/GD32VW55X_Wifi_BLE_SDK/GD32VW55x_RELEASE_V1.0.2/MSDK/cloud/alicloud/src/protocol/alcs\alcs_api.c ****         if (!aes_d_h) {
 1708              		.loc 1 365 9 is_stmt 1 discriminator 4
 365:C:/Users/stapi/OneDrive/Desktop/GD32VW553/V1_MQTT_OK/GD32VW55X_Wifi_BLE_SDK/GD32VW55x_RELEASE_V1.0.2/MSDK/cloud/alicloud/src/protocol/alcs\alcs_api.c ****         if (!aes_d_h) {
 1709              		.loc 1 365 20 is_stmt 0 discriminator 4
 1710 00d0 97000000 		call	HAL_Aes128_Init
 1710      E7800000 
 1711              	.LVL182:
 1712 00d8 AA8A     		mv	s5,a0
 1713              	.LVL183:
 366:C:/Users/stapi/OneDrive/Desktop/GD32VW553/V1_MQTT_OK/GD32VW55X_Wifi_BLE_SDK/GD32VW55x_RELEASE_V1.0.2/MSDK/cloud/alicloud/src/protocol/alcs\alcs_api.c ****             COAP_ERR ("fail to decrypt init");
 1714              		.loc 1 366 9 is_stmt 1 discriminator 4
 366:C:/Users/stapi/OneDrive/Desktop/GD32VW553/V1_MQTT_OK/GD32VW55X_Wifi_BLE_SDK/GD32VW55x_RELEASE_V1.0.2/MSDK/cloud/alicloud/src/protocol/alcs\alcs_api.c ****             COAP_ERR ("fail to decrypt init");
 1715              		.loc 1 366 12 is_stmt 0 discriminator 4
 1716 00da 49D1     		beq	a0,zero,.L126
 371:C:/Users/stapi/OneDrive/Desktop/GD32VW553/V1_MQTT_OK/GD32VW55X_Wifi_BLE_SDK/GD32VW55x_RELEASE_V1.0.2/MSDK/cloud/alicloud/src/protocol/alcs\alcs_api.c ****         HAL_Aes128_Destroy(aes_d_h);
 1717              		.loc 1 371 9 is_stmt 1
 371:C:/Users/stapi/OneDrive/Desktop/GD32VW553/V1_MQTT_OK/GD32VW55X_Wifi_BLE_SDK/GD32VW55x_RELEASE_V1.0.2/MSDK/cloud/alicloud/src/protocol/alcs\alcs_api.c ****         HAL_Aes128_Destroy(aes_d_h);
 1718              		.loc 1 371 15 is_stmt 0
 1719 00dc B246     		lw	a3,12(sp)
 1720 00de B3059B00 		add	a1,s6,s1
 1721 00e2 0546     		li	a2,1
 1722 00e4 97000000 		call	HAL_Aes128_Cbc_Decrypt
 1722      E7800000 
 1723              	.LVL184:
 1724 00ec AA84     		mv	s1,a0
 1725              	.LVL185:
 372:C:/Users/stapi/OneDrive/Desktop/GD32VW553/V1_MQTT_OK/GD32VW55X_Wifi_BLE_SDK/GD32VW55x_RELEASE_V1.0.2/MSDK/cloud/alicloud/src/protocol/alcs\alcs_api.c **** 
 1726              		.loc 1 372 9 is_stmt 1
 1727 00ee 5685     		mv	a0,s5
 1728 00f0 97000000 		call	HAL_Aes128_Destroy
 1728      E7800000 
 1729              	.LVL186:
 374:C:/Users/stapi/OneDrive/Desktop/GD32VW553/V1_MQTT_OK/GD32VW55X_Wifi_BLE_SDK/GD32VW55x_RELEASE_V1.0.2/MSDK/cloud/alicloud/src/protocol/alcs\alcs_api.c ****             COAP_ERR ("fail to decrypt remain data");
 1730              		.loc 1 374 9
 374:C:/Users/stapi/OneDrive/Desktop/GD32VW553/V1_MQTT_OK/GD32VW55X_Wifi_BLE_SDK/GD32VW55x_RELEASE_V1.0.2/MSDK/cloud/alicloud/src/protocol/alcs\alcs_api.c ****             COAP_ERR ("fail to decrypt remain data");
 1731              		.loc 1 374 12 is_stmt 0
 1732 00f8 9DCC     		beq	s1,zero,.L127
 375:C:/Users/stapi/OneDrive/Desktop/GD32VW553/V1_MQTT_OK/GD32VW55X_Wifi_BLE_SDK/GD32VW55x_RELEASE_V1.0.2/MSDK/cloud/alicloud/src/protocol/alcs\alcs_api.c ****             break;
 1733              		.loc 1 375 13 is_stmt 1
 375:C:/Users/stapi/OneDrive/Desktop/GD32VW553/V1_MQTT_OK/GD32VW55X_Wifi_BLE_SDK/GD32VW55x_RELEASE_V1.0.2/MSDK/cloud/alicloud/src/protocol/alcs\alcs_api.c ****             break;
 1734              		.loc 1 375 13
 1735 00fa 37050000 		lui	a0,%hi(.LC13)
 1736 00fe 13050500 		addi	a0,a0,%lo(.LC13)
 1737 0102 97000000 		call	HAL_Printf
 1737      E7800000 
 1738              	.LVL187:
 375:C:/Users/stapi/OneDrive/Desktop/GD32VW553/V1_MQTT_OK/GD32VW55X_Wifi_BLE_SDK/GD32VW55x_RELEASE_V1.0.2/MSDK/cloud/alicloud/src/protocol/alcs\alcs_api.c ****             break;
 1739              		.loc 1 375 13
 1740 010a 37050000 		lui	a0,%hi(.LC16)
 1741 010e 13050500 		addi	a0,a0,%lo(.LC16)
 1742 0112 8DB7     		j	.L132
 1743              	.LVL188:
 1744              	.L123:
 356:C:/Users/stapi/OneDrive/Desktop/GD32VW553/V1_MQTT_OK/GD32VW55X_Wifi_BLE_SDK/GD32VW55x_RELEASE_V1.0.2/MSDK/cloud/alicloud/src/protocol/alcs\alcs_api.c ****                 break;
 1745              		.loc 1 356 17
 356:C:/Users/stapi/OneDrive/Desktop/GD32VW553/V1_MQTT_OK/GD32VW55X_Wifi_BLE_SDK/GD32VW55x_RELEASE_V1.0.2/MSDK/cloud/alicloud/src/protocol/alcs\alcs_api.c ****                 break;
 1746              		.loc 1 356 17
 1747 0114 37050000 		lui	a0,%hi(.LC13)
 1748 0118 13050500 		addi	a0,a0,%lo(.LC13)
 1749 011c 97000000 		call	HAL_Printf
 1749      E7800000 
 1750              	.LVL189:
 356:C:/Users/stapi/OneDrive/Desktop/GD32VW553/V1_MQTT_OK/GD32VW55X_Wifi_BLE_SDK/GD32VW55x_RELEASE_V1.0.2/MSDK/cloud/alicloud/src/protocol/alcs\alcs_api.c ****                 break;
 1751              		.loc 1 356 17
 1752 0124 37050000 		lui	a0,%hi(.LC15)
 1753 0128 13050500 		addi	a0,a0,%lo(.LC15)
 1754 012c A1B7     		j	.L132
 1755              	.LVL190:
 1756              	.L120:
 361:C:/Users/stapi/OneDrive/Desktop/GD32VW553/V1_MQTT_OK/GD32VW55X_Wifi_BLE_SDK/GD32VW55x_RELEASE_V1.0.2/MSDK/cloud/alicloud/src/protocol/alcs\alcs_api.c ****         int offset = n > 0? ((n - 1) << 4) : 0;
 1757              		.loc 1 361 9
 362:C:/Users/stapi/OneDrive/Desktop/GD32VW553/V1_MQTT_OK/GD32VW55X_Wifi_BLE_SDK/GD32VW55x_RELEASE_V1.0.2/MSDK/cloud/alicloud/src/protocol/alcs\alcs_api.c ****         out_c[offset] = 0;
 1758              		.loc 1 362 9
 362:C:/Users/stapi/OneDrive/Desktop/GD32VW553/V1_MQTT_OK/GD32VW55X_Wifi_BLE_SDK/GD32VW55x_RELEASE_V1.0.2/MSDK/cloud/alicloud/src/protocol/alcs\alcs_api.c ****         out_c[offset] = 0;
 1759              		.loc 1 362 44 is_stmt 0
 1760 012e E386F4F8 		beq	s1,a5,.L125
 1761 0132 8144     		li	s1,0
 1762              	.LVL191:
 1763 0134 69B7     		j	.L124
 1764              	.LVL192:
 1765              	.L127:
 379:C:/Users/stapi/OneDrive/Desktop/GD32VW553/V1_MQTT_OK/GD32VW55X_Wifi_BLE_SDK/GD32VW55x_RELEASE_V1.0.2/MSDK/cloud/alicloud/src/protocol/alcs\alcs_api.c ****         out_c[len - pad] = 0;
 1766              		.loc 1 379 9 is_stmt 1
 380:C:/Users/stapi/OneDrive/Desktop/GD32VW553/V1_MQTT_OK/GD32VW55X_Wifi_BLE_SDK/GD32VW55x_RELEASE_V1.0.2/MSDK/cloud/alicloud/src/protocol/alcs\alcs_api.c ****         COAP_DEBUG ("decrypt data:%s, len:%d", out_c, len - pad);
 1767              		.loc 1 380 9
 379:C:/Users/stapi/OneDrive/Desktop/GD32VW553/V1_MQTT_OK/GD32VW55X_Wifi_BLE_SDK/GD32VW55x_RELEASE_V1.0.2/MSDK/cloud/alicloud/src/protocol/alcs\alcs_api.c ****         out_c[len - pad] = 0;
 1768              		.loc 1 379 14 is_stmt 0
 1769 0136 B3078900 		add	a5,s2,s0
 380:C:/Users/stapi/OneDrive/Desktop/GD32VW553/V1_MQTT_OK/GD32VW55X_Wifi_BLE_SDK/GD32VW55x_RELEASE_V1.0.2/MSDK/cloud/alicloud/src/protocol/alcs\alcs_api.c ****         COAP_DEBUG ("decrypt data:%s, len:%d", out_c, len - pad);
 1770              		.loc 1 380 19
 1771 013a 0388F7FF 		lb	a6,-1(a5)
 1772 013e 33040441 		sub	s0,s0,a6
 1773              	.LVL193:
 380:C:/Users/stapi/OneDrive/Desktop/GD32VW553/V1_MQTT_OK/GD32VW55X_Wifi_BLE_SDK/GD32VW55x_RELEASE_V1.0.2/MSDK/cloud/alicloud/src/protocol/alcs\alcs_api.c ****         COAP_DEBUG ("decrypt data:%s, len:%d", out_c, len - pad);
 1774              		.loc 1 380 26
 1775 0142 B3078900 		add	a5,s2,s0
 381:C:/Users/stapi/OneDrive/Desktop/GD32VW553/V1_MQTT_OK/GD32VW55X_Wifi_BLE_SDK/GD32VW55x_RELEASE_V1.0.2/MSDK/cloud/alicloud/src/protocol/alcs\alcs_api.c ****         return len - pad;
 1776              		.loc 1 381 9
 1777 0146 37070000 		lui	a4,%hi(.LC17)
 380:C:/Users/stapi/OneDrive/Desktop/GD32VW553/V1_MQTT_OK/GD32VW55X_Wifi_BLE_SDK/GD32VW55x_RELEASE_V1.0.2/MSDK/cloud/alicloud/src/protocol/alcs\alcs_api.c ****         COAP_DEBUG ("decrypt data:%s, len:%d", out_c, len - pad);
 1778              		.loc 1 380 26
 1779 014a 23800700 		sb	zero,0(a5)
 381:C:/Users/stapi/OneDrive/Desktop/GD32VW553/V1_MQTT_OK/GD32VW55X_Wifi_BLE_SDK/GD32VW55x_RELEASE_V1.0.2/MSDK/cloud/alicloud/src/protocol/alcs\alcs_api.c ****         return len - pad;
 1780              		.loc 1 381 9 is_stmt 1
 1781 014e 2288     		mv	a6,s0
 1782              	.LVL194:
 1783 0150 CA87     		mv	a5,s2
 1784 0152 13070700 		addi	a4,a4,%lo(.LC17)
 1785 0156 9546     		li	a3,5
 1786 0158 1306D017 		li	a2,381
 1787 015c 93050A00 		addi	a1,s4,%lo(.LANCHOR8)
 1788 0160 13850900 		addi	a0,s3,%lo(.LC6)
 1789 0164 97000000 		call	LITE_syslog
 1789      E7800000 
 1790              	.LVL195:
 382:C:/Users/stapi/OneDrive/Desktop/GD32VW553/V1_MQTT_OK/GD32VW55X_Wifi_BLE_SDK/GD32VW55x_RELEASE_V1.0.2/MSDK/cloud/alicloud/src/protocol/alcs\alcs_api.c ****     } while (0);
 1791              		.loc 1 382 9
 382:C:/Users/stapi/OneDrive/Desktop/GD32VW553/V1_MQTT_OK/GD32VW55X_Wifi_BLE_SDK/GD32VW55x_RELEASE_V1.0.2/MSDK/cloud/alicloud/src/protocol/alcs\alcs_api.c ****     } while (0);
 1792              		.loc 1 382 20 is_stmt 0
 1793 016c 0DB7     		j	.L119
 1794              	.LBE79:
 1795              		.cfi_endproc
 1796              	.LFE37:
 1798              		.section	.text.alcs_is_auth,"ax",@progbits
 1799              		.align	1
 1800              		.globl	alcs_is_auth
 1802              	alcs_is_auth:
 1803              	.LFB38:
 389:C:/Users/stapi/OneDrive/Desktop/GD32VW553/V1_MQTT_OK/GD32VW55X_Wifi_BLE_SDK/GD32VW55x_RELEASE_V1.0.2/MSDK/cloud/alicloud/src/protocol/alcs\alcs_api.c ****     return get_auth_session(devKey) != NULL;
 1804              		.loc 1 389 1 is_stmt 1
 1805              		.cfi_startproc
 1806              	.LVL196:
 390:C:/Users/stapi/OneDrive/Desktop/GD32VW553/V1_MQTT_OK/GD32VW55X_Wifi_BLE_SDK/GD32VW55x_RELEASE_V1.0.2/MSDK/cloud/alicloud/src/protocol/alcs\alcs_api.c **** }
 1807              		.loc 1 390 5
 142:C:/Users/stapi/OneDrive/Desktop/GD32VW553/V1_MQTT_OK/GD32VW55X_Wifi_BLE_SDK/GD32VW55x_RELEASE_V1.0.2/MSDK/cloud/alicloud/src/protocol/alcs\alcs_api.c **** }
 1808              		.loc 1 142 5
 391:C:/Users/stapi/OneDrive/Desktop/GD32VW553/V1_MQTT_OK/GD32VW55X_Wifi_BLE_SDK/GD32VW55x_RELEASE_V1.0.2/MSDK/cloud/alicloud/src/protocol/alcs\alcs_api.c **** 
 1809              		.loc 1 391 1 is_stmt 0
 1810 0000 0145     		li	a0,0
 1811              	.LVL197:
 1812 0002 8280     		ret
 1813              		.cfi_endproc
 1814              	.LFE38:
 1816              		.section	.rodata.req_payload_parser.str1.4,"aMS",@progbits,1
 1817              		.align	2
 1818              	.LC18:
 1819 0000 696400   		.string	"id"
 1820 0003 00       		.align	2
 1821              	.LC19:
 1822 0004 70617261 		.string	"params"
 1822      6D7300
 1823              		.section	.text.req_payload_parser,"ax",@progbits
 1824              		.align	1
 1825              		.globl	req_payload_parser
 1827              	req_payload_parser:
 1828              	.LFB42:
 423:C:/Users/stapi/OneDrive/Desktop/GD32VW553/V1_MQTT_OK/GD32VW55X_Wifi_BLE_SDK/GD32VW55x_RELEASE_V1.0.2/MSDK/cloud/alicloud/src/protocol/alcs\alcs_api.c **** 
 424:C:/Users/stapi/OneDrive/Desktop/GD32VW553/V1_MQTT_OK/GD32VW55X_Wifi_BLE_SDK/GD32VW55x_RELEASE_V1.0.2/MSDK/cloud/alicloud/src/protocol/alcs\alcs_api.c **** void add_message_seq (CoAPMessage *message, session_item* session);
 425:C:/Users/stapi/OneDrive/Desktop/GD32VW553/V1_MQTT_OK/GD32VW55X_Wifi_BLE_SDK/GD32VW55x_RELEASE_V1.0.2/MSDK/cloud/alicloud/src/protocol/alcs\alcs_api.c **** int internal_secure_send (CoAPContext *ctx, session_item* session, NetworkAddr *addr, CoAPMessage *
 426:C:/Users/stapi/OneDrive/Desktop/GD32VW553/V1_MQTT_OK/GD32VW55X_Wifi_BLE_SDK/GD32VW55x_RELEASE_V1.0.2/MSDK/cloud/alicloud/src/protocol/alcs\alcs_api.c **** {
 427:C:/Users/stapi/OneDrive/Desktop/GD32VW553/V1_MQTT_OK/GD32VW55X_Wifi_BLE_SDK/GD32VW55x_RELEASE_V1.0.2/MSDK/cloud/alicloud/src/protocol/alcs\alcs_api.c ****     COAP_DEBUG ("internal_secure_send");
 428:C:/Users/stapi/OneDrive/Desktop/GD32VW553/V1_MQTT_OK/GD32VW55X_Wifi_BLE_SDK/GD32VW55x_RELEASE_V1.0.2/MSDK/cloud/alicloud/src/protocol/alcs\alcs_api.c ****     if (!ctx || !session || !addr || !message) {
 429:C:/Users/stapi/OneDrive/Desktop/GD32VW553/V1_MQTT_OK/GD32VW55X_Wifi_BLE_SDK/GD32VW55x_RELEASE_V1.0.2/MSDK/cloud/alicloud/src/protocol/alcs\alcs_api.c ****         COAP_ERR ("parameter is null");
 430:C:/Users/stapi/OneDrive/Desktop/GD32VW553/V1_MQTT_OK/GD32VW55X_Wifi_BLE_SDK/GD32VW55x_RELEASE_V1.0.2/MSDK/cloud/alicloud/src/protocol/alcs\alcs_api.c ****         return COAP_ERROR_INVALID_PARAM;
 431:C:/Users/stapi/OneDrive/Desktop/GD32VW553/V1_MQTT_OK/GD32VW55X_Wifi_BLE_SDK/GD32VW55x_RELEASE_V1.0.2/MSDK/cloud/alicloud/src/protocol/alcs\alcs_api.c ****     }
 432:C:/Users/stapi/OneDrive/Desktop/GD32VW553/V1_MQTT_OK/GD32VW55X_Wifi_BLE_SDK/GD32VW55x_RELEASE_V1.0.2/MSDK/cloud/alicloud/src/protocol/alcs\alcs_api.c **** 
 433:C:/Users/stapi/OneDrive/Desktop/GD32VW553/V1_MQTT_OK/GD32VW55X_Wifi_BLE_SDK/GD32VW55x_RELEASE_V1.0.2/MSDK/cloud/alicloud/src/protocol/alcs\alcs_api.c ****     CoAPUintOption_add (message, COAP_OPTION_CONTENT_FORMAT, COAP_CT_APP_OCTET_STREAM);
 434:C:/Users/stapi/OneDrive/Desktop/GD32VW553/V1_MQTT_OK/GD32VW55X_Wifi_BLE_SDK/GD32VW55x_RELEASE_V1.0.2/MSDK/cloud/alicloud/src/protocol/alcs\alcs_api.c **** 
 435:C:/Users/stapi/OneDrive/Desktop/GD32VW553/V1_MQTT_OK/GD32VW55X_Wifi_BLE_SDK/GD32VW55x_RELEASE_V1.0.2/MSDK/cloud/alicloud/src/protocol/alcs\alcs_api.c ****     CoAPLenString payload = {message->payloadlen, (unsigned char *)message->payload};
 436:C:/Users/stapi/OneDrive/Desktop/GD32VW553/V1_MQTT_OK/GD32VW55X_Wifi_BLE_SDK/GD32VW55x_RELEASE_V1.0.2/MSDK/cloud/alicloud/src/protocol/alcs\alcs_api.c ****     add_message_sessionid (message, session->sessionId, session->opt, &payload);
 437:C:/Users/stapi/OneDrive/Desktop/GD32VW553/V1_MQTT_OK/GD32VW55X_Wifi_BLE_SDK/GD32VW55x_RELEASE_V1.0.2/MSDK/cloud/alicloud/src/protocol/alcs\alcs_api.c ****     add_message_seq (message, session);
 438:C:/Users/stapi/OneDrive/Desktop/GD32VW553/V1_MQTT_OK/GD32VW55X_Wifi_BLE_SDK/GD32VW55x_RELEASE_V1.0.2/MSDK/cloud/alicloud/src/protocol/alcs\alcs_api.c ****     COAP_DEBUG("secure_send sessionId:%d", session->sessionId);
 439:C:/Users/stapi/OneDrive/Desktop/GD32VW553/V1_MQTT_OK/GD32VW55X_Wifi_BLE_SDK/GD32VW55x_RELEASE_V1.0.2/MSDK/cloud/alicloud/src/protocol/alcs\alcs_api.c **** 
 440:C:/Users/stapi/OneDrive/Desktop/GD32VW553/V1_MQTT_OK/GD32VW55X_Wifi_BLE_SDK/GD32VW55x_RELEASE_V1.0.2/MSDK/cloud/alicloud/src/protocol/alcs\alcs_api.c ****     return do_secure_send (ctx, addr, message, session->sessionKey);
 441:C:/Users/stapi/OneDrive/Desktop/GD32VW553/V1_MQTT_OK/GD32VW55X_Wifi_BLE_SDK/GD32VW55x_RELEASE_V1.0.2/MSDK/cloud/alicloud/src/protocol/alcs\alcs_api.c **** }
 442:C:/Users/stapi/OneDrive/Desktop/GD32VW553/V1_MQTT_OK/GD32VW55X_Wifi_BLE_SDK/GD32VW55x_RELEASE_V1.0.2/MSDK/cloud/alicloud/src/protocol/alcs\alcs_api.c **** 
 443:C:/Users/stapi/OneDrive/Desktop/GD32VW553/V1_MQTT_OK/GD32VW55X_Wifi_BLE_SDK/GD32VW55x_RELEASE_V1.0.2/MSDK/cloud/alicloud/src/protocol/alcs\alcs_api.c **** #ifdef ALCS_CLIENT_ENABLED
 444:C:/Users/stapi/OneDrive/Desktop/GD32VW553/V1_MQTT_OK/GD32VW55X_Wifi_BLE_SDK/GD32VW55x_RELEASE_V1.0.2/MSDK/cloud/alicloud/src/protocol/alcs\alcs_api.c **** static void call_cb (CoAPContext *context, NetworkAddr *remote, CoAPMessage* message, const char* k
 445:C:/Users/stapi/OneDrive/Desktop/GD32VW553/V1_MQTT_OK/GD32VW55X_Wifi_BLE_SDK/GD32VW55x_RELEASE_V1.0.2/MSDK/cloud/alicloud/src/protocol/alcs\alcs_api.c **** {
 446:C:/Users/stapi/OneDrive/Desktop/GD32VW553/V1_MQTT_OK/GD32VW55X_Wifi_BLE_SDK/GD32VW55x_RELEASE_V1.0.2/MSDK/cloud/alicloud/src/protocol/alcs\alcs_api.c ****     if (send_item->orig_handler) {
 447:C:/Users/stapi/OneDrive/Desktop/GD32VW553/V1_MQTT_OK/GD32VW55X_Wifi_BLE_SDK/GD32VW55x_RELEASE_V1.0.2/MSDK/cloud/alicloud/src/protocol/alcs\alcs_api.c ****         int len = alcs_decrypt ((const char *)message->payload, message->payloadlen, key, buf);
 448:C:/Users/stapi/OneDrive/Desktop/GD32VW553/V1_MQTT_OK/GD32VW55X_Wifi_BLE_SDK/GD32VW55x_RELEASE_V1.0.2/MSDK/cloud/alicloud/src/protocol/alcs\alcs_api.c ****         CoAPMessage tmpMsg;
 449:C:/Users/stapi/OneDrive/Desktop/GD32VW553/V1_MQTT_OK/GD32VW55X_Wifi_BLE_SDK/GD32VW55x_RELEASE_V1.0.2/MSDK/cloud/alicloud/src/protocol/alcs\alcs_api.c ****         memcpy (&tmpMsg, message, sizeof(CoAPMessage));
 450:C:/Users/stapi/OneDrive/Desktop/GD32VW553/V1_MQTT_OK/GD32VW55X_Wifi_BLE_SDK/GD32VW55x_RELEASE_V1.0.2/MSDK/cloud/alicloud/src/protocol/alcs\alcs_api.c ****         tmpMsg.payload = (unsigned char *)buf;
 451:C:/Users/stapi/OneDrive/Desktop/GD32VW553/V1_MQTT_OK/GD32VW55X_Wifi_BLE_SDK/GD32VW55x_RELEASE_V1.0.2/MSDK/cloud/alicloud/src/protocol/alcs\alcs_api.c ****         tmpMsg.payloadlen = len;
 452:C:/Users/stapi/OneDrive/Desktop/GD32VW553/V1_MQTT_OK/GD32VW55X_Wifi_BLE_SDK/GD32VW55x_RELEASE_V1.0.2/MSDK/cloud/alicloud/src/protocol/alcs\alcs_api.c ****         send_item->orig_handler (context, COAP_REQUEST_SUCCESS, send_item->orig_user_data, remote, 
 453:C:/Users/stapi/OneDrive/Desktop/GD32VW553/V1_MQTT_OK/GD32VW55X_Wifi_BLE_SDK/GD32VW55x_RELEASE_V1.0.2/MSDK/cloud/alicloud/src/protocol/alcs\alcs_api.c ****     }
 454:C:/Users/stapi/OneDrive/Desktop/GD32VW553/V1_MQTT_OK/GD32VW55X_Wifi_BLE_SDK/GD32VW55x_RELEASE_V1.0.2/MSDK/cloud/alicloud/src/protocol/alcs\alcs_api.c **** }
 455:C:/Users/stapi/OneDrive/Desktop/GD32VW553/V1_MQTT_OK/GD32VW55X_Wifi_BLE_SDK/GD32VW55x_RELEASE_V1.0.2/MSDK/cloud/alicloud/src/protocol/alcs\alcs_api.c **** 
 456:C:/Users/stapi/OneDrive/Desktop/GD32VW553/V1_MQTT_OK/GD32VW55X_Wifi_BLE_SDK/GD32VW55x_RELEASE_V1.0.2/MSDK/cloud/alicloud/src/protocol/alcs\alcs_api.c **** void secure_sendmsg_handler(CoAPContext *context, CoAPReqResult result, void *userdata, NetworkAddr
 457:C:/Users/stapi/OneDrive/Desktop/GD32VW553/V1_MQTT_OK/GD32VW55X_Wifi_BLE_SDK/GD32VW55x_RELEASE_V1.0.2/MSDK/cloud/alicloud/src/protocol/alcs\alcs_api.c **** {
 458:C:/Users/stapi/OneDrive/Desktop/GD32VW553/V1_MQTT_OK/GD32VW55X_Wifi_BLE_SDK/GD32VW55x_RELEASE_V1.0.2/MSDK/cloud/alicloud/src/protocol/alcs\alcs_api.c ****     if (!context || !userdata || !remote) {
 459:C:/Users/stapi/OneDrive/Desktop/GD32VW553/V1_MQTT_OK/GD32VW55X_Wifi_BLE_SDK/GD32VW55x_RELEASE_V1.0.2/MSDK/cloud/alicloud/src/protocol/alcs\alcs_api.c ****         return;
 460:C:/Users/stapi/OneDrive/Desktop/GD32VW553/V1_MQTT_OK/GD32VW55X_Wifi_BLE_SDK/GD32VW55x_RELEASE_V1.0.2/MSDK/cloud/alicloud/src/protocol/alcs\alcs_api.c ****     }
 461:C:/Users/stapi/OneDrive/Desktop/GD32VW553/V1_MQTT_OK/GD32VW55X_Wifi_BLE_SDK/GD32VW55x_RELEASE_V1.0.2/MSDK/cloud/alicloud/src/protocol/alcs\alcs_api.c **** 
 462:C:/Users/stapi/OneDrive/Desktop/GD32VW553/V1_MQTT_OK/GD32VW55X_Wifi_BLE_SDK/GD32VW55x_RELEASE_V1.0.2/MSDK/cloud/alicloud/src/protocol/alcs\alcs_api.c ****     secure_send_item* send_item = (secure_send_item*)userdata;
 463:C:/Users/stapi/OneDrive/Desktop/GD32VW553/V1_MQTT_OK/GD32VW55X_Wifi_BLE_SDK/GD32VW55x_RELEASE_V1.0.2/MSDK/cloud/alicloud/src/protocol/alcs\alcs_api.c ****     if (result == COAP_RECV_RESP_TIMEOUT) {
 464:C:/Users/stapi/OneDrive/Desktop/GD32VW553/V1_MQTT_OK/GD32VW55X_Wifi_BLE_SDK/GD32VW55x_RELEASE_V1.0.2/MSDK/cloud/alicloud/src/protocol/alcs\alcs_api.c ****         if (send_item->orig_handler) {
 465:C:/Users/stapi/OneDrive/Desktop/GD32VW553/V1_MQTT_OK/GD32VW55X_Wifi_BLE_SDK/GD32VW55x_RELEASE_V1.0.2/MSDK/cloud/alicloud/src/protocol/alcs\alcs_api.c ****             send_item->orig_handler (context, COAP_RECV_RESP_TIMEOUT, send_item->orig_user_data, re
 466:C:/Users/stapi/OneDrive/Desktop/GD32VW553/V1_MQTT_OK/GD32VW55X_Wifi_BLE_SDK/GD32VW55x_RELEASE_V1.0.2/MSDK/cloud/alicloud/src/protocol/alcs\alcs_api.c ****         }
 467:C:/Users/stapi/OneDrive/Desktop/GD32VW553/V1_MQTT_OK/GD32VW55X_Wifi_BLE_SDK/GD32VW55x_RELEASE_V1.0.2/MSDK/cloud/alicloud/src/protocol/alcs\alcs_api.c ****         COAP_INFO("secure_sendmsg_handler timeout");
 468:C:/Users/stapi/OneDrive/Desktop/GD32VW553/V1_MQTT_OK/GD32VW55X_Wifi_BLE_SDK/GD32VW55x_RELEASE_V1.0.2/MSDK/cloud/alicloud/src/protocol/alcs\alcs_api.c ****     } else {
 469:C:/Users/stapi/OneDrive/Desktop/GD32VW553/V1_MQTT_OK/GD32VW55X_Wifi_BLE_SDK/GD32VW55x_RELEASE_V1.0.2/MSDK/cloud/alicloud/src/protocol/alcs\alcs_api.c ****         unsigned int sessionId = 0;
 470:C:/Users/stapi/OneDrive/Desktop/GD32VW553/V1_MQTT_OK/GD32VW55X_Wifi_BLE_SDK/GD32VW55x_RELEASE_V1.0.2/MSDK/cloud/alicloud/src/protocol/alcs\alcs_api.c ****         CoAPUintOption_get (message, COAP_OPTION_SESSIONID, &sessionId);
 471:C:/Users/stapi/OneDrive/Desktop/GD32VW553/V1_MQTT_OK/GD32VW55X_Wifi_BLE_SDK/GD32VW55x_RELEASE_V1.0.2/MSDK/cloud/alicloud/src/protocol/alcs\alcs_api.c ****         COAP_DEBUG("secure_sendmsg_handler, sessionID:%d", (int)sessionId);
 472:C:/Users/stapi/OneDrive/Desktop/GD32VW553/V1_MQTT_OK/GD32VW55X_Wifi_BLE_SDK/GD32VW55x_RELEASE_V1.0.2/MSDK/cloud/alicloud/src/protocol/alcs\alcs_api.c **** 
 473:C:/Users/stapi/OneDrive/Desktop/GD32VW553/V1_MQTT_OK/GD32VW55X_Wifi_BLE_SDK/GD32VW55x_RELEASE_V1.0.2/MSDK/cloud/alicloud/src/protocol/alcs\alcs_api.c ****         session_item* session = get_auth_session_by_checksum (remote, send_item->pk_dn);
 474:C:/Users/stapi/OneDrive/Desktop/GD32VW553/V1_MQTT_OK/GD32VW55X_Wifi_BLE_SDK/GD32VW55x_RELEASE_V1.0.2/MSDK/cloud/alicloud/src/protocol/alcs\alcs_api.c **** 
 475:C:/Users/stapi/OneDrive/Desktop/GD32VW553/V1_MQTT_OK/GD32VW55X_Wifi_BLE_SDK/GD32VW55x_RELEASE_V1.0.2/MSDK/cloud/alicloud/src/protocol/alcs\alcs_api.c ****         if (!session || session->sessionId != sessionId) {
 476:C:/Users/stapi/OneDrive/Desktop/GD32VW553/V1_MQTT_OK/GD32VW55X_Wifi_BLE_SDK/GD32VW55x_RELEASE_V1.0.2/MSDK/cloud/alicloud/src/protocol/alcs\alcs_api.c ****             COAP_ERR ("secure_sendmsg_handler, need auth, from:%s", remote->addr);
 477:C:/Users/stapi/OneDrive/Desktop/GD32VW553/V1_MQTT_OK/GD32VW55X_Wifi_BLE_SDK/GD32VW55x_RELEASE_V1.0.2/MSDK/cloud/alicloud/src/protocol/alcs\alcs_api.c ****             //todo
 478:C:/Users/stapi/OneDrive/Desktop/GD32VW553/V1_MQTT_OK/GD32VW55X_Wifi_BLE_SDK/GD32VW55x_RELEASE_V1.0.2/MSDK/cloud/alicloud/src/protocol/alcs\alcs_api.c ****         } else {
 479:C:/Users/stapi/OneDrive/Desktop/GD32VW553/V1_MQTT_OK/GD32VW55X_Wifi_BLE_SDK/GD32VW55x_RELEASE_V1.0.2/MSDK/cloud/alicloud/src/protocol/alcs\alcs_api.c ****             session->heart_time = HAL_UptimeMs();
 480:C:/Users/stapi/OneDrive/Desktop/GD32VW553/V1_MQTT_OK/GD32VW55X_Wifi_BLE_SDK/GD32VW55x_RELEASE_V1.0.2/MSDK/cloud/alicloud/src/protocol/alcs\alcs_api.c ****             if (message->payloadlen < 128) {
 481:C:/Users/stapi/OneDrive/Desktop/GD32VW553/V1_MQTT_OK/GD32VW55X_Wifi_BLE_SDK/GD32VW55x_RELEASE_V1.0.2/MSDK/cloud/alicloud/src/protocol/alcs\alcs_api.c ****                 char buf[128];
 482:C:/Users/stapi/OneDrive/Desktop/GD32VW553/V1_MQTT_OK/GD32VW55X_Wifi_BLE_SDK/GD32VW55x_RELEASE_V1.0.2/MSDK/cloud/alicloud/src/protocol/alcs\alcs_api.c ****                 call_cb (context, remote, message, session->sessionKey, buf, send_item);
 483:C:/Users/stapi/OneDrive/Desktop/GD32VW553/V1_MQTT_OK/GD32VW55X_Wifi_BLE_SDK/GD32VW55x_RELEASE_V1.0.2/MSDK/cloud/alicloud/src/protocol/alcs\alcs_api.c ****             } else {
 484:C:/Users/stapi/OneDrive/Desktop/GD32VW553/V1_MQTT_OK/GD32VW55X_Wifi_BLE_SDK/GD32VW55x_RELEASE_V1.0.2/MSDK/cloud/alicloud/src/protocol/alcs\alcs_api.c ****                 char* buf = (char*)coap_malloc(message->payloadlen);
 485:C:/Users/stapi/OneDrive/Desktop/GD32VW553/V1_MQTT_OK/GD32VW55X_Wifi_BLE_SDK/GD32VW55x_RELEASE_V1.0.2/MSDK/cloud/alicloud/src/protocol/alcs\alcs_api.c ****                 if (buf) {
 486:C:/Users/stapi/OneDrive/Desktop/GD32VW553/V1_MQTT_OK/GD32VW55X_Wifi_BLE_SDK/GD32VW55x_RELEASE_V1.0.2/MSDK/cloud/alicloud/src/protocol/alcs\alcs_api.c ****                     call_cb (context, remote, message, session->sessionKey, buf, send_item);
 487:C:/Users/stapi/OneDrive/Desktop/GD32VW553/V1_MQTT_OK/GD32VW55X_Wifi_BLE_SDK/GD32VW55x_RELEASE_V1.0.2/MSDK/cloud/alicloud/src/protocol/alcs\alcs_api.c ****                     coap_free (buf);
 488:C:/Users/stapi/OneDrive/Desktop/GD32VW553/V1_MQTT_OK/GD32VW55X_Wifi_BLE_SDK/GD32VW55x_RELEASE_V1.0.2/MSDK/cloud/alicloud/src/protocol/alcs\alcs_api.c ****                 }
 489:C:/Users/stapi/OneDrive/Desktop/GD32VW553/V1_MQTT_OK/GD32VW55X_Wifi_BLE_SDK/GD32VW55x_RELEASE_V1.0.2/MSDK/cloud/alicloud/src/protocol/alcs\alcs_api.c ****             }
 490:C:/Users/stapi/OneDrive/Desktop/GD32VW553/V1_MQTT_OK/GD32VW55X_Wifi_BLE_SDK/GD32VW55x_RELEASE_V1.0.2/MSDK/cloud/alicloud/src/protocol/alcs\alcs_api.c ****         }
 491:C:/Users/stapi/OneDrive/Desktop/GD32VW553/V1_MQTT_OK/GD32VW55X_Wifi_BLE_SDK/GD32VW55x_RELEASE_V1.0.2/MSDK/cloud/alicloud/src/protocol/alcs\alcs_api.c ****     }
 492:C:/Users/stapi/OneDrive/Desktop/GD32VW553/V1_MQTT_OK/GD32VW55X_Wifi_BLE_SDK/GD32VW55x_RELEASE_V1.0.2/MSDK/cloud/alicloud/src/protocol/alcs\alcs_api.c **** 
 493:C:/Users/stapi/OneDrive/Desktop/GD32VW553/V1_MQTT_OK/GD32VW55X_Wifi_BLE_SDK/GD32VW55x_RELEASE_V1.0.2/MSDK/cloud/alicloud/src/protocol/alcs\alcs_api.c ****     unsigned int obsVal;
 494:C:/Users/stapi/OneDrive/Desktop/GD32VW553/V1_MQTT_OK/GD32VW55X_Wifi_BLE_SDK/GD32VW55x_RELEASE_V1.0.2/MSDK/cloud/alicloud/src/protocol/alcs\alcs_api.c ****     if (CoAPUintOption_get (message, COAP_OPTION_OBSERVE, &obsVal) != COAP_SUCCESS) {
 495:C:/Users/stapi/OneDrive/Desktop/GD32VW553/V1_MQTT_OK/GD32VW55X_Wifi_BLE_SDK/GD32VW55x_RELEASE_V1.0.2/MSDK/cloud/alicloud/src/protocol/alcs\alcs_api.c ****         coap_free (send_item);
 496:C:/Users/stapi/OneDrive/Desktop/GD32VW553/V1_MQTT_OK/GD32VW55X_Wifi_BLE_SDK/GD32VW55x_RELEASE_V1.0.2/MSDK/cloud/alicloud/src/protocol/alcs\alcs_api.c ****     }
 497:C:/Users/stapi/OneDrive/Desktop/GD32VW553/V1_MQTT_OK/GD32VW55X_Wifi_BLE_SDK/GD32VW55x_RELEASE_V1.0.2/MSDK/cloud/alicloud/src/protocol/alcs\alcs_api.c **** }
 498:C:/Users/stapi/OneDrive/Desktop/GD32VW553/V1_MQTT_OK/GD32VW55X_Wifi_BLE_SDK/GD32VW55x_RELEASE_V1.0.2/MSDK/cloud/alicloud/src/protocol/alcs\alcs_api.c **** 
 499:C:/Users/stapi/OneDrive/Desktop/GD32VW553/V1_MQTT_OK/GD32VW55X_Wifi_BLE_SDK/GD32VW55x_RELEASE_V1.0.2/MSDK/cloud/alicloud/src/protocol/alcs\alcs_api.c **** int alcs_sendmsg_secure(CoAPContext *ctx, AlcsDeviceKey* devKey, CoAPMessage *message, char observe
 500:C:/Users/stapi/OneDrive/Desktop/GD32VW553/V1_MQTT_OK/GD32VW55X_Wifi_BLE_SDK/GD32VW55x_RELEASE_V1.0.2/MSDK/cloud/alicloud/src/protocol/alcs\alcs_api.c **** {
 501:C:/Users/stapi/OneDrive/Desktop/GD32VW553/V1_MQTT_OK/GD32VW55X_Wifi_BLE_SDK/GD32VW55x_RELEASE_V1.0.2/MSDK/cloud/alicloud/src/protocol/alcs\alcs_api.c ****     if (!ctx || !devKey || !message) {
 502:C:/Users/stapi/OneDrive/Desktop/GD32VW553/V1_MQTT_OK/GD32VW55X_Wifi_BLE_SDK/GD32VW55x_RELEASE_V1.0.2/MSDK/cloud/alicloud/src/protocol/alcs\alcs_api.c ****         return COAP_ERROR_INVALID_PARAM;
 503:C:/Users/stapi/OneDrive/Desktop/GD32VW553/V1_MQTT_OK/GD32VW55X_Wifi_BLE_SDK/GD32VW55x_RELEASE_V1.0.2/MSDK/cloud/alicloud/src/protocol/alcs\alcs_api.c ****     }
 504:C:/Users/stapi/OneDrive/Desktop/GD32VW553/V1_MQTT_OK/GD32VW55X_Wifi_BLE_SDK/GD32VW55x_RELEASE_V1.0.2/MSDK/cloud/alicloud/src/protocol/alcs\alcs_api.c **** 
 505:C:/Users/stapi/OneDrive/Desktop/GD32VW553/V1_MQTT_OK/GD32VW55X_Wifi_BLE_SDK/GD32VW55x_RELEASE_V1.0.2/MSDK/cloud/alicloud/src/protocol/alcs\alcs_api.c ****     session_item* session = get_auth_session(devKey);
 506:C:/Users/stapi/OneDrive/Desktop/GD32VW553/V1_MQTT_OK/GD32VW55X_Wifi_BLE_SDK/GD32VW55x_RELEASE_V1.0.2/MSDK/cloud/alicloud/src/protocol/alcs\alcs_api.c ****     if (!session) {
 507:C:/Users/stapi/OneDrive/Desktop/GD32VW553/V1_MQTT_OK/GD32VW55X_Wifi_BLE_SDK/GD32VW55x_RELEASE_V1.0.2/MSDK/cloud/alicloud/src/protocol/alcs\alcs_api.c ****         COAP_DEBUG("alcs_sendmsg_secure, session not found");
 508:C:/Users/stapi/OneDrive/Desktop/GD32VW553/V1_MQTT_OK/GD32VW55X_Wifi_BLE_SDK/GD32VW55x_RELEASE_V1.0.2/MSDK/cloud/alicloud/src/protocol/alcs\alcs_api.c ****         return ALCS_ERR_AUTH_UNAUTH;
 509:C:/Users/stapi/OneDrive/Desktop/GD32VW553/V1_MQTT_OK/GD32VW55X_Wifi_BLE_SDK/GD32VW55x_RELEASE_V1.0.2/MSDK/cloud/alicloud/src/protocol/alcs\alcs_api.c ****     }
 510:C:/Users/stapi/OneDrive/Desktop/GD32VW553/V1_MQTT_OK/GD32VW55X_Wifi_BLE_SDK/GD32VW55x_RELEASE_V1.0.2/MSDK/cloud/alicloud/src/protocol/alcs\alcs_api.c **** 
 511:C:/Users/stapi/OneDrive/Desktop/GD32VW553/V1_MQTT_OK/GD32VW55X_Wifi_BLE_SDK/GD32VW55x_RELEASE_V1.0.2/MSDK/cloud/alicloud/src/protocol/alcs\alcs_api.c ****     if (handler) {
 512:C:/Users/stapi/OneDrive/Desktop/GD32VW553/V1_MQTT_OK/GD32VW55X_Wifi_BLE_SDK/GD32VW55x_RELEASE_V1.0.2/MSDK/cloud/alicloud/src/protocol/alcs\alcs_api.c ****         secure_send_item* item = (secure_send_item*)coap_malloc(sizeof(secure_send_item));
 513:C:/Users/stapi/OneDrive/Desktop/GD32VW553/V1_MQTT_OK/GD32VW55X_Wifi_BLE_SDK/GD32VW55x_RELEASE_V1.0.2/MSDK/cloud/alicloud/src/protocol/alcs\alcs_api.c ****         item->orig_user_data = message->user;
 514:C:/Users/stapi/OneDrive/Desktop/GD32VW553/V1_MQTT_OK/GD32VW55X_Wifi_BLE_SDK/GD32VW55x_RELEASE_V1.0.2/MSDK/cloud/alicloud/src/protocol/alcs\alcs_api.c ****         item->orig_handler = handler;
 515:C:/Users/stapi/OneDrive/Desktop/GD32VW553/V1_MQTT_OK/GD32VW55X_Wifi_BLE_SDK/GD32VW55x_RELEASE_V1.0.2/MSDK/cloud/alicloud/src/protocol/alcs\alcs_api.c ****         memcpy (item->pk_dn, session->pk_dn, PK_DN_CHECKSUM_LEN);
 516:C:/Users/stapi/OneDrive/Desktop/GD32VW553/V1_MQTT_OK/GD32VW55X_Wifi_BLE_SDK/GD32VW55x_RELEASE_V1.0.2/MSDK/cloud/alicloud/src/protocol/alcs\alcs_api.c **** 
 517:C:/Users/stapi/OneDrive/Desktop/GD32VW553/V1_MQTT_OK/GD32VW55X_Wifi_BLE_SDK/GD32VW55x_RELEASE_V1.0.2/MSDK/cloud/alicloud/src/protocol/alcs\alcs_api.c ****         message->handler = secure_sendmsg_handler;
 518:C:/Users/stapi/OneDrive/Desktop/GD32VW553/V1_MQTT_OK/GD32VW55X_Wifi_BLE_SDK/GD32VW55x_RELEASE_V1.0.2/MSDK/cloud/alicloud/src/protocol/alcs\alcs_api.c ****         message->user = item;
 519:C:/Users/stapi/OneDrive/Desktop/GD32VW553/V1_MQTT_OK/GD32VW55X_Wifi_BLE_SDK/GD32VW55x_RELEASE_V1.0.2/MSDK/cloud/alicloud/src/protocol/alcs\alcs_api.c ****     }
 520:C:/Users/stapi/OneDrive/Desktop/GD32VW553/V1_MQTT_OK/GD32VW55X_Wifi_BLE_SDK/GD32VW55x_RELEASE_V1.0.2/MSDK/cloud/alicloud/src/protocol/alcs\alcs_api.c **** 
 521:C:/Users/stapi/OneDrive/Desktop/GD32VW553/V1_MQTT_OK/GD32VW55X_Wifi_BLE_SDK/GD32VW55x_RELEASE_V1.0.2/MSDK/cloud/alicloud/src/protocol/alcs\alcs_api.c ****     if (observe < 2)) {
 522:C:/Users/stapi/OneDrive/Desktop/GD32VW553/V1_MQTT_OK/GD32VW55X_Wifi_BLE_SDK/GD32VW55x_RELEASE_V1.0.2/MSDK/cloud/alicloud/src/protocol/alcs\alcs_api.c ****         CoAPUintOption_add (message, COAP_OPTION_OBSERVE, observe);
 523:C:/Users/stapi/OneDrive/Desktop/GD32VW553/V1_MQTT_OK/GD32VW55X_Wifi_BLE_SDK/GD32VW55x_RELEASE_V1.0.2/MSDK/cloud/alicloud/src/protocol/alcs\alcs_api.c ****     }
 524:C:/Users/stapi/OneDrive/Desktop/GD32VW553/V1_MQTT_OK/GD32VW55X_Wifi_BLE_SDK/GD32VW55x_RELEASE_V1.0.2/MSDK/cloud/alicloud/src/protocol/alcs\alcs_api.c **** 
 525:C:/Users/stapi/OneDrive/Desktop/GD32VW553/V1_MQTT_OK/GD32VW55X_Wifi_BLE_SDK/GD32VW55x_RELEASE_V1.0.2/MSDK/cloud/alicloud/src/protocol/alcs\alcs_api.c ****     return internal_secure_send (ctx, session, &devKey->addr, message);
 526:C:/Users/stapi/OneDrive/Desktop/GD32VW553/V1_MQTT_OK/GD32VW55X_Wifi_BLE_SDK/GD32VW55x_RELEASE_V1.0.2/MSDK/cloud/alicloud/src/protocol/alcs\alcs_api.c **** }
 527:C:/Users/stapi/OneDrive/Desktop/GD32VW553/V1_MQTT_OK/GD32VW55X_Wifi_BLE_SDK/GD32VW55x_RELEASE_V1.0.2/MSDK/cloud/alicloud/src/protocol/alcs\alcs_api.c **** 
 528:C:/Users/stapi/OneDrive/Desktop/GD32VW553/V1_MQTT_OK/GD32VW55X_Wifi_BLE_SDK/GD32VW55x_RELEASE_V1.0.2/MSDK/cloud/alicloud/src/protocol/alcs\alcs_api.c **** #endif
 529:C:/Users/stapi/OneDrive/Desktop/GD32VW553/V1_MQTT_OK/GD32VW55X_Wifi_BLE_SDK/GD32VW55x_RELEASE_V1.0.2/MSDK/cloud/alicloud/src/protocol/alcs\alcs_api.c **** 
 530:C:/Users/stapi/OneDrive/Desktop/GD32VW553/V1_MQTT_OK/GD32VW55X_Wifi_BLE_SDK/GD32VW55x_RELEASE_V1.0.2/MSDK/cloud/alicloud/src/protocol/alcs\alcs_api.c **** int alcs_sendrsp_secure(CoAPContext *ctx, AlcsDeviceKey* devKey, CoAPMessage *message, char observe
 531:C:/Users/stapi/OneDrive/Desktop/GD32VW553/V1_MQTT_OK/GD32VW55X_Wifi_BLE_SDK/GD32VW55x_RELEASE_V1.0.2/MSDK/cloud/alicloud/src/protocol/alcs\alcs_api.c **** {
 532:C:/Users/stapi/OneDrive/Desktop/GD32VW553/V1_MQTT_OK/GD32VW55X_Wifi_BLE_SDK/GD32VW55x_RELEASE_V1.0.2/MSDK/cloud/alicloud/src/protocol/alcs\alcs_api.c ****     request_item* req;
 533:C:/Users/stapi/OneDrive/Desktop/GD32VW553/V1_MQTT_OK/GD32VW55X_Wifi_BLE_SDK/GD32VW55x_RELEASE_V1.0.2/MSDK/cloud/alicloud/src/protocol/alcs\alcs_api.c ****     char* encrypt_key;
 534:C:/Users/stapi/OneDrive/Desktop/GD32VW553/V1_MQTT_OK/GD32VW55X_Wifi_BLE_SDK/GD32VW55x_RELEASE_V1.0.2/MSDK/cloud/alicloud/src/protocol/alcs\alcs_api.c ****     
 535:C:/Users/stapi/OneDrive/Desktop/GD32VW553/V1_MQTT_OK/GD32VW55X_Wifi_BLE_SDK/GD32VW55x_RELEASE_V1.0.2/MSDK/cloud/alicloud/src/protocol/alcs\alcs_api.c ****     COAP_DEBUG("alcs_sendrsp_secure");
 536:C:/Users/stapi/OneDrive/Desktop/GD32VW553/V1_MQTT_OK/GD32VW55X_Wifi_BLE_SDK/GD32VW55x_RELEASE_V1.0.2/MSDK/cloud/alicloud/src/protocol/alcs\alcs_api.c ****     if (!ctx || !devKey || !message) {
 537:C:/Users/stapi/OneDrive/Desktop/GD32VW553/V1_MQTT_OK/GD32VW55X_Wifi_BLE_SDK/GD32VW55x_RELEASE_V1.0.2/MSDK/cloud/alicloud/src/protocol/alcs\alcs_api.c ****         return ALCS_ERR_INVALID_PARAM;
 538:C:/Users/stapi/OneDrive/Desktop/GD32VW553/V1_MQTT_OK/GD32VW55X_Wifi_BLE_SDK/GD32VW55x_RELEASE_V1.0.2/MSDK/cloud/alicloud/src/protocol/alcs\alcs_api.c ****     }
 539:C:/Users/stapi/OneDrive/Desktop/GD32VW553/V1_MQTT_OK/GD32VW55X_Wifi_BLE_SDK/GD32VW55x_RELEASE_V1.0.2/MSDK/cloud/alicloud/src/protocol/alcs\alcs_api.c ****     req = find_request_by_req (&devKey->addr, token->data, token->len);
 540:C:/Users/stapi/OneDrive/Desktop/GD32VW553/V1_MQTT_OK/GD32VW55X_Wifi_BLE_SDK/GD32VW55x_RELEASE_V1.0.2/MSDK/cloud/alicloud/src/protocol/alcs\alcs_api.c ****     if (!req) {
 541:C:/Users/stapi/OneDrive/Desktop/GD32VW553/V1_MQTT_OK/GD32VW55X_Wifi_BLE_SDK/GD32VW55x_RELEASE_V1.0.2/MSDK/cloud/alicloud/src/protocol/alcs\alcs_api.c ****         COAP_DEBUG("request is expired");
 542:C:/Users/stapi/OneDrive/Desktop/GD32VW553/V1_MQTT_OK/GD32VW55X_Wifi_BLE_SDK/GD32VW55x_RELEASE_V1.0.2/MSDK/cloud/alicloud/src/protocol/alcs\alcs_api.c ****         return ALCS_ERR_AUTH_UNAUTH;
 543:C:/Users/stapi/OneDrive/Desktop/GD32VW553/V1_MQTT_OK/GD32VW55X_Wifi_BLE_SDK/GD32VW55x_RELEASE_V1.0.2/MSDK/cloud/alicloud/src/protocol/alcs\alcs_api.c ****     }
 544:C:/Users/stapi/OneDrive/Desktop/GD32VW553/V1_MQTT_OK/GD32VW55X_Wifi_BLE_SDK/GD32VW55x_RELEASE_V1.0.2/MSDK/cloud/alicloud/src/protocol/alcs\alcs_api.c ****     
 545:C:/Users/stapi/OneDrive/Desktop/GD32VW553/V1_MQTT_OK/GD32VW55X_Wifi_BLE_SDK/GD32VW55x_RELEASE_V1.0.2/MSDK/cloud/alicloud/src/protocol/alcs\alcs_api.c ****     // message->header.msgid = msgid;
 546:C:/Users/stapi/OneDrive/Desktop/GD32VW553/V1_MQTT_OK/GD32VW55X_Wifi_BLE_SDK/GD32VW55x_RELEASE_V1.0.2/MSDK/cloud/alicloud/src/protocol/alcs\alcs_api.c ****     if (msgid == 0) {
 547:C:/Users/stapi/OneDrive/Desktop/GD32VW553/V1_MQTT_OK/GD32VW55X_Wifi_BLE_SDK/GD32VW55x_RELEASE_V1.0.2/MSDK/cloud/alicloud/src/protocol/alcs\alcs_api.c ****         message->header.msgid = CoAPMessageId_gen(ctx);
 548:C:/Users/stapi/OneDrive/Desktop/GD32VW553/V1_MQTT_OK/GD32VW55X_Wifi_BLE_SDK/GD32VW55x_RELEASE_V1.0.2/MSDK/cloud/alicloud/src/protocol/alcs\alcs_api.c ****     } else {
 549:C:/Users/stapi/OneDrive/Desktop/GD32VW553/V1_MQTT_OK/GD32VW55X_Wifi_BLE_SDK/GD32VW55x_RELEASE_V1.0.2/MSDK/cloud/alicloud/src/protocol/alcs\alcs_api.c ****         message->header.msgid = msgid;
 550:C:/Users/stapi/OneDrive/Desktop/GD32VW553/V1_MQTT_OK/GD32VW55X_Wifi_BLE_SDK/GD32VW55x_RELEASE_V1.0.2/MSDK/cloud/alicloud/src/protocol/alcs\alcs_api.c ****     }
 551:C:/Users/stapi/OneDrive/Desktop/GD32VW553/V1_MQTT_OK/GD32VW55X_Wifi_BLE_SDK/GD32VW55x_RELEASE_V1.0.2/MSDK/cloud/alicloud/src/protocol/alcs\alcs_api.c ****     message->header.tokenlen = token->len;
 552:C:/Users/stapi/OneDrive/Desktop/GD32VW553/V1_MQTT_OK/GD32VW55X_Wifi_BLE_SDK/GD32VW55x_RELEASE_V1.0.2/MSDK/cloud/alicloud/src/protocol/alcs\alcs_api.c ****     memcpy (&message->token, token->data, token->len);
 553:C:/Users/stapi/OneDrive/Desktop/GD32VW553/V1_MQTT_OK/GD32VW55X_Wifi_BLE_SDK/GD32VW55x_RELEASE_V1.0.2/MSDK/cloud/alicloud/src/protocol/alcs\alcs_api.c **** 
 554:C:/Users/stapi/OneDrive/Desktop/GD32VW553/V1_MQTT_OK/GD32VW55X_Wifi_BLE_SDK/GD32VW55x_RELEASE_V1.0.2/MSDK/cloud/alicloud/src/protocol/alcs\alcs_api.c ****     if (req->observe == 0) {
 555:C:/Users/stapi/OneDrive/Desktop/GD32VW553/V1_MQTT_OK/GD32VW55X_Wifi_BLE_SDK/GD32VW55x_RELEASE_V1.0.2/MSDK/cloud/alicloud/src/protocol/alcs\alcs_api.c ****         CoAPUintOption_add (message, COAP_OPTION_OBSERVE, req->observe);
 556:C:/Users/stapi/OneDrive/Desktop/GD32VW553/V1_MQTT_OK/GD32VW55X_Wifi_BLE_SDK/GD32VW55x_RELEASE_V1.0.2/MSDK/cloud/alicloud/src/protocol/alcs\alcs_api.c ****     }
 557:C:/Users/stapi/OneDrive/Desktop/GD32VW553/V1_MQTT_OK/GD32VW55X_Wifi_BLE_SDK/GD32VW55x_RELEASE_V1.0.2/MSDK/cloud/alicloud/src/protocol/alcs\alcs_api.c ****     CoAPUintOption_add (message, COAP_OPTION_CONTENT_FORMAT, COAP_CT_APP_OCTET_STREAM);
 558:C:/Users/stapi/OneDrive/Desktop/GD32VW553/V1_MQTT_OK/GD32VW55X_Wifi_BLE_SDK/GD32VW55x_RELEASE_V1.0.2/MSDK/cloud/alicloud/src/protocol/alcs\alcs_api.c ****     
 559:C:/Users/stapi/OneDrive/Desktop/GD32VW553/V1_MQTT_OK/GD32VW55X_Wifi_BLE_SDK/GD32VW55x_RELEASE_V1.0.2/MSDK/cloud/alicloud/src/protocol/alcs\alcs_api.c ****     if (req->isGroup) {
 560:C:/Users/stapi/OneDrive/Desktop/GD32VW553/V1_MQTT_OK/GD32VW55X_Wifi_BLE_SDK/GD32VW55x_RELEASE_V1.0.2/MSDK/cloud/alicloud/src/protocol/alcs\alcs_api.c ****         COAP_DEBUG("alcs_sendrsp_secure, send group rsp");
 561:C:/Users/stapi/OneDrive/Desktop/GD32VW553/V1_MQTT_OK/GD32VW55X_Wifi_BLE_SDK/GD32VW55x_RELEASE_V1.0.2/MSDK/cloud/alicloud/src/protocol/alcs\alcs_api.c ****         encrypt_key = req->groupKey;
 562:C:/Users/stapi/OneDrive/Desktop/GD32VW553/V1_MQTT_OK/GD32VW55X_Wifi_BLE_SDK/GD32VW55x_RELEASE_V1.0.2/MSDK/cloud/alicloud/src/protocol/alcs\alcs_api.c ****     } else {
 563:C:/Users/stapi/OneDrive/Desktop/GD32VW553/V1_MQTT_OK/GD32VW55X_Wifi_BLE_SDK/GD32VW55x_RELEASE_V1.0.2/MSDK/cloud/alicloud/src/protocol/alcs\alcs_api.c ****         session_item* session = get_session_by_id (req->sessionId);
 564:C:/Users/stapi/OneDrive/Desktop/GD32VW553/V1_MQTT_OK/GD32VW55X_Wifi_BLE_SDK/GD32VW55x_RELEASE_V1.0.2/MSDK/cloud/alicloud/src/protocol/alcs\alcs_api.c ****         if (!session) {
 565:C:/Users/stapi/OneDrive/Desktop/GD32VW553/V1_MQTT_OK/GD32VW55X_Wifi_BLE_SDK/GD32VW55x_RELEASE_V1.0.2/MSDK/cloud/alicloud/src/protocol/alcs\alcs_api.c ****             COAP_DEBUG("alcs_sendrsp_secure, session not found");
 566:C:/Users/stapi/OneDrive/Desktop/GD32VW553/V1_MQTT_OK/GD32VW55X_Wifi_BLE_SDK/GD32VW55x_RELEASE_V1.0.2/MSDK/cloud/alicloud/src/protocol/alcs\alcs_api.c ****             return ALCS_ERR_AUTH_UNAUTH;
 567:C:/Users/stapi/OneDrive/Desktop/GD32VW553/V1_MQTT_OK/GD32VW55X_Wifi_BLE_SDK/GD32VW55x_RELEASE_V1.0.2/MSDK/cloud/alicloud/src/protocol/alcs\alcs_api.c ****         }
 568:C:/Users/stapi/OneDrive/Desktop/GD32VW553/V1_MQTT_OK/GD32VW55X_Wifi_BLE_SDK/GD32VW55x_RELEASE_V1.0.2/MSDK/cloud/alicloud/src/protocol/alcs\alcs_api.c ****         
 569:C:/Users/stapi/OneDrive/Desktop/GD32VW553/V1_MQTT_OK/GD32VW55X_Wifi_BLE_SDK/GD32VW55x_RELEASE_V1.0.2/MSDK/cloud/alicloud/src/protocol/alcs\alcs_api.c ****         CoAPLenString payload = {message->payloadlen, (unsigned char *)message->payload};
 570:C:/Users/stapi/OneDrive/Desktop/GD32VW553/V1_MQTT_OK/GD32VW55X_Wifi_BLE_SDK/GD32VW55x_RELEASE_V1.0.2/MSDK/cloud/alicloud/src/protocol/alcs\alcs_api.c ****         add_message_sessionid (message, session->sessionId, session->opt, &payload);
 571:C:/Users/stapi/OneDrive/Desktop/GD32VW553/V1_MQTT_OK/GD32VW55X_Wifi_BLE_SDK/GD32VW55x_RELEASE_V1.0.2/MSDK/cloud/alicloud/src/protocol/alcs\alcs_api.c ****         COAP_DEBUG("alcs_sendrsp_secure sessionId:%d", session->sessionId);
 572:C:/Users/stapi/OneDrive/Desktop/GD32VW553/V1_MQTT_OK/GD32VW55X_Wifi_BLE_SDK/GD32VW55x_RELEASE_V1.0.2/MSDK/cloud/alicloud/src/protocol/alcs\alcs_api.c ****         encrypt_key = session->sessionKey;
 573:C:/Users/stapi/OneDrive/Desktop/GD32VW553/V1_MQTT_OK/GD32VW55X_Wifi_BLE_SDK/GD32VW55x_RELEASE_V1.0.2/MSDK/cloud/alicloud/src/protocol/alcs\alcs_api.c ****     }
 574:C:/Users/stapi/OneDrive/Desktop/GD32VW553/V1_MQTT_OK/GD32VW55X_Wifi_BLE_SDK/GD32VW55x_RELEASE_V1.0.2/MSDK/cloud/alicloud/src/protocol/alcs\alcs_api.c ****     
 575:C:/Users/stapi/OneDrive/Desktop/GD32VW553/V1_MQTT_OK/GD32VW55X_Wifi_BLE_SDK/GD32VW55x_RELEASE_V1.0.2/MSDK/cloud/alicloud/src/protocol/alcs\alcs_api.c ****     int rt = do_secure_send (ctx, &req->addr, message, encrypt_key);
 576:C:/Users/stapi/OneDrive/Desktop/GD32VW553/V1_MQTT_OK/GD32VW55X_Wifi_BLE_SDK/GD32VW55x_RELEASE_V1.0.2/MSDK/cloud/alicloud/src/protocol/alcs\alcs_api.c ****     remove_request(req);
 577:C:/Users/stapi/OneDrive/Desktop/GD32VW553/V1_MQTT_OK/GD32VW55X_Wifi_BLE_SDK/GD32VW55x_RELEASE_V1.0.2/MSDK/cloud/alicloud/src/protocol/alcs\alcs_api.c ****     return rt;
 578:C:/Users/stapi/OneDrive/Desktop/GD32VW553/V1_MQTT_OK/GD32VW55X_Wifi_BLE_SDK/GD32VW55x_RELEASE_V1.0.2/MSDK/cloud/alicloud/src/protocol/alcs\alcs_api.c **** }
 579:C:/Users/stapi/OneDrive/Desktop/GD32VW553/V1_MQTT_OK/GD32VW55X_Wifi_BLE_SDK/GD32VW55x_RELEASE_V1.0.2/MSDK/cloud/alicloud/src/protocol/alcs\alcs_api.c **** 
 580:C:/Users/stapi/OneDrive/Desktop/GD32VW553/V1_MQTT_OK/GD32VW55X_Wifi_BLE_SDK/GD32VW55x_RELEASE_V1.0.2/MSDK/cloud/alicloud/src/protocol/alcs\alcs_api.c **** bool req_payload_parser (const char* payload, int len, char** seq, int* seqlen, char** data, int* d
 581:C:/Users/stapi/OneDrive/Desktop/GD32VW553/V1_MQTT_OK/GD32VW55X_Wifi_BLE_SDK/GD32VW55x_RELEASE_V1.0.2/MSDK/cloud/alicloud/src/protocol/alcs\alcs_api.c **** {
 1829              		.loc 1 581 1 is_stmt 1
 1830              		.cfi_startproc
 1831              	.LVL198:
 582:C:/Users/stapi/OneDrive/Desktop/GD32VW553/V1_MQTT_OK/GD32VW55X_Wifi_BLE_SDK/GD32VW55x_RELEASE_V1.0.2/MSDK/cloud/alicloud/src/protocol/alcs\alcs_api.c ****     if (!payload || !len || !seq || !seqlen || !datalen || !data) {
 1832              		.loc 1 582 5
 1833              		.loc 1 582 8 is_stmt 0
 1834 0000 39CD     		beq	a0,zero,.L136
 581:C:/Users/stapi/OneDrive/Desktop/GD32VW553/V1_MQTT_OK/GD32VW55X_Wifi_BLE_SDK/GD32VW55x_RELEASE_V1.0.2/MSDK/cloud/alicloud/src/protocol/alcs\alcs_api.c ****     if (!payload || !len || !seq || !seqlen || !datalen || !data) {
 1835              		.loc 1 581 1 discriminator 1
 1836 0002 17030000 		call	t0,__riscv_save_5
 1836      E7020300 
 1837              		.cfi_offset 20, -24
 1838              		.cfi_offset 19, -20
 1839              		.cfi_offset 18, -16
 1840              		.cfi_offset 9, -12
 1841              		.cfi_offset 8, -8
 1842              		.cfi_offset 1, -4
 1843              		.cfi_def_cfa_offset 32
 1844 000a 2E89     		mv	s2,a1
 583:C:/Users/stapi/OneDrive/Desktop/GD32VW553/V1_MQTT_OK/GD32VW55X_Wifi_BLE_SDK/GD32VW55x_RELEASE_V1.0.2/MSDK/cloud/alicloud/src/protocol/alcs\alcs_api.c ****         return 0;
 1845              		.loc 1 583 16 discriminator 1
 1846 000c 0148     		li	a6,0
 582:C:/Users/stapi/OneDrive/Desktop/GD32VW553/V1_MQTT_OK/GD32VW55X_Wifi_BLE_SDK/GD32VW55x_RELEASE_V1.0.2/MSDK/cloud/alicloud/src/protocol/alcs\alcs_api.c ****     if (!payload || !len || !seq || !seqlen || !datalen || !data) {
 1847              		.loc 1 582 18 discriminator 1
 1848 000e B9C1     		beq	a1,zero,.L135
 1849 0010 328A     		mv	s4,a2
 582:C:/Users/stapi/OneDrive/Desktop/GD32VW553/V1_MQTT_OK/GD32VW55X_Wifi_BLE_SDK/GD32VW55x_RELEASE_V1.0.2/MSDK/cloud/alicloud/src/protocol/alcs\alcs_api.c ****     if (!payload || !len || !seq || !seqlen || !datalen || !data) {
 1850              		.loc 1 582 26 discriminator 2
 1851 0012 29C2     		beq	a2,zero,.L135
 582:C:/Users/stapi/OneDrive/Desktop/GD32VW553/V1_MQTT_OK/GD32VW55X_Wifi_BLE_SDK/GD32VW55x_RELEASE_V1.0.2/MSDK/cloud/alicloud/src/protocol/alcs\alcs_api.c ****     if (!payload || !len || !seq || !seqlen || !datalen || !data) {
 1852              		.loc 1 582 34 discriminator 3
 1853 0014 A1C2     		beq	a3,zero,.L135
 1854 0016 BE89     		mv	s3,a5
 582:C:/Users/stapi/OneDrive/Desktop/GD32VW553/V1_MQTT_OK/GD32VW55X_Wifi_BLE_SDK/GD32VW55x_RELEASE_V1.0.2/MSDK/cloud/alicloud/src/protocol/alcs\alcs_api.c ****     if (!payload || !len || !seq || !seqlen || !datalen || !data) {
 1855              		.loc 1 582 45 discriminator 4
 1856 0018 95CF     		beq	a5,zero,.L135
 1857 001a 3A84     		mv	s0,a4
 582:C:/Users/stapi/OneDrive/Desktop/GD32VW553/V1_MQTT_OK/GD32VW55X_Wifi_BLE_SDK/GD32VW55x_RELEASE_V1.0.2/MSDK/cloud/alicloud/src/protocol/alcs\alcs_api.c ****     if (!payload || !len || !seq || !seqlen || !datalen || !data) {
 1858              		.loc 1 582 57 discriminator 5
 1859 001c 05CF     		beq	a4,zero,.L135
 584:C:/Users/stapi/OneDrive/Desktop/GD32VW553/V1_MQTT_OK/GD32VW55X_Wifi_BLE_SDK/GD32VW55x_RELEASE_V1.0.2/MSDK/cloud/alicloud/src/protocol/alcs\alcs_api.c ****     }
 585:C:/Users/stapi/OneDrive/Desktop/GD32VW553/V1_MQTT_OK/GD32VW55X_Wifi_BLE_SDK/GD32VW55x_RELEASE_V1.0.2/MSDK/cloud/alicloud/src/protocol/alcs\alcs_api.c **** 
 586:C:/Users/stapi/OneDrive/Desktop/GD32VW553/V1_MQTT_OK/GD32VW55X_Wifi_BLE_SDK/GD32VW55x_RELEASE_V1.0.2/MSDK/cloud/alicloud/src/protocol/alcs\alcs_api.c ****     *seq = json_get_value_by_name((char*)payload, len, "id", seqlen, NULL);
 1860              		.loc 1 586 12
 1861 001e 37060000 		lui	a2,%hi(.LC18)
 1862              	.LVL199:
 1863 0022 0147     		li	a4,0
 1864              	.LVL200:
 1865 0024 13060600 		addi	a2,a2,%lo(.LC18)
 1866 0028 AA84     		mv	s1,a0
 1867              		.loc 1 586 5 is_stmt 1
 1868              		.loc 1 586 12 is_stmt 0
 1869 002a 97000000 		call	json_get_value_by_name
 1869      E7800000 
 1870              	.LVL201:
 587:C:/Users/stapi/OneDrive/Desktop/GD32VW553/V1_MQTT_OK/GD32VW55X_Wifi_BLE_SDK/GD32VW55x_RELEASE_V1.0.2/MSDK/cloud/alicloud/src/protocol/alcs\alcs_api.c **** 
 588:C:/Users/stapi/OneDrive/Desktop/GD32VW553/V1_MQTT_OK/GD32VW55X_Wifi_BLE_SDK/GD32VW55x_RELEASE_V1.0.2/MSDK/cloud/alicloud/src/protocol/alcs\alcs_api.c ****     *data = json_get_value_by_name((char*)payload, len, "params", datalen, NULL);
 1871              		.loc 1 588 13
 1872 0032 37060000 		lui	a2,%hi(.LC19)
 586:C:/Users/stapi/OneDrive/Desktop/GD32VW553/V1_MQTT_OK/GD32VW55X_Wifi_BLE_SDK/GD32VW55x_RELEASE_V1.0.2/MSDK/cloud/alicloud/src/protocol/alcs\alcs_api.c **** 
 1873              		.loc 1 586 10
 1874 0036 2320AA00 		sw	a0,0(s4)
 1875              		.loc 1 588 5 is_stmt 1
 1876              		.loc 1 588 13 is_stmt 0
 1877 003a 0147     		li	a4,0
 1878 003c CE86     		mv	a3,s3
 1879 003e 13060600 		addi	a2,a2,%lo(.LC19)
 1880 0042 CA85     		mv	a1,s2
 1881 0044 2685     		mv	a0,s1
 1882 0046 97000000 		call	json_get_value_by_name
 1882      E7800000 
 1883              	.LVL202:
 1884              		.loc 1 588 11
 1885 004e 08C0     		sw	a0,0(s0)
 589:C:/Users/stapi/OneDrive/Desktop/GD32VW553/V1_MQTT_OK/GD32VW55X_Wifi_BLE_SDK/GD32VW55x_RELEASE_V1.0.2/MSDK/cloud/alicloud/src/protocol/alcs\alcs_api.c ****     return *data && datalen;
 1886              		.loc 1 589 5 is_stmt 1
 1887              		.loc 1 589 18 is_stmt 0
 1888 0050 3338A000 		snez	a6,a0
 1889              	.LVL203:
 1890              	.L135:
 590:C:/Users/stapi/OneDrive/Desktop/GD32VW553/V1_MQTT_OK/GD32VW55X_Wifi_BLE_SDK/GD32VW55x_RELEASE_V1.0.2/MSDK/cloud/alicloud/src/protocol/alcs\alcs_api.c **** }
 1891              		.loc 1 590 1
 1892 0054 4285     		mv	a0,a6
 1893 0056 17030000 		tail	__riscv_restore_5
 1893      67000300 
 1894              		.cfi_restore 20
 1895              		.cfi_restore 19
 1896              		.cfi_restore 18
 1897              		.cfi_restore 9
 1898              		.cfi_restore 8
 1899              		.cfi_restore 1
 1900              		.cfi_def_cfa_offset 0
 1901              	.LVL204:
 1902              	.L136:
 583:C:/Users/stapi/OneDrive/Desktop/GD32VW553/V1_MQTT_OK/GD32VW55X_Wifi_BLE_SDK/GD32VW55x_RELEASE_V1.0.2/MSDK/cloud/alicloud/src/protocol/alcs\alcs_api.c ****     }
 1903              		.loc 1 583 16
 1904 005e 0148     		li	a6,0
 1905              		.loc 1 590 1
 1906 0060 4285     		mv	a0,a6
 1907              	.LVL205:
 1908 0062 8280     		ret
 1909              		.cfi_endproc
 1910              	.LFE42:
 1912              		.section	.text.on_auth_timer,"ax",@progbits
 1913              		.align	1
 1914              		.globl	on_auth_timer
 1916              	on_auth_timer:
 1917              	.LFB43:
 591:C:/Users/stapi/OneDrive/Desktop/GD32VW553/V1_MQTT_OK/GD32VW55X_Wifi_BLE_SDK/GD32VW55x_RELEASE_V1.0.2/MSDK/cloud/alicloud/src/protocol/alcs\alcs_api.c **** 
 592:C:/Users/stapi/OneDrive/Desktop/GD32VW553/V1_MQTT_OK/GD32VW55X_Wifi_BLE_SDK/GD32VW55x_RELEASE_V1.0.2/MSDK/cloud/alicloud/src/protocol/alcs\alcs_api.c **** void on_auth_timer(void* param)
 593:C:/Users/stapi/OneDrive/Desktop/GD32VW553/V1_MQTT_OK/GD32VW55X_Wifi_BLE_SDK/GD32VW55x_RELEASE_V1.0.2/MSDK/cloud/alicloud/src/protocol/alcs\alcs_api.c **** {
 1918              		.loc 1 593 1 is_stmt 1
 1919              		.cfi_startproc
 1920              	.LVL206:
 594:C:/Users/stapi/OneDrive/Desktop/GD32VW553/V1_MQTT_OK/GD32VW55X_Wifi_BLE_SDK/GD32VW55x_RELEASE_V1.0.2/MSDK/cloud/alicloud/src/protocol/alcs\alcs_api.c ****     if (!is_inited) {
 1921              		.loc 1 594 5
 1922              		.loc 1 594 8 is_stmt 0
 1923 0000 B7070000 		lui	a5,%hi(.LANCHOR1)
 1924 0004 83870700 		lb	a5,%lo(.LANCHOR1)(a5)
 1925 0008 89C7     		beq	a5,zero,.L152
 595:C:/Users/stapi/OneDrive/Desktop/GD32VW553/V1_MQTT_OK/GD32VW55X_Wifi_BLE_SDK/GD32VW55x_RELEASE_V1.0.2/MSDK/cloud/alicloud/src/protocol/alcs\alcs_api.c ****         return;
 596:C:/Users/stapi/OneDrive/Desktop/GD32VW553/V1_MQTT_OK/GD32VW55X_Wifi_BLE_SDK/GD32VW55x_RELEASE_V1.0.2/MSDK/cloud/alicloud/src/protocol/alcs\alcs_api.c ****     }
 597:C:/Users/stapi/OneDrive/Desktop/GD32VW553/V1_MQTT_OK/GD32VW55X_Wifi_BLE_SDK/GD32VW55x_RELEASE_V1.0.2/MSDK/cloud/alicloud/src/protocol/alcs\alcs_api.c **** 
 598:C:/Users/stapi/OneDrive/Desktop/GD32VW553/V1_MQTT_OK/GD32VW55X_Wifi_BLE_SDK/GD32VW55x_RELEASE_V1.0.2/MSDK/cloud/alicloud/src/protocol/alcs\alcs_api.c ****     CoAPContext *ctx = (CoAPContext *) param;
 1926              		.loc 1 598 5 is_stmt 1
 599:C:/Users/stapi/OneDrive/Desktop/GD32VW553/V1_MQTT_OK/GD32VW55X_Wifi_BLE_SDK/GD32VW55x_RELEASE_V1.0.2/MSDK/cloud/alicloud/src/protocol/alcs\alcs_api.c **** #ifdef ALCS_CLIENT_ENABLED
 600:C:/Users/stapi/OneDrive/Desktop/GD32VW553/V1_MQTT_OK/GD32VW55X_Wifi_BLE_SDK/GD32VW55x_RELEASE_V1.0.2/MSDK/cloud/alicloud/src/protocol/alcs\alcs_api.c ****     extern void on_client_auth_timer (CoAPContext *);
 601:C:/Users/stapi/OneDrive/Desktop/GD32VW553/V1_MQTT_OK/GD32VW55X_Wifi_BLE_SDK/GD32VW55x_RELEASE_V1.0.2/MSDK/cloud/alicloud/src/protocol/alcs\alcs_api.c ****     on_client_auth_timer (ctx);
 602:C:/Users/stapi/OneDrive/Desktop/GD32VW553/V1_MQTT_OK/GD32VW55X_Wifi_BLE_SDK/GD32VW55x_RELEASE_V1.0.2/MSDK/cloud/alicloud/src/protocol/alcs\alcs_api.c **** #endif
 603:C:/Users/stapi/OneDrive/Desktop/GD32VW553/V1_MQTT_OK/GD32VW55X_Wifi_BLE_SDK/GD32VW55x_RELEASE_V1.0.2/MSDK/cloud/alicloud/src/protocol/alcs\alcs_api.c **** #ifdef ALCS_SERVER_ENABLED
 604:C:/Users/stapi/OneDrive/Desktop/GD32VW553/V1_MQTT_OK/GD32VW55X_Wifi_BLE_SDK/GD32VW55x_RELEASE_V1.0.2/MSDK/cloud/alicloud/src/protocol/alcs\alcs_api.c ****     extern void on_svr_auth_timer (CoAPContext *);
 1927              		.loc 1 604 5
 605:C:/Users/stapi/OneDrive/Desktop/GD32VW553/V1_MQTT_OK/GD32VW55X_Wifi_BLE_SDK/GD32VW55x_RELEASE_V1.0.2/MSDK/cloud/alicloud/src/protocol/alcs\alcs_api.c ****     on_svr_auth_timer (ctx);
 1928              		.loc 1 605 5
 1929 000a 17030000 		tail	on_svr_auth_timer
 1929      67000300 
 1930              	.LVL207:
 1931              	.L152:
 1932 0012 8280     		ret
 1933              		.cfi_endproc
 1934              	.LFE43:
 1936              		.section	.rodata.seqwindow_accept.str1.4,"aMS",@progbits,1
 1937              		.align	2
 1938              	.LC20:
 1939 0000 63616E27 		.string	"can't find seqid"
 1939      74206669 
 1939      6E642073 
 1939      65716964 
 1939      00
 1940 0011 000000   		.align	2
 1941              	.LC21:
 1942 0014 73657177 		.string	"seqwindow_accept, id=%u"
 1942      696E646F 
 1942      775F6163 
 1942      63657074 
 1942      2C206964 
 1943              		.align	2
 1944              	.LC22:
 1945 002c 73657120 		.string	"seq sign is illegal!"
 1945      7369676E 
 1945      20697320 
 1945      696C6C65 
 1945      67616C21 
 1946 0041 000000   		.align	2
 1947              	.LC23:
 1948 0044 72656365 		.string	"receive expire seqid!"
 1948      69766520 
 1948      65787069 
 1948      72652073 
 1948      65716964 
 1949 005a 0000     		.align	2
 1950              	.LC24:
 1951 005c 77696E64 		.string	"window pos:%d, offset:%d"
 1951      6F772070 
 1951      6F733A25 
 1951      642C206F 
 1951      66667365 
 1952 0075 000000   		.align	2
 1953              	.LC25:
 1954 0078 77696E64 		.string	"window offset:%d, startpos:%d, receivepos:%d, index:%d, startseq:%d"
 1954      6F77206F 
 1954      66667365 
 1954      743A2564 
 1954      2C207374 
 1955              		.section	.text.seqwindow_accept,"ax",@progbits
 1956              		.align	1
 1957              		.globl	seqwindow_accept
 1959              	seqwindow_accept:
 1960              	.LFB44:
 606:C:/Users/stapi/OneDrive/Desktop/GD32VW553/V1_MQTT_OK/GD32VW55X_Wifi_BLE_SDK/GD32VW55x_RELEASE_V1.0.2/MSDK/cloud/alicloud/src/protocol/alcs\alcs_api.c **** #endif
 607:C:/Users/stapi/OneDrive/Desktop/GD32VW553/V1_MQTT_OK/GD32VW55X_Wifi_BLE_SDK/GD32VW55x_RELEASE_V1.0.2/MSDK/cloud/alicloud/src/protocol/alcs\alcs_api.c **** }
 608:C:/Users/stapi/OneDrive/Desktop/GD32VW553/V1_MQTT_OK/GD32VW55X_Wifi_BLE_SDK/GD32VW55x_RELEASE_V1.0.2/MSDK/cloud/alicloud/src/protocol/alcs\alcs_api.c ****  
 609:C:/Users/stapi/OneDrive/Desktop/GD32VW553/V1_MQTT_OK/GD32VW55X_Wifi_BLE_SDK/GD32VW55x_RELEASE_V1.0.2/MSDK/cloud/alicloud/src/protocol/alcs\alcs_api.c **** #ifdef ALCS_GROUP_COMM_ENABLE
 610:C:/Users/stapi/OneDrive/Desktop/GD32VW553/V1_MQTT_OK/GD32VW55X_Wifi_BLE_SDK/GD32VW55x_RELEASE_V1.0.2/MSDK/cloud/alicloud/src/protocol/alcs\alcs_api.c **** const int Group_buf_len = Group_Sign_len + Group_Seq_len + Group_AK_LEN + Group_MAX_ID_len;
 611:C:/Users/stapi/OneDrive/Desktop/GD32VW553/V1_MQTT_OK/GD32VW55X_Wifi_BLE_SDK/GD32VW55x_RELEASE_V1.0.2/MSDK/cloud/alicloud/src/protocol/alcs\alcs_api.c **** unsigned int get_message_group_info (CoAPMessage *message, int* seq, char ak[], char group_id[])
 612:C:/Users/stapi/OneDrive/Desktop/GD32VW553/V1_MQTT_OK/GD32VW55X_Wifi_BLE_SDK/GD32VW55x_RELEASE_V1.0.2/MSDK/cloud/alicloud/src/protocol/alcs\alcs_api.c **** {
 613:C:/Users/stapi/OneDrive/Desktop/GD32VW553/V1_MQTT_OK/GD32VW55X_Wifi_BLE_SDK/GD32VW55x_RELEASE_V1.0.2/MSDK/cloud/alicloud/src/protocol/alcs\alcs_api.c ****     unsigned char buf[Group_buf_len];
 614:C:/Users/stapi/OneDrive/Desktop/GD32VW553/V1_MQTT_OK/GD32VW55X_Wifi_BLE_SDK/GD32VW55x_RELEASE_V1.0.2/MSDK/cloud/alicloud/src/protocol/alcs\alcs_api.c ****     unsigned short datalen = sizeof(buf);
 615:C:/Users/stapi/OneDrive/Desktop/GD32VW553/V1_MQTT_OK/GD32VW55X_Wifi_BLE_SDK/GD32VW55x_RELEASE_V1.0.2/MSDK/cloud/alicloud/src/protocol/alcs\alcs_api.c ****     unsigned short group_id_len;
 616:C:/Users/stapi/OneDrive/Desktop/GD32VW553/V1_MQTT_OK/GD32VW55X_Wifi_BLE_SDK/GD32VW55x_RELEASE_V1.0.2/MSDK/cloud/alicloud/src/protocol/alcs\alcs_api.c **** 
 617:C:/Users/stapi/OneDrive/Desktop/GD32VW553/V1_MQTT_OK/GD32VW55X_Wifi_BLE_SDK/GD32VW55x_RELEASE_V1.0.2/MSDK/cloud/alicloud/src/protocol/alcs\alcs_api.c ****     if (ALCS_SUCCESS != CoAPStrOption_get (message, COAP_OPTION_GROUPID, buf, &datalen)) {
 618:C:/Users/stapi/OneDrive/Desktop/GD32VW553/V1_MQTT_OK/GD32VW55X_Wifi_BLE_SDK/GD32VW55x_RELEASE_V1.0.2/MSDK/cloud/alicloud/src/protocol/alcs\alcs_api.c ****         COAP_DEBUG ("get_message_group_info, no options");
 619:C:/Users/stapi/OneDrive/Desktop/GD32VW553/V1_MQTT_OK/GD32VW55X_Wifi_BLE_SDK/GD32VW55x_RELEASE_V1.0.2/MSDK/cloud/alicloud/src/protocol/alcs\alcs_api.c ****         return ALCS_ERR_NULL;
 620:C:/Users/stapi/OneDrive/Desktop/GD32VW553/V1_MQTT_OK/GD32VW55X_Wifi_BLE_SDK/GD32VW55x_RELEASE_V1.0.2/MSDK/cloud/alicloud/src/protocol/alcs\alcs_api.c ****     }
 621:C:/Users/stapi/OneDrive/Desktop/GD32VW553/V1_MQTT_OK/GD32VW55X_Wifi_BLE_SDK/GD32VW55x_RELEASE_V1.0.2/MSDK/cloud/alicloud/src/protocol/alcs\alcs_api.c ****     
 622:C:/Users/stapi/OneDrive/Desktop/GD32VW553/V1_MQTT_OK/GD32VW55X_Wifi_BLE_SDK/GD32VW55x_RELEASE_V1.0.2/MSDK/cloud/alicloud/src/protocol/alcs\alcs_api.c ****     if (datalen < Group_Sign_len + Group_Seq_len + Group_AK_LEN + Group_MIN_ID_len || datalen > Gro
 623:C:/Users/stapi/OneDrive/Desktop/GD32VW553/V1_MQTT_OK/GD32VW55X_Wifi_BLE_SDK/GD32VW55x_RELEASE_V1.0.2/MSDK/cloud/alicloud/src/protocol/alcs\alcs_api.c ****     {
 624:C:/Users/stapi/OneDrive/Desktop/GD32VW553/V1_MQTT_OK/GD32VW55X_Wifi_BLE_SDK/GD32VW55x_RELEASE_V1.0.2/MSDK/cloud/alicloud/src/protocol/alcs\alcs_api.c ****         COAP_DEBUG ("get_message_group_info, invalid length");
 625:C:/Users/stapi/OneDrive/Desktop/GD32VW553/V1_MQTT_OK/GD32VW55X_Wifi_BLE_SDK/GD32VW55x_RELEASE_V1.0.2/MSDK/cloud/alicloud/src/protocol/alcs\alcs_api.c ****         return ALCS_ERR_INVALID_LENGTH;
 626:C:/Users/stapi/OneDrive/Desktop/GD32VW553/V1_MQTT_OK/GD32VW55X_Wifi_BLE_SDK/GD32VW55x_RELEASE_V1.0.2/MSDK/cloud/alicloud/src/protocol/alcs\alcs_api.c ****     }
 627:C:/Users/stapi/OneDrive/Desktop/GD32VW553/V1_MQTT_OK/GD32VW55X_Wifi_BLE_SDK/GD32VW55x_RELEASE_V1.0.2/MSDK/cloud/alicloud/src/protocol/alcs\alcs_api.c ****     
 628:C:/Users/stapi/OneDrive/Desktop/GD32VW553/V1_MQTT_OK/GD32VW55X_Wifi_BLE_SDK/GD32VW55x_RELEASE_V1.0.2/MSDK/cloud/alicloud/src/protocol/alcs\alcs_api.c ****     memcpy (ak, buf + Group_Sign_len + Group_Seq_len, Group_AK_LEN);
 629:C:/Users/stapi/OneDrive/Desktop/GD32VW553/V1_MQTT_OK/GD32VW55X_Wifi_BLE_SDK/GD32VW55x_RELEASE_V1.0.2/MSDK/cloud/alicloud/src/protocol/alcs\alcs_api.c ****     group_id_len = datalen - Group_Sign_len - Group_Seq_len - Group_AK_LEN;
 630:C:/Users/stapi/OneDrive/Desktop/GD32VW553/V1_MQTT_OK/GD32VW55X_Wifi_BLE_SDK/GD32VW55x_RELEASE_V1.0.2/MSDK/cloud/alicloud/src/protocol/alcs\alcs_api.c ****     memcpy (group_id, buf + datalen - group_id_len, group_id_len);
 631:C:/Users/stapi/OneDrive/Desktop/GD32VW553/V1_MQTT_OK/GD32VW55X_Wifi_BLE_SDK/GD32VW55x_RELEASE_V1.0.2/MSDK/cloud/alicloud/src/protocol/alcs\alcs_api.c ****     
 632:C:/Users/stapi/OneDrive/Desktop/GD32VW553/V1_MQTT_OK/GD32VW55X_Wifi_BLE_SDK/GD32VW55x_RELEASE_V1.0.2/MSDK/cloud/alicloud/src/protocol/alcs\alcs_api.c ****     COAP_DEBUG ("get_message_group_info, groupId:%s", group_id);
 633:C:/Users/stapi/OneDrive/Desktop/GD32VW553/V1_MQTT_OK/GD32VW55X_Wifi_BLE_SDK/GD32VW55x_RELEASE_V1.0.2/MSDK/cloud/alicloud/src/protocol/alcs\alcs_api.c ****     return ALCS_SUCCESS;
 634:C:/Users/stapi/OneDrive/Desktop/GD32VW553/V1_MQTT_OK/GD32VW55X_Wifi_BLE_SDK/GD32VW55x_RELEASE_V1.0.2/MSDK/cloud/alicloud/src/protocol/alcs\alcs_api.c **** }
 635:C:/Users/stapi/OneDrive/Desktop/GD32VW553/V1_MQTT_OK/GD32VW55X_Wifi_BLE_SDK/GD32VW55x_RELEASE_V1.0.2/MSDK/cloud/alicloud/src/protocol/alcs\alcs_api.c **** #endif
 636:C:/Users/stapi/OneDrive/Desktop/GD32VW553/V1_MQTT_OK/GD32VW55X_Wifi_BLE_SDK/GD32VW55x_RELEASE_V1.0.2/MSDK/cloud/alicloud/src/protocol/alcs\alcs_api.c **** 
 637:C:/Users/stapi/OneDrive/Desktop/GD32VW553/V1_MQTT_OK/GD32VW55X_Wifi_BLE_SDK/GD32VW55x_RELEASE_V1.0.2/MSDK/cloud/alicloud/src/protocol/alcs\alcs_api.c **** #ifdef ALCS_SERVER_ENABLED
 638:C:/Users/stapi/OneDrive/Desktop/GD32VW553/V1_MQTT_OK/GD32VW55X_Wifi_BLE_SDK/GD32VW55x_RELEASE_V1.0.2/MSDK/cloud/alicloud/src/protocol/alcs\alcs_api.c **** int seqwindow_accept (CoAPMessage *message, session_item* session)
 639:C:/Users/stapi/OneDrive/Desktop/GD32VW553/V1_MQTT_OK/GD32VW55X_Wifi_BLE_SDK/GD32VW55x_RELEASE_V1.0.2/MSDK/cloud/alicloud/src/protocol/alcs\alcs_api.c **** {
 1961              		.loc 1 639 1
 1962              		.cfi_startproc
 1963              	.LVL208:
 1964 0000 17030000 		call	t0,__riscv_save_7
 1964      E7020300 
 1965              		.cfi_offset 22, -32
 1966              		.cfi_offset 21, -28
 1967              		.cfi_offset 20, -24
 1968              		.cfi_offset 19, -20
 1969              		.cfi_offset 18, -16
 1970              		.cfi_offset 9, -12
 1971              		.cfi_offset 8, -8
 1972              		.cfi_offset 1, -4
 1973              		.cfi_def_cfa_offset 32
 640:C:/Users/stapi/OneDrive/Desktop/GD32VW553/V1_MQTT_OK/GD32VW55X_Wifi_BLE_SDK/GD32VW55x_RELEASE_V1.0.2/MSDK/cloud/alicloud/src/protocol/alcs\alcs_api.c ****     unsigned int seqId = 0;
 1974              		.loc 1 640 5
 1975              	.LVL209:
 641:C:/Users/stapi/OneDrive/Desktop/GD32VW553/V1_MQTT_OK/GD32VW55X_Wifi_BLE_SDK/GD32VW55x_RELEASE_V1.0.2/MSDK/cloud/alicloud/src/protocol/alcs\alcs_api.c ****     unsigned char buf[8];
 1976              		.loc 1 641 5
 642:C:/Users/stapi/OneDrive/Desktop/GD32VW553/V1_MQTT_OK/GD32VW55X_Wifi_BLE_SDK/GD32VW55x_RELEASE_V1.0.2/MSDK/cloud/alicloud/src/protocol/alcs\alcs_api.c ****     char digest[20];
 1977              		.loc 1 642 5
 643:C:/Users/stapi/OneDrive/Desktop/GD32VW553/V1_MQTT_OK/GD32VW55X_Wifi_BLE_SDK/GD32VW55x_RELEASE_V1.0.2/MSDK/cloud/alicloud/src/protocol/alcs\alcs_api.c ****     unsigned short datalen = sizeof(buf);
 1978              		.loc 1 643 5
 639:C:/Users/stapi/OneDrive/Desktop/GD32VW553/V1_MQTT_OK/GD32VW55X_Wifi_BLE_SDK/GD32VW55x_RELEASE_V1.0.2/MSDK/cloud/alicloud/src/protocol/alcs\alcs_api.c ****     unsigned int seqId = 0;
 1979              		.loc 1 639 1 is_stmt 0
 1980 0008 7971     		addi	sp,sp,-48
 1981              		.cfi_def_cfa_offset 80
 639:C:/Users/stapi/OneDrive/Desktop/GD32VW553/V1_MQTT_OK/GD32VW55X_Wifi_BLE_SDK/GD32VW55x_RELEASE_V1.0.2/MSDK/cloud/alicloud/src/protocol/alcs\alcs_api.c ****     unsigned int seqId = 0;
 1982              		.loc 1 639 1
 1983 000a AE84     		mv	s1,a1
 1984              		.loc 1 643 20
 1985 000c 2144     		li	s0,8
 644:C:/Users/stapi/OneDrive/Desktop/GD32VW553/V1_MQTT_OK/GD32VW55X_Wifi_BLE_SDK/GD32VW55x_RELEASE_V1.0.2/MSDK/cloud/alicloud/src/protocol/alcs\alcs_api.c ****     if (ALCS_SUCCESS != CoAPStrOption_get (message, COAP_OPTION_SEQID, (uint8_t*)buf, &datalen) || 
 1986              		.loc 1 644 25
 1987 000e 93062101 		addi	a3,sp,18
 1988 0012 5008     		addi	a2,sp,20
 1989 0014 93058004 		li	a1,72
 1990              	.LVL210:
 643:C:/Users/stapi/OneDrive/Desktop/GD32VW553/V1_MQTT_OK/GD32VW55X_Wifi_BLE_SDK/GD32VW55x_RELEASE_V1.0.2/MSDK/cloud/alicloud/src/protocol/alcs\alcs_api.c ****     unsigned short datalen = sizeof(buf);
 1991              		.loc 1 643 20
 1992 0018 23198100 		sh	s0,18(sp)
 1993              		.loc 1 644 5 is_stmt 1
 1994              		.loc 1 644 25 is_stmt 0
 1995 001c 97000000 		call	CoAPStrOption_get
 1995      E7800000 
 1996              	.LVL211:
 1997 0024 B70A0000 		lui	s5,%hi(.LC0)
 1998 0028 B7090000 		lui	s3,%hi(.LC2)
 1999              		.loc 1 644 8
 2000 002c 09E5     		bne	a0,zero,.L156
 2001              		.loc 1 644 97 discriminator 1
 2002 002e 035B2101 		lhu	s6,18(sp)
 2003 0032 630D8B02 		beq	s6,s0,.L157
 2004              	.L156:
 645:C:/Users/stapi/OneDrive/Desktop/GD32VW553/V1_MQTT_OK/GD32VW55X_Wifi_BLE_SDK/GD32VW55x_RELEASE_V1.0.2/MSDK/cloud/alicloud/src/protocol/alcs\alcs_api.c ****         COAP_INFO ("can't find seqid");
 2005              		.loc 1 645 9 is_stmt 1
 2006              		.loc 1 645 9
 2007 0036 13850A00 		addi	a0,s5,%lo(.LC0)
 2008 003a 97000000 		call	HAL_Printf
 2008      E7800000 
 2009              	.LVL212:
 2010              		.loc 1 645 9
 2011 0042 37050000 		lui	a0,%hi(.LC20)
 2012 0046 13050500 		addi	a0,a0,%lo(.LC20)
 2013              	.LVL213:
 2014              	.L171:
 646:C:/Users/stapi/OneDrive/Desktop/GD32VW553/V1_MQTT_OK/GD32VW55X_Wifi_BLE_SDK/GD32VW55x_RELEASE_V1.0.2/MSDK/cloud/alicloud/src/protocol/alcs\alcs_api.c ****         return 0;
 647:C:/Users/stapi/OneDrive/Desktop/GD32VW553/V1_MQTT_OK/GD32VW55X_Wifi_BLE_SDK/GD32VW55x_RELEASE_V1.0.2/MSDK/cloud/alicloud/src/protocol/alcs\alcs_api.c ****     }
 648:C:/Users/stapi/OneDrive/Desktop/GD32VW553/V1_MQTT_OK/GD32VW55X_Wifi_BLE_SDK/GD32VW55x_RELEASE_V1.0.2/MSDK/cloud/alicloud/src/protocol/alcs\alcs_api.c **** 
 649:C:/Users/stapi/OneDrive/Desktop/GD32VW553/V1_MQTT_OK/GD32VW55X_Wifi_BLE_SDK/GD32VW55x_RELEASE_V1.0.2/MSDK/cloud/alicloud/src/protocol/alcs\alcs_api.c ****     seqId |= (buf[0] << 24);
 650:C:/Users/stapi/OneDrive/Desktop/GD32VW553/V1_MQTT_OK/GD32VW55X_Wifi_BLE_SDK/GD32VW55x_RELEASE_V1.0.2/MSDK/cloud/alicloud/src/protocol/alcs\alcs_api.c ****     seqId |= (buf[1] << 16);
 651:C:/Users/stapi/OneDrive/Desktop/GD32VW553/V1_MQTT_OK/GD32VW55X_Wifi_BLE_SDK/GD32VW55x_RELEASE_V1.0.2/MSDK/cloud/alicloud/src/protocol/alcs\alcs_api.c ****     seqId |= (buf[2] << 8);
 652:C:/Users/stapi/OneDrive/Desktop/GD32VW553/V1_MQTT_OK/GD32VW55X_Wifi_BLE_SDK/GD32VW55x_RELEASE_V1.0.2/MSDK/cloud/alicloud/src/protocol/alcs\alcs_api.c ****     seqId |= buf[3];
 653:C:/Users/stapi/OneDrive/Desktop/GD32VW553/V1_MQTT_OK/GD32VW55X_Wifi_BLE_SDK/GD32VW55x_RELEASE_V1.0.2/MSDK/cloud/alicloud/src/protocol/alcs\alcs_api.c ****     COAP_INFO ("seqwindow_accept, id=%u", seqId);
 654:C:/Users/stapi/OneDrive/Desktop/GD32VW553/V1_MQTT_OK/GD32VW55X_Wifi_BLE_SDK/GD32VW55x_RELEASE_V1.0.2/MSDK/cloud/alicloud/src/protocol/alcs\alcs_api.c **** 
 655:C:/Users/stapi/OneDrive/Desktop/GD32VW553/V1_MQTT_OK/GD32VW55X_Wifi_BLE_SDK/GD32VW55x_RELEASE_V1.0.2/MSDK/cloud/alicloud/src/protocol/alcs\alcs_api.c ****     utils_hmac_sha1_raw ((char*)buf, 4, digest, session->sessionKey, SESSIONKEYLEN); 
 656:C:/Users/stapi/OneDrive/Desktop/GD32VW553/V1_MQTT_OK/GD32VW55X_Wifi_BLE_SDK/GD32VW55x_RELEASE_V1.0.2/MSDK/cloud/alicloud/src/protocol/alcs\alcs_api.c ****     if (memcmp(digest, buf + 4, 4) != 0) {
 657:C:/Users/stapi/OneDrive/Desktop/GD32VW553/V1_MQTT_OK/GD32VW55X_Wifi_BLE_SDK/GD32VW55x_RELEASE_V1.0.2/MSDK/cloud/alicloud/src/protocol/alcs\alcs_api.c ****         COAP_INFO ("seq sign is illegal!");
 2015              		.loc 1 657 9 is_stmt 0
 2016 004a 97000000 		call	HAL_Printf
 2016      E7800000 
 2017              	.LVL214:
 2018              		.loc 1 657 9 is_stmt 1
 2019 0052 13850900 		addi	a0,s3,%lo(.LC2)
 2020 0056 97000000 		call	HAL_Printf
 2020      E7800000 
 2021              	.LVL215:
 2022              		.loc 1 657 9
 658:C:/Users/stapi/OneDrive/Desktop/GD32VW553/V1_MQTT_OK/GD32VW55X_Wifi_BLE_SDK/GD32VW55x_RELEASE_V1.0.2/MSDK/cloud/alicloud/src/protocol/alcs\alcs_api.c ****         return 0;
 2023              		.loc 1 658 9
 2024              		.loc 1 658 16 is_stmt 0
 2025 005e 0144     		li	s0,0
 2026              	.L155:
 659:C:/Users/stapi/OneDrive/Desktop/GD32VW553/V1_MQTT_OK/GD32VW55X_Wifi_BLE_SDK/GD32VW55x_RELEASE_V1.0.2/MSDK/cloud/alicloud/src/protocol/alcs\alcs_api.c ****     }
 660:C:/Users/stapi/OneDrive/Desktop/GD32VW553/V1_MQTT_OK/GD32VW55X_Wifi_BLE_SDK/GD32VW55x_RELEASE_V1.0.2/MSDK/cloud/alicloud/src/protocol/alcs\alcs_api.c ****     
 661:C:/Users/stapi/OneDrive/Desktop/GD32VW553/V1_MQTT_OK/GD32VW55X_Wifi_BLE_SDK/GD32VW55x_RELEASE_V1.0.2/MSDK/cloud/alicloud/src/protocol/alcs\alcs_api.c ****     if (!session->seqWindow) {//
 662:C:/Users/stapi/OneDrive/Desktop/GD32VW553/V1_MQTT_OK/GD32VW55X_Wifi_BLE_SDK/GD32VW55x_RELEASE_V1.0.2/MSDK/cloud/alicloud/src/protocol/alcs\alcs_api.c ****         return 1;
 663:C:/Users/stapi/OneDrive/Desktop/GD32VW553/V1_MQTT_OK/GD32VW55X_Wifi_BLE_SDK/GD32VW55x_RELEASE_V1.0.2/MSDK/cloud/alicloud/src/protocol/alcs\alcs_api.c ****     }
 664:C:/Users/stapi/OneDrive/Desktop/GD32VW553/V1_MQTT_OK/GD32VW55X_Wifi_BLE_SDK/GD32VW55x_RELEASE_V1.0.2/MSDK/cloud/alicloud/src/protocol/alcs\alcs_api.c **** 
 665:C:/Users/stapi/OneDrive/Desktop/GD32VW553/V1_MQTT_OK/GD32VW55X_Wifi_BLE_SDK/GD32VW55x_RELEASE_V1.0.2/MSDK/cloud/alicloud/src/protocol/alcs\alcs_api.c ****     if (seqId < session->seqStart) {
 666:C:/Users/stapi/OneDrive/Desktop/GD32VW553/V1_MQTT_OK/GD32VW55X_Wifi_BLE_SDK/GD32VW55x_RELEASE_V1.0.2/MSDK/cloud/alicloud/src/protocol/alcs\alcs_api.c ****         COAP_INFO ("receive expire seqid!");    
 667:C:/Users/stapi/OneDrive/Desktop/GD32VW553/V1_MQTT_OK/GD32VW55X_Wifi_BLE_SDK/GD32VW55x_RELEASE_V1.0.2/MSDK/cloud/alicloud/src/protocol/alcs\alcs_api.c ****         return 0;
 668:C:/Users/stapi/OneDrive/Desktop/GD32VW553/V1_MQTT_OK/GD32VW55X_Wifi_BLE_SDK/GD32VW55x_RELEASE_V1.0.2/MSDK/cloud/alicloud/src/protocol/alcs\alcs_api.c ****     }
 669:C:/Users/stapi/OneDrive/Desktop/GD32VW553/V1_MQTT_OK/GD32VW55X_Wifi_BLE_SDK/GD32VW55x_RELEASE_V1.0.2/MSDK/cloud/alicloud/src/protocol/alcs\alcs_api.c ****     if (seqId >= SEQ_WINDOW_SIZE + session->seqStart) {
 670:C:/Users/stapi/OneDrive/Desktop/GD32VW553/V1_MQTT_OK/GD32VW55X_Wifi_BLE_SDK/GD32VW55x_RELEASE_V1.0.2/MSDK/cloud/alicloud/src/protocol/alcs\alcs_api.c ****         int i;
 671:C:/Users/stapi/OneDrive/Desktop/GD32VW553/V1_MQTT_OK/GD32VW55X_Wifi_BLE_SDK/GD32VW55x_RELEASE_V1.0.2/MSDK/cloud/alicloud/src/protocol/alcs\alcs_api.c ****         int offset = seqId - SEQ_WINDOW_SIZE - session->seqStart + 1;
 672:C:/Users/stapi/OneDrive/Desktop/GD32VW553/V1_MQTT_OK/GD32VW55X_Wifi_BLE_SDK/GD32VW55x_RELEASE_V1.0.2/MSDK/cloud/alicloud/src/protocol/alcs\alcs_api.c ****         COAP_DEBUG ("window pos:%d, offset:%d", session->seqStart, offset);
 673:C:/Users/stapi/OneDrive/Desktop/GD32VW553/V1_MQTT_OK/GD32VW55X_Wifi_BLE_SDK/GD32VW55x_RELEASE_V1.0.2/MSDK/cloud/alicloud/src/protocol/alcs\alcs_api.c ****         session->seqStart += offset;
 674:C:/Users/stapi/OneDrive/Desktop/GD32VW553/V1_MQTT_OK/GD32VW55X_Wifi_BLE_SDK/GD32VW55x_RELEASE_V1.0.2/MSDK/cloud/alicloud/src/protocol/alcs\alcs_api.c ****         for (i = 0; i < offset; i ++) {
 675:C:/Users/stapi/OneDrive/Desktop/GD32VW553/V1_MQTT_OK/GD32VW55X_Wifi_BLE_SDK/GD32VW55x_RELEASE_V1.0.2/MSDK/cloud/alicloud/src/protocol/alcs\alcs_api.c ****             int index = session->seqWindow->mapPos >> 3;
 676:C:/Users/stapi/OneDrive/Desktop/GD32VW553/V1_MQTT_OK/GD32VW55X_Wifi_BLE_SDK/GD32VW55x_RELEASE_V1.0.2/MSDK/cloud/alicloud/src/protocol/alcs\alcs_api.c ****             
 677:C:/Users/stapi/OneDrive/Desktop/GD32VW553/V1_MQTT_OK/GD32VW55X_Wifi_BLE_SDK/GD32VW55x_RELEASE_V1.0.2/MSDK/cloud/alicloud/src/protocol/alcs\alcs_api.c ****             if (i < offset - 1) {
 678:C:/Users/stapi/OneDrive/Desktop/GD32VW553/V1_MQTT_OK/GD32VW55X_Wifi_BLE_SDK/GD32VW55x_RELEASE_V1.0.2/MSDK/cloud/alicloud/src/protocol/alcs\alcs_api.c ****                 session->seqWindow->seqMap[index] &= ~(1 << (session->seqWindow->mapPos & 0x7));
 679:C:/Users/stapi/OneDrive/Desktop/GD32VW553/V1_MQTT_OK/GD32VW55X_Wifi_BLE_SDK/GD32VW55x_RELEASE_V1.0.2/MSDK/cloud/alicloud/src/protocol/alcs\alcs_api.c ****             } else {
 680:C:/Users/stapi/OneDrive/Desktop/GD32VW553/V1_MQTT_OK/GD32VW55X_Wifi_BLE_SDK/GD32VW55x_RELEASE_V1.0.2/MSDK/cloud/alicloud/src/protocol/alcs\alcs_api.c ****                 session->seqWindow->seqMap[index] |= 1 << (session->seqWindow->mapPos & 0x7);
 681:C:/Users/stapi/OneDrive/Desktop/GD32VW553/V1_MQTT_OK/GD32VW55X_Wifi_BLE_SDK/GD32VW55x_RELEASE_V1.0.2/MSDK/cloud/alicloud/src/protocol/alcs\alcs_api.c ****             }
 682:C:/Users/stapi/OneDrive/Desktop/GD32VW553/V1_MQTT_OK/GD32VW55X_Wifi_BLE_SDK/GD32VW55x_RELEASE_V1.0.2/MSDK/cloud/alicloud/src/protocol/alcs\alcs_api.c **** 
 683:C:/Users/stapi/OneDrive/Desktop/GD32VW553/V1_MQTT_OK/GD32VW55X_Wifi_BLE_SDK/GD32VW55x_RELEASE_V1.0.2/MSDK/cloud/alicloud/src/protocol/alcs\alcs_api.c ****             session->seqWindow->mapPos ++;
 684:C:/Users/stapi/OneDrive/Desktop/GD32VW553/V1_MQTT_OK/GD32VW55X_Wifi_BLE_SDK/GD32VW55x_RELEASE_V1.0.2/MSDK/cloud/alicloud/src/protocol/alcs\alcs_api.c ****             if (session->seqWindow->mapPos > SEQ_WINDOW_SIZE) {
 685:C:/Users/stapi/OneDrive/Desktop/GD32VW553/V1_MQTT_OK/GD32VW55X_Wifi_BLE_SDK/GD32VW55x_RELEASE_V1.0.2/MSDK/cloud/alicloud/src/protocol/alcs\alcs_api.c ****                 session->seqWindow->mapPos = 0;
 686:C:/Users/stapi/OneDrive/Desktop/GD32VW553/V1_MQTT_OK/GD32VW55X_Wifi_BLE_SDK/GD32VW55x_RELEASE_V1.0.2/MSDK/cloud/alicloud/src/protocol/alcs\alcs_api.c ****             }
 687:C:/Users/stapi/OneDrive/Desktop/GD32VW553/V1_MQTT_OK/GD32VW55X_Wifi_BLE_SDK/GD32VW55x_RELEASE_V1.0.2/MSDK/cloud/alicloud/src/protocol/alcs\alcs_api.c ****         }
 688:C:/Users/stapi/OneDrive/Desktop/GD32VW553/V1_MQTT_OK/GD32VW55X_Wifi_BLE_SDK/GD32VW55x_RELEASE_V1.0.2/MSDK/cloud/alicloud/src/protocol/alcs\alcs_api.c **** 
 689:C:/Users/stapi/OneDrive/Desktop/GD32VW553/V1_MQTT_OK/GD32VW55X_Wifi_BLE_SDK/GD32VW55x_RELEASE_V1.0.2/MSDK/cloud/alicloud/src/protocol/alcs\alcs_api.c ****     } else {
 690:C:/Users/stapi/OneDrive/Desktop/GD32VW553/V1_MQTT_OK/GD32VW55X_Wifi_BLE_SDK/GD32VW55x_RELEASE_V1.0.2/MSDK/cloud/alicloud/src/protocol/alcs\alcs_api.c ****         int offset = seqId - session->seqStart;
 691:C:/Users/stapi/OneDrive/Desktop/GD32VW553/V1_MQTT_OK/GD32VW55X_Wifi_BLE_SDK/GD32VW55x_RELEASE_V1.0.2/MSDK/cloud/alicloud/src/protocol/alcs\alcs_api.c ****         int newPos = (session->seqWindow->mapPos + offset ) % SEQ_WINDOW_SIZE; 
 692:C:/Users/stapi/OneDrive/Desktop/GD32VW553/V1_MQTT_OK/GD32VW55X_Wifi_BLE_SDK/GD32VW55x_RELEASE_V1.0.2/MSDK/cloud/alicloud/src/protocol/alcs\alcs_api.c ****         int index = newPos >> 3;
 693:C:/Users/stapi/OneDrive/Desktop/GD32VW553/V1_MQTT_OK/GD32VW55X_Wifi_BLE_SDK/GD32VW55x_RELEASE_V1.0.2/MSDK/cloud/alicloud/src/protocol/alcs\alcs_api.c ****         COAP_DEBUG ("window offset:%d, startpos:%d, receivepos:%d, index:%d, startseq:%d", offset, 
 694:C:/Users/stapi/OneDrive/Desktop/GD32VW553/V1_MQTT_OK/GD32VW55X_Wifi_BLE_SDK/GD32VW55x_RELEASE_V1.0.2/MSDK/cloud/alicloud/src/protocol/alcs\alcs_api.c ****         
 695:C:/Users/stapi/OneDrive/Desktop/GD32VW553/V1_MQTT_OK/GD32VW55X_Wifi_BLE_SDK/GD32VW55x_RELEASE_V1.0.2/MSDK/cloud/alicloud/src/protocol/alcs\alcs_api.c ****         if (session->seqWindow->seqMap[index] & (1 << (newPos & 0x7))) {
 696:C:/Users/stapi/OneDrive/Desktop/GD32VW553/V1_MQTT_OK/GD32VW55X_Wifi_BLE_SDK/GD32VW55x_RELEASE_V1.0.2/MSDK/cloud/alicloud/src/protocol/alcs\alcs_api.c ****             return 0;
 697:C:/Users/stapi/OneDrive/Desktop/GD32VW553/V1_MQTT_OK/GD32VW55X_Wifi_BLE_SDK/GD32VW55x_RELEASE_V1.0.2/MSDK/cloud/alicloud/src/protocol/alcs\alcs_api.c ****         }
 698:C:/Users/stapi/OneDrive/Desktop/GD32VW553/V1_MQTT_OK/GD32VW55X_Wifi_BLE_SDK/GD32VW55x_RELEASE_V1.0.2/MSDK/cloud/alicloud/src/protocol/alcs\alcs_api.c ****         session->seqWindow->seqMap[index] |=  (1 << (newPos & 0x7));
 699:C:/Users/stapi/OneDrive/Desktop/GD32VW553/V1_MQTT_OK/GD32VW55X_Wifi_BLE_SDK/GD32VW55x_RELEASE_V1.0.2/MSDK/cloud/alicloud/src/protocol/alcs\alcs_api.c ****     }
 700:C:/Users/stapi/OneDrive/Desktop/GD32VW553/V1_MQTT_OK/GD32VW55X_Wifi_BLE_SDK/GD32VW55x_RELEASE_V1.0.2/MSDK/cloud/alicloud/src/protocol/alcs\alcs_api.c **** 
 701:C:/Users/stapi/OneDrive/Desktop/GD32VW553/V1_MQTT_OK/GD32VW55X_Wifi_BLE_SDK/GD32VW55x_RELEASE_V1.0.2/MSDK/cloud/alicloud/src/protocol/alcs\alcs_api.c ****     return 1;
 702:C:/Users/stapi/OneDrive/Desktop/GD32VW553/V1_MQTT_OK/GD32VW55X_Wifi_BLE_SDK/GD32VW55x_RELEASE_V1.0.2/MSDK/cloud/alicloud/src/protocol/alcs\alcs_api.c **** }
 2027              		.loc 1 702 1
 2028 0060 2285     		mv	a0,s0
 2029 0062 4561     		addi	sp,sp,48
 2030              		.cfi_remember_state
 2031              		.cfi_def_cfa_offset 0
 2032 0064 17030000 		tail	__riscv_restore_7
 2032      67000300 
 2033              		.cfi_restore 22
 2034              		.cfi_restore 21
 2035              		.cfi_restore 20
 2036              		.cfi_restore 19
 2037              		.cfi_restore 18
 2038              		.cfi_restore 9
 2039              		.cfi_restore 8
 2040              		.cfi_restore 1
 2041              		.cfi_def_cfa_offset -32
 2042              	.LVL216:
 2043              	.L157:
 2044              		.cfi_restore_state
 649:C:/Users/stapi/OneDrive/Desktop/GD32VW553/V1_MQTT_OK/GD32VW55X_Wifi_BLE_SDK/GD32VW55x_RELEASE_V1.0.2/MSDK/cloud/alicloud/src/protocol/alcs\alcs_api.c ****     seqId |= (buf[1] << 16);
 2045              		.loc 1 649 5 is_stmt 1
 650:C:/Users/stapi/OneDrive/Desktop/GD32VW553/V1_MQTT_OK/GD32VW55X_Wifi_BLE_SDK/GD32VW55x_RELEASE_V1.0.2/MSDK/cloud/alicloud/src/protocol/alcs\alcs_api.c ****     seqId |= (buf[2] << 8);
 2046              		.loc 1 650 5
 651:C:/Users/stapi/OneDrive/Desktop/GD32VW553/V1_MQTT_OK/GD32VW55X_Wifi_BLE_SDK/GD32VW55x_RELEASE_V1.0.2/MSDK/cloud/alicloud/src/protocol/alcs\alcs_api.c ****     seqId |= buf[3];
 2047              		.loc 1 651 5
 2048 006c 524A     		lw	s4,20(sp)
 653:C:/Users/stapi/OneDrive/Desktop/GD32VW553/V1_MQTT_OK/GD32VW55X_Wifi_BLE_SDK/GD32VW55x_RELEASE_V1.0.2/MSDK/cloud/alicloud/src/protocol/alcs\alcs_api.c **** 
 2049              		.loc 1 653 5 is_stmt 0
 2050 006e 13850A00 		addi	a0,s5,%lo(.LC0)
 2051 0072 97000000 		call	HAL_Printf
 2051      E7800000 
 2052              	.LVL217:
 2053 007a 37050000 		lui	a0,%hi(.LC21)
 2054 007e 13050500 		addi	a0,a0,%lo(.LC21)
 2055 0082 135A8A69 		rev8	s4,s4
 652:C:/Users/stapi/OneDrive/Desktop/GD32VW553/V1_MQTT_OK/GD32VW55X_Wifi_BLE_SDK/GD32VW55x_RELEASE_V1.0.2/MSDK/cloud/alicloud/src/protocol/alcs\alcs_api.c ****     COAP_INFO ("seqwindow_accept, id=%u", seqId);
 2056              		.loc 1 652 5 is_stmt 1
 653:C:/Users/stapi/OneDrive/Desktop/GD32VW553/V1_MQTT_OK/GD32VW55X_Wifi_BLE_SDK/GD32VW55x_RELEASE_V1.0.2/MSDK/cloud/alicloud/src/protocol/alcs\alcs_api.c **** 
 2057              		.loc 1 653 5
 653:C:/Users/stapi/OneDrive/Desktop/GD32VW553/V1_MQTT_OK/GD32VW55X_Wifi_BLE_SDK/GD32VW55x_RELEASE_V1.0.2/MSDK/cloud/alicloud/src/protocol/alcs\alcs_api.c **** 
 2058              		.loc 1 653 5
 653:C:/Users/stapi/OneDrive/Desktop/GD32VW553/V1_MQTT_OK/GD32VW55X_Wifi_BLE_SDK/GD32VW55x_RELEASE_V1.0.2/MSDK/cloud/alicloud/src/protocol/alcs\alcs_api.c **** 
 2059              		.loc 1 653 5
 2060 0086 D285     		mv	a1,s4
 2061 0088 97000000 		call	HAL_Printf
 2061      E7800000 
 2062              	.LVL218:
 653:C:/Users/stapi/OneDrive/Desktop/GD32VW553/V1_MQTT_OK/GD32VW55X_Wifi_BLE_SDK/GD32VW55x_RELEASE_V1.0.2/MSDK/cloud/alicloud/src/protocol/alcs\alcs_api.c **** 
 2063              		.loc 1 653 5
 2064 0090 13850900 		addi	a0,s3,%lo(.LC2)
 2065 0094 97000000 		call	HAL_Printf
 2065      E7800000 
 2066              	.LVL219:
 653:C:/Users/stapi/OneDrive/Desktop/GD32VW553/V1_MQTT_OK/GD32VW55X_Wifi_BLE_SDK/GD32VW55x_RELEASE_V1.0.2/MSDK/cloud/alicloud/src/protocol/alcs\alcs_api.c **** 
 2067              		.loc 1 653 5
 655:C:/Users/stapi/OneDrive/Desktop/GD32VW553/V1_MQTT_OK/GD32VW55X_Wifi_BLE_SDK/GD32VW55x_RELEASE_V1.0.2/MSDK/cloud/alicloud/src/protocol/alcs\alcs_api.c ****     if (memcmp(digest, buf + 4, 4) != 0) {
 2068              		.loc 1 655 5
 2069 009c 5147     		li	a4,20
 2070 009e 93865401 		addi	a3,s1,21
 2071 00a2 7008     		addi	a2,sp,28
 2072 00a4 9145     		li	a1,4
 2073 00a6 4808     		addi	a0,sp,20
 2074 00a8 97000000 		call	utils_hmac_sha1_raw
 2074      E7800000 
 2075              	.LVL220:
 656:C:/Users/stapi/OneDrive/Desktop/GD32VW553/V1_MQTT_OK/GD32VW55X_Wifi_BLE_SDK/GD32VW55x_RELEASE_V1.0.2/MSDK/cloud/alicloud/src/protocol/alcs\alcs_api.c ****         COAP_INFO ("seq sign is illegal!");
 2076              		.loc 1 656 5
 656:C:/Users/stapi/OneDrive/Desktop/GD32VW553/V1_MQTT_OK/GD32VW55X_Wifi_BLE_SDK/GD32VW55x_RELEASE_V1.0.2/MSDK/cloud/alicloud/src/protocol/alcs\alcs_api.c ****         COAP_INFO ("seq sign is illegal!");
 2077              		.loc 1 656 9 is_stmt 0
 2078 00b0 1146     		li	a2,4
 2079 00b2 2C08     		addi	a1,sp,24
 2080 00b4 6808     		addi	a0,sp,28
 2081 00b6 97000000 		call	memcmp
 2081      E7800000 
 2082              	.LVL221:
 2083 00be 2A84     		mv	s0,a0
 656:C:/Users/stapi/OneDrive/Desktop/GD32VW553/V1_MQTT_OK/GD32VW55X_Wifi_BLE_SDK/GD32VW55x_RELEASE_V1.0.2/MSDK/cloud/alicloud/src/protocol/alcs\alcs_api.c ****         COAP_INFO ("seq sign is illegal!");
 2084              		.loc 1 656 8
 2085 00c0 01CD     		beq	a0,zero,.L159
 657:C:/Users/stapi/OneDrive/Desktop/GD32VW553/V1_MQTT_OK/GD32VW55X_Wifi_BLE_SDK/GD32VW55x_RELEASE_V1.0.2/MSDK/cloud/alicloud/src/protocol/alcs\alcs_api.c ****         return 0;
 2086              		.loc 1 657 9 is_stmt 1
 657:C:/Users/stapi/OneDrive/Desktop/GD32VW553/V1_MQTT_OK/GD32VW55X_Wifi_BLE_SDK/GD32VW55x_RELEASE_V1.0.2/MSDK/cloud/alicloud/src/protocol/alcs\alcs_api.c ****         return 0;
 2087              		.loc 1 657 9
 2088 00c2 13850A00 		addi	a0,s5,%lo(.LC0)
 2089 00c6 97000000 		call	HAL_Printf
 2089      E7800000 
 2090              	.LVL222:
 657:C:/Users/stapi/OneDrive/Desktop/GD32VW553/V1_MQTT_OK/GD32VW55X_Wifi_BLE_SDK/GD32VW55x_RELEASE_V1.0.2/MSDK/cloud/alicloud/src/protocol/alcs\alcs_api.c ****         return 0;
 2091              		.loc 1 657 9
 2092 00ce 37050000 		lui	a0,%hi(.LC22)
 2093 00d2 13050500 		addi	a0,a0,%lo(.LC22)
 2094 00d6 95BF     		j	.L171
 2095              	.L159:
 661:C:/Users/stapi/OneDrive/Desktop/GD32VW553/V1_MQTT_OK/GD32VW55X_Wifi_BLE_SDK/GD32VW55x_RELEASE_V1.0.2/MSDK/cloud/alicloud/src/protocol/alcs\alcs_api.c ****         return 1;
 2096              		.loc 1 661 5
 661:C:/Users/stapi/OneDrive/Desktop/GD32VW553/V1_MQTT_OK/GD32VW55X_Wifi_BLE_SDK/GD32VW55x_RELEASE_V1.0.2/MSDK/cloud/alicloud/src/protocol/alcs\alcs_api.c ****         return 1;
 2097              		.loc 1 661 17 is_stmt 0
 2098 00d8 B440     		lw	a3,64(s1)
 661:C:/Users/stapi/OneDrive/Desktop/GD32VW553/V1_MQTT_OK/GD32VW55X_Wifi_BLE_SDK/GD32VW55x_RELEASE_V1.0.2/MSDK/cloud/alicloud/src/protocol/alcs\alcs_api.c ****         return 1;
 2099              		.loc 1 661 8
 2100 00da 99E2     		bne	a3,zero,.L160
 2101              	.L172:
 701:C:/Users/stapi/OneDrive/Desktop/GD32VW553/V1_MQTT_OK/GD32VW55X_Wifi_BLE_SDK/GD32VW55x_RELEASE_V1.0.2/MSDK/cloud/alicloud/src/protocol/alcs\alcs_api.c **** }
 2102              		.loc 1 701 12
 2103 00dc 0544     		li	s0,1
 2104 00de 49B7     		j	.L155
 2105              	.L160:
 665:C:/Users/stapi/OneDrive/Desktop/GD32VW553/V1_MQTT_OK/GD32VW55X_Wifi_BLE_SDK/GD32VW55x_RELEASE_V1.0.2/MSDK/cloud/alicloud/src/protocol/alcs\alcs_api.c ****         COAP_INFO ("receive expire seqid!");    
 2106              		.loc 1 665 5 is_stmt 1
 665:C:/Users/stapi/OneDrive/Desktop/GD32VW553/V1_MQTT_OK/GD32VW55X_Wifi_BLE_SDK/GD32VW55x_RELEASE_V1.0.2/MSDK/cloud/alicloud/src/protocol/alcs\alcs_api.c ****         COAP_INFO ("receive expire seqid!");    
 2107              		.loc 1 665 24 is_stmt 0
 2108 00e0 DC5C     		lw	a5,60(s1)
 665:C:/Users/stapi/OneDrive/Desktop/GD32VW553/V1_MQTT_OK/GD32VW55X_Wifi_BLE_SDK/GD32VW55x_RELEASE_V1.0.2/MSDK/cloud/alicloud/src/protocol/alcs\alcs_api.c ****         COAP_INFO ("receive expire seqid!");    
 2109              		.loc 1 665 8
 2110 00e2 6377FA02 		bleu	a5,s4,.L161
 666:C:/Users/stapi/OneDrive/Desktop/GD32VW553/V1_MQTT_OK/GD32VW55X_Wifi_BLE_SDK/GD32VW55x_RELEASE_V1.0.2/MSDK/cloud/alicloud/src/protocol/alcs\alcs_api.c ****         return 0;
 2111              		.loc 1 666 9 is_stmt 1
 666:C:/Users/stapi/OneDrive/Desktop/GD32VW553/V1_MQTT_OK/GD32VW55X_Wifi_BLE_SDK/GD32VW55x_RELEASE_V1.0.2/MSDK/cloud/alicloud/src/protocol/alcs\alcs_api.c ****         return 0;
 2112              		.loc 1 666 9
 2113 00e6 13850A00 		addi	a0,s5,%lo(.LC0)
 2114 00ea 97000000 		call	HAL_Printf
 2114      E7800000 
 2115              	.LVL223:
 666:C:/Users/stapi/OneDrive/Desktop/GD32VW553/V1_MQTT_OK/GD32VW55X_Wifi_BLE_SDK/GD32VW55x_RELEASE_V1.0.2/MSDK/cloud/alicloud/src/protocol/alcs\alcs_api.c ****         return 0;
 2116              		.loc 1 666 9
 2117 00f2 37050000 		lui	a0,%hi(.LC23)
 2118 00f6 13050500 		addi	a0,a0,%lo(.LC23)
 2119 00fa 97000000 		call	HAL_Printf
 2119      E7800000 
 2120              	.LVL224:
 666:C:/Users/stapi/OneDrive/Desktop/GD32VW553/V1_MQTT_OK/GD32VW55X_Wifi_BLE_SDK/GD32VW55x_RELEASE_V1.0.2/MSDK/cloud/alicloud/src/protocol/alcs\alcs_api.c ****         return 0;
 2121              		.loc 1 666 9
 2122 0102 13850900 		addi	a0,s3,%lo(.LC2)
 2123 0106 97000000 		call	HAL_Printf
 2123      E7800000 
 2124              	.LVL225:
 666:C:/Users/stapi/OneDrive/Desktop/GD32VW553/V1_MQTT_OK/GD32VW55X_Wifi_BLE_SDK/GD32VW55x_RELEASE_V1.0.2/MSDK/cloud/alicloud/src/protocol/alcs\alcs_api.c ****         return 0;
 2125              		.loc 1 666 9
 667:C:/Users/stapi/OneDrive/Desktop/GD32VW553/V1_MQTT_OK/GD32VW55X_Wifi_BLE_SDK/GD32VW55x_RELEASE_V1.0.2/MSDK/cloud/alicloud/src/protocol/alcs\alcs_api.c ****     }
 2126              		.loc 1 667 9
 667:C:/Users/stapi/OneDrive/Desktop/GD32VW553/V1_MQTT_OK/GD32VW55X_Wifi_BLE_SDK/GD32VW55x_RELEASE_V1.0.2/MSDK/cloud/alicloud/src/protocol/alcs\alcs_api.c ****     }
 2127              		.loc 1 667 16 is_stmt 0
 2128 010e 89BF     		j	.L155
 2129              	.L161:
 669:C:/Users/stapi/OneDrive/Desktop/GD32VW553/V1_MQTT_OK/GD32VW55X_Wifi_BLE_SDK/GD32VW55x_RELEASE_V1.0.2/MSDK/cloud/alicloud/src/protocol/alcs\alcs_api.c ****         int i;
 2130              		.loc 1 669 5 is_stmt 1
 669:C:/Users/stapi/OneDrive/Desktop/GD32VW553/V1_MQTT_OK/GD32VW55X_Wifi_BLE_SDK/GD32VW55x_RELEASE_V1.0.2/MSDK/cloud/alicloud/src/protocol/alcs\alcs_api.c ****         int i;
 2131              		.loc 1 669 34 is_stmt 0
 2132 0110 13878700 		addi	a4,a5,8
 2133              	.LBB80:
 671:C:/Users/stapi/OneDrive/Desktop/GD32VW553/V1_MQTT_OK/GD32VW55X_Wifi_BLE_SDK/GD32VW55x_RELEASE_V1.0.2/MSDK/cloud/alicloud/src/protocol/alcs\alcs_api.c ****         COAP_DEBUG ("window pos:%d, offset:%d", session->seqStart, offset);
 2134              		.loc 1 671 46
 2135 0114 B309FA40 		sub	s3,s4,a5
 2136 0118 B7050000 		lui	a1,%hi(.LANCHOR9)
 2137 011c 37050000 		lui	a0,%hi(.LC6)
 2138              	.LBE80:
 669:C:/Users/stapi/OneDrive/Desktop/GD32VW553/V1_MQTT_OK/GD32VW55X_Wifi_BLE_SDK/GD32VW55x_RELEASE_V1.0.2/MSDK/cloud/alicloud/src/protocol/alcs\alcs_api.c ****         int i;
 2139              		.loc 1 669 8
 2140 0120 636DEA06 		bgtu	a4,s4,.L162
 2141              	.LBB84:
 670:C:/Users/stapi/OneDrive/Desktop/GD32VW553/V1_MQTT_OK/GD32VW55X_Wifi_BLE_SDK/GD32VW55x_RELEASE_V1.0.2/MSDK/cloud/alicloud/src/protocol/alcs\alcs_api.c ****         int offset = seqId - SEQ_WINDOW_SIZE - session->seqStart + 1;
 2142              		.loc 1 670 9 is_stmt 1
 671:C:/Users/stapi/OneDrive/Desktop/GD32VW553/V1_MQTT_OK/GD32VW55X_Wifi_BLE_SDK/GD32VW55x_RELEASE_V1.0.2/MSDK/cloud/alicloud/src/protocol/alcs\alcs_api.c ****         COAP_DEBUG ("window pos:%d, offset:%d", session->seqStart, offset);
 2143              		.loc 1 671 9
 671:C:/Users/stapi/OneDrive/Desktop/GD32VW553/V1_MQTT_OK/GD32VW55X_Wifi_BLE_SDK/GD32VW55x_RELEASE_V1.0.2/MSDK/cloud/alicloud/src/protocol/alcs\alcs_api.c ****         COAP_DEBUG ("window pos:%d, offset:%d", session->seqStart, offset);
 2144              		.loc 1 671 66 is_stmt 0
 2145 0124 138999FF 		addi	s2,s3,-7
 2146              	.LVL226:
 672:C:/Users/stapi/OneDrive/Desktop/GD32VW553/V1_MQTT_OK/GD32VW55X_Wifi_BLE_SDK/GD32VW55x_RELEASE_V1.0.2/MSDK/cloud/alicloud/src/protocol/alcs\alcs_api.c ****         session->seqStart += offset;
 2147              		.loc 1 672 9 is_stmt 1
 2148 0128 37070000 		lui	a4,%hi(.LC24)
 2149 012c 4A88     		mv	a6,s2
 2150 012e 13070700 		addi	a4,a4,%lo(.LC24)
 2151 0132 9546     		li	a3,5
 2152 0134 1306002A 		li	a2,672
 2153 0138 93850500 		addi	a1,a1,%lo(.LANCHOR9)
 2154 013c 13050500 		addi	a0,a0,%lo(.LC6)
 2155 0140 97000000 		call	LITE_syslog
 2155      E7800000 
 2156              	.LVL227:
 673:C:/Users/stapi/OneDrive/Desktop/GD32VW553/V1_MQTT_OK/GD32VW55X_Wifi_BLE_SDK/GD32VW55x_RELEASE_V1.0.2/MSDK/cloud/alicloud/src/protocol/alcs\alcs_api.c ****         for (i = 0; i < offset; i ++) {
 2157              		.loc 1 673 9
 673:C:/Users/stapi/OneDrive/Desktop/GD32VW553/V1_MQTT_OK/GD32VW55X_Wifi_BLE_SDK/GD32VW55x_RELEASE_V1.0.2/MSDK/cloud/alicloud/src/protocol/alcs\alcs_api.c ****         for (i = 0; i < offset; i ++) {
 2158              		.loc 1 673 27 is_stmt 0
 2159 0148 DC5C     		lw	a5,60(s1)
 2160              	.LBB81:
 677:C:/Users/stapi/OneDrive/Desktop/GD32VW553/V1_MQTT_OK/GD32VW55X_Wifi_BLE_SDK/GD32VW55x_RELEASE_V1.0.2/MSDK/cloud/alicloud/src/protocol/alcs\alcs_api.c ****                 session->seqWindow->seqMap[index] &= ~(1 << (session->seqWindow->mapPos & 0x7));
 2161              		.loc 1 677 28
 2162 014a E119     		addi	s3,s3,-8
 684:C:/Users/stapi/OneDrive/Desktop/GD32VW553/V1_MQTT_OK/GD32VW55X_Wifi_BLE_SDK/GD32VW55x_RELEASE_V1.0.2/MSDK/cloud/alicloud/src/protocol/alcs\alcs_api.c ****                 session->seqWindow->mapPos = 0;
 2163              		.loc 1 684 16
 2164 014c 2148     		li	a6,8
 2165              	.LBE81:
 673:C:/Users/stapi/OneDrive/Desktop/GD32VW553/V1_MQTT_OK/GD32VW55X_Wifi_BLE_SDK/GD32VW55x_RELEASE_V1.0.2/MSDK/cloud/alicloud/src/protocol/alcs\alcs_api.c ****         for (i = 0; i < offset; i ++) {
 2166              		.loc 1 673 27
 2167 014e CA97     		add	a5,a5,s2
 2168 0150 DCDC     		sw	a5,60(s1)
 674:C:/Users/stapi/OneDrive/Desktop/GD32VW553/V1_MQTT_OK/GD32VW55X_Wifi_BLE_SDK/GD32VW55x_RELEASE_V1.0.2/MSDK/cloud/alicloud/src/protocol/alcs\alcs_api.c ****             int index = session->seqWindow->mapPos >> 3;
 2169              		.loc 1 674 9 is_stmt 1
 2170              	.LVL228:
 2171              	.L163:
 674:C:/Users/stapi/OneDrive/Desktop/GD32VW553/V1_MQTT_OK/GD32VW55X_Wifi_BLE_SDK/GD32VW55x_RELEASE_V1.0.2/MSDK/cloud/alicloud/src/protocol/alcs\alcs_api.c ****             int index = session->seqWindow->mapPos >> 3;
 2172              		.loc 1 674 21 discriminator 1
 674:C:/Users/stapi/OneDrive/Desktop/GD32VW553/V1_MQTT_OK/GD32VW55X_Wifi_BLE_SDK/GD32VW55x_RELEASE_V1.0.2/MSDK/cloud/alicloud/src/protocol/alcs\alcs_api.c ****             int index = session->seqWindow->mapPos >> 3;
 2173              		.loc 1 674 9 is_stmt 0 discriminator 1
 2174 0152 E35524F9 		bge	s0,s2,.L172
 2175              	.LBB82:
 675:C:/Users/stapi/OneDrive/Desktop/GD32VW553/V1_MQTT_OK/GD32VW55X_Wifi_BLE_SDK/GD32VW55x_RELEASE_V1.0.2/MSDK/cloud/alicloud/src/protocol/alcs\alcs_api.c ****             
 2176              		.loc 1 675 13 is_stmt 1
 675:C:/Users/stapi/OneDrive/Desktop/GD32VW553/V1_MQTT_OK/GD32VW55X_Wifi_BLE_SDK/GD32VW55x_RELEASE_V1.0.2/MSDK/cloud/alicloud/src/protocol/alcs\alcs_api.c ****             
 2177              		.loc 1 675 32 is_stmt 0
 2178 0156 B440     		lw	a3,64(s1)
 675:C:/Users/stapi/OneDrive/Desktop/GD32VW553/V1_MQTT_OK/GD32VW55X_Wifi_BLE_SDK/GD32VW55x_RELEASE_V1.0.2/MSDK/cloud/alicloud/src/protocol/alcs\alcs_api.c ****             
 2179              		.loc 1 675 43
 2180 0158 03D72600 		lhu	a4,2(a3)
 675:C:/Users/stapi/OneDrive/Desktop/GD32VW553/V1_MQTT_OK/GD32VW55X_Wifi_BLE_SDK/GD32VW55x_RELEASE_V1.0.2/MSDK/cloud/alicloud/src/protocol/alcs\alcs_api.c ****             
 2181              		.loc 1 675 17
 2182 015c 13563700 		srli	a2,a4,3
 2183              	.LVL229:
 677:C:/Users/stapi/OneDrive/Desktop/GD32VW553/V1_MQTT_OK/GD32VW55X_Wifi_BLE_SDK/GD32VW55x_RELEASE_V1.0.2/MSDK/cloud/alicloud/src/protocol/alcs\alcs_api.c ****                 session->seqWindow->seqMap[index] &= ~(1 << (session->seqWindow->mapPos & 0x7));
 2184              		.loc 1 677 13 is_stmt 1
 678:C:/Users/stapi/OneDrive/Desktop/GD32VW553/V1_MQTT_OK/GD32VW55X_Wifi_BLE_SDK/GD32VW55x_RELEASE_V1.0.2/MSDK/cloud/alicloud/src/protocol/alcs\alcs_api.c ****             } else {
 2185              		.loc 1 678 51 is_stmt 0
 2186 0160 3696     		add	a2,a3,a2
 2187              	.LVL230:
 678:C:/Users/stapi/OneDrive/Desktop/GD32VW553/V1_MQTT_OK/GD32VW55X_Wifi_BLE_SDK/GD32VW55x_RELEASE_V1.0.2/MSDK/cloud/alicloud/src/protocol/alcs\alcs_api.c ****             } else {
 2188              		.loc 1 678 89
 2189 0162 93777700 		andi	a5,a4,7
 678:C:/Users/stapi/OneDrive/Desktop/GD32VW553/V1_MQTT_OK/GD32VW55X_Wifi_BLE_SDK/GD32VW55x_RELEASE_V1.0.2/MSDK/cloud/alicloud/src/protocol/alcs\alcs_api.c ****             } else {
 2190              		.loc 1 678 51
 2191 0166 03050600 		lb	a0,0(a2)
 678:C:/Users/stapi/OneDrive/Desktop/GD32VW553/V1_MQTT_OK/GD32VW55X_Wifi_BLE_SDK/GD32VW55x_RELEASE_V1.0.2/MSDK/cloud/alicloud/src/protocol/alcs\alcs_api.c ****             } else {
 2192              		.loc 1 678 58
 2193 016a B317F028 		bset	a5,x0,a5
 678:C:/Users/stapi/OneDrive/Desktop/GD32VW553/V1_MQTT_OK/GD32VW55X_Wifi_BLE_SDK/GD32VW55x_RELEASE_V1.0.2/MSDK/cloud/alicloud/src/protocol/alcs\alcs_api.c ****             } else {
 2194              		.loc 1 678 51
 2195 016e 93974760 		sext.b	a5,a5
 680:C:/Users/stapi/OneDrive/Desktop/GD32VW553/V1_MQTT_OK/GD32VW55X_Wifi_BLE_SDK/GD32VW55x_RELEASE_V1.0.2/MSDK/cloud/alicloud/src/protocol/alcs\alcs_api.c ****             }
 2196              		.loc 1 680 51
 2197 0172 B365F500 		or	a1,a0,a5
 677:C:/Users/stapi/OneDrive/Desktop/GD32VW553/V1_MQTT_OK/GD32VW55X_Wifi_BLE_SDK/GD32VW55x_RELEASE_V1.0.2/MSDK/cloud/alicloud/src/protocol/alcs\alcs_api.c ****                 session->seqWindow->seqMap[index] &= ~(1 << (session->seqWindow->mapPos & 0x7));
 2198              		.loc 1 677 16
 2199 0176 63543401 		ble	s3,s0,.L165
 678:C:/Users/stapi/OneDrive/Desktop/GD32VW553/V1_MQTT_OK/GD32VW55X_Wifi_BLE_SDK/GD32VW55x_RELEASE_V1.0.2/MSDK/cloud/alicloud/src/protocol/alcs\alcs_api.c ****             } else {
 2200              		.loc 1 678 17 is_stmt 1
 678:C:/Users/stapi/OneDrive/Desktop/GD32VW553/V1_MQTT_OK/GD32VW55X_Wifi_BLE_SDK/GD32VW55x_RELEASE_V1.0.2/MSDK/cloud/alicloud/src/protocol/alcs\alcs_api.c ****             } else {
 2201              		.loc 1 678 51 is_stmt 0
 2202 017a B375F540 		andn	a1,a0,a5
 2203              	.L165:
 683:C:/Users/stapi/OneDrive/Desktop/GD32VW553/V1_MQTT_OK/GD32VW55X_Wifi_BLE_SDK/GD32VW55x_RELEASE_V1.0.2/MSDK/cloud/alicloud/src/protocol/alcs\alcs_api.c ****             if (session->seqWindow->mapPos > SEQ_WINDOW_SIZE) {
 2204              		.loc 1 683 40
 2205 017e 0507     		addi	a4,a4,1
 2206              	.LVL231:
 2207 0180 2300B600 		sb	a1,0(a2)
 683:C:/Users/stapi/OneDrive/Desktop/GD32VW553/V1_MQTT_OK/GD32VW55X_Wifi_BLE_SDK/GD32VW55x_RELEASE_V1.0.2/MSDK/cloud/alicloud/src/protocol/alcs\alcs_api.c ****             if (session->seqWindow->mapPos > SEQ_WINDOW_SIZE) {
 2208              		.loc 1 683 13 is_stmt 1
 683:C:/Users/stapi/OneDrive/Desktop/GD32VW553/V1_MQTT_OK/GD32VW55X_Wifi_BLE_SDK/GD32VW55x_RELEASE_V1.0.2/MSDK/cloud/alicloud/src/protocol/alcs\alcs_api.c ****             if (session->seqWindow->mapPos > SEQ_WINDOW_SIZE) {
 2209              		.loc 1 683 40 is_stmt 0
 2210 0184 33470708 		zext.h	a4,a4
 2211              	.LVL232:
 684:C:/Users/stapi/OneDrive/Desktop/GD32VW553/V1_MQTT_OK/GD32VW55X_Wifi_BLE_SDK/GD32VW55x_RELEASE_V1.0.2/MSDK/cloud/alicloud/src/protocol/alcs\alcs_api.c ****                 session->seqWindow->mapPos = 0;
 2212              		.loc 1 684 13 is_stmt 1
 684:C:/Users/stapi/OneDrive/Desktop/GD32VW553/V1_MQTT_OK/GD32VW55X_Wifi_BLE_SDK/GD32VW55x_RELEASE_V1.0.2/MSDK/cloud/alicloud/src/protocol/alcs\alcs_api.c ****                 session->seqWindow->mapPos = 0;
 2213              		.loc 1 684 16 is_stmt 0
 2214 0188 6366E800 		bgtu	a4,a6,.L166
 683:C:/Users/stapi/OneDrive/Desktop/GD32VW553/V1_MQTT_OK/GD32VW55X_Wifi_BLE_SDK/GD32VW55x_RELEASE_V1.0.2/MSDK/cloud/alicloud/src/protocol/alcs\alcs_api.c ****             if (session->seqWindow->mapPos > SEQ_WINDOW_SIZE) {
 2215              		.loc 1 683 40
 2216 018c 2391E600 		sh	a4,2(a3)
 2217              	.L167:
 2218              	.LBE82:
 674:C:/Users/stapi/OneDrive/Desktop/GD32VW553/V1_MQTT_OK/GD32VW55X_Wifi_BLE_SDK/GD32VW55x_RELEASE_V1.0.2/MSDK/cloud/alicloud/src/protocol/alcs\alcs_api.c ****             int index = session->seqWindow->mapPos >> 3;
 2219              		.loc 1 674 33 is_stmt 1 discriminator 2
 674:C:/Users/stapi/OneDrive/Desktop/GD32VW553/V1_MQTT_OK/GD32VW55X_Wifi_BLE_SDK/GD32VW55x_RELEASE_V1.0.2/MSDK/cloud/alicloud/src/protocol/alcs\alcs_api.c ****             int index = session->seqWindow->mapPos >> 3;
 2220              		.loc 1 674 35 is_stmt 0 discriminator 2
 2221 0190 0504     		addi	s0,s0,1
 2222              	.LVL233:
 2223 0192 C1B7     		j	.L163
 2224              	.L166:
 2225              	.LBB83:
 685:C:/Users/stapi/OneDrive/Desktop/GD32VW553/V1_MQTT_OK/GD32VW55X_Wifi_BLE_SDK/GD32VW55x_RELEASE_V1.0.2/MSDK/cloud/alicloud/src/protocol/alcs\alcs_api.c ****             }
 2226              		.loc 1 685 17 is_stmt 1
 685:C:/Users/stapi/OneDrive/Desktop/GD32VW553/V1_MQTT_OK/GD32VW55X_Wifi_BLE_SDK/GD32VW55x_RELEASE_V1.0.2/MSDK/cloud/alicloud/src/protocol/alcs\alcs_api.c ****             }
 2227              		.loc 1 685 44 is_stmt 0
 2228 0194 23910600 		sh	zero,2(a3)
 2229 0198 E5BF     		j	.L167
 2230              	.LVL234:
 2231              	.L162:
 2232              	.LBE83:
 2233              	.LBE84:
 2234              	.LBB85:
 690:C:/Users/stapi/OneDrive/Desktop/GD32VW553/V1_MQTT_OK/GD32VW55X_Wifi_BLE_SDK/GD32VW55x_RELEASE_V1.0.2/MSDK/cloud/alicloud/src/protocol/alcs\alcs_api.c ****         int newPos = (session->seqWindow->mapPos + offset ) % SEQ_WINDOW_SIZE; 
 2235              		.loc 1 690 9 is_stmt 1
 691:C:/Users/stapi/OneDrive/Desktop/GD32VW553/V1_MQTT_OK/GD32VW55X_Wifi_BLE_SDK/GD32VW55x_RELEASE_V1.0.2/MSDK/cloud/alicloud/src/protocol/alcs\alcs_api.c ****         int index = newPos >> 3;
 2236              		.loc 1 691 9
 691:C:/Users/stapi/OneDrive/Desktop/GD32VW553/V1_MQTT_OK/GD32VW55X_Wifi_BLE_SDK/GD32VW55x_RELEASE_V1.0.2/MSDK/cloud/alicloud/src/protocol/alcs\alcs_api.c ****         int index = newPos >> 3;
 2237              		.loc 1 691 41 is_stmt 0
 2238 019a 03D82600 		lhu	a6,2(a3)
 693:C:/Users/stapi/OneDrive/Desktop/GD32VW553/V1_MQTT_OK/GD32VW55X_Wifi_BLE_SDK/GD32VW55x_RELEASE_V1.0.2/MSDK/cloud/alicloud/src/protocol/alcs\alcs_api.c ****         
 2239              		.loc 1 693 9
 2240 019e 37070000 		lui	a4,%hi(.LC25)
 2241 01a2 3EC2     		sw	a5,4(sp)
 691:C:/Users/stapi/OneDrive/Desktop/GD32VW553/V1_MQTT_OK/GD32VW55X_Wifi_BLE_SDK/GD32VW55x_RELEASE_V1.0.2/MSDK/cloud/alicloud/src/protocol/alcs\alcs_api.c ****         int index = newPos >> 3;
 2242              		.loc 1 691 50
 2243 01a4 33093801 		add	s2,a6,s3
 691:C:/Users/stapi/OneDrive/Desktop/GD32VW553/V1_MQTT_OK/GD32VW55X_Wifi_BLE_SDK/GD32VW55x_RELEASE_V1.0.2/MSDK/cloud/alicloud/src/protocol/alcs\alcs_api.c ****         int index = newPos >> 3;
 2244              		.loc 1 691 13
 2245 01a8 33696903 		rem	s2,s2,s6
 2246              	.LVL235:
 692:C:/Users/stapi/OneDrive/Desktop/GD32VW553/V1_MQTT_OK/GD32VW55X_Wifi_BLE_SDK/GD32VW55x_RELEASE_V1.0.2/MSDK/cloud/alicloud/src/protocol/alcs\alcs_api.c ****         COAP_DEBUG ("window offset:%d, startpos:%d, receivepos:%d, index:%d, startseq:%d", offset, 
 2247              		.loc 1 692 9 is_stmt 1
 693:C:/Users/stapi/OneDrive/Desktop/GD32VW553/V1_MQTT_OK/GD32VW55X_Wifi_BLE_SDK/GD32VW55x_RELEASE_V1.0.2/MSDK/cloud/alicloud/src/protocol/alcs\alcs_api.c ****         
 2248              		.loc 1 693 9 is_stmt 0
 2249 01ac CE87     		mv	a5,s3
 2250 01ae 13070700 		addi	a4,a4,%lo(.LC25)
 2251 01b2 9546     		li	a3,5
 2252 01b4 1306502B 		li	a2,693
 2253 01b8 93850500 		addi	a1,a1,%lo(.LANCHOR9)
 2254 01bc 13050500 		addi	a0,a0,%lo(.LC6)
 692:C:/Users/stapi/OneDrive/Desktop/GD32VW553/V1_MQTT_OK/GD32VW55X_Wifi_BLE_SDK/GD32VW55x_RELEASE_V1.0.2/MSDK/cloud/alicloud/src/protocol/alcs\alcs_api.c ****         COAP_DEBUG ("window offset:%d, startpos:%d, receivepos:%d, index:%d, startseq:%d", offset, 
 2255              		.loc 1 692 13
 2256 01c0 135A3940 		srai	s4,s2,3
 2257              	.LVL236:
 693:C:/Users/stapi/OneDrive/Desktop/GD32VW553/V1_MQTT_OK/GD32VW55X_Wifi_BLE_SDK/GD32VW55x_RELEASE_V1.0.2/MSDK/cloud/alicloud/src/protocol/alcs\alcs_api.c ****         
 2258              		.loc 1 693 9 is_stmt 1
 2259 01c4 CA88     		mv	a7,s2
 2260 01c6 52C0     		sw	s4,0(sp)
 2261 01c8 97000000 		call	LITE_syslog
 2261      E7800000 
 2262              	.LVL237:
 695:C:/Users/stapi/OneDrive/Desktop/GD32VW553/V1_MQTT_OK/GD32VW55X_Wifi_BLE_SDK/GD32VW55x_RELEASE_V1.0.2/MSDK/cloud/alicloud/src/protocol/alcs\alcs_api.c ****             return 0;
 2263              		.loc 1 695 9
 695:C:/Users/stapi/OneDrive/Desktop/GD32VW553/V1_MQTT_OK/GD32VW55X_Wifi_BLE_SDK/GD32VW55x_RELEASE_V1.0.2/MSDK/cloud/alicloud/src/protocol/alcs\alcs_api.c ****             return 0;
 2264              		.loc 1 695 20 is_stmt 0
 2265 01d0 BC40     		lw	a5,64(s1)
 695:C:/Users/stapi/OneDrive/Desktop/GD32VW553/V1_MQTT_OK/GD32VW55X_Wifi_BLE_SDK/GD32VW55x_RELEASE_V1.0.2/MSDK/cloud/alicloud/src/protocol/alcs\alcs_api.c ****             return 0;
 2266              		.loc 1 695 63
 2267 01d2 13797900 		andi	s2,s2,7
 2268              	.LVL238:
 695:C:/Users/stapi/OneDrive/Desktop/GD32VW553/V1_MQTT_OK/GD32VW55X_Wifi_BLE_SDK/GD32VW55x_RELEASE_V1.0.2/MSDK/cloud/alicloud/src/protocol/alcs\alcs_api.c ****             return 0;
 2269              		.loc 1 695 39
 2270 01d6 D297     		add	a5,a5,s4
 2271 01d8 03870700 		lb	a4,0(a5)
 695:C:/Users/stapi/OneDrive/Desktop/GD32VW553/V1_MQTT_OK/GD32VW55X_Wifi_BLE_SDK/GD32VW55x_RELEASE_V1.0.2/MSDK/cloud/alicloud/src/protocol/alcs\alcs_api.c ****             return 0;
 2272              		.loc 1 695 13
 2273 01dc B3562741 		sra	a3,a4,s2
 2274 01e0 858A     		andi	a3,a3,1
 695:C:/Users/stapi/OneDrive/Desktop/GD32VW553/V1_MQTT_OK/GD32VW55X_Wifi_BLE_SDK/GD32VW55x_RELEASE_V1.0.2/MSDK/cloud/alicloud/src/protocol/alcs\alcs_api.c ****             return 0;
 2275              		.loc 1 695 12
 2276 01e2 E39F06E6 		bne	a3,zero,.L155
 698:C:/Users/stapi/OneDrive/Desktop/GD32VW553/V1_MQTT_OK/GD32VW55X_Wifi_BLE_SDK/GD32VW55x_RELEASE_V1.0.2/MSDK/cloud/alicloud/src/protocol/alcs\alcs_api.c ****     }
 2277              		.loc 1 698 9 is_stmt 1
 698:C:/Users/stapi/OneDrive/Desktop/GD32VW553/V1_MQTT_OK/GD32VW55X_Wifi_BLE_SDK/GD32VW55x_RELEASE_V1.0.2/MSDK/cloud/alicloud/src/protocol/alcs\alcs_api.c ****     }
 2278              		.loc 1 698 43 is_stmt 0
 2279 01e6 33192729 		bset	s2,a4,s2
 2280 01ea 23802701 		sb	s2,0(a5)
 2281 01ee FDB5     		j	.L172
 2282              	.LBE85:
 2283              		.cfi_endproc
 2284              	.LFE44:
 2286              		.section	.text.get_message_sessionid,"ax",@progbits
 2287              		.align	1
 2288              		.globl	get_message_sessionid
 2290              	get_message_sessionid:
 2291              	.LFB45:
 703:C:/Users/stapi/OneDrive/Desktop/GD32VW553/V1_MQTT_OK/GD32VW55X_Wifi_BLE_SDK/GD32VW55x_RELEASE_V1.0.2/MSDK/cloud/alicloud/src/protocol/alcs\alcs_api.c **** #endif
 704:C:/Users/stapi/OneDrive/Desktop/GD32VW553/V1_MQTT_OK/GD32VW55X_Wifi_BLE_SDK/GD32VW55x_RELEASE_V1.0.2/MSDK/cloud/alicloud/src/protocol/alcs\alcs_api.c **** 
 705:C:/Users/stapi/OneDrive/Desktop/GD32VW553/V1_MQTT_OK/GD32VW55X_Wifi_BLE_SDK/GD32VW55x_RELEASE_V1.0.2/MSDK/cloud/alicloud/src/protocol/alcs\alcs_api.c **** unsigned int get_message_sessionid (CoAPMessage *message, int opt, char checksum[4])
 706:C:/Users/stapi/OneDrive/Desktop/GD32VW553/V1_MQTT_OK/GD32VW55X_Wifi_BLE_SDK/GD32VW55x_RELEASE_V1.0.2/MSDK/cloud/alicloud/src/protocol/alcs\alcs_api.c **** {
 2292              		.loc 1 706 1 is_stmt 1
 2293              		.cfi_startproc
 2294              	.LVL239:
 2295 0000 17030000 		call	t0,__riscv_save_1
 2295      E7020300 
 2296              		.cfi_offset 8, -8
 2297              		.cfi_offset 1, -4
 2298              		.cfi_def_cfa_offset 16
 707:C:/Users/stapi/OneDrive/Desktop/GD32VW553/V1_MQTT_OK/GD32VW55X_Wifi_BLE_SDK/GD32VW55x_RELEASE_V1.0.2/MSDK/cloud/alicloud/src/protocol/alcs\alcs_api.c ****     unsigned int sessionId = 0;
 2299              		.loc 1 707 5
 706:C:/Users/stapi/OneDrive/Desktop/GD32VW553/V1_MQTT_OK/GD32VW55X_Wifi_BLE_SDK/GD32VW55x_RELEASE_V1.0.2/MSDK/cloud/alicloud/src/protocol/alcs\alcs_api.c ****     unsigned int sessionId = 0;
 2300              		.loc 1 706 1 is_stmt 0
 2301 0008 4111     		addi	sp,sp,-16
 2302              		.cfi_def_cfa_offset 32
 2303              		.loc 1 707 18
 2304 000a 02C2     		sw	zero,4(sp)
 708:C:/Users/stapi/OneDrive/Desktop/GD32VW553/V1_MQTT_OK/GD32VW55X_Wifi_BLE_SDK/GD32VW55x_RELEASE_V1.0.2/MSDK/cloud/alicloud/src/protocol/alcs\alcs_api.c ****     if (opt & ALCS_OPT_PAYLOAD_CHECKSUM) {
 2305              		.loc 1 708 5 is_stmt 1
 2306              		.loc 1 708 13 is_stmt 0
 2307 000c 9189     		andi	a1,a1,4
 2308              	.LVL240:
 2309              		.loc 1 708 8
 2310 000e A5C1     		beq	a1,zero,.L174
 2311 0010 3284     		mv	s0,a2
 2312              	.LBB86:
 709:C:/Users/stapi/OneDrive/Desktop/GD32VW553/V1_MQTT_OK/GD32VW55X_Wifi_BLE_SDK/GD32VW55x_RELEASE_V1.0.2/MSDK/cloud/alicloud/src/protocol/alcs\alcs_api.c ****         unsigned char buf[8];
 2313              		.loc 1 709 9 is_stmt 1
 710:C:/Users/stapi/OneDrive/Desktop/GD32VW553/V1_MQTT_OK/GD32VW55X_Wifi_BLE_SDK/GD32VW55x_RELEASE_V1.0.2/MSDK/cloud/alicloud/src/protocol/alcs\alcs_api.c ****         unsigned short datalen = sizeof(buf);
 2314              		.loc 1 710 9
 2315              		.loc 1 710 24 is_stmt 0
 2316 0012 A147     		li	a5,8
 711:C:/Users/stapi/OneDrive/Desktop/GD32VW553/V1_MQTT_OK/GD32VW55X_Wifi_BLE_SDK/GD32VW55x_RELEASE_V1.0.2/MSDK/cloud/alicloud/src/protocol/alcs\alcs_api.c ****         if (ALCS_SUCCESS != CoAPStrOption_get (message, COAP_OPTION_SESSIONID, buf, &datalen)) {
 2317              		.loc 1 711 29
 2318 0014 93062100 		addi	a3,sp,2
 2319 0018 3000     		addi	a2,sp,8
 2320              	.LVL241:
 2321 001a 93057004 		li	a1,71
 710:C:/Users/stapi/OneDrive/Desktop/GD32VW553/V1_MQTT_OK/GD32VW55X_Wifi_BLE_SDK/GD32VW55x_RELEASE_V1.0.2/MSDK/cloud/alicloud/src/protocol/alcs\alcs_api.c ****         unsigned short datalen = sizeof(buf);
 2322              		.loc 1 710 24
 2323 001e 2311F100 		sh	a5,2(sp)
 2324              		.loc 1 711 9 is_stmt 1
 2325              		.loc 1 711 29 is_stmt 0
 2326 0022 97000000 		call	CoAPStrOption_get
 2326      E7800000 
 2327              	.LVL242:
 2328              		.loc 1 711 12
 2329 002a 19C5     		beq	a0,zero,.L175
 712:C:/Users/stapi/OneDrive/Desktop/GD32VW553/V1_MQTT_OK/GD32VW55X_Wifi_BLE_SDK/GD32VW55x_RELEASE_V1.0.2/MSDK/cloud/alicloud/src/protocol/alcs\alcs_api.c ****             return 0;
 2330              		.loc 1 712 13 is_stmt 1
 2331              		.loc 1 712 20 is_stmt 0
 2332 002c 0145     		li	a0,0
 2333              	.LVL243:
 2334              	.L173:
 2335              	.LBE86:
 713:C:/Users/stapi/OneDrive/Desktop/GD32VW553/V1_MQTT_OK/GD32VW55X_Wifi_BLE_SDK/GD32VW55x_RELEASE_V1.0.2/MSDK/cloud/alicloud/src/protocol/alcs\alcs_api.c ****         } 
 714:C:/Users/stapi/OneDrive/Desktop/GD32VW553/V1_MQTT_OK/GD32VW55X_Wifi_BLE_SDK/GD32VW55x_RELEASE_V1.0.2/MSDK/cloud/alicloud/src/protocol/alcs\alcs_api.c **** 
 715:C:/Users/stapi/OneDrive/Desktop/GD32VW553/V1_MQTT_OK/GD32VW55X_Wifi_BLE_SDK/GD32VW55x_RELEASE_V1.0.2/MSDK/cloud/alicloud/src/protocol/alcs\alcs_api.c ****         sessionId |= (buf[0] << 24);
 716:C:/Users/stapi/OneDrive/Desktop/GD32VW553/V1_MQTT_OK/GD32VW55X_Wifi_BLE_SDK/GD32VW55x_RELEASE_V1.0.2/MSDK/cloud/alicloud/src/protocol/alcs\alcs_api.c ****         sessionId |= (buf[1] << 16);
 717:C:/Users/stapi/OneDrive/Desktop/GD32VW553/V1_MQTT_OK/GD32VW55X_Wifi_BLE_SDK/GD32VW55x_RELEASE_V1.0.2/MSDK/cloud/alicloud/src/protocol/alcs\alcs_api.c ****         sessionId |= (buf[2] << 8);
 718:C:/Users/stapi/OneDrive/Desktop/GD32VW553/V1_MQTT_OK/GD32VW55X_Wifi_BLE_SDK/GD32VW55x_RELEASE_V1.0.2/MSDK/cloud/alicloud/src/protocol/alcs\alcs_api.c ****         sessionId |= buf[3];
 719:C:/Users/stapi/OneDrive/Desktop/GD32VW553/V1_MQTT_OK/GD32VW55X_Wifi_BLE_SDK/GD32VW55x_RELEASE_V1.0.2/MSDK/cloud/alicloud/src/protocol/alcs\alcs_api.c ****         if (checksum) {
 720:C:/Users/stapi/OneDrive/Desktop/GD32VW553/V1_MQTT_OK/GD32VW55X_Wifi_BLE_SDK/GD32VW55x_RELEASE_V1.0.2/MSDK/cloud/alicloud/src/protocol/alcs\alcs_api.c ****             memcpy (checksum, buf + 4, 4);
 721:C:/Users/stapi/OneDrive/Desktop/GD32VW553/V1_MQTT_OK/GD32VW55X_Wifi_BLE_SDK/GD32VW55x_RELEASE_V1.0.2/MSDK/cloud/alicloud/src/protocol/alcs\alcs_api.c ****         }
 722:C:/Users/stapi/OneDrive/Desktop/GD32VW553/V1_MQTT_OK/GD32VW55X_Wifi_BLE_SDK/GD32VW55x_RELEASE_V1.0.2/MSDK/cloud/alicloud/src/protocol/alcs\alcs_api.c ****     } else {
 723:C:/Users/stapi/OneDrive/Desktop/GD32VW553/V1_MQTT_OK/GD32VW55X_Wifi_BLE_SDK/GD32VW55x_RELEASE_V1.0.2/MSDK/cloud/alicloud/src/protocol/alcs\alcs_api.c ****         CoAPUintOption_get (message, COAP_OPTION_SESSIONID, &sessionId);
 724:C:/Users/stapi/OneDrive/Desktop/GD32VW553/V1_MQTT_OK/GD32VW55X_Wifi_BLE_SDK/GD32VW55x_RELEASE_V1.0.2/MSDK/cloud/alicloud/src/protocol/alcs\alcs_api.c **** 
 725:C:/Users/stapi/OneDrive/Desktop/GD32VW553/V1_MQTT_OK/GD32VW55X_Wifi_BLE_SDK/GD32VW55x_RELEASE_V1.0.2/MSDK/cloud/alicloud/src/protocol/alcs\alcs_api.c ****     }
 726:C:/Users/stapi/OneDrive/Desktop/GD32VW553/V1_MQTT_OK/GD32VW55X_Wifi_BLE_SDK/GD32VW55x_RELEASE_V1.0.2/MSDK/cloud/alicloud/src/protocol/alcs\alcs_api.c **** 
 727:C:/Users/stapi/OneDrive/Desktop/GD32VW553/V1_MQTT_OK/GD32VW55X_Wifi_BLE_SDK/GD32VW55x_RELEASE_V1.0.2/MSDK/cloud/alicloud/src/protocol/alcs\alcs_api.c ****     return sessionId;
 728:C:/Users/stapi/OneDrive/Desktop/GD32VW553/V1_MQTT_OK/GD32VW55X_Wifi_BLE_SDK/GD32VW55x_RELEASE_V1.0.2/MSDK/cloud/alicloud/src/protocol/alcs\alcs_api.c **** }
 2336              		.loc 1 728 1
 2337 002e 4101     		addi	sp,sp,16
 2338              		.cfi_remember_state
 2339              		.cfi_def_cfa_offset 0
 2340 0030 17030000 		tail	__riscv_restore_1
 2340      67000300 
 2341              		.cfi_restore 8
 2342              		.cfi_restore 1
 2343              		.cfi_def_cfa_offset -16
 2344              	.LVL244:
 2345              	.L175:
 2346              		.cfi_restore_state
 2347              	.LBB87:
 715:C:/Users/stapi/OneDrive/Desktop/GD32VW553/V1_MQTT_OK/GD32VW55X_Wifi_BLE_SDK/GD32VW55x_RELEASE_V1.0.2/MSDK/cloud/alicloud/src/protocol/alcs\alcs_api.c ****         sessionId |= (buf[1] << 16);
 2348              		.loc 1 715 9 is_stmt 1
 716:C:/Users/stapi/OneDrive/Desktop/GD32VW553/V1_MQTT_OK/GD32VW55X_Wifi_BLE_SDK/GD32VW55x_RELEASE_V1.0.2/MSDK/cloud/alicloud/src/protocol/alcs\alcs_api.c ****         sessionId |= (buf[2] << 8);
 2349              		.loc 1 716 9
 717:C:/Users/stapi/OneDrive/Desktop/GD32VW553/V1_MQTT_OK/GD32VW55X_Wifi_BLE_SDK/GD32VW55x_RELEASE_V1.0.2/MSDK/cloud/alicloud/src/protocol/alcs\alcs_api.c ****         sessionId |= buf[3];
 2350              		.loc 1 717 9
 718:C:/Users/stapi/OneDrive/Desktop/GD32VW553/V1_MQTT_OK/GD32VW55X_Wifi_BLE_SDK/GD32VW55x_RELEASE_V1.0.2/MSDK/cloud/alicloud/src/protocol/alcs\alcs_api.c ****         if (checksum) {
 2351              		.loc 1 718 9
 718:C:/Users/stapi/OneDrive/Desktop/GD32VW553/V1_MQTT_OK/GD32VW55X_Wifi_BLE_SDK/GD32VW55x_RELEASE_V1.0.2/MSDK/cloud/alicloud/src/protocol/alcs\alcs_api.c ****         if (checksum) {
 2352              		.loc 1 718 19 is_stmt 0
 2353 0038 1247     		lw	a4,4(sp)
 718:C:/Users/stapi/OneDrive/Desktop/GD32VW553/V1_MQTT_OK/GD32VW55X_Wifi_BLE_SDK/GD32VW55x_RELEASE_V1.0.2/MSDK/cloud/alicloud/src/protocol/alcs\alcs_api.c ****         if (checksum) {
 2354              		.loc 1 718 25
 2355 003a 8347B100 		lbu	a5,11(sp)
 718:C:/Users/stapi/OneDrive/Desktop/GD32VW553/V1_MQTT_OK/GD32VW55X_Wifi_BLE_SDK/GD32VW55x_RELEASE_V1.0.2/MSDK/cloud/alicloud/src/protocol/alcs\alcs_api.c ****         if (checksum) {
 2356              		.loc 1 718 19
 2357 003e D98F     		or	a5,a5,a4
 715:C:/Users/stapi/OneDrive/Desktop/GD32VW553/V1_MQTT_OK/GD32VW55X_Wifi_BLE_SDK/GD32VW55x_RELEASE_V1.0.2/MSDK/cloud/alicloud/src/protocol/alcs\alcs_api.c ****         sessionId |= (buf[1] << 16);
 2358              		.loc 1 715 26
 2359 0040 03478100 		lbu	a4,8(sp)
 715:C:/Users/stapi/OneDrive/Desktop/GD32VW553/V1_MQTT_OK/GD32VW55X_Wifi_BLE_SDK/GD32VW55x_RELEASE_V1.0.2/MSDK/cloud/alicloud/src/protocol/alcs\alcs_api.c ****         sessionId |= (buf[1] << 16);
 2360              		.loc 1 715 30
 2361 0044 6207     		slli	a4,a4,24
 718:C:/Users/stapi/OneDrive/Desktop/GD32VW553/V1_MQTT_OK/GD32VW55X_Wifi_BLE_SDK/GD32VW55x_RELEASE_V1.0.2/MSDK/cloud/alicloud/src/protocol/alcs\alcs_api.c ****         if (checksum) {
 2362              		.loc 1 718 19
 2363 0046 D98F     		or	a5,a5,a4
 716:C:/Users/stapi/OneDrive/Desktop/GD32VW553/V1_MQTT_OK/GD32VW55X_Wifi_BLE_SDK/GD32VW55x_RELEASE_V1.0.2/MSDK/cloud/alicloud/src/protocol/alcs\alcs_api.c ****         sessionId |= (buf[2] << 8);
 2364              		.loc 1 716 26
 2365 0048 03479100 		lbu	a4,9(sp)
 716:C:/Users/stapi/OneDrive/Desktop/GD32VW553/V1_MQTT_OK/GD32VW55X_Wifi_BLE_SDK/GD32VW55x_RELEASE_V1.0.2/MSDK/cloud/alicloud/src/protocol/alcs\alcs_api.c ****         sessionId |= (buf[2] << 8);
 2366              		.loc 1 716 30
 2367 004c 4207     		slli	a4,a4,16
 718:C:/Users/stapi/OneDrive/Desktop/GD32VW553/V1_MQTT_OK/GD32VW55X_Wifi_BLE_SDK/GD32VW55x_RELEASE_V1.0.2/MSDK/cloud/alicloud/src/protocol/alcs\alcs_api.c ****         if (checksum) {
 2368              		.loc 1 718 19
 2369 004e D98F     		or	a5,a5,a4
 717:C:/Users/stapi/OneDrive/Desktop/GD32VW553/V1_MQTT_OK/GD32VW55X_Wifi_BLE_SDK/GD32VW55x_RELEASE_V1.0.2/MSDK/cloud/alicloud/src/protocol/alcs\alcs_api.c ****         sessionId |= buf[3];
 2370              		.loc 1 717 26
 2371 0050 0347A100 		lbu	a4,10(sp)
 717:C:/Users/stapi/OneDrive/Desktop/GD32VW553/V1_MQTT_OK/GD32VW55X_Wifi_BLE_SDK/GD32VW55x_RELEASE_V1.0.2/MSDK/cloud/alicloud/src/protocol/alcs\alcs_api.c ****         sessionId |= buf[3];
 2372              		.loc 1 717 30
 2373 0054 2207     		slli	a4,a4,8
 718:C:/Users/stapi/OneDrive/Desktop/GD32VW553/V1_MQTT_OK/GD32VW55X_Wifi_BLE_SDK/GD32VW55x_RELEASE_V1.0.2/MSDK/cloud/alicloud/src/protocol/alcs\alcs_api.c ****         if (checksum) {
 2374              		.loc 1 718 19
 2375 0056 D98F     		or	a5,a5,a4
 2376 0058 3EC2     		sw	a5,4(sp)
 719:C:/Users/stapi/OneDrive/Desktop/GD32VW553/V1_MQTT_OK/GD32VW55X_Wifi_BLE_SDK/GD32VW55x_RELEASE_V1.0.2/MSDK/cloud/alicloud/src/protocol/alcs\alcs_api.c ****             memcpy (checksum, buf + 4, 4);
 2377              		.loc 1 719 9 is_stmt 1
 719:C:/Users/stapi/OneDrive/Desktop/GD32VW553/V1_MQTT_OK/GD32VW55X_Wifi_BLE_SDK/GD32VW55x_RELEASE_V1.0.2/MSDK/cloud/alicloud/src/protocol/alcs\alcs_api.c ****             memcpy (checksum, buf + 4, 4);
 2378              		.loc 1 719 12 is_stmt 0
 2379 005a 01C8     		beq	s0,zero,.L178
 720:C:/Users/stapi/OneDrive/Desktop/GD32VW553/V1_MQTT_OK/GD32VW55X_Wifi_BLE_SDK/GD32VW55x_RELEASE_V1.0.2/MSDK/cloud/alicloud/src/protocol/alcs\alcs_api.c ****         }
 2380              		.loc 1 720 13 is_stmt 1
 2381 005c 1146     		li	a2,4
 2382 005e 6C00     		addi	a1,sp,12
 2383 0060 2285     		mv	a0,s0
 2384 0062 97000000 		call	memcpy
 2384      E7800000 
 2385              	.LVL245:
 2386              	.L178:
 2387              	.LBE87:
 727:C:/Users/stapi/OneDrive/Desktop/GD32VW553/V1_MQTT_OK/GD32VW55X_Wifi_BLE_SDK/GD32VW55x_RELEASE_V1.0.2/MSDK/cloud/alicloud/src/protocol/alcs\alcs_api.c **** }
 2388              		.loc 1 727 5
 727:C:/Users/stapi/OneDrive/Desktop/GD32VW553/V1_MQTT_OK/GD32VW55X_Wifi_BLE_SDK/GD32VW55x_RELEASE_V1.0.2/MSDK/cloud/alicloud/src/protocol/alcs\alcs_api.c **** }
 2389              		.loc 1 727 12 is_stmt 0
 2390 006a 1245     		lw	a0,4(sp)
 2391 006c C9B7     		j	.L173
 2392              	.LVL246:
 2393              	.L174:
 723:C:/Users/stapi/OneDrive/Desktop/GD32VW553/V1_MQTT_OK/GD32VW55X_Wifi_BLE_SDK/GD32VW55x_RELEASE_V1.0.2/MSDK/cloud/alicloud/src/protocol/alcs\alcs_api.c **** 
 2394              		.loc 1 723 9 is_stmt 1
 2395 006e 5000     		addi	a2,sp,4
 2396              	.LVL247:
 2397 0070 93057004 		li	a1,71
 2398 0074 97000000 		call	CoAPUintOption_get
 2398      E7800000 
 2399              	.LVL248:
 2400 007c FDB7     		j	.L178
 2401              		.cfi_endproc
 2402              	.LFE45:
 2404              		.section	.text.add_message_sessionid,"ax",@progbits
 2405              		.align	1
 2406              		.globl	add_message_sessionid
 2408              	add_message_sessionid:
 2409              	.LFB46:
 729:C:/Users/stapi/OneDrive/Desktop/GD32VW553/V1_MQTT_OK/GD32VW55X_Wifi_BLE_SDK/GD32VW55x_RELEASE_V1.0.2/MSDK/cloud/alicloud/src/protocol/alcs\alcs_api.c **** 
 730:C:/Users/stapi/OneDrive/Desktop/GD32VW553/V1_MQTT_OK/GD32VW55X_Wifi_BLE_SDK/GD32VW55x_RELEASE_V1.0.2/MSDK/cloud/alicloud/src/protocol/alcs\alcs_api.c **** void add_message_sessionid(CoAPMessage *message, int sessionId, int opt, CoAPLenString* payload)
 731:C:/Users/stapi/OneDrive/Desktop/GD32VW553/V1_MQTT_OK/GD32VW55X_Wifi_BLE_SDK/GD32VW55x_RELEASE_V1.0.2/MSDK/cloud/alicloud/src/protocol/alcs\alcs_api.c **** {
 2410              		.loc 1 731 1
 2411              		.cfi_startproc
 2412              	.LVL249:
 2413 0000 17030000 		call	t0,__riscv_save_1
 2413      E7020300 
 2414              		.cfi_offset 8, -8
 2415              		.cfi_offset 1, -4
 2416              		.cfi_def_cfa_offset 16
 732:C:/Users/stapi/OneDrive/Desktop/GD32VW553/V1_MQTT_OK/GD32VW55X_Wifi_BLE_SDK/GD32VW55x_RELEASE_V1.0.2/MSDK/cloud/alicloud/src/protocol/alcs\alcs_api.c ****     if (opt & ALCS_OPT_PAYLOAD_CHECKSUM) {
 2417              		.loc 1 732 5
 2418              		.loc 1 732 13 is_stmt 0
 2419 0008 118A     		andi	a2,a2,4
 2420              	.LVL250:
 731:C:/Users/stapi/OneDrive/Desktop/GD32VW553/V1_MQTT_OK/GD32VW55X_Wifi_BLE_SDK/GD32VW55x_RELEASE_V1.0.2/MSDK/cloud/alicloud/src/protocol/alcs\alcs_api.c ****     if (opt & ALCS_OPT_PAYLOAD_CHECKSUM) {
 2421              		.loc 1 731 1
 2422 000a 0111     		addi	sp,sp,-32
 2423              		.cfi_def_cfa_offset 48
 2424              		.loc 1 732 8
 2425 000c 05CE     		beq	a2,zero,.L184
 2426 000e 93D58569 		rev8	a1,a1
 2427              	.LVL251:
 2428 0012 2A84     		mv	s0,a0
 2429              	.LVL252:
 2430              	.LBB91:
 2431              	.LBB92:
 2432              	.LBB93:
 733:C:/Users/stapi/OneDrive/Desktop/GD32VW553/V1_MQTT_OK/GD32VW55X_Wifi_BLE_SDK/GD32VW55x_RELEASE_V1.0.2/MSDK/cloud/alicloud/src/protocol/alcs\alcs_api.c ****         unsigned char buf[8];
 2433              		.loc 1 733 9 is_stmt 1
 734:C:/Users/stapi/OneDrive/Desktop/GD32VW553/V1_MQTT_OK/GD32VW55X_Wifi_BLE_SDK/GD32VW55x_RELEASE_V1.0.2/MSDK/cloud/alicloud/src/protocol/alcs\alcs_api.c ****         buf[0] = (sessionId >> 24) & 0xff;
 2434              		.loc 1 734 9
 735:C:/Users/stapi/OneDrive/Desktop/GD32VW553/V1_MQTT_OK/GD32VW55X_Wifi_BLE_SDK/GD32VW55x_RELEASE_V1.0.2/MSDK/cloud/alicloud/src/protocol/alcs\alcs_api.c ****         buf[1] = (sessionId >> 16) & 0xff;
 2435              		.loc 1 735 9
 736:C:/Users/stapi/OneDrive/Desktop/GD32VW553/V1_MQTT_OK/GD32VW55X_Wifi_BLE_SDK/GD32VW55x_RELEASE_V1.0.2/MSDK/cloud/alicloud/src/protocol/alcs\alcs_api.c ****         buf[2] = (sessionId >> 8) & 0xff;
 2436              		.loc 1 736 9
 737:C:/Users/stapi/OneDrive/Desktop/GD32VW553/V1_MQTT_OK/GD32VW55X_Wifi_BLE_SDK/GD32VW55x_RELEASE_V1.0.2/MSDK/cloud/alicloud/src/protocol/alcs\alcs_api.c ****         buf[3] = (sessionId) & 0xff;
 2437              		.loc 1 737 9
 734:C:/Users/stapi/OneDrive/Desktop/GD32VW553/V1_MQTT_OK/GD32VW55X_Wifi_BLE_SDK/GD32VW55x_RELEASE_V1.0.2/MSDK/cloud/alicloud/src/protocol/alcs\alcs_api.c ****         buf[1] = (sessionId >> 16) & 0xff;
 2438              		.loc 1 734 16 is_stmt 0
 2439 0014 2EC4     		sw	a1,8(sp)
 738:C:/Users/stapi/OneDrive/Desktop/GD32VW553/V1_MQTT_OK/GD32VW55X_Wifi_BLE_SDK/GD32VW55x_RELEASE_V1.0.2/MSDK/cloud/alicloud/src/protocol/alcs\alcs_api.c **** 
 739:C:/Users/stapi/OneDrive/Desktop/GD32VW553/V1_MQTT_OK/GD32VW55X_Wifi_BLE_SDK/GD32VW55x_RELEASE_V1.0.2/MSDK/cloud/alicloud/src/protocol/alcs\alcs_api.c ****         unsigned char checksum[16];
 2440              		.loc 1 739 9 is_stmt 1
 740:C:/Users/stapi/OneDrive/Desktop/GD32VW553/V1_MQTT_OK/GD32VW55X_Wifi_BLE_SDK/GD32VW55x_RELEASE_V1.0.2/MSDK/cloud/alicloud/src/protocol/alcs\alcs_api.c ****         utils_md5 (payload->data, payload->len, checksum);        
 2441              		.loc 1 740 9
 2442 0016 C842     		lw	a0,4(a3)
 2443              	.LVL253:
 2444 0018 8C42     		lw	a1,0(a3)
 2445 001a 1008     		addi	a2,sp,16
 2446 001c 97000000 		call	utils_md5
 2446      E7800000 
 2447              	.LVL254:
 741:C:/Users/stapi/OneDrive/Desktop/GD32VW553/V1_MQTT_OK/GD32VW55X_Wifi_BLE_SDK/GD32VW55x_RELEASE_V1.0.2/MSDK/cloud/alicloud/src/protocol/alcs\alcs_api.c ****         memcpy (buf + 4, checksum, 4);
 2448              		.loc 1 741 9
 2449 0024 C247     		lw	a5,16(sp)
 742:C:/Users/stapi/OneDrive/Desktop/GD32VW553/V1_MQTT_OK/GD32VW55X_Wifi_BLE_SDK/GD32VW55x_RELEASE_V1.0.2/MSDK/cloud/alicloud/src/protocol/alcs\alcs_api.c ****         CoAPStrOption_add (message, COAP_OPTION_SESSIONID, buf, sizeof(buf));
 2450              		.loc 1 742 9 is_stmt 0
 2451 0026 A146     		li	a3,8
 2452 0028 3000     		addi	a2,sp,8
 2453 002a 93057004 		li	a1,71
 2454 002e 2285     		mv	a0,s0
 741:C:/Users/stapi/OneDrive/Desktop/GD32VW553/V1_MQTT_OK/GD32VW55X_Wifi_BLE_SDK/GD32VW55x_RELEASE_V1.0.2/MSDK/cloud/alicloud/src/protocol/alcs\alcs_api.c ****         memcpy (buf + 4, checksum, 4);
 2455              		.loc 1 741 9
 2456 0030 3EC6     		sw	a5,12(sp)
 2457              		.loc 1 742 9 is_stmt 1
 2458 0032 97000000 		call	CoAPStrOption_add
 2458      E7800000 
 2459              	.LVL255:
 2460              	.L183:
 2461              	.LBE93:
 2462              	.LBE92:
 2463              	.LBE91:
 743:C:/Users/stapi/OneDrive/Desktop/GD32VW553/V1_MQTT_OK/GD32VW55X_Wifi_BLE_SDK/GD32VW55x_RELEASE_V1.0.2/MSDK/cloud/alicloud/src/protocol/alcs\alcs_api.c ****     } else { 
 744:C:/Users/stapi/OneDrive/Desktop/GD32VW553/V1_MQTT_OK/GD32VW55X_Wifi_BLE_SDK/GD32VW55x_RELEASE_V1.0.2/MSDK/cloud/alicloud/src/protocol/alcs\alcs_api.c ****         CoAPUintOption_add (message, COAP_OPTION_SESSIONID, sessionId);
 745:C:/Users/stapi/OneDrive/Desktop/GD32VW553/V1_MQTT_OK/GD32VW55X_Wifi_BLE_SDK/GD32VW55x_RELEASE_V1.0.2/MSDK/cloud/alicloud/src/protocol/alcs\alcs_api.c ****     }
 746:C:/Users/stapi/OneDrive/Desktop/GD32VW553/V1_MQTT_OK/GD32VW55X_Wifi_BLE_SDK/GD32VW55x_RELEASE_V1.0.2/MSDK/cloud/alicloud/src/protocol/alcs\alcs_api.c **** }
 2464              		.loc 1 746 1 is_stmt 0
 2465 003a 0561     		addi	sp,sp,32
 2466              		.cfi_remember_state
 2467              		.cfi_def_cfa_offset 0
 2468 003c 17030000 		tail	__riscv_restore_1
 2468      67000300 
 2469              		.cfi_restore 8
 2470              		.cfi_restore 1
 2471              		.cfi_def_cfa_offset -16
 2472              	.LVL256:
 2473              	.L184:
 2474              		.cfi_restore_state
 744:C:/Users/stapi/OneDrive/Desktop/GD32VW553/V1_MQTT_OK/GD32VW55X_Wifi_BLE_SDK/GD32VW55x_RELEASE_V1.0.2/MSDK/cloud/alicloud/src/protocol/alcs\alcs_api.c ****     }
 2475              		.loc 1 744 9 is_stmt 1
 2476 0044 2E86     		mv	a2,a1
 2477 0046 93057004 		li	a1,71
 2478              	.LVL257:
 2479 004a 97000000 		call	CoAPUintOption_add
 2479      E7800000 
 2480              	.LVL258:
 2481              		.loc 1 746 1 is_stmt 0
 2482 0052 E5B7     		j	.L183
 2483              		.cfi_endproc
 2484              	.LFE46:
 2486              		.section	.rodata.alcs_sendrsp_secure.str1.4,"aMS",@progbits,1
 2487              		.align	2
 2488              	.LC26:
 2489 0000 616C6373 		.string	"alcs_sendrsp_secure"
 2489      5F73656E 
 2489      64727370 
 2489      5F736563 
 2489      75726500 
 2490              		.align	2
 2491              	.LC27:
 2492 0014 66696E64 		.string	"find request, id:%d, isgroup:%d"
 2492      20726571 
 2492      75657374 
 2492      2C206964 
 2492      3A25642C 
 2493              		.align	2
 2494              	.LC28:
 2495 0034 72657175 		.string	"request is expired"
 2495      65737420 
 2495      69732065 
 2495      78706972 
 2495      656400
 2496 0047 00       		.align	2
 2497              	.LC29:
 2498 0048 616C6373 		.string	"alcs_sendrsp_secure, send group rsp"
 2498      5F73656E 
 2498      64727370 
 2498      5F736563 
 2498      7572652C 
 2499              		.align	2
 2500              	.LC30:
 2501 006c 6765745F 		.string	"get_session_by_id, find"
 2501      73657373 
 2501      696F6E5F 
 2501      62795F69 
 2501      642C2066 
 2502              		.align	2
 2503              	.LC31:
 2504 0084 616C6373 		.string	"alcs_sendrsp_secure sessionId:%d"
 2504      5F73656E 
 2504      64727370 
 2504      5F736563 
 2504      75726520 
 2505 00a5 000000   		.align	2
 2506              	.LC32:
 2507 00a8 616C6373 		.string	"alcs_sendrsp_secure, session not found"
 2507      5F73656E 
 2507      64727370 
 2507      5F736563 
 2507      7572652C 
 2508              		.section	.text.alcs_sendrsp_secure,"ax",@progbits
 2509              		.align	1
 2510              		.globl	alcs_sendrsp_secure
 2512              	alcs_sendrsp_secure:
 2513              	.LFB41:
 531:C:/Users/stapi/OneDrive/Desktop/GD32VW553/V1_MQTT_OK/GD32VW55X_Wifi_BLE_SDK/GD32VW55x_RELEASE_V1.0.2/MSDK/cloud/alicloud/src/protocol/alcs\alcs_api.c ****     request_item* req;
 2514              		.loc 1 531 1 is_stmt 1
 2515              		.cfi_startproc
 2516              	.LVL259:
 2517 0000 17030000 		call	t0,__riscv_save_12
 2517      E7020300 
 2518              		.cfi_offset 27, -52
 2519              		.cfi_offset 26, -48
 2520              		.cfi_offset 25, -44
 2521              		.cfi_offset 24, -40
 2522              		.cfi_offset 23, -36
 2523              		.cfi_offset 22, -32
 2524              		.cfi_offset 21, -28
 2525              		.cfi_offset 20, -24
 2526              		.cfi_offset 19, -20
 2527              		.cfi_offset 18, -16
 2528              		.cfi_offset 9, -12
 2529              		.cfi_offset 8, -8
 2530              		.cfi_offset 1, -4
 2531              		.cfi_def_cfa_offset 64
 532:C:/Users/stapi/OneDrive/Desktop/GD32VW553/V1_MQTT_OK/GD32VW55X_Wifi_BLE_SDK/GD32VW55x_RELEASE_V1.0.2/MSDK/cloud/alicloud/src/protocol/alcs\alcs_api.c ****     char* encrypt_key;
 2532              		.loc 1 532 5
 533:C:/Users/stapi/OneDrive/Desktop/GD32VW553/V1_MQTT_OK/GD32VW55X_Wifi_BLE_SDK/GD32VW55x_RELEASE_V1.0.2/MSDK/cloud/alicloud/src/protocol/alcs\alcs_api.c ****     
 2533              		.loc 1 533 5
 535:C:/Users/stapi/OneDrive/Desktop/GD32VW553/V1_MQTT_OK/GD32VW55X_Wifi_BLE_SDK/GD32VW55x_RELEASE_V1.0.2/MSDK/cloud/alicloud/src/protocol/alcs\alcs_api.c ****     if (!ctx || !devKey || !message) {
 2534              		.loc 1 535 5
 531:C:/Users/stapi/OneDrive/Desktop/GD32VW553/V1_MQTT_OK/GD32VW55X_Wifi_BLE_SDK/GD32VW55x_RELEASE_V1.0.2/MSDK/cloud/alicloud/src/protocol/alcs\alcs_api.c ****     request_item* req;
 2535              		.loc 1 531 1 is_stmt 0
 2536 0008 BA8B     		mv	s7,a4
 535:C:/Users/stapi/OneDrive/Desktop/GD32VW553/V1_MQTT_OK/GD32VW55X_Wifi_BLE_SDK/GD32VW55x_RELEASE_V1.0.2/MSDK/cloud/alicloud/src/protocol/alcs\alcs_api.c ****     if (!ctx || !devKey || !message) {
 2537              		.loc 1 535 5
 2538 000a 370A0000 		lui	s4,%hi(.LANCHOR10)
 2539 000e 37070000 		lui	a4,%hi(.LC26)
 2540              	.LVL260:
 2541 0012 B7090000 		lui	s3,%hi(.LC6)
 531:C:/Users/stapi/OneDrive/Desktop/GD32VW553/V1_MQTT_OK/GD32VW55X_Wifi_BLE_SDK/GD32VW55x_RELEASE_V1.0.2/MSDK/cloud/alicloud/src/protocol/alcs\alcs_api.c ****     request_item* req;
 2542              		.loc 1 531 1
 2543 0016 2A8B     		mv	s6,a0
 2544 0018 0111     		addi	sp,sp,-32
 2545              		.cfi_def_cfa_offset 96
 531:C:/Users/stapi/OneDrive/Desktop/GD32VW553/V1_MQTT_OK/GD32VW55X_Wifi_BLE_SDK/GD32VW55x_RELEASE_V1.0.2/MSDK/cloud/alicloud/src/protocol/alcs\alcs_api.c ****     request_item* req;
 2546              		.loc 1 531 1
 2547 001a 2E8C     		mv	s8,a1
 2548 001c 3284     		mv	s0,a2
 535:C:/Users/stapi/OneDrive/Desktop/GD32VW553/V1_MQTT_OK/GD32VW55X_Wifi_BLE_SDK/GD32VW55x_RELEASE_V1.0.2/MSDK/cloud/alicloud/src/protocol/alcs\alcs_api.c ****     if (!ctx || !devKey || !message) {
 2549              		.loc 1 535 5
 2550 001e 13070700 		addi	a4,a4,%lo(.LC26)
 2551 0022 9546     		li	a3,5
 2552              	.LVL261:
 2553 0024 13067021 		li	a2,535
 2554              	.LVL262:
 2555 0028 93050A00 		addi	a1,s4,%lo(.LANCHOR10)
 2556              	.LVL263:
 2557 002c 13850900 		addi	a0,s3,%lo(.LC6)
 2558              	.LVL264:
 531:C:/Users/stapi/OneDrive/Desktop/GD32VW553/V1_MQTT_OK/GD32VW55X_Wifi_BLE_SDK/GD32VW55x_RELEASE_V1.0.2/MSDK/cloud/alicloud/src/protocol/alcs\alcs_api.c ****     request_item* req;
 2559              		.loc 1 531 1
 2560 0030 BE8A     		mv	s5,a5
 535:C:/Users/stapi/OneDrive/Desktop/GD32VW553/V1_MQTT_OK/GD32VW55X_Wifi_BLE_SDK/GD32VW55x_RELEASE_V1.0.2/MSDK/cloud/alicloud/src/protocol/alcs\alcs_api.c ****     if (!ctx || !devKey || !message) {
 2561              		.loc 1 535 5
 2562 0032 97000000 		call	LITE_syslog
 2562      E7800000 
 2563              	.LVL265:
 536:C:/Users/stapi/OneDrive/Desktop/GD32VW553/V1_MQTT_OK/GD32VW55X_Wifi_BLE_SDK/GD32VW55x_RELEASE_V1.0.2/MSDK/cloud/alicloud/src/protocol/alcs\alcs_api.c ****         return ALCS_ERR_INVALID_PARAM;
 2564              		.loc 1 536 5 is_stmt 1
 536:C:/Users/stapi/OneDrive/Desktop/GD32VW553/V1_MQTT_OK/GD32VW55X_Wifi_BLE_SDK/GD32VW55x_RELEASE_V1.0.2/MSDK/cloud/alicloud/src/protocol/alcs\alcs_api.c ****         return ALCS_ERR_INVALID_PARAM;
 2565              		.loc 1 536 8 is_stmt 0
 2566 003a 630C0B24 		beq	s6,zero,.L204
 536:C:/Users/stapi/OneDrive/Desktop/GD32VW553/V1_MQTT_OK/GD32VW55X_Wifi_BLE_SDK/GD32VW55x_RELEASE_V1.0.2/MSDK/cloud/alicloud/src/protocol/alcs\alcs_api.c ****         return ALCS_ERR_INVALID_PARAM;
 2567              		.loc 1 536 14 discriminator 1
 2568 003e 630A0C24 		beq	s8,zero,.L204
 536:C:/Users/stapi/OneDrive/Desktop/GD32VW553/V1_MQTT_OK/GD32VW55X_Wifi_BLE_SDK/GD32VW55x_RELEASE_V1.0.2/MSDK/cloud/alicloud/src/protocol/alcs\alcs_api.c ****         return ALCS_ERR_INVALID_PARAM;
 2569              		.loc 1 536 25 discriminator 2
 2570 0042 63080424 		beq	s0,zero,.L204
 539:C:/Users/stapi/OneDrive/Desktop/GD32VW553/V1_MQTT_OK/GD32VW55X_Wifi_BLE_SDK/GD32VW55x_RELEASE_V1.0.2/MSDK/cloud/alicloud/src/protocol/alcs\alcs_api.c ****     if (!req) {
 2571              		.loc 1 539 5 is_stmt 1
 2572              	.LBB99:
 2573              	.LBB100:
 166:C:/Users/stapi/OneDrive/Desktop/GD32VW553/V1_MQTT_OK/GD32VW55X_Wifi_BLE_SDK/GD32VW55x_RELEASE_V1.0.2/MSDK/cloud/alicloud/src/protocol/alcs\alcs_api.c **** 
 2574              		.loc 1 166 5 is_stmt 0
 2575 0046 B7040000 		lui	s1,%hi(.LANCHOR0)
 2576 004a 13890400 		addi	s2,s1,%lo(.LANCHOR0)
 2577              	.LBE100:
 2578              	.LBE99:
 539:C:/Users/stapi/OneDrive/Desktop/GD32VW553/V1_MQTT_OK/GD32VW55X_Wifi_BLE_SDK/GD32VW55x_RELEASE_V1.0.2/MSDK/cloud/alicloud/src/protocol/alcs\alcs_api.c ****     if (!req) {
 2579              		.loc 1 539 11
 2580 004e 83A74A00 		lw	a5,4(s5)
 2581              	.LBB106:
 2582              	.LBB101:
 166:C:/Users/stapi/OneDrive/Desktop/GD32VW553/V1_MQTT_OK/GD32VW55X_Wifi_BLE_SDK/GD32VW55x_RELEASE_V1.0.2/MSDK/cloud/alicloud/src/protocol/alcs\alcs_api.c **** 
 2583              		.loc 1 166 5
 2584 0052 03258900 		lw	a0,8(s2)
 2585              	.LBE101:
 2586              	.LBE106:
 539:C:/Users/stapi/OneDrive/Desktop/GD32VW553/V1_MQTT_OK/GD32VW55X_Wifi_BLE_SDK/GD32VW55x_RELEASE_V1.0.2/MSDK/cloud/alicloud/src/protocol/alcs\alcs_api.c ****     if (!req) {
 2587              		.loc 1 539 11
 2588 0056 83AD0A00 		lw	s11,0(s5)
 2589              	.LVL266:
 2590              	.LBB107:
 2591              	.LBB102:
 165:C:/Users/stapi/OneDrive/Desktop/GD32VW553/V1_MQTT_OK/GD32VW55X_Wifi_BLE_SDK/GD32VW55x_RELEASE_V1.0.2/MSDK/cloud/alicloud/src/protocol/alcs\alcs_api.c ****     HAL_MutexLock(dev_lst->list_mutex);
 2592              		.loc 1 165 5 is_stmt 1
 166:C:/Users/stapi/OneDrive/Desktop/GD32VW553/V1_MQTT_OK/GD32VW55X_Wifi_BLE_SDK/GD32VW55x_RELEASE_V1.0.2/MSDK/cloud/alicloud/src/protocol/alcs\alcs_api.c **** 
 2593              		.loc 1 166 5
 2594              	.LBE102:
 2595              	.LBE107:
 539:C:/Users/stapi/OneDrive/Desktop/GD32VW553/V1_MQTT_OK/GD32VW55X_Wifi_BLE_SDK/GD32VW55x_RELEASE_V1.0.2/MSDK/cloud/alicloud/src/protocol/alcs\alcs_api.c ****     if (!req) {
 2596              		.loc 1 539 11 is_stmt 0
 2597 005a 3EC6     		sw	a5,12(sp)
 2598              	.LVL267:
 2599              	.LBB108:
 2600              	.LBB103:
 166:C:/Users/stapi/OneDrive/Desktop/GD32VW553/V1_MQTT_OK/GD32VW55X_Wifi_BLE_SDK/GD32VW55x_RELEASE_V1.0.2/MSDK/cloud/alicloud/src/protocol/alcs\alcs_api.c **** 
 2601              		.loc 1 166 5
 2602 005c 97000000 		call	HAL_MutexLock
 2602      E7800000 
 2603              	.LVL268:
 168:C:/Users/stapi/OneDrive/Desktop/GD32VW553/V1_MQTT_OK/GD32VW55X_Wifi_BLE_SDK/GD32VW55x_RELEASE_V1.0.2/MSDK/cloud/alicloud/src/protocol/alcs\alcs_api.c ****     list_for_each_entry_safe(node, next, &dev_lst->lst_requests, lst, request_item) {
 2604              		.loc 1 168 5 is_stmt 1
 169:C:/Users/stapi/OneDrive/Desktop/GD32VW553/V1_MQTT_OK/GD32VW55X_Wifi_BLE_SDK/GD32VW55x_RELEASE_V1.0.2/MSDK/cloud/alicloud/src/protocol/alcs\alcs_api.c ****         if (is_networkadd_same(addr, &node->addr)
 2605              		.loc 1 169 5
 2606 0064 83278902 		lw	a5,40(s2)
 2607 0068 93840400 		addi	s1,s1,%lo(.LANCHOR0)
 2608 006c 138947FD 		addi	s2,a5,-44
 2609              	.LVL269:
 2610 0070 DC43     		lw	a5,4(a5)
 2611 0072 138D47FD 		addi	s10,a5,-44
 2612              	.LVL270:
 2613              	.L189:
 169:C:/Users/stapi/OneDrive/Desktop/GD32VW553/V1_MQTT_OK/GD32VW55X_Wifi_BLE_SDK/GD32VW55x_RELEASE_V1.0.2/MSDK/cloud/alicloud/src/protocol/alcs\alcs_api.c ****         if (is_networkadd_same(addr, &node->addr)
 2614              		.loc 1 169 5
 2615 0076 B7070000 		lui	a5,%hi(.LANCHOR0+36)
 2616 007a 1307C902 		addi	a4,s2,44
 2617 007e 93874702 		addi	a5,a5,%lo(.LANCHOR0+36)
 2618 0082 631EF702 		bne	a4,a5,.L193
 178:C:/Users/stapi/OneDrive/Desktop/GD32VW553/V1_MQTT_OK/GD32VW55X_Wifi_BLE_SDK/GD32VW55x_RELEASE_V1.0.2/MSDK/cloud/alicloud/src/protocol/alcs\alcs_api.c ****     return NULL;
 2619              		.loc 1 178 5
 2620 0086 8844     		lw	a0,8(s1)
 2621 0088 97000000 		call	HAL_MutexUnlock
 2621      E7800000 
 2622              	.LVL271:
 179:C:/Users/stapi/OneDrive/Desktop/GD32VW553/V1_MQTT_OK/GD32VW55X_Wifi_BLE_SDK/GD32VW55x_RELEASE_V1.0.2/MSDK/cloud/alicloud/src/protocol/alcs\alcs_api.c **** }
 2623              		.loc 1 179 5
 2624              	.LBE103:
 2625              	.LBE108:
 540:C:/Users/stapi/OneDrive/Desktop/GD32VW553/V1_MQTT_OK/GD32VW55X_Wifi_BLE_SDK/GD32VW55x_RELEASE_V1.0.2/MSDK/cloud/alicloud/src/protocol/alcs\alcs_api.c ****         COAP_DEBUG("request is expired");
 2626              		.loc 1 540 5
 541:C:/Users/stapi/OneDrive/Desktop/GD32VW553/V1_MQTT_OK/GD32VW55X_Wifi_BLE_SDK/GD32VW55x_RELEASE_V1.0.2/MSDK/cloud/alicloud/src/protocol/alcs\alcs_api.c ****         return ALCS_ERR_AUTH_UNAUTH;
 2627              		.loc 1 541 9
 2628 0090 37070000 		lui	a4,%hi(.LC28)
 2629 0094 13070700 		addi	a4,a4,%lo(.LC28)
 2630 0098 9546     		li	a3,5
 2631 009a 1306D021 		li	a2,541
 2632              	.LVL272:
 2633              	.L210:
 2634              	.LBB109:
 565:C:/Users/stapi/OneDrive/Desktop/GD32VW553/V1_MQTT_OK/GD32VW55X_Wifi_BLE_SDK/GD32VW55x_RELEASE_V1.0.2/MSDK/cloud/alicloud/src/protocol/alcs\alcs_api.c ****             return ALCS_ERR_AUTH_UNAUTH;
 2635              		.loc 1 565 13 is_stmt 0
 2636 009e 93050A00 		addi	a1,s4,%lo(.LANCHOR10)
 2637 00a2 13850900 		addi	a0,s3,%lo(.LC6)
 2638 00a6 97000000 		call	LITE_syslog
 2638      E7800000 
 2639              	.LVL273:
 566:C:/Users/stapi/OneDrive/Desktop/GD32VW553/V1_MQTT_OK/GD32VW55X_Wifi_BLE_SDK/GD32VW55x_RELEASE_V1.0.2/MSDK/cloud/alicloud/src/protocol/alcs\alcs_api.c ****         }
 2640              		.loc 1 566 13 is_stmt 1
 566:C:/Users/stapi/OneDrive/Desktop/GD32VW553/V1_MQTT_OK/GD32VW55X_Wifi_BLE_SDK/GD32VW55x_RELEASE_V1.0.2/MSDK/cloud/alicloud/src/protocol/alcs\alcs_api.c ****         }
 2641              		.loc 1 566 20 is_stmt 0
 2642 00ae 13047016 		li	s0,359
 2643              	.LVL274:
 2644              	.L187:
 2645              	.LBE109:
 578:C:/Users/stapi/OneDrive/Desktop/GD32VW553/V1_MQTT_OK/GD32VW55X_Wifi_BLE_SDK/GD32VW55x_RELEASE_V1.0.2/MSDK/cloud/alicloud/src/protocol/alcs\alcs_api.c **** 
 2646              		.loc 1 578 1
 2647 00b2 2285     		mv	a0,s0
 2648 00b4 0561     		addi	sp,sp,32
 2649              		.cfi_remember_state
 2650              		.cfi_def_cfa_offset 0
 2651 00b6 17030000 		tail	__riscv_restore_12
 2651      67000300 
 2652              		.cfi_restore 27
 2653              		.cfi_restore 26
 2654              		.cfi_restore 25
 2655              		.cfi_restore 24
 2656              		.cfi_restore 23
 2657              		.cfi_restore 22
 2658              		.cfi_restore 21
 2659              		.cfi_restore 20
 2660              		.cfi_restore 19
 2661              		.cfi_restore 18
 2662              		.cfi_restore 9
 2663              		.cfi_restore 8
 2664              		.cfi_restore 1
 2665              		.cfi_def_cfa_offset -64
 2666              	.LVL275:
 2667              	.L193:
 2668              		.cfi_restore_state
 2669              	.LBB120:
 2670              	.LBB104:
 170:C:/Users/stapi/OneDrive/Desktop/GD32VW553/V1_MQTT_OK/GD32VW55X_Wifi_BLE_SDK/GD32VW55x_RELEASE_V1.0.2/MSDK/cloud/alicloud/src/protocol/alcs\alcs_api.c ****                 && memcmp(node->token, token, tokenlen) == 0)
 2671              		.loc 1 170 9 is_stmt 1
 170:C:/Users/stapi/OneDrive/Desktop/GD32VW553/V1_MQTT_OK/GD32VW55X_Wifi_BLE_SDK/GD32VW55x_RELEASE_V1.0.2/MSDK/cloud/alicloud/src/protocol/alcs\alcs_api.c ****                 && memcmp(node->token, token, tokenlen) == 0)
 2672              		.loc 1 170 13 is_stmt 0
 2673 00be 930C8901 		addi	s9,s2,24
 2674 00c2 E685     		mv	a1,s9
 2675 00c4 6285     		mv	a0,s8
 2676 00c6 97000000 		call	is_networkadd_same
 2676      E7800000 
 2677              	.LVL276:
 170:C:/Users/stapi/OneDrive/Desktop/GD32VW553/V1_MQTT_OK/GD32VW55X_Wifi_BLE_SDK/GD32VW55x_RELEASE_V1.0.2/MSDK/cloud/alicloud/src/protocol/alcs\alcs_api.c ****                 && memcmp(node->token, token, tokenlen) == 0)
 2678              		.loc 1 170 12
 2679 00ce 75C1     		beq	a0,zero,.L190
 171:C:/Users/stapi/OneDrive/Desktop/GD32VW553/V1_MQTT_OK/GD32VW55X_Wifi_BLE_SDK/GD32VW55x_RELEASE_V1.0.2/MSDK/cloud/alicloud/src/protocol/alcs\alcs_api.c ****         {
 2680              		.loc 1 171 20
 2681 00d0 B245     		lw	a1,12(sp)
 2682 00d2 6E86     		mv	a2,s11
 2683 00d4 4A85     		mv	a0,s2
 2684 00d6 97000000 		call	memcmp
 2684      E7800000 
 2685              	.LVL277:
 171:C:/Users/stapi/OneDrive/Desktop/GD32VW553/V1_MQTT_OK/GD32VW55X_Wifi_BLE_SDK/GD32VW55x_RELEASE_V1.0.2/MSDK/cloud/alicloud/src/protocol/alcs\alcs_api.c ****         {
 2686              		.loc 1 171 17
 2687 00de 71E9     		bne	a0,zero,.L190
 173:C:/Users/stapi/OneDrive/Desktop/GD32VW553/V1_MQTT_OK/GD32VW55X_Wifi_BLE_SDK/GD32VW55x_RELEASE_V1.0.2/MSDK/cloud/alicloud/src/protocol/alcs\alcs_api.c ****             HAL_MutexUnlock(dev_lst->list_mutex);
 2688              		.loc 1 173 13 is_stmt 1
 2689 00e0 83278900 		lw	a5,8(s2)
 2690 00e4 37070000 		lui	a4,%hi(.LC27)
 2691 00e8 B7050000 		lui	a1,%hi(.LANCHOR11)
 2692 00ec 13850900 		addi	a0,s3,%lo(.LC6)
 2693 00f0 13070700 		addi	a4,a4,%lo(.LC27)
 2694 00f4 9546     		li	a3,5
 2695 00f6 1306D00A 		li	a2,173
 2696 00fa 93850500 		addi	a1,a1,%lo(.LANCHOR11)
 2697 00fe 0308C900 		lb	a6,12(s2)
 2698 0102 97000000 		call	LITE_syslog
 2698      E7800000 
 2699              	.LVL278:
 174:C:/Users/stapi/OneDrive/Desktop/GD32VW553/V1_MQTT_OK/GD32VW55X_Wifi_BLE_SDK/GD32VW55x_RELEASE_V1.0.2/MSDK/cloud/alicloud/src/protocol/alcs\alcs_api.c ****             return node;
 2700              		.loc 1 174 13
 2701 010a 8844     		lw	a0,8(s1)
 2702 010c 97000000 		call	HAL_MutexUnlock
 2702      E7800000 
 2703              	.LVL279:
 175:C:/Users/stapi/OneDrive/Desktop/GD32VW553/V1_MQTT_OK/GD32VW55X_Wifi_BLE_SDK/GD32VW55x_RELEASE_V1.0.2/MSDK/cloud/alicloud/src/protocol/alcs\alcs_api.c ****         }
 2704              		.loc 1 175 13
 2705              	.LBE104:
 2706              	.LBE120:
 540:C:/Users/stapi/OneDrive/Desktop/GD32VW553/V1_MQTT_OK/GD32VW55X_Wifi_BLE_SDK/GD32VW55x_RELEASE_V1.0.2/MSDK/cloud/alicloud/src/protocol/alcs\alcs_api.c ****         COAP_DEBUG("request is expired");
 2707              		.loc 1 540 5
 546:C:/Users/stapi/OneDrive/Desktop/GD32VW553/V1_MQTT_OK/GD32VW55X_Wifi_BLE_SDK/GD32VW55x_RELEASE_V1.0.2/MSDK/cloud/alicloud/src/protocol/alcs\alcs_api.c ****         message->header.msgid = CoAPMessageId_gen(ctx);
 2708              		.loc 1 546 5
 546:C:/Users/stapi/OneDrive/Desktop/GD32VW553/V1_MQTT_OK/GD32VW55X_Wifi_BLE_SDK/GD32VW55x_RELEASE_V1.0.2/MSDK/cloud/alicloud/src/protocol/alcs\alcs_api.c ****         message->header.msgid = CoAPMessageId_gen(ctx);
 2709              		.loc 1 546 8 is_stmt 0
 2710 0114 63950B0A 		bne	s7,zero,.L208
 547:C:/Users/stapi/OneDrive/Desktop/GD32VW553/V1_MQTT_OK/GD32VW55X_Wifi_BLE_SDK/GD32VW55x_RELEASE_V1.0.2/MSDK/cloud/alicloud/src/protocol/alcs\alcs_api.c ****     } else {
 2711              		.loc 1 547 9 is_stmt 1
 547:C:/Users/stapi/OneDrive/Desktop/GD32VW553/V1_MQTT_OK/GD32VW55X_Wifi_BLE_SDK/GD32VW55x_RELEASE_V1.0.2/MSDK/cloud/alicloud/src/protocol/alcs\alcs_api.c ****     } else {
 2712              		.loc 1 547 33 is_stmt 0
 2713 0118 5A85     		mv	a0,s6
 2714 011a 97000000 		call	CoAPMessageId_gen
 2714      E7800000 
 2715              	.LVL280:
 547:C:/Users/stapi/OneDrive/Desktop/GD32VW553/V1_MQTT_OK/GD32VW55X_Wifi_BLE_SDK/GD32VW55x_RELEASE_V1.0.2/MSDK/cloud/alicloud/src/protocol/alcs\alcs_api.c ****     } else {
 2716              		.loc 1 547 31
 2717 0122 2311A400 		sh	a0,2(s0)
 2718              	.L194:
 551:C:/Users/stapi/OneDrive/Desktop/GD32VW553/V1_MQTT_OK/GD32VW55X_Wifi_BLE_SDK/GD32VW55x_RELEASE_V1.0.2/MSDK/cloud/alicloud/src/protocol/alcs\alcs_api.c ****     memcpy (&message->token, token->data, token->len);
 2719              		.loc 1 551 5 is_stmt 1
 551:C:/Users/stapi/OneDrive/Desktop/GD32VW553/V1_MQTT_OK/GD32VW55X_Wifi_BLE_SDK/GD32VW55x_RELEASE_V1.0.2/MSDK/cloud/alicloud/src/protocol/alcs\alcs_api.c ****     memcpy (&message->token, token->data, token->len);
 2720              		.loc 1 551 37 is_stmt 0
 2721 0126 03A60A00 		lw	a2,0(s5)
 551:C:/Users/stapi/OneDrive/Desktop/GD32VW553/V1_MQTT_OK/GD32VW55X_Wifi_BLE_SDK/GD32VW55x_RELEASE_V1.0.2/MSDK/cloud/alicloud/src/protocol/alcs\alcs_api.c ****     memcpy (&message->token, token->data, token->len);
 2722              		.loc 1 551 30
 2723 012a 83470400 		lbu	a5,0(s0)
 552:C:/Users/stapi/OneDrive/Desktop/GD32VW553/V1_MQTT_OK/GD32VW55X_Wifi_BLE_SDK/GD32VW55x_RELEASE_V1.0.2/MSDK/cloud/alicloud/src/protocol/alcs\alcs_api.c **** 
 2724              		.loc 1 552 5
 2725 012e 83A54A00 		lw	a1,4(s5)
 551:C:/Users/stapi/OneDrive/Desktop/GD32VW553/V1_MQTT_OK/GD32VW55X_Wifi_BLE_SDK/GD32VW55x_RELEASE_V1.0.2/MSDK/cloud/alicloud/src/protocol/alcs\alcs_api.c ****     memcpy (&message->token, token->data, token->len);
 2726              		.loc 1 551 30
 2727 0132 13174600 		slli	a4,a2,4
 2728 0136 BD8B     		andi	a5,a5,15
 2729 0138 D98F     		or	a5,a5,a4
 2730 013a 2300F400 		sb	a5,0(s0)
 552:C:/Users/stapi/OneDrive/Desktop/GD32VW553/V1_MQTT_OK/GD32VW55X_Wifi_BLE_SDK/GD32VW55x_RELEASE_V1.0.2/MSDK/cloud/alicloud/src/protocol/alcs\alcs_api.c **** 
 2731              		.loc 1 552 5 is_stmt 1
 2732 013e 13054400 		addi	a0,s0,4
 2733 0142 97000000 		call	memcpy
 2733      E7800000 
 2734              	.LVL281:
 554:C:/Users/stapi/OneDrive/Desktop/GD32VW553/V1_MQTT_OK/GD32VW55X_Wifi_BLE_SDK/GD32VW55x_RELEASE_V1.0.2/MSDK/cloud/alicloud/src/protocol/alcs\alcs_api.c ****         CoAPUintOption_add (message, COAP_OPTION_OBSERVE, req->observe);
 2735              		.loc 1 554 5
 554:C:/Users/stapi/OneDrive/Desktop/GD32VW553/V1_MQTT_OK/GD32VW55X_Wifi_BLE_SDK/GD32VW55x_RELEASE_V1.0.2/MSDK/cloud/alicloud/src/protocol/alcs\alcs_api.c ****         CoAPUintOption_add (message, COAP_OPTION_OBSERVE, req->observe);
 2736              		.loc 1 554 8 is_stmt 0
 2737 014a 8307D900 		lb	a5,13(s2)
 2738 014e 81EB     		bne	a5,zero,.L195
 555:C:/Users/stapi/OneDrive/Desktop/GD32VW553/V1_MQTT_OK/GD32VW55X_Wifi_BLE_SDK/GD32VW55x_RELEASE_V1.0.2/MSDK/cloud/alicloud/src/protocol/alcs\alcs_api.c ****     }
 2739              		.loc 1 555 9 is_stmt 1
 2740 0150 0146     		li	a2,0
 2741 0152 9945     		li	a1,6
 2742 0154 2285     		mv	a0,s0
 2743 0156 97000000 		call	CoAPUintOption_add
 2743      E7800000 
 2744              	.LVL282:
 2745              	.L195:
 557:C:/Users/stapi/OneDrive/Desktop/GD32VW553/V1_MQTT_OK/GD32VW55X_Wifi_BLE_SDK/GD32VW55x_RELEASE_V1.0.2/MSDK/cloud/alicloud/src/protocol/alcs\alcs_api.c ****     
 2746              		.loc 1 557 5
 2747 015e 1306A002 		li	a2,42
 2748 0162 B145     		li	a1,12
 2749 0164 2285     		mv	a0,s0
 2750 0166 97000000 		call	CoAPUintOption_add
 2750      E7800000 
 2751              	.LVL283:
 559:C:/Users/stapi/OneDrive/Desktop/GD32VW553/V1_MQTT_OK/GD32VW55X_Wifi_BLE_SDK/GD32VW55x_RELEASE_V1.0.2/MSDK/cloud/alicloud/src/protocol/alcs\alcs_api.c ****         COAP_DEBUG("alcs_sendrsp_secure, send group rsp");
 2752              		.loc 1 559 5
 559:C:/Users/stapi/OneDrive/Desktop/GD32VW553/V1_MQTT_OK/GD32VW55X_Wifi_BLE_SDK/GD32VW55x_RELEASE_V1.0.2/MSDK/cloud/alicloud/src/protocol/alcs\alcs_api.c ****         COAP_DEBUG("alcs_sendrsp_secure, send group rsp");
 2753              		.loc 1 559 8 is_stmt 0
 2754 016e 8307C900 		lb	a5,12(s2)
 2755 0172 A9CB     		beq	a5,zero,.L196
 560:C:/Users/stapi/OneDrive/Desktop/GD32VW553/V1_MQTT_OK/GD32VW55X_Wifi_BLE_SDK/GD32VW55x_RELEASE_V1.0.2/MSDK/cloud/alicloud/src/protocol/alcs\alcs_api.c ****         encrypt_key = req->groupKey;
 2756              		.loc 1 560 9 is_stmt 1
 2757 0174 37070000 		lui	a4,%hi(.LC29)
 2758 0178 9546     		li	a3,5
 2759 017a 13070700 		addi	a4,a4,%lo(.LC29)
 2760 017e 13060023 		li	a2,560
 2761 0182 93050A00 		addi	a1,s4,%lo(.LANCHOR10)
 2762 0186 13850900 		addi	a0,s3,%lo(.LC6)
 2763 018a 97000000 		call	LITE_syslog
 2763      E7800000 
 2764              	.LVL284:
 561:C:/Users/stapi/OneDrive/Desktop/GD32VW553/V1_MQTT_OK/GD32VW55X_Wifi_BLE_SDK/GD32VW55x_RELEASE_V1.0.2/MSDK/cloud/alicloud/src/protocol/alcs\alcs_api.c ****     } else {
 2765              		.loc 1 561 9
 561:C:/Users/stapi/OneDrive/Desktop/GD32VW553/V1_MQTT_OK/GD32VW55X_Wifi_BLE_SDK/GD32VW55x_RELEASE_V1.0.2/MSDK/cloud/alicloud/src/protocol/alcs\alcs_api.c ****     } else {
 2766              		.loc 1 561 21 is_stmt 0
 2767 0192 93068903 		addi	a3,s2,56
 2768              	.LVL285:
 2769              	.L197:
 575:C:/Users/stapi/OneDrive/Desktop/GD32VW553/V1_MQTT_OK/GD32VW55X_Wifi_BLE_SDK/GD32VW55x_RELEASE_V1.0.2/MSDK/cloud/alicloud/src/protocol/alcs\alcs_api.c ****     remove_request(req);
 2770              		.loc 1 575 5 is_stmt 1
 575:C:/Users/stapi/OneDrive/Desktop/GD32VW553/V1_MQTT_OK/GD32VW55X_Wifi_BLE_SDK/GD32VW55x_RELEASE_V1.0.2/MSDK/cloud/alicloud/src/protocol/alcs\alcs_api.c ****     remove_request(req);
 2771              		.loc 1 575 14 is_stmt 0
 2772 0196 2286     		mv	a2,s0
 2773 0198 E685     		mv	a1,s9
 2774 019a 5A85     		mv	a0,s6
 2775 019c 97000000 		call	do_secure_send
 2775      E7800000 
 2776              	.LVL286:
 2777 01a4 2A84     		mv	s0,a0
 2778              	.LVL287:
 576:C:/Users/stapi/OneDrive/Desktop/GD32VW553/V1_MQTT_OK/GD32VW55X_Wifi_BLE_SDK/GD32VW55x_RELEASE_V1.0.2/MSDK/cloud/alicloud/src/protocol/alcs\alcs_api.c ****     return rt;
 2779              		.loc 1 576 5 is_stmt 1
 2780 01a6 4A85     		mv	a0,s2
 2781 01a8 97000000 		call	remove_request
 2781      E7800000 
 2782              	.LVL288:
 577:C:/Users/stapi/OneDrive/Desktop/GD32VW553/V1_MQTT_OK/GD32VW55X_Wifi_BLE_SDK/GD32VW55x_RELEASE_V1.0.2/MSDK/cloud/alicloud/src/protocol/alcs\alcs_api.c **** }
 2783              		.loc 1 577 5
 577:C:/Users/stapi/OneDrive/Desktop/GD32VW553/V1_MQTT_OK/GD32VW55X_Wifi_BLE_SDK/GD32VW55x_RELEASE_V1.0.2/MSDK/cloud/alicloud/src/protocol/alcs\alcs_api.c **** }
 2784              		.loc 1 577 12 is_stmt 0
 2785 01b0 09B7     		j	.L187
 2786              	.LVL289:
 2787              	.L190:
 2788              	.LBB121:
 2789              	.LBB105:
 169:C:/Users/stapi/OneDrive/Desktop/GD32VW553/V1_MQTT_OK/GD32VW55X_Wifi_BLE_SDK/GD32VW55x_RELEASE_V1.0.2/MSDK/cloud/alicloud/src/protocol/alcs\alcs_api.c ****         if (is_networkadd_same(addr, &node->addr)
 2790              		.loc 1 169 5 is_stmt 1
 2791 01b2 03270D03 		lw	a4,48(s10)
 2792              	.LVL290:
 2793 01b6 6A89     		mv	s2,s10
 2794 01b8 130D47FD 		addi	s10,a4,-44
 2795              	.LVL291:
 2796 01bc 6DBD     		j	.L189
 2797              	.LVL292:
 2798              	.L208:
 2799              	.LBE105:
 2800              	.LBE121:
 549:C:/Users/stapi/OneDrive/Desktop/GD32VW553/V1_MQTT_OK/GD32VW55X_Wifi_BLE_SDK/GD32VW55x_RELEASE_V1.0.2/MSDK/cloud/alicloud/src/protocol/alcs\alcs_api.c ****     }
 2801              		.loc 1 549 9
 549:C:/Users/stapi/OneDrive/Desktop/GD32VW553/V1_MQTT_OK/GD32VW55X_Wifi_BLE_SDK/GD32VW55x_RELEASE_V1.0.2/MSDK/cloud/alicloud/src/protocol/alcs\alcs_api.c ****     }
 2802              		.loc 1 549 31 is_stmt 0
 2803 01be 23117401 		sh	s7,2(s0)
 2804 01c2 95B7     		j	.L194
 2805              	.L196:
 2806              	.LBB122:
 563:C:/Users/stapi/OneDrive/Desktop/GD32VW553/V1_MQTT_OK/GD32VW55X_Wifi_BLE_SDK/GD32VW55x_RELEASE_V1.0.2/MSDK/cloud/alicloud/src/protocol/alcs\alcs_api.c ****         if (!session) {
 2807              		.loc 1 563 9 is_stmt 1
 2808              	.LBB110:
 2809              	.LBB111:
 148:C:/Users/stapi/OneDrive/Desktop/GD32VW553/V1_MQTT_OK/GD32VW55X_Wifi_BLE_SDK/GD32VW55x_RELEASE_V1.0.2/MSDK/cloud/alicloud/src/protocol/alcs\alcs_api.c ****     session_item *node, *next;
 2810              		.loc 1 148 5 is_stmt 0
 2811 01c4 8844     		lw	a0,8(s1)
 2812              	.LBE111:
 2813              	.LBE110:
 563:C:/Users/stapi/OneDrive/Desktop/GD32VW553/V1_MQTT_OK/GD32VW55X_Wifi_BLE_SDK/GD32VW55x_RELEASE_V1.0.2/MSDK/cloud/alicloud/src/protocol/alcs\alcs_api.c ****         if (!session) {
 2814              		.loc 1 563 33
 2815 01c6 832B8900 		lw	s7,8(s2)
 2816              	.LVL293:
 2817              	.LBB116:
 2818              	.LBB112:
 147:C:/Users/stapi/OneDrive/Desktop/GD32VW553/V1_MQTT_OK/GD32VW55X_Wifi_BLE_SDK/GD32VW55x_RELEASE_V1.0.2/MSDK/cloud/alicloud/src/protocol/alcs\alcs_api.c ****     HAL_MutexLock(dev_lst->list_mutex);
 2819              		.loc 1 147 5 is_stmt 1
 148:C:/Users/stapi/OneDrive/Desktop/GD32VW553/V1_MQTT_OK/GD32VW55X_Wifi_BLE_SDK/GD32VW55x_RELEASE_V1.0.2/MSDK/cloud/alicloud/src/protocol/alcs\alcs_api.c ****     session_item *node, *next;
 2820              		.loc 1 148 5
 2821 01ca 97000000 		call	HAL_MutexLock
 2821      E7800000 
 2822              	.LVL294:
 149:C:/Users/stapi/OneDrive/Desktop/GD32VW553/V1_MQTT_OK/GD32VW55X_Wifi_BLE_SDK/GD32VW55x_RELEASE_V1.0.2/MSDK/cloud/alicloud/src/protocol/alcs\alcs_api.c ****     struct list_head* sessions = get_svr_session_list();
 2823              		.loc 1 149 5
 150:C:/Users/stapi/OneDrive/Desktop/GD32VW553/V1_MQTT_OK/GD32VW55X_Wifi_BLE_SDK/GD32VW55x_RELEASE_V1.0.2/MSDK/cloud/alicloud/src/protocol/alcs\alcs_api.c ****     list_for_each_entry_safe(node, next, sessions, lst, session_item) {
 2824              		.loc 1 150 5
 150:C:/Users/stapi/OneDrive/Desktop/GD32VW553/V1_MQTT_OK/GD32VW55X_Wifi_BLE_SDK/GD32VW55x_RELEASE_V1.0.2/MSDK/cloud/alicloud/src/protocol/alcs\alcs_api.c ****     list_for_each_entry_safe(node, next, sessions, lst, session_item) {
 2825              		.loc 1 150 34 is_stmt 0
 2826 01d2 83C7C402 		lbu	a5,44(s1)
 2827 01d6 898B     		andi	a5,a5,2
 2828 01d8 E1C3     		beq	a5,zero,.L198
 2829              	.LVL295:
 151:C:/Users/stapi/OneDrive/Desktop/GD32VW553/V1_MQTT_OK/GD32VW55X_Wifi_BLE_SDK/GD32VW55x_RELEASE_V1.0.2/MSDK/cloud/alicloud/src/protocol/alcs\alcs_api.c ****         if (node->sessionId == id) {
 2830              		.loc 1 151 5 is_stmt 1
 2831 01da 9C50     		lw	a5,32(s1)
 2832 01dc 1387C401 		addi	a4,s1,28
 2833 01e0 938A47F4 		addi	s5,a5,-188
 2834              	.LVL296:
 2835 01e4 DC43     		lw	a5,4(a5)
 2836 01e6 938747F4 		addi	a5,a5,-188
 2837              	.LVL297:
 2838              	.L199:
 151:C:/Users/stapi/OneDrive/Desktop/GD32VW553/V1_MQTT_OK/GD32VW55X_Wifi_BLE_SDK/GD32VW55x_RELEASE_V1.0.2/MSDK/cloud/alicloud/src/protocol/alcs\alcs_api.c ****         if (node->sessionId == id) {
 2839              		.loc 1 151 5
 2840 01ea 9386CA0B 		addi	a3,s5,188
 2841 01ee 639FE600 		bne	a3,a4,.L201
 158:C:/Users/stapi/OneDrive/Desktop/GD32VW553/V1_MQTT_OK/GD32VW55X_Wifi_BLE_SDK/GD32VW55x_RELEASE_V1.0.2/MSDK/cloud/alicloud/src/protocol/alcs\alcs_api.c ****     
 2842              		.loc 1 158 5
 2843 01f2 8844     		lw	a0,8(s1)
 2844 01f4 97000000 		call	HAL_MutexUnlock
 2844      E7800000 
 2845              	.LVL298:
 160:C:/Users/stapi/OneDrive/Desktop/GD32VW553/V1_MQTT_OK/GD32VW55X_Wifi_BLE_SDK/GD32VW55x_RELEASE_V1.0.2/MSDK/cloud/alicloud/src/protocol/alcs\alcs_api.c **** }
 2846              		.loc 1 160 5
 2847              	.LBE112:
 2848              	.LBE116:
 564:C:/Users/stapi/OneDrive/Desktop/GD32VW553/V1_MQTT_OK/GD32VW55X_Wifi_BLE_SDK/GD32VW55x_RELEASE_V1.0.2/MSDK/cloud/alicloud/src/protocol/alcs\alcs_api.c ****             COAP_DEBUG("alcs_sendrsp_secure, session not found");
 2849              		.loc 1 564 9
 565:C:/Users/stapi/OneDrive/Desktop/GD32VW553/V1_MQTT_OK/GD32VW55X_Wifi_BLE_SDK/GD32VW55x_RELEASE_V1.0.2/MSDK/cloud/alicloud/src/protocol/alcs\alcs_api.c ****             return ALCS_ERR_AUTH_UNAUTH;
 2850              		.loc 1 565 13
 2851 01fc 37070000 		lui	a4,%hi(.LC32)
 2852 0200 13070700 		addi	a4,a4,%lo(.LC32)
 2853 0204 9546     		li	a3,5
 2854 0206 13065023 		li	a2,565
 2855 020a 51BD     		j	.L210
 2856              	.LVL299:
 2857              	.L201:
 2858              	.LBB117:
 2859              	.LBB113:
 152:C:/Users/stapi/OneDrive/Desktop/GD32VW553/V1_MQTT_OK/GD32VW55X_Wifi_BLE_SDK/GD32VW55x_RELEASE_V1.0.2/MSDK/cloud/alicloud/src/protocol/alcs\alcs_api.c ****             COAP_DEBUG("get_session_by_id, find");
 2860              		.loc 1 152 9
 152:C:/Users/stapi/OneDrive/Desktop/GD32VW553/V1_MQTT_OK/GD32VW55X_Wifi_BLE_SDK/GD32VW55x_RELEASE_V1.0.2/MSDK/cloud/alicloud/src/protocol/alcs\alcs_api.c ****             COAP_DEBUG("get_session_by_id, find");
 2861              		.loc 1 152 12 is_stmt 0
 2862 020c 83A60A00 		lw	a3,0(s5)
 2863 0210 639BDB06 		bne	s7,a3,.L200
 153:C:/Users/stapi/OneDrive/Desktop/GD32VW553/V1_MQTT_OK/GD32VW55X_Wifi_BLE_SDK/GD32VW55x_RELEASE_V1.0.2/MSDK/cloud/alicloud/src/protocol/alcs\alcs_api.c ****             HAL_MutexUnlock(dev_lst->list_mutex);
 2864              		.loc 1 153 13 is_stmt 1
 2865 0214 37070000 		lui	a4,%hi(.LC30)
 2866 0218 B7050000 		lui	a1,%hi(.LANCHOR12)
 2867 021c 13070700 		addi	a4,a4,%lo(.LC30)
 2868 0220 9546     		li	a3,5
 2869 0222 13069009 		li	a2,153
 2870 0226 93850500 		addi	a1,a1,%lo(.LANCHOR12)
 2871 022a 13850900 		addi	a0,s3,%lo(.LC6)
 2872 022e 97000000 		call	LITE_syslog
 2872      E7800000 
 2873              	.LVL300:
 154:C:/Users/stapi/OneDrive/Desktop/GD32VW553/V1_MQTT_OK/GD32VW55X_Wifi_BLE_SDK/GD32VW55x_RELEASE_V1.0.2/MSDK/cloud/alicloud/src/protocol/alcs\alcs_api.c ****             return node;
 2874              		.loc 1 154 13
 2875 0236 8844     		lw	a0,8(s1)
 2876 0238 97000000 		call	HAL_MutexUnlock
 2876      E7800000 
 2877              	.LVL301:
 155:C:/Users/stapi/OneDrive/Desktop/GD32VW553/V1_MQTT_OK/GD32VW55X_Wifi_BLE_SDK/GD32VW55x_RELEASE_V1.0.2/MSDK/cloud/alicloud/src/protocol/alcs\alcs_api.c ****         }
 2878              		.loc 1 155 13
 2879              	.LBE113:
 2880              	.LBE117:
 564:C:/Users/stapi/OneDrive/Desktop/GD32VW553/V1_MQTT_OK/GD32VW55X_Wifi_BLE_SDK/GD32VW55x_RELEASE_V1.0.2/MSDK/cloud/alicloud/src/protocol/alcs\alcs_api.c ****             COAP_DEBUG("alcs_sendrsp_secure, session not found");
 2881              		.loc 1 564 9
 569:C:/Users/stapi/OneDrive/Desktop/GD32VW553/V1_MQTT_OK/GD32VW55X_Wifi_BLE_SDK/GD32VW55x_RELEASE_V1.0.2/MSDK/cloud/alicloud/src/protocol/alcs\alcs_api.c ****         add_message_sessionid (message, session->sessionId, session->opt, &payload);
 2882              		.loc 1 569 9
 569:C:/Users/stapi/OneDrive/Desktop/GD32VW553/V1_MQTT_OK/GD32VW55X_Wifi_BLE_SDK/GD32VW55x_RELEASE_V1.0.2/MSDK/cloud/alicloud/src/protocol/alcs\alcs_api.c ****         add_message_sessionid (message, session->sessionId, session->opt, &payload);
 2883              		.loc 1 569 41 is_stmt 0
 2884 0240 8357E406 		lhu	a5,110(s0)
 570:C:/Users/stapi/OneDrive/Desktop/GD32VW553/V1_MQTT_OK/GD32VW55X_Wifi_BLE_SDK/GD32VW55x_RELEASE_V1.0.2/MSDK/cloud/alicloud/src/protocol/alcs\alcs_api.c ****         COAP_DEBUG("alcs_sendrsp_secure sessionId:%d", session->sessionId);
 2885              		.loc 1 570 9
 2886 0244 03A68A0B 		lw	a2,184(s5)
 2887 0248 83A50A00 		lw	a1,0(s5)
 569:C:/Users/stapi/OneDrive/Desktop/GD32VW553/V1_MQTT_OK/GD32VW55X_Wifi_BLE_SDK/GD32VW55x_RELEASE_V1.0.2/MSDK/cloud/alicloud/src/protocol/alcs\alcs_api.c ****         add_message_sessionid (message, session->sessionId, session->opt, &payload);
 2888              		.loc 1 569 41
 2889 024c 3ECC     		sw	a5,24(sp)
 569:C:/Users/stapi/OneDrive/Desktop/GD32VW553/V1_MQTT_OK/GD32VW55X_Wifi_BLE_SDK/GD32VW55x_RELEASE_V1.0.2/MSDK/cloud/alicloud/src/protocol/alcs\alcs_api.c ****         add_message_sessionid (message, session->sessionId, session->opt, &payload);
 2890              		.loc 1 569 23
 2891 024e 3C58     		lw	a5,112(s0)
 570:C:/Users/stapi/OneDrive/Desktop/GD32VW553/V1_MQTT_OK/GD32VW55X_Wifi_BLE_SDK/GD32VW55x_RELEASE_V1.0.2/MSDK/cloud/alicloud/src/protocol/alcs\alcs_api.c ****         COAP_DEBUG("alcs_sendrsp_secure sessionId:%d", session->sessionId);
 2892              		.loc 1 570 9
 2893 0250 3408     		addi	a3,sp,24
 2894 0252 2285     		mv	a0,s0
 569:C:/Users/stapi/OneDrive/Desktop/GD32VW553/V1_MQTT_OK/GD32VW55X_Wifi_BLE_SDK/GD32VW55x_RELEASE_V1.0.2/MSDK/cloud/alicloud/src/protocol/alcs\alcs_api.c ****         add_message_sessionid (message, session->sessionId, session->opt, &payload);
 2895              		.loc 1 569 23
 2896 0254 3ECE     		sw	a5,28(sp)
 570:C:/Users/stapi/OneDrive/Desktop/GD32VW553/V1_MQTT_OK/GD32VW55X_Wifi_BLE_SDK/GD32VW55x_RELEASE_V1.0.2/MSDK/cloud/alicloud/src/protocol/alcs\alcs_api.c ****         COAP_DEBUG("alcs_sendrsp_secure sessionId:%d", session->sessionId);
 2897              		.loc 1 570 9 is_stmt 1
 2898 0256 97000000 		call	add_message_sessionid
 2898      E7800000 
 2899              	.LVL302:
 571:C:/Users/stapi/OneDrive/Desktop/GD32VW553/V1_MQTT_OK/GD32VW55X_Wifi_BLE_SDK/GD32VW55x_RELEASE_V1.0.2/MSDK/cloud/alicloud/src/protocol/alcs\alcs_api.c ****         encrypt_key = session->sessionKey;
 2900              		.loc 1 571 9
 2901 025e 83A70A00 		lw	a5,0(s5)
 2902 0262 37070000 		lui	a4,%hi(.LC31)
 2903 0266 9546     		li	a3,5
 2904 0268 13070700 		addi	a4,a4,%lo(.LC31)
 2905 026c 1306B023 		li	a2,571
 2906 0270 93050A00 		addi	a1,s4,%lo(.LANCHOR10)
 2907 0274 13850900 		addi	a0,s3,%lo(.LC6)
 2908 0278 97000000 		call	LITE_syslog
 2908      E7800000 
 2909              	.LVL303:
 572:C:/Users/stapi/OneDrive/Desktop/GD32VW553/V1_MQTT_OK/GD32VW55X_Wifi_BLE_SDK/GD32VW55x_RELEASE_V1.0.2/MSDK/cloud/alicloud/src/protocol/alcs\alcs_api.c ****     }
 2910              		.loc 1 572 9
 572:C:/Users/stapi/OneDrive/Desktop/GD32VW553/V1_MQTT_OK/GD32VW55X_Wifi_BLE_SDK/GD32VW55x_RELEASE_V1.0.2/MSDK/cloud/alicloud/src/protocol/alcs\alcs_api.c ****     }
 2911              		.loc 1 572 21 is_stmt 0
 2912 0280 93865A01 		addi	a3,s5,21
 2913              	.LVL304:
 2914 0284 09BF     		j	.L197
 2915              	.LVL305:
 2916              	.L200:
 2917              	.LBB118:
 2918              	.LBB114:
 151:C:/Users/stapi/OneDrive/Desktop/GD32VW553/V1_MQTT_OK/GD32VW55X_Wifi_BLE_SDK/GD32VW55x_RELEASE_V1.0.2/MSDK/cloud/alicloud/src/protocol/alcs\alcs_api.c ****         if (node->sessionId == id) {
 2919              		.loc 1 151 5 is_stmt 1
 2920 0286 83A6070C 		lw	a3,192(a5)
 2921              	.LVL306:
 2922 028a BE8A     		mv	s5,a5
 2923 028c 938746F4 		addi	a5,a3,-188
 2924              	.LVL307:
 2925 0290 A9BF     		j	.L199
 2926              	.LVL308:
 2927              	.L204:
 2928              	.LBE114:
 2929              	.LBE118:
 2930              	.LBE122:
 537:C:/Users/stapi/OneDrive/Desktop/GD32VW553/V1_MQTT_OK/GD32VW55X_Wifi_BLE_SDK/GD32VW55x_RELEASE_V1.0.2/MSDK/cloud/alicloud/src/protocol/alcs\alcs_api.c ****     }
 2931              		.loc 1 537 16 is_stmt 0
 2932 0292 1304A01C 		li	s0,458
 2933              	.LVL309:
 2934 0296 31BD     		j	.L187
 2935              	.LVL310:
 2936              	.L198:
 2937              	.LBB123:
 2938              	.LBB119:
 2939              	.LBB115:
 151:C:/Users/stapi/OneDrive/Desktop/GD32VW553/V1_MQTT_OK/GD32VW55X_Wifi_BLE_SDK/GD32VW55x_RELEASE_V1.0.2/MSDK/cloud/alicloud/src/protocol/alcs\alcs_api.c ****         if (node->sessionId == id) {
 2940              		.loc 1 151 5 is_stmt 1
 2941 0298 83274000 		lw	a5,4(zero)
 2942 029c 0290     		ebreak
 2943              	.LBE115:
 2944              	.LBE119:
 2945              	.LBE123:
 2946              		.cfi_endproc
 2947              	.LFE41:
 2949              		.section	.rodata.add_message_seq.str1.4,"aMS",@progbits,1
 2950              		.align	2
 2951              	.LC33:
 2952 0000 77696E64 		.string	"window pos:%d"
 2952      6F772070 
 2952      6F733A25 
 2952      6400
 2953              		.section	.text.add_message_seq,"ax",@progbits
 2954              		.align	1
 2955              		.globl	add_message_seq
 2957              	add_message_seq:
 2958              	.LFB47:
 747:C:/Users/stapi/OneDrive/Desktop/GD32VW553/V1_MQTT_OK/GD32VW55X_Wifi_BLE_SDK/GD32VW55x_RELEASE_V1.0.2/MSDK/cloud/alicloud/src/protocol/alcs\alcs_api.c **** 
 748:C:/Users/stapi/OneDrive/Desktop/GD32VW553/V1_MQTT_OK/GD32VW55X_Wifi_BLE_SDK/GD32VW55x_RELEASE_V1.0.2/MSDK/cloud/alicloud/src/protocol/alcs\alcs_api.c **** 
 749:C:/Users/stapi/OneDrive/Desktop/GD32VW553/V1_MQTT_OK/GD32VW55X_Wifi_BLE_SDK/GD32VW55x_RELEASE_V1.0.2/MSDK/cloud/alicloud/src/protocol/alcs\alcs_api.c **** void add_message_seq (CoAPMessage *message, session_item* session)
 750:C:/Users/stapi/OneDrive/Desktop/GD32VW553/V1_MQTT_OK/GD32VW55X_Wifi_BLE_SDK/GD32VW55x_RELEASE_V1.0.2/MSDK/cloud/alicloud/src/protocol/alcs\alcs_api.c **** {
 2959              		.loc 1 750 1
 2960              		.cfi_startproc
 2961              	.LVL311:
 2962 0000 17030000 		call	t0,__riscv_save_2
 2962      E7020300 
 2963              		.cfi_offset 9, -12
 2964              		.cfi_offset 8, -8
 2965              		.cfi_offset 1, -4
 2966              		.cfi_def_cfa_offset 16
 751:C:/Users/stapi/OneDrive/Desktop/GD32VW553/V1_MQTT_OK/GD32VW55X_Wifi_BLE_SDK/GD32VW55x_RELEASE_V1.0.2/MSDK/cloud/alicloud/src/protocol/alcs\alcs_api.c ****     COAP_DEBUG ("window pos:%d", session->seqStart);
 2967              		.loc 1 751 5
 2968 0008 DC5D     		lw	a5,60(a1)
 750:C:/Users/stapi/OneDrive/Desktop/GD32VW553/V1_MQTT_OK/GD32VW55X_Wifi_BLE_SDK/GD32VW55x_RELEASE_V1.0.2/MSDK/cloud/alicloud/src/protocol/alcs\alcs_api.c ****     COAP_DEBUG ("window pos:%d", session->seqStart);
 2969              		.loc 1 750 1 is_stmt 0
 2970 000a 2E84     		mv	s0,a1
 2971 000c AA84     		mv	s1,a0
 2972              		.loc 1 751 5
 2973 000e 37070000 		lui	a4,%hi(.LC33)
 2974 0012 B7050000 		lui	a1,%hi(.LANCHOR13)
 2975              	.LVL312:
 2976 0016 37050000 		lui	a0,%hi(.LC6)
 2977              	.LVL313:
 750:C:/Users/stapi/OneDrive/Desktop/GD32VW553/V1_MQTT_OK/GD32VW55X_Wifi_BLE_SDK/GD32VW55x_RELEASE_V1.0.2/MSDK/cloud/alicloud/src/protocol/alcs\alcs_api.c ****     COAP_DEBUG ("window pos:%d", session->seqStart);
 2978              		.loc 1 750 1
 2979 001a 0111     		addi	sp,sp,-32
 2980              		.cfi_def_cfa_offset 48
 2981              		.loc 1 751 5
 2982 001c 13070700 		addi	a4,a4,%lo(.LC33)
 2983 0020 9546     		li	a3,5
 2984 0022 1306F02E 		li	a2,751
 2985 0026 93850500 		addi	a1,a1,%lo(.LANCHOR13)
 2986 002a 13050500 		addi	a0,a0,%lo(.LC6)
 2987 002e 97000000 		call	LITE_syslog
 2987      E7800000 
 2988              	.LVL314:
 752:C:/Users/stapi/OneDrive/Desktop/GD32VW553/V1_MQTT_OK/GD32VW55X_Wifi_BLE_SDK/GD32VW55x_RELEASE_V1.0.2/MSDK/cloud/alicloud/src/protocol/alcs\alcs_api.c **** 
 753:C:/Users/stapi/OneDrive/Desktop/GD32VW553/V1_MQTT_OK/GD32VW55X_Wifi_BLE_SDK/GD32VW55x_RELEASE_V1.0.2/MSDK/cloud/alicloud/src/protocol/alcs\alcs_api.c ****     if (session->opt & ALCS_OPT_SUPPORT_SEQWINDOWS) {
 2989              		.loc 1 753 5 is_stmt 1
 2990              		.loc 1 753 22 is_stmt 0
 2991 0036 8327840B 		lw	a5,184(s0)
 2992 003a 898B     		andi	a5,a5,2
 2993              		.loc 1 753 8
 2994 003c 85CF     		beq	a5,zero,.L211
 2995              	.LVL315:
 2996              	.LBB127:
 2997              	.LBB128:
 2998              	.LBB129:
 754:C:/Users/stapi/OneDrive/Desktop/GD32VW553/V1_MQTT_OK/GD32VW55X_Wifi_BLE_SDK/GD32VW55x_RELEASE_V1.0.2/MSDK/cloud/alicloud/src/protocol/alcs\alcs_api.c ****         char digest[20];
 2999              		.loc 1 754 9 is_stmt 1
 755:C:/Users/stapi/OneDrive/Desktop/GD32VW553/V1_MQTT_OK/GD32VW55X_Wifi_BLE_SDK/GD32VW55x_RELEASE_V1.0.2/MSDK/cloud/alicloud/src/protocol/alcs\alcs_api.c ****         unsigned char buf[8];
 3000              		.loc 1 755 9
 756:C:/Users/stapi/OneDrive/Desktop/GD32VW553/V1_MQTT_OK/GD32VW55X_Wifi_BLE_SDK/GD32VW55x_RELEASE_V1.0.2/MSDK/cloud/alicloud/src/protocol/alcs\alcs_api.c ****         buf[0] = (session->seqStart >> 24) & 0xff;
 3001              		.loc 1 756 9
 3002 003e 5C5C     		lw	a5,60(s0)
 757:C:/Users/stapi/OneDrive/Desktop/GD32VW553/V1_MQTT_OK/GD32VW55X_Wifi_BLE_SDK/GD32VW55x_RELEASE_V1.0.2/MSDK/cloud/alicloud/src/protocol/alcs\alcs_api.c ****         buf[1] = (session->seqStart >> 16) & 0xff;
 758:C:/Users/stapi/OneDrive/Desktop/GD32VW553/V1_MQTT_OK/GD32VW55X_Wifi_BLE_SDK/GD32VW55x_RELEASE_V1.0.2/MSDK/cloud/alicloud/src/protocol/alcs\alcs_api.c ****         buf[2] = (session->seqStart >> 8) & 0xff;
 759:C:/Users/stapi/OneDrive/Desktop/GD32VW553/V1_MQTT_OK/GD32VW55X_Wifi_BLE_SDK/GD32VW55x_RELEASE_V1.0.2/MSDK/cloud/alicloud/src/protocol/alcs\alcs_api.c ****         buf[3] = (session->seqStart) & 0xff;
 760:C:/Users/stapi/OneDrive/Desktop/GD32VW553/V1_MQTT_OK/GD32VW55X_Wifi_BLE_SDK/GD32VW55x_RELEASE_V1.0.2/MSDK/cloud/alicloud/src/protocol/alcs\alcs_api.c **** 
 761:C:/Users/stapi/OneDrive/Desktop/GD32VW553/V1_MQTT_OK/GD32VW55X_Wifi_BLE_SDK/GD32VW55x_RELEASE_V1.0.2/MSDK/cloud/alicloud/src/protocol/alcs\alcs_api.c ****         session->seqStart ++;
 762:C:/Users/stapi/OneDrive/Desktop/GD32VW553/V1_MQTT_OK/GD32VW55X_Wifi_BLE_SDK/GD32VW55x_RELEASE_V1.0.2/MSDK/cloud/alicloud/src/protocol/alcs\alcs_api.c ****         utils_hmac_sha1_raw ((char*)buf, 4, digest, session->sessionKey, SESSIONKEYLEN); 
 3003              		.loc 1 762 9 is_stmt 0
 3004 0040 93065401 		addi	a3,s0,21
 3005 0044 7000     		addi	a2,sp,12
 3006 0046 13D78769 		rev8	a4,a5
 757:C:/Users/stapi/OneDrive/Desktop/GD32VW553/V1_MQTT_OK/GD32VW55X_Wifi_BLE_SDK/GD32VW55x_RELEASE_V1.0.2/MSDK/cloud/alicloud/src/protocol/alcs\alcs_api.c ****         buf[1] = (session->seqStart >> 16) & 0xff;
 3007              		.loc 1 757 9 is_stmt 1
 758:C:/Users/stapi/OneDrive/Desktop/GD32VW553/V1_MQTT_OK/GD32VW55X_Wifi_BLE_SDK/GD32VW55x_RELEASE_V1.0.2/MSDK/cloud/alicloud/src/protocol/alcs\alcs_api.c ****         buf[3] = (session->seqStart) & 0xff;
 3008              		.loc 1 758 9
 759:C:/Users/stapi/OneDrive/Desktop/GD32VW553/V1_MQTT_OK/GD32VW55X_Wifi_BLE_SDK/GD32VW55x_RELEASE_V1.0.2/MSDK/cloud/alicloud/src/protocol/alcs\alcs_api.c **** 
 3009              		.loc 1 759 9
 761:C:/Users/stapi/OneDrive/Desktop/GD32VW553/V1_MQTT_OK/GD32VW55X_Wifi_BLE_SDK/GD32VW55x_RELEASE_V1.0.2/MSDK/cloud/alicloud/src/protocol/alcs\alcs_api.c ****         utils_hmac_sha1_raw ((char*)buf, 4, digest, session->sessionKey, SESSIONKEYLEN); 
 3010              		.loc 1 761 27 is_stmt 0
 3011 004a 8507     		addi	a5,a5,1
 756:C:/Users/stapi/OneDrive/Desktop/GD32VW553/V1_MQTT_OK/GD32VW55X_Wifi_BLE_SDK/GD32VW55x_RELEASE_V1.0.2/MSDK/cloud/alicloud/src/protocol/alcs\alcs_api.c ****         buf[1] = (session->seqStart >> 16) & 0xff;
 3012              		.loc 1 756 16
 3013 004c 3AC2     		sw	a4,4(sp)
 761:C:/Users/stapi/OneDrive/Desktop/GD32VW553/V1_MQTT_OK/GD32VW55X_Wifi_BLE_SDK/GD32VW55x_RELEASE_V1.0.2/MSDK/cloud/alicloud/src/protocol/alcs\alcs_api.c ****         utils_hmac_sha1_raw ((char*)buf, 4, digest, session->sessionKey, SESSIONKEYLEN); 
 3014              		.loc 1 761 9 is_stmt 1
 761:C:/Users/stapi/OneDrive/Desktop/GD32VW553/V1_MQTT_OK/GD32VW55X_Wifi_BLE_SDK/GD32VW55x_RELEASE_V1.0.2/MSDK/cloud/alicloud/src/protocol/alcs\alcs_api.c ****         utils_hmac_sha1_raw ((char*)buf, 4, digest, session->sessionKey, SESSIONKEYLEN); 
 3015              		.loc 1 761 27 is_stmt 0
 3016 004e 5CDC     		sw	a5,60(s0)
 3017              		.loc 1 762 9 is_stmt 1
 3018 0050 9145     		li	a1,4
 3019 0052 4800     		addi	a0,sp,4
 3020 0054 5147     		li	a4,20
 3021 0056 97000000 		call	utils_hmac_sha1_raw
 3021      E7800000 
 3022              	.LVL316:
 763:C:/Users/stapi/OneDrive/Desktop/GD32VW553/V1_MQTT_OK/GD32VW55X_Wifi_BLE_SDK/GD32VW55x_RELEASE_V1.0.2/MSDK/cloud/alicloud/src/protocol/alcs\alcs_api.c ****         memcpy (buf + 4, digest, 4);
 3023              		.loc 1 763 9
 3024 005e B247     		lw	a5,12(sp)
 764:C:/Users/stapi/OneDrive/Desktop/GD32VW553/V1_MQTT_OK/GD32VW55X_Wifi_BLE_SDK/GD32VW55x_RELEASE_V1.0.2/MSDK/cloud/alicloud/src/protocol/alcs\alcs_api.c ****         CoAPStrOption_add (message, COAP_OPTION_SEQID, buf, sizeof(buf));
 3025              		.loc 1 764 9 is_stmt 0
 3026 0060 A146     		li	a3,8
 3027 0062 5000     		addi	a2,sp,4
 3028 0064 93058004 		li	a1,72
 3029 0068 2685     		mv	a0,s1
 763:C:/Users/stapi/OneDrive/Desktop/GD32VW553/V1_MQTT_OK/GD32VW55X_Wifi_BLE_SDK/GD32VW55x_RELEASE_V1.0.2/MSDK/cloud/alicloud/src/protocol/alcs\alcs_api.c ****         memcpy (buf + 4, digest, 4);
 3030              		.loc 1 763 9
 3031 006a 3EC4     		sw	a5,8(sp)
 3032              		.loc 1 764 9 is_stmt 1
 3033 006c 97000000 		call	CoAPStrOption_add
 3033      E7800000 
 3034              	.LVL317:
 3035              	.L211:
 3036              	.LBE129:
 3037              	.LBE128:
 3038              	.LBE127:
 765:C:/Users/stapi/OneDrive/Desktop/GD32VW553/V1_MQTT_OK/GD32VW55X_Wifi_BLE_SDK/GD32VW55x_RELEASE_V1.0.2/MSDK/cloud/alicloud/src/protocol/alcs\alcs_api.c ****     }
 766:C:/Users/stapi/OneDrive/Desktop/GD32VW553/V1_MQTT_OK/GD32VW55X_Wifi_BLE_SDK/GD32VW55x_RELEASE_V1.0.2/MSDK/cloud/alicloud/src/protocol/alcs\alcs_api.c **** }
 3039              		.loc 1 766 1 is_stmt 0
 3040 0074 0561     		addi	sp,sp,32
 3041              		.cfi_def_cfa_offset 0
 3042 0076 17030000 		tail	__riscv_restore_2
 3042      67000300 
 3043              		.cfi_restore 9
 3044              		.cfi_restore 8
 3045              		.cfi_restore 1
 3046              		.cfi_def_cfa_offset -16
 3047              		.cfi_endproc
 3048              	.LFE47:
 3050              		.section	.rodata.internal_secure_send.str1.4,"aMS",@progbits,1
 3051              		.align	2
 3052              	.LC34:
 3053 0000 696E7465 		.string	"internal_secure_send"
 3053      726E616C 
 3053      5F736563 
 3053      7572655F 
 3053      73656E64 
 3054 0015 000000   		.align	2
 3055              	.LC35:
 3056 0018 70617261 		.string	"parameter is null"
 3056      6D657465 
 3056      72206973 
 3056      206E756C 
 3056      6C00
 3057 002a 0000     		.align	2
 3058              	.LC36:
 3059 002c 73656375 		.string	"secure_send sessionId:%d"
 3059      72655F73 
 3059      656E6420 
 3059      73657373 
 3059      696F6E49 
 3060              		.section	.text.internal_secure_send,"ax",@progbits
 3061              		.align	1
 3062              		.globl	internal_secure_send
 3064              	internal_secure_send:
 3065              	.LFB40:
 426:C:/Users/stapi/OneDrive/Desktop/GD32VW553/V1_MQTT_OK/GD32VW55X_Wifi_BLE_SDK/GD32VW55x_RELEASE_V1.0.2/MSDK/cloud/alicloud/src/protocol/alcs\alcs_api.c ****     COAP_DEBUG ("internal_secure_send");
 3066              		.loc 1 426 1 is_stmt 1
 3067              		.cfi_startproc
 3068              	.LVL318:
 3069 0000 17030000 		call	t0,__riscv_save_6
 3069      E7020300 
 3070              		.cfi_offset 21, -28
 3071              		.cfi_offset 20, -24
 3072              		.cfi_offset 19, -20
 3073              		.cfi_offset 18, -16
 3074              		.cfi_offset 9, -12
 3075              		.cfi_offset 8, -8
 3076              		.cfi_offset 1, -4
 3077              		.cfi_def_cfa_offset 32
 427:C:/Users/stapi/OneDrive/Desktop/GD32VW553/V1_MQTT_OK/GD32VW55X_Wifi_BLE_SDK/GD32VW55x_RELEASE_V1.0.2/MSDK/cloud/alicloud/src/protocol/alcs\alcs_api.c ****     if (!ctx || !session || !addr || !message) {
 3078              		.loc 1 427 5
 3079 0008 B70A0000 		lui	s5,%hi(.LANCHOR14)
 3080 000c 37070000 		lui	a4,%hi(.LC34)
 3081 0010 370A0000 		lui	s4,%hi(.LC6)
 426:C:/Users/stapi/OneDrive/Desktop/GD32VW553/V1_MQTT_OK/GD32VW55X_Wifi_BLE_SDK/GD32VW55x_RELEASE_V1.0.2/MSDK/cloud/alicloud/src/protocol/alcs\alcs_api.c ****     COAP_DEBUG ("internal_secure_send");
 3082              		.loc 1 426 1 is_stmt 0
 3083 0014 2A89     		mv	s2,a0
 3084 0016 4111     		addi	sp,sp,-16
 3085              		.cfi_def_cfa_offset 48
 426:C:/Users/stapi/OneDrive/Desktop/GD32VW553/V1_MQTT_OK/GD32VW55X_Wifi_BLE_SDK/GD32VW55x_RELEASE_V1.0.2/MSDK/cloud/alicloud/src/protocol/alcs\alcs_api.c ****     COAP_DEBUG ("internal_secure_send");
 3086              		.loc 1 426 1
 3087 0018 AE84     		mv	s1,a1
 3088 001a B289     		mv	s3,a2
 3089 001c 3684     		mv	s0,a3
 427:C:/Users/stapi/OneDrive/Desktop/GD32VW553/V1_MQTT_OK/GD32VW55X_Wifi_BLE_SDK/GD32VW55x_RELEASE_V1.0.2/MSDK/cloud/alicloud/src/protocol/alcs\alcs_api.c ****     if (!ctx || !session || !addr || !message) {
 3090              		.loc 1 427 5
 3091 001e 13070700 		addi	a4,a4,%lo(.LC34)
 3092 0022 9546     		li	a3,5
 3093              	.LVL319:
 3094 0024 1306B01A 		li	a2,427
 3095              	.LVL320:
 3096 0028 93850A00 		addi	a1,s5,%lo(.LANCHOR14)
 3097              	.LVL321:
 3098 002c 13050A00 		addi	a0,s4,%lo(.LC6)
 3099              	.LVL322:
 3100 0030 97000000 		call	LITE_syslog
 3100      E7800000 
 3101              	.LVL323:
 428:C:/Users/stapi/OneDrive/Desktop/GD32VW553/V1_MQTT_OK/GD32VW55X_Wifi_BLE_SDK/GD32VW55x_RELEASE_V1.0.2/MSDK/cloud/alicloud/src/protocol/alcs\alcs_api.c ****         COAP_ERR ("parameter is null");
 3102              		.loc 1 428 5 is_stmt 1
 428:C:/Users/stapi/OneDrive/Desktop/GD32VW553/V1_MQTT_OK/GD32VW55X_Wifi_BLE_SDK/GD32VW55x_RELEASE_V1.0.2/MSDK/cloud/alicloud/src/protocol/alcs\alcs_api.c ****         COAP_ERR ("parameter is null");
 3103              		.loc 1 428 8 is_stmt 0
 3104 0038 63060900 		beq	s2,zero,.L218
 428:C:/Users/stapi/OneDrive/Desktop/GD32VW553/V1_MQTT_OK/GD32VW55X_Wifi_BLE_SDK/GD32VW55x_RELEASE_V1.0.2/MSDK/cloud/alicloud/src/protocol/alcs\alcs_api.c ****         COAP_ERR ("parameter is null");
 3105              		.loc 1 428 14 discriminator 1
 3106 003c 81C4     		beq	s1,zero,.L218
 428:C:/Users/stapi/OneDrive/Desktop/GD32VW553/V1_MQTT_OK/GD32VW55X_Wifi_BLE_SDK/GD32VW55x_RELEASE_V1.0.2/MSDK/cloud/alicloud/src/protocol/alcs\alcs_api.c ****         COAP_ERR ("parameter is null");
 3107              		.loc 1 428 26 discriminator 2
 3108 003e 63830900 		beq	s3,zero,.L218
 428:C:/Users/stapi/OneDrive/Desktop/GD32VW553/V1_MQTT_OK/GD32VW55X_Wifi_BLE_SDK/GD32VW55x_RELEASE_V1.0.2/MSDK/cloud/alicloud/src/protocol/alcs\alcs_api.c ****         COAP_ERR ("parameter is null");
 3109              		.loc 1 428 35 discriminator 3
 3110 0042 21E0     		bne	s0,zero,.L219
 3111              	.L218:
 429:C:/Users/stapi/OneDrive/Desktop/GD32VW553/V1_MQTT_OK/GD32VW55X_Wifi_BLE_SDK/GD32VW55x_RELEASE_V1.0.2/MSDK/cloud/alicloud/src/protocol/alcs\alcs_api.c ****         return COAP_ERROR_INVALID_PARAM;
 3112              		.loc 1 429 9 is_stmt 1
 429:C:/Users/stapi/OneDrive/Desktop/GD32VW553/V1_MQTT_OK/GD32VW55X_Wifi_BLE_SDK/GD32VW55x_RELEASE_V1.0.2/MSDK/cloud/alicloud/src/protocol/alcs\alcs_api.c ****         return COAP_ERROR_INVALID_PARAM;
 3113              		.loc 1 429 9
 3114 0044 37050000 		lui	a0,%hi(.LC13)
 3115 0048 13050500 		addi	a0,a0,%lo(.LC13)
 3116 004c 97000000 		call	HAL_Printf
 3116      E7800000 
 3117              	.LVL324:
 429:C:/Users/stapi/OneDrive/Desktop/GD32VW553/V1_MQTT_OK/GD32VW55X_Wifi_BLE_SDK/GD32VW55x_RELEASE_V1.0.2/MSDK/cloud/alicloud/src/protocol/alcs\alcs_api.c ****         return COAP_ERROR_INVALID_PARAM;
 3118              		.loc 1 429 9
 3119 0054 37050000 		lui	a0,%hi(.LC35)
 3120 0058 13050500 		addi	a0,a0,%lo(.LC35)
 3121 005c 97000000 		call	HAL_Printf
 3121      E7800000 
 3122              	.LVL325:
 429:C:/Users/stapi/OneDrive/Desktop/GD32VW553/V1_MQTT_OK/GD32VW55X_Wifi_BLE_SDK/GD32VW55x_RELEASE_V1.0.2/MSDK/cloud/alicloud/src/protocol/alcs\alcs_api.c ****         return COAP_ERROR_INVALID_PARAM;
 3123              		.loc 1 429 9
 3124 0064 37050000 		lui	a0,%hi(.LC2)
 3125 0068 13050500 		addi	a0,a0,%lo(.LC2)
 3126 006c 97000000 		call	HAL_Printf
 3126      E7800000 
 3127              	.LVL326:
 429:C:/Users/stapi/OneDrive/Desktop/GD32VW553/V1_MQTT_OK/GD32VW55X_Wifi_BLE_SDK/GD32VW55x_RELEASE_V1.0.2/MSDK/cloud/alicloud/src/protocol/alcs\alcs_api.c ****         return COAP_ERROR_INVALID_PARAM;
 3128              		.loc 1 429 9
 430:C:/Users/stapi/OneDrive/Desktop/GD32VW553/V1_MQTT_OK/GD32VW55X_Wifi_BLE_SDK/GD32VW55x_RELEASE_V1.0.2/MSDK/cloud/alicloud/src/protocol/alcs\alcs_api.c ****     }
 3129              		.loc 1 430 9
 430:C:/Users/stapi/OneDrive/Desktop/GD32VW553/V1_MQTT_OK/GD32VW55X_Wifi_BLE_SDK/GD32VW55x_RELEASE_V1.0.2/MSDK/cloud/alicloud/src/protocol/alcs\alcs_api.c ****     }
 3130              		.loc 1 430 16 is_stmt 0
 3131 0074 13051010 		li	a0,257
 3132              	.L217:
 441:C:/Users/stapi/OneDrive/Desktop/GD32VW553/V1_MQTT_OK/GD32VW55X_Wifi_BLE_SDK/GD32VW55x_RELEASE_V1.0.2/MSDK/cloud/alicloud/src/protocol/alcs\alcs_api.c **** 
 3133              		.loc 1 441 1
 3134 0078 4101     		addi	sp,sp,16
 3135              		.cfi_remember_state
 3136              		.cfi_def_cfa_offset 0
 3137 007a 17030000 		tail	__riscv_restore_6
 3137      67000300 
 3138              		.cfi_restore 21
 3139              		.cfi_restore 20
 3140              		.cfi_restore 19
 3141              		.cfi_restore 18
 3142              		.cfi_restore 9
 3143              		.cfi_restore 8
 3144              		.cfi_restore 1
 3145              		.cfi_def_cfa_offset -32
 3146              	.L219:
 3147              		.cfi_restore_state
 433:C:/Users/stapi/OneDrive/Desktop/GD32VW553/V1_MQTT_OK/GD32VW55X_Wifi_BLE_SDK/GD32VW55x_RELEASE_V1.0.2/MSDK/cloud/alicloud/src/protocol/alcs\alcs_api.c **** 
 3148              		.loc 1 433 5 is_stmt 1
 3149 0082 1306A002 		li	a2,42
 3150 0086 B145     		li	a1,12
 3151 0088 2285     		mv	a0,s0
 3152 008a 97000000 		call	CoAPUintOption_add
 3152      E7800000 
 3153              	.LVL327:
 435:C:/Users/stapi/OneDrive/Desktop/GD32VW553/V1_MQTT_OK/GD32VW55X_Wifi_BLE_SDK/GD32VW55x_RELEASE_V1.0.2/MSDK/cloud/alicloud/src/protocol/alcs\alcs_api.c ****     add_message_sessionid (message, session->sessionId, session->opt, &payload);
 3154              		.loc 1 435 5
 435:C:/Users/stapi/OneDrive/Desktop/GD32VW553/V1_MQTT_OK/GD32VW55X_Wifi_BLE_SDK/GD32VW55x_RELEASE_V1.0.2/MSDK/cloud/alicloud/src/protocol/alcs\alcs_api.c ****     add_message_sessionid (message, session->sessionId, session->opt, &payload);
 3155              		.loc 1 435 37 is_stmt 0
 3156 0092 8357E406 		lhu	a5,110(s0)
 436:C:/Users/stapi/OneDrive/Desktop/GD32VW553/V1_MQTT_OK/GD32VW55X_Wifi_BLE_SDK/GD32VW55x_RELEASE_V1.0.2/MSDK/cloud/alicloud/src/protocol/alcs\alcs_api.c ****     add_message_seq (message, session);
 3157              		.loc 1 436 5
 3158 0096 03A6840B 		lw	a2,184(s1)
 3159 009a 8C40     		lw	a1,0(s1)
 435:C:/Users/stapi/OneDrive/Desktop/GD32VW553/V1_MQTT_OK/GD32VW55X_Wifi_BLE_SDK/GD32VW55x_RELEASE_V1.0.2/MSDK/cloud/alicloud/src/protocol/alcs\alcs_api.c ****     add_message_sessionid (message, session->sessionId, session->opt, &payload);
 3160              		.loc 1 435 37
 3161 009c 3EC4     		sw	a5,8(sp)
 435:C:/Users/stapi/OneDrive/Desktop/GD32VW553/V1_MQTT_OK/GD32VW55X_Wifi_BLE_SDK/GD32VW55x_RELEASE_V1.0.2/MSDK/cloud/alicloud/src/protocol/alcs\alcs_api.c ****     add_message_sessionid (message, session->sessionId, session->opt, &payload);
 3162              		.loc 1 435 19
 3163 009e 3C58     		lw	a5,112(s0)
 436:C:/Users/stapi/OneDrive/Desktop/GD32VW553/V1_MQTT_OK/GD32VW55X_Wifi_BLE_SDK/GD32VW55x_RELEASE_V1.0.2/MSDK/cloud/alicloud/src/protocol/alcs\alcs_api.c ****     add_message_seq (message, session);
 3164              		.loc 1 436 5
 3165 00a0 3400     		addi	a3,sp,8
 3166 00a2 2285     		mv	a0,s0
 435:C:/Users/stapi/OneDrive/Desktop/GD32VW553/V1_MQTT_OK/GD32VW55X_Wifi_BLE_SDK/GD32VW55x_RELEASE_V1.0.2/MSDK/cloud/alicloud/src/protocol/alcs\alcs_api.c ****     add_message_sessionid (message, session->sessionId, session->opt, &payload);
 3167              		.loc 1 435 19
 3168 00a4 3EC6     		sw	a5,12(sp)
 436:C:/Users/stapi/OneDrive/Desktop/GD32VW553/V1_MQTT_OK/GD32VW55X_Wifi_BLE_SDK/GD32VW55x_RELEASE_V1.0.2/MSDK/cloud/alicloud/src/protocol/alcs\alcs_api.c ****     add_message_seq (message, session);
 3169              		.loc 1 436 5 is_stmt 1
 3170 00a6 97000000 		call	add_message_sessionid
 3170      E7800000 
 3171              	.LVL328:
 437:C:/Users/stapi/OneDrive/Desktop/GD32VW553/V1_MQTT_OK/GD32VW55X_Wifi_BLE_SDK/GD32VW55x_RELEASE_V1.0.2/MSDK/cloud/alicloud/src/protocol/alcs\alcs_api.c ****     COAP_DEBUG("secure_send sessionId:%d", session->sessionId);
 3172              		.loc 1 437 5
 3173 00ae A685     		mv	a1,s1
 3174 00b0 2285     		mv	a0,s0
 3175 00b2 97000000 		call	add_message_seq
 3175      E7800000 
 3176              	.LVL329:
 438:C:/Users/stapi/OneDrive/Desktop/GD32VW553/V1_MQTT_OK/GD32VW55X_Wifi_BLE_SDK/GD32VW55x_RELEASE_V1.0.2/MSDK/cloud/alicloud/src/protocol/alcs\alcs_api.c **** 
 3177              		.loc 1 438 5
 3178 00ba 9C40     		lw	a5,0(s1)
 3179 00bc 37070000 		lui	a4,%hi(.LC36)
 3180 00c0 93850A00 		addi	a1,s5,%lo(.LANCHOR14)
 3181 00c4 13050A00 		addi	a0,s4,%lo(.LC6)
 3182 00c8 13070700 		addi	a4,a4,%lo(.LC36)
 3183 00cc 9546     		li	a3,5
 3184 00ce 1306601B 		li	a2,438
 3185 00d2 97000000 		call	LITE_syslog
 3185      E7800000 
 3186              	.LVL330:
 440:C:/Users/stapi/OneDrive/Desktop/GD32VW553/V1_MQTT_OK/GD32VW55X_Wifi_BLE_SDK/GD32VW55x_RELEASE_V1.0.2/MSDK/cloud/alicloud/src/protocol/alcs\alcs_api.c **** }
 3187              		.loc 1 440 5
 440:C:/Users/stapi/OneDrive/Desktop/GD32VW553/V1_MQTT_OK/GD32VW55X_Wifi_BLE_SDK/GD32VW55x_RELEASE_V1.0.2/MSDK/cloud/alicloud/src/protocol/alcs\alcs_api.c **** }
 3188              		.loc 1 440 12 is_stmt 0
 3189 00da 93865401 		addi	a3,s1,21
 3190 00de 2286     		mv	a2,s0
 3191 00e0 CE85     		mv	a1,s3
 3192 00e2 4A85     		mv	a0,s2
 3193 00e4 97000000 		call	do_secure_send
 3193      E7800000 
 3194              	.LVL331:
 3195 00ec 71B7     		j	.L217
 3196              		.cfi_endproc
 3197              	.LFE40:
 3199              		.globl	_device
 3200              		.globl	sessionid_seed
 3201              		.globl	secure_resource_cb_head
 3202              		.section	.bss._device,"aw",@nobits
 3203              		.align	2
 3204              		.set	.LANCHOR0,. + 0
 3207              	_device:
 3208 0000 00000000 		.zero	48
 3208      00000000 
 3208      00000000 
 3208      00000000 
 3208      00000000 
 3209              		.section	.rodata.__FUNCTION__.0,"a"
 3210              		.align	2
 3211              		.set	.LANCHOR13,. + 0
 3214              	__FUNCTION__.0:
 3215 0000 6164645F 		.string	"add_message_seq"
 3215      6D657373 
 3215      6167655F 
 3215      73657100 
 3216              		.section	.rodata.__FUNCTION__.1,"a"
 3217              		.align	2
 3218              		.set	.LANCHOR9,. + 0
 3221              	__FUNCTION__.1:
 3222 0000 73657177 		.string	"seqwindow_accept"
 3222      696E646F 
 3222      775F6163 
 3222      63657074 
 3222      00
 3223              		.section	.rodata.__FUNCTION__.10,"a"
 3224              		.align	2
 3225              		.set	.LANCHOR5,. + 0
 3228              	__FUNCTION__.10:
 3229 0000 6765745F 		.string	"get_session_by_checksum"
 3229      73657373 
 3229      696F6E5F 
 3229      62795F63 
 3229      6865636B 
 3230              		.section	.rodata.__FUNCTION__.2,"a"
 3231              		.align	2
 3232              		.set	.LANCHOR12,. + 0
 3235              	__FUNCTION__.2:
 3236 0000 6765745F 		.string	"get_session_by_id"
 3236      73657373 
 3236      696F6E5F 
 3236      62795F69 
 3236      6400
 3237              		.section	.rodata.__FUNCTION__.3,"a"
 3238              		.align	2
 3239              		.set	.LANCHOR11,. + 0
 3242              	__FUNCTION__.3:
 3243 0000 66696E64 		.string	"find_request_by_req"
 3243      5F726571 
 3243      75657374 
 3243      5F62795F 
 3243      72657100 
 3244              		.section	.rodata.__FUNCTION__.4,"a"
 3245              		.align	2
 3246              		.set	.LANCHOR10,. + 0
 3249              	__FUNCTION__.4:
 3250 0000 616C6373 		.string	"alcs_sendrsp_secure"
 3250      5F73656E 
 3250      64727370 
 3250      5F736563 
 3250      75726500 
 3251              		.section	.rodata.__FUNCTION__.5,"a"
 3252              		.align	2
 3253              		.set	.LANCHOR7,. + 0
 3256              	__FUNCTION__.5:
 3257 0000 646F5F73 		.string	"do_secure_send"
 3257      65637572 
 3257      655F7365 
 3257      6E6400
 3258              		.section	.rodata.__FUNCTION__.6,"a"
 3259              		.align	2
 3260              		.set	.LANCHOR14,. + 0
 3263              	__FUNCTION__.6:
 3264 0000 696E7465 		.string	"internal_secure_send"
 3264      726E616C 
 3264      5F736563 
 3264      7572655F 
 3264      73656E64 
 3265              		.section	.rodata.__FUNCTION__.7,"a"
 3266              		.align	2
 3267              		.set	.LANCHOR8,. + 0
 3270              	__FUNCTION__.7:
 3271 0000 616C6373 		.string	"alcs_decrypt"
 3271      5F646563 
 3271      72797074 
 3271      00
 3272              		.section	.rodata.__FUNCTION__.8,"a"
 3273              		.align	2
 3274              		.set	.LANCHOR6,. + 0
 3277              	__FUNCTION__.8:
 3278 0000 616C6373 		.string	"alcs_encrypt"
 3278      5F656E63 
 3278      72797074 
 3278      00
 3279              		.section	.rodata.__FUNCTION__.9,"a"
 3280              		.align	2
 3281              		.set	.LANCHOR4,. + 0
 3284              	__FUNCTION__.9:
 3285 0000 69735F6E 		.string	"is_networkadd_same"
 3285      6574776F 
 3285      726B6164 
 3285      645F7361 
 3285      6D6500
 3286              		.section	.sbss.is_inited,"aw",@nobits
 3287              		.set	.LANCHOR1,. + 0
 3290              	is_inited:
 3291 0000 00       		.zero	1
 3292              		.section	.sbss.sessionid_seed,"aw",@nobits
 3293              		.align	2
 3294              		.set	.LANCHOR2,. + 0
 3297              	sessionid_seed:
 3298 0000 00000000 		.zero	4
 3299              		.section	.sdata.secure_resource_cb_head,"aw"
 3300              		.align	2
 3301              		.set	.LANCHOR3,. + 0
 3304              	secure_resource_cb_head:
 3305 0000 00000000 		.word	secure_resource_cb_head
 3306 0004 00000000 		.word	secure_resource_cb_head
 3307              		.text
 3308              	.Letext0:
 3309              		.file 3 "c:\\users\\stapi\\onedrive\\desktop\\gd32vw553\\embeddedbuilder_v1.4.7.26843\\tools\\nucl
 3310              		.file 4 "c:\\users\\stapi\\onedrive\\desktop\\gd32vw553\\embeddedbuilder_v1.4.7.26843\\tools\\nucl
 3311              		.file 5 "c:\\users\\stapi\\onedrive\\desktop\\gd32vw553\\embeddedbuilder_v1.4.7.26843\\tools\\nucl
 3312              		.file 6 "..\\..\\..\\..\\cloud\\alicloud\\include/iot_import.h"
 3313              		.file 7 "..\\..\\..\\..\\cloud\\alicloud\\include/imports/iot_import_crypt.h"
 3314              		.file 8 "..\\..\\..\\..\\cloud\\alicloud\\src\\protocol\\coap\\local/CoAPExport.h"
 3315              		.file 9 "C:/Users/stapi/OneDrive/Desktop/GD32VW553/V1_MQTT_OK/GD32VW55X_Wifi_BLE_SDK/GD32VW55x_REL
 3316              		.file 10 "..\\..\\..\\..\\cloud\\alicloud\\src\\protocol\\coap\\local/CoAPMessage.h"
 3317              		.file 11 "C:/Users/stapi/OneDrive/Desktop/GD32VW553/V1_MQTT_OK/GD32VW55X_Wifi_BLE_SDK/GD32VW55x_RE
 3318              		.file 12 "..\\..\\..\\..\\cloud\\alicloud\\src\\infra\\log/iotx_log.h"
 3319              		.file 13 "..\\..\\..\\..\\cloud\\alicloud\\src\\infra\\utils/digest/utils_hmac.h"
 3320              		.file 14 "c:\\users\\stapi\\onedrive\\desktop\\gd32vw553\\embeddedbuilder_v1.4.7.26843\\tools\\nuc
 3321              		.file 15 "..\\..\\..\\..\\cloud\\alicloud\\src\\infra\\utils\\misc/json_parser.h"
 3322              		.file 16 "..\\..\\..\\..\\cloud\\alicloud\\src\\infra\\utils/iotx_utils.h"
 3323              		.file 17 "c:\\users\\stapi\\onedrive\\desktop\\gd32vw553\\embeddedbuilder_v1.4.7.26843\\tools\\nuc
 3324              		.file 18 "C:/Users/stapi/OneDrive/Desktop/GD32VW553/V1_MQTT_OK/GD32VW55X_Wifi_BLE_SDK/GD32VW55x_RE
 3325              		.file 19 "c:\\users\\stapi\\onedrive\\desktop\\gd32vw553\\embeddedbuilder_v1.4.7.26843\\tools\\nuc
 3326              		.file 20 "<built-in>"
 3327              		.file 21 "c:\\users\\stapi\\onedrive\\desktop\\gd32vw553\\embeddedbuilder_v1.4.7.26843\\tools\\nuc
 3328              		.file 22 "..\\..\\..\\..\\cloud\\alicloud\\src\\protocol\\coap\\local/CoAPResource.h"
 3329              		.file 23 "..\\..\\..\\..\\cloud\\alicloud\\src\\protocol\\coap\\local/CoAPObserve.h"
 3330              		.file 24 "..\\..\\..\\..\\cloud\\alicloud\\src\\infra\\utils\\digest/utils_md5.h"
DEFINED SYMBOLS
                            *ABS*:0000000000000000 alcs_api.c
C:\Users\stapi\AppData\Local\Temp\ccKCoria.s:13     .text.add_request_to_list:0000000000000000 add_request_to_list
C:\Users\stapi\AppData\Local\Temp\ccKCoria.s:17     .text.add_request_to_list:0000000000000000 .L0 
C:\Users\stapi\AppData\Local\Temp\ccKCoria.s:19     .text.add_request_to_list:0000000000000000 .L0 
C:\Users\stapi\AppData\Local\Temp\ccKCoria.s:20     .text.add_request_to_list:0000000000000008 .L0 
C:\Users\stapi\AppData\Local\Temp\ccKCoria.s:21     .text.add_request_to_list:0000000000000008 .L0 
C:\Users\stapi\AppData\Local\Temp\ccKCoria.s:22     .text.add_request_to_list:0000000000000008 .L0 
C:\Users\stapi\AppData\Local\Temp\ccKCoria.s:23     .text.add_request_to_list:0000000000000008 .L0 
C:\Users\stapi\AppData\Local\Temp\ccKCoria.s:25     .text.add_request_to_list:0000000000000008 .L0 
C:\Users\stapi\AppData\Local\Temp\ccKCoria.s:28     .text.add_request_to_list:0000000000000010 .L0 
C:\Users\stapi\AppData\Local\Temp\ccKCoria.s:30     .text.add_request_to_list:0000000000000012 .L0 
C:\Users\stapi\AppData\Local\Temp\ccKCoria.s:38     .text.add_request_to_list:000000000000001c .L0 
C:\Users\stapi\AppData\Local\Temp\ccKCoria.s:39     .text.add_request_to_list:000000000000001c .L0 
C:\Users\stapi\AppData\Local\Temp\ccKCoria.s:43     .text.add_request_to_list:000000000000001e .L0 
C:\Users\stapi\AppData\Local\Temp\ccKCoria.s:49     .text.add_request_to_list:0000000000000022 .L0 
C:\Users\stapi\AppData\Local\Temp\ccKCoria.s:51     .text.add_request_to_list:0000000000000024 .L0 
C:\Users\stapi\AppData\Local\Temp\ccKCoria.s:58     .text.add_request_to_list:0000000000000028 .L0 
C:\Users\stapi\AppData\Local\Temp\ccKCoria.s:59     .text.add_request_to_list:0000000000000028 .L0 
C:\Users\stapi\AppData\Local\Temp\ccKCoria.s:60     .text.add_request_to_list:0000000000000028 .L0 
C:\Users\stapi\AppData\Local\Temp\ccKCoria.s:62     .text.add_request_to_list:000000000000002a .L0 
C:\Users\stapi\AppData\Local\Temp\ccKCoria.s:63     .text.add_request_to_list:000000000000002a .L0 
C:\Users\stapi\AppData\Local\Temp\ccKCoria.s:65     .text.add_request_to_list:000000000000002c .L0 
C:\Users\stapi\AppData\Local\Temp\ccKCoria.s:66     .text.add_request_to_list:000000000000002c .L0 
C:\Users\stapi\AppData\Local\Temp\ccKCoria.s:68     .text.add_request_to_list:000000000000002e .L0 
C:\Users\stapi\AppData\Local\Temp\ccKCoria.s:69     .text.add_request_to_list:000000000000002e .L0 
C:\Users\stapi\AppData\Local\Temp\ccKCoria.s:76     .text.add_request_to_list:0000000000000030 .L0 
C:\Users\stapi\AppData\Local\Temp\ccKCoria.s:79     .text.add_request_to_list:0000000000000038 .L0 
C:\Users\stapi\AppData\Local\Temp\ccKCoria.s:80     .text.add_request_to_list:0000000000000040 .L0 
C:\Users\stapi\AppData\Local\Temp\ccKCoria.s:81     .text.add_request_to_list:0000000000000040 .L0 
C:\Users\stapi\AppData\Local\Temp\ccKCoria.s:82     .text.add_request_to_list:0000000000000040 .L0 
C:\Users\stapi\AppData\Local\Temp\ccKCoria.s:83     .text.add_request_to_list:0000000000000040 .L0 
C:\Users\stapi\AppData\Local\Temp\ccKCoria.s:84     .text.add_request_to_list:0000000000000040 .L0 
C:\Users\stapi\AppData\Local\Temp\ccKCoria.s:91     .text.remove_request:0000000000000000 remove_request
C:\Users\stapi\AppData\Local\Temp\ccKCoria.s:94     .text.remove_request:0000000000000000 .L0 
C:\Users\stapi\AppData\Local\Temp\ccKCoria.s:96     .text.remove_request:0000000000000000 .L0 
C:\Users\stapi\AppData\Local\Temp\ccKCoria.s:97     .text.remove_request:0000000000000000 .L0 
C:\Users\stapi\AppData\Local\Temp\ccKCoria.s:98     .text.remove_request:0000000000000000 .L0 
C:\Users\stapi\AppData\Local\Temp\ccKCoria.s:105    .text.remove_request:0000000000000002 .L0 
C:\Users\stapi\AppData\Local\Temp\ccKCoria.s:106    .text.remove_request:0000000000000002 .L0 
C:\Users\stapi\AppData\Local\Temp\ccKCoria.s:107    .text.remove_request:0000000000000002 .L0 
C:\Users\stapi\AppData\Local\Temp\ccKCoria.s:110    .text.remove_request:0000000000000004 .L0 
C:\Users\stapi\AppData\Local\Temp\ccKCoria.s:111    .text.remove_request:0000000000000004 .L0 
C:\Users\stapi\AppData\Local\Temp\ccKCoria.s:114    .text.remove_request:0000000000000006 .L0 
C:\Users\stapi\AppData\Local\Temp\ccKCoria.s:115    .text.remove_request:0000000000000006 .L0 
C:\Users\stapi\AppData\Local\Temp\ccKCoria.s:117    .text.remove_request:0000000000000008 .L0 
C:\Users\stapi\AppData\Local\Temp\ccKCoria.s:118    .text.remove_request:0000000000000008 .L0 
C:\Users\stapi\AppData\Local\Temp\ccKCoria.s:123    .text.remove_request:000000000000000a .L0 
C:\Users\stapi\AppData\Local\Temp\ccKCoria.s:129    .text.remove_request:0000000000000014 .L0 
C:\Users\stapi\AppData\Local\Temp\ccKCoria.s:146    .text.remove_session:0000000000000000 remove_session
C:\Users\stapi\AppData\Local\Temp\ccKCoria.s:149    .text.remove_session:0000000000000000 .L0 
C:\Users\stapi\AppData\Local\Temp\ccKCoria.s:151    .text.remove_session:0000000000000000 .L0 
C:\Users\stapi\AppData\Local\Temp\ccKCoria.s:152    .text.remove_session:0000000000000008 .L0 
C:\Users\stapi\AppData\Local\Temp\ccKCoria.s:153    .text.remove_session:0000000000000008 .L0 
C:\Users\stapi\AppData\Local\Temp\ccKCoria.s:154    .text.remove_session:0000000000000008 .L0 
C:\Users\stapi\AppData\Local\Temp\ccKCoria.s:155    .text.remove_session:0000000000000008 .L0 
C:\Users\stapi\AppData\Local\Temp\ccKCoria.s:157    .text.remove_session:0000000000000008 .L0 
C:\Users\stapi\AppData\Local\Temp\ccKCoria.s:158    .text.remove_session:0000000000000008 .L0 
C:\Users\stapi\AppData\Local\Temp\ccKCoria.s:159    .text.remove_session:0000000000000008 .L0 
C:\Users\stapi\AppData\Local\Temp\ccKCoria.s:161    .text.remove_session:000000000000000a .L0 
C:\Users\stapi\AppData\Local\Temp\ccKCoria.s:165    .text.remove_session:0000000000000012 .L0 
C:\Users\stapi\AppData\Local\Temp\ccKCoria.s:167    .text.remove_session:0000000000000014 .L0 
C:\Users\stapi\AppData\Local\Temp\ccKCoria.s:170    .text.remove_session:000000000000001c .L0 
C:\Users\stapi\AppData\Local\Temp\ccKCoria.s:175    .text.remove_session:000000000000002c .L0 
C:\Users\stapi\AppData\Local\Temp\ccKCoria.s:180    .text.remove_session:000000000000003c .L0 
C:\Users\stapi\AppData\Local\Temp\ccKCoria.s:181    .text.remove_session:000000000000003c .L0 
C:\Users\stapi\AppData\Local\Temp\ccKCoria.s:182    .text.remove_session:000000000000003c .L0 
C:\Users\stapi\AppData\Local\Temp\ccKCoria.s:187    .text.remove_session:000000000000003e .L0 
C:\Users\stapi\AppData\Local\Temp\ccKCoria.s:194    .text.remove_session:000000000000004c .L0 
C:\Users\stapi\AppData\Local\Temp\ccKCoria.s:195    .text.remove_session:000000000000004c .L0 
C:\Users\stapi\AppData\Local\Temp\ccKCoria.s:196    .text.remove_session:000000000000004c .L0 
C:\Users\stapi\AppData\Local\Temp\ccKCoria.s:199    .text.remove_session:0000000000000050 .L0 
C:\Users\stapi\AppData\Local\Temp\ccKCoria.s:200    .text.remove_session:0000000000000050 .L0 
C:\Users\stapi\AppData\Local\Temp\ccKCoria.s:205    .text.remove_session:0000000000000054 .L0 
C:\Users\stapi\AppData\Local\Temp\ccKCoria.s:206    .text.remove_session:0000000000000054 .L0 
C:\Users\stapi\AppData\Local\Temp\ccKCoria.s:210    .text.remove_session:0000000000000056 .L0 
C:\Users\stapi\AppData\Local\Temp\ccKCoria.s:212    .text.remove_session:0000000000000058 .L0 
C:\Users\stapi\AppData\Local\Temp\ccKCoria.s:213    .text.remove_session:0000000000000058 .L0 
C:\Users\stapi\AppData\Local\Temp\ccKCoria.s:218    .text.remove_session:000000000000005a .L0 
C:\Users\stapi\AppData\Local\Temp\ccKCoria.s:224    .text.remove_session:0000000000000062 .L0 
C:\Users\stapi\AppData\Local\Temp\ccKCoria.s:225    .text.remove_session:000000000000006a .L0 
C:\Users\stapi\AppData\Local\Temp\ccKCoria.s:226    .text.remove_session:000000000000006a .L0 
C:\Users\stapi\AppData\Local\Temp\ccKCoria.s:227    .text.remove_session:000000000000006a .L0 
C:\Users\stapi\AppData\Local\Temp\ccKCoria.s:228    .text.remove_session:000000000000006a .L0 
C:\Users\stapi\AppData\Local\Temp\ccKCoria.s:229    .text.remove_session:000000000000006a .L0 
C:\Users\stapi\AppData\Local\Temp\ccKCoria.s:236    .text.gen_random_key:0000000000000000 gen_random_key
C:\Users\stapi\AppData\Local\Temp\ccKCoria.s:239    .text.gen_random_key:0000000000000000 .L0 
C:\Users\stapi\AppData\Local\Temp\ccKCoria.s:241    .text.gen_random_key:0000000000000000 .L0 
C:\Users\stapi\AppData\Local\Temp\ccKCoria.s:242    .text.gen_random_key:0000000000000008 .L0 
C:\Users\stapi\AppData\Local\Temp\ccKCoria.s:243    .text.gen_random_key:0000000000000008 .L0 
C:\Users\stapi\AppData\Local\Temp\ccKCoria.s:244    .text.gen_random_key:0000000000000008 .L0 
C:\Users\stapi\AppData\Local\Temp\ccKCoria.s:245    .text.gen_random_key:0000000000000008 .L0 
C:\Users\stapi\AppData\Local\Temp\ccKCoria.s:246    .text.gen_random_key:0000000000000008 .L0 
C:\Users\stapi\AppData\Local\Temp\ccKCoria.s:247    .text.gen_random_key:0000000000000008 .L0 
C:\Users\stapi\AppData\Local\Temp\ccKCoria.s:248    .text.gen_random_key:0000000000000008 .L0 
C:\Users\stapi\AppData\Local\Temp\ccKCoria.s:249    .text.gen_random_key:0000000000000008 .L0 
C:\Users\stapi\AppData\Local\Temp\ccKCoria.s:250    .text.gen_random_key:0000000000000008 .L0 
C:\Users\stapi\AppData\Local\Temp\ccKCoria.s:251    .text.gen_random_key:0000000000000008 .L0 
C:\Users\stapi\AppData\Local\Temp\ccKCoria.s:252    .text.gen_random_key:0000000000000008 .L0 
C:\Users\stapi\AppData\Local\Temp\ccKCoria.s:255    .text.gen_random_key:0000000000000008 .L0 
C:\Users\stapi\AppData\Local\Temp\ccKCoria.s:256    .text.gen_random_key:0000000000000008 .L0 
C:\Users\stapi\AppData\Local\Temp\ccKCoria.s:258    .text.gen_random_key:000000000000000a .L0 
C:\Users\stapi\AppData\Local\Temp\ccKCoria.s:260    .text.gen_random_key:000000000000000c .L0 
C:\Users\stapi\AppData\Local\Temp\ccKCoria.s:263    .text.gen_random_key:000000000000000e .L0 
C:\Users\stapi\AppData\Local\Temp\ccKCoria.s:265    .text.gen_random_key:0000000000000010 .L0 
C:\Users\stapi\AppData\Local\Temp\ccKCoria.s:268    .text.gen_random_key:0000000000000018 .L0 
C:\Users\stapi\AppData\Local\Temp\ccKCoria.s:269    .text.gen_random_key:0000000000000018 .L0 
C:\Users\stapi\AppData\Local\Temp\ccKCoria.s:273    .text.gen_random_key:0000000000000022 .L0 
C:\Users\stapi\AppData\Local\Temp\ccKCoria.s:276    .text.gen_random_key:000000000000002a .L0 
C:\Users\stapi\AppData\Local\Temp\ccKCoria.s:278    .text.gen_random_key:000000000000002c .L0 
C:\Users\stapi\AppData\Local\Temp\ccKCoria.s:281    .text.gen_random_key:000000000000002e .L0 
C:\Users\stapi\AppData\Local\Temp\ccKCoria.s:283    .text.gen_random_key:0000000000000030 .L0 
C:\Users\stapi\AppData\Local\Temp\ccKCoria.s:285    .text.gen_random_key:0000000000000032 .L0 
C:\Users\stapi\AppData\Local\Temp\ccKCoria.s:287    .text.gen_random_key:0000000000000034 .L0 
C:\Users\stapi\AppData\Local\Temp\ccKCoria.s:289    .text.gen_random_key:0000000000000036 .L0 
C:\Users\stapi\AppData\Local\Temp\ccKCoria.s:291    .text.gen_random_key:0000000000000038 .L0 
C:\Users\stapi\AppData\Local\Temp\ccKCoria.s:295    .text.gen_random_key:000000000000003c .L0 
C:\Users\stapi\AppData\Local\Temp\ccKCoria.s:296    .text.gen_random_key:000000000000003c .L0 
C:\Users\stapi\AppData\Local\Temp\ccKCoria.s:299    .text.gen_random_key:0000000000000044 .L0 
C:\Users\stapi\AppData\Local\Temp\ccKCoria.s:300    .text.gen_random_key:000000000000004c .L0 
C:\Users\stapi\AppData\Local\Temp\ccKCoria.s:301    .text.gen_random_key:000000000000004c .L0 
C:\Users\stapi\AppData\Local\Temp\ccKCoria.s:302    .text.gen_random_key:000000000000004c .L0 
C:\Users\stapi\AppData\Local\Temp\ccKCoria.s:303    .text.gen_random_key:000000000000004c .L0 
C:\Users\stapi\AppData\Local\Temp\ccKCoria.s:304    .text.gen_random_key:000000000000004c .L0 
C:\Users\stapi\AppData\Local\Temp\ccKCoria.s:305    .text.gen_random_key:000000000000004c .L0 
C:\Users\stapi\AppData\Local\Temp\ccKCoria.s:306    .text.gen_random_key:000000000000004c .L0 
C:\Users\stapi\AppData\Local\Temp\ccKCoria.s:307    .text.gen_random_key:000000000000004c .L0 
C:\Users\stapi\AppData\Local\Temp\ccKCoria.s:308    .text.gen_random_key:000000000000004c .L0 
C:\Users\stapi\AppData\Local\Temp\ccKCoria.s:309    .text.gen_random_key:000000000000004c .L0 
C:\Users\stapi\AppData\Local\Temp\ccKCoria.s:310    .text.gen_random_key:000000000000004c .L0 
C:\Users\stapi\AppData\Local\Temp\ccKCoria.s:311    .text.gen_random_key:000000000000004c .L0 
C:\Users\stapi\AppData\Local\Temp\ccKCoria.s:313    .text.gen_random_key:000000000000004c .L0 
C:\Users\stapi\AppData\Local\Temp\ccKCoria.s:315    .text.gen_random_key:000000000000004c .L0 
C:\Users\stapi\AppData\Local\Temp\ccKCoria.s:316    .text.gen_random_key:000000000000004c .L0 
C:\Users\stapi\AppData\Local\Temp\ccKCoria.s:319    .text.gen_random_key:0000000000000054 .L0 
C:\Users\stapi\AppData\Local\Temp\ccKCoria.s:322    .text.gen_random_key:0000000000000058 .L0 
C:\Users\stapi\AppData\Local\Temp\ccKCoria.s:326    .text.gen_random_key:0000000000000062 .L0 
C:\Users\stapi\AppData\Local\Temp\ccKCoria.s:327    .text.gen_random_key:0000000000000062 .L0 
C:\Users\stapi\AppData\Local\Temp\ccKCoria.s:330    .text.gen_random_key:000000000000006a .L0 
C:\Users\stapi\AppData\Local\Temp\ccKCoria.s:332    .text.gen_random_key:000000000000006e .L0 
C:\Users\stapi\AppData\Local\Temp\ccKCoria.s:335    .text.gen_random_key:0000000000000072 .L0 
C:\Users\stapi\AppData\Local\Temp\ccKCoria.s:338    .text.gen_random_key:0000000000000076 .L0 
C:\Users\stapi\AppData\Local\Temp\ccKCoria.s:340    .text.gen_random_key:0000000000000076 .L0 
C:\Users\stapi\AppData\Local\Temp\ccKCoria.s:346    .text.gen_random_key:000000000000007a .L0 
C:\Users\stapi\AppData\Local\Temp\ccKCoria.s:347    .text.gen_random_key:000000000000007a .L0 
C:\Users\stapi\AppData\Local\Temp\ccKCoria.s:350    .text.gen_random_key:0000000000000082 .L0 
C:\Users\stapi\AppData\Local\Temp\ccKCoria.s:352    .text.gen_random_key:0000000000000086 .L0 
C:\Users\stapi\AppData\Local\Temp\ccKCoria.s:357    .text.gen_random_key:000000000000008c .L0 
C:\Users\stapi\AppData\Local\Temp\ccKCoria.s:358    .text.gen_random_key:000000000000008c .L0 
C:\Users\stapi\AppData\Local\Temp\ccKCoria.s:361    .text.gen_random_key:0000000000000094 .L0 
C:\Users\stapi\AppData\Local\Temp\ccKCoria.s:363    .text.gen_random_key:0000000000000098 .L0 
C:\Users\stapi\AppData\Local\Temp\ccKCoria.s:365    .text.gen_random_key:000000000000009c .L0 
C:\Users\stapi\AppData\Local\Temp\ccKCoria.s:367    .text.gen_random_key:00000000000000a0 .L0 
C:\Users\stapi\AppData\Local\Temp\ccKCoria.s:371    .text.gen_random_key:00000000000000a2 .L0 
C:\Users\stapi\AppData\Local\Temp\ccKCoria.s:372    .text.gen_random_key:00000000000000a2 .L0 
C:\Users\stapi\AppData\Local\Temp\ccKCoria.s:374    .text.gen_random_key:00000000000000a6 .L0 
C:\Users\stapi\AppData\Local\Temp\ccKCoria.s:375    .text.gen_random_key:00000000000000a8 .L0 
C:\Users\stapi\AppData\Local\Temp\ccKCoria.s:389    .text.alcs_auth_init:0000000000000000 alcs_auth_init
C:\Users\stapi\AppData\Local\Temp\ccKCoria.s:392    .text.alcs_auth_init:0000000000000000 .L0 
C:\Users\stapi\AppData\Local\Temp\ccKCoria.s:394    .text.alcs_auth_init:0000000000000000 .L0 
C:\Users\stapi\AppData\Local\Temp\ccKCoria.s:395    .text.alcs_auth_init:0000000000000000 .L0 
C:\Users\stapi\AppData\Local\Temp\ccKCoria.s:396    .text.alcs_auth_init:0000000000000000 .L0 
C:\Users\stapi\AppData\Local\Temp\ccKCoria.s:399    .text.alcs_auth_init:0000000000000008 .L0 
C:\Users\stapi\AppData\Local\Temp\ccKCoria.s:402    .text.alcs_auth_init:0000000000000010 .L0 
C:\Users\stapi\AppData\Local\Temp\ccKCoria.s:403    .text.alcs_auth_init:0000000000000018 .L0 
C:\Users\stapi\AppData\Local\Temp\ccKCoria.s:404    .text.alcs_auth_init:0000000000000018 .L0 
C:\Users\stapi\AppData\Local\Temp\ccKCoria.s:405    .text.alcs_auth_init:0000000000000018 .L0 
C:\Users\stapi\AppData\Local\Temp\ccKCoria.s:406    .text.alcs_auth_init:0000000000000018 .L0 
C:\Users\stapi\AppData\Local\Temp\ccKCoria.s:407    .text.alcs_auth_init:0000000000000018 .L0 
C:\Users\stapi\AppData\Local\Temp\ccKCoria.s:408    .text.alcs_auth_init:0000000000000018 .L0 
C:\Users\stapi\AppData\Local\Temp\ccKCoria.s:409    .text.alcs_auth_init:0000000000000018 .L0 
C:\Users\stapi\AppData\Local\Temp\ccKCoria.s:410    .text.alcs_auth_init:0000000000000018 .L0 
C:\Users\stapi\AppData\Local\Temp\ccKCoria.s:411    .text.alcs_auth_init:0000000000000018 .L0 
C:\Users\stapi\AppData\Local\Temp\ccKCoria.s:413    .text.alcs_auth_init:000000000000001a .L0 
C:\Users\stapi\AppData\Local\Temp\ccKCoria.s:415    .text.alcs_auth_init:000000000000001a .L0 
C:\Users\stapi\AppData\Local\Temp\ccKCoria.s:418    .text.alcs_auth_init:000000000000001e .L0 
C:\Users\stapi\AppData\Local\Temp\ccKCoria.s:422    .text.alcs_auth_init:0000000000000024 .L0 
C:\Users\stapi\AppData\Local\Temp\ccKCoria.s:424    .text.alcs_auth_init:0000000000000028 .L0 
C:\Users\stapi\AppData\Local\Temp\ccKCoria.s:425    .text.alcs_auth_init:0000000000000028 .L0 
C:\Users\stapi\AppData\Local\Temp\ccKCoria.s:428    .text.alcs_auth_init:0000000000000030 .L0 
C:\Users\stapi\AppData\Local\Temp\ccKCoria.s:432    .text.alcs_auth_init:000000000000003a .L0 
C:\Users\stapi\AppData\Local\Temp\ccKCoria.s:435    .text.alcs_auth_init:0000000000000042 .L0 
C:\Users\stapi\AppData\Local\Temp\ccKCoria.s:437    .text.alcs_auth_init:0000000000000046 .L0 
C:\Users\stapi\AppData\Local\Temp\ccKCoria.s:441    .text.alcs_auth_init:0000000000000050 .L0 
C:\Users\stapi\AppData\Local\Temp\ccKCoria.s:444    .text.alcs_auth_init:0000000000000054 .L0 
C:\Users\stapi\AppData\Local\Temp\ccKCoria.s:445    .text.alcs_auth_init:0000000000000054 .L0 
C:\Users\stapi\AppData\Local\Temp\ccKCoria.s:451    .text.alcs_auth_init:0000000000000060 .L0 
C:\Users\stapi\AppData\Local\Temp\ccKCoria.s:452    .text.alcs_auth_init:0000000000000060 .L0 
C:\Users\stapi\AppData\Local\Temp\ccKCoria.s:456    .text.alcs_auth_init:000000000000006a .L0 
C:\Users\stapi\AppData\Local\Temp\ccKCoria.s:462    .text.alcs_auth_init:000000000000006c .L0 
C:\Users\stapi\AppData\Local\Temp\ccKCoria.s:466    .text.alcs_auth_init:0000000000000070 .L0 
C:\Users\stapi\AppData\Local\Temp\ccKCoria.s:468    .text.alcs_auth_init:0000000000000074 .L0 
C:\Users\stapi\AppData\Local\Temp\ccKCoria.s:470    .text.alcs_auth_init:0000000000000078 .L0 
C:\Users\stapi\AppData\Local\Temp\ccKCoria.s:471    .text.alcs_auth_init:0000000000000078 .L0 
C:\Users\stapi\AppData\Local\Temp\ccKCoria.s:473    .text.alcs_auth_init:000000000000007c .L0 
C:\Users\stapi\AppData\Local\Temp\ccKCoria.s:477    .text.alcs_auth_init:000000000000007c .L0 
C:\Users\stapi\AppData\Local\Temp\ccKCoria.s:478    .text.alcs_auth_init:000000000000007c .L0 
C:\Users\stapi\AppData\Local\Temp\ccKCoria.s:481    .text.alcs_auth_init:000000000000007c .L0 
C:\Users\stapi\AppData\Local\Temp\ccKCoria.s:484    .text.alcs_auth_init:000000000000007c .L0 
C:\Users\stapi\AppData\Local\Temp\ccKCoria.s:485    .text.alcs_auth_init:000000000000007c .L0 
C:\Users\stapi\AppData\Local\Temp\ccKCoria.s:486    .text.alcs_auth_init:000000000000007c .L0 
C:\Users\stapi\AppData\Local\Temp\ccKCoria.s:488    .text.alcs_auth_init:000000000000007e .L0 
C:\Users\stapi\AppData\Local\Temp\ccKCoria.s:489    .text.alcs_auth_init:000000000000007e .L0 
C:\Users\stapi\AppData\Local\Temp\ccKCoria.s:494    .text.alcs_auth_init:0000000000000080 .L0 
C:\Users\stapi\AppData\Local\Temp\ccKCoria.s:495    .text.alcs_auth_init:0000000000000080 .L0 
C:\Users\stapi\AppData\Local\Temp\ccKCoria.s:502    .text.alcs_auth_init:0000000000000088 .L0 
C:\Users\stapi\AppData\Local\Temp\ccKCoria.s:503    .text.alcs_auth_init:0000000000000088 .L0 
C:\Users\stapi\AppData\Local\Temp\ccKCoria.s:504    .text.alcs_auth_init:0000000000000088 .L0 
C:\Users\stapi\AppData\Local\Temp\ccKCoria.s:508    .text.alcs_auth_init:000000000000008c .L0 
C:\Users\stapi\AppData\Local\Temp\ccKCoria.s:512    .text.alcs_auth_init:0000000000000090 .L0 
C:\Users\stapi\AppData\Local\Temp\ccKCoria.s:514    .text.alcs_auth_init:0000000000000092 .L0 
C:\Users\stapi\AppData\Local\Temp\ccKCoria.s:515    .text.alcs_auth_init:0000000000000092 .L0 
C:\Users\stapi\AppData\Local\Temp\ccKCoria.s:522    .text.alcs_auth_init:0000000000000094 .L0 
C:\Users\stapi\AppData\Local\Temp\ccKCoria.s:525    .text.alcs_auth_init:0000000000000094 .L0 
C:\Users\stapi\AppData\Local\Temp\ccKCoria.s:526    .text.alcs_auth_init:0000000000000094 .L0 
C:\Users\stapi\AppData\Local\Temp\ccKCoria.s:530    .text.alcs_auth_init:0000000000000096 .L0 
C:\Users\stapi\AppData\Local\Temp\ccKCoria.s:534    .text.alcs_auth_init:000000000000009a .L0 
C:\Users\stapi\AppData\Local\Temp\ccKCoria.s:541    .text.alcs_auth_init:00000000000000a6 .L0 
C:\Users\stapi\AppData\Local\Temp\ccKCoria.s:543    .text.alcs_auth_init:00000000000000a8 .L0 
C:\Users\stapi\AppData\Local\Temp\ccKCoria.s:544    .text.alcs_auth_init:00000000000000a8 .L0 
C:\Users\stapi\AppData\Local\Temp\ccKCoria.s:549    .text.alcs_auth_init:00000000000000aa .L0 
C:\Users\stapi\AppData\Local\Temp\ccKCoria.s:550    .text.alcs_auth_init:00000000000000aa .L0 
C:\Users\stapi\AppData\Local\Temp\ccKCoria.s:553    .text.alcs_auth_init:00000000000000b2 .L0 
C:\Users\stapi\AppData\Local\Temp\ccKCoria.s:567    .text.alcs_auth_init:00000000000000d8 .L0 
C:\Users\stapi\AppData\Local\Temp\ccKCoria.s:584    .text.alcs_auth_init:0000000000000104 .L0 
C:\Users\stapi\AppData\Local\Temp\ccKCoria.s:585    .text.alcs_auth_init:0000000000000104 .L0 
C:\Users\stapi\AppData\Local\Temp\ccKCoria.s:586    .text.alcs_auth_init:0000000000000104 .L0 
C:\Users\stapi\AppData\Local\Temp\ccKCoria.s:587    .text.alcs_auth_init:0000000000000104 .L0 
C:\Users\stapi\AppData\Local\Temp\ccKCoria.s:590    .text.alcs_auth_init:000000000000010c .L0 
C:\Users\stapi\AppData\Local\Temp\ccKCoria.s:592    .text.alcs_auth_init:000000000000010e .L0 
C:\Users\stapi\AppData\Local\Temp\ccKCoria.s:593    .text.alcs_auth_init:000000000000010e .L0 
C:\Users\stapi\AppData\Local\Temp\ccKCoria.s:595    .text.alcs_auth_init:0000000000000112 .L0 
C:\Users\stapi\AppData\Local\Temp\ccKCoria.s:597    .text.alcs_auth_init:000000000000011a .L0 
C:\Users\stapi\AppData\Local\Temp\ccKCoria.s:598    .text.alcs_auth_init:000000000000011a .L0 
C:\Users\stapi\AppData\Local\Temp\ccKCoria.s:599    .text.alcs_auth_init:000000000000011a .L0 
C:\Users\stapi\AppData\Local\Temp\ccKCoria.s:600    .text.alcs_auth_init:000000000000011a .L0 
C:\Users\stapi\AppData\Local\Temp\ccKCoria.s:601    .text.alcs_auth_init:000000000000011a .L0 
C:\Users\stapi\AppData\Local\Temp\ccKCoria.s:602    .text.alcs_auth_init:000000000000011a .L0 
C:\Users\stapi\AppData\Local\Temp\ccKCoria.s:603    .text.alcs_auth_init:000000000000011a .L0 
C:\Users\stapi\AppData\Local\Temp\ccKCoria.s:604    .text.alcs_auth_init:000000000000011a .L0 
C:\Users\stapi\AppData\Local\Temp\ccKCoria.s:605    .text.alcs_auth_init:000000000000011a .L0 
C:\Users\stapi\AppData\Local\Temp\ccKCoria.s:608    .text.alcs_auth_init:000000000000011a .L0 
C:\Users\stapi\AppData\Local\Temp\ccKCoria.s:612    .text.alcs_auth_init:000000000000011e .L0 
C:\Users\stapi\AppData\Local\Temp\ccKCoria.s:619    .text.alcs_auth_subdev_init:0000000000000000 alcs_auth_subdev_init
C:\Users\stapi\AppData\Local\Temp\ccKCoria.s:622    .text.alcs_auth_subdev_init:0000000000000000 .L0 
C:\Users\stapi\AppData\Local\Temp\ccKCoria.s:624    .text.alcs_auth_subdev_init:0000000000000000 .L0 
C:\Users\stapi\AppData\Local\Temp\ccKCoria.s:625    .text.alcs_auth_subdev_init:0000000000000008 .L0 
C:\Users\stapi\AppData\Local\Temp\ccKCoria.s:626    .text.alcs_auth_subdev_init:0000000000000008 .L0 
C:\Users\stapi\AppData\Local\Temp\ccKCoria.s:627    .text.alcs_auth_subdev_init:0000000000000008 .L0 
C:\Users\stapi\AppData\Local\Temp\ccKCoria.s:628    .text.alcs_auth_subdev_init:0000000000000008 .L0 
C:\Users\stapi\AppData\Local\Temp\ccKCoria.s:629    .text.alcs_auth_subdev_init:0000000000000008 .L0 
C:\Users\stapi\AppData\Local\Temp\ccKCoria.s:631    .text.alcs_auth_subdev_init:0000000000000008 .L0 
C:\Users\stapi\AppData\Local\Temp\ccKCoria.s:632    .text.alcs_auth_subdev_init:0000000000000008 .L0 
C:\Users\stapi\AppData\Local\Temp\ccKCoria.s:633    .text.alcs_auth_subdev_init:0000000000000008 .L0 
C:\Users\stapi\AppData\Local\Temp\ccKCoria.s:634    .text.alcs_auth_subdev_init:000000000000000a .L0 
C:\Users\stapi\AppData\Local\Temp\ccKCoria.s:636    .text.alcs_auth_subdev_init:000000000000000a .L0 
C:\Users\stapi\AppData\Local\Temp\ccKCoria.s:638    .text.alcs_auth_subdev_init:000000000000000c .L0 
C:\Users\stapi\AppData\Local\Temp\ccKCoria.s:642    .text.alcs_auth_subdev_init:0000000000000012 .L0 
C:\Users\stapi\AppData\Local\Temp\ccKCoria.s:645    .text.alcs_auth_subdev_init:0000000000000016 .L0 
C:\Users\stapi\AppData\Local\Temp\ccKCoria.s:654    .text.alcs_auth_subdev_init:000000000000002a .L0 
C:\Users\stapi\AppData\Local\Temp\ccKCoria.s:668    .text.alcs_auth_subdev_init:0000000000000050 .L0 
C:\Users\stapi\AppData\Local\Temp\ccKCoria.s:669    .text.alcs_auth_subdev_init:0000000000000052 .L0 
C:\Users\stapi\AppData\Local\Temp\ccKCoria.s:671    .text.alcs_auth_subdev_init:000000000000005a .L0 
C:\Users\stapi\AppData\Local\Temp\ccKCoria.s:672    .text.alcs_auth_subdev_init:000000000000005a .L0 
C:\Users\stapi\AppData\Local\Temp\ccKCoria.s:673    .text.alcs_auth_subdev_init:000000000000005a .L0 
C:\Users\stapi\AppData\Local\Temp\ccKCoria.s:674    .text.alcs_auth_subdev_init:000000000000005a .L0 
C:\Users\stapi\AppData\Local\Temp\ccKCoria.s:675    .text.alcs_auth_subdev_init:000000000000005a .L0 
C:\Users\stapi\AppData\Local\Temp\ccKCoria.s:676    .text.alcs_auth_subdev_init:000000000000005a .L0 
C:\Users\stapi\AppData\Local\Temp\ccKCoria.s:683    .text.alcs_auth_deinit:0000000000000000 alcs_auth_deinit
C:\Users\stapi\AppData\Local\Temp\ccKCoria.s:686    .text.alcs_auth_deinit:0000000000000000 .L0 
C:\Users\stapi\AppData\Local\Temp\ccKCoria.s:687    .text.alcs_auth_deinit:0000000000000000 .L0 
C:\Users\stapi\AppData\Local\Temp\ccKCoria.s:688    .text.alcs_auth_deinit:0000000000000000 .L0 
C:\Users\stapi\AppData\Local\Temp\ccKCoria.s:689    .text.alcs_auth_deinit:0000000000000000 .L0 
C:\Users\stapi\AppData\Local\Temp\ccKCoria.s:692    .text.alcs_auth_deinit:0000000000000008 .L0 
C:\Users\stapi\AppData\Local\Temp\ccKCoria.s:695    .text.alcs_auth_deinit:000000000000000e .L0 
C:\Users\stapi\AppData\Local\Temp\ccKCoria.s:696    .text.alcs_auth_deinit:0000000000000016 .L0 
C:\Users\stapi\AppData\Local\Temp\ccKCoria.s:697    .text.alcs_auth_deinit:0000000000000016 .L0 
C:\Users\stapi\AppData\Local\Temp\ccKCoria.s:698    .text.alcs_auth_deinit:0000000000000016 .L0 
C:\Users\stapi\AppData\Local\Temp\ccKCoria.s:700    .text.alcs_auth_deinit:0000000000000016 .L0 
C:\Users\stapi\AppData\Local\Temp\ccKCoria.s:701    .text.alcs_auth_deinit:0000000000000016 .L0 
C:\Users\stapi\AppData\Local\Temp\ccKCoria.s:703    .text.alcs_auth_deinit:000000000000001a .L0 
C:\Users\stapi\AppData\Local\Temp\ccKCoria.s:705    .text.alcs_auth_deinit:000000000000001e .L0 
C:\Users\stapi\AppData\Local\Temp\ccKCoria.s:706    .text.alcs_auth_deinit:000000000000001e .L0 
C:\Users\stapi\AppData\Local\Temp\ccKCoria.s:708    .text.alcs_auth_deinit:0000000000000022 .L0 
C:\Users\stapi\AppData\Local\Temp\ccKCoria.s:711    .text.alcs_auth_deinit:000000000000002a .L0 
C:\Users\stapi\AppData\Local\Temp\ccKCoria.s:714    .text.alcs_auth_deinit:0000000000000032 .L0 
C:\Users\stapi\AppData\Local\Temp\ccKCoria.s:715    .text.alcs_auth_deinit:0000000000000032 .L0 
C:\Users\stapi\AppData\Local\Temp\ccKCoria.s:717    .text.alcs_auth_deinit:0000000000000034 .L0 
C:\Users\stapi\AppData\Local\Temp\ccKCoria.s:719    .text.alcs_auth_deinit:0000000000000036 .L0 
C:\Users\stapi\AppData\Local\Temp\ccKCoria.s:722    .text.alcs_auth_deinit:000000000000003e .L0 
C:\Users\stapi\AppData\Local\Temp\ccKCoria.s:723    .text.alcs_auth_deinit:000000000000003e .L0 
C:\Users\stapi\AppData\Local\Temp\ccKCoria.s:726    .text.alcs_auth_deinit:0000000000000042 .L0 
C:\Users\stapi\AppData\Local\Temp\ccKCoria.s:727    .text.alcs_auth_deinit:000000000000004a .L0 
C:\Users\stapi\AppData\Local\Temp\ccKCoria.s:728    .text.alcs_auth_deinit:000000000000004a .L0 
C:\Users\stapi\AppData\Local\Temp\ccKCoria.s:729    .text.alcs_auth_deinit:000000000000004a .L0 
C:\Users\stapi\AppData\Local\Temp\ccKCoria.s:732    .text.alcs_auth_deinit:000000000000004c .L0 
C:\Users\stapi\AppData\Local\Temp\ccKCoria.s:746    .text.is_networkadd_same:0000000000000000 is_networkadd_same
C:\Users\stapi\AppData\Local\Temp\ccKCoria.s:749    .text.is_networkadd_same:0000000000000000 .L0 
C:\Users\stapi\AppData\Local\Temp\ccKCoria.s:751    .text.is_networkadd_same:0000000000000000 .L0 
C:\Users\stapi\AppData\Local\Temp\ccKCoria.s:752    .text.is_networkadd_same:0000000000000000 .L0 
C:\Users\stapi\AppData\Local\Temp\ccKCoria.s:753    .text.is_networkadd_same:0000000000000000 .L0 
C:\Users\stapi\AppData\Local\Temp\ccKCoria.s:755    .text.is_networkadd_same:0000000000000002 .L0 
C:\Users\stapi\AppData\Local\Temp\ccKCoria.s:756    .text.is_networkadd_same:000000000000000a .L0 
C:\Users\stapi\AppData\Local\Temp\ccKCoria.s:757    .text.is_networkadd_same:000000000000000a .L0 
C:\Users\stapi\AppData\Local\Temp\ccKCoria.s:758    .text.is_networkadd_same:000000000000000a .L0 
C:\Users\stapi\AppData\Local\Temp\ccKCoria.s:759    .text.is_networkadd_same:000000000000000a .L0 
C:\Users\stapi\AppData\Local\Temp\ccKCoria.s:763    .text.is_networkadd_same:000000000000000e .L0 
C:\Users\stapi\AppData\Local\Temp\ccKCoria.s:766    .text.is_networkadd_same:0000000000000010 .L0 
C:\Users\stapi\AppData\Local\Temp\ccKCoria.s:771    .text.is_networkadd_same:0000000000000012 .L0 
C:\Users\stapi\AppData\Local\Temp\ccKCoria.s:785    .text.is_networkadd_same:000000000000003c .L0 
C:\Users\stapi\AppData\Local\Temp\ccKCoria.s:786    .text.is_networkadd_same:000000000000003c .L0 
C:\Users\stapi\AppData\Local\Temp\ccKCoria.s:791    .text.is_networkadd_same:000000000000004a .L0 
C:\Users\stapi\AppData\Local\Temp\ccKCoria.s:796    .text.is_networkadd_same:0000000000000056 .L0 
C:\Users\stapi\AppData\Local\Temp\ccKCoria.s:802    .text.is_networkadd_same:000000000000005a .L0 
C:\Users\stapi\AppData\Local\Temp\ccKCoria.s:803    .text.is_networkadd_same:0000000000000062 .L0 
C:\Users\stapi\AppData\Local\Temp\ccKCoria.s:804    .text.is_networkadd_same:0000000000000062 .L0 
C:\Users\stapi\AppData\Local\Temp\ccKCoria.s:805    .text.is_networkadd_same:0000000000000062 .L0 
C:\Users\stapi\AppData\Local\Temp\ccKCoria.s:806    .text.is_networkadd_same:0000000000000062 .L0 
C:\Users\stapi\AppData\Local\Temp\ccKCoria.s:810    .text.is_networkadd_same:0000000000000062 .L0 
C:\Users\stapi\AppData\Local\Temp\ccKCoria.s:813    .text.is_networkadd_same:0000000000000064 .L0 
C:\Users\stapi\AppData\Local\Temp\ccKCoria.s:814    .text.is_networkadd_same:0000000000000066 .L0 
C:\Users\stapi\AppData\Local\Temp\ccKCoria.s:825    .text.get_session_by_checksum:0000000000000000 get_session_by_checksum
C:\Users\stapi\AppData\Local\Temp\ccKCoria.s:828    .text.get_session_by_checksum:0000000000000000 .L0 
C:\Users\stapi\AppData\Local\Temp\ccKCoria.s:830    .text.get_session_by_checksum:0000000000000000 .L0 
C:\Users\stapi\AppData\Local\Temp\ccKCoria.s:831    .text.get_session_by_checksum:0000000000000008 .L0 
C:\Users\stapi\AppData\Local\Temp\ccKCoria.s:832    .text.get_session_by_checksum:0000000000000008 .L0 
C:\Users\stapi\AppData\Local\Temp\ccKCoria.s:833    .text.get_session_by_checksum:0000000000000008 .L0 
C:\Users\stapi\AppData\Local\Temp\ccKCoria.s:834    .text.get_session_by_checksum:0000000000000008 .L0 
C:\Users\stapi\AppData\Local\Temp\ccKCoria.s:835    .text.get_session_by_checksum:0000000000000008 .L0 
C:\Users\stapi\AppData\Local\Temp\ccKCoria.s:836    .text.get_session_by_checksum:0000000000000008 .L0 
C:\Users\stapi\AppData\Local\Temp\ccKCoria.s:837    .text.get_session_by_checksum:0000000000000008 .L0 
C:\Users\stapi\AppData\Local\Temp\ccKCoria.s:838    .text.get_session_by_checksum:0000000000000008 .L0 
C:\Users\stapi\AppData\Local\Temp\ccKCoria.s:840    .text.get_session_by_checksum:0000000000000008 .L0 
C:\Users\stapi\AppData\Local\Temp\ccKCoria.s:841    .text.get_session_by_checksum:0000000000000008 .L0 
C:\Users\stapi\AppData\Local\Temp\ccKCoria.s:843    .text.get_session_by_checksum:000000000000000a .L0 
C:\Users\stapi\AppData\Local\Temp\ccKCoria.s:846    .text.get_session_by_checksum:000000000000000e .L0 
C:\Users\stapi\AppData\Local\Temp\ccKCoria.s:848    .text.get_session_by_checksum:0000000000000010 .L0 
C:\Users\stapi\AppData\Local\Temp\ccKCoria.s:855    .text.get_session_by_checksum:000000000000001c .L0 
C:\Users\stapi\AppData\Local\Temp\ccKCoria.s:856    .text.get_session_by_checksum:000000000000001c .L0 
C:\Users\stapi\AppData\Local\Temp\ccKCoria.s:860    .text.get_session_by_checksum:0000000000000028 .L0 
C:\Users\stapi\AppData\Local\Temp\ccKCoria.s:861    .text.get_session_by_checksum:0000000000000028 .L0 
C:\Users\stapi\AppData\Local\Temp\ccKCoria.s:869    .text.get_session_by_checksum:0000000000000036 .L0 
C:\Users\stapi\AppData\Local\Temp\ccKCoria.s:872    .text.get_session_by_checksum:000000000000003e .L0 
C:\Users\stapi\AppData\Local\Temp\ccKCoria.s:877    .text.get_session_by_checksum:000000000000004a .L0 
C:\Users\stapi\AppData\Local\Temp\ccKCoria.s:878    .text.get_session_by_checksum:000000000000004a .L0 
C:\Users\stapi\AppData\Local\Temp\ccKCoria.s:884    .text.get_session_by_checksum:000000000000004e .L0 
C:\Users\stapi\AppData\Local\Temp\ccKCoria.s:885    .text.get_session_by_checksum:000000000000004e .L0 
C:\Users\stapi\AppData\Local\Temp\ccKCoria.s:890    .text.get_session_by_checksum:000000000000005c .L0 
C:\Users\stapi\AppData\Local\Temp\ccKCoria.s:892    .text.get_session_by_checksum:000000000000005e .L0 
C:\Users\stapi\AppData\Local\Temp\ccKCoria.s:898    .text.get_session_by_checksum:000000000000006e .L0 
C:\Users\stapi\AppData\Local\Temp\ccKCoria.s:900    .text.get_session_by_checksum:0000000000000070 .L0 
C:\Users\stapi\AppData\Local\Temp\ccKCoria.s:912    .text.get_session_by_checksum:0000000000000098 .L0 
C:\Users\stapi\AppData\Local\Temp\ccKCoria.s:914    .text.get_session_by_checksum:000000000000009c .L0 
C:\Users\stapi\AppData\Local\Temp\ccKCoria.s:917    .text.get_session_by_checksum:000000000000009e .L0 
C:\Users\stapi\AppData\Local\Temp\ccKCoria.s:921    .text.get_session_by_checksum:00000000000000a6 .L0 
C:\Users\stapi\AppData\Local\Temp\ccKCoria.s:922    .text.get_session_by_checksum:00000000000000a6 .L0 
C:\Users\stapi\AppData\Local\Temp\ccKCoria.s:924    .text.get_session_by_checksum:00000000000000b0 .L0 
C:\Users\stapi\AppData\Local\Temp\ccKCoria.s:925    .text.get_session_by_checksum:00000000000000b0 .L0 
C:\Users\stapi\AppData\Local\Temp\ccKCoria.s:926    .text.get_session_by_checksum:00000000000000b0 .L0 
C:\Users\stapi\AppData\Local\Temp\ccKCoria.s:927    .text.get_session_by_checksum:00000000000000b0 .L0 
C:\Users\stapi\AppData\Local\Temp\ccKCoria.s:928    .text.get_session_by_checksum:00000000000000b0 .L0 
C:\Users\stapi\AppData\Local\Temp\ccKCoria.s:929    .text.get_session_by_checksum:00000000000000b0 .L0 
C:\Users\stapi\AppData\Local\Temp\ccKCoria.s:930    .text.get_session_by_checksum:00000000000000b0 .L0 
C:\Users\stapi\AppData\Local\Temp\ccKCoria.s:931    .text.get_session_by_checksum:00000000000000b0 .L0 
C:\Users\stapi\AppData\Local\Temp\ccKCoria.s:932    .text.get_session_by_checksum:00000000000000b0 .L0 
C:\Users\stapi\AppData\Local\Temp\ccKCoria.s:935    .text.get_session_by_checksum:00000000000000b0 .L0 
C:\Users\stapi\AppData\Local\Temp\ccKCoria.s:937    .text.get_session_by_checksum:00000000000000b0 .L0 
C:\Users\stapi\AppData\Local\Temp\ccKCoria.s:943    .text.get_session_by_checksum:00000000000000bc .L0 
C:\Users\stapi\AppData\Local\Temp\ccKCoria.s:954    .text.get_svr_session:0000000000000000 get_svr_session
C:\Users\stapi\AppData\Local\Temp\ccKCoria.s:957    .text.get_svr_session:0000000000000000 .L0 
C:\Users\stapi\AppData\Local\Temp\ccKCoria.s:959    .text.get_svr_session:0000000000000000 .L0 
C:\Users\stapi\AppData\Local\Temp\ccKCoria.s:960    .text.get_svr_session:0000000000000008 .L0 
C:\Users\stapi\AppData\Local\Temp\ccKCoria.s:961    .text.get_svr_session:0000000000000008 .L0 
C:\Users\stapi\AppData\Local\Temp\ccKCoria.s:962    .text.get_svr_session:0000000000000008 .L0 
C:\Users\stapi\AppData\Local\Temp\ccKCoria.s:963    .text.get_svr_session:0000000000000008 .L0 
C:\Users\stapi\AppData\Local\Temp\ccKCoria.s:965    .text.get_svr_session:0000000000000008 .L0 
C:\Users\stapi\AppData\Local\Temp\ccKCoria.s:966    .text.get_svr_session:0000000000000008 .L0 
C:\Users\stapi\AppData\Local\Temp\ccKCoria.s:970    .text.get_svr_session:0000000000000014 .L0 
C:\Users\stapi\AppData\Local\Temp\ccKCoria.s:971    .text.get_svr_session:0000000000000016 .L0 
C:\Users\stapi\AppData\Local\Temp\ccKCoria.s:973    .text.get_svr_session:0000000000000016 .L0 
C:\Users\stapi\AppData\Local\Temp\ccKCoria.s:980    .text.get_svr_session:000000000000001c .L0 
C:\Users\stapi\AppData\Local\Temp\ccKCoria.s:981    .text.get_svr_session:000000000000001c .L0 
C:\Users\stapi\AppData\Local\Temp\ccKCoria.s:982    .text.get_svr_session:000000000000001c .L0 
C:\Users\stapi\AppData\Local\Temp\ccKCoria.s:984    .text.get_svr_session:000000000000001e .L0 
C:\Users\stapi\AppData\Local\Temp\ccKCoria.s:986    .text.get_svr_session:0000000000000020 .L0 
C:\Users\stapi\AppData\Local\Temp\ccKCoria.s:988    .text.get_svr_session:0000000000000022 .L0 
C:\Users\stapi\AppData\Local\Temp\ccKCoria.s:990    .text.get_svr_session:0000000000000024 .L0 
C:\Users\stapi\AppData\Local\Temp\ccKCoria.s:993    .text.get_svr_session:0000000000000028 .L0 
C:\Users\stapi\AppData\Local\Temp\ccKCoria.s:996    .text.get_svr_session:000000000000002c .L0 
C:\Users\stapi\AppData\Local\Temp\ccKCoria.s:997    .text.get_svr_session:000000000000002c .L0 
C:\Users\stapi\AppData\Local\Temp\ccKCoria.s:1002   .text.get_svr_session:0000000000000034 .L0 
C:\Users\stapi\AppData\Local\Temp\ccKCoria.s:1005   .text.get_svr_session:000000000000003a .L0 
C:\Users\stapi\AppData\Local\Temp\ccKCoria.s:1006   .text.get_svr_session:000000000000003a .L0 
C:\Users\stapi\AppData\Local\Temp\ccKCoria.s:1010   .text.get_svr_session:0000000000000044 .L0 
C:\Users\stapi\AppData\Local\Temp\ccKCoria.s:1019   .text.get_svr_session:000000000000005e .L0 
C:\Users\stapi\AppData\Local\Temp\ccKCoria.s:1020   .text.get_svr_session:000000000000005e .L0 
C:\Users\stapi\AppData\Local\Temp\ccKCoria.s:1025   .text.get_svr_session:000000000000006a .L0 
C:\Users\stapi\AppData\Local\Temp\ccKCoria.s:1031   .text.get_svr_session:0000000000000078 .L0 
C:\Users\stapi\AppData\Local\Temp\ccKCoria.s:1032   .text.get_svr_session:0000000000000078 .L0 
C:\Users\stapi\AppData\Local\Temp\ccKCoria.s:1043   .text.get_svr_session:000000000000008a .L0 
C:\Users\stapi\AppData\Local\Temp\ccKCoria.s:1045   .text.get_svr_session:000000000000008e .L0 
C:\Users\stapi\AppData\Local\Temp\ccKCoria.s:1046   .text.get_svr_session:000000000000008e .L0 
C:\Users\stapi\AppData\Local\Temp\ccKCoria.s:1048   .text.get_svr_session:0000000000000096 .L0 
C:\Users\stapi\AppData\Local\Temp\ccKCoria.s:1049   .text.get_svr_session:0000000000000096 .L0 
C:\Users\stapi\AppData\Local\Temp\ccKCoria.s:1050   .text.get_svr_session:0000000000000096 .L0 
C:\Users\stapi\AppData\Local\Temp\ccKCoria.s:1051   .text.get_svr_session:0000000000000096 .L0 
C:\Users\stapi\AppData\Local\Temp\ccKCoria.s:1054   .text.get_svr_session:0000000000000096 .L0 
C:\Users\stapi\AppData\Local\Temp\ccKCoria.s:1058   .text.get_svr_session:0000000000000096 .L0 
C:\Users\stapi\AppData\Local\Temp\ccKCoria.s:1062   .text.get_svr_session:0000000000000098 .L0 
C:\Users\stapi\AppData\Local\Temp\ccKCoria.s:1063   .text.get_svr_session:000000000000009a .L0 
C:\Users\stapi\AppData\Local\Temp\ccKCoria.s:1070   .text.remove_session_safe:0000000000000000 remove_session_safe
C:\Users\stapi\AppData\Local\Temp\ccKCoria.s:1073   .text.remove_session_safe:0000000000000000 .L0 
C:\Users\stapi\AppData\Local\Temp\ccKCoria.s:1075   .text.remove_session_safe:0000000000000000 .L0 
C:\Users\stapi\AppData\Local\Temp\ccKCoria.s:1076   .text.remove_session_safe:0000000000000000 .L0 
C:\Users\stapi\AppData\Local\Temp\ccKCoria.s:1077   .text.remove_session_safe:0000000000000000 .L0 
C:\Users\stapi\AppData\Local\Temp\ccKCoria.s:1079   .text.remove_session_safe:0000000000000002 .L0 
C:\Users\stapi\AppData\Local\Temp\ccKCoria.s:1080   .text.remove_session_safe:000000000000000a .L0 
C:\Users\stapi\AppData\Local\Temp\ccKCoria.s:1081   .text.remove_session_safe:000000000000000a .L0 
C:\Users\stapi\AppData\Local\Temp\ccKCoria.s:1082   .text.remove_session_safe:000000000000000a .L0 
C:\Users\stapi\AppData\Local\Temp\ccKCoria.s:1083   .text.remove_session_safe:000000000000000a .L0 
C:\Users\stapi\AppData\Local\Temp\ccKCoria.s:1084   .text.remove_session_safe:000000000000000a .L0 
C:\Users\stapi\AppData\Local\Temp\ccKCoria.s:1085   .text.remove_session_safe:000000000000000a .L0 
C:\Users\stapi\AppData\Local\Temp\ccKCoria.s:1086   .text.remove_session_safe:000000000000000a .L0 
C:\Users\stapi\AppData\Local\Temp\ccKCoria.s:1087   .text.remove_session_safe:000000000000000a .L0 
C:\Users\stapi\AppData\Local\Temp\ccKCoria.s:1089   .text.remove_session_safe:000000000000000c .L0 
C:\Users\stapi\AppData\Local\Temp\ccKCoria.s:1092   .text.remove_session_safe:000000000000000e .L0 
C:\Users\stapi\AppData\Local\Temp\ccKCoria.s:1094   .text.remove_session_safe:0000000000000010 .L0 
C:\Users\stapi\AppData\Local\Temp\ccKCoria.s:1096   .text.remove_session_safe:0000000000000012 .L0 
C:\Users\stapi\AppData\Local\Temp\ccKCoria.s:1099   .text.remove_session_safe:0000000000000016 .L0 
C:\Users\stapi\AppData\Local\Temp\ccKCoria.s:1101   .text.remove_session_safe:0000000000000018 .L0 
C:\Users\stapi\AppData\Local\Temp\ccKCoria.s:1105   .text.remove_session_safe:000000000000001e .L0 
C:\Users\stapi\AppData\Local\Temp\ccKCoria.s:1106   .text.remove_session_safe:000000000000001e .L0 
C:\Users\stapi\AppData\Local\Temp\ccKCoria.s:1114   .text.remove_session_safe:0000000000000028 .L0 
C:\Users\stapi\AppData\Local\Temp\ccKCoria.s:1117   .text.remove_session_safe:000000000000002e .L0 
C:\Users\stapi\AppData\Local\Temp\ccKCoria.s:1118   .text.remove_session_safe:000000000000002e .L0 
C:\Users\stapi\AppData\Local\Temp\ccKCoria.s:1122   .text.remove_session_safe:0000000000000038 .L0 
C:\Users\stapi\AppData\Local\Temp\ccKCoria.s:1131   .text.remove_session_safe:0000000000000052 .L0 
C:\Users\stapi\AppData\Local\Temp\ccKCoria.s:1132   .text.remove_session_safe:0000000000000052 .L0 
C:\Users\stapi\AppData\Local\Temp\ccKCoria.s:1137   .text.remove_session_safe:000000000000005e .L0 
C:\Users\stapi\AppData\Local\Temp\ccKCoria.s:1143   .text.remove_session_safe:000000000000006c .L0 
C:\Users\stapi\AppData\Local\Temp\ccKCoria.s:1144   .text.remove_session_safe:000000000000006c .L0 
C:\Users\stapi\AppData\Local\Temp\ccKCoria.s:1151   .text.remove_session_safe:0000000000000082 .L0 
C:\Users\stapi\AppData\Local\Temp\ccKCoria.s:1152   .text.remove_session_safe:0000000000000082 .L0 
C:\Users\stapi\AppData\Local\Temp\ccKCoria.s:1160   .text.remove_session_safe:0000000000000090 .L0 
C:\Users\stapi\AppData\Local\Temp\ccKCoria.s:1163   .text.remove_session_safe:0000000000000098 .L0 
C:\Users\stapi\AppData\Local\Temp\ccKCoria.s:1164   .text.remove_session_safe:0000000000000098 .L0 
C:\Users\stapi\AppData\Local\Temp\ccKCoria.s:1169   .text.remove_session_safe:00000000000000a6 .L0 
C:\Users\stapi\AppData\Local\Temp\ccKCoria.s:1171   .text.remove_session_safe:00000000000000a8 .L0 
C:\Users\stapi\AppData\Local\Temp\ccKCoria.s:1177   .text.remove_session_safe:00000000000000b8 .L0 
C:\Users\stapi\AppData\Local\Temp\ccKCoria.s:1179   .text.remove_session_safe:00000000000000ba .L0 
C:\Users\stapi\AppData\Local\Temp\ccKCoria.s:1185   .text.remove_session_safe:00000000000000c6 .L0 
C:\Users\stapi\AppData\Local\Temp\ccKCoria.s:1186   .text.remove_session_safe:00000000000000c6 .L0 
C:\Users\stapi\AppData\Local\Temp\ccKCoria.s:1191   .text.remove_session_safe:00000000000000d2 .L0 
C:\Users\stapi\AppData\Local\Temp\ccKCoria.s:1192   .text.remove_session_safe:00000000000000d4 .L0 
C:\Users\stapi\AppData\Local\Temp\ccKCoria.s:1193   .text.remove_session_safe:00000000000000d4 .L0 
C:\Users\stapi\AppData\Local\Temp\ccKCoria.s:1195   .text.remove_session_safe:00000000000000dc .L0 
C:\Users\stapi\AppData\Local\Temp\ccKCoria.s:1196   .text.remove_session_safe:00000000000000dc .L0 
C:\Users\stapi\AppData\Local\Temp\ccKCoria.s:1197   .text.remove_session_safe:00000000000000dc .L0 
C:\Users\stapi\AppData\Local\Temp\ccKCoria.s:1198   .text.remove_session_safe:00000000000000dc .L0 
C:\Users\stapi\AppData\Local\Temp\ccKCoria.s:1199   .text.remove_session_safe:00000000000000dc .L0 
C:\Users\stapi\AppData\Local\Temp\ccKCoria.s:1200   .text.remove_session_safe:00000000000000dc .L0 
C:\Users\stapi\AppData\Local\Temp\ccKCoria.s:1201   .text.remove_session_safe:00000000000000dc .L0 
C:\Users\stapi\AppData\Local\Temp\ccKCoria.s:1202   .text.remove_session_safe:00000000000000dc .L0 
C:\Users\stapi\AppData\Local\Temp\ccKCoria.s:1205   .text.remove_session_safe:00000000000000dc .L0 
C:\Users\stapi\AppData\Local\Temp\ccKCoria.s:1207   .text.remove_session_safe:00000000000000dc .L0 
C:\Users\stapi\AppData\Local\Temp\ccKCoria.s:1215   .text.remove_session_safe:00000000000000e8 .L0 
C:\Users\stapi\AppData\Local\Temp\ccKCoria.s:1216   .text.remove_session_safe:00000000000000e8 .L0 
C:\Users\stapi\AppData\Local\Temp\ccKCoria.s:1217   .text.remove_session_safe:00000000000000e8 .L0 
C:\Users\stapi\AppData\Local\Temp\ccKCoria.s:1218   .text.remove_session_safe:00000000000000e8 .L0 
C:\Users\stapi\AppData\Local\Temp\ccKCoria.s:1219   .text.remove_session_safe:00000000000000e8 .L0 
C:\Users\stapi\AppData\Local\Temp\ccKCoria.s:1220   .text.remove_session_safe:00000000000000e8 .L0 
C:\Users\stapi\AppData\Local\Temp\ccKCoria.s:1221   .text.remove_session_safe:00000000000000e8 .L0 
C:\Users\stapi\AppData\Local\Temp\ccKCoria.s:1222   .text.remove_session_safe:00000000000000e8 .L0 
C:\Users\stapi\AppData\Local\Temp\ccKCoria.s:1224   .text.remove_session_safe:00000000000000ea .L0 
C:\Users\stapi\AppData\Local\Temp\ccKCoria.s:1238   .text.alcs_encrypt:0000000000000000 alcs_encrypt
C:\Users\stapi\AppData\Local\Temp\ccKCoria.s:1241   .text.alcs_encrypt:0000000000000000 .L0 
C:\Users\stapi\AppData\Local\Temp\ccKCoria.s:1243   .text.alcs_encrypt:0000000000000000 .L0 
C:\Users\stapi\AppData\Local\Temp\ccKCoria.s:1244   .text.alcs_encrypt:0000000000000008 .L0 
C:\Users\stapi\AppData\Local\Temp\ccKCoria.s:1245   .text.alcs_encrypt:0000000000000008 .L0 
C:\Users\stapi\AppData\Local\Temp\ccKCoria.s:1246   .text.alcs_encrypt:0000000000000008 .L0 
C:\Users\stapi\AppData\Local\Temp\ccKCoria.s:1247   .text.alcs_encrypt:0000000000000008 .L0 
C:\Users\stapi\AppData\Local\Temp\ccKCoria.s:1248   .text.alcs_encrypt:0000000000000008 .L0 
C:\Users\stapi\AppData\Local\Temp\ccKCoria.s:1249   .text.alcs_encrypt:0000000000000008 .L0 
C:\Users\stapi\AppData\Local\Temp\ccKCoria.s:1250   .text.alcs_encrypt:0000000000000008 .L0 
C:\Users\stapi\AppData\Local\Temp\ccKCoria.s:1251   .text.alcs_encrypt:0000000000000008 .L0 
C:\Users\stapi\AppData\Local\Temp\ccKCoria.s:1252   .text.alcs_encrypt:0000000000000008 .L0 
C:\Users\stapi\AppData\Local\Temp\ccKCoria.s:1253   .text.alcs_encrypt:0000000000000008 .L0 
C:\Users\stapi\AppData\Local\Temp\ccKCoria.s:1254   .text.alcs_encrypt:0000000000000008 .L0 
C:\Users\stapi\AppData\Local\Temp\ccKCoria.s:1257   .text.alcs_encrypt:0000000000000008 .L0 
C:\Users\stapi\AppData\Local\Temp\ccKCoria.s:1258   .text.alcs_encrypt:0000000000000008 .L0 
C:\Users\stapi\AppData\Local\Temp\ccKCoria.s:1259   .text.alcs_encrypt:0000000000000008 .L0 
C:\Users\stapi\AppData\Local\Temp\ccKCoria.s:1262   .text.alcs_encrypt:000000000000000c .L0 
C:\Users\stapi\AppData\Local\Temp\ccKCoria.s:1263   .text.alcs_encrypt:000000000000000c .L0 
C:\Users\stapi\AppData\Local\Temp\ccKCoria.s:1266   .text.alcs_encrypt:0000000000000010 .L0 
C:\Users\stapi\AppData\Local\Temp\ccKCoria.s:1267   .text.alcs_encrypt:0000000000000010 .L0 
C:\Users\stapi\AppData\Local\Temp\ccKCoria.s:1268   .text.alcs_encrypt:0000000000000012 .L0 
C:\Users\stapi\AppData\Local\Temp\ccKCoria.s:1270   .text.alcs_encrypt:0000000000000012 .L0 
C:\Users\stapi\AppData\Local\Temp\ccKCoria.s:1275   .text.alcs_encrypt:000000000000001a .L0 
C:\Users\stapi\AppData\Local\Temp\ccKCoria.s:1278   .text.alcs_encrypt:000000000000001e .L0 
C:\Users\stapi\AppData\Local\Temp\ccKCoria.s:1279   .text.alcs_encrypt:000000000000001e .L0 
C:\Users\stapi\AppData\Local\Temp\ccKCoria.s:1280   .text.alcs_encrypt:000000000000001e .L0 
C:\Users\stapi\AppData\Local\Temp\ccKCoria.s:1284   .text.alcs_encrypt:0000000000000022 .L0 
C:\Users\stapi\AppData\Local\Temp\ccKCoria.s:1287   .text.alcs_encrypt:0000000000000024 .L0 
C:\Users\stapi\AppData\Local\Temp\ccKCoria.s:1288   .text.alcs_encrypt:0000000000000024 .L0 
C:\Users\stapi\AppData\Local\Temp\ccKCoria.s:1289   .text.alcs_encrypt:0000000000000024 .L0 
C:\Users\stapi\AppData\Local\Temp\ccKCoria.s:1291   .text.alcs_encrypt:0000000000000028 .L0 
C:\Users\stapi\AppData\Local\Temp\ccKCoria.s:1297   .text.alcs_encrypt:0000000000000038 .L0 
C:\Users\stapi\AppData\Local\Temp\ccKCoria.s:1303   .text.alcs_encrypt:0000000000000048 .L0 
C:\Users\stapi\AppData\Local\Temp\ccKCoria.s:1304   .text.alcs_encrypt:0000000000000048 .L0 
C:\Users\stapi\AppData\Local\Temp\ccKCoria.s:1311   .text.alcs_encrypt:000000000000005c .L0 
C:\Users\stapi\AppData\Local\Temp\ccKCoria.s:1315   .text.alcs_encrypt:0000000000000064 .L0 
C:\Users\stapi\AppData\Local\Temp\ccKCoria.s:1318   .text.alcs_encrypt:0000000000000066 .L0 
C:\Users\stapi\AppData\Local\Temp\ccKCoria.s:1319   .text.alcs_encrypt:0000000000000066 .L0 
C:\Users\stapi\AppData\Local\Temp\ccKCoria.s:1324   .text.alcs_encrypt:0000000000000070 .L0 
C:\Users\stapi\AppData\Local\Temp\ccKCoria.s:1333   .text.alcs_encrypt:000000000000007c .L0 
C:\Users\stapi\AppData\Local\Temp\ccKCoria.s:1334   .text.alcs_encrypt:000000000000007c .L0 
C:\Users\stapi\AppData\Local\Temp\ccKCoria.s:1343   .text.alcs_encrypt:0000000000000090 .L0 
C:\Users\stapi\AppData\Local\Temp\ccKCoria.s:1347   .text.alcs_encrypt:0000000000000098 .L0 
C:\Users\stapi\AppData\Local\Temp\ccKCoria.s:1350   .text.alcs_encrypt:000000000000009a .L0 
C:\Users\stapi\AppData\Local\Temp\ccKCoria.s:1351   .text.alcs_encrypt:000000000000009a .L0 
C:\Users\stapi\AppData\Local\Temp\ccKCoria.s:1356   .text.alcs_encrypt:00000000000000a4 .L0 
C:\Users\stapi\AppData\Local\Temp\ccKCoria.s:1362   .text.alcs_encrypt:00000000000000ae .L0 
C:\Users\stapi\AppData\Local\Temp\ccKCoria.s:1363   .text.alcs_encrypt:00000000000000ae .L0 
C:\Users\stapi\AppData\Local\Temp\ccKCoria.s:1368   .text.alcs_encrypt:00000000000000b4 .L0 
C:\Users\stapi\AppData\Local\Temp\ccKCoria.s:1382   .text.alcs_encrypt:00000000000000e0 .L0 
C:\Users\stapi\AppData\Local\Temp\ccKCoria.s:1383   .text.alcs_encrypt:00000000000000e0 .L0 
C:\Users\stapi\AppData\Local\Temp\ccKCoria.s:1388   .text.alcs_encrypt:00000000000000e4 .L0 
C:\Users\stapi\AppData\Local\Temp\ccKCoria.s:1390   .text.alcs_encrypt:00000000000000e8 .L0 
C:\Users\stapi\AppData\Local\Temp\ccKCoria.s:1392   .text.alcs_encrypt:00000000000000f0 .L0 
C:\Users\stapi\AppData\Local\Temp\ccKCoria.s:1393   .text.alcs_encrypt:00000000000000f0 .L0 
C:\Users\stapi\AppData\Local\Temp\ccKCoria.s:1394   .text.alcs_encrypt:00000000000000f0 .L0 
C:\Users\stapi\AppData\Local\Temp\ccKCoria.s:1395   .text.alcs_encrypt:00000000000000f0 .L0 
C:\Users\stapi\AppData\Local\Temp\ccKCoria.s:1396   .text.alcs_encrypt:00000000000000f0 .L0 
C:\Users\stapi\AppData\Local\Temp\ccKCoria.s:1397   .text.alcs_encrypt:00000000000000f0 .L0 
C:\Users\stapi\AppData\Local\Temp\ccKCoria.s:1398   .text.alcs_encrypt:00000000000000f0 .L0 
C:\Users\stapi\AppData\Local\Temp\ccKCoria.s:1399   .text.alcs_encrypt:00000000000000f0 .L0 
C:\Users\stapi\AppData\Local\Temp\ccKCoria.s:1400   .text.alcs_encrypt:00000000000000f0 .L0 
C:\Users\stapi\AppData\Local\Temp\ccKCoria.s:1401   .text.alcs_encrypt:00000000000000f0 .L0 
C:\Users\stapi\AppData\Local\Temp\ccKCoria.s:1402   .text.alcs_encrypt:00000000000000f0 .L0 
C:\Users\stapi\AppData\Local\Temp\ccKCoria.s:1403   .text.alcs_encrypt:00000000000000f0 .L0 
C:\Users\stapi\AppData\Local\Temp\ccKCoria.s:1413   .text.do_secure_send:0000000000000000 do_secure_send
C:\Users\stapi\AppData\Local\Temp\ccKCoria.s:1416   .text.do_secure_send:0000000000000000 .L0 
C:\Users\stapi\AppData\Local\Temp\ccKCoria.s:1418   .text.do_secure_send:0000000000000000 .L0 
C:\Users\stapi\AppData\Local\Temp\ccKCoria.s:1419   .text.do_secure_send:0000000000000008 .L0 
C:\Users\stapi\AppData\Local\Temp\ccKCoria.s:1420   .text.do_secure_send:0000000000000008 .L0 
C:\Users\stapi\AppData\Local\Temp\ccKCoria.s:1421   .text.do_secure_send:0000000000000008 .L0 
C:\Users\stapi\AppData\Local\Temp\ccKCoria.s:1422   .text.do_secure_send:0000000000000008 .L0 
C:\Users\stapi\AppData\Local\Temp\ccKCoria.s:1423   .text.do_secure_send:0000000000000008 .L0 
C:\Users\stapi\AppData\Local\Temp\ccKCoria.s:1424   .text.do_secure_send:0000000000000008 .L0 
C:\Users\stapi\AppData\Local\Temp\ccKCoria.s:1425   .text.do_secure_send:0000000000000008 .L0 
C:\Users\stapi\AppData\Local\Temp\ccKCoria.s:1426   .text.do_secure_send:0000000000000008 .L0 
C:\Users\stapi\AppData\Local\Temp\ccKCoria.s:1427   .text.do_secure_send:0000000000000008 .L0 
C:\Users\stapi\AppData\Local\Temp\ccKCoria.s:1430   .text.do_secure_send:0000000000000008 .L0 
C:\Users\stapi\AppData\Local\Temp\ccKCoria.s:1431   .text.do_secure_send:0000000000000008 .L0 
C:\Users\stapi\AppData\Local\Temp\ccKCoria.s:1432   .text.do_secure_send:0000000000000008 .L0 
C:\Users\stapi\AppData\Local\Temp\ccKCoria.s:1435   .text.do_secure_send:000000000000000c .L0 
C:\Users\stapi\AppData\Local\Temp\ccKCoria.s:1441   .text.do_secure_send:0000000000000018 .L0 
C:\Users\stapi\AppData\Local\Temp\ccKCoria.s:1443   .text.do_secure_send:000000000000001a .L0 
C:\Users\stapi\AppData\Local\Temp\ccKCoria.s:1445   .text.do_secure_send:000000000000001e .L0 
C:\Users\stapi\AppData\Local\Temp\ccKCoria.s:1447   .text.do_secure_send:0000000000000020 .L0 
C:\Users\stapi\AppData\Local\Temp\ccKCoria.s:1456   .text.do_secure_send:0000000000000036 .L0 
C:\Users\stapi\AppData\Local\Temp\ccKCoria.s:1457   .text.do_secure_send:0000000000000036 .L0 
C:\Users\stapi\AppData\Local\Temp\ccKCoria.s:1458   .text.do_secure_send:0000000000000036 .L0 
C:\Users\stapi\AppData\Local\Temp\ccKCoria.s:1460   .text.do_secure_send:000000000000003a .L0 
C:\Users\stapi\AppData\Local\Temp\ccKCoria.s:1463   .text.do_secure_send:000000000000003e .L0 
C:\Users\stapi\AppData\Local\Temp\ccKCoria.s:1465   .text.do_secure_send:0000000000000040 .L0 
C:\Users\stapi\AppData\Local\Temp\ccKCoria.s:1469   .text.do_secure_send:000000000000004a .L0 
C:\Users\stapi\AppData\Local\Temp\ccKCoria.s:1471   .text.do_secure_send:000000000000004e .L0 
C:\Users\stapi\AppData\Local\Temp\ccKCoria.s:1473   .text.do_secure_send:0000000000000052 .L0 
C:\Users\stapi\AppData\Local\Temp\ccKCoria.s:1475   .text.do_secure_send:0000000000000054 .L0 
C:\Users\stapi\AppData\Local\Temp\ccKCoria.s:1478   .text.do_secure_send:0000000000000056 .L0 
C:\Users\stapi\AppData\Local\Temp\ccKCoria.s:1479   .text.do_secure_send:0000000000000056 .L0 
C:\Users\stapi\AppData\Local\Temp\ccKCoria.s:1480   .text.do_secure_send:0000000000000056 .L0 
C:\Users\stapi\AppData\Local\Temp\ccKCoria.s:1481   .text.do_secure_send:0000000000000056 .L0 
C:\Users\stapi\AppData\Local\Temp\ccKCoria.s:1483   .text.do_secure_send:0000000000000058 .L0 
C:\Users\stapi\AppData\Local\Temp\ccKCoria.s:1484   .text.do_secure_send:0000000000000058 .L0 
C:\Users\stapi\AppData\Local\Temp\ccKCoria.s:1490   .text.do_secure_send:0000000000000066 .L0 
C:\Users\stapi\AppData\Local\Temp\ccKCoria.s:1492   .text.do_secure_send:000000000000006a .L0 
C:\Users\stapi\AppData\Local\Temp\ccKCoria.s:1493   .text.do_secure_send:000000000000006a .L0 
C:\Users\stapi\AppData\Local\Temp\ccKCoria.s:1501   .text.do_secure_send:000000000000007a .L0 
C:\Users\stapi\AppData\Local\Temp\ccKCoria.s:1502   .text.do_secure_send:000000000000007a .L0 
C:\Users\stapi\AppData\Local\Temp\ccKCoria.s:1504   .text.do_secure_send:000000000000007e .L0 
C:\Users\stapi\AppData\Local\Temp\ccKCoria.s:1505   .text.do_secure_send:000000000000007e .L0 
C:\Users\stapi\AppData\Local\Temp\ccKCoria.s:1508   .text.do_secure_send:0000000000000080 .L0 
C:\Users\stapi\AppData\Local\Temp\ccKCoria.s:1510   .text.do_secure_send:0000000000000084 .L0 
C:\Users\stapi\AppData\Local\Temp\ccKCoria.s:1513   .text.do_secure_send:000000000000008c .L0 
C:\Users\stapi\AppData\Local\Temp\ccKCoria.s:1514   .text.do_secure_send:000000000000008c .L0 
C:\Users\stapi\AppData\Local\Temp\ccKCoria.s:1516   .text.do_secure_send:0000000000000096 .L0 
C:\Users\stapi\AppData\Local\Temp\ccKCoria.s:1517   .text.do_secure_send:0000000000000096 .L0 
C:\Users\stapi\AppData\Local\Temp\ccKCoria.s:1518   .text.do_secure_send:0000000000000096 .L0 
C:\Users\stapi\AppData\Local\Temp\ccKCoria.s:1519   .text.do_secure_send:0000000000000096 .L0 
C:\Users\stapi\AppData\Local\Temp\ccKCoria.s:1520   .text.do_secure_send:0000000000000096 .L0 
C:\Users\stapi\AppData\Local\Temp\ccKCoria.s:1521   .text.do_secure_send:0000000000000096 .L0 
C:\Users\stapi\AppData\Local\Temp\ccKCoria.s:1522   .text.do_secure_send:0000000000000096 .L0 
C:\Users\stapi\AppData\Local\Temp\ccKCoria.s:1523   .text.do_secure_send:0000000000000096 .L0 
C:\Users\stapi\AppData\Local\Temp\ccKCoria.s:1524   .text.do_secure_send:0000000000000096 .L0 
C:\Users\stapi\AppData\Local\Temp\ccKCoria.s:1525   .text.do_secure_send:0000000000000096 .L0 
C:\Users\stapi\AppData\Local\Temp\ccKCoria.s:1551   .text.alcs_decrypt:0000000000000000 alcs_decrypt
C:\Users\stapi\AppData\Local\Temp\ccKCoria.s:1554   .text.alcs_decrypt:0000000000000000 .L0 
C:\Users\stapi\AppData\Local\Temp\ccKCoria.s:1556   .text.alcs_decrypt:0000000000000000 .L0 
C:\Users\stapi\AppData\Local\Temp\ccKCoria.s:1557   .text.alcs_decrypt:0000000000000008 .L0 
C:\Users\stapi\AppData\Local\Temp\ccKCoria.s:1558   .text.alcs_decrypt:0000000000000008 .L0 
C:\Users\stapi\AppData\Local\Temp\ccKCoria.s:1559   .text.alcs_decrypt:0000000000000008 .L0 
C:\Users\stapi\AppData\Local\Temp\ccKCoria.s:1560   .text.alcs_decrypt:0000000000000008 .L0 
C:\Users\stapi\AppData\Local\Temp\ccKCoria.s:1561   .text.alcs_decrypt:0000000000000008 .L0 
C:\Users\stapi\AppData\Local\Temp\ccKCoria.s:1562   .text.alcs_decrypt:0000000000000008 .L0 
C:\Users\stapi\AppData\Local\Temp\ccKCoria.s:1563   .text.alcs_decrypt:0000000000000008 .L0 
C:\Users\stapi\AppData\Local\Temp\ccKCoria.s:1564   .text.alcs_decrypt:0000000000000008 .L0 
C:\Users\stapi\AppData\Local\Temp\ccKCoria.s:1565   .text.alcs_decrypt:0000000000000008 .L0 
C:\Users\stapi\AppData\Local\Temp\ccKCoria.s:1566   .text.alcs_decrypt:0000000000000008 .L0 
C:\Users\stapi\AppData\Local\Temp\ccKCoria.s:1567   .text.alcs_decrypt:0000000000000008 .L0 
C:\Users\stapi\AppData\Local\Temp\ccKCoria.s:1568   .text.alcs_decrypt:0000000000000008 .L0 
C:\Users\stapi\AppData\Local\Temp\ccKCoria.s:1570   .text.alcs_decrypt:0000000000000008 .L0 
C:\Users\stapi\AppData\Local\Temp\ccKCoria.s:1575   .text.alcs_decrypt:0000000000000016 .L0 
C:\Users\stapi\AppData\Local\Temp\ccKCoria.s:1577   .text.alcs_decrypt:000000000000001a .L0 
C:\Users\stapi\AppData\Local\Temp\ccKCoria.s:1579   .text.alcs_decrypt:000000000000001a .L0 
C:\Users\stapi\AppData\Local\Temp\ccKCoria.s:1583   .text.alcs_decrypt:0000000000000020 .L0 
C:\Users\stapi\AppData\Local\Temp\ccKCoria.s:1595   .text.alcs_decrypt:000000000000003a .L0 
C:\Users\stapi\AppData\Local\Temp\ccKCoria.s:1596   .text.alcs_decrypt:000000000000003a .L0 
C:\Users\stapi\AppData\Local\Temp\ccKCoria.s:1597   .text.alcs_decrypt:000000000000003a .L0 
C:\Users\stapi\AppData\Local\Temp\ccKCoria.s:1598   .text.alcs_decrypt:000000000000003a .L0 
C:\Users\stapi\AppData\Local\Temp\ccKCoria.s:1599   .text.alcs_decrypt:000000000000003a .L0 
C:\Users\stapi\AppData\Local\Temp\ccKCoria.s:1603   .text.alcs_decrypt:000000000000003e .L0 
C:\Users\stapi\AppData\Local\Temp\ccKCoria.s:1604   .text.alcs_decrypt:000000000000003e .L0 
C:\Users\stapi\AppData\Local\Temp\ccKCoria.s:1605   .text.alcs_decrypt:000000000000003e .L0 
C:\Users\stapi\AppData\Local\Temp\ccKCoria.s:1609   .text.alcs_decrypt:0000000000000048 .L0 
C:\Users\stapi\AppData\Local\Temp\ccKCoria.s:1610   .text.alcs_decrypt:0000000000000048 .L0 
C:\Users\stapi\AppData\Local\Temp\ccKCoria.s:1618   .text.alcs_decrypt:000000000000005a .L0 
C:\Users\stapi\AppData\Local\Temp\ccKCoria.s:1619   .text.alcs_decrypt:000000000000005a .L0 
C:\Users\stapi\AppData\Local\Temp\ccKCoria.s:1623   .text.alcs_decrypt:000000000000005c .L0 
C:\Users\stapi\AppData\Local\Temp\ccKCoria.s:1624   .text.alcs_decrypt:000000000000005c .L0 
C:\Users\stapi\AppData\Local\Temp\ccKCoria.s:1630   .text.alcs_decrypt:000000000000006c .L0 
C:\Users\stapi\AppData\Local\Temp\ccKCoria.s:1634   .text.alcs_decrypt:0000000000000074 .L0 
C:\Users\stapi\AppData\Local\Temp\ccKCoria.s:1637   .text.alcs_decrypt:000000000000007c .L0 
C:\Users\stapi\AppData\Local\Temp\ccKCoria.s:1642   .text.alcs_decrypt:000000000000008c .L0 
C:\Users\stapi\AppData\Local\Temp\ccKCoria.s:1644   .text.alcs_decrypt:000000000000008c .L0 
C:\Users\stapi\AppData\Local\Temp\ccKCoria.s:1645   .text.alcs_decrypt:000000000000008c .L0 
C:\Users\stapi\AppData\Local\Temp\ccKCoria.s:1649   .text.alcs_decrypt:000000000000008e .L0 
C:\Users\stapi\AppData\Local\Temp\ccKCoria.s:1651   .text.alcs_decrypt:0000000000000092 .L0 
C:\Users\stapi\AppData\Local\Temp\ccKCoria.s:1652   .text.alcs_decrypt:0000000000000092 .L0 
C:\Users\stapi\AppData\Local\Temp\ccKCoria.s:1654   .text.alcs_decrypt:000000000000009a .L0 
C:\Users\stapi\AppData\Local\Temp\ccKCoria.s:1655   .text.alcs_decrypt:000000000000009a .L0 
C:\Users\stapi\AppData\Local\Temp\ccKCoria.s:1656   .text.alcs_decrypt:000000000000009a .L0 
C:\Users\stapi\AppData\Local\Temp\ccKCoria.s:1657   .text.alcs_decrypt:000000000000009a .L0 
C:\Users\stapi\AppData\Local\Temp\ccKCoria.s:1658   .text.alcs_decrypt:000000000000009a .L0 
C:\Users\stapi\AppData\Local\Temp\ccKCoria.s:1659   .text.alcs_decrypt:000000000000009a .L0 
C:\Users\stapi\AppData\Local\Temp\ccKCoria.s:1660   .text.alcs_decrypt:000000000000009a .L0 
C:\Users\stapi\AppData\Local\Temp\ccKCoria.s:1661   .text.alcs_decrypt:000000000000009a .L0 
C:\Users\stapi\AppData\Local\Temp\ccKCoria.s:1662   .text.alcs_decrypt:000000000000009a .L0 
C:\Users\stapi\AppData\Local\Temp\ccKCoria.s:1663   .text.alcs_decrypt:000000000000009a .L0 
C:\Users\stapi\AppData\Local\Temp\ccKCoria.s:1664   .text.alcs_decrypt:000000000000009a .L0 
C:\Users\stapi\AppData\Local\Temp\ccKCoria.s:1665   .text.alcs_decrypt:000000000000009a .L0 
C:\Users\stapi\AppData\Local\Temp\ccKCoria.s:1668   .text.alcs_decrypt:000000000000009a .L0 
C:\Users\stapi\AppData\Local\Temp\ccKCoria.s:1671   .text.alcs_decrypt:000000000000009a .L0 
C:\Users\stapi\AppData\Local\Temp\ccKCoria.s:1672   .text.alcs_decrypt:000000000000009a .L0 
C:\Users\stapi\AppData\Local\Temp\ccKCoria.s:1680   .text.alcs_decrypt:00000000000000ac .L0 
C:\Users\stapi\AppData\Local\Temp\ccKCoria.s:1685   .text.alcs_decrypt:00000000000000b6 .L0 
C:\Users\stapi\AppData\Local\Temp\ccKCoria.s:1686   .text.alcs_decrypt:00000000000000b6 .L0 
C:\Users\stapi\AppData\Local\Temp\ccKCoria.s:1690   .text.alcs_decrypt:00000000000000ba .L0 
C:\Users\stapi\AppData\Local\Temp\ccKCoria.s:1693   .text.alcs_decrypt:00000000000000bc .L0 
C:\Users\stapi\AppData\Local\Temp\ccKCoria.s:1697   .text.alcs_decrypt:00000000000000be .L0 
C:\Users\stapi\AppData\Local\Temp\ccKCoria.s:1698   .text.alcs_decrypt:00000000000000be .L0 
C:\Users\stapi\AppData\Local\Temp\ccKCoria.s:1700   .text.alcs_decrypt:00000000000000c2 .L0 
C:\Users\stapi\AppData\Local\Temp\ccKCoria.s:1702   .text.alcs_decrypt:00000000000000c4 .L0 
C:\Users\stapi\AppData\Local\Temp\ccKCoria.s:1704   .text.alcs_decrypt:00000000000000c8 .L0 
C:\Users\stapi\AppData\Local\Temp\ccKCoria.s:1707   .text.alcs_decrypt:00000000000000ce .L0 
C:\Users\stapi\AppData\Local\Temp\ccKCoria.s:1709   .text.alcs_decrypt:00000000000000d0 .L0 
C:\Users\stapi\AppData\Local\Temp\ccKCoria.s:1710   .text.alcs_decrypt:00000000000000d0 .L0 
C:\Users\stapi\AppData\Local\Temp\ccKCoria.s:1715   .text.alcs_decrypt:00000000000000da .L0 
C:\Users\stapi\AppData\Local\Temp\ccKCoria.s:1716   .text.alcs_decrypt:00000000000000da .L0 
C:\Users\stapi\AppData\Local\Temp\ccKCoria.s:1718   .text.alcs_decrypt:00000000000000dc .L0 
C:\Users\stapi\AppData\Local\Temp\ccKCoria.s:1719   .text.alcs_decrypt:00000000000000dc .L0 
C:\Users\stapi\AppData\Local\Temp\ccKCoria.s:1727   .text.alcs_decrypt:00000000000000ee .L0 
C:\Users\stapi\AppData\Local\Temp\ccKCoria.s:1731   .text.alcs_decrypt:00000000000000f8 .L0 
C:\Users\stapi\AppData\Local\Temp\ccKCoria.s:1732   .text.alcs_decrypt:00000000000000f8 .L0 
C:\Users\stapi\AppData\Local\Temp\ccKCoria.s:1734   .text.alcs_decrypt:00000000000000fa .L0 
C:\Users\stapi\AppData\Local\Temp\ccKCoria.s:1735   .text.alcs_decrypt:00000000000000fa .L0 
C:\Users\stapi\AppData\Local\Temp\ccKCoria.s:1740   .text.alcs_decrypt:000000000000010a .L0 
C:\Users\stapi\AppData\Local\Temp\ccKCoria.s:1746   .text.alcs_decrypt:0000000000000114 .L0 
C:\Users\stapi\AppData\Local\Temp\ccKCoria.s:1747   .text.alcs_decrypt:0000000000000114 .L0 
C:\Users\stapi\AppData\Local\Temp\ccKCoria.s:1752   .text.alcs_decrypt:0000000000000124 .L0 
C:\Users\stapi\AppData\Local\Temp\ccKCoria.s:1758   .text.alcs_decrypt:000000000000012e .L0 
C:\Users\stapi\AppData\Local\Temp\ccKCoria.s:1759   .text.alcs_decrypt:000000000000012e .L0 
C:\Users\stapi\AppData\Local\Temp\ccKCoria.s:1760   .text.alcs_decrypt:000000000000012e .L0 
C:\Users\stapi\AppData\Local\Temp\ccKCoria.s:1767   .text.alcs_decrypt:0000000000000136 .L0 
C:\Users\stapi\AppData\Local\Temp\ccKCoria.s:1768   .text.alcs_decrypt:0000000000000136 .L0 
C:\Users\stapi\AppData\Local\Temp\ccKCoria.s:1769   .text.alcs_decrypt:0000000000000136 .L0 
C:\Users\stapi\AppData\Local\Temp\ccKCoria.s:1771   .text.alcs_decrypt:000000000000013a .L0 
C:\Users\stapi\AppData\Local\Temp\ccKCoria.s:1775   .text.alcs_decrypt:0000000000000142 .L0 
C:\Users\stapi\AppData\Local\Temp\ccKCoria.s:1777   .text.alcs_decrypt:0000000000000146 .L0 
C:\Users\stapi\AppData\Local\Temp\ccKCoria.s:1779   .text.alcs_decrypt:000000000000014a .L0 
C:\Users\stapi\AppData\Local\Temp\ccKCoria.s:1781   .text.alcs_decrypt:000000000000014e .L0 
C:\Users\stapi\AppData\Local\Temp\ccKCoria.s:1792   .text.alcs_decrypt:000000000000016c .L0 
C:\Users\stapi\AppData\Local\Temp\ccKCoria.s:1793   .text.alcs_decrypt:000000000000016c .L0 
C:\Users\stapi\AppData\Local\Temp\ccKCoria.s:1795   .text.alcs_decrypt:000000000000016e .L0 
C:\Users\stapi\AppData\Local\Temp\ccKCoria.s:1802   .text.alcs_is_auth:0000000000000000 alcs_is_auth
C:\Users\stapi\AppData\Local\Temp\ccKCoria.s:1805   .text.alcs_is_auth:0000000000000000 .L0 
C:\Users\stapi\AppData\Local\Temp\ccKCoria.s:1807   .text.alcs_is_auth:0000000000000000 .L0 
C:\Users\stapi\AppData\Local\Temp\ccKCoria.s:1808   .text.alcs_is_auth:0000000000000000 .L0 
C:\Users\stapi\AppData\Local\Temp\ccKCoria.s:1809   .text.alcs_is_auth:0000000000000000 .L0 
C:\Users\stapi\AppData\Local\Temp\ccKCoria.s:1810   .text.alcs_is_auth:0000000000000000 .L0 
C:\Users\stapi\AppData\Local\Temp\ccKCoria.s:1813   .text.alcs_is_auth:0000000000000004 .L0 
C:\Users\stapi\AppData\Local\Temp\ccKCoria.s:1827   .text.req_payload_parser:0000000000000000 req_payload_parser
C:\Users\stapi\AppData\Local\Temp\ccKCoria.s:1830   .text.req_payload_parser:0000000000000000 .L0 
C:\Users\stapi\AppData\Local\Temp\ccKCoria.s:1832   .text.req_payload_parser:0000000000000000 .L0 
C:\Users\stapi\AppData\Local\Temp\ccKCoria.s:1833   .text.req_payload_parser:0000000000000000 .L0 
C:\Users\stapi\AppData\Local\Temp\ccKCoria.s:1834   .text.req_payload_parser:0000000000000000 .L0 
C:\Users\stapi\AppData\Local\Temp\ccKCoria.s:1836   .text.req_payload_parser:0000000000000002 .L0 
C:\Users\stapi\AppData\Local\Temp\ccKCoria.s:1837   .text.req_payload_parser:000000000000000a .L0 
C:\Users\stapi\AppData\Local\Temp\ccKCoria.s:1838   .text.req_payload_parser:000000000000000a .L0 
C:\Users\stapi\AppData\Local\Temp\ccKCoria.s:1839   .text.req_payload_parser:000000000000000a .L0 
C:\Users\stapi\AppData\Local\Temp\ccKCoria.s:1840   .text.req_payload_parser:000000000000000a .L0 
C:\Users\stapi\AppData\Local\Temp\ccKCoria.s:1841   .text.req_payload_parser:000000000000000a .L0 
C:\Users\stapi\AppData\Local\Temp\ccKCoria.s:1842   .text.req_payload_parser:000000000000000a .L0 
C:\Users\stapi\AppData\Local\Temp\ccKCoria.s:1843   .text.req_payload_parser:000000000000000a .L0 
C:\Users\stapi\AppData\Local\Temp\ccKCoria.s:1846   .text.req_payload_parser:000000000000000c .L0 
C:\Users\stapi\AppData\Local\Temp\ccKCoria.s:1848   .text.req_payload_parser:000000000000000e .L0 
C:\Users\stapi\AppData\Local\Temp\ccKCoria.s:1851   .text.req_payload_parser:0000000000000012 .L0 
C:\Users\stapi\AppData\Local\Temp\ccKCoria.s:1853   .text.req_payload_parser:0000000000000014 .L0 
C:\Users\stapi\AppData\Local\Temp\ccKCoria.s:1856   .text.req_payload_parser:0000000000000018 .L0 
C:\Users\stapi\AppData\Local\Temp\ccKCoria.s:1859   .text.req_payload_parser:000000000000001c .L0 
C:\Users\stapi\AppData\Local\Temp\ccKCoria.s:1861   .text.req_payload_parser:000000000000001e .L0 
C:\Users\stapi\AppData\Local\Temp\ccKCoria.s:1868   .text.req_payload_parser:000000000000002a .L0 
C:\Users\stapi\AppData\Local\Temp\ccKCoria.s:1869   .text.req_payload_parser:000000000000002a .L0 
C:\Users\stapi\AppData\Local\Temp\ccKCoria.s:1872   .text.req_payload_parser:0000000000000032 .L0 
C:\Users\stapi\AppData\Local\Temp\ccKCoria.s:1874   .text.req_payload_parser:0000000000000036 .L0 
C:\Users\stapi\AppData\Local\Temp\ccKCoria.s:1876   .text.req_payload_parser:000000000000003a .L0 
C:\Users\stapi\AppData\Local\Temp\ccKCoria.s:1877   .text.req_payload_parser:000000000000003a .L0 
C:\Users\stapi\AppData\Local\Temp\ccKCoria.s:1885   .text.req_payload_parser:000000000000004e .L0 
C:\Users\stapi\AppData\Local\Temp\ccKCoria.s:1887   .text.req_payload_parser:0000000000000050 .L0 
C:\Users\stapi\AppData\Local\Temp\ccKCoria.s:1888   .text.req_payload_parser:0000000000000050 .L0 
C:\Users\stapi\AppData\Local\Temp\ccKCoria.s:1892   .text.req_payload_parser:0000000000000054 .L0 
C:\Users\stapi\AppData\Local\Temp\ccKCoria.s:1894   .text.req_payload_parser:000000000000005e .L0 
C:\Users\stapi\AppData\Local\Temp\ccKCoria.s:1895   .text.req_payload_parser:000000000000005e .L0 
C:\Users\stapi\AppData\Local\Temp\ccKCoria.s:1896   .text.req_payload_parser:000000000000005e .L0 
C:\Users\stapi\AppData\Local\Temp\ccKCoria.s:1897   .text.req_payload_parser:000000000000005e .L0 
C:\Users\stapi\AppData\Local\Temp\ccKCoria.s:1898   .text.req_payload_parser:000000000000005e .L0 
C:\Users\stapi\AppData\Local\Temp\ccKCoria.s:1899   .text.req_payload_parser:000000000000005e .L0 
C:\Users\stapi\AppData\Local\Temp\ccKCoria.s:1900   .text.req_payload_parser:000000000000005e .L0 
C:\Users\stapi\AppData\Local\Temp\ccKCoria.s:1904   .text.req_payload_parser:000000000000005e .L0 
C:\Users\stapi\AppData\Local\Temp\ccKCoria.s:1906   .text.req_payload_parser:0000000000000060 .L0 
C:\Users\stapi\AppData\Local\Temp\ccKCoria.s:1909   .text.req_payload_parser:0000000000000064 .L0 
C:\Users\stapi\AppData\Local\Temp\ccKCoria.s:1916   .text.on_auth_timer:0000000000000000 on_auth_timer
C:\Users\stapi\AppData\Local\Temp\ccKCoria.s:1919   .text.on_auth_timer:0000000000000000 .L0 
C:\Users\stapi\AppData\Local\Temp\ccKCoria.s:1921   .text.on_auth_timer:0000000000000000 .L0 
C:\Users\stapi\AppData\Local\Temp\ccKCoria.s:1922   .text.on_auth_timer:0000000000000000 .L0 
C:\Users\stapi\AppData\Local\Temp\ccKCoria.s:1923   .text.on_auth_timer:0000000000000000 .L0 
C:\Users\stapi\AppData\Local\Temp\ccKCoria.s:1927   .text.on_auth_timer:000000000000000a .L0 
C:\Users\stapi\AppData\Local\Temp\ccKCoria.s:1928   .text.on_auth_timer:000000000000000a .L0 
C:\Users\stapi\AppData\Local\Temp\ccKCoria.s:1929   .text.on_auth_timer:000000000000000a .L0 
C:\Users\stapi\AppData\Local\Temp\ccKCoria.s:1933   .text.on_auth_timer:0000000000000014 .L0 
C:\Users\stapi\AppData\Local\Temp\ccKCoria.s:1959   .text.seqwindow_accept:0000000000000000 seqwindow_accept
C:\Users\stapi\AppData\Local\Temp\ccKCoria.s:1962   .text.seqwindow_accept:0000000000000000 .L0 
C:\Users\stapi\AppData\Local\Temp\ccKCoria.s:1964   .text.seqwindow_accept:0000000000000000 .L0 
C:\Users\stapi\AppData\Local\Temp\ccKCoria.s:1965   .text.seqwindow_accept:0000000000000008 .L0 
C:\Users\stapi\AppData\Local\Temp\ccKCoria.s:1966   .text.seqwindow_accept:0000000000000008 .L0 
C:\Users\stapi\AppData\Local\Temp\ccKCoria.s:1967   .text.seqwindow_accept:0000000000000008 .L0 
C:\Users\stapi\AppData\Local\Temp\ccKCoria.s:1968   .text.seqwindow_accept:0000000000000008 .L0 
C:\Users\stapi\AppData\Local\Temp\ccKCoria.s:1969   .text.seqwindow_accept:0000000000000008 .L0 
C:\Users\stapi\AppData\Local\Temp\ccKCoria.s:1970   .text.seqwindow_accept:0000000000000008 .L0 
C:\Users\stapi\AppData\Local\Temp\ccKCoria.s:1971   .text.seqwindow_accept:0000000000000008 .L0 
C:\Users\stapi\AppData\Local\Temp\ccKCoria.s:1972   .text.seqwindow_accept:0000000000000008 .L0 
C:\Users\stapi\AppData\Local\Temp\ccKCoria.s:1973   .text.seqwindow_accept:0000000000000008 .L0 
C:\Users\stapi\AppData\Local\Temp\ccKCoria.s:1976   .text.seqwindow_accept:0000000000000008 .L0 
C:\Users\stapi\AppData\Local\Temp\ccKCoria.s:1977   .text.seqwindow_accept:0000000000000008 .L0 
C:\Users\stapi\AppData\Local\Temp\ccKCoria.s:1978   .text.seqwindow_accept:0000000000000008 .L0 
C:\Users\stapi\AppData\Local\Temp\ccKCoria.s:1979   .text.seqwindow_accept:0000000000000008 .L0 
C:\Users\stapi\AppData\Local\Temp\ccKCoria.s:1980   .text.seqwindow_accept:0000000000000008 .L0 
C:\Users\stapi\AppData\Local\Temp\ccKCoria.s:1981   .text.seqwindow_accept:000000000000000a .L0 
C:\Users\stapi\AppData\Local\Temp\ccKCoria.s:1983   .text.seqwindow_accept:000000000000000a .L0 
C:\Users\stapi\AppData\Local\Temp\ccKCoria.s:1985   .text.seqwindow_accept:000000000000000c .L0 
C:\Users\stapi\AppData\Local\Temp\ccKCoria.s:1987   .text.seqwindow_accept:000000000000000e .L0 
C:\Users\stapi\AppData\Local\Temp\ccKCoria.s:1992   .text.seqwindow_accept:0000000000000018 .L0 
C:\Users\stapi\AppData\Local\Temp\ccKCoria.s:1994   .text.seqwindow_accept:000000000000001c .L0 
C:\Users\stapi\AppData\Local\Temp\ccKCoria.s:1995   .text.seqwindow_accept:000000000000001c .L0 
C:\Users\stapi\AppData\Local\Temp\ccKCoria.s:2000   .text.seqwindow_accept:000000000000002c .L0 
C:\Users\stapi\AppData\Local\Temp\ccKCoria.s:2002   .text.seqwindow_accept:000000000000002e .L0 
C:\Users\stapi\AppData\Local\Temp\ccKCoria.s:2006   .text.seqwindow_accept:0000000000000036 .L0 
C:\Users\stapi\AppData\Local\Temp\ccKCoria.s:2007   .text.seqwindow_accept:0000000000000036 .L0 
C:\Users\stapi\AppData\Local\Temp\ccKCoria.s:2011   .text.seqwindow_accept:0000000000000042 .L0 
C:\Users\stapi\AppData\Local\Temp\ccKCoria.s:2016   .text.seqwindow_accept:000000000000004a .L0 
C:\Users\stapi\AppData\Local\Temp\ccKCoria.s:2019   .text.seqwindow_accept:0000000000000052 .L0 
C:\Users\stapi\AppData\Local\Temp\ccKCoria.s:2023   .text.seqwindow_accept:000000000000005e .L0 
C:\Users\stapi\AppData\Local\Temp\ccKCoria.s:2024   .text.seqwindow_accept:000000000000005e .L0 
C:\Users\stapi\AppData\Local\Temp\ccKCoria.s:2025   .text.seqwindow_accept:000000000000005e .L0 
C:\Users\stapi\AppData\Local\Temp\ccKCoria.s:2028   .text.seqwindow_accept:0000000000000060 .L0 
C:\Users\stapi\AppData\Local\Temp\ccKCoria.s:2030   .text.seqwindow_accept:0000000000000064 .L0 
C:\Users\stapi\AppData\Local\Temp\ccKCoria.s:2031   .text.seqwindow_accept:0000000000000064 .L0 
C:\Users\stapi\AppData\Local\Temp\ccKCoria.s:2033   .text.seqwindow_accept:000000000000006c .L0 
C:\Users\stapi\AppData\Local\Temp\ccKCoria.s:2034   .text.seqwindow_accept:000000000000006c .L0 
C:\Users\stapi\AppData\Local\Temp\ccKCoria.s:2035   .text.seqwindow_accept:000000000000006c .L0 
C:\Users\stapi\AppData\Local\Temp\ccKCoria.s:2036   .text.seqwindow_accept:000000000000006c .L0 
C:\Users\stapi\AppData\Local\Temp\ccKCoria.s:2037   .text.seqwindow_accept:000000000000006c .L0 
C:\Users\stapi\AppData\Local\Temp\ccKCoria.s:2038   .text.seqwindow_accept:000000000000006c .L0 
C:\Users\stapi\AppData\Local\Temp\ccKCoria.s:2039   .text.seqwindow_accept:000000000000006c .L0 
C:\Users\stapi\AppData\Local\Temp\ccKCoria.s:2040   .text.seqwindow_accept:000000000000006c .L0 
C:\Users\stapi\AppData\Local\Temp\ccKCoria.s:2041   .text.seqwindow_accept:000000000000006c .L0 
C:\Users\stapi\AppData\Local\Temp\ccKCoria.s:2044   .text.seqwindow_accept:000000000000006c .L0 
C:\Users\stapi\AppData\Local\Temp\ccKCoria.s:2046   .text.seqwindow_accept:000000000000006c .L0 
C:\Users\stapi\AppData\Local\Temp\ccKCoria.s:2047   .text.seqwindow_accept:000000000000006c .L0 
C:\Users\stapi\AppData\Local\Temp\ccKCoria.s:2048   .text.seqwindow_accept:000000000000006c .L0 
C:\Users\stapi\AppData\Local\Temp\ccKCoria.s:2050   .text.seqwindow_accept:000000000000006e .L0 
C:\Users\stapi\AppData\Local\Temp\ccKCoria.s:2057   .text.seqwindow_accept:0000000000000086 .L0 
C:\Users\stapi\AppData\Local\Temp\ccKCoria.s:2058   .text.seqwindow_accept:0000000000000086 .L0 
C:\Users\stapi\AppData\Local\Temp\ccKCoria.s:2059   .text.seqwindow_accept:0000000000000086 .L0 
C:\Users\stapi\AppData\Local\Temp\ccKCoria.s:2060   .text.seqwindow_accept:0000000000000086 .L0 
C:\Users\stapi\AppData\Local\Temp\ccKCoria.s:2064   .text.seqwindow_accept:0000000000000090 .L0 
C:\Users\stapi\AppData\Local\Temp\ccKCoria.s:2068   .text.seqwindow_accept:000000000000009c .L0 
C:\Users\stapi\AppData\Local\Temp\ccKCoria.s:2069   .text.seqwindow_accept:000000000000009c .L0 
C:\Users\stapi\AppData\Local\Temp\ccKCoria.s:2077   .text.seqwindow_accept:00000000000000b0 .L0 
C:\Users\stapi\AppData\Local\Temp\ccKCoria.s:2078   .text.seqwindow_accept:00000000000000b0 .L0 
C:\Users\stapi\AppData\Local\Temp\ccKCoria.s:2085   .text.seqwindow_accept:00000000000000c0 .L0 
C:\Users\stapi\AppData\Local\Temp\ccKCoria.s:2087   .text.seqwindow_accept:00000000000000c2 .L0 
C:\Users\stapi\AppData\Local\Temp\ccKCoria.s:2088   .text.seqwindow_accept:00000000000000c2 .L0 
C:\Users\stapi\AppData\Local\Temp\ccKCoria.s:2092   .text.seqwindow_accept:00000000000000ce .L0 
C:\Users\stapi\AppData\Local\Temp\ccKCoria.s:2097   .text.seqwindow_accept:00000000000000d8 .L0 
C:\Users\stapi\AppData\Local\Temp\ccKCoria.s:2098   .text.seqwindow_accept:00000000000000d8 .L0 
C:\Users\stapi\AppData\Local\Temp\ccKCoria.s:2100   .text.seqwindow_accept:00000000000000da .L0 
C:\Users\stapi\AppData\Local\Temp\ccKCoria.s:2103   .text.seqwindow_accept:00000000000000dc .L0 
C:\Users\stapi\AppData\Local\Temp\ccKCoria.s:2107   .text.seqwindow_accept:00000000000000e0 .L0 
C:\Users\stapi\AppData\Local\Temp\ccKCoria.s:2108   .text.seqwindow_accept:00000000000000e0 .L0 
C:\Users\stapi\AppData\Local\Temp\ccKCoria.s:2110   .text.seqwindow_accept:00000000000000e2 .L0 
C:\Users\stapi\AppData\Local\Temp\ccKCoria.s:2112   .text.seqwindow_accept:00000000000000e6 .L0 
C:\Users\stapi\AppData\Local\Temp\ccKCoria.s:2113   .text.seqwindow_accept:00000000000000e6 .L0 
C:\Users\stapi\AppData\Local\Temp\ccKCoria.s:2117   .text.seqwindow_accept:00000000000000f2 .L0 
C:\Users\stapi\AppData\Local\Temp\ccKCoria.s:2122   .text.seqwindow_accept:0000000000000102 .L0 
C:\Users\stapi\AppData\Local\Temp\ccKCoria.s:2126   .text.seqwindow_accept:000000000000010e .L0 
C:\Users\stapi\AppData\Local\Temp\ccKCoria.s:2127   .text.seqwindow_accept:000000000000010e .L0 
C:\Users\stapi\AppData\Local\Temp\ccKCoria.s:2128   .text.seqwindow_accept:000000000000010e .L0 
C:\Users\stapi\AppData\Local\Temp\ccKCoria.s:2131   .text.seqwindow_accept:0000000000000110 .L0 
C:\Users\stapi\AppData\Local\Temp\ccKCoria.s:2132   .text.seqwindow_accept:0000000000000110 .L0 
C:\Users\stapi\AppData\Local\Temp\ccKCoria.s:2135   .text.seqwindow_accept:0000000000000114 .L0 
C:\Users\stapi\AppData\Local\Temp\ccKCoria.s:2140   .text.seqwindow_accept:0000000000000120 .L0 
C:\Users\stapi\AppData\Local\Temp\ccKCoria.s:2143   .text.seqwindow_accept:0000000000000124 .L0 
C:\Users\stapi\AppData\Local\Temp\ccKCoria.s:2144   .text.seqwindow_accept:0000000000000124 .L0 
C:\Users\stapi\AppData\Local\Temp\ccKCoria.s:2145   .text.seqwindow_accept:0000000000000124 .L0 
C:\Users\stapi\AppData\Local\Temp\ccKCoria.s:2148   .text.seqwindow_accept:0000000000000128 .L0 
C:\Users\stapi\AppData\Local\Temp\ccKCoria.s:2158   .text.seqwindow_accept:0000000000000148 .L0 
C:\Users\stapi\AppData\Local\Temp\ccKCoria.s:2159   .text.seqwindow_accept:0000000000000148 .L0 
C:\Users\stapi\AppData\Local\Temp\ccKCoria.s:2162   .text.seqwindow_accept:000000000000014a .L0 
C:\Users\stapi\AppData\Local\Temp\ccKCoria.s:2164   .text.seqwindow_accept:000000000000014c .L0 
C:\Users\stapi\AppData\Local\Temp\ccKCoria.s:2167   .text.seqwindow_accept:000000000000014e .L0 
C:\Users\stapi\AppData\Local\Temp\ccKCoria.s:2172   .text.seqwindow_accept:0000000000000152 .L0 
C:\Users\stapi\AppData\Local\Temp\ccKCoria.s:2173   .text.seqwindow_accept:0000000000000152 .L0 
C:\Users\stapi\AppData\Local\Temp\ccKCoria.s:2174   .text.seqwindow_accept:0000000000000152 .L0 
C:\Users\stapi\AppData\Local\Temp\ccKCoria.s:2177   .text.seqwindow_accept:0000000000000156 .L0 
C:\Users\stapi\AppData\Local\Temp\ccKCoria.s:2178   .text.seqwindow_accept:0000000000000156 .L0 
C:\Users\stapi\AppData\Local\Temp\ccKCoria.s:2180   .text.seqwindow_accept:0000000000000158 .L0 
C:\Users\stapi\AppData\Local\Temp\ccKCoria.s:2182   .text.seqwindow_accept:000000000000015c .L0 
C:\Users\stapi\AppData\Local\Temp\ccKCoria.s:2185   .text.seqwindow_accept:0000000000000160 .L0 
C:\Users\stapi\AppData\Local\Temp\ccKCoria.s:2186   .text.seqwindow_accept:0000000000000160 .L0 
C:\Users\stapi\AppData\Local\Temp\ccKCoria.s:2189   .text.seqwindow_accept:0000000000000162 .L0 
C:\Users\stapi\AppData\Local\Temp\ccKCoria.s:2191   .text.seqwindow_accept:0000000000000166 .L0 
C:\Users\stapi\AppData\Local\Temp\ccKCoria.s:2193   .text.seqwindow_accept:000000000000016a .L0 
C:\Users\stapi\AppData\Local\Temp\ccKCoria.s:2195   .text.seqwindow_accept:000000000000016e .L0 
C:\Users\stapi\AppData\Local\Temp\ccKCoria.s:2197   .text.seqwindow_accept:0000000000000172 .L0 
C:\Users\stapi\AppData\Local\Temp\ccKCoria.s:2199   .text.seqwindow_accept:0000000000000176 .L0 
C:\Users\stapi\AppData\Local\Temp\ccKCoria.s:2201   .text.seqwindow_accept:000000000000017a .L0 
C:\Users\stapi\AppData\Local\Temp\ccKCoria.s:2202   .text.seqwindow_accept:000000000000017a .L0 
C:\Users\stapi\AppData\Local\Temp\ccKCoria.s:2205   .text.seqwindow_accept:000000000000017e .L0 
C:\Users\stapi\AppData\Local\Temp\ccKCoria.s:2209   .text.seqwindow_accept:0000000000000184 .L0 
C:\Users\stapi\AppData\Local\Temp\ccKCoria.s:2210   .text.seqwindow_accept:0000000000000184 .L0 
C:\Users\stapi\AppData\Local\Temp\ccKCoria.s:2213   .text.seqwindow_accept:0000000000000188 .L0 
C:\Users\stapi\AppData\Local\Temp\ccKCoria.s:2214   .text.seqwindow_accept:0000000000000188 .L0 
C:\Users\stapi\AppData\Local\Temp\ccKCoria.s:2216   .text.seqwindow_accept:000000000000018c .L0 
C:\Users\stapi\AppData\Local\Temp\ccKCoria.s:2220   .text.seqwindow_accept:0000000000000190 .L0 
C:\Users\stapi\AppData\Local\Temp\ccKCoria.s:2221   .text.seqwindow_accept:0000000000000190 .L0 
C:\Users\stapi\AppData\Local\Temp\ccKCoria.s:2227   .text.seqwindow_accept:0000000000000194 .L0 
C:\Users\stapi\AppData\Local\Temp\ccKCoria.s:2228   .text.seqwindow_accept:0000000000000194 .L0 
C:\Users\stapi\AppData\Local\Temp\ccKCoria.s:2236   .text.seqwindow_accept:000000000000019a .L0 
C:\Users\stapi\AppData\Local\Temp\ccKCoria.s:2237   .text.seqwindow_accept:000000000000019a .L0 
C:\Users\stapi\AppData\Local\Temp\ccKCoria.s:2238   .text.seqwindow_accept:000000000000019a .L0 
C:\Users\stapi\AppData\Local\Temp\ccKCoria.s:2240   .text.seqwindow_accept:000000000000019e .L0 
C:\Users\stapi\AppData\Local\Temp\ccKCoria.s:2243   .text.seqwindow_accept:00000000000001a4 .L0 
C:\Users\stapi\AppData\Local\Temp\ccKCoria.s:2245   .text.seqwindow_accept:00000000000001a8 .L0 
C:\Users\stapi\AppData\Local\Temp\ccKCoria.s:2248   .text.seqwindow_accept:00000000000001ac .L0 
C:\Users\stapi\AppData\Local\Temp\ccKCoria.s:2249   .text.seqwindow_accept:00000000000001ac .L0 
C:\Users\stapi\AppData\Local\Temp\ccKCoria.s:2256   .text.seqwindow_accept:00000000000001c0 .L0 
C:\Users\stapi\AppData\Local\Temp\ccKCoria.s:2259   .text.seqwindow_accept:00000000000001c4 .L0 
C:\Users\stapi\AppData\Local\Temp\ccKCoria.s:2264   .text.seqwindow_accept:00000000000001d0 .L0 
C:\Users\stapi\AppData\Local\Temp\ccKCoria.s:2265   .text.seqwindow_accept:00000000000001d0 .L0 
C:\Users\stapi\AppData\Local\Temp\ccKCoria.s:2267   .text.seqwindow_accept:00000000000001d2 .L0 
C:\Users\stapi\AppData\Local\Temp\ccKCoria.s:2270   .text.seqwindow_accept:00000000000001d6 .L0 
C:\Users\stapi\AppData\Local\Temp\ccKCoria.s:2273   .text.seqwindow_accept:00000000000001dc .L0 
C:\Users\stapi\AppData\Local\Temp\ccKCoria.s:2276   .text.seqwindow_accept:00000000000001e2 .L0 
C:\Users\stapi\AppData\Local\Temp\ccKCoria.s:2278   .text.seqwindow_accept:00000000000001e6 .L0 
C:\Users\stapi\AppData\Local\Temp\ccKCoria.s:2279   .text.seqwindow_accept:00000000000001e6 .L0 
C:\Users\stapi\AppData\Local\Temp\ccKCoria.s:2283   .text.seqwindow_accept:00000000000001f0 .L0 
C:\Users\stapi\AppData\Local\Temp\ccKCoria.s:2290   .text.get_message_sessionid:0000000000000000 get_message_sessionid
C:\Users\stapi\AppData\Local\Temp\ccKCoria.s:2293   .text.get_message_sessionid:0000000000000000 .L0 
C:\Users\stapi\AppData\Local\Temp\ccKCoria.s:2295   .text.get_message_sessionid:0000000000000000 .L0 
C:\Users\stapi\AppData\Local\Temp\ccKCoria.s:2296   .text.get_message_sessionid:0000000000000008 .L0 
C:\Users\stapi\AppData\Local\Temp\ccKCoria.s:2297   .text.get_message_sessionid:0000000000000008 .L0 
C:\Users\stapi\AppData\Local\Temp\ccKCoria.s:2298   .text.get_message_sessionid:0000000000000008 .L0 
C:\Users\stapi\AppData\Local\Temp\ccKCoria.s:2300   .text.get_message_sessionid:0000000000000008 .L0 
C:\Users\stapi\AppData\Local\Temp\ccKCoria.s:2301   .text.get_message_sessionid:0000000000000008 .L0 
C:\Users\stapi\AppData\Local\Temp\ccKCoria.s:2302   .text.get_message_sessionid:000000000000000a .L0 
C:\Users\stapi\AppData\Local\Temp\ccKCoria.s:2304   .text.get_message_sessionid:000000000000000a .L0 
C:\Users\stapi\AppData\Local\Temp\ccKCoria.s:2306   .text.get_message_sessionid:000000000000000c .L0 
C:\Users\stapi\AppData\Local\Temp\ccKCoria.s:2307   .text.get_message_sessionid:000000000000000c .L0 
C:\Users\stapi\AppData\Local\Temp\ccKCoria.s:2310   .text.get_message_sessionid:000000000000000e .L0 
C:\Users\stapi\AppData\Local\Temp\ccKCoria.s:2314   .text.get_message_sessionid:0000000000000012 .L0 
C:\Users\stapi\AppData\Local\Temp\ccKCoria.s:2315   .text.get_message_sessionid:0000000000000012 .L0 
C:\Users\stapi\AppData\Local\Temp\ccKCoria.s:2316   .text.get_message_sessionid:0000000000000012 .L0 
C:\Users\stapi\AppData\Local\Temp\ccKCoria.s:2318   .text.get_message_sessionid:0000000000000014 .L0 
C:\Users\stapi\AppData\Local\Temp\ccKCoria.s:2323   .text.get_message_sessionid:000000000000001e .L0 
C:\Users\stapi\AppData\Local\Temp\ccKCoria.s:2325   .text.get_message_sessionid:0000000000000022 .L0 
C:\Users\stapi\AppData\Local\Temp\ccKCoria.s:2326   .text.get_message_sessionid:0000000000000022 .L0 
C:\Users\stapi\AppData\Local\Temp\ccKCoria.s:2329   .text.get_message_sessionid:000000000000002a .L0 
C:\Users\stapi\AppData\Local\Temp\ccKCoria.s:2331   .text.get_message_sessionid:000000000000002c .L0 
C:\Users\stapi\AppData\Local\Temp\ccKCoria.s:2332   .text.get_message_sessionid:000000000000002c .L0 
C:\Users\stapi\AppData\Local\Temp\ccKCoria.s:2337   .text.get_message_sessionid:000000000000002e .L0 
C:\Users\stapi\AppData\Local\Temp\ccKCoria.s:2338   .text.get_message_sessionid:0000000000000030 .L0 
C:\Users\stapi\AppData\Local\Temp\ccKCoria.s:2339   .text.get_message_sessionid:0000000000000030 .L0 
C:\Users\stapi\AppData\Local\Temp\ccKCoria.s:2341   .text.get_message_sessionid:0000000000000038 .L0 
C:\Users\stapi\AppData\Local\Temp\ccKCoria.s:2342   .text.get_message_sessionid:0000000000000038 .L0 
C:\Users\stapi\AppData\Local\Temp\ccKCoria.s:2343   .text.get_message_sessionid:0000000000000038 .L0 
C:\Users\stapi\AppData\Local\Temp\ccKCoria.s:2346   .text.get_message_sessionid:0000000000000038 .L0 
C:\Users\stapi\AppData\Local\Temp\ccKCoria.s:2349   .text.get_message_sessionid:0000000000000038 .L0 
C:\Users\stapi\AppData\Local\Temp\ccKCoria.s:2350   .text.get_message_sessionid:0000000000000038 .L0 
C:\Users\stapi\AppData\Local\Temp\ccKCoria.s:2351   .text.get_message_sessionid:0000000000000038 .L0 
C:\Users\stapi\AppData\Local\Temp\ccKCoria.s:2352   .text.get_message_sessionid:0000000000000038 .L0 
C:\Users\stapi\AppData\Local\Temp\ccKCoria.s:2353   .text.get_message_sessionid:0000000000000038 .L0 
C:\Users\stapi\AppData\Local\Temp\ccKCoria.s:2355   .text.get_message_sessionid:000000000000003a .L0 
C:\Users\stapi\AppData\Local\Temp\ccKCoria.s:2357   .text.get_message_sessionid:000000000000003e .L0 
C:\Users\stapi\AppData\Local\Temp\ccKCoria.s:2359   .text.get_message_sessionid:0000000000000040 .L0 
C:\Users\stapi\AppData\Local\Temp\ccKCoria.s:2361   .text.get_message_sessionid:0000000000000044 .L0 
C:\Users\stapi\AppData\Local\Temp\ccKCoria.s:2363   .text.get_message_sessionid:0000000000000046 .L0 
C:\Users\stapi\AppData\Local\Temp\ccKCoria.s:2365   .text.get_message_sessionid:0000000000000048 .L0 
C:\Users\stapi\AppData\Local\Temp\ccKCoria.s:2367   .text.get_message_sessionid:000000000000004c .L0 
C:\Users\stapi\AppData\Local\Temp\ccKCoria.s:2369   .text.get_message_sessionid:000000000000004e .L0 
C:\Users\stapi\AppData\Local\Temp\ccKCoria.s:2371   .text.get_message_sessionid:0000000000000050 .L0 
C:\Users\stapi\AppData\Local\Temp\ccKCoria.s:2373   .text.get_message_sessionid:0000000000000054 .L0 
C:\Users\stapi\AppData\Local\Temp\ccKCoria.s:2375   .text.get_message_sessionid:0000000000000056 .L0 
C:\Users\stapi\AppData\Local\Temp\ccKCoria.s:2378   .text.get_message_sessionid:000000000000005a .L0 
C:\Users\stapi\AppData\Local\Temp\ccKCoria.s:2379   .text.get_message_sessionid:000000000000005a .L0 
C:\Users\stapi\AppData\Local\Temp\ccKCoria.s:2381   .text.get_message_sessionid:000000000000005c .L0 
C:\Users\stapi\AppData\Local\Temp\ccKCoria.s:2389   .text.get_message_sessionid:000000000000006a .L0 
C:\Users\stapi\AppData\Local\Temp\ccKCoria.s:2390   .text.get_message_sessionid:000000000000006a .L0 
C:\Users\stapi\AppData\Local\Temp\ccKCoria.s:2395   .text.get_message_sessionid:000000000000006e .L0 
C:\Users\stapi\AppData\Local\Temp\ccKCoria.s:2401   .text.get_message_sessionid:000000000000007e .L0 
C:\Users\stapi\AppData\Local\Temp\ccKCoria.s:2408   .text.add_message_sessionid:0000000000000000 add_message_sessionid
C:\Users\stapi\AppData\Local\Temp\ccKCoria.s:2411   .text.add_message_sessionid:0000000000000000 .L0 
C:\Users\stapi\AppData\Local\Temp\ccKCoria.s:2413   .text.add_message_sessionid:0000000000000000 .L0 
C:\Users\stapi\AppData\Local\Temp\ccKCoria.s:2414   .text.add_message_sessionid:0000000000000008 .L0 
C:\Users\stapi\AppData\Local\Temp\ccKCoria.s:2415   .text.add_message_sessionid:0000000000000008 .L0 
C:\Users\stapi\AppData\Local\Temp\ccKCoria.s:2416   .text.add_message_sessionid:0000000000000008 .L0 
C:\Users\stapi\AppData\Local\Temp\ccKCoria.s:2418   .text.add_message_sessionid:0000000000000008 .L0 
C:\Users\stapi\AppData\Local\Temp\ccKCoria.s:2419   .text.add_message_sessionid:0000000000000008 .L0 
C:\Users\stapi\AppData\Local\Temp\ccKCoria.s:2422   .text.add_message_sessionid:000000000000000a .L0 
C:\Users\stapi\AppData\Local\Temp\ccKCoria.s:2423   .text.add_message_sessionid:000000000000000c .L0 
C:\Users\stapi\AppData\Local\Temp\ccKCoria.s:2425   .text.add_message_sessionid:000000000000000c .L0 
C:\Users\stapi\AppData\Local\Temp\ccKCoria.s:2434   .text.add_message_sessionid:0000000000000014 .L0 
C:\Users\stapi\AppData\Local\Temp\ccKCoria.s:2435   .text.add_message_sessionid:0000000000000014 .L0 
C:\Users\stapi\AppData\Local\Temp\ccKCoria.s:2436   .text.add_message_sessionid:0000000000000014 .L0 
C:\Users\stapi\AppData\Local\Temp\ccKCoria.s:2437   .text.add_message_sessionid:0000000000000014 .L0 
C:\Users\stapi\AppData\Local\Temp\ccKCoria.s:2438   .text.add_message_sessionid:0000000000000014 .L0 
C:\Users\stapi\AppData\Local\Temp\ccKCoria.s:2439   .text.add_message_sessionid:0000000000000014 .L0 
C:\Users\stapi\AppData\Local\Temp\ccKCoria.s:2441   .text.add_message_sessionid:0000000000000016 .L0 
C:\Users\stapi\AppData\Local\Temp\ccKCoria.s:2442   .text.add_message_sessionid:0000000000000016 .L0 
C:\Users\stapi\AppData\Local\Temp\ccKCoria.s:2449   .text.add_message_sessionid:0000000000000024 .L0 
C:\Users\stapi\AppData\Local\Temp\ccKCoria.s:2451   .text.add_message_sessionid:0000000000000026 .L0 
C:\Users\stapi\AppData\Local\Temp\ccKCoria.s:2456   .text.add_message_sessionid:0000000000000030 .L0 
C:\Users\stapi\AppData\Local\Temp\ccKCoria.s:2458   .text.add_message_sessionid:0000000000000032 .L0 
C:\Users\stapi\AppData\Local\Temp\ccKCoria.s:2465   .text.add_message_sessionid:000000000000003a .L0 
C:\Users\stapi\AppData\Local\Temp\ccKCoria.s:2466   .text.add_message_sessionid:000000000000003c .L0 
C:\Users\stapi\AppData\Local\Temp\ccKCoria.s:2467   .text.add_message_sessionid:000000000000003c .L0 
C:\Users\stapi\AppData\Local\Temp\ccKCoria.s:2469   .text.add_message_sessionid:0000000000000044 .L0 
C:\Users\stapi\AppData\Local\Temp\ccKCoria.s:2470   .text.add_message_sessionid:0000000000000044 .L0 
C:\Users\stapi\AppData\Local\Temp\ccKCoria.s:2471   .text.add_message_sessionid:0000000000000044 .L0 
C:\Users\stapi\AppData\Local\Temp\ccKCoria.s:2474   .text.add_message_sessionid:0000000000000044 .L0 
C:\Users\stapi\AppData\Local\Temp\ccKCoria.s:2476   .text.add_message_sessionid:0000000000000044 .L0 
C:\Users\stapi\AppData\Local\Temp\ccKCoria.s:2482   .text.add_message_sessionid:0000000000000052 .L0 
C:\Users\stapi\AppData\Local\Temp\ccKCoria.s:2483   .text.add_message_sessionid:0000000000000054 .L0 
C:\Users\stapi\AppData\Local\Temp\ccKCoria.s:2512   .text.alcs_sendrsp_secure:0000000000000000 alcs_sendrsp_secure
C:\Users\stapi\AppData\Local\Temp\ccKCoria.s:2515   .text.alcs_sendrsp_secure:0000000000000000 .L0 
C:\Users\stapi\AppData\Local\Temp\ccKCoria.s:2517   .text.alcs_sendrsp_secure:0000000000000000 .L0 
C:\Users\stapi\AppData\Local\Temp\ccKCoria.s:2518   .text.alcs_sendrsp_secure:0000000000000008 .L0 
C:\Users\stapi\AppData\Local\Temp\ccKCoria.s:2519   .text.alcs_sendrsp_secure:0000000000000008 .L0 
C:\Users\stapi\AppData\Local\Temp\ccKCoria.s:2520   .text.alcs_sendrsp_secure:0000000000000008 .L0 
C:\Users\stapi\AppData\Local\Temp\ccKCoria.s:2521   .text.alcs_sendrsp_secure:0000000000000008 .L0 
C:\Users\stapi\AppData\Local\Temp\ccKCoria.s:2522   .text.alcs_sendrsp_secure:0000000000000008 .L0 
C:\Users\stapi\AppData\Local\Temp\ccKCoria.s:2523   .text.alcs_sendrsp_secure:0000000000000008 .L0 
C:\Users\stapi\AppData\Local\Temp\ccKCoria.s:2524   .text.alcs_sendrsp_secure:0000000000000008 .L0 
C:\Users\stapi\AppData\Local\Temp\ccKCoria.s:2525   .text.alcs_sendrsp_secure:0000000000000008 .L0 
C:\Users\stapi\AppData\Local\Temp\ccKCoria.s:2526   .text.alcs_sendrsp_secure:0000000000000008 .L0 
C:\Users\stapi\AppData\Local\Temp\ccKCoria.s:2527   .text.alcs_sendrsp_secure:0000000000000008 .L0 
C:\Users\stapi\AppData\Local\Temp\ccKCoria.s:2528   .text.alcs_sendrsp_secure:0000000000000008 .L0 
C:\Users\stapi\AppData\Local\Temp\ccKCoria.s:2529   .text.alcs_sendrsp_secure:0000000000000008 .L0 
C:\Users\stapi\AppData\Local\Temp\ccKCoria.s:2530   .text.alcs_sendrsp_secure:0000000000000008 .L0 
C:\Users\stapi\AppData\Local\Temp\ccKCoria.s:2531   .text.alcs_sendrsp_secure:0000000000000008 .L0 
C:\Users\stapi\AppData\Local\Temp\ccKCoria.s:2533   .text.alcs_sendrsp_secure:0000000000000008 .L0 
C:\Users\stapi\AppData\Local\Temp\ccKCoria.s:2534   .text.alcs_sendrsp_secure:0000000000000008 .L0 
C:\Users\stapi\AppData\Local\Temp\ccKCoria.s:2535   .text.alcs_sendrsp_secure:0000000000000008 .L0 
C:\Users\stapi\AppData\Local\Temp\ccKCoria.s:2536   .text.alcs_sendrsp_secure:0000000000000008 .L0 
C:\Users\stapi\AppData\Local\Temp\ccKCoria.s:2538   .text.alcs_sendrsp_secure:000000000000000a .L0 
C:\Users\stapi\AppData\Local\Temp\ccKCoria.s:2543   .text.alcs_sendrsp_secure:0000000000000016 .L0 
C:\Users\stapi\AppData\Local\Temp\ccKCoria.s:2545   .text.alcs_sendrsp_secure:000000000000001a .L0 
C:\Users\stapi\AppData\Local\Temp\ccKCoria.s:2547   .text.alcs_sendrsp_secure:000000000000001a .L0 
C:\Users\stapi\AppData\Local\Temp\ccKCoria.s:2550   .text.alcs_sendrsp_secure:000000000000001e .L0 
C:\Users\stapi\AppData\Local\Temp\ccKCoria.s:2560   .text.alcs_sendrsp_secure:0000000000000030 .L0 
C:\Users\stapi\AppData\Local\Temp\ccKCoria.s:2562   .text.alcs_sendrsp_secure:0000000000000032 .L0 
C:\Users\stapi\AppData\Local\Temp\ccKCoria.s:2565   .text.alcs_sendrsp_secure:000000000000003a .L0 
C:\Users\stapi\AppData\Local\Temp\ccKCoria.s:2566   .text.alcs_sendrsp_secure:000000000000003a .L0 
C:\Users\stapi\AppData\Local\Temp\ccKCoria.s:2568   .text.alcs_sendrsp_secure:000000000000003e .L0 
C:\Users\stapi\AppData\Local\Temp\ccKCoria.s:2570   .text.alcs_sendrsp_secure:0000000000000042 .L0 
C:\Users\stapi\AppData\Local\Temp\ccKCoria.s:2574   .text.alcs_sendrsp_secure:0000000000000046 .L0 
C:\Users\stapi\AppData\Local\Temp\ccKCoria.s:2575   .text.alcs_sendrsp_secure:0000000000000046 .L0 
C:\Users\stapi\AppData\Local\Temp\ccKCoria.s:2580   .text.alcs_sendrsp_secure:000000000000004e .L0 
C:\Users\stapi\AppData\Local\Temp\ccKCoria.s:2584   .text.alcs_sendrsp_secure:0000000000000052 .L0 
C:\Users\stapi\AppData\Local\Temp\ccKCoria.s:2588   .text.alcs_sendrsp_secure:0000000000000056 .L0 
C:\Users\stapi\AppData\Local\Temp\ccKCoria.s:2593   .text.alcs_sendrsp_secure:000000000000005a .L0 
C:\Users\stapi\AppData\Local\Temp\ccKCoria.s:2596   .text.alcs_sendrsp_secure:000000000000005a .L0 
C:\Users\stapi\AppData\Local\Temp\ccKCoria.s:2597   .text.alcs_sendrsp_secure:000000000000005a .L0 
C:\Users\stapi\AppData\Local\Temp\ccKCoria.s:2602   .text.alcs_sendrsp_secure:000000000000005c .L0 
C:\Users\stapi\AppData\Local\Temp\ccKCoria.s:2605   .text.alcs_sendrsp_secure:0000000000000064 .L0 
C:\Users\stapi\AppData\Local\Temp\ccKCoria.s:2606   .text.alcs_sendrsp_secure:0000000000000064 .L0 
C:\Users\stapi\AppData\Local\Temp\ccKCoria.s:2615   .text.alcs_sendrsp_secure:0000000000000076 .L0 
C:\Users\stapi\AppData\Local\Temp\ccKCoria.s:2620   .text.alcs_sendrsp_secure:0000000000000086 .L0 
C:\Users\stapi\AppData\Local\Temp\ccKCoria.s:2626   .text.alcs_sendrsp_secure:0000000000000090 .L0 
C:\Users\stapi\AppData\Local\Temp\ccKCoria.s:2627   .text.alcs_sendrsp_secure:0000000000000090 .L0 
C:\Users\stapi\AppData\Local\Temp\ccKCoria.s:2628   .text.alcs_sendrsp_secure:0000000000000090 .L0 
C:\Users\stapi\AppData\Local\Temp\ccKCoria.s:2636   .text.alcs_sendrsp_secure:000000000000009e .L0 
C:\Users\stapi\AppData\Local\Temp\ccKCoria.s:2641   .text.alcs_sendrsp_secure:00000000000000ae .L0 
C:\Users\stapi\AppData\Local\Temp\ccKCoria.s:2642   .text.alcs_sendrsp_secure:00000000000000ae .L0 
C:\Users\stapi\AppData\Local\Temp\ccKCoria.s:2647   .text.alcs_sendrsp_secure:00000000000000b2 .L0 
C:\Users\stapi\AppData\Local\Temp\ccKCoria.s:2649   .text.alcs_sendrsp_secure:00000000000000b6 .L0 
C:\Users\stapi\AppData\Local\Temp\ccKCoria.s:2650   .text.alcs_sendrsp_secure:00000000000000b6 .L0 
C:\Users\stapi\AppData\Local\Temp\ccKCoria.s:2652   .text.alcs_sendrsp_secure:00000000000000be .L0 
C:\Users\stapi\AppData\Local\Temp\ccKCoria.s:2653   .text.alcs_sendrsp_secure:00000000000000be .L0 
C:\Users\stapi\AppData\Local\Temp\ccKCoria.s:2654   .text.alcs_sendrsp_secure:00000000000000be .L0 
C:\Users\stapi\AppData\Local\Temp\ccKCoria.s:2655   .text.alcs_sendrsp_secure:00000000000000be .L0 
C:\Users\stapi\AppData\Local\Temp\ccKCoria.s:2656   .text.alcs_sendrsp_secure:00000000000000be .L0 
C:\Users\stapi\AppData\Local\Temp\ccKCoria.s:2657   .text.alcs_sendrsp_secure:00000000000000be .L0 
C:\Users\stapi\AppData\Local\Temp\ccKCoria.s:2658   .text.alcs_sendrsp_secure:00000000000000be .L0 
C:\Users\stapi\AppData\Local\Temp\ccKCoria.s:2659   .text.alcs_sendrsp_secure:00000000000000be .L0 
C:\Users\stapi\AppData\Local\Temp\ccKCoria.s:2660   .text.alcs_sendrsp_secure:00000000000000be .L0 
C:\Users\stapi\AppData\Local\Temp\ccKCoria.s:2661   .text.alcs_sendrsp_secure:00000000000000be .L0 
C:\Users\stapi\AppData\Local\Temp\ccKCoria.s:2662   .text.alcs_sendrsp_secure:00000000000000be .L0 
C:\Users\stapi\AppData\Local\Temp\ccKCoria.s:2663   .text.alcs_sendrsp_secure:00000000000000be .L0 
C:\Users\stapi\AppData\Local\Temp\ccKCoria.s:2664   .text.alcs_sendrsp_secure:00000000000000be .L0 
C:\Users\stapi\AppData\Local\Temp\ccKCoria.s:2665   .text.alcs_sendrsp_secure:00000000000000be .L0 
C:\Users\stapi\AppData\Local\Temp\ccKCoria.s:2668   .text.alcs_sendrsp_secure:00000000000000be .L0 
C:\Users\stapi\AppData\Local\Temp\ccKCoria.s:2672   .text.alcs_sendrsp_secure:00000000000000be .L0 
C:\Users\stapi\AppData\Local\Temp\ccKCoria.s:2673   .text.alcs_sendrsp_secure:00000000000000be .L0 
C:\Users\stapi\AppData\Local\Temp\ccKCoria.s:2679   .text.alcs_sendrsp_secure:00000000000000ce .L0 
C:\Users\stapi\AppData\Local\Temp\ccKCoria.s:2681   .text.alcs_sendrsp_secure:00000000000000d0 .L0 
C:\Users\stapi\AppData\Local\Temp\ccKCoria.s:2687   .text.alcs_sendrsp_secure:00000000000000de .L0 
C:\Users\stapi\AppData\Local\Temp\ccKCoria.s:2689   .text.alcs_sendrsp_secure:00000000000000e0 .L0 
C:\Users\stapi\AppData\Local\Temp\ccKCoria.s:2701   .text.alcs_sendrsp_secure:000000000000010a .L0 
C:\Users\stapi\AppData\Local\Temp\ccKCoria.s:2707   .text.alcs_sendrsp_secure:0000000000000114 .L0 
C:\Users\stapi\AppData\Local\Temp\ccKCoria.s:2708   .text.alcs_sendrsp_secure:0000000000000114 .L0 
C:\Users\stapi\AppData\Local\Temp\ccKCoria.s:2709   .text.alcs_sendrsp_secure:0000000000000114 .L0 
C:\Users\stapi\AppData\Local\Temp\ccKCoria.s:2710   .text.alcs_sendrsp_secure:0000000000000114 .L0 
C:\Users\stapi\AppData\Local\Temp\ccKCoria.s:2712   .text.alcs_sendrsp_secure:0000000000000118 .L0 
C:\Users\stapi\AppData\Local\Temp\ccKCoria.s:2713   .text.alcs_sendrsp_secure:0000000000000118 .L0 
C:\Users\stapi\AppData\Local\Temp\ccKCoria.s:2717   .text.alcs_sendrsp_secure:0000000000000122 .L0 
C:\Users\stapi\AppData\Local\Temp\ccKCoria.s:2720   .text.alcs_sendrsp_secure:0000000000000126 .L0 
C:\Users\stapi\AppData\Local\Temp\ccKCoria.s:2721   .text.alcs_sendrsp_secure:0000000000000126 .L0 
C:\Users\stapi\AppData\Local\Temp\ccKCoria.s:2723   .text.alcs_sendrsp_secure:000000000000012a .L0 
C:\Users\stapi\AppData\Local\Temp\ccKCoria.s:2725   .text.alcs_sendrsp_secure:000000000000012e .L0 
C:\Users\stapi\AppData\Local\Temp\ccKCoria.s:2727   .text.alcs_sendrsp_secure:0000000000000132 .L0 
C:\Users\stapi\AppData\Local\Temp\ccKCoria.s:2732   .text.alcs_sendrsp_secure:000000000000013e .L0 
C:\Users\stapi\AppData\Local\Temp\ccKCoria.s:2736   .text.alcs_sendrsp_secure:000000000000014a .L0 
C:\Users\stapi\AppData\Local\Temp\ccKCoria.s:2737   .text.alcs_sendrsp_secure:000000000000014a .L0 
C:\Users\stapi\AppData\Local\Temp\ccKCoria.s:2740   .text.alcs_sendrsp_secure:0000000000000150 .L0 
C:\Users\stapi\AppData\Local\Temp\ccKCoria.s:2747   .text.alcs_sendrsp_secure:000000000000015e .L0 
C:\Users\stapi\AppData\Local\Temp\ccKCoria.s:2753   .text.alcs_sendrsp_secure:000000000000016e .L0 
C:\Users\stapi\AppData\Local\Temp\ccKCoria.s:2754   .text.alcs_sendrsp_secure:000000000000016e .L0 
C:\Users\stapi\AppData\Local\Temp\ccKCoria.s:2757   .text.alcs_sendrsp_secure:0000000000000174 .L0 
C:\Users\stapi\AppData\Local\Temp\ccKCoria.s:2766   .text.alcs_sendrsp_secure:0000000000000192 .L0 
C:\Users\stapi\AppData\Local\Temp\ccKCoria.s:2767   .text.alcs_sendrsp_secure:0000000000000192 .L0 
C:\Users\stapi\AppData\Local\Temp\ccKCoria.s:2771   .text.alcs_sendrsp_secure:0000000000000196 .L0 
C:\Users\stapi\AppData\Local\Temp\ccKCoria.s:2772   .text.alcs_sendrsp_secure:0000000000000196 .L0 
C:\Users\stapi\AppData\Local\Temp\ccKCoria.s:2780   .text.alcs_sendrsp_secure:00000000000001a6 .L0 
C:\Users\stapi\AppData\Local\Temp\ccKCoria.s:2784   .text.alcs_sendrsp_secure:00000000000001b0 .L0 
C:\Users\stapi\AppData\Local\Temp\ccKCoria.s:2785   .text.alcs_sendrsp_secure:00000000000001b0 .L0 
C:\Users\stapi\AppData\Local\Temp\ccKCoria.s:2791   .text.alcs_sendrsp_secure:00000000000001b2 .L0 
C:\Users\stapi\AppData\Local\Temp\ccKCoria.s:2802   .text.alcs_sendrsp_secure:00000000000001be .L0 
C:\Users\stapi\AppData\Local\Temp\ccKCoria.s:2803   .text.alcs_sendrsp_secure:00000000000001be .L0 
C:\Users\stapi\AppData\Local\Temp\ccKCoria.s:2810   .text.alcs_sendrsp_secure:00000000000001c4 .L0 
C:\Users\stapi\AppData\Local\Temp\ccKCoria.s:2811   .text.alcs_sendrsp_secure:00000000000001c4 .L0 
C:\Users\stapi\AppData\Local\Temp\ccKCoria.s:2815   .text.alcs_sendrsp_secure:00000000000001c6 .L0 
C:\Users\stapi\AppData\Local\Temp\ccKCoria.s:2820   .text.alcs_sendrsp_secure:00000000000001ca .L0 
C:\Users\stapi\AppData\Local\Temp\ccKCoria.s:2821   .text.alcs_sendrsp_secure:00000000000001ca .L0 
C:\Users\stapi\AppData\Local\Temp\ccKCoria.s:2824   .text.alcs_sendrsp_secure:00000000000001d2 .L0 
C:\Users\stapi\AppData\Local\Temp\ccKCoria.s:2825   .text.alcs_sendrsp_secure:00000000000001d2 .L0 
C:\Users\stapi\AppData\Local\Temp\ccKCoria.s:2826   .text.alcs_sendrsp_secure:00000000000001d2 .L0 
C:\Users\stapi\AppData\Local\Temp\ccKCoria.s:2831   .text.alcs_sendrsp_secure:00000000000001da .L0 
C:\Users\stapi\AppData\Local\Temp\ccKCoria.s:2840   .text.alcs_sendrsp_secure:00000000000001ea .L0 
C:\Users\stapi\AppData\Local\Temp\ccKCoria.s:2843   .text.alcs_sendrsp_secure:00000000000001f2 .L0 
C:\Users\stapi\AppData\Local\Temp\ccKCoria.s:2849   .text.alcs_sendrsp_secure:00000000000001fc .L0 
C:\Users\stapi\AppData\Local\Temp\ccKCoria.s:2850   .text.alcs_sendrsp_secure:00000000000001fc .L0 
C:\Users\stapi\AppData\Local\Temp\ccKCoria.s:2851   .text.alcs_sendrsp_secure:00000000000001fc .L0 
C:\Users\stapi\AppData\Local\Temp\ccKCoria.s:2861   .text.alcs_sendrsp_secure:000000000000020c .L0 
C:\Users\stapi\AppData\Local\Temp\ccKCoria.s:2862   .text.alcs_sendrsp_secure:000000000000020c .L0 
C:\Users\stapi\AppData\Local\Temp\ccKCoria.s:2865   .text.alcs_sendrsp_secure:0000000000000214 .L0 
C:\Users\stapi\AppData\Local\Temp\ccKCoria.s:2875   .text.alcs_sendrsp_secure:0000000000000236 .L0 
C:\Users\stapi\AppData\Local\Temp\ccKCoria.s:2881   .text.alcs_sendrsp_secure:0000000000000240 .L0 
C:\Users\stapi\AppData\Local\Temp\ccKCoria.s:2882   .text.alcs_sendrsp_secure:0000000000000240 .L0 
C:\Users\stapi\AppData\Local\Temp\ccKCoria.s:2883   .text.alcs_sendrsp_secure:0000000000000240 .L0 
C:\Users\stapi\AppData\Local\Temp\ccKCoria.s:2884   .text.alcs_sendrsp_secure:0000000000000240 .L0 
C:\Users\stapi\AppData\Local\Temp\ccKCoria.s:2886   .text.alcs_sendrsp_secure:0000000000000244 .L0 
C:\Users\stapi\AppData\Local\Temp\ccKCoria.s:2889   .text.alcs_sendrsp_secure:000000000000024c .L0 
C:\Users\stapi\AppData\Local\Temp\ccKCoria.s:2891   .text.alcs_sendrsp_secure:000000000000024e .L0 
C:\Users\stapi\AppData\Local\Temp\ccKCoria.s:2893   .text.alcs_sendrsp_secure:0000000000000250 .L0 
C:\Users\stapi\AppData\Local\Temp\ccKCoria.s:2896   .text.alcs_sendrsp_secure:0000000000000254 .L0 
C:\Users\stapi\AppData\Local\Temp\ccKCoria.s:2898   .text.alcs_sendrsp_secure:0000000000000256 .L0 
C:\Users\stapi\AppData\Local\Temp\ccKCoria.s:2901   .text.alcs_sendrsp_secure:000000000000025e .L0 
C:\Users\stapi\AppData\Local\Temp\ccKCoria.s:2911   .text.alcs_sendrsp_secure:0000000000000280 .L0 
C:\Users\stapi\AppData\Local\Temp\ccKCoria.s:2912   .text.alcs_sendrsp_secure:0000000000000280 .L0 
C:\Users\stapi\AppData\Local\Temp\ccKCoria.s:2920   .text.alcs_sendrsp_secure:0000000000000286 .L0 
C:\Users\stapi\AppData\Local\Temp\ccKCoria.s:2932   .text.alcs_sendrsp_secure:0000000000000292 .L0 
C:\Users\stapi\AppData\Local\Temp\ccKCoria.s:2941   .text.alcs_sendrsp_secure:0000000000000298 .L0 
C:\Users\stapi\AppData\Local\Temp\ccKCoria.s:2946   .text.alcs_sendrsp_secure:000000000000029e .L0 
C:\Users\stapi\AppData\Local\Temp\ccKCoria.s:2957   .text.add_message_seq:0000000000000000 add_message_seq
C:\Users\stapi\AppData\Local\Temp\ccKCoria.s:2960   .text.add_message_seq:0000000000000000 .L0 
C:\Users\stapi\AppData\Local\Temp\ccKCoria.s:2962   .text.add_message_seq:0000000000000000 .L0 
C:\Users\stapi\AppData\Local\Temp\ccKCoria.s:2963   .text.add_message_seq:0000000000000008 .L0 
C:\Users\stapi\AppData\Local\Temp\ccKCoria.s:2964   .text.add_message_seq:0000000000000008 .L0 
C:\Users\stapi\AppData\Local\Temp\ccKCoria.s:2965   .text.add_message_seq:0000000000000008 .L0 
C:\Users\stapi\AppData\Local\Temp\ccKCoria.s:2966   .text.add_message_seq:0000000000000008 .L0 
C:\Users\stapi\AppData\Local\Temp\ccKCoria.s:2968   .text.add_message_seq:0000000000000008 .L0 
C:\Users\stapi\AppData\Local\Temp\ccKCoria.s:2970   .text.add_message_seq:000000000000000a .L0 
C:\Users\stapi\AppData\Local\Temp\ccKCoria.s:2973   .text.add_message_seq:000000000000000e .L0 
C:\Users\stapi\AppData\Local\Temp\ccKCoria.s:2979   .text.add_message_seq:000000000000001a .L0 
C:\Users\stapi\AppData\Local\Temp\ccKCoria.s:2980   .text.add_message_seq:000000000000001c .L0 
C:\Users\stapi\AppData\Local\Temp\ccKCoria.s:2982   .text.add_message_seq:000000000000001c .L0 
C:\Users\stapi\AppData\Local\Temp\ccKCoria.s:2990   .text.add_message_seq:0000000000000036 .L0 
C:\Users\stapi\AppData\Local\Temp\ccKCoria.s:2991   .text.add_message_seq:0000000000000036 .L0 
C:\Users\stapi\AppData\Local\Temp\ccKCoria.s:2994   .text.add_message_seq:000000000000003c .L0 
C:\Users\stapi\AppData\Local\Temp\ccKCoria.s:3000   .text.add_message_seq:000000000000003e .L0 
C:\Users\stapi\AppData\Local\Temp\ccKCoria.s:3001   .text.add_message_seq:000000000000003e .L0 
C:\Users\stapi\AppData\Local\Temp\ccKCoria.s:3002   .text.add_message_seq:000000000000003e .L0 
C:\Users\stapi\AppData\Local\Temp\ccKCoria.s:3004   .text.add_message_seq:0000000000000040 .L0 
C:\Users\stapi\AppData\Local\Temp\ccKCoria.s:3008   .text.add_message_seq:000000000000004a .L0 
C:\Users\stapi\AppData\Local\Temp\ccKCoria.s:3009   .text.add_message_seq:000000000000004a .L0 
C:\Users\stapi\AppData\Local\Temp\ccKCoria.s:3010   .text.add_message_seq:000000000000004a .L0 
C:\Users\stapi\AppData\Local\Temp\ccKCoria.s:3011   .text.add_message_seq:000000000000004a .L0 
C:\Users\stapi\AppData\Local\Temp\ccKCoria.s:3013   .text.add_message_seq:000000000000004c .L0 
C:\Users\stapi\AppData\Local\Temp\ccKCoria.s:3015   .text.add_message_seq:000000000000004e .L0 
C:\Users\stapi\AppData\Local\Temp\ccKCoria.s:3016   .text.add_message_seq:000000000000004e .L0 
C:\Users\stapi\AppData\Local\Temp\ccKCoria.s:3018   .text.add_message_seq:0000000000000050 .L0 
C:\Users\stapi\AppData\Local\Temp\ccKCoria.s:3024   .text.add_message_seq:000000000000005e .L0 
C:\Users\stapi\AppData\Local\Temp\ccKCoria.s:3026   .text.add_message_seq:0000000000000060 .L0 
C:\Users\stapi\AppData\Local\Temp\ccKCoria.s:3031   .text.add_message_seq:000000000000006a .L0 
C:\Users\stapi\AppData\Local\Temp\ccKCoria.s:3033   .text.add_message_seq:000000000000006c .L0 
C:\Users\stapi\AppData\Local\Temp\ccKCoria.s:3040   .text.add_message_seq:0000000000000074 .L0 
C:\Users\stapi\AppData\Local\Temp\ccKCoria.s:3041   .text.add_message_seq:0000000000000076 .L0 
C:\Users\stapi\AppData\Local\Temp\ccKCoria.s:3043   .text.add_message_seq:000000000000007e .L0 
C:\Users\stapi\AppData\Local\Temp\ccKCoria.s:3044   .text.add_message_seq:000000000000007e .L0 
C:\Users\stapi\AppData\Local\Temp\ccKCoria.s:3045   .text.add_message_seq:000000000000007e .L0 
C:\Users\stapi\AppData\Local\Temp\ccKCoria.s:3046   .text.add_message_seq:000000000000007e .L0 
C:\Users\stapi\AppData\Local\Temp\ccKCoria.s:3047   .text.add_message_seq:000000000000007e .L0 
C:\Users\stapi\AppData\Local\Temp\ccKCoria.s:3064   .text.internal_secure_send:0000000000000000 internal_secure_send
C:\Users\stapi\AppData\Local\Temp\ccKCoria.s:3067   .text.internal_secure_send:0000000000000000 .L0 
C:\Users\stapi\AppData\Local\Temp\ccKCoria.s:3069   .text.internal_secure_send:0000000000000000 .L0 
C:\Users\stapi\AppData\Local\Temp\ccKCoria.s:3070   .text.internal_secure_send:0000000000000008 .L0 
C:\Users\stapi\AppData\Local\Temp\ccKCoria.s:3071   .text.internal_secure_send:0000000000000008 .L0 
C:\Users\stapi\AppData\Local\Temp\ccKCoria.s:3072   .text.internal_secure_send:0000000000000008 .L0 
C:\Users\stapi\AppData\Local\Temp\ccKCoria.s:3073   .text.internal_secure_send:0000000000000008 .L0 
C:\Users\stapi\AppData\Local\Temp\ccKCoria.s:3074   .text.internal_secure_send:0000000000000008 .L0 
C:\Users\stapi\AppData\Local\Temp\ccKCoria.s:3075   .text.internal_secure_send:0000000000000008 .L0 
C:\Users\stapi\AppData\Local\Temp\ccKCoria.s:3076   .text.internal_secure_send:0000000000000008 .L0 
C:\Users\stapi\AppData\Local\Temp\ccKCoria.s:3077   .text.internal_secure_send:0000000000000008 .L0 
C:\Users\stapi\AppData\Local\Temp\ccKCoria.s:3079   .text.internal_secure_send:0000000000000008 .L0 
C:\Users\stapi\AppData\Local\Temp\ccKCoria.s:3083   .text.internal_secure_send:0000000000000014 .L0 
C:\Users\stapi\AppData\Local\Temp\ccKCoria.s:3085   .text.internal_secure_send:0000000000000018 .L0 
C:\Users\stapi\AppData\Local\Temp\ccKCoria.s:3087   .text.internal_secure_send:0000000000000018 .L0 
C:\Users\stapi\AppData\Local\Temp\ccKCoria.s:3091   .text.internal_secure_send:000000000000001e .L0 
C:\Users\stapi\AppData\Local\Temp\ccKCoria.s:3103   .text.internal_secure_send:0000000000000038 .L0 
C:\Users\stapi\AppData\Local\Temp\ccKCoria.s:3104   .text.internal_secure_send:0000000000000038 .L0 
C:\Users\stapi\AppData\Local\Temp\ccKCoria.s:3106   .text.internal_secure_send:000000000000003c .L0 
C:\Users\stapi\AppData\Local\Temp\ccKCoria.s:3108   .text.internal_secure_send:000000000000003e .L0 
C:\Users\stapi\AppData\Local\Temp\ccKCoria.s:3110   .text.internal_secure_send:0000000000000042 .L0 
C:\Users\stapi\AppData\Local\Temp\ccKCoria.s:3113   .text.internal_secure_send:0000000000000044 .L0 
C:\Users\stapi\AppData\Local\Temp\ccKCoria.s:3114   .text.internal_secure_send:0000000000000044 .L0 
C:\Users\stapi\AppData\Local\Temp\ccKCoria.s:3119   .text.internal_secure_send:0000000000000054 .L0 
C:\Users\stapi\AppData\Local\Temp\ccKCoria.s:3124   .text.internal_secure_send:0000000000000064 .L0 
C:\Users\stapi\AppData\Local\Temp\ccKCoria.s:3129   .text.internal_secure_send:0000000000000074 .L0 
C:\Users\stapi\AppData\Local\Temp\ccKCoria.s:3130   .text.internal_secure_send:0000000000000074 .L0 
C:\Users\stapi\AppData\Local\Temp\ccKCoria.s:3131   .text.internal_secure_send:0000000000000074 .L0 
C:\Users\stapi\AppData\Local\Temp\ccKCoria.s:3134   .text.internal_secure_send:0000000000000078 .L0 
C:\Users\stapi\AppData\Local\Temp\ccKCoria.s:3135   .text.internal_secure_send:000000000000007a .L0 
C:\Users\stapi\AppData\Local\Temp\ccKCoria.s:3136   .text.internal_secure_send:000000000000007a .L0 
C:\Users\stapi\AppData\Local\Temp\ccKCoria.s:3138   .text.internal_secure_send:0000000000000082 .L0 
C:\Users\stapi\AppData\Local\Temp\ccKCoria.s:3139   .text.internal_secure_send:0000000000000082 .L0 
C:\Users\stapi\AppData\Local\Temp\ccKCoria.s:3140   .text.internal_secure_send:0000000000000082 .L0 
C:\Users\stapi\AppData\Local\Temp\ccKCoria.s:3141   .text.internal_secure_send:0000000000000082 .L0 
C:\Users\stapi\AppData\Local\Temp\ccKCoria.s:3142   .text.internal_secure_send:0000000000000082 .L0 
C:\Users\stapi\AppData\Local\Temp\ccKCoria.s:3143   .text.internal_secure_send:0000000000000082 .L0 
C:\Users\stapi\AppData\Local\Temp\ccKCoria.s:3144   .text.internal_secure_send:0000000000000082 .L0 
C:\Users\stapi\AppData\Local\Temp\ccKCoria.s:3145   .text.internal_secure_send:0000000000000082 .L0 
C:\Users\stapi\AppData\Local\Temp\ccKCoria.s:3147   .text.internal_secure_send:0000000000000082 .L0 
C:\Users\stapi\AppData\Local\Temp\ccKCoria.s:3149   .text.internal_secure_send:0000000000000082 .L0 
C:\Users\stapi\AppData\Local\Temp\ccKCoria.s:3155   .text.internal_secure_send:0000000000000092 .L0 
C:\Users\stapi\AppData\Local\Temp\ccKCoria.s:3156   .text.internal_secure_send:0000000000000092 .L0 
C:\Users\stapi\AppData\Local\Temp\ccKCoria.s:3158   .text.internal_secure_send:0000000000000096 .L0 
C:\Users\stapi\AppData\Local\Temp\ccKCoria.s:3161   .text.internal_secure_send:000000000000009c .L0 
C:\Users\stapi\AppData\Local\Temp\ccKCoria.s:3163   .text.internal_secure_send:000000000000009e .L0 
C:\Users\stapi\AppData\Local\Temp\ccKCoria.s:3165   .text.internal_secure_send:00000000000000a0 .L0 
C:\Users\stapi\AppData\Local\Temp\ccKCoria.s:3168   .text.internal_secure_send:00000000000000a4 .L0 
C:\Users\stapi\AppData\Local\Temp\ccKCoria.s:3170   .text.internal_secure_send:00000000000000a6 .L0 
C:\Users\stapi\AppData\Local\Temp\ccKCoria.s:3173   .text.internal_secure_send:00000000000000ae .L0 
C:\Users\stapi\AppData\Local\Temp\ccKCoria.s:3178   .text.internal_secure_send:00000000000000ba .L0 
C:\Users\stapi\AppData\Local\Temp\ccKCoria.s:3188   .text.internal_secure_send:00000000000000da .L0 
C:\Users\stapi\AppData\Local\Temp\ccKCoria.s:3189   .text.internal_secure_send:00000000000000da .L0 
C:\Users\stapi\AppData\Local\Temp\ccKCoria.s:3196   .text.internal_secure_send:00000000000000ee .L0 
C:\Users\stapi\AppData\Local\Temp\ccKCoria.s:3207   .bss._device:0000000000000000 _device
C:\Users\stapi\AppData\Local\Temp\ccKCoria.s:3297   .sbss.sessionid_seed:0000000000000000 sessionid_seed
C:\Users\stapi\AppData\Local\Temp\ccKCoria.s:3304   .sdata.secure_resource_cb_head:0000000000000000 secure_resource_cb_head
C:\Users\stapi\AppData\Local\Temp\ccKCoria.s:3204   .bss._device:0000000000000000 .LANCHOR0
C:\Users\stapi\AppData\Local\Temp\ccKCoria.s:3211   .rodata.__FUNCTION__.0:0000000000000000 .LANCHOR13
C:\Users\stapi\AppData\Local\Temp\ccKCoria.s:3214   .rodata.__FUNCTION__.0:0000000000000000 __FUNCTION__.0
C:\Users\stapi\AppData\Local\Temp\ccKCoria.s:3218   .rodata.__FUNCTION__.1:0000000000000000 .LANCHOR9
C:\Users\stapi\AppData\Local\Temp\ccKCoria.s:3221   .rodata.__FUNCTION__.1:0000000000000000 __FUNCTION__.1
C:\Users\stapi\AppData\Local\Temp\ccKCoria.s:3225   .rodata.__FUNCTION__.10:0000000000000000 .LANCHOR5
C:\Users\stapi\AppData\Local\Temp\ccKCoria.s:3228   .rodata.__FUNCTION__.10:0000000000000000 __FUNCTION__.10
C:\Users\stapi\AppData\Local\Temp\ccKCoria.s:3232   .rodata.__FUNCTION__.2:0000000000000000 .LANCHOR12
C:\Users\stapi\AppData\Local\Temp\ccKCoria.s:3235   .rodata.__FUNCTION__.2:0000000000000000 __FUNCTION__.2
C:\Users\stapi\AppData\Local\Temp\ccKCoria.s:3239   .rodata.__FUNCTION__.3:0000000000000000 .LANCHOR11
C:\Users\stapi\AppData\Local\Temp\ccKCoria.s:3242   .rodata.__FUNCTION__.3:0000000000000000 __FUNCTION__.3
C:\Users\stapi\AppData\Local\Temp\ccKCoria.s:3246   .rodata.__FUNCTION__.4:0000000000000000 .LANCHOR10
C:\Users\stapi\AppData\Local\Temp\ccKCoria.s:3249   .rodata.__FUNCTION__.4:0000000000000000 __FUNCTION__.4
C:\Users\stapi\AppData\Local\Temp\ccKCoria.s:3253   .rodata.__FUNCTION__.5:0000000000000000 .LANCHOR7
C:\Users\stapi\AppData\Local\Temp\ccKCoria.s:3256   .rodata.__FUNCTION__.5:0000000000000000 __FUNCTION__.5
C:\Users\stapi\AppData\Local\Temp\ccKCoria.s:3260   .rodata.__FUNCTION__.6:0000000000000000 .LANCHOR14
C:\Users\stapi\AppData\Local\Temp\ccKCoria.s:3263   .rodata.__FUNCTION__.6:0000000000000000 __FUNCTION__.6
C:\Users\stapi\AppData\Local\Temp\ccKCoria.s:3267   .rodata.__FUNCTION__.7:0000000000000000 .LANCHOR8
C:\Users\stapi\AppData\Local\Temp\ccKCoria.s:3270   .rodata.__FUNCTION__.7:0000000000000000 __FUNCTION__.7
C:\Users\stapi\AppData\Local\Temp\ccKCoria.s:3274   .rodata.__FUNCTION__.8:0000000000000000 .LANCHOR6
C:\Users\stapi\AppData\Local\Temp\ccKCoria.s:3277   .rodata.__FUNCTION__.8:0000000000000000 __FUNCTION__.8
C:\Users\stapi\AppData\Local\Temp\ccKCoria.s:3281   .rodata.__FUNCTION__.9:0000000000000000 .LANCHOR4
C:\Users\stapi\AppData\Local\Temp\ccKCoria.s:3284   .rodata.__FUNCTION__.9:0000000000000000 __FUNCTION__.9
C:\Users\stapi\AppData\Local\Temp\ccKCoria.s:3287   .sbss.is_inited:0000000000000000 .LANCHOR1
C:\Users\stapi\AppData\Local\Temp\ccKCoria.s:3290   .sbss.is_inited:0000000000000000 is_inited
C:\Users\stapi\AppData\Local\Temp\ccKCoria.s:3294   .sbss.sessionid_seed:0000000000000000 .LANCHOR2
C:\Users\stapi\AppData\Local\Temp\ccKCoria.s:3301   .sdata.secure_resource_cb_head:0000000000000000 .LANCHOR3
C:\Users\stapi\AppData\Local\Temp\ccKCoria.s:87     .text.add_request_to_list:0000000000000040 .L0 
C:\Users\stapi\AppData\Local\Temp\ccKCoria.s:132    .text.remove_request:0000000000000014 .L0 
C:\Users\stapi\AppData\Local\Temp\ccKCoria.s:232    .text.remove_session:000000000000006a .L0 
C:\Users\stapi\AppData\Local\Temp\ccKCoria.s:378    .text.gen_random_key:00000000000000a8 .L0 
C:\Users\stapi\AppData\Local\Temp\ccKCoria.s:615    .text.alcs_auth_init:000000000000011e .L0 
C:\Users\stapi\AppData\Local\Temp\ccKCoria.s:679    .text.alcs_auth_subdev_init:000000000000005a .L0 
C:\Users\stapi\AppData\Local\Temp\ccKCoria.s:735    .text.alcs_auth_deinit:000000000000004c .L0 
C:\Users\stapi\AppData\Local\Temp\ccKCoria.s:817    .text.is_networkadd_same:0000000000000066 .L0 
C:\Users\stapi\AppData\Local\Temp\ccKCoria.s:946    .text.get_session_by_checksum:00000000000000bc .L0 
C:\Users\stapi\AppData\Local\Temp\ccKCoria.s:1066   .text.get_svr_session:000000000000009a .L0 
C:\Users\stapi\AppData\Local\Temp\ccKCoria.s:1227   .text.remove_session_safe:00000000000000ea .L0 
C:\Users\stapi\AppData\Local\Temp\ccKCoria.s:1406   .text.alcs_encrypt:00000000000000f0 .L0 
C:\Users\stapi\AppData\Local\Temp\ccKCoria.s:1528   .text.do_secure_send:0000000000000096 .L0 
C:\Users\stapi\AppData\Local\Temp\ccKCoria.s:1798   .text.alcs_decrypt:000000000000016e .L0 
C:\Users\stapi\AppData\Local\Temp\ccKCoria.s:1816   .text.alcs_is_auth:0000000000000004 .L0 
C:\Users\stapi\AppData\Local\Temp\ccKCoria.s:1912   .text.req_payload_parser:0000000000000064 .L0 
C:\Users\stapi\AppData\Local\Temp\ccKCoria.s:1936   .text.on_auth_timer:0000000000000014 .L0 
C:\Users\stapi\AppData\Local\Temp\ccKCoria.s:2286   .text.seqwindow_accept:00000000000001f0 .L0 
C:\Users\stapi\AppData\Local\Temp\ccKCoria.s:2404   .text.get_message_sessionid:000000000000007e .L0 
C:\Users\stapi\AppData\Local\Temp\ccKCoria.s:2486   .text.add_message_sessionid:0000000000000054 .L0 
C:\Users\stapi\AppData\Local\Temp\ccKCoria.s:2949   .text.alcs_sendrsp_secure:000000000000029e .L0 
C:\Users\stapi\AppData\Local\Temp\ccKCoria.s:3050   .text.add_message_seq:000000000000007e .L0 
C:\Users\stapi\AppData\Local\Temp\ccKCoria.s:3202   .text.internal_secure_send:00000000000000ee .L0 
                     .debug_frame:0000000000000000 .L0 
C:\Users\stapi\AppData\Local\Temp\ccKCoria.s:125    .text.remove_request:0000000000000012 .L9
C:\Users\stapi\AppData\Local\Temp\ccKCoria.s:134    .rodata.remove_session.str1.4:0000000000000000 .LC0
C:\Users\stapi\AppData\Local\Temp\ccKCoria.s:137    .rodata.remove_session.str1.4:0000000000000008 .LC1
C:\Users\stapi\AppData\Local\Temp\ccKCoria.s:140    .rodata.remove_session.str1.4:0000000000000018 .LC2
C:\Users\stapi\AppData\Local\Temp\ccKCoria.s:220    .text.remove_session:0000000000000062 .L12
C:\Users\stapi\AppData\Local\Temp\ccKCoria.s:312    .text.gen_random_key:000000000000004c .L24
C:\Users\stapi\AppData\Local\Temp\ccKCoria.s:344    .text.gen_random_key:000000000000007a .L20
C:\Users\stapi\AppData\Local\Temp\ccKCoria.s:355    .text.gen_random_key:000000000000008c .L21
C:\Users\stapi\AppData\Local\Temp\ccKCoria.s:369    .text.gen_random_key:00000000000000a2 .L22
C:\Users\stapi\AppData\Local\Temp\ccKCoria.s:293    .text.gen_random_key:000000000000003c .L19
C:\Users\stapi\AppData\Local\Temp\ccKCoria.s:333    .text.gen_random_key:0000000000000072 .L26
C:\Users\stapi\AppData\Local\Temp\ccKCoria.s:337    .text.gen_random_key:0000000000000076 .L23
C:\Users\stapi\AppData\Local\Temp\ccKCoria.s:380    .rodata.alcs_auth_init.str1.4:0000000000000000 .LC3
C:\Users\stapi\AppData\Local\Temp\ccKCoria.s:383    .rodata.alcs_auth_init.str1.4:0000000000000020 .LC4
C:\Users\stapi\AppData\Local\Temp\ccKCoria.s:607    .text.alcs_auth_init:000000000000011a .L34
C:\Users\stapi\AppData\Local\Temp\ccKCoria.s:581    .text.alcs_auth_init:0000000000000104 .L29
C:\Users\stapi\AppData\Local\Temp\ccKCoria.s:730    .text.alcs_auth_deinit:000000000000004a .L47
C:\Users\stapi\AppData\Local\Temp\ccKCoria.s:724    .text.alcs_auth_deinit:0000000000000042 .L39
C:\Users\stapi\AppData\Local\Temp\ccKCoria.s:737    .rodata.is_networkadd_same.str1.4:0000000000000000 .LC5
C:\Users\stapi\AppData\Local\Temp\ccKCoria.s:740    .rodata.is_networkadd_same.str1.4:000000000000001c .LC6
C:\Users\stapi\AppData\Local\Temp\ccKCoria.s:808    .text.is_networkadd_same:0000000000000062 .L53
C:\Users\stapi\AppData\Local\Temp\ccKCoria.s:798    .text.is_networkadd_same:000000000000005a .L51
C:\Users\stapi\AppData\Local\Temp\ccKCoria.s:819    .rodata.get_session_by_checksum.str1.4:0000000000000000 .LC7
C:\Users\stapi\AppData\Local\Temp\ccKCoria.s:920    .text.get_session_by_checksum:00000000000000a6 .L61
C:\Users\stapi\AppData\Local\Temp\ccKCoria.s:876    .text.get_session_by_checksum:000000000000004a .L65
C:\Users\stapi\AppData\Local\Temp\ccKCoria.s:882    .text.get_session_by_checksum:000000000000004e .L64
C:\Users\stapi\AppData\Local\Temp\ccKCoria.s:934    .text.get_session_by_checksum:00000000000000b0 .L63
C:\Users\stapi\AppData\Local\Temp\ccKCoria.s:867    .text.get_session_by_checksum:0000000000000036 .L62
C:\Users\stapi\AppData\Local\Temp\ccKCoria.s:948    .rodata.get_svr_session.str1.4:0000000000000000 .LC8
C:\Users\stapi\AppData\Local\Temp\ccKCoria.s:1053   .text.get_svr_session:0000000000000096 .L77
C:\Users\stapi\AppData\Local\Temp\ccKCoria.s:1039   .text.get_svr_session:000000000000008a .L73
C:\Users\stapi\AppData\Local\Temp\ccKCoria.s:1214   .text.remove_session_safe:00000000000000e8 .L103
C:\Users\stapi\AppData\Local\Temp\ccKCoria.s:1189   .text.remove_session_safe:00000000000000d2 .L82
C:\Users\stapi\AppData\Local\Temp\ccKCoria.s:1184   .text.remove_session_safe:00000000000000c6 .L88
C:\Users\stapi\AppData\Local\Temp\ccKCoria.s:1204   .text.remove_session_safe:00000000000000dc .L87
C:\Users\stapi\AppData\Local\Temp\ccKCoria.s:1158   .text.remove_session_safe:0000000000000090 .L86
C:\Users\stapi\AppData\Local\Temp\ccKCoria.s:1229   .rodata.alcs_encrypt.str1.4:0000000000000000 .LC9
C:\Users\stapi\AppData\Local\Temp\ccKCoria.s:1232   .rodata.alcs_encrypt.str1.4:0000000000000014 .LC10
C:\Users\stapi\AppData\Local\Temp\ccKCoria.s:1329   .text.alcs_encrypt:000000000000007c .L107
C:\Users\stapi\AppData\Local\Temp\ccKCoria.s:1366   .text.alcs_encrypt:00000000000000b4 .L109
C:\Users\stapi\AppData\Local\Temp\ccKCoria.s:1282   .text.alcs_encrypt:0000000000000022 .L110
C:\Users\stapi\AppData\Local\Temp\ccKCoria.s:1386   .text.alcs_encrypt:00000000000000e4 .L106
C:\Users\stapi\AppData\Local\Temp\ccKCoria.s:1408   .rodata.do_secure_send.str1.4:0000000000000000 .LC11
C:\Users\stapi\AppData\Local\Temp\ccKCoria.s:1530   .rodata.alcs_decrypt.str1.4:0000000000000000 .LC12
C:\Users\stapi\AppData\Local\Temp\ccKCoria.s:1533   .rodata.alcs_decrypt.str1.4:0000000000000014 .LC13
C:\Users\stapi\AppData\Local\Temp\ccKCoria.s:1536   .rodata.alcs_decrypt.str1.4:000000000000001c .LC14
C:\Users\stapi\AppData\Local\Temp\ccKCoria.s:1542   .rodata.alcs_decrypt.str1.4:0000000000000044 .LC16
C:\Users\stapi\AppData\Local\Temp\ccKCoria.s:1539   .rodata.alcs_decrypt.str1.4:0000000000000034 .LC15
C:\Users\stapi\AppData\Local\Temp\ccKCoria.s:1545   .rodata.alcs_decrypt.str1.4:0000000000000060 .LC17
C:\Users\stapi\AppData\Local\Temp\ccKCoria.s:1756   .text.alcs_decrypt:000000000000012e .L120
C:\Users\stapi\AppData\Local\Temp\ccKCoria.s:1667   .text.alcs_decrypt:000000000000009a .L121
C:\Users\stapi\AppData\Local\Temp\ccKCoria.s:1744   .text.alcs_decrypt:0000000000000114 .L123
C:\Users\stapi\AppData\Local\Temp\ccKCoria.s:1621   .text.alcs_decrypt:000000000000005c .L126
C:\Users\stapi\AppData\Local\Temp\ccKCoria.s:1765   .text.alcs_decrypt:0000000000000136 .L127
C:\Users\stapi\AppData\Local\Temp\ccKCoria.s:1632   .text.alcs_decrypt:0000000000000074 .L132
C:\Users\stapi\AppData\Local\Temp\ccKCoria.s:1688   .text.alcs_decrypt:00000000000000ba .L125
C:\Users\stapi\AppData\Local\Temp\ccKCoria.s:1695   .text.alcs_decrypt:00000000000000be .L124
C:\Users\stapi\AppData\Local\Temp\ccKCoria.s:1647   .text.alcs_decrypt:000000000000008e .L119
C:\Users\stapi\AppData\Local\Temp\ccKCoria.s:1818   .rodata.req_payload_parser.str1.4:0000000000000000 .LC18
C:\Users\stapi\AppData\Local\Temp\ccKCoria.s:1821   .rodata.req_payload_parser.str1.4:0000000000000004 .LC19
C:\Users\stapi\AppData\Local\Temp\ccKCoria.s:1902   .text.req_payload_parser:000000000000005e .L136
C:\Users\stapi\AppData\Local\Temp\ccKCoria.s:1890   .text.req_payload_parser:0000000000000054 .L135
C:\Users\stapi\AppData\Local\Temp\ccKCoria.s:1931   .text.on_auth_timer:0000000000000012 .L152
C:\Users\stapi\AppData\Local\Temp\ccKCoria.s:1938   .rodata.seqwindow_accept.str1.4:0000000000000000 .LC20
C:\Users\stapi\AppData\Local\Temp\ccKCoria.s:1941   .rodata.seqwindow_accept.str1.4:0000000000000014 .LC21
C:\Users\stapi\AppData\Local\Temp\ccKCoria.s:1944   .rodata.seqwindow_accept.str1.4:000000000000002c .LC22
C:\Users\stapi\AppData\Local\Temp\ccKCoria.s:1947   .rodata.seqwindow_accept.str1.4:0000000000000044 .LC23
C:\Users\stapi\AppData\Local\Temp\ccKCoria.s:1950   .rodata.seqwindow_accept.str1.4:000000000000005c .LC24
C:\Users\stapi\AppData\Local\Temp\ccKCoria.s:1953   .rodata.seqwindow_accept.str1.4:0000000000000078 .LC25
C:\Users\stapi\AppData\Local\Temp\ccKCoria.s:2004   .text.seqwindow_accept:0000000000000036 .L156
C:\Users\stapi\AppData\Local\Temp\ccKCoria.s:2043   .text.seqwindow_accept:000000000000006c .L157
C:\Users\stapi\AppData\Local\Temp\ccKCoria.s:2095   .text.seqwindow_accept:00000000000000d8 .L159
C:\Users\stapi\AppData\Local\Temp\ccKCoria.s:2014   .text.seqwindow_accept:000000000000004a .L171
C:\Users\stapi\AppData\Local\Temp\ccKCoria.s:2105   .text.seqwindow_accept:00000000000000e0 .L160
C:\Users\stapi\AppData\Local\Temp\ccKCoria.s:2026   .text.seqwindow_accept:0000000000000060 .L155
C:\Users\stapi\AppData\Local\Temp\ccKCoria.s:2129   .text.seqwindow_accept:0000000000000110 .L161
C:\Users\stapi\AppData\Local\Temp\ccKCoria.s:2231   .text.seqwindow_accept:000000000000019a .L162
C:\Users\stapi\AppData\Local\Temp\ccKCoria.s:2101   .text.seqwindow_accept:00000000000000dc .L172
C:\Users\stapi\AppData\Local\Temp\ccKCoria.s:2203   .text.seqwindow_accept:000000000000017e .L165
C:\Users\stapi\AppData\Local\Temp\ccKCoria.s:2224   .text.seqwindow_accept:0000000000000194 .L166
C:\Users\stapi\AppData\Local\Temp\ccKCoria.s:2171   .text.seqwindow_accept:0000000000000152 .L163
C:\Users\stapi\AppData\Local\Temp\ccKCoria.s:2217   .text.seqwindow_accept:0000000000000190 .L167
C:\Users\stapi\AppData\Local\Temp\ccKCoria.s:2393   .text.get_message_sessionid:000000000000006e .L174
C:\Users\stapi\AppData\Local\Temp\ccKCoria.s:2345   .text.get_message_sessionid:0000000000000038 .L175
C:\Users\stapi\AppData\Local\Temp\ccKCoria.s:2386   .text.get_message_sessionid:000000000000006a .L178
C:\Users\stapi\AppData\Local\Temp\ccKCoria.s:2334   .text.get_message_sessionid:000000000000002e .L173
C:\Users\stapi\AppData\Local\Temp\ccKCoria.s:2473   .text.add_message_sessionid:0000000000000044 .L184
C:\Users\stapi\AppData\Local\Temp\ccKCoria.s:2460   .text.add_message_sessionid:000000000000003a .L183
C:\Users\stapi\AppData\Local\Temp\ccKCoria.s:2488   .rodata.alcs_sendrsp_secure.str1.4:0000000000000000 .LC26
C:\Users\stapi\AppData\Local\Temp\ccKCoria.s:2494   .rodata.alcs_sendrsp_secure.str1.4:0000000000000034 .LC28
C:\Users\stapi\AppData\Local\Temp\ccKCoria.s:2491   .rodata.alcs_sendrsp_secure.str1.4:0000000000000014 .LC27
C:\Users\stapi\AppData\Local\Temp\ccKCoria.s:2497   .rodata.alcs_sendrsp_secure.str1.4:0000000000000048 .LC29
C:\Users\stapi\AppData\Local\Temp\ccKCoria.s:2506   .rodata.alcs_sendrsp_secure.str1.4:00000000000000a8 .LC32
C:\Users\stapi\AppData\Local\Temp\ccKCoria.s:2500   .rodata.alcs_sendrsp_secure.str1.4:000000000000006c .LC30
C:\Users\stapi\AppData\Local\Temp\ccKCoria.s:2503   .rodata.alcs_sendrsp_secure.str1.4:0000000000000084 .LC31
C:\Users\stapi\AppData\Local\Temp\ccKCoria.s:2927   .text.alcs_sendrsp_secure:0000000000000292 .L204
C:\Users\stapi\AppData\Local\Temp\ccKCoria.s:2667   .text.alcs_sendrsp_secure:00000000000000be .L193
C:\Users\stapi\AppData\Local\Temp\ccKCoria.s:2787   .text.alcs_sendrsp_secure:00000000000001b2 .L190
C:\Users\stapi\AppData\Local\Temp\ccKCoria.s:2798   .text.alcs_sendrsp_secure:00000000000001be .L208
C:\Users\stapi\AppData\Local\Temp\ccKCoria.s:2745   .text.alcs_sendrsp_secure:000000000000015e .L195
C:\Users\stapi\AppData\Local\Temp\ccKCoria.s:2805   .text.alcs_sendrsp_secure:00000000000001c4 .L196
C:\Users\stapi\AppData\Local\Temp\ccKCoria.s:2644   .text.alcs_sendrsp_secure:00000000000000b2 .L187
C:\Users\stapi\AppData\Local\Temp\ccKCoria.s:2613   .text.alcs_sendrsp_secure:0000000000000076 .L189
C:\Users\stapi\AppData\Local\Temp\ccKCoria.s:2718   .text.alcs_sendrsp_secure:0000000000000126 .L194
C:\Users\stapi\AppData\Local\Temp\ccKCoria.s:2936   .text.alcs_sendrsp_secure:0000000000000298 .L198
C:\Users\stapi\AppData\Local\Temp\ccKCoria.s:2857   .text.alcs_sendrsp_secure:000000000000020c .L201
C:\Users\stapi\AppData\Local\Temp\ccKCoria.s:2633   .text.alcs_sendrsp_secure:000000000000009e .L210
C:\Users\stapi\AppData\Local\Temp\ccKCoria.s:2916   .text.alcs_sendrsp_secure:0000000000000286 .L200
C:\Users\stapi\AppData\Local\Temp\ccKCoria.s:2769   .text.alcs_sendrsp_secure:0000000000000196 .L197
C:\Users\stapi\AppData\Local\Temp\ccKCoria.s:2838   .text.alcs_sendrsp_secure:00000000000001ea .L199
C:\Users\stapi\AppData\Local\Temp\ccKCoria.s:2951   .rodata.add_message_seq.str1.4:0000000000000000 .LC33
C:\Users\stapi\AppData\Local\Temp\ccKCoria.s:3035   .text.add_message_seq:0000000000000074 .L211
C:\Users\stapi\AppData\Local\Temp\ccKCoria.s:3052   .rodata.internal_secure_send.str1.4:0000000000000000 .LC34
C:\Users\stapi\AppData\Local\Temp\ccKCoria.s:3055   .rodata.internal_secure_send.str1.4:0000000000000018 .LC35
C:\Users\stapi\AppData\Local\Temp\ccKCoria.s:3058   .rodata.internal_secure_send.str1.4:000000000000002c .LC36
C:\Users\stapi\AppData\Local\Temp\ccKCoria.s:3111   .text.internal_secure_send:0000000000000044 .L218
C:\Users\stapi\AppData\Local\Temp\ccKCoria.s:3146   .text.internal_secure_send:0000000000000082 .L219
C:\Users\stapi\AppData\Local\Temp\ccKCoria.s:3132   .text.internal_secure_send:0000000000000078 .L217
C:\Users\stapi\AppData\Local\Temp\ccKCoria.s:8970   .debug_abbrev:0000000000000000 .Ldebug_abbrev0
C:\Users\stapi\AppData\Local\Temp\ccKCoria.s:13098  .debug_str:0000000000000a08 .LASF194
C:\Users\stapi\AppData\Local\Temp\ccKCoria.s:12728  .debug_str:000000000000002e .LASF195
C:\Users\stapi\AppData\Local\Temp\ccKCoria.s:12872  .debug_str:000000000000042c .LASF196
C:\Users\stapi\AppData\Local\Temp\ccKCoria.s:12558  .debug_ranges:0000000000000000 .Ldebug_ranges0
C:\Users\stapi\AppData\Local\Temp\ccKCoria.s:12718  .debug_line:0000000000000000 .Ldebug_line0
C:\Users\stapi\AppData\Local\Temp\ccKCoria.s:12788  .debug_str:0000000000000227 .LASF0
C:\Users\stapi\AppData\Local\Temp\ccKCoria.s:12742  .debug_str:000000000000010c .LASF7
C:\Users\stapi\AppData\Local\Temp\ccKCoria.s:12976  .debug_str:000000000000074f .LASF1
C:\Users\stapi\AppData\Local\Temp\ccKCoria.s:12990  .debug_str:000000000000078e .LASF2
C:\Users\stapi\AppData\Local\Temp\ccKCoria.s:12866  .debug_str:0000000000000408 .LASF3
C:\Users\stapi\AppData\Local\Temp\ccKCoria.s:12798  .debug_str:000000000000026c .LASF4
C:\Users\stapi\AppData\Local\Temp\ccKCoria.s:12852  .debug_str:00000000000003ba .LASF5
C:\Users\stapi\AppData\Local\Temp\ccKCoria.s:12786  .debug_str:0000000000000219 .LASF6
C:\Users\stapi\AppData\Local\Temp\ccKCoria.s:12948  .debug_str:00000000000006af .LASF8
C:\Users\stapi\AppData\Local\Temp\ccKCoria.s:12792  .debug_str:0000000000000244 .LASF9
C:\Users\stapi\AppData\Local\Temp\ccKCoria.s:12846  .debug_str:000000000000039c .LASF10
C:\Users\stapi\AppData\Local\Temp\ccKCoria.s:12730  .debug_str:00000000000000c4 .LASF11
C:\Users\stapi\AppData\Local\Temp\ccKCoria.s:13022  .debug_str:000000000000085e .LASF12
C:\Users\stapi\AppData\Local\Temp\ccKCoria.s:13088  .debug_str:00000000000009d2 .LASF13
C:\Users\stapi\AppData\Local\Temp\ccKCoria.s:12930  .debug_str:0000000000000656 .LASF14
C:\Users\stapi\AppData\Local\Temp\ccKCoria.s:12972  .debug_str:0000000000000730 .LASF35
C:\Users\stapi\AppData\Local\Temp\ccKCoria.s:12968  .debug_str:0000000000000723 .LASF15
C:\Users\stapi\AppData\Local\Temp\ccKCoria.s:12840  .debug_str:000000000000037f .LASF16
C:\Users\stapi\AppData\Local\Temp\ccKCoria.s:12888  .debug_str:0000000000000524 .LASF17
C:\Users\stapi\AppData\Local\Temp\ccKCoria.s:12762  .debug_str:000000000000017c .LASF18
C:\Users\stapi\AppData\Local\Temp\ccKCoria.s:12738  .debug_str:00000000000000e8 .LASF19
C:\Users\stapi\AppData\Local\Temp\ccKCoria.s:13026  .debug_str:000000000000086c .LASF20
C:\Users\stapi\AppData\Local\Temp\ccKCoria.s:12802  .debug_str:0000000000000281 .LASF21
C:\Users\stapi\AppData\Local\Temp\ccKCoria.s:12758  .debug_str:0000000000000154 .LASF22
C:\Users\stapi\AppData\Local\Temp\ccKCoria.s:12996  .debug_str:00000000000007bb .LASF23
C:\Users\stapi\AppData\Local\Temp\ccKCoria.s:12946  .debug_str:00000000000006a1 .LASF24
C:\Users\stapi\AppData\Local\Temp\ccKCoria.s:12864  .debug_str:0000000000000403 .LASF25
C:\Users\stapi\AppData\Local\Temp\ccKCoria.s:12874  .debug_str:00000000000004bd .LASF26
C:\Users\stapi\AppData\Local\Temp\ccKCoria.s:12912  .debug_str:00000000000005d9 .LASF27
C:\Users\stapi\AppData\Local\Temp\ccKCoria.s:12748  .debug_str:0000000000000121 .LASF28
C:\Users\stapi\AppData\Local\Temp\ccKCoria.s:12830  .debug_str:0000000000000345 .LASF29
C:\Users\stapi\AppData\Local\Temp\ccKCoria.s:13070  .debug_str:0000000000000972 .LASF30
C:\Users\stapi\AppData\Local\Temp\ccKCoria.s:13002  .debug_str:00000000000007e5 .LASF31
C:\Users\stapi\AppData\Local\Temp\ccKCoria.s:12878  .debug_str:00000000000004db .LASF32
C:\Users\stapi\AppData\Local\Temp\ccKCoria.s:12804  .debug_str:0000000000000296 .LASF33
C:\Users\stapi\AppData\Local\Temp\ccKCoria.s:12920  .debug_str:000000000000060e .LASF197
C:\Users\stapi\AppData\Local\Temp\ccKCoria.s:12932  .debug_str:000000000000065f .LASF34
C:\Users\stapi\AppData\Local\Temp\ccKCoria.s:13116  .debug_str:0000000000000b60 .LASF36
C:\Users\stapi\AppData\Local\Temp\ccKCoria.s:12956  .debug_str:00000000000006e1 .LASF37
C:\Users\stapi\AppData\Local\Temp\ccKCoria.s:12834  .debug_str:0000000000000358 .LASF38
C:\Users\stapi\AppData\Local\Temp\ccKCoria.s:13024  .debug_str:0000000000000863 .LASF39
C:\Users\stapi\AppData\Local\Temp\ccKCoria.s:13074  .debug_str:000000000000097e .LASF40
C:\Users\stapi\AppData\Local\Temp\ccKCoria.s:12910  .debug_str:00000000000005ce .LASF41
C:\Users\stapi\AppData\Local\Temp\ccKCoria.s:13048  .debug_str:00000000000008f8 .LASF42
C:\Users\stapi\AppData\Local\Temp\ccKCoria.s:12906  .debug_str:00000000000005b4 .LASF43
C:\Users\stapi\AppData\Local\Temp\ccKCoria.s:12962  .debug_str:00000000000006ff .LASF44
C:\Users\stapi\AppData\Local\Temp\ccKCoria.s:13100  .debug_str:0000000000000aef .LASF45
C:\Users\stapi\AppData\Local\Temp\ccKCoria.s:12776  .debug_str:00000000000001de .LASF46
C:\Users\stapi\AppData\Local\Temp\ccKCoria.s:12896  .debug_str:0000000000000569 .LASF47
C:\Users\stapi\AppData\Local\Temp\ccKCoria.s:13038  .debug_str:00000000000008c3 .LASF48
C:\Users\stapi\AppData\Local\Temp\ccKCoria.s:12900  .debug_str:000000000000058f .LASF49
C:\Users\stapi\AppData\Local\Temp\ccKCoria.s:12744  .debug_str:0000000000000116 .LASF50
C:\Users\stapi\AppData\Local\Temp\ccKCoria.s:12732  .debug_str:00000000000000cb .LASF51
C:\Users\stapi\AppData\Local\Temp\ccKCoria.s:12970  .debug_str:0000000000000728 .LASF52
C:\Users\stapi\AppData\Local\Temp\ccKCoria.s:13034  .debug_str:000000000000089f .LASF53
C:\Users\stapi\AppData\Local\Temp\ccKCoria.s:12780  .debug_str:00000000000001f0 .LASF54
C:\Users\stapi\AppData\Local\Temp\ccKCoria.s:13006  .debug_str:00000000000007f9 .LASF55
C:\Users\stapi\AppData\Local\Temp\ccKCoria.s:13060  .debug_str:000000000000092d .LASF56
C:\Users\stapi\AppData\Local\Temp\ccKCoria.s:12766  .debug_str:0000000000000199 .LASF57
C:\Users\stapi\AppData\Local\Temp\ccKCoria.s:12988  .debug_str:0000000000000787 .LASF58
C:\Users\stapi\AppData\Local\Temp\ccKCoria.s:12822  .debug_str:0000000000000309 .LASF59
C:\Users\stapi\AppData\Local\Temp\ccKCoria.s:12850  .debug_str:00000000000003b0 .LASF60
C:\Users\stapi\AppData\Local\Temp\ccKCoria.s:12810  .debug_str:00000000000002b4 .LASF61
C:\Users\stapi\AppData\Local\Temp\ccKCoria.s:12782  .debug_str:00000000000001fa .LASF62
C:\Users\stapi\AppData\Local\Temp\ccKCoria.s:13096  .debug_str:0000000000000a02 .LASF63
C:\Users\stapi\AppData\Local\Temp\ccKCoria.s:13018  .debug_str:0000000000000848 .LASF64
C:\Users\stapi\AppData\Local\Temp\ccKCoria.s:12764  .debug_str:000000000000018f .LASF65
C:\Users\stapi\AppData\Local\Temp\ccKCoria.s:13076  .debug_str:0000000000000987 .LASF66
C:\Users\stapi\AppData\Local\Temp\ccKCoria.s:12756  .debug_str:0000000000000146 .LASF67
C:\Users\stapi\AppData\Local\Temp\ccKCoria.s:12994  .debug_str:00000000000007b0 .LASF68
C:\Users\stapi\AppData\Local\Temp\ccKCoria.s:12828  .debug_str:000000000000033c .LASF69
C:\Users\stapi\AppData\Local\Temp\ccKCoria.s:13050  .debug_str:0000000000000900 .LASF70
C:\Users\stapi\AppData\Local\Temp\ccKCoria.s:12722  .debug_str:0000000000000013 .LASF71
C:\Users\stapi\AppData\Local\Temp\ccKCoria.s:12842  .debug_str:0000000000000384 .LASF72
C:\Users\stapi\AppData\Local\Temp\ccKCoria.s:12986  .debug_str:000000000000077f .LASF73
C:\Users\stapi\AppData\Local\Temp\ccKCoria.s:12778  .debug_str:00000000000001e8 .LASF74
C:\Users\stapi\AppData\Local\Temp\ccKCoria.s:13066  .debug_str:0000000000000960 .LASF75
C:\Users\stapi\AppData\Local\Temp\ccKCoria.s:12928  .debug_str:0000000000000649 .LASF76
C:\Users\stapi\AppData\Local\Temp\ccKCoria.s:13056  .debug_str:0000000000000918 .LASF77
C:\Users\stapi\AppData\Local\Temp\ccKCoria.s:13104  .debug_str:0000000000000b03 .LASF78
C:\Users\stapi\AppData\Local\Temp\ccKCoria.s:12806  .debug_str:00000000000002a4 .LASF79
C:\Users\stapi\AppData\Local\Temp\ccKCoria.s:12954  .debug_str:00000000000006d7 .LASF80
C:\Users\stapi\AppData\Local\Temp\ccKCoria.s:12814  .debug_str:00000000000002c5 .LASF81
C:\Users\stapi\AppData\Local\Temp\ccKCoria.s:12790  .debug_str:0000000000000233 .LASF82
C:\Users\stapi\AppData\Local\Temp\ccKCoria.s:13032  .debug_str:0000000000000892 .LASF83
C:\Users\stapi\AppData\Local\Temp\ccKCoria.s:12870  .debug_str:0000000000000427 .LASF84
C:\Users\stapi\AppData\Local\Temp\ccKCoria.s:12820  .debug_str:00000000000002f8 .LASF85
C:\Users\stapi\AppData\Local\Temp\ccKCoria.s:12854  .debug_str:00000000000003cc .LASF86
C:\Users\stapi\AppData\Local\Temp\ccKCoria.s:13036  .debug_str:00000000000008ab .LASF87
C:\Users\stapi\AppData\Local\Temp\ccKCoria.s:12812  .debug_str:00000000000002be .LASF88
C:\Users\stapi\AppData\Local\Temp\ccKCoria.s:12952  .debug_str:00000000000006cd .LASF96
C:\Users\stapi\AppData\Local\Temp\ccKCoria.s:12926  .debug_str:000000000000063a .LASF89
C:\Users\stapi\AppData\Local\Temp\ccKCoria.s:12772  .debug_str:00000000000001c7 .LASF93
C:\Users\stapi\AppData\Local\Temp\ccKCoria.s:12938  .debug_str:0000000000000683 .LASF90
C:\Users\stapi\AppData\Local\Temp\ccKCoria.s:12944  .debug_str:0000000000000699 .LASF91
C:\Users\stapi\AppData\Local\Temp\ccKCoria.s:12858  .debug_str:00000000000003d9 .LASF101
C:\Users\stapi\AppData\Local\Temp\ccKCoria.s:12880  .debug_str:00000000000004e9 .LASF92
C:\Users\stapi\AppData\Local\Temp\ccKCoria.s:12890  .debug_str:0000000000000530 .LASF94
C:\Users\stapi\AppData\Local\Temp\ccKCoria.s:12734  .debug_str:00000000000000d0 .LASF95
C:\Users\stapi\AppData\Local\Temp\ccKCoria.s:13080  .debug_str:00000000000009a7 .LASF98
C:\Users\stapi\AppData\Local\Temp\ccKCoria.s:2291   .text.get_message_sessionid:0000000000000000 .LFB45
C:\Users\stapi\AppData\Local\Temp\ccKCoria.s:2402   .text.get_message_sessionid:000000000000007e .LFE45
C:\Users\stapi\AppData\Local\Temp\ccKCoria.s:10263  .debug_loc:0000000000000000 .LLST93
C:\Users\stapi\AppData\Local\Temp\ccKCoria.s:10288  .debug_loc:000000000000003a .LLST94
C:\Users\stapi\AppData\Local\Temp\ccKCoria.s:10302  .debug_loc:000000000000005b .LLST95
C:\Users\stapi\AppData\Local\Temp\ccKCoria.s:12922  .debug_str:000000000000061a .LASF97
C:\Users\stapi\AppData\Local\Temp\ccKCoria.s:2327   .text.get_message_sessionid:000000000000002a .LVL242
C:\Users\stapi\AppData\Local\Temp\ccKCoria.s:2385   .text.get_message_sessionid:000000000000006a .LVL245
C:\Users\stapi\AppData\Local\Temp\ccKCoria.s:2399   .text.get_message_sessionid:000000000000007c .LVL248
C:\Users\stapi\AppData\Local\Temp\ccKCoria.s:13030  .debug_str:0000000000000881 .LASF99
C:\Users\stapi\AppData\Local\Temp\ccKCoria.s:1960   .text.seqwindow_accept:0000000000000000 .LFB44
C:\Users\stapi\AppData\Local\Temp\ccKCoria.s:2284   .text.seqwindow_accept:00000000000001f0 .LFE44
C:\Users\stapi\AppData\Local\Temp\ccKCoria.s:10342  .debug_loc:00000000000000b9 .LLST86
C:\Users\stapi\AppData\Local\Temp\ccKCoria.s:10356  .debug_loc:00000000000000da .LLST87
C:\Users\stapi\AppData\Local\Temp\ccKCoria.s:13094  .debug_str:00000000000009fc .LASF100
C:\Users\stapi\AppData\Local\Temp\ccKCoria.s:10367  .debug_loc:00000000000000f8 .LLST88
C:\Users\stapi\AppData\Local\Temp\ccKCoria.s:10398  .debug_loc:000000000000012a .LLST89
C:\Users\stapi\AppData\Local\Temp\ccKCoria.s:13046  .debug_str:00000000000008f1 .LASF102
C:\Users\stapi\AppData\Local\Temp\ccKCoria.s:10405  .debug_loc:000000000000013d .LLST90
C:\Users\stapi\AppData\Local\Temp\ccKCoria.s:13028  .debug_str:000000000000087b .LASF103
C:\Users\stapi\AppData\Local\Temp\ccKCoria.s:10412  .debug_loc:0000000000000150 .LLST91
C:\Users\stapi\AppData\Local\Temp\ccKCoria.s:2156   .text.seqwindow_accept:0000000000000148 .LVL227
C:\Users\stapi\AppData\Local\Temp\ccKCoria.s:2234   .text.seqwindow_accept:000000000000019a .LBB85
C:\Users\stapi\AppData\Local\Temp\ccKCoria.s:2282   .text.seqwindow_accept:00000000000001f0 .LBE85
C:\Users\stapi\AppData\Local\Temp\ccKCoria.s:13062  .debug_str:0000000000000942 .LASF104
C:\Users\stapi\AppData\Local\Temp\ccKCoria.s:10435  .debug_loc:0000000000000181 .LLST92
C:\Users\stapi\AppData\Local\Temp\ccKCoria.s:2262   .text.seqwindow_accept:00000000000001d0 .LVL237
C:\Users\stapi\AppData\Local\Temp\ccKCoria.s:1996   .text.seqwindow_accept:0000000000000024 .LVL211
C:\Users\stapi\AppData\Local\Temp\ccKCoria.s:2009   .text.seqwindow_accept:0000000000000042 .LVL212
C:\Users\stapi\AppData\Local\Temp\ccKCoria.s:2017   .text.seqwindow_accept:0000000000000052 .LVL214
C:\Users\stapi\AppData\Local\Temp\ccKCoria.s:2021   .text.seqwindow_accept:000000000000005e .LVL215
C:\Users\stapi\AppData\Local\Temp\ccKCoria.s:2052   .text.seqwindow_accept:000000000000007a .LVL217
C:\Users\stapi\AppData\Local\Temp\ccKCoria.s:2062   .text.seqwindow_accept:0000000000000090 .LVL218
C:\Users\stapi\AppData\Local\Temp\ccKCoria.s:2066   .text.seqwindow_accept:000000000000009c .LVL219
C:\Users\stapi\AppData\Local\Temp\ccKCoria.s:2075   .text.seqwindow_accept:00000000000000b0 .LVL220
C:\Users\stapi\AppData\Local\Temp\ccKCoria.s:2082   .text.seqwindow_accept:00000000000000be .LVL221
C:\Users\stapi\AppData\Local\Temp\ccKCoria.s:2090   .text.seqwindow_accept:00000000000000ce .LVL222
C:\Users\stapi\AppData\Local\Temp\ccKCoria.s:2115   .text.seqwindow_accept:00000000000000f2 .LVL223
C:\Users\stapi\AppData\Local\Temp\ccKCoria.s:2120   .text.seqwindow_accept:0000000000000102 .LVL224
C:\Users\stapi\AppData\Local\Temp\ccKCoria.s:2124   .text.seqwindow_accept:000000000000010e .LVL225
C:\Users\stapi\AppData\Local\Temp\ccKCoria.s:13014  .debug_str:0000000000000832 .LASF126
C:\Users\stapi\AppData\Local\Temp\ccKCoria.s:1917   .text.on_auth_timer:0000000000000000 .LFB43
C:\Users\stapi\AppData\Local\Temp\ccKCoria.s:1934   .text.on_auth_timer:0000000000000014 .LFE43
C:\Users\stapi\AppData\Local\Temp\ccKCoria.s:13054  .debug_str:0000000000000912 .LASF105
C:\Users\stapi\AppData\Local\Temp\ccKCoria.s:10442  .debug_loc:0000000000000194 .LLST85
C:\Users\stapi\AppData\Local\Temp\ccKCoria.s:12918  .debug_str:00000000000005fc .LASF106
C:\Users\stapi\AppData\Local\Temp\ccKCoria.s:1930   .text.on_auth_timer:0000000000000012 .LVL207
C:\Users\stapi\AppData\Local\Temp\ccKCoria.s:12818  .debug_str:00000000000002e5 .LASF107
C:\Users\stapi\AppData\Local\Temp\ccKCoria.s:1828   .text.req_payload_parser:0000000000000000 .LFB42
C:\Users\stapi\AppData\Local\Temp\ccKCoria.s:1910   .text.req_payload_parser:0000000000000064 .LFE42
C:\Users\stapi\AppData\Local\Temp\ccKCoria.s:10460  .debug_loc:00000000000001c0 .LLST79
C:\Users\stapi\AppData\Local\Temp\ccKCoria.s:10489  .debug_loc:0000000000000205 .LLST80
C:\Users\stapi\AppData\Local\Temp\ccKCoria.s:10504  .debug_loc:000000000000022e .LLST81
C:\Users\stapi\AppData\Local\Temp\ccKCoria.s:12724  .debug_str:0000000000000020 .LASF108
C:\Users\stapi\AppData\Local\Temp\ccKCoria.s:10526  .debug_loc:0000000000000265 .LLST82
C:\Users\stapi\AppData\Local\Temp\ccKCoria.s:10544  .debug_loc:0000000000000291 .LLST83
C:\Users\stapi\AppData\Local\Temp\ccKCoria.s:10566  .debug_loc:00000000000002c8 .LLST84
C:\Users\stapi\AppData\Local\Temp\ccKCoria.s:1870   .text.req_payload_parser:0000000000000032 .LVL201
C:\Users\stapi\AppData\Local\Temp\ccKCoria.s:1883   .text.req_payload_parser:000000000000004e .LVL202
C:\Users\stapi\AppData\Local\Temp\ccKCoria.s:13010  .debug_str:0000000000000812 .LASF109
C:\Users\stapi\AppData\Local\Temp\ccKCoria.s:2513   .text.alcs_sendrsp_secure:0000000000000000 .LFB41
C:\Users\stapi\AppData\Local\Temp\ccKCoria.s:2947   .text.alcs_sendrsp_secure:000000000000029e .LFE41
C:\Users\stapi\AppData\Local\Temp\ccKCoria.s:10588  .debug_loc:00000000000002ff .LLST103
C:\Users\stapi\AppData\Local\Temp\ccKCoria.s:12934  .debug_str:000000000000066b .LASF110
C:\Users\stapi\AppData\Local\Temp\ccKCoria.s:10599  .debug_loc:000000000000031d .LLST104
C:\Users\stapi\AppData\Local\Temp\ccKCoria.s:10610  .debug_loc:000000000000033b .LLST105
C:\Users\stapi\AppData\Local\Temp\ccKCoria.s:10654  .debug_loc:00000000000003a4 .LLST106
C:\Users\stapi\AppData\Local\Temp\ccKCoria.s:10668  .debug_loc:00000000000003c5 .LLST107
C:\Users\stapi\AppData\Local\Temp\ccKCoria.s:10682  .debug_loc:00000000000003e6 .LLST108
C:\Users\stapi\AppData\Local\Temp\ccKCoria.s:10726  .debug_loc:000000000000044f .LLST109
C:\Users\stapi\AppData\Local\Temp\ccKCoria.s:12868  .debug_str:000000000000041b .LASF111
C:\Users\stapi\AppData\Local\Temp\ccKCoria.s:10746  .debug_loc:0000000000000484 .LLST110
C:\Users\stapi\AppData\Local\Temp\ccKCoria.s:10757  .debug_loc:00000000000004a2 .LLST111
C:\Users\stapi\AppData\Local\Temp\ccKCoria.s:10764  .debug_loc:00000000000004b5 .LLST118
C:\Users\stapi\AppData\Local\Temp\ccKCoria.s:2808   .text.alcs_sendrsp_secure:00000000000001c4 .LBB110
C:\Users\stapi\AppData\Local\Temp\ccKCoria.s:10776  .debug_loc:00000000000004d4 .LLST119
C:\Users\stapi\AppData\Local\Temp\ccKCoria.s:10795  .debug_loc:0000000000000508 .LLST120
C:\Users\stapi\AppData\Local\Temp\ccKCoria.s:10810  .debug_loc:0000000000000530 .LLST121
C:\Users\stapi\AppData\Local\Temp\ccKCoria.s:10829  .debug_loc:0000000000000564 .LLST122
C:\Users\stapi\AppData\Local\Temp\ccKCoria.s:10854  .debug_loc:00000000000005a6 .LLST123
C:\Users\stapi\AppData\Local\Temp\ccKCoria.s:2822   .text.alcs_sendrsp_secure:00000000000001d2 .LVL294
C:\Users\stapi\AppData\Local\Temp\ccKCoria.s:2845   .text.alcs_sendrsp_secure:00000000000001fc .LVL298
C:\Users\stapi\AppData\Local\Temp\ccKCoria.s:2873   .text.alcs_sendrsp_secure:0000000000000236 .LVL300
C:\Users\stapi\AppData\Local\Temp\ccKCoria.s:2877   .text.alcs_sendrsp_secure:0000000000000240 .LVL301
C:\Users\stapi\AppData\Local\Temp\ccKCoria.s:2639   .text.alcs_sendrsp_secure:00000000000000ae .LVL273
C:\Users\stapi\AppData\Local\Temp\ccKCoria.s:2899   .text.alcs_sendrsp_secure:000000000000025e .LVL302
C:\Users\stapi\AppData\Local\Temp\ccKCoria.s:2909   .text.alcs_sendrsp_secure:0000000000000280 .LVL303
C:\Users\stapi\AppData\Local\Temp\ccKCoria.s:2572   .text.alcs_sendrsp_secure:0000000000000046 .LBB99
C:\Users\stapi\AppData\Local\Temp\ccKCoria.s:10868  .debug_loc:00000000000005ca .LLST112
C:\Users\stapi\AppData\Local\Temp\ccKCoria.s:10883  .debug_loc:00000000000005f3 .LLST113
C:\Users\stapi\AppData\Local\Temp\ccKCoria.s:10891  .debug_loc:0000000000000607 .LLST114
C:\Users\stapi\AppData\Local\Temp\ccKCoria.s:10906  .debug_loc:0000000000000630 .LLST115
C:\Users\stapi\AppData\Local\Temp\ccKCoria.s:10927  .debug_loc:0000000000000668 .LLST116
C:\Users\stapi\AppData\Local\Temp\ccKCoria.s:10951  .debug_loc:00000000000006a8 .LLST117
C:\Users\stapi\AppData\Local\Temp\ccKCoria.s:2603   .text.alcs_sendrsp_secure:0000000000000064 .LVL268
C:\Users\stapi\AppData\Local\Temp\ccKCoria.s:2622   .text.alcs_sendrsp_secure:0000000000000090 .LVL271
C:\Users\stapi\AppData\Local\Temp\ccKCoria.s:2677   .text.alcs_sendrsp_secure:00000000000000ce .LVL276
C:\Users\stapi\AppData\Local\Temp\ccKCoria.s:2685   .text.alcs_sendrsp_secure:00000000000000de .LVL277
C:\Users\stapi\AppData\Local\Temp\ccKCoria.s:2699   .text.alcs_sendrsp_secure:000000000000010a .LVL278
C:\Users\stapi\AppData\Local\Temp\ccKCoria.s:2703   .text.alcs_sendrsp_secure:0000000000000114 .LVL279
C:\Users\stapi\AppData\Local\Temp\ccKCoria.s:2563   .text.alcs_sendrsp_secure:000000000000003a .LVL265
C:\Users\stapi\AppData\Local\Temp\ccKCoria.s:2715   .text.alcs_sendrsp_secure:0000000000000122 .LVL280
C:\Users\stapi\AppData\Local\Temp\ccKCoria.s:2734   .text.alcs_sendrsp_secure:000000000000014a .LVL281
C:\Users\stapi\AppData\Local\Temp\ccKCoria.s:2744   .text.alcs_sendrsp_secure:000000000000015e .LVL282
C:\Users\stapi\AppData\Local\Temp\ccKCoria.s:2751   .text.alcs_sendrsp_secure:000000000000016e .LVL283
C:\Users\stapi\AppData\Local\Temp\ccKCoria.s:2764   .text.alcs_sendrsp_secure:0000000000000192 .LVL284
C:\Users\stapi\AppData\Local\Temp\ccKCoria.s:2776   .text.alcs_sendrsp_secure:00000000000001a4 .LVL286
C:\Users\stapi\AppData\Local\Temp\ccKCoria.s:2782   .text.alcs_sendrsp_secure:00000000000001b0 .LVL288
C:\Users\stapi\AppData\Local\Temp\ccKCoria.s:12816  .debug_str:00000000000002d0 .LASF112
C:\Users\stapi\AppData\Local\Temp\ccKCoria.s:3065   .text.internal_secure_send:0000000000000000 .LFB40
C:\Users\stapi\AppData\Local\Temp\ccKCoria.s:3197   .text.internal_secure_send:00000000000000ee .LFE40
C:\Users\stapi\AppData\Local\Temp\ccKCoria.s:10981  .debug_loc:00000000000006f5 .LLST128
C:\Users\stapi\AppData\Local\Temp\ccKCoria.s:10992  .debug_loc:0000000000000713 .LLST129
C:\Users\stapi\AppData\Local\Temp\ccKCoria.s:11003  .debug_loc:0000000000000731 .LLST130
C:\Users\stapi\AppData\Local\Temp\ccKCoria.s:11014  .debug_loc:000000000000074f .LLST131
C:\Users\stapi\AppData\Local\Temp\ccKCoria.s:3101   .text.internal_secure_send:0000000000000038 .LVL323
C:\Users\stapi\AppData\Local\Temp\ccKCoria.s:3117   .text.internal_secure_send:0000000000000054 .LVL324
C:\Users\stapi\AppData\Local\Temp\ccKCoria.s:3122   .text.internal_secure_send:0000000000000064 .LVL325
C:\Users\stapi\AppData\Local\Temp\ccKCoria.s:3127   .text.internal_secure_send:0000000000000074 .LVL326
C:\Users\stapi\AppData\Local\Temp\ccKCoria.s:3153   .text.internal_secure_send:0000000000000092 .LVL327
C:\Users\stapi\AppData\Local\Temp\ccKCoria.s:3171   .text.internal_secure_send:00000000000000ae .LVL328
C:\Users\stapi\AppData\Local\Temp\ccKCoria.s:3176   .text.internal_secure_send:00000000000000ba .LVL329
C:\Users\stapi\AppData\Local\Temp\ccKCoria.s:3186   .text.internal_secure_send:00000000000000da .LVL330
C:\Users\stapi\AppData\Local\Temp\ccKCoria.s:3194   .text.internal_secure_send:00000000000000ec .LVL331
C:\Users\stapi\AppData\Local\Temp\ccKCoria.s:12974  .debug_str:0000000000000740 .LASF198
C:\Users\stapi\AppData\Local\Temp\ccKCoria.s:1414   .text.do_secure_send:0000000000000000 .LFB39
C:\Users\stapi\AppData\Local\Temp\ccKCoria.s:1526   .text.do_secure_send:0000000000000096 .LFE39
C:\Users\stapi\AppData\Local\Temp\ccKCoria.s:11025  .debug_loc:000000000000076d .LLST62
C:\Users\stapi\AppData\Local\Temp\ccKCoria.s:11043  .debug_loc:0000000000000799 .LLST63
C:\Users\stapi\AppData\Local\Temp\ccKCoria.s:11054  .debug_loc:00000000000007b7 .LLST64
C:\Users\stapi\AppData\Local\Temp\ccKCoria.s:11065  .debug_loc:00000000000007d5 .LLST65
C:\Users\stapi\AppData\Local\Temp\ccKCoria.s:11076  .debug_loc:00000000000007f3 .LLST66
C:\Users\stapi\AppData\Local\Temp\ccKCoria.s:13082  .debug_str:00000000000009bd .LASF113
C:\Users\stapi\AppData\Local\Temp\ccKCoria.s:11092  .debug_loc:000000000000081d .LLST67
C:\Users\stapi\AppData\Local\Temp\ccKCoria.s:12796  .debug_str:0000000000000260 .LASF114
C:\Users\stapi\AppData\Local\Temp\ccKCoria.s:12808  .debug_str:00000000000002ac .LASF115
C:\Users\stapi\AppData\Local\Temp\ccKCoria.s:1454   .text.do_secure_send:0000000000000036 .LVL151
C:\Users\stapi\AppData\Local\Temp\ccKCoria.s:1467   .text.do_secure_send:000000000000004a .LVL152
C:\Users\stapi\AppData\Local\Temp\ccKCoria.s:1488   .text.do_secure_send:0000000000000066 .LVL154
C:\Users\stapi\AppData\Local\Temp\ccKCoria.s:1497   .text.do_secure_send:0000000000000078 .LVL155
C:\Users\stapi\AppData\Local\Temp\ccKCoria.s:1511   .text.do_secure_send:000000000000008c .LVL158
C:\Users\stapi\AppData\Local\Temp\ccKCoria.s:13058  .debug_str:0000000000000920 .LASF116
C:\Users\stapi\AppData\Local\Temp\ccKCoria.s:1803   .text.alcs_is_auth:0000000000000000 .LFB38
C:\Users\stapi\AppData\Local\Temp\ccKCoria.s:1814   .text.alcs_is_auth:0000000000000004 .LFE38
C:\Users\stapi\AppData\Local\Temp\ccKCoria.s:11111  .debug_loc:000000000000083e .LLST78
C:\Users\stapi\AppData\Local\Temp\ccKCoria.s:13020  .debug_str:0000000000000851 .LASF117
C:\Users\stapi\AppData\Local\Temp\ccKCoria.s:1552   .text.alcs_decrypt:0000000000000000 .LFB37
C:\Users\stapi\AppData\Local\Temp\ccKCoria.s:1796   .text.alcs_decrypt:000000000000016e .LFE37
C:\Users\stapi\AppData\Local\Temp\ccKCoria.s:11125  .debug_loc:000000000000085f .LLST68
C:\Users\stapi\AppData\Local\Temp\ccKCoria.s:11136  .debug_loc:000000000000087d .LLST69
C:\Users\stapi\AppData\Local\Temp\ccKCoria.s:11165  .debug_loc:00000000000008c2 .LLST70
C:\Users\stapi\AppData\Local\Temp\ccKCoria.s:11205  .debug_loc:0000000000000920 .LLST71
C:\Users\stapi\AppData\Local\Temp\ccKCoria.s:13016  .debug_str:0000000000000840 .LASF118
C:\Users\stapi\AppData\Local\Temp\ccKCoria.s:11216  .debug_loc:000000000000093e .LLST72
C:\Users\stapi\AppData\Local\Temp\ccKCoria.s:11247  .debug_loc:0000000000000993 .LLST73
C:\Users\stapi\AppData\Local\Temp\ccKCoria.s:11285  .debug_loc:00000000000009f6 .LLST74
C:\Users\stapi\AppData\Local\Temp\ccKCoria.s:12746  .debug_str:000000000000011b .LASF119
C:\Users\stapi\AppData\Local\Temp\ccKCoria.s:11348  .debug_loc:0000000000000a79 .LLST75
C:\Users\stapi\AppData\Local\Temp\ccKCoria.s:11359  .debug_loc:0000000000000a97 .LLST76
C:\Users\stapi\AppData\Local\Temp\ccKCoria.s:11366  .debug_loc:0000000000000aaa .LLST77
C:\Users\stapi\AppData\Local\Temp\ccKCoria.s:1614   .text.alcs_decrypt:0000000000000058 .LVL166
C:\Users\stapi\AppData\Local\Temp\ccKCoria.s:1628   .text.alcs_decrypt:000000000000006c .LVL170
C:\Users\stapi\AppData\Local\Temp\ccKCoria.s:1635   .text.alcs_decrypt:000000000000007c .LVL171
C:\Users\stapi\AppData\Local\Temp\ccKCoria.s:1640   .text.alcs_decrypt:000000000000008c .LVL172
C:\Users\stapi\AppData\Local\Temp\ccKCoria.s:1676   .text.alcs_decrypt:00000000000000aa .LVL175
C:\Users\stapi\AppData\Local\Temp\ccKCoria.s:1683   .text.alcs_decrypt:00000000000000b6 .LVL178
C:\Users\stapi\AppData\Local\Temp\ccKCoria.s:1711   .text.alcs_decrypt:00000000000000d8 .LVL182
C:\Users\stapi\AppData\Local\Temp\ccKCoria.s:1723   .text.alcs_decrypt:00000000000000ec .LVL184
C:\Users\stapi\AppData\Local\Temp\ccKCoria.s:1729   .text.alcs_decrypt:00000000000000f8 .LVL186
C:\Users\stapi\AppData\Local\Temp\ccKCoria.s:1738   .text.alcs_decrypt:000000000000010a .LVL187
C:\Users\stapi\AppData\Local\Temp\ccKCoria.s:1750   .text.alcs_decrypt:0000000000000124 .LVL189
C:\Users\stapi\AppData\Local\Temp\ccKCoria.s:1790   .text.alcs_decrypt:000000000000016c .LVL195
C:\Users\stapi\AppData\Local\Temp\ccKCoria.s:1593   .text.alcs_decrypt:000000000000003a .LVL164
C:\Users\stapi\AppData\Local\Temp\ccKCoria.s:13110  .debug_str:0000000000000b39 .LASF120
C:\Users\stapi\AppData\Local\Temp\ccKCoria.s:1239   .text.alcs_encrypt:0000000000000000 .LFB36
C:\Users\stapi\AppData\Local\Temp\ccKCoria.s:1404   .text.alcs_encrypt:00000000000000f0 .LFE36
C:\Users\stapi\AppData\Local\Temp\ccKCoria.s:11383  .debug_loc:0000000000000ace .LLST53
C:\Users\stapi\AppData\Local\Temp\ccKCoria.s:11402  .debug_loc:0000000000000b02 .LLST54
C:\Users\stapi\AppData\Local\Temp\ccKCoria.s:11413  .debug_loc:0000000000000b20 .LLST55
C:\Users\stapi\AppData\Local\Temp\ccKCoria.s:11446  .debug_loc:0000000000000b70 .LLST56
C:\Users\stapi\AppData\Local\Temp\ccKCoria.s:13084  .debug_str:00000000000009c8 .LASF121
C:\Users\stapi\AppData\Local\Temp\ccKCoria.s:13086  .debug_str:00000000000009cd .LASF122
C:\Users\stapi\AppData\Local\Temp\ccKCoria.s:11465  .debug_loc:0000000000000ba4 .LLST57
C:\Users\stapi\AppData\Local\Temp\ccKCoria.s:11478  .debug_loc:0000000000000bc4 .LLST58
C:\Users\stapi\AppData\Local\Temp\ccKCoria.s:11518  .debug_loc:0000000000000c14 .LLST59
C:\Users\stapi\AppData\Local\Temp\ccKCoria.s:1331   .text.alcs_encrypt:000000000000007c .LBB77
C:\Users\stapi\AppData\Local\Temp\ccKCoria.s:1360   .text.alcs_encrypt:00000000000000ae .LBE77
C:\Users\stapi\AppData\Local\Temp\ccKCoria.s:13044  .debug_str:00000000000008e9 .LASF123
C:\Users\stapi\AppData\Local\Temp\ccKCoria.s:11547  .debug_loc:0000000000000c60 .LLST61
C:\Users\stapi\AppData\Local\Temp\ccKCoria.s:1341   .text.alcs_encrypt:0000000000000090 .LVL136
C:\Users\stapi\AppData\Local\Temp\ccKCoria.s:1352   .text.alcs_encrypt:00000000000000a2 .LVL138
C:\Users\stapi\AppData\Local\Temp\ccKCoria.s:1359   .text.alcs_encrypt:00000000000000ae .LVL141
C:\Users\stapi\AppData\Local\Temp\ccKCoria.s:1285   .text.alcs_encrypt:0000000000000024 .LBB76
C:\Users\stapi\AppData\Local\Temp\ccKCoria.s:1330   .text.alcs_encrypt:000000000000007c .LBE76
C:\Users\stapi\AppData\Local\Temp\ccKCoria.s:11558  .debug_loc:0000000000000c7e .LLST60
C:\Users\stapi\AppData\Local\Temp\ccKCoria.s:1295   .text.alcs_encrypt:0000000000000038 .LVL126
C:\Users\stapi\AppData\Local\Temp\ccKCoria.s:1301   .text.alcs_encrypt:0000000000000048 .LVL127
C:\Users\stapi\AppData\Local\Temp\ccKCoria.s:1309   .text.alcs_encrypt:000000000000005c .LVL128
C:\Users\stapi\AppData\Local\Temp\ccKCoria.s:1320   .text.alcs_encrypt:000000000000006e .LVL130
C:\Users\stapi\AppData\Local\Temp\ccKCoria.s:1326   .text.alcs_encrypt:000000000000007a .LVL132
C:\Users\stapi\AppData\Local\Temp\ccKCoria.s:1380   .text.alcs_encrypt:00000000000000e0 .LVL143
C:\Users\stapi\AppData\Local\Temp\ccKCoria.s:13118  .debug_str:0000000000000b67 .LASF199
C:\Users\stapi\AppData\Local\Temp\ccKCoria.s:13112  .debug_str:0000000000000b46 .LASF124
C:\Users\stapi\AppData\Local\Temp\ccKCoria.s:12980  .debug_str:000000000000076c .LASF125
C:\Users\stapi\AppData\Local\Temp\ccKCoria.s:13040  .debug_str:00000000000008d1 .LASF127
C:\Users\stapi\AppData\Local\Temp\ccKCoria.s:684    .text.alcs_auth_deinit:0000000000000000 .LFB34
C:\Users\stapi\AppData\Local\Temp\ccKCoria.s:733    .text.alcs_auth_deinit:000000000000004c .LFE34
C:\Users\stapi\AppData\Local\Temp\ccKCoria.s:709    .text.alcs_auth_deinit:000000000000002a .LVL62
C:\Users\stapi\AppData\Local\Temp\ccKCoria.s:712    .text.alcs_auth_deinit:0000000000000032 .LVL63
C:\Users\stapi\AppData\Local\Temp\ccKCoria.s:720    .text.alcs_auth_deinit:000000000000003e .LVL64
C:\Users\stapi\AppData\Local\Temp\ccKCoria.s:12902  .debug_str:0000000000000597 .LASF128
C:\Users\stapi\AppData\Local\Temp\ccKCoria.s:620    .text.alcs_auth_subdev_init:0000000000000000 .LFB33
C:\Users\stapi\AppData\Local\Temp\ccKCoria.s:677    .text.alcs_auth_subdev_init:000000000000005a .LFE33
C:\Users\stapi\AppData\Local\Temp\ccKCoria.s:11569  .debug_loc:0000000000000c9c .LLST30
C:\Users\stapi\AppData\Local\Temp\ccKCoria.s:13008  .debug_str:0000000000000807 .LASF129
C:\Users\stapi\AppData\Local\Temp\ccKCoria.s:11580  .debug_loc:0000000000000cba .LLST31
C:\Users\stapi\AppData\Local\Temp\ccKCoria.s:12824  .debug_str:0000000000000319 .LASF130
C:\Users\stapi\AppData\Local\Temp\ccKCoria.s:11591  .debug_loc:0000000000000cd8 .LLST32
C:\Users\stapi\AppData\Local\Temp\ccKCoria.s:12754  .debug_str:0000000000000141 .LASF131
C:\Users\stapi\AppData\Local\Temp\ccKCoria.s:652    .text.alcs_auth_subdev_init:000000000000002a .LVL60
C:\Users\stapi\AppData\Local\Temp\ccKCoria.s:666    .text.alcs_auth_subdev_init:0000000000000050 .LVL61
C:\Users\stapi\AppData\Local\Temp\ccKCoria.s:12736  .debug_str:00000000000000d9 .LASF132
C:\Users\stapi\AppData\Local\Temp\ccKCoria.s:390    .text.alcs_auth_init:0000000000000000 .LFB32
C:\Users\stapi\AppData\Local\Temp\ccKCoria.s:613    .text.alcs_auth_init:000000000000011e .LFE32
C:\Users\stapi\AppData\Local\Temp\ccKCoria.s:11602  .debug_loc:0000000000000cf6 .LLST22
C:\Users\stapi\AppData\Local\Temp\ccKCoria.s:11624  .debug_loc:0000000000000d2d .LLST23
C:\Users\stapi\AppData\Local\Temp\ccKCoria.s:11639  .debug_loc:0000000000000d56 .LLST24
C:\Users\stapi\AppData\Local\Temp\ccKCoria.s:11654  .debug_loc:0000000000000d7f .LLST25
C:\Users\stapi\AppData\Local\Temp\ccKCoria.s:11672  .debug_loc:0000000000000dab .LLST26
C:\Users\stapi\AppData\Local\Temp\ccKCoria.s:497    .text.alcs_auth_init:0000000000000088 .LBB55
C:\Users\stapi\AppData\Local\Temp\ccKCoria.s:582    .text.alcs_auth_init:0000000000000104 .LBE55
C:\Users\stapi\AppData\Local\Temp\ccKCoria.s:500    .text.alcs_auth_init:0000000000000088 .LBB56
C:\Users\stapi\AppData\Local\Temp\ccKCoria.s:11681  .debug_loc:0000000000000dc3 .LLST28
C:\Users\stapi\AppData\Local\Temp\ccKCoria.s:520    .text.alcs_auth_init:0000000000000094 .LBB60
C:\Users\stapi\AppData\Local\Temp\ccKCoria.s:11690  .debug_loc:0000000000000ddb .LLST29
C:\Users\stapi\AppData\Local\Temp\ccKCoria.s:551    .text.alcs_auth_init:00000000000000b2 .LVL50
C:\Users\stapi\AppData\Local\Temp\ccKCoria.s:565    .text.alcs_auth_init:00000000000000d8 .LVL51
C:\Users\stapi\AppData\Local\Temp\ccKCoria.s:580    .text.alcs_auth_init:0000000000000104 .LVL52
C:\Users\stapi\AppData\Local\Temp\ccKCoria.s:449    .text.alcs_auth_init:0000000000000060 .LBB47
C:\Users\stapi\AppData\Local\Temp\ccKCoria.s:459    .text.alcs_auth_init:000000000000006c .LBB50
C:\Users\stapi\AppData\Local\Temp\ccKCoria.s:11699  .debug_loc:0000000000000df3 .LLST27
C:\Users\stapi\AppData\Local\Temp\ccKCoria.s:426    .text.alcs_auth_init:0000000000000030 .LVL42
C:\Users\stapi\AppData\Local\Temp\ccKCoria.s:447    .text.alcs_auth_init:0000000000000060 .LVL44
C:\Users\stapi\AppData\Local\Temp\ccKCoria.s:588    .text.alcs_auth_init:000000000000010c .LVL53
C:\Users\stapi\AppData\Local\Temp\ccKCoria.s:13102  .debug_str:0000000000000af4 .LASF133
C:\Users\stapi\AppData\Local\Temp\ccKCoria.s:237    .text.gen_random_key:0000000000000000 .LFB31
C:\Users\stapi\AppData\Local\Temp\ccKCoria.s:376    .text.gen_random_key:00000000000000a8 .LFE31
C:\Users\stapi\AppData\Local\Temp\ccKCoria.s:12904  .debug_str:00000000000005ad .LASF134
C:\Users\stapi\AppData\Local\Temp\ccKCoria.s:11708  .debug_loc:0000000000000e0b .LLST18
C:\Users\stapi\AppData\Local\Temp\ccKCoria.s:11719  .debug_loc:0000000000000e29 .LLST19
C:\Users\stapi\AppData\Local\Temp\ccKCoria.s:11736  .debug_loc:0000000000000e54 .LLST20
C:\Users\stapi\AppData\Local\Temp\ccKCoria.s:12998  .debug_str:00000000000007ce .LASF135
C:\Users\stapi\AppData\Local\Temp\ccKCoria.s:11773  .debug_loc:0000000000000e9a .LLST21
C:\Users\stapi\AppData\Local\Temp\ccKCoria.s:266    .text.gen_random_key:0000000000000018 .LVL26
C:\Users\stapi\AppData\Local\Temp\ccKCoria.s:271    .text.gen_random_key:0000000000000022 .LVL27
C:\Users\stapi\AppData\Local\Temp\ccKCoria.s:274    .text.gen_random_key:000000000000002a .LVL28
C:\Users\stapi\AppData\Local\Temp\ccKCoria.s:317    .text.gen_random_key:0000000000000054 .LVL31
C:\Users\stapi\AppData\Local\Temp\ccKCoria.s:328    .text.gen_random_key:000000000000006a .LVL33
C:\Users\stapi\AppData\Local\Temp\ccKCoria.s:348    .text.gen_random_key:0000000000000082 .LVL37
C:\Users\stapi\AppData\Local\Temp\ccKCoria.s:359    .text.gen_random_key:0000000000000094 .LVL39
C:\Users\stapi\AppData\Local\Temp\ccKCoria.s:13078  .debug_str:0000000000000993 .LASF138
C:\Users\stapi\AppData\Local\Temp\ccKCoria.s:12966  .debug_str:000000000000071b .LASF136
C:\Users\stapi\AppData\Local\Temp\ccKCoria.s:12982  .debug_str:0000000000000772 .LASF137
C:\Users\stapi\AppData\Local\Temp\ccKCoria.s:12894  .debug_str:0000000000000557 .LASF139
C:\Users\stapi\AppData\Local\Temp\ccKCoria.s:12942  .debug_str:0000000000000690 .LASF140
C:\Users\stapi\AppData\Local\Temp\ccKCoria.s:12916  .debug_str:00000000000005eb .LASF141
C:\Users\stapi\AppData\Local\Temp\ccKCoria.s:12844  .debug_str:000000000000038c .LASF142
C:\Users\stapi\AppData\Local\Temp\ccKCoria.s:955    .text.get_svr_session:0000000000000000 .LFB26
C:\Users\stapi\AppData\Local\Temp\ccKCoria.s:1064   .text.get_svr_session:000000000000009a .LFE26
C:\Users\stapi\AppData\Local\Temp\ccKCoria.s:11797  .debug_loc:0000000000000eda .LLST43
C:\Users\stapi\AppData\Local\Temp\ccKCoria.s:11819  .debug_loc:0000000000000f11 .LLST44
C:\Users\stapi\AppData\Local\Temp\ccKCoria.s:978    .text.get_svr_session:000000000000001c .LBB72
C:\Users\stapi\AppData\Local\Temp\ccKCoria.s:11828  .debug_loc:0000000000000f29 .LLST45
C:\Users\stapi\AppData\Local\Temp\ccKCoria.s:1008   .text.get_svr_session:0000000000000044 .LVL94
C:\Users\stapi\AppData\Local\Temp\ccKCoria.s:1017   .text.get_svr_session:000000000000005e .LVL95
C:\Users\stapi\AppData\Local\Temp\ccKCoria.s:1022   .text.get_svr_session:0000000000000068 .LVL96
C:\Users\stapi\AppData\Local\Temp\ccKCoria.s:1029   .text.get_svr_session:0000000000000078 .LVL97
C:\Users\stapi\AppData\Local\Temp\ccKCoria.s:1036   .text.get_svr_session:0000000000000088 .LVL98
C:\Users\stapi\AppData\Local\Temp\ccKCoria.s:12882  .debug_str:00000000000004f0 .LASF143
C:\Users\stapi\AppData\Local\Temp\ccKCoria.s:1071   .text.remove_session_safe:0000000000000000 .LFB25
C:\Users\stapi\AppData\Local\Temp\ccKCoria.s:1225   .text.remove_session_safe:00000000000000ea .LFE25
C:\Users\stapi\AppData\Local\Temp\ccKCoria.s:11839  .debug_loc:0000000000000f47 .LLST47
C:\Users\stapi\AppData\Local\Temp\ccKCoria.s:11865  .debug_loc:0000000000000f89 .LLST48
C:\Users\stapi\AppData\Local\Temp\ccKCoria.s:11891  .debug_loc:0000000000000fcb .LLST49
C:\Users\stapi\AppData\Local\Temp\ccKCoria.s:11906  .debug_loc:0000000000000ff4 .LLST50
C:\Users\stapi\AppData\Local\Temp\ccKCoria.s:11921  .debug_loc:000000000000101c .LLST51
C:\Users\stapi\AppData\Local\Temp\ccKCoria.s:11941  .debug_loc:0000000000001051 .LLST52
C:\Users\stapi\AppData\Local\Temp\ccKCoria.s:1120   .text.remove_session_safe:0000000000000038 .LVL105
C:\Users\stapi\AppData\Local\Temp\ccKCoria.s:1129   .text.remove_session_safe:0000000000000052 .LVL106
C:\Users\stapi\AppData\Local\Temp\ccKCoria.s:1134   .text.remove_session_safe:000000000000005c .LVL107
C:\Users\stapi\AppData\Local\Temp\ccKCoria.s:1141   .text.remove_session_safe:000000000000006c .LVL108
C:\Users\stapi\AppData\Local\Temp\ccKCoria.s:1149   .text.remove_session_safe:0000000000000082 .LVL109
C:\Users\stapi\AppData\Local\Temp\ccKCoria.s:1167   .text.remove_session_safe:00000000000000a6 .LVL112
C:\Users\stapi\AppData\Local\Temp\ccKCoria.s:1175   .text.remove_session_safe:00000000000000b8 .LVL113
C:\Users\stapi\AppData\Local\Temp\ccKCoria.s:1182   .text.remove_session_safe:00000000000000c6 .LVL114
C:\Users\stapi\AppData\Local\Temp\ccKCoria.s:1188   .text.remove_session_safe:00000000000000d2 .LVL115
C:\Users\stapi\AppData\Local\Temp\ccKCoria.s:13012  .debug_str:0000000000000826 .LASF144
C:\Users\stapi\AppData\Local\Temp\ccKCoria.s:12992  .debug_str:0000000000000798 .LASF145
C:\Users\stapi\AppData\Local\Temp\ccKCoria.s:826    .text.get_session_by_checksum:0000000000000000 .LFB23
C:\Users\stapi\AppData\Local\Temp\ccKCoria.s:944    .text.get_session_by_checksum:00000000000000bc .LFE23
C:\Users\stapi\AppData\Local\Temp\ccKCoria.s:11967  .debug_loc:0000000000001094 .LLST37
C:\Users\stapi\AppData\Local\Temp\ccKCoria.s:12000  .debug_loc:00000000000010e4 .LLST38
C:\Users\stapi\AppData\Local\Temp\ccKCoria.s:12033  .debug_loc:0000000000001134 .LLST39
C:\Users\stapi\AppData\Local\Temp\ccKCoria.s:12055  .debug_loc:000000000000116b .LLST40
C:\Users\stapi\AppData\Local\Temp\ccKCoria.s:12076  .debug_loc:00000000000011a3 .LLST41
C:\Users\stapi\AppData\Local\Temp\ccKCoria.s:12100  .debug_loc:00000000000011e3 .LLST42
C:\Users\stapi\AppData\Local\Temp\ccKCoria.s:858    .text.get_session_by_checksum:0000000000000028 .LVL77
C:\Users\stapi\AppData\Local\Temp\ccKCoria.s:874    .text.get_session_by_checksum:000000000000004a .LVL80
C:\Users\stapi\AppData\Local\Temp\ccKCoria.s:888    .text.get_session_by_checksum:000000000000005c .LVL83
C:\Users\stapi\AppData\Local\Temp\ccKCoria.s:896    .text.get_session_by_checksum:000000000000006e .LVL84
C:\Users\stapi\AppData\Local\Temp\ccKCoria.s:910    .text.get_session_by_checksum:0000000000000098 .LVL85
C:\Users\stapi\AppData\Local\Temp\ccKCoria.s:918    .text.get_session_by_checksum:00000000000000a6 .LVL87
C:\Users\stapi\AppData\Local\Temp\ccKCoria.s:12978  .debug_str:000000000000075d .LASF146
C:\Users\stapi\AppData\Local\Temp\ccKCoria.s:13090  .debug_str:00000000000009da .LASF147
C:\Users\stapi\AppData\Local\Temp\ccKCoria.s:12774  .debug_str:00000000000001d7 .LASF148
C:\Users\stapi\AppData\Local\Temp\ccKCoria.s:12784  .debug_str:0000000000000205 .LASF149
C:\Users\stapi\AppData\Local\Temp\ccKCoria.s:14     .text.add_request_to_list:0000000000000000 .LFB20
C:\Users\stapi\AppData\Local\Temp\ccKCoria.s:85     .text.add_request_to_list:0000000000000040 .LFE20
C:\Users\stapi\AppData\Local\Temp\ccKCoria.s:12130  .debug_loc:0000000000001231 .LLST0
C:\Users\stapi\AppData\Local\Temp\ccKCoria.s:35     .text.add_request_to_list:000000000000001c .LBB21
C:\Users\stapi\AppData\Local\Temp\ccKCoria.s:12141  .debug_loc:000000000000124f .LLST1
C:\Users\stapi\AppData\Local\Temp\ccKCoria.s:12150  .debug_loc:0000000000001267 .LLST2
C:\Users\stapi\AppData\Local\Temp\ccKCoria.s:40     .text.add_request_to_list:000000000000001e .LBB23
C:\Users\stapi\AppData\Local\Temp\ccKCoria.s:12157  .debug_loc:000000000000127a .LLST4
C:\Users\stapi\AppData\Local\Temp\ccKCoria.s:33     .text.add_request_to_list:000000000000001c .LVL2
C:\Users\stapi\AppData\Local\Temp\ccKCoria.s:77     .text.add_request_to_list:0000000000000038 .LVL5
C:\Users\stapi\AppData\Local\Temp\ccKCoria.s:12884  .debug_str:0000000000000504 .LASF151
C:\Users\stapi\AppData\Local\Temp\ccKCoria.s:12794  .debug_str:000000000000025b .LASF150
C:\Users\stapi\AppData\Local\Temp\ccKCoria.s:12832  .debug_str:000000000000034e .LASF152
C:\Users\stapi\AppData\Local\Temp\ccKCoria.s:12836  .debug_str:0000000000000360 .LASF153
C:\Users\stapi\AppData\Local\Temp\ccKCoria.s:12860  .debug_str:00000000000003e6 .LASF154
C:\Users\stapi\AppData\Local\Temp\ccKCoria.s:12800  .debug_str:0000000000000275 .LASF155
C:\Users\stapi\AppData\Local\Temp\ccKCoria.s:92     .text.remove_request:0000000000000000 .LFB21
C:\Users\stapi\AppData\Local\Temp\ccKCoria.s:130    .text.remove_request:0000000000000014 .LFE21
C:\Users\stapi\AppData\Local\Temp\ccKCoria.s:12164  .debug_loc:000000000000128d .LLST6
C:\Users\stapi\AppData\Local\Temp\ccKCoria.s:100    .text.remove_request:0000000000000002 .LBB33
C:\Users\stapi\AppData\Local\Temp\ccKCoria.s:128    .text.remove_request:0000000000000014 .LBE33
C:\Users\stapi\AppData\Local\Temp\ccKCoria.s:12182  .debug_loc:00000000000012b9 .LLST7
C:\Users\stapi\AppData\Local\Temp\ccKCoria.s:103    .text.remove_request:0000000000000002 .LBB35
C:\Users\stapi\AppData\Local\Temp\ccKCoria.s:121    .text.remove_request:000000000000000a .LBE35
C:\Users\stapi\AppData\Local\Temp\ccKCoria.s:12196  .debug_loc:00000000000012da .LLST8
C:\Users\stapi\AppData\Local\Temp\ccKCoria.s:12205  .debug_loc:00000000000012ef .LLST9
C:\Users\stapi\AppData\Local\Temp\ccKCoria.s:12212  .debug_loc:0000000000001302 .LLST10
C:\Users\stapi\AppData\Local\Temp\ccKCoria.s:124    .text.remove_request:0000000000000012 .LVL11
C:\Users\stapi\AppData\Local\Temp\ccKCoria.s:147    .text.remove_session:0000000000000000 .LFB22
C:\Users\stapi\AppData\Local\Temp\ccKCoria.s:230    .text.remove_session:000000000000006a .LFE22
C:\Users\stapi\AppData\Local\Temp\ccKCoria.s:12219  .debug_loc:0000000000001315 .LLST11
C:\Users\stapi\AppData\Local\Temp\ccKCoria.s:12230  .debug_loc:0000000000001333 .LLST12
C:\Users\stapi\AppData\Local\Temp\ccKCoria.s:184    .text.remove_session:000000000000003e .LBB41
C:\Users\stapi\AppData\Local\Temp\ccKCoria.s:222    .text.remove_session:0000000000000062 .LBE41
C:\Users\stapi\AppData\Local\Temp\ccKCoria.s:12241  .debug_loc:0000000000001351 .LLST13
C:\Users\stapi\AppData\Local\Temp\ccKCoria.s:12248  .debug_loc:0000000000001364 .LLST14
C:\Users\stapi\AppData\Local\Temp\ccKCoria.s:192    .text.remove_session:000000000000004c .LBB43
C:\Users\stapi\AppData\Local\Temp\ccKCoria.s:12255  .debug_loc:0000000000001377 .LLST15
C:\Users\stapi\AppData\Local\Temp\ccKCoria.s:12264  .debug_loc:000000000000138d .LLST16
C:\Users\stapi\AppData\Local\Temp\ccKCoria.s:12271  .debug_loc:00000000000013a0 .LLST17
C:\Users\stapi\AppData\Local\Temp\ccKCoria.s:190    .text.remove_session:000000000000004c .LVL18
C:\Users\stapi\AppData\Local\Temp\ccKCoria.s:219    .text.remove_session:0000000000000062 .LVL22
C:\Users\stapi\AppData\Local\Temp\ccKCoria.s:168    .text.remove_session:000000000000001c .LVL14
C:\Users\stapi\AppData\Local\Temp\ccKCoria.s:173    .text.remove_session:000000000000002c .LVL15
C:\Users\stapi\AppData\Local\Temp\ccKCoria.s:178    .text.remove_session:000000000000003c .LVL16
C:\Users\stapi\AppData\Local\Temp\ccKCoria.s:747    .text.is_networkadd_same:0000000000000000 .LFB35
C:\Users\stapi\AppData\Local\Temp\ccKCoria.s:815    .text.is_networkadd_same:0000000000000066 .LFE35
C:\Users\stapi\AppData\Local\Temp\ccKCoria.s:12278  .debug_loc:00000000000013b3 .LLST33
C:\Users\stapi\AppData\Local\Temp\ccKCoria.s:12300  .debug_loc:00000000000013ea .LLST34
C:\Users\stapi\AppData\Local\Temp\ccKCoria.s:768    .text.is_networkadd_same:0000000000000012 .LBB68
C:\Users\stapi\AppData\Local\Temp\ccKCoria.s:800    .text.is_networkadd_same:000000000000005a .LBE68
C:\Users\stapi\AppData\Local\Temp\ccKCoria.s:12315  .debug_loc:0000000000001413 .LLST35
C:\Users\stapi\AppData\Local\Temp\ccKCoria.s:12326  .debug_loc:0000000000001431 .LLST36
C:\Users\stapi\AppData\Local\Temp\ccKCoria.s:783    .text.is_networkadd_same:000000000000003c .LVL69
C:\Users\stapi\AppData\Local\Temp\ccKCoria.s:794    .text.is_networkadd_same:0000000000000056 .LVL70
C:\Users\stapi\AppData\Local\Temp\ccKCoria.s:2409   .text.add_message_sessionid:0000000000000000 .LFB46
C:\Users\stapi\AppData\Local\Temp\ccKCoria.s:2484   .text.add_message_sessionid:0000000000000054 .LFE46
C:\Users\stapi\AppData\Local\Temp\ccKCoria.s:12333  .debug_loc:0000000000001444 .LLST96
C:\Users\stapi\AppData\Local\Temp\ccKCoria.s:12362  .debug_loc:0000000000001489 .LLST97
C:\Users\stapi\AppData\Local\Temp\ccKCoria.s:12391  .debug_loc:00000000000014ce .LLST98
C:\Users\stapi\AppData\Local\Temp\ccKCoria.s:12405  .debug_loc:00000000000014ef .LLST99
C:\Users\stapi\AppData\Local\Temp\ccKCoria.s:2430   .text.add_message_sessionid:0000000000000014 .LBB91
C:\Users\stapi\AppData\Local\Temp\ccKCoria.s:2463   .text.add_message_sessionid:000000000000003a .LBE91
C:\Users\stapi\AppData\Local\Temp\ccKCoria.s:12430  .debug_loc:0000000000001529 .LLST100
C:\Users\stapi\AppData\Local\Temp\ccKCoria.s:12440  .debug_loc:000000000000153f .LLST101
C:\Users\stapi\AppData\Local\Temp\ccKCoria.s:12454  .debug_loc:0000000000001560 .LLST102
C:\Users\stapi\AppData\Local\Temp\ccKCoria.s:2432   .text.add_message_sessionid:0000000000000014 .LBB93
C:\Users\stapi\AppData\Local\Temp\ccKCoria.s:2461   .text.add_message_sessionid:000000000000003a .LBE93
C:\Users\stapi\AppData\Local\Temp\ccKCoria.s:2447   .text.add_message_sessionid:0000000000000024 .LVL254
C:\Users\stapi\AppData\Local\Temp\ccKCoria.s:2459   .text.add_message_sessionid:000000000000003a .LVL255
C:\Users\stapi\AppData\Local\Temp\ccKCoria.s:2480   .text.add_message_sessionid:0000000000000052 .LVL258
C:\Users\stapi\AppData\Local\Temp\ccKCoria.s:2958   .text.add_message_seq:0000000000000000 .LFB47
C:\Users\stapi\AppData\Local\Temp\ccKCoria.s:3048   .text.add_message_seq:000000000000007e .LFE47
C:\Users\stapi\AppData\Local\Temp\ccKCoria.s:12465  .debug_loc:000000000000157e .LLST124
C:\Users\stapi\AppData\Local\Temp\ccKCoria.s:12476  .debug_loc:000000000000159c .LLST125
C:\Users\stapi\AppData\Local\Temp\ccKCoria.s:2996   .text.add_message_seq:000000000000003e .LBB127
C:\Users\stapi\AppData\Local\Temp\ccKCoria.s:3038   .text.add_message_seq:0000000000000074 .LBE127
C:\Users\stapi\AppData\Local\Temp\ccKCoria.s:12487  .debug_loc:00000000000015ba .LLST126
C:\Users\stapi\AppData\Local\Temp\ccKCoria.s:12494  .debug_loc:00000000000015cd .LLST127
C:\Users\stapi\AppData\Local\Temp\ccKCoria.s:2998   .text.add_message_seq:000000000000003e .LBB129
C:\Users\stapi\AppData\Local\Temp\ccKCoria.s:3036   .text.add_message_seq:0000000000000074 .LBE129
C:\Users\stapi\AppData\Local\Temp\ccKCoria.s:3022   .text.add_message_seq:000000000000005e .LVL316
C:\Users\stapi\AppData\Local\Temp\ccKCoria.s:3034   .text.add_message_seq:0000000000000074 .LVL317
C:\Users\stapi\AppData\Local\Temp\ccKCoria.s:2988   .text.add_message_seq:0000000000000036 .LVL314
C:\Users\stapi\AppData\Local\Temp\ccKCoria.s:13000  .debug_str:00000000000007d3 .LASF156
C:\Users\stapi\AppData\Local\Temp\ccKCoria.s:13052  .debug_str:000000000000090b .LASF181
C:\Users\stapi\AppData\Local\Temp\ccKCoria.s:12892  .debug_str:0000000000000546 .LASF182
C:\Users\stapi\AppData\Local\Temp\ccKCoria.s:12720  .debug_str:0000000000000000 .LASF157
C:\Users\stapi\AppData\Local\Temp\ccKCoria.s:12886  .debug_str:0000000000000518 .LASF158
C:\Users\stapi\AppData\Local\Temp\ccKCoria.s:12750  .debug_str:0000000000000126 .LASF159
C:\Users\stapi\AppData\Local\Temp\ccKCoria.s:13114  .debug_str:0000000000000b4c .LASF160
C:\Users\stapi\AppData\Local\Temp\ccKCoria.s:13042  .debug_str:00000000000008e2 .LASF161
C:\Users\stapi\AppData\Local\Temp\ccKCoria.s:13064  .debug_str:0000000000000949 .LASF162
C:\Users\stapi\AppData\Local\Temp\ccKCoria.s:13004  .debug_str:00000000000007eb .LASF163
C:\Users\stapi\AppData\Local\Temp\ccKCoria.s:12752  .debug_str:0000000000000131 .LASF164
C:\Users\stapi\AppData\Local\Temp\ccKCoria.s:12908  .debug_str:00000000000005bc .LASF165
C:\Users\stapi\AppData\Local\Temp\ccKCoria.s:13092  .debug_str:00000000000009e9 .LASF166
C:\Users\stapi\AppData\Local\Temp\ccKCoria.s:13108  .debug_str:0000000000000b24 .LASF167
C:\Users\stapi\AppData\Local\Temp\ccKCoria.s:12936  .debug_str:0000000000000672 .LASF168
C:\Users\stapi\AppData\Local\Temp\ccKCoria.s:12898  .debug_str:000000000000057c .LASF169
C:\Users\stapi\AppData\Local\Temp\ccKCoria.s:12876  .debug_str:00000000000004cb .LASF170
C:\Users\stapi\AppData\Local\Temp\ccKCoria.s:12768  .debug_str:00000000000001a0 .LASF171
C:\Users\stapi\AppData\Local\Temp\ccKCoria.s:12950  .debug_str:00000000000006ba .LASF172
C:\Users\stapi\AppData\Local\Temp\ccKCoria.s:12964  .debug_str:0000000000000704 .LASF173
C:\Users\stapi\AppData\Local\Temp\ccKCoria.s:13072  .debug_str:0000000000000977 .LASF174
C:\Users\stapi\AppData\Local\Temp\ccKCoria.s:12924  .debug_str:0000000000000622 .LASF175
C:\Users\stapi\AppData\Local\Temp\ccKCoria.s:13106  .debug_str:0000000000000b0e .LASF176
C:\Users\stapi\AppData\Local\Temp\ccKCoria.s:12740  .debug_str:00000000000000fb .LASF177
C:\Users\stapi\AppData\Local\Temp\ccKCoria.s:13068  .debug_str:0000000000000969 .LASF178
C:\Users\stapi\AppData\Local\Temp\ccKCoria.s:12862  .debug_str:00000000000003ec .LASF179
C:\Users\stapi\AppData\Local\Temp\ccKCoria.s:12856  .debug_str:00000000000003d4 .LASF180
C:\Users\stapi\AppData\Local\Temp\ccKCoria.s:12760  .debug_str:000000000000016b .LASF183
C:\Users\stapi\AppData\Local\Temp\ccKCoria.s:12770  .debug_str:00000000000001b7 .LASF184
C:\Users\stapi\AppData\Local\Temp\ccKCoria.s:12940  .debug_str:000000000000068b .LASF185
C:\Users\stapi\AppData\Local\Temp\ccKCoria.s:12960  .debug_str:00000000000006f9 .LASF186
C:\Users\stapi\AppData\Local\Temp\ccKCoria.s:12848  .debug_str:00000000000003a9 .LASF187
C:\Users\stapi\AppData\Local\Temp\ccKCoria.s:12838  .debug_str:000000000000036f .LASF188
C:\Users\stapi\AppData\Local\Temp\ccKCoria.s:12984  .debug_str:0000000000000777 .LASF189
C:\Users\stapi\AppData\Local\Temp\ccKCoria.s:12826  .debug_str:0000000000000324 .LASF190
C:\Users\stapi\AppData\Local\Temp\ccKCoria.s:12726  .debug_str:0000000000000027 .LASF191
C:\Users\stapi\AppData\Local\Temp\ccKCoria.s:12914  .debug_str:00000000000005e1 .LASF192
C:\Users\stapi\AppData\Local\Temp\ccKCoria.s:12958  .debug_str:00000000000006e7 .LASF193
C:\Users\stapi\AppData\Local\Temp\ccKCoria.s:2294   .text.get_message_sessionid:0000000000000000 .LVL239
C:\Users\stapi\AppData\Local\Temp\ccKCoria.s:2392   .text.get_message_sessionid:000000000000006e .LVL246
C:\Users\stapi\AppData\Local\Temp\ccKCoria.s:2308   .text.get_message_sessionid:000000000000000e .LVL240
C:\Users\stapi\AppData\Local\Temp\ccKCoria.s:2320   .text.get_message_sessionid:000000000000001a .LVL241
C:\Users\stapi\AppData\Local\Temp\ccKCoria.s:2333   .text.get_message_sessionid:000000000000002e .LVL243
C:\Users\stapi\AppData\Local\Temp\ccKCoria.s:2344   .text.get_message_sessionid:0000000000000038 .LVL244
C:\Users\stapi\AppData\Local\Temp\ccKCoria.s:2396   .text.get_message_sessionid:0000000000000070 .LVL247
C:\Users\stapi\AppData\Local\Temp\ccKCoria.s:1963   .text.seqwindow_accept:0000000000000000 .LVL208
C:\Users\stapi\AppData\Local\Temp\ccKCoria.s:1990   .text.seqwindow_accept:0000000000000018 .LVL210
C:\Users\stapi\AppData\Local\Temp\ccKCoria.s:1975   .text.seqwindow_accept:0000000000000008 .LVL209
C:\Users\stapi\AppData\Local\Temp\ccKCoria.s:2013   .text.seqwindow_accept:000000000000004a .LVL213
C:\Users\stapi\AppData\Local\Temp\ccKCoria.s:2042   .text.seqwindow_accept:000000000000006c .LVL216
C:\Users\stapi\AppData\Local\Temp\ccKCoria.s:2170   .text.seqwindow_accept:0000000000000152 .LVL228
C:\Users\stapi\AppData\Local\Temp\ccKCoria.s:2230   .text.seqwindow_accept:000000000000019a .LVL234
C:\Users\stapi\AppData\Local\Temp\ccKCoria.s:2146   .text.seqwindow_accept:0000000000000128 .LVL226
C:\Users\stapi\AppData\Local\Temp\ccKCoria.s:2183   .text.seqwindow_accept:0000000000000160 .LVL229
C:\Users\stapi\AppData\Local\Temp\ccKCoria.s:2187   .text.seqwindow_accept:0000000000000162 .LVL230
C:\Users\stapi\AppData\Local\Temp\ccKCoria.s:2206   .text.seqwindow_accept:0000000000000180 .LVL231
C:\Users\stapi\AppData\Local\Temp\ccKCoria.s:2211   .text.seqwindow_accept:0000000000000188 .LVL232
C:\Users\stapi\AppData\Local\Temp\ccKCoria.s:2246   .text.seqwindow_accept:00000000000001ac .LVL235
C:\Users\stapi\AppData\Local\Temp\ccKCoria.s:2268   .text.seqwindow_accept:00000000000001d6 .LVL238
C:\Users\stapi\AppData\Local\Temp\ccKCoria.s:1920   .text.on_auth_timer:0000000000000000 .LVL206
C:\Users\stapi\AppData\Local\Temp\ccKCoria.s:1831   .text.req_payload_parser:0000000000000000 .LVL198
C:\Users\stapi\AppData\Local\Temp\ccKCoria.s:1889   .text.req_payload_parser:0000000000000054 .LVL203
C:\Users\stapi\AppData\Local\Temp\ccKCoria.s:1901   .text.req_payload_parser:000000000000005e .LVL204
C:\Users\stapi\AppData\Local\Temp\ccKCoria.s:1907   .text.req_payload_parser:0000000000000062 .LVL205
C:\Users\stapi\AppData\Local\Temp\ccKCoria.s:1862   .text.req_payload_parser:0000000000000022 .LVL199
C:\Users\stapi\AppData\Local\Temp\ccKCoria.s:1864   .text.req_payload_parser:0000000000000024 .LVL200
C:\Users\stapi\AppData\Local\Temp\ccKCoria.s:2516   .text.alcs_sendrsp_secure:0000000000000000 .LVL259
C:\Users\stapi\AppData\Local\Temp\ccKCoria.s:2558   .text.alcs_sendrsp_secure:0000000000000030 .LVL264
C:\Users\stapi\AppData\Local\Temp\ccKCoria.s:2556   .text.alcs_sendrsp_secure:000000000000002c .LVL263
C:\Users\stapi\AppData\Local\Temp\ccKCoria.s:2554   .text.alcs_sendrsp_secure:0000000000000028 .LVL262
C:\Users\stapi\AppData\Local\Temp\ccKCoria.s:2643   .text.alcs_sendrsp_secure:00000000000000b2 .LVL274
C:\Users\stapi\AppData\Local\Temp\ccKCoria.s:2666   .text.alcs_sendrsp_secure:00000000000000be .LVL275
C:\Users\stapi\AppData\Local\Temp\ccKCoria.s:2778   .text.alcs_sendrsp_secure:00000000000001a6 .LVL287
C:\Users\stapi\AppData\Local\Temp\ccKCoria.s:2786   .text.alcs_sendrsp_secure:00000000000001b2 .LVL289
C:\Users\stapi\AppData\Local\Temp\ccKCoria.s:2933   .text.alcs_sendrsp_secure:0000000000000296 .LVL309
C:\Users\stapi\AppData\Local\Temp\ccKCoria.s:2935   .text.alcs_sendrsp_secure:0000000000000298 .LVL310
C:\Users\stapi\AppData\Local\Temp\ccKCoria.s:2552   .text.alcs_sendrsp_secure:0000000000000024 .LVL261
C:\Users\stapi\AppData\Local\Temp\ccKCoria.s:2540   .text.alcs_sendrsp_secure:0000000000000012 .LVL260
C:\Users\stapi\AppData\Local\Temp\ccKCoria.s:2632   .text.alcs_sendrsp_secure:000000000000009e .LVL272
C:\Users\stapi\AppData\Local\Temp\ccKCoria.s:2768   .text.alcs_sendrsp_secure:0000000000000196 .LVL285
C:\Users\stapi\AppData\Local\Temp\ccKCoria.s:2834   .text.alcs_sendrsp_secure:00000000000001e4 .LVL296
C:\Users\stapi\AppData\Local\Temp\ccKCoria.s:2926   .text.alcs_sendrsp_secure:0000000000000292 .LVL308
C:\Users\stapi\AppData\Local\Temp\ccKCoria.s:2797   .text.alcs_sendrsp_secure:00000000000001be .LVL292
C:\Users\stapi\AppData\Local\Temp\ccKCoria.s:2913   .text.alcs_sendrsp_secure:0000000000000284 .LVL304
C:\Users\stapi\AppData\Local\Temp\ccKCoria.s:2915   .text.alcs_sendrsp_secure:0000000000000286 .LVL305
C:\Users\stapi\AppData\Local\Temp\ccKCoria.s:2856   .text.alcs_sendrsp_secure:000000000000020c .LVL299
C:\Users\stapi\AppData\Local\Temp\ccKCoria.s:2816   .text.alcs_sendrsp_secure:00000000000001ca .LVL293
C:\Users\stapi\AppData\Local\Temp\ccKCoria.s:2924   .text.alcs_sendrsp_secure:0000000000000290 .LVL307
C:\Users\stapi\AppData\Local\Temp\ccKCoria.s:2837   .text.alcs_sendrsp_secure:00000000000001ea .LVL297
C:\Users\stapi\AppData\Local\Temp\ccKCoria.s:2921   .text.alcs_sendrsp_secure:000000000000028a .LVL306
C:\Users\stapi\AppData\Local\Temp\ccKCoria.s:2829   .text.alcs_sendrsp_secure:00000000000001da .LVL295
C:\Users\stapi\AppData\Local\Temp\ccKCoria.s:2589   .text.alcs_sendrsp_secure:000000000000005a .LVL266
C:\Users\stapi\AppData\Local\Temp\ccKCoria.s:2598   .text.alcs_sendrsp_secure:000000000000005c .LVL267
C:\Users\stapi\AppData\Local\Temp\ccKCoria.s:2609   .text.alcs_sendrsp_secure:0000000000000070 .LVL269
C:\Users\stapi\AppData\Local\Temp\ccKCoria.s:2795   .text.alcs_sendrsp_secure:00000000000001bc .LVL291
C:\Users\stapi\AppData\Local\Temp\ccKCoria.s:2612   .text.alcs_sendrsp_secure:0000000000000076 .LVL270
C:\Users\stapi\AppData\Local\Temp\ccKCoria.s:2792   .text.alcs_sendrsp_secure:00000000000001b6 .LVL290
C:\Users\stapi\AppData\Local\Temp\ccKCoria.s:3068   .text.internal_secure_send:0000000000000000 .LVL318
C:\Users\stapi\AppData\Local\Temp\ccKCoria.s:3099   .text.internal_secure_send:0000000000000030 .LVL322
C:\Users\stapi\AppData\Local\Temp\ccKCoria.s:3097   .text.internal_secure_send:000000000000002c .LVL321
C:\Users\stapi\AppData\Local\Temp\ccKCoria.s:3095   .text.internal_secure_send:0000000000000028 .LVL320
C:\Users\stapi\AppData\Local\Temp\ccKCoria.s:3093   .text.internal_secure_send:0000000000000024 .LVL319
C:\Users\stapi\AppData\Local\Temp\ccKCoria.s:1417   .text.do_secure_send:0000000000000000 .LVL145
C:\Users\stapi\AppData\Local\Temp\ccKCoria.s:1439   .text.do_secure_send:0000000000000018 .LVL148
C:\Users\stapi\AppData\Local\Temp\ccKCoria.s:1499   .text.do_secure_send:000000000000007a .LVL156
C:\Users\stapi\AppData\Local\Temp\ccKCoria.s:1437   .text.do_secure_send:0000000000000014 .LVL147
C:\Users\stapi\AppData\Local\Temp\ccKCoria.s:1448   .text.do_secure_send:0000000000000024 .LVL149
C:\Users\stapi\AppData\Local\Temp\ccKCoria.s:1450   .text.do_secure_send:0000000000000026 .LVL150
C:\Users\stapi\AppData\Local\Temp\ccKCoria.s:1429   .text.do_secure_send:0000000000000008 .LVL146
C:\Users\stapi\AppData\Local\Temp\ccKCoria.s:1506   .text.do_secure_send:0000000000000080 .LVL157
C:\Users\stapi\AppData\Local\Temp\ccKCoria.s:1806   .text.alcs_is_auth:0000000000000000 .LVL196
C:\Users\stapi\AppData\Local\Temp\ccKCoria.s:1811   .text.alcs_is_auth:0000000000000002 .LVL197
C:\Users\stapi\AppData\Local\Temp\ccKCoria.s:1555   .text.alcs_decrypt:0000000000000000 .LVL159
C:\Users\stapi\AppData\Local\Temp\ccKCoria.s:1591   .text.alcs_decrypt:0000000000000032 .LVL163
C:\Users\stapi\AppData\Local\Temp\ccKCoria.s:1589   .text.alcs_decrypt:000000000000002e .LVL162
C:\Users\stapi\AppData\Local\Temp\ccKCoria.s:1646   .text.alcs_decrypt:000000000000008e .LVL173
C:\Users\stapi\AppData\Local\Temp\ccKCoria.s:1666   .text.alcs_decrypt:000000000000009a .LVL174
C:\Users\stapi\AppData\Local\Temp\ccKCoria.s:1773   .text.alcs_decrypt:0000000000000142 .LVL193
C:\Users\stapi\AppData\Local\Temp\ccKCoria.s:1587   .text.alcs_decrypt:000000000000002a .LVL161
C:\Users\stapi\AppData\Local\Temp\ccKCoria.s:1620   .text.alcs_decrypt:000000000000005c .LVL168
C:\Users\stapi\AppData\Local\Temp\ccKCoria.s:1713   .text.alcs_decrypt:00000000000000da .LVL183
C:\Users\stapi\AppData\Local\Temp\ccKCoria.s:1743   .text.alcs_decrypt:0000000000000114 .LVL188
C:\Users\stapi\AppData\Local\Temp\ccKCoria.s:1764   .text.alcs_decrypt:0000000000000136 .LVL192
C:\Users\stapi\AppData\Local\Temp\ccKCoria.s:1585   .text.alcs_decrypt:0000000000000026 .LVL160
C:\Users\stapi\AppData\Local\Temp\ccKCoria.s:1616   .text.alcs_decrypt:000000000000005a .LVL167
C:\Users\stapi\AppData\Local\Temp\ccKCoria.s:1625   .text.alcs_decrypt:0000000000000060 .LVL169
C:\Users\stapi\AppData\Local\Temp\ccKCoria.s:1687   .text.alcs_decrypt:00000000000000ba .LVL179
C:\Users\stapi\AppData\Local\Temp\ccKCoria.s:1755   .text.alcs_decrypt:000000000000012e .LVL190
C:\Users\stapi\AppData\Local\Temp\ccKCoria.s:1678   .text.alcs_decrypt:00000000000000ac .LVL176
C:\Users\stapi\AppData\Local\Temp\ccKCoria.s:1681   .text.alcs_decrypt:00000000000000ae .LVL177
C:\Users\stapi\AppData\Local\Temp\ccKCoria.s:1725   .text.alcs_decrypt:00000000000000ee .LVL185
C:\Users\stapi\AppData\Local\Temp\ccKCoria.s:1600   .text.alcs_decrypt:000000000000003e .LVL165
C:\Users\stapi\AppData\Local\Temp\ccKCoria.s:1691   .text.alcs_decrypt:00000000000000bc .LVL180
C:\Users\stapi\AppData\Local\Temp\ccKCoria.s:1694   .text.alcs_decrypt:00000000000000be .LVL181
C:\Users\stapi\AppData\Local\Temp\ccKCoria.s:1762   .text.alcs_decrypt:0000000000000134 .LVL191
C:\Users\stapi\AppData\Local\Temp\ccKCoria.s:1782   .text.alcs_decrypt:0000000000000150 .LVL194
C:\Users\stapi\AppData\Local\Temp\ccKCoria.s:1242   .text.alcs_encrypt:0000000000000000 .LVL120
C:\Users\stapi\AppData\Local\Temp\ccKCoria.s:1281   .text.alcs_encrypt:0000000000000022 .LVL125
C:\Users\stapi\AppData\Local\Temp\ccKCoria.s:1328   .text.alcs_encrypt:000000000000007c .LVL133
C:\Users\stapi\AppData\Local\Temp\ccKCoria.s:1339   .text.alcs_encrypt:0000000000000088 .LVL135
C:\Users\stapi\AppData\Local\Temp\ccKCoria.s:1316   .text.alcs_encrypt:0000000000000066 .LVL129
C:\Users\stapi\AppData\Local\Temp\ccKCoria.s:1336   .text.alcs_encrypt:0000000000000082 .LVL134
C:\Users\stapi\AppData\Local\Temp\ccKCoria.s:1365   .text.alcs_encrypt:00000000000000b4 .LVL142
C:\Users\stapi\AppData\Local\Temp\ccKCoria.s:1264   .text.alcs_encrypt:0000000000000010 .LVL123
C:\Users\stapi\AppData\Local\Temp\ccKCoria.s:1385   .text.alcs_encrypt:00000000000000e4 .LVL144
C:\Users\stapi\AppData\Local\Temp\ccKCoria.s:1276   .text.alcs_encrypt:000000000000001e .LVL124
C:\Users\stapi\AppData\Local\Temp\ccKCoria.s:1322   .text.alcs_encrypt:0000000000000070 .LVL131
C:\Users\stapi\AppData\Local\Temp\ccKCoria.s:1354   .text.alcs_encrypt:00000000000000a4 .LVL139
C:\Users\stapi\AppData\Local\Temp\ccKCoria.s:1357   .text.alcs_encrypt:00000000000000a6 .LVL140
C:\Users\stapi\AppData\Local\Temp\ccKCoria.s:1348   .text.alcs_encrypt:000000000000009a .LVL137
C:\Users\stapi\AppData\Local\Temp\ccKCoria.s:623    .text.alcs_auth_subdev_init:0000000000000000 .LVL56
C:\Users\stapi\AppData\Local\Temp\ccKCoria.s:650    .text.alcs_auth_subdev_init:0000000000000022 .LVL59
C:\Users\stapi\AppData\Local\Temp\ccKCoria.s:648    .text.alcs_auth_subdev_init:0000000000000020 .LVL58
C:\Users\stapi\AppData\Local\Temp\ccKCoria.s:640    .text.alcs_auth_subdev_init:0000000000000012 .LVL57
C:\Users\stapi\AppData\Local\Temp\ccKCoria.s:393    .text.alcs_auth_init:0000000000000000 .LVL41
C:\Users\stapi\AppData\Local\Temp\ccKCoria.s:606    .text.alcs_auth_init:000000000000011a .LVL54
C:\Users\stapi\AppData\Local\Temp\ccKCoria.s:610    .text.alcs_auth_init:000000000000011c .LVL55
C:\Users\stapi\AppData\Local\Temp\ccKCoria.s:443    .text.alcs_auth_init:0000000000000054 .LVL43
C:\Users\stapi\AppData\Local\Temp\ccKCoria.s:499    .text.alcs_auth_init:0000000000000088 .LVL47
C:\Users\stapi\AppData\Local\Temp\ccKCoria.s:516    .text.alcs_auth_init:0000000000000094 .LVL48
C:\Users\stapi\AppData\Local\Temp\ccKCoria.s:545    .text.alcs_auth_init:00000000000000aa .LVL49
C:\Users\stapi\AppData\Local\Temp\ccKCoria.s:474    .text.alcs_auth_init:000000000000007c .LVL45
C:\Users\stapi\AppData\Local\Temp\ccKCoria.s:490    .text.alcs_auth_init:0000000000000080 .LVL46
C:\Users\stapi\AppData\Local\Temp\ccKCoria.s:240    .text.gen_random_key:0000000000000000 .LVL23
C:\Users\stapi\AppData\Local\Temp\ccKCoria.s:261    .text.gen_random_key:000000000000000e .LVL25
C:\Users\stapi\AppData\Local\Temp\ccKCoria.s:279    .text.gen_random_key:000000000000002e .LVL29
C:\Users\stapi\AppData\Local\Temp\ccKCoria.s:254    .text.gen_random_key:0000000000000008 .LVL24
C:\Users\stapi\AppData\Local\Temp\ccKCoria.s:292    .text.gen_random_key:000000000000003c .LVL30
C:\Users\stapi\AppData\Local\Temp\ccKCoria.s:339    .text.gen_random_key:0000000000000076 .LVL34
C:\Users\stapi\AppData\Local\Temp\ccKCoria.s:341    .text.gen_random_key:0000000000000078 .LVL35
C:\Users\stapi\AppData\Local\Temp\ccKCoria.s:320    .text.gen_random_key:0000000000000058 .LVL32
C:\Users\stapi\AppData\Local\Temp\ccKCoria.s:343    .text.gen_random_key:000000000000007a .LVL36
C:\Users\stapi\AppData\Local\Temp\ccKCoria.s:354    .text.gen_random_key:000000000000008c .LVL38
C:\Users\stapi\AppData\Local\Temp\ccKCoria.s:368    .text.gen_random_key:00000000000000a2 .LVL40
C:\Users\stapi\AppData\Local\Temp\ccKCoria.s:958    .text.get_svr_session:0000000000000000 .LVL91
C:\Users\stapi\AppData\Local\Temp\ccKCoria.s:1000   .text.get_svr_session:0000000000000034 .LVL93
C:\Users\stapi\AppData\Local\Temp\ccKCoria.s:1038   .text.get_svr_session:000000000000008a .LVL99
C:\Users\stapi\AppData\Local\Temp\ccKCoria.s:1052   .text.get_svr_session:0000000000000096 .LVL100
C:\Users\stapi\AppData\Local\Temp\ccKCoria.s:976    .text.get_svr_session:000000000000001c .LVL92
C:\Users\stapi\AppData\Local\Temp\ccKCoria.s:1074   .text.remove_session_safe:0000000000000000 .LVL101
C:\Users\stapi\AppData\Local\Temp\ccKCoria.s:1112   .text.remove_session_safe:0000000000000028 .LVL104
C:\Users\stapi\AppData\Local\Temp\ccKCoria.s:1203   .text.remove_session_safe:00000000000000dc .LVL116
C:\Users\stapi\AppData\Local\Temp\ccKCoria.s:1213   .text.remove_session_safe:00000000000000e8 .LVL119
C:\Users\stapi\AppData\Local\Temp\ccKCoria.s:1109   .text.remove_session_safe:0000000000000024 .LVL103
C:\Users\stapi\AppData\Local\Temp\ccKCoria.s:1107   .text.remove_session_safe:0000000000000022 .LVL102
C:\Users\stapi\AppData\Local\Temp\ccKCoria.s:1155   .text.remove_session_safe:000000000000008c .LVL110
C:\Users\stapi\AppData\Local\Temp\ccKCoria.s:1211   .text.remove_session_safe:00000000000000e6 .LVL118
C:\Users\stapi\AppData\Local\Temp\ccKCoria.s:1157   .text.remove_session_safe:0000000000000090 .LVL111
C:\Users\stapi\AppData\Local\Temp\ccKCoria.s:1208   .text.remove_session_safe:00000000000000e0 .LVL117
C:\Users\stapi\AppData\Local\Temp\ccKCoria.s:829    .text.get_session_by_checksum:0000000000000000 .LVL74
C:\Users\stapi\AppData\Local\Temp\ccKCoria.s:851    .text.get_session_by_checksum:000000000000001a .LVL75
C:\Users\stapi\AppData\Local\Temp\ccKCoria.s:879    .text.get_session_by_checksum:000000000000004c .LVL81
C:\Users\stapi\AppData\Local\Temp\ccKCoria.s:881    .text.get_session_by_checksum:000000000000004e .LVL82
C:\Users\stapi\AppData\Local\Temp\ccKCoria.s:915    .text.get_session_by_checksum:000000000000009e .LVL86
C:\Users\stapi\AppData\Local\Temp\ccKCoria.s:933    .text.get_session_by_checksum:00000000000000b0 .LVL88
C:\Users\stapi\AppData\Local\Temp\ccKCoria.s:854    .text.get_session_by_checksum:000000000000001c .LVL76
C:\Users\stapi\AppData\Local\Temp\ccKCoria.s:864    .text.get_session_by_checksum:0000000000000032 .LVL78
C:\Users\stapi\AppData\Local\Temp\ccKCoria.s:941    .text.get_session_by_checksum:00000000000000ba .LVL90
C:\Users\stapi\AppData\Local\Temp\ccKCoria.s:866    .text.get_session_by_checksum:0000000000000036 .LVL79
C:\Users\stapi\AppData\Local\Temp\ccKCoria.s:938    .text.get_session_by_checksum:00000000000000b4 .LVL89
C:\Users\stapi\AppData\Local\Temp\ccKCoria.s:18     .text.add_request_to_list:0000000000000000 .LVL0
C:\Users\stapi\AppData\Local\Temp\ccKCoria.s:31     .text.add_request_to_list:0000000000000014 .LVL1
C:\Users\stapi\AppData\Local\Temp\ccKCoria.s:52     .text.add_request_to_list:0000000000000028 .LVL3
C:\Users\stapi\AppData\Local\Temp\ccKCoria.s:70     .text.add_request_to_list:0000000000000030 .LVL4
C:\Users\stapi\AppData\Local\Temp\ccKCoria.s:95     .text.remove_request:0000000000000000 .LVL6
C:\Users\stapi\AppData\Local\Temp\ccKCoria.s:99     .text.remove_request:0000000000000002 .LVL7
C:\Users\stapi\AppData\Local\Temp\ccKCoria.s:119    .text.remove_request:000000000000000a .LVL10
C:\Users\stapi\AppData\Local\Temp\ccKCoria.s:108    .text.remove_request:0000000000000004 .LVL8
C:\Users\stapi\AppData\Local\Temp\ccKCoria.s:112    .text.remove_request:0000000000000006 .LVL9
C:\Users\stapi\AppData\Local\Temp\ccKCoria.s:150    .text.remove_session:0000000000000000 .LVL12
C:\Users\stapi\AppData\Local\Temp\ccKCoria.s:162    .text.remove_session:000000000000000e .LVL13
C:\Users\stapi\AppData\Local\Temp\ccKCoria.s:183    .text.remove_session:000000000000003e .LVL17
C:\Users\stapi\AppData\Local\Temp\ccKCoria.s:214    .text.remove_session:000000000000005a .LVL21
C:\Users\stapi\AppData\Local\Temp\ccKCoria.s:197    .text.remove_session:0000000000000050 .LVL19
C:\Users\stapi\AppData\Local\Temp\ccKCoria.s:201    .text.remove_session:0000000000000054 .LVL20
C:\Users\stapi\AppData\Local\Temp\ccKCoria.s:750    .text.is_networkadd_same:0000000000000000 .LVL65
C:\Users\stapi\AppData\Local\Temp\ccKCoria.s:764    .text.is_networkadd_same:0000000000000010 .LVL66
C:\Users\stapi\AppData\Local\Temp\ccKCoria.s:807    .text.is_networkadd_same:0000000000000062 .LVL72
C:\Users\stapi\AppData\Local\Temp\ccKCoria.s:811    .text.is_networkadd_same:0000000000000064 .LVL73
C:\Users\stapi\AppData\Local\Temp\ccKCoria.s:774    .text.is_networkadd_same:000000000000001c .LVL68
C:\Users\stapi\AppData\Local\Temp\ccKCoria.s:767    .text.is_networkadd_same:0000000000000012 .LVL67
C:\Users\stapi\AppData\Local\Temp\ccKCoria.s:797    .text.is_networkadd_same:000000000000005a .LVL71
C:\Users\stapi\AppData\Local\Temp\ccKCoria.s:2412   .text.add_message_sessionid:0000000000000000 .LVL249
C:\Users\stapi\AppData\Local\Temp\ccKCoria.s:2443   .text.add_message_sessionid:0000000000000018 .LVL253
C:\Users\stapi\AppData\Local\Temp\ccKCoria.s:2472   .text.add_message_sessionid:0000000000000044 .LVL256
C:\Users\stapi\AppData\Local\Temp\ccKCoria.s:2427   .text.add_message_sessionid:0000000000000012 .LVL251
C:\Users\stapi\AppData\Local\Temp\ccKCoria.s:2478   .text.add_message_sessionid:000000000000004a .LVL257
C:\Users\stapi\AppData\Local\Temp\ccKCoria.s:2420   .text.add_message_sessionid:000000000000000a .LVL250
C:\Users\stapi\AppData\Local\Temp\ccKCoria.s:2429   .text.add_message_sessionid:0000000000000014 .LVL252
C:\Users\stapi\AppData\Local\Temp\ccKCoria.s:2961   .text.add_message_seq:0000000000000000 .LVL311
C:\Users\stapi\AppData\Local\Temp\ccKCoria.s:2977   .text.add_message_seq:000000000000001a .LVL313
C:\Users\stapi\AppData\Local\Temp\ccKCoria.s:2975   .text.add_message_seq:0000000000000016 .LVL312
C:\Users\stapi\AppData\Local\Temp\ccKCoria.s:2995   .text.add_message_seq:000000000000003e .LVL315
C:\Users\stapi\AppData\Local\Temp\ccKCoria.s:3332   .debug_info:0000000000000000 .Ldebug_info0
C:\Users\stapi\AppData\Local\Temp\ccKCoria.s:47     .text.add_request_to_list:0000000000000022 .LBE21
C:\Users\stapi\AppData\Local\Temp\ccKCoria.s:53     .text.add_request_to_list:0000000000000028 .LBB28
C:\Users\stapi\AppData\Local\Temp\ccKCoria.s:74     .text.add_request_to_list:0000000000000030 .LBE28
C:\Users\stapi\AppData\Local\Temp\ccKCoria.s:45     .text.add_request_to_list:0000000000000022 .LBE23
C:\Users\stapi\AppData\Local\Temp\ccKCoria.s:56     .text.add_request_to_list:0000000000000028 .LBB26
C:\Users\stapi\AppData\Local\Temp\ccKCoria.s:72     .text.add_request_to_list:0000000000000030 .LBE26
C:\Users\stapi\AppData\Local\Temp\ccKCoria.s:204    .text.remove_session:0000000000000054 .LBE43
C:\Users\stapi\AppData\Local\Temp\ccKCoria.s:207    .text.remove_session:0000000000000056 .LBB46
C:\Users\stapi\AppData\Local\Temp\ccKCoria.s:216    .text.remove_session:000000000000005a .LBE46
C:\Users\stapi\AppData\Local\Temp\ccKCoria.s:458    .text.alcs_auth_init:000000000000006c .LBE47
C:\Users\stapi\AppData\Local\Temp\ccKCoria.s:475    .text.alcs_auth_init:000000000000007c .LBB53
C:\Users\stapi\AppData\Local\Temp\ccKCoria.s:480    .text.alcs_auth_init:000000000000007c .LBE53
C:\Users\stapi\AppData\Local\Temp\ccKCoria.s:464    .text.alcs_auth_init:0000000000000070 .LBE50
C:\Users\stapi\AppData\Local\Temp\ccKCoria.s:482    .text.alcs_auth_init:000000000000007c .LBB54
C:\Users\stapi\AppData\Local\Temp\ccKCoria.s:492    .text.alcs_auth_init:0000000000000080 .LBE54
C:\Users\stapi\AppData\Local\Temp\ccKCoria.s:506    .text.alcs_auth_init:000000000000008c .LBE56
C:\Users\stapi\AppData\Local\Temp\ccKCoria.s:509    .text.alcs_auth_init:0000000000000090 .LBB59
C:\Users\stapi\AppData\Local\Temp\ccKCoria.s:518    .text.alcs_auth_init:0000000000000094 .LBE59
C:\Users\stapi\AppData\Local\Temp\ccKCoria.s:524    .text.alcs_auth_init:0000000000000094 .LBE60
C:\Users\stapi\AppData\Local\Temp\ccKCoria.s:527    .text.alcs_auth_init:0000000000000096 .LBB64
C:\Users\stapi\AppData\Local\Temp\ccKCoria.s:532    .text.alcs_auth_init:000000000000009a .LBE64
C:\Users\stapi\AppData\Local\Temp\ccKCoria.s:538    .text.alcs_auth_init:00000000000000a6 .LBB65
C:\Users\stapi\AppData\Local\Temp\ccKCoria.s:547    .text.alcs_auth_init:00000000000000aa .LBE65
C:\Users\stapi\AppData\Local\Temp\ccKCoria.s:1041   .text.get_svr_session:000000000000008a .LBE72
C:\Users\stapi\AppData\Local\Temp\ccKCoria.s:1055   .text.get_svr_session:0000000000000096 .LBB75
C:\Users\stapi\AppData\Local\Temp\ccKCoria.s:1060   .text.get_svr_session:0000000000000098 .LBE75
C:\Users\stapi\AppData\Local\Temp\ccKCoria.s:1602   .text.alcs_decrypt:000000000000003e .LBB78
C:\Users\stapi\AppData\Local\Temp\ccKCoria.s:1643   .text.alcs_decrypt:000000000000008c .LBE78
C:\Users\stapi\AppData\Local\Temp\ccKCoria.s:1669   .text.alcs_decrypt:000000000000009a .LBB79
C:\Users\stapi\AppData\Local\Temp\ccKCoria.s:1794   .text.alcs_decrypt:000000000000016e .LBE79
C:\Users\stapi\AppData\Local\Temp\ccKCoria.s:2133   .text.seqwindow_accept:0000000000000114 .LBB80
C:\Users\stapi\AppData\Local\Temp\ccKCoria.s:2138   .text.seqwindow_accept:0000000000000120 .LBE80
C:\Users\stapi\AppData\Local\Temp\ccKCoria.s:2141   .text.seqwindow_accept:0000000000000124 .LBB84
C:\Users\stapi\AppData\Local\Temp\ccKCoria.s:2233   .text.seqwindow_accept:000000000000019a .LBE84
C:\Users\stapi\AppData\Local\Temp\ccKCoria.s:2160   .text.seqwindow_accept:000000000000014a .LBB81
C:\Users\stapi\AppData\Local\Temp\ccKCoria.s:2165   .text.seqwindow_accept:000000000000014e .LBE81
C:\Users\stapi\AppData\Local\Temp\ccKCoria.s:2175   .text.seqwindow_accept:0000000000000156 .LBB82
C:\Users\stapi\AppData\Local\Temp\ccKCoria.s:2218   .text.seqwindow_accept:0000000000000190 .LBE82
C:\Users\stapi\AppData\Local\Temp\ccKCoria.s:2225   .text.seqwindow_accept:0000000000000194 .LBB83
C:\Users\stapi\AppData\Local\Temp\ccKCoria.s:2232   .text.seqwindow_accept:000000000000019a .LBE83
C:\Users\stapi\AppData\Local\Temp\ccKCoria.s:2312   .text.get_message_sessionid:0000000000000012 .LBB86
C:\Users\stapi\AppData\Local\Temp\ccKCoria.s:2335   .text.get_message_sessionid:000000000000002e .LBE86
C:\Users\stapi\AppData\Local\Temp\ccKCoria.s:2347   .text.get_message_sessionid:0000000000000038 .LBB87
C:\Users\stapi\AppData\Local\Temp\ccKCoria.s:2387   .text.get_message_sessionid:000000000000006a .LBE87
C:\Users\stapi\AppData\Local\Temp\ccKCoria.s:2578   .text.alcs_sendrsp_secure:000000000000004e .LBE99
C:\Users\stapi\AppData\Local\Temp\ccKCoria.s:2581   .text.alcs_sendrsp_secure:0000000000000052 .LBB106
C:\Users\stapi\AppData\Local\Temp\ccKCoria.s:2586   .text.alcs_sendrsp_secure:0000000000000056 .LBE106
C:\Users\stapi\AppData\Local\Temp\ccKCoria.s:2590   .text.alcs_sendrsp_secure:000000000000005a .LBB107
C:\Users\stapi\AppData\Local\Temp\ccKCoria.s:2595   .text.alcs_sendrsp_secure:000000000000005a .LBE107
C:\Users\stapi\AppData\Local\Temp\ccKCoria.s:2599   .text.alcs_sendrsp_secure:000000000000005c .LBB108
C:\Users\stapi\AppData\Local\Temp\ccKCoria.s:2625   .text.alcs_sendrsp_secure:0000000000000090 .LBE108
C:\Users\stapi\AppData\Local\Temp\ccKCoria.s:2669   .text.alcs_sendrsp_secure:00000000000000be .LBB120
C:\Users\stapi\AppData\Local\Temp\ccKCoria.s:2706   .text.alcs_sendrsp_secure:0000000000000114 .LBE120
C:\Users\stapi\AppData\Local\Temp\ccKCoria.s:2788   .text.alcs_sendrsp_secure:00000000000001b2 .LBB121
C:\Users\stapi\AppData\Local\Temp\ccKCoria.s:2800   .text.alcs_sendrsp_secure:00000000000001be .LBE121
C:\Users\stapi\AppData\Local\Temp\ccKCoria.s:2634   .text.alcs_sendrsp_secure:000000000000009e .LBB109
C:\Users\stapi\AppData\Local\Temp\ccKCoria.s:2645   .text.alcs_sendrsp_secure:00000000000000b2 .LBE109
C:\Users\stapi\AppData\Local\Temp\ccKCoria.s:2806   .text.alcs_sendrsp_secure:00000000000001c4 .LBB122
C:\Users\stapi\AppData\Local\Temp\ccKCoria.s:2930   .text.alcs_sendrsp_secure:0000000000000292 .LBE122
C:\Users\stapi\AppData\Local\Temp\ccKCoria.s:2937   .text.alcs_sendrsp_secure:0000000000000298 .LBB123
C:\Users\stapi\AppData\Local\Temp\ccKCoria.s:2945   .text.alcs_sendrsp_secure:000000000000029e .LBE123
C:\Users\stapi\AppData\Local\Temp\ccKCoria.s:2813   .text.alcs_sendrsp_secure:00000000000001c6 .LBE110
C:\Users\stapi\AppData\Local\Temp\ccKCoria.s:2817   .text.alcs_sendrsp_secure:00000000000001ca .LBB116
C:\Users\stapi\AppData\Local\Temp\ccKCoria.s:2848   .text.alcs_sendrsp_secure:00000000000001fc .LBE116
C:\Users\stapi\AppData\Local\Temp\ccKCoria.s:2858   .text.alcs_sendrsp_secure:000000000000020c .LBB117
C:\Users\stapi\AppData\Local\Temp\ccKCoria.s:2880   .text.alcs_sendrsp_secure:0000000000000240 .LBE117
C:\Users\stapi\AppData\Local\Temp\ccKCoria.s:2917   .text.alcs_sendrsp_secure:0000000000000286 .LBB118
C:\Users\stapi\AppData\Local\Temp\ccKCoria.s:2929   .text.alcs_sendrsp_secure:0000000000000292 .LBE118
C:\Users\stapi\AppData\Local\Temp\ccKCoria.s:2938   .text.alcs_sendrsp_secure:0000000000000298 .LBB119
C:\Users\stapi\AppData\Local\Temp\ccKCoria.s:2944   .text.alcs_sendrsp_secure:000000000000029e .LBE119

UNDEFINED SYMBOLS
__riscv_save_2
HAL_MutexLock
HAL_MutexUnlock
__riscv_restore_2
LITE_free_internal
HAL_Printf
CoapObsServerAll_delete
__riscv_save_9
memset
time
srand
__riscv_restore_9
rand
__riscv_save_7
snprintf
alcs_rec_auth
alcs_resource_register
alcs_rec_heart_beat
HAL_MutexCreate
__riscv_restore_7
__riscv_save_3
__riscv_restore_3
__riscv_save_1
alcs_resource_cb_deinit
alcs_auth_list_deinit
HAL_MutexDestroy
__riscv_restore_1
LITE_syslog
strcmp
__riscv_save_6
strncmp
__riscv_restore_6
strlen
CoAPPathMD5_sum
memcpy
HAL_Aes128_Init
HAL_Aes128_Cbc_Encrypt
HAL_Aes128_Destroy
LITE_malloc_internal
CoAPMessage_send
__riscv_save_10
__riscv_restore_10
HAL_Aes128_Cbc_Decrypt
__riscv_save_5
json_get_value_by_name
__riscv_restore_5
on_svr_auth_timer
CoAPStrOption_get
utils_hmac_sha1_raw
memcmp
CoAPUintOption_get
utils_md5
CoAPStrOption_add
CoAPUintOption_add
__riscv_save_12
__riscv_restore_12
CoAPMessageId_gen
