   1              		.file	"alcs_adapter.c"
   2              		.option nopic
   3              		.attribute arch, "rv32i2p0_m2p0_a2p0_f2p0_c2p0_b_p0p94"
   4              		.attribute unaligned_access, 0
   5              		.attribute stack_align, 16
   6              		.text
   7              	.Ltext0:
   8              		.cfi_sections	.debug_frame
   9              		.section	.rodata.iotx_alcs_coap_adapter_event_notifier.str1.4,"aMS",@progbits,1
  10              		.align	2
  11              	.LC0:
  12 0000 5B696E66 		.string	"[inf] "
  12      5D2000
  13 0007 00       		.align	2
  14              	.LC1:
  15 0008 414C4353 		.string	"ALCS Coap Event: %d, Remote Device Address: %s, Remote Device Port: %d"
  15      20436F61 
  15      70204576 
  15      656E743A 
  15      2025642C 
  16 004f 00       		.align	2
  17              	.LC2:
  18 0050 0D0A00   		.string	"\r\n"
  19              		.section	.text.iotx_alcs_coap_adapter_event_notifier,"ax",@progbits
  20              		.align	1
  21              		.globl	iotx_alcs_coap_adapter_event_notifier
  23              	iotx_alcs_coap_adapter_event_notifier:
  24              	.LFB26:
  25              		.file 1 "C:/Users/stapi/OneDrive/Desktop/GD32VW553/V1_MQTT_OK/GD32VW55X_Wifi_BLE_SDK/GD32VW55x_REL
   1:C:/Users/stapi/OneDrive/Desktop/GD32VW553/V1_MQTT_OK/GD32VW55X_Wifi_BLE_SDK/GD32VW55x_RELEASE_V1.0.2/MSDK/cloud/alicloud/src/protocol/alcs\alcs_adapter.c **** /*
   2:C:/Users/stapi/OneDrive/Desktop/GD32VW553/V1_MQTT_OK/GD32VW55X_Wifi_BLE_SDK/GD32VW55x_RELEASE_V1.0.2/MSDK/cloud/alicloud/src/protocol/alcs\alcs_adapter.c ****  * Copyright (C) 2015-2018 Alibaba Group Holding Limited
   3:C:/Users/stapi/OneDrive/Desktop/GD32VW553/V1_MQTT_OK/GD32VW55X_Wifi_BLE_SDK/GD32VW55x_RELEASE_V1.0.2/MSDK/cloud/alicloud/src/protocol/alcs\alcs_adapter.c ****  */
   4:C:/Users/stapi/OneDrive/Desktop/GD32VW553/V1_MQTT_OK/GD32VW55X_Wifi_BLE_SDK/GD32VW55x_RELEASE_V1.0.2/MSDK/cloud/alicloud/src/protocol/alcs\alcs_adapter.c **** 
   5:C:/Users/stapi/OneDrive/Desktop/GD32VW553/V1_MQTT_OK/GD32VW55X_Wifi_BLE_SDK/GD32VW55x_RELEASE_V1.0.2/MSDK/cloud/alicloud/src/protocol/alcs\alcs_adapter.c **** 
   6:C:/Users/stapi/OneDrive/Desktop/GD32VW553/V1_MQTT_OK/GD32VW55X_Wifi_BLE_SDK/GD32VW55x_RELEASE_V1.0.2/MSDK/cloud/alicloud/src/protocol/alcs\alcs_adapter.c **** 
   7:C:/Users/stapi/OneDrive/Desktop/GD32VW553/V1_MQTT_OK/GD32VW55X_Wifi_BLE_SDK/GD32VW55x_RELEASE_V1.0.2/MSDK/cloud/alicloud/src/protocol/alcs\alcs_adapter.c **** #include <stddef.h>
   8:C:/Users/stapi/OneDrive/Desktop/GD32VW553/V1_MQTT_OK/GD32VW55X_Wifi_BLE_SDK/GD32VW55x_RELEASE_V1.0.2/MSDK/cloud/alicloud/src/protocol/alcs\alcs_adapter.c **** #include <string.h>
   9:C:/Users/stapi/OneDrive/Desktop/GD32VW553/V1_MQTT_OK/GD32VW55X_Wifi_BLE_SDK/GD32VW55x_RELEASE_V1.0.2/MSDK/cloud/alicloud/src/protocol/alcs\alcs_adapter.c **** 
  10:C:/Users/stapi/OneDrive/Desktop/GD32VW553/V1_MQTT_OK/GD32VW55X_Wifi_BLE_SDK/GD32VW55x_RELEASE_V1.0.2/MSDK/cloud/alicloud/src/protocol/alcs\alcs_adapter.c **** #include "iot_import.h"
  11:C:/Users/stapi/OneDrive/Desktop/GD32VW553/V1_MQTT_OK/GD32VW55X_Wifi_BLE_SDK/GD32VW55x_RELEASE_V1.0.2/MSDK/cloud/alicloud/src/protocol/alcs\alcs_adapter.c **** #include "iot_export.h"
  12:C:/Users/stapi/OneDrive/Desktop/GD32VW553/V1_MQTT_OK/GD32VW55X_Wifi_BLE_SDK/GD32VW55x_RELEASE_V1.0.2/MSDK/cloud/alicloud/src/protocol/alcs\alcs_adapter.c **** #include "alcs_api.h"
  13:C:/Users/stapi/OneDrive/Desktop/GD32VW553/V1_MQTT_OK/GD32VW55X_Wifi_BLE_SDK/GD32VW55x_RELEASE_V1.0.2/MSDK/cloud/alicloud/src/protocol/alcs\alcs_adapter.c **** #include "alcs_coap.h"
  14:C:/Users/stapi/OneDrive/Desktop/GD32VW553/V1_MQTT_OK/GD32VW55X_Wifi_BLE_SDK/GD32VW55x_RELEASE_V1.0.2/MSDK/cloud/alicloud/src/protocol/alcs\alcs_adapter.c **** #include "alcs_mqtt.h"
  15:C:/Users/stapi/OneDrive/Desktop/GD32VW553/V1_MQTT_OK/GD32VW55X_Wifi_BLE_SDK/GD32VW55x_RELEASE_V1.0.2/MSDK/cloud/alicloud/src/protocol/alcs\alcs_adapter.c **** #include "CoAPInternal.h"
  16:C:/Users/stapi/OneDrive/Desktop/GD32VW553/V1_MQTT_OK/GD32VW55X_Wifi_BLE_SDK/GD32VW55x_RELEASE_V1.0.2/MSDK/cloud/alicloud/src/protocol/alcs\alcs_adapter.c **** #include "CoAPExport.h"
  17:C:/Users/stapi/OneDrive/Desktop/GD32VW553/V1_MQTT_OK/GD32VW55X_Wifi_BLE_SDK/GD32VW55x_RELEASE_V1.0.2/MSDK/cloud/alicloud/src/protocol/alcs\alcs_adapter.c **** #include "CoAPServer.h"
  18:C:/Users/stapi/OneDrive/Desktop/GD32VW553/V1_MQTT_OK/GD32VW55X_Wifi_BLE_SDK/GD32VW55x_RELEASE_V1.0.2/MSDK/cloud/alicloud/src/protocol/alcs\alcs_adapter.c **** #include "alcs_adapter.h"
  19:C:/Users/stapi/OneDrive/Desktop/GD32VW553/V1_MQTT_OK/GD32VW55X_Wifi_BLE_SDK/GD32VW55x_RELEASE_V1.0.2/MSDK/cloud/alicloud/src/protocol/alcs\alcs_adapter.c **** #include "alcs_mqtt.h"
  20:C:/Users/stapi/OneDrive/Desktop/GD32VW553/V1_MQTT_OK/GD32VW55X_Wifi_BLE_SDK/GD32VW55x_RELEASE_V1.0.2/MSDK/cloud/alicloud/src/protocol/alcs\alcs_adapter.c **** #include "alcs_localsetup.h"
  21:C:/Users/stapi/OneDrive/Desktop/GD32VW553/V1_MQTT_OK/GD32VW55X_Wifi_BLE_SDK/GD32VW55x_RELEASE_V1.0.2/MSDK/cloud/alicloud/src/protocol/alcs\alcs_adapter.c **** #include "CoAPPlatform.h"
  22:C:/Users/stapi/OneDrive/Desktop/GD32VW553/V1_MQTT_OK/GD32VW55X_Wifi_BLE_SDK/GD32VW55x_RELEASE_V1.0.2/MSDK/cloud/alicloud/src/protocol/alcs\alcs_adapter.c **** #include "alcs_api_internal.h"
  23:C:/Users/stapi/OneDrive/Desktop/GD32VW553/V1_MQTT_OK/GD32VW55X_Wifi_BLE_SDK/GD32VW55x_RELEASE_V1.0.2/MSDK/cloud/alicloud/src/protocol/alcs\alcs_adapter.c **** #include "CoAPResource.h"
  24:C:/Users/stapi/OneDrive/Desktop/GD32VW553/V1_MQTT_OK/GD32VW55X_Wifi_BLE_SDK/GD32VW55x_RELEASE_V1.0.2/MSDK/cloud/alicloud/src/protocol/alcs\alcs_adapter.c **** 
  25:C:/Users/stapi/OneDrive/Desktop/GD32VW553/V1_MQTT_OK/GD32VW55X_Wifi_BLE_SDK/GD32VW55x_RELEASE_V1.0.2/MSDK/cloud/alicloud/src/protocol/alcs\alcs_adapter.c **** static iotx_alcs_adapter_t g_alcs_adapter;
  26:C:/Users/stapi/OneDrive/Desktop/GD32VW553/V1_MQTT_OK/GD32VW55X_Wifi_BLE_SDK/GD32VW55x_RELEASE_V1.0.2/MSDK/cloud/alicloud/src/protocol/alcs\alcs_adapter.c **** 
  27:C:/Users/stapi/OneDrive/Desktop/GD32VW553/V1_MQTT_OK/GD32VW55X_Wifi_BLE_SDK/GD32VW55x_RELEASE_V1.0.2/MSDK/cloud/alicloud/src/protocol/alcs\alcs_adapter.c **** static void alcs_heartbeat(void *handle);
  28:C:/Users/stapi/OneDrive/Desktop/GD32VW553/V1_MQTT_OK/GD32VW55X_Wifi_BLE_SDK/GD32VW55x_RELEASE_V1.0.2/MSDK/cloud/alicloud/src/protocol/alcs\alcs_adapter.c **** 
  29:C:/Users/stapi/OneDrive/Desktop/GD32VW553/V1_MQTT_OK/GD32VW55X_Wifi_BLE_SDK/GD32VW55x_RELEASE_V1.0.2/MSDK/cloud/alicloud/src/protocol/alcs\alcs_adapter.c **** static iotx_alcs_adapter_t *__iotx_alcs_get_ctx(void)
  30:C:/Users/stapi/OneDrive/Desktop/GD32VW553/V1_MQTT_OK/GD32VW55X_Wifi_BLE_SDK/GD32VW55x_RELEASE_V1.0.2/MSDK/cloud/alicloud/src/protocol/alcs\alcs_adapter.c **** {
  31:C:/Users/stapi/OneDrive/Desktop/GD32VW553/V1_MQTT_OK/GD32VW55X_Wifi_BLE_SDK/GD32VW55x_RELEASE_V1.0.2/MSDK/cloud/alicloud/src/protocol/alcs\alcs_adapter.c ****     return &g_alcs_adapter;
  32:C:/Users/stapi/OneDrive/Desktop/GD32VW553/V1_MQTT_OK/GD32VW55X_Wifi_BLE_SDK/GD32VW55x_RELEASE_V1.0.2/MSDK/cloud/alicloud/src/protocol/alcs\alcs_adapter.c **** }
  33:C:/Users/stapi/OneDrive/Desktop/GD32VW553/V1_MQTT_OK/GD32VW55X_Wifi_BLE_SDK/GD32VW55x_RELEASE_V1.0.2/MSDK/cloud/alicloud/src/protocol/alcs\alcs_adapter.c **** 
  34:C:/Users/stapi/OneDrive/Desktop/GD32VW553/V1_MQTT_OK/GD32VW55X_Wifi_BLE_SDK/GD32VW55x_RELEASE_V1.0.2/MSDK/cloud/alicloud/src/protocol/alcs\alcs_adapter.c **** iotx_alcs_adapter_t *iotx_alcs_get_ctx(void)
  35:C:/Users/stapi/OneDrive/Desktop/GD32VW553/V1_MQTT_OK/GD32VW55X_Wifi_BLE_SDK/GD32VW55x_RELEASE_V1.0.2/MSDK/cloud/alicloud/src/protocol/alcs\alcs_adapter.c **** {
  36:C:/Users/stapi/OneDrive/Desktop/GD32VW553/V1_MQTT_OK/GD32VW55X_Wifi_BLE_SDK/GD32VW55x_RELEASE_V1.0.2/MSDK/cloud/alicloud/src/protocol/alcs\alcs_adapter.c ****     return &g_alcs_adapter;
  37:C:/Users/stapi/OneDrive/Desktop/GD32VW553/V1_MQTT_OK/GD32VW55X_Wifi_BLE_SDK/GD32VW55x_RELEASE_V1.0.2/MSDK/cloud/alicloud/src/protocol/alcs\alcs_adapter.c **** }
  38:C:/Users/stapi/OneDrive/Desktop/GD32VW553/V1_MQTT_OK/GD32VW55X_Wifi_BLE_SDK/GD32VW55x_RELEASE_V1.0.2/MSDK/cloud/alicloud/src/protocol/alcs\alcs_adapter.c **** 
  39:C:/Users/stapi/OneDrive/Desktop/GD32VW553/V1_MQTT_OK/GD32VW55X_Wifi_BLE_SDK/GD32VW55x_RELEASE_V1.0.2/MSDK/cloud/alicloud/src/protocol/alcs\alcs_adapter.c **** static char *iotx_alcs_topic_parse_pk(char *topic, uint16_t *length)
  40:C:/Users/stapi/OneDrive/Desktop/GD32VW553/V1_MQTT_OK/GD32VW55X_Wifi_BLE_SDK/GD32VW55x_RELEASE_V1.0.2/MSDK/cloud/alicloud/src/protocol/alcs\alcs_adapter.c **** {
  41:C:/Users/stapi/OneDrive/Desktop/GD32VW553/V1_MQTT_OK/GD32VW55X_Wifi_BLE_SDK/GD32VW55x_RELEASE_V1.0.2/MSDK/cloud/alicloud/src/protocol/alcs\alcs_adapter.c ****     if (topic == NULL || length == NULL) {
  42:C:/Users/stapi/OneDrive/Desktop/GD32VW553/V1_MQTT_OK/GD32VW55X_Wifi_BLE_SDK/GD32VW55x_RELEASE_V1.0.2/MSDK/cloud/alicloud/src/protocol/alcs\alcs_adapter.c ****         COAP_ERR("Invalid Parameter");
  43:C:/Users/stapi/OneDrive/Desktop/GD32VW553/V1_MQTT_OK/GD32VW55X_Wifi_BLE_SDK/GD32VW55x_RELEASE_V1.0.2/MSDK/cloud/alicloud/src/protocol/alcs\alcs_adapter.c ****         return NULL;
  44:C:/Users/stapi/OneDrive/Desktop/GD32VW553/V1_MQTT_OK/GD32VW55X_Wifi_BLE_SDK/GD32VW55x_RELEASE_V1.0.2/MSDK/cloud/alicloud/src/protocol/alcs\alcs_adapter.c ****     }
  45:C:/Users/stapi/OneDrive/Desktop/GD32VW553/V1_MQTT_OK/GD32VW55X_Wifi_BLE_SDK/GD32VW55x_RELEASE_V1.0.2/MSDK/cloud/alicloud/src/protocol/alcs\alcs_adapter.c **** 
  46:C:/Users/stapi/OneDrive/Desktop/GD32VW553/V1_MQTT_OK/GD32VW55X_Wifi_BLE_SDK/GD32VW55x_RELEASE_V1.0.2/MSDK/cloud/alicloud/src/protocol/alcs\alcs_adapter.c ****     char *pos = NULL;
  47:C:/Users/stapi/OneDrive/Desktop/GD32VW553/V1_MQTT_OK/GD32VW55X_Wifi_BLE_SDK/GD32VW55x_RELEASE_V1.0.2/MSDK/cloud/alicloud/src/protocol/alcs\alcs_adapter.c ****     uint8_t slash_count = 0;
  48:C:/Users/stapi/OneDrive/Desktop/GD32VW553/V1_MQTT_OK/GD32VW55X_Wifi_BLE_SDK/GD32VW55x_RELEASE_V1.0.2/MSDK/cloud/alicloud/src/protocol/alcs\alcs_adapter.c ****     uint16_t idx = 0;
  49:C:/Users/stapi/OneDrive/Desktop/GD32VW553/V1_MQTT_OK/GD32VW55X_Wifi_BLE_SDK/GD32VW55x_RELEASE_V1.0.2/MSDK/cloud/alicloud/src/protocol/alcs\alcs_adapter.c ****     uint16_t topic_len = strlen(topic);
  50:C:/Users/stapi/OneDrive/Desktop/GD32VW553/V1_MQTT_OK/GD32VW55X_Wifi_BLE_SDK/GD32VW55x_RELEASE_V1.0.2/MSDK/cloud/alicloud/src/protocol/alcs\alcs_adapter.c **** 
  51:C:/Users/stapi/OneDrive/Desktop/GD32VW553/V1_MQTT_OK/GD32VW55X_Wifi_BLE_SDK/GD32VW55x_RELEASE_V1.0.2/MSDK/cloud/alicloud/src/protocol/alcs\alcs_adapter.c ****     while (idx < topic_len) {
  52:C:/Users/stapi/OneDrive/Desktop/GD32VW553/V1_MQTT_OK/GD32VW55X_Wifi_BLE_SDK/GD32VW55x_RELEASE_V1.0.2/MSDK/cloud/alicloud/src/protocol/alcs\alcs_adapter.c ****         if (topic[idx] == '/') {
  53:C:/Users/stapi/OneDrive/Desktop/GD32VW553/V1_MQTT_OK/GD32VW55X_Wifi_BLE_SDK/GD32VW55x_RELEASE_V1.0.2/MSDK/cloud/alicloud/src/protocol/alcs\alcs_adapter.c ****             slash_count++;
  54:C:/Users/stapi/OneDrive/Desktop/GD32VW553/V1_MQTT_OK/GD32VW55X_Wifi_BLE_SDK/GD32VW55x_RELEASE_V1.0.2/MSDK/cloud/alicloud/src/protocol/alcs\alcs_adapter.c ****             if (slash_count == 2) {
  55:C:/Users/stapi/OneDrive/Desktop/GD32VW553/V1_MQTT_OK/GD32VW55X_Wifi_BLE_SDK/GD32VW55x_RELEASE_V1.0.2/MSDK/cloud/alicloud/src/protocol/alcs\alcs_adapter.c ****                 pos = topic + idx + 1;
  56:C:/Users/stapi/OneDrive/Desktop/GD32VW553/V1_MQTT_OK/GD32VW55X_Wifi_BLE_SDK/GD32VW55x_RELEASE_V1.0.2/MSDK/cloud/alicloud/src/protocol/alcs\alcs_adapter.c ****             }
  57:C:/Users/stapi/OneDrive/Desktop/GD32VW553/V1_MQTT_OK/GD32VW55X_Wifi_BLE_SDK/GD32VW55x_RELEASE_V1.0.2/MSDK/cloud/alicloud/src/protocol/alcs\alcs_adapter.c ****             if (slash_count == 3) {
  58:C:/Users/stapi/OneDrive/Desktop/GD32VW553/V1_MQTT_OK/GD32VW55X_Wifi_BLE_SDK/GD32VW55x_RELEASE_V1.0.2/MSDK/cloud/alicloud/src/protocol/alcs\alcs_adapter.c ****                 *length = topic + idx - pos;
  59:C:/Users/stapi/OneDrive/Desktop/GD32VW553/V1_MQTT_OK/GD32VW55X_Wifi_BLE_SDK/GD32VW55x_RELEASE_V1.0.2/MSDK/cloud/alicloud/src/protocol/alcs\alcs_adapter.c ****             }
  60:C:/Users/stapi/OneDrive/Desktop/GD32VW553/V1_MQTT_OK/GD32VW55X_Wifi_BLE_SDK/GD32VW55x_RELEASE_V1.0.2/MSDK/cloud/alicloud/src/protocol/alcs\alcs_adapter.c ****         }
  61:C:/Users/stapi/OneDrive/Desktop/GD32VW553/V1_MQTT_OK/GD32VW55X_Wifi_BLE_SDK/GD32VW55x_RELEASE_V1.0.2/MSDK/cloud/alicloud/src/protocol/alcs\alcs_adapter.c ****         idx++;
  62:C:/Users/stapi/OneDrive/Desktop/GD32VW553/V1_MQTT_OK/GD32VW55X_Wifi_BLE_SDK/GD32VW55x_RELEASE_V1.0.2/MSDK/cloud/alicloud/src/protocol/alcs\alcs_adapter.c ****     }
  63:C:/Users/stapi/OneDrive/Desktop/GD32VW553/V1_MQTT_OK/GD32VW55X_Wifi_BLE_SDK/GD32VW55x_RELEASE_V1.0.2/MSDK/cloud/alicloud/src/protocol/alcs\alcs_adapter.c **** 
  64:C:/Users/stapi/OneDrive/Desktop/GD32VW553/V1_MQTT_OK/GD32VW55X_Wifi_BLE_SDK/GD32VW55x_RELEASE_V1.0.2/MSDK/cloud/alicloud/src/protocol/alcs\alcs_adapter.c ****     return pos;
  65:C:/Users/stapi/OneDrive/Desktop/GD32VW553/V1_MQTT_OK/GD32VW55X_Wifi_BLE_SDK/GD32VW55x_RELEASE_V1.0.2/MSDK/cloud/alicloud/src/protocol/alcs\alcs_adapter.c **** }
  66:C:/Users/stapi/OneDrive/Desktop/GD32VW553/V1_MQTT_OK/GD32VW55X_Wifi_BLE_SDK/GD32VW55x_RELEASE_V1.0.2/MSDK/cloud/alicloud/src/protocol/alcs\alcs_adapter.c **** 
  67:C:/Users/stapi/OneDrive/Desktop/GD32VW553/V1_MQTT_OK/GD32VW55X_Wifi_BLE_SDK/GD32VW55x_RELEASE_V1.0.2/MSDK/cloud/alicloud/src/protocol/alcs\alcs_adapter.c **** static char *iotx_alcs_topic_parse_dn(char *topic, uint16_t *length)
  68:C:/Users/stapi/OneDrive/Desktop/GD32VW553/V1_MQTT_OK/GD32VW55X_Wifi_BLE_SDK/GD32VW55x_RELEASE_V1.0.2/MSDK/cloud/alicloud/src/protocol/alcs\alcs_adapter.c **** {
  69:C:/Users/stapi/OneDrive/Desktop/GD32VW553/V1_MQTT_OK/GD32VW55X_Wifi_BLE_SDK/GD32VW55x_RELEASE_V1.0.2/MSDK/cloud/alicloud/src/protocol/alcs\alcs_adapter.c ****     if (topic == NULL || length == NULL) {
  70:C:/Users/stapi/OneDrive/Desktop/GD32VW553/V1_MQTT_OK/GD32VW55X_Wifi_BLE_SDK/GD32VW55x_RELEASE_V1.0.2/MSDK/cloud/alicloud/src/protocol/alcs\alcs_adapter.c ****         COAP_ERR("Invalid Parameter");
  71:C:/Users/stapi/OneDrive/Desktop/GD32VW553/V1_MQTT_OK/GD32VW55X_Wifi_BLE_SDK/GD32VW55x_RELEASE_V1.0.2/MSDK/cloud/alicloud/src/protocol/alcs\alcs_adapter.c ****         return NULL;
  72:C:/Users/stapi/OneDrive/Desktop/GD32VW553/V1_MQTT_OK/GD32VW55X_Wifi_BLE_SDK/GD32VW55x_RELEASE_V1.0.2/MSDK/cloud/alicloud/src/protocol/alcs\alcs_adapter.c ****     }
  73:C:/Users/stapi/OneDrive/Desktop/GD32VW553/V1_MQTT_OK/GD32VW55X_Wifi_BLE_SDK/GD32VW55x_RELEASE_V1.0.2/MSDK/cloud/alicloud/src/protocol/alcs\alcs_adapter.c **** 
  74:C:/Users/stapi/OneDrive/Desktop/GD32VW553/V1_MQTT_OK/GD32VW55X_Wifi_BLE_SDK/GD32VW55x_RELEASE_V1.0.2/MSDK/cloud/alicloud/src/protocol/alcs\alcs_adapter.c ****     char *pos = NULL;
  75:C:/Users/stapi/OneDrive/Desktop/GD32VW553/V1_MQTT_OK/GD32VW55X_Wifi_BLE_SDK/GD32VW55x_RELEASE_V1.0.2/MSDK/cloud/alicloud/src/protocol/alcs\alcs_adapter.c ****     uint8_t slash_count = 0;
  76:C:/Users/stapi/OneDrive/Desktop/GD32VW553/V1_MQTT_OK/GD32VW55X_Wifi_BLE_SDK/GD32VW55x_RELEASE_V1.0.2/MSDK/cloud/alicloud/src/protocol/alcs\alcs_adapter.c ****     uint16_t idx = 0;
  77:C:/Users/stapi/OneDrive/Desktop/GD32VW553/V1_MQTT_OK/GD32VW55X_Wifi_BLE_SDK/GD32VW55x_RELEASE_V1.0.2/MSDK/cloud/alicloud/src/protocol/alcs\alcs_adapter.c ****     uint16_t topic_len = strlen(topic);
  78:C:/Users/stapi/OneDrive/Desktop/GD32VW553/V1_MQTT_OK/GD32VW55X_Wifi_BLE_SDK/GD32VW55x_RELEASE_V1.0.2/MSDK/cloud/alicloud/src/protocol/alcs\alcs_adapter.c **** 
  79:C:/Users/stapi/OneDrive/Desktop/GD32VW553/V1_MQTT_OK/GD32VW55X_Wifi_BLE_SDK/GD32VW55x_RELEASE_V1.0.2/MSDK/cloud/alicloud/src/protocol/alcs\alcs_adapter.c ****     while (idx < topic_len) {
  80:C:/Users/stapi/OneDrive/Desktop/GD32VW553/V1_MQTT_OK/GD32VW55X_Wifi_BLE_SDK/GD32VW55x_RELEASE_V1.0.2/MSDK/cloud/alicloud/src/protocol/alcs\alcs_adapter.c ****         if (topic[idx] == '/') {
  81:C:/Users/stapi/OneDrive/Desktop/GD32VW553/V1_MQTT_OK/GD32VW55X_Wifi_BLE_SDK/GD32VW55x_RELEASE_V1.0.2/MSDK/cloud/alicloud/src/protocol/alcs\alcs_adapter.c ****             slash_count++;
  82:C:/Users/stapi/OneDrive/Desktop/GD32VW553/V1_MQTT_OK/GD32VW55X_Wifi_BLE_SDK/GD32VW55x_RELEASE_V1.0.2/MSDK/cloud/alicloud/src/protocol/alcs\alcs_adapter.c ****             if (slash_count == 3) {
  83:C:/Users/stapi/OneDrive/Desktop/GD32VW553/V1_MQTT_OK/GD32VW55X_Wifi_BLE_SDK/GD32VW55x_RELEASE_V1.0.2/MSDK/cloud/alicloud/src/protocol/alcs\alcs_adapter.c ****                 pos = topic + idx + 1;
  84:C:/Users/stapi/OneDrive/Desktop/GD32VW553/V1_MQTT_OK/GD32VW55X_Wifi_BLE_SDK/GD32VW55x_RELEASE_V1.0.2/MSDK/cloud/alicloud/src/protocol/alcs\alcs_adapter.c ****             }
  85:C:/Users/stapi/OneDrive/Desktop/GD32VW553/V1_MQTT_OK/GD32VW55X_Wifi_BLE_SDK/GD32VW55x_RELEASE_V1.0.2/MSDK/cloud/alicloud/src/protocol/alcs\alcs_adapter.c ****             if (slash_count == 4) {
  86:C:/Users/stapi/OneDrive/Desktop/GD32VW553/V1_MQTT_OK/GD32VW55X_Wifi_BLE_SDK/GD32VW55x_RELEASE_V1.0.2/MSDK/cloud/alicloud/src/protocol/alcs\alcs_adapter.c ****                 *length = topic + idx - pos;
  87:C:/Users/stapi/OneDrive/Desktop/GD32VW553/V1_MQTT_OK/GD32VW55X_Wifi_BLE_SDK/GD32VW55x_RELEASE_V1.0.2/MSDK/cloud/alicloud/src/protocol/alcs\alcs_adapter.c ****             }
  88:C:/Users/stapi/OneDrive/Desktop/GD32VW553/V1_MQTT_OK/GD32VW55X_Wifi_BLE_SDK/GD32VW55x_RELEASE_V1.0.2/MSDK/cloud/alicloud/src/protocol/alcs\alcs_adapter.c ****         }
  89:C:/Users/stapi/OneDrive/Desktop/GD32VW553/V1_MQTT_OK/GD32VW55X_Wifi_BLE_SDK/GD32VW55x_RELEASE_V1.0.2/MSDK/cloud/alicloud/src/protocol/alcs\alcs_adapter.c ****         idx++;
  90:C:/Users/stapi/OneDrive/Desktop/GD32VW553/V1_MQTT_OK/GD32VW55X_Wifi_BLE_SDK/GD32VW55x_RELEASE_V1.0.2/MSDK/cloud/alicloud/src/protocol/alcs\alcs_adapter.c ****     }
  91:C:/Users/stapi/OneDrive/Desktop/GD32VW553/V1_MQTT_OK/GD32VW55X_Wifi_BLE_SDK/GD32VW55x_RELEASE_V1.0.2/MSDK/cloud/alicloud/src/protocol/alcs\alcs_adapter.c **** 
  92:C:/Users/stapi/OneDrive/Desktop/GD32VW553/V1_MQTT_OK/GD32VW55X_Wifi_BLE_SDK/GD32VW55x_RELEASE_V1.0.2/MSDK/cloud/alicloud/src/protocol/alcs\alcs_adapter.c ****     return pos;
  93:C:/Users/stapi/OneDrive/Desktop/GD32VW553/V1_MQTT_OK/GD32VW55X_Wifi_BLE_SDK/GD32VW55x_RELEASE_V1.0.2/MSDK/cloud/alicloud/src/protocol/alcs\alcs_adapter.c **** }
  94:C:/Users/stapi/OneDrive/Desktop/GD32VW553/V1_MQTT_OK/GD32VW55X_Wifi_BLE_SDK/GD32VW55x_RELEASE_V1.0.2/MSDK/cloud/alicloud/src/protocol/alcs\alcs_adapter.c **** 
  95:C:/Users/stapi/OneDrive/Desktop/GD32VW553/V1_MQTT_OK/GD32VW55X_Wifi_BLE_SDK/GD32VW55x_RELEASE_V1.0.2/MSDK/cloud/alicloud/src/protocol/alcs\alcs_adapter.c **** static int _iotx_alcs_send_list_search_and_remove(iotx_alcs_adapter_t *adapter, CoAPMessage *messag
  96:C:/Users/stapi/OneDrive/Desktop/GD32VW553/V1_MQTT_OK/GD32VW55X_Wifi_BLE_SDK/GD32VW55x_RELEASE_V1.0.2/MSDK/cloud/alicloud/src/protocol/alcs\alcs_adapter.c ****         iotx_alcs_send_msg_t **send_msg)
  97:C:/Users/stapi/OneDrive/Desktop/GD32VW553/V1_MQTT_OK/GD32VW55X_Wifi_BLE_SDK/GD32VW55x_RELEASE_V1.0.2/MSDK/cloud/alicloud/src/protocol/alcs\alcs_adapter.c **** {
  98:C:/Users/stapi/OneDrive/Desktop/GD32VW553/V1_MQTT_OK/GD32VW55X_Wifi_BLE_SDK/GD32VW55x_RELEASE_V1.0.2/MSDK/cloud/alicloud/src/protocol/alcs\alcs_adapter.c ****     iotx_alcs_send_msg_t *node = NULL;
  99:C:/Users/stapi/OneDrive/Desktop/GD32VW553/V1_MQTT_OK/GD32VW55X_Wifi_BLE_SDK/GD32VW55x_RELEASE_V1.0.2/MSDK/cloud/alicloud/src/protocol/alcs\alcs_adapter.c ****     iotx_alcs_send_msg_t *next = NULL;
 100:C:/Users/stapi/OneDrive/Desktop/GD32VW553/V1_MQTT_OK/GD32VW55X_Wifi_BLE_SDK/GD32VW55x_RELEASE_V1.0.2/MSDK/cloud/alicloud/src/protocol/alcs\alcs_adapter.c **** 
 101:C:/Users/stapi/OneDrive/Desktop/GD32VW553/V1_MQTT_OK/GD32VW55X_Wifi_BLE_SDK/GD32VW55x_RELEASE_V1.0.2/MSDK/cloud/alicloud/src/protocol/alcs\alcs_adapter.c ****     list_for_each_entry_safe(node, next, &adapter->alcs_send_list, linked_list, iotx_alcs_send_msg_
 102:C:/Users/stapi/OneDrive/Desktop/GD32VW553/V1_MQTT_OK/GD32VW55X_Wifi_BLE_SDK/GD32VW55x_RELEASE_V1.0.2/MSDK/cloud/alicloud/src/protocol/alcs\alcs_adapter.c ****         if (message->header.tokenlen == node->token_len &&
 103:C:/Users/stapi/OneDrive/Desktop/GD32VW553/V1_MQTT_OK/GD32VW55X_Wifi_BLE_SDK/GD32VW55x_RELEASE_V1.0.2/MSDK/cloud/alicloud/src/protocol/alcs\alcs_adapter.c ****             memcmp(message->token, node->token, node->token_len) == 0) {
 104:C:/Users/stapi/OneDrive/Desktop/GD32VW553/V1_MQTT_OK/GD32VW55X_Wifi_BLE_SDK/GD32VW55x_RELEASE_V1.0.2/MSDK/cloud/alicloud/src/protocol/alcs\alcs_adapter.c ****             *send_msg = node;
 105:C:/Users/stapi/OneDrive/Desktop/GD32VW553/V1_MQTT_OK/GD32VW55X_Wifi_BLE_SDK/GD32VW55x_RELEASE_V1.0.2/MSDK/cloud/alicloud/src/protocol/alcs\alcs_adapter.c ****             list_del(&node->linked_list);
 106:C:/Users/stapi/OneDrive/Desktop/GD32VW553/V1_MQTT_OK/GD32VW55X_Wifi_BLE_SDK/GD32VW55x_RELEASE_V1.0.2/MSDK/cloud/alicloud/src/protocol/alcs\alcs_adapter.c ****             return SUCCESS_RETURN;
 107:C:/Users/stapi/OneDrive/Desktop/GD32VW553/V1_MQTT_OK/GD32VW55X_Wifi_BLE_SDK/GD32VW55x_RELEASE_V1.0.2/MSDK/cloud/alicloud/src/protocol/alcs\alcs_adapter.c ****         }
 108:C:/Users/stapi/OneDrive/Desktop/GD32VW553/V1_MQTT_OK/GD32VW55X_Wifi_BLE_SDK/GD32VW55x_RELEASE_V1.0.2/MSDK/cloud/alicloud/src/protocol/alcs\alcs_adapter.c ****     }
 109:C:/Users/stapi/OneDrive/Desktop/GD32VW553/V1_MQTT_OK/GD32VW55X_Wifi_BLE_SDK/GD32VW55x_RELEASE_V1.0.2/MSDK/cloud/alicloud/src/protocol/alcs\alcs_adapter.c **** 
 110:C:/Users/stapi/OneDrive/Desktop/GD32VW553/V1_MQTT_OK/GD32VW55X_Wifi_BLE_SDK/GD32VW55x_RELEASE_V1.0.2/MSDK/cloud/alicloud/src/protocol/alcs\alcs_adapter.c ****     return FAIL_RETURN;
 111:C:/Users/stapi/OneDrive/Desktop/GD32VW553/V1_MQTT_OK/GD32VW55X_Wifi_BLE_SDK/GD32VW55x_RELEASE_V1.0.2/MSDK/cloud/alicloud/src/protocol/alcs\alcs_adapter.c **** }
 112:C:/Users/stapi/OneDrive/Desktop/GD32VW553/V1_MQTT_OK/GD32VW55X_Wifi_BLE_SDK/GD32VW55x_RELEASE_V1.0.2/MSDK/cloud/alicloud/src/protocol/alcs\alcs_adapter.c **** 
 113:C:/Users/stapi/OneDrive/Desktop/GD32VW553/V1_MQTT_OK/GD32VW55X_Wifi_BLE_SDK/GD32VW55x_RELEASE_V1.0.2/MSDK/cloud/alicloud/src/protocol/alcs\alcs_adapter.c **** void iotx_alcs_coap_adapter_send_msg_handle(CoAPContext *context,
 114:C:/Users/stapi/OneDrive/Desktop/GD32VW553/V1_MQTT_OK/GD32VW55X_Wifi_BLE_SDK/GD32VW55x_RELEASE_V1.0.2/MSDK/cloud/alicloud/src/protocol/alcs\alcs_adapter.c ****         CoAPReqResult result,
 115:C:/Users/stapi/OneDrive/Desktop/GD32VW553/V1_MQTT_OK/GD32VW55X_Wifi_BLE_SDK/GD32VW55x_RELEASE_V1.0.2/MSDK/cloud/alicloud/src/protocol/alcs\alcs_adapter.c ****         void *userdata,
 116:C:/Users/stapi/OneDrive/Desktop/GD32VW553/V1_MQTT_OK/GD32VW55X_Wifi_BLE_SDK/GD32VW55x_RELEASE_V1.0.2/MSDK/cloud/alicloud/src/protocol/alcs\alcs_adapter.c ****         NetworkAddr *remote,
 117:C:/Users/stapi/OneDrive/Desktop/GD32VW553/V1_MQTT_OK/GD32VW55X_Wifi_BLE_SDK/GD32VW55x_RELEASE_V1.0.2/MSDK/cloud/alicloud/src/protocol/alcs\alcs_adapter.c ****         CoAPMessage *message)
 118:C:/Users/stapi/OneDrive/Desktop/GD32VW553/V1_MQTT_OK/GD32VW55X_Wifi_BLE_SDK/GD32VW55x_RELEASE_V1.0.2/MSDK/cloud/alicloud/src/protocol/alcs\alcs_adapter.c **** {
 119:C:/Users/stapi/OneDrive/Desktop/GD32VW553/V1_MQTT_OK/GD32VW55X_Wifi_BLE_SDK/GD32VW55x_RELEASE_V1.0.2/MSDK/cloud/alicloud/src/protocol/alcs\alcs_adapter.c ****     int res = 0;
 120:C:/Users/stapi/OneDrive/Desktop/GD32VW553/V1_MQTT_OK/GD32VW55X_Wifi_BLE_SDK/GD32VW55x_RELEASE_V1.0.2/MSDK/cloud/alicloud/src/protocol/alcs\alcs_adapter.c ****     iotx_alcs_adapter_t *adapter = (iotx_alcs_adapter_t *)userdata;
 121:C:/Users/stapi/OneDrive/Desktop/GD32VW553/V1_MQTT_OK/GD32VW55X_Wifi_BLE_SDK/GD32VW55x_RELEASE_V1.0.2/MSDK/cloud/alicloud/src/protocol/alcs\alcs_adapter.c ****     iotx_alcs_event_msg_t event;
 122:C:/Users/stapi/OneDrive/Desktop/GD32VW553/V1_MQTT_OK/GD32VW55X_Wifi_BLE_SDK/GD32VW55x_RELEASE_V1.0.2/MSDK/cloud/alicloud/src/protocol/alcs\alcs_adapter.c ****     memset(&event, 0, sizeof(iotx_alcs_event_msg_t));
 123:C:/Users/stapi/OneDrive/Desktop/GD32VW553/V1_MQTT_OK/GD32VW55X_Wifi_BLE_SDK/GD32VW55x_RELEASE_V1.0.2/MSDK/cloud/alicloud/src/protocol/alcs\alcs_adapter.c **** 
 124:C:/Users/stapi/OneDrive/Desktop/GD32VW553/V1_MQTT_OK/GD32VW55X_Wifi_BLE_SDK/GD32VW55x_RELEASE_V1.0.2/MSDK/cloud/alicloud/src/protocol/alcs\alcs_adapter.c ****     switch (result) {
 125:C:/Users/stapi/OneDrive/Desktop/GD32VW553/V1_MQTT_OK/GD32VW55X_Wifi_BLE_SDK/GD32VW55x_RELEASE_V1.0.2/MSDK/cloud/alicloud/src/protocol/alcs\alcs_adapter.c ****         case COAP_REQUEST_SUCCESS: {
 126:C:/Users/stapi/OneDrive/Desktop/GD32VW553/V1_MQTT_OK/GD32VW55X_Wifi_BLE_SDK/GD32VW55x_RELEASE_V1.0.2/MSDK/cloud/alicloud/src/protocol/alcs\alcs_adapter.c ****             iotx_alcs_transfer_msg_t transfer_msg;
 127:C:/Users/stapi/OneDrive/Desktop/GD32VW553/V1_MQTT_OK/GD32VW55X_Wifi_BLE_SDK/GD32VW55x_RELEASE_V1.0.2/MSDK/cloud/alicloud/src/protocol/alcs\alcs_adapter.c ****             iotx_alcs_send_msg_t *send_msg = NULL;
 128:C:/Users/stapi/OneDrive/Desktop/GD32VW553/V1_MQTT_OK/GD32VW55X_Wifi_BLE_SDK/GD32VW55x_RELEASE_V1.0.2/MSDK/cloud/alicloud/src/protocol/alcs\alcs_adapter.c **** 
 129:C:/Users/stapi/OneDrive/Desktop/GD32VW553/V1_MQTT_OK/GD32VW55X_Wifi_BLE_SDK/GD32VW55x_RELEASE_V1.0.2/MSDK/cloud/alicloud/src/protocol/alcs\alcs_adapter.c ****             memset(&transfer_msg, 0, sizeof(iotx_alcs_transfer_msg_t));
 130:C:/Users/stapi/OneDrive/Desktop/GD32VW553/V1_MQTT_OK/GD32VW55X_Wifi_BLE_SDK/GD32VW55x_RELEASE_V1.0.2/MSDK/cloud/alicloud/src/protocol/alcs\alcs_adapter.c **** 
 131:C:/Users/stapi/OneDrive/Desktop/GD32VW553/V1_MQTT_OK/GD32VW55X_Wifi_BLE_SDK/GD32VW55x_RELEASE_V1.0.2/MSDK/cloud/alicloud/src/protocol/alcs\alcs_adapter.c ****             transfer_msg.ip = (char *)remote->addr;
 132:C:/Users/stapi/OneDrive/Desktop/GD32VW553/V1_MQTT_OK/GD32VW55X_Wifi_BLE_SDK/GD32VW55x_RELEASE_V1.0.2/MSDK/cloud/alicloud/src/protocol/alcs\alcs_adapter.c ****             transfer_msg.port = remote->port;
 133:C:/Users/stapi/OneDrive/Desktop/GD32VW553/V1_MQTT_OK/GD32VW55X_Wifi_BLE_SDK/GD32VW55x_RELEASE_V1.0.2/MSDK/cloud/alicloud/src/protocol/alcs\alcs_adapter.c ****             HAL_MutexLock(adapter->mutex);
 134:C:/Users/stapi/OneDrive/Desktop/GD32VW553/V1_MQTT_OK/GD32VW55X_Wifi_BLE_SDK/GD32VW55x_RELEASE_V1.0.2/MSDK/cloud/alicloud/src/protocol/alcs\alcs_adapter.c ****             res = _iotx_alcs_send_list_search_and_remove(adapter, message, &send_msg);
 135:C:/Users/stapi/OneDrive/Desktop/GD32VW553/V1_MQTT_OK/GD32VW55X_Wifi_BLE_SDK/GD32VW55x_RELEASE_V1.0.2/MSDK/cloud/alicloud/src/protocol/alcs\alcs_adapter.c ****             HAL_MutexUnlock(adapter->mutex);
 136:C:/Users/stapi/OneDrive/Desktop/GD32VW553/V1_MQTT_OK/GD32VW55X_Wifi_BLE_SDK/GD32VW55x_RELEASE_V1.0.2/MSDK/cloud/alicloud/src/protocol/alcs\alcs_adapter.c **** 
 137:C:/Users/stapi/OneDrive/Desktop/GD32VW553/V1_MQTT_OK/GD32VW55X_Wifi_BLE_SDK/GD32VW55x_RELEASE_V1.0.2/MSDK/cloud/alicloud/src/protocol/alcs\alcs_adapter.c ****             if (res < SUCCESS_RETURN) {
 138:C:/Users/stapi/OneDrive/Desktop/GD32VW553/V1_MQTT_OK/GD32VW55X_Wifi_BLE_SDK/GD32VW55x_RELEASE_V1.0.2/MSDK/cloud/alicloud/src/protocol/alcs\alcs_adapter.c ****                 return;
 139:C:/Users/stapi/OneDrive/Desktop/GD32VW553/V1_MQTT_OK/GD32VW55X_Wifi_BLE_SDK/GD32VW55x_RELEASE_V1.0.2/MSDK/cloud/alicloud/src/protocol/alcs\alcs_adapter.c ****             }
 140:C:/Users/stapi/OneDrive/Desktop/GD32VW553/V1_MQTT_OK/GD32VW55X_Wifi_BLE_SDK/GD32VW55x_RELEASE_V1.0.2/MSDK/cloud/alicloud/src/protocol/alcs\alcs_adapter.c **** 
 141:C:/Users/stapi/OneDrive/Desktop/GD32VW553/V1_MQTT_OK/GD32VW55X_Wifi_BLE_SDK/GD32VW55x_RELEASE_V1.0.2/MSDK/cloud/alicloud/src/protocol/alcs\alcs_adapter.c ****             transfer_msg.uri = send_msg->uri;
 142:C:/Users/stapi/OneDrive/Desktop/GD32VW553/V1_MQTT_OK/GD32VW55X_Wifi_BLE_SDK/GD32VW55x_RELEASE_V1.0.2/MSDK/cloud/alicloud/src/protocol/alcs\alcs_adapter.c ****             transfer_msg.token_len = send_msg->token_len;
 143:C:/Users/stapi/OneDrive/Desktop/GD32VW553/V1_MQTT_OK/GD32VW55X_Wifi_BLE_SDK/GD32VW55x_RELEASE_V1.0.2/MSDK/cloud/alicloud/src/protocol/alcs\alcs_adapter.c ****             transfer_msg.token = send_msg->token;
 144:C:/Users/stapi/OneDrive/Desktop/GD32VW553/V1_MQTT_OK/GD32VW55X_Wifi_BLE_SDK/GD32VW55x_RELEASE_V1.0.2/MSDK/cloud/alicloud/src/protocol/alcs\alcs_adapter.c ****             transfer_msg.payload_len = message->payloadlen;
 145:C:/Users/stapi/OneDrive/Desktop/GD32VW553/V1_MQTT_OK/GD32VW55X_Wifi_BLE_SDK/GD32VW55x_RELEASE_V1.0.2/MSDK/cloud/alicloud/src/protocol/alcs\alcs_adapter.c ****             transfer_msg.payload = message->payload;
 146:C:/Users/stapi/OneDrive/Desktop/GD32VW553/V1_MQTT_OK/GD32VW55X_Wifi_BLE_SDK/GD32VW55x_RELEASE_V1.0.2/MSDK/cloud/alicloud/src/protocol/alcs\alcs_adapter.c **** 
 147:C:/Users/stapi/OneDrive/Desktop/GD32VW553/V1_MQTT_OK/GD32VW55X_Wifi_BLE_SDK/GD32VW55x_RELEASE_V1.0.2/MSDK/cloud/alicloud/src/protocol/alcs\alcs_adapter.c ****             event.event_type = IOTX_ALCS_EVENT_MSG_SEND_MESSAGE_SUCCESS;
 148:C:/Users/stapi/OneDrive/Desktop/GD32VW553/V1_MQTT_OK/GD32VW55X_Wifi_BLE_SDK/GD32VW55x_RELEASE_V1.0.2/MSDK/cloud/alicloud/src/protocol/alcs\alcs_adapter.c ****             event.msg = &transfer_msg;
 149:C:/Users/stapi/OneDrive/Desktop/GD32VW553/V1_MQTT_OK/GD32VW55X_Wifi_BLE_SDK/GD32VW55x_RELEASE_V1.0.2/MSDK/cloud/alicloud/src/protocol/alcs\alcs_adapter.c **** 
 150:C:/Users/stapi/OneDrive/Desktop/GD32VW553/V1_MQTT_OK/GD32VW55X_Wifi_BLE_SDK/GD32VW55x_RELEASE_V1.0.2/MSDK/cloud/alicloud/src/protocol/alcs\alcs_adapter.c ****             adapter->alcs_event_handle->h_fp(adapter->alcs_event_handle->pcontext, (void *)adapter,
 151:C:/Users/stapi/OneDrive/Desktop/GD32VW553/V1_MQTT_OK/GD32VW55X_Wifi_BLE_SDK/GD32VW55x_RELEASE_V1.0.2/MSDK/cloud/alicloud/src/protocol/alcs\alcs_adapter.c **** 
 152:C:/Users/stapi/OneDrive/Desktop/GD32VW553/V1_MQTT_OK/GD32VW55X_Wifi_BLE_SDK/GD32VW55x_RELEASE_V1.0.2/MSDK/cloud/alicloud/src/protocol/alcs\alcs_adapter.c ****             LITE_free(send_msg->token);
 153:C:/Users/stapi/OneDrive/Desktop/GD32VW553/V1_MQTT_OK/GD32VW55X_Wifi_BLE_SDK/GD32VW55x_RELEASE_V1.0.2/MSDK/cloud/alicloud/src/protocol/alcs\alcs_adapter.c ****             LITE_free(send_msg->uri);
 154:C:/Users/stapi/OneDrive/Desktop/GD32VW553/V1_MQTT_OK/GD32VW55X_Wifi_BLE_SDK/GD32VW55x_RELEASE_V1.0.2/MSDK/cloud/alicloud/src/protocol/alcs\alcs_adapter.c ****             LITE_free(send_msg);
 155:C:/Users/stapi/OneDrive/Desktop/GD32VW553/V1_MQTT_OK/GD32VW55X_Wifi_BLE_SDK/GD32VW55x_RELEASE_V1.0.2/MSDK/cloud/alicloud/src/protocol/alcs\alcs_adapter.c ****         }
 156:C:/Users/stapi/OneDrive/Desktop/GD32VW553/V1_MQTT_OK/GD32VW55X_Wifi_BLE_SDK/GD32VW55x_RELEASE_V1.0.2/MSDK/cloud/alicloud/src/protocol/alcs\alcs_adapter.c ****         break;
 157:C:/Users/stapi/OneDrive/Desktop/GD32VW553/V1_MQTT_OK/GD32VW55X_Wifi_BLE_SDK/GD32VW55x_RELEASE_V1.0.2/MSDK/cloud/alicloud/src/protocol/alcs\alcs_adapter.c ****         case COAP_RECV_RESP_TIMEOUT: {
 158:C:/Users/stapi/OneDrive/Desktop/GD32VW553/V1_MQTT_OK/GD32VW55X_Wifi_BLE_SDK/GD32VW55x_RELEASE_V1.0.2/MSDK/cloud/alicloud/src/protocol/alcs\alcs_adapter.c ****             iotx_alcs_transfer_msg_t transfer_msg;
 159:C:/Users/stapi/OneDrive/Desktop/GD32VW553/V1_MQTT_OK/GD32VW55X_Wifi_BLE_SDK/GD32VW55x_RELEASE_V1.0.2/MSDK/cloud/alicloud/src/protocol/alcs\alcs_adapter.c ****             iotx_alcs_send_msg_t *send_msg = NULL;
 160:C:/Users/stapi/OneDrive/Desktop/GD32VW553/V1_MQTT_OK/GD32VW55X_Wifi_BLE_SDK/GD32VW55x_RELEASE_V1.0.2/MSDK/cloud/alicloud/src/protocol/alcs\alcs_adapter.c **** 
 161:C:/Users/stapi/OneDrive/Desktop/GD32VW553/V1_MQTT_OK/GD32VW55X_Wifi_BLE_SDK/GD32VW55x_RELEASE_V1.0.2/MSDK/cloud/alicloud/src/protocol/alcs\alcs_adapter.c ****             memset(&transfer_msg, 0, sizeof(iotx_alcs_transfer_msg_t));
 162:C:/Users/stapi/OneDrive/Desktop/GD32VW553/V1_MQTT_OK/GD32VW55X_Wifi_BLE_SDK/GD32VW55x_RELEASE_V1.0.2/MSDK/cloud/alicloud/src/protocol/alcs\alcs_adapter.c **** 
 163:C:/Users/stapi/OneDrive/Desktop/GD32VW553/V1_MQTT_OK/GD32VW55X_Wifi_BLE_SDK/GD32VW55x_RELEASE_V1.0.2/MSDK/cloud/alicloud/src/protocol/alcs\alcs_adapter.c ****             transfer_msg.ip = (char *)remote->addr;
 164:C:/Users/stapi/OneDrive/Desktop/GD32VW553/V1_MQTT_OK/GD32VW55X_Wifi_BLE_SDK/GD32VW55x_RELEASE_V1.0.2/MSDK/cloud/alicloud/src/protocol/alcs\alcs_adapter.c ****             transfer_msg.port = remote->port;
 165:C:/Users/stapi/OneDrive/Desktop/GD32VW553/V1_MQTT_OK/GD32VW55X_Wifi_BLE_SDK/GD32VW55x_RELEASE_V1.0.2/MSDK/cloud/alicloud/src/protocol/alcs\alcs_adapter.c ****             HAL_MutexLock(adapter->mutex);
 166:C:/Users/stapi/OneDrive/Desktop/GD32VW553/V1_MQTT_OK/GD32VW55X_Wifi_BLE_SDK/GD32VW55x_RELEASE_V1.0.2/MSDK/cloud/alicloud/src/protocol/alcs\alcs_adapter.c ****             res = _iotx_alcs_send_list_search_and_remove(adapter, message, &send_msg);
 167:C:/Users/stapi/OneDrive/Desktop/GD32VW553/V1_MQTT_OK/GD32VW55X_Wifi_BLE_SDK/GD32VW55x_RELEASE_V1.0.2/MSDK/cloud/alicloud/src/protocol/alcs\alcs_adapter.c ****             HAL_MutexUnlock(adapter->mutex);
 168:C:/Users/stapi/OneDrive/Desktop/GD32VW553/V1_MQTT_OK/GD32VW55X_Wifi_BLE_SDK/GD32VW55x_RELEASE_V1.0.2/MSDK/cloud/alicloud/src/protocol/alcs\alcs_adapter.c **** 
 169:C:/Users/stapi/OneDrive/Desktop/GD32VW553/V1_MQTT_OK/GD32VW55X_Wifi_BLE_SDK/GD32VW55x_RELEASE_V1.0.2/MSDK/cloud/alicloud/src/protocol/alcs\alcs_adapter.c ****             if (res < SUCCESS_RETURN) {
 170:C:/Users/stapi/OneDrive/Desktop/GD32VW553/V1_MQTT_OK/GD32VW55X_Wifi_BLE_SDK/GD32VW55x_RELEASE_V1.0.2/MSDK/cloud/alicloud/src/protocol/alcs\alcs_adapter.c ****                 return;
 171:C:/Users/stapi/OneDrive/Desktop/GD32VW553/V1_MQTT_OK/GD32VW55X_Wifi_BLE_SDK/GD32VW55x_RELEASE_V1.0.2/MSDK/cloud/alicloud/src/protocol/alcs\alcs_adapter.c ****             }
 172:C:/Users/stapi/OneDrive/Desktop/GD32VW553/V1_MQTT_OK/GD32VW55X_Wifi_BLE_SDK/GD32VW55x_RELEASE_V1.0.2/MSDK/cloud/alicloud/src/protocol/alcs\alcs_adapter.c **** 
 173:C:/Users/stapi/OneDrive/Desktop/GD32VW553/V1_MQTT_OK/GD32VW55X_Wifi_BLE_SDK/GD32VW55x_RELEASE_V1.0.2/MSDK/cloud/alicloud/src/protocol/alcs\alcs_adapter.c ****             transfer_msg.uri = send_msg->uri;
 174:C:/Users/stapi/OneDrive/Desktop/GD32VW553/V1_MQTT_OK/GD32VW55X_Wifi_BLE_SDK/GD32VW55x_RELEASE_V1.0.2/MSDK/cloud/alicloud/src/protocol/alcs\alcs_adapter.c ****             transfer_msg.token_len = send_msg->token_len;
 175:C:/Users/stapi/OneDrive/Desktop/GD32VW553/V1_MQTT_OK/GD32VW55X_Wifi_BLE_SDK/GD32VW55x_RELEASE_V1.0.2/MSDK/cloud/alicloud/src/protocol/alcs\alcs_adapter.c ****             transfer_msg.token = send_msg->token;
 176:C:/Users/stapi/OneDrive/Desktop/GD32VW553/V1_MQTT_OK/GD32VW55X_Wifi_BLE_SDK/GD32VW55x_RELEASE_V1.0.2/MSDK/cloud/alicloud/src/protocol/alcs\alcs_adapter.c ****             transfer_msg.payload_len = 0;
 177:C:/Users/stapi/OneDrive/Desktop/GD32VW553/V1_MQTT_OK/GD32VW55X_Wifi_BLE_SDK/GD32VW55x_RELEASE_V1.0.2/MSDK/cloud/alicloud/src/protocol/alcs\alcs_adapter.c ****             transfer_msg.payload = NULL;
 178:C:/Users/stapi/OneDrive/Desktop/GD32VW553/V1_MQTT_OK/GD32VW55X_Wifi_BLE_SDK/GD32VW55x_RELEASE_V1.0.2/MSDK/cloud/alicloud/src/protocol/alcs\alcs_adapter.c **** 
 179:C:/Users/stapi/OneDrive/Desktop/GD32VW553/V1_MQTT_OK/GD32VW55X_Wifi_BLE_SDK/GD32VW55x_RELEASE_V1.0.2/MSDK/cloud/alicloud/src/protocol/alcs\alcs_adapter.c ****             event.event_type = IOTX_ALCS_EVENT_MSG_SEND_MESSAGE_RESP_TIMEOUT;
 180:C:/Users/stapi/OneDrive/Desktop/GD32VW553/V1_MQTT_OK/GD32VW55X_Wifi_BLE_SDK/GD32VW55x_RELEASE_V1.0.2/MSDK/cloud/alicloud/src/protocol/alcs\alcs_adapter.c ****             event.msg = &transfer_msg;
 181:C:/Users/stapi/OneDrive/Desktop/GD32VW553/V1_MQTT_OK/GD32VW55X_Wifi_BLE_SDK/GD32VW55x_RELEASE_V1.0.2/MSDK/cloud/alicloud/src/protocol/alcs\alcs_adapter.c **** 
 182:C:/Users/stapi/OneDrive/Desktop/GD32VW553/V1_MQTT_OK/GD32VW55X_Wifi_BLE_SDK/GD32VW55x_RELEASE_V1.0.2/MSDK/cloud/alicloud/src/protocol/alcs\alcs_adapter.c ****             adapter->alcs_event_handle->h_fp(adapter->alcs_event_handle->pcontext, (void *)adapter,
 183:C:/Users/stapi/OneDrive/Desktop/GD32VW553/V1_MQTT_OK/GD32VW55X_Wifi_BLE_SDK/GD32VW55x_RELEASE_V1.0.2/MSDK/cloud/alicloud/src/protocol/alcs\alcs_adapter.c **** 
 184:C:/Users/stapi/OneDrive/Desktop/GD32VW553/V1_MQTT_OK/GD32VW55X_Wifi_BLE_SDK/GD32VW55x_RELEASE_V1.0.2/MSDK/cloud/alicloud/src/protocol/alcs\alcs_adapter.c ****             LITE_free(send_msg->token);
 185:C:/Users/stapi/OneDrive/Desktop/GD32VW553/V1_MQTT_OK/GD32VW55X_Wifi_BLE_SDK/GD32VW55x_RELEASE_V1.0.2/MSDK/cloud/alicloud/src/protocol/alcs\alcs_adapter.c ****             LITE_free(send_msg->uri);
 186:C:/Users/stapi/OneDrive/Desktop/GD32VW553/V1_MQTT_OK/GD32VW55X_Wifi_BLE_SDK/GD32VW55x_RELEASE_V1.0.2/MSDK/cloud/alicloud/src/protocol/alcs\alcs_adapter.c ****             LITE_free(send_msg);
 187:C:/Users/stapi/OneDrive/Desktop/GD32VW553/V1_MQTT_OK/GD32VW55X_Wifi_BLE_SDK/GD32VW55x_RELEASE_V1.0.2/MSDK/cloud/alicloud/src/protocol/alcs\alcs_adapter.c ****         }
 188:C:/Users/stapi/OneDrive/Desktop/GD32VW553/V1_MQTT_OK/GD32VW55X_Wifi_BLE_SDK/GD32VW55x_RELEASE_V1.0.2/MSDK/cloud/alicloud/src/protocol/alcs\alcs_adapter.c ****         break;
 189:C:/Users/stapi/OneDrive/Desktop/GD32VW553/V1_MQTT_OK/GD32VW55X_Wifi_BLE_SDK/GD32VW55x_RELEASE_V1.0.2/MSDK/cloud/alicloud/src/protocol/alcs\alcs_adapter.c ****         default:
 190:C:/Users/stapi/OneDrive/Desktop/GD32VW553/V1_MQTT_OK/GD32VW55X_Wifi_BLE_SDK/GD32VW55x_RELEASE_V1.0.2/MSDK/cloud/alicloud/src/protocol/alcs\alcs_adapter.c ****             COAP_WRN("Unknown Coap Request Result: %d", result);
 191:C:/Users/stapi/OneDrive/Desktop/GD32VW553/V1_MQTT_OK/GD32VW55X_Wifi_BLE_SDK/GD32VW55x_RELEASE_V1.0.2/MSDK/cloud/alicloud/src/protocol/alcs\alcs_adapter.c ****             break;
 192:C:/Users/stapi/OneDrive/Desktop/GD32VW553/V1_MQTT_OK/GD32VW55X_Wifi_BLE_SDK/GD32VW55x_RELEASE_V1.0.2/MSDK/cloud/alicloud/src/protocol/alcs\alcs_adapter.c ****     }
 193:C:/Users/stapi/OneDrive/Desktop/GD32VW553/V1_MQTT_OK/GD32VW55X_Wifi_BLE_SDK/GD32VW55x_RELEASE_V1.0.2/MSDK/cloud/alicloud/src/protocol/alcs\alcs_adapter.c **** }
 194:C:/Users/stapi/OneDrive/Desktop/GD32VW553/V1_MQTT_OK/GD32VW55X_Wifi_BLE_SDK/GD32VW55x_RELEASE_V1.0.2/MSDK/cloud/alicloud/src/protocol/alcs\alcs_adapter.c **** 
 195:C:/Users/stapi/OneDrive/Desktop/GD32VW553/V1_MQTT_OK/GD32VW55X_Wifi_BLE_SDK/GD32VW55x_RELEASE_V1.0.2/MSDK/cloud/alicloud/src/protocol/alcs\alcs_adapter.c **** void iotx_alcs_coap_adapter_event_notifier(unsigned int event, NetworkAddr *remote, void *message)
 196:C:/Users/stapi/OneDrive/Desktop/GD32VW553/V1_MQTT_OK/GD32VW55X_Wifi_BLE_SDK/GD32VW55x_RELEASE_V1.0.2/MSDK/cloud/alicloud/src/protocol/alcs\alcs_adapter.c **** {
  26              		.loc 1 196 1
  27              		.cfi_startproc
  28              	.LVL0:
  29 0000 17030000 		call	t0,__riscv_save_1
  29      E7020300 
  30              		.cfi_offset 8, -8
  31              		.cfi_offset 1, -4
  32              		.cfi_def_cfa_offset 16
 197:C:/Users/stapi/OneDrive/Desktop/GD32VW553/V1_MQTT_OK/GD32VW55X_Wifi_BLE_SDK/GD32VW55x_RELEASE_V1.0.2/MSDK/cloud/alicloud/src/protocol/alcs\alcs_adapter.c ****     COAP_INFO("ALCS Coap Event: %d, Remote Device Address: %s, Remote Device Port: %d",
  33              		.loc 1 197 5
  34              		.loc 1 197 5
 196:C:/Users/stapi/OneDrive/Desktop/GD32VW553/V1_MQTT_OK/GD32VW55X_Wifi_BLE_SDK/GD32VW55x_RELEASE_V1.0.2/MSDK/cloud/alicloud/src/protocol/alcs\alcs_adapter.c ****     COAP_INFO("ALCS Coap Event: %d, Remote Device Address: %s, Remote Device Port: %d",
  35              		.loc 1 196 1 is_stmt 0
  36 0008 2A84     		mv	s0,a0
  37              		.loc 1 197 5
  38 000a 37050000 		lui	a0,%hi(.LC0)
  39              	.LVL1:
 196:C:/Users/stapi/OneDrive/Desktop/GD32VW553/V1_MQTT_OK/GD32VW55X_Wifi_BLE_SDK/GD32VW55x_RELEASE_V1.0.2/MSDK/cloud/alicloud/src/protocol/alcs\alcs_adapter.c ****     COAP_INFO("ALCS Coap Event: %d, Remote Device Address: %s, Remote Device Port: %d",
  40              		.loc 1 196 1
  41 000e 4111     		addi	sp,sp,-16
  42              		.cfi_def_cfa_offset 32
  43              		.loc 1 197 5
  44 0010 13050500 		addi	a0,a0,%lo(.LC0)
 196:C:/Users/stapi/OneDrive/Desktop/GD32VW553/V1_MQTT_OK/GD32VW55X_Wifi_BLE_SDK/GD32VW55x_RELEASE_V1.0.2/MSDK/cloud/alicloud/src/protocol/alcs\alcs_adapter.c ****     COAP_INFO("ALCS Coap Event: %d, Remote Device Address: %s, Remote Device Port: %d",
  45              		.loc 1 196 1
  46 0014 2EC6     		sw	a1,12(sp)
  47              		.loc 1 197 5
  48 0016 97000000 		call	HAL_Printf
  48      E7800000 
  49              	.LVL2:
  50              		.loc 1 197 5 is_stmt 1
  51 001e 3246     		lw	a2,12(sp)
  52 0020 37050000 		lui	a0,%hi(.LC1)
  53 0024 A285     		mv	a1,s0
  54 0026 83560601 		lhu	a3,16(a2)
  55 002a 13050500 		addi	a0,a0,%lo(.LC1)
  56 002e 97000000 		call	HAL_Printf
  56      E7800000 
  57              	.LVL3:
  58              		.loc 1 197 5
  59 0036 37050000 		lui	a0,%hi(.LC2)
  60 003a 13050500 		addi	a0,a0,%lo(.LC2)
  61 003e 97000000 		call	HAL_Printf
  61      E7800000 
  62              	.LVL4:
  63              		.loc 1 197 5
 198:C:/Users/stapi/OneDrive/Desktop/GD32VW553/V1_MQTT_OK/GD32VW55X_Wifi_BLE_SDK/GD32VW55x_RELEASE_V1.0.2/MSDK/cloud/alicloud/src/protocol/alcs\alcs_adapter.c ****               event, remote->addr, remote->port);
 199:C:/Users/stapi/OneDrive/Desktop/GD32VW553/V1_MQTT_OK/GD32VW55X_Wifi_BLE_SDK/GD32VW55x_RELEASE_V1.0.2/MSDK/cloud/alicloud/src/protocol/alcs\alcs_adapter.c **** }
  64              		.loc 1 199 1 is_stmt 0
  65 0046 4101     		addi	sp,sp,16
  66              		.cfi_def_cfa_offset 0
  67              	.LVL5:
  68 0048 17030000 		tail	__riscv_restore_1
  68      67000300 
  69              		.cfi_restore 8
  70              		.cfi_restore 1
  71              		.cfi_def_cfa_offset -16
  72              		.cfi_endproc
  73              	.LFE26:
  75              		.section	.text._iotx_alcs_send_list_search_and_remove,"ax",@progbits
  76              		.align	1
  78              	_iotx_alcs_send_list_search_and_remove:
  79              	.LFB24:
  97:C:/Users/stapi/OneDrive/Desktop/GD32VW553/V1_MQTT_OK/GD32VW55X_Wifi_BLE_SDK/GD32VW55x_RELEASE_V1.0.2/MSDK/cloud/alicloud/src/protocol/alcs\alcs_adapter.c ****     iotx_alcs_send_msg_t *node = NULL;
  80              		.loc 1 97 1 is_stmt 1
  81              		.cfi_startproc
  82              	.LVL6:
  83 0000 17030000 		call	t0,__riscv_save_6
  83      E7020300 
  84              		.cfi_offset 21, -28
  85              		.cfi_offset 20, -24
  86              		.cfi_offset 19, -20
  87              		.cfi_offset 18, -16
  88              		.cfi_offset 9, -12
  89              		.cfi_offset 8, -8
  90              		.cfi_offset 1, -4
  91              		.cfi_def_cfa_offset 32
  98:C:/Users/stapi/OneDrive/Desktop/GD32VW553/V1_MQTT_OK/GD32VW55X_Wifi_BLE_SDK/GD32VW55x_RELEASE_V1.0.2/MSDK/cloud/alicloud/src/protocol/alcs\alcs_adapter.c ****     iotx_alcs_send_msg_t *next = NULL;
  92              		.loc 1 98 5
  93              	.LVL7:
  99:C:/Users/stapi/OneDrive/Desktop/GD32VW553/V1_MQTT_OK/GD32VW55X_Wifi_BLE_SDK/GD32VW55x_RELEASE_V1.0.2/MSDK/cloud/alicloud/src/protocol/alcs\alcs_adapter.c **** 
  94              		.loc 1 99 5
 101:C:/Users/stapi/OneDrive/Desktop/GD32VW553/V1_MQTT_OK/GD32VW55X_Wifi_BLE_SDK/GD32VW55x_RELEASE_V1.0.2/MSDK/cloud/alicloud/src/protocol/alcs\alcs_adapter.c ****         if (message->header.tokenlen == node->token_len &&
  95              		.loc 1 101 5
  96 0008 1C51     		lw	a5,32(a0)
  97:C:/Users/stapi/OneDrive/Desktop/GD32VW553/V1_MQTT_OK/GD32VW55X_Wifi_BLE_SDK/GD32VW55x_RELEASE_V1.0.2/MSDK/cloud/alicloud/src/protocol/alcs\alcs_adapter.c ****     iotx_alcs_send_msg_t *node = NULL;
  97              		.loc 1 97 1 is_stmt 0
  98 000a AE89     		mv	s3,a1
  99 000c 328A     		mv	s4,a2
 101:C:/Users/stapi/OneDrive/Desktop/GD32VW553/V1_MQTT_OK/GD32VW55X_Wifi_BLE_SDK/GD32VW55x_RELEASE_V1.0.2/MSDK/cloud/alicloud/src/protocol/alcs\alcs_adapter.c ****         if (message->header.tokenlen == node->token_len &&
 100              		.loc 1 101 5
 101 000e 03A94700 		lw	s2,4(a5)
 102 0012 138447FF 		addi	s0,a5,-12
 103              	.LVL8:
 104 0016 9304C501 		addi	s1,a0,28
 105 001a 5119     		addi	s2,s2,-12
 106              	.LVL9:
 103:C:/Users/stapi/OneDrive/Desktop/GD32VW553/V1_MQTT_OK/GD32VW55X_Wifi_BLE_SDK/GD32VW55x_RELEASE_V1.0.2/MSDK/cloud/alicloud/src/protocol/alcs\alcs_adapter.c ****             *send_msg = node;
 107              		.loc 1 103 13
 108 001c 938A4500 		addi	s5,a1,4
 109              	.LVL10:
 110              	.L4:
 101:C:/Users/stapi/OneDrive/Desktop/GD32VW553/V1_MQTT_OK/GD32VW55X_Wifi_BLE_SDK/GD32VW55x_RELEASE_V1.0.2/MSDK/cloud/alicloud/src/protocol/alcs\alcs_adapter.c ****         if (message->header.tokenlen == node->token_len &&
 111              		.loc 1 101 5 is_stmt 1 discriminator 1
 112 0020 9307C400 		addi	a5,s0,12
 113 0024 63949700 		bne	a5,s1,.L7
 110:C:/Users/stapi/OneDrive/Desktop/GD32VW553/V1_MQTT_OK/GD32VW55X_Wifi_BLE_SDK/GD32VW55x_RELEASE_V1.0.2/MSDK/cloud/alicloud/src/protocol/alcs\alcs_adapter.c **** }
 114              		.loc 1 110 12 is_stmt 0
 115 0028 7D55     		li	a0,-1
 116 002a 3DA0     		j	.L3
 117              	.L7:
 102:C:/Users/stapi/OneDrive/Desktop/GD32VW553/V1_MQTT_OK/GD32VW55X_Wifi_BLE_SDK/GD32VW55x_RELEASE_V1.0.2/MSDK/cloud/alicloud/src/protocol/alcs\alcs_adapter.c ****             memcmp(message->token, node->token, node->token_len) == 0) {
 118              		.loc 1 102 9 is_stmt 1
 102:C:/Users/stapi/OneDrive/Desktop/GD32VW553/V1_MQTT_OK/GD32VW55X_Wifi_BLE_SDK/GD32VW55x_RELEASE_V1.0.2/MSDK/cloud/alicloud/src/protocol/alcs\alcs_adapter.c ****             memcmp(message->token, node->token, node->token_len) == 0) {
 119              		.loc 1 102 28 is_stmt 0
 120 002c 83A70900 		lw	a5,0(s3)
 102:C:/Users/stapi/OneDrive/Desktop/GD32VW553/V1_MQTT_OK/GD32VW55X_Wifi_BLE_SDK/GD32VW55x_RELEASE_V1.0.2/MSDK/cloud/alicloud/src/protocol/alcs\alcs_adapter.c ****             memcmp(message->token, node->token, node->token_len) == 0) {
 121              		.loc 1 102 45
 122 0030 03470400 		lbu	a4,0(s0)
 102:C:/Users/stapi/OneDrive/Desktop/GD32VW553/V1_MQTT_OK/GD32VW55X_Wifi_BLE_SDK/GD32VW55x_RELEASE_V1.0.2/MSDK/cloud/alicloud/src/protocol/alcs\alcs_adapter.c ****             memcmp(message->token, node->token, node->token_len) == 0) {
 123              		.loc 1 102 28
 124 0034 9183     		srli	a5,a5,4
 125 0036 13F6F700 		andi	a2,a5,15
 102:C:/Users/stapi/OneDrive/Desktop/GD32VW553/V1_MQTT_OK/GD32VW55X_Wifi_BLE_SDK/GD32VW55x_RELEASE_V1.0.2/MSDK/cloud/alicloud/src/protocol/alcs\alcs_adapter.c ****             memcmp(message->token, node->token, node->token_len) == 0) {
 126              		.loc 1 102 12
 127 003a 6313E602 		bne	a2,a4,.L5
 103:C:/Users/stapi/OneDrive/Desktop/GD32VW553/V1_MQTT_OK/GD32VW55X_Wifi_BLE_SDK/GD32VW55x_RELEASE_V1.0.2/MSDK/cloud/alicloud/src/protocol/alcs\alcs_adapter.c ****             *send_msg = node;
 128              		.loc 1 103 13 discriminator 1
 129 003e 4C40     		lw	a1,4(s0)
 130 0040 5685     		mv	a0,s5
 131 0042 97000000 		call	memcmp
 131      E7800000 
 132              	.LVL11:
 102:C:/Users/stapi/OneDrive/Desktop/GD32VW553/V1_MQTT_OK/GD32VW55X_Wifi_BLE_SDK/GD32VW55x_RELEASE_V1.0.2/MSDK/cloud/alicloud/src/protocol/alcs\alcs_adapter.c ****             memcmp(message->token, node->token, node->token_len) == 0) {
 133              		.loc 1 102 57 discriminator 1
 134 004a 19E9     		bne	a0,zero,.L5
 104:C:/Users/stapi/OneDrive/Desktop/GD32VW553/V1_MQTT_OK/GD32VW55X_Wifi_BLE_SDK/GD32VW55x_RELEASE_V1.0.2/MSDK/cloud/alicloud/src/protocol/alcs\alcs_adapter.c ****             list_del(&node->linked_list);
 135              		.loc 1 104 13 is_stmt 1
 136              	.LBB16:
 137              	.LBB17:
 138              		.file 2 "..\\..\\..\\..\\cloud\\alicloud\\src\\infra\\utils\\misc/lite-list.h"
   1:..\..\..\..\cloud\alicloud\src\infra\utils\misc/lite-list.h **** /*
   2:..\..\..\..\cloud\alicloud\src\infra\utils\misc/lite-list.h ****  * Copyright (C) 2015-2018 Alibaba Group Holding Limited
   3:..\..\..\..\cloud\alicloud\src\infra\utils\misc/lite-list.h ****  */
   4:..\..\..\..\cloud\alicloud\src\infra\utils\misc/lite-list.h **** 
   5:..\..\..\..\cloud\alicloud\src\infra\utils\misc/lite-list.h **** #ifndef AOS_LIST_H
   6:..\..\..\..\cloud\alicloud\src\infra\utils\misc/lite-list.h **** #define AOS_LIST_H
   7:..\..\..\..\cloud\alicloud\src\infra\utils\misc/lite-list.h **** 
   8:..\..\..\..\cloud\alicloud\src\infra\utils\misc/lite-list.h **** #ifdef __cplusplus
   9:..\..\..\..\cloud\alicloud\src\infra\utils\misc/lite-list.h **** extern "C" {
  10:..\..\..\..\cloud\alicloud\src\infra\utils\misc/lite-list.h **** #endif
  11:..\..\..\..\cloud\alicloud\src\infra\utils\misc/lite-list.h **** 
  12:..\..\..\..\cloud\alicloud\src\infra\utils\misc/lite-list.h **** /*
  13:..\..\..\..\cloud\alicloud\src\infra\utils\misc/lite-list.h ****  * Get offset of a member variable.
  14:..\..\..\..\cloud\alicloud\src\infra\utils\misc/lite-list.h ****  *
  15:..\..\..\..\cloud\alicloud\src\infra\utils\misc/lite-list.h ****  * @param[in]   type     the type of the struct this is embedded in.
  16:..\..\..\..\cloud\alicloud\src\infra\utils\misc/lite-list.h ****  * @param[in]   member   the name of the variable within the struct.
  17:..\..\..\..\cloud\alicloud\src\infra\utils\misc/lite-list.h ****  */
  18:..\..\..\..\cloud\alicloud\src\infra\utils\misc/lite-list.h **** #define aos_offsetof(type, member)   ((size_t)&(((type *)0)->member))
  19:..\..\..\..\cloud\alicloud\src\infra\utils\misc/lite-list.h **** 
  20:..\..\..\..\cloud\alicloud\src\infra\utils\misc/lite-list.h **** /*
  21:..\..\..\..\cloud\alicloud\src\infra\utils\misc/lite-list.h ****  * Get the struct for this entry.
  22:..\..\..\..\cloud\alicloud\src\infra\utils\misc/lite-list.h ****  *
  23:..\..\..\..\cloud\alicloud\src\infra\utils\misc/lite-list.h ****  * @param[in]   ptr     the list head to take the element from.
  24:..\..\..\..\cloud\alicloud\src\infra\utils\misc/lite-list.h ****  * @param[in]   type    the type of the struct this is embedded in.
  25:..\..\..\..\cloud\alicloud\src\infra\utils\misc/lite-list.h ****  * @param[in]   member  the name of the variable within the struct.
  26:..\..\..\..\cloud\alicloud\src\infra\utils\misc/lite-list.h ****  */
  27:..\..\..\..\cloud\alicloud\src\infra\utils\misc/lite-list.h **** #define aos_container_of(ptr, type, member) \
  28:..\..\..\..\cloud\alicloud\src\infra\utils\misc/lite-list.h ****     ((type *) ((char *) (ptr) - aos_offsetof(type, member)))
  29:..\..\..\..\cloud\alicloud\src\infra\utils\misc/lite-list.h **** 
  30:..\..\..\..\cloud\alicloud\src\infra\utils\misc/lite-list.h **** /* for double link list */
  31:..\..\..\..\cloud\alicloud\src\infra\utils\misc/lite-list.h **** typedef struct dlist_s {
  32:..\..\..\..\cloud\alicloud\src\infra\utils\misc/lite-list.h ****     struct dlist_s *prev;
  33:..\..\..\..\cloud\alicloud\src\infra\utils\misc/lite-list.h ****     struct dlist_s *next;
  34:..\..\..\..\cloud\alicloud\src\infra\utils\misc/lite-list.h **** } dlist_t;
  35:..\..\..\..\cloud\alicloud\src\infra\utils\misc/lite-list.h **** 
  36:..\..\..\..\cloud\alicloud\src\infra\utils\misc/lite-list.h **** static inline void __dlist_add(dlist_t *node, dlist_t *prev, dlist_t *next)
  37:..\..\..\..\cloud\alicloud\src\infra\utils\misc/lite-list.h **** {
  38:..\..\..\..\cloud\alicloud\src\infra\utils\misc/lite-list.h ****     node->next = next;
  39:..\..\..\..\cloud\alicloud\src\infra\utils\misc/lite-list.h ****     node->prev = prev;
  40:..\..\..\..\cloud\alicloud\src\infra\utils\misc/lite-list.h **** 
  41:..\..\..\..\cloud\alicloud\src\infra\utils\misc/lite-list.h ****     prev->next = node;
  42:..\..\..\..\cloud\alicloud\src\infra\utils\misc/lite-list.h ****     next->prev = node;
  43:..\..\..\..\cloud\alicloud\src\infra\utils\misc/lite-list.h **** }
  44:..\..\..\..\cloud\alicloud\src\infra\utils\misc/lite-list.h **** 
  45:..\..\..\..\cloud\alicloud\src\infra\utils\misc/lite-list.h **** /*
  46:..\..\..\..\cloud\alicloud\src\infra\utils\misc/lite-list.h ****  * Get the struct for this entry.
  47:..\..\..\..\cloud\alicloud\src\infra\utils\misc/lite-list.h ****  *
  48:..\..\..\..\cloud\alicloud\src\infra\utils\misc/lite-list.h ****  * @param[in]   addr    the list head to take the element from.
  49:..\..\..\..\cloud\alicloud\src\infra\utils\misc/lite-list.h ****  * @param[in]   type    the type of the struct this is embedded in.
  50:..\..\..\..\cloud\alicloud\src\infra\utils\misc/lite-list.h ****  * @param[in]   member  the name of the dlist_t within the struct.
  51:..\..\..\..\cloud\alicloud\src\infra\utils\misc/lite-list.h ****  */
  52:..\..\..\..\cloud\alicloud\src\infra\utils\misc/lite-list.h **** #define dlist_entry(addr, type, member) \
  53:..\..\..\..\cloud\alicloud\src\infra\utils\misc/lite-list.h ****     ((type *)((long)addr - aos_offsetof(type, member)))
  54:..\..\..\..\cloud\alicloud\src\infra\utils\misc/lite-list.h **** 
  55:..\..\..\..\cloud\alicloud\src\infra\utils\misc/lite-list.h **** 
  56:..\..\..\..\cloud\alicloud\src\infra\utils\misc/lite-list.h **** static inline void dlist_add(dlist_t *node, dlist_t *queue)
  57:..\..\..\..\cloud\alicloud\src\infra\utils\misc/lite-list.h **** {
  58:..\..\..\..\cloud\alicloud\src\infra\utils\misc/lite-list.h ****     __dlist_add(node, queue, queue->next);
  59:..\..\..\..\cloud\alicloud\src\infra\utils\misc/lite-list.h **** }
  60:..\..\..\..\cloud\alicloud\src\infra\utils\misc/lite-list.h **** 
  61:..\..\..\..\cloud\alicloud\src\infra\utils\misc/lite-list.h **** static inline void dlist_add_tail(dlist_t *node, dlist_t *queue)
  62:..\..\..\..\cloud\alicloud\src\infra\utils\misc/lite-list.h **** {
  63:..\..\..\..\cloud\alicloud\src\infra\utils\misc/lite-list.h ****     __dlist_add(node, queue->prev, queue);
  64:..\..\..\..\cloud\alicloud\src\infra\utils\misc/lite-list.h **** }
  65:..\..\..\..\cloud\alicloud\src\infra\utils\misc/lite-list.h **** 
  66:..\..\..\..\cloud\alicloud\src\infra\utils\misc/lite-list.h **** static inline void dlist_del(dlist_t *node)
  67:..\..\..\..\cloud\alicloud\src\infra\utils\misc/lite-list.h **** {
  68:..\..\..\..\cloud\alicloud\src\infra\utils\misc/lite-list.h ****     dlist_t *prev = node->prev;
 139              		.loc 2 68 14 is_stmt 0
 140 004c 5844     		lw	a4,12(s0)
  69:..\..\..\..\cloud\alicloud\src\infra\utils\misc/lite-list.h ****     dlist_t *next = node->next;
 141              		.loc 2 69 14
 142 004e 1C48     		lw	a5,16(s0)
 143              	.LBE17:
 144              	.LBE16:
 104:C:/Users/stapi/OneDrive/Desktop/GD32VW553/V1_MQTT_OK/GD32VW55X_Wifi_BLE_SDK/GD32VW55x_RELEASE_V1.0.2/MSDK/cloud/alicloud/src/protocol/alcs\alcs_adapter.c ****             list_del(&node->linked_list);
 145              		.loc 1 104 23
 146 0050 23208A00 		sw	s0,0(s4)
 105:C:/Users/stapi/OneDrive/Desktop/GD32VW553/V1_MQTT_OK/GD32VW55X_Wifi_BLE_SDK/GD32VW55x_RELEASE_V1.0.2/MSDK/cloud/alicloud/src/protocol/alcs\alcs_adapter.c ****             return SUCCESS_RETURN;
 147              		.loc 1 105 13 is_stmt 1
 148              	.LVL12:
 149              	.LBB19:
 150              	.LBB18:
  68:..\..\..\..\cloud\alicloud\src\infra\utils\misc/lite-list.h ****     dlist_t *next = node->next;
 151              		.loc 2 68 5
 152              		.loc 2 69 5
  70:..\..\..\..\cloud\alicloud\src\infra\utils\misc/lite-list.h **** 
  71:..\..\..\..\cloud\alicloud\src\infra\utils\misc/lite-list.h ****     prev->next = next;
 153              		.loc 2 71 5
 154              		.loc 2 71 16 is_stmt 0
 155 0054 5CC3     		sw	a5,4(a4)
  72:..\..\..\..\cloud\alicloud\src\infra\utils\misc/lite-list.h ****     next->prev = prev;
 156              		.loc 2 72 5 is_stmt 1
 157              		.loc 2 72 16 is_stmt 0
 158 0056 98C3     		sw	a4,0(a5)
 159              	.LVL13:
 160              	.L3:
 161              	.LBE18:
 162              	.LBE19:
 111:C:/Users/stapi/OneDrive/Desktop/GD32VW553/V1_MQTT_OK/GD32VW55X_Wifi_BLE_SDK/GD32VW55x_RELEASE_V1.0.2/MSDK/cloud/alicloud/src/protocol/alcs\alcs_adapter.c **** 
 163              		.loc 1 111 1
 164 0058 17030000 		tail	__riscv_restore_6
 164      67000300 
 165              		.cfi_remember_state
 166              		.cfi_restore 21
 167              		.cfi_restore 20
 168              		.cfi_restore 19
 169              		.cfi_restore 18
 170              		.cfi_restore 9
 171              		.cfi_restore 8
 172              		.cfi_restore 1
 173              		.cfi_def_cfa_offset 0
 174              	.L5:
 175              		.cfi_restore_state
 101:C:/Users/stapi/OneDrive/Desktop/GD32VW553/V1_MQTT_OK/GD32VW55X_Wifi_BLE_SDK/GD32VW55x_RELEASE_V1.0.2/MSDK/cloud/alicloud/src/protocol/alcs\alcs_adapter.c ****         if (message->header.tokenlen == node->token_len &&
 176              		.loc 1 101 5 is_stmt 1 discriminator 2
 177              	.LVL14:
 178 0060 83270901 		lw	a5,16(s2)
 179              	.LVL15:
 180 0064 4A84     		mv	s0,s2
 181 0066 138947FF 		addi	s2,a5,-12
 182              	.LVL16:
 183 006a 5DBF     		j	.L4
 184              		.cfi_endproc
 185              	.LFE24:
 187              		.section	.rodata.iotx_alcs_topic_parse_dn.str1.4,"aMS",@progbits,1
 188              		.align	2
 189              	.LC3:
 190 0000 5B657272 		.string	"[err] "
 190      5D2000
 191 0007 00       		.align	2
 192              	.LC4:
 193 0008 496E7661 		.string	"Invalid Parameter"
 193      6C696420 
 193      50617261 
 193      6D657465 
 193      7200
 194              		.section	.text.iotx_alcs_topic_parse_dn,"ax",@progbits
 195              		.align	1
 197              	iotx_alcs_topic_parse_dn:
 198              	.LFB23:
  68:C:/Users/stapi/OneDrive/Desktop/GD32VW553/V1_MQTT_OK/GD32VW55X_Wifi_BLE_SDK/GD32VW55x_RELEASE_V1.0.2/MSDK/cloud/alicloud/src/protocol/alcs\alcs_adapter.c ****     if (topic == NULL || length == NULL) {
 199              		.loc 1 68 1
 200              		.cfi_startproc
 201              	.LVL17:
 202 0000 17030000 		call	t0,__riscv_save_2
 202      E7020300 
 203              		.cfi_offset 9, -12
 204              		.cfi_offset 8, -8
 205              		.cfi_offset 1, -4
 206              		.cfi_def_cfa_offset 16
  69:C:/Users/stapi/OneDrive/Desktop/GD32VW553/V1_MQTT_OK/GD32VW55X_Wifi_BLE_SDK/GD32VW55x_RELEASE_V1.0.2/MSDK/cloud/alicloud/src/protocol/alcs\alcs_adapter.c ****         COAP_ERR("Invalid Parameter");
 207              		.loc 1 69 5
  68:C:/Users/stapi/OneDrive/Desktop/GD32VW553/V1_MQTT_OK/GD32VW55X_Wifi_BLE_SDK/GD32VW55x_RELEASE_V1.0.2/MSDK/cloud/alicloud/src/protocol/alcs\alcs_adapter.c ****     if (topic == NULL || length == NULL) {
 208              		.loc 1 68 1 is_stmt 0
 209 0008 2A84     		mv	s0,a0
  69:C:/Users/stapi/OneDrive/Desktop/GD32VW553/V1_MQTT_OK/GD32VW55X_Wifi_BLE_SDK/GD32VW55x_RELEASE_V1.0.2/MSDK/cloud/alicloud/src/protocol/alcs\alcs_adapter.c ****         COAP_ERR("Invalid Parameter");
 210              		.loc 1 69 8
 211 000a 15ED     		bne	a0,zero,.L10
  70:C:/Users/stapi/OneDrive/Desktop/GD32VW553/V1_MQTT_OK/GD32VW55X_Wifi_BLE_SDK/GD32VW55x_RELEASE_V1.0.2/MSDK/cloud/alicloud/src/protocol/alcs\alcs_adapter.c ****         return NULL;
 212              		.loc 1 70 9 is_stmt 1
  70:C:/Users/stapi/OneDrive/Desktop/GD32VW553/V1_MQTT_OK/GD32VW55X_Wifi_BLE_SDK/GD32VW55x_RELEASE_V1.0.2/MSDK/cloud/alicloud/src/protocol/alcs\alcs_adapter.c ****         return NULL;
 213              		.loc 1 70 9
 214 000c 37050000 		lui	a0,%hi(.LC3)
 215              	.LVL18:
 216 0010 13050500 		addi	a0,a0,%lo(.LC3)
 217 0014 97000000 		call	HAL_Printf
 217      E7800000 
 218              	.LVL19:
  70:C:/Users/stapi/OneDrive/Desktop/GD32VW553/V1_MQTT_OK/GD32VW55X_Wifi_BLE_SDK/GD32VW55x_RELEASE_V1.0.2/MSDK/cloud/alicloud/src/protocol/alcs\alcs_adapter.c ****         return NULL;
 219              		.loc 1 70 9
 220 001c 37050000 		lui	a0,%hi(.LC4)
 221 0020 13050500 		addi	a0,a0,%lo(.LC4)
 222 0024 97000000 		call	HAL_Printf
 222      E7800000 
 223              	.LVL20:
  70:C:/Users/stapi/OneDrive/Desktop/GD32VW553/V1_MQTT_OK/GD32VW55X_Wifi_BLE_SDK/GD32VW55x_RELEASE_V1.0.2/MSDK/cloud/alicloud/src/protocol/alcs\alcs_adapter.c ****         return NULL;
 224              		.loc 1 70 9
 225 002c 37050000 		lui	a0,%hi(.LC2)
 226 0030 13050500 		addi	a0,a0,%lo(.LC2)
 227 0034 97000000 		call	HAL_Printf
 227      E7800000 
 228              	.LVL21:
  70:C:/Users/stapi/OneDrive/Desktop/GD32VW553/V1_MQTT_OK/GD32VW55X_Wifi_BLE_SDK/GD32VW55x_RELEASE_V1.0.2/MSDK/cloud/alicloud/src/protocol/alcs\alcs_adapter.c ****         return NULL;
 229              		.loc 1 70 9
  71:C:/Users/stapi/OneDrive/Desktop/GD32VW553/V1_MQTT_OK/GD32VW55X_Wifi_BLE_SDK/GD32VW55x_RELEASE_V1.0.2/MSDK/cloud/alicloud/src/protocol/alcs\alcs_adapter.c ****     }
 230              		.loc 1 71 9
 231              	.L11:
  93:C:/Users/stapi/OneDrive/Desktop/GD32VW553/V1_MQTT_OK/GD32VW55X_Wifi_BLE_SDK/GD32VW55x_RELEASE_V1.0.2/MSDK/cloud/alicloud/src/protocol/alcs\alcs_adapter.c **** 
 232              		.loc 1 93 1 is_stmt 0
 233 003c 2285     		mv	a0,s0
 234 003e 17030000 		tail	__riscv_restore_2
 234      67000300 
 235              		.cfi_remember_state
 236              		.cfi_restore 9
 237              		.cfi_restore 8
 238              		.cfi_restore 1
 239              		.cfi_def_cfa_offset 0
 240              	.LVL22:
 241              	.L10:
 242              		.cfi_restore_state
 243 0046 AE84     		mv	s1,a1
  74:C:/Users/stapi/OneDrive/Desktop/GD32VW553/V1_MQTT_OK/GD32VW55X_Wifi_BLE_SDK/GD32VW55x_RELEASE_V1.0.2/MSDK/cloud/alicloud/src/protocol/alcs\alcs_adapter.c ****     uint8_t slash_count = 0;
 244              		.loc 1 74 5 is_stmt 1
 245              	.LVL23:
  75:C:/Users/stapi/OneDrive/Desktop/GD32VW553/V1_MQTT_OK/GD32VW55X_Wifi_BLE_SDK/GD32VW55x_RELEASE_V1.0.2/MSDK/cloud/alicloud/src/protocol/alcs\alcs_adapter.c ****     uint16_t idx = 0;
 246              		.loc 1 75 5
  76:C:/Users/stapi/OneDrive/Desktop/GD32VW553/V1_MQTT_OK/GD32VW55X_Wifi_BLE_SDK/GD32VW55x_RELEASE_V1.0.2/MSDK/cloud/alicloud/src/protocol/alcs\alcs_adapter.c ****     uint16_t topic_len = strlen(topic);
 247              		.loc 1 76 5
  77:C:/Users/stapi/OneDrive/Desktop/GD32VW553/V1_MQTT_OK/GD32VW55X_Wifi_BLE_SDK/GD32VW55x_RELEASE_V1.0.2/MSDK/cloud/alicloud/src/protocol/alcs\alcs_adapter.c **** 
 248              		.loc 1 77 5
  77:C:/Users/stapi/OneDrive/Desktop/GD32VW553/V1_MQTT_OK/GD32VW55X_Wifi_BLE_SDK/GD32VW55x_RELEASE_V1.0.2/MSDK/cloud/alicloud/src/protocol/alcs\alcs_adapter.c **** 
 249              		.loc 1 77 26 is_stmt 0
 250 0048 97000000 		call	strlen
 250      E7800000 
 251              	.LVL24:
 252 0050 2286     		mv	a2,s0
  79:C:/Users/stapi/OneDrive/Desktop/GD32VW553/V1_MQTT_OK/GD32VW55X_Wifi_BLE_SDK/GD32VW55x_RELEASE_V1.0.2/MSDK/cloud/alicloud/src/protocol/alcs\alcs_adapter.c ****         if (topic[idx] == '/') {
 253              		.loc 1 79 11
 254 0052 A287     		mv	a5,s0
  75:C:/Users/stapi/OneDrive/Desktop/GD32VW553/V1_MQTT_OK/GD32VW55X_Wifi_BLE_SDK/GD32VW55x_RELEASE_V1.0.2/MSDK/cloud/alicloud/src/protocol/alcs\alcs_adapter.c ****     uint16_t idx = 0;
 255              		.loc 1 75 13
 256 0054 0147     		li	a4,0
  74:C:/Users/stapi/OneDrive/Desktop/GD32VW553/V1_MQTT_OK/GD32VW55X_Wifi_BLE_SDK/GD32VW55x_RELEASE_V1.0.2/MSDK/cloud/alicloud/src/protocol/alcs\alcs_adapter.c ****     uint8_t slash_count = 0;
 257              		.loc 1 74 11
 258 0056 0144     		li	s0,0
 259              	.LVL25:
  80:C:/Users/stapi/OneDrive/Desktop/GD32VW553/V1_MQTT_OK/GD32VW55X_Wifi_BLE_SDK/GD32VW55x_RELEASE_V1.0.2/MSDK/cloud/alicloud/src/protocol/alcs\alcs_adapter.c ****             slash_count++;
 260              		.loc 1 80 12
 261 0058 9305F002 		li	a1,47
  82:C:/Users/stapi/OneDrive/Desktop/GD32VW553/V1_MQTT_OK/GD32VW55X_Wifi_BLE_SDK/GD32VW55x_RELEASE_V1.0.2/MSDK/cloud/alicloud/src/protocol/alcs\alcs_adapter.c ****                 pos = topic + idx + 1;
 262              		.loc 1 82 16
 263 005c 0D48     		li	a6,3
  85:C:/Users/stapi/OneDrive/Desktop/GD32VW553/V1_MQTT_OK/GD32VW55X_Wifi_BLE_SDK/GD32VW55x_RELEASE_V1.0.2/MSDK/cloud/alicloud/src/protocol/alcs\alcs_adapter.c ****                 *length = topic + idx - pos;
 264              		.loc 1 85 16
 265 005e 9148     		li	a7,4
  77:C:/Users/stapi/OneDrive/Desktop/GD32VW553/V1_MQTT_OK/GD32VW55X_Wifi_BLE_SDK/GD32VW55x_RELEASE_V1.0.2/MSDK/cloud/alicloud/src/protocol/alcs\alcs_adapter.c **** 
 266              		.loc 1 77 14
 267 0060 33450508 		zext.h	a0,a0
 268              	.LVL26:
  79:C:/Users/stapi/OneDrive/Desktop/GD32VW553/V1_MQTT_OK/GD32VW55X_Wifi_BLE_SDK/GD32VW55x_RELEASE_V1.0.2/MSDK/cloud/alicloud/src/protocol/alcs\alcs_adapter.c ****         if (topic[idx] == '/') {
 269              		.loc 1 79 5 is_stmt 1
 270              	.L12:
  79:C:/Users/stapi/OneDrive/Desktop/GD32VW553/V1_MQTT_OK/GD32VW55X_Wifi_BLE_SDK/GD32VW55x_RELEASE_V1.0.2/MSDK/cloud/alicloud/src/protocol/alcs\alcs_adapter.c ****         if (topic[idx] == '/') {
 271              		.loc 1 79 11
 272 0064 B386C740 		sub	a3,a5,a2
 273 0068 B3C60608 		zext.h	a3,a3
 274 006c E3F8A6FC 		bleu	a0,a3,.L11
  80:C:/Users/stapi/OneDrive/Desktop/GD32VW553/V1_MQTT_OK/GD32VW55X_Wifi_BLE_SDK/GD32VW55x_RELEASE_V1.0.2/MSDK/cloud/alicloud/src/protocol/alcs\alcs_adapter.c ****             slash_count++;
 275              		.loc 1 80 9
 276 0070 93861700 		addi	a3,a5,1
  80:C:/Users/stapi/OneDrive/Desktop/GD32VW553/V1_MQTT_OK/GD32VW55X_Wifi_BLE_SDK/GD32VW55x_RELEASE_V1.0.2/MSDK/cloud/alicloud/src/protocol/alcs\alcs_adapter.c ****             slash_count++;
 277              		.loc 1 80 12 is_stmt 0
 278 0074 03830700 		lb	t1,0(a5)
 279 0078 6318B300 		bne	t1,a1,.L13
  81:C:/Users/stapi/OneDrive/Desktop/GD32VW553/V1_MQTT_OK/GD32VW55X_Wifi_BLE_SDK/GD32VW55x_RELEASE_V1.0.2/MSDK/cloud/alicloud/src/protocol/alcs\alcs_adapter.c ****             if (slash_count == 3) {
 280              		.loc 1 81 13 is_stmt 1
  81:C:/Users/stapi/OneDrive/Desktop/GD32VW553/V1_MQTT_OK/GD32VW55X_Wifi_BLE_SDK/GD32VW55x_RELEASE_V1.0.2/MSDK/cloud/alicloud/src/protocol/alcs\alcs_adapter.c ****             if (slash_count == 3) {
 281              		.loc 1 81 24 is_stmt 0
 282 007c 0507     		addi	a4,a4,1
 283              	.LVL27:
 284 007e 1377F70F 		andi	a4,a4,0xff
 285              	.LVL28:
  82:C:/Users/stapi/OneDrive/Desktop/GD32VW553/V1_MQTT_OK/GD32VW55X_Wifi_BLE_SDK/GD32VW55x_RELEASE_V1.0.2/MSDK/cloud/alicloud/src/protocol/alcs\alcs_adapter.c ****                 pos = topic + idx + 1;
 286              		.loc 1 82 13 is_stmt 1
  82:C:/Users/stapi/OneDrive/Desktop/GD32VW553/V1_MQTT_OK/GD32VW55X_Wifi_BLE_SDK/GD32VW55x_RELEASE_V1.0.2/MSDK/cloud/alicloud/src/protocol/alcs\alcs_adapter.c ****                 pos = topic + idx + 1;
 287              		.loc 1 82 16 is_stmt 0
 288 0082 63150701 		bne	a4,a6,.L14
  83:C:/Users/stapi/OneDrive/Desktop/GD32VW553/V1_MQTT_OK/GD32VW55X_Wifi_BLE_SDK/GD32VW55x_RELEASE_V1.0.2/MSDK/cloud/alicloud/src/protocol/alcs\alcs_adapter.c ****             }
 289              		.loc 1 83 17 is_stmt 1
 290 0086 3684     		mv	s0,a3
 291              	.LVL29:
  85:C:/Users/stapi/OneDrive/Desktop/GD32VW553/V1_MQTT_OK/GD32VW55X_Wifi_BLE_SDK/GD32VW55x_RELEASE_V1.0.2/MSDK/cloud/alicloud/src/protocol/alcs\alcs_adapter.c ****                 *length = topic + idx - pos;
 292              		.loc 1 85 13
 293              	.L13:
  89:C:/Users/stapi/OneDrive/Desktop/GD32VW553/V1_MQTT_OK/GD32VW55X_Wifi_BLE_SDK/GD32VW55x_RELEASE_V1.0.2/MSDK/cloud/alicloud/src/protocol/alcs\alcs_adapter.c ****     }
 294              		.loc 1 89 9
 295 0088 B687     		mv	a5,a3
 296 008a E9BF     		j	.L12
 297              	.LVL30:
 298              	.L14:
  85:C:/Users/stapi/OneDrive/Desktop/GD32VW553/V1_MQTT_OK/GD32VW55X_Wifi_BLE_SDK/GD32VW55x_RELEASE_V1.0.2/MSDK/cloud/alicloud/src/protocol/alcs\alcs_adapter.c ****                 *length = topic + idx - pos;
 299              		.loc 1 85 13
  85:C:/Users/stapi/OneDrive/Desktop/GD32VW553/V1_MQTT_OK/GD32VW55X_Wifi_BLE_SDK/GD32VW55x_RELEASE_V1.0.2/MSDK/cloud/alicloud/src/protocol/alcs\alcs_adapter.c ****                 *length = topic + idx - pos;
 300              		.loc 1 85 16 is_stmt 0
 301 008c E31E17FF 		bne	a4,a7,.L13
  86:C:/Users/stapi/OneDrive/Desktop/GD32VW553/V1_MQTT_OK/GD32VW55X_Wifi_BLE_SDK/GD32VW55x_RELEASE_V1.0.2/MSDK/cloud/alicloud/src/protocol/alcs\alcs_adapter.c ****             }
 302              		.loc 1 86 17 is_stmt 1
  86:C:/Users/stapi/OneDrive/Desktop/GD32VW553/V1_MQTT_OK/GD32VW55X_Wifi_BLE_SDK/GD32VW55x_RELEASE_V1.0.2/MSDK/cloud/alicloud/src/protocol/alcs\alcs_adapter.c ****             }
 303              		.loc 1 86 39 is_stmt 0
 304 0090 818F     		sub	a5,a5,s0
  86:C:/Users/stapi/OneDrive/Desktop/GD32VW553/V1_MQTT_OK/GD32VW55X_Wifi_BLE_SDK/GD32VW55x_RELEASE_V1.0.2/MSDK/cloud/alicloud/src/protocol/alcs\alcs_adapter.c ****             }
 305              		.loc 1 86 25
 306 0092 2390F400 		sh	a5,0(s1)
 307 0096 CDBF     		j	.L13
 308              		.cfi_endproc
 309              	.LFE23:
 311              		.section	.text.iotx_alcs_topic_parse_pk.constprop.0,"ax",@progbits
 312              		.align	1
 314              	iotx_alcs_topic_parse_pk.constprop.0:
 315              	.LFB40:
  39:C:/Users/stapi/OneDrive/Desktop/GD32VW553/V1_MQTT_OK/GD32VW55X_Wifi_BLE_SDK/GD32VW55x_RELEASE_V1.0.2/MSDK/cloud/alicloud/src/protocol/alcs\alcs_adapter.c **** {
 316              		.loc 1 39 14 is_stmt 1
 317              		.cfi_startproc
 318              	.LVL31:
 319 0000 17030000 		call	t0,__riscv_save_2
 319      E7020300 
 320              		.cfi_offset 9, -12
 321              		.cfi_offset 8, -8
 322              		.cfi_offset 1, -4
 323              		.cfi_def_cfa_offset 16
  41:C:/Users/stapi/OneDrive/Desktop/GD32VW553/V1_MQTT_OK/GD32VW55X_Wifi_BLE_SDK/GD32VW55x_RELEASE_V1.0.2/MSDK/cloud/alicloud/src/protocol/alcs\alcs_adapter.c ****         COAP_ERR("Invalid Parameter");
 324              		.loc 1 41 5
  39:C:/Users/stapi/OneDrive/Desktop/GD32VW553/V1_MQTT_OK/GD32VW55X_Wifi_BLE_SDK/GD32VW55x_RELEASE_V1.0.2/MSDK/cloud/alicloud/src/protocol/alcs\alcs_adapter.c **** {
 325              		.loc 1 39 14 is_stmt 0
 326 0008 2A84     		mv	s0,a0
  41:C:/Users/stapi/OneDrive/Desktop/GD32VW553/V1_MQTT_OK/GD32VW55X_Wifi_BLE_SDK/GD32VW55x_RELEASE_V1.0.2/MSDK/cloud/alicloud/src/protocol/alcs\alcs_adapter.c ****         COAP_ERR("Invalid Parameter");
 327              		.loc 1 41 8
 328 000a 15ED     		bne	a0,zero,.L18
  42:C:/Users/stapi/OneDrive/Desktop/GD32VW553/V1_MQTT_OK/GD32VW55X_Wifi_BLE_SDK/GD32VW55x_RELEASE_V1.0.2/MSDK/cloud/alicloud/src/protocol/alcs\alcs_adapter.c ****         return NULL;
 329              		.loc 1 42 9 is_stmt 1
  42:C:/Users/stapi/OneDrive/Desktop/GD32VW553/V1_MQTT_OK/GD32VW55X_Wifi_BLE_SDK/GD32VW55x_RELEASE_V1.0.2/MSDK/cloud/alicloud/src/protocol/alcs\alcs_adapter.c ****         return NULL;
 330              		.loc 1 42 9
 331 000c 37050000 		lui	a0,%hi(.LC3)
 332              	.LVL32:
 333 0010 13050500 		addi	a0,a0,%lo(.LC3)
 334 0014 97000000 		call	HAL_Printf
 334      E7800000 
 335              	.LVL33:
  42:C:/Users/stapi/OneDrive/Desktop/GD32VW553/V1_MQTT_OK/GD32VW55X_Wifi_BLE_SDK/GD32VW55x_RELEASE_V1.0.2/MSDK/cloud/alicloud/src/protocol/alcs\alcs_adapter.c ****         return NULL;
 336              		.loc 1 42 9
 337 001c 37050000 		lui	a0,%hi(.LC4)
 338 0020 13050500 		addi	a0,a0,%lo(.LC4)
 339 0024 97000000 		call	HAL_Printf
 339      E7800000 
 340              	.LVL34:
  42:C:/Users/stapi/OneDrive/Desktop/GD32VW553/V1_MQTT_OK/GD32VW55X_Wifi_BLE_SDK/GD32VW55x_RELEASE_V1.0.2/MSDK/cloud/alicloud/src/protocol/alcs\alcs_adapter.c ****         return NULL;
 341              		.loc 1 42 9
 342 002c 37050000 		lui	a0,%hi(.LC2)
 343 0030 13050500 		addi	a0,a0,%lo(.LC2)
 344 0034 97000000 		call	HAL_Printf
 344      E7800000 
 345              	.LVL35:
  42:C:/Users/stapi/OneDrive/Desktop/GD32VW553/V1_MQTT_OK/GD32VW55X_Wifi_BLE_SDK/GD32VW55x_RELEASE_V1.0.2/MSDK/cloud/alicloud/src/protocol/alcs\alcs_adapter.c ****         return NULL;
 346              		.loc 1 42 9
  43:C:/Users/stapi/OneDrive/Desktop/GD32VW553/V1_MQTT_OK/GD32VW55X_Wifi_BLE_SDK/GD32VW55x_RELEASE_V1.0.2/MSDK/cloud/alicloud/src/protocol/alcs\alcs_adapter.c ****     }
 347              		.loc 1 43 9
 348              	.L19:
  65:C:/Users/stapi/OneDrive/Desktop/GD32VW553/V1_MQTT_OK/GD32VW55X_Wifi_BLE_SDK/GD32VW55x_RELEASE_V1.0.2/MSDK/cloud/alicloud/src/protocol/alcs\alcs_adapter.c **** 
 349              		.loc 1 65 1 is_stmt 0
 350 003c 2285     		mv	a0,s0
 351 003e 17030000 		tail	__riscv_restore_2
 351      67000300 
 352              		.cfi_remember_state
 353              		.cfi_restore 9
 354              		.cfi_restore 8
 355              		.cfi_restore 1
 356              		.cfi_def_cfa_offset 0
 357              	.LVL36:
 358              	.L18:
 359              		.cfi_restore_state
 360 0046 AE84     		mv	s1,a1
  46:C:/Users/stapi/OneDrive/Desktop/GD32VW553/V1_MQTT_OK/GD32VW55X_Wifi_BLE_SDK/GD32VW55x_RELEASE_V1.0.2/MSDK/cloud/alicloud/src/protocol/alcs\alcs_adapter.c ****     uint8_t slash_count = 0;
 361              		.loc 1 46 5 is_stmt 1
 362              	.LVL37:
  47:C:/Users/stapi/OneDrive/Desktop/GD32VW553/V1_MQTT_OK/GD32VW55X_Wifi_BLE_SDK/GD32VW55x_RELEASE_V1.0.2/MSDK/cloud/alicloud/src/protocol/alcs\alcs_adapter.c ****     uint16_t idx = 0;
 363              		.loc 1 47 5
  48:C:/Users/stapi/OneDrive/Desktop/GD32VW553/V1_MQTT_OK/GD32VW55X_Wifi_BLE_SDK/GD32VW55x_RELEASE_V1.0.2/MSDK/cloud/alicloud/src/protocol/alcs\alcs_adapter.c ****     uint16_t topic_len = strlen(topic);
 364              		.loc 1 48 5
  49:C:/Users/stapi/OneDrive/Desktop/GD32VW553/V1_MQTT_OK/GD32VW55X_Wifi_BLE_SDK/GD32VW55x_RELEASE_V1.0.2/MSDK/cloud/alicloud/src/protocol/alcs\alcs_adapter.c **** 
 365              		.loc 1 49 5
  49:C:/Users/stapi/OneDrive/Desktop/GD32VW553/V1_MQTT_OK/GD32VW55X_Wifi_BLE_SDK/GD32VW55x_RELEASE_V1.0.2/MSDK/cloud/alicloud/src/protocol/alcs\alcs_adapter.c **** 
 366              		.loc 1 49 26 is_stmt 0
 367 0048 97000000 		call	strlen
 367      E7800000 
 368              	.LVL38:
 369 0050 2286     		mv	a2,s0
  51:C:/Users/stapi/OneDrive/Desktop/GD32VW553/V1_MQTT_OK/GD32VW55X_Wifi_BLE_SDK/GD32VW55x_RELEASE_V1.0.2/MSDK/cloud/alicloud/src/protocol/alcs\alcs_adapter.c ****         if (topic[idx] == '/') {
 370              		.loc 1 51 11
 371 0052 A287     		mv	a5,s0
  47:C:/Users/stapi/OneDrive/Desktop/GD32VW553/V1_MQTT_OK/GD32VW55X_Wifi_BLE_SDK/GD32VW55x_RELEASE_V1.0.2/MSDK/cloud/alicloud/src/protocol/alcs\alcs_adapter.c ****     uint16_t idx = 0;
 372              		.loc 1 47 13
 373 0054 0147     		li	a4,0
  46:C:/Users/stapi/OneDrive/Desktop/GD32VW553/V1_MQTT_OK/GD32VW55X_Wifi_BLE_SDK/GD32VW55x_RELEASE_V1.0.2/MSDK/cloud/alicloud/src/protocol/alcs\alcs_adapter.c ****     uint8_t slash_count = 0;
 374              		.loc 1 46 11
 375 0056 0144     		li	s0,0
 376              	.LVL39:
  52:C:/Users/stapi/OneDrive/Desktop/GD32VW553/V1_MQTT_OK/GD32VW55X_Wifi_BLE_SDK/GD32VW55x_RELEASE_V1.0.2/MSDK/cloud/alicloud/src/protocol/alcs\alcs_adapter.c ****             slash_count++;
 377              		.loc 1 52 12
 378 0058 9305F002 		li	a1,47
  54:C:/Users/stapi/OneDrive/Desktop/GD32VW553/V1_MQTT_OK/GD32VW55X_Wifi_BLE_SDK/GD32VW55x_RELEASE_V1.0.2/MSDK/cloud/alicloud/src/protocol/alcs\alcs_adapter.c ****                 pos = topic + idx + 1;
 379              		.loc 1 54 16
 380 005c 0948     		li	a6,2
  57:C:/Users/stapi/OneDrive/Desktop/GD32VW553/V1_MQTT_OK/GD32VW55X_Wifi_BLE_SDK/GD32VW55x_RELEASE_V1.0.2/MSDK/cloud/alicloud/src/protocol/alcs\alcs_adapter.c ****                 *length = topic + idx - pos;
 381              		.loc 1 57 16
 382 005e 8D48     		li	a7,3
  49:C:/Users/stapi/OneDrive/Desktop/GD32VW553/V1_MQTT_OK/GD32VW55X_Wifi_BLE_SDK/GD32VW55x_RELEASE_V1.0.2/MSDK/cloud/alicloud/src/protocol/alcs\alcs_adapter.c **** 
 383              		.loc 1 49 14
 384 0060 33450508 		zext.h	a0,a0
 385              	.LVL40:
  51:C:/Users/stapi/OneDrive/Desktop/GD32VW553/V1_MQTT_OK/GD32VW55X_Wifi_BLE_SDK/GD32VW55x_RELEASE_V1.0.2/MSDK/cloud/alicloud/src/protocol/alcs\alcs_adapter.c ****         if (topic[idx] == '/') {
 386              		.loc 1 51 5 is_stmt 1
 387              	.L20:
  51:C:/Users/stapi/OneDrive/Desktop/GD32VW553/V1_MQTT_OK/GD32VW55X_Wifi_BLE_SDK/GD32VW55x_RELEASE_V1.0.2/MSDK/cloud/alicloud/src/protocol/alcs\alcs_adapter.c ****         if (topic[idx] == '/') {
 388              		.loc 1 51 11
 389 0064 B386C740 		sub	a3,a5,a2
 390 0068 B3C60608 		zext.h	a3,a3
 391 006c E3F8A6FC 		bleu	a0,a3,.L19
  52:C:/Users/stapi/OneDrive/Desktop/GD32VW553/V1_MQTT_OK/GD32VW55X_Wifi_BLE_SDK/GD32VW55x_RELEASE_V1.0.2/MSDK/cloud/alicloud/src/protocol/alcs\alcs_adapter.c ****             slash_count++;
 392              		.loc 1 52 9
 393 0070 93861700 		addi	a3,a5,1
  52:C:/Users/stapi/OneDrive/Desktop/GD32VW553/V1_MQTT_OK/GD32VW55X_Wifi_BLE_SDK/GD32VW55x_RELEASE_V1.0.2/MSDK/cloud/alicloud/src/protocol/alcs\alcs_adapter.c ****             slash_count++;
 394              		.loc 1 52 12 is_stmt 0
 395 0074 03830700 		lb	t1,0(a5)
 396 0078 6318B300 		bne	t1,a1,.L21
  53:C:/Users/stapi/OneDrive/Desktop/GD32VW553/V1_MQTT_OK/GD32VW55X_Wifi_BLE_SDK/GD32VW55x_RELEASE_V1.0.2/MSDK/cloud/alicloud/src/protocol/alcs\alcs_adapter.c ****             if (slash_count == 2) {
 397              		.loc 1 53 13 is_stmt 1
  53:C:/Users/stapi/OneDrive/Desktop/GD32VW553/V1_MQTT_OK/GD32VW55X_Wifi_BLE_SDK/GD32VW55x_RELEASE_V1.0.2/MSDK/cloud/alicloud/src/protocol/alcs\alcs_adapter.c ****             if (slash_count == 2) {
 398              		.loc 1 53 24 is_stmt 0
 399 007c 0507     		addi	a4,a4,1
 400              	.LVL41:
 401 007e 1377F70F 		andi	a4,a4,0xff
 402              	.LVL42:
  54:C:/Users/stapi/OneDrive/Desktop/GD32VW553/V1_MQTT_OK/GD32VW55X_Wifi_BLE_SDK/GD32VW55x_RELEASE_V1.0.2/MSDK/cloud/alicloud/src/protocol/alcs\alcs_adapter.c ****                 pos = topic + idx + 1;
 403              		.loc 1 54 13 is_stmt 1
  54:C:/Users/stapi/OneDrive/Desktop/GD32VW553/V1_MQTT_OK/GD32VW55X_Wifi_BLE_SDK/GD32VW55x_RELEASE_V1.0.2/MSDK/cloud/alicloud/src/protocol/alcs\alcs_adapter.c ****                 pos = topic + idx + 1;
 404              		.loc 1 54 16 is_stmt 0
 405 0082 63150701 		bne	a4,a6,.L22
  55:C:/Users/stapi/OneDrive/Desktop/GD32VW553/V1_MQTT_OK/GD32VW55X_Wifi_BLE_SDK/GD32VW55x_RELEASE_V1.0.2/MSDK/cloud/alicloud/src/protocol/alcs\alcs_adapter.c ****             }
 406              		.loc 1 55 17 is_stmt 1
 407 0086 3684     		mv	s0,a3
 408              	.LVL43:
  57:C:/Users/stapi/OneDrive/Desktop/GD32VW553/V1_MQTT_OK/GD32VW55X_Wifi_BLE_SDK/GD32VW55x_RELEASE_V1.0.2/MSDK/cloud/alicloud/src/protocol/alcs\alcs_adapter.c ****                 *length = topic + idx - pos;
 409              		.loc 1 57 13
 410              	.L21:
  61:C:/Users/stapi/OneDrive/Desktop/GD32VW553/V1_MQTT_OK/GD32VW55X_Wifi_BLE_SDK/GD32VW55x_RELEASE_V1.0.2/MSDK/cloud/alicloud/src/protocol/alcs\alcs_adapter.c ****     }
 411              		.loc 1 61 9
 412 0088 B687     		mv	a5,a3
 413 008a E9BF     		j	.L20
 414              	.LVL44:
 415              	.L22:
  57:C:/Users/stapi/OneDrive/Desktop/GD32VW553/V1_MQTT_OK/GD32VW55X_Wifi_BLE_SDK/GD32VW55x_RELEASE_V1.0.2/MSDK/cloud/alicloud/src/protocol/alcs\alcs_adapter.c ****                 *length = topic + idx - pos;
 416              		.loc 1 57 13
  57:C:/Users/stapi/OneDrive/Desktop/GD32VW553/V1_MQTT_OK/GD32VW55X_Wifi_BLE_SDK/GD32VW55x_RELEASE_V1.0.2/MSDK/cloud/alicloud/src/protocol/alcs\alcs_adapter.c ****                 *length = topic + idx - pos;
 417              		.loc 1 57 16 is_stmt 0
 418 008c E31E17FF 		bne	a4,a7,.L21
  58:C:/Users/stapi/OneDrive/Desktop/GD32VW553/V1_MQTT_OK/GD32VW55X_Wifi_BLE_SDK/GD32VW55x_RELEASE_V1.0.2/MSDK/cloud/alicloud/src/protocol/alcs\alcs_adapter.c ****             }
 419              		.loc 1 58 17 is_stmt 1
  58:C:/Users/stapi/OneDrive/Desktop/GD32VW553/V1_MQTT_OK/GD32VW55X_Wifi_BLE_SDK/GD32VW55x_RELEASE_V1.0.2/MSDK/cloud/alicloud/src/protocol/alcs\alcs_adapter.c ****             }
 420              		.loc 1 58 39 is_stmt 0
 421 0090 818F     		sub	a5,a5,s0
  58:C:/Users/stapi/OneDrive/Desktop/GD32VW553/V1_MQTT_OK/GD32VW55X_Wifi_BLE_SDK/GD32VW55x_RELEASE_V1.0.2/MSDK/cloud/alicloud/src/protocol/alcs\alcs_adapter.c ****             }
 422              		.loc 1 58 25
 423 0092 2390F400 		sh	a5,0(s1)
 424 0096 CDBF     		j	.L21
 425              		.cfi_endproc
 426              	.LFE40:
 428              		.section	.text.iotx_alcs_get_ctx,"ax",@progbits
 429              		.align	1
 430              		.globl	iotx_alcs_get_ctx
 432              	iotx_alcs_get_ctx:
 433              	.LFB21:
  35:C:/Users/stapi/OneDrive/Desktop/GD32VW553/V1_MQTT_OK/GD32VW55X_Wifi_BLE_SDK/GD32VW55x_RELEASE_V1.0.2/MSDK/cloud/alicloud/src/protocol/alcs\alcs_adapter.c ****     return &g_alcs_adapter;
 434              		.loc 1 35 1 is_stmt 1
 435              		.cfi_startproc
  36:C:/Users/stapi/OneDrive/Desktop/GD32VW553/V1_MQTT_OK/GD32VW55X_Wifi_BLE_SDK/GD32VW55x_RELEASE_V1.0.2/MSDK/cloud/alicloud/src/protocol/alcs\alcs_adapter.c **** }
 436              		.loc 1 36 5
  36:C:/Users/stapi/OneDrive/Desktop/GD32VW553/V1_MQTT_OK/GD32VW55X_Wifi_BLE_SDK/GD32VW55x_RELEASE_V1.0.2/MSDK/cloud/alicloud/src/protocol/alcs\alcs_adapter.c **** }
 437              		.loc 1 36 12 is_stmt 0
 438 0000 37050000 		lui	a0,%hi(.LANCHOR0)
  37:C:/Users/stapi/OneDrive/Desktop/GD32VW553/V1_MQTT_OK/GD32VW55X_Wifi_BLE_SDK/GD32VW55x_RELEASE_V1.0.2/MSDK/cloud/alicloud/src/protocol/alcs\alcs_adapter.c **** 
 439              		.loc 1 37 1
 440 0004 13050500 		addi	a0,a0,%lo(.LANCHOR0)
 441 0008 8280     		ret
 442              		.cfi_endproc
 443              	.LFE21:
 445              		.section	.rodata.iotx_alcs_coap_adapter_send_msg_handle.str1.4,"aMS",@progbits,1
 446              		.align	2
 447              	.LC5:
 448 0000 5B77726E 		.string	"[wrn] "
 448      5D2000
 449 0007 00       		.align	2
 450              	.LC6:
 451 0008 556E6B6E 		.string	"Unknown Coap Request Result: %d"
 451      6F776E20 
 451      436F6170 
 451      20526571 
 451      75657374 
 452              		.section	.text.iotx_alcs_coap_adapter_send_msg_handle,"ax",@progbits
 453              		.align	1
 454              		.globl	iotx_alcs_coap_adapter_send_msg_handle
 456              	iotx_alcs_coap_adapter_send_msg_handle:
 457              	.LFB25:
 118:C:/Users/stapi/OneDrive/Desktop/GD32VW553/V1_MQTT_OK/GD32VW55X_Wifi_BLE_SDK/GD32VW55x_RELEASE_V1.0.2/MSDK/cloud/alicloud/src/protocol/alcs\alcs_adapter.c ****     int res = 0;
 458              		.loc 1 118 1 is_stmt 1
 459              		.cfi_startproc
 460              	.LVL45:
 461 0000 17030000 		call	t0,__riscv_save_4
 461      E7020300 
 462              		.cfi_offset 19, -20
 463              		.cfi_offset 18, -16
 464              		.cfi_offset 9, -12
 465              		.cfi_offset 8, -8
 466              		.cfi_offset 1, -4
 467              		.cfi_def_cfa_offset 32
 119:C:/Users/stapi/OneDrive/Desktop/GD32VW553/V1_MQTT_OK/GD32VW55X_Wifi_BLE_SDK/GD32VW55x_RELEASE_V1.0.2/MSDK/cloud/alicloud/src/protocol/alcs\alcs_adapter.c ****     iotx_alcs_adapter_t *adapter = (iotx_alcs_adapter_t *)userdata;
 468              		.loc 1 119 5
 469              	.LVL46:
 120:C:/Users/stapi/OneDrive/Desktop/GD32VW553/V1_MQTT_OK/GD32VW55X_Wifi_BLE_SDK/GD32VW55x_RELEASE_V1.0.2/MSDK/cloud/alicloud/src/protocol/alcs\alcs_adapter.c ****     iotx_alcs_event_msg_t event;
 470              		.loc 1 120 5
 118:C:/Users/stapi/OneDrive/Desktop/GD32VW553/V1_MQTT_OK/GD32VW55X_Wifi_BLE_SDK/GD32VW55x_RELEASE_V1.0.2/MSDK/cloud/alicloud/src/protocol/alcs\alcs_adapter.c ****     int res = 0;
 471              		.loc 1 118 1 is_stmt 0
 472 0008 7971     		addi	sp,sp,-48
 473              		.cfi_def_cfa_offset 80
 122:C:/Users/stapi/OneDrive/Desktop/GD32VW553/V1_MQTT_OK/GD32VW55X_Wifi_BLE_SDK/GD32VW55x_RELEASE_V1.0.2/MSDK/cloud/alicloud/src/protocol/alcs\alcs_adapter.c **** 
 474              		.loc 1 122 5
 475 000a 02C6     		sw	zero,12(sp)
 476 000c 02C8     		sw	zero,16(sp)
 118:C:/Users/stapi/OneDrive/Desktop/GD32VW553/V1_MQTT_OK/GD32VW55X_Wifi_BLE_SDK/GD32VW55x_RELEASE_V1.0.2/MSDK/cloud/alicloud/src/protocol/alcs\alcs_adapter.c ****     int res = 0;
 477              		.loc 1 118 1
 478 000e 3284     		mv	s0,a2
 479              	.LVL47:
 121:C:/Users/stapi/OneDrive/Desktop/GD32VW553/V1_MQTT_OK/GD32VW55X_Wifi_BLE_SDK/GD32VW55x_RELEASE_V1.0.2/MSDK/cloud/alicloud/src/protocol/alcs\alcs_adapter.c ****     memset(&event, 0, sizeof(iotx_alcs_event_msg_t));
 480              		.loc 1 121 5 is_stmt 1
 122:C:/Users/stapi/OneDrive/Desktop/GD32VW553/V1_MQTT_OK/GD32VW55X_Wifi_BLE_SDK/GD32VW55x_RELEASE_V1.0.2/MSDK/cloud/alicloud/src/protocol/alcs\alcs_adapter.c **** 
 481              		.loc 1 122 5
 124:C:/Users/stapi/OneDrive/Desktop/GD32VW553/V1_MQTT_OK/GD32VW55X_Wifi_BLE_SDK/GD32VW55x_RELEASE_V1.0.2/MSDK/cloud/alicloud/src/protocol/alcs\alcs_adapter.c ****         case COAP_REQUEST_SUCCESS: {
 482              		.loc 1 124 5
 118:C:/Users/stapi/OneDrive/Desktop/GD32VW553/V1_MQTT_OK/GD32VW55X_Wifi_BLE_SDK/GD32VW55x_RELEASE_V1.0.2/MSDK/cloud/alicloud/src/protocol/alcs\alcs_adapter.c ****     int res = 0;
 483              		.loc 1 118 1 is_stmt 0
 484 0010 B689     		mv	s3,a3
 485 0012 3A89     		mv	s2,a4
 124:C:/Users/stapi/OneDrive/Desktop/GD32VW553/V1_MQTT_OK/GD32VW55X_Wifi_BLE_SDK/GD32VW55x_RELEASE_V1.0.2/MSDK/cloud/alicloud/src/protocol/alcs\alcs_adapter.c ****         case COAP_REQUEST_SUCCESS: {
 486              		.loc 1 124 5
 487 0014 9DCD     		beq	a1,zero,.L27
 488 0016 8547     		li	a5,1
 489 0018 AE84     		mv	s1,a1
 490 001a 638BF50C 		beq	a1,a5,.L28
 190:C:/Users/stapi/OneDrive/Desktop/GD32VW553/V1_MQTT_OK/GD32VW55X_Wifi_BLE_SDK/GD32VW55x_RELEASE_V1.0.2/MSDK/cloud/alicloud/src/protocol/alcs\alcs_adapter.c ****             break;
 491              		.loc 1 190 13 is_stmt 1
 190:C:/Users/stapi/OneDrive/Desktop/GD32VW553/V1_MQTT_OK/GD32VW55X_Wifi_BLE_SDK/GD32VW55x_RELEASE_V1.0.2/MSDK/cloud/alicloud/src/protocol/alcs\alcs_adapter.c ****             break;
 492              		.loc 1 190 13
 493 001e 37050000 		lui	a0,%hi(.LC5)
 494              	.LVL48:
 495 0022 13050500 		addi	a0,a0,%lo(.LC5)
 496 0026 97000000 		call	HAL_Printf
 496      E7800000 
 497              	.LVL49:
 190:C:/Users/stapi/OneDrive/Desktop/GD32VW553/V1_MQTT_OK/GD32VW55X_Wifi_BLE_SDK/GD32VW55x_RELEASE_V1.0.2/MSDK/cloud/alicloud/src/protocol/alcs\alcs_adapter.c ****             break;
 498              		.loc 1 190 13
 499 002e 37050000 		lui	a0,%hi(.LC6)
 500 0032 A685     		mv	a1,s1
 501 0034 13050500 		addi	a0,a0,%lo(.LC6)
 502 0038 97000000 		call	HAL_Printf
 502      E7800000 
 503              	.LVL50:
 190:C:/Users/stapi/OneDrive/Desktop/GD32VW553/V1_MQTT_OK/GD32VW55X_Wifi_BLE_SDK/GD32VW55x_RELEASE_V1.0.2/MSDK/cloud/alicloud/src/protocol/alcs\alcs_adapter.c ****             break;
 504              		.loc 1 190 13
 505 0040 37050000 		lui	a0,%hi(.LC2)
 506 0044 13050500 		addi	a0,a0,%lo(.LC2)
 507 0048 97000000 		call	HAL_Printf
 507      E7800000 
 508              	.LVL51:
 190:C:/Users/stapi/OneDrive/Desktop/GD32VW553/V1_MQTT_OK/GD32VW55X_Wifi_BLE_SDK/GD32VW55x_RELEASE_V1.0.2/MSDK/cloud/alicloud/src/protocol/alcs\alcs_adapter.c ****             break;
 509              		.loc 1 190 13
 191:C:/Users/stapi/OneDrive/Desktop/GD32VW553/V1_MQTT_OK/GD32VW55X_Wifi_BLE_SDK/GD32VW55x_RELEASE_V1.0.2/MSDK/cloud/alicloud/src/protocol/alcs\alcs_adapter.c ****     }
 510              		.loc 1 191 13
 511 0050 59A8     		j	.L26
 512              	.LVL52:
 513              	.L27:
 514              	.LBB20:
 126:C:/Users/stapi/OneDrive/Desktop/GD32VW553/V1_MQTT_OK/GD32VW55X_Wifi_BLE_SDK/GD32VW55x_RELEASE_V1.0.2/MSDK/cloud/alicloud/src/protocol/alcs\alcs_adapter.c ****             iotx_alcs_send_msg_t *send_msg = NULL;
 515              		.loc 1 126 13
 127:C:/Users/stapi/OneDrive/Desktop/GD32VW553/V1_MQTT_OK/GD32VW55X_Wifi_BLE_SDK/GD32VW55x_RELEASE_V1.0.2/MSDK/cloud/alicloud/src/protocol/alcs\alcs_adapter.c **** 
 516              		.loc 1 127 13
 129:C:/Users/stapi/OneDrive/Desktop/GD32VW553/V1_MQTT_OK/GD32VW55X_Wifi_BLE_SDK/GD32VW55x_RELEASE_V1.0.2/MSDK/cloud/alicloud/src/protocol/alcs\alcs_adapter.c **** 
 517              		.loc 1 129 13 is_stmt 0
 518 0052 6146     		li	a2,24
 519 0054 2808     		addi	a0,sp,24
 520              	.LVL53:
 127:C:/Users/stapi/OneDrive/Desktop/GD32VW553/V1_MQTT_OK/GD32VW55X_Wifi_BLE_SDK/GD32VW55x_RELEASE_V1.0.2/MSDK/cloud/alicloud/src/protocol/alcs\alcs_adapter.c **** 
 521              		.loc 1 127 35
 522 0056 02C4     		sw	zero,8(sp)
 129:C:/Users/stapi/OneDrive/Desktop/GD32VW553/V1_MQTT_OK/GD32VW55X_Wifi_BLE_SDK/GD32VW55x_RELEASE_V1.0.2/MSDK/cloud/alicloud/src/protocol/alcs\alcs_adapter.c **** 
 523              		.loc 1 129 13 is_stmt 1
 524 0058 97000000 		call	memset
 524      E7800000 
 525              	.LVL54:
 131:C:/Users/stapi/OneDrive/Desktop/GD32VW553/V1_MQTT_OK/GD32VW55X_Wifi_BLE_SDK/GD32VW55x_RELEASE_V1.0.2/MSDK/cloud/alicloud/src/protocol/alcs\alcs_adapter.c ****             transfer_msg.port = remote->port;
 526              		.loc 1 131 13
 132:C:/Users/stapi/OneDrive/Desktop/GD32VW553/V1_MQTT_OK/GD32VW55X_Wifi_BLE_SDK/GD32VW55x_RELEASE_V1.0.2/MSDK/cloud/alicloud/src/protocol/alcs\alcs_adapter.c ****             HAL_MutexLock(adapter->mutex);
 527              		.loc 1 132 31 is_stmt 0
 528 0060 83D70901 		lhu	a5,16(s3)
 133:C:/Users/stapi/OneDrive/Desktop/GD32VW553/V1_MQTT_OK/GD32VW55X_Wifi_BLE_SDK/GD32VW55x_RELEASE_V1.0.2/MSDK/cloud/alicloud/src/protocol/alcs\alcs_adapter.c ****             res = _iotx_alcs_send_list_search_and_remove(adapter, message, &send_msg);
 529              		.loc 1 133 13
 530 0064 0840     		lw	a0,0(s0)
 131:C:/Users/stapi/OneDrive/Desktop/GD32VW553/V1_MQTT_OK/GD32VW55X_Wifi_BLE_SDK/GD32VW55x_RELEASE_V1.0.2/MSDK/cloud/alicloud/src/protocol/alcs\alcs_adapter.c ****             transfer_msg.port = remote->port;
 531              		.loc 1 131 29
 532 0066 4ECA     		sw	s3,20(sp)
 132:C:/Users/stapi/OneDrive/Desktop/GD32VW553/V1_MQTT_OK/GD32VW55X_Wifi_BLE_SDK/GD32VW55x_RELEASE_V1.0.2/MSDK/cloud/alicloud/src/protocol/alcs\alcs_adapter.c ****             HAL_MutexLock(adapter->mutex);
 533              		.loc 1 132 13 is_stmt 1
 132:C:/Users/stapi/OneDrive/Desktop/GD32VW553/V1_MQTT_OK/GD32VW55X_Wifi_BLE_SDK/GD32VW55x_RELEASE_V1.0.2/MSDK/cloud/alicloud/src/protocol/alcs\alcs_adapter.c ****             HAL_MutexLock(adapter->mutex);
 534              		.loc 1 132 31 is_stmt 0
 535 0068 231CF100 		sh	a5,24(sp)
 133:C:/Users/stapi/OneDrive/Desktop/GD32VW553/V1_MQTT_OK/GD32VW55X_Wifi_BLE_SDK/GD32VW55x_RELEASE_V1.0.2/MSDK/cloud/alicloud/src/protocol/alcs\alcs_adapter.c ****             res = _iotx_alcs_send_list_search_and_remove(adapter, message, &send_msg);
 536              		.loc 1 133 13 is_stmt 1
 537 006c 97000000 		call	HAL_MutexLock
 537      E7800000 
 538              	.LVL55:
 134:C:/Users/stapi/OneDrive/Desktop/GD32VW553/V1_MQTT_OK/GD32VW55X_Wifi_BLE_SDK/GD32VW55x_RELEASE_V1.0.2/MSDK/cloud/alicloud/src/protocol/alcs\alcs_adapter.c ****             HAL_MutexUnlock(adapter->mutex);
 539              		.loc 1 134 13
 134:C:/Users/stapi/OneDrive/Desktop/GD32VW553/V1_MQTT_OK/GD32VW55X_Wifi_BLE_SDK/GD32VW55x_RELEASE_V1.0.2/MSDK/cloud/alicloud/src/protocol/alcs\alcs_adapter.c ****             HAL_MutexUnlock(adapter->mutex);
 540              		.loc 1 134 19 is_stmt 0
 541 0074 3000     		addi	a2,sp,8
 542 0076 CA85     		mv	a1,s2
 543 0078 2285     		mv	a0,s0
 544 007a 97000000 		call	_iotx_alcs_send_list_search_and_remove
 544      E7800000 
 545              	.LVL56:
 546 0082 AA84     		mv	s1,a0
 547              	.LVL57:
 135:C:/Users/stapi/OneDrive/Desktop/GD32VW553/V1_MQTT_OK/GD32VW55X_Wifi_BLE_SDK/GD32VW55x_RELEASE_V1.0.2/MSDK/cloud/alicloud/src/protocol/alcs\alcs_adapter.c **** 
 548              		.loc 1 135 13 is_stmt 1
 549 0084 0840     		lw	a0,0(s0)
 550 0086 97000000 		call	HAL_MutexUnlock
 550      E7800000 
 551              	.LVL58:
 137:C:/Users/stapi/OneDrive/Desktop/GD32VW553/V1_MQTT_OK/GD32VW55X_Wifi_BLE_SDK/GD32VW55x_RELEASE_V1.0.2/MSDK/cloud/alicloud/src/protocol/alcs\alcs_adapter.c ****                 return;
 552              		.loc 1 137 13
 137:C:/Users/stapi/OneDrive/Desktop/GD32VW553/V1_MQTT_OK/GD32VW55X_Wifi_BLE_SDK/GD32VW55x_RELEASE_V1.0.2/MSDK/cloud/alicloud/src/protocol/alcs\alcs_adapter.c ****                 return;
 553              		.loc 1 137 16 is_stmt 0
 554 008e 63CC0404 		blt	s1,zero,.L26
 141:C:/Users/stapi/OneDrive/Desktop/GD32VW553/V1_MQTT_OK/GD32VW55X_Wifi_BLE_SDK/GD32VW55x_RELEASE_V1.0.2/MSDK/cloud/alicloud/src/protocol/alcs\alcs_adapter.c ****             transfer_msg.token_len = send_msg->token_len;
 555              		.loc 1 141 13 is_stmt 1
 141:C:/Users/stapi/OneDrive/Desktop/GD32VW553/V1_MQTT_OK/GD32VW55X_Wifi_BLE_SDK/GD32VW55x_RELEASE_V1.0.2/MSDK/cloud/alicloud/src/protocol/alcs\alcs_adapter.c ****             transfer_msg.token_len = send_msg->token_len;
 556              		.loc 1 141 40 is_stmt 0
 557 0092 A247     		lw	a5,8(sp)
 141:C:/Users/stapi/OneDrive/Desktop/GD32VW553/V1_MQTT_OK/GD32VW55X_Wifi_BLE_SDK/GD32VW55x_RELEASE_V1.0.2/MSDK/cloud/alicloud/src/protocol/alcs\alcs_adapter.c ****             transfer_msg.token_len = send_msg->token_len;
 558              		.loc 1 141 30
 559 0094 9847     		lw	a4,8(a5)
 560 0096 3ACE     		sw	a4,28(sp)
 142:C:/Users/stapi/OneDrive/Desktop/GD32VW553/V1_MQTT_OK/GD32VW55X_Wifi_BLE_SDK/GD32VW55x_RELEASE_V1.0.2/MSDK/cloud/alicloud/src/protocol/alcs\alcs_adapter.c ****             transfer_msg.token = send_msg->token;
 561              		.loc 1 142 13 is_stmt 1
 142:C:/Users/stapi/OneDrive/Desktop/GD32VW553/V1_MQTT_OK/GD32VW55X_Wifi_BLE_SDK/GD32VW55x_RELEASE_V1.0.2/MSDK/cloud/alicloud/src/protocol/alcs\alcs_adapter.c ****             transfer_msg.token = send_msg->token;
 562              		.loc 1 142 36 is_stmt 0
 563 0098 03C70700 		lbu	a4,0(a5)
 147:C:/Users/stapi/OneDrive/Desktop/GD32VW553/V1_MQTT_OK/GD32VW55X_Wifi_BLE_SDK/GD32VW55x_RELEASE_V1.0.2/MSDK/cloud/alicloud/src/protocol/alcs\alcs_adapter.c ****             event.msg = &transfer_msg;
 564              		.loc 1 147 30
 565 009c 02C6     		sw	zero,12(sp)
 142:C:/Users/stapi/OneDrive/Desktop/GD32VW553/V1_MQTT_OK/GD32VW55X_Wifi_BLE_SDK/GD32VW55x_RELEASE_V1.0.2/MSDK/cloud/alicloud/src/protocol/alcs\alcs_adapter.c ****             transfer_msg.token = send_msg->token;
 566              		.loc 1 142 36
 567 009e 2300E102 		sb	a4,32(sp)
 143:C:/Users/stapi/OneDrive/Desktop/GD32VW553/V1_MQTT_OK/GD32VW55X_Wifi_BLE_SDK/GD32VW55x_RELEASE_V1.0.2/MSDK/cloud/alicloud/src/protocol/alcs\alcs_adapter.c ****             transfer_msg.payload_len = message->payloadlen;
 568              		.loc 1 143 13 is_stmt 1
 143:C:/Users/stapi/OneDrive/Desktop/GD32VW553/V1_MQTT_OK/GD32VW55X_Wifi_BLE_SDK/GD32VW55x_RELEASE_V1.0.2/MSDK/cloud/alicloud/src/protocol/alcs\alcs_adapter.c ****             transfer_msg.payload_len = message->payloadlen;
 569              		.loc 1 143 32 is_stmt 0
 570 00a2 DC43     		lw	a5,4(a5)
 571 00a4 3ED2     		sw	a5,36(sp)
 144:C:/Users/stapi/OneDrive/Desktop/GD32VW553/V1_MQTT_OK/GD32VW55X_Wifi_BLE_SDK/GD32VW55x_RELEASE_V1.0.2/MSDK/cloud/alicloud/src/protocol/alcs\alcs_adapter.c ****             transfer_msg.payload = message->payload;
 572              		.loc 1 144 13 is_stmt 1
 144:C:/Users/stapi/OneDrive/Desktop/GD32VW553/V1_MQTT_OK/GD32VW55X_Wifi_BLE_SDK/GD32VW55x_RELEASE_V1.0.2/MSDK/cloud/alicloud/src/protocol/alcs\alcs_adapter.c ****             transfer_msg.payload = message->payload;
 573              		.loc 1 144 38 is_stmt 0
 574 00a6 8357E906 		lhu	a5,110(s2)
 575 00aa 2314F102 		sh	a5,40(sp)
 145:C:/Users/stapi/OneDrive/Desktop/GD32VW553/V1_MQTT_OK/GD32VW55X_Wifi_BLE_SDK/GD32VW55x_RELEASE_V1.0.2/MSDK/cloud/alicloud/src/protocol/alcs\alcs_adapter.c **** 
 576              		.loc 1 145 13 is_stmt 1
 145:C:/Users/stapi/OneDrive/Desktop/GD32VW553/V1_MQTT_OK/GD32VW55X_Wifi_BLE_SDK/GD32VW55x_RELEASE_V1.0.2/MSDK/cloud/alicloud/src/protocol/alcs\alcs_adapter.c **** 
 577              		.loc 1 145 34 is_stmt 0
 578 00ae 83270907 		lw	a5,112(s2)
 579 00b2 3ED6     		sw	a5,44(sp)
 147:C:/Users/stapi/OneDrive/Desktop/GD32VW553/V1_MQTT_OK/GD32VW55X_Wifi_BLE_SDK/GD32VW55x_RELEASE_V1.0.2/MSDK/cloud/alicloud/src/protocol/alcs\alcs_adapter.c ****             event.msg = &transfer_msg;
 580              		.loc 1 147 13 is_stmt 1
 148:C:/Users/stapi/OneDrive/Desktop/GD32VW553/V1_MQTT_OK/GD32VW55X_Wifi_BLE_SDK/GD32VW55x_RELEASE_V1.0.2/MSDK/cloud/alicloud/src/protocol/alcs\alcs_adapter.c **** 
 581              		.loc 1 148 13
 582              	.LVL59:
 583              	.L35:
 584              	.LBE20:
 585              	.LBB21:
 180:C:/Users/stapi/OneDrive/Desktop/GD32VW553/V1_MQTT_OK/GD32VW55X_Wifi_BLE_SDK/GD32VW55x_RELEASE_V1.0.2/MSDK/cloud/alicloud/src/protocol/alcs\alcs_adapter.c **** 
 586              		.loc 1 180 13
 180:C:/Users/stapi/OneDrive/Desktop/GD32VW553/V1_MQTT_OK/GD32VW55X_Wifi_BLE_SDK/GD32VW55x_RELEASE_V1.0.2/MSDK/cloud/alicloud/src/protocol/alcs\alcs_adapter.c **** 
 587              		.loc 1 180 23 is_stmt 0
 588 00b4 5C08     		addi	a5,sp,20
 589 00b6 3EC8     		sw	a5,16(sp)
 182:C:/Users/stapi/OneDrive/Desktop/GD32VW553/V1_MQTT_OK/GD32VW55X_Wifi_BLE_SDK/GD32VW55x_RELEASE_V1.0.2/MSDK/cloud/alicloud/src/protocol/alcs\alcs_adapter.c **** 
 590              		.loc 1 182 13 is_stmt 1
 182:C:/Users/stapi/OneDrive/Desktop/GD32VW553/V1_MQTT_OK/GD32VW55X_Wifi_BLE_SDK/GD32VW55x_RELEASE_V1.0.2/MSDK/cloud/alicloud/src/protocol/alcs\alcs_adapter.c **** 
 591              		.loc 1 182 20 is_stmt 0
 592 00b8 1C4C     		lw	a5,24(s0)
 182:C:/Users/stapi/OneDrive/Desktop/GD32VW553/V1_MQTT_OK/GD32VW55X_Wifi_BLE_SDK/GD32VW55x_RELEASE_V1.0.2/MSDK/cloud/alicloud/src/protocol/alcs\alcs_adapter.c **** 
 593              		.loc 1 182 13
 594 00ba 7000     		addi	a2,sp,12
 595 00bc A285     		mv	a1,s0
 596 00be 9843     		lw	a4,0(a5)
 597 00c0 C843     		lw	a0,4(a5)
 598 00c2 0297     		jalr	a4
 599              	.LVL60:
 184:C:/Users/stapi/OneDrive/Desktop/GD32VW553/V1_MQTT_OK/GD32VW55X_Wifi_BLE_SDK/GD32VW55x_RELEASE_V1.0.2/MSDK/cloud/alicloud/src/protocol/alcs\alcs_adapter.c ****             LITE_free(send_msg->uri);
 600              		.loc 1 184 13 is_stmt 1
 601 00c4 A247     		lw	a5,8(sp)
 602 00c6 C843     		lw	a0,4(a5)
 603 00c8 97000000 		call	LITE_free_internal
 603      E7800000 
 604              	.LVL61:
 185:C:/Users/stapi/OneDrive/Desktop/GD32VW553/V1_MQTT_OK/GD32VW55X_Wifi_BLE_SDK/GD32VW55x_RELEASE_V1.0.2/MSDK/cloud/alicloud/src/protocol/alcs\alcs_adapter.c ****             LITE_free(send_msg);
 605              		.loc 1 185 13
 606 00d0 A247     		lw	a5,8(sp)
 607 00d2 8847     		lw	a0,8(a5)
 608 00d4 97000000 		call	LITE_free_internal
 608      E7800000 
 609              	.LVL62:
 186:C:/Users/stapi/OneDrive/Desktop/GD32VW553/V1_MQTT_OK/GD32VW55X_Wifi_BLE_SDK/GD32VW55x_RELEASE_V1.0.2/MSDK/cloud/alicloud/src/protocol/alcs\alcs_adapter.c ****         }
 610              		.loc 1 186 13
 611 00dc 2245     		lw	a0,8(sp)
 612 00de 97000000 		call	LITE_free_internal
 612      E7800000 
 613              	.LVL63:
 614              	.LBE21:
 188:C:/Users/stapi/OneDrive/Desktop/GD32VW553/V1_MQTT_OK/GD32VW55X_Wifi_BLE_SDK/GD32VW55x_RELEASE_V1.0.2/MSDK/cloud/alicloud/src/protocol/alcs\alcs_adapter.c ****         default:
 615              		.loc 1 188 9
 616              	.L26:
 193:C:/Users/stapi/OneDrive/Desktop/GD32VW553/V1_MQTT_OK/GD32VW55X_Wifi_BLE_SDK/GD32VW55x_RELEASE_V1.0.2/MSDK/cloud/alicloud/src/protocol/alcs\alcs_adapter.c **** 
 617              		.loc 1 193 1 is_stmt 0
 618 00e6 4561     		addi	sp,sp,48
 619              		.cfi_remember_state
 620              		.cfi_def_cfa_offset 0
 621 00e8 17030000 		tail	__riscv_restore_4
 621      67000300 
 622              		.cfi_restore 19
 623              		.cfi_restore 18
 624              		.cfi_restore 9
 625              		.cfi_restore 8
 626              		.cfi_restore 1
 627              		.cfi_def_cfa_offset -32
 628              	.LVL64:
 629              	.L28:
 630              		.cfi_restore_state
 631              	.LBB22:
 158:C:/Users/stapi/OneDrive/Desktop/GD32VW553/V1_MQTT_OK/GD32VW55X_Wifi_BLE_SDK/GD32VW55x_RELEASE_V1.0.2/MSDK/cloud/alicloud/src/protocol/alcs\alcs_adapter.c ****             iotx_alcs_send_msg_t *send_msg = NULL;
 632              		.loc 1 158 13 is_stmt 1
 159:C:/Users/stapi/OneDrive/Desktop/GD32VW553/V1_MQTT_OK/GD32VW55X_Wifi_BLE_SDK/GD32VW55x_RELEASE_V1.0.2/MSDK/cloud/alicloud/src/protocol/alcs\alcs_adapter.c **** 
 633              		.loc 1 159 13
 161:C:/Users/stapi/OneDrive/Desktop/GD32VW553/V1_MQTT_OK/GD32VW55X_Wifi_BLE_SDK/GD32VW55x_RELEASE_V1.0.2/MSDK/cloud/alicloud/src/protocol/alcs\alcs_adapter.c **** 
 634              		.loc 1 161 13 is_stmt 0
 635 00f0 6146     		li	a2,24
 636 00f2 8145     		li	a1,0
 637 00f4 2808     		addi	a0,sp,24
 638              	.LVL65:
 159:C:/Users/stapi/OneDrive/Desktop/GD32VW553/V1_MQTT_OK/GD32VW55X_Wifi_BLE_SDK/GD32VW55x_RELEASE_V1.0.2/MSDK/cloud/alicloud/src/protocol/alcs\alcs_adapter.c **** 
 639              		.loc 1 159 35
 640 00f6 02C4     		sw	zero,8(sp)
 161:C:/Users/stapi/OneDrive/Desktop/GD32VW553/V1_MQTT_OK/GD32VW55X_Wifi_BLE_SDK/GD32VW55x_RELEASE_V1.0.2/MSDK/cloud/alicloud/src/protocol/alcs\alcs_adapter.c **** 
 641              		.loc 1 161 13 is_stmt 1
 642 00f8 97000000 		call	memset
 642      E7800000 
 643              	.LVL66:
 163:C:/Users/stapi/OneDrive/Desktop/GD32VW553/V1_MQTT_OK/GD32VW55X_Wifi_BLE_SDK/GD32VW55x_RELEASE_V1.0.2/MSDK/cloud/alicloud/src/protocol/alcs\alcs_adapter.c ****             transfer_msg.port = remote->port;
 644              		.loc 1 163 13
 164:C:/Users/stapi/OneDrive/Desktop/GD32VW553/V1_MQTT_OK/GD32VW55X_Wifi_BLE_SDK/GD32VW55x_RELEASE_V1.0.2/MSDK/cloud/alicloud/src/protocol/alcs\alcs_adapter.c ****             HAL_MutexLock(adapter->mutex);
 645              		.loc 1 164 31 is_stmt 0
 646 0100 83D70901 		lhu	a5,16(s3)
 165:C:/Users/stapi/OneDrive/Desktop/GD32VW553/V1_MQTT_OK/GD32VW55X_Wifi_BLE_SDK/GD32VW55x_RELEASE_V1.0.2/MSDK/cloud/alicloud/src/protocol/alcs\alcs_adapter.c ****             res = _iotx_alcs_send_list_search_and_remove(adapter, message, &send_msg);
 647              		.loc 1 165 13
 648 0104 0840     		lw	a0,0(s0)
 163:C:/Users/stapi/OneDrive/Desktop/GD32VW553/V1_MQTT_OK/GD32VW55X_Wifi_BLE_SDK/GD32VW55x_RELEASE_V1.0.2/MSDK/cloud/alicloud/src/protocol/alcs\alcs_adapter.c ****             transfer_msg.port = remote->port;
 649              		.loc 1 163 29
 650 0106 4ECA     		sw	s3,20(sp)
 164:C:/Users/stapi/OneDrive/Desktop/GD32VW553/V1_MQTT_OK/GD32VW55X_Wifi_BLE_SDK/GD32VW55x_RELEASE_V1.0.2/MSDK/cloud/alicloud/src/protocol/alcs\alcs_adapter.c ****             HAL_MutexLock(adapter->mutex);
 651              		.loc 1 164 13 is_stmt 1
 164:C:/Users/stapi/OneDrive/Desktop/GD32VW553/V1_MQTT_OK/GD32VW55X_Wifi_BLE_SDK/GD32VW55x_RELEASE_V1.0.2/MSDK/cloud/alicloud/src/protocol/alcs\alcs_adapter.c ****             HAL_MutexLock(adapter->mutex);
 652              		.loc 1 164 31 is_stmt 0
 653 0108 231CF100 		sh	a5,24(sp)
 165:C:/Users/stapi/OneDrive/Desktop/GD32VW553/V1_MQTT_OK/GD32VW55X_Wifi_BLE_SDK/GD32VW55x_RELEASE_V1.0.2/MSDK/cloud/alicloud/src/protocol/alcs\alcs_adapter.c ****             res = _iotx_alcs_send_list_search_and_remove(adapter, message, &send_msg);
 654              		.loc 1 165 13 is_stmt 1
 655 010c 97000000 		call	HAL_MutexLock
 655      E7800000 
 656              	.LVL67:
 166:C:/Users/stapi/OneDrive/Desktop/GD32VW553/V1_MQTT_OK/GD32VW55X_Wifi_BLE_SDK/GD32VW55x_RELEASE_V1.0.2/MSDK/cloud/alicloud/src/protocol/alcs\alcs_adapter.c ****             HAL_MutexUnlock(adapter->mutex);
 657              		.loc 1 166 13
 166:C:/Users/stapi/OneDrive/Desktop/GD32VW553/V1_MQTT_OK/GD32VW55X_Wifi_BLE_SDK/GD32VW55x_RELEASE_V1.0.2/MSDK/cloud/alicloud/src/protocol/alcs\alcs_adapter.c ****             HAL_MutexUnlock(adapter->mutex);
 658              		.loc 1 166 19 is_stmt 0
 659 0114 CA85     		mv	a1,s2
 660 0116 3000     		addi	a2,sp,8
 661 0118 2285     		mv	a0,s0
 662 011a 97000000 		call	_iotx_alcs_send_list_search_and_remove
 662      E7800000 
 663              	.LVL68:
 664 0122 2A89     		mv	s2,a0
 665              	.LVL69:
 167:C:/Users/stapi/OneDrive/Desktop/GD32VW553/V1_MQTT_OK/GD32VW55X_Wifi_BLE_SDK/GD32VW55x_RELEASE_V1.0.2/MSDK/cloud/alicloud/src/protocol/alcs\alcs_adapter.c **** 
 666              		.loc 1 167 13 is_stmt 1
 667 0124 0840     		lw	a0,0(s0)
 668              	.LVL70:
 669 0126 97000000 		call	HAL_MutexUnlock
 669      E7800000 
 670              	.LVL71:
 169:C:/Users/stapi/OneDrive/Desktop/GD32VW553/V1_MQTT_OK/GD32VW55X_Wifi_BLE_SDK/GD32VW55x_RELEASE_V1.0.2/MSDK/cloud/alicloud/src/protocol/alcs\alcs_adapter.c ****                 return;
 671              		.loc 1 169 13
 169:C:/Users/stapi/OneDrive/Desktop/GD32VW553/V1_MQTT_OK/GD32VW55X_Wifi_BLE_SDK/GD32VW55x_RELEASE_V1.0.2/MSDK/cloud/alicloud/src/protocol/alcs\alcs_adapter.c ****                 return;
 672              		.loc 1 169 16 is_stmt 0
 673 012e E34C09FA 		blt	s2,zero,.L26
 173:C:/Users/stapi/OneDrive/Desktop/GD32VW553/V1_MQTT_OK/GD32VW55X_Wifi_BLE_SDK/GD32VW55x_RELEASE_V1.0.2/MSDK/cloud/alicloud/src/protocol/alcs\alcs_adapter.c ****             transfer_msg.token_len = send_msg->token_len;
 674              		.loc 1 173 13 is_stmt 1
 173:C:/Users/stapi/OneDrive/Desktop/GD32VW553/V1_MQTT_OK/GD32VW55X_Wifi_BLE_SDK/GD32VW55x_RELEASE_V1.0.2/MSDK/cloud/alicloud/src/protocol/alcs\alcs_adapter.c ****             transfer_msg.token_len = send_msg->token_len;
 675              		.loc 1 173 40 is_stmt 0
 676 0132 A247     		lw	a5,8(sp)
 173:C:/Users/stapi/OneDrive/Desktop/GD32VW553/V1_MQTT_OK/GD32VW55X_Wifi_BLE_SDK/GD32VW55x_RELEASE_V1.0.2/MSDK/cloud/alicloud/src/protocol/alcs\alcs_adapter.c ****             transfer_msg.token_len = send_msg->token_len;
 677              		.loc 1 173 30
 678 0134 9847     		lw	a4,8(a5)
 679 0136 3ACE     		sw	a4,28(sp)
 174:C:/Users/stapi/OneDrive/Desktop/GD32VW553/V1_MQTT_OK/GD32VW55X_Wifi_BLE_SDK/GD32VW55x_RELEASE_V1.0.2/MSDK/cloud/alicloud/src/protocol/alcs\alcs_adapter.c ****             transfer_msg.token = send_msg->token;
 680              		.loc 1 174 13 is_stmt 1
 174:C:/Users/stapi/OneDrive/Desktop/GD32VW553/V1_MQTT_OK/GD32VW55X_Wifi_BLE_SDK/GD32VW55x_RELEASE_V1.0.2/MSDK/cloud/alicloud/src/protocol/alcs\alcs_adapter.c ****             transfer_msg.token = send_msg->token;
 681              		.loc 1 174 36 is_stmt 0
 682 0138 03C70700 		lbu	a4,0(a5)
 179:C:/Users/stapi/OneDrive/Desktop/GD32VW553/V1_MQTT_OK/GD32VW55X_Wifi_BLE_SDK/GD32VW55x_RELEASE_V1.0.2/MSDK/cloud/alicloud/src/protocol/alcs\alcs_adapter.c ****             event.msg = &transfer_msg;
 683              		.loc 1 179 30
 684 013c 26C6     		sw	s1,12(sp)
 174:C:/Users/stapi/OneDrive/Desktop/GD32VW553/V1_MQTT_OK/GD32VW55X_Wifi_BLE_SDK/GD32VW55x_RELEASE_V1.0.2/MSDK/cloud/alicloud/src/protocol/alcs\alcs_adapter.c ****             transfer_msg.token = send_msg->token;
 685              		.loc 1 174 36
 686 013e 2300E102 		sb	a4,32(sp)
 175:C:/Users/stapi/OneDrive/Desktop/GD32VW553/V1_MQTT_OK/GD32VW55X_Wifi_BLE_SDK/GD32VW55x_RELEASE_V1.0.2/MSDK/cloud/alicloud/src/protocol/alcs\alcs_adapter.c ****             transfer_msg.payload_len = 0;
 687              		.loc 1 175 13 is_stmt 1
 175:C:/Users/stapi/OneDrive/Desktop/GD32VW553/V1_MQTT_OK/GD32VW55X_Wifi_BLE_SDK/GD32VW55x_RELEASE_V1.0.2/MSDK/cloud/alicloud/src/protocol/alcs\alcs_adapter.c ****             transfer_msg.payload_len = 0;
 688              		.loc 1 175 32 is_stmt 0
 689 0142 DC43     		lw	a5,4(a5)
 176:C:/Users/stapi/OneDrive/Desktop/GD32VW553/V1_MQTT_OK/GD32VW55X_Wifi_BLE_SDK/GD32VW55x_RELEASE_V1.0.2/MSDK/cloud/alicloud/src/protocol/alcs\alcs_adapter.c ****             transfer_msg.payload = NULL;
 690              		.loc 1 176 38
 691 0144 23140102 		sh	zero,40(sp)
 177:C:/Users/stapi/OneDrive/Desktop/GD32VW553/V1_MQTT_OK/GD32VW55X_Wifi_BLE_SDK/GD32VW55x_RELEASE_V1.0.2/MSDK/cloud/alicloud/src/protocol/alcs\alcs_adapter.c **** 
 692              		.loc 1 177 34
 693 0148 02D6     		sw	zero,44(sp)
 175:C:/Users/stapi/OneDrive/Desktop/GD32VW553/V1_MQTT_OK/GD32VW55X_Wifi_BLE_SDK/GD32VW55x_RELEASE_V1.0.2/MSDK/cloud/alicloud/src/protocol/alcs\alcs_adapter.c ****             transfer_msg.payload_len = 0;
 694              		.loc 1 175 32
 695 014a 3ED2     		sw	a5,36(sp)
 176:C:/Users/stapi/OneDrive/Desktop/GD32VW553/V1_MQTT_OK/GD32VW55X_Wifi_BLE_SDK/GD32VW55x_RELEASE_V1.0.2/MSDK/cloud/alicloud/src/protocol/alcs\alcs_adapter.c ****             transfer_msg.payload = NULL;
 696              		.loc 1 176 13 is_stmt 1
 177:C:/Users/stapi/OneDrive/Desktop/GD32VW553/V1_MQTT_OK/GD32VW55X_Wifi_BLE_SDK/GD32VW55x_RELEASE_V1.0.2/MSDK/cloud/alicloud/src/protocol/alcs\alcs_adapter.c **** 
 697              		.loc 1 177 13
 179:C:/Users/stapi/OneDrive/Desktop/GD32VW553/V1_MQTT_OK/GD32VW55X_Wifi_BLE_SDK/GD32VW55x_RELEASE_V1.0.2/MSDK/cloud/alicloud/src/protocol/alcs\alcs_adapter.c ****             event.msg = &transfer_msg;
 698              		.loc 1 179 13
 699 014c A5B7     		j	.L35
 700              	.LBE22:
 701              		.cfi_endproc
 702              	.LFE25:
 704              		.section	.text.iotx_alcs_adapter_list_init,"ax",@progbits
 705              		.align	1
 706              		.globl	iotx_alcs_adapter_list_init
 708              	iotx_alcs_adapter_list_init:
 709              	.LFB27:
 200:C:/Users/stapi/OneDrive/Desktop/GD32VW553/V1_MQTT_OK/GD32VW55X_Wifi_BLE_SDK/GD32VW55x_RELEASE_V1.0.2/MSDK/cloud/alicloud/src/protocol/alcs\alcs_adapter.c **** 
 201:C:/Users/stapi/OneDrive/Desktop/GD32VW553/V1_MQTT_OK/GD32VW55X_Wifi_BLE_SDK/GD32VW55x_RELEASE_V1.0.2/MSDK/cloud/alicloud/src/protocol/alcs\alcs_adapter.c **** int iotx_alcs_adapter_list_init(iotx_alcs_adapter_t *adapter)
 202:C:/Users/stapi/OneDrive/Desktop/GD32VW553/V1_MQTT_OK/GD32VW55X_Wifi_BLE_SDK/GD32VW55x_RELEASE_V1.0.2/MSDK/cloud/alicloud/src/protocol/alcs\alcs_adapter.c **** {
 710              		.loc 1 202 1
 711              		.cfi_startproc
 712              	.LVL72:
 203:C:/Users/stapi/OneDrive/Desktop/GD32VW553/V1_MQTT_OK/GD32VW55X_Wifi_BLE_SDK/GD32VW55x_RELEASE_V1.0.2/MSDK/cloud/alicloud/src/protocol/alcs\alcs_adapter.c ****     //initialze send list
 204:C:/Users/stapi/OneDrive/Desktop/GD32VW553/V1_MQTT_OK/GD32VW55X_Wifi_BLE_SDK/GD32VW55x_RELEASE_V1.0.2/MSDK/cloud/alicloud/src/protocol/alcs\alcs_adapter.c ****     INIT_LIST_HEAD(&adapter->alcs_send_list);
 713              		.loc 1 204 5
 714              		.loc 1 204 20 is_stmt 0
 715 0000 9307C501 		addi	a5,a0,28
 716              	.LVL73:
 717              	.LBB23:
 718              	.LBB24:
  73:..\..\..\..\cloud\alicloud\src\infra\utils\misc/lite-list.h **** }
  74:..\..\..\..\cloud\alicloud\src\infra\utils\misc/lite-list.h **** 
  75:..\..\..\..\cloud\alicloud\src\infra\utils\misc/lite-list.h **** static inline void dlist_init(dlist_t *node)
  76:..\..\..\..\cloud\alicloud\src\infra\utils\misc/lite-list.h **** {
  77:..\..\..\..\cloud\alicloud\src\infra\utils\misc/lite-list.h ****     node->next = node->prev = node;
  78:..\..\..\..\cloud\alicloud\src\infra\utils\misc/lite-list.h **** }
  79:..\..\..\..\cloud\alicloud\src\infra\utils\misc/lite-list.h **** 
  80:..\..\..\..\cloud\alicloud\src\infra\utils\misc/lite-list.h **** static inline void INIT_AOS_DLIST_HEAD(dlist_t *list)
  81:..\..\..\..\cloud\alicloud\src\infra\utils\misc/lite-list.h **** {
  82:..\..\..\..\cloud\alicloud\src\infra\utils\misc/lite-list.h ****     list->next = list;
 719              		.loc 2 82 5 is_stmt 1
 720              		.loc 2 82 16 is_stmt 0
 721 0004 1CD1     		sw	a5,32(a0)
  83:..\..\..\..\cloud\alicloud\src\infra\utils\misc/lite-list.h ****     list->prev = list;
 722              		.loc 2 83 5 is_stmt 1
 723              		.loc 2 83 16 is_stmt 0
 724 0006 5CCD     		sw	a5,28(a0)
 725              	.LVL74:
 726              	.LBE24:
 727              	.LBE23:
 205:C:/Users/stapi/OneDrive/Desktop/GD32VW553/V1_MQTT_OK/GD32VW55X_Wifi_BLE_SDK/GD32VW55x_RELEASE_V1.0.2/MSDK/cloud/alicloud/src/protocol/alcs\alcs_adapter.c **** #ifdef DEVICE_MODEL_GATEWAY
 206:C:/Users/stapi/OneDrive/Desktop/GD32VW553/V1_MQTT_OK/GD32VW55X_Wifi_BLE_SDK/GD32VW55x_RELEASE_V1.0.2/MSDK/cloud/alicloud/src/protocol/alcs\alcs_adapter.c ****     INIT_LIST_HEAD(&adapter->alcs_subdev_list);
 207:C:/Users/stapi/OneDrive/Desktop/GD32VW553/V1_MQTT_OK/GD32VW55X_Wifi_BLE_SDK/GD32VW55x_RELEASE_V1.0.2/MSDK/cloud/alicloud/src/protocol/alcs\alcs_adapter.c **** #endif
 208:C:/Users/stapi/OneDrive/Desktop/GD32VW553/V1_MQTT_OK/GD32VW55X_Wifi_BLE_SDK/GD32VW55x_RELEASE_V1.0.2/MSDK/cloud/alicloud/src/protocol/alcs\alcs_adapter.c ****     return SUCCESS_RETURN;
 728              		.loc 1 208 5 is_stmt 1
 209:C:/Users/stapi/OneDrive/Desktop/GD32VW553/V1_MQTT_OK/GD32VW55X_Wifi_BLE_SDK/GD32VW55x_RELEASE_V1.0.2/MSDK/cloud/alicloud/src/protocol/alcs\alcs_adapter.c **** }
 729              		.loc 1 209 1 is_stmt 0
 730 0008 0145     		li	a0,0
 731              	.LVL75:
 732 000a 8280     		ret
 733              		.cfi_endproc
 734              	.LFE27:
 736              		.section	.text.iotx_alcs_adapter_deinit,"ax",@progbits
 737              		.align	1
 738              		.globl	iotx_alcs_adapter_deinit
 740              	iotx_alcs_adapter_deinit:
 741              	.LFB29:
 210:C:/Users/stapi/OneDrive/Desktop/GD32VW553/V1_MQTT_OK/GD32VW55X_Wifi_BLE_SDK/GD32VW55x_RELEASE_V1.0.2/MSDK/cloud/alicloud/src/protocol/alcs\alcs_adapter.c **** 
 211:C:/Users/stapi/OneDrive/Desktop/GD32VW553/V1_MQTT_OK/GD32VW55X_Wifi_BLE_SDK/GD32VW55x_RELEASE_V1.0.2/MSDK/cloud/alicloud/src/protocol/alcs\alcs_adapter.c **** static void _iotx_alcs_adapter_send_list_destroy(iotx_alcs_adapter_t *adapter)
 212:C:/Users/stapi/OneDrive/Desktop/GD32VW553/V1_MQTT_OK/GD32VW55X_Wifi_BLE_SDK/GD32VW55x_RELEASE_V1.0.2/MSDK/cloud/alicloud/src/protocol/alcs\alcs_adapter.c **** {
 213:C:/Users/stapi/OneDrive/Desktop/GD32VW553/V1_MQTT_OK/GD32VW55X_Wifi_BLE_SDK/GD32VW55x_RELEASE_V1.0.2/MSDK/cloud/alicloud/src/protocol/alcs\alcs_adapter.c ****     iotx_alcs_send_msg_t *node = NULL;
 214:C:/Users/stapi/OneDrive/Desktop/GD32VW553/V1_MQTT_OK/GD32VW55X_Wifi_BLE_SDK/GD32VW55x_RELEASE_V1.0.2/MSDK/cloud/alicloud/src/protocol/alcs\alcs_adapter.c ****     iotx_alcs_send_msg_t *next = NULL;
 215:C:/Users/stapi/OneDrive/Desktop/GD32VW553/V1_MQTT_OK/GD32VW55X_Wifi_BLE_SDK/GD32VW55x_RELEASE_V1.0.2/MSDK/cloud/alicloud/src/protocol/alcs\alcs_adapter.c **** 
 216:C:/Users/stapi/OneDrive/Desktop/GD32VW553/V1_MQTT_OK/GD32VW55X_Wifi_BLE_SDK/GD32VW55x_RELEASE_V1.0.2/MSDK/cloud/alicloud/src/protocol/alcs\alcs_adapter.c ****     list_for_each_entry_safe(node, next, &adapter->alcs_send_list, linked_list, iotx_alcs_send_msg_
 217:C:/Users/stapi/OneDrive/Desktop/GD32VW553/V1_MQTT_OK/GD32VW55X_Wifi_BLE_SDK/GD32VW55x_RELEASE_V1.0.2/MSDK/cloud/alicloud/src/protocol/alcs\alcs_adapter.c ****         list_del(&node->linked_list);
 218:C:/Users/stapi/OneDrive/Desktop/GD32VW553/V1_MQTT_OK/GD32VW55X_Wifi_BLE_SDK/GD32VW55x_RELEASE_V1.0.2/MSDK/cloud/alicloud/src/protocol/alcs\alcs_adapter.c ****         LITE_free(node->token);
 219:C:/Users/stapi/OneDrive/Desktop/GD32VW553/V1_MQTT_OK/GD32VW55X_Wifi_BLE_SDK/GD32VW55x_RELEASE_V1.0.2/MSDK/cloud/alicloud/src/protocol/alcs\alcs_adapter.c ****         LITE_free(node->uri);
 220:C:/Users/stapi/OneDrive/Desktop/GD32VW553/V1_MQTT_OK/GD32VW55X_Wifi_BLE_SDK/GD32VW55x_RELEASE_V1.0.2/MSDK/cloud/alicloud/src/protocol/alcs\alcs_adapter.c ****         LITE_free(node);
 221:C:/Users/stapi/OneDrive/Desktop/GD32VW553/V1_MQTT_OK/GD32VW55X_Wifi_BLE_SDK/GD32VW55x_RELEASE_V1.0.2/MSDK/cloud/alicloud/src/protocol/alcs\alcs_adapter.c ****     }
 222:C:/Users/stapi/OneDrive/Desktop/GD32VW553/V1_MQTT_OK/GD32VW55X_Wifi_BLE_SDK/GD32VW55x_RELEASE_V1.0.2/MSDK/cloud/alicloud/src/protocol/alcs\alcs_adapter.c **** }
 223:C:/Users/stapi/OneDrive/Desktop/GD32VW553/V1_MQTT_OK/GD32VW55X_Wifi_BLE_SDK/GD32VW55x_RELEASE_V1.0.2/MSDK/cloud/alicloud/src/protocol/alcs\alcs_adapter.c **** 
 224:C:/Users/stapi/OneDrive/Desktop/GD32VW553/V1_MQTT_OK/GD32VW55X_Wifi_BLE_SDK/GD32VW55x_RELEASE_V1.0.2/MSDK/cloud/alicloud/src/protocol/alcs\alcs_adapter.c **** #ifdef DEVICE_MODEL_GATEWAY
 225:C:/Users/stapi/OneDrive/Desktop/GD32VW553/V1_MQTT_OK/GD32VW55X_Wifi_BLE_SDK/GD32VW55x_RELEASE_V1.0.2/MSDK/cloud/alicloud/src/protocol/alcs\alcs_adapter.c **** static void _iotx_alcs_adapter_subdev_list_destroy(iotx_alcs_adapter_t *adapter)
 226:C:/Users/stapi/OneDrive/Desktop/GD32VW553/V1_MQTT_OK/GD32VW55X_Wifi_BLE_SDK/GD32VW55x_RELEASE_V1.0.2/MSDK/cloud/alicloud/src/protocol/alcs\alcs_adapter.c **** {
 227:C:/Users/stapi/OneDrive/Desktop/GD32VW553/V1_MQTT_OK/GD32VW55X_Wifi_BLE_SDK/GD32VW55x_RELEASE_V1.0.2/MSDK/cloud/alicloud/src/protocol/alcs\alcs_adapter.c ****     iotx_alcs_subdev_item_t *node = NULL;
 228:C:/Users/stapi/OneDrive/Desktop/GD32VW553/V1_MQTT_OK/GD32VW55X_Wifi_BLE_SDK/GD32VW55x_RELEASE_V1.0.2/MSDK/cloud/alicloud/src/protocol/alcs\alcs_adapter.c ****     iotx_alcs_subdev_item_t *next = NULL;
 229:C:/Users/stapi/OneDrive/Desktop/GD32VW553/V1_MQTT_OK/GD32VW55X_Wifi_BLE_SDK/GD32VW55x_RELEASE_V1.0.2/MSDK/cloud/alicloud/src/protocol/alcs\alcs_adapter.c **** 
 230:C:/Users/stapi/OneDrive/Desktop/GD32VW553/V1_MQTT_OK/GD32VW55X_Wifi_BLE_SDK/GD32VW55x_RELEASE_V1.0.2/MSDK/cloud/alicloud/src/protocol/alcs\alcs_adapter.c ****     list_for_each_entry_safe(node, next, &adapter->alcs_subdev_list, linked_list, iotx_alcs_subdev_
 231:C:/Users/stapi/OneDrive/Desktop/GD32VW553/V1_MQTT_OK/GD32VW55X_Wifi_BLE_SDK/GD32VW55x_RELEASE_V1.0.2/MSDK/cloud/alicloud/src/protocol/alcs\alcs_adapter.c ****         list_del(&node->linked_list);
 232:C:/Users/stapi/OneDrive/Desktop/GD32VW553/V1_MQTT_OK/GD32VW55X_Wifi_BLE_SDK/GD32VW55x_RELEASE_V1.0.2/MSDK/cloud/alicloud/src/protocol/alcs\alcs_adapter.c ****         LITE_free(node);
 233:C:/Users/stapi/OneDrive/Desktop/GD32VW553/V1_MQTT_OK/GD32VW55X_Wifi_BLE_SDK/GD32VW55x_RELEASE_V1.0.2/MSDK/cloud/alicloud/src/protocol/alcs\alcs_adapter.c ****     }
 234:C:/Users/stapi/OneDrive/Desktop/GD32VW553/V1_MQTT_OK/GD32VW55X_Wifi_BLE_SDK/GD32VW55x_RELEASE_V1.0.2/MSDK/cloud/alicloud/src/protocol/alcs\alcs_adapter.c **** }
 235:C:/Users/stapi/OneDrive/Desktop/GD32VW553/V1_MQTT_OK/GD32VW55X_Wifi_BLE_SDK/GD32VW55x_RELEASE_V1.0.2/MSDK/cloud/alicloud/src/protocol/alcs\alcs_adapter.c **** #endif
 236:C:/Users/stapi/OneDrive/Desktop/GD32VW553/V1_MQTT_OK/GD32VW55X_Wifi_BLE_SDK/GD32VW55x_RELEASE_V1.0.2/MSDK/cloud/alicloud/src/protocol/alcs\alcs_adapter.c **** int iotx_alcs_adapter_deinit(void)
 237:C:/Users/stapi/OneDrive/Desktop/GD32VW553/V1_MQTT_OK/GD32VW55X_Wifi_BLE_SDK/GD32VW55x_RELEASE_V1.0.2/MSDK/cloud/alicloud/src/protocol/alcs\alcs_adapter.c **** {
 742              		.loc 1 237 1 is_stmt 1
 743              		.cfi_startproc
 744 0000 17030000 		call	t0,__riscv_save_4
 744      E7020300 
 745              		.cfi_offset 19, -20
 746              		.cfi_offset 18, -16
 747              		.cfi_offset 9, -12
 748              		.cfi_offset 8, -8
 749              		.cfi_offset 1, -4
 750              		.cfi_def_cfa_offset 32
 238:C:/Users/stapi/OneDrive/Desktop/GD32VW553/V1_MQTT_OK/GD32VW55X_Wifi_BLE_SDK/GD32VW55x_RELEASE_V1.0.2/MSDK/cloud/alicloud/src/protocol/alcs\alcs_adapter.c ****     char product_key[PRODUCT_KEY_MAXLEN] = {0};
 751              		.loc 1 238 5
 237:C:/Users/stapi/OneDrive/Desktop/GD32VW553/V1_MQTT_OK/GD32VW55X_Wifi_BLE_SDK/GD32VW55x_RELEASE_V1.0.2/MSDK/cloud/alicloud/src/protocol/alcs\alcs_adapter.c ****     char product_key[PRODUCT_KEY_MAXLEN] = {0};
 752              		.loc 1 237 1 is_stmt 0
 753 0008 3971     		addi	sp,sp,-64
 754              		.cfi_def_cfa_offset 96
 239:C:/Users/stapi/OneDrive/Desktop/GD32VW553/V1_MQTT_OK/GD32VW55X_Wifi_BLE_SDK/GD32VW55x_RELEASE_V1.0.2/MSDK/cloud/alicloud/src/protocol/alcs\alcs_adapter.c ****     char device_name[DEVICE_NAME_MAXLEN] = {0};
 755              		.loc 1 239 10
 756 000a 7546     		li	a2,29
 757 000c 8145     		li	a1,0
 758 000e 0810     		addi	a0,sp,32
 238:C:/Users/stapi/OneDrive/Desktop/GD32VW553/V1_MQTT_OK/GD32VW55X_Wifi_BLE_SDK/GD32VW55x_RELEASE_V1.0.2/MSDK/cloud/alicloud/src/protocol/alcs\alcs_adapter.c ****     char product_key[PRODUCT_KEY_MAXLEN] = {0};
 759              		.loc 1 238 10
 760 0010 02C2     		sw	zero,4(sp)
 761 0012 02C4     		sw	zero,8(sp)
 762 0014 02C6     		sw	zero,12(sp)
 763 0016 02C8     		sw	zero,16(sp)
 764 0018 02CA     		sw	zero,20(sp)
 765 001a 230C0100 		sb	zero,24(sp)
 766              		.loc 1 239 5 is_stmt 1
 767              		.loc 1 239 10 is_stmt 0
 768 001e 02CE     		sw	zero,28(sp)
 769 0020 97000000 		call	memset
 769      E7800000 
 770              	.LVL76:
 240:C:/Users/stapi/OneDrive/Desktop/GD32VW553/V1_MQTT_OK/GD32VW55X_Wifi_BLE_SDK/GD32VW55x_RELEASE_V1.0.2/MSDK/cloud/alicloud/src/protocol/alcs\alcs_adapter.c ****     iotx_alcs_adapter_t *adapter = __iotx_alcs_get_ctx();
 771              		.loc 1 240 5 is_stmt 1
  31:C:/Users/stapi/OneDrive/Desktop/GD32VW553/V1_MQTT_OK/GD32VW55X_Wifi_BLE_SDK/GD32VW55x_RELEASE_V1.0.2/MSDK/cloud/alicloud/src/protocol/alcs\alcs_adapter.c **** }
 772              		.loc 1 31 5
 241:C:/Users/stapi/OneDrive/Desktop/GD32VW553/V1_MQTT_OK/GD32VW55X_Wifi_BLE_SDK/GD32VW55x_RELEASE_V1.0.2/MSDK/cloud/alicloud/src/protocol/alcs\alcs_adapter.c **** 
 242:C:/Users/stapi/OneDrive/Desktop/GD32VW553/V1_MQTT_OK/GD32VW55X_Wifi_BLE_SDK/GD32VW55x_RELEASE_V1.0.2/MSDK/cloud/alicloud/src/protocol/alcs\alcs_adapter.c ****     HAL_GetProductKey(product_key);
 773              		.loc 1 242 5
 774 0028 4800     		addi	a0,sp,4
 775 002a 97000000 		call	HAL_GetProductKey
 775      E7800000 
 776              	.LVL77:
 243:C:/Users/stapi/OneDrive/Desktop/GD32VW553/V1_MQTT_OK/GD32VW55X_Wifi_BLE_SDK/GD32VW55x_RELEASE_V1.0.2/MSDK/cloud/alicloud/src/protocol/alcs\alcs_adapter.c ****     HAL_GetDeviceName(device_name);
 777              		.loc 1 243 5
 244:C:/Users/stapi/OneDrive/Desktop/GD32VW553/V1_MQTT_OK/GD32VW55X_Wifi_BLE_SDK/GD32VW55x_RELEASE_V1.0.2/MSDK/cloud/alicloud/src/protocol/alcs\alcs_adapter.c **** 
 245:C:/Users/stapi/OneDrive/Desktop/GD32VW553/V1_MQTT_OK/GD32VW55X_Wifi_BLE_SDK/GD32VW55x_RELEASE_V1.0.2/MSDK/cloud/alicloud/src/protocol/alcs\alcs_adapter.c ****     HAL_MutexLock(adapter->mutex);
 778              		.loc 1 245 5 is_stmt 0
 779 0032 37040000 		lui	s0,%hi(.LANCHOR0)
 243:C:/Users/stapi/OneDrive/Desktop/GD32VW553/V1_MQTT_OK/GD32VW55X_Wifi_BLE_SDK/GD32VW55x_RELEASE_V1.0.2/MSDK/cloud/alicloud/src/protocol/alcs\alcs_adapter.c ****     HAL_GetDeviceName(device_name);
 780              		.loc 1 243 5
 781 0036 6808     		addi	a0,sp,28
 782              		.loc 1 245 5
 783 0038 93040400 		addi	s1,s0,%lo(.LANCHOR0)
 243:C:/Users/stapi/OneDrive/Desktop/GD32VW553/V1_MQTT_OK/GD32VW55X_Wifi_BLE_SDK/GD32VW55x_RELEASE_V1.0.2/MSDK/cloud/alicloud/src/protocol/alcs\alcs_adapter.c ****     HAL_GetDeviceName(device_name);
 784              		.loc 1 243 5
 785 003c 97000000 		call	HAL_GetDeviceName
 785      E7800000 
 786              	.LVL78:
 787              		.loc 1 245 5 is_stmt 1
 788 0044 8840     		lw	a0,0(s1)
 789 0046 13040400 		addi	s0,s0,%lo(.LANCHOR0)
 790              	.LBB30:
 791              	.LBB31:
 216:C:/Users/stapi/OneDrive/Desktop/GD32VW553/V1_MQTT_OK/GD32VW55X_Wifi_BLE_SDK/GD32VW55x_RELEASE_V1.0.2/MSDK/cloud/alicloud/src/protocol/alcs\alcs_adapter.c ****         list_del(&node->linked_list);
 792              		.loc 1 216 5 is_stmt 0
 793 004a 9309C401 		addi	s3,s0,28
 794              	.LBE31:
 795              	.LBE30:
 796              		.loc 1 245 5
 797 004e 97000000 		call	HAL_MutexLock
 797      E7800000 
 798              	.LVL79:
 246:C:/Users/stapi/OneDrive/Desktop/GD32VW553/V1_MQTT_OK/GD32VW55X_Wifi_BLE_SDK/GD32VW55x_RELEASE_V1.0.2/MSDK/cloud/alicloud/src/protocol/alcs\alcs_adapter.c ****     _iotx_alcs_adapter_send_list_destroy(adapter);
 799              		.loc 1 246 5 is_stmt 1
 800              	.LBB38:
 801              	.LBB36:
 213:C:/Users/stapi/OneDrive/Desktop/GD32VW553/V1_MQTT_OK/GD32VW55X_Wifi_BLE_SDK/GD32VW55x_RELEASE_V1.0.2/MSDK/cloud/alicloud/src/protocol/alcs\alcs_adapter.c ****     iotx_alcs_send_msg_t *next = NULL;
 802              		.loc 1 213 5
 214:C:/Users/stapi/OneDrive/Desktop/GD32VW553/V1_MQTT_OK/GD32VW55X_Wifi_BLE_SDK/GD32VW55x_RELEASE_V1.0.2/MSDK/cloud/alicloud/src/protocol/alcs\alcs_adapter.c **** 
 803              		.loc 1 214 5
 216:C:/Users/stapi/OneDrive/Desktop/GD32VW553/V1_MQTT_OK/GD32VW55X_Wifi_BLE_SDK/GD32VW55x_RELEASE_V1.0.2/MSDK/cloud/alicloud/src/protocol/alcs\alcs_adapter.c ****         list_del(&node->linked_list);
 804              		.loc 1 216 5
 805 0056 9C50     		lw	a5,32(s1)
 806 0058 03A94700 		lw	s2,4(a5)
 807 005c 938447FF 		addi	s1,a5,-12
 808              	.LVL80:
 809 0060 5119     		addi	s2,s2,-12
 810              	.LVL81:
 811              	.L38:
 216:C:/Users/stapi/OneDrive/Desktop/GD32VW553/V1_MQTT_OK/GD32VW55X_Wifi_BLE_SDK/GD32VW55x_RELEASE_V1.0.2/MSDK/cloud/alicloud/src/protocol/alcs\alcs_adapter.c ****         list_del(&node->linked_list);
 812              		.loc 1 216 5
 813 0062 9387C400 		addi	a5,s1,12
 814 0066 639B3705 		bne	a5,s3,.L39
 815              	.LVL82:
 816              	.LBE36:
 817              	.LBE38:
 247:C:/Users/stapi/OneDrive/Desktop/GD32VW553/V1_MQTT_OK/GD32VW55X_Wifi_BLE_SDK/GD32VW55x_RELEASE_V1.0.2/MSDK/cloud/alicloud/src/protocol/alcs\alcs_adapter.c **** #ifdef DEVICE_MODEL_GATEWAY
 248:C:/Users/stapi/OneDrive/Desktop/GD32VW553/V1_MQTT_OK/GD32VW55X_Wifi_BLE_SDK/GD32VW55x_RELEASE_V1.0.2/MSDK/cloud/alicloud/src/protocol/alcs\alcs_adapter.c ****     _iotx_alcs_adapter_subdev_list_destroy(adapter);
 249:C:/Users/stapi/OneDrive/Desktop/GD32VW553/V1_MQTT_OK/GD32VW55X_Wifi_BLE_SDK/GD32VW55x_RELEASE_V1.0.2/MSDK/cloud/alicloud/src/protocol/alcs\alcs_adapter.c **** #endif
 250:C:/Users/stapi/OneDrive/Desktop/GD32VW553/V1_MQTT_OK/GD32VW55X_Wifi_BLE_SDK/GD32VW55x_RELEASE_V1.0.2/MSDK/cloud/alicloud/src/protocol/alcs\alcs_adapter.c ****     HAL_MutexUnlock(adapter->mutex);
 818              		.loc 1 250 5
 819 006a 0840     		lw	a0,0(s0)
 820 006c 97000000 		call	HAL_MutexUnlock
 820      E7800000 
 821              	.LVL83:
 251:C:/Users/stapi/OneDrive/Desktop/GD32VW553/V1_MQTT_OK/GD32VW55X_Wifi_BLE_SDK/GD32VW55x_RELEASE_V1.0.2/MSDK/cloud/alicloud/src/protocol/alcs\alcs_adapter.c **** 
 252:C:/Users/stapi/OneDrive/Desktop/GD32VW553/V1_MQTT_OK/GD32VW55X_Wifi_BLE_SDK/GD32VW55x_RELEASE_V1.0.2/MSDK/cloud/alicloud/src/protocol/alcs\alcs_adapter.c ****     if (adapter->alcs_event_handle) {
 822              		.loc 1 252 5
 823              		.loc 1 252 16 is_stmt 0
 824 0074 084C     		lw	a0,24(s0)
 825              		.loc 1 252 8
 826 0076 09C5     		beq	a0,zero,.L40
 253:C:/Users/stapi/OneDrive/Desktop/GD32VW553/V1_MQTT_OK/GD32VW55X_Wifi_BLE_SDK/GD32VW55x_RELEASE_V1.0.2/MSDK/cloud/alicloud/src/protocol/alcs\alcs_adapter.c ****         LITE_free(adapter->alcs_event_handle);
 827              		.loc 1 253 9 is_stmt 1
 828 0078 97000000 		call	LITE_free_internal
 828      E7800000 
 829              	.LVL84:
 830              	.L40:
 254:C:/Users/stapi/OneDrive/Desktop/GD32VW553/V1_MQTT_OK/GD32VW55X_Wifi_BLE_SDK/GD32VW55x_RELEASE_V1.0.2/MSDK/cloud/alicloud/src/protocol/alcs\alcs_adapter.c ****     }
 255:C:/Users/stapi/OneDrive/Desktop/GD32VW553/V1_MQTT_OK/GD32VW55X_Wifi_BLE_SDK/GD32VW55x_RELEASE_V1.0.2/MSDK/cloud/alicloud/src/protocol/alcs\alcs_adapter.c **** 
 256:C:/Users/stapi/OneDrive/Desktop/GD32VW553/V1_MQTT_OK/GD32VW55X_Wifi_BLE_SDK/GD32VW55x_RELEASE_V1.0.2/MSDK/cloud/alicloud/src/protocol/alcs\alcs_adapter.c ****     HAL_MutexDestroy(adapter->mutex);
 831              		.loc 1 256 5
 832 0080 0840     		lw	a0,0(s0)
 833 0082 97000000 		call	HAL_MutexDestroy
 833      E7800000 
 834              	.LVL85:
 257:C:/Users/stapi/OneDrive/Desktop/GD32VW553/V1_MQTT_OK/GD32VW55X_Wifi_BLE_SDK/GD32VW55x_RELEASE_V1.0.2/MSDK/cloud/alicloud/src/protocol/alcs\alcs_adapter.c **** 
 258:C:/Users/stapi/OneDrive/Desktop/GD32VW553/V1_MQTT_OK/GD32VW55X_Wifi_BLE_SDK/GD32VW55x_RELEASE_V1.0.2/MSDK/cloud/alicloud/src/protocol/alcs\alcs_adapter.c ****     alcs_mqtt_deinit(adapter->coap_ctx, product_key, device_name);
 835              		.loc 1 258 5
 836 008a 0844     		lw	a0,8(s0)
 837 008c 7008     		addi	a2,sp,28
 838 008e 4C00     		addi	a1,sp,4
 839 0090 97000000 		call	alcs_mqtt_deinit
 839      E7800000 
 840              	.LVL86:
 259:C:/Users/stapi/OneDrive/Desktop/GD32VW553/V1_MQTT_OK/GD32VW55X_Wifi_BLE_SDK/GD32VW55x_RELEASE_V1.0.2/MSDK/cloud/alicloud/src/protocol/alcs\alcs_adapter.c **** 
 260:C:/Users/stapi/OneDrive/Desktop/GD32VW553/V1_MQTT_OK/GD32VW55X_Wifi_BLE_SDK/GD32VW55x_RELEASE_V1.0.2/MSDK/cloud/alicloud/src/protocol/alcs\alcs_adapter.c ****     //if (adapter->coap_ctx) CoAPContext_free(adapter->coap_ctx);
 261:C:/Users/stapi/OneDrive/Desktop/GD32VW553/V1_MQTT_OK/GD32VW55X_Wifi_BLE_SDK/GD32VW55x_RELEASE_V1.0.2/MSDK/cloud/alicloud/src/protocol/alcs\alcs_adapter.c **** 
 262:C:/Users/stapi/OneDrive/Desktop/GD32VW553/V1_MQTT_OK/GD32VW55X_Wifi_BLE_SDK/GD32VW55x_RELEASE_V1.0.2/MSDK/cloud/alicloud/src/protocol/alcs\alcs_adapter.c ****     alcs_context_deinit();
 841              		.loc 1 262 5
 842 0098 97000000 		call	alcs_context_deinit
 842      E7800000 
 843              	.LVL87:
 263:C:/Users/stapi/OneDrive/Desktop/GD32VW553/V1_MQTT_OK/GD32VW55X_Wifi_BLE_SDK/GD32VW55x_RELEASE_V1.0.2/MSDK/cloud/alicloud/src/protocol/alcs\alcs_adapter.c ****     alcs_deinit();
 844              		.loc 1 263 5
 845 00a0 97000000 		call	alcs_deinit
 845      E7800000 
 846              	.LVL88:
 264:C:/Users/stapi/OneDrive/Desktop/GD32VW553/V1_MQTT_OK/GD32VW55X_Wifi_BLE_SDK/GD32VW55x_RELEASE_V1.0.2/MSDK/cloud/alicloud/src/protocol/alcs\alcs_adapter.c ****     alcs_auth_deinit();
 847              		.loc 1 264 5
 848 00a8 97000000 		call	alcs_auth_deinit
 848      E7800000 
 849              	.LVL89:
 265:C:/Users/stapi/OneDrive/Desktop/GD32VW553/V1_MQTT_OK/GD32VW55X_Wifi_BLE_SDK/GD32VW55x_RELEASE_V1.0.2/MSDK/cloud/alicloud/src/protocol/alcs\alcs_adapter.c **** 
 266:C:/Users/stapi/OneDrive/Desktop/GD32VW553/V1_MQTT_OK/GD32VW55X_Wifi_BLE_SDK/GD32VW55x_RELEASE_V1.0.2/MSDK/cloud/alicloud/src/protocol/alcs\alcs_adapter.c ****     return SUCCESS_RETURN;
 850              		.loc 1 266 5
 267:C:/Users/stapi/OneDrive/Desktop/GD32VW553/V1_MQTT_OK/GD32VW55X_Wifi_BLE_SDK/GD32VW55x_RELEASE_V1.0.2/MSDK/cloud/alicloud/src/protocol/alcs\alcs_adapter.c **** }
 851              		.loc 1 267 1 is_stmt 0
 852 00b0 0145     		li	a0,0
 853 00b2 2161     		addi	sp,sp,64
 854              		.cfi_remember_state
 855              		.cfi_def_cfa_offset 0
 856 00b4 17030000 		tail	__riscv_restore_4
 856      67000300 
 857              		.cfi_restore 19
 858              		.cfi_restore 18
 859              		.cfi_restore 9
 860              		.cfi_restore 8
 861              		.cfi_restore 1
 862              		.cfi_def_cfa_offset -32
 863              	.LVL90:
 864              	.L39:
 865              		.cfi_restore_state
 866              	.LBB39:
 867              	.LBB37:
 217:C:/Users/stapi/OneDrive/Desktop/GD32VW553/V1_MQTT_OK/GD32VW55X_Wifi_BLE_SDK/GD32VW55x_RELEASE_V1.0.2/MSDK/cloud/alicloud/src/protocol/alcs\alcs_adapter.c ****         LITE_free(node->token);
 868              		.loc 1 217 9 is_stmt 1
 869              	.LBB32:
 870              	.LBB33:
  68:..\..\..\..\cloud\alicloud\src\infra\utils\misc/lite-list.h ****     dlist_t *next = node->next;
 871              		.loc 2 68 5
  69:..\..\..\..\cloud\alicloud\src\infra\utils\misc/lite-list.h **** 
 872              		.loc 2 69 14 is_stmt 0
 873 00bc 9C48     		lw	a5,16(s1)
  68:..\..\..\..\cloud\alicloud\src\infra\utils\misc/lite-list.h ****     dlist_t *next = node->next;
 874              		.loc 2 68 14
 875 00be D844     		lw	a4,12(s1)
 876              	.LVL91:
  69:..\..\..\..\cloud\alicloud\src\infra\utils\misc/lite-list.h **** 
 877              		.loc 2 69 5 is_stmt 1
  71:..\..\..\..\cloud\alicloud\src\infra\utils\misc/lite-list.h ****     next->prev = prev;
 878              		.loc 2 71 5
 879              	.LBE33:
 880              	.LBE32:
 218:C:/Users/stapi/OneDrive/Desktop/GD32VW553/V1_MQTT_OK/GD32VW55X_Wifi_BLE_SDK/GD32VW55x_RELEASE_V1.0.2/MSDK/cloud/alicloud/src/protocol/alcs\alcs_adapter.c ****         LITE_free(node->uri);
 881              		.loc 1 218 9 is_stmt 0
 882 00c0 C840     		lw	a0,4(s1)
 883              	.LBB35:
 884              	.LBB34:
  71:..\..\..\..\cloud\alicloud\src\infra\utils\misc/lite-list.h ****     next->prev = prev;
 885              		.loc 2 71 16
 886 00c2 5CC3     		sw	a5,4(a4)
  72:..\..\..\..\cloud\alicloud\src\infra\utils\misc/lite-list.h **** }
 887              		.loc 2 72 5 is_stmt 1
  72:..\..\..\..\cloud\alicloud\src\infra\utils\misc/lite-list.h **** }
 888              		.loc 2 72 16 is_stmt 0
 889 00c4 98C3     		sw	a4,0(a5)
 890              	.LVL92:
 891              	.LBE34:
 892              	.LBE35:
 218:C:/Users/stapi/OneDrive/Desktop/GD32VW553/V1_MQTT_OK/GD32VW55X_Wifi_BLE_SDK/GD32VW55x_RELEASE_V1.0.2/MSDK/cloud/alicloud/src/protocol/alcs\alcs_adapter.c ****         LITE_free(node->uri);
 893              		.loc 1 218 9 is_stmt 1
 894 00c6 97000000 		call	LITE_free_internal
 894      E7800000 
 895              	.LVL93:
 219:C:/Users/stapi/OneDrive/Desktop/GD32VW553/V1_MQTT_OK/GD32VW55X_Wifi_BLE_SDK/GD32VW55x_RELEASE_V1.0.2/MSDK/cloud/alicloud/src/protocol/alcs\alcs_adapter.c ****         LITE_free(node);
 896              		.loc 1 219 9
 897 00ce 8844     		lw	a0,8(s1)
 898 00d0 97000000 		call	LITE_free_internal
 898      E7800000 
 899              	.LVL94:
 220:C:/Users/stapi/OneDrive/Desktop/GD32VW553/V1_MQTT_OK/GD32VW55X_Wifi_BLE_SDK/GD32VW55x_RELEASE_V1.0.2/MSDK/cloud/alicloud/src/protocol/alcs\alcs_adapter.c ****     }
 900              		.loc 1 220 9
 901 00d8 2685     		mv	a0,s1
 902 00da 97000000 		call	LITE_free_internal
 902      E7800000 
 903              	.LVL95:
 216:C:/Users/stapi/OneDrive/Desktop/GD32VW553/V1_MQTT_OK/GD32VW55X_Wifi_BLE_SDK/GD32VW55x_RELEASE_V1.0.2/MSDK/cloud/alicloud/src/protocol/alcs\alcs_adapter.c ****         list_del(&node->linked_list);
 904              		.loc 1 216 5
 905 00e2 83270901 		lw	a5,16(s2)
 906              	.LVL96:
 907 00e6 CA84     		mv	s1,s2
 908 00e8 138947FF 		addi	s2,a5,-12
 909              	.LVL97:
 910 00ec 9DBF     		j	.L38
 911              	.LBE37:
 912              	.LBE39:
 913              		.cfi_endproc
 914              	.LFE29:
 916              		.section	.rodata.iotx_alcs_adapter_init.str1.4,"aMS",@progbits,1
 917              		.align	2
 918              	.LC7:
 919 0000 696F7478 		.string	"iotx_alcs_adapter_init"
 919      5F616C63 
 919      735F6164 
 919      61707465 
 919      725F696E 
 920 0017 00       		.align	2
 921              	.LC8:
 922 0018 4D757465 		.string	"Mutex Init Failed"
 922      7820496E 
 922      69742046 
 922      61696C65 
 922      6400
 923 002a 0000     		.align	2
 924              	.LC9:
 925 002c 436F6170 		.string	"Coap Context Init Failed"
 925      20436F6E 
 925      74657874 
 925      20496E69 
 925      74204661 
 926 0045 000000   		.align	2
 927              	.LC10:
 928 0048 47657420 		.string	"Get Product Key Failed"
 928      50726F64 
 928      75637420 
 928      4B657920 
 928      4661696C 
 929 005f 00       		.align	2
 930              	.LC11:
 931 0060 47657420 		.string	"Get Device Name Failed"
 931      44657669 
 931      6365204E 
 931      616D6520 
 931      4661696C 
 932 0077 00       		.align	2
 933              	.LC12:
 934 0078 414C4353 		.string	"ALCS Auth Init Failed"
 934      20417574 
 934      6820496E 
 934      69742046 
 934      61696C65 
 935 008e 0000     		.align	2
 936              	.LC13:
 937 0090 414C4353 		.string	"ALCS Event Handle Init Failed"
 937      20457665 
 937      6E742048 
 937      616E646C 
 937      6520496E 
 938              		.section	.text.iotx_alcs_adapter_init,"ax",@progbits
 939              		.align	1
 940              		.globl	iotx_alcs_adapter_init
 942              	iotx_alcs_adapter_init:
 943              	.LFB30:
 268:C:/Users/stapi/OneDrive/Desktop/GD32VW553/V1_MQTT_OK/GD32VW55X_Wifi_BLE_SDK/GD32VW55x_RELEASE_V1.0.2/MSDK/cloud/alicloud/src/protocol/alcs\alcs_adapter.c **** 
 269:C:/Users/stapi/OneDrive/Desktop/GD32VW553/V1_MQTT_OK/GD32VW55X_Wifi_BLE_SDK/GD32VW55x_RELEASE_V1.0.2/MSDK/cloud/alicloud/src/protocol/alcs\alcs_adapter.c **** int iotx_alcs_adapter_init(iotx_alcs_adapter_t *adapter, iotx_alcs_param_t *param)
 270:C:/Users/stapi/OneDrive/Desktop/GD32VW553/V1_MQTT_OK/GD32VW55X_Wifi_BLE_SDK/GD32VW55x_RELEASE_V1.0.2/MSDK/cloud/alicloud/src/protocol/alcs\alcs_adapter.c **** {
 944              		.loc 1 270 1
 945              		.cfi_startproc
 946              	.LVL98:
 947 0000 17030000 		call	t0,__riscv_save_6
 947      E7020300 
 948              		.cfi_offset 21, -28
 949              		.cfi_offset 20, -24
 950              		.cfi_offset 19, -20
 951              		.cfi_offset 18, -16
 952              		.cfi_offset 9, -12
 953              		.cfi_offset 8, -8
 954              		.cfi_offset 1, -4
 955              		.cfi_def_cfa_offset 32
 271:C:/Users/stapi/OneDrive/Desktop/GD32VW553/V1_MQTT_OK/GD32VW55X_Wifi_BLE_SDK/GD32VW55x_RELEASE_V1.0.2/MSDK/cloud/alicloud/src/protocol/alcs\alcs_adapter.c ****     COAP_INFO("iotx_alcs_adapter_init");
 956              		.loc 1 271 5
 957              		.loc 1 271 5
 270:C:/Users/stapi/OneDrive/Desktop/GD32VW553/V1_MQTT_OK/GD32VW55X_Wifi_BLE_SDK/GD32VW55x_RELEASE_V1.0.2/MSDK/cloud/alicloud/src/protocol/alcs\alcs_adapter.c ****     COAP_INFO("iotx_alcs_adapter_init");
 958              		.loc 1 270 1 is_stmt 0
 959 0008 2A84     		mv	s0,a0
 960              		.loc 1 271 5
 961 000a 37050000 		lui	a0,%hi(.LC0)
 962              	.LVL99:
 270:C:/Users/stapi/OneDrive/Desktop/GD32VW553/V1_MQTT_OK/GD32VW55X_Wifi_BLE_SDK/GD32VW55x_RELEASE_V1.0.2/MSDK/cloud/alicloud/src/protocol/alcs\alcs_adapter.c ****     COAP_INFO("iotx_alcs_adapter_init");
 963              		.loc 1 270 1
 964 000e 1D71     		addi	sp,sp,-96
 965              		.cfi_def_cfa_offset 128
 966              		.loc 1 271 5
 967 0010 13050500 		addi	a0,a0,%lo(.LC0)
 270:C:/Users/stapi/OneDrive/Desktop/GD32VW553/V1_MQTT_OK/GD32VW55X_Wifi_BLE_SDK/GD32VW55x_RELEASE_V1.0.2/MSDK/cloud/alicloud/src/protocol/alcs\alcs_adapter.c ****     COAP_INFO("iotx_alcs_adapter_init");
 968              		.loc 1 270 1
 969 0014 AE84     		mv	s1,a1
 970              		.loc 1 271 5
 971 0016 97000000 		call	HAL_Printf
 971      E7800000 
 972              	.LVL100:
 973              		.loc 1 271 5 is_stmt 1
 974 001e 37050000 		lui	a0,%hi(.LC7)
 975 0022 13050500 		addi	a0,a0,%lo(.LC7)
 976 0026 97000000 		call	HAL_Printf
 976      E7800000 
 977              	.LVL101:
 978              		.loc 1 271 5
 979 002e B7090000 		lui	s3,%hi(.LC2)
 980 0032 13850900 		addi	a0,s3,%lo(.LC2)
 981 0036 97000000 		call	HAL_Printf
 981      E7800000 
 982              	.LVL102:
 983              		.loc 1 271 5
 272:C:/Users/stapi/OneDrive/Desktop/GD32VW553/V1_MQTT_OK/GD32VW55X_Wifi_BLE_SDK/GD32VW55x_RELEASE_V1.0.2/MSDK/cloud/alicloud/src/protocol/alcs\alcs_adapter.c **** 
 273:C:/Users/stapi/OneDrive/Desktop/GD32VW553/V1_MQTT_OK/GD32VW55X_Wifi_BLE_SDK/GD32VW55x_RELEASE_V1.0.2/MSDK/cloud/alicloud/src/protocol/alcs\alcs_adapter.c ****     int res;
 984              		.loc 1 273 5
 274:C:/Users/stapi/OneDrive/Desktop/GD32VW553/V1_MQTT_OK/GD32VW55X_Wifi_BLE_SDK/GD32VW55x_RELEASE_V1.0.2/MSDK/cloud/alicloud/src/protocol/alcs\alcs_adapter.c ****     CoAPInitParam coap_param;
 985              		.loc 1 274 5
 275:C:/Users/stapi/OneDrive/Desktop/GD32VW553/V1_MQTT_OK/GD32VW55X_Wifi_BLE_SDK/GD32VW55x_RELEASE_V1.0.2/MSDK/cloud/alicloud/src/protocol/alcs\alcs_adapter.c ****     CoAPContext *coap_ctx = NULL;
 986              		.loc 1 275 5
 276:C:/Users/stapi/OneDrive/Desktop/GD32VW553/V1_MQTT_OK/GD32VW55X_Wifi_BLE_SDK/GD32VW55x_RELEASE_V1.0.2/MSDK/cloud/alicloud/src/protocol/alcs\alcs_adapter.c ****     char product_key[PRODUCT_KEY_MAXLEN] = {0};
 987              		.loc 1 276 5
 277:C:/Users/stapi/OneDrive/Desktop/GD32VW553/V1_MQTT_OK/GD32VW55X_Wifi_BLE_SDK/GD32VW55x_RELEASE_V1.0.2/MSDK/cloud/alicloud/src/protocol/alcs\alcs_adapter.c ****     char device_name[DEVICE_NAME_MAXLEN] = {0};
 988              		.loc 1 277 10 is_stmt 0
 989 003e 7546     		li	a2,29
 990 0040 8145     		li	a1,0
 991 0042 8800     		addi	a0,sp,64
 276:C:/Users/stapi/OneDrive/Desktop/GD32VW553/V1_MQTT_OK/GD32VW55X_Wifi_BLE_SDK/GD32VW55x_RELEASE_V1.0.2/MSDK/cloud/alicloud/src/protocol/alcs\alcs_adapter.c ****     char product_key[PRODUCT_KEY_MAXLEN] = {0};
 992              		.loc 1 276 10
 993 0044 02C6     		sw	zero,12(sp)
 994 0046 02C8     		sw	zero,16(sp)
 995 0048 02CA     		sw	zero,20(sp)
 996 004a 02CC     		sw	zero,24(sp)
 997 004c 02CE     		sw	zero,28(sp)
 998 004e 23000102 		sb	zero,32(sp)
 999              		.loc 1 277 5 is_stmt 1
 1000              		.loc 1 277 10 is_stmt 0
 1001 0052 02DE     		sw	zero,60(sp)
 1002 0054 97000000 		call	memset
 1002      E7800000 
 1003              	.LVL103:
 278:C:/Users/stapi/OneDrive/Desktop/GD32VW553/V1_MQTT_OK/GD32VW55X_Wifi_BLE_SDK/GD32VW55x_RELEASE_V1.0.2/MSDK/cloud/alicloud/src/protocol/alcs\alcs_adapter.c **** 
 279:C:/Users/stapi/OneDrive/Desktop/GD32VW553/V1_MQTT_OK/GD32VW55X_Wifi_BLE_SDK/GD32VW55x_RELEASE_V1.0.2/MSDK/cloud/alicloud/src/protocol/alcs\alcs_adapter.c ****     memset(&coap_param, 0, sizeof(CoAPInitParam));
 1004              		.loc 1 279 5 is_stmt 1
 1005 005c 6146     		li	a2,24
 1006 005e 8145     		li	a1,0
 1007 0060 4810     		addi	a0,sp,36
 1008 0062 97000000 		call	memset
 1008      E7800000 
 1009              	.LVL104:
 280:C:/Users/stapi/OneDrive/Desktop/GD32VW553/V1_MQTT_OK/GD32VW55X_Wifi_BLE_SDK/GD32VW55x_RELEASE_V1.0.2/MSDK/cloud/alicloud/src/protocol/alcs\alcs_adapter.c **** 
 281:C:/Users/stapi/OneDrive/Desktop/GD32VW553/V1_MQTT_OK/GD32VW55X_Wifi_BLE_SDK/GD32VW55x_RELEASE_V1.0.2/MSDK/cloud/alicloud/src/protocol/alcs\alcs_adapter.c ****     adapter->mutex = HAL_MutexCreate();
 1010              		.loc 1 281 5
 1011              		.loc 1 281 22 is_stmt 0
 1012 006a 97000000 		call	HAL_MutexCreate
 1012      E7800000 
 1013              	.LVL105:
 1014              		.loc 1 281 20
 1015 0072 08C0     		sw	a0,0(s0)
 282:C:/Users/stapi/OneDrive/Desktop/GD32VW553/V1_MQTT_OK/GD32VW55X_Wifi_BLE_SDK/GD32VW55x_RELEASE_V1.0.2/MSDK/cloud/alicloud/src/protocol/alcs\alcs_adapter.c ****     if (adapter->mutex == NULL) {
 1016              		.loc 1 282 5 is_stmt 1
 1017              		.loc 1 282 8 is_stmt 0
 1018 0074 05E9     		bne	a0,zero,.L46
 283:C:/Users/stapi/OneDrive/Desktop/GD32VW553/V1_MQTT_OK/GD32VW55X_Wifi_BLE_SDK/GD32VW55x_RELEASE_V1.0.2/MSDK/cloud/alicloud/src/protocol/alcs\alcs_adapter.c ****         COAP_ERR("Mutex Init Failed");
 1019              		.loc 1 283 9 is_stmt 1
 1020              		.loc 1 283 9
 1021 0076 37050000 		lui	a0,%hi(.LC3)
 1022 007a 13050500 		addi	a0,a0,%lo(.LC3)
 1023 007e 97000000 		call	HAL_Printf
 1023      E7800000 
 1024              	.LVL106:
 1025              		.loc 1 283 9
 1026 0086 37050000 		lui	a0,%hi(.LC8)
 1027 008a 13050500 		addi	a0,a0,%lo(.LC8)
 1028              	.LVL107:
 1029              	.L60:
 284:C:/Users/stapi/OneDrive/Desktop/GD32VW553/V1_MQTT_OK/GD32VW55X_Wifi_BLE_SDK/GD32VW55x_RELEASE_V1.0.2/MSDK/cloud/alicloud/src/protocol/alcs\alcs_adapter.c ****         return FAIL_RETURN;
 285:C:/Users/stapi/OneDrive/Desktop/GD32VW553/V1_MQTT_OK/GD32VW55X_Wifi_BLE_SDK/GD32VW55x_RELEASE_V1.0.2/MSDK/cloud/alicloud/src/protocol/alcs\alcs_adapter.c ****     }
 286:C:/Users/stapi/OneDrive/Desktop/GD32VW553/V1_MQTT_OK/GD32VW55X_Wifi_BLE_SDK/GD32VW55x_RELEASE_V1.0.2/MSDK/cloud/alicloud/src/protocol/alcs\alcs_adapter.c **** 
 287:C:/Users/stapi/OneDrive/Desktop/GD32VW553/V1_MQTT_OK/GD32VW55X_Wifi_BLE_SDK/GD32VW55x_RELEASE_V1.0.2/MSDK/cloud/alicloud/src/protocol/alcs\alcs_adapter.c ****     coap_param.send_maxcount = param->send_maxcount;
 288:C:/Users/stapi/OneDrive/Desktop/GD32VW553/V1_MQTT_OK/GD32VW55X_Wifi_BLE_SDK/GD32VW55x_RELEASE_V1.0.2/MSDK/cloud/alicloud/src/protocol/alcs\alcs_adapter.c ****     coap_param.obs_maxcount = param->obs_maxcount;
 289:C:/Users/stapi/OneDrive/Desktop/GD32VW553/V1_MQTT_OK/GD32VW55X_Wifi_BLE_SDK/GD32VW55x_RELEASE_V1.0.2/MSDK/cloud/alicloud/src/protocol/alcs\alcs_adapter.c ****     coap_param.port = param->port;
 290:C:/Users/stapi/OneDrive/Desktop/GD32VW553/V1_MQTT_OK/GD32VW55X_Wifi_BLE_SDK/GD32VW55x_RELEASE_V1.0.2/MSDK/cloud/alicloud/src/protocol/alcs\alcs_adapter.c ****     coap_param.group = param->group;
 291:C:/Users/stapi/OneDrive/Desktop/GD32VW553/V1_MQTT_OK/GD32VW55X_Wifi_BLE_SDK/GD32VW55x_RELEASE_V1.0.2/MSDK/cloud/alicloud/src/protocol/alcs\alcs_adapter.c ****     coap_param.waittime = param->waittime;
 292:C:/Users/stapi/OneDrive/Desktop/GD32VW553/V1_MQTT_OK/GD32VW55X_Wifi_BLE_SDK/GD32VW55x_RELEASE_V1.0.2/MSDK/cloud/alicloud/src/protocol/alcs\alcs_adapter.c ****     coap_param.res_maxcount = param->res_maxcount;
 293:C:/Users/stapi/OneDrive/Desktop/GD32VW553/V1_MQTT_OK/GD32VW55X_Wifi_BLE_SDK/GD32VW55x_RELEASE_V1.0.2/MSDK/cloud/alicloud/src/protocol/alcs\alcs_adapter.c ****     coap_param.appdata = NULL;
 294:C:/Users/stapi/OneDrive/Desktop/GD32VW553/V1_MQTT_OK/GD32VW55X_Wifi_BLE_SDK/GD32VW55x_RELEASE_V1.0.2/MSDK/cloud/alicloud/src/protocol/alcs\alcs_adapter.c ****     coap_param.notifier = iotx_alcs_coap_adapter_event_notifier;
 295:C:/Users/stapi/OneDrive/Desktop/GD32VW553/V1_MQTT_OK/GD32VW55X_Wifi_BLE_SDK/GD32VW55x_RELEASE_V1.0.2/MSDK/cloud/alicloud/src/protocol/alcs\alcs_adapter.c **** 
 296:C:/Users/stapi/OneDrive/Desktop/GD32VW553/V1_MQTT_OK/GD32VW55X_Wifi_BLE_SDK/GD32VW55x_RELEASE_V1.0.2/MSDK/cloud/alicloud/src/protocol/alcs\alcs_adapter.c ****     coap_ctx = alcs_context_init(&coap_param);
 297:C:/Users/stapi/OneDrive/Desktop/GD32VW553/V1_MQTT_OK/GD32VW55X_Wifi_BLE_SDK/GD32VW55x_RELEASE_V1.0.2/MSDK/cloud/alicloud/src/protocol/alcs\alcs_adapter.c ****     if (coap_ctx == NULL) {
 298:C:/Users/stapi/OneDrive/Desktop/GD32VW553/V1_MQTT_OK/GD32VW55X_Wifi_BLE_SDK/GD32VW55x_RELEASE_V1.0.2/MSDK/cloud/alicloud/src/protocol/alcs\alcs_adapter.c ****         COAP_ERR("Coap Context Init Failed");
 299:C:/Users/stapi/OneDrive/Desktop/GD32VW553/V1_MQTT_OK/GD32VW55X_Wifi_BLE_SDK/GD32VW55x_RELEASE_V1.0.2/MSDK/cloud/alicloud/src/protocol/alcs\alcs_adapter.c ****         HAL_MutexDestroy(adapter->mutex);
 300:C:/Users/stapi/OneDrive/Desktop/GD32VW553/V1_MQTT_OK/GD32VW55X_Wifi_BLE_SDK/GD32VW55x_RELEASE_V1.0.2/MSDK/cloud/alicloud/src/protocol/alcs\alcs_adapter.c ****         return FAIL_RETURN;
 301:C:/Users/stapi/OneDrive/Desktop/GD32VW553/V1_MQTT_OK/GD32VW55X_Wifi_BLE_SDK/GD32VW55x_RELEASE_V1.0.2/MSDK/cloud/alicloud/src/protocol/alcs\alcs_adapter.c ****     }
 302:C:/Users/stapi/OneDrive/Desktop/GD32VW553/V1_MQTT_OK/GD32VW55X_Wifi_BLE_SDK/GD32VW55x_RELEASE_V1.0.2/MSDK/cloud/alicloud/src/protocol/alcs\alcs_adapter.c ****     adapter->coap_ctx = coap_ctx;
 303:C:/Users/stapi/OneDrive/Desktop/GD32VW553/V1_MQTT_OK/GD32VW55X_Wifi_BLE_SDK/GD32VW55x_RELEASE_V1.0.2/MSDK/cloud/alicloud/src/protocol/alcs\alcs_adapter.c **** 
 304:C:/Users/stapi/OneDrive/Desktop/GD32VW553/V1_MQTT_OK/GD32VW55X_Wifi_BLE_SDK/GD32VW55x_RELEASE_V1.0.2/MSDK/cloud/alicloud/src/protocol/alcs\alcs_adapter.c ****     res = HAL_GetProductKey(product_key);
 305:C:/Users/stapi/OneDrive/Desktop/GD32VW553/V1_MQTT_OK/GD32VW55X_Wifi_BLE_SDK/GD32VW55x_RELEASE_V1.0.2/MSDK/cloud/alicloud/src/protocol/alcs\alcs_adapter.c ****     if (res <= 0 || res > PRODUCT_KEY_MAXLEN - 1) {
 306:C:/Users/stapi/OneDrive/Desktop/GD32VW553/V1_MQTT_OK/GD32VW55X_Wifi_BLE_SDK/GD32VW55x_RELEASE_V1.0.2/MSDK/cloud/alicloud/src/protocol/alcs\alcs_adapter.c ****         iotx_alcs_adapter_deinit();
 307:C:/Users/stapi/OneDrive/Desktop/GD32VW553/V1_MQTT_OK/GD32VW55X_Wifi_BLE_SDK/GD32VW55x_RELEASE_V1.0.2/MSDK/cloud/alicloud/src/protocol/alcs\alcs_adapter.c ****         COAP_ERR("Get Product Key Failed");
 308:C:/Users/stapi/OneDrive/Desktop/GD32VW553/V1_MQTT_OK/GD32VW55X_Wifi_BLE_SDK/GD32VW55x_RELEASE_V1.0.2/MSDK/cloud/alicloud/src/protocol/alcs\alcs_adapter.c ****         return FAIL_RETURN;
 309:C:/Users/stapi/OneDrive/Desktop/GD32VW553/V1_MQTT_OK/GD32VW55X_Wifi_BLE_SDK/GD32VW55x_RELEASE_V1.0.2/MSDK/cloud/alicloud/src/protocol/alcs\alcs_adapter.c ****     }
 310:C:/Users/stapi/OneDrive/Desktop/GD32VW553/V1_MQTT_OK/GD32VW55X_Wifi_BLE_SDK/GD32VW55x_RELEASE_V1.0.2/MSDK/cloud/alicloud/src/protocol/alcs\alcs_adapter.c **** 
 311:C:/Users/stapi/OneDrive/Desktop/GD32VW553/V1_MQTT_OK/GD32VW55X_Wifi_BLE_SDK/GD32VW55x_RELEASE_V1.0.2/MSDK/cloud/alicloud/src/protocol/alcs\alcs_adapter.c ****     res = HAL_GetDeviceName(device_name);
 312:C:/Users/stapi/OneDrive/Desktop/GD32VW553/V1_MQTT_OK/GD32VW55X_Wifi_BLE_SDK/GD32VW55x_RELEASE_V1.0.2/MSDK/cloud/alicloud/src/protocol/alcs\alcs_adapter.c ****     if (res <= 0 || res > DEVICE_NAME_MAXLEN - 1) {
 313:C:/Users/stapi/OneDrive/Desktop/GD32VW553/V1_MQTT_OK/GD32VW55X_Wifi_BLE_SDK/GD32VW55x_RELEASE_V1.0.2/MSDK/cloud/alicloud/src/protocol/alcs\alcs_adapter.c ****         iotx_alcs_adapter_deinit();
 314:C:/Users/stapi/OneDrive/Desktop/GD32VW553/V1_MQTT_OK/GD32VW55X_Wifi_BLE_SDK/GD32VW55x_RELEASE_V1.0.2/MSDK/cloud/alicloud/src/protocol/alcs\alcs_adapter.c ****         COAP_ERR("Get Device Name Failed");
 315:C:/Users/stapi/OneDrive/Desktop/GD32VW553/V1_MQTT_OK/GD32VW55X_Wifi_BLE_SDK/GD32VW55x_RELEASE_V1.0.2/MSDK/cloud/alicloud/src/protocol/alcs\alcs_adapter.c ****         return FAIL_RETURN;
 316:C:/Users/stapi/OneDrive/Desktop/GD32VW553/V1_MQTT_OK/GD32VW55X_Wifi_BLE_SDK/GD32VW55x_RELEASE_V1.0.2/MSDK/cloud/alicloud/src/protocol/alcs\alcs_adapter.c ****     }
 317:C:/Users/stapi/OneDrive/Desktop/GD32VW553/V1_MQTT_OK/GD32VW55X_Wifi_BLE_SDK/GD32VW55x_RELEASE_V1.0.2/MSDK/cloud/alicloud/src/protocol/alcs\alcs_adapter.c **** 
 318:C:/Users/stapi/OneDrive/Desktop/GD32VW553/V1_MQTT_OK/GD32VW55X_Wifi_BLE_SDK/GD32VW55x_RELEASE_V1.0.2/MSDK/cloud/alicloud/src/protocol/alcs\alcs_adapter.c ****     alcs_init();
 319:C:/Users/stapi/OneDrive/Desktop/GD32VW553/V1_MQTT_OK/GD32VW55X_Wifi_BLE_SDK/GD32VW55x_RELEASE_V1.0.2/MSDK/cloud/alicloud/src/protocol/alcs\alcs_adapter.c **** 
 320:C:/Users/stapi/OneDrive/Desktop/GD32VW553/V1_MQTT_OK/GD32VW55X_Wifi_BLE_SDK/GD32VW55x_RELEASE_V1.0.2/MSDK/cloud/alicloud/src/protocol/alcs\alcs_adapter.c ****     res = alcs_auth_init(coap_ctx, product_key, device_name, param->role);
 321:C:/Users/stapi/OneDrive/Desktop/GD32VW553/V1_MQTT_OK/GD32VW55X_Wifi_BLE_SDK/GD32VW55x_RELEASE_V1.0.2/MSDK/cloud/alicloud/src/protocol/alcs\alcs_adapter.c ****     if (res != COAP_SUCCESS) {
 322:C:/Users/stapi/OneDrive/Desktop/GD32VW553/V1_MQTT_OK/GD32VW55X_Wifi_BLE_SDK/GD32VW55x_RELEASE_V1.0.2/MSDK/cloud/alicloud/src/protocol/alcs\alcs_adapter.c ****         iotx_alcs_adapter_deinit();
 323:C:/Users/stapi/OneDrive/Desktop/GD32VW553/V1_MQTT_OK/GD32VW55X_Wifi_BLE_SDK/GD32VW55x_RELEASE_V1.0.2/MSDK/cloud/alicloud/src/protocol/alcs\alcs_adapter.c ****         COAP_ERR("ALCS Auth Init Failed");
 1030              		.loc 1 323 9 is_stmt 0
 1031 008e 97000000 		call	HAL_Printf
 1031      E7800000 
 1032              	.LVL108:
 1033              		.loc 1 323 9 is_stmt 1
 1034 0096 13850900 		addi	a0,s3,%lo(.LC2)
 1035              	.L58:
 324:C:/Users/stapi/OneDrive/Desktop/GD32VW553/V1_MQTT_OK/GD32VW55X_Wifi_BLE_SDK/GD32VW55x_RELEASE_V1.0.2/MSDK/cloud/alicloud/src/protocol/alcs\alcs_adapter.c ****         return FAIL_RETURN;
 325:C:/Users/stapi/OneDrive/Desktop/GD32VW553/V1_MQTT_OK/GD32VW55X_Wifi_BLE_SDK/GD32VW55x_RELEASE_V1.0.2/MSDK/cloud/alicloud/src/protocol/alcs\alcs_adapter.c ****     }
 326:C:/Users/stapi/OneDrive/Desktop/GD32VW553/V1_MQTT_OK/GD32VW55X_Wifi_BLE_SDK/GD32VW55x_RELEASE_V1.0.2/MSDK/cloud/alicloud/src/protocol/alcs\alcs_adapter.c ****     adapter->role = param->role;
 327:C:/Users/stapi/OneDrive/Desktop/GD32VW553/V1_MQTT_OK/GD32VW55X_Wifi_BLE_SDK/GD32VW55x_RELEASE_V1.0.2/MSDK/cloud/alicloud/src/protocol/alcs\alcs_adapter.c **** #ifdef ALCS_SERVER_ENABLED
 328:C:/Users/stapi/OneDrive/Desktop/GD32VW553/V1_MQTT_OK/GD32VW55X_Wifi_BLE_SDK/GD32VW55x_RELEASE_V1.0.2/MSDK/cloud/alicloud/src/protocol/alcs\alcs_adapter.c ****     extern void on_svr_auth_timer(CoAPContext *);
 329:C:/Users/stapi/OneDrive/Desktop/GD32VW553/V1_MQTT_OK/GD32VW55X_Wifi_BLE_SDK/GD32VW55x_RELEASE_V1.0.2/MSDK/cloud/alicloud/src/protocol/alcs\alcs_adapter.c ****     if (adapter->role & IOTX_ALCS_ROLE_SERVER) {
 330:C:/Users/stapi/OneDrive/Desktop/GD32VW553/V1_MQTT_OK/GD32VW55X_Wifi_BLE_SDK/GD32VW55x_RELEASE_V1.0.2/MSDK/cloud/alicloud/src/protocol/alcs\alcs_adapter.c ****         adapter->alcs_server_auth_timer_func = on_svr_auth_timer;
 331:C:/Users/stapi/OneDrive/Desktop/GD32VW553/V1_MQTT_OK/GD32VW55X_Wifi_BLE_SDK/GD32VW55x_RELEASE_V1.0.2/MSDK/cloud/alicloud/src/protocol/alcs\alcs_adapter.c ****     }
 332:C:/Users/stapi/OneDrive/Desktop/GD32VW553/V1_MQTT_OK/GD32VW55X_Wifi_BLE_SDK/GD32VW55x_RELEASE_V1.0.2/MSDK/cloud/alicloud/src/protocol/alcs\alcs_adapter.c **** #endif
 333:C:/Users/stapi/OneDrive/Desktop/GD32VW553/V1_MQTT_OK/GD32VW55X_Wifi_BLE_SDK/GD32VW55x_RELEASE_V1.0.2/MSDK/cloud/alicloud/src/protocol/alcs\alcs_adapter.c **** 
 334:C:/Users/stapi/OneDrive/Desktop/GD32VW553/V1_MQTT_OK/GD32VW55X_Wifi_BLE_SDK/GD32VW55x_RELEASE_V1.0.2/MSDK/cloud/alicloud/src/protocol/alcs\alcs_adapter.c **** #ifdef ALCS_CLIENT_ENABLED
 335:C:/Users/stapi/OneDrive/Desktop/GD32VW553/V1_MQTT_OK/GD32VW55X_Wifi_BLE_SDK/GD32VW55x_RELEASE_V1.0.2/MSDK/cloud/alicloud/src/protocol/alcs\alcs_adapter.c ****     extern void on_client_auth_timer(CoAPContext *);
 336:C:/Users/stapi/OneDrive/Desktop/GD32VW553/V1_MQTT_OK/GD32VW55X_Wifi_BLE_SDK/GD32VW55x_RELEASE_V1.0.2/MSDK/cloud/alicloud/src/protocol/alcs\alcs_adapter.c ****     if (adapter->role & IOTX_ALCS_ROLE_CLIENT) {
 337:C:/Users/stapi/OneDrive/Desktop/GD32VW553/V1_MQTT_OK/GD32VW55X_Wifi_BLE_SDK/GD32VW55x_RELEASE_V1.0.2/MSDK/cloud/alicloud/src/protocol/alcs\alcs_adapter.c ****         adapter->alcs_client_auth_timer_func = on_client_auth_timer;
 338:C:/Users/stapi/OneDrive/Desktop/GD32VW553/V1_MQTT_OK/GD32VW55X_Wifi_BLE_SDK/GD32VW55x_RELEASE_V1.0.2/MSDK/cloud/alicloud/src/protocol/alcs\alcs_adapter.c ****     }
 339:C:/Users/stapi/OneDrive/Desktop/GD32VW553/V1_MQTT_OK/GD32VW55X_Wifi_BLE_SDK/GD32VW55x_RELEASE_V1.0.2/MSDK/cloud/alicloud/src/protocol/alcs\alcs_adapter.c **** #endif
 340:C:/Users/stapi/OneDrive/Desktop/GD32VW553/V1_MQTT_OK/GD32VW55X_Wifi_BLE_SDK/GD32VW55x_RELEASE_V1.0.2/MSDK/cloud/alicloud/src/protocol/alcs\alcs_adapter.c **** 
 341:C:/Users/stapi/OneDrive/Desktop/GD32VW553/V1_MQTT_OK/GD32VW55X_Wifi_BLE_SDK/GD32VW55x_RELEASE_V1.0.2/MSDK/cloud/alicloud/src/protocol/alcs\alcs_adapter.c ****     adapter->alcs_event_handle = (iotx_alcs_event_handle_t *)ALCS_ADAPTER_malloc(sizeof(iotx_alcs_e
 342:C:/Users/stapi/OneDrive/Desktop/GD32VW553/V1_MQTT_OK/GD32VW55X_Wifi_BLE_SDK/GD32VW55x_RELEASE_V1.0.2/MSDK/cloud/alicloud/src/protocol/alcs\alcs_adapter.c ****     if (adapter->alcs_event_handle == NULL) {
 343:C:/Users/stapi/OneDrive/Desktop/GD32VW553/V1_MQTT_OK/GD32VW55X_Wifi_BLE_SDK/GD32VW55x_RELEASE_V1.0.2/MSDK/cloud/alicloud/src/protocol/alcs\alcs_adapter.c ****         iotx_alcs_adapter_deinit();
 344:C:/Users/stapi/OneDrive/Desktop/GD32VW553/V1_MQTT_OK/GD32VW55X_Wifi_BLE_SDK/GD32VW55x_RELEASE_V1.0.2/MSDK/cloud/alicloud/src/protocol/alcs\alcs_adapter.c ****         COAP_ERR("ALCS Event Handle Init Failed");
 1036              		.loc 1 344 9 is_stmt 0
 1037 009a 97000000 		call	HAL_Printf
 1037      E7800000 
 1038              	.LVL109:
 1039 00a2 ADA8     		j	.L59
 1040              	.LVL110:
 1041              	.L46:
 287:C:/Users/stapi/OneDrive/Desktop/GD32VW553/V1_MQTT_OK/GD32VW55X_Wifi_BLE_SDK/GD32VW55x_RELEASE_V1.0.2/MSDK/cloud/alicloud/src/protocol/alcs\alcs_adapter.c ****     coap_param.obs_maxcount = param->obs_maxcount;
 1042              		.loc 1 287 5 is_stmt 1
 287:C:/Users/stapi/OneDrive/Desktop/GD32VW553/V1_MQTT_OK/GD32VW55X_Wifi_BLE_SDK/GD32VW55x_RELEASE_V1.0.2/MSDK/cloud/alicloud/src/protocol/alcs\alcs_adapter.c ****     coap_param.obs_maxcount = param->obs_maxcount;
 1043              		.loc 1 287 30 is_stmt 0
 1044 00a4 83C71400 		lbu	a5,1(s1)
 296:C:/Users/stapi/OneDrive/Desktop/GD32VW553/V1_MQTT_OK/GD32VW55X_Wifi_BLE_SDK/GD32VW55x_RELEASE_V1.0.2/MSDK/cloud/alicloud/src/protocol/alcs\alcs_adapter.c ****     if (coap_ctx == NULL) {
 1045              		.loc 1 296 16
 1046 00a8 4810     		addi	a0,sp,36
 293:C:/Users/stapi/OneDrive/Desktop/GD32VW553/V1_MQTT_OK/GD32VW55X_Wifi_BLE_SDK/GD32VW55x_RELEASE_V1.0.2/MSDK/cloud/alicloud/src/protocol/alcs\alcs_adapter.c ****     coap_param.notifier = iotx_alcs_coap_adapter_event_notifier;
 1047              		.loc 1 293 24
 1048 00aa 02DA     		sw	zero,52(sp)
 287:C:/Users/stapi/OneDrive/Desktop/GD32VW553/V1_MQTT_OK/GD32VW55X_Wifi_BLE_SDK/GD32VW55x_RELEASE_V1.0.2/MSDK/cloud/alicloud/src/protocol/alcs\alcs_adapter.c ****     coap_param.obs_maxcount = param->obs_maxcount;
 1049              		.loc 1 287 30
 1050 00ac 2302F102 		sb	a5,36(sp)
 288:C:/Users/stapi/OneDrive/Desktop/GD32VW553/V1_MQTT_OK/GD32VW55X_Wifi_BLE_SDK/GD32VW55x_RELEASE_V1.0.2/MSDK/cloud/alicloud/src/protocol/alcs\alcs_adapter.c ****     coap_param.port = param->port;
 1051              		.loc 1 288 5 is_stmt 1
 288:C:/Users/stapi/OneDrive/Desktop/GD32VW553/V1_MQTT_OK/GD32VW55X_Wifi_BLE_SDK/GD32VW55x_RELEASE_V1.0.2/MSDK/cloud/alicloud/src/protocol/alcs\alcs_adapter.c ****     coap_param.port = param->port;
 1052              		.loc 1 288 29 is_stmt 0
 1053 00b0 83C72400 		lbu	a5,2(s1)
 1054 00b4 A302F102 		sb	a5,37(sp)
 289:C:/Users/stapi/OneDrive/Desktop/GD32VW553/V1_MQTT_OK/GD32VW55X_Wifi_BLE_SDK/GD32VW55x_RELEASE_V1.0.2/MSDK/cloud/alicloud/src/protocol/alcs\alcs_adapter.c ****     coap_param.group = param->group;
 1055              		.loc 1 289 5 is_stmt 1
 289:C:/Users/stapi/OneDrive/Desktop/GD32VW553/V1_MQTT_OK/GD32VW55X_Wifi_BLE_SDK/GD32VW55x_RELEASE_V1.0.2/MSDK/cloud/alicloud/src/protocol/alcs\alcs_adapter.c ****     coap_param.group = param->group;
 1056              		.loc 1 289 21 is_stmt 0
 1057 00b8 83D74400 		lhu	a5,4(s1)
 1058 00bc 2313F102 		sh	a5,38(sp)
 290:C:/Users/stapi/OneDrive/Desktop/GD32VW553/V1_MQTT_OK/GD32VW55X_Wifi_BLE_SDK/GD32VW55x_RELEASE_V1.0.2/MSDK/cloud/alicloud/src/protocol/alcs\alcs_adapter.c ****     coap_param.waittime = param->waittime;
 1059              		.loc 1 290 5 is_stmt 1
 290:C:/Users/stapi/OneDrive/Desktop/GD32VW553/V1_MQTT_OK/GD32VW55X_Wifi_BLE_SDK/GD32VW55x_RELEASE_V1.0.2/MSDK/cloud/alicloud/src/protocol/alcs\alcs_adapter.c ****     coap_param.waittime = param->waittime;
 1060              		.loc 1 290 22 is_stmt 0
 1061 00c0 9C44     		lw	a5,8(s1)
 1062 00c2 3ED4     		sw	a5,40(sp)
 291:C:/Users/stapi/OneDrive/Desktop/GD32VW553/V1_MQTT_OK/GD32VW55X_Wifi_BLE_SDK/GD32VW55x_RELEASE_V1.0.2/MSDK/cloud/alicloud/src/protocol/alcs\alcs_adapter.c ****     coap_param.res_maxcount = param->res_maxcount;
 1063              		.loc 1 291 5 is_stmt 1
 291:C:/Users/stapi/OneDrive/Desktop/GD32VW553/V1_MQTT_OK/GD32VW55X_Wifi_BLE_SDK/GD32VW55x_RELEASE_V1.0.2/MSDK/cloud/alicloud/src/protocol/alcs\alcs_adapter.c ****     coap_param.res_maxcount = param->res_maxcount;
 1064              		.loc 1 291 25 is_stmt 0
 1065 00c4 DC44     		lw	a5,12(s1)
 1066 00c6 3ED6     		sw	a5,44(sp)
 292:C:/Users/stapi/OneDrive/Desktop/GD32VW553/V1_MQTT_OK/GD32VW55X_Wifi_BLE_SDK/GD32VW55x_RELEASE_V1.0.2/MSDK/cloud/alicloud/src/protocol/alcs\alcs_adapter.c ****     coap_param.appdata = NULL;
 1067              		.loc 1 292 5 is_stmt 1
 292:C:/Users/stapi/OneDrive/Desktop/GD32VW553/V1_MQTT_OK/GD32VW55X_Wifi_BLE_SDK/GD32VW55x_RELEASE_V1.0.2/MSDK/cloud/alicloud/src/protocol/alcs\alcs_adapter.c ****     coap_param.appdata = NULL;
 1068              		.loc 1 292 29 is_stmt 0
 1069 00c8 83C70401 		lbu	a5,16(s1)
 1070 00cc 230CF102 		sb	a5,56(sp)
 293:C:/Users/stapi/OneDrive/Desktop/GD32VW553/V1_MQTT_OK/GD32VW55X_Wifi_BLE_SDK/GD32VW55x_RELEASE_V1.0.2/MSDK/cloud/alicloud/src/protocol/alcs\alcs_adapter.c ****     coap_param.notifier = iotx_alcs_coap_adapter_event_notifier;
 1071              		.loc 1 293 5 is_stmt 1
 294:C:/Users/stapi/OneDrive/Desktop/GD32VW553/V1_MQTT_OK/GD32VW55X_Wifi_BLE_SDK/GD32VW55x_RELEASE_V1.0.2/MSDK/cloud/alicloud/src/protocol/alcs\alcs_adapter.c **** 
 1072              		.loc 1 294 5
 294:C:/Users/stapi/OneDrive/Desktop/GD32VW553/V1_MQTT_OK/GD32VW55X_Wifi_BLE_SDK/GD32VW55x_RELEASE_V1.0.2/MSDK/cloud/alicloud/src/protocol/alcs\alcs_adapter.c **** 
 1073              		.loc 1 294 25 is_stmt 0
 1074 00d0 B7070000 		lui	a5,%hi(iotx_alcs_coap_adapter_event_notifier)
 1075 00d4 93870700 		addi	a5,a5,%lo(iotx_alcs_coap_adapter_event_notifier)
 1076 00d8 3ED8     		sw	a5,48(sp)
 296:C:/Users/stapi/OneDrive/Desktop/GD32VW553/V1_MQTT_OK/GD32VW55X_Wifi_BLE_SDK/GD32VW55x_RELEASE_V1.0.2/MSDK/cloud/alicloud/src/protocol/alcs\alcs_adapter.c ****     if (coap_ctx == NULL) {
 1077              		.loc 1 296 5 is_stmt 1
 296:C:/Users/stapi/OneDrive/Desktop/GD32VW553/V1_MQTT_OK/GD32VW55X_Wifi_BLE_SDK/GD32VW55x_RELEASE_V1.0.2/MSDK/cloud/alicloud/src/protocol/alcs\alcs_adapter.c ****     if (coap_ctx == NULL) {
 1078              		.loc 1 296 16 is_stmt 0
 1079 00da 97000000 		call	alcs_context_init
 1079      E7800000 
 1080              	.LVL111:
 1081 00e2 2A8A     		mv	s4,a0
 1082              	.LVL112:
 297:C:/Users/stapi/OneDrive/Desktop/GD32VW553/V1_MQTT_OK/GD32VW55X_Wifi_BLE_SDK/GD32VW55x_RELEASE_V1.0.2/MSDK/cloud/alicloud/src/protocol/alcs\alcs_adapter.c ****         COAP_ERR("Coap Context Init Failed");
 1083              		.loc 1 297 5 is_stmt 1
 297:C:/Users/stapi/OneDrive/Desktop/GD32VW553/V1_MQTT_OK/GD32VW55X_Wifi_BLE_SDK/GD32VW55x_RELEASE_V1.0.2/MSDK/cloud/alicloud/src/protocol/alcs\alcs_adapter.c ****         COAP_ERR("Coap Context Init Failed");
 1084              		.loc 1 297 8 is_stmt 0
 1085 00e4 39E1     		bne	a0,zero,.L48
 298:C:/Users/stapi/OneDrive/Desktop/GD32VW553/V1_MQTT_OK/GD32VW55X_Wifi_BLE_SDK/GD32VW55x_RELEASE_V1.0.2/MSDK/cloud/alicloud/src/protocol/alcs\alcs_adapter.c ****         HAL_MutexDestroy(adapter->mutex);
 1086              		.loc 1 298 9 is_stmt 1
 298:C:/Users/stapi/OneDrive/Desktop/GD32VW553/V1_MQTT_OK/GD32VW55X_Wifi_BLE_SDK/GD32VW55x_RELEASE_V1.0.2/MSDK/cloud/alicloud/src/protocol/alcs\alcs_adapter.c ****         HAL_MutexDestroy(adapter->mutex);
 1087              		.loc 1 298 9
 1088 00e6 37050000 		lui	a0,%hi(.LC3)
 1089              	.LVL113:
 1090 00ea 13050500 		addi	a0,a0,%lo(.LC3)
 1091 00ee 97000000 		call	HAL_Printf
 1091      E7800000 
 1092              	.LVL114:
 298:C:/Users/stapi/OneDrive/Desktop/GD32VW553/V1_MQTT_OK/GD32VW55X_Wifi_BLE_SDK/GD32VW55x_RELEASE_V1.0.2/MSDK/cloud/alicloud/src/protocol/alcs\alcs_adapter.c ****         HAL_MutexDestroy(adapter->mutex);
 1093              		.loc 1 298 9
 1094 00f6 37050000 		lui	a0,%hi(.LC9)
 1095 00fa 13050500 		addi	a0,a0,%lo(.LC9)
 1096 00fe 97000000 		call	HAL_Printf
 1096      E7800000 
 1097              	.LVL115:
 298:C:/Users/stapi/OneDrive/Desktop/GD32VW553/V1_MQTT_OK/GD32VW55X_Wifi_BLE_SDK/GD32VW55x_RELEASE_V1.0.2/MSDK/cloud/alicloud/src/protocol/alcs\alcs_adapter.c ****         HAL_MutexDestroy(adapter->mutex);
 1098              		.loc 1 298 9
 1099 0106 13850900 		addi	a0,s3,%lo(.LC2)
 1100 010a 97000000 		call	HAL_Printf
 1100      E7800000 
 1101              	.LVL116:
 298:C:/Users/stapi/OneDrive/Desktop/GD32VW553/V1_MQTT_OK/GD32VW55X_Wifi_BLE_SDK/GD32VW55x_RELEASE_V1.0.2/MSDK/cloud/alicloud/src/protocol/alcs\alcs_adapter.c ****         HAL_MutexDestroy(adapter->mutex);
 1102              		.loc 1 298 9
 299:C:/Users/stapi/OneDrive/Desktop/GD32VW553/V1_MQTT_OK/GD32VW55X_Wifi_BLE_SDK/GD32VW55x_RELEASE_V1.0.2/MSDK/cloud/alicloud/src/protocol/alcs\alcs_adapter.c ****         return FAIL_RETURN;
 1103              		.loc 1 299 9
 1104 0112 0840     		lw	a0,0(s0)
 1105 0114 97000000 		call	HAL_MutexDestroy
 1105      E7800000 
 1106              	.LVL117:
 300:C:/Users/stapi/OneDrive/Desktop/GD32VW553/V1_MQTT_OK/GD32VW55X_Wifi_BLE_SDK/GD32VW55x_RELEASE_V1.0.2/MSDK/cloud/alicloud/src/protocol/alcs\alcs_adapter.c ****     }
 1107              		.loc 1 300 9
 1108              	.L59:
 1109              		.loc 1 344 9
 345:C:/Users/stapi/OneDrive/Desktop/GD32VW553/V1_MQTT_OK/GD32VW55X_Wifi_BLE_SDK/GD32VW55x_RELEASE_V1.0.2/MSDK/cloud/alicloud/src/protocol/alcs\alcs_adapter.c ****         return FAIL_RETURN;
 1110              		.loc 1 345 9
 1111              		.loc 1 345 16 is_stmt 0
 1112 011c 7D59     		li	s2,-1
 1113              	.L45:
 346:C:/Users/stapi/OneDrive/Desktop/GD32VW553/V1_MQTT_OK/GD32VW55X_Wifi_BLE_SDK/GD32VW55x_RELEASE_V1.0.2/MSDK/cloud/alicloud/src/protocol/alcs\alcs_adapter.c ****     }
 347:C:/Users/stapi/OneDrive/Desktop/GD32VW553/V1_MQTT_OK/GD32VW55X_Wifi_BLE_SDK/GD32VW55x_RELEASE_V1.0.2/MSDK/cloud/alicloud/src/protocol/alcs\alcs_adapter.c ****     memcpy(adapter->alcs_event_handle, param->handle_event, sizeof(iotx_alcs_event_handle_t));
 348:C:/Users/stapi/OneDrive/Desktop/GD32VW553/V1_MQTT_OK/GD32VW55X_Wifi_BLE_SDK/GD32VW55x_RELEASE_V1.0.2/MSDK/cloud/alicloud/src/protocol/alcs\alcs_adapter.c **** 
 349:C:/Users/stapi/OneDrive/Desktop/GD32VW553/V1_MQTT_OK/GD32VW55X_Wifi_BLE_SDK/GD32VW55x_RELEASE_V1.0.2/MSDK/cloud/alicloud/src/protocol/alcs\alcs_adapter.c ****     if (iotx_alcs_adapter_list_init(adapter) != SUCCESS_RETURN) {
 350:C:/Users/stapi/OneDrive/Desktop/GD32VW553/V1_MQTT_OK/GD32VW55X_Wifi_BLE_SDK/GD32VW55x_RELEASE_V1.0.2/MSDK/cloud/alicloud/src/protocol/alcs\alcs_adapter.c ****         iotx_alcs_adapter_deinit();
 351:C:/Users/stapi/OneDrive/Desktop/GD32VW553/V1_MQTT_OK/GD32VW55X_Wifi_BLE_SDK/GD32VW55x_RELEASE_V1.0.2/MSDK/cloud/alicloud/src/protocol/alcs\alcs_adapter.c ****         COAP_ERR("ALCS Linked List Init Failed");
 352:C:/Users/stapi/OneDrive/Desktop/GD32VW553/V1_MQTT_OK/GD32VW55X_Wifi_BLE_SDK/GD32VW55x_RELEASE_V1.0.2/MSDK/cloud/alicloud/src/protocol/alcs\alcs_adapter.c ****         return FAIL_RETURN;
 353:C:/Users/stapi/OneDrive/Desktop/GD32VW553/V1_MQTT_OK/GD32VW55X_Wifi_BLE_SDK/GD32VW55x_RELEASE_V1.0.2/MSDK/cloud/alicloud/src/protocol/alcs\alcs_adapter.c ****     }
 354:C:/Users/stapi/OneDrive/Desktop/GD32VW553/V1_MQTT_OK/GD32VW55X_Wifi_BLE_SDK/GD32VW55x_RELEASE_V1.0.2/MSDK/cloud/alicloud/src/protocol/alcs\alcs_adapter.c **** 
 355:C:/Users/stapi/OneDrive/Desktop/GD32VW553/V1_MQTT_OK/GD32VW55X_Wifi_BLE_SDK/GD32VW55x_RELEASE_V1.0.2/MSDK/cloud/alicloud/src/protocol/alcs\alcs_adapter.c ****     alcs_localsetup_init(adapter, coap_ctx, product_key, device_name);
 356:C:/Users/stapi/OneDrive/Desktop/GD32VW553/V1_MQTT_OK/GD32VW55X_Wifi_BLE_SDK/GD32VW55x_RELEASE_V1.0.2/MSDK/cloud/alicloud/src/protocol/alcs\alcs_adapter.c **** 
 357:C:/Users/stapi/OneDrive/Desktop/GD32VW553/V1_MQTT_OK/GD32VW55X_Wifi_BLE_SDK/GD32VW55x_RELEASE_V1.0.2/MSDK/cloud/alicloud/src/protocol/alcs\alcs_adapter.c ****     return SUCCESS_RETURN;
 358:C:/Users/stapi/OneDrive/Desktop/GD32VW553/V1_MQTT_OK/GD32VW55X_Wifi_BLE_SDK/GD32VW55x_RELEASE_V1.0.2/MSDK/cloud/alicloud/src/protocol/alcs\alcs_adapter.c **** }
 1114              		.loc 1 358 1
 1115 011e 4A85     		mv	a0,s2
 1116 0120 2561     		addi	sp,sp,96
 1117              		.cfi_remember_state
 1118              		.cfi_def_cfa_offset 0
 1119 0122 17030000 		tail	__riscv_restore_6
 1119      67000300 
 1120              		.cfi_restore 21
 1121              		.cfi_restore 20
 1122              		.cfi_restore 19
 1123              		.cfi_restore 18
 1124              		.cfi_restore 9
 1125              		.cfi_restore 8
 1126              		.cfi_restore 1
 1127              		.cfi_def_cfa_offset -32
 1128              	.LVL118:
 1129              	.L48:
 1130              		.cfi_restore_state
 302:C:/Users/stapi/OneDrive/Desktop/GD32VW553/V1_MQTT_OK/GD32VW55X_Wifi_BLE_SDK/GD32VW55x_RELEASE_V1.0.2/MSDK/cloud/alicloud/src/protocol/alcs\alcs_adapter.c **** 
 1131              		.loc 1 302 5 is_stmt 1
 302:C:/Users/stapi/OneDrive/Desktop/GD32VW553/V1_MQTT_OK/GD32VW55X_Wifi_BLE_SDK/GD32VW55x_RELEASE_V1.0.2/MSDK/cloud/alicloud/src/protocol/alcs\alcs_adapter.c **** 
 1132              		.loc 1 302 23 is_stmt 0
 1133 012a 08C4     		sw	a0,8(s0)
 304:C:/Users/stapi/OneDrive/Desktop/GD32VW553/V1_MQTT_OK/GD32VW55X_Wifi_BLE_SDK/GD32VW55x_RELEASE_V1.0.2/MSDK/cloud/alicloud/src/protocol/alcs\alcs_adapter.c ****     if (res <= 0 || res > PRODUCT_KEY_MAXLEN - 1) {
 1134              		.loc 1 304 5 is_stmt 1
 304:C:/Users/stapi/OneDrive/Desktop/GD32VW553/V1_MQTT_OK/GD32VW55X_Wifi_BLE_SDK/GD32VW55x_RELEASE_V1.0.2/MSDK/cloud/alicloud/src/protocol/alcs\alcs_adapter.c ****     if (res <= 0 || res > PRODUCT_KEY_MAXLEN - 1) {
 1135              		.loc 1 304 11 is_stmt 0
 1136 012c 6800     		addi	a0,sp,12
 1137              	.LVL119:
 1138 012e 97000000 		call	HAL_GetProductKey
 1138      E7800000 
 1139              	.LVL120:
 305:C:/Users/stapi/OneDrive/Desktop/GD32VW553/V1_MQTT_OK/GD32VW55X_Wifi_BLE_SDK/GD32VW55x_RELEASE_V1.0.2/MSDK/cloud/alicloud/src/protocol/alcs\alcs_adapter.c ****         iotx_alcs_adapter_deinit();
 1140              		.loc 1 305 5 is_stmt 1
 305:C:/Users/stapi/OneDrive/Desktop/GD32VW553/V1_MQTT_OK/GD32VW55X_Wifi_BLE_SDK/GD32VW55x_RELEASE_V1.0.2/MSDK/cloud/alicloud/src/protocol/alcs\alcs_adapter.c ****         iotx_alcs_adapter_deinit();
 1141              		.loc 1 305 18 is_stmt 0
 1142 0136 7D15     		addi	a0,a0,-1
 1143              	.LVL121:
 305:C:/Users/stapi/OneDrive/Desktop/GD32VW553/V1_MQTT_OK/GD32VW55X_Wifi_BLE_SDK/GD32VW55x_RELEASE_V1.0.2/MSDK/cloud/alicloud/src/protocol/alcs\alcs_adapter.c ****         iotx_alcs_adapter_deinit();
 1144              		.loc 1 305 8
 1145 0138 CD47     		li	a5,19
 1146 013a 63F3A702 		bleu	a0,a5,.L49
 306:C:/Users/stapi/OneDrive/Desktop/GD32VW553/V1_MQTT_OK/GD32VW55X_Wifi_BLE_SDK/GD32VW55x_RELEASE_V1.0.2/MSDK/cloud/alicloud/src/protocol/alcs\alcs_adapter.c ****         COAP_ERR("Get Product Key Failed");
 1147              		.loc 1 306 9 is_stmt 1
 1148 013e 97000000 		call	iotx_alcs_adapter_deinit
 1148      E7800000 
 1149              	.LVL122:
 307:C:/Users/stapi/OneDrive/Desktop/GD32VW553/V1_MQTT_OK/GD32VW55X_Wifi_BLE_SDK/GD32VW55x_RELEASE_V1.0.2/MSDK/cloud/alicloud/src/protocol/alcs\alcs_adapter.c ****         return FAIL_RETURN;
 1150              		.loc 1 307 9
 307:C:/Users/stapi/OneDrive/Desktop/GD32VW553/V1_MQTT_OK/GD32VW55X_Wifi_BLE_SDK/GD32VW55x_RELEASE_V1.0.2/MSDK/cloud/alicloud/src/protocol/alcs\alcs_adapter.c ****         return FAIL_RETURN;
 1151              		.loc 1 307 9
 1152 0146 37050000 		lui	a0,%hi(.LC3)
 1153 014a 13050500 		addi	a0,a0,%lo(.LC3)
 1154 014e 97000000 		call	HAL_Printf
 1154      E7800000 
 1155              	.LVL123:
 307:C:/Users/stapi/OneDrive/Desktop/GD32VW553/V1_MQTT_OK/GD32VW55X_Wifi_BLE_SDK/GD32VW55x_RELEASE_V1.0.2/MSDK/cloud/alicloud/src/protocol/alcs\alcs_adapter.c ****         return FAIL_RETURN;
 1156              		.loc 1 307 9
 1157 0156 37050000 		lui	a0,%hi(.LC10)
 1158 015a 13050500 		addi	a0,a0,%lo(.LC10)
 1159 015e 05BF     		j	.L60
 1160              	.LVL124:
 1161              	.L49:
 311:C:/Users/stapi/OneDrive/Desktop/GD32VW553/V1_MQTT_OK/GD32VW55X_Wifi_BLE_SDK/GD32VW55x_RELEASE_V1.0.2/MSDK/cloud/alicloud/src/protocol/alcs\alcs_adapter.c ****     if (res <= 0 || res > DEVICE_NAME_MAXLEN - 1) {
 1162              		.loc 1 311 5
 311:C:/Users/stapi/OneDrive/Desktop/GD32VW553/V1_MQTT_OK/GD32VW55X_Wifi_BLE_SDK/GD32VW55x_RELEASE_V1.0.2/MSDK/cloud/alicloud/src/protocol/alcs\alcs_adapter.c ****     if (res <= 0 || res > DEVICE_NAME_MAXLEN - 1) {
 1163              		.loc 1 311 11 is_stmt 0
 1164 0160 6818     		addi	a0,sp,60
 1165              	.LVL125:
 1166 0162 97000000 		call	HAL_GetDeviceName
 1166      E7800000 
 1167              	.LVL126:
 312:C:/Users/stapi/OneDrive/Desktop/GD32VW553/V1_MQTT_OK/GD32VW55X_Wifi_BLE_SDK/GD32VW55x_RELEASE_V1.0.2/MSDK/cloud/alicloud/src/protocol/alcs\alcs_adapter.c ****         iotx_alcs_adapter_deinit();
 1168              		.loc 1 312 5 is_stmt 1
 312:C:/Users/stapi/OneDrive/Desktop/GD32VW553/V1_MQTT_OK/GD32VW55X_Wifi_BLE_SDK/GD32VW55x_RELEASE_V1.0.2/MSDK/cloud/alicloud/src/protocol/alcs\alcs_adapter.c ****         iotx_alcs_adapter_deinit();
 1169              		.loc 1 312 18 is_stmt 0
 1170 016a 7D15     		addi	a0,a0,-1
 1171              	.LVL127:
 312:C:/Users/stapi/OneDrive/Desktop/GD32VW553/V1_MQTT_OK/GD32VW55X_Wifi_BLE_SDK/GD32VW55x_RELEASE_V1.0.2/MSDK/cloud/alicloud/src/protocol/alcs\alcs_adapter.c ****         iotx_alcs_adapter_deinit();
 1172              		.loc 1 312 8
 1173 016c FD47     		li	a5,31
 1174 016e 63F3A702 		bleu	a0,a5,.L50
 313:C:/Users/stapi/OneDrive/Desktop/GD32VW553/V1_MQTT_OK/GD32VW55X_Wifi_BLE_SDK/GD32VW55x_RELEASE_V1.0.2/MSDK/cloud/alicloud/src/protocol/alcs\alcs_adapter.c ****         COAP_ERR("Get Device Name Failed");
 1175              		.loc 1 313 9 is_stmt 1
 1176 0172 97000000 		call	iotx_alcs_adapter_deinit
 1176      E7800000 
 1177              	.LVL128:
 314:C:/Users/stapi/OneDrive/Desktop/GD32VW553/V1_MQTT_OK/GD32VW55X_Wifi_BLE_SDK/GD32VW55x_RELEASE_V1.0.2/MSDK/cloud/alicloud/src/protocol/alcs\alcs_adapter.c ****         return FAIL_RETURN;
 1178              		.loc 1 314 9
 314:C:/Users/stapi/OneDrive/Desktop/GD32VW553/V1_MQTT_OK/GD32VW55X_Wifi_BLE_SDK/GD32VW55x_RELEASE_V1.0.2/MSDK/cloud/alicloud/src/protocol/alcs\alcs_adapter.c ****         return FAIL_RETURN;
 1179              		.loc 1 314 9
 1180 017a 37050000 		lui	a0,%hi(.LC3)
 1181 017e 13050500 		addi	a0,a0,%lo(.LC3)
 1182 0182 97000000 		call	HAL_Printf
 1182      E7800000 
 1183              	.LVL129:
 314:C:/Users/stapi/OneDrive/Desktop/GD32VW553/V1_MQTT_OK/GD32VW55X_Wifi_BLE_SDK/GD32VW55x_RELEASE_V1.0.2/MSDK/cloud/alicloud/src/protocol/alcs\alcs_adapter.c ****         return FAIL_RETURN;
 1184              		.loc 1 314 9
 1185 018a 37050000 		lui	a0,%hi(.LC11)
 1186 018e 13050500 		addi	a0,a0,%lo(.LC11)
 1187 0192 F5BD     		j	.L60
 1188              	.LVL130:
 1189              	.L50:
 318:C:/Users/stapi/OneDrive/Desktop/GD32VW553/V1_MQTT_OK/GD32VW55X_Wifi_BLE_SDK/GD32VW55x_RELEASE_V1.0.2/MSDK/cloud/alicloud/src/protocol/alcs\alcs_adapter.c **** 
 1190              		.loc 1 318 5
 1191 0194 97000000 		call	alcs_init
 1191      E7800000 
 1192              	.LVL131:
 320:C:/Users/stapi/OneDrive/Desktop/GD32VW553/V1_MQTT_OK/GD32VW55X_Wifi_BLE_SDK/GD32VW55x_RELEASE_V1.0.2/MSDK/cloud/alicloud/src/protocol/alcs\alcs_adapter.c ****     if (res != COAP_SUCCESS) {
 1193              		.loc 1 320 5
 320:C:/Users/stapi/OneDrive/Desktop/GD32VW553/V1_MQTT_OK/GD32VW55X_Wifi_BLE_SDK/GD32VW55x_RELEASE_V1.0.2/MSDK/cloud/alicloud/src/protocol/alcs\alcs_adapter.c ****     if (res != COAP_SUCCESS) {
 1194              		.loc 1 320 11 is_stmt 0
 1195 019c 7018     		addi	a2,sp,60
 1196 019e 6C00     		addi	a1,sp,12
 1197 01a0 5285     		mv	a0,s4
 1198 01a2 83860400 		lb	a3,0(s1)
 1199 01a6 97000000 		call	alcs_auth_init
 1199      E7800000 
 1200              	.LVL132:
 1201 01ae 2A89     		mv	s2,a0
 1202              	.LVL133:
 321:C:/Users/stapi/OneDrive/Desktop/GD32VW553/V1_MQTT_OK/GD32VW55X_Wifi_BLE_SDK/GD32VW55x_RELEASE_V1.0.2/MSDK/cloud/alicloud/src/protocol/alcs\alcs_adapter.c ****         iotx_alcs_adapter_deinit();
 1203              		.loc 1 321 5 is_stmt 1
 321:C:/Users/stapi/OneDrive/Desktop/GD32VW553/V1_MQTT_OK/GD32VW55X_Wifi_BLE_SDK/GD32VW55x_RELEASE_V1.0.2/MSDK/cloud/alicloud/src/protocol/alcs\alcs_adapter.c ****         iotx_alcs_adapter_deinit();
 1204              		.loc 1 321 8 is_stmt 0
 1205 01b0 15C1     		beq	a0,zero,.L51
 322:C:/Users/stapi/OneDrive/Desktop/GD32VW553/V1_MQTT_OK/GD32VW55X_Wifi_BLE_SDK/GD32VW55x_RELEASE_V1.0.2/MSDK/cloud/alicloud/src/protocol/alcs\alcs_adapter.c ****         COAP_ERR("ALCS Auth Init Failed");
 1206              		.loc 1 322 9 is_stmt 1
 1207 01b2 97000000 		call	iotx_alcs_adapter_deinit
 1207      E7800000 
 1208              	.LVL134:
 323:C:/Users/stapi/OneDrive/Desktop/GD32VW553/V1_MQTT_OK/GD32VW55X_Wifi_BLE_SDK/GD32VW55x_RELEASE_V1.0.2/MSDK/cloud/alicloud/src/protocol/alcs\alcs_adapter.c ****         return FAIL_RETURN;
 1209              		.loc 1 323 9
 323:C:/Users/stapi/OneDrive/Desktop/GD32VW553/V1_MQTT_OK/GD32VW55X_Wifi_BLE_SDK/GD32VW55x_RELEASE_V1.0.2/MSDK/cloud/alicloud/src/protocol/alcs\alcs_adapter.c ****         return FAIL_RETURN;
 1210              		.loc 1 323 9
 1211 01ba 37050000 		lui	a0,%hi(.LC3)
 1212 01be 13050500 		addi	a0,a0,%lo(.LC3)
 1213 01c2 97000000 		call	HAL_Printf
 1213      E7800000 
 1214              	.LVL135:
 323:C:/Users/stapi/OneDrive/Desktop/GD32VW553/V1_MQTT_OK/GD32VW55X_Wifi_BLE_SDK/GD32VW55x_RELEASE_V1.0.2/MSDK/cloud/alicloud/src/protocol/alcs\alcs_adapter.c ****         return FAIL_RETURN;
 1215              		.loc 1 323 9
 1216 01ca 37050000 		lui	a0,%hi(.LC12)
 1217 01ce 13050500 		addi	a0,a0,%lo(.LC12)
 1218 01d2 75BD     		j	.L60
 1219              	.LVL136:
 1220              	.L51:
 326:C:/Users/stapi/OneDrive/Desktop/GD32VW553/V1_MQTT_OK/GD32VW55X_Wifi_BLE_SDK/GD32VW55x_RELEASE_V1.0.2/MSDK/cloud/alicloud/src/protocol/alcs\alcs_adapter.c **** #ifdef ALCS_SERVER_ENABLED
 1221              		.loc 1 326 26 is_stmt 0
 1222 01d4 83C70400 		lbu	a5,0(s1)
 1223 01d8 CE8A     		mv	s5,s3
 326:C:/Users/stapi/OneDrive/Desktop/GD32VW553/V1_MQTT_OK/GD32VW55X_Wifi_BLE_SDK/GD32VW55x_RELEASE_V1.0.2/MSDK/cloud/alicloud/src/protocol/alcs\alcs_adapter.c **** #ifdef ALCS_SERVER_ENABLED
 1224              		.loc 1 326 5 is_stmt 1
 326:C:/Users/stapi/OneDrive/Desktop/GD32VW553/V1_MQTT_OK/GD32VW55X_Wifi_BLE_SDK/GD32VW55x_RELEASE_V1.0.2/MSDK/cloud/alicloud/src/protocol/alcs\alcs_adapter.c **** #ifdef ALCS_SERVER_ENABLED
 1225              		.loc 1 326 19 is_stmt 0
 1226 01da 2306F400 		sb	a5,12(s0)
 328:C:/Users/stapi/OneDrive/Desktop/GD32VW553/V1_MQTT_OK/GD32VW55X_Wifi_BLE_SDK/GD32VW55x_RELEASE_V1.0.2/MSDK/cloud/alicloud/src/protocol/alcs\alcs_adapter.c ****     if (adapter->role & IOTX_ALCS_ROLE_SERVER) {
 1227              		.loc 1 328 5 is_stmt 1
 329:C:/Users/stapi/OneDrive/Desktop/GD32VW553/V1_MQTT_OK/GD32VW55X_Wifi_BLE_SDK/GD32VW55x_RELEASE_V1.0.2/MSDK/cloud/alicloud/src/protocol/alcs\alcs_adapter.c ****         adapter->alcs_server_auth_timer_func = on_svr_auth_timer;
 1228              		.loc 1 329 5
 329:C:/Users/stapi/OneDrive/Desktop/GD32VW553/V1_MQTT_OK/GD32VW55X_Wifi_BLE_SDK/GD32VW55x_RELEASE_V1.0.2/MSDK/cloud/alicloud/src/protocol/alcs\alcs_adapter.c ****         adapter->alcs_server_auth_timer_func = on_svr_auth_timer;
 1229              		.loc 1 329 8 is_stmt 0
 1230 01de 898B     		andi	a5,a5,2
 1231 01e0 91C7     		beq	a5,zero,.L52
 330:C:/Users/stapi/OneDrive/Desktop/GD32VW553/V1_MQTT_OK/GD32VW55X_Wifi_BLE_SDK/GD32VW55x_RELEASE_V1.0.2/MSDK/cloud/alicloud/src/protocol/alcs\alcs_adapter.c ****     }
 1232              		.loc 1 330 9 is_stmt 1
 330:C:/Users/stapi/OneDrive/Desktop/GD32VW553/V1_MQTT_OK/GD32VW55X_Wifi_BLE_SDK/GD32VW55x_RELEASE_V1.0.2/MSDK/cloud/alicloud/src/protocol/alcs\alcs_adapter.c ****     }
 1233              		.loc 1 330 46 is_stmt 0
 1234 01e2 B7070000 		lui	a5,%hi(on_svr_auth_timer)
 1235 01e6 93870700 		addi	a5,a5,%lo(on_svr_auth_timer)
 1236 01ea 5CC8     		sw	a5,20(s0)
 1237              	.L52:
 341:C:/Users/stapi/OneDrive/Desktop/GD32VW553/V1_MQTT_OK/GD32VW55X_Wifi_BLE_SDK/GD32VW55x_RELEASE_V1.0.2/MSDK/cloud/alicloud/src/protocol/alcs\alcs_adapter.c ****     if (adapter->alcs_event_handle == NULL) {
 1238              		.loc 1 341 5 is_stmt 1
 341:C:/Users/stapi/OneDrive/Desktop/GD32VW553/V1_MQTT_OK/GD32VW55X_Wifi_BLE_SDK/GD32VW55x_RELEASE_V1.0.2/MSDK/cloud/alicloud/src/protocol/alcs\alcs_adapter.c ****     if (adapter->alcs_event_handle == NULL) {
 1239              		.loc 1 341 62 is_stmt 0
 1240 01ec 2146     		li	a2,8
 1241 01ee 8145     		li	a1,0
 1242 01f0 0145     		li	a0,0
 1243              	.LVL137:
 1244 01f2 97000000 		call	LITE_malloc_internal
 1244      E7800000 
 1245              	.LVL138:
 341:C:/Users/stapi/OneDrive/Desktop/GD32VW553/V1_MQTT_OK/GD32VW55X_Wifi_BLE_SDK/GD32VW55x_RELEASE_V1.0.2/MSDK/cloud/alicloud/src/protocol/alcs\alcs_adapter.c ****     if (adapter->alcs_event_handle == NULL) {
 1246              		.loc 1 341 32
 1247 01fa 08CC     		sw	a0,24(s0)
 342:C:/Users/stapi/OneDrive/Desktop/GD32VW553/V1_MQTT_OK/GD32VW55X_Wifi_BLE_SDK/GD32VW55x_RELEASE_V1.0.2/MSDK/cloud/alicloud/src/protocol/alcs\alcs_adapter.c ****         iotx_alcs_adapter_deinit();
 1248              		.loc 1 342 5 is_stmt 1
 342:C:/Users/stapi/OneDrive/Desktop/GD32VW553/V1_MQTT_OK/GD32VW55X_Wifi_BLE_SDK/GD32VW55x_RELEASE_V1.0.2/MSDK/cloud/alicloud/src/protocol/alcs\alcs_adapter.c ****         iotx_alcs_adapter_deinit();
 1249              		.loc 1 342 8 is_stmt 0
 1250 01fc 05E9     		bne	a0,zero,.L53
 343:C:/Users/stapi/OneDrive/Desktop/GD32VW553/V1_MQTT_OK/GD32VW55X_Wifi_BLE_SDK/GD32VW55x_RELEASE_V1.0.2/MSDK/cloud/alicloud/src/protocol/alcs\alcs_adapter.c ****         COAP_ERR("ALCS Event Handle Init Failed");
 1251              		.loc 1 343 9 is_stmt 1
 1252 01fe 97000000 		call	iotx_alcs_adapter_deinit
 1252      E7800000 
 1253              	.LVL139:
 344:C:/Users/stapi/OneDrive/Desktop/GD32VW553/V1_MQTT_OK/GD32VW55X_Wifi_BLE_SDK/GD32VW55x_RELEASE_V1.0.2/MSDK/cloud/alicloud/src/protocol/alcs\alcs_adapter.c ****         return FAIL_RETURN;
 1254              		.loc 1 344 9
 344:C:/Users/stapi/OneDrive/Desktop/GD32VW553/V1_MQTT_OK/GD32VW55X_Wifi_BLE_SDK/GD32VW55x_RELEASE_V1.0.2/MSDK/cloud/alicloud/src/protocol/alcs\alcs_adapter.c ****         return FAIL_RETURN;
 1255              		.loc 1 344 9
 1256 0206 37050000 		lui	a0,%hi(.LC3)
 1257 020a 13050500 		addi	a0,a0,%lo(.LC3)
 1258 020e 97000000 		call	HAL_Printf
 1258      E7800000 
 1259              	.LVL140:
 344:C:/Users/stapi/OneDrive/Desktop/GD32VW553/V1_MQTT_OK/GD32VW55X_Wifi_BLE_SDK/GD32VW55x_RELEASE_V1.0.2/MSDK/cloud/alicloud/src/protocol/alcs\alcs_adapter.c ****         return FAIL_RETURN;
 1260              		.loc 1 344 9
 1261 0216 37050000 		lui	a0,%hi(.LC13)
 1262 021a 13050500 		addi	a0,a0,%lo(.LC13)
 1263 021e 97000000 		call	HAL_Printf
 1263      E7800000 
 1264              	.LVL141:
 344:C:/Users/stapi/OneDrive/Desktop/GD32VW553/V1_MQTT_OK/GD32VW55X_Wifi_BLE_SDK/GD32VW55x_RELEASE_V1.0.2/MSDK/cloud/alicloud/src/protocol/alcs\alcs_adapter.c ****         return FAIL_RETURN;
 1265              		.loc 1 344 9
 1266 0226 13850A00 		addi	a0,s5,%lo(.LC2)
 1267 022a 85BD     		j	.L58
 1268              	.L53:
 347:C:/Users/stapi/OneDrive/Desktop/GD32VW553/V1_MQTT_OK/GD32VW55X_Wifi_BLE_SDK/GD32VW55x_RELEASE_V1.0.2/MSDK/cloud/alicloud/src/protocol/alcs\alcs_adapter.c **** 
 1269              		.loc 1 347 5
 1270 022c CC48     		lw	a1,20(s1)
 1271 022e 2146     		li	a2,8
 1272 0230 97000000 		call	memcpy
 1272      E7800000 
 1273              	.LVL142:
 349:C:/Users/stapi/OneDrive/Desktop/GD32VW553/V1_MQTT_OK/GD32VW55X_Wifi_BLE_SDK/GD32VW55x_RELEASE_V1.0.2/MSDK/cloud/alicloud/src/protocol/alcs\alcs_adapter.c ****         iotx_alcs_adapter_deinit();
 1274              		.loc 1 349 5
 1275              	.LBB40:
 1276              	.LBB41:
 204:C:/Users/stapi/OneDrive/Desktop/GD32VW553/V1_MQTT_OK/GD32VW55X_Wifi_BLE_SDK/GD32VW55x_RELEASE_V1.0.2/MSDK/cloud/alicloud/src/protocol/alcs\alcs_adapter.c **** #ifdef DEVICE_MODEL_GATEWAY
 1277              		.loc 1 204 5
 204:C:/Users/stapi/OneDrive/Desktop/GD32VW553/V1_MQTT_OK/GD32VW55X_Wifi_BLE_SDK/GD32VW55x_RELEASE_V1.0.2/MSDK/cloud/alicloud/src/protocol/alcs\alcs_adapter.c **** #ifdef DEVICE_MODEL_GATEWAY
 1278              		.loc 1 204 20 is_stmt 0
 1279 0238 9307C401 		addi	a5,s0,28
 1280              	.LVL143:
 1281              	.LBB42:
 1282              	.LBB43:
  82:..\..\..\..\cloud\alicloud\src\infra\utils\misc/lite-list.h ****     list->prev = list;
 1283              		.loc 2 82 5 is_stmt 1
  82:..\..\..\..\cloud\alicloud\src\infra\utils\misc/lite-list.h ****     list->prev = list;
 1284              		.loc 2 82 16 is_stmt 0
 1285 023c 1CD0     		sw	a5,32(s0)
 1286              		.loc 2 83 5 is_stmt 1
 1287              		.loc 2 83 16 is_stmt 0
 1288 023e 5CCC     		sw	a5,28(s0)
 1289              	.LVL144:
 1290              	.LBE43:
 1291              	.LBE42:
 208:C:/Users/stapi/OneDrive/Desktop/GD32VW553/V1_MQTT_OK/GD32VW55X_Wifi_BLE_SDK/GD32VW55x_RELEASE_V1.0.2/MSDK/cloud/alicloud/src/protocol/alcs\alcs_adapter.c **** }
 1292              		.loc 1 208 5 is_stmt 1
 1293              	.LBE41:
 1294              	.LBE40:
 355:C:/Users/stapi/OneDrive/Desktop/GD32VW553/V1_MQTT_OK/GD32VW55X_Wifi_BLE_SDK/GD32VW55x_RELEASE_V1.0.2/MSDK/cloud/alicloud/src/protocol/alcs\alcs_adapter.c **** 
 1295              		.loc 1 355 5
 1296 0240 7418     		addi	a3,sp,60
 1297 0242 7000     		addi	a2,sp,12
 1298 0244 D285     		mv	a1,s4
 1299 0246 2285     		mv	a0,s0
 1300 0248 97000000 		call	alcs_localsetup_init
 1300      E7800000 
 1301              	.LVL145:
 357:C:/Users/stapi/OneDrive/Desktop/GD32VW553/V1_MQTT_OK/GD32VW55X_Wifi_BLE_SDK/GD32VW55x_RELEASE_V1.0.2/MSDK/cloud/alicloud/src/protocol/alcs\alcs_adapter.c **** }
 1302              		.loc 1 357 5
 357:C:/Users/stapi/OneDrive/Desktop/GD32VW553/V1_MQTT_OK/GD32VW55X_Wifi_BLE_SDK/GD32VW55x_RELEASE_V1.0.2/MSDK/cloud/alicloud/src/protocol/alcs\alcs_adapter.c **** }
 1303              		.loc 1 357 12 is_stmt 0
 1304 0250 F9B5     		j	.L45
 1305              		.cfi_endproc
 1306              	.LFE30:
 1308              		.section	.rodata.iotx_alcs_construct.str1.4,"aMS",@progbits,1
 1309              		.align	2
 1310              	.LC14:
 1311 0000 696F7478 		.string	"iotx_alcs_construct enter"
 1311      5F616C63 
 1311      735F636F 
 1311      6E737472 
 1311      75637420 
 1312 001a 0000     		.align	2
 1313              	.LC15:
 1314 001c 70617261 		.string	"params"
 1314      6D7300
 1315 0023 00       		.align	2
 1316              	.LC16:
 1317 0024 496E7661 		.string	"Invalid argument, %s = %p"
 1317      6C696420 
 1317      61726775 
 1317      6D656E74 
 1317      2C202573 
 1318 003e 0000     		.align	2
 1319              	.LC17:
 1320 0040 70617261 		.string	"params->group"
 1320      6D732D3E 
 1320      67726F75 
 1320      7000
 1321 004e 0000     		.align	2
 1322              	.LC18:
 1323 0050 496E7661 		.string	"Invalid argument, %s = '%s'"
 1323      6C696420 
 1323      61726775 
 1323      6D656E74 
 1323      2C202573 
 1324              		.align	2
 1325              	.LC19:
 1326 006c 41646170 		.string	"Adapter Init Failed"
 1326      74657220 
 1326      496E6974 
 1326      20466169 
 1326      6C656400 
 1327              		.section	.text.iotx_alcs_construct,"ax",@progbits
 1328              		.align	1
 1329              		.globl	iotx_alcs_construct
 1331              	iotx_alcs_construct:
 1332              	.LFB31:
 359:C:/Users/stapi/OneDrive/Desktop/GD32VW553/V1_MQTT_OK/GD32VW55X_Wifi_BLE_SDK/GD32VW55x_RELEASE_V1.0.2/MSDK/cloud/alicloud/src/protocol/alcs\alcs_adapter.c **** 
 360:C:/Users/stapi/OneDrive/Desktop/GD32VW553/V1_MQTT_OK/GD32VW55X_Wifi_BLE_SDK/GD32VW55x_RELEASE_V1.0.2/MSDK/cloud/alicloud/src/protocol/alcs\alcs_adapter.c **** #ifdef DEVICE_MODEL_GATEWAY
 361:C:/Users/stapi/OneDrive/Desktop/GD32VW553/V1_MQTT_OK/GD32VW55X_Wifi_BLE_SDK/GD32VW55x_RELEASE_V1.0.2/MSDK/cloud/alicloud/src/protocol/alcs\alcs_adapter.c **** static int _iotx_alcs_subdev_list_search(const char *pk, const char *dn, iotx_alcs_subdev_item_t **
 362:C:/Users/stapi/OneDrive/Desktop/GD32VW553/V1_MQTT_OK/GD32VW55X_Wifi_BLE_SDK/GD32VW55x_RELEASE_V1.0.2/MSDK/cloud/alicloud/src/protocol/alcs\alcs_adapter.c **** {
 363:C:/Users/stapi/OneDrive/Desktop/GD32VW553/V1_MQTT_OK/GD32VW55X_Wifi_BLE_SDK/GD32VW55x_RELEASE_V1.0.2/MSDK/cloud/alicloud/src/protocol/alcs\alcs_adapter.c ****     iotx_alcs_adapter_t *adapter = __iotx_alcs_get_ctx();
 364:C:/Users/stapi/OneDrive/Desktop/GD32VW553/V1_MQTT_OK/GD32VW55X_Wifi_BLE_SDK/GD32VW55x_RELEASE_V1.0.2/MSDK/cloud/alicloud/src/protocol/alcs\alcs_adapter.c ****     iotx_alcs_subdev_item_t *node = NULL;
 365:C:/Users/stapi/OneDrive/Desktop/GD32VW553/V1_MQTT_OK/GD32VW55X_Wifi_BLE_SDK/GD32VW55x_RELEASE_V1.0.2/MSDK/cloud/alicloud/src/protocol/alcs\alcs_adapter.c **** 
 366:C:/Users/stapi/OneDrive/Desktop/GD32VW553/V1_MQTT_OK/GD32VW55X_Wifi_BLE_SDK/GD32VW55x_RELEASE_V1.0.2/MSDK/cloud/alicloud/src/protocol/alcs\alcs_adapter.c ****     if (pk == NULL || dn == NULL) {
 367:C:/Users/stapi/OneDrive/Desktop/GD32VW553/V1_MQTT_OK/GD32VW55X_Wifi_BLE_SDK/GD32VW55x_RELEASE_V1.0.2/MSDK/cloud/alicloud/src/protocol/alcs\alcs_adapter.c ****         COAP_ERR("Invalid Parameter");
 368:C:/Users/stapi/OneDrive/Desktop/GD32VW553/V1_MQTT_OK/GD32VW55X_Wifi_BLE_SDK/GD32VW55x_RELEASE_V1.0.2/MSDK/cloud/alicloud/src/protocol/alcs\alcs_adapter.c ****         return FAIL_RETURN;
 369:C:/Users/stapi/OneDrive/Desktop/GD32VW553/V1_MQTT_OK/GD32VW55X_Wifi_BLE_SDK/GD32VW55x_RELEASE_V1.0.2/MSDK/cloud/alicloud/src/protocol/alcs\alcs_adapter.c ****     }
 370:C:/Users/stapi/OneDrive/Desktop/GD32VW553/V1_MQTT_OK/GD32VW55X_Wifi_BLE_SDK/GD32VW55x_RELEASE_V1.0.2/MSDK/cloud/alicloud/src/protocol/alcs\alcs_adapter.c **** 
 371:C:/Users/stapi/OneDrive/Desktop/GD32VW553/V1_MQTT_OK/GD32VW55X_Wifi_BLE_SDK/GD32VW55x_RELEASE_V1.0.2/MSDK/cloud/alicloud/src/protocol/alcs\alcs_adapter.c ****     list_for_each_entry(node, &adapter->alcs_subdev_list, linked_list, iotx_alcs_subdev_item_t) {
 372:C:/Users/stapi/OneDrive/Desktop/GD32VW553/V1_MQTT_OK/GD32VW55X_Wifi_BLE_SDK/GD32VW55x_RELEASE_V1.0.2/MSDK/cloud/alicloud/src/protocol/alcs\alcs_adapter.c ****         if (strlen(node->product_key) == strlen(pk) &&
 373:C:/Users/stapi/OneDrive/Desktop/GD32VW553/V1_MQTT_OK/GD32VW55X_Wifi_BLE_SDK/GD32VW55x_RELEASE_V1.0.2/MSDK/cloud/alicloud/src/protocol/alcs\alcs_adapter.c ****             memcmp(node->product_key, pk, strlen(pk)) == 0 &&
 374:C:/Users/stapi/OneDrive/Desktop/GD32VW553/V1_MQTT_OK/GD32VW55X_Wifi_BLE_SDK/GD32VW55x_RELEASE_V1.0.2/MSDK/cloud/alicloud/src/protocol/alcs\alcs_adapter.c ****             strlen(node->device_name) == strlen(dn) &&
 375:C:/Users/stapi/OneDrive/Desktop/GD32VW553/V1_MQTT_OK/GD32VW55X_Wifi_BLE_SDK/GD32VW55x_RELEASE_V1.0.2/MSDK/cloud/alicloud/src/protocol/alcs\alcs_adapter.c ****             memcmp(node->device_name, dn, strlen(dn)) == 0) {
 376:C:/Users/stapi/OneDrive/Desktop/GD32VW553/V1_MQTT_OK/GD32VW55X_Wifi_BLE_SDK/GD32VW55x_RELEASE_V1.0.2/MSDK/cloud/alicloud/src/protocol/alcs\alcs_adapter.c ****             *subdev_item = node;
 377:C:/Users/stapi/OneDrive/Desktop/GD32VW553/V1_MQTT_OK/GD32VW55X_Wifi_BLE_SDK/GD32VW55x_RELEASE_V1.0.2/MSDK/cloud/alicloud/src/protocol/alcs\alcs_adapter.c ****             return SUCCESS_RETURN;
 378:C:/Users/stapi/OneDrive/Desktop/GD32VW553/V1_MQTT_OK/GD32VW55X_Wifi_BLE_SDK/GD32VW55x_RELEASE_V1.0.2/MSDK/cloud/alicloud/src/protocol/alcs\alcs_adapter.c ****         }
 379:C:/Users/stapi/OneDrive/Desktop/GD32VW553/V1_MQTT_OK/GD32VW55X_Wifi_BLE_SDK/GD32VW55x_RELEASE_V1.0.2/MSDK/cloud/alicloud/src/protocol/alcs\alcs_adapter.c ****     }
 380:C:/Users/stapi/OneDrive/Desktop/GD32VW553/V1_MQTT_OK/GD32VW55X_Wifi_BLE_SDK/GD32VW55x_RELEASE_V1.0.2/MSDK/cloud/alicloud/src/protocol/alcs\alcs_adapter.c **** 
 381:C:/Users/stapi/OneDrive/Desktop/GD32VW553/V1_MQTT_OK/GD32VW55X_Wifi_BLE_SDK/GD32VW55x_RELEASE_V1.0.2/MSDK/cloud/alicloud/src/protocol/alcs\alcs_adapter.c ****     return FAIL_RETURN;
 382:C:/Users/stapi/OneDrive/Desktop/GD32VW553/V1_MQTT_OK/GD32VW55X_Wifi_BLE_SDK/GD32VW55x_RELEASE_V1.0.2/MSDK/cloud/alicloud/src/protocol/alcs\alcs_adapter.c **** }
 383:C:/Users/stapi/OneDrive/Desktop/GD32VW553/V1_MQTT_OK/GD32VW55X_Wifi_BLE_SDK/GD32VW55x_RELEASE_V1.0.2/MSDK/cloud/alicloud/src/protocol/alcs\alcs_adapter.c **** 
 384:C:/Users/stapi/OneDrive/Desktop/GD32VW553/V1_MQTT_OK/GD32VW55X_Wifi_BLE_SDK/GD32VW55x_RELEASE_V1.0.2/MSDK/cloud/alicloud/src/protocol/alcs\alcs_adapter.c **** int iotx_alcs_subdev_remove(const char *pk, const char *dn)
 385:C:/Users/stapi/OneDrive/Desktop/GD32VW553/V1_MQTT_OK/GD32VW55X_Wifi_BLE_SDK/GD32VW55x_RELEASE_V1.0.2/MSDK/cloud/alicloud/src/protocol/alcs\alcs_adapter.c **** {
 386:C:/Users/stapi/OneDrive/Desktop/GD32VW553/V1_MQTT_OK/GD32VW55X_Wifi_BLE_SDK/GD32VW55x_RELEASE_V1.0.2/MSDK/cloud/alicloud/src/protocol/alcs\alcs_adapter.c ****     int res = 0;
 387:C:/Users/stapi/OneDrive/Desktop/GD32VW553/V1_MQTT_OK/GD32VW55X_Wifi_BLE_SDK/GD32VW55x_RELEASE_V1.0.2/MSDK/cloud/alicloud/src/protocol/alcs\alcs_adapter.c ****     iotx_alcs_adapter_t *adapter = __iotx_alcs_get_ctx();
 388:C:/Users/stapi/OneDrive/Desktop/GD32VW553/V1_MQTT_OK/GD32VW55X_Wifi_BLE_SDK/GD32VW55x_RELEASE_V1.0.2/MSDK/cloud/alicloud/src/protocol/alcs\alcs_adapter.c ****     iotx_alcs_subdev_item_t *subdev_item = NULL;
 389:C:/Users/stapi/OneDrive/Desktop/GD32VW553/V1_MQTT_OK/GD32VW55X_Wifi_BLE_SDK/GD32VW55x_RELEASE_V1.0.2/MSDK/cloud/alicloud/src/protocol/alcs\alcs_adapter.c **** 
 390:C:/Users/stapi/OneDrive/Desktop/GD32VW553/V1_MQTT_OK/GD32VW55X_Wifi_BLE_SDK/GD32VW55x_RELEASE_V1.0.2/MSDK/cloud/alicloud/src/protocol/alcs\alcs_adapter.c ****     if (pk == NULL || dn == NULL) {
 391:C:/Users/stapi/OneDrive/Desktop/GD32VW553/V1_MQTT_OK/GD32VW55X_Wifi_BLE_SDK/GD32VW55x_RELEASE_V1.0.2/MSDK/cloud/alicloud/src/protocol/alcs\alcs_adapter.c ****         COAP_ERR("Invalid Parameter");
 392:C:/Users/stapi/OneDrive/Desktop/GD32VW553/V1_MQTT_OK/GD32VW55X_Wifi_BLE_SDK/GD32VW55x_RELEASE_V1.0.2/MSDK/cloud/alicloud/src/protocol/alcs\alcs_adapter.c ****         return FAIL_RETURN;
 393:C:/Users/stapi/OneDrive/Desktop/GD32VW553/V1_MQTT_OK/GD32VW55X_Wifi_BLE_SDK/GD32VW55x_RELEASE_V1.0.2/MSDK/cloud/alicloud/src/protocol/alcs\alcs_adapter.c ****     }
 394:C:/Users/stapi/OneDrive/Desktop/GD32VW553/V1_MQTT_OK/GD32VW55X_Wifi_BLE_SDK/GD32VW55x_RELEASE_V1.0.2/MSDK/cloud/alicloud/src/protocol/alcs\alcs_adapter.c **** 
 395:C:/Users/stapi/OneDrive/Desktop/GD32VW553/V1_MQTT_OK/GD32VW55X_Wifi_BLE_SDK/GD32VW55x_RELEASE_V1.0.2/MSDK/cloud/alicloud/src/protocol/alcs\alcs_adapter.c ****     HAL_MutexLock(adapter->mutex);
 396:C:/Users/stapi/OneDrive/Desktop/GD32VW553/V1_MQTT_OK/GD32VW55X_Wifi_BLE_SDK/GD32VW55x_RELEASE_V1.0.2/MSDK/cloud/alicloud/src/protocol/alcs\alcs_adapter.c **** 
 397:C:/Users/stapi/OneDrive/Desktop/GD32VW553/V1_MQTT_OK/GD32VW55X_Wifi_BLE_SDK/GD32VW55x_RELEASE_V1.0.2/MSDK/cloud/alicloud/src/protocol/alcs\alcs_adapter.c ****     list_for_each_entry(subdev_item, &adapter->alcs_subdev_list, linked_list, iotx_alcs_subdev_item
 398:C:/Users/stapi/OneDrive/Desktop/GD32VW553/V1_MQTT_OK/GD32VW55X_Wifi_BLE_SDK/GD32VW55x_RELEASE_V1.0.2/MSDK/cloud/alicloud/src/protocol/alcs\alcs_adapter.c ****         if (strlen(subdev_item->product_key) == strlen(pk) &&
 399:C:/Users/stapi/OneDrive/Desktop/GD32VW553/V1_MQTT_OK/GD32VW55X_Wifi_BLE_SDK/GD32VW55x_RELEASE_V1.0.2/MSDK/cloud/alicloud/src/protocol/alcs\alcs_adapter.c ****             memcmp(subdev_item->product_key, pk, strlen(pk)) == 0 &&
 400:C:/Users/stapi/OneDrive/Desktop/GD32VW553/V1_MQTT_OK/GD32VW55X_Wifi_BLE_SDK/GD32VW55x_RELEASE_V1.0.2/MSDK/cloud/alicloud/src/protocol/alcs\alcs_adapter.c ****             strlen(subdev_item->device_name) == strlen(dn) &&
 401:C:/Users/stapi/OneDrive/Desktop/GD32VW553/V1_MQTT_OK/GD32VW55X_Wifi_BLE_SDK/GD32VW55x_RELEASE_V1.0.2/MSDK/cloud/alicloud/src/protocol/alcs\alcs_adapter.c ****             memcmp(subdev_item->device_name, dn, strlen(dn)) == 0) {
 402:C:/Users/stapi/OneDrive/Desktop/GD32VW553/V1_MQTT_OK/GD32VW55X_Wifi_BLE_SDK/GD32VW55x_RELEASE_V1.0.2/MSDK/cloud/alicloud/src/protocol/alcs\alcs_adapter.c ****                 char prefix[ALCS_MQTT_PREFIX_MAX_LEN] = {0};
 403:C:/Users/stapi/OneDrive/Desktop/GD32VW553/V1_MQTT_OK/GD32VW55X_Wifi_BLE_SDK/GD32VW55x_RELEASE_V1.0.2/MSDK/cloud/alicloud/src/protocol/alcs\alcs_adapter.c ****                 char secret[ALCS_MQTT_SECRET_MAX_LEN] = {0};
 404:C:/Users/stapi/OneDrive/Desktop/GD32VW553/V1_MQTT_OK/GD32VW55X_Wifi_BLE_SDK/GD32VW55x_RELEASE_V1.0.2/MSDK/cloud/alicloud/src/protocol/alcs\alcs_adapter.c ****                 alcs_mqtt_prefix_secret_load(pk, strlen(pk), dn, strlen(dn), prefix, secret);
 405:C:/Users/stapi/OneDrive/Desktop/GD32VW553/V1_MQTT_OK/GD32VW55X_Wifi_BLE_SDK/GD32VW55x_RELEASE_V1.0.2/MSDK/cloud/alicloud/src/protocol/alcs\alcs_adapter.c ****                 alcs_mqtt_remove_srv_key(prefix);
 406:C:/Users/stapi/OneDrive/Desktop/GD32VW553/V1_MQTT_OK/GD32VW55X_Wifi_BLE_SDK/GD32VW55x_RELEASE_V1.0.2/MSDK/cloud/alicloud/src/protocol/alcs\alcs_adapter.c ****                 list_del(&subdev_item->linked_list);
 407:C:/Users/stapi/OneDrive/Desktop/GD32VW553/V1_MQTT_OK/GD32VW55X_Wifi_BLE_SDK/GD32VW55x_RELEASE_V1.0.2/MSDK/cloud/alicloud/src/protocol/alcs\alcs_adapter.c ****                 LITE_free(subdev_item);
 408:C:/Users/stapi/OneDrive/Desktop/GD32VW553/V1_MQTT_OK/GD32VW55X_Wifi_BLE_SDK/GD32VW55x_RELEASE_V1.0.2/MSDK/cloud/alicloud/src/protocol/alcs\alcs_adapter.c ****         }
 409:C:/Users/stapi/OneDrive/Desktop/GD32VW553/V1_MQTT_OK/GD32VW55X_Wifi_BLE_SDK/GD32VW55x_RELEASE_V1.0.2/MSDK/cloud/alicloud/src/protocol/alcs\alcs_adapter.c ****     }
 410:C:/Users/stapi/OneDrive/Desktop/GD32VW553/V1_MQTT_OK/GD32VW55X_Wifi_BLE_SDK/GD32VW55x_RELEASE_V1.0.2/MSDK/cloud/alicloud/src/protocol/alcs\alcs_adapter.c ****     HAL_MutexUnlock(adapter->mutex);
 411:C:/Users/stapi/OneDrive/Desktop/GD32VW553/V1_MQTT_OK/GD32VW55X_Wifi_BLE_SDK/GD32VW55x_RELEASE_V1.0.2/MSDK/cloud/alicloud/src/protocol/alcs\alcs_adapter.c **** 
 412:C:/Users/stapi/OneDrive/Desktop/GD32VW553/V1_MQTT_OK/GD32VW55X_Wifi_BLE_SDK/GD32VW55x_RELEASE_V1.0.2/MSDK/cloud/alicloud/src/protocol/alcs\alcs_adapter.c ****     return SUCCESS_RETURN;
 413:C:/Users/stapi/OneDrive/Desktop/GD32VW553/V1_MQTT_OK/GD32VW55X_Wifi_BLE_SDK/GD32VW55x_RELEASE_V1.0.2/MSDK/cloud/alicloud/src/protocol/alcs\alcs_adapter.c **** }
 414:C:/Users/stapi/OneDrive/Desktop/GD32VW553/V1_MQTT_OK/GD32VW55X_Wifi_BLE_SDK/GD32VW55x_RELEASE_V1.0.2/MSDK/cloud/alicloud/src/protocol/alcs\alcs_adapter.c **** 
 415:C:/Users/stapi/OneDrive/Desktop/GD32VW553/V1_MQTT_OK/GD32VW55X_Wifi_BLE_SDK/GD32VW55x_RELEASE_V1.0.2/MSDK/cloud/alicloud/src/protocol/alcs\alcs_adapter.c **** int iotx_alcs_subdev_update_stage(iotx_alcs_subdev_item_t *item)
 416:C:/Users/stapi/OneDrive/Desktop/GD32VW553/V1_MQTT_OK/GD32VW55X_Wifi_BLE_SDK/GD32VW55x_RELEASE_V1.0.2/MSDK/cloud/alicloud/src/protocol/alcs\alcs_adapter.c **** {
 417:C:/Users/stapi/OneDrive/Desktop/GD32VW553/V1_MQTT_OK/GD32VW55X_Wifi_BLE_SDK/GD32VW55x_RELEASE_V1.0.2/MSDK/cloud/alicloud/src/protocol/alcs\alcs_adapter.c ****     int res = 0;
 418:C:/Users/stapi/OneDrive/Desktop/GD32VW553/V1_MQTT_OK/GD32VW55X_Wifi_BLE_SDK/GD32VW55x_RELEASE_V1.0.2/MSDK/cloud/alicloud/src/protocol/alcs\alcs_adapter.c ****     iotx_alcs_adapter_t *adapter = __iotx_alcs_get_ctx();
 419:C:/Users/stapi/OneDrive/Desktop/GD32VW553/V1_MQTT_OK/GD32VW55X_Wifi_BLE_SDK/GD32VW55x_RELEASE_V1.0.2/MSDK/cloud/alicloud/src/protocol/alcs\alcs_adapter.c ****     iotx_alcs_subdev_item_t *subdev_item = NULL;
 420:C:/Users/stapi/OneDrive/Desktop/GD32VW553/V1_MQTT_OK/GD32VW55X_Wifi_BLE_SDK/GD32VW55x_RELEASE_V1.0.2/MSDK/cloud/alicloud/src/protocol/alcs\alcs_adapter.c **** 
 421:C:/Users/stapi/OneDrive/Desktop/GD32VW553/V1_MQTT_OK/GD32VW55X_Wifi_BLE_SDK/GD32VW55x_RELEASE_V1.0.2/MSDK/cloud/alicloud/src/protocol/alcs\alcs_adapter.c ****     if (item == NULL) {
 422:C:/Users/stapi/OneDrive/Desktop/GD32VW553/V1_MQTT_OK/GD32VW55X_Wifi_BLE_SDK/GD32VW55x_RELEASE_V1.0.2/MSDK/cloud/alicloud/src/protocol/alcs\alcs_adapter.c ****         COAP_ERR("Invalid Parameter");
 423:C:/Users/stapi/OneDrive/Desktop/GD32VW553/V1_MQTT_OK/GD32VW55X_Wifi_BLE_SDK/GD32VW55x_RELEASE_V1.0.2/MSDK/cloud/alicloud/src/protocol/alcs\alcs_adapter.c ****         return FAIL_RETURN;
 424:C:/Users/stapi/OneDrive/Desktop/GD32VW553/V1_MQTT_OK/GD32VW55X_Wifi_BLE_SDK/GD32VW55x_RELEASE_V1.0.2/MSDK/cloud/alicloud/src/protocol/alcs\alcs_adapter.c ****     }
 425:C:/Users/stapi/OneDrive/Desktop/GD32VW553/V1_MQTT_OK/GD32VW55X_Wifi_BLE_SDK/GD32VW55x_RELEASE_V1.0.2/MSDK/cloud/alicloud/src/protocol/alcs\alcs_adapter.c **** 
 426:C:/Users/stapi/OneDrive/Desktop/GD32VW553/V1_MQTT_OK/GD32VW55X_Wifi_BLE_SDK/GD32VW55x_RELEASE_V1.0.2/MSDK/cloud/alicloud/src/protocol/alcs\alcs_adapter.c ****     HAL_MutexLock(adapter->mutex);
 427:C:/Users/stapi/OneDrive/Desktop/GD32VW553/V1_MQTT_OK/GD32VW55X_Wifi_BLE_SDK/GD32VW55x_RELEASE_V1.0.2/MSDK/cloud/alicloud/src/protocol/alcs\alcs_adapter.c ****     res = _iotx_alcs_subdev_list_search(item->product_key, item->device_name, &subdev_item);
 428:C:/Users/stapi/OneDrive/Desktop/GD32VW553/V1_MQTT_OK/GD32VW55X_Wifi_BLE_SDK/GD32VW55x_RELEASE_V1.0.2/MSDK/cloud/alicloud/src/protocol/alcs\alcs_adapter.c **** 
 429:C:/Users/stapi/OneDrive/Desktop/GD32VW553/V1_MQTT_OK/GD32VW55X_Wifi_BLE_SDK/GD32VW55x_RELEASE_V1.0.2/MSDK/cloud/alicloud/src/protocol/alcs\alcs_adapter.c ****     if (res < SUCCESS_RETURN) {
 430:C:/Users/stapi/OneDrive/Desktop/GD32VW553/V1_MQTT_OK/GD32VW55X_Wifi_BLE_SDK/GD32VW55x_RELEASE_V1.0.2/MSDK/cloud/alicloud/src/protocol/alcs\alcs_adapter.c ****         COAP_WRN("No Matched Item");
 431:C:/Users/stapi/OneDrive/Desktop/GD32VW553/V1_MQTT_OK/GD32VW55X_Wifi_BLE_SDK/GD32VW55x_RELEASE_V1.0.2/MSDK/cloud/alicloud/src/protocol/alcs\alcs_adapter.c ****         HAL_MutexUnlock(adapter->mutex);
 432:C:/Users/stapi/OneDrive/Desktop/GD32VW553/V1_MQTT_OK/GD32VW55X_Wifi_BLE_SDK/GD32VW55x_RELEASE_V1.0.2/MSDK/cloud/alicloud/src/protocol/alcs\alcs_adapter.c ****         return FAIL_RETURN;
 433:C:/Users/stapi/OneDrive/Desktop/GD32VW553/V1_MQTT_OK/GD32VW55X_Wifi_BLE_SDK/GD32VW55x_RELEASE_V1.0.2/MSDK/cloud/alicloud/src/protocol/alcs\alcs_adapter.c ****     }
 434:C:/Users/stapi/OneDrive/Desktop/GD32VW553/V1_MQTT_OK/GD32VW55X_Wifi_BLE_SDK/GD32VW55x_RELEASE_V1.0.2/MSDK/cloud/alicloud/src/protocol/alcs\alcs_adapter.c **** 
 435:C:/Users/stapi/OneDrive/Desktop/GD32VW553/V1_MQTT_OK/GD32VW55X_Wifi_BLE_SDK/GD32VW55x_RELEASE_V1.0.2/MSDK/cloud/alicloud/src/protocol/alcs\alcs_adapter.c ****     subdev_item->stage = item->stage;
 436:C:/Users/stapi/OneDrive/Desktop/GD32VW553/V1_MQTT_OK/GD32VW55X_Wifi_BLE_SDK/GD32VW55x_RELEASE_V1.0.2/MSDK/cloud/alicloud/src/protocol/alcs\alcs_adapter.c **** 
 437:C:/Users/stapi/OneDrive/Desktop/GD32VW553/V1_MQTT_OK/GD32VW55X_Wifi_BLE_SDK/GD32VW55x_RELEASE_V1.0.2/MSDK/cloud/alicloud/src/protocol/alcs\alcs_adapter.c ****     HAL_MutexUnlock(adapter->mutex);
 438:C:/Users/stapi/OneDrive/Desktop/GD32VW553/V1_MQTT_OK/GD32VW55X_Wifi_BLE_SDK/GD32VW55x_RELEASE_V1.0.2/MSDK/cloud/alicloud/src/protocol/alcs\alcs_adapter.c ****     return SUCCESS_RETURN;
 439:C:/Users/stapi/OneDrive/Desktop/GD32VW553/V1_MQTT_OK/GD32VW55X_Wifi_BLE_SDK/GD32VW55x_RELEASE_V1.0.2/MSDK/cloud/alicloud/src/protocol/alcs\alcs_adapter.c **** }
 440:C:/Users/stapi/OneDrive/Desktop/GD32VW553/V1_MQTT_OK/GD32VW55X_Wifi_BLE_SDK/GD32VW55x_RELEASE_V1.0.2/MSDK/cloud/alicloud/src/protocol/alcs\alcs_adapter.c **** 
 441:C:/Users/stapi/OneDrive/Desktop/GD32VW553/V1_MQTT_OK/GD32VW55X_Wifi_BLE_SDK/GD32VW55x_RELEASE_V1.0.2/MSDK/cloud/alicloud/src/protocol/alcs\alcs_adapter.c **** void iotx_alcs_subdev_stage_check(void)
 442:C:/Users/stapi/OneDrive/Desktop/GD32VW553/V1_MQTT_OK/GD32VW55X_Wifi_BLE_SDK/GD32VW55x_RELEASE_V1.0.2/MSDK/cloud/alicloud/src/protocol/alcs\alcs_adapter.c **** {
 443:C:/Users/stapi/OneDrive/Desktop/GD32VW553/V1_MQTT_OK/GD32VW55X_Wifi_BLE_SDK/GD32VW55x_RELEASE_V1.0.2/MSDK/cloud/alicloud/src/protocol/alcs\alcs_adapter.c ****     iotx_alcs_adapter_t *adapter = __iotx_alcs_get_ctx();
 444:C:/Users/stapi/OneDrive/Desktop/GD32VW553/V1_MQTT_OK/GD32VW55X_Wifi_BLE_SDK/GD32VW55x_RELEASE_V1.0.2/MSDK/cloud/alicloud/src/protocol/alcs\alcs_adapter.c ****     iotx_alcs_subdev_item_t *node = NULL;
 445:C:/Users/stapi/OneDrive/Desktop/GD32VW553/V1_MQTT_OK/GD32VW55X_Wifi_BLE_SDK/GD32VW55x_RELEASE_V1.0.2/MSDK/cloud/alicloud/src/protocol/alcs\alcs_adapter.c ****     uint64_t time_now = HAL_UptimeMs();
 446:C:/Users/stapi/OneDrive/Desktop/GD32VW553/V1_MQTT_OK/GD32VW55X_Wifi_BLE_SDK/GD32VW55x_RELEASE_V1.0.2/MSDK/cloud/alicloud/src/protocol/alcs\alcs_adapter.c **** 
 447:C:/Users/stapi/OneDrive/Desktop/GD32VW553/V1_MQTT_OK/GD32VW55X_Wifi_BLE_SDK/GD32VW55x_RELEASE_V1.0.2/MSDK/cloud/alicloud/src/protocol/alcs\alcs_adapter.c ****     HAL_MutexLock(adapter->mutex);
 448:C:/Users/stapi/OneDrive/Desktop/GD32VW553/V1_MQTT_OK/GD32VW55X_Wifi_BLE_SDK/GD32VW55x_RELEASE_V1.0.2/MSDK/cloud/alicloud/src/protocol/alcs\alcs_adapter.c ****     list_for_each_entry(node, &adapter->alcs_subdev_list, linked_list, iotx_alcs_subdev_item_t) {
 449:C:/Users/stapi/OneDrive/Desktop/GD32VW553/V1_MQTT_OK/GD32VW55X_Wifi_BLE_SDK/GD32VW55x_RELEASE_V1.0.2/MSDK/cloud/alicloud/src/protocol/alcs\alcs_adapter.c ****         if (node->stage == IOTX_ALCS_SUBDEV_DISCONNCET_CLOUD) {
 450:C:/Users/stapi/OneDrive/Desktop/GD32VW553/V1_MQTT_OK/GD32VW55X_Wifi_BLE_SDK/GD32VW55x_RELEASE_V1.0.2/MSDK/cloud/alicloud/src/protocol/alcs\alcs_adapter.c ****             if (((time_now > node->retry_ms) &&
 451:C:/Users/stapi/OneDrive/Desktop/GD32VW553/V1_MQTT_OK/GD32VW55X_Wifi_BLE_SDK/GD32VW55x_RELEASE_V1.0.2/MSDK/cloud/alicloud/src/protocol/alcs\alcs_adapter.c ****                  (time_now - node->retry_ms >= IOTX_ALCS_SUBDEV_RETRY_INTERVAL_MS)) ||
 452:C:/Users/stapi/OneDrive/Desktop/GD32VW553/V1_MQTT_OK/GD32VW55X_Wifi_BLE_SDK/GD32VW55x_RELEASE_V1.0.2/MSDK/cloud/alicloud/src/protocol/alcs\alcs_adapter.c ****                 ((time_now <= node->retry_ms) &&
 453:C:/Users/stapi/OneDrive/Desktop/GD32VW553/V1_MQTT_OK/GD32VW55X_Wifi_BLE_SDK/GD32VW55x_RELEASE_V1.0.2/MSDK/cloud/alicloud/src/protocol/alcs\alcs_adapter.c ****                  ((0xFFFFFFFFFFFFFFFF - node->retry_ms) + time_now >= IOTX_ALCS_SUBDEV_RETRY_INTERV
 454:C:/Users/stapi/OneDrive/Desktop/GD32VW553/V1_MQTT_OK/GD32VW55X_Wifi_BLE_SDK/GD32VW55x_RELEASE_V1.0.2/MSDK/cloud/alicloud/src/protocol/alcs\alcs_adapter.c ****                 //Get Prefix And Secret From Cloud
 455:C:/Users/stapi/OneDrive/Desktop/GD32VW553/V1_MQTT_OK/GD32VW55X_Wifi_BLE_SDK/GD32VW55x_RELEASE_V1.0.2/MSDK/cloud/alicloud/src/protocol/alcs\alcs_adapter.c ****                 alcs_mqtt_subdev_prefix_get(node->product_key, node->device_name);
 456:C:/Users/stapi/OneDrive/Desktop/GD32VW553/V1_MQTT_OK/GD32VW55X_Wifi_BLE_SDK/GD32VW55x_RELEASE_V1.0.2/MSDK/cloud/alicloud/src/protocol/alcs\alcs_adapter.c ****                 node->retry_ms = time_now;
 457:C:/Users/stapi/OneDrive/Desktop/GD32VW553/V1_MQTT_OK/GD32VW55X_Wifi_BLE_SDK/GD32VW55x_RELEASE_V1.0.2/MSDK/cloud/alicloud/src/protocol/alcs\alcs_adapter.c ****             }
 458:C:/Users/stapi/OneDrive/Desktop/GD32VW553/V1_MQTT_OK/GD32VW55X_Wifi_BLE_SDK/GD32VW55x_RELEASE_V1.0.2/MSDK/cloud/alicloud/src/protocol/alcs\alcs_adapter.c ****         }
 459:C:/Users/stapi/OneDrive/Desktop/GD32VW553/V1_MQTT_OK/GD32VW55X_Wifi_BLE_SDK/GD32VW55x_RELEASE_V1.0.2/MSDK/cloud/alicloud/src/protocol/alcs\alcs_adapter.c ****     }
 460:C:/Users/stapi/OneDrive/Desktop/GD32VW553/V1_MQTT_OK/GD32VW55X_Wifi_BLE_SDK/GD32VW55x_RELEASE_V1.0.2/MSDK/cloud/alicloud/src/protocol/alcs\alcs_adapter.c ****     HAL_MutexUnlock(adapter->mutex);
 461:C:/Users/stapi/OneDrive/Desktop/GD32VW553/V1_MQTT_OK/GD32VW55X_Wifi_BLE_SDK/GD32VW55x_RELEASE_V1.0.2/MSDK/cloud/alicloud/src/protocol/alcs\alcs_adapter.c **** }
 462:C:/Users/stapi/OneDrive/Desktop/GD32VW553/V1_MQTT_OK/GD32VW55X_Wifi_BLE_SDK/GD32VW55x_RELEASE_V1.0.2/MSDK/cloud/alicloud/src/protocol/alcs\alcs_adapter.c **** #endif
 463:C:/Users/stapi/OneDrive/Desktop/GD32VW553/V1_MQTT_OK/GD32VW55X_Wifi_BLE_SDK/GD32VW55x_RELEASE_V1.0.2/MSDK/cloud/alicloud/src/protocol/alcs\alcs_adapter.c **** void *iotx_alcs_construct(iotx_alcs_param_t *params)
 464:C:/Users/stapi/OneDrive/Desktop/GD32VW553/V1_MQTT_OK/GD32VW55X_Wifi_BLE_SDK/GD32VW55x_RELEASE_V1.0.2/MSDK/cloud/alicloud/src/protocol/alcs\alcs_adapter.c **** {
 1333              		.loc 1 464 1 is_stmt 1
 1334              		.cfi_startproc
 1335              	.LVL146:
 1336 0000 17030000 		call	t0,__riscv_save_3
 1336      E7020300 
 1337              		.cfi_offset 18, -16
 1338              		.cfi_offset 9, -12
 1339              		.cfi_offset 8, -8
 1340              		.cfi_offset 1, -4
 1341              		.cfi_def_cfa_offset 16
 465:C:/Users/stapi/OneDrive/Desktop/GD32VW553/V1_MQTT_OK/GD32VW55X_Wifi_BLE_SDK/GD32VW55x_RELEASE_V1.0.2/MSDK/cloud/alicloud/src/protocol/alcs\alcs_adapter.c ****     COAP_INFO("iotx_alcs_construct enter");
 1342              		.loc 1 465 5
 1343              		.loc 1 465 5
 464:C:/Users/stapi/OneDrive/Desktop/GD32VW553/V1_MQTT_OK/GD32VW55X_Wifi_BLE_SDK/GD32VW55x_RELEASE_V1.0.2/MSDK/cloud/alicloud/src/protocol/alcs\alcs_adapter.c ****     COAP_INFO("iotx_alcs_construct enter");
 1344              		.loc 1 464 1 is_stmt 0
 1345 0008 AA84     		mv	s1,a0
 1346              		.loc 1 465 5
 1347 000a 37050000 		lui	a0,%hi(.LC0)
 1348              	.LVL147:
 1349 000e 13050500 		addi	a0,a0,%lo(.LC0)
 1350 0012 97000000 		call	HAL_Printf
 1350      E7800000 
 1351              	.LVL148:
 1352              		.loc 1 465 5 is_stmt 1
 1353 001a 37050000 		lui	a0,%hi(.LC14)
 1354 001e 13050500 		addi	a0,a0,%lo(.LC14)
 1355 0022 97000000 		call	HAL_Printf
 1355      E7800000 
 1356              	.LVL149:
 1357              		.loc 1 465 5
 1358 002a 37090000 		lui	s2,%hi(.LC2)
 1359 002e 13050900 		addi	a0,s2,%lo(.LC2)
 1360 0032 97000000 		call	HAL_Printf
 1360      E7800000 
 1361              	.LVL150:
 1362              		.loc 1 465 5
 466:C:/Users/stapi/OneDrive/Desktop/GD32VW553/V1_MQTT_OK/GD32VW55X_Wifi_BLE_SDK/GD32VW55x_RELEASE_V1.0.2/MSDK/cloud/alicloud/src/protocol/alcs\alcs_adapter.c **** 
 467:C:/Users/stapi/OneDrive/Desktop/GD32VW553/V1_MQTT_OK/GD32VW55X_Wifi_BLE_SDK/GD32VW55x_RELEASE_V1.0.2/MSDK/cloud/alicloud/src/protocol/alcs\alcs_adapter.c ****     int res = 0;
 1363              		.loc 1 467 5
 468:C:/Users/stapi/OneDrive/Desktop/GD32VW553/V1_MQTT_OK/GD32VW55X_Wifi_BLE_SDK/GD32VW55x_RELEASE_V1.0.2/MSDK/cloud/alicloud/src/protocol/alcs\alcs_adapter.c ****     iotx_alcs_adapter_t *adapter = __iotx_alcs_get_ctx();
 1364              		.loc 1 468 5
  31:C:/Users/stapi/OneDrive/Desktop/GD32VW553/V1_MQTT_OK/GD32VW55X_Wifi_BLE_SDK/GD32VW55x_RELEASE_V1.0.2/MSDK/cloud/alicloud/src/protocol/alcs\alcs_adapter.c **** }
 1365              		.loc 1 31 5
 469:C:/Users/stapi/OneDrive/Desktop/GD32VW553/V1_MQTT_OK/GD32VW55X_Wifi_BLE_SDK/GD32VW55x_RELEASE_V1.0.2/MSDK/cloud/alicloud/src/protocol/alcs\alcs_adapter.c **** 
 470:C:/Users/stapi/OneDrive/Desktop/GD32VW553/V1_MQTT_OK/GD32VW55X_Wifi_BLE_SDK/GD32VW55x_RELEASE_V1.0.2/MSDK/cloud/alicloud/src/protocol/alcs\alcs_adapter.c ****     POINTER_SANITY_CHECK(params, NULL);
 1366              		.loc 1 470 5
 1367              		.loc 1 470 5
 1368 003a 95EC     		bne	s1,zero,.L62
 1369              		.loc 1 470 5 discriminator 1
 1370              		.loc 1 470 5 discriminator 1
 1371 003c 37050000 		lui	a0,%hi(.LC3)
 1372 0040 13050500 		addi	a0,a0,%lo(.LC3)
 1373 0044 97000000 		call	HAL_Printf
 1373      E7800000 
 1374              	.LVL151:
 1375              		.loc 1 470 5 discriminator 1
 1376 004c B7050000 		lui	a1,%hi(.LC15)
 1377 0050 37050000 		lui	a0,%hi(.LC16)
 1378 0054 0146     		li	a2,0
 1379 0056 93850500 		addi	a1,a1,%lo(.LC15)
 1380 005a 13050500 		addi	a0,a0,%lo(.LC16)
 1381              	.L70:
 471:C:/Users/stapi/OneDrive/Desktop/GD32VW553/V1_MQTT_OK/GD32VW55X_Wifi_BLE_SDK/GD32VW55x_RELEASE_V1.0.2/MSDK/cloud/alicloud/src/protocol/alcs\alcs_adapter.c ****     STRING_PTR_SANITY_CHECK(params->group, NULL);
 1382              		.loc 1 471 5 is_stmt 0 discriminator 3
 1383 005e 97000000 		call	HAL_Printf
 1383      E7800000 
 1384              	.LVL152:
 1385              		.loc 1 471 5 is_stmt 1 discriminator 3
 1386              	.L69:
 472:C:/Users/stapi/OneDrive/Desktop/GD32VW553/V1_MQTT_OK/GD32VW55X_Wifi_BLE_SDK/GD32VW55x_RELEASE_V1.0.2/MSDK/cloud/alicloud/src/protocol/alcs\alcs_adapter.c **** 
 473:C:/Users/stapi/OneDrive/Desktop/GD32VW553/V1_MQTT_OK/GD32VW55X_Wifi_BLE_SDK/GD32VW55x_RELEASE_V1.0.2/MSDK/cloud/alicloud/src/protocol/alcs\alcs_adapter.c ****     memset(adapter, 0, sizeof(iotx_alcs_adapter_t));
 474:C:/Users/stapi/OneDrive/Desktop/GD32VW553/V1_MQTT_OK/GD32VW55X_Wifi_BLE_SDK/GD32VW55x_RELEASE_V1.0.2/MSDK/cloud/alicloud/src/protocol/alcs\alcs_adapter.c **** 
 475:C:/Users/stapi/OneDrive/Desktop/GD32VW553/V1_MQTT_OK/GD32VW55X_Wifi_BLE_SDK/GD32VW55x_RELEASE_V1.0.2/MSDK/cloud/alicloud/src/protocol/alcs\alcs_adapter.c ****     res = iotx_alcs_adapter_init(adapter, params);
 476:C:/Users/stapi/OneDrive/Desktop/GD32VW553/V1_MQTT_OK/GD32VW55X_Wifi_BLE_SDK/GD32VW55x_RELEASE_V1.0.2/MSDK/cloud/alicloud/src/protocol/alcs\alcs_adapter.c ****     if (res != SUCCESS_RETURN) {
 477:C:/Users/stapi/OneDrive/Desktop/GD32VW553/V1_MQTT_OK/GD32VW55X_Wifi_BLE_SDK/GD32VW55x_RELEASE_V1.0.2/MSDK/cloud/alicloud/src/protocol/alcs\alcs_adapter.c ****         COAP_ERR("Adapter Init Failed");
 1387              		.loc 1 477 9
 1388 0066 13050900 		addi	a0,s2,%lo(.LC2)
 1389 006a 97000000 		call	HAL_Printf
 1389      E7800000 
 1390              	.LVL153:
 1391              		.loc 1 477 9
 478:C:/Users/stapi/OneDrive/Desktop/GD32VW553/V1_MQTT_OK/GD32VW55X_Wifi_BLE_SDK/GD32VW55x_RELEASE_V1.0.2/MSDK/cloud/alicloud/src/protocol/alcs\alcs_adapter.c ****         return NULL;
 1392              		.loc 1 478 9
 1393              		.loc 1 478 16 is_stmt 0
 1394 0072 0144     		li	s0,0
 1395 0074 35A8     		j	.L61
 1396              	.LVL154:
 1397              	.L62:
 470:C:/Users/stapi/OneDrive/Desktop/GD32VW553/V1_MQTT_OK/GD32VW55X_Wifi_BLE_SDK/GD32VW55x_RELEASE_V1.0.2/MSDK/cloud/alicloud/src/protocol/alcs\alcs_adapter.c ****     STRING_PTR_SANITY_CHECK(params->group, NULL);
 1398              		.loc 1 470 5 is_stmt 1 discriminator 2
 471:C:/Users/stapi/OneDrive/Desktop/GD32VW553/V1_MQTT_OK/GD32VW55X_Wifi_BLE_SDK/GD32VW55x_RELEASE_V1.0.2/MSDK/cloud/alicloud/src/protocol/alcs\alcs_adapter.c **** 
 1399              		.loc 1 471 5 discriminator 2
 471:C:/Users/stapi/OneDrive/Desktop/GD32VW553/V1_MQTT_OK/GD32VW55X_Wifi_BLE_SDK/GD32VW55x_RELEASE_V1.0.2/MSDK/cloud/alicloud/src/protocol/alcs\alcs_adapter.c **** 
 1400              		.loc 1 471 5 discriminator 2
 1401 0076 8044     		lw	s0,8(s1)
 1402 0078 29E0     		bne	s0,zero,.L64
 471:C:/Users/stapi/OneDrive/Desktop/GD32VW553/V1_MQTT_OK/GD32VW55X_Wifi_BLE_SDK/GD32VW55x_RELEASE_V1.0.2/MSDK/cloud/alicloud/src/protocol/alcs\alcs_adapter.c **** 
 1403              		.loc 1 471 5 discriminator 1
 471:C:/Users/stapi/OneDrive/Desktop/GD32VW553/V1_MQTT_OK/GD32VW55X_Wifi_BLE_SDK/GD32VW55x_RELEASE_V1.0.2/MSDK/cloud/alicloud/src/protocol/alcs\alcs_adapter.c **** 
 1404              		.loc 1 471 5 discriminator 1
 1405 007a 37050000 		lui	a0,%hi(.LC3)
 1406 007e 13050500 		addi	a0,a0,%lo(.LC3)
 1407 0082 97000000 		call	HAL_Printf
 1407      E7800000 
 1408              	.LVL155:
 471:C:/Users/stapi/OneDrive/Desktop/GD32VW553/V1_MQTT_OK/GD32VW55X_Wifi_BLE_SDK/GD32VW55x_RELEASE_V1.0.2/MSDK/cloud/alicloud/src/protocol/alcs\alcs_adapter.c **** 
 1409              		.loc 1 471 5 discriminator 1
 1410 008a 9044     		lw	a2,8(s1)
 1411 008c B7050000 		lui	a1,%hi(.LC17)
 1412 0090 37050000 		lui	a0,%hi(.LC16)
 1413 0094 13050500 		addi	a0,a0,%lo(.LC16)
 1414 0098 93850500 		addi	a1,a1,%lo(.LC17)
 1415 009c 97000000 		call	HAL_Printf
 1415      E7800000 
 1416              	.LVL156:
 471:C:/Users/stapi/OneDrive/Desktop/GD32VW553/V1_MQTT_OK/GD32VW55X_Wifi_BLE_SDK/GD32VW55x_RELEASE_V1.0.2/MSDK/cloud/alicloud/src/protocol/alcs\alcs_adapter.c **** 
 1417              		.loc 1 471 5 discriminator 1
 1418 00a4 13050900 		addi	a0,s2,%lo(.LC2)
 1419 00a8 97000000 		call	HAL_Printf
 1419      E7800000 
 1420              	.LVL157:
 471:C:/Users/stapi/OneDrive/Desktop/GD32VW553/V1_MQTT_OK/GD32VW55X_Wifi_BLE_SDK/GD32VW55x_RELEASE_V1.0.2/MSDK/cloud/alicloud/src/protocol/alcs\alcs_adapter.c **** 
 1421              		.loc 1 471 5 discriminator 1
 471:C:/Users/stapi/OneDrive/Desktop/GD32VW553/V1_MQTT_OK/GD32VW55X_Wifi_BLE_SDK/GD32VW55x_RELEASE_V1.0.2/MSDK/cloud/alicloud/src/protocol/alcs\alcs_adapter.c **** 
 1422              		.loc 1 471 5 discriminator 1
 1423              	.L61:
 479:C:/Users/stapi/OneDrive/Desktop/GD32VW553/V1_MQTT_OK/GD32VW55X_Wifi_BLE_SDK/GD32VW55x_RELEASE_V1.0.2/MSDK/cloud/alicloud/src/protocol/alcs\alcs_adapter.c ****     }
 480:C:/Users/stapi/OneDrive/Desktop/GD32VW553/V1_MQTT_OK/GD32VW55X_Wifi_BLE_SDK/GD32VW55x_RELEASE_V1.0.2/MSDK/cloud/alicloud/src/protocol/alcs\alcs_adapter.c **** 
 481:C:/Users/stapi/OneDrive/Desktop/GD32VW553/V1_MQTT_OK/GD32VW55X_Wifi_BLE_SDK/GD32VW55x_RELEASE_V1.0.2/MSDK/cloud/alicloud/src/protocol/alcs\alcs_adapter.c ****     return (void *)adapter;
 482:C:/Users/stapi/OneDrive/Desktop/GD32VW553/V1_MQTT_OK/GD32VW55X_Wifi_BLE_SDK/GD32VW55x_RELEASE_V1.0.2/MSDK/cloud/alicloud/src/protocol/alcs\alcs_adapter.c **** }
 1424              		.loc 1 482 1 is_stmt 0
 1425 00b0 2285     		mv	a0,s0
 1426 00b2 17030000 		tail	__riscv_restore_3
 1426      67000300 
 1427              		.cfi_remember_state
 1428              		.cfi_restore 18
 1429              		.cfi_restore 9
 1430              		.cfi_restore 8
 1431              		.cfi_restore 1
 1432              		.cfi_def_cfa_offset 0
 1433              	.LVL158:
 1434              	.L64:
 1435              		.cfi_restore_state
 471:C:/Users/stapi/OneDrive/Desktop/GD32VW553/V1_MQTT_OK/GD32VW55X_Wifi_BLE_SDK/GD32VW55x_RELEASE_V1.0.2/MSDK/cloud/alicloud/src/protocol/alcs\alcs_adapter.c **** 
 1436              		.loc 1 471 5 is_stmt 1 discriminator 2
 1437 00ba 83070400 		lb	a5,0(s0)
 1438 00be 9DE3     		bne	a5,zero,.L65
 471:C:/Users/stapi/OneDrive/Desktop/GD32VW553/V1_MQTT_OK/GD32VW55X_Wifi_BLE_SDK/GD32VW55x_RELEASE_V1.0.2/MSDK/cloud/alicloud/src/protocol/alcs\alcs_adapter.c **** 
 1439              		.loc 1 471 5 discriminator 3
 471:C:/Users/stapi/OneDrive/Desktop/GD32VW553/V1_MQTT_OK/GD32VW55X_Wifi_BLE_SDK/GD32VW55x_RELEASE_V1.0.2/MSDK/cloud/alicloud/src/protocol/alcs\alcs_adapter.c **** 
 1440              		.loc 1 471 5 discriminator 3
 1441 00c0 37050000 		lui	a0,%hi(.LC3)
 1442 00c4 13050500 		addi	a0,a0,%lo(.LC3)
 1443 00c8 97000000 		call	HAL_Printf
 1443      E7800000 
 1444              	.LVL159:
 471:C:/Users/stapi/OneDrive/Desktop/GD32VW553/V1_MQTT_OK/GD32VW55X_Wifi_BLE_SDK/GD32VW55x_RELEASE_V1.0.2/MSDK/cloud/alicloud/src/protocol/alcs\alcs_adapter.c **** 
 1445              		.loc 1 471 5 discriminator 3
 1446 00d0 B7050000 		lui	a1,%hi(.LC17)
 1447 00d4 37050000 		lui	a0,%hi(.LC18)
 1448 00d8 9044     		lw	a2,8(s1)
 1449 00da 93850500 		addi	a1,a1,%lo(.LC17)
 1450 00de 13050500 		addi	a0,a0,%lo(.LC18)
 1451 00e2 B5BF     		j	.L70
 1452              	.L65:
 471:C:/Users/stapi/OneDrive/Desktop/GD32VW553/V1_MQTT_OK/GD32VW55X_Wifi_BLE_SDK/GD32VW55x_RELEASE_V1.0.2/MSDK/cloud/alicloud/src/protocol/alcs\alcs_adapter.c **** 
 1453              		.loc 1 471 5 discriminator 4
 473:C:/Users/stapi/OneDrive/Desktop/GD32VW553/V1_MQTT_OK/GD32VW55X_Wifi_BLE_SDK/GD32VW55x_RELEASE_V1.0.2/MSDK/cloud/alicloud/src/protocol/alcs\alcs_adapter.c **** 
 1454              		.loc 1 473 5 discriminator 4
 1455 00e4 37040000 		lui	s0,%hi(.LANCHOR0)
 1456 00e8 13060004 		li	a2,64
 1457 00ec 8145     		li	a1,0
 1458 00ee 13050400 		addi	a0,s0,%lo(.LANCHOR0)
 1459 00f2 97000000 		call	memset
 1459      E7800000 
 1460              	.LVL160:
 475:C:/Users/stapi/OneDrive/Desktop/GD32VW553/V1_MQTT_OK/GD32VW55X_Wifi_BLE_SDK/GD32VW55x_RELEASE_V1.0.2/MSDK/cloud/alicloud/src/protocol/alcs\alcs_adapter.c ****     if (res != SUCCESS_RETURN) {
 1461              		.loc 1 475 5 discriminator 4
 475:C:/Users/stapi/OneDrive/Desktop/GD32VW553/V1_MQTT_OK/GD32VW55X_Wifi_BLE_SDK/GD32VW55x_RELEASE_V1.0.2/MSDK/cloud/alicloud/src/protocol/alcs\alcs_adapter.c ****     if (res != SUCCESS_RETURN) {
 1462              		.loc 1 475 11 is_stmt 0 discriminator 4
 1463 00fa 13050400 		addi	a0,s0,%lo(.LANCHOR0)
 1464 00fe A685     		mv	a1,s1
 1465 0100 97000000 		call	iotx_alcs_adapter_init
 1465      E7800000 
 1466              	.LVL161:
 476:C:/Users/stapi/OneDrive/Desktop/GD32VW553/V1_MQTT_OK/GD32VW55X_Wifi_BLE_SDK/GD32VW55x_RELEASE_V1.0.2/MSDK/cloud/alicloud/src/protocol/alcs\alcs_adapter.c ****         COAP_ERR("Adapter Init Failed");
 1467              		.loc 1 476 5 is_stmt 1 discriminator 4
 481:C:/Users/stapi/OneDrive/Desktop/GD32VW553/V1_MQTT_OK/GD32VW55X_Wifi_BLE_SDK/GD32VW55x_RELEASE_V1.0.2/MSDK/cloud/alicloud/src/protocol/alcs\alcs_adapter.c **** }
 1468              		.loc 1 481 12 is_stmt 0 discriminator 4
 1469 0108 13040400 		addi	s0,s0,%lo(.LANCHOR0)
 476:C:/Users/stapi/OneDrive/Desktop/GD32VW553/V1_MQTT_OK/GD32VW55X_Wifi_BLE_SDK/GD32VW55x_RELEASE_V1.0.2/MSDK/cloud/alicloud/src/protocol/alcs\alcs_adapter.c ****         COAP_ERR("Adapter Init Failed");
 1470              		.loc 1 476 8 discriminator 4
 1471 010c 55D1     		beq	a0,zero,.L61
 477:C:/Users/stapi/OneDrive/Desktop/GD32VW553/V1_MQTT_OK/GD32VW55X_Wifi_BLE_SDK/GD32VW55x_RELEASE_V1.0.2/MSDK/cloud/alicloud/src/protocol/alcs\alcs_adapter.c ****         return NULL;
 1472              		.loc 1 477 9 is_stmt 1
 477:C:/Users/stapi/OneDrive/Desktop/GD32VW553/V1_MQTT_OK/GD32VW55X_Wifi_BLE_SDK/GD32VW55x_RELEASE_V1.0.2/MSDK/cloud/alicloud/src/protocol/alcs\alcs_adapter.c ****         return NULL;
 1473              		.loc 1 477 9
 1474 010e 37050000 		lui	a0,%hi(.LC3)
 1475              	.LVL162:
 1476 0112 13050500 		addi	a0,a0,%lo(.LC3)
 1477 0116 97000000 		call	HAL_Printf
 1477      E7800000 
 1478              	.LVL163:
 477:C:/Users/stapi/OneDrive/Desktop/GD32VW553/V1_MQTT_OK/GD32VW55X_Wifi_BLE_SDK/GD32VW55x_RELEASE_V1.0.2/MSDK/cloud/alicloud/src/protocol/alcs\alcs_adapter.c ****         return NULL;
 1479              		.loc 1 477 9
 1480 011e 37050000 		lui	a0,%hi(.LC19)
 1481 0122 13050500 		addi	a0,a0,%lo(.LC19)
 1482 0126 97000000 		call	HAL_Printf
 1482      E7800000 
 1483              	.LVL164:
 1484 012e 25BF     		j	.L69
 1485              		.cfi_endproc
 1486              	.LFE31:
 1488              		.section	.rodata.iotx_alcs_cloud_init.str1.4,"aMS",@progbits,1
 1489              		.align	2
 1490              	.LC20:
 1491 0000 53746172 		.string	"Start ALCS Cloud Init"
 1491      7420414C 
 1491      43532043 
 1491      6C6F7564 
 1491      20496E69 
 1492 0016 0000     		.align	2
 1493              	.LC21:
 1494 0018 414C4353 		.string	"ALCS MQTT Init Failed"
 1494      204D5154 
 1494      5420496E 
 1494      69742046 
 1494      61696C65 
 1495              		.section	.text.iotx_alcs_cloud_init,"ax",@progbits
 1496              		.align	1
 1497              		.globl	iotx_alcs_cloud_init
 1499              	iotx_alcs_cloud_init:
 1500              	.LFB32:
 483:C:/Users/stapi/OneDrive/Desktop/GD32VW553/V1_MQTT_OK/GD32VW55X_Wifi_BLE_SDK/GD32VW55x_RELEASE_V1.0.2/MSDK/cloud/alicloud/src/protocol/alcs\alcs_adapter.c **** 
 484:C:/Users/stapi/OneDrive/Desktop/GD32VW553/V1_MQTT_OK/GD32VW55X_Wifi_BLE_SDK/GD32VW55x_RELEASE_V1.0.2/MSDK/cloud/alicloud/src/protocol/alcs\alcs_adapter.c **** int iotx_alcs_cloud_init(void *handle)
 485:C:/Users/stapi/OneDrive/Desktop/GD32VW553/V1_MQTT_OK/GD32VW55X_Wifi_BLE_SDK/GD32VW55x_RELEASE_V1.0.2/MSDK/cloud/alicloud/src/protocol/alcs\alcs_adapter.c **** {
 1501              		.loc 1 485 1
 1502              		.cfi_startproc
 1503              	.LVL165:
 1504 0000 17030000 		call	t0,__riscv_save_4
 1504      E7020300 
 1505              		.cfi_offset 19, -20
 1506              		.cfi_offset 18, -16
 1507              		.cfi_offset 9, -12
 1508              		.cfi_offset 8, -8
 1509              		.cfi_offset 1, -4
 1510              		.cfi_def_cfa_offset 32
 486:C:/Users/stapi/OneDrive/Desktop/GD32VW553/V1_MQTT_OK/GD32VW55X_Wifi_BLE_SDK/GD32VW55x_RELEASE_V1.0.2/MSDK/cloud/alicloud/src/protocol/alcs\alcs_adapter.c ****     COAP_INFO("Start ALCS Cloud Init");
 1511              		.loc 1 486 5
 1512              		.loc 1 486 5
 485:C:/Users/stapi/OneDrive/Desktop/GD32VW553/V1_MQTT_OK/GD32VW55X_Wifi_BLE_SDK/GD32VW55x_RELEASE_V1.0.2/MSDK/cloud/alicloud/src/protocol/alcs\alcs_adapter.c ****     COAP_INFO("Start ALCS Cloud Init");
 1513              		.loc 1 485 1 is_stmt 0
 1514 0008 2A89     		mv	s2,a0
 1515              		.loc 1 486 5
 1516 000a 37050000 		lui	a0,%hi(.LC0)
 1517              	.LVL166:
 485:C:/Users/stapi/OneDrive/Desktop/GD32VW553/V1_MQTT_OK/GD32VW55X_Wifi_BLE_SDK/GD32VW55x_RELEASE_V1.0.2/MSDK/cloud/alicloud/src/protocol/alcs\alcs_adapter.c ****     COAP_INFO("Start ALCS Cloud Init");
 1518              		.loc 1 485 1
 1519 000e 3971     		addi	sp,sp,-64
 1520              		.cfi_def_cfa_offset 96
 1521              		.loc 1 486 5
 1522 0010 13050500 		addi	a0,a0,%lo(.LC0)
 1523 0014 97000000 		call	HAL_Printf
 1523      E7800000 
 1524              	.LVL167:
 1525              		.loc 1 486 5 is_stmt 1
 1526 001c 37050000 		lui	a0,%hi(.LC20)
 1527 0020 13050500 		addi	a0,a0,%lo(.LC20)
 1528 0024 97000000 		call	HAL_Printf
 1528      E7800000 
 1529              	.LVL168:
 1530              		.loc 1 486 5
 1531 002c B7040000 		lui	s1,%hi(.LC2)
 1532 0030 13850400 		addi	a0,s1,%lo(.LC2)
 1533 0034 97000000 		call	HAL_Printf
 1533      E7800000 
 1534              	.LVL169:
 1535              		.loc 1 486 5
 487:C:/Users/stapi/OneDrive/Desktop/GD32VW553/V1_MQTT_OK/GD32VW55X_Wifi_BLE_SDK/GD32VW55x_RELEASE_V1.0.2/MSDK/cloud/alicloud/src/protocol/alcs\alcs_adapter.c ****     int res = 0;
 1536              		.loc 1 487 5
 488:C:/Users/stapi/OneDrive/Desktop/GD32VW553/V1_MQTT_OK/GD32VW55X_Wifi_BLE_SDK/GD32VW55x_RELEASE_V1.0.2/MSDK/cloud/alicloud/src/protocol/alcs\alcs_adapter.c ****     iotx_alcs_adapter_t *adapter = __iotx_alcs_get_ctx();
 1537              		.loc 1 488 5
  31:C:/Users/stapi/OneDrive/Desktop/GD32VW553/V1_MQTT_OK/GD32VW55X_Wifi_BLE_SDK/GD32VW55x_RELEASE_V1.0.2/MSDK/cloud/alicloud/src/protocol/alcs\alcs_adapter.c **** }
 1538              		.loc 1 31 5
 489:C:/Users/stapi/OneDrive/Desktop/GD32VW553/V1_MQTT_OK/GD32VW55X_Wifi_BLE_SDK/GD32VW55x_RELEASE_V1.0.2/MSDK/cloud/alicloud/src/protocol/alcs\alcs_adapter.c ****     char product_key[PRODUCT_KEY_MAXLEN] = {0};
 1539              		.loc 1 489 5
 490:C:/Users/stapi/OneDrive/Desktop/GD32VW553/V1_MQTT_OK/GD32VW55X_Wifi_BLE_SDK/GD32VW55x_RELEASE_V1.0.2/MSDK/cloud/alicloud/src/protocol/alcs\alcs_adapter.c ****     char device_name[DEVICE_NAME_MAXLEN] = {0};
 1540              		.loc 1 490 10 is_stmt 0
 1541 003c 7546     		li	a2,29
 1542 003e 8145     		li	a1,0
 1543 0040 0810     		addi	a0,sp,32
 491:C:/Users/stapi/OneDrive/Desktop/GD32VW553/V1_MQTT_OK/GD32VW55X_Wifi_BLE_SDK/GD32VW55x_RELEASE_V1.0.2/MSDK/cloud/alicloud/src/protocol/alcs\alcs_adapter.c **** 
 492:C:/Users/stapi/OneDrive/Desktop/GD32VW553/V1_MQTT_OK/GD32VW55X_Wifi_BLE_SDK/GD32VW55x_RELEASE_V1.0.2/MSDK/cloud/alicloud/src/protocol/alcs\alcs_adapter.c ****     if (adapter->local_cloud_inited == 1) {
 1544              		.loc 1 492 16
 1545 0042 37040000 		lui	s0,%hi(.LANCHOR0)
 489:C:/Users/stapi/OneDrive/Desktop/GD32VW553/V1_MQTT_OK/GD32VW55X_Wifi_BLE_SDK/GD32VW55x_RELEASE_V1.0.2/MSDK/cloud/alicloud/src/protocol/alcs\alcs_adapter.c ****     char device_name[DEVICE_NAME_MAXLEN] = {0};
 1546              		.loc 1 489 10
 1547 0046 02C2     		sw	zero,4(sp)
 1548 0048 02C4     		sw	zero,8(sp)
 1549 004a 02C6     		sw	zero,12(sp)
 1550 004c 02C8     		sw	zero,16(sp)
 1551 004e 02CA     		sw	zero,20(sp)
 1552 0050 230C0100 		sb	zero,24(sp)
 490:C:/Users/stapi/OneDrive/Desktop/GD32VW553/V1_MQTT_OK/GD32VW55X_Wifi_BLE_SDK/GD32VW55x_RELEASE_V1.0.2/MSDK/cloud/alicloud/src/protocol/alcs\alcs_adapter.c ****     char device_name[DEVICE_NAME_MAXLEN] = {0};
 1553              		.loc 1 490 5 is_stmt 1
 490:C:/Users/stapi/OneDrive/Desktop/GD32VW553/V1_MQTT_OK/GD32VW55X_Wifi_BLE_SDK/GD32VW55x_RELEASE_V1.0.2/MSDK/cloud/alicloud/src/protocol/alcs\alcs_adapter.c ****     char device_name[DEVICE_NAME_MAXLEN] = {0};
 1554              		.loc 1 490 10 is_stmt 0
 1555 0054 02CE     		sw	zero,28(sp)
 1556              		.loc 1 492 16
 1557 0056 13040400 		addi	s0,s0,%lo(.LANCHOR0)
 490:C:/Users/stapi/OneDrive/Desktop/GD32VW553/V1_MQTT_OK/GD32VW55X_Wifi_BLE_SDK/GD32VW55x_RELEASE_V1.0.2/MSDK/cloud/alicloud/src/protocol/alcs\alcs_adapter.c ****     char device_name[DEVICE_NAME_MAXLEN] = {0};
 1558              		.loc 1 490 10
 1559 005a 97000000 		call	memset
 1559      E7800000 
 1560              	.LVL170:
 1561              		.loc 1 492 5 is_stmt 1
 1562              		.loc 1 492 8 is_stmt 0
 1563 0062 5C40     		lw	a5,4(s0)
 1564 0064 8549     		li	s3,1
 1565 0066 638F370B 		beq	a5,s3,.L76
 493:C:/Users/stapi/OneDrive/Desktop/GD32VW553/V1_MQTT_OK/GD32VW55X_Wifi_BLE_SDK/GD32VW55x_RELEASE_V1.0.2/MSDK/cloud/alicloud/src/protocol/alcs\alcs_adapter.c ****         return SUCCESS_RETURN;
 494:C:/Users/stapi/OneDrive/Desktop/GD32VW553/V1_MQTT_OK/GD32VW55X_Wifi_BLE_SDK/GD32VW55x_RELEASE_V1.0.2/MSDK/cloud/alicloud/src/protocol/alcs\alcs_adapter.c ****     }
 495:C:/Users/stapi/OneDrive/Desktop/GD32VW553/V1_MQTT_OK/GD32VW55X_Wifi_BLE_SDK/GD32VW55x_RELEASE_V1.0.2/MSDK/cloud/alicloud/src/protocol/alcs\alcs_adapter.c **** 
 496:C:/Users/stapi/OneDrive/Desktop/GD32VW553/V1_MQTT_OK/GD32VW55X_Wifi_BLE_SDK/GD32VW55x_RELEASE_V1.0.2/MSDK/cloud/alicloud/src/protocol/alcs\alcs_adapter.c ****     if (handle == NULL) {
 1566              		.loc 1 496 5 is_stmt 1
 497:C:/Users/stapi/OneDrive/Desktop/GD32VW553/V1_MQTT_OK/GD32VW55X_Wifi_BLE_SDK/GD32VW55x_RELEASE_V1.0.2/MSDK/cloud/alicloud/src/protocol/alcs\alcs_adapter.c ****         return FAIL_RETURN;
 1567              		.loc 1 497 16 is_stmt 0
 1568 006a 7D55     		li	a0,-1
 496:C:/Users/stapi/OneDrive/Desktop/GD32VW553/V1_MQTT_OK/GD32VW55X_Wifi_BLE_SDK/GD32VW55x_RELEASE_V1.0.2/MSDK/cloud/alicloud/src/protocol/alcs\alcs_adapter.c ****         return FAIL_RETURN;
 1569              		.loc 1 496 8
 1570 006c 63060904 		beq	s2,zero,.L71
 498:C:/Users/stapi/OneDrive/Desktop/GD32VW553/V1_MQTT_OK/GD32VW55X_Wifi_BLE_SDK/GD32VW55x_RELEASE_V1.0.2/MSDK/cloud/alicloud/src/protocol/alcs\alcs_adapter.c ****     }
 499:C:/Users/stapi/OneDrive/Desktop/GD32VW553/V1_MQTT_OK/GD32VW55X_Wifi_BLE_SDK/GD32VW55x_RELEASE_V1.0.2/MSDK/cloud/alicloud/src/protocol/alcs\alcs_adapter.c **** 
 500:C:/Users/stapi/OneDrive/Desktop/GD32VW553/V1_MQTT_OK/GD32VW55X_Wifi_BLE_SDK/GD32VW55x_RELEASE_V1.0.2/MSDK/cloud/alicloud/src/protocol/alcs\alcs_adapter.c ****     res = HAL_GetProductKey(product_key);
 1571              		.loc 1 500 5 is_stmt 1
 1572              		.loc 1 500 11 is_stmt 0
 1573 0070 4800     		addi	a0,sp,4
 1574 0072 97000000 		call	HAL_GetProductKey
 1574      E7800000 
 1575              	.LVL171:
 501:C:/Users/stapi/OneDrive/Desktop/GD32VW553/V1_MQTT_OK/GD32VW55X_Wifi_BLE_SDK/GD32VW55x_RELEASE_V1.0.2/MSDK/cloud/alicloud/src/protocol/alcs\alcs_adapter.c ****     if (res <= 0 || res > PRODUCT_KEY_MAXLEN - 1) {
 1576              		.loc 1 501 5 is_stmt 1
 1577              		.loc 1 501 18 is_stmt 0
 1578 007a 7D15     		addi	a0,a0,-1
 1579              	.LVL172:
 1580              		.loc 1 501 8
 1581 007c CD47     		li	a5,19
 1582 007e 63F2A704 		bleu	a0,a5,.L73
 502:C:/Users/stapi/OneDrive/Desktop/GD32VW553/V1_MQTT_OK/GD32VW55X_Wifi_BLE_SDK/GD32VW55x_RELEASE_V1.0.2/MSDK/cloud/alicloud/src/protocol/alcs\alcs_adapter.c ****         iotx_alcs_adapter_deinit();
 1583              		.loc 1 502 9 is_stmt 1
 1584 0082 97000000 		call	iotx_alcs_adapter_deinit
 1584      E7800000 
 1585              	.LVL173:
 503:C:/Users/stapi/OneDrive/Desktop/GD32VW553/V1_MQTT_OK/GD32VW55X_Wifi_BLE_SDK/GD32VW55x_RELEASE_V1.0.2/MSDK/cloud/alicloud/src/protocol/alcs\alcs_adapter.c ****         COAP_ERR("Get Product Key Failed");
 1586              		.loc 1 503 9
 1587              		.loc 1 503 9
 1588 008a 37050000 		lui	a0,%hi(.LC3)
 1589 008e 13050500 		addi	a0,a0,%lo(.LC3)
 1590 0092 97000000 		call	HAL_Printf
 1590      E7800000 
 1591              	.LVL174:
 1592              		.loc 1 503 9
 1593 009a 37050000 		lui	a0,%hi(.LC10)
 1594 009e 13050500 		addi	a0,a0,%lo(.LC10)
 1595              	.L79:
 504:C:/Users/stapi/OneDrive/Desktop/GD32VW553/V1_MQTT_OK/GD32VW55X_Wifi_BLE_SDK/GD32VW55x_RELEASE_V1.0.2/MSDK/cloud/alicloud/src/protocol/alcs\alcs_adapter.c ****         return FAIL_RETURN;
 505:C:/Users/stapi/OneDrive/Desktop/GD32VW553/V1_MQTT_OK/GD32VW55X_Wifi_BLE_SDK/GD32VW55x_RELEASE_V1.0.2/MSDK/cloud/alicloud/src/protocol/alcs\alcs_adapter.c ****     }
 506:C:/Users/stapi/OneDrive/Desktop/GD32VW553/V1_MQTT_OK/GD32VW55X_Wifi_BLE_SDK/GD32VW55x_RELEASE_V1.0.2/MSDK/cloud/alicloud/src/protocol/alcs\alcs_adapter.c **** 
 507:C:/Users/stapi/OneDrive/Desktop/GD32VW553/V1_MQTT_OK/GD32VW55X_Wifi_BLE_SDK/GD32VW55x_RELEASE_V1.0.2/MSDK/cloud/alicloud/src/protocol/alcs\alcs_adapter.c ****     res = HAL_GetDeviceName(device_name);
 508:C:/Users/stapi/OneDrive/Desktop/GD32VW553/V1_MQTT_OK/GD32VW55X_Wifi_BLE_SDK/GD32VW55x_RELEASE_V1.0.2/MSDK/cloud/alicloud/src/protocol/alcs\alcs_adapter.c ****     if (res <= 0 || res > DEVICE_NAME_MAXLEN - 1) {
 509:C:/Users/stapi/OneDrive/Desktop/GD32VW553/V1_MQTT_OK/GD32VW55X_Wifi_BLE_SDK/GD32VW55x_RELEASE_V1.0.2/MSDK/cloud/alicloud/src/protocol/alcs\alcs_adapter.c ****         iotx_alcs_adapter_deinit();
 510:C:/Users/stapi/OneDrive/Desktop/GD32VW553/V1_MQTT_OK/GD32VW55X_Wifi_BLE_SDK/GD32VW55x_RELEASE_V1.0.2/MSDK/cloud/alicloud/src/protocol/alcs\alcs_adapter.c ****         COAP_ERR("Get Device Name Failed");
 1596              		.loc 1 510 9 is_stmt 0
 1597 00a2 97000000 		call	HAL_Printf
 1597      E7800000 
 1598              	.LVL175:
 1599              		.loc 1 510 9 is_stmt 1
 1600 00aa 13850400 		addi	a0,s1,%lo(.LC2)
 1601 00ae 97000000 		call	HAL_Printf
 1601      E7800000 
 1602              	.LVL176:
 1603              		.loc 1 510 9
 511:C:/Users/stapi/OneDrive/Desktop/GD32VW553/V1_MQTT_OK/GD32VW55X_Wifi_BLE_SDK/GD32VW55x_RELEASE_V1.0.2/MSDK/cloud/alicloud/src/protocol/alcs\alcs_adapter.c ****         return FAIL_RETURN;
 1604              		.loc 1 511 9
 1605              		.loc 1 511 16 is_stmt 0
 1606 00b6 7D55     		li	a0,-1
 1607              	.L71:
 512:C:/Users/stapi/OneDrive/Desktop/GD32VW553/V1_MQTT_OK/GD32VW55X_Wifi_BLE_SDK/GD32VW55x_RELEASE_V1.0.2/MSDK/cloud/alicloud/src/protocol/alcs\alcs_adapter.c ****     }
 513:C:/Users/stapi/OneDrive/Desktop/GD32VW553/V1_MQTT_OK/GD32VW55X_Wifi_BLE_SDK/GD32VW55x_RELEASE_V1.0.2/MSDK/cloud/alicloud/src/protocol/alcs\alcs_adapter.c **** 
 514:C:/Users/stapi/OneDrive/Desktop/GD32VW553/V1_MQTT_OK/GD32VW55X_Wifi_BLE_SDK/GD32VW55x_RELEASE_V1.0.2/MSDK/cloud/alicloud/src/protocol/alcs\alcs_adapter.c ****     if (alcs_mqtt_init(adapter->coap_ctx, product_key, device_name) != ALCS_MQTT_STATUS_SUCCESS) {
 515:C:/Users/stapi/OneDrive/Desktop/GD32VW553/V1_MQTT_OK/GD32VW55X_Wifi_BLE_SDK/GD32VW55x_RELEASE_V1.0.2/MSDK/cloud/alicloud/src/protocol/alcs\alcs_adapter.c ****         /*solve the prpblem of hard fault when mqtt connection fails once*/
 516:C:/Users/stapi/OneDrive/Desktop/GD32VW553/V1_MQTT_OK/GD32VW55X_Wifi_BLE_SDK/GD32VW55x_RELEASE_V1.0.2/MSDK/cloud/alicloud/src/protocol/alcs\alcs_adapter.c ****         COAP_ERR("ALCS MQTT Init Failed");
 517:C:/Users/stapi/OneDrive/Desktop/GD32VW553/V1_MQTT_OK/GD32VW55X_Wifi_BLE_SDK/GD32VW55x_RELEASE_V1.0.2/MSDK/cloud/alicloud/src/protocol/alcs\alcs_adapter.c ****         return FAIL_RETURN;
 518:C:/Users/stapi/OneDrive/Desktop/GD32VW553/V1_MQTT_OK/GD32VW55X_Wifi_BLE_SDK/GD32VW55x_RELEASE_V1.0.2/MSDK/cloud/alicloud/src/protocol/alcs\alcs_adapter.c ****     }
 519:C:/Users/stapi/OneDrive/Desktop/GD32VW553/V1_MQTT_OK/GD32VW55X_Wifi_BLE_SDK/GD32VW55x_RELEASE_V1.0.2/MSDK/cloud/alicloud/src/protocol/alcs\alcs_adapter.c **** 
 520:C:/Users/stapi/OneDrive/Desktop/GD32VW553/V1_MQTT_OK/GD32VW55X_Wifi_BLE_SDK/GD32VW55x_RELEASE_V1.0.2/MSDK/cloud/alicloud/src/protocol/alcs\alcs_adapter.c ****     adapter->local_cloud_inited = 1;
 521:C:/Users/stapi/OneDrive/Desktop/GD32VW553/V1_MQTT_OK/GD32VW55X_Wifi_BLE_SDK/GD32VW55x_RELEASE_V1.0.2/MSDK/cloud/alicloud/src/protocol/alcs\alcs_adapter.c **** 
 522:C:/Users/stapi/OneDrive/Desktop/GD32VW553/V1_MQTT_OK/GD32VW55X_Wifi_BLE_SDK/GD32VW55x_RELEASE_V1.0.2/MSDK/cloud/alicloud/src/protocol/alcs\alcs_adapter.c ****     return SUCCESS_RETURN;
 523:C:/Users/stapi/OneDrive/Desktop/GD32VW553/V1_MQTT_OK/GD32VW55X_Wifi_BLE_SDK/GD32VW55x_RELEASE_V1.0.2/MSDK/cloud/alicloud/src/protocol/alcs\alcs_adapter.c **** }
 1608              		.loc 1 523 1
 1609 00b8 2161     		addi	sp,sp,64
 1610              		.cfi_remember_state
 1611              		.cfi_def_cfa_offset 0
 1612 00ba 17030000 		tail	__riscv_restore_4
 1612      67000300 
 1613              		.cfi_restore 19
 1614              		.cfi_restore 18
 1615              		.cfi_restore 9
 1616              		.cfi_restore 8
 1617              		.cfi_restore 1
 1618              		.cfi_def_cfa_offset -32
 1619              	.LVL177:
 1620              	.L73:
 1621              		.cfi_restore_state
 507:C:/Users/stapi/OneDrive/Desktop/GD32VW553/V1_MQTT_OK/GD32VW55X_Wifi_BLE_SDK/GD32VW55x_RELEASE_V1.0.2/MSDK/cloud/alicloud/src/protocol/alcs\alcs_adapter.c ****     if (res <= 0 || res > DEVICE_NAME_MAXLEN - 1) {
 1622              		.loc 1 507 5 is_stmt 1
 507:C:/Users/stapi/OneDrive/Desktop/GD32VW553/V1_MQTT_OK/GD32VW55X_Wifi_BLE_SDK/GD32VW55x_RELEASE_V1.0.2/MSDK/cloud/alicloud/src/protocol/alcs\alcs_adapter.c ****     if (res <= 0 || res > DEVICE_NAME_MAXLEN - 1) {
 1623              		.loc 1 507 11 is_stmt 0
 1624 00c2 6808     		addi	a0,sp,28
 1625              	.LVL178:
 1626 00c4 97000000 		call	HAL_GetDeviceName
 1626      E7800000 
 1627              	.LVL179:
 508:C:/Users/stapi/OneDrive/Desktop/GD32VW553/V1_MQTT_OK/GD32VW55X_Wifi_BLE_SDK/GD32VW55x_RELEASE_V1.0.2/MSDK/cloud/alicloud/src/protocol/alcs\alcs_adapter.c ****         iotx_alcs_adapter_deinit();
 1628              		.loc 1 508 5 is_stmt 1
 508:C:/Users/stapi/OneDrive/Desktop/GD32VW553/V1_MQTT_OK/GD32VW55X_Wifi_BLE_SDK/GD32VW55x_RELEASE_V1.0.2/MSDK/cloud/alicloud/src/protocol/alcs\alcs_adapter.c ****         iotx_alcs_adapter_deinit();
 1629              		.loc 1 508 18 is_stmt 0
 1630 00cc 7D15     		addi	a0,a0,-1
 1631              	.LVL180:
 508:C:/Users/stapi/OneDrive/Desktop/GD32VW553/V1_MQTT_OK/GD32VW55X_Wifi_BLE_SDK/GD32VW55x_RELEASE_V1.0.2/MSDK/cloud/alicloud/src/protocol/alcs\alcs_adapter.c ****         iotx_alcs_adapter_deinit();
 1632              		.loc 1 508 8
 1633 00ce FD47     		li	a5,31
 1634 00d0 63F3A702 		bleu	a0,a5,.L74
 509:C:/Users/stapi/OneDrive/Desktop/GD32VW553/V1_MQTT_OK/GD32VW55X_Wifi_BLE_SDK/GD32VW55x_RELEASE_V1.0.2/MSDK/cloud/alicloud/src/protocol/alcs\alcs_adapter.c ****         COAP_ERR("Get Device Name Failed");
 1635              		.loc 1 509 9 is_stmt 1
 1636 00d4 97000000 		call	iotx_alcs_adapter_deinit
 1636      E7800000 
 1637              	.LVL181:
 510:C:/Users/stapi/OneDrive/Desktop/GD32VW553/V1_MQTT_OK/GD32VW55X_Wifi_BLE_SDK/GD32VW55x_RELEASE_V1.0.2/MSDK/cloud/alicloud/src/protocol/alcs\alcs_adapter.c ****         return FAIL_RETURN;
 1638              		.loc 1 510 9
 510:C:/Users/stapi/OneDrive/Desktop/GD32VW553/V1_MQTT_OK/GD32VW55X_Wifi_BLE_SDK/GD32VW55x_RELEASE_V1.0.2/MSDK/cloud/alicloud/src/protocol/alcs\alcs_adapter.c ****         return FAIL_RETURN;
 1639              		.loc 1 510 9
 1640 00dc 37050000 		lui	a0,%hi(.LC3)
 1641 00e0 13050500 		addi	a0,a0,%lo(.LC3)
 1642 00e4 97000000 		call	HAL_Printf
 1642      E7800000 
 1643              	.LVL182:
 510:C:/Users/stapi/OneDrive/Desktop/GD32VW553/V1_MQTT_OK/GD32VW55X_Wifi_BLE_SDK/GD32VW55x_RELEASE_V1.0.2/MSDK/cloud/alicloud/src/protocol/alcs\alcs_adapter.c ****         return FAIL_RETURN;
 1644              		.loc 1 510 9
 1645 00ec 37050000 		lui	a0,%hi(.LC11)
 1646 00f0 13050500 		addi	a0,a0,%lo(.LC11)
 1647 00f4 7DB7     		j	.L79
 1648              	.LVL183:
 1649              	.L74:
 514:C:/Users/stapi/OneDrive/Desktop/GD32VW553/V1_MQTT_OK/GD32VW55X_Wifi_BLE_SDK/GD32VW55x_RELEASE_V1.0.2/MSDK/cloud/alicloud/src/protocol/alcs\alcs_adapter.c ****         /*solve the prpblem of hard fault when mqtt connection fails once*/
 1650              		.loc 1 514 5
 514:C:/Users/stapi/OneDrive/Desktop/GD32VW553/V1_MQTT_OK/GD32VW55X_Wifi_BLE_SDK/GD32VW55x_RELEASE_V1.0.2/MSDK/cloud/alicloud/src/protocol/alcs\alcs_adapter.c ****         /*solve the prpblem of hard fault when mqtt connection fails once*/
 1651              		.loc 1 514 9 is_stmt 0
 1652 00f6 0844     		lw	a0,8(s0)
 1653              	.LVL184:
 1654 00f8 7008     		addi	a2,sp,28
 1655 00fa 4C00     		addi	a1,sp,4
 1656 00fc 97000000 		call	alcs_mqtt_init
 1656      E7800000 
 1657              	.LVL185:
 514:C:/Users/stapi/OneDrive/Desktop/GD32VW553/V1_MQTT_OK/GD32VW55X_Wifi_BLE_SDK/GD32VW55x_RELEASE_V1.0.2/MSDK/cloud/alicloud/src/protocol/alcs\alcs_adapter.c ****         /*solve the prpblem of hard fault when mqtt connection fails once*/
 1658              		.loc 1 514 8
 1659 0104 11CD     		beq	a0,zero,.L75
 516:C:/Users/stapi/OneDrive/Desktop/GD32VW553/V1_MQTT_OK/GD32VW55X_Wifi_BLE_SDK/GD32VW55x_RELEASE_V1.0.2/MSDK/cloud/alicloud/src/protocol/alcs\alcs_adapter.c ****         return FAIL_RETURN;
 1660              		.loc 1 516 9 is_stmt 1
 516:C:/Users/stapi/OneDrive/Desktop/GD32VW553/V1_MQTT_OK/GD32VW55X_Wifi_BLE_SDK/GD32VW55x_RELEASE_V1.0.2/MSDK/cloud/alicloud/src/protocol/alcs\alcs_adapter.c ****         return FAIL_RETURN;
 1661              		.loc 1 516 9
 1662 0106 37050000 		lui	a0,%hi(.LC3)
 1663 010a 13050500 		addi	a0,a0,%lo(.LC3)
 1664 010e 97000000 		call	HAL_Printf
 1664      E7800000 
 1665              	.LVL186:
 516:C:/Users/stapi/OneDrive/Desktop/GD32VW553/V1_MQTT_OK/GD32VW55X_Wifi_BLE_SDK/GD32VW55x_RELEASE_V1.0.2/MSDK/cloud/alicloud/src/protocol/alcs\alcs_adapter.c ****         return FAIL_RETURN;
 1666              		.loc 1 516 9
 1667 0116 37050000 		lui	a0,%hi(.LC21)
 1668 011a 13050500 		addi	a0,a0,%lo(.LC21)
 1669 011e 51B7     		j	.L79
 1670              	.L75:
 520:C:/Users/stapi/OneDrive/Desktop/GD32VW553/V1_MQTT_OK/GD32VW55X_Wifi_BLE_SDK/GD32VW55x_RELEASE_V1.0.2/MSDK/cloud/alicloud/src/protocol/alcs\alcs_adapter.c **** 
 1671              		.loc 1 520 5
 520:C:/Users/stapi/OneDrive/Desktop/GD32VW553/V1_MQTT_OK/GD32VW55X_Wifi_BLE_SDK/GD32VW55x_RELEASE_V1.0.2/MSDK/cloud/alicloud/src/protocol/alcs\alcs_adapter.c **** 
 1672              		.loc 1 520 33 is_stmt 0
 1673 0120 23223401 		sw	s3,4(s0)
 522:C:/Users/stapi/OneDrive/Desktop/GD32VW553/V1_MQTT_OK/GD32VW55X_Wifi_BLE_SDK/GD32VW55x_RELEASE_V1.0.2/MSDK/cloud/alicloud/src/protocol/alcs\alcs_adapter.c **** }
 1674              		.loc 1 522 5 is_stmt 1
 1675              	.L76:
 493:C:/Users/stapi/OneDrive/Desktop/GD32VW553/V1_MQTT_OK/GD32VW55X_Wifi_BLE_SDK/GD32VW55x_RELEASE_V1.0.2/MSDK/cloud/alicloud/src/protocol/alcs\alcs_adapter.c ****     }
 1676              		.loc 1 493 16 is_stmt 0
 1677 0124 0145     		li	a0,0
 1678 0126 49BF     		j	.L71
 1679              		.cfi_endproc
 1680              	.LFE32:
 1682              		.section	.rodata.iotx_alcs_destroy.str1.4,"aMS",@progbits,1
 1683              		.align	2
 1684              	.LC22:
 1685 0000 7068616E 		.string	"phandle"
 1685      646C6500 
 1686              		.align	2
 1687              	.LC23:
 1688 0008 2A706861 		.string	"*phandle"
 1688      6E646C65 
 1688      00
 1689              		.section	.text.iotx_alcs_destroy,"ax",@progbits
 1690              		.align	1
 1691              		.globl	iotx_alcs_destroy
 1693              	iotx_alcs_destroy:
 1694              	.LFB33:
 524:C:/Users/stapi/OneDrive/Desktop/GD32VW553/V1_MQTT_OK/GD32VW55X_Wifi_BLE_SDK/GD32VW55x_RELEASE_V1.0.2/MSDK/cloud/alicloud/src/protocol/alcs\alcs_adapter.c **** 
 525:C:/Users/stapi/OneDrive/Desktop/GD32VW553/V1_MQTT_OK/GD32VW55X_Wifi_BLE_SDK/GD32VW55x_RELEASE_V1.0.2/MSDK/cloud/alicloud/src/protocol/alcs\alcs_adapter.c **** int iotx_alcs_destroy(void **phandle)
 526:C:/Users/stapi/OneDrive/Desktop/GD32VW553/V1_MQTT_OK/GD32VW55X_Wifi_BLE_SDK/GD32VW55x_RELEASE_V1.0.2/MSDK/cloud/alicloud/src/protocol/alcs\alcs_adapter.c **** {
 1695              		.loc 1 526 1 is_stmt 1
 1696              		.cfi_startproc
 1697              	.LVL187:
 1698 0000 17030000 		call	t0,__riscv_save_1
 1698      E7020300 
 1699              		.cfi_offset 8, -8
 1700              		.cfi_offset 1, -4
 1701              		.cfi_def_cfa_offset 16
 527:C:/Users/stapi/OneDrive/Desktop/GD32VW553/V1_MQTT_OK/GD32VW55X_Wifi_BLE_SDK/GD32VW55x_RELEASE_V1.0.2/MSDK/cloud/alicloud/src/protocol/alcs\alcs_adapter.c ****     POINTER_SANITY_CHECK(phandle, NULL_VALUE_ERROR);
 1702              		.loc 1 527 5
 1703              		.loc 1 527 5
 1704 0008 39E1     		bne	a0,zero,.L81
 1705              		.loc 1 527 5 discriminator 1
 1706              		.loc 1 527 5 discriminator 1
 1707 000a 37050000 		lui	a0,%hi(.LC3)
 1708              	.LVL188:
 1709 000e 13050500 		addi	a0,a0,%lo(.LC3)
 1710 0012 97000000 		call	HAL_Printf
 1710      E7800000 
 1711              	.LVL189:
 1712              		.loc 1 527 5 discriminator 1
 1713 001a B7050000 		lui	a1,%hi(.LC22)
 1714 001e 0146     		li	a2,0
 1715 0020 93850500 		addi	a1,a1,%lo(.LC22)
 1716              	.L85:
 528:C:/Users/stapi/OneDrive/Desktop/GD32VW553/V1_MQTT_OK/GD32VW55X_Wifi_BLE_SDK/GD32VW55x_RELEASE_V1.0.2/MSDK/cloud/alicloud/src/protocol/alcs\alcs_adapter.c ****     POINTER_SANITY_CHECK(*phandle, NULL_VALUE_ERROR);
 1717              		.loc 1 528 5 is_stmt 0 discriminator 1
 1718 0024 37050000 		lui	a0,%hi(.LC16)
 1719 0028 13050500 		addi	a0,a0,%lo(.LC16)
 1720 002c 97000000 		call	HAL_Printf
 1720      E7800000 
 1721              	.LVL190:
 1722              		.loc 1 528 5 is_stmt 1 discriminator 1
 1723 0034 37050000 		lui	a0,%hi(.LC2)
 1724 0038 13050500 		addi	a0,a0,%lo(.LC2)
 1725 003c 97000000 		call	HAL_Printf
 1725      E7800000 
 1726              	.LVL191:
 1727              		.loc 1 528 5 discriminator 1
 1728              		.loc 1 528 5 discriminator 1
 1729 0044 7955     		li	a0,-2
 1730              	.L80:
 529:C:/Users/stapi/OneDrive/Desktop/GD32VW553/V1_MQTT_OK/GD32VW55X_Wifi_BLE_SDK/GD32VW55x_RELEASE_V1.0.2/MSDK/cloud/alicloud/src/protocol/alcs\alcs_adapter.c **** 
 530:C:/Users/stapi/OneDrive/Desktop/GD32VW553/V1_MQTT_OK/GD32VW55X_Wifi_BLE_SDK/GD32VW55x_RELEASE_V1.0.2/MSDK/cloud/alicloud/src/protocol/alcs\alcs_adapter.c ****     iotx_alcs_adapter_deinit();
 531:C:/Users/stapi/OneDrive/Desktop/GD32VW553/V1_MQTT_OK/GD32VW55X_Wifi_BLE_SDK/GD32VW55x_RELEASE_V1.0.2/MSDK/cloud/alicloud/src/protocol/alcs\alcs_adapter.c **** 
 532:C:/Users/stapi/OneDrive/Desktop/GD32VW553/V1_MQTT_OK/GD32VW55X_Wifi_BLE_SDK/GD32VW55x_RELEASE_V1.0.2/MSDK/cloud/alicloud/src/protocol/alcs\alcs_adapter.c ****     return SUCCESS_RETURN;
 533:C:/Users/stapi/OneDrive/Desktop/GD32VW553/V1_MQTT_OK/GD32VW55X_Wifi_BLE_SDK/GD32VW55x_RELEASE_V1.0.2/MSDK/cloud/alicloud/src/protocol/alcs\alcs_adapter.c **** }
 1731              		.loc 1 533 1 is_stmt 0
 1732 0046 17030000 		tail	__riscv_restore_1
 1732      67000300 
 1733              		.cfi_remember_state
 1734              		.cfi_restore 8
 1735              		.cfi_restore 1
 1736              		.cfi_def_cfa_offset 0
 1737              	.LVL192:
 1738              	.L81:
 1739              		.cfi_restore_state
 528:C:/Users/stapi/OneDrive/Desktop/GD32VW553/V1_MQTT_OK/GD32VW55X_Wifi_BLE_SDK/GD32VW55x_RELEASE_V1.0.2/MSDK/cloud/alicloud/src/protocol/alcs\alcs_adapter.c ****     POINTER_SANITY_CHECK(*phandle, NULL_VALUE_ERROR);
 1740              		.loc 1 528 5 discriminator 2
 1741 004e 1C41     		lw	a5,0(a0)
 1742 0050 2A84     		mv	s0,a0
 527:C:/Users/stapi/OneDrive/Desktop/GD32VW553/V1_MQTT_OK/GD32VW55X_Wifi_BLE_SDK/GD32VW55x_RELEASE_V1.0.2/MSDK/cloud/alicloud/src/protocol/alcs\alcs_adapter.c ****     POINTER_SANITY_CHECK(*phandle, NULL_VALUE_ERROR);
 1743              		.loc 1 527 5 is_stmt 1 discriminator 2
 528:C:/Users/stapi/OneDrive/Desktop/GD32VW553/V1_MQTT_OK/GD32VW55X_Wifi_BLE_SDK/GD32VW55x_RELEASE_V1.0.2/MSDK/cloud/alicloud/src/protocol/alcs\alcs_adapter.c ****     POINTER_SANITY_CHECK(*phandle, NULL_VALUE_ERROR);
 1744              		.loc 1 528 5 discriminator 2
 528:C:/Users/stapi/OneDrive/Desktop/GD32VW553/V1_MQTT_OK/GD32VW55X_Wifi_BLE_SDK/GD32VW55x_RELEASE_V1.0.2/MSDK/cloud/alicloud/src/protocol/alcs\alcs_adapter.c ****     POINTER_SANITY_CHECK(*phandle, NULL_VALUE_ERROR);
 1745              		.loc 1 528 5 discriminator 2
 1746 0052 99EF     		bne	a5,zero,.L83
 1747              	.LVL193:
 528:C:/Users/stapi/OneDrive/Desktop/GD32VW553/V1_MQTT_OK/GD32VW55X_Wifi_BLE_SDK/GD32VW55x_RELEASE_V1.0.2/MSDK/cloud/alicloud/src/protocol/alcs\alcs_adapter.c ****     POINTER_SANITY_CHECK(*phandle, NULL_VALUE_ERROR);
 1748              		.loc 1 528 5 discriminator 1
 528:C:/Users/stapi/OneDrive/Desktop/GD32VW553/V1_MQTT_OK/GD32VW55X_Wifi_BLE_SDK/GD32VW55x_RELEASE_V1.0.2/MSDK/cloud/alicloud/src/protocol/alcs\alcs_adapter.c ****     POINTER_SANITY_CHECK(*phandle, NULL_VALUE_ERROR);
 1749              		.loc 1 528 5 discriminator 1
 1750 0054 37050000 		lui	a0,%hi(.LC3)
 1751 0058 13050500 		addi	a0,a0,%lo(.LC3)
 1752 005c 97000000 		call	HAL_Printf
 1752      E7800000 
 1753              	.LVL194:
 528:C:/Users/stapi/OneDrive/Desktop/GD32VW553/V1_MQTT_OK/GD32VW55X_Wifi_BLE_SDK/GD32VW55x_RELEASE_V1.0.2/MSDK/cloud/alicloud/src/protocol/alcs\alcs_adapter.c ****     POINTER_SANITY_CHECK(*phandle, NULL_VALUE_ERROR);
 1754              		.loc 1 528 5 discriminator 1
 1755 0064 B7050000 		lui	a1,%hi(.LC23)
 1756 0068 1040     		lw	a2,0(s0)
 1757 006a 93850500 		addi	a1,a1,%lo(.LC23)
 1758 006e 5DBF     		j	.L85
 1759              	.L83:
 528:C:/Users/stapi/OneDrive/Desktop/GD32VW553/V1_MQTT_OK/GD32VW55X_Wifi_BLE_SDK/GD32VW55x_RELEASE_V1.0.2/MSDK/cloud/alicloud/src/protocol/alcs\alcs_adapter.c ****     POINTER_SANITY_CHECK(*phandle, NULL_VALUE_ERROR);
 1760              		.loc 1 528 5 discriminator 2
 530:C:/Users/stapi/OneDrive/Desktop/GD32VW553/V1_MQTT_OK/GD32VW55X_Wifi_BLE_SDK/GD32VW55x_RELEASE_V1.0.2/MSDK/cloud/alicloud/src/protocol/alcs\alcs_adapter.c **** 
 1761              		.loc 1 530 5 discriminator 2
 1762 0070 97000000 		call	iotx_alcs_adapter_deinit
 1762      E7800000 
 1763              	.LVL195:
 532:C:/Users/stapi/OneDrive/Desktop/GD32VW553/V1_MQTT_OK/GD32VW55X_Wifi_BLE_SDK/GD32VW55x_RELEASE_V1.0.2/MSDK/cloud/alicloud/src/protocol/alcs\alcs_adapter.c **** }
 1764              		.loc 1 532 5 discriminator 2
 532:C:/Users/stapi/OneDrive/Desktop/GD32VW553/V1_MQTT_OK/GD32VW55X_Wifi_BLE_SDK/GD32VW55x_RELEASE_V1.0.2/MSDK/cloud/alicloud/src/protocol/alcs\alcs_adapter.c **** }
 1765              		.loc 1 532 12 is_stmt 0 discriminator 2
 1766 0078 0145     		li	a0,0
 1767 007a F1B7     		j	.L80
 1768              		.cfi_endproc
 1769              	.LFE33:
 1771              		.section	.rodata.iotx_alcs_yield.str1.4,"aMS",@progbits,1
 1772              		.align	2
 1773              	.LC24:
 1774 0000 61646170 		.string	"adapter"
 1774      74657200 
 1775              		.align	2
 1776              	.LC25:
 1777 0008 61646170 		.string	"adapter->coap_ctx"
 1777      7465722D 
 1777      3E636F61 
 1777      705F6374 
 1777      7800
 1778              		.section	.text.iotx_alcs_yield,"ax",@progbits
 1779              		.align	1
 1780              		.globl	iotx_alcs_yield
 1782              	iotx_alcs_yield:
 1783              	.LFB35:
 534:C:/Users/stapi/OneDrive/Desktop/GD32VW553/V1_MQTT_OK/GD32VW55X_Wifi_BLE_SDK/GD32VW55x_RELEASE_V1.0.2/MSDK/cloud/alicloud/src/protocol/alcs\alcs_adapter.c **** 
 535:C:/Users/stapi/OneDrive/Desktop/GD32VW553/V1_MQTT_OK/GD32VW55X_Wifi_BLE_SDK/GD32VW55x_RELEASE_V1.0.2/MSDK/cloud/alicloud/src/protocol/alcs\alcs_adapter.c **** static void alcs_heartbeat(void *handle)
 536:C:/Users/stapi/OneDrive/Desktop/GD32VW553/V1_MQTT_OK/GD32VW55X_Wifi_BLE_SDK/GD32VW55x_RELEASE_V1.0.2/MSDK/cloud/alicloud/src/protocol/alcs\alcs_adapter.c **** {
 537:C:/Users/stapi/OneDrive/Desktop/GD32VW553/V1_MQTT_OK/GD32VW55X_Wifi_BLE_SDK/GD32VW55x_RELEASE_V1.0.2/MSDK/cloud/alicloud/src/protocol/alcs\alcs_adapter.c ****     iotx_alcs_adapter_t *adapter = (iotx_alcs_adapter_t *)handle;
 538:C:/Users/stapi/OneDrive/Desktop/GD32VW553/V1_MQTT_OK/GD32VW55X_Wifi_BLE_SDK/GD32VW55x_RELEASE_V1.0.2/MSDK/cloud/alicloud/src/protocol/alcs\alcs_adapter.c **** 
 539:C:/Users/stapi/OneDrive/Desktop/GD32VW553/V1_MQTT_OK/GD32VW55X_Wifi_BLE_SDK/GD32VW55x_RELEASE_V1.0.2/MSDK/cloud/alicloud/src/protocol/alcs\alcs_adapter.c ****     if (adapter->role & IOTX_ALCS_ROLE_SERVER && adapter->alcs_server_auth_timer_func != NULL) {
 540:C:/Users/stapi/OneDrive/Desktop/GD32VW553/V1_MQTT_OK/GD32VW55X_Wifi_BLE_SDK/GD32VW55x_RELEASE_V1.0.2/MSDK/cloud/alicloud/src/protocol/alcs\alcs_adapter.c ****         adapter->alcs_server_auth_timer_func(adapter->coap_ctx);
 541:C:/Users/stapi/OneDrive/Desktop/GD32VW553/V1_MQTT_OK/GD32VW55X_Wifi_BLE_SDK/GD32VW55x_RELEASE_V1.0.2/MSDK/cloud/alicloud/src/protocol/alcs\alcs_adapter.c ****     }
 542:C:/Users/stapi/OneDrive/Desktop/GD32VW553/V1_MQTT_OK/GD32VW55X_Wifi_BLE_SDK/GD32VW55x_RELEASE_V1.0.2/MSDK/cloud/alicloud/src/protocol/alcs\alcs_adapter.c **** 
 543:C:/Users/stapi/OneDrive/Desktop/GD32VW553/V1_MQTT_OK/GD32VW55X_Wifi_BLE_SDK/GD32VW55x_RELEASE_V1.0.2/MSDK/cloud/alicloud/src/protocol/alcs\alcs_adapter.c ****     if (adapter->role & IOTX_ALCS_ROLE_CLIENT && adapter->alcs_client_auth_timer_func != NULL) {
 544:C:/Users/stapi/OneDrive/Desktop/GD32VW553/V1_MQTT_OK/GD32VW55X_Wifi_BLE_SDK/GD32VW55x_RELEASE_V1.0.2/MSDK/cloud/alicloud/src/protocol/alcs\alcs_adapter.c ****         adapter->alcs_client_auth_timer_func(adapter->coap_ctx);
 545:C:/Users/stapi/OneDrive/Desktop/GD32VW553/V1_MQTT_OK/GD32VW55X_Wifi_BLE_SDK/GD32VW55x_RELEASE_V1.0.2/MSDK/cloud/alicloud/src/protocol/alcs\alcs_adapter.c ****     }
 546:C:/Users/stapi/OneDrive/Desktop/GD32VW553/V1_MQTT_OK/GD32VW55X_Wifi_BLE_SDK/GD32VW55x_RELEASE_V1.0.2/MSDK/cloud/alicloud/src/protocol/alcs\alcs_adapter.c **** }
 547:C:/Users/stapi/OneDrive/Desktop/GD32VW553/V1_MQTT_OK/GD32VW55X_Wifi_BLE_SDK/GD32VW55x_RELEASE_V1.0.2/MSDK/cloud/alicloud/src/protocol/alcs\alcs_adapter.c **** int iotx_alcs_yield(void *handle)
 548:C:/Users/stapi/OneDrive/Desktop/GD32VW553/V1_MQTT_OK/GD32VW55X_Wifi_BLE_SDK/GD32VW55x_RELEASE_V1.0.2/MSDK/cloud/alicloud/src/protocol/alcs\alcs_adapter.c **** {
 1784              		.loc 1 548 1 is_stmt 1
 1785              		.cfi_startproc
 1786              	.LVL196:
 1787 0000 17030000 		call	t0,__riscv_save_1
 1787      E7020300 
 1788              		.cfi_offset 8, -8
 1789              		.cfi_offset 1, -4
 1790              		.cfi_def_cfa_offset 16
 549:C:/Users/stapi/OneDrive/Desktop/GD32VW553/V1_MQTT_OK/GD32VW55X_Wifi_BLE_SDK/GD32VW55x_RELEASE_V1.0.2/MSDK/cloud/alicloud/src/protocol/alcs\alcs_adapter.c ****     int res = 0;
 1791              		.loc 1 549 5
 1792              	.LVL197:
 550:C:/Users/stapi/OneDrive/Desktop/GD32VW553/V1_MQTT_OK/GD32VW55X_Wifi_BLE_SDK/GD32VW55x_RELEASE_V1.0.2/MSDK/cloud/alicloud/src/protocol/alcs\alcs_adapter.c ****     iotx_alcs_adapter_t *adapter = (iotx_alcs_adapter_t *)handle;
 1793              		.loc 1 550 5
 551:C:/Users/stapi/OneDrive/Desktop/GD32VW553/V1_MQTT_OK/GD32VW55X_Wifi_BLE_SDK/GD32VW55x_RELEASE_V1.0.2/MSDK/cloud/alicloud/src/protocol/alcs\alcs_adapter.c **** 
 552:C:/Users/stapi/OneDrive/Desktop/GD32VW553/V1_MQTT_OK/GD32VW55X_Wifi_BLE_SDK/GD32VW55x_RELEASE_V1.0.2/MSDK/cloud/alicloud/src/protocol/alcs\alcs_adapter.c ****     POINTER_SANITY_CHECK(adapter, NULL_VALUE_ERROR);
 1794              		.loc 1 552 5
 1795              		.loc 1 552 5
 1796 0008 39E1     		bne	a0,zero,.L87
 1797              		.loc 1 552 5 discriminator 1
 1798              		.loc 1 552 5 discriminator 1
 1799 000a 37050000 		lui	a0,%hi(.LC3)
 1800              	.LVL198:
 1801 000e 13050500 		addi	a0,a0,%lo(.LC3)
 1802 0012 97000000 		call	HAL_Printf
 1802      E7800000 
 1803              	.LVL199:
 1804              		.loc 1 552 5 discriminator 1
 1805 001a B7050000 		lui	a1,%hi(.LC24)
 1806 001e 0146     		li	a2,0
 1807 0020 93850500 		addi	a1,a1,%lo(.LC24)
 1808              	.L105:
 553:C:/Users/stapi/OneDrive/Desktop/GD32VW553/V1_MQTT_OK/GD32VW55X_Wifi_BLE_SDK/GD32VW55x_RELEASE_V1.0.2/MSDK/cloud/alicloud/src/protocol/alcs\alcs_adapter.c ****     POINTER_SANITY_CHECK(adapter->coap_ctx, NULL_VALUE_ERROR);
 1809              		.loc 1 553 5 is_stmt 0 discriminator 1
 1810 0024 37050000 		lui	a0,%hi(.LC16)
 1811 0028 13050500 		addi	a0,a0,%lo(.LC16)
 1812 002c 97000000 		call	HAL_Printf
 1812      E7800000 
 1813              	.LVL200:
 1814              		.loc 1 553 5 is_stmt 1 discriminator 1
 1815 0034 37050000 		lui	a0,%hi(.LC2)
 1816 0038 13050500 		addi	a0,a0,%lo(.LC2)
 1817 003c 97000000 		call	HAL_Printf
 1817      E7800000 
 1818              	.LVL201:
 1819              		.loc 1 553 5 discriminator 1
 1820              		.loc 1 553 5 discriminator 1
 1821 0044 7955     		li	a0,-2
 1822              	.L86:
 554:C:/Users/stapi/OneDrive/Desktop/GD32VW553/V1_MQTT_OK/GD32VW55X_Wifi_BLE_SDK/GD32VW55x_RELEASE_V1.0.2/MSDK/cloud/alicloud/src/protocol/alcs\alcs_adapter.c **** 
 555:C:/Users/stapi/OneDrive/Desktop/GD32VW553/V1_MQTT_OK/GD32VW55X_Wifi_BLE_SDK/GD32VW55x_RELEASE_V1.0.2/MSDK/cloud/alicloud/src/protocol/alcs\alcs_adapter.c **** #ifndef DEV_BIND_ENABLED
 556:C:/Users/stapi/OneDrive/Desktop/GD32VW553/V1_MQTT_OK/GD32VW55X_Wifi_BLE_SDK/GD32VW55x_RELEASE_V1.0.2/MSDK/cloud/alicloud/src/protocol/alcs\alcs_adapter.c ****     res = (CoAPMessage_cycle(adapter->coap_ctx) != COAP_SUCCESS) ? (FAIL_RETURN) : (SUCCESS_RETURN)
 557:C:/Users/stapi/OneDrive/Desktop/GD32VW553/V1_MQTT_OK/GD32VW55X_Wifi_BLE_SDK/GD32VW55x_RELEASE_V1.0.2/MSDK/cloud/alicloud/src/protocol/alcs\alcs_adapter.c ****     CoAPServer_thread_leave();
 558:C:/Users/stapi/OneDrive/Desktop/GD32VW553/V1_MQTT_OK/GD32VW55X_Wifi_BLE_SDK/GD32VW55x_RELEASE_V1.0.2/MSDK/cloud/alicloud/src/protocol/alcs\alcs_adapter.c **** #endif
 559:C:/Users/stapi/OneDrive/Desktop/GD32VW553/V1_MQTT_OK/GD32VW55X_Wifi_BLE_SDK/GD32VW55x_RELEASE_V1.0.2/MSDK/cloud/alicloud/src/protocol/alcs\alcs_adapter.c ****     alcs_heartbeat(handle);
 560:C:/Users/stapi/OneDrive/Desktop/GD32VW553/V1_MQTT_OK/GD32VW55X_Wifi_BLE_SDK/GD32VW55x_RELEASE_V1.0.2/MSDK/cloud/alicloud/src/protocol/alcs\alcs_adapter.c **** 
 561:C:/Users/stapi/OneDrive/Desktop/GD32VW553/V1_MQTT_OK/GD32VW55X_Wifi_BLE_SDK/GD32VW55x_RELEASE_V1.0.2/MSDK/cloud/alicloud/src/protocol/alcs\alcs_adapter.c **** #ifdef DEVICE_MODEL_GATEWAY
 562:C:/Users/stapi/OneDrive/Desktop/GD32VW553/V1_MQTT_OK/GD32VW55X_Wifi_BLE_SDK/GD32VW55x_RELEASE_V1.0.2/MSDK/cloud/alicloud/src/protocol/alcs\alcs_adapter.c ****     iotx_alcs_subdev_stage_check();
 563:C:/Users/stapi/OneDrive/Desktop/GD32VW553/V1_MQTT_OK/GD32VW55X_Wifi_BLE_SDK/GD32VW55x_RELEASE_V1.0.2/MSDK/cloud/alicloud/src/protocol/alcs\alcs_adapter.c **** #endif
 564:C:/Users/stapi/OneDrive/Desktop/GD32VW553/V1_MQTT_OK/GD32VW55X_Wifi_BLE_SDK/GD32VW55x_RELEASE_V1.0.2/MSDK/cloud/alicloud/src/protocol/alcs\alcs_adapter.c **** 
 565:C:/Users/stapi/OneDrive/Desktop/GD32VW553/V1_MQTT_OK/GD32VW55X_Wifi_BLE_SDK/GD32VW55x_RELEASE_V1.0.2/MSDK/cloud/alicloud/src/protocol/alcs\alcs_adapter.c ****     iotx_alcs_get_prefixkey();
 566:C:/Users/stapi/OneDrive/Desktop/GD32VW553/V1_MQTT_OK/GD32VW55X_Wifi_BLE_SDK/GD32VW55x_RELEASE_V1.0.2/MSDK/cloud/alicloud/src/protocol/alcs\alcs_adapter.c ****     return res;
 567:C:/Users/stapi/OneDrive/Desktop/GD32VW553/V1_MQTT_OK/GD32VW55X_Wifi_BLE_SDK/GD32VW55x_RELEASE_V1.0.2/MSDK/cloud/alicloud/src/protocol/alcs\alcs_adapter.c **** }
 1823              		.loc 1 567 1 is_stmt 0
 1824 0046 17030000 		tail	__riscv_restore_1
 1824      67000300 
 1825              		.cfi_remember_state
 1826              		.cfi_restore 8
 1827              		.cfi_restore 1
 1828              		.cfi_def_cfa_offset 0
 1829              	.LVL202:
 1830              	.L87:
 1831              		.cfi_restore_state
 1832 004e 2A84     		mv	s0,a0
 552:C:/Users/stapi/OneDrive/Desktop/GD32VW553/V1_MQTT_OK/GD32VW55X_Wifi_BLE_SDK/GD32VW55x_RELEASE_V1.0.2/MSDK/cloud/alicloud/src/protocol/alcs\alcs_adapter.c ****     POINTER_SANITY_CHECK(adapter->coap_ctx, NULL_VALUE_ERROR);
 1833              		.loc 1 552 5 is_stmt 1 discriminator 2
 553:C:/Users/stapi/OneDrive/Desktop/GD32VW553/V1_MQTT_OK/GD32VW55X_Wifi_BLE_SDK/GD32VW55x_RELEASE_V1.0.2/MSDK/cloud/alicloud/src/protocol/alcs\alcs_adapter.c ****     POINTER_SANITY_CHECK(adapter->coap_ctx, NULL_VALUE_ERROR);
 1834              		.loc 1 553 5 discriminator 2
 553:C:/Users/stapi/OneDrive/Desktop/GD32VW553/V1_MQTT_OK/GD32VW55X_Wifi_BLE_SDK/GD32VW55x_RELEASE_V1.0.2/MSDK/cloud/alicloud/src/protocol/alcs\alcs_adapter.c ****     POINTER_SANITY_CHECK(adapter->coap_ctx, NULL_VALUE_ERROR);
 1835              		.loc 1 553 5 discriminator 2
 1836 0050 0845     		lw	a0,8(a0)
 1837              	.LVL203:
 1838 0052 19ED     		bne	a0,zero,.L89
 553:C:/Users/stapi/OneDrive/Desktop/GD32VW553/V1_MQTT_OK/GD32VW55X_Wifi_BLE_SDK/GD32VW55x_RELEASE_V1.0.2/MSDK/cloud/alicloud/src/protocol/alcs\alcs_adapter.c ****     POINTER_SANITY_CHECK(adapter->coap_ctx, NULL_VALUE_ERROR);
 1839              		.loc 1 553 5 discriminator 1
 553:C:/Users/stapi/OneDrive/Desktop/GD32VW553/V1_MQTT_OK/GD32VW55X_Wifi_BLE_SDK/GD32VW55x_RELEASE_V1.0.2/MSDK/cloud/alicloud/src/protocol/alcs\alcs_adapter.c ****     POINTER_SANITY_CHECK(adapter->coap_ctx, NULL_VALUE_ERROR);
 1840              		.loc 1 553 5 discriminator 1
 1841 0054 37050000 		lui	a0,%hi(.LC3)
 1842 0058 13050500 		addi	a0,a0,%lo(.LC3)
 1843 005c 97000000 		call	HAL_Printf
 1843      E7800000 
 1844              	.LVL204:
 553:C:/Users/stapi/OneDrive/Desktop/GD32VW553/V1_MQTT_OK/GD32VW55X_Wifi_BLE_SDK/GD32VW55x_RELEASE_V1.0.2/MSDK/cloud/alicloud/src/protocol/alcs\alcs_adapter.c ****     POINTER_SANITY_CHECK(adapter->coap_ctx, NULL_VALUE_ERROR);
 1845              		.loc 1 553 5 discriminator 1
 1846 0064 B7050000 		lui	a1,%hi(.LC25)
 1847 0068 1044     		lw	a2,8(s0)
 1848 006a 93850500 		addi	a1,a1,%lo(.LC25)
 1849 006e 5DBF     		j	.L105
 1850              	.L89:
 553:C:/Users/stapi/OneDrive/Desktop/GD32VW553/V1_MQTT_OK/GD32VW55X_Wifi_BLE_SDK/GD32VW55x_RELEASE_V1.0.2/MSDK/cloud/alicloud/src/protocol/alcs\alcs_adapter.c ****     POINTER_SANITY_CHECK(adapter->coap_ctx, NULL_VALUE_ERROR);
 1851              		.loc 1 553 5
 559:C:/Users/stapi/OneDrive/Desktop/GD32VW553/V1_MQTT_OK/GD32VW55X_Wifi_BLE_SDK/GD32VW55x_RELEASE_V1.0.2/MSDK/cloud/alicloud/src/protocol/alcs\alcs_adapter.c **** 
 1852              		.loc 1 559 5
 1853              	.LVL205:
 1854              	.LBB46:
 1855              	.LBB47:
 537:C:/Users/stapi/OneDrive/Desktop/GD32VW553/V1_MQTT_OK/GD32VW55X_Wifi_BLE_SDK/GD32VW55x_RELEASE_V1.0.2/MSDK/cloud/alicloud/src/protocol/alcs\alcs_adapter.c **** 
 1856              		.loc 1 537 5
 539:C:/Users/stapi/OneDrive/Desktop/GD32VW553/V1_MQTT_OK/GD32VW55X_Wifi_BLE_SDK/GD32VW55x_RELEASE_V1.0.2/MSDK/cloud/alicloud/src/protocol/alcs\alcs_adapter.c ****         adapter->alcs_server_auth_timer_func(adapter->coap_ctx);
 1857              		.loc 1 539 5
 539:C:/Users/stapi/OneDrive/Desktop/GD32VW553/V1_MQTT_OK/GD32VW55X_Wifi_BLE_SDK/GD32VW55x_RELEASE_V1.0.2/MSDK/cloud/alicloud/src/protocol/alcs\alcs_adapter.c ****         adapter->alcs_server_auth_timer_func(adapter->coap_ctx);
 1858              		.loc 1 539 8 is_stmt 0
 1859 0070 8347C400 		lbu	a5,12(s0)
 1860 0074 898B     		andi	a5,a5,2
 1861 0076 81C7     		beq	a5,zero,.L90
 539:C:/Users/stapi/OneDrive/Desktop/GD32VW553/V1_MQTT_OK/GD32VW55X_Wifi_BLE_SDK/GD32VW55x_RELEASE_V1.0.2/MSDK/cloud/alicloud/src/protocol/alcs\alcs_adapter.c ****         adapter->alcs_server_auth_timer_func(adapter->coap_ctx);
 1862              		.loc 1 539 57
 1863 0078 5C48     		lw	a5,20(s0)
 539:C:/Users/stapi/OneDrive/Desktop/GD32VW553/V1_MQTT_OK/GD32VW55X_Wifi_BLE_SDK/GD32VW55x_RELEASE_V1.0.2/MSDK/cloud/alicloud/src/protocol/alcs\alcs_adapter.c ****         adapter->alcs_server_auth_timer_func(adapter->coap_ctx);
 1864              		.loc 1 539 47
 1865 007a 91C3     		beq	a5,zero,.L90
 540:C:/Users/stapi/OneDrive/Desktop/GD32VW553/V1_MQTT_OK/GD32VW55X_Wifi_BLE_SDK/GD32VW55x_RELEASE_V1.0.2/MSDK/cloud/alicloud/src/protocol/alcs\alcs_adapter.c ****     }
 1866              		.loc 1 540 9 is_stmt 1
 1867 007c 8297     		jalr	a5
 1868              	.LVL206:
 1869              	.L90:
 543:C:/Users/stapi/OneDrive/Desktop/GD32VW553/V1_MQTT_OK/GD32VW55X_Wifi_BLE_SDK/GD32VW55x_RELEASE_V1.0.2/MSDK/cloud/alicloud/src/protocol/alcs\alcs_adapter.c ****         adapter->alcs_client_auth_timer_func(adapter->coap_ctx);
 1870              		.loc 1 543 5
 543:C:/Users/stapi/OneDrive/Desktop/GD32VW553/V1_MQTT_OK/GD32VW55X_Wifi_BLE_SDK/GD32VW55x_RELEASE_V1.0.2/MSDK/cloud/alicloud/src/protocol/alcs\alcs_adapter.c ****         adapter->alcs_client_auth_timer_func(adapter->coap_ctx);
 1871              		.loc 1 543 8 is_stmt 0
 1872 007e 8347C400 		lbu	a5,12(s0)
 1873 0082 858B     		andi	a5,a5,1
 1874 0084 89C7     		beq	a5,zero,.L91
 543:C:/Users/stapi/OneDrive/Desktop/GD32VW553/V1_MQTT_OK/GD32VW55X_Wifi_BLE_SDK/GD32VW55x_RELEASE_V1.0.2/MSDK/cloud/alicloud/src/protocol/alcs\alcs_adapter.c ****         adapter->alcs_client_auth_timer_func(adapter->coap_ctx);
 1875              		.loc 1 543 57
 1876 0086 1C48     		lw	a5,16(s0)
 543:C:/Users/stapi/OneDrive/Desktop/GD32VW553/V1_MQTT_OK/GD32VW55X_Wifi_BLE_SDK/GD32VW55x_RELEASE_V1.0.2/MSDK/cloud/alicloud/src/protocol/alcs\alcs_adapter.c ****         adapter->alcs_client_auth_timer_func(adapter->coap_ctx);
 1877              		.loc 1 543 47
 1878 0088 99C3     		beq	a5,zero,.L91
 544:C:/Users/stapi/OneDrive/Desktop/GD32VW553/V1_MQTT_OK/GD32VW55X_Wifi_BLE_SDK/GD32VW55x_RELEASE_V1.0.2/MSDK/cloud/alicloud/src/protocol/alcs\alcs_adapter.c ****     }
 1879              		.loc 1 544 9 is_stmt 1
 1880 008a 0844     		lw	a0,8(s0)
 1881 008c 8297     		jalr	a5
 1882              	.LVL207:
 1883              	.L91:
 1884              	.LBE47:
 1885              	.LBE46:
 565:C:/Users/stapi/OneDrive/Desktop/GD32VW553/V1_MQTT_OK/GD32VW55X_Wifi_BLE_SDK/GD32VW55x_RELEASE_V1.0.2/MSDK/cloud/alicloud/src/protocol/alcs\alcs_adapter.c ****     return res;
 1886              		.loc 1 565 5
 1887 008e 97000000 		call	iotx_alcs_get_prefixkey
 1887      E7800000 
 1888              	.LVL208:
 566:C:/Users/stapi/OneDrive/Desktop/GD32VW553/V1_MQTT_OK/GD32VW55X_Wifi_BLE_SDK/GD32VW55x_RELEASE_V1.0.2/MSDK/cloud/alicloud/src/protocol/alcs\alcs_adapter.c **** }
 1889              		.loc 1 566 5
 566:C:/Users/stapi/OneDrive/Desktop/GD32VW553/V1_MQTT_OK/GD32VW55X_Wifi_BLE_SDK/GD32VW55x_RELEASE_V1.0.2/MSDK/cloud/alicloud/src/protocol/alcs\alcs_adapter.c **** }
 1890              		.loc 1 566 12 is_stmt 0
 1891 0096 0145     		li	a0,0
 1892 0098 7DB7     		j	.L86
 1893              		.cfi_endproc
 1894              	.LFE35:
 1896              		.section	.text.iotx_alcs_send,"ax",@progbits
 1897              		.align	1
 1898              		.globl	iotx_alcs_send
 1900              	iotx_alcs_send:
 1901              	.LFB36:
 568:C:/Users/stapi/OneDrive/Desktop/GD32VW553/V1_MQTT_OK/GD32VW55X_Wifi_BLE_SDK/GD32VW55x_RELEASE_V1.0.2/MSDK/cloud/alicloud/src/protocol/alcs\alcs_adapter.c **** 
 569:C:/Users/stapi/OneDrive/Desktop/GD32VW553/V1_MQTT_OK/GD32VW55X_Wifi_BLE_SDK/GD32VW55x_RELEASE_V1.0.2/MSDK/cloud/alicloud/src/protocol/alcs\alcs_adapter.c **** int iotx_alcs_send(void *handle, iotx_alcs_msg_t *msg)
 570:C:/Users/stapi/OneDrive/Desktop/GD32VW553/V1_MQTT_OK/GD32VW55X_Wifi_BLE_SDK/GD32VW55x_RELEASE_V1.0.2/MSDK/cloud/alicloud/src/protocol/alcs\alcs_adapter.c **** {
 1902              		.loc 1 570 1 is_stmt 1
 1903              		.cfi_startproc
 1904              	.LVL209:
 571:C:/Users/stapi/OneDrive/Desktop/GD32VW553/V1_MQTT_OK/GD32VW55X_Wifi_BLE_SDK/GD32VW55x_RELEASE_V1.0.2/MSDK/cloud/alicloud/src/protocol/alcs\alcs_adapter.c **** #ifdef ALCS_CLIENT_ENABLED
 572:C:/Users/stapi/OneDrive/Desktop/GD32VW553/V1_MQTT_OK/GD32VW55X_Wifi_BLE_SDK/GD32VW55x_RELEASE_V1.0.2/MSDK/cloud/alicloud/src/protocol/alcs\alcs_adapter.c ****     int res = 0;
 573:C:/Users/stapi/OneDrive/Desktop/GD32VW553/V1_MQTT_OK/GD32VW55X_Wifi_BLE_SDK/GD32VW55x_RELEASE_V1.0.2/MSDK/cloud/alicloud/src/protocol/alcs\alcs_adapter.c ****     iotx_alcs_adapter_t *adapter = (iotx_alcs_adapter_t *)handle;
 574:C:/Users/stapi/OneDrive/Desktop/GD32VW553/V1_MQTT_OK/GD32VW55X_Wifi_BLE_SDK/GD32VW55x_RELEASE_V1.0.2/MSDK/cloud/alicloud/src/protocol/alcs\alcs_adapter.c ****     CoAPMessage coap_msg;
 575:C:/Users/stapi/OneDrive/Desktop/GD32VW553/V1_MQTT_OK/GD32VW55X_Wifi_BLE_SDK/GD32VW55x_RELEASE_V1.0.2/MSDK/cloud/alicloud/src/protocol/alcs\alcs_adapter.c ****     CoAPLenString coap_payload;
 576:C:/Users/stapi/OneDrive/Desktop/GD32VW553/V1_MQTT_OK/GD32VW55X_Wifi_BLE_SDK/GD32VW55x_RELEASE_V1.0.2/MSDK/cloud/alicloud/src/protocol/alcs\alcs_adapter.c ****     NetworkAddr network_addr;
 577:C:/Users/stapi/OneDrive/Desktop/GD32VW553/V1_MQTT_OK/GD32VW55X_Wifi_BLE_SDK/GD32VW55x_RELEASE_V1.0.2/MSDK/cloud/alicloud/src/protocol/alcs\alcs_adapter.c **** 
 578:C:/Users/stapi/OneDrive/Desktop/GD32VW553/V1_MQTT_OK/GD32VW55X_Wifi_BLE_SDK/GD32VW55x_RELEASE_V1.0.2/MSDK/cloud/alicloud/src/protocol/alcs\alcs_adapter.c ****     POINTER_SANITY_CHECK(adapter, NULL_VALUE_ERROR);
 579:C:/Users/stapi/OneDrive/Desktop/GD32VW553/V1_MQTT_OK/GD32VW55X_Wifi_BLE_SDK/GD32VW55x_RELEASE_V1.0.2/MSDK/cloud/alicloud/src/protocol/alcs\alcs_adapter.c ****     POINTER_SANITY_CHECK(adapter->coap_ctx, NULL_VALUE_ERROR);
 580:C:/Users/stapi/OneDrive/Desktop/GD32VW553/V1_MQTT_OK/GD32VW55X_Wifi_BLE_SDK/GD32VW55x_RELEASE_V1.0.2/MSDK/cloud/alicloud/src/protocol/alcs\alcs_adapter.c ****     POINTER_SANITY_CHECK(msg, NULL_VALUE_ERROR);
 581:C:/Users/stapi/OneDrive/Desktop/GD32VW553/V1_MQTT_OK/GD32VW55X_Wifi_BLE_SDK/GD32VW55x_RELEASE_V1.0.2/MSDK/cloud/alicloud/src/protocol/alcs\alcs_adapter.c ****     POINTER_SANITY_CHECK(msg->payload, NULL_VALUE_ERROR);
 582:C:/Users/stapi/OneDrive/Desktop/GD32VW553/V1_MQTT_OK/GD32VW55X_Wifi_BLE_SDK/GD32VW55x_RELEASE_V1.0.2/MSDK/cloud/alicloud/src/protocol/alcs\alcs_adapter.c **** 
 583:C:/Users/stapi/OneDrive/Desktop/GD32VW553/V1_MQTT_OK/GD32VW55X_Wifi_BLE_SDK/GD32VW55x_RELEASE_V1.0.2/MSDK/cloud/alicloud/src/protocol/alcs\alcs_adapter.c ****     STRING_PTR_SANITY_CHECK(msg->ip, FAIL_RETURN);
 584:C:/Users/stapi/OneDrive/Desktop/GD32VW553/V1_MQTT_OK/GD32VW55X_Wifi_BLE_SDK/GD32VW55x_RELEASE_V1.0.2/MSDK/cloud/alicloud/src/protocol/alcs\alcs_adapter.c ****     STRING_PTR_SANITY_CHECK(msg->uri, FAIL_RETURN);
 585:C:/Users/stapi/OneDrive/Desktop/GD32VW553/V1_MQTT_OK/GD32VW55X_Wifi_BLE_SDK/GD32VW55x_RELEASE_V1.0.2/MSDK/cloud/alicloud/src/protocol/alcs\alcs_adapter.c **** 
 586:C:/Users/stapi/OneDrive/Desktop/GD32VW553/V1_MQTT_OK/GD32VW55X_Wifi_BLE_SDK/GD32VW55x_RELEASE_V1.0.2/MSDK/cloud/alicloud/src/protocol/alcs\alcs_adapter.c **** 
 587:C:/Users/stapi/OneDrive/Desktop/GD32VW553/V1_MQTT_OK/GD32VW55X_Wifi_BLE_SDK/GD32VW55x_RELEASE_V1.0.2/MSDK/cloud/alicloud/src/protocol/alcs\alcs_adapter.c ****     if (strlen(msg->ip) > NETWORK_ADDR_LEN) {
 588:C:/Users/stapi/OneDrive/Desktop/GD32VW553/V1_MQTT_OK/GD32VW55X_Wifi_BLE_SDK/GD32VW55x_RELEASE_V1.0.2/MSDK/cloud/alicloud/src/protocol/alcs\alcs_adapter.c ****         COAP_ERR("Invalid Ip Address Length");
 589:C:/Users/stapi/OneDrive/Desktop/GD32VW553/V1_MQTT_OK/GD32VW55X_Wifi_BLE_SDK/GD32VW55x_RELEASE_V1.0.2/MSDK/cloud/alicloud/src/protocol/alcs\alcs_adapter.c ****         return FAIL_RETURN;
 590:C:/Users/stapi/OneDrive/Desktop/GD32VW553/V1_MQTT_OK/GD32VW55X_Wifi_BLE_SDK/GD32VW55x_RELEASE_V1.0.2/MSDK/cloud/alicloud/src/protocol/alcs\alcs_adapter.c ****     }
 591:C:/Users/stapi/OneDrive/Desktop/GD32VW553/V1_MQTT_OK/GD32VW55X_Wifi_BLE_SDK/GD32VW55x_RELEASE_V1.0.2/MSDK/cloud/alicloud/src/protocol/alcs\alcs_adapter.c **** 
 592:C:/Users/stapi/OneDrive/Desktop/GD32VW553/V1_MQTT_OK/GD32VW55X_Wifi_BLE_SDK/GD32VW55x_RELEASE_V1.0.2/MSDK/cloud/alicloud/src/protocol/alcs\alcs_adapter.c ****     memset(&coap_msg, 0, sizeof(CoAPMessage));
 593:C:/Users/stapi/OneDrive/Desktop/GD32VW553/V1_MQTT_OK/GD32VW55X_Wifi_BLE_SDK/GD32VW55x_RELEASE_V1.0.2/MSDK/cloud/alicloud/src/protocol/alcs\alcs_adapter.c ****     memset(&coap_payload, 0, sizeof(CoAPLenString));
 594:C:/Users/stapi/OneDrive/Desktop/GD32VW553/V1_MQTT_OK/GD32VW55X_Wifi_BLE_SDK/GD32VW55x_RELEASE_V1.0.2/MSDK/cloud/alicloud/src/protocol/alcs\alcs_adapter.c **** 
 595:C:/Users/stapi/OneDrive/Desktop/GD32VW553/V1_MQTT_OK/GD32VW55X_Wifi_BLE_SDK/GD32VW55x_RELEASE_V1.0.2/MSDK/cloud/alicloud/src/protocol/alcs\alcs_adapter.c ****     coap_payload.len = msg->payload_len;
 596:C:/Users/stapi/OneDrive/Desktop/GD32VW553/V1_MQTT_OK/GD32VW55X_Wifi_BLE_SDK/GD32VW55x_RELEASE_V1.0.2/MSDK/cloud/alicloud/src/protocol/alcs\alcs_adapter.c ****     coap_payload.data = msg->payload;
 597:C:/Users/stapi/OneDrive/Desktop/GD32VW553/V1_MQTT_OK/GD32VW55X_Wifi_BLE_SDK/GD32VW55x_RELEASE_V1.0.2/MSDK/cloud/alicloud/src/protocol/alcs\alcs_adapter.c **** 
 598:C:/Users/stapi/OneDrive/Desktop/GD32VW553/V1_MQTT_OK/GD32VW55X_Wifi_BLE_SDK/GD32VW55x_RELEASE_V1.0.2/MSDK/cloud/alicloud/src/protocol/alcs\alcs_adapter.c ****     alcs_msg_init(adapter->coap_ctx, &coap_msg, msg->msg_code, msg->msg_type, 0, &coap_payload, (vo
 599:C:/Users/stapi/OneDrive/Desktop/GD32VW553/V1_MQTT_OK/GD32VW55X_Wifi_BLE_SDK/GD32VW55x_RELEASE_V1.0.2/MSDK/cloud/alicloud/src/protocol/alcs\alcs_adapter.c **** 
 600:C:/Users/stapi/OneDrive/Desktop/GD32VW553/V1_MQTT_OK/GD32VW55X_Wifi_BLE_SDK/GD32VW55x_RELEASE_V1.0.2/MSDK/cloud/alicloud/src/protocol/alcs\alcs_adapter.c ****     res = alcs_msg_setAddr(&coap_msg, msg->uri, NULL);
 601:C:/Users/stapi/OneDrive/Desktop/GD32VW553/V1_MQTT_OK/GD32VW55X_Wifi_BLE_SDK/GD32VW55x_RELEASE_V1.0.2/MSDK/cloud/alicloud/src/protocol/alcs\alcs_adapter.c ****     if (res != COAP_SUCCESS) {
 602:C:/Users/stapi/OneDrive/Desktop/GD32VW553/V1_MQTT_OK/GD32VW55X_Wifi_BLE_SDK/GD32VW55x_RELEASE_V1.0.2/MSDK/cloud/alicloud/src/protocol/alcs\alcs_adapter.c ****         COAP_ERR("ALCS Message Set URI Failed");
 603:C:/Users/stapi/OneDrive/Desktop/GD32VW553/V1_MQTT_OK/GD32VW55X_Wifi_BLE_SDK/GD32VW55x_RELEASE_V1.0.2/MSDK/cloud/alicloud/src/protocol/alcs\alcs_adapter.c ****         return FAIL_RETURN;
 604:C:/Users/stapi/OneDrive/Desktop/GD32VW553/V1_MQTT_OK/GD32VW55X_Wifi_BLE_SDK/GD32VW55x_RELEASE_V1.0.2/MSDK/cloud/alicloud/src/protocol/alcs\alcs_adapter.c ****     }
 605:C:/Users/stapi/OneDrive/Desktop/GD32VW553/V1_MQTT_OK/GD32VW55X_Wifi_BLE_SDK/GD32VW55x_RELEASE_V1.0.2/MSDK/cloud/alicloud/src/protocol/alcs\alcs_adapter.c **** 
 606:C:/Users/stapi/OneDrive/Desktop/GD32VW553/V1_MQTT_OK/GD32VW55X_Wifi_BLE_SDK/GD32VW55x_RELEASE_V1.0.2/MSDK/cloud/alicloud/src/protocol/alcs\alcs_adapter.c ****     memset(&network_addr, 0, sizeof(NetworkAddr));
 607:C:/Users/stapi/OneDrive/Desktop/GD32VW553/V1_MQTT_OK/GD32VW55X_Wifi_BLE_SDK/GD32VW55x_RELEASE_V1.0.2/MSDK/cloud/alicloud/src/protocol/alcs\alcs_adapter.c ****     memcpy(network_addr.addr, msg->ip, strlen(msg->ip));
 608:C:/Users/stapi/OneDrive/Desktop/GD32VW553/V1_MQTT_OK/GD32VW55X_Wifi_BLE_SDK/GD32VW55x_RELEASE_V1.0.2/MSDK/cloud/alicloud/src/protocol/alcs\alcs_adapter.c ****     network_addr.port = msg->port;
 609:C:/Users/stapi/OneDrive/Desktop/GD32VW553/V1_MQTT_OK/GD32VW55X_Wifi_BLE_SDK/GD32VW55x_RELEASE_V1.0.2/MSDK/cloud/alicloud/src/protocol/alcs\alcs_adapter.c **** 
 610:C:/Users/stapi/OneDrive/Desktop/GD32VW553/V1_MQTT_OK/GD32VW55X_Wifi_BLE_SDK/GD32VW55x_RELEASE_V1.0.2/MSDK/cloud/alicloud/src/protocol/alcs\alcs_adapter.c ****     //Get Product Key And Device Name
 611:C:/Users/stapi/OneDrive/Desktop/GD32VW553/V1_MQTT_OK/GD32VW55X_Wifi_BLE_SDK/GD32VW55x_RELEASE_V1.0.2/MSDK/cloud/alicloud/src/protocol/alcs\alcs_adapter.c ****     AlcsDeviceKey devKey;
 612:C:/Users/stapi/OneDrive/Desktop/GD32VW553/V1_MQTT_OK/GD32VW55X_Wifi_BLE_SDK/GD32VW55x_RELEASE_V1.0.2/MSDK/cloud/alicloud/src/protocol/alcs\alcs_adapter.c ****     char productKey[PRODUCT_KEY_MAXLEN] = {0};
 613:C:/Users/stapi/OneDrive/Desktop/GD32VW553/V1_MQTT_OK/GD32VW55X_Wifi_BLE_SDK/GD32VW55x_RELEASE_V1.0.2/MSDK/cloud/alicloud/src/protocol/alcs\alcs_adapter.c ****     char deviceName[DEVICE_NAME_MAXLEN] = {0};
 614:C:/Users/stapi/OneDrive/Desktop/GD32VW553/V1_MQTT_OK/GD32VW55X_Wifi_BLE_SDK/GD32VW55x_RELEASE_V1.0.2/MSDK/cloud/alicloud/src/protocol/alcs\alcs_adapter.c ****     char *uri_pk = NULL;
 615:C:/Users/stapi/OneDrive/Desktop/GD32VW553/V1_MQTT_OK/GD32VW55X_Wifi_BLE_SDK/GD32VW55x_RELEASE_V1.0.2/MSDK/cloud/alicloud/src/protocol/alcs\alcs_adapter.c ****     char *uri_dn = NULL;
 616:C:/Users/stapi/OneDrive/Desktop/GD32VW553/V1_MQTT_OK/GD32VW55X_Wifi_BLE_SDK/GD32VW55x_RELEASE_V1.0.2/MSDK/cloud/alicloud/src/protocol/alcs\alcs_adapter.c ****     uint16_t uri_pk_len = 0;
 617:C:/Users/stapi/OneDrive/Desktop/GD32VW553/V1_MQTT_OK/GD32VW55X_Wifi_BLE_SDK/GD32VW55x_RELEASE_V1.0.2/MSDK/cloud/alicloud/src/protocol/alcs\alcs_adapter.c ****     uint16_t uri_dn_len = 0;
 618:C:/Users/stapi/OneDrive/Desktop/GD32VW553/V1_MQTT_OK/GD32VW55X_Wifi_BLE_SDK/GD32VW55x_RELEASE_V1.0.2/MSDK/cloud/alicloud/src/protocol/alcs\alcs_adapter.c **** 
 619:C:/Users/stapi/OneDrive/Desktop/GD32VW553/V1_MQTT_OK/GD32VW55X_Wifi_BLE_SDK/GD32VW55x_RELEASE_V1.0.2/MSDK/cloud/alicloud/src/protocol/alcs\alcs_adapter.c ****     memset(&devKey, 0, sizeof(AlcsDeviceKey));
 620:C:/Users/stapi/OneDrive/Desktop/GD32VW553/V1_MQTT_OK/GD32VW55X_Wifi_BLE_SDK/GD32VW55x_RELEASE_V1.0.2/MSDK/cloud/alicloud/src/protocol/alcs\alcs_adapter.c ****     memcpy(&devKey.addr, &network_addr, sizeof(NetworkAddr));
 621:C:/Users/stapi/OneDrive/Desktop/GD32VW553/V1_MQTT_OK/GD32VW55X_Wifi_BLE_SDK/GD32VW55x_RELEASE_V1.0.2/MSDK/cloud/alicloud/src/protocol/alcs\alcs_adapter.c **** 
 622:C:/Users/stapi/OneDrive/Desktop/GD32VW553/V1_MQTT_OK/GD32VW55X_Wifi_BLE_SDK/GD32VW55x_RELEASE_V1.0.2/MSDK/cloud/alicloud/src/protocol/alcs\alcs_adapter.c ****     uri_pk = iotx_alcs_topic_parse_pk(msg->uri, &uri_pk_len);
 623:C:/Users/stapi/OneDrive/Desktop/GD32VW553/V1_MQTT_OK/GD32VW55X_Wifi_BLE_SDK/GD32VW55x_RELEASE_V1.0.2/MSDK/cloud/alicloud/src/protocol/alcs\alcs_adapter.c ****     uri_dn = iotx_alcs_topic_parse_dn(msg->uri, &uri_dn_len);
 624:C:/Users/stapi/OneDrive/Desktop/GD32VW553/V1_MQTT_OK/GD32VW55X_Wifi_BLE_SDK/GD32VW55x_RELEASE_V1.0.2/MSDK/cloud/alicloud/src/protocol/alcs\alcs_adapter.c **** 
 625:C:/Users/stapi/OneDrive/Desktop/GD32VW553/V1_MQTT_OK/GD32VW55X_Wifi_BLE_SDK/GD32VW55x_RELEASE_V1.0.2/MSDK/cloud/alicloud/src/protocol/alcs\alcs_adapter.c ****     if (uri_pk == NULL || uri_pk_len >= PRODUCT_KEY_MAXLEN ||
 626:C:/Users/stapi/OneDrive/Desktop/GD32VW553/V1_MQTT_OK/GD32VW55X_Wifi_BLE_SDK/GD32VW55x_RELEASE_V1.0.2/MSDK/cloud/alicloud/src/protocol/alcs\alcs_adapter.c ****         uri_dn == NULL || uri_dn_len >= DEVICE_NAME_MAXLEN) {
 627:C:/Users/stapi/OneDrive/Desktop/GD32VW553/V1_MQTT_OK/GD32VW55X_Wifi_BLE_SDK/GD32VW55x_RELEASE_V1.0.2/MSDK/cloud/alicloud/src/protocol/alcs\alcs_adapter.c ****         COAP_ERR("Invalid Parameter");
 628:C:/Users/stapi/OneDrive/Desktop/GD32VW553/V1_MQTT_OK/GD32VW55X_Wifi_BLE_SDK/GD32VW55x_RELEASE_V1.0.2/MSDK/cloud/alicloud/src/protocol/alcs\alcs_adapter.c ****         return FAIL_RETURN;
 629:C:/Users/stapi/OneDrive/Desktop/GD32VW553/V1_MQTT_OK/GD32VW55X_Wifi_BLE_SDK/GD32VW55x_RELEASE_V1.0.2/MSDK/cloud/alicloud/src/protocol/alcs\alcs_adapter.c ****     }
 630:C:/Users/stapi/OneDrive/Desktop/GD32VW553/V1_MQTT_OK/GD32VW55X_Wifi_BLE_SDK/GD32VW55x_RELEASE_V1.0.2/MSDK/cloud/alicloud/src/protocol/alcs\alcs_adapter.c ****     memcpy(productKey, uri_pk, uri_pk_len);
 631:C:/Users/stapi/OneDrive/Desktop/GD32VW553/V1_MQTT_OK/GD32VW55X_Wifi_BLE_SDK/GD32VW55x_RELEASE_V1.0.2/MSDK/cloud/alicloud/src/protocol/alcs\alcs_adapter.c ****     memcpy(deviceName, uri_dn, uri_dn_len);
 632:C:/Users/stapi/OneDrive/Desktop/GD32VW553/V1_MQTT_OK/GD32VW55X_Wifi_BLE_SDK/GD32VW55x_RELEASE_V1.0.2/MSDK/cloud/alicloud/src/protocol/alcs\alcs_adapter.c **** 
 633:C:/Users/stapi/OneDrive/Desktop/GD32VW553/V1_MQTT_OK/GD32VW55X_Wifi_BLE_SDK/GD32VW55x_RELEASE_V1.0.2/MSDK/cloud/alicloud/src/protocol/alcs\alcs_adapter.c ****     devKey.pk = productKey;
 634:C:/Users/stapi/OneDrive/Desktop/GD32VW553/V1_MQTT_OK/GD32VW55X_Wifi_BLE_SDK/GD32VW55x_RELEASE_V1.0.2/MSDK/cloud/alicloud/src/protocol/alcs\alcs_adapter.c ****     devKey.dn = deviceName;
 635:C:/Users/stapi/OneDrive/Desktop/GD32VW553/V1_MQTT_OK/GD32VW55X_Wifi_BLE_SDK/GD32VW55x_RELEASE_V1.0.2/MSDK/cloud/alicloud/src/protocol/alcs\alcs_adapter.c **** 
 636:C:/Users/stapi/OneDrive/Desktop/GD32VW553/V1_MQTT_OK/GD32VW55X_Wifi_BLE_SDK/GD32VW55x_RELEASE_V1.0.2/MSDK/cloud/alicloud/src/protocol/alcs\alcs_adapter.c ****     res = alcs_sendmsg_secure(adapter->coap_ctx, &devKey, &coap_msg, 2, iotx_alcs_coap_adapter_send
 637:C:/Users/stapi/OneDrive/Desktop/GD32VW553/V1_MQTT_OK/GD32VW55X_Wifi_BLE_SDK/GD32VW55x_RELEASE_V1.0.2/MSDK/cloud/alicloud/src/protocol/alcs\alcs_adapter.c ****     alcs_msg_deinit(&coap_msg);
 638:C:/Users/stapi/OneDrive/Desktop/GD32VW553/V1_MQTT_OK/GD32VW55X_Wifi_BLE_SDK/GD32VW55x_RELEASE_V1.0.2/MSDK/cloud/alicloud/src/protocol/alcs\alcs_adapter.c **** 
 639:C:/Users/stapi/OneDrive/Desktop/GD32VW553/V1_MQTT_OK/GD32VW55X_Wifi_BLE_SDK/GD32VW55x_RELEASE_V1.0.2/MSDK/cloud/alicloud/src/protocol/alcs\alcs_adapter.c ****     if (res != COAP_SUCCESS) {
 640:C:/Users/stapi/OneDrive/Desktop/GD32VW553/V1_MQTT_OK/GD32VW55X_Wifi_BLE_SDK/GD32VW55x_RELEASE_V1.0.2/MSDK/cloud/alicloud/src/protocol/alcs\alcs_adapter.c ****         COAP_ERR("ALCS Message Send Message Failed");
 641:C:/Users/stapi/OneDrive/Desktop/GD32VW553/V1_MQTT_OK/GD32VW55X_Wifi_BLE_SDK/GD32VW55x_RELEASE_V1.0.2/MSDK/cloud/alicloud/src/protocol/alcs\alcs_adapter.c ****         return FAIL_RETURN;
 642:C:/Users/stapi/OneDrive/Desktop/GD32VW553/V1_MQTT_OK/GD32VW55X_Wifi_BLE_SDK/GD32VW55x_RELEASE_V1.0.2/MSDK/cloud/alicloud/src/protocol/alcs\alcs_adapter.c ****     }
 643:C:/Users/stapi/OneDrive/Desktop/GD32VW553/V1_MQTT_OK/GD32VW55X_Wifi_BLE_SDK/GD32VW55x_RELEASE_V1.0.2/MSDK/cloud/alicloud/src/protocol/alcs\alcs_adapter.c **** 
 644:C:/Users/stapi/OneDrive/Desktop/GD32VW553/V1_MQTT_OK/GD32VW55X_Wifi_BLE_SDK/GD32VW55x_RELEASE_V1.0.2/MSDK/cloud/alicloud/src/protocol/alcs\alcs_adapter.c ****     iotx_alcs_send_msg_t *alcs_send_msg =
 645:C:/Users/stapi/OneDrive/Desktop/GD32VW553/V1_MQTT_OK/GD32VW55X_Wifi_BLE_SDK/GD32VW55x_RELEASE_V1.0.2/MSDK/cloud/alicloud/src/protocol/alcs\alcs_adapter.c ****                 (iotx_alcs_send_msg_t *)ALCS_ADAPTER_malloc(sizeof(iotx_alcs_send_msg_t));
 646:C:/Users/stapi/OneDrive/Desktop/GD32VW553/V1_MQTT_OK/GD32VW55X_Wifi_BLE_SDK/GD32VW55x_RELEASE_V1.0.2/MSDK/cloud/alicloud/src/protocol/alcs\alcs_adapter.c ****     if (alcs_send_msg == NULL) {
 647:C:/Users/stapi/OneDrive/Desktop/GD32VW553/V1_MQTT_OK/GD32VW55X_Wifi_BLE_SDK/GD32VW55x_RELEASE_V1.0.2/MSDK/cloud/alicloud/src/protocol/alcs\alcs_adapter.c ****         COAP_WRN("Not Enough Memory");
 648:C:/Users/stapi/OneDrive/Desktop/GD32VW553/V1_MQTT_OK/GD32VW55X_Wifi_BLE_SDK/GD32VW55x_RELEASE_V1.0.2/MSDK/cloud/alicloud/src/protocol/alcs\alcs_adapter.c ****         return FAIL_RETURN;
 649:C:/Users/stapi/OneDrive/Desktop/GD32VW553/V1_MQTT_OK/GD32VW55X_Wifi_BLE_SDK/GD32VW55x_RELEASE_V1.0.2/MSDK/cloud/alicloud/src/protocol/alcs\alcs_adapter.c ****     }
 650:C:/Users/stapi/OneDrive/Desktop/GD32VW553/V1_MQTT_OK/GD32VW55X_Wifi_BLE_SDK/GD32VW55x_RELEASE_V1.0.2/MSDK/cloud/alicloud/src/protocol/alcs\alcs_adapter.c ****     memset(alcs_send_msg, 0, sizeof(iotx_alcs_send_msg_t));
 651:C:/Users/stapi/OneDrive/Desktop/GD32VW553/V1_MQTT_OK/GD32VW55X_Wifi_BLE_SDK/GD32VW55x_RELEASE_V1.0.2/MSDK/cloud/alicloud/src/protocol/alcs\alcs_adapter.c **** 
 652:C:/Users/stapi/OneDrive/Desktop/GD32VW553/V1_MQTT_OK/GD32VW55X_Wifi_BLE_SDK/GD32VW55x_RELEASE_V1.0.2/MSDK/cloud/alicloud/src/protocol/alcs\alcs_adapter.c ****     alcs_send_msg->token = (uint8_t *)ALCS_ADAPTER_malloc(coap_msg.header.tokenlen + 1);
 653:C:/Users/stapi/OneDrive/Desktop/GD32VW553/V1_MQTT_OK/GD32VW55X_Wifi_BLE_SDK/GD32VW55x_RELEASE_V1.0.2/MSDK/cloud/alicloud/src/protocol/alcs\alcs_adapter.c ****     if (alcs_send_msg->token == NULL) {
 654:C:/Users/stapi/OneDrive/Desktop/GD32VW553/V1_MQTT_OK/GD32VW55X_Wifi_BLE_SDK/GD32VW55x_RELEASE_V1.0.2/MSDK/cloud/alicloud/src/protocol/alcs\alcs_adapter.c ****         LITE_free(alcs_send_msg);
 655:C:/Users/stapi/OneDrive/Desktop/GD32VW553/V1_MQTT_OK/GD32VW55X_Wifi_BLE_SDK/GD32VW55x_RELEASE_V1.0.2/MSDK/cloud/alicloud/src/protocol/alcs\alcs_adapter.c ****         COAP_WRN("Not Enough Memory");
 656:C:/Users/stapi/OneDrive/Desktop/GD32VW553/V1_MQTT_OK/GD32VW55X_Wifi_BLE_SDK/GD32VW55x_RELEASE_V1.0.2/MSDK/cloud/alicloud/src/protocol/alcs\alcs_adapter.c ****         return FAIL_RETURN;
 657:C:/Users/stapi/OneDrive/Desktop/GD32VW553/V1_MQTT_OK/GD32VW55X_Wifi_BLE_SDK/GD32VW55x_RELEASE_V1.0.2/MSDK/cloud/alicloud/src/protocol/alcs\alcs_adapter.c ****     }
 658:C:/Users/stapi/OneDrive/Desktop/GD32VW553/V1_MQTT_OK/GD32VW55X_Wifi_BLE_SDK/GD32VW55x_RELEASE_V1.0.2/MSDK/cloud/alicloud/src/protocol/alcs\alcs_adapter.c ****     alcs_send_msg->token_len = coap_msg.header.tokenlen;
 659:C:/Users/stapi/OneDrive/Desktop/GD32VW553/V1_MQTT_OK/GD32VW55X_Wifi_BLE_SDK/GD32VW55x_RELEASE_V1.0.2/MSDK/cloud/alicloud/src/protocol/alcs\alcs_adapter.c **** 
 660:C:/Users/stapi/OneDrive/Desktop/GD32VW553/V1_MQTT_OK/GD32VW55X_Wifi_BLE_SDK/GD32VW55x_RELEASE_V1.0.2/MSDK/cloud/alicloud/src/protocol/alcs\alcs_adapter.c ****     memset(alcs_send_msg->token, 0, alcs_send_msg->token_len + 1);
 661:C:/Users/stapi/OneDrive/Desktop/GD32VW553/V1_MQTT_OK/GD32VW55X_Wifi_BLE_SDK/GD32VW55x_RELEASE_V1.0.2/MSDK/cloud/alicloud/src/protocol/alcs\alcs_adapter.c ****     memcpy(alcs_send_msg->token, coap_msg.token, alcs_send_msg->token_len);
 662:C:/Users/stapi/OneDrive/Desktop/GD32VW553/V1_MQTT_OK/GD32VW55X_Wifi_BLE_SDK/GD32VW55x_RELEASE_V1.0.2/MSDK/cloud/alicloud/src/protocol/alcs\alcs_adapter.c **** 
 663:C:/Users/stapi/OneDrive/Desktop/GD32VW553/V1_MQTT_OK/GD32VW55X_Wifi_BLE_SDK/GD32VW55x_RELEASE_V1.0.2/MSDK/cloud/alicloud/src/protocol/alcs\alcs_adapter.c ****     alcs_send_msg->uri = (char *)ALCS_ADAPTER_malloc(strlen(msg->uri) + 1);
 664:C:/Users/stapi/OneDrive/Desktop/GD32VW553/V1_MQTT_OK/GD32VW55X_Wifi_BLE_SDK/GD32VW55x_RELEASE_V1.0.2/MSDK/cloud/alicloud/src/protocol/alcs\alcs_adapter.c ****     if (alcs_send_msg->uri == NULL) {
 665:C:/Users/stapi/OneDrive/Desktop/GD32VW553/V1_MQTT_OK/GD32VW55X_Wifi_BLE_SDK/GD32VW55x_RELEASE_V1.0.2/MSDK/cloud/alicloud/src/protocol/alcs\alcs_adapter.c ****         LITE_free(alcs_send_msg->token);
 666:C:/Users/stapi/OneDrive/Desktop/GD32VW553/V1_MQTT_OK/GD32VW55X_Wifi_BLE_SDK/GD32VW55x_RELEASE_V1.0.2/MSDK/cloud/alicloud/src/protocol/alcs\alcs_adapter.c ****         LITE_free(alcs_send_msg);
 667:C:/Users/stapi/OneDrive/Desktop/GD32VW553/V1_MQTT_OK/GD32VW55X_Wifi_BLE_SDK/GD32VW55x_RELEASE_V1.0.2/MSDK/cloud/alicloud/src/protocol/alcs\alcs_adapter.c ****         COAP_WRN("ALCS Message Buffer Failed");
 668:C:/Users/stapi/OneDrive/Desktop/GD32VW553/V1_MQTT_OK/GD32VW55X_Wifi_BLE_SDK/GD32VW55x_RELEASE_V1.0.2/MSDK/cloud/alicloud/src/protocol/alcs\alcs_adapter.c ****         return FAIL_RETURN;
 669:C:/Users/stapi/OneDrive/Desktop/GD32VW553/V1_MQTT_OK/GD32VW55X_Wifi_BLE_SDK/GD32VW55x_RELEASE_V1.0.2/MSDK/cloud/alicloud/src/protocol/alcs\alcs_adapter.c ****     }
 670:C:/Users/stapi/OneDrive/Desktop/GD32VW553/V1_MQTT_OK/GD32VW55X_Wifi_BLE_SDK/GD32VW55x_RELEASE_V1.0.2/MSDK/cloud/alicloud/src/protocol/alcs\alcs_adapter.c ****     memset(alcs_send_msg->uri, 0, strlen(msg->uri) + 1);
 671:C:/Users/stapi/OneDrive/Desktop/GD32VW553/V1_MQTT_OK/GD32VW55X_Wifi_BLE_SDK/GD32VW55x_RELEASE_V1.0.2/MSDK/cloud/alicloud/src/protocol/alcs\alcs_adapter.c ****     memcpy(alcs_send_msg->uri, msg->uri, strlen(msg->uri));
 672:C:/Users/stapi/OneDrive/Desktop/GD32VW553/V1_MQTT_OK/GD32VW55X_Wifi_BLE_SDK/GD32VW55x_RELEASE_V1.0.2/MSDK/cloud/alicloud/src/protocol/alcs\alcs_adapter.c ****     INIT_LIST_HEAD(&alcs_send_msg->linked_list);
 673:C:/Users/stapi/OneDrive/Desktop/GD32VW553/V1_MQTT_OK/GD32VW55X_Wifi_BLE_SDK/GD32VW55x_RELEASE_V1.0.2/MSDK/cloud/alicloud/src/protocol/alcs\alcs_adapter.c **** 
 674:C:/Users/stapi/OneDrive/Desktop/GD32VW553/V1_MQTT_OK/GD32VW55X_Wifi_BLE_SDK/GD32VW55x_RELEASE_V1.0.2/MSDK/cloud/alicloud/src/protocol/alcs\alcs_adapter.c ****     HAL_MutexLock(adapter->mutex);
 675:C:/Users/stapi/OneDrive/Desktop/GD32VW553/V1_MQTT_OK/GD32VW55X_Wifi_BLE_SDK/GD32VW55x_RELEASE_V1.0.2/MSDK/cloud/alicloud/src/protocol/alcs\alcs_adapter.c ****     //list_add_tail(&adapter->alcs_send_list, &alcs_send_msg->linked_list);
 676:C:/Users/stapi/OneDrive/Desktop/GD32VW553/V1_MQTT_OK/GD32VW55X_Wifi_BLE_SDK/GD32VW55x_RELEASE_V1.0.2/MSDK/cloud/alicloud/src/protocol/alcs\alcs_adapter.c ****     list_add_tail(&alcs_send_msg->linked_list, &adapter->alcs_send_list);
 677:C:/Users/stapi/OneDrive/Desktop/GD32VW553/V1_MQTT_OK/GD32VW55X_Wifi_BLE_SDK/GD32VW55x_RELEASE_V1.0.2/MSDK/cloud/alicloud/src/protocol/alcs\alcs_adapter.c ****     HAL_MutexUnlock(adapter->mutex);
 678:C:/Users/stapi/OneDrive/Desktop/GD32VW553/V1_MQTT_OK/GD32VW55X_Wifi_BLE_SDK/GD32VW55x_RELEASE_V1.0.2/MSDK/cloud/alicloud/src/protocol/alcs\alcs_adapter.c **** #endif
 679:C:/Users/stapi/OneDrive/Desktop/GD32VW553/V1_MQTT_OK/GD32VW55X_Wifi_BLE_SDK/GD32VW55x_RELEASE_V1.0.2/MSDK/cloud/alicloud/src/protocol/alcs\alcs_adapter.c ****     return SUCCESS_RETURN;
 1905              		.loc 1 679 5
 680:C:/Users/stapi/OneDrive/Desktop/GD32VW553/V1_MQTT_OK/GD32VW55X_Wifi_BLE_SDK/GD32VW55x_RELEASE_V1.0.2/MSDK/cloud/alicloud/src/protocol/alcs\alcs_adapter.c **** }
 1906              		.loc 1 680 1 is_stmt 0
 1907 0000 0145     		li	a0,0
 1908              	.LVL210:
 1909 0002 8280     		ret
 1910              		.cfi_endproc
 1911              	.LFE36:
 1913              		.section	.rodata.iotx_alcs_send_Response.str1.4,"aMS",@progbits,1
 1914              		.align	2
 1915              	.LC26:
 1916 0000 6D736700 		.string	"msg"
 1917              		.align	2
 1918              	.LC27:
 1919 0004 6D73672D 		.string	"msg->payload"
 1919      3E706179 
 1919      6C6F6164 
 1919      00
 1920 0011 000000   		.align	2
 1921              	.LC28:
 1922 0014 6D73672D 		.string	"msg->ip"
 1922      3E697000 
 1923              		.align	2
 1924              	.LC29:
 1925 001c 6D73672D 		.string	"msg->uri"
 1925      3E757269 
 1925      00
 1926 0025 000000   		.align	2
 1927              	.LC30:
 1928 0028 496E7661 		.string	"Invalid Ip Address Length"
 1928      6C696420 
 1928      49702041 
 1928      64647265 
 1928      7373204C 
 1929 0042 0000     		.align	2
 1930              	.LC31:
 1931 0044 414C4353 		.string	"ALCS Message Set URI Failed"
 1931      204D6573 
 1931      73616765 
 1931      20536574 
 1931      20555249 
 1932              		.align	2
 1933              	.LC32:
 1934 0060 25732573 		.string	"%s%s"
 1934      00
 1935 0065 000000   		.align	2
 1936              	.LC33:
 1937 0068 25732C20 		.string	"%s, %p"
 1937      257000
 1938 006f 00       		.align	2
 1939              	.LC34:
 1940 0070 414C4353 		.string	"ALCS Message Send Failed %d"
 1940      204D6573 
 1940      73616765 
 1940      2053656E 
 1940      64204661 
 1941              		.section	.text.iotx_alcs_send_Response,"ax",@progbits
 1942              		.align	1
 1943              		.globl	iotx_alcs_send_Response
 1945              	iotx_alcs_send_Response:
 1946              	.LFB37:
 681:C:/Users/stapi/OneDrive/Desktop/GD32VW553/V1_MQTT_OK/GD32VW55X_Wifi_BLE_SDK/GD32VW55x_RELEASE_V1.0.2/MSDK/cloud/alicloud/src/protocol/alcs\alcs_adapter.c **** 
 682:C:/Users/stapi/OneDrive/Desktop/GD32VW553/V1_MQTT_OK/GD32VW55X_Wifi_BLE_SDK/GD32VW55x_RELEASE_V1.0.2/MSDK/cloud/alicloud/src/protocol/alcs\alcs_adapter.c **** int iotx_alcs_send_Response(void *handle, iotx_alcs_msg_t *msg, uint8_t token_len, uint8_t *token)
 683:C:/Users/stapi/OneDrive/Desktop/GD32VW553/V1_MQTT_OK/GD32VW55X_Wifi_BLE_SDK/GD32VW55x_RELEASE_V1.0.2/MSDK/cloud/alicloud/src/protocol/alcs\alcs_adapter.c **** {
 1947              		.loc 1 683 1 is_stmt 1
 1948              		.cfi_startproc
 1949              	.LVL211:
 1950 0000 17030000 		call	t0,__riscv_save_7
 1950      E7020300 
 1951              		.cfi_offset 22, -32
 1952              		.cfi_offset 21, -28
 1953              		.cfi_offset 20, -24
 1954              		.cfi_offset 19, -20
 1955              		.cfi_offset 18, -16
 1956              		.cfi_offset 9, -12
 1957              		.cfi_offset 8, -8
 1958              		.cfi_offset 1, -4
 1959              		.cfi_def_cfa_offset 32
 684:C:/Users/stapi/OneDrive/Desktop/GD32VW553/V1_MQTT_OK/GD32VW55X_Wifi_BLE_SDK/GD32VW55x_RELEASE_V1.0.2/MSDK/cloud/alicloud/src/protocol/alcs\alcs_adapter.c ****     int res = 0;
 1960              		.loc 1 684 5
 1961              	.LVL212:
 685:C:/Users/stapi/OneDrive/Desktop/GD32VW553/V1_MQTT_OK/GD32VW55X_Wifi_BLE_SDK/GD32VW55x_RELEASE_V1.0.2/MSDK/cloud/alicloud/src/protocol/alcs\alcs_adapter.c ****     iotx_alcs_adapter_t *adapter = (iotx_alcs_adapter_t *)handle;
 1962              		.loc 1 685 5
 686:C:/Users/stapi/OneDrive/Desktop/GD32VW553/V1_MQTT_OK/GD32VW55X_Wifi_BLE_SDK/GD32VW55x_RELEASE_V1.0.2/MSDK/cloud/alicloud/src/protocol/alcs\alcs_adapter.c ****     CoAPMessage coap_msg;
 1963              		.loc 1 686 5
 687:C:/Users/stapi/OneDrive/Desktop/GD32VW553/V1_MQTT_OK/GD32VW55X_Wifi_BLE_SDK/GD32VW55x_RELEASE_V1.0.2/MSDK/cloud/alicloud/src/protocol/alcs\alcs_adapter.c ****     CoAPLenString coap_payload;
 1964              		.loc 1 687 5
 688:C:/Users/stapi/OneDrive/Desktop/GD32VW553/V1_MQTT_OK/GD32VW55X_Wifi_BLE_SDK/GD32VW55x_RELEASE_V1.0.2/MSDK/cloud/alicloud/src/protocol/alcs\alcs_adapter.c ****     CoAPLenString token_payload;
 1965              		.loc 1 688 5
 689:C:/Users/stapi/OneDrive/Desktop/GD32VW553/V1_MQTT_OK/GD32VW55X_Wifi_BLE_SDK/GD32VW55x_RELEASE_V1.0.2/MSDK/cloud/alicloud/src/protocol/alcs\alcs_adapter.c ****     NetworkAddr network_addr;
 1966              		.loc 1 689 5
 690:C:/Users/stapi/OneDrive/Desktop/GD32VW553/V1_MQTT_OK/GD32VW55X_Wifi_BLE_SDK/GD32VW55x_RELEASE_V1.0.2/MSDK/cloud/alicloud/src/protocol/alcs\alcs_adapter.c **** 
 691:C:/Users/stapi/OneDrive/Desktop/GD32VW553/V1_MQTT_OK/GD32VW55X_Wifi_BLE_SDK/GD32VW55x_RELEASE_V1.0.2/MSDK/cloud/alicloud/src/protocol/alcs\alcs_adapter.c ****     POINTER_SANITY_CHECK(adapter, NULL_VALUE_ERROR);
 1967              		.loc 1 691 5
 1968              		.loc 1 691 5
 683:C:/Users/stapi/OneDrive/Desktop/GD32VW553/V1_MQTT_OK/GD32VW55X_Wifi_BLE_SDK/GD32VW55x_RELEASE_V1.0.2/MSDK/cloud/alicloud/src/protocol/alcs\alcs_adapter.c ****     int res = 0;
 1969              		.loc 1 683 1 is_stmt 0
 1970 0008 6571     		addi	sp,sp,-400
 1971              		.cfi_def_cfa_offset 432
 1972              		.loc 1 691 5
 1973 000a 29E5     		bne	a0,zero,.L108
 1974              		.loc 1 691 5 is_stmt 1 discriminator 1
 1975              		.loc 1 691 5 discriminator 1
 1976 000c 37050000 		lui	a0,%hi(.LC3)
 1977              	.LVL213:
 1978 0010 13050500 		addi	a0,a0,%lo(.LC3)
 1979 0014 97000000 		call	HAL_Printf
 1979      E7800000 
 1980              	.LVL214:
 1981              		.loc 1 691 5 discriminator 1
 1982 001c B7050000 		lui	a1,%hi(.LC24)
 1983 0020 0146     		li	a2,0
 1984 0022 93850500 		addi	a1,a1,%lo(.LC24)
 1985              	.L146:
 692:C:/Users/stapi/OneDrive/Desktop/GD32VW553/V1_MQTT_OK/GD32VW55X_Wifi_BLE_SDK/GD32VW55x_RELEASE_V1.0.2/MSDK/cloud/alicloud/src/protocol/alcs\alcs_adapter.c ****     POINTER_SANITY_CHECK(adapter->coap_ctx, NULL_VALUE_ERROR);
 1986              		.loc 1 692 5 is_stmt 0 discriminator 1
 1987 0026 37050000 		lui	a0,%hi(.LC16)
 1988 002a 13050500 		addi	a0,a0,%lo(.LC16)
 1989 002e 97000000 		call	HAL_Printf
 1989      E7800000 
 1990              	.LVL215:
 1991              		.loc 1 692 5 is_stmt 1 discriminator 1
 1992 0036 37050000 		lui	a0,%hi(.LC2)
 1993 003a 13050500 		addi	a0,a0,%lo(.LC2)
 1994 003e 97000000 		call	HAL_Printf
 1994      E7800000 
 1995              	.LVL216:
 1996              		.loc 1 692 5 discriminator 1
 1997              		.loc 1 692 5 discriminator 1
 1998 0046 7954     		li	s0,-2
 1999              	.LVL217:
 2000              	.L107:
 693:C:/Users/stapi/OneDrive/Desktop/GD32VW553/V1_MQTT_OK/GD32VW55X_Wifi_BLE_SDK/GD32VW55x_RELEASE_V1.0.2/MSDK/cloud/alicloud/src/protocol/alcs\alcs_adapter.c ****     POINTER_SANITY_CHECK(msg, NULL_VALUE_ERROR);
 694:C:/Users/stapi/OneDrive/Desktop/GD32VW553/V1_MQTT_OK/GD32VW55X_Wifi_BLE_SDK/GD32VW55x_RELEASE_V1.0.2/MSDK/cloud/alicloud/src/protocol/alcs\alcs_adapter.c ****     POINTER_SANITY_CHECK(msg->payload, NULL_VALUE_ERROR);
 695:C:/Users/stapi/OneDrive/Desktop/GD32VW553/V1_MQTT_OK/GD32VW55X_Wifi_BLE_SDK/GD32VW55x_RELEASE_V1.0.2/MSDK/cloud/alicloud/src/protocol/alcs\alcs_adapter.c **** 
 696:C:/Users/stapi/OneDrive/Desktop/GD32VW553/V1_MQTT_OK/GD32VW55X_Wifi_BLE_SDK/GD32VW55x_RELEASE_V1.0.2/MSDK/cloud/alicloud/src/protocol/alcs\alcs_adapter.c ****     STRING_PTR_SANITY_CHECK(msg->ip, FAIL_RETURN);
 697:C:/Users/stapi/OneDrive/Desktop/GD32VW553/V1_MQTT_OK/GD32VW55X_Wifi_BLE_SDK/GD32VW55x_RELEASE_V1.0.2/MSDK/cloud/alicloud/src/protocol/alcs\alcs_adapter.c ****     STRING_PTR_SANITY_CHECK(msg->uri, FAIL_RETURN);
 698:C:/Users/stapi/OneDrive/Desktop/GD32VW553/V1_MQTT_OK/GD32VW55X_Wifi_BLE_SDK/GD32VW55x_RELEASE_V1.0.2/MSDK/cloud/alicloud/src/protocol/alcs\alcs_adapter.c ****     if (token_len == 0 || token == NULL) {
 699:C:/Users/stapi/OneDrive/Desktop/GD32VW553/V1_MQTT_OK/GD32VW55X_Wifi_BLE_SDK/GD32VW55x_RELEASE_V1.0.2/MSDK/cloud/alicloud/src/protocol/alcs\alcs_adapter.c ****         return FAIL_RETURN;
 700:C:/Users/stapi/OneDrive/Desktop/GD32VW553/V1_MQTT_OK/GD32VW55X_Wifi_BLE_SDK/GD32VW55x_RELEASE_V1.0.2/MSDK/cloud/alicloud/src/protocol/alcs\alcs_adapter.c ****     }
 701:C:/Users/stapi/OneDrive/Desktop/GD32VW553/V1_MQTT_OK/GD32VW55X_Wifi_BLE_SDK/GD32VW55x_RELEASE_V1.0.2/MSDK/cloud/alicloud/src/protocol/alcs\alcs_adapter.c **** 
 702:C:/Users/stapi/OneDrive/Desktop/GD32VW553/V1_MQTT_OK/GD32VW55X_Wifi_BLE_SDK/GD32VW55x_RELEASE_V1.0.2/MSDK/cloud/alicloud/src/protocol/alcs\alcs_adapter.c **** 
 703:C:/Users/stapi/OneDrive/Desktop/GD32VW553/V1_MQTT_OK/GD32VW55X_Wifi_BLE_SDK/GD32VW55x_RELEASE_V1.0.2/MSDK/cloud/alicloud/src/protocol/alcs\alcs_adapter.c ****     if (strlen(msg->ip) > NETWORK_ADDR_LEN) {
 704:C:/Users/stapi/OneDrive/Desktop/GD32VW553/V1_MQTT_OK/GD32VW55X_Wifi_BLE_SDK/GD32VW55x_RELEASE_V1.0.2/MSDK/cloud/alicloud/src/protocol/alcs\alcs_adapter.c ****         COAP_ERR("Invalid Ip Address Length");
 705:C:/Users/stapi/OneDrive/Desktop/GD32VW553/V1_MQTT_OK/GD32VW55X_Wifi_BLE_SDK/GD32VW55x_RELEASE_V1.0.2/MSDK/cloud/alicloud/src/protocol/alcs\alcs_adapter.c ****         return FAIL_RETURN;
 706:C:/Users/stapi/OneDrive/Desktop/GD32VW553/V1_MQTT_OK/GD32VW55X_Wifi_BLE_SDK/GD32VW55x_RELEASE_V1.0.2/MSDK/cloud/alicloud/src/protocol/alcs\alcs_adapter.c ****     }
 707:C:/Users/stapi/OneDrive/Desktop/GD32VW553/V1_MQTT_OK/GD32VW55X_Wifi_BLE_SDK/GD32VW55x_RELEASE_V1.0.2/MSDK/cloud/alicloud/src/protocol/alcs\alcs_adapter.c **** 
 708:C:/Users/stapi/OneDrive/Desktop/GD32VW553/V1_MQTT_OK/GD32VW55X_Wifi_BLE_SDK/GD32VW55x_RELEASE_V1.0.2/MSDK/cloud/alicloud/src/protocol/alcs\alcs_adapter.c ****     memset(&coap_msg, 0, sizeof(CoAPMessage));
 709:C:/Users/stapi/OneDrive/Desktop/GD32VW553/V1_MQTT_OK/GD32VW55X_Wifi_BLE_SDK/GD32VW55x_RELEASE_V1.0.2/MSDK/cloud/alicloud/src/protocol/alcs\alcs_adapter.c ****     memset(&coap_payload, 0, sizeof(CoAPLenString));
 710:C:/Users/stapi/OneDrive/Desktop/GD32VW553/V1_MQTT_OK/GD32VW55X_Wifi_BLE_SDK/GD32VW55x_RELEASE_V1.0.2/MSDK/cloud/alicloud/src/protocol/alcs\alcs_adapter.c ****     memset(&token_payload, 0, sizeof(CoAPLenString));
 711:C:/Users/stapi/OneDrive/Desktop/GD32VW553/V1_MQTT_OK/GD32VW55X_Wifi_BLE_SDK/GD32VW55x_RELEASE_V1.0.2/MSDK/cloud/alicloud/src/protocol/alcs\alcs_adapter.c **** 
 712:C:/Users/stapi/OneDrive/Desktop/GD32VW553/V1_MQTT_OK/GD32VW55X_Wifi_BLE_SDK/GD32VW55x_RELEASE_V1.0.2/MSDK/cloud/alicloud/src/protocol/alcs\alcs_adapter.c ****     coap_payload.len = msg->payload_len;
 713:C:/Users/stapi/OneDrive/Desktop/GD32VW553/V1_MQTT_OK/GD32VW55X_Wifi_BLE_SDK/GD32VW55x_RELEASE_V1.0.2/MSDK/cloud/alicloud/src/protocol/alcs\alcs_adapter.c ****     coap_payload.data = msg->payload;
 714:C:/Users/stapi/OneDrive/Desktop/GD32VW553/V1_MQTT_OK/GD32VW55X_Wifi_BLE_SDK/GD32VW55x_RELEASE_V1.0.2/MSDK/cloud/alicloud/src/protocol/alcs\alcs_adapter.c **** 
 715:C:/Users/stapi/OneDrive/Desktop/GD32VW553/V1_MQTT_OK/GD32VW55X_Wifi_BLE_SDK/GD32VW55x_RELEASE_V1.0.2/MSDK/cloud/alicloud/src/protocol/alcs\alcs_adapter.c ****     alcs_msg_init(adapter->coap_ctx, &coap_msg, msg->msg_code, msg->msg_type, 0, &coap_payload, (vo
 716:C:/Users/stapi/OneDrive/Desktop/GD32VW553/V1_MQTT_OK/GD32VW55X_Wifi_BLE_SDK/GD32VW55x_RELEASE_V1.0.2/MSDK/cloud/alicloud/src/protocol/alcs\alcs_adapter.c **** 
 717:C:/Users/stapi/OneDrive/Desktop/GD32VW553/V1_MQTT_OK/GD32VW55X_Wifi_BLE_SDK/GD32VW55x_RELEASE_V1.0.2/MSDK/cloud/alicloud/src/protocol/alcs\alcs_adapter.c ****     res = alcs_msg_setAddr(&coap_msg, msg->uri, NULL);
 718:C:/Users/stapi/OneDrive/Desktop/GD32VW553/V1_MQTT_OK/GD32VW55X_Wifi_BLE_SDK/GD32VW55x_RELEASE_V1.0.2/MSDK/cloud/alicloud/src/protocol/alcs\alcs_adapter.c ****     if (res != COAP_SUCCESS) {
 719:C:/Users/stapi/OneDrive/Desktop/GD32VW553/V1_MQTT_OK/GD32VW55X_Wifi_BLE_SDK/GD32VW55x_RELEASE_V1.0.2/MSDK/cloud/alicloud/src/protocol/alcs\alcs_adapter.c ****         COAP_ERR("ALCS Message Set URI Failed");
 720:C:/Users/stapi/OneDrive/Desktop/GD32VW553/V1_MQTT_OK/GD32VW55X_Wifi_BLE_SDK/GD32VW55x_RELEASE_V1.0.2/MSDK/cloud/alicloud/src/protocol/alcs\alcs_adapter.c ****         return FAIL_RETURN;
 721:C:/Users/stapi/OneDrive/Desktop/GD32VW553/V1_MQTT_OK/GD32VW55X_Wifi_BLE_SDK/GD32VW55x_RELEASE_V1.0.2/MSDK/cloud/alicloud/src/protocol/alcs\alcs_adapter.c ****     }
 722:C:/Users/stapi/OneDrive/Desktop/GD32VW553/V1_MQTT_OK/GD32VW55X_Wifi_BLE_SDK/GD32VW55x_RELEASE_V1.0.2/MSDK/cloud/alicloud/src/protocol/alcs\alcs_adapter.c **** 
 723:C:/Users/stapi/OneDrive/Desktop/GD32VW553/V1_MQTT_OK/GD32VW55X_Wifi_BLE_SDK/GD32VW55x_RELEASE_V1.0.2/MSDK/cloud/alicloud/src/protocol/alcs\alcs_adapter.c ****     memset(&network_addr, 0, sizeof(NetworkAddr));
 724:C:/Users/stapi/OneDrive/Desktop/GD32VW553/V1_MQTT_OK/GD32VW55X_Wifi_BLE_SDK/GD32VW55x_RELEASE_V1.0.2/MSDK/cloud/alicloud/src/protocol/alcs\alcs_adapter.c ****     memcpy(network_addr.addr, msg->ip, strlen(msg->ip));
 725:C:/Users/stapi/OneDrive/Desktop/GD32VW553/V1_MQTT_OK/GD32VW55X_Wifi_BLE_SDK/GD32VW55x_RELEASE_V1.0.2/MSDK/cloud/alicloud/src/protocol/alcs\alcs_adapter.c ****     network_addr.port = msg->port;
 726:C:/Users/stapi/OneDrive/Desktop/GD32VW553/V1_MQTT_OK/GD32VW55X_Wifi_BLE_SDK/GD32VW55x_RELEASE_V1.0.2/MSDK/cloud/alicloud/src/protocol/alcs\alcs_adapter.c **** 
 727:C:/Users/stapi/OneDrive/Desktop/GD32VW553/V1_MQTT_OK/GD32VW55X_Wifi_BLE_SDK/GD32VW55x_RELEASE_V1.0.2/MSDK/cloud/alicloud/src/protocol/alcs\alcs_adapter.c ****     token_payload.len = token_len;
 728:C:/Users/stapi/OneDrive/Desktop/GD32VW553/V1_MQTT_OK/GD32VW55X_Wifi_BLE_SDK/GD32VW55x_RELEASE_V1.0.2/MSDK/cloud/alicloud/src/protocol/alcs\alcs_adapter.c ****     token_payload.data = token;
 729:C:/Users/stapi/OneDrive/Desktop/GD32VW553/V1_MQTT_OK/GD32VW55X_Wifi_BLE_SDK/GD32VW55x_RELEASE_V1.0.2/MSDK/cloud/alicloud/src/protocol/alcs\alcs_adapter.c **** 
 730:C:/Users/stapi/OneDrive/Desktop/GD32VW553/V1_MQTT_OK/GD32VW55X_Wifi_BLE_SDK/GD32VW55x_RELEASE_V1.0.2/MSDK/cloud/alicloud/src/protocol/alcs\alcs_adapter.c ****     //Get Product Key And Device Name
 731:C:/Users/stapi/OneDrive/Desktop/GD32VW553/V1_MQTT_OK/GD32VW55X_Wifi_BLE_SDK/GD32VW55x_RELEASE_V1.0.2/MSDK/cloud/alicloud/src/protocol/alcs\alcs_adapter.c ****     AlcsDeviceKey devKey;
 732:C:/Users/stapi/OneDrive/Desktop/GD32VW553/V1_MQTT_OK/GD32VW55X_Wifi_BLE_SDK/GD32VW55x_RELEASE_V1.0.2/MSDK/cloud/alicloud/src/protocol/alcs\alcs_adapter.c ****     char productKey[PRODUCT_KEY_MAXLEN] = {0};
 733:C:/Users/stapi/OneDrive/Desktop/GD32VW553/V1_MQTT_OK/GD32VW55X_Wifi_BLE_SDK/GD32VW55x_RELEASE_V1.0.2/MSDK/cloud/alicloud/src/protocol/alcs\alcs_adapter.c ****     char deviceName[DEVICE_NAME_MAXLEN] = {0};
 734:C:/Users/stapi/OneDrive/Desktop/GD32VW553/V1_MQTT_OK/GD32VW55X_Wifi_BLE_SDK/GD32VW55x_RELEASE_V1.0.2/MSDK/cloud/alicloud/src/protocol/alcs\alcs_adapter.c ****     char *uri_pk = NULL;
 735:C:/Users/stapi/OneDrive/Desktop/GD32VW553/V1_MQTT_OK/GD32VW55X_Wifi_BLE_SDK/GD32VW55x_RELEASE_V1.0.2/MSDK/cloud/alicloud/src/protocol/alcs\alcs_adapter.c ****     char *uri_dn = NULL;
 736:C:/Users/stapi/OneDrive/Desktop/GD32VW553/V1_MQTT_OK/GD32VW55X_Wifi_BLE_SDK/GD32VW55x_RELEASE_V1.0.2/MSDK/cloud/alicloud/src/protocol/alcs\alcs_adapter.c ****     uint16_t uri_pk_len = 0;
 737:C:/Users/stapi/OneDrive/Desktop/GD32VW553/V1_MQTT_OK/GD32VW55X_Wifi_BLE_SDK/GD32VW55x_RELEASE_V1.0.2/MSDK/cloud/alicloud/src/protocol/alcs\alcs_adapter.c ****     uint16_t uri_dn_len = 0;
 738:C:/Users/stapi/OneDrive/Desktop/GD32VW553/V1_MQTT_OK/GD32VW55X_Wifi_BLE_SDK/GD32VW55x_RELEASE_V1.0.2/MSDK/cloud/alicloud/src/protocol/alcs\alcs_adapter.c **** 
 739:C:/Users/stapi/OneDrive/Desktop/GD32VW553/V1_MQTT_OK/GD32VW55X_Wifi_BLE_SDK/GD32VW55x_RELEASE_V1.0.2/MSDK/cloud/alicloud/src/protocol/alcs\alcs_adapter.c ****     memset(&devKey, 0, sizeof(AlcsDeviceKey));
 740:C:/Users/stapi/OneDrive/Desktop/GD32VW553/V1_MQTT_OK/GD32VW55X_Wifi_BLE_SDK/GD32VW55x_RELEASE_V1.0.2/MSDK/cloud/alicloud/src/protocol/alcs\alcs_adapter.c ****     memcpy(&devKey.addr, &network_addr, sizeof(NetworkAddr));
 741:C:/Users/stapi/OneDrive/Desktop/GD32VW553/V1_MQTT_OK/GD32VW55X_Wifi_BLE_SDK/GD32VW55x_RELEASE_V1.0.2/MSDK/cloud/alicloud/src/protocol/alcs\alcs_adapter.c **** 
 742:C:/Users/stapi/OneDrive/Desktop/GD32VW553/V1_MQTT_OK/GD32VW55X_Wifi_BLE_SDK/GD32VW55x_RELEASE_V1.0.2/MSDK/cloud/alicloud/src/protocol/alcs\alcs_adapter.c ****     uri_pk = iotx_alcs_topic_parse_pk(msg->uri, &uri_pk_len);
 743:C:/Users/stapi/OneDrive/Desktop/GD32VW553/V1_MQTT_OK/GD32VW55X_Wifi_BLE_SDK/GD32VW55x_RELEASE_V1.0.2/MSDK/cloud/alicloud/src/protocol/alcs\alcs_adapter.c ****     uri_dn = iotx_alcs_topic_parse_dn(msg->uri, &uri_dn_len);
 744:C:/Users/stapi/OneDrive/Desktop/GD32VW553/V1_MQTT_OK/GD32VW55X_Wifi_BLE_SDK/GD32VW55x_RELEASE_V1.0.2/MSDK/cloud/alicloud/src/protocol/alcs\alcs_adapter.c **** 
 745:C:/Users/stapi/OneDrive/Desktop/GD32VW553/V1_MQTT_OK/GD32VW55X_Wifi_BLE_SDK/GD32VW55x_RELEASE_V1.0.2/MSDK/cloud/alicloud/src/protocol/alcs\alcs_adapter.c ****     if (uri_pk == NULL || uri_pk_len >= PRODUCT_KEY_MAXLEN ||
 746:C:/Users/stapi/OneDrive/Desktop/GD32VW553/V1_MQTT_OK/GD32VW55X_Wifi_BLE_SDK/GD32VW55x_RELEASE_V1.0.2/MSDK/cloud/alicloud/src/protocol/alcs\alcs_adapter.c ****         uri_dn == NULL || uri_dn_len >= DEVICE_NAME_MAXLEN) {
 747:C:/Users/stapi/OneDrive/Desktop/GD32VW553/V1_MQTT_OK/GD32VW55X_Wifi_BLE_SDK/GD32VW55x_RELEASE_V1.0.2/MSDK/cloud/alicloud/src/protocol/alcs\alcs_adapter.c ****         COAP_ERR("Invalid Parameter");
 748:C:/Users/stapi/OneDrive/Desktop/GD32VW553/V1_MQTT_OK/GD32VW55X_Wifi_BLE_SDK/GD32VW55x_RELEASE_V1.0.2/MSDK/cloud/alicloud/src/protocol/alcs\alcs_adapter.c ****         return FAIL_RETURN;
 749:C:/Users/stapi/OneDrive/Desktop/GD32VW553/V1_MQTT_OK/GD32VW55X_Wifi_BLE_SDK/GD32VW55x_RELEASE_V1.0.2/MSDK/cloud/alicloud/src/protocol/alcs\alcs_adapter.c ****     }
 750:C:/Users/stapi/OneDrive/Desktop/GD32VW553/V1_MQTT_OK/GD32VW55X_Wifi_BLE_SDK/GD32VW55x_RELEASE_V1.0.2/MSDK/cloud/alicloud/src/protocol/alcs\alcs_adapter.c ****     memcpy(productKey, uri_pk, uri_pk_len);
 751:C:/Users/stapi/OneDrive/Desktop/GD32VW553/V1_MQTT_OK/GD32VW55X_Wifi_BLE_SDK/GD32VW55x_RELEASE_V1.0.2/MSDK/cloud/alicloud/src/protocol/alcs\alcs_adapter.c ****     memcpy(deviceName, uri_dn, uri_dn_len);
 752:C:/Users/stapi/OneDrive/Desktop/GD32VW553/V1_MQTT_OK/GD32VW55X_Wifi_BLE_SDK/GD32VW55x_RELEASE_V1.0.2/MSDK/cloud/alicloud/src/protocol/alcs\alcs_adapter.c **** 
 753:C:/Users/stapi/OneDrive/Desktop/GD32VW553/V1_MQTT_OK/GD32VW55X_Wifi_BLE_SDK/GD32VW55x_RELEASE_V1.0.2/MSDK/cloud/alicloud/src/protocol/alcs\alcs_adapter.c ****     devKey.pk = productKey;
 754:C:/Users/stapi/OneDrive/Desktop/GD32VW553/V1_MQTT_OK/GD32VW55X_Wifi_BLE_SDK/GD32VW55x_RELEASE_V1.0.2/MSDK/cloud/alicloud/src/protocol/alcs\alcs_adapter.c ****     devKey.dn = deviceName;
 755:C:/Users/stapi/OneDrive/Desktop/GD32VW553/V1_MQTT_OK/GD32VW55X_Wifi_BLE_SDK/GD32VW55x_RELEASE_V1.0.2/MSDK/cloud/alicloud/src/protocol/alcs\alcs_adapter.c **** 
 756:C:/Users/stapi/OneDrive/Desktop/GD32VW553/V1_MQTT_OK/GD32VW55X_Wifi_BLE_SDK/GD32VW55x_RELEASE_V1.0.2/MSDK/cloud/alicloud/src/protocol/alcs\alcs_adapter.c **** 
 757:C:/Users/stapi/OneDrive/Desktop/GD32VW553/V1_MQTT_OK/GD32VW55X_Wifi_BLE_SDK/GD32VW55x_RELEASE_V1.0.2/MSDK/cloud/alicloud/src/protocol/alcs\alcs_adapter.c ****     if (alcs_resource_need_auth(adapter->coap_ctx, msg->uri)) {
 758:C:/Users/stapi/OneDrive/Desktop/GD32VW553/V1_MQTT_OK/GD32VW55X_Wifi_BLE_SDK/GD32VW55x_RELEASE_V1.0.2/MSDK/cloud/alicloud/src/protocol/alcs\alcs_adapter.c ****         res = alcs_sendrsp_secure(adapter->coap_ctx, &devKey, &coap_msg, 0, 0, &token_payload);
 759:C:/Users/stapi/OneDrive/Desktop/GD32VW553/V1_MQTT_OK/GD32VW55X_Wifi_BLE_SDK/GD32VW55x_RELEASE_V1.0.2/MSDK/cloud/alicloud/src/protocol/alcs\alcs_adapter.c ****     } else {
 760:C:/Users/stapi/OneDrive/Desktop/GD32VW553/V1_MQTT_OK/GD32VW55X_Wifi_BLE_SDK/GD32VW55x_RELEASE_V1.0.2/MSDK/cloud/alicloud/src/protocol/alcs\alcs_adapter.c **** #ifdef ALCS_SERVER_ENABLED
 761:C:/Users/stapi/OneDrive/Desktop/GD32VW553/V1_MQTT_OK/GD32VW55X_Wifi_BLE_SDK/GD32VW55x_RELEASE_V1.0.2/MSDK/cloud/alicloud/src/protocol/alcs\alcs_adapter.c ****         extern const char DM_URI_DEV_CORE_SERVICE_DEV[];
 762:C:/Users/stapi/OneDrive/Desktop/GD32VW553/V1_MQTT_OK/GD32VW55X_Wifi_BLE_SDK/GD32VW55x_RELEASE_V1.0.2/MSDK/cloud/alicloud/src/protocol/alcs\alcs_adapter.c ****         if (strcmp(msg->uri, DM_URI_DEV_CORE_SERVICE_DEV) == 0) {
 763:C:/Users/stapi/OneDrive/Desktop/GD32VW553/V1_MQTT_OK/GD32VW55X_Wifi_BLE_SDK/GD32VW55x_RELEASE_V1.0.2/MSDK/cloud/alicloud/src/protocol/alcs\alcs_adapter.c ****             char ck[PK_DN_CHECKSUM_LEN] = {0};
 764:C:/Users/stapi/OneDrive/Desktop/GD32VW553/V1_MQTT_OK/GD32VW55X_Wifi_BLE_SDK/GD32VW55x_RELEASE_V1.0.2/MSDK/cloud/alicloud/src/protocol/alcs\alcs_adapter.c ****             char path[100] = {0};
 765:C:/Users/stapi/OneDrive/Desktop/GD32VW553/V1_MQTT_OK/GD32VW55X_Wifi_BLE_SDK/GD32VW55x_RELEASE_V1.0.2/MSDK/cloud/alicloud/src/protocol/alcs\alcs_adapter.c ****             HAL_GetProductKey(productKey);
 766:C:/Users/stapi/OneDrive/Desktop/GD32VW553/V1_MQTT_OK/GD32VW55X_Wifi_BLE_SDK/GD32VW55x_RELEASE_V1.0.2/MSDK/cloud/alicloud/src/protocol/alcs\alcs_adapter.c ****             HAL_GetDeviceName(deviceName);
 767:C:/Users/stapi/OneDrive/Desktop/GD32VW553/V1_MQTT_OK/GD32VW55X_Wifi_BLE_SDK/GD32VW55x_RELEASE_V1.0.2/MSDK/cloud/alicloud/src/protocol/alcs\alcs_adapter.c ****             snprintf (path, sizeof(path), "%s%s", productKey, deviceName);
 768:C:/Users/stapi/OneDrive/Desktop/GD32VW553/V1_MQTT_OK/GD32VW55X_Wifi_BLE_SDK/GD32VW55x_RELEASE_V1.0.2/MSDK/cloud/alicloud/src/protocol/alcs\alcs_adapter.c ****             CoAPPathMD5_sum (path, strlen(path), ck, PK_DN_CHECKSUM_LEN);
 769:C:/Users/stapi/OneDrive/Desktop/GD32VW553/V1_MQTT_OK/GD32VW55X_Wifi_BLE_SDK/GD32VW55x_RELEASE_V1.0.2/MSDK/cloud/alicloud/src/protocol/alcs\alcs_adapter.c ****             struct list_head* sessions1 = get_svr_session_list();
 770:C:/Users/stapi/OneDrive/Desktop/GD32VW553/V1_MQTT_OK/GD32VW55X_Wifi_BLE_SDK/GD32VW55x_RELEASE_V1.0.2/MSDK/cloud/alicloud/src/protocol/alcs\alcs_adapter.c ****             session_item* node1 = get_session_by_checksum (sessions1, &network_addr, ck);
 771:C:/Users/stapi/OneDrive/Desktop/GD32VW553/V1_MQTT_OK/GD32VW55X_Wifi_BLE_SDK/GD32VW55x_RELEASE_V1.0.2/MSDK/cloud/alicloud/src/protocol/alcs\alcs_adapter.c ****             if (node1 && node1->sessionId) {
 772:C:/Users/stapi/OneDrive/Desktop/GD32VW553/V1_MQTT_OK/GD32VW55X_Wifi_BLE_SDK/GD32VW55x_RELEASE_V1.0.2/MSDK/cloud/alicloud/src/protocol/alcs\alcs_adapter.c ****                 node1->heart_time = HAL_UptimeMs();
 773:C:/Users/stapi/OneDrive/Desktop/GD32VW553/V1_MQTT_OK/GD32VW55X_Wifi_BLE_SDK/GD32VW55x_RELEASE_V1.0.2/MSDK/cloud/alicloud/src/protocol/alcs\alcs_adapter.c ****                 COAP_INFO("%s, %p", path, node1);
 774:C:/Users/stapi/OneDrive/Desktop/GD32VW553/V1_MQTT_OK/GD32VW55X_Wifi_BLE_SDK/GD32VW55x_RELEASE_V1.0.2/MSDK/cloud/alicloud/src/protocol/alcs\alcs_adapter.c ****             }
 775:C:/Users/stapi/OneDrive/Desktop/GD32VW553/V1_MQTT_OK/GD32VW55X_Wifi_BLE_SDK/GD32VW55x_RELEASE_V1.0.2/MSDK/cloud/alicloud/src/protocol/alcs\alcs_adapter.c ****         }
 776:C:/Users/stapi/OneDrive/Desktop/GD32VW553/V1_MQTT_OK/GD32VW55X_Wifi_BLE_SDK/GD32VW55x_RELEASE_V1.0.2/MSDK/cloud/alicloud/src/protocol/alcs\alcs_adapter.c **** #endif
 777:C:/Users/stapi/OneDrive/Desktop/GD32VW553/V1_MQTT_OK/GD32VW55X_Wifi_BLE_SDK/GD32VW55x_RELEASE_V1.0.2/MSDK/cloud/alicloud/src/protocol/alcs\alcs_adapter.c ****         res = alcs_sendrsp(adapter->coap_ctx, &network_addr, &coap_msg, 0, 0, &token_payload);
 778:C:/Users/stapi/OneDrive/Desktop/GD32VW553/V1_MQTT_OK/GD32VW55X_Wifi_BLE_SDK/GD32VW55x_RELEASE_V1.0.2/MSDK/cloud/alicloud/src/protocol/alcs\alcs_adapter.c ****     }
 779:C:/Users/stapi/OneDrive/Desktop/GD32VW553/V1_MQTT_OK/GD32VW55X_Wifi_BLE_SDK/GD32VW55x_RELEASE_V1.0.2/MSDK/cloud/alicloud/src/protocol/alcs\alcs_adapter.c **** 
 780:C:/Users/stapi/OneDrive/Desktop/GD32VW553/V1_MQTT_OK/GD32VW55X_Wifi_BLE_SDK/GD32VW55x_RELEASE_V1.0.2/MSDK/cloud/alicloud/src/protocol/alcs\alcs_adapter.c ****     alcs_msg_deinit(&coap_msg);
 781:C:/Users/stapi/OneDrive/Desktop/GD32VW553/V1_MQTT_OK/GD32VW55X_Wifi_BLE_SDK/GD32VW55x_RELEASE_V1.0.2/MSDK/cloud/alicloud/src/protocol/alcs\alcs_adapter.c **** 
 782:C:/Users/stapi/OneDrive/Desktop/GD32VW553/V1_MQTT_OK/GD32VW55X_Wifi_BLE_SDK/GD32VW55x_RELEASE_V1.0.2/MSDK/cloud/alicloud/src/protocol/alcs\alcs_adapter.c ****     if (res != COAP_SUCCESS) {
 783:C:/Users/stapi/OneDrive/Desktop/GD32VW553/V1_MQTT_OK/GD32VW55X_Wifi_BLE_SDK/GD32VW55x_RELEASE_V1.0.2/MSDK/cloud/alicloud/src/protocol/alcs\alcs_adapter.c ****         COAP_ERR("ALCS Message Send Failed %d", res);
 784:C:/Users/stapi/OneDrive/Desktop/GD32VW553/V1_MQTT_OK/GD32VW55X_Wifi_BLE_SDK/GD32VW55x_RELEASE_V1.0.2/MSDK/cloud/alicloud/src/protocol/alcs\alcs_adapter.c ****         return FAIL_RETURN;
 785:C:/Users/stapi/OneDrive/Desktop/GD32VW553/V1_MQTT_OK/GD32VW55X_Wifi_BLE_SDK/GD32VW55x_RELEASE_V1.0.2/MSDK/cloud/alicloud/src/protocol/alcs\alcs_adapter.c ****     }
 786:C:/Users/stapi/OneDrive/Desktop/GD32VW553/V1_MQTT_OK/GD32VW55X_Wifi_BLE_SDK/GD32VW55x_RELEASE_V1.0.2/MSDK/cloud/alicloud/src/protocol/alcs\alcs_adapter.c **** 
 787:C:/Users/stapi/OneDrive/Desktop/GD32VW553/V1_MQTT_OK/GD32VW55X_Wifi_BLE_SDK/GD32VW55x_RELEASE_V1.0.2/MSDK/cloud/alicloud/src/protocol/alcs\alcs_adapter.c ****     return SUCCESS_RETURN;
 788:C:/Users/stapi/OneDrive/Desktop/GD32VW553/V1_MQTT_OK/GD32VW55X_Wifi_BLE_SDK/GD32VW55x_RELEASE_V1.0.2/MSDK/cloud/alicloud/src/protocol/alcs\alcs_adapter.c **** }
 2001              		.loc 1 788 1 is_stmt 0
 2002 0048 2285     		mv	a0,s0
 2003 004a 5961     		addi	sp,sp,400
 2004              		.cfi_remember_state
 2005              		.cfi_def_cfa_offset 0
 2006 004c 17030000 		tail	__riscv_restore_7
 2006      67000300 
 2007              		.cfi_restore 22
 2008              		.cfi_restore 21
 2009              		.cfi_restore 20
 2010              		.cfi_restore 19
 2011              		.cfi_restore 18
 2012              		.cfi_restore 9
 2013              		.cfi_restore 8
 2014              		.cfi_restore 1
 2015              		.cfi_def_cfa_offset -32
 2016              	.LVL218:
 2017              	.L108:
 2018              		.cfi_restore_state
 692:C:/Users/stapi/OneDrive/Desktop/GD32VW553/V1_MQTT_OK/GD32VW55X_Wifi_BLE_SDK/GD32VW55x_RELEASE_V1.0.2/MSDK/cloud/alicloud/src/protocol/alcs\alcs_adapter.c ****     POINTER_SANITY_CHECK(adapter->coap_ctx, NULL_VALUE_ERROR);
 2019              		.loc 1 692 5 discriminator 2
 2020 0054 832A8500 		lw	s5,8(a0)
 2021 0058 2A89     		mv	s2,a0
 691:C:/Users/stapi/OneDrive/Desktop/GD32VW553/V1_MQTT_OK/GD32VW55X_Wifi_BLE_SDK/GD32VW55x_RELEASE_V1.0.2/MSDK/cloud/alicloud/src/protocol/alcs\alcs_adapter.c ****     POINTER_SANITY_CHECK(adapter->coap_ctx, NULL_VALUE_ERROR);
 2022              		.loc 1 691 5 is_stmt 1 discriminator 2
 692:C:/Users/stapi/OneDrive/Desktop/GD32VW553/V1_MQTT_OK/GD32VW55X_Wifi_BLE_SDK/GD32VW55x_RELEASE_V1.0.2/MSDK/cloud/alicloud/src/protocol/alcs\alcs_adapter.c ****     POINTER_SANITY_CHECK(adapter->coap_ctx, NULL_VALUE_ERROR);
 2023              		.loc 1 692 5 discriminator 2
 692:C:/Users/stapi/OneDrive/Desktop/GD32VW553/V1_MQTT_OK/GD32VW55X_Wifi_BLE_SDK/GD32VW55x_RELEASE_V1.0.2/MSDK/cloud/alicloud/src/protocol/alcs\alcs_adapter.c ****     POINTER_SANITY_CHECK(adapter->coap_ctx, NULL_VALUE_ERROR);
 2024              		.loc 1 692 5 discriminator 2
 2025 005a 63910A02 		bne	s5,zero,.L110
 692:C:/Users/stapi/OneDrive/Desktop/GD32VW553/V1_MQTT_OK/GD32VW55X_Wifi_BLE_SDK/GD32VW55x_RELEASE_V1.0.2/MSDK/cloud/alicloud/src/protocol/alcs\alcs_adapter.c ****     POINTER_SANITY_CHECK(adapter->coap_ctx, NULL_VALUE_ERROR);
 2026              		.loc 1 692 5 discriminator 1
 692:C:/Users/stapi/OneDrive/Desktop/GD32VW553/V1_MQTT_OK/GD32VW55X_Wifi_BLE_SDK/GD32VW55x_RELEASE_V1.0.2/MSDK/cloud/alicloud/src/protocol/alcs\alcs_adapter.c ****     POINTER_SANITY_CHECK(adapter->coap_ctx, NULL_VALUE_ERROR);
 2027              		.loc 1 692 5 discriminator 1
 2028 005e 37050000 		lui	a0,%hi(.LC3)
 2029              	.LVL219:
 2030 0062 13050500 		addi	a0,a0,%lo(.LC3)
 2031 0066 97000000 		call	HAL_Printf
 2031      E7800000 
 2032              	.LVL220:
 692:C:/Users/stapi/OneDrive/Desktop/GD32VW553/V1_MQTT_OK/GD32VW55X_Wifi_BLE_SDK/GD32VW55x_RELEASE_V1.0.2/MSDK/cloud/alicloud/src/protocol/alcs\alcs_adapter.c ****     POINTER_SANITY_CHECK(adapter->coap_ctx, NULL_VALUE_ERROR);
 2033              		.loc 1 692 5 discriminator 1
 2034 006e B7050000 		lui	a1,%hi(.LC25)
 2035 0072 03268900 		lw	a2,8(s2)
 2036 0076 93850500 		addi	a1,a1,%lo(.LC25)
 2037 007a 75B7     		j	.L146
 2038              	.LVL221:
 2039              	.L110:
 2040 007c AE84     		mv	s1,a1
 692:C:/Users/stapi/OneDrive/Desktop/GD32VW553/V1_MQTT_OK/GD32VW55X_Wifi_BLE_SDK/GD32VW55x_RELEASE_V1.0.2/MSDK/cloud/alicloud/src/protocol/alcs\alcs_adapter.c ****     POINTER_SANITY_CHECK(adapter->coap_ctx, NULL_VALUE_ERROR);
 2041              		.loc 1 692 5 discriminator 2
 693:C:/Users/stapi/OneDrive/Desktop/GD32VW553/V1_MQTT_OK/GD32VW55X_Wifi_BLE_SDK/GD32VW55x_RELEASE_V1.0.2/MSDK/cloud/alicloud/src/protocol/alcs\alcs_adapter.c ****     POINTER_SANITY_CHECK(msg, NULL_VALUE_ERROR);
 2042              		.loc 1 693 5 discriminator 2
 693:C:/Users/stapi/OneDrive/Desktop/GD32VW553/V1_MQTT_OK/GD32VW55X_Wifi_BLE_SDK/GD32VW55x_RELEASE_V1.0.2/MSDK/cloud/alicloud/src/protocol/alcs\alcs_adapter.c ****     POINTER_SANITY_CHECK(msg, NULL_VALUE_ERROR);
 2043              		.loc 1 693 5 discriminator 2
 2044 007e 99ED     		bne	a1,zero,.L111
 2045              	.LVL222:
 693:C:/Users/stapi/OneDrive/Desktop/GD32VW553/V1_MQTT_OK/GD32VW55X_Wifi_BLE_SDK/GD32VW55x_RELEASE_V1.0.2/MSDK/cloud/alicloud/src/protocol/alcs\alcs_adapter.c ****     POINTER_SANITY_CHECK(msg, NULL_VALUE_ERROR);
 2046              		.loc 1 693 5 discriminator 1
 693:C:/Users/stapi/OneDrive/Desktop/GD32VW553/V1_MQTT_OK/GD32VW55X_Wifi_BLE_SDK/GD32VW55x_RELEASE_V1.0.2/MSDK/cloud/alicloud/src/protocol/alcs\alcs_adapter.c ****     POINTER_SANITY_CHECK(msg, NULL_VALUE_ERROR);
 2047              		.loc 1 693 5 discriminator 1
 2048 0080 37050000 		lui	a0,%hi(.LC3)
 2049              	.LVL223:
 2050 0084 13050500 		addi	a0,a0,%lo(.LC3)
 2051 0088 97000000 		call	HAL_Printf
 2051      E7800000 
 2052              	.LVL224:
 693:C:/Users/stapi/OneDrive/Desktop/GD32VW553/V1_MQTT_OK/GD32VW55X_Wifi_BLE_SDK/GD32VW55x_RELEASE_V1.0.2/MSDK/cloud/alicloud/src/protocol/alcs\alcs_adapter.c ****     POINTER_SANITY_CHECK(msg, NULL_VALUE_ERROR);
 2053              		.loc 1 693 5 discriminator 1
 2054 0090 B7050000 		lui	a1,%hi(.LC26)
 2055 0094 0146     		li	a2,0
 2056 0096 93850500 		addi	a1,a1,%lo(.LC26)
 2057 009a 71B7     		j	.L146
 2058              	.LVL225:
 2059              	.L111:
 693:C:/Users/stapi/OneDrive/Desktop/GD32VW553/V1_MQTT_OK/GD32VW55X_Wifi_BLE_SDK/GD32VW55x_RELEASE_V1.0.2/MSDK/cloud/alicloud/src/protocol/alcs\alcs_adapter.c ****     POINTER_SANITY_CHECK(msg, NULL_VALUE_ERROR);
 2060              		.loc 1 693 5 discriminator 2
 694:C:/Users/stapi/OneDrive/Desktop/GD32VW553/V1_MQTT_OK/GD32VW55X_Wifi_BLE_SDK/GD32VW55x_RELEASE_V1.0.2/MSDK/cloud/alicloud/src/protocol/alcs\alcs_adapter.c **** 
 2061              		.loc 1 694 5 discriminator 2
 694:C:/Users/stapi/OneDrive/Desktop/GD32VW553/V1_MQTT_OK/GD32VW55X_Wifi_BLE_SDK/GD32VW55x_RELEASE_V1.0.2/MSDK/cloud/alicloud/src/protocol/alcs\alcs_adapter.c **** 
 2062              		.loc 1 694 5 discriminator 2
 2063 009c 03ABC501 		lw	s6,28(a1)
 2064 00a0 63100B02 		bne	s6,zero,.L112
 694:C:/Users/stapi/OneDrive/Desktop/GD32VW553/V1_MQTT_OK/GD32VW55X_Wifi_BLE_SDK/GD32VW55x_RELEASE_V1.0.2/MSDK/cloud/alicloud/src/protocol/alcs\alcs_adapter.c **** 
 2065              		.loc 1 694 5 discriminator 1
 694:C:/Users/stapi/OneDrive/Desktop/GD32VW553/V1_MQTT_OK/GD32VW55X_Wifi_BLE_SDK/GD32VW55x_RELEASE_V1.0.2/MSDK/cloud/alicloud/src/protocol/alcs\alcs_adapter.c **** 
 2066              		.loc 1 694 5 discriminator 1
 2067 00a4 37050000 		lui	a0,%hi(.LC3)
 2068              	.LVL226:
 2069 00a8 13050500 		addi	a0,a0,%lo(.LC3)
 2070 00ac 97000000 		call	HAL_Printf
 2070      E7800000 
 2071              	.LVL227:
 694:C:/Users/stapi/OneDrive/Desktop/GD32VW553/V1_MQTT_OK/GD32VW55X_Wifi_BLE_SDK/GD32VW55x_RELEASE_V1.0.2/MSDK/cloud/alicloud/src/protocol/alcs\alcs_adapter.c **** 
 2072              		.loc 1 694 5 discriminator 1
 2073 00b4 B7050000 		lui	a1,%hi(.LC27)
 2074 00b8 D04C     		lw	a2,28(s1)
 2075 00ba 93850500 		addi	a1,a1,%lo(.LC27)
 2076 00be A5B7     		j	.L146
 2077              	.LVL228:
 2078              	.L112:
 694:C:/Users/stapi/OneDrive/Desktop/GD32VW553/V1_MQTT_OK/GD32VW55X_Wifi_BLE_SDK/GD32VW55x_RELEASE_V1.0.2/MSDK/cloud/alicloud/src/protocol/alcs\alcs_adapter.c **** 
 2079              		.loc 1 694 5 discriminator 2
 696:C:/Users/stapi/OneDrive/Desktop/GD32VW553/V1_MQTT_OK/GD32VW55X_Wifi_BLE_SDK/GD32VW55x_RELEASE_V1.0.2/MSDK/cloud/alicloud/src/protocol/alcs\alcs_adapter.c ****     STRING_PTR_SANITY_CHECK(msg->uri, FAIL_RETURN);
 2080              		.loc 1 696 5 discriminator 2
 696:C:/Users/stapi/OneDrive/Desktop/GD32VW553/V1_MQTT_OK/GD32VW55X_Wifi_BLE_SDK/GD32VW55x_RELEASE_V1.0.2/MSDK/cloud/alicloud/src/protocol/alcs\alcs_adapter.c ****     STRING_PTR_SANITY_CHECK(msg->uri, FAIL_RETURN);
 2081              		.loc 1 696 5 discriminator 2
 2082 00c0 C841     		lw	a0,4(a1)
 2083              	.LVL229:
 2084 00c2 21E1     		bne	a0,zero,.L113
 696:C:/Users/stapi/OneDrive/Desktop/GD32VW553/V1_MQTT_OK/GD32VW55X_Wifi_BLE_SDK/GD32VW55x_RELEASE_V1.0.2/MSDK/cloud/alicloud/src/protocol/alcs\alcs_adapter.c ****     STRING_PTR_SANITY_CHECK(msg->uri, FAIL_RETURN);
 2085              		.loc 1 696 5 discriminator 1
 696:C:/Users/stapi/OneDrive/Desktop/GD32VW553/V1_MQTT_OK/GD32VW55X_Wifi_BLE_SDK/GD32VW55x_RELEASE_V1.0.2/MSDK/cloud/alicloud/src/protocol/alcs\alcs_adapter.c ****     STRING_PTR_SANITY_CHECK(msg->uri, FAIL_RETURN);
 2086              		.loc 1 696 5 discriminator 1
 2087 00c4 37050000 		lui	a0,%hi(.LC3)
 2088 00c8 13050500 		addi	a0,a0,%lo(.LC3)
 2089 00cc 97000000 		call	HAL_Printf
 2089      E7800000 
 2090              	.LVL230:
 696:C:/Users/stapi/OneDrive/Desktop/GD32VW553/V1_MQTT_OK/GD32VW55X_Wifi_BLE_SDK/GD32VW55x_RELEASE_V1.0.2/MSDK/cloud/alicloud/src/protocol/alcs\alcs_adapter.c ****     STRING_PTR_SANITY_CHECK(msg->uri, FAIL_RETURN);
 2091              		.loc 1 696 5 discriminator 1
 2092 00d4 D040     		lw	a2,4(s1)
 2093 00d6 B7050000 		lui	a1,%hi(.LC28)
 2094 00da 93850500 		addi	a1,a1,%lo(.LC28)
 2095              	.L151:
 697:C:/Users/stapi/OneDrive/Desktop/GD32VW553/V1_MQTT_OK/GD32VW55X_Wifi_BLE_SDK/GD32VW55x_RELEASE_V1.0.2/MSDK/cloud/alicloud/src/protocol/alcs\alcs_adapter.c ****     if (token_len == 0 || token == NULL) {
 2096              		.loc 1 697 5 is_stmt 0 discriminator 1
 2097 00de 37050000 		lui	a0,%hi(.LC16)
 2098 00e2 13050500 		addi	a0,a0,%lo(.LC16)
 2099              	.L150:
 697:C:/Users/stapi/OneDrive/Desktop/GD32VW553/V1_MQTT_OK/GD32VW55X_Wifi_BLE_SDK/GD32VW55x_RELEASE_V1.0.2/MSDK/cloud/alicloud/src/protocol/alcs\alcs_adapter.c ****     if (token_len == 0 || token == NULL) {
 2100              		.loc 1 697 5 discriminator 3
 2101 00e6 97000000 		call	HAL_Printf
 2101      E7800000 
 2102              	.LVL231:
 697:C:/Users/stapi/OneDrive/Desktop/GD32VW553/V1_MQTT_OK/GD32VW55X_Wifi_BLE_SDK/GD32VW55x_RELEASE_V1.0.2/MSDK/cloud/alicloud/src/protocol/alcs\alcs_adapter.c ****     if (token_len == 0 || token == NULL) {
 2103              		.loc 1 697 5 is_stmt 1 discriminator 3
 2104              	.L147:
 783:C:/Users/stapi/OneDrive/Desktop/GD32VW553/V1_MQTT_OK/GD32VW55X_Wifi_BLE_SDK/GD32VW55x_RELEASE_V1.0.2/MSDK/cloud/alicloud/src/protocol/alcs\alcs_adapter.c ****         return FAIL_RETURN;
 2105              		.loc 1 783 9
 2106 00ee 37050000 		lui	a0,%hi(.LC2)
 2107 00f2 13050500 		addi	a0,a0,%lo(.LC2)
 2108 00f6 97000000 		call	HAL_Printf
 2108      E7800000 
 2109              	.LVL232:
 783:C:/Users/stapi/OneDrive/Desktop/GD32VW553/V1_MQTT_OK/GD32VW55X_Wifi_BLE_SDK/GD32VW55x_RELEASE_V1.0.2/MSDK/cloud/alicloud/src/protocol/alcs\alcs_adapter.c ****         return FAIL_RETURN;
 2110              		.loc 1 783 9
 784:C:/Users/stapi/OneDrive/Desktop/GD32VW553/V1_MQTT_OK/GD32VW55X_Wifi_BLE_SDK/GD32VW55x_RELEASE_V1.0.2/MSDK/cloud/alicloud/src/protocol/alcs\alcs_adapter.c ****     }
 2111              		.loc 1 784 9
 784:C:/Users/stapi/OneDrive/Desktop/GD32VW553/V1_MQTT_OK/GD32VW55X_Wifi_BLE_SDK/GD32VW55x_RELEASE_V1.0.2/MSDK/cloud/alicloud/src/protocol/alcs\alcs_adapter.c ****     }
 2112              		.loc 1 784 16 is_stmt 0
 2113 00fe 7D54     		li	s0,-1
 2114 0100 A1B7     		j	.L107
 2115              	.LVL233:
 2116              	.L113:
 696:C:/Users/stapi/OneDrive/Desktop/GD32VW553/V1_MQTT_OK/GD32VW55X_Wifi_BLE_SDK/GD32VW55x_RELEASE_V1.0.2/MSDK/cloud/alicloud/src/protocol/alcs\alcs_adapter.c ****     STRING_PTR_SANITY_CHECK(msg->uri, FAIL_RETURN);
 2117              		.loc 1 696 5 is_stmt 1 discriminator 2
 2118 0102 83070500 		lb	a5,0(a0)
 2119 0106 9DE3     		bne	a5,zero,.L114
 696:C:/Users/stapi/OneDrive/Desktop/GD32VW553/V1_MQTT_OK/GD32VW55X_Wifi_BLE_SDK/GD32VW55x_RELEASE_V1.0.2/MSDK/cloud/alicloud/src/protocol/alcs\alcs_adapter.c ****     STRING_PTR_SANITY_CHECK(msg->uri, FAIL_RETURN);
 2120              		.loc 1 696 5 discriminator 3
 696:C:/Users/stapi/OneDrive/Desktop/GD32VW553/V1_MQTT_OK/GD32VW55X_Wifi_BLE_SDK/GD32VW55x_RELEASE_V1.0.2/MSDK/cloud/alicloud/src/protocol/alcs\alcs_adapter.c ****     STRING_PTR_SANITY_CHECK(msg->uri, FAIL_RETURN);
 2121              		.loc 1 696 5 discriminator 3
 2122 0108 37050000 		lui	a0,%hi(.LC3)
 2123 010c 13050500 		addi	a0,a0,%lo(.LC3)
 2124 0110 97000000 		call	HAL_Printf
 2124      E7800000 
 2125              	.LVL234:
 696:C:/Users/stapi/OneDrive/Desktop/GD32VW553/V1_MQTT_OK/GD32VW55X_Wifi_BLE_SDK/GD32VW55x_RELEASE_V1.0.2/MSDK/cloud/alicloud/src/protocol/alcs\alcs_adapter.c ****     STRING_PTR_SANITY_CHECK(msg->uri, FAIL_RETURN);
 2126              		.loc 1 696 5 discriminator 3
 2127 0118 D040     		lw	a2,4(s1)
 2128 011a B7050000 		lui	a1,%hi(.LC28)
 2129 011e 93850500 		addi	a1,a1,%lo(.LC28)
 2130              	.L149:
 697:C:/Users/stapi/OneDrive/Desktop/GD32VW553/V1_MQTT_OK/GD32VW55X_Wifi_BLE_SDK/GD32VW55x_RELEASE_V1.0.2/MSDK/cloud/alicloud/src/protocol/alcs\alcs_adapter.c ****     if (token_len == 0 || token == NULL) {
 2131              		.loc 1 697 5 is_stmt 0 discriminator 3
 2132 0122 37050000 		lui	a0,%hi(.LC18)
 2133 0126 13050500 		addi	a0,a0,%lo(.LC18)
 2134 012a 75BF     		j	.L150
 2135              	.LVL235:
 2136              	.L114:
 696:C:/Users/stapi/OneDrive/Desktop/GD32VW553/V1_MQTT_OK/GD32VW55X_Wifi_BLE_SDK/GD32VW55x_RELEASE_V1.0.2/MSDK/cloud/alicloud/src/protocol/alcs\alcs_adapter.c ****     STRING_PTR_SANITY_CHECK(msg->uri, FAIL_RETURN);
 2137              		.loc 1 696 5 is_stmt 1 discriminator 4
 697:C:/Users/stapi/OneDrive/Desktop/GD32VW553/V1_MQTT_OK/GD32VW55X_Wifi_BLE_SDK/GD32VW55x_RELEASE_V1.0.2/MSDK/cloud/alicloud/src/protocol/alcs\alcs_adapter.c ****     if (token_len == 0 || token == NULL) {
 2138              		.loc 1 697 5 discriminator 4
 697:C:/Users/stapi/OneDrive/Desktop/GD32VW553/V1_MQTT_OK/GD32VW55X_Wifi_BLE_SDK/GD32VW55x_RELEASE_V1.0.2/MSDK/cloud/alicloud/src/protocol/alcs\alcs_adapter.c ****     if (token_len == 0 || token == NULL) {
 2139              		.loc 1 697 5 discriminator 4
 2140 012c DC49     		lw	a5,20(a1)
 2141 012e 99EF     		bne	a5,zero,.L115
 697:C:/Users/stapi/OneDrive/Desktop/GD32VW553/V1_MQTT_OK/GD32VW55X_Wifi_BLE_SDK/GD32VW55x_RELEASE_V1.0.2/MSDK/cloud/alicloud/src/protocol/alcs\alcs_adapter.c ****     if (token_len == 0 || token == NULL) {
 2142              		.loc 1 697 5 discriminator 1
 697:C:/Users/stapi/OneDrive/Desktop/GD32VW553/V1_MQTT_OK/GD32VW55X_Wifi_BLE_SDK/GD32VW55x_RELEASE_V1.0.2/MSDK/cloud/alicloud/src/protocol/alcs\alcs_adapter.c ****     if (token_len == 0 || token == NULL) {
 2143              		.loc 1 697 5 discriminator 1
 2144 0130 37050000 		lui	a0,%hi(.LC3)
 2145 0134 13050500 		addi	a0,a0,%lo(.LC3)
 2146 0138 97000000 		call	HAL_Printf
 2146      E7800000 
 2147              	.LVL236:
 697:C:/Users/stapi/OneDrive/Desktop/GD32VW553/V1_MQTT_OK/GD32VW55X_Wifi_BLE_SDK/GD32VW55x_RELEASE_V1.0.2/MSDK/cloud/alicloud/src/protocol/alcs\alcs_adapter.c ****     if (token_len == 0 || token == NULL) {
 2148              		.loc 1 697 5 discriminator 1
 2149 0140 B7050000 		lui	a1,%hi(.LC29)
 2150 0144 D048     		lw	a2,20(s1)
 2151 0146 93850500 		addi	a1,a1,%lo(.LC29)
 2152 014a 51BF     		j	.L151
 2153              	.LVL237:
 2154              	.L115:
 697:C:/Users/stapi/OneDrive/Desktop/GD32VW553/V1_MQTT_OK/GD32VW55X_Wifi_BLE_SDK/GD32VW55x_RELEASE_V1.0.2/MSDK/cloud/alicloud/src/protocol/alcs\alcs_adapter.c ****     if (token_len == 0 || token == NULL) {
 2155              		.loc 1 697 5 discriminator 2
 2156 014c 83870700 		lb	a5,0(a5)
 2157 0150 99EF     		bne	a5,zero,.L116
 697:C:/Users/stapi/OneDrive/Desktop/GD32VW553/V1_MQTT_OK/GD32VW55X_Wifi_BLE_SDK/GD32VW55x_RELEASE_V1.0.2/MSDK/cloud/alicloud/src/protocol/alcs\alcs_adapter.c ****     if (token_len == 0 || token == NULL) {
 2158              		.loc 1 697 5 discriminator 3
 697:C:/Users/stapi/OneDrive/Desktop/GD32VW553/V1_MQTT_OK/GD32VW55X_Wifi_BLE_SDK/GD32VW55x_RELEASE_V1.0.2/MSDK/cloud/alicloud/src/protocol/alcs\alcs_adapter.c ****     if (token_len == 0 || token == NULL) {
 2159              		.loc 1 697 5 discriminator 3
 2160 0152 37050000 		lui	a0,%hi(.LC3)
 2161 0156 13050500 		addi	a0,a0,%lo(.LC3)
 2162 015a 97000000 		call	HAL_Printf
 2162      E7800000 
 2163              	.LVL238:
 697:C:/Users/stapi/OneDrive/Desktop/GD32VW553/V1_MQTT_OK/GD32VW55X_Wifi_BLE_SDK/GD32VW55x_RELEASE_V1.0.2/MSDK/cloud/alicloud/src/protocol/alcs\alcs_adapter.c ****     if (token_len == 0 || token == NULL) {
 2164              		.loc 1 697 5 discriminator 3
 2165 0162 B7050000 		lui	a1,%hi(.LC29)
 2166 0166 D048     		lw	a2,20(s1)
 2167 0168 93850500 		addi	a1,a1,%lo(.LC29)
 2168 016c 5DBF     		j	.L149
 2169              	.LVL239:
 2170              	.L116:
 2171 016e 328A     		mv	s4,a2
 697:C:/Users/stapi/OneDrive/Desktop/GD32VW553/V1_MQTT_OK/GD32VW55X_Wifi_BLE_SDK/GD32VW55x_RELEASE_V1.0.2/MSDK/cloud/alicloud/src/protocol/alcs\alcs_adapter.c ****     if (token_len == 0 || token == NULL) {
 2172              		.loc 1 697 5 discriminator 4
 698:C:/Users/stapi/OneDrive/Desktop/GD32VW553/V1_MQTT_OK/GD32VW55X_Wifi_BLE_SDK/GD32VW55x_RELEASE_V1.0.2/MSDK/cloud/alicloud/src/protocol/alcs\alcs_adapter.c ****         return FAIL_RETURN;
 2173              		.loc 1 698 5 discriminator 4
 699:C:/Users/stapi/OneDrive/Desktop/GD32VW553/V1_MQTT_OK/GD32VW55X_Wifi_BLE_SDK/GD32VW55x_RELEASE_V1.0.2/MSDK/cloud/alicloud/src/protocol/alcs\alcs_adapter.c ****     }
 2174              		.loc 1 699 16 is_stmt 0 discriminator 4
 2175 0170 7D54     		li	s0,-1
 698:C:/Users/stapi/OneDrive/Desktop/GD32VW553/V1_MQTT_OK/GD32VW55X_Wifi_BLE_SDK/GD32VW55x_RELEASE_V1.0.2/MSDK/cloud/alicloud/src/protocol/alcs\alcs_adapter.c ****         return FAIL_RETURN;
 2176              		.loc 1 698 8 discriminator 4
 2177 0172 E30B06EC 		beq	a2,zero,.L107
 2178 0176 B689     		mv	s3,a3
 698:C:/Users/stapi/OneDrive/Desktop/GD32VW553/V1_MQTT_OK/GD32VW55X_Wifi_BLE_SDK/GD32VW55x_RELEASE_V1.0.2/MSDK/cloud/alicloud/src/protocol/alcs\alcs_adapter.c ****         return FAIL_RETURN;
 2179              		.loc 1 698 24 discriminator 1
 2180 0178 E38806EC 		beq	a3,zero,.L107
 703:C:/Users/stapi/OneDrive/Desktop/GD32VW553/V1_MQTT_OK/GD32VW55X_Wifi_BLE_SDK/GD32VW55x_RELEASE_V1.0.2/MSDK/cloud/alicloud/src/protocol/alcs\alcs_adapter.c ****         COAP_ERR("Invalid Ip Address Length");
 2181              		.loc 1 703 5 is_stmt 1
 703:C:/Users/stapi/OneDrive/Desktop/GD32VW553/V1_MQTT_OK/GD32VW55X_Wifi_BLE_SDK/GD32VW55x_RELEASE_V1.0.2/MSDK/cloud/alicloud/src/protocol/alcs\alcs_adapter.c ****         COAP_ERR("Invalid Ip Address Length");
 2182              		.loc 1 703 9 is_stmt 0
 2183 017c 97000000 		call	strlen
 2183      E7800000 
 2184              	.LVL240:
 703:C:/Users/stapi/OneDrive/Desktop/GD32VW553/V1_MQTT_OK/GD32VW55X_Wifi_BLE_SDK/GD32VW55x_RELEASE_V1.0.2/MSDK/cloud/alicloud/src/protocol/alcs\alcs_adapter.c ****         COAP_ERR("Invalid Ip Address Length");
 2185              		.loc 1 703 8
 2186 0184 C147     		li	a5,16
 2187 0186 63FBA702 		bleu	a0,a5,.L117
 704:C:/Users/stapi/OneDrive/Desktop/GD32VW553/V1_MQTT_OK/GD32VW55X_Wifi_BLE_SDK/GD32VW55x_RELEASE_V1.0.2/MSDK/cloud/alicloud/src/protocol/alcs\alcs_adapter.c ****         return FAIL_RETURN;
 2188              		.loc 1 704 9 is_stmt 1
 704:C:/Users/stapi/OneDrive/Desktop/GD32VW553/V1_MQTT_OK/GD32VW55X_Wifi_BLE_SDK/GD32VW55x_RELEASE_V1.0.2/MSDK/cloud/alicloud/src/protocol/alcs\alcs_adapter.c ****         return FAIL_RETURN;
 2189              		.loc 1 704 9
 2190 018a 37050000 		lui	a0,%hi(.LC3)
 2191 018e 13050500 		addi	a0,a0,%lo(.LC3)
 2192 0192 97000000 		call	HAL_Printf
 2192      E7800000 
 2193              	.LVL241:
 704:C:/Users/stapi/OneDrive/Desktop/GD32VW553/V1_MQTT_OK/GD32VW55X_Wifi_BLE_SDK/GD32VW55x_RELEASE_V1.0.2/MSDK/cloud/alicloud/src/protocol/alcs\alcs_adapter.c ****         return FAIL_RETURN;
 2194              		.loc 1 704 9
 2195 019a 37050000 		lui	a0,%hi(.LC30)
 2196 019e 13050500 		addi	a0,a0,%lo(.LC30)
 2197 01a2 97000000 		call	HAL_Printf
 2197      E7800000 
 2198              	.LVL242:
 704:C:/Users/stapi/OneDrive/Desktop/GD32VW553/V1_MQTT_OK/GD32VW55X_Wifi_BLE_SDK/GD32VW55x_RELEASE_V1.0.2/MSDK/cloud/alicloud/src/protocol/alcs\alcs_adapter.c ****         return FAIL_RETURN;
 2199              		.loc 1 704 9
 2200 01aa 37050000 		lui	a0,%hi(.LC2)
 2201 01ae 13050500 		addi	a0,a0,%lo(.LC2)
 2202 01b2 97000000 		call	HAL_Printf
 2202      E7800000 
 2203              	.LVL243:
 704:C:/Users/stapi/OneDrive/Desktop/GD32VW553/V1_MQTT_OK/GD32VW55X_Wifi_BLE_SDK/GD32VW55x_RELEASE_V1.0.2/MSDK/cloud/alicloud/src/protocol/alcs\alcs_adapter.c ****         return FAIL_RETURN;
 2204              		.loc 1 704 9
 705:C:/Users/stapi/OneDrive/Desktop/GD32VW553/V1_MQTT_OK/GD32VW55X_Wifi_BLE_SDK/GD32VW55x_RELEASE_V1.0.2/MSDK/cloud/alicloud/src/protocol/alcs\alcs_adapter.c ****     }
 2205              		.loc 1 705 9
 705:C:/Users/stapi/OneDrive/Desktop/GD32VW553/V1_MQTT_OK/GD32VW55X_Wifi_BLE_SDK/GD32VW55x_RELEASE_V1.0.2/MSDK/cloud/alicloud/src/protocol/alcs\alcs_adapter.c ****     }
 2206              		.loc 1 705 16 is_stmt 0
 2207 01ba 79B5     		j	.L107
 2208              	.L117:
 708:C:/Users/stapi/OneDrive/Desktop/GD32VW553/V1_MQTT_OK/GD32VW55X_Wifi_BLE_SDK/GD32VW55x_RELEASE_V1.0.2/MSDK/cloud/alicloud/src/protocol/alcs\alcs_adapter.c ****     memset(&coap_payload, 0, sizeof(CoAPLenString));
 2209              		.loc 1 708 5 is_stmt 1
 2210 01bc 13068008 		li	a2,136
 2211 01c0 8145     		li	a1,0
 2212 01c2 2802     		addi	a0,sp,264
 2213 01c4 97000000 		call	memset
 2213      E7800000 
 2214              	.LVL244:
 709:C:/Users/stapi/OneDrive/Desktop/GD32VW553/V1_MQTT_OK/GD32VW55X_Wifi_BLE_SDK/GD32VW55x_RELEASE_V1.0.2/MSDK/cloud/alicloud/src/protocol/alcs\alcs_adapter.c ****     memset(&token_payload, 0, sizeof(CoAPLenString));
 2215              		.loc 1 709 5
 710:C:/Users/stapi/OneDrive/Desktop/GD32VW553/V1_MQTT_OK/GD32VW55X_Wifi_BLE_SDK/GD32VW55x_RELEASE_V1.0.2/MSDK/cloud/alicloud/src/protocol/alcs\alcs_adapter.c **** 
 2216              		.loc 1 710 5
 712:C:/Users/stapi/OneDrive/Desktop/GD32VW553/V1_MQTT_OK/GD32VW55X_Wifi_BLE_SDK/GD32VW55x_RELEASE_V1.0.2/MSDK/cloud/alicloud/src/protocol/alcs\alcs_adapter.c ****     coap_payload.data = msg->payload;
 2217              		.loc 1 712 22 is_stmt 0
 2218 01cc 9C4C     		lw	a5,24(s1)
 715:C:/Users/stapi/OneDrive/Desktop/GD32VW553/V1_MQTT_OK/GD32VW55X_Wifi_BLE_SDK/GD32VW55x_RELEASE_V1.0.2/MSDK/cloud/alicloud/src/protocol/alcs\alcs_adapter.c **** 
 2219              		.loc 1 715 5
 2220 01ce D044     		lw	a2,12(s1)
 2221 01d0 83C60401 		lbu	a3,16(s1)
 712:C:/Users/stapi/OneDrive/Desktop/GD32VW553/V1_MQTT_OK/GD32VW55X_Wifi_BLE_SDK/GD32VW55x_RELEASE_V1.0.2/MSDK/cloud/alicloud/src/protocol/alcs\alcs_adapter.c ****     coap_payload.data = msg->payload;
 2222              		.loc 1 712 22
 2223 01d4 3ED4     		sw	a5,40(sp)
 715:C:/Users/stapi/OneDrive/Desktop/GD32VW553/V1_MQTT_OK/GD32VW55X_Wifi_BLE_SDK/GD32VW55x_RELEASE_V1.0.2/MSDK/cloud/alicloud/src/protocol/alcs\alcs_adapter.c **** 
 2224              		.loc 1 715 5
 2225 01d6 2C02     		addi	a1,sp,264
 2226 01d8 5685     		mv	a0,s5
 2227 01da 4A88     		mv	a6,s2
 2228 01dc 3C10     		addi	a5,sp,40
 2229 01de 0147     		li	a4,0
 710:C:/Users/stapi/OneDrive/Desktop/GD32VW553/V1_MQTT_OK/GD32VW55X_Wifi_BLE_SDK/GD32VW55x_RELEASE_V1.0.2/MSDK/cloud/alicloud/src/protocol/alcs\alcs_adapter.c **** 
 2230              		.loc 1 710 5
 2231 01e0 02D8     		sw	zero,48(sp)
 2232 01e2 02DA     		sw	zero,52(sp)
 712:C:/Users/stapi/OneDrive/Desktop/GD32VW553/V1_MQTT_OK/GD32VW55X_Wifi_BLE_SDK/GD32VW55x_RELEASE_V1.0.2/MSDK/cloud/alicloud/src/protocol/alcs\alcs_adapter.c ****     coap_payload.data = msg->payload;
 2233              		.loc 1 712 5 is_stmt 1
 713:C:/Users/stapi/OneDrive/Desktop/GD32VW553/V1_MQTT_OK/GD32VW55X_Wifi_BLE_SDK/GD32VW55x_RELEASE_V1.0.2/MSDK/cloud/alicloud/src/protocol/alcs\alcs_adapter.c **** 
 2234              		.loc 1 713 5
 713:C:/Users/stapi/OneDrive/Desktop/GD32VW553/V1_MQTT_OK/GD32VW55X_Wifi_BLE_SDK/GD32VW55x_RELEASE_V1.0.2/MSDK/cloud/alicloud/src/protocol/alcs\alcs_adapter.c **** 
 2235              		.loc 1 713 23 is_stmt 0
 2236 01e4 5AD6     		sw	s6,44(sp)
 715:C:/Users/stapi/OneDrive/Desktop/GD32VW553/V1_MQTT_OK/GD32VW55X_Wifi_BLE_SDK/GD32VW55x_RELEASE_V1.0.2/MSDK/cloud/alicloud/src/protocol/alcs\alcs_adapter.c **** 
 2237              		.loc 1 715 5 is_stmt 1
 2238 01e6 97000000 		call	alcs_msg_init
 2238      E7800000 
 2239              	.LVL245:
 717:C:/Users/stapi/OneDrive/Desktop/GD32VW553/V1_MQTT_OK/GD32VW55X_Wifi_BLE_SDK/GD32VW55x_RELEASE_V1.0.2/MSDK/cloud/alicloud/src/protocol/alcs\alcs_adapter.c ****     if (res != COAP_SUCCESS) {
 2240              		.loc 1 717 5
 717:C:/Users/stapi/OneDrive/Desktop/GD32VW553/V1_MQTT_OK/GD32VW55X_Wifi_BLE_SDK/GD32VW55x_RELEASE_V1.0.2/MSDK/cloud/alicloud/src/protocol/alcs\alcs_adapter.c ****     if (res != COAP_SUCCESS) {
 2241              		.loc 1 717 11 is_stmt 0
 2242 01ee CC48     		lw	a1,20(s1)
 2243 01f0 0146     		li	a2,0
 2244 01f2 2802     		addi	a0,sp,264
 2245 01f4 97000000 		call	alcs_msg_setAddr
 2245      E7800000 
 2246              	.LVL246:
 718:C:/Users/stapi/OneDrive/Desktop/GD32VW553/V1_MQTT_OK/GD32VW55X_Wifi_BLE_SDK/GD32VW55x_RELEASE_V1.0.2/MSDK/cloud/alicloud/src/protocol/alcs\alcs_adapter.c ****         COAP_ERR("ALCS Message Set URI Failed");
 2247              		.loc 1 718 5 is_stmt 1
 718:C:/Users/stapi/OneDrive/Desktop/GD32VW553/V1_MQTT_OK/GD32VW55X_Wifi_BLE_SDK/GD32VW55x_RELEASE_V1.0.2/MSDK/cloud/alicloud/src/protocol/alcs\alcs_adapter.c ****         COAP_ERR("ALCS Message Set URI Failed");
 2248              		.loc 1 718 8 is_stmt 0
 2249 01fc 15C1     		beq	a0,zero,.L118
 719:C:/Users/stapi/OneDrive/Desktop/GD32VW553/V1_MQTT_OK/GD32VW55X_Wifi_BLE_SDK/GD32VW55x_RELEASE_V1.0.2/MSDK/cloud/alicloud/src/protocol/alcs\alcs_adapter.c ****         return FAIL_RETURN;
 2250              		.loc 1 719 9 is_stmt 1
 719:C:/Users/stapi/OneDrive/Desktop/GD32VW553/V1_MQTT_OK/GD32VW55X_Wifi_BLE_SDK/GD32VW55x_RELEASE_V1.0.2/MSDK/cloud/alicloud/src/protocol/alcs\alcs_adapter.c ****         return FAIL_RETURN;
 2251              		.loc 1 719 9
 2252 01fe 37050000 		lui	a0,%hi(.LC3)
 2253              	.LVL247:
 2254 0202 13050500 		addi	a0,a0,%lo(.LC3)
 2255 0206 97000000 		call	HAL_Printf
 2255      E7800000 
 2256              	.LVL248:
 719:C:/Users/stapi/OneDrive/Desktop/GD32VW553/V1_MQTT_OK/GD32VW55X_Wifi_BLE_SDK/GD32VW55x_RELEASE_V1.0.2/MSDK/cloud/alicloud/src/protocol/alcs\alcs_adapter.c ****         return FAIL_RETURN;
 2257              		.loc 1 719 9
 2258 020e 37050000 		lui	a0,%hi(.LC31)
 2259 0212 13050500 		addi	a0,a0,%lo(.LC31)
 2260              	.LVL249:
 2261              	.L148:
 747:C:/Users/stapi/OneDrive/Desktop/GD32VW553/V1_MQTT_OK/GD32VW55X_Wifi_BLE_SDK/GD32VW55x_RELEASE_V1.0.2/MSDK/cloud/alicloud/src/protocol/alcs\alcs_adapter.c ****         return FAIL_RETURN;
 2262              		.loc 1 747 9 is_stmt 0
 2263 0216 97000000 		call	HAL_Printf
 2263      E7800000 
 2264              	.LVL250:
 747:C:/Users/stapi/OneDrive/Desktop/GD32VW553/V1_MQTT_OK/GD32VW55X_Wifi_BLE_SDK/GD32VW55x_RELEASE_V1.0.2/MSDK/cloud/alicloud/src/protocol/alcs\alcs_adapter.c ****         return FAIL_RETURN;
 2265              		.loc 1 747 9 is_stmt 1
 2266 021e C1BD     		j	.L147
 2267              	.LVL251:
 2268              	.L118:
 723:C:/Users/stapi/OneDrive/Desktop/GD32VW553/V1_MQTT_OK/GD32VW55X_Wifi_BLE_SDK/GD32VW55x_RELEASE_V1.0.2/MSDK/cloud/alicloud/src/protocol/alcs\alcs_adapter.c ****     memcpy(network_addr.addr, msg->ip, strlen(msg->ip));
 2269              		.loc 1 723 5
 724:C:/Users/stapi/OneDrive/Desktop/GD32VW553/V1_MQTT_OK/GD32VW55X_Wifi_BLE_SDK/GD32VW55x_RELEASE_V1.0.2/MSDK/cloud/alicloud/src/protocol/alcs\alcs_adapter.c ****     network_addr.port = msg->port;
 2270              		.loc 1 724 34 is_stmt 0
 2271 0220 CC40     		lw	a1,4(s1)
 723:C:/Users/stapi/OneDrive/Desktop/GD32VW553/V1_MQTT_OK/GD32VW55X_Wifi_BLE_SDK/GD32VW55x_RELEASE_V1.0.2/MSDK/cloud/alicloud/src/protocol/alcs\alcs_adapter.c ****     memcpy(network_addr.addr, msg->ip, strlen(msg->ip));
 2272              		.loc 1 723 5
 2273 0222 02DC     		sw	zero,56(sp)
 2274 0224 02DE     		sw	zero,60(sp)
 724:C:/Users/stapi/OneDrive/Desktop/GD32VW553/V1_MQTT_OK/GD32VW55X_Wifi_BLE_SDK/GD32VW55x_RELEASE_V1.0.2/MSDK/cloud/alicloud/src/protocol/alcs\alcs_adapter.c ****     network_addr.port = msg->port;
 2275              		.loc 1 724 5
 2276 0226 2E85     		mv	a0,a1
 2277              	.LVL252:
 2278 0228 2EC6     		sw	a1,12(sp)
 723:C:/Users/stapi/OneDrive/Desktop/GD32VW553/V1_MQTT_OK/GD32VW55X_Wifi_BLE_SDK/GD32VW55x_RELEASE_V1.0.2/MSDK/cloud/alicloud/src/protocol/alcs\alcs_adapter.c ****     memcpy(network_addr.addr, msg->ip, strlen(msg->ip));
 2279              		.loc 1 723 5
 2280 022a 82C0     		sw	zero,64(sp)
 2281 022c 82C2     		sw	zero,68(sp)
 2282 022e 23140104 		sh	zero,72(sp)
 724:C:/Users/stapi/OneDrive/Desktop/GD32VW553/V1_MQTT_OK/GD32VW55X_Wifi_BLE_SDK/GD32VW55x_RELEASE_V1.0.2/MSDK/cloud/alicloud/src/protocol/alcs\alcs_adapter.c ****     network_addr.port = msg->port;
 2283              		.loc 1 724 5 is_stmt 1
 2284 0232 97000000 		call	strlen
 2284      E7800000 
 2285              	.LVL253:
 2286 023a B245     		lw	a1,12(sp)
 2287 023c 2A86     		mv	a2,a0
 2288 023e 2818     		addi	a0,sp,56
 2289 0240 97000000 		call	memcpy
 2289      E7800000 
 2290              	.LVL254:
 725:C:/Users/stapi/OneDrive/Desktop/GD32VW553/V1_MQTT_OK/GD32VW55X_Wifi_BLE_SDK/GD32VW55x_RELEASE_V1.0.2/MSDK/cloud/alicloud/src/protocol/alcs\alcs_adapter.c **** 
 2291              		.loc 1 725 5
 725:C:/Users/stapi/OneDrive/Desktop/GD32VW553/V1_MQTT_OK/GD32VW55X_Wifi_BLE_SDK/GD32VW55x_RELEASE_V1.0.2/MSDK/cloud/alicloud/src/protocol/alcs\alcs_adapter.c **** 
 2292              		.loc 1 725 23 is_stmt 0
 2293 0248 83D78400 		lhu	a5,8(s1)
 733:C:/Users/stapi/OneDrive/Desktop/GD32VW553/V1_MQTT_OK/GD32VW55X_Wifi_BLE_SDK/GD32VW55x_RELEASE_V1.0.2/MSDK/cloud/alicloud/src/protocol/alcs\alcs_adapter.c ****     char *uri_pk = NULL;
 2294              		.loc 1 733 10
 2295 024c 7546     		li	a2,29
 2296 024e 8145     		li	a1,0
 2297 0250 4801     		addi	a0,sp,132
 725:C:/Users/stapi/OneDrive/Desktop/GD32VW553/V1_MQTT_OK/GD32VW55X_Wifi_BLE_SDK/GD32VW55x_RELEASE_V1.0.2/MSDK/cloud/alicloud/src/protocol/alcs\alcs_adapter.c **** 
 2298              		.loc 1 725 23
 2299 0252 2314F104 		sh	a5,72(sp)
 727:C:/Users/stapi/OneDrive/Desktop/GD32VW553/V1_MQTT_OK/GD32VW55X_Wifi_BLE_SDK/GD32VW55x_RELEASE_V1.0.2/MSDK/cloud/alicloud/src/protocol/alcs\alcs_adapter.c ****     token_payload.data = token;
 2300              		.loc 1 727 5 is_stmt 1
 727:C:/Users/stapi/OneDrive/Desktop/GD32VW553/V1_MQTT_OK/GD32VW55X_Wifi_BLE_SDK/GD32VW55x_RELEASE_V1.0.2/MSDK/cloud/alicloud/src/protocol/alcs\alcs_adapter.c ****     token_payload.data = token;
 2301              		.loc 1 727 23 is_stmt 0
 2302 0256 52D8     		sw	s4,48(sp)
 728:C:/Users/stapi/OneDrive/Desktop/GD32VW553/V1_MQTT_OK/GD32VW55X_Wifi_BLE_SDK/GD32VW55x_RELEASE_V1.0.2/MSDK/cloud/alicloud/src/protocol/alcs\alcs_adapter.c **** 
 2303              		.loc 1 728 5 is_stmt 1
 728:C:/Users/stapi/OneDrive/Desktop/GD32VW553/V1_MQTT_OK/GD32VW55X_Wifi_BLE_SDK/GD32VW55x_RELEASE_V1.0.2/MSDK/cloud/alicloud/src/protocol/alcs\alcs_adapter.c **** 
 2304              		.loc 1 728 24 is_stmt 0
 2305 0258 4EDA     		sw	s3,52(sp)
 731:C:/Users/stapi/OneDrive/Desktop/GD32VW553/V1_MQTT_OK/GD32VW55X_Wifi_BLE_SDK/GD32VW55x_RELEASE_V1.0.2/MSDK/cloud/alicloud/src/protocol/alcs\alcs_adapter.c ****     char productKey[PRODUCT_KEY_MAXLEN] = {0};
 2306              		.loc 1 731 5 is_stmt 1
 732:C:/Users/stapi/OneDrive/Desktop/GD32VW553/V1_MQTT_OK/GD32VW55X_Wifi_BLE_SDK/GD32VW55x_RELEASE_V1.0.2/MSDK/cloud/alicloud/src/protocol/alcs\alcs_adapter.c ****     char deviceName[DEVICE_NAME_MAXLEN] = {0};
 2307              		.loc 1 732 5
 732:C:/Users/stapi/OneDrive/Desktop/GD32VW553/V1_MQTT_OK/GD32VW55X_Wifi_BLE_SDK/GD32VW55x_RELEASE_V1.0.2/MSDK/cloud/alicloud/src/protocol/alcs\alcs_adapter.c ****     char deviceName[DEVICE_NAME_MAXLEN] = {0};
 2308              		.loc 1 732 10 is_stmt 0
 2309 025a 82C6     		sw	zero,76(sp)
 2310 025c 82C8     		sw	zero,80(sp)
 2311 025e 82CA     		sw	zero,84(sp)
 2312 0260 82CC     		sw	zero,88(sp)
 2313 0262 82CE     		sw	zero,92(sp)
 2314 0264 23000106 		sb	zero,96(sp)
 733:C:/Users/stapi/OneDrive/Desktop/GD32VW553/V1_MQTT_OK/GD32VW55X_Wifi_BLE_SDK/GD32VW55x_RELEASE_V1.0.2/MSDK/cloud/alicloud/src/protocol/alcs\alcs_adapter.c ****     char *uri_pk = NULL;
 2315              		.loc 1 733 5 is_stmt 1
 733:C:/Users/stapi/OneDrive/Desktop/GD32VW553/V1_MQTT_OK/GD32VW55X_Wifi_BLE_SDK/GD32VW55x_RELEASE_V1.0.2/MSDK/cloud/alicloud/src/protocol/alcs\alcs_adapter.c ****     char *uri_pk = NULL;
 2316              		.loc 1 733 10 is_stmt 0
 2317 0268 02C1     		sw	zero,128(sp)
 2318 026a 97000000 		call	memset
 2318      E7800000 
 2319              	.LVL255:
 734:C:/Users/stapi/OneDrive/Desktop/GD32VW553/V1_MQTT_OK/GD32VW55X_Wifi_BLE_SDK/GD32VW55x_RELEASE_V1.0.2/MSDK/cloud/alicloud/src/protocol/alcs\alcs_adapter.c ****     char *uri_dn = NULL;
 2320              		.loc 1 734 5 is_stmt 1
 735:C:/Users/stapi/OneDrive/Desktop/GD32VW553/V1_MQTT_OK/GD32VW55X_Wifi_BLE_SDK/GD32VW55x_RELEASE_V1.0.2/MSDK/cloud/alicloud/src/protocol/alcs\alcs_adapter.c ****     uint16_t uri_pk_len = 0;
 2321              		.loc 1 735 5
 736:C:/Users/stapi/OneDrive/Desktop/GD32VW553/V1_MQTT_OK/GD32VW55X_Wifi_BLE_SDK/GD32VW55x_RELEASE_V1.0.2/MSDK/cloud/alicloud/src/protocol/alcs\alcs_adapter.c ****     uint16_t uri_dn_len = 0;
 2322              		.loc 1 736 5
 740:C:/Users/stapi/OneDrive/Desktop/GD32VW553/V1_MQTT_OK/GD32VW55X_Wifi_BLE_SDK/GD32VW55x_RELEASE_V1.0.2/MSDK/cloud/alicloud/src/protocol/alcs\alcs_adapter.c **** 
 2323              		.loc 1 740 5 is_stmt 0
 2324 0272 4946     		li	a2,18
 2325 0274 2C18     		addi	a1,sp,56
 2326 0276 C810     		addi	a0,sp,100
 736:C:/Users/stapi/OneDrive/Desktop/GD32VW553/V1_MQTT_OK/GD32VW55X_Wifi_BLE_SDK/GD32VW55x_RELEASE_V1.0.2/MSDK/cloud/alicloud/src/protocol/alcs\alcs_adapter.c ****     uint16_t uri_dn_len = 0;
 2327              		.loc 1 736 14
 2328 0278 231E0100 		sh	zero,28(sp)
 737:C:/Users/stapi/OneDrive/Desktop/GD32VW553/V1_MQTT_OK/GD32VW55X_Wifi_BLE_SDK/GD32VW55x_RELEASE_V1.0.2/MSDK/cloud/alicloud/src/protocol/alcs\alcs_adapter.c **** 
 2329              		.loc 1 737 5 is_stmt 1
 737:C:/Users/stapi/OneDrive/Desktop/GD32VW553/V1_MQTT_OK/GD32VW55X_Wifi_BLE_SDK/GD32VW55x_RELEASE_V1.0.2/MSDK/cloud/alicloud/src/protocol/alcs\alcs_adapter.c **** 
 2330              		.loc 1 737 14 is_stmt 0
 2331 027c 231F0100 		sh	zero,30(sp)
 739:C:/Users/stapi/OneDrive/Desktop/GD32VW553/V1_MQTT_OK/GD32VW55X_Wifi_BLE_SDK/GD32VW55x_RELEASE_V1.0.2/MSDK/cloud/alicloud/src/protocol/alcs\alcs_adapter.c ****     memcpy(&devKey.addr, &network_addr, sizeof(NetworkAddr));
 2332              		.loc 1 739 5 is_stmt 1
 2333 0280 82DA     		sw	zero,116(sp)
 2334 0282 82DC     		sw	zero,120(sp)
 2335 0284 82DE     		sw	zero,124(sp)
 740:C:/Users/stapi/OneDrive/Desktop/GD32VW553/V1_MQTT_OK/GD32VW55X_Wifi_BLE_SDK/GD32VW55x_RELEASE_V1.0.2/MSDK/cloud/alicloud/src/protocol/alcs\alcs_adapter.c **** 
 2336              		.loc 1 740 5
 2337 0286 97000000 		call	memcpy
 2337      E7800000 
 2338              	.LVL256:
 742:C:/Users/stapi/OneDrive/Desktop/GD32VW553/V1_MQTT_OK/GD32VW55X_Wifi_BLE_SDK/GD32VW55x_RELEASE_V1.0.2/MSDK/cloud/alicloud/src/protocol/alcs\alcs_adapter.c ****     uri_dn = iotx_alcs_topic_parse_dn(msg->uri, &uri_dn_len);
 2339              		.loc 1 742 5
 742:C:/Users/stapi/OneDrive/Desktop/GD32VW553/V1_MQTT_OK/GD32VW55X_Wifi_BLE_SDK/GD32VW55x_RELEASE_V1.0.2/MSDK/cloud/alicloud/src/protocol/alcs\alcs_adapter.c ****     uri_dn = iotx_alcs_topic_parse_dn(msg->uri, &uri_dn_len);
 2340              		.loc 1 742 14 is_stmt 0
 2341 028e C848     		lw	a0,20(s1)
 2342 0290 6C08     		addi	a1,sp,28
 2343 0292 97000000 		call	iotx_alcs_topic_parse_pk.constprop.0
 2343      E7800000 
 2344              	.LVL257:
 2345 029a AA89     		mv	s3,a0
 2346              	.LVL258:
 743:C:/Users/stapi/OneDrive/Desktop/GD32VW553/V1_MQTT_OK/GD32VW55X_Wifi_BLE_SDK/GD32VW55x_RELEASE_V1.0.2/MSDK/cloud/alicloud/src/protocol/alcs\alcs_adapter.c **** 
 2347              		.loc 1 743 5 is_stmt 1
 743:C:/Users/stapi/OneDrive/Desktop/GD32VW553/V1_MQTT_OK/GD32VW55X_Wifi_BLE_SDK/GD32VW55x_RELEASE_V1.0.2/MSDK/cloud/alicloud/src/protocol/alcs\alcs_adapter.c **** 
 2348              		.loc 1 743 14 is_stmt 0
 2349 029c C848     		lw	a0,20(s1)
 2350              	.LVL259:
 2351 029e 9305E101 		addi	a1,sp,30
 2352 02a2 97000000 		call	iotx_alcs_topic_parse_dn
 2352      E7800000 
 2353              	.LVL260:
 2354 02aa 2A8A     		mv	s4,a0
 2355              	.LVL261:
 745:C:/Users/stapi/OneDrive/Desktop/GD32VW553/V1_MQTT_OK/GD32VW55X_Wifi_BLE_SDK/GD32VW55x_RELEASE_V1.0.2/MSDK/cloud/alicloud/src/protocol/alcs\alcs_adapter.c ****         uri_dn == NULL || uri_dn_len >= DEVICE_NAME_MAXLEN) {
 2356              		.loc 1 745 5 is_stmt 1
 745:C:/Users/stapi/OneDrive/Desktop/GD32VW553/V1_MQTT_OK/GD32VW55X_Wifi_BLE_SDK/GD32VW55x_RELEASE_V1.0.2/MSDK/cloud/alicloud/src/protocol/alcs\alcs_adapter.c ****         uri_dn == NULL || uri_dn_len >= DEVICE_NAME_MAXLEN) {
 2357              		.loc 1 745 8 is_stmt 0
 2358 02ac 638E0900 		beq	s3,zero,.L119
 745:C:/Users/stapi/OneDrive/Desktop/GD32VW553/V1_MQTT_OK/GD32VW55X_Wifi_BLE_SDK/GD32VW55x_RELEASE_V1.0.2/MSDK/cloud/alicloud/src/protocol/alcs\alcs_adapter.c ****         uri_dn == NULL || uri_dn_len >= DEVICE_NAME_MAXLEN) {
 2359              		.loc 1 745 38 discriminator 1
 2360 02b0 0356C101 		lhu	a2,28(sp)
 745:C:/Users/stapi/OneDrive/Desktop/GD32VW553/V1_MQTT_OK/GD32VW55X_Wifi_BLE_SDK/GD32VW55x_RELEASE_V1.0.2/MSDK/cloud/alicloud/src/protocol/alcs\alcs_adapter.c ****         uri_dn == NULL || uri_dn_len >= DEVICE_NAME_MAXLEN) {
 2361              		.loc 1 745 24 discriminator 1
 2362 02b4 D147     		li	a5,20
 2363 02b6 63E9C700 		bgtu	a2,a5,.L119
 745:C:/Users/stapi/OneDrive/Desktop/GD32VW553/V1_MQTT_OK/GD32VW55X_Wifi_BLE_SDK/GD32VW55x_RELEASE_V1.0.2/MSDK/cloud/alicloud/src/protocol/alcs\alcs_adapter.c ****         uri_dn == NULL || uri_dn_len >= DEVICE_NAME_MAXLEN) {
 2364              		.loc 1 745 60 discriminator 2
 2365 02ba 19C5     		beq	a0,zero,.L119
 746:C:/Users/stapi/OneDrive/Desktop/GD32VW553/V1_MQTT_OK/GD32VW55X_Wifi_BLE_SDK/GD32VW55x_RELEASE_V1.0.2/MSDK/cloud/alicloud/src/protocol/alcs\alcs_adapter.c ****         COAP_ERR("Invalid Parameter");
 2366              		.loc 1 746 38
 2367 02bc 835AE101 		lhu	s5,30(sp)
 746:C:/Users/stapi/OneDrive/Desktop/GD32VW553/V1_MQTT_OK/GD32VW55X_Wifi_BLE_SDK/GD32VW55x_RELEASE_V1.0.2/MSDK/cloud/alicloud/src/protocol/alcs\alcs_adapter.c ****         COAP_ERR("Invalid Parameter");
 2368              		.loc 1 746 24
 2369 02c0 93070002 		li	a5,32
 2370 02c4 63FF5701 		bleu	s5,a5,.L120
 2371              	.L119:
 747:C:/Users/stapi/OneDrive/Desktop/GD32VW553/V1_MQTT_OK/GD32VW55X_Wifi_BLE_SDK/GD32VW55x_RELEASE_V1.0.2/MSDK/cloud/alicloud/src/protocol/alcs\alcs_adapter.c ****         return FAIL_RETURN;
 2372              		.loc 1 747 9 is_stmt 1
 747:C:/Users/stapi/OneDrive/Desktop/GD32VW553/V1_MQTT_OK/GD32VW55X_Wifi_BLE_SDK/GD32VW55x_RELEASE_V1.0.2/MSDK/cloud/alicloud/src/protocol/alcs\alcs_adapter.c ****         return FAIL_RETURN;
 2373              		.loc 1 747 9
 2374 02c8 37050000 		lui	a0,%hi(.LC3)
 2375              	.LVL262:
 2376 02cc 13050500 		addi	a0,a0,%lo(.LC3)
 2377 02d0 97000000 		call	HAL_Printf
 2377      E7800000 
 2378              	.LVL263:
 747:C:/Users/stapi/OneDrive/Desktop/GD32VW553/V1_MQTT_OK/GD32VW55X_Wifi_BLE_SDK/GD32VW55x_RELEASE_V1.0.2/MSDK/cloud/alicloud/src/protocol/alcs\alcs_adapter.c ****         return FAIL_RETURN;
 2379              		.loc 1 747 9
 2380 02d8 37050000 		lui	a0,%hi(.LC4)
 2381 02dc 13050500 		addi	a0,a0,%lo(.LC4)
 2382 02e0 1DBF     		j	.L148
 2383              	.LVL264:
 2384              	.L120:
 750:C:/Users/stapi/OneDrive/Desktop/GD32VW553/V1_MQTT_OK/GD32VW55X_Wifi_BLE_SDK/GD32VW55x_RELEASE_V1.0.2/MSDK/cloud/alicloud/src/protocol/alcs\alcs_adapter.c ****     memcpy(deviceName, uri_dn, uri_dn_len);
 2385              		.loc 1 750 5
 2386 02e2 E000     		addi	s0,sp,76
 2387 02e4 CE85     		mv	a1,s3
 2388 02e6 2285     		mv	a0,s0
 2389              	.LVL265:
 2390 02e8 97000000 		call	memcpy
 2390      E7800000 
 2391              	.LVL266:
 751:C:/Users/stapi/OneDrive/Desktop/GD32VW553/V1_MQTT_OK/GD32VW55X_Wifi_BLE_SDK/GD32VW55x_RELEASE_V1.0.2/MSDK/cloud/alicloud/src/protocol/alcs\alcs_adapter.c **** 
 2392              		.loc 1 751 5
 2393 02f0 93090108 		addi	s3,sp,128
 2394              	.LVL267:
 2395 02f4 D285     		mv	a1,s4
 2396 02f6 5686     		mv	a2,s5
 2397 02f8 4E85     		mv	a0,s3
 2398 02fa 97000000 		call	memcpy
 2398      E7800000 
 2399              	.LVL268:
 753:C:/Users/stapi/OneDrive/Desktop/GD32VW553/V1_MQTT_OK/GD32VW55X_Wifi_BLE_SDK/GD32VW55x_RELEASE_V1.0.2/MSDK/cloud/alicloud/src/protocol/alcs\alcs_adapter.c ****     devKey.dn = deviceName;
 2400              		.loc 1 753 5
 757:C:/Users/stapi/OneDrive/Desktop/GD32VW553/V1_MQTT_OK/GD32VW55X_Wifi_BLE_SDK/GD32VW55x_RELEASE_V1.0.2/MSDK/cloud/alicloud/src/protocol/alcs\alcs_adapter.c ****         res = alcs_sendrsp_secure(adapter->coap_ctx, &devKey, &coap_msg, 0, 0, &token_payload);
 2401              		.loc 1 757 9 is_stmt 0
 2402 0302 CC48     		lw	a1,20(s1)
 2403 0304 03258900 		lw	a0,8(s2)
 753:C:/Users/stapi/OneDrive/Desktop/GD32VW553/V1_MQTT_OK/GD32VW55X_Wifi_BLE_SDK/GD32VW55x_RELEASE_V1.0.2/MSDK/cloud/alicloud/src/protocol/alcs\alcs_adapter.c ****     devKey.dn = deviceName;
 2404              		.loc 1 753 15
 2405 0308 A2DC     		sw	s0,120(sp)
 754:C:/Users/stapi/OneDrive/Desktop/GD32VW553/V1_MQTT_OK/GD32VW55X_Wifi_BLE_SDK/GD32VW55x_RELEASE_V1.0.2/MSDK/cloud/alicloud/src/protocol/alcs\alcs_adapter.c **** 
 2406              		.loc 1 754 5 is_stmt 1
 754:C:/Users/stapi/OneDrive/Desktop/GD32VW553/V1_MQTT_OK/GD32VW55X_Wifi_BLE_SDK/GD32VW55x_RELEASE_V1.0.2/MSDK/cloud/alicloud/src/protocol/alcs\alcs_adapter.c **** 
 2407              		.loc 1 754 15 is_stmt 0
 2408 030a CEDE     		sw	s3,124(sp)
 757:C:/Users/stapi/OneDrive/Desktop/GD32VW553/V1_MQTT_OK/GD32VW55X_Wifi_BLE_SDK/GD32VW55x_RELEASE_V1.0.2/MSDK/cloud/alicloud/src/protocol/alcs\alcs_adapter.c ****         res = alcs_sendrsp_secure(adapter->coap_ctx, &devKey, &coap_msg, 0, 0, &token_payload);
 2409              		.loc 1 757 5 is_stmt 1
 757:C:/Users/stapi/OneDrive/Desktop/GD32VW553/V1_MQTT_OK/GD32VW55X_Wifi_BLE_SDK/GD32VW55x_RELEASE_V1.0.2/MSDK/cloud/alicloud/src/protocol/alcs\alcs_adapter.c ****         res = alcs_sendrsp_secure(adapter->coap_ctx, &devKey, &coap_msg, 0, 0, &token_payload);
 2410              		.loc 1 757 9 is_stmt 0
 2411 030c 97000000 		call	alcs_resource_need_auth
 2411      E7800000 
 2412              	.LVL269:
 757:C:/Users/stapi/OneDrive/Desktop/GD32VW553/V1_MQTT_OK/GD32VW55X_Wifi_BLE_SDK/GD32VW55x_RELEASE_V1.0.2/MSDK/cloud/alicloud/src/protocol/alcs\alcs_adapter.c ****         res = alcs_sendrsp_secure(adapter->coap_ctx, &devKey, &coap_msg, 0, 0, &token_payload);
 2413              		.loc 1 757 8
 2414 0314 31C5     		beq	a0,zero,.L121
 758:C:/Users/stapi/OneDrive/Desktop/GD32VW553/V1_MQTT_OK/GD32VW55X_Wifi_BLE_SDK/GD32VW55x_RELEASE_V1.0.2/MSDK/cloud/alicloud/src/protocol/alcs\alcs_adapter.c ****     } else {
 2415              		.loc 1 758 9 is_stmt 1
 758:C:/Users/stapi/OneDrive/Desktop/GD32VW553/V1_MQTT_OK/GD32VW55X_Wifi_BLE_SDK/GD32VW55x_RELEASE_V1.0.2/MSDK/cloud/alicloud/src/protocol/alcs\alcs_adapter.c ****     } else {
 2416              		.loc 1 758 15 is_stmt 0
 2417 0316 03258900 		lw	a0,8(s2)
 2418 031a 1C18     		addi	a5,sp,48
 2419 031c 0147     		li	a4,0
 2420 031e 8146     		li	a3,0
 2421 0320 3002     		addi	a2,sp,264
 2422 0322 CC10     		addi	a1,sp,100
 2423 0324 97000000 		call	alcs_sendrsp_secure
 2423      E7800000 
 2424              	.LVL270:
 2425              	.L145:
 2426              	.LBB48:
 777:C:/Users/stapi/OneDrive/Desktop/GD32VW553/V1_MQTT_OK/GD32VW55X_Wifi_BLE_SDK/GD32VW55x_RELEASE_V1.0.2/MSDK/cloud/alicloud/src/protocol/alcs\alcs_adapter.c ****     }
 2427              		.loc 1 777 15
 2428 032c 2A84     		mv	s0,a0
 2429              	.LVL271:
 2430              	.LBE48:
 780:C:/Users/stapi/OneDrive/Desktop/GD32VW553/V1_MQTT_OK/GD32VW55X_Wifi_BLE_SDK/GD32VW55x_RELEASE_V1.0.2/MSDK/cloud/alicloud/src/protocol/alcs\alcs_adapter.c **** 
 2431              		.loc 1 780 5 is_stmt 1
 2432 032e 2802     		addi	a0,sp,264
 2433 0330 97000000 		call	alcs_msg_deinit
 2433      E7800000 
 2434              	.LVL272:
 782:C:/Users/stapi/OneDrive/Desktop/GD32VW553/V1_MQTT_OK/GD32VW55X_Wifi_BLE_SDK/GD32VW55x_RELEASE_V1.0.2/MSDK/cloud/alicloud/src/protocol/alcs\alcs_adapter.c ****         COAP_ERR("ALCS Message Send Failed %d", res);
 2435              		.loc 1 782 5
 782:C:/Users/stapi/OneDrive/Desktop/GD32VW553/V1_MQTT_OK/GD32VW55X_Wifi_BLE_SDK/GD32VW55x_RELEASE_V1.0.2/MSDK/cloud/alicloud/src/protocol/alcs\alcs_adapter.c ****         COAP_ERR("ALCS Message Send Failed %d", res);
 2436              		.loc 1 782 8 is_stmt 0
 2437 0338 E30804D0 		beq	s0,zero,.L107
 783:C:/Users/stapi/OneDrive/Desktop/GD32VW553/V1_MQTT_OK/GD32VW55X_Wifi_BLE_SDK/GD32VW55x_RELEASE_V1.0.2/MSDK/cloud/alicloud/src/protocol/alcs\alcs_adapter.c ****         return FAIL_RETURN;
 2438              		.loc 1 783 9 is_stmt 1
 783:C:/Users/stapi/OneDrive/Desktop/GD32VW553/V1_MQTT_OK/GD32VW55X_Wifi_BLE_SDK/GD32VW55x_RELEASE_V1.0.2/MSDK/cloud/alicloud/src/protocol/alcs\alcs_adapter.c ****         return FAIL_RETURN;
 2439              		.loc 1 783 9
 2440 033c 37050000 		lui	a0,%hi(.LC3)
 2441 0340 13050500 		addi	a0,a0,%lo(.LC3)
 2442 0344 97000000 		call	HAL_Printf
 2442      E7800000 
 2443              	.LVL273:
 783:C:/Users/stapi/OneDrive/Desktop/GD32VW553/V1_MQTT_OK/GD32VW55X_Wifi_BLE_SDK/GD32VW55x_RELEASE_V1.0.2/MSDK/cloud/alicloud/src/protocol/alcs\alcs_adapter.c ****         return FAIL_RETURN;
 2444              		.loc 1 783 9
 2445 034c 37050000 		lui	a0,%hi(.LC34)
 2446 0350 A285     		mv	a1,s0
 2447 0352 13050500 		addi	a0,a0,%lo(.LC34)
 2448 0356 97000000 		call	HAL_Printf
 2448      E7800000 
 2449              	.LVL274:
 2450 035e 41BB     		j	.L147
 2451              	.LVL275:
 2452              	.L121:
 2453              	.LBB50:
 761:C:/Users/stapi/OneDrive/Desktop/GD32VW553/V1_MQTT_OK/GD32VW55X_Wifi_BLE_SDK/GD32VW55x_RELEASE_V1.0.2/MSDK/cloud/alicloud/src/protocol/alcs\alcs_adapter.c ****         if (strcmp(msg->uri, DM_URI_DEV_CORE_SERVICE_DEV) == 0) {
 2454              		.loc 1 761 9
 762:C:/Users/stapi/OneDrive/Desktop/GD32VW553/V1_MQTT_OK/GD32VW55X_Wifi_BLE_SDK/GD32VW55x_RELEASE_V1.0.2/MSDK/cloud/alicloud/src/protocol/alcs\alcs_adapter.c ****             char ck[PK_DN_CHECKSUM_LEN] = {0};
 2455              		.loc 1 762 9
 762:C:/Users/stapi/OneDrive/Desktop/GD32VW553/V1_MQTT_OK/GD32VW55X_Wifi_BLE_SDK/GD32VW55x_RELEASE_V1.0.2/MSDK/cloud/alicloud/src/protocol/alcs\alcs_adapter.c ****             char ck[PK_DN_CHECKSUM_LEN] = {0};
 2456              		.loc 1 762 13 is_stmt 0
 2457 0360 C848     		lw	a0,20(s1)
 2458 0362 B7050000 		lui	a1,%hi(DM_URI_DEV_CORE_SERVICE_DEV)
 2459 0366 93850500 		addi	a1,a1,%lo(DM_URI_DEV_CORE_SERVICE_DEV)
 2460 036a 97000000 		call	strcmp
 2460      E7800000 
 2461              	.LVL276:
 762:C:/Users/stapi/OneDrive/Desktop/GD32VW553/V1_MQTT_OK/GD32VW55X_Wifi_BLE_SDK/GD32VW55x_RELEASE_V1.0.2/MSDK/cloud/alicloud/src/protocol/alcs\alcs_adapter.c ****             char ck[PK_DN_CHECKSUM_LEN] = {0};
 2462              		.loc 1 762 12
 2463 0372 69E5     		bne	a0,zero,.L123
 2464              	.LBB49:
 763:C:/Users/stapi/OneDrive/Desktop/GD32VW553/V1_MQTT_OK/GD32VW55X_Wifi_BLE_SDK/GD32VW55x_RELEASE_V1.0.2/MSDK/cloud/alicloud/src/protocol/alcs\alcs_adapter.c ****             char path[100] = {0};
 2465              		.loc 1 763 13 is_stmt 1
 764:C:/Users/stapi/OneDrive/Desktop/GD32VW553/V1_MQTT_OK/GD32VW55X_Wifi_BLE_SDK/GD32VW55x_RELEASE_V1.0.2/MSDK/cloud/alicloud/src/protocol/alcs\alcs_adapter.c ****             HAL_GetProductKey(productKey);
 2466              		.loc 1 764 18 is_stmt 0
 2467 0374 13060006 		li	a2,96
 2468 0378 8145     		li	a1,0
 2469 037a 2811     		addi	a0,sp,168
 763:C:/Users/stapi/OneDrive/Desktop/GD32VW553/V1_MQTT_OK/GD32VW55X_Wifi_BLE_SDK/GD32VW55x_RELEASE_V1.0.2/MSDK/cloud/alicloud/src/protocol/alcs\alcs_adapter.c ****             char path[100] = {0};
 2470              		.loc 1 763 18
 2471 037c 02D0     		sw	zero,32(sp)
 2472 037e 23120102 		sh	zero,36(sp)
 764:C:/Users/stapi/OneDrive/Desktop/GD32VW553/V1_MQTT_OK/GD32VW55X_Wifi_BLE_SDK/GD32VW55x_RELEASE_V1.0.2/MSDK/cloud/alicloud/src/protocol/alcs\alcs_adapter.c ****             HAL_GetProductKey(productKey);
 2473              		.loc 1 764 13 is_stmt 1
 764:C:/Users/stapi/OneDrive/Desktop/GD32VW553/V1_MQTT_OK/GD32VW55X_Wifi_BLE_SDK/GD32VW55x_RELEASE_V1.0.2/MSDK/cloud/alicloud/src/protocol/alcs\alcs_adapter.c ****             HAL_GetProductKey(productKey);
 2474              		.loc 1 764 18 is_stmt 0
 2475 0382 02D3     		sw	zero,164(sp)
 2476 0384 97000000 		call	memset
 2476      E7800000 
 2477              	.LVL277:
 765:C:/Users/stapi/OneDrive/Desktop/GD32VW553/V1_MQTT_OK/GD32VW55X_Wifi_BLE_SDK/GD32VW55x_RELEASE_V1.0.2/MSDK/cloud/alicloud/src/protocol/alcs\alcs_adapter.c ****             HAL_GetDeviceName(deviceName);
 2478              		.loc 1 765 13 is_stmt 1
 2479 038c 2285     		mv	a0,s0
 2480 038e 97000000 		call	HAL_GetProductKey
 2480      E7800000 
 2481              	.LVL278:
 766:C:/Users/stapi/OneDrive/Desktop/GD32VW553/V1_MQTT_OK/GD32VW55X_Wifi_BLE_SDK/GD32VW55x_RELEASE_V1.0.2/MSDK/cloud/alicloud/src/protocol/alcs\alcs_adapter.c ****             snprintf (path, sizeof(path), "%s%s", productKey, deviceName);
 2482              		.loc 1 766 13
 2483 0396 4E85     		mv	a0,s3
 2484 0398 97000000 		call	HAL_GetDeviceName
 2484      E7800000 
 2485              	.LVL279:
 767:C:/Users/stapi/OneDrive/Desktop/GD32VW553/V1_MQTT_OK/GD32VW55X_Wifi_BLE_SDK/GD32VW55x_RELEASE_V1.0.2/MSDK/cloud/alicloud/src/protocol/alcs\alcs_adapter.c ****             CoAPPathMD5_sum (path, strlen(path), ck, PK_DN_CHECKSUM_LEN);
 2486              		.loc 1 767 13
 2487 03a0 37060000 		lui	a2,%hi(.LC32)
 2488 03a4 4E87     		mv	a4,s3
 2489 03a6 A286     		mv	a3,s0
 2490 03a8 13060600 		addi	a2,a2,%lo(.LC32)
 2491 03ac 93054006 		li	a1,100
 2492 03b0 4811     		addi	a0,sp,164
 2493 03b2 97000000 		call	snprintf
 2493      E7800000 
 2494              	.LVL280:
 768:C:/Users/stapi/OneDrive/Desktop/GD32VW553/V1_MQTT_OK/GD32VW55X_Wifi_BLE_SDK/GD32VW55x_RELEASE_V1.0.2/MSDK/cloud/alicloud/src/protocol/alcs\alcs_adapter.c ****             struct list_head* sessions1 = get_svr_session_list();
 2495              		.loc 1 768 13
 768:C:/Users/stapi/OneDrive/Desktop/GD32VW553/V1_MQTT_OK/GD32VW55X_Wifi_BLE_SDK/GD32VW55x_RELEASE_V1.0.2/MSDK/cloud/alicloud/src/protocol/alcs\alcs_adapter.c ****             struct list_head* sessions1 = get_svr_session_list();
 2496              		.loc 1 768 36 is_stmt 0
 2497 03ba 4811     		addi	a0,sp,164
 2498 03bc 97000000 		call	strlen
 2498      E7800000 
 2499              	.LVL281:
 2500 03c4 AA85     		mv	a1,a0
 768:C:/Users/stapi/OneDrive/Desktop/GD32VW553/V1_MQTT_OK/GD32VW55X_Wifi_BLE_SDK/GD32VW55x_RELEASE_V1.0.2/MSDK/cloud/alicloud/src/protocol/alcs\alcs_adapter.c ****             struct list_head* sessions1 = get_svr_session_list();
 2501              		.loc 1 768 13
 2502 03c6 9946     		li	a3,6
 2503 03c8 1010     		addi	a2,sp,32
 2504 03ca 4811     		addi	a0,sp,164
 2505 03cc 97000000 		call	CoAPPathMD5_sum
 2505      E7800000 
 2506              	.LVL282:
 769:C:/Users/stapi/OneDrive/Desktop/GD32VW553/V1_MQTT_OK/GD32VW55X_Wifi_BLE_SDK/GD32VW55x_RELEASE_V1.0.2/MSDK/cloud/alicloud/src/protocol/alcs\alcs_adapter.c ****             session_item* node1 = get_session_by_checksum (sessions1, &network_addr, ck);
 2507              		.loc 1 769 13 is_stmt 1
 769:C:/Users/stapi/OneDrive/Desktop/GD32VW553/V1_MQTT_OK/GD32VW55X_Wifi_BLE_SDK/GD32VW55x_RELEASE_V1.0.2/MSDK/cloud/alicloud/src/protocol/alcs\alcs_adapter.c ****             session_item* node1 = get_session_by_checksum (sessions1, &network_addr, ck);
 2508              		.loc 1 769 43 is_stmt 0
 2509 03d4 B7070000 		lui	a5,%hi(_device+44)
 2510 03d8 83C7C702 		lbu	a5,%lo(_device+44)(a5)
 2511 03dc 0145     		li	a0,0
 2512 03de 898B     		andi	a5,a5,2
 2513 03e0 89C7     		beq	a5,zero,.L124
 2514 03e2 37050000 		lui	a0,%hi(_device+28)
 2515 03e6 1305C501 		addi	a0,a0,%lo(_device+28)
 2516              	.L124:
 2517              	.LVL283:
 770:C:/Users/stapi/OneDrive/Desktop/GD32VW553/V1_MQTT_OK/GD32VW55X_Wifi_BLE_SDK/GD32VW55x_RELEASE_V1.0.2/MSDK/cloud/alicloud/src/protocol/alcs\alcs_adapter.c ****             if (node1 && node1->sessionId) {
 2518              		.loc 1 770 13 is_stmt 1 discriminator 4
 770:C:/Users/stapi/OneDrive/Desktop/GD32VW553/V1_MQTT_OK/GD32VW55X_Wifi_BLE_SDK/GD32VW55x_RELEASE_V1.0.2/MSDK/cloud/alicloud/src/protocol/alcs\alcs_adapter.c ****             if (node1 && node1->sessionId) {
 2519              		.loc 1 770 35 is_stmt 0 discriminator 4
 2520 03ea 1010     		addi	a2,sp,32
 2521 03ec 2C18     		addi	a1,sp,56
 2522 03ee 97000000 		call	get_session_by_checksum
 2522      E7800000 
 2523              	.LVL284:
 2524 03f6 2A84     		mv	s0,a0
 2525              	.LVL285:
 771:C:/Users/stapi/OneDrive/Desktop/GD32VW553/V1_MQTT_OK/GD32VW55X_Wifi_BLE_SDK/GD32VW55x_RELEASE_V1.0.2/MSDK/cloud/alicloud/src/protocol/alcs\alcs_adapter.c ****                 node1->heart_time = HAL_UptimeMs();
 2526              		.loc 1 771 13 is_stmt 1 discriminator 4
 771:C:/Users/stapi/OneDrive/Desktop/GD32VW553/V1_MQTT_OK/GD32VW55X_Wifi_BLE_SDK/GD32VW55x_RELEASE_V1.0.2/MSDK/cloud/alicloud/src/protocol/alcs\alcs_adapter.c ****                 node1->heart_time = HAL_UptimeMs();
 2527              		.loc 1 771 16 is_stmt 0 discriminator 4
 2528 03f8 31C1     		beq	a0,zero,.L123
 771:C:/Users/stapi/OneDrive/Desktop/GD32VW553/V1_MQTT_OK/GD32VW55X_Wifi_BLE_SDK/GD32VW55x_RELEASE_V1.0.2/MSDK/cloud/alicloud/src/protocol/alcs\alcs_adapter.c ****                 node1->heart_time = HAL_UptimeMs();
 2529              		.loc 1 771 23 discriminator 1
 2530 03fa 1C41     		lw	a5,0(a0)
 2531 03fc A1C3     		beq	a5,zero,.L123
 772:C:/Users/stapi/OneDrive/Desktop/GD32VW553/V1_MQTT_OK/GD32VW55X_Wifi_BLE_SDK/GD32VW55x_RELEASE_V1.0.2/MSDK/cloud/alicloud/src/protocol/alcs\alcs_adapter.c ****                 COAP_INFO("%s, %p", path, node1);
 2532              		.loc 1 772 17 is_stmt 1
 772:C:/Users/stapi/OneDrive/Desktop/GD32VW553/V1_MQTT_OK/GD32VW55X_Wifi_BLE_SDK/GD32VW55x_RELEASE_V1.0.2/MSDK/cloud/alicloud/src/protocol/alcs\alcs_adapter.c ****                 COAP_INFO("%s, %p", path, node1);
 2533              		.loc 1 772 37 is_stmt 0
 2534 03fe 97000000 		call	HAL_UptimeMs
 2534      E7800000 
 2535              	.LVL286:
 772:C:/Users/stapi/OneDrive/Desktop/GD32VW553/V1_MQTT_OK/GD32VW55X_Wifi_BLE_SDK/GD32VW55x_RELEASE_V1.0.2/MSDK/cloud/alicloud/src/protocol/alcs\alcs_adapter.c ****                 COAP_INFO("%s, %p", path, node1);
 2536              		.loc 1 772 35
 2537 0406 68C4     		sw	a0,76(s0)
 773:C:/Users/stapi/OneDrive/Desktop/GD32VW553/V1_MQTT_OK/GD32VW55X_Wifi_BLE_SDK/GD32VW55x_RELEASE_V1.0.2/MSDK/cloud/alicloud/src/protocol/alcs\alcs_adapter.c ****             }
 2538              		.loc 1 773 17 is_stmt 1
 773:C:/Users/stapi/OneDrive/Desktop/GD32VW553/V1_MQTT_OK/GD32VW55X_Wifi_BLE_SDK/GD32VW55x_RELEASE_V1.0.2/MSDK/cloud/alicloud/src/protocol/alcs\alcs_adapter.c ****             }
 2539              		.loc 1 773 17
 2540 0408 37050000 		lui	a0,%hi(.LC0)
 2541 040c 13050500 		addi	a0,a0,%lo(.LC0)
 2542 0410 97000000 		call	HAL_Printf
 2542      E7800000 
 2543              	.LVL287:
 773:C:/Users/stapi/OneDrive/Desktop/GD32VW553/V1_MQTT_OK/GD32VW55X_Wifi_BLE_SDK/GD32VW55x_RELEASE_V1.0.2/MSDK/cloud/alicloud/src/protocol/alcs\alcs_adapter.c ****             }
 2544              		.loc 1 773 17
 2545 0418 37050000 		lui	a0,%hi(.LC33)
 2546 041c 13050500 		addi	a0,a0,%lo(.LC33)
 2547 0420 2286     		mv	a2,s0
 2548 0422 4C11     		addi	a1,sp,164
 2549 0424 97000000 		call	HAL_Printf
 2549      E7800000 
 2550              	.LVL288:
 773:C:/Users/stapi/OneDrive/Desktop/GD32VW553/V1_MQTT_OK/GD32VW55X_Wifi_BLE_SDK/GD32VW55x_RELEASE_V1.0.2/MSDK/cloud/alicloud/src/protocol/alcs\alcs_adapter.c ****             }
 2551              		.loc 1 773 17
 2552 042c 37050000 		lui	a0,%hi(.LC2)
 2553 0430 13050500 		addi	a0,a0,%lo(.LC2)
 2554 0434 97000000 		call	HAL_Printf
 2554      E7800000 
 2555              	.LVL289:
 773:C:/Users/stapi/OneDrive/Desktop/GD32VW553/V1_MQTT_OK/GD32VW55X_Wifi_BLE_SDK/GD32VW55x_RELEASE_V1.0.2/MSDK/cloud/alicloud/src/protocol/alcs\alcs_adapter.c ****             }
 2556              		.loc 1 773 17
 2557              	.L123:
 2558              	.LBE49:
 777:C:/Users/stapi/OneDrive/Desktop/GD32VW553/V1_MQTT_OK/GD32VW55X_Wifi_BLE_SDK/GD32VW55x_RELEASE_V1.0.2/MSDK/cloud/alicloud/src/protocol/alcs\alcs_adapter.c ****     }
 2559              		.loc 1 777 9
 777:C:/Users/stapi/OneDrive/Desktop/GD32VW553/V1_MQTT_OK/GD32VW55X_Wifi_BLE_SDK/GD32VW55x_RELEASE_V1.0.2/MSDK/cloud/alicloud/src/protocol/alcs\alcs_adapter.c ****     }
 2560              		.loc 1 777 15 is_stmt 0
 2561 043c 03258900 		lw	a0,8(s2)
 2562 0440 1C18     		addi	a5,sp,48
 2563 0442 0147     		li	a4,0
 2564 0444 8146     		li	a3,0
 2565 0446 3002     		addi	a2,sp,264
 2566 0448 2C18     		addi	a1,sp,56
 2567 044a 97000000 		call	alcs_sendrsp
 2567      E7800000 
 2568              	.LVL290:
 2569 0452 E9BD     		j	.L145
 2570              	.LBE50:
 2571              		.cfi_endproc
 2572              	.LFE37:
 2574              		.section	.rodata.iotx_alcs_register_resource.str1.4,"aMS",@progbits,1
 2575              		.align	2
 2576              	.LC35:
 2577 0000 7265736F 		.string	"resource->uri"
 2577      75726365 
 2577      2D3E7572 
 2577      6900
 2578 000e 0000     		.align	2
 2579              	.LC36:
 2580 0010 616C6373 		.string	"alcs register resource, uri:%s"
 2580      20726567 
 2580      69737465 
 2580      72207265 
 2580      736F7572 
 2581 002f 00       		.align	2
 2582              	.LC37:
 2583 0030 414C4353 		.string	"ALCS Register Resource Failed, Code: %d"
 2583      20526567 
 2583      69737465 
 2583      72205265 
 2583      736F7572 
 2584              		.section	.text.iotx_alcs_register_resource,"ax",@progbits
 2585              		.align	1
 2586              		.globl	iotx_alcs_register_resource
 2588              	iotx_alcs_register_resource:
 2589              	.LFB38:
 789:C:/Users/stapi/OneDrive/Desktop/GD32VW553/V1_MQTT_OK/GD32VW55X_Wifi_BLE_SDK/GD32VW55x_RELEASE_V1.0.2/MSDK/cloud/alicloud/src/protocol/alcs\alcs_adapter.c **** 
 790:C:/Users/stapi/OneDrive/Desktop/GD32VW553/V1_MQTT_OK/GD32VW55X_Wifi_BLE_SDK/GD32VW55x_RELEASE_V1.0.2/MSDK/cloud/alicloud/src/protocol/alcs\alcs_adapter.c **** int iotx_alcs_register_resource(void *handle, iotx_alcs_res_t *resource)
 791:C:/Users/stapi/OneDrive/Desktop/GD32VW553/V1_MQTT_OK/GD32VW55X_Wifi_BLE_SDK/GD32VW55x_RELEASE_V1.0.2/MSDK/cloud/alicloud/src/protocol/alcs\alcs_adapter.c **** {
 2590              		.loc 1 791 1 is_stmt 1
 2591              		.cfi_startproc
 2592              	.LVL291:
 2593 0000 17030000 		call	t0,__riscv_save_6
 2593      E7020300 
 2594              		.cfi_offset 21, -28
 2595              		.cfi_offset 20, -24
 2596              		.cfi_offset 19, -20
 2597              		.cfi_offset 18, -16
 2598              		.cfi_offset 9, -12
 2599              		.cfi_offset 8, -8
 2600              		.cfi_offset 1, -4
 2601              		.cfi_def_cfa_offset 32
 792:C:/Users/stapi/OneDrive/Desktop/GD32VW553/V1_MQTT_OK/GD32VW55X_Wifi_BLE_SDK/GD32VW55x_RELEASE_V1.0.2/MSDK/cloud/alicloud/src/protocol/alcs\alcs_adapter.c ****     int res = 0;
 2602              		.loc 1 792 5
 2603              	.LVL292:
 793:C:/Users/stapi/OneDrive/Desktop/GD32VW553/V1_MQTT_OK/GD32VW55X_Wifi_BLE_SDK/GD32VW55x_RELEASE_V1.0.2/MSDK/cloud/alicloud/src/protocol/alcs\alcs_adapter.c ****     iotx_alcs_adapter_t *adapter = (iotx_alcs_adapter_t *)handle;
 2604              		.loc 1 793 5
 791:C:/Users/stapi/OneDrive/Desktop/GD32VW553/V1_MQTT_OK/GD32VW55X_Wifi_BLE_SDK/GD32VW55x_RELEASE_V1.0.2/MSDK/cloud/alicloud/src/protocol/alcs\alcs_adapter.c ****     int res = 0;
 2605              		.loc 1 791 1 is_stmt 0
 2606 0008 1D71     		addi	sp,sp,-96
 2607              		.cfi_def_cfa_offset 128
 791:C:/Users/stapi/OneDrive/Desktop/GD32VW553/V1_MQTT_OK/GD32VW55X_Wifi_BLE_SDK/GD32VW55x_RELEASE_V1.0.2/MSDK/cloud/alicloud/src/protocol/alcs\alcs_adapter.c ****     int res = 0;
 2608              		.loc 1 791 1
 2609 000a 2A89     		mv	s2,a0
 2610              	.LVL293:
 794:C:/Users/stapi/OneDrive/Desktop/GD32VW553/V1_MQTT_OK/GD32VW55X_Wifi_BLE_SDK/GD32VW55x_RELEASE_V1.0.2/MSDK/cloud/alicloud/src/protocol/alcs\alcs_adapter.c ****     char productKey[PRODUCT_KEY_MAXLEN] = {0};
 2611              		.loc 1 794 5 is_stmt 1
 791:C:/Users/stapi/OneDrive/Desktop/GD32VW553/V1_MQTT_OK/GD32VW55X_Wifi_BLE_SDK/GD32VW55x_RELEASE_V1.0.2/MSDK/cloud/alicloud/src/protocol/alcs\alcs_adapter.c ****     int res = 0;
 2612              		.loc 1 791 1 is_stmt 0
 2613 000c 2E84     		mv	s0,a1
 795:C:/Users/stapi/OneDrive/Desktop/GD32VW553/V1_MQTT_OK/GD32VW55X_Wifi_BLE_SDK/GD32VW55x_RELEASE_V1.0.2/MSDK/cloud/alicloud/src/protocol/alcs\alcs_adapter.c ****     char deviceName[DEVICE_NAME_MAXLEN] = {0};
 2614              		.loc 1 795 10
 2615 000e 7546     		li	a2,29
 2616 0010 8145     		li	a1,0
 2617              	.LVL294:
 2618 0012 8800     		addi	a0,sp,64
 2619              	.LVL295:
 794:C:/Users/stapi/OneDrive/Desktop/GD32VW553/V1_MQTT_OK/GD32VW55X_Wifi_BLE_SDK/GD32VW55x_RELEASE_V1.0.2/MSDK/cloud/alicloud/src/protocol/alcs\alcs_adapter.c ****     char productKey[PRODUCT_KEY_MAXLEN] = {0};
 2620              		.loc 1 794 10
 2621 0014 02D2     		sw	zero,36(sp)
 2622 0016 02D4     		sw	zero,40(sp)
 2623 0018 02D6     		sw	zero,44(sp)
 2624 001a 02D8     		sw	zero,48(sp)
 2625 001c 02DA     		sw	zero,52(sp)
 2626 001e 230C0102 		sb	zero,56(sp)
 2627              		.loc 1 795 5 is_stmt 1
 2628              		.loc 1 795 10 is_stmt 0
 2629 0022 02DE     		sw	zero,60(sp)
 2630 0024 97000000 		call	memset
 2630      E7800000 
 2631              	.LVL296:
 796:C:/Users/stapi/OneDrive/Desktop/GD32VW553/V1_MQTT_OK/GD32VW55X_Wifi_BLE_SDK/GD32VW55x_RELEASE_V1.0.2/MSDK/cloud/alicloud/src/protocol/alcs\alcs_adapter.c ****     char *uri_pk = NULL;
 2632              		.loc 1 796 5 is_stmt 1
 797:C:/Users/stapi/OneDrive/Desktop/GD32VW553/V1_MQTT_OK/GD32VW55X_Wifi_BLE_SDK/GD32VW55x_RELEASE_V1.0.2/MSDK/cloud/alicloud/src/protocol/alcs\alcs_adapter.c ****     char *uri_dn = NULL;
 2633              		.loc 1 797 5
 798:C:/Users/stapi/OneDrive/Desktop/GD32VW553/V1_MQTT_OK/GD32VW55X_Wifi_BLE_SDK/GD32VW55x_RELEASE_V1.0.2/MSDK/cloud/alicloud/src/protocol/alcs\alcs_adapter.c ****     uint16_t uri_pk_len = 0;
 2634              		.loc 1 798 5
 2635              		.loc 1 798 14 is_stmt 0
 2636 002c 23100102 		sh	zero,32(sp)
 799:C:/Users/stapi/OneDrive/Desktop/GD32VW553/V1_MQTT_OK/GD32VW55X_Wifi_BLE_SDK/GD32VW55x_RELEASE_V1.0.2/MSDK/cloud/alicloud/src/protocol/alcs\alcs_adapter.c ****     uint16_t uri_dn_len = 0;
 2637              		.loc 1 799 5 is_stmt 1
 2638              		.loc 1 799 14 is_stmt 0
 2639 0030 23110102 		sh	zero,34(sp)
 800:C:/Users/stapi/OneDrive/Desktop/GD32VW553/V1_MQTT_OK/GD32VW55X_Wifi_BLE_SDK/GD32VW55x_RELEASE_V1.0.2/MSDK/cloud/alicloud/src/protocol/alcs\alcs_adapter.c **** 
 801:C:/Users/stapi/OneDrive/Desktop/GD32VW553/V1_MQTT_OK/GD32VW55X_Wifi_BLE_SDK/GD32VW55x_RELEASE_V1.0.2/MSDK/cloud/alicloud/src/protocol/alcs\alcs_adapter.c ****     POINTER_SANITY_CHECK(adapter, NULL_VALUE_ERROR);
 2640              		.loc 1 801 5 is_stmt 1
 2641              		.loc 1 801 5
 2642 0034 B7040000 		lui	s1,%hi(.LC2)
 2643 0038 63140904 		bne	s2,zero,.L153
 2644              		.loc 1 801 5 discriminator 1
 2645              		.loc 1 801 5 discriminator 1
 2646 003c 37050000 		lui	a0,%hi(.LC3)
 2647 0040 13050500 		addi	a0,a0,%lo(.LC3)
 2648 0044 97000000 		call	HAL_Printf
 2648      E7800000 
 2649              	.LVL297:
 2650              		.loc 1 801 5 discriminator 1
 2651 004c B7050000 		lui	a1,%hi(.LC24)
 2652 0050 0146     		li	a2,0
 2653 0052 93850500 		addi	a1,a1,%lo(.LC24)
 2654              	.L170:
 802:C:/Users/stapi/OneDrive/Desktop/GD32VW553/V1_MQTT_OK/GD32VW55X_Wifi_BLE_SDK/GD32VW55x_RELEASE_V1.0.2/MSDK/cloud/alicloud/src/protocol/alcs\alcs_adapter.c ****     POINTER_SANITY_CHECK(adapter->coap_ctx, NULL_VALUE_ERROR);
 2655              		.loc 1 802 5 is_stmt 0 discriminator 1
 2656 0056 37050000 		lui	a0,%hi(.LC16)
 2657 005a 13050500 		addi	a0,a0,%lo(.LC16)
 2658 005e 97000000 		call	HAL_Printf
 2658      E7800000 
 2659              	.LVL298:
 2660              		.loc 1 802 5 is_stmt 1 discriminator 1
 2661 0066 13850400 		addi	a0,s1,%lo(.LC2)
 2662 006a 97000000 		call	HAL_Printf
 2662      E7800000 
 2663              	.LVL299:
 2664              		.loc 1 802 5 discriminator 1
 2665              		.loc 1 802 5 discriminator 1
 2666 0072 F955     		li	a1,-2
 2667              	.LVL300:
 2668              	.L152:
 803:C:/Users/stapi/OneDrive/Desktop/GD32VW553/V1_MQTT_OK/GD32VW55X_Wifi_BLE_SDK/GD32VW55x_RELEASE_V1.0.2/MSDK/cloud/alicloud/src/protocol/alcs\alcs_adapter.c **** 
 804:C:/Users/stapi/OneDrive/Desktop/GD32VW553/V1_MQTT_OK/GD32VW55X_Wifi_BLE_SDK/GD32VW55x_RELEASE_V1.0.2/MSDK/cloud/alicloud/src/protocol/alcs\alcs_adapter.c ****     STRING_PTR_SANITY_CHECK(resource->uri, FAIL_RETURN);
 805:C:/Users/stapi/OneDrive/Desktop/GD32VW553/V1_MQTT_OK/GD32VW55X_Wifi_BLE_SDK/GD32VW55x_RELEASE_V1.0.2/MSDK/cloud/alicloud/src/protocol/alcs\alcs_adapter.c **** 
 806:C:/Users/stapi/OneDrive/Desktop/GD32VW553/V1_MQTT_OK/GD32VW55X_Wifi_BLE_SDK/GD32VW55x_RELEASE_V1.0.2/MSDK/cloud/alicloud/src/protocol/alcs\alcs_adapter.c ****     uri_pk = iotx_alcs_topic_parse_pk(resource->uri, &uri_pk_len);
 807:C:/Users/stapi/OneDrive/Desktop/GD32VW553/V1_MQTT_OK/GD32VW55X_Wifi_BLE_SDK/GD32VW55x_RELEASE_V1.0.2/MSDK/cloud/alicloud/src/protocol/alcs\alcs_adapter.c ****     uri_dn = iotx_alcs_topic_parse_dn(resource->uri, &uri_dn_len);
 808:C:/Users/stapi/OneDrive/Desktop/GD32VW553/V1_MQTT_OK/GD32VW55X_Wifi_BLE_SDK/GD32VW55x_RELEASE_V1.0.2/MSDK/cloud/alicloud/src/protocol/alcs\alcs_adapter.c **** 
 809:C:/Users/stapi/OneDrive/Desktop/GD32VW553/V1_MQTT_OK/GD32VW55X_Wifi_BLE_SDK/GD32VW55x_RELEASE_V1.0.2/MSDK/cloud/alicloud/src/protocol/alcs\alcs_adapter.c ****     if (uri_pk == NULL || uri_pk_len >= PRODUCT_KEY_MAXLEN ||
 810:C:/Users/stapi/OneDrive/Desktop/GD32VW553/V1_MQTT_OK/GD32VW55X_Wifi_BLE_SDK/GD32VW55x_RELEASE_V1.0.2/MSDK/cloud/alicloud/src/protocol/alcs\alcs_adapter.c ****         uri_dn == NULL || uri_dn_len >= DEVICE_NAME_MAXLEN) {
 811:C:/Users/stapi/OneDrive/Desktop/GD32VW553/V1_MQTT_OK/GD32VW55X_Wifi_BLE_SDK/GD32VW55x_RELEASE_V1.0.2/MSDK/cloud/alicloud/src/protocol/alcs\alcs_adapter.c ****         COAP_ERR("Invalid Parameter");
 812:C:/Users/stapi/OneDrive/Desktop/GD32VW553/V1_MQTT_OK/GD32VW55X_Wifi_BLE_SDK/GD32VW55x_RELEASE_V1.0.2/MSDK/cloud/alicloud/src/protocol/alcs\alcs_adapter.c ****         return FAIL_RETURN;
 813:C:/Users/stapi/OneDrive/Desktop/GD32VW553/V1_MQTT_OK/GD32VW55X_Wifi_BLE_SDK/GD32VW55x_RELEASE_V1.0.2/MSDK/cloud/alicloud/src/protocol/alcs\alcs_adapter.c ****     }
 814:C:/Users/stapi/OneDrive/Desktop/GD32VW553/V1_MQTT_OK/GD32VW55X_Wifi_BLE_SDK/GD32VW55x_RELEASE_V1.0.2/MSDK/cloud/alicloud/src/protocol/alcs\alcs_adapter.c ****     memcpy(productKey, uri_pk, uri_pk_len);
 815:C:/Users/stapi/OneDrive/Desktop/GD32VW553/V1_MQTT_OK/GD32VW55X_Wifi_BLE_SDK/GD32VW55x_RELEASE_V1.0.2/MSDK/cloud/alicloud/src/protocol/alcs\alcs_adapter.c ****     memcpy(deviceName, uri_dn, uri_dn_len);
 816:C:/Users/stapi/OneDrive/Desktop/GD32VW553/V1_MQTT_OK/GD32VW55X_Wifi_BLE_SDK/GD32VW55x_RELEASE_V1.0.2/MSDK/cloud/alicloud/src/protocol/alcs\alcs_adapter.c **** 
 817:C:/Users/stapi/OneDrive/Desktop/GD32VW553/V1_MQTT_OK/GD32VW55X_Wifi_BLE_SDK/GD32VW55x_RELEASE_V1.0.2/MSDK/cloud/alicloud/src/protocol/alcs\alcs_adapter.c ****     COAP_INFO("alcs register resource, uri:%s", resource->uri);
 818:C:/Users/stapi/OneDrive/Desktop/GD32VW553/V1_MQTT_OK/GD32VW55X_Wifi_BLE_SDK/GD32VW55x_RELEASE_V1.0.2/MSDK/cloud/alicloud/src/protocol/alcs\alcs_adapter.c ****     int needAuth = resource->need_auth; // strcmp (resource->uri, "/dev/core/service/dev");
 819:C:/Users/stapi/OneDrive/Desktop/GD32VW553/V1_MQTT_OK/GD32VW55X_Wifi_BLE_SDK/GD32VW55x_RELEASE_V1.0.2/MSDK/cloud/alicloud/src/protocol/alcs\alcs_adapter.c **** 
 820:C:/Users/stapi/OneDrive/Desktop/GD32VW553/V1_MQTT_OK/GD32VW55X_Wifi_BLE_SDK/GD32VW55x_RELEASE_V1.0.2/MSDK/cloud/alicloud/src/protocol/alcs\alcs_adapter.c ****     res = alcs_resource_register(adapter->coap_ctx,
 821:C:/Users/stapi/OneDrive/Desktop/GD32VW553/V1_MQTT_OK/GD32VW55X_Wifi_BLE_SDK/GD32VW55x_RELEASE_V1.0.2/MSDK/cloud/alicloud/src/protocol/alcs\alcs_adapter.c ****                                  productKey,
 822:C:/Users/stapi/OneDrive/Desktop/GD32VW553/V1_MQTT_OK/GD32VW55X_Wifi_BLE_SDK/GD32VW55x_RELEASE_V1.0.2/MSDK/cloud/alicloud/src/protocol/alcs\alcs_adapter.c ****                                  deviceName,
 823:C:/Users/stapi/OneDrive/Desktop/GD32VW553/V1_MQTT_OK/GD32VW55X_Wifi_BLE_SDK/GD32VW55x_RELEASE_V1.0.2/MSDK/cloud/alicloud/src/protocol/alcs\alcs_adapter.c ****                                  resource->uri,
 824:C:/Users/stapi/OneDrive/Desktop/GD32VW553/V1_MQTT_OK/GD32VW55X_Wifi_BLE_SDK/GD32VW55x_RELEASE_V1.0.2/MSDK/cloud/alicloud/src/protocol/alcs\alcs_adapter.c ****                                  resource->msg_perm,
 825:C:/Users/stapi/OneDrive/Desktop/GD32VW553/V1_MQTT_OK/GD32VW55X_Wifi_BLE_SDK/GD32VW55x_RELEASE_V1.0.2/MSDK/cloud/alicloud/src/protocol/alcs\alcs_adapter.c ****                                  resource->msg_ct,
 826:C:/Users/stapi/OneDrive/Desktop/GD32VW553/V1_MQTT_OK/GD32VW55X_Wifi_BLE_SDK/GD32VW55x_RELEASE_V1.0.2/MSDK/cloud/alicloud/src/protocol/alcs\alcs_adapter.c ****                                  resource->maxage,
 827:C:/Users/stapi/OneDrive/Desktop/GD32VW553/V1_MQTT_OK/GD32VW55X_Wifi_BLE_SDK/GD32VW55x_RELEASE_V1.0.2/MSDK/cloud/alicloud/src/protocol/alcs\alcs_adapter.c ****                                  needAuth,
 828:C:/Users/stapi/OneDrive/Desktop/GD32VW553/V1_MQTT_OK/GD32VW55X_Wifi_BLE_SDK/GD32VW55x_RELEASE_V1.0.2/MSDK/cloud/alicloud/src/protocol/alcs\alcs_adapter.c ****                                  (void (*)(CoAPContext * context, const char *paths, NetworkAddr * 
 829:C:/Users/stapi/OneDrive/Desktop/GD32VW553/V1_MQTT_OK/GD32VW55X_Wifi_BLE_SDK/GD32VW55x_RELEASE_V1.0.2/MSDK/cloud/alicloud/src/protocol/alcs\alcs_adapter.c ****                                            CoAPMessage * message))resource->callback);
 830:C:/Users/stapi/OneDrive/Desktop/GD32VW553/V1_MQTT_OK/GD32VW55X_Wifi_BLE_SDK/GD32VW55x_RELEASE_V1.0.2/MSDK/cloud/alicloud/src/protocol/alcs\alcs_adapter.c **** 
 831:C:/Users/stapi/OneDrive/Desktop/GD32VW553/V1_MQTT_OK/GD32VW55X_Wifi_BLE_SDK/GD32VW55x_RELEASE_V1.0.2/MSDK/cloud/alicloud/src/protocol/alcs\alcs_adapter.c ****     if (res != COAP_SUCCESS) {
 832:C:/Users/stapi/OneDrive/Desktop/GD32VW553/V1_MQTT_OK/GD32VW55X_Wifi_BLE_SDK/GD32VW55x_RELEASE_V1.0.2/MSDK/cloud/alicloud/src/protocol/alcs\alcs_adapter.c ****         COAP_ERR("ALCS Register Resource Failed, Code: %d", res);
 833:C:/Users/stapi/OneDrive/Desktop/GD32VW553/V1_MQTT_OK/GD32VW55X_Wifi_BLE_SDK/GD32VW55x_RELEASE_V1.0.2/MSDK/cloud/alicloud/src/protocol/alcs\alcs_adapter.c ****         return FAIL_RETURN;
 834:C:/Users/stapi/OneDrive/Desktop/GD32VW553/V1_MQTT_OK/GD32VW55X_Wifi_BLE_SDK/GD32VW55x_RELEASE_V1.0.2/MSDK/cloud/alicloud/src/protocol/alcs\alcs_adapter.c ****     }
 835:C:/Users/stapi/OneDrive/Desktop/GD32VW553/V1_MQTT_OK/GD32VW55X_Wifi_BLE_SDK/GD32VW55x_RELEASE_V1.0.2/MSDK/cloud/alicloud/src/protocol/alcs\alcs_adapter.c **** 
 836:C:/Users/stapi/OneDrive/Desktop/GD32VW553/V1_MQTT_OK/GD32VW55X_Wifi_BLE_SDK/GD32VW55x_RELEASE_V1.0.2/MSDK/cloud/alicloud/src/protocol/alcs\alcs_adapter.c ****     return SUCCESS_RETURN;
 837:C:/Users/stapi/OneDrive/Desktop/GD32VW553/V1_MQTT_OK/GD32VW55X_Wifi_BLE_SDK/GD32VW55x_RELEASE_V1.0.2/MSDK/cloud/alicloud/src/protocol/alcs\alcs_adapter.c **** }
 2669              		.loc 1 837 1 is_stmt 0
 2670 0074 2E85     		mv	a0,a1
 2671 0076 2561     		addi	sp,sp,96
 2672              		.cfi_remember_state
 2673              		.cfi_def_cfa_offset 0
 2674 0078 17030000 		tail	__riscv_restore_6
 2674      67000300 
 2675              		.cfi_restore 21
 2676              		.cfi_restore 20
 2677              		.cfi_restore 19
 2678              		.cfi_restore 18
 2679              		.cfi_restore 9
 2680              		.cfi_restore 8
 2681              		.cfi_restore 1
 2682              		.cfi_def_cfa_offset -32
 2683              	.LVL301:
 2684              	.L153:
 2685              		.cfi_restore_state
 801:C:/Users/stapi/OneDrive/Desktop/GD32VW553/V1_MQTT_OK/GD32VW55X_Wifi_BLE_SDK/GD32VW55x_RELEASE_V1.0.2/MSDK/cloud/alicloud/src/protocol/alcs\alcs_adapter.c ****     POINTER_SANITY_CHECK(adapter->coap_ctx, NULL_VALUE_ERROR);
 2686              		.loc 1 801 5 is_stmt 1 discriminator 2
 802:C:/Users/stapi/OneDrive/Desktop/GD32VW553/V1_MQTT_OK/GD32VW55X_Wifi_BLE_SDK/GD32VW55x_RELEASE_V1.0.2/MSDK/cloud/alicloud/src/protocol/alcs\alcs_adapter.c ****     POINTER_SANITY_CHECK(adapter->coap_ctx, NULL_VALUE_ERROR);
 2687              		.loc 1 802 5 discriminator 2
 802:C:/Users/stapi/OneDrive/Desktop/GD32VW553/V1_MQTT_OK/GD32VW55X_Wifi_BLE_SDK/GD32VW55x_RELEASE_V1.0.2/MSDK/cloud/alicloud/src/protocol/alcs\alcs_adapter.c ****     POINTER_SANITY_CHECK(adapter->coap_ctx, NULL_VALUE_ERROR);
 2688              		.loc 1 802 5 discriminator 2
 2689 0080 83278900 		lw	a5,8(s2)
 2690 0084 85E3     		bne	a5,zero,.L155
 802:C:/Users/stapi/OneDrive/Desktop/GD32VW553/V1_MQTT_OK/GD32VW55X_Wifi_BLE_SDK/GD32VW55x_RELEASE_V1.0.2/MSDK/cloud/alicloud/src/protocol/alcs\alcs_adapter.c ****     POINTER_SANITY_CHECK(adapter->coap_ctx, NULL_VALUE_ERROR);
 2691              		.loc 1 802 5 discriminator 1
 802:C:/Users/stapi/OneDrive/Desktop/GD32VW553/V1_MQTT_OK/GD32VW55X_Wifi_BLE_SDK/GD32VW55x_RELEASE_V1.0.2/MSDK/cloud/alicloud/src/protocol/alcs\alcs_adapter.c ****     POINTER_SANITY_CHECK(adapter->coap_ctx, NULL_VALUE_ERROR);
 2692              		.loc 1 802 5 discriminator 1
 2693 0086 37050000 		lui	a0,%hi(.LC3)
 2694 008a 13050500 		addi	a0,a0,%lo(.LC3)
 2695 008e 97000000 		call	HAL_Printf
 2695      E7800000 
 2696              	.LVL302:
 802:C:/Users/stapi/OneDrive/Desktop/GD32VW553/V1_MQTT_OK/GD32VW55X_Wifi_BLE_SDK/GD32VW55x_RELEASE_V1.0.2/MSDK/cloud/alicloud/src/protocol/alcs\alcs_adapter.c ****     POINTER_SANITY_CHECK(adapter->coap_ctx, NULL_VALUE_ERROR);
 2697              		.loc 1 802 5 discriminator 1
 2698 0096 B7050000 		lui	a1,%hi(.LC25)
 2699 009a 03268900 		lw	a2,8(s2)
 2700 009e 93850500 		addi	a1,a1,%lo(.LC25)
 2701 00a2 55BF     		j	.L170
 2702              	.L155:
 802:C:/Users/stapi/OneDrive/Desktop/GD32VW553/V1_MQTT_OK/GD32VW55X_Wifi_BLE_SDK/GD32VW55x_RELEASE_V1.0.2/MSDK/cloud/alicloud/src/protocol/alcs\alcs_adapter.c ****     POINTER_SANITY_CHECK(adapter->coap_ctx, NULL_VALUE_ERROR);
 2703              		.loc 1 802 5 discriminator 2
 804:C:/Users/stapi/OneDrive/Desktop/GD32VW553/V1_MQTT_OK/GD32VW55X_Wifi_BLE_SDK/GD32VW55x_RELEASE_V1.0.2/MSDK/cloud/alicloud/src/protocol/alcs\alcs_adapter.c **** 
 2704              		.loc 1 804 5 discriminator 2
 804:C:/Users/stapi/OneDrive/Desktop/GD32VW553/V1_MQTT_OK/GD32VW55X_Wifi_BLE_SDK/GD32VW55x_RELEASE_V1.0.2/MSDK/cloud/alicloud/src/protocol/alcs\alcs_adapter.c **** 
 2705              		.loc 1 804 5 discriminator 2
 2706 00a4 0840     		lw	a0,0(s0)
 2707 00a6 15ED     		bne	a0,zero,.L156
 804:C:/Users/stapi/OneDrive/Desktop/GD32VW553/V1_MQTT_OK/GD32VW55X_Wifi_BLE_SDK/GD32VW55x_RELEASE_V1.0.2/MSDK/cloud/alicloud/src/protocol/alcs\alcs_adapter.c **** 
 2708              		.loc 1 804 5 discriminator 1
 804:C:/Users/stapi/OneDrive/Desktop/GD32VW553/V1_MQTT_OK/GD32VW55X_Wifi_BLE_SDK/GD32VW55x_RELEASE_V1.0.2/MSDK/cloud/alicloud/src/protocol/alcs\alcs_adapter.c **** 
 2709              		.loc 1 804 5 discriminator 1
 2710 00a8 37050000 		lui	a0,%hi(.LC3)
 2711 00ac 13050500 		addi	a0,a0,%lo(.LC3)
 2712 00b0 97000000 		call	HAL_Printf
 2712      E7800000 
 2713              	.LVL303:
 804:C:/Users/stapi/OneDrive/Desktop/GD32VW553/V1_MQTT_OK/GD32VW55X_Wifi_BLE_SDK/GD32VW55x_RELEASE_V1.0.2/MSDK/cloud/alicloud/src/protocol/alcs\alcs_adapter.c **** 
 2714              		.loc 1 804 5 discriminator 1
 2715 00b8 1040     		lw	a2,0(s0)
 2716 00ba B7050000 		lui	a1,%hi(.LC35)
 2717 00be 37050000 		lui	a0,%hi(.LC16)
 2718 00c2 93850500 		addi	a1,a1,%lo(.LC35)
 2719 00c6 13050500 		addi	a0,a0,%lo(.LC16)
 2720              	.L172:
 804:C:/Users/stapi/OneDrive/Desktop/GD32VW553/V1_MQTT_OK/GD32VW55X_Wifi_BLE_SDK/GD32VW55x_RELEASE_V1.0.2/MSDK/cloud/alicloud/src/protocol/alcs\alcs_adapter.c **** 
 2721              		.loc 1 804 5 is_stmt 0 discriminator 3
 2722 00ca 97000000 		call	HAL_Printf
 2722      E7800000 
 2723              	.LVL304:
 804:C:/Users/stapi/OneDrive/Desktop/GD32VW553/V1_MQTT_OK/GD32VW55X_Wifi_BLE_SDK/GD32VW55x_RELEASE_V1.0.2/MSDK/cloud/alicloud/src/protocol/alcs\alcs_adapter.c **** 
 2724              		.loc 1 804 5 is_stmt 1 discriminator 3
 2725              	.L171:
 832:C:/Users/stapi/OneDrive/Desktop/GD32VW553/V1_MQTT_OK/GD32VW55X_Wifi_BLE_SDK/GD32VW55x_RELEASE_V1.0.2/MSDK/cloud/alicloud/src/protocol/alcs\alcs_adapter.c ****         return FAIL_RETURN;
 2726              		.loc 1 832 9
 2727 00d2 13850400 		addi	a0,s1,%lo(.LC2)
 2728 00d6 97000000 		call	HAL_Printf
 2728      E7800000 
 2729              	.LVL305:
 832:C:/Users/stapi/OneDrive/Desktop/GD32VW553/V1_MQTT_OK/GD32VW55X_Wifi_BLE_SDK/GD32VW55x_RELEASE_V1.0.2/MSDK/cloud/alicloud/src/protocol/alcs\alcs_adapter.c ****         return FAIL_RETURN;
 2730              		.loc 1 832 9
 833:C:/Users/stapi/OneDrive/Desktop/GD32VW553/V1_MQTT_OK/GD32VW55X_Wifi_BLE_SDK/GD32VW55x_RELEASE_V1.0.2/MSDK/cloud/alicloud/src/protocol/alcs\alcs_adapter.c ****     }
 2731              		.loc 1 833 9
 833:C:/Users/stapi/OneDrive/Desktop/GD32VW553/V1_MQTT_OK/GD32VW55X_Wifi_BLE_SDK/GD32VW55x_RELEASE_V1.0.2/MSDK/cloud/alicloud/src/protocol/alcs\alcs_adapter.c ****     }
 2732              		.loc 1 833 16 is_stmt 0
 2733 00de FD55     		li	a1,-1
 2734 00e0 51BF     		j	.L152
 2735              	.LVL306:
 2736              	.L156:
 804:C:/Users/stapi/OneDrive/Desktop/GD32VW553/V1_MQTT_OK/GD32VW55X_Wifi_BLE_SDK/GD32VW55x_RELEASE_V1.0.2/MSDK/cloud/alicloud/src/protocol/alcs\alcs_adapter.c **** 
 2737              		.loc 1 804 5 is_stmt 1 discriminator 2
 2738 00e2 83070500 		lb	a5,0(a0)
 2739 00e6 9DE3     		bne	a5,zero,.L157
 804:C:/Users/stapi/OneDrive/Desktop/GD32VW553/V1_MQTT_OK/GD32VW55X_Wifi_BLE_SDK/GD32VW55x_RELEASE_V1.0.2/MSDK/cloud/alicloud/src/protocol/alcs\alcs_adapter.c **** 
 2740              		.loc 1 804 5 discriminator 3
 804:C:/Users/stapi/OneDrive/Desktop/GD32VW553/V1_MQTT_OK/GD32VW55X_Wifi_BLE_SDK/GD32VW55x_RELEASE_V1.0.2/MSDK/cloud/alicloud/src/protocol/alcs\alcs_adapter.c **** 
 2741              		.loc 1 804 5 discriminator 3
 2742 00e8 37050000 		lui	a0,%hi(.LC3)
 2743 00ec 13050500 		addi	a0,a0,%lo(.LC3)
 2744 00f0 97000000 		call	HAL_Printf
 2744      E7800000 
 2745              	.LVL307:
 804:C:/Users/stapi/OneDrive/Desktop/GD32VW553/V1_MQTT_OK/GD32VW55X_Wifi_BLE_SDK/GD32VW55x_RELEASE_V1.0.2/MSDK/cloud/alicloud/src/protocol/alcs\alcs_adapter.c **** 
 2746              		.loc 1 804 5 discriminator 3
 2747 00f8 B7050000 		lui	a1,%hi(.LC35)
 2748 00fc 37050000 		lui	a0,%hi(.LC18)
 2749 0100 1040     		lw	a2,0(s0)
 2750 0102 93850500 		addi	a1,a1,%lo(.LC35)
 2751 0106 13050500 		addi	a0,a0,%lo(.LC18)
 2752 010a C1B7     		j	.L172
 2753              	.L157:
 804:C:/Users/stapi/OneDrive/Desktop/GD32VW553/V1_MQTT_OK/GD32VW55X_Wifi_BLE_SDK/GD32VW55x_RELEASE_V1.0.2/MSDK/cloud/alicloud/src/protocol/alcs\alcs_adapter.c **** 
 2754              		.loc 1 804 5 discriminator 4
 806:C:/Users/stapi/OneDrive/Desktop/GD32VW553/V1_MQTT_OK/GD32VW55X_Wifi_BLE_SDK/GD32VW55x_RELEASE_V1.0.2/MSDK/cloud/alicloud/src/protocol/alcs\alcs_adapter.c ****     uri_dn = iotx_alcs_topic_parse_dn(resource->uri, &uri_dn_len);
 2755              		.loc 1 806 5 discriminator 4
 806:C:/Users/stapi/OneDrive/Desktop/GD32VW553/V1_MQTT_OK/GD32VW55X_Wifi_BLE_SDK/GD32VW55x_RELEASE_V1.0.2/MSDK/cloud/alicloud/src/protocol/alcs\alcs_adapter.c ****     uri_dn = iotx_alcs_topic_parse_dn(resource->uri, &uri_dn_len);
 2756              		.loc 1 806 14 is_stmt 0 discriminator 4
 2757 010c 0C10     		addi	a1,sp,32
 2758 010e 97000000 		call	iotx_alcs_topic_parse_pk.constprop.0
 2758      E7800000 
 2759              	.LVL308:
 2760 0116 2A8A     		mv	s4,a0
 2761              	.LVL309:
 807:C:/Users/stapi/OneDrive/Desktop/GD32VW553/V1_MQTT_OK/GD32VW55X_Wifi_BLE_SDK/GD32VW55x_RELEASE_V1.0.2/MSDK/cloud/alicloud/src/protocol/alcs\alcs_adapter.c **** 
 2762              		.loc 1 807 5 is_stmt 1 discriminator 4
 807:C:/Users/stapi/OneDrive/Desktop/GD32VW553/V1_MQTT_OK/GD32VW55X_Wifi_BLE_SDK/GD32VW55x_RELEASE_V1.0.2/MSDK/cloud/alicloud/src/protocol/alcs\alcs_adapter.c **** 
 2763              		.loc 1 807 14 is_stmt 0 discriminator 4
 2764 0118 0840     		lw	a0,0(s0)
 2765              	.LVL310:
 2766 011a 93052102 		addi	a1,sp,34
 2767 011e 97000000 		call	iotx_alcs_topic_parse_dn
 2767      E7800000 
 2768              	.LVL311:
 2769 0126 AA89     		mv	s3,a0
 2770              	.LVL312:
 809:C:/Users/stapi/OneDrive/Desktop/GD32VW553/V1_MQTT_OK/GD32VW55X_Wifi_BLE_SDK/GD32VW55x_RELEASE_V1.0.2/MSDK/cloud/alicloud/src/protocol/alcs\alcs_adapter.c ****         uri_dn == NULL || uri_dn_len >= DEVICE_NAME_MAXLEN) {
 2771              		.loc 1 809 5 is_stmt 1 discriminator 4
 809:C:/Users/stapi/OneDrive/Desktop/GD32VW553/V1_MQTT_OK/GD32VW55X_Wifi_BLE_SDK/GD32VW55x_RELEASE_V1.0.2/MSDK/cloud/alicloud/src/protocol/alcs\alcs_adapter.c ****         uri_dn == NULL || uri_dn_len >= DEVICE_NAME_MAXLEN) {
 2772              		.loc 1 809 8 is_stmt 0 discriminator 4
 2773 0128 630E0A00 		beq	s4,zero,.L158
 809:C:/Users/stapi/OneDrive/Desktop/GD32VW553/V1_MQTT_OK/GD32VW55X_Wifi_BLE_SDK/GD32VW55x_RELEASE_V1.0.2/MSDK/cloud/alicloud/src/protocol/alcs\alcs_adapter.c ****         uri_dn == NULL || uri_dn_len >= DEVICE_NAME_MAXLEN) {
 2774              		.loc 1 809 38 discriminator 1
 2775 012c 03560102 		lhu	a2,32(sp)
 809:C:/Users/stapi/OneDrive/Desktop/GD32VW553/V1_MQTT_OK/GD32VW55X_Wifi_BLE_SDK/GD32VW55x_RELEASE_V1.0.2/MSDK/cloud/alicloud/src/protocol/alcs\alcs_adapter.c ****         uri_dn == NULL || uri_dn_len >= DEVICE_NAME_MAXLEN) {
 2776              		.loc 1 809 24 discriminator 1
 2777 0130 D147     		li	a5,20
 2778 0132 63E9C700 		bgtu	a2,a5,.L158
 809:C:/Users/stapi/OneDrive/Desktop/GD32VW553/V1_MQTT_OK/GD32VW55X_Wifi_BLE_SDK/GD32VW55x_RELEASE_V1.0.2/MSDK/cloud/alicloud/src/protocol/alcs\alcs_adapter.c ****         uri_dn == NULL || uri_dn_len >= DEVICE_NAME_MAXLEN) {
 2779              		.loc 1 809 60 discriminator 2
 2780 0136 19C5     		beq	a0,zero,.L158
 810:C:/Users/stapi/OneDrive/Desktop/GD32VW553/V1_MQTT_OK/GD32VW55X_Wifi_BLE_SDK/GD32VW55x_RELEASE_V1.0.2/MSDK/cloud/alicloud/src/protocol/alcs\alcs_adapter.c ****         COAP_ERR("Invalid Parameter");
 2781              		.loc 1 810 38
 2782 0138 835A2102 		lhu	s5,34(sp)
 810:C:/Users/stapi/OneDrive/Desktop/GD32VW553/V1_MQTT_OK/GD32VW55X_Wifi_BLE_SDK/GD32VW55x_RELEASE_V1.0.2/MSDK/cloud/alicloud/src/protocol/alcs\alcs_adapter.c ****         COAP_ERR("Invalid Parameter");
 2783              		.loc 1 810 24
 2784 013c 93070002 		li	a5,32
 2785 0140 63F35703 		bleu	s5,a5,.L159
 2786              	.L158:
 811:C:/Users/stapi/OneDrive/Desktop/GD32VW553/V1_MQTT_OK/GD32VW55X_Wifi_BLE_SDK/GD32VW55x_RELEASE_V1.0.2/MSDK/cloud/alicloud/src/protocol/alcs\alcs_adapter.c ****         return FAIL_RETURN;
 2787              		.loc 1 811 9 is_stmt 1
 811:C:/Users/stapi/OneDrive/Desktop/GD32VW553/V1_MQTT_OK/GD32VW55X_Wifi_BLE_SDK/GD32VW55x_RELEASE_V1.0.2/MSDK/cloud/alicloud/src/protocol/alcs\alcs_adapter.c ****         return FAIL_RETURN;
 2788              		.loc 1 811 9
 2789 0144 37050000 		lui	a0,%hi(.LC3)
 2790              	.LVL313:
 2791 0148 13050500 		addi	a0,a0,%lo(.LC3)
 2792 014c 97000000 		call	HAL_Printf
 2792      E7800000 
 2793              	.LVL314:
 811:C:/Users/stapi/OneDrive/Desktop/GD32VW553/V1_MQTT_OK/GD32VW55X_Wifi_BLE_SDK/GD32VW55x_RELEASE_V1.0.2/MSDK/cloud/alicloud/src/protocol/alcs\alcs_adapter.c ****         return FAIL_RETURN;
 2794              		.loc 1 811 9
 2795 0154 37050000 		lui	a0,%hi(.LC4)
 2796 0158 13050500 		addi	a0,a0,%lo(.LC4)
 2797 015c 97000000 		call	HAL_Printf
 2797      E7800000 
 2798              	.LVL315:
 811:C:/Users/stapi/OneDrive/Desktop/GD32VW553/V1_MQTT_OK/GD32VW55X_Wifi_BLE_SDK/GD32VW55x_RELEASE_V1.0.2/MSDK/cloud/alicloud/src/protocol/alcs\alcs_adapter.c ****         return FAIL_RETURN;
 2799              		.loc 1 811 9
 2800 0164 BDB7     		j	.L171
 2801              	.LVL316:
 2802              	.L159:
 814:C:/Users/stapi/OneDrive/Desktop/GD32VW553/V1_MQTT_OK/GD32VW55X_Wifi_BLE_SDK/GD32VW55x_RELEASE_V1.0.2/MSDK/cloud/alicloud/src/protocol/alcs\alcs_adapter.c ****     memcpy(deviceName, uri_dn, uri_dn_len);
 2803              		.loc 1 814 5
 2804 0166 D285     		mv	a1,s4
 2805 0168 4810     		addi	a0,sp,36
 2806              	.LVL317:
 2807 016a 97000000 		call	memcpy
 2807      E7800000 
 2808              	.LVL318:
 815:C:/Users/stapi/OneDrive/Desktop/GD32VW553/V1_MQTT_OK/GD32VW55X_Wifi_BLE_SDK/GD32VW55x_RELEASE_V1.0.2/MSDK/cloud/alicloud/src/protocol/alcs\alcs_adapter.c **** 
 2809              		.loc 1 815 5
 2810 0172 5686     		mv	a2,s5
 2811 0174 CE85     		mv	a1,s3
 2812 0176 6818     		addi	a0,sp,60
 2813 0178 97000000 		call	memcpy
 2813      E7800000 
 2814              	.LVL319:
 817:C:/Users/stapi/OneDrive/Desktop/GD32VW553/V1_MQTT_OK/GD32VW55X_Wifi_BLE_SDK/GD32VW55x_RELEASE_V1.0.2/MSDK/cloud/alicloud/src/protocol/alcs\alcs_adapter.c ****     int needAuth = resource->need_auth; // strcmp (resource->uri, "/dev/core/service/dev");
 2815              		.loc 1 817 5
 817:C:/Users/stapi/OneDrive/Desktop/GD32VW553/V1_MQTT_OK/GD32VW55X_Wifi_BLE_SDK/GD32VW55x_RELEASE_V1.0.2/MSDK/cloud/alicloud/src/protocol/alcs\alcs_adapter.c ****     int needAuth = resource->need_auth; // strcmp (resource->uri, "/dev/core/service/dev");
 2816              		.loc 1 817 5
 2817 0180 37050000 		lui	a0,%hi(.LC0)
 2818 0184 13050500 		addi	a0,a0,%lo(.LC0)
 2819 0188 97000000 		call	HAL_Printf
 2819      E7800000 
 2820              	.LVL320:
 817:C:/Users/stapi/OneDrive/Desktop/GD32VW553/V1_MQTT_OK/GD32VW55X_Wifi_BLE_SDK/GD32VW55x_RELEASE_V1.0.2/MSDK/cloud/alicloud/src/protocol/alcs\alcs_adapter.c ****     int needAuth = resource->need_auth; // strcmp (resource->uri, "/dev/core/service/dev");
 2821              		.loc 1 817 5
 2822 0190 0C40     		lw	a1,0(s0)
 2823 0192 37050000 		lui	a0,%hi(.LC36)
 2824 0196 13050500 		addi	a0,a0,%lo(.LC36)
 2825 019a 97000000 		call	HAL_Printf
 2825      E7800000 
 2826              	.LVL321:
 817:C:/Users/stapi/OneDrive/Desktop/GD32VW553/V1_MQTT_OK/GD32VW55X_Wifi_BLE_SDK/GD32VW55x_RELEASE_V1.0.2/MSDK/cloud/alicloud/src/protocol/alcs\alcs_adapter.c ****     int needAuth = resource->need_auth; // strcmp (resource->uri, "/dev/core/service/dev");
 2827              		.loc 1 817 5
 2828 01a2 13850400 		addi	a0,s1,%lo(.LC2)
 2829 01a6 97000000 		call	HAL_Printf
 2829      E7800000 
 2830              	.LVL322:
 817:C:/Users/stapi/OneDrive/Desktop/GD32VW553/V1_MQTT_OK/GD32VW55X_Wifi_BLE_SDK/GD32VW55x_RELEASE_V1.0.2/MSDK/cloud/alicloud/src/protocol/alcs\alcs_adapter.c ****     int needAuth = resource->need_auth; // strcmp (resource->uri, "/dev/core/service/dev");
 2831              		.loc 1 817 5
 818:C:/Users/stapi/OneDrive/Desktop/GD32VW553/V1_MQTT_OK/GD32VW55X_Wifi_BLE_SDK/GD32VW55x_RELEASE_V1.0.2/MSDK/cloud/alicloud/src/protocol/alcs\alcs_adapter.c **** 
 2832              		.loc 1 818 5
 820:C:/Users/stapi/OneDrive/Desktop/GD32VW553/V1_MQTT_OK/GD32VW55X_Wifi_BLE_SDK/GD32VW55x_RELEASE_V1.0.2/MSDK/cloud/alicloud/src/protocol/alcs\alcs_adapter.c ****                                  productKey,
 2833              		.loc 1 820 5
 820:C:/Users/stapi/OneDrive/Desktop/GD32VW553/V1_MQTT_OK/GD32VW55X_Wifi_BLE_SDK/GD32VW55x_RELEASE_V1.0.2/MSDK/cloud/alicloud/src/protocol/alcs\alcs_adapter.c ****                                  productKey,
 2834              		.loc 1 820 11 is_stmt 0
 2835 01ae 5C48     		lw	a5,20(s0)
 2836 01b0 03280401 		lw	a6,16(s0)
 2837 01b4 03578400 		lhu	a4,8(s0)
 2838 01b8 3EC0     		sw	a5,0(sp)
 2839              	.LVL323:
 2840 01ba 1440     		lw	a3,0(s0)
 2841 01bc 5C44     		lw	a5,12(s0)
 2842 01be 03258900 		lw	a0,8(s2)
 2843 01c2 4C10     		addi	a1,sp,36
 2844 01c4 7018     		addi	a2,sp,60
 2845 01c6 83084400 		lb	a7,4(s0)
 2846 01ca 97000000 		call	alcs_resource_register
 2846      E7800000 
 2847              	.LVL324:
 2848 01d2 AA85     		mv	a1,a0
 2849              	.LVL325:
 831:C:/Users/stapi/OneDrive/Desktop/GD32VW553/V1_MQTT_OK/GD32VW55X_Wifi_BLE_SDK/GD32VW55x_RELEASE_V1.0.2/MSDK/cloud/alicloud/src/protocol/alcs\alcs_adapter.c ****         COAP_ERR("ALCS Register Resource Failed, Code: %d", res);
 2850              		.loc 1 831 5 is_stmt 1
 831:C:/Users/stapi/OneDrive/Desktop/GD32VW553/V1_MQTT_OK/GD32VW55X_Wifi_BLE_SDK/GD32VW55x_RELEASE_V1.0.2/MSDK/cloud/alicloud/src/protocol/alcs\alcs_adapter.c ****         COAP_ERR("ALCS Register Resource Failed, Code: %d", res);
 2851              		.loc 1 831 8 is_stmt 0
 2852 01d4 E30005EA 		beq	a0,zero,.L152
 2853 01d8 2ACE     		sw	a0,28(sp)
 832:C:/Users/stapi/OneDrive/Desktop/GD32VW553/V1_MQTT_OK/GD32VW55X_Wifi_BLE_SDK/GD32VW55x_RELEASE_V1.0.2/MSDK/cloud/alicloud/src/protocol/alcs\alcs_adapter.c ****         return FAIL_RETURN;
 2854              		.loc 1 832 9 is_stmt 1
 832:C:/Users/stapi/OneDrive/Desktop/GD32VW553/V1_MQTT_OK/GD32VW55X_Wifi_BLE_SDK/GD32VW55x_RELEASE_V1.0.2/MSDK/cloud/alicloud/src/protocol/alcs\alcs_adapter.c ****         return FAIL_RETURN;
 2855              		.loc 1 832 9
 2856 01da 37050000 		lui	a0,%hi(.LC3)
 2857              	.LVL326:
 2858 01de 13050500 		addi	a0,a0,%lo(.LC3)
 2859 01e2 97000000 		call	HAL_Printf
 2859      E7800000 
 2860              	.LVL327:
 832:C:/Users/stapi/OneDrive/Desktop/GD32VW553/V1_MQTT_OK/GD32VW55X_Wifi_BLE_SDK/GD32VW55x_RELEASE_V1.0.2/MSDK/cloud/alicloud/src/protocol/alcs\alcs_adapter.c ****         return FAIL_RETURN;
 2861              		.loc 1 832 9
 2862 01ea F245     		lw	a1,28(sp)
 2863 01ec 37050000 		lui	a0,%hi(.LC37)
 2864 01f0 13050500 		addi	a0,a0,%lo(.LC37)
 2865 01f4 97000000 		call	HAL_Printf
 2865      E7800000 
 2866              	.LVL328:
 2867 01fc D9BD     		j	.L171
 2868              		.cfi_endproc
 2869              	.LFE38:
 2871              		.section	.rodata.iotx_alcs_observe_notify.str1.4,"aMS",@progbits,1
 2872              		.align	2
 2873              	.LC38:
 2874 0000 414C4353 		.string	"ALCS Observe Notify Failed, Code: %d"
 2874      204F6273 
 2874      65727665 
 2874      204E6F74 
 2874      69667920 
 2875              		.section	.text.iotx_alcs_observe_notify,"ax",@progbits
 2876              		.align	1
 2877              		.globl	iotx_alcs_observe_notify
 2879              	iotx_alcs_observe_notify:
 2880              	.LFB39:
 838:C:/Users/stapi/OneDrive/Desktop/GD32VW553/V1_MQTT_OK/GD32VW55X_Wifi_BLE_SDK/GD32VW55x_RELEASE_V1.0.2/MSDK/cloud/alicloud/src/protocol/alcs\alcs_adapter.c **** 
 839:C:/Users/stapi/OneDrive/Desktop/GD32VW553/V1_MQTT_OK/GD32VW55X_Wifi_BLE_SDK/GD32VW55x_RELEASE_V1.0.2/MSDK/cloud/alicloud/src/protocol/alcs\alcs_adapter.c **** int iotx_alcs_observe_notify(void *handle, const char *uri, uint32_t payload_len, uint8_t *payload)
 840:C:/Users/stapi/OneDrive/Desktop/GD32VW553/V1_MQTT_OK/GD32VW55X_Wifi_BLE_SDK/GD32VW55x_RELEASE_V1.0.2/MSDK/cloud/alicloud/src/protocol/alcs\alcs_adapter.c **** {
 2881              		.loc 1 840 1
 2882              		.cfi_startproc
 2883              	.LVL329:
 2884 0000 17030000 		call	t0,__riscv_save_0
 2884      E7020300 
 2885              		.cfi_offset 1, -4
 2886              		.cfi_def_cfa_offset 16
 841:C:/Users/stapi/OneDrive/Desktop/GD32VW553/V1_MQTT_OK/GD32VW55X_Wifi_BLE_SDK/GD32VW55x_RELEASE_V1.0.2/MSDK/cloud/alicloud/src/protocol/alcs\alcs_adapter.c ****     int res = 0;
 2887              		.loc 1 841 5
 2888              	.LVL330:
 842:C:/Users/stapi/OneDrive/Desktop/GD32VW553/V1_MQTT_OK/GD32VW55X_Wifi_BLE_SDK/GD32VW55x_RELEASE_V1.0.2/MSDK/cloud/alicloud/src/protocol/alcs\alcs_adapter.c ****     iotx_alcs_adapter_t *adapter = (iotx_alcs_adapter_t *)handle;
 2889              		.loc 1 842 5
 843:C:/Users/stapi/OneDrive/Desktop/GD32VW553/V1_MQTT_OK/GD32VW55X_Wifi_BLE_SDK/GD32VW55x_RELEASE_V1.0.2/MSDK/cloud/alicloud/src/protocol/alcs\alcs_adapter.c ****     CoAPLenString coap_payload;
 2890              		.loc 1 843 5
 844:C:/Users/stapi/OneDrive/Desktop/GD32VW553/V1_MQTT_OK/GD32VW55X_Wifi_BLE_SDK/GD32VW55x_RELEASE_V1.0.2/MSDK/cloud/alicloud/src/protocol/alcs\alcs_adapter.c **** 
 845:C:/Users/stapi/OneDrive/Desktop/GD32VW553/V1_MQTT_OK/GD32VW55X_Wifi_BLE_SDK/GD32VW55x_RELEASE_V1.0.2/MSDK/cloud/alicloud/src/protocol/alcs\alcs_adapter.c ****     coap_payload.len = (int32_t)payload_len;
 2891              		.loc 1 845 5
 846:C:/Users/stapi/OneDrive/Desktop/GD32VW553/V1_MQTT_OK/GD32VW55X_Wifi_BLE_SDK/GD32VW55x_RELEASE_V1.0.2/MSDK/cloud/alicloud/src/protocol/alcs\alcs_adapter.c ****     coap_payload.data = payload;
 847:C:/Users/stapi/OneDrive/Desktop/GD32VW553/V1_MQTT_OK/GD32VW55X_Wifi_BLE_SDK/GD32VW55x_RELEASE_V1.0.2/MSDK/cloud/alicloud/src/protocol/alcs\alcs_adapter.c **** 
 848:C:/Users/stapi/OneDrive/Desktop/GD32VW553/V1_MQTT_OK/GD32VW55X_Wifi_BLE_SDK/GD32VW55x_RELEASE_V1.0.2/MSDK/cloud/alicloud/src/protocol/alcs\alcs_adapter.c ****     res = alcs_observe_notify(adapter->coap_ctx, uri, &coap_payload);
 2892              		.loc 1 848 11 is_stmt 0
 2893 0008 0845     		lw	a0,8(a0)
 2894              	.LVL331:
 840:C:/Users/stapi/OneDrive/Desktop/GD32VW553/V1_MQTT_OK/GD32VW55X_Wifi_BLE_SDK/GD32VW55x_RELEASE_V1.0.2/MSDK/cloud/alicloud/src/protocol/alcs\alcs_adapter.c ****     int res = 0;
 2895              		.loc 1 840 1
 2896 000a 0111     		addi	sp,sp,-32
 2897              		.cfi_def_cfa_offset 48
 845:C:/Users/stapi/OneDrive/Desktop/GD32VW553/V1_MQTT_OK/GD32VW55X_Wifi_BLE_SDK/GD32VW55x_RELEASE_V1.0.2/MSDK/cloud/alicloud/src/protocol/alcs\alcs_adapter.c ****     coap_payload.data = payload;
 2898              		.loc 1 845 22
 2899 000c 32CC     		sw	a2,24(sp)
 846:C:/Users/stapi/OneDrive/Desktop/GD32VW553/V1_MQTT_OK/GD32VW55X_Wifi_BLE_SDK/GD32VW55x_RELEASE_V1.0.2/MSDK/cloud/alicloud/src/protocol/alcs\alcs_adapter.c ****     coap_payload.data = payload;
 2900              		.loc 1 846 5 is_stmt 1
 2901              		.loc 1 848 11 is_stmt 0
 2902 000e 3008     		addi	a2,sp,24
 2903              	.LVL332:
 846:C:/Users/stapi/OneDrive/Desktop/GD32VW553/V1_MQTT_OK/GD32VW55X_Wifi_BLE_SDK/GD32VW55x_RELEASE_V1.0.2/MSDK/cloud/alicloud/src/protocol/alcs\alcs_adapter.c ****     coap_payload.data = payload;
 2904              		.loc 1 846 23
 2905 0010 36CE     		sw	a3,28(sp)
 2906              		.loc 1 848 5 is_stmt 1
 2907              		.loc 1 848 11 is_stmt 0
 2908 0012 97000000 		call	alcs_observe_notify
 2908      E7800000 
 2909              	.LVL333:
 2910 001a AA85     		mv	a1,a0
 2911              	.LVL334:
 849:C:/Users/stapi/OneDrive/Desktop/GD32VW553/V1_MQTT_OK/GD32VW55X_Wifi_BLE_SDK/GD32VW55x_RELEASE_V1.0.2/MSDK/cloud/alicloud/src/protocol/alcs\alcs_adapter.c ****     if (res != COAP_SUCCESS) {
 2912              		.loc 1 849 5 is_stmt 1
 2913              		.loc 1 849 8 is_stmt 0
 2914 001c 05CD     		beq	a0,zero,.L173
 2915 001e 2AC6     		sw	a0,12(sp)
 850:C:/Users/stapi/OneDrive/Desktop/GD32VW553/V1_MQTT_OK/GD32VW55X_Wifi_BLE_SDK/GD32VW55x_RELEASE_V1.0.2/MSDK/cloud/alicloud/src/protocol/alcs\alcs_adapter.c ****         COAP_ERR("ALCS Observe Notify Failed, Code: %d", res);
 2916              		.loc 1 850 9 is_stmt 1
 2917              		.loc 1 850 9
 2918 0020 37050000 		lui	a0,%hi(.LC3)
 2919              	.LVL335:
 2920 0024 13050500 		addi	a0,a0,%lo(.LC3)
 2921 0028 97000000 		call	HAL_Printf
 2921      E7800000 
 2922              	.LVL336:
 2923              		.loc 1 850 9
 2924 0030 B245     		lw	a1,12(sp)
 2925 0032 37050000 		lui	a0,%hi(.LC38)
 2926 0036 13050500 		addi	a0,a0,%lo(.LC38)
 2927 003a 97000000 		call	HAL_Printf
 2927      E7800000 
 2928              	.LVL337:
 2929              		.loc 1 850 9
 2930 0042 37050000 		lui	a0,%hi(.LC2)
 2931 0046 13050500 		addi	a0,a0,%lo(.LC2)
 2932 004a 97000000 		call	HAL_Printf
 2932      E7800000 
 2933              	.LVL338:
 2934              		.loc 1 850 9
 851:C:/Users/stapi/OneDrive/Desktop/GD32VW553/V1_MQTT_OK/GD32VW55X_Wifi_BLE_SDK/GD32VW55x_RELEASE_V1.0.2/MSDK/cloud/alicloud/src/protocol/alcs\alcs_adapter.c ****         return FAIL_RETURN;
 2935              		.loc 1 851 9
 2936              		.loc 1 851 16 is_stmt 0
 2937 0052 FD55     		li	a1,-1
 2938              	.LVL339:
 2939              	.L173:
 852:C:/Users/stapi/OneDrive/Desktop/GD32VW553/V1_MQTT_OK/GD32VW55X_Wifi_BLE_SDK/GD32VW55x_RELEASE_V1.0.2/MSDK/cloud/alicloud/src/protocol/alcs\alcs_adapter.c ****     }
 853:C:/Users/stapi/OneDrive/Desktop/GD32VW553/V1_MQTT_OK/GD32VW55X_Wifi_BLE_SDK/GD32VW55x_RELEASE_V1.0.2/MSDK/cloud/alicloud/src/protocol/alcs\alcs_adapter.c **** 
 854:C:/Users/stapi/OneDrive/Desktop/GD32VW553/V1_MQTT_OK/GD32VW55X_Wifi_BLE_SDK/GD32VW55x_RELEASE_V1.0.2/MSDK/cloud/alicloud/src/protocol/alcs\alcs_adapter.c ****     return SUCCESS_RETURN;
 855:C:/Users/stapi/OneDrive/Desktop/GD32VW553/V1_MQTT_OK/GD32VW55X_Wifi_BLE_SDK/GD32VW55x_RELEASE_V1.0.2/MSDK/cloud/alicloud/src/protocol/alcs\alcs_adapter.c **** }
 2940              		.loc 1 855 1
 2941 0054 2E85     		mv	a0,a1
 2942 0056 0561     		addi	sp,sp,32
 2943              		.cfi_def_cfa_offset 0
 2944 0058 17030000 		tail	__riscv_restore_0
 2944      67000300 
 2945              		.cfi_restore 1
 2946              		.cfi_def_cfa_offset -16
 2947              		.cfi_endproc
 2948              	.LFE39:
 2950              		.section	.bss.g_alcs_adapter,"aw",@nobits
 2951              		.align	2
 2952              		.set	.LANCHOR0,. + 0
 2955              	g_alcs_adapter:
 2956 0000 00000000 		.zero	64
 2956      00000000 
 2956      00000000 
 2956      00000000 
 2956      00000000 
 2957              		.text
 2958              	.Letext0:
 2959              		.file 3 "c:\\users\\stapi\\onedrive\\desktop\\gd32vw553\\embeddedbuilder_v1.4.7.26843\\tools\\nucl
 2960              		.file 4 "c:\\users\\stapi\\onedrive\\desktop\\gd32vw553\\embeddedbuilder_v1.4.7.26843\\tools\\nucl
 2961              		.file 5 "c:\\users\\stapi\\onedrive\\desktop\\gd32vw553\\embeddedbuilder_v1.4.7.26843\\tools\\nucl
 2962              		.file 6 "..\\..\\..\\..\\cloud\\alicloud\\include/iot_import.h"
 2963              		.file 7 "..\\..\\..\\..\\cloud\\alicloud\\src\\protocol\\coap\\local/CoAPExport.h"
 2964              		.file 8 "C:/Users/stapi/OneDrive/Desktop/GD32VW553/V1_MQTT_OK/GD32VW55X_Wifi_BLE_SDK/GD32VW55x_REL
 2965              		.file 9 "C:/Users/stapi/OneDrive/Desktop/GD32VW553/V1_MQTT_OK/GD32VW55X_Wifi_BLE_SDK/GD32VW55x_REL
 2966              		.file 10 "C:/Users/stapi/OneDrive/Desktop/GD32VW553/V1_MQTT_OK/GD32VW55X_Wifi_BLE_SDK/GD32VW55x_RE
 2967              		.file 11 "C:/Users/stapi/OneDrive/Desktop/GD32VW553/V1_MQTT_OK/GD32VW55X_Wifi_BLE_SDK/GD32VW55x_RE
 2968              		.file 12 "..\\..\\..\\..\\cloud\\alicloud\\src\\protocol\\coap\\local/CoAPMessage.h"
 2969              		.file 13 "C:/Users/stapi/OneDrive/Desktop/GD32VW553/V1_MQTT_OK/GD32VW55X_Wifi_BLE_SDK/GD32VW55x_RE
 2970              		.file 14 "C:/Users/stapi/OneDrive/Desktop/GD32VW553/V1_MQTT_OK/GD32VW55X_Wifi_BLE_SDK/GD32VW55x_RE
 2971              		.file 15 "<built-in>"
 2972              		.file 16 "..\\..\\..\\..\\cloud\\alicloud\\include/imports/iot_import_product.h"
 2973              		.file 17 "c:\\users\\stapi\\onedrive\\desktop\\gd32vw553\\embeddedbuilder_v1.4.7.26843\\tools\\nuc
 2974              		.file 18 "c:\\users\\stapi\\onedrive\\desktop\\gd32vw553\\embeddedbuilder_v1.4.7.26843\\tools\\nuc
 2975              		.file 19 "..\\..\\..\\..\\cloud\\alicloud\\src\\protocol\\coap\\local/CoAPResource.h"
 2976              		.file 20 "..\\..\\..\\..\\cloud\\alicloud\\src\\infra\\utils/iotx_utils.h"
 2977              		.file 21 "C:/Users/stapi/OneDrive/Desktop/GD32VW553/V1_MQTT_OK/GD32VW55X_Wifi_BLE_SDK/GD32VW55x_RE
 2978              		.file 22 "..\\..\\..\\..\\cloud\\alicloud\\include/exports/iot_export_errno.h"
DEFINED SYMBOLS
                            *ABS*:0000000000000000 alcs_adapter.c
C:\Users\stapi\AppData\Local\Temp\ccLFD7qg.s:23     .text.iotx_alcs_coap_adapter_event_notifier:0000000000000000 iotx_alcs_coap_adapter_event_notifier
C:\Users\stapi\AppData\Local\Temp\ccLFD7qg.s:27     .text.iotx_alcs_coap_adapter_event_notifier:0000000000000000 .L0 
C:\Users\stapi\AppData\Local\Temp\ccLFD7qg.s:29     .text.iotx_alcs_coap_adapter_event_notifier:0000000000000000 .L0 
C:\Users\stapi\AppData\Local\Temp\ccLFD7qg.s:30     .text.iotx_alcs_coap_adapter_event_notifier:0000000000000008 .L0 
C:\Users\stapi\AppData\Local\Temp\ccLFD7qg.s:31     .text.iotx_alcs_coap_adapter_event_notifier:0000000000000008 .L0 
C:\Users\stapi\AppData\Local\Temp\ccLFD7qg.s:32     .text.iotx_alcs_coap_adapter_event_notifier:0000000000000008 .L0 
C:\Users\stapi\AppData\Local\Temp\ccLFD7qg.s:34     .text.iotx_alcs_coap_adapter_event_notifier:0000000000000008 .L0 
C:\Users\stapi\AppData\Local\Temp\ccLFD7qg.s:35     .text.iotx_alcs_coap_adapter_event_notifier:0000000000000008 .L0 
C:\Users\stapi\AppData\Local\Temp\ccLFD7qg.s:36     .text.iotx_alcs_coap_adapter_event_notifier:0000000000000008 .L0 
C:\Users\stapi\AppData\Local\Temp\ccLFD7qg.s:38     .text.iotx_alcs_coap_adapter_event_notifier:000000000000000a .L0 
C:\Users\stapi\AppData\Local\Temp\ccLFD7qg.s:41     .text.iotx_alcs_coap_adapter_event_notifier:000000000000000e .L0 
C:\Users\stapi\AppData\Local\Temp\ccLFD7qg.s:42     .text.iotx_alcs_coap_adapter_event_notifier:0000000000000010 .L0 
C:\Users\stapi\AppData\Local\Temp\ccLFD7qg.s:44     .text.iotx_alcs_coap_adapter_event_notifier:0000000000000010 .L0 
C:\Users\stapi\AppData\Local\Temp\ccLFD7qg.s:46     .text.iotx_alcs_coap_adapter_event_notifier:0000000000000014 .L0 
C:\Users\stapi\AppData\Local\Temp\ccLFD7qg.s:48     .text.iotx_alcs_coap_adapter_event_notifier:0000000000000016 .L0 
C:\Users\stapi\AppData\Local\Temp\ccLFD7qg.s:51     .text.iotx_alcs_coap_adapter_event_notifier:000000000000001e .L0 
C:\Users\stapi\AppData\Local\Temp\ccLFD7qg.s:59     .text.iotx_alcs_coap_adapter_event_notifier:0000000000000036 .L0 
C:\Users\stapi\AppData\Local\Temp\ccLFD7qg.s:64     .text.iotx_alcs_coap_adapter_event_notifier:0000000000000046 .L0 
C:\Users\stapi\AppData\Local\Temp\ccLFD7qg.s:65     .text.iotx_alcs_coap_adapter_event_notifier:0000000000000046 .L0 
C:\Users\stapi\AppData\Local\Temp\ccLFD7qg.s:66     .text.iotx_alcs_coap_adapter_event_notifier:0000000000000048 .L0 
C:\Users\stapi\AppData\Local\Temp\ccLFD7qg.s:69     .text.iotx_alcs_coap_adapter_event_notifier:0000000000000050 .L0 
C:\Users\stapi\AppData\Local\Temp\ccLFD7qg.s:70     .text.iotx_alcs_coap_adapter_event_notifier:0000000000000050 .L0 
C:\Users\stapi\AppData\Local\Temp\ccLFD7qg.s:71     .text.iotx_alcs_coap_adapter_event_notifier:0000000000000050 .L0 
C:\Users\stapi\AppData\Local\Temp\ccLFD7qg.s:72     .text.iotx_alcs_coap_adapter_event_notifier:0000000000000050 .L0 
C:\Users\stapi\AppData\Local\Temp\ccLFD7qg.s:78     .text._iotx_alcs_send_list_search_and_remove:0000000000000000 _iotx_alcs_send_list_search_and_remove
C:\Users\stapi\AppData\Local\Temp\ccLFD7qg.s:81     .text._iotx_alcs_send_list_search_and_remove:0000000000000000 .L0 
C:\Users\stapi\AppData\Local\Temp\ccLFD7qg.s:83     .text._iotx_alcs_send_list_search_and_remove:0000000000000000 .L0 
C:\Users\stapi\AppData\Local\Temp\ccLFD7qg.s:84     .text._iotx_alcs_send_list_search_and_remove:0000000000000008 .L0 
C:\Users\stapi\AppData\Local\Temp\ccLFD7qg.s:85     .text._iotx_alcs_send_list_search_and_remove:0000000000000008 .L0 
C:\Users\stapi\AppData\Local\Temp\ccLFD7qg.s:86     .text._iotx_alcs_send_list_search_and_remove:0000000000000008 .L0 
C:\Users\stapi\AppData\Local\Temp\ccLFD7qg.s:87     .text._iotx_alcs_send_list_search_and_remove:0000000000000008 .L0 
C:\Users\stapi\AppData\Local\Temp\ccLFD7qg.s:88     .text._iotx_alcs_send_list_search_and_remove:0000000000000008 .L0 
C:\Users\stapi\AppData\Local\Temp\ccLFD7qg.s:89     .text._iotx_alcs_send_list_search_and_remove:0000000000000008 .L0 
C:\Users\stapi\AppData\Local\Temp\ccLFD7qg.s:90     .text._iotx_alcs_send_list_search_and_remove:0000000000000008 .L0 
C:\Users\stapi\AppData\Local\Temp\ccLFD7qg.s:91     .text._iotx_alcs_send_list_search_and_remove:0000000000000008 .L0 
C:\Users\stapi\AppData\Local\Temp\ccLFD7qg.s:94     .text._iotx_alcs_send_list_search_and_remove:0000000000000008 .L0 
C:\Users\stapi\AppData\Local\Temp\ccLFD7qg.s:95     .text._iotx_alcs_send_list_search_and_remove:0000000000000008 .L0 
C:\Users\stapi\AppData\Local\Temp\ccLFD7qg.s:96     .text._iotx_alcs_send_list_search_and_remove:0000000000000008 .L0 
C:\Users\stapi\AppData\Local\Temp\ccLFD7qg.s:98     .text._iotx_alcs_send_list_search_and_remove:000000000000000a .L0 
C:\Users\stapi\AppData\Local\Temp\ccLFD7qg.s:101    .text._iotx_alcs_send_list_search_and_remove:000000000000000e .L0 
C:\Users\stapi\AppData\Local\Temp\ccLFD7qg.s:108    .text._iotx_alcs_send_list_search_and_remove:000000000000001c .L0 
C:\Users\stapi\AppData\Local\Temp\ccLFD7qg.s:112    .text._iotx_alcs_send_list_search_and_remove:0000000000000020 .L0 
C:\Users\stapi\AppData\Local\Temp\ccLFD7qg.s:115    .text._iotx_alcs_send_list_search_and_remove:0000000000000028 .L0 
C:\Users\stapi\AppData\Local\Temp\ccLFD7qg.s:119    .text._iotx_alcs_send_list_search_and_remove:000000000000002c .L0 
C:\Users\stapi\AppData\Local\Temp\ccLFD7qg.s:120    .text._iotx_alcs_send_list_search_and_remove:000000000000002c .L0 
C:\Users\stapi\AppData\Local\Temp\ccLFD7qg.s:122    .text._iotx_alcs_send_list_search_and_remove:0000000000000030 .L0 
C:\Users\stapi\AppData\Local\Temp\ccLFD7qg.s:124    .text._iotx_alcs_send_list_search_and_remove:0000000000000034 .L0 
C:\Users\stapi\AppData\Local\Temp\ccLFD7qg.s:127    .text._iotx_alcs_send_list_search_and_remove:000000000000003a .L0 
C:\Users\stapi\AppData\Local\Temp\ccLFD7qg.s:129    .text._iotx_alcs_send_list_search_and_remove:000000000000003e .L0 
C:\Users\stapi\AppData\Local\Temp\ccLFD7qg.s:134    .text._iotx_alcs_send_list_search_and_remove:000000000000004a .L0 
C:\Users\stapi\AppData\Local\Temp\ccLFD7qg.s:139    .text._iotx_alcs_send_list_search_and_remove:000000000000004c .L0 
C:\Users\stapi\AppData\Local\Temp\ccLFD7qg.s:140    .text._iotx_alcs_send_list_search_and_remove:000000000000004c .L0 
C:\Users\stapi\AppData\Local\Temp\ccLFD7qg.s:142    .text._iotx_alcs_send_list_search_and_remove:000000000000004e .L0 
C:\Users\stapi\AppData\Local\Temp\ccLFD7qg.s:146    .text._iotx_alcs_send_list_search_and_remove:0000000000000050 .L0 
C:\Users\stapi\AppData\Local\Temp\ccLFD7qg.s:151    .text._iotx_alcs_send_list_search_and_remove:0000000000000054 .L0 
C:\Users\stapi\AppData\Local\Temp\ccLFD7qg.s:152    .text._iotx_alcs_send_list_search_and_remove:0000000000000054 .L0 
C:\Users\stapi\AppData\Local\Temp\ccLFD7qg.s:153    .text._iotx_alcs_send_list_search_and_remove:0000000000000054 .L0 
C:\Users\stapi\AppData\Local\Temp\ccLFD7qg.s:154    .text._iotx_alcs_send_list_search_and_remove:0000000000000054 .L0 
C:\Users\stapi\AppData\Local\Temp\ccLFD7qg.s:155    .text._iotx_alcs_send_list_search_and_remove:0000000000000054 .L0 
C:\Users\stapi\AppData\Local\Temp\ccLFD7qg.s:157    .text._iotx_alcs_send_list_search_and_remove:0000000000000056 .L0 
C:\Users\stapi\AppData\Local\Temp\ccLFD7qg.s:158    .text._iotx_alcs_send_list_search_and_remove:0000000000000056 .L0 
C:\Users\stapi\AppData\Local\Temp\ccLFD7qg.s:164    .text._iotx_alcs_send_list_search_and_remove:0000000000000058 .L0 
C:\Users\stapi\AppData\Local\Temp\ccLFD7qg.s:165    .text._iotx_alcs_send_list_search_and_remove:0000000000000060 .L0 
C:\Users\stapi\AppData\Local\Temp\ccLFD7qg.s:166    .text._iotx_alcs_send_list_search_and_remove:0000000000000060 .L0 
C:\Users\stapi\AppData\Local\Temp\ccLFD7qg.s:167    .text._iotx_alcs_send_list_search_and_remove:0000000000000060 .L0 
C:\Users\stapi\AppData\Local\Temp\ccLFD7qg.s:168    .text._iotx_alcs_send_list_search_and_remove:0000000000000060 .L0 
C:\Users\stapi\AppData\Local\Temp\ccLFD7qg.s:169    .text._iotx_alcs_send_list_search_and_remove:0000000000000060 .L0 
C:\Users\stapi\AppData\Local\Temp\ccLFD7qg.s:170    .text._iotx_alcs_send_list_search_and_remove:0000000000000060 .L0 
C:\Users\stapi\AppData\Local\Temp\ccLFD7qg.s:171    .text._iotx_alcs_send_list_search_and_remove:0000000000000060 .L0 
C:\Users\stapi\AppData\Local\Temp\ccLFD7qg.s:172    .text._iotx_alcs_send_list_search_and_remove:0000000000000060 .L0 
C:\Users\stapi\AppData\Local\Temp\ccLFD7qg.s:173    .text._iotx_alcs_send_list_search_and_remove:0000000000000060 .L0 
C:\Users\stapi\AppData\Local\Temp\ccLFD7qg.s:175    .text._iotx_alcs_send_list_search_and_remove:0000000000000060 .L0 
C:\Users\stapi\AppData\Local\Temp\ccLFD7qg.s:178    .text._iotx_alcs_send_list_search_and_remove:0000000000000060 .L0 
C:\Users\stapi\AppData\Local\Temp\ccLFD7qg.s:184    .text._iotx_alcs_send_list_search_and_remove:000000000000006c .L0 
C:\Users\stapi\AppData\Local\Temp\ccLFD7qg.s:197    .text.iotx_alcs_topic_parse_dn:0000000000000000 iotx_alcs_topic_parse_dn
C:\Users\stapi\AppData\Local\Temp\ccLFD7qg.s:200    .text.iotx_alcs_topic_parse_dn:0000000000000000 .L0 
C:\Users\stapi\AppData\Local\Temp\ccLFD7qg.s:202    .text.iotx_alcs_topic_parse_dn:0000000000000000 .L0 
C:\Users\stapi\AppData\Local\Temp\ccLFD7qg.s:203    .text.iotx_alcs_topic_parse_dn:0000000000000008 .L0 
C:\Users\stapi\AppData\Local\Temp\ccLFD7qg.s:204    .text.iotx_alcs_topic_parse_dn:0000000000000008 .L0 
C:\Users\stapi\AppData\Local\Temp\ccLFD7qg.s:205    .text.iotx_alcs_topic_parse_dn:0000000000000008 .L0 
C:\Users\stapi\AppData\Local\Temp\ccLFD7qg.s:206    .text.iotx_alcs_topic_parse_dn:0000000000000008 .L0 
C:\Users\stapi\AppData\Local\Temp\ccLFD7qg.s:208    .text.iotx_alcs_topic_parse_dn:0000000000000008 .L0 
C:\Users\stapi\AppData\Local\Temp\ccLFD7qg.s:209    .text.iotx_alcs_topic_parse_dn:0000000000000008 .L0 
C:\Users\stapi\AppData\Local\Temp\ccLFD7qg.s:211    .text.iotx_alcs_topic_parse_dn:000000000000000a .L0 
C:\Users\stapi\AppData\Local\Temp\ccLFD7qg.s:213    .text.iotx_alcs_topic_parse_dn:000000000000000c .L0 
C:\Users\stapi\AppData\Local\Temp\ccLFD7qg.s:214    .text.iotx_alcs_topic_parse_dn:000000000000000c .L0 
C:\Users\stapi\AppData\Local\Temp\ccLFD7qg.s:220    .text.iotx_alcs_topic_parse_dn:000000000000001c .L0 
C:\Users\stapi\AppData\Local\Temp\ccLFD7qg.s:225    .text.iotx_alcs_topic_parse_dn:000000000000002c .L0 
C:\Users\stapi\AppData\Local\Temp\ccLFD7qg.s:230    .text.iotx_alcs_topic_parse_dn:000000000000003c .L0 
C:\Users\stapi\AppData\Local\Temp\ccLFD7qg.s:232    .text.iotx_alcs_topic_parse_dn:000000000000003c .L0 
C:\Users\stapi\AppData\Local\Temp\ccLFD7qg.s:233    .text.iotx_alcs_topic_parse_dn:000000000000003c .L0 
C:\Users\stapi\AppData\Local\Temp\ccLFD7qg.s:235    .text.iotx_alcs_topic_parse_dn:0000000000000046 .L0 
C:\Users\stapi\AppData\Local\Temp\ccLFD7qg.s:236    .text.iotx_alcs_topic_parse_dn:0000000000000046 .L0 
C:\Users\stapi\AppData\Local\Temp\ccLFD7qg.s:237    .text.iotx_alcs_topic_parse_dn:0000000000000046 .L0 
C:\Users\stapi\AppData\Local\Temp\ccLFD7qg.s:238    .text.iotx_alcs_topic_parse_dn:0000000000000046 .L0 
C:\Users\stapi\AppData\Local\Temp\ccLFD7qg.s:239    .text.iotx_alcs_topic_parse_dn:0000000000000046 .L0 
C:\Users\stapi\AppData\Local\Temp\ccLFD7qg.s:242    .text.iotx_alcs_topic_parse_dn:0000000000000046 .L0 
C:\Users\stapi\AppData\Local\Temp\ccLFD7qg.s:246    .text.iotx_alcs_topic_parse_dn:0000000000000048 .L0 
C:\Users\stapi\AppData\Local\Temp\ccLFD7qg.s:247    .text.iotx_alcs_topic_parse_dn:0000000000000048 .L0 
C:\Users\stapi\AppData\Local\Temp\ccLFD7qg.s:248    .text.iotx_alcs_topic_parse_dn:0000000000000048 .L0 
C:\Users\stapi\AppData\Local\Temp\ccLFD7qg.s:249    .text.iotx_alcs_topic_parse_dn:0000000000000048 .L0 
C:\Users\stapi\AppData\Local\Temp\ccLFD7qg.s:250    .text.iotx_alcs_topic_parse_dn:0000000000000048 .L0 
C:\Users\stapi\AppData\Local\Temp\ccLFD7qg.s:254    .text.iotx_alcs_topic_parse_dn:0000000000000052 .L0 
C:\Users\stapi\AppData\Local\Temp\ccLFD7qg.s:256    .text.iotx_alcs_topic_parse_dn:0000000000000054 .L0 
C:\Users\stapi\AppData\Local\Temp\ccLFD7qg.s:258    .text.iotx_alcs_topic_parse_dn:0000000000000056 .L0 
C:\Users\stapi\AppData\Local\Temp\ccLFD7qg.s:261    .text.iotx_alcs_topic_parse_dn:0000000000000058 .L0 
C:\Users\stapi\AppData\Local\Temp\ccLFD7qg.s:263    .text.iotx_alcs_topic_parse_dn:000000000000005c .L0 
C:\Users\stapi\AppData\Local\Temp\ccLFD7qg.s:265    .text.iotx_alcs_topic_parse_dn:000000000000005e .L0 
C:\Users\stapi\AppData\Local\Temp\ccLFD7qg.s:267    .text.iotx_alcs_topic_parse_dn:0000000000000060 .L0 
C:\Users\stapi\AppData\Local\Temp\ccLFD7qg.s:271    .text.iotx_alcs_topic_parse_dn:0000000000000064 .L0 
C:\Users\stapi\AppData\Local\Temp\ccLFD7qg.s:272    .text.iotx_alcs_topic_parse_dn:0000000000000064 .L0 
C:\Users\stapi\AppData\Local\Temp\ccLFD7qg.s:276    .text.iotx_alcs_topic_parse_dn:0000000000000070 .L0 
C:\Users\stapi\AppData\Local\Temp\ccLFD7qg.s:278    .text.iotx_alcs_topic_parse_dn:0000000000000074 .L0 
C:\Users\stapi\AppData\Local\Temp\ccLFD7qg.s:281    .text.iotx_alcs_topic_parse_dn:000000000000007c .L0 
C:\Users\stapi\AppData\Local\Temp\ccLFD7qg.s:282    .text.iotx_alcs_topic_parse_dn:000000000000007c .L0 
C:\Users\stapi\AppData\Local\Temp\ccLFD7qg.s:287    .text.iotx_alcs_topic_parse_dn:0000000000000082 .L0 
C:\Users\stapi\AppData\Local\Temp\ccLFD7qg.s:288    .text.iotx_alcs_topic_parse_dn:0000000000000082 .L0 
C:\Users\stapi\AppData\Local\Temp\ccLFD7qg.s:290    .text.iotx_alcs_topic_parse_dn:0000000000000086 .L0 
C:\Users\stapi\AppData\Local\Temp\ccLFD7qg.s:294    .text.iotx_alcs_topic_parse_dn:0000000000000088 .L0 
C:\Users\stapi\AppData\Local\Temp\ccLFD7qg.s:295    .text.iotx_alcs_topic_parse_dn:0000000000000088 .L0 
C:\Users\stapi\AppData\Local\Temp\ccLFD7qg.s:300    .text.iotx_alcs_topic_parse_dn:000000000000008c .L0 
C:\Users\stapi\AppData\Local\Temp\ccLFD7qg.s:301    .text.iotx_alcs_topic_parse_dn:000000000000008c .L0 
C:\Users\stapi\AppData\Local\Temp\ccLFD7qg.s:303    .text.iotx_alcs_topic_parse_dn:0000000000000090 .L0 
C:\Users\stapi\AppData\Local\Temp\ccLFD7qg.s:304    .text.iotx_alcs_topic_parse_dn:0000000000000090 .L0 
C:\Users\stapi\AppData\Local\Temp\ccLFD7qg.s:306    .text.iotx_alcs_topic_parse_dn:0000000000000092 .L0 
C:\Users\stapi\AppData\Local\Temp\ccLFD7qg.s:308    .text.iotx_alcs_topic_parse_dn:0000000000000098 .L0 
C:\Users\stapi\AppData\Local\Temp\ccLFD7qg.s:314    .text.iotx_alcs_topic_parse_pk.constprop.0:0000000000000000 iotx_alcs_topic_parse_pk.constprop.0
C:\Users\stapi\AppData\Local\Temp\ccLFD7qg.s:317    .text.iotx_alcs_topic_parse_pk.constprop.0:0000000000000000 .L0 
C:\Users\stapi\AppData\Local\Temp\ccLFD7qg.s:319    .text.iotx_alcs_topic_parse_pk.constprop.0:0000000000000000 .L0 
C:\Users\stapi\AppData\Local\Temp\ccLFD7qg.s:320    .text.iotx_alcs_topic_parse_pk.constprop.0:0000000000000008 .L0 
C:\Users\stapi\AppData\Local\Temp\ccLFD7qg.s:321    .text.iotx_alcs_topic_parse_pk.constprop.0:0000000000000008 .L0 
C:\Users\stapi\AppData\Local\Temp\ccLFD7qg.s:322    .text.iotx_alcs_topic_parse_pk.constprop.0:0000000000000008 .L0 
C:\Users\stapi\AppData\Local\Temp\ccLFD7qg.s:323    .text.iotx_alcs_topic_parse_pk.constprop.0:0000000000000008 .L0 
C:\Users\stapi\AppData\Local\Temp\ccLFD7qg.s:325    .text.iotx_alcs_topic_parse_pk.constprop.0:0000000000000008 .L0 
C:\Users\stapi\AppData\Local\Temp\ccLFD7qg.s:326    .text.iotx_alcs_topic_parse_pk.constprop.0:0000000000000008 .L0 
C:\Users\stapi\AppData\Local\Temp\ccLFD7qg.s:328    .text.iotx_alcs_topic_parse_pk.constprop.0:000000000000000a .L0 
C:\Users\stapi\AppData\Local\Temp\ccLFD7qg.s:330    .text.iotx_alcs_topic_parse_pk.constprop.0:000000000000000c .L0 
C:\Users\stapi\AppData\Local\Temp\ccLFD7qg.s:331    .text.iotx_alcs_topic_parse_pk.constprop.0:000000000000000c .L0 
C:\Users\stapi\AppData\Local\Temp\ccLFD7qg.s:337    .text.iotx_alcs_topic_parse_pk.constprop.0:000000000000001c .L0 
C:\Users\stapi\AppData\Local\Temp\ccLFD7qg.s:342    .text.iotx_alcs_topic_parse_pk.constprop.0:000000000000002c .L0 
C:\Users\stapi\AppData\Local\Temp\ccLFD7qg.s:347    .text.iotx_alcs_topic_parse_pk.constprop.0:000000000000003c .L0 
C:\Users\stapi\AppData\Local\Temp\ccLFD7qg.s:349    .text.iotx_alcs_topic_parse_pk.constprop.0:000000000000003c .L0 
C:\Users\stapi\AppData\Local\Temp\ccLFD7qg.s:350    .text.iotx_alcs_topic_parse_pk.constprop.0:000000000000003c .L0 
C:\Users\stapi\AppData\Local\Temp\ccLFD7qg.s:352    .text.iotx_alcs_topic_parse_pk.constprop.0:0000000000000046 .L0 
C:\Users\stapi\AppData\Local\Temp\ccLFD7qg.s:353    .text.iotx_alcs_topic_parse_pk.constprop.0:0000000000000046 .L0 
C:\Users\stapi\AppData\Local\Temp\ccLFD7qg.s:354    .text.iotx_alcs_topic_parse_pk.constprop.0:0000000000000046 .L0 
C:\Users\stapi\AppData\Local\Temp\ccLFD7qg.s:355    .text.iotx_alcs_topic_parse_pk.constprop.0:0000000000000046 .L0 
C:\Users\stapi\AppData\Local\Temp\ccLFD7qg.s:356    .text.iotx_alcs_topic_parse_pk.constprop.0:0000000000000046 .L0 
C:\Users\stapi\AppData\Local\Temp\ccLFD7qg.s:359    .text.iotx_alcs_topic_parse_pk.constprop.0:0000000000000046 .L0 
C:\Users\stapi\AppData\Local\Temp\ccLFD7qg.s:363    .text.iotx_alcs_topic_parse_pk.constprop.0:0000000000000048 .L0 
C:\Users\stapi\AppData\Local\Temp\ccLFD7qg.s:364    .text.iotx_alcs_topic_parse_pk.constprop.0:0000000000000048 .L0 
C:\Users\stapi\AppData\Local\Temp\ccLFD7qg.s:365    .text.iotx_alcs_topic_parse_pk.constprop.0:0000000000000048 .L0 
C:\Users\stapi\AppData\Local\Temp\ccLFD7qg.s:366    .text.iotx_alcs_topic_parse_pk.constprop.0:0000000000000048 .L0 
C:\Users\stapi\AppData\Local\Temp\ccLFD7qg.s:367    .text.iotx_alcs_topic_parse_pk.constprop.0:0000000000000048 .L0 
C:\Users\stapi\AppData\Local\Temp\ccLFD7qg.s:371    .text.iotx_alcs_topic_parse_pk.constprop.0:0000000000000052 .L0 
C:\Users\stapi\AppData\Local\Temp\ccLFD7qg.s:373    .text.iotx_alcs_topic_parse_pk.constprop.0:0000000000000054 .L0 
C:\Users\stapi\AppData\Local\Temp\ccLFD7qg.s:375    .text.iotx_alcs_topic_parse_pk.constprop.0:0000000000000056 .L0 
C:\Users\stapi\AppData\Local\Temp\ccLFD7qg.s:378    .text.iotx_alcs_topic_parse_pk.constprop.0:0000000000000058 .L0 
C:\Users\stapi\AppData\Local\Temp\ccLFD7qg.s:380    .text.iotx_alcs_topic_parse_pk.constprop.0:000000000000005c .L0 
C:\Users\stapi\AppData\Local\Temp\ccLFD7qg.s:382    .text.iotx_alcs_topic_parse_pk.constprop.0:000000000000005e .L0 
C:\Users\stapi\AppData\Local\Temp\ccLFD7qg.s:384    .text.iotx_alcs_topic_parse_pk.constprop.0:0000000000000060 .L0 
C:\Users\stapi\AppData\Local\Temp\ccLFD7qg.s:388    .text.iotx_alcs_topic_parse_pk.constprop.0:0000000000000064 .L0 
C:\Users\stapi\AppData\Local\Temp\ccLFD7qg.s:389    .text.iotx_alcs_topic_parse_pk.constprop.0:0000000000000064 .L0 
C:\Users\stapi\AppData\Local\Temp\ccLFD7qg.s:393    .text.iotx_alcs_topic_parse_pk.constprop.0:0000000000000070 .L0 
C:\Users\stapi\AppData\Local\Temp\ccLFD7qg.s:395    .text.iotx_alcs_topic_parse_pk.constprop.0:0000000000000074 .L0 
C:\Users\stapi\AppData\Local\Temp\ccLFD7qg.s:398    .text.iotx_alcs_topic_parse_pk.constprop.0:000000000000007c .L0 
C:\Users\stapi\AppData\Local\Temp\ccLFD7qg.s:399    .text.iotx_alcs_topic_parse_pk.constprop.0:000000000000007c .L0 
C:\Users\stapi\AppData\Local\Temp\ccLFD7qg.s:404    .text.iotx_alcs_topic_parse_pk.constprop.0:0000000000000082 .L0 
C:\Users\stapi\AppData\Local\Temp\ccLFD7qg.s:405    .text.iotx_alcs_topic_parse_pk.constprop.0:0000000000000082 .L0 
C:\Users\stapi\AppData\Local\Temp\ccLFD7qg.s:407    .text.iotx_alcs_topic_parse_pk.constprop.0:0000000000000086 .L0 
C:\Users\stapi\AppData\Local\Temp\ccLFD7qg.s:411    .text.iotx_alcs_topic_parse_pk.constprop.0:0000000000000088 .L0 
C:\Users\stapi\AppData\Local\Temp\ccLFD7qg.s:412    .text.iotx_alcs_topic_parse_pk.constprop.0:0000000000000088 .L0 
C:\Users\stapi\AppData\Local\Temp\ccLFD7qg.s:417    .text.iotx_alcs_topic_parse_pk.constprop.0:000000000000008c .L0 
C:\Users\stapi\AppData\Local\Temp\ccLFD7qg.s:418    .text.iotx_alcs_topic_parse_pk.constprop.0:000000000000008c .L0 
C:\Users\stapi\AppData\Local\Temp\ccLFD7qg.s:420    .text.iotx_alcs_topic_parse_pk.constprop.0:0000000000000090 .L0 
C:\Users\stapi\AppData\Local\Temp\ccLFD7qg.s:421    .text.iotx_alcs_topic_parse_pk.constprop.0:0000000000000090 .L0 
C:\Users\stapi\AppData\Local\Temp\ccLFD7qg.s:423    .text.iotx_alcs_topic_parse_pk.constprop.0:0000000000000092 .L0 
C:\Users\stapi\AppData\Local\Temp\ccLFD7qg.s:425    .text.iotx_alcs_topic_parse_pk.constprop.0:0000000000000098 .L0 
C:\Users\stapi\AppData\Local\Temp\ccLFD7qg.s:432    .text.iotx_alcs_get_ctx:0000000000000000 iotx_alcs_get_ctx
C:\Users\stapi\AppData\Local\Temp\ccLFD7qg.s:435    .text.iotx_alcs_get_ctx:0000000000000000 .L0 
C:\Users\stapi\AppData\Local\Temp\ccLFD7qg.s:436    .text.iotx_alcs_get_ctx:0000000000000000 .L0 
C:\Users\stapi\AppData\Local\Temp\ccLFD7qg.s:437    .text.iotx_alcs_get_ctx:0000000000000000 .L0 
C:\Users\stapi\AppData\Local\Temp\ccLFD7qg.s:438    .text.iotx_alcs_get_ctx:0000000000000000 .L0 
C:\Users\stapi\AppData\Local\Temp\ccLFD7qg.s:440    .text.iotx_alcs_get_ctx:0000000000000004 .L0 
C:\Users\stapi\AppData\Local\Temp\ccLFD7qg.s:442    .text.iotx_alcs_get_ctx:000000000000000a .L0 
C:\Users\stapi\AppData\Local\Temp\ccLFD7qg.s:456    .text.iotx_alcs_coap_adapter_send_msg_handle:0000000000000000 iotx_alcs_coap_adapter_send_msg_handle
C:\Users\stapi\AppData\Local\Temp\ccLFD7qg.s:459    .text.iotx_alcs_coap_adapter_send_msg_handle:0000000000000000 .L0 
C:\Users\stapi\AppData\Local\Temp\ccLFD7qg.s:461    .text.iotx_alcs_coap_adapter_send_msg_handle:0000000000000000 .L0 
C:\Users\stapi\AppData\Local\Temp\ccLFD7qg.s:462    .text.iotx_alcs_coap_adapter_send_msg_handle:0000000000000008 .L0 
C:\Users\stapi\AppData\Local\Temp\ccLFD7qg.s:463    .text.iotx_alcs_coap_adapter_send_msg_handle:0000000000000008 .L0 
C:\Users\stapi\AppData\Local\Temp\ccLFD7qg.s:464    .text.iotx_alcs_coap_adapter_send_msg_handle:0000000000000008 .L0 
C:\Users\stapi\AppData\Local\Temp\ccLFD7qg.s:465    .text.iotx_alcs_coap_adapter_send_msg_handle:0000000000000008 .L0 
C:\Users\stapi\AppData\Local\Temp\ccLFD7qg.s:466    .text.iotx_alcs_coap_adapter_send_msg_handle:0000000000000008 .L0 
C:\Users\stapi\AppData\Local\Temp\ccLFD7qg.s:467    .text.iotx_alcs_coap_adapter_send_msg_handle:0000000000000008 .L0 
C:\Users\stapi\AppData\Local\Temp\ccLFD7qg.s:470    .text.iotx_alcs_coap_adapter_send_msg_handle:0000000000000008 .L0 
C:\Users\stapi\AppData\Local\Temp\ccLFD7qg.s:471    .text.iotx_alcs_coap_adapter_send_msg_handle:0000000000000008 .L0 
C:\Users\stapi\AppData\Local\Temp\ccLFD7qg.s:472    .text.iotx_alcs_coap_adapter_send_msg_handle:0000000000000008 .L0 
C:\Users\stapi\AppData\Local\Temp\ccLFD7qg.s:473    .text.iotx_alcs_coap_adapter_send_msg_handle:000000000000000a .L0 
C:\Users\stapi\AppData\Local\Temp\ccLFD7qg.s:475    .text.iotx_alcs_coap_adapter_send_msg_handle:000000000000000a .L0 
C:\Users\stapi\AppData\Local\Temp\ccLFD7qg.s:478    .text.iotx_alcs_coap_adapter_send_msg_handle:000000000000000e .L0 
C:\Users\stapi\AppData\Local\Temp\ccLFD7qg.s:481    .text.iotx_alcs_coap_adapter_send_msg_handle:0000000000000010 .L0 
C:\Users\stapi\AppData\Local\Temp\ccLFD7qg.s:482    .text.iotx_alcs_coap_adapter_send_msg_handle:0000000000000010 .L0 
C:\Users\stapi\AppData\Local\Temp\ccLFD7qg.s:483    .text.iotx_alcs_coap_adapter_send_msg_handle:0000000000000010 .L0 
C:\Users\stapi\AppData\Local\Temp\ccLFD7qg.s:484    .text.iotx_alcs_coap_adapter_send_msg_handle:0000000000000010 .L0 
C:\Users\stapi\AppData\Local\Temp\ccLFD7qg.s:487    .text.iotx_alcs_coap_adapter_send_msg_handle:0000000000000014 .L0 
C:\Users\stapi\AppData\Local\Temp\ccLFD7qg.s:492    .text.iotx_alcs_coap_adapter_send_msg_handle:000000000000001e .L0 
C:\Users\stapi\AppData\Local\Temp\ccLFD7qg.s:493    .text.iotx_alcs_coap_adapter_send_msg_handle:000000000000001e .L0 
C:\Users\stapi\AppData\Local\Temp\ccLFD7qg.s:499    .text.iotx_alcs_coap_adapter_send_msg_handle:000000000000002e .L0 
C:\Users\stapi\AppData\Local\Temp\ccLFD7qg.s:505    .text.iotx_alcs_coap_adapter_send_msg_handle:0000000000000040 .L0 
C:\Users\stapi\AppData\Local\Temp\ccLFD7qg.s:510    .text.iotx_alcs_coap_adapter_send_msg_handle:0000000000000050 .L0 
C:\Users\stapi\AppData\Local\Temp\ccLFD7qg.s:511    .text.iotx_alcs_coap_adapter_send_msg_handle:0000000000000050 .L0 
C:\Users\stapi\AppData\Local\Temp\ccLFD7qg.s:516    .text.iotx_alcs_coap_adapter_send_msg_handle:0000000000000052 .L0 
C:\Users\stapi\AppData\Local\Temp\ccLFD7qg.s:517    .text.iotx_alcs_coap_adapter_send_msg_handle:0000000000000052 .L0 
C:\Users\stapi\AppData\Local\Temp\ccLFD7qg.s:518    .text.iotx_alcs_coap_adapter_send_msg_handle:0000000000000052 .L0 
C:\Users\stapi\AppData\Local\Temp\ccLFD7qg.s:522    .text.iotx_alcs_coap_adapter_send_msg_handle:0000000000000056 .L0 
C:\Users\stapi\AppData\Local\Temp\ccLFD7qg.s:524    .text.iotx_alcs_coap_adapter_send_msg_handle:0000000000000058 .L0 
C:\Users\stapi\AppData\Local\Temp\ccLFD7qg.s:527    .text.iotx_alcs_coap_adapter_send_msg_handle:0000000000000060 .L0 
C:\Users\stapi\AppData\Local\Temp\ccLFD7qg.s:528    .text.iotx_alcs_coap_adapter_send_msg_handle:0000000000000060 .L0 
C:\Users\stapi\AppData\Local\Temp\ccLFD7qg.s:530    .text.iotx_alcs_coap_adapter_send_msg_handle:0000000000000064 .L0 
C:\Users\stapi\AppData\Local\Temp\ccLFD7qg.s:532    .text.iotx_alcs_coap_adapter_send_msg_handle:0000000000000066 .L0 
C:\Users\stapi\AppData\Local\Temp\ccLFD7qg.s:534    .text.iotx_alcs_coap_adapter_send_msg_handle:0000000000000068 .L0 
C:\Users\stapi\AppData\Local\Temp\ccLFD7qg.s:535    .text.iotx_alcs_coap_adapter_send_msg_handle:0000000000000068 .L0 
C:\Users\stapi\AppData\Local\Temp\ccLFD7qg.s:537    .text.iotx_alcs_coap_adapter_send_msg_handle:000000000000006c .L0 
C:\Users\stapi\AppData\Local\Temp\ccLFD7qg.s:540    .text.iotx_alcs_coap_adapter_send_msg_handle:0000000000000074 .L0 
C:\Users\stapi\AppData\Local\Temp\ccLFD7qg.s:541    .text.iotx_alcs_coap_adapter_send_msg_handle:0000000000000074 .L0 
C:\Users\stapi\AppData\Local\Temp\ccLFD7qg.s:549    .text.iotx_alcs_coap_adapter_send_msg_handle:0000000000000084 .L0 
C:\Users\stapi\AppData\Local\Temp\ccLFD7qg.s:553    .text.iotx_alcs_coap_adapter_send_msg_handle:000000000000008e .L0 
C:\Users\stapi\AppData\Local\Temp\ccLFD7qg.s:554    .text.iotx_alcs_coap_adapter_send_msg_handle:000000000000008e .L0 
C:\Users\stapi\AppData\Local\Temp\ccLFD7qg.s:556    .text.iotx_alcs_coap_adapter_send_msg_handle:0000000000000092 .L0 
C:\Users\stapi\AppData\Local\Temp\ccLFD7qg.s:557    .text.iotx_alcs_coap_adapter_send_msg_handle:0000000000000092 .L0 
C:\Users\stapi\AppData\Local\Temp\ccLFD7qg.s:559    .text.iotx_alcs_coap_adapter_send_msg_handle:0000000000000094 .L0 
C:\Users\stapi\AppData\Local\Temp\ccLFD7qg.s:562    .text.iotx_alcs_coap_adapter_send_msg_handle:0000000000000098 .L0 
C:\Users\stapi\AppData\Local\Temp\ccLFD7qg.s:563    .text.iotx_alcs_coap_adapter_send_msg_handle:0000000000000098 .L0 
C:\Users\stapi\AppData\Local\Temp\ccLFD7qg.s:565    .text.iotx_alcs_coap_adapter_send_msg_handle:000000000000009c .L0 
C:\Users\stapi\AppData\Local\Temp\ccLFD7qg.s:567    .text.iotx_alcs_coap_adapter_send_msg_handle:000000000000009e .L0 
C:\Users\stapi\AppData\Local\Temp\ccLFD7qg.s:569    .text.iotx_alcs_coap_adapter_send_msg_handle:00000000000000a2 .L0 
C:\Users\stapi\AppData\Local\Temp\ccLFD7qg.s:570    .text.iotx_alcs_coap_adapter_send_msg_handle:00000000000000a2 .L0 
C:\Users\stapi\AppData\Local\Temp\ccLFD7qg.s:573    .text.iotx_alcs_coap_adapter_send_msg_handle:00000000000000a6 .L0 
C:\Users\stapi\AppData\Local\Temp\ccLFD7qg.s:574    .text.iotx_alcs_coap_adapter_send_msg_handle:00000000000000a6 .L0 
C:\Users\stapi\AppData\Local\Temp\ccLFD7qg.s:577    .text.iotx_alcs_coap_adapter_send_msg_handle:00000000000000ae .L0 
C:\Users\stapi\AppData\Local\Temp\ccLFD7qg.s:578    .text.iotx_alcs_coap_adapter_send_msg_handle:00000000000000ae .L0 
C:\Users\stapi\AppData\Local\Temp\ccLFD7qg.s:581    .text.iotx_alcs_coap_adapter_send_msg_handle:00000000000000b4 .L0 
C:\Users\stapi\AppData\Local\Temp\ccLFD7qg.s:586    .text.iotx_alcs_coap_adapter_send_msg_handle:00000000000000b4 .L0 
C:\Users\stapi\AppData\Local\Temp\ccLFD7qg.s:587    .text.iotx_alcs_coap_adapter_send_msg_handle:00000000000000b4 .L0 
C:\Users\stapi\AppData\Local\Temp\ccLFD7qg.s:588    .text.iotx_alcs_coap_adapter_send_msg_handle:00000000000000b4 .L0 
C:\Users\stapi\AppData\Local\Temp\ccLFD7qg.s:591    .text.iotx_alcs_coap_adapter_send_msg_handle:00000000000000b8 .L0 
C:\Users\stapi\AppData\Local\Temp\ccLFD7qg.s:592    .text.iotx_alcs_coap_adapter_send_msg_handle:00000000000000b8 .L0 
C:\Users\stapi\AppData\Local\Temp\ccLFD7qg.s:594    .text.iotx_alcs_coap_adapter_send_msg_handle:00000000000000ba .L0 
C:\Users\stapi\AppData\Local\Temp\ccLFD7qg.s:601    .text.iotx_alcs_coap_adapter_send_msg_handle:00000000000000c4 .L0 
C:\Users\stapi\AppData\Local\Temp\ccLFD7qg.s:606    .text.iotx_alcs_coap_adapter_send_msg_handle:00000000000000d0 .L0 
C:\Users\stapi\AppData\Local\Temp\ccLFD7qg.s:611    .text.iotx_alcs_coap_adapter_send_msg_handle:00000000000000dc .L0 
C:\Users\stapi\AppData\Local\Temp\ccLFD7qg.s:617    .text.iotx_alcs_coap_adapter_send_msg_handle:00000000000000e6 .L0 
C:\Users\stapi\AppData\Local\Temp\ccLFD7qg.s:618    .text.iotx_alcs_coap_adapter_send_msg_handle:00000000000000e6 .L0 
C:\Users\stapi\AppData\Local\Temp\ccLFD7qg.s:619    .text.iotx_alcs_coap_adapter_send_msg_handle:00000000000000e8 .L0 
C:\Users\stapi\AppData\Local\Temp\ccLFD7qg.s:620    .text.iotx_alcs_coap_adapter_send_msg_handle:00000000000000e8 .L0 
C:\Users\stapi\AppData\Local\Temp\ccLFD7qg.s:622    .text.iotx_alcs_coap_adapter_send_msg_handle:00000000000000f0 .L0 
C:\Users\stapi\AppData\Local\Temp\ccLFD7qg.s:623    .text.iotx_alcs_coap_adapter_send_msg_handle:00000000000000f0 .L0 
C:\Users\stapi\AppData\Local\Temp\ccLFD7qg.s:624    .text.iotx_alcs_coap_adapter_send_msg_handle:00000000000000f0 .L0 
C:\Users\stapi\AppData\Local\Temp\ccLFD7qg.s:625    .text.iotx_alcs_coap_adapter_send_msg_handle:00000000000000f0 .L0 
C:\Users\stapi\AppData\Local\Temp\ccLFD7qg.s:626    .text.iotx_alcs_coap_adapter_send_msg_handle:00000000000000f0 .L0 
C:\Users\stapi\AppData\Local\Temp\ccLFD7qg.s:627    .text.iotx_alcs_coap_adapter_send_msg_handle:00000000000000f0 .L0 
C:\Users\stapi\AppData\Local\Temp\ccLFD7qg.s:630    .text.iotx_alcs_coap_adapter_send_msg_handle:00000000000000f0 .L0 
C:\Users\stapi\AppData\Local\Temp\ccLFD7qg.s:633    .text.iotx_alcs_coap_adapter_send_msg_handle:00000000000000f0 .L0 
C:\Users\stapi\AppData\Local\Temp\ccLFD7qg.s:634    .text.iotx_alcs_coap_adapter_send_msg_handle:00000000000000f0 .L0 
C:\Users\stapi\AppData\Local\Temp\ccLFD7qg.s:635    .text.iotx_alcs_coap_adapter_send_msg_handle:00000000000000f0 .L0 
C:\Users\stapi\AppData\Local\Temp\ccLFD7qg.s:640    .text.iotx_alcs_coap_adapter_send_msg_handle:00000000000000f6 .L0 
C:\Users\stapi\AppData\Local\Temp\ccLFD7qg.s:642    .text.iotx_alcs_coap_adapter_send_msg_handle:00000000000000f8 .L0 
C:\Users\stapi\AppData\Local\Temp\ccLFD7qg.s:645    .text.iotx_alcs_coap_adapter_send_msg_handle:0000000000000100 .L0 
C:\Users\stapi\AppData\Local\Temp\ccLFD7qg.s:646    .text.iotx_alcs_coap_adapter_send_msg_handle:0000000000000100 .L0 
C:\Users\stapi\AppData\Local\Temp\ccLFD7qg.s:648    .text.iotx_alcs_coap_adapter_send_msg_handle:0000000000000104 .L0 
C:\Users\stapi\AppData\Local\Temp\ccLFD7qg.s:650    .text.iotx_alcs_coap_adapter_send_msg_handle:0000000000000106 .L0 
C:\Users\stapi\AppData\Local\Temp\ccLFD7qg.s:652    .text.iotx_alcs_coap_adapter_send_msg_handle:0000000000000108 .L0 
C:\Users\stapi\AppData\Local\Temp\ccLFD7qg.s:653    .text.iotx_alcs_coap_adapter_send_msg_handle:0000000000000108 .L0 
C:\Users\stapi\AppData\Local\Temp\ccLFD7qg.s:655    .text.iotx_alcs_coap_adapter_send_msg_handle:000000000000010c .L0 
C:\Users\stapi\AppData\Local\Temp\ccLFD7qg.s:658    .text.iotx_alcs_coap_adapter_send_msg_handle:0000000000000114 .L0 
C:\Users\stapi\AppData\Local\Temp\ccLFD7qg.s:659    .text.iotx_alcs_coap_adapter_send_msg_handle:0000000000000114 .L0 
C:\Users\stapi\AppData\Local\Temp\ccLFD7qg.s:667    .text.iotx_alcs_coap_adapter_send_msg_handle:0000000000000124 .L0 
C:\Users\stapi\AppData\Local\Temp\ccLFD7qg.s:672    .text.iotx_alcs_coap_adapter_send_msg_handle:000000000000012e .L0 
C:\Users\stapi\AppData\Local\Temp\ccLFD7qg.s:673    .text.iotx_alcs_coap_adapter_send_msg_handle:000000000000012e .L0 
C:\Users\stapi\AppData\Local\Temp\ccLFD7qg.s:675    .text.iotx_alcs_coap_adapter_send_msg_handle:0000000000000132 .L0 
C:\Users\stapi\AppData\Local\Temp\ccLFD7qg.s:676    .text.iotx_alcs_coap_adapter_send_msg_handle:0000000000000132 .L0 
C:\Users\stapi\AppData\Local\Temp\ccLFD7qg.s:678    .text.iotx_alcs_coap_adapter_send_msg_handle:0000000000000134 .L0 
C:\Users\stapi\AppData\Local\Temp\ccLFD7qg.s:681    .text.iotx_alcs_coap_adapter_send_msg_handle:0000000000000138 .L0 
C:\Users\stapi\AppData\Local\Temp\ccLFD7qg.s:682    .text.iotx_alcs_coap_adapter_send_msg_handle:0000000000000138 .L0 
C:\Users\stapi\AppData\Local\Temp\ccLFD7qg.s:684    .text.iotx_alcs_coap_adapter_send_msg_handle:000000000000013c .L0 
C:\Users\stapi\AppData\Local\Temp\ccLFD7qg.s:686    .text.iotx_alcs_coap_adapter_send_msg_handle:000000000000013e .L0 
C:\Users\stapi\AppData\Local\Temp\ccLFD7qg.s:688    .text.iotx_alcs_coap_adapter_send_msg_handle:0000000000000142 .L0 
C:\Users\stapi\AppData\Local\Temp\ccLFD7qg.s:689    .text.iotx_alcs_coap_adapter_send_msg_handle:0000000000000142 .L0 
C:\Users\stapi\AppData\Local\Temp\ccLFD7qg.s:691    .text.iotx_alcs_coap_adapter_send_msg_handle:0000000000000144 .L0 
C:\Users\stapi\AppData\Local\Temp\ccLFD7qg.s:693    .text.iotx_alcs_coap_adapter_send_msg_handle:0000000000000148 .L0 
C:\Users\stapi\AppData\Local\Temp\ccLFD7qg.s:695    .text.iotx_alcs_coap_adapter_send_msg_handle:000000000000014a .L0 
C:\Users\stapi\AppData\Local\Temp\ccLFD7qg.s:697    .text.iotx_alcs_coap_adapter_send_msg_handle:000000000000014c .L0 
C:\Users\stapi\AppData\Local\Temp\ccLFD7qg.s:698    .text.iotx_alcs_coap_adapter_send_msg_handle:000000000000014c .L0 
C:\Users\stapi\AppData\Local\Temp\ccLFD7qg.s:699    .text.iotx_alcs_coap_adapter_send_msg_handle:000000000000014c .L0 
C:\Users\stapi\AppData\Local\Temp\ccLFD7qg.s:701    .text.iotx_alcs_coap_adapter_send_msg_handle:000000000000014e .L0 
C:\Users\stapi\AppData\Local\Temp\ccLFD7qg.s:708    .text.iotx_alcs_adapter_list_init:0000000000000000 iotx_alcs_adapter_list_init
C:\Users\stapi\AppData\Local\Temp\ccLFD7qg.s:711    .text.iotx_alcs_adapter_list_init:0000000000000000 .L0 
C:\Users\stapi\AppData\Local\Temp\ccLFD7qg.s:713    .text.iotx_alcs_adapter_list_init:0000000000000000 .L0 
C:\Users\stapi\AppData\Local\Temp\ccLFD7qg.s:714    .text.iotx_alcs_adapter_list_init:0000000000000000 .L0 
C:\Users\stapi\AppData\Local\Temp\ccLFD7qg.s:715    .text.iotx_alcs_adapter_list_init:0000000000000000 .L0 
C:\Users\stapi\AppData\Local\Temp\ccLFD7qg.s:720    .text.iotx_alcs_adapter_list_init:0000000000000004 .L0 
C:\Users\stapi\AppData\Local\Temp\ccLFD7qg.s:721    .text.iotx_alcs_adapter_list_init:0000000000000004 .L0 
C:\Users\stapi\AppData\Local\Temp\ccLFD7qg.s:723    .text.iotx_alcs_adapter_list_init:0000000000000006 .L0 
C:\Users\stapi\AppData\Local\Temp\ccLFD7qg.s:724    .text.iotx_alcs_adapter_list_init:0000000000000006 .L0 
C:\Users\stapi\AppData\Local\Temp\ccLFD7qg.s:729    .text.iotx_alcs_adapter_list_init:0000000000000008 .L0 
C:\Users\stapi\AppData\Local\Temp\ccLFD7qg.s:730    .text.iotx_alcs_adapter_list_init:0000000000000008 .L0 
C:\Users\stapi\AppData\Local\Temp\ccLFD7qg.s:733    .text.iotx_alcs_adapter_list_init:000000000000000c .L0 
C:\Users\stapi\AppData\Local\Temp\ccLFD7qg.s:740    .text.iotx_alcs_adapter_deinit:0000000000000000 iotx_alcs_adapter_deinit
C:\Users\stapi\AppData\Local\Temp\ccLFD7qg.s:743    .text.iotx_alcs_adapter_deinit:0000000000000000 .L0 
C:\Users\stapi\AppData\Local\Temp\ccLFD7qg.s:744    .text.iotx_alcs_adapter_deinit:0000000000000000 .L0 
C:\Users\stapi\AppData\Local\Temp\ccLFD7qg.s:745    .text.iotx_alcs_adapter_deinit:0000000000000008 .L0 
C:\Users\stapi\AppData\Local\Temp\ccLFD7qg.s:746    .text.iotx_alcs_adapter_deinit:0000000000000008 .L0 
C:\Users\stapi\AppData\Local\Temp\ccLFD7qg.s:747    .text.iotx_alcs_adapter_deinit:0000000000000008 .L0 
C:\Users\stapi\AppData\Local\Temp\ccLFD7qg.s:748    .text.iotx_alcs_adapter_deinit:0000000000000008 .L0 
C:\Users\stapi\AppData\Local\Temp\ccLFD7qg.s:749    .text.iotx_alcs_adapter_deinit:0000000000000008 .L0 
C:\Users\stapi\AppData\Local\Temp\ccLFD7qg.s:750    .text.iotx_alcs_adapter_deinit:0000000000000008 .L0 
C:\Users\stapi\AppData\Local\Temp\ccLFD7qg.s:752    .text.iotx_alcs_adapter_deinit:0000000000000008 .L0 
C:\Users\stapi\AppData\Local\Temp\ccLFD7qg.s:753    .text.iotx_alcs_adapter_deinit:0000000000000008 .L0 
C:\Users\stapi\AppData\Local\Temp\ccLFD7qg.s:754    .text.iotx_alcs_adapter_deinit:000000000000000a .L0 
C:\Users\stapi\AppData\Local\Temp\ccLFD7qg.s:756    .text.iotx_alcs_adapter_deinit:000000000000000a .L0 
C:\Users\stapi\AppData\Local\Temp\ccLFD7qg.s:760    .text.iotx_alcs_adapter_deinit:0000000000000010 .L0 
C:\Users\stapi\AppData\Local\Temp\ccLFD7qg.s:767    .text.iotx_alcs_adapter_deinit:000000000000001e .L0 
C:\Users\stapi\AppData\Local\Temp\ccLFD7qg.s:768    .text.iotx_alcs_adapter_deinit:000000000000001e .L0 
C:\Users\stapi\AppData\Local\Temp\ccLFD7qg.s:772    .text.iotx_alcs_adapter_deinit:0000000000000028 .L0 
C:\Users\stapi\AppData\Local\Temp\ccLFD7qg.s:773    .text.iotx_alcs_adapter_deinit:0000000000000028 .L0 
C:\Users\stapi\AppData\Local\Temp\ccLFD7qg.s:774    .text.iotx_alcs_adapter_deinit:0000000000000028 .L0 
C:\Users\stapi\AppData\Local\Temp\ccLFD7qg.s:778    .text.iotx_alcs_adapter_deinit:0000000000000032 .L0 
C:\Users\stapi\AppData\Local\Temp\ccLFD7qg.s:779    .text.iotx_alcs_adapter_deinit:0000000000000032 .L0 
C:\Users\stapi\AppData\Local\Temp\ccLFD7qg.s:781    .text.iotx_alcs_adapter_deinit:0000000000000036 .L0 
C:\Users\stapi\AppData\Local\Temp\ccLFD7qg.s:783    .text.iotx_alcs_adapter_deinit:0000000000000038 .L0 
C:\Users\stapi\AppData\Local\Temp\ccLFD7qg.s:785    .text.iotx_alcs_adapter_deinit:000000000000003c .L0 
C:\Users\stapi\AppData\Local\Temp\ccLFD7qg.s:788    .text.iotx_alcs_adapter_deinit:0000000000000044 .L0 
C:\Users\stapi\AppData\Local\Temp\ccLFD7qg.s:793    .text.iotx_alcs_adapter_deinit:000000000000004a .L0 
C:\Users\stapi\AppData\Local\Temp\ccLFD7qg.s:797    .text.iotx_alcs_adapter_deinit:000000000000004e .L0 
C:\Users\stapi\AppData\Local\Temp\ccLFD7qg.s:802    .text.iotx_alcs_adapter_deinit:0000000000000056 .L0 
C:\Users\stapi\AppData\Local\Temp\ccLFD7qg.s:803    .text.iotx_alcs_adapter_deinit:0000000000000056 .L0 
C:\Users\stapi\AppData\Local\Temp\ccLFD7qg.s:804    .text.iotx_alcs_adapter_deinit:0000000000000056 .L0 
C:\Users\stapi\AppData\Local\Temp\ccLFD7qg.s:805    .text.iotx_alcs_adapter_deinit:0000000000000056 .L0 
C:\Users\stapi\AppData\Local\Temp\ccLFD7qg.s:813    .text.iotx_alcs_adapter_deinit:0000000000000062 .L0 
C:\Users\stapi\AppData\Local\Temp\ccLFD7qg.s:819    .text.iotx_alcs_adapter_deinit:000000000000006a .L0 
C:\Users\stapi\AppData\Local\Temp\ccLFD7qg.s:823    .text.iotx_alcs_adapter_deinit:0000000000000074 .L0 
C:\Users\stapi\AppData\Local\Temp\ccLFD7qg.s:824    .text.iotx_alcs_adapter_deinit:0000000000000074 .L0 
C:\Users\stapi\AppData\Local\Temp\ccLFD7qg.s:826    .text.iotx_alcs_adapter_deinit:0000000000000076 .L0 
C:\Users\stapi\AppData\Local\Temp\ccLFD7qg.s:828    .text.iotx_alcs_adapter_deinit:0000000000000078 .L0 
C:\Users\stapi\AppData\Local\Temp\ccLFD7qg.s:832    .text.iotx_alcs_adapter_deinit:0000000000000080 .L0 
C:\Users\stapi\AppData\Local\Temp\ccLFD7qg.s:836    .text.iotx_alcs_adapter_deinit:000000000000008a .L0 
C:\Users\stapi\AppData\Local\Temp\ccLFD7qg.s:842    .text.iotx_alcs_adapter_deinit:0000000000000098 .L0 
C:\Users\stapi\AppData\Local\Temp\ccLFD7qg.s:845    .text.iotx_alcs_adapter_deinit:00000000000000a0 .L0 
C:\Users\stapi\AppData\Local\Temp\ccLFD7qg.s:848    .text.iotx_alcs_adapter_deinit:00000000000000a8 .L0 
C:\Users\stapi\AppData\Local\Temp\ccLFD7qg.s:851    .text.iotx_alcs_adapter_deinit:00000000000000b0 .L0 
C:\Users\stapi\AppData\Local\Temp\ccLFD7qg.s:852    .text.iotx_alcs_adapter_deinit:00000000000000b0 .L0 
C:\Users\stapi\AppData\Local\Temp\ccLFD7qg.s:854    .text.iotx_alcs_adapter_deinit:00000000000000b4 .L0 
C:\Users\stapi\AppData\Local\Temp\ccLFD7qg.s:855    .text.iotx_alcs_adapter_deinit:00000000000000b4 .L0 
C:\Users\stapi\AppData\Local\Temp\ccLFD7qg.s:857    .text.iotx_alcs_adapter_deinit:00000000000000bc .L0 
C:\Users\stapi\AppData\Local\Temp\ccLFD7qg.s:858    .text.iotx_alcs_adapter_deinit:00000000000000bc .L0 
C:\Users\stapi\AppData\Local\Temp\ccLFD7qg.s:859    .text.iotx_alcs_adapter_deinit:00000000000000bc .L0 
C:\Users\stapi\AppData\Local\Temp\ccLFD7qg.s:860    .text.iotx_alcs_adapter_deinit:00000000000000bc .L0 
C:\Users\stapi\AppData\Local\Temp\ccLFD7qg.s:861    .text.iotx_alcs_adapter_deinit:00000000000000bc .L0 
C:\Users\stapi\AppData\Local\Temp\ccLFD7qg.s:862    .text.iotx_alcs_adapter_deinit:00000000000000bc .L0 
C:\Users\stapi\AppData\Local\Temp\ccLFD7qg.s:865    .text.iotx_alcs_adapter_deinit:00000000000000bc .L0 
C:\Users\stapi\AppData\Local\Temp\ccLFD7qg.s:871    .text.iotx_alcs_adapter_deinit:00000000000000bc .L0 
C:\Users\stapi\AppData\Local\Temp\ccLFD7qg.s:872    .text.iotx_alcs_adapter_deinit:00000000000000bc .L0 
C:\Users\stapi\AppData\Local\Temp\ccLFD7qg.s:873    .text.iotx_alcs_adapter_deinit:00000000000000bc .L0 
C:\Users\stapi\AppData\Local\Temp\ccLFD7qg.s:875    .text.iotx_alcs_adapter_deinit:00000000000000be .L0 
C:\Users\stapi\AppData\Local\Temp\ccLFD7qg.s:878    .text.iotx_alcs_adapter_deinit:00000000000000c0 .L0 
C:\Users\stapi\AppData\Local\Temp\ccLFD7qg.s:881    .text.iotx_alcs_adapter_deinit:00000000000000c0 .L0 
C:\Users\stapi\AppData\Local\Temp\ccLFD7qg.s:882    .text.iotx_alcs_adapter_deinit:00000000000000c0 .L0 
C:\Users\stapi\AppData\Local\Temp\ccLFD7qg.s:886    .text.iotx_alcs_adapter_deinit:00000000000000c2 .L0 
C:\Users\stapi\AppData\Local\Temp\ccLFD7qg.s:888    .text.iotx_alcs_adapter_deinit:00000000000000c4 .L0 
C:\Users\stapi\AppData\Local\Temp\ccLFD7qg.s:889    .text.iotx_alcs_adapter_deinit:00000000000000c4 .L0 
C:\Users\stapi\AppData\Local\Temp\ccLFD7qg.s:894    .text.iotx_alcs_adapter_deinit:00000000000000c6 .L0 
C:\Users\stapi\AppData\Local\Temp\ccLFD7qg.s:897    .text.iotx_alcs_adapter_deinit:00000000000000ce .L0 
C:\Users\stapi\AppData\Local\Temp\ccLFD7qg.s:901    .text.iotx_alcs_adapter_deinit:00000000000000d8 .L0 
C:\Users\stapi\AppData\Local\Temp\ccLFD7qg.s:905    .text.iotx_alcs_adapter_deinit:00000000000000e2 .L0 
C:\Users\stapi\AppData\Local\Temp\ccLFD7qg.s:913    .text.iotx_alcs_adapter_deinit:00000000000000ee .L0 
C:\Users\stapi\AppData\Local\Temp\ccLFD7qg.s:942    .text.iotx_alcs_adapter_init:0000000000000000 iotx_alcs_adapter_init
C:\Users\stapi\AppData\Local\Temp\ccLFD7qg.s:945    .text.iotx_alcs_adapter_init:0000000000000000 .L0 
C:\Users\stapi\AppData\Local\Temp\ccLFD7qg.s:947    .text.iotx_alcs_adapter_init:0000000000000000 .L0 
C:\Users\stapi\AppData\Local\Temp\ccLFD7qg.s:948    .text.iotx_alcs_adapter_init:0000000000000008 .L0 
C:\Users\stapi\AppData\Local\Temp\ccLFD7qg.s:949    .text.iotx_alcs_adapter_init:0000000000000008 .L0 
C:\Users\stapi\AppData\Local\Temp\ccLFD7qg.s:950    .text.iotx_alcs_adapter_init:0000000000000008 .L0 
C:\Users\stapi\AppData\Local\Temp\ccLFD7qg.s:951    .text.iotx_alcs_adapter_init:0000000000000008 .L0 
C:\Users\stapi\AppData\Local\Temp\ccLFD7qg.s:952    .text.iotx_alcs_adapter_init:0000000000000008 .L0 
C:\Users\stapi\AppData\Local\Temp\ccLFD7qg.s:953    .text.iotx_alcs_adapter_init:0000000000000008 .L0 
C:\Users\stapi\AppData\Local\Temp\ccLFD7qg.s:954    .text.iotx_alcs_adapter_init:0000000000000008 .L0 
C:\Users\stapi\AppData\Local\Temp\ccLFD7qg.s:955    .text.iotx_alcs_adapter_init:0000000000000008 .L0 
C:\Users\stapi\AppData\Local\Temp\ccLFD7qg.s:957    .text.iotx_alcs_adapter_init:0000000000000008 .L0 
C:\Users\stapi\AppData\Local\Temp\ccLFD7qg.s:958    .text.iotx_alcs_adapter_init:0000000000000008 .L0 
C:\Users\stapi\AppData\Local\Temp\ccLFD7qg.s:959    .text.iotx_alcs_adapter_init:0000000000000008 .L0 
C:\Users\stapi\AppData\Local\Temp\ccLFD7qg.s:961    .text.iotx_alcs_adapter_init:000000000000000a .L0 
C:\Users\stapi\AppData\Local\Temp\ccLFD7qg.s:964    .text.iotx_alcs_adapter_init:000000000000000e .L0 
C:\Users\stapi\AppData\Local\Temp\ccLFD7qg.s:965    .text.iotx_alcs_adapter_init:0000000000000010 .L0 
C:\Users\stapi\AppData\Local\Temp\ccLFD7qg.s:967    .text.iotx_alcs_adapter_init:0000000000000010 .L0 
C:\Users\stapi\AppData\Local\Temp\ccLFD7qg.s:969    .text.iotx_alcs_adapter_init:0000000000000014 .L0 
C:\Users\stapi\AppData\Local\Temp\ccLFD7qg.s:971    .text.iotx_alcs_adapter_init:0000000000000016 .L0 
C:\Users\stapi\AppData\Local\Temp\ccLFD7qg.s:974    .text.iotx_alcs_adapter_init:000000000000001e .L0 
C:\Users\stapi\AppData\Local\Temp\ccLFD7qg.s:979    .text.iotx_alcs_adapter_init:000000000000002e .L0 
C:\Users\stapi\AppData\Local\Temp\ccLFD7qg.s:984    .text.iotx_alcs_adapter_init:000000000000003e .L0 
C:\Users\stapi\AppData\Local\Temp\ccLFD7qg.s:985    .text.iotx_alcs_adapter_init:000000000000003e .L0 
C:\Users\stapi\AppData\Local\Temp\ccLFD7qg.s:986    .text.iotx_alcs_adapter_init:000000000000003e .L0 
C:\Users\stapi\AppData\Local\Temp\ccLFD7qg.s:987    .text.iotx_alcs_adapter_init:000000000000003e .L0 
C:\Users\stapi\AppData\Local\Temp\ccLFD7qg.s:988    .text.iotx_alcs_adapter_init:000000000000003e .L0 
C:\Users\stapi\AppData\Local\Temp\ccLFD7qg.s:989    .text.iotx_alcs_adapter_init:000000000000003e .L0 
C:\Users\stapi\AppData\Local\Temp\ccLFD7qg.s:993    .text.iotx_alcs_adapter_init:0000000000000044 .L0 
C:\Users\stapi\AppData\Local\Temp\ccLFD7qg.s:1000   .text.iotx_alcs_adapter_init:0000000000000052 .L0 
C:\Users\stapi\AppData\Local\Temp\ccLFD7qg.s:1001   .text.iotx_alcs_adapter_init:0000000000000052 .L0 
C:\Users\stapi\AppData\Local\Temp\ccLFD7qg.s:1005   .text.iotx_alcs_adapter_init:000000000000005c .L0 
C:\Users\stapi\AppData\Local\Temp\ccLFD7qg.s:1011   .text.iotx_alcs_adapter_init:000000000000006a .L0 
C:\Users\stapi\AppData\Local\Temp\ccLFD7qg.s:1012   .text.iotx_alcs_adapter_init:000000000000006a .L0 
C:\Users\stapi\AppData\Local\Temp\ccLFD7qg.s:1015   .text.iotx_alcs_adapter_init:0000000000000072 .L0 
C:\Users\stapi\AppData\Local\Temp\ccLFD7qg.s:1017   .text.iotx_alcs_adapter_init:0000000000000074 .L0 
C:\Users\stapi\AppData\Local\Temp\ccLFD7qg.s:1018   .text.iotx_alcs_adapter_init:0000000000000074 .L0 
C:\Users\stapi\AppData\Local\Temp\ccLFD7qg.s:1020   .text.iotx_alcs_adapter_init:0000000000000076 .L0 
C:\Users\stapi\AppData\Local\Temp\ccLFD7qg.s:1021   .text.iotx_alcs_adapter_init:0000000000000076 .L0 
C:\Users\stapi\AppData\Local\Temp\ccLFD7qg.s:1026   .text.iotx_alcs_adapter_init:0000000000000086 .L0 
C:\Users\stapi\AppData\Local\Temp\ccLFD7qg.s:1031   .text.iotx_alcs_adapter_init:000000000000008e .L0 
C:\Users\stapi\AppData\Local\Temp\ccLFD7qg.s:1034   .text.iotx_alcs_adapter_init:0000000000000096 .L0 
C:\Users\stapi\AppData\Local\Temp\ccLFD7qg.s:1037   .text.iotx_alcs_adapter_init:000000000000009a .L0 
C:\Users\stapi\AppData\Local\Temp\ccLFD7qg.s:1043   .text.iotx_alcs_adapter_init:00000000000000a4 .L0 
C:\Users\stapi\AppData\Local\Temp\ccLFD7qg.s:1044   .text.iotx_alcs_adapter_init:00000000000000a4 .L0 
C:\Users\stapi\AppData\Local\Temp\ccLFD7qg.s:1046   .text.iotx_alcs_adapter_init:00000000000000a8 .L0 
C:\Users\stapi\AppData\Local\Temp\ccLFD7qg.s:1048   .text.iotx_alcs_adapter_init:00000000000000aa .L0 
C:\Users\stapi\AppData\Local\Temp\ccLFD7qg.s:1050   .text.iotx_alcs_adapter_init:00000000000000ac .L0 
C:\Users\stapi\AppData\Local\Temp\ccLFD7qg.s:1052   .text.iotx_alcs_adapter_init:00000000000000b0 .L0 
C:\Users\stapi\AppData\Local\Temp\ccLFD7qg.s:1053   .text.iotx_alcs_adapter_init:00000000000000b0 .L0 
C:\Users\stapi\AppData\Local\Temp\ccLFD7qg.s:1056   .text.iotx_alcs_adapter_init:00000000000000b8 .L0 
C:\Users\stapi\AppData\Local\Temp\ccLFD7qg.s:1057   .text.iotx_alcs_adapter_init:00000000000000b8 .L0 
C:\Users\stapi\AppData\Local\Temp\ccLFD7qg.s:1060   .text.iotx_alcs_adapter_init:00000000000000c0 .L0 
C:\Users\stapi\AppData\Local\Temp\ccLFD7qg.s:1061   .text.iotx_alcs_adapter_init:00000000000000c0 .L0 
C:\Users\stapi\AppData\Local\Temp\ccLFD7qg.s:1064   .text.iotx_alcs_adapter_init:00000000000000c4 .L0 
C:\Users\stapi\AppData\Local\Temp\ccLFD7qg.s:1065   .text.iotx_alcs_adapter_init:00000000000000c4 .L0 
C:\Users\stapi\AppData\Local\Temp\ccLFD7qg.s:1068   .text.iotx_alcs_adapter_init:00000000000000c8 .L0 
C:\Users\stapi\AppData\Local\Temp\ccLFD7qg.s:1069   .text.iotx_alcs_adapter_init:00000000000000c8 .L0 
C:\Users\stapi\AppData\Local\Temp\ccLFD7qg.s:1072   .text.iotx_alcs_adapter_init:00000000000000d0 .L0 
C:\Users\stapi\AppData\Local\Temp\ccLFD7qg.s:1073   .text.iotx_alcs_adapter_init:00000000000000d0 .L0 
C:\Users\stapi\AppData\Local\Temp\ccLFD7qg.s:1074   .text.iotx_alcs_adapter_init:00000000000000d0 .L0 
C:\Users\stapi\AppData\Local\Temp\ccLFD7qg.s:1078   .text.iotx_alcs_adapter_init:00000000000000da .L0 
C:\Users\stapi\AppData\Local\Temp\ccLFD7qg.s:1079   .text.iotx_alcs_adapter_init:00000000000000da .L0 
C:\Users\stapi\AppData\Local\Temp\ccLFD7qg.s:1084   .text.iotx_alcs_adapter_init:00000000000000e4 .L0 
C:\Users\stapi\AppData\Local\Temp\ccLFD7qg.s:1085   .text.iotx_alcs_adapter_init:00000000000000e4 .L0 
C:\Users\stapi\AppData\Local\Temp\ccLFD7qg.s:1087   .text.iotx_alcs_adapter_init:00000000000000e6 .L0 
C:\Users\stapi\AppData\Local\Temp\ccLFD7qg.s:1088   .text.iotx_alcs_adapter_init:00000000000000e6 .L0 
C:\Users\stapi\AppData\Local\Temp\ccLFD7qg.s:1094   .text.iotx_alcs_adapter_init:00000000000000f6 .L0 
C:\Users\stapi\AppData\Local\Temp\ccLFD7qg.s:1099   .text.iotx_alcs_adapter_init:0000000000000106 .L0 
C:\Users\stapi\AppData\Local\Temp\ccLFD7qg.s:1103   .text.iotx_alcs_adapter_init:0000000000000112 .L0 
C:\Users\stapi\AppData\Local\Temp\ccLFD7qg.s:1104   .text.iotx_alcs_adapter_init:0000000000000112 .L0 
C:\Users\stapi\AppData\Local\Temp\ccLFD7qg.s:1109   .text.iotx_alcs_adapter_init:000000000000011c .L0 
C:\Users\stapi\AppData\Local\Temp\ccLFD7qg.s:1110   .text.iotx_alcs_adapter_init:000000000000011c .L0 
C:\Users\stapi\AppData\Local\Temp\ccLFD7qg.s:1111   .text.iotx_alcs_adapter_init:000000000000011c .L0 
C:\Users\stapi\AppData\Local\Temp\ccLFD7qg.s:1112   .text.iotx_alcs_adapter_init:000000000000011c .L0 
C:\Users\stapi\AppData\Local\Temp\ccLFD7qg.s:1115   .text.iotx_alcs_adapter_init:000000000000011e .L0 
C:\Users\stapi\AppData\Local\Temp\ccLFD7qg.s:1117   .text.iotx_alcs_adapter_init:0000000000000122 .L0 
C:\Users\stapi\AppData\Local\Temp\ccLFD7qg.s:1118   .text.iotx_alcs_adapter_init:0000000000000122 .L0 
C:\Users\stapi\AppData\Local\Temp\ccLFD7qg.s:1120   .text.iotx_alcs_adapter_init:000000000000012a .L0 
C:\Users\stapi\AppData\Local\Temp\ccLFD7qg.s:1121   .text.iotx_alcs_adapter_init:000000000000012a .L0 
C:\Users\stapi\AppData\Local\Temp\ccLFD7qg.s:1122   .text.iotx_alcs_adapter_init:000000000000012a .L0 
C:\Users\stapi\AppData\Local\Temp\ccLFD7qg.s:1123   .text.iotx_alcs_adapter_init:000000000000012a .L0 
C:\Users\stapi\AppData\Local\Temp\ccLFD7qg.s:1124   .text.iotx_alcs_adapter_init:000000000000012a .L0 
C:\Users\stapi\AppData\Local\Temp\ccLFD7qg.s:1125   .text.iotx_alcs_adapter_init:000000000000012a .L0 
C:\Users\stapi\AppData\Local\Temp\ccLFD7qg.s:1126   .text.iotx_alcs_adapter_init:000000000000012a .L0 
C:\Users\stapi\AppData\Local\Temp\ccLFD7qg.s:1127   .text.iotx_alcs_adapter_init:000000000000012a .L0 
C:\Users\stapi\AppData\Local\Temp\ccLFD7qg.s:1130   .text.iotx_alcs_adapter_init:000000000000012a .L0 
C:\Users\stapi\AppData\Local\Temp\ccLFD7qg.s:1132   .text.iotx_alcs_adapter_init:000000000000012a .L0 
C:\Users\stapi\AppData\Local\Temp\ccLFD7qg.s:1133   .text.iotx_alcs_adapter_init:000000000000012a .L0 
C:\Users\stapi\AppData\Local\Temp\ccLFD7qg.s:1135   .text.iotx_alcs_adapter_init:000000000000012c .L0 
C:\Users\stapi\AppData\Local\Temp\ccLFD7qg.s:1136   .text.iotx_alcs_adapter_init:000000000000012c .L0 
C:\Users\stapi\AppData\Local\Temp\ccLFD7qg.s:1141   .text.iotx_alcs_adapter_init:0000000000000136 .L0 
C:\Users\stapi\AppData\Local\Temp\ccLFD7qg.s:1142   .text.iotx_alcs_adapter_init:0000000000000136 .L0 
C:\Users\stapi\AppData\Local\Temp\ccLFD7qg.s:1145   .text.iotx_alcs_adapter_init:0000000000000138 .L0 
C:\Users\stapi\AppData\Local\Temp\ccLFD7qg.s:1148   .text.iotx_alcs_adapter_init:000000000000013e .L0 
C:\Users\stapi\AppData\Local\Temp\ccLFD7qg.s:1151   .text.iotx_alcs_adapter_init:0000000000000146 .L0 
C:\Users\stapi\AppData\Local\Temp\ccLFD7qg.s:1152   .text.iotx_alcs_adapter_init:0000000000000146 .L0 
C:\Users\stapi\AppData\Local\Temp\ccLFD7qg.s:1157   .text.iotx_alcs_adapter_init:0000000000000156 .L0 
C:\Users\stapi\AppData\Local\Temp\ccLFD7qg.s:1163   .text.iotx_alcs_adapter_init:0000000000000160 .L0 
C:\Users\stapi\AppData\Local\Temp\ccLFD7qg.s:1164   .text.iotx_alcs_adapter_init:0000000000000160 .L0 
C:\Users\stapi\AppData\Local\Temp\ccLFD7qg.s:1169   .text.iotx_alcs_adapter_init:000000000000016a .L0 
C:\Users\stapi\AppData\Local\Temp\ccLFD7qg.s:1170   .text.iotx_alcs_adapter_init:000000000000016a .L0 
C:\Users\stapi\AppData\Local\Temp\ccLFD7qg.s:1173   .text.iotx_alcs_adapter_init:000000000000016c .L0 
C:\Users\stapi\AppData\Local\Temp\ccLFD7qg.s:1176   .text.iotx_alcs_adapter_init:0000000000000172 .L0 
C:\Users\stapi\AppData\Local\Temp\ccLFD7qg.s:1179   .text.iotx_alcs_adapter_init:000000000000017a .L0 
C:\Users\stapi\AppData\Local\Temp\ccLFD7qg.s:1180   .text.iotx_alcs_adapter_init:000000000000017a .L0 
C:\Users\stapi\AppData\Local\Temp\ccLFD7qg.s:1185   .text.iotx_alcs_adapter_init:000000000000018a .L0 
C:\Users\stapi\AppData\Local\Temp\ccLFD7qg.s:1191   .text.iotx_alcs_adapter_init:0000000000000194 .L0 
C:\Users\stapi\AppData\Local\Temp\ccLFD7qg.s:1194   .text.iotx_alcs_adapter_init:000000000000019c .L0 
C:\Users\stapi\AppData\Local\Temp\ccLFD7qg.s:1195   .text.iotx_alcs_adapter_init:000000000000019c .L0 
C:\Users\stapi\AppData\Local\Temp\ccLFD7qg.s:1204   .text.iotx_alcs_adapter_init:00000000000001b0 .L0 
C:\Users\stapi\AppData\Local\Temp\ccLFD7qg.s:1205   .text.iotx_alcs_adapter_init:00000000000001b0 .L0 
C:\Users\stapi\AppData\Local\Temp\ccLFD7qg.s:1207   .text.iotx_alcs_adapter_init:00000000000001b2 .L0 
C:\Users\stapi\AppData\Local\Temp\ccLFD7qg.s:1210   .text.iotx_alcs_adapter_init:00000000000001ba .L0 
C:\Users\stapi\AppData\Local\Temp\ccLFD7qg.s:1211   .text.iotx_alcs_adapter_init:00000000000001ba .L0 
C:\Users\stapi\AppData\Local\Temp\ccLFD7qg.s:1216   .text.iotx_alcs_adapter_init:00000000000001ca .L0 
C:\Users\stapi\AppData\Local\Temp\ccLFD7qg.s:1222   .text.iotx_alcs_adapter_init:00000000000001d4 .L0 
C:\Users\stapi\AppData\Local\Temp\ccLFD7qg.s:1225   .text.iotx_alcs_adapter_init:00000000000001da .L0 
C:\Users\stapi\AppData\Local\Temp\ccLFD7qg.s:1226   .text.iotx_alcs_adapter_init:00000000000001da .L0 
C:\Users\stapi\AppData\Local\Temp\ccLFD7qg.s:1228   .text.iotx_alcs_adapter_init:00000000000001de .L0 
C:\Users\stapi\AppData\Local\Temp\ccLFD7qg.s:1229   .text.iotx_alcs_adapter_init:00000000000001de .L0 
C:\Users\stapi\AppData\Local\Temp\ccLFD7qg.s:1230   .text.iotx_alcs_adapter_init:00000000000001de .L0 
C:\Users\stapi\AppData\Local\Temp\ccLFD7qg.s:1233   .text.iotx_alcs_adapter_init:00000000000001e2 .L0 
C:\Users\stapi\AppData\Local\Temp\ccLFD7qg.s:1234   .text.iotx_alcs_adapter_init:00000000000001e2 .L0 
C:\Users\stapi\AppData\Local\Temp\ccLFD7qg.s:1239   .text.iotx_alcs_adapter_init:00000000000001ec .L0 
C:\Users\stapi\AppData\Local\Temp\ccLFD7qg.s:1240   .text.iotx_alcs_adapter_init:00000000000001ec .L0 
C:\Users\stapi\AppData\Local\Temp\ccLFD7qg.s:1247   .text.iotx_alcs_adapter_init:00000000000001fa .L0 
C:\Users\stapi\AppData\Local\Temp\ccLFD7qg.s:1249   .text.iotx_alcs_adapter_init:00000000000001fc .L0 
C:\Users\stapi\AppData\Local\Temp\ccLFD7qg.s:1250   .text.iotx_alcs_adapter_init:00000000000001fc .L0 
C:\Users\stapi\AppData\Local\Temp\ccLFD7qg.s:1252   .text.iotx_alcs_adapter_init:00000000000001fe .L0 
C:\Users\stapi\AppData\Local\Temp\ccLFD7qg.s:1255   .text.iotx_alcs_adapter_init:0000000000000206 .L0 
C:\Users\stapi\AppData\Local\Temp\ccLFD7qg.s:1256   .text.iotx_alcs_adapter_init:0000000000000206 .L0 
C:\Users\stapi\AppData\Local\Temp\ccLFD7qg.s:1261   .text.iotx_alcs_adapter_init:0000000000000216 .L0 
C:\Users\stapi\AppData\Local\Temp\ccLFD7qg.s:1266   .text.iotx_alcs_adapter_init:0000000000000226 .L0 
C:\Users\stapi\AppData\Local\Temp\ccLFD7qg.s:1270   .text.iotx_alcs_adapter_init:000000000000022c .L0 
C:\Users\stapi\AppData\Local\Temp\ccLFD7qg.s:1277   .text.iotx_alcs_adapter_init:0000000000000238 .L0 
C:\Users\stapi\AppData\Local\Temp\ccLFD7qg.s:1278   .text.iotx_alcs_adapter_init:0000000000000238 .L0 
C:\Users\stapi\AppData\Local\Temp\ccLFD7qg.s:1279   .text.iotx_alcs_adapter_init:0000000000000238 .L0 
C:\Users\stapi\AppData\Local\Temp\ccLFD7qg.s:1284   .text.iotx_alcs_adapter_init:000000000000023c .L0 
C:\Users\stapi\AppData\Local\Temp\ccLFD7qg.s:1285   .text.iotx_alcs_adapter_init:000000000000023c .L0 
C:\Users\stapi\AppData\Local\Temp\ccLFD7qg.s:1287   .text.iotx_alcs_adapter_init:000000000000023e .L0 
C:\Users\stapi\AppData\Local\Temp\ccLFD7qg.s:1288   .text.iotx_alcs_adapter_init:000000000000023e .L0 
C:\Users\stapi\AppData\Local\Temp\ccLFD7qg.s:1295   .text.iotx_alcs_adapter_init:0000000000000240 .L0 
C:\Users\stapi\AppData\Local\Temp\ccLFD7qg.s:1296   .text.iotx_alcs_adapter_init:0000000000000240 .L0 
C:\Users\stapi\AppData\Local\Temp\ccLFD7qg.s:1303   .text.iotx_alcs_adapter_init:0000000000000250 .L0 
C:\Users\stapi\AppData\Local\Temp\ccLFD7qg.s:1304   .text.iotx_alcs_adapter_init:0000000000000250 .L0 
C:\Users\stapi\AppData\Local\Temp\ccLFD7qg.s:1305   .text.iotx_alcs_adapter_init:0000000000000252 .L0 
C:\Users\stapi\AppData\Local\Temp\ccLFD7qg.s:1331   .text.iotx_alcs_construct:0000000000000000 iotx_alcs_construct
C:\Users\stapi\AppData\Local\Temp\ccLFD7qg.s:1334   .text.iotx_alcs_construct:0000000000000000 .L0 
C:\Users\stapi\AppData\Local\Temp\ccLFD7qg.s:1336   .text.iotx_alcs_construct:0000000000000000 .L0 
C:\Users\stapi\AppData\Local\Temp\ccLFD7qg.s:1337   .text.iotx_alcs_construct:0000000000000008 .L0 
C:\Users\stapi\AppData\Local\Temp\ccLFD7qg.s:1338   .text.iotx_alcs_construct:0000000000000008 .L0 
C:\Users\stapi\AppData\Local\Temp\ccLFD7qg.s:1339   .text.iotx_alcs_construct:0000000000000008 .L0 
C:\Users\stapi\AppData\Local\Temp\ccLFD7qg.s:1340   .text.iotx_alcs_construct:0000000000000008 .L0 
C:\Users\stapi\AppData\Local\Temp\ccLFD7qg.s:1341   .text.iotx_alcs_construct:0000000000000008 .L0 
C:\Users\stapi\AppData\Local\Temp\ccLFD7qg.s:1343   .text.iotx_alcs_construct:0000000000000008 .L0 
C:\Users\stapi\AppData\Local\Temp\ccLFD7qg.s:1344   .text.iotx_alcs_construct:0000000000000008 .L0 
C:\Users\stapi\AppData\Local\Temp\ccLFD7qg.s:1345   .text.iotx_alcs_construct:0000000000000008 .L0 
C:\Users\stapi\AppData\Local\Temp\ccLFD7qg.s:1347   .text.iotx_alcs_construct:000000000000000a .L0 
C:\Users\stapi\AppData\Local\Temp\ccLFD7qg.s:1353   .text.iotx_alcs_construct:000000000000001a .L0 
C:\Users\stapi\AppData\Local\Temp\ccLFD7qg.s:1358   .text.iotx_alcs_construct:000000000000002a .L0 
C:\Users\stapi\AppData\Local\Temp\ccLFD7qg.s:1363   .text.iotx_alcs_construct:000000000000003a .L0 
C:\Users\stapi\AppData\Local\Temp\ccLFD7qg.s:1364   .text.iotx_alcs_construct:000000000000003a .L0 
C:\Users\stapi\AppData\Local\Temp\ccLFD7qg.s:1365   .text.iotx_alcs_construct:000000000000003a .L0 
C:\Users\stapi\AppData\Local\Temp\ccLFD7qg.s:1366   .text.iotx_alcs_construct:000000000000003a .L0 
C:\Users\stapi\AppData\Local\Temp\ccLFD7qg.s:1367   .text.iotx_alcs_construct:000000000000003a .L0 
C:\Users\stapi\AppData\Local\Temp\ccLFD7qg.s:1368   .text.iotx_alcs_construct:000000000000003a .L0 
C:\Users\stapi\AppData\Local\Temp\ccLFD7qg.s:1370   .text.iotx_alcs_construct:000000000000003c .L0 
C:\Users\stapi\AppData\Local\Temp\ccLFD7qg.s:1371   .text.iotx_alcs_construct:000000000000003c .L0 
C:\Users\stapi\AppData\Local\Temp\ccLFD7qg.s:1376   .text.iotx_alcs_construct:000000000000004c .L0 
C:\Users\stapi\AppData\Local\Temp\ccLFD7qg.s:1383   .text.iotx_alcs_construct:000000000000005e .L0 
C:\Users\stapi\AppData\Local\Temp\ccLFD7qg.s:1387   .text.iotx_alcs_construct:0000000000000066 .L0 
C:\Users\stapi\AppData\Local\Temp\ccLFD7qg.s:1388   .text.iotx_alcs_construct:0000000000000066 .L0 
C:\Users\stapi\AppData\Local\Temp\ccLFD7qg.s:1392   .text.iotx_alcs_construct:0000000000000072 .L0 
C:\Users\stapi\AppData\Local\Temp\ccLFD7qg.s:1393   .text.iotx_alcs_construct:0000000000000072 .L0 
C:\Users\stapi\AppData\Local\Temp\ccLFD7qg.s:1394   .text.iotx_alcs_construct:0000000000000072 .L0 
C:\Users\stapi\AppData\Local\Temp\ccLFD7qg.s:1399   .text.iotx_alcs_construct:0000000000000076 .L0 
C:\Users\stapi\AppData\Local\Temp\ccLFD7qg.s:1400   .text.iotx_alcs_construct:0000000000000076 .L0 
C:\Users\stapi\AppData\Local\Temp\ccLFD7qg.s:1401   .text.iotx_alcs_construct:0000000000000076 .L0 
C:\Users\stapi\AppData\Local\Temp\ccLFD7qg.s:1404   .text.iotx_alcs_construct:000000000000007a .L0 
C:\Users\stapi\AppData\Local\Temp\ccLFD7qg.s:1405   .text.iotx_alcs_construct:000000000000007a .L0 
C:\Users\stapi\AppData\Local\Temp\ccLFD7qg.s:1410   .text.iotx_alcs_construct:000000000000008a .L0 
C:\Users\stapi\AppData\Local\Temp\ccLFD7qg.s:1418   .text.iotx_alcs_construct:00000000000000a4 .L0 
C:\Users\stapi\AppData\Local\Temp\ccLFD7qg.s:1422   .text.iotx_alcs_construct:00000000000000b0 .L0 
C:\Users\stapi\AppData\Local\Temp\ccLFD7qg.s:1424   .text.iotx_alcs_construct:00000000000000b0 .L0 
C:\Users\stapi\AppData\Local\Temp\ccLFD7qg.s:1425   .text.iotx_alcs_construct:00000000000000b0 .L0 
C:\Users\stapi\AppData\Local\Temp\ccLFD7qg.s:1427   .text.iotx_alcs_construct:00000000000000ba .L0 
C:\Users\stapi\AppData\Local\Temp\ccLFD7qg.s:1428   .text.iotx_alcs_construct:00000000000000ba .L0 
C:\Users\stapi\AppData\Local\Temp\ccLFD7qg.s:1429   .text.iotx_alcs_construct:00000000000000ba .L0 
C:\Users\stapi\AppData\Local\Temp\ccLFD7qg.s:1430   .text.iotx_alcs_construct:00000000000000ba .L0 
C:\Users\stapi\AppData\Local\Temp\ccLFD7qg.s:1431   .text.iotx_alcs_construct:00000000000000ba .L0 
C:\Users\stapi\AppData\Local\Temp\ccLFD7qg.s:1432   .text.iotx_alcs_construct:00000000000000ba .L0 
C:\Users\stapi\AppData\Local\Temp\ccLFD7qg.s:1435   .text.iotx_alcs_construct:00000000000000ba .L0 
C:\Users\stapi\AppData\Local\Temp\ccLFD7qg.s:1437   .text.iotx_alcs_construct:00000000000000ba .L0 
C:\Users\stapi\AppData\Local\Temp\ccLFD7qg.s:1440   .text.iotx_alcs_construct:00000000000000c0 .L0 
C:\Users\stapi\AppData\Local\Temp\ccLFD7qg.s:1441   .text.iotx_alcs_construct:00000000000000c0 .L0 
C:\Users\stapi\AppData\Local\Temp\ccLFD7qg.s:1446   .text.iotx_alcs_construct:00000000000000d0 .L0 
C:\Users\stapi\AppData\Local\Temp\ccLFD7qg.s:1454   .text.iotx_alcs_construct:00000000000000e4 .L0 
C:\Users\stapi\AppData\Local\Temp\ccLFD7qg.s:1455   .text.iotx_alcs_construct:00000000000000e4 .L0 
C:\Users\stapi\AppData\Local\Temp\ccLFD7qg.s:1462   .text.iotx_alcs_construct:00000000000000fa .L0 
C:\Users\stapi\AppData\Local\Temp\ccLFD7qg.s:1463   .text.iotx_alcs_construct:00000000000000fa .L0 
C:\Users\stapi\AppData\Local\Temp\ccLFD7qg.s:1468   .text.iotx_alcs_construct:0000000000000108 .L0 
C:\Users\stapi\AppData\Local\Temp\ccLFD7qg.s:1469   .text.iotx_alcs_construct:0000000000000108 .L0 
C:\Users\stapi\AppData\Local\Temp\ccLFD7qg.s:1471   .text.iotx_alcs_construct:000000000000010c .L0 
C:\Users\stapi\AppData\Local\Temp\ccLFD7qg.s:1473   .text.iotx_alcs_construct:000000000000010e .L0 
C:\Users\stapi\AppData\Local\Temp\ccLFD7qg.s:1474   .text.iotx_alcs_construct:000000000000010e .L0 
C:\Users\stapi\AppData\Local\Temp\ccLFD7qg.s:1480   .text.iotx_alcs_construct:000000000000011e .L0 
C:\Users\stapi\AppData\Local\Temp\ccLFD7qg.s:1485   .text.iotx_alcs_construct:0000000000000130 .L0 
C:\Users\stapi\AppData\Local\Temp\ccLFD7qg.s:1499   .text.iotx_alcs_cloud_init:0000000000000000 iotx_alcs_cloud_init
C:\Users\stapi\AppData\Local\Temp\ccLFD7qg.s:1502   .text.iotx_alcs_cloud_init:0000000000000000 .L0 
C:\Users\stapi\AppData\Local\Temp\ccLFD7qg.s:1504   .text.iotx_alcs_cloud_init:0000000000000000 .L0 
C:\Users\stapi\AppData\Local\Temp\ccLFD7qg.s:1505   .text.iotx_alcs_cloud_init:0000000000000008 .L0 
C:\Users\stapi\AppData\Local\Temp\ccLFD7qg.s:1506   .text.iotx_alcs_cloud_init:0000000000000008 .L0 
C:\Users\stapi\AppData\Local\Temp\ccLFD7qg.s:1507   .text.iotx_alcs_cloud_init:0000000000000008 .L0 
C:\Users\stapi\AppData\Local\Temp\ccLFD7qg.s:1508   .text.iotx_alcs_cloud_init:0000000000000008 .L0 
C:\Users\stapi\AppData\Local\Temp\ccLFD7qg.s:1509   .text.iotx_alcs_cloud_init:0000000000000008 .L0 
C:\Users\stapi\AppData\Local\Temp\ccLFD7qg.s:1510   .text.iotx_alcs_cloud_init:0000000000000008 .L0 
C:\Users\stapi\AppData\Local\Temp\ccLFD7qg.s:1512   .text.iotx_alcs_cloud_init:0000000000000008 .L0 
C:\Users\stapi\AppData\Local\Temp\ccLFD7qg.s:1513   .text.iotx_alcs_cloud_init:0000000000000008 .L0 
C:\Users\stapi\AppData\Local\Temp\ccLFD7qg.s:1514   .text.iotx_alcs_cloud_init:0000000000000008 .L0 
C:\Users\stapi\AppData\Local\Temp\ccLFD7qg.s:1516   .text.iotx_alcs_cloud_init:000000000000000a .L0 
C:\Users\stapi\AppData\Local\Temp\ccLFD7qg.s:1519   .text.iotx_alcs_cloud_init:000000000000000e .L0 
C:\Users\stapi\AppData\Local\Temp\ccLFD7qg.s:1520   .text.iotx_alcs_cloud_init:0000000000000010 .L0 
C:\Users\stapi\AppData\Local\Temp\ccLFD7qg.s:1522   .text.iotx_alcs_cloud_init:0000000000000010 .L0 
C:\Users\stapi\AppData\Local\Temp\ccLFD7qg.s:1526   .text.iotx_alcs_cloud_init:000000000000001c .L0 
C:\Users\stapi\AppData\Local\Temp\ccLFD7qg.s:1531   .text.iotx_alcs_cloud_init:000000000000002c .L0 
C:\Users\stapi\AppData\Local\Temp\ccLFD7qg.s:1536   .text.iotx_alcs_cloud_init:000000000000003c .L0 
C:\Users\stapi\AppData\Local\Temp\ccLFD7qg.s:1537   .text.iotx_alcs_cloud_init:000000000000003c .L0 
C:\Users\stapi\AppData\Local\Temp\ccLFD7qg.s:1538   .text.iotx_alcs_cloud_init:000000000000003c .L0 
C:\Users\stapi\AppData\Local\Temp\ccLFD7qg.s:1539   .text.iotx_alcs_cloud_init:000000000000003c .L0 
C:\Users\stapi\AppData\Local\Temp\ccLFD7qg.s:1540   .text.iotx_alcs_cloud_init:000000000000003c .L0 
C:\Users\stapi\AppData\Local\Temp\ccLFD7qg.s:1541   .text.iotx_alcs_cloud_init:000000000000003c .L0 
C:\Users\stapi\AppData\Local\Temp\ccLFD7qg.s:1545   .text.iotx_alcs_cloud_init:0000000000000042 .L0 
C:\Users\stapi\AppData\Local\Temp\ccLFD7qg.s:1547   .text.iotx_alcs_cloud_init:0000000000000046 .L0 
C:\Users\stapi\AppData\Local\Temp\ccLFD7qg.s:1554   .text.iotx_alcs_cloud_init:0000000000000054 .L0 
C:\Users\stapi\AppData\Local\Temp\ccLFD7qg.s:1555   .text.iotx_alcs_cloud_init:0000000000000054 .L0 
C:\Users\stapi\AppData\Local\Temp\ccLFD7qg.s:1557   .text.iotx_alcs_cloud_init:0000000000000056 .L0 
C:\Users\stapi\AppData\Local\Temp\ccLFD7qg.s:1559   .text.iotx_alcs_cloud_init:000000000000005a .L0 
C:\Users\stapi\AppData\Local\Temp\ccLFD7qg.s:1562   .text.iotx_alcs_cloud_init:0000000000000062 .L0 
C:\Users\stapi\AppData\Local\Temp\ccLFD7qg.s:1563   .text.iotx_alcs_cloud_init:0000000000000062 .L0 
C:\Users\stapi\AppData\Local\Temp\ccLFD7qg.s:1567   .text.iotx_alcs_cloud_init:000000000000006a .L0 
C:\Users\stapi\AppData\Local\Temp\ccLFD7qg.s:1568   .text.iotx_alcs_cloud_init:000000000000006a .L0 
C:\Users\stapi\AppData\Local\Temp\ccLFD7qg.s:1570   .text.iotx_alcs_cloud_init:000000000000006c .L0 
C:\Users\stapi\AppData\Local\Temp\ccLFD7qg.s:1572   .text.iotx_alcs_cloud_init:0000000000000070 .L0 
C:\Users\stapi\AppData\Local\Temp\ccLFD7qg.s:1573   .text.iotx_alcs_cloud_init:0000000000000070 .L0 
C:\Users\stapi\AppData\Local\Temp\ccLFD7qg.s:1577   .text.iotx_alcs_cloud_init:000000000000007a .L0 
C:\Users\stapi\AppData\Local\Temp\ccLFD7qg.s:1578   .text.iotx_alcs_cloud_init:000000000000007a .L0 
C:\Users\stapi\AppData\Local\Temp\ccLFD7qg.s:1581   .text.iotx_alcs_cloud_init:000000000000007c .L0 
C:\Users\stapi\AppData\Local\Temp\ccLFD7qg.s:1584   .text.iotx_alcs_cloud_init:0000000000000082 .L0 
C:\Users\stapi\AppData\Local\Temp\ccLFD7qg.s:1587   .text.iotx_alcs_cloud_init:000000000000008a .L0 
C:\Users\stapi\AppData\Local\Temp\ccLFD7qg.s:1588   .text.iotx_alcs_cloud_init:000000000000008a .L0 
C:\Users\stapi\AppData\Local\Temp\ccLFD7qg.s:1593   .text.iotx_alcs_cloud_init:000000000000009a .L0 
C:\Users\stapi\AppData\Local\Temp\ccLFD7qg.s:1597   .text.iotx_alcs_cloud_init:00000000000000a2 .L0 
C:\Users\stapi\AppData\Local\Temp\ccLFD7qg.s:1600   .text.iotx_alcs_cloud_init:00000000000000aa .L0 
C:\Users\stapi\AppData\Local\Temp\ccLFD7qg.s:1604   .text.iotx_alcs_cloud_init:00000000000000b6 .L0 
C:\Users\stapi\AppData\Local\Temp\ccLFD7qg.s:1605   .text.iotx_alcs_cloud_init:00000000000000b6 .L0 
C:\Users\stapi\AppData\Local\Temp\ccLFD7qg.s:1606   .text.iotx_alcs_cloud_init:00000000000000b6 .L0 
C:\Users\stapi\AppData\Local\Temp\ccLFD7qg.s:1609   .text.iotx_alcs_cloud_init:00000000000000b8 .L0 
C:\Users\stapi\AppData\Local\Temp\ccLFD7qg.s:1610   .text.iotx_alcs_cloud_init:00000000000000ba .L0 
C:\Users\stapi\AppData\Local\Temp\ccLFD7qg.s:1611   .text.iotx_alcs_cloud_init:00000000000000ba .L0 
C:\Users\stapi\AppData\Local\Temp\ccLFD7qg.s:1613   .text.iotx_alcs_cloud_init:00000000000000c2 .L0 
C:\Users\stapi\AppData\Local\Temp\ccLFD7qg.s:1614   .text.iotx_alcs_cloud_init:00000000000000c2 .L0 
C:\Users\stapi\AppData\Local\Temp\ccLFD7qg.s:1615   .text.iotx_alcs_cloud_init:00000000000000c2 .L0 
C:\Users\stapi\AppData\Local\Temp\ccLFD7qg.s:1616   .text.iotx_alcs_cloud_init:00000000000000c2 .L0 
C:\Users\stapi\AppData\Local\Temp\ccLFD7qg.s:1617   .text.iotx_alcs_cloud_init:00000000000000c2 .L0 
C:\Users\stapi\AppData\Local\Temp\ccLFD7qg.s:1618   .text.iotx_alcs_cloud_init:00000000000000c2 .L0 
C:\Users\stapi\AppData\Local\Temp\ccLFD7qg.s:1621   .text.iotx_alcs_cloud_init:00000000000000c2 .L0 
C:\Users\stapi\AppData\Local\Temp\ccLFD7qg.s:1623   .text.iotx_alcs_cloud_init:00000000000000c2 .L0 
C:\Users\stapi\AppData\Local\Temp\ccLFD7qg.s:1624   .text.iotx_alcs_cloud_init:00000000000000c2 .L0 
C:\Users\stapi\AppData\Local\Temp\ccLFD7qg.s:1629   .text.iotx_alcs_cloud_init:00000000000000cc .L0 
C:\Users\stapi\AppData\Local\Temp\ccLFD7qg.s:1630   .text.iotx_alcs_cloud_init:00000000000000cc .L0 
C:\Users\stapi\AppData\Local\Temp\ccLFD7qg.s:1633   .text.iotx_alcs_cloud_init:00000000000000ce .L0 
C:\Users\stapi\AppData\Local\Temp\ccLFD7qg.s:1636   .text.iotx_alcs_cloud_init:00000000000000d4 .L0 
C:\Users\stapi\AppData\Local\Temp\ccLFD7qg.s:1639   .text.iotx_alcs_cloud_init:00000000000000dc .L0 
C:\Users\stapi\AppData\Local\Temp\ccLFD7qg.s:1640   .text.iotx_alcs_cloud_init:00000000000000dc .L0 
C:\Users\stapi\AppData\Local\Temp\ccLFD7qg.s:1645   .text.iotx_alcs_cloud_init:00000000000000ec .L0 
C:\Users\stapi\AppData\Local\Temp\ccLFD7qg.s:1651   .text.iotx_alcs_cloud_init:00000000000000f6 .L0 
C:\Users\stapi\AppData\Local\Temp\ccLFD7qg.s:1652   .text.iotx_alcs_cloud_init:00000000000000f6 .L0 
C:\Users\stapi\AppData\Local\Temp\ccLFD7qg.s:1659   .text.iotx_alcs_cloud_init:0000000000000104 .L0 
C:\Users\stapi\AppData\Local\Temp\ccLFD7qg.s:1661   .text.iotx_alcs_cloud_init:0000000000000106 .L0 
C:\Users\stapi\AppData\Local\Temp\ccLFD7qg.s:1662   .text.iotx_alcs_cloud_init:0000000000000106 .L0 
C:\Users\stapi\AppData\Local\Temp\ccLFD7qg.s:1667   .text.iotx_alcs_cloud_init:0000000000000116 .L0 
C:\Users\stapi\AppData\Local\Temp\ccLFD7qg.s:1672   .text.iotx_alcs_cloud_init:0000000000000120 .L0 
C:\Users\stapi\AppData\Local\Temp\ccLFD7qg.s:1673   .text.iotx_alcs_cloud_init:0000000000000120 .L0 
C:\Users\stapi\AppData\Local\Temp\ccLFD7qg.s:1676   .text.iotx_alcs_cloud_init:0000000000000124 .L0 
C:\Users\stapi\AppData\Local\Temp\ccLFD7qg.s:1677   .text.iotx_alcs_cloud_init:0000000000000124 .L0 
C:\Users\stapi\AppData\Local\Temp\ccLFD7qg.s:1679   .text.iotx_alcs_cloud_init:0000000000000128 .L0 
C:\Users\stapi\AppData\Local\Temp\ccLFD7qg.s:1693   .text.iotx_alcs_destroy:0000000000000000 iotx_alcs_destroy
C:\Users\stapi\AppData\Local\Temp\ccLFD7qg.s:1696   .text.iotx_alcs_destroy:0000000000000000 .L0 
C:\Users\stapi\AppData\Local\Temp\ccLFD7qg.s:1698   .text.iotx_alcs_destroy:0000000000000000 .L0 
C:\Users\stapi\AppData\Local\Temp\ccLFD7qg.s:1699   .text.iotx_alcs_destroy:0000000000000008 .L0 
C:\Users\stapi\AppData\Local\Temp\ccLFD7qg.s:1700   .text.iotx_alcs_destroy:0000000000000008 .L0 
C:\Users\stapi\AppData\Local\Temp\ccLFD7qg.s:1701   .text.iotx_alcs_destroy:0000000000000008 .L0 
C:\Users\stapi\AppData\Local\Temp\ccLFD7qg.s:1703   .text.iotx_alcs_destroy:0000000000000008 .L0 
C:\Users\stapi\AppData\Local\Temp\ccLFD7qg.s:1704   .text.iotx_alcs_destroy:0000000000000008 .L0 
C:\Users\stapi\AppData\Local\Temp\ccLFD7qg.s:1706   .text.iotx_alcs_destroy:000000000000000a .L0 
C:\Users\stapi\AppData\Local\Temp\ccLFD7qg.s:1707   .text.iotx_alcs_destroy:000000000000000a .L0 
C:\Users\stapi\AppData\Local\Temp\ccLFD7qg.s:1713   .text.iotx_alcs_destroy:000000000000001a .L0 
C:\Users\stapi\AppData\Local\Temp\ccLFD7qg.s:1718   .text.iotx_alcs_destroy:0000000000000024 .L0 
C:\Users\stapi\AppData\Local\Temp\ccLFD7qg.s:1723   .text.iotx_alcs_destroy:0000000000000034 .L0 
C:\Users\stapi\AppData\Local\Temp\ccLFD7qg.s:1728   .text.iotx_alcs_destroy:0000000000000044 .L0 
C:\Users\stapi\AppData\Local\Temp\ccLFD7qg.s:1729   .text.iotx_alcs_destroy:0000000000000044 .L0 
C:\Users\stapi\AppData\Local\Temp\ccLFD7qg.s:1732   .text.iotx_alcs_destroy:0000000000000046 .L0 
C:\Users\stapi\AppData\Local\Temp\ccLFD7qg.s:1733   .text.iotx_alcs_destroy:000000000000004e .L0 
C:\Users\stapi\AppData\Local\Temp\ccLFD7qg.s:1734   .text.iotx_alcs_destroy:000000000000004e .L0 
C:\Users\stapi\AppData\Local\Temp\ccLFD7qg.s:1735   .text.iotx_alcs_destroy:000000000000004e .L0 
C:\Users\stapi\AppData\Local\Temp\ccLFD7qg.s:1736   .text.iotx_alcs_destroy:000000000000004e .L0 
C:\Users\stapi\AppData\Local\Temp\ccLFD7qg.s:1739   .text.iotx_alcs_destroy:000000000000004e .L0 
C:\Users\stapi\AppData\Local\Temp\ccLFD7qg.s:1741   .text.iotx_alcs_destroy:000000000000004e .L0 
C:\Users\stapi\AppData\Local\Temp\ccLFD7qg.s:1744   .text.iotx_alcs_destroy:0000000000000052 .L0 
C:\Users\stapi\AppData\Local\Temp\ccLFD7qg.s:1745   .text.iotx_alcs_destroy:0000000000000052 .L0 
C:\Users\stapi\AppData\Local\Temp\ccLFD7qg.s:1746   .text.iotx_alcs_destroy:0000000000000052 .L0 
C:\Users\stapi\AppData\Local\Temp\ccLFD7qg.s:1749   .text.iotx_alcs_destroy:0000000000000054 .L0 
C:\Users\stapi\AppData\Local\Temp\ccLFD7qg.s:1750   .text.iotx_alcs_destroy:0000000000000054 .L0 
C:\Users\stapi\AppData\Local\Temp\ccLFD7qg.s:1755   .text.iotx_alcs_destroy:0000000000000064 .L0 
C:\Users\stapi\AppData\Local\Temp\ccLFD7qg.s:1761   .text.iotx_alcs_destroy:0000000000000070 .L0 
C:\Users\stapi\AppData\Local\Temp\ccLFD7qg.s:1762   .text.iotx_alcs_destroy:0000000000000070 .L0 
C:\Users\stapi\AppData\Local\Temp\ccLFD7qg.s:1765   .text.iotx_alcs_destroy:0000000000000078 .L0 
C:\Users\stapi\AppData\Local\Temp\ccLFD7qg.s:1766   .text.iotx_alcs_destroy:0000000000000078 .L0 
C:\Users\stapi\AppData\Local\Temp\ccLFD7qg.s:1768   .text.iotx_alcs_destroy:000000000000007c .L0 
C:\Users\stapi\AppData\Local\Temp\ccLFD7qg.s:1782   .text.iotx_alcs_yield:0000000000000000 iotx_alcs_yield
C:\Users\stapi\AppData\Local\Temp\ccLFD7qg.s:1785   .text.iotx_alcs_yield:0000000000000000 .L0 
C:\Users\stapi\AppData\Local\Temp\ccLFD7qg.s:1787   .text.iotx_alcs_yield:0000000000000000 .L0 
C:\Users\stapi\AppData\Local\Temp\ccLFD7qg.s:1788   .text.iotx_alcs_yield:0000000000000008 .L0 
C:\Users\stapi\AppData\Local\Temp\ccLFD7qg.s:1789   .text.iotx_alcs_yield:0000000000000008 .L0 
C:\Users\stapi\AppData\Local\Temp\ccLFD7qg.s:1790   .text.iotx_alcs_yield:0000000000000008 .L0 
C:\Users\stapi\AppData\Local\Temp\ccLFD7qg.s:1793   .text.iotx_alcs_yield:0000000000000008 .L0 
C:\Users\stapi\AppData\Local\Temp\ccLFD7qg.s:1794   .text.iotx_alcs_yield:0000000000000008 .L0 
C:\Users\stapi\AppData\Local\Temp\ccLFD7qg.s:1795   .text.iotx_alcs_yield:0000000000000008 .L0 
C:\Users\stapi\AppData\Local\Temp\ccLFD7qg.s:1796   .text.iotx_alcs_yield:0000000000000008 .L0 
C:\Users\stapi\AppData\Local\Temp\ccLFD7qg.s:1798   .text.iotx_alcs_yield:000000000000000a .L0 
C:\Users\stapi\AppData\Local\Temp\ccLFD7qg.s:1799   .text.iotx_alcs_yield:000000000000000a .L0 
C:\Users\stapi\AppData\Local\Temp\ccLFD7qg.s:1805   .text.iotx_alcs_yield:000000000000001a .L0 
C:\Users\stapi\AppData\Local\Temp\ccLFD7qg.s:1810   .text.iotx_alcs_yield:0000000000000024 .L0 
C:\Users\stapi\AppData\Local\Temp\ccLFD7qg.s:1815   .text.iotx_alcs_yield:0000000000000034 .L0 
C:\Users\stapi\AppData\Local\Temp\ccLFD7qg.s:1820   .text.iotx_alcs_yield:0000000000000044 .L0 
C:\Users\stapi\AppData\Local\Temp\ccLFD7qg.s:1821   .text.iotx_alcs_yield:0000000000000044 .L0 
C:\Users\stapi\AppData\Local\Temp\ccLFD7qg.s:1824   .text.iotx_alcs_yield:0000000000000046 .L0 
C:\Users\stapi\AppData\Local\Temp\ccLFD7qg.s:1825   .text.iotx_alcs_yield:000000000000004e .L0 
C:\Users\stapi\AppData\Local\Temp\ccLFD7qg.s:1826   .text.iotx_alcs_yield:000000000000004e .L0 
C:\Users\stapi\AppData\Local\Temp\ccLFD7qg.s:1827   .text.iotx_alcs_yield:000000000000004e .L0 
C:\Users\stapi\AppData\Local\Temp\ccLFD7qg.s:1828   .text.iotx_alcs_yield:000000000000004e .L0 
C:\Users\stapi\AppData\Local\Temp\ccLFD7qg.s:1831   .text.iotx_alcs_yield:000000000000004e .L0 
C:\Users\stapi\AppData\Local\Temp\ccLFD7qg.s:1834   .text.iotx_alcs_yield:0000000000000050 .L0 
C:\Users\stapi\AppData\Local\Temp\ccLFD7qg.s:1835   .text.iotx_alcs_yield:0000000000000050 .L0 
C:\Users\stapi\AppData\Local\Temp\ccLFD7qg.s:1836   .text.iotx_alcs_yield:0000000000000050 .L0 
C:\Users\stapi\AppData\Local\Temp\ccLFD7qg.s:1840   .text.iotx_alcs_yield:0000000000000054 .L0 
C:\Users\stapi\AppData\Local\Temp\ccLFD7qg.s:1841   .text.iotx_alcs_yield:0000000000000054 .L0 
C:\Users\stapi\AppData\Local\Temp\ccLFD7qg.s:1846   .text.iotx_alcs_yield:0000000000000064 .L0 
C:\Users\stapi\AppData\Local\Temp\ccLFD7qg.s:1852   .text.iotx_alcs_yield:0000000000000070 .L0 
C:\Users\stapi\AppData\Local\Temp\ccLFD7qg.s:1856   .text.iotx_alcs_yield:0000000000000070 .L0 
C:\Users\stapi\AppData\Local\Temp\ccLFD7qg.s:1857   .text.iotx_alcs_yield:0000000000000070 .L0 
C:\Users\stapi\AppData\Local\Temp\ccLFD7qg.s:1858   .text.iotx_alcs_yield:0000000000000070 .L0 
C:\Users\stapi\AppData\Local\Temp\ccLFD7qg.s:1859   .text.iotx_alcs_yield:0000000000000070 .L0 
C:\Users\stapi\AppData\Local\Temp\ccLFD7qg.s:1863   .text.iotx_alcs_yield:0000000000000078 .L0 
C:\Users\stapi\AppData\Local\Temp\ccLFD7qg.s:1865   .text.iotx_alcs_yield:000000000000007a .L0 
C:\Users\stapi\AppData\Local\Temp\ccLFD7qg.s:1867   .text.iotx_alcs_yield:000000000000007c .L0 
C:\Users\stapi\AppData\Local\Temp\ccLFD7qg.s:1871   .text.iotx_alcs_yield:000000000000007e .L0 
C:\Users\stapi\AppData\Local\Temp\ccLFD7qg.s:1872   .text.iotx_alcs_yield:000000000000007e .L0 
C:\Users\stapi\AppData\Local\Temp\ccLFD7qg.s:1876   .text.iotx_alcs_yield:0000000000000086 .L0 
C:\Users\stapi\AppData\Local\Temp\ccLFD7qg.s:1878   .text.iotx_alcs_yield:0000000000000088 .L0 
C:\Users\stapi\AppData\Local\Temp\ccLFD7qg.s:1880   .text.iotx_alcs_yield:000000000000008a .L0 
C:\Users\stapi\AppData\Local\Temp\ccLFD7qg.s:1887   .text.iotx_alcs_yield:000000000000008e .L0 
C:\Users\stapi\AppData\Local\Temp\ccLFD7qg.s:1890   .text.iotx_alcs_yield:0000000000000096 .L0 
C:\Users\stapi\AppData\Local\Temp\ccLFD7qg.s:1891   .text.iotx_alcs_yield:0000000000000096 .L0 
C:\Users\stapi\AppData\Local\Temp\ccLFD7qg.s:1893   .text.iotx_alcs_yield:000000000000009a .L0 
C:\Users\stapi\AppData\Local\Temp\ccLFD7qg.s:1900   .text.iotx_alcs_send:0000000000000000 iotx_alcs_send
C:\Users\stapi\AppData\Local\Temp\ccLFD7qg.s:1903   .text.iotx_alcs_send:0000000000000000 .L0 
C:\Users\stapi\AppData\Local\Temp\ccLFD7qg.s:1905   .text.iotx_alcs_send:0000000000000000 .L0 
C:\Users\stapi\AppData\Local\Temp\ccLFD7qg.s:1906   .text.iotx_alcs_send:0000000000000000 .L0 
C:\Users\stapi\AppData\Local\Temp\ccLFD7qg.s:1907   .text.iotx_alcs_send:0000000000000000 .L0 
C:\Users\stapi\AppData\Local\Temp\ccLFD7qg.s:1910   .text.iotx_alcs_send:0000000000000004 .L0 
C:\Users\stapi\AppData\Local\Temp\ccLFD7qg.s:1945   .text.iotx_alcs_send_Response:0000000000000000 iotx_alcs_send_Response
C:\Users\stapi\AppData\Local\Temp\ccLFD7qg.s:1948   .text.iotx_alcs_send_Response:0000000000000000 .L0 
C:\Users\stapi\AppData\Local\Temp\ccLFD7qg.s:1950   .text.iotx_alcs_send_Response:0000000000000000 .L0 
C:\Users\stapi\AppData\Local\Temp\ccLFD7qg.s:1951   .text.iotx_alcs_send_Response:0000000000000008 .L0 
C:\Users\stapi\AppData\Local\Temp\ccLFD7qg.s:1952   .text.iotx_alcs_send_Response:0000000000000008 .L0 
C:\Users\stapi\AppData\Local\Temp\ccLFD7qg.s:1953   .text.iotx_alcs_send_Response:0000000000000008 .L0 
C:\Users\stapi\AppData\Local\Temp\ccLFD7qg.s:1954   .text.iotx_alcs_send_Response:0000000000000008 .L0 
C:\Users\stapi\AppData\Local\Temp\ccLFD7qg.s:1955   .text.iotx_alcs_send_Response:0000000000000008 .L0 
C:\Users\stapi\AppData\Local\Temp\ccLFD7qg.s:1956   .text.iotx_alcs_send_Response:0000000000000008 .L0 
C:\Users\stapi\AppData\Local\Temp\ccLFD7qg.s:1957   .text.iotx_alcs_send_Response:0000000000000008 .L0 
C:\Users\stapi\AppData\Local\Temp\ccLFD7qg.s:1958   .text.iotx_alcs_send_Response:0000000000000008 .L0 
C:\Users\stapi\AppData\Local\Temp\ccLFD7qg.s:1959   .text.iotx_alcs_send_Response:0000000000000008 .L0 
C:\Users\stapi\AppData\Local\Temp\ccLFD7qg.s:1962   .text.iotx_alcs_send_Response:0000000000000008 .L0 
C:\Users\stapi\AppData\Local\Temp\ccLFD7qg.s:1963   .text.iotx_alcs_send_Response:0000000000000008 .L0 
C:\Users\stapi\AppData\Local\Temp\ccLFD7qg.s:1964   .text.iotx_alcs_send_Response:0000000000000008 .L0 
C:\Users\stapi\AppData\Local\Temp\ccLFD7qg.s:1965   .text.iotx_alcs_send_Response:0000000000000008 .L0 
C:\Users\stapi\AppData\Local\Temp\ccLFD7qg.s:1966   .text.iotx_alcs_send_Response:0000000000000008 .L0 
C:\Users\stapi\AppData\Local\Temp\ccLFD7qg.s:1967   .text.iotx_alcs_send_Response:0000000000000008 .L0 
C:\Users\stapi\AppData\Local\Temp\ccLFD7qg.s:1968   .text.iotx_alcs_send_Response:0000000000000008 .L0 
C:\Users\stapi\AppData\Local\Temp\ccLFD7qg.s:1969   .text.iotx_alcs_send_Response:0000000000000008 .L0 
C:\Users\stapi\AppData\Local\Temp\ccLFD7qg.s:1970   .text.iotx_alcs_send_Response:0000000000000008 .L0 
C:\Users\stapi\AppData\Local\Temp\ccLFD7qg.s:1971   .text.iotx_alcs_send_Response:000000000000000a .L0 
C:\Users\stapi\AppData\Local\Temp\ccLFD7qg.s:1973   .text.iotx_alcs_send_Response:000000000000000a .L0 
C:\Users\stapi\AppData\Local\Temp\ccLFD7qg.s:1975   .text.iotx_alcs_send_Response:000000000000000c .L0 
C:\Users\stapi\AppData\Local\Temp\ccLFD7qg.s:1976   .text.iotx_alcs_send_Response:000000000000000c .L0 
C:\Users\stapi\AppData\Local\Temp\ccLFD7qg.s:1982   .text.iotx_alcs_send_Response:000000000000001c .L0 
C:\Users\stapi\AppData\Local\Temp\ccLFD7qg.s:1987   .text.iotx_alcs_send_Response:0000000000000026 .L0 
C:\Users\stapi\AppData\Local\Temp\ccLFD7qg.s:1992   .text.iotx_alcs_send_Response:0000000000000036 .L0 
C:\Users\stapi\AppData\Local\Temp\ccLFD7qg.s:1997   .text.iotx_alcs_send_Response:0000000000000046 .L0 
C:\Users\stapi\AppData\Local\Temp\ccLFD7qg.s:1998   .text.iotx_alcs_send_Response:0000000000000046 .L0 
C:\Users\stapi\AppData\Local\Temp\ccLFD7qg.s:2002   .text.iotx_alcs_send_Response:0000000000000048 .L0 
C:\Users\stapi\AppData\Local\Temp\ccLFD7qg.s:2004   .text.iotx_alcs_send_Response:000000000000004c .L0 
C:\Users\stapi\AppData\Local\Temp\ccLFD7qg.s:2005   .text.iotx_alcs_send_Response:000000000000004c .L0 
C:\Users\stapi\AppData\Local\Temp\ccLFD7qg.s:2007   .text.iotx_alcs_send_Response:0000000000000054 .L0 
C:\Users\stapi\AppData\Local\Temp\ccLFD7qg.s:2008   .text.iotx_alcs_send_Response:0000000000000054 .L0 
C:\Users\stapi\AppData\Local\Temp\ccLFD7qg.s:2009   .text.iotx_alcs_send_Response:0000000000000054 .L0 
C:\Users\stapi\AppData\Local\Temp\ccLFD7qg.s:2010   .text.iotx_alcs_send_Response:0000000000000054 .L0 
C:\Users\stapi\AppData\Local\Temp\ccLFD7qg.s:2011   .text.iotx_alcs_send_Response:0000000000000054 .L0 
C:\Users\stapi\AppData\Local\Temp\ccLFD7qg.s:2012   .text.iotx_alcs_send_Response:0000000000000054 .L0 
C:\Users\stapi\AppData\Local\Temp\ccLFD7qg.s:2013   .text.iotx_alcs_send_Response:0000000000000054 .L0 
C:\Users\stapi\AppData\Local\Temp\ccLFD7qg.s:2014   .text.iotx_alcs_send_Response:0000000000000054 .L0 
C:\Users\stapi\AppData\Local\Temp\ccLFD7qg.s:2015   .text.iotx_alcs_send_Response:0000000000000054 .L0 
C:\Users\stapi\AppData\Local\Temp\ccLFD7qg.s:2018   .text.iotx_alcs_send_Response:0000000000000054 .L0 
C:\Users\stapi\AppData\Local\Temp\ccLFD7qg.s:2020   .text.iotx_alcs_send_Response:0000000000000054 .L0 
C:\Users\stapi\AppData\Local\Temp\ccLFD7qg.s:2023   .text.iotx_alcs_send_Response:000000000000005a .L0 
C:\Users\stapi\AppData\Local\Temp\ccLFD7qg.s:2024   .text.iotx_alcs_send_Response:000000000000005a .L0 
C:\Users\stapi\AppData\Local\Temp\ccLFD7qg.s:2025   .text.iotx_alcs_send_Response:000000000000005a .L0 
C:\Users\stapi\AppData\Local\Temp\ccLFD7qg.s:2027   .text.iotx_alcs_send_Response:000000000000005e .L0 
C:\Users\stapi\AppData\Local\Temp\ccLFD7qg.s:2028   .text.iotx_alcs_send_Response:000000000000005e .L0 
C:\Users\stapi\AppData\Local\Temp\ccLFD7qg.s:2034   .text.iotx_alcs_send_Response:000000000000006e .L0 
C:\Users\stapi\AppData\Local\Temp\ccLFD7qg.s:2042   .text.iotx_alcs_send_Response:000000000000007e .L0 
C:\Users\stapi\AppData\Local\Temp\ccLFD7qg.s:2043   .text.iotx_alcs_send_Response:000000000000007e .L0 
C:\Users\stapi\AppData\Local\Temp\ccLFD7qg.s:2044   .text.iotx_alcs_send_Response:000000000000007e .L0 
C:\Users\stapi\AppData\Local\Temp\ccLFD7qg.s:2047   .text.iotx_alcs_send_Response:0000000000000080 .L0 
C:\Users\stapi\AppData\Local\Temp\ccLFD7qg.s:2048   .text.iotx_alcs_send_Response:0000000000000080 .L0 
C:\Users\stapi\AppData\Local\Temp\ccLFD7qg.s:2054   .text.iotx_alcs_send_Response:0000000000000090 .L0 
C:\Users\stapi\AppData\Local\Temp\ccLFD7qg.s:2061   .text.iotx_alcs_send_Response:000000000000009c .L0 
C:\Users\stapi\AppData\Local\Temp\ccLFD7qg.s:2062   .text.iotx_alcs_send_Response:000000000000009c .L0 
C:\Users\stapi\AppData\Local\Temp\ccLFD7qg.s:2063   .text.iotx_alcs_send_Response:000000000000009c .L0 
C:\Users\stapi\AppData\Local\Temp\ccLFD7qg.s:2066   .text.iotx_alcs_send_Response:00000000000000a4 .L0 
C:\Users\stapi\AppData\Local\Temp\ccLFD7qg.s:2067   .text.iotx_alcs_send_Response:00000000000000a4 .L0 
C:\Users\stapi\AppData\Local\Temp\ccLFD7qg.s:2073   .text.iotx_alcs_send_Response:00000000000000b4 .L0 
C:\Users\stapi\AppData\Local\Temp\ccLFD7qg.s:2080   .text.iotx_alcs_send_Response:00000000000000c0 .L0 
C:\Users\stapi\AppData\Local\Temp\ccLFD7qg.s:2081   .text.iotx_alcs_send_Response:00000000000000c0 .L0 
C:\Users\stapi\AppData\Local\Temp\ccLFD7qg.s:2082   .text.iotx_alcs_send_Response:00000000000000c0 .L0 
C:\Users\stapi\AppData\Local\Temp\ccLFD7qg.s:2086   .text.iotx_alcs_send_Response:00000000000000c4 .L0 
C:\Users\stapi\AppData\Local\Temp\ccLFD7qg.s:2087   .text.iotx_alcs_send_Response:00000000000000c4 .L0 
C:\Users\stapi\AppData\Local\Temp\ccLFD7qg.s:2092   .text.iotx_alcs_send_Response:00000000000000d4 .L0 
C:\Users\stapi\AppData\Local\Temp\ccLFD7qg.s:2097   .text.iotx_alcs_send_Response:00000000000000de .L0 
C:\Users\stapi\AppData\Local\Temp\ccLFD7qg.s:2101   .text.iotx_alcs_send_Response:00000000000000e6 .L0 
C:\Users\stapi\AppData\Local\Temp\ccLFD7qg.s:2105   .text.iotx_alcs_send_Response:00000000000000ee .L0 
C:\Users\stapi\AppData\Local\Temp\ccLFD7qg.s:2106   .text.iotx_alcs_send_Response:00000000000000ee .L0 
C:\Users\stapi\AppData\Local\Temp\ccLFD7qg.s:2111   .text.iotx_alcs_send_Response:00000000000000fe .L0 
C:\Users\stapi\AppData\Local\Temp\ccLFD7qg.s:2112   .text.iotx_alcs_send_Response:00000000000000fe .L0 
C:\Users\stapi\AppData\Local\Temp\ccLFD7qg.s:2113   .text.iotx_alcs_send_Response:00000000000000fe .L0 
C:\Users\stapi\AppData\Local\Temp\ccLFD7qg.s:2118   .text.iotx_alcs_send_Response:0000000000000102 .L0 
C:\Users\stapi\AppData\Local\Temp\ccLFD7qg.s:2121   .text.iotx_alcs_send_Response:0000000000000108 .L0 
C:\Users\stapi\AppData\Local\Temp\ccLFD7qg.s:2122   .text.iotx_alcs_send_Response:0000000000000108 .L0 
C:\Users\stapi\AppData\Local\Temp\ccLFD7qg.s:2127   .text.iotx_alcs_send_Response:0000000000000118 .L0 
C:\Users\stapi\AppData\Local\Temp\ccLFD7qg.s:2132   .text.iotx_alcs_send_Response:0000000000000122 .L0 
C:\Users\stapi\AppData\Local\Temp\ccLFD7qg.s:2138   .text.iotx_alcs_send_Response:000000000000012c .L0 
C:\Users\stapi\AppData\Local\Temp\ccLFD7qg.s:2139   .text.iotx_alcs_send_Response:000000000000012c .L0 
C:\Users\stapi\AppData\Local\Temp\ccLFD7qg.s:2140   .text.iotx_alcs_send_Response:000000000000012c .L0 
C:\Users\stapi\AppData\Local\Temp\ccLFD7qg.s:2143   .text.iotx_alcs_send_Response:0000000000000130 .L0 
C:\Users\stapi\AppData\Local\Temp\ccLFD7qg.s:2144   .text.iotx_alcs_send_Response:0000000000000130 .L0 
C:\Users\stapi\AppData\Local\Temp\ccLFD7qg.s:2149   .text.iotx_alcs_send_Response:0000000000000140 .L0 
C:\Users\stapi\AppData\Local\Temp\ccLFD7qg.s:2156   .text.iotx_alcs_send_Response:000000000000014c .L0 
C:\Users\stapi\AppData\Local\Temp\ccLFD7qg.s:2159   .text.iotx_alcs_send_Response:0000000000000152 .L0 
C:\Users\stapi\AppData\Local\Temp\ccLFD7qg.s:2160   .text.iotx_alcs_send_Response:0000000000000152 .L0 
C:\Users\stapi\AppData\Local\Temp\ccLFD7qg.s:2165   .text.iotx_alcs_send_Response:0000000000000162 .L0 
C:\Users\stapi\AppData\Local\Temp\ccLFD7qg.s:2173   .text.iotx_alcs_send_Response:0000000000000170 .L0 
C:\Users\stapi\AppData\Local\Temp\ccLFD7qg.s:2174   .text.iotx_alcs_send_Response:0000000000000170 .L0 
C:\Users\stapi\AppData\Local\Temp\ccLFD7qg.s:2175   .text.iotx_alcs_send_Response:0000000000000170 .L0 
C:\Users\stapi\AppData\Local\Temp\ccLFD7qg.s:2177   .text.iotx_alcs_send_Response:0000000000000172 .L0 
C:\Users\stapi\AppData\Local\Temp\ccLFD7qg.s:2180   .text.iotx_alcs_send_Response:0000000000000178 .L0 
C:\Users\stapi\AppData\Local\Temp\ccLFD7qg.s:2182   .text.iotx_alcs_send_Response:000000000000017c .L0 
C:\Users\stapi\AppData\Local\Temp\ccLFD7qg.s:2183   .text.iotx_alcs_send_Response:000000000000017c .L0 
C:\Users\stapi\AppData\Local\Temp\ccLFD7qg.s:2186   .text.iotx_alcs_send_Response:0000000000000184 .L0 
C:\Users\stapi\AppData\Local\Temp\ccLFD7qg.s:2189   .text.iotx_alcs_send_Response:000000000000018a .L0 
C:\Users\stapi\AppData\Local\Temp\ccLFD7qg.s:2190   .text.iotx_alcs_send_Response:000000000000018a .L0 
C:\Users\stapi\AppData\Local\Temp\ccLFD7qg.s:2195   .text.iotx_alcs_send_Response:000000000000019a .L0 
C:\Users\stapi\AppData\Local\Temp\ccLFD7qg.s:2200   .text.iotx_alcs_send_Response:00000000000001aa .L0 
C:\Users\stapi\AppData\Local\Temp\ccLFD7qg.s:2205   .text.iotx_alcs_send_Response:00000000000001ba .L0 
C:\Users\stapi\AppData\Local\Temp\ccLFD7qg.s:2206   .text.iotx_alcs_send_Response:00000000000001ba .L0 
C:\Users\stapi\AppData\Local\Temp\ccLFD7qg.s:2207   .text.iotx_alcs_send_Response:00000000000001ba .L0 
C:\Users\stapi\AppData\Local\Temp\ccLFD7qg.s:2210   .text.iotx_alcs_send_Response:00000000000001bc .L0 
C:\Users\stapi\AppData\Local\Temp\ccLFD7qg.s:2216   .text.iotx_alcs_send_Response:00000000000001cc .L0 
C:\Users\stapi\AppData\Local\Temp\ccLFD7qg.s:2217   .text.iotx_alcs_send_Response:00000000000001cc .L0 
C:\Users\stapi\AppData\Local\Temp\ccLFD7qg.s:2218   .text.iotx_alcs_send_Response:00000000000001cc .L0 
C:\Users\stapi\AppData\Local\Temp\ccLFD7qg.s:2220   .text.iotx_alcs_send_Response:00000000000001ce .L0 
C:\Users\stapi\AppData\Local\Temp\ccLFD7qg.s:2223   .text.iotx_alcs_send_Response:00000000000001d4 .L0 
C:\Users\stapi\AppData\Local\Temp\ccLFD7qg.s:2225   .text.iotx_alcs_send_Response:00000000000001d6 .L0 
C:\Users\stapi\AppData\Local\Temp\ccLFD7qg.s:2231   .text.iotx_alcs_send_Response:00000000000001e0 .L0 
C:\Users\stapi\AppData\Local\Temp\ccLFD7qg.s:2234   .text.iotx_alcs_send_Response:00000000000001e4 .L0 
C:\Users\stapi\AppData\Local\Temp\ccLFD7qg.s:2235   .text.iotx_alcs_send_Response:00000000000001e4 .L0 
C:\Users\stapi\AppData\Local\Temp\ccLFD7qg.s:2236   .text.iotx_alcs_send_Response:00000000000001e4 .L0 
C:\Users\stapi\AppData\Local\Temp\ccLFD7qg.s:2238   .text.iotx_alcs_send_Response:00000000000001e6 .L0 
C:\Users\stapi\AppData\Local\Temp\ccLFD7qg.s:2241   .text.iotx_alcs_send_Response:00000000000001ee .L0 
C:\Users\stapi\AppData\Local\Temp\ccLFD7qg.s:2242   .text.iotx_alcs_send_Response:00000000000001ee .L0 
C:\Users\stapi\AppData\Local\Temp\ccLFD7qg.s:2248   .text.iotx_alcs_send_Response:00000000000001fc .L0 
C:\Users\stapi\AppData\Local\Temp\ccLFD7qg.s:2249   .text.iotx_alcs_send_Response:00000000000001fc .L0 
C:\Users\stapi\AppData\Local\Temp\ccLFD7qg.s:2251   .text.iotx_alcs_send_Response:00000000000001fe .L0 
C:\Users\stapi\AppData\Local\Temp\ccLFD7qg.s:2252   .text.iotx_alcs_send_Response:00000000000001fe .L0 
C:\Users\stapi\AppData\Local\Temp\ccLFD7qg.s:2258   .text.iotx_alcs_send_Response:000000000000020e .L0 
C:\Users\stapi\AppData\Local\Temp\ccLFD7qg.s:2263   .text.iotx_alcs_send_Response:0000000000000216 .L0 
C:\Users\stapi\AppData\Local\Temp\ccLFD7qg.s:2266   .text.iotx_alcs_send_Response:000000000000021e .L0 
C:\Users\stapi\AppData\Local\Temp\ccLFD7qg.s:2270   .text.iotx_alcs_send_Response:0000000000000220 .L0 
C:\Users\stapi\AppData\Local\Temp\ccLFD7qg.s:2271   .text.iotx_alcs_send_Response:0000000000000220 .L0 
C:\Users\stapi\AppData\Local\Temp\ccLFD7qg.s:2273   .text.iotx_alcs_send_Response:0000000000000222 .L0 
C:\Users\stapi\AppData\Local\Temp\ccLFD7qg.s:2276   .text.iotx_alcs_send_Response:0000000000000226 .L0 
C:\Users\stapi\AppData\Local\Temp\ccLFD7qg.s:2280   .text.iotx_alcs_send_Response:000000000000022a .L0 
C:\Users\stapi\AppData\Local\Temp\ccLFD7qg.s:2284   .text.iotx_alcs_send_Response:0000000000000232 .L0 
C:\Users\stapi\AppData\Local\Temp\ccLFD7qg.s:2292   .text.iotx_alcs_send_Response:0000000000000248 .L0 
C:\Users\stapi\AppData\Local\Temp\ccLFD7qg.s:2293   .text.iotx_alcs_send_Response:0000000000000248 .L0 
C:\Users\stapi\AppData\Local\Temp\ccLFD7qg.s:2295   .text.iotx_alcs_send_Response:000000000000024c .L0 
C:\Users\stapi\AppData\Local\Temp\ccLFD7qg.s:2299   .text.iotx_alcs_send_Response:0000000000000252 .L0 
C:\Users\stapi\AppData\Local\Temp\ccLFD7qg.s:2301   .text.iotx_alcs_send_Response:0000000000000256 .L0 
C:\Users\stapi\AppData\Local\Temp\ccLFD7qg.s:2302   .text.iotx_alcs_send_Response:0000000000000256 .L0 
C:\Users\stapi\AppData\Local\Temp\ccLFD7qg.s:2304   .text.iotx_alcs_send_Response:0000000000000258 .L0 
C:\Users\stapi\AppData\Local\Temp\ccLFD7qg.s:2305   .text.iotx_alcs_send_Response:0000000000000258 .L0 
C:\Users\stapi\AppData\Local\Temp\ccLFD7qg.s:2307   .text.iotx_alcs_send_Response:000000000000025a .L0 
C:\Users\stapi\AppData\Local\Temp\ccLFD7qg.s:2308   .text.iotx_alcs_send_Response:000000000000025a .L0 
C:\Users\stapi\AppData\Local\Temp\ccLFD7qg.s:2309   .text.iotx_alcs_send_Response:000000000000025a .L0 
C:\Users\stapi\AppData\Local\Temp\ccLFD7qg.s:2316   .text.iotx_alcs_send_Response:0000000000000268 .L0 
C:\Users\stapi\AppData\Local\Temp\ccLFD7qg.s:2317   .text.iotx_alcs_send_Response:0000000000000268 .L0 
C:\Users\stapi\AppData\Local\Temp\ccLFD7qg.s:2321   .text.iotx_alcs_send_Response:0000000000000272 .L0 
C:\Users\stapi\AppData\Local\Temp\ccLFD7qg.s:2322   .text.iotx_alcs_send_Response:0000000000000272 .L0 
C:\Users\stapi\AppData\Local\Temp\ccLFD7qg.s:2323   .text.iotx_alcs_send_Response:0000000000000272 .L0 
C:\Users\stapi\AppData\Local\Temp\ccLFD7qg.s:2324   .text.iotx_alcs_send_Response:0000000000000272 .L0 
C:\Users\stapi\AppData\Local\Temp\ccLFD7qg.s:2328   .text.iotx_alcs_send_Response:0000000000000278 .L0 
C:\Users\stapi\AppData\Local\Temp\ccLFD7qg.s:2330   .text.iotx_alcs_send_Response:000000000000027c .L0 
C:\Users\stapi\AppData\Local\Temp\ccLFD7qg.s:2331   .text.iotx_alcs_send_Response:000000000000027c .L0 
C:\Users\stapi\AppData\Local\Temp\ccLFD7qg.s:2333   .text.iotx_alcs_send_Response:0000000000000280 .L0 
C:\Users\stapi\AppData\Local\Temp\ccLFD7qg.s:2337   .text.iotx_alcs_send_Response:0000000000000286 .L0 
C:\Users\stapi\AppData\Local\Temp\ccLFD7qg.s:2340   .text.iotx_alcs_send_Response:000000000000028e .L0 
C:\Users\stapi\AppData\Local\Temp\ccLFD7qg.s:2341   .text.iotx_alcs_send_Response:000000000000028e .L0 
C:\Users\stapi\AppData\Local\Temp\ccLFD7qg.s:2348   .text.iotx_alcs_send_Response:000000000000029c .L0 
C:\Users\stapi\AppData\Local\Temp\ccLFD7qg.s:2349   .text.iotx_alcs_send_Response:000000000000029c .L0 
C:\Users\stapi\AppData\Local\Temp\ccLFD7qg.s:2357   .text.iotx_alcs_send_Response:00000000000002ac .L0 
C:\Users\stapi\AppData\Local\Temp\ccLFD7qg.s:2358   .text.iotx_alcs_send_Response:00000000000002ac .L0 
C:\Users\stapi\AppData\Local\Temp\ccLFD7qg.s:2360   .text.iotx_alcs_send_Response:00000000000002b0 .L0 
C:\Users\stapi\AppData\Local\Temp\ccLFD7qg.s:2362   .text.iotx_alcs_send_Response:00000000000002b4 .L0 
C:\Users\stapi\AppData\Local\Temp\ccLFD7qg.s:2365   .text.iotx_alcs_send_Response:00000000000002ba .L0 
C:\Users\stapi\AppData\Local\Temp\ccLFD7qg.s:2367   .text.iotx_alcs_send_Response:00000000000002bc .L0 
C:\Users\stapi\AppData\Local\Temp\ccLFD7qg.s:2369   .text.iotx_alcs_send_Response:00000000000002c0 .L0 
C:\Users\stapi\AppData\Local\Temp\ccLFD7qg.s:2373   .text.iotx_alcs_send_Response:00000000000002c8 .L0 
C:\Users\stapi\AppData\Local\Temp\ccLFD7qg.s:2374   .text.iotx_alcs_send_Response:00000000000002c8 .L0 
C:\Users\stapi\AppData\Local\Temp\ccLFD7qg.s:2380   .text.iotx_alcs_send_Response:00000000000002d8 .L0 
C:\Users\stapi\AppData\Local\Temp\ccLFD7qg.s:2386   .text.iotx_alcs_send_Response:00000000000002e2 .L0 
C:\Users\stapi\AppData\Local\Temp\ccLFD7qg.s:2393   .text.iotx_alcs_send_Response:00000000000002f0 .L0 
C:\Users\stapi\AppData\Local\Temp\ccLFD7qg.s:2401   .text.iotx_alcs_send_Response:0000000000000302 .L0 
C:\Users\stapi\AppData\Local\Temp\ccLFD7qg.s:2402   .text.iotx_alcs_send_Response:0000000000000302 .L0 
C:\Users\stapi\AppData\Local\Temp\ccLFD7qg.s:2405   .text.iotx_alcs_send_Response:0000000000000308 .L0 
C:\Users\stapi\AppData\Local\Temp\ccLFD7qg.s:2407   .text.iotx_alcs_send_Response:000000000000030a .L0 
C:\Users\stapi\AppData\Local\Temp\ccLFD7qg.s:2408   .text.iotx_alcs_send_Response:000000000000030a .L0 
C:\Users\stapi\AppData\Local\Temp\ccLFD7qg.s:2410   .text.iotx_alcs_send_Response:000000000000030c .L0 
C:\Users\stapi\AppData\Local\Temp\ccLFD7qg.s:2411   .text.iotx_alcs_send_Response:000000000000030c .L0 
C:\Users\stapi\AppData\Local\Temp\ccLFD7qg.s:2414   .text.iotx_alcs_send_Response:0000000000000314 .L0 
C:\Users\stapi\AppData\Local\Temp\ccLFD7qg.s:2416   .text.iotx_alcs_send_Response:0000000000000316 .L0 
C:\Users\stapi\AppData\Local\Temp\ccLFD7qg.s:2417   .text.iotx_alcs_send_Response:0000000000000316 .L0 
C:\Users\stapi\AppData\Local\Temp\ccLFD7qg.s:2428   .text.iotx_alcs_send_Response:000000000000032c .L0 
C:\Users\stapi\AppData\Local\Temp\ccLFD7qg.s:2432   .text.iotx_alcs_send_Response:000000000000032e .L0 
C:\Users\stapi\AppData\Local\Temp\ccLFD7qg.s:2436   .text.iotx_alcs_send_Response:0000000000000338 .L0 
C:\Users\stapi\AppData\Local\Temp\ccLFD7qg.s:2437   .text.iotx_alcs_send_Response:0000000000000338 .L0 
C:\Users\stapi\AppData\Local\Temp\ccLFD7qg.s:2439   .text.iotx_alcs_send_Response:000000000000033c .L0 
C:\Users\stapi\AppData\Local\Temp\ccLFD7qg.s:2440   .text.iotx_alcs_send_Response:000000000000033c .L0 
C:\Users\stapi\AppData\Local\Temp\ccLFD7qg.s:2445   .text.iotx_alcs_send_Response:000000000000034c .L0 
C:\Users\stapi\AppData\Local\Temp\ccLFD7qg.s:2455   .text.iotx_alcs_send_Response:0000000000000360 .L0 
C:\Users\stapi\AppData\Local\Temp\ccLFD7qg.s:2456   .text.iotx_alcs_send_Response:0000000000000360 .L0 
C:\Users\stapi\AppData\Local\Temp\ccLFD7qg.s:2457   .text.iotx_alcs_send_Response:0000000000000360 .L0 
C:\Users\stapi\AppData\Local\Temp\ccLFD7qg.s:2463   .text.iotx_alcs_send_Response:0000000000000372 .L0 
C:\Users\stapi\AppData\Local\Temp\ccLFD7qg.s:2466   .text.iotx_alcs_send_Response:0000000000000374 .L0 
C:\Users\stapi\AppData\Local\Temp\ccLFD7qg.s:2467   .text.iotx_alcs_send_Response:0000000000000374 .L0 
C:\Users\stapi\AppData\Local\Temp\ccLFD7qg.s:2471   .text.iotx_alcs_send_Response:000000000000037c .L0 
C:\Users\stapi\AppData\Local\Temp\ccLFD7qg.s:2474   .text.iotx_alcs_send_Response:0000000000000382 .L0 
C:\Users\stapi\AppData\Local\Temp\ccLFD7qg.s:2475   .text.iotx_alcs_send_Response:0000000000000382 .L0 
C:\Users\stapi\AppData\Local\Temp\ccLFD7qg.s:2479   .text.iotx_alcs_send_Response:000000000000038c .L0 
C:\Users\stapi\AppData\Local\Temp\ccLFD7qg.s:2483   .text.iotx_alcs_send_Response:0000000000000396 .L0 
C:\Users\stapi\AppData\Local\Temp\ccLFD7qg.s:2487   .text.iotx_alcs_send_Response:00000000000003a0 .L0 
C:\Users\stapi\AppData\Local\Temp\ccLFD7qg.s:2496   .text.iotx_alcs_send_Response:00000000000003ba .L0 
C:\Users\stapi\AppData\Local\Temp\ccLFD7qg.s:2497   .text.iotx_alcs_send_Response:00000000000003ba .L0 
C:\Users\stapi\AppData\Local\Temp\ccLFD7qg.s:2502   .text.iotx_alcs_send_Response:00000000000003c6 .L0 
C:\Users\stapi\AppData\Local\Temp\ccLFD7qg.s:2508   .text.iotx_alcs_send_Response:00000000000003d4 .L0 
C:\Users\stapi\AppData\Local\Temp\ccLFD7qg.s:2509   .text.iotx_alcs_send_Response:00000000000003d4 .L0 
C:\Users\stapi\AppData\Local\Temp\ccLFD7qg.s:2519   .text.iotx_alcs_send_Response:00000000000003ea .L0 
C:\Users\stapi\AppData\Local\Temp\ccLFD7qg.s:2520   .text.iotx_alcs_send_Response:00000000000003ea .L0 
C:\Users\stapi\AppData\Local\Temp\ccLFD7qg.s:2527   .text.iotx_alcs_send_Response:00000000000003f8 .L0 
C:\Users\stapi\AppData\Local\Temp\ccLFD7qg.s:2528   .text.iotx_alcs_send_Response:00000000000003f8 .L0 
C:\Users\stapi\AppData\Local\Temp\ccLFD7qg.s:2530   .text.iotx_alcs_send_Response:00000000000003fa .L0 
C:\Users\stapi\AppData\Local\Temp\ccLFD7qg.s:2533   .text.iotx_alcs_send_Response:00000000000003fe .L0 
C:\Users\stapi\AppData\Local\Temp\ccLFD7qg.s:2534   .text.iotx_alcs_send_Response:00000000000003fe .L0 
C:\Users\stapi\AppData\Local\Temp\ccLFD7qg.s:2537   .text.iotx_alcs_send_Response:0000000000000406 .L0 
C:\Users\stapi\AppData\Local\Temp\ccLFD7qg.s:2539   .text.iotx_alcs_send_Response:0000000000000408 .L0 
C:\Users\stapi\AppData\Local\Temp\ccLFD7qg.s:2540   .text.iotx_alcs_send_Response:0000000000000408 .L0 
C:\Users\stapi\AppData\Local\Temp\ccLFD7qg.s:2545   .text.iotx_alcs_send_Response:0000000000000418 .L0 
C:\Users\stapi\AppData\Local\Temp\ccLFD7qg.s:2552   .text.iotx_alcs_send_Response:000000000000042c .L0 
C:\Users\stapi\AppData\Local\Temp\ccLFD7qg.s:2559   .text.iotx_alcs_send_Response:000000000000043c .L0 
C:\Users\stapi\AppData\Local\Temp\ccLFD7qg.s:2560   .text.iotx_alcs_send_Response:000000000000043c .L0 
C:\Users\stapi\AppData\Local\Temp\ccLFD7qg.s:2561   .text.iotx_alcs_send_Response:000000000000043c .L0 
C:\Users\stapi\AppData\Local\Temp\ccLFD7qg.s:2571   .text.iotx_alcs_send_Response:0000000000000454 .L0 
C:\Users\stapi\AppData\Local\Temp\ccLFD7qg.s:2588   .text.iotx_alcs_register_resource:0000000000000000 iotx_alcs_register_resource
C:\Users\stapi\AppData\Local\Temp\ccLFD7qg.s:2591   .text.iotx_alcs_register_resource:0000000000000000 .L0 
C:\Users\stapi\AppData\Local\Temp\ccLFD7qg.s:2593   .text.iotx_alcs_register_resource:0000000000000000 .L0 
C:\Users\stapi\AppData\Local\Temp\ccLFD7qg.s:2594   .text.iotx_alcs_register_resource:0000000000000008 .L0 
C:\Users\stapi\AppData\Local\Temp\ccLFD7qg.s:2595   .text.iotx_alcs_register_resource:0000000000000008 .L0 
C:\Users\stapi\AppData\Local\Temp\ccLFD7qg.s:2596   .text.iotx_alcs_register_resource:0000000000000008 .L0 
C:\Users\stapi\AppData\Local\Temp\ccLFD7qg.s:2597   .text.iotx_alcs_register_resource:0000000000000008 .L0 
C:\Users\stapi\AppData\Local\Temp\ccLFD7qg.s:2598   .text.iotx_alcs_register_resource:0000000000000008 .L0 
C:\Users\stapi\AppData\Local\Temp\ccLFD7qg.s:2599   .text.iotx_alcs_register_resource:0000000000000008 .L0 
C:\Users\stapi\AppData\Local\Temp\ccLFD7qg.s:2600   .text.iotx_alcs_register_resource:0000000000000008 .L0 
C:\Users\stapi\AppData\Local\Temp\ccLFD7qg.s:2601   .text.iotx_alcs_register_resource:0000000000000008 .L0 
C:\Users\stapi\AppData\Local\Temp\ccLFD7qg.s:2604   .text.iotx_alcs_register_resource:0000000000000008 .L0 
C:\Users\stapi\AppData\Local\Temp\ccLFD7qg.s:2605   .text.iotx_alcs_register_resource:0000000000000008 .L0 
C:\Users\stapi\AppData\Local\Temp\ccLFD7qg.s:2606   .text.iotx_alcs_register_resource:0000000000000008 .L0 
C:\Users\stapi\AppData\Local\Temp\ccLFD7qg.s:2607   .text.iotx_alcs_register_resource:000000000000000a .L0 
C:\Users\stapi\AppData\Local\Temp\ccLFD7qg.s:2609   .text.iotx_alcs_register_resource:000000000000000a .L0 
C:\Users\stapi\AppData\Local\Temp\ccLFD7qg.s:2612   .text.iotx_alcs_register_resource:000000000000000c .L0 
C:\Users\stapi\AppData\Local\Temp\ccLFD7qg.s:2613   .text.iotx_alcs_register_resource:000000000000000c .L0 
C:\Users\stapi\AppData\Local\Temp\ccLFD7qg.s:2615   .text.iotx_alcs_register_resource:000000000000000e .L0 
C:\Users\stapi\AppData\Local\Temp\ccLFD7qg.s:2621   .text.iotx_alcs_register_resource:0000000000000014 .L0 
C:\Users\stapi\AppData\Local\Temp\ccLFD7qg.s:2628   .text.iotx_alcs_register_resource:0000000000000022 .L0 
C:\Users\stapi\AppData\Local\Temp\ccLFD7qg.s:2629   .text.iotx_alcs_register_resource:0000000000000022 .L0 
C:\Users\stapi\AppData\Local\Temp\ccLFD7qg.s:2633   .text.iotx_alcs_register_resource:000000000000002c .L0 
C:\Users\stapi\AppData\Local\Temp\ccLFD7qg.s:2634   .text.iotx_alcs_register_resource:000000000000002c .L0 
C:\Users\stapi\AppData\Local\Temp\ccLFD7qg.s:2635   .text.iotx_alcs_register_resource:000000000000002c .L0 
C:\Users\stapi\AppData\Local\Temp\ccLFD7qg.s:2636   .text.iotx_alcs_register_resource:000000000000002c .L0 
C:\Users\stapi\AppData\Local\Temp\ccLFD7qg.s:2638   .text.iotx_alcs_register_resource:0000000000000030 .L0 
C:\Users\stapi\AppData\Local\Temp\ccLFD7qg.s:2639   .text.iotx_alcs_register_resource:0000000000000030 .L0 
C:\Users\stapi\AppData\Local\Temp\ccLFD7qg.s:2641   .text.iotx_alcs_register_resource:0000000000000034 .L0 
C:\Users\stapi\AppData\Local\Temp\ccLFD7qg.s:2642   .text.iotx_alcs_register_resource:0000000000000034 .L0 
C:\Users\stapi\AppData\Local\Temp\ccLFD7qg.s:2645   .text.iotx_alcs_register_resource:000000000000003c .L0 
C:\Users\stapi\AppData\Local\Temp\ccLFD7qg.s:2646   .text.iotx_alcs_register_resource:000000000000003c .L0 
C:\Users\stapi\AppData\Local\Temp\ccLFD7qg.s:2651   .text.iotx_alcs_register_resource:000000000000004c .L0 
C:\Users\stapi\AppData\Local\Temp\ccLFD7qg.s:2656   .text.iotx_alcs_register_resource:0000000000000056 .L0 
C:\Users\stapi\AppData\Local\Temp\ccLFD7qg.s:2661   .text.iotx_alcs_register_resource:0000000000000066 .L0 
C:\Users\stapi\AppData\Local\Temp\ccLFD7qg.s:2665   .text.iotx_alcs_register_resource:0000000000000072 .L0 
C:\Users\stapi\AppData\Local\Temp\ccLFD7qg.s:2666   .text.iotx_alcs_register_resource:0000000000000072 .L0 
C:\Users\stapi\AppData\Local\Temp\ccLFD7qg.s:2670   .text.iotx_alcs_register_resource:0000000000000074 .L0 
C:\Users\stapi\AppData\Local\Temp\ccLFD7qg.s:2672   .text.iotx_alcs_register_resource:0000000000000078 .L0 
C:\Users\stapi\AppData\Local\Temp\ccLFD7qg.s:2673   .text.iotx_alcs_register_resource:0000000000000078 .L0 
C:\Users\stapi\AppData\Local\Temp\ccLFD7qg.s:2675   .text.iotx_alcs_register_resource:0000000000000080 .L0 
C:\Users\stapi\AppData\Local\Temp\ccLFD7qg.s:2676   .text.iotx_alcs_register_resource:0000000000000080 .L0 
C:\Users\stapi\AppData\Local\Temp\ccLFD7qg.s:2677   .text.iotx_alcs_register_resource:0000000000000080 .L0 
C:\Users\stapi\AppData\Local\Temp\ccLFD7qg.s:2678   .text.iotx_alcs_register_resource:0000000000000080 .L0 
C:\Users\stapi\AppData\Local\Temp\ccLFD7qg.s:2679   .text.iotx_alcs_register_resource:0000000000000080 .L0 
C:\Users\stapi\AppData\Local\Temp\ccLFD7qg.s:2680   .text.iotx_alcs_register_resource:0000000000000080 .L0 
C:\Users\stapi\AppData\Local\Temp\ccLFD7qg.s:2681   .text.iotx_alcs_register_resource:0000000000000080 .L0 
C:\Users\stapi\AppData\Local\Temp\ccLFD7qg.s:2682   .text.iotx_alcs_register_resource:0000000000000080 .L0 
C:\Users\stapi\AppData\Local\Temp\ccLFD7qg.s:2685   .text.iotx_alcs_register_resource:0000000000000080 .L0 
C:\Users\stapi\AppData\Local\Temp\ccLFD7qg.s:2687   .text.iotx_alcs_register_resource:0000000000000080 .L0 
C:\Users\stapi\AppData\Local\Temp\ccLFD7qg.s:2688   .text.iotx_alcs_register_resource:0000000000000080 .L0 
C:\Users\stapi\AppData\Local\Temp\ccLFD7qg.s:2689   .text.iotx_alcs_register_resource:0000000000000080 .L0 
C:\Users\stapi\AppData\Local\Temp\ccLFD7qg.s:2692   .text.iotx_alcs_register_resource:0000000000000086 .L0 
C:\Users\stapi\AppData\Local\Temp\ccLFD7qg.s:2693   .text.iotx_alcs_register_resource:0000000000000086 .L0 
C:\Users\stapi\AppData\Local\Temp\ccLFD7qg.s:2698   .text.iotx_alcs_register_resource:0000000000000096 .L0 
C:\Users\stapi\AppData\Local\Temp\ccLFD7qg.s:2704   .text.iotx_alcs_register_resource:00000000000000a4 .L0 
C:\Users\stapi\AppData\Local\Temp\ccLFD7qg.s:2705   .text.iotx_alcs_register_resource:00000000000000a4 .L0 
C:\Users\stapi\AppData\Local\Temp\ccLFD7qg.s:2706   .text.iotx_alcs_register_resource:00000000000000a4 .L0 
C:\Users\stapi\AppData\Local\Temp\ccLFD7qg.s:2709   .text.iotx_alcs_register_resource:00000000000000a8 .L0 
C:\Users\stapi\AppData\Local\Temp\ccLFD7qg.s:2710   .text.iotx_alcs_register_resource:00000000000000a8 .L0 
C:\Users\stapi\AppData\Local\Temp\ccLFD7qg.s:2715   .text.iotx_alcs_register_resource:00000000000000b8 .L0 
C:\Users\stapi\AppData\Local\Temp\ccLFD7qg.s:2722   .text.iotx_alcs_register_resource:00000000000000ca .L0 
C:\Users\stapi\AppData\Local\Temp\ccLFD7qg.s:2726   .text.iotx_alcs_register_resource:00000000000000d2 .L0 
C:\Users\stapi\AppData\Local\Temp\ccLFD7qg.s:2727   .text.iotx_alcs_register_resource:00000000000000d2 .L0 
C:\Users\stapi\AppData\Local\Temp\ccLFD7qg.s:2731   .text.iotx_alcs_register_resource:00000000000000de .L0 
C:\Users\stapi\AppData\Local\Temp\ccLFD7qg.s:2732   .text.iotx_alcs_register_resource:00000000000000de .L0 
C:\Users\stapi\AppData\Local\Temp\ccLFD7qg.s:2733   .text.iotx_alcs_register_resource:00000000000000de .L0 
C:\Users\stapi\AppData\Local\Temp\ccLFD7qg.s:2738   .text.iotx_alcs_register_resource:00000000000000e2 .L0 
C:\Users\stapi\AppData\Local\Temp\ccLFD7qg.s:2741   .text.iotx_alcs_register_resource:00000000000000e8 .L0 
C:\Users\stapi\AppData\Local\Temp\ccLFD7qg.s:2742   .text.iotx_alcs_register_resource:00000000000000e8 .L0 
C:\Users\stapi\AppData\Local\Temp\ccLFD7qg.s:2747   .text.iotx_alcs_register_resource:00000000000000f8 .L0 
C:\Users\stapi\AppData\Local\Temp\ccLFD7qg.s:2755   .text.iotx_alcs_register_resource:000000000000010c .L0 
C:\Users\stapi\AppData\Local\Temp\ccLFD7qg.s:2756   .text.iotx_alcs_register_resource:000000000000010c .L0 
C:\Users\stapi\AppData\Local\Temp\ccLFD7qg.s:2757   .text.iotx_alcs_register_resource:000000000000010c .L0 
C:\Users\stapi\AppData\Local\Temp\ccLFD7qg.s:2763   .text.iotx_alcs_register_resource:0000000000000118 .L0 
C:\Users\stapi\AppData\Local\Temp\ccLFD7qg.s:2764   .text.iotx_alcs_register_resource:0000000000000118 .L0 
C:\Users\stapi\AppData\Local\Temp\ccLFD7qg.s:2772   .text.iotx_alcs_register_resource:0000000000000128 .L0 
C:\Users\stapi\AppData\Local\Temp\ccLFD7qg.s:2773   .text.iotx_alcs_register_resource:0000000000000128 .L0 
C:\Users\stapi\AppData\Local\Temp\ccLFD7qg.s:2775   .text.iotx_alcs_register_resource:000000000000012c .L0 
C:\Users\stapi\AppData\Local\Temp\ccLFD7qg.s:2777   .text.iotx_alcs_register_resource:0000000000000130 .L0 
C:\Users\stapi\AppData\Local\Temp\ccLFD7qg.s:2780   .text.iotx_alcs_register_resource:0000000000000136 .L0 
C:\Users\stapi\AppData\Local\Temp\ccLFD7qg.s:2782   .text.iotx_alcs_register_resource:0000000000000138 .L0 
C:\Users\stapi\AppData\Local\Temp\ccLFD7qg.s:2784   .text.iotx_alcs_register_resource:000000000000013c .L0 
C:\Users\stapi\AppData\Local\Temp\ccLFD7qg.s:2788   .text.iotx_alcs_register_resource:0000000000000144 .L0 
C:\Users\stapi\AppData\Local\Temp\ccLFD7qg.s:2789   .text.iotx_alcs_register_resource:0000000000000144 .L0 
C:\Users\stapi\AppData\Local\Temp\ccLFD7qg.s:2795   .text.iotx_alcs_register_resource:0000000000000154 .L0 
C:\Users\stapi\AppData\Local\Temp\ccLFD7qg.s:2800   .text.iotx_alcs_register_resource:0000000000000164 .L0 
C:\Users\stapi\AppData\Local\Temp\ccLFD7qg.s:2804   .text.iotx_alcs_register_resource:0000000000000166 .L0 
C:\Users\stapi\AppData\Local\Temp\ccLFD7qg.s:2810   .text.iotx_alcs_register_resource:0000000000000172 .L0 
C:\Users\stapi\AppData\Local\Temp\ccLFD7qg.s:2816   .text.iotx_alcs_register_resource:0000000000000180 .L0 
C:\Users\stapi\AppData\Local\Temp\ccLFD7qg.s:2817   .text.iotx_alcs_register_resource:0000000000000180 .L0 
C:\Users\stapi\AppData\Local\Temp\ccLFD7qg.s:2822   .text.iotx_alcs_register_resource:0000000000000190 .L0 
C:\Users\stapi\AppData\Local\Temp\ccLFD7qg.s:2828   .text.iotx_alcs_register_resource:00000000000001a2 .L0 
C:\Users\stapi\AppData\Local\Temp\ccLFD7qg.s:2832   .text.iotx_alcs_register_resource:00000000000001ae .L0 
C:\Users\stapi\AppData\Local\Temp\ccLFD7qg.s:2833   .text.iotx_alcs_register_resource:00000000000001ae .L0 
C:\Users\stapi\AppData\Local\Temp\ccLFD7qg.s:2834   .text.iotx_alcs_register_resource:00000000000001ae .L0 
C:\Users\stapi\AppData\Local\Temp\ccLFD7qg.s:2835   .text.iotx_alcs_register_resource:00000000000001ae .L0 
C:\Users\stapi\AppData\Local\Temp\ccLFD7qg.s:2851   .text.iotx_alcs_register_resource:00000000000001d4 .L0 
C:\Users\stapi\AppData\Local\Temp\ccLFD7qg.s:2852   .text.iotx_alcs_register_resource:00000000000001d4 .L0 
C:\Users\stapi\AppData\Local\Temp\ccLFD7qg.s:2855   .text.iotx_alcs_register_resource:00000000000001da .L0 
C:\Users\stapi\AppData\Local\Temp\ccLFD7qg.s:2856   .text.iotx_alcs_register_resource:00000000000001da .L0 
C:\Users\stapi\AppData\Local\Temp\ccLFD7qg.s:2862   .text.iotx_alcs_register_resource:00000000000001ea .L0 
C:\Users\stapi\AppData\Local\Temp\ccLFD7qg.s:2868   .text.iotx_alcs_register_resource:00000000000001fe .L0 
C:\Users\stapi\AppData\Local\Temp\ccLFD7qg.s:2879   .text.iotx_alcs_observe_notify:0000000000000000 iotx_alcs_observe_notify
C:\Users\stapi\AppData\Local\Temp\ccLFD7qg.s:2882   .text.iotx_alcs_observe_notify:0000000000000000 .L0 
C:\Users\stapi\AppData\Local\Temp\ccLFD7qg.s:2884   .text.iotx_alcs_observe_notify:0000000000000000 .L0 
C:\Users\stapi\AppData\Local\Temp\ccLFD7qg.s:2885   .text.iotx_alcs_observe_notify:0000000000000008 .L0 
C:\Users\stapi\AppData\Local\Temp\ccLFD7qg.s:2886   .text.iotx_alcs_observe_notify:0000000000000008 .L0 
C:\Users\stapi\AppData\Local\Temp\ccLFD7qg.s:2889   .text.iotx_alcs_observe_notify:0000000000000008 .L0 
C:\Users\stapi\AppData\Local\Temp\ccLFD7qg.s:2890   .text.iotx_alcs_observe_notify:0000000000000008 .L0 
C:\Users\stapi\AppData\Local\Temp\ccLFD7qg.s:2891   .text.iotx_alcs_observe_notify:0000000000000008 .L0 
C:\Users\stapi\AppData\Local\Temp\ccLFD7qg.s:2892   .text.iotx_alcs_observe_notify:0000000000000008 .L0 
C:\Users\stapi\AppData\Local\Temp\ccLFD7qg.s:2893   .text.iotx_alcs_observe_notify:0000000000000008 .L0 
C:\Users\stapi\AppData\Local\Temp\ccLFD7qg.s:2896   .text.iotx_alcs_observe_notify:000000000000000a .L0 
C:\Users\stapi\AppData\Local\Temp\ccLFD7qg.s:2897   .text.iotx_alcs_observe_notify:000000000000000c .L0 
C:\Users\stapi\AppData\Local\Temp\ccLFD7qg.s:2899   .text.iotx_alcs_observe_notify:000000000000000c .L0 
C:\Users\stapi\AppData\Local\Temp\ccLFD7qg.s:2901   .text.iotx_alcs_observe_notify:000000000000000e .L0 
C:\Users\stapi\AppData\Local\Temp\ccLFD7qg.s:2902   .text.iotx_alcs_observe_notify:000000000000000e .L0 
C:\Users\stapi\AppData\Local\Temp\ccLFD7qg.s:2905   .text.iotx_alcs_observe_notify:0000000000000010 .L0 
C:\Users\stapi\AppData\Local\Temp\ccLFD7qg.s:2907   .text.iotx_alcs_observe_notify:0000000000000012 .L0 
C:\Users\stapi\AppData\Local\Temp\ccLFD7qg.s:2908   .text.iotx_alcs_observe_notify:0000000000000012 .L0 
C:\Users\stapi\AppData\Local\Temp\ccLFD7qg.s:2913   .text.iotx_alcs_observe_notify:000000000000001c .L0 
C:\Users\stapi\AppData\Local\Temp\ccLFD7qg.s:2914   .text.iotx_alcs_observe_notify:000000000000001c .L0 
C:\Users\stapi\AppData\Local\Temp\ccLFD7qg.s:2917   .text.iotx_alcs_observe_notify:0000000000000020 .L0 
C:\Users\stapi\AppData\Local\Temp\ccLFD7qg.s:2918   .text.iotx_alcs_observe_notify:0000000000000020 .L0 
C:\Users\stapi\AppData\Local\Temp\ccLFD7qg.s:2924   .text.iotx_alcs_observe_notify:0000000000000030 .L0 
C:\Users\stapi\AppData\Local\Temp\ccLFD7qg.s:2930   .text.iotx_alcs_observe_notify:0000000000000042 .L0 
C:\Users\stapi\AppData\Local\Temp\ccLFD7qg.s:2935   .text.iotx_alcs_observe_notify:0000000000000052 .L0 
C:\Users\stapi\AppData\Local\Temp\ccLFD7qg.s:2936   .text.iotx_alcs_observe_notify:0000000000000052 .L0 
C:\Users\stapi\AppData\Local\Temp\ccLFD7qg.s:2937   .text.iotx_alcs_observe_notify:0000000000000052 .L0 
C:\Users\stapi\AppData\Local\Temp\ccLFD7qg.s:2941   .text.iotx_alcs_observe_notify:0000000000000054 .L0 
C:\Users\stapi\AppData\Local\Temp\ccLFD7qg.s:2943   .text.iotx_alcs_observe_notify:0000000000000058 .L0 
C:\Users\stapi\AppData\Local\Temp\ccLFD7qg.s:2945   .text.iotx_alcs_observe_notify:0000000000000060 .L0 
C:\Users\stapi\AppData\Local\Temp\ccLFD7qg.s:2946   .text.iotx_alcs_observe_notify:0000000000000060 .L0 
C:\Users\stapi\AppData\Local\Temp\ccLFD7qg.s:2947   .text.iotx_alcs_observe_notify:0000000000000060 .L0 
C:\Users\stapi\AppData\Local\Temp\ccLFD7qg.s:2952   .bss.g_alcs_adapter:0000000000000000 .LANCHOR0
C:\Users\stapi\AppData\Local\Temp\ccLFD7qg.s:2955   .bss.g_alcs_adapter:0000000000000000 g_alcs_adapter
C:\Users\stapi\AppData\Local\Temp\ccLFD7qg.s:75     .text.iotx_alcs_coap_adapter_event_notifier:0000000000000050 .L0 
C:\Users\stapi\AppData\Local\Temp\ccLFD7qg.s:187    .text._iotx_alcs_send_list_search_and_remove:000000000000006c .L0 
C:\Users\stapi\AppData\Local\Temp\ccLFD7qg.s:311    .text.iotx_alcs_topic_parse_dn:0000000000000098 .L0 
C:\Users\stapi\AppData\Local\Temp\ccLFD7qg.s:428    .text.iotx_alcs_topic_parse_pk.constprop.0:0000000000000098 .L0 
C:\Users\stapi\AppData\Local\Temp\ccLFD7qg.s:445    .text.iotx_alcs_get_ctx:000000000000000a .L0 
C:\Users\stapi\AppData\Local\Temp\ccLFD7qg.s:704    .text.iotx_alcs_coap_adapter_send_msg_handle:000000000000014e .L0 
C:\Users\stapi\AppData\Local\Temp\ccLFD7qg.s:736    .text.iotx_alcs_adapter_list_init:000000000000000c .L0 
C:\Users\stapi\AppData\Local\Temp\ccLFD7qg.s:916    .text.iotx_alcs_adapter_deinit:00000000000000ee .L0 
C:\Users\stapi\AppData\Local\Temp\ccLFD7qg.s:1308   .text.iotx_alcs_adapter_init:0000000000000252 .L0 
C:\Users\stapi\AppData\Local\Temp\ccLFD7qg.s:1488   .text.iotx_alcs_construct:0000000000000130 .L0 
C:\Users\stapi\AppData\Local\Temp\ccLFD7qg.s:1682   .text.iotx_alcs_cloud_init:0000000000000128 .L0 
C:\Users\stapi\AppData\Local\Temp\ccLFD7qg.s:1771   .text.iotx_alcs_destroy:000000000000007c .L0 
C:\Users\stapi\AppData\Local\Temp\ccLFD7qg.s:1896   .text.iotx_alcs_yield:000000000000009a .L0 
C:\Users\stapi\AppData\Local\Temp\ccLFD7qg.s:1913   .text.iotx_alcs_send:0000000000000004 .L0 
C:\Users\stapi\AppData\Local\Temp\ccLFD7qg.s:2574   .text.iotx_alcs_send_Response:0000000000000454 .L0 
C:\Users\stapi\AppData\Local\Temp\ccLFD7qg.s:2871   .text.iotx_alcs_register_resource:00000000000001fe .L0 
C:\Users\stapi\AppData\Local\Temp\ccLFD7qg.s:2950   .text.iotx_alcs_observe_notify:0000000000000060 .L0 
                     .debug_frame:0000000000000000 .L0 
C:\Users\stapi\AppData\Local\Temp\ccLFD7qg.s:11     .rodata.iotx_alcs_coap_adapter_event_notifier.str1.4:0000000000000000 .LC0
C:\Users\stapi\AppData\Local\Temp\ccLFD7qg.s:14     .rodata.iotx_alcs_coap_adapter_event_notifier.str1.4:0000000000000008 .LC1
C:\Users\stapi\AppData\Local\Temp\ccLFD7qg.s:17     .rodata.iotx_alcs_coap_adapter_event_notifier.str1.4:0000000000000050 .LC2
C:\Users\stapi\AppData\Local\Temp\ccLFD7qg.s:117    .text._iotx_alcs_send_list_search_and_remove:000000000000002c .L7
C:\Users\stapi\AppData\Local\Temp\ccLFD7qg.s:160    .text._iotx_alcs_send_list_search_and_remove:0000000000000058 .L3
C:\Users\stapi\AppData\Local\Temp\ccLFD7qg.s:174    .text._iotx_alcs_send_list_search_and_remove:0000000000000060 .L5
C:\Users\stapi\AppData\Local\Temp\ccLFD7qg.s:110    .text._iotx_alcs_send_list_search_and_remove:0000000000000020 .L4
C:\Users\stapi\AppData\Local\Temp\ccLFD7qg.s:189    .rodata.iotx_alcs_topic_parse_dn.str1.4:0000000000000000 .LC3
C:\Users\stapi\AppData\Local\Temp\ccLFD7qg.s:192    .rodata.iotx_alcs_topic_parse_dn.str1.4:0000000000000008 .LC4
C:\Users\stapi\AppData\Local\Temp\ccLFD7qg.s:241    .text.iotx_alcs_topic_parse_dn:0000000000000046 .L10
C:\Users\stapi\AppData\Local\Temp\ccLFD7qg.s:231    .text.iotx_alcs_topic_parse_dn:000000000000003c .L11
C:\Users\stapi\AppData\Local\Temp\ccLFD7qg.s:293    .text.iotx_alcs_topic_parse_dn:0000000000000088 .L13
C:\Users\stapi\AppData\Local\Temp\ccLFD7qg.s:298    .text.iotx_alcs_topic_parse_dn:000000000000008c .L14
C:\Users\stapi\AppData\Local\Temp\ccLFD7qg.s:270    .text.iotx_alcs_topic_parse_dn:0000000000000064 .L12
C:\Users\stapi\AppData\Local\Temp\ccLFD7qg.s:358    .text.iotx_alcs_topic_parse_pk.constprop.0:0000000000000046 .L18
C:\Users\stapi\AppData\Local\Temp\ccLFD7qg.s:348    .text.iotx_alcs_topic_parse_pk.constprop.0:000000000000003c .L19
C:\Users\stapi\AppData\Local\Temp\ccLFD7qg.s:410    .text.iotx_alcs_topic_parse_pk.constprop.0:0000000000000088 .L21
C:\Users\stapi\AppData\Local\Temp\ccLFD7qg.s:415    .text.iotx_alcs_topic_parse_pk.constprop.0:000000000000008c .L22
C:\Users\stapi\AppData\Local\Temp\ccLFD7qg.s:387    .text.iotx_alcs_topic_parse_pk.constprop.0:0000000000000064 .L20
C:\Users\stapi\AppData\Local\Temp\ccLFD7qg.s:447    .rodata.iotx_alcs_coap_adapter_send_msg_handle.str1.4:0000000000000000 .LC5
C:\Users\stapi\AppData\Local\Temp\ccLFD7qg.s:450    .rodata.iotx_alcs_coap_adapter_send_msg_handle.str1.4:0000000000000008 .LC6
C:\Users\stapi\AppData\Local\Temp\ccLFD7qg.s:513    .text.iotx_alcs_coap_adapter_send_msg_handle:0000000000000052 .L27
C:\Users\stapi\AppData\Local\Temp\ccLFD7qg.s:629    .text.iotx_alcs_coap_adapter_send_msg_handle:00000000000000f0 .L28
C:\Users\stapi\AppData\Local\Temp\ccLFD7qg.s:616    .text.iotx_alcs_coap_adapter_send_msg_handle:00000000000000e6 .L26
C:\Users\stapi\AppData\Local\Temp\ccLFD7qg.s:583    .text.iotx_alcs_coap_adapter_send_msg_handle:00000000000000b4 .L35
C:\Users\stapi\AppData\Local\Temp\ccLFD7qg.s:864    .text.iotx_alcs_adapter_deinit:00000000000000bc .L39
C:\Users\stapi\AppData\Local\Temp\ccLFD7qg.s:830    .text.iotx_alcs_adapter_deinit:0000000000000080 .L40
C:\Users\stapi\AppData\Local\Temp\ccLFD7qg.s:811    .text.iotx_alcs_adapter_deinit:0000000000000062 .L38
C:\Users\stapi\AppData\Local\Temp\ccLFD7qg.s:918    .rodata.iotx_alcs_adapter_init.str1.4:0000000000000000 .LC7
C:\Users\stapi\AppData\Local\Temp\ccLFD7qg.s:921    .rodata.iotx_alcs_adapter_init.str1.4:0000000000000018 .LC8
C:\Users\stapi\AppData\Local\Temp\ccLFD7qg.s:924    .rodata.iotx_alcs_adapter_init.str1.4:000000000000002c .LC9
C:\Users\stapi\AppData\Local\Temp\ccLFD7qg.s:927    .rodata.iotx_alcs_adapter_init.str1.4:0000000000000048 .LC10
C:\Users\stapi\AppData\Local\Temp\ccLFD7qg.s:930    .rodata.iotx_alcs_adapter_init.str1.4:0000000000000060 .LC11
C:\Users\stapi\AppData\Local\Temp\ccLFD7qg.s:933    .rodata.iotx_alcs_adapter_init.str1.4:0000000000000078 .LC12
C:\Users\stapi\AppData\Local\Temp\ccLFD7qg.s:936    .rodata.iotx_alcs_adapter_init.str1.4:0000000000000090 .LC13
C:\Users\stapi\AppData\Local\Temp\ccLFD7qg.s:1041   .text.iotx_alcs_adapter_init:00000000000000a4 .L46
C:\Users\stapi\AppData\Local\Temp\ccLFD7qg.s:1108   .text.iotx_alcs_adapter_init:000000000000011c .L59
C:\Users\stapi\AppData\Local\Temp\ccLFD7qg.s:1129   .text.iotx_alcs_adapter_init:000000000000012a .L48
C:\Users\stapi\AppData\Local\Temp\ccLFD7qg.s:1161   .text.iotx_alcs_adapter_init:0000000000000160 .L49
C:\Users\stapi\AppData\Local\Temp\ccLFD7qg.s:1029   .text.iotx_alcs_adapter_init:000000000000008e .L60
C:\Users\stapi\AppData\Local\Temp\ccLFD7qg.s:1189   .text.iotx_alcs_adapter_init:0000000000000194 .L50
C:\Users\stapi\AppData\Local\Temp\ccLFD7qg.s:1220   .text.iotx_alcs_adapter_init:00000000000001d4 .L51
C:\Users\stapi\AppData\Local\Temp\ccLFD7qg.s:1237   .text.iotx_alcs_adapter_init:00000000000001ec .L52
C:\Users\stapi\AppData\Local\Temp\ccLFD7qg.s:1268   .text.iotx_alcs_adapter_init:000000000000022c .L53
C:\Users\stapi\AppData\Local\Temp\ccLFD7qg.s:1035   .text.iotx_alcs_adapter_init:000000000000009a .L58
C:\Users\stapi\AppData\Local\Temp\ccLFD7qg.s:1113   .text.iotx_alcs_adapter_init:000000000000011e .L45
C:\Users\stapi\AppData\Local\Temp\ccLFD7qg.s:1310   .rodata.iotx_alcs_construct.str1.4:0000000000000000 .LC14
C:\Users\stapi\AppData\Local\Temp\ccLFD7qg.s:1313   .rodata.iotx_alcs_construct.str1.4:000000000000001c .LC15
C:\Users\stapi\AppData\Local\Temp\ccLFD7qg.s:1316   .rodata.iotx_alcs_construct.str1.4:0000000000000024 .LC16
C:\Users\stapi\AppData\Local\Temp\ccLFD7qg.s:1319   .rodata.iotx_alcs_construct.str1.4:0000000000000040 .LC17
C:\Users\stapi\AppData\Local\Temp\ccLFD7qg.s:1322   .rodata.iotx_alcs_construct.str1.4:0000000000000050 .LC18
C:\Users\stapi\AppData\Local\Temp\ccLFD7qg.s:1325   .rodata.iotx_alcs_construct.str1.4:000000000000006c .LC19
C:\Users\stapi\AppData\Local\Temp\ccLFD7qg.s:1397   .text.iotx_alcs_construct:0000000000000076 .L62
C:\Users\stapi\AppData\Local\Temp\ccLFD7qg.s:1423   .text.iotx_alcs_construct:00000000000000b0 .L61
C:\Users\stapi\AppData\Local\Temp\ccLFD7qg.s:1434   .text.iotx_alcs_construct:00000000000000ba .L64
C:\Users\stapi\AppData\Local\Temp\ccLFD7qg.s:1452   .text.iotx_alcs_construct:00000000000000e4 .L65
C:\Users\stapi\AppData\Local\Temp\ccLFD7qg.s:1381   .text.iotx_alcs_construct:000000000000005e .L70
C:\Users\stapi\AppData\Local\Temp\ccLFD7qg.s:1386   .text.iotx_alcs_construct:0000000000000066 .L69
C:\Users\stapi\AppData\Local\Temp\ccLFD7qg.s:1490   .rodata.iotx_alcs_cloud_init.str1.4:0000000000000000 .LC20
C:\Users\stapi\AppData\Local\Temp\ccLFD7qg.s:1493   .rodata.iotx_alcs_cloud_init.str1.4:0000000000000018 .LC21
C:\Users\stapi\AppData\Local\Temp\ccLFD7qg.s:1675   .text.iotx_alcs_cloud_init:0000000000000124 .L76
C:\Users\stapi\AppData\Local\Temp\ccLFD7qg.s:1607   .text.iotx_alcs_cloud_init:00000000000000b8 .L71
C:\Users\stapi\AppData\Local\Temp\ccLFD7qg.s:1620   .text.iotx_alcs_cloud_init:00000000000000c2 .L73
C:\Users\stapi\AppData\Local\Temp\ccLFD7qg.s:1649   .text.iotx_alcs_cloud_init:00000000000000f6 .L74
C:\Users\stapi\AppData\Local\Temp\ccLFD7qg.s:1595   .text.iotx_alcs_cloud_init:00000000000000a2 .L79
C:\Users\stapi\AppData\Local\Temp\ccLFD7qg.s:1670   .text.iotx_alcs_cloud_init:0000000000000120 .L75
C:\Users\stapi\AppData\Local\Temp\ccLFD7qg.s:1684   .rodata.iotx_alcs_destroy.str1.4:0000000000000000 .LC22
C:\Users\stapi\AppData\Local\Temp\ccLFD7qg.s:1687   .rodata.iotx_alcs_destroy.str1.4:0000000000000008 .LC23
C:\Users\stapi\AppData\Local\Temp\ccLFD7qg.s:1738   .text.iotx_alcs_destroy:000000000000004e .L81
C:\Users\stapi\AppData\Local\Temp\ccLFD7qg.s:1759   .text.iotx_alcs_destroy:0000000000000070 .L83
C:\Users\stapi\AppData\Local\Temp\ccLFD7qg.s:1716   .text.iotx_alcs_destroy:0000000000000024 .L85
C:\Users\stapi\AppData\Local\Temp\ccLFD7qg.s:1730   .text.iotx_alcs_destroy:0000000000000046 .L80
C:\Users\stapi\AppData\Local\Temp\ccLFD7qg.s:1773   .rodata.iotx_alcs_yield.str1.4:0000000000000000 .LC24
C:\Users\stapi\AppData\Local\Temp\ccLFD7qg.s:1776   .rodata.iotx_alcs_yield.str1.4:0000000000000008 .LC25
C:\Users\stapi\AppData\Local\Temp\ccLFD7qg.s:1830   .text.iotx_alcs_yield:000000000000004e .L87
C:\Users\stapi\AppData\Local\Temp\ccLFD7qg.s:1850   .text.iotx_alcs_yield:0000000000000070 .L89
C:\Users\stapi\AppData\Local\Temp\ccLFD7qg.s:1808   .text.iotx_alcs_yield:0000000000000024 .L105
C:\Users\stapi\AppData\Local\Temp\ccLFD7qg.s:1869   .text.iotx_alcs_yield:000000000000007e .L90
C:\Users\stapi\AppData\Local\Temp\ccLFD7qg.s:1883   .text.iotx_alcs_yield:000000000000008e .L91
C:\Users\stapi\AppData\Local\Temp\ccLFD7qg.s:1822   .text.iotx_alcs_yield:0000000000000046 .L86
C:\Users\stapi\AppData\Local\Temp\ccLFD7qg.s:1915   .rodata.iotx_alcs_send_Response.str1.4:0000000000000000 .LC26
C:\Users\stapi\AppData\Local\Temp\ccLFD7qg.s:1918   .rodata.iotx_alcs_send_Response.str1.4:0000000000000004 .LC27
C:\Users\stapi\AppData\Local\Temp\ccLFD7qg.s:1921   .rodata.iotx_alcs_send_Response.str1.4:0000000000000014 .LC28
C:\Users\stapi\AppData\Local\Temp\ccLFD7qg.s:1924   .rodata.iotx_alcs_send_Response.str1.4:000000000000001c .LC29
C:\Users\stapi\AppData\Local\Temp\ccLFD7qg.s:1927   .rodata.iotx_alcs_send_Response.str1.4:0000000000000028 .LC30
C:\Users\stapi\AppData\Local\Temp\ccLFD7qg.s:1930   .rodata.iotx_alcs_send_Response.str1.4:0000000000000044 .LC31
C:\Users\stapi\AppData\Local\Temp\ccLFD7qg.s:1939   .rodata.iotx_alcs_send_Response.str1.4:0000000000000070 .LC34
C:\Users\stapi\AppData\Local\Temp\ccLFD7qg.s:1933   .rodata.iotx_alcs_send_Response.str1.4:0000000000000060 .LC32
C:\Users\stapi\AppData\Local\Temp\ccLFD7qg.s:1936   .rodata.iotx_alcs_send_Response.str1.4:0000000000000068 .LC33
C:\Users\stapi\AppData\Local\Temp\ccLFD7qg.s:2017   .text.iotx_alcs_send_Response:0000000000000054 .L108
C:\Users\stapi\AppData\Local\Temp\ccLFD7qg.s:2039   .text.iotx_alcs_send_Response:000000000000007c .L110
C:\Users\stapi\AppData\Local\Temp\ccLFD7qg.s:1985   .text.iotx_alcs_send_Response:0000000000000026 .L146
C:\Users\stapi\AppData\Local\Temp\ccLFD7qg.s:2059   .text.iotx_alcs_send_Response:000000000000009c .L111
C:\Users\stapi\AppData\Local\Temp\ccLFD7qg.s:2078   .text.iotx_alcs_send_Response:00000000000000c0 .L112
C:\Users\stapi\AppData\Local\Temp\ccLFD7qg.s:2116   .text.iotx_alcs_send_Response:0000000000000102 .L113
C:\Users\stapi\AppData\Local\Temp\ccLFD7qg.s:2000   .text.iotx_alcs_send_Response:0000000000000048 .L107
C:\Users\stapi\AppData\Local\Temp\ccLFD7qg.s:2136   .text.iotx_alcs_send_Response:000000000000012c .L114
C:\Users\stapi\AppData\Local\Temp\ccLFD7qg.s:2099   .text.iotx_alcs_send_Response:00000000000000e6 .L150
C:\Users\stapi\AppData\Local\Temp\ccLFD7qg.s:2154   .text.iotx_alcs_send_Response:000000000000014c .L115
C:\Users\stapi\AppData\Local\Temp\ccLFD7qg.s:2095   .text.iotx_alcs_send_Response:00000000000000de .L151
C:\Users\stapi\AppData\Local\Temp\ccLFD7qg.s:2170   .text.iotx_alcs_send_Response:000000000000016e .L116
C:\Users\stapi\AppData\Local\Temp\ccLFD7qg.s:2130   .text.iotx_alcs_send_Response:0000000000000122 .L149
C:\Users\stapi\AppData\Local\Temp\ccLFD7qg.s:2208   .text.iotx_alcs_send_Response:00000000000001bc .L117
C:\Users\stapi\AppData\Local\Temp\ccLFD7qg.s:2268   .text.iotx_alcs_send_Response:0000000000000220 .L118
C:\Users\stapi\AppData\Local\Temp\ccLFD7qg.s:2104   .text.iotx_alcs_send_Response:00000000000000ee .L147
C:\Users\stapi\AppData\Local\Temp\ccLFD7qg.s:2371   .text.iotx_alcs_send_Response:00000000000002c8 .L119
C:\Users\stapi\AppData\Local\Temp\ccLFD7qg.s:2384   .text.iotx_alcs_send_Response:00000000000002e2 .L120
C:\Users\stapi\AppData\Local\Temp\ccLFD7qg.s:2261   .text.iotx_alcs_send_Response:0000000000000216 .L148
C:\Users\stapi\AppData\Local\Temp\ccLFD7qg.s:2452   .text.iotx_alcs_send_Response:0000000000000360 .L121
C:\Users\stapi\AppData\Local\Temp\ccLFD7qg.s:2557   .text.iotx_alcs_send_Response:000000000000043c .L123
C:\Users\stapi\AppData\Local\Temp\ccLFD7qg.s:2516   .text.iotx_alcs_send_Response:00000000000003ea .L124
C:\Users\stapi\AppData\Local\Temp\ccLFD7qg.s:2425   .text.iotx_alcs_send_Response:000000000000032c .L145
C:\Users\stapi\AppData\Local\Temp\ccLFD7qg.s:2576   .rodata.iotx_alcs_register_resource.str1.4:0000000000000000 .LC35
C:\Users\stapi\AppData\Local\Temp\ccLFD7qg.s:2579   .rodata.iotx_alcs_register_resource.str1.4:0000000000000010 .LC36
C:\Users\stapi\AppData\Local\Temp\ccLFD7qg.s:2582   .rodata.iotx_alcs_register_resource.str1.4:0000000000000030 .LC37
C:\Users\stapi\AppData\Local\Temp\ccLFD7qg.s:2684   .text.iotx_alcs_register_resource:0000000000000080 .L153
C:\Users\stapi\AppData\Local\Temp\ccLFD7qg.s:2702   .text.iotx_alcs_register_resource:00000000000000a4 .L155
C:\Users\stapi\AppData\Local\Temp\ccLFD7qg.s:2654   .text.iotx_alcs_register_resource:0000000000000056 .L170
C:\Users\stapi\AppData\Local\Temp\ccLFD7qg.s:2736   .text.iotx_alcs_register_resource:00000000000000e2 .L156
C:\Users\stapi\AppData\Local\Temp\ccLFD7qg.s:2668   .text.iotx_alcs_register_resource:0000000000000074 .L152
C:\Users\stapi\AppData\Local\Temp\ccLFD7qg.s:2753   .text.iotx_alcs_register_resource:000000000000010c .L157
C:\Users\stapi\AppData\Local\Temp\ccLFD7qg.s:2720   .text.iotx_alcs_register_resource:00000000000000ca .L172
C:\Users\stapi\AppData\Local\Temp\ccLFD7qg.s:2786   .text.iotx_alcs_register_resource:0000000000000144 .L158
C:\Users\stapi\AppData\Local\Temp\ccLFD7qg.s:2802   .text.iotx_alcs_register_resource:0000000000000166 .L159
C:\Users\stapi\AppData\Local\Temp\ccLFD7qg.s:2725   .text.iotx_alcs_register_resource:00000000000000d2 .L171
C:\Users\stapi\AppData\Local\Temp\ccLFD7qg.s:2873   .rodata.iotx_alcs_observe_notify.str1.4:0000000000000000 .LC38
C:\Users\stapi\AppData\Local\Temp\ccLFD7qg.s:2939   .text.iotx_alcs_observe_notify:0000000000000054 .L173
C:\Users\stapi\AppData\Local\Temp\ccLFD7qg.s:8792   .debug_abbrev:0000000000000000 .Ldebug_abbrev0
C:\Users\stapi\AppData\Local\Temp\ccLFD7qg.s:11677  .debug_str:0000000000000120 .LASF476
C:\Users\stapi\AppData\Local\Temp\ccLFD7qg.s:12215  .debug_str:0000000000001895 .LASF477
C:\Users\stapi\AppData\Local\Temp\ccLFD7qg.s:12263  .debug_str:0000000000001abf .LASF478
C:\Users\stapi\AppData\Local\Temp\ccLFD7qg.s:11575  .debug_ranges:0000000000000000 .Ldebug_ranges0
C:\Users\stapi\AppData\Local\Temp\ccLFD7qg.s:11645  .debug_line:0000000000000000 .Ldebug_line0
C:\Users\stapi\AppData\Local\Temp\ccLFD7qg.s:11659  .debug_str:0000000000000069 .LASF2
C:\Users\stapi\AppData\Local\Temp\ccLFD7qg.s:12205  .debug_str:000000000000182d .LASF0
C:\Users\stapi\AppData\Local\Temp\ccLFD7qg.s:11835  .debug_str:00000000000008c8 .LASF1
C:\Users\stapi\AppData\Local\Temp\ccLFD7qg.s:11757  .debug_str:0000000000000592 .LASF3
C:\Users\stapi\AppData\Local\Temp\ccLFD7qg.s:11871  .debug_str:0000000000000a17 .LASF4
C:\Users\stapi\AppData\Local\Temp\ccLFD7qg.s:12427  .debug_str:000000000000228a .LASF5
C:\Users\stapi\AppData\Local\Temp\ccLFD7qg.s:11941  .debug_str:0000000000000d22 .LASF6
C:\Users\stapi\AppData\Local\Temp\ccLFD7qg.s:12553  .debug_str:0000000000002807 .LASF7
C:\Users\stapi\AppData\Local\Temp\ccLFD7qg.s:12577  .debug_str:0000000000002907 .LASF8
C:\Users\stapi\AppData\Local\Temp\ccLFD7qg.s:11787  .debug_str:00000000000006bf .LASF9
C:\Users\stapi\AppData\Local\Temp\ccLFD7qg.s:12145  .debug_str:00000000000015d0 .LASF10
C:\Users\stapi\AppData\Local\Temp\ccLFD7qg.s:12077  .debug_str:0000000000001321 .LASF11
C:\Users\stapi\AppData\Local\Temp\ccLFD7qg.s:12147  .debug_str:00000000000015db .LASF12
C:\Users\stapi\AppData\Local\Temp\ccLFD7qg.s:12073  .debug_str:000000000000130f .LASF13
C:\Users\stapi\AppData\Local\Temp\ccLFD7qg.s:12321  .debug_str:0000000000001de4 .LASF14
C:\Users\stapi\AppData\Local\Temp\ccLFD7qg.s:11921  .debug_str:0000000000000c5e .LASF15
C:\Users\stapi\AppData\Local\Temp\ccLFD7qg.s:11841  .debug_str:00000000000008fd .LASF16
C:\Users\stapi\AppData\Local\Temp\ccLFD7qg.s:12331  .debug_str:0000000000001e50 .LASF17
C:\Users\stapi\AppData\Local\Temp\ccLFD7qg.s:11681  .debug_str:0000000000000217 .LASF18
C:\Users\stapi\AppData\Local\Temp\ccLFD7qg.s:12523  .debug_str:00000000000026b4 .LASF19
C:\Users\stapi\AppData\Local\Temp\ccLFD7qg.s:12433  .debug_str:00000000000022b8 .LASF20
C:\Users\stapi\AppData\Local\Temp\ccLFD7qg.s:11655  .debug_str:0000000000000041 .LASF225
C:\Users\stapi\AppData\Local\Temp\ccLFD7qg.s:12199  .debug_str:000000000000180b .LASF21
C:\Users\stapi\AppData\Local\Temp\ccLFD7qg.s:12419  .debug_str:000000000000223b .LASF22
C:\Users\stapi\AppData\Local\Temp\ccLFD7qg.s:12239  .debug_str:00000000000019e7 .LASF23
C:\Users\stapi\AppData\Local\Temp\ccLFD7qg.s:11663  .debug_str:000000000000008a .LASF479
C:\Users\stapi\AppData\Local\Temp\ccLFD7qg.s:11843  .debug_str:0000000000000905 .LASF24
C:\Users\stapi\AppData\Local\Temp\ccLFD7qg.s:12173  .debug_str:00000000000016df .LASF25
C:\Users\stapi\AppData\Local\Temp\ccLFD7qg.s:12267  .debug_str:0000000000001b61 .LASF26
C:\Users\stapi\AppData\Local\Temp\ccLFD7qg.s:11999  .debug_str:0000000000000f99 .LASF27
C:\Users\stapi\AppData\Local\Temp\ccLFD7qg.s:12515  .debug_str:0000000000002657 .LASF28
C:\Users\stapi\AppData\Local\Temp\ccLFD7qg.s:12139  .debug_str:0000000000001584 .LASF29
C:\Users\stapi\AppData\Local\Temp\ccLFD7qg.s:11649  .debug_str:0000000000000009 .LASF30
C:\Users\stapi\AppData\Local\Temp\ccLFD7qg.s:12373  .debug_str:000000000000200f .LASF31
C:\Users\stapi\AppData\Local\Temp\ccLFD7qg.s:12547  .debug_str:00000000000027e0 .LASF32
C:\Users\stapi\AppData\Local\Temp\ccLFD7qg.s:12397  .debug_str:0000000000002121 .LASF33
C:\Users\stapi\AppData\Local\Temp\ccLFD7qg.s:12341  .debug_str:0000000000001ea9 .LASF34
C:\Users\stapi\AppData\Local\Temp\ccLFD7qg.s:11935  .debug_str:0000000000000cd9 .LASF35
C:\Users\stapi\AppData\Local\Temp\ccLFD7qg.s:12271  .debug_str:0000000000001b97 .LASF36
C:\Users\stapi\AppData\Local\Temp\ccLFD7qg.s:12343  .debug_str:0000000000001eb8 .LASF37
C:\Users\stapi\AppData\Local\Temp\ccLFD7qg.s:12069  .debug_str:00000000000012ee .LASF38
C:\Users\stapi\AppData\Local\Temp\ccLFD7qg.s:12563  .debug_str:0000000000002859 .LASF39
C:\Users\stapi\AppData\Local\Temp\ccLFD7qg.s:12149  .debug_str:00000000000015e9 .LASF40
C:\Users\stapi\AppData\Local\Temp\ccLFD7qg.s:12305  .debug_str:0000000000001cfd .LASF41
C:\Users\stapi\AppData\Local\Temp\ccLFD7qg.s:11895  .debug_str:0000000000000b28 .LASF42
C:\Users\stapi\AppData\Local\Temp\ccLFD7qg.s:12403  .debug_str:000000000000215a .LASF43
C:\Users\stapi\AppData\Local\Temp\ccLFD7qg.s:11667  .debug_str:00000000000000aa .LASF44
C:\Users\stapi\AppData\Local\Temp\ccLFD7qg.s:11771  .debug_str:0000000000000617 .LASF45
C:\Users\stapi\AppData\Local\Temp\ccLFD7qg.s:12349  .debug_str:0000000000001f18 .LASF46
C:\Users\stapi\AppData\Local\Temp\ccLFD7qg.s:11883  .debug_str:0000000000000aa3 .LASF47
C:\Users\stapi\AppData\Local\Temp\ccLFD7qg.s:12063  .debug_str:00000000000012b8 .LASF48
C:\Users\stapi\AppData\Local\Temp\ccLFD7qg.s:12327  .debug_str:0000000000001e2f .LASF49
C:\Users\stapi\AppData\Local\Temp\ccLFD7qg.s:11699  .debug_str:00000000000002f4 .LASF50
C:\Users\stapi\AppData\Local\Temp\ccLFD7qg.s:12449  .debug_str:0000000000002367 .LASF51
C:\Users\stapi\AppData\Local\Temp\ccLFD7qg.s:12219  .debug_str:0000000000001939 .LASF52
C:\Users\stapi\AppData\Local\Temp\ccLFD7qg.s:11929  .debug_str:0000000000000c82 .LASF53
C:\Users\stapi\AppData\Local\Temp\ccLFD7qg.s:11797  .debug_str:000000000000070a .LASF54
C:\Users\stapi\AppData\Local\Temp\ccLFD7qg.s:11737  .debug_str:00000000000004d0 .LASF55
C:\Users\stapi\AppData\Local\Temp\ccLFD7qg.s:12303  .debug_str:0000000000001ce4 .LASF56
C:\Users\stapi\AppData\Local\Temp\ccLFD7qg.s:12477  .debug_str:0000000000002494 .LASF57
C:\Users\stapi\AppData\Local\Temp\ccLFD7qg.s:12289  .debug_str:0000000000001c49 .LASF58
C:\Users\stapi\AppData\Local\Temp\ccLFD7qg.s:11653  .debug_str:000000000000002a .LASF59
C:\Users\stapi\AppData\Local\Temp\ccLFD7qg.s:11715  .debug_str:00000000000003a4 .LASF60
C:\Users\stapi\AppData\Local\Temp\ccLFD7qg.s:11733  .debug_str:000000000000049f .LASF61
C:\Users\stapi\AppData\Local\Temp\ccLFD7qg.s:12311  .debug_str:0000000000001d7d .LASF62
C:\Users\stapi\AppData\Local\Temp\ccLFD7qg.s:11953  .debug_str:0000000000000d95 .LASF63
C:\Users\stapi\AppData\Local\Temp\ccLFD7qg.s:12143  .debug_str:00000000000015ae .LASF64
C:\Users\stapi\AppData\Local\Temp\ccLFD7qg.s:11803  .debug_str:000000000000075c .LASF65
C:\Users\stapi\AppData\Local\Temp\ccLFD7qg.s:12545  .debug_str:00000000000027c4 .LASF66
C:\Users\stapi\AppData\Local\Temp\ccLFD7qg.s:12567  .debug_str:000000000000288e .LASF67
C:\Users\stapi\AppData\Local\Temp\ccLFD7qg.s:12423  .debug_str:000000000000225d .LASF68
C:\Users\stapi\AppData\Local\Temp\ccLFD7qg.s:12525  .debug_str:00000000000026bd .LASF69
C:\Users\stapi\AppData\Local\Temp\ccLFD7qg.s:11879  .debug_str:0000000000000a73 .LASF70
C:\Users\stapi\AppData\Local\Temp\ccLFD7qg.s:11955  .debug_str:0000000000000db3 .LASF71
C:\Users\stapi\AppData\Local\Temp\ccLFD7qg.s:12247  .debug_str:0000000000001a50 .LASF72
C:\Users\stapi\AppData\Local\Temp\ccLFD7qg.s:12395  .debug_str:0000000000002109 .LASF73
C:\Users\stapi\AppData\Local\Temp\ccLFD7qg.s:11995  .debug_str:0000000000000f53 .LASF74
C:\Users\stapi\AppData\Local\Temp\ccLFD7qg.s:11849  .debug_str:0000000000000940 .LASF75
C:\Users\stapi\AppData\Local\Temp\ccLFD7qg.s:12357  .debug_str:0000000000001f87 .LASF76
C:\Users\stapi\AppData\Local\Temp\ccLFD7qg.s:11911  .debug_str:0000000000000bd7 .LASF77
C:\Users\stapi\AppData\Local\Temp\ccLFD7qg.s:11725  .debug_str:0000000000000458 .LASF78
C:\Users\stapi\AppData\Local\Temp\ccLFD7qg.s:12441  .debug_str:0000000000002314 .LASF79
C:\Users\stapi\AppData\Local\Temp\ccLFD7qg.s:12053  .debug_str:000000000000123f .LASF80
C:\Users\stapi\AppData\Local\Temp\ccLFD7qg.s:12049  .debug_str:0000000000001201 .LASF81
C:\Users\stapi\AppData\Local\Temp\ccLFD7qg.s:11889  .debug_str:0000000000000ae3 .LASF82
C:\Users\stapi\AppData\Local\Temp\ccLFD7qg.s:12409  .debug_str:0000000000002198 .LASF83
C:\Users\stapi\AppData\Local\Temp\ccLFD7qg.s:12437  .debug_str:00000000000022e7 .LASF84
C:\Users\stapi\AppData\Local\Temp\ccLFD7qg.s:12411  .debug_str:00000000000021b2 .LASF85
C:\Users\stapi\AppData\Local\Temp\ccLFD7qg.s:11831  .debug_str:000000000000088a .LASF86
C:\Users\stapi\AppData\Local\Temp\ccLFD7qg.s:12531  .debug_str:000000000000272c .LASF87
C:\Users\stapi\AppData\Local\Temp\ccLFD7qg.s:12527  .debug_str:00000000000026d9 .LASF88
C:\Users\stapi\AppData\Local\Temp\ccLFD7qg.s:12489  .debug_str:0000000000002507 .LASF89
C:\Users\stapi\AppData\Local\Temp\ccLFD7qg.s:12543  .debug_str:00000000000027a4 .LASF90
C:\Users\stapi\AppData\Local\Temp\ccLFD7qg.s:12183  .debug_str:0000000000001730 .LASF91
C:\Users\stapi\AppData\Local\Temp\ccLFD7qg.s:12195  .debug_str:00000000000017e7 .LASF92
C:\Users\stapi\AppData\Local\Temp\ccLFD7qg.s:12019  .debug_str:0000000000001084 .LASF93
C:\Users\stapi\AppData\Local\Temp\ccLFD7qg.s:11669  .debug_str:00000000000000ca .LASF94
C:\Users\stapi\AppData\Local\Temp\ccLFD7qg.s:12471  .debug_str:000000000000244c .LASF95
C:\Users\stapi\AppData\Local\Temp\ccLFD7qg.s:12273  .debug_str:0000000000001bb5 .LASF96
C:\Users\stapi\AppData\Local\Temp\ccLFD7qg.s:12051  .debug_str:000000000000121f .LASF97
C:\Users\stapi\AppData\Local\Temp\ccLFD7qg.s:12047  .debug_str:00000000000011e2 .LASF98
C:\Users\stapi\AppData\Local\Temp\ccLFD7qg.s:12157  .debug_str:0000000000001648 .LASF99
C:\Users\stapi\AppData\Local\Temp\ccLFD7qg.s:11711  .debug_str:000000000000036b .LASF100
C:\Users\stapi\AppData\Local\Temp\ccLFD7qg.s:12533  .debug_str:000000000000274f .LASF101
C:\Users\stapi\AppData\Local\Temp\ccLFD7qg.s:11789  .debug_str:00000000000006c8 .LASF102
C:\Users\stapi\AppData\Local\Temp\ccLFD7qg.s:12249  .debug_str:0000000000001a6b .LASF103
C:\Users\stapi\AppData\Local\Temp\ccLFD7qg.s:12509  .debug_str:0000000000002612 .LASF104
C:\Users\stapi\AppData\Local\Temp\ccLFD7qg.s:11691  .debug_str:000000000000028b .LASF105
C:\Users\stapi\AppData\Local\Temp\ccLFD7qg.s:12479  .debug_str:00000000000024b2 .LASF106
C:\Users\stapi\AppData\Local\Temp\ccLFD7qg.s:12539  .debug_str:0000000000002780 .LASF107
C:\Users\stapi\AppData\Local\Temp\ccLFD7qg.s:11661  .debug_str:0000000000000070 .LASF108
C:\Users\stapi\AppData\Local\Temp\ccLFD7qg.s:12135  .debug_str:0000000000001553 .LASF109
C:\Users\stapi\AppData\Local\Temp\ccLFD7qg.s:11801  .debug_str:000000000000073b .LASF110
C:\Users\stapi\AppData\Local\Temp\ccLFD7qg.s:12607  .debug_str:0000000000002a39 .LASF111
C:\Users\stapi\AppData\Local\Temp\ccLFD7qg.s:11813  .debug_str:00000000000007b1 .LASF112
C:\Users\stapi\AppData\Local\Temp\ccLFD7qg.s:12297  .debug_str:0000000000001ca3 .LASF113
C:\Users\stapi\AppData\Local\Temp\ccLFD7qg.s:12595  .debug_str:00000000000029cb .LASF114
C:\Users\stapi\AppData\Local\Temp\ccLFD7qg.s:12589  .debug_str:000000000000296f .LASF115
C:\Users\stapi\AppData\Local\Temp\ccLFD7qg.s:11793  .debug_str:00000000000006e8 .LASF116
C:\Users\stapi\AppData\Local\Temp\ccLFD7qg.s:12191  .debug_str:00000000000017ba .LASF117
C:\Users\stapi\AppData\Local\Temp\ccLFD7qg.s:12039  .debug_str:0000000000001173 .LASF118
C:\Users\stapi\AppData\Local\Temp\ccLFD7qg.s:11765  .debug_str:00000000000005c8 .LASF119
C:\Users\stapi\AppData\Local\Temp\ccLFD7qg.s:11917  .debug_str:0000000000000c24 .LASF120
C:\Users\stapi\AppData\Local\Temp\ccLFD7qg.s:11741  .debug_str:0000000000000512 .LASF121
C:\Users\stapi\AppData\Local\Temp\ccLFD7qg.s:11811  .debug_str:0000000000000799 .LASF122
C:\Users\stapi\AppData\Local\Temp\ccLFD7qg.s:12513  .debug_str:0000000000002643 .LASF123
C:\Users\stapi\AppData\Local\Temp\ccLFD7qg.s:11707  .debug_str:000000000000033a .LASF124
C:\Users\stapi\AppData\Local\Temp\ccLFD7qg.s:11657  .debug_str:0000000000000051 .LASF125
C:\Users\stapi\AppData\Local\Temp\ccLFD7qg.s:11827  .debug_str:0000000000000862 .LASF126
C:\Users\stapi\AppData\Local\Temp\ccLFD7qg.s:12519  .debug_str:0000000000002678 .LASF127
C:\Users\stapi\AppData\Local\Temp\ccLFD7qg.s:11769  .debug_str:00000000000005ff .LASF128
C:\Users\stapi\AppData\Local\Temp\ccLFD7qg.s:12035  .debug_str:0000000000001135 .LASF129
C:\Users\stapi\AppData\Local\Temp\ccLFD7qg.s:11673  .debug_str:00000000000000f8 .LASF130
C:\Users\stapi\AppData\Local\Temp\ccLFD7qg.s:11821  .debug_str:000000000000082c .LASF131
C:\Users\stapi\AppData\Local\Temp\ccLFD7qg.s:12445  .debug_str:0000000000002344 .LASF132
C:\Users\stapi\AppData\Local\Temp\ccLFD7qg.s:11991  .debug_str:0000000000000f22 .LASF133
C:\Users\stapi\AppData\Local\Temp\ccLFD7qg.s:12503  .debug_str:00000000000025a3 .LASF134
C:\Users\stapi\AppData\Local\Temp\ccLFD7qg.s:11933  .debug_str:0000000000000cc1 .LASF135
C:\Users\stapi\AppData\Local\Temp\ccLFD7qg.s:12507  .debug_str:00000000000025f7 .LASF136
C:\Users\stapi\AppData\Local\Temp\ccLFD7qg.s:12031  .debug_str:00000000000010fa .LASF137
C:\Users\stapi\AppData\Local\Temp\ccLFD7qg.s:11885  .debug_str:0000000000000abc .LASF138
C:\Users\stapi\AppData\Local\Temp\ccLFD7qg.s:11739  .debug_str:00000000000004eb .LASF139
C:\Users\stapi\AppData\Local\Temp\ccLFD7qg.s:12141  .debug_str:0000000000001596 .LASF140
C:\Users\stapi\AppData\Local\Temp\ccLFD7qg.s:12285  .debug_str:0000000000001c19 .LASF141
C:\Users\stapi\AppData\Local\Temp\ccLFD7qg.s:11951  .debug_str:0000000000000d7a .LASF142
C:\Users\stapi\AppData\Local\Temp\ccLFD7qg.s:12307  .debug_str:0000000000001d2e .LASF143
C:\Users\stapi\AppData\Local\Temp\ccLFD7qg.s:11901  .debug_str:0000000000000b70 .LASF144
C:\Users\stapi\AppData\Local\Temp\ccLFD7qg.s:12269  .debug_str:0000000000001b78 .LASF145
C:\Users\stapi\AppData\Local\Temp\ccLFD7qg.s:11773  .debug_str:0000000000000639 .LASF146
C:\Users\stapi\AppData\Local\Temp\ccLFD7qg.s:11749  .debug_str:0000000000000549 .LASF147
C:\Users\stapi\AppData\Local\Temp\ccLFD7qg.s:12021  .debug_str:00000000000010a5 .LASF148
C:\Users\stapi\AppData\Local\Temp\ccLFD7qg.s:12087  .debug_str:00000000000013ac .LASF149
C:\Users\stapi\AppData\Local\Temp\ccLFD7qg.s:12511  .debug_str:000000000000262c .LASF150
C:\Users\stapi\AppData\Local\Temp\ccLFD7qg.s:12587  .debug_str:0000000000002958 .LASF151
C:\Users\stapi\AppData\Local\Temp\ccLFD7qg.s:12165  .debug_str:0000000000001691 .LASF152
C:\Users\stapi\AppData\Local\Temp\ccLFD7qg.s:11817  .debug_str:00000000000007e9 .LASF153
C:\Users\stapi\AppData\Local\Temp\ccLFD7qg.s:12033  .debug_str:000000000000111b .LASF154
C:\Users\stapi\AppData\Local\Temp\ccLFD7qg.s:12363  .debug_str:0000000000001fad .LASF155
C:\Users\stapi\AppData\Local\Temp\ccLFD7qg.s:11721  .debug_str:000000000000040c .LASF156
C:\Users\stapi\AppData\Local\Temp\ccLFD7qg.s:12571  .debug_str:00000000000028b0 .LASF157
C:\Users\stapi\AppData\Local\Temp\ccLFD7qg.s:12459  .debug_str:00000000000023c3 .LASF158
C:\Users\stapi\AppData\Local\Temp\ccLFD7qg.s:11971  .debug_str:0000000000000e3a .LASF159
C:\Users\stapi\AppData\Local\Temp\ccLFD7qg.s:11855  .debug_str:0000000000000971 .LASF160
C:\Users\stapi\AppData\Local\Temp\ccLFD7qg.s:12501  .debug_str:000000000000257f .LASF161
C:\Users\stapi\AppData\Local\Temp\ccLFD7qg.s:12037  .debug_str:0000000000001152 .LASF162
C:\Users\stapi\AppData\Local\Temp\ccLFD7qg.s:12125  .debug_str:00000000000014f3 .LASF163
C:\Users\stapi\AppData\Local\Temp\ccLFD7qg.s:12155  .debug_str:0000000000001628 .LASF164
C:\Users\stapi\AppData\Local\Temp\ccLFD7qg.s:11713  .debug_str:0000000000000382 .LASF165
C:\Users\stapi\AppData\Local\Temp\ccLFD7qg.s:12461  .debug_str:00000000000023e4 .LASF166
C:\Users\stapi\AppData\Local\Temp\ccLFD7qg.s:12601  .debug_str:0000000000002a0a .LASF167
C:\Users\stapi\AppData\Local\Temp\ccLFD7qg.s:11931  .debug_str:0000000000000c9e .LASF168
C:\Users\stapi\AppData\Local\Temp\ccLFD7qg.s:12057  .debug_str:000000000000127a .LASF169
C:\Users\stapi\AppData\Local\Temp\ccLFD7qg.s:11697  .debug_str:00000000000002d1 .LASF170
C:\Users\stapi\AppData\Local\Temp\ccLFD7qg.s:12207  .debug_str:000000000000183a .LASF171
C:\Users\stapi\AppData\Local\Temp\ccLFD7qg.s:12323  .debug_str:0000000000001dfb .LASF172
C:\Users\stapi\AppData\Local\Temp\ccLFD7qg.s:12599  .debug_str:00000000000029ef .LASF173
C:\Users\stapi\AppData\Local\Temp\ccLFD7qg.s:12391  .debug_str:00000000000020c7 .LASF174
C:\Users\stapi\AppData\Local\Temp\ccLFD7qg.s:11875  .debug_str:0000000000000a41 .LASF175
C:\Users\stapi\AppData\Local\Temp\ccLFD7qg.s:12009  .debug_str:000000000000101e .LASF176
C:\Users\stapi\AppData\Local\Temp\ccLFD7qg.s:12413  .debug_str:00000000000021c7 .LASF177
C:\Users\stapi\AppData\Local\Temp\ccLFD7qg.s:12123  .debug_str:00000000000014d7 .LASF178
C:\Users\stapi\AppData\Local\Temp\ccLFD7qg.s:12241  .debug_str:00000000000019f3 .LASF179
C:\Users\stapi\AppData\Local\Temp\ccLFD7qg.s:11997  .debug_str:0000000000000f73 .LASF180
C:\Users\stapi\AppData\Local\Temp\ccLFD7qg.s:12353  .debug_str:0000000000001f5b .LASF181
C:\Users\stapi\AppData\Local\Temp\ccLFD7qg.s:12337  .debug_str:0000000000001e6a .LASF182
C:\Users\stapi\AppData\Local\Temp\ccLFD7qg.s:12451  .debug_str:0000000000002382 .LASF183
C:\Users\stapi\AppData\Local\Temp\ccLFD7qg.s:11815  .debug_str:00000000000007cc .LASF184
C:\Users\stapi\AppData\Local\Temp\ccLFD7qg.s:12081  .debug_str:000000000000134e .LASF185
C:\Users\stapi\AppData\Local\Temp\ccLFD7qg.s:12497  .debug_str:0000000000002548 .LASF186
C:\Users\stapi\AppData\Local\Temp\ccLFD7qg.s:12025  .debug_str:00000000000010c8 .LASF187
C:\Users\stapi\AppData\Local\Temp\ccLFD7qg.s:12611  .debug_str:0000000000002a6c .LASF188
C:\Users\stapi\AppData\Local\Temp\ccLFD7qg.s:11905  .debug_str:0000000000000b97 .LASF189
C:\Users\stapi\AppData\Local\Temp\ccLFD7qg.s:11687  .debug_str:000000000000025f .LASF190
C:\Users\stapi\AppData\Local\Temp\ccLFD7qg.s:12103  .debug_str:0000000000001434 .LASF191
C:\Users\stapi\AppData\Local\Temp\ccLFD7qg.s:11897  .debug_str:0000000000000b4f .LASF192
C:\Users\stapi\AppData\Local\Temp\ccLFD7qg.s:11829  .debug_str:000000000000087d .LASF193
C:\Users\stapi\AppData\Local\Temp\ccLFD7qg.s:12591  .debug_str:0000000000002985 .LASF194
C:\Users\stapi\AppData\Local\Temp\ccLFD7qg.s:12383  .debug_str:000000000000204b .LASF195
C:\Users\stapi\AppData\Local\Temp\ccLFD7qg.s:11723  .debug_str:000000000000042b .LASF196
C:\Users\stapi\AppData\Local\Temp\ccLFD7qg.s:12593  .debug_str:0000000000002999 .LASF197
C:\Users\stapi\AppData\Local\Temp\ccLFD7qg.s:12379  .debug_str:000000000000202c .LASF198
C:\Users\stapi\AppData\Local\Temp\ccLFD7qg.s:12211  .debug_str:0000000000001863 .LASF199
C:\Users\stapi\AppData\Local\Temp\ccLFD7qg.s:12133  .debug_str:0000000000001542 .LASF200
C:\Users\stapi\AppData\Local\Temp\ccLFD7qg.s:11709  .debug_str:000000000000035a .LASF201
C:\Users\stapi\AppData\Local\Temp\ccLFD7qg.s:11925  .debug_str:0000000000000c6a .LASF202
C:\Users\stapi\AppData\Local\Temp\ccLFD7qg.s:12551  .debug_str:00000000000027f6 .LASF203
C:\Users\stapi\AppData\Local\Temp\ccLFD7qg.s:12225  .debug_str:0000000000001960 .LASF204
C:\Users\stapi\AppData\Local\Temp\ccLFD7qg.s:12065  .debug_str:00000000000012cf .LASF205
C:\Users\stapi\AppData\Local\Temp\ccLFD7qg.s:12569  .debug_str:00000000000028a5 .LASF206
C:\Users\stapi\AppData\Local\Temp\ccLFD7qg.s:12405  .debug_str:0000000000002180 .LASF207
C:\Users\stapi\AppData\Local\Temp\ccLFD7qg.s:12581  .debug_str:000000000000292d .LASF208
C:\Users\stapi\AppData\Local\Temp\ccLFD7qg.s:12201  .debug_str:0000000000001810 .LASF209
C:\Users\stapi\AppData\Local\Temp\ccLFD7qg.s:12101  .debug_str:0000000000001425 .LASF210
C:\Users\stapi\AppData\Local\Temp\ccLFD7qg.s:11945  .debug_str:0000000000000d49 .LASF211
C:\Users\stapi\AppData\Local\Temp\ccLFD7qg.s:11719  .debug_str:00000000000003f5 .LASF212
C:\Users\stapi\AppData\Local\Temp\ccLFD7qg.s:12565  .debug_str:000000000000287b .LASF213
C:\Users\stapi\AppData\Local\Temp\ccLFD7qg.s:12439  .debug_str:0000000000002306 .LASF214
C:\Users\stapi\AppData\Local\Temp\ccLFD7qg.s:12597  .debug_str:00000000000029ea .LASF215
C:\Users\stapi\AppData\Local\Temp\ccLFD7qg.s:12381  .debug_str:000000000000203d .LASF216
C:\Users\stapi\AppData\Local\Temp\ccLFD7qg.s:12359  .debug_str:0000000000001f9f .LASF217
C:\Users\stapi\AppData\Local\Temp\ccLFD7qg.s:11729  .debug_str:0000000000000486 .LASF218
C:\Users\stapi\AppData\Local\Temp\ccLFD7qg.s:12071  .debug_str:0000000000001306 .LASF219
C:\Users\stapi\AppData\Local\Temp\ccLFD7qg.s:12377  .debug_str:0000000000002027 .LASF220
C:\Users\stapi\AppData\Local\Temp\ccLFD7qg.s:11671  .debug_str:00000000000000f2 .LASF221
C:\Users\stapi\AppData\Local\Temp\ccLFD7qg.s:12223  .debug_str:0000000000001952 .LASF222
C:\Users\stapi\AppData\Local\Temp\ccLFD7qg.s:12369  .debug_str:0000000000001ff6 .LASF223
C:\Users\stapi\AppData\Local\Temp\ccLFD7qg.s:12443  .debug_str:0000000000002338 .LASF480
C:\Users\stapi\AppData\Local\Temp\ccLFD7qg.s:12485  .debug_str:00000000000024ee .LASF224
C:\Users\stapi\AppData\Local\Temp\ccLFD7qg.s:11899  .debug_str:0000000000000b69 .LASF226
C:\Users\stapi\AppData\Local\Temp\ccLFD7qg.s:12541  .debug_str:000000000000279e .LASF227
C:\Users\stapi\AppData\Local\Temp\ccLFD7qg.s:12583  .debug_str:000000000000293e .LASF228
C:\Users\stapi\AppData\Local\Temp\ccLFD7qg.s:12355  .debug_str:0000000000001f7e .LASF229
C:\Users\stapi\AppData\Local\Temp\ccLFD7qg.s:12209  .debug_str:000000000000185a .LASF230
C:\Users\stapi\AppData\Local\Temp\ccLFD7qg.s:12371  .debug_str:0000000000002004 .LASF231
C:\Users\stapi\AppData\Local\Temp\ccLFD7qg.s:12117  .debug_str:00000000000014ae .LASF232
C:\Users\stapi\AppData\Local\Temp\ccLFD7qg.s:11907  .debug_str:0000000000000bb4 .LASF233
C:\Users\stapi\AppData\Local\Temp\ccLFD7qg.s:12283  .debug_str:0000000000001c14 .LASF234
C:\Users\stapi\AppData\Local\Temp\ccLFD7qg.s:12447  .debug_str:0000000000002362 .LASF235
C:\Users\stapi\AppData\Local\Temp\ccLFD7qg.s:12115  .debug_str:00000000000014a4 .LASF236
C:\Users\stapi\AppData\Local\Temp\ccLFD7qg.s:12295  .debug_str:0000000000001c90 .LASF237
C:\Users\stapi\AppData\Local\Temp\ccLFD7qg.s:12099  .debug_str:0000000000001413 .LASF238
C:\Users\stapi\AppData\Local\Temp\ccLFD7qg.s:12017  .debug_str:0000000000001071 .LASF239
C:\Users\stapi\AppData\Local\Temp\ccLFD7qg.s:11837  .debug_str:00000000000008d4 .LASF240
C:\Users\stapi\AppData\Local\Temp\ccLFD7qg.s:12281  .debug_str:0000000000001c07 .LASF241
C:\Users\stapi\AppData\Local\Temp\ccLFD7qg.s:12121  .debug_str:00000000000014d1 .LASF242
C:\Users\stapi\AppData\Local\Temp\ccLFD7qg.s:12091  .debug_str:00000000000013e1 .LASF243
C:\Users\stapi\AppData\Local\Temp\ccLFD7qg.s:12163  .debug_str:0000000000001688 .LASF244
C:\Users\stapi\AppData\Local\Temp\ccLFD7qg.s:12061  .debug_str:00000000000012b0 .LASF245
C:\Users\stapi\AppData\Local\Temp\ccLFD7qg.s:12491  .debug_str:000000000000252a .LASF246
C:\Users\stapi\AppData\Local\Temp\ccLFD7qg.s:12455  .debug_str:00000000000023a7 .LASF247
C:\Users\stapi\AppData\Local\Temp\ccLFD7qg.s:12067  .debug_str:00000000000012e0 .LASF248
C:\Users\stapi\AppData\Local\Temp\ccLFD7qg.s:12313  .debug_str:0000000000001d9b .LASF249
C:\Users\stapi\AppData\Local\Temp\ccLFD7qg.s:12043  .debug_str:00000000000011ad .LASF250
C:\Users\stapi\AppData\Local\Temp\ccLFD7qg.s:12237  .debug_str:00000000000019df .LASF251
C:\Users\stapi\AppData\Local\Temp\ccLFD7qg.s:12605  .debug_str:0000000000002a34 .LASF252
C:\Users\stapi\AppData\Local\Temp\ccLFD7qg.s:12277  .debug_str:0000000000001bde .LASF253
C:\Users\stapi\AppData\Local\Temp\ccLFD7qg.s:12221  .debug_str:000000000000194a .LASF254
C:\Users\stapi\AppData\Local\Temp\ccLFD7qg.s:11959  .debug_str:0000000000000dda .LASF255
C:\Users\stapi\AppData\Local\Temp\ccLFD7qg.s:12573  .debug_str:00000000000028c6 .LASF256
C:\Users\stapi\AppData\Local\Temp\ccLFD7qg.s:12615  .debug_str:0000000000002a9a .LASF257
C:\Users\stapi\AppData\Local\Temp\ccLFD7qg.s:12005  .debug_str:0000000000000fde .LASF258
C:\Users\stapi\AppData\Local\Temp\ccLFD7qg.s:11881  .debug_str:0000000000000a8c .LASF259
C:\Users\stapi\AppData\Local\Temp\ccLFD7qg.s:12389  .debug_str:00000000000020b0 .LASF260
C:\Users\stapi\AppData\Local\Temp\ccLFD7qg.s:11851  .debug_str:000000000000095b .LASF261
C:\Users\stapi\AppData\Local\Temp\ccLFD7qg.s:11915  .debug_str:0000000000000c0e .LASF262
C:\Users\stapi\AppData\Local\Temp\ccLFD7qg.s:12113  .debug_str:000000000000148a .LASF263
C:\Users\stapi\AppData\Local\Temp\ccLFD7qg.s:11705  .debug_str:0000000000000330 .LASF264
C:\Users\stapi\AppData\Local\Temp\ccLFD7qg.s:12107  .debug_str:000000000000144b .LASF265
C:\Users\stapi\AppData\Local\Temp\ccLFD7qg.s:12429  .debug_str:0000000000002294 .LASF266
C:\Users\stapi\AppData\Local\Temp\ccLFD7qg.s:12347  .debug_str:0000000000001ef8 .LASF267
C:\Users\stapi\AppData\Local\Temp\ccLFD7qg.s:11781  .debug_str:000000000000068c .LASF268
C:\Users\stapi\AppData\Local\Temp\ccLFD7qg.s:12231  .debug_str:00000000000019ac .LASF269
C:\Users\stapi\AppData\Local\Temp\ccLFD7qg.s:12467  .debug_str:0000000000002418 .LASF270
C:\Users\stapi\AppData\Local\Temp\ccLFD7qg.s:12159  .debug_str:000000000000165c .LASF271
C:\Users\stapi\AppData\Local\Temp\ccLFD7qg.s:12555  .debug_str:000000000000281a .LASF272
C:\Users\stapi\AppData\Local\Temp\ccLFD7qg.s:12487  .debug_str:00000000000024fa .LASF273
C:\Users\stapi\AppData\Local\Temp\ccLFD7qg.s:12233  .debug_str:00000000000019b5 .LASF274
C:\Users\stapi\AppData\Local\Temp\ccLFD7qg.s:11833  .debug_str:00000000000008a2 .LASF275
C:\Users\stapi\AppData\Local\Temp\ccLFD7qg.s:11693  .debug_str:00000000000002aa .LASF276
C:\Users\stapi\AppData\Local\Temp\ccLFD7qg.s:12213  .debug_str:0000000000001878 .LASF277
C:\Users\stapi\AppData\Local\Temp\ccLFD7qg.s:12055  .debug_str:000000000000125e .LASF278
C:\Users\stapi\AppData\Local\Temp\ccLFD7qg.s:11767  .debug_str:00000000000005e0 .LASF279
C:\Users\stapi\AppData\Local\Temp\ccLFD7qg.s:12109  .debug_str:0000000000001457 .LASF280
C:\Users\stapi\AppData\Local\Temp\ccLFD7qg.s:12013  .debug_str:0000000000001039 .LASF281
C:\Users\stapi\AppData\Local\Temp\ccLFD7qg.s:11819  .debug_str:000000000000080a .LASF282
C:\Users\stapi\AppData\Local\Temp\ccLFD7qg.s:12521  .debug_str:0000000000002690 .LASF283
C:\Users\stapi\AppData\Local\Temp\ccLFD7qg.s:12279  .debug_str:0000000000001be3 .LASF284
C:\Users\stapi\AppData\Local\Temp\ccLFD7qg.s:12175  .debug_str:00000000000016f1 .LASF285
C:\Users\stapi\AppData\Local\Temp\ccLFD7qg.s:11867  .debug_str:00000000000009e6 .LASF286
C:\Users\stapi\AppData\Local\Temp\ccLFD7qg.s:12339  .debug_str:0000000000001e80 .LASF287
C:\Users\stapi\AppData\Local\Temp\ccLFD7qg.s:11785  .debug_str:0000000000000698 .LASF288
C:\Users\stapi\AppData\Local\Temp\ccLFD7qg.s:12435  .debug_str:00000000000022c1 .LASF289
C:\Users\stapi\AppData\Local\Temp\ccLFD7qg.s:11975  .debug_str:0000000000000e72 .LASF290
C:\Users\stapi\AppData\Local\Temp\ccLFD7qg.s:11685  .debug_str:0000000000000230 .LASF291
C:\Users\stapi\AppData\Local\Temp\ccLFD7qg.s:12387  .debug_str:0000000000002085 .LASF292
C:\Users\stapi\AppData\Local\Temp\ccLFD7qg.s:12529  .debug_str:00000000000026f6 .LASF293
C:\Users\stapi\AppData\Local\Temp\ccLFD7qg.s:11977  .debug_str:0000000000000e98 .LASF294
C:\Users\stapi\AppData\Local\Temp\ccLFD7qg.s:12187  .debug_str:0000000000001759 .LASF295
C:\Users\stapi\AppData\Local\Temp\ccLFD7qg.s:12415  .debug_str:00000000000021ed .LASF296
C:\Users\stapi\AppData\Local\Temp\ccLFD7qg.s:12309  .debug_str:0000000000001d4b .LASF297
C:\Users\stapi\AppData\Local\Temp\ccLFD7qg.s:12189  .debug_str:000000000000178e .LASF298
C:\Users\stapi\AppData\Local\Temp\ccLFD7qg.s:12345  .debug_str:0000000000001ed0 .LASF299
C:\Users\stapi\AppData\Local\Temp\ccLFD7qg.s:12351  .debug_str:0000000000001f2b .LASF300
C:\Users\stapi\AppData\Local\Temp\ccLFD7qg.s:12505  .debug_str:00000000000025cb .LASF301
C:\Users\stapi\AppData\Local\Temp\ccLFD7qg.s:11717  .debug_str:00000000000003c2 .LASF302
C:\Users\stapi\AppData\Local\Temp\ccLFD7qg.s:11701  .debug_str:0000000000000312 .LASF303
C:\Users\stapi\AppData\Local\Temp\ccLFD7qg.s:11913  .debug_str:0000000000000bf3 .LASF304
C:\Users\stapi\AppData\Local\Temp\ccLFD7qg.s:12131  .debug_str:0000000000001527 .LASF305
C:\Users\stapi\AppData\Local\Temp\ccLFD7qg.s:12119  .debug_str:00000000000014b6 .LASF306
C:\Users\stapi\AppData\Local\Temp\ccLFD7qg.s:12079  .debug_str:0000000000001333 .LASF307
C:\Users\stapi\AppData\Local\Temp\ccLFD7qg.s:12293  .debug_str:0000000000001c77 .LASF308
C:\Users\stapi\AppData\Local\Temp\ccLFD7qg.s:12317  .debug_str:0000000000001dbd .LASF309
C:\Users\stapi\AppData\Local\Temp\ccLFD7qg.s:12469  .debug_str:0000000000002431 .LASF310
C:\Users\stapi\AppData\Local\Temp\ccLFD7qg.s:12475  .debug_str:0000000000002478 .LASF311
C:\Users\stapi\AppData\Local\Temp\ccLFD7qg.s:11839  .debug_str:00000000000008e2 .LASF312
C:\Users\stapi\AppData\Local\Temp\ccLFD7qg.s:11909  .debug_str:0000000000000bbc .LASF313
C:\Users\stapi\AppData\Local\Temp\ccLFD7qg.s:12007  .debug_str:0000000000000fff .LASF314
C:\Users\stapi\AppData\Local\Temp\ccLFD7qg.s:12041  .debug_str:0000000000001194 .LASF315
C:\Users\stapi\AppData\Local\Temp\ccLFD7qg.s:11965  .debug_str:0000000000000df4 .LASF316
C:\Users\stapi\AppData\Local\Temp\ccLFD7qg.s:11865  .debug_str:00000000000009c1 .LASF317
C:\Users\stapi\AppData\Local\Temp\ccLFD7qg.s:12421  .debug_str:0000000000002240 .LASF318
C:\Users\stapi\AppData\Local\Temp\ccLFD7qg.s:11937  .debug_str:0000000000000cf0 .LASF319
C:\Users\stapi\AppData\Local\Temp\ccLFD7qg.s:12401  .debug_str:0000000000002139 .LASF320
C:\Users\stapi\AppData\Local\Temp\ccLFD7qg.s:12001  .debug_str:0000000000000fb2 .LASF321
C:\Users\stapi\AppData\Local\Temp\ccLFD7qg.s:12045  .debug_str:00000000000011c4 .LASF322
C:\Users\stapi\AppData\Local\Temp\ccLFD7qg.s:12089  .debug_str:00000000000013c3 .LASF323
C:\Users\stapi\AppData\Local\Temp\ccLFD7qg.s:12245  .debug_str:0000000000001a2f .LASF324
C:\Users\stapi\AppData\Local\Temp\ccLFD7qg.s:11967  .debug_str:0000000000000e14 .LASF325
C:\Users\stapi\AppData\Local\Temp\ccLFD7qg.s:12399  .debug_str:0000000000002130 .LASF326
C:\Users\stapi\AppData\Local\Temp\ccLFD7qg.s:12315  .debug_str:0000000000001db4 .LASF327
C:\Users\stapi\AppData\Local\Temp\ccLFD7qg.s:12603  .debug_str:0000000000002a2b .LASF328
C:\Users\stapi\AppData\Local\Temp\ccLFD7qg.s:12287  .debug_str:0000000000001c39 .LASF329
C:\Users\stapi\AppData\Local\Temp\ccLFD7qg.s:12171  .debug_str:00000000000016ce .LASF330
C:\Users\stapi\AppData\Local\Temp\ccLFD7qg.s:12105  .debug_str:0000000000001441 .LASF331
C:\Users\stapi\AppData\Local\Temp\ccLFD7qg.s:11647  .debug_str:0000000000000000 .LASF332
C:\Users\stapi\AppData\Local\Temp\ccLFD7qg.s:12255  .debug_str:0000000000001a97 .LASF333
C:\Users\stapi\AppData\Local\Temp\ccLFD7qg.s:12011  .debug_str:0000000000001032 .LASF334
C:\Users\stapi\AppData\Local\Temp\ccLFD7qg.s:11745  .debug_str:0000000000000539 .LASF335
C:\Users\stapi\AppData\Local\Temp\ccLFD7qg.s:11857  .debug_str:0000000000000994 .LASF336
C:\Users\stapi\AppData\Local\Temp\ccLFD7qg.s:12499  .debug_str:0000000000002569 .LASF337
C:\Users\stapi\AppData\Local\Temp\ccLFD7qg.s:12535  .debug_str:0000000000002769 .LASF338
C:\Users\stapi\AppData\Local\Temp\ccLFD7qg.s:12193  .debug_str:00000000000017d2 .LASF339
C:\Users\stapi\AppData\Local\Temp\ccLFD7qg.s:11943  .debug_str:0000000000000d2d .LASF340
C:\Users\stapi\AppData\Local\Temp\ccLFD7qg.s:11969  .debug_str:0000000000000e25 .LASF341
C:\Users\stapi\AppData\Local\Temp\ccLFD7qg.s:12177  .debug_str:0000000000001716 .LASF342
C:\Users\stapi\AppData\Local\Temp\ccLFD7qg.s:12169  .debug_str:00000000000016bb .LASF343
C:\Users\stapi\AppData\Local\Temp\ccLFD7qg.s:11861  .debug_str:00000000000009ac .LASF344
C:\Users\stapi\AppData\Local\Temp\ccLFD7qg.s:11979  .debug_str:0000000000000ec8 .LASF345
C:\Users\stapi\AppData\Local\Temp\ccLFD7qg.s:11919  .debug_str:0000000000000c42 .LASF346
C:\Users\stapi\AppData\Local\Temp\ccLFD7qg.s:12609  .debug_str:0000000000002a5a .LASF347
C:\Users\stapi\AppData\Local\Temp\ccLFD7qg.s:11727  .debug_str:0000000000000477 .LASF348
C:\Users\stapi\AppData\Local\Temp\ccLFD7qg.s:12097  .debug_str:0000000000001402 .LASF349
C:\Users\stapi\AppData\Local\Temp\ccLFD7qg.s:11869  .debug_str:0000000000000a0e .LASF350
C:\Users\stapi\AppData\Local\Temp\ccLFD7qg.s:11947  .debug_str:0000000000000d5e .LASF351
C:\Users\stapi\AppData\Local\Temp\ccLFD7qg.s:11777  .debug_str:0000000000000663 .LASF352
C:\Users\stapi\AppData\Local\Temp\ccLFD7qg.s:11903  .debug_str:0000000000000b8b .LASF353
C:\Users\stapi\AppData\Local\Temp\ccLFD7qg.s:12217  .debug_str:000000000000192f .LASF354
C:\Users\stapi\AppData\Local\Temp\ccLFD7qg.s:11805  .debug_str:000000000000076f .LASF355
C:\Users\stapi\AppData\Local\Temp\ccLFD7qg.s:12151  .debug_str:0000000000001604 .LASF356
C:\Users\stapi\AppData\Local\Temp\ccLFD7qg.s:11961  .debug_str:0000000000000de1 .LASF357
C:\Users\stapi\AppData\Local\Temp\ccLFD7qg.s:11791  .debug_str:00000000000006e1 .LASF358
C:\Users\stapi\AppData\Local\Temp\ccLFD7qg.s:11823  .debug_str:0000000000000849 .LASF359
C:\Users\stapi\AppData\Local\Temp\ccLFD7qg.s:11755  .debug_str:0000000000000588 .LASF360
C:\Users\stapi\AppData\Local\Temp\ccLFD7qg.s:12465  .debug_str:000000000000240e .LASF361
C:\Users\stapi\AppData\Local\Temp\ccLFD7qg.s:11847  .debug_str:0000000000000935 .LASF362
C:\Users\stapi\AppData\Local\Temp\ccLFD7qg.s:12361  .debug_str:0000000000001fa7 .LASF363
C:\Users\stapi\AppData\Local\Temp\ccLFD7qg.s:11981  .debug_str:0000000000000ee4 .LASF364
C:\Users\stapi\AppData\Local\Temp\ccLFD7qg.s:12617  .debug_str:0000000000002ac8 .LASF365
C:\Users\stapi\AppData\Local\Temp\ccLFD7qg.s:12261  .debug_str:0000000000001ab3 .LASF366
C:\Users\stapi\AppData\Local\Temp\ccLFD7qg.s:12457  .debug_str:00000000000023b5 .LASF367
C:\Users\stapi\AppData\Local\Temp\ccLFD7qg.s:12537  .debug_str:0000000000002775 .LASF368
C:\Users\stapi\AppData\Local\Temp\ccLFD7qg.s:11761  .debug_str:00000000000005ad .LASF369
C:\Users\stapi\AppData\Local\Temp\ccLFD7qg.s:11695  .debug_str:00000000000002c6 .LASF370
C:\Users\stapi\AppData\Local\Temp\ccLFD7qg.s:12453  .debug_str:000000000000239a .LASF371
C:\Users\stapi\AppData\Local\Temp\ccLFD7qg.s:11859  .debug_str:00000000000009a4 .LASF372
C:\Users\stapi\AppData\Local\Temp\ccLFD7qg.s:12335  .debug_str:0000000000001e5f .LASF373
C:\Users\stapi\AppData\Local\Temp\ccLFD7qg.s:12613  .debug_str:0000000000002a92 .LASF374
C:\Users\stapi\AppData\Local\Temp\ccLFD7qg.s:12167  .debug_str:00000000000016b1 .LASF375
C:\Users\stapi\AppData\Local\Temp\ccLFD7qg.s:11983  .debug_str:0000000000000eed .LASF376
C:\Users\stapi\AppData\Local\Temp\ccLFD7qg.s:11759  .debug_str:000000000000059c .LASF377
C:\Users\stapi\AppData\Local\Temp\ccLFD7qg.s:11775  .debug_str:0000000000000656 .LASF378
C:\Users\stapi\AppData\Local\Temp\ccLFD7qg.s:11683  .debug_str:000000000000021f .LASF379
C:\Users\stapi\AppData\Local\Temp\ccLFD7qg.s:12127  .debug_str:0000000000001515 .LASF399
C:\Users\stapi\AppData\Local\Temp\ccLFD7qg.s:11665  .debug_str:000000000000009b .LASF381
C:\Users\stapi\AppData\Local\Temp\ccLFD7qg.s:12137  .debug_str:000000000000156b .LASF384
C:\Users\stapi\AppData\Local\Temp\ccLFD7qg.s:2880   .text.iotx_alcs_observe_notify:0000000000000000 .LFB39
C:\Users\stapi\AppData\Local\Temp\ccLFD7qg.s:2948   .text.iotx_alcs_observe_notify:0000000000000060 .LFE39
C:\Users\stapi\AppData\Local\Temp\ccLFD7qg.s:12299  .debug_str:0000000000001cc5 .LASF380
C:\Users\stapi\AppData\Local\Temp\ccLFD7qg.s:9967   .debug_loc:0000000000000000 .LLST68
C:\Users\stapi\AppData\Local\Temp\ccLFD7qg.s:9981   .debug_loc:0000000000000021 .LLST69
C:\Users\stapi\AppData\Local\Temp\ccLFD7qg.s:9995   .debug_loc:0000000000000042 .LLST70
C:\Users\stapi\AppData\Local\Temp\ccLFD7qg.s:10014  .debug_loc:000000000000006f .LLST71
C:\Users\stapi\AppData\Local\Temp\ccLFD7qg.s:10028  .debug_loc:0000000000000090 .LLST72
C:\Users\stapi\AppData\Local\Temp\ccLFD7qg.s:11927  .debug_str:0000000000000c7a .LASF382
C:\Users\stapi\AppData\Local\Temp\ccLFD7qg.s:10049  .debug_loc:00000000000000c6 .LLST73
C:\Users\stapi\AppData\Local\Temp\ccLFD7qg.s:11957  .debug_str:0000000000000dcd .LASF383
C:\Users\stapi\AppData\Local\Temp\ccLFD7qg.s:2909   .text.iotx_alcs_observe_notify:000000000000001a .LVL333
C:\Users\stapi\AppData\Local\Temp\ccLFD7qg.s:2922   .text.iotx_alcs_observe_notify:0000000000000030 .LVL336
C:\Users\stapi\AppData\Local\Temp\ccLFD7qg.s:2928   .text.iotx_alcs_observe_notify:0000000000000042 .LVL337
C:\Users\stapi\AppData\Local\Temp\ccLFD7qg.s:2933   .text.iotx_alcs_observe_notify:0000000000000052 .LVL338
C:\Users\stapi\AppData\Local\Temp\ccLFD7qg.s:12579  .debug_str:0000000000002911 .LASF385
C:\Users\stapi\AppData\Local\Temp\ccLFD7qg.s:2589   .text.iotx_alcs_register_resource:0000000000000000 .LFB38
C:\Users\stapi\AppData\Local\Temp\ccLFD7qg.s:2869   .text.iotx_alcs_register_resource:00000000000001fe .LFE38
C:\Users\stapi\AppData\Local\Temp\ccLFD7qg.s:10063  .debug_loc:00000000000000e7 .LLST61
C:\Users\stapi\AppData\Local\Temp\ccLFD7qg.s:11993  .debug_str:0000000000000f4a .LASF386
C:\Users\stapi\AppData\Local\Temp\ccLFD7qg.s:10074  .debug_loc:0000000000000105 .LLST62
C:\Users\stapi\AppData\Local\Temp\ccLFD7qg.s:10085  .debug_loc:0000000000000123 .LLST63
C:\Users\stapi\AppData\Local\Temp\ccLFD7qg.s:10116  .debug_loc:0000000000000172 .LLST64
C:\Users\stapi\AppData\Local\Temp\ccLFD7qg.s:12227  .debug_str:000000000000197a .LASF387
C:\Users\stapi\AppData\Local\Temp\ccLFD7qg.s:12557  .debug_str:000000000000281f .LASF388
C:\Users\stapi\AppData\Local\Temp\ccLFD7qg.s:12549  .debug_str:00000000000027ef .LASF389
C:\Users\stapi\AppData\Local\Temp\ccLFD7qg.s:10127  .debug_loc:0000000000000190 .LLST65
C:\Users\stapi\AppData\Local\Temp\ccLFD7qg.s:12179  .debug_str:000000000000171c .LASF390
C:\Users\stapi\AppData\Local\Temp\ccLFD7qg.s:10153  .debug_loc:00000000000001d2 .LLST66
C:\Users\stapi\AppData\Local\Temp\ccLFD7qg.s:12029  .debug_str:00000000000010ef .LASF391
C:\Users\stapi\AppData\Local\Temp\ccLFD7qg.s:11853  .debug_str:0000000000000966 .LASF392
C:\Users\stapi\AppData\Local\Temp\ccLFD7qg.s:11795  .debug_str:0000000000000701 .LASF393
C:\Users\stapi\AppData\Local\Temp\ccLFD7qg.s:10187  .debug_loc:000000000000022a .LLST67
C:\Users\stapi\AppData\Local\Temp\ccLFD7qg.s:2631   .text.iotx_alcs_register_resource:000000000000002c .LVL296
C:\Users\stapi\AppData\Local\Temp\ccLFD7qg.s:2649   .text.iotx_alcs_register_resource:000000000000004c .LVL297
C:\Users\stapi\AppData\Local\Temp\ccLFD7qg.s:2659   .text.iotx_alcs_register_resource:0000000000000066 .LVL298
C:\Users\stapi\AppData\Local\Temp\ccLFD7qg.s:2663   .text.iotx_alcs_register_resource:0000000000000072 .LVL299
C:\Users\stapi\AppData\Local\Temp\ccLFD7qg.s:2696   .text.iotx_alcs_register_resource:0000000000000096 .LVL302
C:\Users\stapi\AppData\Local\Temp\ccLFD7qg.s:2713   .text.iotx_alcs_register_resource:00000000000000b8 .LVL303
C:\Users\stapi\AppData\Local\Temp\ccLFD7qg.s:2723   .text.iotx_alcs_register_resource:00000000000000d2 .LVL304
C:\Users\stapi\AppData\Local\Temp\ccLFD7qg.s:2729   .text.iotx_alcs_register_resource:00000000000000de .LVL305
C:\Users\stapi\AppData\Local\Temp\ccLFD7qg.s:2745   .text.iotx_alcs_register_resource:00000000000000f8 .LVL307
C:\Users\stapi\AppData\Local\Temp\ccLFD7qg.s:2759   .text.iotx_alcs_register_resource:0000000000000116 .LVL308
C:\Users\stapi\AppData\Local\Temp\ccLFD7qg.s:2768   .text.iotx_alcs_register_resource:0000000000000126 .LVL311
C:\Users\stapi\AppData\Local\Temp\ccLFD7qg.s:2793   .text.iotx_alcs_register_resource:0000000000000154 .LVL314
C:\Users\stapi\AppData\Local\Temp\ccLFD7qg.s:2798   .text.iotx_alcs_register_resource:0000000000000164 .LVL315
C:\Users\stapi\AppData\Local\Temp\ccLFD7qg.s:2808   .text.iotx_alcs_register_resource:0000000000000172 .LVL318
C:\Users\stapi\AppData\Local\Temp\ccLFD7qg.s:2814   .text.iotx_alcs_register_resource:0000000000000180 .LVL319
C:\Users\stapi\AppData\Local\Temp\ccLFD7qg.s:2820   .text.iotx_alcs_register_resource:0000000000000190 .LVL320
C:\Users\stapi\AppData\Local\Temp\ccLFD7qg.s:2826   .text.iotx_alcs_register_resource:00000000000001a2 .LVL321
C:\Users\stapi\AppData\Local\Temp\ccLFD7qg.s:2830   .text.iotx_alcs_register_resource:00000000000001ae .LVL322
C:\Users\stapi\AppData\Local\Temp\ccLFD7qg.s:2847   .text.iotx_alcs_register_resource:00000000000001d2 .LVL324
C:\Users\stapi\AppData\Local\Temp\ccLFD7qg.s:2860   .text.iotx_alcs_register_resource:00000000000001ea .LVL327
C:\Users\stapi\AppData\Local\Temp\ccLFD7qg.s:2866   .text.iotx_alcs_register_resource:00000000000001fc .LVL328
C:\Users\stapi\AppData\Local\Temp\ccLFD7qg.s:12393  .debug_str:00000000000020f1 .LASF394
C:\Users\stapi\AppData\Local\Temp\ccLFD7qg.s:1946   .text.iotx_alcs_send_Response:0000000000000000 .LFB37
C:\Users\stapi\AppData\Local\Temp\ccLFD7qg.s:2572   .text.iotx_alcs_send_Response:0000000000000454 .LFE37
C:\Users\stapi\AppData\Local\Temp\ccLFD7qg.s:10195  .debug_loc:000000000000023e .LLST51
C:\Users\stapi\AppData\Local\Temp\ccLFD7qg.s:10241  .debug_loc:00000000000002b7 .LLST52
C:\Users\stapi\AppData\Local\Temp\ccLFD7qg.s:10274  .debug_loc:0000000000000307 .LLST53
C:\Users\stapi\AppData\Local\Temp\ccLFD7qg.s:10376  .debug_loc:00000000000003f0 .LLST54
C:\Users\stapi\AppData\Local\Temp\ccLFD7qg.s:10493  .debug_loc:00000000000004fd .LLST55
C:\Users\stapi\AppData\Local\Temp\ccLFD7qg.s:10523  .debug_loc:000000000000054a .LLST56
C:\Users\stapi\AppData\Local\Temp\ccLFD7qg.s:11825  .debug_str:0000000000000859 .LASF395
C:\Users\stapi\AppData\Local\Temp\ccLFD7qg.s:12325  .debug_str:0000000000001e21 .LASF396
C:\Users\stapi\AppData\Local\Temp\ccLFD7qg.s:12181  .debug_str:0000000000001723 .LASF397
C:\Users\stapi\AppData\Local\Temp\ccLFD7qg.s:12375  .debug_str:0000000000002020 .LASF398
C:\Users\stapi\AppData\Local\Temp\ccLFD7qg.s:10569  .debug_loc:00000000000005c3 .LLST57
C:\Users\stapi\AppData\Local\Temp\ccLFD7qg.s:10585  .debug_loc:00000000000005ed .LLST58
C:\Users\stapi\AppData\Local\Temp\ccLFD7qg.s:12483  .debug_str:00000000000024d2 .LASF400
C:\Users\stapi\AppData\Local\Temp\ccLFD7qg.s:2464   .text.iotx_alcs_send_Response:0000000000000374 .LBB49
C:\Users\stapi\AppData\Local\Temp\ccLFD7qg.s:2558   .text.iotx_alcs_send_Response:000000000000043c .LBE49
C:\Users\stapi\AppData\Local\Temp\ccLFD7qg.s:11703  .debug_str:000000000000032b .LASF401
C:\Users\stapi\AppData\Local\Temp\ccLFD7qg.s:12129  .debug_str:000000000000151d .LASF402
C:\Users\stapi\AppData\Local\Temp\ccLFD7qg.s:10609  .debug_loc:000000000000062d .LLST59
C:\Users\stapi\AppData\Local\Temp\ccLFD7qg.s:12333  .debug_str:0000000000001e59 .LASF403
C:\Users\stapi\AppData\Local\Temp\ccLFD7qg.s:10616  .debug_loc:0000000000000640 .LLST60
C:\Users\stapi\AppData\Local\Temp\ccLFD7qg.s:2477   .text.iotx_alcs_send_Response:000000000000038c .LVL277
C:\Users\stapi\AppData\Local\Temp\ccLFD7qg.s:2481   .text.iotx_alcs_send_Response:0000000000000396 .LVL278
C:\Users\stapi\AppData\Local\Temp\ccLFD7qg.s:2485   .text.iotx_alcs_send_Response:00000000000003a0 .LVL279
C:\Users\stapi\AppData\Local\Temp\ccLFD7qg.s:2494   .text.iotx_alcs_send_Response:00000000000003ba .LVL280
C:\Users\stapi\AppData\Local\Temp\ccLFD7qg.s:2499   .text.iotx_alcs_send_Response:00000000000003c4 .LVL281
C:\Users\stapi\AppData\Local\Temp\ccLFD7qg.s:2506   .text.iotx_alcs_send_Response:00000000000003d4 .LVL282
C:\Users\stapi\AppData\Local\Temp\ccLFD7qg.s:2523   .text.iotx_alcs_send_Response:00000000000003f6 .LVL284
C:\Users\stapi\AppData\Local\Temp\ccLFD7qg.s:2535   .text.iotx_alcs_send_Response:0000000000000406 .LVL286
C:\Users\stapi\AppData\Local\Temp\ccLFD7qg.s:2543   .text.iotx_alcs_send_Response:0000000000000418 .LVL287
C:\Users\stapi\AppData\Local\Temp\ccLFD7qg.s:2550   .text.iotx_alcs_send_Response:000000000000042c .LVL288
C:\Users\stapi\AppData\Local\Temp\ccLFD7qg.s:2555   .text.iotx_alcs_send_Response:000000000000043c .LVL289
C:\Users\stapi\AppData\Local\Temp\ccLFD7qg.s:2461   .text.iotx_alcs_send_Response:0000000000000372 .LVL276
C:\Users\stapi\AppData\Local\Temp\ccLFD7qg.s:2568   .text.iotx_alcs_send_Response:0000000000000452 .LVL290
C:\Users\stapi\AppData\Local\Temp\ccLFD7qg.s:1980   .text.iotx_alcs_send_Response:000000000000001c .LVL214
C:\Users\stapi\AppData\Local\Temp\ccLFD7qg.s:1990   .text.iotx_alcs_send_Response:0000000000000036 .LVL215
C:\Users\stapi\AppData\Local\Temp\ccLFD7qg.s:1995   .text.iotx_alcs_send_Response:0000000000000046 .LVL216
C:\Users\stapi\AppData\Local\Temp\ccLFD7qg.s:2032   .text.iotx_alcs_send_Response:000000000000006e .LVL220
C:\Users\stapi\AppData\Local\Temp\ccLFD7qg.s:2052   .text.iotx_alcs_send_Response:0000000000000090 .LVL224
C:\Users\stapi\AppData\Local\Temp\ccLFD7qg.s:2071   .text.iotx_alcs_send_Response:00000000000000b4 .LVL227
C:\Users\stapi\AppData\Local\Temp\ccLFD7qg.s:2090   .text.iotx_alcs_send_Response:00000000000000d4 .LVL230
C:\Users\stapi\AppData\Local\Temp\ccLFD7qg.s:2102   .text.iotx_alcs_send_Response:00000000000000ee .LVL231
C:\Users\stapi\AppData\Local\Temp\ccLFD7qg.s:2109   .text.iotx_alcs_send_Response:00000000000000fe .LVL232
C:\Users\stapi\AppData\Local\Temp\ccLFD7qg.s:2125   .text.iotx_alcs_send_Response:0000000000000118 .LVL234
C:\Users\stapi\AppData\Local\Temp\ccLFD7qg.s:2147   .text.iotx_alcs_send_Response:0000000000000140 .LVL236
C:\Users\stapi\AppData\Local\Temp\ccLFD7qg.s:2163   .text.iotx_alcs_send_Response:0000000000000162 .LVL238
C:\Users\stapi\AppData\Local\Temp\ccLFD7qg.s:2184   .text.iotx_alcs_send_Response:0000000000000184 .LVL240
C:\Users\stapi\AppData\Local\Temp\ccLFD7qg.s:2193   .text.iotx_alcs_send_Response:000000000000019a .LVL241
C:\Users\stapi\AppData\Local\Temp\ccLFD7qg.s:2198   .text.iotx_alcs_send_Response:00000000000001aa .LVL242
C:\Users\stapi\AppData\Local\Temp\ccLFD7qg.s:2203   .text.iotx_alcs_send_Response:00000000000001ba .LVL243
C:\Users\stapi\AppData\Local\Temp\ccLFD7qg.s:2214   .text.iotx_alcs_send_Response:00000000000001cc .LVL244
C:\Users\stapi\AppData\Local\Temp\ccLFD7qg.s:2239   .text.iotx_alcs_send_Response:00000000000001ee .LVL245
C:\Users\stapi\AppData\Local\Temp\ccLFD7qg.s:2246   .text.iotx_alcs_send_Response:00000000000001fc .LVL246
C:\Users\stapi\AppData\Local\Temp\ccLFD7qg.s:2256   .text.iotx_alcs_send_Response:000000000000020e .LVL248
C:\Users\stapi\AppData\Local\Temp\ccLFD7qg.s:2264   .text.iotx_alcs_send_Response:000000000000021e .LVL250
C:\Users\stapi\AppData\Local\Temp\ccLFD7qg.s:2285   .text.iotx_alcs_send_Response:000000000000023a .LVL253
C:\Users\stapi\AppData\Local\Temp\ccLFD7qg.s:2290   .text.iotx_alcs_send_Response:0000000000000248 .LVL254
C:\Users\stapi\AppData\Local\Temp\ccLFD7qg.s:2319   .text.iotx_alcs_send_Response:0000000000000272 .LVL255
C:\Users\stapi\AppData\Local\Temp\ccLFD7qg.s:2338   .text.iotx_alcs_send_Response:000000000000028e .LVL256
C:\Users\stapi\AppData\Local\Temp\ccLFD7qg.s:2344   .text.iotx_alcs_send_Response:000000000000029a .LVL257
C:\Users\stapi\AppData\Local\Temp\ccLFD7qg.s:2353   .text.iotx_alcs_send_Response:00000000000002aa .LVL260
C:\Users\stapi\AppData\Local\Temp\ccLFD7qg.s:2378   .text.iotx_alcs_send_Response:00000000000002d8 .LVL263
C:\Users\stapi\AppData\Local\Temp\ccLFD7qg.s:2391   .text.iotx_alcs_send_Response:00000000000002f0 .LVL266
C:\Users\stapi\AppData\Local\Temp\ccLFD7qg.s:2399   .text.iotx_alcs_send_Response:0000000000000302 .LVL268
C:\Users\stapi\AppData\Local\Temp\ccLFD7qg.s:2412   .text.iotx_alcs_send_Response:0000000000000314 .LVL269
C:\Users\stapi\AppData\Local\Temp\ccLFD7qg.s:2424   .text.iotx_alcs_send_Response:000000000000032c .LVL270
C:\Users\stapi\AppData\Local\Temp\ccLFD7qg.s:2434   .text.iotx_alcs_send_Response:0000000000000338 .LVL272
C:\Users\stapi\AppData\Local\Temp\ccLFD7qg.s:2443   .text.iotx_alcs_send_Response:000000000000034c .LVL273
C:\Users\stapi\AppData\Local\Temp\ccLFD7qg.s:2449   .text.iotx_alcs_send_Response:000000000000035e .LVL274
C:\Users\stapi\AppData\Local\Temp\ccLFD7qg.s:12111  .debug_str:000000000000147b .LASF404
C:\Users\stapi\AppData\Local\Temp\ccLFD7qg.s:1901   .text.iotx_alcs_send:0000000000000000 .LFB36
C:\Users\stapi\AppData\Local\Temp\ccLFD7qg.s:1911   .text.iotx_alcs_send:0000000000000004 .LFE36
C:\Users\stapi\AppData\Local\Temp\ccLFD7qg.s:10623  .debug_loc:0000000000000653 .LLST50
C:\Users\stapi\AppData\Local\Temp\ccLFD7qg.s:12365  .debug_str:0000000000001fc1 .LASF405
C:\Users\stapi\AppData\Local\Temp\ccLFD7qg.s:1783   .text.iotx_alcs_yield:0000000000000000 .LFB35
C:\Users\stapi\AppData\Local\Temp\ccLFD7qg.s:1894   .text.iotx_alcs_yield:000000000000009a .LFE35
C:\Users\stapi\AppData\Local\Temp\ccLFD7qg.s:10637  .debug_loc:0000000000000674 .LLST47
C:\Users\stapi\AppData\Local\Temp\ccLFD7qg.s:10659  .debug_loc:00000000000006ab .LLST48
C:\Users\stapi\AppData\Local\Temp\ccLFD7qg.s:1854   .text.iotx_alcs_yield:0000000000000070 .LBB46
C:\Users\stapi\AppData\Local\Temp\ccLFD7qg.s:1885   .text.iotx_alcs_yield:000000000000008e .LBE46
C:\Users\stapi\AppData\Local\Temp\ccLFD7qg.s:10681  .debug_loc:00000000000006e2 .LLST49
C:\Users\stapi\AppData\Local\Temp\ccLFD7qg.s:1803   .text.iotx_alcs_yield:000000000000001a .LVL199
C:\Users\stapi\AppData\Local\Temp\ccLFD7qg.s:1813   .text.iotx_alcs_yield:0000000000000034 .LVL200
C:\Users\stapi\AppData\Local\Temp\ccLFD7qg.s:1818   .text.iotx_alcs_yield:0000000000000044 .LVL201
C:\Users\stapi\AppData\Local\Temp\ccLFD7qg.s:1844   .text.iotx_alcs_yield:0000000000000064 .LVL204
C:\Users\stapi\AppData\Local\Temp\ccLFD7qg.s:1888   .text.iotx_alcs_yield:0000000000000096 .LVL208
C:\Users\stapi\AppData\Local\Temp\ccLFD7qg.s:11689  .debug_str:000000000000027c .LASF417
C:\Users\stapi\AppData\Local\Temp\ccLFD7qg.s:12095  .debug_str:00000000000013f0 .LASF406
C:\Users\stapi\AppData\Local\Temp\ccLFD7qg.s:1694   .text.iotx_alcs_destroy:0000000000000000 .LFB33
C:\Users\stapi\AppData\Local\Temp\ccLFD7qg.s:1769   .text.iotx_alcs_destroy:000000000000007c .LFE33
C:\Users\stapi\AppData\Local\Temp\ccLFD7qg.s:12259  .debug_str:0000000000001aab .LASF407
C:\Users\stapi\AppData\Local\Temp\ccLFD7qg.s:10688  .debug_loc:00000000000006f5 .LLST46
C:\Users\stapi\AppData\Local\Temp\ccLFD7qg.s:1711   .text.iotx_alcs_destroy:000000000000001a .LVL189
C:\Users\stapi\AppData\Local\Temp\ccLFD7qg.s:1721   .text.iotx_alcs_destroy:0000000000000034 .LVL190
C:\Users\stapi\AppData\Local\Temp\ccLFD7qg.s:1726   .text.iotx_alcs_destroy:0000000000000044 .LVL191
C:\Users\stapi\AppData\Local\Temp\ccLFD7qg.s:1753   .text.iotx_alcs_destroy:0000000000000064 .LVL194
C:\Users\stapi\AppData\Local\Temp\ccLFD7qg.s:1763   .text.iotx_alcs_destroy:0000000000000078 .LVL195
C:\Users\stapi\AppData\Local\Temp\ccLFD7qg.s:11779  .debug_str:0000000000000677 .LASF408
C:\Users\stapi\AppData\Local\Temp\ccLFD7qg.s:1500   .text.iotx_alcs_cloud_init:0000000000000000 .LFB32
C:\Users\stapi\AppData\Local\Temp\ccLFD7qg.s:1680   .text.iotx_alcs_cloud_init:0000000000000128 .LFE32
C:\Users\stapi\AppData\Local\Temp\ccLFD7qg.s:10710  .debug_loc:000000000000072c .LLST44
C:\Users\stapi\AppData\Local\Temp\ccLFD7qg.s:10721  .debug_loc:000000000000074a .LLST45
C:\Users\stapi\AppData\Local\Temp\ccLFD7qg.s:11939  .debug_str:0000000000000d16 .LASF409
C:\Users\stapi\AppData\Local\Temp\ccLFD7qg.s:12023  .debug_str:00000000000010bc .LASF410
C:\Users\stapi\AppData\Local\Temp\ccLFD7qg.s:1524   .text.iotx_alcs_cloud_init:000000000000001c .LVL167
C:\Users\stapi\AppData\Local\Temp\ccLFD7qg.s:1529   .text.iotx_alcs_cloud_init:000000000000002c .LVL168
C:\Users\stapi\AppData\Local\Temp\ccLFD7qg.s:1534   .text.iotx_alcs_cloud_init:000000000000003c .LVL169
C:\Users\stapi\AppData\Local\Temp\ccLFD7qg.s:1560   .text.iotx_alcs_cloud_init:0000000000000062 .LVL170
C:\Users\stapi\AppData\Local\Temp\ccLFD7qg.s:1575   .text.iotx_alcs_cloud_init:000000000000007a .LVL171
C:\Users\stapi\AppData\Local\Temp\ccLFD7qg.s:1585   .text.iotx_alcs_cloud_init:000000000000008a .LVL173
C:\Users\stapi\AppData\Local\Temp\ccLFD7qg.s:1591   .text.iotx_alcs_cloud_init:000000000000009a .LVL174
C:\Users\stapi\AppData\Local\Temp\ccLFD7qg.s:1598   .text.iotx_alcs_cloud_init:00000000000000aa .LVL175
C:\Users\stapi\AppData\Local\Temp\ccLFD7qg.s:1602   .text.iotx_alcs_cloud_init:00000000000000b6 .LVL176
C:\Users\stapi\AppData\Local\Temp\ccLFD7qg.s:1627   .text.iotx_alcs_cloud_init:00000000000000cc .LVL179
C:\Users\stapi\AppData\Local\Temp\ccLFD7qg.s:1637   .text.iotx_alcs_cloud_init:00000000000000dc .LVL181
C:\Users\stapi\AppData\Local\Temp\ccLFD7qg.s:1643   .text.iotx_alcs_cloud_init:00000000000000ec .LVL182
C:\Users\stapi\AppData\Local\Temp\ccLFD7qg.s:1657   .text.iotx_alcs_cloud_init:0000000000000104 .LVL185
C:\Users\stapi\AppData\Local\Temp\ccLFD7qg.s:1665   .text.iotx_alcs_cloud_init:0000000000000116 .LVL186
C:\Users\stapi\AppData\Local\Temp\ccLFD7qg.s:12015  .debug_str:000000000000105d .LASF411
C:\Users\stapi\AppData\Local\Temp\ccLFD7qg.s:1332   .text.iotx_alcs_construct:0000000000000000 .LFB31
C:\Users\stapi\AppData\Local\Temp\ccLFD7qg.s:1486   .text.iotx_alcs_construct:0000000000000130 .LFE31
C:\Users\stapi\AppData\Local\Temp\ccLFD7qg.s:12075  .debug_str:000000000000131a .LASF412
C:\Users\stapi\AppData\Local\Temp\ccLFD7qg.s:10761  .debug_loc:00000000000007a8 .LLST42
C:\Users\stapi\AppData\Local\Temp\ccLFD7qg.s:10772  .debug_loc:00000000000007c6 .LLST43
C:\Users\stapi\AppData\Local\Temp\ccLFD7qg.s:1351   .text.iotx_alcs_construct:000000000000001a .LVL148
C:\Users\stapi\AppData\Local\Temp\ccLFD7qg.s:1356   .text.iotx_alcs_construct:000000000000002a .LVL149
C:\Users\stapi\AppData\Local\Temp\ccLFD7qg.s:1361   .text.iotx_alcs_construct:000000000000003a .LVL150
C:\Users\stapi\AppData\Local\Temp\ccLFD7qg.s:1374   .text.iotx_alcs_construct:000000000000004c .LVL151
C:\Users\stapi\AppData\Local\Temp\ccLFD7qg.s:1384   .text.iotx_alcs_construct:0000000000000066 .LVL152
C:\Users\stapi\AppData\Local\Temp\ccLFD7qg.s:1390   .text.iotx_alcs_construct:0000000000000072 .LVL153
C:\Users\stapi\AppData\Local\Temp\ccLFD7qg.s:1408   .text.iotx_alcs_construct:000000000000008a .LVL155
C:\Users\stapi\AppData\Local\Temp\ccLFD7qg.s:1416   .text.iotx_alcs_construct:00000000000000a4 .LVL156
C:\Users\stapi\AppData\Local\Temp\ccLFD7qg.s:1420   .text.iotx_alcs_construct:00000000000000b0 .LVL157
C:\Users\stapi\AppData\Local\Temp\ccLFD7qg.s:1444   .text.iotx_alcs_construct:00000000000000d0 .LVL159
C:\Users\stapi\AppData\Local\Temp\ccLFD7qg.s:1460   .text.iotx_alcs_construct:00000000000000fa .LVL160
C:\Users\stapi\AppData\Local\Temp\ccLFD7qg.s:1466   .text.iotx_alcs_construct:0000000000000108 .LVL161
C:\Users\stapi\AppData\Local\Temp\ccLFD7qg.s:1478   .text.iotx_alcs_construct:000000000000011e .LVL163
C:\Users\stapi\AppData\Local\Temp\ccLFD7qg.s:1483   .text.iotx_alcs_construct:000000000000012e .LVL164
C:\Users\stapi\AppData\Local\Temp\ccLFD7qg.s:11751  .debug_str:0000000000000567 .LASF413
C:\Users\stapi\AppData\Local\Temp\ccLFD7qg.s:943    .text.iotx_alcs_adapter_init:0000000000000000 .LFB30
C:\Users\stapi\AppData\Local\Temp\ccLFD7qg.s:1306   .text.iotx_alcs_adapter_init:0000000000000252 .LFE30
C:\Users\stapi\AppData\Local\Temp\ccLFD7qg.s:10794  .debug_loc:00000000000007fd .LLST36
C:\Users\stapi\AppData\Local\Temp\ccLFD7qg.s:12093  .debug_str:00000000000013ea .LASF414
C:\Users\stapi\AppData\Local\Temp\ccLFD7qg.s:10805  .debug_loc:000000000000081b .LLST37
C:\Users\stapi\AppData\Local\Temp\ccLFD7qg.s:10816  .debug_loc:0000000000000839 .LLST38
C:\Users\stapi\AppData\Local\Temp\ccLFD7qg.s:12319  .debug_str:0000000000001dd9 .LASF415
C:\Users\stapi\AppData\Local\Temp\ccLFD7qg.s:10867  .debug_loc:00000000000008b7 .LLST39
C:\Users\stapi\AppData\Local\Temp\ccLFD7qg.s:11763  .debug_str:00000000000005b6 .LASF481
C:\Users\stapi\AppData\Local\Temp\ccLFD7qg.s:1275   .text.iotx_alcs_adapter_init:0000000000000238 .LBB40
C:\Users\stapi\AppData\Local\Temp\ccLFD7qg.s:1294   .text.iotx_alcs_adapter_init:0000000000000240 .LBE40
C:\Users\stapi\AppData\Local\Temp\ccLFD7qg.s:10896  .debug_loc:0000000000000903 .LLST40
C:\Users\stapi\AppData\Local\Temp\ccLFD7qg.s:1281   .text.iotx_alcs_adapter_init:000000000000023c .LBB42
C:\Users\stapi\AppData\Local\Temp\ccLFD7qg.s:1291   .text.iotx_alcs_adapter_init:0000000000000240 .LBE42
C:\Users\stapi\AppData\Local\Temp\ccLFD7qg.s:10903  .debug_loc:0000000000000916 .LLST41
C:\Users\stapi\AppData\Local\Temp\ccLFD7qg.s:972    .text.iotx_alcs_adapter_init:000000000000001e .LVL100
C:\Users\stapi\AppData\Local\Temp\ccLFD7qg.s:977    .text.iotx_alcs_adapter_init:000000000000002e .LVL101
C:\Users\stapi\AppData\Local\Temp\ccLFD7qg.s:982    .text.iotx_alcs_adapter_init:000000000000003e .LVL102
C:\Users\stapi\AppData\Local\Temp\ccLFD7qg.s:1003   .text.iotx_alcs_adapter_init:000000000000005c .LVL103
C:\Users\stapi\AppData\Local\Temp\ccLFD7qg.s:1009   .text.iotx_alcs_adapter_init:000000000000006a .LVL104
C:\Users\stapi\AppData\Local\Temp\ccLFD7qg.s:1013   .text.iotx_alcs_adapter_init:0000000000000072 .LVL105
C:\Users\stapi\AppData\Local\Temp\ccLFD7qg.s:1024   .text.iotx_alcs_adapter_init:0000000000000086 .LVL106
C:\Users\stapi\AppData\Local\Temp\ccLFD7qg.s:1032   .text.iotx_alcs_adapter_init:0000000000000096 .LVL108
C:\Users\stapi\AppData\Local\Temp\ccLFD7qg.s:1038   .text.iotx_alcs_adapter_init:00000000000000a2 .LVL109
C:\Users\stapi\AppData\Local\Temp\ccLFD7qg.s:1080   .text.iotx_alcs_adapter_init:00000000000000e2 .LVL111
C:\Users\stapi\AppData\Local\Temp\ccLFD7qg.s:1092   .text.iotx_alcs_adapter_init:00000000000000f6 .LVL114
C:\Users\stapi\AppData\Local\Temp\ccLFD7qg.s:1097   .text.iotx_alcs_adapter_init:0000000000000106 .LVL115
C:\Users\stapi\AppData\Local\Temp\ccLFD7qg.s:1101   .text.iotx_alcs_adapter_init:0000000000000112 .LVL116
C:\Users\stapi\AppData\Local\Temp\ccLFD7qg.s:1106   .text.iotx_alcs_adapter_init:000000000000011c .LVL117
C:\Users\stapi\AppData\Local\Temp\ccLFD7qg.s:1139   .text.iotx_alcs_adapter_init:0000000000000136 .LVL120
C:\Users\stapi\AppData\Local\Temp\ccLFD7qg.s:1149   .text.iotx_alcs_adapter_init:0000000000000146 .LVL122
C:\Users\stapi\AppData\Local\Temp\ccLFD7qg.s:1155   .text.iotx_alcs_adapter_init:0000000000000156 .LVL123
C:\Users\stapi\AppData\Local\Temp\ccLFD7qg.s:1167   .text.iotx_alcs_adapter_init:000000000000016a .LVL126
C:\Users\stapi\AppData\Local\Temp\ccLFD7qg.s:1177   .text.iotx_alcs_adapter_init:000000000000017a .LVL128
C:\Users\stapi\AppData\Local\Temp\ccLFD7qg.s:1183   .text.iotx_alcs_adapter_init:000000000000018a .LVL129
C:\Users\stapi\AppData\Local\Temp\ccLFD7qg.s:1192   .text.iotx_alcs_adapter_init:000000000000019c .LVL131
C:\Users\stapi\AppData\Local\Temp\ccLFD7qg.s:1200   .text.iotx_alcs_adapter_init:00000000000001ae .LVL132
C:\Users\stapi\AppData\Local\Temp\ccLFD7qg.s:1208   .text.iotx_alcs_adapter_init:00000000000001ba .LVL134
C:\Users\stapi\AppData\Local\Temp\ccLFD7qg.s:1214   .text.iotx_alcs_adapter_init:00000000000001ca .LVL135
C:\Users\stapi\AppData\Local\Temp\ccLFD7qg.s:1245   .text.iotx_alcs_adapter_init:00000000000001fa .LVL138
C:\Users\stapi\AppData\Local\Temp\ccLFD7qg.s:1253   .text.iotx_alcs_adapter_init:0000000000000206 .LVL139
C:\Users\stapi\AppData\Local\Temp\ccLFD7qg.s:1259   .text.iotx_alcs_adapter_init:0000000000000216 .LVL140
C:\Users\stapi\AppData\Local\Temp\ccLFD7qg.s:1264   .text.iotx_alcs_adapter_init:0000000000000226 .LVL141
C:\Users\stapi\AppData\Local\Temp\ccLFD7qg.s:1273   .text.iotx_alcs_adapter_init:0000000000000238 .LVL142
C:\Users\stapi\AppData\Local\Temp\ccLFD7qg.s:1301   .text.iotx_alcs_adapter_init:0000000000000250 .LVL145
C:\Users\stapi\AppData\Local\Temp\ccLFD7qg.s:12161  .debug_str:000000000000166f .LASF416
C:\Users\stapi\AppData\Local\Temp\ccLFD7qg.s:741    .text.iotx_alcs_adapter_deinit:0000000000000000 .LFB29
C:\Users\stapi\AppData\Local\Temp\ccLFD7qg.s:914    .text.iotx_alcs_adapter_deinit:00000000000000ee .LFE29
C:\Users\stapi\AppData\Local\Temp\ccLFD7qg.s:790    .text.iotx_alcs_adapter_deinit:000000000000004a .LBB30
C:\Users\stapi\AppData\Local\Temp\ccLFD7qg.s:10910  .debug_loc:0000000000000929 .LLST30
C:\Users\stapi\AppData\Local\Temp\ccLFD7qg.s:10925  .debug_loc:0000000000000951 .LLST31
C:\Users\stapi\AppData\Local\Temp\ccLFD7qg.s:10949  .debug_loc:0000000000000991 .LLST32
C:\Users\stapi\AppData\Local\Temp\ccLFD7qg.s:869    .text.iotx_alcs_adapter_deinit:00000000000000bc .LBB32
C:\Users\stapi\AppData\Local\Temp\ccLFD7qg.s:10975  .debug_loc:00000000000009d3 .LLST33
C:\Users\stapi\AppData\Local\Temp\ccLFD7qg.s:10984  .debug_loc:00000000000009e8 .LLST34
C:\Users\stapi\AppData\Local\Temp\ccLFD7qg.s:10991  .debug_loc:00000000000009fb .LLST35
C:\Users\stapi\AppData\Local\Temp\ccLFD7qg.s:895    .text.iotx_alcs_adapter_deinit:00000000000000ce .LVL93
C:\Users\stapi\AppData\Local\Temp\ccLFD7qg.s:899    .text.iotx_alcs_adapter_deinit:00000000000000d8 .LVL94
C:\Users\stapi\AppData\Local\Temp\ccLFD7qg.s:903    .text.iotx_alcs_adapter_deinit:00000000000000e2 .LVL95
C:\Users\stapi\AppData\Local\Temp\ccLFD7qg.s:770    .text.iotx_alcs_adapter_deinit:0000000000000028 .LVL76
C:\Users\stapi\AppData\Local\Temp\ccLFD7qg.s:776    .text.iotx_alcs_adapter_deinit:0000000000000032 .LVL77
C:\Users\stapi\AppData\Local\Temp\ccLFD7qg.s:786    .text.iotx_alcs_adapter_deinit:0000000000000044 .LVL78
C:\Users\stapi\AppData\Local\Temp\ccLFD7qg.s:798    .text.iotx_alcs_adapter_deinit:0000000000000056 .LVL79
C:\Users\stapi\AppData\Local\Temp\ccLFD7qg.s:821    .text.iotx_alcs_adapter_deinit:0000000000000074 .LVL83
C:\Users\stapi\AppData\Local\Temp\ccLFD7qg.s:829    .text.iotx_alcs_adapter_deinit:0000000000000080 .LVL84
C:\Users\stapi\AppData\Local\Temp\ccLFD7qg.s:834    .text.iotx_alcs_adapter_deinit:000000000000008a .LVL85
C:\Users\stapi\AppData\Local\Temp\ccLFD7qg.s:840    .text.iotx_alcs_adapter_deinit:0000000000000098 .LVL86
C:\Users\stapi\AppData\Local\Temp\ccLFD7qg.s:843    .text.iotx_alcs_adapter_deinit:00000000000000a0 .LVL87
C:\Users\stapi\AppData\Local\Temp\ccLFD7qg.s:846    .text.iotx_alcs_adapter_deinit:00000000000000a8 .LVL88
C:\Users\stapi\AppData\Local\Temp\ccLFD7qg.s:849    .text.iotx_alcs_adapter_deinit:00000000000000b0 .LVL89
C:\Users\stapi\AppData\Local\Temp\ccLFD7qg.s:12367  .debug_str:0000000000001fd1 .LASF418
C:\Users\stapi\AppData\Local\Temp\ccLFD7qg.s:11985  .debug_str:0000000000000ef8 .LASF419
C:\Users\stapi\AppData\Local\Temp\ccLFD7qg.s:11873  .debug_str:0000000000000a25 .LASF482
C:\Users\stapi\AppData\Local\Temp\ccLFD7qg.s:12083  .debug_str:0000000000001376 .LASF423
C:\Users\stapi\AppData\Local\Temp\ccLFD7qg.s:24     .text.iotx_alcs_coap_adapter_event_notifier:0000000000000000 .LFB26
C:\Users\stapi\AppData\Local\Temp\ccLFD7qg.s:73     .text.iotx_alcs_coap_adapter_event_notifier:0000000000000050 .LFE26
C:\Users\stapi\AppData\Local\Temp\ccLFD7qg.s:12197  .debug_str:0000000000001805 .LASF420
C:\Users\stapi\AppData\Local\Temp\ccLFD7qg.s:10998  .debug_loc:0000000000000a0e .LLST0
C:\Users\stapi\AppData\Local\Temp\ccLFD7qg.s:11783  .debug_str:0000000000000691 .LASF421
C:\Users\stapi\AppData\Local\Temp\ccLFD7qg.s:11009  .debug_loc:0000000000000a2c .LLST1
C:\Users\stapi\AppData\Local\Temp\ccLFD7qg.s:12559  .debug_str:000000000000282a .LASF422
C:\Users\stapi\AppData\Local\Temp\ccLFD7qg.s:11026  .debug_loc:0000000000000a57 .LLST2
C:\Users\stapi\AppData\Local\Temp\ccLFD7qg.s:49     .text.iotx_alcs_coap_adapter_event_notifier:000000000000001e .LVL2
C:\Users\stapi\AppData\Local\Temp\ccLFD7qg.s:57     .text.iotx_alcs_coap_adapter_event_notifier:0000000000000036 .LVL3
C:\Users\stapi\AppData\Local\Temp\ccLFD7qg.s:62     .text.iotx_alcs_coap_adapter_event_notifier:0000000000000046 .LVL4
C:\Users\stapi\AppData\Local\Temp\ccLFD7qg.s:12561  .debug_str:0000000000002832 .LASF424
C:\Users\stapi\AppData\Local\Temp\ccLFD7qg.s:457    .text.iotx_alcs_coap_adapter_send_msg_handle:0000000000000000 .LFB25
C:\Users\stapi\AppData\Local\Temp\ccLFD7qg.s:702    .text.iotx_alcs_coap_adapter_send_msg_handle:000000000000014e .LFE25
C:\Users\stapi\AppData\Local\Temp\ccLFD7qg.s:11040  .debug_loc:0000000000000a78 .LLST21
C:\Users\stapi\AppData\Local\Temp\ccLFD7qg.s:11887  .debug_str:0000000000000adc .LASF425
C:\Users\stapi\AppData\Local\Temp\ccLFD7qg.s:11076  .debug_loc:0000000000000acb .LLST22
C:\Users\stapi\AppData\Local\Temp\ccLFD7qg.s:11743  .debug_str:0000000000000530 .LASF426
C:\Users\stapi\AppData\Local\Temp\ccLFD7qg.s:11102  .debug_loc:0000000000000b0d .LLST23
C:\Users\stapi\AppData\Local\Temp\ccLFD7qg.s:11113  .debug_loc:0000000000000b2b .LLST24
C:\Users\stapi\AppData\Local\Temp\ccLFD7qg.s:11140  .debug_loc:0000000000000b75 .LLST25
C:\Users\stapi\AppData\Local\Temp\ccLFD7qg.s:11181  .debug_loc:0000000000000bdb .LLST26
C:\Users\stapi\AppData\Local\Temp\ccLFD7qg.s:11206  .debug_loc:0000000000000c1c .LLST27
C:\Users\stapi\AppData\Local\Temp\ccLFD7qg.s:514    .text.iotx_alcs_coap_adapter_send_msg_handle:0000000000000052 .LBB20
C:\Users\stapi\AppData\Local\Temp\ccLFD7qg.s:584    .text.iotx_alcs_coap_adapter_send_msg_handle:00000000000000b4 .LBE20
C:\Users\stapi\AppData\Local\Temp\ccLFD7qg.s:12275  .debug_str:0000000000001bd1 .LASF427
C:\Users\stapi\AppData\Local\Temp\ccLFD7qg.s:12027  .debug_str:00000000000010e6 .LASF428
C:\Users\stapi\AppData\Local\Temp\ccLFD7qg.s:525    .text.iotx_alcs_coap_adapter_send_msg_handle:0000000000000060 .LVL54
C:\Users\stapi\AppData\Local\Temp\ccLFD7qg.s:538    .text.iotx_alcs_coap_adapter_send_msg_handle:0000000000000074 .LVL55
C:\Users\stapi\AppData\Local\Temp\ccLFD7qg.s:545    .text.iotx_alcs_coap_adapter_send_msg_handle:0000000000000082 .LVL56
C:\Users\stapi\AppData\Local\Temp\ccLFD7qg.s:551    .text.iotx_alcs_coap_adapter_send_msg_handle:000000000000008e .LVL58
C:\Users\stapi\AppData\Local\Temp\ccLFD7qg.s:599    .text.iotx_alcs_coap_adapter_send_msg_handle:00000000000000c4 .LVL60
C:\Users\stapi\AppData\Local\Temp\ccLFD7qg.s:604    .text.iotx_alcs_coap_adapter_send_msg_handle:00000000000000d0 .LVL61
C:\Users\stapi\AppData\Local\Temp\ccLFD7qg.s:609    .text.iotx_alcs_coap_adapter_send_msg_handle:00000000000000dc .LVL62
C:\Users\stapi\AppData\Local\Temp\ccLFD7qg.s:613    .text.iotx_alcs_coap_adapter_send_msg_handle:00000000000000e6 .LVL63
C:\Users\stapi\AppData\Local\Temp\ccLFD7qg.s:643    .text.iotx_alcs_coap_adapter_send_msg_handle:0000000000000100 .LVL66
C:\Users\stapi\AppData\Local\Temp\ccLFD7qg.s:656    .text.iotx_alcs_coap_adapter_send_msg_handle:0000000000000114 .LVL67
C:\Users\stapi\AppData\Local\Temp\ccLFD7qg.s:663    .text.iotx_alcs_coap_adapter_send_msg_handle:0000000000000122 .LVL68
C:\Users\stapi\AppData\Local\Temp\ccLFD7qg.s:670    .text.iotx_alcs_coap_adapter_send_msg_handle:000000000000012e .LVL71
C:\Users\stapi\AppData\Local\Temp\ccLFD7qg.s:497    .text.iotx_alcs_coap_adapter_send_msg_handle:000000000000002e .LVL49
C:\Users\stapi\AppData\Local\Temp\ccLFD7qg.s:503    .text.iotx_alcs_coap_adapter_send_msg_handle:0000000000000040 .LVL50
C:\Users\stapi\AppData\Local\Temp\ccLFD7qg.s:508    .text.iotx_alcs_coap_adapter_send_msg_handle:0000000000000050 .LVL51
C:\Users\stapi\AppData\Local\Temp\ccLFD7qg.s:12229  .debug_str:0000000000001985 .LASF429
C:\Users\stapi\AppData\Local\Temp\ccLFD7qg.s:79     .text._iotx_alcs_send_list_search_and_remove:0000000000000000 .LFB24
C:\Users\stapi\AppData\Local\Temp\ccLFD7qg.s:185    .text._iotx_alcs_send_list_search_and_remove:000000000000006c .LFE24
C:\Users\stapi\AppData\Local\Temp\ccLFD7qg.s:11217  .debug_loc:0000000000000c3a .LLST3
C:\Users\stapi\AppData\Local\Temp\ccLFD7qg.s:11230  .debug_loc:0000000000000c5a .LLST4
C:\Users\stapi\AppData\Local\Temp\ccLFD7qg.s:11241  .debug_loc:0000000000000c78 .LLST5
C:\Users\stapi\AppData\Local\Temp\ccLFD7qg.s:11252  .debug_loc:0000000000000c96 .LLST6
C:\Users\stapi\AppData\Local\Temp\ccLFD7qg.s:11272  .debug_loc:0000000000000ccb .LLST7
C:\Users\stapi\AppData\Local\Temp\ccLFD7qg.s:136    .text._iotx_alcs_send_list_search_and_remove:000000000000004c .LBB16
C:\Users\stapi\AppData\Local\Temp\ccLFD7qg.s:11294  .debug_loc:0000000000000d02 .LLST8
C:\Users\stapi\AppData\Local\Temp\ccLFD7qg.s:11306  .debug_loc:0000000000000d1a .LLST9
C:\Users\stapi\AppData\Local\Temp\ccLFD7qg.s:11313  .debug_loc:0000000000000d2d .LLST10
C:\Users\stapi\AppData\Local\Temp\ccLFD7qg.s:132    .text._iotx_alcs_send_list_search_and_remove:000000000000004a .LVL11
C:\Users\stapi\AppData\Local\Temp\ccLFD7qg.s:11845  .debug_str:000000000000091c .LASF430
C:\Users\stapi\AppData\Local\Temp\ccLFD7qg.s:198    .text.iotx_alcs_topic_parse_dn:0000000000000000 .LFB23
C:\Users\stapi\AppData\Local\Temp\ccLFD7qg.s:309    .text.iotx_alcs_topic_parse_dn:0000000000000098 .LFE23
C:\Users\stapi\AppData\Local\Temp\ccLFD7qg.s:12407  .debug_str:0000000000002192 .LASF431
C:\Users\stapi\AppData\Local\Temp\ccLFD7qg.s:11320  .debug_loc:0000000000000d40 .LLST11
C:\Users\stapi\AppData\Local\Temp\ccLFD7qg.s:12329  .debug_str:0000000000001e49 .LASF432
C:\Users\stapi\AppData\Local\Temp\ccLFD7qg.s:11346  .debug_loc:0000000000000d82 .LLST12
C:\Users\stapi\AppData\Local\Temp\ccLFD7qg.s:11368  .debug_loc:0000000000000db9 .LLST13
C:\Users\stapi\AppData\Local\Temp\ccLFD7qg.s:11963  .debug_str:0000000000000de8 .LASF433
C:\Users\stapi\AppData\Local\Temp\ccLFD7qg.s:11380  .debug_loc:0000000000000dd8 .LLST14
C:\Users\stapi\AppData\Local\Temp\ccLFD7qg.s:11396  .debug_loc:0000000000000e02 .LLST15
C:\Users\stapi\AppData\Local\Temp\ccLFD7qg.s:11753  .debug_str:000000000000057e .LASF434
C:\Users\stapi\AppData\Local\Temp\ccLFD7qg.s:218    .text.iotx_alcs_topic_parse_dn:000000000000001c .LVL19
C:\Users\stapi\AppData\Local\Temp\ccLFD7qg.s:223    .text.iotx_alcs_topic_parse_dn:000000000000002c .LVL20
C:\Users\stapi\AppData\Local\Temp\ccLFD7qg.s:228    .text.iotx_alcs_topic_parse_dn:000000000000003c .LVL21
C:\Users\stapi\AppData\Local\Temp\ccLFD7qg.s:251    .text.iotx_alcs_topic_parse_dn:0000000000000050 .LVL24
C:\Users\stapi\AppData\Local\Temp\ccLFD7qg.s:12243  .debug_str:0000000000001a16 .LASF483
C:\Users\stapi\AppData\Local\Temp\ccLFD7qg.s:12585  .debug_str:0000000000002946 .LASF484
C:\Users\stapi\AppData\Local\Temp\ccLFD7qg.s:433    .text.iotx_alcs_get_ctx:0000000000000000 .LFB21
C:\Users\stapi\AppData\Local\Temp\ccLFD7qg.s:443    .text.iotx_alcs_get_ctx:000000000000000a .LFE21
C:\Users\stapi\AppData\Local\Temp\ccLFD7qg.s:11891  .debug_str:0000000000000b03 .LASF485
C:\Users\stapi\AppData\Local\Temp\ccLFD7qg.s:11731  .debug_str:000000000000048b .LASF435
C:\Users\stapi\AppData\Local\Temp\ccLFD7qg.s:12253  .debug_str:0000000000001a92 .LASF436
C:\Users\stapi\AppData\Local\Temp\ccLFD7qg.s:12493  .debug_str:0000000000002537 .LASF437
C:\Users\stapi\AppData\Local\Temp\ccLFD7qg.s:315    .text.iotx_alcs_topic_parse_pk.constprop.0:0000000000000000 .LFB40
C:\Users\stapi\AppData\Local\Temp\ccLFD7qg.s:426    .text.iotx_alcs_topic_parse_pk.constprop.0:0000000000000098 .LFE40
C:\Users\stapi\AppData\Local\Temp\ccLFD7qg.s:11415  .debug_loc:0000000000000e28 .LLST16
C:\Users\stapi\AppData\Local\Temp\ccLFD7qg.s:11441  .debug_loc:0000000000000e6a .LLST17
C:\Users\stapi\AppData\Local\Temp\ccLFD7qg.s:11463  .debug_loc:0000000000000ea1 .LLST18
C:\Users\stapi\AppData\Local\Temp\ccLFD7qg.s:11475  .debug_loc:0000000000000ec0 .LLST19
C:\Users\stapi\AppData\Local\Temp\ccLFD7qg.s:11491  .debug_loc:0000000000000eea .LLST20
C:\Users\stapi\AppData\Local\Temp\ccLFD7qg.s:335    .text.iotx_alcs_topic_parse_pk.constprop.0:000000000000001c .LVL33
C:\Users\stapi\AppData\Local\Temp\ccLFD7qg.s:340    .text.iotx_alcs_topic_parse_pk.constprop.0:000000000000002c .LVL34
C:\Users\stapi\AppData\Local\Temp\ccLFD7qg.s:345    .text.iotx_alcs_topic_parse_pk.constprop.0:000000000000003c .LVL35
C:\Users\stapi\AppData\Local\Temp\ccLFD7qg.s:368    .text.iotx_alcs_topic_parse_pk.constprop.0:0000000000000050 .LVL38
C:\Users\stapi\AppData\Local\Temp\ccLFD7qg.s:709    .text.iotx_alcs_adapter_list_init:0000000000000000 .LFB27
C:\Users\stapi\AppData\Local\Temp\ccLFD7qg.s:734    .text.iotx_alcs_adapter_list_init:000000000000000c .LFE27
C:\Users\stapi\AppData\Local\Temp\ccLFD7qg.s:11510  .debug_loc:0000000000000f10 .LLST28
C:\Users\stapi\AppData\Local\Temp\ccLFD7qg.s:717    .text.iotx_alcs_adapter_list_init:0000000000000004 .LBB23
C:\Users\stapi\AppData\Local\Temp\ccLFD7qg.s:727    .text.iotx_alcs_adapter_list_init:0000000000000008 .LBE23
C:\Users\stapi\AppData\Local\Temp\ccLFD7qg.s:11523  .debug_loc:0000000000000f30 .LLST29
C:\Users\stapi\AppData\Local\Temp\ccLFD7qg.s:12291  .debug_str:0000000000001c63 .LASF438
C:\Users\stapi\AppData\Local\Temp\ccLFD7qg.s:12431  .debug_str:00000000000022ad .LASF439
C:\Users\stapi\AppData\Local\Temp\ccLFD7qg.s:11923  .debug_str:0000000000000c63 .LASF440
C:\Users\stapi\AppData\Local\Temp\ccLFD7qg.s:11799  .debug_str:000000000000072a .LASF442
C:\Users\stapi\AppData\Local\Temp\ccLFD7qg.s:12495  .debug_str:0000000000002541 .LASF441
C:\Users\stapi\AppData\Local\Temp\ccLFD7qg.s:11949  .debug_str:0000000000000d69 .LASF443
C:\Users\stapi\AppData\Local\Temp\ccLFD7qg.s:12417  .debug_str:0000000000002224 .LASF444
C:\Users\stapi\AppData\Local\Temp\ccLFD7qg.s:11675  .debug_str:000000000000010e .LASF445
C:\Users\stapi\AppData\Local\Temp\ccLFD7qg.s:11651  .debug_str:0000000000000018 .LASF446
C:\Users\stapi\AppData\Local\Temp\ccLFD7qg.s:12463  .debug_str:0000000000002405 .LASF447
C:\Users\stapi\AppData\Local\Temp\ccLFD7qg.s:12481  .debug_str:00000000000024cb .LASF448
C:\Users\stapi\AppData\Local\Temp\ccLFD7qg.s:11679  .debug_str:0000000000000207 .LASF449
C:\Users\stapi\AppData\Local\Temp\ccLFD7qg.s:12575  .debug_str:00000000000028ef .LASF450
C:\Users\stapi\AppData\Local\Temp\ccLFD7qg.s:12257  .debug_str:0000000000001a9e .LASF451
C:\Users\stapi\AppData\Local\Temp\ccLFD7qg.s:11747  .debug_str:0000000000000542 .LASF452
C:\Users\stapi\AppData\Local\Temp\ccLFD7qg.s:12251  .debug_str:0000000000001a85 .LASF453
C:\Users\stapi\AppData\Local\Temp\ccLFD7qg.s:11809  .debug_str:000000000000078b .LASF454
C:\Users\stapi\AppData\Local\Temp\ccLFD7qg.s:11989  .debug_str:0000000000000f11 .LASF455
C:\Users\stapi\AppData\Local\Temp\ccLFD7qg.s:12301  .debug_str:0000000000001ccc .LASF456
C:\Users\stapi\AppData\Local\Temp\ccLFD7qg.s:11987  .debug_str:0000000000000efd .LASF457
C:\Users\stapi\AppData\Local\Temp\ccLFD7qg.s:12517  .debug_str:0000000000002668 .LASF458
C:\Users\stapi\AppData\Local\Temp\ccLFD7qg.s:12235  .debug_str:00000000000019c7 .LASF459
C:\Users\stapi\AppData\Local\Temp\ccLFD7qg.s:12003  .debug_str:0000000000000fcf .LASF460
C:\Users\stapi\AppData\Local\Temp\ccLFD7qg.s:12085  .debug_str:000000000000139c .LASF461
C:\Users\stapi\AppData\Local\Temp\ccLFD7qg.s:11735  .debug_str:00000000000004be .LASF462
C:\Users\stapi\AppData\Local\Temp\ccLFD7qg.s:12203  .debug_str:000000000000181c .LASF463
C:\Users\stapi\AppData\Local\Temp\ccLFD7qg.s:12185  .debug_str:000000000000174f .LASF464
C:\Users\stapi\AppData\Local\Temp\ccLFD7qg.s:12153  .debug_str:0000000000001619 .LASF465
C:\Users\stapi\AppData\Local\Temp\ccLFD7qg.s:12059  .debug_str:000000000000129b .LASF466
C:\Users\stapi\AppData\Local\Temp\ccLFD7qg.s:12425  .debug_str:0000000000002275 .LASF467
C:\Users\stapi\AppData\Local\Temp\ccLFD7qg.s:11877  .debug_str:0000000000000a60 .LASF468
C:\Users\stapi\AppData\Local\Temp\ccLFD7qg.s:11807  .debug_str:000000000000077d .LASF469
C:\Users\stapi\AppData\Local\Temp\ccLFD7qg.s:12473  .debug_str:0000000000002468 .LASF470
C:\Users\stapi\AppData\Local\Temp\ccLFD7qg.s:11893  .debug_str:0000000000000b17 .LASF471
C:\Users\stapi\AppData\Local\Temp\ccLFD7qg.s:11973  .debug_str:0000000000000e5e .LASF472
C:\Users\stapi\AppData\Local\Temp\ccLFD7qg.s:11863  .debug_str:00000000000009b5 .LASF473
C:\Users\stapi\AppData\Local\Temp\ccLFD7qg.s:12265  .debug_str:0000000000001b50 .LASF474
C:\Users\stapi\AppData\Local\Temp\ccLFD7qg.s:12385  .debug_str:000000000000207e .LASF475
C:\Users\stapi\AppData\Local\Temp\ccLFD7qg.s:2883   .text.iotx_alcs_observe_notify:0000000000000000 .LVL329
C:\Users\stapi\AppData\Local\Temp\ccLFD7qg.s:2894   .text.iotx_alcs_observe_notify:000000000000000a .LVL331
C:\Users\stapi\AppData\Local\Temp\ccLFD7qg.s:2903   .text.iotx_alcs_observe_notify:0000000000000010 .LVL332
C:\Users\stapi\AppData\Local\Temp\ccLFD7qg.s:2888   .text.iotx_alcs_observe_notify:0000000000000008 .LVL330
C:\Users\stapi\AppData\Local\Temp\ccLFD7qg.s:2911   .text.iotx_alcs_observe_notify:000000000000001c .LVL334
C:\Users\stapi\AppData\Local\Temp\ccLFD7qg.s:2919   .text.iotx_alcs_observe_notify:0000000000000024 .LVL335
C:\Users\stapi\AppData\Local\Temp\ccLFD7qg.s:2938   .text.iotx_alcs_observe_notify:0000000000000054 .LVL339
C:\Users\stapi\AppData\Local\Temp\ccLFD7qg.s:2592   .text.iotx_alcs_register_resource:0000000000000000 .LVL291
C:\Users\stapi\AppData\Local\Temp\ccLFD7qg.s:2619   .text.iotx_alcs_register_resource:0000000000000014 .LVL295
C:\Users\stapi\AppData\Local\Temp\ccLFD7qg.s:2617   .text.iotx_alcs_register_resource:0000000000000012 .LVL294
C:\Users\stapi\AppData\Local\Temp\ccLFD7qg.s:2603   .text.iotx_alcs_register_resource:0000000000000008 .LVL292
C:\Users\stapi\AppData\Local\Temp\ccLFD7qg.s:2667   .text.iotx_alcs_register_resource:0000000000000074 .LVL300
C:\Users\stapi\AppData\Local\Temp\ccLFD7qg.s:2683   .text.iotx_alcs_register_resource:0000000000000080 .LVL301
C:\Users\stapi\AppData\Local\Temp\ccLFD7qg.s:2735   .text.iotx_alcs_register_resource:00000000000000e2 .LVL306
C:\Users\stapi\AppData\Local\Temp\ccLFD7qg.s:2849   .text.iotx_alcs_register_resource:00000000000001d4 .LVL325
C:\Users\stapi\AppData\Local\Temp\ccLFD7qg.s:2857   .text.iotx_alcs_register_resource:00000000000001de .LVL326
C:\Users\stapi\AppData\Local\Temp\ccLFD7qg.s:2610   .text.iotx_alcs_register_resource:000000000000000c .LVL293
C:\Users\stapi\AppData\Local\Temp\ccLFD7qg.s:2761   .text.iotx_alcs_register_resource:0000000000000118 .LVL309
C:\Users\stapi\AppData\Local\Temp\ccLFD7qg.s:2765   .text.iotx_alcs_register_resource:000000000000011a .LVL310
C:\Users\stapi\AppData\Local\Temp\ccLFD7qg.s:2770   .text.iotx_alcs_register_resource:0000000000000128 .LVL312
C:\Users\stapi\AppData\Local\Temp\ccLFD7qg.s:2790   .text.iotx_alcs_register_resource:0000000000000148 .LVL313
C:\Users\stapi\AppData\Local\Temp\ccLFD7qg.s:2801   .text.iotx_alcs_register_resource:0000000000000166 .LVL316
C:\Users\stapi\AppData\Local\Temp\ccLFD7qg.s:2806   .text.iotx_alcs_register_resource:000000000000016a .LVL317
C:\Users\stapi\AppData\Local\Temp\ccLFD7qg.s:2839   .text.iotx_alcs_register_resource:00000000000001ba .LVL323
C:\Users\stapi\AppData\Local\Temp\ccLFD7qg.s:1949   .text.iotx_alcs_send_Response:0000000000000000 .LVL211
C:\Users\stapi\AppData\Local\Temp\ccLFD7qg.s:1977   .text.iotx_alcs_send_Response:0000000000000010 .LVL213
C:\Users\stapi\AppData\Local\Temp\ccLFD7qg.s:2016   .text.iotx_alcs_send_Response:0000000000000054 .LVL218
C:\Users\stapi\AppData\Local\Temp\ccLFD7qg.s:2029   .text.iotx_alcs_send_Response:0000000000000062 .LVL219
C:\Users\stapi\AppData\Local\Temp\ccLFD7qg.s:2038   .text.iotx_alcs_send_Response:000000000000007c .LVL221
C:\Users\stapi\AppData\Local\Temp\ccLFD7qg.s:2049   .text.iotx_alcs_send_Response:0000000000000084 .LVL223
C:\Users\stapi\AppData\Local\Temp\ccLFD7qg.s:2058   .text.iotx_alcs_send_Response:000000000000009c .LVL225
C:\Users\stapi\AppData\Local\Temp\ccLFD7qg.s:2068   .text.iotx_alcs_send_Response:00000000000000a8 .LVL226
C:\Users\stapi\AppData\Local\Temp\ccLFD7qg.s:2077   .text.iotx_alcs_send_Response:00000000000000c0 .LVL228
C:\Users\stapi\AppData\Local\Temp\ccLFD7qg.s:2083   .text.iotx_alcs_send_Response:00000000000000c2 .LVL229
C:\Users\stapi\AppData\Local\Temp\ccLFD7qg.s:2045   .text.iotx_alcs_send_Response:0000000000000080 .LVL222
C:\Users\stapi\AppData\Local\Temp\ccLFD7qg.s:2115   .text.iotx_alcs_send_Response:0000000000000102 .LVL233
C:\Users\stapi\AppData\Local\Temp\ccLFD7qg.s:2135   .text.iotx_alcs_send_Response:000000000000012c .LVL235
C:\Users\stapi\AppData\Local\Temp\ccLFD7qg.s:2153   .text.iotx_alcs_send_Response:000000000000014c .LVL237
C:\Users\stapi\AppData\Local\Temp\ccLFD7qg.s:2169   .text.iotx_alcs_send_Response:000000000000016e .LVL239
C:\Users\stapi\AppData\Local\Temp\ccLFD7qg.s:2260   .text.iotx_alcs_send_Response:0000000000000216 .LVL249
C:\Users\stapi\AppData\Local\Temp\ccLFD7qg.s:2267   .text.iotx_alcs_send_Response:0000000000000220 .LVL251
C:\Users\stapi\AppData\Local\Temp\ccLFD7qg.s:2346   .text.iotx_alcs_send_Response:000000000000029c .LVL258
C:\Users\stapi\AppData\Local\Temp\ccLFD7qg.s:1961   .text.iotx_alcs_send_Response:0000000000000008 .LVL212
C:\Users\stapi\AppData\Local\Temp\ccLFD7qg.s:1999   .text.iotx_alcs_send_Response:0000000000000048 .LVL217
C:\Users\stapi\AppData\Local\Temp\ccLFD7qg.s:2253   .text.iotx_alcs_send_Response:0000000000000202 .LVL247
C:\Users\stapi\AppData\Local\Temp\ccLFD7qg.s:2277   .text.iotx_alcs_send_Response:0000000000000228 .LVL252
C:\Users\stapi\AppData\Local\Temp\ccLFD7qg.s:2429   .text.iotx_alcs_send_Response:000000000000032e .LVL271
C:\Users\stapi\AppData\Local\Temp\ccLFD7qg.s:2451   .text.iotx_alcs_send_Response:0000000000000360 .LVL275
C:\Users\stapi\AppData\Local\Temp\ccLFD7qg.s:2350   .text.iotx_alcs_send_Response:000000000000029e .LVL259
C:\Users\stapi\AppData\Local\Temp\ccLFD7qg.s:2394   .text.iotx_alcs_send_Response:00000000000002f4 .LVL267
C:\Users\stapi\AppData\Local\Temp\ccLFD7qg.s:2355   .text.iotx_alcs_send_Response:00000000000002ac .LVL261
C:\Users\stapi\AppData\Local\Temp\ccLFD7qg.s:2375   .text.iotx_alcs_send_Response:00000000000002cc .LVL262
C:\Users\stapi\AppData\Local\Temp\ccLFD7qg.s:2383   .text.iotx_alcs_send_Response:00000000000002e2 .LVL264
C:\Users\stapi\AppData\Local\Temp\ccLFD7qg.s:2389   .text.iotx_alcs_send_Response:00000000000002e8 .LVL265
C:\Users\stapi\AppData\Local\Temp\ccLFD7qg.s:2517   .text.iotx_alcs_send_Response:00000000000003ea .LVL283
C:\Users\stapi\AppData\Local\Temp\ccLFD7qg.s:2525   .text.iotx_alcs_send_Response:00000000000003f8 .LVL285
C:\Users\stapi\AppData\Local\Temp\ccLFD7qg.s:1904   .text.iotx_alcs_send:0000000000000000 .LVL209
C:\Users\stapi\AppData\Local\Temp\ccLFD7qg.s:1908   .text.iotx_alcs_send:0000000000000002 .LVL210
C:\Users\stapi\AppData\Local\Temp\ccLFD7qg.s:1786   .text.iotx_alcs_yield:0000000000000000 .LVL196
C:\Users\stapi\AppData\Local\Temp\ccLFD7qg.s:1800   .text.iotx_alcs_yield:000000000000000e .LVL198
C:\Users\stapi\AppData\Local\Temp\ccLFD7qg.s:1829   .text.iotx_alcs_yield:000000000000004e .LVL202
C:\Users\stapi\AppData\Local\Temp\ccLFD7qg.s:1837   .text.iotx_alcs_yield:0000000000000052 .LVL203
C:\Users\stapi\AppData\Local\Temp\ccLFD7qg.s:1792   .text.iotx_alcs_yield:0000000000000008 .LVL197
C:\Users\stapi\AppData\Local\Temp\ccLFD7qg.s:1853   .text.iotx_alcs_yield:0000000000000070 .LVL205
C:\Users\stapi\AppData\Local\Temp\ccLFD7qg.s:1882   .text.iotx_alcs_yield:000000000000008e .LVL207
C:\Users\stapi\AppData\Local\Temp\ccLFD7qg.s:1697   .text.iotx_alcs_destroy:0000000000000000 .LVL187
C:\Users\stapi\AppData\Local\Temp\ccLFD7qg.s:1708   .text.iotx_alcs_destroy:000000000000000e .LVL188
C:\Users\stapi\AppData\Local\Temp\ccLFD7qg.s:1737   .text.iotx_alcs_destroy:000000000000004e .LVL192
C:\Users\stapi\AppData\Local\Temp\ccLFD7qg.s:1747   .text.iotx_alcs_destroy:0000000000000054 .LVL193
C:\Users\stapi\AppData\Local\Temp\ccLFD7qg.s:1503   .text.iotx_alcs_cloud_init:0000000000000000 .LVL165
C:\Users\stapi\AppData\Local\Temp\ccLFD7qg.s:1517   .text.iotx_alcs_cloud_init:000000000000000e .LVL166
C:\Users\stapi\AppData\Local\Temp\ccLFD7qg.s:1579   .text.iotx_alcs_cloud_init:000000000000007c .LVL172
C:\Users\stapi\AppData\Local\Temp\ccLFD7qg.s:1619   .text.iotx_alcs_cloud_init:00000000000000c2 .LVL177
C:\Users\stapi\AppData\Local\Temp\ccLFD7qg.s:1625   .text.iotx_alcs_cloud_init:00000000000000c4 .LVL178
C:\Users\stapi\AppData\Local\Temp\ccLFD7qg.s:1631   .text.iotx_alcs_cloud_init:00000000000000ce .LVL180
C:\Users\stapi\AppData\Local\Temp\ccLFD7qg.s:1648   .text.iotx_alcs_cloud_init:00000000000000f6 .LVL183
C:\Users\stapi\AppData\Local\Temp\ccLFD7qg.s:1653   .text.iotx_alcs_cloud_init:00000000000000f8 .LVL184
C:\Users\stapi\AppData\Local\Temp\ccLFD7qg.s:1335   .text.iotx_alcs_construct:0000000000000000 .LVL146
C:\Users\stapi\AppData\Local\Temp\ccLFD7qg.s:1348   .text.iotx_alcs_construct:000000000000000e .LVL147
C:\Users\stapi\AppData\Local\Temp\ccLFD7qg.s:1396   .text.iotx_alcs_construct:0000000000000076 .LVL154
C:\Users\stapi\AppData\Local\Temp\ccLFD7qg.s:1433   .text.iotx_alcs_construct:00000000000000ba .LVL158
C:\Users\stapi\AppData\Local\Temp\ccLFD7qg.s:1475   .text.iotx_alcs_construct:0000000000000112 .LVL162
C:\Users\stapi\AppData\Local\Temp\ccLFD7qg.s:946    .text.iotx_alcs_adapter_init:0000000000000000 .LVL98
C:\Users\stapi\AppData\Local\Temp\ccLFD7qg.s:962    .text.iotx_alcs_adapter_init:000000000000000e .LVL99
C:\Users\stapi\AppData\Local\Temp\ccLFD7qg.s:1143   .text.iotx_alcs_adapter_init:0000000000000138 .LVL121
C:\Users\stapi\AppData\Local\Temp\ccLFD7qg.s:1160   .text.iotx_alcs_adapter_init:0000000000000160 .LVL124
C:\Users\stapi\AppData\Local\Temp\ccLFD7qg.s:1165   .text.iotx_alcs_adapter_init:0000000000000162 .LVL125
C:\Users\stapi\AppData\Local\Temp\ccLFD7qg.s:1171   .text.iotx_alcs_adapter_init:000000000000016c .LVL127
C:\Users\stapi\AppData\Local\Temp\ccLFD7qg.s:1188   .text.iotx_alcs_adapter_init:0000000000000194 .LVL130
C:\Users\stapi\AppData\Local\Temp\ccLFD7qg.s:1202   .text.iotx_alcs_adapter_init:00000000000001b0 .LVL133
C:\Users\stapi\AppData\Local\Temp\ccLFD7qg.s:1219   .text.iotx_alcs_adapter_init:00000000000001d4 .LVL136
C:\Users\stapi\AppData\Local\Temp\ccLFD7qg.s:1243   .text.iotx_alcs_adapter_init:00000000000001f2 .LVL137
C:\Users\stapi\AppData\Local\Temp\ccLFD7qg.s:1028   .text.iotx_alcs_adapter_init:000000000000008e .LVL107
C:\Users\stapi\AppData\Local\Temp\ccLFD7qg.s:1040   .text.iotx_alcs_adapter_init:00000000000000a4 .LVL110
C:\Users\stapi\AppData\Local\Temp\ccLFD7qg.s:1082   .text.iotx_alcs_adapter_init:00000000000000e4 .LVL112
C:\Users\stapi\AppData\Local\Temp\ccLFD7qg.s:1089   .text.iotx_alcs_adapter_init:00000000000000ea .LVL113
C:\Users\stapi\AppData\Local\Temp\ccLFD7qg.s:1128   .text.iotx_alcs_adapter_init:000000000000012a .LVL118
C:\Users\stapi\AppData\Local\Temp\ccLFD7qg.s:1137   .text.iotx_alcs_adapter_init:000000000000012e .LVL119
C:\Users\stapi\AppData\Local\Temp\ccLFD7qg.s:1289   .text.iotx_alcs_adapter_init:0000000000000240 .LVL144
C:\Users\stapi\AppData\Local\Temp\ccLFD7qg.s:1280   .text.iotx_alcs_adapter_init:000000000000023c .LVL143
C:\Users\stapi\AppData\Local\Temp\ccLFD7qg.s:815    .text.iotx_alcs_adapter_deinit:000000000000006a .LVL82
C:\Users\stapi\AppData\Local\Temp\ccLFD7qg.s:863    .text.iotx_alcs_adapter_deinit:00000000000000bc .LVL90
C:\Users\stapi\AppData\Local\Temp\ccLFD7qg.s:808    .text.iotx_alcs_adapter_deinit:0000000000000060 .LVL80
C:\Users\stapi\AppData\Local\Temp\ccLFD7qg.s:909    .text.iotx_alcs_adapter_deinit:00000000000000ec .LVL97
C:\Users\stapi\AppData\Local\Temp\ccLFD7qg.s:810    .text.iotx_alcs_adapter_deinit:0000000000000062 .LVL81
C:\Users\stapi\AppData\Local\Temp\ccLFD7qg.s:906    .text.iotx_alcs_adapter_deinit:00000000000000e6 .LVL96
C:\Users\stapi\AppData\Local\Temp\ccLFD7qg.s:890    .text.iotx_alcs_adapter_deinit:00000000000000c6 .LVL92
C:\Users\stapi\AppData\Local\Temp\ccLFD7qg.s:876    .text.iotx_alcs_adapter_deinit:00000000000000c0 .LVL91
C:\Users\stapi\AppData\Local\Temp\ccLFD7qg.s:28     .text.iotx_alcs_coap_adapter_event_notifier:0000000000000000 .LVL0
C:\Users\stapi\AppData\Local\Temp\ccLFD7qg.s:39     .text.iotx_alcs_coap_adapter_event_notifier:000000000000000e .LVL1
C:\Users\stapi\AppData\Local\Temp\ccLFD7qg.s:67     .text.iotx_alcs_coap_adapter_event_notifier:0000000000000048 .LVL5
C:\Users\stapi\AppData\Local\Temp\ccLFD7qg.s:460    .text.iotx_alcs_coap_adapter_send_msg_handle:0000000000000000 .LVL45
C:\Users\stapi\AppData\Local\Temp\ccLFD7qg.s:494    .text.iotx_alcs_coap_adapter_send_msg_handle:0000000000000022 .LVL48
C:\Users\stapi\AppData\Local\Temp\ccLFD7qg.s:512    .text.iotx_alcs_coap_adapter_send_msg_handle:0000000000000052 .LVL52
C:\Users\stapi\AppData\Local\Temp\ccLFD7qg.s:520    .text.iotx_alcs_coap_adapter_send_msg_handle:0000000000000056 .LVL53
C:\Users\stapi\AppData\Local\Temp\ccLFD7qg.s:628    .text.iotx_alcs_coap_adapter_send_msg_handle:00000000000000f0 .LVL64
C:\Users\stapi\AppData\Local\Temp\ccLFD7qg.s:638    .text.iotx_alcs_coap_adapter_send_msg_handle:00000000000000f6 .LVL65
C:\Users\stapi\AppData\Local\Temp\ccLFD7qg.s:582    .text.iotx_alcs_coap_adapter_send_msg_handle:00000000000000b4 .LVL59
C:\Users\stapi\AppData\Local\Temp\ccLFD7qg.s:665    .text.iotx_alcs_coap_adapter_send_msg_handle:0000000000000124 .LVL69
C:\Users\stapi\AppData\Local\Temp\ccLFD7qg.s:469    .text.iotx_alcs_coap_adapter_send_msg_handle:0000000000000008 .LVL46
C:\Users\stapi\AppData\Local\Temp\ccLFD7qg.s:547    .text.iotx_alcs_coap_adapter_send_msg_handle:0000000000000084 .LVL57
C:\Users\stapi\AppData\Local\Temp\ccLFD7qg.s:668    .text.iotx_alcs_coap_adapter_send_msg_handle:0000000000000126 .LVL70
C:\Users\stapi\AppData\Local\Temp\ccLFD7qg.s:479    .text.iotx_alcs_coap_adapter_send_msg_handle:0000000000000010 .LVL47
C:\Users\stapi\AppData\Local\Temp\ccLFD7qg.s:82     .text._iotx_alcs_send_list_search_and_remove:0000000000000000 .LVL6
C:\Users\stapi\AppData\Local\Temp\ccLFD7qg.s:109    .text._iotx_alcs_send_list_search_and_remove:0000000000000020 .LVL10
C:\Users\stapi\AppData\Local\Temp\ccLFD7qg.s:93     .text._iotx_alcs_send_list_search_and_remove:0000000000000008 .LVL7
C:\Users\stapi\AppData\Local\Temp\ccLFD7qg.s:103    .text._iotx_alcs_send_list_search_and_remove:0000000000000016 .LVL8
C:\Users\stapi\AppData\Local\Temp\ccLFD7qg.s:177    .text._iotx_alcs_send_list_search_and_remove:0000000000000060 .LVL14
C:\Users\stapi\AppData\Local\Temp\ccLFD7qg.s:182    .text._iotx_alcs_send_list_search_and_remove:000000000000006a .LVL16
C:\Users\stapi\AppData\Local\Temp\ccLFD7qg.s:106    .text._iotx_alcs_send_list_search_and_remove:000000000000001c .LVL9
C:\Users\stapi\AppData\Local\Temp\ccLFD7qg.s:179    .text._iotx_alcs_send_list_search_and_remove:0000000000000064 .LVL15
C:\Users\stapi\AppData\Local\Temp\ccLFD7qg.s:148    .text._iotx_alcs_send_list_search_and_remove:0000000000000054 .LVL12
C:\Users\stapi\AppData\Local\Temp\ccLFD7qg.s:159    .text._iotx_alcs_send_list_search_and_remove:0000000000000058 .LVL13
C:\Users\stapi\AppData\Local\Temp\ccLFD7qg.s:201    .text.iotx_alcs_topic_parse_dn:0000000000000000 .LVL17
C:\Users\stapi\AppData\Local\Temp\ccLFD7qg.s:215    .text.iotx_alcs_topic_parse_dn:0000000000000010 .LVL18
C:\Users\stapi\AppData\Local\Temp\ccLFD7qg.s:240    .text.iotx_alcs_topic_parse_dn:0000000000000046 .LVL22
C:\Users\stapi\AppData\Local\Temp\ccLFD7qg.s:259    .text.iotx_alcs_topic_parse_dn:0000000000000058 .LVL25
C:\Users\stapi\AppData\Local\Temp\ccLFD7qg.s:245    .text.iotx_alcs_topic_parse_dn:0000000000000048 .LVL23
C:\Users\stapi\AppData\Local\Temp\ccLFD7qg.s:268    .text.iotx_alcs_topic_parse_dn:0000000000000064 .LVL26
C:\Users\stapi\AppData\Local\Temp\ccLFD7qg.s:283    .text.iotx_alcs_topic_parse_dn:000000000000007e .LVL27
C:\Users\stapi\AppData\Local\Temp\ccLFD7qg.s:285    .text.iotx_alcs_topic_parse_dn:0000000000000082 .LVL28
C:\Users\stapi\AppData\Local\Temp\ccLFD7qg.s:291    .text.iotx_alcs_topic_parse_dn:0000000000000088 .LVL29
C:\Users\stapi\AppData\Local\Temp\ccLFD7qg.s:297    .text.iotx_alcs_topic_parse_dn:000000000000008c .LVL30
C:\Users\stapi\AppData\Local\Temp\ccLFD7qg.s:318    .text.iotx_alcs_topic_parse_pk.constprop.0:0000000000000000 .LVL31
C:\Users\stapi\AppData\Local\Temp\ccLFD7qg.s:332    .text.iotx_alcs_topic_parse_pk.constprop.0:0000000000000010 .LVL32
C:\Users\stapi\AppData\Local\Temp\ccLFD7qg.s:357    .text.iotx_alcs_topic_parse_pk.constprop.0:0000000000000046 .LVL36
C:\Users\stapi\AppData\Local\Temp\ccLFD7qg.s:376    .text.iotx_alcs_topic_parse_pk.constprop.0:0000000000000058 .LVL39
C:\Users\stapi\AppData\Local\Temp\ccLFD7qg.s:362    .text.iotx_alcs_topic_parse_pk.constprop.0:0000000000000048 .LVL37
C:\Users\stapi\AppData\Local\Temp\ccLFD7qg.s:385    .text.iotx_alcs_topic_parse_pk.constprop.0:0000000000000064 .LVL40
C:\Users\stapi\AppData\Local\Temp\ccLFD7qg.s:400    .text.iotx_alcs_topic_parse_pk.constprop.0:000000000000007e .LVL41
C:\Users\stapi\AppData\Local\Temp\ccLFD7qg.s:402    .text.iotx_alcs_topic_parse_pk.constprop.0:0000000000000082 .LVL42
C:\Users\stapi\AppData\Local\Temp\ccLFD7qg.s:408    .text.iotx_alcs_topic_parse_pk.constprop.0:0000000000000088 .LVL43
C:\Users\stapi\AppData\Local\Temp\ccLFD7qg.s:414    .text.iotx_alcs_topic_parse_pk.constprop.0:000000000000008c .LVL44
C:\Users\stapi\AppData\Local\Temp\ccLFD7qg.s:712    .text.iotx_alcs_adapter_list_init:0000000000000000 .LVL72
C:\Users\stapi\AppData\Local\Temp\ccLFD7qg.s:731    .text.iotx_alcs_adapter_list_init:000000000000000a .LVL75
C:\Users\stapi\AppData\Local\Temp\ccLFD7qg.s:716    .text.iotx_alcs_adapter_list_init:0000000000000004 .LVL73
C:\Users\stapi\AppData\Local\Temp\ccLFD7qg.s:725    .text.iotx_alcs_adapter_list_init:0000000000000008 .LVL74
C:\Users\stapi\AppData\Local\Temp\ccLFD7qg.s:2980   .debug_info:0000000000000000 .Ldebug_info0
C:\Users\stapi\AppData\Local\Temp\ccLFD7qg.s:144    .text._iotx_alcs_send_list_search_and_remove:0000000000000050 .LBE16
C:\Users\stapi\AppData\Local\Temp\ccLFD7qg.s:149    .text._iotx_alcs_send_list_search_and_remove:0000000000000054 .LBB19
C:\Users\stapi\AppData\Local\Temp\ccLFD7qg.s:162    .text._iotx_alcs_send_list_search_and_remove:0000000000000058 .LBE19
C:\Users\stapi\AppData\Local\Temp\ccLFD7qg.s:585    .text.iotx_alcs_coap_adapter_send_msg_handle:00000000000000b4 .LBB21
C:\Users\stapi\AppData\Local\Temp\ccLFD7qg.s:614    .text.iotx_alcs_coap_adapter_send_msg_handle:00000000000000e6 .LBE21
C:\Users\stapi\AppData\Local\Temp\ccLFD7qg.s:631    .text.iotx_alcs_coap_adapter_send_msg_handle:00000000000000f0 .LBB22
C:\Users\stapi\AppData\Local\Temp\ccLFD7qg.s:700    .text.iotx_alcs_coap_adapter_send_msg_handle:000000000000014e .LBE22
C:\Users\stapi\AppData\Local\Temp\ccLFD7qg.s:795    .text.iotx_alcs_adapter_deinit:000000000000004e .LBE30
C:\Users\stapi\AppData\Local\Temp\ccLFD7qg.s:800    .text.iotx_alcs_adapter_deinit:0000000000000056 .LBB38
C:\Users\stapi\AppData\Local\Temp\ccLFD7qg.s:817    .text.iotx_alcs_adapter_deinit:000000000000006a .LBE38
C:\Users\stapi\AppData\Local\Temp\ccLFD7qg.s:866    .text.iotx_alcs_adapter_deinit:00000000000000bc .LBB39
C:\Users\stapi\AppData\Local\Temp\ccLFD7qg.s:912    .text.iotx_alcs_adapter_deinit:00000000000000ee .LBE39
C:\Users\stapi\AppData\Local\Temp\ccLFD7qg.s:880    .text.iotx_alcs_adapter_deinit:00000000000000c0 .LBE32
C:\Users\stapi\AppData\Local\Temp\ccLFD7qg.s:883    .text.iotx_alcs_adapter_deinit:00000000000000c2 .LBB35
C:\Users\stapi\AppData\Local\Temp\ccLFD7qg.s:892    .text.iotx_alcs_adapter_deinit:00000000000000c6 .LBE35
C:\Users\stapi\AppData\Local\Temp\ccLFD7qg.s:2426   .text.iotx_alcs_send_Response:000000000000032c .LBB48
C:\Users\stapi\AppData\Local\Temp\ccLFD7qg.s:2430   .text.iotx_alcs_send_Response:000000000000032e .LBE48
C:\Users\stapi\AppData\Local\Temp\ccLFD7qg.s:2453   .text.iotx_alcs_send_Response:0000000000000360 .LBB50
C:\Users\stapi\AppData\Local\Temp\ccLFD7qg.s:2570   .text.iotx_alcs_send_Response:0000000000000454 .LBE50

UNDEFINED SYMBOLS
__riscv_save_1
HAL_Printf
__riscv_restore_1
__riscv_save_6
memcmp
__riscv_restore_6
__riscv_save_2
__riscv_restore_2
strlen
__riscv_save_4
memset
HAL_MutexLock
HAL_MutexUnlock
LITE_free_internal
__riscv_restore_4
HAL_GetProductKey
HAL_GetDeviceName
HAL_MutexDestroy
alcs_mqtt_deinit
alcs_context_deinit
alcs_deinit
alcs_auth_deinit
HAL_MutexCreate
alcs_context_init
alcs_init
alcs_auth_init
on_svr_auth_timer
LITE_malloc_internal
memcpy
alcs_localsetup_init
__riscv_save_3
__riscv_restore_3
alcs_mqtt_init
iotx_alcs_get_prefixkey
__riscv_save_7
__riscv_restore_7
alcs_msg_init
alcs_msg_setAddr
alcs_resource_need_auth
alcs_sendrsp_secure
alcs_msg_deinit
DM_URI_DEV_CORE_SERVICE_DEV
strcmp
snprintf
CoAPPathMD5_sum
_device
get_session_by_checksum
HAL_UptimeMs
alcs_sendrsp
alcs_resource_register
__riscv_save_0
alcs_observe_notify
__riscv_restore_0
