   1              		.file	"alcs_adapter.c"
   2              		.option nopic
   3              		.attribute arch, "rv32i2p0_m2p0_a2p0_f2p0_c2p0_b_p0p94"
   4              		.attribute unaligned_access, 0
   5              		.attribute stack_align, 16
   6              		.text
   7              	.Ltext0:
   8              		.cfi_sections	.debug_frame
   9              		.section	.rodata.iotx_alcs_coap_adapter_event_notifier.str1.4,"aMS",@progbits,1
  10              		.align	2
  11              	.LC0:
  12 0000 5B696E66 		.string	"[inf] "
  12      5D2000
  13 0007 00       		.align	2
  14              	.LC1:
  15 0008 414C4353 		.string	"ALCS Coap Event: %d, Remote Device Address: %s, Remote Device Port: %d"
  15      20436F61 
  15      70204576 
  15      656E743A 
  15      2025642C 
  16 004f 00       		.align	2
  17              	.LC2:
  18 0050 0D0A00   		.string	"\r\n"
  19              		.section	.text.iotx_alcs_coap_adapter_event_notifier,"ax",@progbits
  20              		.align	1
  21              		.globl	iotx_alcs_coap_adapter_event_notifier
  23              	iotx_alcs_coap_adapter_event_notifier:
  24              	.LFB26:
  25              		.file 1 "C:/Users/stapi/OneDrive/Desktop/GD32VW553/V1_MQTT_OK/GD32VW55X_Wifi_BLE_SDK/GD32VW55x_REL
   1:C:/Users/stapi/OneDrive/Desktop/GD32VW553/V1_MQTT_OK/GD32VW55X_Wifi_BLE_SDK/GD32VW55x_RELEASE_V1.0.2/MSDK/cloud/alicloud/src/protocol/alcs\alcs_adapter.c **** /*
   2:C:/Users/stapi/OneDrive/Desktop/GD32VW553/V1_MQTT_OK/GD32VW55X_Wifi_BLE_SDK/GD32VW55x_RELEASE_V1.0.2/MSDK/cloud/alicloud/src/protocol/alcs\alcs_adapter.c ****  * Copyright (C) 2015-2018 Alibaba Group Holding Limited
   3:C:/Users/stapi/OneDrive/Desktop/GD32VW553/V1_MQTT_OK/GD32VW55X_Wifi_BLE_SDK/GD32VW55x_RELEASE_V1.0.2/MSDK/cloud/alicloud/src/protocol/alcs\alcs_adapter.c ****  */
   4:C:/Users/stapi/OneDrive/Desktop/GD32VW553/V1_MQTT_OK/GD32VW55X_Wifi_BLE_SDK/GD32VW55x_RELEASE_V1.0.2/MSDK/cloud/alicloud/src/protocol/alcs\alcs_adapter.c **** 
   5:C:/Users/stapi/OneDrive/Desktop/GD32VW553/V1_MQTT_OK/GD32VW55X_Wifi_BLE_SDK/GD32VW55x_RELEASE_V1.0.2/MSDK/cloud/alicloud/src/protocol/alcs\alcs_adapter.c **** 
   6:C:/Users/stapi/OneDrive/Desktop/GD32VW553/V1_MQTT_OK/GD32VW55X_Wifi_BLE_SDK/GD32VW55x_RELEASE_V1.0.2/MSDK/cloud/alicloud/src/protocol/alcs\alcs_adapter.c **** 
   7:C:/Users/stapi/OneDrive/Desktop/GD32VW553/V1_MQTT_OK/GD32VW55X_Wifi_BLE_SDK/GD32VW55x_RELEASE_V1.0.2/MSDK/cloud/alicloud/src/protocol/alcs\alcs_adapter.c **** #include <stddef.h>
   8:C:/Users/stapi/OneDrive/Desktop/GD32VW553/V1_MQTT_OK/GD32VW55X_Wifi_BLE_SDK/GD32VW55x_RELEASE_V1.0.2/MSDK/cloud/alicloud/src/protocol/alcs\alcs_adapter.c **** #include <string.h>
   9:C:/Users/stapi/OneDrive/Desktop/GD32VW553/V1_MQTT_OK/GD32VW55X_Wifi_BLE_SDK/GD32VW55x_RELEASE_V1.0.2/MSDK/cloud/alicloud/src/protocol/alcs\alcs_adapter.c **** 
  10:C:/Users/stapi/OneDrive/Desktop/GD32VW553/V1_MQTT_OK/GD32VW55X_Wifi_BLE_SDK/GD32VW55x_RELEASE_V1.0.2/MSDK/cloud/alicloud/src/protocol/alcs\alcs_adapter.c **** #include "iot_import.h"
  11:C:/Users/stapi/OneDrive/Desktop/GD32VW553/V1_MQTT_OK/GD32VW55X_Wifi_BLE_SDK/GD32VW55x_RELEASE_V1.0.2/MSDK/cloud/alicloud/src/protocol/alcs\alcs_adapter.c **** #include "iot_export.h"
  12:C:/Users/stapi/OneDrive/Desktop/GD32VW553/V1_MQTT_OK/GD32VW55X_Wifi_BLE_SDK/GD32VW55x_RELEASE_V1.0.2/MSDK/cloud/alicloud/src/protocol/alcs\alcs_adapter.c **** #include "alcs_api.h"
  13:C:/Users/stapi/OneDrive/Desktop/GD32VW553/V1_MQTT_OK/GD32VW55X_Wifi_BLE_SDK/GD32VW55x_RELEASE_V1.0.2/MSDK/cloud/alicloud/src/protocol/alcs\alcs_adapter.c **** #include "alcs_coap.h"
  14:C:/Users/stapi/OneDrive/Desktop/GD32VW553/V1_MQTT_OK/GD32VW55X_Wifi_BLE_SDK/GD32VW55x_RELEASE_V1.0.2/MSDK/cloud/alicloud/src/protocol/alcs\alcs_adapter.c **** #include "alcs_mqtt.h"
  15:C:/Users/stapi/OneDrive/Desktop/GD32VW553/V1_MQTT_OK/GD32VW55X_Wifi_BLE_SDK/GD32VW55x_RELEASE_V1.0.2/MSDK/cloud/alicloud/src/protocol/alcs\alcs_adapter.c **** #include "CoAPInternal.h"
  16:C:/Users/stapi/OneDrive/Desktop/GD32VW553/V1_MQTT_OK/GD32VW55X_Wifi_BLE_SDK/GD32VW55x_RELEASE_V1.0.2/MSDK/cloud/alicloud/src/protocol/alcs\alcs_adapter.c **** #include "CoAPExport.h"
  17:C:/Users/stapi/OneDrive/Desktop/GD32VW553/V1_MQTT_OK/GD32VW55X_Wifi_BLE_SDK/GD32VW55x_RELEASE_V1.0.2/MSDK/cloud/alicloud/src/protocol/alcs\alcs_adapter.c **** #include "CoAPServer.h"
  18:C:/Users/stapi/OneDrive/Desktop/GD32VW553/V1_MQTT_OK/GD32VW55X_Wifi_BLE_SDK/GD32VW55x_RELEASE_V1.0.2/MSDK/cloud/alicloud/src/protocol/alcs\alcs_adapter.c **** #include "alcs_adapter.h"
  19:C:/Users/stapi/OneDrive/Desktop/GD32VW553/V1_MQTT_OK/GD32VW55X_Wifi_BLE_SDK/GD32VW55x_RELEASE_V1.0.2/MSDK/cloud/alicloud/src/protocol/alcs\alcs_adapter.c **** #include "alcs_mqtt.h"
  20:C:/Users/stapi/OneDrive/Desktop/GD32VW553/V1_MQTT_OK/GD32VW55X_Wifi_BLE_SDK/GD32VW55x_RELEASE_V1.0.2/MSDK/cloud/alicloud/src/protocol/alcs\alcs_adapter.c **** #include "alcs_localsetup.h"
  21:C:/Users/stapi/OneDrive/Desktop/GD32VW553/V1_MQTT_OK/GD32VW55X_Wifi_BLE_SDK/GD32VW55x_RELEASE_V1.0.2/MSDK/cloud/alicloud/src/protocol/alcs\alcs_adapter.c **** #include "CoAPPlatform.h"
  22:C:/Users/stapi/OneDrive/Desktop/GD32VW553/V1_MQTT_OK/GD32VW55X_Wifi_BLE_SDK/GD32VW55x_RELEASE_V1.0.2/MSDK/cloud/alicloud/src/protocol/alcs\alcs_adapter.c **** #include "alcs_api_internal.h"
  23:C:/Users/stapi/OneDrive/Desktop/GD32VW553/V1_MQTT_OK/GD32VW55X_Wifi_BLE_SDK/GD32VW55x_RELEASE_V1.0.2/MSDK/cloud/alicloud/src/protocol/alcs\alcs_adapter.c **** #include "CoAPResource.h"
  24:C:/Users/stapi/OneDrive/Desktop/GD32VW553/V1_MQTT_OK/GD32VW55X_Wifi_BLE_SDK/GD32VW55x_RELEASE_V1.0.2/MSDK/cloud/alicloud/src/protocol/alcs\alcs_adapter.c **** 
  25:C:/Users/stapi/OneDrive/Desktop/GD32VW553/V1_MQTT_OK/GD32VW55X_Wifi_BLE_SDK/GD32VW55x_RELEASE_V1.0.2/MSDK/cloud/alicloud/src/protocol/alcs\alcs_adapter.c **** static iotx_alcs_adapter_t g_alcs_adapter;
  26:C:/Users/stapi/OneDrive/Desktop/GD32VW553/V1_MQTT_OK/GD32VW55X_Wifi_BLE_SDK/GD32VW55x_RELEASE_V1.0.2/MSDK/cloud/alicloud/src/protocol/alcs\alcs_adapter.c **** 
  27:C:/Users/stapi/OneDrive/Desktop/GD32VW553/V1_MQTT_OK/GD32VW55X_Wifi_BLE_SDK/GD32VW55x_RELEASE_V1.0.2/MSDK/cloud/alicloud/src/protocol/alcs\alcs_adapter.c **** static void alcs_heartbeat(void *handle);
  28:C:/Users/stapi/OneDrive/Desktop/GD32VW553/V1_MQTT_OK/GD32VW55X_Wifi_BLE_SDK/GD32VW55x_RELEASE_V1.0.2/MSDK/cloud/alicloud/src/protocol/alcs\alcs_adapter.c **** 
  29:C:/Users/stapi/OneDrive/Desktop/GD32VW553/V1_MQTT_OK/GD32VW55X_Wifi_BLE_SDK/GD32VW55x_RELEASE_V1.0.2/MSDK/cloud/alicloud/src/protocol/alcs\alcs_adapter.c **** static iotx_alcs_adapter_t *__iotx_alcs_get_ctx(void)
  30:C:/Users/stapi/OneDrive/Desktop/GD32VW553/V1_MQTT_OK/GD32VW55X_Wifi_BLE_SDK/GD32VW55x_RELEASE_V1.0.2/MSDK/cloud/alicloud/src/protocol/alcs\alcs_adapter.c **** {
  31:C:/Users/stapi/OneDrive/Desktop/GD32VW553/V1_MQTT_OK/GD32VW55X_Wifi_BLE_SDK/GD32VW55x_RELEASE_V1.0.2/MSDK/cloud/alicloud/src/protocol/alcs\alcs_adapter.c ****     return &g_alcs_adapter;
  32:C:/Users/stapi/OneDrive/Desktop/GD32VW553/V1_MQTT_OK/GD32VW55X_Wifi_BLE_SDK/GD32VW55x_RELEASE_V1.0.2/MSDK/cloud/alicloud/src/protocol/alcs\alcs_adapter.c **** }
  33:C:/Users/stapi/OneDrive/Desktop/GD32VW553/V1_MQTT_OK/GD32VW55X_Wifi_BLE_SDK/GD32VW55x_RELEASE_V1.0.2/MSDK/cloud/alicloud/src/protocol/alcs\alcs_adapter.c **** 
  34:C:/Users/stapi/OneDrive/Desktop/GD32VW553/V1_MQTT_OK/GD32VW55X_Wifi_BLE_SDK/GD32VW55x_RELEASE_V1.0.2/MSDK/cloud/alicloud/src/protocol/alcs\alcs_adapter.c **** iotx_alcs_adapter_t *iotx_alcs_get_ctx(void)
  35:C:/Users/stapi/OneDrive/Desktop/GD32VW553/V1_MQTT_OK/GD32VW55X_Wifi_BLE_SDK/GD32VW55x_RELEASE_V1.0.2/MSDK/cloud/alicloud/src/protocol/alcs\alcs_adapter.c **** {
  36:C:/Users/stapi/OneDrive/Desktop/GD32VW553/V1_MQTT_OK/GD32VW55X_Wifi_BLE_SDK/GD32VW55x_RELEASE_V1.0.2/MSDK/cloud/alicloud/src/protocol/alcs\alcs_adapter.c ****     return &g_alcs_adapter;
  37:C:/Users/stapi/OneDrive/Desktop/GD32VW553/V1_MQTT_OK/GD32VW55X_Wifi_BLE_SDK/GD32VW55x_RELEASE_V1.0.2/MSDK/cloud/alicloud/src/protocol/alcs\alcs_adapter.c **** }
  38:C:/Users/stapi/OneDrive/Desktop/GD32VW553/V1_MQTT_OK/GD32VW55X_Wifi_BLE_SDK/GD32VW55x_RELEASE_V1.0.2/MSDK/cloud/alicloud/src/protocol/alcs\alcs_adapter.c **** 
  39:C:/Users/stapi/OneDrive/Desktop/GD32VW553/V1_MQTT_OK/GD32VW55X_Wifi_BLE_SDK/GD32VW55x_RELEASE_V1.0.2/MSDK/cloud/alicloud/src/protocol/alcs\alcs_adapter.c **** static char *iotx_alcs_topic_parse_pk(char *topic, uint16_t *length)
  40:C:/Users/stapi/OneDrive/Desktop/GD32VW553/V1_MQTT_OK/GD32VW55X_Wifi_BLE_SDK/GD32VW55x_RELEASE_V1.0.2/MSDK/cloud/alicloud/src/protocol/alcs\alcs_adapter.c **** {
  41:C:/Users/stapi/OneDrive/Desktop/GD32VW553/V1_MQTT_OK/GD32VW55X_Wifi_BLE_SDK/GD32VW55x_RELEASE_V1.0.2/MSDK/cloud/alicloud/src/protocol/alcs\alcs_adapter.c ****     if (topic == NULL || length == NULL) {
  42:C:/Users/stapi/OneDrive/Desktop/GD32VW553/V1_MQTT_OK/GD32VW55X_Wifi_BLE_SDK/GD32VW55x_RELEASE_V1.0.2/MSDK/cloud/alicloud/src/protocol/alcs\alcs_adapter.c ****         COAP_ERR("Invalid Parameter");
  43:C:/Users/stapi/OneDrive/Desktop/GD32VW553/V1_MQTT_OK/GD32VW55X_Wifi_BLE_SDK/GD32VW55x_RELEASE_V1.0.2/MSDK/cloud/alicloud/src/protocol/alcs\alcs_adapter.c ****         return NULL;
  44:C:/Users/stapi/OneDrive/Desktop/GD32VW553/V1_MQTT_OK/GD32VW55X_Wifi_BLE_SDK/GD32VW55x_RELEASE_V1.0.2/MSDK/cloud/alicloud/src/protocol/alcs\alcs_adapter.c ****     }
  45:C:/Users/stapi/OneDrive/Desktop/GD32VW553/V1_MQTT_OK/GD32VW55X_Wifi_BLE_SDK/GD32VW55x_RELEASE_V1.0.2/MSDK/cloud/alicloud/src/protocol/alcs\alcs_adapter.c **** 
  46:C:/Users/stapi/OneDrive/Desktop/GD32VW553/V1_MQTT_OK/GD32VW55X_Wifi_BLE_SDK/GD32VW55x_RELEASE_V1.0.2/MSDK/cloud/alicloud/src/protocol/alcs\alcs_adapter.c ****     char *pos = NULL;
  47:C:/Users/stapi/OneDrive/Desktop/GD32VW553/V1_MQTT_OK/GD32VW55X_Wifi_BLE_SDK/GD32VW55x_RELEASE_V1.0.2/MSDK/cloud/alicloud/src/protocol/alcs\alcs_adapter.c ****     uint8_t slash_count = 0;
  48:C:/Users/stapi/OneDrive/Desktop/GD32VW553/V1_MQTT_OK/GD32VW55X_Wifi_BLE_SDK/GD32VW55x_RELEASE_V1.0.2/MSDK/cloud/alicloud/src/protocol/alcs\alcs_adapter.c ****     uint16_t idx = 0;
  49:C:/Users/stapi/OneDrive/Desktop/GD32VW553/V1_MQTT_OK/GD32VW55X_Wifi_BLE_SDK/GD32VW55x_RELEASE_V1.0.2/MSDK/cloud/alicloud/src/protocol/alcs\alcs_adapter.c ****     uint16_t topic_len = strlen(topic);
  50:C:/Users/stapi/OneDrive/Desktop/GD32VW553/V1_MQTT_OK/GD32VW55X_Wifi_BLE_SDK/GD32VW55x_RELEASE_V1.0.2/MSDK/cloud/alicloud/src/protocol/alcs\alcs_adapter.c **** 
  51:C:/Users/stapi/OneDrive/Desktop/GD32VW553/V1_MQTT_OK/GD32VW55X_Wifi_BLE_SDK/GD32VW55x_RELEASE_V1.0.2/MSDK/cloud/alicloud/src/protocol/alcs\alcs_adapter.c ****     while (idx < topic_len) {
  52:C:/Users/stapi/OneDrive/Desktop/GD32VW553/V1_MQTT_OK/GD32VW55X_Wifi_BLE_SDK/GD32VW55x_RELEASE_V1.0.2/MSDK/cloud/alicloud/src/protocol/alcs\alcs_adapter.c ****         if (topic[idx] == '/') {
  53:C:/Users/stapi/OneDrive/Desktop/GD32VW553/V1_MQTT_OK/GD32VW55X_Wifi_BLE_SDK/GD32VW55x_RELEASE_V1.0.2/MSDK/cloud/alicloud/src/protocol/alcs\alcs_adapter.c ****             slash_count++;
  54:C:/Users/stapi/OneDrive/Desktop/GD32VW553/V1_MQTT_OK/GD32VW55X_Wifi_BLE_SDK/GD32VW55x_RELEASE_V1.0.2/MSDK/cloud/alicloud/src/protocol/alcs\alcs_adapter.c ****             if (slash_count == 2) {
  55:C:/Users/stapi/OneDrive/Desktop/GD32VW553/V1_MQTT_OK/GD32VW55X_Wifi_BLE_SDK/GD32VW55x_RELEASE_V1.0.2/MSDK/cloud/alicloud/src/protocol/alcs\alcs_adapter.c ****                 pos = topic + idx + 1;
  56:C:/Users/stapi/OneDrive/Desktop/GD32VW553/V1_MQTT_OK/GD32VW55X_Wifi_BLE_SDK/GD32VW55x_RELEASE_V1.0.2/MSDK/cloud/alicloud/src/protocol/alcs\alcs_adapter.c ****             }
  57:C:/Users/stapi/OneDrive/Desktop/GD32VW553/V1_MQTT_OK/GD32VW55X_Wifi_BLE_SDK/GD32VW55x_RELEASE_V1.0.2/MSDK/cloud/alicloud/src/protocol/alcs\alcs_adapter.c ****             if (slash_count == 3) {
  58:C:/Users/stapi/OneDrive/Desktop/GD32VW553/V1_MQTT_OK/GD32VW55X_Wifi_BLE_SDK/GD32VW55x_RELEASE_V1.0.2/MSDK/cloud/alicloud/src/protocol/alcs\alcs_adapter.c ****                 *length = topic + idx - pos;
  59:C:/Users/stapi/OneDrive/Desktop/GD32VW553/V1_MQTT_OK/GD32VW55X_Wifi_BLE_SDK/GD32VW55x_RELEASE_V1.0.2/MSDK/cloud/alicloud/src/protocol/alcs\alcs_adapter.c ****             }
  60:C:/Users/stapi/OneDrive/Desktop/GD32VW553/V1_MQTT_OK/GD32VW55X_Wifi_BLE_SDK/GD32VW55x_RELEASE_V1.0.2/MSDK/cloud/alicloud/src/protocol/alcs\alcs_adapter.c ****         }
  61:C:/Users/stapi/OneDrive/Desktop/GD32VW553/V1_MQTT_OK/GD32VW55X_Wifi_BLE_SDK/GD32VW55x_RELEASE_V1.0.2/MSDK/cloud/alicloud/src/protocol/alcs\alcs_adapter.c ****         idx++;
  62:C:/Users/stapi/OneDrive/Desktop/GD32VW553/V1_MQTT_OK/GD32VW55X_Wifi_BLE_SDK/GD32VW55x_RELEASE_V1.0.2/MSDK/cloud/alicloud/src/protocol/alcs\alcs_adapter.c ****     }
  63:C:/Users/stapi/OneDrive/Desktop/GD32VW553/V1_MQTT_OK/GD32VW55X_Wifi_BLE_SDK/GD32VW55x_RELEASE_V1.0.2/MSDK/cloud/alicloud/src/protocol/alcs\alcs_adapter.c **** 
  64:C:/Users/stapi/OneDrive/Desktop/GD32VW553/V1_MQTT_OK/GD32VW55X_Wifi_BLE_SDK/GD32VW55x_RELEASE_V1.0.2/MSDK/cloud/alicloud/src/protocol/alcs\alcs_adapter.c ****     return pos;
  65:C:/Users/stapi/OneDrive/Desktop/GD32VW553/V1_MQTT_OK/GD32VW55X_Wifi_BLE_SDK/GD32VW55x_RELEASE_V1.0.2/MSDK/cloud/alicloud/src/protocol/alcs\alcs_adapter.c **** }
  66:C:/Users/stapi/OneDrive/Desktop/GD32VW553/V1_MQTT_OK/GD32VW55X_Wifi_BLE_SDK/GD32VW55x_RELEASE_V1.0.2/MSDK/cloud/alicloud/src/protocol/alcs\alcs_adapter.c **** 
  67:C:/Users/stapi/OneDrive/Desktop/GD32VW553/V1_MQTT_OK/GD32VW55X_Wifi_BLE_SDK/GD32VW55x_RELEASE_V1.0.2/MSDK/cloud/alicloud/src/protocol/alcs\alcs_adapter.c **** static char *iotx_alcs_topic_parse_dn(char *topic, uint16_t *length)
  68:C:/Users/stapi/OneDrive/Desktop/GD32VW553/V1_MQTT_OK/GD32VW55X_Wifi_BLE_SDK/GD32VW55x_RELEASE_V1.0.2/MSDK/cloud/alicloud/src/protocol/alcs\alcs_adapter.c **** {
  69:C:/Users/stapi/OneDrive/Desktop/GD32VW553/V1_MQTT_OK/GD32VW55X_Wifi_BLE_SDK/GD32VW55x_RELEASE_V1.0.2/MSDK/cloud/alicloud/src/protocol/alcs\alcs_adapter.c ****     if (topic == NULL || length == NULL) {
  70:C:/Users/stapi/OneDrive/Desktop/GD32VW553/V1_MQTT_OK/GD32VW55X_Wifi_BLE_SDK/GD32VW55x_RELEASE_V1.0.2/MSDK/cloud/alicloud/src/protocol/alcs\alcs_adapter.c ****         COAP_ERR("Invalid Parameter");
  71:C:/Users/stapi/OneDrive/Desktop/GD32VW553/V1_MQTT_OK/GD32VW55X_Wifi_BLE_SDK/GD32VW55x_RELEASE_V1.0.2/MSDK/cloud/alicloud/src/protocol/alcs\alcs_adapter.c ****         return NULL;
  72:C:/Users/stapi/OneDrive/Desktop/GD32VW553/V1_MQTT_OK/GD32VW55X_Wifi_BLE_SDK/GD32VW55x_RELEASE_V1.0.2/MSDK/cloud/alicloud/src/protocol/alcs\alcs_adapter.c ****     }
  73:C:/Users/stapi/OneDrive/Desktop/GD32VW553/V1_MQTT_OK/GD32VW55X_Wifi_BLE_SDK/GD32VW55x_RELEASE_V1.0.2/MSDK/cloud/alicloud/src/protocol/alcs\alcs_adapter.c **** 
  74:C:/Users/stapi/OneDrive/Desktop/GD32VW553/V1_MQTT_OK/GD32VW55X_Wifi_BLE_SDK/GD32VW55x_RELEASE_V1.0.2/MSDK/cloud/alicloud/src/protocol/alcs\alcs_adapter.c ****     char *pos = NULL;
  75:C:/Users/stapi/OneDrive/Desktop/GD32VW553/V1_MQTT_OK/GD32VW55X_Wifi_BLE_SDK/GD32VW55x_RELEASE_V1.0.2/MSDK/cloud/alicloud/src/protocol/alcs\alcs_adapter.c ****     uint8_t slash_count = 0;
  76:C:/Users/stapi/OneDrive/Desktop/GD32VW553/V1_MQTT_OK/GD32VW55X_Wifi_BLE_SDK/GD32VW55x_RELEASE_V1.0.2/MSDK/cloud/alicloud/src/protocol/alcs\alcs_adapter.c ****     uint16_t idx = 0;
  77:C:/Users/stapi/OneDrive/Desktop/GD32VW553/V1_MQTT_OK/GD32VW55X_Wifi_BLE_SDK/GD32VW55x_RELEASE_V1.0.2/MSDK/cloud/alicloud/src/protocol/alcs\alcs_adapter.c ****     uint16_t topic_len = strlen(topic);
  78:C:/Users/stapi/OneDrive/Desktop/GD32VW553/V1_MQTT_OK/GD32VW55X_Wifi_BLE_SDK/GD32VW55x_RELEASE_V1.0.2/MSDK/cloud/alicloud/src/protocol/alcs\alcs_adapter.c **** 
  79:C:/Users/stapi/OneDrive/Desktop/GD32VW553/V1_MQTT_OK/GD32VW55X_Wifi_BLE_SDK/GD32VW55x_RELEASE_V1.0.2/MSDK/cloud/alicloud/src/protocol/alcs\alcs_adapter.c ****     while (idx < topic_len) {
  80:C:/Users/stapi/OneDrive/Desktop/GD32VW553/V1_MQTT_OK/GD32VW55X_Wifi_BLE_SDK/GD32VW55x_RELEASE_V1.0.2/MSDK/cloud/alicloud/src/protocol/alcs\alcs_adapter.c ****         if (topic[idx] == '/') {
  81:C:/Users/stapi/OneDrive/Desktop/GD32VW553/V1_MQTT_OK/GD32VW55X_Wifi_BLE_SDK/GD32VW55x_RELEASE_V1.0.2/MSDK/cloud/alicloud/src/protocol/alcs\alcs_adapter.c ****             slash_count++;
  82:C:/Users/stapi/OneDrive/Desktop/GD32VW553/V1_MQTT_OK/GD32VW55X_Wifi_BLE_SDK/GD32VW55x_RELEASE_V1.0.2/MSDK/cloud/alicloud/src/protocol/alcs\alcs_adapter.c ****             if (slash_count == 3) {
  83:C:/Users/stapi/OneDrive/Desktop/GD32VW553/V1_MQTT_OK/GD32VW55X_Wifi_BLE_SDK/GD32VW55x_RELEASE_V1.0.2/MSDK/cloud/alicloud/src/protocol/alcs\alcs_adapter.c ****                 pos = topic + idx + 1;
  84:C:/Users/stapi/OneDrive/Desktop/GD32VW553/V1_MQTT_OK/GD32VW55X_Wifi_BLE_SDK/GD32VW55x_RELEASE_V1.0.2/MSDK/cloud/alicloud/src/protocol/alcs\alcs_adapter.c ****             }
  85:C:/Users/stapi/OneDrive/Desktop/GD32VW553/V1_MQTT_OK/GD32VW55X_Wifi_BLE_SDK/GD32VW55x_RELEASE_V1.0.2/MSDK/cloud/alicloud/src/protocol/alcs\alcs_adapter.c ****             if (slash_count == 4) {
  86:C:/Users/stapi/OneDrive/Desktop/GD32VW553/V1_MQTT_OK/GD32VW55X_Wifi_BLE_SDK/GD32VW55x_RELEASE_V1.0.2/MSDK/cloud/alicloud/src/protocol/alcs\alcs_adapter.c ****                 *length = topic + idx - pos;
  87:C:/Users/stapi/OneDrive/Desktop/GD32VW553/V1_MQTT_OK/GD32VW55X_Wifi_BLE_SDK/GD32VW55x_RELEASE_V1.0.2/MSDK/cloud/alicloud/src/protocol/alcs\alcs_adapter.c ****             }
  88:C:/Users/stapi/OneDrive/Desktop/GD32VW553/V1_MQTT_OK/GD32VW55X_Wifi_BLE_SDK/GD32VW55x_RELEASE_V1.0.2/MSDK/cloud/alicloud/src/protocol/alcs\alcs_adapter.c ****         }
  89:C:/Users/stapi/OneDrive/Desktop/GD32VW553/V1_MQTT_OK/GD32VW55X_Wifi_BLE_SDK/GD32VW55x_RELEASE_V1.0.2/MSDK/cloud/alicloud/src/protocol/alcs\alcs_adapter.c ****         idx++;
  90:C:/Users/stapi/OneDrive/Desktop/GD32VW553/V1_MQTT_OK/GD32VW55X_Wifi_BLE_SDK/GD32VW55x_RELEASE_V1.0.2/MSDK/cloud/alicloud/src/protocol/alcs\alcs_adapter.c ****     }
  91:C:/Users/stapi/OneDrive/Desktop/GD32VW553/V1_MQTT_OK/GD32VW55X_Wifi_BLE_SDK/GD32VW55x_RELEASE_V1.0.2/MSDK/cloud/alicloud/src/protocol/alcs\alcs_adapter.c **** 
  92:C:/Users/stapi/OneDrive/Desktop/GD32VW553/V1_MQTT_OK/GD32VW55X_Wifi_BLE_SDK/GD32VW55x_RELEASE_V1.0.2/MSDK/cloud/alicloud/src/protocol/alcs\alcs_adapter.c ****     return pos;
  93:C:/Users/stapi/OneDrive/Desktop/GD32VW553/V1_MQTT_OK/GD32VW55X_Wifi_BLE_SDK/GD32VW55x_RELEASE_V1.0.2/MSDK/cloud/alicloud/src/protocol/alcs\alcs_adapter.c **** }
  94:C:/Users/stapi/OneDrive/Desktop/GD32VW553/V1_MQTT_OK/GD32VW55X_Wifi_BLE_SDK/GD32VW55x_RELEASE_V1.0.2/MSDK/cloud/alicloud/src/protocol/alcs\alcs_adapter.c **** 
  95:C:/Users/stapi/OneDrive/Desktop/GD32VW553/V1_MQTT_OK/GD32VW55X_Wifi_BLE_SDK/GD32VW55x_RELEASE_V1.0.2/MSDK/cloud/alicloud/src/protocol/alcs\alcs_adapter.c **** static int _iotx_alcs_send_list_search_and_remove(iotx_alcs_adapter_t *adapter, CoAPMessage *messag
  96:C:/Users/stapi/OneDrive/Desktop/GD32VW553/V1_MQTT_OK/GD32VW55X_Wifi_BLE_SDK/GD32VW55x_RELEASE_V1.0.2/MSDK/cloud/alicloud/src/protocol/alcs\alcs_adapter.c ****         iotx_alcs_send_msg_t **send_msg)
  97:C:/Users/stapi/OneDrive/Desktop/GD32VW553/V1_MQTT_OK/GD32VW55X_Wifi_BLE_SDK/GD32VW55x_RELEASE_V1.0.2/MSDK/cloud/alicloud/src/protocol/alcs\alcs_adapter.c **** {
  98:C:/Users/stapi/OneDrive/Desktop/GD32VW553/V1_MQTT_OK/GD32VW55X_Wifi_BLE_SDK/GD32VW55x_RELEASE_V1.0.2/MSDK/cloud/alicloud/src/protocol/alcs\alcs_adapter.c ****     iotx_alcs_send_msg_t *node = NULL;
  99:C:/Users/stapi/OneDrive/Desktop/GD32VW553/V1_MQTT_OK/GD32VW55X_Wifi_BLE_SDK/GD32VW55x_RELEASE_V1.0.2/MSDK/cloud/alicloud/src/protocol/alcs\alcs_adapter.c ****     iotx_alcs_send_msg_t *next = NULL;
 100:C:/Users/stapi/OneDrive/Desktop/GD32VW553/V1_MQTT_OK/GD32VW55X_Wifi_BLE_SDK/GD32VW55x_RELEASE_V1.0.2/MSDK/cloud/alicloud/src/protocol/alcs\alcs_adapter.c **** 
 101:C:/Users/stapi/OneDrive/Desktop/GD32VW553/V1_MQTT_OK/GD32VW55X_Wifi_BLE_SDK/GD32VW55x_RELEASE_V1.0.2/MSDK/cloud/alicloud/src/protocol/alcs\alcs_adapter.c ****     list_for_each_entry_safe(node, next, &adapter->alcs_send_list, linked_list, iotx_alcs_send_msg_
 102:C:/Users/stapi/OneDrive/Desktop/GD32VW553/V1_MQTT_OK/GD32VW55X_Wifi_BLE_SDK/GD32VW55x_RELEASE_V1.0.2/MSDK/cloud/alicloud/src/protocol/alcs\alcs_adapter.c ****         if (message->header.tokenlen == node->token_len &&
 103:C:/Users/stapi/OneDrive/Desktop/GD32VW553/V1_MQTT_OK/GD32VW55X_Wifi_BLE_SDK/GD32VW55x_RELEASE_V1.0.2/MSDK/cloud/alicloud/src/protocol/alcs\alcs_adapter.c ****             memcmp(message->token, node->token, node->token_len) == 0) {
 104:C:/Users/stapi/OneDrive/Desktop/GD32VW553/V1_MQTT_OK/GD32VW55X_Wifi_BLE_SDK/GD32VW55x_RELEASE_V1.0.2/MSDK/cloud/alicloud/src/protocol/alcs\alcs_adapter.c ****             *send_msg = node;
 105:C:/Users/stapi/OneDrive/Desktop/GD32VW553/V1_MQTT_OK/GD32VW55X_Wifi_BLE_SDK/GD32VW55x_RELEASE_V1.0.2/MSDK/cloud/alicloud/src/protocol/alcs\alcs_adapter.c ****             list_del(&node->linked_list);
 106:C:/Users/stapi/OneDrive/Desktop/GD32VW553/V1_MQTT_OK/GD32VW55X_Wifi_BLE_SDK/GD32VW55x_RELEASE_V1.0.2/MSDK/cloud/alicloud/src/protocol/alcs\alcs_adapter.c ****             return SUCCESS_RETURN;
 107:C:/Users/stapi/OneDrive/Desktop/GD32VW553/V1_MQTT_OK/GD32VW55X_Wifi_BLE_SDK/GD32VW55x_RELEASE_V1.0.2/MSDK/cloud/alicloud/src/protocol/alcs\alcs_adapter.c ****         }
 108:C:/Users/stapi/OneDrive/Desktop/GD32VW553/V1_MQTT_OK/GD32VW55X_Wifi_BLE_SDK/GD32VW55x_RELEASE_V1.0.2/MSDK/cloud/alicloud/src/protocol/alcs\alcs_adapter.c ****     }
 109:C:/Users/stapi/OneDrive/Desktop/GD32VW553/V1_MQTT_OK/GD32VW55X_Wifi_BLE_SDK/GD32VW55x_RELEASE_V1.0.2/MSDK/cloud/alicloud/src/protocol/alcs\alcs_adapter.c **** 
 110:C:/Users/stapi/OneDrive/Desktop/GD32VW553/V1_MQTT_OK/GD32VW55X_Wifi_BLE_SDK/GD32VW55x_RELEASE_V1.0.2/MSDK/cloud/alicloud/src/protocol/alcs\alcs_adapter.c ****     return FAIL_RETURN;
 111:C:/Users/stapi/OneDrive/Desktop/GD32VW553/V1_MQTT_OK/GD32VW55X_Wifi_BLE_SDK/GD32VW55x_RELEASE_V1.0.2/MSDK/cloud/alicloud/src/protocol/alcs\alcs_adapter.c **** }
 112:C:/Users/stapi/OneDrive/Desktop/GD32VW553/V1_MQTT_OK/GD32VW55X_Wifi_BLE_SDK/GD32VW55x_RELEASE_V1.0.2/MSDK/cloud/alicloud/src/protocol/alcs\alcs_adapter.c **** 
 113:C:/Users/stapi/OneDrive/Desktop/GD32VW553/V1_MQTT_OK/GD32VW55X_Wifi_BLE_SDK/GD32VW55x_RELEASE_V1.0.2/MSDK/cloud/alicloud/src/protocol/alcs\alcs_adapter.c **** void iotx_alcs_coap_adapter_send_msg_handle(CoAPContext *context,
 114:C:/Users/stapi/OneDrive/Desktop/GD32VW553/V1_MQTT_OK/GD32VW55X_Wifi_BLE_SDK/GD32VW55x_RELEASE_V1.0.2/MSDK/cloud/alicloud/src/protocol/alcs\alcs_adapter.c ****         CoAPReqResult result,
 115:C:/Users/stapi/OneDrive/Desktop/GD32VW553/V1_MQTT_OK/GD32VW55X_Wifi_BLE_SDK/GD32VW55x_RELEASE_V1.0.2/MSDK/cloud/alicloud/src/protocol/alcs\alcs_adapter.c ****         void *userdata,
 116:C:/Users/stapi/OneDrive/Desktop/GD32VW553/V1_MQTT_OK/GD32VW55X_Wifi_BLE_SDK/GD32VW55x_RELEASE_V1.0.2/MSDK/cloud/alicloud/src/protocol/alcs\alcs_adapter.c ****         NetworkAddr *remote,
 117:C:/Users/stapi/OneDrive/Desktop/GD32VW553/V1_MQTT_OK/GD32VW55X_Wifi_BLE_SDK/GD32VW55x_RELEASE_V1.0.2/MSDK/cloud/alicloud/src/protocol/alcs\alcs_adapter.c ****         CoAPMessage *message)
 118:C:/Users/stapi/OneDrive/Desktop/GD32VW553/V1_MQTT_OK/GD32VW55X_Wifi_BLE_SDK/GD32VW55x_RELEASE_V1.0.2/MSDK/cloud/alicloud/src/protocol/alcs\alcs_adapter.c **** {
 119:C:/Users/stapi/OneDrive/Desktop/GD32VW553/V1_MQTT_OK/GD32VW55X_Wifi_BLE_SDK/GD32VW55x_RELEASE_V1.0.2/MSDK/cloud/alicloud/src/protocol/alcs\alcs_adapter.c ****     int res = 0;
 120:C:/Users/stapi/OneDrive/Desktop/GD32VW553/V1_MQTT_OK/GD32VW55X_Wifi_BLE_SDK/GD32VW55x_RELEASE_V1.0.2/MSDK/cloud/alicloud/src/protocol/alcs\alcs_adapter.c ****     iotx_alcs_adapter_t *adapter = (iotx_alcs_adapter_t *)userdata;
 121:C:/Users/stapi/OneDrive/Desktop/GD32VW553/V1_MQTT_OK/GD32VW55X_Wifi_BLE_SDK/GD32VW55x_RELEASE_V1.0.2/MSDK/cloud/alicloud/src/protocol/alcs\alcs_adapter.c ****     iotx_alcs_event_msg_t event;
 122:C:/Users/stapi/OneDrive/Desktop/GD32VW553/V1_MQTT_OK/GD32VW55X_Wifi_BLE_SDK/GD32VW55x_RELEASE_V1.0.2/MSDK/cloud/alicloud/src/protocol/alcs\alcs_adapter.c ****     memset(&event, 0, sizeof(iotx_alcs_event_msg_t));
 123:C:/Users/stapi/OneDrive/Desktop/GD32VW553/V1_MQTT_OK/GD32VW55X_Wifi_BLE_SDK/GD32VW55x_RELEASE_V1.0.2/MSDK/cloud/alicloud/src/protocol/alcs\alcs_adapter.c **** 
 124:C:/Users/stapi/OneDrive/Desktop/GD32VW553/V1_MQTT_OK/GD32VW55X_Wifi_BLE_SDK/GD32VW55x_RELEASE_V1.0.2/MSDK/cloud/alicloud/src/protocol/alcs\alcs_adapter.c ****     switch (result) {
 125:C:/Users/stapi/OneDrive/Desktop/GD32VW553/V1_MQTT_OK/GD32VW55X_Wifi_BLE_SDK/GD32VW55x_RELEASE_V1.0.2/MSDK/cloud/alicloud/src/protocol/alcs\alcs_adapter.c ****         case COAP_REQUEST_SUCCESS: {
 126:C:/Users/stapi/OneDrive/Desktop/GD32VW553/V1_MQTT_OK/GD32VW55X_Wifi_BLE_SDK/GD32VW55x_RELEASE_V1.0.2/MSDK/cloud/alicloud/src/protocol/alcs\alcs_adapter.c ****             iotx_alcs_transfer_msg_t transfer_msg;
 127:C:/Users/stapi/OneDrive/Desktop/GD32VW553/V1_MQTT_OK/GD32VW55X_Wifi_BLE_SDK/GD32VW55x_RELEASE_V1.0.2/MSDK/cloud/alicloud/src/protocol/alcs\alcs_adapter.c ****             iotx_alcs_send_msg_t *send_msg = NULL;
 128:C:/Users/stapi/OneDrive/Desktop/GD32VW553/V1_MQTT_OK/GD32VW55X_Wifi_BLE_SDK/GD32VW55x_RELEASE_V1.0.2/MSDK/cloud/alicloud/src/protocol/alcs\alcs_adapter.c **** 
 129:C:/Users/stapi/OneDrive/Desktop/GD32VW553/V1_MQTT_OK/GD32VW55X_Wifi_BLE_SDK/GD32VW55x_RELEASE_V1.0.2/MSDK/cloud/alicloud/src/protocol/alcs\alcs_adapter.c ****             memset(&transfer_msg, 0, sizeof(iotx_alcs_transfer_msg_t));
 130:C:/Users/stapi/OneDrive/Desktop/GD32VW553/V1_MQTT_OK/GD32VW55X_Wifi_BLE_SDK/GD32VW55x_RELEASE_V1.0.2/MSDK/cloud/alicloud/src/protocol/alcs\alcs_adapter.c **** 
 131:C:/Users/stapi/OneDrive/Desktop/GD32VW553/V1_MQTT_OK/GD32VW55X_Wifi_BLE_SDK/GD32VW55x_RELEASE_V1.0.2/MSDK/cloud/alicloud/src/protocol/alcs\alcs_adapter.c ****             transfer_msg.ip = (char *)remote->addr;
 132:C:/Users/stapi/OneDrive/Desktop/GD32VW553/V1_MQTT_OK/GD32VW55X_Wifi_BLE_SDK/GD32VW55x_RELEASE_V1.0.2/MSDK/cloud/alicloud/src/protocol/alcs\alcs_adapter.c ****             transfer_msg.port = remote->port;
 133:C:/Users/stapi/OneDrive/Desktop/GD32VW553/V1_MQTT_OK/GD32VW55X_Wifi_BLE_SDK/GD32VW55x_RELEASE_V1.0.2/MSDK/cloud/alicloud/src/protocol/alcs\alcs_adapter.c ****             HAL_MutexLock(adapter->mutex);
 134:C:/Users/stapi/OneDrive/Desktop/GD32VW553/V1_MQTT_OK/GD32VW55X_Wifi_BLE_SDK/GD32VW55x_RELEASE_V1.0.2/MSDK/cloud/alicloud/src/protocol/alcs\alcs_adapter.c ****             res = _iotx_alcs_send_list_search_and_remove(adapter, message, &send_msg);
 135:C:/Users/stapi/OneDrive/Desktop/GD32VW553/V1_MQTT_OK/GD32VW55X_Wifi_BLE_SDK/GD32VW55x_RELEASE_V1.0.2/MSDK/cloud/alicloud/src/protocol/alcs\alcs_adapter.c ****             HAL_MutexUnlock(adapter->mutex);
 136:C:/Users/stapi/OneDrive/Desktop/GD32VW553/V1_MQTT_OK/GD32VW55X_Wifi_BLE_SDK/GD32VW55x_RELEASE_V1.0.2/MSDK/cloud/alicloud/src/protocol/alcs\alcs_adapter.c **** 
 137:C:/Users/stapi/OneDrive/Desktop/GD32VW553/V1_MQTT_OK/GD32VW55X_Wifi_BLE_SDK/GD32VW55x_RELEASE_V1.0.2/MSDK/cloud/alicloud/src/protocol/alcs\alcs_adapter.c ****             if (res < SUCCESS_RETURN) {
 138:C:/Users/stapi/OneDrive/Desktop/GD32VW553/V1_MQTT_OK/GD32VW55X_Wifi_BLE_SDK/GD32VW55x_RELEASE_V1.0.2/MSDK/cloud/alicloud/src/protocol/alcs\alcs_adapter.c ****                 return;
 139:C:/Users/stapi/OneDrive/Desktop/GD32VW553/V1_MQTT_OK/GD32VW55X_Wifi_BLE_SDK/GD32VW55x_RELEASE_V1.0.2/MSDK/cloud/alicloud/src/protocol/alcs\alcs_adapter.c ****             }
 140:C:/Users/stapi/OneDrive/Desktop/GD32VW553/V1_MQTT_OK/GD32VW55X_Wifi_BLE_SDK/GD32VW55x_RELEASE_V1.0.2/MSDK/cloud/alicloud/src/protocol/alcs\alcs_adapter.c **** 
 141:C:/Users/stapi/OneDrive/Desktop/GD32VW553/V1_MQTT_OK/GD32VW55X_Wifi_BLE_SDK/GD32VW55x_RELEASE_V1.0.2/MSDK/cloud/alicloud/src/protocol/alcs\alcs_adapter.c ****             transfer_msg.uri = send_msg->uri;
 142:C:/Users/stapi/OneDrive/Desktop/GD32VW553/V1_MQTT_OK/GD32VW55X_Wifi_BLE_SDK/GD32VW55x_RELEASE_V1.0.2/MSDK/cloud/alicloud/src/protocol/alcs\alcs_adapter.c ****             transfer_msg.token_len = send_msg->token_len;
 143:C:/Users/stapi/OneDrive/Desktop/GD32VW553/V1_MQTT_OK/GD32VW55X_Wifi_BLE_SDK/GD32VW55x_RELEASE_V1.0.2/MSDK/cloud/alicloud/src/protocol/alcs\alcs_adapter.c ****             transfer_msg.token = send_msg->token;
 144:C:/Users/stapi/OneDrive/Desktop/GD32VW553/V1_MQTT_OK/GD32VW55X_Wifi_BLE_SDK/GD32VW55x_RELEASE_V1.0.2/MSDK/cloud/alicloud/src/protocol/alcs\alcs_adapter.c ****             transfer_msg.payload_len = message->payloadlen;
 145:C:/Users/stapi/OneDrive/Desktop/GD32VW553/V1_MQTT_OK/GD32VW55X_Wifi_BLE_SDK/GD32VW55x_RELEASE_V1.0.2/MSDK/cloud/alicloud/src/protocol/alcs\alcs_adapter.c ****             transfer_msg.payload = message->payload;
 146:C:/Users/stapi/OneDrive/Desktop/GD32VW553/V1_MQTT_OK/GD32VW55X_Wifi_BLE_SDK/GD32VW55x_RELEASE_V1.0.2/MSDK/cloud/alicloud/src/protocol/alcs\alcs_adapter.c **** 
 147:C:/Users/stapi/OneDrive/Desktop/GD32VW553/V1_MQTT_OK/GD32VW55X_Wifi_BLE_SDK/GD32VW55x_RELEASE_V1.0.2/MSDK/cloud/alicloud/src/protocol/alcs\alcs_adapter.c ****             event.event_type = IOTX_ALCS_EVENT_MSG_SEND_MESSAGE_SUCCESS;
 148:C:/Users/stapi/OneDrive/Desktop/GD32VW553/V1_MQTT_OK/GD32VW55X_Wifi_BLE_SDK/GD32VW55x_RELEASE_V1.0.2/MSDK/cloud/alicloud/src/protocol/alcs\alcs_adapter.c ****             event.msg = &transfer_msg;
 149:C:/Users/stapi/OneDrive/Desktop/GD32VW553/V1_MQTT_OK/GD32VW55X_Wifi_BLE_SDK/GD32VW55x_RELEASE_V1.0.2/MSDK/cloud/alicloud/src/protocol/alcs\alcs_adapter.c **** 
 150:C:/Users/stapi/OneDrive/Desktop/GD32VW553/V1_MQTT_OK/GD32VW55X_Wifi_BLE_SDK/GD32VW55x_RELEASE_V1.0.2/MSDK/cloud/alicloud/src/protocol/alcs\alcs_adapter.c ****             adapter->alcs_event_handle->h_fp(adapter->alcs_event_handle->pcontext, (void *)adapter,
 151:C:/Users/stapi/OneDrive/Desktop/GD32VW553/V1_MQTT_OK/GD32VW55X_Wifi_BLE_SDK/GD32VW55x_RELEASE_V1.0.2/MSDK/cloud/alicloud/src/protocol/alcs\alcs_adapter.c **** 
 152:C:/Users/stapi/OneDrive/Desktop/GD32VW553/V1_MQTT_OK/GD32VW55X_Wifi_BLE_SDK/GD32VW55x_RELEASE_V1.0.2/MSDK/cloud/alicloud/src/protocol/alcs\alcs_adapter.c ****             LITE_free(send_msg->token);
 153:C:/Users/stapi/OneDrive/Desktop/GD32VW553/V1_MQTT_OK/GD32VW55X_Wifi_BLE_SDK/GD32VW55x_RELEASE_V1.0.2/MSDK/cloud/alicloud/src/protocol/alcs\alcs_adapter.c ****             LITE_free(send_msg->uri);
 154:C:/Users/stapi/OneDrive/Desktop/GD32VW553/V1_MQTT_OK/GD32VW55X_Wifi_BLE_SDK/GD32VW55x_RELEASE_V1.0.2/MSDK/cloud/alicloud/src/protocol/alcs\alcs_adapter.c ****             LITE_free(send_msg);
 155:C:/Users/stapi/OneDrive/Desktop/GD32VW553/V1_MQTT_OK/GD32VW55X_Wifi_BLE_SDK/GD32VW55x_RELEASE_V1.0.2/MSDK/cloud/alicloud/src/protocol/alcs\alcs_adapter.c ****         }
 156:C:/Users/stapi/OneDrive/Desktop/GD32VW553/V1_MQTT_OK/GD32VW55X_Wifi_BLE_SDK/GD32VW55x_RELEASE_V1.0.2/MSDK/cloud/alicloud/src/protocol/alcs\alcs_adapter.c ****         break;
 157:C:/Users/stapi/OneDrive/Desktop/GD32VW553/V1_MQTT_OK/GD32VW55X_Wifi_BLE_SDK/GD32VW55x_RELEASE_V1.0.2/MSDK/cloud/alicloud/src/protocol/alcs\alcs_adapter.c ****         case COAP_RECV_RESP_TIMEOUT: {
 158:C:/Users/stapi/OneDrive/Desktop/GD32VW553/V1_MQTT_OK/GD32VW55X_Wifi_BLE_SDK/GD32VW55x_RELEASE_V1.0.2/MSDK/cloud/alicloud/src/protocol/alcs\alcs_adapter.c ****             iotx_alcs_transfer_msg_t transfer_msg;
 159:C:/Users/stapi/OneDrive/Desktop/GD32VW553/V1_MQTT_OK/GD32VW55X_Wifi_BLE_SDK/GD32VW55x_RELEASE_V1.0.2/MSDK/cloud/alicloud/src/protocol/alcs\alcs_adapter.c ****             iotx_alcs_send_msg_t *send_msg = NULL;
 160:C:/Users/stapi/OneDrive/Desktop/GD32VW553/V1_MQTT_OK/GD32VW55X_Wifi_BLE_SDK/GD32VW55x_RELEASE_V1.0.2/MSDK/cloud/alicloud/src/protocol/alcs\alcs_adapter.c **** 
 161:C:/Users/stapi/OneDrive/Desktop/GD32VW553/V1_MQTT_OK/GD32VW55X_Wifi_BLE_SDK/GD32VW55x_RELEASE_V1.0.2/MSDK/cloud/alicloud/src/protocol/alcs\alcs_adapter.c ****             memset(&transfer_msg, 0, sizeof(iotx_alcs_transfer_msg_t));
 162:C:/Users/stapi/OneDrive/Desktop/GD32VW553/V1_MQTT_OK/GD32VW55X_Wifi_BLE_SDK/GD32VW55x_RELEASE_V1.0.2/MSDK/cloud/alicloud/src/protocol/alcs\alcs_adapter.c **** 
 163:C:/Users/stapi/OneDrive/Desktop/GD32VW553/V1_MQTT_OK/GD32VW55X_Wifi_BLE_SDK/GD32VW55x_RELEASE_V1.0.2/MSDK/cloud/alicloud/src/protocol/alcs\alcs_adapter.c ****             transfer_msg.ip = (char *)remote->addr;
 164:C:/Users/stapi/OneDrive/Desktop/GD32VW553/V1_MQTT_OK/GD32VW55X_Wifi_BLE_SDK/GD32VW55x_RELEASE_V1.0.2/MSDK/cloud/alicloud/src/protocol/alcs\alcs_adapter.c ****             transfer_msg.port = remote->port;
 165:C:/Users/stapi/OneDrive/Desktop/GD32VW553/V1_MQTT_OK/GD32VW55X_Wifi_BLE_SDK/GD32VW55x_RELEASE_V1.0.2/MSDK/cloud/alicloud/src/protocol/alcs\alcs_adapter.c ****             HAL_MutexLock(adapter->mutex);
 166:C:/Users/stapi/OneDrive/Desktop/GD32VW553/V1_MQTT_OK/GD32VW55X_Wifi_BLE_SDK/GD32VW55x_RELEASE_V1.0.2/MSDK/cloud/alicloud/src/protocol/alcs\alcs_adapter.c ****             res = _iotx_alcs_send_list_search_and_remove(adapter, message, &send_msg);
 167:C:/Users/stapi/OneDrive/Desktop/GD32VW553/V1_MQTT_OK/GD32VW55X_Wifi_BLE_SDK/GD32VW55x_RELEASE_V1.0.2/MSDK/cloud/alicloud/src/protocol/alcs\alcs_adapter.c ****             HAL_MutexUnlock(adapter->mutex);
 168:C:/Users/stapi/OneDrive/Desktop/GD32VW553/V1_MQTT_OK/GD32VW55X_Wifi_BLE_SDK/GD32VW55x_RELEASE_V1.0.2/MSDK/cloud/alicloud/src/protocol/alcs\alcs_adapter.c **** 
 169:C:/Users/stapi/OneDrive/Desktop/GD32VW553/V1_MQTT_OK/GD32VW55X_Wifi_BLE_SDK/GD32VW55x_RELEASE_V1.0.2/MSDK/cloud/alicloud/src/protocol/alcs\alcs_adapter.c ****             if (res < SUCCESS_RETURN) {
 170:C:/Users/stapi/OneDrive/Desktop/GD32VW553/V1_MQTT_OK/GD32VW55X_Wifi_BLE_SDK/GD32VW55x_RELEASE_V1.0.2/MSDK/cloud/alicloud/src/protocol/alcs\alcs_adapter.c ****                 return;
 171:C:/Users/stapi/OneDrive/Desktop/GD32VW553/V1_MQTT_OK/GD32VW55X_Wifi_BLE_SDK/GD32VW55x_RELEASE_V1.0.2/MSDK/cloud/alicloud/src/protocol/alcs\alcs_adapter.c ****             }
 172:C:/Users/stapi/OneDrive/Desktop/GD32VW553/V1_MQTT_OK/GD32VW55X_Wifi_BLE_SDK/GD32VW55x_RELEASE_V1.0.2/MSDK/cloud/alicloud/src/protocol/alcs\alcs_adapter.c **** 
 173:C:/Users/stapi/OneDrive/Desktop/GD32VW553/V1_MQTT_OK/GD32VW55X_Wifi_BLE_SDK/GD32VW55x_RELEASE_V1.0.2/MSDK/cloud/alicloud/src/protocol/alcs\alcs_adapter.c ****             transfer_msg.uri = send_msg->uri;
 174:C:/Users/stapi/OneDrive/Desktop/GD32VW553/V1_MQTT_OK/GD32VW55X_Wifi_BLE_SDK/GD32VW55x_RELEASE_V1.0.2/MSDK/cloud/alicloud/src/protocol/alcs\alcs_adapter.c ****             transfer_msg.token_len = send_msg->token_len;
 175:C:/Users/stapi/OneDrive/Desktop/GD32VW553/V1_MQTT_OK/GD32VW55X_Wifi_BLE_SDK/GD32VW55x_RELEASE_V1.0.2/MSDK/cloud/alicloud/src/protocol/alcs\alcs_adapter.c ****             transfer_msg.token = send_msg->token;
 176:C:/Users/stapi/OneDrive/Desktop/GD32VW553/V1_MQTT_OK/GD32VW55X_Wifi_BLE_SDK/GD32VW55x_RELEASE_V1.0.2/MSDK/cloud/alicloud/src/protocol/alcs\alcs_adapter.c ****             transfer_msg.payload_len = 0;
 177:C:/Users/stapi/OneDrive/Desktop/GD32VW553/V1_MQTT_OK/GD32VW55X_Wifi_BLE_SDK/GD32VW55x_RELEASE_V1.0.2/MSDK/cloud/alicloud/src/protocol/alcs\alcs_adapter.c ****             transfer_msg.payload = NULL;
 178:C:/Users/stapi/OneDrive/Desktop/GD32VW553/V1_MQTT_OK/GD32VW55X_Wifi_BLE_SDK/GD32VW55x_RELEASE_V1.0.2/MSDK/cloud/alicloud/src/protocol/alcs\alcs_adapter.c **** 
 179:C:/Users/stapi/OneDrive/Desktop/GD32VW553/V1_MQTT_OK/GD32VW55X_Wifi_BLE_SDK/GD32VW55x_RELEASE_V1.0.2/MSDK/cloud/alicloud/src/protocol/alcs\alcs_adapter.c ****             event.event_type = IOTX_ALCS_EVENT_MSG_SEND_MESSAGE_RESP_TIMEOUT;
 180:C:/Users/stapi/OneDrive/Desktop/GD32VW553/V1_MQTT_OK/GD32VW55X_Wifi_BLE_SDK/GD32VW55x_RELEASE_V1.0.2/MSDK/cloud/alicloud/src/protocol/alcs\alcs_adapter.c ****             event.msg = &transfer_msg;
 181:C:/Users/stapi/OneDrive/Desktop/GD32VW553/V1_MQTT_OK/GD32VW55X_Wifi_BLE_SDK/GD32VW55x_RELEASE_V1.0.2/MSDK/cloud/alicloud/src/protocol/alcs\alcs_adapter.c **** 
 182:C:/Users/stapi/OneDrive/Desktop/GD32VW553/V1_MQTT_OK/GD32VW55X_Wifi_BLE_SDK/GD32VW55x_RELEASE_V1.0.2/MSDK/cloud/alicloud/src/protocol/alcs\alcs_adapter.c ****             adapter->alcs_event_handle->h_fp(adapter->alcs_event_handle->pcontext, (void *)adapter,
 183:C:/Users/stapi/OneDrive/Desktop/GD32VW553/V1_MQTT_OK/GD32VW55X_Wifi_BLE_SDK/GD32VW55x_RELEASE_V1.0.2/MSDK/cloud/alicloud/src/protocol/alcs\alcs_adapter.c **** 
 184:C:/Users/stapi/OneDrive/Desktop/GD32VW553/V1_MQTT_OK/GD32VW55X_Wifi_BLE_SDK/GD32VW55x_RELEASE_V1.0.2/MSDK/cloud/alicloud/src/protocol/alcs\alcs_adapter.c ****             LITE_free(send_msg->token);
 185:C:/Users/stapi/OneDrive/Desktop/GD32VW553/V1_MQTT_OK/GD32VW55X_Wifi_BLE_SDK/GD32VW55x_RELEASE_V1.0.2/MSDK/cloud/alicloud/src/protocol/alcs\alcs_adapter.c ****             LITE_free(send_msg->uri);
 186:C:/Users/stapi/OneDrive/Desktop/GD32VW553/V1_MQTT_OK/GD32VW55X_Wifi_BLE_SDK/GD32VW55x_RELEASE_V1.0.2/MSDK/cloud/alicloud/src/protocol/alcs\alcs_adapter.c ****             LITE_free(send_msg);
 187:C:/Users/stapi/OneDrive/Desktop/GD32VW553/V1_MQTT_OK/GD32VW55X_Wifi_BLE_SDK/GD32VW55x_RELEASE_V1.0.2/MSDK/cloud/alicloud/src/protocol/alcs\alcs_adapter.c ****         }
 188:C:/Users/stapi/OneDrive/Desktop/GD32VW553/V1_MQTT_OK/GD32VW55X_Wifi_BLE_SDK/GD32VW55x_RELEASE_V1.0.2/MSDK/cloud/alicloud/src/protocol/alcs\alcs_adapter.c ****         break;
 189:C:/Users/stapi/OneDrive/Desktop/GD32VW553/V1_MQTT_OK/GD32VW55X_Wifi_BLE_SDK/GD32VW55x_RELEASE_V1.0.2/MSDK/cloud/alicloud/src/protocol/alcs\alcs_adapter.c ****         default:
 190:C:/Users/stapi/OneDrive/Desktop/GD32VW553/V1_MQTT_OK/GD32VW55X_Wifi_BLE_SDK/GD32VW55x_RELEASE_V1.0.2/MSDK/cloud/alicloud/src/protocol/alcs\alcs_adapter.c ****             COAP_WRN("Unknown Coap Request Result: %d", result);
 191:C:/Users/stapi/OneDrive/Desktop/GD32VW553/V1_MQTT_OK/GD32VW55X_Wifi_BLE_SDK/GD32VW55x_RELEASE_V1.0.2/MSDK/cloud/alicloud/src/protocol/alcs\alcs_adapter.c ****             break;
 192:C:/Users/stapi/OneDrive/Desktop/GD32VW553/V1_MQTT_OK/GD32VW55X_Wifi_BLE_SDK/GD32VW55x_RELEASE_V1.0.2/MSDK/cloud/alicloud/src/protocol/alcs\alcs_adapter.c ****     }
 193:C:/Users/stapi/OneDrive/Desktop/GD32VW553/V1_MQTT_OK/GD32VW55X_Wifi_BLE_SDK/GD32VW55x_RELEASE_V1.0.2/MSDK/cloud/alicloud/src/protocol/alcs\alcs_adapter.c **** }
 194:C:/Users/stapi/OneDrive/Desktop/GD32VW553/V1_MQTT_OK/GD32VW55X_Wifi_BLE_SDK/GD32VW55x_RELEASE_V1.0.2/MSDK/cloud/alicloud/src/protocol/alcs\alcs_adapter.c **** 
 195:C:/Users/stapi/OneDrive/Desktop/GD32VW553/V1_MQTT_OK/GD32VW55X_Wifi_BLE_SDK/GD32VW55x_RELEASE_V1.0.2/MSDK/cloud/alicloud/src/protocol/alcs\alcs_adapter.c **** void iotx_alcs_coap_adapter_event_notifier(unsigned int event, NetworkAddr *remote, void *message)
 196:C:/Users/stapi/OneDrive/Desktop/GD32VW553/V1_MQTT_OK/GD32VW55X_Wifi_BLE_SDK/GD32VW55x_RELEASE_V1.0.2/MSDK/cloud/alicloud/src/protocol/alcs\alcs_adapter.c **** {
  26              		.loc 1 196 1
  27              		.cfi_startproc
  28              	.LVL0:
  29 0000 17030000 		call	t0,__riscv_save_1
  29      E7020300 
  30              		.cfi_offset 8, -8
  31              		.cfi_offset 1, -4
  32              		.cfi_def_cfa_offset 16
 197:C:/Users/stapi/OneDrive/Desktop/GD32VW553/V1_MQTT_OK/GD32VW55X_Wifi_BLE_SDK/GD32VW55x_RELEASE_V1.0.2/MSDK/cloud/alicloud/src/protocol/alcs\alcs_adapter.c ****     COAP_INFO("ALCS Coap Event: %d, Remote Device Address: %s, Remote Device Port: %d",
  33              		.loc 1 197 5
  34              		.loc 1 197 5
 196:C:/Users/stapi/OneDrive/Desktop/GD32VW553/V1_MQTT_OK/GD32VW55X_Wifi_BLE_SDK/GD32VW55x_RELEASE_V1.0.2/MSDK/cloud/alicloud/src/protocol/alcs\alcs_adapter.c ****     COAP_INFO("ALCS Coap Event: %d, Remote Device Address: %s, Remote Device Port: %d",
  35              		.loc 1 196 1 is_stmt 0
  36 0008 2A84     		mv	s0,a0
  37              		.loc 1 197 5
  38 000a 37050000 		lui	a0,%hi(.LC0)
  39              	.LVL1:
 196:C:/Users/stapi/OneDrive/Desktop/GD32VW553/V1_MQTT_OK/GD32VW55X_Wifi_BLE_SDK/GD32VW55x_RELEASE_V1.0.2/MSDK/cloud/alicloud/src/protocol/alcs\alcs_adapter.c ****     COAP_INFO("ALCS Coap Event: %d, Remote Device Address: %s, Remote Device Port: %d",
  40              		.loc 1 196 1
  41 000e 4111     		addi	sp,sp,-16
  42              		.cfi_def_cfa_offset 32
  43              		.loc 1 197 5
  44 0010 13050500 		addi	a0,a0,%lo(.LC0)
 196:C:/Users/stapi/OneDrive/Desktop/GD32VW553/V1_MQTT_OK/GD32VW55X_Wifi_BLE_SDK/GD32VW55x_RELEASE_V1.0.2/MSDK/cloud/alicloud/src/protocol/alcs\alcs_adapter.c ****     COAP_INFO("ALCS Coap Event: %d, Remote Device Address: %s, Remote Device Port: %d",
  45              		.loc 1 196 1
  46 0014 2EC6     		sw	a1,12(sp)
  47              		.loc 1 197 5
  48 0016 97000000 		call	HAL_Printf
  48      E7800000 
  49              	.LVL2:
  50              		.loc 1 197 5 is_stmt 1
  51 001e 3246     		lw	a2,12(sp)
  52 0020 37050000 		lui	a0,%hi(.LC1)
  53 0024 A285     		mv	a1,s0
  54 0026 83560601 		lhu	a3,16(a2)
  55 002a 13050500 		addi	a0,a0,%lo(.LC1)
  56 002e 97000000 		call	HAL_Printf
  56      E7800000 
  57              	.LVL3:
  58              		.loc 1 197 5
  59 0036 37050000 		lui	a0,%hi(.LC2)
  60 003a 13050500 		addi	a0,a0,%lo(.LC2)
  61 003e 97000000 		call	HAL_Printf
  61      E7800000 
  62              	.LVL4:
  63              		.loc 1 197 5
 198:C:/Users/stapi/OneDrive/Desktop/GD32VW553/V1_MQTT_OK/GD32VW55X_Wifi_BLE_SDK/GD32VW55x_RELEASE_V1.0.2/MSDK/cloud/alicloud/src/protocol/alcs\alcs_adapter.c ****               event, remote->addr, remote->port);
 199:C:/Users/stapi/OneDrive/Desktop/GD32VW553/V1_MQTT_OK/GD32VW55X_Wifi_BLE_SDK/GD32VW55x_RELEASE_V1.0.2/MSDK/cloud/alicloud/src/protocol/alcs\alcs_adapter.c **** }
  64              		.loc 1 199 1 is_stmt 0
  65 0046 4101     		addi	sp,sp,16
  66              		.cfi_def_cfa_offset 0
  67              	.LVL5:
  68 0048 17030000 		tail	__riscv_restore_1
  68      67000300 
  69              		.cfi_restore 8
  70              		.cfi_restore 1
  71              		.cfi_def_cfa_offset -16
  72              		.cfi_endproc
  73              	.LFE26:
  75              		.section	.text._iotx_alcs_send_list_search_and_remove,"ax",@progbits
  76              		.align	1
  78              	_iotx_alcs_send_list_search_and_remove:
  79              	.LFB24:
  97:C:/Users/stapi/OneDrive/Desktop/GD32VW553/V1_MQTT_OK/GD32VW55X_Wifi_BLE_SDK/GD32VW55x_RELEASE_V1.0.2/MSDK/cloud/alicloud/src/protocol/alcs\alcs_adapter.c ****     iotx_alcs_send_msg_t *node = NULL;
  80              		.loc 1 97 1 is_stmt 1
  81              		.cfi_startproc
  82              	.LVL6:
  83 0000 17030000 		call	t0,__riscv_save_6
  83      E7020300 
  84              		.cfi_offset 21, -28
  85              		.cfi_offset 20, -24
  86              		.cfi_offset 19, -20
  87              		.cfi_offset 18, -16
  88              		.cfi_offset 9, -12
  89              		.cfi_offset 8, -8
  90              		.cfi_offset 1, -4
  91              		.cfi_def_cfa_offset 32
  98:C:/Users/stapi/OneDrive/Desktop/GD32VW553/V1_MQTT_OK/GD32VW55X_Wifi_BLE_SDK/GD32VW55x_RELEASE_V1.0.2/MSDK/cloud/alicloud/src/protocol/alcs\alcs_adapter.c ****     iotx_alcs_send_msg_t *next = NULL;
  92              		.loc 1 98 5
  93              	.LVL7:
  99:C:/Users/stapi/OneDrive/Desktop/GD32VW553/V1_MQTT_OK/GD32VW55X_Wifi_BLE_SDK/GD32VW55x_RELEASE_V1.0.2/MSDK/cloud/alicloud/src/protocol/alcs\alcs_adapter.c **** 
  94              		.loc 1 99 5
 101:C:/Users/stapi/OneDrive/Desktop/GD32VW553/V1_MQTT_OK/GD32VW55X_Wifi_BLE_SDK/GD32VW55x_RELEASE_V1.0.2/MSDK/cloud/alicloud/src/protocol/alcs\alcs_adapter.c ****         if (message->header.tokenlen == node->token_len &&
  95              		.loc 1 101 5
  96 0008 1C51     		lw	a5,32(a0)
  97:C:/Users/stapi/OneDrive/Desktop/GD32VW553/V1_MQTT_OK/GD32VW55X_Wifi_BLE_SDK/GD32VW55x_RELEASE_V1.0.2/MSDK/cloud/alicloud/src/protocol/alcs\alcs_adapter.c ****     iotx_alcs_send_msg_t *node = NULL;
  97              		.loc 1 97 1 is_stmt 0
  98 000a AE89     		mv	s3,a1
  99 000c 328A     		mv	s4,a2
 101:C:/Users/stapi/OneDrive/Desktop/GD32VW553/V1_MQTT_OK/GD32VW55X_Wifi_BLE_SDK/GD32VW55x_RELEASE_V1.0.2/MSDK/cloud/alicloud/src/protocol/alcs\alcs_adapter.c ****         if (message->header.tokenlen == node->token_len &&
 100              		.loc 1 101 5
 101 000e 03A94700 		lw	s2,4(a5)
 102 0012 138447FF 		addi	s0,a5,-12
 103              	.LVL8:
 104 0016 9304C501 		addi	s1,a0,28
 105 001a 5119     		addi	s2,s2,-12
 106              	.LVL9:
 103:C:/Users/stapi/OneDrive/Desktop/GD32VW553/V1_MQTT_OK/GD32VW55X_Wifi_BLE_SDK/GD32VW55x_RELEASE_V1.0.2/MSDK/cloud/alicloud/src/protocol/alcs\alcs_adapter.c ****             *send_msg = node;
 107              		.loc 1 103 13
 108 001c 938A4500 		addi	s5,a1,4
 109              	.LVL10:
 110              	.L4:
 101:C:/Users/stapi/OneDrive/Desktop/GD32VW553/V1_MQTT_OK/GD32VW55X_Wifi_BLE_SDK/GD32VW55x_RELEASE_V1.0.2/MSDK/cloud/alicloud/src/protocol/alcs\alcs_adapter.c ****         if (message->header.tokenlen == node->token_len &&
 111              		.loc 1 101 5 is_stmt 1 discriminator 1
 112 0020 9307C400 		addi	a5,s0,12
 113 0024 63949700 		bne	a5,s1,.L7
 110:C:/Users/stapi/OneDrive/Desktop/GD32VW553/V1_MQTT_OK/GD32VW55X_Wifi_BLE_SDK/GD32VW55x_RELEASE_V1.0.2/MSDK/cloud/alicloud/src/protocol/alcs\alcs_adapter.c **** }
 114              		.loc 1 110 12 is_stmt 0
 115 0028 7D55     		li	a0,-1
 116 002a 3DA0     		j	.L3
 117              	.L7:
 102:C:/Users/stapi/OneDrive/Desktop/GD32VW553/V1_MQTT_OK/GD32VW55X_Wifi_BLE_SDK/GD32VW55x_RELEASE_V1.0.2/MSDK/cloud/alicloud/src/protocol/alcs\alcs_adapter.c ****             memcmp(message->token, node->token, node->token_len) == 0) {
 118              		.loc 1 102 9 is_stmt 1
 102:C:/Users/stapi/OneDrive/Desktop/GD32VW553/V1_MQTT_OK/GD32VW55X_Wifi_BLE_SDK/GD32VW55x_RELEASE_V1.0.2/MSDK/cloud/alicloud/src/protocol/alcs\alcs_adapter.c ****             memcmp(message->token, node->token, node->token_len) == 0) {
 119              		.loc 1 102 28 is_stmt 0
 120 002c 83A70900 		lw	a5,0(s3)
 102:C:/Users/stapi/OneDrive/Desktop/GD32VW553/V1_MQTT_OK/GD32VW55X_Wifi_BLE_SDK/GD32VW55x_RELEASE_V1.0.2/MSDK/cloud/alicloud/src/protocol/alcs\alcs_adapter.c ****             memcmp(message->token, node->token, node->token_len) == 0) {
 121              		.loc 1 102 45
 122 0030 03470400 		lbu	a4,0(s0)
 102:C:/Users/stapi/OneDrive/Desktop/GD32VW553/V1_MQTT_OK/GD32VW55X_Wifi_BLE_SDK/GD32VW55x_RELEASE_V1.0.2/MSDK/cloud/alicloud/src/protocol/alcs\alcs_adapter.c ****             memcmp(message->token, node->token, node->token_len) == 0) {
 123              		.loc 1 102 28
 124 0034 9183     		srli	a5,a5,4
 125 0036 13F6F700 		andi	a2,a5,15
 102:C:/Users/stapi/OneDrive/Desktop/GD32VW553/V1_MQTT_OK/GD32VW55X_Wifi_BLE_SDK/GD32VW55x_RELEASE_V1.0.2/MSDK/cloud/alicloud/src/protocol/alcs\alcs_adapter.c ****             memcmp(message->token, node->token, node->token_len) == 0) {
 126              		.loc 1 102 12
 127 003a 6313E602 		bne	a2,a4,.L5
 103:C:/Users/stapi/OneDrive/Desktop/GD32VW553/V1_MQTT_OK/GD32VW55X_Wifi_BLE_SDK/GD32VW55x_RELEASE_V1.0.2/MSDK/cloud/alicloud/src/protocol/alcs\alcs_adapter.c ****             *send_msg = node;
 128              		.loc 1 103 13 discriminator 1
 129 003e 4C40     		lw	a1,4(s0)
 130 0040 5685     		mv	a0,s5
 131 0042 97000000 		call	memcmp
 131      E7800000 
 132              	.LVL11:
 102:C:/Users/stapi/OneDrive/Desktop/GD32VW553/V1_MQTT_OK/GD32VW55X_Wifi_BLE_SDK/GD32VW55x_RELEASE_V1.0.2/MSDK/cloud/alicloud/src/protocol/alcs\alcs_adapter.c ****             memcmp(message->token, node->token, node->token_len) == 0) {
 133              		.loc 1 102 57 discriminator 1
 134 004a 19E9     		bne	a0,zero,.L5
 104:C:/Users/stapi/OneDrive/Desktop/GD32VW553/V1_MQTT_OK/GD32VW55X_Wifi_BLE_SDK/GD32VW55x_RELEASE_V1.0.2/MSDK/cloud/alicloud/src/protocol/alcs\alcs_adapter.c ****             list_del(&node->linked_list);
 135              		.loc 1 104 13 is_stmt 1
 136              	.LBB16:
 137              	.LBB17:
 138              		.file 2 "..\\..\\..\\..\\cloud\\alicloud\\src\\infra\\utils\\misc/lite-list.h"
   1:..\..\..\..\cloud\alicloud\src\infra\utils\misc/lite-list.h **** /*
   2:..\..\..\..\cloud\alicloud\src\infra\utils\misc/lite-list.h ****  * Copyright (C) 2015-2018 Alibaba Group Holding Limited
   3:..\..\..\..\cloud\alicloud\src\infra\utils\misc/lite-list.h ****  */
   4:..\..\..\..\cloud\alicloud\src\infra\utils\misc/lite-list.h **** 
   5:..\..\..\..\cloud\alicloud\src\infra\utils\misc/lite-list.h **** #ifndef AOS_LIST_H
   6:..\..\..\..\cloud\alicloud\src\infra\utils\misc/lite-list.h **** #define AOS_LIST_H
   7:..\..\..\..\cloud\alicloud\src\infra\utils\misc/lite-list.h **** 
   8:..\..\..\..\cloud\alicloud\src\infra\utils\misc/lite-list.h **** #ifdef __cplusplus
   9:..\..\..\..\cloud\alicloud\src\infra\utils\misc/lite-list.h **** extern "C" {
  10:..\..\..\..\cloud\alicloud\src\infra\utils\misc/lite-list.h **** #endif
  11:..\..\..\..\cloud\alicloud\src\infra\utils\misc/lite-list.h **** 
  12:..\..\..\..\cloud\alicloud\src\infra\utils\misc/lite-list.h **** /*
  13:..\..\..\..\cloud\alicloud\src\infra\utils\misc/lite-list.h ****  * Get offset of a member variable.
  14:..\..\..\..\cloud\alicloud\src\infra\utils\misc/lite-list.h ****  *
  15:..\..\..\..\cloud\alicloud\src\infra\utils\misc/lite-list.h ****  * @param[in]   type     the type of the struct this is embedded in.
  16:..\..\..\..\cloud\alicloud\src\infra\utils\misc/lite-list.h ****  * @param[in]   member   the name of the variable within the struct.
  17:..\..\..\..\cloud\alicloud\src\infra\utils\misc/lite-list.h ****  */
  18:..\..\..\..\cloud\alicloud\src\infra\utils\misc/lite-list.h **** #define aos_offsetof(type, member)   ((size_t)&(((type *)0)->member))
  19:..\..\..\..\cloud\alicloud\src\infra\utils\misc/lite-list.h **** 
  20:..\..\..\..\cloud\alicloud\src\infra\utils\misc/lite-list.h **** /*
  21:..\..\..\..\cloud\alicloud\src\infra\utils\misc/lite-list.h ****  * Get the struct for this entry.
  22:..\..\..\..\cloud\alicloud\src\infra\utils\misc/lite-list.h ****  *
  23:..\..\..\..\cloud\alicloud\src\infra\utils\misc/lite-list.h ****  * @param[in]   ptr     the list head to take the element from.
  24:..\..\..\..\cloud\alicloud\src\infra\utils\misc/lite-list.h ****  * @param[in]   type    the type of the struct this is embedded in.
  25:..\..\..\..\cloud\alicloud\src\infra\utils\misc/lite-list.h ****  * @param[in]   member  the name of the variable within the struct.
  26:..\..\..\..\cloud\alicloud\src\infra\utils\misc/lite-list.h ****  */
  27:..\..\..\..\cloud\alicloud\src\infra\utils\misc/lite-list.h **** #define aos_container_of(ptr, type, member) \
  28:..\..\..\..\cloud\alicloud\src\infra\utils\misc/lite-list.h ****     ((type *) ((char *) (ptr) - aos_offsetof(type, member)))
  29:..\..\..\..\cloud\alicloud\src\infra\utils\misc/lite-list.h **** 
  30:..\..\..\..\cloud\alicloud\src\infra\utils\misc/lite-list.h **** /* for double link list */
  31:..\..\..\..\cloud\alicloud\src\infra\utils\misc/lite-list.h **** typedef struct dlist_s {
  32:..\..\..\..\cloud\alicloud\src\infra\utils\misc/lite-list.h ****     struct dlist_s *prev;
  33:..\..\..\..\cloud\alicloud\src\infra\utils\misc/lite-list.h ****     struct dlist_s *next;
  34:..\..\..\..\cloud\alicloud\src\infra\utils\misc/lite-list.h **** } dlist_t;
  35:..\..\..\..\cloud\alicloud\src\infra\utils\misc/lite-list.h **** 
  36:..\..\..\..\cloud\alicloud\src\infra\utils\misc/lite-list.h **** static inline void __dlist_add(dlist_t *node, dlist_t *prev, dlist_t *next)
  37:..\..\..\..\cloud\alicloud\src\infra\utils\misc/lite-list.h **** {
  38:..\..\..\..\cloud\alicloud\src\infra\utils\misc/lite-list.h ****     node->next = next;
  39:..\..\..\..\cloud\alicloud\src\infra\utils\misc/lite-list.h ****     node->prev = prev;
  40:..\..\..\..\cloud\alicloud\src\infra\utils\misc/lite-list.h **** 
  41:..\..\..\..\cloud\alicloud\src\infra\utils\misc/lite-list.h ****     prev->next = node;
  42:..\..\..\..\cloud\alicloud\src\infra\utils\misc/lite-list.h ****     next->prev = node;
  43:..\..\..\..\cloud\alicloud\src\infra\utils\misc/lite-list.h **** }
  44:..\..\..\..\cloud\alicloud\src\infra\utils\misc/lite-list.h **** 
  45:..\..\..\..\cloud\alicloud\src\infra\utils\misc/lite-list.h **** /*
  46:..\..\..\..\cloud\alicloud\src\infra\utils\misc/lite-list.h ****  * Get the struct for this entry.
  47:..\..\..\..\cloud\alicloud\src\infra\utils\misc/lite-list.h ****  *
  48:..\..\..\..\cloud\alicloud\src\infra\utils\misc/lite-list.h ****  * @param[in]   addr    the list head to take the element from.
  49:..\..\..\..\cloud\alicloud\src\infra\utils\misc/lite-list.h ****  * @param[in]   type    the type of the struct this is embedded in.
  50:..\..\..\..\cloud\alicloud\src\infra\utils\misc/lite-list.h ****  * @param[in]   member  the name of the dlist_t within the struct.
  51:..\..\..\..\cloud\alicloud\src\infra\utils\misc/lite-list.h ****  */
  52:..\..\..\..\cloud\alicloud\src\infra\utils\misc/lite-list.h **** #define dlist_entry(addr, type, member) \
  53:..\..\..\..\cloud\alicloud\src\infra\utils\misc/lite-list.h ****     ((type *)((long)addr - aos_offsetof(type, member)))
  54:..\..\..\..\cloud\alicloud\src\infra\utils\misc/lite-list.h **** 
  55:..\..\..\..\cloud\alicloud\src\infra\utils\misc/lite-list.h **** 
  56:..\..\..\..\cloud\alicloud\src\infra\utils\misc/lite-list.h **** static inline void dlist_add(dlist_t *node, dlist_t *queue)
  57:..\..\..\..\cloud\alicloud\src\infra\utils\misc/lite-list.h **** {
  58:..\..\..\..\cloud\alicloud\src\infra\utils\misc/lite-list.h ****     __dlist_add(node, queue, queue->next);
  59:..\..\..\..\cloud\alicloud\src\infra\utils\misc/lite-list.h **** }
  60:..\..\..\..\cloud\alicloud\src\infra\utils\misc/lite-list.h **** 
  61:..\..\..\..\cloud\alicloud\src\infra\utils\misc/lite-list.h **** static inline void dlist_add_tail(dlist_t *node, dlist_t *queue)
  62:..\..\..\..\cloud\alicloud\src\infra\utils\misc/lite-list.h **** {
  63:..\..\..\..\cloud\alicloud\src\infra\utils\misc/lite-list.h ****     __dlist_add(node, queue->prev, queue);
  64:..\..\..\..\cloud\alicloud\src\infra\utils\misc/lite-list.h **** }
  65:..\..\..\..\cloud\alicloud\src\infra\utils\misc/lite-list.h **** 
  66:..\..\..\..\cloud\alicloud\src\infra\utils\misc/lite-list.h **** static inline void dlist_del(dlist_t *node)
  67:..\..\..\..\cloud\alicloud\src\infra\utils\misc/lite-list.h **** {
  68:..\..\..\..\cloud\alicloud\src\infra\utils\misc/lite-list.h ****     dlist_t *prev = node->prev;
 139              		.loc 2 68 14 is_stmt 0
 140 004c 5844     		lw	a4,12(s0)
  69:..\..\..\..\cloud\alicloud\src\infra\utils\misc/lite-list.h ****     dlist_t *next = node->next;
 141              		.loc 2 69 14
 142 004e 1C48     		lw	a5,16(s0)
 143              	.LBE17:
 144              	.LBE16:
 104:C:/Users/stapi/OneDrive/Desktop/GD32VW553/V1_MQTT_OK/GD32VW55X_Wifi_BLE_SDK/GD32VW55x_RELEASE_V1.0.2/MSDK/cloud/alicloud/src/protocol/alcs\alcs_adapter.c ****             list_del(&node->linked_list);
 145              		.loc 1 104 23
 146 0050 23208A00 		sw	s0,0(s4)
 105:C:/Users/stapi/OneDrive/Desktop/GD32VW553/V1_MQTT_OK/GD32VW55X_Wifi_BLE_SDK/GD32VW55x_RELEASE_V1.0.2/MSDK/cloud/alicloud/src/protocol/alcs\alcs_adapter.c ****             return SUCCESS_RETURN;
 147              		.loc 1 105 13 is_stmt 1
 148              	.LVL12:
 149              	.LBB19:
 150              	.LBB18:
  68:..\..\..\..\cloud\alicloud\src\infra\utils\misc/lite-list.h ****     dlist_t *next = node->next;
 151              		.loc 2 68 5
 152              		.loc 2 69 5
  70:..\..\..\..\cloud\alicloud\src\infra\utils\misc/lite-list.h **** 
  71:..\..\..\..\cloud\alicloud\src\infra\utils\misc/lite-list.h ****     prev->next = next;
 153              		.loc 2 71 5
 154              		.loc 2 71 16 is_stmt 0
 155 0054 5CC3     		sw	a5,4(a4)
  72:..\..\..\..\cloud\alicloud\src\infra\utils\misc/lite-list.h ****     next->prev = prev;
 156              		.loc 2 72 5 is_stmt 1
 157              		.loc 2 72 16 is_stmt 0
 158 0056 98C3     		sw	a4,0(a5)
 159              	.LVL13:
 160              	.L3:
 161              	.LBE18:
 162              	.LBE19:
 111:C:/Users/stapi/OneDrive/Desktop/GD32VW553/V1_MQTT_OK/GD32VW55X_Wifi_BLE_SDK/GD32VW55x_RELEASE_V1.0.2/MSDK/cloud/alicloud/src/protocol/alcs\alcs_adapter.c **** 
 163              		.loc 1 111 1
 164 0058 17030000 		tail	__riscv_restore_6
 164      67000300 
 165              		.cfi_remember_state
 166              		.cfi_restore 21
 167              		.cfi_restore 20
 168              		.cfi_restore 19
 169              		.cfi_restore 18
 170              		.cfi_restore 9
 171              		.cfi_restore 8
 172              		.cfi_restore 1
 173              		.cfi_def_cfa_offset 0
 174              	.L5:
 175              		.cfi_restore_state
 101:C:/Users/stapi/OneDrive/Desktop/GD32VW553/V1_MQTT_OK/GD32VW55X_Wifi_BLE_SDK/GD32VW55x_RELEASE_V1.0.2/MSDK/cloud/alicloud/src/protocol/alcs\alcs_adapter.c ****         if (message->header.tokenlen == node->token_len &&
 176              		.loc 1 101 5 is_stmt 1 discriminator 2
 177              	.LVL14:
 178 0060 83270901 		lw	a5,16(s2)
 179              	.LVL15:
 180 0064 4A84     		mv	s0,s2
 181 0066 138947FF 		addi	s2,a5,-12
 182              	.LVL16:
 183 006a 5DBF     		j	.L4
 184              		.cfi_endproc
 185              	.LFE24:
 187              		.section	.rodata.iotx_alcs_topic_parse_dn.str1.4,"aMS",@progbits,1
 188              		.align	2
 189              	.LC3:
 190 0000 5B657272 		.string	"[err] "
 190      5D2000
 191 0007 00       		.align	2
 192              	.LC4:
 193 0008 496E7661 		.string	"Invalid Parameter"
 193      6C696420 
 193      50617261 
 193      6D657465 
 193      7200
 194              		.section	.text.iotx_alcs_topic_parse_dn,"ax",@progbits
 195              		.align	1
 197              	iotx_alcs_topic_parse_dn:
 198              	.LFB23:
  68:C:/Users/stapi/OneDrive/Desktop/GD32VW553/V1_MQTT_OK/GD32VW55X_Wifi_BLE_SDK/GD32VW55x_RELEASE_V1.0.2/MSDK/cloud/alicloud/src/protocol/alcs\alcs_adapter.c ****     if (topic == NULL || length == NULL) {
 199              		.loc 1 68 1
 200              		.cfi_startproc
 201              	.LVL17:
 202 0000 17030000 		call	t0,__riscv_save_2
 202      E7020300 
 203              		.cfi_offset 9, -12
 204              		.cfi_offset 8, -8
 205              		.cfi_offset 1, -4
 206              		.cfi_def_cfa_offset 16
  69:C:/Users/stapi/OneDrive/Desktop/GD32VW553/V1_MQTT_OK/GD32VW55X_Wifi_BLE_SDK/GD32VW55x_RELEASE_V1.0.2/MSDK/cloud/alicloud/src/protocol/alcs\alcs_adapter.c ****         COAP_ERR("Invalid Parameter");
 207              		.loc 1 69 5
  68:C:/Users/stapi/OneDrive/Desktop/GD32VW553/V1_MQTT_OK/GD32VW55X_Wifi_BLE_SDK/GD32VW55x_RELEASE_V1.0.2/MSDK/cloud/alicloud/src/protocol/alcs\alcs_adapter.c ****     if (topic == NULL || length == NULL) {
 208              		.loc 1 68 1 is_stmt 0
 209 0008 2A84     		mv	s0,a0
  69:C:/Users/stapi/OneDrive/Desktop/GD32VW553/V1_MQTT_OK/GD32VW55X_Wifi_BLE_SDK/GD32VW55x_RELEASE_V1.0.2/MSDK/cloud/alicloud/src/protocol/alcs\alcs_adapter.c ****         COAP_ERR("Invalid Parameter");
 210              		.loc 1 69 8
 211 000a 15ED     		bne	a0,zero,.L10
  70:C:/Users/stapi/OneDrive/Desktop/GD32VW553/V1_MQTT_OK/GD32VW55X_Wifi_BLE_SDK/GD32VW55x_RELEASE_V1.0.2/MSDK/cloud/alicloud/src/protocol/alcs\alcs_adapter.c ****         return NULL;
 212              		.loc 1 70 9 is_stmt 1
  70:C:/Users/stapi/OneDrive/Desktop/GD32VW553/V1_MQTT_OK/GD32VW55X_Wifi_BLE_SDK/GD32VW55x_RELEASE_V1.0.2/MSDK/cloud/alicloud/src/protocol/alcs\alcs_adapter.c ****         return NULL;
 213              		.loc 1 70 9
 214 000c 37050000 		lui	a0,%hi(.LC3)
 215              	.LVL18:
 216 0010 13050500 		addi	a0,a0,%lo(.LC3)
 217 0014 97000000 		call	HAL_Printf
 217      E7800000 
 218              	.LVL19:
  70:C:/Users/stapi/OneDrive/Desktop/GD32VW553/V1_MQTT_OK/GD32VW55X_Wifi_BLE_SDK/GD32VW55x_RELEASE_V1.0.2/MSDK/cloud/alicloud/src/protocol/alcs\alcs_adapter.c ****         return NULL;
 219              		.loc 1 70 9
 220 001c 37050000 		lui	a0,%hi(.LC4)
 221 0020 13050500 		addi	a0,a0,%lo(.LC4)
 222 0024 97000000 		call	HAL_Printf
 222      E7800000 
 223              	.LVL20:
  70:C:/Users/stapi/OneDrive/Desktop/GD32VW553/V1_MQTT_OK/GD32VW55X_Wifi_BLE_SDK/GD32VW55x_RELEASE_V1.0.2/MSDK/cloud/alicloud/src/protocol/alcs\alcs_adapter.c ****         return NULL;
 224              		.loc 1 70 9
 225 002c 37050000 		lui	a0,%hi(.LC2)
 226 0030 13050500 		addi	a0,a0,%lo(.LC2)
 227 0034 97000000 		call	HAL_Printf
 227      E7800000 
 228              	.LVL21:
  70:C:/Users/stapi/OneDrive/Desktop/GD32VW553/V1_MQTT_OK/GD32VW55X_Wifi_BLE_SDK/GD32VW55x_RELEASE_V1.0.2/MSDK/cloud/alicloud/src/protocol/alcs\alcs_adapter.c ****         return NULL;
 229              		.loc 1 70 9
  71:C:/Users/stapi/OneDrive/Desktop/GD32VW553/V1_MQTT_OK/GD32VW55X_Wifi_BLE_SDK/GD32VW55x_RELEASE_V1.0.2/MSDK/cloud/alicloud/src/protocol/alcs\alcs_adapter.c ****     }
 230              		.loc 1 71 9
 231              	.L11:
  93:C:/Users/stapi/OneDrive/Desktop/GD32VW553/V1_MQTT_OK/GD32VW55X_Wifi_BLE_SDK/GD32VW55x_RELEASE_V1.0.2/MSDK/cloud/alicloud/src/protocol/alcs\alcs_adapter.c **** 
 232              		.loc 1 93 1 is_stmt 0
 233 003c 2285     		mv	a0,s0
 234 003e 17030000 		tail	__riscv_restore_2
 234      67000300 
 235              		.cfi_remember_state
 236              		.cfi_restore 9
 237              		.cfi_restore 8
 238              		.cfi_restore 1
 239              		.cfi_def_cfa_offset 0
 240              	.LVL22:
 241              	.L10:
 242              		.cfi_restore_state
 243 0046 AE84     		mv	s1,a1
  74:C:/Users/stapi/OneDrive/Desktop/GD32VW553/V1_MQTT_OK/GD32VW55X_Wifi_BLE_SDK/GD32VW55x_RELEASE_V1.0.2/MSDK/cloud/alicloud/src/protocol/alcs\alcs_adapter.c ****     uint8_t slash_count = 0;
 244              		.loc 1 74 5 is_stmt 1
 245              	.LVL23:
  75:C:/Users/stapi/OneDrive/Desktop/GD32VW553/V1_MQTT_OK/GD32VW55X_Wifi_BLE_SDK/GD32VW55x_RELEASE_V1.0.2/MSDK/cloud/alicloud/src/protocol/alcs\alcs_adapter.c ****     uint16_t idx = 0;
 246              		.loc 1 75 5
  76:C:/Users/stapi/OneDrive/Desktop/GD32VW553/V1_MQTT_OK/GD32VW55X_Wifi_BLE_SDK/GD32VW55x_RELEASE_V1.0.2/MSDK/cloud/alicloud/src/protocol/alcs\alcs_adapter.c ****     uint16_t topic_len = strlen(topic);
 247              		.loc 1 76 5
  77:C:/Users/stapi/OneDrive/Desktop/GD32VW553/V1_MQTT_OK/GD32VW55X_Wifi_BLE_SDK/GD32VW55x_RELEASE_V1.0.2/MSDK/cloud/alicloud/src/protocol/alcs\alcs_adapter.c **** 
 248              		.loc 1 77 5
  77:C:/Users/stapi/OneDrive/Desktop/GD32VW553/V1_MQTT_OK/GD32VW55X_Wifi_BLE_SDK/GD32VW55x_RELEASE_V1.0.2/MSDK/cloud/alicloud/src/protocol/alcs\alcs_adapter.c **** 
 249              		.loc 1 77 26 is_stmt 0
 250 0048 97000000 		call	strlen
 250      E7800000 
 251              	.LVL24:
 252 0050 2286     		mv	a2,s0
  79:C:/Users/stapi/OneDrive/Desktop/GD32VW553/V1_MQTT_OK/GD32VW55X_Wifi_BLE_SDK/GD32VW55x_RELEASE_V1.0.2/MSDK/cloud/alicloud/src/protocol/alcs\alcs_adapter.c ****         if (topic[idx] == '/') {
 253              		.loc 1 79 11
 254 0052 A287     		mv	a5,s0
  75:C:/Users/stapi/OneDrive/Desktop/GD32VW553/V1_MQTT_OK/GD32VW55X_Wifi_BLE_SDK/GD32VW55x_RELEASE_V1.0.2/MSDK/cloud/alicloud/src/protocol/alcs\alcs_adapter.c ****     uint16_t idx = 0;
 255              		.loc 1 75 13
 256 0054 0147     		li	a4,0
  74:C:/Users/stapi/OneDrive/Desktop/GD32VW553/V1_MQTT_OK/GD32VW55X_Wifi_BLE_SDK/GD32VW55x_RELEASE_V1.0.2/MSDK/cloud/alicloud/src/protocol/alcs\alcs_adapter.c ****     uint8_t slash_count = 0;
 257              		.loc 1 74 11
 258 0056 0144     		li	s0,0
 259              	.LVL25:
  80:C:/Users/stapi/OneDrive/Desktop/GD32VW553/V1_MQTT_OK/GD32VW55X_Wifi_BLE_SDK/GD32VW55x_RELEASE_V1.0.2/MSDK/cloud/alicloud/src/protocol/alcs\alcs_adapter.c ****             slash_count++;
 260              		.loc 1 80 12
 261 0058 9305F002 		li	a1,47
  82:C:/Users/stapi/OneDrive/Desktop/GD32VW553/V1_MQTT_OK/GD32VW55X_Wifi_BLE_SDK/GD32VW55x_RELEASE_V1.0.2/MSDK/cloud/alicloud/src/protocol/alcs\alcs_adapter.c ****                 pos = topic + idx + 1;
 262              		.loc 1 82 16
 263 005c 0D48     		li	a6,3
  85:C:/Users/stapi/OneDrive/Desktop/GD32VW553/V1_MQTT_OK/GD32VW55X_Wifi_BLE_SDK/GD32VW55x_RELEASE_V1.0.2/MSDK/cloud/alicloud/src/protocol/alcs\alcs_adapter.c ****                 *length = topic + idx - pos;
 264              		.loc 1 85 16
 265 005e 9148     		li	a7,4
  77:C:/Users/stapi/OneDrive/Desktop/GD32VW553/V1_MQTT_OK/GD32VW55X_Wifi_BLE_SDK/GD32VW55x_RELEASE_V1.0.2/MSDK/cloud/alicloud/src/protocol/alcs\alcs_adapter.c **** 
 266              		.loc 1 77 14
 267 0060 33450508 		zext.h	a0,a0
 268              	.LVL26:
  79:C:/Users/stapi/OneDrive/Desktop/GD32VW553/V1_MQTT_OK/GD32VW55X_Wifi_BLE_SDK/GD32VW55x_RELEASE_V1.0.2/MSDK/cloud/alicloud/src/protocol/alcs\alcs_adapter.c ****         if (topic[idx] == '/') {
 269              		.loc 1 79 5 is_stmt 1
 270              	.L12:
  79:C:/Users/stapi/OneDrive/Desktop/GD32VW553/V1_MQTT_OK/GD32VW55X_Wifi_BLE_SDK/GD32VW55x_RELEASE_V1.0.2/MSDK/cloud/alicloud/src/protocol/alcs\alcs_adapter.c ****         if (topic[idx] == '/') {
 271              		.loc 1 79 11
 272 0064 B386C740 		sub	a3,a5,a2
 273 0068 B3C60608 		zext.h	a3,a3
 274 006c E3F8A6FC 		bleu	a0,a3,.L11
  80:C:/Users/stapi/OneDrive/Desktop/GD32VW553/V1_MQTT_OK/GD32VW55X_Wifi_BLE_SDK/GD32VW55x_RELEASE_V1.0.2/MSDK/cloud/alicloud/src/protocol/alcs\alcs_adapter.c ****             slash_count++;
 275              		.loc 1 80 9
 276 0070 93861700 		addi	a3,a5,1
  80:C:/Users/stapi/OneDrive/Desktop/GD32VW553/V1_MQTT_OK/GD32VW55X_Wifi_BLE_SDK/GD32VW55x_RELEASE_V1.0.2/MSDK/cloud/alicloud/src/protocol/alcs\alcs_adapter.c ****             slash_count++;
 277              		.loc 1 80 12 is_stmt 0
 278 0074 03830700 		lb	t1,0(a5)
 279 0078 6318B300 		bne	t1,a1,.L13
  81:C:/Users/stapi/OneDrive/Desktop/GD32VW553/V1_MQTT_OK/GD32VW55X_Wifi_BLE_SDK/GD32VW55x_RELEASE_V1.0.2/MSDK/cloud/alicloud/src/protocol/alcs\alcs_adapter.c ****             if (slash_count == 3) {
 280              		.loc 1 81 13 is_stmt 1
  81:C:/Users/stapi/OneDrive/Desktop/GD32VW553/V1_MQTT_OK/GD32VW55X_Wifi_BLE_SDK/GD32VW55x_RELEASE_V1.0.2/MSDK/cloud/alicloud/src/protocol/alcs\alcs_adapter.c ****             if (slash_count == 3) {
 281              		.loc 1 81 24 is_stmt 0
 282 007c 0507     		addi	a4,a4,1
 283              	.LVL27:
 284 007e 1377F70F 		andi	a4,a4,0xff
 285              	.LVL28:
  82:C:/Users/stapi/OneDrive/Desktop/GD32VW553/V1_MQTT_OK/GD32VW55X_Wifi_BLE_SDK/GD32VW55x_RELEASE_V1.0.2/MSDK/cloud/alicloud/src/protocol/alcs\alcs_adapter.c ****                 pos = topic + idx + 1;
 286              		.loc 1 82 13 is_stmt 1
  82:C:/Users/stapi/OneDrive/Desktop/GD32VW553/V1_MQTT_OK/GD32VW55X_Wifi_BLE_SDK/GD32VW55x_RELEASE_V1.0.2/MSDK/cloud/alicloud/src/protocol/alcs\alcs_adapter.c ****                 pos = topic + idx + 1;
 287              		.loc 1 82 16 is_stmt 0
 288 0082 63150701 		bne	a4,a6,.L14
  83:C:/Users/stapi/OneDrive/Desktop/GD32VW553/V1_MQTT_OK/GD32VW55X_Wifi_BLE_SDK/GD32VW55x_RELEASE_V1.0.2/MSDK/cloud/alicloud/src/protocol/alcs\alcs_adapter.c ****             }
 289              		.loc 1 83 17 is_stmt 1
 290 0086 3684     		mv	s0,a3
 291              	.LVL29:
  85:C:/Users/stapi/OneDrive/Desktop/GD32VW553/V1_MQTT_OK/GD32VW55X_Wifi_BLE_SDK/GD32VW55x_RELEASE_V1.0.2/MSDK/cloud/alicloud/src/protocol/alcs\alcs_adapter.c ****                 *length = topic + idx - pos;
 292              		.loc 1 85 13
 293              	.L13:
  89:C:/Users/stapi/OneDrive/Desktop/GD32VW553/V1_MQTT_OK/GD32VW55X_Wifi_BLE_SDK/GD32VW55x_RELEASE_V1.0.2/MSDK/cloud/alicloud/src/protocol/alcs\alcs_adapter.c ****     }
 294              		.loc 1 89 9
 295 0088 B687     		mv	a5,a3
 296 008a E9BF     		j	.L12
 297              	.LVL30:
 298              	.L14:
  85:C:/Users/stapi/OneDrive/Desktop/GD32VW553/V1_MQTT_OK/GD32VW55X_Wifi_BLE_SDK/GD32VW55x_RELEASE_V1.0.2/MSDK/cloud/alicloud/src/protocol/alcs\alcs_adapter.c ****                 *length = topic + idx - pos;
 299              		.loc 1 85 13
  85:C:/Users/stapi/OneDrive/Desktop/GD32VW553/V1_MQTT_OK/GD32VW55X_Wifi_BLE_SDK/GD32VW55x_RELEASE_V1.0.2/MSDK/cloud/alicloud/src/protocol/alcs\alcs_adapter.c ****                 *length = topic + idx - pos;
 300              		.loc 1 85 16 is_stmt 0
 301 008c E31E17FF 		bne	a4,a7,.L13
  86:C:/Users/stapi/OneDrive/Desktop/GD32VW553/V1_MQTT_OK/GD32VW55X_Wifi_BLE_SDK/GD32VW55x_RELEASE_V1.0.2/MSDK/cloud/alicloud/src/protocol/alcs\alcs_adapter.c ****             }
 302              		.loc 1 86 17 is_stmt 1
  86:C:/Users/stapi/OneDrive/Desktop/GD32VW553/V1_MQTT_OK/GD32VW55X_Wifi_BLE_SDK/GD32VW55x_RELEASE_V1.0.2/MSDK/cloud/alicloud/src/protocol/alcs\alcs_adapter.c ****             }
 303              		.loc 1 86 39 is_stmt 0
 304 0090 818F     		sub	a5,a5,s0
  86:C:/Users/stapi/OneDrive/Desktop/GD32VW553/V1_MQTT_OK/GD32VW55X_Wifi_BLE_SDK/GD32VW55x_RELEASE_V1.0.2/MSDK/cloud/alicloud/src/protocol/alcs\alcs_adapter.c ****             }
 305              		.loc 1 86 25
 306 0092 2390F400 		sh	a5,0(s1)
 307 0096 CDBF     		j	.L13
 308              		.cfi_endproc
 309              	.LFE23:
 311              		.section	.text.iotx_alcs_topic_parse_pk.constprop.0,"ax",@progbits
 312              		.align	1
 314              	iotx_alcs_topic_parse_pk.constprop.0:
 315              	.LFB40:
  39:C:/Users/stapi/OneDrive/Desktop/GD32VW553/V1_MQTT_OK/GD32VW55X_Wifi_BLE_SDK/GD32VW55x_RELEASE_V1.0.2/MSDK/cloud/alicloud/src/protocol/alcs\alcs_adapter.c **** {
 316              		.loc 1 39 14 is_stmt 1
 317              		.cfi_startproc
 318              	.LVL31:
 319 0000 17030000 		call	t0,__riscv_save_2
 319      E7020300 
 320              		.cfi_offset 9, -12
 321              		.cfi_offset 8, -8
 322              		.cfi_offset 1, -4
 323              		.cfi_def_cfa_offset 16
  41:C:/Users/stapi/OneDrive/Desktop/GD32VW553/V1_MQTT_OK/GD32VW55X_Wifi_BLE_SDK/GD32VW55x_RELEASE_V1.0.2/MSDK/cloud/alicloud/src/protocol/alcs\alcs_adapter.c ****         COAP_ERR("Invalid Parameter");
 324              		.loc 1 41 5
  39:C:/Users/stapi/OneDrive/Desktop/GD32VW553/V1_MQTT_OK/GD32VW55X_Wifi_BLE_SDK/GD32VW55x_RELEASE_V1.0.2/MSDK/cloud/alicloud/src/protocol/alcs\alcs_adapter.c **** {
 325              		.loc 1 39 14 is_stmt 0
 326 0008 2A84     		mv	s0,a0
  41:C:/Users/stapi/OneDrive/Desktop/GD32VW553/V1_MQTT_OK/GD32VW55X_Wifi_BLE_SDK/GD32VW55x_RELEASE_V1.0.2/MSDK/cloud/alicloud/src/protocol/alcs\alcs_adapter.c ****         COAP_ERR("Invalid Parameter");
 327              		.loc 1 41 8
 328 000a 15ED     		bne	a0,zero,.L18
  42:C:/Users/stapi/OneDrive/Desktop/GD32VW553/V1_MQTT_OK/GD32VW55X_Wifi_BLE_SDK/GD32VW55x_RELEASE_V1.0.2/MSDK/cloud/alicloud/src/protocol/alcs\alcs_adapter.c ****         return NULL;
 329              		.loc 1 42 9 is_stmt 1
  42:C:/Users/stapi/OneDrive/Desktop/GD32VW553/V1_MQTT_OK/GD32VW55X_Wifi_BLE_SDK/GD32VW55x_RELEASE_V1.0.2/MSDK/cloud/alicloud/src/protocol/alcs\alcs_adapter.c ****         return NULL;
 330              		.loc 1 42 9
 331 000c 37050000 		lui	a0,%hi(.LC3)
 332              	.LVL32:
 333 0010 13050500 		addi	a0,a0,%lo(.LC3)
 334 0014 97000000 		call	HAL_Printf
 334      E7800000 
 335              	.LVL33:
  42:C:/Users/stapi/OneDrive/Desktop/GD32VW553/V1_MQTT_OK/GD32VW55X_Wifi_BLE_SDK/GD32VW55x_RELEASE_V1.0.2/MSDK/cloud/alicloud/src/protocol/alcs\alcs_adapter.c ****         return NULL;
 336              		.loc 1 42 9
 337 001c 37050000 		lui	a0,%hi(.LC4)
 338 0020 13050500 		addi	a0,a0,%lo(.LC4)
 339 0024 97000000 		call	HAL_Printf
 339      E7800000 
 340              	.LVL34:
  42:C:/Users/stapi/OneDrive/Desktop/GD32VW553/V1_MQTT_OK/GD32VW55X_Wifi_BLE_SDK/GD32VW55x_RELEASE_V1.0.2/MSDK/cloud/alicloud/src/protocol/alcs\alcs_adapter.c ****         return NULL;
 341              		.loc 1 42 9
 342 002c 37050000 		lui	a0,%hi(.LC2)
 343 0030 13050500 		addi	a0,a0,%lo(.LC2)
 344 0034 97000000 		call	HAL_Printf
 344      E7800000 
 345              	.LVL35:
  42:C:/Users/stapi/OneDrive/Desktop/GD32VW553/V1_MQTT_OK/GD32VW55X_Wifi_BLE_SDK/GD32VW55x_RELEASE_V1.0.2/MSDK/cloud/alicloud/src/protocol/alcs\alcs_adapter.c ****         return NULL;
 346              		.loc 1 42 9
  43:C:/Users/stapi/OneDrive/Desktop/GD32VW553/V1_MQTT_OK/GD32VW55X_Wifi_BLE_SDK/GD32VW55x_RELEASE_V1.0.2/MSDK/cloud/alicloud/src/protocol/alcs\alcs_adapter.c ****     }
 347              		.loc 1 43 9
 348              	.L19:
  65:C:/Users/stapi/OneDrive/Desktop/GD32VW553/V1_MQTT_OK/GD32VW55X_Wifi_BLE_SDK/GD32VW55x_RELEASE_V1.0.2/MSDK/cloud/alicloud/src/protocol/alcs\alcs_adapter.c **** 
 349              		.loc 1 65 1 is_stmt 0
 350 003c 2285     		mv	a0,s0
 351 003e 17030000 		tail	__riscv_restore_2
 351      67000300 
 352              		.cfi_remember_state
 353              		.cfi_restore 9
 354              		.cfi_restore 8
 355              		.cfi_restore 1
 356              		.cfi_def_cfa_offset 0
 357              	.LVL36:
 358              	.L18:
 359              		.cfi_restore_state
 360 0046 AE84     		mv	s1,a1
  46:C:/Users/stapi/OneDrive/Desktop/GD32VW553/V1_MQTT_OK/GD32VW55X_Wifi_BLE_SDK/GD32VW55x_RELEASE_V1.0.2/MSDK/cloud/alicloud/src/protocol/alcs\alcs_adapter.c ****     uint8_t slash_count = 0;
 361              		.loc 1 46 5 is_stmt 1
 362              	.LVL37:
  47:C:/Users/stapi/OneDrive/Desktop/GD32VW553/V1_MQTT_OK/GD32VW55X_Wifi_BLE_SDK/GD32VW55x_RELEASE_V1.0.2/MSDK/cloud/alicloud/src/protocol/alcs\alcs_adapter.c ****     uint16_t idx = 0;
 363              		.loc 1 47 5
  48:C:/Users/stapi/OneDrive/Desktop/GD32VW553/V1_MQTT_OK/GD32VW55X_Wifi_BLE_SDK/GD32VW55x_RELEASE_V1.0.2/MSDK/cloud/alicloud/src/protocol/alcs\alcs_adapter.c ****     uint16_t topic_len = strlen(topic);
 364              		.loc 1 48 5
  49:C:/Users/stapi/OneDrive/Desktop/GD32VW553/V1_MQTT_OK/GD32VW55X_Wifi_BLE_SDK/GD32VW55x_RELEASE_V1.0.2/MSDK/cloud/alicloud/src/protocol/alcs\alcs_adapter.c **** 
 365              		.loc 1 49 5
  49:C:/Users/stapi/OneDrive/Desktop/GD32VW553/V1_MQTT_OK/GD32VW55X_Wifi_BLE_SDK/GD32VW55x_RELEASE_V1.0.2/MSDK/cloud/alicloud/src/protocol/alcs\alcs_adapter.c **** 
 366              		.loc 1 49 26 is_stmt 0
 367 0048 97000000 		call	strlen
 367      E7800000 
 368              	.LVL38:
 369 0050 2286     		mv	a2,s0
  51:C:/Users/stapi/OneDrive/Desktop/GD32VW553/V1_MQTT_OK/GD32VW55X_Wifi_BLE_SDK/GD32VW55x_RELEASE_V1.0.2/MSDK/cloud/alicloud/src/protocol/alcs\alcs_adapter.c ****         if (topic[idx] == '/') {
 370              		.loc 1 51 11
 371 0052 A287     		mv	a5,s0
  47:C:/Users/stapi/OneDrive/Desktop/GD32VW553/V1_MQTT_OK/GD32VW55X_Wifi_BLE_SDK/GD32VW55x_RELEASE_V1.0.2/MSDK/cloud/alicloud/src/protocol/alcs\alcs_adapter.c ****     uint16_t idx = 0;
 372              		.loc 1 47 13
 373 0054 0147     		li	a4,0
  46:C:/Users/stapi/OneDrive/Desktop/GD32VW553/V1_MQTT_OK/GD32VW55X_Wifi_BLE_SDK/GD32VW55x_RELEASE_V1.0.2/MSDK/cloud/alicloud/src/protocol/alcs\alcs_adapter.c ****     uint8_t slash_count = 0;
 374              		.loc 1 46 11
 375 0056 0144     		li	s0,0
 376              	.LVL39:
  52:C:/Users/stapi/OneDrive/Desktop/GD32VW553/V1_MQTT_OK/GD32VW55X_Wifi_BLE_SDK/GD32VW55x_RELEASE_V1.0.2/MSDK/cloud/alicloud/src/protocol/alcs\alcs_adapter.c ****             slash_count++;
 377              		.loc 1 52 12
 378 0058 9305F002 		li	a1,47
  54:C:/Users/stapi/OneDrive/Desktop/GD32VW553/V1_MQTT_OK/GD32VW55X_Wifi_BLE_SDK/GD32VW55x_RELEASE_V1.0.2/MSDK/cloud/alicloud/src/protocol/alcs\alcs_adapter.c ****                 pos = topic + idx + 1;
 379              		.loc 1 54 16
 380 005c 0948     		li	a6,2
  57:C:/Users/stapi/OneDrive/Desktop/GD32VW553/V1_MQTT_OK/GD32VW55X_Wifi_BLE_SDK/GD32VW55x_RELEASE_V1.0.2/MSDK/cloud/alicloud/src/protocol/alcs\alcs_adapter.c ****                 *length = topic + idx - pos;
 381              		.loc 1 57 16
 382 005e 8D48     		li	a7,3
  49:C:/Users/stapi/OneDrive/Desktop/GD32VW553/V1_MQTT_OK/GD32VW55X_Wifi_BLE_SDK/GD32VW55x_RELEASE_V1.0.2/MSDK/cloud/alicloud/src/protocol/alcs\alcs_adapter.c **** 
 383              		.loc 1 49 14
 384 0060 33450508 		zext.h	a0,a0
 385              	.LVL40:
  51:C:/Users/stapi/OneDrive/Desktop/GD32VW553/V1_MQTT_OK/GD32VW55X_Wifi_BLE_SDK/GD32VW55x_RELEASE_V1.0.2/MSDK/cloud/alicloud/src/protocol/alcs\alcs_adapter.c ****         if (topic[idx] == '/') {
 386              		.loc 1 51 5 is_stmt 1
 387              	.L20:
  51:C:/Users/stapi/OneDrive/Desktop/GD32VW553/V1_MQTT_OK/GD32VW55X_Wifi_BLE_SDK/GD32VW55x_RELEASE_V1.0.2/MSDK/cloud/alicloud/src/protocol/alcs\alcs_adapter.c ****         if (topic[idx] == '/') {
 388              		.loc 1 51 11
 389 0064 B386C740 		sub	a3,a5,a2
 390 0068 B3C60608 		zext.h	a3,a3
 391 006c E3F8A6FC 		bleu	a0,a3,.L19
  52:C:/Users/stapi/OneDrive/Desktop/GD32VW553/V1_MQTT_OK/GD32VW55X_Wifi_BLE_SDK/GD32VW55x_RELEASE_V1.0.2/MSDK/cloud/alicloud/src/protocol/alcs\alcs_adapter.c ****             slash_count++;
 392              		.loc 1 52 9
 393 0070 93861700 		addi	a3,a5,1
  52:C:/Users/stapi/OneDrive/Desktop/GD32VW553/V1_MQTT_OK/GD32VW55X_Wifi_BLE_SDK/GD32VW55x_RELEASE_V1.0.2/MSDK/cloud/alicloud/src/protocol/alcs\alcs_adapter.c ****             slash_count++;
 394              		.loc 1 52 12 is_stmt 0
 395 0074 03830700 		lb	t1,0(a5)
 396 0078 6318B300 		bne	t1,a1,.L21
  53:C:/Users/stapi/OneDrive/Desktop/GD32VW553/V1_MQTT_OK/GD32VW55X_Wifi_BLE_SDK/GD32VW55x_RELEASE_V1.0.2/MSDK/cloud/alicloud/src/protocol/alcs\alcs_adapter.c ****             if (slash_count == 2) {
 397              		.loc 1 53 13 is_stmt 1
  53:C:/Users/stapi/OneDrive/Desktop/GD32VW553/V1_MQTT_OK/GD32VW55X_Wifi_BLE_SDK/GD32VW55x_RELEASE_V1.0.2/MSDK/cloud/alicloud/src/protocol/alcs\alcs_adapter.c ****             if (slash_count == 2) {
 398              		.loc 1 53 24 is_stmt 0
 399 007c 0507     		addi	a4,a4,1
 400              	.LVL41:
 401 007e 1377F70F 		andi	a4,a4,0xff
 402              	.LVL42:
  54:C:/Users/stapi/OneDrive/Desktop/GD32VW553/V1_MQTT_OK/GD32VW55X_Wifi_BLE_SDK/GD32VW55x_RELEASE_V1.0.2/MSDK/cloud/alicloud/src/protocol/alcs\alcs_adapter.c ****                 pos = topic + idx + 1;
 403              		.loc 1 54 13 is_stmt 1
  54:C:/Users/stapi/OneDrive/Desktop/GD32VW553/V1_MQTT_OK/GD32VW55X_Wifi_BLE_SDK/GD32VW55x_RELEASE_V1.0.2/MSDK/cloud/alicloud/src/protocol/alcs\alcs_adapter.c ****                 pos = topic + idx + 1;
 404              		.loc 1 54 16 is_stmt 0
 405 0082 63150701 		bne	a4,a6,.L22
  55:C:/Users/stapi/OneDrive/Desktop/GD32VW553/V1_MQTT_OK/GD32VW55X_Wifi_BLE_SDK/GD32VW55x_RELEASE_V1.0.2/MSDK/cloud/alicloud/src/protocol/alcs\alcs_adapter.c ****             }
 406              		.loc 1 55 17 is_stmt 1
 407 0086 3684     		mv	s0,a3
 408              	.LVL43:
  57:C:/Users/stapi/OneDrive/Desktop/GD32VW553/V1_MQTT_OK/GD32VW55X_Wifi_BLE_SDK/GD32VW55x_RELEASE_V1.0.2/MSDK/cloud/alicloud/src/protocol/alcs\alcs_adapter.c ****                 *length = topic + idx - pos;
 409              		.loc 1 57 13
 410              	.L21:
  61:C:/Users/stapi/OneDrive/Desktop/GD32VW553/V1_MQTT_OK/GD32VW55X_Wifi_BLE_SDK/GD32VW55x_RELEASE_V1.0.2/MSDK/cloud/alicloud/src/protocol/alcs\alcs_adapter.c ****     }
 411              		.loc 1 61 9
 412 0088 B687     		mv	a5,a3
 413 008a E9BF     		j	.L20
 414              	.LVL44:
 415              	.L22:
  57:C:/Users/stapi/OneDrive/Desktop/GD32VW553/V1_MQTT_OK/GD32VW55X_Wifi_BLE_SDK/GD32VW55x_RELEASE_V1.0.2/MSDK/cloud/alicloud/src/protocol/alcs\alcs_adapter.c ****                 *length = topic + idx - pos;
 416              		.loc 1 57 13
  57:C:/Users/stapi/OneDrive/Desktop/GD32VW553/V1_MQTT_OK/GD32VW55X_Wifi_BLE_SDK/GD32VW55x_RELEASE_V1.0.2/MSDK/cloud/alicloud/src/protocol/alcs\alcs_adapter.c ****                 *length = topic + idx - pos;
 417              		.loc 1 57 16 is_stmt 0
 418 008c E31E17FF 		bne	a4,a7,.L21
  58:C:/Users/stapi/OneDrive/Desktop/GD32VW553/V1_MQTT_OK/GD32VW55X_Wifi_BLE_SDK/GD32VW55x_RELEASE_V1.0.2/MSDK/cloud/alicloud/src/protocol/alcs\alcs_adapter.c ****             }
 419              		.loc 1 58 17 is_stmt 1
  58:C:/Users/stapi/OneDrive/Desktop/GD32VW553/V1_MQTT_OK/GD32VW55X_Wifi_BLE_SDK/GD32VW55x_RELEASE_V1.0.2/MSDK/cloud/alicloud/src/protocol/alcs\alcs_adapter.c ****             }
 420              		.loc 1 58 39 is_stmt 0
 421 0090 818F     		sub	a5,a5,s0
  58:C:/Users/stapi/OneDrive/Desktop/GD32VW553/V1_MQTT_OK/GD32VW55X_Wifi_BLE_SDK/GD32VW55x_RELEASE_V1.0.2/MSDK/cloud/alicloud/src/protocol/alcs\alcs_adapter.c ****             }
 422              		.loc 1 58 25
 423 0092 2390F400 		sh	a5,0(s1)
 424 0096 CDBF     		j	.L21
 425              		.cfi_endproc
 426              	.LFE40:
 428              		.section	.text.iotx_alcs_get_ctx,"ax",@progbits
 429              		.align	1
 430              		.globl	iotx_alcs_get_ctx
 432              	iotx_alcs_get_ctx:
 433              	.LFB21:
  35:C:/Users/stapi/OneDrive/Desktop/GD32VW553/V1_MQTT_OK/GD32VW55X_Wifi_BLE_SDK/GD32VW55x_RELEASE_V1.0.2/MSDK/cloud/alicloud/src/protocol/alcs\alcs_adapter.c ****     return &g_alcs_adapter;
 434              		.loc 1 35 1 is_stmt 1
 435              		.cfi_startproc
  36:C:/Users/stapi/OneDrive/Desktop/GD32VW553/V1_MQTT_OK/GD32VW55X_Wifi_BLE_SDK/GD32VW55x_RELEASE_V1.0.2/MSDK/cloud/alicloud/src/protocol/alcs\alcs_adapter.c **** }
 436              		.loc 1 36 5
  36:C:/Users/stapi/OneDrive/Desktop/GD32VW553/V1_MQTT_OK/GD32VW55X_Wifi_BLE_SDK/GD32VW55x_RELEASE_V1.0.2/MSDK/cloud/alicloud/src/protocol/alcs\alcs_adapter.c **** }
 437              		.loc 1 36 12 is_stmt 0
 438 0000 37050000 		lui	a0,%hi(.LANCHOR0)
  37:C:/Users/stapi/OneDrive/Desktop/GD32VW553/V1_MQTT_OK/GD32VW55X_Wifi_BLE_SDK/GD32VW55x_RELEASE_V1.0.2/MSDK/cloud/alicloud/src/protocol/alcs\alcs_adapter.c **** 
 439              		.loc 1 37 1
 440 0004 13050500 		addi	a0,a0,%lo(.LANCHOR0)
 441 0008 8280     		ret
 442              		.cfi_endproc
 443              	.LFE21:
 445              		.section	.rodata.iotx_alcs_coap_adapter_send_msg_handle.str1.4,"aMS",@progbits,1
 446              		.align	2
 447              	.LC5:
 448 0000 5B77726E 		.string	"[wrn] "
 448      5D2000
 449 0007 00       		.align	2
 450              	.LC6:
 451 0008 556E6B6E 		.string	"Unknown Coap Request Result: %d"
 451      6F776E20 
 451      436F6170 
 451      20526571 
 451      75657374 
 452              		.section	.text.iotx_alcs_coap_adapter_send_msg_handle,"ax",@progbits
 453              		.align	1
 454              		.globl	iotx_alcs_coap_adapter_send_msg_handle
 456              	iotx_alcs_coap_adapter_send_msg_handle:
 457              	.LFB25:
 118:C:/Users/stapi/OneDrive/Desktop/GD32VW553/V1_MQTT_OK/GD32VW55X_Wifi_BLE_SDK/GD32VW55x_RELEASE_V1.0.2/MSDK/cloud/alicloud/src/protocol/alcs\alcs_adapter.c ****     int res = 0;
 458              		.loc 1 118 1 is_stmt 1
 459              		.cfi_startproc
 460              	.LVL45:
 461 0000 17030000 		call	t0,__riscv_save_4
 461      E7020300 
 462              		.cfi_offset 19, -20
 463              		.cfi_offset 18, -16
 464              		.cfi_offset 9, -12
 465              		.cfi_offset 8, -8
 466              		.cfi_offset 1, -4
 467              		.cfi_def_cfa_offset 32
 119:C:/Users/stapi/OneDrive/Desktop/GD32VW553/V1_MQTT_OK/GD32VW55X_Wifi_BLE_SDK/GD32VW55x_RELEASE_V1.0.2/MSDK/cloud/alicloud/src/protocol/alcs\alcs_adapter.c ****     iotx_alcs_adapter_t *adapter = (iotx_alcs_adapter_t *)userdata;
 468              		.loc 1 119 5
 469              	.LVL46:
 120:C:/Users/stapi/OneDrive/Desktop/GD32VW553/V1_MQTT_OK/GD32VW55X_Wifi_BLE_SDK/GD32VW55x_RELEASE_V1.0.2/MSDK/cloud/alicloud/src/protocol/alcs\alcs_adapter.c ****     iotx_alcs_event_msg_t event;
 470              		.loc 1 120 5
 118:C:/Users/stapi/OneDrive/Desktop/GD32VW553/V1_MQTT_OK/GD32VW55X_Wifi_BLE_SDK/GD32VW55x_RELEASE_V1.0.2/MSDK/cloud/alicloud/src/protocol/alcs\alcs_adapter.c ****     int res = 0;
 471              		.loc 1 118 1 is_stmt 0
 472 0008 7971     		addi	sp,sp,-48
 473              		.cfi_def_cfa_offset 80
 122:C:/Users/stapi/OneDrive/Desktop/GD32VW553/V1_MQTT_OK/GD32VW55X_Wifi_BLE_SDK/GD32VW55x_RELEASE_V1.0.2/MSDK/cloud/alicloud/src/protocol/alcs\alcs_adapter.c **** 
 474              		.loc 1 122 5
 475 000a 02C6     		sw	zero,12(sp)
 476 000c 02C8     		sw	zero,16(sp)
 118:C:/Users/stapi/OneDrive/Desktop/GD32VW553/V1_MQTT_OK/GD32VW55X_Wifi_BLE_SDK/GD32VW55x_RELEASE_V1.0.2/MSDK/cloud/alicloud/src/protocol/alcs\alcs_adapter.c ****     int res = 0;
 477              		.loc 1 118 1
 478 000e 3284     		mv	s0,a2
 479              	.LVL47:
 121:C:/Users/stapi/OneDrive/Desktop/GD32VW553/V1_MQTT_OK/GD32VW55X_Wifi_BLE_SDK/GD32VW55x_RELEASE_V1.0.2/MSDK/cloud/alicloud/src/protocol/alcs\alcs_adapter.c ****     memset(&event, 0, sizeof(iotx_alcs_event_msg_t));
 480              		.loc 1 121 5 is_stmt 1
 122:C:/Users/stapi/OneDrive/Desktop/GD32VW553/V1_MQTT_OK/GD32VW55X_Wifi_BLE_SDK/GD32VW55x_RELEASE_V1.0.2/MSDK/cloud/alicloud/src/protocol/alcs\alcs_adapter.c **** 
 481              		.loc 1 122 5
 124:C:/Users/stapi/OneDrive/Desktop/GD32VW553/V1_MQTT_OK/GD32VW55X_Wifi_BLE_SDK/GD32VW55x_RELEASE_V1.0.2/MSDK/cloud/alicloud/src/protocol/alcs\alcs_adapter.c ****         case COAP_REQUEST_SUCCESS: {
 482              		.loc 1 124 5
 118:C:/Users/stapi/OneDrive/Desktop/GD32VW553/V1_MQTT_OK/GD32VW55X_Wifi_BLE_SDK/GD32VW55x_RELEASE_V1.0.2/MSDK/cloud/alicloud/src/protocol/alcs\alcs_adapter.c ****     int res = 0;
 483              		.loc 1 118 1 is_stmt 0
 484 0010 B689     		mv	s3,a3
 485 0012 3A89     		mv	s2,a4
 124:C:/Users/stapi/OneDrive/Desktop/GD32VW553/V1_MQTT_OK/GD32VW55X_Wifi_BLE_SDK/GD32VW55x_RELEASE_V1.0.2/MSDK/cloud/alicloud/src/protocol/alcs\alcs_adapter.c ****         case COAP_REQUEST_SUCCESS: {
 486              		.loc 1 124 5
 487 0014 9DCD     		beq	a1,zero,.L27
 488 0016 8547     		li	a5,1
 489 0018 AE84     		mv	s1,a1
 490 001a 638BF50C 		beq	a1,a5,.L28
 190:C:/Users/stapi/OneDrive/Desktop/GD32VW553/V1_MQTT_OK/GD32VW55X_Wifi_BLE_SDK/GD32VW55x_RELEASE_V1.0.2/MSDK/cloud/alicloud/src/protocol/alcs\alcs_adapter.c ****             break;
 491              		.loc 1 190 13 is_stmt 1
 190:C:/Users/stapi/OneDrive/Desktop/GD32VW553/V1_MQTT_OK/GD32VW55X_Wifi_BLE_SDK/GD32VW55x_RELEASE_V1.0.2/MSDK/cloud/alicloud/src/protocol/alcs\alcs_adapter.c ****             break;
 492              		.loc 1 190 13
 493 001e 37050000 		lui	a0,%hi(.LC5)
 494              	.LVL48:
 495 0022 13050500 		addi	a0,a0,%lo(.LC5)
 496 0026 97000000 		call	HAL_Printf
 496      E7800000 
 497              	.LVL49:
 190:C:/Users/stapi/OneDrive/Desktop/GD32VW553/V1_MQTT_OK/GD32VW55X_Wifi_BLE_SDK/GD32VW55x_RELEASE_V1.0.2/MSDK/cloud/alicloud/src/protocol/alcs\alcs_adapter.c ****             break;
 498              		.loc 1 190 13
 499 002e 37050000 		lui	a0,%hi(.LC6)
 500 0032 A685     		mv	a1,s1
 501 0034 13050500 		addi	a0,a0,%lo(.LC6)
 502 0038 97000000 		call	HAL_Printf
 502      E7800000 
 503              	.LVL50:
 190:C:/Users/stapi/OneDrive/Desktop/GD32VW553/V1_MQTT_OK/GD32VW55X_Wifi_BLE_SDK/GD32VW55x_RELEASE_V1.0.2/MSDK/cloud/alicloud/src/protocol/alcs\alcs_adapter.c ****             break;
 504              		.loc 1 190 13
 505 0040 37050000 		lui	a0,%hi(.LC2)
 506 0044 13050500 		addi	a0,a0,%lo(.LC2)
 507 0048 97000000 		call	HAL_Printf
 507      E7800000 
 508              	.LVL51:
 190:C:/Users/stapi/OneDrive/Desktop/GD32VW553/V1_MQTT_OK/GD32VW55X_Wifi_BLE_SDK/GD32VW55x_RELEASE_V1.0.2/MSDK/cloud/alicloud/src/protocol/alcs\alcs_adapter.c ****             break;
 509              		.loc 1 190 13
 191:C:/Users/stapi/OneDrive/Desktop/GD32VW553/V1_MQTT_OK/GD32VW55X_Wifi_BLE_SDK/GD32VW55x_RELEASE_V1.0.2/MSDK/cloud/alicloud/src/protocol/alcs\alcs_adapter.c ****     }
 510              		.loc 1 191 13
 511 0050 59A8     		j	.L26
 512              	.LVL52:
 513              	.L27:
 514              	.LBB20:
 126:C:/Users/stapi/OneDrive/Desktop/GD32VW553/V1_MQTT_OK/GD32VW55X_Wifi_BLE_SDK/GD32VW55x_RELEASE_V1.0.2/MSDK/cloud/alicloud/src/protocol/alcs\alcs_adapter.c ****             iotx_alcs_send_msg_t *send_msg = NULL;
 515              		.loc 1 126 13
 127:C:/Users/stapi/OneDrive/Desktop/GD32VW553/V1_MQTT_OK/GD32VW55X_Wifi_BLE_SDK/GD32VW55x_RELEASE_V1.0.2/MSDK/cloud/alicloud/src/protocol/alcs\alcs_adapter.c **** 
 516              		.loc 1 127 13
 129:C:/Users/stapi/OneDrive/Desktop/GD32VW553/V1_MQTT_OK/GD32VW55X_Wifi_BLE_SDK/GD32VW55x_RELEASE_V1.0.2/MSDK/cloud/alicloud/src/protocol/alcs\alcs_adapter.c **** 
 517              		.loc 1 129 13 is_stmt 0
 518 0052 6146     		li	a2,24
 519 0054 2808     		addi	a0,sp,24
 520              	.LVL53:
 127:C:/Users/stapi/OneDrive/Desktop/GD32VW553/V1_MQTT_OK/GD32VW55X_Wifi_BLE_SDK/GD32VW55x_RELEASE_V1.0.2/MSDK/cloud/alicloud/src/protocol/alcs\alcs_adapter.c **** 
 521              		.loc 1 127 35
 522 0056 02C4     		sw	zero,8(sp)
 129:C:/Users/stapi/OneDrive/Desktop/GD32VW553/V1_MQTT_OK/GD32VW55X_Wifi_BLE_SDK/GD32VW55x_RELEASE_V1.0.2/MSDK/cloud/alicloud/src/protocol/alcs\alcs_adapter.c **** 
 523              		.loc 1 129 13 is_stmt 1
 524 0058 97000000 		call	memset
 524      E7800000 
 525              	.LVL54:
 131:C:/Users/stapi/OneDrive/Desktop/GD32VW553/V1_MQTT_OK/GD32VW55X_Wifi_BLE_SDK/GD32VW55x_RELEASE_V1.0.2/MSDK/cloud/alicloud/src/protocol/alcs\alcs_adapter.c ****             transfer_msg.port = remote->port;
 526              		.loc 1 131 13
 132:C:/Users/stapi/OneDrive/Desktop/GD32VW553/V1_MQTT_OK/GD32VW55X_Wifi_BLE_SDK/GD32VW55x_RELEASE_V1.0.2/MSDK/cloud/alicloud/src/protocol/alcs\alcs_adapter.c ****             HAL_MutexLock(adapter->mutex);
 527              		.loc 1 132 31 is_stmt 0
 528 0060 83D70901 		lhu	a5,16(s3)
 133:C:/Users/stapi/OneDrive/Desktop/GD32VW553/V1_MQTT_OK/GD32VW55X_Wifi_BLE_SDK/GD32VW55x_RELEASE_V1.0.2/MSDK/cloud/alicloud/src/protocol/alcs\alcs_adapter.c ****             res = _iotx_alcs_send_list_search_and_remove(adapter, message, &send_msg);
 529              		.loc 1 133 13
 530 0064 0840     		lw	a0,0(s0)
 131:C:/Users/stapi/OneDrive/Desktop/GD32VW553/V1_MQTT_OK/GD32VW55X_Wifi_BLE_SDK/GD32VW55x_RELEASE_V1.0.2/MSDK/cloud/alicloud/src/protocol/alcs\alcs_adapter.c ****             transfer_msg.port = remote->port;
 531              		.loc 1 131 29
 532 0066 4ECA     		sw	s3,20(sp)
 132:C:/Users/stapi/OneDrive/Desktop/GD32VW553/V1_MQTT_OK/GD32VW55X_Wifi_BLE_SDK/GD32VW55x_RELEASE_V1.0.2/MSDK/cloud/alicloud/src/protocol/alcs\alcs_adapter.c ****             HAL_MutexLock(adapter->mutex);
 533              		.loc 1 132 13 is_stmt 1
 132:C:/Users/stapi/OneDrive/Desktop/GD32VW553/V1_MQTT_OK/GD32VW55X_Wifi_BLE_SDK/GD32VW55x_RELEASE_V1.0.2/MSDK/cloud/alicloud/src/protocol/alcs\alcs_adapter.c ****             HAL_MutexLock(adapter->mutex);
 534              		.loc 1 132 31 is_stmt 0
 535 0068 231CF100 		sh	a5,24(sp)
 133:C:/Users/stapi/OneDrive/Desktop/GD32VW553/V1_MQTT_OK/GD32VW55X_Wifi_BLE_SDK/GD32VW55x_RELEASE_V1.0.2/MSDK/cloud/alicloud/src/protocol/alcs\alcs_adapter.c ****             res = _iotx_alcs_send_list_search_and_remove(adapter, message, &send_msg);
 536              		.loc 1 133 13 is_stmt 1
 537 006c 97000000 		call	HAL_MutexLock
 537      E7800000 
 538              	.LVL55:
 134:C:/Users/stapi/OneDrive/Desktop/GD32VW553/V1_MQTT_OK/GD32VW55X_Wifi_BLE_SDK/GD32VW55x_RELEASE_V1.0.2/MSDK/cloud/alicloud/src/protocol/alcs\alcs_adapter.c ****             HAL_MutexUnlock(adapter->mutex);
 539              		.loc 1 134 13
 134:C:/Users/stapi/OneDrive/Desktop/GD32VW553/V1_MQTT_OK/GD32VW55X_Wifi_BLE_SDK/GD32VW55x_RELEASE_V1.0.2/MSDK/cloud/alicloud/src/protocol/alcs\alcs_adapter.c ****             HAL_MutexUnlock(adapter->mutex);
 540              		.loc 1 134 19 is_stmt 0
 541 0074 3000     		addi	a2,sp,8
 542 0076 CA85     		mv	a1,s2
 543 0078 2285     		mv	a0,s0
 544 007a 97000000 		call	_iotx_alcs_send_list_search_and_remove
 544      E7800000 
 545              	.LVL56:
 546 0082 AA84     		mv	s1,a0
 547              	.LVL57:
 135:C:/Users/stapi/OneDrive/Desktop/GD32VW553/V1_MQTT_OK/GD32VW55X_Wifi_BLE_SDK/GD32VW55x_RELEASE_V1.0.2/MSDK/cloud/alicloud/src/protocol/alcs\alcs_adapter.c **** 
 548              		.loc 1 135 13 is_stmt 1
 549 0084 0840     		lw	a0,0(s0)
 550 0086 97000000 		call	HAL_MutexUnlock
 550      E7800000 
 551              	.LVL58:
 137:C:/Users/stapi/OneDrive/Desktop/GD32VW553/V1_MQTT_OK/GD32VW55X_Wifi_BLE_SDK/GD32VW55x_RELEASE_V1.0.2/MSDK/cloud/alicloud/src/protocol/alcs\alcs_adapter.c ****                 return;
 552              		.loc 1 137 13
 137:C:/Users/stapi/OneDrive/Desktop/GD32VW553/V1_MQTT_OK/GD32VW55X_Wifi_BLE_SDK/GD32VW55x_RELEASE_V1.0.2/MSDK/cloud/alicloud/src/protocol/alcs\alcs_adapter.c ****                 return;
 553              		.loc 1 137 16 is_stmt 0
 554 008e 63CC0404 		blt	s1,zero,.L26
 141:C:/Users/stapi/OneDrive/Desktop/GD32VW553/V1_MQTT_OK/GD32VW55X_Wifi_BLE_SDK/GD32VW55x_RELEASE_V1.0.2/MSDK/cloud/alicloud/src/protocol/alcs\alcs_adapter.c ****             transfer_msg.token_len = send_msg->token_len;
 555              		.loc 1 141 13 is_stmt 1
 141:C:/Users/stapi/OneDrive/Desktop/GD32VW553/V1_MQTT_OK/GD32VW55X_Wifi_BLE_SDK/GD32VW55x_RELEASE_V1.0.2/MSDK/cloud/alicloud/src/protocol/alcs\alcs_adapter.c ****             transfer_msg.token_len = send_msg->token_len;
 556              		.loc 1 141 40 is_stmt 0
 557 0092 A247     		lw	a5,8(sp)
 141:C:/Users/stapi/OneDrive/Desktop/GD32VW553/V1_MQTT_OK/GD32VW55X_Wifi_BLE_SDK/GD32VW55x_RELEASE_V1.0.2/MSDK/cloud/alicloud/src/protocol/alcs\alcs_adapter.c ****             transfer_msg.token_len = send_msg->token_len;
 558              		.loc 1 141 30
 559 0094 9847     		lw	a4,8(a5)
 560 0096 3ACE     		sw	a4,28(sp)
 142:C:/Users/stapi/OneDrive/Desktop/GD32VW553/V1_MQTT_OK/GD32VW55X_Wifi_BLE_SDK/GD32VW55x_RELEASE_V1.0.2/MSDK/cloud/alicloud/src/protocol/alcs\alcs_adapter.c ****             transfer_msg.token = send_msg->token;
 561              		.loc 1 142 13 is_stmt 1
 142:C:/Users/stapi/OneDrive/Desktop/GD32VW553/V1_MQTT_OK/GD32VW55X_Wifi_BLE_SDK/GD32VW55x_RELEASE_V1.0.2/MSDK/cloud/alicloud/src/protocol/alcs\alcs_adapter.c ****             transfer_msg.token = send_msg->token;
 562              		.loc 1 142 36 is_stmt 0
 563 0098 03C70700 		lbu	a4,0(a5)
 147:C:/Users/stapi/OneDrive/Desktop/GD32VW553/V1_MQTT_OK/GD32VW55X_Wifi_BLE_SDK/GD32VW55x_RELEASE_V1.0.2/MSDK/cloud/alicloud/src/protocol/alcs\alcs_adapter.c ****             event.msg = &transfer_msg;
 564              		.loc 1 147 30
 565 009c 02C6     		sw	zero,12(sp)
 142:C:/Users/stapi/OneDrive/Desktop/GD32VW553/V1_MQTT_OK/GD32VW55X_Wifi_BLE_SDK/GD32VW55x_RELEASE_V1.0.2/MSDK/cloud/alicloud/src/protocol/alcs\alcs_adapter.c ****             transfer_msg.token = send_msg->token;
 566              		.loc 1 142 36
 567 009e 2300E102 		sb	a4,32(sp)
 143:C:/Users/stapi/OneDrive/Desktop/GD32VW553/V1_MQTT_OK/GD32VW55X_Wifi_BLE_SDK/GD32VW55x_RELEASE_V1.0.2/MSDK/cloud/alicloud/src/protocol/alcs\alcs_adapter.c ****             transfer_msg.payload_len = message->payloadlen;
 568              		.loc 1 143 13 is_stmt 1
 143:C:/Users/stapi/OneDrive/Desktop/GD32VW553/V1_MQTT_OK/GD32VW55X_Wifi_BLE_SDK/GD32VW55x_RELEASE_V1.0.2/MSDK/cloud/alicloud/src/protocol/alcs\alcs_adapter.c ****             transfer_msg.payload_len = message->payloadlen;
 569              		.loc 1 143 32 is_stmt 0
 570 00a2 DC43     		lw	a5,4(a5)
 571 00a4 3ED2     		sw	a5,36(sp)
 144:C:/Users/stapi/OneDrive/Desktop/GD32VW553/V1_MQTT_OK/GD32VW55X_Wifi_BLE_SDK/GD32VW55x_RELEASE_V1.0.2/MSDK/cloud/alicloud/src/protocol/alcs\alcs_adapter.c ****             transfer_msg.payload = message->payload;
 572              		.loc 1 144 13 is_stmt 1
 144:C:/Users/stapi/OneDrive/Desktop/GD32VW553/V1_MQTT_OK/GD32VW55X_Wifi_BLE_SDK/GD32VW55x_RELEASE_V1.0.2/MSDK/cloud/alicloud/src/protocol/alcs\alcs_adapter.c ****             transfer_msg.payload = message->payload;
 573              		.loc 1 144 38 is_stmt 0
 574 00a6 8357E906 		lhu	a5,110(s2)
 575 00aa 2314F102 		sh	a5,40(sp)
 145:C:/Users/stapi/OneDrive/Desktop/GD32VW553/V1_MQTT_OK/GD32VW55X_Wifi_BLE_SDK/GD32VW55x_RELEASE_V1.0.2/MSDK/cloud/alicloud/src/protocol/alcs\alcs_adapter.c **** 
 576              		.loc 1 145 13 is_stmt 1
 145:C:/Users/stapi/OneDrive/Desktop/GD32VW553/V1_MQTT_OK/GD32VW55X_Wifi_BLE_SDK/GD32VW55x_RELEASE_V1.0.2/MSDK/cloud/alicloud/src/protocol/alcs\alcs_adapter.c **** 
 577              		.loc 1 145 34 is_stmt 0
 578 00ae 83270907 		lw	a5,112(s2)
 579 00b2 3ED6     		sw	a5,44(sp)
 147:C:/Users/stapi/OneDrive/Desktop/GD32VW553/V1_MQTT_OK/GD32VW55X_Wifi_BLE_SDK/GD32VW55x_RELEASE_V1.0.2/MSDK/cloud/alicloud/src/protocol/alcs\alcs_adapter.c ****             event.msg = &transfer_msg;
 580              		.loc 1 147 13 is_stmt 1
 148:C:/Users/stapi/OneDrive/Desktop/GD32VW553/V1_MQTT_OK/GD32VW55X_Wifi_BLE_SDK/GD32VW55x_RELEASE_V1.0.2/MSDK/cloud/alicloud/src/protocol/alcs\alcs_adapter.c **** 
 581              		.loc 1 148 13
 582              	.LVL59:
 583              	.L35:
 584              	.LBE20:
 585              	.LBB21:
 180:C:/Users/stapi/OneDrive/Desktop/GD32VW553/V1_MQTT_OK/GD32VW55X_Wifi_BLE_SDK/GD32VW55x_RELEASE_V1.0.2/MSDK/cloud/alicloud/src/protocol/alcs\alcs_adapter.c **** 
 586              		.loc 1 180 13
 180:C:/Users/stapi/OneDrive/Desktop/GD32VW553/V1_MQTT_OK/GD32VW55X_Wifi_BLE_SDK/GD32VW55x_RELEASE_V1.0.2/MSDK/cloud/alicloud/src/protocol/alcs\alcs_adapter.c **** 
 587              		.loc 1 180 23 is_stmt 0
 588 00b4 5C08     		addi	a5,sp,20
 589 00b6 3EC8     		sw	a5,16(sp)
 182:C:/Users/stapi/OneDrive/Desktop/GD32VW553/V1_MQTT_OK/GD32VW55X_Wifi_BLE_SDK/GD32VW55x_RELEASE_V1.0.2/MSDK/cloud/alicloud/src/protocol/alcs\alcs_adapter.c **** 
 590              		.loc 1 182 13 is_stmt 1
 182:C:/Users/stapi/OneDrive/Desktop/GD32VW553/V1_MQTT_OK/GD32VW55X_Wifi_BLE_SDK/GD32VW55x_RELEASE_V1.0.2/MSDK/cloud/alicloud/src/protocol/alcs\alcs_adapter.c **** 
 591              		.loc 1 182 20 is_stmt 0
 592 00b8 1C4C     		lw	a5,24(s0)
 182:C:/Users/stapi/OneDrive/Desktop/GD32VW553/V1_MQTT_OK/GD32VW55X_Wifi_BLE_SDK/GD32VW55x_RELEASE_V1.0.2/MSDK/cloud/alicloud/src/protocol/alcs\alcs_adapter.c **** 
 593              		.loc 1 182 13
 594 00ba 7000     		addi	a2,sp,12
 595 00bc A285     		mv	a1,s0
 596 00be 9843     		lw	a4,0(a5)
 597 00c0 C843     		lw	a0,4(a5)
 598 00c2 0297     		jalr	a4
 599              	.LVL60:
 184:C:/Users/stapi/OneDrive/Desktop/GD32VW553/V1_MQTT_OK/GD32VW55X_Wifi_BLE_SDK/GD32VW55x_RELEASE_V1.0.2/MSDK/cloud/alicloud/src/protocol/alcs\alcs_adapter.c ****             LITE_free(send_msg->uri);
 600              		.loc 1 184 13 is_stmt 1
 601 00c4 A247     		lw	a5,8(sp)
 602 00c6 C843     		lw	a0,4(a5)
 603 00c8 97000000 		call	LITE_free_internal
 603      E7800000 
 604              	.LVL61:
 185:C:/Users/stapi/OneDrive/Desktop/GD32VW553/V1_MQTT_OK/GD32VW55X_Wifi_BLE_SDK/GD32VW55x_RELEASE_V1.0.2/MSDK/cloud/alicloud/src/protocol/alcs\alcs_adapter.c ****             LITE_free(send_msg);
 605              		.loc 1 185 13
 606 00d0 A247     		lw	a5,8(sp)
 607 00d2 8847     		lw	a0,8(a5)
 608 00d4 97000000 		call	LITE_free_internal
 608      E7800000 
 609              	.LVL62:
 186:C:/Users/stapi/OneDrive/Desktop/GD32VW553/V1_MQTT_OK/GD32VW55X_Wifi_BLE_SDK/GD32VW55x_RELEASE_V1.0.2/MSDK/cloud/alicloud/src/protocol/alcs\alcs_adapter.c ****         }
 610              		.loc 1 186 13
 611 00dc 2245     		lw	a0,8(sp)
 612 00de 97000000 		call	LITE_free_internal
 612      E7800000 
 613              	.LVL63:
 614              	.LBE21:
 188:C:/Users/stapi/OneDrive/Desktop/GD32VW553/V1_MQTT_OK/GD32VW55X_Wifi_BLE_SDK/GD32VW55x_RELEASE_V1.0.2/MSDK/cloud/alicloud/src/protocol/alcs\alcs_adapter.c ****         default:
 615              		.loc 1 188 9
 616              	.L26:
 193:C:/Users/stapi/OneDrive/Desktop/GD32VW553/V1_MQTT_OK/GD32VW55X_Wifi_BLE_SDK/GD32VW55x_RELEASE_V1.0.2/MSDK/cloud/alicloud/src/protocol/alcs\alcs_adapter.c **** 
 617              		.loc 1 193 1 is_stmt 0
 618 00e6 4561     		addi	sp,sp,48
 619              		.cfi_remember_state
 620              		.cfi_def_cfa_offset 0
 621 00e8 17030000 		tail	__riscv_restore_4
 621      67000300 
 622              		.cfi_restore 19
 623              		.cfi_restore 18
 624              		.cfi_restore 9
 625              		.cfi_restore 8
 626              		.cfi_restore 1
 627              		.cfi_def_cfa_offset -32
 628              	.LVL64:
 629              	.L28:
 630              		.cfi_restore_state
 631              	.LBB22:
 158:C:/Users/stapi/OneDrive/Desktop/GD32VW553/V1_MQTT_OK/GD32VW55X_Wifi_BLE_SDK/GD32VW55x_RELEASE_V1.0.2/MSDK/cloud/alicloud/src/protocol/alcs\alcs_adapter.c ****             iotx_alcs_send_msg_t *send_msg = NULL;
 632              		.loc 1 158 13 is_stmt 1
 159:C:/Users/stapi/OneDrive/Desktop/GD32VW553/V1_MQTT_OK/GD32VW55X_Wifi_BLE_SDK/GD32VW55x_RELEASE_V1.0.2/MSDK/cloud/alicloud/src/protocol/alcs\alcs_adapter.c **** 
 633              		.loc 1 159 13
 161:C:/Users/stapi/OneDrive/Desktop/GD32VW553/V1_MQTT_OK/GD32VW55X_Wifi_BLE_SDK/GD32VW55x_RELEASE_V1.0.2/MSDK/cloud/alicloud/src/protocol/alcs\alcs_adapter.c **** 
 634              		.loc 1 161 13 is_stmt 0
 635 00f0 6146     		li	a2,24
 636 00f2 8145     		li	a1,0
 637 00f4 2808     		addi	a0,sp,24
 638              	.LVL65:
 159:C:/Users/stapi/OneDrive/Desktop/GD32VW553/V1_MQTT_OK/GD32VW55X_Wifi_BLE_SDK/GD32VW55x_RELEASE_V1.0.2/MSDK/cloud/alicloud/src/protocol/alcs\alcs_adapter.c **** 
 639              		.loc 1 159 35
 640 00f6 02C4     		sw	zero,8(sp)
 161:C:/Users/stapi/OneDrive/Desktop/GD32VW553/V1_MQTT_OK/GD32VW55X_Wifi_BLE_SDK/GD32VW55x_RELEASE_V1.0.2/MSDK/cloud/alicloud/src/protocol/alcs\alcs_adapter.c **** 
 641              		.loc 1 161 13 is_stmt 1
 642 00f8 97000000 		call	memset
 642      E7800000 
 643              	.LVL66:
 163:C:/Users/stapi/OneDrive/Desktop/GD32VW553/V1_MQTT_OK/GD32VW55X_Wifi_BLE_SDK/GD32VW55x_RELEASE_V1.0.2/MSDK/cloud/alicloud/src/protocol/alcs\alcs_adapter.c ****             transfer_msg.port = remote->port;
 644              		.loc 1 163 13
 164:C:/Users/stapi/OneDrive/Desktop/GD32VW553/V1_MQTT_OK/GD32VW55X_Wifi_BLE_SDK/GD32VW55x_RELEASE_V1.0.2/MSDK/cloud/alicloud/src/protocol/alcs\alcs_adapter.c ****             HAL_MutexLock(adapter->mutex);
 645              		.loc 1 164 31 is_stmt 0
 646 0100 83D70901 		lhu	a5,16(s3)
 165:C:/Users/stapi/OneDrive/Desktop/GD32VW553/V1_MQTT_OK/GD32VW55X_Wifi_BLE_SDK/GD32VW55x_RELEASE_V1.0.2/MSDK/cloud/alicloud/src/protocol/alcs\alcs_adapter.c ****             res = _iotx_alcs_send_list_search_and_remove(adapter, message, &send_msg);
 647              		.loc 1 165 13
 648 0104 0840     		lw	a0,0(s0)
 163:C:/Users/stapi/OneDrive/Desktop/GD32VW553/V1_MQTT_OK/GD32VW55X_Wifi_BLE_SDK/GD32VW55x_RELEASE_V1.0.2/MSDK/cloud/alicloud/src/protocol/alcs\alcs_adapter.c ****             transfer_msg.port = remote->port;
 649              		.loc 1 163 29
 650 0106 4ECA     		sw	s3,20(sp)
 164:C:/Users/stapi/OneDrive/Desktop/GD32VW553/V1_MQTT_OK/GD32VW55X_Wifi_BLE_SDK/GD32VW55x_RELEASE_V1.0.2/MSDK/cloud/alicloud/src/protocol/alcs\alcs_adapter.c ****             HAL_MutexLock(adapter->mutex);
 651              		.loc 1 164 13 is_stmt 1
 164:C:/Users/stapi/OneDrive/Desktop/GD32VW553/V1_MQTT_OK/GD32VW55X_Wifi_BLE_SDK/GD32VW55x_RELEASE_V1.0.2/MSDK/cloud/alicloud/src/protocol/alcs\alcs_adapter.c ****             HAL_MutexLock(adapter->mutex);
 652              		.loc 1 164 31 is_stmt 0
 653 0108 231CF100 		sh	a5,24(sp)
 165:C:/Users/stapi/OneDrive/Desktop/GD32VW553/V1_MQTT_OK/GD32VW55X_Wifi_BLE_SDK/GD32VW55x_RELEASE_V1.0.2/MSDK/cloud/alicloud/src/protocol/alcs\alcs_adapter.c ****             res = _iotx_alcs_send_list_search_and_remove(adapter, message, &send_msg);
 654              		.loc 1 165 13 is_stmt 1
 655 010c 97000000 		call	HAL_MutexLock
 655      E7800000 
 656              	.LVL67:
 166:C:/Users/stapi/OneDrive/Desktop/GD32VW553/V1_MQTT_OK/GD32VW55X_Wifi_BLE_SDK/GD32VW55x_RELEASE_V1.0.2/MSDK/cloud/alicloud/src/protocol/alcs\alcs_adapter.c ****             HAL_MutexUnlock(adapter->mutex);
 657              		.loc 1 166 13
 166:C:/Users/stapi/OneDrive/Desktop/GD32VW553/V1_MQTT_OK/GD32VW55X_Wifi_BLE_SDK/GD32VW55x_RELEASE_V1.0.2/MSDK/cloud/alicloud/src/protocol/alcs\alcs_adapter.c ****             HAL_MutexUnlock(adapter->mutex);
 658              		.loc 1 166 19 is_stmt 0
 659 0114 CA85     		mv	a1,s2
 660 0116 3000     		addi	a2,sp,8
 661 0118 2285     		mv	a0,s0
 662 011a 97000000 		call	_iotx_alcs_send_list_search_and_remove
 662      E7800000 
 663              	.LVL68:
 664 0122 2A89     		mv	s2,a0
 665              	.LVL69:
 167:C:/Users/stapi/OneDrive/Desktop/GD32VW553/V1_MQTT_OK/GD32VW55X_Wifi_BLE_SDK/GD32VW55x_RELEASE_V1.0.2/MSDK/cloud/alicloud/src/protocol/alcs\alcs_adapter.c **** 
 666              		.loc 1 167 13 is_stmt 1
 667 0124 0840     		lw	a0,0(s0)
 668              	.LVL70:
 669 0126 97000000 		call	HAL_MutexUnlock
 669      E7800000 
 670              	.LVL71:
 169:C:/Users/stapi/OneDrive/Desktop/GD32VW553/V1_MQTT_OK/GD32VW55X_Wifi_BLE_SDK/GD32VW55x_RELEASE_V1.0.2/MSDK/cloud/alicloud/src/protocol/alcs\alcs_adapter.c ****                 return;
 671              		.loc 1 169 13
 169:C:/Users/stapi/OneDrive/Desktop/GD32VW553/V1_MQTT_OK/GD32VW55X_Wifi_BLE_SDK/GD32VW55x_RELEASE_V1.0.2/MSDK/cloud/alicloud/src/protocol/alcs\alcs_adapter.c ****                 return;
 672              		.loc 1 169 16 is_stmt 0
 673 012e E34C09FA 		blt	s2,zero,.L26
 173:C:/Users/stapi/OneDrive/Desktop/GD32VW553/V1_MQTT_OK/GD32VW55X_Wifi_BLE_SDK/GD32VW55x_RELEASE_V1.0.2/MSDK/cloud/alicloud/src/protocol/alcs\alcs_adapter.c ****             transfer_msg.token_len = send_msg->token_len;
 674              		.loc 1 173 13 is_stmt 1
 173:C:/Users/stapi/OneDrive/Desktop/GD32VW553/V1_MQTT_OK/GD32VW55X_Wifi_BLE_SDK/GD32VW55x_RELEASE_V1.0.2/MSDK/cloud/alicloud/src/protocol/alcs\alcs_adapter.c ****             transfer_msg.token_len = send_msg->token_len;
 675              		.loc 1 173 40 is_stmt 0
 676 0132 A247     		lw	a5,8(sp)
 173:C:/Users/stapi/OneDrive/Desktop/GD32VW553/V1_MQTT_OK/GD32VW55X_Wifi_BLE_SDK/GD32VW55x_RELEASE_V1.0.2/MSDK/cloud/alicloud/src/protocol/alcs\alcs_adapter.c ****             transfer_msg.token_len = send_msg->token_len;
 677              		.loc 1 173 30
 678 0134 9847     		lw	a4,8(a5)
 679 0136 3ACE     		sw	a4,28(sp)
 174:C:/Users/stapi/OneDrive/Desktop/GD32VW553/V1_MQTT_OK/GD32VW55X_Wifi_BLE_SDK/GD32VW55x_RELEASE_V1.0.2/MSDK/cloud/alicloud/src/protocol/alcs\alcs_adapter.c ****             transfer_msg.token = send_msg->token;
 680              		.loc 1 174 13 is_stmt 1
 174:C:/Users/stapi/OneDrive/Desktop/GD32VW553/V1_MQTT_OK/GD32VW55X_Wifi_BLE_SDK/GD32VW55x_RELEASE_V1.0.2/MSDK/cloud/alicloud/src/protocol/alcs\alcs_adapter.c ****             transfer_msg.token = send_msg->token;
 681              		.loc 1 174 36 is_stmt 0
 682 0138 03C70700 		lbu	a4,0(a5)
 179:C:/Users/stapi/OneDrive/Desktop/GD32VW553/V1_MQTT_OK/GD32VW55X_Wifi_BLE_SDK/GD32VW55x_RELEASE_V1.0.2/MSDK/cloud/alicloud/src/protocol/alcs\alcs_adapter.c ****             event.msg = &transfer_msg;
 683              		.loc 1 179 30
 684 013c 26C6     		sw	s1,12(sp)
 174:C:/Users/stapi/OneDrive/Desktop/GD32VW553/V1_MQTT_OK/GD32VW55X_Wifi_BLE_SDK/GD32VW55x_RELEASE_V1.0.2/MSDK/cloud/alicloud/src/protocol/alcs\alcs_adapter.c ****             transfer_msg.token = send_msg->token;
 685              		.loc 1 174 36
 686 013e 2300E102 		sb	a4,32(sp)
 175:C:/Users/stapi/OneDrive/Desktop/GD32VW553/V1_MQTT_OK/GD32VW55X_Wifi_BLE_SDK/GD32VW55x_RELEASE_V1.0.2/MSDK/cloud/alicloud/src/protocol/alcs\alcs_adapter.c ****             transfer_msg.payload_len = 0;
 687              		.loc 1 175 13 is_stmt 1
 175:C:/Users/stapi/OneDrive/Desktop/GD32VW553/V1_MQTT_OK/GD32VW55X_Wifi_BLE_SDK/GD32VW55x_RELEASE_V1.0.2/MSDK/cloud/alicloud/src/protocol/alcs\alcs_adapter.c ****             transfer_msg.payload_len = 0;
 688              		.loc 1 175 32 is_stmt 0
 689 0142 DC43     		lw	a5,4(a5)
 176:C:/Users/stapi/OneDrive/Desktop/GD32VW553/V1_MQTT_OK/GD32VW55X_Wifi_BLE_SDK/GD32VW55x_RELEASE_V1.0.2/MSDK/cloud/alicloud/src/protocol/alcs\alcs_adapter.c ****             transfer_msg.payload = NULL;
 690              		.loc 1 176 38
 691 0144 23140102 		sh	zero,40(sp)
 177:C:/Users/stapi/OneDrive/Desktop/GD32VW553/V1_MQTT_OK/GD32VW55X_Wifi_BLE_SDK/GD32VW55x_RELEASE_V1.0.2/MSDK/cloud/alicloud/src/protocol/alcs\alcs_adapter.c **** 
 692              		.loc 1 177 34
 693 0148 02D6     		sw	zero,44(sp)
 175:C:/Users/stapi/OneDrive/Desktop/GD32VW553/V1_MQTT_OK/GD32VW55X_Wifi_BLE_SDK/GD32VW55x_RELEASE_V1.0.2/MSDK/cloud/alicloud/src/protocol/alcs\alcs_adapter.c ****             transfer_msg.payload_len = 0;
 694              		.loc 1 175 32
 695 014a 3ED2     		sw	a5,36(sp)
 176:C:/Users/stapi/OneDrive/Desktop/GD32VW553/V1_MQTT_OK/GD32VW55X_Wifi_BLE_SDK/GD32VW55x_RELEASE_V1.0.2/MSDK/cloud/alicloud/src/protocol/alcs\alcs_adapter.c ****             transfer_msg.payload = NULL;
 696              		.loc 1 176 13 is_stmt 1
 177:C:/Users/stapi/OneDrive/Desktop/GD32VW553/V1_MQTT_OK/GD32VW55X_Wifi_BLE_SDK/GD32VW55x_RELEASE_V1.0.2/MSDK/cloud/alicloud/src/protocol/alcs\alcs_adapter.c **** 
 697              		.loc 1 177 13
 179:C:/Users/stapi/OneDrive/Desktop/GD32VW553/V1_MQTT_OK/GD32VW55X_Wifi_BLE_SDK/GD32VW55x_RELEASE_V1.0.2/MSDK/cloud/alicloud/src/protocol/alcs\alcs_adapter.c ****             event.msg = &transfer_msg;
 698              		.loc 1 179 13
 699 014c A5B7     		j	.L35
 700              	.LBE22:
 701              		.cfi_endproc
 702              	.LFE25:
 704              		.section	.text.iotx_alcs_adapter_list_init,"ax",@progbits
 705              		.align	1
 706              		.globl	iotx_alcs_adapter_list_init
 708              	iotx_alcs_adapter_list_init:
 709              	.LFB27:
 200:C:/Users/stapi/OneDrive/Desktop/GD32VW553/V1_MQTT_OK/GD32VW55X_Wifi_BLE_SDK/GD32VW55x_RELEASE_V1.0.2/MSDK/cloud/alicloud/src/protocol/alcs\alcs_adapter.c **** 
 201:C:/Users/stapi/OneDrive/Desktop/GD32VW553/V1_MQTT_OK/GD32VW55X_Wifi_BLE_SDK/GD32VW55x_RELEASE_V1.0.2/MSDK/cloud/alicloud/src/protocol/alcs\alcs_adapter.c **** int iotx_alcs_adapter_list_init(iotx_alcs_adapter_t *adapter)
 202:C:/Users/stapi/OneDrive/Desktop/GD32VW553/V1_MQTT_OK/GD32VW55X_Wifi_BLE_SDK/GD32VW55x_RELEASE_V1.0.2/MSDK/cloud/alicloud/src/protocol/alcs\alcs_adapter.c **** {
 710              		.loc 1 202 1
 711              		.cfi_startproc
 712              	.LVL72:
 203:C:/Users/stapi/OneDrive/Desktop/GD32VW553/V1_MQTT_OK/GD32VW55X_Wifi_BLE_SDK/GD32VW55x_RELEASE_V1.0.2/MSDK/cloud/alicloud/src/protocol/alcs\alcs_adapter.c ****     //initialze send list
 204:C:/Users/stapi/OneDrive/Desktop/GD32VW553/V1_MQTT_OK/GD32VW55X_Wifi_BLE_SDK/GD32VW55x_RELEASE_V1.0.2/MSDK/cloud/alicloud/src/protocol/alcs\alcs_adapter.c ****     INIT_LIST_HEAD(&adapter->alcs_send_list);
 713              		.loc 1 204 5
 714              		.loc 1 204 20 is_stmt 0
 715 0000 9307C501 		addi	a5,a0,28
 716              	.LVL73:
 717              	.LBB23:
 718              	.LBB24:
  73:..\..\..\..\cloud\alicloud\src\infra\utils\misc/lite-list.h **** }
  74:..\..\..\..\cloud\alicloud\src\infra\utils\misc/lite-list.h **** 
  75:..\..\..\..\cloud\alicloud\src\infra\utils\misc/lite-list.h **** static inline void dlist_init(dlist_t *node)
  76:..\..\..\..\cloud\alicloud\src\infra\utils\misc/lite-list.h **** {
  77:..\..\..\..\cloud\alicloud\src\infra\utils\misc/lite-list.h ****     node->next = node->prev = node;
  78:..\..\..\..\cloud\alicloud\src\infra\utils\misc/lite-list.h **** }
  79:..\..\..\..\cloud\alicloud\src\infra\utils\misc/lite-list.h **** 
  80:..\..\..\..\cloud\alicloud\src\infra\utils\misc/lite-list.h **** static inline void INIT_AOS_DLIST_HEAD(dlist_t *list)
  81:..\..\..\..\cloud\alicloud\src\infra\utils\misc/lite-list.h **** {
  82:..\..\..\..\cloud\alicloud\src\infra\utils\misc/lite-list.h ****     list->next = list;
 719              		.loc 2 82 5 is_stmt 1
 720              		.loc 2 82 16 is_stmt 0
 721 0004 1CD1     		sw	a5,32(a0)
  83:..\..\..\..\cloud\alicloud\src\infra\utils\misc/lite-list.h ****     list->prev = list;
 722              		.loc 2 83 5 is_stmt 1
 723              		.loc 2 83 16 is_stmt 0
 724 0006 5CCD     		sw	a5,28(a0)
 725              	.LVL74:
 726              	.LBE24:
 727              	.LBE23:
 205:C:/Users/stapi/OneDrive/Desktop/GD32VW553/V1_MQTT_OK/GD32VW55X_Wifi_BLE_SDK/GD32VW55x_RELEASE_V1.0.2/MSDK/cloud/alicloud/src/protocol/alcs\alcs_adapter.c **** #ifdef DEVICE_MODEL_GATEWAY
 206:C:/Users/stapi/OneDrive/Desktop/GD32VW553/V1_MQTT_OK/GD32VW55X_Wifi_BLE_SDK/GD32VW55x_RELEASE_V1.0.2/MSDK/cloud/alicloud/src/protocol/alcs\alcs_adapter.c ****     INIT_LIST_HEAD(&adapter->alcs_subdev_list);
 207:C:/Users/stapi/OneDrive/Desktop/GD32VW553/V1_MQTT_OK/GD32VW55X_Wifi_BLE_SDK/GD32VW55x_RELEASE_V1.0.2/MSDK/cloud/alicloud/src/protocol/alcs\alcs_adapter.c **** #endif
 208:C:/Users/stapi/OneDrive/Desktop/GD32VW553/V1_MQTT_OK/GD32VW55X_Wifi_BLE_SDK/GD32VW55x_RELEASE_V1.0.2/MSDK/cloud/alicloud/src/protocol/alcs\alcs_adapter.c ****     return SUCCESS_RETURN;
 728              		.loc 1 208 5 is_stmt 1
 209:C:/Users/stapi/OneDrive/Desktop/GD32VW553/V1_MQTT_OK/GD32VW55X_Wifi_BLE_SDK/GD32VW55x_RELEASE_V1.0.2/MSDK/cloud/alicloud/src/protocol/alcs\alcs_adapter.c **** }
 729              		.loc 1 209 1 is_stmt 0
 730 0008 0145     		li	a0,0
 731              	.LVL75:
 732 000a 8280     		ret
 733              		.cfi_endproc
 734              	.LFE27:
 736              		.section	.text.iotx_alcs_adapter_deinit,"ax",@progbits
 737              		.align	1
 738              		.globl	iotx_alcs_adapter_deinit
 740              	iotx_alcs_adapter_deinit:
 741              	.LFB29:
 210:C:/Users/stapi/OneDrive/Desktop/GD32VW553/V1_MQTT_OK/GD32VW55X_Wifi_BLE_SDK/GD32VW55x_RELEASE_V1.0.2/MSDK/cloud/alicloud/src/protocol/alcs\alcs_adapter.c **** 
 211:C:/Users/stapi/OneDrive/Desktop/GD32VW553/V1_MQTT_OK/GD32VW55X_Wifi_BLE_SDK/GD32VW55x_RELEASE_V1.0.2/MSDK/cloud/alicloud/src/protocol/alcs\alcs_adapter.c **** static void _iotx_alcs_adapter_send_list_destroy(iotx_alcs_adapter_t *adapter)
 212:C:/Users/stapi/OneDrive/Desktop/GD32VW553/V1_MQTT_OK/GD32VW55X_Wifi_BLE_SDK/GD32VW55x_RELEASE_V1.0.2/MSDK/cloud/alicloud/src/protocol/alcs\alcs_adapter.c **** {
 213:C:/Users/stapi/OneDrive/Desktop/GD32VW553/V1_MQTT_OK/GD32VW55X_Wifi_BLE_SDK/GD32VW55x_RELEASE_V1.0.2/MSDK/cloud/alicloud/src/protocol/alcs\alcs_adapter.c ****     iotx_alcs_send_msg_t *node = NULL;
 214:C:/Users/stapi/OneDrive/Desktop/GD32VW553/V1_MQTT_OK/GD32VW55X_Wifi_BLE_SDK/GD32VW55x_RELEASE_V1.0.2/MSDK/cloud/alicloud/src/protocol/alcs\alcs_adapter.c ****     iotx_alcs_send_msg_t *next = NULL;
 215:C:/Users/stapi/OneDrive/Desktop/GD32VW553/V1_MQTT_OK/GD32VW55X_Wifi_BLE_SDK/GD32VW55x_RELEASE_V1.0.2/MSDK/cloud/alicloud/src/protocol/alcs\alcs_adapter.c **** 
 216:C:/Users/stapi/OneDrive/Desktop/GD32VW553/V1_MQTT_OK/GD32VW55X_Wifi_BLE_SDK/GD32VW55x_RELEASE_V1.0.2/MSDK/cloud/alicloud/src/protocol/alcs\alcs_adapter.c ****     list_for_each_entry_safe(node, next, &adapter->alcs_send_list, linked_list, iotx_alcs_send_msg_
 217:C:/Users/stapi/OneDrive/Desktop/GD32VW553/V1_MQTT_OK/GD32VW55X_Wifi_BLE_SDK/GD32VW55x_RELEASE_V1.0.2/MSDK/cloud/alicloud/src/protocol/alcs\alcs_adapter.c ****         list_del(&node->linked_list);
 218:C:/Users/stapi/OneDrive/Desktop/GD32VW553/V1_MQTT_OK/GD32VW55X_Wifi_BLE_SDK/GD32VW55x_RELEASE_V1.0.2/MSDK/cloud/alicloud/src/protocol/alcs\alcs_adapter.c ****         LITE_free(node->token);
 219:C:/Users/stapi/OneDrive/Desktop/GD32VW553/V1_MQTT_OK/GD32VW55X_Wifi_BLE_SDK/GD32VW55x_RELEASE_V1.0.2/MSDK/cloud/alicloud/src/protocol/alcs\alcs_adapter.c ****         LITE_free(node->uri);
 220:C:/Users/stapi/OneDrive/Desktop/GD32VW553/V1_MQTT_OK/GD32VW55X_Wifi_BLE_SDK/GD32VW55x_RELEASE_V1.0.2/MSDK/cloud/alicloud/src/protocol/alcs\alcs_adapter.c ****         LITE_free(node);
 221:C:/Users/stapi/OneDrive/Desktop/GD32VW553/V1_MQTT_OK/GD32VW55X_Wifi_BLE_SDK/GD32VW55x_RELEASE_V1.0.2/MSDK/cloud/alicloud/src/protocol/alcs\alcs_adapter.c ****     }
 222:C:/Users/stapi/OneDrive/Desktop/GD32VW553/V1_MQTT_OK/GD32VW55X_Wifi_BLE_SDK/GD32VW55x_RELEASE_V1.0.2/MSDK/cloud/alicloud/src/protocol/alcs\alcs_adapter.c **** }
 223:C:/Users/stapi/OneDrive/Desktop/GD32VW553/V1_MQTT_OK/GD32VW55X_Wifi_BLE_SDK/GD32VW55x_RELEASE_V1.0.2/MSDK/cloud/alicloud/src/protocol/alcs\alcs_adapter.c **** 
 224:C:/Users/stapi/OneDrive/Desktop/GD32VW553/V1_MQTT_OK/GD32VW55X_Wifi_BLE_SDK/GD32VW55x_RELEASE_V1.0.2/MSDK/cloud/alicloud/src/protocol/alcs\alcs_adapter.c **** #ifdef DEVICE_MODEL_GATEWAY
 225:C:/Users/stapi/OneDrive/Desktop/GD32VW553/V1_MQTT_OK/GD32VW55X_Wifi_BLE_SDK/GD32VW55x_RELEASE_V1.0.2/MSDK/cloud/alicloud/src/protocol/alcs\alcs_adapter.c **** static void _iotx_alcs_adapter_subdev_list_destroy(iotx_alcs_adapter_t *adapter)
 226:C:/Users/stapi/OneDrive/Desktop/GD32VW553/V1_MQTT_OK/GD32VW55X_Wifi_BLE_SDK/GD32VW55x_RELEASE_V1.0.2/MSDK/cloud/alicloud/src/protocol/alcs\alcs_adapter.c **** {
 227:C:/Users/stapi/OneDrive/Desktop/GD32VW553/V1_MQTT_OK/GD32VW55X_Wifi_BLE_SDK/GD32VW55x_RELEASE_V1.0.2/MSDK/cloud/alicloud/src/protocol/alcs\alcs_adapter.c ****     iotx_alcs_subdev_item_t *node = NULL;
 228:C:/Users/stapi/OneDrive/Desktop/GD32VW553/V1_MQTT_OK/GD32VW55X_Wifi_BLE_SDK/GD32VW55x_RELEASE_V1.0.2/MSDK/cloud/alicloud/src/protocol/alcs\alcs_adapter.c ****     iotx_alcs_subdev_item_t *next = NULL;
 229:C:/Users/stapi/OneDrive/Desktop/GD32VW553/V1_MQTT_OK/GD32VW55X_Wifi_BLE_SDK/GD32VW55x_RELEASE_V1.0.2/MSDK/cloud/alicloud/src/protocol/alcs\alcs_adapter.c **** 
 230:C:/Users/stapi/OneDrive/Desktop/GD32VW553/V1_MQTT_OK/GD32VW55X_Wifi_BLE_SDK/GD32VW55x_RELEASE_V1.0.2/MSDK/cloud/alicloud/src/protocol/alcs\alcs_adapter.c ****     list_for_each_entry_safe(node, next, &adapter->alcs_subdev_list, linked_list, iotx_alcs_subdev_
 231:C:/Users/stapi/OneDrive/Desktop/GD32VW553/V1_MQTT_OK/GD32VW55X_Wifi_BLE_SDK/GD32VW55x_RELEASE_V1.0.2/MSDK/cloud/alicloud/src/protocol/alcs\alcs_adapter.c ****         list_del(&node->linked_list);
 232:C:/Users/stapi/OneDrive/Desktop/GD32VW553/V1_MQTT_OK/GD32VW55X_Wifi_BLE_SDK/GD32VW55x_RELEASE_V1.0.2/MSDK/cloud/alicloud/src/protocol/alcs\alcs_adapter.c ****         LITE_free(node);
 233:C:/Users/stapi/OneDrive/Desktop/GD32VW553/V1_MQTT_OK/GD32VW55X_Wifi_BLE_SDK/GD32VW55x_RELEASE_V1.0.2/MSDK/cloud/alicloud/src/protocol/alcs\alcs_adapter.c ****     }
 234:C:/Users/stapi/OneDrive/Desktop/GD32VW553/V1_MQTT_OK/GD32VW55X_Wifi_BLE_SDK/GD32VW55x_RELEASE_V1.0.2/MSDK/cloud/alicloud/src/protocol/alcs\alcs_adapter.c **** }
 235:C:/Users/stapi/OneDrive/Desktop/GD32VW553/V1_MQTT_OK/GD32VW55X_Wifi_BLE_SDK/GD32VW55x_RELEASE_V1.0.2/MSDK/cloud/alicloud/src/protocol/alcs\alcs_adapter.c **** #endif
 236:C:/Users/stapi/OneDrive/Desktop/GD32VW553/V1_MQTT_OK/GD32VW55X_Wifi_BLE_SDK/GD32VW55x_RELEASE_V1.0.2/MSDK/cloud/alicloud/src/protocol/alcs\alcs_adapter.c **** int iotx_alcs_adapter_deinit(void)
 237:C:/Users/stapi/OneDrive/Desktop/GD32VW553/V1_MQTT_OK/GD32VW55X_Wifi_BLE_SDK/GD32VW55x_RELEASE_V1.0.2/MSDK/cloud/alicloud/src/protocol/alcs\alcs_adapter.c **** {
 742              		.loc 1 237 1 is_stmt 1
 743              		.cfi_startproc
 744 0000 17030000 		call	t0,__riscv_save_4
 744      E7020300 
 745              		.cfi_offset 19, -20
 746              		.cfi_offset 18, -16
 747              		.cfi_offset 9, -12
 748              		.cfi_offset 8, -8
 749              		.cfi_offset 1, -4
 750              		.cfi_def_cfa_offset 32
 238:C:/Users/stapi/OneDrive/Desktop/GD32VW553/V1_MQTT_OK/GD32VW55X_Wifi_BLE_SDK/GD32VW55x_RELEASE_V1.0.2/MSDK/cloud/alicloud/src/protocol/alcs\alcs_adapter.c ****     char product_key[PRODUCT_KEY_MAXLEN] = {0};
 751              		.loc 1 238 5
 237:C:/Users/stapi/OneDrive/Desktop/GD32VW553/V1_MQTT_OK/GD32VW55X_Wifi_BLE_SDK/GD32VW55x_RELEASE_V1.0.2/MSDK/cloud/alicloud/src/protocol/alcs\alcs_adapter.c ****     char product_key[PRODUCT_KEY_MAXLEN] = {0};
 752              		.loc 1 237 1 is_stmt 0
 753 0008 3971     		addi	sp,sp,-64
 754              		.cfi_def_cfa_offset 96
 239:C:/Users/stapi/OneDrive/Desktop/GD32VW553/V1_MQTT_OK/GD32VW55X_Wifi_BLE_SDK/GD32VW55x_RELEASE_V1.0.2/MSDK/cloud/alicloud/src/protocol/alcs\alcs_adapter.c ****     char device_name[DEVICE_NAME_MAXLEN] = {0};
 755              		.loc 1 239 10
 756 000a 7546     		li	a2,29
 757 000c 8145     		li	a1,0
 758 000e 0810     		addi	a0,sp,32
 238:C:/Users/stapi/OneDrive/Desktop/GD32VW553/V1_MQTT_OK/GD32VW55X_Wifi_BLE_SDK/GD32VW55x_RELEASE_V1.0.2/MSDK/cloud/alicloud/src/protocol/alcs\alcs_adapter.c ****     char product_key[PRODUCT_KEY_MAXLEN] = {0};
 759              		.loc 1 238 10
 760 0010 02C2     		sw	zero,4(sp)
 761 0012 02C4     		sw	zero,8(sp)
 762 0014 02C6     		sw	zero,12(sp)
 763 0016 02C8     		sw	zero,16(sp)
 764 0018 02CA     		sw	zero,20(sp)
 765 001a 230C0100 		sb	zero,24(sp)
 766              		.loc 1 239 5 is_stmt 1
 767              		.loc 1 239 10 is_stmt 0
 768 001e 02CE     		sw	zero,28(sp)
 769 0020 97000000 		call	memset
 769      E7800000 
 770              	.LVL76:
 240:C:/Users/stapi/OneDrive/Desktop/GD32VW553/V1_MQTT_OK/GD32VW55X_Wifi_BLE_SDK/GD32VW55x_RELEASE_V1.0.2/MSDK/cloud/alicloud/src/protocol/alcs\alcs_adapter.c ****     iotx_alcs_adapter_t *adapter = __iotx_alcs_get_ctx();
 771              		.loc 1 240 5 is_stmt 1
  31:C:/Users/stapi/OneDrive/Desktop/GD32VW553/V1_MQTT_OK/GD32VW55X_Wifi_BLE_SDK/GD32VW55x_RELEASE_V1.0.2/MSDK/cloud/alicloud/src/protocol/alcs\alcs_adapter.c **** }
 772              		.loc 1 31 5
 241:C:/Users/stapi/OneDrive/Desktop/GD32VW553/V1_MQTT_OK/GD32VW55X_Wifi_BLE_SDK/GD32VW55x_RELEASE_V1.0.2/MSDK/cloud/alicloud/src/protocol/alcs\alcs_adapter.c **** 
 242:C:/Users/stapi/OneDrive/Desktop/GD32VW553/V1_MQTT_OK/GD32VW55X_Wifi_BLE_SDK/GD32VW55x_RELEASE_V1.0.2/MSDK/cloud/alicloud/src/protocol/alcs\alcs_adapter.c ****     HAL_GetProductKey(product_key);
 773              		.loc 1 242 5
 774 0028 4800     		addi	a0,sp,4
 775 002a 97000000 		call	HAL_GetProductKey
 775      E7800000 
 776              	.LVL77:
 243:C:/Users/stapi/OneDrive/Desktop/GD32VW553/V1_MQTT_OK/GD32VW55X_Wifi_BLE_SDK/GD32VW55x_RELEASE_V1.0.2/MSDK/cloud/alicloud/src/protocol/alcs\alcs_adapter.c ****     HAL_GetDeviceName(device_name);
 777              		.loc 1 243 5
 244:C:/Users/stapi/OneDrive/Desktop/GD32VW553/V1_MQTT_OK/GD32VW55X_Wifi_BLE_SDK/GD32VW55x_RELEASE_V1.0.2/MSDK/cloud/alicloud/src/protocol/alcs\alcs_adapter.c **** 
 245:C:/Users/stapi/OneDrive/Desktop/GD32VW553/V1_MQTT_OK/GD32VW55X_Wifi_BLE_SDK/GD32VW55x_RELEASE_V1.0.2/MSDK/cloud/alicloud/src/protocol/alcs\alcs_adapter.c ****     HAL_MutexLock(adapter->mutex);
 778              		.loc 1 245 5 is_stmt 0
 779 0032 37040000 		lui	s0,%hi(.LANCHOR0)
 243:C:/Users/stapi/OneDrive/Desktop/GD32VW553/V1_MQTT_OK/GD32VW55X_Wifi_BLE_SDK/GD32VW55x_RELEASE_V1.0.2/MSDK/cloud/alicloud/src/protocol/alcs\alcs_adapter.c ****     HAL_GetDeviceName(device_name);
 780              		.loc 1 243 5
 781 0036 6808     		addi	a0,sp,28
 782              		.loc 1 245 5
 783 0038 93040400 		addi	s1,s0,%lo(.LANCHOR0)
 243:C:/Users/stapi/OneDrive/Desktop/GD32VW553/V1_MQTT_OK/GD32VW55X_Wifi_BLE_SDK/GD32VW55x_RELEASE_V1.0.2/MSDK/cloud/alicloud/src/protocol/alcs\alcs_adapter.c ****     HAL_GetDeviceName(device_name);
 784              		.loc 1 243 5
 785 003c 97000000 		call	HAL_GetDeviceName
 785      E7800000 
 786              	.LVL78:
 787              		.loc 1 245 5 is_stmt 1
 788 0044 8840     		lw	a0,0(s1)
 789 0046 13040400 		addi	s0,s0,%lo(.LANCHOR0)
 790              	.LBB30:
 791              	.LBB31:
 216:C:/Users/stapi/OneDrive/Desktop/GD32VW553/V1_MQTT_OK/GD32VW55X_Wifi_BLE_SDK/GD32VW55x_RELEASE_V1.0.2/MSDK/cloud/alicloud/src/protocol/alcs\alcs_adapter.c ****         list_del(&node->linked_list);
 792              		.loc 1 216 5 is_stmt 0
 793 004a 9309C401 		addi	s3,s0,28
 794              	.LBE31:
 795              	.LBE30:
 796              		.loc 1 245 5
 797 004e 97000000 		call	HAL_MutexLock
 797      E7800000 
 798              	.LVL79:
 246:C:/Users/stapi/OneDrive/Desktop/GD32VW553/V1_MQTT_OK/GD32VW55X_Wifi_BLE_SDK/GD32VW55x_RELEASE_V1.0.2/MSDK/cloud/alicloud/src/protocol/alcs\alcs_adapter.c ****     _iotx_alcs_adapter_send_list_destroy(adapter);
 799              		.loc 1 246 5 is_stmt 1
 800              	.LBB38:
 801              	.LBB36:
 213:C:/Users/stapi/OneDrive/Desktop/GD32VW553/V1_MQTT_OK/GD32VW55X_Wifi_BLE_SDK/GD32VW55x_RELEASE_V1.0.2/MSDK/cloud/alicloud/src/protocol/alcs\alcs_adapter.c ****     iotx_alcs_send_msg_t *next = NULL;
 802              		.loc 1 213 5
 214:C:/Users/stapi/OneDrive/Desktop/GD32VW553/V1_MQTT_OK/GD32VW55X_Wifi_BLE_SDK/GD32VW55x_RELEASE_V1.0.2/MSDK/cloud/alicloud/src/protocol/alcs\alcs_adapter.c **** 
 803              		.loc 1 214 5
 216:C:/Users/stapi/OneDrive/Desktop/GD32VW553/V1_MQTT_OK/GD32VW55X_Wifi_BLE_SDK/GD32VW55x_RELEASE_V1.0.2/MSDK/cloud/alicloud/src/protocol/alcs\alcs_adapter.c ****         list_del(&node->linked_list);
 804              		.loc 1 216 5
 805 0056 9C50     		lw	a5,32(s1)
 806 0058 03A94700 		lw	s2,4(a5)
 807 005c 938447FF 		addi	s1,a5,-12
 808              	.LVL80:
 809 0060 5119     		addi	s2,s2,-12
 810              	.LVL81:
 811              	.L38:
 216:C:/Users/stapi/OneDrive/Desktop/GD32VW553/V1_MQTT_OK/GD32VW55X_Wifi_BLE_SDK/GD32VW55x_RELEASE_V1.0.2/MSDK/cloud/alicloud/src/protocol/alcs\alcs_adapter.c ****         list_del(&node->linked_list);
 812              		.loc 1 216 5
 813 0062 9387C400 		addi	a5,s1,12
 814 0066 639B3705 		bne	a5,s3,.L39
 815              	.LVL82:
 816              	.LBE36:
 817              	.LBE38:
 247:C:/Users/stapi/OneDrive/Desktop/GD32VW553/V1_MQTT_OK/GD32VW55X_Wifi_BLE_SDK/GD32VW55x_RELEASE_V1.0.2/MSDK/cloud/alicloud/src/protocol/alcs\alcs_adapter.c **** #ifdef DEVICE_MODEL_GATEWAY
 248:C:/Users/stapi/OneDrive/Desktop/GD32VW553/V1_MQTT_OK/GD32VW55X_Wifi_BLE_SDK/GD32VW55x_RELEASE_V1.0.2/MSDK/cloud/alicloud/src/protocol/alcs\alcs_adapter.c ****     _iotx_alcs_adapter_subdev_list_destroy(adapter);
 249:C:/Users/stapi/OneDrive/Desktop/GD32VW553/V1_MQTT_OK/GD32VW55X_Wifi_BLE_SDK/GD32VW55x_RELEASE_V1.0.2/MSDK/cloud/alicloud/src/protocol/alcs\alcs_adapter.c **** #endif
 250:C:/Users/stapi/OneDrive/Desktop/GD32VW553/V1_MQTT_OK/GD32VW55X_Wifi_BLE_SDK/GD32VW55x_RELEASE_V1.0.2/MSDK/cloud/alicloud/src/protocol/alcs\alcs_adapter.c ****     HAL_MutexUnlock(adapter->mutex);
 818              		.loc 1 250 5
 819 006a 0840     		lw	a0,0(s0)
 820 006c 97000000 		call	HAL_MutexUnlock
 820      E7800000 
 821              	.LVL83:
 251:C:/Users/stapi/OneDrive/Desktop/GD32VW553/V1_MQTT_OK/GD32VW55X_Wifi_BLE_SDK/GD32VW55x_RELEASE_V1.0.2/MSDK/cloud/alicloud/src/protocol/alcs\alcs_adapter.c **** 
 252:C:/Users/stapi/OneDrive/Desktop/GD32VW553/V1_MQTT_OK/GD32VW55X_Wifi_BLE_SDK/GD32VW55x_RELEASE_V1.0.2/MSDK/cloud/alicloud/src/protocol/alcs\alcs_adapter.c ****     if (adapter->alcs_event_handle) {
 822              		.loc 1 252 5
 823              		.loc 1 252 16 is_stmt 0
 824 0074 084C     		lw	a0,24(s0)
 825              		.loc 1 252 8
 826 0076 09C5     		beq	a0,zero,.L40
 253:C:/Users/stapi/OneDrive/Desktop/GD32VW553/V1_MQTT_OK/GD32VW55X_Wifi_BLE_SDK/GD32VW55x_RELEASE_V1.0.2/MSDK/cloud/alicloud/src/protocol/alcs\alcs_adapter.c ****         LITE_free(adapter->alcs_event_handle);
 827              		.loc 1 253 9 is_stmt 1
 828 0078 97000000 		call	LITE_free_internal
 828      E7800000 
 829              	.LVL84:
 830              	.L40:
 254:C:/Users/stapi/OneDrive/Desktop/GD32VW553/V1_MQTT_OK/GD32VW55X_Wifi_BLE_SDK/GD32VW55x_RELEASE_V1.0.2/MSDK/cloud/alicloud/src/protocol/alcs\alcs_adapter.c ****     }
 255:C:/Users/stapi/OneDrive/Desktop/GD32VW553/V1_MQTT_OK/GD32VW55X_Wifi_BLE_SDK/GD32VW55x_RELEASE_V1.0.2/MSDK/cloud/alicloud/src/protocol/alcs\alcs_adapter.c **** 
 256:C:/Users/stapi/OneDrive/Desktop/GD32VW553/V1_MQTT_OK/GD32VW55X_Wifi_BLE_SDK/GD32VW55x_RELEASE_V1.0.2/MSDK/cloud/alicloud/src/protocol/alcs\alcs_adapter.c ****     HAL_MutexDestroy(adapter->mutex);
 831              		.loc 1 256 5
 832 0080 0840     		lw	a0,0(s0)
 833 0082 97000000 		call	HAL_MutexDestroy
 833      E7800000 
 834              	.LVL85:
 257:C:/Users/stapi/OneDrive/Desktop/GD32VW553/V1_MQTT_OK/GD32VW55X_Wifi_BLE_SDK/GD32VW55x_RELEASE_V1.0.2/MSDK/cloud/alicloud/src/protocol/alcs\alcs_adapter.c **** 
 258:C:/Users/stapi/OneDrive/Desktop/GD32VW553/V1_MQTT_OK/GD32VW55X_Wifi_BLE_SDK/GD32VW55x_RELEASE_V1.0.2/MSDK/cloud/alicloud/src/protocol/alcs\alcs_adapter.c ****     alcs_mqtt_deinit(adapter->coap_ctx, product_key, device_name);
 835              		.loc 1 258 5
 836 008a 0844     		lw	a0,8(s0)
 837 008c 7008     		addi	a2,sp,28
 838 008e 4C00     		addi	a1,sp,4
 839 0090 97000000 		call	alcs_mqtt_deinit
 839      E7800000 
 840              	.LVL86:
 259:C:/Users/stapi/OneDrive/Desktop/GD32VW553/V1_MQTT_OK/GD32VW55X_Wifi_BLE_SDK/GD32VW55x_RELEASE_V1.0.2/MSDK/cloud/alicloud/src/protocol/alcs\alcs_adapter.c **** 
 260:C:/Users/stapi/OneDrive/Desktop/GD32VW553/V1_MQTT_OK/GD32VW55X_Wifi_BLE_SDK/GD32VW55x_RELEASE_V1.0.2/MSDK/cloud/alicloud/src/protocol/alcs\alcs_adapter.c ****     //if (adapter->coap_ctx) CoAPContext_free(adapter->coap_ctx);
 261:C:/Users/stapi/OneDrive/Desktop/GD32VW553/V1_MQTT_OK/GD32VW55X_Wifi_BLE_SDK/GD32VW55x_RELEASE_V1.0.2/MSDK/cloud/alicloud/src/protocol/alcs\alcs_adapter.c **** 
 262:C:/Users/stapi/OneDrive/Desktop/GD32VW553/V1_MQTT_OK/GD32VW55X_Wifi_BLE_SDK/GD32VW55x_RELEASE_V1.0.2/MSDK/cloud/alicloud/src/protocol/alcs\alcs_adapter.c ****     alcs_context_deinit();
 841              		.loc 1 262 5
 842 0098 97000000 		call	alcs_context_deinit
 842      E7800000 
 843              	.LVL87:
 263:C:/Users/stapi/OneDrive/Desktop/GD32VW553/V1_MQTT_OK/GD32VW55X_Wifi_BLE_SDK/GD32VW55x_RELEASE_V1.0.2/MSDK/cloud/alicloud/src/protocol/alcs\alcs_adapter.c ****     alcs_deinit();
 844              		.loc 1 263 5
 845 00a0 97000000 		call	alcs_deinit
 845      E7800000 
 846              	.LVL88:
 264:C:/Users/stapi/OneDrive/Desktop/GD32VW553/V1_MQTT_OK/GD32VW55X_Wifi_BLE_SDK/GD32VW55x_RELEASE_V1.0.2/MSDK/cloud/alicloud/src/protocol/alcs\alcs_adapter.c ****     alcs_auth_deinit();
 847              		.loc 1 264 5
 848 00a8 97000000 		call	alcs_auth_deinit
 848      E7800000 
 849              	.LVL89:
 265:C:/Users/stapi/OneDrive/Desktop/GD32VW553/V1_MQTT_OK/GD32VW55X_Wifi_BLE_SDK/GD32VW55x_RELEASE_V1.0.2/MSDK/cloud/alicloud/src/protocol/alcs\alcs_adapter.c **** 
 266:C:/Users/stapi/OneDrive/Desktop/GD32VW553/V1_MQTT_OK/GD32VW55X_Wifi_BLE_SDK/GD32VW55x_RELEASE_V1.0.2/MSDK/cloud/alicloud/src/protocol/alcs\alcs_adapter.c ****     return SUCCESS_RETURN;
 850              		.loc 1 266 5
 267:C:/Users/stapi/OneDrive/Desktop/GD32VW553/V1_MQTT_OK/GD32VW55X_Wifi_BLE_SDK/GD32VW55x_RELEASE_V1.0.2/MSDK/cloud/alicloud/src/protocol/alcs\alcs_adapter.c **** }
 851              		.loc 1 267 1 is_stmt 0
 852 00b0 0145     		li	a0,0
 853 00b2 2161     		addi	sp,sp,64
 854              		.cfi_remember_state
 855              		.cfi_def_cfa_offset 0
 856 00b4 17030000 		tail	__riscv_restore_4
 856      67000300 
 857              		.cfi_restore 19
 858              		.cfi_restore 18
 859              		.cfi_restore 9
 860              		.cfi_restore 8
 861              		.cfi_restore 1
 862              		.cfi_def_cfa_offset -32
 863              	.LVL90:
 864              	.L39:
 865              		.cfi_restore_state
 866              	.LBB39:
 867              	.LBB37:
 217:C:/Users/stapi/OneDrive/Desktop/GD32VW553/V1_MQTT_OK/GD32VW55X_Wifi_BLE_SDK/GD32VW55x_RELEASE_V1.0.2/MSDK/cloud/alicloud/src/protocol/alcs\alcs_adapter.c ****         LITE_free(node->token);
 868              		.loc 1 217 9 is_stmt 1
 869              	.LBB32:
 870              	.LBB33:
  68:..\..\..\..\cloud\alicloud\src\infra\utils\misc/lite-list.h ****     dlist_t *next = node->next;
 871              		.loc 2 68 5
  69:..\..\..\..\cloud\alicloud\src\infra\utils\misc/lite-list.h **** 
 872              		.loc 2 69 14 is_stmt 0
 873 00bc 9C48     		lw	a5,16(s1)
  68:..\..\..\..\cloud\alicloud\src\infra\utils\misc/lite-list.h ****     dlist_t *next = node->next;
 874              		.loc 2 68 14
 875 00be D844     		lw	a4,12(s1)
 876              	.LVL91:
  69:..\..\..\..\cloud\alicloud\src\infra\utils\misc/lite-list.h **** 
 877              		.loc 2 69 5 is_stmt 1
  71:..\..\..\..\cloud\alicloud\src\infra\utils\misc/lite-list.h ****     next->prev = prev;
 878              		.loc 2 71 5
 879              	.LBE33:
 880              	.LBE32:
 218:C:/Users/stapi/OneDrive/Desktop/GD32VW553/V1_MQTT_OK/GD32VW55X_Wifi_BLE_SDK/GD32VW55x_RELEASE_V1.0.2/MSDK/cloud/alicloud/src/protocol/alcs\alcs_adapter.c ****         LITE_free(node->uri);
 881              		.loc 1 218 9 is_stmt 0
 882 00c0 C840     		lw	a0,4(s1)
 883              	.LBB35:
 884              	.LBB34:
  71:..\..\..\..\cloud\alicloud\src\infra\utils\misc/lite-list.h ****     next->prev = prev;
 885              		.loc 2 71 16
 886 00c2 5CC3     		sw	a5,4(a4)
  72:..\..\..\..\cloud\alicloud\src\infra\utils\misc/lite-list.h **** }
 887              		.loc 2 72 5 is_stmt 1
  72:..\..\..\..\cloud\alicloud\src\infra\utils\misc/lite-list.h **** }
 888              		.loc 2 72 16 is_stmt 0
 889 00c4 98C3     		sw	a4,0(a5)
 890              	.LVL92:
 891              	.LBE34:
 892              	.LBE35:
 218:C:/Users/stapi/OneDrive/Desktop/GD32VW553/V1_MQTT_OK/GD32VW55X_Wifi_BLE_SDK/GD32VW55x_RELEASE_V1.0.2/MSDK/cloud/alicloud/src/protocol/alcs\alcs_adapter.c ****         LITE_free(node->uri);
 893              		.loc 1 218 9 is_stmt 1
 894 00c6 97000000 		call	LITE_free_internal
 894      E7800000 
 895              	.LVL93:
 219:C:/Users/stapi/OneDrive/Desktop/GD32VW553/V1_MQTT_OK/GD32VW55X_Wifi_BLE_SDK/GD32VW55x_RELEASE_V1.0.2/MSDK/cloud/alicloud/src/protocol/alcs\alcs_adapter.c ****         LITE_free(node);
 896              		.loc 1 219 9
 897 00ce 8844     		lw	a0,8(s1)
 898 00d0 97000000 		call	LITE_free_internal
 898      E7800000 
 899              	.LVL94:
 220:C:/Users/stapi/OneDrive/Desktop/GD32VW553/V1_MQTT_OK/GD32VW55X_Wifi_BLE_SDK/GD32VW55x_RELEASE_V1.0.2/MSDK/cloud/alicloud/src/protocol/alcs\alcs_adapter.c ****     }
 900              		.loc 1 220 9
 901 00d8 2685     		mv	a0,s1
 902 00da 97000000 		call	LITE_free_internal
 902      E7800000 
 903              	.LVL95:
 216:C:/Users/stapi/OneDrive/Desktop/GD32VW553/V1_MQTT_OK/GD32VW55X_Wifi_BLE_SDK/GD32VW55x_RELEASE_V1.0.2/MSDK/cloud/alicloud/src/protocol/alcs\alcs_adapter.c ****         list_del(&node->linked_list);
 904              		.loc 1 216 5
 905 00e2 83270901 		lw	a5,16(s2)
 906              	.LVL96:
 907 00e6 CA84     		mv	s1,s2
 908 00e8 138947FF 		addi	s2,a5,-12
 909              	.LVL97:
 910 00ec 9DBF     		j	.L38
 911              	.LBE37:
 912              	.LBE39:
 913              		.cfi_endproc
 914              	.LFE29:
 916              		.section	.rodata.iotx_alcs_adapter_init.str1.4,"aMS",@progbits,1
 917              		.align	2
 918              	.LC7:
 919 0000 696F7478 		.string	"iotx_alcs_adapter_init"
 919      5F616C63 
 919      735F6164 
 919      61707465 
 919      725F696E 
 920 0017 00       		.align	2
 921              	.LC8:
 922 0018 4D757465 		.string	"Mutex Init Failed"
 922      7820496E 
 922      69742046 
 922      61696C65 
 922      6400
 923 002a 0000     		.align	2
 924              	.LC9:
 925 002c 436F6170 		.string	"Coap Context Init Failed"
 925      20436F6E 
 925      74657874 
 925      20496E69 
 925      74204661 
 926 0045 000000   		.align	2
 927              	.LC10:
 928 0048 47657420 		.string	"Get Product Key Failed"
 928      50726F64 
 928      75637420 
 928      4B657920 
 928      4661696C 
 929 005f 00       		.align	2
 930              	.LC11:
 931 0060 47657420 		.string	"Get Device Name Failed"
 931      44657669 
 931      6365204E 
 931      616D6520 
 931      4661696C 
 932 0077 00       		.align	2
 933              	.LC12:
 934 0078 414C4353 		.string	"ALCS Auth Init Failed"
 934      20417574 
 934      6820496E 
 934      69742046 
 934      61696C65 
 935 008e 0000     		.align	2
 936              	.LC13:
 937 0090 414C4353 		.string	"ALCS Event Handle Init Failed"
 937      20457665 
 937      6E742048 
 937      616E646C 
 937      6520496E 
 938              		.section	.text.iotx_alcs_adapter_init,"ax",@progbits
 939              		.align	1
 940              		.globl	iotx_alcs_adapter_init
 942              	iotx_alcs_adapter_init:
 943              	.LFB30:
 268:C:/Users/stapi/OneDrive/Desktop/GD32VW553/V1_MQTT_OK/GD32VW55X_Wifi_BLE_SDK/GD32VW55x_RELEASE_V1.0.2/MSDK/cloud/alicloud/src/protocol/alcs\alcs_adapter.c **** 
 269:C:/Users/stapi/OneDrive/Desktop/GD32VW553/V1_MQTT_OK/GD32VW55X_Wifi_BLE_SDK/GD32VW55x_RELEASE_V1.0.2/MSDK/cloud/alicloud/src/protocol/alcs\alcs_adapter.c **** int iotx_alcs_adapter_init(iotx_alcs_adapter_t *adapter, iotx_alcs_param_t *param)
 270:C:/Users/stapi/OneDrive/Desktop/GD32VW553/V1_MQTT_OK/GD32VW55X_Wifi_BLE_SDK/GD32VW55x_RELEASE_V1.0.2/MSDK/cloud/alicloud/src/protocol/alcs\alcs_adapter.c **** {
 944              		.loc 1 270 1
 945              		.cfi_startproc
 946              	.LVL98:
 947 0000 17030000 		call	t0,__riscv_save_6
 947      E7020300 
 948              		.cfi_offset 21, -28
 949              		.cfi_offset 20, -24
 950              		.cfi_offset 19, -20
 951              		.cfi_offset 18, -16
 952              		.cfi_offset 9, -12
 953              		.cfi_offset 8, -8
 954              		.cfi_offset 1, -4
 955              		.cfi_def_cfa_offset 32
 271:C:/Users/stapi/OneDrive/Desktop/GD32VW553/V1_MQTT_OK/GD32VW55X_Wifi_BLE_SDK/GD32VW55x_RELEASE_V1.0.2/MSDK/cloud/alicloud/src/protocol/alcs\alcs_adapter.c ****     COAP_INFO("iotx_alcs_adapter_init");
 956              		.loc 1 271 5
 957              		.loc 1 271 5
 270:C:/Users/stapi/OneDrive/Desktop/GD32VW553/V1_MQTT_OK/GD32VW55X_Wifi_BLE_SDK/GD32VW55x_RELEASE_V1.0.2/MSDK/cloud/alicloud/src/protocol/alcs\alcs_adapter.c ****     COAP_INFO("iotx_alcs_adapter_init");
 958              		.loc 1 270 1 is_stmt 0
 959 0008 2A84     		mv	s0,a0
 960              		.loc 1 271 5
 961 000a 37050000 		lui	a0,%hi(.LC0)
 962              	.LVL99:
 270:C:/Users/stapi/OneDrive/Desktop/GD32VW553/V1_MQTT_OK/GD32VW55X_Wifi_BLE_SDK/GD32VW55x_RELEASE_V1.0.2/MSDK/cloud/alicloud/src/protocol/alcs\alcs_adapter.c ****     COAP_INFO("iotx_alcs_adapter_init");
 963              		.loc 1 270 1
 964 000e 1D71     		addi	sp,sp,-96
 965              		.cfi_def_cfa_offset 128
 966              		.loc 1 271 5
 967 0010 13050500 		addi	a0,a0,%lo(.LC0)
 270:C:/Users/stapi/OneDrive/Desktop/GD32VW553/V1_MQTT_OK/GD32VW55X_Wifi_BLE_SDK/GD32VW55x_RELEASE_V1.0.2/MSDK/cloud/alicloud/src/protocol/alcs\alcs_adapter.c ****     COAP_INFO("iotx_alcs_adapter_init");
 968              		.loc 1 270 1
 969 0014 AE84     		mv	s1,a1
 970              		.loc 1 271 5
 971 0016 97000000 		call	HAL_Printf
 971      E7800000 
 972              	.LVL100:
 973              		.loc 1 271 5 is_stmt 1
 974 001e 37050000 		lui	a0,%hi(.LC7)
 975 0022 13050500 		addi	a0,a0,%lo(.LC7)
 976 0026 97000000 		call	HAL_Printf
 976      E7800000 
 977              	.LVL101:
 978              		.loc 1 271 5
 979 002e B7090000 		lui	s3,%hi(.LC2)
 980 0032 13850900 		addi	a0,s3,%lo(.LC2)
 981 0036 97000000 		call	HAL_Printf
 981      E7800000 
 982              	.LVL102:
 983              		.loc 1 271 5
 272:C:/Users/stapi/OneDrive/Desktop/GD32VW553/V1_MQTT_OK/GD32VW55X_Wifi_BLE_SDK/GD32VW55x_RELEASE_V1.0.2/MSDK/cloud/alicloud/src/protocol/alcs\alcs_adapter.c **** 
 273:C:/Users/stapi/OneDrive/Desktop/GD32VW553/V1_MQTT_OK/GD32VW55X_Wifi_BLE_SDK/GD32VW55x_RELEASE_V1.0.2/MSDK/cloud/alicloud/src/protocol/alcs\alcs_adapter.c ****     int res;
 984              		.loc 1 273 5
 274:C:/Users/stapi/OneDrive/Desktop/GD32VW553/V1_MQTT_OK/GD32VW55X_Wifi_BLE_SDK/GD32VW55x_RELEASE_V1.0.2/MSDK/cloud/alicloud/src/protocol/alcs\alcs_adapter.c ****     CoAPInitParam coap_param;
 985              		.loc 1 274 5
 275:C:/Users/stapi/OneDrive/Desktop/GD32VW553/V1_MQTT_OK/GD32VW55X_Wifi_BLE_SDK/GD32VW55x_RELEASE_V1.0.2/MSDK/cloud/alicloud/src/protocol/alcs\alcs_adapter.c ****     CoAPContext *coap_ctx = NULL;
 986              		.loc 1 275 5
 276:C:/Users/stapi/OneDrive/Desktop/GD32VW553/V1_MQTT_OK/GD32VW55X_Wifi_BLE_SDK/GD32VW55x_RELEASE_V1.0.2/MSDK/cloud/alicloud/src/protocol/alcs\alcs_adapter.c ****     char product_key[PRODUCT_KEY_MAXLEN] = {0};
 987              		.loc 1 276 5
 277:C:/Users/stapi/OneDrive/Desktop/GD32VW553/V1_MQTT_OK/GD32VW55X_Wifi_BLE_SDK/GD32VW55x_RELEASE_V1.0.2/MSDK/cloud/alicloud/src/protocol/alcs\alcs_adapter.c ****     char device_name[DEVICE_NAME_MAXLEN] = {0};
 988              		.loc 1 277 10 is_stmt 0
 989 003e 7546     		li	a2,29
 990 0040 8145     		li	a1,0
 991 0042 8800     		addi	a0,sp,64
 276:C:/Users/stapi/OneDrive/Desktop/GD32VW553/V1_MQTT_OK/GD32VW55X_Wifi_BLE_SDK/GD32VW55x_RELEASE_V1.0.2/MSDK/cloud/alicloud/src/protocol/alcs\alcs_adapter.c ****     char product_key[PRODUCT_KEY_MAXLEN] = {0};
 992              		.loc 1 276 10
 993 0044 02C6     		sw	zero,12(sp)
 994 0046 02C8     		sw	zero,16(sp)
 995 0048 02CA     		sw	zero,20(sp)
 996 004a 02CC     		sw	zero,24(sp)
 997 004c 02CE     		sw	zero,28(sp)
 998 004e 23000102 		sb	zero,32(sp)
 999              		.loc 1 277 5 is_stmt 1
 1000              		.loc 1 277 10 is_stmt 0
 1001 0052 02DE     		sw	zero,60(sp)
 1002 0054 97000000 		call	memset
 1002      E7800000 
 1003              	.LVL103:
 278:C:/Users/stapi/OneDrive/Desktop/GD32VW553/V1_MQTT_OK/GD32VW55X_Wifi_BLE_SDK/GD32VW55x_RELEASE_V1.0.2/MSDK/cloud/alicloud/src/protocol/alcs\alcs_adapter.c **** 
 279:C:/Users/stapi/OneDrive/Desktop/GD32VW553/V1_MQTT_OK/GD32VW55X_Wifi_BLE_SDK/GD32VW55x_RELEASE_V1.0.2/MSDK/cloud/alicloud/src/protocol/alcs\alcs_adapter.c ****     memset(&coap_param, 0, sizeof(CoAPInitParam));
 1004              		.loc 1 279 5 is_stmt 1
 1005 005c 6146     		li	a2,24
 1006 005e 8145     		li	a1,0
 1007 0060 4810     		addi	a0,sp,36
 1008 0062 97000000 		call	memset
 1008      E7800000 
 1009              	.LVL104:
 280:C:/Users/stapi/OneDrive/Desktop/GD32VW553/V1_MQTT_OK/GD32VW55X_Wifi_BLE_SDK/GD32VW55x_RELEASE_V1.0.2/MSDK/cloud/alicloud/src/protocol/alcs\alcs_adapter.c **** 
 281:C:/Users/stapi/OneDrive/Desktop/GD32VW553/V1_MQTT_OK/GD32VW55X_Wifi_BLE_SDK/GD32VW55x_RELEASE_V1.0.2/MSDK/cloud/alicloud/src/protocol/alcs\alcs_adapter.c ****     adapter->mutex = HAL_MutexCreate();
 1010              		.loc 1 281 5
 1011              		.loc 1 281 22 is_stmt 0
 1012 006a 97000000 		call	HAL_MutexCreate
 1012      E7800000 
 1013              	.LVL105:
 1014              		.loc 1 281 20
 1015 0072 08C0     		sw	a0,0(s0)
 282:C:/Users/stapi/OneDrive/Desktop/GD32VW553/V1_MQTT_OK/GD32VW55X_Wifi_BLE_SDK/GD32VW55x_RELEASE_V1.0.2/MSDK/cloud/alicloud/src/protocol/alcs\alcs_adapter.c ****     if (adapter->mutex == NULL) {
 1016              		.loc 1 282 5 is_stmt 1
 1017              		.loc 1 282 8 is_stmt 0
 1018 0074 05E9     		bne	a0,zero,.L46
 283:C:/Users/stapi/OneDrive/Desktop/GD32VW553/V1_MQTT_OK/GD32VW55X_Wifi_BLE_SDK/GD32VW55x_RELEASE_V1.0.2/MSDK/cloud/alicloud/src/protocol/alcs\alcs_adapter.c ****         COAP_ERR("Mutex Init Failed");
 1019              		.loc 1 283 9 is_stmt 1
 1020              		.loc 1 283 9
 1021 0076 37050000 		lui	a0,%hi(.LC3)
 1022 007a 13050500 		addi	a0,a0,%lo(.LC3)
 1023 007e 97000000 		call	HAL_Printf
 1023      E7800000 
 1024              	.LVL106:
 1025              		.loc 1 283 9
 1026 0086 37050000 		lui	a0,%hi(.LC8)
 1027 008a 13050500 		addi	a0,a0,%lo(.LC8)
 1028              	.LVL107:
 1029              	.L60:
 284:C:/Users/stapi/OneDrive/Desktop/GD32VW553/V1_MQTT_OK/GD32VW55X_Wifi_BLE_SDK/GD32VW55x_RELEASE_V1.0.2/MSDK/cloud/alicloud/src/protocol/alcs\alcs_adapter.c ****         return FAIL_RETURN;
 285:C:/Users/stapi/OneDrive/Desktop/GD32VW553/V1_MQTT_OK/GD32VW55X_Wifi_BLE_SDK/GD32VW55x_RELEASE_V1.0.2/MSDK/cloud/alicloud/src/protocol/alcs\alcs_adapter.c ****     }
 286:C:/Users/stapi/OneDrive/Desktop/GD32VW553/V1_MQTT_OK/GD32VW55X_Wifi_BLE_SDK/GD32VW55x_RELEASE_V1.0.2/MSDK/cloud/alicloud/src/protocol/alcs\alcs_adapter.c **** 
 287:C:/Users/stapi/OneDrive/Desktop/GD32VW553/V1_MQTT_OK/GD32VW55X_Wifi_BLE_SDK/GD32VW55x_RELEASE_V1.0.2/MSDK/cloud/alicloud/src/protocol/alcs\alcs_adapter.c ****     coap_param.send_maxcount = param->send_maxcount;
 288:C:/Users/stapi/OneDrive/Desktop/GD32VW553/V1_MQTT_OK/GD32VW55X_Wifi_BLE_SDK/GD32VW55x_RELEASE_V1.0.2/MSDK/cloud/alicloud/src/protocol/alcs\alcs_adapter.c ****     coap_param.obs_maxcount = param->obs_maxcount;
 289:C:/Users/stapi/OneDrive/Desktop/GD32VW553/V1_MQTT_OK/GD32VW55X_Wifi_BLE_SDK/GD32VW55x_RELEASE_V1.0.2/MSDK/cloud/alicloud/src/protocol/alcs\alcs_adapter.c ****     coap_param.port = param->port;
 290:C:/Users/stapi/OneDrive/Desktop/GD32VW553/V1_MQTT_OK/GD32VW55X_Wifi_BLE_SDK/GD32VW55x_RELEASE_V1.0.2/MSDK/cloud/alicloud/src/protocol/alcs\alcs_adapter.c ****     coap_param.group = param->group;
 291:C:/Users/stapi/OneDrive/Desktop/GD32VW553/V1_MQTT_OK/GD32VW55X_Wifi_BLE_SDK/GD32VW55x_RELEASE_V1.0.2/MSDK/cloud/alicloud/src/protocol/alcs\alcs_adapter.c ****     coap_param.waittime = param->waittime;
 292:C:/Users/stapi/OneDrive/Desktop/GD32VW553/V1_MQTT_OK/GD32VW55X_Wifi_BLE_SDK/GD32VW55x_RELEASE_V1.0.2/MSDK/cloud/alicloud/src/protocol/alcs\alcs_adapter.c ****     coap_param.res_maxcount = param->res_maxcount;
 293:C:/Users/stapi/OneDrive/Desktop/GD32VW553/V1_MQTT_OK/GD32VW55X_Wifi_BLE_SDK/GD32VW55x_RELEASE_V1.0.2/MSDK/cloud/alicloud/src/protocol/alcs\alcs_adapter.c ****     coap_param.appdata = NULL;
 294:C:/Users/stapi/OneDrive/Desktop/GD32VW553/V1_MQTT_OK/GD32VW55X_Wifi_BLE_SDK/GD32VW55x_RELEASE_V1.0.2/MSDK/cloud/alicloud/src/protocol/alcs\alcs_adapter.c ****     coap_param.notifier = iotx_alcs_coap_adapter_event_notifier;
 295:C:/Users/stapi/OneDrive/Desktop/GD32VW553/V1_MQTT_OK/GD32VW55X_Wifi_BLE_SDK/GD32VW55x_RELEASE_V1.0.2/MSDK/cloud/alicloud/src/protocol/alcs\alcs_adapter.c **** 
 296:C:/Users/stapi/OneDrive/Desktop/GD32VW553/V1_MQTT_OK/GD32VW55X_Wifi_BLE_SDK/GD32VW55x_RELEASE_V1.0.2/MSDK/cloud/alicloud/src/protocol/alcs\alcs_adapter.c ****     coap_ctx = alcs_context_init(&coap_param);
 297:C:/Users/stapi/OneDrive/Desktop/GD32VW553/V1_MQTT_OK/GD32VW55X_Wifi_BLE_SDK/GD32VW55x_RELEASE_V1.0.2/MSDK/cloud/alicloud/src/protocol/alcs\alcs_adapter.c ****     if (coap_ctx == NULL) {
 298:C:/Users/stapi/OneDrive/Desktop/GD32VW553/V1_MQTT_OK/GD32VW55X_Wifi_BLE_SDK/GD32VW55x_RELEASE_V1.0.2/MSDK/cloud/alicloud/src/protocol/alcs\alcs_adapter.c ****         COAP_ERR("Coap Context Init Failed");
 299:C:/Users/stapi/OneDrive/Desktop/GD32VW553/V1_MQTT_OK/GD32VW55X_Wifi_BLE_SDK/GD32VW55x_RELEASE_V1.0.2/MSDK/cloud/alicloud/src/protocol/alcs\alcs_adapter.c ****         HAL_MutexDestroy(adapter->mutex);
 300:C:/Users/stapi/OneDrive/Desktop/GD32VW553/V1_MQTT_OK/GD32VW55X_Wifi_BLE_SDK/GD32VW55x_RELEASE_V1.0.2/MSDK/cloud/alicloud/src/protocol/alcs\alcs_adapter.c ****         return FAIL_RETURN;
 301:C:/Users/stapi/OneDrive/Desktop/GD32VW553/V1_MQTT_OK/GD32VW55X_Wifi_BLE_SDK/GD32VW55x_RELEASE_V1.0.2/MSDK/cloud/alicloud/src/protocol/alcs\alcs_adapter.c ****     }
 302:C:/Users/stapi/OneDrive/Desktop/GD32VW553/V1_MQTT_OK/GD32VW55X_Wifi_BLE_SDK/GD32VW55x_RELEASE_V1.0.2/MSDK/cloud/alicloud/src/protocol/alcs\alcs_adapter.c ****     adapter->coap_ctx = coap_ctx;
 303:C:/Users/stapi/OneDrive/Desktop/GD32VW553/V1_MQTT_OK/GD32VW55X_Wifi_BLE_SDK/GD32VW55x_RELEASE_V1.0.2/MSDK/cloud/alicloud/src/protocol/alcs\alcs_adapter.c **** 
 304:C:/Users/stapi/OneDrive/Desktop/GD32VW553/V1_MQTT_OK/GD32VW55X_Wifi_BLE_SDK/GD32VW55x_RELEASE_V1.0.2/MSDK/cloud/alicloud/src/protocol/alcs\alcs_adapter.c ****     res = HAL_GetProductKey(product_key);
 305:C:/Users/stapi/OneDrive/Desktop/GD32VW553/V1_MQTT_OK/GD32VW55X_Wifi_BLE_SDK/GD32VW55x_RELEASE_V1.0.2/MSDK/cloud/alicloud/src/protocol/alcs\alcs_adapter.c ****     if (res <= 0 || res > PRODUCT_KEY_MAXLEN - 1) {
 306:C:/Users/stapi/OneDrive/Desktop/GD32VW553/V1_MQTT_OK/GD32VW55X_Wifi_BLE_SDK/GD32VW55x_RELEASE_V1.0.2/MSDK/cloud/alicloud/src/protocol/alcs\alcs_adapter.c ****         iotx_alcs_adapter_deinit();
 307:C:/Users/stapi/OneDrive/Desktop/GD32VW553/V1_MQTT_OK/GD32VW55X_Wifi_BLE_SDK/GD32VW55x_RELEASE_V1.0.2/MSDK/cloud/alicloud/src/protocol/alcs\alcs_adapter.c ****         COAP_ERR("Get Product Key Failed");
 308:C:/Users/stapi/OneDrive/Desktop/GD32VW553/V1_MQTT_OK/GD32VW55X_Wifi_BLE_SDK/GD32VW55x_RELEASE_V1.0.2/MSDK/cloud/alicloud/src/protocol/alcs\alcs_adapter.c ****         return FAIL_RETURN;
 309:C:/Users/stapi/OneDrive/Desktop/GD32VW553/V1_MQTT_OK/GD32VW55X_Wifi_BLE_SDK/GD32VW55x_RELEASE_V1.0.2/MSDK/cloud/alicloud/src/protocol/alcs\alcs_adapter.c ****     }
 310:C:/Users/stapi/OneDrive/Desktop/GD32VW553/V1_MQTT_OK/GD32VW55X_Wifi_BLE_SDK/GD32VW55x_RELEASE_V1.0.2/MSDK/cloud/alicloud/src/protocol/alcs\alcs_adapter.c **** 
 311:C:/Users/stapi/OneDrive/Desktop/GD32VW553/V1_MQTT_OK/GD32VW55X_Wifi_BLE_SDK/GD32VW55x_RELEASE_V1.0.2/MSDK/cloud/alicloud/src/protocol/alcs\alcs_adapter.c ****     res = HAL_GetDeviceName(device_name);
 312:C:/Users/stapi/OneDrive/Desktop/GD32VW553/V1_MQTT_OK/GD32VW55X_Wifi_BLE_SDK/GD32VW55x_RELEASE_V1.0.2/MSDK/cloud/alicloud/src/protocol/alcs\alcs_adapter.c ****     if (res <= 0 || res > DEVICE_NAME_MAXLEN - 1) {
 313:C:/Users/stapi/OneDrive/Desktop/GD32VW553/V1_MQTT_OK/GD32VW55X_Wifi_BLE_SDK/GD32VW55x_RELEASE_V1.0.2/MSDK/cloud/alicloud/src/protocol/alcs\alcs_adapter.c ****         iotx_alcs_adapter_deinit();
 314:C:/Users/stapi/OneDrive/Desktop/GD32VW553/V1_MQTT_OK/GD32VW55X_Wifi_BLE_SDK/GD32VW55x_RELEASE_V1.0.2/MSDK/cloud/alicloud/src/protocol/alcs\alcs_adapter.c ****         COAP_ERR("Get Device Name Failed");
 315:C:/Users/stapi/OneDrive/Desktop/GD32VW553/V1_MQTT_OK/GD32VW55X_Wifi_BLE_SDK/GD32VW55x_RELEASE_V1.0.2/MSDK/cloud/alicloud/src/protocol/alcs\alcs_adapter.c ****         return FAIL_RETURN;
 316:C:/Users/stapi/OneDrive/Desktop/GD32VW553/V1_MQTT_OK/GD32VW55X_Wifi_BLE_SDK/GD32VW55x_RELEASE_V1.0.2/MSDK/cloud/alicloud/src/protocol/alcs\alcs_adapter.c ****     }
 317:C:/Users/stapi/OneDrive/Desktop/GD32VW553/V1_MQTT_OK/GD32VW55X_Wifi_BLE_SDK/GD32VW55x_RELEASE_V1.0.2/MSDK/cloud/alicloud/src/protocol/alcs\alcs_adapter.c **** 
 318:C:/Users/stapi/OneDrive/Desktop/GD32VW553/V1_MQTT_OK/GD32VW55X_Wifi_BLE_SDK/GD32VW55x_RELEASE_V1.0.2/MSDK/cloud/alicloud/src/protocol/alcs\alcs_adapter.c ****     alcs_init();
 319:C:/Users/stapi/OneDrive/Desktop/GD32VW553/V1_MQTT_OK/GD32VW55X_Wifi_BLE_SDK/GD32VW55x_RELEASE_V1.0.2/MSDK/cloud/alicloud/src/protocol/alcs\alcs_adapter.c **** 
 320:C:/Users/stapi/OneDrive/Desktop/GD32VW553/V1_MQTT_OK/GD32VW55X_Wifi_BLE_SDK/GD32VW55x_RELEASE_V1.0.2/MSDK/cloud/alicloud/src/protocol/alcs\alcs_adapter.c ****     res = alcs_auth_init(coap_ctx, product_key, device_name, param->role);
 321:C:/Users/stapi/OneDrive/Desktop/GD32VW553/V1_MQTT_OK/GD32VW55X_Wifi_BLE_SDK/GD32VW55x_RELEASE_V1.0.2/MSDK/cloud/alicloud/src/protocol/alcs\alcs_adapter.c ****     if (res != COAP_SUCCESS) {
 322:C:/Users/stapi/OneDrive/Desktop/GD32VW553/V1_MQTT_OK/GD32VW55X_Wifi_BLE_SDK/GD32VW55x_RELEASE_V1.0.2/MSDK/cloud/alicloud/src/protocol/alcs\alcs_adapter.c ****         iotx_alcs_adapter_deinit();
 323:C:/Users/stapi/OneDrive/Desktop/GD32VW553/V1_MQTT_OK/GD32VW55X_Wifi_BLE_SDK/GD32VW55x_RELEASE_V1.0.2/MSDK/cloud/alicloud/src/protocol/alcs\alcs_adapter.c ****         COAP_ERR("ALCS Auth Init Failed");
 1030              		.loc 1 323 9 is_stmt 0
 1031 008e 97000000 		call	HAL_Printf
 1031      E7800000 
 1032              	.LVL108:
 1033              		.loc 1 323 9 is_stmt 1
 1034 0096 13850900 		addi	a0,s3,%lo(.LC2)
 1035              	.L58:
 324:C:/Users/stapi/OneDrive/Desktop/GD32VW553/V1_MQTT_OK/GD32VW55X_Wifi_BLE_SDK/GD32VW55x_RELEASE_V1.0.2/MSDK/cloud/alicloud/src/protocol/alcs\alcs_adapter.c ****         return FAIL_RETURN;
 325:C:/Users/stapi/OneDrive/Desktop/GD32VW553/V1_MQTT_OK/GD32VW55X_Wifi_BLE_SDK/GD32VW55x_RELEASE_V1.0.2/MSDK/cloud/alicloud/src/protocol/alcs\alcs_adapter.c ****     }
 326:C:/Users/stapi/OneDrive/Desktop/GD32VW553/V1_MQTT_OK/GD32VW55X_Wifi_BLE_SDK/GD32VW55x_RELEASE_V1.0.2/MSDK/cloud/alicloud/src/protocol/alcs\alcs_adapter.c ****     adapter->role = param->role;
 327:C:/Users/stapi/OneDrive/Desktop/GD32VW553/V1_MQTT_OK/GD32VW55X_Wifi_BLE_SDK/GD32VW55x_RELEASE_V1.0.2/MSDK/cloud/alicloud/src/protocol/alcs\alcs_adapter.c **** #ifdef ALCS_SERVER_ENABLED
 328:C:/Users/stapi/OneDrive/Desktop/GD32VW553/V1_MQTT_OK/GD32VW55X_Wifi_BLE_SDK/GD32VW55x_RELEASE_V1.0.2/MSDK/cloud/alicloud/src/protocol/alcs\alcs_adapter.c ****     extern void on_svr_auth_timer(CoAPContext *);
 329:C:/Users/stapi/OneDrive/Desktop/GD32VW553/V1_MQTT_OK/GD32VW55X_Wifi_BLE_SDK/GD32VW55x_RELEASE_V1.0.2/MSDK/cloud/alicloud/src/protocol/alcs\alcs_adapter.c ****     if (adapter->role & IOTX_ALCS_ROLE_SERVER) {
 330:C:/Users/stapi/OneDrive/Desktop/GD32VW553/V1_MQTT_OK/GD32VW55X_Wifi_BLE_SDK/GD32VW55x_RELEASE_V1.0.2/MSDK/cloud/alicloud/src/protocol/alcs\alcs_adapter.c ****         adapter->alcs_server_auth_timer_func = on_svr_auth_timer;
 331:C:/Users/stapi/OneDrive/Desktop/GD32VW553/V1_MQTT_OK/GD32VW55X_Wifi_BLE_SDK/GD32VW55x_RELEASE_V1.0.2/MSDK/cloud/alicloud/src/protocol/alcs\alcs_adapter.c ****     }
 332:C:/Users/stapi/OneDrive/Desktop/GD32VW553/V1_MQTT_OK/GD32VW55X_Wifi_BLE_SDK/GD32VW55x_RELEASE_V1.0.2/MSDK/cloud/alicloud/src/protocol/alcs\alcs_adapter.c **** #endif
 333:C:/Users/stapi/OneDrive/Desktop/GD32VW553/V1_MQTT_OK/GD32VW55X_Wifi_BLE_SDK/GD32VW55x_RELEASE_V1.0.2/MSDK/cloud/alicloud/src/protocol/alcs\alcs_adapter.c **** 
 334:C:/Users/stapi/OneDrive/Desktop/GD32VW553/V1_MQTT_OK/GD32VW55X_Wifi_BLE_SDK/GD32VW55x_RELEASE_V1.0.2/MSDK/cloud/alicloud/src/protocol/alcs\alcs_adapter.c **** #ifdef ALCS_CLIENT_ENABLED
 335:C:/Users/stapi/OneDrive/Desktop/GD32VW553/V1_MQTT_OK/GD32VW55X_Wifi_BLE_SDK/GD32VW55x_RELEASE_V1.0.2/MSDK/cloud/alicloud/src/protocol/alcs\alcs_adapter.c ****     extern void on_client_auth_timer(CoAPContext *);
 336:C:/Users/stapi/OneDrive/Desktop/GD32VW553/V1_MQTT_OK/GD32VW55X_Wifi_BLE_SDK/GD32VW55x_RELEASE_V1.0.2/MSDK/cloud/alicloud/src/protocol/alcs\alcs_adapter.c ****     if (adapter->role & IOTX_ALCS_ROLE_CLIENT) {
 337:C:/Users/stapi/OneDrive/Desktop/GD32VW553/V1_MQTT_OK/GD32VW55X_Wifi_BLE_SDK/GD32VW55x_RELEASE_V1.0.2/MSDK/cloud/alicloud/src/protocol/alcs\alcs_adapter.c ****         adapter->alcs_client_auth_timer_func = on_client_auth_timer;
 338:C:/Users/stapi/OneDrive/Desktop/GD32VW553/V1_MQTT_OK/GD32VW55X_Wifi_BLE_SDK/GD32VW55x_RELEASE_V1.0.2/MSDK/cloud/alicloud/src/protocol/alcs\alcs_adapter.c ****     }
 339:C:/Users/stapi/OneDrive/Desktop/GD32VW553/V1_MQTT_OK/GD32VW55X_Wifi_BLE_SDK/GD32VW55x_RELEASE_V1.0.2/MSDK/cloud/alicloud/src/protocol/alcs\alcs_adapter.c **** #endif
 340:C:/Users/stapi/OneDrive/Desktop/GD32VW553/V1_MQTT_OK/GD32VW55X_Wifi_BLE_SDK/GD32VW55x_RELEASE_V1.0.2/MSDK/cloud/alicloud/src/protocol/alcs\alcs_adapter.c **** 
 341:C:/Users/stapi/OneDrive/Desktop/GD32VW553/V1_MQTT_OK/GD32VW55X_Wifi_BLE_SDK/GD32VW55x_RELEASE_V1.0.2/MSDK/cloud/alicloud/src/protocol/alcs\alcs_adapter.c ****     adapter->alcs_event_handle = (iotx_alcs_event_handle_t *)ALCS_ADAPTER_malloc(sizeof(iotx_alcs_e
 342:C:/Users/stapi/OneDrive/Desktop/GD32VW553/V1_MQTT_OK/GD32VW55X_Wifi_BLE_SDK/GD32VW55x_RELEASE_V1.0.2/MSDK/cloud/alicloud/src/protocol/alcs\alcs_adapter.c ****     if (adapter->alcs_event_handle == NULL) {
 343:C:/Users/stapi/OneDrive/Desktop/GD32VW553/V1_MQTT_OK/GD32VW55X_Wifi_BLE_SDK/GD32VW55x_RELEASE_V1.0.2/MSDK/cloud/alicloud/src/protocol/alcs\alcs_adapter.c ****         iotx_alcs_adapter_deinit();
 344:C:/Users/stapi/OneDrive/Desktop/GD32VW553/V1_MQTT_OK/GD32VW55X_Wifi_BLE_SDK/GD32VW55x_RELEASE_V1.0.2/MSDK/cloud/alicloud/src/protocol/alcs\alcs_adapter.c ****         COAP_ERR("ALCS Event Handle Init Failed");
 1036              		.loc 1 344 9 is_stmt 0
 1037 009a 97000000 		call	HAL_Printf
 1037      E7800000 
 1038              	.LVL109:
 1039 00a2 ADA8     		j	.L59
 1040              	.LVL110:
 1041              	.L46:
 287:C:/Users/stapi/OneDrive/Desktop/GD32VW553/V1_MQTT_OK/GD32VW55X_Wifi_BLE_SDK/GD32VW55x_RELEASE_V1.0.2/MSDK/cloud/alicloud/src/protocol/alcs\alcs_adapter.c ****     coap_param.obs_maxcount = param->obs_maxcount;
 1042              		.loc 1 287 5 is_stmt 1
 287:C:/Users/stapi/OneDrive/Desktop/GD32VW553/V1_MQTT_OK/GD32VW55X_Wifi_BLE_SDK/GD32VW55x_RELEASE_V1.0.2/MSDK/cloud/alicloud/src/protocol/alcs\alcs_adapter.c ****     coap_param.obs_maxcount = param->obs_maxcount;
 1043              		.loc 1 287 30 is_stmt 0
 1044 00a4 83C71400 		lbu	a5,1(s1)
 296:C:/Users/stapi/OneDrive/Desktop/GD32VW553/V1_MQTT_OK/GD32VW55X_Wifi_BLE_SDK/GD32VW55x_RELEASE_V1.0.2/MSDK/cloud/alicloud/src/protocol/alcs\alcs_adapter.c ****     if (coap_ctx == NULL) {
 1045              		.loc 1 296 16
 1046 00a8 4810     		addi	a0,sp,36
 293:C:/Users/stapi/OneDrive/Desktop/GD32VW553/V1_MQTT_OK/GD32VW55X_Wifi_BLE_SDK/GD32VW55x_RELEASE_V1.0.2/MSDK/cloud/alicloud/src/protocol/alcs\alcs_adapter.c ****     coap_param.notifier = iotx_alcs_coap_adapter_event_notifier;
 1047              		.loc 1 293 24
 1048 00aa 02DA     		sw	zero,52(sp)
 287:C:/Users/stapi/OneDrive/Desktop/GD32VW553/V1_MQTT_OK/GD32VW55X_Wifi_BLE_SDK/GD32VW55x_RELEASE_V1.0.2/MSDK/cloud/alicloud/src/protocol/alcs\alcs_adapter.c ****     coap_param.obs_maxcount = param->obs_maxcount;
 1049              		.loc 1 287 30
 1050 00ac 2302F102 		sb	a5,36(sp)
 288:C:/Users/stapi/OneDrive/Desktop/GD32VW553/V1_MQTT_OK/GD32VW55X_Wifi_BLE_SDK/GD32VW55x_RELEASE_V1.0.2/MSDK/cloud/alicloud/src/protocol/alcs\alcs_adapter.c ****     coap_param.port = param->port;
 1051              		.loc 1 288 5 is_stmt 1
 288:C:/Users/stapi/OneDrive/Desktop/GD32VW553/V1_MQTT_OK/GD32VW55X_Wifi_BLE_SDK/GD32VW55x_RELEASE_V1.0.2/MSDK/cloud/alicloud/src/protocol/alcs\alcs_adapter.c ****     coap_param.port = param->port;
 1052              		.loc 1 288 29 is_stmt 0
 1053 00b0 83C72400 		lbu	a5,2(s1)
 1054 00b4 A302F102 		sb	a5,37(sp)
 289:C:/Users/stapi/OneDrive/Desktop/GD32VW553/V1_MQTT_OK/GD32VW55X_Wifi_BLE_SDK/GD32VW55x_RELEASE_V1.0.2/MSDK/cloud/alicloud/src/protocol/alcs\alcs_adapter.c ****     coap_param.group = param->group;
 1055              		.loc 1 289 5 is_stmt 1
 289:C:/Users/stapi/OneDrive/Desktop/GD32VW553/V1_MQTT_OK/GD32VW55X_Wifi_BLE_SDK/GD32VW55x_RELEASE_V1.0.2/MSDK/cloud/alicloud/src/protocol/alcs\alcs_adapter.c ****     coap_param.group = param->group;
 1056              		.loc 1 289 21 is_stmt 0
 1057 00b8 83D74400 		lhu	a5,4(s1)
 1058 00bc 2313F102 		sh	a5,38(sp)
 290:C:/Users/stapi/OneDrive/Desktop/GD32VW553/V1_MQTT_OK/GD32VW55X_Wifi_BLE_SDK/GD32VW55x_RELEASE_V1.0.2/MSDK/cloud/alicloud/src/protocol/alcs\alcs_adapter.c ****     coap_param.waittime = param->waittime;
 1059              		.loc 1 290 5 is_stmt 1
 290:C:/Users/stapi/OneDrive/Desktop/GD32VW553/V1_MQTT_OK/GD32VW55X_Wifi_BLE_SDK/GD32VW55x_RELEASE_V1.0.2/MSDK/cloud/alicloud/src/protocol/alcs\alcs_adapter.c ****     coap_param.waittime = param->waittime;
 1060              		.loc 1 290 22 is_stmt 0
 1061 00c0 9C44     		lw	a5,8(s1)
 1062 00c2 3ED4     		sw	a5,40(sp)
 291:C:/Users/stapi/OneDrive/Desktop/GD32VW553/V1_MQTT_OK/GD32VW55X_Wifi_BLE_SDK/GD32VW55x_RELEASE_V1.0.2/MSDK/cloud/alicloud/src/protocol/alcs\alcs_adapter.c ****     coap_param.res_maxcount = param->res_maxcount;
 1063              		.loc 1 291 5 is_stmt 1
 291:C:/Users/stapi/OneDrive/Desktop/GD32VW553/V1_MQTT_OK/GD32VW55X_Wifi_BLE_SDK/GD32VW55x_RELEASE_V1.0.2/MSDK/cloud/alicloud/src/protocol/alcs\alcs_adapter.c ****     coap_param.res_maxcount = param->res_maxcount;
 1064              		.loc 1 291 25 is_stmt 0
 1065 00c4 DC44     		lw	a5,12(s1)
 1066 00c6 3ED6     		sw	a5,44(sp)
 292:C:/Users/stapi/OneDrive/Desktop/GD32VW553/V1_MQTT_OK/GD32VW55X_Wifi_BLE_SDK/GD32VW55x_RELEASE_V1.0.2/MSDK/cloud/alicloud/src/protocol/alcs\alcs_adapter.c ****     coap_param.appdata = NULL;
 1067              		.loc 1 292 5 is_stmt 1
 292:C:/Users/stapi/OneDrive/Desktop/GD32VW553/V1_MQTT_OK/GD32VW55X_Wifi_BLE_SDK/GD32VW55x_RELEASE_V1.0.2/MSDK/cloud/alicloud/src/protocol/alcs\alcs_adapter.c ****     coap_param.appdata = NULL;
 1068              		.loc 1 292 29 is_stmt 0
 1069 00c8 83C70401 		lbu	a5,16(s1)
 1070 00cc 230CF102 		sb	a5,56(sp)
 293:C:/Users/stapi/OneDrive/Desktop/GD32VW553/V1_MQTT_OK/GD32VW55X_Wifi_BLE_SDK/GD32VW55x_RELEASE_V1.0.2/MSDK/cloud/alicloud/src/protocol/alcs\alcs_adapter.c ****     coap_param.notifier = iotx_alcs_coap_adapter_event_notifier;
 1071              		.loc 1 293 5 is_stmt 1
 294:C:/Users/stapi/OneDrive/Desktop/GD32VW553/V1_MQTT_OK/GD32VW55X_Wifi_BLE_SDK/GD32VW55x_RELEASE_V1.0.2/MSDK/cloud/alicloud/src/protocol/alcs\alcs_adapter.c **** 
 1072              		.loc 1 294 5
 294:C:/Users/stapi/OneDrive/Desktop/GD32VW553/V1_MQTT_OK/GD32VW55X_Wifi_BLE_SDK/GD32VW55x_RELEASE_V1.0.2/MSDK/cloud/alicloud/src/protocol/alcs\alcs_adapter.c **** 
 1073              		.loc 1 294 25 is_stmt 0
 1074 00d0 B7070000 		lui	a5,%hi(iotx_alcs_coap_adapter_event_notifier)
 1075 00d4 93870700 		addi	a5,a5,%lo(iotx_alcs_coap_adapter_event_notifier)
 1076 00d8 3ED8     		sw	a5,48(sp)
 296:C:/Users/stapi/OneDrive/Desktop/GD32VW553/V1_MQTT_OK/GD32VW55X_Wifi_BLE_SDK/GD32VW55x_RELEASE_V1.0.2/MSDK/cloud/alicloud/src/protocol/alcs\alcs_adapter.c ****     if (coap_ctx == NULL) {
 1077              		.loc 1 296 5 is_stmt 1
 296:C:/Users/stapi/OneDrive/Desktop/GD32VW553/V1_MQTT_OK/GD32VW55X_Wifi_BLE_SDK/GD32VW55x_RELEASE_V1.0.2/MSDK/cloud/alicloud/src/protocol/alcs\alcs_adapter.c ****     if (coap_ctx == NULL) {
 1078              		.loc 1 296 16 is_stmt 0
 1079 00da 97000000 		call	alcs_context_init
 1079      E7800000 
 1080              	.LVL111:
 1081 00e2 2A8A     		mv	s4,a0
 1082              	.LVL112:
 297:C:/Users/stapi/OneDrive/Desktop/GD32VW553/V1_MQTT_OK/GD32VW55X_Wifi_BLE_SDK/GD32VW55x_RELEASE_V1.0.2/MSDK/cloud/alicloud/src/protocol/alcs\alcs_adapter.c ****         COAP_ERR("Coap Context Init Failed");
 1083              		.loc 1 297 5 is_stmt 1
 297:C:/Users/stapi/OneDrive/Desktop/GD32VW553/V1_MQTT_OK/GD32VW55X_Wifi_BLE_SDK/GD32VW55x_RELEASE_V1.0.2/MSDK/cloud/alicloud/src/protocol/alcs\alcs_adapter.c ****         COAP_ERR("Coap Context Init Failed");
 1084              		.loc 1 297 8 is_stmt 0
 1085 00e4 39E1     		bne	a0,zero,.L48
 298:C:/Users/stapi/OneDrive/Desktop/GD32VW553/V1_MQTT_OK/GD32VW55X_Wifi_BLE_SDK/GD32VW55x_RELEASE_V1.0.2/MSDK/cloud/alicloud/src/protocol/alcs\alcs_adapter.c ****         HAL_MutexDestroy(adapter->mutex);
 1086              		.loc 1 298 9 is_stmt 1
 298:C:/Users/stapi/OneDrive/Desktop/GD32VW553/V1_MQTT_OK/GD32VW55X_Wifi_BLE_SDK/GD32VW55x_RELEASE_V1.0.2/MSDK/cloud/alicloud/src/protocol/alcs\alcs_adapter.c ****         HAL_MutexDestroy(adapter->mutex);
 1087              		.loc 1 298 9
 1088 00e6 37050000 		lui	a0,%hi(.LC3)
 1089              	.LVL113:
 1090 00ea 13050500 		addi	a0,a0,%lo(.LC3)
 1091 00ee 97000000 		call	HAL_Printf
 1091      E7800000 
 1092              	.LVL114:
 298:C:/Users/stapi/OneDrive/Desktop/GD32VW553/V1_MQTT_OK/GD32VW55X_Wifi_BLE_SDK/GD32VW55x_RELEASE_V1.0.2/MSDK/cloud/alicloud/src/protocol/alcs\alcs_adapter.c ****         HAL_MutexDestroy(adapter->mutex);
 1093              		.loc 1 298 9
 1094 00f6 37050000 		lui	a0,%hi(.LC9)
 1095 00fa 13050500 		addi	a0,a0,%lo(.LC9)
 1096 00fe 97000000 		call	HAL_Printf
 1096      E7800000 
 1097              	.LVL115:
 298:C:/Users/stapi/OneDrive/Desktop/GD32VW553/V1_MQTT_OK/GD32VW55X_Wifi_BLE_SDK/GD32VW55x_RELEASE_V1.0.2/MSDK/cloud/alicloud/src/protocol/alcs\alcs_adapter.c ****         HAL_MutexDestroy(adapter->mutex);
 1098              		.loc 1 298 9
 1099 0106 13850900 		addi	a0,s3,%lo(.LC2)
 1100 010a 97000000 		call	HAL_Printf
 1100      E7800000 
 1101              	.LVL116:
 298:C:/Users/stapi/OneDrive/Desktop/GD32VW553/V1_MQTT_OK/GD32VW55X_Wifi_BLE_SDK/GD32VW55x_RELEASE_V1.0.2/MSDK/cloud/alicloud/src/protocol/alcs\alcs_adapter.c ****         HAL_MutexDestroy(adapter->mutex);
 1102              		.loc 1 298 9
 299:C:/Users/stapi/OneDrive/Desktop/GD32VW553/V1_MQTT_OK/GD32VW55X_Wifi_BLE_SDK/GD32VW55x_RELEASE_V1.0.2/MSDK/cloud/alicloud/src/protocol/alcs\alcs_adapter.c ****         return FAIL_RETURN;
 1103              		.loc 1 299 9
 1104 0112 0840     		lw	a0,0(s0)
 1105 0114 97000000 		call	HAL_MutexDestroy
 1105      E7800000 
 1106              	.LVL117:
 300:C:/Users/stapi/OneDrive/Desktop/GD32VW553/V1_MQTT_OK/GD32VW55X_Wifi_BLE_SDK/GD32VW55x_RELEASE_V1.0.2/MSDK/cloud/alicloud/src/protocol/alcs\alcs_adapter.c ****     }
 1107              		.loc 1 300 9
 1108              	.L59:
 1109              		.loc 1 344 9
 345:C:/Users/stapi/OneDrive/Desktop/GD32VW553/V1_MQTT_OK/GD32VW55X_Wifi_BLE_SDK/GD32VW55x_RELEASE_V1.0.2/MSDK/cloud/alicloud/src/protocol/alcs\alcs_adapter.c ****         return FAIL_RETURN;
 1110              		.loc 1 345 9
 1111              		.loc 1 345 16 is_stmt 0
 1112 011c 7D59     		li	s2,-1
 1113              	.L45:
 346:C:/Users/stapi/OneDrive/Desktop/GD32VW553/V1_MQTT_OK/GD32VW55X_Wifi_BLE_SDK/GD32VW55x_RELEASE_V1.0.2/MSDK/cloud/alicloud/src/protocol/alcs\alcs_adapter.c ****     }
 347:C:/Users/stapi/OneDrive/Desktop/GD32VW553/V1_MQTT_OK/GD32VW55X_Wifi_BLE_SDK/GD32VW55x_RELEASE_V1.0.2/MSDK/cloud/alicloud/src/protocol/alcs\alcs_adapter.c ****     memcpy(adapter->alcs_event_handle, param->handle_event, sizeof(iotx_alcs_event_handle_t));
 348:C:/Users/stapi/OneDrive/Desktop/GD32VW553/V1_MQTT_OK/GD32VW55X_Wifi_BLE_SDK/GD32VW55x_RELEASE_V1.0.2/MSDK/cloud/alicloud/src/protocol/alcs\alcs_adapter.c **** 
 349:C:/Users/stapi/OneDrive/Desktop/GD32VW553/V1_MQTT_OK/GD32VW55X_Wifi_BLE_SDK/GD32VW55x_RELEASE_V1.0.2/MSDK/cloud/alicloud/src/protocol/alcs\alcs_adapter.c ****     if (iotx_alcs_adapter_list_init(adapter) != SUCCESS_RETURN) {
 350:C:/Users/stapi/OneDrive/Desktop/GD32VW553/V1_MQTT_OK/GD32VW55X_Wifi_BLE_SDK/GD32VW55x_RELEASE_V1.0.2/MSDK/cloud/alicloud/src/protocol/alcs\alcs_adapter.c ****         iotx_alcs_adapter_deinit();
 351:C:/Users/stapi/OneDrive/Desktop/GD32VW553/V1_MQTT_OK/GD32VW55X_Wifi_BLE_SDK/GD32VW55x_RELEASE_V1.0.2/MSDK/cloud/alicloud/src/protocol/alcs\alcs_adapter.c ****         COAP_ERR("ALCS Linked List Init Failed");
 352:C:/Users/stapi/OneDrive/Desktop/GD32VW553/V1_MQTT_OK/GD32VW55X_Wifi_BLE_SDK/GD32VW55x_RELEASE_V1.0.2/MSDK/cloud/alicloud/src/protocol/alcs\alcs_adapter.c ****         return FAIL_RETURN;
 353:C:/Users/stapi/OneDrive/Desktop/GD32VW553/V1_MQTT_OK/GD32VW55X_Wifi_BLE_SDK/GD32VW55x_RELEASE_V1.0.2/MSDK/cloud/alicloud/src/protocol/alcs\alcs_adapter.c ****     }
 354:C:/Users/stapi/OneDrive/Desktop/GD32VW553/V1_MQTT_OK/GD32VW55X_Wifi_BLE_SDK/GD32VW55x_RELEASE_V1.0.2/MSDK/cloud/alicloud/src/protocol/alcs\alcs_adapter.c **** 
 355:C:/Users/stapi/OneDrive/Desktop/GD32VW553/V1_MQTT_OK/GD32VW55X_Wifi_BLE_SDK/GD32VW55x_RELEASE_V1.0.2/MSDK/cloud/alicloud/src/protocol/alcs\alcs_adapter.c ****     alcs_localsetup_init(adapter, coap_ctx, product_key, device_name);
 356:C:/Users/stapi/OneDrive/Desktop/GD32VW553/V1_MQTT_OK/GD32VW55X_Wifi_BLE_SDK/GD32VW55x_RELEASE_V1.0.2/MSDK/cloud/alicloud/src/protocol/alcs\alcs_adapter.c **** 
 357:C:/Users/stapi/OneDrive/Desktop/GD32VW553/V1_MQTT_OK/GD32VW55X_Wifi_BLE_SDK/GD32VW55x_RELEASE_V1.0.2/MSDK/cloud/alicloud/src/protocol/alcs\alcs_adapter.c ****     return SUCCESS_RETURN;
 358:C:/Users/stapi/OneDrive/Desktop/GD32VW553/V1_MQTT_OK/GD32VW55X_Wifi_BLE_SDK/GD32VW55x_RELEASE_V1.0.2/MSDK/cloud/alicloud/src/protocol/alcs\alcs_adapter.c **** }
 1114              		.loc 1 358 1
 1115 011e 4A85     		mv	a0,s2
 1116 0120 2561     		addi	sp,sp,96
 1117              		.cfi_remember_state
 1118              		.cfi_def_cfa_offset 0
 1119 0122 17030000 		tail	__riscv_restore_6
 1119      67000300 
 1120              		.cfi_restore 21
 1121              		.cfi_restore 20
 1122              		.cfi_restore 19
 1123              		.cfi_restore 18
 1124              		.cfi_restore 9
 1125              		.cfi_restore 8
 1126              		.cfi_restore 1
 1127              		.cfi_def_cfa_offset -32
 1128              	.LVL118:
 1129              	.L48:
 1130              		.cfi_restore_state
 302:C:/Users/stapi/OneDrive/Desktop/GD32VW553/V1_MQTT_OK/GD32VW55X_Wifi_BLE_SDK/GD32VW55x_RELEASE_V1.0.2/MSDK/cloud/alicloud/src/protocol/alcs\alcs_adapter.c **** 
 1131              		.loc 1 302 5 is_stmt 1
 302:C:/Users/stapi/OneDrive/Desktop/GD32VW553/V1_MQTT_OK/GD32VW55X_Wifi_BLE_SDK/GD32VW55x_RELEASE_V1.0.2/MSDK/cloud/alicloud/src/protocol/alcs\alcs_adapter.c **** 
 1132              		.loc 1 302 23 is_stmt 0
 1133 012a 08C4     		sw	a0,8(s0)
 304:C:/Users/stapi/OneDrive/Desktop/GD32VW553/V1_MQTT_OK/GD32VW55X_Wifi_BLE_SDK/GD32VW55x_RELEASE_V1.0.2/MSDK/cloud/alicloud/src/protocol/alcs\alcs_adapter.c ****     if (res <= 0 || res > PRODUCT_KEY_MAXLEN - 1) {
 1134              		.loc 1 304 5 is_stmt 1
 304:C:/Users/stapi/OneDrive/Desktop/GD32VW553/V1_MQTT_OK/GD32VW55X_Wifi_BLE_SDK/GD32VW55x_RELEASE_V1.0.2/MSDK/cloud/alicloud/src/protocol/alcs\alcs_adapter.c ****     if (res <= 0 || res > PRODUCT_KEY_MAXLEN - 1) {
 1135              		.loc 1 304 11 is_stmt 0
 1136 012c 6800     		addi	a0,sp,12
 1137              	.LVL119:
 1138 012e 97000000 		call	HAL_GetProductKey
 1138      E7800000 
 1139              	.LVL120:
 305:C:/Users/stapi/OneDrive/Desktop/GD32VW553/V1_MQTT_OK/GD32VW55X_Wifi_BLE_SDK/GD32VW55x_RELEASE_V1.0.2/MSDK/cloud/alicloud/src/protocol/alcs\alcs_adapter.c ****         iotx_alcs_adapter_deinit();
 1140              		.loc 1 305 5 is_stmt 1
 305:C:/Users/stapi/OneDrive/Desktop/GD32VW553/V1_MQTT_OK/GD32VW55X_Wifi_BLE_SDK/GD32VW55x_RELEASE_V1.0.2/MSDK/cloud/alicloud/src/protocol/alcs\alcs_adapter.c ****         iotx_alcs_adapter_deinit();
 1141              		.loc 1 305 18 is_stmt 0
 1142 0136 7D15     		addi	a0,a0,-1
 1143              	.LVL121:
 305:C:/Users/stapi/OneDrive/Desktop/GD32VW553/V1_MQTT_OK/GD32VW55X_Wifi_BLE_SDK/GD32VW55x_RELEASE_V1.0.2/MSDK/cloud/alicloud/src/protocol/alcs\alcs_adapter.c ****         iotx_alcs_adapter_deinit();
 1144              		.loc 1 305 8
 1145 0138 CD47     		li	a5,19
 1146 013a 63F3A702 		bleu	a0,a5,.L49
 306:C:/Users/stapi/OneDrive/Desktop/GD32VW553/V1_MQTT_OK/GD32VW55X_Wifi_BLE_SDK/GD32VW55x_RELEASE_V1.0.2/MSDK/cloud/alicloud/src/protocol/alcs\alcs_adapter.c ****         COAP_ERR("Get Product Key Failed");
 1147              		.loc 1 306 9 is_stmt 1
 1148 013e 97000000 		call	iotx_alcs_adapter_deinit
 1148      E7800000 
 1149              	.LVL122:
 307:C:/Users/stapi/OneDrive/Desktop/GD32VW553/V1_MQTT_OK/GD32VW55X_Wifi_BLE_SDK/GD32VW55x_RELEASE_V1.0.2/MSDK/cloud/alicloud/src/protocol/alcs\alcs_adapter.c ****         return FAIL_RETURN;
 1150              		.loc 1 307 9
 307:C:/Users/stapi/OneDrive/Desktop/GD32VW553/V1_MQTT_OK/GD32VW55X_Wifi_BLE_SDK/GD32VW55x_RELEASE_V1.0.2/MSDK/cloud/alicloud/src/protocol/alcs\alcs_adapter.c ****         return FAIL_RETURN;
 1151              		.loc 1 307 9
 1152 0146 37050000 		lui	a0,%hi(.LC3)
 1153 014a 13050500 		addi	a0,a0,%lo(.LC3)
 1154 014e 97000000 		call	HAL_Printf
 1154      E7800000 
 1155              	.LVL123:
 307:C:/Users/stapi/OneDrive/Desktop/GD32VW553/V1_MQTT_OK/GD32VW55X_Wifi_BLE_SDK/GD32VW55x_RELEASE_V1.0.2/MSDK/cloud/alicloud/src/protocol/alcs\alcs_adapter.c ****         return FAIL_RETURN;
 1156              		.loc 1 307 9
 1157 0156 37050000 		lui	a0,%hi(.LC10)
 1158 015a 13050500 		addi	a0,a0,%lo(.LC10)
 1159 015e 05BF     		j	.L60
 1160              	.LVL124:
 1161              	.L49:
 311:C:/Users/stapi/OneDrive/Desktop/GD32VW553/V1_MQTT_OK/GD32VW55X_Wifi_BLE_SDK/GD32VW55x_RELEASE_V1.0.2/MSDK/cloud/alicloud/src/protocol/alcs\alcs_adapter.c ****     if (res <= 0 || res > DEVICE_NAME_MAXLEN - 1) {
 1162              		.loc 1 311 5
 311:C:/Users/stapi/OneDrive/Desktop/GD32VW553/V1_MQTT_OK/GD32VW55X_Wifi_BLE_SDK/GD32VW55x_RELEASE_V1.0.2/MSDK/cloud/alicloud/src/protocol/alcs\alcs_adapter.c ****     if (res <= 0 || res > DEVICE_NAME_MAXLEN - 1) {
 1163              		.loc 1 311 11 is_stmt 0
 1164 0160 6818     		addi	a0,sp,60
 1165              	.LVL125:
 1166 0162 97000000 		call	HAL_GetDeviceName
 1166      E7800000 
 1167              	.LVL126:
 312:C:/Users/stapi/OneDrive/Desktop/GD32VW553/V1_MQTT_OK/GD32VW55X_Wifi_BLE_SDK/GD32VW55x_RELEASE_V1.0.2/MSDK/cloud/alicloud/src/protocol/alcs\alcs_adapter.c ****         iotx_alcs_adapter_deinit();
 1168              		.loc 1 312 5 is_stmt 1
 312:C:/Users/stapi/OneDrive/Desktop/GD32VW553/V1_MQTT_OK/GD32VW55X_Wifi_BLE_SDK/GD32VW55x_RELEASE_V1.0.2/MSDK/cloud/alicloud/src/protocol/alcs\alcs_adapter.c ****         iotx_alcs_adapter_deinit();
 1169              		.loc 1 312 18 is_stmt 0
 1170 016a 7D15     		addi	a0,a0,-1
 1171              	.LVL127:
 312:C:/Users/stapi/OneDrive/Desktop/GD32VW553/V1_MQTT_OK/GD32VW55X_Wifi_BLE_SDK/GD32VW55x_RELEASE_V1.0.2/MSDK/cloud/alicloud/src/protocol/alcs\alcs_adapter.c ****         iotx_alcs_adapter_deinit();
 1172              		.loc 1 312 8
 1173 016c FD47     		li	a5,31
 1174 016e 63F3A702 		bleu	a0,a5,.L50
 313:C:/Users/stapi/OneDrive/Desktop/GD32VW553/V1_MQTT_OK/GD32VW55X_Wifi_BLE_SDK/GD32VW55x_RELEASE_V1.0.2/MSDK/cloud/alicloud/src/protocol/alcs\alcs_adapter.c ****         COAP_ERR("Get Device Name Failed");
 1175              		.loc 1 313 9 is_stmt 1
 1176 0172 97000000 		call	iotx_alcs_adapter_deinit
 1176      E7800000 
 1177              	.LVL128:
 314:C:/Users/stapi/OneDrive/Desktop/GD32VW553/V1_MQTT_OK/GD32VW55X_Wifi_BLE_SDK/GD32VW55x_RELEASE_V1.0.2/MSDK/cloud/alicloud/src/protocol/alcs\alcs_adapter.c ****         return FAIL_RETURN;
 1178              		.loc 1 314 9
 314:C:/Users/stapi/OneDrive/Desktop/GD32VW553/V1_MQTT_OK/GD32VW55X_Wifi_BLE_SDK/GD32VW55x_RELEASE_V1.0.2/MSDK/cloud/alicloud/src/protocol/alcs\alcs_adapter.c ****         return FAIL_RETURN;
 1179              		.loc 1 314 9
 1180 017a 37050000 		lui	a0,%hi(.LC3)
 1181 017e 13050500 		addi	a0,a0,%lo(.LC3)
 1182 0182 97000000 		call	HAL_Printf
 1182      E7800000 
 1183              	.LVL129:
 314:C:/Users/stapi/OneDrive/Desktop/GD32VW553/V1_MQTT_OK/GD32VW55X_Wifi_BLE_SDK/GD32VW55x_RELEASE_V1.0.2/MSDK/cloud/alicloud/src/protocol/alcs\alcs_adapter.c ****         return FAIL_RETURN;
 1184              		.loc 1 314 9
 1185 018a 37050000 		lui	a0,%hi(.LC11)
 1186 018e 13050500 		addi	a0,a0,%lo(.LC11)
 1187 0192 F5BD     		j	.L60
 1188              	.LVL130:
 1189              	.L50:
 318:C:/Users/stapi/OneDrive/Desktop/GD32VW553/V1_MQTT_OK/GD32VW55X_Wifi_BLE_SDK/GD32VW55x_RELEASE_V1.0.2/MSDK/cloud/alicloud/src/protocol/alcs\alcs_adapter.c **** 
 1190              		.loc 1 318 5
 1191 0194 97000000 		call	alcs_init
 1191      E7800000 
 1192              	.LVL131:
 320:C:/Users/stapi/OneDrive/Desktop/GD32VW553/V1_MQTT_OK/GD32VW55X_Wifi_BLE_SDK/GD32VW55x_RELEASE_V1.0.2/MSDK/cloud/alicloud/src/protocol/alcs\alcs_adapter.c ****     if (res != COAP_SUCCESS) {
 1193              		.loc 1 320 5
 320:C:/Users/stapi/OneDrive/Desktop/GD32VW553/V1_MQTT_OK/GD32VW55X_Wifi_BLE_SDK/GD32VW55x_RELEASE_V1.0.2/MSDK/cloud/alicloud/src/protocol/alcs\alcs_adapter.c ****     if (res != COAP_SUCCESS) {
 1194              		.loc 1 320 11 is_stmt 0
 1195 019c 7018     		addi	a2,sp,60
 1196 019e 6C00     		addi	a1,sp,12
 1197 01a0 5285     		mv	a0,s4
 1198 01a2 83860400 		lb	a3,0(s1)
 1199 01a6 97000000 		call	alcs_auth_init
 1199      E7800000 
 1200              	.LVL132:
 1201 01ae 2A89     		mv	s2,a0
 1202              	.LVL133:
 321:C:/Users/stapi/OneDrive/Desktop/GD32VW553/V1_MQTT_OK/GD32VW55X_Wifi_BLE_SDK/GD32VW55x_RELEASE_V1.0.2/MSDK/cloud/alicloud/src/protocol/alcs\alcs_adapter.c ****         iotx_alcs_adapter_deinit();
 1203              		.loc 1 321 5 is_stmt 1
 321:C:/Users/stapi/OneDrive/Desktop/GD32VW553/V1_MQTT_OK/GD32VW55X_Wifi_BLE_SDK/GD32VW55x_RELEASE_V1.0.2/MSDK/cloud/alicloud/src/protocol/alcs\alcs_adapter.c ****         iotx_alcs_adapter_deinit();
 1204              		.loc 1 321 8 is_stmt 0
 1205 01b0 15C1     		beq	a0,zero,.L51
 322:C:/Users/stapi/OneDrive/Desktop/GD32VW553/V1_MQTT_OK/GD32VW55X_Wifi_BLE_SDK/GD32VW55x_RELEASE_V1.0.2/MSDK/cloud/alicloud/src/protocol/alcs\alcs_adapter.c ****         COAP_ERR("ALCS Auth Init Failed");
 1206              		.loc 1 322 9 is_stmt 1
 1207 01b2 97000000 		call	iotx_alcs_adapter_deinit
 1207      E7800000 
 1208              	.LVL134:
 323:C:/Users/stapi/OneDrive/Desktop/GD32VW553/V1_MQTT_OK/GD32VW55X_Wifi_BLE_SDK/GD32VW55x_RELEASE_V1.0.2/MSDK/cloud/alicloud/src/protocol/alcs\alcs_adapter.c ****         return FAIL_RETURN;
 1209              		.loc 1 323 9
 323:C:/Users/stapi/OneDrive/Desktop/GD32VW553/V1_MQTT_OK/GD32VW55X_Wifi_BLE_SDK/GD32VW55x_RELEASE_V1.0.2/MSDK/cloud/alicloud/src/protocol/alcs\alcs_adapter.c ****         return FAIL_RETURN;
 1210              		.loc 1 323 9
 1211 01ba 37050000 		lui	a0,%hi(.LC3)
 1212 01be 13050500 		addi	a0,a0,%lo(.LC3)
 1213 01c2 97000000 		call	HAL_Printf
 1213      E7800000 
 1214              	.LVL135:
 323:C:/Users/stapi/OneDrive/Desktop/GD32VW553/V1_MQTT_OK/GD32VW55X_Wifi_BLE_SDK/GD32VW55x_RELEASE_V1.0.2/MSDK/cloud/alicloud/src/protocol/alcs\alcs_adapter.c ****         return FAIL_RETURN;
 1215              		.loc 1 323 9
 1216 01ca 37050000 		lui	a0,%hi(.LC12)
 1217 01ce 13050500 		addi	a0,a0,%lo(.LC12)
 1218 01d2 75BD     		j	.L60
 1219              	.LVL136:
 1220              	.L51:
 326:C:/Users/stapi/OneDrive/Desktop/GD32VW553/V1_MQTT_OK/GD32VW55X_Wifi_BLE_SDK/GD32VW55x_RELEASE_V1.0.2/MSDK/cloud/alicloud/src/protocol/alcs\alcs_adapter.c **** #ifdef ALCS_SERVER_ENABLED
 1221              		.loc 1 326 26 is_stmt 0
 1222 01d4 83C70400 		lbu	a5,0(s1)
 1223 01d8 CE8A     		mv	s5,s3
 326:C:/Users/stapi/OneDrive/Desktop/GD32VW553/V1_MQTT_OK/GD32VW55X_Wifi_BLE_SDK/GD32VW55x_RELEASE_V1.0.2/MSDK/cloud/alicloud/src/protocol/alcs\alcs_adapter.c **** #ifdef ALCS_SERVER_ENABLED
 1224              		.loc 1 326 5 is_stmt 1
 326:C:/Users/stapi/OneDrive/Desktop/GD32VW553/V1_MQTT_OK/GD32VW55X_Wifi_BLE_SDK/GD32VW55x_RELEASE_V1.0.2/MSDK/cloud/alicloud/src/protocol/alcs\alcs_adapter.c **** #ifdef ALCS_SERVER_ENABLED
 1225              		.loc 1 326 19 is_stmt 0
 1226 01da 2306F400 		sb	a5,12(s0)
 328:C:/Users/stapi/OneDrive/Desktop/GD32VW553/V1_MQTT_OK/GD32VW55X_Wifi_BLE_SDK/GD32VW55x_RELEASE_V1.0.2/MSDK/cloud/alicloud/src/protocol/alcs\alcs_adapter.c ****     if (adapter->role & IOTX_ALCS_ROLE_SERVER) {
 1227              		.loc 1 328 5 is_stmt 1
 329:C:/Users/stapi/OneDrive/Desktop/GD32VW553/V1_MQTT_OK/GD32VW55X_Wifi_BLE_SDK/GD32VW55x_RELEASE_V1.0.2/MSDK/cloud/alicloud/src/protocol/alcs\alcs_adapter.c ****         adapter->alcs_server_auth_timer_func = on_svr_auth_timer;
 1228              		.loc 1 329 5
 329:C:/Users/stapi/OneDrive/Desktop/GD32VW553/V1_MQTT_OK/GD32VW55X_Wifi_BLE_SDK/GD32VW55x_RELEASE_V1.0.2/MSDK/cloud/alicloud/src/protocol/alcs\alcs_adapter.c ****         adapter->alcs_server_auth_timer_func = on_svr_auth_timer;
 1229              		.loc 1 329 8 is_stmt 0
 1230 01de 898B     		andi	a5,a5,2
 1231 01e0 91C7     		beq	a5,zero,.L52
 330:C:/Users/stapi/OneDrive/Desktop/GD32VW553/V1_MQTT_OK/GD32VW55X_Wifi_BLE_SDK/GD32VW55x_RELEASE_V1.0.2/MSDK/cloud/alicloud/src/protocol/alcs\alcs_adapter.c ****     }
 1232              		.loc 1 330 9 is_stmt 1
 330:C:/Users/stapi/OneDrive/Desktop/GD32VW553/V1_MQTT_OK/GD32VW55X_Wifi_BLE_SDK/GD32VW55x_RELEASE_V1.0.2/MSDK/cloud/alicloud/src/protocol/alcs\alcs_adapter.c ****     }
 1233              		.loc 1 330 46 is_stmt 0
 1234 01e2 B7070000 		lui	a5,%hi(on_svr_auth_timer)
 1235 01e6 93870700 		addi	a5,a5,%lo(on_svr_auth_timer)
 1236 01ea 5CC8     		sw	a5,20(s0)
 1237              	.L52:
 341:C:/Users/stapi/OneDrive/Desktop/GD32VW553/V1_MQTT_OK/GD32VW55X_Wifi_BLE_SDK/GD32VW55x_RELEASE_V1.0.2/MSDK/cloud/alicloud/src/protocol/alcs\alcs_adapter.c ****     if (adapter->alcs_event_handle == NULL) {
 1238              		.loc 1 341 5 is_stmt 1
 341:C:/Users/stapi/OneDrive/Desktop/GD32VW553/V1_MQTT_OK/GD32VW55X_Wifi_BLE_SDK/GD32VW55x_RELEASE_V1.0.2/MSDK/cloud/alicloud/src/protocol/alcs\alcs_adapter.c ****     if (adapter->alcs_event_handle == NULL) {
 1239              		.loc 1 341 62 is_stmt 0
 1240 01ec 2146     		li	a2,8
 1241 01ee 8145     		li	a1,0
 1242 01f0 0145     		li	a0,0
 1243              	.LVL137:
 1244 01f2 97000000 		call	LITE_malloc_internal
 1244      E7800000 
 1245              	.LVL138:
 341:C:/Users/stapi/OneDrive/Desktop/GD32VW553/V1_MQTT_OK/GD32VW55X_Wifi_BLE_SDK/GD32VW55x_RELEASE_V1.0.2/MSDK/cloud/alicloud/src/protocol/alcs\alcs_adapter.c ****     if (adapter->alcs_event_handle == NULL) {
 1246              		.loc 1 341 32
 1247 01fa 08CC     		sw	a0,24(s0)
 342:C:/Users/stapi/OneDrive/Desktop/GD32VW553/V1_MQTT_OK/GD32VW55X_Wifi_BLE_SDK/GD32VW55x_RELEASE_V1.0.2/MSDK/cloud/alicloud/src/protocol/alcs\alcs_adapter.c ****         iotx_alcs_adapter_deinit();
 1248              		.loc 1 342 5 is_stmt 1
 342:C:/Users/stapi/OneDrive/Desktop/GD32VW553/V1_MQTT_OK/GD32VW55X_Wifi_BLE_SDK/GD32VW55x_RELEASE_V1.0.2/MSDK/cloud/alicloud/src/protocol/alcs\alcs_adapter.c ****         iotx_alcs_adapter_deinit();
 1249              		.loc 1 342 8 is_stmt 0
 1250 01fc 05E9     		bne	a0,zero,.L53
 343:C:/Users/stapi/OneDrive/Desktop/GD32VW553/V1_MQTT_OK/GD32VW55X_Wifi_BLE_SDK/GD32VW55x_RELEASE_V1.0.2/MSDK/cloud/alicloud/src/protocol/alcs\alcs_adapter.c ****         COAP_ERR("ALCS Event Handle Init Failed");
 1251              		.loc 1 343 9 is_stmt 1
 1252 01fe 97000000 		call	iotx_alcs_adapter_deinit
 1252      E7800000 
 1253              	.LVL139:
 344:C:/Users/stapi/OneDrive/Desktop/GD32VW553/V1_MQTT_OK/GD32VW55X_Wifi_BLE_SDK/GD32VW55x_RELEASE_V1.0.2/MSDK/cloud/alicloud/src/protocol/alcs\alcs_adapter.c ****         return FAIL_RETURN;
 1254              		.loc 1 344 9
 344:C:/Users/stapi/OneDrive/Desktop/GD32VW553/V1_MQTT_OK/GD32VW55X_Wifi_BLE_SDK/GD32VW55x_RELEASE_V1.0.2/MSDK/cloud/alicloud/src/protocol/alcs\alcs_adapter.c ****         return FAIL_RETURN;
 1255              		.loc 1 344 9
 1256 0206 37050000 		lui	a0,%hi(.LC3)
 1257 020a 13050500 		addi	a0,a0,%lo(.LC3)
 1258 020e 97000000 		call	HAL_Printf
 1258      E7800000 
 1259              	.LVL140:
 344:C:/Users/stapi/OneDrive/Desktop/GD32VW553/V1_MQTT_OK/GD32VW55X_Wifi_BLE_SDK/GD32VW55x_RELEASE_V1.0.2/MSDK/cloud/alicloud/src/protocol/alcs\alcs_adapter.c ****         return FAIL_RETURN;
 1260              		.loc 1 344 9
 1261 0216 37050000 		lui	a0,%hi(.LC13)
 1262 021a 13050500 		addi	a0,a0,%lo(.LC13)
 1263 021e 97000000 		call	HAL_Printf
 1263      E7800000 
 1264              	.LVL141:
 344:C:/Users/stapi/OneDrive/Desktop/GD32VW553/V1_MQTT_OK/GD32VW55X_Wifi_BLE_SDK/GD32VW55x_RELEASE_V1.0.2/MSDK/cloud/alicloud/src/protocol/alcs\alcs_adapter.c ****         return FAIL_RETURN;
 1265              		.loc 1 344 9
 1266 0226 13850A00 		addi	a0,s5,%lo(.LC2)
 1267 022a 85BD     		j	.L58
 1268              	.L53:
 347:C:/Users/stapi/OneDrive/Desktop/GD32VW553/V1_MQTT_OK/GD32VW55X_Wifi_BLE_SDK/GD32VW55x_RELEASE_V1.0.2/MSDK/cloud/alicloud/src/protocol/alcs\alcs_adapter.c **** 
 1269              		.loc 1 347 5
 1270 022c CC48     		lw	a1,20(s1)
 1271 022e 2146     		li	a2,8
 1272 0230 97000000 		call	memcpy
 1272      E7800000 
 1273              	.LVL142:
 349:C:/Users/stapi/OneDrive/Desktop/GD32VW553/V1_MQTT_OK/GD32VW55X_Wifi_BLE_SDK/GD32VW55x_RELEASE_V1.0.2/MSDK/cloud/alicloud/src/protocol/alcs\alcs_adapter.c ****         iotx_alcs_adapter_deinit();
 1274              		.loc 1 349 5
 1275              	.LBB40:
 1276              	.LBB41:
 204:C:/Users/stapi/OneDrive/Desktop/GD32VW553/V1_MQTT_OK/GD32VW55X_Wifi_BLE_SDK/GD32VW55x_RELEASE_V1.0.2/MSDK/cloud/alicloud/src/protocol/alcs\alcs_adapter.c **** #ifdef DEVICE_MODEL_GATEWAY
 1277              		.loc 1 204 5
 204:C:/Users/stapi/OneDrive/Desktop/GD32VW553/V1_MQTT_OK/GD32VW55X_Wifi_BLE_SDK/GD32VW55x_RELEASE_V1.0.2/MSDK/cloud/alicloud/src/protocol/alcs\alcs_adapter.c **** #ifdef DEVICE_MODEL_GATEWAY
 1278              		.loc 1 204 20 is_stmt 0
 1279 0238 9307C401 		addi	a5,s0,28
 1280              	.LVL143:
 1281              	.LBB42:
 1282              	.LBB43:
  82:..\..\..\..\cloud\alicloud\src\infra\utils\misc/lite-list.h ****     list->prev = list;
 1283              		.loc 2 82 5 is_stmt 1
  82:..\..\..\..\cloud\alicloud\src\infra\utils\misc/lite-list.h ****     list->prev = list;
 1284              		.loc 2 82 16 is_stmt 0
 1285 023c 1CD0     		sw	a5,32(s0)
 1286              		.loc 2 83 5 is_stmt 1
 1287              		.loc 2 83 16 is_stmt 0
 1288 023e 5CCC     		sw	a5,28(s0)
 1289              	.LVL144:
 1290              	.LBE43:
 1291              	.LBE42:
 208:C:/Users/stapi/OneDrive/Desktop/GD32VW553/V1_MQTT_OK/GD32VW55X_Wifi_BLE_SDK/GD32VW55x_RELEASE_V1.0.2/MSDK/cloud/alicloud/src/protocol/alcs\alcs_adapter.c **** }
 1292              		.loc 1 208 5 is_stmt 1
 1293              	.LBE41:
 1294              	.LBE40:
 355:C:/Users/stapi/OneDrive/Desktop/GD32VW553/V1_MQTT_OK/GD32VW55X_Wifi_BLE_SDK/GD32VW55x_RELEASE_V1.0.2/MSDK/cloud/alicloud/src/protocol/alcs\alcs_adapter.c **** 
 1295              		.loc 1 355 5
 1296 0240 7418     		addi	a3,sp,60
 1297 0242 7000     		addi	a2,sp,12
 1298 0244 D285     		mv	a1,s4
 1299 0246 2285     		mv	a0,s0
 1300 0248 97000000 		call	alcs_localsetup_init
 1300      E7800000 
 1301              	.LVL145:
 357:C:/Users/stapi/OneDrive/Desktop/GD32VW553/V1_MQTT_OK/GD32VW55X_Wifi_BLE_SDK/GD32VW55x_RELEASE_V1.0.2/MSDK/cloud/alicloud/src/protocol/alcs\alcs_adapter.c **** }
 1302              		.loc 1 357 5
 357:C:/Users/stapi/OneDrive/Desktop/GD32VW553/V1_MQTT_OK/GD32VW55X_Wifi_BLE_SDK/GD32VW55x_RELEASE_V1.0.2/MSDK/cloud/alicloud/src/protocol/alcs\alcs_adapter.c **** }
 1303              		.loc 1 357 12 is_stmt 0
 1304 0250 F9B5     		j	.L45
 1305              		.cfi_endproc
 1306              	.LFE30:
 1308              		.section	.rodata.iotx_alcs_construct.str1.4,"aMS",@progbits,1
 1309              		.align	2
 1310              	.LC14:
 1311 0000 696F7478 		.string	"iotx_alcs_construct enter"
 1311      5F616C63 
 1311      735F636F 
 1311      6E737472 
 1311      75637420 
 1312 001a 0000     		.align	2
 1313              	.LC15:
 1314 001c 70617261 		.string	"params"
 1314      6D7300
 1315 0023 00       		.align	2
 1316              	.LC16:
 1317 0024 496E7661 		.string	"Invalid argument, %s = %p"
 1317      6C696420 
 1317      61726775 
 1317      6D656E74 
 1317      2C202573 
 1318 003e 0000     		.align	2
 1319              	.LC17:
 1320 0040 70617261 		.string	"params->group"
 1320      6D732D3E 
 1320      67726F75 
 1320      7000
 1321 004e 0000     		.align	2
 1322              	.LC18:
 1323 0050 496E7661 		.string	"Invalid argument, %s = '%s'"
 1323      6C696420 
 1323      61726775 
 1323      6D656E74 
 1323      2C202573 
 1324              		.align	2
 1325              	.LC19:
 1326 006c 41646170 		.string	"Adapter Init Failed"
 1326      74657220 
 1326      496E6974 
 1326      20466169 
 1326      6C656400 
 1327              		.section	.text.iotx_alcs_construct,"ax",@progbits
 1328              		.align	1
 1329              		.globl	iotx_alcs_construct
 1331              	iotx_alcs_construct:
 1332              	.LFB31:
 359:C:/Users/stapi/OneDrive/Desktop/GD32VW553/V1_MQTT_OK/GD32VW55X_Wifi_BLE_SDK/GD32VW55x_RELEASE_V1.0.2/MSDK/cloud/alicloud/src/protocol/alcs\alcs_adapter.c **** 
 360:C:/Users/stapi/OneDrive/Desktop/GD32VW553/V1_MQTT_OK/GD32VW55X_Wifi_BLE_SDK/GD32VW55x_RELEASE_V1.0.2/MSDK/cloud/alicloud/src/protocol/alcs\alcs_adapter.c **** #ifdef DEVICE_MODEL_GATEWAY
 361:C:/Users/stapi/OneDrive/Desktop/GD32VW553/V1_MQTT_OK/GD32VW55X_Wifi_BLE_SDK/GD32VW55x_RELEASE_V1.0.2/MSDK/cloud/alicloud/src/protocol/alcs\alcs_adapter.c **** static int _iotx_alcs_subdev_list_search(const char *pk, const char *dn, iotx_alcs_subdev_item_t **
 362:C:/Users/stapi/OneDrive/Desktop/GD32VW553/V1_MQTT_OK/GD32VW55X_Wifi_BLE_SDK/GD32VW55x_RELEASE_V1.0.2/MSDK/cloud/alicloud/src/protocol/alcs\alcs_adapter.c **** {
 363:C:/Users/stapi/OneDrive/Desktop/GD32VW553/V1_MQTT_OK/GD32VW55X_Wifi_BLE_SDK/GD32VW55x_RELEASE_V1.0.2/MSDK/cloud/alicloud/src/protocol/alcs\alcs_adapter.c ****     iotx_alcs_adapter_t *adapter = __iotx_alcs_get_ctx();
 364:C:/Users/stapi/OneDrive/Desktop/GD32VW553/V1_MQTT_OK/GD32VW55X_Wifi_BLE_SDK/GD32VW55x_RELEASE_V1.0.2/MSDK/cloud/alicloud/src/protocol/alcs\alcs_adapter.c ****     iotx_alcs_subdev_item_t *node = NULL;
 365:C:/Users/stapi/OneDrive/Desktop/GD32VW553/V1_MQTT_OK/GD32VW55X_Wifi_BLE_SDK/GD32VW55x_RELEASE_V1.0.2/MSDK/cloud/alicloud/src/protocol/alcs\alcs_adapter.c **** 
 366:C:/Users/stapi/OneDrive/Desktop/GD32VW553/V1_MQTT_OK/GD32VW55X_Wifi_BLE_SDK/GD32VW55x_RELEASE_V1.0.2/MSDK/cloud/alicloud/src/protocol/alcs\alcs_adapter.c ****     if (pk == NULL || dn == NULL) {
 367:C:/Users/stapi/OneDrive/Desktop/GD32VW553/V1_MQTT_OK/GD32VW55X_Wifi_BLE_SDK/GD32VW55x_RELEASE_V1.0.2/MSDK/cloud/alicloud/src/protocol/alcs\alcs_adapter.c ****         COAP_ERR("Invalid Parameter");
 368:C:/Users/stapi/OneDrive/Desktop/GD32VW553/V1_MQTT_OK/GD32VW55X_Wifi_BLE_SDK/GD32VW55x_RELEASE_V1.0.2/MSDK/cloud/alicloud/src/protocol/alcs\alcs_adapter.c ****         return FAIL_RETURN;
 369:C:/Users/stapi/OneDrive/Desktop/GD32VW553/V1_MQTT_OK/GD32VW55X_Wifi_BLE_SDK/GD32VW55x_RELEASE_V1.0.2/MSDK/cloud/alicloud/src/protocol/alcs\alcs_adapter.c ****     }
 370:C:/Users/stapi/OneDrive/Desktop/GD32VW553/V1_MQTT_OK/GD32VW55X_Wifi_BLE_SDK/GD32VW55x_RELEASE_V1.0.2/MSDK/cloud/alicloud/src/protocol/alcs\alcs_adapter.c **** 
 371:C:/Users/stapi/OneDrive/Desktop/GD32VW553/V1_MQTT_OK/GD32VW55X_Wifi_BLE_SDK/GD32VW55x_RELEASE_V1.0.2/MSDK/cloud/alicloud/src/protocol/alcs\alcs_adapter.c ****     list_for_each_entry(node, &adapter->alcs_subdev_list, linked_list, iotx_alcs_subdev_item_t) {
 372:C:/Users/stapi/OneDrive/Desktop/GD32VW553/V1_MQTT_OK/GD32VW55X_Wifi_BLE_SDK/GD32VW55x_RELEASE_V1.0.2/MSDK/cloud/alicloud/src/protocol/alcs\alcs_adapter.c ****         if (strlen(node->product_key) == strlen(pk) &&
 373:C:/Users/stapi/OneDrive/Desktop/GD32VW553/V1_MQTT_OK/GD32VW55X_Wifi_BLE_SDK/GD32VW55x_RELEASE_V1.0.2/MSDK/cloud/alicloud/src/protocol/alcs\alcs_adapter.c ****             memcmp(node->product_key, pk, strlen(pk)) == 0 &&
 374:C:/Users/stapi/OneDrive/Desktop/GD32VW553/V1_MQTT_OK/GD32VW55X_Wifi_BLE_SDK/GD32VW55x_RELEASE_V1.0.2/MSDK/cloud/alicloud/src/protocol/alcs\alcs_adapter.c ****             strlen(node->device_name) == strlen(dn) &&
 375:C:/Users/stapi/OneDrive/Desktop/GD32VW553/V1_MQTT_OK/GD32VW55X_Wifi_BLE_SDK/GD32VW55x_RELEASE_V1.0.2/MSDK/cloud/alicloud/src/protocol/alcs\alcs_adapter.c ****             memcmp(node->device_name, dn, strlen(dn)) == 0) {
 376:C:/Users/stapi/OneDrive/Desktop/GD32VW553/V1_MQTT_OK/GD32VW55X_Wifi_BLE_SDK/GD32VW55x_RELEASE_V1.0.2/MSDK/cloud/alicloud/src/protocol/alcs\alcs_adapter.c ****             *subdev_item = node;
 377:C:/Users/stapi/OneDrive/Desktop/GD32VW553/V1_MQTT_OK/GD32VW55X_Wifi_BLE_SDK/GD32VW55x_RELEASE_V1.0.2/MSDK/cloud/alicloud/src/protocol/alcs\alcs_adapter.c ****             return SUCCESS_RETURN;
 378:C:/Users/stapi/OneDrive/Desktop/GD32VW553/V1_MQTT_OK/GD32VW55X_Wifi_BLE_SDK/GD32VW55x_RELEASE_V1.0.2/MSDK/cloud/alicloud/src/protocol/alcs\alcs_adapter.c ****         }
 379:C:/Users/stapi/OneDrive/Desktop/GD32VW553/V1_MQTT_OK/GD32VW55X_Wifi_BLE_SDK/GD32VW55x_RELEASE_V1.0.2/MSDK/cloud/alicloud/src/protocol/alcs\alcs_adapter.c ****     }
 380:C:/Users/stapi/OneDrive/Desktop/GD32VW553/V1_MQTT_OK/GD32VW55X_Wifi_BLE_SDK/GD32VW55x_RELEASE_V1.0.2/MSDK/cloud/alicloud/src/protocol/alcs\alcs_adapter.c **** 
 381:C:/Users/stapi/OneDrive/Desktop/GD32VW553/V1_MQTT_OK/GD32VW55X_Wifi_BLE_SDK/GD32VW55x_RELEASE_V1.0.2/MSDK/cloud/alicloud/src/protocol/alcs\alcs_adapter.c ****     return FAIL_RETURN;
 382:C:/Users/stapi/OneDrive/Desktop/GD32VW553/V1_MQTT_OK/GD32VW55X_Wifi_BLE_SDK/GD32VW55x_RELEASE_V1.0.2/MSDK/cloud/alicloud/src/protocol/alcs\alcs_adapter.c **** }
 383:C:/Users/stapi/OneDrive/Desktop/GD32VW553/V1_MQTT_OK/GD32VW55X_Wifi_BLE_SDK/GD32VW55x_RELEASE_V1.0.2/MSDK/cloud/alicloud/src/protocol/alcs\alcs_adapter.c **** 
 384:C:/Users/stapi/OneDrive/Desktop/GD32VW553/V1_MQTT_OK/GD32VW55X_Wifi_BLE_SDK/GD32VW55x_RELEASE_V1.0.2/MSDK/cloud/alicloud/src/protocol/alcs\alcs_adapter.c **** int iotx_alcs_subdev_remove(const char *pk, const char *dn)
 385:C:/Users/stapi/OneDrive/Desktop/GD32VW553/V1_MQTT_OK/GD32VW55X_Wifi_BLE_SDK/GD32VW55x_RELEASE_V1.0.2/MSDK/cloud/alicloud/src/protocol/alcs\alcs_adapter.c **** {
 386:C:/Users/stapi/OneDrive/Desktop/GD32VW553/V1_MQTT_OK/GD32VW55X_Wifi_BLE_SDK/GD32VW55x_RELEASE_V1.0.2/MSDK/cloud/alicloud/src/protocol/alcs\alcs_adapter.c ****     int res = 0;
 387:C:/Users/stapi/OneDrive/Desktop/GD32VW553/V1_MQTT_OK/GD32VW55X_Wifi_BLE_SDK/GD32VW55x_RELEASE_V1.0.2/MSDK/cloud/alicloud/src/protocol/alcs\alcs_adapter.c ****     iotx_alcs_adapter_t *adapter = __iotx_alcs_get_ctx();
 388:C:/Users/stapi/OneDrive/Desktop/GD32VW553/V1_MQTT_OK/GD32VW55X_Wifi_BLE_SDK/GD32VW55x_RELEASE_V1.0.2/MSDK/cloud/alicloud/src/protocol/alcs\alcs_adapter.c ****     iotx_alcs_subdev_item_t *subdev_item = NULL;
 389:C:/Users/stapi/OneDrive/Desktop/GD32VW553/V1_MQTT_OK/GD32VW55X_Wifi_BLE_SDK/GD32VW55x_RELEASE_V1.0.2/MSDK/cloud/alicloud/src/protocol/alcs\alcs_adapter.c **** 
 390:C:/Users/stapi/OneDrive/Desktop/GD32VW553/V1_MQTT_OK/GD32VW55X_Wifi_BLE_SDK/GD32VW55x_RELEASE_V1.0.2/MSDK/cloud/alicloud/src/protocol/alcs\alcs_adapter.c ****     if (pk == NULL || dn == NULL) {
 391:C:/Users/stapi/OneDrive/Desktop/GD32VW553/V1_MQTT_OK/GD32VW55X_Wifi_BLE_SDK/GD32VW55x_RELEASE_V1.0.2/MSDK/cloud/alicloud/src/protocol/alcs\alcs_adapter.c ****         COAP_ERR("Invalid Parameter");
 392:C:/Users/stapi/OneDrive/Desktop/GD32VW553/V1_MQTT_OK/GD32VW55X_Wifi_BLE_SDK/GD32VW55x_RELEASE_V1.0.2/MSDK/cloud/alicloud/src/protocol/alcs\alcs_adapter.c ****         return FAIL_RETURN;
 393:C:/Users/stapi/OneDrive/Desktop/GD32VW553/V1_MQTT_OK/GD32VW55X_Wifi_BLE_SDK/GD32VW55x_RELEASE_V1.0.2/MSDK/cloud/alicloud/src/protocol/alcs\alcs_adapter.c ****     }
 394:C:/Users/stapi/OneDrive/Desktop/GD32VW553/V1_MQTT_OK/GD32VW55X_Wifi_BLE_SDK/GD32VW55x_RELEASE_V1.0.2/MSDK/cloud/alicloud/src/protocol/alcs\alcs_adapter.c **** 
 395:C:/Users/stapi/OneDrive/Desktop/GD32VW553/V1_MQTT_OK/GD32VW55X_Wifi_BLE_SDK/GD32VW55x_RELEASE_V1.0.2/MSDK/cloud/alicloud/src/protocol/alcs\alcs_adapter.c ****     HAL_MutexLock(adapter->mutex);
 396:C:/Users/stapi/OneDrive/Desktop/GD32VW553/V1_MQTT_OK/GD32VW55X_Wifi_BLE_SDK/GD32VW55x_RELEASE_V1.0.2/MSDK/cloud/alicloud/src/protocol/alcs\alcs_adapter.c **** 
 397:C:/Users/stapi/OneDrive/Desktop/GD32VW553/V1_MQTT_OK/GD32VW55X_Wifi_BLE_SDK/GD32VW55x_RELEASE_V1.0.2/MSDK/cloud/alicloud/src/protocol/alcs\alcs_adapter.c ****     list_for_each_entry(subdev_item, &adapter->alcs_subdev_list, linked_list, iotx_alcs_subdev_item
 398:C:/Users/stapi/OneDrive/Desktop/GD32VW553/V1_MQTT_OK/GD32VW55X_Wifi_BLE_SDK/GD32VW55x_RELEASE_V1.0.2/MSDK/cloud/alicloud/src/protocol/alcs\alcs_adapter.c ****         if (strlen(subdev_item->product_key) == strlen(pk) &&
 399:C:/Users/stapi/OneDrive/Desktop/GD32VW553/V1_MQTT_OK/GD32VW55X_Wifi_BLE_SDK/GD32VW55x_RELEASE_V1.0.2/MSDK/cloud/alicloud/src/protocol/alcs\alcs_adapter.c ****             memcmp(subdev_item->product_key, pk, strlen(pk)) == 0 &&
 400:C:/Users/stapi/OneDrive/Desktop/GD32VW553/V1_MQTT_OK/GD32VW55X_Wifi_BLE_SDK/GD32VW55x_RELEASE_V1.0.2/MSDK/cloud/alicloud/src/protocol/alcs\alcs_adapter.c ****             strlen(subdev_item->device_name) == strlen(dn) &&
 401:C:/Users/stapi/OneDrive/Desktop/GD32VW553/V1_MQTT_OK/GD32VW55X_Wifi_BLE_SDK/GD32VW55x_RELEASE_V1.0.2/MSDK/cloud/alicloud/src/protocol/alcs\alcs_adapter.c ****             memcmp(subdev_item->device_name, dn, strlen(dn)) == 0) {
 402:C:/Users/stapi/OneDrive/Desktop/GD32VW553/V1_MQTT_OK/GD32VW55X_Wifi_BLE_SDK/GD32VW55x_RELEASE_V1.0.2/MSDK/cloud/alicloud/src/protocol/alcs\alcs_adapter.c ****                 char prefix[ALCS_MQTT_PREFIX_MAX_LEN] = {0};
 403:C:/Users/stapi/OneDrive/Desktop/GD32VW553/V1_MQTT_OK/GD32VW55X_Wifi_BLE_SDK/GD32VW55x_RELEASE_V1.0.2/MSDK/cloud/alicloud/src/protocol/alcs\alcs_adapter.c ****                 char secret[ALCS_MQTT_SECRET_MAX_LEN] = {0};
 404:C:/Users/stapi/OneDrive/Desktop/GD32VW553/V1_MQTT_OK/GD32VW55X_Wifi_BLE_SDK/GD32VW55x_RELEASE_V1.0.2/MSDK/cloud/alicloud/src/protocol/alcs\alcs_adapter.c ****                 alcs_mqtt_prefix_secret_load(pk, strlen(pk), dn, strlen(dn), prefix, secret);
 405:C:/Users/stapi/OneDrive/Desktop/GD32VW553/V1_MQTT_OK/GD32VW55X_Wifi_BLE_SDK/GD32VW55x_RELEASE_V1.0.2/MSDK/cloud/alicloud/src/protocol/alcs\alcs_adapter.c ****                 alcs_mqtt_remove_srv_key(prefix);
 406:C:/Users/stapi/OneDrive/Desktop/GD32VW553/V1_MQTT_OK/GD32VW55X_Wifi_BLE_SDK/GD32VW55x_RELEASE_V1.0.2/MSDK/cloud/alicloud/src/protocol/alcs\alcs_adapter.c ****                 list_del(&subdev_item->linked_list);
 407:C:/Users/stapi/OneDrive/Desktop/GD32VW553/V1_MQTT_OK/GD32VW55X_Wifi_BLE_SDK/GD32VW55x_RELEASE_V1.0.2/MSDK/cloud/alicloud/src/protocol/alcs\alcs_adapter.c ****                 LITE_free(subdev_item);
 408:C:/Users/stapi/OneDrive/Desktop/GD32VW553/V1_MQTT_OK/GD32VW55X_Wifi_BLE_SDK/GD32VW55x_RELEASE_V1.0.2/MSDK/cloud/alicloud/src/protocol/alcs\alcs_adapter.c ****         }
 409:C:/Users/stapi/OneDrive/Desktop/GD32VW553/V1_MQTT_OK/GD32VW55X_Wifi_BLE_SDK/GD32VW55x_RELEASE_V1.0.2/MSDK/cloud/alicloud/src/protocol/alcs\alcs_adapter.c ****     }
 410:C:/Users/stapi/OneDrive/Desktop/GD32VW553/V1_MQTT_OK/GD32VW55X_Wifi_BLE_SDK/GD32VW55x_RELEASE_V1.0.2/MSDK/cloud/alicloud/src/protocol/alcs\alcs_adapter.c ****     HAL_MutexUnlock(adapter->mutex);
 411:C:/Users/stapi/OneDrive/Desktop/GD32VW553/V1_MQTT_OK/GD32VW55X_Wifi_BLE_SDK/GD32VW55x_RELEASE_V1.0.2/MSDK/cloud/alicloud/src/protocol/alcs\alcs_adapter.c **** 
 412:C:/Users/stapi/OneDrive/Desktop/GD32VW553/V1_MQTT_OK/GD32VW55X_Wifi_BLE_SDK/GD32VW55x_RELEASE_V1.0.2/MSDK/cloud/alicloud/src/protocol/alcs\alcs_adapter.c ****     return SUCCESS_RETURN;
 413:C:/Users/stapi/OneDrive/Desktop/GD32VW553/V1_MQTT_OK/GD32VW55X_Wifi_BLE_SDK/GD32VW55x_RELEASE_V1.0.2/MSDK/cloud/alicloud/src/protocol/alcs\alcs_adapter.c **** }
 414:C:/Users/stapi/OneDrive/Desktop/GD32VW553/V1_MQTT_OK/GD32VW55X_Wifi_BLE_SDK/GD32VW55x_RELEASE_V1.0.2/MSDK/cloud/alicloud/src/protocol/alcs\alcs_adapter.c **** 
 415:C:/Users/stapi/OneDrive/Desktop/GD32VW553/V1_MQTT_OK/GD32VW55X_Wifi_BLE_SDK/GD32VW55x_RELEASE_V1.0.2/MSDK/cloud/alicloud/src/protocol/alcs\alcs_adapter.c **** int iotx_alcs_subdev_update_stage(iotx_alcs_subdev_item_t *item)
 416:C:/Users/stapi/OneDrive/Desktop/GD32VW553/V1_MQTT_OK/GD32VW55X_Wifi_BLE_SDK/GD32VW55x_RELEASE_V1.0.2/MSDK/cloud/alicloud/src/protocol/alcs\alcs_adapter.c **** {
 417:C:/Users/stapi/OneDrive/Desktop/GD32VW553/V1_MQTT_OK/GD32VW55X_Wifi_BLE_SDK/GD32VW55x_RELEASE_V1.0.2/MSDK/cloud/alicloud/src/protocol/alcs\alcs_adapter.c ****     int res = 0;
 418:C:/Users/stapi/OneDrive/Desktop/GD32VW553/V1_MQTT_OK/GD32VW55X_Wifi_BLE_SDK/GD32VW55x_RELEASE_V1.0.2/MSDK/cloud/alicloud/src/protocol/alcs\alcs_adapter.c ****     iotx_alcs_adapter_t *adapter = __iotx_alcs_get_ctx();
 419:C:/Users/stapi/OneDrive/Desktop/GD32VW553/V1_MQTT_OK/GD32VW55X_Wifi_BLE_SDK/GD32VW55x_RELEASE_V1.0.2/MSDK/cloud/alicloud/src/protocol/alcs\alcs_adapter.c ****     iotx_alcs_subdev_item_t *subdev_item = NULL;
 420:C:/Users/stapi/OneDrive/Desktop/GD32VW553/V1_MQTT_OK/GD32VW55X_Wifi_BLE_SDK/GD32VW55x_RELEASE_V1.0.2/MSDK/cloud/alicloud/src/protocol/alcs\alcs_adapter.c **** 
 421:C:/Users/stapi/OneDrive/Desktop/GD32VW553/V1_MQTT_OK/GD32VW55X_Wifi_BLE_SDK/GD32VW55x_RELEASE_V1.0.2/MSDK/cloud/alicloud/src/protocol/alcs\alcs_adapter.c ****     if (item == NULL) {
 422:C:/Users/stapi/OneDrive/Desktop/GD32VW553/V1_MQTT_OK/GD32VW55X_Wifi_BLE_SDK/GD32VW55x_RELEASE_V1.0.2/MSDK/cloud/alicloud/src/protocol/alcs\alcs_adapter.c ****         COAP_ERR("Invalid Parameter");
 423:C:/Users/stapi/OneDrive/Desktop/GD32VW553/V1_MQTT_OK/GD32VW55X_Wifi_BLE_SDK/GD32VW55x_RELEASE_V1.0.2/MSDK/cloud/alicloud/src/protocol/alcs\alcs_adapter.c ****         return FAIL_RETURN;
 424:C:/Users/stapi/OneDrive/Desktop/GD32VW553/V1_MQTT_OK/GD32VW55X_Wifi_BLE_SDK/GD32VW55x_RELEASE_V1.0.2/MSDK/cloud/alicloud/src/protocol/alcs\alcs_adapter.c ****     }
 425:C:/Users/stapi/OneDrive/Desktop/GD32VW553/V1_MQTT_OK/GD32VW55X_Wifi_BLE_SDK/GD32VW55x_RELEASE_V1.0.2/MSDK/cloud/alicloud/src/protocol/alcs\alcs_adapter.c **** 
 426:C:/Users/stapi/OneDrive/Desktop/GD32VW553/V1_MQTT_OK/GD32VW55X_Wifi_BLE_SDK/GD32VW55x_RELEASE_V1.0.2/MSDK/cloud/alicloud/src/protocol/alcs\alcs_adapter.c ****     HAL_MutexLock(adapter->mutex);
 427:C:/Users/stapi/OneDrive/Desktop/GD32VW553/V1_MQTT_OK/GD32VW55X_Wifi_BLE_SDK/GD32VW55x_RELEASE_V1.0.2/MSDK/cloud/alicloud/src/protocol/alcs\alcs_adapter.c ****     res = _iotx_alcs_subdev_list_search(item->product_key, item->device_name, &subdev_item);
 428:C:/Users/stapi/OneDrive/Desktop/GD32VW553/V1_MQTT_OK/GD32VW55X_Wifi_BLE_SDK/GD32VW55x_RELEASE_V1.0.2/MSDK/cloud/alicloud/src/protocol/alcs\alcs_adapter.c **** 
 429:C:/Users/stapi/OneDrive/Desktop/GD32VW553/V1_MQTT_OK/GD32VW55X_Wifi_BLE_SDK/GD32VW55x_RELEASE_V1.0.2/MSDK/cloud/alicloud/src/protocol/alcs\alcs_adapter.c ****     if (res < SUCCESS_RETURN) {
 430:C:/Users/stapi/OneDrive/Desktop/GD32VW553/V1_MQTT_OK/GD32VW55X_Wifi_BLE_SDK/GD32VW55x_RELEASE_V1.0.2/MSDK/cloud/alicloud/src/protocol/alcs\alcs_adapter.c ****         COAP_WRN("No Matched Item");
 431:C:/Users/stapi/OneDrive/Desktop/GD32VW553/V1_MQTT_OK/GD32VW55X_Wifi_BLE_SDK/GD32VW55x_RELEASE_V1.0.2/MSDK/cloud/alicloud/src/protocol/alcs\alcs_adapter.c ****         HAL_MutexUnlock(adapter->mutex);
 432:C:/Users/stapi/OneDrive/Desktop/GD32VW553/V1_MQTT_OK/GD32VW55X_Wifi_BLE_SDK/GD32VW55x_RELEASE_V1.0.2/MSDK/cloud/alicloud/src/protocol/alcs\alcs_adapter.c ****         return FAIL_RETURN;
 433:C:/Users/stapi/OneDrive/Desktop/GD32VW553/V1_MQTT_OK/GD32VW55X_Wifi_BLE_SDK/GD32VW55x_RELEASE_V1.0.2/MSDK/cloud/alicloud/src/protocol/alcs\alcs_adapter.c ****     }
 434:C:/Users/stapi/OneDrive/Desktop/GD32VW553/V1_MQTT_OK/GD32VW55X_Wifi_BLE_SDK/GD32VW55x_RELEASE_V1.0.2/MSDK/cloud/alicloud/src/protocol/alcs\alcs_adapter.c **** 
 435:C:/Users/stapi/OneDrive/Desktop/GD32VW553/V1_MQTT_OK/GD32VW55X_Wifi_BLE_SDK/GD32VW55x_RELEASE_V1.0.2/MSDK/cloud/alicloud/src/protocol/alcs\alcs_adapter.c ****     subdev_item->stage = item->stage;
 436:C:/Users/stapi/OneDrive/Desktop/GD32VW553/V1_MQTT_OK/GD32VW55X_Wifi_BLE_SDK/GD32VW55x_RELEASE_V1.0.2/MSDK/cloud/alicloud/src/protocol/alcs\alcs_adapter.c **** 
 437:C:/Users/stapi/OneDrive/Desktop/GD32VW553/V1_MQTT_OK/GD32VW55X_Wifi_BLE_SDK/GD32VW55x_RELEASE_V1.0.2/MSDK/cloud/alicloud/src/protocol/alcs\alcs_adapter.c ****     HAL_MutexUnlock(adapter->mutex);
 438:C:/Users/stapi/OneDrive/Desktop/GD32VW553/V1_MQTT_OK/GD32VW55X_Wifi_BLE_SDK/GD32VW55x_RELEASE_V1.0.2/MSDK/cloud/alicloud/src/protocol/alcs\alcs_adapter.c ****     return SUCCESS_RETURN;
 439:C:/Users/stapi/OneDrive/Desktop/GD32VW553/V1_MQTT_OK/GD32VW55X_Wifi_BLE_SDK/GD32VW55x_RELEASE_V1.0.2/MSDK/cloud/alicloud/src/protocol/alcs\alcs_adapter.c **** }
 440:C:/Users/stapi/OneDrive/Desktop/GD32VW553/V1_MQTT_OK/GD32VW55X_Wifi_BLE_SDK/GD32VW55x_RELEASE_V1.0.2/MSDK/cloud/alicloud/src/protocol/alcs\alcs_adapter.c **** 
 441:C:/Users/stapi/OneDrive/Desktop/GD32VW553/V1_MQTT_OK/GD32VW55X_Wifi_BLE_SDK/GD32VW55x_RELEASE_V1.0.2/MSDK/cloud/alicloud/src/protocol/alcs\alcs_adapter.c **** void iotx_alcs_subdev_stage_check(void)
 442:C:/Users/stapi/OneDrive/Desktop/GD32VW553/V1_MQTT_OK/GD32VW55X_Wifi_BLE_SDK/GD32VW55x_RELEASE_V1.0.2/MSDK/cloud/alicloud/src/protocol/alcs\alcs_adapter.c **** {
 443:C:/Users/stapi/OneDrive/Desktop/GD32VW553/V1_MQTT_OK/GD32VW55X_Wifi_BLE_SDK/GD32VW55x_RELEASE_V1.0.2/MSDK/cloud/alicloud/src/protocol/alcs\alcs_adapter.c ****     iotx_alcs_adapter_t *adapter = __iotx_alcs_get_ctx();
 444:C:/Users/stapi/OneDrive/Desktop/GD32VW553/V1_MQTT_OK/GD32VW55X_Wifi_BLE_SDK/GD32VW55x_RELEASE_V1.0.2/MSDK/cloud/alicloud/src/protocol/alcs\alcs_adapter.c ****     iotx_alcs_subdev_item_t *node = NULL;
 445:C:/Users/stapi/OneDrive/Desktop/GD32VW553/V1_MQTT_OK/GD32VW55X_Wifi_BLE_SDK/GD32VW55x_RELEASE_V1.0.2/MSDK/cloud/alicloud/src/protocol/alcs\alcs_adapter.c ****     uint64_t time_now = HAL_UptimeMs();
 446:C:/Users/stapi/OneDrive/Desktop/GD32VW553/V1_MQTT_OK/GD32VW55X_Wifi_BLE_SDK/GD32VW55x_RELEASE_V1.0.2/MSDK/cloud/alicloud/src/protocol/alcs\alcs_adapter.c **** 
 447:C:/Users/stapi/OneDrive/Desktop/GD32VW553/V1_MQTT_OK/GD32VW55X_Wifi_BLE_SDK/GD32VW55x_RELEASE_V1.0.2/MSDK/cloud/alicloud/src/protocol/alcs\alcs_adapter.c ****     HAL_MutexLock(adapter->mutex);
 448:C:/Users/stapi/OneDrive/Desktop/GD32VW553/V1_MQTT_OK/GD32VW55X_Wifi_BLE_SDK/GD32VW55x_RELEASE_V1.0.2/MSDK/cloud/alicloud/src/protocol/alcs\alcs_adapter.c ****     list_for_each_entry(node, &adapter->alcs_subdev_list, linked_list, iotx_alcs_subdev_item_t) {
 449:C:/Users/stapi/OneDrive/Desktop/GD32VW553/V1_MQTT_OK/GD32VW55X_Wifi_BLE_SDK/GD32VW55x_RELEASE_V1.0.2/MSDK/cloud/alicloud/src/protocol/alcs\alcs_adapter.c ****         if (node->stage == IOTX_ALCS_SUBDEV_DISCONNCET_CLOUD) {
 450:C:/Users/stapi/OneDrive/Desktop/GD32VW553/V1_MQTT_OK/GD32VW55X_Wifi_BLE_SDK/GD32VW55x_RELEASE_V1.0.2/MSDK/cloud/alicloud/src/protocol/alcs\alcs_adapter.c ****             if (((time_now > node->retry_ms) &&
 451:C:/Users/stapi/OneDrive/Desktop/GD32VW553/V1_MQTT_OK/GD32VW55X_Wifi_BLE_SDK/GD32VW55x_RELEASE_V1.0.2/MSDK/cloud/alicloud/src/protocol/alcs\alcs_adapter.c ****                  (time_now - node->retry_ms >= IOTX_ALCS_SUBDEV_RETRY_INTERVAL_MS)) ||
 452:C:/Users/stapi/OneDrive/Desktop/GD32VW553/V1_MQTT_OK/GD32VW55X_Wifi_BLE_SDK/GD32VW55x_RELEASE_V1.0.2/MSDK/cloud/alicloud/src/protocol/alcs\alcs_adapter.c ****                 ((time_now <= node->retry_ms) &&
 453:C:/Users/stapi/OneDrive/Desktop/GD32VW553/V1_MQTT_OK/GD32VW55X_Wifi_BLE_SDK/GD32VW55x_RELEASE_V1.0.2/MSDK/cloud/alicloud/src/protocol/alcs\alcs_adapter.c ****                  ((0xFFFFFFFFFFFFFFFF - node->retry_ms) + time_now >= IOTX_ALCS_SUBDEV_RETRY_INTERV
 454:C:/Users/stapi/OneDrive/Desktop/GD32VW553/V1_MQTT_OK/GD32VW55X_Wifi_BLE_SDK/GD32VW55x_RELEASE_V1.0.2/MSDK/cloud/alicloud/src/protocol/alcs\alcs_adapter.c ****                 //Get Prefix And Secret From Cloud
 455:C:/Users/stapi/OneDrive/Desktop/GD32VW553/V1_MQTT_OK/GD32VW55X_Wifi_BLE_SDK/GD32VW55x_RELEASE_V1.0.2/MSDK/cloud/alicloud/src/protocol/alcs\alcs_adapter.c ****                 alcs_mqtt_subdev_prefix_get(node->product_key, node->device_name);
 456:C:/Users/stapi/OneDrive/Desktop/GD32VW553/V1_MQTT_OK/GD32VW55X_Wifi_BLE_SDK/GD32VW55x_RELEASE_V1.0.2/MSDK/cloud/alicloud/src/protocol/alcs\alcs_adapter.c ****                 node->retry_ms = time_now;
 457:C:/Users/stapi/OneDrive/Desktop/GD32VW553/V1_MQTT_OK/GD32VW55X_Wifi_BLE_SDK/GD32VW55x_RELEASE_V1.0.2/MSDK/cloud/alicloud/src/protocol/alcs\alcs_adapter.c ****             }
 458:C:/Users/stapi/OneDrive/Desktop/GD32VW553/V1_MQTT_OK/GD32VW55X_Wifi_BLE_SDK/GD32VW55x_RELEASE_V1.0.2/MSDK/cloud/alicloud/src/protocol/alcs\alcs_adapter.c ****         }
 459:C:/Users/stapi/OneDrive/Desktop/GD32VW553/V1_MQTT_OK/GD32VW55X_Wifi_BLE_SDK/GD32VW55x_RELEASE_V1.0.2/MSDK/cloud/alicloud/src/protocol/alcs\alcs_adapter.c ****     }
 460:C:/Users/stapi/OneDrive/Desktop/GD32VW553/V1_MQTT_OK/GD32VW55X_Wifi_BLE_SDK/GD32VW55x_RELEASE_V1.0.2/MSDK/cloud/alicloud/src/protocol/alcs\alcs_adapter.c ****     HAL_MutexUnlock(adapter->mutex);
 461:C:/Users/stapi/OneDrive/Desktop/GD32VW553/V1_MQTT_OK/GD32VW55X_Wifi_BLE_SDK/GD32VW55x_RELEASE_V1.0.2/MSDK/cloud/alicloud/src/protocol/alcs\alcs_adapter.c **** }
 462:C:/Users/stapi/OneDrive/Desktop/GD32VW553/V1_MQTT_OK/GD32VW55X_Wifi_BLE_SDK/GD32VW55x_RELEASE_V1.0.2/MSDK/cloud/alicloud/src/protocol/alcs\alcs_adapter.c **** #endif
 463:C:/Users/stapi/OneDrive/Desktop/GD32VW553/V1_MQTT_OK/GD32VW55X_Wifi_BLE_SDK/GD32VW55x_RELEASE_V1.0.2/MSDK/cloud/alicloud/src/protocol/alcs\alcs_adapter.c **** void *iotx_alcs_construct(iotx_alcs_param_t *params)
 464:C:/Users/stapi/OneDrive/Desktop/GD32VW553/V1_MQTT_OK/GD32VW55X_Wifi_BLE_SDK/GD32VW55x_RELEASE_V1.0.2/MSDK/cloud/alicloud/src/protocol/alcs\alcs_adapter.c **** {
 1333              		.loc 1 464 1 is_stmt 1
 1334              		.cfi_startproc
 1335              	.LVL146:
 1336 0000 17030000 		call	t0,__riscv_save_3
 1336      E7020300 
 1337              		.cfi_offset 18, -16
 1338              		.cfi_offset 9, -12
 1339              		.cfi_offset 8, -8
 1340              		.cfi_offset 1, -4
 1341              		.cfi_def_cfa_offset 16
 465:C:/Users/stapi/OneDrive/Desktop/GD32VW553/V1_MQTT_OK/GD32VW55X_Wifi_BLE_SDK/GD32VW55x_RELEASE_V1.0.2/MSDK/cloud/alicloud/src/protocol/alcs\alcs_adapter.c ****     COAP_INFO("iotx_alcs_construct enter");
 1342              		.loc 1 465 5
 1343              		.loc 1 465 5
 464:C:/Users/stapi/OneDrive/Desktop/GD32VW553/V1_MQTT_OK/GD32VW55X_Wifi_BLE_SDK/GD32VW55x_RELEASE_V1.0.2/MSDK/cloud/alicloud/src/protocol/alcs\alcs_adapter.c ****     COAP_INFO("iotx_alcs_construct enter");
 1344              		.loc 1 464 1 is_stmt 0
 1345 0008 AA84     		mv	s1,a0
 1346              		.loc 1 465 5
 1347 000a 37050000 		lui	a0,%hi(.LC0)
 1348              	.LVL147:
 1349 000e 13050500 		addi	a0,a0,%lo(.LC0)
 1350 0012 97000000 		call	HAL_Printf
 1350      E7800000 
 1351              	.LVL148:
 1352              		.loc 1 465 5 is_stmt 1
 1353 001a 37050000 		lui	a0,%hi(.LC14)
 1354 001e 13050500 		addi	a0,a0,%lo(.LC14)
 1355 0022 97000000 		call	HAL_Printf
 1355      E7800000 
 1356              	.LVL149:
 1357              		.loc 1 465 5
 1358 002a 37090000 		lui	s2,%hi(.LC2)
 1359 002e 13050900 		addi	a0,s2,%lo(.LC2)
 1360 0032 97000000 		call	HAL_Printf
 1360      E7800000 
 1361              	.LVL150:
 1362              		.loc 1 465 5
 466:C:/Users/stapi/OneDrive/Desktop/GD32VW553/V1_MQTT_OK/GD32VW55X_Wifi_BLE_SDK/GD32VW55x_RELEASE_V1.0.2/MSDK/cloud/alicloud/src/protocol/alcs\alcs_adapter.c **** 
 467:C:/Users/stapi/OneDrive/Desktop/GD32VW553/V1_MQTT_OK/GD32VW55X_Wifi_BLE_SDK/GD32VW55x_RELEASE_V1.0.2/MSDK/cloud/alicloud/src/protocol/alcs\alcs_adapter.c ****     int res = 0;
 1363              		.loc 1 467 5
 468:C:/Users/stapi/OneDrive/Desktop/GD32VW553/V1_MQTT_OK/GD32VW55X_Wifi_BLE_SDK/GD32VW55x_RELEASE_V1.0.2/MSDK/cloud/alicloud/src/protocol/alcs\alcs_adapter.c ****     iotx_alcs_adapter_t *adapter = __iotx_alcs_get_ctx();
 1364              		.loc 1 468 5
  31:C:/Users/stapi/OneDrive/Desktop/GD32VW553/V1_MQTT_OK/GD32VW55X_Wifi_BLE_SDK/GD32VW55x_RELEASE_V1.0.2/MSDK/cloud/alicloud/src/protocol/alcs\alcs_adapter.c **** }
 1365              		.loc 1 31 5
 469:C:/Users/stapi/OneDrive/Desktop/GD32VW553/V1_MQTT_OK/GD32VW55X_Wifi_BLE_SDK/GD32VW55x_RELEASE_V1.0.2/MSDK/cloud/alicloud/src/protocol/alcs\alcs_adapter.c **** 
 470:C:/Users/stapi/OneDrive/Desktop/GD32VW553/V1_MQTT_OK/GD32VW55X_Wifi_BLE_SDK/GD32VW55x_RELEASE_V1.0.2/MSDK/cloud/alicloud/src/protocol/alcs\alcs_adapter.c ****     POINTER_SANITY_CHECK(params, NULL);
 1366              		.loc 1 470 5
 1367              		.loc 1 470 5
 1368 003a 95EC     		bne	s1,zero,.L62
 1369              		.loc 1 470 5 discriminator 1
 1370              		.loc 1 470 5 discriminator 1
 1371 003c 37050000 		lui	a0,%hi(.LC3)
 1372 0040 13050500 		addi	a0,a0,%lo(.LC3)
 1373 0044 97000000 		call	HAL_Printf
 1373      E7800000 
 1374              	.LVL151:
 1375              		.loc 1 470 5 discriminator 1
 1376 004c B7050000 		lui	a1,%hi(.LC15)
 1377 0050 37050000 		lui	a0,%hi(.LC16)
 1378 0054 0146     		li	a2,0
 1379 0056 93850500 		addi	a1,a1,%lo(.LC15)
 1380 005a 13050500 		addi	a0,a0,%lo(.LC16)
 1381              	.L70:
 471:C:/Users/stapi/OneDrive/Desktop/GD32VW553/V1_MQTT_OK/GD32VW55X_Wifi_BLE_SDK/GD32VW55x_RELEASE_V1.0.2/MSDK/cloud/alicloud/src/protocol/alcs\alcs_adapter.c ****     STRING_PTR_SANITY_CHECK(params->group, NULL);
 1382              		.loc 1 471 5 is_stmt 0 discriminator 3
 1383 005e 97000000 		call	HAL_Printf
 1383      E7800000 
 1384              	.LVL152:
 1385              		.loc 1 471 5 is_stmt 1 discriminator 3
 1386              	.L69:
 472:C:/Users/stapi/OneDrive/Desktop/GD32VW553/V1_MQTT_OK/GD32VW55X_Wifi_BLE_SDK/GD32VW55x_RELEASE_V1.0.2/MSDK/cloud/alicloud/src/protocol/alcs\alcs_adapter.c **** 
 473:C:/Users/stapi/OneDrive/Desktop/GD32VW553/V1_MQTT_OK/GD32VW55X_Wifi_BLE_SDK/GD32VW55x_RELEASE_V1.0.2/MSDK/cloud/alicloud/src/protocol/alcs\alcs_adapter.c ****     memset(adapter, 0, sizeof(iotx_alcs_adapter_t));
 474:C:/Users/stapi/OneDrive/Desktop/GD32VW553/V1_MQTT_OK/GD32VW55X_Wifi_BLE_SDK/GD32VW55x_RELEASE_V1.0.2/MSDK/cloud/alicloud/src/protocol/alcs\alcs_adapter.c **** 
 475:C:/Users/stapi/OneDrive/Desktop/GD32VW553/V1_MQTT_OK/GD32VW55X_Wifi_BLE_SDK/GD32VW55x_RELEASE_V1.0.2/MSDK/cloud/alicloud/src/protocol/alcs\alcs_adapter.c ****     res = iotx_alcs_adapter_init(adapter, params);
 476:C:/Users/stapi/OneDrive/Desktop/GD32VW553/V1_MQTT_OK/GD32VW55X_Wifi_BLE_SDK/GD32VW55x_RELEASE_V1.0.2/MSDK/cloud/alicloud/src/protocol/alcs\alcs_adapter.c ****     if (res != SUCCESS_RETURN) {
 477:C:/Users/stapi/OneDrive/Desktop/GD32VW553/V1_MQTT_OK/GD32VW55X_Wifi_BLE_SDK/GD32VW55x_RELEASE_V1.0.2/MSDK/cloud/alicloud/src/protocol/alcs\alcs_adapter.c ****         COAP_ERR("Adapter Init Failed");
 1387              		.loc 1 477 9
 1388 0066 13050900 		addi	a0,s2,%lo(.LC2)
 1389 006a 97000000 		call	HAL_Printf
 1389      E7800000 
 1390              	.LVL153:
 1391              		.loc 1 477 9
 478:C:/Users/stapi/OneDrive/Desktop/GD32VW553/V1_MQTT_OK/GD32VW55X_Wifi_BLE_SDK/GD32VW55x_RELEASE_V1.0.2/MSDK/cloud/alicloud/src/protocol/alcs\alcs_adapter.c ****         return NULL;
 1392              		.loc 1 478 9
 1393              		.loc 1 478 16 is_stmt 0
 1394 0072 0144     		li	s0,0
 1395 0074 35A8     		j	.L61
 1396              	.LVL154:
 1397              	.L62:
 470:C:/Users/stapi/OneDrive/Desktop/GD32VW553/V1_MQTT_OK/GD32VW55X_Wifi_BLE_SDK/GD32VW55x_RELEASE_V1.0.2/MSDK/cloud/alicloud/src/protocol/alcs\alcs_adapter.c ****     STRING_PTR_SANITY_CHECK(params->group, NULL);
 1398              		.loc 1 470 5 is_stmt 1 discriminator 2
 471:C:/Users/stapi/OneDrive/Desktop/GD32VW553/V1_MQTT_OK/GD32VW55X_Wifi_BLE_SDK/GD32VW55x_RELEASE_V1.0.2/MSDK/cloud/alicloud/src/protocol/alcs\alcs_adapter.c **** 
 1399              		.loc 1 471 5 discriminator 2
 471:C:/Users/stapi/OneDrive/Desktop/GD32VW553/V1_MQTT_OK/GD32VW55X_Wifi_BLE_SDK/GD32VW55x_RELEASE_V1.0.2/MSDK/cloud/alicloud/src/protocol/alcs\alcs_adapter.c **** 
 1400              		.loc 1 471 5 discriminator 2
 1401 0076 8044     		lw	s0,8(s1)
 1402 0078 29E0     		bne	s0,zero,.L64
 471:C:/Users/stapi/OneDrive/Desktop/GD32VW553/V1_MQTT_OK/GD32VW55X_Wifi_BLE_SDK/GD32VW55x_RELEASE_V1.0.2/MSDK/cloud/alicloud/src/protocol/alcs\alcs_adapter.c **** 
 1403              		.loc 1 471 5 discriminator 1
 471:C:/Users/stapi/OneDrive/Desktop/GD32VW553/V1_MQTT_OK/GD32VW55X_Wifi_BLE_SDK/GD32VW55x_RELEASE_V1.0.2/MSDK/cloud/alicloud/src/protocol/alcs\alcs_adapter.c **** 
 1404              		.loc 1 471 5 discriminator 1
 1405 007a 37050000 		lui	a0,%hi(.LC3)
 1406 007e 13050500 		addi	a0,a0,%lo(.LC3)
 1407 0082 97000000 		call	HAL_Printf
 1407      E7800000 
 1408              	.LVL155:
 471:C:/Users/stapi/OneDrive/Desktop/GD32VW553/V1_MQTT_OK/GD32VW55X_Wifi_BLE_SDK/GD32VW55x_RELEASE_V1.0.2/MSDK/cloud/alicloud/src/protocol/alcs\alcs_adapter.c **** 
 1409              		.loc 1 471 5 discriminator 1
 1410 008a 9044     		lw	a2,8(s1)
 1411 008c B7050000 		lui	a1,%hi(.LC17)
 1412 0090 37050000 		lui	a0,%hi(.LC16)
 1413 0094 13050500 		addi	a0,a0,%lo(.LC16)
 1414 0098 93850500 		addi	a1,a1,%lo(.LC17)
 1415 009c 97000000 		call	HAL_Printf
 1415      E7800000 
 1416              	.LVL156:
 471:C:/Users/stapi/OneDrive/Desktop/GD32VW553/V1_MQTT_OK/GD32VW55X_Wifi_BLE_SDK/GD32VW55x_RELEASE_V1.0.2/MSDK/cloud/alicloud/src/protocol/alcs\alcs_adapter.c **** 
 1417              		.loc 1 471 5 discriminator 1
 1418 00a4 13050900 		addi	a0,s2,%lo(.LC2)
 1419 00a8 97000000 		call	HAL_Printf
 1419      E7800000 
 1420              	.LVL157:
 471:C:/Users/stapi/OneDrive/Desktop/GD32VW553/V1_MQTT_OK/GD32VW55X_Wifi_BLE_SDK/GD32VW55x_RELEASE_V1.0.2/MSDK/cloud/alicloud/src/protocol/alcs\alcs_adapter.c **** 
 1421              		.loc 1 471 5 discriminator 1
 471:C:/Users/stapi/OneDrive/Desktop/GD32VW553/V1_MQTT_OK/GD32VW55X_Wifi_BLE_SDK/GD32VW55x_RELEASE_V1.0.2/MSDK/cloud/alicloud/src/protocol/alcs\alcs_adapter.c **** 
 1422              		.loc 1 471 5 discriminator 1
 1423              	.L61:
 479:C:/Users/stapi/OneDrive/Desktop/GD32VW553/V1_MQTT_OK/GD32VW55X_Wifi_BLE_SDK/GD32VW55x_RELEASE_V1.0.2/MSDK/cloud/alicloud/src/protocol/alcs\alcs_adapter.c ****     }
 480:C:/Users/stapi/OneDrive/Desktop/GD32VW553/V1_MQTT_OK/GD32VW55X_Wifi_BLE_SDK/GD32VW55x_RELEASE_V1.0.2/MSDK/cloud/alicloud/src/protocol/alcs\alcs_adapter.c **** 
 481:C:/Users/stapi/OneDrive/Desktop/GD32VW553/V1_MQTT_OK/GD32VW55X_Wifi_BLE_SDK/GD32VW55x_RELEASE_V1.0.2/MSDK/cloud/alicloud/src/protocol/alcs\alcs_adapter.c ****     return (void *)adapter;
 482:C:/Users/stapi/OneDrive/Desktop/GD32VW553/V1_MQTT_OK/GD32VW55X_Wifi_BLE_SDK/GD32VW55x_RELEASE_V1.0.2/MSDK/cloud/alicloud/src/protocol/alcs\alcs_adapter.c **** }
 1424              		.loc 1 482 1 is_stmt 0
 1425 00b0 2285     		mv	a0,s0
 1426 00b2 17030000 		tail	__riscv_restore_3
 1426      67000300 
 1427              		.cfi_remember_state
 1428              		.cfi_restore 18
 1429              		.cfi_restore 9
 1430              		.cfi_restore 8
 1431              		.cfi_restore 1
 1432              		.cfi_def_cfa_offset 0
 1433              	.LVL158:
 1434              	.L64:
 1435              		.cfi_restore_state
 471:C:/Users/stapi/OneDrive/Desktop/GD32VW553/V1_MQTT_OK/GD32VW55X_Wifi_BLE_SDK/GD32VW55x_RELEASE_V1.0.2/MSDK/cloud/alicloud/src/protocol/alcs\alcs_adapter.c **** 
 1436              		.loc 1 471 5 is_stmt 1 discriminator 2
 1437 00ba 83070400 		lb	a5,0(s0)
 1438 00be 9DE3     		bne	a5,zero,.L65
 471:C:/Users/stapi/OneDrive/Desktop/GD32VW553/V1_MQTT_OK/GD32VW55X_Wifi_BLE_SDK/GD32VW55x_RELEASE_V1.0.2/MSDK/cloud/alicloud/src/protocol/alcs\alcs_adapter.c **** 
 1439              		.loc 1 471 5 discriminator 3
 471:C:/Users/stapi/OneDrive/Desktop/GD32VW553/V1_MQTT_OK/GD32VW55X_Wifi_BLE_SDK/GD32VW55x_RELEASE_V1.0.2/MSDK/cloud/alicloud/src/protocol/alcs\alcs_adapter.c **** 
 1440              		.loc 1 471 5 discriminator 3
 1441 00c0 37050000 		lui	a0,%hi(.LC3)
 1442 00c4 13050500 		addi	a0,a0,%lo(.LC3)
 1443 00c8 97000000 		call	HAL_Printf
 1443      E7800000 
 1444              	.LVL159:
 471:C:/Users/stapi/OneDrive/Desktop/GD32VW553/V1_MQTT_OK/GD32VW55X_Wifi_BLE_SDK/GD32VW55x_RELEASE_V1.0.2/MSDK/cloud/alicloud/src/protocol/alcs\alcs_adapter.c **** 
 1445              		.loc 1 471 5 discriminator 3
 1446 00d0 B7050000 		lui	a1,%hi(.LC17)
 1447 00d4 37050000 		lui	a0,%hi(.LC18)
 1448 00d8 9044     		lw	a2,8(s1)
 1449 00da 93850500 		addi	a1,a1,%lo(.LC17)
 1450 00de 13050500 		addi	a0,a0,%lo(.LC18)
 1451 00e2 B5BF     		j	.L70
 1452              	.L65:
 471:C:/Users/stapi/OneDrive/Desktop/GD32VW553/V1_MQTT_OK/GD32VW55X_Wifi_BLE_SDK/GD32VW55x_RELEASE_V1.0.2/MSDK/cloud/alicloud/src/protocol/alcs\alcs_adapter.c **** 
 1453              		.loc 1 471 5 discriminator 4
 473:C:/Users/stapi/OneDrive/Desktop/GD32VW553/V1_MQTT_OK/GD32VW55X_Wifi_BLE_SDK/GD32VW55x_RELEASE_V1.0.2/MSDK/cloud/alicloud/src/protocol/alcs\alcs_adapter.c **** 
 1454              		.loc 1 473 5 discriminator 4
 1455 00e4 37040000 		lui	s0,%hi(.LANCHOR0)
 1456 00e8 13060004 		li	a2,64
 1457 00ec 8145     		li	a1,0
 1458 00ee 13050400 		addi	a0,s0,%lo(.LANCHOR0)
 1459 00f2 97000000 		call	memset
 1459      E7800000 
 1460              	.LVL160:
 475:C:/Users/stapi/OneDrive/Desktop/GD32VW553/V1_MQTT_OK/GD32VW55X_Wifi_BLE_SDK/GD32VW55x_RELEASE_V1.0.2/MSDK/cloud/alicloud/src/protocol/alcs\alcs_adapter.c ****     if (res != SUCCESS_RETURN) {
 1461              		.loc 1 475 5 discriminator 4
 475:C:/Users/stapi/OneDrive/Desktop/GD32VW553/V1_MQTT_OK/GD32VW55X_Wifi_BLE_SDK/GD32VW55x_RELEASE_V1.0.2/MSDK/cloud/alicloud/src/protocol/alcs\alcs_adapter.c ****     if (res != SUCCESS_RETURN) {
 1462              		.loc 1 475 11 is_stmt 0 discriminator 4
 1463 00fa 13050400 		addi	a0,s0,%lo(.LANCHOR0)
 1464 00fe A685     		mv	a1,s1
 1465 0100 97000000 		call	iotx_alcs_adapter_init
 1465      E7800000 
 1466              	.LVL161:
 476:C:/Users/stapi/OneDrive/Desktop/GD32VW553/V1_MQTT_OK/GD32VW55X_Wifi_BLE_SDK/GD32VW55x_RELEASE_V1.0.2/MSDK/cloud/alicloud/src/protocol/alcs\alcs_adapter.c ****         COAP_ERR("Adapter Init Failed");
 1467              		.loc 1 476 5 is_stmt 1 discriminator 4
 481:C:/Users/stapi/OneDrive/Desktop/GD32VW553/V1_MQTT_OK/GD32VW55X_Wifi_BLE_SDK/GD32VW55x_RELEASE_V1.0.2/MSDK/cloud/alicloud/src/protocol/alcs\alcs_adapter.c **** }
 1468              		.loc 1 481 12 is_stmt 0 discriminator 4
 1469 0108 13040400 		addi	s0,s0,%lo(.LANCHOR0)
 476:C:/Users/stapi/OneDrive/Desktop/GD32VW553/V1_MQTT_OK/GD32VW55X_Wifi_BLE_SDK/GD32VW55x_RELEASE_V1.0.2/MSDK/cloud/alicloud/src/protocol/alcs\alcs_adapter.c ****         COAP_ERR("Adapter Init Failed");
 1470              		.loc 1 476 8 discriminator 4
 1471 010c 55D1     		beq	a0,zero,.L61
 477:C:/Users/stapi/OneDrive/Desktop/GD32VW553/V1_MQTT_OK/GD32VW55X_Wifi_BLE_SDK/GD32VW55x_RELEASE_V1.0.2/MSDK/cloud/alicloud/src/protocol/alcs\alcs_adapter.c ****         return NULL;
 1472              		.loc 1 477 9 is_stmt 1
 477:C:/Users/stapi/OneDrive/Desktop/GD32VW553/V1_MQTT_OK/GD32VW55X_Wifi_BLE_SDK/GD32VW55x_RELEASE_V1.0.2/MSDK/cloud/alicloud/src/protocol/alcs\alcs_adapter.c ****         return NULL;
 1473              		.loc 1 477 9
 1474 010e 37050000 		lui	a0,%hi(.LC3)
 1475              	.LVL162:
 1476 0112 13050500 		addi	a0,a0,%lo(.LC3)
 1477 0116 97000000 		call	HAL_Printf
 1477      E7800000 
 1478              	.LVL163:
 477:C:/Users/stapi/OneDrive/Desktop/GD32VW553/V1_MQTT_OK/GD32VW55X_Wifi_BLE_SDK/GD32VW55x_RELEASE_V1.0.2/MSDK/cloud/alicloud/src/protocol/alcs\alcs_adapter.c ****         return NULL;
 1479              		.loc 1 477 9
 1480 011e 37050000 		lui	a0,%hi(.LC19)
 1481 0122 13050500 		addi	a0,a0,%lo(.LC19)
 1482 0126 97000000 		call	HAL_Printf
 1482      E7800000 
 1483              	.LVL164:
 1484 012e 25BF     		j	.L69
 1485              		.cfi_endproc
 1486              	.LFE31:
 1488              		.section	.rodata.iotx_alcs_cloud_init.str1.4,"aMS",@progbits,1
 1489              		.align	2
 1490              	.LC20:
 1491 0000 53746172 		.string	"Start ALCS Cloud Init"
 1491      7420414C 
 1491      43532043 
 1491      6C6F7564 
 1491      20496E69 
 1492 0016 0000     		.align	2
 1493              	.LC21:
 1494 0018 414C4353 		.string	"ALCS MQTT Init Failed"
 1494      204D5154 
 1494      5420496E 
 1494      69742046 
 1494      61696C65 
 1495              		.section	.text.iotx_alcs_cloud_init,"ax",@progbits
 1496              		.align	1
 1497              		.globl	iotx_alcs_cloud_init
 1499              	iotx_alcs_cloud_init:
 1500              	.LFB32:
 483:C:/Users/stapi/OneDrive/Desktop/GD32VW553/V1_MQTT_OK/GD32VW55X_Wifi_BLE_SDK/GD32VW55x_RELEASE_V1.0.2/MSDK/cloud/alicloud/src/protocol/alcs\alcs_adapter.c **** 
 484:C:/Users/stapi/OneDrive/Desktop/GD32VW553/V1_MQTT_OK/GD32VW55X_Wifi_BLE_SDK/GD32VW55x_RELEASE_V1.0.2/MSDK/cloud/alicloud/src/protocol/alcs\alcs_adapter.c **** int iotx_alcs_cloud_init(void *handle)
 485:C:/Users/stapi/OneDrive/Desktop/GD32VW553/V1_MQTT_OK/GD32VW55X_Wifi_BLE_SDK/GD32VW55x_RELEASE_V1.0.2/MSDK/cloud/alicloud/src/protocol/alcs\alcs_adapter.c **** {
 1501              		.loc 1 485 1
 1502              		.cfi_startproc
 1503              	.LVL165:
 1504 0000 17030000 		call	t0,__riscv_save_4
 1504      E7020300 
 1505              		.cfi_offset 19, -20
 1506              		.cfi_offset 18, -16
 1507              		.cfi_offset 9, -12
 1508              		.cfi_offset 8, -8
 1509              		.cfi_offset 1, -4
 1510              		.cfi_def_cfa_offset 32
 486:C:/Users/stapi/OneDrive/Desktop/GD32VW553/V1_MQTT_OK/GD32VW55X_Wifi_BLE_SDK/GD32VW55x_RELEASE_V1.0.2/MSDK/cloud/alicloud/src/protocol/alcs\alcs_adapter.c ****     COAP_INFO("Start ALCS Cloud Init");
 1511              		.loc 1 486 5
 1512              		.loc 1 486 5
 485:C:/Users/stapi/OneDrive/Desktop/GD32VW553/V1_MQTT_OK/GD32VW55X_Wifi_BLE_SDK/GD32VW55x_RELEASE_V1.0.2/MSDK/cloud/alicloud/src/protocol/alcs\alcs_adapter.c ****     COAP_INFO("Start ALCS Cloud Init");
 1513              		.loc 1 485 1 is_stmt 0
 1514 0008 2A89     		mv	s2,a0
 1515              		.loc 1 486 5
 1516 000a 37050000 		lui	a0,%hi(.LC0)
 1517              	.LVL166:
 485:C:/Users/stapi/OneDrive/Desktop/GD32VW553/V1_MQTT_OK/GD32VW55X_Wifi_BLE_SDK/GD32VW55x_RELEASE_V1.0.2/MSDK/cloud/alicloud/src/protocol/alcs\alcs_adapter.c ****     COAP_INFO("Start ALCS Cloud Init");
 1518              		.loc 1 485 1
 1519 000e 3971     		addi	sp,sp,-64
 1520              		.cfi_def_cfa_offset 96
 1521              		.loc 1 486 5
 1522 0010 13050500 		addi	a0,a0,%lo(.LC0)
 1523 0014 97000000 		call	HAL_Printf
 1523      E7800000 
 1524              	.LVL167:
 1525              		.loc 1 486 5 is_stmt 1
 1526 001c 37050000 		lui	a0,%hi(.LC20)
 1527 0020 13050500 		addi	a0,a0,%lo(.LC20)
 1528 0024 97000000 		call	HAL_Printf
 1528      E7800000 
 1529              	.LVL168:
 1530              		.loc 1 486 5
 1531 002c B7040000 		lui	s1,%hi(.LC2)
 1532 0030 13850400 		addi	a0,s1,%lo(.LC2)
 1533 0034 97000000 		call	HAL_Printf
 1533      E7800000 
 1534              	.LVL169:
 1535              		.loc 1 486 5
 487:C:/Users/stapi/OneDrive/Desktop/GD32VW553/V1_MQTT_OK/GD32VW55X_Wifi_BLE_SDK/GD32VW55x_RELEASE_V1.0.2/MSDK/cloud/alicloud/src/protocol/alcs\alcs_adapter.c ****     int res = 0;
 1536              		.loc 1 487 5
 488:C:/Users/stapi/OneDrive/Desktop/GD32VW553/V1_MQTT_OK/GD32VW55X_Wifi_BLE_SDK/GD32VW55x_RELEASE_V1.0.2/MSDK/cloud/alicloud/src/protocol/alcs\alcs_adapter.c ****     iotx_alcs_adapter_t *adapter = __iotx_alcs_get_ctx();
 1537              		.loc 1 488 5
  31:C:/Users/stapi/OneDrive/Desktop/GD32VW553/V1_MQTT_OK/GD32VW55X_Wifi_BLE_SDK/GD32VW55x_RELEASE_V1.0.2/MSDK/cloud/alicloud/src/protocol/alcs\alcs_adapter.c **** }
 1538              		.loc 1 31 5
 489:C:/Users/stapi/OneDrive/Desktop/GD32VW553/V1_MQTT_OK/GD32VW55X_Wifi_BLE_SDK/GD32VW55x_RELEASE_V1.0.2/MSDK/cloud/alicloud/src/protocol/alcs\alcs_adapter.c ****     char product_key[PRODUCT_KEY_MAXLEN] = {0};
 1539              		.loc 1 489 5
 490:C:/Users/stapi/OneDrive/Desktop/GD32VW553/V1_MQTT_OK/GD32VW55X_Wifi_BLE_SDK/GD32VW55x_RELEASE_V1.0.2/MSDK/cloud/alicloud/src/protocol/alcs\alcs_adapter.c ****     char device_name[DEVICE_NAME_MAXLEN] = {0};
 1540              		.loc 1 490 10 is_stmt 0
 1541 003c 7546     		li	a2,29
 1542 003e 8145     		li	a1,0
 1543 0040 0810     		addi	a0,sp,32
 491:C:/Users/stapi/OneDrive/Desktop/GD32VW553/V1_MQTT_OK/GD32VW55X_Wifi_BLE_SDK/GD32VW55x_RELEASE_V1.0.2/MSDK/cloud/alicloud/src/protocol/alcs\alcs_adapter.c **** 
 492:C:/Users/stapi/OneDrive/Desktop/GD32VW553/V1_MQTT_OK/GD32VW55X_Wifi_BLE_SDK/GD32VW55x_RELEASE_V1.0.2/MSDK/cloud/alicloud/src/protocol/alcs\alcs_adapter.c ****     if (adapter->local_cloud_inited == 1) {
 1544              		.loc 1 492 16
 1545 0042 37040000 		lui	s0,%hi(.LANCHOR0)
 489:C:/Users/stapi/OneDrive/Desktop/GD32VW553/V1_MQTT_OK/GD32VW55X_Wifi_BLE_SDK/GD32VW55x_RELEASE_V1.0.2/MSDK/cloud/alicloud/src/protocol/alcs\alcs_adapter.c ****     char device_name[DEVICE_NAME_MAXLEN] = {0};
 1546              		.loc 1 489 10
 1547 0046 02C2     		sw	zero,4(sp)
 1548 0048 02C4     		sw	zero,8(sp)
 1549 004a 02C6     		sw	zero,12(sp)
 1550 004c 02C8     		sw	zero,16(sp)
 1551 004e 02CA     		sw	zero,20(sp)
 1552 0050 230C0100 		sb	zero,24(sp)
 490:C:/Users/stapi/OneDrive/Desktop/GD32VW553/V1_MQTT_OK/GD32VW55X_Wifi_BLE_SDK/GD32VW55x_RELEASE_V1.0.2/MSDK/cloud/alicloud/src/protocol/alcs\alcs_adapter.c ****     char device_name[DEVICE_NAME_MAXLEN] = {0};
 1553              		.loc 1 490 5 is_stmt 1
 490:C:/Users/stapi/OneDrive/Desktop/GD32VW553/V1_MQTT_OK/GD32VW55X_Wifi_BLE_SDK/GD32VW55x_RELEASE_V1.0.2/MSDK/cloud/alicloud/src/protocol/alcs\alcs_adapter.c ****     char device_name[DEVICE_NAME_MAXLEN] = {0};
 1554              		.loc 1 490 10 is_stmt 0
 1555 0054 02CE     		sw	zero,28(sp)
 1556              		.loc 1 492 16
 1557 0056 13040400 		addi	s0,s0,%lo(.LANCHOR0)
 490:C:/Users/stapi/OneDrive/Desktop/GD32VW553/V1_MQTT_OK/GD32VW55X_Wifi_BLE_SDK/GD32VW55x_RELEASE_V1.0.2/MSDK/cloud/alicloud/src/protocol/alcs\alcs_adapter.c ****     char device_name[DEVICE_NAME_MAXLEN] = {0};
 1558              		.loc 1 490 10
 1559 005a 97000000 		call	memset
 1559      E7800000 
 1560              	.LVL170:
 1561              		.loc 1 492 5 is_stmt 1
 1562              		.loc 1 492 8 is_stmt 0
 1563 0062 5C40     		lw	a5,4(s0)
 1564 0064 8549     		li	s3,1
 1565 0066 638F370B 		beq	a5,s3,.L76
 493:C:/Users/stapi/OneDrive/Desktop/GD32VW553/V1_MQTT_OK/GD32VW55X_Wifi_BLE_SDK/GD32VW55x_RELEASE_V1.0.2/MSDK/cloud/alicloud/src/protocol/alcs\alcs_adapter.c ****         return SUCCESS_RETURN;
 494:C:/Users/stapi/OneDrive/Desktop/GD32VW553/V1_MQTT_OK/GD32VW55X_Wifi_BLE_SDK/GD32VW55x_RELEASE_V1.0.2/MSDK/cloud/alicloud/src/protocol/alcs\alcs_adapter.c ****     }
 495:C:/Users/stapi/OneDrive/Desktop/GD32VW553/V1_MQTT_OK/GD32VW55X_Wifi_BLE_SDK/GD32VW55x_RELEASE_V1.0.2/MSDK/cloud/alicloud/src/protocol/alcs\alcs_adapter.c **** 
 496:C:/Users/stapi/OneDrive/Desktop/GD32VW553/V1_MQTT_OK/GD32VW55X_Wifi_BLE_SDK/GD32VW55x_RELEASE_V1.0.2/MSDK/cloud/alicloud/src/protocol/alcs\alcs_adapter.c ****     if (handle == NULL) {
 1566              		.loc 1 496 5 is_stmt 1
 497:C:/Users/stapi/OneDrive/Desktop/GD32VW553/V1_MQTT_OK/GD32VW55X_Wifi_BLE_SDK/GD32VW55x_RELEASE_V1.0.2/MSDK/cloud/alicloud/src/protocol/alcs\alcs_adapter.c ****         return FAIL_RETURN;
 1567              		.loc 1 497 16 is_stmt 0
 1568 006a 7D55     		li	a0,-1
 496:C:/Users/stapi/OneDrive/Desktop/GD32VW553/V1_MQTT_OK/GD32VW55X_Wifi_BLE_SDK/GD32VW55x_RELEASE_V1.0.2/MSDK/cloud/alicloud/src/protocol/alcs\alcs_adapter.c ****         return FAIL_RETURN;
 1569              		.loc 1 496 8
 1570 006c 63060904 		beq	s2,zero,.L71
 498:C:/Users/stapi/OneDrive/Desktop/GD32VW553/V1_MQTT_OK/GD32VW55X_Wifi_BLE_SDK/GD32VW55x_RELEASE_V1.0.2/MSDK/cloud/alicloud/src/protocol/alcs\alcs_adapter.c ****     }
 499:C:/Users/stapi/OneDrive/Desktop/GD32VW553/V1_MQTT_OK/GD32VW55X_Wifi_BLE_SDK/GD32VW55x_RELEASE_V1.0.2/MSDK/cloud/alicloud/src/protocol/alcs\alcs_adapter.c **** 
 500:C:/Users/stapi/OneDrive/Desktop/GD32VW553/V1_MQTT_OK/GD32VW55X_Wifi_BLE_SDK/GD32VW55x_RELEASE_V1.0.2/MSDK/cloud/alicloud/src/protocol/alcs\alcs_adapter.c ****     res = HAL_GetProductKey(product_key);
 1571              		.loc 1 500 5 is_stmt 1
 1572              		.loc 1 500 11 is_stmt 0
 1573 0070 4800     		addi	a0,sp,4
 1574 0072 97000000 		call	HAL_GetProductKey
 1574      E7800000 
 1575              	.LVL171:
 501:C:/Users/stapi/OneDrive/Desktop/GD32VW553/V1_MQTT_OK/GD32VW55X_Wifi_BLE_SDK/GD32VW55x_RELEASE_V1.0.2/MSDK/cloud/alicloud/src/protocol/alcs\alcs_adapter.c ****     if (res <= 0 || res > PRODUCT_KEY_MAXLEN - 1) {
 1576              		.loc 1 501 5 is_stmt 1
 1577              		.loc 1 501 18 is_stmt 0
 1578 007a 7D15     		addi	a0,a0,-1
 1579              	.LVL172:
 1580              		.loc 1 501 8
 1581 007c CD47     		li	a5,19
 1582 007e 63F2A704 		bleu	a0,a5,.L73
 502:C:/Users/stapi/OneDrive/Desktop/GD32VW553/V1_MQTT_OK/GD32VW55X_Wifi_BLE_SDK/GD32VW55x_RELEASE_V1.0.2/MSDK/cloud/alicloud/src/protocol/alcs\alcs_adapter.c ****         iotx_alcs_adapter_deinit();
 1583              		.loc 1 502 9 is_stmt 1
 1584 0082 97000000 		call	iotx_alcs_adapter_deinit
 1584      E7800000 
 1585              	.LVL173:
 503:C:/Users/stapi/OneDrive/Desktop/GD32VW553/V1_MQTT_OK/GD32VW55X_Wifi_BLE_SDK/GD32VW55x_RELEASE_V1.0.2/MSDK/cloud/alicloud/src/protocol/alcs\alcs_adapter.c ****         COAP_ERR("Get Product Key Failed");
 1586              		.loc 1 503 9
 1587              		.loc 1 503 9
 1588 008a 37050000 		lui	a0,%hi(.LC3)
 1589 008e 13050500 		addi	a0,a0,%lo(.LC3)
 1590 0092 97000000 		call	HAL_Printf
 1590      E7800000 
 1591              	.LVL174:
 1592              		.loc 1 503 9
 1593 009a 37050000 		lui	a0,%hi(.LC10)
 1594 009e 13050500 		addi	a0,a0,%lo(.LC10)
 1595              	.L79:
 504:C:/Users/stapi/OneDrive/Desktop/GD32VW553/V1_MQTT_OK/GD32VW55X_Wifi_BLE_SDK/GD32VW55x_RELEASE_V1.0.2/MSDK/cloud/alicloud/src/protocol/alcs\alcs_adapter.c ****         return FAIL_RETURN;
 505:C:/Users/stapi/OneDrive/Desktop/GD32VW553/V1_MQTT_OK/GD32VW55X_Wifi_BLE_SDK/GD32VW55x_RELEASE_V1.0.2/MSDK/cloud/alicloud/src/protocol/alcs\alcs_adapter.c ****     }
 506:C:/Users/stapi/OneDrive/Desktop/GD32VW553/V1_MQTT_OK/GD32VW55X_Wifi_BLE_SDK/GD32VW55x_RELEASE_V1.0.2/MSDK/cloud/alicloud/src/protocol/alcs\alcs_adapter.c **** 
 507:C:/Users/stapi/OneDrive/Desktop/GD32VW553/V1_MQTT_OK/GD32VW55X_Wifi_BLE_SDK/GD32VW55x_RELEASE_V1.0.2/MSDK/cloud/alicloud/src/protocol/alcs\alcs_adapter.c ****     res = HAL_GetDeviceName(device_name);
 508:C:/Users/stapi/OneDrive/Desktop/GD32VW553/V1_MQTT_OK/GD32VW55X_Wifi_BLE_SDK/GD32VW55x_RELEASE_V1.0.2/MSDK/cloud/alicloud/src/protocol/alcs\alcs_adapter.c ****     if (res <= 0 || res > DEVICE_NAME_MAXLEN - 1) {
 509:C:/Users/stapi/OneDrive/Desktop/GD32VW553/V1_MQTT_OK/GD32VW55X_Wifi_BLE_SDK/GD32VW55x_RELEASE_V1.0.2/MSDK/cloud/alicloud/src/protocol/alcs\alcs_adapter.c ****         iotx_alcs_adapter_deinit();
 510:C:/Users/stapi/OneDrive/Desktop/GD32VW553/V1_MQTT_OK/GD32VW55X_Wifi_BLE_SDK/GD32VW55x_RELEASE_V1.0.2/MSDK/cloud/alicloud/src/protocol/alcs\alcs_adapter.c ****         COAP_ERR("Get Device Name Failed");
 1596              		.loc 1 510 9 is_stmt 0
 1597 00a2 97000000 		call	HAL_Printf
 1597      E7800000 
 1598              	.LVL175:
 1599              		.loc 1 510 9 is_stmt 1
 1600 00aa 13850400 		addi	a0,s1,%lo(.LC2)
 1601 00ae 97000000 		call	HAL_Printf
 1601      E7800000 
 1602              	.LVL176:
 1603              		.loc 1 510 9
 511:C:/Users/stapi/OneDrive/Desktop/GD32VW553/V1_MQTT_OK/GD32VW55X_Wifi_BLE_SDK/GD32VW55x_RELEASE_V1.0.2/MSDK/cloud/alicloud/src/protocol/alcs\alcs_adapter.c ****         return FAIL_RETURN;
 1604              		.loc 1 511 9
 1605              		.loc 1 511 16 is_stmt 0
 1606 00b6 7D55     		li	a0,-1
 1607              	.L71:
 512:C:/Users/stapi/OneDrive/Desktop/GD32VW553/V1_MQTT_OK/GD32VW55X_Wifi_BLE_SDK/GD32VW55x_RELEASE_V1.0.2/MSDK/cloud/alicloud/src/protocol/alcs\alcs_adapter.c ****     }
 513:C:/Users/stapi/OneDrive/Desktop/GD32VW553/V1_MQTT_OK/GD32VW55X_Wifi_BLE_SDK/GD32VW55x_RELEASE_V1.0.2/MSDK/cloud/alicloud/src/protocol/alcs\alcs_adapter.c **** 
 514:C:/Users/stapi/OneDrive/Desktop/GD32VW553/V1_MQTT_OK/GD32VW55X_Wifi_BLE_SDK/GD32VW55x_RELEASE_V1.0.2/MSDK/cloud/alicloud/src/protocol/alcs\alcs_adapter.c ****     if (alcs_mqtt_init(adapter->coap_ctx, product_key, device_name) != ALCS_MQTT_STATUS_SUCCESS) {
 515:C:/Users/stapi/OneDrive/Desktop/GD32VW553/V1_MQTT_OK/GD32VW55X_Wifi_BLE_SDK/GD32VW55x_RELEASE_V1.0.2/MSDK/cloud/alicloud/src/protocol/alcs\alcs_adapter.c ****         /*solve the prpblem of hard fault when mqtt connection fails once*/
 516:C:/Users/stapi/OneDrive/Desktop/GD32VW553/V1_MQTT_OK/GD32VW55X_Wifi_BLE_SDK/GD32VW55x_RELEASE_V1.0.2/MSDK/cloud/alicloud/src/protocol/alcs\alcs_adapter.c ****         COAP_ERR("ALCS MQTT Init Failed");
 517:C:/Users/stapi/OneDrive/Desktop/GD32VW553/V1_MQTT_OK/GD32VW55X_Wifi_BLE_SDK/GD32VW55x_RELEASE_V1.0.2/MSDK/cloud/alicloud/src/protocol/alcs\alcs_adapter.c ****         return FAIL_RETURN;
 518:C:/Users/stapi/OneDrive/Desktop/GD32VW553/V1_MQTT_OK/GD32VW55X_Wifi_BLE_SDK/GD32VW55x_RELEASE_V1.0.2/MSDK/cloud/alicloud/src/protocol/alcs\alcs_adapter.c ****     }
 519:C:/Users/stapi/OneDrive/Desktop/GD32VW553/V1_MQTT_OK/GD32VW55X_Wifi_BLE_SDK/GD32VW55x_RELEASE_V1.0.2/MSDK/cloud/alicloud/src/protocol/alcs\alcs_adapter.c **** 
 520:C:/Users/stapi/OneDrive/Desktop/GD32VW553/V1_MQTT_OK/GD32VW55X_Wifi_BLE_SDK/GD32VW55x_RELEASE_V1.0.2/MSDK/cloud/alicloud/src/protocol/alcs\alcs_adapter.c ****     adapter->local_cloud_inited = 1;
 521:C:/Users/stapi/OneDrive/Desktop/GD32VW553/V1_MQTT_OK/GD32VW55X_Wifi_BLE_SDK/GD32VW55x_RELEASE_V1.0.2/MSDK/cloud/alicloud/src/protocol/alcs\alcs_adapter.c **** 
 522:C:/Users/stapi/OneDrive/Desktop/GD32VW553/V1_MQTT_OK/GD32VW55X_Wifi_BLE_SDK/GD32VW55x_RELEASE_V1.0.2/MSDK/cloud/alicloud/src/protocol/alcs\alcs_adapter.c ****     return SUCCESS_RETURN;
 523:C:/Users/stapi/OneDrive/Desktop/GD32VW553/V1_MQTT_OK/GD32VW55X_Wifi_BLE_SDK/GD32VW55x_RELEASE_V1.0.2/MSDK/cloud/alicloud/src/protocol/alcs\alcs_adapter.c **** }
 1608              		.loc 1 523 1
 1609 00b8 2161     		addi	sp,sp,64
 1610              		.cfi_remember_state
 1611              		.cfi_def_cfa_offset 0
 1612 00ba 17030000 		tail	__riscv_restore_4
 1612      67000300 
 1613              		.cfi_restore 19
 1614              		.cfi_restore 18
 1615              		.cfi_restore 9
 1616              		.cfi_restore 8
 1617              		.cfi_restore 1
 1618              		.cfi_def_cfa_offset -32
 1619              	.LVL177:
 1620              	.L73:
 1621              		.cfi_restore_state
 507:C:/Users/stapi/OneDrive/Desktop/GD32VW553/V1_MQTT_OK/GD32VW55X_Wifi_BLE_SDK/GD32VW55x_RELEASE_V1.0.2/MSDK/cloud/alicloud/src/protocol/alcs\alcs_adapter.c ****     if (res <= 0 || res > DEVICE_NAME_MAXLEN - 1) {
 1622              		.loc 1 507 5 is_stmt 1
 507:C:/Users/stapi/OneDrive/Desktop/GD32VW553/V1_MQTT_OK/GD32VW55X_Wifi_BLE_SDK/GD32VW55x_RELEASE_V1.0.2/MSDK/cloud/alicloud/src/protocol/alcs\alcs_adapter.c ****     if (res <= 0 || res > DEVICE_NAME_MAXLEN - 1) {
 1623              		.loc 1 507 11 is_stmt 0
 1624 00c2 6808     		addi	a0,sp,28
 1625              	.LVL178:
 1626 00c4 97000000 		call	HAL_GetDeviceName
 1626      E7800000 
 1627              	.LVL179:
 508:C:/Users/stapi/OneDrive/Desktop/GD32VW553/V1_MQTT_OK/GD32VW55X_Wifi_BLE_SDK/GD32VW55x_RELEASE_V1.0.2/MSDK/cloud/alicloud/src/protocol/alcs\alcs_adapter.c ****         iotx_alcs_adapter_deinit();
 1628              		.loc 1 508 5 is_stmt 1
 508:C:/Users/stapi/OneDrive/Desktop/GD32VW553/V1_MQTT_OK/GD32VW55X_Wifi_BLE_SDK/GD32VW55x_RELEASE_V1.0.2/MSDK/cloud/alicloud/src/protocol/alcs\alcs_adapter.c ****         iotx_alcs_adapter_deinit();
 1629              		.loc 1 508 18 is_stmt 0
 1630 00cc 7D15     		addi	a0,a0,-1
 1631              	.LVL180:
 508:C:/Users/stapi/OneDrive/Desktop/GD32VW553/V1_MQTT_OK/GD32VW55X_Wifi_BLE_SDK/GD32VW55x_RELEASE_V1.0.2/MSDK/cloud/alicloud/src/protocol/alcs\alcs_adapter.c ****         iotx_alcs_adapter_deinit();
 1632              		.loc 1 508 8
 1633 00ce FD47     		li	a5,31
 1634 00d0 63F3A702 		bleu	a0,a5,.L74
 509:C:/Users/stapi/OneDrive/Desktop/GD32VW553/V1_MQTT_OK/GD32VW55X_Wifi_BLE_SDK/GD32VW55x_RELEASE_V1.0.2/MSDK/cloud/alicloud/src/protocol/alcs\alcs_adapter.c ****         COAP_ERR("Get Device Name Failed");
 1635              		.loc 1 509 9 is_stmt 1
 1636 00d4 97000000 		call	iotx_alcs_adapter_deinit
 1636      E7800000 
 1637              	.LVL181:
 510:C:/Users/stapi/OneDrive/Desktop/GD32VW553/V1_MQTT_OK/GD32VW55X_Wifi_BLE_SDK/GD32VW55x_RELEASE_V1.0.2/MSDK/cloud/alicloud/src/protocol/alcs\alcs_adapter.c ****         return FAIL_RETURN;
 1638              		.loc 1 510 9
 510:C:/Users/stapi/OneDrive/Desktop/GD32VW553/V1_MQTT_OK/GD32VW55X_Wifi_BLE_SDK/GD32VW55x_RELEASE_V1.0.2/MSDK/cloud/alicloud/src/protocol/alcs\alcs_adapter.c ****         return FAIL_RETURN;
 1639              		.loc 1 510 9
 1640 00dc 37050000 		lui	a0,%hi(.LC3)
 1641 00e0 13050500 		addi	a0,a0,%lo(.LC3)
 1642 00e4 97000000 		call	HAL_Printf
 1642      E7800000 
 1643              	.LVL182:
 510:C:/Users/stapi/OneDrive/Desktop/GD32VW553/V1_MQTT_OK/GD32VW55X_Wifi_BLE_SDK/GD32VW55x_RELEASE_V1.0.2/MSDK/cloud/alicloud/src/protocol/alcs\alcs_adapter.c ****         return FAIL_RETURN;
 1644              		.loc 1 510 9
 1645 00ec 37050000 		lui	a0,%hi(.LC11)
 1646 00f0 13050500 		addi	a0,a0,%lo(.LC11)
 1647 00f4 7DB7     		j	.L79
 1648              	.LVL183:
 1649              	.L74:
 514:C:/Users/stapi/OneDrive/Desktop/GD32VW553/V1_MQTT_OK/GD32VW55X_Wifi_BLE_SDK/GD32VW55x_RELEASE_V1.0.2/MSDK/cloud/alicloud/src/protocol/alcs\alcs_adapter.c ****         /*solve the prpblem of hard fault when mqtt connection fails once*/
 1650              		.loc 1 514 5
 514:C:/Users/stapi/OneDrive/Desktop/GD32VW553/V1_MQTT_OK/GD32VW55X_Wifi_BLE_SDK/GD32VW55x_RELEASE_V1.0.2/MSDK/cloud/alicloud/src/protocol/alcs\alcs_adapter.c ****         /*solve the prpblem of hard fault when mqtt connection fails once*/
 1651              		.loc 1 514 9 is_stmt 0
 1652 00f6 0844     		lw	a0,8(s0)
 1653              	.LVL184:
 1654 00f8 7008     		addi	a2,sp,28
 1655 00fa 4C00     		addi	a1,sp,4
 1656 00fc 97000000 		call	alcs_mqtt_init
 1656      E7800000 
 1657              	.LVL185:
 514:C:/Users/stapi/OneDrive/Desktop/GD32VW553/V1_MQTT_OK/GD32VW55X_Wifi_BLE_SDK/GD32VW55x_RELEASE_V1.0.2/MSDK/cloud/alicloud/src/protocol/alcs\alcs_adapter.c ****         /*solve the prpblem of hard fault when mqtt connection fails once*/
 1658              		.loc 1 514 8
 1659 0104 11CD     		beq	a0,zero,.L75
 516:C:/Users/stapi/OneDrive/Desktop/GD32VW553/V1_MQTT_OK/GD32VW55X_Wifi_BLE_SDK/GD32VW55x_RELEASE_V1.0.2/MSDK/cloud/alicloud/src/protocol/alcs\alcs_adapter.c ****         return FAIL_RETURN;
 1660              		.loc 1 516 9 is_stmt 1
 516:C:/Users/stapi/OneDrive/Desktop/GD32VW553/V1_MQTT_OK/GD32VW55X_Wifi_BLE_SDK/GD32VW55x_RELEASE_V1.0.2/MSDK/cloud/alicloud/src/protocol/alcs\alcs_adapter.c ****         return FAIL_RETURN;
 1661              		.loc 1 516 9
 1662 0106 37050000 		lui	a0,%hi(.LC3)
 1663 010a 13050500 		addi	a0,a0,%lo(.LC3)
 1664 010e 97000000 		call	HAL_Printf
 1664      E7800000 
 1665              	.LVL186:
 516:C:/Users/stapi/OneDrive/Desktop/GD32VW553/V1_MQTT_OK/GD32VW55X_Wifi_BLE_SDK/GD32VW55x_RELEASE_V1.0.2/MSDK/cloud/alicloud/src/protocol/alcs\alcs_adapter.c ****         return FAIL_RETURN;
 1666              		.loc 1 516 9
 1667 0116 37050000 		lui	a0,%hi(.LC21)
 1668 011a 13050500 		addi	a0,a0,%lo(.LC21)
 1669 011e 51B7     		j	.L79
 1670              	.L75:
 520:C:/Users/stapi/OneDrive/Desktop/GD32VW553/V1_MQTT_OK/GD32VW55X_Wifi_BLE_SDK/GD32VW55x_RELEASE_V1.0.2/MSDK/cloud/alicloud/src/protocol/alcs\alcs_adapter.c **** 
 1671              		.loc 1 520 5
 520:C:/Users/stapi/OneDrive/Desktop/GD32VW553/V1_MQTT_OK/GD32VW55X_Wifi_BLE_SDK/GD32VW55x_RELEASE_V1.0.2/MSDK/cloud/alicloud/src/protocol/alcs\alcs_adapter.c **** 
 1672              		.loc 1 520 33 is_stmt 0
 1673 0120 23223401 		sw	s3,4(s0)
 522:C:/Users/stapi/OneDrive/Desktop/GD32VW553/V1_MQTT_OK/GD32VW55X_Wifi_BLE_SDK/GD32VW55x_RELEASE_V1.0.2/MSDK/cloud/alicloud/src/protocol/alcs\alcs_adapter.c **** }
 1674              		.loc 1 522 5 is_stmt 1
 1675              	.L76:
 493:C:/Users/stapi/OneDrive/Desktop/GD32VW553/V1_MQTT_OK/GD32VW55X_Wifi_BLE_SDK/GD32VW55x_RELEASE_V1.0.2/MSDK/cloud/alicloud/src/protocol/alcs\alcs_adapter.c ****     }
 1676              		.loc 1 493 16 is_stmt 0
 1677 0124 0145     		li	a0,0
 1678 0126 49BF     		j	.L71
 1679              		.cfi_endproc
 1680              	.LFE32:
 1682              		.section	.rodata.iotx_alcs_destroy.str1.4,"aMS",@progbits,1
 1683              		.align	2
 1684              	.LC22:
 1685 0000 7068616E 		.string	"phandle"
 1685      646C6500 
 1686              		.align	2
 1687              	.LC23:
 1688 0008 2A706861 		.string	"*phandle"
 1688      6E646C65 
 1688      00
 1689              		.section	.text.iotx_alcs_destroy,"ax",@progbits
 1690              		.align	1
 1691              		.globl	iotx_alcs_destroy
 1693              	iotx_alcs_destroy:
 1694              	.LFB33:
 524:C:/Users/stapi/OneDrive/Desktop/GD32VW553/V1_MQTT_OK/GD32VW55X_Wifi_BLE_SDK/GD32VW55x_RELEASE_V1.0.2/MSDK/cloud/alicloud/src/protocol/alcs\alcs_adapter.c **** 
 525:C:/Users/stapi/OneDrive/Desktop/GD32VW553/V1_MQTT_OK/GD32VW55X_Wifi_BLE_SDK/GD32VW55x_RELEASE_V1.0.2/MSDK/cloud/alicloud/src/protocol/alcs\alcs_adapter.c **** int iotx_alcs_destroy(void **phandle)
 526:C:/Users/stapi/OneDrive/Desktop/GD32VW553/V1_MQTT_OK/GD32VW55X_Wifi_BLE_SDK/GD32VW55x_RELEASE_V1.0.2/MSDK/cloud/alicloud/src/protocol/alcs\alcs_adapter.c **** {
 1695              		.loc 1 526 1 is_stmt 1
 1696              		.cfi_startproc
 1697              	.LVL187:
 1698 0000 17030000 		call	t0,__riscv_save_1
 1698      E7020300 
 1699              		.cfi_offset 8, -8
 1700              		.cfi_offset 1, -4
 1701              		.cfi_def_cfa_offset 16
 527:C:/Users/stapi/OneDrive/Desktop/GD32VW553/V1_MQTT_OK/GD32VW55X_Wifi_BLE_SDK/GD32VW55x_RELEASE_V1.0.2/MSDK/cloud/alicloud/src/protocol/alcs\alcs_adapter.c ****     POINTER_SANITY_CHECK(phandle, NULL_VALUE_ERROR);
 1702              		.loc 1 527 5
 1703              		.loc 1 527 5
 1704 0008 39E1     		bne	a0,zero,.L81
 1705              		.loc 1 527 5 discriminator 1
 1706              		.loc 1 527 5 discriminator 1
 1707 000a 37050000 		lui	a0,%hi(.LC3)
 1708              	.LVL188:
 1709 000e 13050500 		addi	a0,a0,%lo(.LC3)
 1710 0012 97000000 		call	HAL_Printf
 1710      E7800000 
 1711              	.LVL189:
 1712              		.loc 1 527 5 discriminator 1
 1713 001a B7050000 		lui	a1,%hi(.LC22)
 1714 001e 0146     		li	a2,0
 1715 0020 93850500 		addi	a1,a1,%lo(.LC22)
 1716              	.L85:
 528:C:/Users/stapi/OneDrive/Desktop/GD32VW553/V1_MQTT_OK/GD32VW55X_Wifi_BLE_SDK/GD32VW55x_RELEASE_V1.0.2/MSDK/cloud/alicloud/src/protocol/alcs\alcs_adapter.c ****     POINTER_SANITY_CHECK(*phandle, NULL_VALUE_ERROR);
 1717              		.loc 1 528 5 is_stmt 0 discriminator 1
 1718 0024 37050000 		lui	a0,%hi(.LC16)
 1719 0028 13050500 		addi	a0,a0,%lo(.LC16)
 1720 002c 97000000 		call	HAL_Printf
 1720      E7800000 
 1721              	.LVL190:
 1722              		.loc 1 528 5 is_stmt 1 discriminator 1
 1723 0034 37050000 		lui	a0,%hi(.LC2)
 1724 0038 13050500 		addi	a0,a0,%lo(.LC2)
 1725 003c 97000000 		call	HAL_Printf
 1725      E7800000 
 1726              	.LVL191:
 1727              		.loc 1 528 5 discriminator 1
 1728              		.loc 1 528 5 discriminator 1
 1729 0044 7955     		li	a0,-2
 1730              	.L80:
 529:C:/Users/stapi/OneDrive/Desktop/GD32VW553/V1_MQTT_OK/GD32VW55X_Wifi_BLE_SDK/GD32VW55x_RELEASE_V1.0.2/MSDK/cloud/alicloud/src/protocol/alcs\alcs_adapter.c **** 
 530:C:/Users/stapi/OneDrive/Desktop/GD32VW553/V1_MQTT_OK/GD32VW55X_Wifi_BLE_SDK/GD32VW55x_RELEASE_V1.0.2/MSDK/cloud/alicloud/src/protocol/alcs\alcs_adapter.c ****     iotx_alcs_adapter_deinit();
 531:C:/Users/stapi/OneDrive/Desktop/GD32VW553/V1_MQTT_OK/GD32VW55X_Wifi_BLE_SDK/GD32VW55x_RELEASE_V1.0.2/MSDK/cloud/alicloud/src/protocol/alcs\alcs_adapter.c **** 
 532:C:/Users/stapi/OneDrive/Desktop/GD32VW553/V1_MQTT_OK/GD32VW55X_Wifi_BLE_SDK/GD32VW55x_RELEASE_V1.0.2/MSDK/cloud/alicloud/src/protocol/alcs\alcs_adapter.c ****     return SUCCESS_RETURN;
 533:C:/Users/stapi/OneDrive/Desktop/GD32VW553/V1_MQTT_OK/GD32VW55X_Wifi_BLE_SDK/GD32VW55x_RELEASE_V1.0.2/MSDK/cloud/alicloud/src/protocol/alcs\alcs_adapter.c **** }
 1731              		.loc 1 533 1 is_stmt 0
 1732 0046 17030000 		tail	__riscv_restore_1
 1732      67000300 
 1733              		.cfi_remember_state
 1734              		.cfi_restore 8
 1735              		.cfi_restore 1
 1736              		.cfi_def_cfa_offset 0
 1737              	.LVL192:
 1738              	.L81:
 1739              		.cfi_restore_state
 528:C:/Users/stapi/OneDrive/Desktop/GD32VW553/V1_MQTT_OK/GD32VW55X_Wifi_BLE_SDK/GD32VW55x_RELEASE_V1.0.2/MSDK/cloud/alicloud/src/protocol/alcs\alcs_adapter.c ****     POINTER_SANITY_CHECK(*phandle, NULL_VALUE_ERROR);
 1740              		.loc 1 528 5 discriminator 2
 1741 004e 1C41     		lw	a5,0(a0)
 1742 0050 2A84     		mv	s0,a0
 527:C:/Users/stapi/OneDrive/Desktop/GD32VW553/V1_MQTT_OK/GD32VW55X_Wifi_BLE_SDK/GD32VW55x_RELEASE_V1.0.2/MSDK/cloud/alicloud/src/protocol/alcs\alcs_adapter.c ****     POINTER_SANITY_CHECK(*phandle, NULL_VALUE_ERROR);
 1743              		.loc 1 527 5 is_stmt 1 discriminator 2
 528:C:/Users/stapi/OneDrive/Desktop/GD32VW553/V1_MQTT_OK/GD32VW55X_Wifi_BLE_SDK/GD32VW55x_RELEASE_V1.0.2/MSDK/cloud/alicloud/src/protocol/alcs\alcs_adapter.c ****     POINTER_SANITY_CHECK(*phandle, NULL_VALUE_ERROR);
 1744              		.loc 1 528 5 discriminator 2
 528:C:/Users/stapi/OneDrive/Desktop/GD32VW553/V1_MQTT_OK/GD32VW55X_Wifi_BLE_SDK/GD32VW55x_RELEASE_V1.0.2/MSDK/cloud/alicloud/src/protocol/alcs\alcs_adapter.c ****     POINTER_SANITY_CHECK(*phandle, NULL_VALUE_ERROR);
 1745              		.loc 1 528 5 discriminator 2
 1746 0052 99EF     		bne	a5,zero,.L83
 1747              	.LVL193:
 528:C:/Users/stapi/OneDrive/Desktop/GD32VW553/V1_MQTT_OK/GD32VW55X_Wifi_BLE_SDK/GD32VW55x_RELEASE_V1.0.2/MSDK/cloud/alicloud/src/protocol/alcs\alcs_adapter.c ****     POINTER_SANITY_CHECK(*phandle, NULL_VALUE_ERROR);
 1748              		.loc 1 528 5 discriminator 1
 528:C:/Users/stapi/OneDrive/Desktop/GD32VW553/V1_MQTT_OK/GD32VW55X_Wifi_BLE_SDK/GD32VW55x_RELEASE_V1.0.2/MSDK/cloud/alicloud/src/protocol/alcs\alcs_adapter.c ****     POINTER_SANITY_CHECK(*phandle, NULL_VALUE_ERROR);
 1749              		.loc 1 528 5 discriminator 1
 1750 0054 37050000 		lui	a0,%hi(.LC3)
 1751 0058 13050500 		addi	a0,a0,%lo(.LC3)
 1752 005c 97000000 		call	HAL_Printf
 1752      E7800000 
 1753              	.LVL194:
 528:C:/Users/stapi/OneDrive/Desktop/GD32VW553/V1_MQTT_OK/GD32VW55X_Wifi_BLE_SDK/GD32VW55x_RELEASE_V1.0.2/MSDK/cloud/alicloud/src/protocol/alcs\alcs_adapter.c ****     POINTER_SANITY_CHECK(*phandle, NULL_VALUE_ERROR);
 1754              		.loc 1 528 5 discriminator 1
 1755 0064 B7050000 		lui	a1,%hi(.LC23)
 1756 0068 1040     		lw	a2,0(s0)
 1757 006a 93850500 		addi	a1,a1,%lo(.LC23)
 1758 006e 5DBF     		j	.L85
 1759              	.L83:
