   1              		.file	"alcs_server.c"
   2              		.option nopic
   3              		.attribute arch, "rv32i2p0_m2p0_a2p0_f2p0_c2p0_b_p0p94"
   4              		.attribute unaligned_access, 0
   5              		.attribute stack_align, 16
   6              		.text
   7              	.Ltext0:
   8              		.cfi_sections	.debug_frame
   9              		.section	.rodata.get_resource_by_path.str1.4,"aMS",@progbits,1
  10              		.align	2
  11              	.LC0:
  12 0000 5B657272 		.string	"[err] "
  12      5D2000
  13 0007 00       		.align	2
  14              	.LC1:
  15 0008 72656365 		.string	"receive unknown request, path:%s"
  15      69766520 
  15      756E6B6E 
  15      6F776E20 
  15      72657175 
  16 0029 000000   		.align	2
  17              	.LC2:
  18 002c 0D0A00   		.string	"\r\n"
  19              		.section	.text.get_resource_by_path,"ax",@progbits
  20              		.align	1
  22              	get_resource_by_path:
  23              	.LFB29:
  24              		.file 1 "C:/Users/stapi/OneDrive/Desktop/GD32VW553/V1_MQTT_OK/GD32VW55X_Wifi_BLE_SDK/GD32VW55x_REL
   1:C:/Users/stapi/OneDrive/Desktop/GD32VW553/V1_MQTT_OK/GD32VW55X_Wifi_BLE_SDK/GD32VW55x_RELEASE_V1.0.2/MSDK/cloud/alicloud/src/protocol/alcs\alcs_server.c **** /*
   2:C:/Users/stapi/OneDrive/Desktop/GD32VW553/V1_MQTT_OK/GD32VW55X_Wifi_BLE_SDK/GD32VW55x_RELEASE_V1.0.2/MSDK/cloud/alicloud/src/protocol/alcs\alcs_server.c ****  * Copyright (C) 2015-2018 Alibaba Group Holding Limited
   3:C:/Users/stapi/OneDrive/Desktop/GD32VW553/V1_MQTT_OK/GD32VW55X_Wifi_BLE_SDK/GD32VW55x_RELEASE_V1.0.2/MSDK/cloud/alicloud/src/protocol/alcs\alcs_server.c ****  */
   4:C:/Users/stapi/OneDrive/Desktop/GD32VW553/V1_MQTT_OK/GD32VW55X_Wifi_BLE_SDK/GD32VW55x_RELEASE_V1.0.2/MSDK/cloud/alicloud/src/protocol/alcs\alcs_server.c **** 
   5:C:/Users/stapi/OneDrive/Desktop/GD32VW553/V1_MQTT_OK/GD32VW55X_Wifi_BLE_SDK/GD32VW55x_RELEASE_V1.0.2/MSDK/cloud/alicloud/src/protocol/alcs\alcs_server.c **** 
   6:C:/Users/stapi/OneDrive/Desktop/GD32VW553/V1_MQTT_OK/GD32VW55X_Wifi_BLE_SDK/GD32VW55x_RELEASE_V1.0.2/MSDK/cloud/alicloud/src/protocol/alcs\alcs_server.c **** 
   7:C:/Users/stapi/OneDrive/Desktop/GD32VW553/V1_MQTT_OK/GD32VW55X_Wifi_BLE_SDK/GD32VW55x_RELEASE_V1.0.2/MSDK/cloud/alicloud/src/protocol/alcs\alcs_server.c **** #include "alcs_api_internal.h"
   8:C:/Users/stapi/OneDrive/Desktop/GD32VW553/V1_MQTT_OK/GD32VW55X_Wifi_BLE_SDK/GD32VW55x_RELEASE_V1.0.2/MSDK/cloud/alicloud/src/protocol/alcs\alcs_server.c **** #include "json_parser.h"
   9:C:/Users/stapi/OneDrive/Desktop/GD32VW553/V1_MQTT_OK/GD32VW55X_Wifi_BLE_SDK/GD32VW55x_RELEASE_V1.0.2/MSDK/cloud/alicloud/src/protocol/alcs\alcs_server.c **** #include "CoAPPlatform.h"
  10:C:/Users/stapi/OneDrive/Desktop/GD32VW553/V1_MQTT_OK/GD32VW55X_Wifi_BLE_SDK/GD32VW55x_RELEASE_V1.0.2/MSDK/cloud/alicloud/src/protocol/alcs\alcs_server.c **** #include "CoAPResource.h"
  11:C:/Users/stapi/OneDrive/Desktop/GD32VW553/V1_MQTT_OK/GD32VW55X_Wifi_BLE_SDK/GD32VW55x_RELEASE_V1.0.2/MSDK/cloud/alicloud/src/protocol/alcs\alcs_server.c **** #include "utils_hmac.h"
  12:C:/Users/stapi/OneDrive/Desktop/GD32VW553/V1_MQTT_OK/GD32VW55X_Wifi_BLE_SDK/GD32VW55x_RELEASE_V1.0.2/MSDK/cloud/alicloud/src/protocol/alcs\alcs_server.c **** 
  13:C:/Users/stapi/OneDrive/Desktop/GD32VW553/V1_MQTT_OK/GD32VW55X_Wifi_BLE_SDK/GD32VW55x_RELEASE_V1.0.2/MSDK/cloud/alicloud/src/protocol/alcs\alcs_server.c **** #define RES_FORMAT "{\"id\":\"%.*s\",\"code\":%d,\"data\":{%s}}"
  14:C:/Users/stapi/OneDrive/Desktop/GD32VW553/V1_MQTT_OK/GD32VW55X_Wifi_BLE_SDK/GD32VW55x_RELEASE_V1.0.2/MSDK/cloud/alicloud/src/protocol/alcs\alcs_server.c **** 
  15:C:/Users/stapi/OneDrive/Desktop/GD32VW553/V1_MQTT_OK/GD32VW55X_Wifi_BLE_SDK/GD32VW55x_RELEASE_V1.0.2/MSDK/cloud/alicloud/src/protocol/alcs\alcs_server.c **** #ifdef ALCS_SERVER_ENABLED
  16:C:/Users/stapi/OneDrive/Desktop/GD32VW553/V1_MQTT_OK/GD32VW55X_Wifi_BLE_SDK/GD32VW55x_RELEASE_V1.0.2/MSDK/cloud/alicloud/src/protocol/alcs\alcs_server.c **** 
  17:C:/Users/stapi/OneDrive/Desktop/GD32VW553/V1_MQTT_OK/GD32VW55X_Wifi_BLE_SDK/GD32VW55x_RELEASE_V1.0.2/MSDK/cloud/alicloud/src/protocol/alcs\alcs_server.c **** extern int sessionid_seed;
  18:C:/Users/stapi/OneDrive/Desktop/GD32VW553/V1_MQTT_OK/GD32VW55X_Wifi_BLE_SDK/GD32VW55x_RELEASE_V1.0.2/MSDK/cloud/alicloud/src/protocol/alcs\alcs_server.c **** static int default_request_expire = 10000;
  19:C:/Users/stapi/OneDrive/Desktop/GD32VW553/V1_MQTT_OK/GD32VW55X_Wifi_BLE_SDK/GD32VW55x_RELEASE_V1.0.2/MSDK/cloud/alicloud/src/protocol/alcs\alcs_server.c **** static int default_heart_expire = 120000;
  20:C:/Users/stapi/OneDrive/Desktop/GD32VW553/V1_MQTT_OK/GD32VW55X_Wifi_BLE_SDK/GD32VW55x_RELEASE_V1.0.2/MSDK/cloud/alicloud/src/protocol/alcs\alcs_server.c **** extern int seqwindow_accept (CoAPMessage *message, session_item* session);
  21:C:/Users/stapi/OneDrive/Desktop/GD32VW553/V1_MQTT_OK/GD32VW55X_Wifi_BLE_SDK/GD32VW55x_RELEASE_V1.0.2/MSDK/cloud/alicloud/src/protocol/alcs\alcs_server.c **** int check_and_get_group_info (CoAPMessage *message, const char* groupid, char ak[1], int* tag, char
  22:C:/Users/stapi/OneDrive/Desktop/GD32VW553/V1_MQTT_OK/GD32VW55X_Wifi_BLE_SDK/GD32VW55x_RELEASE_V1.0.2/MSDK/cloud/alicloud/src/protocol/alcs\alcs_server.c **** 
  23:C:/Users/stapi/OneDrive/Desktop/GD32VW553/V1_MQTT_OK/GD32VW55X_Wifi_BLE_SDK/GD32VW55x_RELEASE_V1.0.2/MSDK/cloud/alicloud/src/protocol/alcs\alcs_server.c **** svr_key_info *is_legal_key(CoAPContext *ctx, const char *keyprefix, int prefixlen, const char *keys
  24:C:/Users/stapi/OneDrive/Desktop/GD32VW553/V1_MQTT_OK/GD32VW55X_Wifi_BLE_SDK/GD32VW55x_RELEASE_V1.0.2/MSDK/cloud/alicloud/src/protocol/alcs\alcs_server.c ****                            int *res_code)
  25:C:/Users/stapi/OneDrive/Desktop/GD32VW553/V1_MQTT_OK/GD32VW55X_Wifi_BLE_SDK/GD32VW55x_RELEASE_V1.0.2/MSDK/cloud/alicloud/src/protocol/alcs\alcs_server.c **** {
  26:C:/Users/stapi/OneDrive/Desktop/GD32VW553/V1_MQTT_OK/GD32VW55X_Wifi_BLE_SDK/GD32VW55x_RELEASE_V1.0.2/MSDK/cloud/alicloud/src/protocol/alcs\alcs_server.c ****     COAP_INFO("islegal prefix:%.*s, seq:%.*s", prefixlen, keyprefix, seqlen, keyseq);
  27:C:/Users/stapi/OneDrive/Desktop/GD32VW553/V1_MQTT_OK/GD32VW55X_Wifi_BLE_SDK/GD32VW55x_RELEASE_V1.0.2/MSDK/cloud/alicloud/src/protocol/alcs\alcs_server.c **** 
  28:C:/Users/stapi/OneDrive/Desktop/GD32VW553/V1_MQTT_OK/GD32VW55X_Wifi_BLE_SDK/GD32VW55x_RELEASE_V1.0.2/MSDK/cloud/alicloud/src/protocol/alcs\alcs_server.c ****     device_auth_list *lst = get_device();
  29:C:/Users/stapi/OneDrive/Desktop/GD32VW553/V1_MQTT_OK/GD32VW55X_Wifi_BLE_SDK/GD32VW55x_RELEASE_V1.0.2/MSDK/cloud/alicloud/src/protocol/alcs\alcs_server.c ****     if (lst) {
  30:C:/Users/stapi/OneDrive/Desktop/GD32VW553/V1_MQTT_OK/GD32VW55X_Wifi_BLE_SDK/GD32VW55x_RELEASE_V1.0.2/MSDK/cloud/alicloud/src/protocol/alcs\alcs_server.c ****         COAP_DEBUG("find devices");
  31:C:/Users/stapi/OneDrive/Desktop/GD32VW553/V1_MQTT_OK/GD32VW55X_Wifi_BLE_SDK/GD32VW55x_RELEASE_V1.0.2/MSDK/cloud/alicloud/src/protocol/alcs\alcs_server.c ****         HAL_MutexLock(lst->list_mutex);
  32:C:/Users/stapi/OneDrive/Desktop/GD32VW553/V1_MQTT_OK/GD32VW55X_Wifi_BLE_SDK/GD32VW55x_RELEASE_V1.0.2/MSDK/cloud/alicloud/src/protocol/alcs\alcs_server.c **** 
  33:C:/Users/stapi/OneDrive/Desktop/GD32VW553/V1_MQTT_OK/GD32VW55X_Wifi_BLE_SDK/GD32VW55x_RELEASE_V1.0.2/MSDK/cloud/alicloud/src/protocol/alcs\alcs_server.c ****         if (lst->revocation) {
  34:C:/Users/stapi/OneDrive/Desktop/GD32VW553/V1_MQTT_OK/GD32VW55X_Wifi_BLE_SDK/GD32VW55x_RELEASE_V1.0.2/MSDK/cloud/alicloud/src/protocol/alcs\alcs_server.c ****             int len = strlen(lst->revocation);
  35:C:/Users/stapi/OneDrive/Desktop/GD32VW553/V1_MQTT_OK/GD32VW55X_Wifi_BLE_SDK/GD32VW55x_RELEASE_V1.0.2/MSDK/cloud/alicloud/src/protocol/alcs\alcs_server.c ****             int i;
  36:C:/Users/stapi/OneDrive/Desktop/GD32VW553/V1_MQTT_OK/GD32VW55X_Wifi_BLE_SDK/GD32VW55x_RELEASE_V1.0.2/MSDK/cloud/alicloud/src/protocol/alcs\alcs_server.c ****             for (i = 0; i < len; i += KEYSEQ_LEN) {
  37:C:/Users/stapi/OneDrive/Desktop/GD32VW553/V1_MQTT_OK/GD32VW55X_Wifi_BLE_SDK/GD32VW55x_RELEASE_V1.0.2/MSDK/cloud/alicloud/src/protocol/alcs\alcs_server.c ****                 if (strncmp(keyseq, lst->revocation + i, seqlen) == 0) {
  38:C:/Users/stapi/OneDrive/Desktop/GD32VW553/V1_MQTT_OK/GD32VW55X_Wifi_BLE_SDK/GD32VW55x_RELEASE_V1.0.2/MSDK/cloud/alicloud/src/protocol/alcs\alcs_server.c ****                     HAL_MutexUnlock(lst->list_mutex);
  39:C:/Users/stapi/OneDrive/Desktop/GD32VW553/V1_MQTT_OK/GD32VW55X_Wifi_BLE_SDK/GD32VW55x_RELEASE_V1.0.2/MSDK/cloud/alicloud/src/protocol/alcs\alcs_server.c ****                     *res_code = ALCS_AUTH_REVOCATE;
  40:C:/Users/stapi/OneDrive/Desktop/GD32VW553/V1_MQTT_OK/GD32VW55X_Wifi_BLE_SDK/GD32VW55x_RELEASE_V1.0.2/MSDK/cloud/alicloud/src/protocol/alcs\alcs_server.c ****                     COAP_INFO("accesskey is revocated");
  41:C:/Users/stapi/OneDrive/Desktop/GD32VW553/V1_MQTT_OK/GD32VW55X_Wifi_BLE_SDK/GD32VW55x_RELEASE_V1.0.2/MSDK/cloud/alicloud/src/protocol/alcs\alcs_server.c ****                     return NULL;
  42:C:/Users/stapi/OneDrive/Desktop/GD32VW553/V1_MQTT_OK/GD32VW55X_Wifi_BLE_SDK/GD32VW55x_RELEASE_V1.0.2/MSDK/cloud/alicloud/src/protocol/alcs\alcs_server.c ****                 }
  43:C:/Users/stapi/OneDrive/Desktop/GD32VW553/V1_MQTT_OK/GD32VW55X_Wifi_BLE_SDK/GD32VW55x_RELEASE_V1.0.2/MSDK/cloud/alicloud/src/protocol/alcs\alcs_server.c ****             }
  44:C:/Users/stapi/OneDrive/Desktop/GD32VW553/V1_MQTT_OK/GD32VW55X_Wifi_BLE_SDK/GD32VW55x_RELEASE_V1.0.2/MSDK/cloud/alicloud/src/protocol/alcs\alcs_server.c ****         }
  45:C:/Users/stapi/OneDrive/Desktop/GD32VW553/V1_MQTT_OK/GD32VW55X_Wifi_BLE_SDK/GD32VW55x_RELEASE_V1.0.2/MSDK/cloud/alicloud/src/protocol/alcs\alcs_server.c **** 
  46:C:/Users/stapi/OneDrive/Desktop/GD32VW553/V1_MQTT_OK/GD32VW55X_Wifi_BLE_SDK/GD32VW55x_RELEASE_V1.0.2/MSDK/cloud/alicloud/src/protocol/alcs\alcs_server.c ****         if (list_empty(&lst->lst_svr)) {
  47:C:/Users/stapi/OneDrive/Desktop/GD32VW553/V1_MQTT_OK/GD32VW55X_Wifi_BLE_SDK/GD32VW55x_RELEASE_V1.0.2/MSDK/cloud/alicloud/src/protocol/alcs\alcs_server.c ****             COAP_INFO("ALCS_AUTH_AUTHLISTEMPTY:%d\r\n", ALCS_AUTH_AUTHLISTEMPTY);
  48:C:/Users/stapi/OneDrive/Desktop/GD32VW553/V1_MQTT_OK/GD32VW55X_Wifi_BLE_SDK/GD32VW55x_RELEASE_V1.0.2/MSDK/cloud/alicloud/src/protocol/alcs\alcs_server.c ****             *res_code = ALCS_AUTH_AUTHLISTEMPTY;
  49:C:/Users/stapi/OneDrive/Desktop/GD32VW553/V1_MQTT_OK/GD32VW55X_Wifi_BLE_SDK/GD32VW55x_RELEASE_V1.0.2/MSDK/cloud/alicloud/src/protocol/alcs\alcs_server.c ****         } else {
  50:C:/Users/stapi/OneDrive/Desktop/GD32VW553/V1_MQTT_OK/GD32VW55X_Wifi_BLE_SDK/GD32VW55x_RELEASE_V1.0.2/MSDK/cloud/alicloud/src/protocol/alcs\alcs_server.c ****             svr_key_item *node = NULL, *next = NULL;
  51:C:/Users/stapi/OneDrive/Desktop/GD32VW553/V1_MQTT_OK/GD32VW55X_Wifi_BLE_SDK/GD32VW55x_RELEASE_V1.0.2/MSDK/cloud/alicloud/src/protocol/alcs\alcs_server.c ****             list_for_each_entry_safe(node, next, &lst->lst_svr, lst, svr_key_item) {
  52:C:/Users/stapi/OneDrive/Desktop/GD32VW553/V1_MQTT_OK/GD32VW55X_Wifi_BLE_SDK/GD32VW55x_RELEASE_V1.0.2/MSDK/cloud/alicloud/src/protocol/alcs\alcs_server.c ****                 COAP_DEBUG("node prefix:%s", node->keyInfo.keyprefix);
  53:C:/Users/stapi/OneDrive/Desktop/GD32VW553/V1_MQTT_OK/GD32VW55X_Wifi_BLE_SDK/GD32VW55x_RELEASE_V1.0.2/MSDK/cloud/alicloud/src/protocol/alcs\alcs_server.c ****                 if (strlen(node->keyInfo.keyprefix) == prefixlen && strncmp(keyprefix, node->keyInf
  54:C:/Users/stapi/OneDrive/Desktop/GD32VW553/V1_MQTT_OK/GD32VW55X_Wifi_BLE_SDK/GD32VW55x_RELEASE_V1.0.2/MSDK/cloud/alicloud/src/protocol/alcs\alcs_server.c ****                     *res_code = ALCS_AUTH_OK;
  55:C:/Users/stapi/OneDrive/Desktop/GD32VW553/V1_MQTT_OK/GD32VW55X_Wifi_BLE_SDK/GD32VW55x_RELEASE_V1.0.2/MSDK/cloud/alicloud/src/protocol/alcs\alcs_server.c ****                     HAL_MutexUnlock(lst->list_mutex);
  56:C:/Users/stapi/OneDrive/Desktop/GD32VW553/V1_MQTT_OK/GD32VW55X_Wifi_BLE_SDK/GD32VW55x_RELEASE_V1.0.2/MSDK/cloud/alicloud/src/protocol/alcs\alcs_server.c ****                     return &node->keyInfo;
  57:C:/Users/stapi/OneDrive/Desktop/GD32VW553/V1_MQTT_OK/GD32VW55X_Wifi_BLE_SDK/GD32VW55x_RELEASE_V1.0.2/MSDK/cloud/alicloud/src/protocol/alcs\alcs_server.c ****                 }
  58:C:/Users/stapi/OneDrive/Desktop/GD32VW553/V1_MQTT_OK/GD32VW55X_Wifi_BLE_SDK/GD32VW55x_RELEASE_V1.0.2/MSDK/cloud/alicloud/src/protocol/alcs\alcs_server.c ****             }
  59:C:/Users/stapi/OneDrive/Desktop/GD32VW553/V1_MQTT_OK/GD32VW55X_Wifi_BLE_SDK/GD32VW55x_RELEASE_V1.0.2/MSDK/cloud/alicloud/src/protocol/alcs\alcs_server.c **** 
  60:C:/Users/stapi/OneDrive/Desktop/GD32VW553/V1_MQTT_OK/GD32VW55X_Wifi_BLE_SDK/GD32VW55x_RELEASE_V1.0.2/MSDK/cloud/alicloud/src/protocol/alcs\alcs_server.c ****             COAP_INFO("ALCS_AUTH_UNMATCHPREFIX:%d\r\n", ALCS_AUTH_UNMATCHPREFIX);
  61:C:/Users/stapi/OneDrive/Desktop/GD32VW553/V1_MQTT_OK/GD32VW55X_Wifi_BLE_SDK/GD32VW55x_RELEASE_V1.0.2/MSDK/cloud/alicloud/src/protocol/alcs\alcs_server.c ****             *res_code = ALCS_AUTH_UNMATCHPREFIX;
  62:C:/Users/stapi/OneDrive/Desktop/GD32VW553/V1_MQTT_OK/GD32VW55X_Wifi_BLE_SDK/GD32VW55x_RELEASE_V1.0.2/MSDK/cloud/alicloud/src/protocol/alcs\alcs_server.c ****         }
  63:C:/Users/stapi/OneDrive/Desktop/GD32VW553/V1_MQTT_OK/GD32VW55X_Wifi_BLE_SDK/GD32VW55x_RELEASE_V1.0.2/MSDK/cloud/alicloud/src/protocol/alcs\alcs_server.c **** 
  64:C:/Users/stapi/OneDrive/Desktop/GD32VW553/V1_MQTT_OK/GD32VW55X_Wifi_BLE_SDK/GD32VW55x_RELEASE_V1.0.2/MSDK/cloud/alicloud/src/protocol/alcs\alcs_server.c ****         HAL_MutexUnlock(lst->list_mutex);
  65:C:/Users/stapi/OneDrive/Desktop/GD32VW553/V1_MQTT_OK/GD32VW55X_Wifi_BLE_SDK/GD32VW55x_RELEASE_V1.0.2/MSDK/cloud/alicloud/src/protocol/alcs\alcs_server.c ****     }
  66:C:/Users/stapi/OneDrive/Desktop/GD32VW553/V1_MQTT_OK/GD32VW55X_Wifi_BLE_SDK/GD32VW55x_RELEASE_V1.0.2/MSDK/cloud/alicloud/src/protocol/alcs\alcs_server.c **** 
  67:C:/Users/stapi/OneDrive/Desktop/GD32VW553/V1_MQTT_OK/GD32VW55X_Wifi_BLE_SDK/GD32VW55x_RELEASE_V1.0.2/MSDK/cloud/alicloud/src/protocol/alcs\alcs_server.c ****     return NULL;
  68:C:/Users/stapi/OneDrive/Desktop/GD32VW553/V1_MQTT_OK/GD32VW55X_Wifi_BLE_SDK/GD32VW55x_RELEASE_V1.0.2/MSDK/cloud/alicloud/src/protocol/alcs\alcs_server.c **** }
  69:C:/Users/stapi/OneDrive/Desktop/GD32VW553/V1_MQTT_OK/GD32VW55X_Wifi_BLE_SDK/GD32VW55x_RELEASE_V1.0.2/MSDK/cloud/alicloud/src/protocol/alcs\alcs_server.c **** 
  70:C:/Users/stapi/OneDrive/Desktop/GD32VW553/V1_MQTT_OK/GD32VW55X_Wifi_BLE_SDK/GD32VW55x_RELEASE_V1.0.2/MSDK/cloud/alicloud/src/protocol/alcs\alcs_server.c **** void alcs_rec_auth(CoAPContext *ctx, const char *paths, NetworkAddr *from, CoAPMessage *resMsg)
  71:C:/Users/stapi/OneDrive/Desktop/GD32VW553/V1_MQTT_OK/GD32VW55X_Wifi_BLE_SDK/GD32VW55x_RELEASE_V1.0.2/MSDK/cloud/alicloud/src/protocol/alcs\alcs_server.c **** {
  72:C:/Users/stapi/OneDrive/Desktop/GD32VW553/V1_MQTT_OK/GD32VW55X_Wifi_BLE_SDK/GD32VW55x_RELEASE_V1.0.2/MSDK/cloud/alicloud/src/protocol/alcs\alcs_server.c ****     int seqlen, datalen;
  73:C:/Users/stapi/OneDrive/Desktop/GD32VW553/V1_MQTT_OK/GD32VW55X_Wifi_BLE_SDK/GD32VW55x_RELEASE_V1.0.2/MSDK/cloud/alicloud/src/protocol/alcs\alcs_server.c ****     char *seq, *data;
  74:C:/Users/stapi/OneDrive/Desktop/GD32VW553/V1_MQTT_OK/GD32VW55X_Wifi_BLE_SDK/GD32VW55x_RELEASE_V1.0.2/MSDK/cloud/alicloud/src/protocol/alcs\alcs_server.c ****     int res_code = 200;
  75:C:/Users/stapi/OneDrive/Desktop/GD32VW553/V1_MQTT_OK/GD32VW55X_Wifi_BLE_SDK/GD32VW55x_RELEASE_V1.0.2/MSDK/cloud/alicloud/src/protocol/alcs\alcs_server.c ****     char body[200] = {0};
  76:C:/Users/stapi/OneDrive/Desktop/GD32VW553/V1_MQTT_OK/GD32VW55X_Wifi_BLE_SDK/GD32VW55x_RELEASE_V1.0.2/MSDK/cloud/alicloud/src/protocol/alcs\alcs_server.c ****     COAP_INFO("receive data:%.*s, from:%s", resMsg->payloadlen, resMsg->payload, from->addr);
  77:C:/Users/stapi/OneDrive/Desktop/GD32VW553/V1_MQTT_OK/GD32VW55X_Wifi_BLE_SDK/GD32VW55x_RELEASE_V1.0.2/MSDK/cloud/alicloud/src/protocol/alcs\alcs_server.c **** 
  78:C:/Users/stapi/OneDrive/Desktop/GD32VW553/V1_MQTT_OK/GD32VW55X_Wifi_BLE_SDK/GD32VW55x_RELEASE_V1.0.2/MSDK/cloud/alicloud/src/protocol/alcs\alcs_server.c ****     do {
  79:C:/Users/stapi/OneDrive/Desktop/GD32VW553/V1_MQTT_OK/GD32VW55X_Wifi_BLE_SDK/GD32VW55x_RELEASE_V1.0.2/MSDK/cloud/alicloud/src/protocol/alcs\alcs_server.c ****         if (!req_payload_parser((const char *)resMsg->payload, resMsg->payloadlen, &seq, &seqlen, &
  80:C:/Users/stapi/OneDrive/Desktop/GD32VW553/V1_MQTT_OK/GD32VW55X_Wifi_BLE_SDK/GD32VW55x_RELEASE_V1.0.2/MSDK/cloud/alicloud/src/protocol/alcs\alcs_server.c ****             break;
  81:C:/Users/stapi/OneDrive/Desktop/GD32VW553/V1_MQTT_OK/GD32VW55X_Wifi_BLE_SDK/GD32VW55x_RELEASE_V1.0.2/MSDK/cloud/alicloud/src/protocol/alcs\alcs_server.c ****         }
  82:C:/Users/stapi/OneDrive/Desktop/GD32VW553/V1_MQTT_OK/GD32VW55X_Wifi_BLE_SDK/GD32VW55x_RELEASE_V1.0.2/MSDK/cloud/alicloud/src/protocol/alcs\alcs_server.c ****         char *tmp, *accesskey, *randomkey, *sign;
  83:C:/Users/stapi/OneDrive/Desktop/GD32VW553/V1_MQTT_OK/GD32VW55X_Wifi_BLE_SDK/GD32VW55x_RELEASE_V1.0.2/MSDK/cloud/alicloud/src/protocol/alcs\alcs_server.c ****         int tmplen;
  84:C:/Users/stapi/OneDrive/Desktop/GD32VW553/V1_MQTT_OK/GD32VW55X_Wifi_BLE_SDK/GD32VW55x_RELEASE_V1.0.2/MSDK/cloud/alicloud/src/protocol/alcs\alcs_server.c ****         accesskey = json_get_value_by_name(data, datalen, "accessKey", &tmplen, NULL);
  85:C:/Users/stapi/OneDrive/Desktop/GD32VW553/V1_MQTT_OK/GD32VW55X_Wifi_BLE_SDK/GD32VW55x_RELEASE_V1.0.2/MSDK/cloud/alicloud/src/protocol/alcs\alcs_server.c ****         COAP_INFO("accesskey:%.*s", tmplen, accesskey);
  86:C:/Users/stapi/OneDrive/Desktop/GD32VW553/V1_MQTT_OK/GD32VW55X_Wifi_BLE_SDK/GD32VW55x_RELEASE_V1.0.2/MSDK/cloud/alicloud/src/protocol/alcs\alcs_server.c **** 
  87:C:/Users/stapi/OneDrive/Desktop/GD32VW553/V1_MQTT_OK/GD32VW55X_Wifi_BLE_SDK/GD32VW55x_RELEASE_V1.0.2/MSDK/cloud/alicloud/src/protocol/alcs\alcs_server.c ****         if (!accesskey || tmplen != KEYPREFIX_LEN + 1 + 1 + KEYSEQ_LEN) {
  88:C:/Users/stapi/OneDrive/Desktop/GD32VW553/V1_MQTT_OK/GD32VW55X_Wifi_BLE_SDK/GD32VW55x_RELEASE_V1.0.2/MSDK/cloud/alicloud/src/protocol/alcs\alcs_server.c ****             break;
  89:C:/Users/stapi/OneDrive/Desktop/GD32VW553/V1_MQTT_OK/GD32VW55X_Wifi_BLE_SDK/GD32VW55x_RELEASE_V1.0.2/MSDK/cloud/alicloud/src/protocol/alcs\alcs_server.c ****         }
  90:C:/Users/stapi/OneDrive/Desktop/GD32VW553/V1_MQTT_OK/GD32VW55X_Wifi_BLE_SDK/GD32VW55x_RELEASE_V1.0.2/MSDK/cloud/alicloud/src/protocol/alcs\alcs_server.c **** 
  91:C:/Users/stapi/OneDrive/Desktop/GD32VW553/V1_MQTT_OK/GD32VW55X_Wifi_BLE_SDK/GD32VW55x_RELEASE_V1.0.2/MSDK/cloud/alicloud/src/protocol/alcs\alcs_server.c ****         char *keyprefix = accesskey;
  92:C:/Users/stapi/OneDrive/Desktop/GD32VW553/V1_MQTT_OK/GD32VW55X_Wifi_BLE_SDK/GD32VW55x_RELEASE_V1.0.2/MSDK/cloud/alicloud/src/protocol/alcs\alcs_server.c ****         char *keyseq = accesskey + KEYPREFIX_LEN + 1 + 1;
  93:C:/Users/stapi/OneDrive/Desktop/GD32VW553/V1_MQTT_OK/GD32VW55X_Wifi_BLE_SDK/GD32VW55x_RELEASE_V1.0.2/MSDK/cloud/alicloud/src/protocol/alcs\alcs_server.c **** 
  94:C:/Users/stapi/OneDrive/Desktop/GD32VW553/V1_MQTT_OK/GD32VW55X_Wifi_BLE_SDK/GD32VW55x_RELEASE_V1.0.2/MSDK/cloud/alicloud/src/protocol/alcs\alcs_server.c ****         svr_key_info *item = is_legal_key(ctx, keyprefix, KEYPREFIX_LEN, keyseq, KEYSEQ_LEN, &res_c
  95:C:/Users/stapi/OneDrive/Desktop/GD32VW553/V1_MQTT_OK/GD32VW55X_Wifi_BLE_SDK/GD32VW55x_RELEASE_V1.0.2/MSDK/cloud/alicloud/src/protocol/alcs\alcs_server.c ****         if (!item) {
  96:C:/Users/stapi/OneDrive/Desktop/GD32VW553/V1_MQTT_OK/GD32VW55X_Wifi_BLE_SDK/GD32VW55x_RELEASE_V1.0.2/MSDK/cloud/alicloud/src/protocol/alcs\alcs_server.c ****             COAP_INFO("islegal return null");
  97:C:/Users/stapi/OneDrive/Desktop/GD32VW553/V1_MQTT_OK/GD32VW55X_Wifi_BLE_SDK/GD32VW55x_RELEASE_V1.0.2/MSDK/cloud/alicloud/src/protocol/alcs\alcs_server.c ****             break;
  98:C:/Users/stapi/OneDrive/Desktop/GD32VW553/V1_MQTT_OK/GD32VW55X_Wifi_BLE_SDK/GD32VW55x_RELEASE_V1.0.2/MSDK/cloud/alicloud/src/protocol/alcs\alcs_server.c ****         }
  99:C:/Users/stapi/OneDrive/Desktop/GD32VW553/V1_MQTT_OK/GD32VW55X_Wifi_BLE_SDK/GD32VW55x_RELEASE_V1.0.2/MSDK/cloud/alicloud/src/protocol/alcs\alcs_server.c **** 
 100:C:/Users/stapi/OneDrive/Desktop/GD32VW553/V1_MQTT_OK/GD32VW55X_Wifi_BLE_SDK/GD32VW55x_RELEASE_V1.0.2/MSDK/cloud/alicloud/src/protocol/alcs\alcs_server.c ****         char accessToken[64];
 101:C:/Users/stapi/OneDrive/Desktop/GD32VW553/V1_MQTT_OK/GD32VW55X_Wifi_BLE_SDK/GD32VW55x_RELEASE_V1.0.2/MSDK/cloud/alicloud/src/protocol/alcs\alcs_server.c ****         int tokenlen = sizeof(accessToken);
 102:C:/Users/stapi/OneDrive/Desktop/GD32VW553/V1_MQTT_OK/GD32VW55X_Wifi_BLE_SDK/GD32VW55x_RELEASE_V1.0.2/MSDK/cloud/alicloud/src/protocol/alcs\alcs_server.c ****         utils_hmac_sha1_base64(accesskey, tmplen, item->secret, strlen(item->secret), accessToken, 
 103:C:/Users/stapi/OneDrive/Desktop/GD32VW553/V1_MQTT_OK/GD32VW55X_Wifi_BLE_SDK/GD32VW55x_RELEASE_V1.0.2/MSDK/cloud/alicloud/src/protocol/alcs\alcs_server.c **** 
 104:C:/Users/stapi/OneDrive/Desktop/GD32VW553/V1_MQTT_OK/GD32VW55X_Wifi_BLE_SDK/GD32VW55x_RELEASE_V1.0.2/MSDK/cloud/alicloud/src/protocol/alcs\alcs_server.c ****         COAP_INFO("accessToken:%.*s", tokenlen, accessToken);
 105:C:/Users/stapi/OneDrive/Desktop/GD32VW553/V1_MQTT_OK/GD32VW55X_Wifi_BLE_SDK/GD32VW55x_RELEASE_V1.0.2/MSDK/cloud/alicloud/src/protocol/alcs\alcs_server.c **** 
 106:C:/Users/stapi/OneDrive/Desktop/GD32VW553/V1_MQTT_OK/GD32VW55X_Wifi_BLE_SDK/GD32VW55x_RELEASE_V1.0.2/MSDK/cloud/alicloud/src/protocol/alcs\alcs_server.c ****         int randomkeylen;
 107:C:/Users/stapi/OneDrive/Desktop/GD32VW553/V1_MQTT_OK/GD32VW55X_Wifi_BLE_SDK/GD32VW55x_RELEASE_V1.0.2/MSDK/cloud/alicloud/src/protocol/alcs\alcs_server.c ****         randomkey = json_get_value_by_name(data, datalen, "randomKey", &randomkeylen, NULL);
 108:C:/Users/stapi/OneDrive/Desktop/GD32VW553/V1_MQTT_OK/GD32VW55X_Wifi_BLE_SDK/GD32VW55x_RELEASE_V1.0.2/MSDK/cloud/alicloud/src/protocol/alcs\alcs_server.c ****         if (!randomkey || !randomkeylen) {
 109:C:/Users/stapi/OneDrive/Desktop/GD32VW553/V1_MQTT_OK/GD32VW55X_Wifi_BLE_SDK/GD32VW55x_RELEASE_V1.0.2/MSDK/cloud/alicloud/src/protocol/alcs\alcs_server.c ****             res_code = ALCS_AUTH_INVALIDPARAM;
 110:C:/Users/stapi/OneDrive/Desktop/GD32VW553/V1_MQTT_OK/GD32VW55X_Wifi_BLE_SDK/GD32VW55x_RELEASE_V1.0.2/MSDK/cloud/alicloud/src/protocol/alcs\alcs_server.c ****             break;
 111:C:/Users/stapi/OneDrive/Desktop/GD32VW553/V1_MQTT_OK/GD32VW55X_Wifi_BLE_SDK/GD32VW55x_RELEASE_V1.0.2/MSDK/cloud/alicloud/src/protocol/alcs\alcs_server.c ****         }
 112:C:/Users/stapi/OneDrive/Desktop/GD32VW553/V1_MQTT_OK/GD32VW55X_Wifi_BLE_SDK/GD32VW55x_RELEASE_V1.0.2/MSDK/cloud/alicloud/src/protocol/alcs\alcs_server.c **** 
 113:C:/Users/stapi/OneDrive/Desktop/GD32VW553/V1_MQTT_OK/GD32VW55X_Wifi_BLE_SDK/GD32VW55x_RELEASE_V1.0.2/MSDK/cloud/alicloud/src/protocol/alcs\alcs_server.c ****         tmp = json_get_value_by_name(data, datalen, "opt", &tmplen, NULL);
 114:C:/Users/stapi/OneDrive/Desktop/GD32VW553/V1_MQTT_OK/GD32VW55X_Wifi_BLE_SDK/GD32VW55x_RELEASE_V1.0.2/MSDK/cloud/alicloud/src/protocol/alcs\alcs_server.c ****         int support_opt = 0;
 115:C:/Users/stapi/OneDrive/Desktop/GD32VW553/V1_MQTT_OK/GD32VW55X_Wifi_BLE_SDK/GD32VW55x_RELEASE_V1.0.2/MSDK/cloud/alicloud/src/protocol/alcs\alcs_server.c ****         if (tmp) {
 116:C:/Users/stapi/OneDrive/Desktop/GD32VW553/V1_MQTT_OK/GD32VW55X_Wifi_BLE_SDK/GD32VW55x_RELEASE_V1.0.2/MSDK/cloud/alicloud/src/protocol/alcs\alcs_server.c ****             char back;
 117:C:/Users/stapi/OneDrive/Desktop/GD32VW553/V1_MQTT_OK/GD32VW55X_Wifi_BLE_SDK/GD32VW55x_RELEASE_V1.0.2/MSDK/cloud/alicloud/src/protocol/alcs\alcs_server.c ****             backup_json_str_last_char (tmp, tmplen, back);
 118:C:/Users/stapi/OneDrive/Desktop/GD32VW553/V1_MQTT_OK/GD32VW55X_Wifi_BLE_SDK/GD32VW55x_RELEASE_V1.0.2/MSDK/cloud/alicloud/src/protocol/alcs\alcs_server.c ****             support_opt = atoi (tmp);
 119:C:/Users/stapi/OneDrive/Desktop/GD32VW553/V1_MQTT_OK/GD32VW55X_Wifi_BLE_SDK/GD32VW55x_RELEASE_V1.0.2/MSDK/cloud/alicloud/src/protocol/alcs\alcs_server.c ****             restore_json_str_last_char (tmp, tmplen, back);
 120:C:/Users/stapi/OneDrive/Desktop/GD32VW553/V1_MQTT_OK/GD32VW55X_Wifi_BLE_SDK/GD32VW55x_RELEASE_V1.0.2/MSDK/cloud/alicloud/src/protocol/alcs\alcs_server.c ****             COAP_DEBUG ("opt:%d", support_opt);
 121:C:/Users/stapi/OneDrive/Desktop/GD32VW553/V1_MQTT_OK/GD32VW55X_Wifi_BLE_SDK/GD32VW55x_RELEASE_V1.0.2/MSDK/cloud/alicloud/src/protocol/alcs\alcs_server.c ****         }
 122:C:/Users/stapi/OneDrive/Desktop/GD32VW553/V1_MQTT_OK/GD32VW55X_Wifi_BLE_SDK/GD32VW55x_RELEASE_V1.0.2/MSDK/cloud/alicloud/src/protocol/alcs\alcs_server.c **** 
 123:C:/Users/stapi/OneDrive/Desktop/GD32VW553/V1_MQTT_OK/GD32VW55X_Wifi_BLE_SDK/GD32VW55x_RELEASE_V1.0.2/MSDK/cloud/alicloud/src/protocol/alcs\alcs_server.c ****         /*calc sign, save in buf*/
 124:C:/Users/stapi/OneDrive/Desktop/GD32VW553/V1_MQTT_OK/GD32VW55X_Wifi_BLE_SDK/GD32VW55x_RELEASE_V1.0.2/MSDK/cloud/alicloud/src/protocol/alcs\alcs_server.c ****         char buf[40];
 125:C:/Users/stapi/OneDrive/Desktop/GD32VW553/V1_MQTT_OK/GD32VW55X_Wifi_BLE_SDK/GD32VW55x_RELEASE_V1.0.2/MSDK/cloud/alicloud/src/protocol/alcs\alcs_server.c ****         int calc_sign_len = sizeof(buf);
 126:C:/Users/stapi/OneDrive/Desktop/GD32VW553/V1_MQTT_OK/GD32VW55X_Wifi_BLE_SDK/GD32VW55x_RELEASE_V1.0.2/MSDK/cloud/alicloud/src/protocol/alcs\alcs_server.c ****         utils_hmac_sha1_base64(randomkey, randomkeylen, accessToken, tokenlen, buf, &calc_sign_len)
 127:C:/Users/stapi/OneDrive/Desktop/GD32VW553/V1_MQTT_OK/GD32VW55X_Wifi_BLE_SDK/GD32VW55x_RELEASE_V1.0.2/MSDK/cloud/alicloud/src/protocol/alcs\alcs_server.c **** 
 128:C:/Users/stapi/OneDrive/Desktop/GD32VW553/V1_MQTT_OK/GD32VW55X_Wifi_BLE_SDK/GD32VW55x_RELEASE_V1.0.2/MSDK/cloud/alicloud/src/protocol/alcs\alcs_server.c ****         COAP_INFO("calc randomKey:%.*s,token:%.*s,sign:%.*s", randomkeylen, randomkey, tokenlen,
 129:C:/Users/stapi/OneDrive/Desktop/GD32VW553/V1_MQTT_OK/GD32VW55X_Wifi_BLE_SDK/GD32VW55x_RELEASE_V1.0.2/MSDK/cloud/alicloud/src/protocol/alcs\alcs_server.c ****                   accessToken, calc_sign_len, buf);
 130:C:/Users/stapi/OneDrive/Desktop/GD32VW553/V1_MQTT_OK/GD32VW55X_Wifi_BLE_SDK/GD32VW55x_RELEASE_V1.0.2/MSDK/cloud/alicloud/src/protocol/alcs\alcs_server.c **** 
 131:C:/Users/stapi/OneDrive/Desktop/GD32VW553/V1_MQTT_OK/GD32VW55X_Wifi_BLE_SDK/GD32VW55x_RELEASE_V1.0.2/MSDK/cloud/alicloud/src/protocol/alcs\alcs_server.c ****         sign = json_get_value_by_name(data, datalen, "sign", &tmplen, NULL);
 132:C:/Users/stapi/OneDrive/Desktop/GD32VW553/V1_MQTT_OK/GD32VW55X_Wifi_BLE_SDK/GD32VW55x_RELEASE_V1.0.2/MSDK/cloud/alicloud/src/protocol/alcs\alcs_server.c ****         if (!sign || tmplen != calc_sign_len || strncmp(sign, buf, calc_sign_len)) {
 133:C:/Users/stapi/OneDrive/Desktop/GD32VW553/V1_MQTT_OK/GD32VW55X_Wifi_BLE_SDK/GD32VW55x_RELEASE_V1.0.2/MSDK/cloud/alicloud/src/protocol/alcs\alcs_server.c ****             res_code = ALCS_AUTH_ILLEGALSIGN;
 134:C:/Users/stapi/OneDrive/Desktop/GD32VW553/V1_MQTT_OK/GD32VW55X_Wifi_BLE_SDK/GD32VW55x_RELEASE_V1.0.2/MSDK/cloud/alicloud/src/protocol/alcs\alcs_server.c ****             break;
 135:C:/Users/stapi/OneDrive/Desktop/GD32VW553/V1_MQTT_OK/GD32VW55X_Wifi_BLE_SDK/GD32VW55x_RELEASE_V1.0.2/MSDK/cloud/alicloud/src/protocol/alcs\alcs_server.c ****         }
 136:C:/Users/stapi/OneDrive/Desktop/GD32VW553/V1_MQTT_OK/GD32VW55X_Wifi_BLE_SDK/GD32VW55x_RELEASE_V1.0.2/MSDK/cloud/alicloud/src/protocol/alcs\alcs_server.c **** 
 137:C:/Users/stapi/OneDrive/Desktop/GD32VW553/V1_MQTT_OK/GD32VW55X_Wifi_BLE_SDK/GD32VW55x_RELEASE_V1.0.2/MSDK/cloud/alicloud/src/protocol/alcs\alcs_server.c ****         int pklen, dnlen;
 138:C:/Users/stapi/OneDrive/Desktop/GD32VW553/V1_MQTT_OK/GD32VW55X_Wifi_BLE_SDK/GD32VW55x_RELEASE_V1.0.2/MSDK/cloud/alicloud/src/protocol/alcs\alcs_server.c ****         char *pk = json_get_value_by_name(data, datalen, "prodKey", &pklen, NULL);
 139:C:/Users/stapi/OneDrive/Desktop/GD32VW553/V1_MQTT_OK/GD32VW55X_Wifi_BLE_SDK/GD32VW55x_RELEASE_V1.0.2/MSDK/cloud/alicloud/src/protocol/alcs\alcs_server.c ****         char *dn = json_get_value_by_name(data, datalen, "deviceName", &dnlen, NULL);
 140:C:/Users/stapi/OneDrive/Desktop/GD32VW553/V1_MQTT_OK/GD32VW55X_Wifi_BLE_SDK/GD32VW55x_RELEASE_V1.0.2/MSDK/cloud/alicloud/src/protocol/alcs\alcs_server.c **** 
 141:C:/Users/stapi/OneDrive/Desktop/GD32VW553/V1_MQTT_OK/GD32VW55X_Wifi_BLE_SDK/GD32VW55x_RELEASE_V1.0.2/MSDK/cloud/alicloud/src/protocol/alcs\alcs_server.c ****         if (!pk || !pklen || !dn || !dnlen) {
 142:C:/Users/stapi/OneDrive/Desktop/GD32VW553/V1_MQTT_OK/GD32VW55X_Wifi_BLE_SDK/GD32VW55x_RELEASE_V1.0.2/MSDK/cloud/alicloud/src/protocol/alcs\alcs_server.c ****             res_code = ALCS_AUTH_INVALIDPARAM;
 143:C:/Users/stapi/OneDrive/Desktop/GD32VW553/V1_MQTT_OK/GD32VW55X_Wifi_BLE_SDK/GD32VW55x_RELEASE_V1.0.2/MSDK/cloud/alicloud/src/protocol/alcs\alcs_server.c ****             break;
 144:C:/Users/stapi/OneDrive/Desktop/GD32VW553/V1_MQTT_OK/GD32VW55X_Wifi_BLE_SDK/GD32VW55x_RELEASE_V1.0.2/MSDK/cloud/alicloud/src/protocol/alcs\alcs_server.c ****         }
 145:C:/Users/stapi/OneDrive/Desktop/GD32VW553/V1_MQTT_OK/GD32VW55X_Wifi_BLE_SDK/GD32VW55x_RELEASE_V1.0.2/MSDK/cloud/alicloud/src/protocol/alcs\alcs_server.c ****         char tmp1 = pk[pklen];
 146:C:/Users/stapi/OneDrive/Desktop/GD32VW553/V1_MQTT_OK/GD32VW55X_Wifi_BLE_SDK/GD32VW55x_RELEASE_V1.0.2/MSDK/cloud/alicloud/src/protocol/alcs\alcs_server.c ****         char tmp2 = dn[dnlen];
 147:C:/Users/stapi/OneDrive/Desktop/GD32VW553/V1_MQTT_OK/GD32VW55X_Wifi_BLE_SDK/GD32VW55x_RELEASE_V1.0.2/MSDK/cloud/alicloud/src/protocol/alcs\alcs_server.c ****         pk[pklen] = 0;
 148:C:/Users/stapi/OneDrive/Desktop/GD32VW553/V1_MQTT_OK/GD32VW55X_Wifi_BLE_SDK/GD32VW55x_RELEASE_V1.0.2/MSDK/cloud/alicloud/src/protocol/alcs\alcs_server.c ****         dn[dnlen] = 0;
 149:C:/Users/stapi/OneDrive/Desktop/GD32VW553/V1_MQTT_OK/GD32VW55X_Wifi_BLE_SDK/GD32VW55x_RELEASE_V1.0.2/MSDK/cloud/alicloud/src/protocol/alcs\alcs_server.c **** 
 150:C:/Users/stapi/OneDrive/Desktop/GD32VW553/V1_MQTT_OK/GD32VW55X_Wifi_BLE_SDK/GD32VW55x_RELEASE_V1.0.2/MSDK/cloud/alicloud/src/protocol/alcs\alcs_server.c ****         AlcsDeviceKey devKey;
 151:C:/Users/stapi/OneDrive/Desktop/GD32VW553/V1_MQTT_OK/GD32VW55X_Wifi_BLE_SDK/GD32VW55x_RELEASE_V1.0.2/MSDK/cloud/alicloud/src/protocol/alcs\alcs_server.c ****         memset(&devKey, 0x00, sizeof(AlcsDeviceKey));
 152:C:/Users/stapi/OneDrive/Desktop/GD32VW553/V1_MQTT_OK/GD32VW55X_Wifi_BLE_SDK/GD32VW55x_RELEASE_V1.0.2/MSDK/cloud/alicloud/src/protocol/alcs\alcs_server.c ****         memcpy(&devKey.addr, from, sizeof(NetworkAddr));
 153:C:/Users/stapi/OneDrive/Desktop/GD32VW553/V1_MQTT_OK/GD32VW55X_Wifi_BLE_SDK/GD32VW55x_RELEASE_V1.0.2/MSDK/cloud/alicloud/src/protocol/alcs\alcs_server.c ****         devKey.pk = pk;
 154:C:/Users/stapi/OneDrive/Desktop/GD32VW553/V1_MQTT_OK/GD32VW55X_Wifi_BLE_SDK/GD32VW55x_RELEASE_V1.0.2/MSDK/cloud/alicloud/src/protocol/alcs\alcs_server.c ****         devKey.dn = dn;
 155:C:/Users/stapi/OneDrive/Desktop/GD32VW553/V1_MQTT_OK/GD32VW55X_Wifi_BLE_SDK/GD32VW55x_RELEASE_V1.0.2/MSDK/cloud/alicloud/src/protocol/alcs\alcs_server.c **** 
 156:C:/Users/stapi/OneDrive/Desktop/GD32VW553/V1_MQTT_OK/GD32VW55X_Wifi_BLE_SDK/GD32VW55x_RELEASE_V1.0.2/MSDK/cloud/alicloud/src/protocol/alcs\alcs_server.c ****         struct list_head *svr_head = get_svr_session_list();
 157:C:/Users/stapi/OneDrive/Desktop/GD32VW553/V1_MQTT_OK/GD32VW55X_Wifi_BLE_SDK/GD32VW55x_RELEASE_V1.0.2/MSDK/cloud/alicloud/src/protocol/alcs\alcs_server.c ****         remove_session_safe (ctx, svr_head, &devKey);
 158:C:/Users/stapi/OneDrive/Desktop/GD32VW553/V1_MQTT_OK/GD32VW55X_Wifi_BLE_SDK/GD32VW55x_RELEASE_V1.0.2/MSDK/cloud/alicloud/src/protocol/alcs\alcs_server.c **** 
 159:C:/Users/stapi/OneDrive/Desktop/GD32VW553/V1_MQTT_OK/GD32VW55X_Wifi_BLE_SDK/GD32VW55x_RELEASE_V1.0.2/MSDK/cloud/alicloud/src/protocol/alcs\alcs_server.c ****         session_item * session = (session_item *)coap_malloc(sizeof(session_item));
 160:C:/Users/stapi/OneDrive/Desktop/GD32VW553/V1_MQTT_OK/GD32VW55X_Wifi_BLE_SDK/GD32VW55x_RELEASE_V1.0.2/MSDK/cloud/alicloud/src/protocol/alcs\alcs_server.c ****         gen_random_key((unsigned char *)session->randomKey, RANDOMKEY_LEN);
 161:C:/Users/stapi/OneDrive/Desktop/GD32VW553/V1_MQTT_OK/GD32VW55X_Wifi_BLE_SDK/GD32VW55x_RELEASE_V1.0.2/MSDK/cloud/alicloud/src/protocol/alcs\alcs_server.c ****         session->sessionId = ++sessionid_seed;
 162:C:/Users/stapi/OneDrive/Desktop/GD32VW553/V1_MQTT_OK/GD32VW55X_Wifi_BLE_SDK/GD32VW55x_RELEASE_V1.0.2/MSDK/cloud/alicloud/src/protocol/alcs\alcs_server.c ****         char path[100] = {0};
 163:C:/Users/stapi/OneDrive/Desktop/GD32VW553/V1_MQTT_OK/GD32VW55X_Wifi_BLE_SDK/GD32VW55x_RELEASE_V1.0.2/MSDK/cloud/alicloud/src/protocol/alcs\alcs_server.c ****         strncpy(path, pk, sizeof(path));
 164:C:/Users/stapi/OneDrive/Desktop/GD32VW553/V1_MQTT_OK/GD32VW55X_Wifi_BLE_SDK/GD32VW55x_RELEASE_V1.0.2/MSDK/cloud/alicloud/src/protocol/alcs\alcs_server.c ****         strncat(path, dn, sizeof(path) - strlen(path) - 1);
 165:C:/Users/stapi/OneDrive/Desktop/GD32VW553/V1_MQTT_OK/GD32VW55X_Wifi_BLE_SDK/GD32VW55x_RELEASE_V1.0.2/MSDK/cloud/alicloud/src/protocol/alcs\alcs_server.c ****         CoAPPathMD5_sum(path, strlen(path), session->pk_dn, PK_DN_CHECKSUM_LEN);
 166:C:/Users/stapi/OneDrive/Desktop/GD32VW553/V1_MQTT_OK/GD32VW55X_Wifi_BLE_SDK/GD32VW55x_RELEASE_V1.0.2/MSDK/cloud/alicloud/src/protocol/alcs\alcs_server.c **** 
 167:C:/Users/stapi/OneDrive/Desktop/GD32VW553/V1_MQTT_OK/GD32VW55X_Wifi_BLE_SDK/GD32VW55x_RELEASE_V1.0.2/MSDK/cloud/alicloud/src/protocol/alcs\alcs_server.c ****         memcpy(&session->addr, from, sizeof(NetworkAddr));
 168:C:/Users/stapi/OneDrive/Desktop/GD32VW553/V1_MQTT_OK/GD32VW55X_Wifi_BLE_SDK/GD32VW55x_RELEASE_V1.0.2/MSDK/cloud/alicloud/src/protocol/alcs\alcs_server.c ****         COAP_INFO("new session, id:%d, addr:%s, port:%d", session->sessionId, session->addr.addr, s
 169:C:/Users/stapi/OneDrive/Desktop/GD32VW553/V1_MQTT_OK/GD32VW55X_Wifi_BLE_SDK/GD32VW55x_RELEASE_V1.0.2/MSDK/cloud/alicloud/src/protocol/alcs\alcs_server.c **** 
 170:C:/Users/stapi/OneDrive/Desktop/GD32VW553/V1_MQTT_OK/GD32VW55X_Wifi_BLE_SDK/GD32VW55x_RELEASE_V1.0.2/MSDK/cloud/alicloud/src/protocol/alcs\alcs_server.c ****         pk[pklen] = tmp1;
 171:C:/Users/stapi/OneDrive/Desktop/GD32VW553/V1_MQTT_OK/GD32VW55X_Wifi_BLE_SDK/GD32VW55x_RELEASE_V1.0.2/MSDK/cloud/alicloud/src/protocol/alcs\alcs_server.c ****         dn[dnlen] = tmp2;
 172:C:/Users/stapi/OneDrive/Desktop/GD32VW553/V1_MQTT_OK/GD32VW55X_Wifi_BLE_SDK/GD32VW55x_RELEASE_V1.0.2/MSDK/cloud/alicloud/src/protocol/alcs\alcs_server.c **** 
 173:C:/Users/stapi/OneDrive/Desktop/GD32VW553/V1_MQTT_OK/GD32VW55X_Wifi_BLE_SDK/GD32VW55x_RELEASE_V1.0.2/MSDK/cloud/alicloud/src/protocol/alcs\alcs_server.c ****         snprintf(buf, sizeof(buf), "%.*s%s", randomkeylen, randomkey, session->randomKey);
 174:C:/Users/stapi/OneDrive/Desktop/GD32VW553/V1_MQTT_OK/GD32VW55X_Wifi_BLE_SDK/GD32VW55x_RELEASE_V1.0.2/MSDK/cloud/alicloud/src/protocol/alcs\alcs_server.c ****         utils_hmac_sha1_raw(buf, strlen(buf), session->sessionKey, accessToken, tokenlen);
 175:C:/Users/stapi/OneDrive/Desktop/GD32VW553/V1_MQTT_OK/GD32VW55X_Wifi_BLE_SDK/GD32VW55x_RELEASE_V1.0.2/MSDK/cloud/alicloud/src/protocol/alcs\alcs_server.c **** 
 176:C:/Users/stapi/OneDrive/Desktop/GD32VW553/V1_MQTT_OK/GD32VW55X_Wifi_BLE_SDK/GD32VW55x_RELEASE_V1.0.2/MSDK/cloud/alicloud/src/protocol/alcs\alcs_server.c ****         session->opt = ALCS_OPT_HEART_V1;
 177:C:/Users/stapi/OneDrive/Desktop/GD32VW553/V1_MQTT_OK/GD32VW55X_Wifi_BLE_SDK/GD32VW55x_RELEASE_V1.0.2/MSDK/cloud/alicloud/src/protocol/alcs\alcs_server.c ****         if (support_opt & ALCS_OPT_PAYLOAD_CHECKSUM) {
 178:C:/Users/stapi/OneDrive/Desktop/GD32VW553/V1_MQTT_OK/GD32VW55X_Wifi_BLE_SDK/GD32VW55x_RELEASE_V1.0.2/MSDK/cloud/alicloud/src/protocol/alcs\alcs_server.c ****             //session->opt |= ALCS_OPT_PAYLOAD_CHECKSUM;
 179:C:/Users/stapi/OneDrive/Desktop/GD32VW553/V1_MQTT_OK/GD32VW55X_Wifi_BLE_SDK/GD32VW55x_RELEASE_V1.0.2/MSDK/cloud/alicloud/src/protocol/alcs\alcs_server.c ****         }
 180:C:/Users/stapi/OneDrive/Desktop/GD32VW553/V1_MQTT_OK/GD32VW55X_Wifi_BLE_SDK/GD32VW55x_RELEASE_V1.0.2/MSDK/cloud/alicloud/src/protocol/alcs\alcs_server.c **** 
 181:C:/Users/stapi/OneDrive/Desktop/GD32VW553/V1_MQTT_OK/GD32VW55X_Wifi_BLE_SDK/GD32VW55x_RELEASE_V1.0.2/MSDK/cloud/alicloud/src/protocol/alcs\alcs_server.c ****         if (support_opt & ALCS_OPT_SUPPORT_SEQWINDOWS) {
 182:C:/Users/stapi/OneDrive/Desktop/GD32VW553/V1_MQTT_OK/GD32VW55X_Wifi_BLE_SDK/GD32VW55x_RELEASE_V1.0.2/MSDK/cloud/alicloud/src/protocol/alcs\alcs_server.c ****             //session->opt |= ALCS_OPT_SUPPORT_SEQWINDOWS;
 183:C:/Users/stapi/OneDrive/Desktop/GD32VW553/V1_MQTT_OK/GD32VW55X_Wifi_BLE_SDK/GD32VW55x_RELEASE_V1.0.2/MSDK/cloud/alicloud/src/protocol/alcs\alcs_server.c ****             //session->seqWindow = (seq_window_item*)coap_malloc(sizeof(seq_window_item));
 184:C:/Users/stapi/OneDrive/Desktop/GD32VW553/V1_MQTT_OK/GD32VW55X_Wifi_BLE_SDK/GD32VW55x_RELEASE_V1.0.2/MSDK/cloud/alicloud/src/protocol/alcs\alcs_server.c ****             //if (session->seqWindow) {
 185:C:/Users/stapi/OneDrive/Desktop/GD32VW553/V1_MQTT_OK/GD32VW55X_Wifi_BLE_SDK/GD32VW55x_RELEASE_V1.0.2/MSDK/cloud/alicloud/src/protocol/alcs\alcs_server.c ****             //    memset (session->seqWindow, 0, sizeof(seq_window_item));
 186:C:/Users/stapi/OneDrive/Desktop/GD32VW553/V1_MQTT_OK/GD32VW55X_Wifi_BLE_SDK/GD32VW55x_RELEASE_V1.0.2/MSDK/cloud/alicloud/src/protocol/alcs\alcs_server.c ****             //}
 187:C:/Users/stapi/OneDrive/Desktop/GD32VW553/V1_MQTT_OK/GD32VW55X_Wifi_BLE_SDK/GD32VW55x_RELEASE_V1.0.2/MSDK/cloud/alicloud/src/protocol/alcs\alcs_server.c ****         }
 188:C:/Users/stapi/OneDrive/Desktop/GD32VW553/V1_MQTT_OK/GD32VW55X_Wifi_BLE_SDK/GD32VW55x_RELEASE_V1.0.2/MSDK/cloud/alicloud/src/protocol/alcs\alcs_server.c **** 
 189:C:/Users/stapi/OneDrive/Desktop/GD32VW553/V1_MQTT_OK/GD32VW55X_Wifi_BLE_SDK/GD32VW55x_RELEASE_V1.0.2/MSDK/cloud/alicloud/src/protocol/alcs\alcs_server.c ****         /*calc sign, save in buf*/
 190:C:/Users/stapi/OneDrive/Desktop/GD32VW553/V1_MQTT_OK/GD32VW55X_Wifi_BLE_SDK/GD32VW55x_RELEASE_V1.0.2/MSDK/cloud/alicloud/src/protocol/alcs\alcs_server.c ****         calc_sign_len = sizeof(buf);
 191:C:/Users/stapi/OneDrive/Desktop/GD32VW553/V1_MQTT_OK/GD32VW55X_Wifi_BLE_SDK/GD32VW55x_RELEASE_V1.0.2/MSDK/cloud/alicloud/src/protocol/alcs\alcs_server.c ****         utils_hmac_sha1_base64(session->randomKey, RANDOMKEY_LEN, accessToken, tokenlen, buf, &calc
 192:C:/Users/stapi/OneDrive/Desktop/GD32VW553/V1_MQTT_OK/GD32VW55X_Wifi_BLE_SDK/GD32VW55x_RELEASE_V1.0.2/MSDK/cloud/alicloud/src/protocol/alcs\alcs_server.c ****         snprintf(body, sizeof(body), "\"sign\":\"%.*s\",\"randomKey\":\"%s\",\"sessionId\":%d,\"exp
 193:C:/Users/stapi/OneDrive/Desktop/GD32VW553/V1_MQTT_OK/GD32VW55X_Wifi_BLE_SDK/GD32VW55x_RELEASE_V1.0.2/MSDK/cloud/alicloud/src/protocol/alcs\alcs_server.c ****                  calc_sign_len, buf, session->randomKey, session->sessionId, session->opt,session->
 194:C:/Users/stapi/OneDrive/Desktop/GD32VW553/V1_MQTT_OK/GD32VW55X_Wifi_BLE_SDK/GD32VW55x_RELEASE_V1.0.2/MSDK/cloud/alicloud/src/protocol/alcs\alcs_server.c ****         COAP_ERR("send response:%s", body);
 195:C:/Users/stapi/OneDrive/Desktop/GD32VW553/V1_MQTT_OK/GD32VW55X_Wifi_BLE_SDK/GD32VW55x_RELEASE_V1.0.2/MSDK/cloud/alicloud/src/protocol/alcs\alcs_server.c ****         session->authed_time = HAL_UptimeMs();
 196:C:/Users/stapi/OneDrive/Desktop/GD32VW553/V1_MQTT_OK/GD32VW55X_Wifi_BLE_SDK/GD32VW55x_RELEASE_V1.0.2/MSDK/cloud/alicloud/src/protocol/alcs\alcs_server.c ****         session->heart_time = session->authed_time;
 197:C:/Users/stapi/OneDrive/Desktop/GD32VW553/V1_MQTT_OK/GD32VW55X_Wifi_BLE_SDK/GD32VW55x_RELEASE_V1.0.2/MSDK/cloud/alicloud/src/protocol/alcs\alcs_server.c **** 
 198:C:/Users/stapi/OneDrive/Desktop/GD32VW553/V1_MQTT_OK/GD32VW55X_Wifi_BLE_SDK/GD32VW55x_RELEASE_V1.0.2/MSDK/cloud/alicloud/src/protocol/alcs\alcs_server.c ****         device_auth_list *dev_lst = get_device ();
 199:C:/Users/stapi/OneDrive/Desktop/GD32VW553/V1_MQTT_OK/GD32VW55X_Wifi_BLE_SDK/GD32VW55x_RELEASE_V1.0.2/MSDK/cloud/alicloud/src/protocol/alcs\alcs_server.c ****         HAL_MutexLock(dev_lst->list_mutex);
 200:C:/Users/stapi/OneDrive/Desktop/GD32VW553/V1_MQTT_OK/GD32VW55X_Wifi_BLE_SDK/GD32VW55x_RELEASE_V1.0.2/MSDK/cloud/alicloud/src/protocol/alcs\alcs_server.c ****         list_add_tail(&session->lst, svr_head);
 201:C:/Users/stapi/OneDrive/Desktop/GD32VW553/V1_MQTT_OK/GD32VW55X_Wifi_BLE_SDK/GD32VW55x_RELEASE_V1.0.2/MSDK/cloud/alicloud/src/protocol/alcs\alcs_server.c ****         HAL_MutexUnlock(dev_lst->list_mutex);
 202:C:/Users/stapi/OneDrive/Desktop/GD32VW553/V1_MQTT_OK/GD32VW55X_Wifi_BLE_SDK/GD32VW55x_RELEASE_V1.0.2/MSDK/cloud/alicloud/src/protocol/alcs\alcs_server.c ****         // ???
 203:C:/Users/stapi/OneDrive/Desktop/GD32VW553/V1_MQTT_OK/GD32VW55X_Wifi_BLE_SDK/GD32VW55x_RELEASE_V1.0.2/MSDK/cloud/alicloud/src/protocol/alcs\alcs_server.c ****         //result = 1;
 204:C:/Users/stapi/OneDrive/Desktop/GD32VW553/V1_MQTT_OK/GD32VW55X_Wifi_BLE_SDK/GD32VW55x_RELEASE_V1.0.2/MSDK/cloud/alicloud/src/protocol/alcs\alcs_server.c **** 
 205:C:/Users/stapi/OneDrive/Desktop/GD32VW553/V1_MQTT_OK/GD32VW55X_Wifi_BLE_SDK/GD32VW55x_RELEASE_V1.0.2/MSDK/cloud/alicloud/src/protocol/alcs\alcs_server.c ****     } while (0);
 206:C:/Users/stapi/OneDrive/Desktop/GD32VW553/V1_MQTT_OK/GD32VW55X_Wifi_BLE_SDK/GD32VW55x_RELEASE_V1.0.2/MSDK/cloud/alicloud/src/protocol/alcs\alcs_server.c **** 
 207:C:/Users/stapi/OneDrive/Desktop/GD32VW553/V1_MQTT_OK/GD32VW55X_Wifi_BLE_SDK/GD32VW55x_RELEASE_V1.0.2/MSDK/cloud/alicloud/src/protocol/alcs\alcs_server.c ****     CoAPMessage message;
 208:C:/Users/stapi/OneDrive/Desktop/GD32VW553/V1_MQTT_OK/GD32VW55X_Wifi_BLE_SDK/GD32VW55x_RELEASE_V1.0.2/MSDK/cloud/alicloud/src/protocol/alcs\alcs_server.c ****     char payloadbuf[512];
 209:C:/Users/stapi/OneDrive/Desktop/GD32VW553/V1_MQTT_OK/GD32VW55X_Wifi_BLE_SDK/GD32VW55x_RELEASE_V1.0.2/MSDK/cloud/alicloud/src/protocol/alcs\alcs_server.c ****     snprintf(payloadbuf, sizeof(payloadbuf), RES_FORMAT, seqlen, seq, res_code, body);
 210:C:/Users/stapi/OneDrive/Desktop/GD32VW553/V1_MQTT_OK/GD32VW55X_Wifi_BLE_SDK/GD32VW55x_RELEASE_V1.0.2/MSDK/cloud/alicloud/src/protocol/alcs\alcs_server.c ****     CoAPLenString payload = {strlen(payloadbuf), (unsigned char *)payloadbuf};
 211:C:/Users/stapi/OneDrive/Desktop/GD32VW553/V1_MQTT_OK/GD32VW55X_Wifi_BLE_SDK/GD32VW55x_RELEASE_V1.0.2/MSDK/cloud/alicloud/src/protocol/alcs\alcs_server.c **** 
 212:C:/Users/stapi/OneDrive/Desktop/GD32VW553/V1_MQTT_OK/GD32VW55X_Wifi_BLE_SDK/GD32VW55x_RELEASE_V1.0.2/MSDK/cloud/alicloud/src/protocol/alcs\alcs_server.c ****     alcs_msg_init(ctx, &message, COAP_MSG_CODE_205_CONTENT, COAP_MESSAGE_TYPE_ACK, 0, &payload, NUL
 213:C:/Users/stapi/OneDrive/Desktop/GD32VW553/V1_MQTT_OK/GD32VW55X_Wifi_BLE_SDK/GD32VW55x_RELEASE_V1.0.2/MSDK/cloud/alicloud/src/protocol/alcs\alcs_server.c ****     CoAPLenString token = {resMsg->header.tokenlen, resMsg->token};
 214:C:/Users/stapi/OneDrive/Desktop/GD32VW553/V1_MQTT_OK/GD32VW55X_Wifi_BLE_SDK/GD32VW55x_RELEASE_V1.0.2/MSDK/cloud/alicloud/src/protocol/alcs\alcs_server.c ****     alcs_sendrsp(ctx, from, &message, 1, resMsg->header.msgid, &token);
 215:C:/Users/stapi/OneDrive/Desktop/GD32VW553/V1_MQTT_OK/GD32VW55X_Wifi_BLE_SDK/GD32VW55x_RELEASE_V1.0.2/MSDK/cloud/alicloud/src/protocol/alcs\alcs_server.c **** }
 216:C:/Users/stapi/OneDrive/Desktop/GD32VW553/V1_MQTT_OK/GD32VW55X_Wifi_BLE_SDK/GD32VW55x_RELEASE_V1.0.2/MSDK/cloud/alicloud/src/protocol/alcs\alcs_server.c **** 
 217:C:/Users/stapi/OneDrive/Desktop/GD32VW553/V1_MQTT_OK/GD32VW55X_Wifi_BLE_SDK/GD32VW55x_RELEASE_V1.0.2/MSDK/cloud/alicloud/src/protocol/alcs\alcs_server.c **** static int alcs_remove_low_priority_key(CoAPContext *ctx, ServerKeyPriority priority)
 218:C:/Users/stapi/OneDrive/Desktop/GD32VW553/V1_MQTT_OK/GD32VW55X_Wifi_BLE_SDK/GD32VW55x_RELEASE_V1.0.2/MSDK/cloud/alicloud/src/protocol/alcs\alcs_server.c **** {
 219:C:/Users/stapi/OneDrive/Desktop/GD32VW553/V1_MQTT_OK/GD32VW55X_Wifi_BLE_SDK/GD32VW55x_RELEASE_V1.0.2/MSDK/cloud/alicloud/src/protocol/alcs\alcs_server.c ****     device_auth_list *lst = get_device();
 220:C:/Users/stapi/OneDrive/Desktop/GD32VW553/V1_MQTT_OK/GD32VW55X_Wifi_BLE_SDK/GD32VW55x_RELEASE_V1.0.2/MSDK/cloud/alicloud/src/protocol/alcs\alcs_server.c ****     if (!lst) {
 221:C:/Users/stapi/OneDrive/Desktop/GD32VW553/V1_MQTT_OK/GD32VW55X_Wifi_BLE_SDK/GD32VW55x_RELEASE_V1.0.2/MSDK/cloud/alicloud/src/protocol/alcs\alcs_server.c ****         return COAP_ERROR_NULL;
 222:C:/Users/stapi/OneDrive/Desktop/GD32VW553/V1_MQTT_OK/GD32VW55X_Wifi_BLE_SDK/GD32VW55x_RELEASE_V1.0.2/MSDK/cloud/alicloud/src/protocol/alcs\alcs_server.c ****     }
 223:C:/Users/stapi/OneDrive/Desktop/GD32VW553/V1_MQTT_OK/GD32VW55X_Wifi_BLE_SDK/GD32VW55x_RELEASE_V1.0.2/MSDK/cloud/alicloud/src/protocol/alcs\alcs_server.c ****     svr_key_item *node = NULL, *next = NULL;
 224:C:/Users/stapi/OneDrive/Desktop/GD32VW553/V1_MQTT_OK/GD32VW55X_Wifi_BLE_SDK/GD32VW55x_RELEASE_V1.0.2/MSDK/cloud/alicloud/src/protocol/alcs\alcs_server.c ****     HAL_MutexLock(lst->list_mutex);
 225:C:/Users/stapi/OneDrive/Desktop/GD32VW553/V1_MQTT_OK/GD32VW55X_Wifi_BLE_SDK/GD32VW55x_RELEASE_V1.0.2/MSDK/cloud/alicloud/src/protocol/alcs\alcs_server.c ****   COAP_INFO("alcs_remove_low_priority_key 2_0: %p:%p", lst->lst_svr.next, lst->lst_svr.prev);
 226:C:/Users/stapi/OneDrive/Desktop/GD32VW553/V1_MQTT_OK/GD32VW55X_Wifi_BLE_SDK/GD32VW55x_RELEASE_V1.0.2/MSDK/cloud/alicloud/src/protocol/alcs\alcs_server.c ****     if (!list_empty(&lst->lst_svr)) {
 227:C:/Users/stapi/OneDrive/Desktop/GD32VW553/V1_MQTT_OK/GD32VW55X_Wifi_BLE_SDK/GD32VW55x_RELEASE_V1.0.2/MSDK/cloud/alicloud/src/protocol/alcs\alcs_server.c ****      COAP_INFO("alcs_remove_low_priority_key 2_00");
 228:C:/Users/stapi/OneDrive/Desktop/GD32VW553/V1_MQTT_OK/GD32VW55X_Wifi_BLE_SDK/GD32VW55x_RELEASE_V1.0.2/MSDK/cloud/alicloud/src/protocol/alcs\alcs_server.c ****     list_for_each_entry_safe(node, next, &lst->lst_svr, lst, svr_key_item) {
 229:C:/Users/stapi/OneDrive/Desktop/GD32VW553/V1_MQTT_OK/GD32VW55X_Wifi_BLE_SDK/GD32VW55x_RELEASE_V1.0.2/MSDK/cloud/alicloud/src/protocol/alcs\alcs_server.c ****   COAP_INFO("alcs_remove_low_priority_key 2_1");
 230:C:/Users/stapi/OneDrive/Desktop/GD32VW553/V1_MQTT_OK/GD32VW55X_Wifi_BLE_SDK/GD32VW55x_RELEASE_V1.0.2/MSDK/cloud/alicloud/src/protocol/alcs\alcs_server.c ****         if (node->keyInfo.priority < priority) {
 231:C:/Users/stapi/OneDrive/Desktop/GD32VW553/V1_MQTT_OK/GD32VW55X_Wifi_BLE_SDK/GD32VW55x_RELEASE_V1.0.2/MSDK/cloud/alicloud/src/protocol/alcs\alcs_server.c ****             coap_free(node->keyInfo.secret);
 232:C:/Users/stapi/OneDrive/Desktop/GD32VW553/V1_MQTT_OK/GD32VW55X_Wifi_BLE_SDK/GD32VW55x_RELEASE_V1.0.2/MSDK/cloud/alicloud/src/protocol/alcs\alcs_server.c ****             list_del(&node->lst);
 233:C:/Users/stapi/OneDrive/Desktop/GD32VW553/V1_MQTT_OK/GD32VW55X_Wifi_BLE_SDK/GD32VW55x_RELEASE_V1.0.2/MSDK/cloud/alicloud/src/protocol/alcs\alcs_server.c ****             coap_free(node);
 234:C:/Users/stapi/OneDrive/Desktop/GD32VW553/V1_MQTT_OK/GD32VW55X_Wifi_BLE_SDK/GD32VW55x_RELEASE_V1.0.2/MSDK/cloud/alicloud/src/protocol/alcs\alcs_server.c ****             --lst->svr_count;
 235:C:/Users/stapi/OneDrive/Desktop/GD32VW553/V1_MQTT_OK/GD32VW55X_Wifi_BLE_SDK/GD32VW55x_RELEASE_V1.0.2/MSDK/cloud/alicloud/src/protocol/alcs\alcs_server.c ****         }
 236:C:/Users/stapi/OneDrive/Desktop/GD32VW553/V1_MQTT_OK/GD32VW55X_Wifi_BLE_SDK/GD32VW55x_RELEASE_V1.0.2/MSDK/cloud/alicloud/src/protocol/alcs\alcs_server.c ****     }
 237:C:/Users/stapi/OneDrive/Desktop/GD32VW553/V1_MQTT_OK/GD32VW55X_Wifi_BLE_SDK/GD32VW55x_RELEASE_V1.0.2/MSDK/cloud/alicloud/src/protocol/alcs\alcs_server.c ****     }
 238:C:/Users/stapi/OneDrive/Desktop/GD32VW553/V1_MQTT_OK/GD32VW55X_Wifi_BLE_SDK/GD32VW55x_RELEASE_V1.0.2/MSDK/cloud/alicloud/src/protocol/alcs\alcs_server.c ****   COAP_INFO("alcs_remove_low_priority_key 3");
 239:C:/Users/stapi/OneDrive/Desktop/GD32VW553/V1_MQTT_OK/GD32VW55X_Wifi_BLE_SDK/GD32VW55x_RELEASE_V1.0.2/MSDK/cloud/alicloud/src/protocol/alcs\alcs_server.c ****     HAL_MutexUnlock(lst->list_mutex);
 240:C:/Users/stapi/OneDrive/Desktop/GD32VW553/V1_MQTT_OK/GD32VW55X_Wifi_BLE_SDK/GD32VW55x_RELEASE_V1.0.2/MSDK/cloud/alicloud/src/protocol/alcs\alcs_server.c **** 
 241:C:/Users/stapi/OneDrive/Desktop/GD32VW553/V1_MQTT_OK/GD32VW55X_Wifi_BLE_SDK/GD32VW55x_RELEASE_V1.0.2/MSDK/cloud/alicloud/src/protocol/alcs\alcs_server.c ****     return COAP_SUCCESS;
 242:C:/Users/stapi/OneDrive/Desktop/GD32VW553/V1_MQTT_OK/GD32VW55X_Wifi_BLE_SDK/GD32VW55x_RELEASE_V1.0.2/MSDK/cloud/alicloud/src/protocol/alcs\alcs_server.c **** }
 243:C:/Users/stapi/OneDrive/Desktop/GD32VW553/V1_MQTT_OK/GD32VW55X_Wifi_BLE_SDK/GD32VW55x_RELEASE_V1.0.2/MSDK/cloud/alicloud/src/protocol/alcs\alcs_server.c **** 
 244:C:/Users/stapi/OneDrive/Desktop/GD32VW553/V1_MQTT_OK/GD32VW55X_Wifi_BLE_SDK/GD32VW55x_RELEASE_V1.0.2/MSDK/cloud/alicloud/src/protocol/alcs\alcs_server.c **** static int add_svr_key(CoAPContext *ctx, const char *keyprefix, const char *secret, bool isGroup,
 245:C:/Users/stapi/OneDrive/Desktop/GD32VW553/V1_MQTT_OK/GD32VW55X_Wifi_BLE_SDK/GD32VW55x_RELEASE_V1.0.2/MSDK/cloud/alicloud/src/protocol/alcs\alcs_server.c ****                        ServerKeyPriority priority)
 246:C:/Users/stapi/OneDrive/Desktop/GD32VW553/V1_MQTT_OK/GD32VW55X_Wifi_BLE_SDK/GD32VW55x_RELEASE_V1.0.2/MSDK/cloud/alicloud/src/protocol/alcs\alcs_server.c **** {
 247:C:/Users/stapi/OneDrive/Desktop/GD32VW553/V1_MQTT_OK/GD32VW55X_Wifi_BLE_SDK/GD32VW55x_RELEASE_V1.0.2/MSDK/cloud/alicloud/src/protocol/alcs\alcs_server.c ****     COAP_INFO("add_svr_key, key:%s", keyprefix);
 248:C:/Users/stapi/OneDrive/Desktop/GD32VW553/V1_MQTT_OK/GD32VW55X_Wifi_BLE_SDK/GD32VW55x_RELEASE_V1.0.2/MSDK/cloud/alicloud/src/protocol/alcs\alcs_server.c **** 
 249:C:/Users/stapi/OneDrive/Desktop/GD32VW553/V1_MQTT_OK/GD32VW55X_Wifi_BLE_SDK/GD32VW55x_RELEASE_V1.0.2/MSDK/cloud/alicloud/src/protocol/alcs\alcs_server.c ****     device_auth_list *lst = get_device();
 250:C:/Users/stapi/OneDrive/Desktop/GD32VW553/V1_MQTT_OK/GD32VW55X_Wifi_BLE_SDK/GD32VW55x_RELEASE_V1.0.2/MSDK/cloud/alicloud/src/protocol/alcs\alcs_server.c ****     if (!lst || lst->svr_count >= KEY_MAXCOUNT || strlen(keyprefix) != KEYPREFIX_LEN) {
 251:C:/Users/stapi/OneDrive/Desktop/GD32VW553/V1_MQTT_OK/GD32VW55X_Wifi_BLE_SDK/GD32VW55x_RELEASE_V1.0.2/MSDK/cloud/alicloud/src/protocol/alcs\alcs_server.c ****         return COAP_ERROR_INVALID_LENGTH;
 252:C:/Users/stapi/OneDrive/Desktop/GD32VW553/V1_MQTT_OK/GD32VW55X_Wifi_BLE_SDK/GD32VW55x_RELEASE_V1.0.2/MSDK/cloud/alicloud/src/protocol/alcs\alcs_server.c ****     }
 253:C:/Users/stapi/OneDrive/Desktop/GD32VW553/V1_MQTT_OK/GD32VW55X_Wifi_BLE_SDK/GD32VW55x_RELEASE_V1.0.2/MSDK/cloud/alicloud/src/protocol/alcs\alcs_server.c ****     COAP_INFO ("add_svr_key 1 ");
 254:C:/Users/stapi/OneDrive/Desktop/GD32VW553/V1_MQTT_OK/GD32VW55X_Wifi_BLE_SDK/GD32VW55x_RELEASE_V1.0.2/MSDK/cloud/alicloud/src/protocol/alcs\alcs_server.c ****     alcs_remove_low_priority_key(ctx, priority);
 255:C:/Users/stapi/OneDrive/Desktop/GD32VW553/V1_MQTT_OK/GD32VW55X_Wifi_BLE_SDK/GD32VW55x_RELEASE_V1.0.2/MSDK/cloud/alicloud/src/protocol/alcs\alcs_server.c ****     COAP_INFO ("add_svr_key 2 ");
 256:C:/Users/stapi/OneDrive/Desktop/GD32VW553/V1_MQTT_OK/GD32VW55X_Wifi_BLE_SDK/GD32VW55x_RELEASE_V1.0.2/MSDK/cloud/alicloud/src/protocol/alcs\alcs_server.c ****     HAL_MutexLock(lst->list_mutex);
 257:C:/Users/stapi/OneDrive/Desktop/GD32VW553/V1_MQTT_OK/GD32VW55X_Wifi_BLE_SDK/GD32VW55x_RELEASE_V1.0.2/MSDK/cloud/alicloud/src/protocol/alcs\alcs_server.c ****     svr_key_item *node = NULL, *next = NULL;
 258:C:/Users/stapi/OneDrive/Desktop/GD32VW553/V1_MQTT_OK/GD32VW55X_Wifi_BLE_SDK/GD32VW55x_RELEASE_V1.0.2/MSDK/cloud/alicloud/src/protocol/alcs\alcs_server.c ****     list_for_each_entry_safe(node, next, &lst->lst_svr, lst, svr_key_item) {
 259:C:/Users/stapi/OneDrive/Desktop/GD32VW553/V1_MQTT_OK/GD32VW55X_Wifi_BLE_SDK/GD32VW55x_RELEASE_V1.0.2/MSDK/cloud/alicloud/src/protocol/alcs\alcs_server.c ****         if (node->keyInfo.priority > priority) {
 260:C:/Users/stapi/OneDrive/Desktop/GD32VW553/V1_MQTT_OK/GD32VW55X_Wifi_BLE_SDK/GD32VW55x_RELEASE_V1.0.2/MSDK/cloud/alicloud/src/protocol/alcs\alcs_server.c ****             //find high priority key
 261:C:/Users/stapi/OneDrive/Desktop/GD32VW553/V1_MQTT_OK/GD32VW55X_Wifi_BLE_SDK/GD32VW55x_RELEASE_V1.0.2/MSDK/cloud/alicloud/src/protocol/alcs\alcs_server.c ****             HAL_MutexUnlock(lst->list_mutex);
 262:C:/Users/stapi/OneDrive/Desktop/GD32VW553/V1_MQTT_OK/GD32VW55X_Wifi_BLE_SDK/GD32VW55x_RELEASE_V1.0.2/MSDK/cloud/alicloud/src/protocol/alcs\alcs_server.c ****             return COAP_ERROR_UNSUPPORTED;
 263:C:/Users/stapi/OneDrive/Desktop/GD32VW553/V1_MQTT_OK/GD32VW55X_Wifi_BLE_SDK/GD32VW55x_RELEASE_V1.0.2/MSDK/cloud/alicloud/src/protocol/alcs\alcs_server.c ****         }
 264:C:/Users/stapi/OneDrive/Desktop/GD32VW553/V1_MQTT_OK/GD32VW55X_Wifi_BLE_SDK/GD32VW55x_RELEASE_V1.0.2/MSDK/cloud/alicloud/src/protocol/alcs\alcs_server.c ****     }
 265:C:/Users/stapi/OneDrive/Desktop/GD32VW553/V1_MQTT_OK/GD32VW55X_Wifi_BLE_SDK/GD32VW55x_RELEASE_V1.0.2/MSDK/cloud/alicloud/src/protocol/alcs\alcs_server.c ****     COAP_INFO ("add_svr_key 3 ");
 266:C:/Users/stapi/OneDrive/Desktop/GD32VW553/V1_MQTT_OK/GD32VW55X_Wifi_BLE_SDK/GD32VW55x_RELEASE_V1.0.2/MSDK/cloud/alicloud/src/protocol/alcs\alcs_server.c ****     svr_key_item *item = (svr_key_item *) coap_malloc(sizeof(svr_key_item));
 267:C:/Users/stapi/OneDrive/Desktop/GD32VW553/V1_MQTT_OK/GD32VW55X_Wifi_BLE_SDK/GD32VW55x_RELEASE_V1.0.2/MSDK/cloud/alicloud/src/protocol/alcs\alcs_server.c ****     if (!item) {
 268:C:/Users/stapi/OneDrive/Desktop/GD32VW553/V1_MQTT_OK/GD32VW55X_Wifi_BLE_SDK/GD32VW55x_RELEASE_V1.0.2/MSDK/cloud/alicloud/src/protocol/alcs\alcs_server.c ****         HAL_MutexUnlock(lst->list_mutex);
 269:C:/Users/stapi/OneDrive/Desktop/GD32VW553/V1_MQTT_OK/GD32VW55X_Wifi_BLE_SDK/GD32VW55x_RELEASE_V1.0.2/MSDK/cloud/alicloud/src/protocol/alcs\alcs_server.c ****         return COAP_ERROR_MALLOC;
 270:C:/Users/stapi/OneDrive/Desktop/GD32VW553/V1_MQTT_OK/GD32VW55X_Wifi_BLE_SDK/GD32VW55x_RELEASE_V1.0.2/MSDK/cloud/alicloud/src/protocol/alcs\alcs_server.c ****     }
 271:C:/Users/stapi/OneDrive/Desktop/GD32VW553/V1_MQTT_OK/GD32VW55X_Wifi_BLE_SDK/GD32VW55x_RELEASE_V1.0.2/MSDK/cloud/alicloud/src/protocol/alcs\alcs_server.c ****     COAP_INFO ("add_svr_key 4 ");
 272:C:/Users/stapi/OneDrive/Desktop/GD32VW553/V1_MQTT_OK/GD32VW55X_Wifi_BLE_SDK/GD32VW55x_RELEASE_V1.0.2/MSDK/cloud/alicloud/src/protocol/alcs\alcs_server.c ****     memset(item, 0, sizeof(svr_key_item));
 273:C:/Users/stapi/OneDrive/Desktop/GD32VW553/V1_MQTT_OK/GD32VW55X_Wifi_BLE_SDK/GD32VW55x_RELEASE_V1.0.2/MSDK/cloud/alicloud/src/protocol/alcs\alcs_server.c ****     item->keyInfo.secret = (char *) coap_malloc(strlen(secret) + 1);
 274:C:/Users/stapi/OneDrive/Desktop/GD32VW553/V1_MQTT_OK/GD32VW55X_Wifi_BLE_SDK/GD32VW55x_RELEASE_V1.0.2/MSDK/cloud/alicloud/src/protocol/alcs\alcs_server.c ****     if (!item->keyInfo.secret) {
 275:C:/Users/stapi/OneDrive/Desktop/GD32VW553/V1_MQTT_OK/GD32VW55X_Wifi_BLE_SDK/GD32VW55x_RELEASE_V1.0.2/MSDK/cloud/alicloud/src/protocol/alcs\alcs_server.c ****         HAL_MutexUnlock(lst->list_mutex);
 276:C:/Users/stapi/OneDrive/Desktop/GD32VW553/V1_MQTT_OK/GD32VW55X_Wifi_BLE_SDK/GD32VW55x_RELEASE_V1.0.2/MSDK/cloud/alicloud/src/protocol/alcs\alcs_server.c ****         coap_free(item);
 277:C:/Users/stapi/OneDrive/Desktop/GD32VW553/V1_MQTT_OK/GD32VW55X_Wifi_BLE_SDK/GD32VW55x_RELEASE_V1.0.2/MSDK/cloud/alicloud/src/protocol/alcs\alcs_server.c ****         return COAP_ERROR_MALLOC;
 278:C:/Users/stapi/OneDrive/Desktop/GD32VW553/V1_MQTT_OK/GD32VW55X_Wifi_BLE_SDK/GD32VW55x_RELEASE_V1.0.2/MSDK/cloud/alicloud/src/protocol/alcs\alcs_server.c ****     }
 279:C:/Users/stapi/OneDrive/Desktop/GD32VW553/V1_MQTT_OK/GD32VW55X_Wifi_BLE_SDK/GD32VW55x_RELEASE_V1.0.2/MSDK/cloud/alicloud/src/protocol/alcs\alcs_server.c ****     COAP_INFO ("add_svr_key 5 ");
 280:C:/Users/stapi/OneDrive/Desktop/GD32VW553/V1_MQTT_OK/GD32VW55X_Wifi_BLE_SDK/GD32VW55x_RELEASE_V1.0.2/MSDK/cloud/alicloud/src/protocol/alcs\alcs_server.c ****     memset(item->keyInfo.secret, 0, strlen(secret) + 1);
 281:C:/Users/stapi/OneDrive/Desktop/GD32VW553/V1_MQTT_OK/GD32VW55X_Wifi_BLE_SDK/GD32VW55x_RELEASE_V1.0.2/MSDK/cloud/alicloud/src/protocol/alcs\alcs_server.c **** 
 282:C:/Users/stapi/OneDrive/Desktop/GD32VW553/V1_MQTT_OK/GD32VW55X_Wifi_BLE_SDK/GD32VW55x_RELEASE_V1.0.2/MSDK/cloud/alicloud/src/protocol/alcs\alcs_server.c ****     strcpy(item->keyInfo.secret, secret);
 283:C:/Users/stapi/OneDrive/Desktop/GD32VW553/V1_MQTT_OK/GD32VW55X_Wifi_BLE_SDK/GD32VW55x_RELEASE_V1.0.2/MSDK/cloud/alicloud/src/protocol/alcs\alcs_server.c ****     strcpy(item->keyInfo.keyprefix, keyprefix);
 284:C:/Users/stapi/OneDrive/Desktop/GD32VW553/V1_MQTT_OK/GD32VW55X_Wifi_BLE_SDK/GD32VW55x_RELEASE_V1.0.2/MSDK/cloud/alicloud/src/protocol/alcs\alcs_server.c ****     item->keyInfo.priority = priority;
 285:C:/Users/stapi/OneDrive/Desktop/GD32VW553/V1_MQTT_OK/GD32VW55X_Wifi_BLE_SDK/GD32VW55x_RELEASE_V1.0.2/MSDK/cloud/alicloud/src/protocol/alcs\alcs_server.c ****     COAP_INFO ("add_svr_key 6 ");
 286:C:/Users/stapi/OneDrive/Desktop/GD32VW553/V1_MQTT_OK/GD32VW55X_Wifi_BLE_SDK/GD32VW55x_RELEASE_V1.0.2/MSDK/cloud/alicloud/src/protocol/alcs\alcs_server.c ****     list_add_tail(&item->lst, &lst->lst_svr);
 287:C:/Users/stapi/OneDrive/Desktop/GD32VW553/V1_MQTT_OK/GD32VW55X_Wifi_BLE_SDK/GD32VW55x_RELEASE_V1.0.2/MSDK/cloud/alicloud/src/protocol/alcs\alcs_server.c ****     ++lst->svr_count;
 288:C:/Users/stapi/OneDrive/Desktop/GD32VW553/V1_MQTT_OK/GD32VW55X_Wifi_BLE_SDK/GD32VW55x_RELEASE_V1.0.2/MSDK/cloud/alicloud/src/protocol/alcs\alcs_server.c ****     HAL_MutexUnlock(lst->list_mutex);
 289:C:/Users/stapi/OneDrive/Desktop/GD32VW553/V1_MQTT_OK/GD32VW55X_Wifi_BLE_SDK/GD32VW55x_RELEASE_V1.0.2/MSDK/cloud/alicloud/src/protocol/alcs\alcs_server.c **** 
 290:C:/Users/stapi/OneDrive/Desktop/GD32VW553/V1_MQTT_OK/GD32VW55X_Wifi_BLE_SDK/GD32VW55x_RELEASE_V1.0.2/MSDK/cloud/alicloud/src/protocol/alcs\alcs_server.c **** 
 291:C:/Users/stapi/OneDrive/Desktop/GD32VW553/V1_MQTT_OK/GD32VW55X_Wifi_BLE_SDK/GD32VW55x_RELEASE_V1.0.2/MSDK/cloud/alicloud/src/protocol/alcs\alcs_server.c ****     COAP_INFO ("finish add svr key");
 292:C:/Users/stapi/OneDrive/Desktop/GD32VW553/V1_MQTT_OK/GD32VW55X_Wifi_BLE_SDK/GD32VW55x_RELEASE_V1.0.2/MSDK/cloud/alicloud/src/protocol/alcs\alcs_server.c ****     return COAP_SUCCESS;
 293:C:/Users/stapi/OneDrive/Desktop/GD32VW553/V1_MQTT_OK/GD32VW55X_Wifi_BLE_SDK/GD32VW55x_RELEASE_V1.0.2/MSDK/cloud/alicloud/src/protocol/alcs\alcs_server.c **** }
 294:C:/Users/stapi/OneDrive/Desktop/GD32VW553/V1_MQTT_OK/GD32VW55X_Wifi_BLE_SDK/GD32VW55x_RELEASE_V1.0.2/MSDK/cloud/alicloud/src/protocol/alcs\alcs_server.c **** 
 295:C:/Users/stapi/OneDrive/Desktop/GD32VW553/V1_MQTT_OK/GD32VW55X_Wifi_BLE_SDK/GD32VW55x_RELEASE_V1.0.2/MSDK/cloud/alicloud/src/protocol/alcs\alcs_server.c **** int alcs_add_svr_key(CoAPContext *ctx, const char *keyprefix, const char *secret, ServerKeyPriority
 296:C:/Users/stapi/OneDrive/Desktop/GD32VW553/V1_MQTT_OK/GD32VW55X_Wifi_BLE_SDK/GD32VW55x_RELEASE_V1.0.2/MSDK/cloud/alicloud/src/protocol/alcs\alcs_server.c **** {
 297:C:/Users/stapi/OneDrive/Desktop/GD32VW553/V1_MQTT_OK/GD32VW55X_Wifi_BLE_SDK/GD32VW55x_RELEASE_V1.0.2/MSDK/cloud/alicloud/src/protocol/alcs\alcs_server.c ****     COAP_INFO("alcs_add_svr_key, priority=%d", priority);
 298:C:/Users/stapi/OneDrive/Desktop/GD32VW553/V1_MQTT_OK/GD32VW55X_Wifi_BLE_SDK/GD32VW55x_RELEASE_V1.0.2/MSDK/cloud/alicloud/src/protocol/alcs\alcs_server.c ****     return add_svr_key(ctx, keyprefix, secret, 0, priority);
 299:C:/Users/stapi/OneDrive/Desktop/GD32VW553/V1_MQTT_OK/GD32VW55X_Wifi_BLE_SDK/GD32VW55x_RELEASE_V1.0.2/MSDK/cloud/alicloud/src/protocol/alcs\alcs_server.c **** }
 300:C:/Users/stapi/OneDrive/Desktop/GD32VW553/V1_MQTT_OK/GD32VW55X_Wifi_BLE_SDK/GD32VW55x_RELEASE_V1.0.2/MSDK/cloud/alicloud/src/protocol/alcs\alcs_server.c **** 
 301:C:/Users/stapi/OneDrive/Desktop/GD32VW553/V1_MQTT_OK/GD32VW55X_Wifi_BLE_SDK/GD32VW55x_RELEASE_V1.0.2/MSDK/cloud/alicloud/src/protocol/alcs\alcs_server.c **** 
 302:C:/Users/stapi/OneDrive/Desktop/GD32VW553/V1_MQTT_OK/GD32VW55X_Wifi_BLE_SDK/GD32VW55x_RELEASE_V1.0.2/MSDK/cloud/alicloud/src/protocol/alcs\alcs_server.c **** int alcs_remove_svr_key(CoAPContext *ctx, const char *keyprefix)
 303:C:/Users/stapi/OneDrive/Desktop/GD32VW553/V1_MQTT_OK/GD32VW55X_Wifi_BLE_SDK/GD32VW55x_RELEASE_V1.0.2/MSDK/cloud/alicloud/src/protocol/alcs\alcs_server.c **** {
 304:C:/Users/stapi/OneDrive/Desktop/GD32VW553/V1_MQTT_OK/GD32VW55X_Wifi_BLE_SDK/GD32VW55x_RELEASE_V1.0.2/MSDK/cloud/alicloud/src/protocol/alcs\alcs_server.c ****     device_auth_list *lst = get_device();
 305:C:/Users/stapi/OneDrive/Desktop/GD32VW553/V1_MQTT_OK/GD32VW55X_Wifi_BLE_SDK/GD32VW55x_RELEASE_V1.0.2/MSDK/cloud/alicloud/src/protocol/alcs\alcs_server.c ****     if (!lst) {
 306:C:/Users/stapi/OneDrive/Desktop/GD32VW553/V1_MQTT_OK/GD32VW55X_Wifi_BLE_SDK/GD32VW55x_RELEASE_V1.0.2/MSDK/cloud/alicloud/src/protocol/alcs\alcs_server.c ****         return COAP_ERROR_NULL;
 307:C:/Users/stapi/OneDrive/Desktop/GD32VW553/V1_MQTT_OK/GD32VW55X_Wifi_BLE_SDK/GD32VW55x_RELEASE_V1.0.2/MSDK/cloud/alicloud/src/protocol/alcs\alcs_server.c ****     }
 308:C:/Users/stapi/OneDrive/Desktop/GD32VW553/V1_MQTT_OK/GD32VW55X_Wifi_BLE_SDK/GD32VW55x_RELEASE_V1.0.2/MSDK/cloud/alicloud/src/protocol/alcs\alcs_server.c **** 
 309:C:/Users/stapi/OneDrive/Desktop/GD32VW553/V1_MQTT_OK/GD32VW55X_Wifi_BLE_SDK/GD32VW55x_RELEASE_V1.0.2/MSDK/cloud/alicloud/src/protocol/alcs\alcs_server.c ****     svr_key_item *node = NULL, *next = NULL;
 310:C:/Users/stapi/OneDrive/Desktop/GD32VW553/V1_MQTT_OK/GD32VW55X_Wifi_BLE_SDK/GD32VW55x_RELEASE_V1.0.2/MSDK/cloud/alicloud/src/protocol/alcs\alcs_server.c ****     HAL_MutexLock(lst->list_mutex);
 311:C:/Users/stapi/OneDrive/Desktop/GD32VW553/V1_MQTT_OK/GD32VW55X_Wifi_BLE_SDK/GD32VW55x_RELEASE_V1.0.2/MSDK/cloud/alicloud/src/protocol/alcs\alcs_server.c **** 
 312:C:/Users/stapi/OneDrive/Desktop/GD32VW553/V1_MQTT_OK/GD32VW55X_Wifi_BLE_SDK/GD32VW55x_RELEASE_V1.0.2/MSDK/cloud/alicloud/src/protocol/alcs\alcs_server.c ****     list_for_each_entry_safe(node, next, &lst->lst_svr, lst, svr_key_item) {
 313:C:/Users/stapi/OneDrive/Desktop/GD32VW553/V1_MQTT_OK/GD32VW55X_Wifi_BLE_SDK/GD32VW55x_RELEASE_V1.0.2/MSDK/cloud/alicloud/src/protocol/alcs\alcs_server.c ****         if (strcmp(node->keyInfo.keyprefix, keyprefix) == 0) {
 314:C:/Users/stapi/OneDrive/Desktop/GD32VW553/V1_MQTT_OK/GD32VW55X_Wifi_BLE_SDK/GD32VW55x_RELEASE_V1.0.2/MSDK/cloud/alicloud/src/protocol/alcs\alcs_server.c ****             coap_free(node->keyInfo.secret);
 315:C:/Users/stapi/OneDrive/Desktop/GD32VW553/V1_MQTT_OK/GD32VW55X_Wifi_BLE_SDK/GD32VW55x_RELEASE_V1.0.2/MSDK/cloud/alicloud/src/protocol/alcs\alcs_server.c ****             list_del(&node->lst);
 316:C:/Users/stapi/OneDrive/Desktop/GD32VW553/V1_MQTT_OK/GD32VW55X_Wifi_BLE_SDK/GD32VW55x_RELEASE_V1.0.2/MSDK/cloud/alicloud/src/protocol/alcs\alcs_server.c ****             coap_free(node);
 317:C:/Users/stapi/OneDrive/Desktop/GD32VW553/V1_MQTT_OK/GD32VW55X_Wifi_BLE_SDK/GD32VW55x_RELEASE_V1.0.2/MSDK/cloud/alicloud/src/protocol/alcs\alcs_server.c ****             --lst->svr_count;
 318:C:/Users/stapi/OneDrive/Desktop/GD32VW553/V1_MQTT_OK/GD32VW55X_Wifi_BLE_SDK/GD32VW55x_RELEASE_V1.0.2/MSDK/cloud/alicloud/src/protocol/alcs\alcs_server.c ****             break;
 319:C:/Users/stapi/OneDrive/Desktop/GD32VW553/V1_MQTT_OK/GD32VW55X_Wifi_BLE_SDK/GD32VW55x_RELEASE_V1.0.2/MSDK/cloud/alicloud/src/protocol/alcs\alcs_server.c ****         }
 320:C:/Users/stapi/OneDrive/Desktop/GD32VW553/V1_MQTT_OK/GD32VW55X_Wifi_BLE_SDK/GD32VW55x_RELEASE_V1.0.2/MSDK/cloud/alicloud/src/protocol/alcs\alcs_server.c ****     }
 321:C:/Users/stapi/OneDrive/Desktop/GD32VW553/V1_MQTT_OK/GD32VW55X_Wifi_BLE_SDK/GD32VW55x_RELEASE_V1.0.2/MSDK/cloud/alicloud/src/protocol/alcs\alcs_server.c ****     HAL_MutexUnlock(lst->list_mutex);
 322:C:/Users/stapi/OneDrive/Desktop/GD32VW553/V1_MQTT_OK/GD32VW55X_Wifi_BLE_SDK/GD32VW55x_RELEASE_V1.0.2/MSDK/cloud/alicloud/src/protocol/alcs\alcs_server.c **** 
 323:C:/Users/stapi/OneDrive/Desktop/GD32VW553/V1_MQTT_OK/GD32VW55X_Wifi_BLE_SDK/GD32VW55x_RELEASE_V1.0.2/MSDK/cloud/alicloud/src/protocol/alcs\alcs_server.c ****     return COAP_SUCCESS;
 324:C:/Users/stapi/OneDrive/Desktop/GD32VW553/V1_MQTT_OK/GD32VW55X_Wifi_BLE_SDK/GD32VW55x_RELEASE_V1.0.2/MSDK/cloud/alicloud/src/protocol/alcs\alcs_server.c **** }
 325:C:/Users/stapi/OneDrive/Desktop/GD32VW553/V1_MQTT_OK/GD32VW55X_Wifi_BLE_SDK/GD32VW55x_RELEASE_V1.0.2/MSDK/cloud/alicloud/src/protocol/alcs\alcs_server.c **** 
 326:C:/Users/stapi/OneDrive/Desktop/GD32VW553/V1_MQTT_OK/GD32VW55X_Wifi_BLE_SDK/GD32VW55x_RELEASE_V1.0.2/MSDK/cloud/alicloud/src/protocol/alcs\alcs_server.c **** int alcs_set_revocation(CoAPContext *ctx, const char *seqlist)
 327:C:/Users/stapi/OneDrive/Desktop/GD32VW553/V1_MQTT_OK/GD32VW55X_Wifi_BLE_SDK/GD32VW55x_RELEASE_V1.0.2/MSDK/cloud/alicloud/src/protocol/alcs\alcs_server.c **** {
 328:C:/Users/stapi/OneDrive/Desktop/GD32VW553/V1_MQTT_OK/GD32VW55X_Wifi_BLE_SDK/GD32VW55x_RELEASE_V1.0.2/MSDK/cloud/alicloud/src/protocol/alcs\alcs_server.c ****     device_auth_list *lst = get_device();
 329:C:/Users/stapi/OneDrive/Desktop/GD32VW553/V1_MQTT_OK/GD32VW55X_Wifi_BLE_SDK/GD32VW55x_RELEASE_V1.0.2/MSDK/cloud/alicloud/src/protocol/alcs\alcs_server.c ****     if (!lst) {
 330:C:/Users/stapi/OneDrive/Desktop/GD32VW553/V1_MQTT_OK/GD32VW55X_Wifi_BLE_SDK/GD32VW55x_RELEASE_V1.0.2/MSDK/cloud/alicloud/src/protocol/alcs\alcs_server.c ****         return COAP_ERROR_NULL;
 331:C:/Users/stapi/OneDrive/Desktop/GD32VW553/V1_MQTT_OK/GD32VW55X_Wifi_BLE_SDK/GD32VW55x_RELEASE_V1.0.2/MSDK/cloud/alicloud/src/protocol/alcs\alcs_server.c ****     }
 332:C:/Users/stapi/OneDrive/Desktop/GD32VW553/V1_MQTT_OK/GD32VW55X_Wifi_BLE_SDK/GD32VW55x_RELEASE_V1.0.2/MSDK/cloud/alicloud/src/protocol/alcs\alcs_server.c **** 
 333:C:/Users/stapi/OneDrive/Desktop/GD32VW553/V1_MQTT_OK/GD32VW55X_Wifi_BLE_SDK/GD32VW55x_RELEASE_V1.0.2/MSDK/cloud/alicloud/src/protocol/alcs\alcs_server.c ****     HAL_MutexLock(lst->list_mutex);
 334:C:/Users/stapi/OneDrive/Desktop/GD32VW553/V1_MQTT_OK/GD32VW55X_Wifi_BLE_SDK/GD32VW55x_RELEASE_V1.0.2/MSDK/cloud/alicloud/src/protocol/alcs\alcs_server.c **** 
 335:C:/Users/stapi/OneDrive/Desktop/GD32VW553/V1_MQTT_OK/GD32VW55X_Wifi_BLE_SDK/GD32VW55x_RELEASE_V1.0.2/MSDK/cloud/alicloud/src/protocol/alcs\alcs_server.c ****     int len = seqlist ? strlen(seqlist) : 0;
 336:C:/Users/stapi/OneDrive/Desktop/GD32VW553/V1_MQTT_OK/GD32VW55X_Wifi_BLE_SDK/GD32VW55x_RELEASE_V1.0.2/MSDK/cloud/alicloud/src/protocol/alcs\alcs_server.c ****     if (lst->revocation) {
 337:C:/Users/stapi/OneDrive/Desktop/GD32VW553/V1_MQTT_OK/GD32VW55X_Wifi_BLE_SDK/GD32VW55x_RELEASE_V1.0.2/MSDK/cloud/alicloud/src/protocol/alcs\alcs_server.c ****         coap_free(lst->revocation);
 338:C:/Users/stapi/OneDrive/Desktop/GD32VW553/V1_MQTT_OK/GD32VW55X_Wifi_BLE_SDK/GD32VW55x_RELEASE_V1.0.2/MSDK/cloud/alicloud/src/protocol/alcs\alcs_server.c ****         lst->revocation = NULL;
 339:C:/Users/stapi/OneDrive/Desktop/GD32VW553/V1_MQTT_OK/GD32VW55X_Wifi_BLE_SDK/GD32VW55x_RELEASE_V1.0.2/MSDK/cloud/alicloud/src/protocol/alcs\alcs_server.c ****     }
 340:C:/Users/stapi/OneDrive/Desktop/GD32VW553/V1_MQTT_OK/GD32VW55X_Wifi_BLE_SDK/GD32VW55x_RELEASE_V1.0.2/MSDK/cloud/alicloud/src/protocol/alcs\alcs_server.c **** 
 341:C:/Users/stapi/OneDrive/Desktop/GD32VW553/V1_MQTT_OK/GD32VW55X_Wifi_BLE_SDK/GD32VW55x_RELEASE_V1.0.2/MSDK/cloud/alicloud/src/protocol/alcs\alcs_server.c ****     if (len > 0) {
 342:C:/Users/stapi/OneDrive/Desktop/GD32VW553/V1_MQTT_OK/GD32VW55X_Wifi_BLE_SDK/GD32VW55x_RELEASE_V1.0.2/MSDK/cloud/alicloud/src/protocol/alcs\alcs_server.c ****         lst->revocation = (char *)coap_malloc(len + 1);
 343:C:/Users/stapi/OneDrive/Desktop/GD32VW553/V1_MQTT_OK/GD32VW55X_Wifi_BLE_SDK/GD32VW55x_RELEASE_V1.0.2/MSDK/cloud/alicloud/src/protocol/alcs\alcs_server.c ****         strcpy(lst->revocation, seqlist);
 344:C:/Users/stapi/OneDrive/Desktop/GD32VW553/V1_MQTT_OK/GD32VW55X_Wifi_BLE_SDK/GD32VW55x_RELEASE_V1.0.2/MSDK/cloud/alicloud/src/protocol/alcs\alcs_server.c ****     }
 345:C:/Users/stapi/OneDrive/Desktop/GD32VW553/V1_MQTT_OK/GD32VW55X_Wifi_BLE_SDK/GD32VW55x_RELEASE_V1.0.2/MSDK/cloud/alicloud/src/protocol/alcs\alcs_server.c ****     HAL_MutexUnlock(lst->list_mutex);
 346:C:/Users/stapi/OneDrive/Desktop/GD32VW553/V1_MQTT_OK/GD32VW55X_Wifi_BLE_SDK/GD32VW55x_RELEASE_V1.0.2/MSDK/cloud/alicloud/src/protocol/alcs\alcs_server.c **** 
 347:C:/Users/stapi/OneDrive/Desktop/GD32VW553/V1_MQTT_OK/GD32VW55X_Wifi_BLE_SDK/GD32VW55x_RELEASE_V1.0.2/MSDK/cloud/alicloud/src/protocol/alcs\alcs_server.c ****     return COAP_SUCCESS;
 348:C:/Users/stapi/OneDrive/Desktop/GD32VW553/V1_MQTT_OK/GD32VW55X_Wifi_BLE_SDK/GD32VW55x_RELEASE_V1.0.2/MSDK/cloud/alicloud/src/protocol/alcs\alcs_server.c **** }
 349:C:/Users/stapi/OneDrive/Desktop/GD32VW553/V1_MQTT_OK/GD32VW55X_Wifi_BLE_SDK/GD32VW55x_RELEASE_V1.0.2/MSDK/cloud/alicloud/src/protocol/alcs\alcs_server.c **** 
 350:C:/Users/stapi/OneDrive/Desktop/GD32VW553/V1_MQTT_OK/GD32VW55X_Wifi_BLE_SDK/GD32VW55x_RELEASE_V1.0.2/MSDK/cloud/alicloud/src/protocol/alcs\alcs_server.c **** #ifdef ALCS_GROUP_COMM_ENABLE
 351:C:/Users/stapi/OneDrive/Desktop/GD32VW553/V1_MQTT_OK/GD32VW55X_Wifi_BLE_SDK/GD32VW55x_RELEASE_V1.0.2/MSDK/cloud/alicloud/src/protocol/alcs\alcs_server.c **** int alcs_add_svr_group (CoAPContext *context, const char* group_id, const char* keyprefix, const ch
 352:C:/Users/stapi/OneDrive/Desktop/GD32VW553/V1_MQTT_OK/GD32VW55X_Wifi_BLE_SDK/GD32VW55x_RELEASE_V1.0.2/MSDK/cloud/alicloud/src/protocol/alcs\alcs_server.c **** {
 353:C:/Users/stapi/OneDrive/Desktop/GD32VW553/V1_MQTT_OK/GD32VW55X_Wifi_BLE_SDK/GD32VW55x_RELEASE_V1.0.2/MSDK/cloud/alicloud/src/protocol/alcs\alcs_server.c ****     device_auth_list *dev_lst = get_device ();
 354:C:/Users/stapi/OneDrive/Desktop/GD32VW553/V1_MQTT_OK/GD32VW55X_Wifi_BLE_SDK/GD32VW55x_RELEASE_V1.0.2/MSDK/cloud/alicloud/src/protocol/alcs\alcs_server.c **** 
 355:C:/Users/stapi/OneDrive/Desktop/GD32VW553/V1_MQTT_OK/GD32VW55X_Wifi_BLE_SDK/GD32VW55x_RELEASE_V1.0.2/MSDK/cloud/alicloud/src/protocol/alcs\alcs_server.c ****     if (!dev_lst || dev_lst->svr_group_count >= ALCS_MAX_GROUP_COUNT) {
 356:C:/Users/stapi/OneDrive/Desktop/GD32VW553/V1_MQTT_OK/GD32VW55X_Wifi_BLE_SDK/GD32VW55x_RELEASE_V1.0.2/MSDK/cloud/alicloud/src/protocol/alcs\alcs_server.c ****         return ALCS_ERR_INVALID_LENGTH;
 357:C:/Users/stapi/OneDrive/Desktop/GD32VW553/V1_MQTT_OK/GD32VW55X_Wifi_BLE_SDK/GD32VW55x_RELEASE_V1.0.2/MSDK/cloud/alicloud/src/protocol/alcs\alcs_server.c ****     }
 358:C:/Users/stapi/OneDrive/Desktop/GD32VW553/V1_MQTT_OK/GD32VW55X_Wifi_BLE_SDK/GD32VW55x_RELEASE_V1.0.2/MSDK/cloud/alicloud/src/protocol/alcs\alcs_server.c **** 
 359:C:/Users/stapi/OneDrive/Desktop/GD32VW553/V1_MQTT_OK/GD32VW55X_Wifi_BLE_SDK/GD32VW55x_RELEASE_V1.0.2/MSDK/cloud/alicloud/src/protocol/alcs\alcs_server.c ****     svr_group_item* item = (svr_group_item*) coap_malloc(sizeof(svr_group_item));
 360:C:/Users/stapi/OneDrive/Desktop/GD32VW553/V1_MQTT_OK/GD32VW55X_Wifi_BLE_SDK/GD32VW55x_RELEASE_V1.0.2/MSDK/cloud/alicloud/src/protocol/alcs\alcs_server.c ****     if (!item) {
 361:C:/Users/stapi/OneDrive/Desktop/GD32VW553/V1_MQTT_OK/GD32VW55X_Wifi_BLE_SDK/GD32VW55x_RELEASE_V1.0.2/MSDK/cloud/alicloud/src/protocol/alcs\alcs_server.c ****         return ALCS_ERR_MALLOC;
 362:C:/Users/stapi/OneDrive/Desktop/GD32VW553/V1_MQTT_OK/GD32VW55X_Wifi_BLE_SDK/GD32VW55x_RELEASE_V1.0.2/MSDK/cloud/alicloud/src/protocol/alcs\alcs_server.c ****     }
 363:C:/Users/stapi/OneDrive/Desktop/GD32VW553/V1_MQTT_OK/GD32VW55X_Wifi_BLE_SDK/GD32VW55x_RELEASE_V1.0.2/MSDK/cloud/alicloud/src/protocol/alcs\alcs_server.c ****     memset (item, 0, sizeof(svr_group_item));
 364:C:/Users/stapi/OneDrive/Desktop/GD32VW553/V1_MQTT_OK/GD32VW55X_Wifi_BLE_SDK/GD32VW55x_RELEASE_V1.0.2/MSDK/cloud/alicloud/src/protocol/alcs\alcs_server.c **** 
 365:C:/Users/stapi/OneDrive/Desktop/GD32VW553/V1_MQTT_OK/GD32VW55X_Wifi_BLE_SDK/GD32VW55x_RELEASE_V1.0.2/MSDK/cloud/alicloud/src/protocol/alcs\alcs_server.c ****     do {
 366:C:/Users/stapi/OneDrive/Desktop/GD32VW553/V1_MQTT_OK/GD32VW55X_Wifi_BLE_SDK/GD32VW55x_RELEASE_V1.0.2/MSDK/cloud/alicloud/src/protocol/alcs\alcs_server.c ****         item->groupId = (char*) coap_malloc(strlen(group_id) + 1);
 367:C:/Users/stapi/OneDrive/Desktop/GD32VW553/V1_MQTT_OK/GD32VW55X_Wifi_BLE_SDK/GD32VW55x_RELEASE_V1.0.2/MSDK/cloud/alicloud/src/protocol/alcs\alcs_server.c ****         if (!item->groupId) break;
 368:C:/Users/stapi/OneDrive/Desktop/GD32VW553/V1_MQTT_OK/GD32VW55X_Wifi_BLE_SDK/GD32VW55x_RELEASE_V1.0.2/MSDK/cloud/alicloud/src/protocol/alcs\alcs_server.c **** 
 369:C:/Users/stapi/OneDrive/Desktop/GD32VW553/V1_MQTT_OK/GD32VW55X_Wifi_BLE_SDK/GD32VW55x_RELEASE_V1.0.2/MSDK/cloud/alicloud/src/protocol/alcs\alcs_server.c ****         item->keyInfo.secret = (char*) coap_malloc(strlen(secret) + 1);
 370:C:/Users/stapi/OneDrive/Desktop/GD32VW553/V1_MQTT_OK/GD32VW55X_Wifi_BLE_SDK/GD32VW55x_RELEASE_V1.0.2/MSDK/cloud/alicloud/src/protocol/alcs\alcs_server.c ****         if (!item->keyInfo.secret) break;
 371:C:/Users/stapi/OneDrive/Desktop/GD32VW553/V1_MQTT_OK/GD32VW55X_Wifi_BLE_SDK/GD32VW55x_RELEASE_V1.0.2/MSDK/cloud/alicloud/src/protocol/alcs\alcs_server.c **** 
 372:C:/Users/stapi/OneDrive/Desktop/GD32VW553/V1_MQTT_OK/GD32VW55X_Wifi_BLE_SDK/GD32VW55x_RELEASE_V1.0.2/MSDK/cloud/alicloud/src/protocol/alcs\alcs_server.c ****         strncpy (item->keyInfo.keyprefix, keyprefix, sizeof(item->keyInfo.keyprefix) - 1);
 373:C:/Users/stapi/OneDrive/Desktop/GD32VW553/V1_MQTT_OK/GD32VW55X_Wifi_BLE_SDK/GD32VW55x_RELEASE_V1.0.2/MSDK/cloud/alicloud/src/protocol/alcs\alcs_server.c ****         strcpy (item->keyInfo.secret, secret);
 374:C:/Users/stapi/OneDrive/Desktop/GD32VW553/V1_MQTT_OK/GD32VW55X_Wifi_BLE_SDK/GD32VW55x_RELEASE_V1.0.2/MSDK/cloud/alicloud/src/protocol/alcs\alcs_server.c ****         strcpy (item->groupId, group_id);
 375:C:/Users/stapi/OneDrive/Desktop/GD32VW553/V1_MQTT_OK/GD32VW55X_Wifi_BLE_SDK/GD32VW55x_RELEASE_V1.0.2/MSDK/cloud/alicloud/src/protocol/alcs\alcs_server.c **** 
 376:C:/Users/stapi/OneDrive/Desktop/GD32VW553/V1_MQTT_OK/GD32VW55X_Wifi_BLE_SDK/GD32VW55x_RELEASE_V1.0.2/MSDK/cloud/alicloud/src/protocol/alcs\alcs_server.c ****         HAL_MutexLock(dev_lst->list_mutex);
 377:C:/Users/stapi/OneDrive/Desktop/GD32VW553/V1_MQTT_OK/GD32VW55X_Wifi_BLE_SDK/GD32VW55x_RELEASE_V1.0.2/MSDK/cloud/alicloud/src/protocol/alcs\alcs_server.c ****         list_add_tail(&item->lst, &dev_lst->lst_svr_group);
 378:C:/Users/stapi/OneDrive/Desktop/GD32VW553/V1_MQTT_OK/GD32VW55X_Wifi_BLE_SDK/GD32VW55x_RELEASE_V1.0.2/MSDK/cloud/alicloud/src/protocol/alcs\alcs_server.c ****         ++dev_lst->svr_group_count;
 379:C:/Users/stapi/OneDrive/Desktop/GD32VW553/V1_MQTT_OK/GD32VW55X_Wifi_BLE_SDK/GD32VW55x_RELEASE_V1.0.2/MSDK/cloud/alicloud/src/protocol/alcs\alcs_server.c ****         COAP_INFO("alcs_add_svr_group, group count:%d id:", dev_lst->svr_group_count, item->groupId
 380:C:/Users/stapi/OneDrive/Desktop/GD32VW553/V1_MQTT_OK/GD32VW55X_Wifi_BLE_SDK/GD32VW55x_RELEASE_V1.0.2/MSDK/cloud/alicloud/src/protocol/alcs\alcs_server.c ****         HAL_MutexUnlock(dev_lst->list_mutex);
 381:C:/Users/stapi/OneDrive/Desktop/GD32VW553/V1_MQTT_OK/GD32VW55X_Wifi_BLE_SDK/GD32VW55x_RELEASE_V1.0.2/MSDK/cloud/alicloud/src/protocol/alcs\alcs_server.c **** 
 382:C:/Users/stapi/OneDrive/Desktop/GD32VW553/V1_MQTT_OK/GD32VW55X_Wifi_BLE_SDK/GD32VW55x_RELEASE_V1.0.2/MSDK/cloud/alicloud/src/protocol/alcs\alcs_server.c ****         return 0;
 383:C:/Users/stapi/OneDrive/Desktop/GD32VW553/V1_MQTT_OK/GD32VW55X_Wifi_BLE_SDK/GD32VW55x_RELEASE_V1.0.2/MSDK/cloud/alicloud/src/protocol/alcs\alcs_server.c **** 
 384:C:/Users/stapi/OneDrive/Desktop/GD32VW553/V1_MQTT_OK/GD32VW55X_Wifi_BLE_SDK/GD32VW55x_RELEASE_V1.0.2/MSDK/cloud/alicloud/src/protocol/alcs\alcs_server.c ****     } while (0);
 385:C:/Users/stapi/OneDrive/Desktop/GD32VW553/V1_MQTT_OK/GD32VW55X_Wifi_BLE_SDK/GD32VW55x_RELEASE_V1.0.2/MSDK/cloud/alicloud/src/protocol/alcs\alcs_server.c **** 
 386:C:/Users/stapi/OneDrive/Desktop/GD32VW553/V1_MQTT_OK/GD32VW55X_Wifi_BLE_SDK/GD32VW55x_RELEASE_V1.0.2/MSDK/cloud/alicloud/src/protocol/alcs\alcs_server.c ****     if (item->groupId) coap_free(item->groupId);
 387:C:/Users/stapi/OneDrive/Desktop/GD32VW553/V1_MQTT_OK/GD32VW55X_Wifi_BLE_SDK/GD32VW55x_RELEASE_V1.0.2/MSDK/cloud/alicloud/src/protocol/alcs\alcs_server.c ****     if (item->keyInfo.secret) coap_free(item->keyInfo.secret);
 388:C:/Users/stapi/OneDrive/Desktop/GD32VW553/V1_MQTT_OK/GD32VW55X_Wifi_BLE_SDK/GD32VW55x_RELEASE_V1.0.2/MSDK/cloud/alicloud/src/protocol/alcs\alcs_server.c ****     coap_free (item);
 389:C:/Users/stapi/OneDrive/Desktop/GD32VW553/V1_MQTT_OK/GD32VW55X_Wifi_BLE_SDK/GD32VW55x_RELEASE_V1.0.2/MSDK/cloud/alicloud/src/protocol/alcs\alcs_server.c **** 
 390:C:/Users/stapi/OneDrive/Desktop/GD32VW553/V1_MQTT_OK/GD32VW55X_Wifi_BLE_SDK/GD32VW55x_RELEASE_V1.0.2/MSDK/cloud/alicloud/src/protocol/alcs\alcs_server.c ****     return ALCS_ERR_MALLOC;
 391:C:/Users/stapi/OneDrive/Desktop/GD32VW553/V1_MQTT_OK/GD32VW55X_Wifi_BLE_SDK/GD32VW55x_RELEASE_V1.0.2/MSDK/cloud/alicloud/src/protocol/alcs\alcs_server.c **** }
 392:C:/Users/stapi/OneDrive/Desktop/GD32VW553/V1_MQTT_OK/GD32VW55X_Wifi_BLE_SDK/GD32VW55x_RELEASE_V1.0.2/MSDK/cloud/alicloud/src/protocol/alcs\alcs_server.c **** 
 393:C:/Users/stapi/OneDrive/Desktop/GD32VW553/V1_MQTT_OK/GD32VW55X_Wifi_BLE_SDK/GD32VW55x_RELEASE_V1.0.2/MSDK/cloud/alicloud/src/protocol/alcs\alcs_server.c **** int alcs_clear_svr_group (CoAPContext *context)
 394:C:/Users/stapi/OneDrive/Desktop/GD32VW553/V1_MQTT_OK/GD32VW55X_Wifi_BLE_SDK/GD32VW55x_RELEASE_V1.0.2/MSDK/cloud/alicloud/src/protocol/alcs\alcs_server.c **** {
 395:C:/Users/stapi/OneDrive/Desktop/GD32VW553/V1_MQTT_OK/GD32VW55X_Wifi_BLE_SDK/GD32VW55x_RELEASE_V1.0.2/MSDK/cloud/alicloud/src/protocol/alcs\alcs_server.c ****     device_auth_list *dev_lst = get_device ();
 396:C:/Users/stapi/OneDrive/Desktop/GD32VW553/V1_MQTT_OK/GD32VW55X_Wifi_BLE_SDK/GD32VW55x_RELEASE_V1.0.2/MSDK/cloud/alicloud/src/protocol/alcs\alcs_server.c **** 
 397:C:/Users/stapi/OneDrive/Desktop/GD32VW553/V1_MQTT_OK/GD32VW55X_Wifi_BLE_SDK/GD32VW55x_RELEASE_V1.0.2/MSDK/cloud/alicloud/src/protocol/alcs\alcs_server.c ****     svr_group_item *node = NULL, *next = NULL;
 398:C:/Users/stapi/OneDrive/Desktop/GD32VW553/V1_MQTT_OK/GD32VW55X_Wifi_BLE_SDK/GD32VW55x_RELEASE_V1.0.2/MSDK/cloud/alicloud/src/protocol/alcs\alcs_server.c ****     HAL_MutexLock(dev_lst->list_mutex);
 399:C:/Users/stapi/OneDrive/Desktop/GD32VW553/V1_MQTT_OK/GD32VW55X_Wifi_BLE_SDK/GD32VW55x_RELEASE_V1.0.2/MSDK/cloud/alicloud/src/protocol/alcs\alcs_server.c ****     dev_lst->svr_group_count = 0;
 400:C:/Users/stapi/OneDrive/Desktop/GD32VW553/V1_MQTT_OK/GD32VW55X_Wifi_BLE_SDK/GD32VW55x_RELEASE_V1.0.2/MSDK/cloud/alicloud/src/protocol/alcs\alcs_server.c **** 
 401:C:/Users/stapi/OneDrive/Desktop/GD32VW553/V1_MQTT_OK/GD32VW55X_Wifi_BLE_SDK/GD32VW55x_RELEASE_V1.0.2/MSDK/cloud/alicloud/src/protocol/alcs\alcs_server.c ****     list_for_each_entry_safe(node, next, &dev_lst->lst_svr_group, lst, svr_group_item) {
 402:C:/Users/stapi/OneDrive/Desktop/GD32VW553/V1_MQTT_OK/GD32VW55X_Wifi_BLE_SDK/GD32VW55x_RELEASE_V1.0.2/MSDK/cloud/alicloud/src/protocol/alcs\alcs_server.c ****         coap_free(node->groupId);
 403:C:/Users/stapi/OneDrive/Desktop/GD32VW553/V1_MQTT_OK/GD32VW55X_Wifi_BLE_SDK/GD32VW55x_RELEASE_V1.0.2/MSDK/cloud/alicloud/src/protocol/alcs\alcs_server.c ****         coap_free(node->revocation);
 404:C:/Users/stapi/OneDrive/Desktop/GD32VW553/V1_MQTT_OK/GD32VW55X_Wifi_BLE_SDK/GD32VW55x_RELEASE_V1.0.2/MSDK/cloud/alicloud/src/protocol/alcs\alcs_server.c ****         coap_free(node->keyInfo.secret);
 405:C:/Users/stapi/OneDrive/Desktop/GD32VW553/V1_MQTT_OK/GD32VW55X_Wifi_BLE_SDK/GD32VW55x_RELEASE_V1.0.2/MSDK/cloud/alicloud/src/protocol/alcs\alcs_server.c ****         list_del(&node->lst);
 406:C:/Users/stapi/OneDrive/Desktop/GD32VW553/V1_MQTT_OK/GD32VW55X_Wifi_BLE_SDK/GD32VW55x_RELEASE_V1.0.2/MSDK/cloud/alicloud/src/protocol/alcs\alcs_server.c ****         coap_free(node);
 407:C:/Users/stapi/OneDrive/Desktop/GD32VW553/V1_MQTT_OK/GD32VW55X_Wifi_BLE_SDK/GD32VW55x_RELEASE_V1.0.2/MSDK/cloud/alicloud/src/protocol/alcs\alcs_server.c ****     }
 408:C:/Users/stapi/OneDrive/Desktop/GD32VW553/V1_MQTT_OK/GD32VW55X_Wifi_BLE_SDK/GD32VW55x_RELEASE_V1.0.2/MSDK/cloud/alicloud/src/protocol/alcs\alcs_server.c ****     HAL_MutexUnlock(dev_lst->list_mutex);
 409:C:/Users/stapi/OneDrive/Desktop/GD32VW553/V1_MQTT_OK/GD32VW55X_Wifi_BLE_SDK/GD32VW55x_RELEASE_V1.0.2/MSDK/cloud/alicloud/src/protocol/alcs\alcs_server.c **** 
 410:C:/Users/stapi/OneDrive/Desktop/GD32VW553/V1_MQTT_OK/GD32VW55X_Wifi_BLE_SDK/GD32VW55x_RELEASE_V1.0.2/MSDK/cloud/alicloud/src/protocol/alcs\alcs_server.c ****     return ALCS_SUCCESS;
 411:C:/Users/stapi/OneDrive/Desktop/GD32VW553/V1_MQTT_OK/GD32VW55X_Wifi_BLE_SDK/GD32VW55x_RELEASE_V1.0.2/MSDK/cloud/alicloud/src/protocol/alcs\alcs_server.c **** }
 412:C:/Users/stapi/OneDrive/Desktop/GD32VW553/V1_MQTT_OK/GD32VW55X_Wifi_BLE_SDK/GD32VW55x_RELEASE_V1.0.2/MSDK/cloud/alicloud/src/protocol/alcs\alcs_server.c **** 
 413:C:/Users/stapi/OneDrive/Desktop/GD32VW553/V1_MQTT_OK/GD32VW55X_Wifi_BLE_SDK/GD32VW55x_RELEASE_V1.0.2/MSDK/cloud/alicloud/src/protocol/alcs\alcs_server.c **** int alcs_set_group_revocation (CoAPContext *context, const char* groupid, const char* seqlist)
 414:C:/Users/stapi/OneDrive/Desktop/GD32VW553/V1_MQTT_OK/GD32VW55X_Wifi_BLE_SDK/GD32VW55x_RELEASE_V1.0.2/MSDK/cloud/alicloud/src/protocol/alcs\alcs_server.c **** {
 415:C:/Users/stapi/OneDrive/Desktop/GD32VW553/V1_MQTT_OK/GD32VW55X_Wifi_BLE_SDK/GD32VW55x_RELEASE_V1.0.2/MSDK/cloud/alicloud/src/protocol/alcs\alcs_server.c ****     device_auth_list *dev_lst = get_device ();
 416:C:/Users/stapi/OneDrive/Desktop/GD32VW553/V1_MQTT_OK/GD32VW55X_Wifi_BLE_SDK/GD32VW55x_RELEASE_V1.0.2/MSDK/cloud/alicloud/src/protocol/alcs\alcs_server.c ****     if (!groupid) {
 417:C:/Users/stapi/OneDrive/Desktop/GD32VW553/V1_MQTT_OK/GD32VW55X_Wifi_BLE_SDK/GD32VW55x_RELEASE_V1.0.2/MSDK/cloud/alicloud/src/protocol/alcs\alcs_server.c ****         return ALCS_ERR_NULL;
 418:C:/Users/stapi/OneDrive/Desktop/GD32VW553/V1_MQTT_OK/GD32VW55X_Wifi_BLE_SDK/GD32VW55x_RELEASE_V1.0.2/MSDK/cloud/alicloud/src/protocol/alcs\alcs_server.c ****     }
 419:C:/Users/stapi/OneDrive/Desktop/GD32VW553/V1_MQTT_OK/GD32VW55X_Wifi_BLE_SDK/GD32VW55x_RELEASE_V1.0.2/MSDK/cloud/alicloud/src/protocol/alcs\alcs_server.c **** 
 420:C:/Users/stapi/OneDrive/Desktop/GD32VW553/V1_MQTT_OK/GD32VW55X_Wifi_BLE_SDK/GD32VW55x_RELEASE_V1.0.2/MSDK/cloud/alicloud/src/protocol/alcs\alcs_server.c ****     svr_group_item *node = NULL, *next = NULL;
 421:C:/Users/stapi/OneDrive/Desktop/GD32VW553/V1_MQTT_OK/GD32VW55X_Wifi_BLE_SDK/GD32VW55x_RELEASE_V1.0.2/MSDK/cloud/alicloud/src/protocol/alcs\alcs_server.c ****     HAL_MutexLock(dev_lst->list_mutex);
 422:C:/Users/stapi/OneDrive/Desktop/GD32VW553/V1_MQTT_OK/GD32VW55X_Wifi_BLE_SDK/GD32VW55x_RELEASE_V1.0.2/MSDK/cloud/alicloud/src/protocol/alcs\alcs_server.c **** 
 423:C:/Users/stapi/OneDrive/Desktop/GD32VW553/V1_MQTT_OK/GD32VW55X_Wifi_BLE_SDK/GD32VW55x_RELEASE_V1.0.2/MSDK/cloud/alicloud/src/protocol/alcs\alcs_server.c ****     list_for_each_entry_safe(node, next, &dev_lst->lst_svr_group, lst, svr_group_item) {
 424:C:/Users/stapi/OneDrive/Desktop/GD32VW553/V1_MQTT_OK/GD32VW55X_Wifi_BLE_SDK/GD32VW55x_RELEASE_V1.0.2/MSDK/cloud/alicloud/src/protocol/alcs\alcs_server.c ****         if(strcmp(node->groupId, groupid) == 0){
 425:C:/Users/stapi/OneDrive/Desktop/GD32VW553/V1_MQTT_OK/GD32VW55X_Wifi_BLE_SDK/GD32VW55x_RELEASE_V1.0.2/MSDK/cloud/alicloud/src/protocol/alcs\alcs_server.c **** 
 426:C:/Users/stapi/OneDrive/Desktop/GD32VW553/V1_MQTT_OK/GD32VW55X_Wifi_BLE_SDK/GD32VW55x_RELEASE_V1.0.2/MSDK/cloud/alicloud/src/protocol/alcs\alcs_server.c ****             int len = seqlist? (int)strlen(seqlist) : 0;
 427:C:/Users/stapi/OneDrive/Desktop/GD32VW553/V1_MQTT_OK/GD32VW55X_Wifi_BLE_SDK/GD32VW55x_RELEASE_V1.0.2/MSDK/cloud/alicloud/src/protocol/alcs\alcs_server.c ****             if (node->revocation) {
 428:C:/Users/stapi/OneDrive/Desktop/GD32VW553/V1_MQTT_OK/GD32VW55X_Wifi_BLE_SDK/GD32VW55x_RELEASE_V1.0.2/MSDK/cloud/alicloud/src/protocol/alcs\alcs_server.c ****                 coap_free(node->revocation);
 429:C:/Users/stapi/OneDrive/Desktop/GD32VW553/V1_MQTT_OK/GD32VW55X_Wifi_BLE_SDK/GD32VW55x_RELEASE_V1.0.2/MSDK/cloud/alicloud/src/protocol/alcs\alcs_server.c ****                 node->revocation = NULL;
 430:C:/Users/stapi/OneDrive/Desktop/GD32VW553/V1_MQTT_OK/GD32VW55X_Wifi_BLE_SDK/GD32VW55x_RELEASE_V1.0.2/MSDK/cloud/alicloud/src/protocol/alcs\alcs_server.c ****             }
 431:C:/Users/stapi/OneDrive/Desktop/GD32VW553/V1_MQTT_OK/GD32VW55X_Wifi_BLE_SDK/GD32VW55x_RELEASE_V1.0.2/MSDK/cloud/alicloud/src/protocol/alcs\alcs_server.c **** 
 432:C:/Users/stapi/OneDrive/Desktop/GD32VW553/V1_MQTT_OK/GD32VW55X_Wifi_BLE_SDK/GD32VW55x_RELEASE_V1.0.2/MSDK/cloud/alicloud/src/protocol/alcs\alcs_server.c ****             if (len > 0) {
 433:C:/Users/stapi/OneDrive/Desktop/GD32VW553/V1_MQTT_OK/GD32VW55X_Wifi_BLE_SDK/GD32VW55x_RELEASE_V1.0.2/MSDK/cloud/alicloud/src/protocol/alcs\alcs_server.c ****                 node->revocation = (char*)coap_malloc (len + 1);
 434:C:/Users/stapi/OneDrive/Desktop/GD32VW553/V1_MQTT_OK/GD32VW55X_Wifi_BLE_SDK/GD32VW55x_RELEASE_V1.0.2/MSDK/cloud/alicloud/src/protocol/alcs\alcs_server.c ****                 strcpy (node->revocation, seqlist);
 435:C:/Users/stapi/OneDrive/Desktop/GD32VW553/V1_MQTT_OK/GD32VW55X_Wifi_BLE_SDK/GD32VW55x_RELEASE_V1.0.2/MSDK/cloud/alicloud/src/protocol/alcs\alcs_server.c ****             }
 436:C:/Users/stapi/OneDrive/Desktop/GD32VW553/V1_MQTT_OK/GD32VW55X_Wifi_BLE_SDK/GD32VW55x_RELEASE_V1.0.2/MSDK/cloud/alicloud/src/protocol/alcs\alcs_server.c **** 
 437:C:/Users/stapi/OneDrive/Desktop/GD32VW553/V1_MQTT_OK/GD32VW55X_Wifi_BLE_SDK/GD32VW55x_RELEASE_V1.0.2/MSDK/cloud/alicloud/src/protocol/alcs\alcs_server.c ****             break;
 438:C:/Users/stapi/OneDrive/Desktop/GD32VW553/V1_MQTT_OK/GD32VW55X_Wifi_BLE_SDK/GD32VW55x_RELEASE_V1.0.2/MSDK/cloud/alicloud/src/protocol/alcs\alcs_server.c ****         }
 439:C:/Users/stapi/OneDrive/Desktop/GD32VW553/V1_MQTT_OK/GD32VW55X_Wifi_BLE_SDK/GD32VW55x_RELEASE_V1.0.2/MSDK/cloud/alicloud/src/protocol/alcs\alcs_server.c ****     }
 440:C:/Users/stapi/OneDrive/Desktop/GD32VW553/V1_MQTT_OK/GD32VW55X_Wifi_BLE_SDK/GD32VW55x_RELEASE_V1.0.2/MSDK/cloud/alicloud/src/protocol/alcs\alcs_server.c **** 
 441:C:/Users/stapi/OneDrive/Desktop/GD32VW553/V1_MQTT_OK/GD32VW55X_Wifi_BLE_SDK/GD32VW55x_RELEASE_V1.0.2/MSDK/cloud/alicloud/src/protocol/alcs\alcs_server.c ****     HAL_MutexUnlock(dev_lst->list_mutex);
 442:C:/Users/stapi/OneDrive/Desktop/GD32VW553/V1_MQTT_OK/GD32VW55X_Wifi_BLE_SDK/GD32VW55x_RELEASE_V1.0.2/MSDK/cloud/alicloud/src/protocol/alcs\alcs_server.c **** 
 443:C:/Users/stapi/OneDrive/Desktop/GD32VW553/V1_MQTT_OK/GD32VW55X_Wifi_BLE_SDK/GD32VW55x_RELEASE_V1.0.2/MSDK/cloud/alicloud/src/protocol/alcs\alcs_server.c ****     return ALCS_SUCCESS;
 444:C:/Users/stapi/OneDrive/Desktop/GD32VW553/V1_MQTT_OK/GD32VW55X_Wifi_BLE_SDK/GD32VW55x_RELEASE_V1.0.2/MSDK/cloud/alicloud/src/protocol/alcs\alcs_server.c **** }
 445:C:/Users/stapi/OneDrive/Desktop/GD32VW553/V1_MQTT_OK/GD32VW55X_Wifi_BLE_SDK/GD32VW55x_RELEASE_V1.0.2/MSDK/cloud/alicloud/src/protocol/alcs\alcs_server.c **** 
 446:C:/Users/stapi/OneDrive/Desktop/GD32VW553/V1_MQTT_OK/GD32VW55X_Wifi_BLE_SDK/GD32VW55x_RELEASE_V1.0.2/MSDK/cloud/alicloud/src/protocol/alcs\alcs_server.c **** int check_and_get_group_info (CoAPMessage *message, const char* groupid, char ak[1], int* tag, char
 447:C:/Users/stapi/OneDrive/Desktop/GD32VW553/V1_MQTT_OK/GD32VW55X_Wifi_BLE_SDK/GD32VW55x_RELEASE_V1.0.2/MSDK/cloud/alicloud/src/protocol/alcs\alcs_server.c **** {
 448:C:/Users/stapi/OneDrive/Desktop/GD32VW553/V1_MQTT_OK/GD32VW55X_Wifi_BLE_SDK/GD32VW55x_RELEASE_V1.0.2/MSDK/cloud/alicloud/src/protocol/alcs\alcs_server.c ****     int code = ALCS_AUTH_OK;
 449:C:/Users/stapi/OneDrive/Desktop/GD32VW553/V1_MQTT_OK/GD32VW55X_Wifi_BLE_SDK/GD32VW55x_RELEASE_V1.0.2/MSDK/cloud/alicloud/src/protocol/alcs\alcs_server.c ****     char* keyprefix = ak;
 450:C:/Users/stapi/OneDrive/Desktop/GD32VW553/V1_MQTT_OK/GD32VW55X_Wifi_BLE_SDK/GD32VW55x_RELEASE_V1.0.2/MSDK/cloud/alicloud/src/protocol/alcs\alcs_server.c ****     char* keyseq = ak + KEYPREFIX_LEN + 1 + 1;
 451:C:/Users/stapi/OneDrive/Desktop/GD32VW553/V1_MQTT_OK/GD32VW55X_Wifi_BLE_SDK/GD32VW55x_RELEASE_V1.0.2/MSDK/cloud/alicloud/src/protocol/alcs\alcs_server.c ****     int i;
 452:C:/Users/stapi/OneDrive/Desktop/GD32VW553/V1_MQTT_OK/GD32VW55X_Wifi_BLE_SDK/GD32VW55x_RELEASE_V1.0.2/MSDK/cloud/alicloud/src/protocol/alcs\alcs_server.c **** 
 453:C:/Users/stapi/OneDrive/Desktop/GD32VW553/V1_MQTT_OK/GD32VW55X_Wifi_BLE_SDK/GD32VW55x_RELEASE_V1.0.2/MSDK/cloud/alicloud/src/protocol/alcs\alcs_server.c ****     device_auth_list *dev_lst = get_device ();
 454:C:/Users/stapi/OneDrive/Desktop/GD32VW553/V1_MQTT_OK/GD32VW55X_Wifi_BLE_SDK/GD32VW55x_RELEASE_V1.0.2/MSDK/cloud/alicloud/src/protocol/alcs\alcs_server.c ****     svr_group_item *groupItem = NULL, *node, *next = NULL;
 455:C:/Users/stapi/OneDrive/Desktop/GD32VW553/V1_MQTT_OK/GD32VW55X_Wifi_BLE_SDK/GD32VW55x_RELEASE_V1.0.2/MSDK/cloud/alicloud/src/protocol/alcs\alcs_server.c ****     HAL_MutexLock(dev_lst->list_mutex);
 456:C:/Users/stapi/OneDrive/Desktop/GD32VW553/V1_MQTT_OK/GD32VW55X_Wifi_BLE_SDK/GD32VW55x_RELEASE_V1.0.2/MSDK/cloud/alicloud/src/protocol/alcs\alcs_server.c **** 
 457:C:/Users/stapi/OneDrive/Desktop/GD32VW553/V1_MQTT_OK/GD32VW55X_Wifi_BLE_SDK/GD32VW55x_RELEASE_V1.0.2/MSDK/cloud/alicloud/src/protocol/alcs\alcs_server.c ****     list_for_each_entry_safe(node, next, &dev_lst->lst_svr_group, lst, svr_group_item) {
 458:C:/Users/stapi/OneDrive/Desktop/GD32VW553/V1_MQTT_OK/GD32VW55X_Wifi_BLE_SDK/GD32VW55x_RELEASE_V1.0.2/MSDK/cloud/alicloud/src/protocol/alcs\alcs_server.c ****         if(strcmp(node->groupId, groupid) == 0){
 459:C:/Users/stapi/OneDrive/Desktop/GD32VW553/V1_MQTT_OK/GD32VW55X_Wifi_BLE_SDK/GD32VW55x_RELEASE_V1.0.2/MSDK/cloud/alicloud/src/protocol/alcs\alcs_server.c ****             groupItem = node;
 460:C:/Users/stapi/OneDrive/Desktop/GD32VW553/V1_MQTT_OK/GD32VW55X_Wifi_BLE_SDK/GD32VW55x_RELEASE_V1.0.2/MSDK/cloud/alicloud/src/protocol/alcs\alcs_server.c **** 
 461:C:/Users/stapi/OneDrive/Desktop/GD32VW553/V1_MQTT_OK/GD32VW55X_Wifi_BLE_SDK/GD32VW55x_RELEASE_V1.0.2/MSDK/cloud/alicloud/src/protocol/alcs\alcs_server.c ****             if (CoAPMessageCheckDup(message, &groupItem->preventDup)) {
 462:C:/Users/stapi/OneDrive/Desktop/GD32VW553/V1_MQTT_OK/GD32VW55X_Wifi_BLE_SDK/GD32VW55x_RELEASE_V1.0.2/MSDK/cloud/alicloud/src/protocol/alcs\alcs_server.c ****                 HAL_MutexUnlock(dev_lst->list_mutex);
 463:C:/Users/stapi/OneDrive/Desktop/GD32VW553/V1_MQTT_OK/GD32VW55X_Wifi_BLE_SDK/GD32VW55x_RELEASE_V1.0.2/MSDK/cloud/alicloud/src/protocol/alcs\alcs_server.c ****                 return ALCS_AUTH_INTERNALERROR;
 464:C:/Users/stapi/OneDrive/Desktop/GD32VW553/V1_MQTT_OK/GD32VW55X_Wifi_BLE_SDK/GD32VW55x_RELEASE_V1.0.2/MSDK/cloud/alicloud/src/protocol/alcs\alcs_server.c ****             }
 465:C:/Users/stapi/OneDrive/Desktop/GD32VW553/V1_MQTT_OK/GD32VW55X_Wifi_BLE_SDK/GD32VW55x_RELEASE_V1.0.2/MSDK/cloud/alicloud/src/protocol/alcs\alcs_server.c **** 
 466:C:/Users/stapi/OneDrive/Desktop/GD32VW553/V1_MQTT_OK/GD32VW55X_Wifi_BLE_SDK/GD32VW55x_RELEASE_V1.0.2/MSDK/cloud/alicloud/src/protocol/alcs\alcs_server.c ****             if (memcmp(keyprefix, groupItem->keyInfo.keyprefix, KEYPREFIX_LEN) != 0) {
 467:C:/Users/stapi/OneDrive/Desktop/GD32VW553/V1_MQTT_OK/GD32VW55X_Wifi_BLE_SDK/GD32VW55x_RELEASE_V1.0.2/MSDK/cloud/alicloud/src/protocol/alcs\alcs_server.c ****                 COAP_DEBUG("gak is unmatch gac");
 468:C:/Users/stapi/OneDrive/Desktop/GD32VW553/V1_MQTT_OK/GD32VW55X_Wifi_BLE_SDK/GD32VW55x_RELEASE_V1.0.2/MSDK/cloud/alicloud/src/protocol/alcs\alcs_server.c ****                 code = ALCS_AUTH_UNMATCHPREFIX;
 469:C:/Users/stapi/OneDrive/Desktop/GD32VW553/V1_MQTT_OK/GD32VW55X_Wifi_BLE_SDK/GD32VW55x_RELEASE_V1.0.2/MSDK/cloud/alicloud/src/protocol/alcs\alcs_server.c ****             } else if (groupItem->revocation) {//check whether it is revocated
 470:C:/Users/stapi/OneDrive/Desktop/GD32VW553/V1_MQTT_OK/GD32VW55X_Wifi_BLE_SDK/GD32VW55x_RELEASE_V1.0.2/MSDK/cloud/alicloud/src/protocol/alcs\alcs_server.c ****                 int len = (int)strlen(groupItem->revocation);
 471:C:/Users/stapi/OneDrive/Desktop/GD32VW553/V1_MQTT_OK/GD32VW55X_Wifi_BLE_SDK/GD32VW55x_RELEASE_V1.0.2/MSDK/cloud/alicloud/src/protocol/alcs\alcs_server.c ****                 int i;
 472:C:/Users/stapi/OneDrive/Desktop/GD32VW553/V1_MQTT_OK/GD32VW55X_Wifi_BLE_SDK/GD32VW55x_RELEASE_V1.0.2/MSDK/cloud/alicloud/src/protocol/alcs\alcs_server.c ****                 for (i = 0; i < len; i += KEYSEQ_LEN) {
 473:C:/Users/stapi/OneDrive/Desktop/GD32VW553/V1_MQTT_OK/GD32VW55X_Wifi_BLE_SDK/GD32VW55x_RELEASE_V1.0.2/MSDK/cloud/alicloud/src/protocol/alcs\alcs_server.c ****                     if (strncmp(keyseq, groupItem->revocation + i, KEYSEQ_LEN) == 0) {
 474:C:/Users/stapi/OneDrive/Desktop/GD32VW553/V1_MQTT_OK/GD32VW55X_Wifi_BLE_SDK/GD32VW55x_RELEASE_V1.0.2/MSDK/cloud/alicloud/src/protocol/alcs\alcs_server.c ****                         COAP_INFO ("gak is revocated");
 475:C:/Users/stapi/OneDrive/Desktop/GD32VW553/V1_MQTT_OK/GD32VW55X_Wifi_BLE_SDK/GD32VW55x_RELEASE_V1.0.2/MSDK/cloud/alicloud/src/protocol/alcs\alcs_server.c ****                         code = ALCS_AUTH_REVOCATE;
 476:C:/Users/stapi/OneDrive/Desktop/GD32VW553/V1_MQTT_OK/GD32VW55X_Wifi_BLE_SDK/GD32VW55x_RELEASE_V1.0.2/MSDK/cloud/alicloud/src/protocol/alcs\alcs_server.c ****                         break;
 477:C:/Users/stapi/OneDrive/Desktop/GD32VW553/V1_MQTT_OK/GD32VW55X_Wifi_BLE_SDK/GD32VW55x_RELEASE_V1.0.2/MSDK/cloud/alicloud/src/protocol/alcs\alcs_server.c ****                     }
 478:C:/Users/stapi/OneDrive/Desktop/GD32VW553/V1_MQTT_OK/GD32VW55X_Wifi_BLE_SDK/GD32VW55x_RELEASE_V1.0.2/MSDK/cloud/alicloud/src/protocol/alcs\alcs_server.c ****                 }
 479:C:/Users/stapi/OneDrive/Desktop/GD32VW553/V1_MQTT_OK/GD32VW55X_Wifi_BLE_SDK/GD32VW55x_RELEASE_V1.0.2/MSDK/cloud/alicloud/src/protocol/alcs\alcs_server.c ****             }
 480:C:/Users/stapi/OneDrive/Desktop/GD32VW553/V1_MQTT_OK/GD32VW55X_Wifi_BLE_SDK/GD32VW55x_RELEASE_V1.0.2/MSDK/cloud/alicloud/src/protocol/alcs\alcs_server.c **** 
 481:C:/Users/stapi/OneDrive/Desktop/GD32VW553/V1_MQTT_OK/GD32VW55X_Wifi_BLE_SDK/GD32VW55x_RELEASE_V1.0.2/MSDK/cloud/alicloud/src/protocol/alcs\alcs_server.c ****             break;
 482:C:/Users/stapi/OneDrive/Desktop/GD32VW553/V1_MQTT_OK/GD32VW55X_Wifi_BLE_SDK/GD32VW55x_RELEASE_V1.0.2/MSDK/cloud/alicloud/src/protocol/alcs\alcs_server.c ****         }
 483:C:/Users/stapi/OneDrive/Desktop/GD32VW553/V1_MQTT_OK/GD32VW55X_Wifi_BLE_SDK/GD32VW55x_RELEASE_V1.0.2/MSDK/cloud/alicloud/src/protocol/alcs\alcs_server.c ****     }
 484:C:/Users/stapi/OneDrive/Desktop/GD32VW553/V1_MQTT_OK/GD32VW55X_Wifi_BLE_SDK/GD32VW55x_RELEASE_V1.0.2/MSDK/cloud/alicloud/src/protocol/alcs\alcs_server.c **** 
 485:C:/Users/stapi/OneDrive/Desktop/GD32VW553/V1_MQTT_OK/GD32VW55X_Wifi_BLE_SDK/GD32VW55x_RELEASE_V1.0.2/MSDK/cloud/alicloud/src/protocol/alcs\alcs_server.c ****     //calc accessToken
 486:C:/Users/stapi/OneDrive/Desktop/GD32VW553/V1_MQTT_OK/GD32VW55X_Wifi_BLE_SDK/GD32VW55x_RELEASE_V1.0.2/MSDK/cloud/alicloud/src/protocol/alcs\alcs_server.c ****     if (groupItem) {
 487:C:/Users/stapi/OneDrive/Desktop/GD32VW553/V1_MQTT_OK/GD32VW55X_Wifi_BLE_SDK/GD32VW55x_RELEASE_V1.0.2/MSDK/cloud/alicloud/src/protocol/alcs\alcs_server.c ****         char at[64];
 488:C:/Users/stapi/OneDrive/Desktop/GD32VW553/V1_MQTT_OK/GD32VW55X_Wifi_BLE_SDK/GD32VW55x_RELEASE_V1.0.2/MSDK/cloud/alicloud/src/protocol/alcs\alcs_server.c ****         int at_len = sizeof(at);
 489:C:/Users/stapi/OneDrive/Desktop/GD32VW553/V1_MQTT_OK/GD32VW55X_Wifi_BLE_SDK/GD32VW55x_RELEASE_V1.0.2/MSDK/cloud/alicloud/src/protocol/alcs\alcs_server.c ****         memset (at, 0, sizeof(at));
 490:C:/Users/stapi/OneDrive/Desktop/GD32VW553/V1_MQTT_OK/GD32VW55X_Wifi_BLE_SDK/GD32VW55x_RELEASE_V1.0.2/MSDK/cloud/alicloud/src/protocol/alcs\alcs_server.c ****         utils_hmac_sha1_base64 (ak, Group_AK_LEN, groupItem->keyInfo.secret, (int)strlen(groupItem-
 491:C:/Users/stapi/OneDrive/Desktop/GD32VW553/V1_MQTT_OK/GD32VW55X_Wifi_BLE_SDK/GD32VW55x_RELEASE_V1.0.2/MSDK/cloud/alicloud/src/protocol/alcs\alcs_server.c ****         COAP_DEBUG("at:%s", at);
 492:C:/Users/stapi/OneDrive/Desktop/GD32VW553/V1_MQTT_OK/GD32VW55X_Wifi_BLE_SDK/GD32VW55x_RELEASE_V1.0.2/MSDK/cloud/alicloud/src/protocol/alcs\alcs_server.c **** 
 493:C:/Users/stapi/OneDrive/Desktop/GD32VW553/V1_MQTT_OK/GD32VW55X_Wifi_BLE_SDK/GD32VW55x_RELEASE_V1.0.2/MSDK/cloud/alicloud/src/protocol/alcs\alcs_server.c ****         //calc sessionKey
 494:C:/Users/stapi/OneDrive/Desktop/GD32VW553/V1_MQTT_OK/GD32VW55X_Wifi_BLE_SDK/GD32VW55x_RELEASE_V1.0.2/MSDK/cloud/alicloud/src/protocol/alcs\alcs_server.c ****         utils_hmac_sha1_raw (ak, Group_AK_LEN, group_key, at, (int)strlen(at));
 495:C:/Users/stapi/OneDrive/Desktop/GD32VW553/V1_MQTT_OK/GD32VW55X_Wifi_BLE_SDK/GD32VW55x_RELEASE_V1.0.2/MSDK/cloud/alicloud/src/protocol/alcs\alcs_server.c ****     } else {
 496:C:/Users/stapi/OneDrive/Desktop/GD32VW553/V1_MQTT_OK/GD32VW55X_Wifi_BLE_SDK/GD32VW55x_RELEASE_V1.0.2/MSDK/cloud/alicloud/src/protocol/alcs\alcs_server.c ****         code = ALCS_AUTH_INVALIDPARAM;
 497:C:/Users/stapi/OneDrive/Desktop/GD32VW553/V1_MQTT_OK/GD32VW55X_Wifi_BLE_SDK/GD32VW55x_RELEASE_V1.0.2/MSDK/cloud/alicloud/src/protocol/alcs\alcs_server.c ****     }
 498:C:/Users/stapi/OneDrive/Desktop/GD32VW553/V1_MQTT_OK/GD32VW55X_Wifi_BLE_SDK/GD32VW55x_RELEASE_V1.0.2/MSDK/cloud/alicloud/src/protocol/alcs\alcs_server.c **** 
 499:C:/Users/stapi/OneDrive/Desktop/GD32VW553/V1_MQTT_OK/GD32VW55X_Wifi_BLE_SDK/GD32VW55x_RELEASE_V1.0.2/MSDK/cloud/alicloud/src/protocol/alcs\alcs_server.c ****     HAL_MutexUnlock(dev_lst->list_mutex);
 500:C:/Users/stapi/OneDrive/Desktop/GD32VW553/V1_MQTT_OK/GD32VW55X_Wifi_BLE_SDK/GD32VW55x_RELEASE_V1.0.2/MSDK/cloud/alicloud/src/protocol/alcs\alcs_server.c **** 
 501:C:/Users/stapi/OneDrive/Desktop/GD32VW553/V1_MQTT_OK/GD32VW55X_Wifi_BLE_SDK/GD32VW55x_RELEASE_V1.0.2/MSDK/cloud/alicloud/src/protocol/alcs\alcs_server.c ****     return code;
 502:C:/Users/stapi/OneDrive/Desktop/GD32VW553/V1_MQTT_OK/GD32VW55X_Wifi_BLE_SDK/GD32VW55x_RELEASE_V1.0.2/MSDK/cloud/alicloud/src/protocol/alcs\alcs_server.c **** }
 503:C:/Users/stapi/OneDrive/Desktop/GD32VW553/V1_MQTT_OK/GD32VW55X_Wifi_BLE_SDK/GD32VW55x_RELEASE_V1.0.2/MSDK/cloud/alicloud/src/protocol/alcs\alcs_server.c **** #endif
 504:C:/Users/stapi/OneDrive/Desktop/GD32VW553/V1_MQTT_OK/GD32VW55X_Wifi_BLE_SDK/GD32VW55x_RELEASE_V1.0.2/MSDK/cloud/alicloud/src/protocol/alcs\alcs_server.c **** //-----------------------------------------
 505:C:/Users/stapi/OneDrive/Desktop/GD32VW553/V1_MQTT_OK/GD32VW55X_Wifi_BLE_SDK/GD32VW55x_RELEASE_V1.0.2/MSDK/cloud/alicloud/src/protocol/alcs\alcs_server.c **** 
 506:C:/Users/stapi/OneDrive/Desktop/GD32VW553/V1_MQTT_OK/GD32VW55X_Wifi_BLE_SDK/GD32VW55x_RELEASE_V1.0.2/MSDK/cloud/alicloud/src/protocol/alcs\alcs_server.c **** void send_err_rsp(CoAPContext *ctx, NetworkAddr *addr, int code, CoAPMessage *request)
 507:C:/Users/stapi/OneDrive/Desktop/GD32VW553/V1_MQTT_OK/GD32VW55X_Wifi_BLE_SDK/GD32VW55x_RELEASE_V1.0.2/MSDK/cloud/alicloud/src/protocol/alcs\alcs_server.c **** {
 508:C:/Users/stapi/OneDrive/Desktop/GD32VW553/V1_MQTT_OK/GD32VW55X_Wifi_BLE_SDK/GD32VW55x_RELEASE_V1.0.2/MSDK/cloud/alicloud/src/protocol/alcs\alcs_server.c ****     CoAPMessage sendMsg;
 509:C:/Users/stapi/OneDrive/Desktop/GD32VW553/V1_MQTT_OK/GD32VW55X_Wifi_BLE_SDK/GD32VW55x_RELEASE_V1.0.2/MSDK/cloud/alicloud/src/protocol/alcs\alcs_server.c ****     CoAPLenString payload = {0};
 510:C:/Users/stapi/OneDrive/Desktop/GD32VW553/V1_MQTT_OK/GD32VW55X_Wifi_BLE_SDK/GD32VW55x_RELEASE_V1.0.2/MSDK/cloud/alicloud/src/protocol/alcs\alcs_server.c ****     alcs_msg_init(ctx, &sendMsg, code, COAP_MESSAGE_TYPE_ACK, 0, &payload, NULL);
 511:C:/Users/stapi/OneDrive/Desktop/GD32VW553/V1_MQTT_OK/GD32VW55X_Wifi_BLE_SDK/GD32VW55x_RELEASE_V1.0.2/MSDK/cloud/alicloud/src/protocol/alcs\alcs_server.c ****     CoAPLenString token = {request->header.tokenlen, request->token};
 512:C:/Users/stapi/OneDrive/Desktop/GD32VW553/V1_MQTT_OK/GD32VW55X_Wifi_BLE_SDK/GD32VW55x_RELEASE_V1.0.2/MSDK/cloud/alicloud/src/protocol/alcs\alcs_server.c ****     alcs_sendrsp(ctx, addr, &sendMsg, 1, request->header.msgid, &token);
 513:C:/Users/stapi/OneDrive/Desktop/GD32VW553/V1_MQTT_OK/GD32VW55X_Wifi_BLE_SDK/GD32VW55x_RELEASE_V1.0.2/MSDK/cloud/alicloud/src/protocol/alcs\alcs_server.c **** }
 514:C:/Users/stapi/OneDrive/Desktop/GD32VW553/V1_MQTT_OK/GD32VW55X_Wifi_BLE_SDK/GD32VW55x_RELEASE_V1.0.2/MSDK/cloud/alicloud/src/protocol/alcs\alcs_server.c **** 
 515:C:/Users/stapi/OneDrive/Desktop/GD32VW553/V1_MQTT_OK/GD32VW55X_Wifi_BLE_SDK/GD32VW55x_RELEASE_V1.0.2/MSDK/cloud/alicloud/src/protocol/alcs\alcs_server.c **** void call_cb(CoAPContext *context, const char *path, NetworkAddr *remote, CoAPMessage *message, con
 516:C:/Users/stapi/OneDrive/Desktop/GD32VW553/V1_MQTT_OK/GD32VW55X_Wifi_BLE_SDK/GD32VW55x_RELEASE_V1.0.2/MSDK/cloud/alicloud/src/protocol/alcs\alcs_server.c ****              char *buf, CoAPRecvMsgHandler cb)
 517:C:/Users/stapi/OneDrive/Desktop/GD32VW553/V1_MQTT_OK/GD32VW55X_Wifi_BLE_SDK/GD32VW55x_RELEASE_V1.0.2/MSDK/cloud/alicloud/src/protocol/alcs\alcs_server.c **** {
 518:C:/Users/stapi/OneDrive/Desktop/GD32VW553/V1_MQTT_OK/GD32VW55X_Wifi_BLE_SDK/GD32VW55x_RELEASE_V1.0.2/MSDK/cloud/alicloud/src/protocol/alcs\alcs_server.c ****     CoAPMessage tmpMsg;
 519:C:/Users/stapi/OneDrive/Desktop/GD32VW553/V1_MQTT_OK/GD32VW55X_Wifi_BLE_SDK/GD32VW55x_RELEASE_V1.0.2/MSDK/cloud/alicloud/src/protocol/alcs\alcs_server.c ****     memcpy(&tmpMsg, message, sizeof(CoAPMessage));
 520:C:/Users/stapi/OneDrive/Desktop/GD32VW553/V1_MQTT_OK/GD32VW55X_Wifi_BLE_SDK/GD32VW55x_RELEASE_V1.0.2/MSDK/cloud/alicloud/src/protocol/alcs\alcs_server.c **** 
 521:C:/Users/stapi/OneDrive/Desktop/GD32VW553/V1_MQTT_OK/GD32VW55X_Wifi_BLE_SDK/GD32VW55x_RELEASE_V1.0.2/MSDK/cloud/alicloud/src/protocol/alcs\alcs_server.c ****     if (key && buf) {
 522:C:/Users/stapi/OneDrive/Desktop/GD32VW553/V1_MQTT_OK/GD32VW55X_Wifi_BLE_SDK/GD32VW55x_RELEASE_V1.0.2/MSDK/cloud/alicloud/src/protocol/alcs\alcs_server.c ****         int len = alcs_decrypt((const char *)message->payload, message->payloadlen, key, buf);
 523:C:/Users/stapi/OneDrive/Desktop/GD32VW553/V1_MQTT_OK/GD32VW55X_Wifi_BLE_SDK/GD32VW55x_RELEASE_V1.0.2/MSDK/cloud/alicloud/src/protocol/alcs\alcs_server.c ****         tmpMsg.payload = (unsigned char *)buf;
 524:C:/Users/stapi/OneDrive/Desktop/GD32VW553/V1_MQTT_OK/GD32VW55X_Wifi_BLE_SDK/GD32VW55x_RELEASE_V1.0.2/MSDK/cloud/alicloud/src/protocol/alcs\alcs_server.c ****         tmpMsg.payloadlen = len;
 525:C:/Users/stapi/OneDrive/Desktop/GD32VW553/V1_MQTT_OK/GD32VW55X_Wifi_BLE_SDK/GD32VW55x_RELEASE_V1.0.2/MSDK/cloud/alicloud/src/protocol/alcs\alcs_server.c **** #ifdef LOG_REPORT_TO_CLOUD
 526:C:/Users/stapi/OneDrive/Desktop/GD32VW553/V1_MQTT_OK/GD32VW55X_Wifi_BLE_SDK/GD32VW55x_RELEASE_V1.0.2/MSDK/cloud/alicloud/src/protocol/alcs\alcs_server.c ****         extern void get_msgid(char *payload, int is_cloud);
 527:C:/Users/stapi/OneDrive/Desktop/GD32VW553/V1_MQTT_OK/GD32VW55X_Wifi_BLE_SDK/GD32VW55x_RELEASE_V1.0.2/MSDK/cloud/alicloud/src/protocol/alcs\alcs_server.c ****         get_msgid(buf, 0);
 528:C:/Users/stapi/OneDrive/Desktop/GD32VW553/V1_MQTT_OK/GD32VW55X_Wifi_BLE_SDK/GD32VW55x_RELEASE_V1.0.2/MSDK/cloud/alicloud/src/protocol/alcs\alcs_server.c **** #endif
 529:C:/Users/stapi/OneDrive/Desktop/GD32VW553/V1_MQTT_OK/GD32VW55X_Wifi_BLE_SDK/GD32VW55x_RELEASE_V1.0.2/MSDK/cloud/alicloud/src/protocol/alcs\alcs_server.c ****     } else {
 530:C:/Users/stapi/OneDrive/Desktop/GD32VW553/V1_MQTT_OK/GD32VW55X_Wifi_BLE_SDK/GD32VW55x_RELEASE_V1.0.2/MSDK/cloud/alicloud/src/protocol/alcs\alcs_server.c ****         tmpMsg.payload = NULL;
 531:C:/Users/stapi/OneDrive/Desktop/GD32VW553/V1_MQTT_OK/GD32VW55X_Wifi_BLE_SDK/GD32VW55x_RELEASE_V1.0.2/MSDK/cloud/alicloud/src/protocol/alcs\alcs_server.c ****         tmpMsg.payloadlen = 0;
 532:C:/Users/stapi/OneDrive/Desktop/GD32VW553/V1_MQTT_OK/GD32VW55X_Wifi_BLE_SDK/GD32VW55x_RELEASE_V1.0.2/MSDK/cloud/alicloud/src/protocol/alcs\alcs_server.c ****     }
 533:C:/Users/stapi/OneDrive/Desktop/GD32VW553/V1_MQTT_OK/GD32VW55X_Wifi_BLE_SDK/GD32VW55x_RELEASE_V1.0.2/MSDK/cloud/alicloud/src/protocol/alcs\alcs_server.c ****     cb(context, path, remote, &tmpMsg);
 534:C:/Users/stapi/OneDrive/Desktop/GD32VW553/V1_MQTT_OK/GD32VW55X_Wifi_BLE_SDK/GD32VW55x_RELEASE_V1.0.2/MSDK/cloud/alicloud/src/protocol/alcs\alcs_server.c **** }
 535:C:/Users/stapi/OneDrive/Desktop/GD32VW553/V1_MQTT_OK/GD32VW55X_Wifi_BLE_SDK/GD32VW55x_RELEASE_V1.0.2/MSDK/cloud/alicloud/src/protocol/alcs\alcs_server.c **** 
 536:C:/Users/stapi/OneDrive/Desktop/GD32VW553/V1_MQTT_OK/GD32VW55X_Wifi_BLE_SDK/GD32VW55x_RELEASE_V1.0.2/MSDK/cloud/alicloud/src/protocol/alcs\alcs_server.c **** static secure_resource_cb_item *get_resource_by_path(const char *path)
 537:C:/Users/stapi/OneDrive/Desktop/GD32VW553/V1_MQTT_OK/GD32VW55X_Wifi_BLE_SDK/GD32VW55x_RELEASE_V1.0.2/MSDK/cloud/alicloud/src/protocol/alcs\alcs_server.c **** {
  25              		.loc 1 537 1
  26              		.cfi_startproc
  27              	.LVL0:
  28 0000 17030000 		call	t0,__riscv_save_4
  28      E7020300 
  29              		.cfi_offset 19, -20
  30              		.cfi_offset 18, -16
  31              		.cfi_offset 9, -12
  32              		.cfi_offset 8, -8
  33              		.cfi_offset 1, -4
  34              		.cfi_def_cfa_offset 32
 538:C:/Users/stapi/OneDrive/Desktop/GD32VW553/V1_MQTT_OK/GD32VW55X_Wifi_BLE_SDK/GD32VW55x_RELEASE_V1.0.2/MSDK/cloud/alicloud/src/protocol/alcs\alcs_server.c ****     secure_resource_cb_item *node, *next;
  35              		.loc 1 538 5
 539:C:/Users/stapi/OneDrive/Desktop/GD32VW553/V1_MQTT_OK/GD32VW55X_Wifi_BLE_SDK/GD32VW55x_RELEASE_V1.0.2/MSDK/cloud/alicloud/src/protocol/alcs\alcs_server.c ****     char path_calc[MAX_PATH_CHECKSUM_LEN] = {0};
  36              		.loc 1 539 5
 537:C:/Users/stapi/OneDrive/Desktop/GD32VW553/V1_MQTT_OK/GD32VW55X_Wifi_BLE_SDK/GD32VW55x_RELEASE_V1.0.2/MSDK/cloud/alicloud/src/protocol/alcs\alcs_server.c ****     secure_resource_cb_item *node, *next;
  37              		.loc 1 537 1 is_stmt 0
  38 0008 4111     		addi	sp,sp,-16
  39              		.cfi_def_cfa_offset 48
 537:C:/Users/stapi/OneDrive/Desktop/GD32VW553/V1_MQTT_OK/GD32VW55X_Wifi_BLE_SDK/GD32VW55x_RELEASE_V1.0.2/MSDK/cloud/alicloud/src/protocol/alcs\alcs_server.c ****     secure_resource_cb_item *node, *next;
  40              		.loc 1 537 1
  41 000a AA84     		mv	s1,a0
  42              		.loc 1 539 10
  43 000c 02C4     		sw	zero,8(sp)
  44 000e 23060100 		sb	zero,12(sp)
 540:C:/Users/stapi/OneDrive/Desktop/GD32VW553/V1_MQTT_OK/GD32VW55X_Wifi_BLE_SDK/GD32VW55x_RELEASE_V1.0.2/MSDK/cloud/alicloud/src/protocol/alcs\alcs_server.c ****     CoAPPathMD5_sum(path, strlen(path), path_calc, MAX_PATH_CHECKSUM_LEN);
  45              		.loc 1 540 5 is_stmt 1
  46              		.loc 1 540 27 is_stmt 0
  47 0012 97000000 		call	strlen
  47      E7800000 
  48              	.LVL1:
  49 001a AA85     		mv	a1,a0
  50              		.loc 1 540 5
  51 001c 9546     		li	a3,5
  52 001e 3000     		addi	a2,sp,8
  53 0020 2685     		mv	a0,s1
  54 0022 97000000 		call	CoAPPathMD5_sum
  54      E7800000 
  55              	.LVL2:
 541:C:/Users/stapi/OneDrive/Desktop/GD32VW553/V1_MQTT_OK/GD32VW55X_Wifi_BLE_SDK/GD32VW55x_RELEASE_V1.0.2/MSDK/cloud/alicloud/src/protocol/alcs\alcs_server.c **** 
 542:C:/Users/stapi/OneDrive/Desktop/GD32VW553/V1_MQTT_OK/GD32VW55X_Wifi_BLE_SDK/GD32VW55x_RELEASE_V1.0.2/MSDK/cloud/alicloud/src/protocol/alcs\alcs_server.c ****     list_for_each_entry_safe(node, next, &secure_resource_cb_head, lst, secure_resource_cb_item) {
  56              		.loc 1 542 5 is_stmt 1
  57 002a B7070000 		lui	a5,%hi(secure_resource_cb_head)
  58 002e 13870700 		addi	a4,a5,%lo(secure_resource_cb_head)
  59 0032 5843     		lw	a4,4(a4)
  60 0034 93890700 		addi	s3,a5,%lo(secure_resource_cb_head)
  61 0038 03294700 		lw	s2,4(a4)
  62 003c 130487FE 		addi	s0,a4,-24
  63              	.LVL3:
  64 0040 2119     		addi	s2,s2,-24
  65              	.LVL4:
  66              	.L2:
  67              		.loc 1 542 5 discriminator 1
  68 0042 93078401 		addi	a5,s0,24
  69 0046 63923705 		bne	a5,s3,.L6
 543:C:/Users/stapi/OneDrive/Desktop/GD32VW553/V1_MQTT_OK/GD32VW55X_Wifi_BLE_SDK/GD32VW55x_RELEASE_V1.0.2/MSDK/cloud/alicloud/src/protocol/alcs\alcs_server.c ****         if (node->path_type == PATH_NORMAL) {
 544:C:/Users/stapi/OneDrive/Desktop/GD32VW553/V1_MQTT_OK/GD32VW55X_Wifi_BLE_SDK/GD32VW55x_RELEASE_V1.0.2/MSDK/cloud/alicloud/src/protocol/alcs\alcs_server.c ****             if (memcmp(node->path, path_calc, MAX_PATH_CHECKSUM_LEN) == 0) {
 545:C:/Users/stapi/OneDrive/Desktop/GD32VW553/V1_MQTT_OK/GD32VW55X_Wifi_BLE_SDK/GD32VW55x_RELEASE_V1.0.2/MSDK/cloud/alicloud/src/protocol/alcs\alcs_server.c ****                 return node;
 546:C:/Users/stapi/OneDrive/Desktop/GD32VW553/V1_MQTT_OK/GD32VW55X_Wifi_BLE_SDK/GD32VW55x_RELEASE_V1.0.2/MSDK/cloud/alicloud/src/protocol/alcs\alcs_server.c ****             }
 547:C:/Users/stapi/OneDrive/Desktop/GD32VW553/V1_MQTT_OK/GD32VW55X_Wifi_BLE_SDK/GD32VW55x_RELEASE_V1.0.2/MSDK/cloud/alicloud/src/protocol/alcs\alcs_server.c ****         } else if (strlen(node->filter_path) > 0) {
 548:C:/Users/stapi/OneDrive/Desktop/GD32VW553/V1_MQTT_OK/GD32VW55X_Wifi_BLE_SDK/GD32VW55x_RELEASE_V1.0.2/MSDK/cloud/alicloud/src/protocol/alcs\alcs_server.c ****             if (CoAPResource_topicFilterMatch(node->filter_path, path) == 0) {
 549:C:/Users/stapi/OneDrive/Desktop/GD32VW553/V1_MQTT_OK/GD32VW55X_Wifi_BLE_SDK/GD32VW55x_RELEASE_V1.0.2/MSDK/cloud/alicloud/src/protocol/alcs\alcs_server.c ****                 return node;
 550:C:/Users/stapi/OneDrive/Desktop/GD32VW553/V1_MQTT_OK/GD32VW55X_Wifi_BLE_SDK/GD32VW55x_RELEASE_V1.0.2/MSDK/cloud/alicloud/src/protocol/alcs\alcs_server.c ****             }
 551:C:/Users/stapi/OneDrive/Desktop/GD32VW553/V1_MQTT_OK/GD32VW55X_Wifi_BLE_SDK/GD32VW55x_RELEASE_V1.0.2/MSDK/cloud/alicloud/src/protocol/alcs\alcs_server.c ****         }
 552:C:/Users/stapi/OneDrive/Desktop/GD32VW553/V1_MQTT_OK/GD32VW55X_Wifi_BLE_SDK/GD32VW55x_RELEASE_V1.0.2/MSDK/cloud/alicloud/src/protocol/alcs\alcs_server.c ****     }
 553:C:/Users/stapi/OneDrive/Desktop/GD32VW553/V1_MQTT_OK/GD32VW55X_Wifi_BLE_SDK/GD32VW55x_RELEASE_V1.0.2/MSDK/cloud/alicloud/src/protocol/alcs\alcs_server.c **** 
 554:C:/Users/stapi/OneDrive/Desktop/GD32VW553/V1_MQTT_OK/GD32VW55X_Wifi_BLE_SDK/GD32VW55x_RELEASE_V1.0.2/MSDK/cloud/alicloud/src/protocol/alcs\alcs_server.c ****     COAP_ERR("receive unknown request, path:%s", path);
  70              		.loc 1 554 5
  71              		.loc 1 554 5
  72 004a 37050000 		lui	a0,%hi(.LC0)
  73 004e 13050500 		addi	a0,a0,%lo(.LC0)
  74 0052 97000000 		call	HAL_Printf
  74      E7800000 
  75              	.LVL5:
  76              		.loc 1 554 5
  77 005a 37050000 		lui	a0,%hi(.LC1)
  78 005e A685     		mv	a1,s1
  79 0060 13050500 		addi	a0,a0,%lo(.LC1)
  80 0064 97000000 		call	HAL_Printf
  80      E7800000 
  81              	.LVL6:
  82              		.loc 1 554 5
  83 006c 37050000 		lui	a0,%hi(.LC2)
  84 0070 13050500 		addi	a0,a0,%lo(.LC2)
  85 0074 97000000 		call	HAL_Printf
  85      E7800000 
  86              	.LVL7:
  87              		.loc 1 554 5
 555:C:/Users/stapi/OneDrive/Desktop/GD32VW553/V1_MQTT_OK/GD32VW55X_Wifi_BLE_SDK/GD32VW55x_RELEASE_V1.0.2/MSDK/cloud/alicloud/src/protocol/alcs\alcs_server.c ****     return NULL;
  88              		.loc 1 555 5
  89              		.loc 1 555 12 is_stmt 0
  90 007c 0144     		li	s0,0
  91              	.LVL8:
  92              	.L1:
 556:C:/Users/stapi/OneDrive/Desktop/GD32VW553/V1_MQTT_OK/GD32VW55X_Wifi_BLE_SDK/GD32VW55x_RELEASE_V1.0.2/MSDK/cloud/alicloud/src/protocol/alcs\alcs_server.c **** }
  93              		.loc 1 556 1
  94 007e 2285     		mv	a0,s0
  95 0080 4101     		addi	sp,sp,16
  96              		.cfi_remember_state
  97              		.cfi_def_cfa_offset 0
  98 0082 17030000 		tail	__riscv_restore_4
  98      67000300 
  99              		.cfi_restore 19
 100              		.cfi_restore 18
 101              		.cfi_restore 9
 102              		.cfi_restore 8
 103              		.cfi_restore 1
 104              		.cfi_def_cfa_offset -32
 105              	.LVL9:
 106              	.L6:
 107              		.cfi_restore_state
 543:C:/Users/stapi/OneDrive/Desktop/GD32VW553/V1_MQTT_OK/GD32VW55X_Wifi_BLE_SDK/GD32VW55x_RELEASE_V1.0.2/MSDK/cloud/alicloud/src/protocol/alcs\alcs_server.c ****         if (node->path_type == PATH_NORMAL) {
 108              		.loc 1 543 9 is_stmt 1
 543:C:/Users/stapi/OneDrive/Desktop/GD32VW553/V1_MQTT_OK/GD32VW55X_Wifi_BLE_SDK/GD32VW55x_RELEASE_V1.0.2/MSDK/cloud/alicloud/src/protocol/alcs\alcs_server.c ****         if (node->path_type == PATH_NORMAL) {
 109              		.loc 1 543 12 is_stmt 0
 110 008a 1C48     		lw	a5,16(s0)
 111 008c 99EF     		bne	a5,zero,.L3
 544:C:/Users/stapi/OneDrive/Desktop/GD32VW553/V1_MQTT_OK/GD32VW55X_Wifi_BLE_SDK/GD32VW55x_RELEASE_V1.0.2/MSDK/cloud/alicloud/src/protocol/alcs\alcs_server.c ****                 return node;
 112              		.loc 1 544 13 is_stmt 1
 544:C:/Users/stapi/OneDrive/Desktop/GD32VW553/V1_MQTT_OK/GD32VW55X_Wifi_BLE_SDK/GD32VW55x_RELEASE_V1.0.2/MSDK/cloud/alicloud/src/protocol/alcs\alcs_server.c ****                 return node;
 113              		.loc 1 544 17 is_stmt 0
 114 008e 1546     		li	a2,5
 115 0090 2C00     		addi	a1,sp,8
 116 0092 2285     		mv	a0,s0
 117 0094 97000000 		call	memcmp
 117      E7800000 
 118              	.LVL10:
 119              	.L17:
 544:C:/Users/stapi/OneDrive/Desktop/GD32VW553/V1_MQTT_OK/GD32VW55X_Wifi_BLE_SDK/GD32VW55x_RELEASE_V1.0.2/MSDK/cloud/alicloud/src/protocol/alcs\alcs_server.c ****                 return node;
 120              		.loc 1 544 16
 121 009c 6DD1     		beq	a0,zero,.L1
 122              	.L5:
 542:C:/Users/stapi/OneDrive/Desktop/GD32VW553/V1_MQTT_OK/GD32VW55X_Wifi_BLE_SDK/GD32VW55x_RELEASE_V1.0.2/MSDK/cloud/alicloud/src/protocol/alcs\alcs_server.c ****         if (node->path_type == PATH_NORMAL) {
 123              		.loc 1 542 5 is_stmt 1
 124              	.LVL11:
 125 009e 8327C901 		lw	a5,28(s2)
 126              	.LVL12:
 127 00a2 4A84     		mv	s0,s2
 128 00a4 138987FE 		addi	s2,a5,-24
 129              	.LVL13:
 130 00a8 69BF     		j	.L2
 131              	.L3:
 547:C:/Users/stapi/OneDrive/Desktop/GD32VW553/V1_MQTT_OK/GD32VW55X_Wifi_BLE_SDK/GD32VW55x_RELEASE_V1.0.2/MSDK/cloud/alicloud/src/protocol/alcs\alcs_server.c ****             if (CoAPResource_topicFilterMatch(node->filter_path, path) == 0) {
 132              		.loc 1 547 16
 547:C:/Users/stapi/OneDrive/Desktop/GD32VW553/V1_MQTT_OK/GD32VW55X_Wifi_BLE_SDK/GD32VW55x_RELEASE_V1.0.2/MSDK/cloud/alicloud/src/protocol/alcs\alcs_server.c ****             if (CoAPResource_topicFilterMatch(node->filter_path, path) == 0) {
 133              		.loc 1 547 31 is_stmt 0
 134 00aa 4844     		lw	a0,12(s0)
 547:C:/Users/stapi/OneDrive/Desktop/GD32VW553/V1_MQTT_OK/GD32VW55X_Wifi_BLE_SDK/GD32VW55x_RELEASE_V1.0.2/MSDK/cloud/alicloud/src/protocol/alcs\alcs_server.c ****             if (CoAPResource_topicFilterMatch(node->filter_path, path) == 0) {
 135              		.loc 1 547 19
 136 00ac 83070500 		lb	a5,0(a0)
 137 00b0 FDD7     		beq	a5,zero,.L5
 548:C:/Users/stapi/OneDrive/Desktop/GD32VW553/V1_MQTT_OK/GD32VW55X_Wifi_BLE_SDK/GD32VW55x_RELEASE_V1.0.2/MSDK/cloud/alicloud/src/protocol/alcs\alcs_server.c ****                 return node;
 138              		.loc 1 548 13 is_stmt 1
 548:C:/Users/stapi/OneDrive/Desktop/GD32VW553/V1_MQTT_OK/GD32VW55X_Wifi_BLE_SDK/GD32VW55x_RELEASE_V1.0.2/MSDK/cloud/alicloud/src/protocol/alcs\alcs_server.c ****                 return node;
 139              		.loc 1 548 17 is_stmt 0
 140 00b2 A685     		mv	a1,s1
 141 00b4 97000000 		call	CoAPResource_topicFilterMatch
 141      E7800000 
 142              	.LVL14:
 143 00bc C5B7     		j	.L17
 144              		.cfi_endproc
 145              	.LFE29:
 147              		.section	.rodata.is_legal_key.str1.4,"aMS",@progbits,1
 148              		.align	2
 149              	.LC3:
 150 0000 5B696E66 		.string	"[inf] "
 150      5D2000
 151 0007 00       		.align	2
 152              	.LC4:
 153 0008 69736C65 		.string	"islegal prefix:%.*s, seq:%.*s"
 153      67616C20 
 153      70726566 
 153      69783A25 
 153      2E2A732C 
 154 0026 0000     		.align	2
 155              	.LC5:
 156 0028 66696E64 		.string	"find devices"
 156      20646576 
 156      69636573 
 156      00
 157 0035 000000   		.align	2
 158              	.LC6:
 159 0038 636F6170 		.string	"coap_local"
 159      5F6C6F63 
 159      616C00
 160 0043 00       		.align	2
 161              	.LC7:
 162 0044 61636365 		.string	"accesskey is revocated"
 162      73736B65 
 162      79206973 
 162      20726576 
 162      6F636174 
 163 005b 00       		.align	2
 164              	.LC8:
 165 005c 414C4353 		.string	"ALCS_AUTH_AUTHLISTEMPTY:%d\r\n"
 165      5F415554 
 165      485F4155 
 165      54484C49 
 165      5354454D 
 166 0079 000000   		.align	2
 167              	.LC9:
 168 007c 6E6F6465 		.string	"node prefix:%s"
 168      20707265 
 168      6669783A 
 168      257300
 169 008b 00       		.align	2
 170              	.LC10:
 171 008c 414C4353 		.string	"ALCS_AUTH_UNMATCHPREFIX:%d\r\n"
 171      5F415554 
 171      485F554E 
 171      4D415443 
 171      48505245 
 172              		.section	.text.is_legal_key,"ax",@progbits
 173              		.align	1
 174              		.globl	is_legal_key
 176              	is_legal_key:
 177              	.LFB20:
  25:C:/Users/stapi/OneDrive/Desktop/GD32VW553/V1_MQTT_OK/GD32VW55X_Wifi_BLE_SDK/GD32VW55x_RELEASE_V1.0.2/MSDK/cloud/alicloud/src/protocol/alcs\alcs_server.c ****     COAP_INFO("islegal prefix:%.*s, seq:%.*s", prefixlen, keyprefix, seqlen, keyseq);
 178              		.loc 1 25 1 is_stmt 1
 179              		.cfi_startproc
 180              	.LVL15:
 181 0000 17030000 		call	t0,__riscv_save_12
 181      E7020300 
 182              		.cfi_offset 27, -52
 183              		.cfi_offset 26, -48
 184              		.cfi_offset 25, -44
 185              		.cfi_offset 24, -40
 186              		.cfi_offset 23, -36
 187              		.cfi_offset 22, -32
 188              		.cfi_offset 21, -28
 189              		.cfi_offset 20, -24
 190              		.cfi_offset 19, -20
 191              		.cfi_offset 18, -16
 192              		.cfi_offset 9, -12
 193              		.cfi_offset 8, -8
 194              		.cfi_offset 1, -4
 195              		.cfi_def_cfa_offset 64
  26:C:/Users/stapi/OneDrive/Desktop/GD32VW553/V1_MQTT_OK/GD32VW55X_Wifi_BLE_SDK/GD32VW55x_RELEASE_V1.0.2/MSDK/cloud/alicloud/src/protocol/alcs\alcs_server.c **** 
 196              		.loc 1 26 5
  26:C:/Users/stapi/OneDrive/Desktop/GD32VW553/V1_MQTT_OK/GD32VW55X_Wifi_BLE_SDK/GD32VW55x_RELEASE_V1.0.2/MSDK/cloud/alicloud/src/protocol/alcs\alcs_server.c **** 
 197              		.loc 1 26 5
 198 0008 370A0000 		lui	s4,%hi(.LC3)
  25:C:/Users/stapi/OneDrive/Desktop/GD32VW553/V1_MQTT_OK/GD32VW55X_Wifi_BLE_SDK/GD32VW55x_RELEASE_V1.0.2/MSDK/cloud/alicloud/src/protocol/alcs\alcs_server.c ****     COAP_INFO("islegal prefix:%.*s, seq:%.*s", prefixlen, keyprefix, seqlen, keyseq);
 199              		.loc 1 25 1 is_stmt 0
 200 000c 4111     		addi	sp,sp,-16
 201              		.cfi_def_cfa_offset 80
  26:C:/Users/stapi/OneDrive/Desktop/GD32VW553/V1_MQTT_OK/GD32VW55X_Wifi_BLE_SDK/GD32VW55x_RELEASE_V1.0.2/MSDK/cloud/alicloud/src/protocol/alcs\alcs_server.c **** 
 202              		.loc 1 26 5
 203 000e 13050A00 		addi	a0,s4,%lo(.LC3)
 204              	.LVL16:
  25:C:/Users/stapi/OneDrive/Desktop/GD32VW553/V1_MQTT_OK/GD32VW55X_Wifi_BLE_SDK/GD32VW55x_RELEASE_V1.0.2/MSDK/cloud/alicloud/src/protocol/alcs\alcs_server.c ****     COAP_INFO("islegal prefix:%.*s, seq:%.*s", prefixlen, keyprefix, seqlen, keyseq);
 205              		.loc 1 25 1
 206 0012 3E89     		mv	s2,a5
 207 0014 2E8C     		mv	s8,a1
 208 0016 328B     		mv	s6,a2
 209 0018 B68A     		mv	s5,a3
 210 001a BA8B     		mv	s7,a4
  26:C:/Users/stapi/OneDrive/Desktop/GD32VW553/V1_MQTT_OK/GD32VW55X_Wifi_BLE_SDK/GD32VW55x_RELEASE_V1.0.2/MSDK/cloud/alicloud/src/protocol/alcs\alcs_server.c **** 
 211              		.loc 1 26 5
 212 001c 97000000 		call	HAL_Printf
 212      E7800000 
 213              	.LVL17:
  26:C:/Users/stapi/OneDrive/Desktop/GD32VW553/V1_MQTT_OK/GD32VW55X_Wifi_BLE_SDK/GD32VW55x_RELEASE_V1.0.2/MSDK/cloud/alicloud/src/protocol/alcs\alcs_server.c **** 
 214              		.loc 1 26 5 is_stmt 1
 215 0024 37050000 		lui	a0,%hi(.LC4)
 216 0028 5687     		mv	a4,s5
 217 002a DE86     		mv	a3,s7
 218 002c 6286     		mv	a2,s8
 219 002e DA85     		mv	a1,s6
 220 0030 13050500 		addi	a0,a0,%lo(.LC4)
 221 0034 97000000 		call	HAL_Printf
 221      E7800000 
 222              	.LVL18:
  26:C:/Users/stapi/OneDrive/Desktop/GD32VW553/V1_MQTT_OK/GD32VW55X_Wifi_BLE_SDK/GD32VW55x_RELEASE_V1.0.2/MSDK/cloud/alicloud/src/protocol/alcs\alcs_server.c **** 
 223              		.loc 1 26 5
 224 003c B7090000 		lui	s3,%hi(.LC2)
 225 0040 13850900 		addi	a0,s3,%lo(.LC2)
 226 0044 97000000 		call	HAL_Printf
 226      E7800000 
 227              	.LVL19:
  26:C:/Users/stapi/OneDrive/Desktop/GD32VW553/V1_MQTT_OK/GD32VW55X_Wifi_BLE_SDK/GD32VW55x_RELEASE_V1.0.2/MSDK/cloud/alicloud/src/protocol/alcs\alcs_server.c **** 
 228              		.loc 1 26 5
  28:C:/Users/stapi/OneDrive/Desktop/GD32VW553/V1_MQTT_OK/GD32VW55X_Wifi_BLE_SDK/GD32VW55x_RELEASE_V1.0.2/MSDK/cloud/alicloud/src/protocol/alcs\alcs_server.c ****     if (lst) {
 229              		.loc 1 28 5
  29:C:/Users/stapi/OneDrive/Desktop/GD32VW553/V1_MQTT_OK/GD32VW55X_Wifi_BLE_SDK/GD32VW55x_RELEASE_V1.0.2/MSDK/cloud/alicloud/src/protocol/alcs\alcs_server.c ****         COAP_DEBUG("find devices");
 230              		.loc 1 29 5
  30:C:/Users/stapi/OneDrive/Desktop/GD32VW553/V1_MQTT_OK/GD32VW55X_Wifi_BLE_SDK/GD32VW55x_RELEASE_V1.0.2/MSDK/cloud/alicloud/src/protocol/alcs\alcs_server.c ****         HAL_MutexLock(lst->list_mutex);
 231              		.loc 1 30 9
 232 004c B70C0000 		lui	s9,%hi(.LANCHOR0)
 233 0050 37070000 		lui	a4,%hi(.LC5)
 234 0054 370D0000 		lui	s10,%hi(.LC6)
 235 0058 13070700 		addi	a4,a4,%lo(.LC5)
 236 005c 9546     		li	a3,5
 237 005e 7946     		li	a2,30
 238 0060 93850C00 		addi	a1,s9,%lo(.LANCHOR0)
 239 0064 13050D00 		addi	a0,s10,%lo(.LC6)
  31:C:/Users/stapi/OneDrive/Desktop/GD32VW553/V1_MQTT_OK/GD32VW55X_Wifi_BLE_SDK/GD32VW55x_RELEASE_V1.0.2/MSDK/cloud/alicloud/src/protocol/alcs\alcs_server.c **** 
 240              		.loc 1 31 9 is_stmt 0
 241 0068 B7040000 		lui	s1,%hi(_device)
 242 006c 13840400 		addi	s0,s1,%lo(_device)
  30:C:/Users/stapi/OneDrive/Desktop/GD32VW553/V1_MQTT_OK/GD32VW55X_Wifi_BLE_SDK/GD32VW55x_RELEASE_V1.0.2/MSDK/cloud/alicloud/src/protocol/alcs\alcs_server.c ****         HAL_MutexLock(lst->list_mutex);
 243              		.loc 1 30 9
 244 0070 97000000 		call	LITE_syslog
 244      E7800000 
 245              	.LVL20:
  31:C:/Users/stapi/OneDrive/Desktop/GD32VW553/V1_MQTT_OK/GD32VW55X_Wifi_BLE_SDK/GD32VW55x_RELEASE_V1.0.2/MSDK/cloud/alicloud/src/protocol/alcs\alcs_server.c **** 
 246              		.loc 1 31 9 is_stmt 1
 247 0078 0844     		lw	a0,8(s0)
 248 007a 93840400 		addi	s1,s1,%lo(_device)
 249 007e 97000000 		call	HAL_MutexLock
 249      E7800000 
 250              	.LVL21:
  33:C:/Users/stapi/OneDrive/Desktop/GD32VW553/V1_MQTT_OK/GD32VW55X_Wifi_BLE_SDK/GD32VW55x_RELEASE_V1.0.2/MSDK/cloud/alicloud/src/protocol/alcs\alcs_server.c ****             int len = strlen(lst->revocation);
 251              		.loc 1 33 9
  33:C:/Users/stapi/OneDrive/Desktop/GD32VW553/V1_MQTT_OK/GD32VW55X_Wifi_BLE_SDK/GD32VW55x_RELEASE_V1.0.2/MSDK/cloud/alicloud/src/protocol/alcs\alcs_server.c ****             int len = strlen(lst->revocation);
 252              		.loc 1 33 16 is_stmt 0
 253 0086 832D8401 		lw	s11,24(s0)
  33:C:/Users/stapi/OneDrive/Desktop/GD32VW553/V1_MQTT_OK/GD32VW55X_Wifi_BLE_SDK/GD32VW55x_RELEASE_V1.0.2/MSDK/cloud/alicloud/src/protocol/alcs\alcs_server.c ****             int len = strlen(lst->revocation);
 254              		.loc 1 33 12
 255 008a 638B0D00 		beq	s11,zero,.L19
 256              	.LBB41:
  34:C:/Users/stapi/OneDrive/Desktop/GD32VW553/V1_MQTT_OK/GD32VW55X_Wifi_BLE_SDK/GD32VW55x_RELEASE_V1.0.2/MSDK/cloud/alicloud/src/protocol/alcs\alcs_server.c ****             int i;
 257              		.loc 1 34 13 is_stmt 1
  34:C:/Users/stapi/OneDrive/Desktop/GD32VW553/V1_MQTT_OK/GD32VW55X_Wifi_BLE_SDK/GD32VW55x_RELEASE_V1.0.2/MSDK/cloud/alicloud/src/protocol/alcs\alcs_server.c ****             int i;
 258              		.loc 1 34 23 is_stmt 0
 259 008e 6E85     		mv	a0,s11
 260 0090 97000000 		call	strlen
 260      E7800000 
 261              	.LVL22:
 262 0098 AA87     		mv	a5,a0
 263              	.LVL23:
  35:C:/Users/stapi/OneDrive/Desktop/GD32VW553/V1_MQTT_OK/GD32VW55X_Wifi_BLE_SDK/GD32VW55x_RELEASE_V1.0.2/MSDK/cloud/alicloud/src/protocol/alcs\alcs_server.c ****             for (i = 0; i < len; i += KEYSEQ_LEN) {
 264              		.loc 1 35 13 is_stmt 1
  36:C:/Users/stapi/OneDrive/Desktop/GD32VW553/V1_MQTT_OK/GD32VW55X_Wifi_BLE_SDK/GD32VW55x_RELEASE_V1.0.2/MSDK/cloud/alicloud/src/protocol/alcs\alcs_server.c ****                 if (strncmp(keyseq, lst->revocation + i, seqlen) == 0) {
 265              		.loc 1 36 13
  36:C:/Users/stapi/OneDrive/Desktop/GD32VW553/V1_MQTT_OK/GD32VW55X_Wifi_BLE_SDK/GD32VW55x_RELEASE_V1.0.2/MSDK/cloud/alicloud/src/protocol/alcs\alcs_server.c ****                 if (strncmp(keyseq, lst->revocation + i, seqlen) == 0) {
 266              		.loc 1 36 20 is_stmt 0
 267 009a 0144     		li	s0,0
 268              	.LVL24:
 269              	.L20:
  36:C:/Users/stapi/OneDrive/Desktop/GD32VW553/V1_MQTT_OK/GD32VW55X_Wifi_BLE_SDK/GD32VW55x_RELEASE_V1.0.2/MSDK/cloud/alicloud/src/protocol/alcs\alcs_server.c ****                 if (strncmp(keyseq, lst->revocation + i, seqlen) == 0) {
 270              		.loc 1 36 25 is_stmt 1 discriminator 1
  36:C:/Users/stapi/OneDrive/Desktop/GD32VW553/V1_MQTT_OK/GD32VW55X_Wifi_BLE_SDK/GD32VW55x_RELEASE_V1.0.2/MSDK/cloud/alicloud/src/protocol/alcs\alcs_server.c ****                 if (strncmp(keyseq, lst->revocation + i, seqlen) == 0) {
 271              		.loc 1 36 13 is_stmt 0 discriminator 1
 272 009c 6349F404 		blt	s0,a5,.L23
 273              	.LVL25:
 274              	.L19:
 275              	.LBE41:
  46:C:/Users/stapi/OneDrive/Desktop/GD32VW553/V1_MQTT_OK/GD32VW55X_Wifi_BLE_SDK/GD32VW55x_RELEASE_V1.0.2/MSDK/cloud/alicloud/src/protocol/alcs\alcs_server.c ****             COAP_INFO("ALCS_AUTH_AUTHLISTEMPTY:%d\r\n", ALCS_AUTH_AUTHLISTEMPTY);
 276              		.loc 1 46 9 is_stmt 1
 277              	.LBB42:
 278              	.LBB43:
 279              		.file 2 "..\\..\\..\\..\\cloud\\alicloud\\src\\infra\\utils\\misc/lite-list.h"
   1:..\..\..\..\cloud\alicloud\src\infra\utils\misc/lite-list.h **** /*
   2:..\..\..\..\cloud\alicloud\src\infra\utils\misc/lite-list.h ****  * Copyright (C) 2015-2018 Alibaba Group Holding Limited
   3:..\..\..\..\cloud\alicloud\src\infra\utils\misc/lite-list.h ****  */
   4:..\..\..\..\cloud\alicloud\src\infra\utils\misc/lite-list.h **** 
   5:..\..\..\..\cloud\alicloud\src\infra\utils\misc/lite-list.h **** #ifndef AOS_LIST_H
   6:..\..\..\..\cloud\alicloud\src\infra\utils\misc/lite-list.h **** #define AOS_LIST_H
   7:..\..\..\..\cloud\alicloud\src\infra\utils\misc/lite-list.h **** 
   8:..\..\..\..\cloud\alicloud\src\infra\utils\misc/lite-list.h **** #ifdef __cplusplus
   9:..\..\..\..\cloud\alicloud\src\infra\utils\misc/lite-list.h **** extern "C" {
  10:..\..\..\..\cloud\alicloud\src\infra\utils\misc/lite-list.h **** #endif
  11:..\..\..\..\cloud\alicloud\src\infra\utils\misc/lite-list.h **** 
  12:..\..\..\..\cloud\alicloud\src\infra\utils\misc/lite-list.h **** /*
  13:..\..\..\..\cloud\alicloud\src\infra\utils\misc/lite-list.h ****  * Get offset of a member variable.
  14:..\..\..\..\cloud\alicloud\src\infra\utils\misc/lite-list.h ****  *
  15:..\..\..\..\cloud\alicloud\src\infra\utils\misc/lite-list.h ****  * @param[in]   type     the type of the struct this is embedded in.
  16:..\..\..\..\cloud\alicloud\src\infra\utils\misc/lite-list.h ****  * @param[in]   member   the name of the variable within the struct.
  17:..\..\..\..\cloud\alicloud\src\infra\utils\misc/lite-list.h ****  */
  18:..\..\..\..\cloud\alicloud\src\infra\utils\misc/lite-list.h **** #define aos_offsetof(type, member)   ((size_t)&(((type *)0)->member))
  19:..\..\..\..\cloud\alicloud\src\infra\utils\misc/lite-list.h **** 
  20:..\..\..\..\cloud\alicloud\src\infra\utils\misc/lite-list.h **** /*
  21:..\..\..\..\cloud\alicloud\src\infra\utils\misc/lite-list.h ****  * Get the struct for this entry.
  22:..\..\..\..\cloud\alicloud\src\infra\utils\misc/lite-list.h ****  *
  23:..\..\..\..\cloud\alicloud\src\infra\utils\misc/lite-list.h ****  * @param[in]   ptr     the list head to take the element from.
  24:..\..\..\..\cloud\alicloud\src\infra\utils\misc/lite-list.h ****  * @param[in]   type    the type of the struct this is embedded in.
  25:..\..\..\..\cloud\alicloud\src\infra\utils\misc/lite-list.h ****  * @param[in]   member  the name of the variable within the struct.
  26:..\..\..\..\cloud\alicloud\src\infra\utils\misc/lite-list.h ****  */
  27:..\..\..\..\cloud\alicloud\src\infra\utils\misc/lite-list.h **** #define aos_container_of(ptr, type, member) \
  28:..\..\..\..\cloud\alicloud\src\infra\utils\misc/lite-list.h ****     ((type *) ((char *) (ptr) - aos_offsetof(type, member)))
  29:..\..\..\..\cloud\alicloud\src\infra\utils\misc/lite-list.h **** 
  30:..\..\..\..\cloud\alicloud\src\infra\utils\misc/lite-list.h **** /* for double link list */
  31:..\..\..\..\cloud\alicloud\src\infra\utils\misc/lite-list.h **** typedef struct dlist_s {
  32:..\..\..\..\cloud\alicloud\src\infra\utils\misc/lite-list.h ****     struct dlist_s *prev;
  33:..\..\..\..\cloud\alicloud\src\infra\utils\misc/lite-list.h ****     struct dlist_s *next;
  34:..\..\..\..\cloud\alicloud\src\infra\utils\misc/lite-list.h **** } dlist_t;
  35:..\..\..\..\cloud\alicloud\src\infra\utils\misc/lite-list.h **** 
  36:..\..\..\..\cloud\alicloud\src\infra\utils\misc/lite-list.h **** static inline void __dlist_add(dlist_t *node, dlist_t *prev, dlist_t *next)
  37:..\..\..\..\cloud\alicloud\src\infra\utils\misc/lite-list.h **** {
  38:..\..\..\..\cloud\alicloud\src\infra\utils\misc/lite-list.h ****     node->next = next;
  39:..\..\..\..\cloud\alicloud\src\infra\utils\misc/lite-list.h ****     node->prev = prev;
  40:..\..\..\..\cloud\alicloud\src\infra\utils\misc/lite-list.h **** 
  41:..\..\..\..\cloud\alicloud\src\infra\utils\misc/lite-list.h ****     prev->next = node;
  42:..\..\..\..\cloud\alicloud\src\infra\utils\misc/lite-list.h ****     next->prev = node;
  43:..\..\..\..\cloud\alicloud\src\infra\utils\misc/lite-list.h **** }
  44:..\..\..\..\cloud\alicloud\src\infra\utils\misc/lite-list.h **** 
  45:..\..\..\..\cloud\alicloud\src\infra\utils\misc/lite-list.h **** /*
  46:..\..\..\..\cloud\alicloud\src\infra\utils\misc/lite-list.h ****  * Get the struct for this entry.
  47:..\..\..\..\cloud\alicloud\src\infra\utils\misc/lite-list.h ****  *
  48:..\..\..\..\cloud\alicloud\src\infra\utils\misc/lite-list.h ****  * @param[in]   addr    the list head to take the element from.
  49:..\..\..\..\cloud\alicloud\src\infra\utils\misc/lite-list.h ****  * @param[in]   type    the type of the struct this is embedded in.
  50:..\..\..\..\cloud\alicloud\src\infra\utils\misc/lite-list.h ****  * @param[in]   member  the name of the dlist_t within the struct.
  51:..\..\..\..\cloud\alicloud\src\infra\utils\misc/lite-list.h ****  */
  52:..\..\..\..\cloud\alicloud\src\infra\utils\misc/lite-list.h **** #define dlist_entry(addr, type, member) \
  53:..\..\..\..\cloud\alicloud\src\infra\utils\misc/lite-list.h ****     ((type *)((long)addr - aos_offsetof(type, member)))
  54:..\..\..\..\cloud\alicloud\src\infra\utils\misc/lite-list.h **** 
  55:..\..\..\..\cloud\alicloud\src\infra\utils\misc/lite-list.h **** 
  56:..\..\..\..\cloud\alicloud\src\infra\utils\misc/lite-list.h **** static inline void dlist_add(dlist_t *node, dlist_t *queue)
  57:..\..\..\..\cloud\alicloud\src\infra\utils\misc/lite-list.h **** {
  58:..\..\..\..\cloud\alicloud\src\infra\utils\misc/lite-list.h ****     __dlist_add(node, queue, queue->next);
  59:..\..\..\..\cloud\alicloud\src\infra\utils\misc/lite-list.h **** }
  60:..\..\..\..\cloud\alicloud\src\infra\utils\misc/lite-list.h **** 
  61:..\..\..\..\cloud\alicloud\src\infra\utils\misc/lite-list.h **** static inline void dlist_add_tail(dlist_t *node, dlist_t *queue)
  62:..\..\..\..\cloud\alicloud\src\infra\utils\misc/lite-list.h **** {
  63:..\..\..\..\cloud\alicloud\src\infra\utils\misc/lite-list.h ****     __dlist_add(node, queue->prev, queue);
  64:..\..\..\..\cloud\alicloud\src\infra\utils\misc/lite-list.h **** }
  65:..\..\..\..\cloud\alicloud\src\infra\utils\misc/lite-list.h **** 
  66:..\..\..\..\cloud\alicloud\src\infra\utils\misc/lite-list.h **** static inline void dlist_del(dlist_t *node)
  67:..\..\..\..\cloud\alicloud\src\infra\utils\misc/lite-list.h **** {
  68:..\..\..\..\cloud\alicloud\src\infra\utils\misc/lite-list.h ****     dlist_t *prev = node->prev;
  69:..\..\..\..\cloud\alicloud\src\infra\utils\misc/lite-list.h ****     dlist_t *next = node->next;
  70:..\..\..\..\cloud\alicloud\src\infra\utils\misc/lite-list.h **** 
  71:..\..\..\..\cloud\alicloud\src\infra\utils\misc/lite-list.h ****     prev->next = next;
  72:..\..\..\..\cloud\alicloud\src\infra\utils\misc/lite-list.h ****     next->prev = prev;
  73:..\..\..\..\cloud\alicloud\src\infra\utils\misc/lite-list.h **** }
  74:..\..\..\..\cloud\alicloud\src\infra\utils\misc/lite-list.h **** 
  75:..\..\..\..\cloud\alicloud\src\infra\utils\misc/lite-list.h **** static inline void dlist_init(dlist_t *node)
  76:..\..\..\..\cloud\alicloud\src\infra\utils\misc/lite-list.h **** {
  77:..\..\..\..\cloud\alicloud\src\infra\utils\misc/lite-list.h ****     node->next = node->prev = node;
  78:..\..\..\..\cloud\alicloud\src\infra\utils\misc/lite-list.h **** }
  79:..\..\..\..\cloud\alicloud\src\infra\utils\misc/lite-list.h **** 
  80:..\..\..\..\cloud\alicloud\src\infra\utils\misc/lite-list.h **** static inline void INIT_AOS_DLIST_HEAD(dlist_t *list)
  81:..\..\..\..\cloud\alicloud\src\infra\utils\misc/lite-list.h **** {
  82:..\..\..\..\cloud\alicloud\src\infra\utils\misc/lite-list.h ****     list->next = list;
  83:..\..\..\..\cloud\alicloud\src\infra\utils\misc/lite-list.h ****     list->prev = list;
  84:..\..\..\..\cloud\alicloud\src\infra\utils\misc/lite-list.h **** }
  85:..\..\..\..\cloud\alicloud\src\infra\utils\misc/lite-list.h **** 
  86:..\..\..\..\cloud\alicloud\src\infra\utils\misc/lite-list.h **** static inline int dlist_empty(const dlist_t *head)
  87:..\..\..\..\cloud\alicloud\src\infra\utils\misc/lite-list.h **** {
  88:..\..\..\..\cloud\alicloud\src\infra\utils\misc/lite-list.h ****     return head->next == head;
 280              		.loc 2 88 5
 281              		.loc 2 88 16 is_stmt 0
 282 00a0 9C48     		lw	a5,16(s1)
 283              	.LVL26:
 284              	.LBE43:
 285              	.LBE42:
  46:C:/Users/stapi/OneDrive/Desktop/GD32VW553/V1_MQTT_OK/GD32VW55X_Wifi_BLE_SDK/GD32VW55x_RELEASE_V1.0.2/MSDK/cloud/alicloud/src/protocol/alcs\alcs_server.c ****             COAP_INFO("ALCS_AUTH_AUTHLISTEMPTY:%d\r\n", ALCS_AUTH_AUTHLISTEMPTY);
 286              		.loc 1 46 12
 287 00a2 B70B0000 		lui	s7,%hi(_device+12)
 288              	.LVL27:
 289 00a6 938BCB00 		addi	s7,s7,%lo(_device+12)
 290 00aa 639E7709 		bne	a5,s7,.L24
  47:C:/Users/stapi/OneDrive/Desktop/GD32VW553/V1_MQTT_OK/GD32VW55X_Wifi_BLE_SDK/GD32VW55x_RELEASE_V1.0.2/MSDK/cloud/alicloud/src/protocol/alcs\alcs_server.c ****             *res_code = ALCS_AUTH_AUTHLISTEMPTY;
 291              		.loc 1 47 13 is_stmt 1
  47:C:/Users/stapi/OneDrive/Desktop/GD32VW553/V1_MQTT_OK/GD32VW55X_Wifi_BLE_SDK/GD32VW55x_RELEASE_V1.0.2/MSDK/cloud/alicloud/src/protocol/alcs\alcs_server.c ****             *res_code = ALCS_AUTH_AUTHLISTEMPTY;
 292              		.loc 1 47 13
 293 00ae 13050A00 		addi	a0,s4,%lo(.LC3)
 294 00b2 97000000 		call	HAL_Printf
 294      E7800000 
 295              	.LVL28:
  47:C:/Users/stapi/OneDrive/Desktop/GD32VW553/V1_MQTT_OK/GD32VW55X_Wifi_BLE_SDK/GD32VW55x_RELEASE_V1.0.2/MSDK/cloud/alicloud/src/protocol/alcs\alcs_server.c ****             *res_code = ALCS_AUTH_AUTHLISTEMPTY;
 296              		.loc 1 47 13
 297 00ba 37050000 		lui	a0,%hi(.LC8)
 298 00be 9305801F 		li	a1,504
 299 00c2 13050500 		addi	a0,a0,%lo(.LC8)
 300 00c6 97000000 		call	HAL_Printf
 300      E7800000 
 301              	.LVL29:
  47:C:/Users/stapi/OneDrive/Desktop/GD32VW553/V1_MQTT_OK/GD32VW55X_Wifi_BLE_SDK/GD32VW55x_RELEASE_V1.0.2/MSDK/cloud/alicloud/src/protocol/alcs\alcs_server.c ****             *res_code = ALCS_AUTH_AUTHLISTEMPTY;
 302              		.loc 1 47 13
 303 00ce 13850900 		addi	a0,s3,%lo(.LC2)
 304 00d2 97000000 		call	HAL_Printf
 304      E7800000 
 305              	.LVL30:
  47:C:/Users/stapi/OneDrive/Desktop/GD32VW553/V1_MQTT_OK/GD32VW55X_Wifi_BLE_SDK/GD32VW55x_RELEASE_V1.0.2/MSDK/cloud/alicloud/src/protocol/alcs\alcs_server.c ****             *res_code = ALCS_AUTH_AUTHLISTEMPTY;
 306              		.loc 1 47 13
  48:C:/Users/stapi/OneDrive/Desktop/GD32VW553/V1_MQTT_OK/GD32VW55X_Wifi_BLE_SDK/GD32VW55x_RELEASE_V1.0.2/MSDK/cloud/alicloud/src/protocol/alcs\alcs_server.c ****         } else {
 307              		.loc 1 48 13
  48:C:/Users/stapi/OneDrive/Desktop/GD32VW553/V1_MQTT_OK/GD32VW55X_Wifi_BLE_SDK/GD32VW55x_RELEASE_V1.0.2/MSDK/cloud/alicloud/src/protocol/alcs\alcs_server.c ****         } else {
 308              		.loc 1 48 23 is_stmt 0
 309 00da 9307801F 		li	a5,504
 310              	.LVL31:
 311              	.L33:
  64:C:/Users/stapi/OneDrive/Desktop/GD32VW553/V1_MQTT_OK/GD32VW55X_Wifi_BLE_SDK/GD32VW55x_RELEASE_V1.0.2/MSDK/cloud/alicloud/src/protocol/alcs\alcs_server.c ****     }
 312              		.loc 1 64 9
 313 00de 8844     		lw	a0,8(s1)
 314              	.LBB44:
  61:C:/Users/stapi/OneDrive/Desktop/GD32VW553/V1_MQTT_OK/GD32VW55X_Wifi_BLE_SDK/GD32VW55x_RELEASE_V1.0.2/MSDK/cloud/alicloud/src/protocol/alcs\alcs_server.c ****         }
 315              		.loc 1 61 23
 316 00e0 2320F900 		sw	a5,0(s2)
 317              	.LBE44:
  64:C:/Users/stapi/OneDrive/Desktop/GD32VW553/V1_MQTT_OK/GD32VW55X_Wifi_BLE_SDK/GD32VW55x_RELEASE_V1.0.2/MSDK/cloud/alicloud/src/protocol/alcs\alcs_server.c ****     }
 318              		.loc 1 64 9 is_stmt 1
 319 00e4 97000000 		call	HAL_MutexUnlock
 319      E7800000 
 320              	.LVL32:
 321 00ec 89A8     		j	.L34
 322              	.LVL33:
 323              	.L23:
 324              	.LBB45:
  37:C:/Users/stapi/OneDrive/Desktop/GD32VW553/V1_MQTT_OK/GD32VW55X_Wifi_BLE_SDK/GD32VW55x_RELEASE_V1.0.2/MSDK/cloud/alicloud/src/protocol/alcs\alcs_server.c ****                     HAL_MutexUnlock(lst->list_mutex);
 325              		.loc 1 37 21 is_stmt 0
 326 00ee 5E86     		mv	a2,s7
 327 00f0 B3858D00 		add	a1,s11,s0
 328 00f4 5685     		mv	a0,s5
 329 00f6 3EC6     		sw	a5,12(sp)
  37:C:/Users/stapi/OneDrive/Desktop/GD32VW553/V1_MQTT_OK/GD32VW55X_Wifi_BLE_SDK/GD32VW55x_RELEASE_V1.0.2/MSDK/cloud/alicloud/src/protocol/alcs\alcs_server.c ****                     HAL_MutexUnlock(lst->list_mutex);
 330              		.loc 1 37 17 is_stmt 1
  37:C:/Users/stapi/OneDrive/Desktop/GD32VW553/V1_MQTT_OK/GD32VW55X_Wifi_BLE_SDK/GD32VW55x_RELEASE_V1.0.2/MSDK/cloud/alicloud/src/protocol/alcs\alcs_server.c ****                     HAL_MutexUnlock(lst->list_mutex);
 331              		.loc 1 37 21 is_stmt 0
 332 00f8 97000000 		call	strncmp
 332      E7800000 
 333              	.LVL34:
  37:C:/Users/stapi/OneDrive/Desktop/GD32VW553/V1_MQTT_OK/GD32VW55X_Wifi_BLE_SDK/GD32VW55x_RELEASE_V1.0.2/MSDK/cloud/alicloud/src/protocol/alcs\alcs_server.c ****                     HAL_MutexUnlock(lst->list_mutex);
 334              		.loc 1 37 20
 335 0100 B247     		lw	a5,12(sp)
 336 0102 21E1     		bne	a0,zero,.L21
 337              	.LVL35:
  38:C:/Users/stapi/OneDrive/Desktop/GD32VW553/V1_MQTT_OK/GD32VW55X_Wifi_BLE_SDK/GD32VW55x_RELEASE_V1.0.2/MSDK/cloud/alicloud/src/protocol/alcs\alcs_server.c ****                     *res_code = ALCS_AUTH_REVOCATE;
 338              		.loc 1 38 21 is_stmt 1
 339 0104 8844     		lw	a0,8(s1)
 340 0106 97000000 		call	HAL_MutexUnlock
 340      E7800000 
 341              	.LVL36:
  39:C:/Users/stapi/OneDrive/Desktop/GD32VW553/V1_MQTT_OK/GD32VW55X_Wifi_BLE_SDK/GD32VW55x_RELEASE_V1.0.2/MSDK/cloud/alicloud/src/protocol/alcs\alcs_server.c ****                     COAP_INFO("accesskey is revocated");
 342              		.loc 1 39 21
  39:C:/Users/stapi/OneDrive/Desktop/GD32VW553/V1_MQTT_OK/GD32VW55X_Wifi_BLE_SDK/GD32VW55x_RELEASE_V1.0.2/MSDK/cloud/alicloud/src/protocol/alcs\alcs_server.c ****                     COAP_INFO("accesskey is revocated");
 343              		.loc 1 39 31 is_stmt 0
 344 010e 9307501F 		li	a5,501
 345 0112 2320F900 		sw	a5,0(s2)
  40:C:/Users/stapi/OneDrive/Desktop/GD32VW553/V1_MQTT_OK/GD32VW55X_Wifi_BLE_SDK/GD32VW55x_RELEASE_V1.0.2/MSDK/cloud/alicloud/src/protocol/alcs\alcs_server.c ****                     return NULL;
 346              		.loc 1 40 21 is_stmt 1
  40:C:/Users/stapi/OneDrive/Desktop/GD32VW553/V1_MQTT_OK/GD32VW55X_Wifi_BLE_SDK/GD32VW55x_RELEASE_V1.0.2/MSDK/cloud/alicloud/src/protocol/alcs\alcs_server.c ****                     return NULL;
 347              		.loc 1 40 21
 348 0116 13050A00 		addi	a0,s4,%lo(.LC3)
 349 011a 97000000 		call	HAL_Printf
 349      E7800000 
 350              	.LVL37:
  40:C:/Users/stapi/OneDrive/Desktop/GD32VW553/V1_MQTT_OK/GD32VW55X_Wifi_BLE_SDK/GD32VW55x_RELEASE_V1.0.2/MSDK/cloud/alicloud/src/protocol/alcs\alcs_server.c ****                     return NULL;
 351              		.loc 1 40 21
 352 0122 37050000 		lui	a0,%hi(.LC7)
 353 0126 13050500 		addi	a0,a0,%lo(.LC7)
 354 012a 97000000 		call	HAL_Printf
 354      E7800000 
 355              	.LVL38:
  40:C:/Users/stapi/OneDrive/Desktop/GD32VW553/V1_MQTT_OK/GD32VW55X_Wifi_BLE_SDK/GD32VW55x_RELEASE_V1.0.2/MSDK/cloud/alicloud/src/protocol/alcs\alcs_server.c ****                     return NULL;
 356              		.loc 1 40 21
 357 0132 13850900 		addi	a0,s3,%lo(.LC2)
 358 0136 97000000 		call	HAL_Printf
 358      E7800000 
 359              	.LVL39:
  40:C:/Users/stapi/OneDrive/Desktop/GD32VW553/V1_MQTT_OK/GD32VW55X_Wifi_BLE_SDK/GD32VW55x_RELEASE_V1.0.2/MSDK/cloud/alicloud/src/protocol/alcs\alcs_server.c ****                     return NULL;
 360              		.loc 1 40 21
  41:C:/Users/stapi/OneDrive/Desktop/GD32VW553/V1_MQTT_OK/GD32VW55X_Wifi_BLE_SDK/GD32VW55x_RELEASE_V1.0.2/MSDK/cloud/alicloud/src/protocol/alcs\alcs_server.c ****                 }
 361              		.loc 1 41 21
 362              	.L34:
 363              	.LBE45:
  67:C:/Users/stapi/OneDrive/Desktop/GD32VW553/V1_MQTT_OK/GD32VW55X_Wifi_BLE_SDK/GD32VW55x_RELEASE_V1.0.2/MSDK/cloud/alicloud/src/protocol/alcs\alcs_server.c **** }
 364              		.loc 1 67 5
  67:C:/Users/stapi/OneDrive/Desktop/GD32VW553/V1_MQTT_OK/GD32VW55X_Wifi_BLE_SDK/GD32VW55x_RELEASE_V1.0.2/MSDK/cloud/alicloud/src/protocol/alcs\alcs_server.c **** }
 365              		.loc 1 67 12 is_stmt 0
 366 013e 0144     		li	s0,0
 367 0140 69A8     		j	.L18
 368              	.LVL40:
 369              	.L21:
 370              	.LBB46:
  36:C:/Users/stapi/OneDrive/Desktop/GD32VW553/V1_MQTT_OK/GD32VW55X_Wifi_BLE_SDK/GD32VW55x_RELEASE_V1.0.2/MSDK/cloud/alicloud/src/protocol/alcs\alcs_server.c ****                 if (strncmp(keyseq, lst->revocation + i, seqlen) == 0) {
 371              		.loc 1 36 34 is_stmt 1 discriminator 2
  36:C:/Users/stapi/OneDrive/Desktop/GD32VW553/V1_MQTT_OK/GD32VW55X_Wifi_BLE_SDK/GD32VW55x_RELEASE_V1.0.2/MSDK/cloud/alicloud/src/protocol/alcs\alcs_server.c ****                 if (strncmp(keyseq, lst->revocation + i, seqlen) == 0) {
 372              		.loc 1 36 36 is_stmt 0 discriminator 2
 373 0142 0D04     		addi	s0,s0,3
 374              	.LVL41:
 375 0144 A1BF     		j	.L20
 376              	.LVL42:
 377              	.L24:
 378              	.LBE46:
 379              	.LBB47:
  50:C:/Users/stapi/OneDrive/Desktop/GD32VW553/V1_MQTT_OK/GD32VW55X_Wifi_BLE_SDK/GD32VW55x_RELEASE_V1.0.2/MSDK/cloud/alicloud/src/protocol/alcs\alcs_server.c ****             list_for_each_entry_safe(node, next, &lst->lst_svr, lst, svr_key_item) {
 380              		.loc 1 50 13 is_stmt 1
  51:C:/Users/stapi/OneDrive/Desktop/GD32VW553/V1_MQTT_OK/GD32VW55X_Wifi_BLE_SDK/GD32VW55x_RELEASE_V1.0.2/MSDK/cloud/alicloud/src/protocol/alcs\alcs_server.c ****                 COAP_DEBUG("node prefix:%s", node->keyInfo.keyprefix);
 381              		.loc 1 51 13
 382 0146 83AA4700 		lw	s5,4(a5)
 383              	.LVL43:
 384 014a 1384C7FE 		addi	s0,a5,-20
 385              	.LVL44:
  52:C:/Users/stapi/OneDrive/Desktop/GD32VW553/V1_MQTT_OK/GD32VW55X_Wifi_BLE_SDK/GD32VW55x_RELEASE_V1.0.2/MSDK/cloud/alicloud/src/protocol/alcs\alcs_server.c ****                 if (strlen(node->keyInfo.keyprefix) == prefixlen && strncmp(keyprefix, node->keyInf
 386              		.loc 1 52 17 is_stmt 0
 387 014e B70D0000 		lui	s11,%hi(.LC9)
  51:C:/Users/stapi/OneDrive/Desktop/GD32VW553/V1_MQTT_OK/GD32VW55X_Wifi_BLE_SDK/GD32VW55x_RELEASE_V1.0.2/MSDK/cloud/alicloud/src/protocol/alcs\alcs_server.c ****                 COAP_DEBUG("node prefix:%s", node->keyInfo.keyprefix);
 388              		.loc 1 51 13
 389 0152 B11A     		addi	s5,s5,-20
 390              	.LVL45:
 391              	.L26:
  51:C:/Users/stapi/OneDrive/Desktop/GD32VW553/V1_MQTT_OK/GD32VW55X_Wifi_BLE_SDK/GD32VW55x_RELEASE_V1.0.2/MSDK/cloud/alicloud/src/protocol/alcs\alcs_server.c ****                 COAP_DEBUG("node prefix:%s", node->keyInfo.keyprefix);
 392              		.loc 1 51 13 is_stmt 1 discriminator 1
 393 0154 93074401 		addi	a5,s0,20
 394 0158 639B7703 		bne	a5,s7,.L28
  60:C:/Users/stapi/OneDrive/Desktop/GD32VW553/V1_MQTT_OK/GD32VW55X_Wifi_BLE_SDK/GD32VW55x_RELEASE_V1.0.2/MSDK/cloud/alicloud/src/protocol/alcs\alcs_server.c ****             *res_code = ALCS_AUTH_UNMATCHPREFIX;
 395              		.loc 1 60 13
  60:C:/Users/stapi/OneDrive/Desktop/GD32VW553/V1_MQTT_OK/GD32VW55X_Wifi_BLE_SDK/GD32VW55x_RELEASE_V1.0.2/MSDK/cloud/alicloud/src/protocol/alcs\alcs_server.c ****             *res_code = ALCS_AUTH_UNMATCHPREFIX;
 396              		.loc 1 60 13
 397 015c 13050A00 		addi	a0,s4,%lo(.LC3)
 398 0160 97000000 		call	HAL_Printf
 398      E7800000 
 399              	.LVL46:
  60:C:/Users/stapi/OneDrive/Desktop/GD32VW553/V1_MQTT_OK/GD32VW55X_Wifi_BLE_SDK/GD32VW55x_RELEASE_V1.0.2/MSDK/cloud/alicloud/src/protocol/alcs\alcs_server.c ****             *res_code = ALCS_AUTH_UNMATCHPREFIX;
 400              		.loc 1 60 13
 401 0168 37050000 		lui	a0,%hi(.LC10)
 402 016c 9305601F 		li	a1,502
 403 0170 13050500 		addi	a0,a0,%lo(.LC10)
 404 0174 97000000 		call	HAL_Printf
 404      E7800000 
 405              	.LVL47:
  60:C:/Users/stapi/OneDrive/Desktop/GD32VW553/V1_MQTT_OK/GD32VW55X_Wifi_BLE_SDK/GD32VW55x_RELEASE_V1.0.2/MSDK/cloud/alicloud/src/protocol/alcs\alcs_server.c ****             *res_code = ALCS_AUTH_UNMATCHPREFIX;
 406              		.loc 1 60 13
 407 017c 13850900 		addi	a0,s3,%lo(.LC2)
 408 0180 97000000 		call	HAL_Printf
 408      E7800000 
 409              	.LVL48:
  60:C:/Users/stapi/OneDrive/Desktop/GD32VW553/V1_MQTT_OK/GD32VW55X_Wifi_BLE_SDK/GD32VW55x_RELEASE_V1.0.2/MSDK/cloud/alicloud/src/protocol/alcs\alcs_server.c ****             *res_code = ALCS_AUTH_UNMATCHPREFIX;
 410              		.loc 1 60 13
  61:C:/Users/stapi/OneDrive/Desktop/GD32VW553/V1_MQTT_OK/GD32VW55X_Wifi_BLE_SDK/GD32VW55x_RELEASE_V1.0.2/MSDK/cloud/alicloud/src/protocol/alcs\alcs_server.c ****         }
 411              		.loc 1 61 13
  61:C:/Users/stapi/OneDrive/Desktop/GD32VW553/V1_MQTT_OK/GD32VW55X_Wifi_BLE_SDK/GD32VW55x_RELEASE_V1.0.2/MSDK/cloud/alicloud/src/protocol/alcs\alcs_server.c ****         }
 412              		.loc 1 61 23 is_stmt 0
 413 0188 9307601F 		li	a5,502
 414 018c 89BF     		j	.L33
 415              	.L28:
  52:C:/Users/stapi/OneDrive/Desktop/GD32VW553/V1_MQTT_OK/GD32VW55X_Wifi_BLE_SDK/GD32VW55x_RELEASE_V1.0.2/MSDK/cloud/alicloud/src/protocol/alcs\alcs_server.c ****                 if (strlen(node->keyInfo.keyprefix) == prefixlen && strncmp(keyprefix, node->keyInf
 416              		.loc 1 52 17 is_stmt 1
 417 018e 13050D00 		addi	a0,s10,%lo(.LC6)
 418 0192 A287     		mv	a5,s0
 419 0194 13870D00 		addi	a4,s11,%lo(.LC9)
 420 0198 9546     		li	a3,5
 421 019a 13064003 		li	a2,52
 422 019e 93850C00 		addi	a1,s9,%lo(.LANCHOR0)
 423 01a2 97000000 		call	LITE_syslog
 423      E7800000 
 424              	.LVL49:
  53:C:/Users/stapi/OneDrive/Desktop/GD32VW553/V1_MQTT_OK/GD32VW55X_Wifi_BLE_SDK/GD32VW55x_RELEASE_V1.0.2/MSDK/cloud/alicloud/src/protocol/alcs\alcs_server.c ****                     *res_code = ALCS_AUTH_OK;
 425              		.loc 1 53 17
  53:C:/Users/stapi/OneDrive/Desktop/GD32VW553/V1_MQTT_OK/GD32VW55X_Wifi_BLE_SDK/GD32VW55x_RELEASE_V1.0.2/MSDK/cloud/alicloud/src/protocol/alcs\alcs_server.c ****                     *res_code = ALCS_AUTH_OK;
 426              		.loc 1 53 21 is_stmt 0
 427 01aa 2285     		mv	a0,s0
 428 01ac 97000000 		call	strlen
 428      E7800000 
 429              	.LVL50:
  53:C:/Users/stapi/OneDrive/Desktop/GD32VW553/V1_MQTT_OK/GD32VW55X_Wifi_BLE_SDK/GD32VW55x_RELEASE_V1.0.2/MSDK/cloud/alicloud/src/protocol/alcs\alcs_server.c ****                     *res_code = ALCS_AUTH_OK;
 430              		.loc 1 53 20
 431 01b4 63196503 		bne	a0,s6,.L27
  53:C:/Users/stapi/OneDrive/Desktop/GD32VW553/V1_MQTT_OK/GD32VW55X_Wifi_BLE_SDK/GD32VW55x_RELEASE_V1.0.2/MSDK/cloud/alicloud/src/protocol/alcs\alcs_server.c ****                     *res_code = ALCS_AUTH_OK;
 432              		.loc 1 53 69 discriminator 1
 433 01b8 5A86     		mv	a2,s6
 434 01ba A285     		mv	a1,s0
 435 01bc 6285     		mv	a0,s8
 436 01be 97000000 		call	strncmp
 436      E7800000 
 437              	.LVL51:
  53:C:/Users/stapi/OneDrive/Desktop/GD32VW553/V1_MQTT_OK/GD32VW55X_Wifi_BLE_SDK/GD32VW55x_RELEASE_V1.0.2/MSDK/cloud/alicloud/src/protocol/alcs\alcs_server.c ****                     *res_code = ALCS_AUTH_OK;
 438              		.loc 1 53 66 discriminator 1
 439 01c6 05E1     		bne	a0,zero,.L27
  54:C:/Users/stapi/OneDrive/Desktop/GD32VW553/V1_MQTT_OK/GD32VW55X_Wifi_BLE_SDK/GD32VW55x_RELEASE_V1.0.2/MSDK/cloud/alicloud/src/protocol/alcs\alcs_server.c ****                     HAL_MutexUnlock(lst->list_mutex);
 440              		.loc 1 54 21 is_stmt 1
  55:C:/Users/stapi/OneDrive/Desktop/GD32VW553/V1_MQTT_OK/GD32VW55X_Wifi_BLE_SDK/GD32VW55x_RELEASE_V1.0.2/MSDK/cloud/alicloud/src/protocol/alcs\alcs_server.c ****                     return &node->keyInfo;
 441              		.loc 1 55 21 is_stmt 0
 442 01c8 8844     		lw	a0,8(s1)
  54:C:/Users/stapi/OneDrive/Desktop/GD32VW553/V1_MQTT_OK/GD32VW55X_Wifi_BLE_SDK/GD32VW55x_RELEASE_V1.0.2/MSDK/cloud/alicloud/src/protocol/alcs\alcs_server.c ****                     HAL_MutexUnlock(lst->list_mutex);
 443              		.loc 1 54 31
 444 01ca 9307800C 		li	a5,200
 445 01ce 2320F900 		sw	a5,0(s2)
  55:C:/Users/stapi/OneDrive/Desktop/GD32VW553/V1_MQTT_OK/GD32VW55X_Wifi_BLE_SDK/GD32VW55x_RELEASE_V1.0.2/MSDK/cloud/alicloud/src/protocol/alcs\alcs_server.c ****                     return &node->keyInfo;
 446              		.loc 1 55 21 is_stmt 1
 447 01d2 97000000 		call	HAL_MutexUnlock
 447      E7800000 
 448              	.LVL52:
  56:C:/Users/stapi/OneDrive/Desktop/GD32VW553/V1_MQTT_OK/GD32VW55X_Wifi_BLE_SDK/GD32VW55x_RELEASE_V1.0.2/MSDK/cloud/alicloud/src/protocol/alcs\alcs_server.c ****                 }
 449              		.loc 1 56 21
 450              	.L18:
 451              	.LBE47:
  68:C:/Users/stapi/OneDrive/Desktop/GD32VW553/V1_MQTT_OK/GD32VW55X_Wifi_BLE_SDK/GD32VW55x_RELEASE_V1.0.2/MSDK/cloud/alicloud/src/protocol/alcs\alcs_server.c **** 
 452              		.loc 1 68 1 is_stmt 0
 453 01da 2285     		mv	a0,s0
 454 01dc 4101     		addi	sp,sp,16
 455              		.cfi_remember_state
 456              		.cfi_def_cfa_offset 0
 457 01de 17030000 		tail	__riscv_restore_12
 457      67000300 
 458              		.cfi_restore 27
 459              		.cfi_restore 26
 460              		.cfi_restore 25
 461              		.cfi_restore 24
 462              		.cfi_restore 23
 463              		.cfi_restore 22
 464              		.cfi_restore 21
 465              		.cfi_restore 20
 466              		.cfi_restore 19
 467              		.cfi_restore 18
 468              		.cfi_restore 9
 469              		.cfi_restore 8
 470              		.cfi_restore 1
 471              		.cfi_def_cfa_offset -64
 472              	.LVL53:
 473              	.L27:
 474              		.cfi_restore_state
 475              	.LBB48:
  51:C:/Users/stapi/OneDrive/Desktop/GD32VW553/V1_MQTT_OK/GD32VW55X_Wifi_BLE_SDK/GD32VW55x_RELEASE_V1.0.2/MSDK/cloud/alicloud/src/protocol/alcs\alcs_server.c ****                 COAP_DEBUG("node prefix:%s", node->keyInfo.keyprefix);
 476              		.loc 1 51 13 is_stmt 1 discriminator 2
 477 01e6 83A78A01 		lw	a5,24(s5)
 478              	.LVL54:
 479 01ea 5684     		mv	s0,s5
 480 01ec 938AC7FE 		addi	s5,a5,-20
 481              	.LVL55:
 482 01f0 95B7     		j	.L26
 483              	.LBE48:
 484              		.cfi_endproc
 485              	.LFE20:
 487              		.section	.rodata.alcs_rec_auth.str1.4,"aMS",@progbits,1
 488              		.align	2
 489              	.LC11:
 490 0000 72656365 		.string	"receive data:%.*s, from:%s"
 490      69766520 
 490      64617461 
 490      3A252E2A 
 490      732C2066 
 491 001b 00       		.align	2
 492              	.LC12:
 493 001c 61636365 		.string	"accessKey"
 493      73734B65 
 493      7900
 494 0026 0000     		.align	2
 495              	.LC13:
 496 0028 61636365 		.string	"accesskey:%.*s"
 496      73736B65 
 496      793A252E 
 496      2A7300
 497 0037 00       		.align	2
 498              	.LC14:
 499 0038 69736C65 		.string	"islegal return null"
 499      67616C20 
 499      72657475 
 499      726E206E 
 499      756C6C00 
 500              		.align	2
 501              	.LC15:
 502 004c 61636365 		.string	"accessToken:%.*s"
 502      7373546F 
 502      6B656E3A 
 502      252E2A73 
 502      00
 503 005d 000000   		.align	2
 504              	.LC16:
 505 0060 72616E64 		.string	"randomKey"
 505      6F6D4B65 
 505      7900
 506 006a 0000     		.align	2
 507              	.LC17:
 508 006c 6F707400 		.string	"opt"
 509              		.align	2
 510              	.LC18:
 511 0070 6F70743A 		.string	"opt:%d"
 511      256400
 512 0077 00       		.align	2
 513              	.LC19:
 514 0078 63616C63 		.string	"calc randomKey:%.*s,token:%.*s,sign:%.*s"
 514      2072616E 
 514      646F6D4B 
 514      65793A25 
 514      2E2A732C 
 515 00a1 000000   		.align	2
 516              	.LC20:
 517 00a4 7369676E 		.string	"sign"
 517      00
 518 00a9 000000   		.align	2
 519              	.LC21:
 520 00ac 70726F64 		.string	"prodKey"
 520      4B657900 
 521              		.align	2
 522              	.LC22:
 523 00b4 64657669 		.string	"deviceName"
 523      63654E61 
 523      6D6500
 524 00bf 00       		.align	2
 525              	.LC23:
 526 00c0 6E657720 		.string	"new session, id:%d, addr:%s, port:%d"
 526      73657373 
 526      696F6E2C 
 526      2069643A 
 526      25642C20 
 527 00e5 000000   		.align	2
 528              	.LC24:
 529 00e8 252E2A73 		.string	"%.*s%s"
 529      257300
 530 00ef 00       		.align	2
 531              	.LC25:
 532 00f0 22736967 		.string	"\"sign\":\"%.*s\",\"randomKey\":\"%s\",\"sessionId\":%d,\"expire\":86400,\"opt\":%d,\"seq
 532      6E223A22 
 532      252E2A73 
 532      222C2272 
 532      616E646F 
 533              		.align	2
 534              	.LC26:
 535 0144 73656E64 		.string	"send response:%s"
 535      20726573 
 535      706F6E73 
 535      653A2573 
 535      00
 536 0155 000000   		.align	2
 537              	.LC27:
 538 0158 7B226964 		.string	"{\"id\":\"%.*s\",\"code\":%d,\"data\":{%s}}"
 538      223A2225 
 538      2E2A7322 
 538      2C22636F 
 538      6465223A 
 539              		.section	.text.alcs_rec_auth,"ax",@progbits
 540              		.align	1
 541              		.globl	alcs_rec_auth
 543              	alcs_rec_auth:
 544              	.LFB21:
  71:C:/Users/stapi/OneDrive/Desktop/GD32VW553/V1_MQTT_OK/GD32VW55X_Wifi_BLE_SDK/GD32VW55x_RELEASE_V1.0.2/MSDK/cloud/alicloud/src/protocol/alcs\alcs_server.c ****     int seqlen, datalen;
 545              		.loc 1 71 1
 546              		.cfi_startproc
 547              	.LVL56:
 548 0000 17030000 		call	t0,__riscv_save_12
 548      E7020300 
 549              		.cfi_offset 27, -52
 550              		.cfi_offset 26, -48
 551              		.cfi_offset 25, -44
 552              		.cfi_offset 24, -40
 553              		.cfi_offset 23, -36
 554              		.cfi_offset 22, -32
 555              		.cfi_offset 21, -28
 556              		.cfi_offset 20, -24
 557              		.cfi_offset 19, -20
 558              		.cfi_offset 18, -16
 559              		.cfi_offset 9, -12
 560              		.cfi_offset 8, -8
 561              		.cfi_offset 1, -4
 562              		.cfi_def_cfa_offset 64
  72:C:/Users/stapi/OneDrive/Desktop/GD32VW553/V1_MQTT_OK/GD32VW55X_Wifi_BLE_SDK/GD32VW55x_RELEASE_V1.0.2/MSDK/cloud/alicloud/src/protocol/alcs\alcs_server.c ****     char *seq, *data;
 563              		.loc 1 72 5
  73:C:/Users/stapi/OneDrive/Desktop/GD32VW553/V1_MQTT_OK/GD32VW55X_Wifi_BLE_SDK/GD32VW55x_RELEASE_V1.0.2/MSDK/cloud/alicloud/src/protocol/alcs\alcs_server.c ****     int res_code = 200;
 564              		.loc 1 73 5
  74:C:/Users/stapi/OneDrive/Desktop/GD32VW553/V1_MQTT_OK/GD32VW55X_Wifi_BLE_SDK/GD32VW55x_RELEASE_V1.0.2/MSDK/cloud/alicloud/src/protocol/alcs\alcs_server.c ****     char body[200] = {0};
 565              		.loc 1 74 5
  71:C:/Users/stapi/OneDrive/Desktop/GD32VW553/V1_MQTT_OK/GD32VW55X_Wifi_BLE_SDK/GD32VW55x_RELEASE_V1.0.2/MSDK/cloud/alicloud/src/protocol/alcs\alcs_server.c ****     int seqlen, datalen;
 566              		.loc 1 71 1 is_stmt 0
 567 0008 130101C2 		addi	sp,sp,-992
 568              		.cfi_def_cfa_offset 1056
  74:C:/Users/stapi/OneDrive/Desktop/GD32VW553/V1_MQTT_OK/GD32VW55X_Wifi_BLE_SDK/GD32VW55x_RELEASE_V1.0.2/MSDK/cloud/alicloud/src/protocol/alcs\alcs_server.c ****     char body[200] = {0};
 569              		.loc 1 74 9
 570 000c 9307800C 		li	a5,200
  75:C:/Users/stapi/OneDrive/Desktop/GD32VW553/V1_MQTT_OK/GD32VW55X_Wifi_BLE_SDK/GD32VW55x_RELEASE_V1.0.2/MSDK/cloud/alicloud/src/protocol/alcs\alcs_server.c ****     COAP_INFO("receive data:%.*s, from:%s", resMsg->payloadlen, resMsg->payload, from->addr);
 571              		.loc 1 75 10
 572 0010 8145     		li	a1,0
 573              	.LVL57:
  71:C:/Users/stapi/OneDrive/Desktop/GD32VW553/V1_MQTT_OK/GD32VW55X_Wifi_BLE_SDK/GD32VW55x_RELEASE_V1.0.2/MSDK/cloud/alicloud/src/protocol/alcs\alcs_server.c ****     int seqlen, datalen;
 574              		.loc 1 71 1
 575 0012 328B     		mv	s6,a2
 576 0014 AA8B     		mv	s7,a0
  75:C:/Users/stapi/OneDrive/Desktop/GD32VW553/V1_MQTT_OK/GD32VW55X_Wifi_BLE_SDK/GD32VW55x_RELEASE_V1.0.2/MSDK/cloud/alicloud/src/protocol/alcs\alcs_server.c ****     COAP_INFO("receive data:%.*s, from:%s", resMsg->payloadlen, resMsg->payload, from->addr);
 577              		.loc 1 75 10
 578 0016 1306400C 		li	a2,196
 579              	.LVL58:
 580 001a 680A     		addi	a0,sp,284
 581              	.LVL59:
  71:C:/Users/stapi/OneDrive/Desktop/GD32VW553/V1_MQTT_OK/GD32VW55X_Wifi_BLE_SDK/GD32VW55x_RELEASE_V1.0.2/MSDK/cloud/alicloud/src/protocol/alcs\alcs_server.c ****     int seqlen, datalen;
 582              		.loc 1 71 1
 583 001c 368A     		mv	s4,a3
  74:C:/Users/stapi/OneDrive/Desktop/GD32VW553/V1_MQTT_OK/GD32VW55X_Wifi_BLE_SDK/GD32VW55x_RELEASE_V1.0.2/MSDK/cloud/alicloud/src/protocol/alcs\alcs_server.c ****     char body[200] = {0};
 584              		.loc 1 74 9
 585 001e 3ED8     		sw	a5,48(sp)
  75:C:/Users/stapi/OneDrive/Desktop/GD32VW553/V1_MQTT_OK/GD32VW55X_Wifi_BLE_SDK/GD32VW55x_RELEASE_V1.0.2/MSDK/cloud/alicloud/src/protocol/alcs\alcs_server.c ****     COAP_INFO("receive data:%.*s, from:%s", resMsg->payloadlen, resMsg->payload, from->addr);
 586              		.loc 1 75 5 is_stmt 1
  75:C:/Users/stapi/OneDrive/Desktop/GD32VW553/V1_MQTT_OK/GD32VW55X_Wifi_BLE_SDK/GD32VW55x_RELEASE_V1.0.2/MSDK/cloud/alicloud/src/protocol/alcs\alcs_server.c ****     COAP_INFO("receive data:%.*s, from:%s", resMsg->payloadlen, resMsg->payload, from->addr);
 587              		.loc 1 75 10 is_stmt 0
 588 0020 232C0110 		sw	zero,280(sp)
  76:C:/Users/stapi/OneDrive/Desktop/GD32VW553/V1_MQTT_OK/GD32VW55X_Wifi_BLE_SDK/GD32VW55x_RELEASE_V1.0.2/MSDK/cloud/alicloud/src/protocol/alcs\alcs_server.c **** 
 589              		.loc 1 76 5
 590 0024 B7090000 		lui	s3,%hi(.LC3)
  75:C:/Users/stapi/OneDrive/Desktop/GD32VW553/V1_MQTT_OK/GD32VW55X_Wifi_BLE_SDK/GD32VW55x_RELEASE_V1.0.2/MSDK/cloud/alicloud/src/protocol/alcs\alcs_server.c ****     COAP_INFO("receive data:%.*s, from:%s", resMsg->payloadlen, resMsg->payload, from->addr);
 591              		.loc 1 75 10
 592 0028 97000000 		call	memset
 592      E7800000 
 593              	.LVL60:
  76:C:/Users/stapi/OneDrive/Desktop/GD32VW553/V1_MQTT_OK/GD32VW55X_Wifi_BLE_SDK/GD32VW55x_RELEASE_V1.0.2/MSDK/cloud/alicloud/src/protocol/alcs\alcs_server.c **** 
 594              		.loc 1 76 5 is_stmt 1
  76:C:/Users/stapi/OneDrive/Desktop/GD32VW553/V1_MQTT_OK/GD32VW55X_Wifi_BLE_SDK/GD32VW55x_RELEASE_V1.0.2/MSDK/cloud/alicloud/src/protocol/alcs\alcs_server.c **** 
 595              		.loc 1 76 5
 596 0030 13850900 		addi	a0,s3,%lo(.LC3)
 597 0034 97000000 		call	HAL_Printf
 597      E7800000 
 598              	.LVL61:
  76:C:/Users/stapi/OneDrive/Desktop/GD32VW553/V1_MQTT_OK/GD32VW55X_Wifi_BLE_SDK/GD32VW55x_RELEASE_V1.0.2/MSDK/cloud/alicloud/src/protocol/alcs\alcs_server.c **** 
 599              		.loc 1 76 5
 600 003c 03260A07 		lw	a2,112(s4)
 601 0040 8355EA06 		lhu	a1,110(s4)
 602 0044 37050000 		lui	a0,%hi(.LC11)
 603 0048 DA86     		mv	a3,s6
 604 004a 13050500 		addi	a0,a0,%lo(.LC11)
 605 004e 97000000 		call	HAL_Printf
 605      E7800000 
 606              	.LVL62:
  76:C:/Users/stapi/OneDrive/Desktop/GD32VW553/V1_MQTT_OK/GD32VW55X_Wifi_BLE_SDK/GD32VW55x_RELEASE_V1.0.2/MSDK/cloud/alicloud/src/protocol/alcs\alcs_server.c **** 
 607              		.loc 1 76 5
 608 0056 37090000 		lui	s2,%hi(.LC2)
 609 005a 13050900 		addi	a0,s2,%lo(.LC2)
 610 005e 97000000 		call	HAL_Printf
 610      E7800000 
 611              	.LVL63:
  76:C:/Users/stapi/OneDrive/Desktop/GD32VW553/V1_MQTT_OK/GD32VW55X_Wifi_BLE_SDK/GD32VW55x_RELEASE_V1.0.2/MSDK/cloud/alicloud/src/protocol/alcs\alcs_server.c **** 
 612              		.loc 1 76 5
  78:C:/Users/stapi/OneDrive/Desktop/GD32VW553/V1_MQTT_OK/GD32VW55X_Wifi_BLE_SDK/GD32VW55x_RELEASE_V1.0.2/MSDK/cloud/alicloud/src/protocol/alcs\alcs_server.c ****         if (!req_payload_parser((const char *)resMsg->payload, resMsg->payloadlen, &seq, &seqlen, &
 613              		.loc 1 78 5
 614              	.LBB49:
  79:C:/Users/stapi/OneDrive/Desktop/GD32VW553/V1_MQTT_OK/GD32VW55X_Wifi_BLE_SDK/GD32VW55x_RELEASE_V1.0.2/MSDK/cloud/alicloud/src/protocol/alcs\alcs_server.c ****             break;
 615              		.loc 1 79 9
  79:C:/Users/stapi/OneDrive/Desktop/GD32VW553/V1_MQTT_OK/GD32VW55X_Wifi_BLE_SDK/GD32VW55x_RELEASE_V1.0.2/MSDK/cloud/alicloud/src/protocol/alcs\alcs_server.c ****             break;
 616              		.loc 1 79 14 is_stmt 0
 617 0066 8355EA06 		lhu	a1,110(s4)
 618 006a 03250A07 		lw	a0,112(s4)
 619 006e 5C10     		addi	a5,sp,36
 620 0070 7810     		addi	a4,sp,44
 621 0072 1410     		addi	a3,sp,32
 622 0074 3010     		addi	a2,sp,40
 623 0076 97000000 		call	req_payload_parser
 623      E7800000 
 624              	.LVL64:
 625 007e 8413     		addi	s1,sp,480
  79:C:/Users/stapi/OneDrive/Desktop/GD32VW553/V1_MQTT_OK/GD32VW55X_Wifi_BLE_SDK/GD32VW55x_RELEASE_V1.0.2/MSDK/cloud/alicloud/src/protocol/alcs\alcs_server.c ****             break;
 626              		.loc 1 79 12
 627 0080 49C9     		beq	a0,zero,.L45
  82:C:/Users/stapi/OneDrive/Desktop/GD32VW553/V1_MQTT_OK/GD32VW55X_Wifi_BLE_SDK/GD32VW55x_RELEASE_V1.0.2/MSDK/cloud/alicloud/src/protocol/alcs\alcs_server.c ****         int tmplen;
 628              		.loc 1 82 9 is_stmt 1
  83:C:/Users/stapi/OneDrive/Desktop/GD32VW553/V1_MQTT_OK/GD32VW55X_Wifi_BLE_SDK/GD32VW55x_RELEASE_V1.0.2/MSDK/cloud/alicloud/src/protocol/alcs\alcs_server.c ****         accesskey = json_get_value_by_name(data, datalen, "accessKey", &tmplen, NULL);
 629              		.loc 1 83 9
  84:C:/Users/stapi/OneDrive/Desktop/GD32VW553/V1_MQTT_OK/GD32VW55X_Wifi_BLE_SDK/GD32VW55x_RELEASE_V1.0.2/MSDK/cloud/alicloud/src/protocol/alcs\alcs_server.c ****         COAP_INFO("accesskey:%.*s", tmplen, accesskey);
 630              		.loc 1 84 9
  84:C:/Users/stapi/OneDrive/Desktop/GD32VW553/V1_MQTT_OK/GD32VW55X_Wifi_BLE_SDK/GD32VW55x_RELEASE_V1.0.2/MSDK/cloud/alicloud/src/protocol/alcs\alcs_server.c ****         COAP_INFO("accesskey:%.*s", tmplen, accesskey);
 631              		.loc 1 84 21 is_stmt 0
 632 0082 9255     		lw	a1,36(sp)
 633 0084 3255     		lw	a0,44(sp)
 634 0086 37060000 		lui	a2,%hi(.LC12)
 635 008a 0147     		li	a4,0
 636 008c 5418     		addi	a3,sp,52
 637 008e 13060600 		addi	a2,a2,%lo(.LC12)
 638 0092 97000000 		call	json_get_value_by_name
 638      E7800000 
 639              	.LVL65:
 640 009a 2A84     		mv	s0,a0
 641              	.LVL66:
  85:C:/Users/stapi/OneDrive/Desktop/GD32VW553/V1_MQTT_OK/GD32VW55X_Wifi_BLE_SDK/GD32VW55x_RELEASE_V1.0.2/MSDK/cloud/alicloud/src/protocol/alcs\alcs_server.c **** 
 642              		.loc 1 85 9 is_stmt 1
  85:C:/Users/stapi/OneDrive/Desktop/GD32VW553/V1_MQTT_OK/GD32VW55X_Wifi_BLE_SDK/GD32VW55x_RELEASE_V1.0.2/MSDK/cloud/alicloud/src/protocol/alcs\alcs_server.c **** 
 643              		.loc 1 85 9
 644 009c 13850900 		addi	a0,s3,%lo(.LC3)
 645 00a0 97000000 		call	HAL_Printf
 645      E7800000 
 646              	.LVL67:
  85:C:/Users/stapi/OneDrive/Desktop/GD32VW553/V1_MQTT_OK/GD32VW55X_Wifi_BLE_SDK/GD32VW55x_RELEASE_V1.0.2/MSDK/cloud/alicloud/src/protocol/alcs\alcs_server.c **** 
 647              		.loc 1 85 9
 648 00a8 D255     		lw	a1,52(sp)
 649 00aa 37050000 		lui	a0,%hi(.LC13)
 650 00ae 13050500 		addi	a0,a0,%lo(.LC13)
 651 00b2 2286     		mv	a2,s0
 652 00b4 97000000 		call	HAL_Printf
 652      E7800000 
 653              	.LVL68:
  85:C:/Users/stapi/OneDrive/Desktop/GD32VW553/V1_MQTT_OK/GD32VW55X_Wifi_BLE_SDK/GD32VW55x_RELEASE_V1.0.2/MSDK/cloud/alicloud/src/protocol/alcs\alcs_server.c **** 
 654              		.loc 1 85 9
 655 00bc 13050900 		addi	a0,s2,%lo(.LC2)
 656 00c0 97000000 		call	HAL_Printf
 656      E7800000 
 657              	.LVL69:
  85:C:/Users/stapi/OneDrive/Desktop/GD32VW553/V1_MQTT_OK/GD32VW55X_Wifi_BLE_SDK/GD32VW55x_RELEASE_V1.0.2/MSDK/cloud/alicloud/src/protocol/alcs\alcs_server.c **** 
 658              		.loc 1 85 9
  87:C:/Users/stapi/OneDrive/Desktop/GD32VW553/V1_MQTT_OK/GD32VW55X_Wifi_BLE_SDK/GD32VW55x_RELEASE_V1.0.2/MSDK/cloud/alicloud/src/protocol/alcs\alcs_server.c ****             break;
 659              		.loc 1 87 9
  87:C:/Users/stapi/OneDrive/Desktop/GD32VW553/V1_MQTT_OK/GD32VW55X_Wifi_BLE_SDK/GD32VW55x_RELEASE_V1.0.2/MSDK/cloud/alicloud/src/protocol/alcs\alcs_server.c ****             break;
 660              		.loc 1 87 12 is_stmt 0
 661 00c8 29C4     		beq	s0,zero,.L45
  87:C:/Users/stapi/OneDrive/Desktop/GD32VW553/V1_MQTT_OK/GD32VW55X_Wifi_BLE_SDK/GD32VW55x_RELEASE_V1.0.2/MSDK/cloud/alicloud/src/protocol/alcs\alcs_server.c ****             break;
 662              		.loc 1 87 24 discriminator 1
 663 00ca 5257     		lw	a4,52(sp)
 664 00cc B547     		li	a5,13
 665 00ce 6312F704 		bne	a4,a5,.L45
  91:C:/Users/stapi/OneDrive/Desktop/GD32VW553/V1_MQTT_OK/GD32VW55X_Wifi_BLE_SDK/GD32VW55x_RELEASE_V1.0.2/MSDK/cloud/alicloud/src/protocol/alcs\alcs_server.c ****         char *keyseq = accesskey + KEYPREFIX_LEN + 1 + 1;
 666              		.loc 1 91 9 is_stmt 1
 667              	.LVL70:
  92:C:/Users/stapi/OneDrive/Desktop/GD32VW553/V1_MQTT_OK/GD32VW55X_Wifi_BLE_SDK/GD32VW55x_RELEASE_V1.0.2/MSDK/cloud/alicloud/src/protocol/alcs\alcs_server.c **** 
 668              		.loc 1 92 9
  94:C:/Users/stapi/OneDrive/Desktop/GD32VW553/V1_MQTT_OK/GD32VW55X_Wifi_BLE_SDK/GD32VW55x_RELEASE_V1.0.2/MSDK/cloud/alicloud/src/protocol/alcs\alcs_server.c ****         if (!item) {
 669              		.loc 1 94 9
  94:C:/Users/stapi/OneDrive/Desktop/GD32VW553/V1_MQTT_OK/GD32VW55X_Wifi_BLE_SDK/GD32VW55x_RELEASE_V1.0.2/MSDK/cloud/alicloud/src/protocol/alcs\alcs_server.c ****         if (!item) {
 670              		.loc 1 94 30 is_stmt 0
 671 00d2 1C18     		addi	a5,sp,48
 672 00d4 0D47     		li	a4,3
 673 00d6 9306A400 		addi	a3,s0,10
 674              	.LVL71:
 675 00da 2146     		li	a2,8
 676 00dc A285     		mv	a1,s0
 677 00de 5E85     		mv	a0,s7
 678 00e0 97000000 		call	is_legal_key
 678      E7800000 
 679              	.LVL72:
  95:C:/Users/stapi/OneDrive/Desktop/GD32VW553/V1_MQTT_OK/GD32VW55X_Wifi_BLE_SDK/GD32VW55x_RELEASE_V1.0.2/MSDK/cloud/alicloud/src/protocol/alcs\alcs_server.c ****             COAP_INFO("islegal return null");
 680              		.loc 1 95 9 is_stmt 1
  95:C:/Users/stapi/OneDrive/Desktop/GD32VW553/V1_MQTT_OK/GD32VW55X_Wifi_BLE_SDK/GD32VW55x_RELEASE_V1.0.2/MSDK/cloud/alicloud/src/protocol/alcs\alcs_server.c ****             COAP_INFO("islegal return null");
 681              		.loc 1 95 12 is_stmt 0
 682 00e8 4DE1     		bne	a0,zero,.L37
  96:C:/Users/stapi/OneDrive/Desktop/GD32VW553/V1_MQTT_OK/GD32VW55X_Wifi_BLE_SDK/GD32VW55x_RELEASE_V1.0.2/MSDK/cloud/alicloud/src/protocol/alcs\alcs_server.c ****             break;
 683              		.loc 1 96 13 is_stmt 1
  96:C:/Users/stapi/OneDrive/Desktop/GD32VW553/V1_MQTT_OK/GD32VW55X_Wifi_BLE_SDK/GD32VW55x_RELEASE_V1.0.2/MSDK/cloud/alicloud/src/protocol/alcs\alcs_server.c ****             break;
 684              		.loc 1 96 13
 685 00ea 13850900 		addi	a0,s3,%lo(.LC3)
 686              	.LVL73:
 687 00ee 97000000 		call	HAL_Printf
 687      E7800000 
 688              	.LVL74:
  96:C:/Users/stapi/OneDrive/Desktop/GD32VW553/V1_MQTT_OK/GD32VW55X_Wifi_BLE_SDK/GD32VW55x_RELEASE_V1.0.2/MSDK/cloud/alicloud/src/protocol/alcs\alcs_server.c ****             break;
 689              		.loc 1 96 13
 690 00f6 37050000 		lui	a0,%hi(.LC14)
 691 00fa 13050500 		addi	a0,a0,%lo(.LC14)
 692 00fe 97000000 		call	HAL_Printf
 692      E7800000 
 693              	.LVL75:
  96:C:/Users/stapi/OneDrive/Desktop/GD32VW553/V1_MQTT_OK/GD32VW55X_Wifi_BLE_SDK/GD32VW55x_RELEASE_V1.0.2/MSDK/cloud/alicloud/src/protocol/alcs\alcs_server.c ****             break;
 694              		.loc 1 96 13
 695 0106 13050900 		addi	a0,s2,%lo(.LC2)
 696 010a 97000000 		call	HAL_Printf
 696      E7800000 
 697              	.LVL76:
  96:C:/Users/stapi/OneDrive/Desktop/GD32VW553/V1_MQTT_OK/GD32VW55X_Wifi_BLE_SDK/GD32VW55x_RELEASE_V1.0.2/MSDK/cloud/alicloud/src/protocol/alcs\alcs_server.c ****             break;
 698              		.loc 1 96 13
  97:C:/Users/stapi/OneDrive/Desktop/GD32VW553/V1_MQTT_OK/GD32VW55X_Wifi_BLE_SDK/GD32VW55x_RELEASE_V1.0.2/MSDK/cloud/alicloud/src/protocol/alcs\alcs_server.c ****         }
 699              		.loc 1 97 13
 700              	.L45:
 701              	.LBE49:
 205:C:/Users/stapi/OneDrive/Desktop/GD32VW553/V1_MQTT_OK/GD32VW55X_Wifi_BLE_SDK/GD32VW55x_RELEASE_V1.0.2/MSDK/cloud/alicloud/src/protocol/alcs\alcs_server.c **** 
 702              		.loc 1 205 13
 207:C:/Users/stapi/OneDrive/Desktop/GD32VW553/V1_MQTT_OK/GD32VW55X_Wifi_BLE_SDK/GD32VW55x_RELEASE_V1.0.2/MSDK/cloud/alicloud/src/protocol/alcs\alcs_server.c ****     char payloadbuf[512];
 703              		.loc 1 207 5
 208:C:/Users/stapi/OneDrive/Desktop/GD32VW553/V1_MQTT_OK/GD32VW55X_Wifi_BLE_SDK/GD32VW55x_RELEASE_V1.0.2/MSDK/cloud/alicloud/src/protocol/alcs\alcs_server.c ****     snprintf(payloadbuf, sizeof(payloadbuf), RES_FORMAT, seqlen, seq, res_code, body);
 704              		.loc 1 208 5
 209:C:/Users/stapi/OneDrive/Desktop/GD32VW553/V1_MQTT_OK/GD32VW55X_Wifi_BLE_SDK/GD32VW55x_RELEASE_V1.0.2/MSDK/cloud/alicloud/src/protocol/alcs\alcs_server.c ****     CoAPLenString payload = {strlen(payloadbuf), (unsigned char *)payloadbuf};
 705              		.loc 1 209 5
 706 0112 C257     		lw	a5,48(sp)
 707 0114 2257     		lw	a4,40(sp)
 708 0116 8256     		lw	a3,32(sp)
 709 0118 37060000 		lui	a2,%hi(.LC27)
 710 011c 13088111 		addi	a6,sp,280
 711 0120 13060600 		addi	a2,a2,%lo(.LC27)
 712 0124 93050020 		li	a1,512
 713 0128 2685     		mv	a0,s1
 714 012a 97000000 		call	snprintf
 714      E7800000 
 715              	.LVL77:
 210:C:/Users/stapi/OneDrive/Desktop/GD32VW553/V1_MQTT_OK/GD32VW55X_Wifi_BLE_SDK/GD32VW55x_RELEASE_V1.0.2/MSDK/cloud/alicloud/src/protocol/alcs\alcs_server.c **** 
 716              		.loc 1 210 5
 210:C:/Users/stapi/OneDrive/Desktop/GD32VW553/V1_MQTT_OK/GD32VW55X_Wifi_BLE_SDK/GD32VW55x_RELEASE_V1.0.2/MSDK/cloud/alicloud/src/protocol/alcs\alcs_server.c **** 
 717              		.loc 1 210 30 is_stmt 0
 718 0132 2685     		mv	a0,s1
 719 0134 97000000 		call	strlen
 719      E7800000 
 720              	.LVL78:
 210:C:/Users/stapi/OneDrive/Desktop/GD32VW553/V1_MQTT_OK/GD32VW55X_Wifi_BLE_SDK/GD32VW55x_RELEASE_V1.0.2/MSDK/cloud/alicloud/src/protocol/alcs\alcs_server.c **** 
 721              		.loc 1 210 19
 722 013c AAC6     		sw	a0,76(sp)
 212:C:/Users/stapi/OneDrive/Desktop/GD32VW553/V1_MQTT_OK/GD32VW55X_Wifi_BLE_SDK/GD32VW55x_RELEASE_V1.0.2/MSDK/cloud/alicloud/src/protocol/alcs\alcs_server.c ****     CoAPLenString token = {resMsg->header.tokenlen, resMsg->token};
 723              		.loc 1 212 5
 724 013e 0148     		li	a6,0
 725 0140 FC00     		addi	a5,sp,76
 726 0142 0C09     		addi	a1,sp,144
 727 0144 5E85     		mv	a0,s7
 728 0146 0147     		li	a4,0
 729 0148 8946     		li	a3,2
 730 014a 13065004 		li	a2,69
 210:C:/Users/stapi/OneDrive/Desktop/GD32VW553/V1_MQTT_OK/GD32VW55X_Wifi_BLE_SDK/GD32VW55x_RELEASE_V1.0.2/MSDK/cloud/alicloud/src/protocol/alcs\alcs_server.c **** 
 731              		.loc 1 210 19
 732 014e A6C8     		sw	s1,80(sp)
 212:C:/Users/stapi/OneDrive/Desktop/GD32VW553/V1_MQTT_OK/GD32VW55X_Wifi_BLE_SDK/GD32VW55x_RELEASE_V1.0.2/MSDK/cloud/alicloud/src/protocol/alcs\alcs_server.c ****     CoAPLenString token = {resMsg->header.tokenlen, resMsg->token};
 733              		.loc 1 212 5 is_stmt 1
 734 0150 97000000 		call	alcs_msg_init
 734      E7800000 
 735              	.LVL79:
 213:C:/Users/stapi/OneDrive/Desktop/GD32VW553/V1_MQTT_OK/GD32VW55X_Wifi_BLE_SDK/GD32VW55x_RELEASE_V1.0.2/MSDK/cloud/alicloud/src/protocol/alcs\alcs_server.c ****     alcs_sendrsp(ctx, from, &message, 1, resMsg->header.msgid, &token);
 736              		.loc 1 213 5
 213:C:/Users/stapi/OneDrive/Desktop/GD32VW553/V1_MQTT_OK/GD32VW55X_Wifi_BLE_SDK/GD32VW55x_RELEASE_V1.0.2/MSDK/cloud/alicloud/src/protocol/alcs\alcs_server.c ****     alcs_sendrsp(ctx, from, &message, 1, resMsg->header.msgid, &token);
 737              		.loc 1 213 42 is_stmt 0
 738 0158 83270A00 		lw	a5,0(s4)
 214:C:/Users/stapi/OneDrive/Desktop/GD32VW553/V1_MQTT_OK/GD32VW55X_Wifi_BLE_SDK/GD32VW55x_RELEASE_V1.0.2/MSDK/cloud/alicloud/src/protocol/alcs\alcs_server.c **** }
 739              		.loc 1 214 5
 740 015c 03572A00 		lhu	a4,2(s4)
 741 0160 1009     		addi	a2,sp,144
 213:C:/Users/stapi/OneDrive/Desktop/GD32VW553/V1_MQTT_OK/GD32VW55X_Wifi_BLE_SDK/GD32VW55x_RELEASE_V1.0.2/MSDK/cloud/alicloud/src/protocol/alcs\alcs_server.c ****     alcs_sendrsp(ctx, from, &message, 1, resMsg->header.msgid, &token);
 742              		.loc 1 213 42
 743 0162 9183     		srli	a5,a5,4
 744 0164 BD8B     		andi	a5,a5,15
 745 0166 BED4     		sw	a5,104(sp)
 213:C:/Users/stapi/OneDrive/Desktop/GD32VW553/V1_MQTT_OK/GD32VW55X_Wifi_BLE_SDK/GD32VW55x_RELEASE_V1.0.2/MSDK/cloud/alicloud/src/protocol/alcs\alcs_server.c ****     alcs_sendrsp(ctx, from, &message, 1, resMsg->header.msgid, &token);
 746              		.loc 1 213 53
 747 0168 93074A00 		addi	a5,s4,4
 213:C:/Users/stapi/OneDrive/Desktop/GD32VW553/V1_MQTT_OK/GD32VW55X_Wifi_BLE_SDK/GD32VW55x_RELEASE_V1.0.2/MSDK/cloud/alicloud/src/protocol/alcs\alcs_server.c ****     alcs_sendrsp(ctx, from, &message, 1, resMsg->header.msgid, &token);
 748              		.loc 1 213 19
 749 016c BED6     		sw	a5,108(sp)
 214:C:/Users/stapi/OneDrive/Desktop/GD32VW553/V1_MQTT_OK/GD32VW55X_Wifi_BLE_SDK/GD32VW55x_RELEASE_V1.0.2/MSDK/cloud/alicloud/src/protocol/alcs\alcs_server.c **** }
 750              		.loc 1 214 5 is_stmt 1
 751 016e 8546     		li	a3,1
 752 0170 BC10     		addi	a5,sp,104
 753 0172 DA85     		mv	a1,s6
 754 0174 5E85     		mv	a0,s7
 755 0176 97000000 		call	alcs_sendrsp
 755      E7800000 
 756              	.LVL80:
 215:C:/Users/stapi/OneDrive/Desktop/GD32VW553/V1_MQTT_OK/GD32VW55X_Wifi_BLE_SDK/GD32VW55x_RELEASE_V1.0.2/MSDK/cloud/alicloud/src/protocol/alcs\alcs_server.c **** 
 757              		.loc 1 215 1 is_stmt 0
 758 017e 1301013E 		addi	sp,sp,992
 759              		.cfi_remember_state
 760              		.cfi_def_cfa_offset 0
 761 0182 17030000 		tail	__riscv_restore_12
 761      67000300 
 762              		.cfi_restore 27
 763              		.cfi_restore 26
 764              		.cfi_restore 25
 765              		.cfi_restore 24
 766              		.cfi_restore 23
 767              		.cfi_restore 22
 768              		.cfi_restore 21
 769              		.cfi_restore 20
 770              		.cfi_restore 19
 771              		.cfi_restore 18
 772              		.cfi_restore 9
 773              		.cfi_restore 8
 774              		.cfi_restore 1
 775              		.cfi_def_cfa_offset -64
 776              	.LVL81:
 777              	.L37:
 778              		.cfi_restore_state
 779              	.LBB61:
 102:C:/Users/stapi/OneDrive/Desktop/GD32VW553/V1_MQTT_OK/GD32VW55X_Wifi_BLE_SDK/GD32VW55x_RELEASE_V1.0.2/MSDK/cloud/alicloud/src/protocol/alcs\alcs_server.c **** 
 780              		.loc 1 102 55
 781 018a 5045     		lw	a2,12(a0)
 101:C:/Users/stapi/OneDrive/Desktop/GD32VW553/V1_MQTT_OK/GD32VW55X_Wifi_BLE_SDK/GD32VW55x_RELEASE_V1.0.2/MSDK/cloud/alicloud/src/protocol/alcs\alcs_server.c ****         utils_hmac_sha1_base64(accesskey, tmplen, item->secret, strlen(item->secret), accessToken, 
 782              		.loc 1 101 13
 783 018c 93070004 		li	a5,64
 784 0190 3EDC     		sw	a5,56(sp)
 102:C:/Users/stapi/OneDrive/Desktop/GD32VW553/V1_MQTT_OK/GD32VW55X_Wifi_BLE_SDK/GD32VW55x_RELEASE_V1.0.2/MSDK/cloud/alicloud/src/protocol/alcs\alcs_server.c **** 
 785              		.loc 1 102 65
 786 0192 3285     		mv	a0,a2
 787              	.LVL82:
 788 0194 32CA     		sw	a2,20(sp)
 789 0196 97000000 		call	strlen
 789      E7800000 
 790              	.LVL83:
 102:C:/Users/stapi/OneDrive/Desktop/GD32VW553/V1_MQTT_OK/GD32VW55X_Wifi_BLE_SDK/GD32VW55x_RELEASE_V1.0.2/MSDK/cloud/alicloud/src/protocol/alcs\alcs_server.c **** 
 791              		.loc 1 102 9
 792 019e 5246     		lw	a2,20(sp)
 793 01a0 D255     		lw	a1,52(sp)
 102:C:/Users/stapi/OneDrive/Desktop/GD32VW553/V1_MQTT_OK/GD32VW55X_Wifi_BLE_SDK/GD32VW55x_RELEASE_V1.0.2/MSDK/cloud/alicloud/src/protocol/alcs\alcs_server.c **** 
 794              		.loc 1 102 65
 795 01a2 AA86     		mv	a3,a0
 102:C:/Users/stapi/OneDrive/Desktop/GD32VW553/V1_MQTT_OK/GD32VW55X_Wifi_BLE_SDK/GD32VW55x_RELEASE_V1.0.2/MSDK/cloud/alicloud/src/protocol/alcs\alcs_server.c **** 
 796              		.loc 1 102 9
 797 01a4 3C18     		addi	a5,sp,56
 798 01a6 1809     		addi	a4,sp,144
 799 01a8 2285     		mv	a0,s0
 800 01aa 97000000 		call	utils_hmac_sha1_base64
 800      E7800000 
 801              	.LVL84:
 104:C:/Users/stapi/OneDrive/Desktop/GD32VW553/V1_MQTT_OK/GD32VW55X_Wifi_BLE_SDK/GD32VW55x_RELEASE_V1.0.2/MSDK/cloud/alicloud/src/protocol/alcs\alcs_server.c **** 
 802              		.loc 1 104 9
 803 01b2 13850900 		addi	a0,s3,%lo(.LC3)
 804 01b6 97000000 		call	HAL_Printf
 804      E7800000 
 805              	.LVL85:
 806 01be E255     		lw	a1,56(sp)
 807 01c0 37050000 		lui	a0,%hi(.LC15)
 808 01c4 1009     		addi	a2,sp,144
 809 01c6 13050500 		addi	a0,a0,%lo(.LC15)
 810 01ca 97000000 		call	HAL_Printf
 810      E7800000 
 811              	.LVL86:
 812 01d2 13050900 		addi	a0,s2,%lo(.LC2)
 813 01d6 97000000 		call	HAL_Printf
 813      E7800000 
 814              	.LVL87:
 107:C:/Users/stapi/OneDrive/Desktop/GD32VW553/V1_MQTT_OK/GD32VW55X_Wifi_BLE_SDK/GD32VW55x_RELEASE_V1.0.2/MSDK/cloud/alicloud/src/protocol/alcs\alcs_server.c ****         if (!randomkey || !randomkeylen) {
 815              		.loc 1 107 21
 816 01de 9255     		lw	a1,36(sp)
 817 01e0 3255     		lw	a0,44(sp)
 818 01e2 37060000 		lui	a2,%hi(.LC16)
 819 01e6 0147     		li	a4,0
 820 01e8 7418     		addi	a3,sp,60
 821 01ea 13060600 		addi	a2,a2,%lo(.LC16)
 822 01ee 97000000 		call	json_get_value_by_name
 822      E7800000 
 823              	.LVL88:
 824 01f6 CE8C     		mv	s9,s3
 825 01f8 4A8C     		mv	s8,s2
 100:C:/Users/stapi/OneDrive/Desktop/GD32VW553/V1_MQTT_OK/GD32VW55X_Wifi_BLE_SDK/GD32VW55x_RELEASE_V1.0.2/MSDK/cloud/alicloud/src/protocol/alcs\alcs_server.c ****         int tokenlen = sizeof(accessToken);
 826              		.loc 1 100 9 is_stmt 1
 101:C:/Users/stapi/OneDrive/Desktop/GD32VW553/V1_MQTT_OK/GD32VW55X_Wifi_BLE_SDK/GD32VW55x_RELEASE_V1.0.2/MSDK/cloud/alicloud/src/protocol/alcs\alcs_server.c ****         utils_hmac_sha1_base64(accesskey, tmplen, item->secret, strlen(item->secret), accessToken, 
 827              		.loc 1 101 9
 102:C:/Users/stapi/OneDrive/Desktop/GD32VW553/V1_MQTT_OK/GD32VW55X_Wifi_BLE_SDK/GD32VW55x_RELEASE_V1.0.2/MSDK/cloud/alicloud/src/protocol/alcs\alcs_server.c **** 
 828              		.loc 1 102 9
 104:C:/Users/stapi/OneDrive/Desktop/GD32VW553/V1_MQTT_OK/GD32VW55X_Wifi_BLE_SDK/GD32VW55x_RELEASE_V1.0.2/MSDK/cloud/alicloud/src/protocol/alcs\alcs_server.c **** 
 829              		.loc 1 104 9
 104:C:/Users/stapi/OneDrive/Desktop/GD32VW553/V1_MQTT_OK/GD32VW55X_Wifi_BLE_SDK/GD32VW55x_RELEASE_V1.0.2/MSDK/cloud/alicloud/src/protocol/alcs\alcs_server.c **** 
 830              		.loc 1 104 9
 104:C:/Users/stapi/OneDrive/Desktop/GD32VW553/V1_MQTT_OK/GD32VW55X_Wifi_BLE_SDK/GD32VW55x_RELEASE_V1.0.2/MSDK/cloud/alicloud/src/protocol/alcs\alcs_server.c **** 
 831              		.loc 1 104 9
 104:C:/Users/stapi/OneDrive/Desktop/GD32VW553/V1_MQTT_OK/GD32VW55X_Wifi_BLE_SDK/GD32VW55x_RELEASE_V1.0.2/MSDK/cloud/alicloud/src/protocol/alcs\alcs_server.c **** 
 832              		.loc 1 104 9
 104:C:/Users/stapi/OneDrive/Desktop/GD32VW553/V1_MQTT_OK/GD32VW55X_Wifi_BLE_SDK/GD32VW55x_RELEASE_V1.0.2/MSDK/cloud/alicloud/src/protocol/alcs\alcs_server.c **** 
 833              		.loc 1 104 9
 106:C:/Users/stapi/OneDrive/Desktop/GD32VW553/V1_MQTT_OK/GD32VW55X_Wifi_BLE_SDK/GD32VW55x_RELEASE_V1.0.2/MSDK/cloud/alicloud/src/protocol/alcs\alcs_server.c ****         randomkey = json_get_value_by_name(data, datalen, "randomKey", &randomkeylen, NULL);
 834              		.loc 1 106 9
 107:C:/Users/stapi/OneDrive/Desktop/GD32VW553/V1_MQTT_OK/GD32VW55X_Wifi_BLE_SDK/GD32VW55x_RELEASE_V1.0.2/MSDK/cloud/alicloud/src/protocol/alcs\alcs_server.c ****         if (!randomkey || !randomkeylen) {
 835              		.loc 1 107 9
 107:C:/Users/stapi/OneDrive/Desktop/GD32VW553/V1_MQTT_OK/GD32VW55X_Wifi_BLE_SDK/GD32VW55x_RELEASE_V1.0.2/MSDK/cloud/alicloud/src/protocol/alcs\alcs_server.c ****         if (!randomkey || !randomkeylen) {
 836              		.loc 1 107 21 is_stmt 0
 837 01fa AA8A     		mv	s5,a0
 838              	.LVL89:
 108:C:/Users/stapi/OneDrive/Desktop/GD32VW553/V1_MQTT_OK/GD32VW55X_Wifi_BLE_SDK/GD32VW55x_RELEASE_V1.0.2/MSDK/cloud/alicloud/src/protocol/alcs\alcs_server.c ****             res_code = ALCS_AUTH_INVALIDPARAM;
 839              		.loc 1 108 9 is_stmt 1
 108:C:/Users/stapi/OneDrive/Desktop/GD32VW553/V1_MQTT_OK/GD32VW55X_Wifi_BLE_SDK/GD32VW55x_RELEASE_V1.0.2/MSDK/cloud/alicloud/src/protocol/alcs\alcs_server.c ****             res_code = ALCS_AUTH_INVALIDPARAM;
 840              		.loc 1 108 12 is_stmt 0
 841 01fc 09E5     		bne	a0,zero,.L39
 842              	.LVL90:
 843              	.L40:
 109:C:/Users/stapi/OneDrive/Desktop/GD32VW553/V1_MQTT_OK/GD32VW55X_Wifi_BLE_SDK/GD32VW55x_RELEASE_V1.0.2/MSDK/cloud/alicloud/src/protocol/alcs\alcs_server.c ****             break;
 844              		.loc 1 109 13 is_stmt 1
 109:C:/Users/stapi/OneDrive/Desktop/GD32VW553/V1_MQTT_OK/GD32VW55X_Wifi_BLE_SDK/GD32VW55x_RELEASE_V1.0.2/MSDK/cloud/alicloud/src/protocol/alcs\alcs_server.c ****             break;
 845              		.loc 1 109 22 is_stmt 0
 846 01fe 9307701F 		li	a5,503
 847              	.L75:
 133:C:/Users/stapi/OneDrive/Desktop/GD32VW553/V1_MQTT_OK/GD32VW55X_Wifi_BLE_SDK/GD32VW55x_RELEASE_V1.0.2/MSDK/cloud/alicloud/src/protocol/alcs\alcs_server.c ****             break;
 848              		.loc 1 133 22
 849 0202 3ED8     		sw	a5,48(sp)
 134:C:/Users/stapi/OneDrive/Desktop/GD32VW553/V1_MQTT_OK/GD32VW55X_Wifi_BLE_SDK/GD32VW55x_RELEASE_V1.0.2/MSDK/cloud/alicloud/src/protocol/alcs\alcs_server.c ****         }
 850              		.loc 1 134 13 is_stmt 1
 851 0204 39B7     		j	.L45
 852              	.LVL91:
 853              	.L39:
 108:C:/Users/stapi/OneDrive/Desktop/GD32VW553/V1_MQTT_OK/GD32VW55X_Wifi_BLE_SDK/GD32VW55x_RELEASE_V1.0.2/MSDK/cloud/alicloud/src/protocol/alcs\alcs_server.c ****             res_code = ALCS_AUTH_INVALIDPARAM;
 854              		.loc 1 108 24 is_stmt 0 discriminator 1
 855 0206 F257     		lw	a5,60(sp)
 856 0208 FDDB     		beq	a5,zero,.L40
 113:C:/Users/stapi/OneDrive/Desktop/GD32VW553/V1_MQTT_OK/GD32VW55X_Wifi_BLE_SDK/GD32VW55x_RELEASE_V1.0.2/MSDK/cloud/alicloud/src/protocol/alcs\alcs_server.c ****         int support_opt = 0;
 857              		.loc 1 113 9 is_stmt 1
 113:C:/Users/stapi/OneDrive/Desktop/GD32VW553/V1_MQTT_OK/GD32VW55X_Wifi_BLE_SDK/GD32VW55x_RELEASE_V1.0.2/MSDK/cloud/alicloud/src/protocol/alcs\alcs_server.c ****         int support_opt = 0;
 858              		.loc 1 113 15 is_stmt 0
 859 020a 9255     		lw	a1,36(sp)
 860 020c 3255     		lw	a0,44(sp)
 861              	.LVL92:
 862 020e 37060000 		lui	a2,%hi(.LC17)
 863 0212 0147     		li	a4,0
 864 0214 5418     		addi	a3,sp,52
 865 0216 13060600 		addi	a2,a2,%lo(.LC17)
 866 021a 97000000 		call	json_get_value_by_name
 866      E7800000 
 867              	.LVL93:
 868 0222 2A84     		mv	s0,a0
 869              	.LVL94:
 114:C:/Users/stapi/OneDrive/Desktop/GD32VW553/V1_MQTT_OK/GD32VW55X_Wifi_BLE_SDK/GD32VW55x_RELEASE_V1.0.2/MSDK/cloud/alicloud/src/protocol/alcs\alcs_server.c ****         if (tmp) {
 870              		.loc 1 114 9 is_stmt 1
 115:C:/Users/stapi/OneDrive/Desktop/GD32VW553/V1_MQTT_OK/GD32VW55X_Wifi_BLE_SDK/GD32VW55x_RELEASE_V1.0.2/MSDK/cloud/alicloud/src/protocol/alcs\alcs_server.c ****             char back;
 871              		.loc 1 115 9
 115:C:/Users/stapi/OneDrive/Desktop/GD32VW553/V1_MQTT_OK/GD32VW55X_Wifi_BLE_SDK/GD32VW55x_RELEASE_V1.0.2/MSDK/cloud/alicloud/src/protocol/alcs\alcs_server.c ****             char back;
 872              		.loc 1 115 12 is_stmt 0
 873 0224 39C1     		beq	a0,zero,.L41
 874              	.LBB50:
 116:C:/Users/stapi/OneDrive/Desktop/GD32VW553/V1_MQTT_OK/GD32VW55X_Wifi_BLE_SDK/GD32VW55x_RELEASE_V1.0.2/MSDK/cloud/alicloud/src/protocol/alcs\alcs_server.c ****             backup_json_str_last_char (tmp, tmplen, back);
 875              		.loc 1 116 13 is_stmt 1
 117:C:/Users/stapi/OneDrive/Desktop/GD32VW553/V1_MQTT_OK/GD32VW55X_Wifi_BLE_SDK/GD32VW55x_RELEASE_V1.0.2/MSDK/cloud/alicloud/src/protocol/alcs\alcs_server.c ****             support_opt = atoi (tmp);
 876              		.loc 1 117 13
 877 0226 D257     		lw	a5,52(sp)
 878 0228 AA97     		add	a5,a0,a5
 879 022a 03890700 		lb	s2,0(a5)
 880              	.LVL95:
 117:C:/Users/stapi/OneDrive/Desktop/GD32VW553/V1_MQTT_OK/GD32VW55X_Wifi_BLE_SDK/GD32VW55x_RELEASE_V1.0.2/MSDK/cloud/alicloud/src/protocol/alcs\alcs_server.c ****             support_opt = atoi (tmp);
 881              		.loc 1 117 13
 882 022e 23800700 		sb	zero,0(a5)
 117:C:/Users/stapi/OneDrive/Desktop/GD32VW553/V1_MQTT_OK/GD32VW55X_Wifi_BLE_SDK/GD32VW55x_RELEASE_V1.0.2/MSDK/cloud/alicloud/src/protocol/alcs\alcs_server.c ****             support_opt = atoi (tmp);
 883              		.loc 1 117 58
 118:C:/Users/stapi/OneDrive/Desktop/GD32VW553/V1_MQTT_OK/GD32VW55X_Wifi_BLE_SDK/GD32VW55x_RELEASE_V1.0.2/MSDK/cloud/alicloud/src/protocol/alcs\alcs_server.c ****             restore_json_str_last_char (tmp, tmplen, back);
 884              		.loc 1 118 13
 118:C:/Users/stapi/OneDrive/Desktop/GD32VW553/V1_MQTT_OK/GD32VW55X_Wifi_BLE_SDK/GD32VW55x_RELEASE_V1.0.2/MSDK/cloud/alicloud/src/protocol/alcs\alcs_server.c ****             restore_json_str_last_char (tmp, tmplen, back);
 885              		.loc 1 118 27 is_stmt 0
 886 0232 97000000 		call	atoi
 886      E7800000 
 887              	.LVL96:
 888 023a AA87     		mv	a5,a0
 889              	.LVL97:
 119:C:/Users/stapi/OneDrive/Desktop/GD32VW553/V1_MQTT_OK/GD32VW55X_Wifi_BLE_SDK/GD32VW55x_RELEASE_V1.0.2/MSDK/cloud/alicloud/src/protocol/alcs\alcs_server.c ****             COAP_DEBUG ("opt:%d", support_opt);
 890              		.loc 1 119 13 is_stmt 1
 891 023c 5255     		lw	a0,52(sp)
 892              	.LVL98:
 120:C:/Users/stapi/OneDrive/Desktop/GD32VW553/V1_MQTT_OK/GD32VW55X_Wifi_BLE_SDK/GD32VW55x_RELEASE_V1.0.2/MSDK/cloud/alicloud/src/protocol/alcs\alcs_server.c ****         }
 893              		.loc 1 120 13 is_stmt 0
 894 023e 37070000 		lui	a4,%hi(.LC18)
 895 0242 B7050000 		lui	a1,%hi(.LANCHOR1)
 119:C:/Users/stapi/OneDrive/Desktop/GD32VW553/V1_MQTT_OK/GD32VW55X_Wifi_BLE_SDK/GD32VW55x_RELEASE_V1.0.2/MSDK/cloud/alicloud/src/protocol/alcs\alcs_server.c ****             COAP_DEBUG ("opt:%d", support_opt);
 896              		.loc 1 119 13
 897 0246 2A94     		add	s0,s0,a0
 898              	.LVL99:
 120:C:/Users/stapi/OneDrive/Desktop/GD32VW553/V1_MQTT_OK/GD32VW55X_Wifi_BLE_SDK/GD32VW55x_RELEASE_V1.0.2/MSDK/cloud/alicloud/src/protocol/alcs\alcs_server.c ****         }
 899              		.loc 1 120 13
 900 0248 37050000 		lui	a0,%hi(.LC6)
 119:C:/Users/stapi/OneDrive/Desktop/GD32VW553/V1_MQTT_OK/GD32VW55X_Wifi_BLE_SDK/GD32VW55x_RELEASE_V1.0.2/MSDK/cloud/alicloud/src/protocol/alcs\alcs_server.c ****             COAP_DEBUG ("opt:%d", support_opt);
 901              		.loc 1 119 13
 902 024c 23002401 		sb	s2,0(s0)
 119:C:/Users/stapi/OneDrive/Desktop/GD32VW553/V1_MQTT_OK/GD32VW55X_Wifi_BLE_SDK/GD32VW55x_RELEASE_V1.0.2/MSDK/cloud/alicloud/src/protocol/alcs\alcs_server.c ****             COAP_DEBUG ("opt:%d", support_opt);
 903              		.loc 1 119 59 is_stmt 1
 120:C:/Users/stapi/OneDrive/Desktop/GD32VW553/V1_MQTT_OK/GD32VW55X_Wifi_BLE_SDK/GD32VW55x_RELEASE_V1.0.2/MSDK/cloud/alicloud/src/protocol/alcs\alcs_server.c ****         }
 904              		.loc 1 120 13
 905 0250 13070700 		addi	a4,a4,%lo(.LC18)
 906 0254 9546     		li	a3,5
 907 0256 13068007 		li	a2,120
 908 025a 93850500 		addi	a1,a1,%lo(.LANCHOR1)
 909 025e 13050500 		addi	a0,a0,%lo(.LC6)
 910 0262 97000000 		call	LITE_syslog
 910      E7800000 
 911              	.LVL100:
 912              	.L41:
 913              	.LBE50:
 124:C:/Users/stapi/OneDrive/Desktop/GD32VW553/V1_MQTT_OK/GD32VW55X_Wifi_BLE_SDK/GD32VW55x_RELEASE_V1.0.2/MSDK/cloud/alicloud/src/protocol/alcs\alcs_server.c ****         int calc_sign_len = sizeof(buf);
 914              		.loc 1 124 9
 125:C:/Users/stapi/OneDrive/Desktop/GD32VW553/V1_MQTT_OK/GD32VW55X_Wifi_BLE_SDK/GD32VW55x_RELEASE_V1.0.2/MSDK/cloud/alicloud/src/protocol/alcs\alcs_server.c ****         utils_hmac_sha1_base64(randomkey, randomkeylen, accessToken, tokenlen, buf, &calc_sign_len)
 915              		.loc 1 125 9
 126:C:/Users/stapi/OneDrive/Desktop/GD32VW553/V1_MQTT_OK/GD32VW55X_Wifi_BLE_SDK/GD32VW55x_RELEASE_V1.0.2/MSDK/cloud/alicloud/src/protocol/alcs\alcs_server.c **** 
 916              		.loc 1 126 9 is_stmt 0
 917 026a E256     		lw	a3,56(sp)
 918 026c F255     		lw	a1,60(sp)
 125:C:/Users/stapi/OneDrive/Desktop/GD32VW553/V1_MQTT_OK/GD32VW55X_Wifi_BLE_SDK/GD32VW55x_RELEASE_V1.0.2/MSDK/cloud/alicloud/src/protocol/alcs\alcs_server.c ****         utils_hmac_sha1_base64(randomkey, randomkeylen, accessToken, tokenlen, buf, &calc_sign_len)
 919              		.loc 1 125 13
 920 026e 93078002 		li	a5,40
 126:C:/Users/stapi/OneDrive/Desktop/GD32VW553/V1_MQTT_OK/GD32VW55X_Wifi_BLE_SDK/GD32VW55x_RELEASE_V1.0.2/MSDK/cloud/alicloud/src/protocol/alcs\alcs_server.c **** 
 921              		.loc 1 126 9
 922 0272 B810     		addi	a4,sp,104
 923 0274 1009     		addi	a2,sp,144
 125:C:/Users/stapi/OneDrive/Desktop/GD32VW553/V1_MQTT_OK/GD32VW55X_Wifi_BLE_SDK/GD32VW55x_RELEASE_V1.0.2/MSDK/cloud/alicloud/src/protocol/alcs\alcs_server.c ****         utils_hmac_sha1_base64(randomkey, randomkeylen, accessToken, tokenlen, buf, &calc_sign_len)
 924              		.loc 1 125 13
 925 0276 BEC0     		sw	a5,64(sp)
 126:C:/Users/stapi/OneDrive/Desktop/GD32VW553/V1_MQTT_OK/GD32VW55X_Wifi_BLE_SDK/GD32VW55x_RELEASE_V1.0.2/MSDK/cloud/alicloud/src/protocol/alcs\alcs_server.c **** 
 926              		.loc 1 126 9 is_stmt 1
 927 0278 5685     		mv	a0,s5
 928 027a 9C00     		addi	a5,sp,64
 929 027c 97000000 		call	utils_hmac_sha1_base64
 929      E7800000 
 930              	.LVL101:
 128:C:/Users/stapi/OneDrive/Desktop/GD32VW553/V1_MQTT_OK/GD32VW55X_Wifi_BLE_SDK/GD32VW55x_RELEASE_V1.0.2/MSDK/cloud/alicloud/src/protocol/alcs\alcs_server.c ****                   accessToken, calc_sign_len, buf);
 931              		.loc 1 128 9
 128:C:/Users/stapi/OneDrive/Desktop/GD32VW553/V1_MQTT_OK/GD32VW55X_Wifi_BLE_SDK/GD32VW55x_RELEASE_V1.0.2/MSDK/cloud/alicloud/src/protocol/alcs\alcs_server.c ****                   accessToken, calc_sign_len, buf);
 932              		.loc 1 128 9
 933 0284 13850C00 		addi	a0,s9,%lo(.LC3)
 934 0288 97000000 		call	HAL_Printf
 934      E7800000 
 935              	.LVL102:
 128:C:/Users/stapi/OneDrive/Desktop/GD32VW553/V1_MQTT_OK/GD32VW55X_Wifi_BLE_SDK/GD32VW55x_RELEASE_V1.0.2/MSDK/cloud/alicloud/src/protocol/alcs\alcs_server.c ****                   accessToken, calc_sign_len, buf);
 936              		.loc 1 128 9
 937 0290 E256     		lw	a3,56(sp)
 938 0292 F255     		lw	a1,60(sp)
 939 0294 8647     		lw	a5,64(sp)
 940 0296 37050000 		lui	a0,%hi(.LC19)
 941 029a 1809     		addi	a4,sp,144
 942 029c 5686     		mv	a2,s5
 943 029e 13088106 		addi	a6,sp,104
 944 02a2 13050500 		addi	a0,a0,%lo(.LC19)
 945 02a6 97000000 		call	HAL_Printf
 945      E7800000 
 946              	.LVL103:
 128:C:/Users/stapi/OneDrive/Desktop/GD32VW553/V1_MQTT_OK/GD32VW55X_Wifi_BLE_SDK/GD32VW55x_RELEASE_V1.0.2/MSDK/cloud/alicloud/src/protocol/alcs\alcs_server.c ****                   accessToken, calc_sign_len, buf);
 947              		.loc 1 128 9
 948 02ae 13050C00 		addi	a0,s8,%lo(.LC2)
 949 02b2 97000000 		call	HAL_Printf
 949      E7800000 
 950              	.LVL104:
 128:C:/Users/stapi/OneDrive/Desktop/GD32VW553/V1_MQTT_OK/GD32VW55X_Wifi_BLE_SDK/GD32VW55x_RELEASE_V1.0.2/MSDK/cloud/alicloud/src/protocol/alcs\alcs_server.c ****                   accessToken, calc_sign_len, buf);
 951              		.loc 1 128 9
 131:C:/Users/stapi/OneDrive/Desktop/GD32VW553/V1_MQTT_OK/GD32VW55X_Wifi_BLE_SDK/GD32VW55x_RELEASE_V1.0.2/MSDK/cloud/alicloud/src/protocol/alcs\alcs_server.c ****         if (!sign || tmplen != calc_sign_len || strncmp(sign, buf, calc_sign_len)) {
 952              		.loc 1 131 9
 131:C:/Users/stapi/OneDrive/Desktop/GD32VW553/V1_MQTT_OK/GD32VW55X_Wifi_BLE_SDK/GD32VW55x_RELEASE_V1.0.2/MSDK/cloud/alicloud/src/protocol/alcs\alcs_server.c ****         if (!sign || tmplen != calc_sign_len || strncmp(sign, buf, calc_sign_len)) {
 953              		.loc 1 131 16 is_stmt 0
 954 02ba 9255     		lw	a1,36(sp)
 955 02bc 3255     		lw	a0,44(sp)
 956 02be 37060000 		lui	a2,%hi(.LC20)
 957 02c2 0147     		li	a4,0
 958 02c4 5418     		addi	a3,sp,52
 959 02c6 13060600 		addi	a2,a2,%lo(.LC20)
 960 02ca 97000000 		call	json_get_value_by_name
 960      E7800000 
 961              	.LVL105:
 132:C:/Users/stapi/OneDrive/Desktop/GD32VW553/V1_MQTT_OK/GD32VW55X_Wifi_BLE_SDK/GD32VW55x_RELEASE_V1.0.2/MSDK/cloud/alicloud/src/protocol/alcs\alcs_server.c ****             res_code = ALCS_AUTH_ILLEGALSIGN;
 962              		.loc 1 132 9 is_stmt 1
 132:C:/Users/stapi/OneDrive/Desktop/GD32VW553/V1_MQTT_OK/GD32VW55X_Wifi_BLE_SDK/GD32VW55x_RELEASE_V1.0.2/MSDK/cloud/alicloud/src/protocol/alcs\alcs_server.c ****             res_code = ALCS_AUTH_ILLEGALSIGN;
 963              		.loc 1 132 12 is_stmt 0
 964 02d2 19C9     		beq	a0,zero,.L42
 132:C:/Users/stapi/OneDrive/Desktop/GD32VW553/V1_MQTT_OK/GD32VW55X_Wifi_BLE_SDK/GD32VW55x_RELEASE_V1.0.2/MSDK/cloud/alicloud/src/protocol/alcs\alcs_server.c ****             res_code = ALCS_AUTH_ILLEGALSIGN;
 965              		.loc 1 132 29 discriminator 1
 966 02d4 8647     		lw	a5,64(sp)
 132:C:/Users/stapi/OneDrive/Desktop/GD32VW553/V1_MQTT_OK/GD32VW55X_Wifi_BLE_SDK/GD32VW55x_RELEASE_V1.0.2/MSDK/cloud/alicloud/src/protocol/alcs\alcs_server.c ****             res_code = ALCS_AUTH_ILLEGALSIGN;
 967              		.loc 1 132 19 discriminator 1
 968 02d6 5256     		lw	a2,52(sp)
 969 02d8 6318F600 		bne	a2,a5,.L42
 132:C:/Users/stapi/OneDrive/Desktop/GD32VW553/V1_MQTT_OK/GD32VW55X_Wifi_BLE_SDK/GD32VW55x_RELEASE_V1.0.2/MSDK/cloud/alicloud/src/protocol/alcs\alcs_server.c ****             res_code = ALCS_AUTH_ILLEGALSIGN;
 970              		.loc 1 132 49 discriminator 2
 971 02dc AC10     		addi	a1,sp,104
 972 02de 97000000 		call	strncmp
 972      E7800000 
 973              	.LVL106:
 132:C:/Users/stapi/OneDrive/Desktop/GD32VW553/V1_MQTT_OK/GD32VW55X_Wifi_BLE_SDK/GD32VW55x_RELEASE_V1.0.2/MSDK/cloud/alicloud/src/protocol/alcs\alcs_server.c ****             res_code = ALCS_AUTH_ILLEGALSIGN;
 974              		.loc 1 132 46 discriminator 2
 975 02e6 01C5     		beq	a0,zero,.L43
 976              	.L42:
 133:C:/Users/stapi/OneDrive/Desktop/GD32VW553/V1_MQTT_OK/GD32VW55X_Wifi_BLE_SDK/GD32VW55x_RELEASE_V1.0.2/MSDK/cloud/alicloud/src/protocol/alcs\alcs_server.c ****             break;
 977              		.loc 1 133 13 is_stmt 1
 133:C:/Users/stapi/OneDrive/Desktop/GD32VW553/V1_MQTT_OK/GD32VW55X_Wifi_BLE_SDK/GD32VW55x_RELEASE_V1.0.2/MSDK/cloud/alicloud/src/protocol/alcs\alcs_server.c ****             break;
 978              		.loc 1 133 22 is_stmt 0
 979 02e8 9307A01F 		li	a5,506
 980 02ec 19BF     		j	.L75
 981              	.L43:
 137:C:/Users/stapi/OneDrive/Desktop/GD32VW553/V1_MQTT_OK/GD32VW55X_Wifi_BLE_SDK/GD32VW55x_RELEASE_V1.0.2/MSDK/cloud/alicloud/src/protocol/alcs\alcs_server.c ****         char *pk = json_get_value_by_name(data, datalen, "prodKey", &pklen, NULL);
 982              		.loc 1 137 9 is_stmt 1
 138:C:/Users/stapi/OneDrive/Desktop/GD32VW553/V1_MQTT_OK/GD32VW55X_Wifi_BLE_SDK/GD32VW55x_RELEASE_V1.0.2/MSDK/cloud/alicloud/src/protocol/alcs\alcs_server.c ****         char *dn = json_get_value_by_name(data, datalen, "deviceName", &dnlen, NULL);
 983              		.loc 1 138 9
 138:C:/Users/stapi/OneDrive/Desktop/GD32VW553/V1_MQTT_OK/GD32VW55X_Wifi_BLE_SDK/GD32VW55x_RELEASE_V1.0.2/MSDK/cloud/alicloud/src/protocol/alcs\alcs_server.c ****         char *dn = json_get_value_by_name(data, datalen, "deviceName", &dnlen, NULL);
 984              		.loc 1 138 20 is_stmt 0
 985 02ee 9255     		lw	a1,36(sp)
 986 02f0 3255     		lw	a0,44(sp)
 987 02f2 37060000 		lui	a2,%hi(.LC21)
 988 02f6 0147     		li	a4,0
 989 02f8 D400     		addi	a3,sp,68
 990 02fa 13060600 		addi	a2,a2,%lo(.LC21)
 991 02fe 97000000 		call	json_get_value_by_name
 991      E7800000 
 992              	.LVL107:
 139:C:/Users/stapi/OneDrive/Desktop/GD32VW553/V1_MQTT_OK/GD32VW55X_Wifi_BLE_SDK/GD32VW55x_RELEASE_V1.0.2/MSDK/cloud/alicloud/src/protocol/alcs\alcs_server.c **** 
 993              		.loc 1 139 20
 994 0306 9255     		lw	a1,36(sp)
 138:C:/Users/stapi/OneDrive/Desktop/GD32VW553/V1_MQTT_OK/GD32VW55X_Wifi_BLE_SDK/GD32VW55x_RELEASE_V1.0.2/MSDK/cloud/alicloud/src/protocol/alcs\alcs_server.c ****         char *dn = json_get_value_by_name(data, datalen, "deviceName", &dnlen, NULL);
 995              		.loc 1 138 20
 996 0308 AA89     		mv	s3,a0
 997              	.LVL108:
 139:C:/Users/stapi/OneDrive/Desktop/GD32VW553/V1_MQTT_OK/GD32VW55X_Wifi_BLE_SDK/GD32VW55x_RELEASE_V1.0.2/MSDK/cloud/alicloud/src/protocol/alcs\alcs_server.c **** 
 998              		.loc 1 139 9 is_stmt 1
 139:C:/Users/stapi/OneDrive/Desktop/GD32VW553/V1_MQTT_OK/GD32VW55X_Wifi_BLE_SDK/GD32VW55x_RELEASE_V1.0.2/MSDK/cloud/alicloud/src/protocol/alcs\alcs_server.c **** 
 999              		.loc 1 139 20 is_stmt 0
 1000 030a 3255     		lw	a0,44(sp)
 1001              	.LVL109:
 1002 030c 37060000 		lui	a2,%hi(.LC22)
 1003 0310 0147     		li	a4,0
 1004 0312 B400     		addi	a3,sp,72
 1005 0314 13060600 		addi	a2,a2,%lo(.LC22)
 1006 0318 97000000 		call	json_get_value_by_name
 1006      E7800000 
 1007              	.LVL110:
 1008 0320 2A89     		mv	s2,a0
 1009              	.LVL111:
 141:C:/Users/stapi/OneDrive/Desktop/GD32VW553/V1_MQTT_OK/GD32VW55X_Wifi_BLE_SDK/GD32VW55x_RELEASE_V1.0.2/MSDK/cloud/alicloud/src/protocol/alcs\alcs_server.c ****             res_code = ALCS_AUTH_INVALIDPARAM;
 1010              		.loc 1 141 9 is_stmt 1
 141:C:/Users/stapi/OneDrive/Desktop/GD32VW553/V1_MQTT_OK/GD32VW55X_Wifi_BLE_SDK/GD32VW55x_RELEASE_V1.0.2/MSDK/cloud/alicloud/src/protocol/alcs\alcs_server.c ****             res_code = ALCS_AUTH_INVALIDPARAM;
 1011              		.loc 1 141 12 is_stmt 0
 1012 0322 E38E09EC 		beq	s3,zero,.L40
 141:C:/Users/stapi/OneDrive/Desktop/GD32VW553/V1_MQTT_OK/GD32VW55X_Wifi_BLE_SDK/GD32VW55x_RELEASE_V1.0.2/MSDK/cloud/alicloud/src/protocol/alcs\alcs_server.c ****             res_code = ALCS_AUTH_INVALIDPARAM;
 1013              		.loc 1 141 20 discriminator 1
 1014 0326 9647     		lw	a5,68(sp)
 141:C:/Users/stapi/OneDrive/Desktop/GD32VW553/V1_MQTT_OK/GD32VW55X_Wifi_BLE_SDK/GD32VW55x_RELEASE_V1.0.2/MSDK/cloud/alicloud/src/protocol/alcs\alcs_server.c ****             res_code = ALCS_AUTH_INVALIDPARAM;
 1015              		.loc 1 141 17 discriminator 1
 1016 0328 E38B07EC 		beq	a5,zero,.L40
 141:C:/Users/stapi/OneDrive/Desktop/GD32VW553/V1_MQTT_OK/GD32VW55X_Wifi_BLE_SDK/GD32VW55x_RELEASE_V1.0.2/MSDK/cloud/alicloud/src/protocol/alcs\alcs_server.c ****             res_code = ALCS_AUTH_INVALIDPARAM;
 1017              		.loc 1 141 27 discriminator 2
 1018 032c E30905EC 		beq	a0,zero,.L40
 141:C:/Users/stapi/OneDrive/Desktop/GD32VW553/V1_MQTT_OK/GD32VW55X_Wifi_BLE_SDK/GD32VW55x_RELEASE_V1.0.2/MSDK/cloud/alicloud/src/protocol/alcs\alcs_server.c ****             res_code = ALCS_AUTH_INVALIDPARAM;
 1019              		.loc 1 141 37 discriminator 3
 1020 0330 2647     		lw	a4,72(sp)
 141:C:/Users/stapi/OneDrive/Desktop/GD32VW553/V1_MQTT_OK/GD32VW55X_Wifi_BLE_SDK/GD32VW55x_RELEASE_V1.0.2/MSDK/cloud/alicloud/src/protocol/alcs\alcs_server.c ****             res_code = ALCS_AUTH_INVALIDPARAM;
 1021              		.loc 1 141 34 discriminator 3
 1022 0332 E30607EC 		beq	a4,zero,.L40
 145:C:/Users/stapi/OneDrive/Desktop/GD32VW553/V1_MQTT_OK/GD32VW55X_Wifi_BLE_SDK/GD32VW55x_RELEASE_V1.0.2/MSDK/cloud/alicloud/src/protocol/alcs\alcs_server.c ****         char tmp2 = dn[dnlen];
 1023              		.loc 1 145 9 is_stmt 1
 145:C:/Users/stapi/OneDrive/Desktop/GD32VW553/V1_MQTT_OK/GD32VW55X_Wifi_BLE_SDK/GD32VW55x_RELEASE_V1.0.2/MSDK/cloud/alicloud/src/protocol/alcs\alcs_server.c ****         char tmp2 = dn[dnlen];
 1024              		.loc 1 145 23 is_stmt 0
 1025 0336 CE97     		add	a5,s3,a5
 146:C:/Users/stapi/OneDrive/Desktop/GD32VW553/V1_MQTT_OK/GD32VW55X_Wifi_BLE_SDK/GD32VW55x_RELEASE_V1.0.2/MSDK/cloud/alicloud/src/protocol/alcs\alcs_server.c ****         pk[pklen] = 0;
 1026              		.loc 1 146 14
 1027 0338 2A97     		add	a4,a0,a4
 145:C:/Users/stapi/OneDrive/Desktop/GD32VW553/V1_MQTT_OK/GD32VW55X_Wifi_BLE_SDK/GD32VW55x_RELEASE_V1.0.2/MSDK/cloud/alicloud/src/protocol/alcs\alcs_server.c ****         char tmp2 = dn[dnlen];
 1028              		.loc 1 145 14
 1029 033a 83860700 		lb	a3,0(a5)
 146:C:/Users/stapi/OneDrive/Desktop/GD32VW553/V1_MQTT_OK/GD32VW55X_Wifi_BLE_SDK/GD32VW55x_RELEASE_V1.0.2/MSDK/cloud/alicloud/src/protocol/alcs\alcs_server.c ****         pk[pklen] = 0;
 1030              		.loc 1 146 14
 1031 033e 03070700 		lb	a4,0(a4)
 147:C:/Users/stapi/OneDrive/Desktop/GD32VW553/V1_MQTT_OK/GD32VW55X_Wifi_BLE_SDK/GD32VW55x_RELEASE_V1.0.2/MSDK/cloud/alicloud/src/protocol/alcs\alcs_server.c ****         dn[dnlen] = 0;
 1032              		.loc 1 147 19
 1033 0342 23800700 		sb	zero,0(a5)
 148:C:/Users/stapi/OneDrive/Desktop/GD32VW553/V1_MQTT_OK/GD32VW55X_Wifi_BLE_SDK/GD32VW55x_RELEASE_V1.0.2/MSDK/cloud/alicloud/src/protocol/alcs\alcs_server.c **** 
 1034              		.loc 1 148 19
 1035 0346 A647     		lw	a5,72(sp)
 152:C:/Users/stapi/OneDrive/Desktop/GD32VW553/V1_MQTT_OK/GD32VW55X_Wifi_BLE_SDK/GD32VW55x_RELEASE_V1.0.2/MSDK/cloud/alicloud/src/protocol/alcs\alcs_server.c ****         devKey.pk = pk;
 1036              		.loc 1 152 9
 1037 0348 4946     		li	a2,18
 1038 034a DA85     		mv	a1,s6
 148:C:/Users/stapi/OneDrive/Desktop/GD32VW553/V1_MQTT_OK/GD32VW55X_Wifi_BLE_SDK/GD32VW55x_RELEASE_V1.0.2/MSDK/cloud/alicloud/src/protocol/alcs\alcs_server.c **** 
 1039              		.loc 1 148 19
 1040 034c AA97     		add	a5,a0,a5
 1041 034e 23800700 		sb	zero,0(a5)
 152:C:/Users/stapi/OneDrive/Desktop/GD32VW553/V1_MQTT_OK/GD32VW55X_Wifi_BLE_SDK/GD32VW55x_RELEASE_V1.0.2/MSDK/cloud/alicloud/src/protocol/alcs\alcs_server.c ****         devKey.pk = pk;
 1042              		.loc 1 152 9
 1043 0352 E800     		addi	a0,sp,76
 1044              	.LVL112:
 145:C:/Users/stapi/OneDrive/Desktop/GD32VW553/V1_MQTT_OK/GD32VW55X_Wifi_BLE_SDK/GD32VW55x_RELEASE_V1.0.2/MSDK/cloud/alicloud/src/protocol/alcs\alcs_server.c ****         char tmp2 = dn[dnlen];
 1045              		.loc 1 145 14
 1046 0354 36CA     		sw	a3,20(sp)
 1047              	.LVL113:
 146:C:/Users/stapi/OneDrive/Desktop/GD32VW553/V1_MQTT_OK/GD32VW55X_Wifi_BLE_SDK/GD32VW55x_RELEASE_V1.0.2/MSDK/cloud/alicloud/src/protocol/alcs\alcs_server.c ****         pk[pklen] = 0;
 1048              		.loc 1 146 9 is_stmt 1
 146:C:/Users/stapi/OneDrive/Desktop/GD32VW553/V1_MQTT_OK/GD32VW55X_Wifi_BLE_SDK/GD32VW55x_RELEASE_V1.0.2/MSDK/cloud/alicloud/src/protocol/alcs\alcs_server.c ****         pk[pklen] = 0;
 1049              		.loc 1 146 14 is_stmt 0
 1050 0356 3ACC     		sw	a4,24(sp)
 1051              	.LVL114:
 147:C:/Users/stapi/OneDrive/Desktop/GD32VW553/V1_MQTT_OK/GD32VW55X_Wifi_BLE_SDK/GD32VW55x_RELEASE_V1.0.2/MSDK/cloud/alicloud/src/protocol/alcs\alcs_server.c ****         dn[dnlen] = 0;
 1052              		.loc 1 147 9 is_stmt 1
 148:C:/Users/stapi/OneDrive/Desktop/GD32VW553/V1_MQTT_OK/GD32VW55X_Wifi_BLE_SDK/GD32VW55x_RELEASE_V1.0.2/MSDK/cloud/alicloud/src/protocol/alcs\alcs_server.c **** 
 1053              		.loc 1 148 9
 150:C:/Users/stapi/OneDrive/Desktop/GD32VW553/V1_MQTT_OK/GD32VW55X_Wifi_BLE_SDK/GD32VW55x_RELEASE_V1.0.2/MSDK/cloud/alicloud/src/protocol/alcs\alcs_server.c ****         memset(&devKey, 0x00, sizeof(AlcsDeviceKey));
 1054              		.loc 1 150 9
 151:C:/Users/stapi/OneDrive/Desktop/GD32VW553/V1_MQTT_OK/GD32VW55X_Wifi_BLE_SDK/GD32VW55x_RELEASE_V1.0.2/MSDK/cloud/alicloud/src/protocol/alcs\alcs_server.c ****         memcpy(&devKey.addr, from, sizeof(NetworkAddr));
 1055              		.loc 1 151 9
 1056 0358 231F0104 		sh	zero,94(sp)
 152:C:/Users/stapi/OneDrive/Desktop/GD32VW553/V1_MQTT_OK/GD32VW55X_Wifi_BLE_SDK/GD32VW55x_RELEASE_V1.0.2/MSDK/cloud/alicloud/src/protocol/alcs\alcs_server.c ****         devKey.pk = pk;
 1057              		.loc 1 152 9
 1058 035c 97000000 		call	memcpy
 1058      E7800000 
 1059              	.LVL115:
 153:C:/Users/stapi/OneDrive/Desktop/GD32VW553/V1_MQTT_OK/GD32VW55X_Wifi_BLE_SDK/GD32VW55x_RELEASE_V1.0.2/MSDK/cloud/alicloud/src/protocol/alcs\alcs_server.c ****         devKey.dn = dn;
 1060              		.loc 1 153 9
 156:C:/Users/stapi/OneDrive/Desktop/GD32VW553/V1_MQTT_OK/GD32VW55X_Wifi_BLE_SDK/GD32VW55x_RELEASE_V1.0.2/MSDK/cloud/alicloud/src/protocol/alcs\alcs_server.c ****         remove_session_safe (ctx, svr_head, &devKey);
 1061              		.loc 1 156 38 is_stmt 0
 1062 0364 37030000 		lui	t1,%hi(_device)
 1063 0368 930D0300 		addi	s11,t1,%lo(_device)
 1064 036c 83C7CD02 		lbu	a5,44(s11)
 153:C:/Users/stapi/OneDrive/Desktop/GD32VW553/V1_MQTT_OK/GD32VW55X_Wifi_BLE_SDK/GD32VW55x_RELEASE_V1.0.2/MSDK/cloud/alicloud/src/protocol/alcs\alcs_server.c ****         devKey.dn = dn;
 1065              		.loc 1 153 19
 1066 0370 CED0     		sw	s3,96(sp)
 154:C:/Users/stapi/OneDrive/Desktop/GD32VW553/V1_MQTT_OK/GD32VW55X_Wifi_BLE_SDK/GD32VW55x_RELEASE_V1.0.2/MSDK/cloud/alicloud/src/protocol/alcs\alcs_server.c **** 
 1067              		.loc 1 154 9 is_stmt 1
 154:C:/Users/stapi/OneDrive/Desktop/GD32VW553/V1_MQTT_OK/GD32VW55X_Wifi_BLE_SDK/GD32VW55x_RELEASE_V1.0.2/MSDK/cloud/alicloud/src/protocol/alcs\alcs_server.c **** 
 1068              		.loc 1 154 19 is_stmt 0
 1069 0372 CAD2     		sw	s2,100(sp)
 156:C:/Users/stapi/OneDrive/Desktop/GD32VW553/V1_MQTT_OK/GD32VW55X_Wifi_BLE_SDK/GD32VW55x_RELEASE_V1.0.2/MSDK/cloud/alicloud/src/protocol/alcs\alcs_server.c ****         remove_session_safe (ctx, svr_head, &devKey);
 1070              		.loc 1 156 9 is_stmt 1
 156:C:/Users/stapi/OneDrive/Desktop/GD32VW553/V1_MQTT_OK/GD32VW55X_Wifi_BLE_SDK/GD32VW55x_RELEASE_V1.0.2/MSDK/cloud/alicloud/src/protocol/alcs\alcs_server.c ****         remove_session_safe (ctx, svr_head, &devKey);
 1071              		.loc 1 156 38 is_stmt 0
 1072 0374 898B     		andi	a5,a5,2
 157:C:/Users/stapi/OneDrive/Desktop/GD32VW553/V1_MQTT_OK/GD32VW55X_Wifi_BLE_SDK/GD32VW55x_RELEASE_V1.0.2/MSDK/cloud/alicloud/src/protocol/alcs\alcs_server.c **** 
 1073              		.loc 1 157 9
 1074 0376 F000     		addi	a2,sp,76
 156:C:/Users/stapi/OneDrive/Desktop/GD32VW553/V1_MQTT_OK/GD32VW55X_Wifi_BLE_SDK/GD32VW55x_RELEASE_V1.0.2/MSDK/cloud/alicloud/src/protocol/alcs\alcs_server.c ****         remove_session_safe (ctx, svr_head, &devKey);
 1075              		.loc 1 156 38
 1076 0378 638B071E 		beq	a5,zero,.L44
 1077              	.LVL116:
 157:C:/Users/stapi/OneDrive/Desktop/GD32VW553/V1_MQTT_OK/GD32VW55X_Wifi_BLE_SDK/GD32VW55x_RELEASE_V1.0.2/MSDK/cloud/alicloud/src/protocol/alcs\alcs_server.c **** 
 1078              		.loc 1 157 9 is_stmt 1 discriminator 4
 1079 037c 370E0000 		lui	t3,%hi(_device+28)
 1080 0380 9305CE01 		addi	a1,t3,%lo(_device+28)
 1081 0384 5E85     		mv	a0,s7
 1082 0386 97000000 		call	remove_session_safe
 1082      E7800000 
 1083              	.LVL117:
 159:C:/Users/stapi/OneDrive/Desktop/GD32VW553/V1_MQTT_OK/GD32VW55X_Wifi_BLE_SDK/GD32VW55x_RELEASE_V1.0.2/MSDK/cloud/alicloud/src/protocol/alcs\alcs_server.c ****         gen_random_key((unsigned char *)session->randomKey, RANDOMKEY_LEN);
 1084              		.loc 1 159 9 discriminator 4
 159:C:/Users/stapi/OneDrive/Desktop/GD32VW553/V1_MQTT_OK/GD32VW55X_Wifi_BLE_SDK/GD32VW55x_RELEASE_V1.0.2/MSDK/cloud/alicloud/src/protocol/alcs\alcs_server.c ****         gen_random_key((unsigned char *)session->randomKey, RANDOMKEY_LEN);
 1085              		.loc 1 159 50 is_stmt 0 discriminator 4
 1086 038e 1306800C 		li	a2,200
 1087 0392 8145     		li	a1,0
 1088 0394 0145     		li	a0,0
 1089 0396 97000000 		call	LITE_malloc_internal
 1089      E7800000 
 1090              	.LVL118:
 160:C:/Users/stapi/OneDrive/Desktop/GD32VW553/V1_MQTT_OK/GD32VW55X_Wifi_BLE_SDK/GD32VW55x_RELEASE_V1.0.2/MSDK/cloud/alicloud/src/protocol/alcs\alcs_server.c ****         session->sessionId = ++sessionid_seed;
 1091              		.loc 1 160 41 discriminator 4
 1092 039e 130D4500 		addi	s10,a0,4
 159:C:/Users/stapi/OneDrive/Desktop/GD32VW553/V1_MQTT_OK/GD32VW55X_Wifi_BLE_SDK/GD32VW55x_RELEASE_V1.0.2/MSDK/cloud/alicloud/src/protocol/alcs\alcs_server.c ****         gen_random_key((unsigned char *)session->randomKey, RANDOMKEY_LEN);
 1093              		.loc 1 159 50 discriminator 4
 1094 03a2 2A84     		mv	s0,a0
 1095              	.LVL119:
 160:C:/Users/stapi/OneDrive/Desktop/GD32VW553/V1_MQTT_OK/GD32VW55X_Wifi_BLE_SDK/GD32VW55x_RELEASE_V1.0.2/MSDK/cloud/alicloud/src/protocol/alcs\alcs_server.c ****         session->sessionId = ++sessionid_seed;
 1096              		.loc 1 160 9 is_stmt 1 discriminator 4
 1097 03a4 C145     		li	a1,16
 1098 03a6 6A85     		mv	a0,s10
 1099 03a8 97000000 		call	gen_random_key
 1099      E7800000 
 1100              	.LVL120:
 161:C:/Users/stapi/OneDrive/Desktop/GD32VW553/V1_MQTT_OK/GD32VW55X_Wifi_BLE_SDK/GD32VW55x_RELEASE_V1.0.2/MSDK/cloud/alicloud/src/protocol/alcs\alcs_server.c ****         char path[100] = {0};
 1101              		.loc 1 161 9 discriminator 4
 161:C:/Users/stapi/OneDrive/Desktop/GD32VW553/V1_MQTT_OK/GD32VW55X_Wifi_BLE_SDK/GD32VW55x_RELEASE_V1.0.2/MSDK/cloud/alicloud/src/protocol/alcs\alcs_server.c ****         char path[100] = {0};
 1102              		.loc 1 161 30 is_stmt 0 discriminator 4
 1103 03b0 37070000 		lui	a4,%hi(sessionid_seed)
 1104 03b4 83270700 		lw	a5,%lo(sessionid_seed)(a4)
 162:C:/Users/stapi/OneDrive/Desktop/GD32VW553/V1_MQTT_OK/GD32VW55X_Wifi_BLE_SDK/GD32VW55x_RELEASE_V1.0.2/MSDK/cloud/alicloud/src/protocol/alcs\alcs_server.c ****         strncpy(path, pk, sizeof(path));
 1105              		.loc 1 162 14 discriminator 4
 1106 03b8 13060006 		li	a2,96
 1107 03bc 8145     		li	a1,0
 161:C:/Users/stapi/OneDrive/Desktop/GD32VW553/V1_MQTT_OK/GD32VW55X_Wifi_BLE_SDK/GD32VW55x_RELEASE_V1.0.2/MSDK/cloud/alicloud/src/protocol/alcs\alcs_server.c ****         char path[100] = {0};
 1108              		.loc 1 161 30 discriminator 4
 1109 03be 8507     		addi	a5,a5,1
 161:C:/Users/stapi/OneDrive/Desktop/GD32VW553/V1_MQTT_OK/GD32VW55X_Wifi_BLE_SDK/GD32VW55x_RELEASE_V1.0.2/MSDK/cloud/alicloud/src/protocol/alcs\alcs_server.c ****         char path[100] = {0};
 1110              		.loc 1 161 28 discriminator 4
 1111 03c0 2320F700 		sw	a5,%lo(sessionid_seed)(a4)
 1112 03c4 1CC0     		sw	a5,0(s0)
 162:C:/Users/stapi/OneDrive/Desktop/GD32VW553/V1_MQTT_OK/GD32VW55X_Wifi_BLE_SDK/GD32VW55x_RELEASE_V1.0.2/MSDK/cloud/alicloud/src/protocol/alcs\alcs_server.c ****         strncpy(path, pk, sizeof(path));
 1113              		.loc 1 162 9 is_stmt 1 discriminator 4
 162:C:/Users/stapi/OneDrive/Desktop/GD32VW553/V1_MQTT_OK/GD32VW55X_Wifi_BLE_SDK/GD32VW55x_RELEASE_V1.0.2/MSDK/cloud/alicloud/src/protocol/alcs\alcs_server.c ****         strncpy(path, pk, sizeof(path));
 1114              		.loc 1 162 14 is_stmt 0 discriminator 4
 1115 03c6 C813     		addi	a0,sp,484
 1116 03c8 2320011E 		sw	zero,480(sp)
 1117 03cc 97000000 		call	memset
 1117      E7800000 
 1118              	.LVL121:
 163:C:/Users/stapi/OneDrive/Desktop/GD32VW553/V1_MQTT_OK/GD32VW55X_Wifi_BLE_SDK/GD32VW55x_RELEASE_V1.0.2/MSDK/cloud/alicloud/src/protocol/alcs\alcs_server.c ****         strncat(path, dn, sizeof(path) - strlen(path) - 1);
 1119              		.loc 1 163 9 is_stmt 1 discriminator 4
 1120 03d4 CE85     		mv	a1,s3
 1121 03d6 13064006 		li	a2,100
 1122 03da 2685     		mv	a0,s1
 1123 03dc 97000000 		call	strncpy
 1123      E7800000 
 1124              	.LVL122:
 164:C:/Users/stapi/OneDrive/Desktop/GD32VW553/V1_MQTT_OK/GD32VW55X_Wifi_BLE_SDK/GD32VW55x_RELEASE_V1.0.2/MSDK/cloud/alicloud/src/protocol/alcs\alcs_server.c ****         CoAPPathMD5_sum(path, strlen(path), session->pk_dn, PK_DN_CHECKSUM_LEN);
 1125              		.loc 1 164 9 discriminator 4
 164:C:/Users/stapi/OneDrive/Desktop/GD32VW553/V1_MQTT_OK/GD32VW55X_Wifi_BLE_SDK/GD32VW55x_RELEASE_V1.0.2/MSDK/cloud/alicloud/src/protocol/alcs\alcs_server.c ****         CoAPPathMD5_sum(path, strlen(path), session->pk_dn, PK_DN_CHECKSUM_LEN);
 1126              		.loc 1 164 42 is_stmt 0 discriminator 4
 1127 03e4 2685     		mv	a0,s1
 1128 03e6 97000000 		call	strlen
 1128      E7800000 
 1129              	.LVL123:
 164:C:/Users/stapi/OneDrive/Desktop/GD32VW553/V1_MQTT_OK/GD32VW55X_Wifi_BLE_SDK/GD32VW55x_RELEASE_V1.0.2/MSDK/cloud/alicloud/src/protocol/alcs\alcs_server.c ****         CoAPPathMD5_sum(path, strlen(path), session->pk_dn, PK_DN_CHECKSUM_LEN);
 1130              		.loc 1 164 9 discriminator 4
 1131 03ee 13063006 		li	a2,99
 1132 03f2 098E     		sub	a2,a2,a0
 1133 03f4 CA85     		mv	a1,s2
 1134 03f6 2685     		mv	a0,s1
 1135 03f8 97000000 		call	strncat
 1135      E7800000 
 1136              	.LVL124:
 165:C:/Users/stapi/OneDrive/Desktop/GD32VW553/V1_MQTT_OK/GD32VW55X_Wifi_BLE_SDK/GD32VW55x_RELEASE_V1.0.2/MSDK/cloud/alicloud/src/protocol/alcs\alcs_server.c **** 
 1137              		.loc 1 165 9 is_stmt 1 discriminator 4
 165:C:/Users/stapi/OneDrive/Desktop/GD32VW553/V1_MQTT_OK/GD32VW55X_Wifi_BLE_SDK/GD32VW55x_RELEASE_V1.0.2/MSDK/cloud/alicloud/src/protocol/alcs\alcs_server.c **** 
 1138              		.loc 1 165 31 is_stmt 0 discriminator 4
 1139 0400 2685     		mv	a0,s1
 1140 0402 97000000 		call	strlen
 1140      E7800000 
 1141              	.LVL125:
 165:C:/Users/stapi/OneDrive/Desktop/GD32VW553/V1_MQTT_OK/GD32VW55X_Wifi_BLE_SDK/GD32VW55x_RELEASE_V1.0.2/MSDK/cloud/alicloud/src/protocol/alcs\alcs_server.c **** 
 1142              		.loc 1 165 9 discriminator 4
 1143 040a 9946     		li	a3,6
 165:C:/Users/stapi/OneDrive/Desktop/GD32VW553/V1_MQTT_OK/GD32VW55X_Wifi_BLE_SDK/GD32VW55x_RELEASE_V1.0.2/MSDK/cloud/alicloud/src/protocol/alcs\alcs_server.c **** 
 1144              		.loc 1 165 31 discriminator 4
 1145 040c AA85     		mv	a1,a0
 165:C:/Users/stapi/OneDrive/Desktop/GD32VW553/V1_MQTT_OK/GD32VW55X_Wifi_BLE_SDK/GD32VW55x_RELEASE_V1.0.2/MSDK/cloud/alicloud/src/protocol/alcs\alcs_server.c **** 
 1146              		.loc 1 165 9 discriminator 4
 1147 040e 13065403 		addi	a2,s0,53
 1148 0412 2685     		mv	a0,s1
 1149 0414 97000000 		call	CoAPPathMD5_sum
 1149      E7800000 
 1150              	.LVL126:
 167:C:/Users/stapi/OneDrive/Desktop/GD32VW553/V1_MQTT_OK/GD32VW55X_Wifi_BLE_SDK/GD32VW55x_RELEASE_V1.0.2/MSDK/cloud/alicloud/src/protocol/alcs\alcs_server.c ****         COAP_INFO("new session, id:%d, addr:%s, port:%d", session->sessionId, session->addr.addr, s
 1151              		.loc 1 167 9 is_stmt 1 discriminator 4
 167:C:/Users/stapi/OneDrive/Desktop/GD32VW553/V1_MQTT_OK/GD32VW55X_Wifi_BLE_SDK/GD32VW55x_RELEASE_V1.0.2/MSDK/cloud/alicloud/src/protocol/alcs\alcs_server.c ****         COAP_INFO("new session, id:%d, addr:%s, port:%d", session->sessionId, session->addr.addr, s
 1152              		.loc 1 167 16 is_stmt 0 discriminator 4
 1153 041c 93074405 		addi	a5,s0,84
 167:C:/Users/stapi/OneDrive/Desktop/GD32VW553/V1_MQTT_OK/GD32VW55X_Wifi_BLE_SDK/GD32VW55x_RELEASE_V1.0.2/MSDK/cloud/alicloud/src/protocol/alcs\alcs_server.c ****         COAP_INFO("new session, id:%d, addr:%s, port:%d", session->sessionId, session->addr.addr, s
 1154              		.loc 1 167 9 discriminator 4
 1155 0420 DA85     		mv	a1,s6
 1156 0422 4946     		li	a2,18
 1157 0424 3E85     		mv	a0,a5
 1158 0426 3ECE     		sw	a5,28(sp)
 1159 0428 97000000 		call	memcpy
 1159      E7800000 
 1160              	.LVL127:
 168:C:/Users/stapi/OneDrive/Desktop/GD32VW553/V1_MQTT_OK/GD32VW55X_Wifi_BLE_SDK/GD32VW55x_RELEASE_V1.0.2/MSDK/cloud/alicloud/src/protocol/alcs\alcs_server.c **** 
 1161              		.loc 1 168 9 is_stmt 1 discriminator 4
 168:C:/Users/stapi/OneDrive/Desktop/GD32VW553/V1_MQTT_OK/GD32VW55X_Wifi_BLE_SDK/GD32VW55x_RELEASE_V1.0.2/MSDK/cloud/alicloud/src/protocol/alcs\alcs_server.c **** 
 1162              		.loc 1 168 9 discriminator 4
 1163 0430 13850C00 		addi	a0,s9,%lo(.LC3)
 1164 0434 97000000 		call	HAL_Printf
 1164      E7800000 
 1165              	.LVL128:
 168:C:/Users/stapi/OneDrive/Desktop/GD32VW553/V1_MQTT_OK/GD32VW55X_Wifi_BLE_SDK/GD32VW55x_RELEASE_V1.0.2/MSDK/cloud/alicloud/src/protocol/alcs\alcs_server.c **** 
 1166              		.loc 1 168 9 discriminator 4
 1167 043c F247     		lw	a5,28(sp)
 1168 043e 83564406 		lhu	a3,100(s0)
 1169 0442 0C40     		lw	a1,0(s0)
 1170 0444 3E86     		mv	a2,a5
 1171 0446 B7070000 		lui	a5,%hi(.LC23)
 1172 044a 13850700 		addi	a0,a5,%lo(.LC23)
 1173 044e 97000000 		call	HAL_Printf
 1173      E7800000 
 1174              	.LVL129:
 168:C:/Users/stapi/OneDrive/Desktop/GD32VW553/V1_MQTT_OK/GD32VW55X_Wifi_BLE_SDK/GD32VW55x_RELEASE_V1.0.2/MSDK/cloud/alicloud/src/protocol/alcs\alcs_server.c **** 
 1175              		.loc 1 168 9 discriminator 4
 1176 0456 13050C00 		addi	a0,s8,%lo(.LC2)
 1177 045a 97000000 		call	HAL_Printf
 1177      E7800000 
 1178              	.LVL130:
 168:C:/Users/stapi/OneDrive/Desktop/GD32VW553/V1_MQTT_OK/GD32VW55X_Wifi_BLE_SDK/GD32VW55x_RELEASE_V1.0.2/MSDK/cloud/alicloud/src/protocol/alcs\alcs_server.c **** 
 1179              		.loc 1 168 9 discriminator 4
 170:C:/Users/stapi/OneDrive/Desktop/GD32VW553/V1_MQTT_OK/GD32VW55X_Wifi_BLE_SDK/GD32VW55x_RELEASE_V1.0.2/MSDK/cloud/alicloud/src/protocol/alcs\alcs_server.c ****         dn[dnlen] = tmp2;
 1180              		.loc 1 170 9 discriminator 4
 170:C:/Users/stapi/OneDrive/Desktop/GD32VW553/V1_MQTT_OK/GD32VW55X_Wifi_BLE_SDK/GD32VW55x_RELEASE_V1.0.2/MSDK/cloud/alicloud/src/protocol/alcs\alcs_server.c ****         dn[dnlen] = tmp2;
 1181              		.loc 1 170 19 is_stmt 0 discriminator 4
 1182 0462 1645     		lw	a0,68(sp)
 1183 0464 D247     		lw	a5,20(sp)
 173:C:/Users/stapi/OneDrive/Desktop/GD32VW553/V1_MQTT_OK/GD32VW55X_Wifi_BLE_SDK/GD32VW55x_RELEASE_V1.0.2/MSDK/cloud/alicloud/src/protocol/alcs\alcs_server.c ****         utils_hmac_sha1_raw(buf, strlen(buf), session->sessionKey, accessToken, tokenlen);
 1184              		.loc 1 173 9 discriminator 4
 1185 0466 37060000 		lui	a2,%hi(.LC24)
 170:C:/Users/stapi/OneDrive/Desktop/GD32VW553/V1_MQTT_OK/GD32VW55X_Wifi_BLE_SDK/GD32VW55x_RELEASE_V1.0.2/MSDK/cloud/alicloud/src/protocol/alcs\alcs_server.c ****         dn[dnlen] = tmp2;
 1186              		.loc 1 170 19 discriminator 4
 1187 046a AA99     		add	s3,s3,a0
 1188              	.LVL131:
 1189 046c 2380F900 		sb	a5,0(s3)
 171:C:/Users/stapi/OneDrive/Desktop/GD32VW553/V1_MQTT_OK/GD32VW55X_Wifi_BLE_SDK/GD32VW55x_RELEASE_V1.0.2/MSDK/cloud/alicloud/src/protocol/alcs\alcs_server.c **** 
 1190              		.loc 1 171 9 is_stmt 1 discriminator 4
 171:C:/Users/stapi/OneDrive/Desktop/GD32VW553/V1_MQTT_OK/GD32VW55X_Wifi_BLE_SDK/GD32VW55x_RELEASE_V1.0.2/MSDK/cloud/alicloud/src/protocol/alcs\alcs_server.c **** 
 1191              		.loc 1 171 19 is_stmt 0 discriminator 4
 1192 0470 2645     		lw	a0,72(sp)
 1193 0472 E247     		lw	a5,24(sp)
 173:C:/Users/stapi/OneDrive/Desktop/GD32VW553/V1_MQTT_OK/GD32VW55X_Wifi_BLE_SDK/GD32VW55x_RELEASE_V1.0.2/MSDK/cloud/alicloud/src/protocol/alcs\alcs_server.c ****         utils_hmac_sha1_raw(buf, strlen(buf), session->sessionKey, accessToken, tokenlen);
 1194              		.loc 1 173 9 discriminator 4
 1195 0474 5687     		mv	a4,s5
 171:C:/Users/stapi/OneDrive/Desktop/GD32VW553/V1_MQTT_OK/GD32VW55X_Wifi_BLE_SDK/GD32VW55x_RELEASE_V1.0.2/MSDK/cloud/alicloud/src/protocol/alcs\alcs_server.c **** 
 1196              		.loc 1 171 19 discriminator 4
 1197 0476 2A99     		add	s2,s2,a0
 1198              	.LVL132:
 1199 0478 2300F900 		sb	a5,0(s2)
 173:C:/Users/stapi/OneDrive/Desktop/GD32VW553/V1_MQTT_OK/GD32VW55X_Wifi_BLE_SDK/GD32VW55x_RELEASE_V1.0.2/MSDK/cloud/alicloud/src/protocol/alcs\alcs_server.c ****         utils_hmac_sha1_raw(buf, strlen(buf), session->sessionKey, accessToken, tokenlen);
 1200              		.loc 1 173 9 is_stmt 1 discriminator 4
 1201 047c F256     		lw	a3,60(sp)
 1202 047e EA87     		mv	a5,s10
 1203 0480 13060600 		addi	a2,a2,%lo(.LC24)
 1204 0484 93058002 		li	a1,40
 1205 0488 A810     		addi	a0,sp,104
 1206 048a 97000000 		call	snprintf
 1206      E7800000 
 1207              	.LVL133:
 174:C:/Users/stapi/OneDrive/Desktop/GD32VW553/V1_MQTT_OK/GD32VW55X_Wifi_BLE_SDK/GD32VW55x_RELEASE_V1.0.2/MSDK/cloud/alicloud/src/protocol/alcs\alcs_server.c **** 
 1208              		.loc 1 174 9 discriminator 4
 174:C:/Users/stapi/OneDrive/Desktop/GD32VW553/V1_MQTT_OK/GD32VW55X_Wifi_BLE_SDK/GD32VW55x_RELEASE_V1.0.2/MSDK/cloud/alicloud/src/protocol/alcs\alcs_server.c **** 
 1209              		.loc 1 174 34 is_stmt 0 discriminator 4
 1210 0492 A810     		addi	a0,sp,104
 1211 0494 97000000 		call	strlen
 1211      E7800000 
 1212              	.LVL134:
 174:C:/Users/stapi/OneDrive/Desktop/GD32VW553/V1_MQTT_OK/GD32VW55X_Wifi_BLE_SDK/GD32VW55x_RELEASE_V1.0.2/MSDK/cloud/alicloud/src/protocol/alcs\alcs_server.c **** 
 1213              		.loc 1 174 9 discriminator 4
 1214 049c 6257     		lw	a4,56(sp)
 174:C:/Users/stapi/OneDrive/Desktop/GD32VW553/V1_MQTT_OK/GD32VW55X_Wifi_BLE_SDK/GD32VW55x_RELEASE_V1.0.2/MSDK/cloud/alicloud/src/protocol/alcs\alcs_server.c **** 
 1215              		.loc 1 174 34 discriminator 4
 1216 049e AA85     		mv	a1,a0
 174:C:/Users/stapi/OneDrive/Desktop/GD32VW553/V1_MQTT_OK/GD32VW55X_Wifi_BLE_SDK/GD32VW55x_RELEASE_V1.0.2/MSDK/cloud/alicloud/src/protocol/alcs\alcs_server.c **** 
 1217              		.loc 1 174 9 discriminator 4
 1218 04a0 1409     		addi	a3,sp,144
 1219 04a2 13065401 		addi	a2,s0,21
 1220 04a6 A810     		addi	a0,sp,104
 1221 04a8 97000000 		call	utils_hmac_sha1_raw
 1221      E7800000 
 1222              	.LVL135:
 176:C:/Users/stapi/OneDrive/Desktop/GD32VW553/V1_MQTT_OK/GD32VW55X_Wifi_BLE_SDK/GD32VW55x_RELEASE_V1.0.2/MSDK/cloud/alicloud/src/protocol/alcs\alcs_server.c ****         if (support_opt & ALCS_OPT_PAYLOAD_CHECKSUM) {
 1223              		.loc 1 176 9 is_stmt 1 discriminator 4
 191:C:/Users/stapi/OneDrive/Desktop/GD32VW553/V1_MQTT_OK/GD32VW55X_Wifi_BLE_SDK/GD32VW55x_RELEASE_V1.0.2/MSDK/cloud/alicloud/src/protocol/alcs\alcs_server.c ****         snprintf(body, sizeof(body), "\"sign\":\"%.*s\",\"randomKey\":\"%s\",\"sessionId\":%d,\"exp
 1224              		.loc 1 191 9 is_stmt 0 discriminator 4
 1225 04b0 E256     		lw	a3,56(sp)
 176:C:/Users/stapi/OneDrive/Desktop/GD32VW553/V1_MQTT_OK/GD32VW55X_Wifi_BLE_SDK/GD32VW55x_RELEASE_V1.0.2/MSDK/cloud/alicloud/src/protocol/alcs\alcs_server.c ****         if (support_opt & ALCS_OPT_PAYLOAD_CHECKSUM) {
 1226              		.loc 1 176 22 discriminator 4
 1227 04b2 8547     		li	a5,1
 1228 04b4 232CF40A 		sw	a5,184(s0)
 177:C:/Users/stapi/OneDrive/Desktop/GD32VW553/V1_MQTT_OK/GD32VW55X_Wifi_BLE_SDK/GD32VW55x_RELEASE_V1.0.2/MSDK/cloud/alicloud/src/protocol/alcs\alcs_server.c ****             //session->opt |= ALCS_OPT_PAYLOAD_CHECKSUM;
 1229              		.loc 1 177 9 is_stmt 1 discriminator 4
 179:C:/Users/stapi/OneDrive/Desktop/GD32VW553/V1_MQTT_OK/GD32VW55X_Wifi_BLE_SDK/GD32VW55x_RELEASE_V1.0.2/MSDK/cloud/alicloud/src/protocol/alcs\alcs_server.c **** 
 1230              		.loc 1 179 9 discriminator 4
 181:C:/Users/stapi/OneDrive/Desktop/GD32VW553/V1_MQTT_OK/GD32VW55X_Wifi_BLE_SDK/GD32VW55x_RELEASE_V1.0.2/MSDK/cloud/alicloud/src/protocol/alcs\alcs_server.c ****             //session->opt |= ALCS_OPT_SUPPORT_SEQWINDOWS;
 1231              		.loc 1 181 9 discriminator 4
 187:C:/Users/stapi/OneDrive/Desktop/GD32VW553/V1_MQTT_OK/GD32VW55X_Wifi_BLE_SDK/GD32VW55x_RELEASE_V1.0.2/MSDK/cloud/alicloud/src/protocol/alcs\alcs_server.c **** 
 1232              		.loc 1 187 9 discriminator 4
 190:C:/Users/stapi/OneDrive/Desktop/GD32VW553/V1_MQTT_OK/GD32VW55X_Wifi_BLE_SDK/GD32VW55x_RELEASE_V1.0.2/MSDK/cloud/alicloud/src/protocol/alcs\alcs_server.c ****         utils_hmac_sha1_base64(session->randomKey, RANDOMKEY_LEN, accessToken, tokenlen, buf, &calc
 1233              		.loc 1 190 9 discriminator 4
 190:C:/Users/stapi/OneDrive/Desktop/GD32VW553/V1_MQTT_OK/GD32VW55X_Wifi_BLE_SDK/GD32VW55x_RELEASE_V1.0.2/MSDK/cloud/alicloud/src/protocol/alcs\alcs_server.c ****         utils_hmac_sha1_base64(session->randomKey, RANDOMKEY_LEN, accessToken, tokenlen, buf, &calc
 1234              		.loc 1 190 23 is_stmt 0 discriminator 4
 1235 04b8 93078002 		li	a5,40
 1236 04bc BEC0     		sw	a5,64(sp)
 191:C:/Users/stapi/OneDrive/Desktop/GD32VW553/V1_MQTT_OK/GD32VW55X_Wifi_BLE_SDK/GD32VW55x_RELEASE_V1.0.2/MSDK/cloud/alicloud/src/protocol/alcs\alcs_server.c ****         snprintf(body, sizeof(body), "\"sign\":\"%.*s\",\"randomKey\":\"%s\",\"sessionId\":%d,\"exp
 1237              		.loc 1 191 9 is_stmt 1 discriminator 4
 1238 04be B810     		addi	a4,sp,104
 1239 04c0 9C00     		addi	a5,sp,64
 1240 04c2 1009     		addi	a2,sp,144
 1241 04c4 6A85     		mv	a0,s10
 1242 04c6 C145     		li	a1,16
 1243 04c8 97000000 		call	utils_hmac_sha1_base64
 1243      E7800000 
 1244              	.LVL136:
 192:C:/Users/stapi/OneDrive/Desktop/GD32VW553/V1_MQTT_OK/GD32VW55X_Wifi_BLE_SDK/GD32VW55x_RELEASE_V1.0.2/MSDK/cloud/alicloud/src/protocol/alcs\alcs_server.c ****                  calc_sign_len, buf, session->randomKey, session->sessionId, session->opt,session->
 1245              		.loc 1 192 9 discriminator 4
 1246 04d0 5C5C     		lw	a5,60(s0)
 1247 04d2 8328840B 		lw	a7,184(s0)
 1248 04d6 03280400 		lw	a6,0(s0)
 1249 04da 8646     		lw	a3,64(sp)
 1250 04dc 37060000 		lui	a2,%hi(.LC25)
 1251 04e0 B810     		addi	a4,sp,104
 1252 04e2 13060600 		addi	a2,a2,%lo(.LC25)
 1253 04e6 3EC0     		sw	a5,0(sp)
 1254 04e8 9305800C 		li	a1,200
 1255 04ec EA87     		mv	a5,s10
 1256 04ee 280A     		addi	a0,sp,280
 1257 04f0 97000000 		call	snprintf
 1257      E7800000 
 1258              	.LVL137:
 194:C:/Users/stapi/OneDrive/Desktop/GD32VW553/V1_MQTT_OK/GD32VW55X_Wifi_BLE_SDK/GD32VW55x_RELEASE_V1.0.2/MSDK/cloud/alicloud/src/protocol/alcs\alcs_server.c ****         session->authed_time = HAL_UptimeMs();
 1259              		.loc 1 194 9 discriminator 4
 194:C:/Users/stapi/OneDrive/Desktop/GD32VW553/V1_MQTT_OK/GD32VW55X_Wifi_BLE_SDK/GD32VW55x_RELEASE_V1.0.2/MSDK/cloud/alicloud/src/protocol/alcs\alcs_server.c ****         session->authed_time = HAL_UptimeMs();
 1260              		.loc 1 194 9 discriminator 4
 1261 04f8 B7070000 		lui	a5,%hi(.LC0)
 1262 04fc 13850700 		addi	a0,a5,%lo(.LC0)
 1263 0500 97000000 		call	HAL_Printf
 1263      E7800000 
 1264              	.LVL138:
 194:C:/Users/stapi/OneDrive/Desktop/GD32VW553/V1_MQTT_OK/GD32VW55X_Wifi_BLE_SDK/GD32VW55x_RELEASE_V1.0.2/MSDK/cloud/alicloud/src/protocol/alcs\alcs_server.c ****         session->authed_time = HAL_UptimeMs();
 1265              		.loc 1 194 9 discriminator 4
 1266 0508 B7070000 		lui	a5,%hi(.LC26)
 1267 050c 13850700 		addi	a0,a5,%lo(.LC26)
 1268 0510 2C0A     		addi	a1,sp,280
 1269 0512 97000000 		call	HAL_Printf
 1269      E7800000 
 1270              	.LVL139:
 194:C:/Users/stapi/OneDrive/Desktop/GD32VW553/V1_MQTT_OK/GD32VW55X_Wifi_BLE_SDK/GD32VW55x_RELEASE_V1.0.2/MSDK/cloud/alicloud/src/protocol/alcs\alcs_server.c ****         session->authed_time = HAL_UptimeMs();
 1271              		.loc 1 194 9 discriminator 4
 1272 051a 13050C00 		addi	a0,s8,%lo(.LC2)
 1273 051e 97000000 		call	HAL_Printf
 1273      E7800000 
 1274              	.LVL140:
 194:C:/Users/stapi/OneDrive/Desktop/GD32VW553/V1_MQTT_OK/GD32VW55X_Wifi_BLE_SDK/GD32VW55x_RELEASE_V1.0.2/MSDK/cloud/alicloud/src/protocol/alcs\alcs_server.c ****         session->authed_time = HAL_UptimeMs();
 1275              		.loc 1 194 9 discriminator 4
 195:C:/Users/stapi/OneDrive/Desktop/GD32VW553/V1_MQTT_OK/GD32VW55X_Wifi_BLE_SDK/GD32VW55x_RELEASE_V1.0.2/MSDK/cloud/alicloud/src/protocol/alcs\alcs_server.c ****         session->heart_time = session->authed_time;
 1276              		.loc 1 195 9 discriminator 4
 195:C:/Users/stapi/OneDrive/Desktop/GD32VW553/V1_MQTT_OK/GD32VW55X_Wifi_BLE_SDK/GD32VW55x_RELEASE_V1.0.2/MSDK/cloud/alicloud/src/protocol/alcs\alcs_server.c ****         session->heart_time = session->authed_time;
 1277              		.loc 1 195 32 is_stmt 0 discriminator 4
 1278 0526 97000000 		call	HAL_UptimeMs
 1278      E7800000 
 1279              	.LVL141:
 195:C:/Users/stapi/OneDrive/Desktop/GD32VW553/V1_MQTT_OK/GD32VW55X_Wifi_BLE_SDK/GD32VW55x_RELEASE_V1.0.2/MSDK/cloud/alicloud/src/protocol/alcs\alcs_server.c ****         session->heart_time = session->authed_time;
 1280              		.loc 1 195 30 discriminator 4
 1281 052e 68C0     		sw	a0,68(s0)
 196:C:/Users/stapi/OneDrive/Desktop/GD32VW553/V1_MQTT_OK/GD32VW55X_Wifi_BLE_SDK/GD32VW55x_RELEASE_V1.0.2/MSDK/cloud/alicloud/src/protocol/alcs\alcs_server.c **** 
 1282              		.loc 1 196 9 is_stmt 1 discriminator 4
 196:C:/Users/stapi/OneDrive/Desktop/GD32VW553/V1_MQTT_OK/GD32VW55X_Wifi_BLE_SDK/GD32VW55x_RELEASE_V1.0.2/MSDK/cloud/alicloud/src/protocol/alcs\alcs_server.c **** 
 1283              		.loc 1 196 29 is_stmt 0 discriminator 4
 1284 0530 68C4     		sw	a0,76(s0)
 198:C:/Users/stapi/OneDrive/Desktop/GD32VW553/V1_MQTT_OK/GD32VW55X_Wifi_BLE_SDK/GD32VW55x_RELEASE_V1.0.2/MSDK/cloud/alicloud/src/protocol/alcs\alcs_server.c ****         HAL_MutexLock(dev_lst->list_mutex);
 1285              		.loc 1 198 9 is_stmt 1 discriminator 4
 1286              	.LVL142:
 199:C:/Users/stapi/OneDrive/Desktop/GD32VW553/V1_MQTT_OK/GD32VW55X_Wifi_BLE_SDK/GD32VW55x_RELEASE_V1.0.2/MSDK/cloud/alicloud/src/protocol/alcs\alcs_server.c ****         list_add_tail(&session->lst, svr_head);
 1287              		.loc 1 199 9 discriminator 4
 1288 0532 03A58D00 		lw	a0,8(s11)
 176:C:/Users/stapi/OneDrive/Desktop/GD32VW553/V1_MQTT_OK/GD32VW55X_Wifi_BLE_SDK/GD32VW55x_RELEASE_V1.0.2/MSDK/cloud/alicloud/src/protocol/alcs\alcs_server.c ****         if (support_opt & ALCS_OPT_PAYLOAD_CHECKSUM) {
 1289              		.loc 1 176 22 is_stmt 0 discriminator 4
 1290 0536 13090408 		addi	s2,s0,128
 200:C:/Users/stapi/OneDrive/Desktop/GD32VW553/V1_MQTT_OK/GD32VW55X_Wifi_BLE_SDK/GD32VW55x_RELEASE_V1.0.2/MSDK/cloud/alicloud/src/protocol/alcs\alcs_server.c ****         HAL_MutexUnlock(dev_lst->list_mutex);
 1291              		.loc 1 200 23 discriminator 4
 1292 053a 1304C40B 		addi	s0,s0,188
 1293              	.LVL143:
 199:C:/Users/stapi/OneDrive/Desktop/GD32VW553/V1_MQTT_OK/GD32VW55X_Wifi_BLE_SDK/GD32VW55x_RELEASE_V1.0.2/MSDK/cloud/alicloud/src/protocol/alcs\alcs_server.c ****         list_add_tail(&session->lst, svr_head);
 1294              		.loc 1 199 9 discriminator 4
 1295 053e 97000000 		call	HAL_MutexLock
 1295      E7800000 
 1296              	.LVL144:
 200:C:/Users/stapi/OneDrive/Desktop/GD32VW553/V1_MQTT_OK/GD32VW55X_Wifi_BLE_SDK/GD32VW55x_RELEASE_V1.0.2/MSDK/cloud/alicloud/src/protocol/alcs\alcs_server.c ****         HAL_MutexUnlock(dev_lst->list_mutex);
 1297              		.loc 1 200 9 is_stmt 1 discriminator 4
 1298              	.LBB51:
 1299              	.LBB52:
  63:..\..\..\..\cloud\alicloud\src\infra\utils\misc/lite-list.h **** }
 1300              		.loc 2 63 5 discriminator 4
  63:..\..\..\..\cloud\alicloud\src\infra\utils\misc/lite-list.h **** }
 1301              		.loc 2 63 28 is_stmt 0 discriminator 4
 1302 0546 83A7CD01 		lw	a5,28(s11)
 1303              	.LVL145:
 1304              	.LBB53:
 1305              	.LBB54:
  38:..\..\..\..\cloud\alicloud\src\infra\utils\misc/lite-list.h ****     node->prev = prev;
 1306              		.loc 2 38 5 is_stmt 1 discriminator 4
  38:..\..\..\..\cloud\alicloud\src\infra\utils\misc/lite-list.h ****     node->prev = prev;
 1307              		.loc 2 38 16 is_stmt 0 discriminator 4
 1308 054a 370E0000 		lui	t3,%hi(_device+28)
 1309 054e 130ECE01 		addi	t3,t3,%lo(_device+28)
 1310              	.LBE54:
 1311              	.LBE53:
 1312              	.LBE52:
 1313              	.LBE51:
 201:C:/Users/stapi/OneDrive/Desktop/GD32VW553/V1_MQTT_OK/GD32VW55X_Wifi_BLE_SDK/GD32VW55x_RELEASE_V1.0.2/MSDK/cloud/alicloud/src/protocol/alcs\alcs_server.c ****         // ???
 1314              		.loc 1 201 9 discriminator 4
 1315 0552 03A58D00 		lw	a0,8(s11)
 1316              	.LBB59:
 1317              	.LBB57:
 1318              	.LBB56:
 1319              	.LBB55:
  38:..\..\..\..\cloud\alicloud\src\infra\utils\misc/lite-list.h ****     node->prev = prev;
 1320              		.loc 2 38 16 discriminator 4
 1321 0556 2320C905 		sw	t3,64(s2)
  39:..\..\..\..\cloud\alicloud\src\infra\utils\misc/lite-list.h **** 
 1322              		.loc 2 39 5 is_stmt 1 discriminator 4
  39:..\..\..\..\cloud\alicloud\src\infra\utils\misc/lite-list.h **** 
 1323              		.loc 2 39 16 is_stmt 0 discriminator 4
 1324 055a 232EF902 		sw	a5,60(s2)
  41:..\..\..\..\cloud\alicloud\src\infra\utils\misc/lite-list.h ****     next->prev = node;
 1325              		.loc 2 41 5 is_stmt 1 discriminator 4
  41:..\..\..\..\cloud\alicloud\src\infra\utils\misc/lite-list.h ****     next->prev = node;
 1326              		.loc 2 41 16 is_stmt 0 discriminator 4
 1327 055e C0C3     		sw	s0,4(a5)
  42:..\..\..\..\cloud\alicloud\src\infra\utils\misc/lite-list.h **** }
 1328              		.loc 2 42 5 is_stmt 1 discriminator 4
  42:..\..\..\..\cloud\alicloud\src\infra\utils\misc/lite-list.h **** }
 1329              		.loc 2 42 16 is_stmt 0 discriminator 4
 1330 0560 23AE8D00 		sw	s0,28(s11)
 1331              	.LVL146:
 1332              	.LBE55:
 1333              	.LBE56:
 1334              	.LBE57:
 1335              	.LBE59:
 201:C:/Users/stapi/OneDrive/Desktop/GD32VW553/V1_MQTT_OK/GD32VW55X_Wifi_BLE_SDK/GD32VW55x_RELEASE_V1.0.2/MSDK/cloud/alicloud/src/protocol/alcs\alcs_server.c ****         // ???
 1336              		.loc 1 201 9 is_stmt 1 discriminator 4
 1337 0564 97000000 		call	HAL_MutexUnlock
 1337      E7800000 
 1338              	.LVL147:
 1339 056c 5DB6     		j	.L45
 1340              	.LVL148:
 1341              	.L44:
 157:C:/Users/stapi/OneDrive/Desktop/GD32VW553/V1_MQTT_OK/GD32VW55X_Wifi_BLE_SDK/GD32VW55x_RELEASE_V1.0.2/MSDK/cloud/alicloud/src/protocol/alcs\alcs_server.c **** 
 1342              		.loc 1 157 9
 1343 056e 5E85     		mv	a0,s7
 1344 0570 8145     		li	a1,0
 1345 0572 97000000 		call	remove_session_safe
 1345      E7800000 
 1346              	.LVL149:
 159:C:/Users/stapi/OneDrive/Desktop/GD32VW553/V1_MQTT_OK/GD32VW55X_Wifi_BLE_SDK/GD32VW55x_RELEASE_V1.0.2/MSDK/cloud/alicloud/src/protocol/alcs\alcs_server.c ****         gen_random_key((unsigned char *)session->randomKey, RANDOMKEY_LEN);
 1347              		.loc 1 159 9
 159:C:/Users/stapi/OneDrive/Desktop/GD32VW553/V1_MQTT_OK/GD32VW55X_Wifi_BLE_SDK/GD32VW55x_RELEASE_V1.0.2/MSDK/cloud/alicloud/src/protocol/alcs\alcs_server.c ****         gen_random_key((unsigned char *)session->randomKey, RANDOMKEY_LEN);
 1348              		.loc 1 159 50 is_stmt 0
 1349 057a 1306800C 		li	a2,200
 1350 057e 8145     		li	a1,0
 1351 0580 0145     		li	a0,0
 1352 0582 97000000 		call	LITE_malloc_internal
 1352      E7800000 
 1353              	.LVL150:
 160:C:/Users/stapi/OneDrive/Desktop/GD32VW553/V1_MQTT_OK/GD32VW55X_Wifi_BLE_SDK/GD32VW55x_RELEASE_V1.0.2/MSDK/cloud/alicloud/src/protocol/alcs\alcs_server.c ****         session->sessionId = ++sessionid_seed;
 1354              		.loc 1 160 41
 1355 058a 130A4500 		addi	s4,a0,4
 1356              	.LVL151:
 159:C:/Users/stapi/OneDrive/Desktop/GD32VW553/V1_MQTT_OK/GD32VW55X_Wifi_BLE_SDK/GD32VW55x_RELEASE_V1.0.2/MSDK/cloud/alicloud/src/protocol/alcs\alcs_server.c ****         gen_random_key((unsigned char *)session->randomKey, RANDOMKEY_LEN);
 1357              		.loc 1 159 50
 1358 058e 2A84     		mv	s0,a0
 1359              	.LVL152:
 160:C:/Users/stapi/OneDrive/Desktop/GD32VW553/V1_MQTT_OK/GD32VW55X_Wifi_BLE_SDK/GD32VW55x_RELEASE_V1.0.2/MSDK/cloud/alicloud/src/protocol/alcs\alcs_server.c ****         session->sessionId = ++sessionid_seed;
 1360              		.loc 1 160 9 is_stmt 1
 1361 0590 C145     		li	a1,16
 1362 0592 5285     		mv	a0,s4
 1363 0594 97000000 		call	gen_random_key
 1363      E7800000 
 1364              	.LVL153:
 161:C:/Users/stapi/OneDrive/Desktop/GD32VW553/V1_MQTT_OK/GD32VW55X_Wifi_BLE_SDK/GD32VW55x_RELEASE_V1.0.2/MSDK/cloud/alicloud/src/protocol/alcs\alcs_server.c ****         char path[100] = {0};
 1365              		.loc 1 161 9
 161:C:/Users/stapi/OneDrive/Desktop/GD32VW553/V1_MQTT_OK/GD32VW55X_Wifi_BLE_SDK/GD32VW55x_RELEASE_V1.0.2/MSDK/cloud/alicloud/src/protocol/alcs\alcs_server.c ****         char path[100] = {0};
 1366              		.loc 1 161 30 is_stmt 0
 1367 059c 37070000 		lui	a4,%hi(sessionid_seed)
 1368 05a0 83270700 		lw	a5,%lo(sessionid_seed)(a4)
 162:C:/Users/stapi/OneDrive/Desktop/GD32VW553/V1_MQTT_OK/GD32VW55X_Wifi_BLE_SDK/GD32VW55x_RELEASE_V1.0.2/MSDK/cloud/alicloud/src/protocol/alcs\alcs_server.c ****         strncpy(path, pk, sizeof(path));
 1369              		.loc 1 162 14
 1370 05a4 13060006 		li	a2,96
 1371 05a8 8145     		li	a1,0
 161:C:/Users/stapi/OneDrive/Desktop/GD32VW553/V1_MQTT_OK/GD32VW55X_Wifi_BLE_SDK/GD32VW55x_RELEASE_V1.0.2/MSDK/cloud/alicloud/src/protocol/alcs\alcs_server.c ****         char path[100] = {0};
 1372              		.loc 1 161 30
 1373 05aa 8507     		addi	a5,a5,1
 161:C:/Users/stapi/OneDrive/Desktop/GD32VW553/V1_MQTT_OK/GD32VW55X_Wifi_BLE_SDK/GD32VW55x_RELEASE_V1.0.2/MSDK/cloud/alicloud/src/protocol/alcs\alcs_server.c ****         char path[100] = {0};
 1374              		.loc 1 161 28
 1375 05ac 2320F700 		sw	a5,%lo(sessionid_seed)(a4)
 1376 05b0 1CC0     		sw	a5,0(s0)
 162:C:/Users/stapi/OneDrive/Desktop/GD32VW553/V1_MQTT_OK/GD32VW55X_Wifi_BLE_SDK/GD32VW55x_RELEASE_V1.0.2/MSDK/cloud/alicloud/src/protocol/alcs\alcs_server.c ****         strncpy(path, pk, sizeof(path));
 1377              		.loc 1 162 9 is_stmt 1
 162:C:/Users/stapi/OneDrive/Desktop/GD32VW553/V1_MQTT_OK/GD32VW55X_Wifi_BLE_SDK/GD32VW55x_RELEASE_V1.0.2/MSDK/cloud/alicloud/src/protocol/alcs\alcs_server.c ****         strncpy(path, pk, sizeof(path));
 1378              		.loc 1 162 14 is_stmt 0
 1379 05b2 C813     		addi	a0,sp,484
 1380 05b4 2320011E 		sw	zero,480(sp)
 1381 05b8 97000000 		call	memset
 1381      E7800000 
 1382              	.LVL154:
 163:C:/Users/stapi/OneDrive/Desktop/GD32VW553/V1_MQTT_OK/GD32VW55X_Wifi_BLE_SDK/GD32VW55x_RELEASE_V1.0.2/MSDK/cloud/alicloud/src/protocol/alcs\alcs_server.c ****         strncat(path, dn, sizeof(path) - strlen(path) - 1);
 1383              		.loc 1 163 9 is_stmt 1
 1384 05c0 CE85     		mv	a1,s3
 1385 05c2 13064006 		li	a2,100
 1386 05c6 2685     		mv	a0,s1
 1387 05c8 97000000 		call	strncpy
 1387      E7800000 
 1388              	.LVL155:
 164:C:/Users/stapi/OneDrive/Desktop/GD32VW553/V1_MQTT_OK/GD32VW55X_Wifi_BLE_SDK/GD32VW55x_RELEASE_V1.0.2/MSDK/cloud/alicloud/src/protocol/alcs\alcs_server.c ****         CoAPPathMD5_sum(path, strlen(path), session->pk_dn, PK_DN_CHECKSUM_LEN);
 1389              		.loc 1 164 9
 164:C:/Users/stapi/OneDrive/Desktop/GD32VW553/V1_MQTT_OK/GD32VW55X_Wifi_BLE_SDK/GD32VW55x_RELEASE_V1.0.2/MSDK/cloud/alicloud/src/protocol/alcs\alcs_server.c ****         CoAPPathMD5_sum(path, strlen(path), session->pk_dn, PK_DN_CHECKSUM_LEN);
 1390              		.loc 1 164 42 is_stmt 0
 1391 05d0 2685     		mv	a0,s1
 1392 05d2 97000000 		call	strlen
 1392      E7800000 
 1393              	.LVL156:
 164:C:/Users/stapi/OneDrive/Desktop/GD32VW553/V1_MQTT_OK/GD32VW55X_Wifi_BLE_SDK/GD32VW55x_RELEASE_V1.0.2/MSDK/cloud/alicloud/src/protocol/alcs\alcs_server.c ****         CoAPPathMD5_sum(path, strlen(path), session->pk_dn, PK_DN_CHECKSUM_LEN);
 1394              		.loc 1 164 9
 1395 05da 13063006 		li	a2,99
 1396 05de 098E     		sub	a2,a2,a0
 1397 05e0 CA85     		mv	a1,s2
 1398 05e2 2685     		mv	a0,s1
 1399 05e4 97000000 		call	strncat
 1399      E7800000 
 1400              	.LVL157:
 165:C:/Users/stapi/OneDrive/Desktop/GD32VW553/V1_MQTT_OK/GD32VW55X_Wifi_BLE_SDK/GD32VW55x_RELEASE_V1.0.2/MSDK/cloud/alicloud/src/protocol/alcs\alcs_server.c **** 
 1401              		.loc 1 165 9 is_stmt 1
 165:C:/Users/stapi/OneDrive/Desktop/GD32VW553/V1_MQTT_OK/GD32VW55X_Wifi_BLE_SDK/GD32VW55x_RELEASE_V1.0.2/MSDK/cloud/alicloud/src/protocol/alcs\alcs_server.c **** 
 1402              		.loc 1 165 31 is_stmt 0
 1403 05ec 2685     		mv	a0,s1
 1404 05ee 97000000 		call	strlen
 1404      E7800000 
 1405              	.LVL158:
 165:C:/Users/stapi/OneDrive/Desktop/GD32VW553/V1_MQTT_OK/GD32VW55X_Wifi_BLE_SDK/GD32VW55x_RELEASE_V1.0.2/MSDK/cloud/alicloud/src/protocol/alcs\alcs_server.c **** 
 1406              		.loc 1 165 9
 1407 05f6 9946     		li	a3,6
 165:C:/Users/stapi/OneDrive/Desktop/GD32VW553/V1_MQTT_OK/GD32VW55X_Wifi_BLE_SDK/GD32VW55x_RELEASE_V1.0.2/MSDK/cloud/alicloud/src/protocol/alcs\alcs_server.c **** 
 1408              		.loc 1 165 31
 1409 05f8 AA85     		mv	a1,a0
 165:C:/Users/stapi/OneDrive/Desktop/GD32VW553/V1_MQTT_OK/GD32VW55X_Wifi_BLE_SDK/GD32VW55x_RELEASE_V1.0.2/MSDK/cloud/alicloud/src/protocol/alcs\alcs_server.c **** 
 1410              		.loc 1 165 9
 1411 05fa 13065403 		addi	a2,s0,53
 1412 05fe 2685     		mv	a0,s1
 1413 0600 97000000 		call	CoAPPathMD5_sum
 1413      E7800000 
 1414              	.LVL159:
 167:C:/Users/stapi/OneDrive/Desktop/GD32VW553/V1_MQTT_OK/GD32VW55X_Wifi_BLE_SDK/GD32VW55x_RELEASE_V1.0.2/MSDK/cloud/alicloud/src/protocol/alcs\alcs_server.c ****         COAP_INFO("new session, id:%d, addr:%s, port:%d", session->sessionId, session->addr.addr, s
 1415              		.loc 1 167 9 is_stmt 1
 167:C:/Users/stapi/OneDrive/Desktop/GD32VW553/V1_MQTT_OK/GD32VW55X_Wifi_BLE_SDK/GD32VW55x_RELEASE_V1.0.2/MSDK/cloud/alicloud/src/protocol/alcs\alcs_server.c ****         COAP_INFO("new session, id:%d, addr:%s, port:%d", session->sessionId, session->addr.addr, s
 1416              		.loc 1 167 16 is_stmt 0
 1417 0608 93044405 		addi	s1,s0,84
 167:C:/Users/stapi/OneDrive/Desktop/GD32VW553/V1_MQTT_OK/GD32VW55X_Wifi_BLE_SDK/GD32VW55x_RELEASE_V1.0.2/MSDK/cloud/alicloud/src/protocol/alcs\alcs_server.c ****         COAP_INFO("new session, id:%d, addr:%s, port:%d", session->sessionId, session->addr.addr, s
 1418              		.loc 1 167 9
 1419 060c DA85     		mv	a1,s6
 1420 060e 4946     		li	a2,18
 1421 0610 2685     		mv	a0,s1
 1422 0612 97000000 		call	memcpy
 1422      E7800000 
 1423              	.LVL160:
 168:C:/Users/stapi/OneDrive/Desktop/GD32VW553/V1_MQTT_OK/GD32VW55X_Wifi_BLE_SDK/GD32VW55x_RELEASE_V1.0.2/MSDK/cloud/alicloud/src/protocol/alcs\alcs_server.c **** 
 1424              		.loc 1 168 9 is_stmt 1
 168:C:/Users/stapi/OneDrive/Desktop/GD32VW553/V1_MQTT_OK/GD32VW55X_Wifi_BLE_SDK/GD32VW55x_RELEASE_V1.0.2/MSDK/cloud/alicloud/src/protocol/alcs\alcs_server.c **** 
 1425              		.loc 1 168 9
 1426 061a 13850C00 		addi	a0,s9,%lo(.LC3)
 1427 061e 97000000 		call	HAL_Printf
 1427      E7800000 
 1428              	.LVL161:
 168:C:/Users/stapi/OneDrive/Desktop/GD32VW553/V1_MQTT_OK/GD32VW55X_Wifi_BLE_SDK/GD32VW55x_RELEASE_V1.0.2/MSDK/cloud/alicloud/src/protocol/alcs\alcs_server.c **** 
 1429              		.loc 1 168 9
 1430 0626 83564406 		lhu	a3,100(s0)
 1431 062a 0C40     		lw	a1,0(s0)
 1432 062c B7070000 		lui	a5,%hi(.LC23)
 1433 0630 2686     		mv	a2,s1
 1434 0632 13850700 		addi	a0,a5,%lo(.LC23)
 1435 0636 97000000 		call	HAL_Printf
 1435      E7800000 
 1436              	.LVL162:
 168:C:/Users/stapi/OneDrive/Desktop/GD32VW553/V1_MQTT_OK/GD32VW55X_Wifi_BLE_SDK/GD32VW55x_RELEASE_V1.0.2/MSDK/cloud/alicloud/src/protocol/alcs\alcs_server.c **** 
 1437              		.loc 1 168 9
 1438 063e 13050C00 		addi	a0,s8,%lo(.LC2)
 1439 0642 97000000 		call	HAL_Printf
 1439      E7800000 
 1440              	.LVL163:
 168:C:/Users/stapi/OneDrive/Desktop/GD32VW553/V1_MQTT_OK/GD32VW55X_Wifi_BLE_SDK/GD32VW55x_RELEASE_V1.0.2/MSDK/cloud/alicloud/src/protocol/alcs\alcs_server.c **** 
 1441              		.loc 1 168 9
 170:C:/Users/stapi/OneDrive/Desktop/GD32VW553/V1_MQTT_OK/GD32VW55X_Wifi_BLE_SDK/GD32VW55x_RELEASE_V1.0.2/MSDK/cloud/alicloud/src/protocol/alcs\alcs_server.c ****         dn[dnlen] = tmp2;
 1442              		.loc 1 170 9
 170:C:/Users/stapi/OneDrive/Desktop/GD32VW553/V1_MQTT_OK/GD32VW55X_Wifi_BLE_SDK/GD32VW55x_RELEASE_V1.0.2/MSDK/cloud/alicloud/src/protocol/alcs\alcs_server.c ****         dn[dnlen] = tmp2;
 1443              		.loc 1 170 19 is_stmt 0
 1444 064a 1645     		lw	a0,68(sp)
 1445 064c D247     		lw	a5,20(sp)
 173:C:/Users/stapi/OneDrive/Desktop/GD32VW553/V1_MQTT_OK/GD32VW55X_Wifi_BLE_SDK/GD32VW55x_RELEASE_V1.0.2/MSDK/cloud/alicloud/src/protocol/alcs\alcs_server.c ****         utils_hmac_sha1_raw(buf, strlen(buf), session->sessionKey, accessToken, tokenlen);
 1446              		.loc 1 173 9
 1447 064e 37060000 		lui	a2,%hi(.LC24)
 170:C:/Users/stapi/OneDrive/Desktop/GD32VW553/V1_MQTT_OK/GD32VW55X_Wifi_BLE_SDK/GD32VW55x_RELEASE_V1.0.2/MSDK/cloud/alicloud/src/protocol/alcs\alcs_server.c ****         dn[dnlen] = tmp2;
 1448              		.loc 1 170 19
 1449 0652 AA99     		add	s3,s3,a0
 1450              	.LVL164:
 1451 0654 2380F900 		sb	a5,0(s3)
 171:C:/Users/stapi/OneDrive/Desktop/GD32VW553/V1_MQTT_OK/GD32VW55X_Wifi_BLE_SDK/GD32VW55x_RELEASE_V1.0.2/MSDK/cloud/alicloud/src/protocol/alcs\alcs_server.c **** 
 1452              		.loc 1 171 9 is_stmt 1
 171:C:/Users/stapi/OneDrive/Desktop/GD32VW553/V1_MQTT_OK/GD32VW55X_Wifi_BLE_SDK/GD32VW55x_RELEASE_V1.0.2/MSDK/cloud/alicloud/src/protocol/alcs\alcs_server.c **** 
 1453              		.loc 1 171 19 is_stmt 0
 1454 0658 2645     		lw	a0,72(sp)
 1455 065a E247     		lw	a5,24(sp)
 173:C:/Users/stapi/OneDrive/Desktop/GD32VW553/V1_MQTT_OK/GD32VW55X_Wifi_BLE_SDK/GD32VW55x_RELEASE_V1.0.2/MSDK/cloud/alicloud/src/protocol/alcs\alcs_server.c ****         utils_hmac_sha1_raw(buf, strlen(buf), session->sessionKey, accessToken, tokenlen);
 1456              		.loc 1 173 9
 1457 065c 5687     		mv	a4,s5
 171:C:/Users/stapi/OneDrive/Desktop/GD32VW553/V1_MQTT_OK/GD32VW55X_Wifi_BLE_SDK/GD32VW55x_RELEASE_V1.0.2/MSDK/cloud/alicloud/src/protocol/alcs\alcs_server.c **** 
 1458              		.loc 1 171 19
 1459 065e 2A99     		add	s2,s2,a0
 1460              	.LVL165:
 1461 0660 2300F900 		sb	a5,0(s2)
 173:C:/Users/stapi/OneDrive/Desktop/GD32VW553/V1_MQTT_OK/GD32VW55X_Wifi_BLE_SDK/GD32VW55x_RELEASE_V1.0.2/MSDK/cloud/alicloud/src/protocol/alcs\alcs_server.c ****         utils_hmac_sha1_raw(buf, strlen(buf), session->sessionKey, accessToken, tokenlen);
 1462              		.loc 1 173 9 is_stmt 1
 1463 0664 F256     		lw	a3,60(sp)
 1464 0666 D287     		mv	a5,s4
 1465 0668 13060600 		addi	a2,a2,%lo(.LC24)
 1466 066c 93058002 		li	a1,40
 1467 0670 A810     		addi	a0,sp,104
 1468 0672 97000000 		call	snprintf
 1468      E7800000 
 1469              	.LVL166:
 174:C:/Users/stapi/OneDrive/Desktop/GD32VW553/V1_MQTT_OK/GD32VW55X_Wifi_BLE_SDK/GD32VW55x_RELEASE_V1.0.2/MSDK/cloud/alicloud/src/protocol/alcs\alcs_server.c **** 
 1470              		.loc 1 174 9
 174:C:/Users/stapi/OneDrive/Desktop/GD32VW553/V1_MQTT_OK/GD32VW55X_Wifi_BLE_SDK/GD32VW55x_RELEASE_V1.0.2/MSDK/cloud/alicloud/src/protocol/alcs\alcs_server.c **** 
 1471              		.loc 1 174 34 is_stmt 0
 1472 067a A810     		addi	a0,sp,104
 1473 067c 97000000 		call	strlen
 1473      E7800000 
 1474              	.LVL167:
 174:C:/Users/stapi/OneDrive/Desktop/GD32VW553/V1_MQTT_OK/GD32VW55X_Wifi_BLE_SDK/GD32VW55x_RELEASE_V1.0.2/MSDK/cloud/alicloud/src/protocol/alcs\alcs_server.c **** 
 1475              		.loc 1 174 9
 1476 0684 6257     		lw	a4,56(sp)
 174:C:/Users/stapi/OneDrive/Desktop/GD32VW553/V1_MQTT_OK/GD32VW55X_Wifi_BLE_SDK/GD32VW55x_RELEASE_V1.0.2/MSDK/cloud/alicloud/src/protocol/alcs\alcs_server.c **** 
 1477              		.loc 1 174 34
 1478 0686 AA85     		mv	a1,a0
 174:C:/Users/stapi/OneDrive/Desktop/GD32VW553/V1_MQTT_OK/GD32VW55X_Wifi_BLE_SDK/GD32VW55x_RELEASE_V1.0.2/MSDK/cloud/alicloud/src/protocol/alcs\alcs_server.c **** 
 1479              		.loc 1 174 9
 1480 0688 1409     		addi	a3,sp,144
 1481 068a 13065401 		addi	a2,s0,21
 1482 068e A810     		addi	a0,sp,104
 1483 0690 97000000 		call	utils_hmac_sha1_raw
 1483      E7800000 
 1484              	.LVL168:
 176:C:/Users/stapi/OneDrive/Desktop/GD32VW553/V1_MQTT_OK/GD32VW55X_Wifi_BLE_SDK/GD32VW55x_RELEASE_V1.0.2/MSDK/cloud/alicloud/src/protocol/alcs\alcs_server.c ****         if (support_opt & ALCS_OPT_PAYLOAD_CHECKSUM) {
 1485              		.loc 1 176 9 is_stmt 1
 191:C:/Users/stapi/OneDrive/Desktop/GD32VW553/V1_MQTT_OK/GD32VW55X_Wifi_BLE_SDK/GD32VW55x_RELEASE_V1.0.2/MSDK/cloud/alicloud/src/protocol/alcs\alcs_server.c ****         snprintf(body, sizeof(body), "\"sign\":\"%.*s\",\"randomKey\":\"%s\",\"sessionId\":%d,\"exp
 1486              		.loc 1 191 9 is_stmt 0
 1487 0698 E256     		lw	a3,56(sp)
 176:C:/Users/stapi/OneDrive/Desktop/GD32VW553/V1_MQTT_OK/GD32VW55X_Wifi_BLE_SDK/GD32VW55x_RELEASE_V1.0.2/MSDK/cloud/alicloud/src/protocol/alcs\alcs_server.c ****         if (support_opt & ALCS_OPT_PAYLOAD_CHECKSUM) {
 1488              		.loc 1 176 22
 1489 069a 93040408 		addi	s1,s0,128
 1490 069e 8547     		li	a5,1
 1491 06a0 9CDC     		sw	a5,56(s1)
 177:C:/Users/stapi/OneDrive/Desktop/GD32VW553/V1_MQTT_OK/GD32VW55X_Wifi_BLE_SDK/GD32VW55x_RELEASE_V1.0.2/MSDK/cloud/alicloud/src/protocol/alcs\alcs_server.c ****             //session->opt |= ALCS_OPT_PAYLOAD_CHECKSUM;
 1492              		.loc 1 177 9 is_stmt 1
 179:C:/Users/stapi/OneDrive/Desktop/GD32VW553/V1_MQTT_OK/GD32VW55X_Wifi_BLE_SDK/GD32VW55x_RELEASE_V1.0.2/MSDK/cloud/alicloud/src/protocol/alcs\alcs_server.c **** 
 1493              		.loc 1 179 9
 181:C:/Users/stapi/OneDrive/Desktop/GD32VW553/V1_MQTT_OK/GD32VW55X_Wifi_BLE_SDK/GD32VW55x_RELEASE_V1.0.2/MSDK/cloud/alicloud/src/protocol/alcs\alcs_server.c ****             //session->opt |= ALCS_OPT_SUPPORT_SEQWINDOWS;
 1494              		.loc 1 181 9
 187:C:/Users/stapi/OneDrive/Desktop/GD32VW553/V1_MQTT_OK/GD32VW55X_Wifi_BLE_SDK/GD32VW55x_RELEASE_V1.0.2/MSDK/cloud/alicloud/src/protocol/alcs\alcs_server.c **** 
 1495              		.loc 1 187 9
 190:C:/Users/stapi/OneDrive/Desktop/GD32VW553/V1_MQTT_OK/GD32VW55X_Wifi_BLE_SDK/GD32VW55x_RELEASE_V1.0.2/MSDK/cloud/alicloud/src/protocol/alcs\alcs_server.c ****         utils_hmac_sha1_base64(session->randomKey, RANDOMKEY_LEN, accessToken, tokenlen, buf, &calc
 1496              		.loc 1 190 9
 190:C:/Users/stapi/OneDrive/Desktop/GD32VW553/V1_MQTT_OK/GD32VW55X_Wifi_BLE_SDK/GD32VW55x_RELEASE_V1.0.2/MSDK/cloud/alicloud/src/protocol/alcs\alcs_server.c ****         utils_hmac_sha1_base64(session->randomKey, RANDOMKEY_LEN, accessToken, tokenlen, buf, &calc
 1497              		.loc 1 190 23 is_stmt 0
 1498 06a2 93078002 		li	a5,40
 1499 06a6 BEC0     		sw	a5,64(sp)
 191:C:/Users/stapi/OneDrive/Desktop/GD32VW553/V1_MQTT_OK/GD32VW55X_Wifi_BLE_SDK/GD32VW55x_RELEASE_V1.0.2/MSDK/cloud/alicloud/src/protocol/alcs\alcs_server.c ****         snprintf(body, sizeof(body), "\"sign\":\"%.*s\",\"randomKey\":\"%s\",\"sessionId\":%d,\"exp
 1500              		.loc 1 191 9 is_stmt 1
 1501 06a8 B810     		addi	a4,sp,104
 1502 06aa 9C00     		addi	a5,sp,64
 1503 06ac 1009     		addi	a2,sp,144
 1504 06ae 5285     		mv	a0,s4
 1505 06b0 C145     		li	a1,16
 1506 06b2 97000000 		call	utils_hmac_sha1_base64
 1506      E7800000 
 1507              	.LVL169:
 192:C:/Users/stapi/OneDrive/Desktop/GD32VW553/V1_MQTT_OK/GD32VW55X_Wifi_BLE_SDK/GD32VW55x_RELEASE_V1.0.2/MSDK/cloud/alicloud/src/protocol/alcs\alcs_server.c ****                  calc_sign_len, buf, session->randomKey, session->sessionId, session->opt,session->
 1508              		.loc 1 192 9
 1509 06ba 5C5C     		lw	a5,60(s0)
 1510 06bc 83A88403 		lw	a7,56(s1)
 1511 06c0 03280400 		lw	a6,0(s0)
 1512 06c4 8646     		lw	a3,64(sp)
 1513 06c6 37060000 		lui	a2,%hi(.LC25)
 1514 06ca B810     		addi	a4,sp,104
 1515 06cc 13060600 		addi	a2,a2,%lo(.LC25)
 1516 06d0 3EC0     		sw	a5,0(sp)
 1517 06d2 9305800C 		li	a1,200
 1518 06d6 D287     		mv	a5,s4
 1519 06d8 280A     		addi	a0,sp,280
 1520 06da 97000000 		call	snprintf
 1520      E7800000 
 1521              	.LVL170:
 194:C:/Users/stapi/OneDrive/Desktop/GD32VW553/V1_MQTT_OK/GD32VW55X_Wifi_BLE_SDK/GD32VW55x_RELEASE_V1.0.2/MSDK/cloud/alicloud/src/protocol/alcs\alcs_server.c ****         session->authed_time = HAL_UptimeMs();
 1522              		.loc 1 194 9
 194:C:/Users/stapi/OneDrive/Desktop/GD32VW553/V1_MQTT_OK/GD32VW55X_Wifi_BLE_SDK/GD32VW55x_RELEASE_V1.0.2/MSDK/cloud/alicloud/src/protocol/alcs\alcs_server.c ****         session->authed_time = HAL_UptimeMs();
 1523              		.loc 1 194 9
 1524 06e2 B7070000 		lui	a5,%hi(.LC0)
 1525 06e6 13850700 		addi	a0,a5,%lo(.LC0)
 1526 06ea 97000000 		call	HAL_Printf
 1526      E7800000 
 1527              	.LVL171:
 194:C:/Users/stapi/OneDrive/Desktop/GD32VW553/V1_MQTT_OK/GD32VW55X_Wifi_BLE_SDK/GD32VW55x_RELEASE_V1.0.2/MSDK/cloud/alicloud/src/protocol/alcs\alcs_server.c ****         session->authed_time = HAL_UptimeMs();
 1528              		.loc 1 194 9
 1529 06f2 B7070000 		lui	a5,%hi(.LC26)
 1530 06f6 13850700 		addi	a0,a5,%lo(.LC26)
 1531 06fa 2C0A     		addi	a1,sp,280
 1532 06fc 97000000 		call	HAL_Printf
 1532      E7800000 
 1533              	.LVL172:
 194:C:/Users/stapi/OneDrive/Desktop/GD32VW553/V1_MQTT_OK/GD32VW55X_Wifi_BLE_SDK/GD32VW55x_RELEASE_V1.0.2/MSDK/cloud/alicloud/src/protocol/alcs\alcs_server.c ****         session->authed_time = HAL_UptimeMs();
 1534              		.loc 1 194 9
 1535 0704 13050C00 		addi	a0,s8,%lo(.LC2)
 1536 0708 97000000 		call	HAL_Printf
 1536      E7800000 
 1537              	.LVL173:
 194:C:/Users/stapi/OneDrive/Desktop/GD32VW553/V1_MQTT_OK/GD32VW55X_Wifi_BLE_SDK/GD32VW55x_RELEASE_V1.0.2/MSDK/cloud/alicloud/src/protocol/alcs\alcs_server.c ****         session->authed_time = HAL_UptimeMs();
 1538              		.loc 1 194 9
 195:C:/Users/stapi/OneDrive/Desktop/GD32VW553/V1_MQTT_OK/GD32VW55X_Wifi_BLE_SDK/GD32VW55x_RELEASE_V1.0.2/MSDK/cloud/alicloud/src/protocol/alcs\alcs_server.c ****         session->heart_time = session->authed_time;
 1539              		.loc 1 195 9
 195:C:/Users/stapi/OneDrive/Desktop/GD32VW553/V1_MQTT_OK/GD32VW55X_Wifi_BLE_SDK/GD32VW55x_RELEASE_V1.0.2/MSDK/cloud/alicloud/src/protocol/alcs\alcs_server.c ****         session->heart_time = session->authed_time;
 1540              		.loc 1 195 32 is_stmt 0
 1541 0710 97000000 		call	HAL_UptimeMs
 1541      E7800000 
 1542              	.LVL174:
 195:C:/Users/stapi/OneDrive/Desktop/GD32VW553/V1_MQTT_OK/GD32VW55X_Wifi_BLE_SDK/GD32VW55x_RELEASE_V1.0.2/MSDK/cloud/alicloud/src/protocol/alcs\alcs_server.c ****         session->heart_time = session->authed_time;
 1543              		.loc 1 195 30
 1544 0718 68C0     		sw	a0,68(s0)
 196:C:/Users/stapi/OneDrive/Desktop/GD32VW553/V1_MQTT_OK/GD32VW55X_Wifi_BLE_SDK/GD32VW55x_RELEASE_V1.0.2/MSDK/cloud/alicloud/src/protocol/alcs\alcs_server.c **** 
 1545              		.loc 1 196 9 is_stmt 1
 196:C:/Users/stapi/OneDrive/Desktop/GD32VW553/V1_MQTT_OK/GD32VW55X_Wifi_BLE_SDK/GD32VW55x_RELEASE_V1.0.2/MSDK/cloud/alicloud/src/protocol/alcs\alcs_server.c **** 
 1546              		.loc 1 196 29 is_stmt 0
 1547 071a 68C4     		sw	a0,76(s0)
 198:C:/Users/stapi/OneDrive/Desktop/GD32VW553/V1_MQTT_OK/GD32VW55X_Wifi_BLE_SDK/GD32VW55x_RELEASE_V1.0.2/MSDK/cloud/alicloud/src/protocol/alcs\alcs_server.c ****         HAL_MutexLock(dev_lst->list_mutex);
 1548              		.loc 1 198 9 is_stmt 1
 1549              	.LVL175:
 199:C:/Users/stapi/OneDrive/Desktop/GD32VW553/V1_MQTT_OK/GD32VW55X_Wifi_BLE_SDK/GD32VW55x_RELEASE_V1.0.2/MSDK/cloud/alicloud/src/protocol/alcs\alcs_server.c ****         list_add_tail(&session->lst, svr_head);
 1550              		.loc 1 199 9
 1551 071c 03A58D00 		lw	a0,8(s11)
 1552 0720 97000000 		call	HAL_MutexLock
 1552      E7800000 
 1553              	.LVL176:
 200:C:/Users/stapi/OneDrive/Desktop/GD32VW553/V1_MQTT_OK/GD32VW55X_Wifi_BLE_SDK/GD32VW55x_RELEASE_V1.0.2/MSDK/cloud/alicloud/src/protocol/alcs\alcs_server.c ****         HAL_MutexUnlock(dev_lst->list_mutex);
 1554              		.loc 1 200 9
 1555              	.LBB60:
 1556              	.LBB58:
  63:..\..\..\..\cloud\alicloud\src\infra\utils\misc/lite-list.h **** }
 1557              		.loc 2 63 5
  63:..\..\..\..\cloud\alicloud\src\infra\utils\misc/lite-list.h **** }
 1558              		.loc 2 63 28 is_stmt 0
 1559 0728 83270000 		lw	a5,0(zero)
 1560 072c 0290     		ebreak
 1561              	.LBE58:
 1562              	.LBE60:
 1563              	.LBE61:
 1564              		.cfi_endproc
 1565              	.LFE21:
 1567              		.section	.rodata.alcs_add_svr_key.str1.4,"aMS",@progbits,1
 1568              		.align	2
 1569              	.LC28:
 1570 0000 616C6373 		.string	"alcs_add_svr_key, priority=%d"
 1570      5F616464 
 1570      5F737672 
 1570      5F6B6579 
 1570      2C207072 
 1571 001e 0000     		.align	2
 1572              	.LC29:
 1573 0020 6164645F 		.string	"add_svr_key, key:%s"
 1573      7376725F 
 1573      6B65792C 
 1573      206B6579 
 1573      3A257300 
 1574              		.align	2
 1575              	.LC30:
 1576 0034 6164645F 		.string	"add_svr_key 1 "
 1576      7376725F 
 1576      6B657920 
 1576      312000
 1577 0043 00       		.align	2
 1578              	.LC31:
 1579 0044 616C6373 		.string	"alcs_remove_low_priority_key 2_0: %p:%p"
 1579      5F72656D 
 1579      6F76655F 
 1579      6C6F775F 
 1579      7072696F 
 1580              		.align	2
 1581              	.LC32:
 1582 006c 616C6373 		.string	"alcs_remove_low_priority_key 3"
 1582      5F72656D 
 1582      6F76655F 
 1582      6C6F775F 
 1582      7072696F 
 1583 008b 00       		.align	2
 1584              	.LC33:
 1585 008c 6164645F 		.string	"add_svr_key 2 "
 1585      7376725F 
 1585      6B657920 
 1585      322000
 1586 009b 00       		.align	2
 1587              	.LC34:
 1588 009c 616C6373 		.string	"alcs_remove_low_priority_key 2_00"
 1588      5F72656D 
 1588      6F76655F 
 1588      6C6F775F 
 1588      7072696F 
 1589 00be 0000     		.align	2
 1590              	.LC35:
 1591 00c0 616C6373 		.string	"alcs_remove_low_priority_key 2_1"
 1591      5F72656D 
 1591      6F76655F 
 1591      6C6F775F 
 1591      7072696F 
 1592 00e1 000000   		.align	2
 1593              	.LC36:
 1594 00e4 6164645F 		.string	"add_svr_key 3 "
 1594      7376725F 
 1594      6B657920 
 1594      332000
 1595 00f3 00       		.align	2
 1596              	.LC37:
 1597 00f4 6164645F 		.string	"add_svr_key 4 "
 1597      7376725F 
 1597      6B657920 
 1597      342000
 1598 0103 00       		.align	2
 1599              	.LC38:
 1600 0104 6164645F 		.string	"add_svr_key 5 "
 1600      7376725F 
 1600      6B657920 
 1600      352000
 1601 0113 00       		.align	2
 1602              	.LC39:
 1603 0114 6164645F 		.string	"add_svr_key 6 "
 1603      7376725F 
 1603      6B657920 
 1603      362000
 1604 0123 00       		.align	2
 1605              	.LC40:
 1606 0124 66696E69 		.string	"finish add svr key"
 1606      73682061 
 1606      64642073 
 1606      7672206B 
 1606      657900
 1607              		.section	.text.alcs_add_svr_key,"ax",@progbits
 1608              		.align	1
 1609              		.globl	alcs_add_svr_key
 1611              	alcs_add_svr_key:
 1612              	.LFB24:
 296:C:/Users/stapi/OneDrive/Desktop/GD32VW553/V1_MQTT_OK/GD32VW55X_Wifi_BLE_SDK/GD32VW55x_RELEASE_V1.0.2/MSDK/cloud/alicloud/src/protocol/alcs\alcs_server.c ****     COAP_INFO("alcs_add_svr_key, priority=%d", priority);
 1613              		.loc 1 296 1 is_stmt 1
 1614              		.cfi_startproc
 1615              	.LVL177:
 1616 0000 17030000 		call	t0,__riscv_save_10
 1616      E7020300 
 1617              		.cfi_offset 25, -44
 1618              		.cfi_offset 24, -40
 1619              		.cfi_offset 23, -36
 1620              		.cfi_offset 22, -32
 1621              		.cfi_offset 21, -28
 1622              		.cfi_offset 20, -24
 1623              		.cfi_offset 19, -20
 1624              		.cfi_offset 18, -16
 1625              		.cfi_offset 9, -12
 1626              		.cfi_offset 8, -8
 1627              		.cfi_offset 1, -4
 1628              		.cfi_def_cfa_offset 48
 297:C:/Users/stapi/OneDrive/Desktop/GD32VW553/V1_MQTT_OK/GD32VW55X_Wifi_BLE_SDK/GD32VW55x_RELEASE_V1.0.2/MSDK/cloud/alicloud/src/protocol/alcs\alcs_server.c ****     return add_svr_key(ctx, keyprefix, secret, 0, priority);
 1629              		.loc 1 297 5
 297:C:/Users/stapi/OneDrive/Desktop/GD32VW553/V1_MQTT_OK/GD32VW55X_Wifi_BLE_SDK/GD32VW55x_RELEASE_V1.0.2/MSDK/cloud/alicloud/src/protocol/alcs\alcs_server.c ****     return add_svr_key(ctx, keyprefix, secret, 0, priority);
 1630              		.loc 1 297 5
 1631 0008 37090000 		lui	s2,%hi(.LC3)
 1632 000c 13050900 		addi	a0,s2,%lo(.LC3)
 1633              	.LVL178:
 296:C:/Users/stapi/OneDrive/Desktop/GD32VW553/V1_MQTT_OK/GD32VW55X_Wifi_BLE_SDK/GD32VW55x_RELEASE_V1.0.2/MSDK/cloud/alicloud/src/protocol/alcs\alcs_server.c ****     COAP_INFO("alcs_add_svr_key, priority=%d", priority);
 1634              		.loc 1 296 1 is_stmt 0
 1635 0010 B68A     		mv	s5,a3
 1636 0012 B28B     		mv	s7,a2
 1637 0014 2E8B     		mv	s6,a1
 297:C:/Users/stapi/OneDrive/Desktop/GD32VW553/V1_MQTT_OK/GD32VW55X_Wifi_BLE_SDK/GD32VW55x_RELEASE_V1.0.2/MSDK/cloud/alicloud/src/protocol/alcs\alcs_server.c ****     return add_svr_key(ctx, keyprefix, secret, 0, priority);
 1638              		.loc 1 297 5
 1639 0016 97000000 		call	HAL_Printf
 1639      E7800000 
 1640              	.LVL179:
 297:C:/Users/stapi/OneDrive/Desktop/GD32VW553/V1_MQTT_OK/GD32VW55X_Wifi_BLE_SDK/GD32VW55x_RELEASE_V1.0.2/MSDK/cloud/alicloud/src/protocol/alcs\alcs_server.c ****     return add_svr_key(ctx, keyprefix, secret, 0, priority);
 1641              		.loc 1 297 5 is_stmt 1
 1642 001e 37050000 		lui	a0,%hi(.LC28)
 1643 0022 D685     		mv	a1,s5
 1644 0024 13050500 		addi	a0,a0,%lo(.LC28)
 1645 0028 97000000 		call	HAL_Printf
 1645      E7800000 
 1646              	.LVL180:
 297:C:/Users/stapi/OneDrive/Desktop/GD32VW553/V1_MQTT_OK/GD32VW55X_Wifi_BLE_SDK/GD32VW55x_RELEASE_V1.0.2/MSDK/cloud/alicloud/src/protocol/alcs\alcs_server.c ****     return add_svr_key(ctx, keyprefix, secret, 0, priority);
 1647              		.loc 1 297 5
 1648 0030 B7040000 		lui	s1,%hi(.LC2)
 1649 0034 13850400 		addi	a0,s1,%lo(.LC2)
 1650 0038 97000000 		call	HAL_Printf
 1650      E7800000 
 1651              	.LVL181:
 297:C:/Users/stapi/OneDrive/Desktop/GD32VW553/V1_MQTT_OK/GD32VW55X_Wifi_BLE_SDK/GD32VW55x_RELEASE_V1.0.2/MSDK/cloud/alicloud/src/protocol/alcs\alcs_server.c ****     return add_svr_key(ctx, keyprefix, secret, 0, priority);
 1652              		.loc 1 297 5
 298:C:/Users/stapi/OneDrive/Desktop/GD32VW553/V1_MQTT_OK/GD32VW55X_Wifi_BLE_SDK/GD32VW55x_RELEASE_V1.0.2/MSDK/cloud/alicloud/src/protocol/alcs\alcs_server.c **** }
 1653              		.loc 1 298 5
 1654              	.LBB74:
 1655              	.LBB75:
 247:C:/Users/stapi/OneDrive/Desktop/GD32VW553/V1_MQTT_OK/GD32VW55X_Wifi_BLE_SDK/GD32VW55x_RELEASE_V1.0.2/MSDK/cloud/alicloud/src/protocol/alcs\alcs_server.c **** 
 1656              		.loc 1 247 5
 247:C:/Users/stapi/OneDrive/Desktop/GD32VW553/V1_MQTT_OK/GD32VW55X_Wifi_BLE_SDK/GD32VW55x_RELEASE_V1.0.2/MSDK/cloud/alicloud/src/protocol/alcs\alcs_server.c **** 
 1657              		.loc 1 247 5
 1658 0040 13050900 		addi	a0,s2,%lo(.LC3)
 1659 0044 97000000 		call	HAL_Printf
 1659      E7800000 
 1660              	.LVL182:
 247:C:/Users/stapi/OneDrive/Desktop/GD32VW553/V1_MQTT_OK/GD32VW55X_Wifi_BLE_SDK/GD32VW55x_RELEASE_V1.0.2/MSDK/cloud/alicloud/src/protocol/alcs\alcs_server.c **** 
 1661              		.loc 1 247 5
 1662 004c 37050000 		lui	a0,%hi(.LC29)
 1663 0050 DA85     		mv	a1,s6
 1664 0052 13050500 		addi	a0,a0,%lo(.LC29)
 1665 0056 97000000 		call	HAL_Printf
 1665      E7800000 
 1666              	.LVL183:
 247:C:/Users/stapi/OneDrive/Desktop/GD32VW553/V1_MQTT_OK/GD32VW55X_Wifi_BLE_SDK/GD32VW55x_RELEASE_V1.0.2/MSDK/cloud/alicloud/src/protocol/alcs\alcs_server.c **** 
 1667              		.loc 1 247 5
 1668 005e 13850400 		addi	a0,s1,%lo(.LC2)
 1669 0062 97000000 		call	HAL_Printf
 1669      E7800000 
 1670              	.LVL184:
 247:C:/Users/stapi/OneDrive/Desktop/GD32VW553/V1_MQTT_OK/GD32VW55X_Wifi_BLE_SDK/GD32VW55x_RELEASE_V1.0.2/MSDK/cloud/alicloud/src/protocol/alcs\alcs_server.c **** 
 1671              		.loc 1 247 5
 249:C:/Users/stapi/OneDrive/Desktop/GD32VW553/V1_MQTT_OK/GD32VW55X_Wifi_BLE_SDK/GD32VW55x_RELEASE_V1.0.2/MSDK/cloud/alicloud/src/protocol/alcs\alcs_server.c ****     if (!lst || lst->svr_count >= KEY_MAXCOUNT || strlen(keyprefix) != KEYPREFIX_LEN) {
 1672              		.loc 1 249 5
 250:C:/Users/stapi/OneDrive/Desktop/GD32VW553/V1_MQTT_OK/GD32VW55X_Wifi_BLE_SDK/GD32VW55x_RELEASE_V1.0.2/MSDK/cloud/alicloud/src/protocol/alcs\alcs_server.c ****         return COAP_ERROR_INVALID_LENGTH;
 1673              		.loc 1 250 5
 250:C:/Users/stapi/OneDrive/Desktop/GD32VW553/V1_MQTT_OK/GD32VW55X_Wifi_BLE_SDK/GD32VW55x_RELEASE_V1.0.2/MSDK/cloud/alicloud/src/protocol/alcs\alcs_server.c ****         return COAP_ERROR_INVALID_LENGTH;
 1674              		.loc 1 250 20 is_stmt 0
 1675 006a 37040000 		lui	s0,%hi(_device)
 1676 006e 93070400 		addi	a5,s0,%lo(_device)
 250:C:/Users/stapi/OneDrive/Desktop/GD32VW553/V1_MQTT_OK/GD32VW55X_Wifi_BLE_SDK/GD32VW55x_RELEASE_V1.0.2/MSDK/cloud/alicloud/src/protocol/alcs\alcs_server.c ****         return COAP_ERROR_INVALID_LENGTH;
 1677              		.loc 1 250 14
 1678 0072 83C64701 		lbu	a3,20(a5)
 1679 0076 2547     		li	a4,9
 251:C:/Users/stapi/OneDrive/Desktop/GD32VW553/V1_MQTT_OK/GD32VW55X_Wifi_BLE_SDK/GD32VW55x_RELEASE_V1.0.2/MSDK/cloud/alicloud/src/protocol/alcs\alcs_server.c ****     }
 1680              		.loc 1 251 16
 1681 0078 93074010 		li	a5,260
 250:C:/Users/stapi/OneDrive/Desktop/GD32VW553/V1_MQTT_OK/GD32VW55X_Wifi_BLE_SDK/GD32VW55x_RELEASE_V1.0.2/MSDK/cloud/alicloud/src/protocol/alcs\alcs_server.c ****         return COAP_ERROR_INVALID_LENGTH;
 1682              		.loc 1 250 14
 1683 007c 6360D720 		bgtu	a3,a4,.L76
 250:C:/Users/stapi/OneDrive/Desktop/GD32VW553/V1_MQTT_OK/GD32VW55X_Wifi_BLE_SDK/GD32VW55x_RELEASE_V1.0.2/MSDK/cloud/alicloud/src/protocol/alcs\alcs_server.c ****         return COAP_ERROR_INVALID_LENGTH;
 1684              		.loc 1 250 51
 1685 0080 5A85     		mv	a0,s6
 1686 0082 97000000 		call	strlen
 1686      E7800000 
 1687              	.LVL185:
 250:C:/Users/stapi/OneDrive/Desktop/GD32VW553/V1_MQTT_OK/GD32VW55X_Wifi_BLE_SDK/GD32VW55x_RELEASE_V1.0.2/MSDK/cloud/alicloud/src/protocol/alcs\alcs_server.c ****         return COAP_ERROR_INVALID_LENGTH;
 1688              		.loc 1 250 48
 1689 008a 2147     		li	a4,8
 251:C:/Users/stapi/OneDrive/Desktop/GD32VW553/V1_MQTT_OK/GD32VW55X_Wifi_BLE_SDK/GD32VW55x_RELEASE_V1.0.2/MSDK/cloud/alicloud/src/protocol/alcs\alcs_server.c ****     }
 1690              		.loc 1 251 16
 1691 008c 93074010 		li	a5,260
 250:C:/Users/stapi/OneDrive/Desktop/GD32VW553/V1_MQTT_OK/GD32VW55X_Wifi_BLE_SDK/GD32VW55x_RELEASE_V1.0.2/MSDK/cloud/alicloud/src/protocol/alcs\alcs_server.c ****         return COAP_ERROR_INVALID_LENGTH;
 1692              		.loc 1 250 48
 1693 0090 6316E51E 		bne	a0,a4,.L76
 253:C:/Users/stapi/OneDrive/Desktop/GD32VW553/V1_MQTT_OK/GD32VW55X_Wifi_BLE_SDK/GD32VW55x_RELEASE_V1.0.2/MSDK/cloud/alicloud/src/protocol/alcs\alcs_server.c ****     alcs_remove_low_priority_key(ctx, priority);
 1694              		.loc 1 253 5
 1695 0094 13050900 		addi	a0,s2,%lo(.LC3)
 1696 0098 97000000 		call	HAL_Printf
 1696      E7800000 
 1697              	.LVL186:
 1698 00a0 37050000 		lui	a0,%hi(.LC30)
 1699 00a4 13050500 		addi	a0,a0,%lo(.LC30)
 1700 00a8 97000000 		call	HAL_Printf
 1700      E7800000 
 1701              	.LVL187:
 1702 00b0 13850400 		addi	a0,s1,%lo(.LC2)
 1703 00b4 97000000 		call	HAL_Printf
 1703      E7800000 
 1704              	.LVL188:
 1705 00bc 13040400 		addi	s0,s0,%lo(_device)
 253:C:/Users/stapi/OneDrive/Desktop/GD32VW553/V1_MQTT_OK/GD32VW55X_Wifi_BLE_SDK/GD32VW55x_RELEASE_V1.0.2/MSDK/cloud/alicloud/src/protocol/alcs\alcs_server.c ****     alcs_remove_low_priority_key(ctx, priority);
 1706              		.loc 1 253 5 is_stmt 1
 253:C:/Users/stapi/OneDrive/Desktop/GD32VW553/V1_MQTT_OK/GD32VW55X_Wifi_BLE_SDK/GD32VW55x_RELEASE_V1.0.2/MSDK/cloud/alicloud/src/protocol/alcs\alcs_server.c ****     alcs_remove_low_priority_key(ctx, priority);
 1707              		.loc 1 253 5
 253:C:/Users/stapi/OneDrive/Desktop/GD32VW553/V1_MQTT_OK/GD32VW55X_Wifi_BLE_SDK/GD32VW55x_RELEASE_V1.0.2/MSDK/cloud/alicloud/src/protocol/alcs\alcs_server.c ****     alcs_remove_low_priority_key(ctx, priority);
 1708              		.loc 1 253 5
 253:C:/Users/stapi/OneDrive/Desktop/GD32VW553/V1_MQTT_OK/GD32VW55X_Wifi_BLE_SDK/GD32VW55x_RELEASE_V1.0.2/MSDK/cloud/alicloud/src/protocol/alcs\alcs_server.c ****     alcs_remove_low_priority_key(ctx, priority);
 1709              		.loc 1 253 5
 253:C:/Users/stapi/OneDrive/Desktop/GD32VW553/V1_MQTT_OK/GD32VW55X_Wifi_BLE_SDK/GD32VW55x_RELEASE_V1.0.2/MSDK/cloud/alicloud/src/protocol/alcs\alcs_server.c ****     alcs_remove_low_priority_key(ctx, priority);
 1710              		.loc 1 253 5
 254:C:/Users/stapi/OneDrive/Desktop/GD32VW553/V1_MQTT_OK/GD32VW55X_Wifi_BLE_SDK/GD32VW55x_RELEASE_V1.0.2/MSDK/cloud/alicloud/src/protocol/alcs\alcs_server.c ****     COAP_INFO ("add_svr_key 2 ");
 1711              		.loc 1 254 5
 1712              	.LVL189:
 1713              	.LBB76:
 1714              	.LBB77:
 219:C:/Users/stapi/OneDrive/Desktop/GD32VW553/V1_MQTT_OK/GD32VW55X_Wifi_BLE_SDK/GD32VW55x_RELEASE_V1.0.2/MSDK/cloud/alicloud/src/protocol/alcs\alcs_server.c ****     if (!lst) {
 1715              		.loc 1 219 5
 220:C:/Users/stapi/OneDrive/Desktop/GD32VW553/V1_MQTT_OK/GD32VW55X_Wifi_BLE_SDK/GD32VW55x_RELEASE_V1.0.2/MSDK/cloud/alicloud/src/protocol/alcs\alcs_server.c ****         return COAP_ERROR_NULL;
 1716              		.loc 1 220 5
 223:C:/Users/stapi/OneDrive/Desktop/GD32VW553/V1_MQTT_OK/GD32VW55X_Wifi_BLE_SDK/GD32VW55x_RELEASE_V1.0.2/MSDK/cloud/alicloud/src/protocol/alcs\alcs_server.c ****     HAL_MutexLock(lst->list_mutex);
 1717              		.loc 1 223 5
 224:C:/Users/stapi/OneDrive/Desktop/GD32VW553/V1_MQTT_OK/GD32VW55X_Wifi_BLE_SDK/GD32VW55x_RELEASE_V1.0.2/MSDK/cloud/alicloud/src/protocol/alcs\alcs_server.c ****   COAP_INFO("alcs_remove_low_priority_key 2_0: %p:%p", lst->lst_svr.next, lst->lst_svr.prev);
 1718              		.loc 1 224 5
 1719 00c0 0844     		lw	a0,8(s0)
 226:C:/Users/stapi/OneDrive/Desktop/GD32VW553/V1_MQTT_OK/GD32VW55X_Wifi_BLE_SDK/GD32VW55x_RELEASE_V1.0.2/MSDK/cloud/alicloud/src/protocol/alcs\alcs_server.c ****      COAP_INFO("alcs_remove_low_priority_key 2_00");
 1720              		.loc 1 226 8 is_stmt 0
 1721 00c2 370A0000 		lui	s4,%hi(_device+12)
 1722 00c6 130ACA00 		addi	s4,s4,%lo(_device+12)
 224:C:/Users/stapi/OneDrive/Desktop/GD32VW553/V1_MQTT_OK/GD32VW55X_Wifi_BLE_SDK/GD32VW55x_RELEASE_V1.0.2/MSDK/cloud/alicloud/src/protocol/alcs\alcs_server.c ****   COAP_INFO("alcs_remove_low_priority_key 2_0: %p:%p", lst->lst_svr.next, lst->lst_svr.prev);
 1723              		.loc 1 224 5
 1724 00ca 97000000 		call	HAL_MutexLock
 1724      E7800000 
 1725              	.LVL190:
 225:C:/Users/stapi/OneDrive/Desktop/GD32VW553/V1_MQTT_OK/GD32VW55X_Wifi_BLE_SDK/GD32VW55x_RELEASE_V1.0.2/MSDK/cloud/alicloud/src/protocol/alcs\alcs_server.c ****     if (!list_empty(&lst->lst_svr)) {
 1726              		.loc 1 225 3 is_stmt 1
 225:C:/Users/stapi/OneDrive/Desktop/GD32VW553/V1_MQTT_OK/GD32VW55X_Wifi_BLE_SDK/GD32VW55x_RELEASE_V1.0.2/MSDK/cloud/alicloud/src/protocol/alcs\alcs_server.c ****     if (!list_empty(&lst->lst_svr)) {
 1727              		.loc 1 225 3
 1728 00d2 13050900 		addi	a0,s2,%lo(.LC3)
 1729 00d6 97000000 		call	HAL_Printf
 1729      E7800000 
 1730              	.LVL191:
 225:C:/Users/stapi/OneDrive/Desktop/GD32VW553/V1_MQTT_OK/GD32VW55X_Wifi_BLE_SDK/GD32VW55x_RELEASE_V1.0.2/MSDK/cloud/alicloud/src/protocol/alcs\alcs_server.c ****     if (!list_empty(&lst->lst_svr)) {
 1731              		.loc 1 225 3
 1732 00de 5044     		lw	a2,12(s0)
 1733 00e0 0C48     		lw	a1,16(s0)
 1734 00e2 37050000 		lui	a0,%hi(.LC31)
 1735 00e6 13050500 		addi	a0,a0,%lo(.LC31)
 1736 00ea 97000000 		call	HAL_Printf
 1736      E7800000 
 1737              	.LVL192:
 225:C:/Users/stapi/OneDrive/Desktop/GD32VW553/V1_MQTT_OK/GD32VW55X_Wifi_BLE_SDK/GD32VW55x_RELEASE_V1.0.2/MSDK/cloud/alicloud/src/protocol/alcs\alcs_server.c ****     if (!list_empty(&lst->lst_svr)) {
 1738              		.loc 1 225 3
 1739 00f2 13850400 		addi	a0,s1,%lo(.LC2)
 1740 00f6 97000000 		call	HAL_Printf
 1740      E7800000 
 1741              	.LVL193:
 225:C:/Users/stapi/OneDrive/Desktop/GD32VW553/V1_MQTT_OK/GD32VW55X_Wifi_BLE_SDK/GD32VW55x_RELEASE_V1.0.2/MSDK/cloud/alicloud/src/protocol/alcs\alcs_server.c ****     if (!list_empty(&lst->lst_svr)) {
 1742              		.loc 1 225 3
 226:C:/Users/stapi/OneDrive/Desktop/GD32VW553/V1_MQTT_OK/GD32VW55X_Wifi_BLE_SDK/GD32VW55x_RELEASE_V1.0.2/MSDK/cloud/alicloud/src/protocol/alcs\alcs_server.c ****      COAP_INFO("alcs_remove_low_priority_key 2_00");
 1743              		.loc 1 226 5
 1744              	.LBB78:
 1745              	.LBB79:
 1746              		.loc 2 88 5
 1747              	.LBE79:
 1748              	.LBE78:
 226:C:/Users/stapi/OneDrive/Desktop/GD32VW553/V1_MQTT_OK/GD32VW55X_Wifi_BLE_SDK/GD32VW55x_RELEASE_V1.0.2/MSDK/cloud/alicloud/src/protocol/alcs\alcs_server.c ****      COAP_INFO("alcs_remove_low_priority_key 2_00");
 1749              		.loc 1 226 8 is_stmt 0
 1750 00fe 1C48     		lw	a5,16(s0)
 1751 0100 6392470D 		bne	a5,s4,.L78
 1752              	.LVL194:
 1753              	.L83:
 238:C:/Users/stapi/OneDrive/Desktop/GD32VW553/V1_MQTT_OK/GD32VW55X_Wifi_BLE_SDK/GD32VW55x_RELEASE_V1.0.2/MSDK/cloud/alicloud/src/protocol/alcs\alcs_server.c ****     HAL_MutexUnlock(lst->list_mutex);
 1754              		.loc 1 238 3 is_stmt 1
 238:C:/Users/stapi/OneDrive/Desktop/GD32VW553/V1_MQTT_OK/GD32VW55X_Wifi_BLE_SDK/GD32VW55x_RELEASE_V1.0.2/MSDK/cloud/alicloud/src/protocol/alcs\alcs_server.c ****     HAL_MutexUnlock(lst->list_mutex);
 1755              		.loc 1 238 3
 1756 0104 13050900 		addi	a0,s2,%lo(.LC3)
 1757 0108 97000000 		call	HAL_Printf
 1757      E7800000 
 1758              	.LVL195:
 238:C:/Users/stapi/OneDrive/Desktop/GD32VW553/V1_MQTT_OK/GD32VW55X_Wifi_BLE_SDK/GD32VW55x_RELEASE_V1.0.2/MSDK/cloud/alicloud/src/protocol/alcs\alcs_server.c ****     HAL_MutexUnlock(lst->list_mutex);
 1759              		.loc 1 238 3
 1760 0110 37050000 		lui	a0,%hi(.LC32)
 1761 0114 13050500 		addi	a0,a0,%lo(.LC32)
 1762 0118 97000000 		call	HAL_Printf
 1762      E7800000 
 1763              	.LVL196:
 238:C:/Users/stapi/OneDrive/Desktop/GD32VW553/V1_MQTT_OK/GD32VW55X_Wifi_BLE_SDK/GD32VW55x_RELEASE_V1.0.2/MSDK/cloud/alicloud/src/protocol/alcs\alcs_server.c ****     HAL_MutexUnlock(lst->list_mutex);
 1764              		.loc 1 238 3
 1765 0120 13850400 		addi	a0,s1,%lo(.LC2)
 1766 0124 97000000 		call	HAL_Printf
 1766      E7800000 
 1767              	.LVL197:
 238:C:/Users/stapi/OneDrive/Desktop/GD32VW553/V1_MQTT_OK/GD32VW55X_Wifi_BLE_SDK/GD32VW55x_RELEASE_V1.0.2/MSDK/cloud/alicloud/src/protocol/alcs\alcs_server.c ****     HAL_MutexUnlock(lst->list_mutex);
 1768              		.loc 1 238 3
 239:C:/Users/stapi/OneDrive/Desktop/GD32VW553/V1_MQTT_OK/GD32VW55X_Wifi_BLE_SDK/GD32VW55x_RELEASE_V1.0.2/MSDK/cloud/alicloud/src/protocol/alcs\alcs_server.c **** 
 1769              		.loc 1 239 5
 1770 012c 0844     		lw	a0,8(s0)
 1771 012e 97000000 		call	HAL_MutexUnlock
 1771      E7800000 
 1772              	.LVL198:
 241:C:/Users/stapi/OneDrive/Desktop/GD32VW553/V1_MQTT_OK/GD32VW55X_Wifi_BLE_SDK/GD32VW55x_RELEASE_V1.0.2/MSDK/cloud/alicloud/src/protocol/alcs\alcs_server.c **** }
 1773              		.loc 1 241 5
 1774              	.LBE77:
 1775              	.LBE76:
 255:C:/Users/stapi/OneDrive/Desktop/GD32VW553/V1_MQTT_OK/GD32VW55X_Wifi_BLE_SDK/GD32VW55x_RELEASE_V1.0.2/MSDK/cloud/alicloud/src/protocol/alcs\alcs_server.c ****     HAL_MutexLock(lst->list_mutex);
 1776              		.loc 1 255 5
 255:C:/Users/stapi/OneDrive/Desktop/GD32VW553/V1_MQTT_OK/GD32VW55X_Wifi_BLE_SDK/GD32VW55x_RELEASE_V1.0.2/MSDK/cloud/alicloud/src/protocol/alcs\alcs_server.c ****     HAL_MutexLock(lst->list_mutex);
 1777              		.loc 1 255 5
 1778 0136 13050900 		addi	a0,s2,%lo(.LC3)
 1779 013a 97000000 		call	HAL_Printf
 1779      E7800000 
 1780              	.LVL199:
 255:C:/Users/stapi/OneDrive/Desktop/GD32VW553/V1_MQTT_OK/GD32VW55X_Wifi_BLE_SDK/GD32VW55x_RELEASE_V1.0.2/MSDK/cloud/alicloud/src/protocol/alcs\alcs_server.c ****     HAL_MutexLock(lst->list_mutex);
 1781              		.loc 1 255 5
 1782 0142 37050000 		lui	a0,%hi(.LC33)
 1783 0146 13050500 		addi	a0,a0,%lo(.LC33)
 1784 014a 97000000 		call	HAL_Printf
 1784      E7800000 
 1785              	.LVL200:
 255:C:/Users/stapi/OneDrive/Desktop/GD32VW553/V1_MQTT_OK/GD32VW55X_Wifi_BLE_SDK/GD32VW55x_RELEASE_V1.0.2/MSDK/cloud/alicloud/src/protocol/alcs\alcs_server.c ****     HAL_MutexLock(lst->list_mutex);
 1786              		.loc 1 255 5
 1787 0152 13850400 		addi	a0,s1,%lo(.LC2)
 1788 0156 97000000 		call	HAL_Printf
 1788      E7800000 
 1789              	.LVL201:
 255:C:/Users/stapi/OneDrive/Desktop/GD32VW553/V1_MQTT_OK/GD32VW55X_Wifi_BLE_SDK/GD32VW55x_RELEASE_V1.0.2/MSDK/cloud/alicloud/src/protocol/alcs\alcs_server.c ****     HAL_MutexLock(lst->list_mutex);
 1790              		.loc 1 255 5
 256:C:/Users/stapi/OneDrive/Desktop/GD32VW553/V1_MQTT_OK/GD32VW55X_Wifi_BLE_SDK/GD32VW55x_RELEASE_V1.0.2/MSDK/cloud/alicloud/src/protocol/alcs\alcs_server.c ****     svr_key_item *node = NULL, *next = NULL;
 1791              		.loc 1 256 5
 1792 015e 0844     		lw	a0,8(s0)
 1793 0160 97000000 		call	HAL_MutexLock
 1793      E7800000 
 1794              	.LVL202:
 257:C:/Users/stapi/OneDrive/Desktop/GD32VW553/V1_MQTT_OK/GD32VW55X_Wifi_BLE_SDK/GD32VW55x_RELEASE_V1.0.2/MSDK/cloud/alicloud/src/protocol/alcs\alcs_server.c ****     list_for_each_entry_safe(node, next, &lst->lst_svr, lst, svr_key_item) {
 1795              		.loc 1 257 5
 258:C:/Users/stapi/OneDrive/Desktop/GD32VW553/V1_MQTT_OK/GD32VW55X_Wifi_BLE_SDK/GD32VW55x_RELEASE_V1.0.2/MSDK/cloud/alicloud/src/protocol/alcs\alcs_server.c ****         if (node->keyInfo.priority > priority) {
 1796              		.loc 1 258 5
 1797 0168 1C48     		lw	a5,16(s0)
 1798 016a 1387C7FE 		addi	a4,a5,-20
 1799              	.LVL203:
 1800 016e DC43     		lw	a5,4(a5)
 1801 0170 B117     		addi	a5,a5,-20
 1802              	.LVL204:
 1803              	.L79:
 258:C:/Users/stapi/OneDrive/Desktop/GD32VW553/V1_MQTT_OK/GD32VW55X_Wifi_BLE_SDK/GD32VW55x_RELEASE_V1.0.2/MSDK/cloud/alicloud/src/protocol/alcs\alcs_server.c ****         if (node->keyInfo.priority > priority) {
 1804              		.loc 1 258 5
 1805 0172 93064701 		addi	a3,a4,20
 1806 0176 6399460F 		bne	a3,s4,.L85
 265:C:/Users/stapi/OneDrive/Desktop/GD32VW553/V1_MQTT_OK/GD32VW55X_Wifi_BLE_SDK/GD32VW55x_RELEASE_V1.0.2/MSDK/cloud/alicloud/src/protocol/alcs\alcs_server.c ****     svr_key_item *item = (svr_key_item *) coap_malloc(sizeof(svr_key_item));
 1807              		.loc 1 265 5
 265:C:/Users/stapi/OneDrive/Desktop/GD32VW553/V1_MQTT_OK/GD32VW55X_Wifi_BLE_SDK/GD32VW55x_RELEASE_V1.0.2/MSDK/cloud/alicloud/src/protocol/alcs\alcs_server.c ****     svr_key_item *item = (svr_key_item *) coap_malloc(sizeof(svr_key_item));
 1808              		.loc 1 265 5
 1809 017a 13050900 		addi	a0,s2,%lo(.LC3)
 1810 017e 97000000 		call	HAL_Printf
 1810      E7800000 
 1811              	.LVL205:
 265:C:/Users/stapi/OneDrive/Desktop/GD32VW553/V1_MQTT_OK/GD32VW55X_Wifi_BLE_SDK/GD32VW55x_RELEASE_V1.0.2/MSDK/cloud/alicloud/src/protocol/alcs\alcs_server.c ****     svr_key_item *item = (svr_key_item *) coap_malloc(sizeof(svr_key_item));
 1812              		.loc 1 265 5
 1813 0186 37050000 		lui	a0,%hi(.LC36)
 1814 018a 13050500 		addi	a0,a0,%lo(.LC36)
 1815 018e 97000000 		call	HAL_Printf
 1815      E7800000 
 1816              	.LVL206:
 265:C:/Users/stapi/OneDrive/Desktop/GD32VW553/V1_MQTT_OK/GD32VW55X_Wifi_BLE_SDK/GD32VW55x_RELEASE_V1.0.2/MSDK/cloud/alicloud/src/protocol/alcs\alcs_server.c ****     svr_key_item *item = (svr_key_item *) coap_malloc(sizeof(svr_key_item));
 1817              		.loc 1 265 5
 1818 0196 13850400 		addi	a0,s1,%lo(.LC2)
 1819 019a 97000000 		call	HAL_Printf
 1819      E7800000 
 1820              	.LVL207:
 265:C:/Users/stapi/OneDrive/Desktop/GD32VW553/V1_MQTT_OK/GD32VW55X_Wifi_BLE_SDK/GD32VW55x_RELEASE_V1.0.2/MSDK/cloud/alicloud/src/protocol/alcs\alcs_server.c ****     svr_key_item *item = (svr_key_item *) coap_malloc(sizeof(svr_key_item));
 1821              		.loc 1 265 5
 266:C:/Users/stapi/OneDrive/Desktop/GD32VW553/V1_MQTT_OK/GD32VW55X_Wifi_BLE_SDK/GD32VW55x_RELEASE_V1.0.2/MSDK/cloud/alicloud/src/protocol/alcs\alcs_server.c ****     if (!item) {
 1822              		.loc 1 266 5
 266:C:/Users/stapi/OneDrive/Desktop/GD32VW553/V1_MQTT_OK/GD32VW55X_Wifi_BLE_SDK/GD32VW55x_RELEASE_V1.0.2/MSDK/cloud/alicloud/src/protocol/alcs\alcs_server.c ****     if (!item) {
 1823              		.loc 1 266 43 is_stmt 0
 1824 01a2 7146     		li	a2,28
 1825 01a4 8145     		li	a1,0
 1826 01a6 0145     		li	a0,0
 1827 01a8 97000000 		call	LITE_malloc_internal
 1827      E7800000 
 1828              	.LVL208:
 1829 01b0 AA89     		mv	s3,a0
 1830              	.LVL209:
 267:C:/Users/stapi/OneDrive/Desktop/GD32VW553/V1_MQTT_OK/GD32VW55X_Wifi_BLE_SDK/GD32VW55x_RELEASE_V1.0.2/MSDK/cloud/alicloud/src/protocol/alcs\alcs_server.c ****         HAL_MutexUnlock(lst->list_mutex);
 1831              		.loc 1 267 5 is_stmt 1
 267:C:/Users/stapi/OneDrive/Desktop/GD32VW553/V1_MQTT_OK/GD32VW55X_Wifi_BLE_SDK/GD32VW55x_RELEASE_V1.0.2/MSDK/cloud/alicloud/src/protocol/alcs\alcs_server.c ****         HAL_MutexUnlock(lst->list_mutex);
 1832              		.loc 1 267 8 is_stmt 0
 1833 01b2 79ED     		bne	a0,zero,.L86
 268:C:/Users/stapi/OneDrive/Desktop/GD32VW553/V1_MQTT_OK/GD32VW55X_Wifi_BLE_SDK/GD32VW55x_RELEASE_V1.0.2/MSDK/cloud/alicloud/src/protocol/alcs\alcs_server.c ****         return COAP_ERROR_MALLOC;
 1834              		.loc 1 268 9 is_stmt 1
 1835 01b4 0844     		lw	a0,8(s0)
 1836              	.LVL210:
 1837 01b6 97000000 		call	HAL_MutexUnlock
 1837      E7800000 
 1838              	.LVL211:
 269:C:/Users/stapi/OneDrive/Desktop/GD32VW553/V1_MQTT_OK/GD32VW55X_Wifi_BLE_SDK/GD32VW55x_RELEASE_V1.0.2/MSDK/cloud/alicloud/src/protocol/alcs\alcs_server.c ****     }
 1839              		.loc 1 269 9
 1840              	.L91:
 277:C:/Users/stapi/OneDrive/Desktop/GD32VW553/V1_MQTT_OK/GD32VW55X_Wifi_BLE_SDK/GD32VW55x_RELEASE_V1.0.2/MSDK/cloud/alicloud/src/protocol/alcs\alcs_server.c ****     }
 1841              		.loc 1 277 9
 277:C:/Users/stapi/OneDrive/Desktop/GD32VW553/V1_MQTT_OK/GD32VW55X_Wifi_BLE_SDK/GD32VW55x_RELEASE_V1.0.2/MSDK/cloud/alicloud/src/protocol/alcs\alcs_server.c ****     }
 1842              		.loc 1 277 16 is_stmt 0
 1843 01be 93073010 		li	a5,259
 1844 01c2 6DA8     		j	.L76
 1845              	.LVL212:
 1846              	.L78:
 1847              	.LBB85:
 1848              	.LBB84:
 227:C:/Users/stapi/OneDrive/Desktop/GD32VW553/V1_MQTT_OK/GD32VW55X_Wifi_BLE_SDK/GD32VW55x_RELEASE_V1.0.2/MSDK/cloud/alicloud/src/protocol/alcs\alcs_server.c ****     list_for_each_entry_safe(node, next, &lst->lst_svr, lst, svr_key_item) {
 1849              		.loc 1 227 6 is_stmt 1
 227:C:/Users/stapi/OneDrive/Desktop/GD32VW553/V1_MQTT_OK/GD32VW55X_Wifi_BLE_SDK/GD32VW55x_RELEASE_V1.0.2/MSDK/cloud/alicloud/src/protocol/alcs\alcs_server.c ****     list_for_each_entry_safe(node, next, &lst->lst_svr, lst, svr_key_item) {
 1850              		.loc 1 227 6
 1851 01c4 13050900 		addi	a0,s2,%lo(.LC3)
 1852 01c8 97000000 		call	HAL_Printf
 1852      E7800000 
 1853              	.LVL213:
 227:C:/Users/stapi/OneDrive/Desktop/GD32VW553/V1_MQTT_OK/GD32VW55X_Wifi_BLE_SDK/GD32VW55x_RELEASE_V1.0.2/MSDK/cloud/alicloud/src/protocol/alcs\alcs_server.c ****     list_for_each_entry_safe(node, next, &lst->lst_svr, lst, svr_key_item) {
 1854              		.loc 1 227 6
 1855 01d0 37050000 		lui	a0,%hi(.LC34)
 1856 01d4 13050500 		addi	a0,a0,%lo(.LC34)
 1857 01d8 97000000 		call	HAL_Printf
 1857      E7800000 
 1858              	.LVL214:
 227:C:/Users/stapi/OneDrive/Desktop/GD32VW553/V1_MQTT_OK/GD32VW55X_Wifi_BLE_SDK/GD32VW55x_RELEASE_V1.0.2/MSDK/cloud/alicloud/src/protocol/alcs\alcs_server.c ****     list_for_each_entry_safe(node, next, &lst->lst_svr, lst, svr_key_item) {
 1859              		.loc 1 227 6
 1860 01e0 13850400 		addi	a0,s1,%lo(.LC2)
 1861 01e4 97000000 		call	HAL_Printf
 1861      E7800000 
 1862              	.LVL215:
 227:C:/Users/stapi/OneDrive/Desktop/GD32VW553/V1_MQTT_OK/GD32VW55X_Wifi_BLE_SDK/GD32VW55x_RELEASE_V1.0.2/MSDK/cloud/alicloud/src/protocol/alcs\alcs_server.c ****     list_for_each_entry_safe(node, next, &lst->lst_svr, lst, svr_key_item) {
 1863              		.loc 1 227 6
 228:C:/Users/stapi/OneDrive/Desktop/GD32VW553/V1_MQTT_OK/GD32VW55X_Wifi_BLE_SDK/GD32VW55x_RELEASE_V1.0.2/MSDK/cloud/alicloud/src/protocol/alcs\alcs_server.c ****   COAP_INFO("alcs_remove_low_priority_key 2_1");
 1864              		.loc 1 228 5
 1865 01ec 1C48     		lw	a5,16(s0)
 229:C:/Users/stapi/OneDrive/Desktop/GD32VW553/V1_MQTT_OK/GD32VW55X_Wifi_BLE_SDK/GD32VW55x_RELEASE_V1.0.2/MSDK/cloud/alicloud/src/protocol/alcs\alcs_server.c ****         if (node->keyInfo.priority < priority) {
 1866              		.loc 1 229 3 is_stmt 0
 1867 01ee B70C0000 		lui	s9,%hi(.LC35)
 228:C:/Users/stapi/OneDrive/Desktop/GD32VW553/V1_MQTT_OK/GD32VW55X_Wifi_BLE_SDK/GD32VW55x_RELEASE_V1.0.2/MSDK/cloud/alicloud/src/protocol/alcs\alcs_server.c ****   COAP_INFO("alcs_remove_low_priority_key 2_1");
 1868              		.loc 1 228 5
 1869 01f2 03AC4700 		lw	s8,4(a5)
 1870 01f6 9389C7FE 		addi	s3,a5,-20
 1871              	.LVL216:
 1872 01fa 311C     		addi	s8,s8,-20
 1873              	.LVL217:
 1874              	.L80:
 228:C:/Users/stapi/OneDrive/Desktop/GD32VW553/V1_MQTT_OK/GD32VW55X_Wifi_BLE_SDK/GD32VW55x_RELEASE_V1.0.2/MSDK/cloud/alicloud/src/protocol/alcs\alcs_server.c ****   COAP_INFO("alcs_remove_low_priority_key 2_1");
 1875              		.loc 1 228 5 is_stmt 1
 1876 01fc 93874901 		addi	a5,s3,20
 1877 0200 E38247F1 		beq	a5,s4,.L83
 229:C:/Users/stapi/OneDrive/Desktop/GD32VW553/V1_MQTT_OK/GD32VW55X_Wifi_BLE_SDK/GD32VW55x_RELEASE_V1.0.2/MSDK/cloud/alicloud/src/protocol/alcs\alcs_server.c ****         if (node->keyInfo.priority < priority) {
 1878              		.loc 1 229 3
 229:C:/Users/stapi/OneDrive/Desktop/GD32VW553/V1_MQTT_OK/GD32VW55X_Wifi_BLE_SDK/GD32VW55x_RELEASE_V1.0.2/MSDK/cloud/alicloud/src/protocol/alcs\alcs_server.c ****         if (node->keyInfo.priority < priority) {
 1879              		.loc 1 229 3
 1880 0204 13050900 		addi	a0,s2,%lo(.LC3)
 1881 0208 97000000 		call	HAL_Printf
 1881      E7800000 
 1882              	.LVL218:
 229:C:/Users/stapi/OneDrive/Desktop/GD32VW553/V1_MQTT_OK/GD32VW55X_Wifi_BLE_SDK/GD32VW55x_RELEASE_V1.0.2/MSDK/cloud/alicloud/src/protocol/alcs\alcs_server.c ****         if (node->keyInfo.priority < priority) {
 1883              		.loc 1 229 3
 1884 0210 13850C00 		addi	a0,s9,%lo(.LC35)
 1885 0214 97000000 		call	HAL_Printf
 1885      E7800000 
 1886              	.LVL219:
 229:C:/Users/stapi/OneDrive/Desktop/GD32VW553/V1_MQTT_OK/GD32VW55X_Wifi_BLE_SDK/GD32VW55x_RELEASE_V1.0.2/MSDK/cloud/alicloud/src/protocol/alcs\alcs_server.c ****         if (node->keyInfo.priority < priority) {
 1887              		.loc 1 229 3
 1888 021c 13850400 		addi	a0,s1,%lo(.LC2)
 1889 0220 97000000 		call	HAL_Printf
 1889      E7800000 
 1890              	.LVL220:
 229:C:/Users/stapi/OneDrive/Desktop/GD32VW553/V1_MQTT_OK/GD32VW55X_Wifi_BLE_SDK/GD32VW55x_RELEASE_V1.0.2/MSDK/cloud/alicloud/src/protocol/alcs\alcs_server.c ****         if (node->keyInfo.priority < priority) {
 1891              		.loc 1 229 3
 230:C:/Users/stapi/OneDrive/Desktop/GD32VW553/V1_MQTT_OK/GD32VW55X_Wifi_BLE_SDK/GD32VW55x_RELEASE_V1.0.2/MSDK/cloud/alicloud/src/protocol/alcs\alcs_server.c ****             coap_free(node->keyInfo.secret);
 1892              		.loc 1 230 9
 230:C:/Users/stapi/OneDrive/Desktop/GD32VW553/V1_MQTT_OK/GD32VW55X_Wifi_BLE_SDK/GD32VW55x_RELEASE_V1.0.2/MSDK/cloud/alicloud/src/protocol/alcs\alcs_server.c ****             coap_free(node->keyInfo.secret);
 1893              		.loc 1 230 12 is_stmt 0
 1894 0228 83A70901 		lw	a5,16(s3)
 1895 022c 63F85703 		bleu	s5,a5,.L81
 231:C:/Users/stapi/OneDrive/Desktop/GD32VW553/V1_MQTT_OK/GD32VW55X_Wifi_BLE_SDK/GD32VW55x_RELEASE_V1.0.2/MSDK/cloud/alicloud/src/protocol/alcs\alcs_server.c ****             list_del(&node->lst);
 1896              		.loc 1 231 13 is_stmt 1
 1897 0230 03A5C900 		lw	a0,12(s3)
 1898 0234 97000000 		call	LITE_free_internal
 1898      E7800000 
 1899              	.LVL221:
 232:C:/Users/stapi/OneDrive/Desktop/GD32VW553/V1_MQTT_OK/GD32VW55X_Wifi_BLE_SDK/GD32VW55x_RELEASE_V1.0.2/MSDK/cloud/alicloud/src/protocol/alcs\alcs_server.c ****             coap_free(node);
 1900              		.loc 1 232 13
 1901              	.LBB80:
 1902              	.LBB81:
  68:..\..\..\..\cloud\alicloud\src\infra\utils\misc/lite-list.h ****     dlist_t *next = node->next;
 1903              		.loc 2 68 5
  69:..\..\..\..\cloud\alicloud\src\infra\utils\misc/lite-list.h **** 
 1904              		.loc 2 69 14 is_stmt 0
 1905 023c 83A78901 		lw	a5,24(s3)
  68:..\..\..\..\cloud\alicloud\src\infra\utils\misc/lite-list.h ****     dlist_t *next = node->next;
 1906              		.loc 2 68 14
 1907 0240 03A74901 		lw	a4,20(s3)
 1908              	.LVL222:
  69:..\..\..\..\cloud\alicloud\src\infra\utils\misc/lite-list.h **** 
 1909              		.loc 2 69 5 is_stmt 1
  71:..\..\..\..\cloud\alicloud\src\infra\utils\misc/lite-list.h ****     next->prev = prev;
 1910              		.loc 2 71 5
 1911              	.LBE81:
 1912              	.LBE80:
 233:C:/Users/stapi/OneDrive/Desktop/GD32VW553/V1_MQTT_OK/GD32VW55X_Wifi_BLE_SDK/GD32VW55x_RELEASE_V1.0.2/MSDK/cloud/alicloud/src/protocol/alcs\alcs_server.c ****             --lst->svr_count;
 1913              		.loc 1 233 13 is_stmt 0
 1914 0244 4E85     		mv	a0,s3
 1915              	.LBB83:
 1916              	.LBB82:
  71:..\..\..\..\cloud\alicloud\src\infra\utils\misc/lite-list.h ****     next->prev = prev;
 1917              		.loc 2 71 16
 1918 0246 5CC3     		sw	a5,4(a4)
  72:..\..\..\..\cloud\alicloud\src\infra\utils\misc/lite-list.h **** }
 1919              		.loc 2 72 5 is_stmt 1
  72:..\..\..\..\cloud\alicloud\src\infra\utils\misc/lite-list.h **** }
 1920              		.loc 2 72 16 is_stmt 0
 1921 0248 98C3     		sw	a4,0(a5)
 1922              	.LVL223:
 1923              	.LBE82:
 1924              	.LBE83:
 233:C:/Users/stapi/OneDrive/Desktop/GD32VW553/V1_MQTT_OK/GD32VW55X_Wifi_BLE_SDK/GD32VW55x_RELEASE_V1.0.2/MSDK/cloud/alicloud/src/protocol/alcs\alcs_server.c ****             --lst->svr_count;
 1925              		.loc 1 233 13 is_stmt 1
 1926 024a 97000000 		call	LITE_free_internal
 1926      E7800000 
 1927              	.LVL224:
 234:C:/Users/stapi/OneDrive/Desktop/GD32VW553/V1_MQTT_OK/GD32VW55X_Wifi_BLE_SDK/GD32VW55x_RELEASE_V1.0.2/MSDK/cloud/alicloud/src/protocol/alcs\alcs_server.c ****         }
 1928              		.loc 1 234 13
 1929 0252 83474401 		lbu	a5,20(s0)
 1930 0256 FD17     		addi	a5,a5,-1
 1931 0258 230AF400 		sb	a5,20(s0)
 1932              	.L81:
 228:C:/Users/stapi/OneDrive/Desktop/GD32VW553/V1_MQTT_OK/GD32VW55X_Wifi_BLE_SDK/GD32VW55x_RELEASE_V1.0.2/MSDK/cloud/alicloud/src/protocol/alcs\alcs_server.c ****   COAP_INFO("alcs_remove_low_priority_key 2_1");
 1933              		.loc 1 228 5
 1934              	.LVL225:
 1935 025c 83278C01 		lw	a5,24(s8)
 1936              	.LVL226:
 1937 0260 E289     		mv	s3,s8
 1938 0262 138CC7FE 		addi	s8,a5,-20
 1939              	.LVL227:
 1940 0266 59BF     		j	.L80
 1941              	.LVL228:
 1942              	.L85:
 1943              	.LBE84:
 1944              	.LBE85:
 259:C:/Users/stapi/OneDrive/Desktop/GD32VW553/V1_MQTT_OK/GD32VW55X_Wifi_BLE_SDK/GD32VW55x_RELEASE_V1.0.2/MSDK/cloud/alicloud/src/protocol/alcs\alcs_server.c ****             //find high priority key
 1945              		.loc 1 259 9
 259:C:/Users/stapi/OneDrive/Desktop/GD32VW553/V1_MQTT_OK/GD32VW55X_Wifi_BLE_SDK/GD32VW55x_RELEASE_V1.0.2/MSDK/cloud/alicloud/src/protocol/alcs\alcs_server.c ****             //find high priority key
 1946              		.loc 1 259 12 is_stmt 0
 1947 0268 184B     		lw	a4,16(a4)
 1948              	.LVL229:
 1949 026a 63FEEA00 		bgeu	s5,a4,.L84
 261:C:/Users/stapi/OneDrive/Desktop/GD32VW553/V1_MQTT_OK/GD32VW55X_Wifi_BLE_SDK/GD32VW55x_RELEASE_V1.0.2/MSDK/cloud/alicloud/src/protocol/alcs\alcs_server.c ****             return COAP_ERROR_UNSUPPORTED;
 1950              		.loc 1 261 13 is_stmt 1
 1951 026e 0844     		lw	a0,8(s0)
 1952 0270 97000000 		call	HAL_MutexUnlock
 1952      E7800000 
 1953              	.LVL230:
 262:C:/Users/stapi/OneDrive/Desktop/GD32VW553/V1_MQTT_OK/GD32VW55X_Wifi_BLE_SDK/GD32VW55x_RELEASE_V1.0.2/MSDK/cloud/alicloud/src/protocol/alcs\alcs_server.c ****         }
 1954              		.loc 1 262 13
 262:C:/Users/stapi/OneDrive/Desktop/GD32VW553/V1_MQTT_OK/GD32VW55X_Wifi_BLE_SDK/GD32VW55x_RELEASE_V1.0.2/MSDK/cloud/alicloud/src/protocol/alcs\alcs_server.c ****         }
 1955              		.loc 1 262 20 is_stmt 0
 1956 0278 9307D010 		li	a5,269
 1957              	.LVL231:
 1958              	.L76:
 1959              	.LBE75:
 1960              	.LBE74:
 299:C:/Users/stapi/OneDrive/Desktop/GD32VW553/V1_MQTT_OK/GD32VW55X_Wifi_BLE_SDK/GD32VW55x_RELEASE_V1.0.2/MSDK/cloud/alicloud/src/protocol/alcs\alcs_server.c **** 
 1961              		.loc 1 299 1
 1962 027c 3E85     		mv	a0,a5
 1963 027e 17030000 		tail	__riscv_restore_10
 1963      67000300 
 1964              		.cfi_remember_state
 1965              		.cfi_restore 25
 1966              		.cfi_restore 24
 1967              		.cfi_restore 23
 1968              		.cfi_restore 22
 1969              		.cfi_restore 21
 1970              		.cfi_restore 20
 1971              		.cfi_restore 19
 1972              		.cfi_restore 18
 1973              		.cfi_restore 9
 1974              		.cfi_restore 8
 1975              		.cfi_restore 1
 1976              		.cfi_def_cfa_offset 0
 1977              	.LVL232:
 1978              	.L84:
 1979              		.cfi_restore_state
 1980              	.LBB93:
 1981              	.LBB92:
 258:C:/Users/stapi/OneDrive/Desktop/GD32VW553/V1_MQTT_OK/GD32VW55X_Wifi_BLE_SDK/GD32VW55x_RELEASE_V1.0.2/MSDK/cloud/alicloud/src/protocol/alcs\alcs_server.c ****         if (node->keyInfo.priority > priority) {
 1982              		.loc 1 258 5 is_stmt 1
 1983 0286 944F     		lw	a3,24(a5)
 1984              	.LVL233:
 1985 0288 3E87     		mv	a4,a5
 1986 028a 9387C6FE 		addi	a5,a3,-20
 1987              	.LVL234:
 1988 028e D5B5     		j	.L79
 1989              	.LVL235:
 1990              	.L86:
 271:C:/Users/stapi/OneDrive/Desktop/GD32VW553/V1_MQTT_OK/GD32VW55X_Wifi_BLE_SDK/GD32VW55x_RELEASE_V1.0.2/MSDK/cloud/alicloud/src/protocol/alcs\alcs_server.c ****     memset(item, 0, sizeof(svr_key_item));
 1991              		.loc 1 271 5
 271:C:/Users/stapi/OneDrive/Desktop/GD32VW553/V1_MQTT_OK/GD32VW55X_Wifi_BLE_SDK/GD32VW55x_RELEASE_V1.0.2/MSDK/cloud/alicloud/src/protocol/alcs\alcs_server.c ****     memset(item, 0, sizeof(svr_key_item));
 1992              		.loc 1 271 5
 1993 0290 13050900 		addi	a0,s2,%lo(.LC3)
 1994              	.LVL236:
 1995 0294 97000000 		call	HAL_Printf
 1995      E7800000 
 1996              	.LVL237:
 271:C:/Users/stapi/OneDrive/Desktop/GD32VW553/V1_MQTT_OK/GD32VW55X_Wifi_BLE_SDK/GD32VW55x_RELEASE_V1.0.2/MSDK/cloud/alicloud/src/protocol/alcs\alcs_server.c ****     memset(item, 0, sizeof(svr_key_item));
 1997              		.loc 1 271 5
 1998 029c 37050000 		lui	a0,%hi(.LC37)
 1999 02a0 13050500 		addi	a0,a0,%lo(.LC37)
 2000 02a4 97000000 		call	HAL_Printf
 2000      E7800000 
 2001              	.LVL238:
 271:C:/Users/stapi/OneDrive/Desktop/GD32VW553/V1_MQTT_OK/GD32VW55X_Wifi_BLE_SDK/GD32VW55x_RELEASE_V1.0.2/MSDK/cloud/alicloud/src/protocol/alcs\alcs_server.c ****     memset(item, 0, sizeof(svr_key_item));
 2002              		.loc 1 271 5
 2003 02ac 13850400 		addi	a0,s1,%lo(.LC2)
 2004 02b0 97000000 		call	HAL_Printf
 2004      E7800000 
 2005              	.LVL239:
 271:C:/Users/stapi/OneDrive/Desktop/GD32VW553/V1_MQTT_OK/GD32VW55X_Wifi_BLE_SDK/GD32VW55x_RELEASE_V1.0.2/MSDK/cloud/alicloud/src/protocol/alcs\alcs_server.c ****     memset(item, 0, sizeof(svr_key_item));
 2006              		.loc 1 271 5
 272:C:/Users/stapi/OneDrive/Desktop/GD32VW553/V1_MQTT_OK/GD32VW55X_Wifi_BLE_SDK/GD32VW55x_RELEASE_V1.0.2/MSDK/cloud/alicloud/src/protocol/alcs\alcs_server.c ****     item->keyInfo.secret = (char *) coap_malloc(strlen(secret) + 1);
 2007              		.loc 1 272 5
 2008 02b8 7146     		li	a2,28
 2009 02ba 8145     		li	a1,0
 2010 02bc 4E85     		mv	a0,s3
 2011 02be 97000000 		call	memset
 2011      E7800000 
 2012              	.LVL240:
 273:C:/Users/stapi/OneDrive/Desktop/GD32VW553/V1_MQTT_OK/GD32VW55X_Wifi_BLE_SDK/GD32VW55x_RELEASE_V1.0.2/MSDK/cloud/alicloud/src/protocol/alcs\alcs_server.c ****     if (!item->keyInfo.secret) {
 2013              		.loc 1 273 5
 273:C:/Users/stapi/OneDrive/Desktop/GD32VW553/V1_MQTT_OK/GD32VW55X_Wifi_BLE_SDK/GD32VW55x_RELEASE_V1.0.2/MSDK/cloud/alicloud/src/protocol/alcs\alcs_server.c ****     if (!item->keyInfo.secret) {
 2014              		.loc 1 273 37 is_stmt 0
 2015 02c6 5E85     		mv	a0,s7
 2016 02c8 97000000 		call	strlen
 2016      E7800000 
 2017              	.LVL241:
 2018 02d0 13061500 		addi	a2,a0,1
 2019 02d4 8145     		li	a1,0
 2020 02d6 0145     		li	a0,0
 2021 02d8 97000000 		call	LITE_malloc_internal
 2021      E7800000 
 2022              	.LVL242:
 273:C:/Users/stapi/OneDrive/Desktop/GD32VW553/V1_MQTT_OK/GD32VW55X_Wifi_BLE_SDK/GD32VW55x_RELEASE_V1.0.2/MSDK/cloud/alicloud/src/protocol/alcs\alcs_server.c ****     if (!item->keyInfo.secret) {
 2023              		.loc 1 273 26
 2024 02e0 23A6A900 		sw	a0,12(s3)
 274:C:/Users/stapi/OneDrive/Desktop/GD32VW553/V1_MQTT_OK/GD32VW55X_Wifi_BLE_SDK/GD32VW55x_RELEASE_V1.0.2/MSDK/cloud/alicloud/src/protocol/alcs\alcs_server.c ****         HAL_MutexUnlock(lst->list_mutex);
 2025              		.loc 1 274 5 is_stmt 1
 274:C:/Users/stapi/OneDrive/Desktop/GD32VW553/V1_MQTT_OK/GD32VW55X_Wifi_BLE_SDK/GD32VW55x_RELEASE_V1.0.2/MSDK/cloud/alicloud/src/protocol/alcs\alcs_server.c ****         HAL_MutexUnlock(lst->list_mutex);
 2026              		.loc 1 274 8 is_stmt 0
 2027 02e4 01ED     		bne	a0,zero,.L87
 275:C:/Users/stapi/OneDrive/Desktop/GD32VW553/V1_MQTT_OK/GD32VW55X_Wifi_BLE_SDK/GD32VW55x_RELEASE_V1.0.2/MSDK/cloud/alicloud/src/protocol/alcs\alcs_server.c ****         coap_free(item);
 2028              		.loc 1 275 9 is_stmt 1
 2029 02e6 0844     		lw	a0,8(s0)
 2030 02e8 97000000 		call	HAL_MutexUnlock
 2030      E7800000 
 2031              	.LVL243:
 276:C:/Users/stapi/OneDrive/Desktop/GD32VW553/V1_MQTT_OK/GD32VW55X_Wifi_BLE_SDK/GD32VW55x_RELEASE_V1.0.2/MSDK/cloud/alicloud/src/protocol/alcs\alcs_server.c ****         return COAP_ERROR_MALLOC;
 2032              		.loc 1 276 9
 2033 02f0 4E85     		mv	a0,s3
 2034 02f2 97000000 		call	LITE_free_internal
 2034      E7800000 
 2035              	.LVL244:
 2036 02fa D1B5     		j	.L91
 2037              	.L87:
 279:C:/Users/stapi/OneDrive/Desktop/GD32VW553/V1_MQTT_OK/GD32VW55X_Wifi_BLE_SDK/GD32VW55x_RELEASE_V1.0.2/MSDK/cloud/alicloud/src/protocol/alcs\alcs_server.c ****     memset(item->keyInfo.secret, 0, strlen(secret) + 1);
 2038              		.loc 1 279 5
 279:C:/Users/stapi/OneDrive/Desktop/GD32VW553/V1_MQTT_OK/GD32VW55X_Wifi_BLE_SDK/GD32VW55x_RELEASE_V1.0.2/MSDK/cloud/alicloud/src/protocol/alcs\alcs_server.c ****     memset(item->keyInfo.secret, 0, strlen(secret) + 1);
 2039              		.loc 1 279 5
 2040 02fc 13050900 		addi	a0,s2,%lo(.LC3)
 2041 0300 97000000 		call	HAL_Printf
 2041      E7800000 
 2042              	.LVL245:
 279:C:/Users/stapi/OneDrive/Desktop/GD32VW553/V1_MQTT_OK/GD32VW55X_Wifi_BLE_SDK/GD32VW55x_RELEASE_V1.0.2/MSDK/cloud/alicloud/src/protocol/alcs\alcs_server.c ****     memset(item->keyInfo.secret, 0, strlen(secret) + 1);
 2043              		.loc 1 279 5
 2044 0308 37050000 		lui	a0,%hi(.LC38)
 2045 030c 13050500 		addi	a0,a0,%lo(.LC38)
 2046 0310 97000000 		call	HAL_Printf
 2046      E7800000 
 2047              	.LVL246:
 279:C:/Users/stapi/OneDrive/Desktop/GD32VW553/V1_MQTT_OK/GD32VW55X_Wifi_BLE_SDK/GD32VW55x_RELEASE_V1.0.2/MSDK/cloud/alicloud/src/protocol/alcs\alcs_server.c ****     memset(item->keyInfo.secret, 0, strlen(secret) + 1);
 2048              		.loc 1 279 5
 2049 0318 13850400 		addi	a0,s1,%lo(.LC2)
 2050 031c 97000000 		call	HAL_Printf
 2050      E7800000 
 2051              	.LVL247:
 279:C:/Users/stapi/OneDrive/Desktop/GD32VW553/V1_MQTT_OK/GD32VW55X_Wifi_BLE_SDK/GD32VW55x_RELEASE_V1.0.2/MSDK/cloud/alicloud/src/protocol/alcs\alcs_server.c ****     memset(item->keyInfo.secret, 0, strlen(secret) + 1);
 2052              		.loc 1 279 5
 280:C:/Users/stapi/OneDrive/Desktop/GD32VW553/V1_MQTT_OK/GD32VW55X_Wifi_BLE_SDK/GD32VW55x_RELEASE_V1.0.2/MSDK/cloud/alicloud/src/protocol/alcs\alcs_server.c **** 
 2053              		.loc 1 280 5
 280:C:/Users/stapi/OneDrive/Desktop/GD32VW553/V1_MQTT_OK/GD32VW55X_Wifi_BLE_SDK/GD32VW55x_RELEASE_V1.0.2/MSDK/cloud/alicloud/src/protocol/alcs\alcs_server.c **** 
 2054              		.loc 1 280 37 is_stmt 0
 2055 0324 5E85     		mv	a0,s7
 2056 0326 97000000 		call	strlen
 2056      E7800000 
 2057              	.LVL248:
 280:C:/Users/stapi/OneDrive/Desktop/GD32VW553/V1_MQTT_OK/GD32VW55X_Wifi_BLE_SDK/GD32VW55x_RELEASE_V1.0.2/MSDK/cloud/alicloud/src/protocol/alcs\alcs_server.c **** 
 2058              		.loc 1 280 5
 2059 032e 13061500 		addi	a2,a0,1
 2060 0332 03A5C900 		lw	a0,12(s3)
 2061 0336 8145     		li	a1,0
 2062 0338 97000000 		call	memset
 2062      E7800000 
 2063              	.LVL249:
 282:C:/Users/stapi/OneDrive/Desktop/GD32VW553/V1_MQTT_OK/GD32VW55X_Wifi_BLE_SDK/GD32VW55x_RELEASE_V1.0.2/MSDK/cloud/alicloud/src/protocol/alcs\alcs_server.c ****     strcpy(item->keyInfo.keyprefix, keyprefix);
 2064              		.loc 1 282 5 is_stmt 1
 2065 0340 03A5C900 		lw	a0,12(s3)
 2066 0344 DE85     		mv	a1,s7
 2067 0346 97000000 		call	strcpy
 2067      E7800000 
 2068              	.LVL250:
 283:C:/Users/stapi/OneDrive/Desktop/GD32VW553/V1_MQTT_OK/GD32VW55X_Wifi_BLE_SDK/GD32VW55x_RELEASE_V1.0.2/MSDK/cloud/alicloud/src/protocol/alcs\alcs_server.c ****     item->keyInfo.priority = priority;
 2069              		.loc 1 283 5
 2070 034e DA85     		mv	a1,s6
 2071 0350 4E85     		mv	a0,s3
 2072 0352 97000000 		call	strcpy
 2072      E7800000 
 2073              	.LVL251:
 284:C:/Users/stapi/OneDrive/Desktop/GD32VW553/V1_MQTT_OK/GD32VW55X_Wifi_BLE_SDK/GD32VW55x_RELEASE_V1.0.2/MSDK/cloud/alicloud/src/protocol/alcs\alcs_server.c ****     COAP_INFO ("add_svr_key 6 ");
 2074              		.loc 1 284 5
 285:C:/Users/stapi/OneDrive/Desktop/GD32VW553/V1_MQTT_OK/GD32VW55X_Wifi_BLE_SDK/GD32VW55x_RELEASE_V1.0.2/MSDK/cloud/alicloud/src/protocol/alcs\alcs_server.c ****     list_add_tail(&item->lst, &lst->lst_svr);
 2075              		.loc 1 285 5 is_stmt 0
 2076 035a 13050900 		addi	a0,s2,%lo(.LC3)
 284:C:/Users/stapi/OneDrive/Desktop/GD32VW553/V1_MQTT_OK/GD32VW55X_Wifi_BLE_SDK/GD32VW55x_RELEASE_V1.0.2/MSDK/cloud/alicloud/src/protocol/alcs\alcs_server.c ****     COAP_INFO ("add_svr_key 6 ");
 2077              		.loc 1 284 28
 2078 035e 23A85901 		sw	s5,16(s3)
 285:C:/Users/stapi/OneDrive/Desktop/GD32VW553/V1_MQTT_OK/GD32VW55X_Wifi_BLE_SDK/GD32VW55x_RELEASE_V1.0.2/MSDK/cloud/alicloud/src/protocol/alcs\alcs_server.c ****     list_add_tail(&item->lst, &lst->lst_svr);
 2079              		.loc 1 285 5 is_stmt 1
 285:C:/Users/stapi/OneDrive/Desktop/GD32VW553/V1_MQTT_OK/GD32VW55X_Wifi_BLE_SDK/GD32VW55x_RELEASE_V1.0.2/MSDK/cloud/alicloud/src/protocol/alcs\alcs_server.c ****     list_add_tail(&item->lst, &lst->lst_svr);
 2080              		.loc 1 285 5
 2081 0362 97000000 		call	HAL_Printf
 2081      E7800000 
 2082              	.LVL252:
 285:C:/Users/stapi/OneDrive/Desktop/GD32VW553/V1_MQTT_OK/GD32VW55X_Wifi_BLE_SDK/GD32VW55x_RELEASE_V1.0.2/MSDK/cloud/alicloud/src/protocol/alcs\alcs_server.c ****     list_add_tail(&item->lst, &lst->lst_svr);
 2083              		.loc 1 285 5
 2084 036a 37050000 		lui	a0,%hi(.LC39)
 2085 036e 13050500 		addi	a0,a0,%lo(.LC39)
 2086 0372 97000000 		call	HAL_Printf
 2086      E7800000 
 2087              	.LVL253:
 285:C:/Users/stapi/OneDrive/Desktop/GD32VW553/V1_MQTT_OK/GD32VW55X_Wifi_BLE_SDK/GD32VW55x_RELEASE_V1.0.2/MSDK/cloud/alicloud/src/protocol/alcs\alcs_server.c ****     list_add_tail(&item->lst, &lst->lst_svr);
 2088              		.loc 1 285 5
 2089 037a 13850400 		addi	a0,s1,%lo(.LC2)
 2090 037e 97000000 		call	HAL_Printf
 2090      E7800000 
 2091              	.LVL254:
 285:C:/Users/stapi/OneDrive/Desktop/GD32VW553/V1_MQTT_OK/GD32VW55X_Wifi_BLE_SDK/GD32VW55x_RELEASE_V1.0.2/MSDK/cloud/alicloud/src/protocol/alcs\alcs_server.c ****     list_add_tail(&item->lst, &lst->lst_svr);
 2092              		.loc 1 285 5
 286:C:/Users/stapi/OneDrive/Desktop/GD32VW553/V1_MQTT_OK/GD32VW55X_Wifi_BLE_SDK/GD32VW55x_RELEASE_V1.0.2/MSDK/cloud/alicloud/src/protocol/alcs\alcs_server.c ****     ++lst->svr_count;
 2093              		.loc 1 286 5
 2094              	.LBB86:
 2095              	.LBB87:
  63:..\..\..\..\cloud\alicloud\src\infra\utils\misc/lite-list.h **** }
 2096              		.loc 2 63 28 is_stmt 0
 2097 0386 5844     		lw	a4,12(s0)
 2098              	.LBE87:
 2099              	.LBE86:
 286:C:/Users/stapi/OneDrive/Desktop/GD32VW553/V1_MQTT_OK/GD32VW55X_Wifi_BLE_SDK/GD32VW55x_RELEASE_V1.0.2/MSDK/cloud/alicloud/src/protocol/alcs\alcs_server.c ****     ++lst->svr_count;
 2100              		.loc 1 286 19
 2101 0388 93874901 		addi	a5,s3,20
 2102              	.LVL255:
 2103              	.LBB91:
 2104              	.LBB90:
  63:..\..\..\..\cloud\alicloud\src\infra\utils\misc/lite-list.h **** }
 2105              		.loc 2 63 5 is_stmt 1
 2106              	.LBB88:
 2107              	.LBB89:
  38:..\..\..\..\cloud\alicloud\src\infra\utils\misc/lite-list.h ****     node->prev = prev;
 2108              		.loc 2 38 5
  38:..\..\..\..\cloud\alicloud\src\infra\utils\misc/lite-list.h ****     node->prev = prev;
 2109              		.loc 2 38 16 is_stmt 0
 2110 038c 23AC4901 		sw	s4,24(s3)
  39:..\..\..\..\cloud\alicloud\src\infra\utils\misc/lite-list.h **** 
 2111              		.loc 2 39 5 is_stmt 1
  39:..\..\..\..\cloud\alicloud\src\infra\utils\misc/lite-list.h **** 
 2112              		.loc 2 39 16 is_stmt 0
 2113 0390 23AAE900 		sw	a4,20(s3)
  41:..\..\..\..\cloud\alicloud\src\infra\utils\misc/lite-list.h ****     next->prev = node;
 2114              		.loc 2 41 5 is_stmt 1
  41:..\..\..\..\cloud\alicloud\src\infra\utils\misc/lite-list.h ****     next->prev = node;
 2115              		.loc 2 41 16 is_stmt 0
 2116 0394 5CC3     		sw	a5,4(a4)
  42:..\..\..\..\cloud\alicloud\src\infra\utils\misc/lite-list.h **** }
 2117              		.loc 2 42 5 is_stmt 1
  42:..\..\..\..\cloud\alicloud\src\infra\utils\misc/lite-list.h **** }
 2118              		.loc 2 42 16 is_stmt 0
 2119 0396 5CC4     		sw	a5,12(s0)
 2120              	.LVL256:
 2121              	.LBE89:
 2122              	.LBE88:
 2123              	.LBE90:
 2124              	.LBE91:
 287:C:/Users/stapi/OneDrive/Desktop/GD32VW553/V1_MQTT_OK/GD32VW55X_Wifi_BLE_SDK/GD32VW55x_RELEASE_V1.0.2/MSDK/cloud/alicloud/src/protocol/alcs\alcs_server.c ****     HAL_MutexUnlock(lst->list_mutex);
 2125              		.loc 1 287 5 is_stmt 1
 2126 0398 83474401 		lbu	a5,20(s0)
 288:C:/Users/stapi/OneDrive/Desktop/GD32VW553/V1_MQTT_OK/GD32VW55X_Wifi_BLE_SDK/GD32VW55x_RELEASE_V1.0.2/MSDK/cloud/alicloud/src/protocol/alcs\alcs_server.c **** 
 2127              		.loc 1 288 5 is_stmt 0
 2128 039c 0844     		lw	a0,8(s0)
 287:C:/Users/stapi/OneDrive/Desktop/GD32VW553/V1_MQTT_OK/GD32VW55X_Wifi_BLE_SDK/GD32VW55x_RELEASE_V1.0.2/MSDK/cloud/alicloud/src/protocol/alcs\alcs_server.c ****     HAL_MutexUnlock(lst->list_mutex);
 2129              		.loc 1 287 5
 2130 039e 8507     		addi	a5,a5,1
 2131 03a0 230AF400 		sb	a5,20(s0)
 288:C:/Users/stapi/OneDrive/Desktop/GD32VW553/V1_MQTT_OK/GD32VW55X_Wifi_BLE_SDK/GD32VW55x_RELEASE_V1.0.2/MSDK/cloud/alicloud/src/protocol/alcs\alcs_server.c **** 
 2132              		.loc 1 288 5 is_stmt 1
 2133 03a4 97000000 		call	HAL_MutexUnlock
 2133      E7800000 
 2134              	.LVL257:
 291:C:/Users/stapi/OneDrive/Desktop/GD32VW553/V1_MQTT_OK/GD32VW55X_Wifi_BLE_SDK/GD32VW55x_RELEASE_V1.0.2/MSDK/cloud/alicloud/src/protocol/alcs\alcs_server.c ****     return COAP_SUCCESS;
 2135              		.loc 1 291 5
 291:C:/Users/stapi/OneDrive/Desktop/GD32VW553/V1_MQTT_OK/GD32VW55X_Wifi_BLE_SDK/GD32VW55x_RELEASE_V1.0.2/MSDK/cloud/alicloud/src/protocol/alcs\alcs_server.c ****     return COAP_SUCCESS;
 2136              		.loc 1 291 5
 2137 03ac 13050900 		addi	a0,s2,%lo(.LC3)
 2138 03b0 97000000 		call	HAL_Printf
 2138      E7800000 
 2139              	.LVL258:
 291:C:/Users/stapi/OneDrive/Desktop/GD32VW553/V1_MQTT_OK/GD32VW55X_Wifi_BLE_SDK/GD32VW55x_RELEASE_V1.0.2/MSDK/cloud/alicloud/src/protocol/alcs\alcs_server.c ****     return COAP_SUCCESS;
 2140              		.loc 1 291 5
 2141 03b8 37050000 		lui	a0,%hi(.LC40)
 2142 03bc 13050500 		addi	a0,a0,%lo(.LC40)
 2143 03c0 97000000 		call	HAL_Printf
 2143      E7800000 
 2144              	.LVL259:
 291:C:/Users/stapi/OneDrive/Desktop/GD32VW553/V1_MQTT_OK/GD32VW55X_Wifi_BLE_SDK/GD32VW55x_RELEASE_V1.0.2/MSDK/cloud/alicloud/src/protocol/alcs\alcs_server.c ****     return COAP_SUCCESS;
 2145              		.loc 1 291 5
 2146 03c8 13850400 		addi	a0,s1,%lo(.LC2)
 2147 03cc 97000000 		call	HAL_Printf
 2147      E7800000 
 2148              	.LVL260:
 291:C:/Users/stapi/OneDrive/Desktop/GD32VW553/V1_MQTT_OK/GD32VW55X_Wifi_BLE_SDK/GD32VW55x_RELEASE_V1.0.2/MSDK/cloud/alicloud/src/protocol/alcs\alcs_server.c ****     return COAP_SUCCESS;
 2149              		.loc 1 291 5
 292:C:/Users/stapi/OneDrive/Desktop/GD32VW553/V1_MQTT_OK/GD32VW55X_Wifi_BLE_SDK/GD32VW55x_RELEASE_V1.0.2/MSDK/cloud/alicloud/src/protocol/alcs\alcs_server.c **** }
 2150              		.loc 1 292 5
 292:C:/Users/stapi/OneDrive/Desktop/GD32VW553/V1_MQTT_OK/GD32VW55X_Wifi_BLE_SDK/GD32VW55x_RELEASE_V1.0.2/MSDK/cloud/alicloud/src/protocol/alcs\alcs_server.c **** }
 2151              		.loc 1 292 12 is_stmt 0
 2152 03d4 8147     		li	a5,0
 2153 03d6 5DB5     		j	.L76
 2154              	.LBE92:
 2155              	.LBE93:
 2156              		.cfi_endproc
 2157              	.LFE24:
 2159              		.section	.text.alcs_remove_svr_key,"ax",@progbits
 2160              		.align	1
 2161              		.globl	alcs_remove_svr_key
 2163              	alcs_remove_svr_key:
 2164              	.LFB25:
 303:C:/Users/stapi/OneDrive/Desktop/GD32VW553/V1_MQTT_OK/GD32VW55X_Wifi_BLE_SDK/GD32VW55x_RELEASE_V1.0.2/MSDK/cloud/alicloud/src/protocol/alcs\alcs_server.c ****     device_auth_list *lst = get_device();
 2165              		.loc 1 303 1 is_stmt 1
 2166              		.cfi_startproc
 2167              	.LVL261:
 2168 0000 17030000 		call	t0,__riscv_save_5
 2168      E7020300 
 2169              		.cfi_offset 20, -24
 2170              		.cfi_offset 19, -20
 2171              		.cfi_offset 18, -16
 2172              		.cfi_offset 9, -12
 2173              		.cfi_offset 8, -8
 2174              		.cfi_offset 1, -4
 2175              		.cfi_def_cfa_offset 32
 304:C:/Users/stapi/OneDrive/Desktop/GD32VW553/V1_MQTT_OK/GD32VW55X_Wifi_BLE_SDK/GD32VW55x_RELEASE_V1.0.2/MSDK/cloud/alicloud/src/protocol/alcs\alcs_server.c ****     if (!lst) {
 2176              		.loc 1 304 5
 2177              	.LVL262:
 305:C:/Users/stapi/OneDrive/Desktop/GD32VW553/V1_MQTT_OK/GD32VW55X_Wifi_BLE_SDK/GD32VW55x_RELEASE_V1.0.2/MSDK/cloud/alicloud/src/protocol/alcs\alcs_server.c ****         return COAP_ERROR_NULL;
 2178              		.loc 1 305 5
 309:C:/Users/stapi/OneDrive/Desktop/GD32VW553/V1_MQTT_OK/GD32VW55X_Wifi_BLE_SDK/GD32VW55x_RELEASE_V1.0.2/MSDK/cloud/alicloud/src/protocol/alcs\alcs_server.c ****     HAL_MutexLock(lst->list_mutex);
 2179              		.loc 1 309 5
 310:C:/Users/stapi/OneDrive/Desktop/GD32VW553/V1_MQTT_OK/GD32VW55X_Wifi_BLE_SDK/GD32VW55x_RELEASE_V1.0.2/MSDK/cloud/alicloud/src/protocol/alcs\alcs_server.c **** 
 2180              		.loc 1 310 5
 2181 0008 B7040000 		lui	s1,%hi(_device)
 2182 000c 13840400 		addi	s0,s1,%lo(_device)
 2183 0010 0844     		lw	a0,8(s0)
 2184              	.LVL263:
 303:C:/Users/stapi/OneDrive/Desktop/GD32VW553/V1_MQTT_OK/GD32VW55X_Wifi_BLE_SDK/GD32VW55x_RELEASE_V1.0.2/MSDK/cloud/alicloud/src/protocol/alcs\alcs_server.c ****     device_auth_list *lst = get_device();
 2185              		.loc 1 303 1 is_stmt 0
 2186 0012 2E8A     		mv	s4,a1
 312:C:/Users/stapi/OneDrive/Desktop/GD32VW553/V1_MQTT_OK/GD32VW55X_Wifi_BLE_SDK/GD32VW55x_RELEASE_V1.0.2/MSDK/cloud/alicloud/src/protocol/alcs\alcs_server.c ****         if (strcmp(node->keyInfo.keyprefix, keyprefix) == 0) {
 2187              		.loc 1 312 5
 2188 0014 B7090000 		lui	s3,%hi(_device+12)
 310:C:/Users/stapi/OneDrive/Desktop/GD32VW553/V1_MQTT_OK/GD32VW55X_Wifi_BLE_SDK/GD32VW55x_RELEASE_V1.0.2/MSDK/cloud/alicloud/src/protocol/alcs\alcs_server.c **** 
 2189              		.loc 1 310 5
 2190 0018 97000000 		call	HAL_MutexLock
 2190      E7800000 
 2191              	.LVL264:
 312:C:/Users/stapi/OneDrive/Desktop/GD32VW553/V1_MQTT_OK/GD32VW55X_Wifi_BLE_SDK/GD32VW55x_RELEASE_V1.0.2/MSDK/cloud/alicloud/src/protocol/alcs\alcs_server.c ****         if (strcmp(node->keyInfo.keyprefix, keyprefix) == 0) {
 2192              		.loc 1 312 5 is_stmt 1
 2193 0020 1C48     		lw	a5,16(s0)
 2194 0022 93840400 		addi	s1,s1,%lo(_device)
 2195 0026 9389C900 		addi	s3,s3,%lo(_device+12)
 2196 002a 03A94700 		lw	s2,4(a5)
 2197 002e 1384C7FE 		addi	s0,a5,-20
 2198              	.LVL265:
 2199 0032 3119     		addi	s2,s2,-20
 2200              	.LVL266:
 2201              	.L93:
 312:C:/Users/stapi/OneDrive/Desktop/GD32VW553/V1_MQTT_OK/GD32VW55X_Wifi_BLE_SDK/GD32VW55x_RELEASE_V1.0.2/MSDK/cloud/alicloud/src/protocol/alcs\alcs_server.c ****         if (strcmp(node->keyInfo.keyprefix, keyprefix) == 0) {
 2202              		.loc 1 312 5 discriminator 1
 2203 0034 93074401 		addi	a5,s0,20
 2204 0038 638C3703 		beq	a5,s3,.L95
 313:C:/Users/stapi/OneDrive/Desktop/GD32VW553/V1_MQTT_OK/GD32VW55X_Wifi_BLE_SDK/GD32VW55x_RELEASE_V1.0.2/MSDK/cloud/alicloud/src/protocol/alcs\alcs_server.c ****             coap_free(node->keyInfo.secret);
 2205              		.loc 1 313 9
 313:C:/Users/stapi/OneDrive/Desktop/GD32VW553/V1_MQTT_OK/GD32VW55X_Wifi_BLE_SDK/GD32VW55x_RELEASE_V1.0.2/MSDK/cloud/alicloud/src/protocol/alcs\alcs_server.c ****             coap_free(node->keyInfo.secret);
 2206              		.loc 1 313 13 is_stmt 0
 2207 003c D285     		mv	a1,s4
 2208 003e 2285     		mv	a0,s0
 2209 0040 97000000 		call	strcmp
 2209      E7800000 
 2210              	.LVL267:
 313:C:/Users/stapi/OneDrive/Desktop/GD32VW553/V1_MQTT_OK/GD32VW55X_Wifi_BLE_SDK/GD32VW55x_RELEASE_V1.0.2/MSDK/cloud/alicloud/src/protocol/alcs\alcs_server.c ****             coap_free(node->keyInfo.secret);
 2211              		.loc 1 313 12
 2212 0048 15ED     		bne	a0,zero,.L94
 314:C:/Users/stapi/OneDrive/Desktop/GD32VW553/V1_MQTT_OK/GD32VW55X_Wifi_BLE_SDK/GD32VW55x_RELEASE_V1.0.2/MSDK/cloud/alicloud/src/protocol/alcs\alcs_server.c ****             list_del(&node->lst);
 2213              		.loc 1 314 13 is_stmt 1
 2214 004a 4844     		lw	a0,12(s0)
 2215 004c 97000000 		call	LITE_free_internal
 2215      E7800000 
 2216              	.LVL268:
 315:C:/Users/stapi/OneDrive/Desktop/GD32VW553/V1_MQTT_OK/GD32VW55X_Wifi_BLE_SDK/GD32VW55x_RELEASE_V1.0.2/MSDK/cloud/alicloud/src/protocol/alcs\alcs_server.c ****             coap_free(node);
 2217              		.loc 1 315 13
 2218              	.LBB96:
 2219              	.LBB97:
  68:..\..\..\..\cloud\alicloud\src\infra\utils\misc/lite-list.h ****     dlist_t *next = node->next;
 2220              		.loc 2 68 5
  69:..\..\..\..\cloud\alicloud\src\infra\utils\misc/lite-list.h **** 
 2221              		.loc 2 69 14 is_stmt 0
 2222 0054 1C4C     		lw	a5,24(s0)
  68:..\..\..\..\cloud\alicloud\src\infra\utils\misc/lite-list.h ****     dlist_t *next = node->next;
 2223              		.loc 2 68 14
 2224 0056 5848     		lw	a4,20(s0)
 2225              	.LVL269:
  69:..\..\..\..\cloud\alicloud\src\infra\utils\misc/lite-list.h **** 
 2226              		.loc 2 69 5 is_stmt 1
  71:..\..\..\..\cloud\alicloud\src\infra\utils\misc/lite-list.h ****     next->prev = prev;
 2227              		.loc 2 71 5
 2228              	.LBE97:
 2229              	.LBE96:
 316:C:/Users/stapi/OneDrive/Desktop/GD32VW553/V1_MQTT_OK/GD32VW55X_Wifi_BLE_SDK/GD32VW55x_RELEASE_V1.0.2/MSDK/cloud/alicloud/src/protocol/alcs\alcs_server.c ****             --lst->svr_count;
 2230              		.loc 1 316 13 is_stmt 0
 2231 0058 2285     		mv	a0,s0
 2232              	.LBB99:
 2233              	.LBB98:
  71:..\..\..\..\cloud\alicloud\src\infra\utils\misc/lite-list.h ****     next->prev = prev;
 2234              		.loc 2 71 16
 2235 005a 5CC3     		sw	a5,4(a4)
  72:..\..\..\..\cloud\alicloud\src\infra\utils\misc/lite-list.h **** }
 2236              		.loc 2 72 5 is_stmt 1
  72:..\..\..\..\cloud\alicloud\src\infra\utils\misc/lite-list.h **** }
 2237              		.loc 2 72 16 is_stmt 0
 2238 005c 98C3     		sw	a4,0(a5)
 2239              	.LVL270:
 2240              	.LBE98:
 2241              	.LBE99:
 316:C:/Users/stapi/OneDrive/Desktop/GD32VW553/V1_MQTT_OK/GD32VW55X_Wifi_BLE_SDK/GD32VW55x_RELEASE_V1.0.2/MSDK/cloud/alicloud/src/protocol/alcs\alcs_server.c ****             --lst->svr_count;
 2242              		.loc 1 316 13 is_stmt 1
 2243 005e 97000000 		call	LITE_free_internal
 2243      E7800000 
 2244              	.LVL271:
 317:C:/Users/stapi/OneDrive/Desktop/GD32VW553/V1_MQTT_OK/GD32VW55X_Wifi_BLE_SDK/GD32VW55x_RELEASE_V1.0.2/MSDK/cloud/alicloud/src/protocol/alcs\alcs_server.c ****             break;
 2245              		.loc 1 317 13
 2246 0066 83C74401 		lbu	a5,20(s1)
 2247 006a FD17     		addi	a5,a5,-1
 2248 006c 238AF400 		sb	a5,20(s1)
 318:C:/Users/stapi/OneDrive/Desktop/GD32VW553/V1_MQTT_OK/GD32VW55X_Wifi_BLE_SDK/GD32VW55x_RELEASE_V1.0.2/MSDK/cloud/alicloud/src/protocol/alcs\alcs_server.c ****         }
 2249              		.loc 1 318 13
 2250              	.L95:
 321:C:/Users/stapi/OneDrive/Desktop/GD32VW553/V1_MQTT_OK/GD32VW55X_Wifi_BLE_SDK/GD32VW55x_RELEASE_V1.0.2/MSDK/cloud/alicloud/src/protocol/alcs\alcs_server.c **** 
 2251              		.loc 1 321 5
 2252 0070 8844     		lw	a0,8(s1)
 2253 0072 97000000 		call	HAL_MutexUnlock
 2253      E7800000 
 2254              	.LVL272:
 323:C:/Users/stapi/OneDrive/Desktop/GD32VW553/V1_MQTT_OK/GD32VW55X_Wifi_BLE_SDK/GD32VW55x_RELEASE_V1.0.2/MSDK/cloud/alicloud/src/protocol/alcs\alcs_server.c **** }
 2255              		.loc 1 323 5
 324:C:/Users/stapi/OneDrive/Desktop/GD32VW553/V1_MQTT_OK/GD32VW55X_Wifi_BLE_SDK/GD32VW55x_RELEASE_V1.0.2/MSDK/cloud/alicloud/src/protocol/alcs\alcs_server.c **** 
 2256              		.loc 1 324 1 is_stmt 0
 2257 007a 0145     		li	a0,0
 2258 007c 17030000 		tail	__riscv_restore_5
 2258      67000300 
 2259              		.cfi_remember_state
 2260              		.cfi_restore 20
 2261              		.cfi_restore 19
 2262              		.cfi_restore 18
 2263              		.cfi_restore 9
 2264              		.cfi_restore 8
 2265              		.cfi_restore 1
 2266              		.cfi_def_cfa_offset 0
 2267              	.L94:
 2268              		.cfi_restore_state
 312:C:/Users/stapi/OneDrive/Desktop/GD32VW553/V1_MQTT_OK/GD32VW55X_Wifi_BLE_SDK/GD32VW55x_RELEASE_V1.0.2/MSDK/cloud/alicloud/src/protocol/alcs\alcs_server.c ****         if (strcmp(node->keyInfo.keyprefix, keyprefix) == 0) {
 2269              		.loc 1 312 5 is_stmt 1 discriminator 2
 2270              	.LVL273:
 2271 0084 83278901 		lw	a5,24(s2)
 2272              	.LVL274:
 2273 0088 4A84     		mv	s0,s2
 2274 008a 1389C7FE 		addi	s2,a5,-20
 2275              	.LVL275:
 2276 008e 5DB7     		j	.L93
 2277              		.cfi_endproc
 2278              	.LFE25:
 2280              		.section	.text.alcs_set_revocation,"ax",@progbits
 2281              		.align	1
 2282              		.globl	alcs_set_revocation
 2284              	alcs_set_revocation:
 2285              	.LFB26:
 327:C:/Users/stapi/OneDrive/Desktop/GD32VW553/V1_MQTT_OK/GD32VW55X_Wifi_BLE_SDK/GD32VW55x_RELEASE_V1.0.2/MSDK/cloud/alicloud/src/protocol/alcs\alcs_server.c ****     device_auth_list *lst = get_device();
 2286              		.loc 1 327 1
 2287              		.cfi_startproc
 2288              	.LVL276:
 2289 0000 17030000 		call	t0,__riscv_save_3
 2289      E7020300 
 2290              		.cfi_offset 18, -16
 2291              		.cfi_offset 9, -12
 2292              		.cfi_offset 8, -8
 2293              		.cfi_offset 1, -4
 2294              		.cfi_def_cfa_offset 16
 328:C:/Users/stapi/OneDrive/Desktop/GD32VW553/V1_MQTT_OK/GD32VW55X_Wifi_BLE_SDK/GD32VW55x_RELEASE_V1.0.2/MSDK/cloud/alicloud/src/protocol/alcs\alcs_server.c ****     if (!lst) {
 2295              		.loc 1 328 5
 2296              	.LVL277:
 329:C:/Users/stapi/OneDrive/Desktop/GD32VW553/V1_MQTT_OK/GD32VW55X_Wifi_BLE_SDK/GD32VW55x_RELEASE_V1.0.2/MSDK/cloud/alicloud/src/protocol/alcs\alcs_server.c ****         return COAP_ERROR_NULL;
 2297              		.loc 1 329 5
 333:C:/Users/stapi/OneDrive/Desktop/GD32VW553/V1_MQTT_OK/GD32VW55X_Wifi_BLE_SDK/GD32VW55x_RELEASE_V1.0.2/MSDK/cloud/alicloud/src/protocol/alcs\alcs_server.c **** 
 2298              		.loc 1 333 5
 2299 0008 37040000 		lui	s0,%hi(_device)
 2300 000c 93070400 		addi	a5,s0,%lo(_device)
 2301 0010 8847     		lw	a0,8(a5)
 2302              	.LVL278:
 327:C:/Users/stapi/OneDrive/Desktop/GD32VW553/V1_MQTT_OK/GD32VW55X_Wifi_BLE_SDK/GD32VW55x_RELEASE_V1.0.2/MSDK/cloud/alicloud/src/protocol/alcs\alcs_server.c ****     device_auth_list *lst = get_device();
 2303              		.loc 1 327 1 is_stmt 0
 2304 0012 AE84     		mv	s1,a1
 2305 0014 13040400 		addi	s0,s0,%lo(_device)
 333:C:/Users/stapi/OneDrive/Desktop/GD32VW553/V1_MQTT_OK/GD32VW55X_Wifi_BLE_SDK/GD32VW55x_RELEASE_V1.0.2/MSDK/cloud/alicloud/src/protocol/alcs\alcs_server.c **** 
 2306              		.loc 1 333 5
 2307 0018 97000000 		call	HAL_MutexLock
 2307      E7800000 
 2308              	.LVL279:
 335:C:/Users/stapi/OneDrive/Desktop/GD32VW553/V1_MQTT_OK/GD32VW55X_Wifi_BLE_SDK/GD32VW55x_RELEASE_V1.0.2/MSDK/cloud/alicloud/src/protocol/alcs\alcs_server.c ****     if (lst->revocation) {
 2309              		.loc 1 335 5 is_stmt 1
 2310 0020 0149     		li	s2,0
 335:C:/Users/stapi/OneDrive/Desktop/GD32VW553/V1_MQTT_OK/GD32VW55X_Wifi_BLE_SDK/GD32VW55x_RELEASE_V1.0.2/MSDK/cloud/alicloud/src/protocol/alcs\alcs_server.c ****     if (lst->revocation) {
 2311              		.loc 1 335 41 is_stmt 0
 2312 0022 99C4     		beq	s1,zero,.L99
 335:C:/Users/stapi/OneDrive/Desktop/GD32VW553/V1_MQTT_OK/GD32VW55X_Wifi_BLE_SDK/GD32VW55x_RELEASE_V1.0.2/MSDK/cloud/alicloud/src/protocol/alcs\alcs_server.c ****     if (lst->revocation) {
 2313              		.loc 1 335 25 discriminator 1
 2314 0024 2685     		mv	a0,s1
 2315 0026 97000000 		call	strlen
 2315      E7800000 
 2316              	.LVL280:
 2317 002e 2A89     		mv	s2,a0
 2318              	.L99:
 2319              	.LVL281:
 336:C:/Users/stapi/OneDrive/Desktop/GD32VW553/V1_MQTT_OK/GD32VW55X_Wifi_BLE_SDK/GD32VW55x_RELEASE_V1.0.2/MSDK/cloud/alicloud/src/protocol/alcs\alcs_server.c ****         coap_free(lst->revocation);
 2320              		.loc 1 336 5 is_stmt 1 discriminator 4
 336:C:/Users/stapi/OneDrive/Desktop/GD32VW553/V1_MQTT_OK/GD32VW55X_Wifi_BLE_SDK/GD32VW55x_RELEASE_V1.0.2/MSDK/cloud/alicloud/src/protocol/alcs\alcs_server.c ****         coap_free(lst->revocation);
 2321              		.loc 1 336 12 is_stmt 0 discriminator 4
 2322 0030 084C     		lw	a0,24(s0)
 336:C:/Users/stapi/OneDrive/Desktop/GD32VW553/V1_MQTT_OK/GD32VW55X_Wifi_BLE_SDK/GD32VW55x_RELEASE_V1.0.2/MSDK/cloud/alicloud/src/protocol/alcs\alcs_server.c ****         coap_free(lst->revocation);
 2323              		.loc 1 336 8 discriminator 4
 2324 0032 19C5     		beq	a0,zero,.L100
 337:C:/Users/stapi/OneDrive/Desktop/GD32VW553/V1_MQTT_OK/GD32VW55X_Wifi_BLE_SDK/GD32VW55x_RELEASE_V1.0.2/MSDK/cloud/alicloud/src/protocol/alcs\alcs_server.c ****         lst->revocation = NULL;
 2325              		.loc 1 337 9 is_stmt 1
 2326 0034 97000000 		call	LITE_free_internal
 2326      E7800000 
 2327              	.LVL282:
 338:C:/Users/stapi/OneDrive/Desktop/GD32VW553/V1_MQTT_OK/GD32VW55X_Wifi_BLE_SDK/GD32VW55x_RELEASE_V1.0.2/MSDK/cloud/alicloud/src/protocol/alcs\alcs_server.c ****     }
 2328              		.loc 1 338 9
 338:C:/Users/stapi/OneDrive/Desktop/GD32VW553/V1_MQTT_OK/GD32VW55X_Wifi_BLE_SDK/GD32VW55x_RELEASE_V1.0.2/MSDK/cloud/alicloud/src/protocol/alcs\alcs_server.c ****     }
 2329              		.loc 1 338 25 is_stmt 0
 2330 003c 232C0400 		sw	zero,24(s0)
 2331              	.L100:
 341:C:/Users/stapi/OneDrive/Desktop/GD32VW553/V1_MQTT_OK/GD32VW55X_Wifi_BLE_SDK/GD32VW55x_RELEASE_V1.0.2/MSDK/cloud/alicloud/src/protocol/alcs\alcs_server.c ****         lst->revocation = (char *)coap_malloc(len + 1);
 2332              		.loc 1 341 5 is_stmt 1
 341:C:/Users/stapi/OneDrive/Desktop/GD32VW553/V1_MQTT_OK/GD32VW55X_Wifi_BLE_SDK/GD32VW55x_RELEASE_V1.0.2/MSDK/cloud/alicloud/src/protocol/alcs\alcs_server.c ****         lst->revocation = (char *)coap_malloc(len + 1);
 2333              		.loc 1 341 8 is_stmt 0
 2334 0040 63000902 		beq	s2,zero,.L101
 342:C:/Users/stapi/OneDrive/Desktop/GD32VW553/V1_MQTT_OK/GD32VW55X_Wifi_BLE_SDK/GD32VW55x_RELEASE_V1.0.2/MSDK/cloud/alicloud/src/protocol/alcs\alcs_server.c ****         strcpy(lst->revocation, seqlist);
 2335              		.loc 1 342 9 is_stmt 1
 342:C:/Users/stapi/OneDrive/Desktop/GD32VW553/V1_MQTT_OK/GD32VW55X_Wifi_BLE_SDK/GD32VW55x_RELEASE_V1.0.2/MSDK/cloud/alicloud/src/protocol/alcs\alcs_server.c ****         strcpy(lst->revocation, seqlist);
 2336              		.loc 1 342 35 is_stmt 0
 2337 0044 8145     		li	a1,0
 2338 0046 13061900 		addi	a2,s2,1
 2339 004a 0145     		li	a0,0
 2340 004c 97000000 		call	LITE_malloc_internal
 2340      E7800000 
 2341              	.LVL283:
 343:C:/Users/stapi/OneDrive/Desktop/GD32VW553/V1_MQTT_OK/GD32VW55X_Wifi_BLE_SDK/GD32VW55x_RELEASE_V1.0.2/MSDK/cloud/alicloud/src/protocol/alcs\alcs_server.c ****     }
 2342              		.loc 1 343 9
 2343 0054 A685     		mv	a1,s1
 342:C:/Users/stapi/OneDrive/Desktop/GD32VW553/V1_MQTT_OK/GD32VW55X_Wifi_BLE_SDK/GD32VW55x_RELEASE_V1.0.2/MSDK/cloud/alicloud/src/protocol/alcs\alcs_server.c ****         strcpy(lst->revocation, seqlist);
 2344              		.loc 1 342 25
 2345 0056 08CC     		sw	a0,24(s0)
 343:C:/Users/stapi/OneDrive/Desktop/GD32VW553/V1_MQTT_OK/GD32VW55X_Wifi_BLE_SDK/GD32VW55x_RELEASE_V1.0.2/MSDK/cloud/alicloud/src/protocol/alcs\alcs_server.c ****     }
 2346              		.loc 1 343 9 is_stmt 1
 2347 0058 97000000 		call	strcpy
 2347      E7800000 
 2348              	.LVL284:
 2349              	.L101:
 345:C:/Users/stapi/OneDrive/Desktop/GD32VW553/V1_MQTT_OK/GD32VW55X_Wifi_BLE_SDK/GD32VW55x_RELEASE_V1.0.2/MSDK/cloud/alicloud/src/protocol/alcs\alcs_server.c **** 
 2350              		.loc 1 345 5
 2351 0060 0844     		lw	a0,8(s0)
 2352 0062 97000000 		call	HAL_MutexUnlock
 2352      E7800000 
 2353              	.LVL285:
 347:C:/Users/stapi/OneDrive/Desktop/GD32VW553/V1_MQTT_OK/GD32VW55X_Wifi_BLE_SDK/GD32VW55x_RELEASE_V1.0.2/MSDK/cloud/alicloud/src/protocol/alcs\alcs_server.c **** }
 2354              		.loc 1 347 5
 348:C:/Users/stapi/OneDrive/Desktop/GD32VW553/V1_MQTT_OK/GD32VW55X_Wifi_BLE_SDK/GD32VW55x_RELEASE_V1.0.2/MSDK/cloud/alicloud/src/protocol/alcs\alcs_server.c **** 
 2355              		.loc 1 348 1 is_stmt 0
 2356 006a 0145     		li	a0,0
 2357 006c 17030000 		tail	__riscv_restore_3
 2357      67000300 
 2358              		.cfi_restore 18
 2359              		.cfi_restore 9
 2360              		.cfi_restore 8
 2361              		.cfi_restore 1
 2362              		.cfi_def_cfa_offset 0
 2363              		.cfi_endproc
 2364              	.LFE26:
 2366              		.section	.text.send_err_rsp,"ax",@progbits
 2367              		.align	1
 2368              		.globl	send_err_rsp
 2370              	send_err_rsp:
 2371              	.LFB27:
 507:C:/Users/stapi/OneDrive/Desktop/GD32VW553/V1_MQTT_OK/GD32VW55X_Wifi_BLE_SDK/GD32VW55x_RELEASE_V1.0.2/MSDK/cloud/alicloud/src/protocol/alcs\alcs_server.c ****     CoAPMessage sendMsg;
 2372              		.loc 1 507 1 is_stmt 1
 2373              		.cfi_startproc
 2374              	.LVL286:
 2375 0000 17030000 		call	t0,__riscv_save_3
 2375      E7020300 
 2376              		.cfi_offset 18, -16
 2377              		.cfi_offset 9, -12
 2378              		.cfi_offset 8, -8
 2379              		.cfi_offset 1, -4
 2380              		.cfi_def_cfa_offset 16
 508:C:/Users/stapi/OneDrive/Desktop/GD32VW553/V1_MQTT_OK/GD32VW55X_Wifi_BLE_SDK/GD32VW55x_RELEASE_V1.0.2/MSDK/cloud/alicloud/src/protocol/alcs\alcs_server.c ****     CoAPLenString payload = {0};
 2381              		.loc 1 508 5
 509:C:/Users/stapi/OneDrive/Desktop/GD32VW553/V1_MQTT_OK/GD32VW55X_Wifi_BLE_SDK/GD32VW55x_RELEASE_V1.0.2/MSDK/cloud/alicloud/src/protocol/alcs\alcs_server.c ****     alcs_msg_init(ctx, &sendMsg, code, COAP_MESSAGE_TYPE_ACK, 0, &payload, NULL);
 2382              		.loc 1 509 5
 507:C:/Users/stapi/OneDrive/Desktop/GD32VW553/V1_MQTT_OK/GD32VW55X_Wifi_BLE_SDK/GD32VW55x_RELEASE_V1.0.2/MSDK/cloud/alicloud/src/protocol/alcs\alcs_server.c ****     CoAPMessage sendMsg;
 2383              		.loc 1 507 1 is_stmt 0
 2384 0008 3571     		addi	sp,sp,-160
 2385              		.cfi_def_cfa_offset 176
 507:C:/Users/stapi/OneDrive/Desktop/GD32VW553/V1_MQTT_OK/GD32VW55X_Wifi_BLE_SDK/GD32VW55x_RELEASE_V1.0.2/MSDK/cloud/alicloud/src/protocol/alcs\alcs_server.c ****     CoAPMessage sendMsg;
 2386              		.loc 1 507 1
 2387 000a 3684     		mv	s0,a3
 2388 000c 2E89     		mv	s2,a1
 510:C:/Users/stapi/OneDrive/Desktop/GD32VW553/V1_MQTT_OK/GD32VW55X_Wifi_BLE_SDK/GD32VW55x_RELEASE_V1.0.2/MSDK/cloud/alicloud/src/protocol/alcs\alcs_server.c ****     CoAPLenString token = {request->header.tokenlen, request->token};
 2389              		.loc 1 510 5
 2390 000e 0148     		li	a6,0
 2391 0010 3C00     		addi	a5,sp,8
 2392 0012 2C08     		addi	a1,sp,24
 2393              	.LVL287:
 2394 0014 0147     		li	a4,0
 2395 0016 8946     		li	a3,2
 2396              	.LVL288:
 507:C:/Users/stapi/OneDrive/Desktop/GD32VW553/V1_MQTT_OK/GD32VW55X_Wifi_BLE_SDK/GD32VW55x_RELEASE_V1.0.2/MSDK/cloud/alicloud/src/protocol/alcs\alcs_server.c ****     CoAPMessage sendMsg;
 2397              		.loc 1 507 1
 2398 0018 AA84     		mv	s1,a0
 509:C:/Users/stapi/OneDrive/Desktop/GD32VW553/V1_MQTT_OK/GD32VW55X_Wifi_BLE_SDK/GD32VW55x_RELEASE_V1.0.2/MSDK/cloud/alicloud/src/protocol/alcs\alcs_server.c ****     alcs_msg_init(ctx, &sendMsg, code, COAP_MESSAGE_TYPE_ACK, 0, &payload, NULL);
 2399              		.loc 1 509 19
 2400 001a 02C4     		sw	zero,8(sp)
 2401 001c 02C6     		sw	zero,12(sp)
 510:C:/Users/stapi/OneDrive/Desktop/GD32VW553/V1_MQTT_OK/GD32VW55X_Wifi_BLE_SDK/GD32VW55x_RELEASE_V1.0.2/MSDK/cloud/alicloud/src/protocol/alcs\alcs_server.c ****     CoAPLenString token = {request->header.tokenlen, request->token};
 2402              		.loc 1 510 5 is_stmt 1
 2403 001e 97000000 		call	alcs_msg_init
 2403      E7800000 
 2404              	.LVL289:
 511:C:/Users/stapi/OneDrive/Desktop/GD32VW553/V1_MQTT_OK/GD32VW55X_Wifi_BLE_SDK/GD32VW55x_RELEASE_V1.0.2/MSDK/cloud/alicloud/src/protocol/alcs\alcs_server.c ****     alcs_sendrsp(ctx, addr, &sendMsg, 1, request->header.msgid, &token);
 2405              		.loc 1 511 5
 511:C:/Users/stapi/OneDrive/Desktop/GD32VW553/V1_MQTT_OK/GD32VW55X_Wifi_BLE_SDK/GD32VW55x_RELEASE_V1.0.2/MSDK/cloud/alicloud/src/protocol/alcs\alcs_server.c ****     alcs_sendrsp(ctx, addr, &sendMsg, 1, request->header.msgid, &token);
 2406              		.loc 1 511 43 is_stmt 0
 2407 0026 1C40     		lw	a5,0(s0)
 512:C:/Users/stapi/OneDrive/Desktop/GD32VW553/V1_MQTT_OK/GD32VW55X_Wifi_BLE_SDK/GD32VW55x_RELEASE_V1.0.2/MSDK/cloud/alicloud/src/protocol/alcs\alcs_server.c **** }
 2408              		.loc 1 512 5
 2409 0028 03572400 		lhu	a4,2(s0)
 2410 002c 3008     		addi	a2,sp,24
 511:C:/Users/stapi/OneDrive/Desktop/GD32VW553/V1_MQTT_OK/GD32VW55X_Wifi_BLE_SDK/GD32VW55x_RELEASE_V1.0.2/MSDK/cloud/alicloud/src/protocol/alcs\alcs_server.c ****     alcs_sendrsp(ctx, addr, &sendMsg, 1, request->header.msgid, &token);
 2411              		.loc 1 511 43
 2412 002e 9183     		srli	a5,a5,4
 2413 0030 BD8B     		andi	a5,a5,15
 2414 0032 3EC8     		sw	a5,16(sp)
 511:C:/Users/stapi/OneDrive/Desktop/GD32VW553/V1_MQTT_OK/GD32VW55X_Wifi_BLE_SDK/GD32VW55x_RELEASE_V1.0.2/MSDK/cloud/alicloud/src/protocol/alcs\alcs_server.c ****     alcs_sendrsp(ctx, addr, &sendMsg, 1, request->header.msgid, &token);
 2415              		.loc 1 511 54
 2416 0034 93074400 		addi	a5,s0,4
 511:C:/Users/stapi/OneDrive/Desktop/GD32VW553/V1_MQTT_OK/GD32VW55X_Wifi_BLE_SDK/GD32VW55x_RELEASE_V1.0.2/MSDK/cloud/alicloud/src/protocol/alcs\alcs_server.c ****     alcs_sendrsp(ctx, addr, &sendMsg, 1, request->header.msgid, &token);
 2417              		.loc 1 511 19
 2418 0038 3ECA     		sw	a5,20(sp)
 512:C:/Users/stapi/OneDrive/Desktop/GD32VW553/V1_MQTT_OK/GD32VW55X_Wifi_BLE_SDK/GD32VW55x_RELEASE_V1.0.2/MSDK/cloud/alicloud/src/protocol/alcs\alcs_server.c **** }
 2419              		.loc 1 512 5 is_stmt 1
 2420 003a 8546     		li	a3,1
 2421 003c 1C08     		addi	a5,sp,16
 2422 003e CA85     		mv	a1,s2
 2423 0040 2685     		mv	a0,s1
 2424 0042 97000000 		call	alcs_sendrsp
 2424      E7800000 
 2425              	.LVL290:
 513:C:/Users/stapi/OneDrive/Desktop/GD32VW553/V1_MQTT_OK/GD32VW55X_Wifi_BLE_SDK/GD32VW55x_RELEASE_V1.0.2/MSDK/cloud/alicloud/src/protocol/alcs\alcs_server.c **** 
 2426              		.loc 1 513 1 is_stmt 0
 2427 004a 0D61     		addi	sp,sp,160
 2428              		.cfi_def_cfa_offset 0
 2429 004c 17030000 		tail	__riscv_restore_3
 2429      67000300 
 2430              		.cfi_restore 18
 2431              		.cfi_restore 9
 2432              		.cfi_restore 8
 2433              		.cfi_restore 1
 2434              		.cfi_def_cfa_offset -16
 2435              		.cfi_endproc
 2436              	.LFE27:
 2438              		.section	.text.call_cb,"ax",@progbits
 2439              		.align	1
 2440              		.globl	call_cb
 2442              	call_cb:
 2443              	.LFB28:
 517:C:/Users/stapi/OneDrive/Desktop/GD32VW553/V1_MQTT_OK/GD32VW55X_Wifi_BLE_SDK/GD32VW55x_RELEASE_V1.0.2/MSDK/cloud/alicloud/src/protocol/alcs\alcs_server.c ****     CoAPMessage tmpMsg;
 2444              		.loc 1 517 1 is_stmt 1
 2445              		.cfi_startproc
 2446              	.LVL291:
 2447 0000 17030000 		call	t0,__riscv_save_7
 2447      E7020300 
 2448              		.cfi_offset 22, -32
 2449              		.cfi_offset 21, -28
 2450              		.cfi_offset 20, -24
 2451              		.cfi_offset 19, -20
 2452              		.cfi_offset 18, -16
 2453              		.cfi_offset 9, -12
 2454              		.cfi_offset 8, -8
 2455              		.cfi_offset 1, -4
 2456              		.cfi_def_cfa_offset 32
 518:C:/Users/stapi/OneDrive/Desktop/GD32VW553/V1_MQTT_OK/GD32VW55X_Wifi_BLE_SDK/GD32VW55x_RELEASE_V1.0.2/MSDK/cloud/alicloud/src/protocol/alcs\alcs_server.c ****     memcpy(&tmpMsg, message, sizeof(CoAPMessage));
 2457              		.loc 1 518 5
 519:C:/Users/stapi/OneDrive/Desktop/GD32VW553/V1_MQTT_OK/GD32VW55X_Wifi_BLE_SDK/GD32VW55x_RELEASE_V1.0.2/MSDK/cloud/alicloud/src/protocol/alcs\alcs_server.c **** 
 2458              		.loc 1 519 5
 517:C:/Users/stapi/OneDrive/Desktop/GD32VW553/V1_MQTT_OK/GD32VW55X_Wifi_BLE_SDK/GD32VW55x_RELEASE_V1.0.2/MSDK/cloud/alicloud/src/protocol/alcs\alcs_server.c ****     CoAPMessage tmpMsg;
 2459              		.loc 1 517 1 is_stmt 0
 2460 0008 7571     		addi	sp,sp,-144
 2461              		.cfi_def_cfa_offset 176
 517:C:/Users/stapi/OneDrive/Desktop/GD32VW553/V1_MQTT_OK/GD32VW55X_Wifi_BLE_SDK/GD32VW55x_RELEASE_V1.0.2/MSDK/cloud/alicloud/src/protocol/alcs\alcs_server.c ****     CoAPMessage tmpMsg;
 2462              		.loc 1 517 1
 2463 000a 2A8A     		mv	s4,a0
 2464 000c AE8A     		mv	s5,a1
 2465 000e 328B     		mv	s6,a2
 2466 0010 3A89     		mv	s2,a4
 519:C:/Users/stapi/OneDrive/Desktop/GD32VW553/V1_MQTT_OK/GD32VW55X_Wifi_BLE_SDK/GD32VW55x_RELEASE_V1.0.2/MSDK/cloud/alicloud/src/protocol/alcs\alcs_server.c **** 
 2467              		.loc 1 519 5
 2468 0012 13068008 		li	a2,136
 2469              	.LVL292:
 2470 0016 B685     		mv	a1,a3
 2471              	.LVL293:
 2472 0018 2800     		addi	a0,sp,8
 2473              	.LVL294:
 517:C:/Users/stapi/OneDrive/Desktop/GD32VW553/V1_MQTT_OK/GD32VW55X_Wifi_BLE_SDK/GD32VW55x_RELEASE_V1.0.2/MSDK/cloud/alicloud/src/protocol/alcs\alcs_server.c ****     CoAPMessage tmpMsg;
 2474              		.loc 1 517 1
 2475 001a B684     		mv	s1,a3
 2476 001c 3E84     		mv	s0,a5
 2477 001e C289     		mv	s3,a6
 519:C:/Users/stapi/OneDrive/Desktop/GD32VW553/V1_MQTT_OK/GD32VW55X_Wifi_BLE_SDK/GD32VW55x_RELEASE_V1.0.2/MSDK/cloud/alicloud/src/protocol/alcs\alcs_server.c **** 
 2478              		.loc 1 519 5
 2479 0020 97000000 		call	memcpy
 2479      E7800000 
 2480              	.LVL295:
 521:C:/Users/stapi/OneDrive/Desktop/GD32VW553/V1_MQTT_OK/GD32VW55X_Wifi_BLE_SDK/GD32VW55x_RELEASE_V1.0.2/MSDK/cloud/alicloud/src/protocol/alcs\alcs_server.c ****         int len = alcs_decrypt((const char *)message->payload, message->payloadlen, key, buf);
 2481              		.loc 1 521 5 is_stmt 1
 521:C:/Users/stapi/OneDrive/Desktop/GD32VW553/V1_MQTT_OK/GD32VW55X_Wifi_BLE_SDK/GD32VW55x_RELEASE_V1.0.2/MSDK/cloud/alicloud/src/protocol/alcs\alcs_server.c ****         int len = alcs_decrypt((const char *)message->payload, message->payloadlen, key, buf);
 2482              		.loc 1 521 8 is_stmt 0
 2483 0028 63090902 		beq	s2,zero,.L114
 521:C:/Users/stapi/OneDrive/Desktop/GD32VW553/V1_MQTT_OK/GD32VW55X_Wifi_BLE_SDK/GD32VW55x_RELEASE_V1.0.2/MSDK/cloud/alicloud/src/protocol/alcs\alcs_server.c ****         int len = alcs_decrypt((const char *)message->payload, message->payloadlen, key, buf);
 2484              		.loc 1 521 13 discriminator 1
 2485 002c 1DC4     		beq	s0,zero,.L114
 2486              	.LBB100:
 522:C:/Users/stapi/OneDrive/Desktop/GD32VW553/V1_MQTT_OK/GD32VW55X_Wifi_BLE_SDK/GD32VW55x_RELEASE_V1.0.2/MSDK/cloud/alicloud/src/protocol/alcs\alcs_server.c ****         tmpMsg.payload = (unsigned char *)buf;
 2487              		.loc 1 522 9 is_stmt 1
 522:C:/Users/stapi/OneDrive/Desktop/GD32VW553/V1_MQTT_OK/GD32VW55X_Wifi_BLE_SDK/GD32VW55x_RELEASE_V1.0.2/MSDK/cloud/alicloud/src/protocol/alcs\alcs_server.c ****         tmpMsg.payload = (unsigned char *)buf;
 2488              		.loc 1 522 19 is_stmt 0
 2489 002e 83D5E406 		lhu	a1,110(s1)
 2490 0032 A858     		lw	a0,112(s1)
 2491 0034 A286     		mv	a3,s0
 2492 0036 4A86     		mv	a2,s2
 2493 0038 97000000 		call	alcs_decrypt
 2493      E7800000 
 2494              	.LVL296:
 523:C:/Users/stapi/OneDrive/Desktop/GD32VW553/V1_MQTT_OK/GD32VW55X_Wifi_BLE_SDK/GD32VW55x_RELEASE_V1.0.2/MSDK/cloud/alicloud/src/protocol/alcs\alcs_server.c ****         tmpMsg.payloadlen = len;
 2495              		.loc 1 523 9 is_stmt 1
 524:C:/Users/stapi/OneDrive/Desktop/GD32VW553/V1_MQTT_OK/GD32VW55X_Wifi_BLE_SDK/GD32VW55x_RELEASE_V1.0.2/MSDK/cloud/alicloud/src/protocol/alcs\alcs_server.c **** #ifdef LOG_REPORT_TO_CLOUD
 2496              		.loc 1 524 27 is_stmt 0
 2497 0040 231BA106 		sh	a0,118(sp)
 523:C:/Users/stapi/OneDrive/Desktop/GD32VW553/V1_MQTT_OK/GD32VW55X_Wifi_BLE_SDK/GD32VW55x_RELEASE_V1.0.2/MSDK/cloud/alicloud/src/protocol/alcs\alcs_server.c ****         tmpMsg.payloadlen = len;
 2498              		.loc 1 523 24
 2499 0044 A2DC     		sw	s0,120(sp)
 524:C:/Users/stapi/OneDrive/Desktop/GD32VW553/V1_MQTT_OK/GD32VW55X_Wifi_BLE_SDK/GD32VW55x_RELEASE_V1.0.2/MSDK/cloud/alicloud/src/protocol/alcs\alcs_server.c **** #ifdef LOG_REPORT_TO_CLOUD
 2500              		.loc 1 524 9 is_stmt 1
 2501              	.LVL297:
 2502              	.L115:
 2503              	.LBE100:
 533:C:/Users/stapi/OneDrive/Desktop/GD32VW553/V1_MQTT_OK/GD32VW55X_Wifi_BLE_SDK/GD32VW55x_RELEASE_V1.0.2/MSDK/cloud/alicloud/src/protocol/alcs\alcs_server.c **** }
 2504              		.loc 1 533 5
 2505 0046 3400     		addi	a3,sp,8
 2506 0048 5A86     		mv	a2,s6
 2507 004a D685     		mv	a1,s5
 2508 004c 5285     		mv	a0,s4
 2509 004e 8299     		jalr	s3
 2510              	.LVL298:
 534:C:/Users/stapi/OneDrive/Desktop/GD32VW553/V1_MQTT_OK/GD32VW55X_Wifi_BLE_SDK/GD32VW55x_RELEASE_V1.0.2/MSDK/cloud/alicloud/src/protocol/alcs\alcs_server.c **** 
 2511              		.loc 1 534 1 is_stmt 0
 2512 0050 4961     		addi	sp,sp,144
 2513              		.cfi_remember_state
 2514              		.cfi_def_cfa_offset 0
 2515 0052 17030000 		tail	__riscv_restore_7
 2515      67000300 
 2516              		.cfi_restore 22
 2517              		.cfi_restore 21
 2518              		.cfi_restore 20
 2519              		.cfi_restore 19
 2520              		.cfi_restore 18
 2521              		.cfi_restore 9
 2522              		.cfi_restore 8
 2523              		.cfi_restore 1
 2524              		.cfi_def_cfa_offset -32
 2525              	.L114:
 2526              		.cfi_restore_state
 530:C:/Users/stapi/OneDrive/Desktop/GD32VW553/V1_MQTT_OK/GD32VW55X_Wifi_BLE_SDK/GD32VW55x_RELEASE_V1.0.2/MSDK/cloud/alicloud/src/protocol/alcs\alcs_server.c ****         tmpMsg.payloadlen = 0;
 2527              		.loc 1 530 9 is_stmt 1
 530:C:/Users/stapi/OneDrive/Desktop/GD32VW553/V1_MQTT_OK/GD32VW55X_Wifi_BLE_SDK/GD32VW55x_RELEASE_V1.0.2/MSDK/cloud/alicloud/src/protocol/alcs\alcs_server.c ****         tmpMsg.payloadlen = 0;
 2528              		.loc 1 530 24 is_stmt 0
 2529 005a 82DC     		sw	zero,120(sp)
 531:C:/Users/stapi/OneDrive/Desktop/GD32VW553/V1_MQTT_OK/GD32VW55X_Wifi_BLE_SDK/GD32VW55x_RELEASE_V1.0.2/MSDK/cloud/alicloud/src/protocol/alcs\alcs_server.c ****     }
 2530              		.loc 1 531 9 is_stmt 1
 531:C:/Users/stapi/OneDrive/Desktop/GD32VW553/V1_MQTT_OK/GD32VW55X_Wifi_BLE_SDK/GD32VW55x_RELEASE_V1.0.2/MSDK/cloud/alicloud/src/protocol/alcs\alcs_server.c ****     }
 2531              		.loc 1 531 27 is_stmt 0
 2532 005c 231B0106 		sh	zero,118(sp)
 2533 0060 DDB7     		j	.L115
 2534              		.cfi_endproc
 2535              	.LFE28:
 2537              		.section	.text.add_request,"ax",@progbits
 2538              		.align	1
 2539              		.globl	add_request
 2541              	add_request:
 2542              	.LFB30:
 557:C:/Users/stapi/OneDrive/Desktop/GD32VW553/V1_MQTT_OK/GD32VW55X_Wifi_BLE_SDK/GD32VW55x_RELEASE_V1.0.2/MSDK/cloud/alicloud/src/protocol/alcs\alcs_server.c **** 
 558:C:/Users/stapi/OneDrive/Desktop/GD32VW553/V1_MQTT_OK/GD32VW55X_Wifi_BLE_SDK/GD32VW55x_RELEASE_V1.0.2/MSDK/cloud/alicloud/src/protocol/alcs\alcs_server.c **** void add_request (CoAPMessage *message, int isGroup, int id, char* group_key, NetworkAddr *remote)
 559:C:/Users/stapi/OneDrive/Desktop/GD32VW553/V1_MQTT_OK/GD32VW55X_Wifi_BLE_SDK/GD32VW55x_RELEASE_V1.0.2/MSDK/cloud/alicloud/src/protocol/alcs\alcs_server.c **** {
 2543              		.loc 1 559 1 is_stmt 1
 2544              		.cfi_startproc
 2545              	.LVL299:
 2546 0000 17030000 		call	t0,__riscv_save_6
 2546      E7020300 
 2547              		.cfi_offset 21, -28
 2548              		.cfi_offset 20, -24
 2549              		.cfi_offset 19, -20
 2550              		.cfi_offset 18, -16
 2551              		.cfi_offset 9, -12
 2552              		.cfi_offset 8, -8
 2553              		.cfi_offset 1, -4
 2554              		.cfi_def_cfa_offset 32
 560:C:/Users/stapi/OneDrive/Desktop/GD32VW553/V1_MQTT_OK/GD32VW55X_Wifi_BLE_SDK/GD32VW55x_RELEASE_V1.0.2/MSDK/cloud/alicloud/src/protocol/alcs\alcs_server.c ****     unsigned int noResponseVal;
 2555              		.loc 1 560 5
 561:C:/Users/stapi/OneDrive/Desktop/GD32VW553/V1_MQTT_OK/GD32VW55X_Wifi_BLE_SDK/GD32VW55x_RELEASE_V1.0.2/MSDK/cloud/alicloud/src/protocol/alcs\alcs_server.c ****     if (CoAPUintOption_get (message, COAP_OPTION_NO_RESPONSE, &noResponseVal) == ALCS_SUCCESS && no
 2556              		.loc 1 561 5
 559:C:/Users/stapi/OneDrive/Desktop/GD32VW553/V1_MQTT_OK/GD32VW55X_Wifi_BLE_SDK/GD32VW55x_RELEASE_V1.0.2/MSDK/cloud/alicloud/src/protocol/alcs\alcs_server.c ****     unsigned int noResponseVal;
 2557              		.loc 1 559 1 is_stmt 0
 2558 0008 4111     		addi	sp,sp,-16
 2559              		.cfi_def_cfa_offset 48
 559:C:/Users/stapi/OneDrive/Desktop/GD32VW553/V1_MQTT_OK/GD32VW55X_Wifi_BLE_SDK/GD32VW55x_RELEASE_V1.0.2/MSDK/cloud/alicloud/src/protocol/alcs\alcs_server.c ****     unsigned int noResponseVal;
 2560              		.loc 1 559 1
 2561 000a AE84     		mv	s1,a1
 2562 000c B28A     		mv	s5,a2
 2563              		.loc 1 561 9
 2564 000e 93052010 		li	a1,258
 2565              	.LVL300:
 2566 0012 3000     		addi	a2,sp,8
 2567              	.LVL301:
 559:C:/Users/stapi/OneDrive/Desktop/GD32VW553/V1_MQTT_OK/GD32VW55X_Wifi_BLE_SDK/GD32VW55x_RELEASE_V1.0.2/MSDK/cloud/alicloud/src/protocol/alcs\alcs_server.c ****     unsigned int noResponseVal;
 2568              		.loc 1 559 1
 2569 0014 2A89     		mv	s2,a0
 2570 0016 B689     		mv	s3,a3
 2571 0018 3A8A     		mv	s4,a4
 2572              		.loc 1 561 9
 2573 001a 97000000 		call	CoAPUintOption_get
 2573      E7800000 
 2574              	.LVL302:
 2575              		.loc 1 561 8
 2576 0022 19E1     		bne	a0,zero,.L124
 2577              		.loc 1 561 95 discriminator 1
 2578 0024 A247     		lw	a5,8(sp)
 2579 0026 D1EF     		bne	a5,zero,.L123
 2580              	.L124:
 562:C:/Users/stapi/OneDrive/Desktop/GD32VW553/V1_MQTT_OK/GD32VW55X_Wifi_BLE_SDK/GD32VW55x_RELEASE_V1.0.2/MSDK/cloud/alicloud/src/protocol/alcs\alcs_server.c ****         return;
 563:C:/Users/stapi/OneDrive/Desktop/GD32VW553/V1_MQTT_OK/GD32VW55X_Wifi_BLE_SDK/GD32VW55x_RELEASE_V1.0.2/MSDK/cloud/alicloud/src/protocol/alcs\alcs_server.c ****     }
 564:C:/Users/stapi/OneDrive/Desktop/GD32VW553/V1_MQTT_OK/GD32VW55X_Wifi_BLE_SDK/GD32VW55x_RELEASE_V1.0.2/MSDK/cloud/alicloud/src/protocol/alcs\alcs_server.c ****     request_item* req = coap_malloc (sizeof(request_item) + (isGroup? GROUPKEYLEN - 1 : 0));
 2581              		.loc 1 564 5 is_stmt 1
 2582              		.loc 1 564 25 is_stmt 0
 2583 0028 13063005 		li	a2,83
 2584 002c 99E0     		bne	s1,zero,.L125
 2585 002e 13060004 		li	a2,64
 2586              	.L125:
 2587              		.loc 1 564 25 discriminator 4
 2588 0032 8145     		li	a1,0
 2589 0034 0145     		li	a0,0
 2590 0036 97000000 		call	LITE_malloc_internal
 2590      E7800000 
 2591              	.LVL303:
 2592 003e 2A84     		mv	s0,a0
 2593              	.LVL304:
 565:C:/Users/stapi/OneDrive/Desktop/GD32VW553/V1_MQTT_OK/GD32VW55X_Wifi_BLE_SDK/GD32VW55x_RELEASE_V1.0.2/MSDK/cloud/alicloud/src/protocol/alcs\alcs_server.c ****     if (req) {
 2594              		.loc 1 565 5 is_stmt 1 discriminator 4
 2595              		.loc 1 565 8 is_stmt 0 discriminator 4
 2596 0040 49C1     		beq	a0,zero,.L123
 2597              	.LBB101:
 566:C:/Users/stapi/OneDrive/Desktop/GD32VW553/V1_MQTT_OK/GD32VW55X_Wifi_BLE_SDK/GD32VW55x_RELEASE_V1.0.2/MSDK/cloud/alicloud/src/protocol/alcs\alcs_server.c ****         memset (req, 0, sizeof(request_item));
 2598              		.loc 1 566 9 is_stmt 1
 2599 0042 13060004 		li	a2,64
 2600 0046 8145     		li	a1,0
 2601 0048 97000000 		call	memset
 2601      E7800000 
 2602              	.LVL305:
 567:C:/Users/stapi/OneDrive/Desktop/GD32VW553/V1_MQTT_OK/GD32VW55X_Wifi_BLE_SDK/GD32VW55x_RELEASE_V1.0.2/MSDK/cloud/alicloud/src/protocol/alcs\alcs_server.c ****         req->isGroup = isGroup;
 2603              		.loc 1 567 9
 2604              		.loc 1 567 22 is_stmt 0
 2605 0050 23069400 		sb	s1,12(s0)
 568:C:/Users/stapi/OneDrive/Desktop/GD32VW553/V1_MQTT_OK/GD32VW55X_Wifi_BLE_SDK/GD32VW55x_RELEASE_V1.0.2/MSDK/cloud/alicloud/src/protocol/alcs\alcs_server.c ****         req->sessionId = id;
 2606              		.loc 1 568 9 is_stmt 1
 2607              		.loc 1 568 24 is_stmt 0
 2608 0054 23245401 		sw	s5,8(s0)
 569:C:/Users/stapi/OneDrive/Desktop/GD32VW553/V1_MQTT_OK/GD32VW55X_Wifi_BLE_SDK/GD32VW55x_RELEASE_V1.0.2/MSDK/cloud/alicloud/src/protocol/alcs\alcs_server.c ****         req->recTime = HAL_UptimeMs();
 2609              		.loc 1 569 9 is_stmt 1
 2610              		.loc 1 569 24 is_stmt 0
 2611 0058 97000000 		call	HAL_UptimeMs
 2611      E7800000 
 2612              	.LVL306:
 2613              		.loc 1 569 22
 2614 0060 08C8     		sw	a0,16(s0)
 2615 0062 4CC8     		sw	a1,20(s0)
 570:C:/Users/stapi/OneDrive/Desktop/GD32VW553/V1_MQTT_OK/GD32VW55X_Wifi_BLE_SDK/GD32VW55x_RELEASE_V1.0.2/MSDK/cloud/alicloud/src/protocol/alcs\alcs_server.c ****         memcpy (req->token, message->token, COAP_MSG_MAX_TOKEN_LEN);
 2616              		.loc 1 570 9 is_stmt 1
 2617 0064 2146     		li	a2,8
 2618 0066 93054900 		addi	a1,s2,4
 2619 006a 2285     		mv	a0,s0
 2620 006c 97000000 		call	memcpy
 2620      E7800000 
 2621              	.LVL307:
 571:C:/Users/stapi/OneDrive/Desktop/GD32VW553/V1_MQTT_OK/GD32VW55X_Wifi_BLE_SDK/GD32VW55x_RELEASE_V1.0.2/MSDK/cloud/alicloud/src/protocol/alcs\alcs_server.c ****         if (remote) {
 2622              		.loc 1 571 9
 2623              		.loc 1 571 12 is_stmt 0
 2624 0074 630A0A00 		beq	s4,zero,.L127
 572:C:/Users/stapi/OneDrive/Desktop/GD32VW553/V1_MQTT_OK/GD32VW55X_Wifi_BLE_SDK/GD32VW55x_RELEASE_V1.0.2/MSDK/cloud/alicloud/src/protocol/alcs\alcs_server.c ****             memcpy (&req->addr, remote, sizeof(NetworkAddr));
 2625              		.loc 1 572 13 is_stmt 1
 2626 0078 4946     		li	a2,18
 2627 007a D285     		mv	a1,s4
 2628 007c 13058401 		addi	a0,s0,24
 2629 0080 97000000 		call	memcpy
 2629      E7800000 
 2630              	.LVL308:
 2631              	.L127:
 573:C:/Users/stapi/OneDrive/Desktop/GD32VW553/V1_MQTT_OK/GD32VW55X_Wifi_BLE_SDK/GD32VW55x_RELEASE_V1.0.2/MSDK/cloud/alicloud/src/protocol/alcs\alcs_server.c ****         }
 574:C:/Users/stapi/OneDrive/Desktop/GD32VW553/V1_MQTT_OK/GD32VW55X_Wifi_BLE_SDK/GD32VW55x_RELEASE_V1.0.2/MSDK/cloud/alicloud/src/protocol/alcs\alcs_server.c ****         if (group_key && isGroup) {
 2632              		.loc 1 574 9
 2633              		.loc 1 574 12 is_stmt 0
 2634 0088 638B0900 		beq	s3,zero,.L128
 2635              		.loc 1 574 23 discriminator 1
 2636 008c 89C8     		beq	s1,zero,.L128
 575:C:/Users/stapi/OneDrive/Desktop/GD32VW553/V1_MQTT_OK/GD32VW55X_Wifi_BLE_SDK/GD32VW55x_RELEASE_V1.0.2/MSDK/cloud/alicloud/src/protocol/alcs\alcs_server.c ****             memcpy (req->groupKey, group_key, GROUPKEYLEN);
 2637              		.loc 1 575 13 is_stmt 1
 2638 008e 5146     		li	a2,20
 2639 0090 CE85     		mv	a1,s3
 2640 0092 13058403 		addi	a0,s0,56
 2641 0096 97000000 		call	memcpy
 2641      E7800000 
 2642              	.LVL309:
 2643              	.L128:
 576:C:/Users/stapi/OneDrive/Desktop/GD32VW553/V1_MQTT_OK/GD32VW55X_Wifi_BLE_SDK/GD32VW55x_RELEASE_V1.0.2/MSDK/cloud/alicloud/src/protocol/alcs\alcs_server.c ****         }
 577:C:/Users/stapi/OneDrive/Desktop/GD32VW553/V1_MQTT_OK/GD32VW55X_Wifi_BLE_SDK/GD32VW55x_RELEASE_V1.0.2/MSDK/cloud/alicloud/src/protocol/alcs\alcs_server.c **** 
 578:C:/Users/stapi/OneDrive/Desktop/GD32VW553/V1_MQTT_OK/GD32VW55X_Wifi_BLE_SDK/GD32VW55x_RELEASE_V1.0.2/MSDK/cloud/alicloud/src/protocol/alcs\alcs_server.c ****         unsigned int obsVal;
 2644              		.loc 1 578 9
 579:C:/Users/stapi/OneDrive/Desktop/GD32VW553/V1_MQTT_OK/GD32VW55X_Wifi_BLE_SDK/GD32VW55x_RELEASE_V1.0.2/MSDK/cloud/alicloud/src/protocol/alcs\alcs_server.c ****         if (CoAPUintOption_get (message, COAP_OPTION_OBSERVE, &obsVal) == ALCS_SUCCESS && obsVal ==
 2645              		.loc 1 579 9
 2646              		.loc 1 579 13 is_stmt 0
 2647 009e 7000     		addi	a2,sp,12
 2648 00a0 9945     		li	a1,6
 2649 00a2 4A85     		mv	a0,s2
 2650 00a4 97000000 		call	CoAPUintOption_get
 2650      E7800000 
 2651              	.LVL310:
 2652              		.loc 1 579 88
 2653 00ac B247     		lw	a5,12(sp)
 2654 00ae 5D8D     		or	a0,a0,a5
 2655 00b0 3335A000 		snez	a0,a0
 2656 00b4 A306A400 		sb	a0,13(s0)
 580:C:/Users/stapi/OneDrive/Desktop/GD32VW553/V1_MQTT_OK/GD32VW55X_Wifi_BLE_SDK/GD32VW55x_RELEASE_V1.0.2/MSDK/cloud/alicloud/src/protocol/alcs\alcs_server.c ****             req->observe = 0;
 581:C:/Users/stapi/OneDrive/Desktop/GD32VW553/V1_MQTT_OK/GD32VW55X_Wifi_BLE_SDK/GD32VW55x_RELEASE_V1.0.2/MSDK/cloud/alicloud/src/protocol/alcs\alcs_server.c ****         } else {
 582:C:/Users/stapi/OneDrive/Desktop/GD32VW553/V1_MQTT_OK/GD32VW55X_Wifi_BLE_SDK/GD32VW55x_RELEASE_V1.0.2/MSDK/cloud/alicloud/src/protocol/alcs\alcs_server.c ****             req->observe = 1;
 583:C:/Users/stapi/OneDrive/Desktop/GD32VW553/V1_MQTT_OK/GD32VW55X_Wifi_BLE_SDK/GD32VW55x_RELEASE_V1.0.2/MSDK/cloud/alicloud/src/protocol/alcs\alcs_server.c ****         }
 584:C:/Users/stapi/OneDrive/Desktop/GD32VW553/V1_MQTT_OK/GD32VW55X_Wifi_BLE_SDK/GD32VW55x_RELEASE_V1.0.2/MSDK/cloud/alicloud/src/protocol/alcs\alcs_server.c **** 
 585:C:/Users/stapi/OneDrive/Desktop/GD32VW553/V1_MQTT_OK/GD32VW55X_Wifi_BLE_SDK/GD32VW55x_RELEASE_V1.0.2/MSDK/cloud/alicloud/src/protocol/alcs\alcs_server.c ****         add_request_to_list (req);
 2657              		.loc 1 585 9 is_stmt 1
 2658 00b8 2285     		mv	a0,s0
 2659 00ba 97000000 		call	add_request_to_list
 2659      E7800000 
 2660              	.LVL311:
 2661              	.L123:
 2662              	.LBE101:
 586:C:/Users/stapi/OneDrive/Desktop/GD32VW553/V1_MQTT_OK/GD32VW55X_Wifi_BLE_SDK/GD32VW55x_RELEASE_V1.0.2/MSDK/cloud/alicloud/src/protocol/alcs\alcs_server.c ****     }
 587:C:/Users/stapi/OneDrive/Desktop/GD32VW553/V1_MQTT_OK/GD32VW55X_Wifi_BLE_SDK/GD32VW55x_RELEASE_V1.0.2/MSDK/cloud/alicloud/src/protocol/alcs\alcs_server.c **** }
 2663              		.loc 1 587 1 is_stmt 0
 2664 00c2 4101     		addi	sp,sp,16
 2665              		.cfi_def_cfa_offset 0
 2666 00c4 17030000 		tail	__riscv_restore_6
 2666      67000300 
 2667              		.cfi_restore 21
 2668              		.cfi_restore 20
 2669              		.cfi_restore 19
 2670              		.cfi_restore 18
 2671              		.cfi_restore 9
 2672              		.cfi_restore 8
 2673              		.cfi_restore 1
 2674              		.cfi_def_cfa_offset -32
 2675              		.cfi_endproc
 2676              	.LFE30:
 2678              		.section	.rodata.p2p_msg_handler.str1.4,"aMS",@progbits,1
 2679              		.align	2
 2680              	.LC41:
 2681 0000 7032705F 		.string	"p2p_msg_handler, sessionID:%d"
 2681      6D73675F 
 2681      68616E64 
 2681      6C65722C 
 2681      20736573 
 2682 001e 0000     		.align	2
 2683              	.LC42:
 2684 0020 44757000 		.string	"Dup"
 2685              		.align	2
 2686              	.LC43:
 2687 0024 696E7661 		.string	"invalid seqid"
 2687      6C696420 
 2687      73657169 
 2687      6400
 2688 0032 0000     		.align	2
 2689              	.LC44:
 2690 0034 7032705F 		.string	"p2p_msg_handler, checksum isn't match"
 2690      6D73675F 
 2690      68616E64 
 2690      6C65722C 
 2690      20636865 
 2691 005a 0000     		.align	2
 2692              	.LC45:
 2693 005c 6E656564 		.string	"need auth, path:%s, from:%s"
 2693      20617574 
 2693      682C2070 
 2693      6174683A 
 2693      25732C20 
 2694              		.section	.text.p2p_msg_handler,"ax",@progbits
 2695              		.align	1
 2696              		.globl	p2p_msg_handler
 2698              	p2p_msg_handler:
 2699              	.LFB31:
 588:C:/Users/stapi/OneDrive/Desktop/GD32VW553/V1_MQTT_OK/GD32VW55X_Wifi_BLE_SDK/GD32VW55x_RELEASE_V1.0.2/MSDK/cloud/alicloud/src/protocol/alcs\alcs_server.c **** 
 589:C:/Users/stapi/OneDrive/Desktop/GD32VW553/V1_MQTT_OK/GD32VW55X_Wifi_BLE_SDK/GD32VW55x_RELEASE_V1.0.2/MSDK/cloud/alicloud/src/protocol/alcs\alcs_server.c **** #ifdef ALCS_GROUP_COMM_ENABLE
 590:C:/Users/stapi/OneDrive/Desktop/GD32VW553/V1_MQTT_OK/GD32VW55X_Wifi_BLE_SDK/GD32VW55x_RELEASE_V1.0.2/MSDK/cloud/alicloud/src/protocol/alcs\alcs_server.c **** void group_msg_handler (CoAPContext *context, const char *path, NetworkAddr *remote, CoAPMessage *m
 591:C:/Users/stapi/OneDrive/Desktop/GD32VW553/V1_MQTT_OK/GD32VW55X_Wifi_BLE_SDK/GD32VW55x_RELEASE_V1.0.2/MSDK/cloud/alicloud/src/protocol/alcs\alcs_server.c **** {
 592:C:/Users/stapi/OneDrive/Desktop/GD32VW553/V1_MQTT_OK/GD32VW55X_Wifi_BLE_SDK/GD32VW55x_RELEASE_V1.0.2/MSDK/cloud/alicloud/src/protocol/alcs\alcs_server.c ****     int seq;
 593:C:/Users/stapi/OneDrive/Desktop/GD32VW553/V1_MQTT_OK/GD32VW55X_Wifi_BLE_SDK/GD32VW55x_RELEASE_V1.0.2/MSDK/cloud/alicloud/src/protocol/alcs\alcs_server.c ****     int tag;
 594:C:/Users/stapi/OneDrive/Desktop/GD32VW553/V1_MQTT_OK/GD32VW55X_Wifi_BLE_SDK/GD32VW55x_RELEASE_V1.0.2/MSDK/cloud/alicloud/src/protocol/alcs\alcs_server.c ****     char ak[Group_AK_LEN] = {0};
 595:C:/Users/stapi/OneDrive/Desktop/GD32VW553/V1_MQTT_OK/GD32VW55X_Wifi_BLE_SDK/GD32VW55x_RELEASE_V1.0.2/MSDK/cloud/alicloud/src/protocol/alcs\alcs_server.c ****     char group_id[Group_MAX_ID_len] = {0};
 596:C:/Users/stapi/OneDrive/Desktop/GD32VW553/V1_MQTT_OK/GD32VW55X_Wifi_BLE_SDK/GD32VW55x_RELEASE_V1.0.2/MSDK/cloud/alicloud/src/protocol/alcs\alcs_server.c ****     char group_key[GROUPKEYLEN];
 597:C:/Users/stapi/OneDrive/Desktop/GD32VW553/V1_MQTT_OK/GD32VW55X_Wifi_BLE_SDK/GD32VW55x_RELEASE_V1.0.2/MSDK/cloud/alicloud/src/protocol/alcs\alcs_server.c **** 
 598:C:/Users/stapi/OneDrive/Desktop/GD32VW553/V1_MQTT_OK/GD32VW55X_Wifi_BLE_SDK/GD32VW55x_RELEASE_V1.0.2/MSDK/cloud/alicloud/src/protocol/alcs\alcs_server.c ****     get_message_group_info (message, &seq, ak, group_id);
 599:C:/Users/stapi/OneDrive/Desktop/GD32VW553/V1_MQTT_OK/GD32VW55X_Wifi_BLE_SDK/GD32VW55x_RELEASE_V1.0.2/MSDK/cloud/alicloud/src/protocol/alcs\alcs_server.c **** 
 600:C:/Users/stapi/OneDrive/Desktop/GD32VW553/V1_MQTT_OK/GD32VW55X_Wifi_BLE_SDK/GD32VW55x_RELEASE_V1.0.2/MSDK/cloud/alicloud/src/protocol/alcs\alcs_server.c ****     int rt = check_and_get_group_info (message, group_id, ak, &tag, group_key );
 601:C:/Users/stapi/OneDrive/Desktop/GD32VW553/V1_MQTT_OK/GD32VW55X_Wifi_BLE_SDK/GD32VW55x_RELEASE_V1.0.2/MSDK/cloud/alicloud/src/protocol/alcs\alcs_server.c ****     if (rt == ALCS_AUTH_INVALIDPARAM || rt == ALCS_AUTH_INTERNALERROR) {
 602:C:/Users/stapi/OneDrive/Desktop/GD32VW553/V1_MQTT_OK/GD32VW55X_Wifi_BLE_SDK/GD32VW55x_RELEASE_V1.0.2/MSDK/cloud/alicloud/src/protocol/alcs\alcs_server.c ****         COAP_ERR("receive invalid group[%s] data", group_id);
 603:C:/Users/stapi/OneDrive/Desktop/GD32VW553/V1_MQTT_OK/GD32VW55X_Wifi_BLE_SDK/GD32VW55x_RELEASE_V1.0.2/MSDK/cloud/alicloud/src/protocol/alcs\alcs_server.c ****         return;
 604:C:/Users/stapi/OneDrive/Desktop/GD32VW553/V1_MQTT_OK/GD32VW55X_Wifi_BLE_SDK/GD32VW55x_RELEASE_V1.0.2/MSDK/cloud/alicloud/src/protocol/alcs\alcs_server.c ****     }
 605:C:/Users/stapi/OneDrive/Desktop/GD32VW553/V1_MQTT_OK/GD32VW55X_Wifi_BLE_SDK/GD32VW55x_RELEASE_V1.0.2/MSDK/cloud/alicloud/src/protocol/alcs\alcs_server.c ****     if (rt == ALCS_AUTH_UNMATCHPREFIX || rt == ALCS_AUTH_REVOCATE) {
 606:C:/Users/stapi/OneDrive/Desktop/GD32VW553/V1_MQTT_OK/GD32VW55X_Wifi_BLE_SDK/GD32VW55x_RELEASE_V1.0.2/MSDK/cloud/alicloud/src/protocol/alcs\alcs_server.c ****         char payloadbuf[32];
 607:C:/Users/stapi/OneDrive/Desktop/GD32VW553/V1_MQTT_OK/GD32VW55X_Wifi_BLE_SDK/GD32VW55x_RELEASE_V1.0.2/MSDK/cloud/alicloud/src/protocol/alcs\alcs_server.c ****         HAL_Snprintf (payloadbuf, sizeof(payloadbuf), "{\"code\":%d}", rt);
 608:C:/Users/stapi/OneDrive/Desktop/GD32VW553/V1_MQTT_OK/GD32VW55X_Wifi_BLE_SDK/GD32VW55x_RELEASE_V1.0.2/MSDK/cloud/alicloud/src/protocol/alcs\alcs_server.c **** 
 609:C:/Users/stapi/OneDrive/Desktop/GD32VW553/V1_MQTT_OK/GD32VW55X_Wifi_BLE_SDK/GD32VW55x_RELEASE_V1.0.2/MSDK/cloud/alicloud/src/protocol/alcs\alcs_server.c ****         CoAPMessage rspMsg;
 610:C:/Users/stapi/OneDrive/Desktop/GD32VW553/V1_MQTT_OK/GD32VW55X_Wifi_BLE_SDK/GD32VW55x_RELEASE_V1.0.2/MSDK/cloud/alicloud/src/protocol/alcs\alcs_server.c ****         CoAPLenString payload = {(int)strlen(payloadbuf), (unsigned char *)payloadbuf};
 611:C:/Users/stapi/OneDrive/Desktop/GD32VW553/V1_MQTT_OK/GD32VW55X_Wifi_BLE_SDK/GD32VW55x_RELEASE_V1.0.2/MSDK/cloud/alicloud/src/protocol/alcs\alcs_server.c ****         alcs_msg_init (context, &rspMsg, COAP_MSG_CODE_401_UNAUTHORIZED, COAP_MESSAGE_TYPE_NON, 0, 
 612:C:/Users/stapi/OneDrive/Desktop/GD32VW553/V1_MQTT_OK/GD32VW55X_Wifi_BLE_SDK/GD32VW55x_RELEASE_V1.0.2/MSDK/cloud/alicloud/src/protocol/alcs\alcs_server.c ****         CoAPLenString token = {message->header.tokenlen, message->token};
 613:C:/Users/stapi/OneDrive/Desktop/GD32VW553/V1_MQTT_OK/GD32VW55X_Wifi_BLE_SDK/GD32VW55x_RELEASE_V1.0.2/MSDK/cloud/alicloud/src/protocol/alcs\alcs_server.c ****         alcs_sendrsp (context, remote, &rspMsg, 1, message->header.msgid, &token);
 614:C:/Users/stapi/OneDrive/Desktop/GD32VW553/V1_MQTT_OK/GD32VW55X_Wifi_BLE_SDK/GD32VW55x_RELEASE_V1.0.2/MSDK/cloud/alicloud/src/protocol/alcs\alcs_server.c ****         return;
 615:C:/Users/stapi/OneDrive/Desktop/GD32VW553/V1_MQTT_OK/GD32VW55X_Wifi_BLE_SDK/GD32VW55x_RELEASE_V1.0.2/MSDK/cloud/alicloud/src/protocol/alcs\alcs_server.c ****     }
 616:C:/Users/stapi/OneDrive/Desktop/GD32VW553/V1_MQTT_OK/GD32VW55X_Wifi_BLE_SDK/GD32VW55x_RELEASE_V1.0.2/MSDK/cloud/alicloud/src/protocol/alcs\alcs_server.c **** 
 617:C:/Users/stapi/OneDrive/Desktop/GD32VW553/V1_MQTT_OK/GD32VW55X_Wifi_BLE_SDK/GD32VW55x_RELEASE_V1.0.2/MSDK/cloud/alicloud/src/protocol/alcs\alcs_server.c ****     secure_resource_cb_item* resource = get_resource_by_path (path);
 618:C:/Users/stapi/OneDrive/Desktop/GD32VW553/V1_MQTT_OK/GD32VW55X_Wifi_BLE_SDK/GD32VW55x_RELEASE_V1.0.2/MSDK/cloud/alicloud/src/protocol/alcs\alcs_server.c ****     if (!resource) {
 619:C:/Users/stapi/OneDrive/Desktop/GD32VW553/V1_MQTT_OK/GD32VW55X_Wifi_BLE_SDK/GD32VW55x_RELEASE_V1.0.2/MSDK/cloud/alicloud/src/protocol/alcs\alcs_server.c ****         return;
 620:C:/Users/stapi/OneDrive/Desktop/GD32VW553/V1_MQTT_OK/GD32VW55X_Wifi_BLE_SDK/GD32VW55x_RELEASE_V1.0.2/MSDK/cloud/alicloud/src/protocol/alcs\alcs_server.c ****     }
 621:C:/Users/stapi/OneDrive/Desktop/GD32VW553/V1_MQTT_OK/GD32VW55X_Wifi_BLE_SDK/GD32VW55x_RELEASE_V1.0.2/MSDK/cloud/alicloud/src/protocol/alcs\alcs_server.c **** 
 622:C:/Users/stapi/OneDrive/Desktop/GD32VW553/V1_MQTT_OK/GD32VW55X_Wifi_BLE_SDK/GD32VW55x_RELEASE_V1.0.2/MSDK/cloud/alicloud/src/protocol/alcs\alcs_server.c ****     char* buf = (char*)coap_malloc(message->payloadlen);
 623:C:/Users/stapi/OneDrive/Desktop/GD32VW553/V1_MQTT_OK/GD32VW55X_Wifi_BLE_SDK/GD32VW55x_RELEASE_V1.0.2/MSDK/cloud/alicloud/src/protocol/alcs\alcs_server.c ****     if (buf) {
 624:C:/Users/stapi/OneDrive/Desktop/GD32VW553/V1_MQTT_OK/GD32VW55X_Wifi_BLE_SDK/GD32VW55x_RELEASE_V1.0.2/MSDK/cloud/alicloud/src/protocol/alcs\alcs_server.c ****         CoAPMessage tmpMsg;
 625:C:/Users/stapi/OneDrive/Desktop/GD32VW553/V1_MQTT_OK/GD32VW55X_Wifi_BLE_SDK/GD32VW55x_RELEASE_V1.0.2/MSDK/cloud/alicloud/src/protocol/alcs\alcs_server.c ****         memcpy (&tmpMsg, message, sizeof(CoAPMessage));
 626:C:/Users/stapi/OneDrive/Desktop/GD32VW553/V1_MQTT_OK/GD32VW55X_Wifi_BLE_SDK/GD32VW55x_RELEASE_V1.0.2/MSDK/cloud/alicloud/src/protocol/alcs\alcs_server.c **** 
 627:C:/Users/stapi/OneDrive/Desktop/GD32VW553/V1_MQTT_OK/GD32VW55X_Wifi_BLE_SDK/GD32VW55x_RELEASE_V1.0.2/MSDK/cloud/alicloud/src/protocol/alcs\alcs_server.c ****         int len = alcs_decrypt ((const char *)message->payload, message->payloadlen, group_key, buf
 628:C:/Users/stapi/OneDrive/Desktop/GD32VW553/V1_MQTT_OK/GD32VW55X_Wifi_BLE_SDK/GD32VW55x_RELEASE_V1.0.2/MSDK/cloud/alicloud/src/protocol/alcs\alcs_server.c ****         if (len > 0) {
 629:C:/Users/stapi/OneDrive/Desktop/GD32VW553/V1_MQTT_OK/GD32VW55X_Wifi_BLE_SDK/GD32VW55x_RELEASE_V1.0.2/MSDK/cloud/alicloud/src/protocol/alcs\alcs_server.c ****             //checksum
 630:C:/Users/stapi/OneDrive/Desktop/GD32VW553/V1_MQTT_OK/GD32VW55X_Wifi_BLE_SDK/GD32VW55x_RELEASE_V1.0.2/MSDK/cloud/alicloud/src/protocol/alcs\alcs_server.c ****             add_request (message, 1, tag, group_key, remote);
 631:C:/Users/stapi/OneDrive/Desktop/GD32VW553/V1_MQTT_OK/GD32VW55X_Wifi_BLE_SDK/GD32VW55x_RELEASE_V1.0.2/MSDK/cloud/alicloud/src/protocol/alcs\alcs_server.c ****             tmpMsg.payload = (unsigned char *)buf;
 632:C:/Users/stapi/OneDrive/Desktop/GD32VW553/V1_MQTT_OK/GD32VW55X_Wifi_BLE_SDK/GD32VW55x_RELEASE_V1.0.2/MSDK/cloud/alicloud/src/protocol/alcs\alcs_server.c ****             tmpMsg.payloadlen = len;
 633:C:/Users/stapi/OneDrive/Desktop/GD32VW553/V1_MQTT_OK/GD32VW55X_Wifi_BLE_SDK/GD32VW55x_RELEASE_V1.0.2/MSDK/cloud/alicloud/src/protocol/alcs\alcs_server.c ****             resource->cb (context, path, remote, &tmpMsg);
 634:C:/Users/stapi/OneDrive/Desktop/GD32VW553/V1_MQTT_OK/GD32VW55X_Wifi_BLE_SDK/GD32VW55x_RELEASE_V1.0.2/MSDK/cloud/alicloud/src/protocol/alcs\alcs_server.c ****         }
 635:C:/Users/stapi/OneDrive/Desktop/GD32VW553/V1_MQTT_OK/GD32VW55X_Wifi_BLE_SDK/GD32VW55x_RELEASE_V1.0.2/MSDK/cloud/alicloud/src/protocol/alcs\alcs_server.c ****         coap_free (buf);
 636:C:/Users/stapi/OneDrive/Desktop/GD32VW553/V1_MQTT_OK/GD32VW55X_Wifi_BLE_SDK/GD32VW55x_RELEASE_V1.0.2/MSDK/cloud/alicloud/src/protocol/alcs\alcs_server.c ****     }
 637:C:/Users/stapi/OneDrive/Desktop/GD32VW553/V1_MQTT_OK/GD32VW55X_Wifi_BLE_SDK/GD32VW55x_RELEASE_V1.0.2/MSDK/cloud/alicloud/src/protocol/alcs\alcs_server.c **** 
 638:C:/Users/stapi/OneDrive/Desktop/GD32VW553/V1_MQTT_OK/GD32VW55X_Wifi_BLE_SDK/GD32VW55x_RELEASE_V1.0.2/MSDK/cloud/alicloud/src/protocol/alcs\alcs_server.c ****     struct list_head* ctl_head = get_svr_session_list ();
 639:C:/Users/stapi/OneDrive/Desktop/GD32VW553/V1_MQTT_OK/GD32VW55X_Wifi_BLE_SDK/GD32VW55x_RELEASE_V1.0.2/MSDK/cloud/alicloud/src/protocol/alcs\alcs_server.c ****     if (ctl_head && !list_empty(ctl_head)) {
 640:C:/Users/stapi/OneDrive/Desktop/GD32VW553/V1_MQTT_OK/GD32VW55X_Wifi_BLE_SDK/GD32VW55x_RELEASE_V1.0.2/MSDK/cloud/alicloud/src/protocol/alcs\alcs_server.c ****         session_item *node = NULL, *next = NULL;
 641:C:/Users/stapi/OneDrive/Desktop/GD32VW553/V1_MQTT_OK/GD32VW55X_Wifi_BLE_SDK/GD32VW55x_RELEASE_V1.0.2/MSDK/cloud/alicloud/src/protocol/alcs\alcs_server.c ****         device_auth_list *dev_lst = get_device ();
 642:C:/Users/stapi/OneDrive/Desktop/GD32VW553/V1_MQTT_OK/GD32VW55X_Wifi_BLE_SDK/GD32VW55x_RELEASE_V1.0.2/MSDK/cloud/alicloud/src/protocol/alcs\alcs_server.c ****         HAL_MutexLock(dev_lst->list_mutex);
 643:C:/Users/stapi/OneDrive/Desktop/GD32VW553/V1_MQTT_OK/GD32VW55X_Wifi_BLE_SDK/GD32VW55x_RELEASE_V1.0.2/MSDK/cloud/alicloud/src/protocol/alcs\alcs_server.c **** 
 644:C:/Users/stapi/OneDrive/Desktop/GD32VW553/V1_MQTT_OK/GD32VW55X_Wifi_BLE_SDK/GD32VW55x_RELEASE_V1.0.2/MSDK/cloud/alicloud/src/protocol/alcs\alcs_server.c ****         list_for_each_entry_safe(node, next, ctl_head, lst, session_item) {
 645:C:/Users/stapi/OneDrive/Desktop/GD32VW553/V1_MQTT_OK/GD32VW55X_Wifi_BLE_SDK/GD32VW55x_RELEASE_V1.0.2/MSDK/cloud/alicloud/src/protocol/alcs\alcs_server.c ****             if(node->sessionId && is_networkadd_same(&node->addr, remote)) {
 646:C:/Users/stapi/OneDrive/Desktop/GD32VW553/V1_MQTT_OK/GD32VW55X_Wifi_BLE_SDK/GD32VW55x_RELEASE_V1.0.2/MSDK/cloud/alicloud/src/protocol/alcs\alcs_server.c ****                 node->heart_time = HAL_UptimeMs();
 647:C:/Users/stapi/OneDrive/Desktop/GD32VW553/V1_MQTT_OK/GD32VW55X_Wifi_BLE_SDK/GD32VW55x_RELEASE_V1.0.2/MSDK/cloud/alicloud/src/protocol/alcs\alcs_server.c ****             }
 648:C:/Users/stapi/OneDrive/Desktop/GD32VW553/V1_MQTT_OK/GD32VW55X_Wifi_BLE_SDK/GD32VW55x_RELEASE_V1.0.2/MSDK/cloud/alicloud/src/protocol/alcs\alcs_server.c ****         }
 649:C:/Users/stapi/OneDrive/Desktop/GD32VW553/V1_MQTT_OK/GD32VW55X_Wifi_BLE_SDK/GD32VW55x_RELEASE_V1.0.2/MSDK/cloud/alicloud/src/protocol/alcs\alcs_server.c ****         HAL_MutexUnlock(dev_lst->list_mutex);
 650:C:/Users/stapi/OneDrive/Desktop/GD32VW553/V1_MQTT_OK/GD32VW55X_Wifi_BLE_SDK/GD32VW55x_RELEASE_V1.0.2/MSDK/cloud/alicloud/src/protocol/alcs\alcs_server.c ****     }
 651:C:/Users/stapi/OneDrive/Desktop/GD32VW553/V1_MQTT_OK/GD32VW55X_Wifi_BLE_SDK/GD32VW55x_RELEASE_V1.0.2/MSDK/cloud/alicloud/src/protocol/alcs\alcs_server.c **** }
 652:C:/Users/stapi/OneDrive/Desktop/GD32VW553/V1_MQTT_OK/GD32VW55X_Wifi_BLE_SDK/GD32VW55x_RELEASE_V1.0.2/MSDK/cloud/alicloud/src/protocol/alcs\alcs_server.c **** #endif
 653:C:/Users/stapi/OneDrive/Desktop/GD32VW553/V1_MQTT_OK/GD32VW55X_Wifi_BLE_SDK/GD32VW55x_RELEASE_V1.0.2/MSDK/cloud/alicloud/src/protocol/alcs\alcs_server.c **** 
 654:C:/Users/stapi/OneDrive/Desktop/GD32VW553/V1_MQTT_OK/GD32VW55X_Wifi_BLE_SDK/GD32VW55x_RELEASE_V1.0.2/MSDK/cloud/alicloud/src/protocol/alcs\alcs_server.c **** void p2p_msg_handler(CoAPContext *context, const char *path, NetworkAddr *remote, CoAPMessage *mess
 655:C:/Users/stapi/OneDrive/Desktop/GD32VW553/V1_MQTT_OK/GD32VW55X_Wifi_BLE_SDK/GD32VW55x_RELEASE_V1.0.2/MSDK/cloud/alicloud/src/protocol/alcs\alcs_server.c **** {
 2700              		.loc 1 655 1 is_stmt 1
 2701              		.cfi_startproc
 2702              	.LVL312:
 2703 0000 17030000 		call	t0,__riscv_save_8
 2703      E7020300 
 2704              		.cfi_offset 23, -36
 2705              		.cfi_offset 22, -32
 2706              		.cfi_offset 21, -28
 2707              		.cfi_offset 20, -24
 2708              		.cfi_offset 19, -20
 2709              		.cfi_offset 18, -16
 2710              		.cfi_offset 9, -12
 2711              		.cfi_offset 8, -8
 2712              		.cfi_offset 1, -4
 2713              		.cfi_def_cfa_offset 48
 656:C:/Users/stapi/OneDrive/Desktop/GD32VW553/V1_MQTT_OK/GD32VW55X_Wifi_BLE_SDK/GD32VW55x_RELEASE_V1.0.2/MSDK/cloud/alicloud/src/protocol/alcs\alcs_server.c ****     secure_resource_cb_item* node = get_resource_by_path (path);
 2714              		.loc 1 656 5
 655:C:/Users/stapi/OneDrive/Desktop/GD32VW553/V1_MQTT_OK/GD32VW55X_Wifi_BLE_SDK/GD32VW55x_RELEASE_V1.0.2/MSDK/cloud/alicloud/src/protocol/alcs\alcs_server.c ****     secure_resource_cb_item* node = get_resource_by_path (path);
 2715              		.loc 1 655 1 is_stmt 0
 2716 0008 3571     		addi	sp,sp,-160
 2717              		.cfi_def_cfa_offset 208
 655:C:/Users/stapi/OneDrive/Desktop/GD32VW553/V1_MQTT_OK/GD32VW55X_Wifi_BLE_SDK/GD32VW55x_RELEASE_V1.0.2/MSDK/cloud/alicloud/src/protocol/alcs\alcs_server.c ****     secure_resource_cb_item* node = get_resource_by_path (path);
 2718              		.loc 1 655 1
 2719 000a AA8A     		mv	s5,a0
 2720              		.loc 1 656 37
 2721 000c 2E85     		mv	a0,a1
 2722              	.LVL313:
 655:C:/Users/stapi/OneDrive/Desktop/GD32VW553/V1_MQTT_OK/GD32VW55X_Wifi_BLE_SDK/GD32VW55x_RELEASE_V1.0.2/MSDK/cloud/alicloud/src/protocol/alcs\alcs_server.c ****     secure_resource_cb_item* node = get_resource_by_path (path);
 2723              		.loc 1 655 1
 2724 000e 2E8A     		mv	s4,a1
 2725 0010 B289     		mv	s3,a2
 2726 0012 3684     		mv	s0,a3
 2727              		.loc 1 656 37
 2728 0014 97000000 		call	get_resource_by_path
 2728      E7800000 
 2729              	.LVL314:
 657:C:/Users/stapi/OneDrive/Desktop/GD32VW553/V1_MQTT_OK/GD32VW55X_Wifi_BLE_SDK/GD32VW55x_RELEASE_V1.0.2/MSDK/cloud/alicloud/src/protocol/alcs\alcs_server.c ****     if (!node) {
 2730              		.loc 1 657 5 is_stmt 1
 2731              		.loc 1 657 8 is_stmt 0
 2732 001c 63060522 		beq	a0,zero,.L146
 658:C:/Users/stapi/OneDrive/Desktop/GD32VW553/V1_MQTT_OK/GD32VW55X_Wifi_BLE_SDK/GD32VW55x_RELEASE_V1.0.2/MSDK/cloud/alicloud/src/protocol/alcs\alcs_server.c ****         return;
 659:C:/Users/stapi/OneDrive/Desktop/GD32VW553/V1_MQTT_OK/GD32VW55X_Wifi_BLE_SDK/GD32VW55x_RELEASE_V1.0.2/MSDK/cloud/alicloud/src/protocol/alcs\alcs_server.c ****     }
 660:C:/Users/stapi/OneDrive/Desktop/GD32VW553/V1_MQTT_OK/GD32VW55X_Wifi_BLE_SDK/GD32VW55x_RELEASE_V1.0.2/MSDK/cloud/alicloud/src/protocol/alcs\alcs_server.c **** 
 661:C:/Users/stapi/OneDrive/Desktop/GD32VW553/V1_MQTT_OK/GD32VW55X_Wifi_BLE_SDK/GD32VW55x_RELEASE_V1.0.2/MSDK/cloud/alicloud/src/protocol/alcs\alcs_server.c ****     struct list_head* sessions = get_svr_session_list();
 2733              		.loc 1 661 34
 2734 0020 B7070000 		lui	a5,%hi(_device+44)
 2735 0024 83C7C702 		lbu	a5,%lo(_device+44)(a5)
 2736 0028 2A8B     		mv	s6,a0
 2737              		.loc 1 661 5 is_stmt 1
 2738              		.loc 1 661 34 is_stmt 0
 2739 002a 0145     		li	a0,0
 2740              	.LVL315:
 2741 002c 898B     		andi	a5,a5,2
 2742 002e 89C7     		beq	a5,zero,.L148
 2743 0030 37050000 		lui	a0,%hi(_device+28)
 2744 0034 1305C501 		addi	a0,a0,%lo(_device+28)
 2745              	.L148:
 2746              	.LVL316:
 662:C:/Users/stapi/OneDrive/Desktop/GD32VW553/V1_MQTT_OK/GD32VW55X_Wifi_BLE_SDK/GD32VW55x_RELEASE_V1.0.2/MSDK/cloud/alicloud/src/protocol/alcs\alcs_server.c ****     session_item* session = get_session_by_checksum(sessions, remote, node->pk_dn);
 2747              		.loc 1 662 5 is_stmt 1 discriminator 4
 2748              		.loc 1 662 29 is_stmt 0 discriminator 4
 2749 0038 13065B00 		addi	a2,s6,5
 2750 003c CE85     		mv	a1,s3
 2751 003e 97000000 		call	get_session_by_checksum
 2751      E7800000 
 2752              	.LVL317:
 2753 0046 AA84     		mv	s1,a0
 2754              	.LVL318:
 663:C:/Users/stapi/OneDrive/Desktop/GD32VW553/V1_MQTT_OK/GD32VW55X_Wifi_BLE_SDK/GD32VW55x_RELEASE_V1.0.2/MSDK/cloud/alicloud/src/protocol/alcs\alcs_server.c **** 
 664:C:/Users/stapi/OneDrive/Desktop/GD32VW553/V1_MQTT_OK/GD32VW55X_Wifi_BLE_SDK/GD32VW55x_RELEASE_V1.0.2/MSDK/cloud/alicloud/src/protocol/alcs\alcs_server.c ****     do {
 2755              		.loc 1 664 5 is_stmt 1 discriminator 4
 2756              	.LBB102:
 665:C:/Users/stapi/OneDrive/Desktop/GD32VW553/V1_MQTT_OK/GD32VW55X_Wifi_BLE_SDK/GD32VW55x_RELEASE_V1.0.2/MSDK/cloud/alicloud/src/protocol/alcs\alcs_server.c ****         if (!session) {
 2757              		.loc 1 665 9 discriminator 4
 2758              		.loc 1 665 12 is_stmt 0 discriminator 4
 2759 0048 71C9     		beq	a0,zero,.L150
 666:C:/Users/stapi/OneDrive/Desktop/GD32VW553/V1_MQTT_OK/GD32VW55X_Wifi_BLE_SDK/GD32VW55x_RELEASE_V1.0.2/MSDK/cloud/alicloud/src/protocol/alcs\alcs_server.c ****             break;
 667:C:/Users/stapi/OneDrive/Desktop/GD32VW553/V1_MQTT_OK/GD32VW55X_Wifi_BLE_SDK/GD32VW55x_RELEASE_V1.0.2/MSDK/cloud/alicloud/src/protocol/alcs\alcs_server.c ****         }
 668:C:/Users/stapi/OneDrive/Desktop/GD32VW553/V1_MQTT_OK/GD32VW55X_Wifi_BLE_SDK/GD32VW55x_RELEASE_V1.0.2/MSDK/cloud/alicloud/src/protocol/alcs\alcs_server.c **** 
 669:C:/Users/stapi/OneDrive/Desktop/GD32VW553/V1_MQTT_OK/GD32VW55X_Wifi_BLE_SDK/GD32VW55x_RELEASE_V1.0.2/MSDK/cloud/alicloud/src/protocol/alcs\alcs_server.c ****         unsigned int sessionId = 0;
 2760              		.loc 1 669 9 is_stmt 1
 2761              	.LVL319:
 670:C:/Users/stapi/OneDrive/Desktop/GD32VW553/V1_MQTT_OK/GD32VW55X_Wifi_BLE_SDK/GD32VW55x_RELEASE_V1.0.2/MSDK/cloud/alicloud/src/protocol/alcs\alcs_server.c ****         char checksum[4];
 2762              		.loc 1 670 9
 671:C:/Users/stapi/OneDrive/Desktop/GD32VW553/V1_MQTT_OK/GD32VW55X_Wifi_BLE_SDK/GD32VW55x_RELEASE_V1.0.2/MSDK/cloud/alicloud/src/protocol/alcs\alcs_server.c ****         sessionId = get_message_sessionid (message, session->opt, checksum);
 2763              		.loc 1 671 9
 2764              		.loc 1 671 21 is_stmt 0
 2765 004a 8325850B 		lw	a1,184(a0)
 2766 004e 0A86     		mv	a2,sp
 2767 0050 2285     		mv	a0,s0
 2768 0052 97000000 		call	get_message_sessionid
 2768      E7800000 
 2769              	.LVL320:
 672:C:/Users/stapi/OneDrive/Desktop/GD32VW553/V1_MQTT_OK/GD32VW55X_Wifi_BLE_SDK/GD32VW55x_RELEASE_V1.0.2/MSDK/cloud/alicloud/src/protocol/alcs\alcs_server.c ****         COAP_DEBUG("p2p_msg_handler, sessionID:%d", (int)sessionId);
 2770              		.loc 1 672 9
 2771 005a AA87     		mv	a5,a0
 671:C:/Users/stapi/OneDrive/Desktop/GD32VW553/V1_MQTT_OK/GD32VW55X_Wifi_BLE_SDK/GD32VW55x_RELEASE_V1.0.2/MSDK/cloud/alicloud/src/protocol/alcs\alcs_server.c ****         sessionId = get_message_sessionid (message, session->opt, checksum);
 2772              		.loc 1 671 21
 2773 005c 2A89     		mv	s2,a0
 2774              	.LVL321:
 2775              		.loc 1 672 9 is_stmt 1
 2776 005e 37070000 		lui	a4,%hi(.LC41)
 2777 0062 B7050000 		lui	a1,%hi(.LANCHOR2)
 2778 0066 37050000 		lui	a0,%hi(.LC6)
 2779              	.LVL322:
 2780 006a 13070700 		addi	a4,a4,%lo(.LC41)
 2781 006e 9546     		li	a3,5
 2782 0070 1306002A 		li	a2,672
 2783 0074 93850500 		addi	a1,a1,%lo(.LANCHOR2)
 2784 0078 13050500 		addi	a0,a0,%lo(.LC6)
 2785 007c 97000000 		call	LITE_syslog
 2785      E7800000 
 2786              	.LVL323:
 673:C:/Users/stapi/OneDrive/Desktop/GD32VW553/V1_MQTT_OK/GD32VW55X_Wifi_BLE_SDK/GD32VW55x_RELEASE_V1.0.2/MSDK/cloud/alicloud/src/protocol/alcs\alcs_server.c **** 
 674:C:/Users/stapi/OneDrive/Desktop/GD32VW553/V1_MQTT_OK/GD32VW55X_Wifi_BLE_SDK/GD32VW55x_RELEASE_V1.0.2/MSDK/cloud/alicloud/src/protocol/alcs\alcs_server.c ****         if (sessionId != session->sessionId) {
 2787              		.loc 1 674 9
 2788              		.loc 1 674 12 is_stmt 0
 2789 0084 9C40     		lw	a5,0(s1)
 2790 0086 639B2709 		bne	a5,s2,.L150
 675:C:/Users/stapi/OneDrive/Desktop/GD32VW553/V1_MQTT_OK/GD32VW55X_Wifi_BLE_SDK/GD32VW55x_RELEASE_V1.0.2/MSDK/cloud/alicloud/src/protocol/alcs\alcs_server.c ****             break;
 676:C:/Users/stapi/OneDrive/Desktop/GD32VW553/V1_MQTT_OK/GD32VW55X_Wifi_BLE_SDK/GD32VW55x_RELEASE_V1.0.2/MSDK/cloud/alicloud/src/protocol/alcs\alcs_server.c ****         }
 677:C:/Users/stapi/OneDrive/Desktop/GD32VW553/V1_MQTT_OK/GD32VW55X_Wifi_BLE_SDK/GD32VW55x_RELEASE_V1.0.2/MSDK/cloud/alicloud/src/protocol/alcs\alcs_server.c **** 
 678:C:/Users/stapi/OneDrive/Desktop/GD32VW553/V1_MQTT_OK/GD32VW55X_Wifi_BLE_SDK/GD32VW55x_RELEASE_V1.0.2/MSDK/cloud/alicloud/src/protocol/alcs\alcs_server.c ****         session->heart_time = HAL_UptimeMs();
 2791              		.loc 1 678 9 is_stmt 1
 2792              		.loc 1 678 31 is_stmt 0
 2793 008a 97000000 		call	HAL_UptimeMs
 2793      E7800000 
 2794              	.LVL324:
 2795              		.loc 1 678 29
 2796 0092 E8C4     		sw	a0,76(s1)
 679:C:/Users/stapi/OneDrive/Desktop/GD32VW553/V1_MQTT_OK/GD32VW55X_Wifi_BLE_SDK/GD32VW55x_RELEASE_V1.0.2/MSDK/cloud/alicloud/src/protocol/alcs\alcs_server.c ****         if (CoAPMessageCheckDup(message, &session->preventDup)) {
 2797              		.loc 1 679 9 is_stmt 1
 2798              		.loc 1 679 13 is_stmt 0
 2799 0094 93858406 		addi	a1,s1,104
 2800 0098 2285     		mv	a0,s0
 2801 009a 97000000 		call	CoAPMessageCheckDup
 2801      E7800000 
 2802              	.LVL325:
 2803              		.loc 1 679 12
 2804 00a2 15C9     		beq	a0,zero,.L152
 680:C:/Users/stapi/OneDrive/Desktop/GD32VW553/V1_MQTT_OK/GD32VW55X_Wifi_BLE_SDK/GD32VW55x_RELEASE_V1.0.2/MSDK/cloud/alicloud/src/protocol/alcs\alcs_server.c ****             COAP_ERR ("Dup");
 2805              		.loc 1 680 13 is_stmt 1
 2806              		.loc 1 680 13
 2807 00a4 37050000 		lui	a0,%hi(.LC0)
 2808 00a8 13050500 		addi	a0,a0,%lo(.LC0)
 2809 00ac 97000000 		call	HAL_Printf
 2809      E7800000 
 2810              	.LVL326:
 2811              		.loc 1 680 13
 2812 00b4 37050000 		lui	a0,%hi(.LC42)
 2813 00b8 13050500 		addi	a0,a0,%lo(.LC42)
 2814 00bc 97000000 		call	HAL_Printf
 2814      E7800000 
 2815              	.LVL327:
 2816              		.loc 1 680 13
 2817              	.L177:
 2818              	.LBE102:
 681:C:/Users/stapi/OneDrive/Desktop/GD32VW553/V1_MQTT_OK/GD32VW55X_Wifi_BLE_SDK/GD32VW55x_RELEASE_V1.0.2/MSDK/cloud/alicloud/src/protocol/alcs\alcs_server.c ****             return;
 682:C:/Users/stapi/OneDrive/Desktop/GD32VW553/V1_MQTT_OK/GD32VW55X_Wifi_BLE_SDK/GD32VW55x_RELEASE_V1.0.2/MSDK/cloud/alicloud/src/protocol/alcs\alcs_server.c ****         }
 683:C:/Users/stapi/OneDrive/Desktop/GD32VW553/V1_MQTT_OK/GD32VW55X_Wifi_BLE_SDK/GD32VW55x_RELEASE_V1.0.2/MSDK/cloud/alicloud/src/protocol/alcs\alcs_server.c ****         /*anti replay*/
 684:C:/Users/stapi/OneDrive/Desktop/GD32VW553/V1_MQTT_OK/GD32VW55X_Wifi_BLE_SDK/GD32VW55x_RELEASE_V1.0.2/MSDK/cloud/alicloud/src/protocol/alcs\alcs_server.c ****         if (session->opt & ALCS_OPT_SUPPORT_SEQWINDOWS) {
 685:C:/Users/stapi/OneDrive/Desktop/GD32VW553/V1_MQTT_OK/GD32VW55X_Wifi_BLE_SDK/GD32VW55x_RELEASE_V1.0.2/MSDK/cloud/alicloud/src/protocol/alcs\alcs_server.c ****             if (!seqwindow_accept(message, session)) {
 686:C:/Users/stapi/OneDrive/Desktop/GD32VW553/V1_MQTT_OK/GD32VW55X_Wifi_BLE_SDK/GD32VW55x_RELEASE_V1.0.2/MSDK/cloud/alicloud/src/protocol/alcs\alcs_server.c ****                 COAP_ERR ("invalid seqid");
 687:C:/Users/stapi/OneDrive/Desktop/GD32VW553/V1_MQTT_OK/GD32VW55X_Wifi_BLE_SDK/GD32VW55x_RELEASE_V1.0.2/MSDK/cloud/alicloud/src/protocol/alcs\alcs_server.c ****                 break;
 688:C:/Users/stapi/OneDrive/Desktop/GD32VW553/V1_MQTT_OK/GD32VW55X_Wifi_BLE_SDK/GD32VW55x_RELEASE_V1.0.2/MSDK/cloud/alicloud/src/protocol/alcs\alcs_server.c ****             }
 689:C:/Users/stapi/OneDrive/Desktop/GD32VW553/V1_MQTT_OK/GD32VW55X_Wifi_BLE_SDK/GD32VW55x_RELEASE_V1.0.2/MSDK/cloud/alicloud/src/protocol/alcs\alcs_server.c ****         }
 690:C:/Users/stapi/OneDrive/Desktop/GD32VW553/V1_MQTT_OK/GD32VW55X_Wifi_BLE_SDK/GD32VW55x_RELEASE_V1.0.2/MSDK/cloud/alicloud/src/protocol/alcs\alcs_server.c **** 
 691:C:/Users/stapi/OneDrive/Desktop/GD32VW553/V1_MQTT_OK/GD32VW55X_Wifi_BLE_SDK/GD32VW55x_RELEASE_V1.0.2/MSDK/cloud/alicloud/src/protocol/alcs\alcs_server.c ****         unsigned int obsVal;
 692:C:/Users/stapi/OneDrive/Desktop/GD32VW553/V1_MQTT_OK/GD32VW55X_Wifi_BLE_SDK/GD32VW55x_RELEASE_V1.0.2/MSDK/cloud/alicloud/src/protocol/alcs\alcs_server.c ****         if (CoAPUintOption_get (message, COAP_OPTION_OBSERVE, &obsVal) == ALCS_SUCCESS) {
 693:C:/Users/stapi/OneDrive/Desktop/GD32VW553/V1_MQTT_OK/GD32VW55X_Wifi_BLE_SDK/GD32VW55x_RELEASE_V1.0.2/MSDK/cloud/alicloud/src/protocol/alcs\alcs_server.c ****             if (obsVal == 0) {
 694:C:/Users/stapi/OneDrive/Desktop/GD32VW553/V1_MQTT_OK/GD32VW55X_Wifi_BLE_SDK/GD32VW55x_RELEASE_V1.0.2/MSDK/cloud/alicloud/src/protocol/alcs\alcs_server.c ****                 CoAPObsServer_add (context, path, remote, message);
 695:C:/Users/stapi/OneDrive/Desktop/GD32VW553/V1_MQTT_OK/GD32VW55X_Wifi_BLE_SDK/GD32VW55x_RELEASE_V1.0.2/MSDK/cloud/alicloud/src/protocol/alcs\alcs_server.c ****             }
 696:C:/Users/stapi/OneDrive/Desktop/GD32VW553/V1_MQTT_OK/GD32VW55X_Wifi_BLE_SDK/GD32VW55x_RELEASE_V1.0.2/MSDK/cloud/alicloud/src/protocol/alcs\alcs_server.c ****         }
 697:C:/Users/stapi/OneDrive/Desktop/GD32VW553/V1_MQTT_OK/GD32VW55X_Wifi_BLE_SDK/GD32VW55x_RELEASE_V1.0.2/MSDK/cloud/alicloud/src/protocol/alcs\alcs_server.c **** 
 698:C:/Users/stapi/OneDrive/Desktop/GD32VW553/V1_MQTT_OK/GD32VW55X_Wifi_BLE_SDK/GD32VW55x_RELEASE_V1.0.2/MSDK/cloud/alicloud/src/protocol/alcs\alcs_server.c ****         char* buf = (char*)coap_malloc(message->payloadlen);
 699:C:/Users/stapi/OneDrive/Desktop/GD32VW553/V1_MQTT_OK/GD32VW55X_Wifi_BLE_SDK/GD32VW55x_RELEASE_V1.0.2/MSDK/cloud/alicloud/src/protocol/alcs\alcs_server.c ****         if (buf) {
 700:C:/Users/stapi/OneDrive/Desktop/GD32VW553/V1_MQTT_OK/GD32VW55X_Wifi_BLE_SDK/GD32VW55x_RELEASE_V1.0.2/MSDK/cloud/alicloud/src/protocol/alcs\alcs_server.c ****             CoAPMessage tmpMsg;
 701:C:/Users/stapi/OneDrive/Desktop/GD32VW553/V1_MQTT_OK/GD32VW55X_Wifi_BLE_SDK/GD32VW55x_RELEASE_V1.0.2/MSDK/cloud/alicloud/src/protocol/alcs\alcs_server.c ****             memcpy (&tmpMsg, message, sizeof(CoAPMessage));
 702:C:/Users/stapi/OneDrive/Desktop/GD32VW553/V1_MQTT_OK/GD32VW55X_Wifi_BLE_SDK/GD32VW55x_RELEASE_V1.0.2/MSDK/cloud/alicloud/src/protocol/alcs\alcs_server.c **** 
 703:C:/Users/stapi/OneDrive/Desktop/GD32VW553/V1_MQTT_OK/GD32VW55X_Wifi_BLE_SDK/GD32VW55x_RELEASE_V1.0.2/MSDK/cloud/alicloud/src/protocol/alcs\alcs_server.c ****             int len = alcs_decrypt ((const char *)message->payload, message->payloadlen, session->s
 704:C:/Users/stapi/OneDrive/Desktop/GD32VW553/V1_MQTT_OK/GD32VW55X_Wifi_BLE_SDK/GD32VW55x_RELEASE_V1.0.2/MSDK/cloud/alicloud/src/protocol/alcs\alcs_server.c ****             if (len > 0) {
 705:C:/Users/stapi/OneDrive/Desktop/GD32VW553/V1_MQTT_OK/GD32VW55X_Wifi_BLE_SDK/GD32VW55x_RELEASE_V1.0.2/MSDK/cloud/alicloud/src/protocol/alcs\alcs_server.c ****                 if (session->opt & ALCS_OPT_PAYLOAD_CHECKSUM) {
 706:C:/Users/stapi/OneDrive/Desktop/GD32VW553/V1_MQTT_OK/GD32VW55X_Wifi_BLE_SDK/GD32VW55x_RELEASE_V1.0.2/MSDK/cloud/alicloud/src/protocol/alcs\alcs_server.c ****                     unsigned char md5[16];
 707:C:/Users/stapi/OneDrive/Desktop/GD32VW553/V1_MQTT_OK/GD32VW55X_Wifi_BLE_SDK/GD32VW55x_RELEASE_V1.0.2/MSDK/cloud/alicloud/src/protocol/alcs\alcs_server.c ****                     utils_md5 ((unsigned char*)buf, len, md5);
 708:C:/Users/stapi/OneDrive/Desktop/GD32VW553/V1_MQTT_OK/GD32VW55X_Wifi_BLE_SDK/GD32VW55x_RELEASE_V1.0.2/MSDK/cloud/alicloud/src/protocol/alcs\alcs_server.c ****                     if (memcmp (md5, checksum, 4) != 0) {
 709:C:/Users/stapi/OneDrive/Desktop/GD32VW553/V1_MQTT_OK/GD32VW55X_Wifi_BLE_SDK/GD32VW55x_RELEASE_V1.0.2/MSDK/cloud/alicloud/src/protocol/alcs\alcs_server.c ****                         COAP_ERR ("p2p_msg_handler, checksum isn't match");
 710:C:/Users/stapi/OneDrive/Desktop/GD32VW553/V1_MQTT_OK/GD32VW55X_Wifi_BLE_SDK/GD32VW55x_RELEASE_V1.0.2/MSDK/cloud/alicloud/src/protocol/alcs\alcs_server.c ****                         coap_free (buf);
 711:C:/Users/stapi/OneDrive/Desktop/GD32VW553/V1_MQTT_OK/GD32VW55X_Wifi_BLE_SDK/GD32VW55x_RELEASE_V1.0.2/MSDK/cloud/alicloud/src/protocol/alcs\alcs_server.c ****                         break;
 712:C:/Users/stapi/OneDrive/Desktop/GD32VW553/V1_MQTT_OK/GD32VW55X_Wifi_BLE_SDK/GD32VW55x_RELEASE_V1.0.2/MSDK/cloud/alicloud/src/protocol/alcs\alcs_server.c ****                     }
 713:C:/Users/stapi/OneDrive/Desktop/GD32VW553/V1_MQTT_OK/GD32VW55X_Wifi_BLE_SDK/GD32VW55x_RELEASE_V1.0.2/MSDK/cloud/alicloud/src/protocol/alcs\alcs_server.c ****                 }
 714:C:/Users/stapi/OneDrive/Desktop/GD32VW553/V1_MQTT_OK/GD32VW55X_Wifi_BLE_SDK/GD32VW55x_RELEASE_V1.0.2/MSDK/cloud/alicloud/src/protocol/alcs\alcs_server.c **** 
 715:C:/Users/stapi/OneDrive/Desktop/GD32VW553/V1_MQTT_OK/GD32VW55X_Wifi_BLE_SDK/GD32VW55x_RELEASE_V1.0.2/MSDK/cloud/alicloud/src/protocol/alcs\alcs_server.c ****                 tmpMsg.payload = (unsigned char *)buf;
 716:C:/Users/stapi/OneDrive/Desktop/GD32VW553/V1_MQTT_OK/GD32VW55X_Wifi_BLE_SDK/GD32VW55x_RELEASE_V1.0.2/MSDK/cloud/alicloud/src/protocol/alcs\alcs_server.c ****                 tmpMsg.payloadlen = len;
 717:C:/Users/stapi/OneDrive/Desktop/GD32VW553/V1_MQTT_OK/GD32VW55X_Wifi_BLE_SDK/GD32VW55x_RELEASE_V1.0.2/MSDK/cloud/alicloud/src/protocol/alcs\alcs_server.c ****                 add_request (message, 0, session->sessionId, NULL, remote);
 718:C:/Users/stapi/OneDrive/Desktop/GD32VW553/V1_MQTT_OK/GD32VW55X_Wifi_BLE_SDK/GD32VW55x_RELEASE_V1.0.2/MSDK/cloud/alicloud/src/protocol/alcs\alcs_server.c ****                 node->cb (context, path, remote, &tmpMsg);
 719:C:/Users/stapi/OneDrive/Desktop/GD32VW553/V1_MQTT_OK/GD32VW55X_Wifi_BLE_SDK/GD32VW55x_RELEASE_V1.0.2/MSDK/cloud/alicloud/src/protocol/alcs\alcs_server.c ****                 coap_free (buf);
 720:C:/Users/stapi/OneDrive/Desktop/GD32VW553/V1_MQTT_OK/GD32VW55X_Wifi_BLE_SDK/GD32VW55x_RELEASE_V1.0.2/MSDK/cloud/alicloud/src/protocol/alcs\alcs_server.c ****             } else {
 721:C:/Users/stapi/OneDrive/Desktop/GD32VW553/V1_MQTT_OK/GD32VW55X_Wifi_BLE_SDK/GD32VW55x_RELEASE_V1.0.2/MSDK/cloud/alicloud/src/protocol/alcs\alcs_server.c ****                 coap_free (buf);
 722:C:/Users/stapi/OneDrive/Desktop/GD32VW553/V1_MQTT_OK/GD32VW55X_Wifi_BLE_SDK/GD32VW55x_RELEASE_V1.0.2/MSDK/cloud/alicloud/src/protocol/alcs\alcs_server.c ****                 break;
 723:C:/Users/stapi/OneDrive/Desktop/GD32VW553/V1_MQTT_OK/GD32VW55X_Wifi_BLE_SDK/GD32VW55x_RELEASE_V1.0.2/MSDK/cloud/alicloud/src/protocol/alcs\alcs_server.c ****             }
 724:C:/Users/stapi/OneDrive/Desktop/GD32VW553/V1_MQTT_OK/GD32VW55X_Wifi_BLE_SDK/GD32VW55x_RELEASE_V1.0.2/MSDK/cloud/alicloud/src/protocol/alcs\alcs_server.c ****         }
 725:C:/Users/stapi/OneDrive/Desktop/GD32VW553/V1_MQTT_OK/GD32VW55X_Wifi_BLE_SDK/GD32VW55x_RELEASE_V1.0.2/MSDK/cloud/alicloud/src/protocol/alcs\alcs_server.c ****         return;
 726:C:/Users/stapi/OneDrive/Desktop/GD32VW553/V1_MQTT_OK/GD32VW55X_Wifi_BLE_SDK/GD32VW55x_RELEASE_V1.0.2/MSDK/cloud/alicloud/src/protocol/alcs\alcs_server.c **** 
 727:C:/Users/stapi/OneDrive/Desktop/GD32VW553/V1_MQTT_OK/GD32VW55X_Wifi_BLE_SDK/GD32VW55x_RELEASE_V1.0.2/MSDK/cloud/alicloud/src/protocol/alcs\alcs_server.c ****     } while (0);
 728:C:/Users/stapi/OneDrive/Desktop/GD32VW553/V1_MQTT_OK/GD32VW55X_Wifi_BLE_SDK/GD32VW55x_RELEASE_V1.0.2/MSDK/cloud/alicloud/src/protocol/alcs\alcs_server.c **** 
 729:C:/Users/stapi/OneDrive/Desktop/GD32VW553/V1_MQTT_OK/GD32VW55X_Wifi_BLE_SDK/GD32VW55x_RELEASE_V1.0.2/MSDK/cloud/alicloud/src/protocol/alcs\alcs_server.c ****     send_err_rsp (context, remote, COAP_MSG_CODE_401_UNAUTHORIZED, message);
 730:C:/Users/stapi/OneDrive/Desktop/GD32VW553/V1_MQTT_OK/GD32VW55X_Wifi_BLE_SDK/GD32VW55x_RELEASE_V1.0.2/MSDK/cloud/alicloud/src/protocol/alcs\alcs_server.c ****     COAP_ERR ("need auth, path:%s, from:%s", path, remote->addr);
 2819              		.loc 1 730 5 discriminator 2
 2820 00c4 37050000 		lui	a0,%hi(.LC2)
 2821 00c8 13050500 		addi	a0,a0,%lo(.LC2)
 2822 00cc 97000000 		call	HAL_Printf
 2822      E7800000 
 2823              	.LVL328:
 2824 00d4 95AA     		j	.L146
 2825              	.LVL329:
 2826              	.L152:
 2827              	.LBB105:
 684:C:/Users/stapi/OneDrive/Desktop/GD32VW553/V1_MQTT_OK/GD32VW55X_Wifi_BLE_SDK/GD32VW55x_RELEASE_V1.0.2/MSDK/cloud/alicloud/src/protocol/alcs\alcs_server.c ****             if (!seqwindow_accept(message, session)) {
 2828              		.loc 1 684 9
 684:C:/Users/stapi/OneDrive/Desktop/GD32VW553/V1_MQTT_OK/GD32VW55X_Wifi_BLE_SDK/GD32VW55x_RELEASE_V1.0.2/MSDK/cloud/alicloud/src/protocol/alcs\alcs_server.c ****             if (!seqwindow_accept(message, session)) {
 2829              		.loc 1 684 26 is_stmt 0
 2830 00d6 83A7840B 		lw	a5,184(s1)
 2831 00da 898B     		andi	a5,a5,2
 684:C:/Users/stapi/OneDrive/Desktop/GD32VW553/V1_MQTT_OK/GD32VW55X_Wifi_BLE_SDK/GD32VW55x_RELEASE_V1.0.2/MSDK/cloud/alicloud/src/protocol/alcs\alcs_server.c ****             if (!seqwindow_accept(message, session)) {
 2832              		.loc 1 684 12
 2833 00dc A5CF     		beq	a5,zero,.L154
 685:C:/Users/stapi/OneDrive/Desktop/GD32VW553/V1_MQTT_OK/GD32VW55X_Wifi_BLE_SDK/GD32VW55x_RELEASE_V1.0.2/MSDK/cloud/alicloud/src/protocol/alcs\alcs_server.c ****                 COAP_ERR ("invalid seqid");
 2834              		.loc 1 685 13 is_stmt 1
 685:C:/Users/stapi/OneDrive/Desktop/GD32VW553/V1_MQTT_OK/GD32VW55X_Wifi_BLE_SDK/GD32VW55x_RELEASE_V1.0.2/MSDK/cloud/alicloud/src/protocol/alcs\alcs_server.c ****                 COAP_ERR ("invalid seqid");
 2835              		.loc 1 685 18 is_stmt 0
 2836 00de A685     		mv	a1,s1
 2837 00e0 2285     		mv	a0,s0
 2838 00e2 97000000 		call	seqwindow_accept
 2838      E7800000 
 2839              	.LVL330:
 685:C:/Users/stapi/OneDrive/Desktop/GD32VW553/V1_MQTT_OK/GD32VW55X_Wifi_BLE_SDK/GD32VW55x_RELEASE_V1.0.2/MSDK/cloud/alicloud/src/protocol/alcs\alcs_server.c ****                 COAP_ERR ("invalid seqid");
 2840              		.loc 1 685 16
 2841 00ea 2DE5     		bne	a0,zero,.L154
 686:C:/Users/stapi/OneDrive/Desktop/GD32VW553/V1_MQTT_OK/GD32VW55X_Wifi_BLE_SDK/GD32VW55x_RELEASE_V1.0.2/MSDK/cloud/alicloud/src/protocol/alcs\alcs_server.c ****                 break;
 2842              		.loc 1 686 17 is_stmt 1
 686:C:/Users/stapi/OneDrive/Desktop/GD32VW553/V1_MQTT_OK/GD32VW55X_Wifi_BLE_SDK/GD32VW55x_RELEASE_V1.0.2/MSDK/cloud/alicloud/src/protocol/alcs\alcs_server.c ****                 break;
 2843              		.loc 1 686 17
 2844 00ec 37050000 		lui	a0,%hi(.LC0)
 2845 00f0 13050500 		addi	a0,a0,%lo(.LC0)
 2846 00f4 97000000 		call	HAL_Printf
 2846      E7800000 
 2847              	.LVL331:
 686:C:/Users/stapi/OneDrive/Desktop/GD32VW553/V1_MQTT_OK/GD32VW55X_Wifi_BLE_SDK/GD32VW55x_RELEASE_V1.0.2/MSDK/cloud/alicloud/src/protocol/alcs\alcs_server.c ****                 break;
 2848              		.loc 1 686 17
 2849 00fc 37050000 		lui	a0,%hi(.LC43)
 2850 0100 13050500 		addi	a0,a0,%lo(.LC43)
 2851 0104 97000000 		call	HAL_Printf
 2851      E7800000 
 2852              	.LVL332:
 686:C:/Users/stapi/OneDrive/Desktop/GD32VW553/V1_MQTT_OK/GD32VW55X_Wifi_BLE_SDK/GD32VW55x_RELEASE_V1.0.2/MSDK/cloud/alicloud/src/protocol/alcs\alcs_server.c ****                 break;
 2853              		.loc 1 686 17
 2854 010c 37050000 		lui	a0,%hi(.LC2)
 2855 0110 13050500 		addi	a0,a0,%lo(.LC2)
 2856 0114 97000000 		call	HAL_Printf
 2856      E7800000 
 2857              	.LVL333:
 686:C:/Users/stapi/OneDrive/Desktop/GD32VW553/V1_MQTT_OK/GD32VW55X_Wifi_BLE_SDK/GD32VW55x_RELEASE_V1.0.2/MSDK/cloud/alicloud/src/protocol/alcs\alcs_server.c ****                 break;
 2858              		.loc 1 686 17
 687:C:/Users/stapi/OneDrive/Desktop/GD32VW553/V1_MQTT_OK/GD32VW55X_Wifi_BLE_SDK/GD32VW55x_RELEASE_V1.0.2/MSDK/cloud/alicloud/src/protocol/alcs\alcs_server.c ****             }
 2859              		.loc 1 687 17
 2860              	.L150:
 2861              	.LBE105:
 727:C:/Users/stapi/OneDrive/Desktop/GD32VW553/V1_MQTT_OK/GD32VW55X_Wifi_BLE_SDK/GD32VW55x_RELEASE_V1.0.2/MSDK/cloud/alicloud/src/protocol/alcs\alcs_server.c **** 
 2862              		.loc 1 727 13 discriminator 2
 729:C:/Users/stapi/OneDrive/Desktop/GD32VW553/V1_MQTT_OK/GD32VW55X_Wifi_BLE_SDK/GD32VW55x_RELEASE_V1.0.2/MSDK/cloud/alicloud/src/protocol/alcs\alcs_server.c ****     COAP_ERR ("need auth, path:%s, from:%s", path, remote->addr);
 2863              		.loc 1 729 5 discriminator 2
 2864 011c CE85     		mv	a1,s3
 2865 011e A286     		mv	a3,s0
 2866 0120 13061008 		li	a2,129
 2867 0124 5685     		mv	a0,s5
 2868 0126 97000000 		call	send_err_rsp
 2868      E7800000 
 2869              	.LVL334:
 2870              		.loc 1 730 5 discriminator 2
 2871              		.loc 1 730 5 discriminator 2
 2872 012e 37050000 		lui	a0,%hi(.LC0)
 2873 0132 13050500 		addi	a0,a0,%lo(.LC0)
 2874 0136 97000000 		call	HAL_Printf
 2874      E7800000 
 2875              	.LVL335:
 2876              		.loc 1 730 5 discriminator 2
 2877 013e 37050000 		lui	a0,%hi(.LC45)
 2878 0142 4E86     		mv	a2,s3
 2879 0144 D285     		mv	a1,s4
 2880 0146 13050500 		addi	a0,a0,%lo(.LC45)
 2881 014a 97000000 		call	HAL_Printf
 2881      E7800000 
 2882              	.LVL336:
 2883 0152 8DBF     		j	.L177
 2884              	.LVL337:
 2885              	.L154:
 2886              	.LBB106:
 691:C:/Users/stapi/OneDrive/Desktop/GD32VW553/V1_MQTT_OK/GD32VW55X_Wifi_BLE_SDK/GD32VW55x_RELEASE_V1.0.2/MSDK/cloud/alicloud/src/protocol/alcs\alcs_server.c ****         if (CoAPUintOption_get (message, COAP_OPTION_OBSERVE, &obsVal) == ALCS_SUCCESS) {
 2887              		.loc 1 691 9
 692:C:/Users/stapi/OneDrive/Desktop/GD32VW553/V1_MQTT_OK/GD32VW55X_Wifi_BLE_SDK/GD32VW55x_RELEASE_V1.0.2/MSDK/cloud/alicloud/src/protocol/alcs\alcs_server.c ****             if (obsVal == 0) {
 2888              		.loc 1 692 9
 692:C:/Users/stapi/OneDrive/Desktop/GD32VW553/V1_MQTT_OK/GD32VW55X_Wifi_BLE_SDK/GD32VW55x_RELEASE_V1.0.2/MSDK/cloud/alicloud/src/protocol/alcs\alcs_server.c ****             if (obsVal == 0) {
 2889              		.loc 1 692 13 is_stmt 0
 2890 0154 5000     		addi	a2,sp,4
 2891 0156 9945     		li	a1,6
 2892 0158 2285     		mv	a0,s0
 2893 015a 97000000 		call	CoAPUintOption_get
 2893      E7800000 
 2894              	.LVL338:
 693:C:/Users/stapi/OneDrive/Desktop/GD32VW553/V1_MQTT_OK/GD32VW55X_Wifi_BLE_SDK/GD32VW55x_RELEASE_V1.0.2/MSDK/cloud/alicloud/src/protocol/alcs\alcs_server.c ****                 CoAPObsServer_add (context, path, remote, message);
 2895              		.loc 1 693 13 is_stmt 1
 693:C:/Users/stapi/OneDrive/Desktop/GD32VW553/V1_MQTT_OK/GD32VW55X_Wifi_BLE_SDK/GD32VW55x_RELEASE_V1.0.2/MSDK/cloud/alicloud/src/protocol/alcs\alcs_server.c ****                 CoAPObsServer_add (context, path, remote, message);
 2896              		.loc 1 693 16 is_stmt 0
 2897 0162 9247     		lw	a5,4(sp)
 2898 0164 5D8D     		or	a0,a0,a5
 2899 0166 09E9     		bne	a0,zero,.L155
 694:C:/Users/stapi/OneDrive/Desktop/GD32VW553/V1_MQTT_OK/GD32VW55X_Wifi_BLE_SDK/GD32VW55x_RELEASE_V1.0.2/MSDK/cloud/alicloud/src/protocol/alcs\alcs_server.c ****             }
 2900              		.loc 1 694 17 is_stmt 1
 2901 0168 A286     		mv	a3,s0
 2902 016a 4E86     		mv	a2,s3
 2903 016c D285     		mv	a1,s4
 2904 016e 5685     		mv	a0,s5
 2905 0170 97000000 		call	CoAPObsServer_add
 2905      E7800000 
 2906              	.LVL339:
 2907              	.L155:
 698:C:/Users/stapi/OneDrive/Desktop/GD32VW553/V1_MQTT_OK/GD32VW55X_Wifi_BLE_SDK/GD32VW55x_RELEASE_V1.0.2/MSDK/cloud/alicloud/src/protocol/alcs\alcs_server.c ****         if (buf) {
 2908              		.loc 1 698 9
 698:C:/Users/stapi/OneDrive/Desktop/GD32VW553/V1_MQTT_OK/GD32VW55X_Wifi_BLE_SDK/GD32VW55x_RELEASE_V1.0.2/MSDK/cloud/alicloud/src/protocol/alcs\alcs_server.c ****         if (buf) {
 2909              		.loc 1 698 28 is_stmt 0
 2910 0178 0356E406 		lhu	a2,110(s0)
 2911 017c 8145     		li	a1,0
 2912 017e 0145     		li	a0,0
 2913 0180 97000000 		call	LITE_malloc_internal
 2913      E7800000 
 2914              	.LVL340:
 2915 0188 2A89     		mv	s2,a0
 2916              	.LVL341:
 699:C:/Users/stapi/OneDrive/Desktop/GD32VW553/V1_MQTT_OK/GD32VW55X_Wifi_BLE_SDK/GD32VW55x_RELEASE_V1.0.2/MSDK/cloud/alicloud/src/protocol/alcs\alcs_server.c ****             CoAPMessage tmpMsg;
 2917              		.loc 1 699 9 is_stmt 1
 699:C:/Users/stapi/OneDrive/Desktop/GD32VW553/V1_MQTT_OK/GD32VW55X_Wifi_BLE_SDK/GD32VW55x_RELEASE_V1.0.2/MSDK/cloud/alicloud/src/protocol/alcs\alcs_server.c ****             CoAPMessage tmpMsg;
 2918              		.loc 1 699 12 is_stmt 0
 2919 018a 5DCD     		beq	a0,zero,.L146
 2920              	.LBB103:
 700:C:/Users/stapi/OneDrive/Desktop/GD32VW553/V1_MQTT_OK/GD32VW55X_Wifi_BLE_SDK/GD32VW55x_RELEASE_V1.0.2/MSDK/cloud/alicloud/src/protocol/alcs\alcs_server.c ****             memcpy (&tmpMsg, message, sizeof(CoAPMessage));
 2921              		.loc 1 700 13 is_stmt 1
 701:C:/Users/stapi/OneDrive/Desktop/GD32VW553/V1_MQTT_OK/GD32VW55X_Wifi_BLE_SDK/GD32VW55x_RELEASE_V1.0.2/MSDK/cloud/alicloud/src/protocol/alcs\alcs_server.c **** 
 2922              		.loc 1 701 13
 2923 018c 13068008 		li	a2,136
 2924 0190 A285     		mv	a1,s0
 2925 0192 2808     		addi	a0,sp,24
 2926              	.LVL342:
 2927 0194 97000000 		call	memcpy
 2927      E7800000 
 2928              	.LVL343:
 703:C:/Users/stapi/OneDrive/Desktop/GD32VW553/V1_MQTT_OK/GD32VW55X_Wifi_BLE_SDK/GD32VW55x_RELEASE_V1.0.2/MSDK/cloud/alicloud/src/protocol/alcs\alcs_server.c ****             if (len > 0) {
 2929              		.loc 1 703 13
 703:C:/Users/stapi/OneDrive/Desktop/GD32VW553/V1_MQTT_OK/GD32VW55X_Wifi_BLE_SDK/GD32VW55x_RELEASE_V1.0.2/MSDK/cloud/alicloud/src/protocol/alcs\alcs_server.c ****             if (len > 0) {
 2930              		.loc 1 703 23 is_stmt 0
 2931 019c 8355E406 		lhu	a1,110(s0)
 2932 01a0 2858     		lw	a0,112(s0)
 2933 01a2 CA86     		mv	a3,s2
 2934 01a4 13865401 		addi	a2,s1,21
 2935 01a8 97000000 		call	alcs_decrypt
 2935      E7800000 
 2936              	.LVL344:
 2937 01b0 AA8B     		mv	s7,a0
 2938              	.LVL345:
 704:C:/Users/stapi/OneDrive/Desktop/GD32VW553/V1_MQTT_OK/GD32VW55X_Wifi_BLE_SDK/GD32VW55x_RELEASE_V1.0.2/MSDK/cloud/alicloud/src/protocol/alcs\alcs_server.c ****                 if (session->opt & ALCS_OPT_PAYLOAD_CHECKSUM) {
 2939              		.loc 1 704 13 is_stmt 1
 704:C:/Users/stapi/OneDrive/Desktop/GD32VW553/V1_MQTT_OK/GD32VW55X_Wifi_BLE_SDK/GD32VW55x_RELEASE_V1.0.2/MSDK/cloud/alicloud/src/protocol/alcs\alcs_server.c ****                 if (session->opt & ALCS_OPT_PAYLOAD_CHECKSUM) {
 2940              		.loc 1 704 16 is_stmt 0
 2941 01b2 635DA004 		ble	a0,zero,.L156
 705:C:/Users/stapi/OneDrive/Desktop/GD32VW553/V1_MQTT_OK/GD32VW55X_Wifi_BLE_SDK/GD32VW55x_RELEASE_V1.0.2/MSDK/cloud/alicloud/src/protocol/alcs\alcs_server.c ****                     unsigned char md5[16];
 2942              		.loc 1 705 17 is_stmt 1
 705:C:/Users/stapi/OneDrive/Desktop/GD32VW553/V1_MQTT_OK/GD32VW55X_Wifi_BLE_SDK/GD32VW55x_RELEASE_V1.0.2/MSDK/cloud/alicloud/src/protocol/alcs\alcs_server.c ****                     unsigned char md5[16];
 2943              		.loc 1 705 34 is_stmt 0
 2944 01b6 83A7840B 		lw	a5,184(s1)
 2945 01ba 918B     		andi	a5,a5,4
 705:C:/Users/stapi/OneDrive/Desktop/GD32VW553/V1_MQTT_OK/GD32VW55X_Wifi_BLE_SDK/GD32VW55x_RELEASE_V1.0.2/MSDK/cloud/alicloud/src/protocol/alcs\alcs_server.c ****                     unsigned char md5[16];
 2946              		.loc 1 705 20
 2947 01bc B1CF     		beq	a5,zero,.L157
 2948              	.LBB104:
 706:C:/Users/stapi/OneDrive/Desktop/GD32VW553/V1_MQTT_OK/GD32VW55X_Wifi_BLE_SDK/GD32VW55x_RELEASE_V1.0.2/MSDK/cloud/alicloud/src/protocol/alcs\alcs_server.c ****                     utils_md5 ((unsigned char*)buf, len, md5);
 2949              		.loc 1 706 21 is_stmt 1
 707:C:/Users/stapi/OneDrive/Desktop/GD32VW553/V1_MQTT_OK/GD32VW55X_Wifi_BLE_SDK/GD32VW55x_RELEASE_V1.0.2/MSDK/cloud/alicloud/src/protocol/alcs\alcs_server.c ****                     if (memcmp (md5, checksum, 4) != 0) {
 2950              		.loc 1 707 21
 2951 01be AA85     		mv	a1,a0
 2952 01c0 3000     		addi	a2,sp,8
 2953 01c2 4A85     		mv	a0,s2
 2954              	.LVL346:
 2955 01c4 97000000 		call	utils_md5
 2955      E7800000 
 2956              	.LVL347:
 708:C:/Users/stapi/OneDrive/Desktop/GD32VW553/V1_MQTT_OK/GD32VW55X_Wifi_BLE_SDK/GD32VW55x_RELEASE_V1.0.2/MSDK/cloud/alicloud/src/protocol/alcs\alcs_server.c ****                         COAP_ERR ("p2p_msg_handler, checksum isn't match");
 2957              		.loc 1 708 21
 708:C:/Users/stapi/OneDrive/Desktop/GD32VW553/V1_MQTT_OK/GD32VW55X_Wifi_BLE_SDK/GD32VW55x_RELEASE_V1.0.2/MSDK/cloud/alicloud/src/protocol/alcs\alcs_server.c ****                         COAP_ERR ("p2p_msg_handler, checksum isn't match");
 2958              		.loc 1 708 25 is_stmt 0
 2959 01cc 1146     		li	a2,4
 2960 01ce 8A85     		mv	a1,sp
 2961 01d0 2800     		addi	a0,sp,8
 2962 01d2 97000000 		call	memcmp
 2962      E7800000 
 2963              	.LVL348:
 708:C:/Users/stapi/OneDrive/Desktop/GD32VW553/V1_MQTT_OK/GD32VW55X_Wifi_BLE_SDK/GD32VW55x_RELEASE_V1.0.2/MSDK/cloud/alicloud/src/protocol/alcs\alcs_server.c ****                         COAP_ERR ("p2p_msg_handler, checksum isn't match");
 2964              		.loc 1 708 24
 2965 01da 1DCD     		beq	a0,zero,.L157
 709:C:/Users/stapi/OneDrive/Desktop/GD32VW553/V1_MQTT_OK/GD32VW55X_Wifi_BLE_SDK/GD32VW55x_RELEASE_V1.0.2/MSDK/cloud/alicloud/src/protocol/alcs\alcs_server.c ****                         coap_free (buf);
 2966              		.loc 1 709 25 is_stmt 1
 709:C:/Users/stapi/OneDrive/Desktop/GD32VW553/V1_MQTT_OK/GD32VW55X_Wifi_BLE_SDK/GD32VW55x_RELEASE_V1.0.2/MSDK/cloud/alicloud/src/protocol/alcs\alcs_server.c ****                         coap_free (buf);
 2967              		.loc 1 709 25
 2968 01dc 37050000 		lui	a0,%hi(.LC0)
 2969 01e0 13050500 		addi	a0,a0,%lo(.LC0)
 2970 01e4 97000000 		call	HAL_Printf
 2970      E7800000 
 2971              	.LVL349:
 709:C:/Users/stapi/OneDrive/Desktop/GD32VW553/V1_MQTT_OK/GD32VW55X_Wifi_BLE_SDK/GD32VW55x_RELEASE_V1.0.2/MSDK/cloud/alicloud/src/protocol/alcs\alcs_server.c ****                         coap_free (buf);
 2972              		.loc 1 709 25
 2973 01ec 37050000 		lui	a0,%hi(.LC44)
 2974 01f0 13050500 		addi	a0,a0,%lo(.LC44)
 2975 01f4 97000000 		call	HAL_Printf
 2975      E7800000 
 2976              	.LVL350:
 709:C:/Users/stapi/OneDrive/Desktop/GD32VW553/V1_MQTT_OK/GD32VW55X_Wifi_BLE_SDK/GD32VW55x_RELEASE_V1.0.2/MSDK/cloud/alicloud/src/protocol/alcs\alcs_server.c ****                         coap_free (buf);
 2977              		.loc 1 709 25
 2978 01fc 37050000 		lui	a0,%hi(.LC2)
 2979 0200 13050500 		addi	a0,a0,%lo(.LC2)
 2980 0204 97000000 		call	HAL_Printf
 2980      E7800000 
 2981              	.LVL351:
 709:C:/Users/stapi/OneDrive/Desktop/GD32VW553/V1_MQTT_OK/GD32VW55X_Wifi_BLE_SDK/GD32VW55x_RELEASE_V1.0.2/MSDK/cloud/alicloud/src/protocol/alcs\alcs_server.c ****                         coap_free (buf);
 2982              		.loc 1 709 25
 710:C:/Users/stapi/OneDrive/Desktop/GD32VW553/V1_MQTT_OK/GD32VW55X_Wifi_BLE_SDK/GD32VW55x_RELEASE_V1.0.2/MSDK/cloud/alicloud/src/protocol/alcs\alcs_server.c ****                         break;
 2983              		.loc 1 710 25
 2984              	.L156:
 2985              	.LBE104:
 721:C:/Users/stapi/OneDrive/Desktop/GD32VW553/V1_MQTT_OK/GD32VW55X_Wifi_BLE_SDK/GD32VW55x_RELEASE_V1.0.2/MSDK/cloud/alicloud/src/protocol/alcs\alcs_server.c ****                 break;
 2986              		.loc 1 721 17
 2987 020c 4A85     		mv	a0,s2
 2988 020e 97000000 		call	LITE_free_internal
 2988      E7800000 
 2989              	.LVL352:
 722:C:/Users/stapi/OneDrive/Desktop/GD32VW553/V1_MQTT_OK/GD32VW55X_Wifi_BLE_SDK/GD32VW55x_RELEASE_V1.0.2/MSDK/cloud/alicloud/src/protocol/alcs\alcs_server.c ****             }
 2990              		.loc 1 722 17
 2991 0216 19B7     		j	.L150
 2992              	.L157:
 715:C:/Users/stapi/OneDrive/Desktop/GD32VW553/V1_MQTT_OK/GD32VW55X_Wifi_BLE_SDK/GD32VW55x_RELEASE_V1.0.2/MSDK/cloud/alicloud/src/protocol/alcs\alcs_server.c ****                 tmpMsg.payloadlen = len;
 2993              		.loc 1 715 17
 717:C:/Users/stapi/OneDrive/Desktop/GD32VW553/V1_MQTT_OK/GD32VW55X_Wifi_BLE_SDK/GD32VW55x_RELEASE_V1.0.2/MSDK/cloud/alicloud/src/protocol/alcs\alcs_server.c ****                 node->cb (context, path, remote, &tmpMsg);
 2994              		.loc 1 717 17 is_stmt 0
 2995 0218 9040     		lw	a2,0(s1)
 2996 021a 4E87     		mv	a4,s3
 2997 021c 8146     		li	a3,0
 2998 021e 8145     		li	a1,0
 2999 0220 2285     		mv	a0,s0
 715:C:/Users/stapi/OneDrive/Desktop/GD32VW553/V1_MQTT_OK/GD32VW55X_Wifi_BLE_SDK/GD32VW55x_RELEASE_V1.0.2/MSDK/cloud/alicloud/src/protocol/alcs\alcs_server.c ****                 tmpMsg.payloadlen = len;
 3000              		.loc 1 715 32
 3001 0222 4AC5     		sw	s2,136(sp)
 716:C:/Users/stapi/OneDrive/Desktop/GD32VW553/V1_MQTT_OK/GD32VW55X_Wifi_BLE_SDK/GD32VW55x_RELEASE_V1.0.2/MSDK/cloud/alicloud/src/protocol/alcs\alcs_server.c ****                 add_request (message, 0, session->sessionId, NULL, remote);
 3002              		.loc 1 716 17 is_stmt 1
 716:C:/Users/stapi/OneDrive/Desktop/GD32VW553/V1_MQTT_OK/GD32VW55X_Wifi_BLE_SDK/GD32VW55x_RELEASE_V1.0.2/MSDK/cloud/alicloud/src/protocol/alcs\alcs_server.c ****                 add_request (message, 0, session->sessionId, NULL, remote);
 3003              		.loc 1 716 35 is_stmt 0
 3004 0224 23137109 		sh	s7,134(sp)
 717:C:/Users/stapi/OneDrive/Desktop/GD32VW553/V1_MQTT_OK/GD32VW55X_Wifi_BLE_SDK/GD32VW55x_RELEASE_V1.0.2/MSDK/cloud/alicloud/src/protocol/alcs\alcs_server.c ****                 node->cb (context, path, remote, &tmpMsg);
 3005              		.loc 1 717 17 is_stmt 1
 3006 0228 97000000 		call	add_request
 3006      E7800000 
 3007              	.LVL353:
 718:C:/Users/stapi/OneDrive/Desktop/GD32VW553/V1_MQTT_OK/GD32VW55X_Wifi_BLE_SDK/GD32VW55x_RELEASE_V1.0.2/MSDK/cloud/alicloud/src/protocol/alcs\alcs_server.c ****                 coap_free (buf);
 3008              		.loc 1 718 17
 3009 0230 83274B01 		lw	a5,20(s6)
 3010 0234 5685     		mv	a0,s5
 3011 0236 3408     		addi	a3,sp,24
 3012 0238 4E86     		mv	a2,s3
 3013 023a D285     		mv	a1,s4
 3014 023c 8297     		jalr	a5
 3015              	.LVL354:
 719:C:/Users/stapi/OneDrive/Desktop/GD32VW553/V1_MQTT_OK/GD32VW55X_Wifi_BLE_SDK/GD32VW55x_RELEASE_V1.0.2/MSDK/cloud/alicloud/src/protocol/alcs\alcs_server.c ****             } else {
 3016              		.loc 1 719 17
 3017 023e 4A85     		mv	a0,s2
 3018 0240 97000000 		call	LITE_free_internal
 3018      E7800000 
 3019              	.LVL355:
 3020              	.L146:
 3021              	.LBE103:
 3022              	.LBE106:
 731:C:/Users/stapi/OneDrive/Desktop/GD32VW553/V1_MQTT_OK/GD32VW55X_Wifi_BLE_SDK/GD32VW55x_RELEASE_V1.0.2/MSDK/cloud/alicloud/src/protocol/alcs\alcs_server.c **** }
 3023              		.loc 1 731 1 is_stmt 0
 3024 0248 0D61     		addi	sp,sp,160
 3025              		.cfi_def_cfa_offset 0
 3026 024a 17030000 		tail	__riscv_restore_8
 3026      67000300 
 3027              		.cfi_restore 23
 3028              		.cfi_restore 22
 3029              		.cfi_restore 21
 3030              		.cfi_restore 20
 3031              		.cfi_restore 19
 3032              		.cfi_restore 18
 3033              		.cfi_restore 9
 3034              		.cfi_restore 8
 3035              		.cfi_restore 1
 3036              		.cfi_def_cfa_offset -48
 3037              		.cfi_endproc
 3038              	.LFE31:
 3040              		.section	.text.recv_msg_handler,"ax",@progbits
 3041              		.align	1
 3042              		.globl	recv_msg_handler
 3044              	recv_msg_handler:
 3045              	.LFB32:
 732:C:/Users/stapi/OneDrive/Desktop/GD32VW553/V1_MQTT_OK/GD32VW55X_Wifi_BLE_SDK/GD32VW55x_RELEASE_V1.0.2/MSDK/cloud/alicloud/src/protocol/alcs\alcs_server.c **** 
 733:C:/Users/stapi/OneDrive/Desktop/GD32VW553/V1_MQTT_OK/GD32VW55X_Wifi_BLE_SDK/GD32VW55x_RELEASE_V1.0.2/MSDK/cloud/alicloud/src/protocol/alcs\alcs_server.c **** void recv_msg_handler (CoAPContext *context, const char *path, NetworkAddr *remote, CoAPMessage *me
 734:C:/Users/stapi/OneDrive/Desktop/GD32VW553/V1_MQTT_OK/GD32VW55X_Wifi_BLE_SDK/GD32VW55x_RELEASE_V1.0.2/MSDK/cloud/alicloud/src/protocol/alcs\alcs_server.c **** {
 3046              		.loc 1 734 1 is_stmt 1
 3047              		.cfi_startproc
 3048              	.LVL356:
 735:C:/Users/stapi/OneDrive/Desktop/GD32VW553/V1_MQTT_OK/GD32VW55X_Wifi_BLE_SDK/GD32VW55x_RELEASE_V1.0.2/MSDK/cloud/alicloud/src/protocol/alcs\alcs_server.c ****     unsigned int obsVal;
 3049              		.loc 1 735 5
 736:C:/Users/stapi/OneDrive/Desktop/GD32VW553/V1_MQTT_OK/GD32VW55X_Wifi_BLE_SDK/GD32VW55x_RELEASE_V1.0.2/MSDK/cloud/alicloud/src/protocol/alcs\alcs_server.c **** #ifdef ALCS_GROUP_COMM_ENABLE
 737:C:/Users/stapi/OneDrive/Desktop/GD32VW553/V1_MQTT_OK/GD32VW55X_Wifi_BLE_SDK/GD32VW55x_RELEASE_V1.0.2/MSDK/cloud/alicloud/src/protocol/alcs\alcs_server.c ****     if (CoAPUintOption_get (message, COAP_OPTION_GROUPID, &obsVal) == ALCS_SUCCESS) {
 738:C:/Users/stapi/OneDrive/Desktop/GD32VW553/V1_MQTT_OK/GD32VW55X_Wifi_BLE_SDK/GD32VW55x_RELEASE_V1.0.2/MSDK/cloud/alicloud/src/protocol/alcs\alcs_server.c ****         group_msg_handler (context, path, remote, message);
 739:C:/Users/stapi/OneDrive/Desktop/GD32VW553/V1_MQTT_OK/GD32VW55X_Wifi_BLE_SDK/GD32VW55x_RELEASE_V1.0.2/MSDK/cloud/alicloud/src/protocol/alcs\alcs_server.c ****     } else
 740:C:/Users/stapi/OneDrive/Desktop/GD32VW553/V1_MQTT_OK/GD32VW55X_Wifi_BLE_SDK/GD32VW55x_RELEASE_V1.0.2/MSDK/cloud/alicloud/src/protocol/alcs\alcs_server.c **** #endif
 741:C:/Users/stapi/OneDrive/Desktop/GD32VW553/V1_MQTT_OK/GD32VW55X_Wifi_BLE_SDK/GD32VW55x_RELEASE_V1.0.2/MSDK/cloud/alicloud/src/protocol/alcs\alcs_server.c ****     {
 742:C:/Users/stapi/OneDrive/Desktop/GD32VW553/V1_MQTT_OK/GD32VW55X_Wifi_BLE_SDK/GD32VW55x_RELEASE_V1.0.2/MSDK/cloud/alicloud/src/protocol/alcs\alcs_server.c ****         p2p_msg_handler (context, path, remote, message);
 3050              		.loc 1 742 9
 3051 0000 17030000 		tail	p2p_msg_handler
 3051      67000300 
 3052              	.LVL357:
 3053              		.cfi_endproc
 3054              	.LFE32:
 3056              		.section	.rodata.alcs_resource_register_secure.str1.4,"aMS",@progbits,1
 3057              		.align	2
 3058              	.LC46:
 3059 0000 616C6373 		.string	"alcs_resource_register_secure"
 3059      5F726573 
 3059      6F757263 
 3059      655F7265 
 3059      67697374 
 3060 001e 0000     		.align	2
 3061              	.LC47:
 3062 0020 2F2300   		.string	"/#"
 3063              		.section	.text.alcs_resource_register_secure,"ax",@progbits
 3064              		.align	1
 3065              		.globl	alcs_resource_register_secure
 3067              	alcs_resource_register_secure:
 3068              	.LFB33:
 743:C:/Users/stapi/OneDrive/Desktop/GD32VW553/V1_MQTT_OK/GD32VW55X_Wifi_BLE_SDK/GD32VW55x_RELEASE_V1.0.2/MSDK/cloud/alicloud/src/protocol/alcs\alcs_server.c ****     }
 744:C:/Users/stapi/OneDrive/Desktop/GD32VW553/V1_MQTT_OK/GD32VW55X_Wifi_BLE_SDK/GD32VW55x_RELEASE_V1.0.2/MSDK/cloud/alicloud/src/protocol/alcs\alcs_server.c **** }
 745:C:/Users/stapi/OneDrive/Desktop/GD32VW553/V1_MQTT_OK/GD32VW55X_Wifi_BLE_SDK/GD32VW55x_RELEASE_V1.0.2/MSDK/cloud/alicloud/src/protocol/alcs\alcs_server.c **** 
 746:C:/Users/stapi/OneDrive/Desktop/GD32VW553/V1_MQTT_OK/GD32VW55X_Wifi_BLE_SDK/GD32VW55x_RELEASE_V1.0.2/MSDK/cloud/alicloud/src/protocol/alcs\alcs_server.c **** int alcs_resource_register_secure(CoAPContext *context, const char *pk, const char *dn, const char 
 747:C:/Users/stapi/OneDrive/Desktop/GD32VW553/V1_MQTT_OK/GD32VW55X_Wifi_BLE_SDK/GD32VW55x_RELEASE_V1.0.2/MSDK/cloud/alicloud/src/protocol/alcs\alcs_server.c ****                                   unsigned short permission,
 748:C:/Users/stapi/OneDrive/Desktop/GD32VW553/V1_MQTT_OK/GD32VW55X_Wifi_BLE_SDK/GD32VW55x_RELEASE_V1.0.2/MSDK/cloud/alicloud/src/protocol/alcs\alcs_server.c ****                                   unsigned int ctype, unsigned int maxage, CoAPRecvMsgHandler callb
 749:C:/Users/stapi/OneDrive/Desktop/GD32VW553/V1_MQTT_OK/GD32VW55X_Wifi_BLE_SDK/GD32VW55x_RELEASE_V1.0.2/MSDK/cloud/alicloud/src/protocol/alcs\alcs_server.c **** {
 3069              		.loc 1 749 1
 3070              		.cfi_startproc
 3071              	.LVL358:
 3072 0000 17030000 		call	t0,__riscv_save_12
 3072      E7020300 
 3073              		.cfi_offset 27, -52
 3074              		.cfi_offset 26, -48
 3075              		.cfi_offset 25, -44
 3076              		.cfi_offset 24, -40
 3077              		.cfi_offset 23, -36
 3078              		.cfi_offset 22, -32
 3079              		.cfi_offset 21, -28
 3080              		.cfi_offset 20, -24
 3081              		.cfi_offset 19, -20
 3082              		.cfi_offset 18, -16
 3083              		.cfi_offset 9, -12
 3084              		.cfi_offset 8, -8
 3085              		.cfi_offset 1, -4
 3086              		.cfi_def_cfa_offset 64
 750:C:/Users/stapi/OneDrive/Desktop/GD32VW553/V1_MQTT_OK/GD32VW55X_Wifi_BLE_SDK/GD32VW55x_RELEASE_V1.0.2/MSDK/cloud/alicloud/src/protocol/alcs\alcs_server.c ****     COAP_INFO("alcs_resource_register_secure");
 3087              		.loc 1 750 5
 3088              		.loc 1 750 5
 749:C:/Users/stapi/OneDrive/Desktop/GD32VW553/V1_MQTT_OK/GD32VW55X_Wifi_BLE_SDK/GD32VW55x_RELEASE_V1.0.2/MSDK/cloud/alicloud/src/protocol/alcs\alcs_server.c ****     COAP_INFO("alcs_resource_register_secure");
 3089              		.loc 1 749 1 is_stmt 0
 3090 0008 1971     		addi	sp,sp,-128
 3091              		.cfi_def_cfa_offset 192
 749:C:/Users/stapi/OneDrive/Desktop/GD32VW553/V1_MQTT_OK/GD32VW55X_Wifi_BLE_SDK/GD32VW55x_RELEASE_V1.0.2/MSDK/cloud/alicloud/src/protocol/alcs\alcs_server.c ****     COAP_INFO("alcs_resource_register_secure");
 3092              		.loc 1 749 1
 3093 000a 2AC6     		sw	a0,12(sp)
 3094              		.loc 1 750 5
 3095 000c 37050000 		lui	a0,%hi(.LC3)
 3096              	.LVL359:
 3097 0010 13050500 		addi	a0,a0,%lo(.LC3)
 749:C:/Users/stapi/OneDrive/Desktop/GD32VW553/V1_MQTT_OK/GD32VW55X_Wifi_BLE_SDK/GD32VW55x_RELEASE_V1.0.2/MSDK/cloud/alicloud/src/protocol/alcs\alcs_server.c ****     COAP_INFO("alcs_resource_register_secure");
 3098              		.loc 1 749 1
 3099 0014 AE8C     		mv	s9,a1
 3100 0016 328C     		mv	s8,a2
 3101 0018 B684     		mv	s1,a3
 3102 001a BA8A     		mv	s5,a4
 3103 001c 3E8B     		mv	s6,a5
 3104 001e C28B     		mv	s7,a6
 3105 0020 4689     		mv	s2,a7
 3106              		.loc 1 750 5
 3107 0022 97000000 		call	HAL_Printf
 3107      E7800000 
 3108              	.LVL360:
 3109              		.loc 1 750 5 is_stmt 1
 3110 002a 37050000 		lui	a0,%hi(.LC46)
 3111 002e 13050500 		addi	a0,a0,%lo(.LC46)
 3112 0032 97000000 		call	HAL_Printf
 3112      E7800000 
 3113              	.LVL361:
 3114              		.loc 1 750 5
 3115 003a 37050000 		lui	a0,%hi(.LC2)
 3116 003e 13050500 		addi	a0,a0,%lo(.LC2)
 3117 0042 97000000 		call	HAL_Printf
 3117      E7800000 
 3118              	.LVL362:
 3119              		.loc 1 750 5
 751:C:/Users/stapi/OneDrive/Desktop/GD32VW553/V1_MQTT_OK/GD32VW55X_Wifi_BLE_SDK/GD32VW55x_RELEASE_V1.0.2/MSDK/cloud/alicloud/src/protocol/alcs\alcs_server.c **** 
 752:C:/Users/stapi/OneDrive/Desktop/GD32VW553/V1_MQTT_OK/GD32VW55X_Wifi_BLE_SDK/GD32VW55x_RELEASE_V1.0.2/MSDK/cloud/alicloud/src/protocol/alcs\alcs_server.c ****     secure_resource_cb_item *node = NULL, *next_node = NULL;;
 3120              		.loc 1 752 5
 3121              		.loc 1 752 61
 753:C:/Users/stapi/OneDrive/Desktop/GD32VW553/V1_MQTT_OK/GD32VW55X_Wifi_BLE_SDK/GD32VW55x_RELEASE_V1.0.2/MSDK/cloud/alicloud/src/protocol/alcs\alcs_server.c ****     char pk_dn[100] = {0};
 3122              		.loc 1 753 5
 3123              		.loc 1 753 10 is_stmt 0
 3124 004a 13060006 		li	a2,96
 3125 004e 8145     		li	a1,0
 3126 0050 0810     		addi	a0,sp,32
 3127 0052 02CE     		sw	zero,28(sp)
 3128 0054 97000000 		call	memset
 3128      E7800000 
 3129              	.LVL363:
 754:C:/Users/stapi/OneDrive/Desktop/GD32VW553/V1_MQTT_OK/GD32VW55X_Wifi_BLE_SDK/GD32VW55x_RELEASE_V1.0.2/MSDK/cloud/alicloud/src/protocol/alcs\alcs_server.c ****     int dup = 0;
 3130              		.loc 1 754 5 is_stmt 1
 755:C:/Users/stapi/OneDrive/Desktop/GD32VW553/V1_MQTT_OK/GD32VW55X_Wifi_BLE_SDK/GD32VW55x_RELEASE_V1.0.2/MSDK/cloud/alicloud/src/protocol/alcs\alcs_server.c ****     secure_resource_cb_item *item = (secure_resource_cb_item *)coap_malloc(sizeof(secure_resource_c
 3131              		.loc 1 755 5
 3132              		.loc 1 755 64 is_stmt 0
 3133 005c 13060002 		li	a2,32
 3134 0060 8145     		li	a1,0
 3135 0062 0145     		li	a0,0
 3136 0064 97000000 		call	LITE_malloc_internal
 3136      E7800000 
 3137              	.LVL364:
 756:C:/Users/stapi/OneDrive/Desktop/GD32VW553/V1_MQTT_OK/GD32VW55X_Wifi_BLE_SDK/GD32VW55x_RELEASE_V1.0.2/MSDK/cloud/alicloud/src/protocol/alcs\alcs_server.c ****     if (item == NULL) {
 3138              		.loc 1 756 5 is_stmt 1
 3139              		.loc 1 756 8 is_stmt 0
 3140 006c 41C5     		beq	a0,zero,.L192
 757:C:/Users/stapi/OneDrive/Desktop/GD32VW553/V1_MQTT_OK/GD32VW55X_Wifi_BLE_SDK/GD32VW55x_RELEASE_V1.0.2/MSDK/cloud/alicloud/src/protocol/alcs\alcs_server.c ****         return -1;
 758:C:/Users/stapi/OneDrive/Desktop/GD32VW553/V1_MQTT_OK/GD32VW55X_Wifi_BLE_SDK/GD32VW55x_RELEASE_V1.0.2/MSDK/cloud/alicloud/src/protocol/alcs\alcs_server.c ****     }
 759:C:/Users/stapi/OneDrive/Desktop/GD32VW553/V1_MQTT_OK/GD32VW55X_Wifi_BLE_SDK/GD32VW55x_RELEASE_V1.0.2/MSDK/cloud/alicloud/src/protocol/alcs\alcs_server.c ****     memset(item, 0, sizeof(secure_resource_cb_item));
 3141              		.loc 1 759 5
 3142 006e 8145     		li	a1,0
 3143 0070 13060002 		li	a2,32
 3144 0074 2A84     		mv	s0,a0
 3145              		.loc 1 759 5 is_stmt 1
 3146 0076 97000000 		call	memset
 3146      E7800000 
 3147              	.LVL365:
 760:C:/Users/stapi/OneDrive/Desktop/GD32VW553/V1_MQTT_OK/GD32VW55X_Wifi_BLE_SDK/GD32VW55x_RELEASE_V1.0.2/MSDK/cloud/alicloud/src/protocol/alcs\alcs_server.c ****     item->cb = callback;
 3148              		.loc 1 760 5
 761:C:/Users/stapi/OneDrive/Desktop/GD32VW553/V1_MQTT_OK/GD32VW55X_Wifi_BLE_SDK/GD32VW55x_RELEASE_V1.0.2/MSDK/cloud/alicloud/src/protocol/alcs\alcs_server.c ****     item->path_type = PATH_NORMAL;
 762:C:/Users/stapi/OneDrive/Desktop/GD32VW553/V1_MQTT_OK/GD32VW55X_Wifi_BLE_SDK/GD32VW55x_RELEASE_V1.0.2/MSDK/cloud/alicloud/src/protocol/alcs\alcs_server.c ****     if (strstr(path, "/#") != NULL) {
 3149              		.loc 1 762 9 is_stmt 0
 3150 007e B7050000 		lui	a1,%hi(.LC47)
 760:C:/Users/stapi/OneDrive/Desktop/GD32VW553/V1_MQTT_OK/GD32VW55X_Wifi_BLE_SDK/GD32VW55x_RELEASE_V1.0.2/MSDK/cloud/alicloud/src/protocol/alcs\alcs_server.c ****     item->cb = callback;
 3151              		.loc 1 760 14
 3152 0082 232A2401 		sw	s2,20(s0)
 761:C:/Users/stapi/OneDrive/Desktop/GD32VW553/V1_MQTT_OK/GD32VW55X_Wifi_BLE_SDK/GD32VW55x_RELEASE_V1.0.2/MSDK/cloud/alicloud/src/protocol/alcs\alcs_server.c ****     item->path_type = PATH_NORMAL;
 3153              		.loc 1 761 5 is_stmt 1
 3154              		.loc 1 762 5
 3155              		.loc 1 762 9 is_stmt 0
 3156 0086 93850500 		addi	a1,a1,%lo(.LC47)
 3157 008a 2685     		mv	a0,s1
 3158 008c 97000000 		call	strstr
 3158      E7800000 
 3159              	.LVL366:
 3160              		.loc 1 762 8
 3161 0094 35C1     		beq	a0,zero,.L182
 763:C:/Users/stapi/OneDrive/Desktop/GD32VW553/V1_MQTT_OK/GD32VW55X_Wifi_BLE_SDK/GD32VW55x_RELEASE_V1.0.2/MSDK/cloud/alicloud/src/protocol/alcs\alcs_server.c ****         item->path_type = PATH_FILTER;
 3162              		.loc 1 763 9 is_stmt 1
 3163              		.loc 1 763 25 is_stmt 0
 3164 0096 8547     		li	a5,1
 3165 0098 1CC8     		sw	a5,16(s0)
 3166              	.L183:
 764:C:/Users/stapi/OneDrive/Desktop/GD32VW553/V1_MQTT_OK/GD32VW55X_Wifi_BLE_SDK/GD32VW55x_RELEASE_V1.0.2/MSDK/cloud/alicloud/src/protocol/alcs\alcs_server.c ****     } else {
 765:C:/Users/stapi/OneDrive/Desktop/GD32VW553/V1_MQTT_OK/GD32VW55X_Wifi_BLE_SDK/GD32VW55x_RELEASE_V1.0.2/MSDK/cloud/alicloud/src/protocol/alcs\alcs_server.c ****         CoAPPathMD5_sum(path, strlen(path), item->path, MAX_PATH_CHECKSUM_LEN);
 766:C:/Users/stapi/OneDrive/Desktop/GD32VW553/V1_MQTT_OK/GD32VW55X_Wifi_BLE_SDK/GD32VW55x_RELEASE_V1.0.2/MSDK/cloud/alicloud/src/protocol/alcs\alcs_server.c ****     }
 767:C:/Users/stapi/OneDrive/Desktop/GD32VW553/V1_MQTT_OK/GD32VW55X_Wifi_BLE_SDK/GD32VW55x_RELEASE_V1.0.2/MSDK/cloud/alicloud/src/protocol/alcs\alcs_server.c ****     list_for_each_entry_safe(node, next_node, &secure_resource_cb_head, lst, secure_resource_cb_ite
 3167              		.loc 1 767 5 is_stmt 1
 3168 009a 37090000 		lui	s2,%hi(secure_resource_cb_head)
 3169              	.LVL367:
 3170 009e 93070900 		addi	a5,s2,%lo(secure_resource_cb_head)
 3171 00a2 DC43     		lw	a5,4(a5)
 754:C:/Users/stapi/OneDrive/Desktop/GD32VW553/V1_MQTT_OK/GD32VW55X_Wifi_BLE_SDK/GD32VW55x_RELEASE_V1.0.2/MSDK/cloud/alicloud/src/protocol/alcs\alcs_server.c ****     secure_resource_cb_item *item = (secure_resource_cb_item *)coap_malloc(sizeof(secure_resource_c
 3172              		.loc 1 754 9 is_stmt 0
 3173 00a4 014A     		li	s4,0
 3174 00a6 13090900 		addi	s2,s2,%lo(secure_resource_cb_head)
 3175              		.loc 1 767 5
 3176 00aa 03AD4700 		lw	s10,4(a5)
 3177 00ae 938987FE 		addi	s3,a5,-24
 3178              	.LVL368:
 768:C:/Users/stapi/OneDrive/Desktop/GD32VW553/V1_MQTT_OK/GD32VW55X_Wifi_BLE_SDK/GD32VW55x_RELEASE_V1.0.2/MSDK/cloud/alicloud/src/protocol/alcs\alcs_server.c ****         if (item->path_type == PATH_NORMAL && node->path_type == PATH_NORMAL) {
 769:C:/Users/stapi/OneDrive/Desktop/GD32VW553/V1_MQTT_OK/GD32VW55X_Wifi_BLE_SDK/GD32VW55x_RELEASE_V1.0.2/MSDK/cloud/alicloud/src/protocol/alcs\alcs_server.c ****             if (memcmp(node->path, item->path, MAX_PATH_CHECKSUM_LEN) == 0) {
 770:C:/Users/stapi/OneDrive/Desktop/GD32VW553/V1_MQTT_OK/GD32VW55X_Wifi_BLE_SDK/GD32VW55x_RELEASE_V1.0.2/MSDK/cloud/alicloud/src/protocol/alcs\alcs_server.c ****                 dup = 1;
 771:C:/Users/stapi/OneDrive/Desktop/GD32VW553/V1_MQTT_OK/GD32VW55X_Wifi_BLE_SDK/GD32VW55x_RELEASE_V1.0.2/MSDK/cloud/alicloud/src/protocol/alcs\alcs_server.c ****             }
 772:C:/Users/stapi/OneDrive/Desktop/GD32VW553/V1_MQTT_OK/GD32VW55X_Wifi_BLE_SDK/GD32VW55x_RELEASE_V1.0.2/MSDK/cloud/alicloud/src/protocol/alcs\alcs_server.c ****         } else if (item->path_type == PATH_FILTER && node->path_type == PATH_FILTER) {
 3179              		.loc 1 772 19
 3180 00b2 854D     		li	s11,1
 767:C:/Users/stapi/OneDrive/Desktop/GD32VW553/V1_MQTT_OK/GD32VW55X_Wifi_BLE_SDK/GD32VW55x_RELEASE_V1.0.2/MSDK/cloud/alicloud/src/protocol/alcs\alcs_server.c ****         if (item->path_type == PATH_NORMAL && node->path_type == PATH_NORMAL) {
 3181              		.loc 1 767 5
 3182 00b4 211D     		addi	s10,s10,-24
 3183              	.LVL369:
 3184              	.L184:
 767:C:/Users/stapi/OneDrive/Desktop/GD32VW553/V1_MQTT_OK/GD32VW55X_Wifi_BLE_SDK/GD32VW55x_RELEASE_V1.0.2/MSDK/cloud/alicloud/src/protocol/alcs\alcs_server.c ****         if (item->path_type == PATH_NORMAL && node->path_type == PATH_NORMAL) {
 3185              		.loc 1 767 5 is_stmt 1 discriminator 1
 3186 00b6 13878901 		addi	a4,s3,24
 3187 00ba 631D2705 		bne	a4,s2,.L187
 773:C:/Users/stapi/OneDrive/Desktop/GD32VW553/V1_MQTT_OK/GD32VW55X_Wifi_BLE_SDK/GD32VW55x_RELEASE_V1.0.2/MSDK/cloud/alicloud/src/protocol/alcs\alcs_server.c ****             if (strncmp(node->filter_path, path, strlen(path)) == 0) {
 774:C:/Users/stapi/OneDrive/Desktop/GD32VW553/V1_MQTT_OK/GD32VW55X_Wifi_BLE_SDK/GD32VW55x_RELEASE_V1.0.2/MSDK/cloud/alicloud/src/protocol/alcs\alcs_server.c ****                 dup = 1;
 775:C:/Users/stapi/OneDrive/Desktop/GD32VW553/V1_MQTT_OK/GD32VW55X_Wifi_BLE_SDK/GD32VW55x_RELEASE_V1.0.2/MSDK/cloud/alicloud/src/protocol/alcs\alcs_server.c ****             }
 776:C:/Users/stapi/OneDrive/Desktop/GD32VW553/V1_MQTT_OK/GD32VW55X_Wifi_BLE_SDK/GD32VW55x_RELEASE_V1.0.2/MSDK/cloud/alicloud/src/protocol/alcs\alcs_server.c ****         }
 777:C:/Users/stapi/OneDrive/Desktop/GD32VW553/V1_MQTT_OK/GD32VW55X_Wifi_BLE_SDK/GD32VW55x_RELEASE_V1.0.2/MSDK/cloud/alicloud/src/protocol/alcs\alcs_server.c ****     }
 778:C:/Users/stapi/OneDrive/Desktop/GD32VW553/V1_MQTT_OK/GD32VW55X_Wifi_BLE_SDK/GD32VW55x_RELEASE_V1.0.2/MSDK/cloud/alicloud/src/protocol/alcs\alcs_server.c ****     if (dup == 0) {
 3188              		.loc 1 778 5
 3189              		.loc 1 778 8 is_stmt 0
 3190 00be 631D0A14 		bne	s4,zero,.L188
 779:C:/Users/stapi/OneDrive/Desktop/GD32VW553/V1_MQTT_OK/GD32VW55X_Wifi_BLE_SDK/GD32VW55x_RELEASE_V1.0.2/MSDK/cloud/alicloud/src/protocol/alcs\alcs_server.c ****         if (item->path_type == PATH_FILTER) {
 3191              		.loc 1 779 9 is_stmt 1
 3192              		.loc 1 779 12 is_stmt 0
 3193 00c2 1848     		lw	a4,16(s0)
 3194 00c4 8547     		li	a5,1
 3195 00c6 6319F70C 		bne	a4,a5,.L189
 780:C:/Users/stapi/OneDrive/Desktop/GD32VW553/V1_MQTT_OK/GD32VW55X_Wifi_BLE_SDK/GD32VW55x_RELEASE_V1.0.2/MSDK/cloud/alicloud/src/protocol/alcs\alcs_server.c ****             item->filter_path = coap_malloc(strlen(path) + 1);
 3196              		.loc 1 780 13 is_stmt 1
 3197              		.loc 1 780 33 is_stmt 0
 3198 00ca 2685     		mv	a0,s1
 3199 00cc 97000000 		call	strlen
 3199      E7800000 
 3200              	.LVL370:
 3201 00d4 13061500 		addi	a2,a0,1
 3202 00d8 8145     		li	a1,0
 3203 00da 0145     		li	a0,0
 3204 00dc 97000000 		call	LITE_malloc_internal
 3204      E7800000 
 3205              	.LVL371:
 3206              		.loc 1 780 31
 3207 00e4 48C4     		sw	a0,12(s0)
 781:C:/Users/stapi/OneDrive/Desktop/GD32VW553/V1_MQTT_OK/GD32VW55X_Wifi_BLE_SDK/GD32VW55x_RELEASE_V1.0.2/MSDK/cloud/alicloud/src/protocol/alcs\alcs_server.c ****             if (item->filter_path == NULL) {
 3208              		.loc 1 781 13 is_stmt 1
 780:C:/Users/stapi/OneDrive/Desktop/GD32VW553/V1_MQTT_OK/GD32VW55X_Wifi_BLE_SDK/GD32VW55x_RELEASE_V1.0.2/MSDK/cloud/alicloud/src/protocol/alcs\alcs_server.c ****             item->filter_path = coap_malloc(strlen(path) + 1);
 3209              		.loc 1 780 33 is_stmt 0
 3210 00e6 AA89     		mv	s3,a0
 3211              	.LVL372:
 3212              		.loc 1 781 16
 3213 00e8 3DED     		bne	a0,zero,.L190
 782:C:/Users/stapi/OneDrive/Desktop/GD32VW553/V1_MQTT_OK/GD32VW55X_Wifi_BLE_SDK/GD32VW55x_RELEASE_V1.0.2/MSDK/cloud/alicloud/src/protocol/alcs\alcs_server.c ****                 coap_free(item);
 3214              		.loc 1 782 17 is_stmt 1
 3215 00ea 2285     		mv	a0,s0
 3216 00ec 97000000 		call	LITE_free_internal
 3216      E7800000 
 3217              	.LVL373:
 783:C:/Users/stapi/OneDrive/Desktop/GD32VW553/V1_MQTT_OK/GD32VW55X_Wifi_BLE_SDK/GD32VW55x_RELEASE_V1.0.2/MSDK/cloud/alicloud/src/protocol/alcs\alcs_server.c ****                 return -1;
 3218              		.loc 1 783 17
 3219              	.L192:
 757:C:/Users/stapi/OneDrive/Desktop/GD32VW553/V1_MQTT_OK/GD32VW55X_Wifi_BLE_SDK/GD32VW55x_RELEASE_V1.0.2/MSDK/cloud/alicloud/src/protocol/alcs\alcs_server.c ****     }
 3220              		.loc 1 757 16 is_stmt 0
 3221 00f4 7D55     		li	a0,-1
 3222 00f6 21AA     		j	.L180
 3223              	.LVL374:
 3224              	.L182:
 765:C:/Users/stapi/OneDrive/Desktop/GD32VW553/V1_MQTT_OK/GD32VW55X_Wifi_BLE_SDK/GD32VW55x_RELEASE_V1.0.2/MSDK/cloud/alicloud/src/protocol/alcs\alcs_server.c ****     }
 3225              		.loc 1 765 9 is_stmt 1
 765:C:/Users/stapi/OneDrive/Desktop/GD32VW553/V1_MQTT_OK/GD32VW55X_Wifi_BLE_SDK/GD32VW55x_RELEASE_V1.0.2/MSDK/cloud/alicloud/src/protocol/alcs\alcs_server.c ****     }
 3226              		.loc 1 765 31 is_stmt 0
 3227 00f8 2685     		mv	a0,s1
 3228 00fa 97000000 		call	strlen
 3228      E7800000 
 3229              	.LVL375:
 3230 0102 AA85     		mv	a1,a0
 765:C:/Users/stapi/OneDrive/Desktop/GD32VW553/V1_MQTT_OK/GD32VW55X_Wifi_BLE_SDK/GD32VW55x_RELEASE_V1.0.2/MSDK/cloud/alicloud/src/protocol/alcs\alcs_server.c ****     }
 3231              		.loc 1 765 9
 3232 0104 9546     		li	a3,5
 3233 0106 2286     		mv	a2,s0
 3234 0108 2685     		mv	a0,s1
 3235 010a 97000000 		call	CoAPPathMD5_sum
 3235      E7800000 
 3236              	.LVL376:
 3237 0112 61B7     		j	.L183
 3238              	.LVL377:
 3239              	.L187:
 768:C:/Users/stapi/OneDrive/Desktop/GD32VW553/V1_MQTT_OK/GD32VW55X_Wifi_BLE_SDK/GD32VW55x_RELEASE_V1.0.2/MSDK/cloud/alicloud/src/protocol/alcs\alcs_server.c ****             if (memcmp(node->path, item->path, MAX_PATH_CHECKSUM_LEN) == 0) {
 3240              		.loc 1 768 9 is_stmt 1
 768:C:/Users/stapi/OneDrive/Desktop/GD32VW553/V1_MQTT_OK/GD32VW55X_Wifi_BLE_SDK/GD32VW55x_RELEASE_V1.0.2/MSDK/cloud/alicloud/src/protocol/alcs\alcs_server.c ****             if (memcmp(node->path, item->path, MAX_PATH_CHECKSUM_LEN) == 0) {
 3241              		.loc 1 768 17 is_stmt 0
 3242 0114 1848     		lw	a4,16(s0)
 768:C:/Users/stapi/OneDrive/Desktop/GD32VW553/V1_MQTT_OK/GD32VW55X_Wifi_BLE_SDK/GD32VW55x_RELEASE_V1.0.2/MSDK/cloud/alicloud/src/protocol/alcs\alcs_server.c ****             if (memcmp(node->path, item->path, MAX_PATH_CHECKSUM_LEN) == 0) {
 3243              		.loc 1 768 12
 3244 0116 15E3     		bne	a4,zero,.L185
 768:C:/Users/stapi/OneDrive/Desktop/GD32VW553/V1_MQTT_OK/GD32VW55X_Wifi_BLE_SDK/GD32VW55x_RELEASE_V1.0.2/MSDK/cloud/alicloud/src/protocol/alcs\alcs_server.c ****             if (memcmp(node->path, item->path, MAX_PATH_CHECKSUM_LEN) == 0) {
 3245              		.loc 1 768 44 discriminator 1
 3246 0118 03A70901 		lw	a4,16(s3)
 3247 011c 09EB     		bne	a4,zero,.L186
 769:C:/Users/stapi/OneDrive/Desktop/GD32VW553/V1_MQTT_OK/GD32VW55X_Wifi_BLE_SDK/GD32VW55x_RELEASE_V1.0.2/MSDK/cloud/alicloud/src/protocol/alcs\alcs_server.c ****                 dup = 1;
 3248              		.loc 1 769 13 is_stmt 1
 769:C:/Users/stapi/OneDrive/Desktop/GD32VW553/V1_MQTT_OK/GD32VW55X_Wifi_BLE_SDK/GD32VW55x_RELEASE_V1.0.2/MSDK/cloud/alicloud/src/protocol/alcs\alcs_server.c ****                 dup = 1;
 3249              		.loc 1 769 17 is_stmt 0
 3250 011e 1546     		li	a2,5
 3251 0120 A285     		mv	a1,s0
 3252 0122 4E85     		mv	a0,s3
 3253 0124 97000000 		call	memcmp
 3253      E7800000 
 3254              	.LVL378:
 3255              	.L196:
 773:C:/Users/stapi/OneDrive/Desktop/GD32VW553/V1_MQTT_OK/GD32VW55X_Wifi_BLE_SDK/GD32VW55x_RELEASE_V1.0.2/MSDK/cloud/alicloud/src/protocol/alcs\alcs_server.c ****                 dup = 1;
 3256              		.loc 1 773 16
 3257 012c 1DC9     		beq	a0,zero,.L194
 3258              	.LVL379:
 3259              	.L186:
 767:C:/Users/stapi/OneDrive/Desktop/GD32VW553/V1_MQTT_OK/GD32VW55X_Wifi_BLE_SDK/GD32VW55x_RELEASE_V1.0.2/MSDK/cloud/alicloud/src/protocol/alcs\alcs_server.c ****         if (item->path_type == PATH_NORMAL && node->path_type == PATH_NORMAL) {
 3260              		.loc 1 767 5 is_stmt 1 discriminator 2
 3261 012e 0327CD01 		lw	a4,28(s10)
 3262              	.LVL380:
 3263 0132 EA89     		mv	s3,s10
 3264 0134 130D87FE 		addi	s10,a4,-24
 3265              	.LVL381:
 3266 0138 BDBF     		j	.L184
 3267              	.L185:
 772:C:/Users/stapi/OneDrive/Desktop/GD32VW553/V1_MQTT_OK/GD32VW55X_Wifi_BLE_SDK/GD32VW55x_RELEASE_V1.0.2/MSDK/cloud/alicloud/src/protocol/alcs\alcs_server.c ****             if (strncmp(node->filter_path, path, strlen(path)) == 0) {
 3268              		.loc 1 772 16
 772:C:/Users/stapi/OneDrive/Desktop/GD32VW553/V1_MQTT_OK/GD32VW55X_Wifi_BLE_SDK/GD32VW55x_RELEASE_V1.0.2/MSDK/cloud/alicloud/src/protocol/alcs\alcs_server.c ****             if (strncmp(node->filter_path, path, strlen(path)) == 0) {
 3269              		.loc 1 772 19 is_stmt 0
 3270 013a E31AB7FF 		bne	a4,s11,.L186
 772:C:/Users/stapi/OneDrive/Desktop/GD32VW553/V1_MQTT_OK/GD32VW55X_Wifi_BLE_SDK/GD32VW55x_RELEASE_V1.0.2/MSDK/cloud/alicloud/src/protocol/alcs\alcs_server.c ****             if (strncmp(node->filter_path, path, strlen(path)) == 0) {
 3271              		.loc 1 772 51 discriminator 1
 3272 013e 03A70901 		lw	a4,16(s3)
 3273 0142 E316B7FF 		bne	a4,s11,.L186
 773:C:/Users/stapi/OneDrive/Desktop/GD32VW553/V1_MQTT_OK/GD32VW55X_Wifi_BLE_SDK/GD32VW55x_RELEASE_V1.0.2/MSDK/cloud/alicloud/src/protocol/alcs\alcs_server.c ****                 dup = 1;
 3274              		.loc 1 773 13 is_stmt 1
 773:C:/Users/stapi/OneDrive/Desktop/GD32VW553/V1_MQTT_OK/GD32VW55X_Wifi_BLE_SDK/GD32VW55x_RELEASE_V1.0.2/MSDK/cloud/alicloud/src/protocol/alcs\alcs_server.c ****                 dup = 1;
 3275              		.loc 1 773 17 is_stmt 0
 3276 0146 2685     		mv	a0,s1
 3277 0148 97000000 		call	strlen
 3277      E7800000 
 3278              	.LVL382:
 3279 0150 2A86     		mv	a2,a0
 3280 0152 03A5C900 		lw	a0,12(s3)
 3281 0156 A685     		mv	a1,s1
 3282 0158 97000000 		call	strncmp
 3282      E7800000 
 3283              	.LVL383:
 3284 0160 F1B7     		j	.L196
 3285              	.L194:
 770:C:/Users/stapi/OneDrive/Desktop/GD32VW553/V1_MQTT_OK/GD32VW55X_Wifi_BLE_SDK/GD32VW55x_RELEASE_V1.0.2/MSDK/cloud/alicloud/src/protocol/alcs\alcs_server.c ****             }
 3286              		.loc 1 770 21
 3287 0162 054A     		li	s4,1
 3288              	.LVL384:
 3289 0164 E9B7     		j	.L186
 3290              	.LVL385:
 3291              	.L190:
 784:C:/Users/stapi/OneDrive/Desktop/GD32VW553/V1_MQTT_OK/GD32VW55X_Wifi_BLE_SDK/GD32VW55x_RELEASE_V1.0.2/MSDK/cloud/alicloud/src/protocol/alcs\alcs_server.c ****             }
 785:C:/Users/stapi/OneDrive/Desktop/GD32VW553/V1_MQTT_OK/GD32VW55X_Wifi_BLE_SDK/GD32VW55x_RELEASE_V1.0.2/MSDK/cloud/alicloud/src/protocol/alcs\alcs_server.c ****             memset(item->filter_path, 0, strlen(path) + 1);
 3292              		.loc 1 785 13 is_stmt 1
 3293              		.loc 1 785 42 is_stmt 0
 3294 0166 2685     		mv	a0,s1
 3295 0168 97000000 		call	strlen
 3295      E7800000 
 3296              	.LVL386:
 3297              		.loc 1 785 13
 3298 0170 13061500 		addi	a2,a0,1
 3299 0174 8145     		li	a1,0
 3300 0176 4E85     		mv	a0,s3
 3301 0178 97000000 		call	memset
 3301      E7800000 
 3302              	.LVL387:
 786:C:/Users/stapi/OneDrive/Desktop/GD32VW553/V1_MQTT_OK/GD32VW55X_Wifi_BLE_SDK/GD32VW55x_RELEASE_V1.0.2/MSDK/cloud/alicloud/src/protocol/alcs\alcs_server.c ****             strncpy(item->filter_path, path, strlen(path));
 3303              		.loc 1 786 13 is_stmt 1
 3304 0180 2685     		mv	a0,s1
 3305 0182 97000000 		call	strlen
 3305      E7800000 
 3306              	.LVL388:
 3307 018a 2A86     		mv	a2,a0
 3308 018c 4844     		lw	a0,12(s0)
 3309 018e A685     		mv	a1,s1
 3310 0190 97000000 		call	strncpy
 3310      E7800000 
 3311              	.LVL389:
 3312              	.L189:
 787:C:/Users/stapi/OneDrive/Desktop/GD32VW553/V1_MQTT_OK/GD32VW55X_Wifi_BLE_SDK/GD32VW55x_RELEASE_V1.0.2/MSDK/cloud/alicloud/src/protocol/alcs\alcs_server.c ****         }
 788:C:/Users/stapi/OneDrive/Desktop/GD32VW553/V1_MQTT_OK/GD32VW55X_Wifi_BLE_SDK/GD32VW55x_RELEASE_V1.0.2/MSDK/cloud/alicloud/src/protocol/alcs\alcs_server.c **** 
 789:C:/Users/stapi/OneDrive/Desktop/GD32VW553/V1_MQTT_OK/GD32VW55X_Wifi_BLE_SDK/GD32VW55x_RELEASE_V1.0.2/MSDK/cloud/alicloud/src/protocol/alcs\alcs_server.c ****         strncpy(pk_dn, pk, sizeof(pk_dn) - 1);
 3313              		.loc 1 789 9
 3314 0198 13063006 		li	a2,99
 3315 019c E685     		mv	a1,s9
 3316 019e 6808     		addi	a0,sp,28
 3317 01a0 97000000 		call	strncpy
 3317      E7800000 
 3318              	.LVL390:
 790:C:/Users/stapi/OneDrive/Desktop/GD32VW553/V1_MQTT_OK/GD32VW55X_Wifi_BLE_SDK/GD32VW55x_RELEASE_V1.0.2/MSDK/cloud/alicloud/src/protocol/alcs\alcs_server.c ****         strncat(pk_dn, dn, sizeof(pk_dn) - strlen(pk_dn) - 1);
 3319              		.loc 1 790 9
 3320              		.loc 1 790 44 is_stmt 0
 3321 01a8 6808     		addi	a0,sp,28
 3322 01aa 97000000 		call	strlen
 3322      E7800000 
 3323              	.LVL391:
 3324              		.loc 1 790 9
 3325 01b2 13063006 		li	a2,99
 3326 01b6 098E     		sub	a2,a2,a0
 3327 01b8 E285     		mv	a1,s8
 3328 01ba 6808     		addi	a0,sp,28
 3329 01bc 97000000 		call	strncat
 3329      E7800000 
 3330              	.LVL392:
 791:C:/Users/stapi/OneDrive/Desktop/GD32VW553/V1_MQTT_OK/GD32VW55X_Wifi_BLE_SDK/GD32VW55x_RELEASE_V1.0.2/MSDK/cloud/alicloud/src/protocol/alcs\alcs_server.c **** 
 792:C:/Users/stapi/OneDrive/Desktop/GD32VW553/V1_MQTT_OK/GD32VW55X_Wifi_BLE_SDK/GD32VW55x_RELEASE_V1.0.2/MSDK/cloud/alicloud/src/protocol/alcs\alcs_server.c ****         CoAPPathMD5_sum(pk_dn, strlen(pk_dn), item->pk_dn, PK_DN_CHECKSUM_LEN);
 3331              		.loc 1 792 9 is_stmt 1
 3332              		.loc 1 792 32 is_stmt 0
 3333 01c4 6808     		addi	a0,sp,28
 3334 01c6 97000000 		call	strlen
 3334      E7800000 
 3335              	.LVL393:
 3336 01ce AA85     		mv	a1,a0
 3337              		.loc 1 792 9
 3338 01d0 9946     		li	a3,6
 3339 01d2 13065400 		addi	a2,s0,5
 3340 01d6 6808     		addi	a0,sp,28
 3341 01d8 97000000 		call	CoAPPathMD5_sum
 3341      E7800000 
 3342              	.LVL394:
 793:C:/Users/stapi/OneDrive/Desktop/GD32VW553/V1_MQTT_OK/GD32VW55X_Wifi_BLE_SDK/GD32VW55x_RELEASE_V1.0.2/MSDK/cloud/alicloud/src/protocol/alcs\alcs_server.c **** 
 794:C:/Users/stapi/OneDrive/Desktop/GD32VW553/V1_MQTT_OK/GD32VW55X_Wifi_BLE_SDK/GD32VW55x_RELEASE_V1.0.2/MSDK/cloud/alicloud/src/protocol/alcs\alcs_server.c ****         list_add_tail(&item->lst, &secure_resource_cb_head);
 3343              		.loc 1 794 9 is_stmt 1
 3344              	.LBB107:
 3345              	.LBB108:
  63:..\..\..\..\cloud\alicloud\src\infra\utils\misc/lite-list.h **** }
 3346              		.loc 2 63 28 is_stmt 0
 3347 01e0 03270900 		lw	a4,0(s2)
 3348              	.LBE108:
 3349              	.LBE107:
 3350              		.loc 1 794 23
 3351 01e4 93078401 		addi	a5,s0,24
 3352              	.LVL395:
 3353              	.LBB112:
 3354              	.LBB111:
  63:..\..\..\..\cloud\alicloud\src\infra\utils\misc/lite-list.h **** }
 3355              		.loc 2 63 5 is_stmt 1
 3356              	.LBB109:
 3357              	.LBB110:
  38:..\..\..\..\cloud\alicloud\src\infra\utils\misc/lite-list.h ****     node->prev = prev;
 3358              		.loc 2 38 5
  38:..\..\..\..\cloud\alicloud\src\infra\utils\misc/lite-list.h ****     node->prev = prev;
 3359              		.loc 2 38 16 is_stmt 0
 3360 01e8 232E2401 		sw	s2,28(s0)
  39:..\..\..\..\cloud\alicloud\src\infra\utils\misc/lite-list.h **** 
 3361              		.loc 2 39 5 is_stmt 1
  39:..\..\..\..\cloud\alicloud\src\infra\utils\misc/lite-list.h **** 
 3362              		.loc 2 39 16 is_stmt 0
 3363 01ec 18CC     		sw	a4,24(s0)
  41:..\..\..\..\cloud\alicloud\src\infra\utils\misc/lite-list.h ****     next->prev = node;
 3364              		.loc 2 41 5 is_stmt 1
  41:..\..\..\..\cloud\alicloud\src\infra\utils\misc/lite-list.h ****     next->prev = node;
 3365              		.loc 2 41 16 is_stmt 0
 3366 01ee 5CC3     		sw	a5,4(a4)
  42:..\..\..\..\cloud\alicloud\src\infra\utils\misc/lite-list.h **** }
 3367              		.loc 2 42 5 is_stmt 1
  42:..\..\..\..\cloud\alicloud\src\infra\utils\misc/lite-list.h **** }
 3368              		.loc 2 42 16 is_stmt 0
 3369 01f0 2320F900 		sw	a5,0(s2)
 3370              	.LVL396:
 3371              	.L191:
 3372              	.LBE110:
 3373              	.LBE109:
 3374              	.LBE111:
 3375              	.LBE112:
 795:C:/Users/stapi/OneDrive/Desktop/GD32VW553/V1_MQTT_OK/GD32VW55X_Wifi_BLE_SDK/GD32VW55x_RELEASE_V1.0.2/MSDK/cloud/alicloud/src/protocol/alcs\alcs_server.c ****     } else {
 796:C:/Users/stapi/OneDrive/Desktop/GD32VW553/V1_MQTT_OK/GD32VW55X_Wifi_BLE_SDK/GD32VW55x_RELEASE_V1.0.2/MSDK/cloud/alicloud/src/protocol/alcs\alcs_server.c ****         coap_free(item);
 797:C:/Users/stapi/OneDrive/Desktop/GD32VW553/V1_MQTT_OK/GD32VW55X_Wifi_BLE_SDK/GD32VW55x_RELEASE_V1.0.2/MSDK/cloud/alicloud/src/protocol/alcs\alcs_server.c ****     }
 798:C:/Users/stapi/OneDrive/Desktop/GD32VW553/V1_MQTT_OK/GD32VW55X_Wifi_BLE_SDK/GD32VW55x_RELEASE_V1.0.2/MSDK/cloud/alicloud/src/protocol/alcs\alcs_server.c **** 
 799:C:/Users/stapi/OneDrive/Desktop/GD32VW553/V1_MQTT_OK/GD32VW55X_Wifi_BLE_SDK/GD32VW55x_RELEASE_V1.0.2/MSDK/cloud/alicloud/src/protocol/alcs\alcs_server.c ****     return CoAPResource_register(context, path, permission, ctype, maxage, &recv_msg_handler);
 3376              		.loc 1 799 5 is_stmt 1
 3377              		.loc 1 799 12 is_stmt 0
 3378 01f4 3245     		lw	a0,12(sp)
 3379 01f6 B7070000 		lui	a5,%hi(recv_msg_handler)
 3380 01fa 93870700 		addi	a5,a5,%lo(recv_msg_handler)
 3381 01fe 5E87     		mv	a4,s7
 3382 0200 DA86     		mv	a3,s6
 3383 0202 5686     		mv	a2,s5
 3384 0204 A685     		mv	a1,s1
 3385 0206 97000000 		call	CoAPResource_register
 3385      E7800000 
 3386              	.LVL397:
 3387              	.L180:
 800:C:/Users/stapi/OneDrive/Desktop/GD32VW553/V1_MQTT_OK/GD32VW55X_Wifi_BLE_SDK/GD32VW55x_RELEASE_V1.0.2/MSDK/cloud/alicloud/src/protocol/alcs\alcs_server.c **** }
 3388              		.loc 1 800 1
 3389 020e 0961     		addi	sp,sp,128
 3390              		.cfi_remember_state
 3391              		.cfi_def_cfa_offset 0
 3392              	.LVL398:
 3393 0210 17030000 		tail	__riscv_restore_12
 3393      67000300 
 3394              		.cfi_restore 27
 3395              		.cfi_restore 26
 3396              		.cfi_restore 25
 3397              		.cfi_restore 24
 3398              		.cfi_restore 23
 3399              		.cfi_restore 22
 3400              		.cfi_restore 21
 3401              		.cfi_restore 20
 3402              		.cfi_restore 19
 3403              		.cfi_restore 18
 3404              		.cfi_restore 9
 3405              		.cfi_restore 8
 3406              		.cfi_restore 1
 3407              		.cfi_def_cfa_offset -64
 3408              	.LVL399:
 3409              	.L188:
 3410              		.cfi_restore_state
 796:C:/Users/stapi/OneDrive/Desktop/GD32VW553/V1_MQTT_OK/GD32VW55X_Wifi_BLE_SDK/GD32VW55x_RELEASE_V1.0.2/MSDK/cloud/alicloud/src/protocol/alcs\alcs_server.c ****     }
 3411              		.loc 1 796 9 is_stmt 1
 3412 0218 2285     		mv	a0,s0
 3413 021a 97000000 		call	LITE_free_internal
 3413      E7800000 
 3414              	.LVL400:
 3415 0222 C9BF     		j	.L191
 3416              		.cfi_endproc
 3417              	.LFE33:
 3419              		.section	.text.alcs_resource_cb_deinit,"ax",@progbits
 3420              		.align	1
 3421              		.globl	alcs_resource_cb_deinit
 3423              	alcs_resource_cb_deinit:
 3424              	.LFB34:
 801:C:/Users/stapi/OneDrive/Desktop/GD32VW553/V1_MQTT_OK/GD32VW55X_Wifi_BLE_SDK/GD32VW55x_RELEASE_V1.0.2/MSDK/cloud/alicloud/src/protocol/alcs\alcs_server.c **** 
 802:C:/Users/stapi/OneDrive/Desktop/GD32VW553/V1_MQTT_OK/GD32VW55X_Wifi_BLE_SDK/GD32VW55x_RELEASE_V1.0.2/MSDK/cloud/alicloud/src/protocol/alcs\alcs_server.c **** #ifdef DEVICE_MODEL_GATEWAY
 803:C:/Users/stapi/OneDrive/Desktop/GD32VW553/V1_MQTT_OK/GD32VW55X_Wifi_BLE_SDK/GD32VW55x_RELEASE_V1.0.2/MSDK/cloud/alicloud/src/protocol/alcs\alcs_server.c **** int alcs_resource_unregister_secure(CoAPContext *context, const char *path)
 804:C:/Users/stapi/OneDrive/Desktop/GD32VW553/V1_MQTT_OK/GD32VW55X_Wifi_BLE_SDK/GD32VW55x_RELEASE_V1.0.2/MSDK/cloud/alicloud/src/protocol/alcs\alcs_server.c **** {
 805:C:/Users/stapi/OneDrive/Desktop/GD32VW553/V1_MQTT_OK/GD32VW55X_Wifi_BLE_SDK/GD32VW55x_RELEASE_V1.0.2/MSDK/cloud/alicloud/src/protocol/alcs\alcs_server.c ****     secure_resource_cb_item *node = NULL;
 806:C:/Users/stapi/OneDrive/Desktop/GD32VW553/V1_MQTT_OK/GD32VW55X_Wifi_BLE_SDK/GD32VW55x_RELEASE_V1.0.2/MSDK/cloud/alicloud/src/protocol/alcs\alcs_server.c ****     secure_resource_cb_item *del_item = (secure_resource_cb_item *)coap_malloc(sizeof(secure_resour
 807:C:/Users/stapi/OneDrive/Desktop/GD32VW553/V1_MQTT_OK/GD32VW55X_Wifi_BLE_SDK/GD32VW55x_RELEASE_V1.0.2/MSDK/cloud/alicloud/src/protocol/alcs\alcs_server.c ****     if (del_item == NULL) {
 808:C:/Users/stapi/OneDrive/Desktop/GD32VW553/V1_MQTT_OK/GD32VW55X_Wifi_BLE_SDK/GD32VW55x_RELEASE_V1.0.2/MSDK/cloud/alicloud/src/protocol/alcs\alcs_server.c ****         return -1;
 809:C:/Users/stapi/OneDrive/Desktop/GD32VW553/V1_MQTT_OK/GD32VW55X_Wifi_BLE_SDK/GD32VW55x_RELEASE_V1.0.2/MSDK/cloud/alicloud/src/protocol/alcs\alcs_server.c ****     }
 810:C:/Users/stapi/OneDrive/Desktop/GD32VW553/V1_MQTT_OK/GD32VW55X_Wifi_BLE_SDK/GD32VW55x_RELEASE_V1.0.2/MSDK/cloud/alicloud/src/protocol/alcs\alcs_server.c ****     memset(del_item, 0, sizeof(secure_resource_cb_item));
 811:C:/Users/stapi/OneDrive/Desktop/GD32VW553/V1_MQTT_OK/GD32VW55X_Wifi_BLE_SDK/GD32VW55x_RELEASE_V1.0.2/MSDK/cloud/alicloud/src/protocol/alcs\alcs_server.c **** 
 812:C:/Users/stapi/OneDrive/Desktop/GD32VW553/V1_MQTT_OK/GD32VW55X_Wifi_BLE_SDK/GD32VW55x_RELEASE_V1.0.2/MSDK/cloud/alicloud/src/protocol/alcs\alcs_server.c ****     // COAP_INFO("sub unreg");
 813:C:/Users/stapi/OneDrive/Desktop/GD32VW553/V1_MQTT_OK/GD32VW55X_Wifi_BLE_SDK/GD32VW55x_RELEASE_V1.0.2/MSDK/cloud/alicloud/src/protocol/alcs\alcs_server.c ****     del_item->path_type = PATH_NORMAL;
 814:C:/Users/stapi/OneDrive/Desktop/GD32VW553/V1_MQTT_OK/GD32VW55X_Wifi_BLE_SDK/GD32VW55x_RELEASE_V1.0.2/MSDK/cloud/alicloud/src/protocol/alcs\alcs_server.c ****     if (strstr(path, "/#") != NULL) {
 815:C:/Users/stapi/OneDrive/Desktop/GD32VW553/V1_MQTT_OK/GD32VW55X_Wifi_BLE_SDK/GD32VW55x_RELEASE_V1.0.2/MSDK/cloud/alicloud/src/protocol/alcs\alcs_server.c ****         del_item->path_type = PATH_FILTER;
 816:C:/Users/stapi/OneDrive/Desktop/GD32VW553/V1_MQTT_OK/GD32VW55X_Wifi_BLE_SDK/GD32VW55x_RELEASE_V1.0.2/MSDK/cloud/alicloud/src/protocol/alcs\alcs_server.c ****     } else {
 817:C:/Users/stapi/OneDrive/Desktop/GD32VW553/V1_MQTT_OK/GD32VW55X_Wifi_BLE_SDK/GD32VW55x_RELEASE_V1.0.2/MSDK/cloud/alicloud/src/protocol/alcs\alcs_server.c ****         CoAPPathMD5_sum(path, strlen(path), del_item->path, MAX_PATH_CHECKSUM_LEN);
 818:C:/Users/stapi/OneDrive/Desktop/GD32VW553/V1_MQTT_OK/GD32VW55X_Wifi_BLE_SDK/GD32VW55x_RELEASE_V1.0.2/MSDK/cloud/alicloud/src/protocol/alcs\alcs_server.c ****     }
 819:C:/Users/stapi/OneDrive/Desktop/GD32VW553/V1_MQTT_OK/GD32VW55X_Wifi_BLE_SDK/GD32VW55x_RELEASE_V1.0.2/MSDK/cloud/alicloud/src/protocol/alcs\alcs_server.c ****     CoAPResource_unregister(context, path);
 820:C:/Users/stapi/OneDrive/Desktop/GD32VW553/V1_MQTT_OK/GD32VW55X_Wifi_BLE_SDK/GD32VW55x_RELEASE_V1.0.2/MSDK/cloud/alicloud/src/protocol/alcs\alcs_server.c ****     list_for_each_entry(node, &secure_resource_cb_head, lst, secure_resource_cb_item)
 821:C:/Users/stapi/OneDrive/Desktop/GD32VW553/V1_MQTT_OK/GD32VW55X_Wifi_BLE_SDK/GD32VW55x_RELEASE_V1.0.2/MSDK/cloud/alicloud/src/protocol/alcs\alcs_server.c ****     {
 822:C:/Users/stapi/OneDrive/Desktop/GD32VW553/V1_MQTT_OK/GD32VW55X_Wifi_BLE_SDK/GD32VW55x_RELEASE_V1.0.2/MSDK/cloud/alicloud/src/protocol/alcs\alcs_server.c ****         if (del_item->path_type == PATH_NORMAL && node->path_type == PATH_NORMAL) {
 823:C:/Users/stapi/OneDrive/Desktop/GD32VW553/V1_MQTT_OK/GD32VW55X_Wifi_BLE_SDK/GD32VW55x_RELEASE_V1.0.2/MSDK/cloud/alicloud/src/protocol/alcs\alcs_server.c ****             if (memcmp(node->path, del_item->path, MAX_PATH_CHECKSUM_LEN) == 0) {
 824:C:/Users/stapi/OneDrive/Desktop/GD32VW553/V1_MQTT_OK/GD32VW55X_Wifi_BLE_SDK/GD32VW55x_RELEASE_V1.0.2/MSDK/cloud/alicloud/src/protocol/alcs\alcs_server.c ****                 list_del(&node->lst);
 825:C:/Users/stapi/OneDrive/Desktop/GD32VW553/V1_MQTT_OK/GD32VW55X_Wifi_BLE_SDK/GD32VW55x_RELEASE_V1.0.2/MSDK/cloud/alicloud/src/protocol/alcs\alcs_server.c ****                 coap_free(node);
 826:C:/Users/stapi/OneDrive/Desktop/GD32VW553/V1_MQTT_OK/GD32VW55X_Wifi_BLE_SDK/GD32VW55x_RELEASE_V1.0.2/MSDK/cloud/alicloud/src/protocol/alcs\alcs_server.c ****                 // COAP_INFO("sub unreg %s",path);
 827:C:/Users/stapi/OneDrive/Desktop/GD32VW553/V1_MQTT_OK/GD32VW55X_Wifi_BLE_SDK/GD32VW55x_RELEASE_V1.0.2/MSDK/cloud/alicloud/src/protocol/alcs\alcs_server.c ****             }
 828:C:/Users/stapi/OneDrive/Desktop/GD32VW553/V1_MQTT_OK/GD32VW55X_Wifi_BLE_SDK/GD32VW55x_RELEASE_V1.0.2/MSDK/cloud/alicloud/src/protocol/alcs\alcs_server.c ****         } else if (del_item->path_type == PATH_FILTER && node->path_type == PATH_FILTER) {
 829:C:/Users/stapi/OneDrive/Desktop/GD32VW553/V1_MQTT_OK/GD32VW55X_Wifi_BLE_SDK/GD32VW55x_RELEASE_V1.0.2/MSDK/cloud/alicloud/src/protocol/alcs\alcs_server.c ****             if (strncmp(node->filter_path, path, strlen(path)) == 0) {
 830:C:/Users/stapi/OneDrive/Desktop/GD32VW553/V1_MQTT_OK/GD32VW55X_Wifi_BLE_SDK/GD32VW55x_RELEASE_V1.0.2/MSDK/cloud/alicloud/src/protocol/alcs\alcs_server.c ****                 list_del(&node->lst);
 831:C:/Users/stapi/OneDrive/Desktop/GD32VW553/V1_MQTT_OK/GD32VW55X_Wifi_BLE_SDK/GD32VW55x_RELEASE_V1.0.2/MSDK/cloud/alicloud/src/protocol/alcs\alcs_server.c ****                 coap_free(node->filter_path);
 832:C:/Users/stapi/OneDrive/Desktop/GD32VW553/V1_MQTT_OK/GD32VW55X_Wifi_BLE_SDK/GD32VW55x_RELEASE_V1.0.2/MSDK/cloud/alicloud/src/protocol/alcs\alcs_server.c ****                 coap_free(node);
 833:C:/Users/stapi/OneDrive/Desktop/GD32VW553/V1_MQTT_OK/GD32VW55X_Wifi_BLE_SDK/GD32VW55x_RELEASE_V1.0.2/MSDK/cloud/alicloud/src/protocol/alcs\alcs_server.c ****                 // COAP_INFO("sub unreg %s",path);
 834:C:/Users/stapi/OneDrive/Desktop/GD32VW553/V1_MQTT_OK/GD32VW55X_Wifi_BLE_SDK/GD32VW55x_RELEASE_V1.0.2/MSDK/cloud/alicloud/src/protocol/alcs\alcs_server.c ****             }
 835:C:/Users/stapi/OneDrive/Desktop/GD32VW553/V1_MQTT_OK/GD32VW55X_Wifi_BLE_SDK/GD32VW55x_RELEASE_V1.0.2/MSDK/cloud/alicloud/src/protocol/alcs\alcs_server.c ****         }
 836:C:/Users/stapi/OneDrive/Desktop/GD32VW553/V1_MQTT_OK/GD32VW55X_Wifi_BLE_SDK/GD32VW55x_RELEASE_V1.0.2/MSDK/cloud/alicloud/src/protocol/alcs\alcs_server.c ****     }
 837:C:/Users/stapi/OneDrive/Desktop/GD32VW553/V1_MQTT_OK/GD32VW55X_Wifi_BLE_SDK/GD32VW55x_RELEASE_V1.0.2/MSDK/cloud/alicloud/src/protocol/alcs\alcs_server.c ****     coap_free(del_item);
 838:C:/Users/stapi/OneDrive/Desktop/GD32VW553/V1_MQTT_OK/GD32VW55X_Wifi_BLE_SDK/GD32VW55x_RELEASE_V1.0.2/MSDK/cloud/alicloud/src/protocol/alcs\alcs_server.c ****     return COAP_SUCCESS;
 839:C:/Users/stapi/OneDrive/Desktop/GD32VW553/V1_MQTT_OK/GD32VW55X_Wifi_BLE_SDK/GD32VW55x_RELEASE_V1.0.2/MSDK/cloud/alicloud/src/protocol/alcs\alcs_server.c **** }
 840:C:/Users/stapi/OneDrive/Desktop/GD32VW553/V1_MQTT_OK/GD32VW55X_Wifi_BLE_SDK/GD32VW55x_RELEASE_V1.0.2/MSDK/cloud/alicloud/src/protocol/alcs\alcs_server.c **** #endif
 841:C:/Users/stapi/OneDrive/Desktop/GD32VW553/V1_MQTT_OK/GD32VW55X_Wifi_BLE_SDK/GD32VW55x_RELEASE_V1.0.2/MSDK/cloud/alicloud/src/protocol/alcs\alcs_server.c **** void alcs_resource_cb_deinit(void)
 842:C:/Users/stapi/OneDrive/Desktop/GD32VW553/V1_MQTT_OK/GD32VW55X_Wifi_BLE_SDK/GD32VW55x_RELEASE_V1.0.2/MSDK/cloud/alicloud/src/protocol/alcs\alcs_server.c **** {
 3425              		.loc 1 842 1
 3426              		.cfi_startproc
 3427 0000 17030000 		call	t0,__riscv_save_3
 3427      E7020300 
 3428              		.cfi_offset 18, -16
 3429              		.cfi_offset 9, -12
 3430              		.cfi_offset 8, -8
 3431              		.cfi_offset 1, -4
 3432              		.cfi_def_cfa_offset 16
 843:C:/Users/stapi/OneDrive/Desktop/GD32VW553/V1_MQTT_OK/GD32VW55X_Wifi_BLE_SDK/GD32VW55x_RELEASE_V1.0.2/MSDK/cloud/alicloud/src/protocol/alcs\alcs_server.c ****     secure_resource_cb_item *del_item = NULL;
 3433              		.loc 1 843 5
 3434              	.LVL401:
 844:C:/Users/stapi/OneDrive/Desktop/GD32VW553/V1_MQTT_OK/GD32VW55X_Wifi_BLE_SDK/GD32VW55x_RELEASE_V1.0.2/MSDK/cloud/alicloud/src/protocol/alcs\alcs_server.c **** 
 845:C:/Users/stapi/OneDrive/Desktop/GD32VW553/V1_MQTT_OK/GD32VW55X_Wifi_BLE_SDK/GD32VW55x_RELEASE_V1.0.2/MSDK/cloud/alicloud/src/protocol/alcs\alcs_server.c ****     list_for_each_entry(del_item, &secure_resource_cb_head, lst, secure_resource_cb_item) {
 3435              		.loc 1 845 5
 3436 0008 B7040000 		lui	s1,%hi(secure_resource_cb_head)
 3437 000c 93870400 		addi	a5,s1,%lo(secure_resource_cb_head)
 3438 0010 C043     		lw	s0,4(a5)
 3439 0012 93840400 		addi	s1,s1,%lo(secure_resource_cb_head)
 846:C:/Users/stapi/OneDrive/Desktop/GD32VW553/V1_MQTT_OK/GD32VW55X_Wifi_BLE_SDK/GD32VW55x_RELEASE_V1.0.2/MSDK/cloud/alicloud/src/protocol/alcs\alcs_server.c ****         list_del(&del_item->lst);
 847:C:/Users/stapi/OneDrive/Desktop/GD32VW553/V1_MQTT_OK/GD32VW55X_Wifi_BLE_SDK/GD32VW55x_RELEASE_V1.0.2/MSDK/cloud/alicloud/src/protocol/alcs\alcs_server.c ****         if (del_item->path_type == PATH_FILTER) {
 3440              		.loc 1 847 12 is_stmt 0
 3441 0016 0549     		li	s2,1
 845:C:/Users/stapi/OneDrive/Desktop/GD32VW553/V1_MQTT_OK/GD32VW55X_Wifi_BLE_SDK/GD32VW55x_RELEASE_V1.0.2/MSDK/cloud/alicloud/src/protocol/alcs\alcs_server.c ****         list_del(&del_item->lst);
 3442              		.loc 1 845 5
 3443 0018 2114     		addi	s0,s0,-24
 3444              	.LVL402:
 3445              	.L198:
 845:C:/Users/stapi/OneDrive/Desktop/GD32VW553/V1_MQTT_OK/GD32VW55X_Wifi_BLE_SDK/GD32VW55x_RELEASE_V1.0.2/MSDK/cloud/alicloud/src/protocol/alcs\alcs_server.c ****         list_del(&del_item->lst);
 3446              		.loc 1 845 5 is_stmt 1 discriminator 1
 3447 001a 93078401 		addi	a5,s0,24
 3448 001e 63969700 		bne	a5,s1,.L200
 848:C:/Users/stapi/OneDrive/Desktop/GD32VW553/V1_MQTT_OK/GD32VW55X_Wifi_BLE_SDK/GD32VW55x_RELEASE_V1.0.2/MSDK/cloud/alicloud/src/protocol/alcs\alcs_server.c ****             coap_free(del_item->filter_path);
 849:C:/Users/stapi/OneDrive/Desktop/GD32VW553/V1_MQTT_OK/GD32VW55X_Wifi_BLE_SDK/GD32VW55x_RELEASE_V1.0.2/MSDK/cloud/alicloud/src/protocol/alcs\alcs_server.c ****         }
 850:C:/Users/stapi/OneDrive/Desktop/GD32VW553/V1_MQTT_OK/GD32VW55X_Wifi_BLE_SDK/GD32VW55x_RELEASE_V1.0.2/MSDK/cloud/alicloud/src/protocol/alcs\alcs_server.c ****         coap_free(del_item);
 851:C:/Users/stapi/OneDrive/Desktop/GD32VW553/V1_MQTT_OK/GD32VW55X_Wifi_BLE_SDK/GD32VW55x_RELEASE_V1.0.2/MSDK/cloud/alicloud/src/protocol/alcs\alcs_server.c ****         del_item = list_entry(&secure_resource_cb_head, secure_resource_cb_item, lst);
 852:C:/Users/stapi/OneDrive/Desktop/GD32VW553/V1_MQTT_OK/GD32VW55X_Wifi_BLE_SDK/GD32VW55x_RELEASE_V1.0.2/MSDK/cloud/alicloud/src/protocol/alcs\alcs_server.c ****     }
 853:C:/Users/stapi/OneDrive/Desktop/GD32VW553/V1_MQTT_OK/GD32VW55X_Wifi_BLE_SDK/GD32VW55x_RELEASE_V1.0.2/MSDK/cloud/alicloud/src/protocol/alcs\alcs_server.c **** }
 3449              		.loc 1 853 1 is_stmt 0
 3450 0022 17030000 		tail	__riscv_restore_3
 3450      67000300 
 3451              		.cfi_remember_state
 3452              		.cfi_restore 18
 3453              		.cfi_restore 9
 3454              		.cfi_restore 8
 3455              		.cfi_restore 1
 3456              		.cfi_def_cfa_offset 0
 3457              	.L200:
 3458              		.cfi_restore_state
 846:C:/Users/stapi/OneDrive/Desktop/GD32VW553/V1_MQTT_OK/GD32VW55X_Wifi_BLE_SDK/GD32VW55x_RELEASE_V1.0.2/MSDK/cloud/alicloud/src/protocol/alcs\alcs_server.c ****         if (del_item->path_type == PATH_FILTER) {
 3459              		.loc 1 846 9 is_stmt 1
 3460              	.LVL403:
 3461              	.LBB115:
 3462              	.LBB116:
  68:..\..\..\..\cloud\alicloud\src\infra\utils\misc/lite-list.h ****     dlist_t *next = node->next;
 3463              		.loc 2 68 5
  69:..\..\..\..\cloud\alicloud\src\infra\utils\misc/lite-list.h **** 
 3464              		.loc 2 69 14 is_stmt 0
 3465 002a 5C4C     		lw	a5,28(s0)
  68:..\..\..\..\cloud\alicloud\src\infra\utils\misc/lite-list.h ****     dlist_t *next = node->next;
 3466              		.loc 2 68 14
 3467 002c 184C     		lw	a4,24(s0)
 3468              	.LVL404:
  69:..\..\..\..\cloud\alicloud\src\infra\utils\misc/lite-list.h **** 
 3469              		.loc 2 69 5 is_stmt 1
  71:..\..\..\..\cloud\alicloud\src\infra\utils\misc/lite-list.h ****     next->prev = prev;
 3470              		.loc 2 71 5
  71:..\..\..\..\cloud\alicloud\src\infra\utils\misc/lite-list.h ****     next->prev = prev;
 3471              		.loc 2 71 16 is_stmt 0
 3472 002e 5CC3     		sw	a5,4(a4)
  72:..\..\..\..\cloud\alicloud\src\infra\utils\misc/lite-list.h **** }
 3473              		.loc 2 72 5 is_stmt 1
  72:..\..\..\..\cloud\alicloud\src\infra\utils\misc/lite-list.h **** }
 3474              		.loc 2 72 16 is_stmt 0
 3475 0030 98C3     		sw	a4,0(a5)
 3476              	.LVL405:
 3477              	.LBE116:
 3478              	.LBE115:
 847:C:/Users/stapi/OneDrive/Desktop/GD32VW553/V1_MQTT_OK/GD32VW55X_Wifi_BLE_SDK/GD32VW55x_RELEASE_V1.0.2/MSDK/cloud/alicloud/src/protocol/alcs\alcs_server.c ****             coap_free(del_item->filter_path);
 3479              		.loc 1 847 9 is_stmt 1
 847:C:/Users/stapi/OneDrive/Desktop/GD32VW553/V1_MQTT_OK/GD32VW55X_Wifi_BLE_SDK/GD32VW55x_RELEASE_V1.0.2/MSDK/cloud/alicloud/src/protocol/alcs\alcs_server.c ****             coap_free(del_item->filter_path);
 3480              		.loc 1 847 12 is_stmt 0
 3481 0032 1C48     		lw	a5,16(s0)
 3482 0034 63972701 		bne	a5,s2,.L199
 848:C:/Users/stapi/OneDrive/Desktop/GD32VW553/V1_MQTT_OK/GD32VW55X_Wifi_BLE_SDK/GD32VW55x_RELEASE_V1.0.2/MSDK/cloud/alicloud/src/protocol/alcs\alcs_server.c ****         }
 3483              		.loc 1 848 13 is_stmt 1
 3484 0038 4844     		lw	a0,12(s0)
 3485 003a 97000000 		call	LITE_free_internal
 3485      E7800000 
 3486              	.LVL406:
 3487              	.L199:
 850:C:/Users/stapi/OneDrive/Desktop/GD32VW553/V1_MQTT_OK/GD32VW55X_Wifi_BLE_SDK/GD32VW55x_RELEASE_V1.0.2/MSDK/cloud/alicloud/src/protocol/alcs\alcs_server.c ****         del_item = list_entry(&secure_resource_cb_head, secure_resource_cb_item, lst);
 3488              		.loc 1 850 9 discriminator 2
 3489 0042 2285     		mv	a0,s0
 3490 0044 97000000 		call	LITE_free_internal
 3490      E7800000 
 3491              	.LVL407:
 851:C:/Users/stapi/OneDrive/Desktop/GD32VW553/V1_MQTT_OK/GD32VW55X_Wifi_BLE_SDK/GD32VW55x_RELEASE_V1.0.2/MSDK/cloud/alicloud/src/protocol/alcs\alcs_server.c ****     }
 3492              		.loc 1 851 9 discriminator 2
 845:C:/Users/stapi/OneDrive/Desktop/GD32VW553/V1_MQTT_OK/GD32VW55X_Wifi_BLE_SDK/GD32VW55x_RELEASE_V1.0.2/MSDK/cloud/alicloud/src/protocol/alcs\alcs_server.c ****         list_del(&del_item->lst);
 3493              		.loc 1 845 5 discriminator 2
 3494 004c C040     		lw	s0,4(s1)
 3495 004e 2114     		addi	s0,s0,-24
 3496              	.LVL408:
 3497 0050 E9B7     		j	.L198
 3498              		.cfi_endproc
 3499              	.LFE34:
 3501              		.section	.text.alcs_auth_list_deinit,"ax",@progbits
 3502              		.align	1
 3503              		.globl	alcs_auth_list_deinit
 3505              	alcs_auth_list_deinit:
 3506              	.LFB35:
 854:C:/Users/stapi/OneDrive/Desktop/GD32VW553/V1_MQTT_OK/GD32VW55X_Wifi_BLE_SDK/GD32VW55x_RELEASE_V1.0.2/MSDK/cloud/alicloud/src/protocol/alcs\alcs_server.c **** 
 855:C:/Users/stapi/OneDrive/Desktop/GD32VW553/V1_MQTT_OK/GD32VW55X_Wifi_BLE_SDK/GD32VW55x_RELEASE_V1.0.2/MSDK/cloud/alicloud/src/protocol/alcs\alcs_server.c **** void alcs_auth_list_deinit(void)
 856:C:/Users/stapi/OneDrive/Desktop/GD32VW553/V1_MQTT_OK/GD32VW55X_Wifi_BLE_SDK/GD32VW55x_RELEASE_V1.0.2/MSDK/cloud/alicloud/src/protocol/alcs\alcs_server.c **** {
 3507              		.loc 1 856 1
 3508              		.cfi_startproc
 3509 0000 17030000 		call	t0,__riscv_save_4
 3509      E7020300 
 3510              		.cfi_offset 19, -20
 3511              		.cfi_offset 18, -16
 3512              		.cfi_offset 9, -12
 3513              		.cfi_offset 8, -8
 3514              		.cfi_offset 1, -4
 3515              		.cfi_def_cfa_offset 32
 857:C:/Users/stapi/OneDrive/Desktop/GD32VW553/V1_MQTT_OK/GD32VW55X_Wifi_BLE_SDK/GD32VW55x_RELEASE_V1.0.2/MSDK/cloud/alicloud/src/protocol/alcs\alcs_server.c ****     svr_key_item *del_item = NULL, *next_item = NULL;
 3516              		.loc 1 857 5
 3517              	.LVL409:
 858:C:/Users/stapi/OneDrive/Desktop/GD32VW553/V1_MQTT_OK/GD32VW55X_Wifi_BLE_SDK/GD32VW55x_RELEASE_V1.0.2/MSDK/cloud/alicloud/src/protocol/alcs\alcs_server.c ****     session_item *del_session_item = NULL, *next_session_item = NULL;
 3518              		.loc 1 858 5
 859:C:/Users/stapi/OneDrive/Desktop/GD32VW553/V1_MQTT_OK/GD32VW55X_Wifi_BLE_SDK/GD32VW55x_RELEASE_V1.0.2/MSDK/cloud/alicloud/src/protocol/alcs\alcs_server.c ****     device_auth_list* dev_lst = get_device ();
 3519              		.loc 1 859 5
 860:C:/Users/stapi/OneDrive/Desktop/GD32VW553/V1_MQTT_OK/GD32VW55X_Wifi_BLE_SDK/GD32VW55x_RELEASE_V1.0.2/MSDK/cloud/alicloud/src/protocol/alcs\alcs_server.c **** 
 861:C:/Users/stapi/OneDrive/Desktop/GD32VW553/V1_MQTT_OK/GD32VW55X_Wifi_BLE_SDK/GD32VW55x_RELEASE_V1.0.2/MSDK/cloud/alicloud/src/protocol/alcs\alcs_server.c ****     list_for_each_entry_safe(del_item, next_item, &dev_lst->lst_svr, lst, svr_key_item) {
 3520              		.loc 1 861 5
 3521 0008 37040000 		lui	s0,%hi(_device)
 3522 000c 93070400 		addi	a5,s0,%lo(_device)
 3523 0010 9C4B     		lw	a5,16(a5)
 3524 0012 B7090000 		lui	s3,%hi(_device+12)
 3525 0016 13040400 		addi	s0,s0,%lo(_device)
 3526 001a 03A94700 		lw	s2,4(a5)
 3527 001e 9384C7FE 		addi	s1,a5,-20
 3528              	.LVL410:
 3529 0022 9389C900 		addi	s3,s3,%lo(_device+12)
 3530 0026 3119     		addi	s2,s2,-20
 3531              	.LVL411:
 3532              	.L203:
 3533              		.loc 1 861 5 discriminator 1
 3534 0028 93874401 		addi	a5,s1,20
 3535 002c 639C3703 		bne	a5,s3,.L205
 862:C:/Users/stapi/OneDrive/Desktop/GD32VW553/V1_MQTT_OK/GD32VW55X_Wifi_BLE_SDK/GD32VW55x_RELEASE_V1.0.2/MSDK/cloud/alicloud/src/protocol/alcs\alcs_server.c ****         list_del(&del_item->lst);
 863:C:/Users/stapi/OneDrive/Desktop/GD32VW553/V1_MQTT_OK/GD32VW55X_Wifi_BLE_SDK/GD32VW55x_RELEASE_V1.0.2/MSDK/cloud/alicloud/src/protocol/alcs\alcs_server.c ****         if (del_item->keyInfo.secret) {
 864:C:/Users/stapi/OneDrive/Desktop/GD32VW553/V1_MQTT_OK/GD32VW55X_Wifi_BLE_SDK/GD32VW55x_RELEASE_V1.0.2/MSDK/cloud/alicloud/src/protocol/alcs\alcs_server.c ****             coap_free(del_item->keyInfo.secret);
 865:C:/Users/stapi/OneDrive/Desktop/GD32VW553/V1_MQTT_OK/GD32VW55X_Wifi_BLE_SDK/GD32VW55x_RELEASE_V1.0.2/MSDK/cloud/alicloud/src/protocol/alcs\alcs_server.c ****         }
 866:C:/Users/stapi/OneDrive/Desktop/GD32VW553/V1_MQTT_OK/GD32VW55X_Wifi_BLE_SDK/GD32VW55x_RELEASE_V1.0.2/MSDK/cloud/alicloud/src/protocol/alcs\alcs_server.c ****         coap_free(del_item);
 867:C:/Users/stapi/OneDrive/Desktop/GD32VW553/V1_MQTT_OK/GD32VW55X_Wifi_BLE_SDK/GD32VW55x_RELEASE_V1.0.2/MSDK/cloud/alicloud/src/protocol/alcs\alcs_server.c ****     }
 868:C:/Users/stapi/OneDrive/Desktop/GD32VW553/V1_MQTT_OK/GD32VW55X_Wifi_BLE_SDK/GD32VW55x_RELEASE_V1.0.2/MSDK/cloud/alicloud/src/protocol/alcs\alcs_server.c **** 
 869:C:/Users/stapi/OneDrive/Desktop/GD32VW553/V1_MQTT_OK/GD32VW55X_Wifi_BLE_SDK/GD32VW55x_RELEASE_V1.0.2/MSDK/cloud/alicloud/src/protocol/alcs\alcs_server.c ****     if (dev_lst->revocation) {
 3536              		.loc 1 869 5
 3537              		.loc 1 869 16 is_stmt 0
 3538 0030 084C     		lw	a0,24(s0)
 3539              		.loc 1 869 8
 3540 0032 19C5     		beq	a0,zero,.L206
 870:C:/Users/stapi/OneDrive/Desktop/GD32VW553/V1_MQTT_OK/GD32VW55X_Wifi_BLE_SDK/GD32VW55x_RELEASE_V1.0.2/MSDK/cloud/alicloud/src/protocol/alcs\alcs_server.c ****         coap_free(dev_lst->revocation);
 3541              		.loc 1 870 9 is_stmt 1
 3542 0034 97000000 		call	LITE_free_internal
 3542      E7800000 
 3543              	.LVL412:
 871:C:/Users/stapi/OneDrive/Desktop/GD32VW553/V1_MQTT_OK/GD32VW55X_Wifi_BLE_SDK/GD32VW55x_RELEASE_V1.0.2/MSDK/cloud/alicloud/src/protocol/alcs\alcs_server.c ****         dev_lst->revocation = NULL;
 3544              		.loc 1 871 9
 3545              		.loc 1 871 29 is_stmt 0
 3546 003c 232C0400 		sw	zero,24(s0)
 3547              	.L206:
 872:C:/Users/stapi/OneDrive/Desktop/GD32VW553/V1_MQTT_OK/GD32VW55X_Wifi_BLE_SDK/GD32VW55x_RELEASE_V1.0.2/MSDK/cloud/alicloud/src/protocol/alcs\alcs_server.c ****     }
 873:C:/Users/stapi/OneDrive/Desktop/GD32VW553/V1_MQTT_OK/GD32VW55X_Wifi_BLE_SDK/GD32VW55x_RELEASE_V1.0.2/MSDK/cloud/alicloud/src/protocol/alcs\alcs_server.c **** 
 874:C:/Users/stapi/OneDrive/Desktop/GD32VW553/V1_MQTT_OK/GD32VW55X_Wifi_BLE_SDK/GD32VW55x_RELEASE_V1.0.2/MSDK/cloud/alicloud/src/protocol/alcs\alcs_server.c ****     list_for_each_entry_safe(del_session_item, next_session_item, &dev_lst->lst_svr_sessions, lst, 
 3548              		.loc 1 874 5 is_stmt 1
 3549 0040 1C50     		lw	a5,32(s0)
 3550 0042 B7040000 		lui	s1,%hi(_device+28)
 3551              	.LVL413:
 3552 0046 9384C401 		addi	s1,s1,%lo(_device+28)
 3553 004a C043     		lw	s0,4(a5)
 3554 004c 138547F4 		addi	a0,a5,-188
 3555              	.LVL414:
 3556 0050 130444F4 		addi	s0,s0,-188
 3557              	.LVL415:
 3558              	.L207:
 3559              		.loc 1 874 5 discriminator 1
 3560 0054 9307C50B 		addi	a5,a0,188
 3561 0058 639B9702 		bne	a5,s1,.L208
 875:C:/Users/stapi/OneDrive/Desktop/GD32VW553/V1_MQTT_OK/GD32VW55X_Wifi_BLE_SDK/GD32VW55x_RELEASE_V1.0.2/MSDK/cloud/alicloud/src/protocol/alcs\alcs_server.c ****         list_del(&del_session_item->lst);
 876:C:/Users/stapi/OneDrive/Desktop/GD32VW553/V1_MQTT_OK/GD32VW55X_Wifi_BLE_SDK/GD32VW55x_RELEASE_V1.0.2/MSDK/cloud/alicloud/src/protocol/alcs\alcs_server.c ****         coap_free(del_session_item);
 877:C:/Users/stapi/OneDrive/Desktop/GD32VW553/V1_MQTT_OK/GD32VW55X_Wifi_BLE_SDK/GD32VW55x_RELEASE_V1.0.2/MSDK/cloud/alicloud/src/protocol/alcs\alcs_server.c ****     }
 878:C:/Users/stapi/OneDrive/Desktop/GD32VW553/V1_MQTT_OK/GD32VW55X_Wifi_BLE_SDK/GD32VW55x_RELEASE_V1.0.2/MSDK/cloud/alicloud/src/protocol/alcs\alcs_server.c **** }
 3562              		.loc 1 878 1 is_stmt 0
 3563 005c 17030000 		tail	__riscv_restore_4
 3563      67000300 
 3564              		.cfi_remember_state
 3565              		.cfi_restore 19
 3566              		.cfi_restore 18
 3567              		.cfi_restore 9
 3568              		.cfi_restore 8
 3569              		.cfi_restore 1
 3570              		.cfi_def_cfa_offset 0
 3571              	.LVL416:
 3572              	.L205:
 3573              		.cfi_restore_state
 862:C:/Users/stapi/OneDrive/Desktop/GD32VW553/V1_MQTT_OK/GD32VW55X_Wifi_BLE_SDK/GD32VW55x_RELEASE_V1.0.2/MSDK/cloud/alicloud/src/protocol/alcs\alcs_server.c ****         if (del_item->keyInfo.secret) {
 3574              		.loc 1 862 9 is_stmt 1
 3575              	.LBB121:
 3576              	.LBB122:
  68:..\..\..\..\cloud\alicloud\src\infra\utils\misc/lite-list.h ****     dlist_t *next = node->next;
 3577              		.loc 2 68 5
  68:..\..\..\..\cloud\alicloud\src\infra\utils\misc/lite-list.h ****     dlist_t *next = node->next;
 3578              		.loc 2 68 14 is_stmt 0
 3579 0064 D848     		lw	a4,20(s1)
 3580              	.LVL417:
  69:..\..\..\..\cloud\alicloud\src\infra\utils\misc/lite-list.h **** 
 3581              		.loc 2 69 5 is_stmt 1
  69:..\..\..\..\cloud\alicloud\src\infra\utils\misc/lite-list.h **** 
 3582              		.loc 2 69 14 is_stmt 0
 3583 0066 9C4C     		lw	a5,24(s1)
 3584              	.LVL418:
  71:..\..\..\..\cloud\alicloud\src\infra\utils\misc/lite-list.h ****     next->prev = prev;
 3585              		.loc 2 71 5 is_stmt 1
 3586              	.LBE122:
 3587              	.LBE121:
 863:C:/Users/stapi/OneDrive/Desktop/GD32VW553/V1_MQTT_OK/GD32VW55X_Wifi_BLE_SDK/GD32VW55x_RELEASE_V1.0.2/MSDK/cloud/alicloud/src/protocol/alcs\alcs_server.c ****             coap_free(del_item->keyInfo.secret);
 3588              		.loc 1 863 30 is_stmt 0
 3589 0068 C844     		lw	a0,12(s1)
 3590              	.LBB124:
 3591              	.LBB123:
  71:..\..\..\..\cloud\alicloud\src\infra\utils\misc/lite-list.h ****     next->prev = prev;
 3592              		.loc 2 71 16
 3593 006a 5CC3     		sw	a5,4(a4)
  72:..\..\..\..\cloud\alicloud\src\infra\utils\misc/lite-list.h **** }
 3594              		.loc 2 72 5 is_stmt 1
  72:..\..\..\..\cloud\alicloud\src\infra\utils\misc/lite-list.h **** }
 3595              		.loc 2 72 16 is_stmt 0
 3596 006c 98C3     		sw	a4,0(a5)
 3597              	.LVL419:
 3598              	.LBE123:
 3599              	.LBE124:
 863:C:/Users/stapi/OneDrive/Desktop/GD32VW553/V1_MQTT_OK/GD32VW55X_Wifi_BLE_SDK/GD32VW55x_RELEASE_V1.0.2/MSDK/cloud/alicloud/src/protocol/alcs\alcs_server.c ****             coap_free(del_item->keyInfo.secret);
 3600              		.loc 1 863 9 is_stmt 1
 863:C:/Users/stapi/OneDrive/Desktop/GD32VW553/V1_MQTT_OK/GD32VW55X_Wifi_BLE_SDK/GD32VW55x_RELEASE_V1.0.2/MSDK/cloud/alicloud/src/protocol/alcs\alcs_server.c ****             coap_free(del_item->keyInfo.secret);
 3601              		.loc 1 863 12 is_stmt 0
 3602 006e 09C5     		beq	a0,zero,.L204
 864:C:/Users/stapi/OneDrive/Desktop/GD32VW553/V1_MQTT_OK/GD32VW55X_Wifi_BLE_SDK/GD32VW55x_RELEASE_V1.0.2/MSDK/cloud/alicloud/src/protocol/alcs\alcs_server.c ****         }
 3603              		.loc 1 864 13 is_stmt 1
 3604 0070 97000000 		call	LITE_free_internal
 3604      E7800000 
 3605              	.LVL420:
 3606              	.L204:
 866:C:/Users/stapi/OneDrive/Desktop/GD32VW553/V1_MQTT_OK/GD32VW55X_Wifi_BLE_SDK/GD32VW55x_RELEASE_V1.0.2/MSDK/cloud/alicloud/src/protocol/alcs\alcs_server.c ****     }
 3607              		.loc 1 866 9 discriminator 2
 3608 0078 2685     		mv	a0,s1
 3609 007a 97000000 		call	LITE_free_internal
 3609      E7800000 
 3610              	.LVL421:
 861:C:/Users/stapi/OneDrive/Desktop/GD32VW553/V1_MQTT_OK/GD32VW55X_Wifi_BLE_SDK/GD32VW55x_RELEASE_V1.0.2/MSDK/cloud/alicloud/src/protocol/alcs\alcs_server.c ****         list_del(&del_item->lst);
 3611              		.loc 1 861 5 discriminator 2
 3612 0082 83278901 		lw	a5,24(s2)
 3613              	.LVL422:
 3614 0086 CA84     		mv	s1,s2
 3615 0088 1389C7FE 		addi	s2,a5,-20
 3616              	.LVL423:
 3617 008c 71BF     		j	.L203
 3618              	.LVL424:
 3619              	.L208:
 875:C:/Users/stapi/OneDrive/Desktop/GD32VW553/V1_MQTT_OK/GD32VW55X_Wifi_BLE_SDK/GD32VW55x_RELEASE_V1.0.2/MSDK/cloud/alicloud/src/protocol/alcs\alcs_server.c ****         coap_free(del_session_item);
 3620              		.loc 1 875 9
 3621              	.LBB125:
 3622              	.LBB126:
  68:..\..\..\..\cloud\alicloud\src\infra\utils\misc/lite-list.h ****     dlist_t *next = node->next;
 3623              		.loc 2 68 5
  69:..\..\..\..\cloud\alicloud\src\infra\utils\misc/lite-list.h **** 
 3624              		.loc 2 69 14 is_stmt 0
 3625 008e 8327050C 		lw	a5,192(a0)
  68:..\..\..\..\cloud\alicloud\src\infra\utils\misc/lite-list.h ****     dlist_t *next = node->next;
 3626              		.loc 2 68 14
 3627 0092 0327C50B 		lw	a4,188(a0)
 3628              	.LVL425:
  69:..\..\..\..\cloud\alicloud\src\infra\utils\misc/lite-list.h **** 
 3629              		.loc 2 69 5 is_stmt 1
  71:..\..\..\..\cloud\alicloud\src\infra\utils\misc/lite-list.h ****     next->prev = prev;
 3630              		.loc 2 71 5
  71:..\..\..\..\cloud\alicloud\src\infra\utils\misc/lite-list.h ****     next->prev = prev;
 3631              		.loc 2 71 16 is_stmt 0
 3632 0096 5CC3     		sw	a5,4(a4)
  72:..\..\..\..\cloud\alicloud\src\infra\utils\misc/lite-list.h **** }
 3633              		.loc 2 72 5 is_stmt 1
  72:..\..\..\..\cloud\alicloud\src\infra\utils\misc/lite-list.h **** }
 3634              		.loc 2 72 16 is_stmt 0
 3635 0098 98C3     		sw	a4,0(a5)
 3636              	.LVL426:
 3637              	.LBE126:
 3638              	.LBE125:
 876:C:/Users/stapi/OneDrive/Desktop/GD32VW553/V1_MQTT_OK/GD32VW55X_Wifi_BLE_SDK/GD32VW55x_RELEASE_V1.0.2/MSDK/cloud/alicloud/src/protocol/alcs\alcs_server.c ****     }
 3639              		.loc 1 876 9 is_stmt 1
 3640 009a 97000000 		call	LITE_free_internal
 3640      E7800000 
 3641              	.LVL427:
 874:C:/Users/stapi/OneDrive/Desktop/GD32VW553/V1_MQTT_OK/GD32VW55X_Wifi_BLE_SDK/GD32VW55x_RELEASE_V1.0.2/MSDK/cloud/alicloud/src/protocol/alcs\alcs_server.c ****         list_del(&del_session_item->lst);
 3642              		.loc 1 874 5
 3643 00a2 8327040C 		lw	a5,192(s0)
 3644              	.LVL428:
 3645 00a6 2285     		mv	a0,s0
 3646 00a8 138447F4 		addi	s0,a5,-188
 3647              	.LVL429:
 3648 00ac 65B7     		j	.L207
 3649              		.cfi_endproc
 3650              	.LFE35:
 3652              		.section	.rodata.alcs_rec_heart_beat.str1.4,"aMS",@progbits,1
 3653              		.align	2
 3654              	.LC48:
 3655 0000 616C6373 		.string	"alcs_rec_heart_beat"
 3655      5F726563 
 3655      5F686561 
 3655      72745F62 
 3655      65617400 
 3656              		.align	2
 3657              	.LC49:
 3658 0014 72656365 		.string	"receive stale heart beat"
 3658      69766520 
 3658      7374616C 
 3658      65206865 
 3658      61727420 
 3659 002d 000000   		.align	2
 3660              	.LC50:
 3661 0030 2264656C 		.string	"\"delayTime\":%d"
 3661      61795469 
 3661      6D65223A 
 3661      256400
 3662 003f 00       		.align	2
 3663              	.LC51:
 3664 0040 00       		.string	""
 3665              		.section	.text.alcs_rec_heart_beat,"ax",@progbits
 3666              		.align	1
 3667              		.globl	alcs_rec_heart_beat
 3669              	alcs_rec_heart_beat:
 3670              	.LFB36:
 879:C:/Users/stapi/OneDrive/Desktop/GD32VW553/V1_MQTT_OK/GD32VW55X_Wifi_BLE_SDK/GD32VW55x_RELEASE_V1.0.2/MSDK/cloud/alicloud/src/protocol/alcs\alcs_server.c **** 
 880:C:/Users/stapi/OneDrive/Desktop/GD32VW553/V1_MQTT_OK/GD32VW55X_Wifi_BLE_SDK/GD32VW55x_RELEASE_V1.0.2/MSDK/cloud/alicloud/src/protocol/alcs\alcs_server.c **** void alcs_rec_heart_beat(CoAPContext *ctx, const char *path, NetworkAddr *remote, CoAPMessage *requ
 881:C:/Users/stapi/OneDrive/Desktop/GD32VW553/V1_MQTT_OK/GD32VW55X_Wifi_BLE_SDK/GD32VW55x_RELEASE_V1.0.2/MSDK/cloud/alicloud/src/protocol/alcs\alcs_server.c **** {
 3671              		.loc 1 881 1
 3672              		.cfi_startproc
 3673              	.LVL430:
 3674 0000 17030000 		call	t0,__riscv_save_7
 3674      E7020300 
 3675              		.cfi_offset 22, -32
 3676              		.cfi_offset 21, -28
 3677              		.cfi_offset 20, -24
 3678              		.cfi_offset 19, -20
 3679              		.cfi_offset 18, -16
 3680              		.cfi_offset 9, -12
 3681              		.cfi_offset 8, -8
 3682              		.cfi_offset 1, -4
 3683              		.cfi_def_cfa_offset 32
 882:C:/Users/stapi/OneDrive/Desktop/GD32VW553/V1_MQTT_OK/GD32VW55X_Wifi_BLE_SDK/GD32VW55x_RELEASE_V1.0.2/MSDK/cloud/alicloud/src/protocol/alcs\alcs_server.c ****     COAP_DEBUG("alcs_rec_heart_beat");
 3684              		.loc 1 882 5
 881:C:/Users/stapi/OneDrive/Desktop/GD32VW553/V1_MQTT_OK/GD32VW55X_Wifi_BLE_SDK/GD32VW55x_RELEASE_V1.0.2/MSDK/cloud/alicloud/src/protocol/alcs\alcs_server.c ****     COAP_DEBUG("alcs_rec_heart_beat");
 3685              		.loc 1 881 1 is_stmt 0
 3686 0008 2A89     		mv	s2,a0
 3687              		.loc 1 882 5
 3688 000a 37070000 		lui	a4,%hi(.LC48)
 3689 000e B7050000 		lui	a1,%hi(.LANCHOR3)
 3690              	.LVL431:
 3691 0012 37050000 		lui	a0,%hi(.LC6)
 3692              	.LVL432:
 3693 0016 13070700 		addi	a4,a4,%lo(.LC48)
 881:C:/Users/stapi/OneDrive/Desktop/GD32VW553/V1_MQTT_OK/GD32VW55X_Wifi_BLE_SDK/GD32VW55x_RELEASE_V1.0.2/MSDK/cloud/alicloud/src/protocol/alcs\alcs_server.c ****     COAP_DEBUG("alcs_rec_heart_beat");
 3694              		.loc 1 881 1
 3695 001a 4D71     		addi	sp,sp,-336
 3696              		.cfi_def_cfa_offset 368
 881:C:/Users/stapi/OneDrive/Desktop/GD32VW553/V1_MQTT_OK/GD32VW55X_Wifi_BLE_SDK/GD32VW55x_RELEASE_V1.0.2/MSDK/cloud/alicloud/src/protocol/alcs\alcs_server.c ****     COAP_DEBUG("alcs_rec_heart_beat");
 3697              		.loc 1 881 1
 3698 001c B289     		mv	s3,a2
 3699 001e 3684     		mv	s0,a3
 3700              		.loc 1 882 5
 3701 0020 13062037 		li	a2,882
 3702              	.LVL433:
 3703 0024 9546     		li	a3,5
 3704              	.LVL434:
 3705 0026 93850500 		addi	a1,a1,%lo(.LANCHOR3)
 3706 002a 13050500 		addi	a0,a0,%lo(.LC6)
 3707 002e 97000000 		call	LITE_syslog
 3707      E7800000 
 3708              	.LVL435:
 883:C:/Users/stapi/OneDrive/Desktop/GD32VW553/V1_MQTT_OK/GD32VW55X_Wifi_BLE_SDK/GD32VW55x_RELEASE_V1.0.2/MSDK/cloud/alicloud/src/protocol/alcs\alcs_server.c ****     struct list_head *ctl_head = get_svr_session_list();
 3709              		.loc 1 883 5 is_stmt 1
 3710              		.loc 1 883 34 is_stmt 0
 3711 0036 B7070000 		lui	a5,%hi(_device)
 3712 003a 93870700 		addi	a5,a5,%lo(_device)
 3713 003e 03C7C702 		lbu	a4,44(a5)
 3714 0042 098B     		andi	a4,a4,2
 3715 0044 63030712 		beq	a4,zero,.L216
 3716              	.LVL436:
 884:C:/Users/stapi/OneDrive/Desktop/GD32VW553/V1_MQTT_OK/GD32VW55X_Wifi_BLE_SDK/GD32VW55x_RELEASE_V1.0.2/MSDK/cloud/alicloud/src/protocol/alcs\alcs_server.c ****     if (!ctl_head || list_empty(ctl_head)) {
 3717              		.loc 1 884 5 is_stmt 1
 3718              	.LBB127:
 3719              	.LBB128:
 3720              		.loc 2 88 5
 3721              		.loc 2 88 16 is_stmt 0
 3722 0048 9C53     		lw	a5,32(a5)
 3723              	.LVL437:
 3724              	.LBE128:
 3725              	.LBE127:
 3726              		.loc 1 884 19
 3727 004a 370B0000 		lui	s6,%hi(_device+28)
 3728 004e 130BCB01 		addi	s6,s6,%lo(_device+28)
 3729 0052 638C6711 		beq	a5,s6,.L216
 885:C:/Users/stapi/OneDrive/Desktop/GD32VW553/V1_MQTT_OK/GD32VW55X_Wifi_BLE_SDK/GD32VW55x_RELEASE_V1.0.2/MSDK/cloud/alicloud/src/protocol/alcs\alcs_server.c ****         return;
 886:C:/Users/stapi/OneDrive/Desktop/GD32VW553/V1_MQTT_OK/GD32VW55X_Wifi_BLE_SDK/GD32VW55x_RELEASE_V1.0.2/MSDK/cloud/alicloud/src/protocol/alcs\alcs_server.c ****     }
 887:C:/Users/stapi/OneDrive/Desktop/GD32VW553/V1_MQTT_OK/GD32VW55X_Wifi_BLE_SDK/GD32VW55x_RELEASE_V1.0.2/MSDK/cloud/alicloud/src/protocol/alcs\alcs_server.c **** 
 888:C:/Users/stapi/OneDrive/Desktop/GD32VW553/V1_MQTT_OK/GD32VW55X_Wifi_BLE_SDK/GD32VW55x_RELEASE_V1.0.2/MSDK/cloud/alicloud/src/protocol/alcs\alcs_server.c ****     session_item *session = NULL;
 3730              		.loc 1 888 5 is_stmt 1
 3731              	.LVL438:
 889:C:/Users/stapi/OneDrive/Desktop/GD32VW553/V1_MQTT_OK/GD32VW55X_Wifi_BLE_SDK/GD32VW55x_RELEASE_V1.0.2/MSDK/cloud/alicloud/src/protocol/alcs\alcs_server.c ****     session_item *node = NULL, *next = NULL;
 3732              		.loc 1 889 5
 890:C:/Users/stapi/OneDrive/Desktop/GD32VW553/V1_MQTT_OK/GD32VW55X_Wifi_BLE_SDK/GD32VW55x_RELEASE_V1.0.2/MSDK/cloud/alicloud/src/protocol/alcs\alcs_server.c ****     list_for_each_entry_safe(node, next, ctl_head, lst, session_item) {
 3733              		.loc 1 890 5
 3734 0056 83AA4700 		lw	s5,4(a5)
 3735 005a 938447F4 		addi	s1,a5,-188
 3736              	.LVL439:
 888:C:/Users/stapi/OneDrive/Desktop/GD32VW553/V1_MQTT_OK/GD32VW55X_Wifi_BLE_SDK/GD32VW55x_RELEASE_V1.0.2/MSDK/cloud/alicloud/src/protocol/alcs\alcs_server.c ****     session_item *node = NULL, *next = NULL;
 3737              		.loc 1 888 19 is_stmt 0
 3738 005e 014A     		li	s4,0
 3739              		.loc 1 890 5
 3740 0060 938A4AF4 		addi	s5,s5,-188
 3741              	.LVL440:
 3742              	.L220:
 3743              		.loc 1 890 5 is_stmt 1 discriminator 1
 3744 0064 9387C40B 		addi	a5,s1,188
 3745 0068 63966711 		bne	a5,s6,.L222
 891:C:/Users/stapi/OneDrive/Desktop/GD32VW553/V1_MQTT_OK/GD32VW55X_Wifi_BLE_SDK/GD32VW55x_RELEASE_V1.0.2/MSDK/cloud/alicloud/src/protocol/alcs\alcs_server.c ****         if (node->sessionId && is_networkadd_same(&node->addr, remote)) {
 892:C:/Users/stapi/OneDrive/Desktop/GD32VW553/V1_MQTT_OK/GD32VW55X_Wifi_BLE_SDK/GD32VW55x_RELEASE_V1.0.2/MSDK/cloud/alicloud/src/protocol/alcs\alcs_server.c ****             node->heart_time = HAL_UptimeMs();
 893:C:/Users/stapi/OneDrive/Desktop/GD32VW553/V1_MQTT_OK/GD32VW55X_Wifi_BLE_SDK/GD32VW55x_RELEASE_V1.0.2/MSDK/cloud/alicloud/src/protocol/alcs\alcs_server.c ****             session = node;
 894:C:/Users/stapi/OneDrive/Desktop/GD32VW553/V1_MQTT_OK/GD32VW55X_Wifi_BLE_SDK/GD32VW55x_RELEASE_V1.0.2/MSDK/cloud/alicloud/src/protocol/alcs\alcs_server.c ****         }
 895:C:/Users/stapi/OneDrive/Desktop/GD32VW553/V1_MQTT_OK/GD32VW55X_Wifi_BLE_SDK/GD32VW55x_RELEASE_V1.0.2/MSDK/cloud/alicloud/src/protocol/alcs\alcs_server.c ****     }
 896:C:/Users/stapi/OneDrive/Desktop/GD32VW553/V1_MQTT_OK/GD32VW55X_Wifi_BLE_SDK/GD32VW55x_RELEASE_V1.0.2/MSDK/cloud/alicloud/src/protocol/alcs\alcs_server.c **** 
 897:C:/Users/stapi/OneDrive/Desktop/GD32VW553/V1_MQTT_OK/GD32VW55X_Wifi_BLE_SDK/GD32VW55x_RELEASE_V1.0.2/MSDK/cloud/alicloud/src/protocol/alcs\alcs_server.c ****     if (!session) {
 3746              		.loc 1 897 5
 3747              		.loc 1 897 8 is_stmt 0
 3748 006c 631A0A02 		bne	s4,zero,.L223
 898:C:/Users/stapi/OneDrive/Desktop/GD32VW553/V1_MQTT_OK/GD32VW55X_Wifi_BLE_SDK/GD32VW55x_RELEASE_V1.0.2/MSDK/cloud/alicloud/src/protocol/alcs\alcs_server.c ****         COAP_INFO("receive stale heart beat");
 3749              		.loc 1 898 9 is_stmt 1
 3750              		.loc 1 898 9
 3751 0070 37050000 		lui	a0,%hi(.LC3)
 3752 0074 13050500 		addi	a0,a0,%lo(.LC3)
 3753 0078 97000000 		call	HAL_Printf
 3753      E7800000 
 3754              	.LVL441:
 3755              		.loc 1 898 9
 3756 0080 37050000 		lui	a0,%hi(.LC49)
 3757 0084 13050500 		addi	a0,a0,%lo(.LC49)
 3758 0088 97000000 		call	HAL_Printf
 3758      E7800000 
 3759              	.LVL442:
 3760              		.loc 1 898 9
 3761 0090 37050000 		lui	a0,%hi(.LC2)
 3762 0094 13050500 		addi	a0,a0,%lo(.LC2)
 3763 0098 97000000 		call	HAL_Printf
 3763      E7800000 
 3764              	.LVL443:
 3765              	.L223:
 3766              		.loc 1 898 9 discriminator 1
 899:C:/Users/stapi/OneDrive/Desktop/GD32VW553/V1_MQTT_OK/GD32VW55X_Wifi_BLE_SDK/GD32VW55x_RELEASE_V1.0.2/MSDK/cloud/alicloud/src/protocol/alcs\alcs_server.c ****     }
 900:C:/Users/stapi/OneDrive/Desktop/GD32VW553/V1_MQTT_OK/GD32VW55X_Wifi_BLE_SDK/GD32VW55x_RELEASE_V1.0.2/MSDK/cloud/alicloud/src/protocol/alcs\alcs_server.c **** 
 901:C:/Users/stapi/OneDrive/Desktop/GD32VW553/V1_MQTT_OK/GD32VW55X_Wifi_BLE_SDK/GD32VW55x_RELEASE_V1.0.2/MSDK/cloud/alicloud/src/protocol/alcs\alcs_server.c ****     int seqlen, datalen;
 3767              		.loc 1 901 5 discriminator 1
 902:C:/Users/stapi/OneDrive/Desktop/GD32VW553/V1_MQTT_OK/GD32VW55X_Wifi_BLE_SDK/GD32VW55x_RELEASE_V1.0.2/MSDK/cloud/alicloud/src/protocol/alcs\alcs_server.c ****     char *seq, *data;
 3768              		.loc 1 902 5 discriminator 1
 903:C:/Users/stapi/OneDrive/Desktop/GD32VW553/V1_MQTT_OK/GD32VW55X_Wifi_BLE_SDK/GD32VW55x_RELEASE_V1.0.2/MSDK/cloud/alicloud/src/protocol/alcs\alcs_server.c ****     if (!req_payload_parser((const char *)request->payload, request->payloadlen, &seq, &seqlen, &da
 3769              		.loc 1 903 5 discriminator 1
 3770              		.loc 1 903 10 is_stmt 0 discriminator 1
 3771 00a0 8355E406 		lhu	a1,110(s0)
 3772 00a4 2858     		lw	a0,112(s0)
 3773 00a6 7C00     		addi	a5,sp,12
 3774 00a8 5808     		addi	a4,sp,20
 3775 00aa 3400     		addi	a3,sp,8
 3776 00ac 1008     		addi	a2,sp,16
 3777 00ae 97000000 		call	req_payload_parser
 3777      E7800000 
 3778              	.LVL444:
 904:C:/Users/stapi/OneDrive/Desktop/GD32VW553/V1_MQTT_OK/GD32VW55X_Wifi_BLE_SDK/GD32VW55x_RELEASE_V1.0.2/MSDK/cloud/alicloud/src/protocol/alcs\alcs_server.c ****         //do nothing
 905:C:/Users/stapi/OneDrive/Desktop/GD32VW553/V1_MQTT_OK/GD32VW55X_Wifi_BLE_SDK/GD32VW55x_RELEASE_V1.0.2/MSDK/cloud/alicloud/src/protocol/alcs\alcs_server.c ****     }
 3779              		.loc 1 905 5 is_stmt 1 discriminator 1
 906:C:/Users/stapi/OneDrive/Desktop/GD32VW553/V1_MQTT_OK/GD32VW55X_Wifi_BLE_SDK/GD32VW55x_RELEASE_V1.0.2/MSDK/cloud/alicloud/src/protocol/alcs\alcs_server.c **** 
 907:C:/Users/stapi/OneDrive/Desktop/GD32VW553/V1_MQTT_OK/GD32VW55X_Wifi_BLE_SDK/GD32VW55x_RELEASE_V1.0.2/MSDK/cloud/alicloud/src/protocol/alcs\alcs_server.c ****     CoAPMessage msg;
 3780              		.loc 1 907 5 discriminator 1
 908:C:/Users/stapi/OneDrive/Desktop/GD32VW553/V1_MQTT_OK/GD32VW55X_Wifi_BLE_SDK/GD32VW55x_RELEASE_V1.0.2/MSDK/cloud/alicloud/src/protocol/alcs\alcs_server.c ****     char databuf[32];
 3781              		.loc 1 908 5 discriminator 1
 909:C:/Users/stapi/OneDrive/Desktop/GD32VW553/V1_MQTT_OK/GD32VW55X_Wifi_BLE_SDK/GD32VW55x_RELEASE_V1.0.2/MSDK/cloud/alicloud/src/protocol/alcs\alcs_server.c ****     char payloadbuf[128];
 3782              		.loc 1 909 5 discriminator 1
 910:C:/Users/stapi/OneDrive/Desktop/GD32VW553/V1_MQTT_OK/GD32VW55X_Wifi_BLE_SDK/GD32VW55x_RELEASE_V1.0.2/MSDK/cloud/alicloud/src/protocol/alcs\alcs_server.c **** 
 911:C:/Users/stapi/OneDrive/Desktop/GD32VW553/V1_MQTT_OK/GD32VW55X_Wifi_BLE_SDK/GD32VW55x_RELEASE_V1.0.2/MSDK/cloud/alicloud/src/protocol/alcs\alcs_server.c ****     if (session) {
 3783              		.loc 1 911 5 discriminator 1
 3784 00b6 A400     		addi	s1,sp,72
 3785              	.LVL445:
 3786 00b8 B70A0000 		lui	s5,%hi(.LC27)
 3787              	.LVL446:
 3788              		.loc 1 911 8 is_stmt 0 discriminator 1
 3789 00bc 63020A0E 		beq	s4,zero,.L224
 912:C:/Users/stapi/OneDrive/Desktop/GD32VW553/V1_MQTT_OK/GD32VW55X_Wifi_BLE_SDK/GD32VW55x_RELEASE_V1.0.2/MSDK/cloud/alicloud/src/protocol/alcs\alcs_server.c ****         snprintf(databuf, sizeof(databuf), "\"delayTime\":%d", default_heart_expire / 1000);
 3790              		.loc 1 912 9 is_stmt 1
 3791 00c0 37060000 		lui	a2,%hi(.LC50)
 3792 00c4 93068007 		li	a3,120
 3793 00c8 13060600 		addi	a2,a2,%lo(.LC50)
 3794 00cc 93050002 		li	a1,32
 3795 00d0 2810     		addi	a0,sp,40
 3796 00d2 97000000 		call	snprintf
 3796      E7800000 
 3797              	.LVL447:
 913:C:/Users/stapi/OneDrive/Desktop/GD32VW553/V1_MQTT_OK/GD32VW55X_Wifi_BLE_SDK/GD32VW55x_RELEASE_V1.0.2/MSDK/cloud/alicloud/src/protocol/alcs\alcs_server.c ****         snprintf(payloadbuf, sizeof(payloadbuf), RES_FORMAT, seqlen, seq, 200, databuf);
 3798              		.loc 1 913 9
 3799 00da 13088102 		addi	a6,sp,40
 3800 00de 9307800C 		li	a5,200
 3801              	.L238:
 914:C:/Users/stapi/OneDrive/Desktop/GD32VW553/V1_MQTT_OK/GD32VW55X_Wifi_BLE_SDK/GD32VW55x_RELEASE_V1.0.2/MSDK/cloud/alicloud/src/protocol/alcs\alcs_server.c ****     } else {
 915:C:/Users/stapi/OneDrive/Desktop/GD32VW553/V1_MQTT_OK/GD32VW55X_Wifi_BLE_SDK/GD32VW55x_RELEASE_V1.0.2/MSDK/cloud/alicloud/src/protocol/alcs\alcs_server.c ****         snprintf(payloadbuf, sizeof(payloadbuf), RES_FORMAT, seqlen, seq, ALCS_HEART_FAILAUTH, "");
 3802              		.loc 1 915 9 is_stmt 0
 3803 00e2 4247     		lw	a4,16(sp)
 3804 00e4 A246     		lw	a3,8(sp)
 3805 00e6 13860A00 		addi	a2,s5,%lo(.LC27)
 3806 00ea 93050008 		li	a1,128
 3807 00ee 2685     		mv	a0,s1
 3808 00f0 97000000 		call	snprintf
 3808      E7800000 
 3809              	.LVL448:
 916:C:/Users/stapi/OneDrive/Desktop/GD32VW553/V1_MQTT_OK/GD32VW55X_Wifi_BLE_SDK/GD32VW55x_RELEASE_V1.0.2/MSDK/cloud/alicloud/src/protocol/alcs\alcs_server.c ****     }
 917:C:/Users/stapi/OneDrive/Desktop/GD32VW553/V1_MQTT_OK/GD32VW55X_Wifi_BLE_SDK/GD32VW55x_RELEASE_V1.0.2/MSDK/cloud/alicloud/src/protocol/alcs\alcs_server.c **** 
 918:C:/Users/stapi/OneDrive/Desktop/GD32VW553/V1_MQTT_OK/GD32VW55X_Wifi_BLE_SDK/GD32VW55x_RELEASE_V1.0.2/MSDK/cloud/alicloud/src/protocol/alcs\alcs_server.c ****     CoAPLenString payload = {strlen(payloadbuf), (unsigned char *)payloadbuf};
 3810              		.loc 1 918 5 is_stmt 1
 3811              		.loc 1 918 30 is_stmt 0
 3812 00f8 2685     		mv	a0,s1
 3813 00fa 97000000 		call	strlen
 3813      E7800000 
 3814              	.LVL449:
 3815              		.loc 1 918 19
 3816 0102 2ACC     		sw	a0,24(sp)
 919:C:/Users/stapi/OneDrive/Desktop/GD32VW553/V1_MQTT_OK/GD32VW55X_Wifi_BLE_SDK/GD32VW55x_RELEASE_V1.0.2/MSDK/cloud/alicloud/src/protocol/alcs\alcs_server.c ****     alcs_msg_init(ctx, &msg, COAP_MSG_CODE_205_CONTENT, COAP_MESSAGE_TYPE_CON, 0, &payload, NULL);
 3817              		.loc 1 919 5
 3818 0104 3C08     		addi	a5,sp,24
 3819 0106 AC01     		addi	a1,sp,200
 3820 0108 0148     		li	a6,0
 3821 010a 0147     		li	a4,0
 3822 010c 8146     		li	a3,0
 3823 010e 13065004 		li	a2,69
 3824 0112 4A85     		mv	a0,s2
 918:C:/Users/stapi/OneDrive/Desktop/GD32VW553/V1_MQTT_OK/GD32VW55X_Wifi_BLE_SDK/GD32VW55x_RELEASE_V1.0.2/MSDK/cloud/alicloud/src/protocol/alcs\alcs_server.c ****     alcs_msg_init(ctx, &msg, COAP_MSG_CODE_205_CONTENT, COAP_MESSAGE_TYPE_CON, 0, &payload, NULL);
 3825              		.loc 1 918 19
 3826 0114 26CE     		sw	s1,28(sp)
 3827              		.loc 1 919 5 is_stmt 1
 3828 0116 97000000 		call	alcs_msg_init
 3828      E7800000 
 3829              	.LVL450:
 920:C:/Users/stapi/OneDrive/Desktop/GD32VW553/V1_MQTT_OK/GD32VW55X_Wifi_BLE_SDK/GD32VW55x_RELEASE_V1.0.2/MSDK/cloud/alicloud/src/protocol/alcs\alcs_server.c ****     if (session) {
 3830              		.loc 1 920 5
 3831 011e 1C40     		lw	a5,0(s0)
 921:C:/Users/stapi/OneDrive/Desktop/GD32VW553/V1_MQTT_OK/GD32VW55X_Wifi_BLE_SDK/GD32VW55x_RELEASE_V1.0.2/MSDK/cloud/alicloud/src/protocol/alcs\alcs_server.c ****         msg.header.msgid = request->header.msgid;
 922:C:/Users/stapi/OneDrive/Desktop/GD32VW553/V1_MQTT_OK/GD32VW55X_Wifi_BLE_SDK/GD32VW55x_RELEASE_V1.0.2/MSDK/cloud/alicloud/src/protocol/alcs\alcs_server.c ****         msg.header.tokenlen = request->header.tokenlen;
 923:C:/Users/stapi/OneDrive/Desktop/GD32VW553/V1_MQTT_OK/GD32VW55X_Wifi_BLE_SDK/GD32VW55x_RELEASE_V1.0.2/MSDK/cloud/alicloud/src/protocol/alcs\alcs_server.c ****         memcpy(&msg.token, request->token, request->header.tokenlen);
 3832              		.loc 1 923 35 is_stmt 0
 3833 0120 93054400 		addi	a1,s0,4
 920:C:/Users/stapi/OneDrive/Desktop/GD32VW553/V1_MQTT_OK/GD32VW55X_Wifi_BLE_SDK/GD32VW55x_RELEASE_V1.0.2/MSDK/cloud/alicloud/src/protocol/alcs\alcs_server.c ****     if (session) {
 3834              		.loc 1 920 8
 3835 0124 63050A08 		beq	s4,zero,.L226
 921:C:/Users/stapi/OneDrive/Desktop/GD32VW553/V1_MQTT_OK/GD32VW55X_Wifi_BLE_SDK/GD32VW55x_RELEASE_V1.0.2/MSDK/cloud/alicloud/src/protocol/alcs\alcs_server.c ****         msg.header.msgid = request->header.msgid;
 3836              		.loc 1 921 9 is_stmt 1
 922:C:/Users/stapi/OneDrive/Desktop/GD32VW553/V1_MQTT_OK/GD32VW55X_Wifi_BLE_SDK/GD32VW55x_RELEASE_V1.0.2/MSDK/cloud/alicloud/src/protocol/alcs\alcs_server.c ****         memcpy(&msg.token, request->token, request->header.tokenlen);
 3837              		.loc 1 922 46 is_stmt 0
 3838 0128 9183     		srli	a5,a5,4
 3839 012a 13F6F700 		andi	a2,a5,15
 921:C:/Users/stapi/OneDrive/Desktop/GD32VW553/V1_MQTT_OK/GD32VW55X_Wifi_BLE_SDK/GD32VW55x_RELEASE_V1.0.2/MSDK/cloud/alicloud/src/protocol/alcs\alcs_server.c ****         msg.header.msgid = request->header.msgid;
 3840              		.loc 1 921 26
 3841 012e 03572400 		lhu	a4,2(s0)
 922:C:/Users/stapi/OneDrive/Desktop/GD32VW553/V1_MQTT_OK/GD32VW55X_Wifi_BLE_SDK/GD32VW55x_RELEASE_V1.0.2/MSDK/cloud/alicloud/src/protocol/alcs\alcs_server.c ****         memcpy(&msg.token, request->token, request->header.tokenlen);
 3842              		.loc 1 922 29
 3843 0132 8347810C 		lbu	a5,200(sp)
 3844              		.loc 1 923 9
 3845 0136 E801     		addi	a0,sp,204
 921:C:/Users/stapi/OneDrive/Desktop/GD32VW553/V1_MQTT_OK/GD32VW55X_Wifi_BLE_SDK/GD32VW55x_RELEASE_V1.0.2/MSDK/cloud/alicloud/src/protocol/alcs\alcs_server.c ****         msg.header.msgid = request->header.msgid;
 3846              		.loc 1 921 26
 3847 0138 2315E10C 		sh	a4,202(sp)
 922:C:/Users/stapi/OneDrive/Desktop/GD32VW553/V1_MQTT_OK/GD32VW55X_Wifi_BLE_SDK/GD32VW55x_RELEASE_V1.0.2/MSDK/cloud/alicloud/src/protocol/alcs\alcs_server.c ****         memcpy(&msg.token, request->token, request->header.tokenlen);
 3848              		.loc 1 922 9 is_stmt 1
 922:C:/Users/stapi/OneDrive/Desktop/GD32VW553/V1_MQTT_OK/GD32VW55X_Wifi_BLE_SDK/GD32VW55x_RELEASE_V1.0.2/MSDK/cloud/alicloud/src/protocol/alcs\alcs_server.c ****         memcpy(&msg.token, request->token, request->header.tokenlen);
 3849              		.loc 1 922 29 is_stmt 0
 3850 013c BD8B     		andi	a5,a5,15
 3851 013e 13174600 		slli	a4,a2,4
 3852 0142 D98F     		or	a5,a5,a4
 3853 0144 2304F10C 		sb	a5,200(sp)
 3854              		.loc 1 923 9 is_stmt 1
 3855 0148 97000000 		call	memcpy
 3855      E7800000 
 3856              	.LVL451:
 924:C:/Users/stapi/OneDrive/Desktop/GD32VW553/V1_MQTT_OK/GD32VW55X_Wifi_BLE_SDK/GD32VW55x_RELEASE_V1.0.2/MSDK/cloud/alicloud/src/protocol/alcs\alcs_server.c **** 
 925:C:/Users/stapi/OneDrive/Desktop/GD32VW553/V1_MQTT_OK/GD32VW55X_Wifi_BLE_SDK/GD32VW55x_RELEASE_V1.0.2/MSDK/cloud/alicloud/src/protocol/alcs\alcs_server.c ****         internal_secure_send(ctx, session, remote, &msg);
 3857              		.loc 1 925 9
 3858 0150 B401     		addi	a3,sp,200
 3859 0152 4E86     		mv	a2,s3
 3860 0154 D285     		mv	a1,s4
 3861 0156 4A85     		mv	a0,s2
 3862 0158 97000000 		call	internal_secure_send
 3862      E7800000 
 3863              	.LVL452:
 3864              	.L227:
 926:C:/Users/stapi/OneDrive/Desktop/GD32VW553/V1_MQTT_OK/GD32VW55X_Wifi_BLE_SDK/GD32VW55x_RELEASE_V1.0.2/MSDK/cloud/alicloud/src/protocol/alcs\alcs_server.c ****     } else {
 927:C:/Users/stapi/OneDrive/Desktop/GD32VW553/V1_MQTT_OK/GD32VW55X_Wifi_BLE_SDK/GD32VW55x_RELEASE_V1.0.2/MSDK/cloud/alicloud/src/protocol/alcs\alcs_server.c ****         CoAPLenString token = {request->header.tokenlen, request->token};
 928:C:/Users/stapi/OneDrive/Desktop/GD32VW553/V1_MQTT_OK/GD32VW55X_Wifi_BLE_SDK/GD32VW55x_RELEASE_V1.0.2/MSDK/cloud/alicloud/src/protocol/alcs\alcs_server.c ****         alcs_sendrsp(ctx, remote, &msg, 1, request->header.msgid, &token);
 929:C:/Users/stapi/OneDrive/Desktop/GD32VW553/V1_MQTT_OK/GD32VW55X_Wifi_BLE_SDK/GD32VW55x_RELEASE_V1.0.2/MSDK/cloud/alicloud/src/protocol/alcs\alcs_server.c ****     }
 930:C:/Users/stapi/OneDrive/Desktop/GD32VW553/V1_MQTT_OK/GD32VW55X_Wifi_BLE_SDK/GD32VW55x_RELEASE_V1.0.2/MSDK/cloud/alicloud/src/protocol/alcs\alcs_server.c ****     alcs_msg_deinit(&msg);
 3865              		.loc 1 930 5 discriminator 1
 3866 0160 A801     		addi	a0,sp,200
 3867 0162 97000000 		call	alcs_msg_deinit
 3867      E7800000 
 3868              	.LVL453:
 3869              	.L216:
 931:C:/Users/stapi/OneDrive/Desktop/GD32VW553/V1_MQTT_OK/GD32VW55X_Wifi_BLE_SDK/GD32VW55x_RELEASE_V1.0.2/MSDK/cloud/alicloud/src/protocol/alcs\alcs_server.c **** }
 3870              		.loc 1 931 1 is_stmt 0
 3871 016a 7161     		addi	sp,sp,336
 3872              		.cfi_remember_state
 3873              		.cfi_def_cfa_offset 0
 3874 016c 17030000 		tail	__riscv_restore_7
 3874      67000300 
 3875              		.cfi_restore 22
 3876              		.cfi_restore 21
 3877              		.cfi_restore 20
 3878              		.cfi_restore 19
 3879              		.cfi_restore 18
 3880              		.cfi_restore 9
 3881              		.cfi_restore 8
 3882              		.cfi_restore 1
 3883              		.cfi_def_cfa_offset -32
 3884              	.LVL454:
 3885              	.L222:
 3886              		.cfi_restore_state
 891:C:/Users/stapi/OneDrive/Desktop/GD32VW553/V1_MQTT_OK/GD32VW55X_Wifi_BLE_SDK/GD32VW55x_RELEASE_V1.0.2/MSDK/cloud/alicloud/src/protocol/alcs\alcs_server.c ****             node->heart_time = HAL_UptimeMs();
 3887              		.loc 1 891 9 is_stmt 1
 891:C:/Users/stapi/OneDrive/Desktop/GD32VW553/V1_MQTT_OK/GD32VW55X_Wifi_BLE_SDK/GD32VW55x_RELEASE_V1.0.2/MSDK/cloud/alicloud/src/protocol/alcs\alcs_server.c ****             node->heart_time = HAL_UptimeMs();
 3888              		.loc 1 891 12 is_stmt 0
 3889 0174 9C40     		lw	a5,0(s1)
 3890 0176 99CF     		beq	a5,zero,.L221
 891:C:/Users/stapi/OneDrive/Desktop/GD32VW553/V1_MQTT_OK/GD32VW55X_Wifi_BLE_SDK/GD32VW55x_RELEASE_V1.0.2/MSDK/cloud/alicloud/src/protocol/alcs\alcs_server.c ****             node->heart_time = HAL_UptimeMs();
 3891              		.loc 1 891 32 discriminator 1
 3892 0178 CE85     		mv	a1,s3
 3893 017a 13854405 		addi	a0,s1,84
 3894 017e 97000000 		call	is_networkadd_same
 3894      E7800000 
 3895              	.LVL455:
 891:C:/Users/stapi/OneDrive/Desktop/GD32VW553/V1_MQTT_OK/GD32VW55X_Wifi_BLE_SDK/GD32VW55x_RELEASE_V1.0.2/MSDK/cloud/alicloud/src/protocol/alcs\alcs_server.c ****             node->heart_time = HAL_UptimeMs();
 3896              		.loc 1 891 29 discriminator 1
 3897 0186 19C5     		beq	a0,zero,.L221
 892:C:/Users/stapi/OneDrive/Desktop/GD32VW553/V1_MQTT_OK/GD32VW55X_Wifi_BLE_SDK/GD32VW55x_RELEASE_V1.0.2/MSDK/cloud/alicloud/src/protocol/alcs\alcs_server.c ****             session = node;
 3898              		.loc 1 892 13 is_stmt 1
 892:C:/Users/stapi/OneDrive/Desktop/GD32VW553/V1_MQTT_OK/GD32VW55X_Wifi_BLE_SDK/GD32VW55x_RELEASE_V1.0.2/MSDK/cloud/alicloud/src/protocol/alcs\alcs_server.c ****             session = node;
 3899              		.loc 1 892 32 is_stmt 0
 3900 0188 97000000 		call	HAL_UptimeMs
 3900      E7800000 
 3901              	.LVL456:
 892:C:/Users/stapi/OneDrive/Desktop/GD32VW553/V1_MQTT_OK/GD32VW55X_Wifi_BLE_SDK/GD32VW55x_RELEASE_V1.0.2/MSDK/cloud/alicloud/src/protocol/alcs\alcs_server.c ****             session = node;
 3902              		.loc 1 892 30
 3903 0190 E8C4     		sw	a0,76(s1)
 893:C:/Users/stapi/OneDrive/Desktop/GD32VW553/V1_MQTT_OK/GD32VW55X_Wifi_BLE_SDK/GD32VW55x_RELEASE_V1.0.2/MSDK/cloud/alicloud/src/protocol/alcs\alcs_server.c ****         }
 3904              		.loc 1 893 13 is_stmt 1
 3905              	.LVL457:
 892:C:/Users/stapi/OneDrive/Desktop/GD32VW553/V1_MQTT_OK/GD32VW55X_Wifi_BLE_SDK/GD32VW55x_RELEASE_V1.0.2/MSDK/cloud/alicloud/src/protocol/alcs\alcs_server.c ****             session = node;
 3906              		.loc 1 892 30 is_stmt 0
 3907 0192 268A     		mv	s4,s1
 3908              	.LVL458:
 3909              	.L221:
 890:C:/Users/stapi/OneDrive/Desktop/GD32VW553/V1_MQTT_OK/GD32VW55X_Wifi_BLE_SDK/GD32VW55x_RELEASE_V1.0.2/MSDK/cloud/alicloud/src/protocol/alcs\alcs_server.c ****         if (node->sessionId && is_networkadd_same(&node->addr, remote)) {
 3910              		.loc 1 890 5 is_stmt 1 discriminator 2
 3911 0194 83A70A0C 		lw	a5,192(s5)
 3912              	.LVL459:
 3913 0198 D684     		mv	s1,s5
 3914 019a 938A47F4 		addi	s5,a5,-188
 3915              	.LVL460:
 3916 019e D9B5     		j	.L220
 3917              	.LVL461:
 3918              	.L224:
 915:C:/Users/stapi/OneDrive/Desktop/GD32VW553/V1_MQTT_OK/GD32VW55X_Wifi_BLE_SDK/GD32VW55x_RELEASE_V1.0.2/MSDK/cloud/alicloud/src/protocol/alcs\alcs_server.c ****     }
 3919              		.loc 1 915 9
 3920 01a0 37080000 		lui	a6,%hi(.LC51)
 3921 01a4 13080800 		addi	a6,a6,%lo(.LC51)
 3922 01a8 9307F01F 		li	a5,511
 3923 01ac 1DBF     		j	.L238
 3924              	.L226:
 3925              	.LBB129:
 927:C:/Users/stapi/OneDrive/Desktop/GD32VW553/V1_MQTT_OK/GD32VW55X_Wifi_BLE_SDK/GD32VW55x_RELEASE_V1.0.2/MSDK/cloud/alicloud/src/protocol/alcs\alcs_server.c ****         alcs_sendrsp(ctx, remote, &msg, 1, request->header.msgid, &token);
 3926              		.loc 1 927 9
 928:C:/Users/stapi/OneDrive/Desktop/GD32VW553/V1_MQTT_OK/GD32VW55X_Wifi_BLE_SDK/GD32VW55x_RELEASE_V1.0.2/MSDK/cloud/alicloud/src/protocol/alcs\alcs_server.c ****     }
 3927              		.loc 1 928 9 is_stmt 0
 3928 01ae 03572400 		lhu	a4,2(s0)
 927:C:/Users/stapi/OneDrive/Desktop/GD32VW553/V1_MQTT_OK/GD32VW55X_Wifi_BLE_SDK/GD32VW55x_RELEASE_V1.0.2/MSDK/cloud/alicloud/src/protocol/alcs\alcs_server.c ****         alcs_sendrsp(ctx, remote, &msg, 1, request->header.msgid, &token);
 3929              		.loc 1 927 47
 3930 01b2 9183     		srli	a5,a5,4
 3931 01b4 BD8B     		andi	a5,a5,15
 3932 01b6 3ED0     		sw	a5,32(sp)
 927:C:/Users/stapi/OneDrive/Desktop/GD32VW553/V1_MQTT_OK/GD32VW55X_Wifi_BLE_SDK/GD32VW55x_RELEASE_V1.0.2/MSDK/cloud/alicloud/src/protocol/alcs\alcs_server.c ****         alcs_sendrsp(ctx, remote, &msg, 1, request->header.msgid, &token);
 3933              		.loc 1 927 23
 3934 01b8 2ED2     		sw	a1,36(sp)
 928:C:/Users/stapi/OneDrive/Desktop/GD32VW553/V1_MQTT_OK/GD32VW55X_Wifi_BLE_SDK/GD32VW55x_RELEASE_V1.0.2/MSDK/cloud/alicloud/src/protocol/alcs\alcs_server.c ****     }
 3935              		.loc 1 928 9 is_stmt 1
 3936 01ba 1C10     		addi	a5,sp,32
 3937 01bc 8546     		li	a3,1
 3938 01be B001     		addi	a2,sp,200
 3939 01c0 CE85     		mv	a1,s3
 3940 01c2 4A85     		mv	a0,s2
 3941 01c4 97000000 		call	alcs_sendrsp
 3941      E7800000 
 3942              	.LVL462:
 3943 01cc 51BF     		j	.L227
 3944              	.LBE129:
 3945              		.cfi_endproc
 3946              	.LFE36:
 3948              		.section	.rodata.observe_data_encrypt.str1.4,"aMS",@progbits,1
 3949              		.align	2
 3950              	.LC52:
 3951 0000 6F627365 		.string	"observe_data_encrypt, src:%.*s"
 3951      7276655F 
 3951      64617461 
 3951      5F656E63 
 3951      72797074 
 3952              		.section	.text.observe_data_encrypt,"ax",@progbits
 3953              		.align	1
 3954              		.globl	observe_data_encrypt
 3956              	observe_data_encrypt:
 3957              	.LFB37:
 932:C:/Users/stapi/OneDrive/Desktop/GD32VW553/V1_MQTT_OK/GD32VW55X_Wifi_BLE_SDK/GD32VW55x_RELEASE_V1.0.2/MSDK/cloud/alicloud/src/protocol/alcs\alcs_server.c **** 
 933:C:/Users/stapi/OneDrive/Desktop/GD32VW553/V1_MQTT_OK/GD32VW55X_Wifi_BLE_SDK/GD32VW55x_RELEASE_V1.0.2/MSDK/cloud/alicloud/src/protocol/alcs\alcs_server.c **** int observe_data_encrypt(CoAPContext *ctx, const char *path, NetworkAddr *from, CoAPMessage *messag
 934:C:/Users/stapi/OneDrive/Desktop/GD32VW553/V1_MQTT_OK/GD32VW55X_Wifi_BLE_SDK/GD32VW55x_RELEASE_V1.0.2/MSDK/cloud/alicloud/src/protocol/alcs\alcs_server.c ****                          CoAPLenString *src, CoAPLenString *dest)
 935:C:/Users/stapi/OneDrive/Desktop/GD32VW553/V1_MQTT_OK/GD32VW55X_Wifi_BLE_SDK/GD32VW55x_RELEASE_V1.0.2/MSDK/cloud/alicloud/src/protocol/alcs\alcs_server.c **** {
 3958              		.loc 1 935 1
 3959              		.cfi_startproc
 3960              	.LVL463:
 3961 0000 17030000 		call	t0,__riscv_save_5
 3961      E7020300 
 3962              		.cfi_offset 20, -24
 3963              		.cfi_offset 19, -20
 3964              		.cfi_offset 18, -16
 3965              		.cfi_offset 9, -12
 3966              		.cfi_offset 8, -8
 3967              		.cfi_offset 1, -4
 3968              		.cfi_def_cfa_offset 32
 936:C:/Users/stapi/OneDrive/Desktop/GD32VW553/V1_MQTT_OK/GD32VW55X_Wifi_BLE_SDK/GD32VW55x_RELEASE_V1.0.2/MSDK/cloud/alicloud/src/protocol/alcs\alcs_server.c ****     COAP_DEBUG("observe_data_encrypt, src:%.*s", src->len, src->data);
 3969              		.loc 1 936 5
 3970 0008 03284700 		lw	a6,4(a4)
 935:C:/Users/stapi/OneDrive/Desktop/GD32VW553/V1_MQTT_OK/GD32VW55X_Wifi_BLE_SDK/GD32VW55x_RELEASE_V1.0.2/MSDK/cloud/alicloud/src/protocol/alcs\alcs_server.c ****     COAP_DEBUG("observe_data_encrypt, src:%.*s", src->len, src->data);
 3971              		.loc 1 935 1 is_stmt 0
 3972 000c 3E89     		mv	s2,a5
 3973              		.loc 1 936 5
 3974 000e 1C43     		lw	a5,0(a4)
 3975              	.LVL464:
 935:C:/Users/stapi/OneDrive/Desktop/GD32VW553/V1_MQTT_OK/GD32VW55X_Wifi_BLE_SDK/GD32VW55x_RELEASE_V1.0.2/MSDK/cloud/alicloud/src/protocol/alcs\alcs_server.c ****     COAP_DEBUG("observe_data_encrypt, src:%.*s", src->len, src->data);
 3976              		.loc 1 935 1
 3977 0010 2E8A     		mv	s4,a1
 3978 0012 3A84     		mv	s0,a4
 3979              		.loc 1 936 5
 3980 0014 B7050000 		lui	a1,%hi(.LANCHOR4)
 3981              	.LVL465:
 3982 0018 37070000 		lui	a4,%hi(.LC52)
 3983              	.LVL466:
 3984 001c 37050000 		lui	a0,%hi(.LC6)
 3985              	.LVL467:
 3986 0020 13050500 		addi	a0,a0,%lo(.LC6)
 935:C:/Users/stapi/OneDrive/Desktop/GD32VW553/V1_MQTT_OK/GD32VW55X_Wifi_BLE_SDK/GD32VW55x_RELEASE_V1.0.2/MSDK/cloud/alicloud/src/protocol/alcs\alcs_server.c ****     COAP_DEBUG("observe_data_encrypt, src:%.*s", src->len, src->data);
 3987              		.loc 1 935 1
 3988 0024 B284     		mv	s1,a2
 3989 0026 B689     		mv	s3,a3
 3990              		.loc 1 936 5
 3991 0028 13070700 		addi	a4,a4,%lo(.LC52)
 3992 002c 9546     		li	a3,5
 3993              	.LVL468:
 3994 002e 1306803A 		li	a2,936
 3995              	.LVL469:
 3996 0032 93850500 		addi	a1,a1,%lo(.LANCHOR4)
 3997 0036 97000000 		call	LITE_syslog
 3997      E7800000 
 3998              	.LVL470:
 937:C:/Users/stapi/OneDrive/Desktop/GD32VW553/V1_MQTT_OK/GD32VW55X_Wifi_BLE_SDK/GD32VW55x_RELEASE_V1.0.2/MSDK/cloud/alicloud/src/protocol/alcs\alcs_server.c **** 
 938:C:/Users/stapi/OneDrive/Desktop/GD32VW553/V1_MQTT_OK/GD32VW55X_Wifi_BLE_SDK/GD32VW55x_RELEASE_V1.0.2/MSDK/cloud/alicloud/src/protocol/alcs\alcs_server.c ****     secure_resource_cb_item *node = get_resource_by_path(path);
 3999              		.loc 1 938 5 is_stmt 1
 4000              		.loc 1 938 37 is_stmt 0
 4001 003e 5285     		mv	a0,s4
 4002 0040 97000000 		call	get_resource_by_path
 4002      E7800000 
 4003              	.LVL471:
 939:C:/Users/stapi/OneDrive/Desktop/GD32VW553/V1_MQTT_OK/GD32VW55X_Wifi_BLE_SDK/GD32VW55x_RELEASE_V1.0.2/MSDK/cloud/alicloud/src/protocol/alcs\alcs_server.c ****     if (!node) {
 4004              		.loc 1 939 5 is_stmt 1
 4005              		.loc 1 939 8 is_stmt 0
 4006 0048 19E5     		bne	a0,zero,.L240
 4007              	.LVL472:
 4008              	.L243:
 940:C:/Users/stapi/OneDrive/Desktop/GD32VW553/V1_MQTT_OK/GD32VW55X_Wifi_BLE_SDK/GD32VW55x_RELEASE_V1.0.2/MSDK/cloud/alicloud/src/protocol/alcs\alcs_server.c ****         return COAP_ERROR_NOT_FOUND;
 4009              		.loc 1 940 16
 4010 004a 13057010 		li	a0,263
 4011              	.L239:
 941:C:/Users/stapi/OneDrive/Desktop/GD32VW553/V1_MQTT_OK/GD32VW55X_Wifi_BLE_SDK/GD32VW55x_RELEASE_V1.0.2/MSDK/cloud/alicloud/src/protocol/alcs\alcs_server.c ****     }
 942:C:/Users/stapi/OneDrive/Desktop/GD32VW553/V1_MQTT_OK/GD32VW55X_Wifi_BLE_SDK/GD32VW55x_RELEASE_V1.0.2/MSDK/cloud/alicloud/src/protocol/alcs\alcs_server.c **** 
 943:C:/Users/stapi/OneDrive/Desktop/GD32VW553/V1_MQTT_OK/GD32VW55X_Wifi_BLE_SDK/GD32VW55x_RELEASE_V1.0.2/MSDK/cloud/alicloud/src/protocol/alcs\alcs_server.c ****     struct list_head *sessions = get_svr_session_list();
 944:C:/Users/stapi/OneDrive/Desktop/GD32VW553/V1_MQTT_OK/GD32VW55X_Wifi_BLE_SDK/GD32VW55x_RELEASE_V1.0.2/MSDK/cloud/alicloud/src/protocol/alcs\alcs_server.c ****     session_item *session = get_session_by_checksum(sessions, from, node->pk_dn);
 945:C:/Users/stapi/OneDrive/Desktop/GD32VW553/V1_MQTT_OK/GD32VW55X_Wifi_BLE_SDK/GD32VW55x_RELEASE_V1.0.2/MSDK/cloud/alicloud/src/protocol/alcs\alcs_server.c **** 
 946:C:/Users/stapi/OneDrive/Desktop/GD32VW553/V1_MQTT_OK/GD32VW55X_Wifi_BLE_SDK/GD32VW55x_RELEASE_V1.0.2/MSDK/cloud/alicloud/src/protocol/alcs\alcs_server.c ****     if (session) {
 947:C:/Users/stapi/OneDrive/Desktop/GD32VW553/V1_MQTT_OK/GD32VW55X_Wifi_BLE_SDK/GD32VW55x_RELEASE_V1.0.2/MSDK/cloud/alicloud/src/protocol/alcs\alcs_server.c ****         dest->len = (src->len & 0xfffffff0) + 16;
 948:C:/Users/stapi/OneDrive/Desktop/GD32VW553/V1_MQTT_OK/GD32VW55X_Wifi_BLE_SDK/GD32VW55x_RELEASE_V1.0.2/MSDK/cloud/alicloud/src/protocol/alcs\alcs_server.c ****         dest->data  = (unsigned char *)coap_malloc(dest->len);
 949:C:/Users/stapi/OneDrive/Desktop/GD32VW553/V1_MQTT_OK/GD32VW55X_Wifi_BLE_SDK/GD32VW55x_RELEASE_V1.0.2/MSDK/cloud/alicloud/src/protocol/alcs\alcs_server.c ****         alcs_encrypt((const char *)src->data, src->len, session->sessionKey, dest->data);
 950:C:/Users/stapi/OneDrive/Desktop/GD32VW553/V1_MQTT_OK/GD32VW55X_Wifi_BLE_SDK/GD32VW55x_RELEASE_V1.0.2/MSDK/cloud/alicloud/src/protocol/alcs\alcs_server.c ****         CoAPUintOption_add(message, COAP_OPTION_SESSIONID, session->sessionId);
 951:C:/Users/stapi/OneDrive/Desktop/GD32VW553/V1_MQTT_OK/GD32VW55X_Wifi_BLE_SDK/GD32VW55x_RELEASE_V1.0.2/MSDK/cloud/alicloud/src/protocol/alcs\alcs_server.c ****         return COAP_SUCCESS;
 952:C:/Users/stapi/OneDrive/Desktop/GD32VW553/V1_MQTT_OK/GD32VW55X_Wifi_BLE_SDK/GD32VW55x_RELEASE_V1.0.2/MSDK/cloud/alicloud/src/protocol/alcs\alcs_server.c ****     }
 953:C:/Users/stapi/OneDrive/Desktop/GD32VW553/V1_MQTT_OK/GD32VW55X_Wifi_BLE_SDK/GD32VW55x_RELEASE_V1.0.2/MSDK/cloud/alicloud/src/protocol/alcs\alcs_server.c **** 
 954:C:/Users/stapi/OneDrive/Desktop/GD32VW553/V1_MQTT_OK/GD32VW55X_Wifi_BLE_SDK/GD32VW55x_RELEASE_V1.0.2/MSDK/cloud/alicloud/src/protocol/alcs\alcs_server.c ****     return COAP_ERROR_NOT_FOUND;
 955:C:/Users/stapi/OneDrive/Desktop/GD32VW553/V1_MQTT_OK/GD32VW55X_Wifi_BLE_SDK/GD32VW55x_RELEASE_V1.0.2/MSDK/cloud/alicloud/src/protocol/alcs\alcs_server.c **** }
 4012              		.loc 1 955 1
 4013 004e 17030000 		tail	__riscv_restore_5
 4013      67000300 
 4014              		.cfi_remember_state
 4015              		.cfi_restore 20
 4016              		.cfi_restore 19
 4017              		.cfi_restore 18
 4018              		.cfi_restore 9
 4019              		.cfi_restore 8
 4020              		.cfi_restore 1
 4021              		.cfi_def_cfa_offset 0
 4022              	.LVL473:
 4023              	.L240:
 4024              		.cfi_restore_state
 943:C:/Users/stapi/OneDrive/Desktop/GD32VW553/V1_MQTT_OK/GD32VW55X_Wifi_BLE_SDK/GD32VW55x_RELEASE_V1.0.2/MSDK/cloud/alicloud/src/protocol/alcs\alcs_server.c ****     session_item *session = get_session_by_checksum(sessions, from, node->pk_dn);
 4025              		.loc 1 943 34
 4026 0056 B7070000 		lui	a5,%hi(_device+44)
 4027 005a 83C7C702 		lbu	a5,%lo(_device+44)(a5)
 4028 005e 2A86     		mv	a2,a0
 943:C:/Users/stapi/OneDrive/Desktop/GD32VW553/V1_MQTT_OK/GD32VW55X_Wifi_BLE_SDK/GD32VW55x_RELEASE_V1.0.2/MSDK/cloud/alicloud/src/protocol/alcs\alcs_server.c ****     session_item *session = get_session_by_checksum(sessions, from, node->pk_dn);
 4029              		.loc 1 943 5 is_stmt 1
 943:C:/Users/stapi/OneDrive/Desktop/GD32VW553/V1_MQTT_OK/GD32VW55X_Wifi_BLE_SDK/GD32VW55x_RELEASE_V1.0.2/MSDK/cloud/alicloud/src/protocol/alcs\alcs_server.c ****     session_item *session = get_session_by_checksum(sessions, from, node->pk_dn);
 4030              		.loc 1 943 34 is_stmt 0
 4031 0060 0145     		li	a0,0
 4032              	.LVL474:
 4033 0062 898B     		andi	a5,a5,2
 4034 0064 89C7     		beq	a5,zero,.L242
 4035 0066 B7070000 		lui	a5,%hi(_device+28)
 4036 006a 1385C701 		addi	a0,a5,%lo(_device+28)
 4037              	.L242:
 4038              	.LVL475:
 944:C:/Users/stapi/OneDrive/Desktop/GD32VW553/V1_MQTT_OK/GD32VW55X_Wifi_BLE_SDK/GD32VW55x_RELEASE_V1.0.2/MSDK/cloud/alicloud/src/protocol/alcs\alcs_server.c **** 
 4039              		.loc 1 944 5 is_stmt 1 discriminator 4
 944:C:/Users/stapi/OneDrive/Desktop/GD32VW553/V1_MQTT_OK/GD32VW55X_Wifi_BLE_SDK/GD32VW55x_RELEASE_V1.0.2/MSDK/cloud/alicloud/src/protocol/alcs\alcs_server.c **** 
 4040              		.loc 1 944 29 is_stmt 0 discriminator 4
 4041 006e A685     		mv	a1,s1
 4042 0070 1506     		addi	a2,a2,5
 4043              	.LVL476:
 4044 0072 97000000 		call	get_session_by_checksum
 4044      E7800000 
 4045              	.LVL477:
 4046 007a AA84     		mv	s1,a0
 4047              	.LVL478:
 946:C:/Users/stapi/OneDrive/Desktop/GD32VW553/V1_MQTT_OK/GD32VW55X_Wifi_BLE_SDK/GD32VW55x_RELEASE_V1.0.2/MSDK/cloud/alicloud/src/protocol/alcs\alcs_server.c ****         dest->len = (src->len & 0xfffffff0) + 16;
 4048              		.loc 1 946 5 is_stmt 1 discriminator 4
 946:C:/Users/stapi/OneDrive/Desktop/GD32VW553/V1_MQTT_OK/GD32VW55X_Wifi_BLE_SDK/GD32VW55x_RELEASE_V1.0.2/MSDK/cloud/alicloud/src/protocol/alcs\alcs_server.c ****         dest->len = (src->len & 0xfffffff0) + 16;
 4049              		.loc 1 946 8 is_stmt 0 discriminator 4
 4050 007c 79D5     		beq	a0,zero,.L243
 947:C:/Users/stapi/OneDrive/Desktop/GD32VW553/V1_MQTT_OK/GD32VW55X_Wifi_BLE_SDK/GD32VW55x_RELEASE_V1.0.2/MSDK/cloud/alicloud/src/protocol/alcs\alcs_server.c ****         dest->data  = (unsigned char *)coap_malloc(dest->len);
 4051              		.loc 1 947 9 is_stmt 1
 947:C:/Users/stapi/OneDrive/Desktop/GD32VW553/V1_MQTT_OK/GD32VW55X_Wifi_BLE_SDK/GD32VW55x_RELEASE_V1.0.2/MSDK/cloud/alicloud/src/protocol/alcs\alcs_server.c ****         dest->data  = (unsigned char *)coap_malloc(dest->len);
 4052              		.loc 1 947 31 is_stmt 0
 4053 007e 1040     		lw	a2,0(s0)
 948:C:/Users/stapi/OneDrive/Desktop/GD32VW553/V1_MQTT_OK/GD32VW55X_Wifi_BLE_SDK/GD32VW55x_RELEASE_V1.0.2/MSDK/cloud/alicloud/src/protocol/alcs\alcs_server.c ****         alcs_encrypt((const char *)src->data, src->len, session->sessionKey, dest->data);
 4054              		.loc 1 948 40
 4055 0080 8145     		li	a1,0
 4056 0082 0145     		li	a0,0
 947:C:/Users/stapi/OneDrive/Desktop/GD32VW553/V1_MQTT_OK/GD32VW55X_Wifi_BLE_SDK/GD32VW55x_RELEASE_V1.0.2/MSDK/cloud/alicloud/src/protocol/alcs\alcs_server.c ****         dest->data  = (unsigned char *)coap_malloc(dest->len);
 4057              		.loc 1 947 31
 4058 0084 419A     		andi	a2,a2,-16
 947:C:/Users/stapi/OneDrive/Desktop/GD32VW553/V1_MQTT_OK/GD32VW55X_Wifi_BLE_SDK/GD32VW55x_RELEASE_V1.0.2/MSDK/cloud/alicloud/src/protocol/alcs\alcs_server.c ****         dest->data  = (unsigned char *)coap_malloc(dest->len);
 4059              		.loc 1 947 45
 4060 0086 4106     		addi	a2,a2,16
 947:C:/Users/stapi/OneDrive/Desktop/GD32VW553/V1_MQTT_OK/GD32VW55X_Wifi_BLE_SDK/GD32VW55x_RELEASE_V1.0.2/MSDK/cloud/alicloud/src/protocol/alcs\alcs_server.c ****         dest->data  = (unsigned char *)coap_malloc(dest->len);
 4061              		.loc 1 947 19
 4062 0088 2320C900 		sw	a2,0(s2)
 948:C:/Users/stapi/OneDrive/Desktop/GD32VW553/V1_MQTT_OK/GD32VW55X_Wifi_BLE_SDK/GD32VW55x_RELEASE_V1.0.2/MSDK/cloud/alicloud/src/protocol/alcs\alcs_server.c ****         alcs_encrypt((const char *)src->data, src->len, session->sessionKey, dest->data);
 4063              		.loc 1 948 9 is_stmt 1
 948:C:/Users/stapi/OneDrive/Desktop/GD32VW553/V1_MQTT_OK/GD32VW55X_Wifi_BLE_SDK/GD32VW55x_RELEASE_V1.0.2/MSDK/cloud/alicloud/src/protocol/alcs\alcs_server.c ****         alcs_encrypt((const char *)src->data, src->len, session->sessionKey, dest->data);
 4064              		.loc 1 948 40 is_stmt 0
 4065 008c 97000000 		call	LITE_malloc_internal
 4065      E7800000 
 4066              	.LVL479:
 948:C:/Users/stapi/OneDrive/Desktop/GD32VW553/V1_MQTT_OK/GD32VW55X_Wifi_BLE_SDK/GD32VW55x_RELEASE_V1.0.2/MSDK/cloud/alicloud/src/protocol/alcs\alcs_server.c ****         alcs_encrypt((const char *)src->data, src->len, session->sessionKey, dest->data);
 4067              		.loc 1 948 21
 4068 0094 2322A900 		sw	a0,4(s2)
 949:C:/Users/stapi/OneDrive/Desktop/GD32VW553/V1_MQTT_OK/GD32VW55X_Wifi_BLE_SDK/GD32VW55x_RELEASE_V1.0.2/MSDK/cloud/alicloud/src/protocol/alcs\alcs_server.c ****         CoAPUintOption_add(message, COAP_OPTION_SESSIONID, session->sessionId);
 4069              		.loc 1 949 9 is_stmt 1
 948:C:/Users/stapi/OneDrive/Desktop/GD32VW553/V1_MQTT_OK/GD32VW55X_Wifi_BLE_SDK/GD32VW55x_RELEASE_V1.0.2/MSDK/cloud/alicloud/src/protocol/alcs\alcs_server.c ****         alcs_encrypt((const char *)src->data, src->len, session->sessionKey, dest->data);
 4070              		.loc 1 948 40 is_stmt 0
 4071 0098 AA86     		mv	a3,a0
 949:C:/Users/stapi/OneDrive/Desktop/GD32VW553/V1_MQTT_OK/GD32VW55X_Wifi_BLE_SDK/GD32VW55x_RELEASE_V1.0.2/MSDK/cloud/alicloud/src/protocol/alcs\alcs_server.c ****         CoAPUintOption_add(message, COAP_OPTION_SESSIONID, session->sessionId);
 4072              		.loc 1 949 9
 4073 009a 0C40     		lw	a1,0(s0)
 4074 009c 4840     		lw	a0,4(s0)
 4075 009e 13865401 		addi	a2,s1,21
 4076 00a2 97000000 		call	alcs_encrypt
 4076      E7800000 
 4077              	.LVL480:
 950:C:/Users/stapi/OneDrive/Desktop/GD32VW553/V1_MQTT_OK/GD32VW55X_Wifi_BLE_SDK/GD32VW55x_RELEASE_V1.0.2/MSDK/cloud/alicloud/src/protocol/alcs\alcs_server.c ****         return COAP_SUCCESS;
 4078              		.loc 1 950 9 is_stmt 1
 4079 00aa 9040     		lw	a2,0(s1)
 4080 00ac 93057004 		li	a1,71
 4081 00b0 4E85     		mv	a0,s3
 4082 00b2 97000000 		call	CoAPUintOption_add
 4082      E7800000 
 4083              	.LVL481:
 951:C:/Users/stapi/OneDrive/Desktop/GD32VW553/V1_MQTT_OK/GD32VW55X_Wifi_BLE_SDK/GD32VW55x_RELEASE_V1.0.2/MSDK/cloud/alicloud/src/protocol/alcs\alcs_server.c ****     }
 4084              		.loc 1 951 9
 951:C:/Users/stapi/OneDrive/Desktop/GD32VW553/V1_MQTT_OK/GD32VW55X_Wifi_BLE_SDK/GD32VW55x_RELEASE_V1.0.2/MSDK/cloud/alicloud/src/protocol/alcs\alcs_server.c ****     }
 4085              		.loc 1 951 16 is_stmt 0
 4086 00ba 0145     		li	a0,0
 4087 00bc 49BF     		j	.L239
 4088              		.cfi_endproc
 4089              	.LFE37:
 4091              		.section	.rodata.on_svr_auth_timer.str1.4,"aMS",@progbits,1
 4092              		.align	2
 4093              	.LC53:
 4094 0000 68656172 		.string	"heart beat timeout"
 4094      74206265 
 4094      61742074 
 4094      696D656F 
 4094      757400
 4095              		.section	.text.on_svr_auth_timer,"ax",@progbits
 4096              		.align	1
 4097              		.globl	on_svr_auth_timer
 4099              	on_svr_auth_timer:
 4100              	.LFB38:
 956:C:/Users/stapi/OneDrive/Desktop/GD32VW553/V1_MQTT_OK/GD32VW55X_Wifi_BLE_SDK/GD32VW55x_RELEASE_V1.0.2/MSDK/cloud/alicloud/src/protocol/alcs\alcs_server.c **** 
 957:C:/Users/stapi/OneDrive/Desktop/GD32VW553/V1_MQTT_OK/GD32VW55X_Wifi_BLE_SDK/GD32VW55x_RELEASE_V1.0.2/MSDK/cloud/alicloud/src/protocol/alcs\alcs_server.c **** void on_svr_auth_timer(CoAPContext *ctx)
 958:C:/Users/stapi/OneDrive/Desktop/GD32VW553/V1_MQTT_OK/GD32VW55X_Wifi_BLE_SDK/GD32VW55x_RELEASE_V1.0.2/MSDK/cloud/alicloud/src/protocol/alcs\alcs_server.c **** {
 4101              		.loc 1 958 1 is_stmt 1
 4102              		.cfi_startproc
 4103              	.LVL482:
 4104 0000 17030000 		call	t0,__riscv_save_9
 4104      E7020300 
 4105              		.cfi_offset 24, -40
 4106              		.cfi_offset 23, -36
 4107              		.cfi_offset 22, -32
 4108              		.cfi_offset 21, -28
 4109              		.cfi_offset 20, -24
 4110              		.cfi_offset 19, -20
 4111              		.cfi_offset 18, -16
 4112              		.cfi_offset 9, -12
 4113              		.cfi_offset 8, -8
 4114              		.cfi_offset 1, -4
 4115              		.cfi_def_cfa_offset 48
 959:C:/Users/stapi/OneDrive/Desktop/GD32VW553/V1_MQTT_OK/GD32VW55X_Wifi_BLE_SDK/GD32VW55x_RELEASE_V1.0.2/MSDK/cloud/alicloud/src/protocol/alcs\alcs_server.c ****     struct list_head *head = get_svr_session_list();
 4116              		.loc 1 959 5
 4117              		.loc 1 959 30 is_stmt 0
 4118 0008 37040000 		lui	s0,%hi(_device)
 4119 000c 93070400 		addi	a5,s0,%lo(_device)
 4120 0010 83C7C702 		lbu	a5,44(a5)
 958:C:/Users/stapi/OneDrive/Desktop/GD32VW553/V1_MQTT_OK/GD32VW55X_Wifi_BLE_SDK/GD32VW55x_RELEASE_V1.0.2/MSDK/cloud/alicloud/src/protocol/alcs\alcs_server.c ****     struct list_head *head = get_svr_session_list();
 4121              		.loc 1 958 1
 4122 0014 4111     		addi	sp,sp,-16
 4123              		.cfi_def_cfa_offset 64
 958:C:/Users/stapi/OneDrive/Desktop/GD32VW553/V1_MQTT_OK/GD32VW55X_Wifi_BLE_SDK/GD32VW55x_RELEASE_V1.0.2/MSDK/cloud/alicloud/src/protocol/alcs\alcs_server.c ****     struct list_head *head = get_svr_session_list();
 4124              		.loc 1 958 1
 4125 0016 2A8A     		mv	s4,a0
 4126              		.loc 1 959 30
 4127 0018 898B     		andi	a5,a5,2
 4128 001a 13040400 		addi	s0,s0,%lo(_device)
 4129 001e 8144     		li	s1,0
 4130 0020 89C7     		beq	a5,zero,.L250
 4131 0022 B7040000 		lui	s1,%hi(_device+28)
 4132 0026 9384C401 		addi	s1,s1,%lo(_device+28)
 4133              	.L250:
 4134              	.LVL483:
 960:C:/Users/stapi/OneDrive/Desktop/GD32VW553/V1_MQTT_OK/GD32VW55X_Wifi_BLE_SDK/GD32VW55x_RELEASE_V1.0.2/MSDK/cloud/alicloud/src/protocol/alcs\alcs_server.c ****     int tick = HAL_UptimeMs();
 4135              		.loc 1 960 5 is_stmt 1 discriminator 4
 4136              		.loc 1 960 16 is_stmt 0 discriminator 4
 4137 002a 97000000 		call	HAL_UptimeMs
 4137      E7800000 
 4138              	.LVL484:
 4139 0032 AA89     		mv	s3,a0
 4140              	.LVL485:
 961:C:/Users/stapi/OneDrive/Desktop/GD32VW553/V1_MQTT_OK/GD32VW55X_Wifi_BLE_SDK/GD32VW55x_RELEASE_V1.0.2/MSDK/cloud/alicloud/src/protocol/alcs\alcs_server.c ****     device_auth_list *dev = get_device();
 4141              		.loc 1 961 5 is_stmt 1 discriminator 4
 962:C:/Users/stapi/OneDrive/Desktop/GD32VW553/V1_MQTT_OK/GD32VW55X_Wifi_BLE_SDK/GD32VW55x_RELEASE_V1.0.2/MSDK/cloud/alicloud/src/protocol/alcs\alcs_server.c ****     HAL_MutexLock(dev->list_mutex);
 4142              		.loc 1 962 5 discriminator 4
 4143 0034 0844     		lw	a0,8(s0)
 4144              	.LVL486:
 963:C:/Users/stapi/OneDrive/Desktop/GD32VW553/V1_MQTT_OK/GD32VW55X_Wifi_BLE_SDK/GD32VW55x_RELEASE_V1.0.2/MSDK/cloud/alicloud/src/protocol/alcs\alcs_server.c **** 
 964:C:/Users/stapi/OneDrive/Desktop/GD32VW553/V1_MQTT_OK/GD32VW55X_Wifi_BLE_SDK/GD32VW55x_RELEASE_V1.0.2/MSDK/cloud/alicloud/src/protocol/alcs\alcs_server.c ****     request_item* req_cur = NULL, *req_next = NULL;
 965:C:/Users/stapi/OneDrive/Desktop/GD32VW553/V1_MQTT_OK/GD32VW55X_Wifi_BLE_SDK/GD32VW55x_RELEASE_V1.0.2/MSDK/cloud/alicloud/src/protocol/alcs\alcs_server.c ****     list_for_each_entry_safe(req_cur, req_next, &dev->lst_requests, lst, request_item) {
 4145              		.loc 1 965 5 is_stmt 0 discriminator 4
 4146 0036 B70A0000 		lui	s5,%hi(_device+36)
 966:C:/Users/stapi/OneDrive/Desktop/GD32VW553/V1_MQTT_OK/GD32VW55X_Wifi_BLE_SDK/GD32VW55x_RELEASE_V1.0.2/MSDK/cloud/alicloud/src/protocol/alcs\alcs_server.c ****         if (req_cur->recTime + default_request_expire < tick) {
 4147              		.loc 1 966 30 discriminator 4
 4148 003a 096B     		li	s6,8192
 962:C:/Users/stapi/OneDrive/Desktop/GD32VW553/V1_MQTT_OK/GD32VW55X_Wifi_BLE_SDK/GD32VW55x_RELEASE_V1.0.2/MSDK/cloud/alicloud/src/protocol/alcs\alcs_server.c ****     HAL_MutexLock(dev->list_mutex);
 4149              		.loc 1 962 5 discriminator 4
 4150 003c 97000000 		call	HAL_MutexLock
 4150      E7800000 
 4151              	.LVL487:
 964:C:/Users/stapi/OneDrive/Desktop/GD32VW553/V1_MQTT_OK/GD32VW55X_Wifi_BLE_SDK/GD32VW55x_RELEASE_V1.0.2/MSDK/cloud/alicloud/src/protocol/alcs\alcs_server.c ****     list_for_each_entry_safe(req_cur, req_next, &dev->lst_requests, lst, request_item) {
 4152              		.loc 1 964 5 is_stmt 1 discriminator 4
 965:C:/Users/stapi/OneDrive/Desktop/GD32VW553/V1_MQTT_OK/GD32VW55X_Wifi_BLE_SDK/GD32VW55x_RELEASE_V1.0.2/MSDK/cloud/alicloud/src/protocol/alcs\alcs_server.c ****         if (req_cur->recTime + default_request_expire < tick) {
 4153              		.loc 1 965 5 discriminator 4
 4154 0044 1C54     		lw	a5,40(s0)
 4155 0046 938A4A02 		addi	s5,s5,%lo(_device+36)
 4156              		.loc 1 966 55 is_stmt 0 discriminator 4
 4157 004a 93DBF941 		srai	s7,s3,31
 965:C:/Users/stapi/OneDrive/Desktop/GD32VW553/V1_MQTT_OK/GD32VW55X_Wifi_BLE_SDK/GD32VW55x_RELEASE_V1.0.2/MSDK/cloud/alicloud/src/protocol/alcs\alcs_server.c ****         if (req_cur->recTime + default_request_expire < tick) {
 4158              		.loc 1 965 5 discriminator 4
 4159 004e 03A94700 		lw	s2,4(a5)
 4160 0052 138547FD 		addi	a0,a5,-44
 4161              	.LVL488:
 4162              		.loc 1 966 30 discriminator 4
 4163 0056 130B0B71 		addi	s6,s6,1808
 965:C:/Users/stapi/OneDrive/Desktop/GD32VW553/V1_MQTT_OK/GD32VW55X_Wifi_BLE_SDK/GD32VW55x_RELEASE_V1.0.2/MSDK/cloud/alicloud/src/protocol/alcs\alcs_server.c ****         if (req_cur->recTime + default_request_expire < tick) {
 4164              		.loc 1 965 5 discriminator 4
 4165 005a 130949FD 		addi	s2,s2,-44
 4166              	.LVL489:
 4167              	.L251:
 965:C:/Users/stapi/OneDrive/Desktop/GD32VW553/V1_MQTT_OK/GD32VW55X_Wifi_BLE_SDK/GD32VW55x_RELEASE_V1.0.2/MSDK/cloud/alicloud/src/protocol/alcs\alcs_server.c ****         if (req_cur->recTime + default_request_expire < tick) {
 4168              		.loc 1 965 5 is_stmt 1 discriminator 1
 4169 005e 9307C502 		addi	a5,a0,44
 4170 0062 63905703 		bne	a5,s5,.L254
 967:C:/Users/stapi/OneDrive/Desktop/GD32VW553/V1_MQTT_OK/GD32VW55X_Wifi_BLE_SDK/GD32VW55x_RELEASE_V1.0.2/MSDK/cloud/alicloud/src/protocol/alcs\alcs_server.c ****             remove_request(req_cur);
 968:C:/Users/stapi/OneDrive/Desktop/GD32VW553/V1_MQTT_OK/GD32VW55X_Wifi_BLE_SDK/GD32VW55x_RELEASE_V1.0.2/MSDK/cloud/alicloud/src/protocol/alcs\alcs_server.c ****         }
 969:C:/Users/stapi/OneDrive/Desktop/GD32VW553/V1_MQTT_OK/GD32VW55X_Wifi_BLE_SDK/GD32VW55x_RELEASE_V1.0.2/MSDK/cloud/alicloud/src/protocol/alcs\alcs_server.c ****     }
 970:C:/Users/stapi/OneDrive/Desktop/GD32VW553/V1_MQTT_OK/GD32VW55X_Wifi_BLE_SDK/GD32VW55x_RELEASE_V1.0.2/MSDK/cloud/alicloud/src/protocol/alcs\alcs_server.c **** 
 971:C:/Users/stapi/OneDrive/Desktop/GD32VW553/V1_MQTT_OK/GD32VW55X_Wifi_BLE_SDK/GD32VW55x_RELEASE_V1.0.2/MSDK/cloud/alicloud/src/protocol/alcs\alcs_server.c ****     if (!head || list_empty(head)) {
 4171              		.loc 1 971 5
 4172              		.loc 1 971 8 is_stmt 0
 4173 0066 81C4     		beq	s1,zero,.L270
 4174              	.LVL490:
 4175              	.LBB130:
 4176              	.LBB131:
 4177              		.loc 2 88 5 is_stmt 1
 4178              		.loc 2 88 16 is_stmt 0
 4179 0068 DC40     		lw	a5,4(s1)
 4180              	.LVL491:
 4181              	.LBE131:
 4182              	.LBE130:
 4183              		.loc 1 971 15
 4184 006a 6393F404 		bne	s1,a5,.L256
 4185              	.LVL492:
 4186              	.L270:
 972:C:/Users/stapi/OneDrive/Desktop/GD32VW553/V1_MQTT_OK/GD32VW55X_Wifi_BLE_SDK/GD32VW55x_RELEASE_V1.0.2/MSDK/cloud/alicloud/src/protocol/alcs\alcs_server.c ****         HAL_MutexUnlock(dev->list_mutex);
 973:C:/Users/stapi/OneDrive/Desktop/GD32VW553/V1_MQTT_OK/GD32VW55X_Wifi_BLE_SDK/GD32VW55x_RELEASE_V1.0.2/MSDK/cloud/alicloud/src/protocol/alcs\alcs_server.c ****         return;
 974:C:/Users/stapi/OneDrive/Desktop/GD32VW553/V1_MQTT_OK/GD32VW55X_Wifi_BLE_SDK/GD32VW55x_RELEASE_V1.0.2/MSDK/cloud/alicloud/src/protocol/alcs\alcs_server.c ****     }
 975:C:/Users/stapi/OneDrive/Desktop/GD32VW553/V1_MQTT_OK/GD32VW55X_Wifi_BLE_SDK/GD32VW55x_RELEASE_V1.0.2/MSDK/cloud/alicloud/src/protocol/alcs\alcs_server.c **** 
 976:C:/Users/stapi/OneDrive/Desktop/GD32VW553/V1_MQTT_OK/GD32VW55X_Wifi_BLE_SDK/GD32VW55x_RELEASE_V1.0.2/MSDK/cloud/alicloud/src/protocol/alcs\alcs_server.c ****     session_item *node = NULL, *next = NULL;
 977:C:/Users/stapi/OneDrive/Desktop/GD32VW553/V1_MQTT_OK/GD32VW55X_Wifi_BLE_SDK/GD32VW55x_RELEASE_V1.0.2/MSDK/cloud/alicloud/src/protocol/alcs\alcs_server.c ****     list_for_each_entry_safe(node, next, head, lst, session_item) {
 978:C:/Users/stapi/OneDrive/Desktop/GD32VW553/V1_MQTT_OK/GD32VW55X_Wifi_BLE_SDK/GD32VW55x_RELEASE_V1.0.2/MSDK/cloud/alicloud/src/protocol/alcs\alcs_server.c ****         if (node->sessionId && node->heart_time + default_heart_expire < tick) {
 979:C:/Users/stapi/OneDrive/Desktop/GD32VW553/V1_MQTT_OK/GD32VW55X_Wifi_BLE_SDK/GD32VW55x_RELEASE_V1.0.2/MSDK/cloud/alicloud/src/protocol/alcs\alcs_server.c ****             if (node->heart_time > 0 && node->heart_time < tick &&
 980:C:/Users/stapi/OneDrive/Desktop/GD32VW553/V1_MQTT_OK/GD32VW55X_Wifi_BLE_SDK/GD32VW55x_RELEASE_V1.0.2/MSDK/cloud/alicloud/src/protocol/alcs\alcs_server.c ****                 node->heart_time + default_heart_expire < 0) {
 981:C:/Users/stapi/OneDrive/Desktop/GD32VW553/V1_MQTT_OK/GD32VW55X_Wifi_BLE_SDK/GD32VW55x_RELEASE_V1.0.2/MSDK/cloud/alicloud/src/protocol/alcs\alcs_server.c ****                 /* overflow */
 982:C:/Users/stapi/OneDrive/Desktop/GD32VW553/V1_MQTT_OK/GD32VW55X_Wifi_BLE_SDK/GD32VW55x_RELEASE_V1.0.2/MSDK/cloud/alicloud/src/protocol/alcs\alcs_server.c ****                 HAL_MutexUnlock(dev->list_mutex);
 983:C:/Users/stapi/OneDrive/Desktop/GD32VW553/V1_MQTT_OK/GD32VW55X_Wifi_BLE_SDK/GD32VW55x_RELEASE_V1.0.2/MSDK/cloud/alicloud/src/protocol/alcs\alcs_server.c ****                 return;
 984:C:/Users/stapi/OneDrive/Desktop/GD32VW553/V1_MQTT_OK/GD32VW55X_Wifi_BLE_SDK/GD32VW55x_RELEASE_V1.0.2/MSDK/cloud/alicloud/src/protocol/alcs\alcs_server.c ****             }
 985:C:/Users/stapi/OneDrive/Desktop/GD32VW553/V1_MQTT_OK/GD32VW55X_Wifi_BLE_SDK/GD32VW55x_RELEASE_V1.0.2/MSDK/cloud/alicloud/src/protocol/alcs\alcs_server.c ****             COAP_ERR("heart beat timeout");
 986:C:/Users/stapi/OneDrive/Desktop/GD32VW553/V1_MQTT_OK/GD32VW55X_Wifi_BLE_SDK/GD32VW55x_RELEASE_V1.0.2/MSDK/cloud/alicloud/src/protocol/alcs\alcs_server.c ****             remove_session(ctx, node);
 987:C:/Users/stapi/OneDrive/Desktop/GD32VW553/V1_MQTT_OK/GD32VW55X_Wifi_BLE_SDK/GD32VW55x_RELEASE_V1.0.2/MSDK/cloud/alicloud/src/protocol/alcs\alcs_server.c ****         }
 988:C:/Users/stapi/OneDrive/Desktop/GD32VW553/V1_MQTT_OK/GD32VW55X_Wifi_BLE_SDK/GD32VW55x_RELEASE_V1.0.2/MSDK/cloud/alicloud/src/protocol/alcs\alcs_server.c ****     }
 989:C:/Users/stapi/OneDrive/Desktop/GD32VW553/V1_MQTT_OK/GD32VW55X_Wifi_BLE_SDK/GD32VW55x_RELEASE_V1.0.2/MSDK/cloud/alicloud/src/protocol/alcs\alcs_server.c ****     HAL_MutexUnlock(dev->list_mutex);
 4187              		.loc 1 989 5 is_stmt 1
 4188 006e 0844     		lw	a0,8(s0)
 4189 0070 97000000 		call	HAL_MutexUnlock
 4189      E7800000 
 4190              	.LVL493:
 990:C:/Users/stapi/OneDrive/Desktop/GD32VW553/V1_MQTT_OK/GD32VW55X_Wifi_BLE_SDK/GD32VW55x_RELEASE_V1.0.2/MSDK/cloud/alicloud/src/protocol/alcs\alcs_server.c **** }
 4191              		.loc 1 990 1 is_stmt 0
 4192 0078 4101     		addi	sp,sp,16
 4193              		.cfi_remember_state
 4194              		.cfi_def_cfa_offset 0
 4195 007a 17030000 		tail	__riscv_restore_9
 4195      67000300 
 4196              		.cfi_restore 24
 4197              		.cfi_restore 23
 4198              		.cfi_restore 22
 4199              		.cfi_restore 21
 4200              		.cfi_restore 20
 4201              		.cfi_restore 19
 4202              		.cfi_restore 18
 4203              		.cfi_restore 9
 4204              		.cfi_restore 8
 4205              		.cfi_restore 1
 4206              		.cfi_def_cfa_offset -48
 4207              	.LVL494:
 4208              	.L254:
 4209              		.cfi_restore_state
 966:C:/Users/stapi/OneDrive/Desktop/GD32VW553/V1_MQTT_OK/GD32VW55X_Wifi_BLE_SDK/GD32VW55x_RELEASE_V1.0.2/MSDK/cloud/alicloud/src/protocol/alcs\alcs_server.c ****             remove_request(req_cur);
 4210              		.loc 1 966 9 is_stmt 1
 966:C:/Users/stapi/OneDrive/Desktop/GD32VW553/V1_MQTT_OK/GD32VW55X_Wifi_BLE_SDK/GD32VW55x_RELEASE_V1.0.2/MSDK/cloud/alicloud/src/protocol/alcs\alcs_server.c ****             remove_request(req_cur);
 4211              		.loc 1 966 30 is_stmt 0
 4212 0082 1C49     		lw	a5,16(a0)
 4213 0084 5449     		lw	a3,20(a0)
 4214 0086 33876701 		add	a4,a5,s6
 4215 008a B337F700 		sltu	a5,a4,a5
 4216 008e B697     		add	a5,a5,a3
 966:C:/Users/stapi/OneDrive/Desktop/GD32VW553/V1_MQTT_OK/GD32VW55X_Wifi_BLE_SDK/GD32VW55x_RELEASE_V1.0.2/MSDK/cloud/alicloud/src/protocol/alcs\alcs_server.c ****             remove_request(req_cur);
 4217              		.loc 1 966 12
 4218 0090 63E67701 		bgtu	s7,a5,.L262
 4219 0094 6398FB00 		bne	s7,a5,.L252
 4220 0098 63763701 		bleu	s3,a4,.L252
 4221              	.L262:
 967:C:/Users/stapi/OneDrive/Desktop/GD32VW553/V1_MQTT_OK/GD32VW55X_Wifi_BLE_SDK/GD32VW55x_RELEASE_V1.0.2/MSDK/cloud/alicloud/src/protocol/alcs\alcs_server.c ****         }
 4222              		.loc 1 967 13 is_stmt 1
 4223 009c 97000000 		call	remove_request
 4223      E7800000 
 4224              	.LVL495:
 4225              	.L252:
 965:C:/Users/stapi/OneDrive/Desktop/GD32VW553/V1_MQTT_OK/GD32VW55X_Wifi_BLE_SDK/GD32VW55x_RELEASE_V1.0.2/MSDK/cloud/alicloud/src/protocol/alcs\alcs_server.c ****         if (req_cur->recTime + default_request_expire < tick) {
 4226              		.loc 1 965 5 discriminator 2
 4227 00a4 83270903 		lw	a5,48(s2)
 4228              	.LVL496:
 4229 00a8 4A85     		mv	a0,s2
 4230 00aa 138947FD 		addi	s2,a5,-44
 4231              	.LVL497:
 4232 00ae 45BF     		j	.L251
 4233              	.L256:
 976:C:/Users/stapi/OneDrive/Desktop/GD32VW553/V1_MQTT_OK/GD32VW55X_Wifi_BLE_SDK/GD32VW55x_RELEASE_V1.0.2/MSDK/cloud/alicloud/src/protocol/alcs\alcs_server.c ****     list_for_each_entry_safe(node, next, head, lst, session_item) {
 4234              		.loc 1 976 5
 4235              	.LVL498:
 977:C:/Users/stapi/OneDrive/Desktop/GD32VW553/V1_MQTT_OK/GD32VW55X_Wifi_BLE_SDK/GD32VW55x_RELEASE_V1.0.2/MSDK/cloud/alicloud/src/protocol/alcs\alcs_server.c ****         if (node->sessionId && node->heart_time + default_heart_expire < tick) {
 4236              		.loc 1 977 5
 4237 00b0 03A94700 		lw	s2,4(a5)
 4238              	.LVL499:
 978:C:/Users/stapi/OneDrive/Desktop/GD32VW553/V1_MQTT_OK/GD32VW55X_Wifi_BLE_SDK/GD32VW55x_RELEASE_V1.0.2/MSDK/cloud/alicloud/src/protocol/alcs\alcs_server.c ****             if (node->heart_time > 0 && node->heart_time < tick &&
 4239              		.loc 1 978 49 is_stmt 0
 4240 00b4 F56A     		li	s5,118784
 977:C:/Users/stapi/OneDrive/Desktop/GD32VW553/V1_MQTT_OK/GD32VW55X_Wifi_BLE_SDK/GD32VW55x_RELEASE_V1.0.2/MSDK/cloud/alicloud/src/protocol/alcs\alcs_server.c ****         if (node->sessionId && node->heart_time + default_heart_expire < tick) {
 4241              		.loc 1 977 5
 4242 00b6 938547F4 		addi	a1,a5,-188
 4243              	.LVL500:
 4244 00ba 130949F4 		addi	s2,s2,-188
 4245              	.LVL501:
 978:C:/Users/stapi/OneDrive/Desktop/GD32VW553/V1_MQTT_OK/GD32VW55X_Wifi_BLE_SDK/GD32VW55x_RELEASE_V1.0.2/MSDK/cloud/alicloud/src/protocol/alcs\alcs_server.c ****             if (node->heart_time > 0 && node->heart_time < tick &&
 4246              		.loc 1 978 49
 4247 00be 938A0A4C 		addi	s5,s5,1216
 985:C:/Users/stapi/OneDrive/Desktop/GD32VW553/V1_MQTT_OK/GD32VW55X_Wifi_BLE_SDK/GD32VW55x_RELEASE_V1.0.2/MSDK/cloud/alicloud/src/protocol/alcs\alcs_server.c ****             remove_session(ctx, node);
 4248              		.loc 1 985 13
 4249 00c2 370C0000 		lui	s8,%hi(.LC0)
 4250 00c6 370B0000 		lui	s6,%hi(.LC53)
 4251 00ca B70B0000 		lui	s7,%hi(.LC2)
 4252              	.LVL502:
 4253              	.L258:
 977:C:/Users/stapi/OneDrive/Desktop/GD32VW553/V1_MQTT_OK/GD32VW55X_Wifi_BLE_SDK/GD32VW55x_RELEASE_V1.0.2/MSDK/cloud/alicloud/src/protocol/alcs\alcs_server.c ****         if (node->sessionId && node->heart_time + default_heart_expire < tick) {
 4254              		.loc 1 977 5 is_stmt 1 discriminator 1
 4255 00ce 9387C50B 		addi	a5,a1,188
 4256 00d2 E38EF4F8 		beq	s1,a5,.L270
 978:C:/Users/stapi/OneDrive/Desktop/GD32VW553/V1_MQTT_OK/GD32VW55X_Wifi_BLE_SDK/GD32VW55x_RELEASE_V1.0.2/MSDK/cloud/alicloud/src/protocol/alcs\alcs_server.c ****             if (node->heart_time > 0 && node->heart_time < tick &&
 4257              		.loc 1 978 9
 978:C:/Users/stapi/OneDrive/Desktop/GD32VW553/V1_MQTT_OK/GD32VW55X_Wifi_BLE_SDK/GD32VW55x_RELEASE_V1.0.2/MSDK/cloud/alicloud/src/protocol/alcs\alcs_server.c ****             if (node->heart_time > 0 && node->heart_time < tick &&
 4258              		.loc 1 978 12 is_stmt 0
 4259 00d6 9C41     		lw	a5,0(a1)
 4260 00d8 95CF     		beq	a5,zero,.L259
 978:C:/Users/stapi/OneDrive/Desktop/GD32VW553/V1_MQTT_OK/GD32VW55X_Wifi_BLE_SDK/GD32VW55x_RELEASE_V1.0.2/MSDK/cloud/alicloud/src/protocol/alcs\alcs_server.c ****             if (node->heart_time > 0 && node->heart_time < tick &&
 4261              		.loc 1 978 49 discriminator 1
 4262 00da FC45     		lw	a5,76(a1)
 4263 00dc 2EC6     		sw	a1,12(sp)
 4264 00de D697     		add	a5,a5,s5
 978:C:/Users/stapi/OneDrive/Desktop/GD32VW553/V1_MQTT_OK/GD32VW55X_Wifi_BLE_SDK/GD32VW55x_RELEASE_V1.0.2/MSDK/cloud/alicloud/src/protocol/alcs\alcs_server.c ****             if (node->heart_time > 0 && node->heart_time < tick &&
 4265              		.loc 1 978 29 discriminator 1
 4266 00e0 63DA3703 		bge	a5,s3,.L259
 979:C:/Users/stapi/OneDrive/Desktop/GD32VW553/V1_MQTT_OK/GD32VW55X_Wifi_BLE_SDK/GD32VW55x_RELEASE_V1.0.2/MSDK/cloud/alicloud/src/protocol/alcs\alcs_server.c ****                 node->heart_time + default_heart_expire < 0) {
 4267              		.loc 1 979 13 is_stmt 1
 985:C:/Users/stapi/OneDrive/Desktop/GD32VW553/V1_MQTT_OK/GD32VW55X_Wifi_BLE_SDK/GD32VW55x_RELEASE_V1.0.2/MSDK/cloud/alicloud/src/protocol/alcs\alcs_server.c ****             remove_session(ctx, node);
 4268              		.loc 1 985 13
 985:C:/Users/stapi/OneDrive/Desktop/GD32VW553/V1_MQTT_OK/GD32VW55X_Wifi_BLE_SDK/GD32VW55x_RELEASE_V1.0.2/MSDK/cloud/alicloud/src/protocol/alcs\alcs_server.c ****             remove_session(ctx, node);
 4269              		.loc 1 985 13
 4270 00e4 13050C00 		addi	a0,s8,%lo(.LC0)
 4271 00e8 97000000 		call	HAL_Printf
 4271      E7800000 
 4272              	.LVL503:
 985:C:/Users/stapi/OneDrive/Desktop/GD32VW553/V1_MQTT_OK/GD32VW55X_Wifi_BLE_SDK/GD32VW55x_RELEASE_V1.0.2/MSDK/cloud/alicloud/src/protocol/alcs\alcs_server.c ****             remove_session(ctx, node);
 4273              		.loc 1 985 13
 4274 00f0 13050B00 		addi	a0,s6,%lo(.LC53)
 4275 00f4 97000000 		call	HAL_Printf
 4275      E7800000 
 4276              	.LVL504:
 985:C:/Users/stapi/OneDrive/Desktop/GD32VW553/V1_MQTT_OK/GD32VW55X_Wifi_BLE_SDK/GD32VW55x_RELEASE_V1.0.2/MSDK/cloud/alicloud/src/protocol/alcs\alcs_server.c ****             remove_session(ctx, node);
 4277              		.loc 1 985 13
 4278 00fc 13850B00 		addi	a0,s7,%lo(.LC2)
 4279 0100 97000000 		call	HAL_Printf
 4279      E7800000 
 4280              	.LVL505:
 985:C:/Users/stapi/OneDrive/Desktop/GD32VW553/V1_MQTT_OK/GD32VW55X_Wifi_BLE_SDK/GD32VW55x_RELEASE_V1.0.2/MSDK/cloud/alicloud/src/protocol/alcs\alcs_server.c ****             remove_session(ctx, node);
 4281              		.loc 1 985 13
 986:C:/Users/stapi/OneDrive/Desktop/GD32VW553/V1_MQTT_OK/GD32VW55X_Wifi_BLE_SDK/GD32VW55x_RELEASE_V1.0.2/MSDK/cloud/alicloud/src/protocol/alcs\alcs_server.c ****         }
 4282              		.loc 1 986 13
 4283 0108 B245     		lw	a1,12(sp)
 4284 010a 5285     		mv	a0,s4
 4285 010c 97000000 		call	remove_session
 4285      E7800000 
 4286              	.LVL506:
 4287              	.L259:
 977:C:/Users/stapi/OneDrive/Desktop/GD32VW553/V1_MQTT_OK/GD32VW55X_Wifi_BLE_SDK/GD32VW55x_RELEASE_V1.0.2/MSDK/cloud/alicloud/src/protocol/alcs\alcs_server.c ****         if (node->sessionId && node->heart_time + default_heart_expire < tick) {
 4288              		.loc 1 977 5 discriminator 2
 4289 0114 8327090C 		lw	a5,192(s2)
 4290              	.LVL507:
 4291 0118 CA85     		mv	a1,s2
 4292 011a 138947F4 		addi	s2,a5,-188
 4293              	.LVL508:
 4294 011e 45BF     		j	.L258
 4295              		.cfi_endproc
 4296              	.LFE38:
 4298              		.section	.rodata.__FUNCTION__.0,"a"
 4299              		.align	2
 4300              		.set	.LANCHOR4,. + 0
 4303              	__FUNCTION__.0:
 4304 0000 6F627365 		.string	"observe_data_encrypt"
 4304      7276655F 
 4304      64617461 
 4304      5F656E63 
 4304      72797074 
 4305              		.section	.rodata.__FUNCTION__.1,"a"
 4306              		.align	2
 4307              		.set	.LANCHOR3,. + 0
 4310              	__FUNCTION__.1:
 4311 0000 616C6373 		.string	"alcs_rec_heart_beat"
 4311      5F726563 
 4311      5F686561 
 4311      72745F62 
 4311      65617400 
 4312              		.section	.rodata.__FUNCTION__.2,"a"
 4313              		.align	2
 4314              		.set	.LANCHOR2,. + 0
 4317              	__FUNCTION__.2:
 4318 0000 7032705F 		.string	"p2p_msg_handler"
 4318      6D73675F 
 4318      68616E64 
 4318      6C657200 
 4319              		.section	.rodata.__FUNCTION__.3,"a"
 4320              		.align	2
 4321              		.set	.LANCHOR1,. + 0
 4324              	__FUNCTION__.3:
 4325 0000 616C6373 		.string	"alcs_rec_auth"
 4325      5F726563 
 4325      5F617574 
 4325      6800
 4326              		.section	.rodata.__FUNCTION__.4,"a"
 4327              		.align	2
 4328              		.set	.LANCHOR0,. + 0
 4331              	__FUNCTION__.4:
 4332 0000 69735F6C 		.string	"is_legal_key"
 4332      6567616C 
 4332      5F6B6579 
 4332      00
 4333              		.text
 4334              	.Letext0:
 4335              		.file 3 "c:\\users\\stapi\\onedrive\\desktop\\gd32vw553\\embeddedbuilder_v1.4.7.26843\\tools\\nucl
 4336              		.file 4 "c:\\users\\stapi\\onedrive\\desktop\\gd32vw553\\embeddedbuilder_v1.4.7.26843\\tools\\nucl
 4337              		.file 5 "c:\\users\\stapi\\onedrive\\desktop\\gd32vw553\\embeddedbuilder_v1.4.7.26843\\tools\\nucl
 4338              		.file 6 "..\\..\\..\\..\\cloud\\alicloud\\include/iot_import.h"
 4339              		.file 7 "..\\..\\..\\..\\cloud\\alicloud\\src\\protocol\\coap\\local/CoAPExport.h"
 4340              		.file 8 "..\\..\\..\\..\\cloud\\alicloud\\src\\protocol\\coap\\local/CoAPMessage.h"
 4341              		.file 9 "C:/Users/stapi/OneDrive/Desktop/GD32VW553/V1_MQTT_OK/GD32VW55X_Wifi_BLE_SDK/GD32VW55x_REL
 4342              		.file 10 "C:/Users/stapi/OneDrive/Desktop/GD32VW553/V1_MQTT_OK/GD32VW55X_Wifi_BLE_SDK/GD32VW55x_RE
 4343              		.file 11 "..\\..\\..\\..\\cloud\\alicloud\\src\\infra\\log/iotx_log.h"
 4344              		.file 12 "..\\..\\..\\..\\cloud\\alicloud\\src\\infra\\utils/iotx_utils.h"
 4345              		.file 13 "C:/Users/stapi/OneDrive/Desktop/GD32VW553/V1_MQTT_OK/GD32VW55X_Wifi_BLE_SDK/GD32VW55x_RE
 4346              		.file 14 "c:\\users\\stapi\\onedrive\\desktop\\gd32vw553\\embeddedbuilder_v1.4.7.26843\\tools\\nuc
 4347              		.file 15 "c:\\users\\stapi\\onedrive\\desktop\\gd32vw553\\embeddedbuilder_v1.4.7.26843\\tools\\nuc
 4348              		.file 16 "<built-in>"
 4349              		.file 17 "..\\..\\..\\..\\cloud\\alicloud\\src\\protocol\\coap\\local/CoAPResource.h"
 4350              		.file 18 "..\\..\\..\\..\\cloud\\alicloud\\src\\infra\\utils\\digest/utils_md5.h"
 4351              		.file 19 "c:\\users\\stapi\\onedrive\\desktop\\gd32vw553\\embeddedbuilder_v1.4.7.26843\\tools\\nuc
 4352              		.file 20 "..\\..\\..\\..\\cloud\\alicloud\\src\\infra\\utils\\misc/json_parser.h"
 4353              		.file 21 "..\\..\\..\\..\\cloud\\alicloud\\src\\infra\\utils\\digest/utils_hmac.h"
DEFINED SYMBOLS
                            *ABS*:0000000000000000 alcs_server.c
C:\Users\stapi\AppData\Local\Temp\ccgBjMFA.s:22     .text.get_resource_by_path:0000000000000000 get_resource_by_path
C:\Users\stapi\AppData\Local\Temp\ccgBjMFA.s:26     .text.get_resource_by_path:0000000000000000 .L0 
C:\Users\stapi\AppData\Local\Temp\ccgBjMFA.s:28     .text.get_resource_by_path:0000000000000000 .L0 
C:\Users\stapi\AppData\Local\Temp\ccgBjMFA.s:29     .text.get_resource_by_path:0000000000000008 .L0 
C:\Users\stapi\AppData\Local\Temp\ccgBjMFA.s:30     .text.get_resource_by_path:0000000000000008 .L0 
C:\Users\stapi\AppData\Local\Temp\ccgBjMFA.s:31     .text.get_resource_by_path:0000000000000008 .L0 
C:\Users\stapi\AppData\Local\Temp\ccgBjMFA.s:32     .text.get_resource_by_path:0000000000000008 .L0 
C:\Users\stapi\AppData\Local\Temp\ccgBjMFA.s:33     .text.get_resource_by_path:0000000000000008 .L0 
C:\Users\stapi\AppData\Local\Temp\ccgBjMFA.s:34     .text.get_resource_by_path:0000000000000008 .L0 
C:\Users\stapi\AppData\Local\Temp\ccgBjMFA.s:36     .text.get_resource_by_path:0000000000000008 .L0 
C:\Users\stapi\AppData\Local\Temp\ccgBjMFA.s:37     .text.get_resource_by_path:0000000000000008 .L0 
C:\Users\stapi\AppData\Local\Temp\ccgBjMFA.s:38     .text.get_resource_by_path:0000000000000008 .L0 
C:\Users\stapi\AppData\Local\Temp\ccgBjMFA.s:39     .text.get_resource_by_path:000000000000000a .L0 
C:\Users\stapi\AppData\Local\Temp\ccgBjMFA.s:41     .text.get_resource_by_path:000000000000000a .L0 
C:\Users\stapi\AppData\Local\Temp\ccgBjMFA.s:43     .text.get_resource_by_path:000000000000000c .L0 
C:\Users\stapi\AppData\Local\Temp\ccgBjMFA.s:46     .text.get_resource_by_path:0000000000000012 .L0 
C:\Users\stapi\AppData\Local\Temp\ccgBjMFA.s:47     .text.get_resource_by_path:0000000000000012 .L0 
C:\Users\stapi\AppData\Local\Temp\ccgBjMFA.s:51     .text.get_resource_by_path:000000000000001c .L0 
C:\Users\stapi\AppData\Local\Temp\ccgBjMFA.s:57     .text.get_resource_by_path:000000000000002a .L0 
C:\Users\stapi\AppData\Local\Temp\ccgBjMFA.s:68     .text.get_resource_by_path:0000000000000042 .L0 
C:\Users\stapi\AppData\Local\Temp\ccgBjMFA.s:71     .text.get_resource_by_path:000000000000004a .L0 
C:\Users\stapi\AppData\Local\Temp\ccgBjMFA.s:72     .text.get_resource_by_path:000000000000004a .L0 
C:\Users\stapi\AppData\Local\Temp\ccgBjMFA.s:77     .text.get_resource_by_path:000000000000005a .L0 
C:\Users\stapi\AppData\Local\Temp\ccgBjMFA.s:83     .text.get_resource_by_path:000000000000006c .L0 
C:\Users\stapi\AppData\Local\Temp\ccgBjMFA.s:88     .text.get_resource_by_path:000000000000007c .L0 
C:\Users\stapi\AppData\Local\Temp\ccgBjMFA.s:89     .text.get_resource_by_path:000000000000007c .L0 
C:\Users\stapi\AppData\Local\Temp\ccgBjMFA.s:90     .text.get_resource_by_path:000000000000007c .L0 
C:\Users\stapi\AppData\Local\Temp\ccgBjMFA.s:94     .text.get_resource_by_path:000000000000007e .L0 
C:\Users\stapi\AppData\Local\Temp\ccgBjMFA.s:96     .text.get_resource_by_path:0000000000000082 .L0 
C:\Users\stapi\AppData\Local\Temp\ccgBjMFA.s:97     .text.get_resource_by_path:0000000000000082 .L0 
C:\Users\stapi\AppData\Local\Temp\ccgBjMFA.s:99     .text.get_resource_by_path:000000000000008a .L0 
C:\Users\stapi\AppData\Local\Temp\ccgBjMFA.s:100    .text.get_resource_by_path:000000000000008a .L0 
C:\Users\stapi\AppData\Local\Temp\ccgBjMFA.s:101    .text.get_resource_by_path:000000000000008a .L0 
C:\Users\stapi\AppData\Local\Temp\ccgBjMFA.s:102    .text.get_resource_by_path:000000000000008a .L0 
C:\Users\stapi\AppData\Local\Temp\ccgBjMFA.s:103    .text.get_resource_by_path:000000000000008a .L0 
C:\Users\stapi\AppData\Local\Temp\ccgBjMFA.s:104    .text.get_resource_by_path:000000000000008a .L0 
C:\Users\stapi\AppData\Local\Temp\ccgBjMFA.s:107    .text.get_resource_by_path:000000000000008a .L0 
C:\Users\stapi\AppData\Local\Temp\ccgBjMFA.s:109    .text.get_resource_by_path:000000000000008a .L0 
C:\Users\stapi\AppData\Local\Temp\ccgBjMFA.s:110    .text.get_resource_by_path:000000000000008a .L0 
C:\Users\stapi\AppData\Local\Temp\ccgBjMFA.s:113    .text.get_resource_by_path:000000000000008e .L0 
C:\Users\stapi\AppData\Local\Temp\ccgBjMFA.s:114    .text.get_resource_by_path:000000000000008e .L0 
C:\Users\stapi\AppData\Local\Temp\ccgBjMFA.s:121    .text.get_resource_by_path:000000000000009c .L0 
C:\Users\stapi\AppData\Local\Temp\ccgBjMFA.s:125    .text.get_resource_by_path:000000000000009e .L0 
C:\Users\stapi\AppData\Local\Temp\ccgBjMFA.s:133    .text.get_resource_by_path:00000000000000aa .L0 
C:\Users\stapi\AppData\Local\Temp\ccgBjMFA.s:134    .text.get_resource_by_path:00000000000000aa .L0 
C:\Users\stapi\AppData\Local\Temp\ccgBjMFA.s:136    .text.get_resource_by_path:00000000000000ac .L0 
C:\Users\stapi\AppData\Local\Temp\ccgBjMFA.s:139    .text.get_resource_by_path:00000000000000b2 .L0 
C:\Users\stapi\AppData\Local\Temp\ccgBjMFA.s:140    .text.get_resource_by_path:00000000000000b2 .L0 
C:\Users\stapi\AppData\Local\Temp\ccgBjMFA.s:144    .text.get_resource_by_path:00000000000000be .L0 
C:\Users\stapi\AppData\Local\Temp\ccgBjMFA.s:176    .text.is_legal_key:0000000000000000 is_legal_key
C:\Users\stapi\AppData\Local\Temp\ccgBjMFA.s:179    .text.is_legal_key:0000000000000000 .L0 
C:\Users\stapi\AppData\Local\Temp\ccgBjMFA.s:181    .text.is_legal_key:0000000000000000 .L0 
C:\Users\stapi\AppData\Local\Temp\ccgBjMFA.s:182    .text.is_legal_key:0000000000000008 .L0 
C:\Users\stapi\AppData\Local\Temp\ccgBjMFA.s:183    .text.is_legal_key:0000000000000008 .L0 
C:\Users\stapi\AppData\Local\Temp\ccgBjMFA.s:184    .text.is_legal_key:0000000000000008 .L0 
C:\Users\stapi\AppData\Local\Temp\ccgBjMFA.s:185    .text.is_legal_key:0000000000000008 .L0 
C:\Users\stapi\AppData\Local\Temp\ccgBjMFA.s:186    .text.is_legal_key:0000000000000008 .L0 
C:\Users\stapi\AppData\Local\Temp\ccgBjMFA.s:187    .text.is_legal_key:0000000000000008 .L0 
C:\Users\stapi\AppData\Local\Temp\ccgBjMFA.s:188    .text.is_legal_key:0000000000000008 .L0 
C:\Users\stapi\AppData\Local\Temp\ccgBjMFA.s:189    .text.is_legal_key:0000000000000008 .L0 
C:\Users\stapi\AppData\Local\Temp\ccgBjMFA.s:190    .text.is_legal_key:0000000000000008 .L0 
C:\Users\stapi\AppData\Local\Temp\ccgBjMFA.s:191    .text.is_legal_key:0000000000000008 .L0 
C:\Users\stapi\AppData\Local\Temp\ccgBjMFA.s:192    .text.is_legal_key:0000000000000008 .L0 
C:\Users\stapi\AppData\Local\Temp\ccgBjMFA.s:193    .text.is_legal_key:0000000000000008 .L0 
C:\Users\stapi\AppData\Local\Temp\ccgBjMFA.s:194    .text.is_legal_key:0000000000000008 .L0 
C:\Users\stapi\AppData\Local\Temp\ccgBjMFA.s:195    .text.is_legal_key:0000000000000008 .L0 
C:\Users\stapi\AppData\Local\Temp\ccgBjMFA.s:197    .text.is_legal_key:0000000000000008 .L0 
C:\Users\stapi\AppData\Local\Temp\ccgBjMFA.s:198    .text.is_legal_key:0000000000000008 .L0 
C:\Users\stapi\AppData\Local\Temp\ccgBjMFA.s:200    .text.is_legal_key:000000000000000c .L0 
C:\Users\stapi\AppData\Local\Temp\ccgBjMFA.s:201    .text.is_legal_key:000000000000000e .L0 
C:\Users\stapi\AppData\Local\Temp\ccgBjMFA.s:203    .text.is_legal_key:000000000000000e .L0 
C:\Users\stapi\AppData\Local\Temp\ccgBjMFA.s:206    .text.is_legal_key:0000000000000012 .L0 
C:\Users\stapi\AppData\Local\Temp\ccgBjMFA.s:212    .text.is_legal_key:000000000000001c .L0 
C:\Users\stapi\AppData\Local\Temp\ccgBjMFA.s:215    .text.is_legal_key:0000000000000024 .L0 
C:\Users\stapi\AppData\Local\Temp\ccgBjMFA.s:224    .text.is_legal_key:000000000000003c .L0 
C:\Users\stapi\AppData\Local\Temp\ccgBjMFA.s:229    .text.is_legal_key:000000000000004c .L0 
C:\Users\stapi\AppData\Local\Temp\ccgBjMFA.s:230    .text.is_legal_key:000000000000004c .L0 
C:\Users\stapi\AppData\Local\Temp\ccgBjMFA.s:231    .text.is_legal_key:000000000000004c .L0 
C:\Users\stapi\AppData\Local\Temp\ccgBjMFA.s:232    .text.is_legal_key:000000000000004c .L0 
C:\Users\stapi\AppData\Local\Temp\ccgBjMFA.s:241    .text.is_legal_key:0000000000000068 .L0 
C:\Users\stapi\AppData\Local\Temp\ccgBjMFA.s:244    .text.is_legal_key:0000000000000070 .L0 
C:\Users\stapi\AppData\Local\Temp\ccgBjMFA.s:247    .text.is_legal_key:0000000000000078 .L0 
C:\Users\stapi\AppData\Local\Temp\ccgBjMFA.s:252    .text.is_legal_key:0000000000000086 .L0 
C:\Users\stapi\AppData\Local\Temp\ccgBjMFA.s:253    .text.is_legal_key:0000000000000086 .L0 
C:\Users\stapi\AppData\Local\Temp\ccgBjMFA.s:255    .text.is_legal_key:000000000000008a .L0 
C:\Users\stapi\AppData\Local\Temp\ccgBjMFA.s:258    .text.is_legal_key:000000000000008e .L0 
C:\Users\stapi\AppData\Local\Temp\ccgBjMFA.s:259    .text.is_legal_key:000000000000008e .L0 
C:\Users\stapi\AppData\Local\Temp\ccgBjMFA.s:265    .text.is_legal_key:000000000000009a .L0 
C:\Users\stapi\AppData\Local\Temp\ccgBjMFA.s:266    .text.is_legal_key:000000000000009a .L0 
C:\Users\stapi\AppData\Local\Temp\ccgBjMFA.s:267    .text.is_legal_key:000000000000009a .L0 
C:\Users\stapi\AppData\Local\Temp\ccgBjMFA.s:271    .text.is_legal_key:000000000000009c .L0 
C:\Users\stapi\AppData\Local\Temp\ccgBjMFA.s:272    .text.is_legal_key:000000000000009c .L0 
C:\Users\stapi\AppData\Local\Temp\ccgBjMFA.s:280    .text.is_legal_key:00000000000000a0 .L0 
C:\Users\stapi\AppData\Local\Temp\ccgBjMFA.s:281    .text.is_legal_key:00000000000000a0 .L0 
C:\Users\stapi\AppData\Local\Temp\ccgBjMFA.s:282    .text.is_legal_key:00000000000000a0 .L0 
C:\Users\stapi\AppData\Local\Temp\ccgBjMFA.s:287    .text.is_legal_key:00000000000000a2 .L0 
C:\Users\stapi\AppData\Local\Temp\ccgBjMFA.s:292    .text.is_legal_key:00000000000000ae .L0 
C:\Users\stapi\AppData\Local\Temp\ccgBjMFA.s:293    .text.is_legal_key:00000000000000ae .L0 
C:\Users\stapi\AppData\Local\Temp\ccgBjMFA.s:297    .text.is_legal_key:00000000000000ba .L0 
C:\Users\stapi\AppData\Local\Temp\ccgBjMFA.s:303    .text.is_legal_key:00000000000000ce .L0 
C:\Users\stapi\AppData\Local\Temp\ccgBjMFA.s:307    .text.is_legal_key:00000000000000da .L0 
C:\Users\stapi\AppData\Local\Temp\ccgBjMFA.s:308    .text.is_legal_key:00000000000000da .L0 
C:\Users\stapi\AppData\Local\Temp\ccgBjMFA.s:309    .text.is_legal_key:00000000000000da .L0 
C:\Users\stapi\AppData\Local\Temp\ccgBjMFA.s:313    .text.is_legal_key:00000000000000de .L0 
C:\Users\stapi\AppData\Local\Temp\ccgBjMFA.s:316    .text.is_legal_key:00000000000000e0 .L0 
C:\Users\stapi\AppData\Local\Temp\ccgBjMFA.s:319    .text.is_legal_key:00000000000000e4 .L0 
C:\Users\stapi\AppData\Local\Temp\ccgBjMFA.s:326    .text.is_legal_key:00000000000000ee .L0 
C:\Users\stapi\AppData\Local\Temp\ccgBjMFA.s:331    .text.is_legal_key:00000000000000f8 .L0 
C:\Users\stapi\AppData\Local\Temp\ccgBjMFA.s:332    .text.is_legal_key:00000000000000f8 .L0 
C:\Users\stapi\AppData\Local\Temp\ccgBjMFA.s:335    .text.is_legal_key:0000000000000100 .L0 
C:\Users\stapi\AppData\Local\Temp\ccgBjMFA.s:339    .text.is_legal_key:0000000000000104 .L0 
C:\Users\stapi\AppData\Local\Temp\ccgBjMFA.s:343    .text.is_legal_key:000000000000010e .L0 
C:\Users\stapi\AppData\Local\Temp\ccgBjMFA.s:344    .text.is_legal_key:000000000000010e .L0 
C:\Users\stapi\AppData\Local\Temp\ccgBjMFA.s:347    .text.is_legal_key:0000000000000116 .L0 
C:\Users\stapi\AppData\Local\Temp\ccgBjMFA.s:348    .text.is_legal_key:0000000000000116 .L0 
C:\Users\stapi\AppData\Local\Temp\ccgBjMFA.s:352    .text.is_legal_key:0000000000000122 .L0 
C:\Users\stapi\AppData\Local\Temp\ccgBjMFA.s:357    .text.is_legal_key:0000000000000132 .L0 
C:\Users\stapi\AppData\Local\Temp\ccgBjMFA.s:361    .text.is_legal_key:000000000000013e .L0 
C:\Users\stapi\AppData\Local\Temp\ccgBjMFA.s:364    .text.is_legal_key:000000000000013e .L0 
C:\Users\stapi\AppData\Local\Temp\ccgBjMFA.s:365    .text.is_legal_key:000000000000013e .L0 
C:\Users\stapi\AppData\Local\Temp\ccgBjMFA.s:366    .text.is_legal_key:000000000000013e .L0 
C:\Users\stapi\AppData\Local\Temp\ccgBjMFA.s:372    .text.is_legal_key:0000000000000142 .L0 
C:\Users\stapi\AppData\Local\Temp\ccgBjMFA.s:373    .text.is_legal_key:0000000000000142 .L0 
C:\Users\stapi\AppData\Local\Temp\ccgBjMFA.s:381    .text.is_legal_key:0000000000000146 .L0 
C:\Users\stapi\AppData\Local\Temp\ccgBjMFA.s:382    .text.is_legal_key:0000000000000146 .L0 
C:\Users\stapi\AppData\Local\Temp\ccgBjMFA.s:387    .text.is_legal_key:000000000000014e .L0 
C:\Users\stapi\AppData\Local\Temp\ccgBjMFA.s:389    .text.is_legal_key:0000000000000152 .L0 
C:\Users\stapi\AppData\Local\Temp\ccgBjMFA.s:393    .text.is_legal_key:0000000000000154 .L0 
C:\Users\stapi\AppData\Local\Temp\ccgBjMFA.s:396    .text.is_legal_key:000000000000015c .L0 
C:\Users\stapi\AppData\Local\Temp\ccgBjMFA.s:397    .text.is_legal_key:000000000000015c .L0 
C:\Users\stapi\AppData\Local\Temp\ccgBjMFA.s:401    .text.is_legal_key:0000000000000168 .L0 
C:\Users\stapi\AppData\Local\Temp\ccgBjMFA.s:407    .text.is_legal_key:000000000000017c .L0 
C:\Users\stapi\AppData\Local\Temp\ccgBjMFA.s:411    .text.is_legal_key:0000000000000188 .L0 
C:\Users\stapi\AppData\Local\Temp\ccgBjMFA.s:412    .text.is_legal_key:0000000000000188 .L0 
C:\Users\stapi\AppData\Local\Temp\ccgBjMFA.s:413    .text.is_legal_key:0000000000000188 .L0 
C:\Users\stapi\AppData\Local\Temp\ccgBjMFA.s:417    .text.is_legal_key:000000000000018e .L0 
C:\Users\stapi\AppData\Local\Temp\ccgBjMFA.s:426    .text.is_legal_key:00000000000001aa .L0 
C:\Users\stapi\AppData\Local\Temp\ccgBjMFA.s:427    .text.is_legal_key:00000000000001aa .L0 
C:\Users\stapi\AppData\Local\Temp\ccgBjMFA.s:431    .text.is_legal_key:00000000000001b4 .L0 
C:\Users\stapi\AppData\Local\Temp\ccgBjMFA.s:433    .text.is_legal_key:00000000000001b8 .L0 
C:\Users\stapi\AppData\Local\Temp\ccgBjMFA.s:439    .text.is_legal_key:00000000000001c6 .L0 
C:\Users\stapi\AppData\Local\Temp\ccgBjMFA.s:441    .text.is_legal_key:00000000000001c8 .L0 
C:\Users\stapi\AppData\Local\Temp\ccgBjMFA.s:442    .text.is_legal_key:00000000000001c8 .L0 
C:\Users\stapi\AppData\Local\Temp\ccgBjMFA.s:444    .text.is_legal_key:00000000000001ca .L0 
C:\Users\stapi\AppData\Local\Temp\ccgBjMFA.s:447    .text.is_legal_key:00000000000001d2 .L0 
C:\Users\stapi\AppData\Local\Temp\ccgBjMFA.s:452    .text.is_legal_key:00000000000001da .L0 
C:\Users\stapi\AppData\Local\Temp\ccgBjMFA.s:453    .text.is_legal_key:00000000000001da .L0 
C:\Users\stapi\AppData\Local\Temp\ccgBjMFA.s:455    .text.is_legal_key:00000000000001de .L0 
C:\Users\stapi\AppData\Local\Temp\ccgBjMFA.s:456    .text.is_legal_key:00000000000001de .L0 
C:\Users\stapi\AppData\Local\Temp\ccgBjMFA.s:458    .text.is_legal_key:00000000000001e6 .L0 
C:\Users\stapi\AppData\Local\Temp\ccgBjMFA.s:459    .text.is_legal_key:00000000000001e6 .L0 
C:\Users\stapi\AppData\Local\Temp\ccgBjMFA.s:460    .text.is_legal_key:00000000000001e6 .L0 
C:\Users\stapi\AppData\Local\Temp\ccgBjMFA.s:461    .text.is_legal_key:00000000000001e6 .L0 
C:\Users\stapi\AppData\Local\Temp\ccgBjMFA.s:462    .text.is_legal_key:00000000000001e6 .L0 
C:\Users\stapi\AppData\Local\Temp\ccgBjMFA.s:463    .text.is_legal_key:00000000000001e6 .L0 
C:\Users\stapi\AppData\Local\Temp\ccgBjMFA.s:464    .text.is_legal_key:00000000000001e6 .L0 
C:\Users\stapi\AppData\Local\Temp\ccgBjMFA.s:465    .text.is_legal_key:00000000000001e6 .L0 
C:\Users\stapi\AppData\Local\Temp\ccgBjMFA.s:466    .text.is_legal_key:00000000000001e6 .L0 
C:\Users\stapi\AppData\Local\Temp\ccgBjMFA.s:467    .text.is_legal_key:00000000000001e6 .L0 
C:\Users\stapi\AppData\Local\Temp\ccgBjMFA.s:468    .text.is_legal_key:00000000000001e6 .L0 
C:\Users\stapi\AppData\Local\Temp\ccgBjMFA.s:469    .text.is_legal_key:00000000000001e6 .L0 
C:\Users\stapi\AppData\Local\Temp\ccgBjMFA.s:470    .text.is_legal_key:00000000000001e6 .L0 
C:\Users\stapi\AppData\Local\Temp\ccgBjMFA.s:471    .text.is_legal_key:00000000000001e6 .L0 
C:\Users\stapi\AppData\Local\Temp\ccgBjMFA.s:474    .text.is_legal_key:00000000000001e6 .L0 
C:\Users\stapi\AppData\Local\Temp\ccgBjMFA.s:477    .text.is_legal_key:00000000000001e6 .L0 
C:\Users\stapi\AppData\Local\Temp\ccgBjMFA.s:484    .text.is_legal_key:00000000000001f2 .L0 
C:\Users\stapi\AppData\Local\Temp\ccgBjMFA.s:543    .text.alcs_rec_auth:0000000000000000 alcs_rec_auth
C:\Users\stapi\AppData\Local\Temp\ccgBjMFA.s:546    .text.alcs_rec_auth:0000000000000000 .L0 
C:\Users\stapi\AppData\Local\Temp\ccgBjMFA.s:548    .text.alcs_rec_auth:0000000000000000 .L0 
C:\Users\stapi\AppData\Local\Temp\ccgBjMFA.s:549    .text.alcs_rec_auth:0000000000000008 .L0 
C:\Users\stapi\AppData\Local\Temp\ccgBjMFA.s:550    .text.alcs_rec_auth:0000000000000008 .L0 
C:\Users\stapi\AppData\Local\Temp\ccgBjMFA.s:551    .text.alcs_rec_auth:0000000000000008 .L0 
C:\Users\stapi\AppData\Local\Temp\ccgBjMFA.s:552    .text.alcs_rec_auth:0000000000000008 .L0 
C:\Users\stapi\AppData\Local\Temp\ccgBjMFA.s:553    .text.alcs_rec_auth:0000000000000008 .L0 
C:\Users\stapi\AppData\Local\Temp\ccgBjMFA.s:554    .text.alcs_rec_auth:0000000000000008 .L0 
C:\Users\stapi\AppData\Local\Temp\ccgBjMFA.s:555    .text.alcs_rec_auth:0000000000000008 .L0 
C:\Users\stapi\AppData\Local\Temp\ccgBjMFA.s:556    .text.alcs_rec_auth:0000000000000008 .L0 
C:\Users\stapi\AppData\Local\Temp\ccgBjMFA.s:557    .text.alcs_rec_auth:0000000000000008 .L0 
C:\Users\stapi\AppData\Local\Temp\ccgBjMFA.s:558    .text.alcs_rec_auth:0000000000000008 .L0 
C:\Users\stapi\AppData\Local\Temp\ccgBjMFA.s:559    .text.alcs_rec_auth:0000000000000008 .L0 
C:\Users\stapi\AppData\Local\Temp\ccgBjMFA.s:560    .text.alcs_rec_auth:0000000000000008 .L0 
C:\Users\stapi\AppData\Local\Temp\ccgBjMFA.s:561    .text.alcs_rec_auth:0000000000000008 .L0 
C:\Users\stapi\AppData\Local\Temp\ccgBjMFA.s:562    .text.alcs_rec_auth:0000000000000008 .L0 
C:\Users\stapi\AppData\Local\Temp\ccgBjMFA.s:564    .text.alcs_rec_auth:0000000000000008 .L0 
C:\Users\stapi\AppData\Local\Temp\ccgBjMFA.s:565    .text.alcs_rec_auth:0000000000000008 .L0 
C:\Users\stapi\AppData\Local\Temp\ccgBjMFA.s:566    .text.alcs_rec_auth:0000000000000008 .L0 
C:\Users\stapi\AppData\Local\Temp\ccgBjMFA.s:567    .text.alcs_rec_auth:0000000000000008 .L0 
C:\Users\stapi\AppData\Local\Temp\ccgBjMFA.s:568    .text.alcs_rec_auth:000000000000000c .L0 
C:\Users\stapi\AppData\Local\Temp\ccgBjMFA.s:570    .text.alcs_rec_auth:000000000000000c .L0 
C:\Users\stapi\AppData\Local\Temp\ccgBjMFA.s:572    .text.alcs_rec_auth:0000000000000010 .L0 
C:\Users\stapi\AppData\Local\Temp\ccgBjMFA.s:575    .text.alcs_rec_auth:0000000000000012 .L0 
C:\Users\stapi\AppData\Local\Temp\ccgBjMFA.s:578    .text.alcs_rec_auth:0000000000000016 .L0 
C:\Users\stapi\AppData\Local\Temp\ccgBjMFA.s:583    .text.alcs_rec_auth:000000000000001c .L0 
C:\Users\stapi\AppData\Local\Temp\ccgBjMFA.s:585    .text.alcs_rec_auth:000000000000001e .L0 
C:\Users\stapi\AppData\Local\Temp\ccgBjMFA.s:587    .text.alcs_rec_auth:0000000000000020 .L0 
C:\Users\stapi\AppData\Local\Temp\ccgBjMFA.s:588    .text.alcs_rec_auth:0000000000000020 .L0 
C:\Users\stapi\AppData\Local\Temp\ccgBjMFA.s:590    .text.alcs_rec_auth:0000000000000024 .L0 
C:\Users\stapi\AppData\Local\Temp\ccgBjMFA.s:592    .text.alcs_rec_auth:0000000000000028 .L0 
C:\Users\stapi\AppData\Local\Temp\ccgBjMFA.s:595    .text.alcs_rec_auth:0000000000000030 .L0 
C:\Users\stapi\AppData\Local\Temp\ccgBjMFA.s:596    .text.alcs_rec_auth:0000000000000030 .L0 
C:\Users\stapi\AppData\Local\Temp\ccgBjMFA.s:600    .text.alcs_rec_auth:000000000000003c .L0 
C:\Users\stapi\AppData\Local\Temp\ccgBjMFA.s:608    .text.alcs_rec_auth:0000000000000056 .L0 
C:\Users\stapi\AppData\Local\Temp\ccgBjMFA.s:613    .text.alcs_rec_auth:0000000000000066 .L0 
C:\Users\stapi\AppData\Local\Temp\ccgBjMFA.s:615    .text.alcs_rec_auth:0000000000000066 .L0 
C:\Users\stapi\AppData\Local\Temp\ccgBjMFA.s:616    .text.alcs_rec_auth:0000000000000066 .L0 
C:\Users\stapi\AppData\Local\Temp\ccgBjMFA.s:617    .text.alcs_rec_auth:0000000000000066 .L0 
C:\Users\stapi\AppData\Local\Temp\ccgBjMFA.s:627    .text.alcs_rec_auth:0000000000000080 .L0 
C:\Users\stapi\AppData\Local\Temp\ccgBjMFA.s:629    .text.alcs_rec_auth:0000000000000082 .L0 
C:\Users\stapi\AppData\Local\Temp\ccgBjMFA.s:630    .text.alcs_rec_auth:0000000000000082 .L0 
C:\Users\stapi\AppData\Local\Temp\ccgBjMFA.s:631    .text.alcs_rec_auth:0000000000000082 .L0 
C:\Users\stapi\AppData\Local\Temp\ccgBjMFA.s:632    .text.alcs_rec_auth:0000000000000082 .L0 
C:\Users\stapi\AppData\Local\Temp\ccgBjMFA.s:643    .text.alcs_rec_auth:000000000000009c .L0 
C:\Users\stapi\AppData\Local\Temp\ccgBjMFA.s:644    .text.alcs_rec_auth:000000000000009c .L0 
C:\Users\stapi\AppData\Local\Temp\ccgBjMFA.s:648    .text.alcs_rec_auth:00000000000000a8 .L0 
C:\Users\stapi\AppData\Local\Temp\ccgBjMFA.s:655    .text.alcs_rec_auth:00000000000000bc .L0 
C:\Users\stapi\AppData\Local\Temp\ccgBjMFA.s:659    .text.alcs_rec_auth:00000000000000c8 .L0 
C:\Users\stapi\AppData\Local\Temp\ccgBjMFA.s:660    .text.alcs_rec_auth:00000000000000c8 .L0 
C:\Users\stapi\AppData\Local\Temp\ccgBjMFA.s:661    .text.alcs_rec_auth:00000000000000c8 .L0 
C:\Users\stapi\AppData\Local\Temp\ccgBjMFA.s:663    .text.alcs_rec_auth:00000000000000ca .L0 
C:\Users\stapi\AppData\Local\Temp\ccgBjMFA.s:668    .text.alcs_rec_auth:00000000000000d2 .L0 
C:\Users\stapi\AppData\Local\Temp\ccgBjMFA.s:669    .text.alcs_rec_auth:00000000000000d2 .L0 
C:\Users\stapi\AppData\Local\Temp\ccgBjMFA.s:670    .text.alcs_rec_auth:00000000000000d2 .L0 
C:\Users\stapi\AppData\Local\Temp\ccgBjMFA.s:671    .text.alcs_rec_auth:00000000000000d2 .L0 
C:\Users\stapi\AppData\Local\Temp\ccgBjMFA.s:681    .text.alcs_rec_auth:00000000000000e8 .L0 
C:\Users\stapi\AppData\Local\Temp\ccgBjMFA.s:682    .text.alcs_rec_auth:00000000000000e8 .L0 
C:\Users\stapi\AppData\Local\Temp\ccgBjMFA.s:684    .text.alcs_rec_auth:00000000000000ea .L0 
C:\Users\stapi\AppData\Local\Temp\ccgBjMFA.s:685    .text.alcs_rec_auth:00000000000000ea .L0 
C:\Users\stapi\AppData\Local\Temp\ccgBjMFA.s:690    .text.alcs_rec_auth:00000000000000f6 .L0 
C:\Users\stapi\AppData\Local\Temp\ccgBjMFA.s:695    .text.alcs_rec_auth:0000000000000106 .L0 
C:\Users\stapi\AppData\Local\Temp\ccgBjMFA.s:699    .text.alcs_rec_auth:0000000000000112 .L0 
C:\Users\stapi\AppData\Local\Temp\ccgBjMFA.s:702    .text.alcs_rec_auth:0000000000000112 .L0 
C:\Users\stapi\AppData\Local\Temp\ccgBjMFA.s:703    .text.alcs_rec_auth:0000000000000112 .L0 
C:\Users\stapi\AppData\Local\Temp\ccgBjMFA.s:704    .text.alcs_rec_auth:0000000000000112 .L0 
C:\Users\stapi\AppData\Local\Temp\ccgBjMFA.s:705    .text.alcs_rec_auth:0000000000000112 .L0 
C:\Users\stapi\AppData\Local\Temp\ccgBjMFA.s:706    .text.alcs_rec_auth:0000000000000112 .L0 
C:\Users\stapi\AppData\Local\Temp\ccgBjMFA.s:717    .text.alcs_rec_auth:0000000000000132 .L0 
C:\Users\stapi\AppData\Local\Temp\ccgBjMFA.s:718    .text.alcs_rec_auth:0000000000000132 .L0 
C:\Users\stapi\AppData\Local\Temp\ccgBjMFA.s:722    .text.alcs_rec_auth:000000000000013c .L0 
C:\Users\stapi\AppData\Local\Temp\ccgBjMFA.s:724    .text.alcs_rec_auth:000000000000013e .L0 
C:\Users\stapi\AppData\Local\Temp\ccgBjMFA.s:732    .text.alcs_rec_auth:000000000000014e .L0 
C:\Users\stapi\AppData\Local\Temp\ccgBjMFA.s:734    .text.alcs_rec_auth:0000000000000150 .L0 
C:\Users\stapi\AppData\Local\Temp\ccgBjMFA.s:737    .text.alcs_rec_auth:0000000000000158 .L0 
C:\Users\stapi\AppData\Local\Temp\ccgBjMFA.s:738    .text.alcs_rec_auth:0000000000000158 .L0 
C:\Users\stapi\AppData\Local\Temp\ccgBjMFA.s:740    .text.alcs_rec_auth:000000000000015c .L0 
C:\Users\stapi\AppData\Local\Temp\ccgBjMFA.s:743    .text.alcs_rec_auth:0000000000000162 .L0 
C:\Users\stapi\AppData\Local\Temp\ccgBjMFA.s:747    .text.alcs_rec_auth:0000000000000168 .L0 
C:\Users\stapi\AppData\Local\Temp\ccgBjMFA.s:749    .text.alcs_rec_auth:000000000000016c .L0 
C:\Users\stapi\AppData\Local\Temp\ccgBjMFA.s:751    .text.alcs_rec_auth:000000000000016e .L0 
C:\Users\stapi\AppData\Local\Temp\ccgBjMFA.s:758    .text.alcs_rec_auth:000000000000017e .L0 
C:\Users\stapi\AppData\Local\Temp\ccgBjMFA.s:759    .text.alcs_rec_auth:0000000000000182 .L0 
C:\Users\stapi\AppData\Local\Temp\ccgBjMFA.s:760    .text.alcs_rec_auth:0000000000000182 .L0 
C:\Users\stapi\AppData\Local\Temp\ccgBjMFA.s:762    .text.alcs_rec_auth:000000000000018a .L0 
C:\Users\stapi\AppData\Local\Temp\ccgBjMFA.s:763    .text.alcs_rec_auth:000000000000018a .L0 
C:\Users\stapi\AppData\Local\Temp\ccgBjMFA.s:764    .text.alcs_rec_auth:000000000000018a .L0 
C:\Users\stapi\AppData\Local\Temp\ccgBjMFA.s:765    .text.alcs_rec_auth:000000000000018a .L0 
C:\Users\stapi\AppData\Local\Temp\ccgBjMFA.s:766    .text.alcs_rec_auth:000000000000018a .L0 
C:\Users\stapi\AppData\Local\Temp\ccgBjMFA.s:767    .text.alcs_rec_auth:000000000000018a .L0 
C:\Users\stapi\AppData\Local\Temp\ccgBjMFA.s:768    .text.alcs_rec_auth:000000000000018a .L0 
C:\Users\stapi\AppData\Local\Temp\ccgBjMFA.s:769    .text.alcs_rec_auth:000000000000018a .L0 
C:\Users\stapi\AppData\Local\Temp\ccgBjMFA.s:770    .text.alcs_rec_auth:000000000000018a .L0 
C:\Users\stapi\AppData\Local\Temp\ccgBjMFA.s:771    .text.alcs_rec_auth:000000000000018a .L0 
C:\Users\stapi\AppData\Local\Temp\ccgBjMFA.s:772    .text.alcs_rec_auth:000000000000018a .L0 
C:\Users\stapi\AppData\Local\Temp\ccgBjMFA.s:773    .text.alcs_rec_auth:000000000000018a .L0 
C:\Users\stapi\AppData\Local\Temp\ccgBjMFA.s:774    .text.alcs_rec_auth:000000000000018a .L0 
C:\Users\stapi\AppData\Local\Temp\ccgBjMFA.s:775    .text.alcs_rec_auth:000000000000018a .L0 
C:\Users\stapi\AppData\Local\Temp\ccgBjMFA.s:778    .text.alcs_rec_auth:000000000000018a .L0 
C:\Users\stapi\AppData\Local\Temp\ccgBjMFA.s:781    .text.alcs_rec_auth:000000000000018a .L0 
C:\Users\stapi\AppData\Local\Temp\ccgBjMFA.s:783    .text.alcs_rec_auth:000000000000018c .L0 
C:\Users\stapi\AppData\Local\Temp\ccgBjMFA.s:786    .text.alcs_rec_auth:0000000000000192 .L0 
C:\Users\stapi\AppData\Local\Temp\ccgBjMFA.s:792    .text.alcs_rec_auth:000000000000019e .L0 
C:\Users\stapi\AppData\Local\Temp\ccgBjMFA.s:795    .text.alcs_rec_auth:00000000000001a2 .L0 
C:\Users\stapi\AppData\Local\Temp\ccgBjMFA.s:797    .text.alcs_rec_auth:00000000000001a4 .L0 
C:\Users\stapi\AppData\Local\Temp\ccgBjMFA.s:803    .text.alcs_rec_auth:00000000000001b2 .L0 
C:\Users\stapi\AppData\Local\Temp\ccgBjMFA.s:816    .text.alcs_rec_auth:00000000000001de .L0 
C:\Users\stapi\AppData\Local\Temp\ccgBjMFA.s:827    .text.alcs_rec_auth:00000000000001fa .L0 
C:\Users\stapi\AppData\Local\Temp\ccgBjMFA.s:828    .text.alcs_rec_auth:00000000000001fa .L0 
C:\Users\stapi\AppData\Local\Temp\ccgBjMFA.s:829    .text.alcs_rec_auth:00000000000001fa .L0 
C:\Users\stapi\AppData\Local\Temp\ccgBjMFA.s:830    .text.alcs_rec_auth:00000000000001fa .L0 
C:\Users\stapi\AppData\Local\Temp\ccgBjMFA.s:831    .text.alcs_rec_auth:00000000000001fa .L0 
C:\Users\stapi\AppData\Local\Temp\ccgBjMFA.s:832    .text.alcs_rec_auth:00000000000001fa .L0 
C:\Users\stapi\AppData\Local\Temp\ccgBjMFA.s:833    .text.alcs_rec_auth:00000000000001fa .L0 
C:\Users\stapi\AppData\Local\Temp\ccgBjMFA.s:834    .text.alcs_rec_auth:00000000000001fa .L0 
C:\Users\stapi\AppData\Local\Temp\ccgBjMFA.s:835    .text.alcs_rec_auth:00000000000001fa .L0 
C:\Users\stapi\AppData\Local\Temp\ccgBjMFA.s:836    .text.alcs_rec_auth:00000000000001fa .L0 
C:\Users\stapi\AppData\Local\Temp\ccgBjMFA.s:837    .text.alcs_rec_auth:00000000000001fa .L0 
C:\Users\stapi\AppData\Local\Temp\ccgBjMFA.s:840    .text.alcs_rec_auth:00000000000001fc .L0 
C:\Users\stapi\AppData\Local\Temp\ccgBjMFA.s:841    .text.alcs_rec_auth:00000000000001fc .L0 
C:\Users\stapi\AppData\Local\Temp\ccgBjMFA.s:845    .text.alcs_rec_auth:00000000000001fe .L0 
C:\Users\stapi\AppData\Local\Temp\ccgBjMFA.s:846    .text.alcs_rec_auth:00000000000001fe .L0 
C:\Users\stapi\AppData\Local\Temp\ccgBjMFA.s:849    .text.alcs_rec_auth:0000000000000202 .L0 
C:\Users\stapi\AppData\Local\Temp\ccgBjMFA.s:851    .text.alcs_rec_auth:0000000000000204 .L0 
C:\Users\stapi\AppData\Local\Temp\ccgBjMFA.s:855    .text.alcs_rec_auth:0000000000000206 .L0 
C:\Users\stapi\AppData\Local\Temp\ccgBjMFA.s:858    .text.alcs_rec_auth:000000000000020a .L0 
C:\Users\stapi\AppData\Local\Temp\ccgBjMFA.s:859    .text.alcs_rec_auth:000000000000020a .L0 
C:\Users\stapi\AppData\Local\Temp\ccgBjMFA.s:871    .text.alcs_rec_auth:0000000000000224 .L0 
C:\Users\stapi\AppData\Local\Temp\ccgBjMFA.s:872    .text.alcs_rec_auth:0000000000000224 .L0 
C:\Users\stapi\AppData\Local\Temp\ccgBjMFA.s:873    .text.alcs_rec_auth:0000000000000224 .L0 
C:\Users\stapi\AppData\Local\Temp\ccgBjMFA.s:876    .text.alcs_rec_auth:0000000000000226 .L0 
C:\Users\stapi\AppData\Local\Temp\ccgBjMFA.s:877    .text.alcs_rec_auth:0000000000000226 .L0 
C:\Users\stapi\AppData\Local\Temp\ccgBjMFA.s:882    .text.alcs_rec_auth:000000000000022e .L0 
C:\Users\stapi\AppData\Local\Temp\ccgBjMFA.s:884    .text.alcs_rec_auth:0000000000000232 .L0 
C:\Users\stapi\AppData\Local\Temp\ccgBjMFA.s:885    .text.alcs_rec_auth:0000000000000232 .L0 
C:\Users\stapi\AppData\Local\Temp\ccgBjMFA.s:886    .text.alcs_rec_auth:0000000000000232 .L0 
C:\Users\stapi\AppData\Local\Temp\ccgBjMFA.s:891    .text.alcs_rec_auth:000000000000023c .L0 
C:\Users\stapi\AppData\Local\Temp\ccgBjMFA.s:894    .text.alcs_rec_auth:000000000000023e .L0 
C:\Users\stapi\AppData\Local\Temp\ccgBjMFA.s:897    .text.alcs_rec_auth:0000000000000246 .L0 
C:\Users\stapi\AppData\Local\Temp\ccgBjMFA.s:900    .text.alcs_rec_auth:0000000000000248 .L0 
C:\Users\stapi\AppData\Local\Temp\ccgBjMFA.s:902    .text.alcs_rec_auth:000000000000024c .L0 
C:\Users\stapi\AppData\Local\Temp\ccgBjMFA.s:904    .text.alcs_rec_auth:0000000000000250 .L0 
C:\Users\stapi\AppData\Local\Temp\ccgBjMFA.s:905    .text.alcs_rec_auth:0000000000000250 .L0 
C:\Users\stapi\AppData\Local\Temp\ccgBjMFA.s:915    .text.alcs_rec_auth:000000000000026a .L0 
C:\Users\stapi\AppData\Local\Temp\ccgBjMFA.s:916    .text.alcs_rec_auth:000000000000026a .L0 
C:\Users\stapi\AppData\Local\Temp\ccgBjMFA.s:917    .text.alcs_rec_auth:000000000000026a .L0 
C:\Users\stapi\AppData\Local\Temp\ccgBjMFA.s:920    .text.alcs_rec_auth:000000000000026e .L0 
C:\Users\stapi\AppData\Local\Temp\ccgBjMFA.s:922    .text.alcs_rec_auth:0000000000000272 .L0 
C:\Users\stapi\AppData\Local\Temp\ccgBjMFA.s:925    .text.alcs_rec_auth:0000000000000276 .L0 
C:\Users\stapi\AppData\Local\Temp\ccgBjMFA.s:927    .text.alcs_rec_auth:0000000000000278 .L0 
C:\Users\stapi\AppData\Local\Temp\ccgBjMFA.s:932    .text.alcs_rec_auth:0000000000000284 .L0 
C:\Users\stapi\AppData\Local\Temp\ccgBjMFA.s:933    .text.alcs_rec_auth:0000000000000284 .L0 
C:\Users\stapi\AppData\Local\Temp\ccgBjMFA.s:937    .text.alcs_rec_auth:0000000000000290 .L0 
C:\Users\stapi\AppData\Local\Temp\ccgBjMFA.s:948    .text.alcs_rec_auth:00000000000002ae .L0 
C:\Users\stapi\AppData\Local\Temp\ccgBjMFA.s:952    .text.alcs_rec_auth:00000000000002ba .L0 
C:\Users\stapi\AppData\Local\Temp\ccgBjMFA.s:953    .text.alcs_rec_auth:00000000000002ba .L0 
C:\Users\stapi\AppData\Local\Temp\ccgBjMFA.s:954    .text.alcs_rec_auth:00000000000002ba .L0 
C:\Users\stapi\AppData\Local\Temp\ccgBjMFA.s:963    .text.alcs_rec_auth:00000000000002d2 .L0 
C:\Users\stapi\AppData\Local\Temp\ccgBjMFA.s:964    .text.alcs_rec_auth:00000000000002d2 .L0 
C:\Users\stapi\AppData\Local\Temp\ccgBjMFA.s:966    .text.alcs_rec_auth:00000000000002d4 .L0 
C:\Users\stapi\AppData\Local\Temp\ccgBjMFA.s:968    .text.alcs_rec_auth:00000000000002d6 .L0 
C:\Users\stapi\AppData\Local\Temp\ccgBjMFA.s:971    .text.alcs_rec_auth:00000000000002dc .L0 
C:\Users\stapi\AppData\Local\Temp\ccgBjMFA.s:975    .text.alcs_rec_auth:00000000000002e6 .L0 
C:\Users\stapi\AppData\Local\Temp\ccgBjMFA.s:978    .text.alcs_rec_auth:00000000000002e8 .L0 
C:\Users\stapi\AppData\Local\Temp\ccgBjMFA.s:979    .text.alcs_rec_auth:00000000000002e8 .L0 
C:\Users\stapi\AppData\Local\Temp\ccgBjMFA.s:983    .text.alcs_rec_auth:00000000000002ee .L0 
C:\Users\stapi\AppData\Local\Temp\ccgBjMFA.s:984    .text.alcs_rec_auth:00000000000002ee .L0 
C:\Users\stapi\AppData\Local\Temp\ccgBjMFA.s:985    .text.alcs_rec_auth:00000000000002ee .L0 
C:\Users\stapi\AppData\Local\Temp\ccgBjMFA.s:994    .text.alcs_rec_auth:0000000000000306 .L0 
C:\Users\stapi\AppData\Local\Temp\ccgBjMFA.s:996    .text.alcs_rec_auth:0000000000000308 .L0 
C:\Users\stapi\AppData\Local\Temp\ccgBjMFA.s:999    .text.alcs_rec_auth:000000000000030a .L0 
C:\Users\stapi\AppData\Local\Temp\ccgBjMFA.s:1000   .text.alcs_rec_auth:000000000000030a .L0 
C:\Users\stapi\AppData\Local\Temp\ccgBjMFA.s:1011   .text.alcs_rec_auth:0000000000000322 .L0 
C:\Users\stapi\AppData\Local\Temp\ccgBjMFA.s:1012   .text.alcs_rec_auth:0000000000000322 .L0 
C:\Users\stapi\AppData\Local\Temp\ccgBjMFA.s:1014   .text.alcs_rec_auth:0000000000000326 .L0 
C:\Users\stapi\AppData\Local\Temp\ccgBjMFA.s:1016   .text.alcs_rec_auth:0000000000000328 .L0 
C:\Users\stapi\AppData\Local\Temp\ccgBjMFA.s:1018   .text.alcs_rec_auth:000000000000032c .L0 
C:\Users\stapi\AppData\Local\Temp\ccgBjMFA.s:1020   .text.alcs_rec_auth:0000000000000330 .L0 
C:\Users\stapi\AppData\Local\Temp\ccgBjMFA.s:1022   .text.alcs_rec_auth:0000000000000332 .L0 
C:\Users\stapi\AppData\Local\Temp\ccgBjMFA.s:1024   .text.alcs_rec_auth:0000000000000336 .L0 
C:\Users\stapi\AppData\Local\Temp\ccgBjMFA.s:1025   .text.alcs_rec_auth:0000000000000336 .L0 
C:\Users\stapi\AppData\Local\Temp\ccgBjMFA.s:1027   .text.alcs_rec_auth:0000000000000338 .L0 
C:\Users\stapi\AppData\Local\Temp\ccgBjMFA.s:1029   .text.alcs_rec_auth:000000000000033a .L0 
C:\Users\stapi\AppData\Local\Temp\ccgBjMFA.s:1031   .text.alcs_rec_auth:000000000000033e .L0 
C:\Users\stapi\AppData\Local\Temp\ccgBjMFA.s:1033   .text.alcs_rec_auth:0000000000000342 .L0 
C:\Users\stapi\AppData\Local\Temp\ccgBjMFA.s:1035   .text.alcs_rec_auth:0000000000000346 .L0 
C:\Users\stapi\AppData\Local\Temp\ccgBjMFA.s:1037   .text.alcs_rec_auth:0000000000000348 .L0 
C:\Users\stapi\AppData\Local\Temp\ccgBjMFA.s:1040   .text.alcs_rec_auth:000000000000034c .L0 
C:\Users\stapi\AppData\Local\Temp\ccgBjMFA.s:1043   .text.alcs_rec_auth:0000000000000352 .L0 
C:\Users\stapi\AppData\Local\Temp\ccgBjMFA.s:1046   .text.alcs_rec_auth:0000000000000354 .L0 
C:\Users\stapi\AppData\Local\Temp\ccgBjMFA.s:1049   .text.alcs_rec_auth:0000000000000356 .L0 
C:\Users\stapi\AppData\Local\Temp\ccgBjMFA.s:1050   .text.alcs_rec_auth:0000000000000356 .L0 
C:\Users\stapi\AppData\Local\Temp\ccgBjMFA.s:1053   .text.alcs_rec_auth:0000000000000358 .L0 
C:\Users\stapi\AppData\Local\Temp\ccgBjMFA.s:1054   .text.alcs_rec_auth:0000000000000358 .L0 
C:\Users\stapi\AppData\Local\Temp\ccgBjMFA.s:1055   .text.alcs_rec_auth:0000000000000358 .L0 
C:\Users\stapi\AppData\Local\Temp\ccgBjMFA.s:1056   .text.alcs_rec_auth:0000000000000358 .L0 
C:\Users\stapi\AppData\Local\Temp\ccgBjMFA.s:1058   .text.alcs_rec_auth:000000000000035c .L0 
C:\Users\stapi\AppData\Local\Temp\ccgBjMFA.s:1061   .text.alcs_rec_auth:0000000000000364 .L0 
C:\Users\stapi\AppData\Local\Temp\ccgBjMFA.s:1062   .text.alcs_rec_auth:0000000000000364 .L0 
C:\Users\stapi\AppData\Local\Temp\ccgBjMFA.s:1066   .text.alcs_rec_auth:0000000000000370 .L0 
C:\Users\stapi\AppData\Local\Temp\ccgBjMFA.s:1068   .text.alcs_rec_auth:0000000000000372 .L0 
C:\Users\stapi\AppData\Local\Temp\ccgBjMFA.s:1069   .text.alcs_rec_auth:0000000000000372 .L0 
C:\Users\stapi\AppData\Local\Temp\ccgBjMFA.s:1071   .text.alcs_rec_auth:0000000000000374 .L0 
C:\Users\stapi\AppData\Local\Temp\ccgBjMFA.s:1072   .text.alcs_rec_auth:0000000000000374 .L0 
C:\Users\stapi\AppData\Local\Temp\ccgBjMFA.s:1074   .text.alcs_rec_auth:0000000000000376 .L0 
C:\Users\stapi\AppData\Local\Temp\ccgBjMFA.s:1076   .text.alcs_rec_auth:0000000000000378 .L0 
C:\Users\stapi\AppData\Local\Temp\ccgBjMFA.s:1079   .text.alcs_rec_auth:000000000000037c .L0 
C:\Users\stapi\AppData\Local\Temp\ccgBjMFA.s:1085   .text.alcs_rec_auth:000000000000038e .L0 
C:\Users\stapi\AppData\Local\Temp\ccgBjMFA.s:1086   .text.alcs_rec_auth:000000000000038e .L0 
C:\Users\stapi\AppData\Local\Temp\ccgBjMFA.s:1092   .text.alcs_rec_auth:000000000000039e .L0 
C:\Users\stapi\AppData\Local\Temp\ccgBjMFA.s:1094   .text.alcs_rec_auth:00000000000003a2 .L0 
C:\Users\stapi\AppData\Local\Temp\ccgBjMFA.s:1097   .text.alcs_rec_auth:00000000000003a4 .L0 
C:\Users\stapi\AppData\Local\Temp\ccgBjMFA.s:1102   .text.alcs_rec_auth:00000000000003b0 .L0 
C:\Users\stapi\AppData\Local\Temp\ccgBjMFA.s:1103   .text.alcs_rec_auth:00000000000003b0 .L0 
C:\Users\stapi\AppData\Local\Temp\ccgBjMFA.s:1106   .text.alcs_rec_auth:00000000000003b8 .L0 
C:\Users\stapi\AppData\Local\Temp\ccgBjMFA.s:1109   .text.alcs_rec_auth:00000000000003be .L0 
C:\Users\stapi\AppData\Local\Temp\ccgBjMFA.s:1111   .text.alcs_rec_auth:00000000000003c0 .L0 
C:\Users\stapi\AppData\Local\Temp\ccgBjMFA.s:1114   .text.alcs_rec_auth:00000000000003c6 .L0 
C:\Users\stapi\AppData\Local\Temp\ccgBjMFA.s:1115   .text.alcs_rec_auth:00000000000003c6 .L0 
C:\Users\stapi\AppData\Local\Temp\ccgBjMFA.s:1120   .text.alcs_rec_auth:00000000000003d4 .L0 
C:\Users\stapi\AppData\Local\Temp\ccgBjMFA.s:1126   .text.alcs_rec_auth:00000000000003e4 .L0 
C:\Users\stapi\AppData\Local\Temp\ccgBjMFA.s:1127   .text.alcs_rec_auth:00000000000003e4 .L0 
C:\Users\stapi\AppData\Local\Temp\ccgBjMFA.s:1131   .text.alcs_rec_auth:00000000000003ee .L0 
C:\Users\stapi\AppData\Local\Temp\ccgBjMFA.s:1138   .text.alcs_rec_auth:0000000000000400 .L0 
C:\Users\stapi\AppData\Local\Temp\ccgBjMFA.s:1139   .text.alcs_rec_auth:0000000000000400 .L0 
C:\Users\stapi\AppData\Local\Temp\ccgBjMFA.s:1143   .text.alcs_rec_auth:000000000000040a .L0 
C:\Users\stapi\AppData\Local\Temp\ccgBjMFA.s:1145   .text.alcs_rec_auth:000000000000040c .L0 
C:\Users\stapi\AppData\Local\Temp\ccgBjMFA.s:1147   .text.alcs_rec_auth:000000000000040e .L0 
C:\Users\stapi\AppData\Local\Temp\ccgBjMFA.s:1152   .text.alcs_rec_auth:000000000000041c .L0 
C:\Users\stapi\AppData\Local\Temp\ccgBjMFA.s:1153   .text.alcs_rec_auth:000000000000041c .L0 
C:\Users\stapi\AppData\Local\Temp\ccgBjMFA.s:1155   .text.alcs_rec_auth:0000000000000420 .L0 
C:\Users\stapi\AppData\Local\Temp\ccgBjMFA.s:1162   .text.alcs_rec_auth:0000000000000430 .L0 
C:\Users\stapi\AppData\Local\Temp\ccgBjMFA.s:1163   .text.alcs_rec_auth:0000000000000430 .L0 
C:\Users\stapi\AppData\Local\Temp\ccgBjMFA.s:1167   .text.alcs_rec_auth:000000000000043c .L0 
C:\Users\stapi\AppData\Local\Temp\ccgBjMFA.s:1176   .text.alcs_rec_auth:0000000000000456 .L0 
C:\Users\stapi\AppData\Local\Temp\ccgBjMFA.s:1180   .text.alcs_rec_auth:0000000000000462 .L0 
C:\Users\stapi\AppData\Local\Temp\ccgBjMFA.s:1181   .text.alcs_rec_auth:0000000000000462 .L0 
C:\Users\stapi\AppData\Local\Temp\ccgBjMFA.s:1182   .text.alcs_rec_auth:0000000000000462 .L0 
C:\Users\stapi\AppData\Local\Temp\ccgBjMFA.s:1185   .text.alcs_rec_auth:0000000000000466 .L0 
C:\Users\stapi\AppData\Local\Temp\ccgBjMFA.s:1187   .text.alcs_rec_auth:000000000000046a .L0 
C:\Users\stapi\AppData\Local\Temp\ccgBjMFA.s:1191   .text.alcs_rec_auth:0000000000000470 .L0 
C:\Users\stapi\AppData\Local\Temp\ccgBjMFA.s:1192   .text.alcs_rec_auth:0000000000000470 .L0 
C:\Users\stapi\AppData\Local\Temp\ccgBjMFA.s:1195   .text.alcs_rec_auth:0000000000000474 .L0 
C:\Users\stapi\AppData\Local\Temp\ccgBjMFA.s:1197   .text.alcs_rec_auth:0000000000000476 .L0 
C:\Users\stapi\AppData\Local\Temp\ccgBjMFA.s:1201   .text.alcs_rec_auth:000000000000047c .L0 
C:\Users\stapi\AppData\Local\Temp\ccgBjMFA.s:1209   .text.alcs_rec_auth:0000000000000492 .L0 
C:\Users\stapi\AppData\Local\Temp\ccgBjMFA.s:1210   .text.alcs_rec_auth:0000000000000492 .L0 
C:\Users\stapi\AppData\Local\Temp\ccgBjMFA.s:1214   .text.alcs_rec_auth:000000000000049c .L0 
C:\Users\stapi\AppData\Local\Temp\ccgBjMFA.s:1216   .text.alcs_rec_auth:000000000000049e .L0 
C:\Users\stapi\AppData\Local\Temp\ccgBjMFA.s:1218   .text.alcs_rec_auth:00000000000004a0 .L0 
C:\Users\stapi\AppData\Local\Temp\ccgBjMFA.s:1224   .text.alcs_rec_auth:00000000000004b0 .L0 
C:\Users\stapi\AppData\Local\Temp\ccgBjMFA.s:1225   .text.alcs_rec_auth:00000000000004b0 .L0 
C:\Users\stapi\AppData\Local\Temp\ccgBjMFA.s:1227   .text.alcs_rec_auth:00000000000004b2 .L0 
C:\Users\stapi\AppData\Local\Temp\ccgBjMFA.s:1230   .text.alcs_rec_auth:00000000000004b8 .L0 
C:\Users\stapi\AppData\Local\Temp\ccgBjMFA.s:1231   .text.alcs_rec_auth:00000000000004b8 .L0 
C:\Users\stapi\AppData\Local\Temp\ccgBjMFA.s:1232   .text.alcs_rec_auth:00000000000004b8 .L0 
C:\Users\stapi\AppData\Local\Temp\ccgBjMFA.s:1233   .text.alcs_rec_auth:00000000000004b8 .L0 
C:\Users\stapi\AppData\Local\Temp\ccgBjMFA.s:1234   .text.alcs_rec_auth:00000000000004b8 .L0 
C:\Users\stapi\AppData\Local\Temp\ccgBjMFA.s:1235   .text.alcs_rec_auth:00000000000004b8 .L0 
C:\Users\stapi\AppData\Local\Temp\ccgBjMFA.s:1238   .text.alcs_rec_auth:00000000000004be .L0 
C:\Users\stapi\AppData\Local\Temp\ccgBjMFA.s:1246   .text.alcs_rec_auth:00000000000004d0 .L0 
C:\Users\stapi\AppData\Local\Temp\ccgBjMFA.s:1260   .text.alcs_rec_auth:00000000000004f8 .L0 
C:\Users\stapi\AppData\Local\Temp\ccgBjMFA.s:1261   .text.alcs_rec_auth:00000000000004f8 .L0 
C:\Users\stapi\AppData\Local\Temp\ccgBjMFA.s:1266   .text.alcs_rec_auth:0000000000000508 .L0 
C:\Users\stapi\AppData\Local\Temp\ccgBjMFA.s:1272   .text.alcs_rec_auth:000000000000051a .L0 
C:\Users\stapi\AppData\Local\Temp\ccgBjMFA.s:1276   .text.alcs_rec_auth:0000000000000526 .L0 
C:\Users\stapi\AppData\Local\Temp\ccgBjMFA.s:1277   .text.alcs_rec_auth:0000000000000526 .L0 
C:\Users\stapi\AppData\Local\Temp\ccgBjMFA.s:1278   .text.alcs_rec_auth:0000000000000526 .L0 
C:\Users\stapi\AppData\Local\Temp\ccgBjMFA.s:1281   .text.alcs_rec_auth:000000000000052e .L0 
C:\Users\stapi\AppData\Local\Temp\ccgBjMFA.s:1283   .text.alcs_rec_auth:0000000000000530 .L0 
C:\Users\stapi\AppData\Local\Temp\ccgBjMFA.s:1284   .text.alcs_rec_auth:0000000000000530 .L0 
C:\Users\stapi\AppData\Local\Temp\ccgBjMFA.s:1287   .text.alcs_rec_auth:0000000000000532 .L0 
C:\Users\stapi\AppData\Local\Temp\ccgBjMFA.s:1288   .text.alcs_rec_auth:0000000000000532 .L0 
C:\Users\stapi\AppData\Local\Temp\ccgBjMFA.s:1290   .text.alcs_rec_auth:0000000000000536 .L0 
C:\Users\stapi\AppData\Local\Temp\ccgBjMFA.s:1292   .text.alcs_rec_auth:000000000000053a .L0 
C:\Users\stapi\AppData\Local\Temp\ccgBjMFA.s:1295   .text.alcs_rec_auth:000000000000053e .L0 
C:\Users\stapi\AppData\Local\Temp\ccgBjMFA.s:1300   .text.alcs_rec_auth:0000000000000546 .L0 
C:\Users\stapi\AppData\Local\Temp\ccgBjMFA.s:1301   .text.alcs_rec_auth:0000000000000546 .L0 
C:\Users\stapi\AppData\Local\Temp\ccgBjMFA.s:1302   .text.alcs_rec_auth:0000000000000546 .L0 
C:\Users\stapi\AppData\Local\Temp\ccgBjMFA.s:1307   .text.alcs_rec_auth:000000000000054a .L0 
C:\Users\stapi\AppData\Local\Temp\ccgBjMFA.s:1308   .text.alcs_rec_auth:000000000000054a .L0 
C:\Users\stapi\AppData\Local\Temp\ccgBjMFA.s:1315   .text.alcs_rec_auth:0000000000000552 .L0 
C:\Users\stapi\AppData\Local\Temp\ccgBjMFA.s:1321   .text.alcs_rec_auth:0000000000000556 .L0 
C:\Users\stapi\AppData\Local\Temp\ccgBjMFA.s:1323   .text.alcs_rec_auth:000000000000055a .L0 
C:\Users\stapi\AppData\Local\Temp\ccgBjMFA.s:1324   .text.alcs_rec_auth:000000000000055a .L0 
C:\Users\stapi\AppData\Local\Temp\ccgBjMFA.s:1326   .text.alcs_rec_auth:000000000000055e .L0 
C:\Users\stapi\AppData\Local\Temp\ccgBjMFA.s:1327   .text.alcs_rec_auth:000000000000055e .L0 
C:\Users\stapi\AppData\Local\Temp\ccgBjMFA.s:1329   .text.alcs_rec_auth:0000000000000560 .L0 
C:\Users\stapi\AppData\Local\Temp\ccgBjMFA.s:1330   .text.alcs_rec_auth:0000000000000560 .L0 
C:\Users\stapi\AppData\Local\Temp\ccgBjMFA.s:1337   .text.alcs_rec_auth:0000000000000564 .L0 
C:\Users\stapi\AppData\Local\Temp\ccgBjMFA.s:1343   .text.alcs_rec_auth:000000000000056e .L0 
C:\Users\stapi\AppData\Local\Temp\ccgBjMFA.s:1348   .text.alcs_rec_auth:000000000000057a .L0 
C:\Users\stapi\AppData\Local\Temp\ccgBjMFA.s:1349   .text.alcs_rec_auth:000000000000057a .L0 
C:\Users\stapi\AppData\Local\Temp\ccgBjMFA.s:1355   .text.alcs_rec_auth:000000000000058a .L0 
C:\Users\stapi\AppData\Local\Temp\ccgBjMFA.s:1358   .text.alcs_rec_auth:000000000000058e .L0 
C:\Users\stapi\AppData\Local\Temp\ccgBjMFA.s:1361   .text.alcs_rec_auth:0000000000000590 .L0 
C:\Users\stapi\AppData\Local\Temp\ccgBjMFA.s:1366   .text.alcs_rec_auth:000000000000059c .L0 
C:\Users\stapi\AppData\Local\Temp\ccgBjMFA.s:1367   .text.alcs_rec_auth:000000000000059c .L0 
C:\Users\stapi\AppData\Local\Temp\ccgBjMFA.s:1370   .text.alcs_rec_auth:00000000000005a4 .L0 
C:\Users\stapi\AppData\Local\Temp\ccgBjMFA.s:1373   .text.alcs_rec_auth:00000000000005aa .L0 
C:\Users\stapi\AppData\Local\Temp\ccgBjMFA.s:1375   .text.alcs_rec_auth:00000000000005ac .L0 
C:\Users\stapi\AppData\Local\Temp\ccgBjMFA.s:1378   .text.alcs_rec_auth:00000000000005b2 .L0 
C:\Users\stapi\AppData\Local\Temp\ccgBjMFA.s:1379   .text.alcs_rec_auth:00000000000005b2 .L0 
C:\Users\stapi\AppData\Local\Temp\ccgBjMFA.s:1384   .text.alcs_rec_auth:00000000000005c0 .L0 
C:\Users\stapi\AppData\Local\Temp\ccgBjMFA.s:1390   .text.alcs_rec_auth:00000000000005d0 .L0 
C:\Users\stapi\AppData\Local\Temp\ccgBjMFA.s:1391   .text.alcs_rec_auth:00000000000005d0 .L0 
C:\Users\stapi\AppData\Local\Temp\ccgBjMFA.s:1395   .text.alcs_rec_auth:00000000000005da .L0 
C:\Users\stapi\AppData\Local\Temp\ccgBjMFA.s:1402   .text.alcs_rec_auth:00000000000005ec .L0 
C:\Users\stapi\AppData\Local\Temp\ccgBjMFA.s:1403   .text.alcs_rec_auth:00000000000005ec .L0 
C:\Users\stapi\AppData\Local\Temp\ccgBjMFA.s:1407   .text.alcs_rec_auth:00000000000005f6 .L0 
C:\Users\stapi\AppData\Local\Temp\ccgBjMFA.s:1409   .text.alcs_rec_auth:00000000000005f8 .L0 
C:\Users\stapi\AppData\Local\Temp\ccgBjMFA.s:1411   .text.alcs_rec_auth:00000000000005fa .L0 
C:\Users\stapi\AppData\Local\Temp\ccgBjMFA.s:1416   .text.alcs_rec_auth:0000000000000608 .L0 
C:\Users\stapi\AppData\Local\Temp\ccgBjMFA.s:1417   .text.alcs_rec_auth:0000000000000608 .L0 
C:\Users\stapi\AppData\Local\Temp\ccgBjMFA.s:1419   .text.alcs_rec_auth:000000000000060c .L0 
C:\Users\stapi\AppData\Local\Temp\ccgBjMFA.s:1425   .text.alcs_rec_auth:000000000000061a .L0 
C:\Users\stapi\AppData\Local\Temp\ccgBjMFA.s:1426   .text.alcs_rec_auth:000000000000061a .L0 
C:\Users\stapi\AppData\Local\Temp\ccgBjMFA.s:1430   .text.alcs_rec_auth:0000000000000626 .L0 
C:\Users\stapi\AppData\Local\Temp\ccgBjMFA.s:1438   .text.alcs_rec_auth:000000000000063e .L0 
C:\Users\stapi\AppData\Local\Temp\ccgBjMFA.s:1442   .text.alcs_rec_auth:000000000000064a .L0 
C:\Users\stapi\AppData\Local\Temp\ccgBjMFA.s:1443   .text.alcs_rec_auth:000000000000064a .L0 
C:\Users\stapi\AppData\Local\Temp\ccgBjMFA.s:1444   .text.alcs_rec_auth:000000000000064a .L0 
C:\Users\stapi\AppData\Local\Temp\ccgBjMFA.s:1447   .text.alcs_rec_auth:000000000000064e .L0 
C:\Users\stapi\AppData\Local\Temp\ccgBjMFA.s:1449   .text.alcs_rec_auth:0000000000000652 .L0 
C:\Users\stapi\AppData\Local\Temp\ccgBjMFA.s:1453   .text.alcs_rec_auth:0000000000000658 .L0 
C:\Users\stapi\AppData\Local\Temp\ccgBjMFA.s:1454   .text.alcs_rec_auth:0000000000000658 .L0 
C:\Users\stapi\AppData\Local\Temp\ccgBjMFA.s:1457   .text.alcs_rec_auth:000000000000065c .L0 
C:\Users\stapi\AppData\Local\Temp\ccgBjMFA.s:1459   .text.alcs_rec_auth:000000000000065e .L0 
C:\Users\stapi\AppData\Local\Temp\ccgBjMFA.s:1463   .text.alcs_rec_auth:0000000000000664 .L0 
C:\Users\stapi\AppData\Local\Temp\ccgBjMFA.s:1471   .text.alcs_rec_auth:000000000000067a .L0 
C:\Users\stapi\AppData\Local\Temp\ccgBjMFA.s:1472   .text.alcs_rec_auth:000000000000067a .L0 
C:\Users\stapi\AppData\Local\Temp\ccgBjMFA.s:1476   .text.alcs_rec_auth:0000000000000684 .L0 
C:\Users\stapi\AppData\Local\Temp\ccgBjMFA.s:1478   .text.alcs_rec_auth:0000000000000686 .L0 
C:\Users\stapi\AppData\Local\Temp\ccgBjMFA.s:1480   .text.alcs_rec_auth:0000000000000688 .L0 
C:\Users\stapi\AppData\Local\Temp\ccgBjMFA.s:1486   .text.alcs_rec_auth:0000000000000698 .L0 
C:\Users\stapi\AppData\Local\Temp\ccgBjMFA.s:1487   .text.alcs_rec_auth:0000000000000698 .L0 
C:\Users\stapi\AppData\Local\Temp\ccgBjMFA.s:1489   .text.alcs_rec_auth:000000000000069a .L0 
C:\Users\stapi\AppData\Local\Temp\ccgBjMFA.s:1493   .text.alcs_rec_auth:00000000000006a2 .L0 
C:\Users\stapi\AppData\Local\Temp\ccgBjMFA.s:1494   .text.alcs_rec_auth:00000000000006a2 .L0 
C:\Users\stapi\AppData\Local\Temp\ccgBjMFA.s:1495   .text.alcs_rec_auth:00000000000006a2 .L0 
C:\Users\stapi\AppData\Local\Temp\ccgBjMFA.s:1496   .text.alcs_rec_auth:00000000000006a2 .L0 
C:\Users\stapi\AppData\Local\Temp\ccgBjMFA.s:1497   .text.alcs_rec_auth:00000000000006a2 .L0 
C:\Users\stapi\AppData\Local\Temp\ccgBjMFA.s:1498   .text.alcs_rec_auth:00000000000006a2 .L0 
C:\Users\stapi\AppData\Local\Temp\ccgBjMFA.s:1501   .text.alcs_rec_auth:00000000000006a8 .L0 
C:\Users\stapi\AppData\Local\Temp\ccgBjMFA.s:1509   .text.alcs_rec_auth:00000000000006ba .L0 
C:\Users\stapi\AppData\Local\Temp\ccgBjMFA.s:1523   .text.alcs_rec_auth:00000000000006e2 .L0 
C:\Users\stapi\AppData\Local\Temp\ccgBjMFA.s:1524   .text.alcs_rec_auth:00000000000006e2 .L0 
C:\Users\stapi\AppData\Local\Temp\ccgBjMFA.s:1529   .text.alcs_rec_auth:00000000000006f2 .L0 
C:\Users\stapi\AppData\Local\Temp\ccgBjMFA.s:1535   .text.alcs_rec_auth:0000000000000704 .L0 
C:\Users\stapi\AppData\Local\Temp\ccgBjMFA.s:1539   .text.alcs_rec_auth:0000000000000710 .L0 
C:\Users\stapi\AppData\Local\Temp\ccgBjMFA.s:1540   .text.alcs_rec_auth:0000000000000710 .L0 
C:\Users\stapi\AppData\Local\Temp\ccgBjMFA.s:1541   .text.alcs_rec_auth:0000000000000710 .L0 
C:\Users\stapi\AppData\Local\Temp\ccgBjMFA.s:1544   .text.alcs_rec_auth:0000000000000718 .L0 
C:\Users\stapi\AppData\Local\Temp\ccgBjMFA.s:1546   .text.alcs_rec_auth:000000000000071a .L0 
C:\Users\stapi\AppData\Local\Temp\ccgBjMFA.s:1547   .text.alcs_rec_auth:000000000000071a .L0 
C:\Users\stapi\AppData\Local\Temp\ccgBjMFA.s:1550   .text.alcs_rec_auth:000000000000071c .L0 
C:\Users\stapi\AppData\Local\Temp\ccgBjMFA.s:1551   .text.alcs_rec_auth:000000000000071c .L0 
C:\Users\stapi\AppData\Local\Temp\ccgBjMFA.s:1557   .text.alcs_rec_auth:0000000000000728 .L0 
C:\Users\stapi\AppData\Local\Temp\ccgBjMFA.s:1558   .text.alcs_rec_auth:0000000000000728 .L0 
C:\Users\stapi\AppData\Local\Temp\ccgBjMFA.s:1559   .text.alcs_rec_auth:0000000000000728 .L0 
C:\Users\stapi\AppData\Local\Temp\ccgBjMFA.s:1564   .text.alcs_rec_auth:000000000000072e .L0 
C:\Users\stapi\AppData\Local\Temp\ccgBjMFA.s:1611   .text.alcs_add_svr_key:0000000000000000 alcs_add_svr_key
C:\Users\stapi\AppData\Local\Temp\ccgBjMFA.s:1614   .text.alcs_add_svr_key:0000000000000000 .L0 
C:\Users\stapi\AppData\Local\Temp\ccgBjMFA.s:1616   .text.alcs_add_svr_key:0000000000000000 .L0 
C:\Users\stapi\AppData\Local\Temp\ccgBjMFA.s:1617   .text.alcs_add_svr_key:0000000000000008 .L0 
C:\Users\stapi\AppData\Local\Temp\ccgBjMFA.s:1618   .text.alcs_add_svr_key:0000000000000008 .L0 
C:\Users\stapi\AppData\Local\Temp\ccgBjMFA.s:1619   .text.alcs_add_svr_key:0000000000000008 .L0 
C:\Users\stapi\AppData\Local\Temp\ccgBjMFA.s:1620   .text.alcs_add_svr_key:0000000000000008 .L0 
C:\Users\stapi\AppData\Local\Temp\ccgBjMFA.s:1621   .text.alcs_add_svr_key:0000000000000008 .L0 
C:\Users\stapi\AppData\Local\Temp\ccgBjMFA.s:1622   .text.alcs_add_svr_key:0000000000000008 .L0 
C:\Users\stapi\AppData\Local\Temp\ccgBjMFA.s:1623   .text.alcs_add_svr_key:0000000000000008 .L0 
C:\Users\stapi\AppData\Local\Temp\ccgBjMFA.s:1624   .text.alcs_add_svr_key:0000000000000008 .L0 
C:\Users\stapi\AppData\Local\Temp\ccgBjMFA.s:1625   .text.alcs_add_svr_key:0000000000000008 .L0 
C:\Users\stapi\AppData\Local\Temp\ccgBjMFA.s:1626   .text.alcs_add_svr_key:0000000000000008 .L0 
C:\Users\stapi\AppData\Local\Temp\ccgBjMFA.s:1627   .text.alcs_add_svr_key:0000000000000008 .L0 
C:\Users\stapi\AppData\Local\Temp\ccgBjMFA.s:1628   .text.alcs_add_svr_key:0000000000000008 .L0 
C:\Users\stapi\AppData\Local\Temp\ccgBjMFA.s:1630   .text.alcs_add_svr_key:0000000000000008 .L0 
C:\Users\stapi\AppData\Local\Temp\ccgBjMFA.s:1631   .text.alcs_add_svr_key:0000000000000008 .L0 
C:\Users\stapi\AppData\Local\Temp\ccgBjMFA.s:1635   .text.alcs_add_svr_key:0000000000000010 .L0 
C:\Users\stapi\AppData\Local\Temp\ccgBjMFA.s:1639   .text.alcs_add_svr_key:0000000000000016 .L0 
C:\Users\stapi\AppData\Local\Temp\ccgBjMFA.s:1642   .text.alcs_add_svr_key:000000000000001e .L0 
C:\Users\stapi\AppData\Local\Temp\ccgBjMFA.s:1648   .text.alcs_add_svr_key:0000000000000030 .L0 
C:\Users\stapi\AppData\Local\Temp\ccgBjMFA.s:1653   .text.alcs_add_svr_key:0000000000000040 .L0 
C:\Users\stapi\AppData\Local\Temp\ccgBjMFA.s:1656   .text.alcs_add_svr_key:0000000000000040 .L0 
C:\Users\stapi\AppData\Local\Temp\ccgBjMFA.s:1657   .text.alcs_add_svr_key:0000000000000040 .L0 
C:\Users\stapi\AppData\Local\Temp\ccgBjMFA.s:1658   .text.alcs_add_svr_key:0000000000000040 .L0 
C:\Users\stapi\AppData\Local\Temp\ccgBjMFA.s:1662   .text.alcs_add_svr_key:000000000000004c .L0 
C:\Users\stapi\AppData\Local\Temp\ccgBjMFA.s:1668   .text.alcs_add_svr_key:000000000000005e .L0 
C:\Users\stapi\AppData\Local\Temp\ccgBjMFA.s:1672   .text.alcs_add_svr_key:000000000000006a .L0 
C:\Users\stapi\AppData\Local\Temp\ccgBjMFA.s:1673   .text.alcs_add_svr_key:000000000000006a .L0 
C:\Users\stapi\AppData\Local\Temp\ccgBjMFA.s:1674   .text.alcs_add_svr_key:000000000000006a .L0 
C:\Users\stapi\AppData\Local\Temp\ccgBjMFA.s:1675   .text.alcs_add_svr_key:000000000000006a .L0 
C:\Users\stapi\AppData\Local\Temp\ccgBjMFA.s:1678   .text.alcs_add_svr_key:0000000000000072 .L0 
C:\Users\stapi\AppData\Local\Temp\ccgBjMFA.s:1681   .text.alcs_add_svr_key:0000000000000078 .L0 
C:\Users\stapi\AppData\Local\Temp\ccgBjMFA.s:1683   .text.alcs_add_svr_key:000000000000007c .L0 
C:\Users\stapi\AppData\Local\Temp\ccgBjMFA.s:1685   .text.alcs_add_svr_key:0000000000000080 .L0 
C:\Users\stapi\AppData\Local\Temp\ccgBjMFA.s:1689   .text.alcs_add_svr_key:000000000000008a .L0 
C:\Users\stapi\AppData\Local\Temp\ccgBjMFA.s:1691   .text.alcs_add_svr_key:000000000000008c .L0 
C:\Users\stapi\AppData\Local\Temp\ccgBjMFA.s:1693   .text.alcs_add_svr_key:0000000000000090 .L0 
C:\Users\stapi\AppData\Local\Temp\ccgBjMFA.s:1695   .text.alcs_add_svr_key:0000000000000094 .L0 
C:\Users\stapi\AppData\Local\Temp\ccgBjMFA.s:1707   .text.alcs_add_svr_key:00000000000000c0 .L0 
C:\Users\stapi\AppData\Local\Temp\ccgBjMFA.s:1708   .text.alcs_add_svr_key:00000000000000c0 .L0 
C:\Users\stapi\AppData\Local\Temp\ccgBjMFA.s:1709   .text.alcs_add_svr_key:00000000000000c0 .L0 
C:\Users\stapi\AppData\Local\Temp\ccgBjMFA.s:1710   .text.alcs_add_svr_key:00000000000000c0 .L0 
C:\Users\stapi\AppData\Local\Temp\ccgBjMFA.s:1711   .text.alcs_add_svr_key:00000000000000c0 .L0 
C:\Users\stapi\AppData\Local\Temp\ccgBjMFA.s:1715   .text.alcs_add_svr_key:00000000000000c0 .L0 
C:\Users\stapi\AppData\Local\Temp\ccgBjMFA.s:1716   .text.alcs_add_svr_key:00000000000000c0 .L0 
C:\Users\stapi\AppData\Local\Temp\ccgBjMFA.s:1717   .text.alcs_add_svr_key:00000000000000c0 .L0 
C:\Users\stapi\AppData\Local\Temp\ccgBjMFA.s:1718   .text.alcs_add_svr_key:00000000000000c0 .L0 
C:\Users\stapi\AppData\Local\Temp\ccgBjMFA.s:1719   .text.alcs_add_svr_key:00000000000000c0 .L0 
C:\Users\stapi\AppData\Local\Temp\ccgBjMFA.s:1721   .text.alcs_add_svr_key:00000000000000c2 .L0 
C:\Users\stapi\AppData\Local\Temp\ccgBjMFA.s:1724   .text.alcs_add_svr_key:00000000000000ca .L0 
C:\Users\stapi\AppData\Local\Temp\ccgBjMFA.s:1727   .text.alcs_add_svr_key:00000000000000d2 .L0 
C:\Users\stapi\AppData\Local\Temp\ccgBjMFA.s:1728   .text.alcs_add_svr_key:00000000000000d2 .L0 
C:\Users\stapi\AppData\Local\Temp\ccgBjMFA.s:1732   .text.alcs_add_svr_key:00000000000000de .L0 
C:\Users\stapi\AppData\Local\Temp\ccgBjMFA.s:1739   .text.alcs_add_svr_key:00000000000000f2 .L0 
C:\Users\stapi\AppData\Local\Temp\ccgBjMFA.s:1743   .text.alcs_add_svr_key:00000000000000fe .L0 
C:\Users\stapi\AppData\Local\Temp\ccgBjMFA.s:1746   .text.alcs_add_svr_key:00000000000000fe .L0 
C:\Users\stapi\AppData\Local\Temp\ccgBjMFA.s:1749   .text.alcs_add_svr_key:00000000000000fe .L0 
C:\Users\stapi\AppData\Local\Temp\ccgBjMFA.s:1750   .text.alcs_add_svr_key:00000000000000fe .L0 
C:\Users\stapi\AppData\Local\Temp\ccgBjMFA.s:1755   .text.alcs_add_svr_key:0000000000000104 .L0 
C:\Users\stapi\AppData\Local\Temp\ccgBjMFA.s:1756   .text.alcs_add_svr_key:0000000000000104 .L0 
C:\Users\stapi\AppData\Local\Temp\ccgBjMFA.s:1760   .text.alcs_add_svr_key:0000000000000110 .L0 
C:\Users\stapi\AppData\Local\Temp\ccgBjMFA.s:1765   .text.alcs_add_svr_key:0000000000000120 .L0 
C:\Users\stapi\AppData\Local\Temp\ccgBjMFA.s:1769   .text.alcs_add_svr_key:000000000000012c .L0 
C:\Users\stapi\AppData\Local\Temp\ccgBjMFA.s:1770   .text.alcs_add_svr_key:000000000000012c .L0 
C:\Users\stapi\AppData\Local\Temp\ccgBjMFA.s:1776   .text.alcs_add_svr_key:0000000000000136 .L0 
C:\Users\stapi\AppData\Local\Temp\ccgBjMFA.s:1777   .text.alcs_add_svr_key:0000000000000136 .L0 
C:\Users\stapi\AppData\Local\Temp\ccgBjMFA.s:1778   .text.alcs_add_svr_key:0000000000000136 .L0 
C:\Users\stapi\AppData\Local\Temp\ccgBjMFA.s:1782   .text.alcs_add_svr_key:0000000000000142 .L0 
C:\Users\stapi\AppData\Local\Temp\ccgBjMFA.s:1787   .text.alcs_add_svr_key:0000000000000152 .L0 
C:\Users\stapi\AppData\Local\Temp\ccgBjMFA.s:1791   .text.alcs_add_svr_key:000000000000015e .L0 
C:\Users\stapi\AppData\Local\Temp\ccgBjMFA.s:1792   .text.alcs_add_svr_key:000000000000015e .L0 
C:\Users\stapi\AppData\Local\Temp\ccgBjMFA.s:1796   .text.alcs_add_svr_key:0000000000000168 .L0 
C:\Users\stapi\AppData\Local\Temp\ccgBjMFA.s:1797   .text.alcs_add_svr_key:0000000000000168 .L0 
C:\Users\stapi\AppData\Local\Temp\ccgBjMFA.s:1805   .text.alcs_add_svr_key:0000000000000172 .L0 
C:\Users\stapi\AppData\Local\Temp\ccgBjMFA.s:1808   .text.alcs_add_svr_key:000000000000017a .L0 
C:\Users\stapi\AppData\Local\Temp\ccgBjMFA.s:1809   .text.alcs_add_svr_key:000000000000017a .L0 
C:\Users\stapi\AppData\Local\Temp\ccgBjMFA.s:1813   .text.alcs_add_svr_key:0000000000000186 .L0 
C:\Users\stapi\AppData\Local\Temp\ccgBjMFA.s:1818   .text.alcs_add_svr_key:0000000000000196 .L0 
C:\Users\stapi\AppData\Local\Temp\ccgBjMFA.s:1822   .text.alcs_add_svr_key:00000000000001a2 .L0 
C:\Users\stapi\AppData\Local\Temp\ccgBjMFA.s:1823   .text.alcs_add_svr_key:00000000000001a2 .L0 
C:\Users\stapi\AppData\Local\Temp\ccgBjMFA.s:1824   .text.alcs_add_svr_key:00000000000001a2 .L0 
C:\Users\stapi\AppData\Local\Temp\ccgBjMFA.s:1832   .text.alcs_add_svr_key:00000000000001b2 .L0 
C:\Users\stapi\AppData\Local\Temp\ccgBjMFA.s:1833   .text.alcs_add_svr_key:00000000000001b2 .L0 
C:\Users\stapi\AppData\Local\Temp\ccgBjMFA.s:1835   .text.alcs_add_svr_key:00000000000001b4 .L0 
C:\Users\stapi\AppData\Local\Temp\ccgBjMFA.s:1841   .text.alcs_add_svr_key:00000000000001be .L0 
C:\Users\stapi\AppData\Local\Temp\ccgBjMFA.s:1842   .text.alcs_add_svr_key:00000000000001be .L0 
C:\Users\stapi\AppData\Local\Temp\ccgBjMFA.s:1843   .text.alcs_add_svr_key:00000000000001be .L0 
C:\Users\stapi\AppData\Local\Temp\ccgBjMFA.s:1850   .text.alcs_add_svr_key:00000000000001c4 .L0 
C:\Users\stapi\AppData\Local\Temp\ccgBjMFA.s:1851   .text.alcs_add_svr_key:00000000000001c4 .L0 
C:\Users\stapi\AppData\Local\Temp\ccgBjMFA.s:1855   .text.alcs_add_svr_key:00000000000001d0 .L0 
C:\Users\stapi\AppData\Local\Temp\ccgBjMFA.s:1860   .text.alcs_add_svr_key:00000000000001e0 .L0 
C:\Users\stapi\AppData\Local\Temp\ccgBjMFA.s:1864   .text.alcs_add_svr_key:00000000000001ec .L0 
C:\Users\stapi\AppData\Local\Temp\ccgBjMFA.s:1865   .text.alcs_add_svr_key:00000000000001ec .L0 
C:\Users\stapi\AppData\Local\Temp\ccgBjMFA.s:1867   .text.alcs_add_svr_key:00000000000001ee .L0 
C:\Users\stapi\AppData\Local\Temp\ccgBjMFA.s:1869   .text.alcs_add_svr_key:00000000000001f2 .L0 
C:\Users\stapi\AppData\Local\Temp\ccgBjMFA.s:1876   .text.alcs_add_svr_key:00000000000001fc .L0 
C:\Users\stapi\AppData\Local\Temp\ccgBjMFA.s:1879   .text.alcs_add_svr_key:0000000000000204 .L0 
C:\Users\stapi\AppData\Local\Temp\ccgBjMFA.s:1880   .text.alcs_add_svr_key:0000000000000204 .L0 
C:\Users\stapi\AppData\Local\Temp\ccgBjMFA.s:1884   .text.alcs_add_svr_key:0000000000000210 .L0 
C:\Users\stapi\AppData\Local\Temp\ccgBjMFA.s:1888   .text.alcs_add_svr_key:000000000000021c .L0 
C:\Users\stapi\AppData\Local\Temp\ccgBjMFA.s:1892   .text.alcs_add_svr_key:0000000000000228 .L0 
C:\Users\stapi\AppData\Local\Temp\ccgBjMFA.s:1893   .text.alcs_add_svr_key:0000000000000228 .L0 
C:\Users\stapi\AppData\Local\Temp\ccgBjMFA.s:1894   .text.alcs_add_svr_key:0000000000000228 .L0 
C:\Users\stapi\AppData\Local\Temp\ccgBjMFA.s:1897   .text.alcs_add_svr_key:0000000000000230 .L0 
C:\Users\stapi\AppData\Local\Temp\ccgBjMFA.s:1903   .text.alcs_add_svr_key:000000000000023c .L0 
C:\Users\stapi\AppData\Local\Temp\ccgBjMFA.s:1904   .text.alcs_add_svr_key:000000000000023c .L0 
C:\Users\stapi\AppData\Local\Temp\ccgBjMFA.s:1905   .text.alcs_add_svr_key:000000000000023c .L0 
C:\Users\stapi\AppData\Local\Temp\ccgBjMFA.s:1907   .text.alcs_add_svr_key:0000000000000240 .L0 
C:\Users\stapi\AppData\Local\Temp\ccgBjMFA.s:1910   .text.alcs_add_svr_key:0000000000000244 .L0 
C:\Users\stapi\AppData\Local\Temp\ccgBjMFA.s:1913   .text.alcs_add_svr_key:0000000000000244 .L0 
C:\Users\stapi\AppData\Local\Temp\ccgBjMFA.s:1914   .text.alcs_add_svr_key:0000000000000244 .L0 
C:\Users\stapi\AppData\Local\Temp\ccgBjMFA.s:1918   .text.alcs_add_svr_key:0000000000000246 .L0 
C:\Users\stapi\AppData\Local\Temp\ccgBjMFA.s:1920   .text.alcs_add_svr_key:0000000000000248 .L0 
C:\Users\stapi\AppData\Local\Temp\ccgBjMFA.s:1921   .text.alcs_add_svr_key:0000000000000248 .L0 
C:\Users\stapi\AppData\Local\Temp\ccgBjMFA.s:1926   .text.alcs_add_svr_key:000000000000024a .L0 
C:\Users\stapi\AppData\Local\Temp\ccgBjMFA.s:1929   .text.alcs_add_svr_key:0000000000000252 .L0 
C:\Users\stapi\AppData\Local\Temp\ccgBjMFA.s:1935   .text.alcs_add_svr_key:000000000000025c .L0 
C:\Users\stapi\AppData\Local\Temp\ccgBjMFA.s:1946   .text.alcs_add_svr_key:0000000000000268 .L0 
C:\Users\stapi\AppData\Local\Temp\ccgBjMFA.s:1947   .text.alcs_add_svr_key:0000000000000268 .L0 
C:\Users\stapi\AppData\Local\Temp\ccgBjMFA.s:1951   .text.alcs_add_svr_key:000000000000026e .L0 
C:\Users\stapi\AppData\Local\Temp\ccgBjMFA.s:1955   .text.alcs_add_svr_key:0000000000000278 .L0 
C:\Users\stapi\AppData\Local\Temp\ccgBjMFA.s:1956   .text.alcs_add_svr_key:0000000000000278 .L0 
C:\Users\stapi\AppData\Local\Temp\ccgBjMFA.s:1962   .text.alcs_add_svr_key:000000000000027c .L0 
C:\Users\stapi\AppData\Local\Temp\ccgBjMFA.s:1964   .text.alcs_add_svr_key:0000000000000286 .L0 
C:\Users\stapi\AppData\Local\Temp\ccgBjMFA.s:1965   .text.alcs_add_svr_key:0000000000000286 .L0 
C:\Users\stapi\AppData\Local\Temp\ccgBjMFA.s:1966   .text.alcs_add_svr_key:0000000000000286 .L0 
C:\Users\stapi\AppData\Local\Temp\ccgBjMFA.s:1967   .text.alcs_add_svr_key:0000000000000286 .L0 
C:\Users\stapi\AppData\Local\Temp\ccgBjMFA.s:1968   .text.alcs_add_svr_key:0000000000000286 .L0 
C:\Users\stapi\AppData\Local\Temp\ccgBjMFA.s:1969   .text.alcs_add_svr_key:0000000000000286 .L0 
C:\Users\stapi\AppData\Local\Temp\ccgBjMFA.s:1970   .text.alcs_add_svr_key:0000000000000286 .L0 
C:\Users\stapi\AppData\Local\Temp\ccgBjMFA.s:1971   .text.alcs_add_svr_key:0000000000000286 .L0 
C:\Users\stapi\AppData\Local\Temp\ccgBjMFA.s:1972   .text.alcs_add_svr_key:0000000000000286 .L0 
C:\Users\stapi\AppData\Local\Temp\ccgBjMFA.s:1973   .text.alcs_add_svr_key:0000000000000286 .L0 
C:\Users\stapi\AppData\Local\Temp\ccgBjMFA.s:1974   .text.alcs_add_svr_key:0000000000000286 .L0 
C:\Users\stapi\AppData\Local\Temp\ccgBjMFA.s:1975   .text.alcs_add_svr_key:0000000000000286 .L0 
C:\Users\stapi\AppData\Local\Temp\ccgBjMFA.s:1976   .text.alcs_add_svr_key:0000000000000286 .L0 
C:\Users\stapi\AppData\Local\Temp\ccgBjMFA.s:1979   .text.alcs_add_svr_key:0000000000000286 .L0 
C:\Users\stapi\AppData\Local\Temp\ccgBjMFA.s:1983   .text.alcs_add_svr_key:0000000000000286 .L0 
C:\Users\stapi\AppData\Local\Temp\ccgBjMFA.s:1992   .text.alcs_add_svr_key:0000000000000290 .L0 
C:\Users\stapi\AppData\Local\Temp\ccgBjMFA.s:1993   .text.alcs_add_svr_key:0000000000000290 .L0 
C:\Users\stapi\AppData\Local\Temp\ccgBjMFA.s:1998   .text.alcs_add_svr_key:000000000000029c .L0 
C:\Users\stapi\AppData\Local\Temp\ccgBjMFA.s:2003   .text.alcs_add_svr_key:00000000000002ac .L0 
C:\Users\stapi\AppData\Local\Temp\ccgBjMFA.s:2007   .text.alcs_add_svr_key:00000000000002b8 .L0 
C:\Users\stapi\AppData\Local\Temp\ccgBjMFA.s:2008   .text.alcs_add_svr_key:00000000000002b8 .L0 
C:\Users\stapi\AppData\Local\Temp\ccgBjMFA.s:2014   .text.alcs_add_svr_key:00000000000002c6 .L0 
C:\Users\stapi\AppData\Local\Temp\ccgBjMFA.s:2015   .text.alcs_add_svr_key:00000000000002c6 .L0 
C:\Users\stapi\AppData\Local\Temp\ccgBjMFA.s:2024   .text.alcs_add_svr_key:00000000000002e0 .L0 
C:\Users\stapi\AppData\Local\Temp\ccgBjMFA.s:2026   .text.alcs_add_svr_key:00000000000002e4 .L0 
C:\Users\stapi\AppData\Local\Temp\ccgBjMFA.s:2027   .text.alcs_add_svr_key:00000000000002e4 .L0 
C:\Users\stapi\AppData\Local\Temp\ccgBjMFA.s:2029   .text.alcs_add_svr_key:00000000000002e6 .L0 
C:\Users\stapi\AppData\Local\Temp\ccgBjMFA.s:2033   .text.alcs_add_svr_key:00000000000002f0 .L0 
C:\Users\stapi\AppData\Local\Temp\ccgBjMFA.s:2039   .text.alcs_add_svr_key:00000000000002fc .L0 
C:\Users\stapi\AppData\Local\Temp\ccgBjMFA.s:2040   .text.alcs_add_svr_key:00000000000002fc .L0 
C:\Users\stapi\AppData\Local\Temp\ccgBjMFA.s:2044   .text.alcs_add_svr_key:0000000000000308 .L0 
C:\Users\stapi\AppData\Local\Temp\ccgBjMFA.s:2049   .text.alcs_add_svr_key:0000000000000318 .L0 
C:\Users\stapi\AppData\Local\Temp\ccgBjMFA.s:2053   .text.alcs_add_svr_key:0000000000000324 .L0 
C:\Users\stapi\AppData\Local\Temp\ccgBjMFA.s:2054   .text.alcs_add_svr_key:0000000000000324 .L0 
C:\Users\stapi\AppData\Local\Temp\ccgBjMFA.s:2055   .text.alcs_add_svr_key:0000000000000324 .L0 
C:\Users\stapi\AppData\Local\Temp\ccgBjMFA.s:2059   .text.alcs_add_svr_key:000000000000032e .L0 
C:\Users\stapi\AppData\Local\Temp\ccgBjMFA.s:2065   .text.alcs_add_svr_key:0000000000000340 .L0 
C:\Users\stapi\AppData\Local\Temp\ccgBjMFA.s:2070   .text.alcs_add_svr_key:000000000000034e .L0 
C:\Users\stapi\AppData\Local\Temp\ccgBjMFA.s:2075   .text.alcs_add_svr_key:000000000000035a .L0 
C:\Users\stapi\AppData\Local\Temp\ccgBjMFA.s:2076   .text.alcs_add_svr_key:000000000000035a .L0 
C:\Users\stapi\AppData\Local\Temp\ccgBjMFA.s:2078   .text.alcs_add_svr_key:000000000000035e .L0 
C:\Users\stapi\AppData\Local\Temp\ccgBjMFA.s:2080   .text.alcs_add_svr_key:0000000000000362 .L0 
C:\Users\stapi\AppData\Local\Temp\ccgBjMFA.s:2081   .text.alcs_add_svr_key:0000000000000362 .L0 
C:\Users\stapi\AppData\Local\Temp\ccgBjMFA.s:2084   .text.alcs_add_svr_key:000000000000036a .L0 
C:\Users\stapi\AppData\Local\Temp\ccgBjMFA.s:2089   .text.alcs_add_svr_key:000000000000037a .L0 
C:\Users\stapi\AppData\Local\Temp\ccgBjMFA.s:2093   .text.alcs_add_svr_key:0000000000000386 .L0 
C:\Users\stapi\AppData\Local\Temp\ccgBjMFA.s:2096   .text.alcs_add_svr_key:0000000000000386 .L0 
C:\Users\stapi\AppData\Local\Temp\ccgBjMFA.s:2097   .text.alcs_add_svr_key:0000000000000386 .L0 
C:\Users\stapi\AppData\Local\Temp\ccgBjMFA.s:2101   .text.alcs_add_svr_key:0000000000000388 .L0 
C:\Users\stapi\AppData\Local\Temp\ccgBjMFA.s:2108   .text.alcs_add_svr_key:000000000000038c .L0 
C:\Users\stapi\AppData\Local\Temp\ccgBjMFA.s:2109   .text.alcs_add_svr_key:000000000000038c .L0 
C:\Users\stapi\AppData\Local\Temp\ccgBjMFA.s:2110   .text.alcs_add_svr_key:000000000000038c .L0 
C:\Users\stapi\AppData\Local\Temp\ccgBjMFA.s:2112   .text.alcs_add_svr_key:0000000000000390 .L0 
C:\Users\stapi\AppData\Local\Temp\ccgBjMFA.s:2113   .text.alcs_add_svr_key:0000000000000390 .L0 
C:\Users\stapi\AppData\Local\Temp\ccgBjMFA.s:2115   .text.alcs_add_svr_key:0000000000000394 .L0 
C:\Users\stapi\AppData\Local\Temp\ccgBjMFA.s:2116   .text.alcs_add_svr_key:0000000000000394 .L0 
C:\Users\stapi\AppData\Local\Temp\ccgBjMFA.s:2118   .text.alcs_add_svr_key:0000000000000396 .L0 
C:\Users\stapi\AppData\Local\Temp\ccgBjMFA.s:2119   .text.alcs_add_svr_key:0000000000000396 .L0 
C:\Users\stapi\AppData\Local\Temp\ccgBjMFA.s:2126   .text.alcs_add_svr_key:0000000000000398 .L0 
C:\Users\stapi\AppData\Local\Temp\ccgBjMFA.s:2128   .text.alcs_add_svr_key:000000000000039c .L0 
C:\Users\stapi\AppData\Local\Temp\ccgBjMFA.s:2130   .text.alcs_add_svr_key:000000000000039e .L0 
C:\Users\stapi\AppData\Local\Temp\ccgBjMFA.s:2133   .text.alcs_add_svr_key:00000000000003a4 .L0 
C:\Users\stapi\AppData\Local\Temp\ccgBjMFA.s:2136   .text.alcs_add_svr_key:00000000000003ac .L0 
C:\Users\stapi\AppData\Local\Temp\ccgBjMFA.s:2137   .text.alcs_add_svr_key:00000000000003ac .L0 
C:\Users\stapi\AppData\Local\Temp\ccgBjMFA.s:2141   .text.alcs_add_svr_key:00000000000003b8 .L0 
C:\Users\stapi\AppData\Local\Temp\ccgBjMFA.s:2146   .text.alcs_add_svr_key:00000000000003c8 .L0 
C:\Users\stapi\AppData\Local\Temp\ccgBjMFA.s:2150   .text.alcs_add_svr_key:00000000000003d4 .L0 
C:\Users\stapi\AppData\Local\Temp\ccgBjMFA.s:2151   .text.alcs_add_svr_key:00000000000003d4 .L0 
C:\Users\stapi\AppData\Local\Temp\ccgBjMFA.s:2152   .text.alcs_add_svr_key:00000000000003d4 .L0 
C:\Users\stapi\AppData\Local\Temp\ccgBjMFA.s:2156   .text.alcs_add_svr_key:00000000000003d8 .L0 
C:\Users\stapi\AppData\Local\Temp\ccgBjMFA.s:2163   .text.alcs_remove_svr_key:0000000000000000 alcs_remove_svr_key
C:\Users\stapi\AppData\Local\Temp\ccgBjMFA.s:2166   .text.alcs_remove_svr_key:0000000000000000 .L0 
C:\Users\stapi\AppData\Local\Temp\ccgBjMFA.s:2168   .text.alcs_remove_svr_key:0000000000000000 .L0 
C:\Users\stapi\AppData\Local\Temp\ccgBjMFA.s:2169   .text.alcs_remove_svr_key:0000000000000008 .L0 
C:\Users\stapi\AppData\Local\Temp\ccgBjMFA.s:2170   .text.alcs_remove_svr_key:0000000000000008 .L0 
C:\Users\stapi\AppData\Local\Temp\ccgBjMFA.s:2171   .text.alcs_remove_svr_key:0000000000000008 .L0 
C:\Users\stapi\AppData\Local\Temp\ccgBjMFA.s:2172   .text.alcs_remove_svr_key:0000000000000008 .L0 
C:\Users\stapi\AppData\Local\Temp\ccgBjMFA.s:2173   .text.alcs_remove_svr_key:0000000000000008 .L0 
C:\Users\stapi\AppData\Local\Temp\ccgBjMFA.s:2174   .text.alcs_remove_svr_key:0000000000000008 .L0 
C:\Users\stapi\AppData\Local\Temp\ccgBjMFA.s:2175   .text.alcs_remove_svr_key:0000000000000008 .L0 
C:\Users\stapi\AppData\Local\Temp\ccgBjMFA.s:2178   .text.alcs_remove_svr_key:0000000000000008 .L0 
C:\Users\stapi\AppData\Local\Temp\ccgBjMFA.s:2179   .text.alcs_remove_svr_key:0000000000000008 .L0 
C:\Users\stapi\AppData\Local\Temp\ccgBjMFA.s:2180   .text.alcs_remove_svr_key:0000000000000008 .L0 
C:\Users\stapi\AppData\Local\Temp\ccgBjMFA.s:2181   .text.alcs_remove_svr_key:0000000000000008 .L0 
C:\Users\stapi\AppData\Local\Temp\ccgBjMFA.s:2186   .text.alcs_remove_svr_key:0000000000000012 .L0 
C:\Users\stapi\AppData\Local\Temp\ccgBjMFA.s:2188   .text.alcs_remove_svr_key:0000000000000014 .L0 
C:\Users\stapi\AppData\Local\Temp\ccgBjMFA.s:2190   .text.alcs_remove_svr_key:0000000000000018 .L0 
C:\Users\stapi\AppData\Local\Temp\ccgBjMFA.s:2193   .text.alcs_remove_svr_key:0000000000000020 .L0 
C:\Users\stapi\AppData\Local\Temp\ccgBjMFA.s:2203   .text.alcs_remove_svr_key:0000000000000034 .L0 
C:\Users\stapi\AppData\Local\Temp\ccgBjMFA.s:2206   .text.alcs_remove_svr_key:000000000000003c .L0 
C:\Users\stapi\AppData\Local\Temp\ccgBjMFA.s:2207   .text.alcs_remove_svr_key:000000000000003c .L0 
C:\Users\stapi\AppData\Local\Temp\ccgBjMFA.s:2212   .text.alcs_remove_svr_key:0000000000000048 .L0 
C:\Users\stapi\AppData\Local\Temp\ccgBjMFA.s:2214   .text.alcs_remove_svr_key:000000000000004a .L0 
C:\Users\stapi\AppData\Local\Temp\ccgBjMFA.s:2220   .text.alcs_remove_svr_key:0000000000000054 .L0 
C:\Users\stapi\AppData\Local\Temp\ccgBjMFA.s:2221   .text.alcs_remove_svr_key:0000000000000054 .L0 
C:\Users\stapi\AppData\Local\Temp\ccgBjMFA.s:2222   .text.alcs_remove_svr_key:0000000000000054 .L0 
C:\Users\stapi\AppData\Local\Temp\ccgBjMFA.s:2224   .text.alcs_remove_svr_key:0000000000000056 .L0 
C:\Users\stapi\AppData\Local\Temp\ccgBjMFA.s:2227   .text.alcs_remove_svr_key:0000000000000058 .L0 
C:\Users\stapi\AppData\Local\Temp\ccgBjMFA.s:2230   .text.alcs_remove_svr_key:0000000000000058 .L0 
C:\Users\stapi\AppData\Local\Temp\ccgBjMFA.s:2231   .text.alcs_remove_svr_key:0000000000000058 .L0 
C:\Users\stapi\AppData\Local\Temp\ccgBjMFA.s:2235   .text.alcs_remove_svr_key:000000000000005a .L0 
C:\Users\stapi\AppData\Local\Temp\ccgBjMFA.s:2237   .text.alcs_remove_svr_key:000000000000005c .L0 
C:\Users\stapi\AppData\Local\Temp\ccgBjMFA.s:2238   .text.alcs_remove_svr_key:000000000000005c .L0 
C:\Users\stapi\AppData\Local\Temp\ccgBjMFA.s:2243   .text.alcs_remove_svr_key:000000000000005e .L0 
C:\Users\stapi\AppData\Local\Temp\ccgBjMFA.s:2246   .text.alcs_remove_svr_key:0000000000000066 .L0 
C:\Users\stapi\AppData\Local\Temp\ccgBjMFA.s:2251   .text.alcs_remove_svr_key:0000000000000070 .L0 
C:\Users\stapi\AppData\Local\Temp\ccgBjMFA.s:2252   .text.alcs_remove_svr_key:0000000000000070 .L0 
C:\Users\stapi\AppData\Local\Temp\ccgBjMFA.s:2256   .text.alcs_remove_svr_key:000000000000007a .L0 
C:\Users\stapi\AppData\Local\Temp\ccgBjMFA.s:2257   .text.alcs_remove_svr_key:000000000000007a .L0 
C:\Users\stapi\AppData\Local\Temp\ccgBjMFA.s:2259   .text.alcs_remove_svr_key:0000000000000084 .L0 
C:\Users\stapi\AppData\Local\Temp\ccgBjMFA.s:2260   .text.alcs_remove_svr_key:0000000000000084 .L0 
C:\Users\stapi\AppData\Local\Temp\ccgBjMFA.s:2261   .text.alcs_remove_svr_key:0000000000000084 .L0 
C:\Users\stapi\AppData\Local\Temp\ccgBjMFA.s:2262   .text.alcs_remove_svr_key:0000000000000084 .L0 
C:\Users\stapi\AppData\Local\Temp\ccgBjMFA.s:2263   .text.alcs_remove_svr_key:0000000000000084 .L0 
C:\Users\stapi\AppData\Local\Temp\ccgBjMFA.s:2264   .text.alcs_remove_svr_key:0000000000000084 .L0 
C:\Users\stapi\AppData\Local\Temp\ccgBjMFA.s:2265   .text.alcs_remove_svr_key:0000000000000084 .L0 
C:\Users\stapi\AppData\Local\Temp\ccgBjMFA.s:2266   .text.alcs_remove_svr_key:0000000000000084 .L0 
C:\Users\stapi\AppData\Local\Temp\ccgBjMFA.s:2268   .text.alcs_remove_svr_key:0000000000000084 .L0 
C:\Users\stapi\AppData\Local\Temp\ccgBjMFA.s:2271   .text.alcs_remove_svr_key:0000000000000084 .L0 
C:\Users\stapi\AppData\Local\Temp\ccgBjMFA.s:2277   .text.alcs_remove_svr_key:0000000000000090 .L0 
C:\Users\stapi\AppData\Local\Temp\ccgBjMFA.s:2284   .text.alcs_set_revocation:0000000000000000 alcs_set_revocation
C:\Users\stapi\AppData\Local\Temp\ccgBjMFA.s:2287   .text.alcs_set_revocation:0000000000000000 .L0 
C:\Users\stapi\AppData\Local\Temp\ccgBjMFA.s:2289   .text.alcs_set_revocation:0000000000000000 .L0 
C:\Users\stapi\AppData\Local\Temp\ccgBjMFA.s:2290   .text.alcs_set_revocation:0000000000000008 .L0 
C:\Users\stapi\AppData\Local\Temp\ccgBjMFA.s:2291   .text.alcs_set_revocation:0000000000000008 .L0 
C:\Users\stapi\AppData\Local\Temp\ccgBjMFA.s:2292   .text.alcs_set_revocation:0000000000000008 .L0 
C:\Users\stapi\AppData\Local\Temp\ccgBjMFA.s:2293   .text.alcs_set_revocation:0000000000000008 .L0 
C:\Users\stapi\AppData\Local\Temp\ccgBjMFA.s:2294   .text.alcs_set_revocation:0000000000000008 .L0 
C:\Users\stapi\AppData\Local\Temp\ccgBjMFA.s:2297   .text.alcs_set_revocation:0000000000000008 .L0 
C:\Users\stapi\AppData\Local\Temp\ccgBjMFA.s:2298   .text.alcs_set_revocation:0000000000000008 .L0 
C:\Users\stapi\AppData\Local\Temp\ccgBjMFA.s:2299   .text.alcs_set_revocation:0000000000000008 .L0 
C:\Users\stapi\AppData\Local\Temp\ccgBjMFA.s:2304   .text.alcs_set_revocation:0000000000000012 .L0 
C:\Users\stapi\AppData\Local\Temp\ccgBjMFA.s:2307   .text.alcs_set_revocation:0000000000000018 .L0 
C:\Users\stapi\AppData\Local\Temp\ccgBjMFA.s:2310   .text.alcs_set_revocation:0000000000000020 .L0 
C:\Users\stapi\AppData\Local\Temp\ccgBjMFA.s:2312   .text.alcs_set_revocation:0000000000000022 .L0 
C:\Users\stapi\AppData\Local\Temp\ccgBjMFA.s:2314   .text.alcs_set_revocation:0000000000000024 .L0 
C:\Users\stapi\AppData\Local\Temp\ccgBjMFA.s:2321   .text.alcs_set_revocation:0000000000000030 .L0 
C:\Users\stapi\AppData\Local\Temp\ccgBjMFA.s:2322   .text.alcs_set_revocation:0000000000000030 .L0 
C:\Users\stapi\AppData\Local\Temp\ccgBjMFA.s:2324   .text.alcs_set_revocation:0000000000000032 .L0 
C:\Users\stapi\AppData\Local\Temp\ccgBjMFA.s:2326   .text.alcs_set_revocation:0000000000000034 .L0 
C:\Users\stapi\AppData\Local\Temp\ccgBjMFA.s:2329   .text.alcs_set_revocation:000000000000003c .L0 
C:\Users\stapi\AppData\Local\Temp\ccgBjMFA.s:2330   .text.alcs_set_revocation:000000000000003c .L0 
C:\Users\stapi\AppData\Local\Temp\ccgBjMFA.s:2333   .text.alcs_set_revocation:0000000000000040 .L0 
C:\Users\stapi\AppData\Local\Temp\ccgBjMFA.s:2334   .text.alcs_set_revocation:0000000000000040 .L0 
C:\Users\stapi\AppData\Local\Temp\ccgBjMFA.s:2336   .text.alcs_set_revocation:0000000000000044 .L0 
C:\Users\stapi\AppData\Local\Temp\ccgBjMFA.s:2337   .text.alcs_set_revocation:0000000000000044 .L0 
C:\Users\stapi\AppData\Local\Temp\ccgBjMFA.s:2343   .text.alcs_set_revocation:0000000000000054 .L0 
C:\Users\stapi\AppData\Local\Temp\ccgBjMFA.s:2345   .text.alcs_set_revocation:0000000000000056 .L0 
C:\Users\stapi\AppData\Local\Temp\ccgBjMFA.s:2347   .text.alcs_set_revocation:0000000000000058 .L0 
C:\Users\stapi\AppData\Local\Temp\ccgBjMFA.s:2351   .text.alcs_set_revocation:0000000000000060 .L0 
C:\Users\stapi\AppData\Local\Temp\ccgBjMFA.s:2355   .text.alcs_set_revocation:000000000000006a .L0 
C:\Users\stapi\AppData\Local\Temp\ccgBjMFA.s:2356   .text.alcs_set_revocation:000000000000006a .L0 
C:\Users\stapi\AppData\Local\Temp\ccgBjMFA.s:2358   .text.alcs_set_revocation:0000000000000074 .L0 
C:\Users\stapi\AppData\Local\Temp\ccgBjMFA.s:2359   .text.alcs_set_revocation:0000000000000074 .L0 
C:\Users\stapi\AppData\Local\Temp\ccgBjMFA.s:2360   .text.alcs_set_revocation:0000000000000074 .L0 
C:\Users\stapi\AppData\Local\Temp\ccgBjMFA.s:2361   .text.alcs_set_revocation:0000000000000074 .L0 
C:\Users\stapi\AppData\Local\Temp\ccgBjMFA.s:2362   .text.alcs_set_revocation:0000000000000074 .L0 
C:\Users\stapi\AppData\Local\Temp\ccgBjMFA.s:2363   .text.alcs_set_revocation:0000000000000074 .L0 
C:\Users\stapi\AppData\Local\Temp\ccgBjMFA.s:2370   .text.send_err_rsp:0000000000000000 send_err_rsp
C:\Users\stapi\AppData\Local\Temp\ccgBjMFA.s:2373   .text.send_err_rsp:0000000000000000 .L0 
C:\Users\stapi\AppData\Local\Temp\ccgBjMFA.s:2375   .text.send_err_rsp:0000000000000000 .L0 
C:\Users\stapi\AppData\Local\Temp\ccgBjMFA.s:2376   .text.send_err_rsp:0000000000000008 .L0 
C:\Users\stapi\AppData\Local\Temp\ccgBjMFA.s:2377   .text.send_err_rsp:0000000000000008 .L0 
C:\Users\stapi\AppData\Local\Temp\ccgBjMFA.s:2378   .text.send_err_rsp:0000000000000008 .L0 
C:\Users\stapi\AppData\Local\Temp\ccgBjMFA.s:2379   .text.send_err_rsp:0000000000000008 .L0 
C:\Users\stapi\AppData\Local\Temp\ccgBjMFA.s:2380   .text.send_err_rsp:0000000000000008 .L0 
C:\Users\stapi\AppData\Local\Temp\ccgBjMFA.s:2382   .text.send_err_rsp:0000000000000008 .L0 
C:\Users\stapi\AppData\Local\Temp\ccgBjMFA.s:2383   .text.send_err_rsp:0000000000000008 .L0 
C:\Users\stapi\AppData\Local\Temp\ccgBjMFA.s:2384   .text.send_err_rsp:0000000000000008 .L0 
C:\Users\stapi\AppData\Local\Temp\ccgBjMFA.s:2385   .text.send_err_rsp:000000000000000a .L0 
C:\Users\stapi\AppData\Local\Temp\ccgBjMFA.s:2387   .text.send_err_rsp:000000000000000a .L0 
C:\Users\stapi\AppData\Local\Temp\ccgBjMFA.s:2390   .text.send_err_rsp:000000000000000e .L0 
C:\Users\stapi\AppData\Local\Temp\ccgBjMFA.s:2398   .text.send_err_rsp:0000000000000018 .L0 
C:\Users\stapi\AppData\Local\Temp\ccgBjMFA.s:2400   .text.send_err_rsp:000000000000001a .L0 
C:\Users\stapi\AppData\Local\Temp\ccgBjMFA.s:2403   .text.send_err_rsp:000000000000001e .L0 
C:\Users\stapi\AppData\Local\Temp\ccgBjMFA.s:2406   .text.send_err_rsp:0000000000000026 .L0 
C:\Users\stapi\AppData\Local\Temp\ccgBjMFA.s:2407   .text.send_err_rsp:0000000000000026 .L0 
C:\Users\stapi\AppData\Local\Temp\ccgBjMFA.s:2409   .text.send_err_rsp:0000000000000028 .L0 
C:\Users\stapi\AppData\Local\Temp\ccgBjMFA.s:2412   .text.send_err_rsp:000000000000002e .L0 
C:\Users\stapi\AppData\Local\Temp\ccgBjMFA.s:2416   .text.send_err_rsp:0000000000000034 .L0 
C:\Users\stapi\AppData\Local\Temp\ccgBjMFA.s:2418   .text.send_err_rsp:0000000000000038 .L0 
C:\Users\stapi\AppData\Local\Temp\ccgBjMFA.s:2420   .text.send_err_rsp:000000000000003a .L0 
C:\Users\stapi\AppData\Local\Temp\ccgBjMFA.s:2427   .text.send_err_rsp:000000000000004a .L0 
C:\Users\stapi\AppData\Local\Temp\ccgBjMFA.s:2428   .text.send_err_rsp:000000000000004c .L0 
C:\Users\stapi\AppData\Local\Temp\ccgBjMFA.s:2430   .text.send_err_rsp:0000000000000054 .L0 
C:\Users\stapi\AppData\Local\Temp\ccgBjMFA.s:2431   .text.send_err_rsp:0000000000000054 .L0 
C:\Users\stapi\AppData\Local\Temp\ccgBjMFA.s:2432   .text.send_err_rsp:0000000000000054 .L0 
C:\Users\stapi\AppData\Local\Temp\ccgBjMFA.s:2433   .text.send_err_rsp:0000000000000054 .L0 
C:\Users\stapi\AppData\Local\Temp\ccgBjMFA.s:2434   .text.send_err_rsp:0000000000000054 .L0 
C:\Users\stapi\AppData\Local\Temp\ccgBjMFA.s:2435   .text.send_err_rsp:0000000000000054 .L0 
C:\Users\stapi\AppData\Local\Temp\ccgBjMFA.s:2442   .text.call_cb:0000000000000000 call_cb
C:\Users\stapi\AppData\Local\Temp\ccgBjMFA.s:2445   .text.call_cb:0000000000000000 .L0 
C:\Users\stapi\AppData\Local\Temp\ccgBjMFA.s:2447   .text.call_cb:0000000000000000 .L0 
C:\Users\stapi\AppData\Local\Temp\ccgBjMFA.s:2448   .text.call_cb:0000000000000008 .L0 
C:\Users\stapi\AppData\Local\Temp\ccgBjMFA.s:2449   .text.call_cb:0000000000000008 .L0 
C:\Users\stapi\AppData\Local\Temp\ccgBjMFA.s:2450   .text.call_cb:0000000000000008 .L0 
C:\Users\stapi\AppData\Local\Temp\ccgBjMFA.s:2451   .text.call_cb:0000000000000008 .L0 
C:\Users\stapi\AppData\Local\Temp\ccgBjMFA.s:2452   .text.call_cb:0000000000000008 .L0 
C:\Users\stapi\AppData\Local\Temp\ccgBjMFA.s:2453   .text.call_cb:0000000000000008 .L0 
C:\Users\stapi\AppData\Local\Temp\ccgBjMFA.s:2454   .text.call_cb:0000000000000008 .L0 
C:\Users\stapi\AppData\Local\Temp\ccgBjMFA.s:2455   .text.call_cb:0000000000000008 .L0 
C:\Users\stapi\AppData\Local\Temp\ccgBjMFA.s:2456   .text.call_cb:0000000000000008 .L0 
C:\Users\stapi\AppData\Local\Temp\ccgBjMFA.s:2458   .text.call_cb:0000000000000008 .L0 
C:\Users\stapi\AppData\Local\Temp\ccgBjMFA.s:2459   .text.call_cb:0000000000000008 .L0 
C:\Users\stapi\AppData\Local\Temp\ccgBjMFA.s:2460   .text.call_cb:0000000000000008 .L0 
C:\Users\stapi\AppData\Local\Temp\ccgBjMFA.s:2461   .text.call_cb:000000000000000a .L0 
C:\Users\stapi\AppData\Local\Temp\ccgBjMFA.s:2463   .text.call_cb:000000000000000a .L0 
C:\Users\stapi\AppData\Local\Temp\ccgBjMFA.s:2468   .text.call_cb:0000000000000012 .L0 
C:\Users\stapi\AppData\Local\Temp\ccgBjMFA.s:2475   .text.call_cb:000000000000001a .L0 
C:\Users\stapi\AppData\Local\Temp\ccgBjMFA.s:2479   .text.call_cb:0000000000000020 .L0 
C:\Users\stapi\AppData\Local\Temp\ccgBjMFA.s:2482   .text.call_cb:0000000000000028 .L0 
C:\Users\stapi\AppData\Local\Temp\ccgBjMFA.s:2483   .text.call_cb:0000000000000028 .L0 
C:\Users\stapi\AppData\Local\Temp\ccgBjMFA.s:2485   .text.call_cb:000000000000002c .L0 
C:\Users\stapi\AppData\Local\Temp\ccgBjMFA.s:2488   .text.call_cb:000000000000002e .L0 
C:\Users\stapi\AppData\Local\Temp\ccgBjMFA.s:2489   .text.call_cb:000000000000002e .L0 
C:\Users\stapi\AppData\Local\Temp\ccgBjMFA.s:2496   .text.call_cb:0000000000000040 .L0 
C:\Users\stapi\AppData\Local\Temp\ccgBjMFA.s:2497   .text.call_cb:0000000000000040 .L0 
C:\Users\stapi\AppData\Local\Temp\ccgBjMFA.s:2499   .text.call_cb:0000000000000044 .L0 
C:\Users\stapi\AppData\Local\Temp\ccgBjMFA.s:2504   .text.call_cb:0000000000000046 .L0 
C:\Users\stapi\AppData\Local\Temp\ccgBjMFA.s:2505   .text.call_cb:0000000000000046 .L0 
C:\Users\stapi\AppData\Local\Temp\ccgBjMFA.s:2512   .text.call_cb:0000000000000050 .L0 
C:\Users\stapi\AppData\Local\Temp\ccgBjMFA.s:2513   .text.call_cb:0000000000000052 .L0 
C:\Users\stapi\AppData\Local\Temp\ccgBjMFA.s:2514   .text.call_cb:0000000000000052 .L0 
C:\Users\stapi\AppData\Local\Temp\ccgBjMFA.s:2516   .text.call_cb:000000000000005a .L0 
C:\Users\stapi\AppData\Local\Temp\ccgBjMFA.s:2517   .text.call_cb:000000000000005a .L0 
C:\Users\stapi\AppData\Local\Temp\ccgBjMFA.s:2518   .text.call_cb:000000000000005a .L0 
C:\Users\stapi\AppData\Local\Temp\ccgBjMFA.s:2519   .text.call_cb:000000000000005a .L0 
C:\Users\stapi\AppData\Local\Temp\ccgBjMFA.s:2520   .text.call_cb:000000000000005a .L0 
C:\Users\stapi\AppData\Local\Temp\ccgBjMFA.s:2521   .text.call_cb:000000000000005a .L0 
C:\Users\stapi\AppData\Local\Temp\ccgBjMFA.s:2522   .text.call_cb:000000000000005a .L0 
C:\Users\stapi\AppData\Local\Temp\ccgBjMFA.s:2523   .text.call_cb:000000000000005a .L0 
C:\Users\stapi\AppData\Local\Temp\ccgBjMFA.s:2524   .text.call_cb:000000000000005a .L0 
C:\Users\stapi\AppData\Local\Temp\ccgBjMFA.s:2526   .text.call_cb:000000000000005a .L0 
C:\Users\stapi\AppData\Local\Temp\ccgBjMFA.s:2528   .text.call_cb:000000000000005a .L0 
C:\Users\stapi\AppData\Local\Temp\ccgBjMFA.s:2529   .text.call_cb:000000000000005a .L0 
C:\Users\stapi\AppData\Local\Temp\ccgBjMFA.s:2531   .text.call_cb:000000000000005c .L0 
C:\Users\stapi\AppData\Local\Temp\ccgBjMFA.s:2532   .text.call_cb:000000000000005c .L0 
C:\Users\stapi\AppData\Local\Temp\ccgBjMFA.s:2534   .text.call_cb:0000000000000062 .L0 
C:\Users\stapi\AppData\Local\Temp\ccgBjMFA.s:2541   .text.add_request:0000000000000000 add_request
C:\Users\stapi\AppData\Local\Temp\ccgBjMFA.s:2544   .text.add_request:0000000000000000 .L0 
C:\Users\stapi\AppData\Local\Temp\ccgBjMFA.s:2546   .text.add_request:0000000000000000 .L0 
C:\Users\stapi\AppData\Local\Temp\ccgBjMFA.s:2547   .text.add_request:0000000000000008 .L0 
C:\Users\stapi\AppData\Local\Temp\ccgBjMFA.s:2548   .text.add_request:0000000000000008 .L0 
C:\Users\stapi\AppData\Local\Temp\ccgBjMFA.s:2549   .text.add_request:0000000000000008 .L0 
C:\Users\stapi\AppData\Local\Temp\ccgBjMFA.s:2550   .text.add_request:0000000000000008 .L0 
C:\Users\stapi\AppData\Local\Temp\ccgBjMFA.s:2551   .text.add_request:0000000000000008 .L0 
C:\Users\stapi\AppData\Local\Temp\ccgBjMFA.s:2552   .text.add_request:0000000000000008 .L0 
C:\Users\stapi\AppData\Local\Temp\ccgBjMFA.s:2553   .text.add_request:0000000000000008 .L0 
C:\Users\stapi\AppData\Local\Temp\ccgBjMFA.s:2554   .text.add_request:0000000000000008 .L0 
C:\Users\stapi\AppData\Local\Temp\ccgBjMFA.s:2556   .text.add_request:0000000000000008 .L0 
C:\Users\stapi\AppData\Local\Temp\ccgBjMFA.s:2557   .text.add_request:0000000000000008 .L0 
C:\Users\stapi\AppData\Local\Temp\ccgBjMFA.s:2558   .text.add_request:0000000000000008 .L0 
C:\Users\stapi\AppData\Local\Temp\ccgBjMFA.s:2559   .text.add_request:000000000000000a .L0 
C:\Users\stapi\AppData\Local\Temp\ccgBjMFA.s:2561   .text.add_request:000000000000000a .L0 
C:\Users\stapi\AppData\Local\Temp\ccgBjMFA.s:2564   .text.add_request:000000000000000e .L0 
C:\Users\stapi\AppData\Local\Temp\ccgBjMFA.s:2569   .text.add_request:0000000000000014 .L0 
C:\Users\stapi\AppData\Local\Temp\ccgBjMFA.s:2573   .text.add_request:000000000000001a .L0 
C:\Users\stapi\AppData\Local\Temp\ccgBjMFA.s:2576   .text.add_request:0000000000000022 .L0 
C:\Users\stapi\AppData\Local\Temp\ccgBjMFA.s:2578   .text.add_request:0000000000000024 .L0 
C:\Users\stapi\AppData\Local\Temp\ccgBjMFA.s:2582   .text.add_request:0000000000000028 .L0 
C:\Users\stapi\AppData\Local\Temp\ccgBjMFA.s:2583   .text.add_request:0000000000000028 .L0 
C:\Users\stapi\AppData\Local\Temp\ccgBjMFA.s:2588   .text.add_request:0000000000000032 .L0 
C:\Users\stapi\AppData\Local\Temp\ccgBjMFA.s:2595   .text.add_request:0000000000000040 .L0 
C:\Users\stapi\AppData\Local\Temp\ccgBjMFA.s:2596   .text.add_request:0000000000000040 .L0 
C:\Users\stapi\AppData\Local\Temp\ccgBjMFA.s:2599   .text.add_request:0000000000000042 .L0 
C:\Users\stapi\AppData\Local\Temp\ccgBjMFA.s:2604   .text.add_request:0000000000000050 .L0 
C:\Users\stapi\AppData\Local\Temp\ccgBjMFA.s:2605   .text.add_request:0000000000000050 .L0 
C:\Users\stapi\AppData\Local\Temp\ccgBjMFA.s:2607   .text.add_request:0000000000000054 .L0 
C:\Users\stapi\AppData\Local\Temp\ccgBjMFA.s:2608   .text.add_request:0000000000000054 .L0 
C:\Users\stapi\AppData\Local\Temp\ccgBjMFA.s:2610   .text.add_request:0000000000000058 .L0 
C:\Users\stapi\AppData\Local\Temp\ccgBjMFA.s:2611   .text.add_request:0000000000000058 .L0 
C:\Users\stapi\AppData\Local\Temp\ccgBjMFA.s:2614   .text.add_request:0000000000000060 .L0 
C:\Users\stapi\AppData\Local\Temp\ccgBjMFA.s:2617   .text.add_request:0000000000000064 .L0 
C:\Users\stapi\AppData\Local\Temp\ccgBjMFA.s:2623   .text.add_request:0000000000000074 .L0 
C:\Users\stapi\AppData\Local\Temp\ccgBjMFA.s:2624   .text.add_request:0000000000000074 .L0 
C:\Users\stapi\AppData\Local\Temp\ccgBjMFA.s:2626   .text.add_request:0000000000000078 .L0 
C:\Users\stapi\AppData\Local\Temp\ccgBjMFA.s:2633   .text.add_request:0000000000000088 .L0 
C:\Users\stapi\AppData\Local\Temp\ccgBjMFA.s:2634   .text.add_request:0000000000000088 .L0 
C:\Users\stapi\AppData\Local\Temp\ccgBjMFA.s:2636   .text.add_request:000000000000008c .L0 
C:\Users\stapi\AppData\Local\Temp\ccgBjMFA.s:2638   .text.add_request:000000000000008e .L0 
C:\Users\stapi\AppData\Local\Temp\ccgBjMFA.s:2645   .text.add_request:000000000000009e .L0 
C:\Users\stapi\AppData\Local\Temp\ccgBjMFA.s:2646   .text.add_request:000000000000009e .L0 
C:\Users\stapi\AppData\Local\Temp\ccgBjMFA.s:2647   .text.add_request:000000000000009e .L0 
C:\Users\stapi\AppData\Local\Temp\ccgBjMFA.s:2653   .text.add_request:00000000000000ac .L0 
C:\Users\stapi\AppData\Local\Temp\ccgBjMFA.s:2658   .text.add_request:00000000000000b8 .L0 
C:\Users\stapi\AppData\Local\Temp\ccgBjMFA.s:2664   .text.add_request:00000000000000c2 .L0 
C:\Users\stapi\AppData\Local\Temp\ccgBjMFA.s:2665   .text.add_request:00000000000000c4 .L0 
C:\Users\stapi\AppData\Local\Temp\ccgBjMFA.s:2667   .text.add_request:00000000000000cc .L0 
C:\Users\stapi\AppData\Local\Temp\ccgBjMFA.s:2668   .text.add_request:00000000000000cc .L0 
C:\Users\stapi\AppData\Local\Temp\ccgBjMFA.s:2669   .text.add_request:00000000000000cc .L0 
C:\Users\stapi\AppData\Local\Temp\ccgBjMFA.s:2670   .text.add_request:00000000000000cc .L0 
C:\Users\stapi\AppData\Local\Temp\ccgBjMFA.s:2671   .text.add_request:00000000000000cc .L0 
C:\Users\stapi\AppData\Local\Temp\ccgBjMFA.s:2672   .text.add_request:00000000000000cc .L0 
C:\Users\stapi\AppData\Local\Temp\ccgBjMFA.s:2673   .text.add_request:00000000000000cc .L0 
C:\Users\stapi\AppData\Local\Temp\ccgBjMFA.s:2674   .text.add_request:00000000000000cc .L0 
C:\Users\stapi\AppData\Local\Temp\ccgBjMFA.s:2675   .text.add_request:00000000000000cc .L0 
C:\Users\stapi\AppData\Local\Temp\ccgBjMFA.s:2698   .text.p2p_msg_handler:0000000000000000 p2p_msg_handler
C:\Users\stapi\AppData\Local\Temp\ccgBjMFA.s:2701   .text.p2p_msg_handler:0000000000000000 .L0 
C:\Users\stapi\AppData\Local\Temp\ccgBjMFA.s:2703   .text.p2p_msg_handler:0000000000000000 .L0 
C:\Users\stapi\AppData\Local\Temp\ccgBjMFA.s:2704   .text.p2p_msg_handler:0000000000000008 .L0 
C:\Users\stapi\AppData\Local\Temp\ccgBjMFA.s:2705   .text.p2p_msg_handler:0000000000000008 .L0 
C:\Users\stapi\AppData\Local\Temp\ccgBjMFA.s:2706   .text.p2p_msg_handler:0000000000000008 .L0 
C:\Users\stapi\AppData\Local\Temp\ccgBjMFA.s:2707   .text.p2p_msg_handler:0000000000000008 .L0 
C:\Users\stapi\AppData\Local\Temp\ccgBjMFA.s:2708   .text.p2p_msg_handler:0000000000000008 .L0 
C:\Users\stapi\AppData\Local\Temp\ccgBjMFA.s:2709   .text.p2p_msg_handler:0000000000000008 .L0 
C:\Users\stapi\AppData\Local\Temp\ccgBjMFA.s:2710   .text.p2p_msg_handler:0000000000000008 .L0 
C:\Users\stapi\AppData\Local\Temp\ccgBjMFA.s:2711   .text.p2p_msg_handler:0000000000000008 .L0 
C:\Users\stapi\AppData\Local\Temp\ccgBjMFA.s:2712   .text.p2p_msg_handler:0000000000000008 .L0 
C:\Users\stapi\AppData\Local\Temp\ccgBjMFA.s:2713   .text.p2p_msg_handler:0000000000000008 .L0 
C:\Users\stapi\AppData\Local\Temp\ccgBjMFA.s:2715   .text.p2p_msg_handler:0000000000000008 .L0 
C:\Users\stapi\AppData\Local\Temp\ccgBjMFA.s:2716   .text.p2p_msg_handler:0000000000000008 .L0 
C:\Users\stapi\AppData\Local\Temp\ccgBjMFA.s:2717   .text.p2p_msg_handler:000000000000000a .L0 
C:\Users\stapi\AppData\Local\Temp\ccgBjMFA.s:2719   .text.p2p_msg_handler:000000000000000a .L0 
C:\Users\stapi\AppData\Local\Temp\ccgBjMFA.s:2721   .text.p2p_msg_handler:000000000000000c .L0 
C:\Users\stapi\AppData\Local\Temp\ccgBjMFA.s:2724   .text.p2p_msg_handler:000000000000000e .L0 
C:\Users\stapi\AppData\Local\Temp\ccgBjMFA.s:2728   .text.p2p_msg_handler:0000000000000014 .L0 
C:\Users\stapi\AppData\Local\Temp\ccgBjMFA.s:2731   .text.p2p_msg_handler:000000000000001c .L0 
C:\Users\stapi\AppData\Local\Temp\ccgBjMFA.s:2732   .text.p2p_msg_handler:000000000000001c .L0 
C:\Users\stapi\AppData\Local\Temp\ccgBjMFA.s:2734   .text.p2p_msg_handler:0000000000000020 .L0 
C:\Users\stapi\AppData\Local\Temp\ccgBjMFA.s:2738   .text.p2p_msg_handler:000000000000002a .L0 
C:\Users\stapi\AppData\Local\Temp\ccgBjMFA.s:2739   .text.p2p_msg_handler:000000000000002a .L0 
C:\Users\stapi\AppData\Local\Temp\ccgBjMFA.s:2748   .text.p2p_msg_handler:0000000000000038 .L0 
C:\Users\stapi\AppData\Local\Temp\ccgBjMFA.s:2749   .text.p2p_msg_handler:0000000000000038 .L0 
C:\Users\stapi\AppData\Local\Temp\ccgBjMFA.s:2757   .text.p2p_msg_handler:0000000000000048 .L0 
C:\Users\stapi\AppData\Local\Temp\ccgBjMFA.s:2758   .text.p2p_msg_handler:0000000000000048 .L0 
C:\Users\stapi\AppData\Local\Temp\ccgBjMFA.s:2759   .text.p2p_msg_handler:0000000000000048 .L0 
C:\Users\stapi\AppData\Local\Temp\ccgBjMFA.s:2762   .text.p2p_msg_handler:000000000000004a .L0 
C:\Users\stapi\AppData\Local\Temp\ccgBjMFA.s:2763   .text.p2p_msg_handler:000000000000004a .L0 
C:\Users\stapi\AppData\Local\Temp\ccgBjMFA.s:2764   .text.p2p_msg_handler:000000000000004a .L0 
C:\Users\stapi\AppData\Local\Temp\ccgBjMFA.s:2765   .text.p2p_msg_handler:000000000000004a .L0 
C:\Users\stapi\AppData\Local\Temp\ccgBjMFA.s:2771   .text.p2p_msg_handler:000000000000005a .L0 
C:\Users\stapi\AppData\Local\Temp\ccgBjMFA.s:2773   .text.p2p_msg_handler:000000000000005c .L0 
C:\Users\stapi\AppData\Local\Temp\ccgBjMFA.s:2776   .text.p2p_msg_handler:000000000000005e .L0 
C:\Users\stapi\AppData\Local\Temp\ccgBjMFA.s:2788   .text.p2p_msg_handler:0000000000000084 .L0 
C:\Users\stapi\AppData\Local\Temp\ccgBjMFA.s:2789   .text.p2p_msg_handler:0000000000000084 .L0 
C:\Users\stapi\AppData\Local\Temp\ccgBjMFA.s:2792   .text.p2p_msg_handler:000000000000008a .L0 
C:\Users\stapi\AppData\Local\Temp\ccgBjMFA.s:2793   .text.p2p_msg_handler:000000000000008a .L0 
C:\Users\stapi\AppData\Local\Temp\ccgBjMFA.s:2796   .text.p2p_msg_handler:0000000000000092 .L0 
C:\Users\stapi\AppData\Local\Temp\ccgBjMFA.s:2798   .text.p2p_msg_handler:0000000000000094 .L0 
C:\Users\stapi\AppData\Local\Temp\ccgBjMFA.s:2799   .text.p2p_msg_handler:0000000000000094 .L0 
C:\Users\stapi\AppData\Local\Temp\ccgBjMFA.s:2804   .text.p2p_msg_handler:00000000000000a2 .L0 
C:\Users\stapi\AppData\Local\Temp\ccgBjMFA.s:2806   .text.p2p_msg_handler:00000000000000a4 .L0 
C:\Users\stapi\AppData\Local\Temp\ccgBjMFA.s:2807   .text.p2p_msg_handler:00000000000000a4 .L0 
C:\Users\stapi\AppData\Local\Temp\ccgBjMFA.s:2812   .text.p2p_msg_handler:00000000000000b4 .L0 
C:\Users\stapi\AppData\Local\Temp\ccgBjMFA.s:2819   .text.p2p_msg_handler:00000000000000c4 .L0 
C:\Users\stapi\AppData\Local\Temp\ccgBjMFA.s:2820   .text.p2p_msg_handler:00000000000000c4 .L0 
C:\Users\stapi\AppData\Local\Temp\ccgBjMFA.s:2829   .text.p2p_msg_handler:00000000000000d6 .L0 
C:\Users\stapi\AppData\Local\Temp\ccgBjMFA.s:2830   .text.p2p_msg_handler:00000000000000d6 .L0 
C:\Users\stapi\AppData\Local\Temp\ccgBjMFA.s:2833   .text.p2p_msg_handler:00000000000000dc .L0 
C:\Users\stapi\AppData\Local\Temp\ccgBjMFA.s:2835   .text.p2p_msg_handler:00000000000000de .L0 
C:\Users\stapi\AppData\Local\Temp\ccgBjMFA.s:2836   .text.p2p_msg_handler:00000000000000de .L0 
C:\Users\stapi\AppData\Local\Temp\ccgBjMFA.s:2841   .text.p2p_msg_handler:00000000000000ea .L0 
C:\Users\stapi\AppData\Local\Temp\ccgBjMFA.s:2843   .text.p2p_msg_handler:00000000000000ec .L0 
C:\Users\stapi\AppData\Local\Temp\ccgBjMFA.s:2844   .text.p2p_msg_handler:00000000000000ec .L0 
C:\Users\stapi\AppData\Local\Temp\ccgBjMFA.s:2849   .text.p2p_msg_handler:00000000000000fc .L0 
C:\Users\stapi\AppData\Local\Temp\ccgBjMFA.s:2854   .text.p2p_msg_handler:000000000000010c .L0 
C:\Users\stapi\AppData\Local\Temp\ccgBjMFA.s:2859   .text.p2p_msg_handler:000000000000011c .L0 
C:\Users\stapi\AppData\Local\Temp\ccgBjMFA.s:2862   .text.p2p_msg_handler:000000000000011c .L0 
C:\Users\stapi\AppData\Local\Temp\ccgBjMFA.s:2863   .text.p2p_msg_handler:000000000000011c .L0 
C:\Users\stapi\AppData\Local\Temp\ccgBjMFA.s:2864   .text.p2p_msg_handler:000000000000011c .L0 
C:\Users\stapi\AppData\Local\Temp\ccgBjMFA.s:2871   .text.p2p_msg_handler:000000000000012e .L0 
C:\Users\stapi\AppData\Local\Temp\ccgBjMFA.s:2872   .text.p2p_msg_handler:000000000000012e .L0 
C:\Users\stapi\AppData\Local\Temp\ccgBjMFA.s:2877   .text.p2p_msg_handler:000000000000013e .L0 
C:\Users\stapi\AppData\Local\Temp\ccgBjMFA.s:2888   .text.p2p_msg_handler:0000000000000154 .L0 
C:\Users\stapi\AppData\Local\Temp\ccgBjMFA.s:2889   .text.p2p_msg_handler:0000000000000154 .L0 
C:\Users\stapi\AppData\Local\Temp\ccgBjMFA.s:2890   .text.p2p_msg_handler:0000000000000154 .L0 
C:\Users\stapi\AppData\Local\Temp\ccgBjMFA.s:2896   .text.p2p_msg_handler:0000000000000162 .L0 
C:\Users\stapi\AppData\Local\Temp\ccgBjMFA.s:2897   .text.p2p_msg_handler:0000000000000162 .L0 
C:\Users\stapi\AppData\Local\Temp\ccgBjMFA.s:2901   .text.p2p_msg_handler:0000000000000168 .L0 
C:\Users\stapi\AppData\Local\Temp\ccgBjMFA.s:2909   .text.p2p_msg_handler:0000000000000178 .L0 
C:\Users\stapi\AppData\Local\Temp\ccgBjMFA.s:2910   .text.p2p_msg_handler:0000000000000178 .L0 
C:\Users\stapi\AppData\Local\Temp\ccgBjMFA.s:2918   .text.p2p_msg_handler:000000000000018a .L0 
C:\Users\stapi\AppData\Local\Temp\ccgBjMFA.s:2919   .text.p2p_msg_handler:000000000000018a .L0 
C:\Users\stapi\AppData\Local\Temp\ccgBjMFA.s:2922   .text.p2p_msg_handler:000000000000018c .L0 
C:\Users\stapi\AppData\Local\Temp\ccgBjMFA.s:2923   .text.p2p_msg_handler:000000000000018c .L0 
C:\Users\stapi\AppData\Local\Temp\ccgBjMFA.s:2930   .text.p2p_msg_handler:000000000000019c .L0 
C:\Users\stapi\AppData\Local\Temp\ccgBjMFA.s:2931   .text.p2p_msg_handler:000000000000019c .L0 
C:\Users\stapi\AppData\Local\Temp\ccgBjMFA.s:2940   .text.p2p_msg_handler:00000000000001b2 .L0 
C:\Users\stapi\AppData\Local\Temp\ccgBjMFA.s:2941   .text.p2p_msg_handler:00000000000001b2 .L0 
C:\Users\stapi\AppData\Local\Temp\ccgBjMFA.s:2943   .text.p2p_msg_handler:00000000000001b6 .L0 
C:\Users\stapi\AppData\Local\Temp\ccgBjMFA.s:2944   .text.p2p_msg_handler:00000000000001b6 .L0 
C:\Users\stapi\AppData\Local\Temp\ccgBjMFA.s:2947   .text.p2p_msg_handler:00000000000001bc .L0 
C:\Users\stapi\AppData\Local\Temp\ccgBjMFA.s:2950   .text.p2p_msg_handler:00000000000001be .L0 
C:\Users\stapi\AppData\Local\Temp\ccgBjMFA.s:2951   .text.p2p_msg_handler:00000000000001be .L0 
C:\Users\stapi\AppData\Local\Temp\ccgBjMFA.s:2958   .text.p2p_msg_handler:00000000000001cc .L0 
C:\Users\stapi\AppData\Local\Temp\ccgBjMFA.s:2959   .text.p2p_msg_handler:00000000000001cc .L0 
C:\Users\stapi\AppData\Local\Temp\ccgBjMFA.s:2965   .text.p2p_msg_handler:00000000000001da .L0 
C:\Users\stapi\AppData\Local\Temp\ccgBjMFA.s:2967   .text.p2p_msg_handler:00000000000001dc .L0 
C:\Users\stapi\AppData\Local\Temp\ccgBjMFA.s:2968   .text.p2p_msg_handler:00000000000001dc .L0 
C:\Users\stapi\AppData\Local\Temp\ccgBjMFA.s:2973   .text.p2p_msg_handler:00000000000001ec .L0 
C:\Users\stapi\AppData\Local\Temp\ccgBjMFA.s:2978   .text.p2p_msg_handler:00000000000001fc .L0 
C:\Users\stapi\AppData\Local\Temp\ccgBjMFA.s:2983   .text.p2p_msg_handler:000000000000020c .L0 
C:\Users\stapi\AppData\Local\Temp\ccgBjMFA.s:2986   .text.p2p_msg_handler:000000000000020c .L0 
C:\Users\stapi\AppData\Local\Temp\ccgBjMFA.s:2987   .text.p2p_msg_handler:000000000000020c .L0 
C:\Users\stapi\AppData\Local\Temp\ccgBjMFA.s:2991   .text.p2p_msg_handler:0000000000000216 .L0 
C:\Users\stapi\AppData\Local\Temp\ccgBjMFA.s:2994   .text.p2p_msg_handler:0000000000000218 .L0 
C:\Users\stapi\AppData\Local\Temp\ccgBjMFA.s:2995   .text.p2p_msg_handler:0000000000000218 .L0 
C:\Users\stapi\AppData\Local\Temp\ccgBjMFA.s:3001   .text.p2p_msg_handler:0000000000000222 .L0 
C:\Users\stapi\AppData\Local\Temp\ccgBjMFA.s:3003   .text.p2p_msg_handler:0000000000000224 .L0 
C:\Users\stapi\AppData\Local\Temp\ccgBjMFA.s:3004   .text.p2p_msg_handler:0000000000000224 .L0 
C:\Users\stapi\AppData\Local\Temp\ccgBjMFA.s:3006   .text.p2p_msg_handler:0000000000000228 .L0 
C:\Users\stapi\AppData\Local\Temp\ccgBjMFA.s:3009   .text.p2p_msg_handler:0000000000000230 .L0 
C:\Users\stapi\AppData\Local\Temp\ccgBjMFA.s:3017   .text.p2p_msg_handler:000000000000023e .L0 
C:\Users\stapi\AppData\Local\Temp\ccgBjMFA.s:3024   .text.p2p_msg_handler:0000000000000248 .L0 
C:\Users\stapi\AppData\Local\Temp\ccgBjMFA.s:3025   .text.p2p_msg_handler:000000000000024a .L0 
C:\Users\stapi\AppData\Local\Temp\ccgBjMFA.s:3027   .text.p2p_msg_handler:0000000000000252 .L0 
C:\Users\stapi\AppData\Local\Temp\ccgBjMFA.s:3028   .text.p2p_msg_handler:0000000000000252 .L0 
C:\Users\stapi\AppData\Local\Temp\ccgBjMFA.s:3029   .text.p2p_msg_handler:0000000000000252 .L0 
C:\Users\stapi\AppData\Local\Temp\ccgBjMFA.s:3030   .text.p2p_msg_handler:0000000000000252 .L0 
C:\Users\stapi\AppData\Local\Temp\ccgBjMFA.s:3031   .text.p2p_msg_handler:0000000000000252 .L0 
C:\Users\stapi\AppData\Local\Temp\ccgBjMFA.s:3032   .text.p2p_msg_handler:0000000000000252 .L0 
C:\Users\stapi\AppData\Local\Temp\ccgBjMFA.s:3033   .text.p2p_msg_handler:0000000000000252 .L0 
C:\Users\stapi\AppData\Local\Temp\ccgBjMFA.s:3034   .text.p2p_msg_handler:0000000000000252 .L0 
C:\Users\stapi\AppData\Local\Temp\ccgBjMFA.s:3035   .text.p2p_msg_handler:0000000000000252 .L0 
C:\Users\stapi\AppData\Local\Temp\ccgBjMFA.s:3036   .text.p2p_msg_handler:0000000000000252 .L0 
C:\Users\stapi\AppData\Local\Temp\ccgBjMFA.s:3037   .text.p2p_msg_handler:0000000000000252 .L0 
C:\Users\stapi\AppData\Local\Temp\ccgBjMFA.s:3044   .text.recv_msg_handler:0000000000000000 recv_msg_handler
C:\Users\stapi\AppData\Local\Temp\ccgBjMFA.s:3047   .text.recv_msg_handler:0000000000000000 .L0 
C:\Users\stapi\AppData\Local\Temp\ccgBjMFA.s:3049   .text.recv_msg_handler:0000000000000000 .L0 
C:\Users\stapi\AppData\Local\Temp\ccgBjMFA.s:3050   .text.recv_msg_handler:0000000000000000 .L0 
C:\Users\stapi\AppData\Local\Temp\ccgBjMFA.s:3051   .text.recv_msg_handler:0000000000000000 .L0 
C:\Users\stapi\AppData\Local\Temp\ccgBjMFA.s:3053   .text.recv_msg_handler:0000000000000008 .L0 
C:\Users\stapi\AppData\Local\Temp\ccgBjMFA.s:3067   .text.alcs_resource_register_secure:0000000000000000 alcs_resource_register_secure
C:\Users\stapi\AppData\Local\Temp\ccgBjMFA.s:3070   .text.alcs_resource_register_secure:0000000000000000 .L0 
C:\Users\stapi\AppData\Local\Temp\ccgBjMFA.s:3072   .text.alcs_resource_register_secure:0000000000000000 .L0 
C:\Users\stapi\AppData\Local\Temp\ccgBjMFA.s:3073   .text.alcs_resource_register_secure:0000000000000008 .L0 
C:\Users\stapi\AppData\Local\Temp\ccgBjMFA.s:3074   .text.alcs_resource_register_secure:0000000000000008 .L0 
C:\Users\stapi\AppData\Local\Temp\ccgBjMFA.s:3075   .text.alcs_resource_register_secure:0000000000000008 .L0 
C:\Users\stapi\AppData\Local\Temp\ccgBjMFA.s:3076   .text.alcs_resource_register_secure:0000000000000008 .L0 
C:\Users\stapi\AppData\Local\Temp\ccgBjMFA.s:3077   .text.alcs_resource_register_secure:0000000000000008 .L0 
C:\Users\stapi\AppData\Local\Temp\ccgBjMFA.s:3078   .text.alcs_resource_register_secure:0000000000000008 .L0 
C:\Users\stapi\AppData\Local\Temp\ccgBjMFA.s:3079   .text.alcs_resource_register_secure:0000000000000008 .L0 
C:\Users\stapi\AppData\Local\Temp\ccgBjMFA.s:3080   .text.alcs_resource_register_secure:0000000000000008 .L0 
C:\Users\stapi\AppData\Local\Temp\ccgBjMFA.s:3081   .text.alcs_resource_register_secure:0000000000000008 .L0 
C:\Users\stapi\AppData\Local\Temp\ccgBjMFA.s:3082   .text.alcs_resource_register_secure:0000000000000008 .L0 
C:\Users\stapi\AppData\Local\Temp\ccgBjMFA.s:3083   .text.alcs_resource_register_secure:0000000000000008 .L0 
C:\Users\stapi\AppData\Local\Temp\ccgBjMFA.s:3084   .text.alcs_resource_register_secure:0000000000000008 .L0 
C:\Users\stapi\AppData\Local\Temp\ccgBjMFA.s:3085   .text.alcs_resource_register_secure:0000000000000008 .L0 
C:\Users\stapi\AppData\Local\Temp\ccgBjMFA.s:3086   .text.alcs_resource_register_secure:0000000000000008 .L0 
C:\Users\stapi\AppData\Local\Temp\ccgBjMFA.s:3088   .text.alcs_resource_register_secure:0000000000000008 .L0 
C:\Users\stapi\AppData\Local\Temp\ccgBjMFA.s:3089   .text.alcs_resource_register_secure:0000000000000008 .L0 
C:\Users\stapi\AppData\Local\Temp\ccgBjMFA.s:3090   .text.alcs_resource_register_secure:0000000000000008 .L0 
C:\Users\stapi\AppData\Local\Temp\ccgBjMFA.s:3091   .text.alcs_resource_register_secure:000000000000000a .L0 
C:\Users\stapi\AppData\Local\Temp\ccgBjMFA.s:3093   .text.alcs_resource_register_secure:000000000000000a .L0 
C:\Users\stapi\AppData\Local\Temp\ccgBjMFA.s:3095   .text.alcs_resource_register_secure:000000000000000c .L0 
C:\Users\stapi\AppData\Local\Temp\ccgBjMFA.s:3099   .text.alcs_resource_register_secure:0000000000000014 .L0 
C:\Users\stapi\AppData\Local\Temp\ccgBjMFA.s:3107   .text.alcs_resource_register_secure:0000000000000022 .L0 
C:\Users\stapi\AppData\Local\Temp\ccgBjMFA.s:3110   .text.alcs_resource_register_secure:000000000000002a .L0 
C:\Users\stapi\AppData\Local\Temp\ccgBjMFA.s:3115   .text.alcs_resource_register_secure:000000000000003a .L0 
C:\Users\stapi\AppData\Local\Temp\ccgBjMFA.s:3120   .text.alcs_resource_register_secure:000000000000004a .L0 
C:\Users\stapi\AppData\Local\Temp\ccgBjMFA.s:3121   .text.alcs_resource_register_secure:000000000000004a .L0 
C:\Users\stapi\AppData\Local\Temp\ccgBjMFA.s:3122   .text.alcs_resource_register_secure:000000000000004a .L0 
C:\Users\stapi\AppData\Local\Temp\ccgBjMFA.s:3123   .text.alcs_resource_register_secure:000000000000004a .L0 
C:\Users\stapi\AppData\Local\Temp\ccgBjMFA.s:3124   .text.alcs_resource_register_secure:000000000000004a .L0 
C:\Users\stapi\AppData\Local\Temp\ccgBjMFA.s:3131   .text.alcs_resource_register_secure:000000000000005c .L0 
C:\Users\stapi\AppData\Local\Temp\ccgBjMFA.s:3132   .text.alcs_resource_register_secure:000000000000005c .L0 
C:\Users\stapi\AppData\Local\Temp\ccgBjMFA.s:3133   .text.alcs_resource_register_secure:000000000000005c .L0 
C:\Users\stapi\AppData\Local\Temp\ccgBjMFA.s:3139   .text.alcs_resource_register_secure:000000000000006c .L0 
C:\Users\stapi\AppData\Local\Temp\ccgBjMFA.s:3140   .text.alcs_resource_register_secure:000000000000006c .L0 
C:\Users\stapi\AppData\Local\Temp\ccgBjMFA.s:3142   .text.alcs_resource_register_secure:000000000000006e .L0 
C:\Users\stapi\AppData\Local\Temp\ccgBjMFA.s:3146   .text.alcs_resource_register_secure:0000000000000076 .L0 
C:\Users\stapi\AppData\Local\Temp\ccgBjMFA.s:3149   .text.alcs_resource_register_secure:000000000000007e .L0 
C:\Users\stapi\AppData\Local\Temp\ccgBjMFA.s:3150   .text.alcs_resource_register_secure:000000000000007e .L0 
C:\Users\stapi\AppData\Local\Temp\ccgBjMFA.s:3152   .text.alcs_resource_register_secure:0000000000000082 .L0 
C:\Users\stapi\AppData\Local\Temp\ccgBjMFA.s:3154   .text.alcs_resource_register_secure:0000000000000086 .L0 
C:\Users\stapi\AppData\Local\Temp\ccgBjMFA.s:3155   .text.alcs_resource_register_secure:0000000000000086 .L0 
C:\Users\stapi\AppData\Local\Temp\ccgBjMFA.s:3156   .text.alcs_resource_register_secure:0000000000000086 .L0 
C:\Users\stapi\AppData\Local\Temp\ccgBjMFA.s:3161   .text.alcs_resource_register_secure:0000000000000094 .L0 
C:\Users\stapi\AppData\Local\Temp\ccgBjMFA.s:3163   .text.alcs_resource_register_secure:0000000000000096 .L0 
C:\Users\stapi\AppData\Local\Temp\ccgBjMFA.s:3164   .text.alcs_resource_register_secure:0000000000000096 .L0 
C:\Users\stapi\AppData\Local\Temp\ccgBjMFA.s:3168   .text.alcs_resource_register_secure:000000000000009a .L0 
C:\Users\stapi\AppData\Local\Temp\ccgBjMFA.s:3173   .text.alcs_resource_register_secure:00000000000000a4 .L0 
C:\Users\stapi\AppData\Local\Temp\ccgBjMFA.s:3176   .text.alcs_resource_register_secure:00000000000000aa .L0 
C:\Users\stapi\AppData\Local\Temp\ccgBjMFA.s:3180   .text.alcs_resource_register_secure:00000000000000b2 .L0 
C:\Users\stapi\AppData\Local\Temp\ccgBjMFA.s:3182   .text.alcs_resource_register_secure:00000000000000b4 .L0 
C:\Users\stapi\AppData\Local\Temp\ccgBjMFA.s:3186   .text.alcs_resource_register_secure:00000000000000b6 .L0 
C:\Users\stapi\AppData\Local\Temp\ccgBjMFA.s:3189   .text.alcs_resource_register_secure:00000000000000be .L0 
C:\Users\stapi\AppData\Local\Temp\ccgBjMFA.s:3190   .text.alcs_resource_register_secure:00000000000000be .L0 
C:\Users\stapi\AppData\Local\Temp\ccgBjMFA.s:3192   .text.alcs_resource_register_secure:00000000000000c2 .L0 
C:\Users\stapi\AppData\Local\Temp\ccgBjMFA.s:3193   .text.alcs_resource_register_secure:00000000000000c2 .L0 
C:\Users\stapi\AppData\Local\Temp\ccgBjMFA.s:3197   .text.alcs_resource_register_secure:00000000000000ca .L0 
C:\Users\stapi\AppData\Local\Temp\ccgBjMFA.s:3198   .text.alcs_resource_register_secure:00000000000000ca .L0 
C:\Users\stapi\AppData\Local\Temp\ccgBjMFA.s:3207   .text.alcs_resource_register_secure:00000000000000e4 .L0 
C:\Users\stapi\AppData\Local\Temp\ccgBjMFA.s:3209   .text.alcs_resource_register_secure:00000000000000e6 .L0 
C:\Users\stapi\AppData\Local\Temp\ccgBjMFA.s:3210   .text.alcs_resource_register_secure:00000000000000e6 .L0 
C:\Users\stapi\AppData\Local\Temp\ccgBjMFA.s:3213   .text.alcs_resource_register_secure:00000000000000e8 .L0 
C:\Users\stapi\AppData\Local\Temp\ccgBjMFA.s:3215   .text.alcs_resource_register_secure:00000000000000ea .L0 
C:\Users\stapi\AppData\Local\Temp\ccgBjMFA.s:3220   .text.alcs_resource_register_secure:00000000000000f4 .L0 
C:\Users\stapi\AppData\Local\Temp\ccgBjMFA.s:3221   .text.alcs_resource_register_secure:00000000000000f4 .L0 
C:\Users\stapi\AppData\Local\Temp\ccgBjMFA.s:3226   .text.alcs_resource_register_secure:00000000000000f8 .L0 
C:\Users\stapi\AppData\Local\Temp\ccgBjMFA.s:3227   .text.alcs_resource_register_secure:00000000000000f8 .L0 
C:\Users\stapi\AppData\Local\Temp\ccgBjMFA.s:3232   .text.alcs_resource_register_secure:0000000000000104 .L0 
C:\Users\stapi\AppData\Local\Temp\ccgBjMFA.s:3241   .text.alcs_resource_register_secure:0000000000000114 .L0 
C:\Users\stapi\AppData\Local\Temp\ccgBjMFA.s:3242   .text.alcs_resource_register_secure:0000000000000114 .L0 
C:\Users\stapi\AppData\Local\Temp\ccgBjMFA.s:3244   .text.alcs_resource_register_secure:0000000000000116 .L0 
C:\Users\stapi\AppData\Local\Temp\ccgBjMFA.s:3246   .text.alcs_resource_register_secure:0000000000000118 .L0 
C:\Users\stapi\AppData\Local\Temp\ccgBjMFA.s:3249   .text.alcs_resource_register_secure:000000000000011e .L0 
C:\Users\stapi\AppData\Local\Temp\ccgBjMFA.s:3250   .text.alcs_resource_register_secure:000000000000011e .L0 
C:\Users\stapi\AppData\Local\Temp\ccgBjMFA.s:3257   .text.alcs_resource_register_secure:000000000000012c .L0 
C:\Users\stapi\AppData\Local\Temp\ccgBjMFA.s:3261   .text.alcs_resource_register_secure:000000000000012e .L0 
C:\Users\stapi\AppData\Local\Temp\ccgBjMFA.s:3269   .text.alcs_resource_register_secure:000000000000013a .L0 
C:\Users\stapi\AppData\Local\Temp\ccgBjMFA.s:3270   .text.alcs_resource_register_secure:000000000000013a .L0 
C:\Users\stapi\AppData\Local\Temp\ccgBjMFA.s:3272   .text.alcs_resource_register_secure:000000000000013e .L0 
C:\Users\stapi\AppData\Local\Temp\ccgBjMFA.s:3275   .text.alcs_resource_register_secure:0000000000000146 .L0 
C:\Users\stapi\AppData\Local\Temp\ccgBjMFA.s:3276   .text.alcs_resource_register_secure:0000000000000146 .L0 
C:\Users\stapi\AppData\Local\Temp\ccgBjMFA.s:3287   .text.alcs_resource_register_secure:0000000000000162 .L0 
C:\Users\stapi\AppData\Local\Temp\ccgBjMFA.s:3293   .text.alcs_resource_register_secure:0000000000000166 .L0 
C:\Users\stapi\AppData\Local\Temp\ccgBjMFA.s:3294   .text.alcs_resource_register_secure:0000000000000166 .L0 
C:\Users\stapi\AppData\Local\Temp\ccgBjMFA.s:3298   .text.alcs_resource_register_secure:0000000000000170 .L0 
C:\Users\stapi\AppData\Local\Temp\ccgBjMFA.s:3304   .text.alcs_resource_register_secure:0000000000000180 .L0 
C:\Users\stapi\AppData\Local\Temp\ccgBjMFA.s:3314   .text.alcs_resource_register_secure:0000000000000198 .L0 
C:\Users\stapi\AppData\Local\Temp\ccgBjMFA.s:3320   .text.alcs_resource_register_secure:00000000000001a8 .L0 
C:\Users\stapi\AppData\Local\Temp\ccgBjMFA.s:3321   .text.alcs_resource_register_secure:00000000000001a8 .L0 
C:\Users\stapi\AppData\Local\Temp\ccgBjMFA.s:3325   .text.alcs_resource_register_secure:00000000000001b2 .L0 
C:\Users\stapi\AppData\Local\Temp\ccgBjMFA.s:3332   .text.alcs_resource_register_secure:00000000000001c4 .L0 
C:\Users\stapi\AppData\Local\Temp\ccgBjMFA.s:3333   .text.alcs_resource_register_secure:00000000000001c4 .L0 
C:\Users\stapi\AppData\Local\Temp\ccgBjMFA.s:3338   .text.alcs_resource_register_secure:00000000000001d0 .L0 
C:\Users\stapi\AppData\Local\Temp\ccgBjMFA.s:3346   .text.alcs_resource_register_secure:00000000000001e0 .L0 
C:\Users\stapi\AppData\Local\Temp\ccgBjMFA.s:3347   .text.alcs_resource_register_secure:00000000000001e0 .L0 
C:\Users\stapi\AppData\Local\Temp\ccgBjMFA.s:3351   .text.alcs_resource_register_secure:00000000000001e4 .L0 
C:\Users\stapi\AppData\Local\Temp\ccgBjMFA.s:3358   .text.alcs_resource_register_secure:00000000000001e8 .L0 
C:\Users\stapi\AppData\Local\Temp\ccgBjMFA.s:3359   .text.alcs_resource_register_secure:00000000000001e8 .L0 
C:\Users\stapi\AppData\Local\Temp\ccgBjMFA.s:3360   .text.alcs_resource_register_secure:00000000000001e8 .L0 
C:\Users\stapi\AppData\Local\Temp\ccgBjMFA.s:3362   .text.alcs_resource_register_secure:00000000000001ec .L0 
C:\Users\stapi\AppData\Local\Temp\ccgBjMFA.s:3363   .text.alcs_resource_register_secure:00000000000001ec .L0 
C:\Users\stapi\AppData\Local\Temp\ccgBjMFA.s:3365   .text.alcs_resource_register_secure:00000000000001ee .L0 
C:\Users\stapi\AppData\Local\Temp\ccgBjMFA.s:3366   .text.alcs_resource_register_secure:00000000000001ee .L0 
C:\Users\stapi\AppData\Local\Temp\ccgBjMFA.s:3368   .text.alcs_resource_register_secure:00000000000001f0 .L0 
C:\Users\stapi\AppData\Local\Temp\ccgBjMFA.s:3369   .text.alcs_resource_register_secure:00000000000001f0 .L0 
C:\Users\stapi\AppData\Local\Temp\ccgBjMFA.s:3377   .text.alcs_resource_register_secure:00000000000001f4 .L0 
C:\Users\stapi\AppData\Local\Temp\ccgBjMFA.s:3378   .text.alcs_resource_register_secure:00000000000001f4 .L0 
C:\Users\stapi\AppData\Local\Temp\ccgBjMFA.s:3389   .text.alcs_resource_register_secure:000000000000020e .L0 
C:\Users\stapi\AppData\Local\Temp\ccgBjMFA.s:3390   .text.alcs_resource_register_secure:0000000000000210 .L0 
C:\Users\stapi\AppData\Local\Temp\ccgBjMFA.s:3391   .text.alcs_resource_register_secure:0000000000000210 .L0 
C:\Users\stapi\AppData\Local\Temp\ccgBjMFA.s:3394   .text.alcs_resource_register_secure:0000000000000218 .L0 
C:\Users\stapi\AppData\Local\Temp\ccgBjMFA.s:3395   .text.alcs_resource_register_secure:0000000000000218 .L0 
C:\Users\stapi\AppData\Local\Temp\ccgBjMFA.s:3396   .text.alcs_resource_register_secure:0000000000000218 .L0 
C:\Users\stapi\AppData\Local\Temp\ccgBjMFA.s:3397   .text.alcs_resource_register_secure:0000000000000218 .L0 
C:\Users\stapi\AppData\Local\Temp\ccgBjMFA.s:3398   .text.alcs_resource_register_secure:0000000000000218 .L0 
C:\Users\stapi\AppData\Local\Temp\ccgBjMFA.s:3399   .text.alcs_resource_register_secure:0000000000000218 .L0 
C:\Users\stapi\AppData\Local\Temp\ccgBjMFA.s:3400   .text.alcs_resource_register_secure:0000000000000218 .L0 
C:\Users\stapi\AppData\Local\Temp\ccgBjMFA.s:3401   .text.alcs_resource_register_secure:0000000000000218 .L0 
C:\Users\stapi\AppData\Local\Temp\ccgBjMFA.s:3402   .text.alcs_resource_register_secure:0000000000000218 .L0 
C:\Users\stapi\AppData\Local\Temp\ccgBjMFA.s:3403   .text.alcs_resource_register_secure:0000000000000218 .L0 
C:\Users\stapi\AppData\Local\Temp\ccgBjMFA.s:3404   .text.alcs_resource_register_secure:0000000000000218 .L0 
C:\Users\stapi\AppData\Local\Temp\ccgBjMFA.s:3405   .text.alcs_resource_register_secure:0000000000000218 .L0 
C:\Users\stapi\AppData\Local\Temp\ccgBjMFA.s:3406   .text.alcs_resource_register_secure:0000000000000218 .L0 
C:\Users\stapi\AppData\Local\Temp\ccgBjMFA.s:3407   .text.alcs_resource_register_secure:0000000000000218 .L0 
C:\Users\stapi\AppData\Local\Temp\ccgBjMFA.s:3410   .text.alcs_resource_register_secure:0000000000000218 .L0 
C:\Users\stapi\AppData\Local\Temp\ccgBjMFA.s:3412   .text.alcs_resource_register_secure:0000000000000218 .L0 
C:\Users\stapi\AppData\Local\Temp\ccgBjMFA.s:3416   .text.alcs_resource_register_secure:0000000000000224 .L0 
C:\Users\stapi\AppData\Local\Temp\ccgBjMFA.s:3423   .text.alcs_resource_cb_deinit:0000000000000000 alcs_resource_cb_deinit
C:\Users\stapi\AppData\Local\Temp\ccgBjMFA.s:3426   .text.alcs_resource_cb_deinit:0000000000000000 .L0 
C:\Users\stapi\AppData\Local\Temp\ccgBjMFA.s:3427   .text.alcs_resource_cb_deinit:0000000000000000 .L0 
C:\Users\stapi\AppData\Local\Temp\ccgBjMFA.s:3428   .text.alcs_resource_cb_deinit:0000000000000008 .L0 
C:\Users\stapi\AppData\Local\Temp\ccgBjMFA.s:3429   .text.alcs_resource_cb_deinit:0000000000000008 .L0 
C:\Users\stapi\AppData\Local\Temp\ccgBjMFA.s:3430   .text.alcs_resource_cb_deinit:0000000000000008 .L0 
C:\Users\stapi\AppData\Local\Temp\ccgBjMFA.s:3431   .text.alcs_resource_cb_deinit:0000000000000008 .L0 
C:\Users\stapi\AppData\Local\Temp\ccgBjMFA.s:3432   .text.alcs_resource_cb_deinit:0000000000000008 .L0 
C:\Users\stapi\AppData\Local\Temp\ccgBjMFA.s:3435   .text.alcs_resource_cb_deinit:0000000000000008 .L0 
C:\Users\stapi\AppData\Local\Temp\ccgBjMFA.s:3436   .text.alcs_resource_cb_deinit:0000000000000008 .L0 
C:\Users\stapi\AppData\Local\Temp\ccgBjMFA.s:3441   .text.alcs_resource_cb_deinit:0000000000000016 .L0 
C:\Users\stapi\AppData\Local\Temp\ccgBjMFA.s:3443   .text.alcs_resource_cb_deinit:0000000000000018 .L0 
C:\Users\stapi\AppData\Local\Temp\ccgBjMFA.s:3447   .text.alcs_resource_cb_deinit:000000000000001a .L0 
C:\Users\stapi\AppData\Local\Temp\ccgBjMFA.s:3450   .text.alcs_resource_cb_deinit:0000000000000022 .L0 
C:\Users\stapi\AppData\Local\Temp\ccgBjMFA.s:3451   .text.alcs_resource_cb_deinit:000000000000002a .L0 
C:\Users\stapi\AppData\Local\Temp\ccgBjMFA.s:3452   .text.alcs_resource_cb_deinit:000000000000002a .L0 
C:\Users\stapi\AppData\Local\Temp\ccgBjMFA.s:3453   .text.alcs_resource_cb_deinit:000000000000002a .L0 
C:\Users\stapi\AppData\Local\Temp\ccgBjMFA.s:3454   .text.alcs_resource_cb_deinit:000000000000002a .L0 
C:\Users\stapi\AppData\Local\Temp\ccgBjMFA.s:3455   .text.alcs_resource_cb_deinit:000000000000002a .L0 
C:\Users\stapi\AppData\Local\Temp\ccgBjMFA.s:3456   .text.alcs_resource_cb_deinit:000000000000002a .L0 
C:\Users\stapi\AppData\Local\Temp\ccgBjMFA.s:3458   .text.alcs_resource_cb_deinit:000000000000002a .L0 
C:\Users\stapi\AppData\Local\Temp\ccgBjMFA.s:3463   .text.alcs_resource_cb_deinit:000000000000002a .L0 
C:\Users\stapi\AppData\Local\Temp\ccgBjMFA.s:3464   .text.alcs_resource_cb_deinit:000000000000002a .L0 
C:\Users\stapi\AppData\Local\Temp\ccgBjMFA.s:3465   .text.alcs_resource_cb_deinit:000000000000002a .L0 
C:\Users\stapi\AppData\Local\Temp\ccgBjMFA.s:3467   .text.alcs_resource_cb_deinit:000000000000002c .L0 
C:\Users\stapi\AppData\Local\Temp\ccgBjMFA.s:3470   .text.alcs_resource_cb_deinit:000000000000002e .L0 
C:\Users\stapi\AppData\Local\Temp\ccgBjMFA.s:3471   .text.alcs_resource_cb_deinit:000000000000002e .L0 
C:\Users\stapi\AppData\Local\Temp\ccgBjMFA.s:3472   .text.alcs_resource_cb_deinit:000000000000002e .L0 
C:\Users\stapi\AppData\Local\Temp\ccgBjMFA.s:3474   .text.alcs_resource_cb_deinit:0000000000000030 .L0 
C:\Users\stapi\AppData\Local\Temp\ccgBjMFA.s:3475   .text.alcs_resource_cb_deinit:0000000000000030 .L0 
C:\Users\stapi\AppData\Local\Temp\ccgBjMFA.s:3480   .text.alcs_resource_cb_deinit:0000000000000032 .L0 
C:\Users\stapi\AppData\Local\Temp\ccgBjMFA.s:3481   .text.alcs_resource_cb_deinit:0000000000000032 .L0 
C:\Users\stapi\AppData\Local\Temp\ccgBjMFA.s:3484   .text.alcs_resource_cb_deinit:0000000000000038 .L0 
C:\Users\stapi\AppData\Local\Temp\ccgBjMFA.s:3489   .text.alcs_resource_cb_deinit:0000000000000042 .L0 
C:\Users\stapi\AppData\Local\Temp\ccgBjMFA.s:3493   .text.alcs_resource_cb_deinit:000000000000004c .L0 
C:\Users\stapi\AppData\Local\Temp\ccgBjMFA.s:3494   .text.alcs_resource_cb_deinit:000000000000004c .L0 
C:\Users\stapi\AppData\Local\Temp\ccgBjMFA.s:3498   .text.alcs_resource_cb_deinit:0000000000000052 .L0 
C:\Users\stapi\AppData\Local\Temp\ccgBjMFA.s:3505   .text.alcs_auth_list_deinit:0000000000000000 alcs_auth_list_deinit
C:\Users\stapi\AppData\Local\Temp\ccgBjMFA.s:3508   .text.alcs_auth_list_deinit:0000000000000000 .L0 
C:\Users\stapi\AppData\Local\Temp\ccgBjMFA.s:3509   .text.alcs_auth_list_deinit:0000000000000000 .L0 
C:\Users\stapi\AppData\Local\Temp\ccgBjMFA.s:3510   .text.alcs_auth_list_deinit:0000000000000008 .L0 
C:\Users\stapi\AppData\Local\Temp\ccgBjMFA.s:3511   .text.alcs_auth_list_deinit:0000000000000008 .L0 
C:\Users\stapi\AppData\Local\Temp\ccgBjMFA.s:3512   .text.alcs_auth_list_deinit:0000000000000008 .L0 
C:\Users\stapi\AppData\Local\Temp\ccgBjMFA.s:3513   .text.alcs_auth_list_deinit:0000000000000008 .L0 
C:\Users\stapi\AppData\Local\Temp\ccgBjMFA.s:3514   .text.alcs_auth_list_deinit:0000000000000008 .L0 
C:\Users\stapi\AppData\Local\Temp\ccgBjMFA.s:3515   .text.alcs_auth_list_deinit:0000000000000008 .L0 
C:\Users\stapi\AppData\Local\Temp\ccgBjMFA.s:3518   .text.alcs_auth_list_deinit:0000000000000008 .L0 
C:\Users\stapi\AppData\Local\Temp\ccgBjMFA.s:3519   .text.alcs_auth_list_deinit:0000000000000008 .L0 
C:\Users\stapi\AppData\Local\Temp\ccgBjMFA.s:3520   .text.alcs_auth_list_deinit:0000000000000008 .L0 
C:\Users\stapi\AppData\Local\Temp\ccgBjMFA.s:3521   .text.alcs_auth_list_deinit:0000000000000008 .L0 
C:\Users\stapi\AppData\Local\Temp\ccgBjMFA.s:3534   .text.alcs_auth_list_deinit:0000000000000028 .L0 
C:\Users\stapi\AppData\Local\Temp\ccgBjMFA.s:3537   .text.alcs_auth_list_deinit:0000000000000030 .L0 
C:\Users\stapi\AppData\Local\Temp\ccgBjMFA.s:3538   .text.alcs_auth_list_deinit:0000000000000030 .L0 
C:\Users\stapi\AppData\Local\Temp\ccgBjMFA.s:3540   .text.alcs_auth_list_deinit:0000000000000032 .L0 
C:\Users\stapi\AppData\Local\Temp\ccgBjMFA.s:3542   .text.alcs_auth_list_deinit:0000000000000034 .L0 
C:\Users\stapi\AppData\Local\Temp\ccgBjMFA.s:3545   .text.alcs_auth_list_deinit:000000000000003c .L0 
C:\Users\stapi\AppData\Local\Temp\ccgBjMFA.s:3546   .text.alcs_auth_list_deinit:000000000000003c .L0 
C:\Users\stapi\AppData\Local\Temp\ccgBjMFA.s:3549   .text.alcs_auth_list_deinit:0000000000000040 .L0 
C:\Users\stapi\AppData\Local\Temp\ccgBjMFA.s:3560   .text.alcs_auth_list_deinit:0000000000000054 .L0 
C:\Users\stapi\AppData\Local\Temp\ccgBjMFA.s:3563   .text.alcs_auth_list_deinit:000000000000005c .L0 
C:\Users\stapi\AppData\Local\Temp\ccgBjMFA.s:3564   .text.alcs_auth_list_deinit:0000000000000064 .L0 
C:\Users\stapi\AppData\Local\Temp\ccgBjMFA.s:3565   .text.alcs_auth_list_deinit:0000000000000064 .L0 
C:\Users\stapi\AppData\Local\Temp\ccgBjMFA.s:3566   .text.alcs_auth_list_deinit:0000000000000064 .L0 
C:\Users\stapi\AppData\Local\Temp\ccgBjMFA.s:3567   .text.alcs_auth_list_deinit:0000000000000064 .L0 
C:\Users\stapi\AppData\Local\Temp\ccgBjMFA.s:3568   .text.alcs_auth_list_deinit:0000000000000064 .L0 
C:\Users\stapi\AppData\Local\Temp\ccgBjMFA.s:3569   .text.alcs_auth_list_deinit:0000000000000064 .L0 
C:\Users\stapi\AppData\Local\Temp\ccgBjMFA.s:3570   .text.alcs_auth_list_deinit:0000000000000064 .L0 
C:\Users\stapi\AppData\Local\Temp\ccgBjMFA.s:3573   .text.alcs_auth_list_deinit:0000000000000064 .L0 
C:\Users\stapi\AppData\Local\Temp\ccgBjMFA.s:3577   .text.alcs_auth_list_deinit:0000000000000064 .L0 
C:\Users\stapi\AppData\Local\Temp\ccgBjMFA.s:3578   .text.alcs_auth_list_deinit:0000000000000064 .L0 
C:\Users\stapi\AppData\Local\Temp\ccgBjMFA.s:3579   .text.alcs_auth_list_deinit:0000000000000064 .L0 
C:\Users\stapi\AppData\Local\Temp\ccgBjMFA.s:3582   .text.alcs_auth_list_deinit:0000000000000066 .L0 
C:\Users\stapi\AppData\Local\Temp\ccgBjMFA.s:3583   .text.alcs_auth_list_deinit:0000000000000066 .L0 
C:\Users\stapi\AppData\Local\Temp\ccgBjMFA.s:3588   .text.alcs_auth_list_deinit:0000000000000068 .L0 
C:\Users\stapi\AppData\Local\Temp\ccgBjMFA.s:3589   .text.alcs_auth_list_deinit:0000000000000068 .L0 
C:\Users\stapi\AppData\Local\Temp\ccgBjMFA.s:3593   .text.alcs_auth_list_deinit:000000000000006a .L0 
C:\Users\stapi\AppData\Local\Temp\ccgBjMFA.s:3595   .text.alcs_auth_list_deinit:000000000000006c .L0 
C:\Users\stapi\AppData\Local\Temp\ccgBjMFA.s:3596   .text.alcs_auth_list_deinit:000000000000006c .L0 
C:\Users\stapi\AppData\Local\Temp\ccgBjMFA.s:3601   .text.alcs_auth_list_deinit:000000000000006e .L0 
C:\Users\stapi\AppData\Local\Temp\ccgBjMFA.s:3602   .text.alcs_auth_list_deinit:000000000000006e .L0 
C:\Users\stapi\AppData\Local\Temp\ccgBjMFA.s:3604   .text.alcs_auth_list_deinit:0000000000000070 .L0 
C:\Users\stapi\AppData\Local\Temp\ccgBjMFA.s:3608   .text.alcs_auth_list_deinit:0000000000000078 .L0 
C:\Users\stapi\AppData\Local\Temp\ccgBjMFA.s:3612   .text.alcs_auth_list_deinit:0000000000000082 .L0 
C:\Users\stapi\AppData\Local\Temp\ccgBjMFA.s:3623   .text.alcs_auth_list_deinit:000000000000008e .L0 
C:\Users\stapi\AppData\Local\Temp\ccgBjMFA.s:3624   .text.alcs_auth_list_deinit:000000000000008e .L0 
C:\Users\stapi\AppData\Local\Temp\ccgBjMFA.s:3625   .text.alcs_auth_list_deinit:000000000000008e .L0 
C:\Users\stapi\AppData\Local\Temp\ccgBjMFA.s:3627   .text.alcs_auth_list_deinit:0000000000000092 .L0 
C:\Users\stapi\AppData\Local\Temp\ccgBjMFA.s:3630   .text.alcs_auth_list_deinit:0000000000000096 .L0 
C:\Users\stapi\AppData\Local\Temp\ccgBjMFA.s:3631   .text.alcs_auth_list_deinit:0000000000000096 .L0 
C:\Users\stapi\AppData\Local\Temp\ccgBjMFA.s:3632   .text.alcs_auth_list_deinit:0000000000000096 .L0 
C:\Users\stapi\AppData\Local\Temp\ccgBjMFA.s:3634   .text.alcs_auth_list_deinit:0000000000000098 .L0 
C:\Users\stapi\AppData\Local\Temp\ccgBjMFA.s:3635   .text.alcs_auth_list_deinit:0000000000000098 .L0 
C:\Users\stapi\AppData\Local\Temp\ccgBjMFA.s:3640   .text.alcs_auth_list_deinit:000000000000009a .L0 
C:\Users\stapi\AppData\Local\Temp\ccgBjMFA.s:3643   .text.alcs_auth_list_deinit:00000000000000a2 .L0 
C:\Users\stapi\AppData\Local\Temp\ccgBjMFA.s:3649   .text.alcs_auth_list_deinit:00000000000000ae .L0 
C:\Users\stapi\AppData\Local\Temp\ccgBjMFA.s:3669   .text.alcs_rec_heart_beat:0000000000000000 alcs_rec_heart_beat
C:\Users\stapi\AppData\Local\Temp\ccgBjMFA.s:3672   .text.alcs_rec_heart_beat:0000000000000000 .L0 
C:\Users\stapi\AppData\Local\Temp\ccgBjMFA.s:3674   .text.alcs_rec_heart_beat:0000000000000000 .L0 
C:\Users\stapi\AppData\Local\Temp\ccgBjMFA.s:3675   .text.alcs_rec_heart_beat:0000000000000008 .L0 
C:\Users\stapi\AppData\Local\Temp\ccgBjMFA.s:3676   .text.alcs_rec_heart_beat:0000000000000008 .L0 
C:\Users\stapi\AppData\Local\Temp\ccgBjMFA.s:3677   .text.alcs_rec_heart_beat:0000000000000008 .L0 
C:\Users\stapi\AppData\Local\Temp\ccgBjMFA.s:3678   .text.alcs_rec_heart_beat:0000000000000008 .L0 
C:\Users\stapi\AppData\Local\Temp\ccgBjMFA.s:3679   .text.alcs_rec_heart_beat:0000000000000008 .L0 
C:\Users\stapi\AppData\Local\Temp\ccgBjMFA.s:3680   .text.alcs_rec_heart_beat:0000000000000008 .L0 
C:\Users\stapi\AppData\Local\Temp\ccgBjMFA.s:3681   .text.alcs_rec_heart_beat:0000000000000008 .L0 
C:\Users\stapi\AppData\Local\Temp\ccgBjMFA.s:3682   .text.alcs_rec_heart_beat:0000000000000008 .L0 
C:\Users\stapi\AppData\Local\Temp\ccgBjMFA.s:3683   .text.alcs_rec_heart_beat:0000000000000008 .L0 
C:\Users\stapi\AppData\Local\Temp\ccgBjMFA.s:3685   .text.alcs_rec_heart_beat:0000000000000008 .L0 
C:\Users\stapi\AppData\Local\Temp\ccgBjMFA.s:3686   .text.alcs_rec_heart_beat:0000000000000008 .L0 
C:\Users\stapi\AppData\Local\Temp\ccgBjMFA.s:3688   .text.alcs_rec_heart_beat:000000000000000a .L0 
C:\Users\stapi\AppData\Local\Temp\ccgBjMFA.s:3695   .text.alcs_rec_heart_beat:000000000000001a .L0 
C:\Users\stapi\AppData\Local\Temp\ccgBjMFA.s:3696   .text.alcs_rec_heart_beat:000000000000001c .L0 
C:\Users\stapi\AppData\Local\Temp\ccgBjMFA.s:3698   .text.alcs_rec_heart_beat:000000000000001c .L0 
C:\Users\stapi\AppData\Local\Temp\ccgBjMFA.s:3701   .text.alcs_rec_heart_beat:0000000000000020 .L0 
C:\Users\stapi\AppData\Local\Temp\ccgBjMFA.s:3710   .text.alcs_rec_heart_beat:0000000000000036 .L0 
C:\Users\stapi\AppData\Local\Temp\ccgBjMFA.s:3711   .text.alcs_rec_heart_beat:0000000000000036 .L0 
C:\Users\stapi\AppData\Local\Temp\ccgBjMFA.s:3720   .text.alcs_rec_heart_beat:0000000000000048 .L0 
C:\Users\stapi\AppData\Local\Temp\ccgBjMFA.s:3721   .text.alcs_rec_heart_beat:0000000000000048 .L0 
C:\Users\stapi\AppData\Local\Temp\ccgBjMFA.s:3722   .text.alcs_rec_heart_beat:0000000000000048 .L0 
C:\Users\stapi\AppData\Local\Temp\ccgBjMFA.s:3727   .text.alcs_rec_heart_beat:000000000000004a .L0 
C:\Users\stapi\AppData\Local\Temp\ccgBjMFA.s:3732   .text.alcs_rec_heart_beat:0000000000000056 .L0 
C:\Users\stapi\AppData\Local\Temp\ccgBjMFA.s:3733   .text.alcs_rec_heart_beat:0000000000000056 .L0 
C:\Users\stapi\AppData\Local\Temp\ccgBjMFA.s:3734   .text.alcs_rec_heart_beat:0000000000000056 .L0 
C:\Users\stapi\AppData\Local\Temp\ccgBjMFA.s:3738   .text.alcs_rec_heart_beat:000000000000005e .L0 
C:\Users\stapi\AppData\Local\Temp\ccgBjMFA.s:3740   .text.alcs_rec_heart_beat:0000000000000060 .L0 
C:\Users\stapi\AppData\Local\Temp\ccgBjMFA.s:3744   .text.alcs_rec_heart_beat:0000000000000064 .L0 
C:\Users\stapi\AppData\Local\Temp\ccgBjMFA.s:3747   .text.alcs_rec_heart_beat:000000000000006c .L0 
C:\Users\stapi\AppData\Local\Temp\ccgBjMFA.s:3748   .text.alcs_rec_heart_beat:000000000000006c .L0 
C:\Users\stapi\AppData\Local\Temp\ccgBjMFA.s:3750   .text.alcs_rec_heart_beat:0000000000000070 .L0 
C:\Users\stapi\AppData\Local\Temp\ccgBjMFA.s:3751   .text.alcs_rec_heart_beat:0000000000000070 .L0 
C:\Users\stapi\AppData\Local\Temp\ccgBjMFA.s:3756   .text.alcs_rec_heart_beat:0000000000000080 .L0 
C:\Users\stapi\AppData\Local\Temp\ccgBjMFA.s:3761   .text.alcs_rec_heart_beat:0000000000000090 .L0 
C:\Users\stapi\AppData\Local\Temp\ccgBjMFA.s:3767   .text.alcs_rec_heart_beat:00000000000000a0 .L0 
C:\Users\stapi\AppData\Local\Temp\ccgBjMFA.s:3768   .text.alcs_rec_heart_beat:00000000000000a0 .L0 
C:\Users\stapi\AppData\Local\Temp\ccgBjMFA.s:3769   .text.alcs_rec_heart_beat:00000000000000a0 .L0 
C:\Users\stapi\AppData\Local\Temp\ccgBjMFA.s:3770   .text.alcs_rec_heart_beat:00000000000000a0 .L0 
C:\Users\stapi\AppData\Local\Temp\ccgBjMFA.s:3771   .text.alcs_rec_heart_beat:00000000000000a0 .L0 
C:\Users\stapi\AppData\Local\Temp\ccgBjMFA.s:3780   .text.alcs_rec_heart_beat:00000000000000b6 .L0 
C:\Users\stapi\AppData\Local\Temp\ccgBjMFA.s:3781   .text.alcs_rec_heart_beat:00000000000000b6 .L0 
C:\Users\stapi\AppData\Local\Temp\ccgBjMFA.s:3782   .text.alcs_rec_heart_beat:00000000000000b6 .L0 
C:\Users\stapi\AppData\Local\Temp\ccgBjMFA.s:3783   .text.alcs_rec_heart_beat:00000000000000b6 .L0 
C:\Users\stapi\AppData\Local\Temp\ccgBjMFA.s:3784   .text.alcs_rec_heart_beat:00000000000000b6 .L0 
C:\Users\stapi\AppData\Local\Temp\ccgBjMFA.s:3789   .text.alcs_rec_heart_beat:00000000000000bc .L0 
C:\Users\stapi\AppData\Local\Temp\ccgBjMFA.s:3791   .text.alcs_rec_heart_beat:00000000000000c0 .L0 
C:\Users\stapi\AppData\Local\Temp\ccgBjMFA.s:3799   .text.alcs_rec_heart_beat:00000000000000da .L0 
C:\Users\stapi\AppData\Local\Temp\ccgBjMFA.s:3803   .text.alcs_rec_heart_beat:00000000000000e2 .L0 
C:\Users\stapi\AppData\Local\Temp\ccgBjMFA.s:3811   .text.alcs_rec_heart_beat:00000000000000f8 .L0 
C:\Users\stapi\AppData\Local\Temp\ccgBjMFA.s:3812   .text.alcs_rec_heart_beat:00000000000000f8 .L0 
C:\Users\stapi\AppData\Local\Temp\ccgBjMFA.s:3816   .text.alcs_rec_heart_beat:0000000000000102 .L0 
C:\Users\stapi\AppData\Local\Temp\ccgBjMFA.s:3818   .text.alcs_rec_heart_beat:0000000000000104 .L0 
C:\Users\stapi\AppData\Local\Temp\ccgBjMFA.s:3826   .text.alcs_rec_heart_beat:0000000000000114 .L0 
C:\Users\stapi\AppData\Local\Temp\ccgBjMFA.s:3828   .text.alcs_rec_heart_beat:0000000000000116 .L0 
C:\Users\stapi\AppData\Local\Temp\ccgBjMFA.s:3831   .text.alcs_rec_heart_beat:000000000000011e .L0 
C:\Users\stapi\AppData\Local\Temp\ccgBjMFA.s:3833   .text.alcs_rec_heart_beat:0000000000000120 .L0 
C:\Users\stapi\AppData\Local\Temp\ccgBjMFA.s:3835   .text.alcs_rec_heart_beat:0000000000000124 .L0 
C:\Users\stapi\AppData\Local\Temp\ccgBjMFA.s:3837   .text.alcs_rec_heart_beat:0000000000000128 .L0 
C:\Users\stapi\AppData\Local\Temp\ccgBjMFA.s:3838   .text.alcs_rec_heart_beat:0000000000000128 .L0 
C:\Users\stapi\AppData\Local\Temp\ccgBjMFA.s:3841   .text.alcs_rec_heart_beat:000000000000012e .L0 
C:\Users\stapi\AppData\Local\Temp\ccgBjMFA.s:3843   .text.alcs_rec_heart_beat:0000000000000132 .L0 
C:\Users\stapi\AppData\Local\Temp\ccgBjMFA.s:3845   .text.alcs_rec_heart_beat:0000000000000136 .L0 
C:\Users\stapi\AppData\Local\Temp\ccgBjMFA.s:3847   .text.alcs_rec_heart_beat:0000000000000138 .L0 
C:\Users\stapi\AppData\Local\Temp\ccgBjMFA.s:3849   .text.alcs_rec_heart_beat:000000000000013c .L0 
C:\Users\stapi\AppData\Local\Temp\ccgBjMFA.s:3850   .text.alcs_rec_heart_beat:000000000000013c .L0 
C:\Users\stapi\AppData\Local\Temp\ccgBjMFA.s:3855   .text.alcs_rec_heart_beat:0000000000000148 .L0 
C:\Users\stapi\AppData\Local\Temp\ccgBjMFA.s:3858   .text.alcs_rec_heart_beat:0000000000000150 .L0 
C:\Users\stapi\AppData\Local\Temp\ccgBjMFA.s:3866   .text.alcs_rec_heart_beat:0000000000000160 .L0 
C:\Users\stapi\AppData\Local\Temp\ccgBjMFA.s:3871   .text.alcs_rec_heart_beat:000000000000016a .L0 
C:\Users\stapi\AppData\Local\Temp\ccgBjMFA.s:3872   .text.alcs_rec_heart_beat:000000000000016c .L0 
C:\Users\stapi\AppData\Local\Temp\ccgBjMFA.s:3873   .text.alcs_rec_heart_beat:000000000000016c .L0 
C:\Users\stapi\AppData\Local\Temp\ccgBjMFA.s:3875   .text.alcs_rec_heart_beat:0000000000000174 .L0 
C:\Users\stapi\AppData\Local\Temp\ccgBjMFA.s:3876   .text.alcs_rec_heart_beat:0000000000000174 .L0 
C:\Users\stapi\AppData\Local\Temp\ccgBjMFA.s:3877   .text.alcs_rec_heart_beat:0000000000000174 .L0 
C:\Users\stapi\AppData\Local\Temp\ccgBjMFA.s:3878   .text.alcs_rec_heart_beat:0000000000000174 .L0 
C:\Users\stapi\AppData\Local\Temp\ccgBjMFA.s:3879   .text.alcs_rec_heart_beat:0000000000000174 .L0 
C:\Users\stapi\AppData\Local\Temp\ccgBjMFA.s:3880   .text.alcs_rec_heart_beat:0000000000000174 .L0 
C:\Users\stapi\AppData\Local\Temp\ccgBjMFA.s:3881   .text.alcs_rec_heart_beat:0000000000000174 .L0 
C:\Users\stapi\AppData\Local\Temp\ccgBjMFA.s:3882   .text.alcs_rec_heart_beat:0000000000000174 .L0 
C:\Users\stapi\AppData\Local\Temp\ccgBjMFA.s:3883   .text.alcs_rec_heart_beat:0000000000000174 .L0 
C:\Users\stapi\AppData\Local\Temp\ccgBjMFA.s:3886   .text.alcs_rec_heart_beat:0000000000000174 .L0 
C:\Users\stapi\AppData\Local\Temp\ccgBjMFA.s:3888   .text.alcs_rec_heart_beat:0000000000000174 .L0 
C:\Users\stapi\AppData\Local\Temp\ccgBjMFA.s:3889   .text.alcs_rec_heart_beat:0000000000000174 .L0 
C:\Users\stapi\AppData\Local\Temp\ccgBjMFA.s:3892   .text.alcs_rec_heart_beat:0000000000000178 .L0 
C:\Users\stapi\AppData\Local\Temp\ccgBjMFA.s:3897   .text.alcs_rec_heart_beat:0000000000000186 .L0 
C:\Users\stapi\AppData\Local\Temp\ccgBjMFA.s:3899   .text.alcs_rec_heart_beat:0000000000000188 .L0 
C:\Users\stapi\AppData\Local\Temp\ccgBjMFA.s:3900   .text.alcs_rec_heart_beat:0000000000000188 .L0 
C:\Users\stapi\AppData\Local\Temp\ccgBjMFA.s:3903   .text.alcs_rec_heart_beat:0000000000000190 .L0 
C:\Users\stapi\AppData\Local\Temp\ccgBjMFA.s:3906   .text.alcs_rec_heart_beat:0000000000000192 .L0 
C:\Users\stapi\AppData\Local\Temp\ccgBjMFA.s:3907   .text.alcs_rec_heart_beat:0000000000000192 .L0 
C:\Users\stapi\AppData\Local\Temp\ccgBjMFA.s:3911   .text.alcs_rec_heart_beat:0000000000000194 .L0 
C:\Users\stapi\AppData\Local\Temp\ccgBjMFA.s:3920   .text.alcs_rec_heart_beat:00000000000001a0 .L0 
C:\Users\stapi\AppData\Local\Temp\ccgBjMFA.s:3927   .text.alcs_rec_heart_beat:00000000000001ae .L0 
C:\Users\stapi\AppData\Local\Temp\ccgBjMFA.s:3928   .text.alcs_rec_heart_beat:00000000000001ae .L0 
C:\Users\stapi\AppData\Local\Temp\ccgBjMFA.s:3930   .text.alcs_rec_heart_beat:00000000000001b2 .L0 
C:\Users\stapi\AppData\Local\Temp\ccgBjMFA.s:3934   .text.alcs_rec_heart_beat:00000000000001b8 .L0 
C:\Users\stapi\AppData\Local\Temp\ccgBjMFA.s:3936   .text.alcs_rec_heart_beat:00000000000001ba .L0 
C:\Users\stapi\AppData\Local\Temp\ccgBjMFA.s:3945   .text.alcs_rec_heart_beat:00000000000001ce .L0 
C:\Users\stapi\AppData\Local\Temp\ccgBjMFA.s:3956   .text.observe_data_encrypt:0000000000000000 observe_data_encrypt
C:\Users\stapi\AppData\Local\Temp\ccgBjMFA.s:3959   .text.observe_data_encrypt:0000000000000000 .L0 
C:\Users\stapi\AppData\Local\Temp\ccgBjMFA.s:3961   .text.observe_data_encrypt:0000000000000000 .L0 
C:\Users\stapi\AppData\Local\Temp\ccgBjMFA.s:3962   .text.observe_data_encrypt:0000000000000008 .L0 
C:\Users\stapi\AppData\Local\Temp\ccgBjMFA.s:3963   .text.observe_data_encrypt:0000000000000008 .L0 
C:\Users\stapi\AppData\Local\Temp\ccgBjMFA.s:3964   .text.observe_data_encrypt:0000000000000008 .L0 
C:\Users\stapi\AppData\Local\Temp\ccgBjMFA.s:3965   .text.observe_data_encrypt:0000000000000008 .L0 
C:\Users\stapi\AppData\Local\Temp\ccgBjMFA.s:3966   .text.observe_data_encrypt:0000000000000008 .L0 
C:\Users\stapi\AppData\Local\Temp\ccgBjMFA.s:3967   .text.observe_data_encrypt:0000000000000008 .L0 
C:\Users\stapi\AppData\Local\Temp\ccgBjMFA.s:3968   .text.observe_data_encrypt:0000000000000008 .L0 
C:\Users\stapi\AppData\Local\Temp\ccgBjMFA.s:3970   .text.observe_data_encrypt:0000000000000008 .L0 
C:\Users\stapi\AppData\Local\Temp\ccgBjMFA.s:3972   .text.observe_data_encrypt:000000000000000c .L0 
C:\Users\stapi\AppData\Local\Temp\ccgBjMFA.s:3974   .text.observe_data_encrypt:000000000000000e .L0 
C:\Users\stapi\AppData\Local\Temp\ccgBjMFA.s:3977   .text.observe_data_encrypt:0000000000000010 .L0 
C:\Users\stapi\AppData\Local\Temp\ccgBjMFA.s:3980   .text.observe_data_encrypt:0000000000000014 .L0 
C:\Users\stapi\AppData\Local\Temp\ccgBjMFA.s:3988   .text.observe_data_encrypt:0000000000000024 .L0 
C:\Users\stapi\AppData\Local\Temp\ccgBjMFA.s:3991   .text.observe_data_encrypt:0000000000000028 .L0 
C:\Users\stapi\AppData\Local\Temp\ccgBjMFA.s:4000   .text.observe_data_encrypt:000000000000003e .L0 
C:\Users\stapi\AppData\Local\Temp\ccgBjMFA.s:4001   .text.observe_data_encrypt:000000000000003e .L0 
C:\Users\stapi\AppData\Local\Temp\ccgBjMFA.s:4005   .text.observe_data_encrypt:0000000000000048 .L0 
C:\Users\stapi\AppData\Local\Temp\ccgBjMFA.s:4006   .text.observe_data_encrypt:0000000000000048 .L0 
C:\Users\stapi\AppData\Local\Temp\ccgBjMFA.s:4010   .text.observe_data_encrypt:000000000000004a .L0 
C:\Users\stapi\AppData\Local\Temp\ccgBjMFA.s:4013   .text.observe_data_encrypt:000000000000004e .L0 
C:\Users\stapi\AppData\Local\Temp\ccgBjMFA.s:4014   .text.observe_data_encrypt:0000000000000056 .L0 
C:\Users\stapi\AppData\Local\Temp\ccgBjMFA.s:4015   .text.observe_data_encrypt:0000000000000056 .L0 
C:\Users\stapi\AppData\Local\Temp\ccgBjMFA.s:4016   .text.observe_data_encrypt:0000000000000056 .L0 
C:\Users\stapi\AppData\Local\Temp\ccgBjMFA.s:4017   .text.observe_data_encrypt:0000000000000056 .L0 
C:\Users\stapi\AppData\Local\Temp\ccgBjMFA.s:4018   .text.observe_data_encrypt:0000000000000056 .L0 
C:\Users\stapi\AppData\Local\Temp\ccgBjMFA.s:4019   .text.observe_data_encrypt:0000000000000056 .L0 
C:\Users\stapi\AppData\Local\Temp\ccgBjMFA.s:4020   .text.observe_data_encrypt:0000000000000056 .L0 
C:\Users\stapi\AppData\Local\Temp\ccgBjMFA.s:4021   .text.observe_data_encrypt:0000000000000056 .L0 
C:\Users\stapi\AppData\Local\Temp\ccgBjMFA.s:4024   .text.observe_data_encrypt:0000000000000056 .L0 
C:\Users\stapi\AppData\Local\Temp\ccgBjMFA.s:4026   .text.observe_data_encrypt:0000000000000056 .L0 
C:\Users\stapi\AppData\Local\Temp\ccgBjMFA.s:4030   .text.observe_data_encrypt:0000000000000060 .L0 
C:\Users\stapi\AppData\Local\Temp\ccgBjMFA.s:4031   .text.observe_data_encrypt:0000000000000060 .L0 
C:\Users\stapi\AppData\Local\Temp\ccgBjMFA.s:4040   .text.observe_data_encrypt:000000000000006e .L0 
C:\Users\stapi\AppData\Local\Temp\ccgBjMFA.s:4041   .text.observe_data_encrypt:000000000000006e .L0 
C:\Users\stapi\AppData\Local\Temp\ccgBjMFA.s:4049   .text.observe_data_encrypt:000000000000007c .L0 
C:\Users\stapi\AppData\Local\Temp\ccgBjMFA.s:4050   .text.observe_data_encrypt:000000000000007c .L0 
C:\Users\stapi\AppData\Local\Temp\ccgBjMFA.s:4052   .text.observe_data_encrypt:000000000000007e .L0 
C:\Users\stapi\AppData\Local\Temp\ccgBjMFA.s:4053   .text.observe_data_encrypt:000000000000007e .L0 
C:\Users\stapi\AppData\Local\Temp\ccgBjMFA.s:4055   .text.observe_data_encrypt:0000000000000080 .L0 
C:\Users\stapi\AppData\Local\Temp\ccgBjMFA.s:4058   .text.observe_data_encrypt:0000000000000084 .L0 
C:\Users\stapi\AppData\Local\Temp\ccgBjMFA.s:4060   .text.observe_data_encrypt:0000000000000086 .L0 
C:\Users\stapi\AppData\Local\Temp\ccgBjMFA.s:4062   .text.observe_data_encrypt:0000000000000088 .L0 
C:\Users\stapi\AppData\Local\Temp\ccgBjMFA.s:4064   .text.observe_data_encrypt:000000000000008c .L0 
C:\Users\stapi\AppData\Local\Temp\ccgBjMFA.s:4065   .text.observe_data_encrypt:000000000000008c .L0 
C:\Users\stapi\AppData\Local\Temp\ccgBjMFA.s:4068   .text.observe_data_encrypt:0000000000000094 .L0 
C:\Users\stapi\AppData\Local\Temp\ccgBjMFA.s:4070   .text.observe_data_encrypt:0000000000000098 .L0 
C:\Users\stapi\AppData\Local\Temp\ccgBjMFA.s:4071   .text.observe_data_encrypt:0000000000000098 .L0 
C:\Users\stapi\AppData\Local\Temp\ccgBjMFA.s:4073   .text.observe_data_encrypt:000000000000009a .L0 
C:\Users\stapi\AppData\Local\Temp\ccgBjMFA.s:4079   .text.observe_data_encrypt:00000000000000aa .L0 
C:\Users\stapi\AppData\Local\Temp\ccgBjMFA.s:4085   .text.observe_data_encrypt:00000000000000ba .L0 
C:\Users\stapi\AppData\Local\Temp\ccgBjMFA.s:4086   .text.observe_data_encrypt:00000000000000ba .L0 
C:\Users\stapi\AppData\Local\Temp\ccgBjMFA.s:4088   .text.observe_data_encrypt:00000000000000be .L0 
C:\Users\stapi\AppData\Local\Temp\ccgBjMFA.s:4099   .text.on_svr_auth_timer:0000000000000000 on_svr_auth_timer
C:\Users\stapi\AppData\Local\Temp\ccgBjMFA.s:4102   .text.on_svr_auth_timer:0000000000000000 .L0 
C:\Users\stapi\AppData\Local\Temp\ccgBjMFA.s:4104   .text.on_svr_auth_timer:0000000000000000 .L0 
C:\Users\stapi\AppData\Local\Temp\ccgBjMFA.s:4105   .text.on_svr_auth_timer:0000000000000008 .L0 
C:\Users\stapi\AppData\Local\Temp\ccgBjMFA.s:4106   .text.on_svr_auth_timer:0000000000000008 .L0 
C:\Users\stapi\AppData\Local\Temp\ccgBjMFA.s:4107   .text.on_svr_auth_timer:0000000000000008 .L0 
C:\Users\stapi\AppData\Local\Temp\ccgBjMFA.s:4108   .text.on_svr_auth_timer:0000000000000008 .L0 
C:\Users\stapi\AppData\Local\Temp\ccgBjMFA.s:4109   .text.on_svr_auth_timer:0000000000000008 .L0 
C:\Users\stapi\AppData\Local\Temp\ccgBjMFA.s:4110   .text.on_svr_auth_timer:0000000000000008 .L0 
C:\Users\stapi\AppData\Local\Temp\ccgBjMFA.s:4111   .text.on_svr_auth_timer:0000000000000008 .L0 
C:\Users\stapi\AppData\Local\Temp\ccgBjMFA.s:4112   .text.on_svr_auth_timer:0000000000000008 .L0 
C:\Users\stapi\AppData\Local\Temp\ccgBjMFA.s:4113   .text.on_svr_auth_timer:0000000000000008 .L0 
C:\Users\stapi\AppData\Local\Temp\ccgBjMFA.s:4114   .text.on_svr_auth_timer:0000000000000008 .L0 
C:\Users\stapi\AppData\Local\Temp\ccgBjMFA.s:4115   .text.on_svr_auth_timer:0000000000000008 .L0 
C:\Users\stapi\AppData\Local\Temp\ccgBjMFA.s:4117   .text.on_svr_auth_timer:0000000000000008 .L0 
C:\Users\stapi\AppData\Local\Temp\ccgBjMFA.s:4118   .text.on_svr_auth_timer:0000000000000008 .L0 
C:\Users\stapi\AppData\Local\Temp\ccgBjMFA.s:4122   .text.on_svr_auth_timer:0000000000000014 .L0 
C:\Users\stapi\AppData\Local\Temp\ccgBjMFA.s:4123   .text.on_svr_auth_timer:0000000000000016 .L0 
C:\Users\stapi\AppData\Local\Temp\ccgBjMFA.s:4125   .text.on_svr_auth_timer:0000000000000016 .L0 
C:\Users\stapi\AppData\Local\Temp\ccgBjMFA.s:4127   .text.on_svr_auth_timer:0000000000000018 .L0 
C:\Users\stapi\AppData\Local\Temp\ccgBjMFA.s:4136   .text.on_svr_auth_timer:000000000000002a .L0 
C:\Users\stapi\AppData\Local\Temp\ccgBjMFA.s:4137   .text.on_svr_auth_timer:000000000000002a .L0 
C:\Users\stapi\AppData\Local\Temp\ccgBjMFA.s:4142   .text.on_svr_auth_timer:0000000000000034 .L0 
C:\Users\stapi\AppData\Local\Temp\ccgBjMFA.s:4143   .text.on_svr_auth_timer:0000000000000034 .L0 
C:\Users\stapi\AppData\Local\Temp\ccgBjMFA.s:4146   .text.on_svr_auth_timer:0000000000000036 .L0 
C:\Users\stapi\AppData\Local\Temp\ccgBjMFA.s:4148   .text.on_svr_auth_timer:000000000000003a .L0 
C:\Users\stapi\AppData\Local\Temp\ccgBjMFA.s:4150   .text.on_svr_auth_timer:000000000000003c .L0 
C:\Users\stapi\AppData\Local\Temp\ccgBjMFA.s:4153   .text.on_svr_auth_timer:0000000000000044 .L0 
C:\Users\stapi\AppData\Local\Temp\ccgBjMFA.s:4154   .text.on_svr_auth_timer:0000000000000044 .L0 
C:\Users\stapi\AppData\Local\Temp\ccgBjMFA.s:4157   .text.on_svr_auth_timer:000000000000004a .L0 
C:\Users\stapi\AppData\Local\Temp\ccgBjMFA.s:4159   .text.on_svr_auth_timer:000000000000004e .L0 
C:\Users\stapi\AppData\Local\Temp\ccgBjMFA.s:4163   .text.on_svr_auth_timer:0000000000000056 .L0 
C:\Users\stapi\AppData\Local\Temp\ccgBjMFA.s:4165   .text.on_svr_auth_timer:000000000000005a .L0 
C:\Users\stapi\AppData\Local\Temp\ccgBjMFA.s:4169   .text.on_svr_auth_timer:000000000000005e .L0 
C:\Users\stapi\AppData\Local\Temp\ccgBjMFA.s:4172   .text.on_svr_auth_timer:0000000000000066 .L0 
C:\Users\stapi\AppData\Local\Temp\ccgBjMFA.s:4173   .text.on_svr_auth_timer:0000000000000066 .L0 
C:\Users\stapi\AppData\Local\Temp\ccgBjMFA.s:4178   .text.on_svr_auth_timer:0000000000000068 .L0 
C:\Users\stapi\AppData\Local\Temp\ccgBjMFA.s:4179   .text.on_svr_auth_timer:0000000000000068 .L0 
C:\Users\stapi\AppData\Local\Temp\ccgBjMFA.s:4184   .text.on_svr_auth_timer:000000000000006a .L0 
C:\Users\stapi\AppData\Local\Temp\ccgBjMFA.s:4188   .text.on_svr_auth_timer:000000000000006e .L0 
C:\Users\stapi\AppData\Local\Temp\ccgBjMFA.s:4192   .text.on_svr_auth_timer:0000000000000078 .L0 
C:\Users\stapi\AppData\Local\Temp\ccgBjMFA.s:4193   .text.on_svr_auth_timer:000000000000007a .L0 
C:\Users\stapi\AppData\Local\Temp\ccgBjMFA.s:4194   .text.on_svr_auth_timer:000000000000007a .L0 
C:\Users\stapi\AppData\Local\Temp\ccgBjMFA.s:4196   .text.on_svr_auth_timer:0000000000000082 .L0 
C:\Users\stapi\AppData\Local\Temp\ccgBjMFA.s:4197   .text.on_svr_auth_timer:0000000000000082 .L0 
C:\Users\stapi\AppData\Local\Temp\ccgBjMFA.s:4198   .text.on_svr_auth_timer:0000000000000082 .L0 
C:\Users\stapi\AppData\Local\Temp\ccgBjMFA.s:4199   .text.on_svr_auth_timer:0000000000000082 .L0 
C:\Users\stapi\AppData\Local\Temp\ccgBjMFA.s:4200   .text.on_svr_auth_timer:0000000000000082 .L0 
C:\Users\stapi\AppData\Local\Temp\ccgBjMFA.s:4201   .text.on_svr_auth_timer:0000000000000082 .L0 
C:\Users\stapi\AppData\Local\Temp\ccgBjMFA.s:4202   .text.on_svr_auth_timer:0000000000000082 .L0 
C:\Users\stapi\AppData\Local\Temp\ccgBjMFA.s:4203   .text.on_svr_auth_timer:0000000000000082 .L0 
C:\Users\stapi\AppData\Local\Temp\ccgBjMFA.s:4204   .text.on_svr_auth_timer:0000000000000082 .L0 
C:\Users\stapi\AppData\Local\Temp\ccgBjMFA.s:4205   .text.on_svr_auth_timer:0000000000000082 .L0 
C:\Users\stapi\AppData\Local\Temp\ccgBjMFA.s:4206   .text.on_svr_auth_timer:0000000000000082 .L0 
C:\Users\stapi\AppData\Local\Temp\ccgBjMFA.s:4209   .text.on_svr_auth_timer:0000000000000082 .L0 
C:\Users\stapi\AppData\Local\Temp\ccgBjMFA.s:4211   .text.on_svr_auth_timer:0000000000000082 .L0 
C:\Users\stapi\AppData\Local\Temp\ccgBjMFA.s:4212   .text.on_svr_auth_timer:0000000000000082 .L0 
C:\Users\stapi\AppData\Local\Temp\ccgBjMFA.s:4218   .text.on_svr_auth_timer:0000000000000090 .L0 
C:\Users\stapi\AppData\Local\Temp\ccgBjMFA.s:4223   .text.on_svr_auth_timer:000000000000009c .L0 
C:\Users\stapi\AppData\Local\Temp\ccgBjMFA.s:4227   .text.on_svr_auth_timer:00000000000000a4 .L0 
C:\Users\stapi\AppData\Local\Temp\ccgBjMFA.s:4236   .text.on_svr_auth_timer:00000000000000b0 .L0 
C:\Users\stapi\AppData\Local\Temp\ccgBjMFA.s:4237   .text.on_svr_auth_timer:00000000000000b0 .L0 
C:\Users\stapi\AppData\Local\Temp\ccgBjMFA.s:4240   .text.on_svr_auth_timer:00000000000000b4 .L0 
C:\Users\stapi\AppData\Local\Temp\ccgBjMFA.s:4242   .text.on_svr_auth_timer:00000000000000b6 .L0 
C:\Users\stapi\AppData\Local\Temp\ccgBjMFA.s:4247   .text.on_svr_auth_timer:00000000000000be .L0 
C:\Users\stapi\AppData\Local\Temp\ccgBjMFA.s:4249   .text.on_svr_auth_timer:00000000000000c2 .L0 
C:\Users\stapi\AppData\Local\Temp\ccgBjMFA.s:4255   .text.on_svr_auth_timer:00000000000000ce .L0 
C:\Users\stapi\AppData\Local\Temp\ccgBjMFA.s:4258   .text.on_svr_auth_timer:00000000000000d6 .L0 
C:\Users\stapi\AppData\Local\Temp\ccgBjMFA.s:4259   .text.on_svr_auth_timer:00000000000000d6 .L0 
C:\Users\stapi\AppData\Local\Temp\ccgBjMFA.s:4262   .text.on_svr_auth_timer:00000000000000da .L0 
C:\Users\stapi\AppData\Local\Temp\ccgBjMFA.s:4266   .text.on_svr_auth_timer:00000000000000e0 .L0 
C:\Users\stapi\AppData\Local\Temp\ccgBjMFA.s:4268   .text.on_svr_auth_timer:00000000000000e4 .L0 
C:\Users\stapi\AppData\Local\Temp\ccgBjMFA.s:4269   .text.on_svr_auth_timer:00000000000000e4 .L0 
C:\Users\stapi\AppData\Local\Temp\ccgBjMFA.s:4270   .text.on_svr_auth_timer:00000000000000e4 .L0 
C:\Users\stapi\AppData\Local\Temp\ccgBjMFA.s:4274   .text.on_svr_auth_timer:00000000000000f0 .L0 
C:\Users\stapi\AppData\Local\Temp\ccgBjMFA.s:4278   .text.on_svr_auth_timer:00000000000000fc .L0 
C:\Users\stapi\AppData\Local\Temp\ccgBjMFA.s:4282   .text.on_svr_auth_timer:0000000000000108 .L0 
C:\Users\stapi\AppData\Local\Temp\ccgBjMFA.s:4283   .text.on_svr_auth_timer:0000000000000108 .L0 
C:\Users\stapi\AppData\Local\Temp\ccgBjMFA.s:4289   .text.on_svr_auth_timer:0000000000000114 .L0 
C:\Users\stapi\AppData\Local\Temp\ccgBjMFA.s:4295   .text.on_svr_auth_timer:0000000000000120 .L0 
C:\Users\stapi\AppData\Local\Temp\ccgBjMFA.s:4300   .rodata.__FUNCTION__.0:0000000000000000 .LANCHOR4
C:\Users\stapi\AppData\Local\Temp\ccgBjMFA.s:4303   .rodata.__FUNCTION__.0:0000000000000000 __FUNCTION__.0
C:\Users\stapi\AppData\Local\Temp\ccgBjMFA.s:4307   .rodata.__FUNCTION__.1:0000000000000000 .LANCHOR3
C:\Users\stapi\AppData\Local\Temp\ccgBjMFA.s:4310   .rodata.__FUNCTION__.1:0000000000000000 __FUNCTION__.1
C:\Users\stapi\AppData\Local\Temp\ccgBjMFA.s:4314   .rodata.__FUNCTION__.2:0000000000000000 .LANCHOR2
C:\Users\stapi\AppData\Local\Temp\ccgBjMFA.s:4317   .rodata.__FUNCTION__.2:0000000000000000 __FUNCTION__.2
C:\Users\stapi\AppData\Local\Temp\ccgBjMFA.s:4321   .rodata.__FUNCTION__.3:0000000000000000 .LANCHOR1
C:\Users\stapi\AppData\Local\Temp\ccgBjMFA.s:4324   .rodata.__FUNCTION__.3:0000000000000000 __FUNCTION__.3
C:\Users\stapi\AppData\Local\Temp\ccgBjMFA.s:4328   .rodata.__FUNCTION__.4:0000000000000000 .LANCHOR0
C:\Users\stapi\AppData\Local\Temp\ccgBjMFA.s:4331   .rodata.__FUNCTION__.4:0000000000000000 __FUNCTION__.4
C:\Users\stapi\AppData\Local\Temp\ccgBjMFA.s:147    .text.get_resource_by_path:00000000000000be .L0 
C:\Users\stapi\AppData\Local\Temp\ccgBjMFA.s:487    .text.is_legal_key:00000000000001f2 .L0 
C:\Users\stapi\AppData\Local\Temp\ccgBjMFA.s:1567   .text.alcs_rec_auth:000000000000072e .L0 
C:\Users\stapi\AppData\Local\Temp\ccgBjMFA.s:2159   .text.alcs_add_svr_key:00000000000003d8 .L0 
C:\Users\stapi\AppData\Local\Temp\ccgBjMFA.s:2280   .text.alcs_remove_svr_key:0000000000000090 .L0 
C:\Users\stapi\AppData\Local\Temp\ccgBjMFA.s:2366   .text.alcs_set_revocation:0000000000000074 .L0 
C:\Users\stapi\AppData\Local\Temp\ccgBjMFA.s:2438   .text.send_err_rsp:0000000000000054 .L0 
C:\Users\stapi\AppData\Local\Temp\ccgBjMFA.s:2537   .text.call_cb:0000000000000062 .L0 
C:\Users\stapi\AppData\Local\Temp\ccgBjMFA.s:2678   .text.add_request:00000000000000cc .L0 
C:\Users\stapi\AppData\Local\Temp\ccgBjMFA.s:3040   .text.p2p_msg_handler:0000000000000252 .L0 
C:\Users\stapi\AppData\Local\Temp\ccgBjMFA.s:3056   .text.recv_msg_handler:0000000000000008 .L0 
C:\Users\stapi\AppData\Local\Temp\ccgBjMFA.s:3419   .text.alcs_resource_register_secure:0000000000000224 .L0 
C:\Users\stapi\AppData\Local\Temp\ccgBjMFA.s:3501   .text.alcs_resource_cb_deinit:0000000000000052 .L0 
C:\Users\stapi\AppData\Local\Temp\ccgBjMFA.s:3652   .text.alcs_auth_list_deinit:00000000000000ae .L0 
C:\Users\stapi\AppData\Local\Temp\ccgBjMFA.s:3948   .text.alcs_rec_heart_beat:00000000000001ce .L0 
C:\Users\stapi\AppData\Local\Temp\ccgBjMFA.s:4091   .text.observe_data_encrypt:00000000000000be .L0 
C:\Users\stapi\AppData\Local\Temp\ccgBjMFA.s:4298   .text.on_svr_auth_timer:0000000000000120 .L0 
                     .debug_frame:0000000000000000 .L0 
C:\Users\stapi\AppData\Local\Temp\ccgBjMFA.s:11     .rodata.get_resource_by_path.str1.4:0000000000000000 .LC0
C:\Users\stapi\AppData\Local\Temp\ccgBjMFA.s:14     .rodata.get_resource_by_path.str1.4:0000000000000008 .LC1
C:\Users\stapi\AppData\Local\Temp\ccgBjMFA.s:17     .rodata.get_resource_by_path.str1.4:000000000000002c .LC2
C:\Users\stapi\AppData\Local\Temp\ccgBjMFA.s:106    .text.get_resource_by_path:000000000000008a .L6
C:\Users\stapi\AppData\Local\Temp\ccgBjMFA.s:131    .text.get_resource_by_path:00000000000000aa .L3
C:\Users\stapi\AppData\Local\Temp\ccgBjMFA.s:92     .text.get_resource_by_path:000000000000007e .L1
C:\Users\stapi\AppData\Local\Temp\ccgBjMFA.s:66     .text.get_resource_by_path:0000000000000042 .L2
C:\Users\stapi\AppData\Local\Temp\ccgBjMFA.s:122    .text.get_resource_by_path:000000000000009e .L5
C:\Users\stapi\AppData\Local\Temp\ccgBjMFA.s:119    .text.get_resource_by_path:000000000000009c .L17
C:\Users\stapi\AppData\Local\Temp\ccgBjMFA.s:149    .rodata.is_legal_key.str1.4:0000000000000000 .LC3
C:\Users\stapi\AppData\Local\Temp\ccgBjMFA.s:152    .rodata.is_legal_key.str1.4:0000000000000008 .LC4
C:\Users\stapi\AppData\Local\Temp\ccgBjMFA.s:155    .rodata.is_legal_key.str1.4:0000000000000028 .LC5
C:\Users\stapi\AppData\Local\Temp\ccgBjMFA.s:158    .rodata.is_legal_key.str1.4:0000000000000038 .LC6
C:\Users\stapi\AppData\Local\Temp\ccgBjMFA.s:164    .rodata.is_legal_key.str1.4:000000000000005c .LC8
C:\Users\stapi\AppData\Local\Temp\ccgBjMFA.s:161    .rodata.is_legal_key.str1.4:0000000000000044 .LC7
C:\Users\stapi\AppData\Local\Temp\ccgBjMFA.s:167    .rodata.is_legal_key.str1.4:000000000000007c .LC9
C:\Users\stapi\AppData\Local\Temp\ccgBjMFA.s:170    .rodata.is_legal_key.str1.4:000000000000008c .LC10
C:\Users\stapi\AppData\Local\Temp\ccgBjMFA.s:274    .text.is_legal_key:00000000000000a0 .L19
C:\Users\stapi\AppData\Local\Temp\ccgBjMFA.s:323    .text.is_legal_key:00000000000000ee .L23
C:\Users\stapi\AppData\Local\Temp\ccgBjMFA.s:377    .text.is_legal_key:0000000000000146 .L24
C:\Users\stapi\AppData\Local\Temp\ccgBjMFA.s:362    .text.is_legal_key:000000000000013e .L34
C:\Users\stapi\AppData\Local\Temp\ccgBjMFA.s:369    .text.is_legal_key:0000000000000142 .L21
C:\Users\stapi\AppData\Local\Temp\ccgBjMFA.s:450    .text.is_legal_key:00000000000001da .L18
C:\Users\stapi\AppData\Local\Temp\ccgBjMFA.s:269    .text.is_legal_key:000000000000009c .L20
C:\Users\stapi\AppData\Local\Temp\ccgBjMFA.s:415    .text.is_legal_key:000000000000018e .L28
C:\Users\stapi\AppData\Local\Temp\ccgBjMFA.s:311    .text.is_legal_key:00000000000000de .L33
C:\Users\stapi\AppData\Local\Temp\ccgBjMFA.s:473    .text.is_legal_key:00000000000001e6 .L27
C:\Users\stapi\AppData\Local\Temp\ccgBjMFA.s:391    .text.is_legal_key:0000000000000154 .L26
C:\Users\stapi\AppData\Local\Temp\ccgBjMFA.s:489    .rodata.alcs_rec_auth.str1.4:0000000000000000 .LC11
C:\Users\stapi\AppData\Local\Temp\ccgBjMFA.s:492    .rodata.alcs_rec_auth.str1.4:000000000000001c .LC12
C:\Users\stapi\AppData\Local\Temp\ccgBjMFA.s:495    .rodata.alcs_rec_auth.str1.4:0000000000000028 .LC13
C:\Users\stapi\AppData\Local\Temp\ccgBjMFA.s:498    .rodata.alcs_rec_auth.str1.4:0000000000000038 .LC14
C:\Users\stapi\AppData\Local\Temp\ccgBjMFA.s:537    .rodata.alcs_rec_auth.str1.4:0000000000000158 .LC27
C:\Users\stapi\AppData\Local\Temp\ccgBjMFA.s:501    .rodata.alcs_rec_auth.str1.4:000000000000004c .LC15
C:\Users\stapi\AppData\Local\Temp\ccgBjMFA.s:504    .rodata.alcs_rec_auth.str1.4:0000000000000060 .LC16
C:\Users\stapi\AppData\Local\Temp\ccgBjMFA.s:507    .rodata.alcs_rec_auth.str1.4:000000000000006c .LC17
C:\Users\stapi\AppData\Local\Temp\ccgBjMFA.s:510    .rodata.alcs_rec_auth.str1.4:0000000000000070 .LC18
C:\Users\stapi\AppData\Local\Temp\ccgBjMFA.s:513    .rodata.alcs_rec_auth.str1.4:0000000000000078 .LC19
C:\Users\stapi\AppData\Local\Temp\ccgBjMFA.s:516    .rodata.alcs_rec_auth.str1.4:00000000000000a4 .LC20
C:\Users\stapi\AppData\Local\Temp\ccgBjMFA.s:519    .rodata.alcs_rec_auth.str1.4:00000000000000ac .LC21
C:\Users\stapi\AppData\Local\Temp\ccgBjMFA.s:522    .rodata.alcs_rec_auth.str1.4:00000000000000b4 .LC22
C:\Users\stapi\AppData\Local\Temp\ccgBjMFA.s:525    .rodata.alcs_rec_auth.str1.4:00000000000000c0 .LC23
C:\Users\stapi\AppData\Local\Temp\ccgBjMFA.s:528    .rodata.alcs_rec_auth.str1.4:00000000000000e8 .LC24
C:\Users\stapi\AppData\Local\Temp\ccgBjMFA.s:531    .rodata.alcs_rec_auth.str1.4:00000000000000f0 .LC25
C:\Users\stapi\AppData\Local\Temp\ccgBjMFA.s:534    .rodata.alcs_rec_auth.str1.4:0000000000000144 .LC26
C:\Users\stapi\AppData\Local\Temp\ccgBjMFA.s:700    .text.alcs_rec_auth:0000000000000112 .L45
C:\Users\stapi\AppData\Local\Temp\ccgBjMFA.s:777    .text.alcs_rec_auth:000000000000018a .L37
C:\Users\stapi\AppData\Local\Temp\ccgBjMFA.s:853    .text.alcs_rec_auth:0000000000000206 .L39
C:\Users\stapi\AppData\Local\Temp\ccgBjMFA.s:843    .text.alcs_rec_auth:00000000000001fe .L40
C:\Users\stapi\AppData\Local\Temp\ccgBjMFA.s:912    .text.alcs_rec_auth:000000000000026a .L41
C:\Users\stapi\AppData\Local\Temp\ccgBjMFA.s:976    .text.alcs_rec_auth:00000000000002e8 .L42
C:\Users\stapi\AppData\Local\Temp\ccgBjMFA.s:981    .text.alcs_rec_auth:00000000000002ee .L43
C:\Users\stapi\AppData\Local\Temp\ccgBjMFA.s:847    .text.alcs_rec_auth:0000000000000202 .L75
C:\Users\stapi\AppData\Local\Temp\ccgBjMFA.s:1341   .text.alcs_rec_auth:000000000000056e .L44
C:\Users\stapi\AppData\Local\Temp\ccgBjMFA.s:1569   .rodata.alcs_add_svr_key.str1.4:0000000000000000 .LC28
C:\Users\stapi\AppData\Local\Temp\ccgBjMFA.s:1572   .rodata.alcs_add_svr_key.str1.4:0000000000000020 .LC29
C:\Users\stapi\AppData\Local\Temp\ccgBjMFA.s:1575   .rodata.alcs_add_svr_key.str1.4:0000000000000034 .LC30
C:\Users\stapi\AppData\Local\Temp\ccgBjMFA.s:1578   .rodata.alcs_add_svr_key.str1.4:0000000000000044 .LC31
C:\Users\stapi\AppData\Local\Temp\ccgBjMFA.s:1581   .rodata.alcs_add_svr_key.str1.4:000000000000006c .LC32
C:\Users\stapi\AppData\Local\Temp\ccgBjMFA.s:1584   .rodata.alcs_add_svr_key.str1.4:000000000000008c .LC33
C:\Users\stapi\AppData\Local\Temp\ccgBjMFA.s:1593   .rodata.alcs_add_svr_key.str1.4:00000000000000e4 .LC36
C:\Users\stapi\AppData\Local\Temp\ccgBjMFA.s:1587   .rodata.alcs_add_svr_key.str1.4:000000000000009c .LC34
C:\Users\stapi\AppData\Local\Temp\ccgBjMFA.s:1590   .rodata.alcs_add_svr_key.str1.4:00000000000000c0 .LC35
C:\Users\stapi\AppData\Local\Temp\ccgBjMFA.s:1596   .rodata.alcs_add_svr_key.str1.4:00000000000000f4 .LC37
C:\Users\stapi\AppData\Local\Temp\ccgBjMFA.s:1599   .rodata.alcs_add_svr_key.str1.4:0000000000000104 .LC38
C:\Users\stapi\AppData\Local\Temp\ccgBjMFA.s:1602   .rodata.alcs_add_svr_key.str1.4:0000000000000114 .LC39
C:\Users\stapi\AppData\Local\Temp\ccgBjMFA.s:1605   .rodata.alcs_add_svr_key.str1.4:0000000000000124 .LC40
C:\Users\stapi\AppData\Local\Temp\ccgBjMFA.s:1958   .text.alcs_add_svr_key:000000000000027c .L76
C:\Users\stapi\AppData\Local\Temp\ccgBjMFA.s:1846   .text.alcs_add_svr_key:00000000000001c4 .L78
C:\Users\stapi\AppData\Local\Temp\ccgBjMFA.s:1942   .text.alcs_add_svr_key:0000000000000268 .L85
C:\Users\stapi\AppData\Local\Temp\ccgBjMFA.s:1990   .text.alcs_add_svr_key:0000000000000290 .L86
C:\Users\stapi\AppData\Local\Temp\ccgBjMFA.s:1753   .text.alcs_add_svr_key:0000000000000104 .L83
C:\Users\stapi\AppData\Local\Temp\ccgBjMFA.s:1932   .text.alcs_add_svr_key:000000000000025c .L81
C:\Users\stapi\AppData\Local\Temp\ccgBjMFA.s:1874   .text.alcs_add_svr_key:00000000000001fc .L80
C:\Users\stapi\AppData\Local\Temp\ccgBjMFA.s:1978   .text.alcs_add_svr_key:0000000000000286 .L84
C:\Users\stapi\AppData\Local\Temp\ccgBjMFA.s:1803   .text.alcs_add_svr_key:0000000000000172 .L79
C:\Users\stapi\AppData\Local\Temp\ccgBjMFA.s:2037   .text.alcs_add_svr_key:00000000000002fc .L87
C:\Users\stapi\AppData\Local\Temp\ccgBjMFA.s:1840   .text.alcs_add_svr_key:00000000000001be .L91
C:\Users\stapi\AppData\Local\Temp\ccgBjMFA.s:2250   .text.alcs_remove_svr_key:0000000000000070 .L95
C:\Users\stapi\AppData\Local\Temp\ccgBjMFA.s:2267   .text.alcs_remove_svr_key:0000000000000084 .L94
C:\Users\stapi\AppData\Local\Temp\ccgBjMFA.s:2201   .text.alcs_remove_svr_key:0000000000000034 .L93
C:\Users\stapi\AppData\Local\Temp\ccgBjMFA.s:2318   .text.alcs_set_revocation:0000000000000030 .L99
C:\Users\stapi\AppData\Local\Temp\ccgBjMFA.s:2331   .text.alcs_set_revocation:0000000000000040 .L100
C:\Users\stapi\AppData\Local\Temp\ccgBjMFA.s:2349   .text.alcs_set_revocation:0000000000000060 .L101
C:\Users\stapi\AppData\Local\Temp\ccgBjMFA.s:2525   .text.call_cb:000000000000005a .L114
C:\Users\stapi\AppData\Local\Temp\ccgBjMFA.s:2502   .text.call_cb:0000000000000046 .L115
C:\Users\stapi\AppData\Local\Temp\ccgBjMFA.s:2580   .text.add_request:0000000000000028 .L124
C:\Users\stapi\AppData\Local\Temp\ccgBjMFA.s:2661   .text.add_request:00000000000000c2 .L123
C:\Users\stapi\AppData\Local\Temp\ccgBjMFA.s:2586   .text.add_request:0000000000000032 .L125
C:\Users\stapi\AppData\Local\Temp\ccgBjMFA.s:2631   .text.add_request:0000000000000088 .L127
C:\Users\stapi\AppData\Local\Temp\ccgBjMFA.s:2643   .text.add_request:000000000000009e .L128
C:\Users\stapi\AppData\Local\Temp\ccgBjMFA.s:2680   .rodata.p2p_msg_handler.str1.4:0000000000000000 .LC41
C:\Users\stapi\AppData\Local\Temp\ccgBjMFA.s:2683   .rodata.p2p_msg_handler.str1.4:0000000000000020 .LC42
C:\Users\stapi\AppData\Local\Temp\ccgBjMFA.s:2686   .rodata.p2p_msg_handler.str1.4:0000000000000024 .LC43
C:\Users\stapi\AppData\Local\Temp\ccgBjMFA.s:2692   .rodata.p2p_msg_handler.str1.4:000000000000005c .LC45
C:\Users\stapi\AppData\Local\Temp\ccgBjMFA.s:2689   .rodata.p2p_msg_handler.str1.4:0000000000000034 .LC44
C:\Users\stapi\AppData\Local\Temp\ccgBjMFA.s:3020   .text.p2p_msg_handler:0000000000000248 .L146
C:\Users\stapi\AppData\Local\Temp\ccgBjMFA.s:2745   .text.p2p_msg_handler:0000000000000038 .L148
C:\Users\stapi\AppData\Local\Temp\ccgBjMFA.s:2860   .text.p2p_msg_handler:000000000000011c .L150
C:\Users\stapi\AppData\Local\Temp\ccgBjMFA.s:2826   .text.p2p_msg_handler:00000000000000d6 .L152
C:\Users\stapi\AppData\Local\Temp\ccgBjMFA.s:2885   .text.p2p_msg_handler:0000000000000154 .L154
C:\Users\stapi\AppData\Local\Temp\ccgBjMFA.s:2817   .text.p2p_msg_handler:00000000000000c4 .L177
C:\Users\stapi\AppData\Local\Temp\ccgBjMFA.s:2907   .text.p2p_msg_handler:0000000000000178 .L155
C:\Users\stapi\AppData\Local\Temp\ccgBjMFA.s:2984   .text.p2p_msg_handler:000000000000020c .L156
C:\Users\stapi\AppData\Local\Temp\ccgBjMFA.s:2992   .text.p2p_msg_handler:0000000000000218 .L157
C:\Users\stapi\AppData\Local\Temp\ccgBjMFA.s:3058   .rodata.alcs_resource_register_secure.str1.4:0000000000000000 .LC46
C:\Users\stapi\AppData\Local\Temp\ccgBjMFA.s:3061   .rodata.alcs_resource_register_secure.str1.4:0000000000000020 .LC47
C:\Users\stapi\AppData\Local\Temp\ccgBjMFA.s:3219   .text.alcs_resource_register_secure:00000000000000f4 .L192
C:\Users\stapi\AppData\Local\Temp\ccgBjMFA.s:3224   .text.alcs_resource_register_secure:00000000000000f8 .L182
C:\Users\stapi\AppData\Local\Temp\ccgBjMFA.s:3239   .text.alcs_resource_register_secure:0000000000000114 .L187
C:\Users\stapi\AppData\Local\Temp\ccgBjMFA.s:3409   .text.alcs_resource_register_secure:0000000000000218 .L188
C:\Users\stapi\AppData\Local\Temp\ccgBjMFA.s:3312   .text.alcs_resource_register_secure:0000000000000198 .L189
C:\Users\stapi\AppData\Local\Temp\ccgBjMFA.s:3291   .text.alcs_resource_register_secure:0000000000000166 .L190
C:\Users\stapi\AppData\Local\Temp\ccgBjMFA.s:3387   .text.alcs_resource_register_secure:000000000000020e .L180
C:\Users\stapi\AppData\Local\Temp\ccgBjMFA.s:3166   .text.alcs_resource_register_secure:000000000000009a .L183
C:\Users\stapi\AppData\Local\Temp\ccgBjMFA.s:3267   .text.alcs_resource_register_secure:000000000000013a .L185
C:\Users\stapi\AppData\Local\Temp\ccgBjMFA.s:3259   .text.alcs_resource_register_secure:000000000000012e .L186
C:\Users\stapi\AppData\Local\Temp\ccgBjMFA.s:3285   .text.alcs_resource_register_secure:0000000000000162 .L194
C:\Users\stapi\AppData\Local\Temp\ccgBjMFA.s:3184   .text.alcs_resource_register_secure:00000000000000b6 .L184
C:\Users\stapi\AppData\Local\Temp\ccgBjMFA.s:3255   .text.alcs_resource_register_secure:000000000000012c .L196
C:\Users\stapi\AppData\Local\Temp\ccgBjMFA.s:3371   .text.alcs_resource_register_secure:00000000000001f4 .L191
C:\Users\stapi\AppData\Local\Temp\ccgBjMFA.s:3457   .text.alcs_resource_cb_deinit:000000000000002a .L200
C:\Users\stapi\AppData\Local\Temp\ccgBjMFA.s:3487   .text.alcs_resource_cb_deinit:0000000000000042 .L199
C:\Users\stapi\AppData\Local\Temp\ccgBjMFA.s:3445   .text.alcs_resource_cb_deinit:000000000000001a .L198
C:\Users\stapi\AppData\Local\Temp\ccgBjMFA.s:3572   .text.alcs_auth_list_deinit:0000000000000064 .L205
C:\Users\stapi\AppData\Local\Temp\ccgBjMFA.s:3547   .text.alcs_auth_list_deinit:0000000000000040 .L206
C:\Users\stapi\AppData\Local\Temp\ccgBjMFA.s:3619   .text.alcs_auth_list_deinit:000000000000008e .L208
C:\Users\stapi\AppData\Local\Temp\ccgBjMFA.s:3606   .text.alcs_auth_list_deinit:0000000000000078 .L204
C:\Users\stapi\AppData\Local\Temp\ccgBjMFA.s:3532   .text.alcs_auth_list_deinit:0000000000000028 .L203
C:\Users\stapi\AppData\Local\Temp\ccgBjMFA.s:3558   .text.alcs_auth_list_deinit:0000000000000054 .L207
C:\Users\stapi\AppData\Local\Temp\ccgBjMFA.s:3654   .rodata.alcs_rec_heart_beat.str1.4:0000000000000000 .LC48
C:\Users\stapi\AppData\Local\Temp\ccgBjMFA.s:3657   .rodata.alcs_rec_heart_beat.str1.4:0000000000000014 .LC49
C:\Users\stapi\AppData\Local\Temp\ccgBjMFA.s:3660   .rodata.alcs_rec_heart_beat.str1.4:0000000000000030 .LC50
C:\Users\stapi\AppData\Local\Temp\ccgBjMFA.s:3663   .rodata.alcs_rec_heart_beat.str1.4:0000000000000040 .LC51
C:\Users\stapi\AppData\Local\Temp\ccgBjMFA.s:3869   .text.alcs_rec_heart_beat:000000000000016a .L216
C:\Users\stapi\AppData\Local\Temp\ccgBjMFA.s:3885   .text.alcs_rec_heart_beat:0000000000000174 .L222
C:\Users\stapi\AppData\Local\Temp\ccgBjMFA.s:3765   .text.alcs_rec_heart_beat:00000000000000a0 .L223
C:\Users\stapi\AppData\Local\Temp\ccgBjMFA.s:3918   .text.alcs_rec_heart_beat:00000000000001a0 .L224
C:\Users\stapi\AppData\Local\Temp\ccgBjMFA.s:3924   .text.alcs_rec_heart_beat:00000000000001ae .L226
C:\Users\stapi\AppData\Local\Temp\ccgBjMFA.s:3909   .text.alcs_rec_heart_beat:0000000000000194 .L221
C:\Users\stapi\AppData\Local\Temp\ccgBjMFA.s:3742   .text.alcs_rec_heart_beat:0000000000000064 .L220
C:\Users\stapi\AppData\Local\Temp\ccgBjMFA.s:3801   .text.alcs_rec_heart_beat:00000000000000e2 .L238
C:\Users\stapi\AppData\Local\Temp\ccgBjMFA.s:3864   .text.alcs_rec_heart_beat:0000000000000160 .L227
C:\Users\stapi\AppData\Local\Temp\ccgBjMFA.s:3950   .rodata.observe_data_encrypt.str1.4:0000000000000000 .LC52
C:\Users\stapi\AppData\Local\Temp\ccgBjMFA.s:4023   .text.observe_data_encrypt:0000000000000056 .L240
C:\Users\stapi\AppData\Local\Temp\ccgBjMFA.s:4037   .text.observe_data_encrypt:000000000000006e .L242
C:\Users\stapi\AppData\Local\Temp\ccgBjMFA.s:4008   .text.observe_data_encrypt:000000000000004a .L243
C:\Users\stapi\AppData\Local\Temp\ccgBjMFA.s:4011   .text.observe_data_encrypt:000000000000004e .L239
C:\Users\stapi\AppData\Local\Temp\ccgBjMFA.s:4093   .rodata.on_svr_auth_timer.str1.4:0000000000000000 .LC53
C:\Users\stapi\AppData\Local\Temp\ccgBjMFA.s:4133   .text.on_svr_auth_timer:000000000000002a .L250
C:\Users\stapi\AppData\Local\Temp\ccgBjMFA.s:4208   .text.on_svr_auth_timer:0000000000000082 .L254
C:\Users\stapi\AppData\Local\Temp\ccgBjMFA.s:4186   .text.on_svr_auth_timer:000000000000006e .L270
C:\Users\stapi\AppData\Local\Temp\ccgBjMFA.s:4233   .text.on_svr_auth_timer:00000000000000b0 .L256
C:\Users\stapi\AppData\Local\Temp\ccgBjMFA.s:4221   .text.on_svr_auth_timer:000000000000009c .L262
C:\Users\stapi\AppData\Local\Temp\ccgBjMFA.s:4225   .text.on_svr_auth_timer:00000000000000a4 .L252
C:\Users\stapi\AppData\Local\Temp\ccgBjMFA.s:4167   .text.on_svr_auth_timer:000000000000005e .L251
C:\Users\stapi\AppData\Local\Temp\ccgBjMFA.s:4287   .text.on_svr_auth_timer:0000000000000114 .L259
C:\Users\stapi\AppData\Local\Temp\ccgBjMFA.s:4253   .text.on_svr_auth_timer:00000000000000ce .L258
C:\Users\stapi\AppData\Local\Temp\ccgBjMFA.s:12335  .debug_abbrev:0000000000000000 .Ldebug_abbrev0
C:\Users\stapi\AppData\Local\Temp\ccgBjMFA.s:15707  .debug_str:000000000000003c .LASF272
C:\Users\stapi\AppData\Local\Temp\ccgBjMFA.s:15903  .debug_str:0000000000000698 .LASF273
C:\Users\stapi\AppData\Local\Temp\ccgBjMFA.s:16047  .debug_str:0000000000000af3 .LASF274
C:\Users\stapi\AppData\Local\Temp\ccgBjMFA.s:15567  .debug_ranges:0000000000000000 .Ldebug_ranges0
C:\Users\stapi\AppData\Local\Temp\ccgBjMFA.s:15691  .debug_line:0000000000000000 .Ldebug_line0
C:\Users\stapi\AppData\Local\Temp\ccgBjMFA.s:15817  .debug_str:0000000000000474 .LASF0
C:\Users\stapi\AppData\Local\Temp\ccgBjMFA.s:15833  .debug_str:00000000000004e0 .LASF1
C:\Users\stapi\AppData\Local\Temp\ccgBjMFA.s:16145  .debug_str:0000000000000df3 .LASF2
C:\Users\stapi\AppData\Local\Temp\ccgBjMFA.s:16201  .debug_str:0000000000000f85 .LASF3
C:\Users\stapi\AppData\Local\Temp\ccgBjMFA.s:15789  .debug_str:000000000000038c .LASF4
C:\Users\stapi\AppData\Local\Temp\ccgBjMFA.s:15933  .debug_str:0000000000000807 .LASF5
C:\Users\stapi\AppData\Local\Temp\ccgBjMFA.s:15977  .debug_str:000000000000093a .LASF6
C:\Users\stapi\AppData\Local\Temp\ccgBjMFA.s:15929  .debug_str:00000000000007f7 .LASF9
C:\Users\stapi\AppData\Local\Temp\ccgBjMFA.s:16079  .debug_str:0000000000000c2c .LASF7
C:\Users\stapi\AppData\Local\Temp\ccgBjMFA.s:16007  .debug_str:00000000000009f8 .LASF8
C:\Users\stapi\AppData\Local\Temp\ccgBjMFA.s:15697  .debug_str:000000000000001a .LASF10
C:\Users\stapi\AppData\Local\Temp\ccgBjMFA.s:15859  .debug_str:0000000000000571 .LASF11
C:\Users\stapi\AppData\Local\Temp\ccgBjMFA.s:16147  .debug_str:0000000000000dfd .LASF12
C:\Users\stapi\AppData\Local\Temp\ccgBjMFA.s:15695  .debug_str:000000000000000a .LASF58
C:\Users\stapi\AppData\Local\Temp\ccgBjMFA.s:16003  .debug_str:00000000000009e7 .LASF13
C:\Users\stapi\AppData\Local\Temp\ccgBjMFA.s:16141  .debug_str:0000000000000de7 .LASF14
C:\Users\stapi\AppData\Local\Temp\ccgBjMFA.s:16033  .debug_str:0000000000000a99 .LASF15
C:\Users\stapi\AppData\Local\Temp\ccgBjMFA.s:15755  .debug_str:0000000000000297 .LASF16
C:\Users\stapi\AppData\Local\Temp\ccgBjMFA.s:16241  .debug_str:000000000000110e .LASF17
C:\Users\stapi\AppData\Local\Temp\ccgBjMFA.s:16111  .debug_str:0000000000000d26 .LASF18
C:\Users\stapi\AppData\Local\Temp\ccgBjMFA.s:15891  .debug_str:0000000000000647 .LASF19
C:\Users\stapi\AppData\Local\Temp\ccgBjMFA.s:15831  .debug_str:00000000000004cb .LASF20
C:\Users\stapi\AppData\Local\Temp\ccgBjMFA.s:16137  .debug_str:0000000000000dc4 .LASF21
C:\Users\stapi\AppData\Local\Temp\ccgBjMFA.s:16085  .debug_str:0000000000000c6c .LASF22
C:\Users\stapi\AppData\Local\Temp\ccgBjMFA.s:16237  .debug_str:00000000000010ee .LASF23
C:\Users\stapi\AppData\Local\Temp\ccgBjMFA.s:16187  .debug_str:0000000000000f12 .LASF24
C:\Users\stapi\AppData\Local\Temp\ccgBjMFA.s:16243  .debug_str:0000000000001120 .LASF25
C:\Users\stapi\AppData\Local\Temp\ccgBjMFA.s:15797  .debug_str:00000000000003d7 .LASF26
C:\Users\stapi\AppData\Local\Temp\ccgBjMFA.s:16081  .debug_str:0000000000000c43 .LASF27
C:\Users\stapi\AppData\Local\Temp\ccgBjMFA.s:16133  .debug_str:0000000000000d9b .LASF28
C:\Users\stapi\AppData\Local\Temp\ccgBjMFA.s:15745  .debug_str:0000000000000245 .LASF29
C:\Users\stapi\AppData\Local\Temp\ccgBjMFA.s:15919  .debug_str:00000000000007a6 .LASF30
C:\Users\stapi\AppData\Local\Temp\ccgBjMFA.s:15743  .debug_str:0000000000000229 .LASF31
C:\Users\stapi\AppData\Local\Temp\ccgBjMFA.s:15725  .debug_str:0000000000000188 .LASF32
C:\Users\stapi\AppData\Local\Temp\ccgBjMFA.s:15735  .debug_str:00000000000001cf .LASF33
C:\Users\stapi\AppData\Local\Temp\ccgBjMFA.s:16221  .debug_str:000000000000102d .LASF34
C:\Users\stapi\AppData\Local\Temp\ccgBjMFA.s:16233  .debug_str:00000000000010c3 .LASF35
C:\Users\stapi\AppData\Local\Temp\ccgBjMFA.s:16213  .debug_str:0000000000000fd2 .LASF36
C:\Users\stapi\AppData\Local\Temp\ccgBjMFA.s:16225  .debug_str:000000000000106a .LASF37
C:\Users\stapi\AppData\Local\Temp\ccgBjMFA.s:16183  .debug_str:0000000000000eda .LASF38
C:\Users\stapi\AppData\Local\Temp\ccgBjMFA.s:16231  .debug_str:00000000000010a1 .LASF39
C:\Users\stapi\AppData\Local\Temp\ccgBjMFA.s:16181  .debug_str:0000000000000ebc .LASF40
C:\Users\stapi\AppData\Local\Temp\ccgBjMFA.s:15793  .debug_str:000000000000039c .LASF41
C:\Users\stapi\AppData\Local\Temp\ccgBjMFA.s:15889  .debug_str:0000000000000625 .LASF42
C:\Users\stapi\AppData\Local\Temp\ccgBjMFA.s:15765  .debug_str:00000000000002ed .LASF43
C:\Users\stapi\AppData\Local\Temp\ccgBjMFA.s:15869  .debug_str:00000000000005aa .LASF44
C:\Users\stapi\AppData\Local\Temp\ccgBjMFA.s:15741  .debug_str:0000000000000212 .LASF45
C:\Users\stapi\AppData\Local\Temp\ccgBjMFA.s:16211  .debug_str:0000000000000fbf .LASF46
C:\Users\stapi\AppData\Local\Temp\ccgBjMFA.s:16151  .debug_str:0000000000000e0f .LASF47
C:\Users\stapi\AppData\Local\Temp\ccgBjMFA.s:16229  .debug_str:000000000000109c .LASF48
C:\Users\stapi\AppData\Local\Temp\ccgBjMFA.s:16127  .debug_str:0000000000000d71 .LASF49
C:\Users\stapi\AppData\Local\Temp\ccgBjMFA.s:16109  .debug_str:0000000000000d1e .LASF50
C:\Users\stapi\AppData\Local\Temp\ccgBjMFA.s:15749  .debug_str:000000000000026d .LASF51
C:\Users\stapi\AppData\Local\Temp\ccgBjMFA.s:15927  .debug_str:00000000000007ee .LASF52
C:\Users\stapi\AppData\Local\Temp\ccgBjMFA.s:16123  .debug_str:0000000000000d66 .LASF53
C:\Users\stapi\AppData\Local\Temp\ccgBjMFA.s:15701  .debug_str:000000000000002b .LASF54
C:\Users\stapi\AppData\Local\Temp\ccgBjMFA.s:16021  .debug_str:0000000000000a3b .LASF55
C:\Users\stapi\AppData\Local\Temp\ccgBjMFA.s:16117  .debug_str:0000000000000d46 .LASF56
C:\Users\stapi\AppData\Local\Temp\ccgBjMFA.s:16155  .debug_str:0000000000000e24 .LASF275
C:\Users\stapi\AppData\Local\Temp\ccgBjMFA.s:16173  .debug_str:0000000000000e89 .LASF57
C:\Users\stapi\AppData\Local\Temp\ccgBjMFA.s:15845  .debug_str:0000000000000536 .LASF59
C:\Users\stapi\AppData\Local\Temp\ccgBjMFA.s:16197  .debug_str:0000000000000f6b .LASF60
C:\Users\stapi\AppData\Local\Temp\ccgBjMFA.s:16217  .debug_str:0000000000001014 .LASF61
C:\Users\stapi\AppData\Local\Temp\ccgBjMFA.s:15915  .debug_str:0000000000000789 .LASF62
C:\Users\stapi\AppData\Local\Temp\ccgBjMFA.s:16011  .debug_str:0000000000000a0c .LASF63
C:\Users\stapi\AppData\Local\Temp\ccgBjMFA.s:16119  .debug_str:0000000000000d54 .LASF64
C:\Users\stapi\AppData\Local\Temp\ccgBjMFA.s:15957  .debug_str:00000000000008ac .LASF65
C:\Users\stapi\AppData\Local\Temp\ccgBjMFA.s:15853  .debug_str:0000000000000559 .LASF66
C:\Users\stapi\AppData\Local\Temp\ccgBjMFA.s:15705  .debug_str:0000000000000037 .LASF67
C:\Users\stapi\AppData\Local\Temp\ccgBjMFA.s:16157  .debug_str:0000000000000e30 .LASF68
C:\Users\stapi\AppData\Local\Temp\ccgBjMFA.s:15825  .debug_str:00000000000004aa .LASF69
C:\Users\stapi\AppData\Local\Temp\ccgBjMFA.s:16063  .debug_str:0000000000000bc8 .LASF70
C:\Users\stapi\AppData\Local\Temp\ccgBjMFA.s:15897  .debug_str:0000000000000668 .LASF71
C:\Users\stapi\AppData\Local\Temp\ccgBjMFA.s:15901  .debug_str:000000000000068c .LASF72
C:\Users\stapi\AppData\Local\Temp\ccgBjMFA.s:15839  .debug_str:0000000000000510 .LASF73
C:\Users\stapi\AppData\Local\Temp\ccgBjMFA.s:16095  .debug_str:0000000000000caf .LASF74
C:\Users\stapi\AppData\Local\Temp\ccgBjMFA.s:16017  .debug_str:0000000000000a2b .LASF75
C:\Users\stapi\AppData\Local\Temp\ccgBjMFA.s:16235  .debug_str:00000000000010e9 .LASF76
C:\Users\stapi\AppData\Local\Temp\ccgBjMFA.s:16227  .debug_str:0000000000001097 .LASF77
C:\Users\stapi\AppData\Local\Temp\ccgBjMFA.s:16019  .debug_str:0000000000000a33 .LASF78
C:\Users\stapi\AppData\Local\Temp\ccgBjMFA.s:15847  .debug_str:000000000000053d .LASF79
C:\Users\stapi\AppData\Local\Temp\ccgBjMFA.s:16015  .debug_str:0000000000000a21 .LASF80
C:\Users\stapi\AppData\Local\Temp\ccgBjMFA.s:15801  .debug_str:00000000000003fb .LASF81
C:\Users\stapi\AppData\Local\Temp\ccgBjMFA.s:15907  .debug_str:0000000000000743 .LASF82
C:\Users\stapi\AppData\Local\Temp\ccgBjMFA.s:16097  .debug_str:0000000000000cbb .LASF83
C:\Users\stapi\AppData\Local\Temp\ccgBjMFA.s:15967  .debug_str:00000000000008e9 .LASF84
C:\Users\stapi\AppData\Local\Temp\ccgBjMFA.s:15923  .debug_str:00000000000007c8 .LASF85
C:\Users\stapi\AppData\Local\Temp\ccgBjMFA.s:16215  .debug_str:0000000000000ffd .LASF86
C:\Users\stapi\AppData\Local\Temp\ccgBjMFA.s:15999  .debug_str:00000000000009c2 .LASF87
C:\Users\stapi\AppData\Local\Temp\ccgBjMFA.s:16107  .debug_str:0000000000000d06 .LASF88
C:\Users\stapi\AppData\Local\Temp\ccgBjMFA.s:15811  .debug_str:0000000000000439 .LASF89
C:\Users\stapi\AppData\Local\Temp\ccgBjMFA.s:15905  .debug_str:0000000000000731 .LASF90
C:\Users\stapi\AppData\Local\Temp\ccgBjMFA.s:15975  .debug_str:0000000000000922 .LASF91
C:\Users\stapi\AppData\Local\Temp\ccgBjMFA.s:16025  .debug_str:0000000000000a53 .LASF92
C:\Users\stapi\AppData\Local\Temp\ccgBjMFA.s:15925  .debug_str:00000000000007e0 .LASF93
C:\Users\stapi\AppData\Local\Temp\ccgBjMFA.s:15843  .debug_str:0000000000000529 .LASF94
C:\Users\stapi\AppData\Local\Temp\ccgBjMFA.s:15989  .debug_str:0000000000000982 .LASF95
C:\Users\stapi\AppData\Local\Temp\ccgBjMFA.s:15885  .debug_str:0000000000000613 .LASF96
C:\Users\stapi\AppData\Local\Temp\ccgBjMFA.s:15991  .debug_str:000000000000098d .LASF97
C:\Users\stapi\AppData\Local\Temp\ccgBjMFA.s:15971  .debug_str:0000000000000905 .LASF98
C:\Users\stapi\AppData\Local\Temp\ccgBjMFA.s:16153  .debug_str:0000000000000e1d .LASF99
C:\Users\stapi\AppData\Local\Temp\ccgBjMFA.s:16149  .debug_str:0000000000000e06 .LASF100
C:\Users\stapi\AppData\Local\Temp\ccgBjMFA.s:16001  .debug_str:00000000000009da .LASF101
C:\Users\stapi\AppData\Local\Temp\ccgBjMFA.s:15865  .debug_str:000000000000059b .LASF102
C:\Users\stapi\AppData\Local\Temp\ccgBjMFA.s:16091  .debug_str:0000000000000c9b .LASF103
C:\Users\stapi\AppData\Local\Temp\ccgBjMFA.s:15875  .debug_str:00000000000005da .LASF104
C:\Users\stapi\AppData\Local\Temp\ccgBjMFA.s:15791  .debug_str:0000000000000395 .LASF105
C:\Users\stapi\AppData\Local\Temp\ccgBjMFA.s:15813  .debug_str:000000000000044f .LASF106
C:\Users\stapi\AppData\Local\Temp\ccgBjMFA.s:15769  .debug_str:000000000000031e .LASF107
C:\Users\stapi\AppData\Local\Temp\ccgBjMFA.s:16163  .debug_str:0000000000000e50 .LASF108
C:\Users\stapi\AppData\Local\Temp\ccgBjMFA.s:15819  .debug_str:0000000000000480 .LASF109
C:\Users\stapi\AppData\Local\Temp\ccgBjMFA.s:15703  .debug_str:0000000000000031 .LASF110
C:\Users\stapi\AppData\Local\Temp\ccgBjMFA.s:15883  .debug_str:000000000000060a .LASF111
C:\Users\stapi\AppData\Local\Temp\ccgBjMFA.s:16035  .debug_str:0000000000000aa5 .LASF112
C:\Users\stapi\AppData\Local\Temp\ccgBjMFA.s:16045  .debug_str:0000000000000ae7 .LASF113
C:\Users\stapi\AppData\Local\Temp\ccgBjMFA.s:16161  .debug_str:0000000000000e42 .LASF114
C:\Users\stapi\AppData\Local\Temp\ccgBjMFA.s:16195  .debug_str:0000000000000f60 .LASF115
C:\Users\stapi\AppData\Local\Temp\ccgBjMFA.s:15777  .debug_str:0000000000000350 .LASF116
C:\Users\stapi\AppData\Local\Temp\ccgBjMFA.s:15723  .debug_str:000000000000017d .LASF117
C:\Users\stapi\AppData\Local\Temp\ccgBjMFA.s:16159  .debug_str:0000000000000e35 .LASF118
C:\Users\stapi\AppData\Local\Temp\ccgBjMFA.s:15849  .debug_str:0000000000000549 .LASF119
C:\Users\stapi\AppData\Local\Temp\ccgBjMFA.s:15711  .debug_str:0000000000000133 .LASF120
C:\Users\stapi\AppData\Local\Temp\ccgBjMFA.s:15785  .debug_str:000000000000037d .LASF121
C:\Users\stapi\AppData\Local\Temp\ccgBjMFA.s:16053  .debug_str:0000000000000b9f .LASF122
C:\Users\stapi\AppData\Local\Temp\ccgBjMFA.s:15823  .debug_str:000000000000049d .LASF123
C:\Users\stapi\AppData\Local\Temp\ccgBjMFA.s:15827  .debug_str:00000000000004b4 .LASF124
C:\Users\stapi\AppData\Local\Temp\ccgBjMFA.s:16083  .debug_str:0000000000000c61 .LASF125
C:\Users\stapi\AppData\Local\Temp\ccgBjMFA.s:16239  .debug_str:0000000000001106 .LASF126
C:\Users\stapi\AppData\Local\Temp\ccgBjMFA.s:15983  .debug_str:0000000000000964 .LASF127
C:\Users\stapi\AppData\Local\Temp\ccgBjMFA.s:16165  .debug_str:0000000000000e5a .LASF128
C:\Users\stapi\AppData\Local\Temp\ccgBjMFA.s:15775  .debug_str:000000000000033f .LASF129
C:\Users\stapi\AppData\Local\Temp\ccgBjMFA.s:15783  .debug_str:0000000000000370 .LASF130
C:\Users\stapi\AppData\Local\Temp\ccgBjMFA.s:16203  .debug_str:0000000000000f98 .LASF131
C:\Users\stapi\AppData\Local\Temp\ccgBjMFA.s:15713  .debug_str:000000000000013b .LASF132
C:\Users\stapi\AppData\Local\Temp\ccgBjMFA.s:15963  .debug_str:00000000000008d7 .LASF137
C:\Users\stapi\AppData\Local\Temp\ccgBjMFA.s:15717  .debug_str:0000000000000154 .LASF133
C:\Users\stapi\AppData\Local\Temp\ccgBjMFA.s:16073  .debug_str:0000000000000c14 .LASF134
C:\Users\stapi\AppData\Local\Temp\ccgBjMFA.s:15965  .debug_str:00000000000008df .LASF135
C:\Users\stapi\AppData\Local\Temp\ccgBjMFA.s:15751  .debug_str:0000000000000272 .LASF136
C:\Users\stapi\AppData\Local\Temp\ccgBjMFA.s:15943  .debug_str:0000000000000851 .LASF138
C:\Users\stapi\AppData\Local\Temp\ccgBjMFA.s:15981  .debug_str:000000000000095d .LASF139
C:\Users\stapi\AppData\Local\Temp\ccgBjMFA.s:15759  .debug_str:00000000000002be .LASF140
C:\Users\stapi\AppData\Local\Temp\ccgBjMFA.s:15763  .debug_str:00000000000002d6 .LASF141
C:\Users\stapi\AppData\Local\Temp\ccgBjMFA.s:15815  .debug_str:000000000000045f .LASF142
C:\Users\stapi\AppData\Local\Temp\ccgBjMFA.s:15779  .debug_str:0000000000000359 .LASF153
C:\Users\stapi\AppData\Local\Temp\ccgBjMFA.s:4100   .text.on_svr_auth_timer:0000000000000000 .LFB38
C:\Users\stapi\AppData\Local\Temp\ccgBjMFA.s:4296   .text.on_svr_auth_timer:0000000000000120 .LFE38
C:\Users\stapi\AppData\Local\Temp\ccgBjMFA.s:13461  .debug_loc:0000000000000000 .LLST135
C:\Users\stapi\AppData\Local\Temp\ccgBjMFA.s:15809  .debug_str:0000000000000434 .LASF143
C:\Users\stapi\AppData\Local\Temp\ccgBjMFA.s:15951  .debug_str:0000000000000886 .LASF144
C:\Users\stapi\AppData\Local\Temp\ccgBjMFA.s:13472  .debug_loc:000000000000001e .LLST136
C:\Users\stapi\AppData\Local\Temp\ccgBjMFA.s:16029  .debug_str:0000000000000a7e .LASF145
C:\Users\stapi\AppData\Local\Temp\ccgBjMFA.s:13483  .debug_loc:000000000000003c .LLST137
C:\Users\stapi\AppData\Local\Temp\ccgBjMFA.s:16139  .debug_str:0000000000000dde .LASF146
C:\Users\stapi\AppData\Local\Temp\ccgBjMFA.s:13507  .debug_loc:000000000000007c .LLST138
C:\Users\stapi\AppData\Local\Temp\ccgBjMFA.s:15887  .debug_str:0000000000000620 .LASF147
C:\Users\stapi\AppData\Local\Temp\ccgBjMFA.s:13533  .debug_loc:00000000000000be .LLST139
C:\Users\stapi\AppData\Local\Temp\ccgBjMFA.s:13558  .debug_loc:00000000000000ff .LLST140
C:\Users\stapi\AppData\Local\Temp\ccgBjMFA.s:4175   .text.on_svr_auth_timer:0000000000000068 .LBB130
C:\Users\stapi\AppData\Local\Temp\ccgBjMFA.s:4182   .text.on_svr_auth_timer:000000000000006a .LBE130
C:\Users\stapi\AppData\Local\Temp\ccgBjMFA.s:13580  .debug_loc:0000000000000137 .LLST141
C:\Users\stapi\AppData\Local\Temp\ccgBjMFA.s:4138   .text.on_svr_auth_timer:0000000000000032 .LVL484
C:\Users\stapi\AppData\Local\Temp\ccgBjMFA.s:4151   .text.on_svr_auth_timer:0000000000000044 .LVL487
C:\Users\stapi\AppData\Local\Temp\ccgBjMFA.s:4190   .text.on_svr_auth_timer:0000000000000078 .LVL493
C:\Users\stapi\AppData\Local\Temp\ccgBjMFA.s:4224   .text.on_svr_auth_timer:00000000000000a4 .LVL495
C:\Users\stapi\AppData\Local\Temp\ccgBjMFA.s:4272   .text.on_svr_auth_timer:00000000000000f0 .LVL503
C:\Users\stapi\AppData\Local\Temp\ccgBjMFA.s:4276   .text.on_svr_auth_timer:00000000000000fc .LVL504
C:\Users\stapi\AppData\Local\Temp\ccgBjMFA.s:4280   .text.on_svr_auth_timer:0000000000000108 .LVL505
C:\Users\stapi\AppData\Local\Temp\ccgBjMFA.s:4286   .text.on_svr_auth_timer:0000000000000114 .LVL506
C:\Users\stapi\AppData\Local\Temp\ccgBjMFA.s:15979  .debug_str:0000000000000948 .LASF170
C:\Users\stapi\AppData\Local\Temp\ccgBjMFA.s:3957   .text.observe_data_encrypt:0000000000000000 .LFB37
C:\Users\stapi\AppData\Local\Temp\ccgBjMFA.s:4089   .text.observe_data_encrypt:00000000000000be .LFE37
C:\Users\stapi\AppData\Local\Temp\ccgBjMFA.s:13587  .debug_loc:000000000000014a .LLST127
C:\Users\stapi\AppData\Local\Temp\ccgBjMFA.s:13601  .debug_loc:000000000000016b .LLST128
C:\Users\stapi\AppData\Local\Temp\ccgBjMFA.s:15855  .debug_str:0000000000000561 .LASF148
C:\Users\stapi\AppData\Local\Temp\ccgBjMFA.s:13612  .debug_loc:0000000000000189 .LLST129
C:\Users\stapi\AppData\Local\Temp\ccgBjMFA.s:16207  .debug_str:0000000000000fb1 .LASF149
C:\Users\stapi\AppData\Local\Temp\ccgBjMFA.s:13641  .debug_loc:00000000000001ce .LLST130
C:\Users\stapi\AppData\Local\Temp\ccgBjMFA.s:13652  .debug_loc:00000000000001ec .LLST131
C:\Users\stapi\AppData\Local\Temp\ccgBjMFA.s:16115  .debug_str:0000000000000d41 .LASF150
C:\Users\stapi\AppData\Local\Temp\ccgBjMFA.s:13663  .debug_loc:000000000000020a .LLST132
C:\Users\stapi\AppData\Local\Temp\ccgBjMFA.s:15841  .debug_str:000000000000051c .LASF157
C:\Users\stapi\AppData\Local\Temp\ccgBjMFA.s:13674  .debug_loc:0000000000000228 .LLST133
C:\Users\stapi\AppData\Local\Temp\ccgBjMFA.s:15727  .debug_str:00000000000001ad .LASF151
C:\Users\stapi\AppData\Local\Temp\ccgBjMFA.s:13695  .debug_loc:000000000000025e .LLST134
C:\Users\stapi\AppData\Local\Temp\ccgBjMFA.s:15949  .debug_str:000000000000087e .LASF152
C:\Users\stapi\AppData\Local\Temp\ccgBjMFA.s:3998   .text.observe_data_encrypt:000000000000003e .LVL470
C:\Users\stapi\AppData\Local\Temp\ccgBjMFA.s:4003   .text.observe_data_encrypt:0000000000000048 .LVL471
C:\Users\stapi\AppData\Local\Temp\ccgBjMFA.s:4045   .text.observe_data_encrypt:000000000000007a .LVL477
C:\Users\stapi\AppData\Local\Temp\ccgBjMFA.s:4066   .text.observe_data_encrypt:0000000000000094 .LVL479
C:\Users\stapi\AppData\Local\Temp\ccgBjMFA.s:4077   .text.observe_data_encrypt:00000000000000aa .LVL480
C:\Users\stapi\AppData\Local\Temp\ccgBjMFA.s:4083   .text.observe_data_encrypt:00000000000000ba .LVL481
C:\Users\stapi\AppData\Local\Temp\ccgBjMFA.s:16199  .debug_str:0000000000000f71 .LASF154
C:\Users\stapi\AppData\Local\Temp\ccgBjMFA.s:3670   .text.alcs_rec_heart_beat:0000000000000000 .LFB36
C:\Users\stapi\AppData\Local\Temp\ccgBjMFA.s:3946   .text.alcs_rec_heart_beat:00000000000001ce .LFE36
C:\Users\stapi\AppData\Local\Temp\ccgBjMFA.s:13702  .debug_loc:0000000000000271 .LLST120
C:\Users\stapi\AppData\Local\Temp\ccgBjMFA.s:13713  .debug_loc:000000000000028f .LLST121
C:\Users\stapi\AppData\Local\Temp\ccgBjMFA.s:15787  .debug_str:0000000000000385 .LASF155
C:\Users\stapi\AppData\Local\Temp\ccgBjMFA.s:13727  .debug_loc:00000000000002b0 .LLST122
C:\Users\stapi\AppData\Local\Temp\ccgBjMFA.s:15715  .debug_str:000000000000014c .LASF156
C:\Users\stapi\AppData\Local\Temp\ccgBjMFA.s:13738  .debug_loc:00000000000002ce .LLST123
C:\Users\stapi\AppData\Local\Temp\ccgBjMFA.s:15799  .debug_str:00000000000003f2 .LASF158
C:\Users\stapi\AppData\Local\Temp\ccgBjMFA.s:13749  .debug_loc:00000000000002ec .LLST124
C:\Users\stapi\AppData\Local\Temp\ccgBjMFA.s:13773  .debug_loc:000000000000032c .LLST125
C:\Users\stapi\AppData\Local\Temp\ccgBjMFA.s:13797  .debug_loc:000000000000036c .LLST126
C:\Users\stapi\AppData\Local\Temp\ccgBjMFA.s:16077  .debug_str:0000000000000c25 .LASF159
C:\Users\stapi\AppData\Local\Temp\ccgBjMFA.s:16041  .debug_str:0000000000000ad2 .LASF160
C:\Users\stapi\AppData\Local\Temp\ccgBjMFA.s:15767  .debug_str:0000000000000316 .LASF161
C:\Users\stapi\AppData\Local\Temp\ccgBjMFA.s:15857  .debug_str:0000000000000566 .LASF162
C:\Users\stapi\AppData\Local\Temp\ccgBjMFA.s:3925   .text.alcs_rec_heart_beat:00000000000001ae .LBB129
C:\Users\stapi\AppData\Local\Temp\ccgBjMFA.s:3944   .text.alcs_rec_heart_beat:00000000000001ce .LBE129
C:\Users\stapi\AppData\Local\Temp\ccgBjMFA.s:3942   .text.alcs_rec_heart_beat:00000000000001cc .LVL462
C:\Users\stapi\AppData\Local\Temp\ccgBjMFA.s:3718   .text.alcs_rec_heart_beat:0000000000000048 .LBB127
C:\Users\stapi\AppData\Local\Temp\ccgBjMFA.s:3725   .text.alcs_rec_heart_beat:000000000000004a .LBE127
C:\Users\stapi\AppData\Local\Temp\ccgBjMFA.s:3708   .text.alcs_rec_heart_beat:0000000000000036 .LVL435
C:\Users\stapi\AppData\Local\Temp\ccgBjMFA.s:3754   .text.alcs_rec_heart_beat:0000000000000080 .LVL441
C:\Users\stapi\AppData\Local\Temp\ccgBjMFA.s:3759   .text.alcs_rec_heart_beat:0000000000000090 .LVL442
C:\Users\stapi\AppData\Local\Temp\ccgBjMFA.s:3764   .text.alcs_rec_heart_beat:00000000000000a0 .LVL443
C:\Users\stapi\AppData\Local\Temp\ccgBjMFA.s:3778   .text.alcs_rec_heart_beat:00000000000000b6 .LVL444
C:\Users\stapi\AppData\Local\Temp\ccgBjMFA.s:3797   .text.alcs_rec_heart_beat:00000000000000da .LVL447
C:\Users\stapi\AppData\Local\Temp\ccgBjMFA.s:3809   .text.alcs_rec_heart_beat:00000000000000f8 .LVL448
C:\Users\stapi\AppData\Local\Temp\ccgBjMFA.s:3814   .text.alcs_rec_heart_beat:0000000000000102 .LVL449
C:\Users\stapi\AppData\Local\Temp\ccgBjMFA.s:3829   .text.alcs_rec_heart_beat:000000000000011e .LVL450
C:\Users\stapi\AppData\Local\Temp\ccgBjMFA.s:3856   .text.alcs_rec_heart_beat:0000000000000150 .LVL451
C:\Users\stapi\AppData\Local\Temp\ccgBjMFA.s:3863   .text.alcs_rec_heart_beat:0000000000000160 .LVL452
C:\Users\stapi\AppData\Local\Temp\ccgBjMFA.s:3868   .text.alcs_rec_heart_beat:000000000000016a .LVL453
C:\Users\stapi\AppData\Local\Temp\ccgBjMFA.s:3895   .text.alcs_rec_heart_beat:0000000000000186 .LVL455
C:\Users\stapi\AppData\Local\Temp\ccgBjMFA.s:3901   .text.alcs_rec_heart_beat:0000000000000190 .LVL456
C:\Users\stapi\AppData\Local\Temp\ccgBjMFA.s:16037  .debug_str:0000000000000aaf .LASF163
C:\Users\stapi\AppData\Local\Temp\ccgBjMFA.s:3506   .text.alcs_auth_list_deinit:0000000000000000 .LFB35
C:\Users\stapi\AppData\Local\Temp\ccgBjMFA.s:3650   .text.alcs_auth_list_deinit:00000000000000ae .LFE35
C:\Users\stapi\AppData\Local\Temp\ccgBjMFA.s:16089  .debug_str:0000000000000c92 .LASF164
C:\Users\stapi\AppData\Local\Temp\ccgBjMFA.s:13823  .debug_loc:00000000000003af .LLST110
C:\Users\stapi\AppData\Local\Temp\ccgBjMFA.s:15995  .debug_str:00000000000009b0 .LASF165
C:\Users\stapi\AppData\Local\Temp\ccgBjMFA.s:13847  .debug_loc:00000000000003ef .LLST111
C:\Users\stapi\AppData\Local\Temp\ccgBjMFA.s:15993  .debug_str:000000000000099f .LASF166
C:\Users\stapi\AppData\Local\Temp\ccgBjMFA.s:13869  .debug_loc:0000000000000426 .LLST112
C:\Users\stapi\AppData\Local\Temp\ccgBjMFA.s:15959  .debug_str:00000000000008b4 .LASF167
C:\Users\stapi\AppData\Local\Temp\ccgBjMFA.s:13898  .debug_loc:0000000000000472 .LLST113
C:\Users\stapi\AppData\Local\Temp\ccgBjMFA.s:15997  .debug_str:00000000000009ba .LASF168
C:\Users\stapi\AppData\Local\Temp\ccgBjMFA.s:3575   .text.alcs_auth_list_deinit:0000000000000064 .LBB121
C:\Users\stapi\AppData\Local\Temp\ccgBjMFA.s:13929  .debug_loc:00000000000004c1 .LLST114
C:\Users\stapi\AppData\Local\Temp\ccgBjMFA.s:13938  .debug_loc:00000000000004d6 .LLST115
C:\Users\stapi\AppData\Local\Temp\ccgBjMFA.s:13945  .debug_loc:00000000000004e9 .LLST116
C:\Users\stapi\AppData\Local\Temp\ccgBjMFA.s:3621   .text.alcs_auth_list_deinit:000000000000008e .LBB125
C:\Users\stapi\AppData\Local\Temp\ccgBjMFA.s:3638   .text.alcs_auth_list_deinit:000000000000009a .LBE125
C:\Users\stapi\AppData\Local\Temp\ccgBjMFA.s:13952  .debug_loc:00000000000004fc .LLST117
C:\Users\stapi\AppData\Local\Temp\ccgBjMFA.s:13961  .debug_loc:0000000000000512 .LLST118
C:\Users\stapi\AppData\Local\Temp\ccgBjMFA.s:13968  .debug_loc:0000000000000525 .LLST119
C:\Users\stapi\AppData\Local\Temp\ccgBjMFA.s:3543   .text.alcs_auth_list_deinit:000000000000003c .LVL412
C:\Users\stapi\AppData\Local\Temp\ccgBjMFA.s:3605   .text.alcs_auth_list_deinit:0000000000000078 .LVL420
C:\Users\stapi\AppData\Local\Temp\ccgBjMFA.s:3610   .text.alcs_auth_list_deinit:0000000000000082 .LVL421
C:\Users\stapi\AppData\Local\Temp\ccgBjMFA.s:3641   .text.alcs_auth_list_deinit:00000000000000a2 .LVL427
C:\Users\stapi\AppData\Local\Temp\ccgBjMFA.s:15719  .debug_str:0000000000000159 .LASF169
C:\Users\stapi\AppData\Local\Temp\ccgBjMFA.s:3424   .text.alcs_resource_cb_deinit:0000000000000000 .LFB34
C:\Users\stapi\AppData\Local\Temp\ccgBjMFA.s:3499   .text.alcs_resource_cb_deinit:0000000000000052 .LFE34
C:\Users\stapi\AppData\Local\Temp\ccgBjMFA.s:13975  .debug_loc:0000000000000538 .LLST106
C:\Users\stapi\AppData\Local\Temp\ccgBjMFA.s:3461   .text.alcs_resource_cb_deinit:000000000000002a .LBB115
C:\Users\stapi\AppData\Local\Temp\ccgBjMFA.s:3478   .text.alcs_resource_cb_deinit:0000000000000032 .LBE115
C:\Users\stapi\AppData\Local\Temp\ccgBjMFA.s:13991  .debug_loc:0000000000000562 .LLST107
C:\Users\stapi\AppData\Local\Temp\ccgBjMFA.s:14000  .debug_loc:0000000000000577 .LLST108
C:\Users\stapi\AppData\Local\Temp\ccgBjMFA.s:14007  .debug_loc:000000000000058a .LLST109
C:\Users\stapi\AppData\Local\Temp\ccgBjMFA.s:3486   .text.alcs_resource_cb_deinit:0000000000000042 .LVL406
C:\Users\stapi\AppData\Local\Temp\ccgBjMFA.s:3491   .text.alcs_resource_cb_deinit:000000000000004c .LVL407
C:\Users\stapi\AppData\Local\Temp\ccgBjMFA.s:16105  .debug_str:0000000000000ce8 .LASF171
C:\Users\stapi\AppData\Local\Temp\ccgBjMFA.s:3068   .text.alcs_resource_register_secure:0000000000000000 .LFB33
C:\Users\stapi\AppData\Local\Temp\ccgBjMFA.s:3417   .text.alcs_resource_register_secure:0000000000000224 .LFE33
C:\Users\stapi\AppData\Local\Temp\ccgBjMFA.s:14014  .debug_loc:000000000000059d .LLST91
C:\Users\stapi\AppData\Local\Temp\ccgBjMFA.s:14036  .debug_loc:00000000000005d7 .LLST92
C:\Users\stapi\AppData\Local\Temp\ccgBjMFA.s:14047  .debug_loc:00000000000005f5 .LLST93
C:\Users\stapi\AppData\Local\Temp\ccgBjMFA.s:14058  .debug_loc:0000000000000613 .LLST94
C:\Users\stapi\AppData\Local\Temp\ccgBjMFA.s:15747  .debug_str:0000000000000262 .LASF172
C:\Users\stapi\AppData\Local\Temp\ccgBjMFA.s:14069  .debug_loc:0000000000000631 .LLST95
C:\Users\stapi\AppData\Local\Temp\ccgBjMFA.s:16209  .debug_str:0000000000000fb9 .LASF173
C:\Users\stapi\AppData\Local\Temp\ccgBjMFA.s:14083  .debug_loc:0000000000000652 .LLST96
C:\Users\stapi\AppData\Local\Temp\ccgBjMFA.s:15895  .debug_str:0000000000000661 .LASF174
C:\Users\stapi\AppData\Local\Temp\ccgBjMFA.s:14094  .debug_loc:0000000000000670 .LLST97
C:\Users\stapi\AppData\Local\Temp\ccgBjMFA.s:15761  .debug_str:00000000000002cd .LASF175
C:\Users\stapi\AppData\Local\Temp\ccgBjMFA.s:14105  .debug_loc:000000000000068e .LLST98
C:\Users\stapi\AppData\Local\Temp\ccgBjMFA.s:14134  .debug_loc:00000000000006d3 .LLST99
C:\Users\stapi\AppData\Local\Temp\ccgBjMFA.s:15699  .debug_str:0000000000000021 .LASF176
C:\Users\stapi\AppData\Local\Temp\ccgBjMFA.s:14167  .debug_loc:000000000000072a .LLST100
C:\Users\stapi\AppData\Local\Temp\ccgBjMFA.s:14202  .debug_loc:0000000000000783 .LLST101
C:\Users\stapi\AppData\Local\Temp\ccgBjMFA.s:16075  .debug_str:0000000000000c20 .LASF177
C:\Users\stapi\AppData\Local\Temp\ccgBjMFA.s:14231  .debug_loc:00000000000007cf .LLST102
C:\Users\stapi\AppData\Local\Temp\ccgBjMFA.s:3344   .text.alcs_resource_register_secure:00000000000001e0 .LBB107
C:\Users\stapi\AppData\Local\Temp\ccgBjMFA.s:14250  .debug_loc:0000000000000803 .LLST103
C:\Users\stapi\AppData\Local\Temp\ccgBjMFA.s:3356   .text.alcs_resource_register_secure:00000000000001e8 .LBB109
C:\Users\stapi\AppData\Local\Temp\ccgBjMFA.s:3373   .text.alcs_resource_register_secure:00000000000001f4 .LBE109
C:\Users\stapi\AppData\Local\Temp\ccgBjMFA.s:14257  .debug_loc:0000000000000816 .LLST104
C:\Users\stapi\AppData\Local\Temp\ccgBjMFA.s:3108   .text.alcs_resource_register_secure:000000000000002a .LVL360
C:\Users\stapi\AppData\Local\Temp\ccgBjMFA.s:3113   .text.alcs_resource_register_secure:000000000000003a .LVL361
C:\Users\stapi\AppData\Local\Temp\ccgBjMFA.s:3118   .text.alcs_resource_register_secure:000000000000004a .LVL362
C:\Users\stapi\AppData\Local\Temp\ccgBjMFA.s:3129   .text.alcs_resource_register_secure:000000000000005c .LVL363
C:\Users\stapi\AppData\Local\Temp\ccgBjMFA.s:3137   .text.alcs_resource_register_secure:000000000000006c .LVL364
C:\Users\stapi\AppData\Local\Temp\ccgBjMFA.s:3147   .text.alcs_resource_register_secure:000000000000007e .LVL365
C:\Users\stapi\AppData\Local\Temp\ccgBjMFA.s:3159   .text.alcs_resource_register_secure:0000000000000094 .LVL366
C:\Users\stapi\AppData\Local\Temp\ccgBjMFA.s:3200   .text.alcs_resource_register_secure:00000000000000d4 .LVL370
C:\Users\stapi\AppData\Local\Temp\ccgBjMFA.s:3205   .text.alcs_resource_register_secure:00000000000000e4 .LVL371
C:\Users\stapi\AppData\Local\Temp\ccgBjMFA.s:3217   .text.alcs_resource_register_secure:00000000000000f4 .LVL373
C:\Users\stapi\AppData\Local\Temp\ccgBjMFA.s:3229   .text.alcs_resource_register_secure:0000000000000102 .LVL375
C:\Users\stapi\AppData\Local\Temp\ccgBjMFA.s:3236   .text.alcs_resource_register_secure:0000000000000112 .LVL376
C:\Users\stapi\AppData\Local\Temp\ccgBjMFA.s:3254   .text.alcs_resource_register_secure:000000000000012c .LVL378
C:\Users\stapi\AppData\Local\Temp\ccgBjMFA.s:3278   .text.alcs_resource_register_secure:0000000000000150 .LVL382
C:\Users\stapi\AppData\Local\Temp\ccgBjMFA.s:3283   .text.alcs_resource_register_secure:0000000000000160 .LVL383
C:\Users\stapi\AppData\Local\Temp\ccgBjMFA.s:3296   .text.alcs_resource_register_secure:0000000000000170 .LVL386
C:\Users\stapi\AppData\Local\Temp\ccgBjMFA.s:3302   .text.alcs_resource_register_secure:0000000000000180 .LVL387
C:\Users\stapi\AppData\Local\Temp\ccgBjMFA.s:3306   .text.alcs_resource_register_secure:000000000000018a .LVL388
C:\Users\stapi\AppData\Local\Temp\ccgBjMFA.s:3311   .text.alcs_resource_register_secure:0000000000000198 .LVL389
C:\Users\stapi\AppData\Local\Temp\ccgBjMFA.s:3318   .text.alcs_resource_register_secure:00000000000001a8 .LVL390
C:\Users\stapi\AppData\Local\Temp\ccgBjMFA.s:3323   .text.alcs_resource_register_secure:00000000000001b2 .LVL391
C:\Users\stapi\AppData\Local\Temp\ccgBjMFA.s:3330   .text.alcs_resource_register_secure:00000000000001c4 .LVL392
C:\Users\stapi\AppData\Local\Temp\ccgBjMFA.s:3335   .text.alcs_resource_register_secure:00000000000001ce .LVL393
C:\Users\stapi\AppData\Local\Temp\ccgBjMFA.s:3342   .text.alcs_resource_register_secure:00000000000001e0 .LVL394
C:\Users\stapi\AppData\Local\Temp\ccgBjMFA.s:3386   .text.alcs_resource_register_secure:000000000000020e .LVL397
C:\Users\stapi\AppData\Local\Temp\ccgBjMFA.s:3414   .text.alcs_resource_register_secure:0000000000000222 .LVL400
C:\Users\stapi\AppData\Local\Temp\ccgBjMFA.s:16223  .debug_str:0000000000001059 .LASF178
C:\Users\stapi\AppData\Local\Temp\ccgBjMFA.s:3045   .text.recv_msg_handler:0000000000000000 .LFB32
C:\Users\stapi\AppData\Local\Temp\ccgBjMFA.s:3054   .text.recv_msg_handler:0000000000000008 .LFE32
C:\Users\stapi\AppData\Local\Temp\ccgBjMFA.s:14264  .debug_loc:0000000000000829 .LLST87
C:\Users\stapi\AppData\Local\Temp\ccgBjMFA.s:14278  .debug_loc:000000000000084a .LLST88
C:\Users\stapi\AppData\Local\Temp\ccgBjMFA.s:14292  .debug_loc:000000000000086b .LLST89
C:\Users\stapi\AppData\Local\Temp\ccgBjMFA.s:14306  .debug_loc:000000000000088c .LLST90
C:\Users\stapi\AppData\Local\Temp\ccgBjMFA.s:16143  .debug_str:0000000000000dec .LASF179
C:\Users\stapi\AppData\Local\Temp\ccgBjMFA.s:3052   .text.recv_msg_handler:0000000000000008 .LVL357
C:\Users\stapi\AppData\Local\Temp\ccgBjMFA.s:15807  .debug_str:0000000000000424 .LASF180
C:\Users\stapi\AppData\Local\Temp\ccgBjMFA.s:2699   .text.p2p_msg_handler:0000000000000000 .LFB31
C:\Users\stapi\AppData\Local\Temp\ccgBjMFA.s:3038   .text.p2p_msg_handler:0000000000000252 .LFE31
C:\Users\stapi\AppData\Local\Temp\ccgBjMFA.s:14320  .debug_loc:00000000000008ad .LLST77
C:\Users\stapi\AppData\Local\Temp\ccgBjMFA.s:14331  .debug_loc:00000000000008cb .LLST78
C:\Users\stapi\AppData\Local\Temp\ccgBjMFA.s:14342  .debug_loc:00000000000008e9 .LLST79
C:\Users\stapi\AppData\Local\Temp\ccgBjMFA.s:14353  .debug_loc:0000000000000907 .LLST80
C:\Users\stapi\AppData\Local\Temp\ccgBjMFA.s:14364  .debug_loc:0000000000000925 .LLST81
C:\Users\stapi\AppData\Local\Temp\ccgBjMFA.s:14375  .debug_loc:0000000000000943 .LLST82
C:\Users\stapi\AppData\Local\Temp\ccgBjMFA.s:14382  .debug_loc:0000000000000956 .LLST83
C:\Users\stapi\AppData\Local\Temp\ccgBjMFA.s:14389  .debug_loc:0000000000000969 .LLST84
C:\Users\stapi\AppData\Local\Temp\ccgBjMFA.s:16069  .debug_str:0000000000000bf7 .LASF181
C:\Users\stapi\AppData\Local\Temp\ccgBjMFA.s:14417  .debug_loc:00000000000009b4 .LLST85
C:\Users\stapi\AppData\Local\Temp\ccgBjMFA.s:2920   .text.p2p_msg_handler:000000000000018c .LBB103
C:\Users\stapi\AppData\Local\Temp\ccgBjMFA.s:3021   .text.p2p_msg_handler:0000000000000248 .LBE103
C:\Users\stapi\AppData\Local\Temp\ccgBjMFA.s:16121  .debug_str:0000000000000d5f .LASF182
C:\Users\stapi\AppData\Local\Temp\ccgBjMFA.s:14428  .debug_loc:00000000000009d2 .LLST86
C:\Users\stapi\AppData\Local\Temp\ccgBjMFA.s:2948   .text.p2p_msg_handler:00000000000001be .LBB104
C:\Users\stapi\AppData\Local\Temp\ccgBjMFA.s:2985   .text.p2p_msg_handler:000000000000020c .LBE104
C:\Users\stapi\AppData\Local\Temp\ccgBjMFA.s:2956   .text.p2p_msg_handler:00000000000001cc .LVL347
C:\Users\stapi\AppData\Local\Temp\ccgBjMFA.s:2963   .text.p2p_msg_handler:00000000000001da .LVL348
C:\Users\stapi\AppData\Local\Temp\ccgBjMFA.s:2971   .text.p2p_msg_handler:00000000000001ec .LVL349
C:\Users\stapi\AppData\Local\Temp\ccgBjMFA.s:2976   .text.p2p_msg_handler:00000000000001fc .LVL350
C:\Users\stapi\AppData\Local\Temp\ccgBjMFA.s:2981   .text.p2p_msg_handler:000000000000020c .LVL351
C:\Users\stapi\AppData\Local\Temp\ccgBjMFA.s:2928   .text.p2p_msg_handler:000000000000019c .LVL343
C:\Users\stapi\AppData\Local\Temp\ccgBjMFA.s:2936   .text.p2p_msg_handler:00000000000001b0 .LVL344
C:\Users\stapi\AppData\Local\Temp\ccgBjMFA.s:2989   .text.p2p_msg_handler:0000000000000216 .LVL352
C:\Users\stapi\AppData\Local\Temp\ccgBjMFA.s:3007   .text.p2p_msg_handler:0000000000000230 .LVL353
C:\Users\stapi\AppData\Local\Temp\ccgBjMFA.s:3015   .text.p2p_msg_handler:000000000000023e .LVL354
C:\Users\stapi\AppData\Local\Temp\ccgBjMFA.s:3019   .text.p2p_msg_handler:0000000000000248 .LVL355
C:\Users\stapi\AppData\Local\Temp\ccgBjMFA.s:2769   .text.p2p_msg_handler:000000000000005a .LVL320
C:\Users\stapi\AppData\Local\Temp\ccgBjMFA.s:2786   .text.p2p_msg_handler:0000000000000084 .LVL323
C:\Users\stapi\AppData\Local\Temp\ccgBjMFA.s:2794   .text.p2p_msg_handler:0000000000000092 .LVL324
C:\Users\stapi\AppData\Local\Temp\ccgBjMFA.s:2802   .text.p2p_msg_handler:00000000000000a2 .LVL325
C:\Users\stapi\AppData\Local\Temp\ccgBjMFA.s:2810   .text.p2p_msg_handler:00000000000000b4 .LVL326
C:\Users\stapi\AppData\Local\Temp\ccgBjMFA.s:2815   .text.p2p_msg_handler:00000000000000c4 .LVL327
C:\Users\stapi\AppData\Local\Temp\ccgBjMFA.s:2839   .text.p2p_msg_handler:00000000000000ea .LVL330
C:\Users\stapi\AppData\Local\Temp\ccgBjMFA.s:2847   .text.p2p_msg_handler:00000000000000fc .LVL331
C:\Users\stapi\AppData\Local\Temp\ccgBjMFA.s:2852   .text.p2p_msg_handler:000000000000010c .LVL332
C:\Users\stapi\AppData\Local\Temp\ccgBjMFA.s:2857   .text.p2p_msg_handler:000000000000011c .LVL333
C:\Users\stapi\AppData\Local\Temp\ccgBjMFA.s:2894   .text.p2p_msg_handler:0000000000000162 .LVL338
C:\Users\stapi\AppData\Local\Temp\ccgBjMFA.s:2906   .text.p2p_msg_handler:0000000000000178 .LVL339
C:\Users\stapi\AppData\Local\Temp\ccgBjMFA.s:2914   .text.p2p_msg_handler:0000000000000188 .LVL340
C:\Users\stapi\AppData\Local\Temp\ccgBjMFA.s:2729   .text.p2p_msg_handler:000000000000001c .LVL314
C:\Users\stapi\AppData\Local\Temp\ccgBjMFA.s:2752   .text.p2p_msg_handler:0000000000000046 .LVL317
C:\Users\stapi\AppData\Local\Temp\ccgBjMFA.s:2823   .text.p2p_msg_handler:00000000000000d4 .LVL328
C:\Users\stapi\AppData\Local\Temp\ccgBjMFA.s:2869   .text.p2p_msg_handler:000000000000012e .LVL334
C:\Users\stapi\AppData\Local\Temp\ccgBjMFA.s:2875   .text.p2p_msg_handler:000000000000013e .LVL335
C:\Users\stapi\AppData\Local\Temp\ccgBjMFA.s:2882   .text.p2p_msg_handler:0000000000000152 .LVL336
C:\Users\stapi\AppData\Local\Temp\ccgBjMFA.s:15947  .debug_str:0000000000000872 .LASF183
C:\Users\stapi\AppData\Local\Temp\ccgBjMFA.s:2542   .text.add_request:0000000000000000 .LFB30
C:\Users\stapi\AppData\Local\Temp\ccgBjMFA.s:2676   .text.add_request:00000000000000cc .LFE30
C:\Users\stapi\AppData\Local\Temp\ccgBjMFA.s:14443  .debug_loc:00000000000009fb .LLST71
C:\Users\stapi\AppData\Local\Temp\ccgBjMFA.s:14454  .debug_loc:0000000000000a19 .LLST72
C:\Users\stapi\AppData\Local\Temp\ccgBjMFA.s:14465  .debug_loc:0000000000000a37 .LLST73
C:\Users\stapi\AppData\Local\Temp\ccgBjMFA.s:16023  .debug_str:0000000000000a49 .LASF184
C:\Users\stapi\AppData\Local\Temp\ccgBjMFA.s:14476  .debug_loc:0000000000000a55 .LLST74
C:\Users\stapi\AppData\Local\Temp\ccgBjMFA.s:14487  .debug_loc:0000000000000a73 .LLST75
C:\Users\stapi\AppData\Local\Temp\ccgBjMFA.s:16055  .debug_str:0000000000000ba8 .LASF185
C:\Users\stapi\AppData\Local\Temp\ccgBjMFA.s:14498  .debug_loc:0000000000000a91 .LLST76
C:\Users\stapi\AppData\Local\Temp\ccgBjMFA.s:2597   .text.add_request:0000000000000042 .LBB101
C:\Users\stapi\AppData\Local\Temp\ccgBjMFA.s:2662   .text.add_request:00000000000000c2 .LBE101
C:\Users\stapi\AppData\Local\Temp\ccgBjMFA.s:2602   .text.add_request:0000000000000050 .LVL305
C:\Users\stapi\AppData\Local\Temp\ccgBjMFA.s:2612   .text.add_request:0000000000000060 .LVL306
C:\Users\stapi\AppData\Local\Temp\ccgBjMFA.s:2621   .text.add_request:0000000000000074 .LVL307
C:\Users\stapi\AppData\Local\Temp\ccgBjMFA.s:2630   .text.add_request:0000000000000088 .LVL308
C:\Users\stapi\AppData\Local\Temp\ccgBjMFA.s:2642   .text.add_request:000000000000009e .LVL309
C:\Users\stapi\AppData\Local\Temp\ccgBjMFA.s:2651   .text.add_request:00000000000000ac .LVL310
C:\Users\stapi\AppData\Local\Temp\ccgBjMFA.s:2660   .text.add_request:00000000000000c2 .LVL311
C:\Users\stapi\AppData\Local\Temp\ccgBjMFA.s:2574   .text.add_request:0000000000000022 .LVL302
C:\Users\stapi\AppData\Local\Temp\ccgBjMFA.s:2591   .text.add_request:000000000000003e .LVL303
C:\Users\stapi\AppData\Local\Temp\ccgBjMFA.s:15795  .debug_str:00000000000003c2 .LASF276
C:\Users\stapi\AppData\Local\Temp\ccgBjMFA.s:23     .text.get_resource_by_path:0000000000000000 .LFB29
C:\Users\stapi\AppData\Local\Temp\ccgBjMFA.s:145    .text.get_resource_by_path:00000000000000be .LFE29
C:\Users\stapi\AppData\Local\Temp\ccgBjMFA.s:14505  .debug_loc:0000000000000aa4 .LLST0
C:\Users\stapi\AppData\Local\Temp\ccgBjMFA.s:14516  .debug_loc:0000000000000ac2 .LLST1
C:\Users\stapi\AppData\Local\Temp\ccgBjMFA.s:14535  .debug_loc:0000000000000af6 .LLST2
C:\Users\stapi\AppData\Local\Temp\ccgBjMFA.s:16193  .debug_str:0000000000000f56 .LASF186
C:\Users\stapi\AppData\Local\Temp\ccgBjMFA.s:48     .text.get_resource_by_path:000000000000001a .LVL1
C:\Users\stapi\AppData\Local\Temp\ccgBjMFA.s:55     .text.get_resource_by_path:000000000000002a .LVL2
C:\Users\stapi\AppData\Local\Temp\ccgBjMFA.s:75     .text.get_resource_by_path:000000000000005a .LVL5
C:\Users\stapi\AppData\Local\Temp\ccgBjMFA.s:81     .text.get_resource_by_path:000000000000006c .LVL6
C:\Users\stapi\AppData\Local\Temp\ccgBjMFA.s:86     .text.get_resource_by_path:000000000000007c .LVL7
C:\Users\stapi\AppData\Local\Temp\ccgBjMFA.s:118    .text.get_resource_by_path:000000000000009c .LVL10
C:\Users\stapi\AppData\Local\Temp\ccgBjMFA.s:142    .text.get_resource_by_path:00000000000000bc .LVL14
C:\Users\stapi\AppData\Local\Temp\ccgBjMFA.s:16067  .debug_str:0000000000000bef .LASF187
C:\Users\stapi\AppData\Local\Temp\ccgBjMFA.s:2443   .text.call_cb:0000000000000000 .LFB28
C:\Users\stapi\AppData\Local\Temp\ccgBjMFA.s:2535   .text.call_cb:0000000000000062 .LFE28
C:\Users\stapi\AppData\Local\Temp\ccgBjMFA.s:14552  .debug_loc:0000000000000b21 .LLST63
C:\Users\stapi\AppData\Local\Temp\ccgBjMFA.s:14563  .debug_loc:0000000000000b3f .LLST64
C:\Users\stapi\AppData\Local\Temp\ccgBjMFA.s:14574  .debug_loc:0000000000000b5d .LLST65
C:\Users\stapi\AppData\Local\Temp\ccgBjMFA.s:14585  .debug_loc:0000000000000b7b .LLST66
C:\Users\stapi\AppData\Local\Temp\ccgBjMFA.s:14596  .debug_loc:0000000000000b99 .LLST67
C:\Users\stapi\AppData\Local\Temp\ccgBjMFA.s:14607  .debug_loc:0000000000000bb7 .LLST68
C:\Users\stapi\AppData\Local\Temp\ccgBjMFA.s:14618  .debug_loc:0000000000000bd5 .LLST69
C:\Users\stapi\AppData\Local\Temp\ccgBjMFA.s:2486   .text.call_cb:000000000000002e .LBB100
C:\Users\stapi\AppData\Local\Temp\ccgBjMFA.s:2503   .text.call_cb:0000000000000046 .LBE100
C:\Users\stapi\AppData\Local\Temp\ccgBjMFA.s:14629  .debug_loc:0000000000000bf3 .LLST70
C:\Users\stapi\AppData\Local\Temp\ccgBjMFA.s:2494   .text.call_cb:0000000000000040 .LVL296
C:\Users\stapi\AppData\Local\Temp\ccgBjMFA.s:2480   .text.call_cb:0000000000000028 .LVL295
C:\Users\stapi\AppData\Local\Temp\ccgBjMFA.s:2510   .text.call_cb:0000000000000050 .LVL298
C:\Users\stapi\AppData\Local\Temp\ccgBjMFA.s:15753  .debug_str:000000000000028a .LASF188
C:\Users\stapi\AppData\Local\Temp\ccgBjMFA.s:2371   .text.send_err_rsp:0000000000000000 .LFB27
C:\Users\stapi\AppData\Local\Temp\ccgBjMFA.s:2436   .text.send_err_rsp:0000000000000054 .LFE27
C:\Users\stapi\AppData\Local\Temp\ccgBjMFA.s:14636  .debug_loc:0000000000000c06 .LLST59
C:\Users\stapi\AppData\Local\Temp\ccgBjMFA.s:14647  .debug_loc:0000000000000c24 .LLST60
C:\Users\stapi\AppData\Local\Temp\ccgBjMFA.s:14658  .debug_loc:0000000000000c42 .LLST61
C:\Users\stapi\AppData\Local\Temp\ccgBjMFA.s:14672  .debug_loc:0000000000000c63 .LLST62
C:\Users\stapi\AppData\Local\Temp\ccgBjMFA.s:15771  .debug_str:0000000000000328 .LASF189
C:\Users\stapi\AppData\Local\Temp\ccgBjMFA.s:2404   .text.send_err_rsp:0000000000000026 .LVL289
C:\Users\stapi\AppData\Local\Temp\ccgBjMFA.s:2425   .text.send_err_rsp:000000000000004a .LVL290
C:\Users\stapi\AppData\Local\Temp\ccgBjMFA.s:15953  .debug_str:000000000000088b .LASF190
C:\Users\stapi\AppData\Local\Temp\ccgBjMFA.s:2285   .text.alcs_set_revocation:0000000000000000 .LFB26
C:\Users\stapi\AppData\Local\Temp\ccgBjMFA.s:2364   .text.alcs_set_revocation:0000000000000074 .LFE26
C:\Users\stapi\AppData\Local\Temp\ccgBjMFA.s:14683  .debug_loc:0000000000000c81 .LLST57
C:\Users\stapi\AppData\Local\Temp\ccgBjMFA.s:15893  .debug_str:0000000000000659 .LASF191
C:\Users\stapi\AppData\Local\Temp\ccgBjMFA.s:14697  .debug_loc:0000000000000ca2 .LLST58
C:\Users\stapi\AppData\Local\Temp\ccgBjMFA.s:2308   .text.alcs_set_revocation:0000000000000020 .LVL279
C:\Users\stapi\AppData\Local\Temp\ccgBjMFA.s:2316   .text.alcs_set_revocation:000000000000002e .LVL280
C:\Users\stapi\AppData\Local\Temp\ccgBjMFA.s:2327   .text.alcs_set_revocation:000000000000003c .LVL282
C:\Users\stapi\AppData\Local\Temp\ccgBjMFA.s:2341   .text.alcs_set_revocation:0000000000000054 .LVL283
C:\Users\stapi\AppData\Local\Temp\ccgBjMFA.s:2348   .text.alcs_set_revocation:0000000000000060 .LVL284
C:\Users\stapi\AppData\Local\Temp\ccgBjMFA.s:2353   .text.alcs_set_revocation:000000000000006a .LVL285
C:\Users\stapi\AppData\Local\Temp\ccgBjMFA.s:16205  .debug_str:0000000000000f9d .LASF192
C:\Users\stapi\AppData\Local\Temp\ccgBjMFA.s:2164   .text.alcs_remove_svr_key:0000000000000000 .LFB25
C:\Users\stapi\AppData\Local\Temp\ccgBjMFA.s:2278   .text.alcs_remove_svr_key:0000000000000090 .LFE25
C:\Users\stapi\AppData\Local\Temp\ccgBjMFA.s:14708  .debug_loc:0000000000000cc0 .LLST50
C:\Users\stapi\AppData\Local\Temp\ccgBjMFA.s:14722  .debug_loc:0000000000000ce1 .LLST51
C:\Users\stapi\AppData\Local\Temp\ccgBjMFA.s:14733  .debug_loc:0000000000000cff .LLST52
C:\Users\stapi\AppData\Local\Temp\ccgBjMFA.s:14753  .debug_loc:0000000000000d34 .LLST53
C:\Users\stapi\AppData\Local\Temp\ccgBjMFA.s:2218   .text.alcs_remove_svr_key:0000000000000054 .LBB96
C:\Users\stapi\AppData\Local\Temp\ccgBjMFA.s:14775  .debug_loc:0000000000000d6b .LLST54
C:\Users\stapi\AppData\Local\Temp\ccgBjMFA.s:14784  .debug_loc:0000000000000d80 .LLST55
C:\Users\stapi\AppData\Local\Temp\ccgBjMFA.s:14791  .debug_loc:0000000000000d93 .LLST56
C:\Users\stapi\AppData\Local\Temp\ccgBjMFA.s:2191   .text.alcs_remove_svr_key:0000000000000020 .LVL264
C:\Users\stapi\AppData\Local\Temp\ccgBjMFA.s:2210   .text.alcs_remove_svr_key:0000000000000048 .LVL267
C:\Users\stapi\AppData\Local\Temp\ccgBjMFA.s:2216   .text.alcs_remove_svr_key:0000000000000054 .LVL268
C:\Users\stapi\AppData\Local\Temp\ccgBjMFA.s:2244   .text.alcs_remove_svr_key:0000000000000066 .LVL271
C:\Users\stapi\AppData\Local\Temp\ccgBjMFA.s:2254   .text.alcs_remove_svr_key:000000000000007a .LVL272
C:\Users\stapi\AppData\Local\Temp\ccgBjMFA.s:16219  .debug_str:000000000000101c .LASF193
C:\Users\stapi\AppData\Local\Temp\ccgBjMFA.s:1612   .text.alcs_add_svr_key:0000000000000000 .LFB24
C:\Users\stapi\AppData\Local\Temp\ccgBjMFA.s:2157   .text.alcs_add_svr_key:00000000000003d8 .LFE24
C:\Users\stapi\AppData\Local\Temp\ccgBjMFA.s:14798  .debug_loc:0000000000000da6 .LLST34
C:\Users\stapi\AppData\Local\Temp\ccgBjMFA.s:14812  .debug_loc:0000000000000dc7 .LLST35
C:\Users\stapi\AppData\Local\Temp\ccgBjMFA.s:14823  .debug_loc:0000000000000de5 .LLST36
C:\Users\stapi\AppData\Local\Temp\ccgBjMFA.s:14834  .debug_loc:0000000000000e03 .LLST37
C:\Users\stapi\AppData\Local\Temp\ccgBjMFA.s:1654   .text.alcs_add_svr_key:0000000000000040 .LBB74
C:\Users\stapi\AppData\Local\Temp\ccgBjMFA.s:14845  .debug_loc:0000000000000e21 .LLST38
C:\Users\stapi\AppData\Local\Temp\ccgBjMFA.s:14875  .debug_loc:0000000000000e6e .LLST39
C:\Users\stapi\AppData\Local\Temp\ccgBjMFA.s:14905  .debug_loc:0000000000000ebb .LLST40
C:\Users\stapi\AppData\Local\Temp\ccgBjMFA.s:1713   .text.alcs_add_svr_key:00000000000000c0 .LBB76
C:\Users\stapi\AppData\Local\Temp\ccgBjMFA.s:14924  .debug_loc:0000000000000eef .LLST41
C:\Users\stapi\AppData\Local\Temp\ccgBjMFA.s:14935  .debug_loc:0000000000000f0d .LLST42
C:\Users\stapi\AppData\Local\Temp\ccgBjMFA.s:14960  .debug_loc:0000000000000f4e .LLST43
C:\Users\stapi\AppData\Local\Temp\ccgBjMFA.s:1744   .text.alcs_add_svr_key:00000000000000fe .LBB78
C:\Users\stapi\AppData\Local\Temp\ccgBjMFA.s:1748   .text.alcs_add_svr_key:00000000000000fe .LBE78
C:\Users\stapi\AppData\Local\Temp\ccgBjMFA.s:1901   .text.alcs_add_svr_key:000000000000023c .LBB80
C:\Users\stapi\AppData\Local\Temp\ccgBjMFA.s:14987  .debug_loc:0000000000000f91 .LLST44
C:\Users\stapi\AppData\Local\Temp\ccgBjMFA.s:14996  .debug_loc:0000000000000fa6 .LLST45
C:\Users\stapi\AppData\Local\Temp\ccgBjMFA.s:15003  .debug_loc:0000000000000fb9 .LLST46
C:\Users\stapi\AppData\Local\Temp\ccgBjMFA.s:1725   .text.alcs_add_svr_key:00000000000000d2 .LVL190
C:\Users\stapi\AppData\Local\Temp\ccgBjMFA.s:1730   .text.alcs_add_svr_key:00000000000000de .LVL191
C:\Users\stapi\AppData\Local\Temp\ccgBjMFA.s:1737   .text.alcs_add_svr_key:00000000000000f2 .LVL192
C:\Users\stapi\AppData\Local\Temp\ccgBjMFA.s:1741   .text.alcs_add_svr_key:00000000000000fe .LVL193
C:\Users\stapi\AppData\Local\Temp\ccgBjMFA.s:1758   .text.alcs_add_svr_key:0000000000000110 .LVL195
C:\Users\stapi\AppData\Local\Temp\ccgBjMFA.s:1763   .text.alcs_add_svr_key:0000000000000120 .LVL196
C:\Users\stapi\AppData\Local\Temp\ccgBjMFA.s:1767   .text.alcs_add_svr_key:000000000000012c .LVL197
C:\Users\stapi\AppData\Local\Temp\ccgBjMFA.s:1772   .text.alcs_add_svr_key:0000000000000136 .LVL198
C:\Users\stapi\AppData\Local\Temp\ccgBjMFA.s:1853   .text.alcs_add_svr_key:00000000000001d0 .LVL213
C:\Users\stapi\AppData\Local\Temp\ccgBjMFA.s:1858   .text.alcs_add_svr_key:00000000000001e0 .LVL214
C:\Users\stapi\AppData\Local\Temp\ccgBjMFA.s:1862   .text.alcs_add_svr_key:00000000000001ec .LVL215
C:\Users\stapi\AppData\Local\Temp\ccgBjMFA.s:1882   .text.alcs_add_svr_key:0000000000000210 .LVL218
C:\Users\stapi\AppData\Local\Temp\ccgBjMFA.s:1886   .text.alcs_add_svr_key:000000000000021c .LVL219
C:\Users\stapi\AppData\Local\Temp\ccgBjMFA.s:1890   .text.alcs_add_svr_key:0000000000000228 .LVL220
C:\Users\stapi\AppData\Local\Temp\ccgBjMFA.s:1899   .text.alcs_add_svr_key:000000000000023c .LVL221
C:\Users\stapi\AppData\Local\Temp\ccgBjMFA.s:1927   .text.alcs_add_svr_key:0000000000000252 .LVL224
C:\Users\stapi\AppData\Local\Temp\ccgBjMFA.s:2094   .text.alcs_add_svr_key:0000000000000386 .LBB86
C:\Users\stapi\AppData\Local\Temp\ccgBjMFA.s:15010  .debug_loc:0000000000000fcc .LLST47
C:\Users\stapi\AppData\Local\Temp\ccgBjMFA.s:2106   .text.alcs_add_svr_key:000000000000038c .LBB88
C:\Users\stapi\AppData\Local\Temp\ccgBjMFA.s:2122   .text.alcs_add_svr_key:0000000000000398 .LBE88
C:\Users\stapi\AppData\Local\Temp\ccgBjMFA.s:15017  .debug_loc:0000000000000fdf .LLST48
C:\Users\stapi\AppData\Local\Temp\ccgBjMFA.s:1660   .text.alcs_add_svr_key:000000000000004c .LVL182
C:\Users\stapi\AppData\Local\Temp\ccgBjMFA.s:1666   .text.alcs_add_svr_key:000000000000005e .LVL183
C:\Users\stapi\AppData\Local\Temp\ccgBjMFA.s:1670   .text.alcs_add_svr_key:000000000000006a .LVL184
C:\Users\stapi\AppData\Local\Temp\ccgBjMFA.s:1687   .text.alcs_add_svr_key:000000000000008a .LVL185
C:\Users\stapi\AppData\Local\Temp\ccgBjMFA.s:1697   .text.alcs_add_svr_key:00000000000000a0 .LVL186
C:\Users\stapi\AppData\Local\Temp\ccgBjMFA.s:1701   .text.alcs_add_svr_key:00000000000000b0 .LVL187
C:\Users\stapi\AppData\Local\Temp\ccgBjMFA.s:1704   .text.alcs_add_svr_key:00000000000000bc .LVL188
C:\Users\stapi\AppData\Local\Temp\ccgBjMFA.s:1780   .text.alcs_add_svr_key:0000000000000142 .LVL199
C:\Users\stapi\AppData\Local\Temp\ccgBjMFA.s:1785   .text.alcs_add_svr_key:0000000000000152 .LVL200
C:\Users\stapi\AppData\Local\Temp\ccgBjMFA.s:1789   .text.alcs_add_svr_key:000000000000015e .LVL201
C:\Users\stapi\AppData\Local\Temp\ccgBjMFA.s:1794   .text.alcs_add_svr_key:0000000000000168 .LVL202
C:\Users\stapi\AppData\Local\Temp\ccgBjMFA.s:1811   .text.alcs_add_svr_key:0000000000000186 .LVL205
C:\Users\stapi\AppData\Local\Temp\ccgBjMFA.s:1816   .text.alcs_add_svr_key:0000000000000196 .LVL206
C:\Users\stapi\AppData\Local\Temp\ccgBjMFA.s:1820   .text.alcs_add_svr_key:00000000000001a2 .LVL207
C:\Users\stapi\AppData\Local\Temp\ccgBjMFA.s:1828   .text.alcs_add_svr_key:00000000000001b0 .LVL208
C:\Users\stapi\AppData\Local\Temp\ccgBjMFA.s:1838   .text.alcs_add_svr_key:00000000000001be .LVL211
C:\Users\stapi\AppData\Local\Temp\ccgBjMFA.s:1953   .text.alcs_add_svr_key:0000000000000278 .LVL230
C:\Users\stapi\AppData\Local\Temp\ccgBjMFA.s:1996   .text.alcs_add_svr_key:000000000000029c .LVL237
C:\Users\stapi\AppData\Local\Temp\ccgBjMFA.s:2001   .text.alcs_add_svr_key:00000000000002ac .LVL238
C:\Users\stapi\AppData\Local\Temp\ccgBjMFA.s:2005   .text.alcs_add_svr_key:00000000000002b8 .LVL239
C:\Users\stapi\AppData\Local\Temp\ccgBjMFA.s:2012   .text.alcs_add_svr_key:00000000000002c6 .LVL240
C:\Users\stapi\AppData\Local\Temp\ccgBjMFA.s:2017   .text.alcs_add_svr_key:00000000000002d0 .LVL241
C:\Users\stapi\AppData\Local\Temp\ccgBjMFA.s:2022   .text.alcs_add_svr_key:00000000000002e0 .LVL242
C:\Users\stapi\AppData\Local\Temp\ccgBjMFA.s:2031   .text.alcs_add_svr_key:00000000000002f0 .LVL243
C:\Users\stapi\AppData\Local\Temp\ccgBjMFA.s:2035   .text.alcs_add_svr_key:00000000000002fa .LVL244
C:\Users\stapi\AppData\Local\Temp\ccgBjMFA.s:2042   .text.alcs_add_svr_key:0000000000000308 .LVL245
C:\Users\stapi\AppData\Local\Temp\ccgBjMFA.s:2047   .text.alcs_add_svr_key:0000000000000318 .LVL246
C:\Users\stapi\AppData\Local\Temp\ccgBjMFA.s:2051   .text.alcs_add_svr_key:0000000000000324 .LVL247
C:\Users\stapi\AppData\Local\Temp\ccgBjMFA.s:2057   .text.alcs_add_svr_key:000000000000032e .LVL248
C:\Users\stapi\AppData\Local\Temp\ccgBjMFA.s:2063   .text.alcs_add_svr_key:0000000000000340 .LVL249
C:\Users\stapi\AppData\Local\Temp\ccgBjMFA.s:2068   .text.alcs_add_svr_key:000000000000034e .LVL250
C:\Users\stapi\AppData\Local\Temp\ccgBjMFA.s:2073   .text.alcs_add_svr_key:000000000000035a .LVL251
C:\Users\stapi\AppData\Local\Temp\ccgBjMFA.s:2082   .text.alcs_add_svr_key:000000000000036a .LVL252
C:\Users\stapi\AppData\Local\Temp\ccgBjMFA.s:2087   .text.alcs_add_svr_key:000000000000037a .LVL253
C:\Users\stapi\AppData\Local\Temp\ccgBjMFA.s:2091   .text.alcs_add_svr_key:0000000000000386 .LVL254
C:\Users\stapi\AppData\Local\Temp\ccgBjMFA.s:2134   .text.alcs_add_svr_key:00000000000003ac .LVL257
C:\Users\stapi\AppData\Local\Temp\ccgBjMFA.s:2139   .text.alcs_add_svr_key:00000000000003b8 .LVL258
C:\Users\stapi\AppData\Local\Temp\ccgBjMFA.s:2144   .text.alcs_add_svr_key:00000000000003c8 .LVL259
C:\Users\stapi\AppData\Local\Temp\ccgBjMFA.s:2148   .text.alcs_add_svr_key:00000000000003d4 .LVL260
C:\Users\stapi\AppData\Local\Temp\ccgBjMFA.s:1640   .text.alcs_add_svr_key:000000000000001e .LVL179
C:\Users\stapi\AppData\Local\Temp\ccgBjMFA.s:1646   .text.alcs_add_svr_key:0000000000000030 .LVL180
C:\Users\stapi\AppData\Local\Temp\ccgBjMFA.s:1651   .text.alcs_add_svr_key:0000000000000040 .LVL181
C:\Users\stapi\AppData\Local\Temp\ccgBjMFA.s:15729  .debug_str:00000000000001b6 .LASF194
C:\Users\stapi\AppData\Local\Temp\ccgBjMFA.s:15739  .debug_str:00000000000001f5 .LASF195
C:\Users\stapi\AppData\Local\Temp\ccgBjMFA.s:15861  .debug_str:0000000000000576 .LASF196
C:\Users\stapi\AppData\Local\Temp\ccgBjMFA.s:544    .text.alcs_rec_auth:0000000000000000 .LFB21
C:\Users\stapi\AppData\Local\Temp\ccgBjMFA.s:1565   .text.alcs_rec_auth:000000000000072e .LFE21
C:\Users\stapi\AppData\Local\Temp\ccgBjMFA.s:15024  .debug_loc:0000000000000ff2 .LLST13
C:\Users\stapi\AppData\Local\Temp\ccgBjMFA.s:15733  .debug_str:00000000000001c9 .LASF197
C:\Users\stapi\AppData\Local\Temp\ccgBjMFA.s:15035  .debug_loc:0000000000001010 .LLST14
C:\Users\stapi\AppData\Local\Temp\ccgBjMFA.s:15049  .debug_loc:0000000000001031 .LLST15
C:\Users\stapi\AppData\Local\Temp\ccgBjMFA.s:15867  .debug_str:00000000000005a3 .LASF198
C:\Users\stapi\AppData\Local\Temp\ccgBjMFA.s:15060  .debug_loc:000000000000104f .LLST16
C:\Users\stapi\AppData\Local\Temp\ccgBjMFA.s:15909  .debug_str:0000000000000758 .LASF199
C:\Users\stapi\AppData\Local\Temp\ccgBjMFA.s:15987  .debug_str:000000000000097d .LASF200
C:\Users\stapi\AppData\Local\Temp\ccgBjMFA.s:15078  .debug_loc:000000000000107b .LLST17
C:\Users\stapi\AppData\Local\Temp\ccgBjMFA.s:15873  .debug_str:00000000000005d0 .LASF201
C:\Users\stapi\AppData\Local\Temp\ccgBjMFA.s:15085  .debug_loc:000000000000108e .LLST18
C:\Users\stapi\AppData\Local\Temp\ccgBjMFA.s:15877  .debug_str:00000000000005e1 .LASF202
C:\Users\stapi\AppData\Local\Temp\ccgBjMFA.s:15100  .debug_loc:00000000000010b7 .LLST19
C:\Users\stapi\AppData\Local\Temp\ccgBjMFA.s:15737  .debug_str:00000000000001f0 .LASF203
C:\Users\stapi\AppData\Local\Temp\ccgBjMFA.s:15119  .debug_loc:00000000000010eb .LLST20
C:\Users\stapi\AppData\Local\Temp\ccgBjMFA.s:16009  .debug_str:0000000000000a05 .LASF204
C:\Users\stapi\AppData\Local\Temp\ccgBjMFA.s:15126  .debug_loc:00000000000010fe .LLST21
C:\Users\stapi\AppData\Local\Temp\ccgBjMFA.s:15935  .debug_str:0000000000000819 .LASF205
C:\Users\stapi\AppData\Local\Temp\ccgBjMFA.s:15141  .debug_loc:0000000000001127 .LLST22
C:\Users\stapi\AppData\Local\Temp\ccgBjMFA.s:15172  .debug_loc:000000000000116e .LLST23
C:\Users\stapi\AppData\Local\Temp\ccgBjMFA.s:16087  .debug_str:0000000000000c86 .LASF206
C:\Users\stapi\AppData\Local\Temp\ccgBjMFA.s:15803  .debug_str:0000000000000409 .LASF207
C:\Users\stapi\AppData\Local\Temp\ccgBjMFA.s:16189  .debug_str:0000000000000f2c .LASF208
C:\Users\stapi\AppData\Local\Temp\ccgBjMFA.s:15183  .debug_loc:000000000000118c .LLST24
C:\Users\stapi\AppData\Local\Temp\ccgBjMFA.s:16049  .debug_str:0000000000000b84 .LASF209
C:\Users\stapi\AppData\Local\Temp\ccgBjMFA.s:15921  .debug_str:00000000000007c2 .LASF210
C:\Users\stapi\AppData\Local\Temp\ccgBjMFA.s:16125  .debug_str:0000000000000d6b .LASF211
C:\Users\stapi\AppData\Local\Temp\ccgBjMFA.s:15199  .debug_loc:00000000000011b6 .LLST25
C:\Users\stapi\AppData\Local\Temp\ccgBjMFA.s:15214  .debug_loc:00000000000011df .LLST26
C:\Users\stapi\AppData\Local\Temp\ccgBjMFA.s:16057  .debug_str:0000000000000bb6 .LASF212
C:\Users\stapi\AppData\Local\Temp\ccgBjMFA.s:16059  .debug_str:0000000000000bbb .LASF213
C:\Users\stapi\AppData\Local\Temp\ccgBjMFA.s:16093  .debug_str:0000000000000ca8 .LASF214
C:\Users\stapi\AppData\Local\Temp\ccgBjMFA.s:15945  .debug_str:0000000000000869 .LASF215
C:\Users\stapi\AppData\Local\Temp\ccgBjMFA.s:15229  .debug_loc:0000000000001208 .LLST27
C:\Users\stapi\AppData\Local\Temp\ccgBjMFA.s:15237  .debug_loc:000000000000121c .LLST28
C:\Users\stapi\AppData\Local\Temp\ccgBjMFA.s:874    .text.alcs_rec_auth:0000000000000226 .LBB50
C:\Users\stapi\AppData\Local\Temp\ccgBjMFA.s:913    .text.alcs_rec_auth:000000000000026a .LBE50
C:\Users\stapi\AppData\Local\Temp\ccgBjMFA.s:15931  .debug_str:0000000000000802 .LASF216
C:\Users\stapi\AppData\Local\Temp\ccgBjMFA.s:15254  .debug_loc:0000000000001248 .LLST29
C:\Users\stapi\AppData\Local\Temp\ccgBjMFA.s:887    .text.alcs_rec_auth:000000000000023a .LVL96
C:\Users\stapi\AppData\Local\Temp\ccgBjMFA.s:911    .text.alcs_rec_auth:000000000000026a .LVL100
C:\Users\stapi\AppData\Local\Temp\ccgBjMFA.s:1298   .text.alcs_rec_auth:0000000000000546 .LBB51
C:\Users\stapi\AppData\Local\Temp\ccgBjMFA.s:15261  .debug_loc:000000000000125b .LLST30
C:\Users\stapi\AppData\Local\Temp\ccgBjMFA.s:15269  .debug_loc:000000000000126f .LLST31
C:\Users\stapi\AppData\Local\Temp\ccgBjMFA.s:1304   .text.alcs_rec_auth:000000000000054a .LBB53
C:\Users\stapi\AppData\Local\Temp\ccgBjMFA.s:15282  .debug_loc:0000000000001290 .LLST32
C:\Users\stapi\AppData\Local\Temp\ccgBjMFA.s:15289  .debug_loc:00000000000012a3 .LLST33
C:\Users\stapi\AppData\Local\Temp\ccgBjMFA.s:624    .text.alcs_rec_auth:000000000000007e .LVL64
C:\Users\stapi\AppData\Local\Temp\ccgBjMFA.s:639    .text.alcs_rec_auth:000000000000009a .LVL65
C:\Users\stapi\AppData\Local\Temp\ccgBjMFA.s:646    .text.alcs_rec_auth:00000000000000a8 .LVL67
C:\Users\stapi\AppData\Local\Temp\ccgBjMFA.s:653    .text.alcs_rec_auth:00000000000000bc .LVL68
C:\Users\stapi\AppData\Local\Temp\ccgBjMFA.s:657    .text.alcs_rec_auth:00000000000000c8 .LVL69
C:\Users\stapi\AppData\Local\Temp\ccgBjMFA.s:679    .text.alcs_rec_auth:00000000000000e8 .LVL72
C:\Users\stapi\AppData\Local\Temp\ccgBjMFA.s:688    .text.alcs_rec_auth:00000000000000f6 .LVL74
C:\Users\stapi\AppData\Local\Temp\ccgBjMFA.s:693    .text.alcs_rec_auth:0000000000000106 .LVL75
C:\Users\stapi\AppData\Local\Temp\ccgBjMFA.s:697    .text.alcs_rec_auth:0000000000000112 .LVL76
C:\Users\stapi\AppData\Local\Temp\ccgBjMFA.s:790    .text.alcs_rec_auth:000000000000019e .LVL83
C:\Users\stapi\AppData\Local\Temp\ccgBjMFA.s:801    .text.alcs_rec_auth:00000000000001b2 .LVL84
C:\Users\stapi\AppData\Local\Temp\ccgBjMFA.s:805    .text.alcs_rec_auth:00000000000001be .LVL85
C:\Users\stapi\AppData\Local\Temp\ccgBjMFA.s:811    .text.alcs_rec_auth:00000000000001d2 .LVL86
C:\Users\stapi\AppData\Local\Temp\ccgBjMFA.s:814    .text.alcs_rec_auth:00000000000001de .LVL87
C:\Users\stapi\AppData\Local\Temp\ccgBjMFA.s:823    .text.alcs_rec_auth:00000000000001f6 .LVL88
C:\Users\stapi\AppData\Local\Temp\ccgBjMFA.s:867    .text.alcs_rec_auth:0000000000000222 .LVL93
C:\Users\stapi\AppData\Local\Temp\ccgBjMFA.s:930    .text.alcs_rec_auth:0000000000000284 .LVL101
C:\Users\stapi\AppData\Local\Temp\ccgBjMFA.s:935    .text.alcs_rec_auth:0000000000000290 .LVL102
C:\Users\stapi\AppData\Local\Temp\ccgBjMFA.s:946    .text.alcs_rec_auth:00000000000002ae .LVL103
C:\Users\stapi\AppData\Local\Temp\ccgBjMFA.s:950    .text.alcs_rec_auth:00000000000002ba .LVL104
C:\Users\stapi\AppData\Local\Temp\ccgBjMFA.s:961    .text.alcs_rec_auth:00000000000002d2 .LVL105
C:\Users\stapi\AppData\Local\Temp\ccgBjMFA.s:973    .text.alcs_rec_auth:00000000000002e6 .LVL106
C:\Users\stapi\AppData\Local\Temp\ccgBjMFA.s:992    .text.alcs_rec_auth:0000000000000306 .LVL107
C:\Users\stapi\AppData\Local\Temp\ccgBjMFA.s:1007   .text.alcs_rec_auth:0000000000000320 .LVL110
C:\Users\stapi\AppData\Local\Temp\ccgBjMFA.s:1059   .text.alcs_rec_auth:0000000000000364 .LVL115
C:\Users\stapi\AppData\Local\Temp\ccgBjMFA.s:1083   .text.alcs_rec_auth:000000000000038e .LVL117
C:\Users\stapi\AppData\Local\Temp\ccgBjMFA.s:1090   .text.alcs_rec_auth:000000000000039e .LVL118
C:\Users\stapi\AppData\Local\Temp\ccgBjMFA.s:1100   .text.alcs_rec_auth:00000000000003b0 .LVL120
C:\Users\stapi\AppData\Local\Temp\ccgBjMFA.s:1118   .text.alcs_rec_auth:00000000000003d4 .LVL121
C:\Users\stapi\AppData\Local\Temp\ccgBjMFA.s:1124   .text.alcs_rec_auth:00000000000003e4 .LVL122
C:\Users\stapi\AppData\Local\Temp\ccgBjMFA.s:1129   .text.alcs_rec_auth:00000000000003ee .LVL123
C:\Users\stapi\AppData\Local\Temp\ccgBjMFA.s:1136   .text.alcs_rec_auth:0000000000000400 .LVL124
C:\Users\stapi\AppData\Local\Temp\ccgBjMFA.s:1141   .text.alcs_rec_auth:000000000000040a .LVL125
C:\Users\stapi\AppData\Local\Temp\ccgBjMFA.s:1150   .text.alcs_rec_auth:000000000000041c .LVL126
C:\Users\stapi\AppData\Local\Temp\ccgBjMFA.s:1160   .text.alcs_rec_auth:0000000000000430 .LVL127
C:\Users\stapi\AppData\Local\Temp\ccgBjMFA.s:1165   .text.alcs_rec_auth:000000000000043c .LVL128
C:\Users\stapi\AppData\Local\Temp\ccgBjMFA.s:1174   .text.alcs_rec_auth:0000000000000456 .LVL129
C:\Users\stapi\AppData\Local\Temp\ccgBjMFA.s:1178   .text.alcs_rec_auth:0000000000000462 .LVL130
C:\Users\stapi\AppData\Local\Temp\ccgBjMFA.s:1207   .text.alcs_rec_auth:0000000000000492 .LVL133
C:\Users\stapi\AppData\Local\Temp\ccgBjMFA.s:1212   .text.alcs_rec_auth:000000000000049c .LVL134
C:\Users\stapi\AppData\Local\Temp\ccgBjMFA.s:1222   .text.alcs_rec_auth:00000000000004b0 .LVL135
C:\Users\stapi\AppData\Local\Temp\ccgBjMFA.s:1244   .text.alcs_rec_auth:00000000000004d0 .LVL136
C:\Users\stapi\AppData\Local\Temp\ccgBjMFA.s:1258   .text.alcs_rec_auth:00000000000004f8 .LVL137
C:\Users\stapi\AppData\Local\Temp\ccgBjMFA.s:1264   .text.alcs_rec_auth:0000000000000508 .LVL138
C:\Users\stapi\AppData\Local\Temp\ccgBjMFA.s:1270   .text.alcs_rec_auth:000000000000051a .LVL139
C:\Users\stapi\AppData\Local\Temp\ccgBjMFA.s:1274   .text.alcs_rec_auth:0000000000000526 .LVL140
C:\Users\stapi\AppData\Local\Temp\ccgBjMFA.s:1279   .text.alcs_rec_auth:000000000000052e .LVL141
C:\Users\stapi\AppData\Local\Temp\ccgBjMFA.s:1296   .text.alcs_rec_auth:0000000000000546 .LVL144
C:\Users\stapi\AppData\Local\Temp\ccgBjMFA.s:1338   .text.alcs_rec_auth:000000000000056c .LVL147
C:\Users\stapi\AppData\Local\Temp\ccgBjMFA.s:1346   .text.alcs_rec_auth:000000000000057a .LVL149
C:\Users\stapi\AppData\Local\Temp\ccgBjMFA.s:1353   .text.alcs_rec_auth:000000000000058a .LVL150
C:\Users\stapi\AppData\Local\Temp\ccgBjMFA.s:1364   .text.alcs_rec_auth:000000000000059c .LVL153
C:\Users\stapi\AppData\Local\Temp\ccgBjMFA.s:1382   .text.alcs_rec_auth:00000000000005c0 .LVL154
C:\Users\stapi\AppData\Local\Temp\ccgBjMFA.s:1388   .text.alcs_rec_auth:00000000000005d0 .LVL155
C:\Users\stapi\AppData\Local\Temp\ccgBjMFA.s:1393   .text.alcs_rec_auth:00000000000005da .LVL156
C:\Users\stapi\AppData\Local\Temp\ccgBjMFA.s:1400   .text.alcs_rec_auth:00000000000005ec .LVL157
C:\Users\stapi\AppData\Local\Temp\ccgBjMFA.s:1405   .text.alcs_rec_auth:00000000000005f6 .LVL158
C:\Users\stapi\AppData\Local\Temp\ccgBjMFA.s:1414   .text.alcs_rec_auth:0000000000000608 .LVL159
C:\Users\stapi\AppData\Local\Temp\ccgBjMFA.s:1423   .text.alcs_rec_auth:000000000000061a .LVL160
C:\Users\stapi\AppData\Local\Temp\ccgBjMFA.s:1428   .text.alcs_rec_auth:0000000000000626 .LVL161
C:\Users\stapi\AppData\Local\Temp\ccgBjMFA.s:1436   .text.alcs_rec_auth:000000000000063e .LVL162
C:\Users\stapi\AppData\Local\Temp\ccgBjMFA.s:1440   .text.alcs_rec_auth:000000000000064a .LVL163
C:\Users\stapi\AppData\Local\Temp\ccgBjMFA.s:1469   .text.alcs_rec_auth:000000000000067a .LVL166
C:\Users\stapi\AppData\Local\Temp\ccgBjMFA.s:1474   .text.alcs_rec_auth:0000000000000684 .LVL167
C:\Users\stapi\AppData\Local\Temp\ccgBjMFA.s:1484   .text.alcs_rec_auth:0000000000000698 .LVL168
C:\Users\stapi\AppData\Local\Temp\ccgBjMFA.s:1507   .text.alcs_rec_auth:00000000000006ba .LVL169
C:\Users\stapi\AppData\Local\Temp\ccgBjMFA.s:1521   .text.alcs_rec_auth:00000000000006e2 .LVL170
C:\Users\stapi\AppData\Local\Temp\ccgBjMFA.s:1527   .text.alcs_rec_auth:00000000000006f2 .LVL171
C:\Users\stapi\AppData\Local\Temp\ccgBjMFA.s:1533   .text.alcs_rec_auth:0000000000000704 .LVL172
C:\Users\stapi\AppData\Local\Temp\ccgBjMFA.s:1537   .text.alcs_rec_auth:0000000000000710 .LVL173
C:\Users\stapi\AppData\Local\Temp\ccgBjMFA.s:1542   .text.alcs_rec_auth:0000000000000718 .LVL174
C:\Users\stapi\AppData\Local\Temp\ccgBjMFA.s:1553   .text.alcs_rec_auth:0000000000000728 .LVL176
C:\Users\stapi\AppData\Local\Temp\ccgBjMFA.s:593    .text.alcs_rec_auth:0000000000000030 .LVL60
C:\Users\stapi\AppData\Local\Temp\ccgBjMFA.s:598    .text.alcs_rec_auth:000000000000003c .LVL61
C:\Users\stapi\AppData\Local\Temp\ccgBjMFA.s:606    .text.alcs_rec_auth:0000000000000056 .LVL62
C:\Users\stapi\AppData\Local\Temp\ccgBjMFA.s:611    .text.alcs_rec_auth:0000000000000066 .LVL63
C:\Users\stapi\AppData\Local\Temp\ccgBjMFA.s:715    .text.alcs_rec_auth:0000000000000132 .LVL77
C:\Users\stapi\AppData\Local\Temp\ccgBjMFA.s:720    .text.alcs_rec_auth:000000000000013c .LVL78
C:\Users\stapi\AppData\Local\Temp\ccgBjMFA.s:735    .text.alcs_rec_auth:0000000000000158 .LVL79
C:\Users\stapi\AppData\Local\Temp\ccgBjMFA.s:756    .text.alcs_rec_auth:000000000000017e .LVL80
C:\Users\stapi\AppData\Local\Temp\ccgBjMFA.s:15955  .debug_str:000000000000089f .LASF217
C:\Users\stapi\AppData\Local\Temp\ccgBjMFA.s:177    .text.is_legal_key:0000000000000000 .LFB20
C:\Users\stapi\AppData\Local\Temp\ccgBjMFA.s:485    .text.is_legal_key:00000000000001f2 .LFE20
C:\Users\stapi\AppData\Local\Temp\ccgBjMFA.s:15296  .debug_loc:00000000000012b6 .LLST3
C:\Users\stapi\AppData\Local\Temp\ccgBjMFA.s:15310  .debug_loc:00000000000012d7 .LLST4
C:\Users\stapi\AppData\Local\Temp\ccgBjMFA.s:16135  .debug_str:0000000000000dba .LASF218
C:\Users\stapi\AppData\Local\Temp\ccgBjMFA.s:15321  .debug_loc:00000000000012f5 .LLST5
C:\Users\stapi\AppData\Local\Temp\ccgBjMFA.s:15332  .debug_loc:0000000000001313 .LLST6
C:\Users\stapi\AppData\Local\Temp\ccgBjMFA.s:15372  .debug_loc:0000000000001371 .LLST7
C:\Users\stapi\AppData\Local\Temp\ccgBjMFA.s:15412  .debug_loc:00000000000013cf .LLST8
C:\Users\stapi\AppData\Local\Temp\ccgBjMFA.s:15423  .debug_loc:00000000000013ed .LLST9
C:\Users\stapi\AppData\Local\Temp\ccgBjMFA.s:15456  .debug_loc:0000000000001444 .LLST10
C:\Users\stapi\AppData\Local\Temp\ccgBjMFA.s:261    .text.is_legal_key:0000000000000098 .LVL22
C:\Users\stapi\AppData\Local\Temp\ccgBjMFA.s:333    .text.is_legal_key:0000000000000100 .LVL34
C:\Users\stapi\AppData\Local\Temp\ccgBjMFA.s:341    .text.is_legal_key:000000000000010e .LVL36
C:\Users\stapi\AppData\Local\Temp\ccgBjMFA.s:350    .text.is_legal_key:0000000000000122 .LVL37
C:\Users\stapi\AppData\Local\Temp\ccgBjMFA.s:355    .text.is_legal_key:0000000000000132 .LVL38
C:\Users\stapi\AppData\Local\Temp\ccgBjMFA.s:359    .text.is_legal_key:000000000000013e .LVL39
C:\Users\stapi\AppData\Local\Temp\ccgBjMFA.s:15476  .debug_loc:0000000000001479 .LLST11
C:\Users\stapi\AppData\Local\Temp\ccgBjMFA.s:15496  .debug_loc:00000000000014ae .LLST12
C:\Users\stapi\AppData\Local\Temp\ccgBjMFA.s:399    .text.is_legal_key:0000000000000168 .LVL46
C:\Users\stapi\AppData\Local\Temp\ccgBjMFA.s:405    .text.is_legal_key:000000000000017c .LVL47
C:\Users\stapi\AppData\Local\Temp\ccgBjMFA.s:409    .text.is_legal_key:0000000000000188 .LVL48
C:\Users\stapi\AppData\Local\Temp\ccgBjMFA.s:424    .text.is_legal_key:00000000000001aa .LVL49
C:\Users\stapi\AppData\Local\Temp\ccgBjMFA.s:429    .text.is_legal_key:00000000000001b4 .LVL50
C:\Users\stapi\AppData\Local\Temp\ccgBjMFA.s:437    .text.is_legal_key:00000000000001c6 .LVL51
C:\Users\stapi\AppData\Local\Temp\ccgBjMFA.s:448    .text.is_legal_key:00000000000001da .LVL52
C:\Users\stapi\AppData\Local\Temp\ccgBjMFA.s:277    .text.is_legal_key:00000000000000a0 .LBB42
C:\Users\stapi\AppData\Local\Temp\ccgBjMFA.s:285    .text.is_legal_key:00000000000000a2 .LBE42
C:\Users\stapi\AppData\Local\Temp\ccgBjMFA.s:213    .text.is_legal_key:0000000000000024 .LVL17
C:\Users\stapi\AppData\Local\Temp\ccgBjMFA.s:222    .text.is_legal_key:000000000000003c .LVL18
C:\Users\stapi\AppData\Local\Temp\ccgBjMFA.s:227    .text.is_legal_key:000000000000004c .LVL19
C:\Users\stapi\AppData\Local\Temp\ccgBjMFA.s:245    .text.is_legal_key:0000000000000078 .LVL20
C:\Users\stapi\AppData\Local\Temp\ccgBjMFA.s:250    .text.is_legal_key:0000000000000086 .LVL21
C:\Users\stapi\AppData\Local\Temp\ccgBjMFA.s:295    .text.is_legal_key:00000000000000ba .LVL28
C:\Users\stapi\AppData\Local\Temp\ccgBjMFA.s:301    .text.is_legal_key:00000000000000ce .LVL29
C:\Users\stapi\AppData\Local\Temp\ccgBjMFA.s:305    .text.is_legal_key:00000000000000da .LVL30
C:\Users\stapi\AppData\Local\Temp\ccgBjMFA.s:320    .text.is_legal_key:00000000000000ec .LVL32
C:\Users\stapi\AppData\Local\Temp\ccgBjMFA.s:16013  .debug_str:0000000000000a15 .LASF219
C:\Users\stapi\AppData\Local\Temp\ccgBjMFA.s:16177  .debug_str:0000000000000eab .LASF220
C:\Users\stapi\AppData\Local\Temp\ccgBjMFA.s:15829  .debug_str:00000000000004bc .LASF221
C:\Users\stapi\AppData\Local\Temp\ccgBjMFA.s:16099  .debug_str:0000000000000cc8 .LASF222
C:\Users\stapi\AppData\Local\Temp\ccgBjMFA.s:16005  .debug_str:00000000000009ec .LASF223
C:\Users\stapi\AppData\Local\Temp\ccgBjMFA.s:16043  .debug_str:0000000000000ada .LASF224
C:\Users\stapi\AppData\Local\Temp\ccgBjMFA.s:16245  .debug_str:000000000000113a .LASF225
C:\Users\stapi\AppData\Local\Temp\ccgBjMFA.s:16167  .debug_str:0000000000000e65 .LASF226
C:\Users\stapi\AppData\Local\Temp\ccgBjMFA.s:15773  .debug_str:0000000000000330 .LASF227
C:\Users\stapi\AppData\Local\Temp\ccgBjMFA.s:15757  .debug_str:00000000000002b3 .LASF228
C:\Users\stapi\AppData\Local\Temp\ccgBjMFA.s:15835  .debug_str:00000000000004ee .LASF229
C:\Users\stapi\AppData\Local\Temp\ccgBjMFA.s:15721  .debug_str:0000000000000171 .LASF230
C:\Users\stapi\AppData\Local\Temp\ccgBjMFA.s:15881  .debug_str:00000000000005f2 .LASF231
C:\Users\stapi\AppData\Local\Temp\ccgBjMFA.s:15913  .debug_str:0000000000000774 .LASF232
C:\Users\stapi\AppData\Local\Temp\ccgBjMFA.s:16169  .debug_str:0000000000000e75 .LASF233
C:\Users\stapi\AppData\Local\Temp\ccgBjMFA.s:15973  .debug_str:000000000000090f .LASF234
C:\Users\stapi\AppData\Local\Temp\ccgBjMFA.s:16039  .debug_str:0000000000000ac5 .LASF235
C:\Users\stapi\AppData\Local\Temp\ccgBjMFA.s:15911  .debug_str:0000000000000761 .LASF236
C:\Users\stapi\AppData\Local\Temp\ccgBjMFA.s:15969  .debug_str:00000000000008fc .LASF237
C:\Users\stapi\AppData\Local\Temp\ccgBjMFA.s:16171  .debug_str:0000000000000e82 .LASF238
C:\Users\stapi\AppData\Local\Temp\ccgBjMFA.s:15805  .debug_str:0000000000000416 .LASF239
C:\Users\stapi\AppData\Local\Temp\ccgBjMFA.s:16179  .debug_str:0000000000000eb5 .LASF244
C:\Users\stapi\AppData\Local\Temp\ccgBjMFA.s:15871  .debug_str:00000000000005bf .LASF246
C:\Users\stapi\AppData\Local\Temp\ccgBjMFA.s:16131  .debug_str:0000000000000d86 .LASF240
C:\Users\stapi\AppData\Local\Temp\ccgBjMFA.s:16185  .debug_str:0000000000000f02 .LASF241
C:\Users\stapi\AppData\Local\Temp\ccgBjMFA.s:16031  .debug_str:0000000000000a86 .LASF242
C:\Users\stapi\AppData\Local\Temp\ccgBjMFA.s:15837  .debug_str:00000000000004fd .LASF243
C:\Users\stapi\AppData\Local\Temp\ccgBjMFA.s:16103  .debug_str:0000000000000ce1 .LASF245
C:\Users\stapi\AppData\Local\Temp\ccgBjMFA.s:15961  .debug_str:00000000000008c6 .LASF247
C:\Users\stapi\AppData\Local\Temp\ccgBjMFA.s:15731  .debug_str:00000000000001c2 .LASF248
C:\Users\stapi\AppData\Local\Temp\ccgBjMFA.s:15709  .debug_str:0000000000000123 .LASF249
C:\Users\stapi\AppData\Local\Temp\ccgBjMFA.s:16129  .debug_str:0000000000000d7f .LASF250
C:\Users\stapi\AppData\Local\Temp\ccgBjMFA.s:16061  .debug_str:0000000000000bc0 .LASF251
C:\Users\stapi\AppData\Local\Temp\ccgBjMFA.s:16113  .debug_str:0000000000000d39 .LASF252
C:\Users\stapi\AppData\Local\Temp\ccgBjMFA.s:15851  .debug_str:0000000000000551 .LASF253
C:\Users\stapi\AppData\Local\Temp\ccgBjMFA.s:16175  .debug_str:0000000000000e95 .LASF254
C:\Users\stapi\AppData\Local\Temp\ccgBjMFA.s:15693  .debug_str:0000000000000000 .LASF255
C:\Users\stapi\AppData\Local\Temp\ccgBjMFA.s:16051  .debug_str:0000000000000b92 .LASF256
C:\Users\stapi\AppData\Local\Temp\ccgBjMFA.s:15937  .debug_str:0000000000000820 .LASF257
C:\Users\stapi\AppData\Local\Temp\ccgBjMFA.s:16065  .debug_str:0000000000000bdb .LASF258
C:\Users\stapi\AppData\Local\Temp\ccgBjMFA.s:15899  .debug_str:000000000000067b .LASF259
C:\Users\stapi\AppData\Local\Temp\ccgBjMFA.s:16101  .debug_str:0000000000000cce .LASF260
C:\Users\stapi\AppData\Local\Temp\ccgBjMFA.s:15821  .debug_str:000000000000048b .LASF261
C:\Users\stapi\AppData\Local\Temp\ccgBjMFA.s:15917  .debug_str:0000000000000792 .LASF262
C:\Users\stapi\AppData\Local\Temp\ccgBjMFA.s:16191  .debug_str:0000000000000f38 .LASF263
C:\Users\stapi\AppData\Local\Temp\ccgBjMFA.s:15941  .debug_str:000000000000084a .LASF264
C:\Users\stapi\AppData\Local\Temp\ccgBjMFA.s:15879  .debug_str:00000000000005eb .LASF265
C:\Users\stapi\AppData\Local\Temp\ccgBjMFA.s:15781  .debug_str:000000000000036b .LASF266
C:\Users\stapi\AppData\Local\Temp\ccgBjMFA.s:16027  .debug_str:0000000000000a67 .LASF267
C:\Users\stapi\AppData\Local\Temp\ccgBjMFA.s:15863  .debug_str:0000000000000584 .LASF268
C:\Users\stapi\AppData\Local\Temp\ccgBjMFA.s:15939  .debug_str:0000000000000836 .LASF269
C:\Users\stapi\AppData\Local\Temp\ccgBjMFA.s:15985  .debug_str:000000000000096e .LASF270
C:\Users\stapi\AppData\Local\Temp\ccgBjMFA.s:16071  .debug_str:0000000000000c00 .LASF271
C:\Users\stapi\AppData\Local\Temp\ccgBjMFA.s:4103   .text.on_svr_auth_timer:0000000000000000 .LVL482
C:\Users\stapi\AppData\Local\Temp\ccgBjMFA.s:4140   .text.on_svr_auth_timer:0000000000000034 .LVL485
C:\Users\stapi\AppData\Local\Temp\ccgBjMFA.s:4144   .text.on_svr_auth_timer:0000000000000036 .LVL486
C:\Users\stapi\AppData\Local\Temp\ccgBjMFA.s:4161   .text.on_svr_auth_timer:0000000000000056 .LVL488
C:\Users\stapi\AppData\Local\Temp\ccgBjMFA.s:4185   .text.on_svr_auth_timer:000000000000006e .LVL492
C:\Users\stapi\AppData\Local\Temp\ccgBjMFA.s:4207   .text.on_svr_auth_timer:0000000000000082 .LVL494
C:\Users\stapi\AppData\Local\Temp\ccgBjMFA.s:4231   .text.on_svr_auth_timer:00000000000000ae .LVL497
C:\Users\stapi\AppData\Local\Temp\ccgBjMFA.s:4252   .text.on_svr_auth_timer:00000000000000ce .LVL502
C:\Users\stapi\AppData\Local\Temp\ccgBjMFA.s:4166   .text.on_svr_auth_timer:000000000000005e .LVL489
C:\Users\stapi\AppData\Local\Temp\ccgBjMFA.s:4228   .text.on_svr_auth_timer:00000000000000a8 .LVL496
C:\Users\stapi\AppData\Local\Temp\ccgBjMFA.s:4238   .text.on_svr_auth_timer:00000000000000b4 .LVL499
C:\Users\stapi\AppData\Local\Temp\ccgBjMFA.s:4235   .text.on_svr_auth_timer:00000000000000b0 .LVL498
C:\Users\stapi\AppData\Local\Temp\ccgBjMFA.s:4243   .text.on_svr_auth_timer:00000000000000ba .LVL500
C:\Users\stapi\AppData\Local\Temp\ccgBjMFA.s:4293   .text.on_svr_auth_timer:000000000000011e .LVL508
C:\Users\stapi\AppData\Local\Temp\ccgBjMFA.s:4245   .text.on_svr_auth_timer:00000000000000be .LVL501
C:\Users\stapi\AppData\Local\Temp\ccgBjMFA.s:4290   .text.on_svr_auth_timer:0000000000000118 .LVL507
C:\Users\stapi\AppData\Local\Temp\ccgBjMFA.s:4174   .text.on_svr_auth_timer:0000000000000068 .LVL490
C:\Users\stapi\AppData\Local\Temp\ccgBjMFA.s:4180   .text.on_svr_auth_timer:000000000000006a .LVL491
C:\Users\stapi\AppData\Local\Temp\ccgBjMFA.s:3960   .text.observe_data_encrypt:0000000000000000 .LVL463
C:\Users\stapi\AppData\Local\Temp\ccgBjMFA.s:3985   .text.observe_data_encrypt:0000000000000020 .LVL467
C:\Users\stapi\AppData\Local\Temp\ccgBjMFA.s:3981   .text.observe_data_encrypt:0000000000000018 .LVL465
C:\Users\stapi\AppData\Local\Temp\ccgBjMFA.s:3995   .text.observe_data_encrypt:0000000000000032 .LVL469
C:\Users\stapi\AppData\Local\Temp\ccgBjMFA.s:4007   .text.observe_data_encrypt:000000000000004a .LVL472
C:\Users\stapi\AppData\Local\Temp\ccgBjMFA.s:4022   .text.observe_data_encrypt:0000000000000056 .LVL473
C:\Users\stapi\AppData\Local\Temp\ccgBjMFA.s:4047   .text.observe_data_encrypt:000000000000007c .LVL478
C:\Users\stapi\AppData\Local\Temp\ccgBjMFA.s:3993   .text.observe_data_encrypt:000000000000002e .LVL468
C:\Users\stapi\AppData\Local\Temp\ccgBjMFA.s:3983   .text.observe_data_encrypt:000000000000001c .LVL466
C:\Users\stapi\AppData\Local\Temp\ccgBjMFA.s:3975   .text.observe_data_encrypt:0000000000000010 .LVL464
C:\Users\stapi\AppData\Local\Temp\ccgBjMFA.s:4032   .text.observe_data_encrypt:0000000000000062 .LVL474
C:\Users\stapi\AppData\Local\Temp\ccgBjMFA.s:4043   .text.observe_data_encrypt:0000000000000072 .LVL476
C:\Users\stapi\AppData\Local\Temp\ccgBjMFA.s:4038   .text.observe_data_encrypt:000000000000006e .LVL475
C:\Users\stapi\AppData\Local\Temp\ccgBjMFA.s:3673   .text.alcs_rec_heart_beat:0000000000000000 .LVL430
C:\Users\stapi\AppData\Local\Temp\ccgBjMFA.s:3692   .text.alcs_rec_heart_beat:0000000000000016 .LVL432
C:\Users\stapi\AppData\Local\Temp\ccgBjMFA.s:3690   .text.alcs_rec_heart_beat:0000000000000012 .LVL431
C:\Users\stapi\AppData\Local\Temp\ccgBjMFA.s:3702   .text.alcs_rec_heart_beat:0000000000000024 .LVL433
C:\Users\stapi\AppData\Local\Temp\ccgBjMFA.s:3704   .text.alcs_rec_heart_beat:0000000000000026 .LVL434
C:\Users\stapi\AppData\Local\Temp\ccgBjMFA.s:3731   .text.alcs_rec_heart_beat:0000000000000056 .LVL438
C:\Users\stapi\AppData\Local\Temp\ccgBjMFA.s:3741   .text.alcs_rec_heart_beat:0000000000000064 .LVL440
C:\Users\stapi\AppData\Local\Temp\ccgBjMFA.s:3884   .text.alcs_rec_heart_beat:0000000000000174 .LVL454
C:\Users\stapi\AppData\Local\Temp\ccgBjMFA.s:3905   .text.alcs_rec_heart_beat:0000000000000192 .LVL457
C:\Users\stapi\AppData\Local\Temp\ccgBjMFA.s:3908   .text.alcs_rec_heart_beat:0000000000000194 .LVL458
C:\Users\stapi\AppData\Local\Temp\ccgBjMFA.s:3736   .text.alcs_rec_heart_beat:000000000000005e .LVL439
C:\Users\stapi\AppData\Local\Temp\ccgBjMFA.s:3785   .text.alcs_rec_heart_beat:00000000000000b8 .LVL445
C:\Users\stapi\AppData\Local\Temp\ccgBjMFA.s:3915   .text.alcs_rec_heart_beat:000000000000019e .LVL460
C:\Users\stapi\AppData\Local\Temp\ccgBjMFA.s:3917   .text.alcs_rec_heart_beat:00000000000001a0 .LVL461
C:\Users\stapi\AppData\Local\Temp\ccgBjMFA.s:3787   .text.alcs_rec_heart_beat:00000000000000bc .LVL446
C:\Users\stapi\AppData\Local\Temp\ccgBjMFA.s:3912   .text.alcs_rec_heart_beat:0000000000000198 .LVL459
C:\Users\stapi\AppData\Local\Temp\ccgBjMFA.s:3517   .text.alcs_auth_list_deinit:0000000000000008 .LVL409
C:\Users\stapi\AppData\Local\Temp\ccgBjMFA.s:3528   .text.alcs_auth_list_deinit:0000000000000022 .LVL410
C:\Users\stapi\AppData\Local\Temp\ccgBjMFA.s:3551   .text.alcs_auth_list_deinit:0000000000000046 .LVL413
C:\Users\stapi\AppData\Local\Temp\ccgBjMFA.s:3571   .text.alcs_auth_list_deinit:0000000000000064 .LVL416
C:\Users\stapi\AppData\Local\Temp\ccgBjMFA.s:3616   .text.alcs_auth_list_deinit:000000000000008c .LVL423
C:\Users\stapi\AppData\Local\Temp\ccgBjMFA.s:3618   .text.alcs_auth_list_deinit:000000000000008e .LVL424
C:\Users\stapi\AppData\Local\Temp\ccgBjMFA.s:3531   .text.alcs_auth_list_deinit:0000000000000028 .LVL411
C:\Users\stapi\AppData\Local\Temp\ccgBjMFA.s:3613   .text.alcs_auth_list_deinit:0000000000000086 .LVL422
C:\Users\stapi\AppData\Local\Temp\ccgBjMFA.s:3555   .text.alcs_auth_list_deinit:0000000000000050 .LVL414
C:\Users\stapi\AppData\Local\Temp\ccgBjMFA.s:3647   .text.alcs_auth_list_deinit:00000000000000ac .LVL429
C:\Users\stapi\AppData\Local\Temp\ccgBjMFA.s:3557   .text.alcs_auth_list_deinit:0000000000000054 .LVL415
C:\Users\stapi\AppData\Local\Temp\ccgBjMFA.s:3644   .text.alcs_auth_list_deinit:00000000000000a6 .LVL428
C:\Users\stapi\AppData\Local\Temp\ccgBjMFA.s:3597   .text.alcs_auth_list_deinit:000000000000006e .LVL419
C:\Users\stapi\AppData\Local\Temp\ccgBjMFA.s:3580   .text.alcs_auth_list_deinit:0000000000000066 .LVL417
C:\Users\stapi\AppData\Local\Temp\ccgBjMFA.s:3584   .text.alcs_auth_list_deinit:0000000000000068 .LVL418
C:\Users\stapi\AppData\Local\Temp\ccgBjMFA.s:3636   .text.alcs_auth_list_deinit:000000000000009a .LVL426
C:\Users\stapi\AppData\Local\Temp\ccgBjMFA.s:3628   .text.alcs_auth_list_deinit:0000000000000096 .LVL425
C:\Users\stapi\AppData\Local\Temp\ccgBjMFA.s:3434   .text.alcs_resource_cb_deinit:0000000000000008 .LVL401
C:\Users\stapi\AppData\Local\Temp\ccgBjMFA.s:3444   .text.alcs_resource_cb_deinit:000000000000001a .LVL402
C:\Users\stapi\AppData\Local\Temp\ccgBjMFA.s:3496   .text.alcs_resource_cb_deinit:0000000000000050 .LVL408
C:\Users\stapi\AppData\Local\Temp\ccgBjMFA.s:3460   .text.alcs_resource_cb_deinit:000000000000002a .LVL403
C:\Users\stapi\AppData\Local\Temp\ccgBjMFA.s:3476   .text.alcs_resource_cb_deinit:0000000000000032 .LVL405
C:\Users\stapi\AppData\Local\Temp\ccgBjMFA.s:3468   .text.alcs_resource_cb_deinit:000000000000002e .LVL404
C:\Users\stapi\AppData\Local\Temp\ccgBjMFA.s:3071   .text.alcs_resource_register_secure:0000000000000000 .LVL358
C:\Users\stapi\AppData\Local\Temp\ccgBjMFA.s:3096   .text.alcs_resource_register_secure:0000000000000010 .LVL359
C:\Users\stapi\AppData\Local\Temp\ccgBjMFA.s:3392   .text.alcs_resource_register_secure:0000000000000210 .LVL398
C:\Users\stapi\AppData\Local\Temp\ccgBjMFA.s:3408   .text.alcs_resource_register_secure:0000000000000218 .LVL399
C:\Users\stapi\AppData\Local\Temp\ccgBjMFA.s:3169   .text.alcs_resource_register_secure:000000000000009e .LVL367
C:\Users\stapi\AppData\Local\Temp\ccgBjMFA.s:3223   .text.alcs_resource_register_secure:00000000000000f8 .LVL374
C:\Users\stapi\AppData\Local\Temp\ccgBjMFA.s:3238   .text.alcs_resource_register_secure:0000000000000114 .LVL377
C:\Users\stapi\AppData\Local\Temp\ccgBjMFA.s:3178   .text.alcs_resource_register_secure:00000000000000b2 .LVL368
C:\Users\stapi\AppData\Local\Temp\ccgBjMFA.s:3211   .text.alcs_resource_register_secure:00000000000000e8 .LVL372
C:\Users\stapi\AppData\Local\Temp\ccgBjMFA.s:3258   .text.alcs_resource_register_secure:000000000000012e .LVL379
C:\Users\stapi\AppData\Local\Temp\ccgBjMFA.s:3265   .text.alcs_resource_register_secure:0000000000000138 .LVL381
C:\Users\stapi\AppData\Local\Temp\ccgBjMFA.s:3290   .text.alcs_resource_register_secure:0000000000000166 .LVL385
C:\Users\stapi\AppData\Local\Temp\ccgBjMFA.s:3183   .text.alcs_resource_register_secure:00000000000000b6 .LVL369
C:\Users\stapi\AppData\Local\Temp\ccgBjMFA.s:3262   .text.alcs_resource_register_secure:0000000000000132 .LVL380
C:\Users\stapi\AppData\Local\Temp\ccgBjMFA.s:3288   .text.alcs_resource_register_secure:0000000000000164 .LVL384
C:\Users\stapi\AppData\Local\Temp\ccgBjMFA.s:3352   .text.alcs_resource_register_secure:00000000000001e8 .LVL395
C:\Users\stapi\AppData\Local\Temp\ccgBjMFA.s:3370   .text.alcs_resource_register_secure:00000000000001f4 .LVL396
C:\Users\stapi\AppData\Local\Temp\ccgBjMFA.s:3048   .text.recv_msg_handler:0000000000000000 .LVL356
C:\Users\stapi\AppData\Local\Temp\ccgBjMFA.s:2702   .text.p2p_msg_handler:0000000000000000 .LVL312
C:\Users\stapi\AppData\Local\Temp\ccgBjMFA.s:2722   .text.p2p_msg_handler:000000000000000e .LVL313
C:\Users\stapi\AppData\Local\Temp\ccgBjMFA.s:2740   .text.p2p_msg_handler:000000000000002c .LVL315
C:\Users\stapi\AppData\Local\Temp\ccgBjMFA.s:2746   .text.p2p_msg_handler:0000000000000038 .LVL316
C:\Users\stapi\AppData\Local\Temp\ccgBjMFA.s:2754   .text.p2p_msg_handler:0000000000000048 .LVL318
C:\Users\stapi\AppData\Local\Temp\ccgBjMFA.s:2761   .text.p2p_msg_handler:000000000000004a .LVL319
C:\Users\stapi\AppData\Local\Temp\ccgBjMFA.s:2774   .text.p2p_msg_handler:000000000000005e .LVL321
C:\Users\stapi\AppData\Local\Temp\ccgBjMFA.s:2779   .text.p2p_msg_handler:000000000000006a .LVL322
C:\Users\stapi\AppData\Local\Temp\ccgBjMFA.s:2825   .text.p2p_msg_handler:00000000000000d6 .LVL329
C:\Users\stapi\AppData\Local\Temp\ccgBjMFA.s:2884   .text.p2p_msg_handler:0000000000000154 .LVL337
C:\Users\stapi\AppData\Local\Temp\ccgBjMFA.s:2916   .text.p2p_msg_handler:000000000000018a .LVL341
C:\Users\stapi\AppData\Local\Temp\ccgBjMFA.s:2926   .text.p2p_msg_handler:0000000000000194 .LVL342
C:\Users\stapi\AppData\Local\Temp\ccgBjMFA.s:2938   .text.p2p_msg_handler:00000000000001b2 .LVL345
C:\Users\stapi\AppData\Local\Temp\ccgBjMFA.s:2954   .text.p2p_msg_handler:00000000000001c4 .LVL346
C:\Users\stapi\AppData\Local\Temp\ccgBjMFA.s:2545   .text.add_request:0000000000000000 .LVL299
C:\Users\stapi\AppData\Local\Temp\ccgBjMFA.s:2565   .text.add_request:0000000000000012 .LVL300
C:\Users\stapi\AppData\Local\Temp\ccgBjMFA.s:2567   .text.add_request:0000000000000014 .LVL301
C:\Users\stapi\AppData\Local\Temp\ccgBjMFA.s:2593   .text.add_request:0000000000000040 .LVL304
C:\Users\stapi\AppData\Local\Temp\ccgBjMFA.s:27     .text.get_resource_by_path:0000000000000000 .LVL0
C:\Users\stapi\AppData\Local\Temp\ccgBjMFA.s:63     .text.get_resource_by_path:0000000000000040 .LVL3
C:\Users\stapi\AppData\Local\Temp\ccgBjMFA.s:91     .text.get_resource_by_path:000000000000007e .LVL8
C:\Users\stapi\AppData\Local\Temp\ccgBjMFA.s:105    .text.get_resource_by_path:000000000000008a .LVL9
C:\Users\stapi\AppData\Local\Temp\ccgBjMFA.s:124    .text.get_resource_by_path:000000000000009e .LVL11
C:\Users\stapi\AppData\Local\Temp\ccgBjMFA.s:129    .text.get_resource_by_path:00000000000000a8 .LVL13
C:\Users\stapi\AppData\Local\Temp\ccgBjMFA.s:65     .text.get_resource_by_path:0000000000000042 .LVL4
C:\Users\stapi\AppData\Local\Temp\ccgBjMFA.s:126    .text.get_resource_by_path:00000000000000a2 .LVL12
C:\Users\stapi\AppData\Local\Temp\ccgBjMFA.s:2446   .text.call_cb:0000000000000000 .LVL291
C:\Users\stapi\AppData\Local\Temp\ccgBjMFA.s:2473   .text.call_cb:000000000000001a .LVL294
C:\Users\stapi\AppData\Local\Temp\ccgBjMFA.s:2471   .text.call_cb:0000000000000018 .LVL293
C:\Users\stapi\AppData\Local\Temp\ccgBjMFA.s:2469   .text.call_cb:0000000000000016 .LVL292
C:\Users\stapi\AppData\Local\Temp\ccgBjMFA.s:2501   .text.call_cb:0000000000000046 .LVL297
C:\Users\stapi\AppData\Local\Temp\ccgBjMFA.s:2374   .text.send_err_rsp:0000000000000000 .LVL286
C:\Users\stapi\AppData\Local\Temp\ccgBjMFA.s:2393   .text.send_err_rsp:0000000000000014 .LVL287
C:\Users\stapi\AppData\Local\Temp\ccgBjMFA.s:2396   .text.send_err_rsp:0000000000000018 .LVL288
C:\Users\stapi\AppData\Local\Temp\ccgBjMFA.s:2288   .text.alcs_set_revocation:0000000000000000 .LVL276
C:\Users\stapi\AppData\Local\Temp\ccgBjMFA.s:2302   .text.alcs_set_revocation:0000000000000012 .LVL278
C:\Users\stapi\AppData\Local\Temp\ccgBjMFA.s:2167   .text.alcs_remove_svr_key:0000000000000000 .LVL261
C:\Users\stapi\AppData\Local\Temp\ccgBjMFA.s:2184   .text.alcs_remove_svr_key:0000000000000012 .LVL263
C:\Users\stapi\AppData\Local\Temp\ccgBjMFA.s:2177   .text.alcs_remove_svr_key:0000000000000008 .LVL262
C:\Users\stapi\AppData\Local\Temp\ccgBjMFA.s:2198   .text.alcs_remove_svr_key:0000000000000032 .LVL265
C:\Users\stapi\AppData\Local\Temp\ccgBjMFA.s:2270   .text.alcs_remove_svr_key:0000000000000084 .LVL273
C:\Users\stapi\AppData\Local\Temp\ccgBjMFA.s:2275   .text.alcs_remove_svr_key:000000000000008e .LVL275
C:\Users\stapi\AppData\Local\Temp\ccgBjMFA.s:2200   .text.alcs_remove_svr_key:0000000000000034 .LVL266
C:\Users\stapi\AppData\Local\Temp\ccgBjMFA.s:2272   .text.alcs_remove_svr_key:0000000000000088 .LVL274
C:\Users\stapi\AppData\Local\Temp\ccgBjMFA.s:2239   .text.alcs_remove_svr_key:000000000000005e .LVL270
C:\Users\stapi\AppData\Local\Temp\ccgBjMFA.s:2225   .text.alcs_remove_svr_key:0000000000000058 .LVL269
C:\Users\stapi\AppData\Local\Temp\ccgBjMFA.s:1615   .text.alcs_add_svr_key:0000000000000000 .LVL177
C:\Users\stapi\AppData\Local\Temp\ccgBjMFA.s:1633   .text.alcs_add_svr_key:0000000000000010 .LVL178
C:\Users\stapi\AppData\Local\Temp\ccgBjMFA.s:1799   .text.alcs_add_svr_key:000000000000016e .LVL203
C:\Users\stapi\AppData\Local\Temp\ccgBjMFA.s:1941   .text.alcs_add_svr_key:0000000000000268 .LVL228
C:\Users\stapi\AppData\Local\Temp\ccgBjMFA.s:1948   .text.alcs_add_svr_key:000000000000026a .LVL229
C:\Users\stapi\AppData\Local\Temp\ccgBjMFA.s:1977   .text.alcs_add_svr_key:0000000000000286 .LVL232
C:\Users\stapi\AppData\Local\Temp\ccgBjMFA.s:1987   .text.alcs_add_svr_key:000000000000028e .LVL234
C:\Users\stapi\AppData\Local\Temp\ccgBjMFA.s:1989   .text.alcs_add_svr_key:0000000000000290 .LVL235
C:\Users\stapi\AppData\Local\Temp\ccgBjMFA.s:1802   .text.alcs_add_svr_key:0000000000000172 .LVL204
C:\Users\stapi\AppData\Local\Temp\ccgBjMFA.s:1984   .text.alcs_add_svr_key:0000000000000288 .LVL233
C:\Users\stapi\AppData\Local\Temp\ccgBjMFA.s:1830   .text.alcs_add_svr_key:00000000000001b2 .LVL209
C:\Users\stapi\AppData\Local\Temp\ccgBjMFA.s:1836   .text.alcs_add_svr_key:00000000000001b6 .LVL210
C:\Users\stapi\AppData\Local\Temp\ccgBjMFA.s:1845   .text.alcs_add_svr_key:00000000000001c4 .LVL212
C:\Users\stapi\AppData\Local\Temp\ccgBjMFA.s:1994   .text.alcs_add_svr_key:0000000000000294 .LVL236
C:\Users\stapi\AppData\Local\Temp\ccgBjMFA.s:1712   .text.alcs_add_svr_key:00000000000000c0 .LVL189
C:\Users\stapi\AppData\Local\Temp\ccgBjMFA.s:1752   .text.alcs_add_svr_key:0000000000000104 .LVL194
C:\Users\stapi\AppData\Local\Temp\ccgBjMFA.s:1871   .text.alcs_add_svr_key:00000000000001fa .LVL216
C:\Users\stapi\AppData\Local\Temp\ccgBjMFA.s:1934   .text.alcs_add_svr_key:000000000000025c .LVL225
C:\Users\stapi\AppData\Local\Temp\ccgBjMFA.s:1939   .text.alcs_add_svr_key:0000000000000266 .LVL227
C:\Users\stapi\AppData\Local\Temp\ccgBjMFA.s:1873   .text.alcs_add_svr_key:00000000000001fc .LVL217
C:\Users\stapi\AppData\Local\Temp\ccgBjMFA.s:1936   .text.alcs_add_svr_key:0000000000000260 .LVL226
C:\Users\stapi\AppData\Local\Temp\ccgBjMFA.s:1922   .text.alcs_add_svr_key:000000000000024a .LVL223
C:\Users\stapi\AppData\Local\Temp\ccgBjMFA.s:1908   .text.alcs_add_svr_key:0000000000000244 .LVL222
C:\Users\stapi\AppData\Local\Temp\ccgBjMFA.s:2102   .text.alcs_add_svr_key:000000000000038c .LVL255
C:\Users\stapi\AppData\Local\Temp\ccgBjMFA.s:2120   .text.alcs_add_svr_key:0000000000000398 .LVL256
C:\Users\stapi\AppData\Local\Temp\ccgBjMFA.s:547    .text.alcs_rec_auth:0000000000000000 .LVL56
C:\Users\stapi\AppData\Local\Temp\ccgBjMFA.s:581    .text.alcs_rec_auth:000000000000001c .LVL59
C:\Users\stapi\AppData\Local\Temp\ccgBjMFA.s:573    .text.alcs_rec_auth:0000000000000012 .LVL57
C:\Users\stapi\AppData\Local\Temp\ccgBjMFA.s:579    .text.alcs_rec_auth:000000000000001a .LVL58
C:\Users\stapi\AppData\Local\Temp\ccgBjMFA.s:1356   .text.alcs_rec_auth:000000000000058e .LVL151
C:\Users\stapi\AppData\Local\Temp\ccgBjMFA.s:869    .text.alcs_rec_auth:0000000000000224 .LVL94
C:\Users\stapi\AppData\Local\Temp\ccgBjMFA.s:898    .text.alcs_rec_auth:0000000000000248 .LVL99
C:\Users\stapi\AppData\Local\Temp\ccgBjMFA.s:641    .text.alcs_rec_auth:000000000000009c .LVL66
C:\Users\stapi\AppData\Local\Temp\ccgBjMFA.s:776    .text.alcs_rec_auth:000000000000018a .LVL81
C:\Users\stapi\AppData\Local\Temp\ccgBjMFA.s:842    .text.alcs_rec_auth:00000000000001fe .LVL90
C:\Users\stapi\AppData\Local\Temp\ccgBjMFA.s:852    .text.alcs_rec_auth:0000000000000206 .LVL91
C:\Users\stapi\AppData\Local\Temp\ccgBjMFA.s:838    .text.alcs_rec_auth:00000000000001fc .LVL89
C:\Users\stapi\AppData\Local\Temp\ccgBjMFA.s:861    .text.alcs_rec_auth:000000000000020e .LVL92
C:\Users\stapi\AppData\Local\Temp\ccgBjMFA.s:667    .text.alcs_rec_auth:00000000000000d2 .LVL70
C:\Users\stapi\AppData\Local\Temp\ccgBjMFA.s:674    .text.alcs_rec_auth:00000000000000da .LVL71
C:\Users\stapi\AppData\Local\Temp\ccgBjMFA.s:686    .text.alcs_rec_auth:00000000000000ee .LVL73
C:\Users\stapi\AppData\Local\Temp\ccgBjMFA.s:787    .text.alcs_rec_auth:0000000000000194 .LVL82
C:\Users\stapi\AppData\Local\Temp\ccgBjMFA.s:889    .text.alcs_rec_auth:000000000000023c .LVL97
C:\Users\stapi\AppData\Local\Temp\ccgBjMFA.s:892    .text.alcs_rec_auth:000000000000023e .LVL98
C:\Users\stapi\AppData\Local\Temp\ccgBjMFA.s:997    .text.alcs_rec_auth:000000000000030a .LVL108
C:\Users\stapi\AppData\Local\Temp\ccgBjMFA.s:1001   .text.alcs_rec_auth:000000000000030c .LVL109
C:\Users\stapi\AppData\Local\Temp\ccgBjMFA.s:1188   .text.alcs_rec_auth:000000000000046c .LVL131
C:\Users\stapi\AppData\Local\Temp\ccgBjMFA.s:1340   .text.alcs_rec_auth:000000000000056e .LVL148
C:\Users\stapi\AppData\Local\Temp\ccgBjMFA.s:1450   .text.alcs_rec_auth:0000000000000654 .LVL164
C:\Users\stapi\AppData\Local\Temp\ccgBjMFA.s:1009   .text.alcs_rec_auth:0000000000000322 .LVL111
C:\Users\stapi\AppData\Local\Temp\ccgBjMFA.s:1044   .text.alcs_rec_auth:0000000000000354 .LVL112
C:\Users\stapi\AppData\Local\Temp\ccgBjMFA.s:1198   .text.alcs_rec_auth:0000000000000478 .LVL132
C:\Users\stapi\AppData\Local\Temp\ccgBjMFA.s:1460   .text.alcs_rec_auth:0000000000000660 .LVL165
C:\Users\stapi\AppData\Local\Temp\ccgBjMFA.s:1095   .text.alcs_rec_auth:00000000000003a4 .LVL119
C:\Users\stapi\AppData\Local\Temp\ccgBjMFA.s:1293   .text.alcs_rec_auth:000000000000053e .LVL143
C:\Users\stapi\AppData\Local\Temp\ccgBjMFA.s:1359   .text.alcs_rec_auth:0000000000000590 .LVL152
C:\Users\stapi\AppData\Local\Temp\ccgBjMFA.s:880    .text.alcs_rec_auth:000000000000022e .LVL95
C:\Users\stapi\AppData\Local\Temp\ccgBjMFA.s:1331   .text.alcs_rec_auth:0000000000000564 .LVL146
C:\Users\stapi\AppData\Local\Temp\ccgBjMFA.s:1303   .text.alcs_rec_auth:000000000000054a .LVL145
C:\Users\stapi\AppData\Local\Temp\ccgBjMFA.s:180    .text.is_legal_key:0000000000000000 .LVL15
C:\Users\stapi\AppData\Local\Temp\ccgBjMFA.s:204    .text.is_legal_key:0000000000000012 .LVL16
C:\Users\stapi\AppData\Local\Temp\ccgBjMFA.s:310    .text.is_legal_key:00000000000000de .LVL31
C:\Users\stapi\AppData\Local\Temp\ccgBjMFA.s:322    .text.is_legal_key:00000000000000ee .LVL33
C:\Users\stapi\AppData\Local\Temp\ccgBjMFA.s:368    .text.is_legal_key:0000000000000142 .LVL40
C:\Users\stapi\AppData\Local\Temp\ccgBjMFA.s:383    .text.is_legal_key:000000000000014a .LVL43
C:\Users\stapi\AppData\Local\Temp\ccgBjMFA.s:288    .text.is_legal_key:00000000000000a6 .LVL27
C:\Users\stapi\AppData\Local\Temp\ccgBjMFA.s:376    .text.is_legal_key:0000000000000146 .LVL42
C:\Users\stapi\AppData\Local\Temp\ccgBjMFA.s:263    .text.is_legal_key:000000000000009a .LVL23
C:\Users\stapi\AppData\Local\Temp\ccgBjMFA.s:268    .text.is_legal_key:000000000000009c .LVL24
C:\Users\stapi\AppData\Local\Temp\ccgBjMFA.s:273    .text.is_legal_key:00000000000000a0 .LVL25
C:\Users\stapi\AppData\Local\Temp\ccgBjMFA.s:337    .text.is_legal_key:0000000000000104 .LVL35
C:\Users\stapi\AppData\Local\Temp\ccgBjMFA.s:385    .text.is_legal_key:000000000000014e .LVL44
C:\Users\stapi\AppData\Local\Temp\ccgBjMFA.s:472    .text.is_legal_key:00000000000001e6 .LVL53
C:\Users\stapi\AppData\Local\Temp\ccgBjMFA.s:481    .text.is_legal_key:00000000000001f0 .LVL55
C:\Users\stapi\AppData\Local\Temp\ccgBjMFA.s:390    .text.is_legal_key:0000000000000154 .LVL45
C:\Users\stapi\AppData\Local\Temp\ccgBjMFA.s:478    .text.is_legal_key:00000000000001ea .LVL54
C:\Users\stapi\AppData\Local\Temp\ccgBjMFA.s:4355   .debug_info:0000000000000000 .Ldebug_info0
C:\Users\stapi\AppData\Local\Temp\ccgBjMFA.s:256    .text.is_legal_key:000000000000008e .LBB41
C:\Users\stapi\AppData\Local\Temp\ccgBjMFA.s:275    .text.is_legal_key:00000000000000a0 .LBE41
C:\Users\stapi\AppData\Local\Temp\ccgBjMFA.s:324    .text.is_legal_key:00000000000000ee .LBB45
C:\Users\stapi\AppData\Local\Temp\ccgBjMFA.s:363    .text.is_legal_key:000000000000013e .LBE45
C:\Users\stapi\AppData\Local\Temp\ccgBjMFA.s:370    .text.is_legal_key:0000000000000142 .LBB46
C:\Users\stapi\AppData\Local\Temp\ccgBjMFA.s:378    .text.is_legal_key:0000000000000146 .LBE46
C:\Users\stapi\AppData\Local\Temp\ccgBjMFA.s:314    .text.is_legal_key:00000000000000e0 .LBB44
C:\Users\stapi\AppData\Local\Temp\ccgBjMFA.s:317    .text.is_legal_key:00000000000000e4 .LBE44
C:\Users\stapi\AppData\Local\Temp\ccgBjMFA.s:379    .text.is_legal_key:0000000000000146 .LBB47
C:\Users\stapi\AppData\Local\Temp\ccgBjMFA.s:451    .text.is_legal_key:00000000000001da .LBE47
C:\Users\stapi\AppData\Local\Temp\ccgBjMFA.s:475    .text.is_legal_key:00000000000001e6 .LBB48
C:\Users\stapi\AppData\Local\Temp\ccgBjMFA.s:483    .text.is_legal_key:00000000000001f2 .LBE48
C:\Users\stapi\AppData\Local\Temp\ccgBjMFA.s:614    .text.alcs_rec_auth:0000000000000066 .LBB49
C:\Users\stapi\AppData\Local\Temp\ccgBjMFA.s:701    .text.alcs_rec_auth:0000000000000112 .LBE49
C:\Users\stapi\AppData\Local\Temp\ccgBjMFA.s:779    .text.alcs_rec_auth:000000000000018a .LBB61
C:\Users\stapi\AppData\Local\Temp\ccgBjMFA.s:1563   .text.alcs_rec_auth:000000000000072e .LBE61
C:\Users\stapi\AppData\Local\Temp\ccgBjMFA.s:1313   .text.alcs_rec_auth:0000000000000552 .LBE51
C:\Users\stapi\AppData\Local\Temp\ccgBjMFA.s:1316   .text.alcs_rec_auth:0000000000000556 .LBB59
C:\Users\stapi\AppData\Local\Temp\ccgBjMFA.s:1335   .text.alcs_rec_auth:0000000000000564 .LBE59
C:\Users\stapi\AppData\Local\Temp\ccgBjMFA.s:1555   .text.alcs_rec_auth:0000000000000728 .LBB60
C:\Users\stapi\AppData\Local\Temp\ccgBjMFA.s:1562   .text.alcs_rec_auth:000000000000072e .LBE60
C:\Users\stapi\AppData\Local\Temp\ccgBjMFA.s:1311   .text.alcs_rec_auth:0000000000000552 .LBE53
C:\Users\stapi\AppData\Local\Temp\ccgBjMFA.s:1318   .text.alcs_rec_auth:0000000000000556 .LBB56
C:\Users\stapi\AppData\Local\Temp\ccgBjMFA.s:1333   .text.alcs_rec_auth:0000000000000564 .LBE56
C:\Users\stapi\AppData\Local\Temp\ccgBjMFA.s:1960   .text.alcs_add_svr_key:000000000000027c .LBE74
C:\Users\stapi\AppData\Local\Temp\ccgBjMFA.s:1980   .text.alcs_add_svr_key:0000000000000286 .LBB93
C:\Users\stapi\AppData\Local\Temp\ccgBjMFA.s:2155   .text.alcs_add_svr_key:00000000000003d8 .LBE93
C:\Users\stapi\AppData\Local\Temp\ccgBjMFA.s:1775   .text.alcs_add_svr_key:0000000000000136 .LBE76
C:\Users\stapi\AppData\Local\Temp\ccgBjMFA.s:1847   .text.alcs_add_svr_key:00000000000001c4 .LBB85
C:\Users\stapi\AppData\Local\Temp\ccgBjMFA.s:1944   .text.alcs_add_svr_key:0000000000000268 .LBE85
C:\Users\stapi\AppData\Local\Temp\ccgBjMFA.s:1912   .text.alcs_add_svr_key:0000000000000244 .LBE80
C:\Users\stapi\AppData\Local\Temp\ccgBjMFA.s:1915   .text.alcs_add_svr_key:0000000000000246 .LBB83
C:\Users\stapi\AppData\Local\Temp\ccgBjMFA.s:1924   .text.alcs_add_svr_key:000000000000024a .LBE83
C:\Users\stapi\AppData\Local\Temp\ccgBjMFA.s:2099   .text.alcs_add_svr_key:0000000000000388 .LBE86
C:\Users\stapi\AppData\Local\Temp\ccgBjMFA.s:2103   .text.alcs_add_svr_key:000000000000038c .LBB91
C:\Users\stapi\AppData\Local\Temp\ccgBjMFA.s:2124   .text.alcs_add_svr_key:0000000000000398 .LBE91
C:\Users\stapi\AppData\Local\Temp\ccgBjMFA.s:2229   .text.alcs_remove_svr_key:0000000000000058 .LBE96
C:\Users\stapi\AppData\Local\Temp\ccgBjMFA.s:2232   .text.alcs_remove_svr_key:000000000000005a .LBB99
C:\Users\stapi\AppData\Local\Temp\ccgBjMFA.s:2241   .text.alcs_remove_svr_key:000000000000005e .LBE99
C:\Users\stapi\AppData\Local\Temp\ccgBjMFA.s:2756   .text.p2p_msg_handler:0000000000000048 .LBB102
C:\Users\stapi\AppData\Local\Temp\ccgBjMFA.s:2818   .text.p2p_msg_handler:00000000000000c4 .LBE102
C:\Users\stapi\AppData\Local\Temp\ccgBjMFA.s:2827   .text.p2p_msg_handler:00000000000000d6 .LBB105
C:\Users\stapi\AppData\Local\Temp\ccgBjMFA.s:2861   .text.p2p_msg_handler:000000000000011c .LBE105
C:\Users\stapi\AppData\Local\Temp\ccgBjMFA.s:2886   .text.p2p_msg_handler:0000000000000154 .LBB106
C:\Users\stapi\AppData\Local\Temp\ccgBjMFA.s:3022   .text.p2p_msg_handler:0000000000000248 .LBE106
C:\Users\stapi\AppData\Local\Temp\ccgBjMFA.s:3349   .text.alcs_resource_register_secure:00000000000001e4 .LBE107
C:\Users\stapi\AppData\Local\Temp\ccgBjMFA.s:3353   .text.alcs_resource_register_secure:00000000000001e8 .LBB112
C:\Users\stapi\AppData\Local\Temp\ccgBjMFA.s:3375   .text.alcs_resource_register_secure:00000000000001f4 .LBE112
C:\Users\stapi\AppData\Local\Temp\ccgBjMFA.s:3587   .text.alcs_auth_list_deinit:0000000000000068 .LBE121
C:\Users\stapi\AppData\Local\Temp\ccgBjMFA.s:3590   .text.alcs_auth_list_deinit:000000000000006a .LBB124
C:\Users\stapi\AppData\Local\Temp\ccgBjMFA.s:3599   .text.alcs_auth_list_deinit:000000000000006e .LBE124

UNDEFINED SYMBOLS
__riscv_save_4
strlen
CoAPPathMD5_sum
secure_resource_cb_head
HAL_Printf
__riscv_restore_4
memcmp
CoAPResource_topicFilterMatch
__riscv_save_12
_device
LITE_syslog
HAL_MutexLock
HAL_MutexUnlock
strncmp
__riscv_restore_12
memset
req_payload_parser
json_get_value_by_name
snprintf
alcs_msg_init
alcs_sendrsp
utils_hmac_sha1_base64
atoi
memcpy
remove_session_safe
LITE_malloc_internal
gen_random_key
sessionid_seed
strncpy
strncat
utils_hmac_sha1_raw
HAL_UptimeMs
__riscv_save_10
LITE_free_internal
__riscv_restore_10
strcpy
__riscv_save_5
strcmp
__riscv_restore_5
__riscv_save_3
__riscv_restore_3
__riscv_save_7
alcs_decrypt
__riscv_restore_7
__riscv_save_6
CoAPUintOption_get
add_request_to_list
__riscv_restore_6
__riscv_save_8
get_session_by_checksum
get_message_sessionid
CoAPMessageCheckDup
seqwindow_accept
CoAPObsServer_add
utils_md5
__riscv_restore_8
strstr
CoAPResource_register
internal_secure_send
alcs_msg_deinit
is_networkadd_same
alcs_encrypt
CoAPUintOption_add
__riscv_save_9
__riscv_restore_9
remove_request
remove_session
