   1              		.file	"alcs_coap.c"
   2              		.option nopic
   3              		.attribute arch, "rv32i2p0_m2p0_a2p0_f2p0_c2p0_b_p0p94"
   4              		.attribute unaligned_access, 0
   5              		.attribute stack_align, 16
   6              		.text
   7              	.Ltext0:
   8              		.cfi_sections	.debug_frame
   9              		.section	.text.do_sendmsg,"ax",@progbits
  10              		.align	1
  12              	do_sendmsg:
  13              	.LFB23:
  14              		.file 1 "C:/Users/stapi/OneDrive/Desktop/GD32VW553/V1_MQTT_OK/GD32VW55X_Wifi_BLE_SDK/GD32VW55x_REL
   1:C:/Users/stapi/OneDrive/Desktop/GD32VW553/V1_MQTT_OK/GD32VW55X_Wifi_BLE_SDK/GD32VW55x_RELEASE_V1.0.2/MSDK/cloud/alicloud/src/protocol/alcs\alcs_coap.c **** /*
   2:C:/Users/stapi/OneDrive/Desktop/GD32VW553/V1_MQTT_OK/GD32VW55X_Wifi_BLE_SDK/GD32VW55x_RELEASE_V1.0.2/MSDK/cloud/alicloud/src/protocol/alcs\alcs_coap.c ****  * Copyright (C) 2015-2018 Alibaba Group Holding Limited
   3:C:/Users/stapi/OneDrive/Desktop/GD32VW553/V1_MQTT_OK/GD32VW55X_Wifi_BLE_SDK/GD32VW55x_RELEASE_V1.0.2/MSDK/cloud/alicloud/src/protocol/alcs\alcs_coap.c ****  */
   4:C:/Users/stapi/OneDrive/Desktop/GD32VW553/V1_MQTT_OK/GD32VW55X_Wifi_BLE_SDK/GD32VW55x_RELEASE_V1.0.2/MSDK/cloud/alicloud/src/protocol/alcs\alcs_coap.c **** 
   5:C:/Users/stapi/OneDrive/Desktop/GD32VW553/V1_MQTT_OK/GD32VW55X_Wifi_BLE_SDK/GD32VW55x_RELEASE_V1.0.2/MSDK/cloud/alicloud/src/protocol/alcs\alcs_coap.c **** #include <stdio.h>
   6:C:/Users/stapi/OneDrive/Desktop/GD32VW553/V1_MQTT_OK/GD32VW55X_Wifi_BLE_SDK/GD32VW55x_RELEASE_V1.0.2/MSDK/cloud/alicloud/src/protocol/alcs\alcs_coap.c **** #include <string.h>
   7:C:/Users/stapi/OneDrive/Desktop/GD32VW553/V1_MQTT_OK/GD32VW55X_Wifi_BLE_SDK/GD32VW55x_RELEASE_V1.0.2/MSDK/cloud/alicloud/src/protocol/alcs\alcs_coap.c **** #include "alcs_coap.h"
   8:C:/Users/stapi/OneDrive/Desktop/GD32VW553/V1_MQTT_OK/GD32VW55X_Wifi_BLE_SDK/GD32VW55x_RELEASE_V1.0.2/MSDK/cloud/alicloud/src/protocol/alcs\alcs_coap.c **** #include "iot_import.h"
   9:C:/Users/stapi/OneDrive/Desktop/GD32VW553/V1_MQTT_OK/GD32VW55X_Wifi_BLE_SDK/GD32VW55x_RELEASE_V1.0.2/MSDK/cloud/alicloud/src/protocol/alcs\alcs_coap.c **** #include "CoAPPlatform.h"
  10:C:/Users/stapi/OneDrive/Desktop/GD32VW553/V1_MQTT_OK/GD32VW55X_Wifi_BLE_SDK/GD32VW55x_RELEASE_V1.0.2/MSDK/cloud/alicloud/src/protocol/alcs\alcs_coap.c **** #include "CoAPResource.h"
  11:C:/Users/stapi/OneDrive/Desktop/GD32VW553/V1_MQTT_OK/GD32VW55X_Wifi_BLE_SDK/GD32VW55x_RELEASE_V1.0.2/MSDK/cloud/alicloud/src/protocol/alcs\alcs_coap.c **** #include "alcs_api_internal.h"
  12:C:/Users/stapi/OneDrive/Desktop/GD32VW553/V1_MQTT_OK/GD32VW55X_Wifi_BLE_SDK/GD32VW55x_RELEASE_V1.0.2/MSDK/cloud/alicloud/src/protocol/alcs\alcs_coap.c **** #include "CoAPServer.h"
  13:C:/Users/stapi/OneDrive/Desktop/GD32VW553/V1_MQTT_OK/GD32VW55X_Wifi_BLE_SDK/GD32VW55x_RELEASE_V1.0.2/MSDK/cloud/alicloud/src/protocol/alcs\alcs_coap.c **** #include "lite-list.h"
  14:C:/Users/stapi/OneDrive/Desktop/GD32VW553/V1_MQTT_OK/GD32VW55X_Wifi_BLE_SDK/GD32VW55x_RELEASE_V1.0.2/MSDK/cloud/alicloud/src/protocol/alcs\alcs_coap.c **** #include "alcs_adapter.h"
  15:C:/Users/stapi/OneDrive/Desktop/GD32VW553/V1_MQTT_OK/GD32VW55X_Wifi_BLE_SDK/GD32VW55x_RELEASE_V1.0.2/MSDK/cloud/alicloud/src/protocol/alcs\alcs_coap.c **** 
  16:C:/Users/stapi/OneDrive/Desktop/GD32VW553/V1_MQTT_OK/GD32VW55X_Wifi_BLE_SDK/GD32VW55x_RELEASE_V1.0.2/MSDK/cloud/alicloud/src/protocol/alcs\alcs_coap.c **** #define MAX_PATH_CHECKSUM_LEN (5)
  17:C:/Users/stapi/OneDrive/Desktop/GD32VW553/V1_MQTT_OK/GD32VW55X_Wifi_BLE_SDK/GD32VW55x_RELEASE_V1.0.2/MSDK/cloud/alicloud/src/protocol/alcs\alcs_coap.c **** typedef struct
  18:C:/Users/stapi/OneDrive/Desktop/GD32VW553/V1_MQTT_OK/GD32VW55X_Wifi_BLE_SDK/GD32VW55x_RELEASE_V1.0.2/MSDK/cloud/alicloud/src/protocol/alcs\alcs_coap.c **** {
  19:C:/Users/stapi/OneDrive/Desktop/GD32VW553/V1_MQTT_OK/GD32VW55X_Wifi_BLE_SDK/GD32VW55x_RELEASE_V1.0.2/MSDK/cloud/alicloud/src/protocol/alcs\alcs_coap.c ****     char               path[MAX_PATH_CHECKSUM_LEN];
  20:C:/Users/stapi/OneDrive/Desktop/GD32VW553/V1_MQTT_OK/GD32VW55X_Wifi_BLE_SDK/GD32VW55x_RELEASE_V1.0.2/MSDK/cloud/alicloud/src/protocol/alcs\alcs_coap.c ****     CoAPRecvMsgHandler cb;
  21:C:/Users/stapi/OneDrive/Desktop/GD32VW553/V1_MQTT_OK/GD32VW55X_Wifi_BLE_SDK/GD32VW55x_RELEASE_V1.0.2/MSDK/cloud/alicloud/src/protocol/alcs\alcs_coap.c ****     struct list_head   lst;
  22:C:/Users/stapi/OneDrive/Desktop/GD32VW553/V1_MQTT_OK/GD32VW55X_Wifi_BLE_SDK/GD32VW55x_RELEASE_V1.0.2/MSDK/cloud/alicloud/src/protocol/alcs\alcs_coap.c **** } resource_cb_item;
  23:C:/Users/stapi/OneDrive/Desktop/GD32VW553/V1_MQTT_OK/GD32VW55X_Wifi_BLE_SDK/GD32VW55x_RELEASE_V1.0.2/MSDK/cloud/alicloud/src/protocol/alcs\alcs_coap.c **** 
  24:C:/Users/stapi/OneDrive/Desktop/GD32VW553/V1_MQTT_OK/GD32VW55X_Wifi_BLE_SDK/GD32VW55x_RELEASE_V1.0.2/MSDK/cloud/alicloud/src/protocol/alcs\alcs_coap.c **** LIST_HEAD(resource_cb_head);
  25:C:/Users/stapi/OneDrive/Desktop/GD32VW553/V1_MQTT_OK/GD32VW55X_Wifi_BLE_SDK/GD32VW55x_RELEASE_V1.0.2/MSDK/cloud/alicloud/src/protocol/alcs\alcs_coap.c **** 
  26:C:/Users/stapi/OneDrive/Desktop/GD32VW553/V1_MQTT_OK/GD32VW55X_Wifi_BLE_SDK/GD32VW55x_RELEASE_V1.0.2/MSDK/cloud/alicloud/src/protocol/alcs\alcs_coap.c **** static uint32_t tokenSeed = 0;
  27:C:/Users/stapi/OneDrive/Desktop/GD32VW553/V1_MQTT_OK/GD32VW55X_Wifi_BLE_SDK/GD32VW55x_RELEASE_V1.0.2/MSDK/cloud/alicloud/src/protocol/alcs\alcs_coap.c **** uint32_t getToken ()
  28:C:/Users/stapi/OneDrive/Desktop/GD32VW553/V1_MQTT_OK/GD32VW55X_Wifi_BLE_SDK/GD32VW55x_RELEASE_V1.0.2/MSDK/cloud/alicloud/src/protocol/alcs\alcs_coap.c **** {
  29:C:/Users/stapi/OneDrive/Desktop/GD32VW553/V1_MQTT_OK/GD32VW55X_Wifi_BLE_SDK/GD32VW55x_RELEASE_V1.0.2/MSDK/cloud/alicloud/src/protocol/alcs\alcs_coap.c **** 	if (tokenSeed == 0) {
  30:C:/Users/stapi/OneDrive/Desktop/GD32VW553/V1_MQTT_OK/GD32VW55X_Wifi_BLE_SDK/GD32VW55x_RELEASE_V1.0.2/MSDK/cloud/alicloud/src/protocol/alcs\alcs_coap.c **** 		HAL_Srandom ((uint32_t)HAL_UptimeMs());
  31:C:/Users/stapi/OneDrive/Desktop/GD32VW553/V1_MQTT_OK/GD32VW55X_Wifi_BLE_SDK/GD32VW55x_RELEASE_V1.0.2/MSDK/cloud/alicloud/src/protocol/alcs\alcs_coap.c **** 		tokenSeed = HAL_Random (0xffffffff);
  32:C:/Users/stapi/OneDrive/Desktop/GD32VW553/V1_MQTT_OK/GD32VW55X_Wifi_BLE_SDK/GD32VW55x_RELEASE_V1.0.2/MSDK/cloud/alicloud/src/protocol/alcs\alcs_coap.c **** 	} else {
  33:C:/Users/stapi/OneDrive/Desktop/GD32VW553/V1_MQTT_OK/GD32VW55X_Wifi_BLE_SDK/GD32VW55x_RELEASE_V1.0.2/MSDK/cloud/alicloud/src/protocol/alcs\alcs_coap.c **** 		++tokenSeed;
  34:C:/Users/stapi/OneDrive/Desktop/GD32VW553/V1_MQTT_OK/GD32VW55X_Wifi_BLE_SDK/GD32VW55x_RELEASE_V1.0.2/MSDK/cloud/alicloud/src/protocol/alcs\alcs_coap.c **** 	}
  35:C:/Users/stapi/OneDrive/Desktop/GD32VW553/V1_MQTT_OK/GD32VW55X_Wifi_BLE_SDK/GD32VW55x_RELEASE_V1.0.2/MSDK/cloud/alicloud/src/protocol/alcs\alcs_coap.c **** 
  36:C:/Users/stapi/OneDrive/Desktop/GD32VW553/V1_MQTT_OK/GD32VW55X_Wifi_BLE_SDK/GD32VW55x_RELEASE_V1.0.2/MSDK/cloud/alicloud/src/protocol/alcs\alcs_coap.c **** 	return tokenSeed;
  37:C:/Users/stapi/OneDrive/Desktop/GD32VW553/V1_MQTT_OK/GD32VW55X_Wifi_BLE_SDK/GD32VW55x_RELEASE_V1.0.2/MSDK/cloud/alicloud/src/protocol/alcs\alcs_coap.c **** }
  38:C:/Users/stapi/OneDrive/Desktop/GD32VW553/V1_MQTT_OK/GD32VW55X_Wifi_BLE_SDK/GD32VW55x_RELEASE_V1.0.2/MSDK/cloud/alicloud/src/protocol/alcs\alcs_coap.c **** 
  39:C:/Users/stapi/OneDrive/Desktop/GD32VW553/V1_MQTT_OK/GD32VW55X_Wifi_BLE_SDK/GD32VW55x_RELEASE_V1.0.2/MSDK/cloud/alicloud/src/protocol/alcs\alcs_coap.c **** void alcs_msg_init(CoAPContext *ctx, CoAPMessage *message, int code, unsigned char type,
  40:C:/Users/stapi/OneDrive/Desktop/GD32VW553/V1_MQTT_OK/GD32VW55X_Wifi_BLE_SDK/GD32VW55x_RELEASE_V1.0.2/MSDK/cloud/alicloud/src/protocol/alcs\alcs_coap.c **** 	int keep, CoAPLenString *payload, void *userdata)
  41:C:/Users/stapi/OneDrive/Desktop/GD32VW553/V1_MQTT_OK/GD32VW55X_Wifi_BLE_SDK/GD32VW55x_RELEASE_V1.0.2/MSDK/cloud/alicloud/src/protocol/alcs\alcs_coap.c **** {
  42:C:/Users/stapi/OneDrive/Desktop/GD32VW553/V1_MQTT_OK/GD32VW55X_Wifi_BLE_SDK/GD32VW55x_RELEASE_V1.0.2/MSDK/cloud/alicloud/src/protocol/alcs\alcs_coap.c ****     CoAPMessage_init (message);
  43:C:/Users/stapi/OneDrive/Desktop/GD32VW553/V1_MQTT_OK/GD32VW55X_Wifi_BLE_SDK/GD32VW55x_RELEASE_V1.0.2/MSDK/cloud/alicloud/src/protocol/alcs\alcs_coap.c **** 	message->header.code = code;
  44:C:/Users/stapi/OneDrive/Desktop/GD32VW553/V1_MQTT_OK/GD32VW55X_Wifi_BLE_SDK/GD32VW55x_RELEASE_V1.0.2/MSDK/cloud/alicloud/src/protocol/alcs\alcs_coap.c **** 	message->header.type = type;
  45:C:/Users/stapi/OneDrive/Desktop/GD32VW553/V1_MQTT_OK/GD32VW55X_Wifi_BLE_SDK/GD32VW55x_RELEASE_V1.0.2/MSDK/cloud/alicloud/src/protocol/alcs\alcs_coap.c **** 	message->user = userdata;
  46:C:/Users/stapi/OneDrive/Desktop/GD32VW553/V1_MQTT_OK/GD32VW55X_Wifi_BLE_SDK/GD32VW55x_RELEASE_V1.0.2/MSDK/cloud/alicloud/src/protocol/alcs\alcs_coap.c **** 	message->payload = payload->data;
  47:C:/Users/stapi/OneDrive/Desktop/GD32VW553/V1_MQTT_OK/GD32VW55X_Wifi_BLE_SDK/GD32VW55x_RELEASE_V1.0.2/MSDK/cloud/alicloud/src/protocol/alcs\alcs_coap.c **** 	message->payloadlen = payload->len;
  48:C:/Users/stapi/OneDrive/Desktop/GD32VW553/V1_MQTT_OK/GD32VW55X_Wifi_BLE_SDK/GD32VW55x_RELEASE_V1.0.2/MSDK/cloud/alicloud/src/protocol/alcs\alcs_coap.c ****     message->keep = keep;
  49:C:/Users/stapi/OneDrive/Desktop/GD32VW553/V1_MQTT_OK/GD32VW55X_Wifi_BLE_SDK/GD32VW55x_RELEASE_V1.0.2/MSDK/cloud/alicloud/src/protocol/alcs\alcs_coap.c **** 
  50:C:/Users/stapi/OneDrive/Desktop/GD32VW553/V1_MQTT_OK/GD32VW55X_Wifi_BLE_SDK/GD32VW55x_RELEASE_V1.0.2/MSDK/cloud/alicloud/src/protocol/alcs\alcs_coap.c **** 	message->header.msgid = CoAPMessageId_gen (ctx);
  51:C:/Users/stapi/OneDrive/Desktop/GD32VW553/V1_MQTT_OK/GD32VW55X_Wifi_BLE_SDK/GD32VW55x_RELEASE_V1.0.2/MSDK/cloud/alicloud/src/protocol/alcs\alcs_coap.c **** 	message->header.tokenlen = 4;
  52:C:/Users/stapi/OneDrive/Desktop/GD32VW553/V1_MQTT_OK/GD32VW55X_Wifi_BLE_SDK/GD32VW55x_RELEASE_V1.0.2/MSDK/cloud/alicloud/src/protocol/alcs\alcs_coap.c **** 	uint32_t token = getToken ();
  53:C:/Users/stapi/OneDrive/Desktop/GD32VW553/V1_MQTT_OK/GD32VW55X_Wifi_BLE_SDK/GD32VW55x_RELEASE_V1.0.2/MSDK/cloud/alicloud/src/protocol/alcs\alcs_coap.c **** 	memcpy (&message->token, &token, 4);
  54:C:/Users/stapi/OneDrive/Desktop/GD32VW553/V1_MQTT_OK/GD32VW55X_Wifi_BLE_SDK/GD32VW55x_RELEASE_V1.0.2/MSDK/cloud/alicloud/src/protocol/alcs\alcs_coap.c **** }
  55:C:/Users/stapi/OneDrive/Desktop/GD32VW553/V1_MQTT_OK/GD32VW55X_Wifi_BLE_SDK/GD32VW55x_RELEASE_V1.0.2/MSDK/cloud/alicloud/src/protocol/alcs\alcs_coap.c **** 
  56:C:/Users/stapi/OneDrive/Desktop/GD32VW553/V1_MQTT_OK/GD32VW55X_Wifi_BLE_SDK/GD32VW55x_RELEASE_V1.0.2/MSDK/cloud/alicloud/src/protocol/alcs\alcs_coap.c **** void alcs_msg_deinit(CoAPMessage *message)
  57:C:/Users/stapi/OneDrive/Desktop/GD32VW553/V1_MQTT_OK/GD32VW55X_Wifi_BLE_SDK/GD32VW55x_RELEASE_V1.0.2/MSDK/cloud/alicloud/src/protocol/alcs\alcs_coap.c **** {
  58:C:/Users/stapi/OneDrive/Desktop/GD32VW553/V1_MQTT_OK/GD32VW55X_Wifi_BLE_SDK/GD32VW55x_RELEASE_V1.0.2/MSDK/cloud/alicloud/src/protocol/alcs\alcs_coap.c **** 	CoAPMessage_destory (message);
  59:C:/Users/stapi/OneDrive/Desktop/GD32VW553/V1_MQTT_OK/GD32VW55X_Wifi_BLE_SDK/GD32VW55x_RELEASE_V1.0.2/MSDK/cloud/alicloud/src/protocol/alcs\alcs_coap.c **** }
  60:C:/Users/stapi/OneDrive/Desktop/GD32VW553/V1_MQTT_OK/GD32VW55X_Wifi_BLE_SDK/GD32VW55x_RELEASE_V1.0.2/MSDK/cloud/alicloud/src/protocol/alcs\alcs_coap.c **** 
  61:C:/Users/stapi/OneDrive/Desktop/GD32VW553/V1_MQTT_OK/GD32VW55X_Wifi_BLE_SDK/GD32VW55x_RELEASE_V1.0.2/MSDK/cloud/alicloud/src/protocol/alcs\alcs_coap.c **** static int do_sendmsg (CoAPContext *context, NetworkAddr* addr, CoAPMessage *message, char observe,
  62:C:/Users/stapi/OneDrive/Desktop/GD32VW553/V1_MQTT_OK/GD32VW55X_Wifi_BLE_SDK/GD32VW55x_RELEASE_V1.0.2/MSDK/cloud/alicloud/src/protocol/alcs\alcs_coap.c **** {
  15              		.loc 1 62 1
  16              		.cfi_startproc
  17              	.LVL0:
  18 0000 17030000 		call	t0,__riscv_save_6
  18      E7020300 
  19              		.cfi_offset 21, -28
  20              		.cfi_offset 20, -24
  21              		.cfi_offset 19, -20
  22              		.cfi_offset 18, -16
  23              		.cfi_offset 9, -12
  24              		.cfi_offset 8, -8
  25              		.cfi_offset 1, -4
  26              		.cfi_def_cfa_offset 32
  63:C:/Users/stapi/OneDrive/Desktop/GD32VW553/V1_MQTT_OK/GD32VW55X_Wifi_BLE_SDK/GD32VW55x_RELEASE_V1.0.2/MSDK/cloud/alicloud/src/protocol/alcs\alcs_coap.c ****     int ret = COAP_SUCCESS;
  27              		.loc 1 63 5
  28              	.LVL1:
  64:C:/Users/stapi/OneDrive/Desktop/GD32VW553/V1_MQTT_OK/GD32VW55X_Wifi_BLE_SDK/GD32VW55x_RELEASE_V1.0.2/MSDK/cloud/alicloud/src/protocol/alcs\alcs_coap.c ****     if (!context || !addr || !message) {
  29              		.loc 1 64 5
  65:C:/Users/stapi/OneDrive/Desktop/GD32VW553/V1_MQTT_OK/GD32VW55X_Wifi_BLE_SDK/GD32VW55x_RELEASE_V1.0.2/MSDK/cloud/alicloud/src/protocol/alcs\alcs_coap.c ****         return COAP_ERROR_NULL;
  30              		.loc 1 65 16 is_stmt 0
  31 0008 93042010 		li	s1,258
  64:C:/Users/stapi/OneDrive/Desktop/GD32VW553/V1_MQTT_OK/GD32VW55X_Wifi_BLE_SDK/GD32VW55x_RELEASE_V1.0.2/MSDK/cloud/alicloud/src/protocol/alcs\alcs_coap.c ****     if (!context || !addr || !message) {
  32              		.loc 1 64 8
  33 000c 3DC9     		beq	a0,zero,.L1
  34 000e 2E8A     		mv	s4,a1
  35              		.loc 1 65 16 discriminator 1
  36 0010 93042010 		li	s1,258
  64:C:/Users/stapi/OneDrive/Desktop/GD32VW553/V1_MQTT_OK/GD32VW55X_Wifi_BLE_SDK/GD32VW55x_RELEASE_V1.0.2/MSDK/cloud/alicloud/src/protocol/alcs\alcs_coap.c ****     if (!context || !addr || !message) {
  37              		.loc 1 64 18 discriminator 1
  38 0014 BDC5     		beq	a1,zero,.L1
  39 0016 3284     		mv	s0,a2
  64:C:/Users/stapi/OneDrive/Desktop/GD32VW553/V1_MQTT_OK/GD32VW55X_Wifi_BLE_SDK/GD32VW55x_RELEASE_V1.0.2/MSDK/cloud/alicloud/src/protocol/alcs\alcs_coap.c ****     if (!context || !addr || !message) {
  40              		.loc 1 64 27 discriminator 2
  41 0018 2DC6     		beq	a2,zero,.L1
  42 001a AA89     		mv	s3,a0
  43 001c B68A     		mv	s5,a3
  44 001e 3E89     		mv	s2,a5
  66:C:/Users/stapi/OneDrive/Desktop/GD32VW553/V1_MQTT_OK/GD32VW55X_Wifi_BLE_SDK/GD32VW55x_RELEASE_V1.0.2/MSDK/cloud/alicloud/src/protocol/alcs\alcs_coap.c ****     }
  67:C:/Users/stapi/OneDrive/Desktop/GD32VW553/V1_MQTT_OK/GD32VW55X_Wifi_BLE_SDK/GD32VW55x_RELEASE_V1.0.2/MSDK/cloud/alicloud/src/protocol/alcs\alcs_coap.c **** 
  68:C:/Users/stapi/OneDrive/Desktop/GD32VW553/V1_MQTT_OK/GD32VW55X_Wifi_BLE_SDK/GD32VW55x_RELEASE_V1.0.2/MSDK/cloud/alicloud/src/protocol/alcs\alcs_coap.c ****     if (msgid == 0) {
  45              		.loc 1 68 5 is_stmt 1
  46              		.loc 1 68 8 is_stmt 0
  47 0020 35E7     		bne	a4,zero,.L3
  69:C:/Users/stapi/OneDrive/Desktop/GD32VW553/V1_MQTT_OK/GD32VW55X_Wifi_BLE_SDK/GD32VW55x_RELEASE_V1.0.2/MSDK/cloud/alicloud/src/protocol/alcs\alcs_coap.c ****         message->header.msgid = CoAPMessageId_gen (context);
  48              		.loc 1 69 9 is_stmt 1
  49              		.loc 1 69 33 is_stmt 0
  50 0022 97000000 		call	CoAPMessageId_gen
  50      E7800000 
  51              	.LVL2:
  52              		.loc 1 69 31
  53 002a 2311A400 		sh	a0,2(s0)
  54              	.L4:
  70:C:/Users/stapi/OneDrive/Desktop/GD32VW553/V1_MQTT_OK/GD32VW55X_Wifi_BLE_SDK/GD32VW55x_RELEASE_V1.0.2/MSDK/cloud/alicloud/src/protocol/alcs\alcs_coap.c ****     } else {
  71:C:/Users/stapi/OneDrive/Desktop/GD32VW553/V1_MQTT_OK/GD32VW55X_Wifi_BLE_SDK/GD32VW55x_RELEASE_V1.0.2/MSDK/cloud/alicloud/src/protocol/alcs\alcs_coap.c ****         message->header.msgid = msgid;
  72:C:/Users/stapi/OneDrive/Desktop/GD32VW553/V1_MQTT_OK/GD32VW55X_Wifi_BLE_SDK/GD32VW55x_RELEASE_V1.0.2/MSDK/cloud/alicloud/src/protocol/alcs\alcs_coap.c ****     }
  73:C:/Users/stapi/OneDrive/Desktop/GD32VW553/V1_MQTT_OK/GD32VW55X_Wifi_BLE_SDK/GD32VW55x_RELEASE_V1.0.2/MSDK/cloud/alicloud/src/protocol/alcs\alcs_coap.c **** 
  74:C:/Users/stapi/OneDrive/Desktop/GD32VW553/V1_MQTT_OK/GD32VW55X_Wifi_BLE_SDK/GD32VW55x_RELEASE_V1.0.2/MSDK/cloud/alicloud/src/protocol/alcs\alcs_coap.c ****     if (observe == 0) {
  55              		.loc 1 74 5 is_stmt 1
  56              		.loc 1 74 8 is_stmt 0
  57 002e 63990A00 		bne	s5,zero,.L5
  75:C:/Users/stapi/OneDrive/Desktop/GD32VW553/V1_MQTT_OK/GD32VW55X_Wifi_BLE_SDK/GD32VW55x_RELEASE_V1.0.2/MSDK/cloud/alicloud/src/protocol/alcs\alcs_coap.c ****         CoAPUintOption_add (message, COAP_OPTION_OBSERVE, observe);
  58              		.loc 1 75 9 is_stmt 1
  59 0032 0146     		li	a2,0
  60 0034 9945     		li	a1,6
  61 0036 2285     		mv	a0,s0
  62 0038 97000000 		call	CoAPUintOption_add
  62      E7800000 
  63              	.LVL3:
  64              	.L5:
  76:C:/Users/stapi/OneDrive/Desktop/GD32VW553/V1_MQTT_OK/GD32VW55X_Wifi_BLE_SDK/GD32VW55x_RELEASE_V1.0.2/MSDK/cloud/alicloud/src/protocol/alcs\alcs_coap.c ****     }
  77:C:/Users/stapi/OneDrive/Desktop/GD32VW553/V1_MQTT_OK/GD32VW55X_Wifi_BLE_SDK/GD32VW55x_RELEASE_V1.0.2/MSDK/cloud/alicloud/src/protocol/alcs\alcs_coap.c **** 
  78:C:/Users/stapi/OneDrive/Desktop/GD32VW553/V1_MQTT_OK/GD32VW55X_Wifi_BLE_SDK/GD32VW55x_RELEASE_V1.0.2/MSDK/cloud/alicloud/src/protocol/alcs\alcs_coap.c ****     if (token) {
  65              		.loc 1 78 5
  66              		.loc 1 78 8 is_stmt 0
  67 0040 63040902 		beq	s2,zero,.L6
  79:C:/Users/stapi/OneDrive/Desktop/GD32VW553/V1_MQTT_OK/GD32VW55X_Wifi_BLE_SDK/GD32VW55x_RELEASE_V1.0.2/MSDK/cloud/alicloud/src/protocol/alcs\alcs_coap.c ****         message->header.tokenlen = token->len;
  68              		.loc 1 79 9 is_stmt 1
  69              		.loc 1 79 41 is_stmt 0
  70 0044 03260900 		lw	a2,0(s2)
  71              		.loc 1 79 34
  72 0048 83470400 		lbu	a5,0(s0)
  80:C:/Users/stapi/OneDrive/Desktop/GD32VW553/V1_MQTT_OK/GD32VW55X_Wifi_BLE_SDK/GD32VW55x_RELEASE_V1.0.2/MSDK/cloud/alicloud/src/protocol/alcs\alcs_coap.c ****         memcpy (&message->token, token->data, token->len);
  73              		.loc 1 80 9
  74 004c 83254900 		lw	a1,4(s2)
  79:C:/Users/stapi/OneDrive/Desktop/GD32VW553/V1_MQTT_OK/GD32VW55X_Wifi_BLE_SDK/GD32VW55x_RELEASE_V1.0.2/MSDK/cloud/alicloud/src/protocol/alcs\alcs_coap.c ****         message->header.tokenlen = token->len;
  75              		.loc 1 79 34
  76 0050 13174600 		slli	a4,a2,4
  77 0054 BD8B     		andi	a5,a5,15
  78 0056 D98F     		or	a5,a5,a4
  79 0058 2300F400 		sb	a5,0(s0)
  80              		.loc 1 80 9 is_stmt 1
  81 005c 13054400 		addi	a0,s0,4
  82 0060 97000000 		call	memcpy
  82      E7800000 
  83              	.LVL4:
  84              	.L6:
  81:C:/Users/stapi/OneDrive/Desktop/GD32VW553/V1_MQTT_OK/GD32VW55X_Wifi_BLE_SDK/GD32VW55x_RELEASE_V1.0.2/MSDK/cloud/alicloud/src/protocol/alcs\alcs_coap.c ****     }
  82:C:/Users/stapi/OneDrive/Desktop/GD32VW553/V1_MQTT_OK/GD32VW55X_Wifi_BLE_SDK/GD32VW55x_RELEASE_V1.0.2/MSDK/cloud/alicloud/src/protocol/alcs\alcs_coap.c **** 
  83:C:/Users/stapi/OneDrive/Desktop/GD32VW553/V1_MQTT_OK/GD32VW55X_Wifi_BLE_SDK/GD32VW55x_RELEASE_V1.0.2/MSDK/cloud/alicloud/src/protocol/alcs\alcs_coap.c ****     ret = CoAPMessage_send (context, addr, message);
  85              		.loc 1 83 5
  86              		.loc 1 83 11 is_stmt 0
  87 0068 2286     		mv	a2,s0
  88 006a D285     		mv	a1,s4
  89 006c 4E85     		mv	a0,s3
  90 006e 97000000 		call	CoAPMessage_send
  90      E7800000 
  91              	.LVL5:
  92 0076 AA84     		mv	s1,a0
  93              	.LVL6:
  84:C:/Users/stapi/OneDrive/Desktop/GD32VW553/V1_MQTT_OK/GD32VW55X_Wifi_BLE_SDK/GD32VW55x_RELEASE_V1.0.2/MSDK/cloud/alicloud/src/protocol/alcs\alcs_coap.c ****     CoAPMessage_destory(message);
  94              		.loc 1 84 5 is_stmt 1
  95 0078 2285     		mv	a0,s0
  96 007a 97000000 		call	CoAPMessage_destory
  96      E7800000 
  97              	.LVL7:
  85:C:/Users/stapi/OneDrive/Desktop/GD32VW553/V1_MQTT_OK/GD32VW55X_Wifi_BLE_SDK/GD32VW55x_RELEASE_V1.0.2/MSDK/cloud/alicloud/src/protocol/alcs\alcs_coap.c ****     return ret;
  98              		.loc 1 85 5
  99              	.L1:
  86:C:/Users/stapi/OneDrive/Desktop/GD32VW553/V1_MQTT_OK/GD32VW55X_Wifi_BLE_SDK/GD32VW55x_RELEASE_V1.0.2/MSDK/cloud/alicloud/src/protocol/alcs\alcs_coap.c **** }
 100              		.loc 1 86 1 is_stmt 0
 101 0082 2685     		mv	a0,s1
 102 0084 17030000 		tail	__riscv_restore_6
 102      67000300 
 103              		.cfi_remember_state
 104              		.cfi_restore 21
 105              		.cfi_restore 20
 106              		.cfi_restore 19
 107              		.cfi_restore 18
 108              		.cfi_restore 9
 109              		.cfi_restore 8
 110              		.cfi_restore 1
 111              		.cfi_def_cfa_offset 0
 112              	.LVL8:
 113              	.L3:
 114              		.cfi_restore_state
  71:C:/Users/stapi/OneDrive/Desktop/GD32VW553/V1_MQTT_OK/GD32VW55X_Wifi_BLE_SDK/GD32VW55x_RELEASE_V1.0.2/MSDK/cloud/alicloud/src/protocol/alcs\alcs_coap.c ****     }
 115              		.loc 1 71 9 is_stmt 1
  71:C:/Users/stapi/OneDrive/Desktop/GD32VW553/V1_MQTT_OK/GD32VW55X_Wifi_BLE_SDK/GD32VW55x_RELEASE_V1.0.2/MSDK/cloud/alicloud/src/protocol/alcs\alcs_coap.c ****     }
 116              		.loc 1 71 31 is_stmt 0
 117 008c 2311E600 		sh	a4,2(a2)
 118 0090 79BF     		j	.L4
 119              		.cfi_endproc
 120              	.LFE23:
 122              		.section	.text.getToken,"ax",@progbits
 123              		.align	1
 124              		.globl	getToken
 126              	getToken:
 127              	.LFB20:
  28:C:/Users/stapi/OneDrive/Desktop/GD32VW553/V1_MQTT_OK/GD32VW55X_Wifi_BLE_SDK/GD32VW55x_RELEASE_V1.0.2/MSDK/cloud/alicloud/src/protocol/alcs\alcs_coap.c **** 	if (tokenSeed == 0) {
 128              		.loc 1 28 1 is_stmt 1
 129              		.cfi_startproc
 130 0000 17030000 		call	t0,__riscv_save_1
 130      E7020300 
 131              		.cfi_offset 8, -8
 132              		.cfi_offset 1, -4
 133              		.cfi_def_cfa_offset 16
  29:C:/Users/stapi/OneDrive/Desktop/GD32VW553/V1_MQTT_OK/GD32VW55X_Wifi_BLE_SDK/GD32VW55x_RELEASE_V1.0.2/MSDK/cloud/alicloud/src/protocol/alcs\alcs_coap.c **** 		HAL_Srandom ((uint32_t)HAL_UptimeMs());
 134              		.loc 1 29 2
  29:C:/Users/stapi/OneDrive/Desktop/GD32VW553/V1_MQTT_OK/GD32VW55X_Wifi_BLE_SDK/GD32VW55x_RELEASE_V1.0.2/MSDK/cloud/alicloud/src/protocol/alcs\alcs_coap.c **** 		HAL_Srandom ((uint32_t)HAL_UptimeMs());
 135              		.loc 1 29 16 is_stmt 0
 136 0008 37040000 		lui	s0,%hi(.LANCHOR0)
 137 000c 83270400 		lw	a5,%lo(.LANCHOR0)(s0)
 138 0010 13040400 		addi	s0,s0,%lo(.LANCHOR0)
  29:C:/Users/stapi/OneDrive/Desktop/GD32VW553/V1_MQTT_OK/GD32VW55X_Wifi_BLE_SDK/GD32VW55x_RELEASE_V1.0.2/MSDK/cloud/alicloud/src/protocol/alcs\alcs_coap.c **** 		HAL_Srandom ((uint32_t)HAL_UptimeMs());
 139              		.loc 1 29 5
 140 0014 85E7     		bne	a5,zero,.L15
  30:C:/Users/stapi/OneDrive/Desktop/GD32VW553/V1_MQTT_OK/GD32VW55X_Wifi_BLE_SDK/GD32VW55x_RELEASE_V1.0.2/MSDK/cloud/alicloud/src/protocol/alcs\alcs_coap.c **** 		tokenSeed = HAL_Random (0xffffffff);
 141              		.loc 1 30 3 is_stmt 1
  30:C:/Users/stapi/OneDrive/Desktop/GD32VW553/V1_MQTT_OK/GD32VW55X_Wifi_BLE_SDK/GD32VW55x_RELEASE_V1.0.2/MSDK/cloud/alicloud/src/protocol/alcs\alcs_coap.c **** 		tokenSeed = HAL_Random (0xffffffff);
 142              		.loc 1 30 26 is_stmt 0
 143 0016 97000000 		call	HAL_UptimeMs
 143      E7800000 
 144              	.LVL9:
  30:C:/Users/stapi/OneDrive/Desktop/GD32VW553/V1_MQTT_OK/GD32VW55X_Wifi_BLE_SDK/GD32VW55x_RELEASE_V1.0.2/MSDK/cloud/alicloud/src/protocol/alcs\alcs_coap.c **** 		tokenSeed = HAL_Random (0xffffffff);
 145              		.loc 1 30 3
 146 001e 97000000 		call	HAL_Srandom
 146      E7800000 
 147              	.LVL10:
  31:C:/Users/stapi/OneDrive/Desktop/GD32VW553/V1_MQTT_OK/GD32VW55X_Wifi_BLE_SDK/GD32VW55x_RELEASE_V1.0.2/MSDK/cloud/alicloud/src/protocol/alcs\alcs_coap.c **** 	} else {
 148              		.loc 1 31 3 is_stmt 1
  31:C:/Users/stapi/OneDrive/Desktop/GD32VW553/V1_MQTT_OK/GD32VW55X_Wifi_BLE_SDK/GD32VW55x_RELEASE_V1.0.2/MSDK/cloud/alicloud/src/protocol/alcs\alcs_coap.c **** 	} else {
 149              		.loc 1 31 15 is_stmt 0
 150 0026 7D55     		li	a0,-1
 151 0028 97000000 		call	HAL_Random
 151      E7800000 
 152              	.LVL11:
  31:C:/Users/stapi/OneDrive/Desktop/GD32VW553/V1_MQTT_OK/GD32VW55X_Wifi_BLE_SDK/GD32VW55x_RELEASE_V1.0.2/MSDK/cloud/alicloud/src/protocol/alcs\alcs_coap.c **** 	} else {
 153              		.loc 1 31 13
 154 0030 08C0     		sw	a0,0(s0)
 155              	.L16:
  36:C:/Users/stapi/OneDrive/Desktop/GD32VW553/V1_MQTT_OK/GD32VW55X_Wifi_BLE_SDK/GD32VW55x_RELEASE_V1.0.2/MSDK/cloud/alicloud/src/protocol/alcs\alcs_coap.c **** }
 156              		.loc 1 36 2 is_stmt 1
  37:C:/Users/stapi/OneDrive/Desktop/GD32VW553/V1_MQTT_OK/GD32VW55X_Wifi_BLE_SDK/GD32VW55x_RELEASE_V1.0.2/MSDK/cloud/alicloud/src/protocol/alcs\alcs_coap.c **** 
 157              		.loc 1 37 1 is_stmt 0
 158 0032 0840     		lw	a0,0(s0)
 159 0034 17030000 		tail	__riscv_restore_1
 159      67000300 
 160              		.cfi_remember_state
 161              		.cfi_restore 8
 162              		.cfi_restore 1
 163              		.cfi_def_cfa_offset 0
 164              	.L15:
 165              		.cfi_restore_state
  33:C:/Users/stapi/OneDrive/Desktop/GD32VW553/V1_MQTT_OK/GD32VW55X_Wifi_BLE_SDK/GD32VW55x_RELEASE_V1.0.2/MSDK/cloud/alicloud/src/protocol/alcs\alcs_coap.c **** 	}
 166              		.loc 1 33 3 is_stmt 1
 167 003c 8507     		addi	a5,a5,1
 168 003e 1CC0     		sw	a5,0(s0)
 169 0040 CDBF     		j	.L16
 170              		.cfi_endproc
 171              	.LFE20:
 173              		.section	.text.alcs_msg_init,"ax",@progbits
 174              		.align	1
 175              		.globl	alcs_msg_init
 177              	alcs_msg_init:
 178              	.LFB21:
  41:C:/Users/stapi/OneDrive/Desktop/GD32VW553/V1_MQTT_OK/GD32VW55X_Wifi_BLE_SDK/GD32VW55x_RELEASE_V1.0.2/MSDK/cloud/alicloud/src/protocol/alcs\alcs_coap.c ****     CoAPMessage_init (message);
 179              		.loc 1 41 1
 180              		.cfi_startproc
 181              	.LVL12:
 182 0000 17030000 		call	t0,__riscv_save_7
 182      E7020300 
 183              		.cfi_offset 22, -32
 184              		.cfi_offset 21, -28
 185              		.cfi_offset 20, -24
 186              		.cfi_offset 19, -20
 187              		.cfi_offset 18, -16
 188              		.cfi_offset 9, -12
 189              		.cfi_offset 8, -8
 190              		.cfi_offset 1, -4
 191              		.cfi_def_cfa_offset 32
  42:C:/Users/stapi/OneDrive/Desktop/GD32VW553/V1_MQTT_OK/GD32VW55X_Wifi_BLE_SDK/GD32VW55x_RELEASE_V1.0.2/MSDK/cloud/alicloud/src/protocol/alcs\alcs_coap.c **** 	message->header.code = code;
 192              		.loc 1 42 5
  41:C:/Users/stapi/OneDrive/Desktop/GD32VW553/V1_MQTT_OK/GD32VW55X_Wifi_BLE_SDK/GD32VW55x_RELEASE_V1.0.2/MSDK/cloud/alicloud/src/protocol/alcs\alcs_coap.c ****     CoAPMessage_init (message);
 193              		.loc 1 41 1 is_stmt 0
 194 0008 2E84     		mv	s0,a1
 195 000a 4111     		addi	sp,sp,-16
 196              		.cfi_def_cfa_offset 48
  41:C:/Users/stapi/OneDrive/Desktop/GD32VW553/V1_MQTT_OK/GD32VW55X_Wifi_BLE_SDK/GD32VW55x_RELEASE_V1.0.2/MSDK/cloud/alicloud/src/protocol/alcs\alcs_coap.c ****     CoAPMessage_init (message);
 197              		.loc 1 41 1
 198 000c 328B     		mv	s6,a2
 199 000e AA89     		mv	s3,a0
  42:C:/Users/stapi/OneDrive/Desktop/GD32VW553/V1_MQTT_OK/GD32VW55X_Wifi_BLE_SDK/GD32VW55x_RELEASE_V1.0.2/MSDK/cloud/alicloud/src/protocol/alcs\alcs_coap.c **** 	message->header.code = code;
 200              		.loc 1 42 5
 201 0010 2E85     		mv	a0,a1
 202              	.LVL13:
  41:C:/Users/stapi/OneDrive/Desktop/GD32VW553/V1_MQTT_OK/GD32VW55X_Wifi_BLE_SDK/GD32VW55x_RELEASE_V1.0.2/MSDK/cloud/alicloud/src/protocol/alcs\alcs_coap.c ****     CoAPMessage_init (message);
 203              		.loc 1 41 1
 204 0012 3A8A     		mv	s4,a4
 205 0014 C28A     		mv	s5,a6
 206 0016 3E89     		mv	s2,a5
 207 0018 B684     		mv	s1,a3
  42:C:/Users/stapi/OneDrive/Desktop/GD32VW553/V1_MQTT_OK/GD32VW55X_Wifi_BLE_SDK/GD32VW55x_RELEASE_V1.0.2/MSDK/cloud/alicloud/src/protocol/alcs\alcs_coap.c **** 	message->header.code = code;
 208              		.loc 1 42 5
 209 001a 97000000 		call	CoAPMessage_init
 209      E7800000 
 210              	.LVL14:
  43:C:/Users/stapi/OneDrive/Desktop/GD32VW553/V1_MQTT_OK/GD32VW55X_Wifi_BLE_SDK/GD32VW55x_RELEASE_V1.0.2/MSDK/cloud/alicloud/src/protocol/alcs\alcs_coap.c **** 	message->header.type = type;
 211              		.loc 1 43 2 is_stmt 1
  43:C:/Users/stapi/OneDrive/Desktop/GD32VW553/V1_MQTT_OK/GD32VW55X_Wifi_BLE_SDK/GD32VW55x_RELEASE_V1.0.2/MSDK/cloud/alicloud/src/protocol/alcs\alcs_coap.c **** 	message->header.type = type;
 212              		.loc 1 43 23 is_stmt 0
 213 0022 A3006401 		sb	s6,1(s0)
  44:C:/Users/stapi/OneDrive/Desktop/GD32VW553/V1_MQTT_OK/GD32VW55X_Wifi_BLE_SDK/GD32VW55x_RELEASE_V1.0.2/MSDK/cloud/alicloud/src/protocol/alcs\alcs_coap.c **** 	message->user = userdata;
 214              		.loc 1 44 2 is_stmt 1
  46:C:/Users/stapi/OneDrive/Desktop/GD32VW553/V1_MQTT_OK/GD32VW55X_Wifi_BLE_SDK/GD32VW55x_RELEASE_V1.0.2/MSDK/cloud/alicloud/src/protocol/alcs\alcs_coap.c **** 	message->payloadlen = payload->len;
 215              		.loc 1 46 19 is_stmt 0
 216 0026 83274900 		lw	a5,4(s2)
  44:C:/Users/stapi/OneDrive/Desktop/GD32VW553/V1_MQTT_OK/GD32VW55X_Wifi_BLE_SDK/GD32VW55x_RELEASE_V1.0.2/MSDK/cloud/alicloud/src/protocol/alcs\alcs_coap.c **** 	message->user = userdata;
 217              		.loc 1 44 23
 218 002a 83460400 		lbu	a3,0(s0)
 219 002e 8D88     		andi	s1,s1,3
  46:C:/Users/stapi/OneDrive/Desktop/GD32VW553/V1_MQTT_OK/GD32VW55X_Wifi_BLE_SDK/GD32VW55x_RELEASE_V1.0.2/MSDK/cloud/alicloud/src/protocol/alcs\alcs_coap.c **** 	message->payloadlen = payload->len;
 220              		.loc 1 46 19
 221 0030 3CD8     		sw	a5,112(s0)
  47:C:/Users/stapi/OneDrive/Desktop/GD32VW553/V1_MQTT_OK/GD32VW55X_Wifi_BLE_SDK/GD32VW55x_RELEASE_V1.0.2/MSDK/cloud/alicloud/src/protocol/alcs\alcs_coap.c ****     message->keep = keep;
 222              		.loc 1 47 22
 223 0032 83270900 		lw	a5,0(s2)
  44:C:/Users/stapi/OneDrive/Desktop/GD32VW553/V1_MQTT_OK/GD32VW55X_Wifi_BLE_SDK/GD32VW55x_RELEASE_V1.0.2/MSDK/cloud/alicloud/src/protocol/alcs\alcs_coap.c **** 	message->user = userdata;
 224              		.loc 1 44 23
 225 0036 CD9A     		andi	a3,a3,-13
 226 0038 8A04     		slli	s1,s1,2
 227 003a D58C     		or	s1,a3,s1
  47:C:/Users/stapi/OneDrive/Desktop/GD32VW553/V1_MQTT_OK/GD32VW55X_Wifi_BLE_SDK/GD32VW55x_RELEASE_V1.0.2/MSDK/cloud/alicloud/src/protocol/alcs\alcs_coap.c ****     message->keep = keep;
 228              		.loc 1 47 22
 229 003c 2317F406 		sh	a5,110(s0)
  44:C:/Users/stapi/OneDrive/Desktop/GD32VW553/V1_MQTT_OK/GD32VW55X_Wifi_BLE_SDK/GD32VW55x_RELEASE_V1.0.2/MSDK/cloud/alicloud/src/protocol/alcs\alcs_coap.c **** 	message->user = userdata;
 230              		.loc 1 44 23
 231 0040 23009400 		sb	s1,0(s0)
  45:C:/Users/stapi/OneDrive/Desktop/GD32VW553/V1_MQTT_OK/GD32VW55X_Wifi_BLE_SDK/GD32VW55x_RELEASE_V1.0.2/MSDK/cloud/alicloud/src/protocol/alcs\alcs_coap.c **** 	message->payload = payload->data;
 232              		.loc 1 45 2 is_stmt 1
  45:C:/Users/stapi/OneDrive/Desktop/GD32VW553/V1_MQTT_OK/GD32VW55X_Wifi_BLE_SDK/GD32VW55x_RELEASE_V1.0.2/MSDK/cloud/alicloud/src/protocol/alcs\alcs_coap.c **** 	message->payload = payload->data;
 233              		.loc 1 45 16 is_stmt 0
 234 0044 232C5407 		sw	s5,120(s0)
  46:C:/Users/stapi/OneDrive/Desktop/GD32VW553/V1_MQTT_OK/GD32VW55X_Wifi_BLE_SDK/GD32VW55x_RELEASE_V1.0.2/MSDK/cloud/alicloud/src/protocol/alcs\alcs_coap.c **** 	message->payloadlen = payload->len;
 235              		.loc 1 46 2 is_stmt 1
  47:C:/Users/stapi/OneDrive/Desktop/GD32VW553/V1_MQTT_OK/GD32VW55X_Wifi_BLE_SDK/GD32VW55x_RELEASE_V1.0.2/MSDK/cloud/alicloud/src/protocol/alcs\alcs_coap.c ****     message->keep = keep;
 236              		.loc 1 47 2
  48:C:/Users/stapi/OneDrive/Desktop/GD32VW553/V1_MQTT_OK/GD32VW55X_Wifi_BLE_SDK/GD32VW55x_RELEASE_V1.0.2/MSDK/cloud/alicloud/src/protocol/alcs\alcs_coap.c **** 
 237              		.loc 1 48 5
  48:C:/Users/stapi/OneDrive/Desktop/GD32VW553/V1_MQTT_OK/GD32VW55X_Wifi_BLE_SDK/GD32VW55x_RELEASE_V1.0.2/MSDK/cloud/alicloud/src/protocol/alcs\alcs_coap.c **** 
 238              		.loc 1 48 19 is_stmt 0
 239 0048 232E4407 		sw	s4,124(s0)
  50:C:/Users/stapi/OneDrive/Desktop/GD32VW553/V1_MQTT_OK/GD32VW55X_Wifi_BLE_SDK/GD32VW55x_RELEASE_V1.0.2/MSDK/cloud/alicloud/src/protocol/alcs\alcs_coap.c **** 	message->header.tokenlen = 4;
 240              		.loc 1 50 2 is_stmt 1
  50:C:/Users/stapi/OneDrive/Desktop/GD32VW553/V1_MQTT_OK/GD32VW55X_Wifi_BLE_SDK/GD32VW55x_RELEASE_V1.0.2/MSDK/cloud/alicloud/src/protocol/alcs\alcs_coap.c **** 	message->header.tokenlen = 4;
 241              		.loc 1 50 26 is_stmt 0
 242 004c 4E85     		mv	a0,s3
 243 004e 97000000 		call	CoAPMessageId_gen
 243      E7800000 
 244              	.LVL15:
  51:C:/Users/stapi/OneDrive/Desktop/GD32VW553/V1_MQTT_OK/GD32VW55X_Wifi_BLE_SDK/GD32VW55x_RELEASE_V1.0.2/MSDK/cloud/alicloud/src/protocol/alcs\alcs_coap.c **** 	uint32_t token = getToken ();
 245              		.loc 1 51 27
 246 0056 83470400 		lbu	a5,0(s0)
  50:C:/Users/stapi/OneDrive/Desktop/GD32VW553/V1_MQTT_OK/GD32VW55X_Wifi_BLE_SDK/GD32VW55x_RELEASE_V1.0.2/MSDK/cloud/alicloud/src/protocol/alcs\alcs_coap.c **** 	message->header.tokenlen = 4;
 247              		.loc 1 50 24
 248 005a 2311A400 		sh	a0,2(s0)
  51:C:/Users/stapi/OneDrive/Desktop/GD32VW553/V1_MQTT_OK/GD32VW55X_Wifi_BLE_SDK/GD32VW55x_RELEASE_V1.0.2/MSDK/cloud/alicloud/src/protocol/alcs\alcs_coap.c **** 	uint32_t token = getToken ();
 249              		.loc 1 51 2 is_stmt 1
  51:C:/Users/stapi/OneDrive/Desktop/GD32VW553/V1_MQTT_OK/GD32VW55X_Wifi_BLE_SDK/GD32VW55x_RELEASE_V1.0.2/MSDK/cloud/alicloud/src/protocol/alcs\alcs_coap.c **** 	uint32_t token = getToken ();
 250              		.loc 1 51 27 is_stmt 0
 251 005e BD8B     		andi	a5,a5,15
 252 0060 93E70704 		ori	a5,a5,64
 253 0064 2300F400 		sb	a5,0(s0)
  52:C:/Users/stapi/OneDrive/Desktop/GD32VW553/V1_MQTT_OK/GD32VW55X_Wifi_BLE_SDK/GD32VW55x_RELEASE_V1.0.2/MSDK/cloud/alicloud/src/protocol/alcs\alcs_coap.c **** 	memcpy (&message->token, &token, 4);
 254              		.loc 1 52 2 is_stmt 1
  52:C:/Users/stapi/OneDrive/Desktop/GD32VW553/V1_MQTT_OK/GD32VW55X_Wifi_BLE_SDK/GD32VW55x_RELEASE_V1.0.2/MSDK/cloud/alicloud/src/protocol/alcs\alcs_coap.c **** 	memcpy (&message->token, &token, 4);
 255              		.loc 1 52 19 is_stmt 0
 256 0068 97000000 		call	getToken
 256      E7800000 
 257              	.LVL16:
  52:C:/Users/stapi/OneDrive/Desktop/GD32VW553/V1_MQTT_OK/GD32VW55X_Wifi_BLE_SDK/GD32VW55x_RELEASE_V1.0.2/MSDK/cloud/alicloud/src/protocol/alcs\alcs_coap.c **** 	memcpy (&message->token, &token, 4);
 258              		.loc 1 52 11
 259 0070 2AC6     		sw	a0,12(sp)
  53:C:/Users/stapi/OneDrive/Desktop/GD32VW553/V1_MQTT_OK/GD32VW55X_Wifi_BLE_SDK/GD32VW55x_RELEASE_V1.0.2/MSDK/cloud/alicloud/src/protocol/alcs\alcs_coap.c **** }
 260              		.loc 1 53 2 is_stmt 1
 261 0072 6C00     		addi	a1,sp,12
 262 0074 1146     		li	a2,4
 263 0076 13054400 		addi	a0,s0,4
 264 007a 97000000 		call	memcpy
 264      E7800000 
 265              	.LVL17:
  54:C:/Users/stapi/OneDrive/Desktop/GD32VW553/V1_MQTT_OK/GD32VW55X_Wifi_BLE_SDK/GD32VW55x_RELEASE_V1.0.2/MSDK/cloud/alicloud/src/protocol/alcs\alcs_coap.c **** 
 266              		.loc 1 54 1 is_stmt 0
 267 0082 4101     		addi	sp,sp,16
 268              		.cfi_def_cfa_offset 0
 269 0084 17030000 		tail	__riscv_restore_7
 269      67000300 
 270              		.cfi_restore 22
 271              		.cfi_restore 21
 272              		.cfi_restore 20
 273              		.cfi_restore 19
 274              		.cfi_restore 18
 275              		.cfi_restore 9
 276              		.cfi_restore 8
 277              		.cfi_restore 1
 278              		.cfi_def_cfa_offset -32
 279              		.cfi_endproc
 280              	.LFE21:
 282              		.section	.text.alcs_msg_deinit,"ax",@progbits
 283              		.align	1
 284              		.globl	alcs_msg_deinit
 286              	alcs_msg_deinit:
 287              	.LFB22:
  57:C:/Users/stapi/OneDrive/Desktop/GD32VW553/V1_MQTT_OK/GD32VW55X_Wifi_BLE_SDK/GD32VW55x_RELEASE_V1.0.2/MSDK/cloud/alicloud/src/protocol/alcs\alcs_coap.c **** 	CoAPMessage_destory (message);
 288              		.loc 1 57 1 is_stmt 1
 289              		.cfi_startproc
 290              	.LVL18:
  58:C:/Users/stapi/OneDrive/Desktop/GD32VW553/V1_MQTT_OK/GD32VW55X_Wifi_BLE_SDK/GD32VW55x_RELEASE_V1.0.2/MSDK/cloud/alicloud/src/protocol/alcs\alcs_coap.c **** }
 291              		.loc 1 58 2
 292 0000 17030000 		tail	CoAPMessage_destory
 292      67000300 
 293              	.LVL19:
 294              		.cfi_endproc
 295              	.LFE22:
 297              		.section	.text.alcs_sendmsg,"ax",@progbits
 298              		.align	1
 299              		.globl	alcs_sendmsg
 301              	alcs_sendmsg:
 302              	.LFB24:
  87:C:/Users/stapi/OneDrive/Desktop/GD32VW553/V1_MQTT_OK/GD32VW55X_Wifi_BLE_SDK/GD32VW55x_RELEASE_V1.0.2/MSDK/cloud/alicloud/src/protocol/alcs\alcs_coap.c **** 
  88:C:/Users/stapi/OneDrive/Desktop/GD32VW553/V1_MQTT_OK/GD32VW55X_Wifi_BLE_SDK/GD32VW55x_RELEASE_V1.0.2/MSDK/cloud/alicloud/src/protocol/alcs\alcs_coap.c **** int alcs_sendmsg(CoAPContext *context, NetworkAddr* addr, CoAPMessage *message, char observe, CoAPS
  89:C:/Users/stapi/OneDrive/Desktop/GD32VW553/V1_MQTT_OK/GD32VW55X_Wifi_BLE_SDK/GD32VW55x_RELEASE_V1.0.2/MSDK/cloud/alicloud/src/protocol/alcs\alcs_coap.c **** {
 303              		.loc 1 89 1
 304              		.cfi_startproc
 305              	.LVL20:
  90:C:/Users/stapi/OneDrive/Desktop/GD32VW553/V1_MQTT_OK/GD32VW55X_Wifi_BLE_SDK/GD32VW55x_RELEASE_V1.0.2/MSDK/cloud/alicloud/src/protocol/alcs\alcs_coap.c ****     message->handler = handler;
 306              		.loc 1 90 5
 307              		.loc 1 90 22 is_stmt 0
 308 0000 78DA     		sw	a4,116(a2)
  91:C:/Users/stapi/OneDrive/Desktop/GD32VW553/V1_MQTT_OK/GD32VW55X_Wifi_BLE_SDK/GD32VW55x_RELEASE_V1.0.2/MSDK/cloud/alicloud/src/protocol/alcs\alcs_coap.c **** 	return do_sendmsg (context, addr, message, observe, message->header.msgid, NULL);
 309              		.loc 1 91 2 is_stmt 1
 310              		.loc 1 91 9 is_stmt 0
 311 0002 03572600 		lhu	a4,2(a2)
 312              	.LVL21:
 313 0006 8147     		li	a5,0
 314 0008 17030000 		tail	do_sendmsg
 314      67000300 
 315              	.LVL22:
 316              		.cfi_endproc
 317              	.LFE24:
 319              		.section	.text.alcs_sendrsp,"ax",@progbits
 320              		.align	1
 321              		.globl	alcs_sendrsp
 323              	alcs_sendrsp:
 324              	.LFB25:
  92:C:/Users/stapi/OneDrive/Desktop/GD32VW553/V1_MQTT_OK/GD32VW55X_Wifi_BLE_SDK/GD32VW55x_RELEASE_V1.0.2/MSDK/cloud/alicloud/src/protocol/alcs\alcs_coap.c **** }
  93:C:/Users/stapi/OneDrive/Desktop/GD32VW553/V1_MQTT_OK/GD32VW55X_Wifi_BLE_SDK/GD32VW55x_RELEASE_V1.0.2/MSDK/cloud/alicloud/src/protocol/alcs\alcs_coap.c **** 
  94:C:/Users/stapi/OneDrive/Desktop/GD32VW553/V1_MQTT_OK/GD32VW55X_Wifi_BLE_SDK/GD32VW55x_RELEASE_V1.0.2/MSDK/cloud/alicloud/src/protocol/alcs\alcs_coap.c **** int alcs_sendrsp(CoAPContext *context, NetworkAddr* addr, CoAPMessage *message, char observe, unsig
  95:C:/Users/stapi/OneDrive/Desktop/GD32VW553/V1_MQTT_OK/GD32VW55X_Wifi_BLE_SDK/GD32VW55x_RELEASE_V1.0.2/MSDK/cloud/alicloud/src/protocol/alcs\alcs_coap.c **** {
 325              		.loc 1 95 1 is_stmt 1
 326              		.cfi_startproc
 327              	.LVL23:
  96:C:/Users/stapi/OneDrive/Desktop/GD32VW553/V1_MQTT_OK/GD32VW55X_Wifi_BLE_SDK/GD32VW55x_RELEASE_V1.0.2/MSDK/cloud/alicloud/src/protocol/alcs\alcs_coap.c **** 	return do_sendmsg (context, addr, message, observe, msgid, token);
 328              		.loc 1 96 2
 329              		.loc 1 96 9 is_stmt 0
 330 0000 17030000 		tail	do_sendmsg
 330      67000300 
 331              	.LVL24:
 332              		.cfi_endproc
 333              	.LFE25:
 335              		.section	.rodata.recv_msg_handler.str1.4,"aMS",@progbits,1
 336              		.align	2
 337              	.LC0:
 338 0000 5B696E66 		.string	"[inf] "
 338      5D2000
 339 0007 00       		.align	2
 340              	.LC1:
 341 0008 72656376 		.string	"recv_msg_handler call callback"
 341      5F6D7367 
 341      5F68616E 
 341      646C6572 
 341      2063616C 
 342 0027 00       		.align	2
 343              	.LC2:
 344 0028 0D0A00   		.string	"\r\n"
 345 002b 00       		.align	2
 346              	.LC3:
 347 002c 5B657272 		.string	"[err] "
 347      5D2000
 348 0033 00       		.align	2
 349              	.LC4:
 350 0034 72656365 		.string	"receive unknown request, path:%s"
 350      69766520 
 350      756E6B6E 
 350      6F776E20 
 350      72657175 
 351              		.section	.text.recv_msg_handler,"ax",@progbits
 352              		.align	1
 354              	recv_msg_handler:
 355              	.LFB28:
  97:C:/Users/stapi/OneDrive/Desktop/GD32VW553/V1_MQTT_OK/GD32VW55X_Wifi_BLE_SDK/GD32VW55x_RELEASE_V1.0.2/MSDK/cloud/alicloud/src/protocol/alcs\alcs_coap.c **** }
  98:C:/Users/stapi/OneDrive/Desktop/GD32VW553/V1_MQTT_OK/GD32VW55X_Wifi_BLE_SDK/GD32VW55x_RELEASE_V1.0.2/MSDK/cloud/alicloud/src/protocol/alcs\alcs_coap.c **** 
  99:C:/Users/stapi/OneDrive/Desktop/GD32VW553/V1_MQTT_OK/GD32VW55X_Wifi_BLE_SDK/GD32VW55x_RELEASE_V1.0.2/MSDK/cloud/alicloud/src/protocol/alcs\alcs_coap.c **** //observe
 100:C:/Users/stapi/OneDrive/Desktop/GD32VW553/V1_MQTT_OK/GD32VW55X_Wifi_BLE_SDK/GD32VW55x_RELEASE_V1.0.2/MSDK/cloud/alicloud/src/protocol/alcs\alcs_coap.c **** int alcs_observe_notify(CoAPContext *context, const char *path, CoAPLenString* payload)
 101:C:/Users/stapi/OneDrive/Desktop/GD32VW553/V1_MQTT_OK/GD32VW55X_Wifi_BLE_SDK/GD32VW55x_RELEASE_V1.0.2/MSDK/cloud/alicloud/src/protocol/alcs\alcs_coap.c **** {
 102:C:/Users/stapi/OneDrive/Desktop/GD32VW553/V1_MQTT_OK/GD32VW55X_Wifi_BLE_SDK/GD32VW55x_RELEASE_V1.0.2/MSDK/cloud/alicloud/src/protocol/alcs\alcs_coap.c ****     int needAuth = 0;
 103:C:/Users/stapi/OneDrive/Desktop/GD32VW553/V1_MQTT_OK/GD32VW55X_Wifi_BLE_SDK/GD32VW55x_RELEASE_V1.0.2/MSDK/cloud/alicloud/src/protocol/alcs\alcs_coap.c **** #ifdef USE_ALCS_SECURE
 104:C:/Users/stapi/OneDrive/Desktop/GD32VW553/V1_MQTT_OK/GD32VW55X_Wifi_BLE_SDK/GD32VW55x_RELEASE_V1.0.2/MSDK/cloud/alicloud/src/protocol/alcs\alcs_coap.c ****     needAuth = alcs_resource_need_auth (context, path);
 105:C:/Users/stapi/OneDrive/Desktop/GD32VW553/V1_MQTT_OK/GD32VW55X_Wifi_BLE_SDK/GD32VW55x_RELEASE_V1.0.2/MSDK/cloud/alicloud/src/protocol/alcs\alcs_coap.c **** #endif
 106:C:/Users/stapi/OneDrive/Desktop/GD32VW553/V1_MQTT_OK/GD32VW55X_Wifi_BLE_SDK/GD32VW55x_RELEASE_V1.0.2/MSDK/cloud/alicloud/src/protocol/alcs\alcs_coap.c ****     COAP_DEBUG("payload:%s",payload->data);
 107:C:/Users/stapi/OneDrive/Desktop/GD32VW553/V1_MQTT_OK/GD32VW55X_Wifi_BLE_SDK/GD32VW55x_RELEASE_V1.0.2/MSDK/cloud/alicloud/src/protocol/alcs\alcs_coap.c ****     //HEXDUMP_DEBUG(payload->data, payload->len);
 108:C:/Users/stapi/OneDrive/Desktop/GD32VW553/V1_MQTT_OK/GD32VW55X_Wifi_BLE_SDK/GD32VW55x_RELEASE_V1.0.2/MSDK/cloud/alicloud/src/protocol/alcs\alcs_coap.c ****     return CoAPObsServer_notify (context, path, payload->data, payload->len,
 109:C:/Users/stapi/OneDrive/Desktop/GD32VW553/V1_MQTT_OK/GD32VW55X_Wifi_BLE_SDK/GD32VW55x_RELEASE_V1.0.2/MSDK/cloud/alicloud/src/protocol/alcs\alcs_coap.c ****                                  needAuth? &observe_data_encrypt : NULL);
 110:C:/Users/stapi/OneDrive/Desktop/GD32VW553/V1_MQTT_OK/GD32VW55X_Wifi_BLE_SDK/GD32VW55x_RELEASE_V1.0.2/MSDK/cloud/alicloud/src/protocol/alcs\alcs_coap.c **** }
 111:C:/Users/stapi/OneDrive/Desktop/GD32VW553/V1_MQTT_OK/GD32VW55X_Wifi_BLE_SDK/GD32VW55x_RELEASE_V1.0.2/MSDK/cloud/alicloud/src/protocol/alcs\alcs_coap.c **** 
 112:C:/Users/stapi/OneDrive/Desktop/GD32VW553/V1_MQTT_OK/GD32VW55X_Wifi_BLE_SDK/GD32VW55x_RELEASE_V1.0.2/MSDK/cloud/alicloud/src/protocol/alcs\alcs_coap.c **** static void send_err_rsp (CoAPContext* ctx, NetworkAddr*addr, int code, CoAPMessage* fromMsg)
 113:C:/Users/stapi/OneDrive/Desktop/GD32VW553/V1_MQTT_OK/GD32VW55X_Wifi_BLE_SDK/GD32VW55x_RELEASE_V1.0.2/MSDK/cloud/alicloud/src/protocol/alcs\alcs_coap.c **** {
 114:C:/Users/stapi/OneDrive/Desktop/GD32VW553/V1_MQTT_OK/GD32VW55X_Wifi_BLE_SDK/GD32VW55x_RELEASE_V1.0.2/MSDK/cloud/alicloud/src/protocol/alcs\alcs_coap.c ****     CoAPMessage sendMsg;
 115:C:/Users/stapi/OneDrive/Desktop/GD32VW553/V1_MQTT_OK/GD32VW55X_Wifi_BLE_SDK/GD32VW55x_RELEASE_V1.0.2/MSDK/cloud/alicloud/src/protocol/alcs\alcs_coap.c ****     CoAPLenString payload = {0};
 116:C:/Users/stapi/OneDrive/Desktop/GD32VW553/V1_MQTT_OK/GD32VW55X_Wifi_BLE_SDK/GD32VW55x_RELEASE_V1.0.2/MSDK/cloud/alicloud/src/protocol/alcs\alcs_coap.c ****     alcs_msg_init (ctx, &sendMsg, code, COAP_MESSAGE_TYPE_ACK, 0, &payload, NULL);
 117:C:/Users/stapi/OneDrive/Desktop/GD32VW553/V1_MQTT_OK/GD32VW55X_Wifi_BLE_SDK/GD32VW55x_RELEASE_V1.0.2/MSDK/cloud/alicloud/src/protocol/alcs\alcs_coap.c ****     CoAPLenString token = {fromMsg->header.tokenlen, fromMsg->token};
 118:C:/Users/stapi/OneDrive/Desktop/GD32VW553/V1_MQTT_OK/GD32VW55X_Wifi_BLE_SDK/GD32VW55x_RELEASE_V1.0.2/MSDK/cloud/alicloud/src/protocol/alcs\alcs_coap.c ****     alcs_sendrsp (ctx, addr, &sendMsg, 1, fromMsg->header.msgid, &token);
 119:C:/Users/stapi/OneDrive/Desktop/GD32VW553/V1_MQTT_OK/GD32VW55X_Wifi_BLE_SDK/GD32VW55x_RELEASE_V1.0.2/MSDK/cloud/alicloud/src/protocol/alcs\alcs_coap.c **** }
 120:C:/Users/stapi/OneDrive/Desktop/GD32VW553/V1_MQTT_OK/GD32VW55X_Wifi_BLE_SDK/GD32VW55x_RELEASE_V1.0.2/MSDK/cloud/alicloud/src/protocol/alcs\alcs_coap.c **** 
 121:C:/Users/stapi/OneDrive/Desktop/GD32VW553/V1_MQTT_OK/GD32VW55X_Wifi_BLE_SDK/GD32VW55x_RELEASE_V1.0.2/MSDK/cloud/alicloud/src/protocol/alcs\alcs_coap.c **** static void recv_msg_handler (CoAPContext *context, const char *path, NetworkAddr *remote, CoAPMess
 122:C:/Users/stapi/OneDrive/Desktop/GD32VW553/V1_MQTT_OK/GD32VW55X_Wifi_BLE_SDK/GD32VW55x_RELEASE_V1.0.2/MSDK/cloud/alicloud/src/protocol/alcs\alcs_coap.c **** {
 356              		.loc 1 122 1 is_stmt 1
 357              		.cfi_startproc
 358              	.LVL25:
 359 0000 17030000 		call	t0,__riscv_save_7
 359      E7020300 
 360              		.cfi_offset 22, -32
 361              		.cfi_offset 21, -28
 362              		.cfi_offset 20, -24
 363              		.cfi_offset 19, -20
 364              		.cfi_offset 18, -16
 365              		.cfi_offset 9, -12
 366              		.cfi_offset 8, -8
 367              		.cfi_offset 1, -4
 368              		.cfi_def_cfa_offset 32
 123:C:/Users/stapi/OneDrive/Desktop/GD32VW553/V1_MQTT_OK/GD32VW55X_Wifi_BLE_SDK/GD32VW55x_RELEASE_V1.0.2/MSDK/cloud/alicloud/src/protocol/alcs\alcs_coap.c ****     unsigned int obsVal;
 369              		.loc 1 123 5
 124:C:/Users/stapi/OneDrive/Desktop/GD32VW553/V1_MQTT_OK/GD32VW55X_Wifi_BLE_SDK/GD32VW55x_RELEASE_V1.0.2/MSDK/cloud/alicloud/src/protocol/alcs\alcs_coap.c ****     resource_cb_item *node = NULL, *next = NULL;
 370              		.loc 1 124 5
 371              	.LVL26:
 125:C:/Users/stapi/OneDrive/Desktop/GD32VW553/V1_MQTT_OK/GD32VW55X_Wifi_BLE_SDK/GD32VW55x_RELEASE_V1.0.2/MSDK/cloud/alicloud/src/protocol/alcs\alcs_coap.c ****     char path_calc[MAX_PATH_CHECKSUM_LEN] = {0};
 372              		.loc 1 125 5
 122:C:/Users/stapi/OneDrive/Desktop/GD32VW553/V1_MQTT_OK/GD32VW55X_Wifi_BLE_SDK/GD32VW55x_RELEASE_V1.0.2/MSDK/cloud/alicloud/src/protocol/alcs\alcs_coap.c ****     unsigned int obsVal;
 373              		.loc 1 122 1 is_stmt 0
 374 0008 3571     		addi	sp,sp,-160
 375              		.cfi_def_cfa_offset 192
 122:C:/Users/stapi/OneDrive/Desktop/GD32VW553/V1_MQTT_OK/GD32VW55X_Wifi_BLE_SDK/GD32VW55x_RELEASE_V1.0.2/MSDK/cloud/alicloud/src/protocol/alcs\alcs_coap.c ****     unsigned int obsVal;
 376              		.loc 1 122 1
 377 000a 2A89     		mv	s2,a0
 126:C:/Users/stapi/OneDrive/Desktop/GD32VW553/V1_MQTT_OK/GD32VW55X_Wifi_BLE_SDK/GD32VW55x_RELEASE_V1.0.2/MSDK/cloud/alicloud/src/protocol/alcs\alcs_coap.c ****     CoAPPathMD5_sum (path, strlen(path), path_calc, MAX_PATH_CHECKSUM_LEN);
 378              		.loc 1 126 28
 379 000c 2E85     		mv	a0,a1
 380              	.LVL27:
 122:C:/Users/stapi/OneDrive/Desktop/GD32VW553/V1_MQTT_OK/GD32VW55X_Wifi_BLE_SDK/GD32VW55x_RELEASE_V1.0.2/MSDK/cloud/alicloud/src/protocol/alcs\alcs_coap.c ****     unsigned int obsVal;
 381              		.loc 1 122 1
 382 000e AE84     		mv	s1,a1
 383 0010 B289     		mv	s3,a2
 384 0012 3684     		mv	s0,a3
 125:C:/Users/stapi/OneDrive/Desktop/GD32VW553/V1_MQTT_OK/GD32VW55X_Wifi_BLE_SDK/GD32VW55x_RELEASE_V1.0.2/MSDK/cloud/alicloud/src/protocol/alcs\alcs_coap.c ****     char path_calc[MAX_PATH_CHECKSUM_LEN] = {0};
 385              		.loc 1 125 10
 386 0014 02C0     		sw	zero,0(sp)
 387 0016 23020100 		sb	zero,4(sp)
 388              		.loc 1 126 5 is_stmt 1
 389              		.loc 1 126 28 is_stmt 0
 390 001a 97000000 		call	strlen
 390      E7800000 
 391              	.LVL28:
 392 0022 AA85     		mv	a1,a0
 393              		.loc 1 126 5
 394 0024 9546     		li	a3,5
 395 0026 0A86     		mv	a2,sp
 396 0028 2685     		mv	a0,s1
 397 002a 97000000 		call	CoAPPathMD5_sum
 397      E7800000 
 398              	.LVL29:
 127:C:/Users/stapi/OneDrive/Desktop/GD32VW553/V1_MQTT_OK/GD32VW55X_Wifi_BLE_SDK/GD32VW55x_RELEASE_V1.0.2/MSDK/cloud/alicloud/src/protocol/alcs\alcs_coap.c **** 
 128:C:/Users/stapi/OneDrive/Desktop/GD32VW553/V1_MQTT_OK/GD32VW55X_Wifi_BLE_SDK/GD32VW55x_RELEASE_V1.0.2/MSDK/cloud/alicloud/src/protocol/alcs\alcs_coap.c ****     list_for_each_entry_safe(node, next, &resource_cb_head, lst, resource_cb_item) {
 399              		.loc 1 128 5 is_stmt 1
 400 0032 B7070000 		lui	a5,%hi(.LANCHOR1)
 401 0036 13870700 		addi	a4,a5,%lo(.LANCHOR1)
 402 003a 5843     		lw	a4,4(a4)
 403 003c 938A0700 		addi	s5,a5,%lo(.LANCHOR1)
 404 0040 032A4700 		lw	s4,4(a4)
 405 0044 130B47FF 		addi	s6,a4,-12
 406              	.LVL30:
 407 0048 511A     		addi	s4,s4,-12
 408              	.LVL31:
 409              	.L27:
 410              		.loc 1 128 5 discriminator 1
 411 004a 9307CB00 		addi	a5,s6,12
 412 004e 639CFA06 		bne	s5,a5,.L31
 129:C:/Users/stapi/OneDrive/Desktop/GD32VW553/V1_MQTT_OK/GD32VW55X_Wifi_BLE_SDK/GD32VW55x_RELEASE_V1.0.2/MSDK/cloud/alicloud/src/protocol/alcs\alcs_coap.c ****         if (0 == memcmp(path_calc, node->path, MAX_PATH_CHECKSUM_LEN)) {
 130:C:/Users/stapi/OneDrive/Desktop/GD32VW553/V1_MQTT_OK/GD32VW55X_Wifi_BLE_SDK/GD32VW55x_RELEASE_V1.0.2/MSDK/cloud/alicloud/src/protocol/alcs\alcs_coap.c ****             if (CoAPUintOption_get (message, COAP_OPTION_OBSERVE, &obsVal) == COAP_SUCCESS) {
 131:C:/Users/stapi/OneDrive/Desktop/GD32VW553/V1_MQTT_OK/GD32VW55X_Wifi_BLE_SDK/GD32VW55x_RELEASE_V1.0.2/MSDK/cloud/alicloud/src/protocol/alcs\alcs_coap.c ****                 if (obsVal == 0) {
 132:C:/Users/stapi/OneDrive/Desktop/GD32VW553/V1_MQTT_OK/GD32VW55X_Wifi_BLE_SDK/GD32VW55x_RELEASE_V1.0.2/MSDK/cloud/alicloud/src/protocol/alcs\alcs_coap.c ****                     CoAPObsServer_add (context, path, remote, message);
 133:C:/Users/stapi/OneDrive/Desktop/GD32VW553/V1_MQTT_OK/GD32VW55X_Wifi_BLE_SDK/GD32VW55x_RELEASE_V1.0.2/MSDK/cloud/alicloud/src/protocol/alcs\alcs_coap.c ****                 }
 134:C:/Users/stapi/OneDrive/Desktop/GD32VW553/V1_MQTT_OK/GD32VW55X_Wifi_BLE_SDK/GD32VW55x_RELEASE_V1.0.2/MSDK/cloud/alicloud/src/protocol/alcs\alcs_coap.c ****             }
 135:C:/Users/stapi/OneDrive/Desktop/GD32VW553/V1_MQTT_OK/GD32VW55X_Wifi_BLE_SDK/GD32VW55x_RELEASE_V1.0.2/MSDK/cloud/alicloud/src/protocol/alcs\alcs_coap.c ****             COAP_INFO("recv_msg_handler call callback");
 136:C:/Users/stapi/OneDrive/Desktop/GD32VW553/V1_MQTT_OK/GD32VW55X_Wifi_BLE_SDK/GD32VW55x_RELEASE_V1.0.2/MSDK/cloud/alicloud/src/protocol/alcs\alcs_coap.c ****             node->cb (context, path, remote, message);
 137:C:/Users/stapi/OneDrive/Desktop/GD32VW553/V1_MQTT_OK/GD32VW55X_Wifi_BLE_SDK/GD32VW55x_RELEASE_V1.0.2/MSDK/cloud/alicloud/src/protocol/alcs\alcs_coap.c ****             return;
 138:C:/Users/stapi/OneDrive/Desktop/GD32VW553/V1_MQTT_OK/GD32VW55X_Wifi_BLE_SDK/GD32VW55x_RELEASE_V1.0.2/MSDK/cloud/alicloud/src/protocol/alcs\alcs_coap.c ****         }
 139:C:/Users/stapi/OneDrive/Desktop/GD32VW553/V1_MQTT_OK/GD32VW55X_Wifi_BLE_SDK/GD32VW55x_RELEASE_V1.0.2/MSDK/cloud/alicloud/src/protocol/alcs\alcs_coap.c ****     }
 140:C:/Users/stapi/OneDrive/Desktop/GD32VW553/V1_MQTT_OK/GD32VW55X_Wifi_BLE_SDK/GD32VW55x_RELEASE_V1.0.2/MSDK/cloud/alicloud/src/protocol/alcs\alcs_coap.c **** 
 141:C:/Users/stapi/OneDrive/Desktop/GD32VW553/V1_MQTT_OK/GD32VW55X_Wifi_BLE_SDK/GD32VW55x_RELEASE_V1.0.2/MSDK/cloud/alicloud/src/protocol/alcs\alcs_coap.c ****     COAP_ERR ("receive unknown request, path:%s", path);
 413              		.loc 1 141 5
 414              		.loc 1 141 5
 415 0052 37050000 		lui	a0,%hi(.LC3)
 416 0056 13050500 		addi	a0,a0,%lo(.LC3)
 417 005a 97000000 		call	HAL_Printf
 417      E7800000 
 418              	.LVL32:
 419              		.loc 1 141 5
 420 0062 37050000 		lui	a0,%hi(.LC4)
 421 0066 A685     		mv	a1,s1
 422 0068 13050500 		addi	a0,a0,%lo(.LC4)
 423 006c 97000000 		call	HAL_Printf
 423      E7800000 
 424              	.LVL33:
 425              		.loc 1 141 5
 426 0074 37050000 		lui	a0,%hi(.LC2)
 427 0078 13050500 		addi	a0,a0,%lo(.LC2)
 428 007c 97000000 		call	HAL_Printf
 428      E7800000 
 429              	.LVL34:
 430              		.loc 1 141 5
 142:C:/Users/stapi/OneDrive/Desktop/GD32VW553/V1_MQTT_OK/GD32VW55X_Wifi_BLE_SDK/GD32VW55x_RELEASE_V1.0.2/MSDK/cloud/alicloud/src/protocol/alcs\alcs_coap.c ****     send_err_rsp (context, remote, COAP_MSG_CODE_401_UNAUTHORIZED, message);
 431              		.loc 1 142 5
 432              	.LBB13:
 433              	.LBB14:
 114:C:/Users/stapi/OneDrive/Desktop/GD32VW553/V1_MQTT_OK/GD32VW55X_Wifi_BLE_SDK/GD32VW55x_RELEASE_V1.0.2/MSDK/cloud/alicloud/src/protocol/alcs\alcs_coap.c ****     CoAPLenString payload = {0};
 434              		.loc 1 114 5
 115:C:/Users/stapi/OneDrive/Desktop/GD32VW553/V1_MQTT_OK/GD32VW55X_Wifi_BLE_SDK/GD32VW55x_RELEASE_V1.0.2/MSDK/cloud/alicloud/src/protocol/alcs\alcs_coap.c ****     alcs_msg_init (ctx, &sendMsg, code, COAP_MESSAGE_TYPE_ACK, 0, &payload, NULL);
 435              		.loc 1 115 5
 116:C:/Users/stapi/OneDrive/Desktop/GD32VW553/V1_MQTT_OK/GD32VW55X_Wifi_BLE_SDK/GD32VW55x_RELEASE_V1.0.2/MSDK/cloud/alicloud/src/protocol/alcs\alcs_coap.c ****     CoAPLenString token = {fromMsg->header.tokenlen, fromMsg->token};
 436              		.loc 1 116 5 is_stmt 0
 437 0084 3C00     		addi	a5,sp,8
 438 0086 2C08     		addi	a1,sp,24
 439 0088 4A85     		mv	a0,s2
 440 008a 0148     		li	a6,0
 441 008c 0147     		li	a4,0
 442 008e 8946     		li	a3,2
 443 0090 13061008 		li	a2,129
 115:C:/Users/stapi/OneDrive/Desktop/GD32VW553/V1_MQTT_OK/GD32VW55X_Wifi_BLE_SDK/GD32VW55x_RELEASE_V1.0.2/MSDK/cloud/alicloud/src/protocol/alcs\alcs_coap.c ****     alcs_msg_init (ctx, &sendMsg, code, COAP_MESSAGE_TYPE_ACK, 0, &payload, NULL);
 444              		.loc 1 115 19
 445 0094 02C4     		sw	zero,8(sp)
 446 0096 02C6     		sw	zero,12(sp)
 116:C:/Users/stapi/OneDrive/Desktop/GD32VW553/V1_MQTT_OK/GD32VW55X_Wifi_BLE_SDK/GD32VW55x_RELEASE_V1.0.2/MSDK/cloud/alicloud/src/protocol/alcs\alcs_coap.c ****     CoAPLenString token = {fromMsg->header.tokenlen, fromMsg->token};
 447              		.loc 1 116 5 is_stmt 1
 448 0098 97000000 		call	alcs_msg_init
 448      E7800000 
 449              	.LVL35:
 117:C:/Users/stapi/OneDrive/Desktop/GD32VW553/V1_MQTT_OK/GD32VW55X_Wifi_BLE_SDK/GD32VW55x_RELEASE_V1.0.2/MSDK/cloud/alicloud/src/protocol/alcs\alcs_coap.c ****     alcs_sendrsp (ctx, addr, &sendMsg, 1, fromMsg->header.msgid, &token);
 450              		.loc 1 117 5
 117:C:/Users/stapi/OneDrive/Desktop/GD32VW553/V1_MQTT_OK/GD32VW55X_Wifi_BLE_SDK/GD32VW55x_RELEASE_V1.0.2/MSDK/cloud/alicloud/src/protocol/alcs\alcs_coap.c ****     alcs_sendrsp (ctx, addr, &sendMsg, 1, fromMsg->header.msgid, &token);
 451              		.loc 1 117 43 is_stmt 0
 452 00a0 1C40     		lw	a5,0(s0)
 118:C:/Users/stapi/OneDrive/Desktop/GD32VW553/V1_MQTT_OK/GD32VW55X_Wifi_BLE_SDK/GD32VW55x_RELEASE_V1.0.2/MSDK/cloud/alicloud/src/protocol/alcs\alcs_coap.c **** }
 453              		.loc 1 118 5
 454 00a2 03572400 		lhu	a4,2(s0)
 455 00a6 8546     		li	a3,1
 117:C:/Users/stapi/OneDrive/Desktop/GD32VW553/V1_MQTT_OK/GD32VW55X_Wifi_BLE_SDK/GD32VW55x_RELEASE_V1.0.2/MSDK/cloud/alicloud/src/protocol/alcs\alcs_coap.c ****     alcs_sendrsp (ctx, addr, &sendMsg, 1, fromMsg->header.msgid, &token);
 456              		.loc 1 117 43
 457 00a8 9183     		srli	a5,a5,4
 458 00aa BD8B     		andi	a5,a5,15
 459 00ac 3EC8     		sw	a5,16(sp)
 117:C:/Users/stapi/OneDrive/Desktop/GD32VW553/V1_MQTT_OK/GD32VW55X_Wifi_BLE_SDK/GD32VW55x_RELEASE_V1.0.2/MSDK/cloud/alicloud/src/protocol/alcs\alcs_coap.c ****     alcs_sendrsp (ctx, addr, &sendMsg, 1, fromMsg->header.msgid, &token);
 460              		.loc 1 117 54
 461 00ae 93074400 		addi	a5,s0,4
 117:C:/Users/stapi/OneDrive/Desktop/GD32VW553/V1_MQTT_OK/GD32VW55X_Wifi_BLE_SDK/GD32VW55x_RELEASE_V1.0.2/MSDK/cloud/alicloud/src/protocol/alcs\alcs_coap.c ****     alcs_sendrsp (ctx, addr, &sendMsg, 1, fromMsg->header.msgid, &token);
 462              		.loc 1 117 19
 463 00b2 3ECA     		sw	a5,20(sp)
 118:C:/Users/stapi/OneDrive/Desktop/GD32VW553/V1_MQTT_OK/GD32VW55X_Wifi_BLE_SDK/GD32VW55x_RELEASE_V1.0.2/MSDK/cloud/alicloud/src/protocol/alcs\alcs_coap.c **** }
 464              		.loc 1 118 5 is_stmt 1
 465 00b4 3008     		addi	a2,sp,24
 466 00b6 1C08     		addi	a5,sp,16
 467 00b8 CE85     		mv	a1,s3
 468 00ba 4A85     		mv	a0,s2
 469 00bc 97000000 		call	alcs_sendrsp
 469      E7800000 
 470              	.LVL36:
 471              	.LBE14:
 472              	.LBE13:
 473 00c4 95A8     		j	.L26
 474              	.L31:
 129:C:/Users/stapi/OneDrive/Desktop/GD32VW553/V1_MQTT_OK/GD32VW55X_Wifi_BLE_SDK/GD32VW55x_RELEASE_V1.0.2/MSDK/cloud/alicloud/src/protocol/alcs\alcs_coap.c ****             if (CoAPUintOption_get (message, COAP_OPTION_OBSERVE, &obsVal) == COAP_SUCCESS) {
 475              		.loc 1 129 9
 129:C:/Users/stapi/OneDrive/Desktop/GD32VW553/V1_MQTT_OK/GD32VW55X_Wifi_BLE_SDK/GD32VW55x_RELEASE_V1.0.2/MSDK/cloud/alicloud/src/protocol/alcs\alcs_coap.c ****             if (CoAPUintOption_get (message, COAP_OPTION_OBSERVE, &obsVal) == COAP_SUCCESS) {
 476              		.loc 1 129 18 is_stmt 0
 477 00c6 1546     		li	a2,5
 478 00c8 DA85     		mv	a1,s6
 479 00ca 0A85     		mv	a0,sp
 480 00cc 97000000 		call	memcmp
 480      E7800000 
 481              	.LVL37:
 129:C:/Users/stapi/OneDrive/Desktop/GD32VW553/V1_MQTT_OK/GD32VW55X_Wifi_BLE_SDK/GD32VW55x_RELEASE_V1.0.2/MSDK/cloud/alicloud/src/protocol/alcs\alcs_coap.c ****             if (CoAPUintOption_get (message, COAP_OPTION_OBSERVE, &obsVal) == COAP_SUCCESS) {
 482              		.loc 1 129 12
 483 00d4 3DE5     		bne	a0,zero,.L28
 130:C:/Users/stapi/OneDrive/Desktop/GD32VW553/V1_MQTT_OK/GD32VW55X_Wifi_BLE_SDK/GD32VW55x_RELEASE_V1.0.2/MSDK/cloud/alicloud/src/protocol/alcs\alcs_coap.c ****                 if (obsVal == 0) {
 484              		.loc 1 130 13 is_stmt 1
 130:C:/Users/stapi/OneDrive/Desktop/GD32VW553/V1_MQTT_OK/GD32VW55X_Wifi_BLE_SDK/GD32VW55x_RELEASE_V1.0.2/MSDK/cloud/alicloud/src/protocol/alcs\alcs_coap.c ****                 if (obsVal == 0) {
 485              		.loc 1 130 17 is_stmt 0
 486 00d6 3008     		addi	a2,sp,24
 487 00d8 9945     		li	a1,6
 488 00da 2285     		mv	a0,s0
 489 00dc 97000000 		call	CoAPUintOption_get
 489      E7800000 
 490              	.LVL38:
 131:C:/Users/stapi/OneDrive/Desktop/GD32VW553/V1_MQTT_OK/GD32VW55X_Wifi_BLE_SDK/GD32VW55x_RELEASE_V1.0.2/MSDK/cloud/alicloud/src/protocol/alcs\alcs_coap.c ****                     CoAPObsServer_add (context, path, remote, message);
 491              		.loc 1 131 17 is_stmt 1
 131:C:/Users/stapi/OneDrive/Desktop/GD32VW553/V1_MQTT_OK/GD32VW55X_Wifi_BLE_SDK/GD32VW55x_RELEASE_V1.0.2/MSDK/cloud/alicloud/src/protocol/alcs\alcs_coap.c ****                     CoAPObsServer_add (context, path, remote, message);
 492              		.loc 1 131 20 is_stmt 0
 493 00e4 E247     		lw	a5,24(sp)
 494 00e6 5D8D     		or	a0,a0,a5
 495 00e8 09E9     		bne	a0,zero,.L29
 132:C:/Users/stapi/OneDrive/Desktop/GD32VW553/V1_MQTT_OK/GD32VW55X_Wifi_BLE_SDK/GD32VW55x_RELEASE_V1.0.2/MSDK/cloud/alicloud/src/protocol/alcs\alcs_coap.c ****                 }
 496              		.loc 1 132 21 is_stmt 1
 497 00ea A286     		mv	a3,s0
 498 00ec 4E86     		mv	a2,s3
 499 00ee A685     		mv	a1,s1
 500 00f0 4A85     		mv	a0,s2
 501 00f2 97000000 		call	CoAPObsServer_add
 501      E7800000 
 502              	.LVL39:
 503              	.L29:
 135:C:/Users/stapi/OneDrive/Desktop/GD32VW553/V1_MQTT_OK/GD32VW55X_Wifi_BLE_SDK/GD32VW55x_RELEASE_V1.0.2/MSDK/cloud/alicloud/src/protocol/alcs\alcs_coap.c ****             node->cb (context, path, remote, message);
 504              		.loc 1 135 13
 135:C:/Users/stapi/OneDrive/Desktop/GD32VW553/V1_MQTT_OK/GD32VW55X_Wifi_BLE_SDK/GD32VW55x_RELEASE_V1.0.2/MSDK/cloud/alicloud/src/protocol/alcs\alcs_coap.c ****             node->cb (context, path, remote, message);
 505              		.loc 1 135 13
 506 00fa 37050000 		lui	a0,%hi(.LC0)
 507 00fe 13050500 		addi	a0,a0,%lo(.LC0)
 508 0102 97000000 		call	HAL_Printf
 508      E7800000 
 509              	.LVL40:
 135:C:/Users/stapi/OneDrive/Desktop/GD32VW553/V1_MQTT_OK/GD32VW55X_Wifi_BLE_SDK/GD32VW55x_RELEASE_V1.0.2/MSDK/cloud/alicloud/src/protocol/alcs\alcs_coap.c ****             node->cb (context, path, remote, message);
 510              		.loc 1 135 13
 511 010a 37050000 		lui	a0,%hi(.LC1)
 512 010e 13050500 		addi	a0,a0,%lo(.LC1)
 513 0112 97000000 		call	HAL_Printf
 513      E7800000 
 514              	.LVL41:
 135:C:/Users/stapi/OneDrive/Desktop/GD32VW553/V1_MQTT_OK/GD32VW55X_Wifi_BLE_SDK/GD32VW55x_RELEASE_V1.0.2/MSDK/cloud/alicloud/src/protocol/alcs\alcs_coap.c ****             node->cb (context, path, remote, message);
 515              		.loc 1 135 13
 516 011a 37050000 		lui	a0,%hi(.LC2)
 517 011e 13050500 		addi	a0,a0,%lo(.LC2)
 518 0122 97000000 		call	HAL_Printf
 518      E7800000 
 519              	.LVL42:
 135:C:/Users/stapi/OneDrive/Desktop/GD32VW553/V1_MQTT_OK/GD32VW55X_Wifi_BLE_SDK/GD32VW55x_RELEASE_V1.0.2/MSDK/cloud/alicloud/src/protocol/alcs\alcs_coap.c ****             node->cb (context, path, remote, message);
 520              		.loc 1 135 13
 136:C:/Users/stapi/OneDrive/Desktop/GD32VW553/V1_MQTT_OK/GD32VW55X_Wifi_BLE_SDK/GD32VW55x_RELEASE_V1.0.2/MSDK/cloud/alicloud/src/protocol/alcs\alcs_coap.c ****             return;
 521              		.loc 1 136 13
 522 012a 83278B00 		lw	a5,8(s6)
 523 012e A286     		mv	a3,s0
 524 0130 4E86     		mv	a2,s3
 525 0132 A685     		mv	a1,s1
 526 0134 4A85     		mv	a0,s2
 527 0136 8297     		jalr	a5
 528              	.LVL43:
 137:C:/Users/stapi/OneDrive/Desktop/GD32VW553/V1_MQTT_OK/GD32VW55X_Wifi_BLE_SDK/GD32VW55x_RELEASE_V1.0.2/MSDK/cloud/alicloud/src/protocol/alcs\alcs_coap.c ****         }
 529              		.loc 1 137 13
 530              	.L26:
 143:C:/Users/stapi/OneDrive/Desktop/GD32VW553/V1_MQTT_OK/GD32VW55X_Wifi_BLE_SDK/GD32VW55x_RELEASE_V1.0.2/MSDK/cloud/alicloud/src/protocol/alcs\alcs_coap.c **** }
 531              		.loc 1 143 1 is_stmt 0
 532 0138 0D61     		addi	sp,sp,160
 533              		.cfi_remember_state
 534              		.cfi_def_cfa_offset 0
 535 013a 17030000 		tail	__riscv_restore_7
 535      67000300 
 536              		.cfi_restore 22
 537              		.cfi_restore 21
 538              		.cfi_restore 20
 539              		.cfi_restore 19
 540              		.cfi_restore 18
 541              		.cfi_restore 9
 542              		.cfi_restore 8
 543              		.cfi_restore 1
 544              		.cfi_def_cfa_offset -32
 545              	.L28:
 546              		.cfi_restore_state
 128:C:/Users/stapi/OneDrive/Desktop/GD32VW553/V1_MQTT_OK/GD32VW55X_Wifi_BLE_SDK/GD32VW55x_RELEASE_V1.0.2/MSDK/cloud/alicloud/src/protocol/alcs\alcs_coap.c ****         if (0 == memcmp(path_calc, node->path, MAX_PATH_CHECKSUM_LEN)) {
 547              		.loc 1 128 5 is_stmt 1 discriminator 2
 548              	.LVL44:
 549 0142 83270A01 		lw	a5,16(s4)
 550              	.LVL45:
 551 0146 528B     		mv	s6,s4
 552 0148 138A47FF 		addi	s4,a5,-12
 553              	.LVL46:
 554 014c FDBD     		j	.L27
 555              		.cfi_endproc
 556              	.LFE28:
 558              		.section	.rodata.alcs_resource_register.str1.4,"aMS",@progbits,1
 559              		.align	2
 560              	.LC5:
 561 0000 414C4353 		.string	"ALCS Resource Register: %s, needAuth=%d, ctx:%p"
 561      20526573 
 561      6F757263 
 561      65205265 
 561      67697374 
 562              		.align	2
 563              	.LC6:
 564 0030 61646420 		.string	"add reg %s"
 564      72656720 
 564      257300
 565              		.section	.text.alcs_resource_register,"ax",@progbits
 566              		.align	1
 567              		.globl	alcs_resource_register
 569              	alcs_resource_register:
 570              	.LFB29:
 144:C:/Users/stapi/OneDrive/Desktop/GD32VW553/V1_MQTT_OK/GD32VW55X_Wifi_BLE_SDK/GD32VW55x_RELEASE_V1.0.2/MSDK/cloud/alicloud/src/protocol/alcs\alcs_coap.c **** 
 145:C:/Users/stapi/OneDrive/Desktop/GD32VW553/V1_MQTT_OK/GD32VW55X_Wifi_BLE_SDK/GD32VW55x_RELEASE_V1.0.2/MSDK/cloud/alicloud/src/protocol/alcs\alcs_coap.c **** //resource
 146:C:/Users/stapi/OneDrive/Desktop/GD32VW553/V1_MQTT_OK/GD32VW55X_Wifi_BLE_SDK/GD32VW55x_RELEASE_V1.0.2/MSDK/cloud/alicloud/src/protocol/alcs\alcs_coap.c **** int alcs_resource_register(CoAPContext *context, const char* pk, const char* dn, const char *path, 
 147:C:/Users/stapi/OneDrive/Desktop/GD32VW553/V1_MQTT_OK/GD32VW55X_Wifi_BLE_SDK/GD32VW55x_RELEASE_V1.0.2/MSDK/cloud/alicloud/src/protocol/alcs\alcs_coap.c ****             unsigned int ctype, unsigned int maxage, char needAuth, CoAPRecvMsgHandler callback)
 148:C:/Users/stapi/OneDrive/Desktop/GD32VW553/V1_MQTT_OK/GD32VW55X_Wifi_BLE_SDK/GD32VW55x_RELEASE_V1.0.2/MSDK/cloud/alicloud/src/protocol/alcs\alcs_coap.c **** {
 571              		.loc 1 148 1
 572              		.cfi_startproc
 573              	.LVL47:
 574 0000 17030000 		call	t0,__riscv_save_11
 574      E7020300 
 575              		.cfi_offset 26, -48
 576              		.cfi_offset 25, -44
 577              		.cfi_offset 24, -40
 578              		.cfi_offset 23, -36
 579              		.cfi_offset 22, -32
 580              		.cfi_offset 21, -28
 581              		.cfi_offset 20, -24
 582              		.cfi_offset 19, -20
 583              		.cfi_offset 18, -16
 584              		.cfi_offset 9, -12
 585              		.cfi_offset 8, -8
 586              		.cfi_offset 1, -4
 587              		.cfi_def_cfa_offset 48
 149:C:/Users/stapi/OneDrive/Desktop/GD32VW553/V1_MQTT_OK/GD32VW55X_Wifi_BLE_SDK/GD32VW55x_RELEASE_V1.0.2/MSDK/cloud/alicloud/src/protocol/alcs\alcs_coap.c ****     // COAP_DEBUG("alcs_resource_register, ctx:%p", context);
 150:C:/Users/stapi/OneDrive/Desktop/GD32VW553/V1_MQTT_OK/GD32VW55X_Wifi_BLE_SDK/GD32VW55x_RELEASE_V1.0.2/MSDK/cloud/alicloud/src/protocol/alcs\alcs_coap.c **** 	COAP_ERR("ALCS Resource Register: %s, needAuth=%d, ctx:%p",path, needAuth, context);
 588              		.loc 1 150 2
 589              		.loc 1 150 2
 148:C:/Users/stapi/OneDrive/Desktop/GD32VW553/V1_MQTT_OK/GD32VW55X_Wifi_BLE_SDK/GD32VW55x_RELEASE_V1.0.2/MSDK/cloud/alicloud/src/protocol/alcs\alcs_coap.c ****     // COAP_DEBUG("alcs_resource_register, ctx:%p", context);
 590              		.loc 1 148 1 is_stmt 0
 591 0008 2A8A     		mv	s4,a0
 592              		.loc 1 150 2
 593 000a 37050000 		lui	a0,%hi(.LC3)
 594              	.LVL48:
 148:C:/Users/stapi/OneDrive/Desktop/GD32VW553/V1_MQTT_OK/GD32VW55X_Wifi_BLE_SDK/GD32VW55x_RELEASE_V1.0.2/MSDK/cloud/alicloud/src/protocol/alcs\alcs_coap.c ****     // COAP_DEBUG("alcs_resource_register, ctx:%p", context);
 595              		.loc 1 148 1
 596 000e 4111     		addi	sp,sp,-16
 597              		.cfi_def_cfa_offset 64
 598              		.loc 1 150 2
 599 0010 13050500 		addi	a0,a0,%lo(.LC3)
 148:C:/Users/stapi/OneDrive/Desktop/GD32VW553/V1_MQTT_OK/GD32VW55X_Wifi_BLE_SDK/GD32VW55x_RELEASE_V1.0.2/MSDK/cloud/alicloud/src/protocol/alcs\alcs_coap.c ****     // COAP_DEBUG("alcs_resource_register, ctx:%p", context);
 600              		.loc 1 148 1
 601 0014 4684     		mv	s0,a7
 602 0016 B684     		mv	s1,a3
 603 0018 2E89     		mv	s2,a1
 604 001a B289     		mv	s3,a2
 605 001c BA8A     		mv	s5,a4
 606 001e 3E8B     		mv	s6,a5
 607 0020 C28B     		mv	s7,a6
 608 0022 864C     		lw	s9,64(sp)
 609              		.loc 1 150 2
 610 0024 97000000 		call	HAL_Printf
 610      E7800000 
 611              	.LVL49:
 612              		.loc 1 150 2 is_stmt 1
 613 002c 37050000 		lui	a0,%hi(.LC5)
 614 0030 13050500 		addi	a0,a0,%lo(.LC5)
 615 0034 D286     		mv	a3,s4
 616 0036 2286     		mv	a2,s0
 617 0038 A685     		mv	a1,s1
 618 003a 97000000 		call	HAL_Printf
 618      E7800000 
 619              	.LVL50:
 620              		.loc 1 150 2
 621 0042 370C0000 		lui	s8,%hi(.LC2)
 622 0046 13050C00 		addi	a0,s8,%lo(.LC2)
 623 004a 97000000 		call	HAL_Printf
 623      E7800000 
 624              	.LVL51:
 625              		.loc 1 150 2
 151:C:/Users/stapi/OneDrive/Desktop/GD32VW553/V1_MQTT_OK/GD32VW55X_Wifi_BLE_SDK/GD32VW55x_RELEASE_V1.0.2/MSDK/cloud/alicloud/src/protocol/alcs\alcs_coap.c **** 
 152:C:/Users/stapi/OneDrive/Desktop/GD32VW553/V1_MQTT_OK/GD32VW55X_Wifi_BLE_SDK/GD32VW55x_RELEASE_V1.0.2/MSDK/cloud/alicloud/src/protocol/alcs\alcs_coap.c ****     if (!needAuth) {
 626              		.loc 1 152 5
 627              		.loc 1 152 8 is_stmt 0
 628 0052 7DE8     		bne	s0,zero,.L34
 629              	.LBB15:
 153:C:/Users/stapi/OneDrive/Desktop/GD32VW553/V1_MQTT_OK/GD32VW55X_Wifi_BLE_SDK/GD32VW55x_RELEASE_V1.0.2/MSDK/cloud/alicloud/src/protocol/alcs\alcs_coap.c ****         resource_cb_item* item = (resource_cb_item*)coap_malloc (sizeof(resource_cb_item));
 630              		.loc 1 153 9 is_stmt 1
 631              		.loc 1 153 53 is_stmt 0
 632 0054 5146     		li	a2,20
 633 0056 8145     		li	a1,0
 634 0058 0145     		li	a0,0
 635 005a 97000000 		call	LITE_malloc_internal
 635      E7800000 
 636              	.LVL52:
 637 0062 2A89     		mv	s2,a0
 638              	.LVL53:
 154:C:/Users/stapi/OneDrive/Desktop/GD32VW553/V1_MQTT_OK/GD32VW55X_Wifi_BLE_SDK/GD32VW55x_RELEASE_V1.0.2/MSDK/cloud/alicloud/src/protocol/alcs\alcs_coap.c ****         CoAPPathMD5_sum (path, strlen(path), item->path, MAX_PATH_CHECKSUM_LEN);
 639              		.loc 1 154 9 is_stmt 1
 640              		.loc 1 154 32 is_stmt 0
 641 0064 2685     		mv	a0,s1
 642              	.LVL54:
 643 0066 97000000 		call	strlen
 643      E7800000 
 644              	.LVL55:
 645 006e AA85     		mv	a1,a0
 646              		.loc 1 154 9
 647 0070 9546     		li	a3,5
 648 0072 4A86     		mv	a2,s2
 649 0074 2685     		mv	a0,s1
 650 0076 97000000 		call	CoAPPathMD5_sum
 650      E7800000 
 651              	.LVL56:
 155:C:/Users/stapi/OneDrive/Desktop/GD32VW553/V1_MQTT_OK/GD32VW55X_Wifi_BLE_SDK/GD32VW55x_RELEASE_V1.0.2/MSDK/cloud/alicloud/src/protocol/alcs\alcs_coap.c ****         char               calc_path[MAX_PATH_CHECKSUM_LEN];
 652              		.loc 1 155 9 is_stmt 1
 156:C:/Users/stapi/OneDrive/Desktop/GD32VW553/V1_MQTT_OK/GD32VW55X_Wifi_BLE_SDK/GD32VW55x_RELEASE_V1.0.2/MSDK/cloud/alicloud/src/protocol/alcs\alcs_coap.c **** 	    resource_cb_item* dul_item = NULL;
 653              		.loc 1 156 6
 157:C:/Users/stapi/OneDrive/Desktop/GD32VW553/V1_MQTT_OK/GD32VW55X_Wifi_BLE_SDK/GD32VW55x_RELEASE_V1.0.2/MSDK/cloud/alicloud/src/protocol/alcs\alcs_coap.c ****         CoAPPathMD5_sum (path, strlen(path), calc_path, MAX_PATH_CHECKSUM_LEN);
 654              		.loc 1 157 9
 655              		.loc 1 157 32 is_stmt 0
 656 007e 2685     		mv	a0,s1
 657 0080 97000000 		call	strlen
 657      E7800000 
 658              	.LVL57:
 659 0088 AA85     		mv	a1,a0
 660              		.loc 1 157 9
 661 008a 9546     		li	a3,5
 662 008c 3000     		addi	a2,sp,8
 663 008e 2685     		mv	a0,s1
 664 0090 97000000 		call	CoAPPathMD5_sum
 664      E7800000 
 665              	.LVL58:
 158:C:/Users/stapi/OneDrive/Desktop/GD32VW553/V1_MQTT_OK/GD32VW55X_Wifi_BLE_SDK/GD32VW55x_RELEASE_V1.0.2/MSDK/cloud/alicloud/src/protocol/alcs\alcs_coap.c ****         list_for_each_entry(dul_item,&resource_cb_head,lst,resource_cb_item)
 666              		.loc 1 158 9 is_stmt 1
 667 0098 370D0000 		lui	s10,%hi(.LANCHOR1)
 668 009c 93070D00 		addi	a5,s10,%lo(.LANCHOR1)
 669 00a0 83A94700 		lw	s3,4(a5)
 670              	.LVL59:
 671 00a4 130D0D00 		addi	s10,s10,%lo(.LANCHOR1)
 672 00a8 D119     		addi	s3,s3,-12
 673              	.LVL60:
 674              	.L35:
 675              		.loc 1 158 9 discriminator 1
 676 00aa 9387C900 		addi	a5,s3,12
 677 00ae 6315FD06 		bne	s10,a5,.L38
 159:C:/Users/stapi/OneDrive/Desktop/GD32VW553/V1_MQTT_OK/GD32VW55X_Wifi_BLE_SDK/GD32VW55x_RELEASE_V1.0.2/MSDK/cloud/alicloud/src/protocol/alcs\alcs_coap.c ****         {
 160:C:/Users/stapi/OneDrive/Desktop/GD32VW553/V1_MQTT_OK/GD32VW55X_Wifi_BLE_SDK/GD32VW55x_RELEASE_V1.0.2/MSDK/cloud/alicloud/src/protocol/alcs\alcs_coap.c ****             if (memcmp(dul_item->path, calc_path, MAX_PATH_CHECKSUM_LEN) == 0){
 161:C:/Users/stapi/OneDrive/Desktop/GD32VW553/V1_MQTT_OK/GD32VW55X_Wifi_BLE_SDK/GD32VW55x_RELEASE_V1.0.2/MSDK/cloud/alicloud/src/protocol/alcs\alcs_coap.c ****                 // COAP_INFO("dul %s",path);
 162:C:/Users/stapi/OneDrive/Desktop/GD32VW553/V1_MQTT_OK/GD32VW55X_Wifi_BLE_SDK/GD32VW55x_RELEASE_V1.0.2/MSDK/cloud/alicloud/src/protocol/alcs\alcs_coap.c ****                 coap_free(item);
 163:C:/Users/stapi/OneDrive/Desktop/GD32VW553/V1_MQTT_OK/GD32VW55X_Wifi_BLE_SDK/GD32VW55x_RELEASE_V1.0.2/MSDK/cloud/alicloud/src/protocol/alcs\alcs_coap.c ****                 return COAP_SUCCESS;
 164:C:/Users/stapi/OneDrive/Desktop/GD32VW553/V1_MQTT_OK/GD32VW55X_Wifi_BLE_SDK/GD32VW55x_RELEASE_V1.0.2/MSDK/cloud/alicloud/src/protocol/alcs\alcs_coap.c ****             }
 165:C:/Users/stapi/OneDrive/Desktop/GD32VW553/V1_MQTT_OK/GD32VW55X_Wifi_BLE_SDK/GD32VW55x_RELEASE_V1.0.2/MSDK/cloud/alicloud/src/protocol/alcs\alcs_coap.c ****         }
 166:C:/Users/stapi/OneDrive/Desktop/GD32VW553/V1_MQTT_OK/GD32VW55X_Wifi_BLE_SDK/GD32VW55x_RELEASE_V1.0.2/MSDK/cloud/alicloud/src/protocol/alcs\alcs_coap.c ****         COAP_INFO("add reg %s",path);
 678              		.loc 1 166 9
 679              		.loc 1 166 9
 680 00b2 37050000 		lui	a0,%hi(.LC0)
 681 00b6 13050500 		addi	a0,a0,%lo(.LC0)
 682 00ba 97000000 		call	HAL_Printf
 682      E7800000 
 683              	.LVL61:
 684              		.loc 1 166 9
 685 00c2 37050000 		lui	a0,%hi(.LC6)
 686 00c6 A685     		mv	a1,s1
 687 00c8 13050500 		addi	a0,a0,%lo(.LC6)
 688 00cc 97000000 		call	HAL_Printf
 688      E7800000 
 689              	.LVL62:
 690              		.loc 1 166 9
 691 00d4 13050C00 		addi	a0,s8,%lo(.LC2)
 692 00d8 97000000 		call	HAL_Printf
 692      E7800000 
 693              	.LVL63:
 694              		.loc 1 166 9
 167:C:/Users/stapi/OneDrive/Desktop/GD32VW553/V1_MQTT_OK/GD32VW55X_Wifi_BLE_SDK/GD32VW55x_RELEASE_V1.0.2/MSDK/cloud/alicloud/src/protocol/alcs\alcs_coap.c ****         item->cb = callback;
 695              		.loc 1 167 9
 696              	.LBB16:
 697              	.LBB17:
 698              		.file 2 "..\\..\\..\\..\\cloud\\alicloud\\src\\infra\\utils\\misc/lite-list.h"
   1:..\..\..\..\cloud\alicloud\src\infra\utils\misc/lite-list.h **** /*
   2:..\..\..\..\cloud\alicloud\src\infra\utils\misc/lite-list.h ****  * Copyright (C) 2015-2018 Alibaba Group Holding Limited
   3:..\..\..\..\cloud\alicloud\src\infra\utils\misc/lite-list.h ****  */
   4:..\..\..\..\cloud\alicloud\src\infra\utils\misc/lite-list.h **** 
   5:..\..\..\..\cloud\alicloud\src\infra\utils\misc/lite-list.h **** #ifndef AOS_LIST_H
   6:..\..\..\..\cloud\alicloud\src\infra\utils\misc/lite-list.h **** #define AOS_LIST_H
   7:..\..\..\..\cloud\alicloud\src\infra\utils\misc/lite-list.h **** 
   8:..\..\..\..\cloud\alicloud\src\infra\utils\misc/lite-list.h **** #ifdef __cplusplus
   9:..\..\..\..\cloud\alicloud\src\infra\utils\misc/lite-list.h **** extern "C" {
  10:..\..\..\..\cloud\alicloud\src\infra\utils\misc/lite-list.h **** #endif
  11:..\..\..\..\cloud\alicloud\src\infra\utils\misc/lite-list.h **** 
  12:..\..\..\..\cloud\alicloud\src\infra\utils\misc/lite-list.h **** /*
  13:..\..\..\..\cloud\alicloud\src\infra\utils\misc/lite-list.h ****  * Get offset of a member variable.
  14:..\..\..\..\cloud\alicloud\src\infra\utils\misc/lite-list.h ****  *
  15:..\..\..\..\cloud\alicloud\src\infra\utils\misc/lite-list.h ****  * @param[in]   type     the type of the struct this is embedded in.
  16:..\..\..\..\cloud\alicloud\src\infra\utils\misc/lite-list.h ****  * @param[in]   member   the name of the variable within the struct.
  17:..\..\..\..\cloud\alicloud\src\infra\utils\misc/lite-list.h ****  */
  18:..\..\..\..\cloud\alicloud\src\infra\utils\misc/lite-list.h **** #define aos_offsetof(type, member)   ((size_t)&(((type *)0)->member))
  19:..\..\..\..\cloud\alicloud\src\infra\utils\misc/lite-list.h **** 
  20:..\..\..\..\cloud\alicloud\src\infra\utils\misc/lite-list.h **** /*
  21:..\..\..\..\cloud\alicloud\src\infra\utils\misc/lite-list.h ****  * Get the struct for this entry.
  22:..\..\..\..\cloud\alicloud\src\infra\utils\misc/lite-list.h ****  *
  23:..\..\..\..\cloud\alicloud\src\infra\utils\misc/lite-list.h ****  * @param[in]   ptr     the list head to take the element from.
  24:..\..\..\..\cloud\alicloud\src\infra\utils\misc/lite-list.h ****  * @param[in]   type    the type of the struct this is embedded in.
  25:..\..\..\..\cloud\alicloud\src\infra\utils\misc/lite-list.h ****  * @param[in]   member  the name of the variable within the struct.
  26:..\..\..\..\cloud\alicloud\src\infra\utils\misc/lite-list.h ****  */
  27:..\..\..\..\cloud\alicloud\src\infra\utils\misc/lite-list.h **** #define aos_container_of(ptr, type, member) \
  28:..\..\..\..\cloud\alicloud\src\infra\utils\misc/lite-list.h ****     ((type *) ((char *) (ptr) - aos_offsetof(type, member)))
  29:..\..\..\..\cloud\alicloud\src\infra\utils\misc/lite-list.h **** 
  30:..\..\..\..\cloud\alicloud\src\infra\utils\misc/lite-list.h **** /* for double link list */
  31:..\..\..\..\cloud\alicloud\src\infra\utils\misc/lite-list.h **** typedef struct dlist_s {
  32:..\..\..\..\cloud\alicloud\src\infra\utils\misc/lite-list.h ****     struct dlist_s *prev;
  33:..\..\..\..\cloud\alicloud\src\infra\utils\misc/lite-list.h ****     struct dlist_s *next;
  34:..\..\..\..\cloud\alicloud\src\infra\utils\misc/lite-list.h **** } dlist_t;
  35:..\..\..\..\cloud\alicloud\src\infra\utils\misc/lite-list.h **** 
  36:..\..\..\..\cloud\alicloud\src\infra\utils\misc/lite-list.h **** static inline void __dlist_add(dlist_t *node, dlist_t *prev, dlist_t *next)
  37:..\..\..\..\cloud\alicloud\src\infra\utils\misc/lite-list.h **** {
  38:..\..\..\..\cloud\alicloud\src\infra\utils\misc/lite-list.h ****     node->next = next;
  39:..\..\..\..\cloud\alicloud\src\infra\utils\misc/lite-list.h ****     node->prev = prev;
  40:..\..\..\..\cloud\alicloud\src\infra\utils\misc/lite-list.h **** 
  41:..\..\..\..\cloud\alicloud\src\infra\utils\misc/lite-list.h ****     prev->next = node;
  42:..\..\..\..\cloud\alicloud\src\infra\utils\misc/lite-list.h ****     next->prev = node;
  43:..\..\..\..\cloud\alicloud\src\infra\utils\misc/lite-list.h **** }
  44:..\..\..\..\cloud\alicloud\src\infra\utils\misc/lite-list.h **** 
  45:..\..\..\..\cloud\alicloud\src\infra\utils\misc/lite-list.h **** /*
  46:..\..\..\..\cloud\alicloud\src\infra\utils\misc/lite-list.h ****  * Get the struct for this entry.
  47:..\..\..\..\cloud\alicloud\src\infra\utils\misc/lite-list.h ****  *
  48:..\..\..\..\cloud\alicloud\src\infra\utils\misc/lite-list.h ****  * @param[in]   addr    the list head to take the element from.
  49:..\..\..\..\cloud\alicloud\src\infra\utils\misc/lite-list.h ****  * @param[in]   type    the type of the struct this is embedded in.
  50:..\..\..\..\cloud\alicloud\src\infra\utils\misc/lite-list.h ****  * @param[in]   member  the name of the dlist_t within the struct.
  51:..\..\..\..\cloud\alicloud\src\infra\utils\misc/lite-list.h ****  */
  52:..\..\..\..\cloud\alicloud\src\infra\utils\misc/lite-list.h **** #define dlist_entry(addr, type, member) \
  53:..\..\..\..\cloud\alicloud\src\infra\utils\misc/lite-list.h ****     ((type *)((long)addr - aos_offsetof(type, member)))
  54:..\..\..\..\cloud\alicloud\src\infra\utils\misc/lite-list.h **** 
  55:..\..\..\..\cloud\alicloud\src\infra\utils\misc/lite-list.h **** 
  56:..\..\..\..\cloud\alicloud\src\infra\utils\misc/lite-list.h **** static inline void dlist_add(dlist_t *node, dlist_t *queue)
  57:..\..\..\..\cloud\alicloud\src\infra\utils\misc/lite-list.h **** {
  58:..\..\..\..\cloud\alicloud\src\infra\utils\misc/lite-list.h ****     __dlist_add(node, queue, queue->next);
  59:..\..\..\..\cloud\alicloud\src\infra\utils\misc/lite-list.h **** }
  60:..\..\..\..\cloud\alicloud\src\infra\utils\misc/lite-list.h **** 
  61:..\..\..\..\cloud\alicloud\src\infra\utils\misc/lite-list.h **** static inline void dlist_add_tail(dlist_t *node, dlist_t *queue)
  62:..\..\..\..\cloud\alicloud\src\infra\utils\misc/lite-list.h **** {
  63:..\..\..\..\cloud\alicloud\src\infra\utils\misc/lite-list.h ****     __dlist_add(node, queue->prev, queue);
 699              		.loc 2 63 28 is_stmt 0
 700 00e0 03270D00 		lw	a4,0(s10)
 701              	.LBE17:
 702              	.LBE16:
 168:C:/Users/stapi/OneDrive/Desktop/GD32VW553/V1_MQTT_OK/GD32VW55X_Wifi_BLE_SDK/GD32VW55x_RELEASE_V1.0.2/MSDK/cloud/alicloud/src/protocol/alcs\alcs_coap.c ****         list_add_tail(&item->lst, &resource_cb_head);
 703              		.loc 1 168 23
 704 00e4 9307C900 		addi	a5,s2,12
 167:C:/Users/stapi/OneDrive/Desktop/GD32VW553/V1_MQTT_OK/GD32VW55X_Wifi_BLE_SDK/GD32VW55x_RELEASE_V1.0.2/MSDK/cloud/alicloud/src/protocol/alcs\alcs_coap.c ****         item->cb = callback;
 705              		.loc 1 167 18
 706 00e8 23249901 		sw	s9,8(s2)
 707              		.loc 1 168 9 is_stmt 1
 708              	.LVL64:
 709              	.LBB21:
 710              	.LBB20:
 711              		.loc 2 63 5
 712              	.LBB18:
 713              	.LBB19:
  38:..\..\..\..\cloud\alicloud\src\infra\utils\misc/lite-list.h ****     node->prev = prev;
 714              		.loc 2 38 5
  39:..\..\..\..\cloud\alicloud\src\infra\utils\misc/lite-list.h **** 
 715              		.loc 2 39 16 is_stmt 0
 716 00ec 2326E900 		sw	a4,12(s2)
  38:..\..\..\..\cloud\alicloud\src\infra\utils\misc/lite-list.h ****     node->prev = prev;
 717              		.loc 2 38 16
 718 00f0 2328A901 		sw	s10,16(s2)
  39:..\..\..\..\cloud\alicloud\src\infra\utils\misc/lite-list.h **** 
 719              		.loc 2 39 5 is_stmt 1
  41:..\..\..\..\cloud\alicloud\src\infra\utils\misc/lite-list.h ****     next->prev = node;
 720              		.loc 2 41 5
  41:..\..\..\..\cloud\alicloud\src\infra\utils\misc/lite-list.h ****     next->prev = node;
 721              		.loc 2 41 16 is_stmt 0
 722 00f4 5CC3     		sw	a5,4(a4)
  42:..\..\..\..\cloud\alicloud\src\infra\utils\misc/lite-list.h **** }
 723              		.loc 2 42 5 is_stmt 1
  42:..\..\..\..\cloud\alicloud\src\infra\utils\misc/lite-list.h **** }
 724              		.loc 2 42 16 is_stmt 0
 725 00f6 2320FD00 		sw	a5,0(s10)
 726              	.LVL65:
 727              	.LBE19:
 728              	.LBE18:
 729              	.LBE20:
 730              	.LBE21:
 169:C:/Users/stapi/OneDrive/Desktop/GD32VW553/V1_MQTT_OK/GD32VW55X_Wifi_BLE_SDK/GD32VW55x_RELEASE_V1.0.2/MSDK/cloud/alicloud/src/protocol/alcs\alcs_coap.c ****         return CoAPResource_register (context, path, permission, ctype, maxage, &recv_msg_handler);
 731              		.loc 1 169 9 is_stmt 1
 732              		.loc 1 169 16 is_stmt 0
 733 00fa B7070000 		lui	a5,%hi(recv_msg_handler)
 734 00fe 93870700 		addi	a5,a5,%lo(recv_msg_handler)
 735 0102 5E87     		mv	a4,s7
 736 0104 DA86     		mv	a3,s6
 737 0106 5686     		mv	a2,s5
 738 0108 A685     		mv	a1,s1
 739 010a 5285     		mv	a0,s4
 740 010c 97000000 		call	CoAPResource_register
 740      E7800000 
 741              	.LVL66:
 742              	.L41:
 743              	.LBE15:
 170:C:/Users/stapi/OneDrive/Desktop/GD32VW553/V1_MQTT_OK/GD32VW55X_Wifi_BLE_SDK/GD32VW55x_RELEASE_V1.0.2/MSDK/cloud/alicloud/src/protocol/alcs\alcs_coap.c ****     } else {
 171:C:/Users/stapi/OneDrive/Desktop/GD32VW553/V1_MQTT_OK/GD32VW55X_Wifi_BLE_SDK/GD32VW55x_RELEASE_V1.0.2/MSDK/cloud/alicloud/src/protocol/alcs\alcs_coap.c **** #ifdef USE_ALCS_SECURE
 172:C:/Users/stapi/OneDrive/Desktop/GD32VW553/V1_MQTT_OK/GD32VW55X_Wifi_BLE_SDK/GD32VW55x_RELEASE_V1.0.2/MSDK/cloud/alicloud/src/protocol/alcs\alcs_coap.c ****         return alcs_resource_register_secure (context, pk, dn, path, permission, ctype, maxage, cal
 744              		.loc 1 172 16
 745 0114 2A84     		mv	s0,a0
 746 0116 39A8     		j	.L33
 747              	.LVL67:
 748              	.L38:
 749              	.LBB22:
 160:C:/Users/stapi/OneDrive/Desktop/GD32VW553/V1_MQTT_OK/GD32VW55X_Wifi_BLE_SDK/GD32VW55x_RELEASE_V1.0.2/MSDK/cloud/alicloud/src/protocol/alcs\alcs_coap.c ****                 // COAP_INFO("dul %s",path);
 750              		.loc 1 160 13 is_stmt 1
 160:C:/Users/stapi/OneDrive/Desktop/GD32VW553/V1_MQTT_OK/GD32VW55X_Wifi_BLE_SDK/GD32VW55x_RELEASE_V1.0.2/MSDK/cloud/alicloud/src/protocol/alcs\alcs_coap.c ****                 // COAP_INFO("dul %s",path);
 751              		.loc 1 160 17 is_stmt 0
 752 0118 1546     		li	a2,5
 753 011a 2C00     		addi	a1,sp,8
 754 011c 4E85     		mv	a0,s3
 755 011e 97000000 		call	memcmp
 755      E7800000 
 756              	.LVL68:
 757 0126 2A84     		mv	s0,a0
 160:C:/Users/stapi/OneDrive/Desktop/GD32VW553/V1_MQTT_OK/GD32VW55X_Wifi_BLE_SDK/GD32VW55x_RELEASE_V1.0.2/MSDK/cloud/alicloud/src/protocol/alcs\alcs_coap.c ****                 // COAP_INFO("dul %s",path);
 758              		.loc 1 160 16
 759 0128 01ED     		bne	a0,zero,.L36
 162:C:/Users/stapi/OneDrive/Desktop/GD32VW553/V1_MQTT_OK/GD32VW55X_Wifi_BLE_SDK/GD32VW55x_RELEASE_V1.0.2/MSDK/cloud/alicloud/src/protocol/alcs\alcs_coap.c ****                 return COAP_SUCCESS;
 760              		.loc 1 162 17 is_stmt 1
 761 012a 4A85     		mv	a0,s2
 762 012c 97000000 		call	LITE_free_internal
 762      E7800000 
 763              	.LVL69:
 163:C:/Users/stapi/OneDrive/Desktop/GD32VW553/V1_MQTT_OK/GD32VW55X_Wifi_BLE_SDK/GD32VW55x_RELEASE_V1.0.2/MSDK/cloud/alicloud/src/protocol/alcs\alcs_coap.c ****             }
 764              		.loc 1 163 17
 765              	.L33:
 766              	.LBE22:
 173:C:/Users/stapi/OneDrive/Desktop/GD32VW553/V1_MQTT_OK/GD32VW55X_Wifi_BLE_SDK/GD32VW55x_RELEASE_V1.0.2/MSDK/cloud/alicloud/src/protocol/alcs\alcs_coap.c **** #else
 174:C:/Users/stapi/OneDrive/Desktop/GD32VW553/V1_MQTT_OK/GD32VW55X_Wifi_BLE_SDK/GD32VW55x_RELEASE_V1.0.2/MSDK/cloud/alicloud/src/protocol/alcs\alcs_coap.c ****         return -1;
 175:C:/Users/stapi/OneDrive/Desktop/GD32VW553/V1_MQTT_OK/GD32VW55X_Wifi_BLE_SDK/GD32VW55x_RELEASE_V1.0.2/MSDK/cloud/alicloud/src/protocol/alcs\alcs_coap.c **** #endif
 176:C:/Users/stapi/OneDrive/Desktop/GD32VW553/V1_MQTT_OK/GD32VW55X_Wifi_BLE_SDK/GD32VW55x_RELEASE_V1.0.2/MSDK/cloud/alicloud/src/protocol/alcs\alcs_coap.c ****     }
 177:C:/Users/stapi/OneDrive/Desktop/GD32VW553/V1_MQTT_OK/GD32VW55X_Wifi_BLE_SDK/GD32VW55x_RELEASE_V1.0.2/MSDK/cloud/alicloud/src/protocol/alcs\alcs_coap.c **** }
 767              		.loc 1 177 1 is_stmt 0
 768 0134 2285     		mv	a0,s0
 769 0136 4101     		addi	sp,sp,16
 770              		.cfi_remember_state
 771              		.cfi_def_cfa_offset 0
 772              	.LVL70:
 773 0138 17030000 		tail	__riscv_restore_11
 773      67000300 
 774              		.cfi_restore 26
 775              		.cfi_restore 25
 776              		.cfi_restore 24
 777              		.cfi_restore 23
 778              		.cfi_restore 22
 779              		.cfi_restore 21
 780              		.cfi_restore 20
 781              		.cfi_restore 19
 782              		.cfi_restore 18
 783              		.cfi_restore 9
 784              		.cfi_restore 8
 785              		.cfi_restore 1
 786              		.cfi_def_cfa_offset -48
 787              	.LVL71:
 788              	.L36:
 789              		.cfi_restore_state
 790              	.LBB23:
 158:C:/Users/stapi/OneDrive/Desktop/GD32VW553/V1_MQTT_OK/GD32VW55X_Wifi_BLE_SDK/GD32VW55x_RELEASE_V1.0.2/MSDK/cloud/alicloud/src/protocol/alcs\alcs_coap.c ****         {
 791              		.loc 1 158 9 is_stmt 1 discriminator 2
 792 0140 83A90901 		lw	s3,16(s3)
 793              	.LVL72:
 794 0144 D119     		addi	s3,s3,-12
 795              	.LVL73:
 796 0146 95B7     		j	.L35
 797              	.LVL74:
 798              	.L34:
 799              	.LBE23:
 172:C:/Users/stapi/OneDrive/Desktop/GD32VW553/V1_MQTT_OK/GD32VW55X_Wifi_BLE_SDK/GD32VW55x_RELEASE_V1.0.2/MSDK/cloud/alicloud/src/protocol/alcs\alcs_coap.c **** #else
 800              		.loc 1 172 9
 172:C:/Users/stapi/OneDrive/Desktop/GD32VW553/V1_MQTT_OK/GD32VW55X_Wifi_BLE_SDK/GD32VW55x_RELEASE_V1.0.2/MSDK/cloud/alicloud/src/protocol/alcs\alcs_coap.c **** #else
 801              		.loc 1 172 16 is_stmt 0
 802 0148 E688     		mv	a7,s9
 803 014a 5E88     		mv	a6,s7
 804 014c DA87     		mv	a5,s6
 805 014e 5687     		mv	a4,s5
 806 0150 A686     		mv	a3,s1
 807 0152 4E86     		mv	a2,s3
 808 0154 CA85     		mv	a1,s2
 809 0156 5285     		mv	a0,s4
 810 0158 97000000 		call	alcs_resource_register_secure
 810      E7800000 
 811              	.LVL75:
 812 0160 55BF     		j	.L41
 813              		.cfi_endproc
 814              	.LFE29:
 816              		.section	.text.alcs_resource_need_auth,"ax",@progbits
 817              		.align	1
 818              		.globl	alcs_resource_need_auth
 820              	alcs_resource_need_auth:
 821              	.LFB30:
 178:C:/Users/stapi/OneDrive/Desktop/GD32VW553/V1_MQTT_OK/GD32VW55X_Wifi_BLE_SDK/GD32VW55x_RELEASE_V1.0.2/MSDK/cloud/alicloud/src/protocol/alcs\alcs_coap.c **** 
 179:C:/Users/stapi/OneDrive/Desktop/GD32VW553/V1_MQTT_OK/GD32VW55X_Wifi_BLE_SDK/GD32VW55x_RELEASE_V1.0.2/MSDK/cloud/alicloud/src/protocol/alcs\alcs_coap.c **** #ifdef DEVICE_MODEL_GATEWAY
 180:C:/Users/stapi/OneDrive/Desktop/GD32VW553/V1_MQTT_OK/GD32VW55X_Wifi_BLE_SDK/GD32VW55x_RELEASE_V1.0.2/MSDK/cloud/alicloud/src/protocol/alcs\alcs_coap.c **** void alcs_resource_unregister(void *handle, const char* pk, const char* dn)
 181:C:/Users/stapi/OneDrive/Desktop/GD32VW553/V1_MQTT_OK/GD32VW55X_Wifi_BLE_SDK/GD32VW55x_RELEASE_V1.0.2/MSDK/cloud/alicloud/src/protocol/alcs\alcs_coap.c **** {
 182:C:/Users/stapi/OneDrive/Desktop/GD32VW553/V1_MQTT_OK/GD32VW55X_Wifi_BLE_SDK/GD32VW55x_RELEASE_V1.0.2/MSDK/cloud/alicloud/src/protocol/alcs\alcs_coap.c **** 	resource_cb_item* del_item = NULL;
 183:C:/Users/stapi/OneDrive/Desktop/GD32VW553/V1_MQTT_OK/GD32VW55X_Wifi_BLE_SDK/GD32VW55x_RELEASE_V1.0.2/MSDK/cloud/alicloud/src/protocol/alcs\alcs_coap.c ****     // char* path = (char*)coap_malloc(sizeof(char)*256);
 184:C:/Users/stapi/OneDrive/Desktop/GD32VW553/V1_MQTT_OK/GD32VW55X_Wifi_BLE_SDK/GD32VW55x_RELEASE_V1.0.2/MSDK/cloud/alicloud/src/protocol/alcs\alcs_coap.c ****     char path[256];
 185:C:/Users/stapi/OneDrive/Desktop/GD32VW553/V1_MQTT_OK/GD32VW55X_Wifi_BLE_SDK/GD32VW55x_RELEASE_V1.0.2/MSDK/cloud/alicloud/src/protocol/alcs\alcs_coap.c ****     iotx_alcs_adapter_t *adapter = (iotx_alcs_adapter_t *)handle;
 186:C:/Users/stapi/OneDrive/Desktop/GD32VW553/V1_MQTT_OK/GD32VW55X_Wifi_BLE_SDK/GD32VW55x_RELEASE_V1.0.2/MSDK/cloud/alicloud/src/protocol/alcs\alcs_coap.c ****     memset(path, 0, sizeof(path));
 187:C:/Users/stapi/OneDrive/Desktop/GD32VW553/V1_MQTT_OK/GD32VW55X_Wifi_BLE_SDK/GD32VW55x_RELEASE_V1.0.2/MSDK/cloud/alicloud/src/protocol/alcs\alcs_coap.c ****     HAL_Snprintf(path, sizeof(path), "/dev/%s/%s/core/service/auth", pk, dn);
 188:C:/Users/stapi/OneDrive/Desktop/GD32VW553/V1_MQTT_OK/GD32VW55X_Wifi_BLE_SDK/GD32VW55x_RELEASE_V1.0.2/MSDK/cloud/alicloud/src/protocol/alcs\alcs_coap.c ****     CoAPResource_unregister(adapter->coap_ctx, path);
 189:C:/Users/stapi/OneDrive/Desktop/GD32VW553/V1_MQTT_OK/GD32VW55X_Wifi_BLE_SDK/GD32VW55x_RELEASE_V1.0.2/MSDK/cloud/alicloud/src/protocol/alcs\alcs_coap.c ****     char               calc_path[MAX_PATH_CHECKSUM_LEN];
 190:C:/Users/stapi/OneDrive/Desktop/GD32VW553/V1_MQTT_OK/GD32VW55X_Wifi_BLE_SDK/GD32VW55x_RELEASE_V1.0.2/MSDK/cloud/alicloud/src/protocol/alcs\alcs_coap.c ****     CoAPPathMD5_sum (path, strlen(path), calc_path, MAX_PATH_CHECKSUM_LEN);
 191:C:/Users/stapi/OneDrive/Desktop/GD32VW553/V1_MQTT_OK/GD32VW55X_Wifi_BLE_SDK/GD32VW55x_RELEASE_V1.0.2/MSDK/cloud/alicloud/src/protocol/alcs\alcs_coap.c **** 	list_for_each_entry(del_item,&resource_cb_head,lst,resource_cb_item)
 192:C:/Users/stapi/OneDrive/Desktop/GD32VW553/V1_MQTT_OK/GD32VW55X_Wifi_BLE_SDK/GD32VW55x_RELEASE_V1.0.2/MSDK/cloud/alicloud/src/protocol/alcs\alcs_coap.c **** 	{
 193:C:/Users/stapi/OneDrive/Desktop/GD32VW553/V1_MQTT_OK/GD32VW55X_Wifi_BLE_SDK/GD32VW55x_RELEASE_V1.0.2/MSDK/cloud/alicloud/src/protocol/alcs\alcs_coap.c ****         if (memcmp(del_item->path, calc_path, MAX_PATH_CHECKSUM_LEN) == 0){
 194:C:/Users/stapi/OneDrive/Desktop/GD32VW553/V1_MQTT_OK/GD32VW55X_Wifi_BLE_SDK/GD32VW55x_RELEASE_V1.0.2/MSDK/cloud/alicloud/src/protocol/alcs\alcs_coap.c ****             list_del(&del_item->lst);
 195:C:/Users/stapi/OneDrive/Desktop/GD32VW553/V1_MQTT_OK/GD32VW55X_Wifi_BLE_SDK/GD32VW55x_RELEASE_V1.0.2/MSDK/cloud/alicloud/src/protocol/alcs\alcs_coap.c ****             coap_free(del_item);
 196:C:/Users/stapi/OneDrive/Desktop/GD32VW553/V1_MQTT_OK/GD32VW55X_Wifi_BLE_SDK/GD32VW55x_RELEASE_V1.0.2/MSDK/cloud/alicloud/src/protocol/alcs\alcs_coap.c ****             // COAP_INFO("sub unreg %s",path);
 197:C:/Users/stapi/OneDrive/Desktop/GD32VW553/V1_MQTT_OK/GD32VW55X_Wifi_BLE_SDK/GD32VW55x_RELEASE_V1.0.2/MSDK/cloud/alicloud/src/protocol/alcs\alcs_coap.c ****         }
 198:C:/Users/stapi/OneDrive/Desktop/GD32VW553/V1_MQTT_OK/GD32VW55X_Wifi_BLE_SDK/GD32VW55x_RELEASE_V1.0.2/MSDK/cloud/alicloud/src/protocol/alcs\alcs_coap.c **** 	}
 199:C:/Users/stapi/OneDrive/Desktop/GD32VW553/V1_MQTT_OK/GD32VW55X_Wifi_BLE_SDK/GD32VW55x_RELEASE_V1.0.2/MSDK/cloud/alicloud/src/protocol/alcs\alcs_coap.c **** }
 200:C:/Users/stapi/OneDrive/Desktop/GD32VW553/V1_MQTT_OK/GD32VW55X_Wifi_BLE_SDK/GD32VW55x_RELEASE_V1.0.2/MSDK/cloud/alicloud/src/protocol/alcs\alcs_coap.c **** #endif
 201:C:/Users/stapi/OneDrive/Desktop/GD32VW553/V1_MQTT_OK/GD32VW55X_Wifi_BLE_SDK/GD32VW55x_RELEASE_V1.0.2/MSDK/cloud/alicloud/src/protocol/alcs\alcs_coap.c **** int alcs_resource_need_auth (CoAPContext *context, const char *path)
 202:C:/Users/stapi/OneDrive/Desktop/GD32VW553/V1_MQTT_OK/GD32VW55X_Wifi_BLE_SDK/GD32VW55x_RELEASE_V1.0.2/MSDK/cloud/alicloud/src/protocol/alcs\alcs_coap.c **** {
 822              		.loc 1 202 1 is_stmt 1
 823              		.cfi_startproc
 824              	.LVL76:
 825 0000 17030000 		call	t0,__riscv_save_2
 825      E7020300 
 826              		.cfi_offset 9, -12
 827              		.cfi_offset 8, -8
 828              		.cfi_offset 1, -4
 829              		.cfi_def_cfa_offset 16
 203:C:/Users/stapi/OneDrive/Desktop/GD32VW553/V1_MQTT_OK/GD32VW55X_Wifi_BLE_SDK/GD32VW55x_RELEASE_V1.0.2/MSDK/cloud/alicloud/src/protocol/alcs\alcs_coap.c ****     resource_cb_item *node = NULL, *next = NULL;
 830              		.loc 1 203 5
 831              	.LVL77:
 204:C:/Users/stapi/OneDrive/Desktop/GD32VW553/V1_MQTT_OK/GD32VW55X_Wifi_BLE_SDK/GD32VW55x_RELEASE_V1.0.2/MSDK/cloud/alicloud/src/protocol/alcs\alcs_coap.c ****     char path_calc[MAX_PATH_CHECKSUM_LEN] = {0};
 832              		.loc 1 204 5
 202:C:/Users/stapi/OneDrive/Desktop/GD32VW553/V1_MQTT_OK/GD32VW55X_Wifi_BLE_SDK/GD32VW55x_RELEASE_V1.0.2/MSDK/cloud/alicloud/src/protocol/alcs\alcs_coap.c ****     resource_cb_item *node = NULL, *next = NULL;
 833              		.loc 1 202 1 is_stmt 0
 834 0008 4111     		addi	sp,sp,-16
 835              		.cfi_def_cfa_offset 32
 205:C:/Users/stapi/OneDrive/Desktop/GD32VW553/V1_MQTT_OK/GD32VW55X_Wifi_BLE_SDK/GD32VW55x_RELEASE_V1.0.2/MSDK/cloud/alicloud/src/protocol/alcs\alcs_coap.c ****     CoAPPathMD5_sum (path, strlen(path), path_calc, MAX_PATH_CHECKSUM_LEN);
 836              		.loc 1 205 28
 837 000a 2E85     		mv	a0,a1
 838              	.LVL78:
 202:C:/Users/stapi/OneDrive/Desktop/GD32VW553/V1_MQTT_OK/GD32VW55X_Wifi_BLE_SDK/GD32VW55x_RELEASE_V1.0.2/MSDK/cloud/alicloud/src/protocol/alcs\alcs_coap.c ****     resource_cb_item *node = NULL, *next = NULL;
 839              		.loc 1 202 1
 840 000c 2E84     		mv	s0,a1
 204:C:/Users/stapi/OneDrive/Desktop/GD32VW553/V1_MQTT_OK/GD32VW55X_Wifi_BLE_SDK/GD32VW55x_RELEASE_V1.0.2/MSDK/cloud/alicloud/src/protocol/alcs\alcs_coap.c ****     char path_calc[MAX_PATH_CHECKSUM_LEN] = {0};
 841              		.loc 1 204 10
 842 000e 02C4     		sw	zero,8(sp)
 843 0010 23060100 		sb	zero,12(sp)
 844              		.loc 1 205 5 is_stmt 1
 845              		.loc 1 205 28 is_stmt 0
 846 0014 97000000 		call	strlen
 846      E7800000 
 847              	.LVL79:
 848 001c AA85     		mv	a1,a0
 849              		.loc 1 205 5
 850 001e 9546     		li	a3,5
 851 0020 2285     		mv	a0,s0
 852 0022 3000     		addi	a2,sp,8
 853 0024 97000000 		call	CoAPPathMD5_sum
 853      E7800000 
 854              	.LVL80:
 206:C:/Users/stapi/OneDrive/Desktop/GD32VW553/V1_MQTT_OK/GD32VW55X_Wifi_BLE_SDK/GD32VW55x_RELEASE_V1.0.2/MSDK/cloud/alicloud/src/protocol/alcs\alcs_coap.c **** 
 207:C:/Users/stapi/OneDrive/Desktop/GD32VW553/V1_MQTT_OK/GD32VW55X_Wifi_BLE_SDK/GD32VW55x_RELEASE_V1.0.2/MSDK/cloud/alicloud/src/protocol/alcs\alcs_coap.c ****     list_for_each_entry_safe(node, next, &resource_cb_head, lst, resource_cb_item) {
 855              		.loc 1 207 5 is_stmt 1
 856 002c B7070000 		lui	a5,%hi(.LANCHOR1)
 857 0030 13870700 		addi	a4,a5,%lo(.LANCHOR1)
 858 0034 5843     		lw	a4,4(a4)
 859 0036 93840700 		addi	s1,a5,%lo(.LANCHOR1)
 860 003a 4043     		lw	s0,4(a4)
 861              	.LVL81:
 862 003c 930547FF 		addi	a1,a4,-12
 863              	.LVL82:
 864 0040 5114     		addi	s0,s0,-12
 865              	.LVL83:
 866              	.L43:
 867              		.loc 1 207 5 discriminator 1
 868 0042 9387C500 		addi	a5,a1,12
 869 0046 6398F400 		bne	s1,a5,.L45
 208:C:/Users/stapi/OneDrive/Desktop/GD32VW553/V1_MQTT_OK/GD32VW55X_Wifi_BLE_SDK/GD32VW55x_RELEASE_V1.0.2/MSDK/cloud/alicloud/src/protocol/alcs\alcs_coap.c ****         if (memcmp(path_calc, node->path, MAX_PATH_CHECKSUM_LEN) == 0){
 209:C:/Users/stapi/OneDrive/Desktop/GD32VW553/V1_MQTT_OK/GD32VW55X_Wifi_BLE_SDK/GD32VW55x_RELEASE_V1.0.2/MSDK/cloud/alicloud/src/protocol/alcs\alcs_coap.c ****             return 0;
 210:C:/Users/stapi/OneDrive/Desktop/GD32VW553/V1_MQTT_OK/GD32VW55X_Wifi_BLE_SDK/GD32VW55x_RELEASE_V1.0.2/MSDK/cloud/alicloud/src/protocol/alcs\alcs_coap.c ****         }
 211:C:/Users/stapi/OneDrive/Desktop/GD32VW553/V1_MQTT_OK/GD32VW55X_Wifi_BLE_SDK/GD32VW55x_RELEASE_V1.0.2/MSDK/cloud/alicloud/src/protocol/alcs\alcs_coap.c ****     }
 212:C:/Users/stapi/OneDrive/Desktop/GD32VW553/V1_MQTT_OK/GD32VW55X_Wifi_BLE_SDK/GD32VW55x_RELEASE_V1.0.2/MSDK/cloud/alicloud/src/protocol/alcs\alcs_coap.c **** 
 213:C:/Users/stapi/OneDrive/Desktop/GD32VW553/V1_MQTT_OK/GD32VW55X_Wifi_BLE_SDK/GD32VW55x_RELEASE_V1.0.2/MSDK/cloud/alicloud/src/protocol/alcs\alcs_coap.c ****     return 1;
 870              		.loc 1 213 12 is_stmt 0
 871 004a 0545     		li	a0,1
 872              	.LVL84:
 873              	.L42:
 214:C:/Users/stapi/OneDrive/Desktop/GD32VW553/V1_MQTT_OK/GD32VW55X_Wifi_BLE_SDK/GD32VW55x_RELEASE_V1.0.2/MSDK/cloud/alicloud/src/protocol/alcs\alcs_coap.c **** }
 874              		.loc 1 214 1
 875 004c 4101     		addi	sp,sp,16
 876              		.cfi_remember_state
 877              		.cfi_def_cfa_offset 0
 878 004e 17030000 		tail	__riscv_restore_2
 878      67000300 
 879              		.cfi_restore 9
 880              		.cfi_restore 8
 881              		.cfi_restore 1
 882              		.cfi_def_cfa_offset -16
 883              	.LVL85:
 884              	.L45:
 885              		.cfi_restore_state
 208:C:/Users/stapi/OneDrive/Desktop/GD32VW553/V1_MQTT_OK/GD32VW55X_Wifi_BLE_SDK/GD32VW55x_RELEASE_V1.0.2/MSDK/cloud/alicloud/src/protocol/alcs\alcs_coap.c ****         if (memcmp(path_calc, node->path, MAX_PATH_CHECKSUM_LEN) == 0){
 886              		.loc 1 208 9 is_stmt 1
 208:C:/Users/stapi/OneDrive/Desktop/GD32VW553/V1_MQTT_OK/GD32VW55X_Wifi_BLE_SDK/GD32VW55x_RELEASE_V1.0.2/MSDK/cloud/alicloud/src/protocol/alcs\alcs_coap.c ****         if (memcmp(path_calc, node->path, MAX_PATH_CHECKSUM_LEN) == 0){
 887              		.loc 1 208 13 is_stmt 0
 888 0056 1546     		li	a2,5
 889 0058 2800     		addi	a0,sp,8
 890 005a 97000000 		call	memcmp
 890      E7800000 
 891              	.LVL86:
 208:C:/Users/stapi/OneDrive/Desktop/GD32VW553/V1_MQTT_OK/GD32VW55X_Wifi_BLE_SDK/GD32VW55x_RELEASE_V1.0.2/MSDK/cloud/alicloud/src/protocol/alcs\alcs_coap.c ****         if (memcmp(path_calc, node->path, MAX_PATH_CHECKSUM_LEN) == 0){
 892              		.loc 1 208 12
 893 0062 6DD5     		beq	a0,zero,.L42
 207:C:/Users/stapi/OneDrive/Desktop/GD32VW553/V1_MQTT_OK/GD32VW55X_Wifi_BLE_SDK/GD32VW55x_RELEASE_V1.0.2/MSDK/cloud/alicloud/src/protocol/alcs\alcs_coap.c ****         if (memcmp(path_calc, node->path, MAX_PATH_CHECKSUM_LEN) == 0){
 894              		.loc 1 207 5 is_stmt 1 discriminator 2
 895              	.LVL87:
 896 0064 1C48     		lw	a5,16(s0)
 897              	.LVL88:
 898 0066 A285     		mv	a1,s0
 899 0068 138447FF 		addi	s0,a5,-12
 900              	.LVL89:
 901 006c D9BF     		j	.L43
 902              		.cfi_endproc
 903              	.LFE30:
 905              		.section	.rodata.alcs_observe_notify.str1.4,"aMS",@progbits,1
 906              		.align	2
 907              	.LC7:
 908 0000 7061796C 		.string	"payload:%s"
 908      6F61643A 
 908      257300
 909 000b 00       		.align	2
 910              	.LC8:
 911 000c 636F6170 		.string	"coap_local"
 911      5F6C6F63 
 911      616C00
 912              		.section	.text.alcs_observe_notify,"ax",@progbits
 913              		.align	1
 914              		.globl	alcs_observe_notify
 916              	alcs_observe_notify:
 917              	.LFB26:
 101:C:/Users/stapi/OneDrive/Desktop/GD32VW553/V1_MQTT_OK/GD32VW55X_Wifi_BLE_SDK/GD32VW55x_RELEASE_V1.0.2/MSDK/cloud/alicloud/src/protocol/alcs\alcs_coap.c ****     int needAuth = 0;
 918              		.loc 1 101 1
 919              		.cfi_startproc
 920              	.LVL90:
 921 0000 17030000 		call	t0,__riscv_save_4
 921      E7020300 
 922              		.cfi_offset 19, -20
 923              		.cfi_offset 18, -16
 924              		.cfi_offset 9, -12
 925              		.cfi_offset 8, -8
 926              		.cfi_offset 1, -4
 927              		.cfi_def_cfa_offset 32
 102:C:/Users/stapi/OneDrive/Desktop/GD32VW553/V1_MQTT_OK/GD32VW55X_Wifi_BLE_SDK/GD32VW55x_RELEASE_V1.0.2/MSDK/cloud/alicloud/src/protocol/alcs\alcs_coap.c **** #ifdef USE_ALCS_SECURE
 928              		.loc 1 102 5
 929              	.LVL91:
 104:C:/Users/stapi/OneDrive/Desktop/GD32VW553/V1_MQTT_OK/GD32VW55X_Wifi_BLE_SDK/GD32VW55x_RELEASE_V1.0.2/MSDK/cloud/alicloud/src/protocol/alcs\alcs_coap.c **** #endif
 930              		.loc 1 104 5
 101:C:/Users/stapi/OneDrive/Desktop/GD32VW553/V1_MQTT_OK/GD32VW55X_Wifi_BLE_SDK/GD32VW55x_RELEASE_V1.0.2/MSDK/cloud/alicloud/src/protocol/alcs\alcs_coap.c ****     int needAuth = 0;
 931              		.loc 1 101 1 is_stmt 0
 932 0008 3284     		mv	s0,a2
 933 000a 2E89     		mv	s2,a1
 934 000c AA84     		mv	s1,a0
 104:C:/Users/stapi/OneDrive/Desktop/GD32VW553/V1_MQTT_OK/GD32VW55X_Wifi_BLE_SDK/GD32VW55x_RELEASE_V1.0.2/MSDK/cloud/alicloud/src/protocol/alcs\alcs_coap.c **** #endif
 935              		.loc 1 104 16
 936 000e 97000000 		call	alcs_resource_need_auth
 936      E7800000 
 937              	.LVL92:
 106:C:/Users/stapi/OneDrive/Desktop/GD32VW553/V1_MQTT_OK/GD32VW55X_Wifi_BLE_SDK/GD32VW55x_RELEASE_V1.0.2/MSDK/cloud/alicloud/src/protocol/alcs\alcs_coap.c ****     //HEXDUMP_DEBUG(payload->data, payload->len);
 938              		.loc 1 106 5
 939 0016 5C40     		lw	a5,4(s0)
 104:C:/Users/stapi/OneDrive/Desktop/GD32VW553/V1_MQTT_OK/GD32VW55X_Wifi_BLE_SDK/GD32VW55x_RELEASE_V1.0.2/MSDK/cloud/alicloud/src/protocol/alcs\alcs_coap.c **** #endif
 940              		.loc 1 104 16
 941 0018 AA89     		mv	s3,a0
 942              	.LVL93:
 106:C:/Users/stapi/OneDrive/Desktop/GD32VW553/V1_MQTT_OK/GD32VW55X_Wifi_BLE_SDK/GD32VW55x_RELEASE_V1.0.2/MSDK/cloud/alicloud/src/protocol/alcs\alcs_coap.c ****     //HEXDUMP_DEBUG(payload->data, payload->len);
 943              		.loc 1 106 5 is_stmt 1
 944 001a 37070000 		lui	a4,%hi(.LC7)
 945 001e B7050000 		lui	a1,%hi(.LANCHOR2)
 946 0022 37050000 		lui	a0,%hi(.LC8)
 947              	.LVL94:
 948 0026 13070700 		addi	a4,a4,%lo(.LC7)
 949 002a 9546     		li	a3,5
 950 002c 1306A006 		li	a2,106
 951 0030 93850500 		addi	a1,a1,%lo(.LANCHOR2)
 952 0034 13050500 		addi	a0,a0,%lo(.LC8)
 953 0038 97000000 		call	LITE_syslog
 953      E7800000 
 954              	.LVL95:
 108:C:/Users/stapi/OneDrive/Desktop/GD32VW553/V1_MQTT_OK/GD32VW55X_Wifi_BLE_SDK/GD32VW55x_RELEASE_V1.0.2/MSDK/cloud/alicloud/src/protocol/alcs\alcs_coap.c ****                                  needAuth? &observe_data_encrypt : NULL);
 955              		.loc 1 108 5
 108:C:/Users/stapi/OneDrive/Desktop/GD32VW553/V1_MQTT_OK/GD32VW55X_Wifi_BLE_SDK/GD32VW55x_RELEASE_V1.0.2/MSDK/cloud/alicloud/src/protocol/alcs\alcs_coap.c ****                                  needAuth? &observe_data_encrypt : NULL);
 956              		.loc 1 108 12 is_stmt 0
 957 0040 5040     		lw	a2,4(s0)
 958 0042 83560400 		lhu	a3,0(s0)
 959 0046 0147     		li	a4,0
 960 0048 63860900 		beq	s3,zero,.L51
 961 004c 37070000 		lui	a4,%hi(observe_data_encrypt)
 962 0050 13070700 		addi	a4,a4,%lo(observe_data_encrypt)
 963              	.L51:
 108:C:/Users/stapi/OneDrive/Desktop/GD32VW553/V1_MQTT_OK/GD32VW55X_Wifi_BLE_SDK/GD32VW55x_RELEASE_V1.0.2/MSDK/cloud/alicloud/src/protocol/alcs\alcs_coap.c ****                                  needAuth? &observe_data_encrypt : NULL);
 964              		.loc 1 108 12 discriminator 4
 965 0054 CA85     		mv	a1,s2
 966 0056 2685     		mv	a0,s1
 967 0058 97000000 		call	CoAPObsServer_notify
 967      E7800000 
 968              	.LVL96:
 110:C:/Users/stapi/OneDrive/Desktop/GD32VW553/V1_MQTT_OK/GD32VW55X_Wifi_BLE_SDK/GD32VW55x_RELEASE_V1.0.2/MSDK/cloud/alicloud/src/protocol/alcs\alcs_coap.c **** 
 969              		.loc 1 110 1 discriminator 4
 970 0060 17030000 		tail	__riscv_restore_4
 970      67000300 
 971              		.cfi_restore 19
 972              		.cfi_restore 18
 973              		.cfi_restore 9
 974              		.cfi_restore 8
 975              		.cfi_restore 1
 976              		.cfi_def_cfa_offset 0
 977              		.cfi_endproc
 978              	.LFE26:
 980              		.section	.text.get_context,"ax",@progbits
 981              		.align	1
 982              		.globl	get_context
 984              	get_context:
 985              	.LFB31:
 215:C:/Users/stapi/OneDrive/Desktop/GD32VW553/V1_MQTT_OK/GD32VW55X_Wifi_BLE_SDK/GD32VW55x_RELEASE_V1.0.2/MSDK/cloud/alicloud/src/protocol/alcs\alcs_coap.c **** 
 216:C:/Users/stapi/OneDrive/Desktop/GD32VW553/V1_MQTT_OK/GD32VW55X_Wifi_BLE_SDK/GD32VW55x_RELEASE_V1.0.2/MSDK/cloud/alicloud/src/protocol/alcs\alcs_coap.c **** typedef struct {
 217:C:/Users/stapi/OneDrive/Desktop/GD32VW553/V1_MQTT_OK/GD32VW55X_Wifi_BLE_SDK/GD32VW55x_RELEASE_V1.0.2/MSDK/cloud/alicloud/src/protocol/alcs\alcs_coap.c ****     CoAPContext* ctx;
 218:C:/Users/stapi/OneDrive/Desktop/GD32VW553/V1_MQTT_OK/GD32VW55X_Wifi_BLE_SDK/GD32VW55x_RELEASE_V1.0.2/MSDK/cloud/alicloud/src/protocol/alcs\alcs_coap.c ****     char loop;
 219:C:/Users/stapi/OneDrive/Desktop/GD32VW553/V1_MQTT_OK/GD32VW55X_Wifi_BLE_SDK/GD32VW55x_RELEASE_V1.0.2/MSDK/cloud/alicloud/src/protocol/alcs\alcs_coap.c ****     bool inited;
 220:C:/Users/stapi/OneDrive/Desktop/GD32VW553/V1_MQTT_OK/GD32VW55X_Wifi_BLE_SDK/GD32VW55x_RELEASE_V1.0.2/MSDK/cloud/alicloud/src/protocol/alcs\alcs_coap.c ****     struct list_head lst;
 221:C:/Users/stapi/OneDrive/Desktop/GD32VW553/V1_MQTT_OK/GD32VW55X_Wifi_BLE_SDK/GD32VW55x_RELEASE_V1.0.2/MSDK/cloud/alicloud/src/protocol/alcs\alcs_coap.c **** } ALCSContext;
 222:C:/Users/stapi/OneDrive/Desktop/GD32VW553/V1_MQTT_OK/GD32VW55X_Wifi_BLE_SDK/GD32VW55x_RELEASE_V1.0.2/MSDK/cloud/alicloud/src/protocol/alcs\alcs_coap.c **** 
 223:C:/Users/stapi/OneDrive/Desktop/GD32VW553/V1_MQTT_OK/GD32VW55X_Wifi_BLE_SDK/GD32VW55x_RELEASE_V1.0.2/MSDK/cloud/alicloud/src/protocol/alcs\alcs_coap.c **** #ifdef SUPPORT_MULTI_DEVICES
 224:C:/Users/stapi/OneDrive/Desktop/GD32VW553/V1_MQTT_OK/GD32VW55X_Wifi_BLE_SDK/GD32VW55x_RELEASE_V1.0.2/MSDK/cloud/alicloud/src/protocol/alcs\alcs_coap.c **** LIST_HEAD(context_head);
 225:C:/Users/stapi/OneDrive/Desktop/GD32VW553/V1_MQTT_OK/GD32VW55X_Wifi_BLE_SDK/GD32VW55x_RELEASE_V1.0.2/MSDK/cloud/alicloud/src/protocol/alcs\alcs_coap.c **** 
 226:C:/Users/stapi/OneDrive/Desktop/GD32VW553/V1_MQTT_OK/GD32VW55X_Wifi_BLE_SDK/GD32VW55x_RELEASE_V1.0.2/MSDK/cloud/alicloud/src/protocol/alcs\alcs_coap.c **** ALCSContext* get_context (CoAPContext* ctx) {
 227:C:/Users/stapi/OneDrive/Desktop/GD32VW553/V1_MQTT_OK/GD32VW55X_Wifi_BLE_SDK/GD32VW55x_RELEASE_V1.0.2/MSDK/cloud/alicloud/src/protocol/alcs\alcs_coap.c ****     ALCSContext* node = NULL, *next = NULL;
 228:C:/Users/stapi/OneDrive/Desktop/GD32VW553/V1_MQTT_OK/GD32VW55X_Wifi_BLE_SDK/GD32VW55x_RELEASE_V1.0.2/MSDK/cloud/alicloud/src/protocol/alcs\alcs_coap.c **** 
 229:C:/Users/stapi/OneDrive/Desktop/GD32VW553/V1_MQTT_OK/GD32VW55X_Wifi_BLE_SDK/GD32VW55x_RELEASE_V1.0.2/MSDK/cloud/alicloud/src/protocol/alcs\alcs_coap.c ****     list_for_each_entry_safe(node, next, &context_head, lst, ALCSContext) {
 230:C:/Users/stapi/OneDrive/Desktop/GD32VW553/V1_MQTT_OK/GD32VW55X_Wifi_BLE_SDK/GD32VW55x_RELEASE_V1.0.2/MSDK/cloud/alicloud/src/protocol/alcs\alcs_coap.c ****         if(node->ctx == ctx){
 231:C:/Users/stapi/OneDrive/Desktop/GD32VW553/V1_MQTT_OK/GD32VW55X_Wifi_BLE_SDK/GD32VW55x_RELEASE_V1.0.2/MSDK/cloud/alicloud/src/protocol/alcs\alcs_coap.c ****             return node;
 232:C:/Users/stapi/OneDrive/Desktop/GD32VW553/V1_MQTT_OK/GD32VW55X_Wifi_BLE_SDK/GD32VW55x_RELEASE_V1.0.2/MSDK/cloud/alicloud/src/protocol/alcs\alcs_coap.c ****         }
 233:C:/Users/stapi/OneDrive/Desktop/GD32VW553/V1_MQTT_OK/GD32VW55X_Wifi_BLE_SDK/GD32VW55x_RELEASE_V1.0.2/MSDK/cloud/alicloud/src/protocol/alcs\alcs_coap.c ****     }
 234:C:/Users/stapi/OneDrive/Desktop/GD32VW553/V1_MQTT_OK/GD32VW55X_Wifi_BLE_SDK/GD32VW55x_RELEASE_V1.0.2/MSDK/cloud/alicloud/src/protocol/alcs\alcs_coap.c ****     return NULL;
 235:C:/Users/stapi/OneDrive/Desktop/GD32VW553/V1_MQTT_OK/GD32VW55X_Wifi_BLE_SDK/GD32VW55x_RELEASE_V1.0.2/MSDK/cloud/alicloud/src/protocol/alcs\alcs_coap.c **** }
 236:C:/Users/stapi/OneDrive/Desktop/GD32VW553/V1_MQTT_OK/GD32VW55X_Wifi_BLE_SDK/GD32VW55x_RELEASE_V1.0.2/MSDK/cloud/alicloud/src/protocol/alcs\alcs_coap.c **** 
 237:C:/Users/stapi/OneDrive/Desktop/GD32VW553/V1_MQTT_OK/GD32VW55X_Wifi_BLE_SDK/GD32VW55x_RELEASE_V1.0.2/MSDK/cloud/alicloud/src/protocol/alcs\alcs_coap.c **** CoAPContext *alcs_context_create(CoAPInitParam *param)
 238:C:/Users/stapi/OneDrive/Desktop/GD32VW553/V1_MQTT_OK/GD32VW55X_Wifi_BLE_SDK/GD32VW55x_RELEASE_V1.0.2/MSDK/cloud/alicloud/src/protocol/alcs\alcs_coap.c **** {
 239:C:/Users/stapi/OneDrive/Desktop/GD32VW553/V1_MQTT_OK/GD32VW55X_Wifi_BLE_SDK/GD32VW55x_RELEASE_V1.0.2/MSDK/cloud/alicloud/src/protocol/alcs\alcs_coap.c ****     ALCSContext* alcs_ctx = (ALCSContext*) coap_malloc (sizeof(ALCSContext));
 240:C:/Users/stapi/OneDrive/Desktop/GD32VW553/V1_MQTT_OK/GD32VW55X_Wifi_BLE_SDK/GD32VW55x_RELEASE_V1.0.2/MSDK/cloud/alicloud/src/protocol/alcs\alcs_coap.c ****     alcs_ctx->ctx = CoAPContext_create (param);
 241:C:/Users/stapi/OneDrive/Desktop/GD32VW553/V1_MQTT_OK/GD32VW55X_Wifi_BLE_SDK/GD32VW55x_RELEASE_V1.0.2/MSDK/cloud/alicloud/src/protocol/alcs\alcs_coap.c ****     COAP_INFO("CoAPContext_create return :%p", alcs_ctx->ctx);
 242:C:/Users/stapi/OneDrive/Desktop/GD32VW553/V1_MQTT_OK/GD32VW55X_Wifi_BLE_SDK/GD32VW55x_RELEASE_V1.0.2/MSDK/cloud/alicloud/src/protocol/alcs\alcs_coap.c ****     alcs_ctx->loop = 0;
 243:C:/Users/stapi/OneDrive/Desktop/GD32VW553/V1_MQTT_OK/GD32VW55X_Wifi_BLE_SDK/GD32VW55x_RELEASE_V1.0.2/MSDK/cloud/alicloud/src/protocol/alcs\alcs_coap.c ****     alcs_ctx->inited = 0;
 244:C:/Users/stapi/OneDrive/Desktop/GD32VW553/V1_MQTT_OK/GD32VW55X_Wifi_BLE_SDK/GD32VW55x_RELEASE_V1.0.2/MSDK/cloud/alicloud/src/protocol/alcs\alcs_coap.c **** 
 245:C:/Users/stapi/OneDrive/Desktop/GD32VW553/V1_MQTT_OK/GD32VW55X_Wifi_BLE_SDK/GD32VW55x_RELEASE_V1.0.2/MSDK/cloud/alicloud/src/protocol/alcs\alcs_coap.c ****     list_add_tail(&alcs_ctx->lst, &context_head);
 246:C:/Users/stapi/OneDrive/Desktop/GD32VW553/V1_MQTT_OK/GD32VW55X_Wifi_BLE_SDK/GD32VW55x_RELEASE_V1.0.2/MSDK/cloud/alicloud/src/protocol/alcs\alcs_coap.c ****     return alcs_ctx->ctx;
 247:C:/Users/stapi/OneDrive/Desktop/GD32VW553/V1_MQTT_OK/GD32VW55X_Wifi_BLE_SDK/GD32VW55x_RELEASE_V1.0.2/MSDK/cloud/alicloud/src/protocol/alcs\alcs_coap.c **** }
 248:C:/Users/stapi/OneDrive/Desktop/GD32VW553/V1_MQTT_OK/GD32VW55X_Wifi_BLE_SDK/GD32VW55x_RELEASE_V1.0.2/MSDK/cloud/alicloud/src/protocol/alcs\alcs_coap.c **** 
 249:C:/Users/stapi/OneDrive/Desktop/GD32VW553/V1_MQTT_OK/GD32VW55X_Wifi_BLE_SDK/GD32VW55x_RELEASE_V1.0.2/MSDK/cloud/alicloud/src/protocol/alcs\alcs_coap.c **** void alcs_context_free(CoAPContext *ctx)
 250:C:/Users/stapi/OneDrive/Desktop/GD32VW553/V1_MQTT_OK/GD32VW55X_Wifi_BLE_SDK/GD32VW55x_RELEASE_V1.0.2/MSDK/cloud/alicloud/src/protocol/alcs\alcs_coap.c **** {
 251:C:/Users/stapi/OneDrive/Desktop/GD32VW553/V1_MQTT_OK/GD32VW55X_Wifi_BLE_SDK/GD32VW55x_RELEASE_V1.0.2/MSDK/cloud/alicloud/src/protocol/alcs\alcs_coap.c ****     ALCSContext* alcs_ctx = get_context (ctx);
 252:C:/Users/stapi/OneDrive/Desktop/GD32VW553/V1_MQTT_OK/GD32VW55X_Wifi_BLE_SDK/GD32VW55x_RELEASE_V1.0.2/MSDK/cloud/alicloud/src/protocol/alcs\alcs_coap.c ****     if (alcs_ctx) {
 253:C:/Users/stapi/OneDrive/Desktop/GD32VW553/V1_MQTT_OK/GD32VW55X_Wifi_BLE_SDK/GD32VW55x_RELEASE_V1.0.2/MSDK/cloud/alicloud/src/protocol/alcs\alcs_coap.c ****         CoAPContext_free (alcs_ctx->ctx);
 254:C:/Users/stapi/OneDrive/Desktop/GD32VW553/V1_MQTT_OK/GD32VW55X_Wifi_BLE_SDK/GD32VW55x_RELEASE_V1.0.2/MSDK/cloud/alicloud/src/protocol/alcs\alcs_coap.c ****         coap_free (alcs_ctx);
 255:C:/Users/stapi/OneDrive/Desktop/GD32VW553/V1_MQTT_OK/GD32VW55X_Wifi_BLE_SDK/GD32VW55x_RELEASE_V1.0.2/MSDK/cloud/alicloud/src/protocol/alcs\alcs_coap.c ****     }
 256:C:/Users/stapi/OneDrive/Desktop/GD32VW553/V1_MQTT_OK/GD32VW55X_Wifi_BLE_SDK/GD32VW55x_RELEASE_V1.0.2/MSDK/cloud/alicloud/src/protocol/alcs\alcs_coap.c **** }
 257:C:/Users/stapi/OneDrive/Desktop/GD32VW553/V1_MQTT_OK/GD32VW55X_Wifi_BLE_SDK/GD32VW55x_RELEASE_V1.0.2/MSDK/cloud/alicloud/src/protocol/alcs\alcs_coap.c **** 
 258:C:/Users/stapi/OneDrive/Desktop/GD32VW553/V1_MQTT_OK/GD32VW55X_Wifi_BLE_SDK/GD32VW55x_RELEASE_V1.0.2/MSDK/cloud/alicloud/src/protocol/alcs\alcs_coap.c **** #else
 259:C:/Users/stapi/OneDrive/Desktop/GD32VW553/V1_MQTT_OK/GD32VW55X_Wifi_BLE_SDK/GD32VW55x_RELEASE_V1.0.2/MSDK/cloud/alicloud/src/protocol/alcs\alcs_coap.c **** ALCSContext* g_alcs_ctx = NULL;
 260:C:/Users/stapi/OneDrive/Desktop/GD32VW553/V1_MQTT_OK/GD32VW55X_Wifi_BLE_SDK/GD32VW55x_RELEASE_V1.0.2/MSDK/cloud/alicloud/src/protocol/alcs\alcs_coap.c **** ALCSContext* get_context (CoAPContext* ctx) {
 986              		.loc 1 260 45 is_stmt 1
 987              		.cfi_startproc
 988              	.LVL97:
 261:C:/Users/stapi/OneDrive/Desktop/GD32VW553/V1_MQTT_OK/GD32VW55X_Wifi_BLE_SDK/GD32VW55x_RELEASE_V1.0.2/MSDK/cloud/alicloud/src/protocol/alcs\alcs_coap.c ****     return g_alcs_ctx;
 989              		.loc 1 261 5
 262:C:/Users/stapi/OneDrive/Desktop/GD32VW553/V1_MQTT_OK/GD32VW55X_Wifi_BLE_SDK/GD32VW55x_RELEASE_V1.0.2/MSDK/cloud/alicloud/src/protocol/alcs\alcs_coap.c **** }
 990              		.loc 1 262 1 is_stmt 0
 991 0000 B7070000 		lui	a5,%hi(.LANCHOR3)
 992 0004 03A50700 		lw	a0,%lo(.LANCHOR3)(a5)
 993              	.LVL98:
 994 0008 8280     		ret
 995              		.cfi_endproc
 996              	.LFE31:
 998              		.section	.rodata.alcs_context_init.str1.4,"aMS",@progbits,1
 999              		.align	2
 1000              	.LC9:
 1001 0000 436F4150 		.string	"CoAPServer_init return :%p"
 1001      53657276 
 1001      65725F69 
 1001      6E697420 
 1001      72657475 
 1002              		.section	.text.alcs_context_init,"ax",@progbits
 1003              		.align	1
 1004              		.globl	alcs_context_init
 1006              	alcs_context_init:
 1007              	.LFB32:
 263:C:/Users/stapi/OneDrive/Desktop/GD32VW553/V1_MQTT_OK/GD32VW55X_Wifi_BLE_SDK/GD32VW55x_RELEASE_V1.0.2/MSDK/cloud/alicloud/src/protocol/alcs\alcs_coap.c **** 
 264:C:/Users/stapi/OneDrive/Desktop/GD32VW553/V1_MQTT_OK/GD32VW55X_Wifi_BLE_SDK/GD32VW55x_RELEASE_V1.0.2/MSDK/cloud/alicloud/src/protocol/alcs\alcs_coap.c **** CoAPContext* alcs_context_init(CoAPInitParam *param)
 265:C:/Users/stapi/OneDrive/Desktop/GD32VW553/V1_MQTT_OK/GD32VW55X_Wifi_BLE_SDK/GD32VW55x_RELEASE_V1.0.2/MSDK/cloud/alicloud/src/protocol/alcs\alcs_coap.c **** {
 1008              		.loc 1 265 1 is_stmt 1
 1009              		.cfi_startproc
 1010              	.LVL99:
 1011 0000 17030000 		call	t0,__riscv_save_2
 1011      E7020300 
 1012              		.cfi_offset 9, -12
 1013              		.cfi_offset 8, -8
 1014              		.cfi_offset 1, -4
 1015              		.cfi_def_cfa_offset 16
 266:C:/Users/stapi/OneDrive/Desktop/GD32VW553/V1_MQTT_OK/GD32VW55X_Wifi_BLE_SDK/GD32VW55x_RELEASE_V1.0.2/MSDK/cloud/alicloud/src/protocol/alcs\alcs_coap.c ****     if (g_alcs_ctx) {
 1016              		.loc 1 266 5
 1017              		.loc 1 266 9 is_stmt 0
 1018 0008 B7040000 		lui	s1,%hi(.LANCHOR3)
 1019 000c 93840400 		addi	s1,s1,%lo(.LANCHOR3)
 1020 0010 9C40     		lw	a5,0(s1)
 1021              		.loc 1 266 8
 1022 0012 99C7     		beq	a5,zero,.L56
 267:C:/Users/stapi/OneDrive/Desktop/GD32VW553/V1_MQTT_OK/GD32VW55X_Wifi_BLE_SDK/GD32VW55x_RELEASE_V1.0.2/MSDK/cloud/alicloud/src/protocol/alcs\alcs_coap.c ****         return g_alcs_ctx->ctx;
 1023              		.loc 1 267 9 is_stmt 1
 1024              		.loc 1 267 26 is_stmt 0
 1025 0014 8043     		lw	s0,0(a5)
 1026              	.LVL100:
 1027              	.L55:
 268:C:/Users/stapi/OneDrive/Desktop/GD32VW553/V1_MQTT_OK/GD32VW55X_Wifi_BLE_SDK/GD32VW55x_RELEASE_V1.0.2/MSDK/cloud/alicloud/src/protocol/alcs\alcs_coap.c ****     }
 269:C:/Users/stapi/OneDrive/Desktop/GD32VW553/V1_MQTT_OK/GD32VW55X_Wifi_BLE_SDK/GD32VW55x_RELEASE_V1.0.2/MSDK/cloud/alicloud/src/protocol/alcs\alcs_coap.c **** 
 270:C:/Users/stapi/OneDrive/Desktop/GD32VW553/V1_MQTT_OK/GD32VW55X_Wifi_BLE_SDK/GD32VW55x_RELEASE_V1.0.2/MSDK/cloud/alicloud/src/protocol/alcs\alcs_coap.c ****     g_alcs_ctx = (ALCSContext*)coap_malloc(sizeof(ALCSContext));
 271:C:/Users/stapi/OneDrive/Desktop/GD32VW553/V1_MQTT_OK/GD32VW55X_Wifi_BLE_SDK/GD32VW55x_RELEASE_V1.0.2/MSDK/cloud/alicloud/src/protocol/alcs\alcs_coap.c ****     if (g_alcs_ctx) {
 272:C:/Users/stapi/OneDrive/Desktop/GD32VW553/V1_MQTT_OK/GD32VW55X_Wifi_BLE_SDK/GD32VW55x_RELEASE_V1.0.2/MSDK/cloud/alicloud/src/protocol/alcs\alcs_coap.c ****         g_alcs_ctx->loop = 0;
 273:C:/Users/stapi/OneDrive/Desktop/GD32VW553/V1_MQTT_OK/GD32VW55X_Wifi_BLE_SDK/GD32VW55x_RELEASE_V1.0.2/MSDK/cloud/alicloud/src/protocol/alcs\alcs_coap.c ****         g_alcs_ctx->inited = 0;
 274:C:/Users/stapi/OneDrive/Desktop/GD32VW553/V1_MQTT_OK/GD32VW55X_Wifi_BLE_SDK/GD32VW55x_RELEASE_V1.0.2/MSDK/cloud/alicloud/src/protocol/alcs\alcs_coap.c ****         g_alcs_ctx->ctx = CoAPServer_init();
 275:C:/Users/stapi/OneDrive/Desktop/GD32VW553/V1_MQTT_OK/GD32VW55X_Wifi_BLE_SDK/GD32VW55x_RELEASE_V1.0.2/MSDK/cloud/alicloud/src/protocol/alcs\alcs_coap.c ****         COAP_INFO("CoAPServer_init return :%p", g_alcs_ctx->ctx);
 276:C:/Users/stapi/OneDrive/Desktop/GD32VW553/V1_MQTT_OK/GD32VW55X_Wifi_BLE_SDK/GD32VW55x_RELEASE_V1.0.2/MSDK/cloud/alicloud/src/protocol/alcs\alcs_coap.c ****         if (!g_alcs_ctx->ctx) {
 277:C:/Users/stapi/OneDrive/Desktop/GD32VW553/V1_MQTT_OK/GD32VW55X_Wifi_BLE_SDK/GD32VW55x_RELEASE_V1.0.2/MSDK/cloud/alicloud/src/protocol/alcs\alcs_coap.c ****             coap_free(g_alcs_ctx);
 278:C:/Users/stapi/OneDrive/Desktop/GD32VW553/V1_MQTT_OK/GD32VW55X_Wifi_BLE_SDK/GD32VW55x_RELEASE_V1.0.2/MSDK/cloud/alicloud/src/protocol/alcs\alcs_coap.c ****             g_alcs_ctx = NULL;
 279:C:/Users/stapi/OneDrive/Desktop/GD32VW553/V1_MQTT_OK/GD32VW55X_Wifi_BLE_SDK/GD32VW55x_RELEASE_V1.0.2/MSDK/cloud/alicloud/src/protocol/alcs\alcs_coap.c ****             return NULL;
 280:C:/Users/stapi/OneDrive/Desktop/GD32VW553/V1_MQTT_OK/GD32VW55X_Wifi_BLE_SDK/GD32VW55x_RELEASE_V1.0.2/MSDK/cloud/alicloud/src/protocol/alcs\alcs_coap.c ****         }
 281:C:/Users/stapi/OneDrive/Desktop/GD32VW553/V1_MQTT_OK/GD32VW55X_Wifi_BLE_SDK/GD32VW55x_RELEASE_V1.0.2/MSDK/cloud/alicloud/src/protocol/alcs\alcs_coap.c ****         return g_alcs_ctx->ctx;
 282:C:/Users/stapi/OneDrive/Desktop/GD32VW553/V1_MQTT_OK/GD32VW55X_Wifi_BLE_SDK/GD32VW55x_RELEASE_V1.0.2/MSDK/cloud/alicloud/src/protocol/alcs\alcs_coap.c ****     } else {
 283:C:/Users/stapi/OneDrive/Desktop/GD32VW553/V1_MQTT_OK/GD32VW55X_Wifi_BLE_SDK/GD32VW55x_RELEASE_V1.0.2/MSDK/cloud/alicloud/src/protocol/alcs\alcs_coap.c ****         return NULL;
 284:C:/Users/stapi/OneDrive/Desktop/GD32VW553/V1_MQTT_OK/GD32VW55X_Wifi_BLE_SDK/GD32VW55x_RELEASE_V1.0.2/MSDK/cloud/alicloud/src/protocol/alcs\alcs_coap.c ****     }
 285:C:/Users/stapi/OneDrive/Desktop/GD32VW553/V1_MQTT_OK/GD32VW55X_Wifi_BLE_SDK/GD32VW55x_RELEASE_V1.0.2/MSDK/cloud/alicloud/src/protocol/alcs\alcs_coap.c **** }
 1028              		.loc 1 285 1
 1029 0016 2285     		mv	a0,s0
 1030 0018 17030000 		tail	__riscv_restore_2
 1030      67000300 
 1031              		.cfi_remember_state
 1032              		.cfi_restore 9
 1033              		.cfi_restore 8
 1034              		.cfi_restore 1
 1035              		.cfi_def_cfa_offset 0
 1036              	.LVL101:
 1037              	.L56:
 1038              		.cfi_restore_state
 270:C:/Users/stapi/OneDrive/Desktop/GD32VW553/V1_MQTT_OK/GD32VW55X_Wifi_BLE_SDK/GD32VW55x_RELEASE_V1.0.2/MSDK/cloud/alicloud/src/protocol/alcs\alcs_coap.c ****     if (g_alcs_ctx) {
 1039              		.loc 1 270 5 is_stmt 1
 270:C:/Users/stapi/OneDrive/Desktop/GD32VW553/V1_MQTT_OK/GD32VW55X_Wifi_BLE_SDK/GD32VW55x_RELEASE_V1.0.2/MSDK/cloud/alicloud/src/protocol/alcs\alcs_coap.c ****     if (g_alcs_ctx) {
 1040              		.loc 1 270 32 is_stmt 0
 1041 0020 4146     		li	a2,16
 1042 0022 8145     		li	a1,0
 1043 0024 0145     		li	a0,0
 1044              	.LVL102:
 1045 0026 97000000 		call	LITE_malloc_internal
 1045      E7800000 
 1046              	.LVL103:
 270:C:/Users/stapi/OneDrive/Desktop/GD32VW553/V1_MQTT_OK/GD32VW55X_Wifi_BLE_SDK/GD32VW55x_RELEASE_V1.0.2/MSDK/cloud/alicloud/src/protocol/alcs\alcs_coap.c ****     if (g_alcs_ctx) {
 1047              		.loc 1 270 16
 1048 002e 88C0     		sw	a0,0(s1)
 271:C:/Users/stapi/OneDrive/Desktop/GD32VW553/V1_MQTT_OK/GD32VW55X_Wifi_BLE_SDK/GD32VW55x_RELEASE_V1.0.2/MSDK/cloud/alicloud/src/protocol/alcs\alcs_coap.c ****         g_alcs_ctx->loop = 0;
 1049              		.loc 1 271 5 is_stmt 1
 270:C:/Users/stapi/OneDrive/Desktop/GD32VW553/V1_MQTT_OK/GD32VW55X_Wifi_BLE_SDK/GD32VW55x_RELEASE_V1.0.2/MSDK/cloud/alicloud/src/protocol/alcs\alcs_coap.c ****     if (g_alcs_ctx) {
 1050              		.loc 1 270 32 is_stmt 0
 1051 0030 2A84     		mv	s0,a0
 271:C:/Users/stapi/OneDrive/Desktop/GD32VW553/V1_MQTT_OK/GD32VW55X_Wifi_BLE_SDK/GD32VW55x_RELEASE_V1.0.2/MSDK/cloud/alicloud/src/protocol/alcs\alcs_coap.c ****         g_alcs_ctx->loop = 0;
 1052              		.loc 1 271 8
 1053 0032 75D1     		beq	a0,zero,.L55
 272:C:/Users/stapi/OneDrive/Desktop/GD32VW553/V1_MQTT_OK/GD32VW55X_Wifi_BLE_SDK/GD32VW55x_RELEASE_V1.0.2/MSDK/cloud/alicloud/src/protocol/alcs\alcs_coap.c ****         g_alcs_ctx->inited = 0;
 1054              		.loc 1 272 9 is_stmt 1
 273:C:/Users/stapi/OneDrive/Desktop/GD32VW553/V1_MQTT_OK/GD32VW55X_Wifi_BLE_SDK/GD32VW55x_RELEASE_V1.0.2/MSDK/cloud/alicloud/src/protocol/alcs\alcs_coap.c ****         g_alcs_ctx->ctx = CoAPServer_init();
 1055              		.loc 1 273 9
 272:C:/Users/stapi/OneDrive/Desktop/GD32VW553/V1_MQTT_OK/GD32VW55X_Wifi_BLE_SDK/GD32VW55x_RELEASE_V1.0.2/MSDK/cloud/alicloud/src/protocol/alcs\alcs_coap.c ****         g_alcs_ctx->inited = 0;
 1056              		.loc 1 272 26 is_stmt 0
 1057 0034 23120500 		sh	zero,4(a0)
 274:C:/Users/stapi/OneDrive/Desktop/GD32VW553/V1_MQTT_OK/GD32VW55X_Wifi_BLE_SDK/GD32VW55x_RELEASE_V1.0.2/MSDK/cloud/alicloud/src/protocol/alcs\alcs_coap.c ****         COAP_INFO("CoAPServer_init return :%p", g_alcs_ctx->ctx);
 1058              		.loc 1 274 9 is_stmt 1
 274:C:/Users/stapi/OneDrive/Desktop/GD32VW553/V1_MQTT_OK/GD32VW55X_Wifi_BLE_SDK/GD32VW55x_RELEASE_V1.0.2/MSDK/cloud/alicloud/src/protocol/alcs\alcs_coap.c ****         COAP_INFO("CoAPServer_init return :%p", g_alcs_ctx->ctx);
 1059              		.loc 1 274 27 is_stmt 0
 1060 0038 97000000 		call	CoAPServer_init
 1060      E7800000 
 1061              	.LVL104:
 274:C:/Users/stapi/OneDrive/Desktop/GD32VW553/V1_MQTT_OK/GD32VW55X_Wifi_BLE_SDK/GD32VW55x_RELEASE_V1.0.2/MSDK/cloud/alicloud/src/protocol/alcs\alcs_coap.c ****         COAP_INFO("CoAPServer_init return :%p", g_alcs_ctx->ctx);
 1062              		.loc 1 274 25
 1063 0040 08C0     		sw	a0,0(s0)
 275:C:/Users/stapi/OneDrive/Desktop/GD32VW553/V1_MQTT_OK/GD32VW55X_Wifi_BLE_SDK/GD32VW55x_RELEASE_V1.0.2/MSDK/cloud/alicloud/src/protocol/alcs\alcs_coap.c ****         if (!g_alcs_ctx->ctx) {
 1064              		.loc 1 275 9 is_stmt 1
 275:C:/Users/stapi/OneDrive/Desktop/GD32VW553/V1_MQTT_OK/GD32VW55X_Wifi_BLE_SDK/GD32VW55x_RELEASE_V1.0.2/MSDK/cloud/alicloud/src/protocol/alcs\alcs_coap.c ****         if (!g_alcs_ctx->ctx) {
 1065              		.loc 1 275 9
 1066 0042 37050000 		lui	a0,%hi(.LC0)
 1067 0046 13050500 		addi	a0,a0,%lo(.LC0)
 1068 004a 97000000 		call	HAL_Printf
 1068      E7800000 
 1069              	.LVL105:
 275:C:/Users/stapi/OneDrive/Desktop/GD32VW553/V1_MQTT_OK/GD32VW55X_Wifi_BLE_SDK/GD32VW55x_RELEASE_V1.0.2/MSDK/cloud/alicloud/src/protocol/alcs\alcs_coap.c ****         if (!g_alcs_ctx->ctx) {
 1070              		.loc 1 275 9
 1071 0052 9C40     		lw	a5,0(s1)
 1072 0054 37050000 		lui	a0,%hi(.LC9)
 1073 0058 13050500 		addi	a0,a0,%lo(.LC9)
 1074 005c 8C43     		lw	a1,0(a5)
 1075 005e 97000000 		call	HAL_Printf
 1075      E7800000 
 1076              	.LVL106:
 275:C:/Users/stapi/OneDrive/Desktop/GD32VW553/V1_MQTT_OK/GD32VW55X_Wifi_BLE_SDK/GD32VW55x_RELEASE_V1.0.2/MSDK/cloud/alicloud/src/protocol/alcs\alcs_coap.c ****         if (!g_alcs_ctx->ctx) {
 1077              		.loc 1 275 9
 1078 0066 37050000 		lui	a0,%hi(.LC2)
 1079 006a 13050500 		addi	a0,a0,%lo(.LC2)
 1080 006e 97000000 		call	HAL_Printf
 1080      E7800000 
 1081              	.LVL107:
 275:C:/Users/stapi/OneDrive/Desktop/GD32VW553/V1_MQTT_OK/GD32VW55X_Wifi_BLE_SDK/GD32VW55x_RELEASE_V1.0.2/MSDK/cloud/alicloud/src/protocol/alcs\alcs_coap.c ****         if (!g_alcs_ctx->ctx) {
 1082              		.loc 1 275 9
 276:C:/Users/stapi/OneDrive/Desktop/GD32VW553/V1_MQTT_OK/GD32VW55X_Wifi_BLE_SDK/GD32VW55x_RELEASE_V1.0.2/MSDK/cloud/alicloud/src/protocol/alcs\alcs_coap.c ****             coap_free(g_alcs_ctx);
 1083              		.loc 1 276 9
 276:C:/Users/stapi/OneDrive/Desktop/GD32VW553/V1_MQTT_OK/GD32VW55X_Wifi_BLE_SDK/GD32VW55x_RELEASE_V1.0.2/MSDK/cloud/alicloud/src/protocol/alcs\alcs_coap.c ****             coap_free(g_alcs_ctx);
 1084              		.loc 1 276 24 is_stmt 0
 1085 0076 8840     		lw	a0,0(s1)
 1086 0078 0041     		lw	s0,0(a0)
 276:C:/Users/stapi/OneDrive/Desktop/GD32VW553/V1_MQTT_OK/GD32VW55X_Wifi_BLE_SDK/GD32VW55x_RELEASE_V1.0.2/MSDK/cloud/alicloud/src/protocol/alcs\alcs_coap.c ****             coap_free(g_alcs_ctx);
 1087              		.loc 1 276 12
 1088 007a 51FC     		bne	s0,zero,.L55
 277:C:/Users/stapi/OneDrive/Desktop/GD32VW553/V1_MQTT_OK/GD32VW55X_Wifi_BLE_SDK/GD32VW55x_RELEASE_V1.0.2/MSDK/cloud/alicloud/src/protocol/alcs\alcs_coap.c ****             g_alcs_ctx = NULL;
 1089              		.loc 1 277 13 is_stmt 1
 1090 007c 97000000 		call	LITE_free_internal
 1090      E7800000 
 1091              	.LVL108:
 278:C:/Users/stapi/OneDrive/Desktop/GD32VW553/V1_MQTT_OK/GD32VW55X_Wifi_BLE_SDK/GD32VW55x_RELEASE_V1.0.2/MSDK/cloud/alicloud/src/protocol/alcs\alcs_coap.c ****             return NULL;
 1092              		.loc 1 278 13
 278:C:/Users/stapi/OneDrive/Desktop/GD32VW553/V1_MQTT_OK/GD32VW55X_Wifi_BLE_SDK/GD32VW55x_RELEASE_V1.0.2/MSDK/cloud/alicloud/src/protocol/alcs\alcs_coap.c ****             return NULL;
 1093              		.loc 1 278 24 is_stmt 0
 1094 0084 23A00400 		sw	zero,0(s1)
 279:C:/Users/stapi/OneDrive/Desktop/GD32VW553/V1_MQTT_OK/GD32VW55X_Wifi_BLE_SDK/GD32VW55x_RELEASE_V1.0.2/MSDK/cloud/alicloud/src/protocol/alcs\alcs_coap.c ****         }
 1095              		.loc 1 279 13 is_stmt 1
 279:C:/Users/stapi/OneDrive/Desktop/GD32VW553/V1_MQTT_OK/GD32VW55X_Wifi_BLE_SDK/GD32VW55x_RELEASE_V1.0.2/MSDK/cloud/alicloud/src/protocol/alcs\alcs_coap.c ****         }
 1096              		.loc 1 279 20 is_stmt 0
 1097 0088 79B7     		j	.L55
 1098              		.cfi_endproc
 1099              	.LFE32:
 1101              		.section	.text.alcs_context_deinit,"ax",@progbits
 1102              		.align	1
 1103              		.globl	alcs_context_deinit
 1105              	alcs_context_deinit:
 1106              	.LFB33:
 286:C:/Users/stapi/OneDrive/Desktop/GD32VW553/V1_MQTT_OK/GD32VW55X_Wifi_BLE_SDK/GD32VW55x_RELEASE_V1.0.2/MSDK/cloud/alicloud/src/protocol/alcs\alcs_coap.c **** 
 287:C:/Users/stapi/OneDrive/Desktop/GD32VW553/V1_MQTT_OK/GD32VW55X_Wifi_BLE_SDK/GD32VW55x_RELEASE_V1.0.2/MSDK/cloud/alicloud/src/protocol/alcs\alcs_coap.c **** void alcs_context_deinit()
 288:C:/Users/stapi/OneDrive/Desktop/GD32VW553/V1_MQTT_OK/GD32VW55X_Wifi_BLE_SDK/GD32VW55x_RELEASE_V1.0.2/MSDK/cloud/alicloud/src/protocol/alcs\alcs_coap.c **** {
 1107              		.loc 1 288 1 is_stmt 1
 1108              		.cfi_startproc
 1109 0000 17030000 		call	t0,__riscv_save_1
 1109      E7020300 
 1110              		.cfi_offset 8, -8
 1111              		.cfi_offset 1, -4
 1112              		.cfi_def_cfa_offset 16
 289:C:/Users/stapi/OneDrive/Desktop/GD32VW553/V1_MQTT_OK/GD32VW55X_Wifi_BLE_SDK/GD32VW55x_RELEASE_V1.0.2/MSDK/cloud/alicloud/src/protocol/alcs\alcs_coap.c ****     if (g_alcs_ctx) {
 1113              		.loc 1 289 5
 1114              		.loc 1 289 9 is_stmt 0
 1115 0008 37040000 		lui	s0,%hi(.LANCHOR3)
 1116 000c 83270400 		lw	a5,%lo(.LANCHOR3)(s0)
 1117              		.loc 1 289 8
 1118 0010 85C3     		beq	a5,zero,.L62
 290:C:/Users/stapi/OneDrive/Desktop/GD32VW553/V1_MQTT_OK/GD32VW55X_Wifi_BLE_SDK/GD32VW55x_RELEASE_V1.0.2/MSDK/cloud/alicloud/src/protocol/alcs\alcs_coap.c ****         if (g_alcs_ctx->ctx) {CoAPServer_deinit(g_alcs_ctx->ctx);}
 1119              		.loc 1 290 23
 1120 0012 8843     		lw	a0,0(a5)
 1121 0014 13040400 		addi	s0,s0,%lo(.LANCHOR3)
 1122              		.loc 1 290 9 is_stmt 1
 1123              		.loc 1 290 12 is_stmt 0
 1124 0018 09C5     		beq	a0,zero,.L64
 1125              		.loc 1 290 31 is_stmt 1 discriminator 1
 1126 001a 97000000 		call	CoAPServer_deinit
 1126      E7800000 
 1127              	.LVL109:
 1128              	.L64:
 291:C:/Users/stapi/OneDrive/Desktop/GD32VW553/V1_MQTT_OK/GD32VW55X_Wifi_BLE_SDK/GD32VW55x_RELEASE_V1.0.2/MSDK/cloud/alicloud/src/protocol/alcs\alcs_coap.c ****         coap_free (g_alcs_ctx);
 1129              		.loc 1 291 9
 1130 0022 0840     		lw	a0,0(s0)
 1131 0024 97000000 		call	LITE_free_internal
 1131      E7800000 
 1132              	.LVL110:
 292:C:/Users/stapi/OneDrive/Desktop/GD32VW553/V1_MQTT_OK/GD32VW55X_Wifi_BLE_SDK/GD32VW55x_RELEASE_V1.0.2/MSDK/cloud/alicloud/src/protocol/alcs\alcs_coap.c ****         g_alcs_ctx = NULL;
 1133              		.loc 1 292 9
 1134              		.loc 1 292 20 is_stmt 0
 1135 002c 23200400 		sw	zero,0(s0)
 1136              	.L62:
 293:C:/Users/stapi/OneDrive/Desktop/GD32VW553/V1_MQTT_OK/GD32VW55X_Wifi_BLE_SDK/GD32VW55x_RELEASE_V1.0.2/MSDK/cloud/alicloud/src/protocol/alcs\alcs_coap.c ****     }
 294:C:/Users/stapi/OneDrive/Desktop/GD32VW553/V1_MQTT_OK/GD32VW55X_Wifi_BLE_SDK/GD32VW55x_RELEASE_V1.0.2/MSDK/cloud/alicloud/src/protocol/alcs\alcs_coap.c **** }
 1137              		.loc 1 294 1
 1138 0030 17030000 		tail	__riscv_restore_1
 1138      67000300 
 1139              		.cfi_restore 8
 1140              		.cfi_restore 1
 1141              		.cfi_def_cfa_offset 0
 1142              		.cfi_endproc
 1143              	.LFE33:
 1145              		.section	.text.alcs_get_context,"ax",@progbits
 1146              		.align	1
 1147              		.globl	alcs_get_context
 1149              	alcs_get_context:
 1150              	.LFB34:
 295:C:/Users/stapi/OneDrive/Desktop/GD32VW553/V1_MQTT_OK/GD32VW55X_Wifi_BLE_SDK/GD32VW55x_RELEASE_V1.0.2/MSDK/cloud/alicloud/src/protocol/alcs\alcs_coap.c **** 
 296:C:/Users/stapi/OneDrive/Desktop/GD32VW553/V1_MQTT_OK/GD32VW55X_Wifi_BLE_SDK/GD32VW55x_RELEASE_V1.0.2/MSDK/cloud/alicloud/src/protocol/alcs\alcs_coap.c **** CoAPContext * alcs_get_context()
 297:C:/Users/stapi/OneDrive/Desktop/GD32VW553/V1_MQTT_OK/GD32VW55X_Wifi_BLE_SDK/GD32VW55x_RELEASE_V1.0.2/MSDK/cloud/alicloud/src/protocol/alcs\alcs_coap.c **** {
 1151              		.loc 1 297 1 is_stmt 1
 1152              		.cfi_startproc
 298:C:/Users/stapi/OneDrive/Desktop/GD32VW553/V1_MQTT_OK/GD32VW55X_Wifi_BLE_SDK/GD32VW55x_RELEASE_V1.0.2/MSDK/cloud/alicloud/src/protocol/alcs\alcs_coap.c ****     return g_alcs_ctx? g_alcs_ctx->ctx : NULL;
 1153              		.loc 1 298 5
 1154              		.loc 1 298 22 is_stmt 0
 1155 0000 B7070000 		lui	a5,%hi(.LANCHOR3)
 1156 0004 03A50700 		lw	a0,%lo(.LANCHOR3)(a5)
 1157              		.loc 1 298 40
 1158 0008 11C1     		beq	a0,zero,.L72
 1159              		.loc 1 298 40 discriminator 1
 1160 000a 0841     		lw	a0,0(a0)
 1161              	.L72:
 299:C:/Users/stapi/OneDrive/Desktop/GD32VW553/V1_MQTT_OK/GD32VW55X_Wifi_BLE_SDK/GD32VW55x_RELEASE_V1.0.2/MSDK/cloud/alicloud/src/protocol/alcs\alcs_coap.c **** }
 1162              		.loc 1 299 1
 1163 000c 8280     		ret
 1164              		.cfi_endproc
 1165              	.LFE34:
 1167              		.section	.rodata.thread_routine.str1.4,"aMS",@progbits,1
 1168              		.align	2
 1169              	.LC10:
 1170 0000 74687265 		.string	"thread_routine"
 1170      61645F72 
 1170      6F757469 
 1170      6E6500
 1171              		.section	.text.thread_routine,"ax",@progbits
 1172              		.align	1
 1173              		.globl	thread_routine
 1175              	thread_routine:
 1176              	.LFB35:
 300:C:/Users/stapi/OneDrive/Desktop/GD32VW553/V1_MQTT_OK/GD32VW55X_Wifi_BLE_SDK/GD32VW55x_RELEASE_V1.0.2/MSDK/cloud/alicloud/src/protocol/alcs\alcs_coap.c **** 
 301:C:/Users/stapi/OneDrive/Desktop/GD32VW553/V1_MQTT_OK/GD32VW55X_Wifi_BLE_SDK/GD32VW55x_RELEASE_V1.0.2/MSDK/cloud/alicloud/src/protocol/alcs\alcs_coap.c **** #endif
 302:C:/Users/stapi/OneDrive/Desktop/GD32VW553/V1_MQTT_OK/GD32VW55X_Wifi_BLE_SDK/GD32VW55x_RELEASE_V1.0.2/MSDK/cloud/alicloud/src/protocol/alcs\alcs_coap.c **** 
 303:C:/Users/stapi/OneDrive/Desktop/GD32VW553/V1_MQTT_OK/GD32VW55X_Wifi_BLE_SDK/GD32VW55x_RELEASE_V1.0.2/MSDK/cloud/alicloud/src/protocol/alcs\alcs_coap.c **** extern void on_auth_timer (void* arg);
 304:C:/Users/stapi/OneDrive/Desktop/GD32VW553/V1_MQTT_OK/GD32VW55X_Wifi_BLE_SDK/GD32VW55x_RELEASE_V1.0.2/MSDK/cloud/alicloud/src/protocol/alcs\alcs_coap.c **** 
 305:C:/Users/stapi/OneDrive/Desktop/GD32VW553/V1_MQTT_OK/GD32VW55X_Wifi_BLE_SDK/GD32VW55x_RELEASE_V1.0.2/MSDK/cloud/alicloud/src/protocol/alcs\alcs_coap.c **** void* thread_routine (void * arg)
 306:C:/Users/stapi/OneDrive/Desktop/GD32VW553/V1_MQTT_OK/GD32VW55X_Wifi_BLE_SDK/GD32VW55x_RELEASE_V1.0.2/MSDK/cloud/alicloud/src/protocol/alcs\alcs_coap.c **** {
 1177              		.loc 1 306 1 is_stmt 1
 1178              		.cfi_startproc
 1179              	.LVL111:
 1180 0000 17030000 		call	t0,__riscv_save_1
 1180      E7020300 
 1181              		.cfi_offset 8, -8
 1182              		.cfi_offset 1, -4
 1183              		.cfi_def_cfa_offset 16
 307:C:/Users/stapi/OneDrive/Desktop/GD32VW553/V1_MQTT_OK/GD32VW55X_Wifi_BLE_SDK/GD32VW55x_RELEASE_V1.0.2/MSDK/cloud/alicloud/src/protocol/alcs\alcs_coap.c ****     COAP_INFO("thread_routine");
 1184              		.loc 1 307 5
 1185              		.loc 1 307 5
 306:C:/Users/stapi/OneDrive/Desktop/GD32VW553/V1_MQTT_OK/GD32VW55X_Wifi_BLE_SDK/GD32VW55x_RELEASE_V1.0.2/MSDK/cloud/alicloud/src/protocol/alcs\alcs_coap.c ****     COAP_INFO("thread_routine");
 1186              		.loc 1 306 1 is_stmt 0
 1187 0008 2A84     		mv	s0,a0
 1188              		.loc 1 307 5
 1189 000a 37050000 		lui	a0,%hi(.LC0)
 1190              	.LVL112:
 1191 000e 13050500 		addi	a0,a0,%lo(.LC0)
 1192 0012 97000000 		call	HAL_Printf
 1192      E7800000 
 1193              	.LVL113:
 1194              		.loc 1 307 5 is_stmt 1
 1195 001a 37050000 		lui	a0,%hi(.LC10)
 1196 001e 13050500 		addi	a0,a0,%lo(.LC10)
 1197 0022 97000000 		call	HAL_Printf
 1197      E7800000 
 1198              	.LVL114:
 1199              		.loc 1 307 5
 1200 002a 37050000 		lui	a0,%hi(.LC2)
 1201 002e 13050500 		addi	a0,a0,%lo(.LC2)
 1202 0032 97000000 		call	HAL_Printf
 1202      E7800000 
 1203              	.LVL115:
 1204              		.loc 1 307 5
 308:C:/Users/stapi/OneDrive/Desktop/GD32VW553/V1_MQTT_OK/GD32VW55X_Wifi_BLE_SDK/GD32VW55x_RELEASE_V1.0.2/MSDK/cloud/alicloud/src/protocol/alcs\alcs_coap.c **** 
 309:C:/Users/stapi/OneDrive/Desktop/GD32VW553/V1_MQTT_OK/GD32VW55X_Wifi_BLE_SDK/GD32VW55x_RELEASE_V1.0.2/MSDK/cloud/alicloud/src/protocol/alcs\alcs_coap.c ****     ALCSContext*ctx = (ALCSContext*)arg;
 1205              		.loc 1 309 5
 310:C:/Users/stapi/OneDrive/Desktop/GD32VW553/V1_MQTT_OK/GD32VW55X_Wifi_BLE_SDK/GD32VW55x_RELEASE_V1.0.2/MSDK/cloud/alicloud/src/protocol/alcs\alcs_coap.c ****     ctx->loop = 1;
 1206              		.loc 1 310 5
 1207              		.loc 1 310 15 is_stmt 0
 1208 003a 8547     		li	a5,1
 1209 003c 2302F400 		sb	a5,4(s0)
 311:C:/Users/stapi/OneDrive/Desktop/GD32VW553/V1_MQTT_OK/GD32VW55X_Wifi_BLE_SDK/GD32VW55x_RELEASE_V1.0.2/MSDK/cloud/alicloud/src/protocol/alcs\alcs_coap.c **** 
 312:C:/Users/stapi/OneDrive/Desktop/GD32VW553/V1_MQTT_OK/GD32VW55X_Wifi_BLE_SDK/GD32VW55x_RELEASE_V1.0.2/MSDK/cloud/alicloud/src/protocol/alcs\alcs_coap.c ****     while (ctx->loop) {
 1210              		.loc 1 312 5 is_stmt 1
 1211              		.loc 1 312 11
 1212              	.L78:
 313:C:/Users/stapi/OneDrive/Desktop/GD32VW553/V1_MQTT_OK/GD32VW55X_Wifi_BLE_SDK/GD32VW55x_RELEASE_V1.0.2/MSDK/cloud/alicloud/src/protocol/alcs\alcs_coap.c ****         CoAPMessage_cycle (ctx->ctx);
 1213              		.loc 1 313 9
 1214 0040 0840     		lw	a0,0(s0)
 1215 0042 97000000 		call	CoAPMessage_cycle
 1215      E7800000 
 1216              	.LVL116:
 314:C:/Users/stapi/OneDrive/Desktop/GD32VW553/V1_MQTT_OK/GD32VW55X_Wifi_BLE_SDK/GD32VW55x_RELEASE_V1.0.2/MSDK/cloud/alicloud/src/protocol/alcs\alcs_coap.c **** #ifdef USE_ALCS_SECURE
 315:C:/Users/stapi/OneDrive/Desktop/GD32VW553/V1_MQTT_OK/GD32VW55X_Wifi_BLE_SDK/GD32VW55x_RELEASE_V1.0.2/MSDK/cloud/alicloud/src/protocol/alcs\alcs_coap.c ****         on_auth_timer (ctx->ctx);
 1217              		.loc 1 315 9
 1218 004a 0840     		lw	a0,0(s0)
 1219 004c 97000000 		call	on_auth_timer
 1219      E7800000 
 1220              	.LVL117:
 312:C:/Users/stapi/OneDrive/Desktop/GD32VW553/V1_MQTT_OK/GD32VW55X_Wifi_BLE_SDK/GD32VW55x_RELEASE_V1.0.2/MSDK/cloud/alicloud/src/protocol/alcs\alcs_coap.c ****         CoAPMessage_cycle (ctx->ctx);
 1221              		.loc 1 312 11
 1222 0054 83074400 		lb	a5,4(s0)
 1223 0058 E5F7     		bne	a5,zero,.L78
 316:C:/Users/stapi/OneDrive/Desktop/GD32VW553/V1_MQTT_OK/GD32VW55X_Wifi_BLE_SDK/GD32VW55x_RELEASE_V1.0.2/MSDK/cloud/alicloud/src/protocol/alcs\alcs_coap.c **** #endif
 317:C:/Users/stapi/OneDrive/Desktop/GD32VW553/V1_MQTT_OK/GD32VW55X_Wifi_BLE_SDK/GD32VW55x_RELEASE_V1.0.2/MSDK/cloud/alicloud/src/protocol/alcs\alcs_coap.c ****     }
 318:C:/Users/stapi/OneDrive/Desktop/GD32VW553/V1_MQTT_OK/GD32VW55X_Wifi_BLE_SDK/GD32VW55x_RELEASE_V1.0.2/MSDK/cloud/alicloud/src/protocol/alcs\alcs_coap.c **** 
 319:C:/Users/stapi/OneDrive/Desktop/GD32VW553/V1_MQTT_OK/GD32VW55X_Wifi_BLE_SDK/GD32VW55x_RELEASE_V1.0.2/MSDK/cloud/alicloud/src/protocol/alcs\alcs_coap.c ****     return NULL;
 1224              		.loc 1 319 5
 320:C:/Users/stapi/OneDrive/Desktop/GD32VW553/V1_MQTT_OK/GD32VW55X_Wifi_BLE_SDK/GD32VW55x_RELEASE_V1.0.2/MSDK/cloud/alicloud/src/protocol/alcs\alcs_coap.c **** }
 1225              		.loc 1 320 1 is_stmt 0
 1226 005a 0145     		li	a0,0
 1227 005c 17030000 		tail	__riscv_restore_1
 1227      67000300 
 1228              		.cfi_restore 8
 1229              		.cfi_restore 1
 1230              		.cfi_def_cfa_offset 0
 1231              		.cfi_endproc
 1232              	.LFE35:
 1234              		.section	.text.alcs_start_loop,"ax",@progbits
 1235              		.align	1
 1236              		.globl	alcs_start_loop
 1238              	alcs_start_loop:
 1239              	.LFB36:
 321:C:/Users/stapi/OneDrive/Desktop/GD32VW553/V1_MQTT_OK/GD32VW55X_Wifi_BLE_SDK/GD32VW55x_RELEASE_V1.0.2/MSDK/cloud/alicloud/src/protocol/alcs\alcs_coap.c **** 
 322:C:/Users/stapi/OneDrive/Desktop/GD32VW553/V1_MQTT_OK/GD32VW55X_Wifi_BLE_SDK/GD32VW55x_RELEASE_V1.0.2/MSDK/cloud/alicloud/src/protocol/alcs\alcs_coap.c **** void alcs_start_loop (CoAPContext *ctx, int newThread)
 323:C:/Users/stapi/OneDrive/Desktop/GD32VW553/V1_MQTT_OK/GD32VW55X_Wifi_BLE_SDK/GD32VW55x_RELEASE_V1.0.2/MSDK/cloud/alicloud/src/protocol/alcs\alcs_coap.c **** {
 1240              		.loc 1 323 1 is_stmt 1
 1241              		.cfi_startproc
 1242              	.LVL118:
 1243 0000 17030000 		call	t0,__riscv_save_1
 1243      E7020300 
 1244              		.cfi_offset 8, -8
 1245              		.cfi_offset 1, -4
 1246              		.cfi_def_cfa_offset 16
 324:C:/Users/stapi/OneDrive/Desktop/GD32VW553/V1_MQTT_OK/GD32VW55X_Wifi_BLE_SDK/GD32VW55x_RELEASE_V1.0.2/MSDK/cloud/alicloud/src/protocol/alcs\alcs_coap.c **** #ifdef SUPPORT_MULTI_DEVICES
 325:C:/Users/stapi/OneDrive/Desktop/GD32VW553/V1_MQTT_OK/GD32VW55X_Wifi_BLE_SDK/GD32VW55x_RELEASE_V1.0.2/MSDK/cloud/alicloud/src/protocol/alcs\alcs_coap.c ****     void * handle = NULL;
 326:C:/Users/stapi/OneDrive/Desktop/GD32VW553/V1_MQTT_OK/GD32VW55X_Wifi_BLE_SDK/GD32VW55x_RELEASE_V1.0.2/MSDK/cloud/alicloud/src/protocol/alcs\alcs_coap.c ****     ALCSContext* alcs_ctx = get_context (ctx);
 327:C:/Users/stapi/OneDrive/Desktop/GD32VW553/V1_MQTT_OK/GD32VW55X_Wifi_BLE_SDK/GD32VW55x_RELEASE_V1.0.2/MSDK/cloud/alicloud/src/protocol/alcs\alcs_coap.c ****     if (alcs_ctx && !alcs_ctx->loop) {
 328:C:/Users/stapi/OneDrive/Desktop/GD32VW553/V1_MQTT_OK/GD32VW55X_Wifi_BLE_SDK/GD32VW55x_RELEASE_V1.0.2/MSDK/cloud/alicloud/src/protocol/alcs\alcs_coap.c ****         int stack_used = 0;
 329:C:/Users/stapi/OneDrive/Desktop/GD32VW553/V1_MQTT_OK/GD32VW55X_Wifi_BLE_SDK/GD32VW55x_RELEASE_V1.0.2/MSDK/cloud/alicloud/src/protocol/alcs\alcs_coap.c ****         if (!newThread || 0 != HAL_ThreadCreate (&handle, thread_routine, alcs_ctx, NULL, &stack_us
 330:C:/Users/stapi/OneDrive/Desktop/GD32VW553/V1_MQTT_OK/GD32VW55X_Wifi_BLE_SDK/GD32VW55x_RELEASE_V1.0.2/MSDK/cloud/alicloud/src/protocol/alcs\alcs_coap.c ****             thread_routine (alcs_ctx);
 331:C:/Users/stapi/OneDrive/Desktop/GD32VW553/V1_MQTT_OK/GD32VW55X_Wifi_BLE_SDK/GD32VW55x_RELEASE_V1.0.2/MSDK/cloud/alicloud/src/protocol/alcs\alcs_coap.c ****         }
 332:C:/Users/stapi/OneDrive/Desktop/GD32VW553/V1_MQTT_OK/GD32VW55X_Wifi_BLE_SDK/GD32VW55x_RELEASE_V1.0.2/MSDK/cloud/alicloud/src/protocol/alcs\alcs_coap.c ****     }
 333:C:/Users/stapi/OneDrive/Desktop/GD32VW553/V1_MQTT_OK/GD32VW55X_Wifi_BLE_SDK/GD32VW55x_RELEASE_V1.0.2/MSDK/cloud/alicloud/src/protocol/alcs\alcs_coap.c **** #else
 334:C:/Users/stapi/OneDrive/Desktop/GD32VW553/V1_MQTT_OK/GD32VW55X_Wifi_BLE_SDK/GD32VW55x_RELEASE_V1.0.2/MSDK/cloud/alicloud/src/protocol/alcs\alcs_coap.c **** 
 335:C:/Users/stapi/OneDrive/Desktop/GD32VW553/V1_MQTT_OK/GD32VW55X_Wifi_BLE_SDK/GD32VW55x_RELEASE_V1.0.2/MSDK/cloud/alicloud/src/protocol/alcs\alcs_coap.c **** #ifdef USE_ALCS_SECURE
 336:C:/Users/stapi/OneDrive/Desktop/GD32VW553/V1_MQTT_OK/GD32VW55X_Wifi_BLE_SDK/GD32VW55x_RELEASE_V1.0.2/MSDK/cloud/alicloud/src/protocol/alcs\alcs_coap.c ****     CoAPServer_add_timer (on_auth_timer);
 1247              		.loc 1 336 5
 323:C:/Users/stapi/OneDrive/Desktop/GD32VW553/V1_MQTT_OK/GD32VW55X_Wifi_BLE_SDK/GD32VW55x_RELEASE_V1.0.2/MSDK/cloud/alicloud/src/protocol/alcs\alcs_coap.c **** #ifdef SUPPORT_MULTI_DEVICES
 1248              		.loc 1 323 1 is_stmt 0
 1249 0008 2A84     		mv	s0,a0
 1250              		.loc 1 336 5
 1251 000a 37050000 		lui	a0,%hi(on_auth_timer)
 1252              	.LVL119:
 1253 000e 13050500 		addi	a0,a0,%lo(on_auth_timer)
 1254 0012 97000000 		call	CoAPServer_add_timer
 1254      E7800000 
 1255              	.LVL120:
 337:C:/Users/stapi/OneDrive/Desktop/GD32VW553/V1_MQTT_OK/GD32VW55X_Wifi_BLE_SDK/GD32VW55x_RELEASE_V1.0.2/MSDK/cloud/alicloud/src/protocol/alcs\alcs_coap.c **** #endif
 338:C:/Users/stapi/OneDrive/Desktop/GD32VW553/V1_MQTT_OK/GD32VW55X_Wifi_BLE_SDK/GD32VW55x_RELEASE_V1.0.2/MSDK/cloud/alicloud/src/protocol/alcs\alcs_coap.c ****     CoAPServer_loop (ctx);
 1256              		.loc 1 338 5 is_stmt 1
 1257 001a 2285     		mv	a0,s0
 1258 001c 97000000 		call	CoAPServer_loop
 1258      E7800000 
 1259              	.LVL121:
 339:C:/Users/stapi/OneDrive/Desktop/GD32VW553/V1_MQTT_OK/GD32VW55X_Wifi_BLE_SDK/GD32VW55x_RELEASE_V1.0.2/MSDK/cloud/alicloud/src/protocol/alcs\alcs_coap.c **** #endif
 340:C:/Users/stapi/OneDrive/Desktop/GD32VW553/V1_MQTT_OK/GD32VW55X_Wifi_BLE_SDK/GD32VW55x_RELEASE_V1.0.2/MSDK/cloud/alicloud/src/protocol/alcs\alcs_coap.c **** }
 1260              		.loc 1 340 1 is_stmt 0
 1261 0024 17030000 		tail	__riscv_restore_1
 1261      67000300 
 1262              		.cfi_restore 8
 1263              		.cfi_restore 1
 1264              		.cfi_def_cfa_offset 0
 1265              		.cfi_endproc
 1266              	.LFE36:
 1268              		.section	.text.alcs_stop_loop,"ax",@progbits
 1269              		.align	1
 1270              		.globl	alcs_stop_loop
 1272              	alcs_stop_loop:
 1273              	.LFB37:
 341:C:/Users/stapi/OneDrive/Desktop/GD32VW553/V1_MQTT_OK/GD32VW55X_Wifi_BLE_SDK/GD32VW55x_RELEASE_V1.0.2/MSDK/cloud/alicloud/src/protocol/alcs\alcs_coap.c **** 
 342:C:/Users/stapi/OneDrive/Desktop/GD32VW553/V1_MQTT_OK/GD32VW55X_Wifi_BLE_SDK/GD32VW55x_RELEASE_V1.0.2/MSDK/cloud/alicloud/src/protocol/alcs\alcs_coap.c **** void alcs_stop_loop (CoAPContext *ctx)
 343:C:/Users/stapi/OneDrive/Desktop/GD32VW553/V1_MQTT_OK/GD32VW55X_Wifi_BLE_SDK/GD32VW55x_RELEASE_V1.0.2/MSDK/cloud/alicloud/src/protocol/alcs\alcs_coap.c **** {
 1274              		.loc 1 343 1 is_stmt 1
 1275              		.cfi_startproc
 1276              	.LVL122:
 344:C:/Users/stapi/OneDrive/Desktop/GD32VW553/V1_MQTT_OK/GD32VW55X_Wifi_BLE_SDK/GD32VW55x_RELEASE_V1.0.2/MSDK/cloud/alicloud/src/protocol/alcs\alcs_coap.c **** #ifdef SUPPORT_MULTI_DEVICES
 345:C:/Users/stapi/OneDrive/Desktop/GD32VW553/V1_MQTT_OK/GD32VW55X_Wifi_BLE_SDK/GD32VW55x_RELEASE_V1.0.2/MSDK/cloud/alicloud/src/protocol/alcs\alcs_coap.c ****     ALCSContext* alcs_ctx = get_context (ctx);
 346:C:/Users/stapi/OneDrive/Desktop/GD32VW553/V1_MQTT_OK/GD32VW55X_Wifi_BLE_SDK/GD32VW55x_RELEASE_V1.0.2/MSDK/cloud/alicloud/src/protocol/alcs\alcs_coap.c ****     if (alcs_ctx) {
 347:C:/Users/stapi/OneDrive/Desktop/GD32VW553/V1_MQTT_OK/GD32VW55X_Wifi_BLE_SDK/GD32VW55x_RELEASE_V1.0.2/MSDK/cloud/alicloud/src/protocol/alcs\alcs_coap.c ****         alcs_ctx->loop = 0;
 348:C:/Users/stapi/OneDrive/Desktop/GD32VW553/V1_MQTT_OK/GD32VW55X_Wifi_BLE_SDK/GD32VW55x_RELEASE_V1.0.2/MSDK/cloud/alicloud/src/protocol/alcs\alcs_coap.c ****     }
 349:C:/Users/stapi/OneDrive/Desktop/GD32VW553/V1_MQTT_OK/GD32VW55X_Wifi_BLE_SDK/GD32VW55x_RELEASE_V1.0.2/MSDK/cloud/alicloud/src/protocol/alcs\alcs_coap.c **** #else
 350:C:/Users/stapi/OneDrive/Desktop/GD32VW553/V1_MQTT_OK/GD32VW55X_Wifi_BLE_SDK/GD32VW55x_RELEASE_V1.0.2/MSDK/cloud/alicloud/src/protocol/alcs\alcs_coap.c ****     CoAPServer_deinit (ctx);
 1277              		.loc 1 350 5
 1278 0000 17030000 		tail	CoAPServer_deinit
 1278      67000300 
 1279              	.LVL123:
 1280              		.cfi_endproc
 1281              	.LFE37:
 1283              		.section	.text.alcs_init,"ax",@progbits
 1284              		.align	1
 1285              		.globl	alcs_init
 1287              	alcs_init:
 1288              	.LFB38:
 351:C:/Users/stapi/OneDrive/Desktop/GD32VW553/V1_MQTT_OK/GD32VW55X_Wifi_BLE_SDK/GD32VW55x_RELEASE_V1.0.2/MSDK/cloud/alicloud/src/protocol/alcs\alcs_coap.c **** #endif
 352:C:/Users/stapi/OneDrive/Desktop/GD32VW553/V1_MQTT_OK/GD32VW55X_Wifi_BLE_SDK/GD32VW55x_RELEASE_V1.0.2/MSDK/cloud/alicloud/src/protocol/alcs\alcs_coap.c **** }
 353:C:/Users/stapi/OneDrive/Desktop/GD32VW553/V1_MQTT_OK/GD32VW55X_Wifi_BLE_SDK/GD32VW55x_RELEASE_V1.0.2/MSDK/cloud/alicloud/src/protocol/alcs\alcs_coap.c **** 
 354:C:/Users/stapi/OneDrive/Desktop/GD32VW553/V1_MQTT_OK/GD32VW55X_Wifi_BLE_SDK/GD32VW55x_RELEASE_V1.0.2/MSDK/cloud/alicloud/src/protocol/alcs\alcs_coap.c **** void alcs_init ()
 355:C:/Users/stapi/OneDrive/Desktop/GD32VW553/V1_MQTT_OK/GD32VW55X_Wifi_BLE_SDK/GD32VW55x_RELEASE_V1.0.2/MSDK/cloud/alicloud/src/protocol/alcs\alcs_coap.c **** {
 1289              		.loc 1 355 1
 1290              		.cfi_startproc
 356:C:/Users/stapi/OneDrive/Desktop/GD32VW553/V1_MQTT_OK/GD32VW55X_Wifi_BLE_SDK/GD32VW55x_RELEASE_V1.0.2/MSDK/cloud/alicloud/src/protocol/alcs\alcs_coap.c **** #ifdef SUPPORT_MULTI_DEVICES
 357:C:/Users/stapi/OneDrive/Desktop/GD32VW553/V1_MQTT_OK/GD32VW55X_Wifi_BLE_SDK/GD32VW55x_RELEASE_V1.0.2/MSDK/cloud/alicloud/src/protocol/alcs\alcs_coap.c ****     INIT_LIST_HEAD (&context_head);
 358:C:/Users/stapi/OneDrive/Desktop/GD32VW553/V1_MQTT_OK/GD32VW55X_Wifi_BLE_SDK/GD32VW55x_RELEASE_V1.0.2/MSDK/cloud/alicloud/src/protocol/alcs\alcs_coap.c **** #endif
 359:C:/Users/stapi/OneDrive/Desktop/GD32VW553/V1_MQTT_OK/GD32VW55X_Wifi_BLE_SDK/GD32VW55x_RELEASE_V1.0.2/MSDK/cloud/alicloud/src/protocol/alcs\alcs_coap.c ****     INIT_LIST_HEAD (&resource_cb_head);
 1291              		.loc 1 359 5
 1292              	.LVL124:
 1293              	.LBB24:
 1294              	.LBB25:
  64:..\..\..\..\cloud\alicloud\src\infra\utils\misc/lite-list.h **** }
  65:..\..\..\..\cloud\alicloud\src\infra\utils\misc/lite-list.h **** 
  66:..\..\..\..\cloud\alicloud\src\infra\utils\misc/lite-list.h **** static inline void dlist_del(dlist_t *node)
  67:..\..\..\..\cloud\alicloud\src\infra\utils\misc/lite-list.h **** {
  68:..\..\..\..\cloud\alicloud\src\infra\utils\misc/lite-list.h ****     dlist_t *prev = node->prev;
  69:..\..\..\..\cloud\alicloud\src\infra\utils\misc/lite-list.h ****     dlist_t *next = node->next;
  70:..\..\..\..\cloud\alicloud\src\infra\utils\misc/lite-list.h **** 
  71:..\..\..\..\cloud\alicloud\src\infra\utils\misc/lite-list.h ****     prev->next = next;
  72:..\..\..\..\cloud\alicloud\src\infra\utils\misc/lite-list.h ****     next->prev = prev;
  73:..\..\..\..\cloud\alicloud\src\infra\utils\misc/lite-list.h **** }
  74:..\..\..\..\cloud\alicloud\src\infra\utils\misc/lite-list.h **** 
  75:..\..\..\..\cloud\alicloud\src\infra\utils\misc/lite-list.h **** static inline void dlist_init(dlist_t *node)
  76:..\..\..\..\cloud\alicloud\src\infra\utils\misc/lite-list.h **** {
  77:..\..\..\..\cloud\alicloud\src\infra\utils\misc/lite-list.h ****     node->next = node->prev = node;
  78:..\..\..\..\cloud\alicloud\src\infra\utils\misc/lite-list.h **** }
  79:..\..\..\..\cloud\alicloud\src\infra\utils\misc/lite-list.h **** 
  80:..\..\..\..\cloud\alicloud\src\infra\utils\misc/lite-list.h **** static inline void INIT_AOS_DLIST_HEAD(dlist_t *list)
  81:..\..\..\..\cloud\alicloud\src\infra\utils\misc/lite-list.h **** {
  82:..\..\..\..\cloud\alicloud\src\infra\utils\misc/lite-list.h ****     list->next = list;
 1295              		.loc 2 82 5
 1296              		.loc 2 82 16 is_stmt 0
 1297 0000 B7070000 		lui	a5,%hi(.LANCHOR1)
 1298 0004 93870700 		addi	a5,a5,%lo(.LANCHOR1)
 1299 0008 DCC3     		sw	a5,4(a5)
  83:..\..\..\..\cloud\alicloud\src\infra\utils\misc/lite-list.h ****     list->prev = list;
 1300              		.loc 2 83 5 is_stmt 1
 1301              		.loc 2 83 16 is_stmt 0
 1302 000a 9CC3     		sw	a5,0(a5)
 1303              	.LVL125:
 1304              	.LBE25:
 1305              	.LBE24:
 360:C:/Users/stapi/OneDrive/Desktop/GD32VW553/V1_MQTT_OK/GD32VW55X_Wifi_BLE_SDK/GD32VW55x_RELEASE_V1.0.2/MSDK/cloud/alicloud/src/protocol/alcs\alcs_coap.c **** }
 1306              		.loc 1 360 1
 1307 000c 8280     		ret
 1308              		.cfi_endproc
 1309              	.LFE38:
 1311              		.section	.text.alcs_deinit,"ax",@progbits
 1312              		.align	1
 1313              		.globl	alcs_deinit
 1315              	alcs_deinit:
 1316              	.LFB39:
 361:C:/Users/stapi/OneDrive/Desktop/GD32VW553/V1_MQTT_OK/GD32VW55X_Wifi_BLE_SDK/GD32VW55x_RELEASE_V1.0.2/MSDK/cloud/alicloud/src/protocol/alcs\alcs_coap.c **** 
 362:C:/Users/stapi/OneDrive/Desktop/GD32VW553/V1_MQTT_OK/GD32VW55X_Wifi_BLE_SDK/GD32VW55x_RELEASE_V1.0.2/MSDK/cloud/alicloud/src/protocol/alcs\alcs_coap.c **** void alcs_deinit()
 363:C:/Users/stapi/OneDrive/Desktop/GD32VW553/V1_MQTT_OK/GD32VW55X_Wifi_BLE_SDK/GD32VW55x_RELEASE_V1.0.2/MSDK/cloud/alicloud/src/protocol/alcs\alcs_coap.c **** {
 1317              		.loc 1 363 1 is_stmt 1
 1318              		.cfi_startproc
 1319 0000 17030000 		call	t0,__riscv_save_1
 1319      E7020300 
 1320              		.cfi_offset 8, -8
 1321              		.cfi_offset 1, -4
 1322              		.cfi_def_cfa_offset 16
 364:C:/Users/stapi/OneDrive/Desktop/GD32VW553/V1_MQTT_OK/GD32VW55X_Wifi_BLE_SDK/GD32VW55x_RELEASE_V1.0.2/MSDK/cloud/alicloud/src/protocol/alcs\alcs_coap.c **** 	resource_cb_item* del_item = NULL;
 1323              		.loc 1 364 2
 1324              	.LVL126:
 365:C:/Users/stapi/OneDrive/Desktop/GD32VW553/V1_MQTT_OK/GD32VW55X_Wifi_BLE_SDK/GD32VW55x_RELEASE_V1.0.2/MSDK/cloud/alicloud/src/protocol/alcs\alcs_coap.c **** 
 366:C:/Users/stapi/OneDrive/Desktop/GD32VW553/V1_MQTT_OK/GD32VW55X_Wifi_BLE_SDK/GD32VW55x_RELEASE_V1.0.2/MSDK/cloud/alicloud/src/protocol/alcs\alcs_coap.c **** 	list_for_each_entry(del_item,&resource_cb_head,lst,resource_cb_item)
 1325              		.loc 1 366 2
 1326 0008 37040000 		lui	s0,%hi(.LANCHOR1)
 1327 000c 93070400 		addi	a5,s0,%lo(.LANCHOR1)
 1328 0010 C843     		lw	a0,4(a5)
 1329 0012 13040400 		addi	s0,s0,%lo(.LANCHOR1)
 1330 0016 5115     		addi	a0,a0,-12
 1331              	.LVL127:
 1332              	.L87:
 1333              		.loc 1 366 2 discriminator 1
 1334 0018 9307C500 		addi	a5,a0,12
 1335 001c 6316F400 		bne	s0,a5,.L88
 367:C:/Users/stapi/OneDrive/Desktop/GD32VW553/V1_MQTT_OK/GD32VW55X_Wifi_BLE_SDK/GD32VW55x_RELEASE_V1.0.2/MSDK/cloud/alicloud/src/protocol/alcs\alcs_coap.c **** 	{
 368:C:/Users/stapi/OneDrive/Desktop/GD32VW553/V1_MQTT_OK/GD32VW55X_Wifi_BLE_SDK/GD32VW55x_RELEASE_V1.0.2/MSDK/cloud/alicloud/src/protocol/alcs\alcs_coap.c **** 		list_del(&del_item->lst);
 369:C:/Users/stapi/OneDrive/Desktop/GD32VW553/V1_MQTT_OK/GD32VW55X_Wifi_BLE_SDK/GD32VW55x_RELEASE_V1.0.2/MSDK/cloud/alicloud/src/protocol/alcs\alcs_coap.c **** 		coap_free(del_item);
 370:C:/Users/stapi/OneDrive/Desktop/GD32VW553/V1_MQTT_OK/GD32VW55X_Wifi_BLE_SDK/GD32VW55x_RELEASE_V1.0.2/MSDK/cloud/alicloud/src/protocol/alcs\alcs_coap.c **** 		del_item = list_entry(&resource_cb_head,resource_cb_item,lst);
 371:C:/Users/stapi/OneDrive/Desktop/GD32VW553/V1_MQTT_OK/GD32VW55X_Wifi_BLE_SDK/GD32VW55x_RELEASE_V1.0.2/MSDK/cloud/alicloud/src/protocol/alcs\alcs_coap.c **** 	}
 372:C:/Users/stapi/OneDrive/Desktop/GD32VW553/V1_MQTT_OK/GD32VW55X_Wifi_BLE_SDK/GD32VW55x_RELEASE_V1.0.2/MSDK/cloud/alicloud/src/protocol/alcs\alcs_coap.c **** }
 1336              		.loc 1 372 1 is_stmt 0
 1337 0020 17030000 		tail	__riscv_restore_1
 1337      67000300 
 1338              		.cfi_remember_state
 1339              		.cfi_restore 8
 1340              		.cfi_restore 1
 1341              		.cfi_def_cfa_offset 0
 1342              	.L88:
 1343              		.cfi_restore_state
 368:C:/Users/stapi/OneDrive/Desktop/GD32VW553/V1_MQTT_OK/GD32VW55X_Wifi_BLE_SDK/GD32VW55x_RELEASE_V1.0.2/MSDK/cloud/alicloud/src/protocol/alcs\alcs_coap.c **** 		coap_free(del_item);
 1344              		.loc 1 368 3 is_stmt 1
 1345              	.LVL128:
 1346              	.LBB28:
 1347              	.LBB29:
  68:..\..\..\..\cloud\alicloud\src\infra\utils\misc/lite-list.h ****     dlist_t *next = node->next;
 1348              		.loc 2 68 5
  68:..\..\..\..\cloud\alicloud\src\infra\utils\misc/lite-list.h ****     dlist_t *next = node->next;
 1349              		.loc 2 68 14 is_stmt 0
 1350 0028 5845     		lw	a4,12(a0)
 1351              	.LVL129:
  69:..\..\..\..\cloud\alicloud\src\infra\utils\misc/lite-list.h **** 
 1352              		.loc 2 69 5 is_stmt 1
  69:..\..\..\..\cloud\alicloud\src\infra\utils\misc/lite-list.h **** 
 1353              		.loc 2 69 14 is_stmt 0
 1354 002a 1C49     		lw	a5,16(a0)
 1355              	.LVL130:
  71:..\..\..\..\cloud\alicloud\src\infra\utils\misc/lite-list.h ****     next->prev = prev;
 1356              		.loc 2 71 5 is_stmt 1
  71:..\..\..\..\cloud\alicloud\src\infra\utils\misc/lite-list.h ****     next->prev = prev;
 1357              		.loc 2 71 16 is_stmt 0
 1358 002c 5CC3     		sw	a5,4(a4)
  72:..\..\..\..\cloud\alicloud\src\infra\utils\misc/lite-list.h **** }
 1359              		.loc 2 72 5 is_stmt 1
  72:..\..\..\..\cloud\alicloud\src\infra\utils\misc/lite-list.h **** }
 1360              		.loc 2 72 16 is_stmt 0
 1361 002e 98C3     		sw	a4,0(a5)
 1362              	.LVL131:
 1363              	.LBE29:
 1364              	.LBE28:
 369:C:/Users/stapi/OneDrive/Desktop/GD32VW553/V1_MQTT_OK/GD32VW55X_Wifi_BLE_SDK/GD32VW55x_RELEASE_V1.0.2/MSDK/cloud/alicloud/src/protocol/alcs\alcs_coap.c **** 		del_item = list_entry(&resource_cb_head,resource_cb_item,lst);
 1365              		.loc 1 369 3 is_stmt 1
 1366 0030 97000000 		call	LITE_free_internal
 1366      E7800000 
 1367              	.LVL132:
 370:C:/Users/stapi/OneDrive/Desktop/GD32VW553/V1_MQTT_OK/GD32VW55X_Wifi_BLE_SDK/GD32VW55x_RELEASE_V1.0.2/MSDK/cloud/alicloud/src/protocol/alcs\alcs_coap.c **** 	}
 1368              		.loc 1 370 3
 366:C:/Users/stapi/OneDrive/Desktop/GD32VW553/V1_MQTT_OK/GD32VW55X_Wifi_BLE_SDK/GD32VW55x_RELEASE_V1.0.2/MSDK/cloud/alicloud/src/protocol/alcs\alcs_coap.c **** 	{
 1369              		.loc 1 366 2
 1370 0038 4840     		lw	a0,4(s0)
 1371 003a 5115     		addi	a0,a0,-12
 1372              	.LVL133:
 1373 003c F1BF     		j	.L87
 1374              		.cfi_endproc
 1375              	.LFE39:
 1377              		.section	.rodata.alcs_msg_setAddr.str1.4,"aMS",@progbits,1
 1378              		.align	2
 1379              	.LC11:
 1380 0000 496E7661 		.string	"Invalid paramter p_path %p, p_message %p"
 1380      6C696420 
 1380      70617261 
 1380      6D746572 
 1380      20705F70 
 1381 0029 000000   		.align	2
 1382              	.LC12:
 1383 002c 54686520 		.string	"The uri length is too long,len = %d"
 1383      75726920 
 1383      6C656E67 
 1383      74682069 
 1383      7320746F 
 1384              		.align	2
 1385              	.LC13:
 1386 0050 54686520 		.string	"The uri is %s"
 1386      75726920 
 1386      69732025 
 1386      7300
 1387 005e 0000     		.align	2
 1388              	.LC14:
 1389 0060 70617468 		.string	"path: %s,len=%d"
 1389      3A202573 
 1389      2C6C656E 
 1389      3D256400 
 1390              		.section	.text.alcs_msg_setAddr,"ax",@progbits
 1391              		.align	1
 1392              		.globl	alcs_msg_setAddr
 1394              	alcs_msg_setAddr:
 1395              	.LFB41:
 373:C:/Users/stapi/OneDrive/Desktop/GD32VW553/V1_MQTT_OK/GD32VW55X_Wifi_BLE_SDK/GD32VW55x_RELEASE_V1.0.2/MSDK/cloud/alicloud/src/protocol/alcs\alcs_coap.c **** 
 374:C:/Users/stapi/OneDrive/Desktop/GD32VW553/V1_MQTT_OK/GD32VW55X_Wifi_BLE_SDK/GD32VW55x_RELEASE_V1.0.2/MSDK/cloud/alicloud/src/protocol/alcs\alcs_coap.c **** static int path_2_option(const char *uri, CoAPMessage *message)
 375:C:/Users/stapi/OneDrive/Desktop/GD32VW553/V1_MQTT_OK/GD32VW55X_Wifi_BLE_SDK/GD32VW55x_RELEASE_V1.0.2/MSDK/cloud/alicloud/src/protocol/alcs\alcs_coap.c **** {
 376:C:/Users/stapi/OneDrive/Desktop/GD32VW553/V1_MQTT_OK/GD32VW55X_Wifi_BLE_SDK/GD32VW55x_RELEASE_V1.0.2/MSDK/cloud/alicloud/src/protocol/alcs\alcs_coap.c ****     const char *ptr     = NULL;
 377:C:/Users/stapi/OneDrive/Desktop/GD32VW553/V1_MQTT_OK/GD32VW55X_Wifi_BLE_SDK/GD32VW55x_RELEASE_V1.0.2/MSDK/cloud/alicloud/src/protocol/alcs\alcs_coap.c ****     const char *pstr    = NULL;
 378:C:/Users/stapi/OneDrive/Desktop/GD32VW553/V1_MQTT_OK/GD32VW55X_Wifi_BLE_SDK/GD32VW55x_RELEASE_V1.0.2/MSDK/cloud/alicloud/src/protocol/alcs\alcs_coap.c ****     char  path[COAP_MSG_MAX_PATH_LEN]  = {0};
 379:C:/Users/stapi/OneDrive/Desktop/GD32VW553/V1_MQTT_OK/GD32VW55X_Wifi_BLE_SDK/GD32VW55x_RELEASE_V1.0.2/MSDK/cloud/alicloud/src/protocol/alcs\alcs_coap.c **** 
 380:C:/Users/stapi/OneDrive/Desktop/GD32VW553/V1_MQTT_OK/GD32VW55X_Wifi_BLE_SDK/GD32VW55x_RELEASE_V1.0.2/MSDK/cloud/alicloud/src/protocol/alcs\alcs_coap.c ****     if (256 < strlen(uri)) {
 381:C:/Users/stapi/OneDrive/Desktop/GD32VW553/V1_MQTT_OK/GD32VW55X_Wifi_BLE_SDK/GD32VW55x_RELEASE_V1.0.2/MSDK/cloud/alicloud/src/protocol/alcs\alcs_coap.c ****         COAP_ERR("The uri length is too long,len = %d", (int)strlen(uri));
 382:C:/Users/stapi/OneDrive/Desktop/GD32VW553/V1_MQTT_OK/GD32VW55X_Wifi_BLE_SDK/GD32VW55x_RELEASE_V1.0.2/MSDK/cloud/alicloud/src/protocol/alcs\alcs_coap.c ****         return COAP_ERROR_INVALID_LENGTH;
 383:C:/Users/stapi/OneDrive/Desktop/GD32VW553/V1_MQTT_OK/GD32VW55X_Wifi_BLE_SDK/GD32VW55x_RELEASE_V1.0.2/MSDK/cloud/alicloud/src/protocol/alcs\alcs_coap.c ****     }
 384:C:/Users/stapi/OneDrive/Desktop/GD32VW553/V1_MQTT_OK/GD32VW55X_Wifi_BLE_SDK/GD32VW55x_RELEASE_V1.0.2/MSDK/cloud/alicloud/src/protocol/alcs\alcs_coap.c ****     COAP_DEBUG("The uri is %s", uri);
 385:C:/Users/stapi/OneDrive/Desktop/GD32VW553/V1_MQTT_OK/GD32VW55X_Wifi_BLE_SDK/GD32VW55x_RELEASE_V1.0.2/MSDK/cloud/alicloud/src/protocol/alcs\alcs_coap.c ****     ptr = pstr = uri;
 386:C:/Users/stapi/OneDrive/Desktop/GD32VW553/V1_MQTT_OK/GD32VW55X_Wifi_BLE_SDK/GD32VW55x_RELEASE_V1.0.2/MSDK/cloud/alicloud/src/protocol/alcs\alcs_coap.c ****     while ('\0' != *ptr) {
 387:C:/Users/stapi/OneDrive/Desktop/GD32VW553/V1_MQTT_OK/GD32VW55X_Wifi_BLE_SDK/GD32VW55x_RELEASE_V1.0.2/MSDK/cloud/alicloud/src/protocol/alcs\alcs_coap.c ****         if ('/' == *ptr) {
 388:C:/Users/stapi/OneDrive/Desktop/GD32VW553/V1_MQTT_OK/GD32VW55X_Wifi_BLE_SDK/GD32VW55x_RELEASE_V1.0.2/MSDK/cloud/alicloud/src/protocol/alcs\alcs_coap.c ****             if (ptr != pstr) {
 389:C:/Users/stapi/OneDrive/Desktop/GD32VW553/V1_MQTT_OK/GD32VW55X_Wifi_BLE_SDK/GD32VW55x_RELEASE_V1.0.2/MSDK/cloud/alicloud/src/protocol/alcs\alcs_coap.c ****                 memset(path, 0x00, sizeof(path));
 390:C:/Users/stapi/OneDrive/Desktop/GD32VW553/V1_MQTT_OK/GD32VW55X_Wifi_BLE_SDK/GD32VW55x_RELEASE_V1.0.2/MSDK/cloud/alicloud/src/protocol/alcs\alcs_coap.c ****                 strncpy(path, pstr, ptr - pstr);
 391:C:/Users/stapi/OneDrive/Desktop/GD32VW553/V1_MQTT_OK/GD32VW55X_Wifi_BLE_SDK/GD32VW55x_RELEASE_V1.0.2/MSDK/cloud/alicloud/src/protocol/alcs\alcs_coap.c ****                 COAP_DEBUG("path: %s,len=%d", path, (int)(ptr - pstr));
 392:C:/Users/stapi/OneDrive/Desktop/GD32VW553/V1_MQTT_OK/GD32VW55X_Wifi_BLE_SDK/GD32VW55x_RELEASE_V1.0.2/MSDK/cloud/alicloud/src/protocol/alcs\alcs_coap.c ****                 CoAPStrOption_add(message, COAP_OPTION_URI_PATH,
 393:C:/Users/stapi/OneDrive/Desktop/GD32VW553/V1_MQTT_OK/GD32VW55X_Wifi_BLE_SDK/GD32VW55x_RELEASE_V1.0.2/MSDK/cloud/alicloud/src/protocol/alcs\alcs_coap.c ****                                   (unsigned char *)path, (int)strlen(path));
 394:C:/Users/stapi/OneDrive/Desktop/GD32VW553/V1_MQTT_OK/GD32VW55X_Wifi_BLE_SDK/GD32VW55x_RELEASE_V1.0.2/MSDK/cloud/alicloud/src/protocol/alcs\alcs_coap.c ****             }
 395:C:/Users/stapi/OneDrive/Desktop/GD32VW553/V1_MQTT_OK/GD32VW55X_Wifi_BLE_SDK/GD32VW55x_RELEASE_V1.0.2/MSDK/cloud/alicloud/src/protocol/alcs\alcs_coap.c ****             pstr = ptr + 1;
 396:C:/Users/stapi/OneDrive/Desktop/GD32VW553/V1_MQTT_OK/GD32VW55X_Wifi_BLE_SDK/GD32VW55x_RELEASE_V1.0.2/MSDK/cloud/alicloud/src/protocol/alcs\alcs_coap.c **** 
 397:C:/Users/stapi/OneDrive/Desktop/GD32VW553/V1_MQTT_OK/GD32VW55X_Wifi_BLE_SDK/GD32VW55x_RELEASE_V1.0.2/MSDK/cloud/alicloud/src/protocol/alcs\alcs_coap.c ****         }
 398:C:/Users/stapi/OneDrive/Desktop/GD32VW553/V1_MQTT_OK/GD32VW55X_Wifi_BLE_SDK/GD32VW55x_RELEASE_V1.0.2/MSDK/cloud/alicloud/src/protocol/alcs\alcs_coap.c ****         if ('\0' == *(ptr + 1) && '\0' != *pstr) {
 399:C:/Users/stapi/OneDrive/Desktop/GD32VW553/V1_MQTT_OK/GD32VW55X_Wifi_BLE_SDK/GD32VW55x_RELEASE_V1.0.2/MSDK/cloud/alicloud/src/protocol/alcs\alcs_coap.c ****             memset(path, 0x00, sizeof(path));
 400:C:/Users/stapi/OneDrive/Desktop/GD32VW553/V1_MQTT_OK/GD32VW55X_Wifi_BLE_SDK/GD32VW55x_RELEASE_V1.0.2/MSDK/cloud/alicloud/src/protocol/alcs\alcs_coap.c ****             strncpy(path, pstr, sizeof(path) - 1);
 401:C:/Users/stapi/OneDrive/Desktop/GD32VW553/V1_MQTT_OK/GD32VW55X_Wifi_BLE_SDK/GD32VW55x_RELEASE_V1.0.2/MSDK/cloud/alicloud/src/protocol/alcs\alcs_coap.c ****             COAP_DEBUG("path: %s,len=%d", path, (int)strlen(path));
 402:C:/Users/stapi/OneDrive/Desktop/GD32VW553/V1_MQTT_OK/GD32VW55X_Wifi_BLE_SDK/GD32VW55x_RELEASE_V1.0.2/MSDK/cloud/alicloud/src/protocol/alcs\alcs_coap.c ****             CoAPStrOption_add(message, COAP_OPTION_URI_PATH,
 403:C:/Users/stapi/OneDrive/Desktop/GD32VW553/V1_MQTT_OK/GD32VW55X_Wifi_BLE_SDK/GD32VW55x_RELEASE_V1.0.2/MSDK/cloud/alicloud/src/protocol/alcs\alcs_coap.c ****                               (unsigned char *)path, (int)strlen(path));
 404:C:/Users/stapi/OneDrive/Desktop/GD32VW553/V1_MQTT_OK/GD32VW55X_Wifi_BLE_SDK/GD32VW55x_RELEASE_V1.0.2/MSDK/cloud/alicloud/src/protocol/alcs\alcs_coap.c ****         }
 405:C:/Users/stapi/OneDrive/Desktop/GD32VW553/V1_MQTT_OK/GD32VW55X_Wifi_BLE_SDK/GD32VW55x_RELEASE_V1.0.2/MSDK/cloud/alicloud/src/protocol/alcs\alcs_coap.c ****         ptr ++;
 406:C:/Users/stapi/OneDrive/Desktop/GD32VW553/V1_MQTT_OK/GD32VW55X_Wifi_BLE_SDK/GD32VW55x_RELEASE_V1.0.2/MSDK/cloud/alicloud/src/protocol/alcs\alcs_coap.c ****     }
 407:C:/Users/stapi/OneDrive/Desktop/GD32VW553/V1_MQTT_OK/GD32VW55X_Wifi_BLE_SDK/GD32VW55x_RELEASE_V1.0.2/MSDK/cloud/alicloud/src/protocol/alcs\alcs_coap.c ****     return COAP_SUCCESS;
 408:C:/Users/stapi/OneDrive/Desktop/GD32VW553/V1_MQTT_OK/GD32VW55X_Wifi_BLE_SDK/GD32VW55x_RELEASE_V1.0.2/MSDK/cloud/alicloud/src/protocol/alcs\alcs_coap.c **** }
 409:C:/Users/stapi/OneDrive/Desktop/GD32VW553/V1_MQTT_OK/GD32VW55X_Wifi_BLE_SDK/GD32VW55x_RELEASE_V1.0.2/MSDK/cloud/alicloud/src/protocol/alcs\alcs_coap.c **** 
 410:C:/Users/stapi/OneDrive/Desktop/GD32VW553/V1_MQTT_OK/GD32VW55X_Wifi_BLE_SDK/GD32VW55x_RELEASE_V1.0.2/MSDK/cloud/alicloud/src/protocol/alcs\alcs_coap.c **** int alcs_msg_setAddr (CoAPMessage *message, const char* path, const char* query)
 411:C:/Users/stapi/OneDrive/Desktop/GD32VW553/V1_MQTT_OK/GD32VW55X_Wifi_BLE_SDK/GD32VW55x_RELEASE_V1.0.2/MSDK/cloud/alicloud/src/protocol/alcs\alcs_coap.c **** {
 1396              		.loc 1 411 1
 1397              		.cfi_startproc
 1398              	.LVL134:
 1399 0000 17030000 		call	t0,__riscv_save_9
 1399      E7020300 
 1400              		.cfi_offset 24, -40
 1401              		.cfi_offset 23, -36
 1402              		.cfi_offset 22, -32
 1403              		.cfi_offset 21, -28
 1404              		.cfi_offset 20, -24
 1405              		.cfi_offset 19, -20
 1406              		.cfi_offset 18, -16
 1407              		.cfi_offset 9, -12
 1408              		.cfi_offset 8, -8
 1409              		.cfi_offset 1, -4
 1410              		.cfi_def_cfa_offset 48
 412:C:/Users/stapi/OneDrive/Desktop/GD32VW553/V1_MQTT_OK/GD32VW55X_Wifi_BLE_SDK/GD32VW55x_RELEASE_V1.0.2/MSDK/cloud/alicloud/src/protocol/alcs\alcs_coap.c ****     if (NULL == path || NULL == message) {
 1411              		.loc 1 412 5
 411:C:/Users/stapi/OneDrive/Desktop/GD32VW553/V1_MQTT_OK/GD32VW55X_Wifi_BLE_SDK/GD32VW55x_RELEASE_V1.0.2/MSDK/cloud/alicloud/src/protocol/alcs\alcs_coap.c ****     if (NULL == path || NULL == message) {
 1412              		.loc 1 411 1 is_stmt 0
 1413 0008 7571     		addi	sp,sp,-144
 1414              		.cfi_def_cfa_offset 192
 411:C:/Users/stapi/OneDrive/Desktop/GD32VW553/V1_MQTT_OK/GD32VW55X_Wifi_BLE_SDK/GD32VW55x_RELEASE_V1.0.2/MSDK/cloud/alicloud/src/protocol/alcs\alcs_coap.c ****     if (NULL == path || NULL == message) {
 1415              		.loc 1 411 1
 1416 000a AA84     		mv	s1,a0
 1417 000c 2E84     		mv	s0,a1
 1418              		.loc 1 412 8
 1419 000e 91C1     		beq	a1,zero,.L91
 1420              		.loc 1 412 22 discriminator 1
 1421 0010 39E1     		bne	a0,zero,.L92
 1422              	.L91:
 413:C:/Users/stapi/OneDrive/Desktop/GD32VW553/V1_MQTT_OK/GD32VW55X_Wifi_BLE_SDK/GD32VW55x_RELEASE_V1.0.2/MSDK/cloud/alicloud/src/protocol/alcs\alcs_coap.c ****         COAP_ERR("Invalid paramter p_path %p, p_message %p", path, message);
 1423              		.loc 1 413 9 is_stmt 1
 1424              		.loc 1 413 9
 1425 0012 37050000 		lui	a0,%hi(.LC3)
 1426              	.LVL135:
 1427 0016 13050500 		addi	a0,a0,%lo(.LC3)
 1428 001a 97000000 		call	HAL_Printf
 1428      E7800000 
 1429              	.LVL136:
 1430              		.loc 1 413 9
 1431 0022 37050000 		lui	a0,%hi(.LC11)
 1432 0026 A285     		mv	a1,s0
 1433 0028 2686     		mv	a2,s1
 1434 002a 13050500 		addi	a0,a0,%lo(.LC11)
 1435 002e 97000000 		call	HAL_Printf
 1435      E7800000 
 1436              	.LVL137:
 1437              		.loc 1 413 9
 1438 0036 37050000 		lui	a0,%hi(.LC2)
 1439 003a 13050500 		addi	a0,a0,%lo(.LC2)
 1440 003e 97000000 		call	HAL_Printf
 1440      E7800000 
 1441              	.LVL138:
 1442              		.loc 1 413 9
 414:C:/Users/stapi/OneDrive/Desktop/GD32VW553/V1_MQTT_OK/GD32VW55X_Wifi_BLE_SDK/GD32VW55x_RELEASE_V1.0.2/MSDK/cloud/alicloud/src/protocol/alcs\alcs_coap.c ****         return COAP_ERROR_INVALID_PARAM;
 1443              		.loc 1 414 9
 1444              		.loc 1 414 16 is_stmt 0
 1445 0046 13041010 		li	s0,257
 1446              	.LVL139:
 1447              	.L90:
 415:C:/Users/stapi/OneDrive/Desktop/GD32VW553/V1_MQTT_OK/GD32VW55X_Wifi_BLE_SDK/GD32VW55x_RELEASE_V1.0.2/MSDK/cloud/alicloud/src/protocol/alcs\alcs_coap.c ****     }
 416:C:/Users/stapi/OneDrive/Desktop/GD32VW553/V1_MQTT_OK/GD32VW55X_Wifi_BLE_SDK/GD32VW55x_RELEASE_V1.0.2/MSDK/cloud/alicloud/src/protocol/alcs\alcs_coap.c **** 
 417:C:/Users/stapi/OneDrive/Desktop/GD32VW553/V1_MQTT_OK/GD32VW55X_Wifi_BLE_SDK/GD32VW55x_RELEASE_V1.0.2/MSDK/cloud/alicloud/src/protocol/alcs\alcs_coap.c ****     if (255 < strlen(path)) {
 418:C:/Users/stapi/OneDrive/Desktop/GD32VW553/V1_MQTT_OK/GD32VW55X_Wifi_BLE_SDK/GD32VW55x_RELEASE_V1.0.2/MSDK/cloud/alicloud/src/protocol/alcs\alcs_coap.c ****         COAP_ERR("The uri length is too long,len = %d", (int)strlen(path));
 419:C:/Users/stapi/OneDrive/Desktop/GD32VW553/V1_MQTT_OK/GD32VW55X_Wifi_BLE_SDK/GD32VW55x_RELEASE_V1.0.2/MSDK/cloud/alicloud/src/protocol/alcs\alcs_coap.c ****         return COAP_ERROR_INVALID_LENGTH;
 420:C:/Users/stapi/OneDrive/Desktop/GD32VW553/V1_MQTT_OK/GD32VW55X_Wifi_BLE_SDK/GD32VW55x_RELEASE_V1.0.2/MSDK/cloud/alicloud/src/protocol/alcs\alcs_coap.c ****     }
 421:C:/Users/stapi/OneDrive/Desktop/GD32VW553/V1_MQTT_OK/GD32VW55X_Wifi_BLE_SDK/GD32VW55x_RELEASE_V1.0.2/MSDK/cloud/alicloud/src/protocol/alcs\alcs_coap.c **** 
 422:C:/Users/stapi/OneDrive/Desktop/GD32VW553/V1_MQTT_OK/GD32VW55X_Wifi_BLE_SDK/GD32VW55x_RELEASE_V1.0.2/MSDK/cloud/alicloud/src/protocol/alcs\alcs_coap.c ****     int rt = path_2_option (path, message);
 423:C:/Users/stapi/OneDrive/Desktop/GD32VW553/V1_MQTT_OK/GD32VW55X_Wifi_BLE_SDK/GD32VW55x_RELEASE_V1.0.2/MSDK/cloud/alicloud/src/protocol/alcs\alcs_coap.c ****     if (query) {
 424:C:/Users/stapi/OneDrive/Desktop/GD32VW553/V1_MQTT_OK/GD32VW55X_Wifi_BLE_SDK/GD32VW55x_RELEASE_V1.0.2/MSDK/cloud/alicloud/src/protocol/alcs\alcs_coap.c ****         CoAPStrOption_add (message, COAP_OPTION_URI_QUERY, (unsigned char*)query, strlen(query));
 425:C:/Users/stapi/OneDrive/Desktop/GD32VW553/V1_MQTT_OK/GD32VW55X_Wifi_BLE_SDK/GD32VW55x_RELEASE_V1.0.2/MSDK/cloud/alicloud/src/protocol/alcs\alcs_coap.c ****     }
 426:C:/Users/stapi/OneDrive/Desktop/GD32VW553/V1_MQTT_OK/GD32VW55X_Wifi_BLE_SDK/GD32VW55x_RELEASE_V1.0.2/MSDK/cloud/alicloud/src/protocol/alcs\alcs_coap.c **** 
 427:C:/Users/stapi/OneDrive/Desktop/GD32VW553/V1_MQTT_OK/GD32VW55X_Wifi_BLE_SDK/GD32VW55x_RELEASE_V1.0.2/MSDK/cloud/alicloud/src/protocol/alcs\alcs_coap.c ****     return rt;
 428:C:/Users/stapi/OneDrive/Desktop/GD32VW553/V1_MQTT_OK/GD32VW55X_Wifi_BLE_SDK/GD32VW55x_RELEASE_V1.0.2/MSDK/cloud/alicloud/src/protocol/alcs\alcs_coap.c **** }
 1448              		.loc 1 428 1
 1449 004a 2285     		mv	a0,s0
 1450 004c 4961     		addi	sp,sp,144
 1451              		.cfi_remember_state
 1452              		.cfi_def_cfa_offset 0
 1453 004e 17030000 		tail	__riscv_restore_9
 1453      67000300 
 1454              		.cfi_restore 24
 1455              		.cfi_restore 23
 1456              		.cfi_restore 22
 1457              		.cfi_restore 21
 1458              		.cfi_restore 20
 1459              		.cfi_restore 19
 1460              		.cfi_restore 18
 1461              		.cfi_restore 9
 1462              		.cfi_restore 8
 1463              		.cfi_restore 1
 1464              		.cfi_def_cfa_offset -48
 1465              	.LVL140:
 1466              	.L92:
 1467              		.cfi_restore_state
 417:C:/Users/stapi/OneDrive/Desktop/GD32VW553/V1_MQTT_OK/GD32VW55X_Wifi_BLE_SDK/GD32VW55x_RELEASE_V1.0.2/MSDK/cloud/alicloud/src/protocol/alcs\alcs_coap.c ****         COAP_ERR("The uri length is too long,len = %d", (int)strlen(path));
 1468              		.loc 1 417 15
 1469 0056 2E85     		mv	a0,a1
 1470 0058 B289     		mv	s3,a2
 417:C:/Users/stapi/OneDrive/Desktop/GD32VW553/V1_MQTT_OK/GD32VW55X_Wifi_BLE_SDK/GD32VW55x_RELEASE_V1.0.2/MSDK/cloud/alicloud/src/protocol/alcs\alcs_coap.c ****         COAP_ERR("The uri length is too long,len = %d", (int)strlen(path));
 1471              		.loc 1 417 5 is_stmt 1
 417:C:/Users/stapi/OneDrive/Desktop/GD32VW553/V1_MQTT_OK/GD32VW55X_Wifi_BLE_SDK/GD32VW55x_RELEASE_V1.0.2/MSDK/cloud/alicloud/src/protocol/alcs\alcs_coap.c ****         COAP_ERR("The uri length is too long,len = %d", (int)strlen(path));
 1472              		.loc 1 417 15 is_stmt 0
 1473 005a 97000000 		call	strlen
 1473      E7800000 
 1474              	.LVL141:
 417:C:/Users/stapi/OneDrive/Desktop/GD32VW553/V1_MQTT_OK/GD32VW55X_Wifi_BLE_SDK/GD32VW55x_RELEASE_V1.0.2/MSDK/cloud/alicloud/src/protocol/alcs\alcs_coap.c ****         COAP_ERR("The uri length is too long,len = %d", (int)strlen(path));
 1475              		.loc 1 417 8
 1476 0062 9307F00F 		li	a5,255
 1477 0066 63F3A704 		bleu	a0,a5,.L94
 418:C:/Users/stapi/OneDrive/Desktop/GD32VW553/V1_MQTT_OK/GD32VW55X_Wifi_BLE_SDK/GD32VW55x_RELEASE_V1.0.2/MSDK/cloud/alicloud/src/protocol/alcs\alcs_coap.c ****         return COAP_ERROR_INVALID_LENGTH;
 1478              		.loc 1 418 9 is_stmt 1
 418:C:/Users/stapi/OneDrive/Desktop/GD32VW553/V1_MQTT_OK/GD32VW55X_Wifi_BLE_SDK/GD32VW55x_RELEASE_V1.0.2/MSDK/cloud/alicloud/src/protocol/alcs\alcs_coap.c ****         return COAP_ERROR_INVALID_LENGTH;
 1479              		.loc 1 418 9
 1480 006a 37050000 		lui	a0,%hi(.LC3)
 1481 006e 13050500 		addi	a0,a0,%lo(.LC3)
 1482 0072 97000000 		call	HAL_Printf
 1482      E7800000 
 1483              	.LVL142:
 418:C:/Users/stapi/OneDrive/Desktop/GD32VW553/V1_MQTT_OK/GD32VW55X_Wifi_BLE_SDK/GD32VW55x_RELEASE_V1.0.2/MSDK/cloud/alicloud/src/protocol/alcs\alcs_coap.c ****         return COAP_ERROR_INVALID_LENGTH;
 1484              		.loc 1 418 9
 1485 007a 2285     		mv	a0,s0
 1486 007c 97000000 		call	strlen
 1486      E7800000 
 1487              	.LVL143:
 1488 0084 AA85     		mv	a1,a0
 1489 0086 37050000 		lui	a0,%hi(.LC12)
 1490 008a 13050500 		addi	a0,a0,%lo(.LC12)
 1491 008e 97000000 		call	HAL_Printf
 1491      E7800000 
 1492              	.LVL144:
 418:C:/Users/stapi/OneDrive/Desktop/GD32VW553/V1_MQTT_OK/GD32VW55X_Wifi_BLE_SDK/GD32VW55x_RELEASE_V1.0.2/MSDK/cloud/alicloud/src/protocol/alcs\alcs_coap.c ****         return COAP_ERROR_INVALID_LENGTH;
 1493              		.loc 1 418 9
 1494 0096 37050000 		lui	a0,%hi(.LC2)
 1495 009a 13050500 		addi	a0,a0,%lo(.LC2)
 1496 009e 97000000 		call	HAL_Printf
 1496      E7800000 
 1497              	.LVL145:
 418:C:/Users/stapi/OneDrive/Desktop/GD32VW553/V1_MQTT_OK/GD32VW55X_Wifi_BLE_SDK/GD32VW55x_RELEASE_V1.0.2/MSDK/cloud/alicloud/src/protocol/alcs\alcs_coap.c ****         return COAP_ERROR_INVALID_LENGTH;
 1498              		.loc 1 418 9
 419:C:/Users/stapi/OneDrive/Desktop/GD32VW553/V1_MQTT_OK/GD32VW55X_Wifi_BLE_SDK/GD32VW55x_RELEASE_V1.0.2/MSDK/cloud/alicloud/src/protocol/alcs\alcs_coap.c ****     }
 1499              		.loc 1 419 9
 419:C:/Users/stapi/OneDrive/Desktop/GD32VW553/V1_MQTT_OK/GD32VW55X_Wifi_BLE_SDK/GD32VW55x_RELEASE_V1.0.2/MSDK/cloud/alicloud/src/protocol/alcs\alcs_coap.c ****     }
 1500              		.loc 1 419 16 is_stmt 0
 1501 00a6 13044010 		li	s0,260
 1502              	.LVL146:
 1503 00aa 45B7     		j	.L90
 1504              	.LVL147:
 1505              	.L94:
 422:C:/Users/stapi/OneDrive/Desktop/GD32VW553/V1_MQTT_OK/GD32VW55X_Wifi_BLE_SDK/GD32VW55x_RELEASE_V1.0.2/MSDK/cloud/alicloud/src/protocol/alcs\alcs_coap.c ****     if (query) {
 1506              		.loc 1 422 5 is_stmt 1
 1507              	.LBB32:
 1508              	.LBB33:
 376:C:/Users/stapi/OneDrive/Desktop/GD32VW553/V1_MQTT_OK/GD32VW55X_Wifi_BLE_SDK/GD32VW55x_RELEASE_V1.0.2/MSDK/cloud/alicloud/src/protocol/alcs\alcs_coap.c ****     const char *pstr    = NULL;
 1509              		.loc 1 376 5
 377:C:/Users/stapi/OneDrive/Desktop/GD32VW553/V1_MQTT_OK/GD32VW55X_Wifi_BLE_SDK/GD32VW55x_RELEASE_V1.0.2/MSDK/cloud/alicloud/src/protocol/alcs\alcs_coap.c ****     char  path[COAP_MSG_MAX_PATH_LEN]  = {0};
 1510              		.loc 1 377 5
 378:C:/Users/stapi/OneDrive/Desktop/GD32VW553/V1_MQTT_OK/GD32VW55X_Wifi_BLE_SDK/GD32VW55x_RELEASE_V1.0.2/MSDK/cloud/alicloud/src/protocol/alcs\alcs_coap.c **** 
 1511              		.loc 1 378 5
 378:C:/Users/stapi/OneDrive/Desktop/GD32VW553/V1_MQTT_OK/GD32VW55X_Wifi_BLE_SDK/GD32VW55x_RELEASE_V1.0.2/MSDK/cloud/alicloud/src/protocol/alcs\alcs_coap.c **** 
 1512              		.loc 1 378 11 is_stmt 0
 1513 00ac 1306C007 		li	a2,124
 1514 00b0 8145     		li	a1,0
 1515 00b2 4808     		addi	a0,sp,20
 1516 00b4 02C8     		sw	zero,16(sp)
 1517 00b6 97000000 		call	memset
 1517      E7800000 
 1518              	.LVL148:
 380:C:/Users/stapi/OneDrive/Desktop/GD32VW553/V1_MQTT_OK/GD32VW55X_Wifi_BLE_SDK/GD32VW55x_RELEASE_V1.0.2/MSDK/cloud/alicloud/src/protocol/alcs\alcs_coap.c ****         COAP_ERR("The uri length is too long,len = %d", (int)strlen(uri));
 1519              		.loc 1 380 5 is_stmt 1
 380:C:/Users/stapi/OneDrive/Desktop/GD32VW553/V1_MQTT_OK/GD32VW55X_Wifi_BLE_SDK/GD32VW55x_RELEASE_V1.0.2/MSDK/cloud/alicloud/src/protocol/alcs\alcs_coap.c ****         COAP_ERR("The uri length is too long,len = %d", (int)strlen(uri));
 1520              		.loc 1 380 15 is_stmt 0
 1521 00be 2285     		mv	a0,s0
 1522 00c0 97000000 		call	strlen
 1522      E7800000 
 1523              	.LVL149:
 380:C:/Users/stapi/OneDrive/Desktop/GD32VW553/V1_MQTT_OK/GD32VW55X_Wifi_BLE_SDK/GD32VW55x_RELEASE_V1.0.2/MSDK/cloud/alicloud/src/protocol/alcs\alcs_coap.c ****         COAP_ERR("The uri length is too long,len = %d", (int)strlen(uri));
 1524              		.loc 1 380 8
 1525 00c8 93070010 		li	a5,256
 1526 00cc 63F3A706 		bleu	a0,a5,.L95
 381:C:/Users/stapi/OneDrive/Desktop/GD32VW553/V1_MQTT_OK/GD32VW55X_Wifi_BLE_SDK/GD32VW55x_RELEASE_V1.0.2/MSDK/cloud/alicloud/src/protocol/alcs\alcs_coap.c ****         return COAP_ERROR_INVALID_LENGTH;
 1527              		.loc 1 381 9 is_stmt 1
 381:C:/Users/stapi/OneDrive/Desktop/GD32VW553/V1_MQTT_OK/GD32VW55X_Wifi_BLE_SDK/GD32VW55x_RELEASE_V1.0.2/MSDK/cloud/alicloud/src/protocol/alcs\alcs_coap.c ****         return COAP_ERROR_INVALID_LENGTH;
 1528              		.loc 1 381 9
 1529 00d0 37050000 		lui	a0,%hi(.LC3)
 1530 00d4 13050500 		addi	a0,a0,%lo(.LC3)
 1531 00d8 97000000 		call	HAL_Printf
 1531      E7800000 
 1532              	.LVL150:
 381:C:/Users/stapi/OneDrive/Desktop/GD32VW553/V1_MQTT_OK/GD32VW55X_Wifi_BLE_SDK/GD32VW55x_RELEASE_V1.0.2/MSDK/cloud/alicloud/src/protocol/alcs\alcs_coap.c ****         return COAP_ERROR_INVALID_LENGTH;
 1533              		.loc 1 381 9
 1534 00e0 2285     		mv	a0,s0
 1535 00e2 97000000 		call	strlen
 1535      E7800000 
 1536              	.LVL151:
 1537 00ea AA85     		mv	a1,a0
 1538 00ec 37050000 		lui	a0,%hi(.LC12)
 1539 00f0 13050500 		addi	a0,a0,%lo(.LC12)
 1540 00f4 97000000 		call	HAL_Printf
 1540      E7800000 
 1541              	.LVL152:
 381:C:/Users/stapi/OneDrive/Desktop/GD32VW553/V1_MQTT_OK/GD32VW55X_Wifi_BLE_SDK/GD32VW55x_RELEASE_V1.0.2/MSDK/cloud/alicloud/src/protocol/alcs\alcs_coap.c ****         return COAP_ERROR_INVALID_LENGTH;
 1542              		.loc 1 381 9
 1543 00fc 37050000 		lui	a0,%hi(.LC2)
 1544 0100 13050500 		addi	a0,a0,%lo(.LC2)
 1545 0104 97000000 		call	HAL_Printf
 1545      E7800000 
 1546              	.LVL153:
 381:C:/Users/stapi/OneDrive/Desktop/GD32VW553/V1_MQTT_OK/GD32VW55X_Wifi_BLE_SDK/GD32VW55x_RELEASE_V1.0.2/MSDK/cloud/alicloud/src/protocol/alcs\alcs_coap.c ****         return COAP_ERROR_INVALID_LENGTH;
 1547              		.loc 1 381 9
 382:C:/Users/stapi/OneDrive/Desktop/GD32VW553/V1_MQTT_OK/GD32VW55X_Wifi_BLE_SDK/GD32VW55x_RELEASE_V1.0.2/MSDK/cloud/alicloud/src/protocol/alcs\alcs_coap.c ****     }
 1548              		.loc 1 382 9
 382:C:/Users/stapi/OneDrive/Desktop/GD32VW553/V1_MQTT_OK/GD32VW55X_Wifi_BLE_SDK/GD32VW55x_RELEASE_V1.0.2/MSDK/cloud/alicloud/src/protocol/alcs\alcs_coap.c ****     }
 1549              		.loc 1 382 16 is_stmt 0
 1550 010c 13044010 		li	s0,260
 1551              	.LVL154:
 1552              	.L96:
 1553              	.LBE33:
 1554              	.LBE32:
 423:C:/Users/stapi/OneDrive/Desktop/GD32VW553/V1_MQTT_OK/GD32VW55X_Wifi_BLE_SDK/GD32VW55x_RELEASE_V1.0.2/MSDK/cloud/alicloud/src/protocol/alcs\alcs_coap.c ****         CoAPStrOption_add (message, COAP_OPTION_URI_QUERY, (unsigned char*)query, strlen(query));
 1555              		.loc 1 423 5 is_stmt 1
 423:C:/Users/stapi/OneDrive/Desktop/GD32VW553/V1_MQTT_OK/GD32VW55X_Wifi_BLE_SDK/GD32VW55x_RELEASE_V1.0.2/MSDK/cloud/alicloud/src/protocol/alcs\alcs_coap.c ****         CoAPStrOption_add (message, COAP_OPTION_URI_QUERY, (unsigned char*)query, strlen(query));
 1556              		.loc 1 423 8 is_stmt 0
 1557 0110 E38D09F2 		beq	s3,zero,.L90
 424:C:/Users/stapi/OneDrive/Desktop/GD32VW553/V1_MQTT_OK/GD32VW55X_Wifi_BLE_SDK/GD32VW55x_RELEASE_V1.0.2/MSDK/cloud/alicloud/src/protocol/alcs\alcs_coap.c ****     }
 1558              		.loc 1 424 9 is_stmt 1
 424:C:/Users/stapi/OneDrive/Desktop/GD32VW553/V1_MQTT_OK/GD32VW55X_Wifi_BLE_SDK/GD32VW55x_RELEASE_V1.0.2/MSDK/cloud/alicloud/src/protocol/alcs\alcs_coap.c ****     }
 1559              		.loc 1 424 83 is_stmt 0
 1560 0114 4E85     		mv	a0,s3
 1561 0116 97000000 		call	strlen
 1561      E7800000 
 1562              	.LVL155:
 424:C:/Users/stapi/OneDrive/Desktop/GD32VW553/V1_MQTT_OK/GD32VW55X_Wifi_BLE_SDK/GD32VW55x_RELEASE_V1.0.2/MSDK/cloud/alicloud/src/protocol/alcs\alcs_coap.c ****     }
 1563              		.loc 1 424 9
 1564 011e B3460508 		zext.h	a3,a0
 1565 0122 4E86     		mv	a2,s3
 1566 0124 BD45     		li	a1,15
 1567 0126 2685     		mv	a0,s1
 1568 0128 97000000 		call	CoAPStrOption_add
 1568      E7800000 
 1569              	.LVL156:
 1570 0130 29BF     		j	.L90
 1571              	.LVL157:
 1572              	.L95:
 1573              	.LBB35:
 1574              	.LBB34:
 384:C:/Users/stapi/OneDrive/Desktop/GD32VW553/V1_MQTT_OK/GD32VW55X_Wifi_BLE_SDK/GD32VW55x_RELEASE_V1.0.2/MSDK/cloud/alicloud/src/protocol/alcs\alcs_coap.c ****     ptr = pstr = uri;
 1575              		.loc 1 384 5 is_stmt 1
 1576 0132 370A0000 		lui	s4,%hi(.LANCHOR4)
 1577 0136 37070000 		lui	a4,%hi(.LC13)
 1578 013a B70A0000 		lui	s5,%hi(.LC8)
 1579 013e A287     		mv	a5,s0
 1580 0140 13070700 		addi	a4,a4,%lo(.LC13)
 1581 0144 9546     		li	a3,5
 1582 0146 13060018 		li	a2,384
 1583 014a 93050A00 		addi	a1,s4,%lo(.LANCHOR4)
 1584 014e 13850A00 		addi	a0,s5,%lo(.LC8)
 1585 0152 97000000 		call	LITE_syslog
 1585      E7800000 
 1586              	.LVL158:
 385:C:/Users/stapi/OneDrive/Desktop/GD32VW553/V1_MQTT_OK/GD32VW55X_Wifi_BLE_SDK/GD32VW55x_RELEASE_V1.0.2/MSDK/cloud/alicloud/src/protocol/alcs\alcs_coap.c ****     while ('\0' != *ptr) {
 1587              		.loc 1 385 5
 386:C:/Users/stapi/OneDrive/Desktop/GD32VW553/V1_MQTT_OK/GD32VW55X_Wifi_BLE_SDK/GD32VW55x_RELEASE_V1.0.2/MSDK/cloud/alicloud/src/protocol/alcs\alcs_coap.c ****         if ('/' == *ptr) {
 1588              		.loc 1 386 5
 386:C:/Users/stapi/OneDrive/Desktop/GD32VW553/V1_MQTT_OK/GD32VW55X_Wifi_BLE_SDK/GD32VW55x_RELEASE_V1.0.2/MSDK/cloud/alicloud/src/protocol/alcs\alcs_coap.c ****         if ('/' == *ptr) {
 1589              		.loc 1 386 11 is_stmt 0
 1590 015a 2289     		mv	s2,s0
 387:C:/Users/stapi/OneDrive/Desktop/GD32VW553/V1_MQTT_OK/GD32VW55X_Wifi_BLE_SDK/GD32VW55x_RELEASE_V1.0.2/MSDK/cloud/alicloud/src/protocol/alcs\alcs_coap.c ****             if (ptr != pstr) {
 1591              		.loc 1 387 12
 1592 015c 130CF002 		li	s8,47
 391:C:/Users/stapi/OneDrive/Desktop/GD32VW553/V1_MQTT_OK/GD32VW55X_Wifi_BLE_SDK/GD32VW55x_RELEASE_V1.0.2/MSDK/cloud/alicloud/src/protocol/alcs\alcs_coap.c ****                 CoAPStrOption_add(message, COAP_OPTION_URI_PATH,
 1593              		.loc 1 391 17
 1594 0160 B70B0000 		lui	s7,%hi(.LC14)
 1595              	.LVL159:
 1596              	.L97:
 386:C:/Users/stapi/OneDrive/Desktop/GD32VW553/V1_MQTT_OK/GD32VW55X_Wifi_BLE_SDK/GD32VW55x_RELEASE_V1.0.2/MSDK/cloud/alicloud/src/protocol/alcs\alcs_coap.c ****         if ('/' == *ptr) {
 1597              		.loc 1 386 11 is_stmt 1
 386:C:/Users/stapi/OneDrive/Desktop/GD32VW553/V1_MQTT_OK/GD32VW55X_Wifi_BLE_SDK/GD32VW55x_RELEASE_V1.0.2/MSDK/cloud/alicloud/src/protocol/alcs\alcs_coap.c ****         if ('/' == *ptr) {
 1598              		.loc 1 386 20 is_stmt 0
 1599 0164 83070900 		lb	a5,0(s2)
 386:C:/Users/stapi/OneDrive/Desktop/GD32VW553/V1_MQTT_OK/GD32VW55X_Wifi_BLE_SDK/GD32VW55x_RELEASE_V1.0.2/MSDK/cloud/alicloud/src/protocol/alcs\alcs_coap.c ****         if ('/' == *ptr) {
 1600              		.loc 1 386 11
 1601 0168 99E3     		bne	a5,zero,.L101
 407:C:/Users/stapi/OneDrive/Desktop/GD32VW553/V1_MQTT_OK/GD32VW55X_Wifi_BLE_SDK/GD32VW55x_RELEASE_V1.0.2/MSDK/cloud/alicloud/src/protocol/alcs\alcs_coap.c **** }
 1602              		.loc 1 407 12
 1603 016a 0144     		li	s0,0
 1604              	.LVL160:
 1605 016c 55B7     		j	.L96
 1606              	.LVL161:
 1607              	.L101:
 387:C:/Users/stapi/OneDrive/Desktop/GD32VW553/V1_MQTT_OK/GD32VW55X_Wifi_BLE_SDK/GD32VW55x_RELEASE_V1.0.2/MSDK/cloud/alicloud/src/protocol/alcs\alcs_coap.c ****             if (ptr != pstr) {
 1608              		.loc 1 387 9 is_stmt 1
 1609 016e 130B1900 		addi	s6,s2,1
 387:C:/Users/stapi/OneDrive/Desktop/GD32VW553/V1_MQTT_OK/GD32VW55X_Wifi_BLE_SDK/GD32VW55x_RELEASE_V1.0.2/MSDK/cloud/alicloud/src/protocol/alcs\alcs_coap.c ****             if (ptr != pstr) {
 1610              		.loc 1 387 12 is_stmt 0
 1611 0172 63948707 		bne	a5,s8,.L98
 388:C:/Users/stapi/OneDrive/Desktop/GD32VW553/V1_MQTT_OK/GD32VW55X_Wifi_BLE_SDK/GD32VW55x_RELEASE_V1.0.2/MSDK/cloud/alicloud/src/protocol/alcs\alcs_coap.c ****                 memset(path, 0x00, sizeof(path));
 1612              		.loc 1 388 13 is_stmt 1
 388:C:/Users/stapi/OneDrive/Desktop/GD32VW553/V1_MQTT_OK/GD32VW55X_Wifi_BLE_SDK/GD32VW55x_RELEASE_V1.0.2/MSDK/cloud/alicloud/src/protocol/alcs\alcs_coap.c ****                 memset(path, 0x00, sizeof(path));
 1613              		.loc 1 388 16 is_stmt 0
 1614 0176 63018906 		beq	s2,s0,.L99
 389:C:/Users/stapi/OneDrive/Desktop/GD32VW553/V1_MQTT_OK/GD32VW55X_Wifi_BLE_SDK/GD32VW55x_RELEASE_V1.0.2/MSDK/cloud/alicloud/src/protocol/alcs\alcs_coap.c ****                 strncpy(path, pstr, ptr - pstr);
 1615              		.loc 1 389 17 is_stmt 1
 1616 017a 13060008 		li	a2,128
 1617 017e 8145     		li	a1,0
 1618 0180 0808     		addi	a0,sp,16
 1619 0182 97000000 		call	memset
 1619      E7800000 
 1620              	.LVL162:
 390:C:/Users/stapi/OneDrive/Desktop/GD32VW553/V1_MQTT_OK/GD32VW55X_Wifi_BLE_SDK/GD32VW55x_RELEASE_V1.0.2/MSDK/cloud/alicloud/src/protocol/alcs\alcs_coap.c ****                 COAP_DEBUG("path: %s,len=%d", path, (int)(ptr - pstr));
 1621              		.loc 1 390 17
 390:C:/Users/stapi/OneDrive/Desktop/GD32VW553/V1_MQTT_OK/GD32VW55X_Wifi_BLE_SDK/GD32VW55x_RELEASE_V1.0.2/MSDK/cloud/alicloud/src/protocol/alcs\alcs_coap.c ****                 COAP_DEBUG("path: %s,len=%d", path, (int)(ptr - pstr));
 1622              		.loc 1 390 41 is_stmt 0
 1623 018a 33088940 		sub	a6,s2,s0
 390:C:/Users/stapi/OneDrive/Desktop/GD32VW553/V1_MQTT_OK/GD32VW55X_Wifi_BLE_SDK/GD32VW55x_RELEASE_V1.0.2/MSDK/cloud/alicloud/src/protocol/alcs\alcs_coap.c ****                 COAP_DEBUG("path: %s,len=%d", path, (int)(ptr - pstr));
 1624              		.loc 1 390 17
 1625 018e 4286     		mv	a2,a6
 1626 0190 A285     		mv	a1,s0
 1627 0192 0808     		addi	a0,sp,16
 1628 0194 42C6     		sw	a6,12(sp)
 1629 0196 97000000 		call	strncpy
 1629      E7800000 
 1630              	.LVL163:
 391:C:/Users/stapi/OneDrive/Desktop/GD32VW553/V1_MQTT_OK/GD32VW55X_Wifi_BLE_SDK/GD32VW55x_RELEASE_V1.0.2/MSDK/cloud/alicloud/src/protocol/alcs\alcs_coap.c ****                 CoAPStrOption_add(message, COAP_OPTION_URI_PATH,
 1631              		.loc 1 391 17 is_stmt 1
 1632 019e 3248     		lw	a6,12(sp)
 1633 01a0 9546     		li	a3,5
 1634 01a2 13067018 		li	a2,391
 1635 01a6 93050A00 		addi	a1,s4,%lo(.LANCHOR4)
 1636 01aa 1C08     		addi	a5,sp,16
 1637 01ac 13870B00 		addi	a4,s7,%lo(.LC14)
 1638 01b0 13850A00 		addi	a0,s5,%lo(.LC8)
 1639 01b4 97000000 		call	LITE_syslog
 1639      E7800000 
 1640              	.LVL164:
 392:C:/Users/stapi/OneDrive/Desktop/GD32VW553/V1_MQTT_OK/GD32VW55X_Wifi_BLE_SDK/GD32VW55x_RELEASE_V1.0.2/MSDK/cloud/alicloud/src/protocol/alcs\alcs_coap.c ****                                   (unsigned char *)path, (int)strlen(path));
 1641              		.loc 1 392 17
 393:C:/Users/stapi/OneDrive/Desktop/GD32VW553/V1_MQTT_OK/GD32VW55X_Wifi_BLE_SDK/GD32VW55x_RELEASE_V1.0.2/MSDK/cloud/alicloud/src/protocol/alcs\alcs_coap.c ****             }
 1642              		.loc 1 393 63 is_stmt 0
 1643 01bc 0808     		addi	a0,sp,16
 1644 01be 97000000 		call	strlen
 1644      E7800000 
 1645              	.LVL165:
 392:C:/Users/stapi/OneDrive/Desktop/GD32VW553/V1_MQTT_OK/GD32VW55X_Wifi_BLE_SDK/GD32VW55x_RELEASE_V1.0.2/MSDK/cloud/alicloud/src/protocol/alcs\alcs_coap.c ****                                   (unsigned char *)path, (int)strlen(path));
 1646              		.loc 1 392 17
 1647 01c6 B3460508 		zext.h	a3,a0
 1648 01ca 1008     		addi	a2,sp,16
 1649 01cc AD45     		li	a1,11
 1650 01ce 2685     		mv	a0,s1
 1651 01d0 97000000 		call	CoAPStrOption_add
 1651      E7800000 
 1652              	.LVL166:
 1653              	.L99:
 395:C:/Users/stapi/OneDrive/Desktop/GD32VW553/V1_MQTT_OK/GD32VW55X_Wifi_BLE_SDK/GD32VW55x_RELEASE_V1.0.2/MSDK/cloud/alicloud/src/protocol/alcs\alcs_coap.c **** 
 1654              		.loc 1 395 13 is_stmt 1
 1655 01d8 5A84     		mv	s0,s6
 1656              	.LVL167:
 1657              	.L98:
 398:C:/Users/stapi/OneDrive/Desktop/GD32VW553/V1_MQTT_OK/GD32VW55X_Wifi_BLE_SDK/GD32VW55x_RELEASE_V1.0.2/MSDK/cloud/alicloud/src/protocol/alcs\alcs_coap.c ****             memset(path, 0x00, sizeof(path));
 1658              		.loc 1 398 9
 398:C:/Users/stapi/OneDrive/Desktop/GD32VW553/V1_MQTT_OK/GD32VW55X_Wifi_BLE_SDK/GD32VW55x_RELEASE_V1.0.2/MSDK/cloud/alicloud/src/protocol/alcs\alcs_coap.c ****             memset(path, 0x00, sizeof(path));
 1659              		.loc 1 398 12 is_stmt 0
 1660 01da 83071900 		lb	a5,1(s2)
 1661 01de A5E3     		bne	a5,zero,.L100
 398:C:/Users/stapi/OneDrive/Desktop/GD32VW553/V1_MQTT_OK/GD32VW55X_Wifi_BLE_SDK/GD32VW55x_RELEASE_V1.0.2/MSDK/cloud/alicloud/src/protocol/alcs\alcs_coap.c ****             memset(path, 0x00, sizeof(path));
 1662              		.loc 1 398 32
 1663 01e0 83070400 		lb	a5,0(s0)
 1664 01e4 A9CF     		beq	a5,zero,.L100
 399:C:/Users/stapi/OneDrive/Desktop/GD32VW553/V1_MQTT_OK/GD32VW55X_Wifi_BLE_SDK/GD32VW55x_RELEASE_V1.0.2/MSDK/cloud/alicloud/src/protocol/alcs\alcs_coap.c ****             strncpy(path, pstr, sizeof(path) - 1);
 1665              		.loc 1 399 13 is_stmt 1
 400:C:/Users/stapi/OneDrive/Desktop/GD32VW553/V1_MQTT_OK/GD32VW55X_Wifi_BLE_SDK/GD32VW55x_RELEASE_V1.0.2/MSDK/cloud/alicloud/src/protocol/alcs\alcs_coap.c ****             COAP_DEBUG("path: %s,len=%d", path, (int)strlen(path));
 1666              		.loc 1 400 13 is_stmt 0
 1667 01e6 1306F007 		li	a2,127
 1668 01ea A285     		mv	a1,s0
 1669 01ec 0808     		addi	a0,sp,16
 1670 01ee A3070108 		sb	zero,143(sp)
 400:C:/Users/stapi/OneDrive/Desktop/GD32VW553/V1_MQTT_OK/GD32VW55X_Wifi_BLE_SDK/GD32VW55x_RELEASE_V1.0.2/MSDK/cloud/alicloud/src/protocol/alcs\alcs_coap.c ****             COAP_DEBUG("path: %s,len=%d", path, (int)strlen(path));
 1671              		.loc 1 400 13 is_stmt 1
 1672 01f2 97000000 		call	strncpy
 1672      E7800000 
 1673              	.LVL168:
 401:C:/Users/stapi/OneDrive/Desktop/GD32VW553/V1_MQTT_OK/GD32VW55X_Wifi_BLE_SDK/GD32VW55x_RELEASE_V1.0.2/MSDK/cloud/alicloud/src/protocol/alcs\alcs_coap.c ****             CoAPStrOption_add(message, COAP_OPTION_URI_PATH,
 1674              		.loc 1 401 13
 1675 01fa 0808     		addi	a0,sp,16
 1676 01fc 97000000 		call	strlen
 1676      E7800000 
 1677              	.LVL169:
 1678 0204 2A88     		mv	a6,a0
 1679 0206 9546     		li	a3,5
 1680 0208 13061019 		li	a2,401
 1681 020c 93050A00 		addi	a1,s4,%lo(.LANCHOR4)
 1682 0210 1C08     		addi	a5,sp,16
 1683 0212 13870B00 		addi	a4,s7,%lo(.LC14)
 1684 0216 13850A00 		addi	a0,s5,%lo(.LC8)
 1685 021a 97000000 		call	LITE_syslog
 1685      E7800000 
 1686              	.LVL170:
 402:C:/Users/stapi/OneDrive/Desktop/GD32VW553/V1_MQTT_OK/GD32VW55X_Wifi_BLE_SDK/GD32VW55x_RELEASE_V1.0.2/MSDK/cloud/alicloud/src/protocol/alcs\alcs_coap.c ****                               (unsigned char *)path, (int)strlen(path));
 1687              		.loc 1 402 13
 403:C:/Users/stapi/OneDrive/Desktop/GD32VW553/V1_MQTT_OK/GD32VW55X_Wifi_BLE_SDK/GD32VW55x_RELEASE_V1.0.2/MSDK/cloud/alicloud/src/protocol/alcs\alcs_coap.c ****         }
 1688              		.loc 1 403 59 is_stmt 0
 1689 0222 0808     		addi	a0,sp,16
 1690 0224 97000000 		call	strlen
 1690      E7800000 
 1691              	.LVL171:
 402:C:/Users/stapi/OneDrive/Desktop/GD32VW553/V1_MQTT_OK/GD32VW55X_Wifi_BLE_SDK/GD32VW55x_RELEASE_V1.0.2/MSDK/cloud/alicloud/src/protocol/alcs\alcs_coap.c ****                               (unsigned char *)path, (int)strlen(path));
 1692              		.loc 1 402 13
 1693 022c B3460508 		zext.h	a3,a0
 1694 0230 1008     		addi	a2,sp,16
 1695 0232 AD45     		li	a1,11
 1696 0234 2685     		mv	a0,s1
 1697 0236 97000000 		call	CoAPStrOption_add
 1697      E7800000 
 1698              	.LVL172:
 1699              	.L100:
 405:C:/Users/stapi/OneDrive/Desktop/GD32VW553/V1_MQTT_OK/GD32VW55X_Wifi_BLE_SDK/GD32VW55x_RELEASE_V1.0.2/MSDK/cloud/alicloud/src/protocol/alcs\alcs_coap.c ****     }
 1700              		.loc 1 405 9 is_stmt 1
 405:C:/Users/stapi/OneDrive/Desktop/GD32VW553/V1_MQTT_OK/GD32VW55X_Wifi_BLE_SDK/GD32VW55x_RELEASE_V1.0.2/MSDK/cloud/alicloud/src/protocol/alcs\alcs_coap.c ****     }
 1701              		.loc 1 405 13 is_stmt 0
 1702 023e 5A89     		mv	s2,s6
 1703              	.LVL173:
 1704 0240 15B7     		j	.L97
 1705              	.LBE34:
 1706              	.LBE35:
 1707              		.cfi_endproc
 1708              	.LFE41:
 1710              		.globl	g_alcs_ctx
 1711              		.globl	resource_cb_head
 1712              		.section	.rodata.__FUNCTION__.0,"a"
 1713              		.align	2
 1714              		.set	.LANCHOR4,. + 0
 1717              	__FUNCTION__.0:
 1718 0000 70617468 		.string	"path_2_option"
 1718      5F325F6F 
 1718      7074696F 
 1718      6E00
 1719              		.section	.rodata.__FUNCTION__.1,"a"
 1720              		.align	2
 1721              		.set	.LANCHOR2,. + 0
 1724              	__FUNCTION__.1:
 1725 0000 616C6373 		.string	"alcs_observe_notify"
 1725      5F6F6273 
 1725      65727665 
 1725      5F6E6F74 
 1725      69667900 
 1726              		.section	.sbss.g_alcs_ctx,"aw",@nobits
 1727              		.align	2
 1728              		.set	.LANCHOR3,. + 0
 1731              	g_alcs_ctx:
 1732 0000 00000000 		.zero	4
 1733              		.section	.sbss.tokenSeed,"aw",@nobits
 1734              		.align	2
 1735              		.set	.LANCHOR0,. + 0
 1738              	tokenSeed:
 1739 0000 00000000 		.zero	4
 1740              		.section	.sdata.resource_cb_head,"aw"
 1741              		.align	2
 1742              		.set	.LANCHOR1,. + 0
 1745              	resource_cb_head:
 1746 0000 00000000 		.word	resource_cb_head
 1747 0004 00000000 		.word	resource_cb_head
 1748              		.text
 1749              	.Letext0:
 1750              		.file 3 "c:\\users\\stapi\\onedrive\\desktop\\gd32vw553\\embeddedbuilder_v1.4.7.26843\\tools\\nucl
 1751              		.file 4 "c:\\users\\stapi\\onedrive\\desktop\\gd32vw553\\embeddedbuilder_v1.4.7.26843\\tools\\nucl
 1752              		.file 5 "c:\\users\\stapi\\onedrive\\desktop\\gd32vw553\\embeddedbuilder_v1.4.7.26843\\tools\\nucl
 1753              		.file 6 "..\\..\\..\\..\\cloud\\alicloud\\include/iot_import.h"
 1754              		.file 7 "..\\..\\..\\..\\cloud\\alicloud\\src\\protocol\\coap\\local/CoAPExport.h"
 1755              		.file 8 "c:\\users\\stapi\\onedrive\\desktop\\gd32vw553\\embeddedbuilder_v1.4.7.26843\\tools\\nucl
 1756              		.file 9 "..\\..\\..\\..\\cloud\\alicloud\\src\\infra\\log/iotx_log.h"
 1757              		.file 10 "..\\..\\..\\..\\cloud\\alicloud\\src\\protocol\\coap\\local/CoAPMessage.h"
 1758              		.file 11 "..\\..\\..\\..\\cloud\\alicloud\\src\\infra\\utils/iotx_utils.h"
 1759              		.file 12 "..\\..\\..\\..\\cloud\\alicloud\\src\\protocol\\coap\\local/CoAPServer.h"
 1760              		.file 13 "..\\..\\..\\..\\cloud\\alicloud\\src\\protocol\\coap\\local/CoAPResource.h"
 1761              		.file 14 "C:/Users/stapi/OneDrive/Desktop/GD32VW553/V1_MQTT_OK/GD32VW55X_Wifi_BLE_SDK/GD32VW55x_RE
 1762              		.file 15 "<built-in>"